
target/thumbv6m-none-eabi/opt-3/examples/complex_dynamic_type:     file format elf32-littlearm

Sections:
Idx Name          Size      VMA       LMA       File off  Algn
  0 .ARM.exidx    00000010  000100d4  000100d4  000000d4  2**2
                  CONTENTS, ALLOC, LOAD, READONLY, DATA
  1 .text         0000b02e  000200e4  000200e4  000000e4  2**2
                  CONTENTS, ALLOC, LOAD, READONLY, CODE
  2 .comment      0000008b  00000000  00000000  0000b112  2**0
                  CONTENTS, READONLY
  3 .ARM.attributes 00000032  00000000  00000000  0000b19d  2**0
                  CONTENTS, READONLY

Disassembly of section .text:

000200e4 <_ZN20complex_dynamic_type3app17h000f68b702893cf9E>:
   200e4:	b5f0      	push	{r4, r5, r6, r7, lr}
   200e6:	af03      	add	r7, sp, #12
   200e8:	b09f      	sub	sp, #124	@ 0x7c
   200ea:	9003      	str	r0, [sp, #12]
   200ec:	a804      	add	r0, sp, #16
   200ee:	2402      	movs	r4, #2
   200f0:	7004      	strb	r4, [r0, #0]
   200f2:	1c46      	adds	r6, r0, #1
   200f4:	222e      	movs	r2, #46	@ 0x2e
   200f6:	9202      	str	r2, [sp, #8]
   200f8:	4630      	mov	r0, r6
   200fa:	f00b f805 	bl	2b108 <__aeabi_memcpy>
   200fe:	ad10      	add	r5, sp, #64	@ 0x40
   20100:	1c68      	adds	r0, r5, #1
   20102:	2138      	movs	r1, #56	@ 0x38
   20104:	9001      	str	r0, [sp, #4]
   20106:	f00a fe3f 	bl	2ad88 <__aeabi_memclr>
   2010a:	9400      	str	r4, [sp, #0]
   2010c:	702c      	strb	r4, [r5, #0]
   2010e:	4848      	ldr	r0, [pc, #288]	@ (20230 <_ZN20complex_dynamic_type3app17h000f68b702893cf9E+0x14c>)
   20110:	2109      	movs	r1, #9
   20112:	4632      	mov	r2, r6
   20114:	9b02      	ldr	r3, [sp, #8]
   20116:	df04      	svc	4
   20118:	2802      	cmp	r0, #2
   2011a:	d104      	bne.n	20126 <_ZN20complex_dynamic_type3app17h000f68b702893cf9E+0x42>
   2011c:	2001      	movs	r0, #1
   2011e:	9a03      	ldr	r2, [sp, #12]
   20120:	7010      	strb	r0, [r2, #0]
   20122:	6051      	str	r1, [r2, #4]
   20124:	e02d      	b.n	20182 <_ZN20complex_dynamic_type3app17h000f68b702893cf9E+0x9e>
   20126:	9d03      	ldr	r5, [sp, #12]
   20128:	a804      	add	r0, sp, #16
   2012a:	2104      	movs	r1, #4
   2012c:	7001      	strb	r1, [r0, #0]
   2012e:	4840      	ldr	r0, [pc, #256]	@ (20230 <_ZN20complex_dynamic_type3app17h000f68b702893cf9E+0x14c>)
   20130:	2109      	movs	r1, #9
   20132:	2338      	movs	r3, #56	@ 0x38
   20134:	9c01      	ldr	r4, [sp, #4]
   20136:	4622      	mov	r2, r4
   20138:	df03      	svc	3
   2013a:	2802      	cmp	r0, #2
   2013c:	d10e      	bne.n	2015c <_ZN20complex_dynamic_type3app17h000f68b702893cf9E+0x78>
   2013e:	2001      	movs	r0, #1
   20140:	7028      	strb	r0, [r5, #0]
   20142:	6069      	str	r1, [r5, #4]
   20144:	a810      	add	r0, sp, #64	@ 0x40
   20146:	7800      	ldrb	r0, [r0, #0]
   20148:	2802      	cmp	r0, #2
   2014a:	d01a      	beq.n	20182 <_ZN20complex_dynamic_type3app17h000f68b702893cf9E+0x9e>
   2014c:	2803      	cmp	r0, #3
   2014e:	d013      	beq.n	20178 <_ZN20complex_dynamic_type3app17h000f68b702893cf9E+0x94>
   20150:	4837      	ldr	r0, [pc, #220]	@ (20230 <_ZN20complex_dynamic_type3app17h000f68b702893cf9E+0x14c>)
   20152:	2109      	movs	r1, #9
   20154:	2200      	movs	r2, #0
   20156:	4613      	mov	r3, r2
   20158:	df04      	svc	4
   2015a:	e012      	b.n	20182 <_ZN20complex_dynamic_type3app17h000f68b702893cf9E+0x9e>
   2015c:	a810      	add	r0, sp, #64	@ 0x40
   2015e:	2103      	movs	r1, #3
   20160:	7001      	strb	r1, [r0, #0]
   20162:	4833      	ldr	r0, [pc, #204]	@ (20230 <_ZN20complex_dynamic_type3app17h000f68b702893cf9E+0x14c>)
   20164:	2109      	movs	r1, #9
   20166:	2600      	movs	r6, #0
   20168:	460a      	mov	r2, r1
   2016a:	4633      	mov	r3, r6
   2016c:	df02      	svc	2
   2016e:	2880      	cmp	r0, #128	@ 0x80
   20170:	d21b      	bcs.n	201aa <_ZN20complex_dynamic_type3app17h000f68b702893cf9E+0xc6>
   20172:	2001      	movs	r0, #1
   20174:	7028      	strb	r0, [r5, #0]
   20176:	6069      	str	r1, [r5, #4]
   20178:	482d      	ldr	r0, [pc, #180]	@ (20230 <_ZN20complex_dynamic_type3app17h000f68b702893cf9E+0x14c>)
   2017a:	2109      	movs	r1, #9
   2017c:	2200      	movs	r2, #0
   2017e:	4613      	mov	r3, r2
   20180:	df03      	svc	3
   20182:	a804      	add	r0, sp, #16
   20184:	7800      	ldrb	r0, [r0, #0]
   20186:	2802      	cmp	r0, #2
   20188:	d045      	beq.n	20216 <_ZN20complex_dynamic_type3app17h000f68b702893cf9E+0x132>
   2018a:	2804      	cmp	r0, #4
   2018c:	d106      	bne.n	2019c <_ZN20complex_dynamic_type3app17h000f68b702893cf9E+0xb8>
   2018e:	4828      	ldr	r0, [pc, #160]	@ (20230 <_ZN20complex_dynamic_type3app17h000f68b702893cf9E+0x14c>)
   20190:	2109      	movs	r1, #9
   20192:	2200      	movs	r2, #0
   20194:	4613      	mov	r3, r2
   20196:	df04      	svc	4
   20198:	b01f      	add	sp, #124	@ 0x7c
   2019a:	bdf0      	pop	{r4, r5, r6, r7, pc}
   2019c:	4824      	ldr	r0, [pc, #144]	@ (20230 <_ZN20complex_dynamic_type3app17h000f68b702893cf9E+0x14c>)
   2019e:	2109      	movs	r1, #9
   201a0:	2200      	movs	r2, #0
   201a2:	4613      	mov	r3, r2
   201a4:	df03      	svc	3
   201a6:	b01f      	add	sp, #124	@ 0x7c
   201a8:	bdf0      	pop	{r4, r5, r6, r7, pc}
   201aa:	a804      	add	r0, sp, #16
   201ac:	7800      	ldrb	r0, [r0, #0]
   201ae:	2802      	cmp	r0, #2
   201b0:	d00c      	beq.n	201cc <_ZN20complex_dynamic_type3app17h000f68b702893cf9E+0xe8>
   201b2:	2803      	cmp	r0, #3
   201b4:	d105      	bne.n	201c2 <_ZN20complex_dynamic_type3app17h000f68b702893cf9E+0xde>
   201b6:	481e      	ldr	r0, [pc, #120]	@ (20230 <_ZN20complex_dynamic_type3app17h000f68b702893cf9E+0x14c>)
   201b8:	2109      	movs	r1, #9
   201ba:	2200      	movs	r2, #0
   201bc:	4613      	mov	r3, r2
   201be:	df03      	svc	3
   201c0:	e004      	b.n	201cc <_ZN20complex_dynamic_type3app17h000f68b702893cf9E+0xe8>
   201c2:	481b      	ldr	r0, [pc, #108]	@ (20230 <_ZN20complex_dynamic_type3app17h000f68b702893cf9E+0x14c>)
   201c4:	2109      	movs	r1, #9
   201c6:	2200      	movs	r2, #0
   201c8:	4613      	mov	r3, r2
   201ca:	df04      	svc	4
   201cc:	a804      	add	r0, sp, #16
   201ce:	9900      	ldr	r1, [sp, #0]
   201d0:	7001      	strb	r1, [r0, #0]
   201d2:	a810      	add	r0, sp, #64	@ 0x40
   201d4:	7800      	ldrb	r0, [r0, #0]
   201d6:	2804      	cmp	r0, #4
   201d8:	d007      	beq.n	201ea <_ZN20complex_dynamic_type3app17h000f68b702893cf9E+0x106>
   201da:	2803      	cmp	r0, #3
   201dc:	d11d      	bne.n	2021a <_ZN20complex_dynamic_type3app17h000f68b702893cf9E+0x136>
   201de:	4814      	ldr	r0, [pc, #80]	@ (20230 <_ZN20complex_dynamic_type3app17h000f68b702893cf9E+0x14c>)
   201e0:	2109      	movs	r1, #9
   201e2:	2200      	movs	r2, #0
   201e4:	4613      	mov	r3, r2
   201e6:	df03      	svc	3
   201e8:	e004      	b.n	201f4 <_ZN20complex_dynamic_type3app17h000f68b702893cf9E+0x110>
   201ea:	4811      	ldr	r0, [pc, #68]	@ (20230 <_ZN20complex_dynamic_type3app17h000f68b702893cf9E+0x14c>)
   201ec:	2109      	movs	r1, #9
   201ee:	2200      	movs	r2, #0
   201f0:	4613      	mov	r3, r2
   201f2:	df04      	svc	4
   201f4:	a804      	add	r0, sp, #16
   201f6:	7804      	ldrb	r4, [r0, #0]
   201f8:	1c68      	adds	r0, r5, #1
   201fa:	2238      	movs	r2, #56	@ 0x38
   201fc:	9901      	ldr	r1, [sp, #4]
   201fe:	f00a ff83 	bl	2b108 <__aeabi_memcpy>
   20202:	702e      	strb	r6, [r5, #0]
   20204:	2c02      	cmp	r4, #2
   20206:	d006      	beq.n	20216 <_ZN20complex_dynamic_type3app17h000f68b702893cf9E+0x132>
   20208:	4809      	ldr	r0, [pc, #36]	@ (20230 <_ZN20complex_dynamic_type3app17h000f68b702893cf9E+0x14c>)
   2020a:	2109      	movs	r1, #9
   2020c:	2200      	movs	r2, #0
   2020e:	4613      	mov	r3, r2
   20210:	2c04      	cmp	r4, #4
   20212:	d10a      	bne.n	2022a <_ZN20complex_dynamic_type3app17h000f68b702893cf9E+0x146>
   20214:	df04      	svc	4
   20216:	b01f      	add	sp, #124	@ 0x7c
   20218:	bdf0      	pop	{r4, r5, r6, r7, pc}
   2021a:	1c68      	adds	r0, r5, #1
   2021c:	2238      	movs	r2, #56	@ 0x38
   2021e:	4621      	mov	r1, r4
   20220:	f00a ff72 	bl	2b108 <__aeabi_memcpy>
   20224:	702e      	strb	r6, [r5, #0]
   20226:	b01f      	add	sp, #124	@ 0x7c
   20228:	bdf0      	pop	{r4, r5, r6, r7, pc}
   2022a:	df03      	svc	3
   2022c:	b01f      	add	sp, #124	@ 0x7c
   2022e:	bdf0      	pop	{r4, r5, r6, r7, pc}
   20230:	00000a9d 	.word	0x00000a9d

00020234 <_ZN20complex_dynamic_type3app17h01af947ec1dc48ffE>:
   20234:	b5f0      	push	{r4, r5, r6, r7, lr}
   20236:	af03      	add	r7, sp, #12
   20238:	b09d      	sub	sp, #116	@ 0x74
   2023a:	9003      	str	r0, [sp, #12]
   2023c:	a804      	add	r0, sp, #16
   2023e:	2402      	movs	r4, #2
   20240:	7004      	strb	r4, [r0, #0]
   20242:	1c46      	adds	r6, r0, #1
   20244:	2251      	movs	r2, #81	@ 0x51
   20246:	9202      	str	r2, [sp, #8]
   20248:	4630      	mov	r0, r6
   2024a:	f00a ff5d 	bl	2b108 <__aeabi_memcpy>
   2024e:	ad19      	add	r5, sp, #100	@ 0x64
   20250:	1c68      	adds	r0, r5, #1
   20252:	210f      	movs	r1, #15
   20254:	9001      	str	r0, [sp, #4]
   20256:	f00a fd97 	bl	2ad88 <__aeabi_memclr>
   2025a:	9400      	str	r4, [sp, #0]
   2025c:	702c      	strb	r4, [r5, #0]
   2025e:	4848      	ldr	r0, [pc, #288]	@ (20380 <_ZN20complex_dynamic_type3app17h01af947ec1dc48ffE+0x14c>)
   20260:	2100      	movs	r1, #0
   20262:	4632      	mov	r2, r6
   20264:	9b02      	ldr	r3, [sp, #8]
   20266:	df04      	svc	4
   20268:	2802      	cmp	r0, #2
   2026a:	d104      	bne.n	20276 <_ZN20complex_dynamic_type3app17h01af947ec1dc48ffE+0x42>
   2026c:	2001      	movs	r0, #1
   2026e:	9a03      	ldr	r2, [sp, #12]
   20270:	7010      	strb	r0, [r2, #0]
   20272:	6051      	str	r1, [r2, #4]
   20274:	e02c      	b.n	202d0 <_ZN20complex_dynamic_type3app17h01af947ec1dc48ffE+0x9c>
   20276:	9d03      	ldr	r5, [sp, #12]
   20278:	a804      	add	r0, sp, #16
   2027a:	2104      	movs	r1, #4
   2027c:	7001      	strb	r1, [r0, #0]
   2027e:	4840      	ldr	r0, [pc, #256]	@ (20380 <_ZN20complex_dynamic_type3app17h01af947ec1dc48ffE+0x14c>)
   20280:	2403      	movs	r4, #3
   20282:	230f      	movs	r3, #15
   20284:	4621      	mov	r1, r4
   20286:	9a01      	ldr	r2, [sp, #4]
   20288:	df03      	svc	3
   2028a:	2802      	cmp	r0, #2
   2028c:	d10e      	bne.n	202ac <_ZN20complex_dynamic_type3app17h01af947ec1dc48ffE+0x78>
   2028e:	2001      	movs	r0, #1
   20290:	7028      	strb	r0, [r5, #0]
   20292:	6069      	str	r1, [r5, #4]
   20294:	a819      	add	r0, sp, #100	@ 0x64
   20296:	7800      	ldrb	r0, [r0, #0]
   20298:	2802      	cmp	r0, #2
   2029a:	d019      	beq.n	202d0 <_ZN20complex_dynamic_type3app17h01af947ec1dc48ffE+0x9c>
   2029c:	2803      	cmp	r0, #3
   2029e:	d012      	beq.n	202c6 <_ZN20complex_dynamic_type3app17h01af947ec1dc48ffE+0x92>
   202a0:	4837      	ldr	r0, [pc, #220]	@ (20380 <_ZN20complex_dynamic_type3app17h01af947ec1dc48ffE+0x14c>)
   202a2:	2103      	movs	r1, #3
   202a4:	2200      	movs	r2, #0
   202a6:	4613      	mov	r3, r2
   202a8:	df04      	svc	4
   202aa:	e011      	b.n	202d0 <_ZN20complex_dynamic_type3app17h01af947ec1dc48ffE+0x9c>
   202ac:	a819      	add	r0, sp, #100	@ 0x64
   202ae:	7004      	strb	r4, [r0, #0]
   202b0:	4833      	ldr	r0, [pc, #204]	@ (20380 <_ZN20complex_dynamic_type3app17h01af947ec1dc48ffE+0x14c>)
   202b2:	2600      	movs	r6, #0
   202b4:	4631      	mov	r1, r6
   202b6:	4622      	mov	r2, r4
   202b8:	4633      	mov	r3, r6
   202ba:	df02      	svc	2
   202bc:	2880      	cmp	r0, #128	@ 0x80
   202be:	d21b      	bcs.n	202f8 <_ZN20complex_dynamic_type3app17h01af947ec1dc48ffE+0xc4>
   202c0:	2001      	movs	r0, #1
   202c2:	7028      	strb	r0, [r5, #0]
   202c4:	6069      	str	r1, [r5, #4]
   202c6:	482e      	ldr	r0, [pc, #184]	@ (20380 <_ZN20complex_dynamic_type3app17h01af947ec1dc48ffE+0x14c>)
   202c8:	2103      	movs	r1, #3
   202ca:	2200      	movs	r2, #0
   202cc:	4613      	mov	r3, r2
   202ce:	df03      	svc	3
   202d0:	a804      	add	r0, sp, #16
   202d2:	7800      	ldrb	r0, [r0, #0]
   202d4:	2802      	cmp	r0, #2
   202d6:	d045      	beq.n	20364 <_ZN20complex_dynamic_type3app17h01af947ec1dc48ffE+0x130>
   202d8:	2804      	cmp	r0, #4
   202da:	d106      	bne.n	202ea <_ZN20complex_dynamic_type3app17h01af947ec1dc48ffE+0xb6>
   202dc:	4828      	ldr	r0, [pc, #160]	@ (20380 <_ZN20complex_dynamic_type3app17h01af947ec1dc48ffE+0x14c>)
   202de:	2100      	movs	r1, #0
   202e0:	460a      	mov	r2, r1
   202e2:	460b      	mov	r3, r1
   202e4:	df04      	svc	4
   202e6:	b01d      	add	sp, #116	@ 0x74
   202e8:	bdf0      	pop	{r4, r5, r6, r7, pc}
   202ea:	4825      	ldr	r0, [pc, #148]	@ (20380 <_ZN20complex_dynamic_type3app17h01af947ec1dc48ffE+0x14c>)
   202ec:	2100      	movs	r1, #0
   202ee:	460a      	mov	r2, r1
   202f0:	460b      	mov	r3, r1
   202f2:	df03      	svc	3
   202f4:	b01d      	add	sp, #116	@ 0x74
   202f6:	bdf0      	pop	{r4, r5, r6, r7, pc}
   202f8:	a804      	add	r0, sp, #16
   202fa:	7800      	ldrb	r0, [r0, #0]
   202fc:	2802      	cmp	r0, #2
   202fe:	d00c      	beq.n	2031a <_ZN20complex_dynamic_type3app17h01af947ec1dc48ffE+0xe6>
   20300:	2803      	cmp	r0, #3
   20302:	d105      	bne.n	20310 <_ZN20complex_dynamic_type3app17h01af947ec1dc48ffE+0xdc>
   20304:	481e      	ldr	r0, [pc, #120]	@ (20380 <_ZN20complex_dynamic_type3app17h01af947ec1dc48ffE+0x14c>)
   20306:	2100      	movs	r1, #0
   20308:	460a      	mov	r2, r1
   2030a:	460b      	mov	r3, r1
   2030c:	df03      	svc	3
   2030e:	e004      	b.n	2031a <_ZN20complex_dynamic_type3app17h01af947ec1dc48ffE+0xe6>
   20310:	481b      	ldr	r0, [pc, #108]	@ (20380 <_ZN20complex_dynamic_type3app17h01af947ec1dc48ffE+0x14c>)
   20312:	2100      	movs	r1, #0
   20314:	460a      	mov	r2, r1
   20316:	460b      	mov	r3, r1
   20318:	df04      	svc	4
   2031a:	a804      	add	r0, sp, #16
   2031c:	9900      	ldr	r1, [sp, #0]
   2031e:	7001      	strb	r1, [r0, #0]
   20320:	a819      	add	r0, sp, #100	@ 0x64
   20322:	7800      	ldrb	r0, [r0, #0]
   20324:	2804      	cmp	r0, #4
   20326:	d007      	beq.n	20338 <_ZN20complex_dynamic_type3app17h01af947ec1dc48ffE+0x104>
   20328:	2803      	cmp	r0, #3
   2032a:	d11d      	bne.n	20368 <_ZN20complex_dynamic_type3app17h01af947ec1dc48ffE+0x134>
   2032c:	4814      	ldr	r0, [pc, #80]	@ (20380 <_ZN20complex_dynamic_type3app17h01af947ec1dc48ffE+0x14c>)
   2032e:	2103      	movs	r1, #3
   20330:	2200      	movs	r2, #0
   20332:	4613      	mov	r3, r2
   20334:	df03      	svc	3
   20336:	e004      	b.n	20342 <_ZN20complex_dynamic_type3app17h01af947ec1dc48ffE+0x10e>
   20338:	4811      	ldr	r0, [pc, #68]	@ (20380 <_ZN20complex_dynamic_type3app17h01af947ec1dc48ffE+0x14c>)
   2033a:	2103      	movs	r1, #3
   2033c:	2200      	movs	r2, #0
   2033e:	4613      	mov	r3, r2
   20340:	df04      	svc	4
   20342:	a804      	add	r0, sp, #16
   20344:	7804      	ldrb	r4, [r0, #0]
   20346:	1c68      	adds	r0, r5, #1
   20348:	220f      	movs	r2, #15
   2034a:	9901      	ldr	r1, [sp, #4]
   2034c:	f00a fedc 	bl	2b108 <__aeabi_memcpy>
   20350:	702e      	strb	r6, [r5, #0]
   20352:	2c02      	cmp	r4, #2
   20354:	d006      	beq.n	20364 <_ZN20complex_dynamic_type3app17h01af947ec1dc48ffE+0x130>
   20356:	480a      	ldr	r0, [pc, #40]	@ (20380 <_ZN20complex_dynamic_type3app17h01af947ec1dc48ffE+0x14c>)
   20358:	2100      	movs	r1, #0
   2035a:	460a      	mov	r2, r1
   2035c:	460b      	mov	r3, r1
   2035e:	2c04      	cmp	r4, #4
   20360:	d10a      	bne.n	20378 <_ZN20complex_dynamic_type3app17h01af947ec1dc48ffE+0x144>
   20362:	df04      	svc	4
   20364:	b01d      	add	sp, #116	@ 0x74
   20366:	bdf0      	pop	{r4, r5, r6, r7, pc}
   20368:	1c68      	adds	r0, r5, #1
   2036a:	220f      	movs	r2, #15
   2036c:	9901      	ldr	r1, [sp, #4]
   2036e:	f00a fecb 	bl	2b108 <__aeabi_memcpy>
   20372:	702e      	strb	r6, [r5, #0]
   20374:	b01d      	add	sp, #116	@ 0x74
   20376:	bdf0      	pop	{r4, r5, r6, r7, pc}
   20378:	df03      	svc	3
   2037a:	b01d      	add	sp, #116	@ 0x74
   2037c:	bdf0      	pop	{r4, r5, r6, r7, pc}
   2037e:	46c0      	nop			@ (mov r8, r8)
   20380:	000013bf 	.word	0x000013bf

00020384 <_ZN20complex_dynamic_type3app17h063a83fb3eccf4c9E>:
   20384:	b5f0      	push	{r4, r5, r6, r7, lr}
   20386:	af03      	add	r7, sp, #12
   20388:	b097      	sub	sp, #92	@ 0x5c
   2038a:	9002      	str	r0, [sp, #8]
   2038c:	a803      	add	r0, sp, #12
   2038e:	2602      	movs	r6, #2
   20390:	7006      	strb	r6, [r0, #0]
   20392:	1c40      	adds	r0, r0, #1
   20394:	9001      	str	r0, [sp, #4]
   20396:	2523      	movs	r5, #35	@ 0x23
   20398:	462a      	mov	r2, r5
   2039a:	f00a feb5 	bl	2b108 <__aeabi_memcpy>
   2039e:	ac0c      	add	r4, sp, #48	@ 0x30
   203a0:	1c60      	adds	r0, r4, #1
   203a2:	212b      	movs	r1, #43	@ 0x2b
   203a4:	9000      	str	r0, [sp, #0]
   203a6:	f00a fcef 	bl	2ad88 <__aeabi_memclr>
   203aa:	7026      	strb	r6, [r4, #0]
   203ac:	484a      	ldr	r0, [pc, #296]	@ (204d8 <_ZN20complex_dynamic_type3app17h063a83fb3eccf4c9E+0x154>)
   203ae:	4631      	mov	r1, r6
   203b0:	9a01      	ldr	r2, [sp, #4]
   203b2:	462b      	mov	r3, r5
   203b4:	df04      	svc	4
   203b6:	2802      	cmp	r0, #2
   203b8:	d104      	bne.n	203c4 <_ZN20complex_dynamic_type3app17h063a83fb3eccf4c9E+0x40>
   203ba:	2001      	movs	r0, #1
   203bc:	9a02      	ldr	r2, [sp, #8]
   203be:	7010      	strb	r0, [r2, #0]
   203c0:	6051      	str	r1, [r2, #4]
   203c2:	e02e      	b.n	20422 <_ZN20complex_dynamic_type3app17h063a83fb3eccf4c9E+0x9e>
   203c4:	9d02      	ldr	r5, [sp, #8]
   203c6:	a803      	add	r0, sp, #12
   203c8:	2104      	movs	r1, #4
   203ca:	7001      	strb	r1, [r0, #0]
   203cc:	4842      	ldr	r0, [pc, #264]	@ (204d8 <_ZN20complex_dynamic_type3app17h063a83fb3eccf4c9E+0x154>)
   203ce:	2100      	movs	r1, #0
   203d0:	232b      	movs	r3, #43	@ 0x2b
   203d2:	9c00      	ldr	r4, [sp, #0]
   203d4:	4622      	mov	r2, r4
   203d6:	df03      	svc	3
   203d8:	2802      	cmp	r0, #2
   203da:	d10e      	bne.n	203fa <_ZN20complex_dynamic_type3app17h063a83fb3eccf4c9E+0x76>
   203dc:	2001      	movs	r0, #1
   203de:	7028      	strb	r0, [r5, #0]
   203e0:	6069      	str	r1, [r5, #4]
   203e2:	a80c      	add	r0, sp, #48	@ 0x30
   203e4:	7800      	ldrb	r0, [r0, #0]
   203e6:	2802      	cmp	r0, #2
   203e8:	d01b      	beq.n	20422 <_ZN20complex_dynamic_type3app17h063a83fb3eccf4c9E+0x9e>
   203ea:	2803      	cmp	r0, #3
   203ec:	d014      	beq.n	20418 <_ZN20complex_dynamic_type3app17h063a83fb3eccf4c9E+0x94>
   203ee:	483a      	ldr	r0, [pc, #232]	@ (204d8 <_ZN20complex_dynamic_type3app17h063a83fb3eccf4c9E+0x154>)
   203f0:	2100      	movs	r1, #0
   203f2:	460a      	mov	r2, r1
   203f4:	460b      	mov	r3, r1
   203f6:	df04      	svc	4
   203f8:	e013      	b.n	20422 <_ZN20complex_dynamic_type3app17h063a83fb3eccf4c9E+0x9e>
   203fa:	a80c      	add	r0, sp, #48	@ 0x30
   203fc:	2103      	movs	r1, #3
   203fe:	7001      	strb	r1, [r0, #0]
   20400:	4835      	ldr	r0, [pc, #212]	@ (204d8 <_ZN20complex_dynamic_type3app17h063a83fb3eccf4c9E+0x154>)
   20402:	2602      	movs	r6, #2
   20404:	2200      	movs	r2, #0
   20406:	4631      	mov	r1, r6
   20408:	9201      	str	r2, [sp, #4]
   2040a:	4613      	mov	r3, r2
   2040c:	df02      	svc	2
   2040e:	2880      	cmp	r0, #128	@ 0x80
   20410:	d21b      	bcs.n	2044a <_ZN20complex_dynamic_type3app17h063a83fb3eccf4c9E+0xc6>
   20412:	2001      	movs	r0, #1
   20414:	7028      	strb	r0, [r5, #0]
   20416:	6069      	str	r1, [r5, #4]
   20418:	482f      	ldr	r0, [pc, #188]	@ (204d8 <_ZN20complex_dynamic_type3app17h063a83fb3eccf4c9E+0x154>)
   2041a:	2100      	movs	r1, #0
   2041c:	460a      	mov	r2, r1
   2041e:	460b      	mov	r3, r1
   20420:	df03      	svc	3
   20422:	a803      	add	r0, sp, #12
   20424:	7800      	ldrb	r0, [r0, #0]
   20426:	2802      	cmp	r0, #2
   20428:	d047      	beq.n	204ba <_ZN20complex_dynamic_type3app17h063a83fb3eccf4c9E+0x136>
   2042a:	2804      	cmp	r0, #4
   2042c:	d106      	bne.n	2043c <_ZN20complex_dynamic_type3app17h063a83fb3eccf4c9E+0xb8>
   2042e:	482a      	ldr	r0, [pc, #168]	@ (204d8 <_ZN20complex_dynamic_type3app17h063a83fb3eccf4c9E+0x154>)
   20430:	2102      	movs	r1, #2
   20432:	2200      	movs	r2, #0
   20434:	4613      	mov	r3, r2
   20436:	df04      	svc	4
   20438:	b017      	add	sp, #92	@ 0x5c
   2043a:	bdf0      	pop	{r4, r5, r6, r7, pc}
   2043c:	4826      	ldr	r0, [pc, #152]	@ (204d8 <_ZN20complex_dynamic_type3app17h063a83fb3eccf4c9E+0x154>)
   2043e:	2102      	movs	r1, #2
   20440:	2200      	movs	r2, #0
   20442:	4613      	mov	r3, r2
   20444:	df03      	svc	3
   20446:	b017      	add	sp, #92	@ 0x5c
   20448:	bdf0      	pop	{r4, r5, r6, r7, pc}
   2044a:	a803      	add	r0, sp, #12
   2044c:	7800      	ldrb	r0, [r0, #0]
   2044e:	2802      	cmp	r0, #2
   20450:	d00c      	beq.n	2046c <_ZN20complex_dynamic_type3app17h063a83fb3eccf4c9E+0xe8>
   20452:	2803      	cmp	r0, #3
   20454:	d105      	bne.n	20462 <_ZN20complex_dynamic_type3app17h063a83fb3eccf4c9E+0xde>
   20456:	4820      	ldr	r0, [pc, #128]	@ (204d8 <_ZN20complex_dynamic_type3app17h063a83fb3eccf4c9E+0x154>)
   20458:	2102      	movs	r1, #2
   2045a:	2200      	movs	r2, #0
   2045c:	4613      	mov	r3, r2
   2045e:	df03      	svc	3
   20460:	e004      	b.n	2046c <_ZN20complex_dynamic_type3app17h063a83fb3eccf4c9E+0xe8>
   20462:	481d      	ldr	r0, [pc, #116]	@ (204d8 <_ZN20complex_dynamic_type3app17h063a83fb3eccf4c9E+0x154>)
   20464:	2102      	movs	r1, #2
   20466:	2200      	movs	r2, #0
   20468:	4613      	mov	r3, r2
   2046a:	df04      	svc	4
   2046c:	a803      	add	r0, sp, #12
   2046e:	7006      	strb	r6, [r0, #0]
   20470:	a80c      	add	r0, sp, #48	@ 0x30
   20472:	7800      	ldrb	r0, [r0, #0]
   20474:	2804      	cmp	r0, #4
   20476:	d008      	beq.n	2048a <_ZN20complex_dynamic_type3app17h063a83fb3eccf4c9E+0x106>
   20478:	2803      	cmp	r0, #3
   2047a:	d120      	bne.n	204be <_ZN20complex_dynamic_type3app17h063a83fb3eccf4c9E+0x13a>
   2047c:	4626      	mov	r6, r4
   2047e:	4816      	ldr	r0, [pc, #88]	@ (204d8 <_ZN20complex_dynamic_type3app17h063a83fb3eccf4c9E+0x154>)
   20480:	2100      	movs	r1, #0
   20482:	460a      	mov	r2, r1
   20484:	460b      	mov	r3, r1
   20486:	df03      	svc	3
   20488:	e005      	b.n	20496 <_ZN20complex_dynamic_type3app17h063a83fb3eccf4c9E+0x112>
   2048a:	4626      	mov	r6, r4
   2048c:	4812      	ldr	r0, [pc, #72]	@ (204d8 <_ZN20complex_dynamic_type3app17h063a83fb3eccf4c9E+0x154>)
   2048e:	2100      	movs	r1, #0
   20490:	460a      	mov	r2, r1
   20492:	460b      	mov	r3, r1
   20494:	df04      	svc	4
   20496:	a803      	add	r0, sp, #12
   20498:	7804      	ldrb	r4, [r0, #0]
   2049a:	1c68      	adds	r0, r5, #1
   2049c:	222b      	movs	r2, #43	@ 0x2b
   2049e:	4631      	mov	r1, r6
   204a0:	f00a fe32 	bl	2b108 <__aeabi_memcpy>
   204a4:	9801      	ldr	r0, [sp, #4]
   204a6:	7028      	strb	r0, [r5, #0]
   204a8:	2c02      	cmp	r4, #2
   204aa:	d006      	beq.n	204ba <_ZN20complex_dynamic_type3app17h063a83fb3eccf4c9E+0x136>
   204ac:	480a      	ldr	r0, [pc, #40]	@ (204d8 <_ZN20complex_dynamic_type3app17h063a83fb3eccf4c9E+0x154>)
   204ae:	2102      	movs	r1, #2
   204b0:	2200      	movs	r2, #0
   204b2:	4613      	mov	r3, r2
   204b4:	2c04      	cmp	r4, #4
   204b6:	d10b      	bne.n	204d0 <_ZN20complex_dynamic_type3app17h063a83fb3eccf4c9E+0x14c>
   204b8:	df04      	svc	4
   204ba:	b017      	add	sp, #92	@ 0x5c
   204bc:	bdf0      	pop	{r4, r5, r6, r7, pc}
   204be:	1c68      	adds	r0, r5, #1
   204c0:	222b      	movs	r2, #43	@ 0x2b
   204c2:	4621      	mov	r1, r4
   204c4:	f00a fe20 	bl	2b108 <__aeabi_memcpy>
   204c8:	9801      	ldr	r0, [sp, #4]
   204ca:	7028      	strb	r0, [r5, #0]
   204cc:	b017      	add	sp, #92	@ 0x5c
   204ce:	bdf0      	pop	{r4, r5, r6, r7, pc}
   204d0:	df03      	svc	3
   204d2:	b017      	add	sp, #92	@ 0x5c
   204d4:	bdf0      	pop	{r4, r5, r6, r7, pc}
   204d6:	46c0      	nop			@ (mov r8, r8)
   204d8:	00000d5d 	.word	0x00000d5d

000204dc <_ZN20complex_dynamic_type3app17h06b550c031071e36E>:
   204dc:	b5f0      	push	{r4, r5, r6, r7, lr}
   204de:	af03      	add	r7, sp, #12
   204e0:	b0a1      	sub	sp, #132	@ 0x84
   204e2:	9003      	str	r0, [sp, #12]
   204e4:	a804      	add	r0, sp, #16
   204e6:	2402      	movs	r4, #2
   204e8:	7004      	strb	r4, [r0, #0]
   204ea:	1c46      	adds	r6, r0, #1
   204ec:	223c      	movs	r2, #60	@ 0x3c
   204ee:	9202      	str	r2, [sp, #8]
   204f0:	4630      	mov	r0, r6
   204f2:	f00a fe09 	bl	2b108 <__aeabi_memcpy>
   204f6:	ad14      	add	r5, sp, #80	@ 0x50
   204f8:	1c68      	adds	r0, r5, #1
   204fa:	2132      	movs	r1, #50	@ 0x32
   204fc:	9001      	str	r0, [sp, #4]
   204fe:	f00a fc43 	bl	2ad88 <__aeabi_memclr>
   20502:	9400      	str	r4, [sp, #0]
   20504:	702c      	strb	r4, [r5, #0]
   20506:	4848      	ldr	r0, [pc, #288]	@ (20628 <_ZN20complex_dynamic_type3app17h06b550c031071e36E+0x14c>)
   20508:	2106      	movs	r1, #6
   2050a:	4632      	mov	r2, r6
   2050c:	9b02      	ldr	r3, [sp, #8]
   2050e:	df04      	svc	4
   20510:	2802      	cmp	r0, #2
   20512:	d104      	bne.n	2051e <_ZN20complex_dynamic_type3app17h06b550c031071e36E+0x42>
   20514:	2001      	movs	r0, #1
   20516:	9a03      	ldr	r2, [sp, #12]
   20518:	7010      	strb	r0, [r2, #0]
   2051a:	6051      	str	r1, [r2, #4]
   2051c:	e02d      	b.n	2057a <_ZN20complex_dynamic_type3app17h06b550c031071e36E+0x9e>
   2051e:	9d03      	ldr	r5, [sp, #12]
   20520:	a804      	add	r0, sp, #16
   20522:	2104      	movs	r1, #4
   20524:	7001      	strb	r1, [r0, #0]
   20526:	4840      	ldr	r0, [pc, #256]	@ (20628 <_ZN20complex_dynamic_type3app17h06b550c031071e36E+0x14c>)
   20528:	2108      	movs	r1, #8
   2052a:	2332      	movs	r3, #50	@ 0x32
   2052c:	9c01      	ldr	r4, [sp, #4]
   2052e:	4622      	mov	r2, r4
   20530:	df03      	svc	3
   20532:	2802      	cmp	r0, #2
   20534:	d10e      	bne.n	20554 <_ZN20complex_dynamic_type3app17h06b550c031071e36E+0x78>
   20536:	2001      	movs	r0, #1
   20538:	7028      	strb	r0, [r5, #0]
   2053a:	6069      	str	r1, [r5, #4]
   2053c:	a814      	add	r0, sp, #80	@ 0x50
   2053e:	7800      	ldrb	r0, [r0, #0]
   20540:	2802      	cmp	r0, #2
   20542:	d01a      	beq.n	2057a <_ZN20complex_dynamic_type3app17h06b550c031071e36E+0x9e>
   20544:	2803      	cmp	r0, #3
   20546:	d013      	beq.n	20570 <_ZN20complex_dynamic_type3app17h06b550c031071e36E+0x94>
   20548:	4837      	ldr	r0, [pc, #220]	@ (20628 <_ZN20complex_dynamic_type3app17h06b550c031071e36E+0x14c>)
   2054a:	2108      	movs	r1, #8
   2054c:	2200      	movs	r2, #0
   2054e:	4613      	mov	r3, r2
   20550:	df04      	svc	4
   20552:	e012      	b.n	2057a <_ZN20complex_dynamic_type3app17h06b550c031071e36E+0x9e>
   20554:	a814      	add	r0, sp, #80	@ 0x50
   20556:	2103      	movs	r1, #3
   20558:	7001      	strb	r1, [r0, #0]
   2055a:	4833      	ldr	r0, [pc, #204]	@ (20628 <_ZN20complex_dynamic_type3app17h06b550c031071e36E+0x14c>)
   2055c:	2106      	movs	r1, #6
   2055e:	2208      	movs	r2, #8
   20560:	2600      	movs	r6, #0
   20562:	4633      	mov	r3, r6
   20564:	df02      	svc	2
   20566:	2880      	cmp	r0, #128	@ 0x80
   20568:	d21b      	bcs.n	205a2 <_ZN20complex_dynamic_type3app17h06b550c031071e36E+0xc6>
   2056a:	2001      	movs	r0, #1
   2056c:	7028      	strb	r0, [r5, #0]
   2056e:	6069      	str	r1, [r5, #4]
   20570:	482d      	ldr	r0, [pc, #180]	@ (20628 <_ZN20complex_dynamic_type3app17h06b550c031071e36E+0x14c>)
   20572:	2108      	movs	r1, #8
   20574:	2200      	movs	r2, #0
   20576:	4613      	mov	r3, r2
   20578:	df03      	svc	3
   2057a:	a804      	add	r0, sp, #16
   2057c:	7800      	ldrb	r0, [r0, #0]
   2057e:	2802      	cmp	r0, #2
   20580:	d045      	beq.n	2060e <_ZN20complex_dynamic_type3app17h06b550c031071e36E+0x132>
   20582:	2804      	cmp	r0, #4
   20584:	d106      	bne.n	20594 <_ZN20complex_dynamic_type3app17h06b550c031071e36E+0xb8>
   20586:	4828      	ldr	r0, [pc, #160]	@ (20628 <_ZN20complex_dynamic_type3app17h06b550c031071e36E+0x14c>)
   20588:	2106      	movs	r1, #6
   2058a:	2200      	movs	r2, #0
   2058c:	4613      	mov	r3, r2
   2058e:	df04      	svc	4
   20590:	b021      	add	sp, #132	@ 0x84
   20592:	bdf0      	pop	{r4, r5, r6, r7, pc}
   20594:	4824      	ldr	r0, [pc, #144]	@ (20628 <_ZN20complex_dynamic_type3app17h06b550c031071e36E+0x14c>)
   20596:	2106      	movs	r1, #6
   20598:	2200      	movs	r2, #0
   2059a:	4613      	mov	r3, r2
   2059c:	df03      	svc	3
   2059e:	b021      	add	sp, #132	@ 0x84
   205a0:	bdf0      	pop	{r4, r5, r6, r7, pc}
   205a2:	a804      	add	r0, sp, #16
   205a4:	7800      	ldrb	r0, [r0, #0]
   205a6:	2802      	cmp	r0, #2
   205a8:	d00c      	beq.n	205c4 <_ZN20complex_dynamic_type3app17h06b550c031071e36E+0xe8>
   205aa:	2803      	cmp	r0, #3
   205ac:	d105      	bne.n	205ba <_ZN20complex_dynamic_type3app17h06b550c031071e36E+0xde>
   205ae:	481e      	ldr	r0, [pc, #120]	@ (20628 <_ZN20complex_dynamic_type3app17h06b550c031071e36E+0x14c>)
   205b0:	2106      	movs	r1, #6
   205b2:	2200      	movs	r2, #0
   205b4:	4613      	mov	r3, r2
   205b6:	df03      	svc	3
   205b8:	e004      	b.n	205c4 <_ZN20complex_dynamic_type3app17h06b550c031071e36E+0xe8>
   205ba:	481b      	ldr	r0, [pc, #108]	@ (20628 <_ZN20complex_dynamic_type3app17h06b550c031071e36E+0x14c>)
   205bc:	2106      	movs	r1, #6
   205be:	2200      	movs	r2, #0
   205c0:	4613      	mov	r3, r2
   205c2:	df04      	svc	4
   205c4:	a804      	add	r0, sp, #16
   205c6:	9900      	ldr	r1, [sp, #0]
   205c8:	7001      	strb	r1, [r0, #0]
   205ca:	a814      	add	r0, sp, #80	@ 0x50
   205cc:	7800      	ldrb	r0, [r0, #0]
   205ce:	2804      	cmp	r0, #4
   205d0:	d007      	beq.n	205e2 <_ZN20complex_dynamic_type3app17h06b550c031071e36E+0x106>
   205d2:	2803      	cmp	r0, #3
   205d4:	d11d      	bne.n	20612 <_ZN20complex_dynamic_type3app17h06b550c031071e36E+0x136>
   205d6:	4814      	ldr	r0, [pc, #80]	@ (20628 <_ZN20complex_dynamic_type3app17h06b550c031071e36E+0x14c>)
   205d8:	2108      	movs	r1, #8
   205da:	2200      	movs	r2, #0
   205dc:	4613      	mov	r3, r2
   205de:	df03      	svc	3
   205e0:	e004      	b.n	205ec <_ZN20complex_dynamic_type3app17h06b550c031071e36E+0x110>
   205e2:	4811      	ldr	r0, [pc, #68]	@ (20628 <_ZN20complex_dynamic_type3app17h06b550c031071e36E+0x14c>)
   205e4:	2108      	movs	r1, #8
   205e6:	2200      	movs	r2, #0
   205e8:	4613      	mov	r3, r2
   205ea:	df04      	svc	4
   205ec:	a804      	add	r0, sp, #16
   205ee:	7804      	ldrb	r4, [r0, #0]
   205f0:	1c68      	adds	r0, r5, #1
   205f2:	2232      	movs	r2, #50	@ 0x32
   205f4:	9901      	ldr	r1, [sp, #4]
   205f6:	f00a fd87 	bl	2b108 <__aeabi_memcpy>
   205fa:	702e      	strb	r6, [r5, #0]
   205fc:	2c02      	cmp	r4, #2
   205fe:	d006      	beq.n	2060e <_ZN20complex_dynamic_type3app17h06b550c031071e36E+0x132>
   20600:	4809      	ldr	r0, [pc, #36]	@ (20628 <_ZN20complex_dynamic_type3app17h06b550c031071e36E+0x14c>)
   20602:	2106      	movs	r1, #6
   20604:	2200      	movs	r2, #0
   20606:	4613      	mov	r3, r2
   20608:	2c04      	cmp	r4, #4
   2060a:	d10a      	bne.n	20622 <_ZN20complex_dynamic_type3app17h06b550c031071e36E+0x146>
   2060c:	df04      	svc	4
   2060e:	b021      	add	sp, #132	@ 0x84
   20610:	bdf0      	pop	{r4, r5, r6, r7, pc}
   20612:	1c68      	adds	r0, r5, #1
   20614:	2232      	movs	r2, #50	@ 0x32
   20616:	4621      	mov	r1, r4
   20618:	f00a fd76 	bl	2b108 <__aeabi_memcpy>
   2061c:	702e      	strb	r6, [r5, #0]
   2061e:	b021      	add	sp, #132	@ 0x84
   20620:	bdf0      	pop	{r4, r5, r6, r7, pc}
   20622:	df03      	svc	3
   20624:	b021      	add	sp, #132	@ 0x84
   20626:	bdf0      	pop	{r4, r5, r6, r7, pc}
   20628:	00001b1e 	.word	0x00001b1e

0002062c <_ZN20complex_dynamic_type3app17h0772d9973d59b54cE>:
   2062c:	b5f0      	push	{r4, r5, r6, r7, lr}
   2062e:	af03      	add	r7, sp, #12
   20630:	b0a7      	sub	sp, #156	@ 0x9c
   20632:	9003      	str	r0, [sp, #12]
   20634:	a804      	add	r0, sp, #16
   20636:	2402      	movs	r4, #2
   20638:	7004      	strb	r4, [r0, #0]
   2063a:	1c46      	adds	r6, r0, #1
   2063c:	2255      	movs	r2, #85	@ 0x55
   2063e:	9202      	str	r2, [sp, #8]
   20640:	4630      	mov	r0, r6
   20642:	f00a fd61 	bl	2b108 <__aeabi_memcpy>
   20646:	ad1a      	add	r5, sp, #104	@ 0x68
   20648:	1c68      	adds	r0, r5, #1
   2064a:	2132      	movs	r1, #50	@ 0x32
   2064c:	9001      	str	r0, [sp, #4]
   2064e:	f00a fb9b 	bl	2ad88 <__aeabi_memclr>
   20652:	9400      	str	r4, [sp, #0]
   20654:	702c      	strb	r4, [r5, #0]
   20656:	4848      	ldr	r0, [pc, #288]	@ (20778 <_ZN20complex_dynamic_type3app17h0772d9973d59b54cE+0x14c>)
   20658:	2108      	movs	r1, #8
   2065a:	4632      	mov	r2, r6
   2065c:	9b02      	ldr	r3, [sp, #8]
   2065e:	df04      	svc	4
   20660:	2802      	cmp	r0, #2
   20662:	d104      	bne.n	2066e <_ZN20complex_dynamic_type3app17h0772d9973d59b54cE+0x42>
   20664:	2001      	movs	r0, #1
   20666:	9a03      	ldr	r2, [sp, #12]
   20668:	7010      	strb	r0, [r2, #0]
   2066a:	6051      	str	r1, [r2, #4]
   2066c:	e02d      	b.n	206ca <_ZN20complex_dynamic_type3app17h0772d9973d59b54cE+0x9e>
   2066e:	9d03      	ldr	r5, [sp, #12]
   20670:	a804      	add	r0, sp, #16
   20672:	2104      	movs	r1, #4
   20674:	7001      	strb	r1, [r0, #0]
   20676:	4840      	ldr	r0, [pc, #256]	@ (20778 <_ZN20complex_dynamic_type3app17h0772d9973d59b54cE+0x14c>)
   20678:	2108      	movs	r1, #8
   2067a:	2332      	movs	r3, #50	@ 0x32
   2067c:	9c01      	ldr	r4, [sp, #4]
   2067e:	4622      	mov	r2, r4
   20680:	df03      	svc	3
   20682:	2802      	cmp	r0, #2
   20684:	d10e      	bne.n	206a4 <_ZN20complex_dynamic_type3app17h0772d9973d59b54cE+0x78>
   20686:	2001      	movs	r0, #1
   20688:	7028      	strb	r0, [r5, #0]
   2068a:	6069      	str	r1, [r5, #4]
   2068c:	a81a      	add	r0, sp, #104	@ 0x68
   2068e:	7800      	ldrb	r0, [r0, #0]
   20690:	2802      	cmp	r0, #2
   20692:	d01a      	beq.n	206ca <_ZN20complex_dynamic_type3app17h0772d9973d59b54cE+0x9e>
   20694:	2803      	cmp	r0, #3
   20696:	d013      	beq.n	206c0 <_ZN20complex_dynamic_type3app17h0772d9973d59b54cE+0x94>
   20698:	4837      	ldr	r0, [pc, #220]	@ (20778 <_ZN20complex_dynamic_type3app17h0772d9973d59b54cE+0x14c>)
   2069a:	2108      	movs	r1, #8
   2069c:	2200      	movs	r2, #0
   2069e:	4613      	mov	r3, r2
   206a0:	df04      	svc	4
   206a2:	e012      	b.n	206ca <_ZN20complex_dynamic_type3app17h0772d9973d59b54cE+0x9e>
   206a4:	a81a      	add	r0, sp, #104	@ 0x68
   206a6:	2103      	movs	r1, #3
   206a8:	7001      	strb	r1, [r0, #0]
   206aa:	4833      	ldr	r0, [pc, #204]	@ (20778 <_ZN20complex_dynamic_type3app17h0772d9973d59b54cE+0x14c>)
   206ac:	2108      	movs	r1, #8
   206ae:	2600      	movs	r6, #0
   206b0:	460a      	mov	r2, r1
   206b2:	4633      	mov	r3, r6
   206b4:	df02      	svc	2
   206b6:	2880      	cmp	r0, #128	@ 0x80
   206b8:	d21b      	bcs.n	206f2 <_ZN20complex_dynamic_type3app17h0772d9973d59b54cE+0xc6>
   206ba:	2001      	movs	r0, #1
   206bc:	7028      	strb	r0, [r5, #0]
   206be:	6069      	str	r1, [r5, #4]
   206c0:	482d      	ldr	r0, [pc, #180]	@ (20778 <_ZN20complex_dynamic_type3app17h0772d9973d59b54cE+0x14c>)
   206c2:	2108      	movs	r1, #8
   206c4:	2200      	movs	r2, #0
   206c6:	4613      	mov	r3, r2
   206c8:	df03      	svc	3
   206ca:	a804      	add	r0, sp, #16
   206cc:	7800      	ldrb	r0, [r0, #0]
   206ce:	2802      	cmp	r0, #2
   206d0:	d045      	beq.n	2075e <_ZN20complex_dynamic_type3app17h0772d9973d59b54cE+0x132>
   206d2:	2804      	cmp	r0, #4
   206d4:	d106      	bne.n	206e4 <_ZN20complex_dynamic_type3app17h0772d9973d59b54cE+0xb8>
   206d6:	4828      	ldr	r0, [pc, #160]	@ (20778 <_ZN20complex_dynamic_type3app17h0772d9973d59b54cE+0x14c>)
   206d8:	2108      	movs	r1, #8
   206da:	2200      	movs	r2, #0
   206dc:	4613      	mov	r3, r2
   206de:	df04      	svc	4
   206e0:	b027      	add	sp, #156	@ 0x9c
   206e2:	bdf0      	pop	{r4, r5, r6, r7, pc}
   206e4:	4824      	ldr	r0, [pc, #144]	@ (20778 <_ZN20complex_dynamic_type3app17h0772d9973d59b54cE+0x14c>)
   206e6:	2108      	movs	r1, #8
   206e8:	2200      	movs	r2, #0
   206ea:	4613      	mov	r3, r2
   206ec:	df03      	svc	3
   206ee:	b027      	add	sp, #156	@ 0x9c
   206f0:	bdf0      	pop	{r4, r5, r6, r7, pc}
   206f2:	a804      	add	r0, sp, #16
   206f4:	7800      	ldrb	r0, [r0, #0]
   206f6:	2802      	cmp	r0, #2
   206f8:	d00c      	beq.n	20714 <_ZN20complex_dynamic_type3app17h0772d9973d59b54cE+0xe8>
   206fa:	2803      	cmp	r0, #3
   206fc:	d105      	bne.n	2070a <_ZN20complex_dynamic_type3app17h0772d9973d59b54cE+0xde>
   206fe:	481e      	ldr	r0, [pc, #120]	@ (20778 <_ZN20complex_dynamic_type3app17h0772d9973d59b54cE+0x14c>)
   20700:	2108      	movs	r1, #8
   20702:	2200      	movs	r2, #0
   20704:	4613      	mov	r3, r2
   20706:	df03      	svc	3
   20708:	e004      	b.n	20714 <_ZN20complex_dynamic_type3app17h0772d9973d59b54cE+0xe8>
   2070a:	481b      	ldr	r0, [pc, #108]	@ (20778 <_ZN20complex_dynamic_type3app17h0772d9973d59b54cE+0x14c>)
   2070c:	2108      	movs	r1, #8
   2070e:	2200      	movs	r2, #0
   20710:	4613      	mov	r3, r2
   20712:	df04      	svc	4
   20714:	a804      	add	r0, sp, #16
   20716:	9900      	ldr	r1, [sp, #0]
   20718:	7001      	strb	r1, [r0, #0]
   2071a:	a81a      	add	r0, sp, #104	@ 0x68
   2071c:	7800      	ldrb	r0, [r0, #0]
   2071e:	2804      	cmp	r0, #4
   20720:	d007      	beq.n	20732 <_ZN20complex_dynamic_type3app17h0772d9973d59b54cE+0x106>
   20722:	2803      	cmp	r0, #3
   20724:	d11d      	bne.n	20762 <_ZN20complex_dynamic_type3app17h0772d9973d59b54cE+0x136>
   20726:	4814      	ldr	r0, [pc, #80]	@ (20778 <_ZN20complex_dynamic_type3app17h0772d9973d59b54cE+0x14c>)
   20728:	2108      	movs	r1, #8
   2072a:	2200      	movs	r2, #0
   2072c:	4613      	mov	r3, r2
   2072e:	df03      	svc	3
   20730:	e004      	b.n	2073c <_ZN20complex_dynamic_type3app17h0772d9973d59b54cE+0x110>
   20732:	4811      	ldr	r0, [pc, #68]	@ (20778 <_ZN20complex_dynamic_type3app17h0772d9973d59b54cE+0x14c>)
   20734:	2108      	movs	r1, #8
   20736:	2200      	movs	r2, #0
   20738:	4613      	mov	r3, r2
   2073a:	df04      	svc	4
   2073c:	a804      	add	r0, sp, #16
   2073e:	7804      	ldrb	r4, [r0, #0]
   20740:	1c68      	adds	r0, r5, #1
   20742:	2232      	movs	r2, #50	@ 0x32
   20744:	9901      	ldr	r1, [sp, #4]
   20746:	f00a fcdf 	bl	2b108 <__aeabi_memcpy>
   2074a:	702e      	strb	r6, [r5, #0]
   2074c:	2c02      	cmp	r4, #2
   2074e:	d006      	beq.n	2075e <_ZN20complex_dynamic_type3app17h0772d9973d59b54cE+0x132>
   20750:	4809      	ldr	r0, [pc, #36]	@ (20778 <_ZN20complex_dynamic_type3app17h0772d9973d59b54cE+0x14c>)
   20752:	2108      	movs	r1, #8
   20754:	2200      	movs	r2, #0
   20756:	4613      	mov	r3, r2
   20758:	2c04      	cmp	r4, #4
   2075a:	d10a      	bne.n	20772 <_ZN20complex_dynamic_type3app17h0772d9973d59b54cE+0x146>
   2075c:	df04      	svc	4
   2075e:	b027      	add	sp, #156	@ 0x9c
   20760:	bdf0      	pop	{r4, r5, r6, r7, pc}
   20762:	1c68      	adds	r0, r5, #1
   20764:	2232      	movs	r2, #50	@ 0x32
   20766:	4621      	mov	r1, r4
   20768:	f00a fcce 	bl	2b108 <__aeabi_memcpy>
   2076c:	702e      	strb	r6, [r5, #0]
   2076e:	b027      	add	sp, #156	@ 0x9c
   20770:	bdf0      	pop	{r4, r5, r6, r7, pc}
   20772:	df03      	svc	3
   20774:	b027      	add	sp, #156	@ 0x9c
   20776:	bdf0      	pop	{r4, r5, r6, r7, pc}
   20778:	00002095 	.word	0x00002095

0002077c <_ZN20complex_dynamic_type3app17h0a01ac204053e7caE>:
   2077c:	b5f0      	push	{r4, r5, r6, r7, lr}
   2077e:	af03      	add	r7, sp, #12
   20780:	b097      	sub	sp, #92	@ 0x5c
   20782:	9004      	str	r0, [sp, #16]
   20784:	a805      	add	r0, sp, #20
   20786:	2402      	movs	r4, #2
   20788:	7004      	strb	r4, [r0, #0]
   2078a:	1c46      	adds	r6, r0, #1
   2078c:	2232      	movs	r2, #50	@ 0x32
   2078e:	9203      	str	r2, [sp, #12]
   20790:	4630      	mov	r0, r6
   20792:	f00a fcb9 	bl	2b108 <__aeabi_memcpy>
   20796:	ad12      	add	r5, sp, #72	@ 0x48
   20798:	1c68      	adds	r0, r5, #1
   2079a:	2110      	movs	r1, #16
   2079c:	9002      	str	r0, [sp, #8]
   2079e:	f00a faf3 	bl	2ad88 <__aeabi_memclr>
   207a2:	9401      	str	r4, [sp, #4]
   207a4:	702c      	strb	r4, [r5, #0]
   207a6:	4848      	ldr	r0, [pc, #288]	@ (208c8 <_ZN20complex_dynamic_type3app17h0a01ac204053e7caE+0x14c>)
   207a8:	2504      	movs	r5, #4
   207aa:	4629      	mov	r1, r5
   207ac:	4632      	mov	r2, r6
   207ae:	9b03      	ldr	r3, [sp, #12]
   207b0:	df04      	svc	4
   207b2:	2802      	cmp	r0, #2
   207b4:	d104      	bne.n	207c0 <_ZN20complex_dynamic_type3app17h0a01ac204053e7caE+0x44>
   207b6:	2001      	movs	r0, #1
   207b8:	9a04      	ldr	r2, [sp, #16]
   207ba:	7010      	strb	r0, [r2, #0]
   207bc:	6051      	str	r1, [r2, #4]
   207be:	e02c      	b.n	2081a <_ZN20complex_dynamic_type3app17h0a01ac204053e7caE+0x9e>
   207c0:	9c04      	ldr	r4, [sp, #16]
   207c2:	a805      	add	r0, sp, #20
   207c4:	7005      	strb	r5, [r0, #0]
   207c6:	4840      	ldr	r0, [pc, #256]	@ (208c8 <_ZN20complex_dynamic_type3app17h0a01ac204053e7caE+0x14c>)
   207c8:	2109      	movs	r1, #9
   207ca:	2310      	movs	r3, #16
   207cc:	9a02      	ldr	r2, [sp, #8]
   207ce:	df03      	svc	3
   207d0:	2802      	cmp	r0, #2
   207d2:	d10e      	bne.n	207f2 <_ZN20complex_dynamic_type3app17h0a01ac204053e7caE+0x76>
   207d4:	2001      	movs	r0, #1
   207d6:	7020      	strb	r0, [r4, #0]
   207d8:	6061      	str	r1, [r4, #4]
   207da:	a812      	add	r0, sp, #72	@ 0x48
   207dc:	7800      	ldrb	r0, [r0, #0]
   207de:	2802      	cmp	r0, #2
   207e0:	d01b      	beq.n	2081a <_ZN20complex_dynamic_type3app17h0a01ac204053e7caE+0x9e>
   207e2:	2803      	cmp	r0, #3
   207e4:	d014      	beq.n	20810 <_ZN20complex_dynamic_type3app17h0a01ac204053e7caE+0x94>
   207e6:	4838      	ldr	r0, [pc, #224]	@ (208c8 <_ZN20complex_dynamic_type3app17h0a01ac204053e7caE+0x14c>)
   207e8:	2109      	movs	r1, #9
   207ea:	2200      	movs	r2, #0
   207ec:	4613      	mov	r3, r2
   207ee:	df04      	svc	4
   207f0:	e013      	b.n	2081a <_ZN20complex_dynamic_type3app17h0a01ac204053e7caE+0x9e>
   207f2:	a812      	add	r0, sp, #72	@ 0x48
   207f4:	2103      	movs	r1, #3
   207f6:	7001      	strb	r1, [r0, #0]
   207f8:	4833      	ldr	r0, [pc, #204]	@ (208c8 <_ZN20complex_dynamic_type3app17h0a01ac204053e7caE+0x14c>)
   207fa:	2104      	movs	r1, #4
   207fc:	2209      	movs	r2, #9
   207fe:	2600      	movs	r6, #0
   20800:	4633      	mov	r3, r6
   20802:	df02      	svc	2
   20804:	2880      	cmp	r0, #128	@ 0x80
   20806:	4625      	mov	r5, r4
   20808:	d21b      	bcs.n	20842 <_ZN20complex_dynamic_type3app17h0a01ac204053e7caE+0xc6>
   2080a:	2001      	movs	r0, #1
   2080c:	7028      	strb	r0, [r5, #0]
   2080e:	6069      	str	r1, [r5, #4]
   20810:	482d      	ldr	r0, [pc, #180]	@ (208c8 <_ZN20complex_dynamic_type3app17h0a01ac204053e7caE+0x14c>)
   20812:	2109      	movs	r1, #9
   20814:	2200      	movs	r2, #0
   20816:	4613      	mov	r3, r2
   20818:	df03      	svc	3
   2081a:	a805      	add	r0, sp, #20
   2081c:	7800      	ldrb	r0, [r0, #0]
   2081e:	2802      	cmp	r0, #2
   20820:	d045      	beq.n	208ae <_ZN20complex_dynamic_type3app17h0a01ac204053e7caE+0x132>
   20822:	2804      	cmp	r0, #4
   20824:	d106      	bne.n	20834 <_ZN20complex_dynamic_type3app17h0a01ac204053e7caE+0xb8>
   20826:	4828      	ldr	r0, [pc, #160]	@ (208c8 <_ZN20complex_dynamic_type3app17h0a01ac204053e7caE+0x14c>)
   20828:	2104      	movs	r1, #4
   2082a:	2200      	movs	r2, #0
   2082c:	4613      	mov	r3, r2
   2082e:	df04      	svc	4
   20830:	b017      	add	sp, #92	@ 0x5c
   20832:	bdf0      	pop	{r4, r5, r6, r7, pc}
   20834:	4824      	ldr	r0, [pc, #144]	@ (208c8 <_ZN20complex_dynamic_type3app17h0a01ac204053e7caE+0x14c>)
   20836:	2104      	movs	r1, #4
   20838:	2200      	movs	r2, #0
   2083a:	4613      	mov	r3, r2
   2083c:	df03      	svc	3
   2083e:	b017      	add	sp, #92	@ 0x5c
   20840:	bdf0      	pop	{r4, r5, r6, r7, pc}
   20842:	a805      	add	r0, sp, #20
   20844:	7800      	ldrb	r0, [r0, #0]
   20846:	2802      	cmp	r0, #2
   20848:	d00c      	beq.n	20864 <_ZN20complex_dynamic_type3app17h0a01ac204053e7caE+0xe8>
   2084a:	2803      	cmp	r0, #3
   2084c:	d105      	bne.n	2085a <_ZN20complex_dynamic_type3app17h0a01ac204053e7caE+0xde>
   2084e:	481e      	ldr	r0, [pc, #120]	@ (208c8 <_ZN20complex_dynamic_type3app17h0a01ac204053e7caE+0x14c>)
   20850:	2104      	movs	r1, #4
   20852:	2200      	movs	r2, #0
   20854:	4613      	mov	r3, r2
   20856:	df03      	svc	3
   20858:	e004      	b.n	20864 <_ZN20complex_dynamic_type3app17h0a01ac204053e7caE+0xe8>
   2085a:	481b      	ldr	r0, [pc, #108]	@ (208c8 <_ZN20complex_dynamic_type3app17h0a01ac204053e7caE+0x14c>)
   2085c:	2104      	movs	r1, #4
   2085e:	2200      	movs	r2, #0
   20860:	4613      	mov	r3, r2
   20862:	df04      	svc	4
   20864:	a805      	add	r0, sp, #20
   20866:	9901      	ldr	r1, [sp, #4]
   20868:	7001      	strb	r1, [r0, #0]
   2086a:	a812      	add	r0, sp, #72	@ 0x48
   2086c:	7800      	ldrb	r0, [r0, #0]
   2086e:	2804      	cmp	r0, #4
   20870:	d007      	beq.n	20882 <_ZN20complex_dynamic_type3app17h0a01ac204053e7caE+0x106>
   20872:	2803      	cmp	r0, #3
   20874:	d11d      	bne.n	208b2 <_ZN20complex_dynamic_type3app17h0a01ac204053e7caE+0x136>
   20876:	4814      	ldr	r0, [pc, #80]	@ (208c8 <_ZN20complex_dynamic_type3app17h0a01ac204053e7caE+0x14c>)
   20878:	2109      	movs	r1, #9
   2087a:	2200      	movs	r2, #0
   2087c:	4613      	mov	r3, r2
   2087e:	df03      	svc	3
   20880:	e004      	b.n	2088c <_ZN20complex_dynamic_type3app17h0a01ac204053e7caE+0x110>
   20882:	4811      	ldr	r0, [pc, #68]	@ (208c8 <_ZN20complex_dynamic_type3app17h0a01ac204053e7caE+0x14c>)
   20884:	2109      	movs	r1, #9
   20886:	2200      	movs	r2, #0
   20888:	4613      	mov	r3, r2
   2088a:	df04      	svc	4
   2088c:	a805      	add	r0, sp, #20
   2088e:	7804      	ldrb	r4, [r0, #0]
   20890:	1c68      	adds	r0, r5, #1
   20892:	2210      	movs	r2, #16
   20894:	9902      	ldr	r1, [sp, #8]
   20896:	f00a fc37 	bl	2b108 <__aeabi_memcpy>
   2089a:	702e      	strb	r6, [r5, #0]
   2089c:	2c02      	cmp	r4, #2
   2089e:	d006      	beq.n	208ae <_ZN20complex_dynamic_type3app17h0a01ac204053e7caE+0x132>
   208a0:	4809      	ldr	r0, [pc, #36]	@ (208c8 <_ZN20complex_dynamic_type3app17h0a01ac204053e7caE+0x14c>)
   208a2:	2104      	movs	r1, #4
   208a4:	2200      	movs	r2, #0
   208a6:	4613      	mov	r3, r2
   208a8:	2c04      	cmp	r4, #4
   208aa:	d10a      	bne.n	208c2 <_ZN20complex_dynamic_type3app17h0a01ac204053e7caE+0x146>
   208ac:	df04      	svc	4
   208ae:	b017      	add	sp, #92	@ 0x5c
   208b0:	bdf0      	pop	{r4, r5, r6, r7, pc}
   208b2:	1c68      	adds	r0, r5, #1
   208b4:	2210      	movs	r2, #16
   208b6:	9902      	ldr	r1, [sp, #8]
   208b8:	f00a fc26 	bl	2b108 <__aeabi_memcpy>
   208bc:	702e      	strb	r6, [r5, #0]
   208be:	b017      	add	sp, #92	@ 0x5c
   208c0:	bdf0      	pop	{r4, r5, r6, r7, pc}
   208c2:	df03      	svc	3
   208c4:	b017      	add	sp, #92	@ 0x5c
   208c6:	bdf0      	pop	{r4, r5, r6, r7, pc}
   208c8:	000019d6 	.word	0x000019d6

000208cc <_ZN20complex_dynamic_type3app17h0a316936758c9468E>:
   208cc:	b5f0      	push	{r4, r5, r6, r7, lr}
   208ce:	af03      	add	r7, sp, #12
   208d0:	b0a3      	sub	sp, #140	@ 0x8c
   208d2:	9003      	str	r0, [sp, #12]
   208d4:	a804      	add	r0, sp, #16
   208d6:	2602      	movs	r6, #2
   208d8:	7006      	strb	r6, [r0, #0]
   208da:	1c40      	adds	r0, r0, #1
   208dc:	9002      	str	r0, [sp, #8]
   208de:	254a      	movs	r5, #74	@ 0x4a
   208e0:	462a      	mov	r2, r5
   208e2:	f00a fc11 	bl	2b108 <__aeabi_memcpy>
   208e6:	ac17      	add	r4, sp, #92	@ 0x5c
   208e8:	1c60      	adds	r0, r4, #1
   208ea:	212d      	movs	r1, #45	@ 0x2d
   208ec:	9001      	str	r0, [sp, #4]
   208ee:	f00a fa4b 	bl	2ad88 <__aeabi_memclr>
   208f2:	7026      	strb	r6, [r4, #0]
   208f4:	484a      	ldr	r0, [pc, #296]	@ (20a20 <_ZN20complex_dynamic_type3app17h0a316936758c9468E+0x154>)
   208f6:	4631      	mov	r1, r6
   208f8:	9a02      	ldr	r2, [sp, #8]
   208fa:	462b      	mov	r3, r5
   208fc:	df04      	svc	4
   208fe:	2802      	cmp	r0, #2
   20900:	d104      	bne.n	2090c <_ZN20complex_dynamic_type3app17h0a316936758c9468E+0x40>
   20902:	2001      	movs	r0, #1
   20904:	9a03      	ldr	r2, [sp, #12]
   20906:	7010      	strb	r0, [r2, #0]
   20908:	6051      	str	r1, [r2, #4]
   2090a:	e02e      	b.n	2096a <_ZN20complex_dynamic_type3app17h0a316936758c9468E+0x9e>
   2090c:	9d03      	ldr	r5, [sp, #12]
   2090e:	a804      	add	r0, sp, #16
   20910:	2104      	movs	r1, #4
   20912:	7001      	strb	r1, [r0, #0]
   20914:	4842      	ldr	r0, [pc, #264]	@ (20a20 <_ZN20complex_dynamic_type3app17h0a316936758c9468E+0x154>)
   20916:	2603      	movs	r6, #3
   20918:	232d      	movs	r3, #45	@ 0x2d
   2091a:	4631      	mov	r1, r6
   2091c:	9c01      	ldr	r4, [sp, #4]
   2091e:	4622      	mov	r2, r4
   20920:	df03      	svc	3
   20922:	2802      	cmp	r0, #2
   20924:	d10e      	bne.n	20944 <_ZN20complex_dynamic_type3app17h0a316936758c9468E+0x78>
   20926:	2001      	movs	r0, #1
   20928:	7028      	strb	r0, [r5, #0]
   2092a:	6069      	str	r1, [r5, #4]
   2092c:	a817      	add	r0, sp, #92	@ 0x5c
   2092e:	7800      	ldrb	r0, [r0, #0]
   20930:	2802      	cmp	r0, #2
   20932:	d01a      	beq.n	2096a <_ZN20complex_dynamic_type3app17h0a316936758c9468E+0x9e>
   20934:	2803      	cmp	r0, #3
   20936:	d013      	beq.n	20960 <_ZN20complex_dynamic_type3app17h0a316936758c9468E+0x94>
   20938:	4839      	ldr	r0, [pc, #228]	@ (20a20 <_ZN20complex_dynamic_type3app17h0a316936758c9468E+0x154>)
   2093a:	2103      	movs	r1, #3
   2093c:	2200      	movs	r2, #0
   2093e:	4613      	mov	r3, r2
   20940:	df04      	svc	4
   20942:	e012      	b.n	2096a <_ZN20complex_dynamic_type3app17h0a316936758c9468E+0x9e>
   20944:	a817      	add	r0, sp, #92	@ 0x5c
   20946:	7006      	strb	r6, [r0, #0]
   20948:	4835      	ldr	r0, [pc, #212]	@ (20a20 <_ZN20complex_dynamic_type3app17h0a316936758c9468E+0x154>)
   2094a:	2102      	movs	r1, #2
   2094c:	2300      	movs	r3, #0
   2094e:	9100      	str	r1, [sp, #0]
   20950:	4632      	mov	r2, r6
   20952:	9302      	str	r3, [sp, #8]
   20954:	df02      	svc	2
   20956:	2880      	cmp	r0, #128	@ 0x80
   20958:	d21b      	bcs.n	20992 <_ZN20complex_dynamic_type3app17h0a316936758c9468E+0xc6>
   2095a:	2001      	movs	r0, #1
   2095c:	7028      	strb	r0, [r5, #0]
   2095e:	6069      	str	r1, [r5, #4]
   20960:	482f      	ldr	r0, [pc, #188]	@ (20a20 <_ZN20complex_dynamic_type3app17h0a316936758c9468E+0x154>)
   20962:	2103      	movs	r1, #3
   20964:	2200      	movs	r2, #0
   20966:	4613      	mov	r3, r2
   20968:	df03      	svc	3
   2096a:	a804      	add	r0, sp, #16
   2096c:	7800      	ldrb	r0, [r0, #0]
   2096e:	2802      	cmp	r0, #2
   20970:	d048      	beq.n	20a04 <_ZN20complex_dynamic_type3app17h0a316936758c9468E+0x138>
   20972:	2804      	cmp	r0, #4
   20974:	d106      	bne.n	20984 <_ZN20complex_dynamic_type3app17h0a316936758c9468E+0xb8>
   20976:	482a      	ldr	r0, [pc, #168]	@ (20a20 <_ZN20complex_dynamic_type3app17h0a316936758c9468E+0x154>)
   20978:	2102      	movs	r1, #2
   2097a:	2200      	movs	r2, #0
   2097c:	4613      	mov	r3, r2
   2097e:	df04      	svc	4
   20980:	b023      	add	sp, #140	@ 0x8c
   20982:	bdf0      	pop	{r4, r5, r6, r7, pc}
   20984:	4826      	ldr	r0, [pc, #152]	@ (20a20 <_ZN20complex_dynamic_type3app17h0a316936758c9468E+0x154>)
   20986:	2102      	movs	r1, #2
   20988:	2200      	movs	r2, #0
   2098a:	4613      	mov	r3, r2
   2098c:	df03      	svc	3
   2098e:	b023      	add	sp, #140	@ 0x8c
   20990:	bdf0      	pop	{r4, r5, r6, r7, pc}
   20992:	a804      	add	r0, sp, #16
   20994:	7800      	ldrb	r0, [r0, #0]
   20996:	2802      	cmp	r0, #2
   20998:	d00c      	beq.n	209b4 <_ZN20complex_dynamic_type3app17h0a316936758c9468E+0xe8>
   2099a:	2803      	cmp	r0, #3
   2099c:	d105      	bne.n	209aa <_ZN20complex_dynamic_type3app17h0a316936758c9468E+0xde>
   2099e:	4820      	ldr	r0, [pc, #128]	@ (20a20 <_ZN20complex_dynamic_type3app17h0a316936758c9468E+0x154>)
   209a0:	2102      	movs	r1, #2
   209a2:	2200      	movs	r2, #0
   209a4:	4613      	mov	r3, r2
   209a6:	df03      	svc	3
   209a8:	e004      	b.n	209b4 <_ZN20complex_dynamic_type3app17h0a316936758c9468E+0xe8>
   209aa:	481d      	ldr	r0, [pc, #116]	@ (20a20 <_ZN20complex_dynamic_type3app17h0a316936758c9468E+0x154>)
   209ac:	2102      	movs	r1, #2
   209ae:	2200      	movs	r2, #0
   209b0:	4613      	mov	r3, r2
   209b2:	df04      	svc	4
   209b4:	a804      	add	r0, sp, #16
   209b6:	9900      	ldr	r1, [sp, #0]
   209b8:	7001      	strb	r1, [r0, #0]
   209ba:	a817      	add	r0, sp, #92	@ 0x5c
   209bc:	7800      	ldrb	r0, [r0, #0]
   209be:	2804      	cmp	r0, #4
   209c0:	d008      	beq.n	209d4 <_ZN20complex_dynamic_type3app17h0a316936758c9468E+0x108>
   209c2:	2803      	cmp	r0, #3
   209c4:	d120      	bne.n	20a08 <_ZN20complex_dynamic_type3app17h0a316936758c9468E+0x13c>
   209c6:	4626      	mov	r6, r4
   209c8:	4815      	ldr	r0, [pc, #84]	@ (20a20 <_ZN20complex_dynamic_type3app17h0a316936758c9468E+0x154>)
   209ca:	2103      	movs	r1, #3
   209cc:	2200      	movs	r2, #0
   209ce:	4613      	mov	r3, r2
   209d0:	df03      	svc	3
   209d2:	e005      	b.n	209e0 <_ZN20complex_dynamic_type3app17h0a316936758c9468E+0x114>
   209d4:	4626      	mov	r6, r4
   209d6:	4812      	ldr	r0, [pc, #72]	@ (20a20 <_ZN20complex_dynamic_type3app17h0a316936758c9468E+0x154>)
   209d8:	2103      	movs	r1, #3
   209da:	2200      	movs	r2, #0
   209dc:	4613      	mov	r3, r2
   209de:	df04      	svc	4
   209e0:	a804      	add	r0, sp, #16
   209e2:	7804      	ldrb	r4, [r0, #0]
   209e4:	1c68      	adds	r0, r5, #1
   209e6:	222d      	movs	r2, #45	@ 0x2d
   209e8:	4631      	mov	r1, r6
   209ea:	f00a fb8d 	bl	2b108 <__aeabi_memcpy>
   209ee:	9802      	ldr	r0, [sp, #8]
   209f0:	7028      	strb	r0, [r5, #0]
   209f2:	2c02      	cmp	r4, #2
   209f4:	d006      	beq.n	20a04 <_ZN20complex_dynamic_type3app17h0a316936758c9468E+0x138>
   209f6:	480a      	ldr	r0, [pc, #40]	@ (20a20 <_ZN20complex_dynamic_type3app17h0a316936758c9468E+0x154>)
   209f8:	2102      	movs	r1, #2
   209fa:	2200      	movs	r2, #0
   209fc:	4613      	mov	r3, r2
   209fe:	2c04      	cmp	r4, #4
   20a00:	d10b      	bne.n	20a1a <_ZN20complex_dynamic_type3app17h0a316936758c9468E+0x14e>
   20a02:	df04      	svc	4
   20a04:	b023      	add	sp, #140	@ 0x8c
   20a06:	bdf0      	pop	{r4, r5, r6, r7, pc}
   20a08:	1c68      	adds	r0, r5, #1
   20a0a:	222d      	movs	r2, #45	@ 0x2d
   20a0c:	4621      	mov	r1, r4
   20a0e:	f00a fb7b 	bl	2b108 <__aeabi_memcpy>
   20a12:	9802      	ldr	r0, [sp, #8]
   20a14:	7028      	strb	r0, [r5, #0]
   20a16:	b023      	add	sp, #140	@ 0x8c
   20a18:	bdf0      	pop	{r4, r5, r6, r7, pc}
   20a1a:	df03      	svc	3
   20a1c:	b023      	add	sp, #140	@ 0x8c
   20a1e:	bdf0      	pop	{r4, r5, r6, r7, pc}
   20a20:	00000e3d 	.word	0x00000e3d

00020a24 <_ZN20complex_dynamic_type3app17h0c0f9106060cb325E>:
   20a24:	b5f0      	push	{r4, r5, r6, r7, lr}
   20a26:	af03      	add	r7, sp, #12
   20a28:	b09f      	sub	sp, #124	@ 0x7c
   20a2a:	9004      	str	r0, [sp, #16]
   20a2c:	a805      	add	r0, sp, #20
   20a2e:	2402      	movs	r4, #2
   20a30:	7004      	strb	r4, [r0, #0]
   20a32:	1c46      	adds	r6, r0, #1
   20a34:	2211      	movs	r2, #17
   20a36:	9203      	str	r2, [sp, #12]
   20a38:	4630      	mov	r0, r6
   20a3a:	f00a fb65 	bl	2b108 <__aeabi_memcpy>
   20a3e:	ad0a      	add	r5, sp, #40	@ 0x28
   20a40:	1c68      	adds	r0, r5, #1
   20a42:	2150      	movs	r1, #80	@ 0x50
   20a44:	9002      	str	r0, [sp, #8]
   20a46:	f00a f99f 	bl	2ad88 <__aeabi_memclr>
   20a4a:	9401      	str	r4, [sp, #4]
   20a4c:	702c      	strb	r4, [r5, #0]
   20a4e:	4848      	ldr	r0, [pc, #288]	@ (20b70 <_ZN20complex_dynamic_type3app17h0c0f9106060cb325E+0x14c>)
   20a50:	2106      	movs	r1, #6
   20a52:	4632      	mov	r2, r6
   20a54:	9b03      	ldr	r3, [sp, #12]
   20a56:	df04      	svc	4
   20a58:	2802      	cmp	r0, #2
   20a5a:	d104      	bne.n	20a66 <_ZN20complex_dynamic_type3app17h0c0f9106060cb325E+0x42>
   20a5c:	2001      	movs	r0, #1
   20a5e:	9a04      	ldr	r2, [sp, #16]
   20a60:	7010      	strb	r0, [r2, #0]
   20a62:	6051      	str	r1, [r2, #4]
   20a64:	e02d      	b.n	20ac2 <_ZN20complex_dynamic_type3app17h0c0f9106060cb325E+0x9e>
   20a66:	9d04      	ldr	r5, [sp, #16]
   20a68:	a805      	add	r0, sp, #20
   20a6a:	2104      	movs	r1, #4
   20a6c:	7001      	strb	r1, [r0, #0]
   20a6e:	4840      	ldr	r0, [pc, #256]	@ (20b70 <_ZN20complex_dynamic_type3app17h0c0f9106060cb325E+0x14c>)
   20a70:	2105      	movs	r1, #5
   20a72:	2350      	movs	r3, #80	@ 0x50
   20a74:	9c02      	ldr	r4, [sp, #8]
   20a76:	4622      	mov	r2, r4
   20a78:	df03      	svc	3
   20a7a:	2802      	cmp	r0, #2
   20a7c:	d10e      	bne.n	20a9c <_ZN20complex_dynamic_type3app17h0c0f9106060cb325E+0x78>
   20a7e:	2001      	movs	r0, #1
   20a80:	7028      	strb	r0, [r5, #0]
   20a82:	6069      	str	r1, [r5, #4]
   20a84:	a80a      	add	r0, sp, #40	@ 0x28
   20a86:	7800      	ldrb	r0, [r0, #0]
   20a88:	2802      	cmp	r0, #2
   20a8a:	d01a      	beq.n	20ac2 <_ZN20complex_dynamic_type3app17h0c0f9106060cb325E+0x9e>
   20a8c:	2803      	cmp	r0, #3
   20a8e:	d013      	beq.n	20ab8 <_ZN20complex_dynamic_type3app17h0c0f9106060cb325E+0x94>
   20a90:	4837      	ldr	r0, [pc, #220]	@ (20b70 <_ZN20complex_dynamic_type3app17h0c0f9106060cb325E+0x14c>)
   20a92:	2105      	movs	r1, #5
   20a94:	2200      	movs	r2, #0
   20a96:	4613      	mov	r3, r2
   20a98:	df04      	svc	4
   20a9a:	e012      	b.n	20ac2 <_ZN20complex_dynamic_type3app17h0c0f9106060cb325E+0x9e>
   20a9c:	a80a      	add	r0, sp, #40	@ 0x28
   20a9e:	2103      	movs	r1, #3
   20aa0:	7001      	strb	r1, [r0, #0]
   20aa2:	4833      	ldr	r0, [pc, #204]	@ (20b70 <_ZN20complex_dynamic_type3app17h0c0f9106060cb325E+0x14c>)
   20aa4:	2106      	movs	r1, #6
   20aa6:	2205      	movs	r2, #5
   20aa8:	2600      	movs	r6, #0
   20aaa:	4633      	mov	r3, r6
   20aac:	df02      	svc	2
   20aae:	2880      	cmp	r0, #128	@ 0x80
   20ab0:	d21b      	bcs.n	20aea <_ZN20complex_dynamic_type3app17h0c0f9106060cb325E+0xc6>
   20ab2:	2001      	movs	r0, #1
   20ab4:	7028      	strb	r0, [r5, #0]
   20ab6:	6069      	str	r1, [r5, #4]
   20ab8:	482d      	ldr	r0, [pc, #180]	@ (20b70 <_ZN20complex_dynamic_type3app17h0c0f9106060cb325E+0x14c>)
   20aba:	2105      	movs	r1, #5
   20abc:	2200      	movs	r2, #0
   20abe:	4613      	mov	r3, r2
   20ac0:	df03      	svc	3
   20ac2:	a805      	add	r0, sp, #20
   20ac4:	7800      	ldrb	r0, [r0, #0]
   20ac6:	2802      	cmp	r0, #2
   20ac8:	d045      	beq.n	20b56 <_ZN20complex_dynamic_type3app17h0c0f9106060cb325E+0x132>
   20aca:	2804      	cmp	r0, #4
   20acc:	d106      	bne.n	20adc <_ZN20complex_dynamic_type3app17h0c0f9106060cb325E+0xb8>
   20ace:	4828      	ldr	r0, [pc, #160]	@ (20b70 <_ZN20complex_dynamic_type3app17h0c0f9106060cb325E+0x14c>)
   20ad0:	2106      	movs	r1, #6
   20ad2:	2200      	movs	r2, #0
   20ad4:	4613      	mov	r3, r2
   20ad6:	df04      	svc	4
   20ad8:	b01f      	add	sp, #124	@ 0x7c
   20ada:	bdf0      	pop	{r4, r5, r6, r7, pc}
   20adc:	4824      	ldr	r0, [pc, #144]	@ (20b70 <_ZN20complex_dynamic_type3app17h0c0f9106060cb325E+0x14c>)
   20ade:	2106      	movs	r1, #6
   20ae0:	2200      	movs	r2, #0
   20ae2:	4613      	mov	r3, r2
   20ae4:	df03      	svc	3
   20ae6:	b01f      	add	sp, #124	@ 0x7c
   20ae8:	bdf0      	pop	{r4, r5, r6, r7, pc}
   20aea:	a805      	add	r0, sp, #20
   20aec:	7800      	ldrb	r0, [r0, #0]
   20aee:	2802      	cmp	r0, #2
   20af0:	d00c      	beq.n	20b0c <_ZN20complex_dynamic_type3app17h0c0f9106060cb325E+0xe8>
   20af2:	2803      	cmp	r0, #3
   20af4:	d105      	bne.n	20b02 <_ZN20complex_dynamic_type3app17h0c0f9106060cb325E+0xde>
   20af6:	481e      	ldr	r0, [pc, #120]	@ (20b70 <_ZN20complex_dynamic_type3app17h0c0f9106060cb325E+0x14c>)
   20af8:	2106      	movs	r1, #6
   20afa:	2200      	movs	r2, #0
   20afc:	4613      	mov	r3, r2
   20afe:	df03      	svc	3
   20b00:	e004      	b.n	20b0c <_ZN20complex_dynamic_type3app17h0c0f9106060cb325E+0xe8>
   20b02:	481b      	ldr	r0, [pc, #108]	@ (20b70 <_ZN20complex_dynamic_type3app17h0c0f9106060cb325E+0x14c>)
   20b04:	2106      	movs	r1, #6
   20b06:	2200      	movs	r2, #0
   20b08:	4613      	mov	r3, r2
   20b0a:	df04      	svc	4
   20b0c:	a805      	add	r0, sp, #20
   20b0e:	9901      	ldr	r1, [sp, #4]
   20b10:	7001      	strb	r1, [r0, #0]
   20b12:	a80a      	add	r0, sp, #40	@ 0x28
   20b14:	7800      	ldrb	r0, [r0, #0]
   20b16:	2804      	cmp	r0, #4
   20b18:	d007      	beq.n	20b2a <_ZN20complex_dynamic_type3app17h0c0f9106060cb325E+0x106>
   20b1a:	2803      	cmp	r0, #3
   20b1c:	d11d      	bne.n	20b5a <_ZN20complex_dynamic_type3app17h0c0f9106060cb325E+0x136>
   20b1e:	4814      	ldr	r0, [pc, #80]	@ (20b70 <_ZN20complex_dynamic_type3app17h0c0f9106060cb325E+0x14c>)
   20b20:	2105      	movs	r1, #5
   20b22:	2200      	movs	r2, #0
   20b24:	4613      	mov	r3, r2
   20b26:	df03      	svc	3
   20b28:	e004      	b.n	20b34 <_ZN20complex_dynamic_type3app17h0c0f9106060cb325E+0x110>
   20b2a:	4811      	ldr	r0, [pc, #68]	@ (20b70 <_ZN20complex_dynamic_type3app17h0c0f9106060cb325E+0x14c>)
   20b2c:	2105      	movs	r1, #5
   20b2e:	2200      	movs	r2, #0
   20b30:	4613      	mov	r3, r2
   20b32:	df04      	svc	4
   20b34:	a805      	add	r0, sp, #20
   20b36:	7804      	ldrb	r4, [r0, #0]
   20b38:	1c68      	adds	r0, r5, #1
   20b3a:	2250      	movs	r2, #80	@ 0x50
   20b3c:	9902      	ldr	r1, [sp, #8]
   20b3e:	f00a fae3 	bl	2b108 <__aeabi_memcpy>
   20b42:	702e      	strb	r6, [r5, #0]
   20b44:	2c02      	cmp	r4, #2
   20b46:	d006      	beq.n	20b56 <_ZN20complex_dynamic_type3app17h0c0f9106060cb325E+0x132>
   20b48:	4809      	ldr	r0, [pc, #36]	@ (20b70 <_ZN20complex_dynamic_type3app17h0c0f9106060cb325E+0x14c>)
   20b4a:	2106      	movs	r1, #6
   20b4c:	2200      	movs	r2, #0
   20b4e:	4613      	mov	r3, r2
   20b50:	2c04      	cmp	r4, #4
   20b52:	d10a      	bne.n	20b6a <_ZN20complex_dynamic_type3app17h0c0f9106060cb325E+0x146>
   20b54:	df04      	svc	4
   20b56:	b01f      	add	sp, #124	@ 0x7c
   20b58:	bdf0      	pop	{r4, r5, r6, r7, pc}
   20b5a:	1c68      	adds	r0, r5, #1
   20b5c:	2250      	movs	r2, #80	@ 0x50
   20b5e:	4621      	mov	r1, r4
   20b60:	f00a fad2 	bl	2b108 <__aeabi_memcpy>
   20b64:	702e      	strb	r6, [r5, #0]
   20b66:	b01f      	add	sp, #124	@ 0x7c
   20b68:	bdf0      	pop	{r4, r5, r6, r7, pc}
   20b6a:	df03      	svc	3
   20b6c:	b01f      	add	sp, #124	@ 0x7c
   20b6e:	bdf0      	pop	{r4, r5, r6, r7, pc}
   20b70:	00001aa9 	.word	0x00001aa9

00020b74 <_ZN20complex_dynamic_type3app17h117a3c511296846bE>:
   20b74:	b5f0      	push	{r4, r5, r6, r7, lr}
   20b76:	af03      	add	r7, sp, #12
   20b78:	b0a5      	sub	sp, #148	@ 0x94
   20b7a:	9004      	str	r0, [sp, #16]
   20b7c:	a805      	add	r0, sp, #20
   20b7e:	2402      	movs	r4, #2
   20b80:	7004      	strb	r4, [r0, #0]
   20b82:	1c46      	adds	r6, r0, #1
   20b84:	221b      	movs	r2, #27
   20b86:	9203      	str	r2, [sp, #12]
   20b88:	4630      	mov	r0, r6
   20b8a:	f00a fabd 	bl	2b108 <__aeabi_memcpy>
   20b8e:	ad0c      	add	r5, sp, #48	@ 0x30
   20b90:	1c68      	adds	r0, r5, #1
   20b92:	2163      	movs	r1, #99	@ 0x63
   20b94:	9002      	str	r0, [sp, #8]
   20b96:	f00a f8f7 	bl	2ad88 <__aeabi_memclr>
   20b9a:	9401      	str	r4, [sp, #4]
   20b9c:	702c      	strb	r4, [r5, #0]
   20b9e:	4848      	ldr	r0, [pc, #288]	@ (20cc0 <_ZN20complex_dynamic_type3app17h117a3c511296846bE+0x14c>)
   20ba0:	2103      	movs	r1, #3
   20ba2:	4632      	mov	r2, r6
   20ba4:	9b03      	ldr	r3, [sp, #12]
   20ba6:	df04      	svc	4
   20ba8:	2802      	cmp	r0, #2
   20baa:	d104      	bne.n	20bb6 <_ZN20complex_dynamic_type3app17h117a3c511296846bE+0x42>
   20bac:	2001      	movs	r0, #1
   20bae:	9a04      	ldr	r2, [sp, #16]
   20bb0:	7010      	strb	r0, [r2, #0]
   20bb2:	6051      	str	r1, [r2, #4]
   20bb4:	e02c      	b.n	20c10 <_ZN20complex_dynamic_type3app17h117a3c511296846bE+0x9c>
   20bb6:	9d04      	ldr	r5, [sp, #16]
   20bb8:	a805      	add	r0, sp, #20
   20bba:	2104      	movs	r1, #4
   20bbc:	7001      	strb	r1, [r0, #0]
   20bbe:	4840      	ldr	r0, [pc, #256]	@ (20cc0 <_ZN20complex_dynamic_type3app17h117a3c511296846bE+0x14c>)
   20bc0:	2403      	movs	r4, #3
   20bc2:	2363      	movs	r3, #99	@ 0x63
   20bc4:	4621      	mov	r1, r4
   20bc6:	9a02      	ldr	r2, [sp, #8]
   20bc8:	df03      	svc	3
   20bca:	2802      	cmp	r0, #2
   20bcc:	d10e      	bne.n	20bec <_ZN20complex_dynamic_type3app17h117a3c511296846bE+0x78>
   20bce:	2001      	movs	r0, #1
   20bd0:	7028      	strb	r0, [r5, #0]
   20bd2:	6069      	str	r1, [r5, #4]
   20bd4:	a80c      	add	r0, sp, #48	@ 0x30
   20bd6:	7800      	ldrb	r0, [r0, #0]
   20bd8:	2802      	cmp	r0, #2
   20bda:	d019      	beq.n	20c10 <_ZN20complex_dynamic_type3app17h117a3c511296846bE+0x9c>
   20bdc:	2803      	cmp	r0, #3
   20bde:	d012      	beq.n	20c06 <_ZN20complex_dynamic_type3app17h117a3c511296846bE+0x92>
   20be0:	4837      	ldr	r0, [pc, #220]	@ (20cc0 <_ZN20complex_dynamic_type3app17h117a3c511296846bE+0x14c>)
   20be2:	2103      	movs	r1, #3
   20be4:	2200      	movs	r2, #0
   20be6:	4613      	mov	r3, r2
   20be8:	df04      	svc	4
   20bea:	e011      	b.n	20c10 <_ZN20complex_dynamic_type3app17h117a3c511296846bE+0x9c>
   20bec:	a80c      	add	r0, sp, #48	@ 0x30
   20bee:	7004      	strb	r4, [r0, #0]
   20bf0:	4833      	ldr	r0, [pc, #204]	@ (20cc0 <_ZN20complex_dynamic_type3app17h117a3c511296846bE+0x14c>)
   20bf2:	2600      	movs	r6, #0
   20bf4:	4621      	mov	r1, r4
   20bf6:	4622      	mov	r2, r4
   20bf8:	4633      	mov	r3, r6
   20bfa:	df02      	svc	2
   20bfc:	2880      	cmp	r0, #128	@ 0x80
   20bfe:	d21b      	bcs.n	20c38 <_ZN20complex_dynamic_type3app17h117a3c511296846bE+0xc4>
   20c00:	2001      	movs	r0, #1
   20c02:	7028      	strb	r0, [r5, #0]
   20c04:	6069      	str	r1, [r5, #4]
   20c06:	482e      	ldr	r0, [pc, #184]	@ (20cc0 <_ZN20complex_dynamic_type3app17h117a3c511296846bE+0x14c>)
   20c08:	2103      	movs	r1, #3
   20c0a:	2200      	movs	r2, #0
   20c0c:	4613      	mov	r3, r2
   20c0e:	df03      	svc	3
   20c10:	a805      	add	r0, sp, #20
   20c12:	7800      	ldrb	r0, [r0, #0]
   20c14:	2802      	cmp	r0, #2
   20c16:	d045      	beq.n	20ca4 <_ZN20complex_dynamic_type3app17h117a3c511296846bE+0x130>
   20c18:	2804      	cmp	r0, #4
   20c1a:	d106      	bne.n	20c2a <_ZN20complex_dynamic_type3app17h117a3c511296846bE+0xb6>
   20c1c:	4828      	ldr	r0, [pc, #160]	@ (20cc0 <_ZN20complex_dynamic_type3app17h117a3c511296846bE+0x14c>)
   20c1e:	2103      	movs	r1, #3
   20c20:	2200      	movs	r2, #0
   20c22:	4613      	mov	r3, r2
   20c24:	df04      	svc	4
   20c26:	b025      	add	sp, #148	@ 0x94
   20c28:	bdf0      	pop	{r4, r5, r6, r7, pc}
   20c2a:	4825      	ldr	r0, [pc, #148]	@ (20cc0 <_ZN20complex_dynamic_type3app17h117a3c511296846bE+0x14c>)
   20c2c:	2103      	movs	r1, #3
   20c2e:	2200      	movs	r2, #0
   20c30:	4613      	mov	r3, r2
   20c32:	df03      	svc	3
   20c34:	b025      	add	sp, #148	@ 0x94
   20c36:	bdf0      	pop	{r4, r5, r6, r7, pc}
   20c38:	a805      	add	r0, sp, #20
   20c3a:	7800      	ldrb	r0, [r0, #0]
   20c3c:	2802      	cmp	r0, #2
   20c3e:	d00c      	beq.n	20c5a <_ZN20complex_dynamic_type3app17h117a3c511296846bE+0xe6>
   20c40:	2803      	cmp	r0, #3
   20c42:	d105      	bne.n	20c50 <_ZN20complex_dynamic_type3app17h117a3c511296846bE+0xdc>
   20c44:	481e      	ldr	r0, [pc, #120]	@ (20cc0 <_ZN20complex_dynamic_type3app17h117a3c511296846bE+0x14c>)
   20c46:	2103      	movs	r1, #3
   20c48:	2200      	movs	r2, #0
   20c4a:	4613      	mov	r3, r2
   20c4c:	df03      	svc	3
   20c4e:	e004      	b.n	20c5a <_ZN20complex_dynamic_type3app17h117a3c511296846bE+0xe6>
   20c50:	481b      	ldr	r0, [pc, #108]	@ (20cc0 <_ZN20complex_dynamic_type3app17h117a3c511296846bE+0x14c>)
   20c52:	2103      	movs	r1, #3
   20c54:	2200      	movs	r2, #0
   20c56:	4613      	mov	r3, r2
   20c58:	df04      	svc	4
   20c5a:	a805      	add	r0, sp, #20
   20c5c:	9901      	ldr	r1, [sp, #4]
   20c5e:	7001      	strb	r1, [r0, #0]
   20c60:	a80c      	add	r0, sp, #48	@ 0x30
   20c62:	7800      	ldrb	r0, [r0, #0]
   20c64:	2804      	cmp	r0, #4
   20c66:	d007      	beq.n	20c78 <_ZN20complex_dynamic_type3app17h117a3c511296846bE+0x104>
   20c68:	2803      	cmp	r0, #3
   20c6a:	d11d      	bne.n	20ca8 <_ZN20complex_dynamic_type3app17h117a3c511296846bE+0x134>
   20c6c:	4814      	ldr	r0, [pc, #80]	@ (20cc0 <_ZN20complex_dynamic_type3app17h117a3c511296846bE+0x14c>)
   20c6e:	2103      	movs	r1, #3
   20c70:	2200      	movs	r2, #0
   20c72:	4613      	mov	r3, r2
   20c74:	df03      	svc	3
   20c76:	e004      	b.n	20c82 <_ZN20complex_dynamic_type3app17h117a3c511296846bE+0x10e>
   20c78:	4811      	ldr	r0, [pc, #68]	@ (20cc0 <_ZN20complex_dynamic_type3app17h117a3c511296846bE+0x14c>)
   20c7a:	2103      	movs	r1, #3
   20c7c:	2200      	movs	r2, #0
   20c7e:	4613      	mov	r3, r2
   20c80:	df04      	svc	4
   20c82:	a805      	add	r0, sp, #20
   20c84:	7804      	ldrb	r4, [r0, #0]
   20c86:	1c68      	adds	r0, r5, #1
   20c88:	2263      	movs	r2, #99	@ 0x63
   20c8a:	9902      	ldr	r1, [sp, #8]
   20c8c:	f00a fa3c 	bl	2b108 <__aeabi_memcpy>
   20c90:	702e      	strb	r6, [r5, #0]
   20c92:	2c02      	cmp	r4, #2
   20c94:	d006      	beq.n	20ca4 <_ZN20complex_dynamic_type3app17h117a3c511296846bE+0x130>
   20c96:	480a      	ldr	r0, [pc, #40]	@ (20cc0 <_ZN20complex_dynamic_type3app17h117a3c511296846bE+0x14c>)
   20c98:	2103      	movs	r1, #3
   20c9a:	2200      	movs	r2, #0
   20c9c:	4613      	mov	r3, r2
   20c9e:	2c04      	cmp	r4, #4
   20ca0:	d10a      	bne.n	20cb8 <_ZN20complex_dynamic_type3app17h117a3c511296846bE+0x144>
   20ca2:	df04      	svc	4
   20ca4:	b025      	add	sp, #148	@ 0x94
   20ca6:	bdf0      	pop	{r4, r5, r6, r7, pc}
   20ca8:	1c68      	adds	r0, r5, #1
   20caa:	2263      	movs	r2, #99	@ 0x63
   20cac:	9902      	ldr	r1, [sp, #8]
   20cae:	f00a fa2b 	bl	2b108 <__aeabi_memcpy>
   20cb2:	702e      	strb	r6, [r5, #0]
   20cb4:	b025      	add	sp, #148	@ 0x94
   20cb6:	bdf0      	pop	{r4, r5, r6, r7, pc}
   20cb8:	df03      	svc	3
   20cba:	b025      	add	sp, #148	@ 0x94
   20cbc:	bdf0      	pop	{r4, r5, r6, r7, pc}
   20cbe:	46c0      	nop			@ (mov r8, r8)
   20cc0:	00002548 	.word	0x00002548

00020cc4 <_ZN20complex_dynamic_type3app17h12327896d1f9db6fE>:
   20cc4:	b5f0      	push	{r4, r5, r6, r7, lr}
   20cc6:	af03      	add	r7, sp, #12
   20cc8:	b09f      	sub	sp, #124	@ 0x7c
   20cca:	9003      	str	r0, [sp, #12]
   20ccc:	a804      	add	r0, sp, #16
   20cce:	2602      	movs	r6, #2
   20cd0:	7006      	strb	r6, [r0, #0]
   20cd2:	1c40      	adds	r0, r0, #1
   20cd4:	9002      	str	r0, [sp, #8]
   20cd6:	2555      	movs	r5, #85	@ 0x55
   20cd8:	462a      	mov	r2, r5
   20cda:	f00a fa15 	bl	2b108 <__aeabi_memcpy>
   20cde:	ac1a      	add	r4, sp, #104	@ 0x68
   20ce0:	1c60      	adds	r0, r4, #1
   20ce2:	2111      	movs	r1, #17
   20ce4:	9001      	str	r0, [sp, #4]
   20ce6:	f00a f84f 	bl	2ad88 <__aeabi_memclr>
   20cea:	7026      	strb	r6, [r4, #0]
   20cec:	484a      	ldr	r0, [pc, #296]	@ (20e18 <_ZN20complex_dynamic_type3app17h12327896d1f9db6fE+0x154>)
   20cee:	4631      	mov	r1, r6
   20cf0:	9a02      	ldr	r2, [sp, #8]
   20cf2:	462b      	mov	r3, r5
   20cf4:	df04      	svc	4
   20cf6:	2802      	cmp	r0, #2
   20cf8:	d104      	bne.n	20d04 <_ZN20complex_dynamic_type3app17h12327896d1f9db6fE+0x40>
   20cfa:	2001      	movs	r0, #1
   20cfc:	9a03      	ldr	r2, [sp, #12]
   20cfe:	7010      	strb	r0, [r2, #0]
   20d00:	6051      	str	r1, [r2, #4]
   20d02:	e02e      	b.n	20d62 <_ZN20complex_dynamic_type3app17h12327896d1f9db6fE+0x9e>
   20d04:	9d03      	ldr	r5, [sp, #12]
   20d06:	a804      	add	r0, sp, #16
   20d08:	2104      	movs	r1, #4
   20d0a:	7001      	strb	r1, [r0, #0]
   20d0c:	4842      	ldr	r0, [pc, #264]	@ (20e18 <_ZN20complex_dynamic_type3app17h12327896d1f9db6fE+0x154>)
   20d0e:	2102      	movs	r1, #2
   20d10:	2311      	movs	r3, #17
   20d12:	9c01      	ldr	r4, [sp, #4]
   20d14:	4622      	mov	r2, r4
   20d16:	df03      	svc	3
   20d18:	2802      	cmp	r0, #2
   20d1a:	d10e      	bne.n	20d3a <_ZN20complex_dynamic_type3app17h12327896d1f9db6fE+0x76>
   20d1c:	2001      	movs	r0, #1
   20d1e:	7028      	strb	r0, [r5, #0]
   20d20:	6069      	str	r1, [r5, #4]
   20d22:	a81a      	add	r0, sp, #104	@ 0x68
   20d24:	7800      	ldrb	r0, [r0, #0]
   20d26:	2802      	cmp	r0, #2
   20d28:	d01b      	beq.n	20d62 <_ZN20complex_dynamic_type3app17h12327896d1f9db6fE+0x9e>
   20d2a:	2803      	cmp	r0, #3
   20d2c:	d014      	beq.n	20d58 <_ZN20complex_dynamic_type3app17h12327896d1f9db6fE+0x94>
   20d2e:	483a      	ldr	r0, [pc, #232]	@ (20e18 <_ZN20complex_dynamic_type3app17h12327896d1f9db6fE+0x154>)
   20d30:	2102      	movs	r1, #2
   20d32:	2200      	movs	r2, #0
   20d34:	4613      	mov	r3, r2
   20d36:	df04      	svc	4
   20d38:	e013      	b.n	20d62 <_ZN20complex_dynamic_type3app17h12327896d1f9db6fE+0x9e>
   20d3a:	a81a      	add	r0, sp, #104	@ 0x68
   20d3c:	2103      	movs	r1, #3
   20d3e:	7001      	strb	r1, [r0, #0]
   20d40:	4835      	ldr	r0, [pc, #212]	@ (20e18 <_ZN20complex_dynamic_type3app17h12327896d1f9db6fE+0x154>)
   20d42:	2602      	movs	r6, #2
   20d44:	2300      	movs	r3, #0
   20d46:	4631      	mov	r1, r6
   20d48:	4632      	mov	r2, r6
   20d4a:	9302      	str	r3, [sp, #8]
   20d4c:	df02      	svc	2
   20d4e:	2880      	cmp	r0, #128	@ 0x80
   20d50:	d21b      	bcs.n	20d8a <_ZN20complex_dynamic_type3app17h12327896d1f9db6fE+0xc6>
   20d52:	2001      	movs	r0, #1
   20d54:	7028      	strb	r0, [r5, #0]
   20d56:	6069      	str	r1, [r5, #4]
   20d58:	482f      	ldr	r0, [pc, #188]	@ (20e18 <_ZN20complex_dynamic_type3app17h12327896d1f9db6fE+0x154>)
   20d5a:	2102      	movs	r1, #2
   20d5c:	2200      	movs	r2, #0
   20d5e:	4613      	mov	r3, r2
   20d60:	df03      	svc	3
   20d62:	a804      	add	r0, sp, #16
   20d64:	7800      	ldrb	r0, [r0, #0]
   20d66:	2802      	cmp	r0, #2
   20d68:	d047      	beq.n	20dfa <_ZN20complex_dynamic_type3app17h12327896d1f9db6fE+0x136>
   20d6a:	2804      	cmp	r0, #4
   20d6c:	d106      	bne.n	20d7c <_ZN20complex_dynamic_type3app17h12327896d1f9db6fE+0xb8>
   20d6e:	482a      	ldr	r0, [pc, #168]	@ (20e18 <_ZN20complex_dynamic_type3app17h12327896d1f9db6fE+0x154>)
   20d70:	2102      	movs	r1, #2
   20d72:	2200      	movs	r2, #0
   20d74:	4613      	mov	r3, r2
   20d76:	df04      	svc	4
   20d78:	b01f      	add	sp, #124	@ 0x7c
   20d7a:	bdf0      	pop	{r4, r5, r6, r7, pc}
   20d7c:	4826      	ldr	r0, [pc, #152]	@ (20e18 <_ZN20complex_dynamic_type3app17h12327896d1f9db6fE+0x154>)
   20d7e:	2102      	movs	r1, #2
   20d80:	2200      	movs	r2, #0
   20d82:	4613      	mov	r3, r2
   20d84:	df03      	svc	3
   20d86:	b01f      	add	sp, #124	@ 0x7c
   20d88:	bdf0      	pop	{r4, r5, r6, r7, pc}
   20d8a:	a804      	add	r0, sp, #16
   20d8c:	7800      	ldrb	r0, [r0, #0]
   20d8e:	2802      	cmp	r0, #2
   20d90:	d00c      	beq.n	20dac <_ZN20complex_dynamic_type3app17h12327896d1f9db6fE+0xe8>
   20d92:	2803      	cmp	r0, #3
   20d94:	d105      	bne.n	20da2 <_ZN20complex_dynamic_type3app17h12327896d1f9db6fE+0xde>
   20d96:	4820      	ldr	r0, [pc, #128]	@ (20e18 <_ZN20complex_dynamic_type3app17h12327896d1f9db6fE+0x154>)
   20d98:	2102      	movs	r1, #2
   20d9a:	2200      	movs	r2, #0
   20d9c:	4613      	mov	r3, r2
   20d9e:	df03      	svc	3
   20da0:	e004      	b.n	20dac <_ZN20complex_dynamic_type3app17h12327896d1f9db6fE+0xe8>
   20da2:	481d      	ldr	r0, [pc, #116]	@ (20e18 <_ZN20complex_dynamic_type3app17h12327896d1f9db6fE+0x154>)
   20da4:	2102      	movs	r1, #2
   20da6:	2200      	movs	r2, #0
   20da8:	4613      	mov	r3, r2
   20daa:	df04      	svc	4
   20dac:	a804      	add	r0, sp, #16
   20dae:	7006      	strb	r6, [r0, #0]
   20db0:	a81a      	add	r0, sp, #104	@ 0x68
   20db2:	7800      	ldrb	r0, [r0, #0]
   20db4:	2804      	cmp	r0, #4
   20db6:	d008      	beq.n	20dca <_ZN20complex_dynamic_type3app17h12327896d1f9db6fE+0x106>
   20db8:	2803      	cmp	r0, #3
   20dba:	d120      	bne.n	20dfe <_ZN20complex_dynamic_type3app17h12327896d1f9db6fE+0x13a>
   20dbc:	4626      	mov	r6, r4
   20dbe:	4816      	ldr	r0, [pc, #88]	@ (20e18 <_ZN20complex_dynamic_type3app17h12327896d1f9db6fE+0x154>)
   20dc0:	2102      	movs	r1, #2
   20dc2:	2200      	movs	r2, #0
   20dc4:	4613      	mov	r3, r2
   20dc6:	df03      	svc	3
   20dc8:	e005      	b.n	20dd6 <_ZN20complex_dynamic_type3app17h12327896d1f9db6fE+0x112>
   20dca:	4626      	mov	r6, r4
   20dcc:	4812      	ldr	r0, [pc, #72]	@ (20e18 <_ZN20complex_dynamic_type3app17h12327896d1f9db6fE+0x154>)
   20dce:	2102      	movs	r1, #2
   20dd0:	2200      	movs	r2, #0
   20dd2:	4613      	mov	r3, r2
   20dd4:	df04      	svc	4
   20dd6:	a804      	add	r0, sp, #16
   20dd8:	7804      	ldrb	r4, [r0, #0]
   20dda:	1c68      	adds	r0, r5, #1
   20ddc:	2211      	movs	r2, #17
   20dde:	4631      	mov	r1, r6
   20de0:	f00a f992 	bl	2b108 <__aeabi_memcpy>
   20de4:	9802      	ldr	r0, [sp, #8]
   20de6:	7028      	strb	r0, [r5, #0]
   20de8:	2c02      	cmp	r4, #2
   20dea:	d006      	beq.n	20dfa <_ZN20complex_dynamic_type3app17h12327896d1f9db6fE+0x136>
   20dec:	480a      	ldr	r0, [pc, #40]	@ (20e18 <_ZN20complex_dynamic_type3app17h12327896d1f9db6fE+0x154>)
   20dee:	2102      	movs	r1, #2
   20df0:	2200      	movs	r2, #0
   20df2:	4613      	mov	r3, r2
   20df4:	2c04      	cmp	r4, #4
   20df6:	d10b      	bne.n	20e10 <_ZN20complex_dynamic_type3app17h12327896d1f9db6fE+0x14c>
   20df8:	df04      	svc	4
   20dfa:	b01f      	add	sp, #124	@ 0x7c
   20dfc:	bdf0      	pop	{r4, r5, r6, r7, pc}
   20dfe:	1c68      	adds	r0, r5, #1
   20e00:	2211      	movs	r2, #17
   20e02:	4621      	mov	r1, r4
   20e04:	f00a f980 	bl	2b108 <__aeabi_memcpy>
   20e08:	9802      	ldr	r0, [sp, #8]
   20e0a:	7028      	strb	r0, [r5, #0]
   20e0c:	b01f      	add	sp, #124	@ 0x7c
   20e0e:	bdf0      	pop	{r4, r5, r6, r7, pc}
   20e10:	df03      	svc	3
   20e12:	b01f      	add	sp, #124	@ 0x7c
   20e14:	bdf0      	pop	{r4, r5, r6, r7, pc}
   20e16:	46c0      	nop			@ (mov r8, r8)
   20e18:	00000c89 	.word	0x00000c89

00020e1c <_ZN20complex_dynamic_type3app17h15c6785a2387d5cdE>:
   20e1c:	b5f0      	push	{r4, r5, r6, r7, lr}
   20e1e:	af03      	add	r7, sp, #12
   20e20:	b0a3      	sub	sp, #140	@ 0x8c
   20e22:	9004      	str	r0, [sp, #16]
   20e24:	a805      	add	r0, sp, #20
   20e26:	2402      	movs	r4, #2
   20e28:	7004      	strb	r4, [r0, #0]
   20e2a:	1c46      	adds	r6, r0, #1
   20e2c:	2235      	movs	r2, #53	@ 0x35
   20e2e:	9203      	str	r2, [sp, #12]
   20e30:	4630      	mov	r0, r6
   20e32:	f00a f969 	bl	2b108 <__aeabi_memcpy>
   20e36:	ad13      	add	r5, sp, #76	@ 0x4c
   20e38:	1c68      	adds	r0, r5, #1
   20e3a:	213f      	movs	r1, #63	@ 0x3f
   20e3c:	9002      	str	r0, [sp, #8]
   20e3e:	f009 ffa3 	bl	2ad88 <__aeabi_memclr>
   20e42:	9401      	str	r4, [sp, #4]
   20e44:	702c      	strb	r4, [r5, #0]
   20e46:	4848      	ldr	r0, [pc, #288]	@ (20f68 <_ZN20complex_dynamic_type3app17h15c6785a2387d5cdE+0x14c>)
   20e48:	2100      	movs	r1, #0
   20e4a:	4632      	mov	r2, r6
   20e4c:	9b03      	ldr	r3, [sp, #12]
   20e4e:	df04      	svc	4
   20e50:	2802      	cmp	r0, #2
   20e52:	d104      	bne.n	20e5e <_ZN20complex_dynamic_type3app17h15c6785a2387d5cdE+0x42>
   20e54:	2001      	movs	r0, #1
   20e56:	9a04      	ldr	r2, [sp, #16]
   20e58:	7010      	strb	r0, [r2, #0]
   20e5a:	6051      	str	r1, [r2, #4]
   20e5c:	e02c      	b.n	20eb8 <_ZN20complex_dynamic_type3app17h15c6785a2387d5cdE+0x9c>
   20e5e:	9d04      	ldr	r5, [sp, #16]
   20e60:	a805      	add	r0, sp, #20
   20e62:	2104      	movs	r1, #4
   20e64:	7001      	strb	r1, [r0, #0]
   20e66:	4840      	ldr	r0, [pc, #256]	@ (20f68 <_ZN20complex_dynamic_type3app17h15c6785a2387d5cdE+0x14c>)
   20e68:	2403      	movs	r4, #3
   20e6a:	233f      	movs	r3, #63	@ 0x3f
   20e6c:	4621      	mov	r1, r4
   20e6e:	9a02      	ldr	r2, [sp, #8]
   20e70:	df03      	svc	3
   20e72:	2802      	cmp	r0, #2
   20e74:	d10e      	bne.n	20e94 <_ZN20complex_dynamic_type3app17h15c6785a2387d5cdE+0x78>
   20e76:	2001      	movs	r0, #1
   20e78:	7028      	strb	r0, [r5, #0]
   20e7a:	6069      	str	r1, [r5, #4]
   20e7c:	a813      	add	r0, sp, #76	@ 0x4c
   20e7e:	7800      	ldrb	r0, [r0, #0]
   20e80:	2802      	cmp	r0, #2
   20e82:	d019      	beq.n	20eb8 <_ZN20complex_dynamic_type3app17h15c6785a2387d5cdE+0x9c>
   20e84:	2803      	cmp	r0, #3
   20e86:	d012      	beq.n	20eae <_ZN20complex_dynamic_type3app17h15c6785a2387d5cdE+0x92>
   20e88:	4837      	ldr	r0, [pc, #220]	@ (20f68 <_ZN20complex_dynamic_type3app17h15c6785a2387d5cdE+0x14c>)
   20e8a:	2103      	movs	r1, #3
   20e8c:	2200      	movs	r2, #0
   20e8e:	4613      	mov	r3, r2
   20e90:	df04      	svc	4
   20e92:	e011      	b.n	20eb8 <_ZN20complex_dynamic_type3app17h15c6785a2387d5cdE+0x9c>
   20e94:	a813      	add	r0, sp, #76	@ 0x4c
   20e96:	7004      	strb	r4, [r0, #0]
   20e98:	4833      	ldr	r0, [pc, #204]	@ (20f68 <_ZN20complex_dynamic_type3app17h15c6785a2387d5cdE+0x14c>)
   20e9a:	2600      	movs	r6, #0
   20e9c:	4631      	mov	r1, r6
   20e9e:	4622      	mov	r2, r4
   20ea0:	4633      	mov	r3, r6
   20ea2:	df02      	svc	2
   20ea4:	2880      	cmp	r0, #128	@ 0x80
   20ea6:	d21b      	bcs.n	20ee0 <_ZN20complex_dynamic_type3app17h15c6785a2387d5cdE+0xc4>
   20ea8:	2001      	movs	r0, #1
   20eaa:	7028      	strb	r0, [r5, #0]
   20eac:	6069      	str	r1, [r5, #4]
   20eae:	482e      	ldr	r0, [pc, #184]	@ (20f68 <_ZN20complex_dynamic_type3app17h15c6785a2387d5cdE+0x14c>)
   20eb0:	2103      	movs	r1, #3
   20eb2:	2200      	movs	r2, #0
   20eb4:	4613      	mov	r3, r2
   20eb6:	df03      	svc	3
   20eb8:	a805      	add	r0, sp, #20
   20eba:	7800      	ldrb	r0, [r0, #0]
   20ebc:	2802      	cmp	r0, #2
   20ebe:	d045      	beq.n	20f4c <_ZN20complex_dynamic_type3app17h15c6785a2387d5cdE+0x130>
   20ec0:	2804      	cmp	r0, #4
   20ec2:	d106      	bne.n	20ed2 <_ZN20complex_dynamic_type3app17h15c6785a2387d5cdE+0xb6>
   20ec4:	4828      	ldr	r0, [pc, #160]	@ (20f68 <_ZN20complex_dynamic_type3app17h15c6785a2387d5cdE+0x14c>)
   20ec6:	2100      	movs	r1, #0
   20ec8:	460a      	mov	r2, r1
   20eca:	460b      	mov	r3, r1
   20ecc:	df04      	svc	4
   20ece:	b023      	add	sp, #140	@ 0x8c
   20ed0:	bdf0      	pop	{r4, r5, r6, r7, pc}
   20ed2:	4825      	ldr	r0, [pc, #148]	@ (20f68 <_ZN20complex_dynamic_type3app17h15c6785a2387d5cdE+0x14c>)
   20ed4:	2100      	movs	r1, #0
   20ed6:	460a      	mov	r2, r1
   20ed8:	460b      	mov	r3, r1
   20eda:	df03      	svc	3
   20edc:	b023      	add	sp, #140	@ 0x8c
   20ede:	bdf0      	pop	{r4, r5, r6, r7, pc}
   20ee0:	a805      	add	r0, sp, #20
   20ee2:	7800      	ldrb	r0, [r0, #0]
   20ee4:	2802      	cmp	r0, #2
   20ee6:	d00c      	beq.n	20f02 <_ZN20complex_dynamic_type3app17h15c6785a2387d5cdE+0xe6>
   20ee8:	2803      	cmp	r0, #3
   20eea:	d105      	bne.n	20ef8 <_ZN20complex_dynamic_type3app17h15c6785a2387d5cdE+0xdc>
   20eec:	481e      	ldr	r0, [pc, #120]	@ (20f68 <_ZN20complex_dynamic_type3app17h15c6785a2387d5cdE+0x14c>)
   20eee:	2100      	movs	r1, #0
   20ef0:	460a      	mov	r2, r1
   20ef2:	460b      	mov	r3, r1
   20ef4:	df03      	svc	3
   20ef6:	e004      	b.n	20f02 <_ZN20complex_dynamic_type3app17h15c6785a2387d5cdE+0xe6>
   20ef8:	481b      	ldr	r0, [pc, #108]	@ (20f68 <_ZN20complex_dynamic_type3app17h15c6785a2387d5cdE+0x14c>)
   20efa:	2100      	movs	r1, #0
   20efc:	460a      	mov	r2, r1
   20efe:	460b      	mov	r3, r1
   20f00:	df04      	svc	4
   20f02:	a805      	add	r0, sp, #20
   20f04:	9901      	ldr	r1, [sp, #4]
   20f06:	7001      	strb	r1, [r0, #0]
   20f08:	a813      	add	r0, sp, #76	@ 0x4c
   20f0a:	7800      	ldrb	r0, [r0, #0]
   20f0c:	2804      	cmp	r0, #4
   20f0e:	d007      	beq.n	20f20 <_ZN20complex_dynamic_type3app17h15c6785a2387d5cdE+0x104>
   20f10:	2803      	cmp	r0, #3
   20f12:	d11d      	bne.n	20f50 <_ZN20complex_dynamic_type3app17h15c6785a2387d5cdE+0x134>
   20f14:	4814      	ldr	r0, [pc, #80]	@ (20f68 <_ZN20complex_dynamic_type3app17h15c6785a2387d5cdE+0x14c>)
   20f16:	2103      	movs	r1, #3
   20f18:	2200      	movs	r2, #0
   20f1a:	4613      	mov	r3, r2
   20f1c:	df03      	svc	3
   20f1e:	e004      	b.n	20f2a <_ZN20complex_dynamic_type3app17h15c6785a2387d5cdE+0x10e>
   20f20:	4811      	ldr	r0, [pc, #68]	@ (20f68 <_ZN20complex_dynamic_type3app17h15c6785a2387d5cdE+0x14c>)
   20f22:	2103      	movs	r1, #3
   20f24:	2200      	movs	r2, #0
   20f26:	4613      	mov	r3, r2
   20f28:	df04      	svc	4
   20f2a:	a805      	add	r0, sp, #20
   20f2c:	7804      	ldrb	r4, [r0, #0]
   20f2e:	1c68      	adds	r0, r5, #1
   20f30:	223f      	movs	r2, #63	@ 0x3f
   20f32:	9902      	ldr	r1, [sp, #8]
   20f34:	f00a f8e8 	bl	2b108 <__aeabi_memcpy>
   20f38:	702e      	strb	r6, [r5, #0]
   20f3a:	2c02      	cmp	r4, #2
   20f3c:	d006      	beq.n	20f4c <_ZN20complex_dynamic_type3app17h15c6785a2387d5cdE+0x130>
   20f3e:	480a      	ldr	r0, [pc, #40]	@ (20f68 <_ZN20complex_dynamic_type3app17h15c6785a2387d5cdE+0x14c>)
   20f40:	2100      	movs	r1, #0
   20f42:	460a      	mov	r2, r1
   20f44:	460b      	mov	r3, r1
   20f46:	2c04      	cmp	r4, #4
   20f48:	d10a      	bne.n	20f60 <_ZN20complex_dynamic_type3app17h15c6785a2387d5cdE+0x144>
   20f4a:	df04      	svc	4
   20f4c:	b023      	add	sp, #140	@ 0x8c
   20f4e:	bdf0      	pop	{r4, r5, r6, r7, pc}
   20f50:	1c68      	adds	r0, r5, #1
   20f52:	223f      	movs	r2, #63	@ 0x3f
   20f54:	9902      	ldr	r1, [sp, #8]
   20f56:	f00a f8d7 	bl	2b108 <__aeabi_memcpy>
   20f5a:	702e      	strb	r6, [r5, #0]
   20f5c:	b023      	add	sp, #140	@ 0x8c
   20f5e:	bdf0      	pop	{r4, r5, r6, r7, pc}
   20f60:	df03      	svc	3
   20f62:	b023      	add	sp, #140	@ 0x8c
   20f64:	bdf0      	pop	{r4, r5, r6, r7, pc}
   20f66:	46c0      	nop			@ (mov r8, r8)
   20f68:	00000e57 	.word	0x00000e57

00020f6c <_ZN20complex_dynamic_type3app17h206877f36bd3bf2cE>:
   20f6c:	b5f0      	push	{r4, r5, r6, r7, lr}
   20f6e:	af03      	add	r7, sp, #12
   20f70:	b0a9      	sub	sp, #164	@ 0xa4
   20f72:	9004      	str	r0, [sp, #16]
   20f74:	a805      	add	r0, sp, #20
   20f76:	2402      	movs	r4, #2
   20f78:	7004      	strb	r4, [r0, #0]
   20f7a:	1c46      	adds	r6, r0, #1
   20f7c:	224d      	movs	r2, #77	@ 0x4d
   20f7e:	9203      	str	r2, [sp, #12]
   20f80:	4630      	mov	r0, r6
   20f82:	f00a f8c1 	bl	2b108 <__aeabi_memcpy>
   20f86:	ad19      	add	r5, sp, #100	@ 0x64
   20f88:	1c68      	adds	r0, r5, #1
   20f8a:	213c      	movs	r1, #60	@ 0x3c
   20f8c:	9002      	str	r0, [sp, #8]
   20f8e:	f009 fefb 	bl	2ad88 <__aeabi_memclr>
   20f92:	9401      	str	r4, [sp, #4]
   20f94:	702c      	strb	r4, [r5, #0]
   20f96:	4848      	ldr	r0, [pc, #288]	@ (210b8 <_ZN20complex_dynamic_type3app17h206877f36bd3bf2cE+0x14c>)
   20f98:	2504      	movs	r5, #4
   20f9a:	4629      	mov	r1, r5
   20f9c:	4632      	mov	r2, r6
   20f9e:	9b03      	ldr	r3, [sp, #12]
   20fa0:	df04      	svc	4
   20fa2:	2802      	cmp	r0, #2
   20fa4:	d104      	bne.n	20fb0 <_ZN20complex_dynamic_type3app17h206877f36bd3bf2cE+0x44>
   20fa6:	2001      	movs	r0, #1
   20fa8:	9a04      	ldr	r2, [sp, #16]
   20faa:	7010      	strb	r0, [r2, #0]
   20fac:	6051      	str	r1, [r2, #4]
   20fae:	e02c      	b.n	2100a <_ZN20complex_dynamic_type3app17h206877f36bd3bf2cE+0x9e>
   20fb0:	9c04      	ldr	r4, [sp, #16]
   20fb2:	a805      	add	r0, sp, #20
   20fb4:	7005      	strb	r5, [r0, #0]
   20fb6:	4840      	ldr	r0, [pc, #256]	@ (210b8 <_ZN20complex_dynamic_type3app17h206877f36bd3bf2cE+0x14c>)
   20fb8:	2109      	movs	r1, #9
   20fba:	233c      	movs	r3, #60	@ 0x3c
   20fbc:	9a02      	ldr	r2, [sp, #8]
   20fbe:	df03      	svc	3
   20fc0:	2802      	cmp	r0, #2
   20fc2:	d10e      	bne.n	20fe2 <_ZN20complex_dynamic_type3app17h206877f36bd3bf2cE+0x76>
   20fc4:	2001      	movs	r0, #1
   20fc6:	7020      	strb	r0, [r4, #0]
   20fc8:	6061      	str	r1, [r4, #4]
   20fca:	a819      	add	r0, sp, #100	@ 0x64
   20fcc:	7800      	ldrb	r0, [r0, #0]
   20fce:	2802      	cmp	r0, #2
   20fd0:	d01b      	beq.n	2100a <_ZN20complex_dynamic_type3app17h206877f36bd3bf2cE+0x9e>
   20fd2:	2803      	cmp	r0, #3
   20fd4:	d014      	beq.n	21000 <_ZN20complex_dynamic_type3app17h206877f36bd3bf2cE+0x94>
   20fd6:	4838      	ldr	r0, [pc, #224]	@ (210b8 <_ZN20complex_dynamic_type3app17h206877f36bd3bf2cE+0x14c>)
   20fd8:	2109      	movs	r1, #9
   20fda:	2200      	movs	r2, #0
   20fdc:	4613      	mov	r3, r2
   20fde:	df04      	svc	4
   20fe0:	e013      	b.n	2100a <_ZN20complex_dynamic_type3app17h206877f36bd3bf2cE+0x9e>
   20fe2:	a819      	add	r0, sp, #100	@ 0x64
   20fe4:	2103      	movs	r1, #3
   20fe6:	7001      	strb	r1, [r0, #0]
   20fe8:	4833      	ldr	r0, [pc, #204]	@ (210b8 <_ZN20complex_dynamic_type3app17h206877f36bd3bf2cE+0x14c>)
   20fea:	2104      	movs	r1, #4
   20fec:	2209      	movs	r2, #9
   20fee:	2600      	movs	r6, #0
   20ff0:	4633      	mov	r3, r6
   20ff2:	df02      	svc	2
   20ff4:	2880      	cmp	r0, #128	@ 0x80
   20ff6:	4625      	mov	r5, r4
   20ff8:	d21b      	bcs.n	21032 <_ZN20complex_dynamic_type3app17h206877f36bd3bf2cE+0xc6>
   20ffa:	2001      	movs	r0, #1
   20ffc:	7028      	strb	r0, [r5, #0]
   20ffe:	6069      	str	r1, [r5, #4]
   21000:	482d      	ldr	r0, [pc, #180]	@ (210b8 <_ZN20complex_dynamic_type3app17h206877f36bd3bf2cE+0x14c>)
   21002:	2109      	movs	r1, #9
   21004:	2200      	movs	r2, #0
   21006:	4613      	mov	r3, r2
   21008:	df03      	svc	3
   2100a:	a805      	add	r0, sp, #20
   2100c:	7800      	ldrb	r0, [r0, #0]
   2100e:	2802      	cmp	r0, #2
   21010:	d045      	beq.n	2109e <_ZN20complex_dynamic_type3app17h206877f36bd3bf2cE+0x132>
   21012:	2804      	cmp	r0, #4
   21014:	d106      	bne.n	21024 <_ZN20complex_dynamic_type3app17h206877f36bd3bf2cE+0xb8>
   21016:	4828      	ldr	r0, [pc, #160]	@ (210b8 <_ZN20complex_dynamic_type3app17h206877f36bd3bf2cE+0x14c>)
   21018:	2104      	movs	r1, #4
   2101a:	2200      	movs	r2, #0
   2101c:	4613      	mov	r3, r2
   2101e:	df04      	svc	4
   21020:	b029      	add	sp, #164	@ 0xa4
   21022:	bdf0      	pop	{r4, r5, r6, r7, pc}
   21024:	4824      	ldr	r0, [pc, #144]	@ (210b8 <_ZN20complex_dynamic_type3app17h206877f36bd3bf2cE+0x14c>)
   21026:	2104      	movs	r1, #4
   21028:	2200      	movs	r2, #0
   2102a:	4613      	mov	r3, r2
   2102c:	df03      	svc	3
   2102e:	b029      	add	sp, #164	@ 0xa4
   21030:	bdf0      	pop	{r4, r5, r6, r7, pc}
   21032:	a805      	add	r0, sp, #20
   21034:	7800      	ldrb	r0, [r0, #0]
   21036:	2802      	cmp	r0, #2
   21038:	d00c      	beq.n	21054 <_ZN20complex_dynamic_type3app17h206877f36bd3bf2cE+0xe8>
   2103a:	2803      	cmp	r0, #3
   2103c:	d105      	bne.n	2104a <_ZN20complex_dynamic_type3app17h206877f36bd3bf2cE+0xde>
   2103e:	481e      	ldr	r0, [pc, #120]	@ (210b8 <_ZN20complex_dynamic_type3app17h206877f36bd3bf2cE+0x14c>)
   21040:	2104      	movs	r1, #4
   21042:	2200      	movs	r2, #0
   21044:	4613      	mov	r3, r2
   21046:	df03      	svc	3
   21048:	e004      	b.n	21054 <_ZN20complex_dynamic_type3app17h206877f36bd3bf2cE+0xe8>
   2104a:	481b      	ldr	r0, [pc, #108]	@ (210b8 <_ZN20complex_dynamic_type3app17h206877f36bd3bf2cE+0x14c>)
   2104c:	2104      	movs	r1, #4
   2104e:	2200      	movs	r2, #0
   21050:	4613      	mov	r3, r2
   21052:	df04      	svc	4
   21054:	a805      	add	r0, sp, #20
   21056:	9901      	ldr	r1, [sp, #4]
   21058:	7001      	strb	r1, [r0, #0]
   2105a:	a819      	add	r0, sp, #100	@ 0x64
   2105c:	7800      	ldrb	r0, [r0, #0]
   2105e:	2804      	cmp	r0, #4
   21060:	d007      	beq.n	21072 <_ZN20complex_dynamic_type3app17h206877f36bd3bf2cE+0x106>
   21062:	2803      	cmp	r0, #3
   21064:	d11d      	bne.n	210a2 <_ZN20complex_dynamic_type3app17h206877f36bd3bf2cE+0x136>
   21066:	4814      	ldr	r0, [pc, #80]	@ (210b8 <_ZN20complex_dynamic_type3app17h206877f36bd3bf2cE+0x14c>)
   21068:	2109      	movs	r1, #9
   2106a:	2200      	movs	r2, #0
   2106c:	4613      	mov	r3, r2
   2106e:	df03      	svc	3
   21070:	e004      	b.n	2107c <_ZN20complex_dynamic_type3app17h206877f36bd3bf2cE+0x110>
   21072:	4811      	ldr	r0, [pc, #68]	@ (210b8 <_ZN20complex_dynamic_type3app17h206877f36bd3bf2cE+0x14c>)
   21074:	2109      	movs	r1, #9
   21076:	2200      	movs	r2, #0
   21078:	4613      	mov	r3, r2
   2107a:	df04      	svc	4
   2107c:	a805      	add	r0, sp, #20
   2107e:	7804      	ldrb	r4, [r0, #0]
   21080:	1c68      	adds	r0, r5, #1
   21082:	223c      	movs	r2, #60	@ 0x3c
   21084:	9902      	ldr	r1, [sp, #8]
   21086:	f00a f83f 	bl	2b108 <__aeabi_memcpy>
   2108a:	702e      	strb	r6, [r5, #0]
   2108c:	2c02      	cmp	r4, #2
   2108e:	d006      	beq.n	2109e <_ZN20complex_dynamic_type3app17h206877f36bd3bf2cE+0x132>
   21090:	4809      	ldr	r0, [pc, #36]	@ (210b8 <_ZN20complex_dynamic_type3app17h206877f36bd3bf2cE+0x14c>)
   21092:	2104      	movs	r1, #4
   21094:	2200      	movs	r2, #0
   21096:	4613      	mov	r3, r2
   21098:	2c04      	cmp	r4, #4
   2109a:	d10a      	bne.n	210b2 <_ZN20complex_dynamic_type3app17h206877f36bd3bf2cE+0x146>
   2109c:	df04      	svc	4
   2109e:	b029      	add	sp, #164	@ 0xa4
   210a0:	bdf0      	pop	{r4, r5, r6, r7, pc}
   210a2:	1c68      	adds	r0, r5, #1
   210a4:	223c      	movs	r2, #60	@ 0x3c
   210a6:	9902      	ldr	r1, [sp, #8]
   210a8:	f00a f82e 	bl	2b108 <__aeabi_memcpy>
   210ac:	702e      	strb	r6, [r5, #0]
   210ae:	b029      	add	sp, #164	@ 0xa4
   210b0:	bdf0      	pop	{r4, r5, r6, r7, pc}
   210b2:	df03      	svc	3
   210b4:	b029      	add	sp, #164	@ 0xa4
   210b6:	bdf0      	pop	{r4, r5, r6, r7, pc}
   210b8:	000021ab 	.word	0x000021ab

000210bc <_ZN20complex_dynamic_type3app17h20c758d6034b358fE>:
   210bc:	b5f0      	push	{r4, r5, r6, r7, lr}
   210be:	af03      	add	r7, sp, #12
   210c0:	b09d      	sub	sp, #116	@ 0x74
   210c2:	9004      	str	r0, [sp, #16]
   210c4:	a805      	add	r0, sp, #20
   210c6:	2402      	movs	r4, #2
   210c8:	7004      	strb	r4, [r0, #0]
   210ca:	1c46      	adds	r6, r0, #1
   210cc:	223f      	movs	r2, #63	@ 0x3f
   210ce:	9203      	str	r2, [sp, #12]
   210d0:	4630      	mov	r0, r6
   210d2:	f00a f819 	bl	2b108 <__aeabi_memcpy>
   210d6:	ad15      	add	r5, sp, #84	@ 0x54
   210d8:	1c68      	adds	r0, r5, #1
   210da:	211c      	movs	r1, #28
   210dc:	9002      	str	r0, [sp, #8]
   210de:	f009 fe53 	bl	2ad88 <__aeabi_memclr>
   210e2:	9401      	str	r4, [sp, #4]
   210e4:	702c      	strb	r4, [r5, #0]
   210e6:	4848      	ldr	r0, [pc, #288]	@ (21208 <_ZN20complex_dynamic_type3app17h20c758d6034b358fE+0x14c>)
   210e8:	2105      	movs	r1, #5
   210ea:	4632      	mov	r2, r6
   210ec:	9b03      	ldr	r3, [sp, #12]
   210ee:	df04      	svc	4
   210f0:	2802      	cmp	r0, #2
   210f2:	d104      	bne.n	210fe <_ZN20complex_dynamic_type3app17h20c758d6034b358fE+0x42>
   210f4:	2001      	movs	r0, #1
   210f6:	9a04      	ldr	r2, [sp, #16]
   210f8:	7010      	strb	r0, [r2, #0]
   210fa:	6051      	str	r1, [r2, #4]
   210fc:	e02d      	b.n	2115a <_ZN20complex_dynamic_type3app17h20c758d6034b358fE+0x9e>
   210fe:	9d04      	ldr	r5, [sp, #16]
   21100:	a805      	add	r0, sp, #20
   21102:	2104      	movs	r1, #4
   21104:	7001      	strb	r1, [r0, #0]
   21106:	4840      	ldr	r0, [pc, #256]	@ (21208 <_ZN20complex_dynamic_type3app17h20c758d6034b358fE+0x14c>)
   21108:	2109      	movs	r1, #9
   2110a:	231c      	movs	r3, #28
   2110c:	9c02      	ldr	r4, [sp, #8]
   2110e:	4622      	mov	r2, r4
   21110:	df03      	svc	3
   21112:	2802      	cmp	r0, #2
   21114:	d10e      	bne.n	21134 <_ZN20complex_dynamic_type3app17h20c758d6034b358fE+0x78>
   21116:	2001      	movs	r0, #1
   21118:	7028      	strb	r0, [r5, #0]
   2111a:	6069      	str	r1, [r5, #4]
   2111c:	a815      	add	r0, sp, #84	@ 0x54
   2111e:	7800      	ldrb	r0, [r0, #0]
   21120:	2802      	cmp	r0, #2
   21122:	d01a      	beq.n	2115a <_ZN20complex_dynamic_type3app17h20c758d6034b358fE+0x9e>
   21124:	2803      	cmp	r0, #3
   21126:	d013      	beq.n	21150 <_ZN20complex_dynamic_type3app17h20c758d6034b358fE+0x94>
   21128:	4837      	ldr	r0, [pc, #220]	@ (21208 <_ZN20complex_dynamic_type3app17h20c758d6034b358fE+0x14c>)
   2112a:	2109      	movs	r1, #9
   2112c:	2200      	movs	r2, #0
   2112e:	4613      	mov	r3, r2
   21130:	df04      	svc	4
   21132:	e012      	b.n	2115a <_ZN20complex_dynamic_type3app17h20c758d6034b358fE+0x9e>
   21134:	a815      	add	r0, sp, #84	@ 0x54
   21136:	2103      	movs	r1, #3
   21138:	7001      	strb	r1, [r0, #0]
   2113a:	4833      	ldr	r0, [pc, #204]	@ (21208 <_ZN20complex_dynamic_type3app17h20c758d6034b358fE+0x14c>)
   2113c:	2105      	movs	r1, #5
   2113e:	2209      	movs	r2, #9
   21140:	2600      	movs	r6, #0
   21142:	4633      	mov	r3, r6
   21144:	df02      	svc	2
   21146:	2880      	cmp	r0, #128	@ 0x80
   21148:	d21b      	bcs.n	21182 <_ZN20complex_dynamic_type3app17h20c758d6034b358fE+0xc6>
   2114a:	2001      	movs	r0, #1
   2114c:	7028      	strb	r0, [r5, #0]
   2114e:	6069      	str	r1, [r5, #4]
   21150:	482d      	ldr	r0, [pc, #180]	@ (21208 <_ZN20complex_dynamic_type3app17h20c758d6034b358fE+0x14c>)
   21152:	2109      	movs	r1, #9
   21154:	2200      	movs	r2, #0
   21156:	4613      	mov	r3, r2
   21158:	df03      	svc	3
   2115a:	a805      	add	r0, sp, #20
   2115c:	7800      	ldrb	r0, [r0, #0]
   2115e:	2802      	cmp	r0, #2
   21160:	d045      	beq.n	211ee <_ZN20complex_dynamic_type3app17h20c758d6034b358fE+0x132>
   21162:	2804      	cmp	r0, #4
   21164:	d106      	bne.n	21174 <_ZN20complex_dynamic_type3app17h20c758d6034b358fE+0xb8>
   21166:	4828      	ldr	r0, [pc, #160]	@ (21208 <_ZN20complex_dynamic_type3app17h20c758d6034b358fE+0x14c>)
   21168:	2105      	movs	r1, #5
   2116a:	2200      	movs	r2, #0
   2116c:	4613      	mov	r3, r2
   2116e:	df04      	svc	4
   21170:	b01d      	add	sp, #116	@ 0x74
   21172:	bdf0      	pop	{r4, r5, r6, r7, pc}
   21174:	4824      	ldr	r0, [pc, #144]	@ (21208 <_ZN20complex_dynamic_type3app17h20c758d6034b358fE+0x14c>)
   21176:	2105      	movs	r1, #5
   21178:	2200      	movs	r2, #0
   2117a:	4613      	mov	r3, r2
   2117c:	df03      	svc	3
   2117e:	b01d      	add	sp, #116	@ 0x74
   21180:	bdf0      	pop	{r4, r5, r6, r7, pc}
   21182:	a805      	add	r0, sp, #20
   21184:	7800      	ldrb	r0, [r0, #0]
   21186:	2802      	cmp	r0, #2
   21188:	d00c      	beq.n	211a4 <_ZN20complex_dynamic_type3app17h20c758d6034b358fE+0xe8>
   2118a:	2803      	cmp	r0, #3
   2118c:	d105      	bne.n	2119a <_ZN20complex_dynamic_type3app17h20c758d6034b358fE+0xde>
   2118e:	481e      	ldr	r0, [pc, #120]	@ (21208 <_ZN20complex_dynamic_type3app17h20c758d6034b358fE+0x14c>)
   21190:	2105      	movs	r1, #5
   21192:	2200      	movs	r2, #0
   21194:	4613      	mov	r3, r2
   21196:	df03      	svc	3
   21198:	e004      	b.n	211a4 <_ZN20complex_dynamic_type3app17h20c758d6034b358fE+0xe8>
   2119a:	481b      	ldr	r0, [pc, #108]	@ (21208 <_ZN20complex_dynamic_type3app17h20c758d6034b358fE+0x14c>)
   2119c:	2105      	movs	r1, #5
   2119e:	2200      	movs	r2, #0
   211a0:	4613      	mov	r3, r2
   211a2:	df04      	svc	4
   211a4:	a805      	add	r0, sp, #20
   211a6:	9901      	ldr	r1, [sp, #4]
   211a8:	7001      	strb	r1, [r0, #0]
   211aa:	a815      	add	r0, sp, #84	@ 0x54
   211ac:	7800      	ldrb	r0, [r0, #0]
   211ae:	2804      	cmp	r0, #4
   211b0:	d007      	beq.n	211c2 <_ZN20complex_dynamic_type3app17h20c758d6034b358fE+0x106>
   211b2:	2803      	cmp	r0, #3
   211b4:	d11d      	bne.n	211f2 <_ZN20complex_dynamic_type3app17h20c758d6034b358fE+0x136>
   211b6:	4814      	ldr	r0, [pc, #80]	@ (21208 <_ZN20complex_dynamic_type3app17h20c758d6034b358fE+0x14c>)
   211b8:	2109      	movs	r1, #9
   211ba:	2200      	movs	r2, #0
   211bc:	4613      	mov	r3, r2
   211be:	df03      	svc	3
   211c0:	e004      	b.n	211cc <_ZN20complex_dynamic_type3app17h20c758d6034b358fE+0x110>
   211c2:	4811      	ldr	r0, [pc, #68]	@ (21208 <_ZN20complex_dynamic_type3app17h20c758d6034b358fE+0x14c>)
   211c4:	2109      	movs	r1, #9
   211c6:	2200      	movs	r2, #0
   211c8:	4613      	mov	r3, r2
   211ca:	df04      	svc	4
   211cc:	a805      	add	r0, sp, #20
   211ce:	7804      	ldrb	r4, [r0, #0]
   211d0:	1c68      	adds	r0, r5, #1
   211d2:	221c      	movs	r2, #28
   211d4:	9902      	ldr	r1, [sp, #8]
   211d6:	f009 ff97 	bl	2b108 <__aeabi_memcpy>
   211da:	702e      	strb	r6, [r5, #0]
   211dc:	2c02      	cmp	r4, #2
   211de:	d006      	beq.n	211ee <_ZN20complex_dynamic_type3app17h20c758d6034b358fE+0x132>
   211e0:	4809      	ldr	r0, [pc, #36]	@ (21208 <_ZN20complex_dynamic_type3app17h20c758d6034b358fE+0x14c>)
   211e2:	2105      	movs	r1, #5
   211e4:	2200      	movs	r2, #0
   211e6:	4613      	mov	r3, r2
   211e8:	2c04      	cmp	r4, #4
   211ea:	d10a      	bne.n	21202 <_ZN20complex_dynamic_type3app17h20c758d6034b358fE+0x146>
   211ec:	df04      	svc	4
   211ee:	b01d      	add	sp, #116	@ 0x74
   211f0:	bdf0      	pop	{r4, r5, r6, r7, pc}
   211f2:	1c68      	adds	r0, r5, #1
   211f4:	221c      	movs	r2, #28
   211f6:	4621      	mov	r1, r4
   211f8:	f009 ff86 	bl	2b108 <__aeabi_memcpy>
   211fc:	702e      	strb	r6, [r5, #0]
   211fe:	b01d      	add	sp, #116	@ 0x74
   21200:	bdf0      	pop	{r4, r5, r6, r7, pc}
   21202:	df03      	svc	3
   21204:	b01d      	add	sp, #116	@ 0x74
   21206:	bdf0      	pop	{r4, r5, r6, r7, pc}
   21208:	00001694 	.word	0x00001694

0002120c <_ZN20complex_dynamic_type3app17h2285336856e512b4E>:
   2120c:	b5f0      	push	{r4, r5, r6, r7, lr}
   2120e:	af03      	add	r7, sp, #12
   21210:	b09d      	sub	sp, #116	@ 0x74
   21212:	9002      	str	r0, [sp, #8]
   21214:	a803      	add	r0, sp, #12
   21216:	2602      	movs	r6, #2
   21218:	7006      	strb	r6, [r0, #0]
   2121a:	1c40      	adds	r0, r0, #1
   2121c:	9001      	str	r0, [sp, #4]
   2121e:	2534      	movs	r5, #52	@ 0x34
   21220:	462a      	mov	r2, r5
   21222:	f009 ff71 	bl	2b108 <__aeabi_memcpy>
   21226:	ac11      	add	r4, sp, #68	@ 0x44
   21228:	1c60      	adds	r0, r4, #1
   2122a:	212e      	movs	r1, #46	@ 0x2e
   2122c:	9000      	str	r0, [sp, #0]
   2122e:	f009 fdab 	bl	2ad88 <__aeabi_memclr>
   21232:	7026      	strb	r6, [r4, #0]
   21234:	484a      	ldr	r0, [pc, #296]	@ (21360 <_ZN20complex_dynamic_type3app17h2285336856e512b4E+0x154>)
   21236:	4631      	mov	r1, r6
   21238:	9a01      	ldr	r2, [sp, #4]
   2123a:	462b      	mov	r3, r5
   2123c:	df04      	svc	4
   2123e:	2802      	cmp	r0, #2
   21240:	d104      	bne.n	2124c <_ZN20complex_dynamic_type3app17h2285336856e512b4E+0x40>
   21242:	2001      	movs	r0, #1
   21244:	9a02      	ldr	r2, [sp, #8]
   21246:	7010      	strb	r0, [r2, #0]
   21248:	6051      	str	r1, [r2, #4]
   2124a:	e02e      	b.n	212aa <_ZN20complex_dynamic_type3app17h2285336856e512b4E+0x9e>
   2124c:	9d02      	ldr	r5, [sp, #8]
   2124e:	a803      	add	r0, sp, #12
   21250:	2104      	movs	r1, #4
   21252:	7001      	strb	r1, [r0, #0]
   21254:	4842      	ldr	r0, [pc, #264]	@ (21360 <_ZN20complex_dynamic_type3app17h2285336856e512b4E+0x154>)
   21256:	2108      	movs	r1, #8
   21258:	232e      	movs	r3, #46	@ 0x2e
   2125a:	9c00      	ldr	r4, [sp, #0]
   2125c:	4622      	mov	r2, r4
   2125e:	df03      	svc	3
   21260:	2802      	cmp	r0, #2
   21262:	d10e      	bne.n	21282 <_ZN20complex_dynamic_type3app17h2285336856e512b4E+0x76>
   21264:	2001      	movs	r0, #1
   21266:	7028      	strb	r0, [r5, #0]
   21268:	6069      	str	r1, [r5, #4]
   2126a:	a811      	add	r0, sp, #68	@ 0x44
   2126c:	7800      	ldrb	r0, [r0, #0]
   2126e:	2802      	cmp	r0, #2
   21270:	d01b      	beq.n	212aa <_ZN20complex_dynamic_type3app17h2285336856e512b4E+0x9e>
   21272:	2803      	cmp	r0, #3
   21274:	d014      	beq.n	212a0 <_ZN20complex_dynamic_type3app17h2285336856e512b4E+0x94>
   21276:	483a      	ldr	r0, [pc, #232]	@ (21360 <_ZN20complex_dynamic_type3app17h2285336856e512b4E+0x154>)
   21278:	2108      	movs	r1, #8
   2127a:	2200      	movs	r2, #0
   2127c:	4613      	mov	r3, r2
   2127e:	df04      	svc	4
   21280:	e013      	b.n	212aa <_ZN20complex_dynamic_type3app17h2285336856e512b4E+0x9e>
   21282:	a811      	add	r0, sp, #68	@ 0x44
   21284:	2103      	movs	r1, #3
   21286:	7001      	strb	r1, [r0, #0]
   21288:	4835      	ldr	r0, [pc, #212]	@ (21360 <_ZN20complex_dynamic_type3app17h2285336856e512b4E+0x154>)
   2128a:	2602      	movs	r6, #2
   2128c:	2208      	movs	r2, #8
   2128e:	2300      	movs	r3, #0
   21290:	4631      	mov	r1, r6
   21292:	9301      	str	r3, [sp, #4]
   21294:	df02      	svc	2
   21296:	2880      	cmp	r0, #128	@ 0x80
   21298:	d21b      	bcs.n	212d2 <_ZN20complex_dynamic_type3app17h2285336856e512b4E+0xc6>
   2129a:	2001      	movs	r0, #1
   2129c:	7028      	strb	r0, [r5, #0]
   2129e:	6069      	str	r1, [r5, #4]
   212a0:	482f      	ldr	r0, [pc, #188]	@ (21360 <_ZN20complex_dynamic_type3app17h2285336856e512b4E+0x154>)
   212a2:	2108      	movs	r1, #8
   212a4:	2200      	movs	r2, #0
   212a6:	4613      	mov	r3, r2
   212a8:	df03      	svc	3
   212aa:	a803      	add	r0, sp, #12
   212ac:	7800      	ldrb	r0, [r0, #0]
   212ae:	2802      	cmp	r0, #2
   212b0:	d047      	beq.n	21342 <_ZN20complex_dynamic_type3app17h2285336856e512b4E+0x136>
   212b2:	2804      	cmp	r0, #4
   212b4:	d106      	bne.n	212c4 <_ZN20complex_dynamic_type3app17h2285336856e512b4E+0xb8>
   212b6:	482a      	ldr	r0, [pc, #168]	@ (21360 <_ZN20complex_dynamic_type3app17h2285336856e512b4E+0x154>)
   212b8:	2102      	movs	r1, #2
   212ba:	2200      	movs	r2, #0
   212bc:	4613      	mov	r3, r2
   212be:	df04      	svc	4
   212c0:	b01d      	add	sp, #116	@ 0x74
   212c2:	bdf0      	pop	{r4, r5, r6, r7, pc}
   212c4:	4826      	ldr	r0, [pc, #152]	@ (21360 <_ZN20complex_dynamic_type3app17h2285336856e512b4E+0x154>)
   212c6:	2102      	movs	r1, #2
   212c8:	2200      	movs	r2, #0
   212ca:	4613      	mov	r3, r2
   212cc:	df03      	svc	3
   212ce:	b01d      	add	sp, #116	@ 0x74
   212d0:	bdf0      	pop	{r4, r5, r6, r7, pc}
   212d2:	a803      	add	r0, sp, #12
   212d4:	7800      	ldrb	r0, [r0, #0]
   212d6:	2802      	cmp	r0, #2
   212d8:	d00c      	beq.n	212f4 <_ZN20complex_dynamic_type3app17h2285336856e512b4E+0xe8>
   212da:	2803      	cmp	r0, #3
   212dc:	d105      	bne.n	212ea <_ZN20complex_dynamic_type3app17h2285336856e512b4E+0xde>
   212de:	4820      	ldr	r0, [pc, #128]	@ (21360 <_ZN20complex_dynamic_type3app17h2285336856e512b4E+0x154>)
   212e0:	2102      	movs	r1, #2
   212e2:	2200      	movs	r2, #0
   212e4:	4613      	mov	r3, r2
   212e6:	df03      	svc	3
   212e8:	e004      	b.n	212f4 <_ZN20complex_dynamic_type3app17h2285336856e512b4E+0xe8>
   212ea:	481d      	ldr	r0, [pc, #116]	@ (21360 <_ZN20complex_dynamic_type3app17h2285336856e512b4E+0x154>)
   212ec:	2102      	movs	r1, #2
   212ee:	2200      	movs	r2, #0
   212f0:	4613      	mov	r3, r2
   212f2:	df04      	svc	4
   212f4:	a803      	add	r0, sp, #12
   212f6:	7006      	strb	r6, [r0, #0]
   212f8:	a811      	add	r0, sp, #68	@ 0x44
   212fa:	7800      	ldrb	r0, [r0, #0]
   212fc:	2804      	cmp	r0, #4
   212fe:	d008      	beq.n	21312 <_ZN20complex_dynamic_type3app17h2285336856e512b4E+0x106>
   21300:	2803      	cmp	r0, #3
   21302:	d120      	bne.n	21346 <_ZN20complex_dynamic_type3app17h2285336856e512b4E+0x13a>
   21304:	4626      	mov	r6, r4
   21306:	4816      	ldr	r0, [pc, #88]	@ (21360 <_ZN20complex_dynamic_type3app17h2285336856e512b4E+0x154>)
   21308:	2108      	movs	r1, #8
   2130a:	2200      	movs	r2, #0
   2130c:	4613      	mov	r3, r2
   2130e:	df03      	svc	3
   21310:	e005      	b.n	2131e <_ZN20complex_dynamic_type3app17h2285336856e512b4E+0x112>
   21312:	4626      	mov	r6, r4
   21314:	4812      	ldr	r0, [pc, #72]	@ (21360 <_ZN20complex_dynamic_type3app17h2285336856e512b4E+0x154>)
   21316:	2108      	movs	r1, #8
   21318:	2200      	movs	r2, #0
   2131a:	4613      	mov	r3, r2
   2131c:	df04      	svc	4
   2131e:	a803      	add	r0, sp, #12
   21320:	7804      	ldrb	r4, [r0, #0]
   21322:	1c68      	adds	r0, r5, #1
   21324:	222e      	movs	r2, #46	@ 0x2e
   21326:	4631      	mov	r1, r6
   21328:	f009 feee 	bl	2b108 <__aeabi_memcpy>
   2132c:	9801      	ldr	r0, [sp, #4]
   2132e:	7028      	strb	r0, [r5, #0]
   21330:	2c02      	cmp	r4, #2
   21332:	d006      	beq.n	21342 <_ZN20complex_dynamic_type3app17h2285336856e512b4E+0x136>
   21334:	480a      	ldr	r0, [pc, #40]	@ (21360 <_ZN20complex_dynamic_type3app17h2285336856e512b4E+0x154>)
   21336:	2102      	movs	r1, #2
   21338:	2200      	movs	r2, #0
   2133a:	4613      	mov	r3, r2
   2133c:	2c04      	cmp	r4, #4
   2133e:	d10b      	bne.n	21358 <_ZN20complex_dynamic_type3app17h2285336856e512b4E+0x14c>
   21340:	df04      	svc	4
   21342:	b01d      	add	sp, #116	@ 0x74
   21344:	bdf0      	pop	{r4, r5, r6, r7, pc}
   21346:	1c68      	adds	r0, r5, #1
   21348:	222e      	movs	r2, #46	@ 0x2e
   2134a:	4621      	mov	r1, r4
   2134c:	f009 fedc 	bl	2b108 <__aeabi_memcpy>
   21350:	9801      	ldr	r0, [sp, #4]
   21352:	7028      	strb	r0, [r5, #0]
   21354:	b01d      	add	sp, #116	@ 0x74
   21356:	bdf0      	pop	{r4, r5, r6, r7, pc}
   21358:	df03      	svc	3
   2135a:	b01d      	add	sp, #116	@ 0x74
   2135c:	bdf0      	pop	{r4, r5, r6, r7, pc}
   2135e:	46c0      	nop			@ (mov r8, r8)
   21360:	00000209 	.word	0x00000209

00021364 <_ZN20complex_dynamic_type3app17h254b5270e2634860E>:
   21364:	b5f0      	push	{r4, r5, r6, r7, lr}
   21366:	af03      	add	r7, sp, #12
   21368:	b0a5      	sub	sp, #148	@ 0x94
   2136a:	9004      	str	r0, [sp, #16]
   2136c:	a805      	add	r0, sp, #20
   2136e:	2402      	movs	r4, #2
   21370:	7004      	strb	r4, [r0, #0]
   21372:	1c46      	adds	r6, r0, #1
   21374:	221c      	movs	r2, #28
   21376:	9203      	str	r2, [sp, #12]
   21378:	4630      	mov	r0, r6
   2137a:	f009 fec5 	bl	2b108 <__aeabi_memcpy>
   2137e:	ad0d      	add	r5, sp, #52	@ 0x34
   21380:	1c68      	adds	r0, r5, #1
   21382:	215d      	movs	r1, #93	@ 0x5d
   21384:	9002      	str	r0, [sp, #8]
   21386:	f009 fcff 	bl	2ad88 <__aeabi_memclr>
   2138a:	9401      	str	r4, [sp, #4]
   2138c:	702c      	strb	r4, [r5, #0]
   2138e:	4848      	ldr	r0, [pc, #288]	@ (214b0 <_ZN20complex_dynamic_type3app17h254b5270e2634860E+0x14c>)
   21390:	2108      	movs	r1, #8
   21392:	4632      	mov	r2, r6
   21394:	9b03      	ldr	r3, [sp, #12]
   21396:	df04      	svc	4
   21398:	2802      	cmp	r0, #2
   2139a:	d104      	bne.n	213a6 <_ZN20complex_dynamic_type3app17h254b5270e2634860E+0x42>
   2139c:	2001      	movs	r0, #1
   2139e:	9a04      	ldr	r2, [sp, #16]
   213a0:	7010      	strb	r0, [r2, #0]
   213a2:	6051      	str	r1, [r2, #4]
   213a4:	e02d      	b.n	21402 <_ZN20complex_dynamic_type3app17h254b5270e2634860E+0x9e>
   213a6:	9d04      	ldr	r5, [sp, #16]
   213a8:	a805      	add	r0, sp, #20
   213aa:	2104      	movs	r1, #4
   213ac:	7001      	strb	r1, [r0, #0]
   213ae:	4840      	ldr	r0, [pc, #256]	@ (214b0 <_ZN20complex_dynamic_type3app17h254b5270e2634860E+0x14c>)
   213b0:	2105      	movs	r1, #5
   213b2:	235d      	movs	r3, #93	@ 0x5d
   213b4:	9c02      	ldr	r4, [sp, #8]
   213b6:	4622      	mov	r2, r4
   213b8:	df03      	svc	3
   213ba:	2802      	cmp	r0, #2
   213bc:	d10e      	bne.n	213dc <_ZN20complex_dynamic_type3app17h254b5270e2634860E+0x78>
   213be:	2001      	movs	r0, #1
   213c0:	7028      	strb	r0, [r5, #0]
   213c2:	6069      	str	r1, [r5, #4]
   213c4:	a80d      	add	r0, sp, #52	@ 0x34
   213c6:	7800      	ldrb	r0, [r0, #0]
   213c8:	2802      	cmp	r0, #2
   213ca:	d01a      	beq.n	21402 <_ZN20complex_dynamic_type3app17h254b5270e2634860E+0x9e>
   213cc:	2803      	cmp	r0, #3
   213ce:	d013      	beq.n	213f8 <_ZN20complex_dynamic_type3app17h254b5270e2634860E+0x94>
   213d0:	4837      	ldr	r0, [pc, #220]	@ (214b0 <_ZN20complex_dynamic_type3app17h254b5270e2634860E+0x14c>)
   213d2:	2105      	movs	r1, #5
   213d4:	2200      	movs	r2, #0
   213d6:	4613      	mov	r3, r2
   213d8:	df04      	svc	4
   213da:	e012      	b.n	21402 <_ZN20complex_dynamic_type3app17h254b5270e2634860E+0x9e>
   213dc:	a80d      	add	r0, sp, #52	@ 0x34
   213de:	2103      	movs	r1, #3
   213e0:	7001      	strb	r1, [r0, #0]
   213e2:	4833      	ldr	r0, [pc, #204]	@ (214b0 <_ZN20complex_dynamic_type3app17h254b5270e2634860E+0x14c>)
   213e4:	2108      	movs	r1, #8
   213e6:	2205      	movs	r2, #5
   213e8:	2600      	movs	r6, #0
   213ea:	4633      	mov	r3, r6
   213ec:	df02      	svc	2
   213ee:	2880      	cmp	r0, #128	@ 0x80
   213f0:	d21b      	bcs.n	2142a <_ZN20complex_dynamic_type3app17h254b5270e2634860E+0xc6>
   213f2:	2001      	movs	r0, #1
   213f4:	7028      	strb	r0, [r5, #0]
   213f6:	6069      	str	r1, [r5, #4]
   213f8:	482d      	ldr	r0, [pc, #180]	@ (214b0 <_ZN20complex_dynamic_type3app17h254b5270e2634860E+0x14c>)
   213fa:	2105      	movs	r1, #5
   213fc:	2200      	movs	r2, #0
   213fe:	4613      	mov	r3, r2
   21400:	df03      	svc	3
   21402:	a805      	add	r0, sp, #20
   21404:	7800      	ldrb	r0, [r0, #0]
   21406:	2802      	cmp	r0, #2
   21408:	d045      	beq.n	21496 <_ZN20complex_dynamic_type3app17h254b5270e2634860E+0x132>
   2140a:	2804      	cmp	r0, #4
   2140c:	d106      	bne.n	2141c <_ZN20complex_dynamic_type3app17h254b5270e2634860E+0xb8>
   2140e:	4828      	ldr	r0, [pc, #160]	@ (214b0 <_ZN20complex_dynamic_type3app17h254b5270e2634860E+0x14c>)
   21410:	2108      	movs	r1, #8
   21412:	2200      	movs	r2, #0
   21414:	4613      	mov	r3, r2
   21416:	df04      	svc	4
   21418:	b025      	add	sp, #148	@ 0x94
   2141a:	bdf0      	pop	{r4, r5, r6, r7, pc}
   2141c:	4824      	ldr	r0, [pc, #144]	@ (214b0 <_ZN20complex_dynamic_type3app17h254b5270e2634860E+0x14c>)
   2141e:	2108      	movs	r1, #8
   21420:	2200      	movs	r2, #0
   21422:	4613      	mov	r3, r2
   21424:	df03      	svc	3
   21426:	b025      	add	sp, #148	@ 0x94
   21428:	bdf0      	pop	{r4, r5, r6, r7, pc}
   2142a:	a805      	add	r0, sp, #20
   2142c:	7800      	ldrb	r0, [r0, #0]
   2142e:	2802      	cmp	r0, #2
   21430:	d00c      	beq.n	2144c <_ZN20complex_dynamic_type3app17h254b5270e2634860E+0xe8>
   21432:	2803      	cmp	r0, #3
   21434:	d105      	bne.n	21442 <_ZN20complex_dynamic_type3app17h254b5270e2634860E+0xde>
   21436:	481e      	ldr	r0, [pc, #120]	@ (214b0 <_ZN20complex_dynamic_type3app17h254b5270e2634860E+0x14c>)
   21438:	2108      	movs	r1, #8
   2143a:	2200      	movs	r2, #0
   2143c:	4613      	mov	r3, r2
   2143e:	df03      	svc	3
   21440:	e004      	b.n	2144c <_ZN20complex_dynamic_type3app17h254b5270e2634860E+0xe8>
   21442:	481b      	ldr	r0, [pc, #108]	@ (214b0 <_ZN20complex_dynamic_type3app17h254b5270e2634860E+0x14c>)
   21444:	2108      	movs	r1, #8
   21446:	2200      	movs	r2, #0
   21448:	4613      	mov	r3, r2
   2144a:	df04      	svc	4
   2144c:	a805      	add	r0, sp, #20
   2144e:	9901      	ldr	r1, [sp, #4]
   21450:	7001      	strb	r1, [r0, #0]
   21452:	a80d      	add	r0, sp, #52	@ 0x34
   21454:	7800      	ldrb	r0, [r0, #0]
   21456:	2804      	cmp	r0, #4
   21458:	d007      	beq.n	2146a <_ZN20complex_dynamic_type3app17h254b5270e2634860E+0x106>
   2145a:	2803      	cmp	r0, #3
   2145c:	d11d      	bne.n	2149a <_ZN20complex_dynamic_type3app17h254b5270e2634860E+0x136>
   2145e:	4814      	ldr	r0, [pc, #80]	@ (214b0 <_ZN20complex_dynamic_type3app17h254b5270e2634860E+0x14c>)
   21460:	2105      	movs	r1, #5
   21462:	2200      	movs	r2, #0
   21464:	4613      	mov	r3, r2
   21466:	df03      	svc	3
   21468:	e004      	b.n	21474 <_ZN20complex_dynamic_type3app17h254b5270e2634860E+0x110>
   2146a:	4811      	ldr	r0, [pc, #68]	@ (214b0 <_ZN20complex_dynamic_type3app17h254b5270e2634860E+0x14c>)
   2146c:	2105      	movs	r1, #5
   2146e:	2200      	movs	r2, #0
   21470:	4613      	mov	r3, r2
   21472:	df04      	svc	4
   21474:	a805      	add	r0, sp, #20
   21476:	7804      	ldrb	r4, [r0, #0]
   21478:	1c68      	adds	r0, r5, #1
   2147a:	225d      	movs	r2, #93	@ 0x5d
   2147c:	9902      	ldr	r1, [sp, #8]
   2147e:	f009 fe43 	bl	2b108 <__aeabi_memcpy>
   21482:	702e      	strb	r6, [r5, #0]
   21484:	2c02      	cmp	r4, #2
   21486:	d006      	beq.n	21496 <_ZN20complex_dynamic_type3app17h254b5270e2634860E+0x132>
   21488:	4809      	ldr	r0, [pc, #36]	@ (214b0 <_ZN20complex_dynamic_type3app17h254b5270e2634860E+0x14c>)
   2148a:	2108      	movs	r1, #8
   2148c:	2200      	movs	r2, #0
   2148e:	4613      	mov	r3, r2
   21490:	2c04      	cmp	r4, #4
   21492:	d10a      	bne.n	214aa <_ZN20complex_dynamic_type3app17h254b5270e2634860E+0x146>
   21494:	df04      	svc	4
   21496:	b025      	add	sp, #148	@ 0x94
   21498:	bdf0      	pop	{r4, r5, r6, r7, pc}
   2149a:	1c68      	adds	r0, r5, #1
   2149c:	225d      	movs	r2, #93	@ 0x5d
   2149e:	4621      	mov	r1, r4
   214a0:	f009 fe32 	bl	2b108 <__aeabi_memcpy>
   214a4:	702e      	strb	r6, [r5, #0]
   214a6:	b025      	add	sp, #148	@ 0x94
   214a8:	bdf0      	pop	{r4, r5, r6, r7, pc}
   214aa:	df03      	svc	3
   214ac:	b025      	add	sp, #148	@ 0x94
   214ae:	bdf0      	pop	{r4, r5, r6, r7, pc}
   214b0:	00000c3e 	.word	0x00000c3e

000214b4 <_ZN20complex_dynamic_type3app17h2734fbcaba170f56E>:
   214b4:	b5f0      	push	{r4, r5, r6, r7, lr}
   214b6:	af03      	add	r7, sp, #12
   214b8:	b0b3      	sub	sp, #204	@ 0xcc
   214ba:	9004      	str	r0, [sp, #16]
   214bc:	a805      	add	r0, sp, #20
   214be:	2402      	movs	r4, #2
   214c0:	7004      	strb	r4, [r0, #0]
   214c2:	1c46      	adds	r6, r0, #1
   214c4:	225e      	movs	r2, #94	@ 0x5e
   214c6:	9203      	str	r2, [sp, #12]
   214c8:	4630      	mov	r0, r6
   214ca:	f009 fe1d 	bl	2b108 <__aeabi_memcpy>
   214ce:	ad1d      	add	r5, sp, #116	@ 0x74
   214d0:	1c68      	adds	r0, r5, #1
   214d2:	2155      	movs	r1, #85	@ 0x55
   214d4:	9002      	str	r0, [sp, #8]
   214d6:	f009 fc57 	bl	2ad88 <__aeabi_memclr>
   214da:	9401      	str	r4, [sp, #4]
   214dc:	702c      	strb	r4, [r5, #0]
   214de:	4848      	ldr	r0, [pc, #288]	@ (21600 <_ZN20complex_dynamic_type3app17h2734fbcaba170f56E+0x14c>)
   214e0:	2107      	movs	r1, #7
   214e2:	4632      	mov	r2, r6
   214e4:	9b03      	ldr	r3, [sp, #12]
   214e6:	df04      	svc	4
   214e8:	2802      	cmp	r0, #2
   214ea:	d104      	bne.n	214f6 <_ZN20complex_dynamic_type3app17h2734fbcaba170f56E+0x42>
   214ec:	2001      	movs	r0, #1
   214ee:	9a04      	ldr	r2, [sp, #16]
   214f0:	7010      	strb	r0, [r2, #0]
   214f2:	6051      	str	r1, [r2, #4]
   214f4:	e02c      	b.n	21550 <_ZN20complex_dynamic_type3app17h2734fbcaba170f56E+0x9c>
   214f6:	9d04      	ldr	r5, [sp, #16]
   214f8:	a805      	add	r0, sp, #20
   214fa:	2104      	movs	r1, #4
   214fc:	7001      	strb	r1, [r0, #0]
   214fe:	4840      	ldr	r0, [pc, #256]	@ (21600 <_ZN20complex_dynamic_type3app17h2734fbcaba170f56E+0x14c>)
   21500:	2403      	movs	r4, #3
   21502:	2355      	movs	r3, #85	@ 0x55
   21504:	4621      	mov	r1, r4
   21506:	9a02      	ldr	r2, [sp, #8]
   21508:	df03      	svc	3
   2150a:	2802      	cmp	r0, #2
   2150c:	d10e      	bne.n	2152c <_ZN20complex_dynamic_type3app17h2734fbcaba170f56E+0x78>
   2150e:	2001      	movs	r0, #1
   21510:	7028      	strb	r0, [r5, #0]
   21512:	6069      	str	r1, [r5, #4]
   21514:	a81d      	add	r0, sp, #116	@ 0x74
   21516:	7800      	ldrb	r0, [r0, #0]
   21518:	2802      	cmp	r0, #2
   2151a:	d019      	beq.n	21550 <_ZN20complex_dynamic_type3app17h2734fbcaba170f56E+0x9c>
   2151c:	2803      	cmp	r0, #3
   2151e:	d012      	beq.n	21546 <_ZN20complex_dynamic_type3app17h2734fbcaba170f56E+0x92>
   21520:	4837      	ldr	r0, [pc, #220]	@ (21600 <_ZN20complex_dynamic_type3app17h2734fbcaba170f56E+0x14c>)
   21522:	2103      	movs	r1, #3
   21524:	2200      	movs	r2, #0
   21526:	4613      	mov	r3, r2
   21528:	df04      	svc	4
   2152a:	e011      	b.n	21550 <_ZN20complex_dynamic_type3app17h2734fbcaba170f56E+0x9c>
   2152c:	a81d      	add	r0, sp, #116	@ 0x74
   2152e:	7004      	strb	r4, [r0, #0]
   21530:	4833      	ldr	r0, [pc, #204]	@ (21600 <_ZN20complex_dynamic_type3app17h2734fbcaba170f56E+0x14c>)
   21532:	2107      	movs	r1, #7
   21534:	2600      	movs	r6, #0
   21536:	4622      	mov	r2, r4
   21538:	4633      	mov	r3, r6
   2153a:	df02      	svc	2
   2153c:	2880      	cmp	r0, #128	@ 0x80
   2153e:	d21b      	bcs.n	21578 <_ZN20complex_dynamic_type3app17h2734fbcaba170f56E+0xc4>
   21540:	2001      	movs	r0, #1
   21542:	7028      	strb	r0, [r5, #0]
   21544:	6069      	str	r1, [r5, #4]
   21546:	482e      	ldr	r0, [pc, #184]	@ (21600 <_ZN20complex_dynamic_type3app17h2734fbcaba170f56E+0x14c>)
   21548:	2103      	movs	r1, #3
   2154a:	2200      	movs	r2, #0
   2154c:	4613      	mov	r3, r2
   2154e:	df03      	svc	3
   21550:	a805      	add	r0, sp, #20
   21552:	7800      	ldrb	r0, [r0, #0]
   21554:	2802      	cmp	r0, #2
   21556:	d045      	beq.n	215e4 <_ZN20complex_dynamic_type3app17h2734fbcaba170f56E+0x130>
   21558:	2804      	cmp	r0, #4
   2155a:	d106      	bne.n	2156a <_ZN20complex_dynamic_type3app17h2734fbcaba170f56E+0xb6>
   2155c:	4828      	ldr	r0, [pc, #160]	@ (21600 <_ZN20complex_dynamic_type3app17h2734fbcaba170f56E+0x14c>)
   2155e:	2107      	movs	r1, #7
   21560:	2200      	movs	r2, #0
   21562:	4613      	mov	r3, r2
   21564:	df04      	svc	4
   21566:	b033      	add	sp, #204	@ 0xcc
   21568:	bdf0      	pop	{r4, r5, r6, r7, pc}
   2156a:	4825      	ldr	r0, [pc, #148]	@ (21600 <_ZN20complex_dynamic_type3app17h2734fbcaba170f56E+0x14c>)
   2156c:	2107      	movs	r1, #7
   2156e:	2200      	movs	r2, #0
   21570:	4613      	mov	r3, r2
   21572:	df03      	svc	3
   21574:	b033      	add	sp, #204	@ 0xcc
   21576:	bdf0      	pop	{r4, r5, r6, r7, pc}
   21578:	a805      	add	r0, sp, #20
   2157a:	7800      	ldrb	r0, [r0, #0]
   2157c:	2802      	cmp	r0, #2
   2157e:	d00c      	beq.n	2159a <_ZN20complex_dynamic_type3app17h2734fbcaba170f56E+0xe6>
   21580:	2803      	cmp	r0, #3
   21582:	d105      	bne.n	21590 <_ZN20complex_dynamic_type3app17h2734fbcaba170f56E+0xdc>
   21584:	481e      	ldr	r0, [pc, #120]	@ (21600 <_ZN20complex_dynamic_type3app17h2734fbcaba170f56E+0x14c>)
   21586:	2107      	movs	r1, #7
   21588:	2200      	movs	r2, #0
   2158a:	4613      	mov	r3, r2
   2158c:	df03      	svc	3
   2158e:	e004      	b.n	2159a <_ZN20complex_dynamic_type3app17h2734fbcaba170f56E+0xe6>
   21590:	481b      	ldr	r0, [pc, #108]	@ (21600 <_ZN20complex_dynamic_type3app17h2734fbcaba170f56E+0x14c>)
   21592:	2107      	movs	r1, #7
   21594:	2200      	movs	r2, #0
   21596:	4613      	mov	r3, r2
   21598:	df04      	svc	4
   2159a:	a805      	add	r0, sp, #20
   2159c:	9901      	ldr	r1, [sp, #4]
   2159e:	7001      	strb	r1, [r0, #0]
   215a0:	a81d      	add	r0, sp, #116	@ 0x74
   215a2:	7800      	ldrb	r0, [r0, #0]
   215a4:	2804      	cmp	r0, #4
   215a6:	d007      	beq.n	215b8 <_ZN20complex_dynamic_type3app17h2734fbcaba170f56E+0x104>
   215a8:	2803      	cmp	r0, #3
   215aa:	d11d      	bne.n	215e8 <_ZN20complex_dynamic_type3app17h2734fbcaba170f56E+0x134>
   215ac:	4814      	ldr	r0, [pc, #80]	@ (21600 <_ZN20complex_dynamic_type3app17h2734fbcaba170f56E+0x14c>)
   215ae:	2103      	movs	r1, #3
   215b0:	2200      	movs	r2, #0
   215b2:	4613      	mov	r3, r2
   215b4:	df03      	svc	3
   215b6:	e004      	b.n	215c2 <_ZN20complex_dynamic_type3app17h2734fbcaba170f56E+0x10e>
   215b8:	4811      	ldr	r0, [pc, #68]	@ (21600 <_ZN20complex_dynamic_type3app17h2734fbcaba170f56E+0x14c>)
   215ba:	2103      	movs	r1, #3
   215bc:	2200      	movs	r2, #0
   215be:	4613      	mov	r3, r2
   215c0:	df04      	svc	4
   215c2:	a805      	add	r0, sp, #20
   215c4:	7804      	ldrb	r4, [r0, #0]
   215c6:	1c68      	adds	r0, r5, #1
   215c8:	2255      	movs	r2, #85	@ 0x55
   215ca:	9902      	ldr	r1, [sp, #8]
   215cc:	f009 fd9c 	bl	2b108 <__aeabi_memcpy>
   215d0:	702e      	strb	r6, [r5, #0]
   215d2:	2c02      	cmp	r4, #2
   215d4:	d006      	beq.n	215e4 <_ZN20complex_dynamic_type3app17h2734fbcaba170f56E+0x130>
   215d6:	480a      	ldr	r0, [pc, #40]	@ (21600 <_ZN20complex_dynamic_type3app17h2734fbcaba170f56E+0x14c>)
   215d8:	2107      	movs	r1, #7
   215da:	2200      	movs	r2, #0
   215dc:	4613      	mov	r3, r2
   215de:	2c04      	cmp	r4, #4
   215e0:	d10a      	bne.n	215f8 <_ZN20complex_dynamic_type3app17h2734fbcaba170f56E+0x144>
   215e2:	df04      	svc	4
   215e4:	b033      	add	sp, #204	@ 0xcc
   215e6:	bdf0      	pop	{r4, r5, r6, r7, pc}
   215e8:	1c68      	adds	r0, r5, #1
   215ea:	2255      	movs	r2, #85	@ 0x55
   215ec:	9902      	ldr	r1, [sp, #8]
   215ee:	f009 fd8b 	bl	2b108 <__aeabi_memcpy>
   215f2:	702e      	strb	r6, [r5, #0]
   215f4:	b033      	add	sp, #204	@ 0xcc
   215f6:	bdf0      	pop	{r4, r5, r6, r7, pc}
   215f8:	df03      	svc	3
   215fa:	b033      	add	sp, #204	@ 0xcc
   215fc:	bdf0      	pop	{r4, r5, r6, r7, pc}
   215fe:	46c0      	nop			@ (mov r8, r8)
   21600:	0000178a 	.word	0x0000178a

00021604 <_ZN20complex_dynamic_type3app17h2d46b2858bb2be2dE>:
   21604:	b5f0      	push	{r4, r5, r6, r7, lr}
   21606:	af03      	add	r7, sp, #12
   21608:	b097      	sub	sp, #92	@ 0x5c
   2160a:	9003      	str	r0, [sp, #12]
   2160c:	a804      	add	r0, sp, #16
   2160e:	2402      	movs	r4, #2
   21610:	7004      	strb	r4, [r0, #0]
   21612:	1c40      	adds	r0, r0, #1
   21614:	9002      	str	r0, [sp, #8]
   21616:	2510      	movs	r5, #16
   21618:	462a      	mov	r2, r5
   2161a:	f009 fd75 	bl	2b108 <__aeabi_memcpy>
   2161e:	ae09      	add	r6, sp, #36	@ 0x24
   21620:	1c70      	adds	r0, r6, #1
   21622:	2136      	movs	r1, #54	@ 0x36
   21624:	9001      	str	r0, [sp, #4]
   21626:	f009 fbaf 	bl	2ad88 <__aeabi_memclr>
   2162a:	9400      	str	r4, [sp, #0]
   2162c:	7034      	strb	r4, [r6, #0]
   2162e:	4847      	ldr	r0, [pc, #284]	@ (2174c <_ZN20complex_dynamic_type3app17h2d46b2858bb2be2dE+0x148>)
   21630:	2601      	movs	r6, #1
   21632:	4631      	mov	r1, r6
   21634:	9a02      	ldr	r2, [sp, #8]
   21636:	462b      	mov	r3, r5
   21638:	df04      	svc	4
   2163a:	2802      	cmp	r0, #2
   2163c:	d103      	bne.n	21646 <_ZN20complex_dynamic_type3app17h2d46b2858bb2be2dE+0x42>
   2163e:	9803      	ldr	r0, [sp, #12]
   21640:	7006      	strb	r6, [r0, #0]
   21642:	6041      	str	r1, [r0, #4]
   21644:	e02b      	b.n	2169e <_ZN20complex_dynamic_type3app17h2d46b2858bb2be2dE+0x9a>
   21646:	9d03      	ldr	r5, [sp, #12]
   21648:	a804      	add	r0, sp, #16
   2164a:	2104      	movs	r1, #4
   2164c:	7001      	strb	r1, [r0, #0]
   2164e:	483f      	ldr	r0, [pc, #252]	@ (2174c <_ZN20complex_dynamic_type3app17h2d46b2858bb2be2dE+0x148>)
   21650:	2107      	movs	r1, #7
   21652:	2336      	movs	r3, #54	@ 0x36
   21654:	9a01      	ldr	r2, [sp, #4]
   21656:	df03      	svc	3
   21658:	2802      	cmp	r0, #2
   2165a:	d10d      	bne.n	21678 <_ZN20complex_dynamic_type3app17h2d46b2858bb2be2dE+0x74>
   2165c:	702e      	strb	r6, [r5, #0]
   2165e:	6069      	str	r1, [r5, #4]
   21660:	a809      	add	r0, sp, #36	@ 0x24
   21662:	7800      	ldrb	r0, [r0, #0]
   21664:	2802      	cmp	r0, #2
   21666:	d01a      	beq.n	2169e <_ZN20complex_dynamic_type3app17h2d46b2858bb2be2dE+0x9a>
   21668:	2803      	cmp	r0, #3
   2166a:	d013      	beq.n	21694 <_ZN20complex_dynamic_type3app17h2d46b2858bb2be2dE+0x90>
   2166c:	4837      	ldr	r0, [pc, #220]	@ (2174c <_ZN20complex_dynamic_type3app17h2d46b2858bb2be2dE+0x148>)
   2166e:	2107      	movs	r1, #7
   21670:	2200      	movs	r2, #0
   21672:	4613      	mov	r3, r2
   21674:	df04      	svc	4
   21676:	e012      	b.n	2169e <_ZN20complex_dynamic_type3app17h2d46b2858bb2be2dE+0x9a>
   21678:	a809      	add	r0, sp, #36	@ 0x24
   2167a:	2103      	movs	r1, #3
   2167c:	7001      	strb	r1, [r0, #0]
   2167e:	4833      	ldr	r0, [pc, #204]	@ (2174c <_ZN20complex_dynamic_type3app17h2d46b2858bb2be2dE+0x148>)
   21680:	2401      	movs	r4, #1
   21682:	2207      	movs	r2, #7
   21684:	2600      	movs	r6, #0
   21686:	4621      	mov	r1, r4
   21688:	4633      	mov	r3, r6
   2168a:	df02      	svc	2
   2168c:	2880      	cmp	r0, #128	@ 0x80
   2168e:	d21a      	bcs.n	216c6 <_ZN20complex_dynamic_type3app17h2d46b2858bb2be2dE+0xc2>
   21690:	702c      	strb	r4, [r5, #0]
   21692:	6069      	str	r1, [r5, #4]
   21694:	482d      	ldr	r0, [pc, #180]	@ (2174c <_ZN20complex_dynamic_type3app17h2d46b2858bb2be2dE+0x148>)
   21696:	2107      	movs	r1, #7
   21698:	2200      	movs	r2, #0
   2169a:	4613      	mov	r3, r2
   2169c:	df03      	svc	3
   2169e:	a804      	add	r0, sp, #16
   216a0:	7800      	ldrb	r0, [r0, #0]
   216a2:	2802      	cmp	r0, #2
   216a4:	d045      	beq.n	21732 <_ZN20complex_dynamic_type3app17h2d46b2858bb2be2dE+0x12e>
   216a6:	2804      	cmp	r0, #4
   216a8:	d106      	bne.n	216b8 <_ZN20complex_dynamic_type3app17h2d46b2858bb2be2dE+0xb4>
   216aa:	4828      	ldr	r0, [pc, #160]	@ (2174c <_ZN20complex_dynamic_type3app17h2d46b2858bb2be2dE+0x148>)
   216ac:	2101      	movs	r1, #1
   216ae:	2200      	movs	r2, #0
   216b0:	4613      	mov	r3, r2
   216b2:	df04      	svc	4
   216b4:	b017      	add	sp, #92	@ 0x5c
   216b6:	bdf0      	pop	{r4, r5, r6, r7, pc}
   216b8:	4824      	ldr	r0, [pc, #144]	@ (2174c <_ZN20complex_dynamic_type3app17h2d46b2858bb2be2dE+0x148>)
   216ba:	2101      	movs	r1, #1
   216bc:	2200      	movs	r2, #0
   216be:	4613      	mov	r3, r2
   216c0:	df03      	svc	3
   216c2:	b017      	add	sp, #92	@ 0x5c
   216c4:	bdf0      	pop	{r4, r5, r6, r7, pc}
   216c6:	a804      	add	r0, sp, #16
   216c8:	7800      	ldrb	r0, [r0, #0]
   216ca:	2802      	cmp	r0, #2
   216cc:	d00c      	beq.n	216e8 <_ZN20complex_dynamic_type3app17h2d46b2858bb2be2dE+0xe4>
   216ce:	2803      	cmp	r0, #3
   216d0:	d105      	bne.n	216de <_ZN20complex_dynamic_type3app17h2d46b2858bb2be2dE+0xda>
   216d2:	481e      	ldr	r0, [pc, #120]	@ (2174c <_ZN20complex_dynamic_type3app17h2d46b2858bb2be2dE+0x148>)
   216d4:	2101      	movs	r1, #1
   216d6:	2200      	movs	r2, #0
   216d8:	4613      	mov	r3, r2
   216da:	df03      	svc	3
   216dc:	e004      	b.n	216e8 <_ZN20complex_dynamic_type3app17h2d46b2858bb2be2dE+0xe4>
   216de:	481b      	ldr	r0, [pc, #108]	@ (2174c <_ZN20complex_dynamic_type3app17h2d46b2858bb2be2dE+0x148>)
   216e0:	2101      	movs	r1, #1
   216e2:	2200      	movs	r2, #0
   216e4:	4613      	mov	r3, r2
   216e6:	df04      	svc	4
   216e8:	a804      	add	r0, sp, #16
   216ea:	9900      	ldr	r1, [sp, #0]
   216ec:	7001      	strb	r1, [r0, #0]
   216ee:	a809      	add	r0, sp, #36	@ 0x24
   216f0:	7800      	ldrb	r0, [r0, #0]
   216f2:	2804      	cmp	r0, #4
   216f4:	d007      	beq.n	21706 <_ZN20complex_dynamic_type3app17h2d46b2858bb2be2dE+0x102>
   216f6:	2803      	cmp	r0, #3
   216f8:	d11d      	bne.n	21736 <_ZN20complex_dynamic_type3app17h2d46b2858bb2be2dE+0x132>
   216fa:	4814      	ldr	r0, [pc, #80]	@ (2174c <_ZN20complex_dynamic_type3app17h2d46b2858bb2be2dE+0x148>)
   216fc:	2107      	movs	r1, #7
   216fe:	2200      	movs	r2, #0
   21700:	4613      	mov	r3, r2
   21702:	df03      	svc	3
   21704:	e004      	b.n	21710 <_ZN20complex_dynamic_type3app17h2d46b2858bb2be2dE+0x10c>
   21706:	4811      	ldr	r0, [pc, #68]	@ (2174c <_ZN20complex_dynamic_type3app17h2d46b2858bb2be2dE+0x148>)
   21708:	2107      	movs	r1, #7
   2170a:	2200      	movs	r2, #0
   2170c:	4613      	mov	r3, r2
   2170e:	df04      	svc	4
   21710:	a804      	add	r0, sp, #16
   21712:	7804      	ldrb	r4, [r0, #0]
   21714:	1c68      	adds	r0, r5, #1
   21716:	2236      	movs	r2, #54	@ 0x36
   21718:	9901      	ldr	r1, [sp, #4]
   2171a:	f009 fcf5 	bl	2b108 <__aeabi_memcpy>
   2171e:	702e      	strb	r6, [r5, #0]
   21720:	2c02      	cmp	r4, #2
   21722:	d006      	beq.n	21732 <_ZN20complex_dynamic_type3app17h2d46b2858bb2be2dE+0x12e>
   21724:	4809      	ldr	r0, [pc, #36]	@ (2174c <_ZN20complex_dynamic_type3app17h2d46b2858bb2be2dE+0x148>)
   21726:	2101      	movs	r1, #1
   21728:	2200      	movs	r2, #0
   2172a:	4613      	mov	r3, r2
   2172c:	2c04      	cmp	r4, #4
   2172e:	d10a      	bne.n	21746 <_ZN20complex_dynamic_type3app17h2d46b2858bb2be2dE+0x142>
   21730:	df04      	svc	4
   21732:	b017      	add	sp, #92	@ 0x5c
   21734:	bdf0      	pop	{r4, r5, r6, r7, pc}
   21736:	9901      	ldr	r1, [sp, #4]
   21738:	1c68      	adds	r0, r5, #1
   2173a:	2236      	movs	r2, #54	@ 0x36
   2173c:	f009 fce4 	bl	2b108 <__aeabi_memcpy>
   21740:	702e      	strb	r6, [r5, #0]
   21742:	b017      	add	sp, #92	@ 0x5c
   21744:	bdf0      	pop	{r4, r5, r6, r7, pc}
   21746:	df03      	svc	3
   21748:	b017      	add	sp, #92	@ 0x5c
   2174a:	bdf0      	pop	{r4, r5, r6, r7, pc}
   2174c:	00001989 	.word	0x00001989

00021750 <_ZN20complex_dynamic_type3app17h2e62c25c67398d3aE>:
   21750:	b5f0      	push	{r4, r5, r6, r7, lr}
   21752:	af03      	add	r7, sp, #12
   21754:	b09b      	sub	sp, #108	@ 0x6c
   21756:	9003      	str	r0, [sp, #12]
   21758:	a804      	add	r0, sp, #16
   2175a:	2402      	movs	r4, #2
   2175c:	7004      	strb	r4, [r0, #0]
   2175e:	1c40      	adds	r0, r0, #1
   21760:	9002      	str	r0, [sp, #8]
   21762:	252c      	movs	r5, #44	@ 0x2c
   21764:	462a      	mov	r2, r5
   21766:	f009 fccf 	bl	2b108 <__aeabi_memcpy>
   2176a:	ae10      	add	r6, sp, #64	@ 0x40
   2176c:	1c70      	adds	r0, r6, #1
   2176e:	212a      	movs	r1, #42	@ 0x2a
   21770:	9001      	str	r0, [sp, #4]
   21772:	f009 fb09 	bl	2ad88 <__aeabi_memclr>
   21776:	9400      	str	r4, [sp, #0]
   21778:	7034      	strb	r4, [r6, #0]
   2177a:	484a      	ldr	r0, [pc, #296]	@ (218a4 <_ZN20complex_dynamic_type3app17h2e62c25c67398d3aE+0x154>)
   2177c:	2603      	movs	r6, #3
   2177e:	4631      	mov	r1, r6
   21780:	9a02      	ldr	r2, [sp, #8]
   21782:	462b      	mov	r3, r5
   21784:	df04      	svc	4
   21786:	2802      	cmp	r0, #2
   21788:	d104      	bne.n	21794 <_ZN20complex_dynamic_type3app17h2e62c25c67398d3aE+0x44>
   2178a:	2001      	movs	r0, #1
   2178c:	9a03      	ldr	r2, [sp, #12]
   2178e:	7010      	strb	r0, [r2, #0]
   21790:	6051      	str	r1, [r2, #4]
   21792:	e02c      	b.n	217ee <_ZN20complex_dynamic_type3app17h2e62c25c67398d3aE+0x9e>
   21794:	9d03      	ldr	r5, [sp, #12]
   21796:	a804      	add	r0, sp, #16
   21798:	2104      	movs	r1, #4
   2179a:	7001      	strb	r1, [r0, #0]
   2179c:	4841      	ldr	r0, [pc, #260]	@ (218a4 <_ZN20complex_dynamic_type3app17h2e62c25c67398d3aE+0x154>)
   2179e:	2100      	movs	r1, #0
   217a0:	232a      	movs	r3, #42	@ 0x2a
   217a2:	9c01      	ldr	r4, [sp, #4]
   217a4:	4622      	mov	r2, r4
   217a6:	df03      	svc	3
   217a8:	2802      	cmp	r0, #2
   217aa:	d10e      	bne.n	217ca <_ZN20complex_dynamic_type3app17h2e62c25c67398d3aE+0x7a>
   217ac:	2001      	movs	r0, #1
   217ae:	7028      	strb	r0, [r5, #0]
   217b0:	6069      	str	r1, [r5, #4]
   217b2:	a810      	add	r0, sp, #64	@ 0x40
   217b4:	7800      	ldrb	r0, [r0, #0]
   217b6:	2802      	cmp	r0, #2
   217b8:	d019      	beq.n	217ee <_ZN20complex_dynamic_type3app17h2e62c25c67398d3aE+0x9e>
   217ba:	2803      	cmp	r0, #3
   217bc:	d012      	beq.n	217e4 <_ZN20complex_dynamic_type3app17h2e62c25c67398d3aE+0x94>
   217be:	4839      	ldr	r0, [pc, #228]	@ (218a4 <_ZN20complex_dynamic_type3app17h2e62c25c67398d3aE+0x154>)
   217c0:	2100      	movs	r1, #0
   217c2:	460a      	mov	r2, r1
   217c4:	460b      	mov	r3, r1
   217c6:	df04      	svc	4
   217c8:	e011      	b.n	217ee <_ZN20complex_dynamic_type3app17h2e62c25c67398d3aE+0x9e>
   217ca:	a810      	add	r0, sp, #64	@ 0x40
   217cc:	7006      	strb	r6, [r0, #0]
   217ce:	4835      	ldr	r0, [pc, #212]	@ (218a4 <_ZN20complex_dynamic_type3app17h2e62c25c67398d3aE+0x154>)
   217d0:	2200      	movs	r2, #0
   217d2:	4631      	mov	r1, r6
   217d4:	9202      	str	r2, [sp, #8]
   217d6:	4613      	mov	r3, r2
   217d8:	df02      	svc	2
   217da:	2880      	cmp	r0, #128	@ 0x80
   217dc:	d21b      	bcs.n	21816 <_ZN20complex_dynamic_type3app17h2e62c25c67398d3aE+0xc6>
   217de:	2001      	movs	r0, #1
   217e0:	7028      	strb	r0, [r5, #0]
   217e2:	6069      	str	r1, [r5, #4]
   217e4:	482f      	ldr	r0, [pc, #188]	@ (218a4 <_ZN20complex_dynamic_type3app17h2e62c25c67398d3aE+0x154>)
   217e6:	2100      	movs	r1, #0
   217e8:	460a      	mov	r2, r1
   217ea:	460b      	mov	r3, r1
   217ec:	df03      	svc	3
   217ee:	a804      	add	r0, sp, #16
   217f0:	7800      	ldrb	r0, [r0, #0]
   217f2:	2802      	cmp	r0, #2
   217f4:	d048      	beq.n	21888 <_ZN20complex_dynamic_type3app17h2e62c25c67398d3aE+0x138>
   217f6:	2804      	cmp	r0, #4
   217f8:	d106      	bne.n	21808 <_ZN20complex_dynamic_type3app17h2e62c25c67398d3aE+0xb8>
   217fa:	482a      	ldr	r0, [pc, #168]	@ (218a4 <_ZN20complex_dynamic_type3app17h2e62c25c67398d3aE+0x154>)
   217fc:	2103      	movs	r1, #3
   217fe:	2200      	movs	r2, #0
   21800:	4613      	mov	r3, r2
   21802:	df04      	svc	4
   21804:	b01b      	add	sp, #108	@ 0x6c
   21806:	bdf0      	pop	{r4, r5, r6, r7, pc}
   21808:	4826      	ldr	r0, [pc, #152]	@ (218a4 <_ZN20complex_dynamic_type3app17h2e62c25c67398d3aE+0x154>)
   2180a:	2103      	movs	r1, #3
   2180c:	2200      	movs	r2, #0
   2180e:	4613      	mov	r3, r2
   21810:	df03      	svc	3
   21812:	b01b      	add	sp, #108	@ 0x6c
   21814:	bdf0      	pop	{r4, r5, r6, r7, pc}
   21816:	a804      	add	r0, sp, #16
   21818:	7800      	ldrb	r0, [r0, #0]
   2181a:	2802      	cmp	r0, #2
   2181c:	d00c      	beq.n	21838 <_ZN20complex_dynamic_type3app17h2e62c25c67398d3aE+0xe8>
   2181e:	2803      	cmp	r0, #3
   21820:	d105      	bne.n	2182e <_ZN20complex_dynamic_type3app17h2e62c25c67398d3aE+0xde>
   21822:	4820      	ldr	r0, [pc, #128]	@ (218a4 <_ZN20complex_dynamic_type3app17h2e62c25c67398d3aE+0x154>)
   21824:	2103      	movs	r1, #3
   21826:	2200      	movs	r2, #0
   21828:	4613      	mov	r3, r2
   2182a:	df03      	svc	3
   2182c:	e004      	b.n	21838 <_ZN20complex_dynamic_type3app17h2e62c25c67398d3aE+0xe8>
   2182e:	481d      	ldr	r0, [pc, #116]	@ (218a4 <_ZN20complex_dynamic_type3app17h2e62c25c67398d3aE+0x154>)
   21830:	2103      	movs	r1, #3
   21832:	2200      	movs	r2, #0
   21834:	4613      	mov	r3, r2
   21836:	df04      	svc	4
   21838:	a804      	add	r0, sp, #16
   2183a:	9900      	ldr	r1, [sp, #0]
   2183c:	7001      	strb	r1, [r0, #0]
   2183e:	a810      	add	r0, sp, #64	@ 0x40
   21840:	7800      	ldrb	r0, [r0, #0]
   21842:	2804      	cmp	r0, #4
   21844:	d008      	beq.n	21858 <_ZN20complex_dynamic_type3app17h2e62c25c67398d3aE+0x108>
   21846:	2803      	cmp	r0, #3
   21848:	d120      	bne.n	2188c <_ZN20complex_dynamic_type3app17h2e62c25c67398d3aE+0x13c>
   2184a:	4626      	mov	r6, r4
   2184c:	4815      	ldr	r0, [pc, #84]	@ (218a4 <_ZN20complex_dynamic_type3app17h2e62c25c67398d3aE+0x154>)
   2184e:	2100      	movs	r1, #0
   21850:	460a      	mov	r2, r1
   21852:	460b      	mov	r3, r1
   21854:	df03      	svc	3
   21856:	e005      	b.n	21864 <_ZN20complex_dynamic_type3app17h2e62c25c67398d3aE+0x114>
   21858:	4626      	mov	r6, r4
   2185a:	4812      	ldr	r0, [pc, #72]	@ (218a4 <_ZN20complex_dynamic_type3app17h2e62c25c67398d3aE+0x154>)
   2185c:	2100      	movs	r1, #0
   2185e:	460a      	mov	r2, r1
   21860:	460b      	mov	r3, r1
   21862:	df04      	svc	4
   21864:	a804      	add	r0, sp, #16
   21866:	7804      	ldrb	r4, [r0, #0]
   21868:	1c68      	adds	r0, r5, #1
   2186a:	222a      	movs	r2, #42	@ 0x2a
   2186c:	4631      	mov	r1, r6
   2186e:	f009 fc4b 	bl	2b108 <__aeabi_memcpy>
   21872:	9802      	ldr	r0, [sp, #8]
   21874:	7028      	strb	r0, [r5, #0]
   21876:	2c02      	cmp	r4, #2
   21878:	d006      	beq.n	21888 <_ZN20complex_dynamic_type3app17h2e62c25c67398d3aE+0x138>
   2187a:	480a      	ldr	r0, [pc, #40]	@ (218a4 <_ZN20complex_dynamic_type3app17h2e62c25c67398d3aE+0x154>)
   2187c:	2103      	movs	r1, #3
   2187e:	2200      	movs	r2, #0
   21880:	4613      	mov	r3, r2
   21882:	2c04      	cmp	r4, #4
   21884:	d10b      	bne.n	2189e <_ZN20complex_dynamic_type3app17h2e62c25c67398d3aE+0x14e>
   21886:	df04      	svc	4
   21888:	b01b      	add	sp, #108	@ 0x6c
   2188a:	bdf0      	pop	{r4, r5, r6, r7, pc}
   2188c:	1c68      	adds	r0, r5, #1
   2188e:	222a      	movs	r2, #42	@ 0x2a
   21890:	4621      	mov	r1, r4
   21892:	f009 fc39 	bl	2b108 <__aeabi_memcpy>
   21896:	9802      	ldr	r0, [sp, #8]
   21898:	7028      	strb	r0, [r5, #0]
   2189a:	b01b      	add	sp, #108	@ 0x6c
   2189c:	bdf0      	pop	{r4, r5, r6, r7, pc}
   2189e:	df03      	svc	3
   218a0:	b01b      	add	sp, #108	@ 0x6c
   218a2:	bdf0      	pop	{r4, r5, r6, r7, pc}
   218a4:	000024f0 	.word	0x000024f0

000218a8 <_ZN20complex_dynamic_type3app17h3032866677b10e3cE>:
   218a8:	b5f0      	push	{r4, r5, r6, r7, lr}
   218aa:	af03      	add	r7, sp, #12
   218ac:	b0a3      	sub	sp, #140	@ 0x8c
   218ae:	9003      	str	r0, [sp, #12]
   218b0:	a804      	add	r0, sp, #16
   218b2:	2402      	movs	r4, #2
   218b4:	7004      	strb	r4, [r0, #0]
   218b6:	1c46      	adds	r6, r0, #1
   218b8:	2227      	movs	r2, #39	@ 0x27
   218ba:	9202      	str	r2, [sp, #8]
   218bc:	4630      	mov	r0, r6
   218be:	f009 fc23 	bl	2b108 <__aeabi_memcpy>
   218c2:	ad0e      	add	r5, sp, #56	@ 0x38
   218c4:	1c68      	adds	r0, r5, #1
   218c6:	2151      	movs	r1, #81	@ 0x51
   218c8:	9001      	str	r0, [sp, #4]
   218ca:	f009 fa5d 	bl	2ad88 <__aeabi_memclr>
   218ce:	9400      	str	r4, [sp, #0]
   218d0:	702c      	strb	r4, [r5, #0]
   218d2:	4848      	ldr	r0, [pc, #288]	@ (219f4 <_ZN20complex_dynamic_type3app17h3032866677b10e3cE+0x14c>)
   218d4:	2100      	movs	r1, #0
   218d6:	4632      	mov	r2, r6
   218d8:	9b02      	ldr	r3, [sp, #8]
   218da:	df04      	svc	4
   218dc:	2802      	cmp	r0, #2
   218de:	d104      	bne.n	218ea <_ZN20complex_dynamic_type3app17h3032866677b10e3cE+0x42>
   218e0:	2001      	movs	r0, #1
   218e2:	9a03      	ldr	r2, [sp, #12]
   218e4:	7010      	strb	r0, [r2, #0]
   218e6:	6051      	str	r1, [r2, #4]
   218e8:	e02c      	b.n	21944 <_ZN20complex_dynamic_type3app17h3032866677b10e3cE+0x9c>
   218ea:	9d03      	ldr	r5, [sp, #12]
   218ec:	a804      	add	r0, sp, #16
   218ee:	2104      	movs	r1, #4
   218f0:	7001      	strb	r1, [r0, #0]
   218f2:	4840      	ldr	r0, [pc, #256]	@ (219f4 <_ZN20complex_dynamic_type3app17h3032866677b10e3cE+0x14c>)
   218f4:	2351      	movs	r3, #81	@ 0x51
   218f6:	9c01      	ldr	r4, [sp, #4]
   218f8:	4622      	mov	r2, r4
   218fa:	df03      	svc	3
   218fc:	2802      	cmp	r0, #2
   218fe:	d10e      	bne.n	2191e <_ZN20complex_dynamic_type3app17h3032866677b10e3cE+0x76>
   21900:	2001      	movs	r0, #1
   21902:	7028      	strb	r0, [r5, #0]
   21904:	6069      	str	r1, [r5, #4]
   21906:	a80e      	add	r0, sp, #56	@ 0x38
   21908:	7800      	ldrb	r0, [r0, #0]
   2190a:	2802      	cmp	r0, #2
   2190c:	d01a      	beq.n	21944 <_ZN20complex_dynamic_type3app17h3032866677b10e3cE+0x9c>
   2190e:	2803      	cmp	r0, #3
   21910:	d013      	beq.n	2193a <_ZN20complex_dynamic_type3app17h3032866677b10e3cE+0x92>
   21912:	4838      	ldr	r0, [pc, #224]	@ (219f4 <_ZN20complex_dynamic_type3app17h3032866677b10e3cE+0x14c>)
   21914:	2104      	movs	r1, #4
   21916:	2200      	movs	r2, #0
   21918:	4613      	mov	r3, r2
   2191a:	df04      	svc	4
   2191c:	e012      	b.n	21944 <_ZN20complex_dynamic_type3app17h3032866677b10e3cE+0x9c>
   2191e:	a80e      	add	r0, sp, #56	@ 0x38
   21920:	2103      	movs	r1, #3
   21922:	7001      	strb	r1, [r0, #0]
   21924:	4833      	ldr	r0, [pc, #204]	@ (219f4 <_ZN20complex_dynamic_type3app17h3032866677b10e3cE+0x14c>)
   21926:	2204      	movs	r2, #4
   21928:	2600      	movs	r6, #0
   2192a:	4631      	mov	r1, r6
   2192c:	4633      	mov	r3, r6
   2192e:	df02      	svc	2
   21930:	2880      	cmp	r0, #128	@ 0x80
   21932:	d21b      	bcs.n	2196c <_ZN20complex_dynamic_type3app17h3032866677b10e3cE+0xc4>
   21934:	2001      	movs	r0, #1
   21936:	7028      	strb	r0, [r5, #0]
   21938:	6069      	str	r1, [r5, #4]
   2193a:	482e      	ldr	r0, [pc, #184]	@ (219f4 <_ZN20complex_dynamic_type3app17h3032866677b10e3cE+0x14c>)
   2193c:	2104      	movs	r1, #4
   2193e:	2200      	movs	r2, #0
   21940:	4613      	mov	r3, r2
   21942:	df03      	svc	3
   21944:	a804      	add	r0, sp, #16
   21946:	7800      	ldrb	r0, [r0, #0]
   21948:	2802      	cmp	r0, #2
   2194a:	d045      	beq.n	219d8 <_ZN20complex_dynamic_type3app17h3032866677b10e3cE+0x130>
   2194c:	2804      	cmp	r0, #4
   2194e:	d106      	bne.n	2195e <_ZN20complex_dynamic_type3app17h3032866677b10e3cE+0xb6>
   21950:	4828      	ldr	r0, [pc, #160]	@ (219f4 <_ZN20complex_dynamic_type3app17h3032866677b10e3cE+0x14c>)
   21952:	2100      	movs	r1, #0
   21954:	460a      	mov	r2, r1
   21956:	460b      	mov	r3, r1
   21958:	df04      	svc	4
   2195a:	b023      	add	sp, #140	@ 0x8c
   2195c:	bdf0      	pop	{r4, r5, r6, r7, pc}
   2195e:	4825      	ldr	r0, [pc, #148]	@ (219f4 <_ZN20complex_dynamic_type3app17h3032866677b10e3cE+0x14c>)
   21960:	2100      	movs	r1, #0
   21962:	460a      	mov	r2, r1
   21964:	460b      	mov	r3, r1
   21966:	df03      	svc	3
   21968:	b023      	add	sp, #140	@ 0x8c
   2196a:	bdf0      	pop	{r4, r5, r6, r7, pc}
   2196c:	a804      	add	r0, sp, #16
   2196e:	7800      	ldrb	r0, [r0, #0]
   21970:	2802      	cmp	r0, #2
   21972:	d00c      	beq.n	2198e <_ZN20complex_dynamic_type3app17h3032866677b10e3cE+0xe6>
   21974:	2803      	cmp	r0, #3
   21976:	d105      	bne.n	21984 <_ZN20complex_dynamic_type3app17h3032866677b10e3cE+0xdc>
   21978:	481e      	ldr	r0, [pc, #120]	@ (219f4 <_ZN20complex_dynamic_type3app17h3032866677b10e3cE+0x14c>)
   2197a:	2100      	movs	r1, #0
   2197c:	460a      	mov	r2, r1
   2197e:	460b      	mov	r3, r1
   21980:	df03      	svc	3
   21982:	e004      	b.n	2198e <_ZN20complex_dynamic_type3app17h3032866677b10e3cE+0xe6>
   21984:	481b      	ldr	r0, [pc, #108]	@ (219f4 <_ZN20complex_dynamic_type3app17h3032866677b10e3cE+0x14c>)
   21986:	2100      	movs	r1, #0
   21988:	460a      	mov	r2, r1
   2198a:	460b      	mov	r3, r1
   2198c:	df04      	svc	4
   2198e:	a804      	add	r0, sp, #16
   21990:	9900      	ldr	r1, [sp, #0]
   21992:	7001      	strb	r1, [r0, #0]
   21994:	a80e      	add	r0, sp, #56	@ 0x38
   21996:	7800      	ldrb	r0, [r0, #0]
   21998:	2804      	cmp	r0, #4
   2199a:	d007      	beq.n	219ac <_ZN20complex_dynamic_type3app17h3032866677b10e3cE+0x104>
   2199c:	2803      	cmp	r0, #3
   2199e:	d11d      	bne.n	219dc <_ZN20complex_dynamic_type3app17h3032866677b10e3cE+0x134>
   219a0:	4814      	ldr	r0, [pc, #80]	@ (219f4 <_ZN20complex_dynamic_type3app17h3032866677b10e3cE+0x14c>)
   219a2:	2104      	movs	r1, #4
   219a4:	2200      	movs	r2, #0
   219a6:	4613      	mov	r3, r2
   219a8:	df03      	svc	3
   219aa:	e004      	b.n	219b6 <_ZN20complex_dynamic_type3app17h3032866677b10e3cE+0x10e>
   219ac:	4811      	ldr	r0, [pc, #68]	@ (219f4 <_ZN20complex_dynamic_type3app17h3032866677b10e3cE+0x14c>)
   219ae:	2104      	movs	r1, #4
   219b0:	2200      	movs	r2, #0
   219b2:	4613      	mov	r3, r2
   219b4:	df04      	svc	4
   219b6:	a804      	add	r0, sp, #16
   219b8:	7804      	ldrb	r4, [r0, #0]
   219ba:	1c68      	adds	r0, r5, #1
   219bc:	2251      	movs	r2, #81	@ 0x51
   219be:	9901      	ldr	r1, [sp, #4]
   219c0:	f009 fba2 	bl	2b108 <__aeabi_memcpy>
   219c4:	702e      	strb	r6, [r5, #0]
   219c6:	2c02      	cmp	r4, #2
   219c8:	d006      	beq.n	219d8 <_ZN20complex_dynamic_type3app17h3032866677b10e3cE+0x130>
   219ca:	480a      	ldr	r0, [pc, #40]	@ (219f4 <_ZN20complex_dynamic_type3app17h3032866677b10e3cE+0x14c>)
   219cc:	2100      	movs	r1, #0
   219ce:	460a      	mov	r2, r1
   219d0:	460b      	mov	r3, r1
   219d2:	2c04      	cmp	r4, #4
   219d4:	d10a      	bne.n	219ec <_ZN20complex_dynamic_type3app17h3032866677b10e3cE+0x144>
   219d6:	df04      	svc	4
   219d8:	b023      	add	sp, #140	@ 0x8c
   219da:	bdf0      	pop	{r4, r5, r6, r7, pc}
   219dc:	1c68      	adds	r0, r5, #1
   219de:	2251      	movs	r2, #81	@ 0x51
   219e0:	4621      	mov	r1, r4
   219e2:	f009 fb91 	bl	2b108 <__aeabi_memcpy>
   219e6:	702e      	strb	r6, [r5, #0]
   219e8:	b023      	add	sp, #140	@ 0x8c
   219ea:	bdf0      	pop	{r4, r5, r6, r7, pc}
   219ec:	df03      	svc	3
   219ee:	b023      	add	sp, #140	@ 0x8c
   219f0:	bdf0      	pop	{r4, r5, r6, r7, pc}
   219f2:	46c0      	nop			@ (mov r8, r8)
   219f4:	00000a36 	.word	0x00000a36

000219f8 <_ZN20complex_dynamic_type3app17h39ec297b216404ccE>:
   219f8:	b5f0      	push	{r4, r5, r6, r7, lr}
   219fa:	af03      	add	r7, sp, #12
   219fc:	b0b1      	sub	sp, #196	@ 0xc4
   219fe:	9003      	str	r0, [sp, #12]
   21a00:	a804      	add	r0, sp, #16
   21a02:	2502      	movs	r5, #2
   21a04:	7005      	strb	r5, [r0, #0]
   21a06:	1c46      	adds	r6, r0, #1
   21a08:	224f      	movs	r2, #79	@ 0x4f
   21a0a:	9202      	str	r2, [sp, #8]
   21a0c:	4630      	mov	r0, r6
   21a0e:	f009 fb7b 	bl	2b108 <__aeabi_memcpy>
   21a12:	ac18      	add	r4, sp, #96	@ 0x60
   21a14:	1c60      	adds	r0, r4, #1
   21a16:	2161      	movs	r1, #97	@ 0x61
   21a18:	9001      	str	r0, [sp, #4]
   21a1a:	f009 f9b5 	bl	2ad88 <__aeabi_memclr>
   21a1e:	7025      	strb	r5, [r4, #0]
   21a20:	20db      	movs	r0, #219	@ 0xdb
   21a22:	0044      	lsls	r4, r0, #1
   21a24:	4620      	mov	r0, r4
   21a26:	4629      	mov	r1, r5
   21a28:	4632      	mov	r2, r6
   21a2a:	9b02      	ldr	r3, [sp, #8]
   21a2c:	df04      	svc	4
   21a2e:	2802      	cmp	r0, #2
   21a30:	d104      	bne.n	21a3c <_ZN20complex_dynamic_type3app17h39ec297b216404ccE+0x44>
   21a32:	2001      	movs	r0, #1
   21a34:	9a03      	ldr	r2, [sp, #12]
   21a36:	7010      	strb	r0, [r2, #0]
   21a38:	6051      	str	r1, [r2, #4]
   21a3a:	e02e      	b.n	21a9a <_ZN20complex_dynamic_type3app17h39ec297b216404ccE+0xa2>
   21a3c:	9e03      	ldr	r6, [sp, #12]
   21a3e:	a804      	add	r0, sp, #16
   21a40:	2104      	movs	r1, #4
   21a42:	7001      	strb	r1, [r0, #0]
   21a44:	2108      	movs	r1, #8
   21a46:	2361      	movs	r3, #97	@ 0x61
   21a48:	4620      	mov	r0, r4
   21a4a:	9d01      	ldr	r5, [sp, #4]
   21a4c:	462a      	mov	r2, r5
   21a4e:	df03      	svc	3
   21a50:	2802      	cmp	r0, #2
   21a52:	d10e      	bne.n	21a72 <_ZN20complex_dynamic_type3app17h39ec297b216404ccE+0x7a>
   21a54:	2001      	movs	r0, #1
   21a56:	7030      	strb	r0, [r6, #0]
   21a58:	6071      	str	r1, [r6, #4]
   21a5a:	a818      	add	r0, sp, #96	@ 0x60
   21a5c:	7800      	ldrb	r0, [r0, #0]
   21a5e:	2802      	cmp	r0, #2
   21a60:	d01b      	beq.n	21a9a <_ZN20complex_dynamic_type3app17h39ec297b216404ccE+0xa2>
   21a62:	2803      	cmp	r0, #3
   21a64:	d014      	beq.n	21a90 <_ZN20complex_dynamic_type3app17h39ec297b216404ccE+0x98>
   21a66:	2108      	movs	r1, #8
   21a68:	2200      	movs	r2, #0
   21a6a:	4620      	mov	r0, r4
   21a6c:	4613      	mov	r3, r2
   21a6e:	df04      	svc	4
   21a70:	e013      	b.n	21a9a <_ZN20complex_dynamic_type3app17h39ec297b216404ccE+0xa2>
   21a72:	a818      	add	r0, sp, #96	@ 0x60
   21a74:	2103      	movs	r1, #3
   21a76:	7001      	strb	r1, [r0, #0]
   21a78:	2102      	movs	r1, #2
   21a7a:	2208      	movs	r2, #8
   21a7c:	2300      	movs	r3, #0
   21a7e:	4620      	mov	r0, r4
   21a80:	9100      	str	r1, [sp, #0]
   21a82:	9302      	str	r3, [sp, #8]
   21a84:	df02      	svc	2
   21a86:	2880      	cmp	r0, #128	@ 0x80
   21a88:	d219      	bcs.n	21abe <_ZN20complex_dynamic_type3app17h39ec297b216404ccE+0xc6>
   21a8a:	2001      	movs	r0, #1
   21a8c:	7030      	strb	r0, [r6, #0]
   21a8e:	6071      	str	r1, [r6, #4]
   21a90:	2108      	movs	r1, #8
   21a92:	2200      	movs	r2, #0
   21a94:	4620      	mov	r0, r4
   21a96:	4613      	mov	r3, r2
   21a98:	df03      	svc	3
   21a9a:	a804      	add	r0, sp, #16
   21a9c:	7800      	ldrb	r0, [r0, #0]
   21a9e:	2802      	cmp	r0, #2
   21aa0:	d044      	beq.n	21b2c <_ZN20complex_dynamic_type3app17h39ec297b216404ccE+0x134>
   21aa2:	2102      	movs	r1, #2
   21aa4:	2200      	movs	r2, #0
   21aa6:	2804      	cmp	r0, #4
   21aa8:	d104      	bne.n	21ab4 <_ZN20complex_dynamic_type3app17h39ec297b216404ccE+0xbc>
   21aaa:	4620      	mov	r0, r4
   21aac:	4613      	mov	r3, r2
   21aae:	df04      	svc	4
   21ab0:	b031      	add	sp, #196	@ 0xc4
   21ab2:	bdf0      	pop	{r4, r5, r6, r7, pc}
   21ab4:	4620      	mov	r0, r4
   21ab6:	4613      	mov	r3, r2
   21ab8:	df03      	svc	3
   21aba:	b031      	add	sp, #196	@ 0xc4
   21abc:	bdf0      	pop	{r4, r5, r6, r7, pc}
   21abe:	a804      	add	r0, sp, #16
   21ac0:	7800      	ldrb	r0, [r0, #0]
   21ac2:	2802      	cmp	r0, #2
   21ac4:	d00a      	beq.n	21adc <_ZN20complex_dynamic_type3app17h39ec297b216404ccE+0xe4>
   21ac6:	2102      	movs	r1, #2
   21ac8:	2200      	movs	r2, #0
   21aca:	2803      	cmp	r0, #3
   21acc:	d103      	bne.n	21ad6 <_ZN20complex_dynamic_type3app17h39ec297b216404ccE+0xde>
   21ace:	4620      	mov	r0, r4
   21ad0:	4613      	mov	r3, r2
   21ad2:	df03      	svc	3
   21ad4:	e002      	b.n	21adc <_ZN20complex_dynamic_type3app17h39ec297b216404ccE+0xe4>
   21ad6:	4620      	mov	r0, r4
   21ad8:	4613      	mov	r3, r2
   21ada:	df04      	svc	4
   21adc:	a804      	add	r0, sp, #16
   21ade:	9900      	ldr	r1, [sp, #0]
   21ae0:	7001      	strb	r1, [r0, #0]
   21ae2:	a818      	add	r0, sp, #96	@ 0x60
   21ae4:	7800      	ldrb	r0, [r0, #0]
   21ae6:	2804      	cmp	r0, #4
   21ae8:	d008      	beq.n	21afc <_ZN20complex_dynamic_type3app17h39ec297b216404ccE+0x104>
   21aea:	2803      	cmp	r0, #3
   21aec:	d120      	bne.n	21b30 <_ZN20complex_dynamic_type3app17h39ec297b216404ccE+0x138>
   21aee:	2108      	movs	r1, #8
   21af0:	2200      	movs	r2, #0
   21af2:	9400      	str	r4, [sp, #0]
   21af4:	4620      	mov	r0, r4
   21af6:	4613      	mov	r3, r2
   21af8:	df03      	svc	3
   21afa:	e005      	b.n	21b08 <_ZN20complex_dynamic_type3app17h39ec297b216404ccE+0x110>
   21afc:	2108      	movs	r1, #8
   21afe:	2200      	movs	r2, #0
   21b00:	9400      	str	r4, [sp, #0]
   21b02:	4620      	mov	r0, r4
   21b04:	4613      	mov	r3, r2
   21b06:	df04      	svc	4
   21b08:	a804      	add	r0, sp, #16
   21b0a:	7804      	ldrb	r4, [r0, #0]
   21b0c:	1c70      	adds	r0, r6, #1
   21b0e:	2261      	movs	r2, #97	@ 0x61
   21b10:	4629      	mov	r1, r5
   21b12:	f009 faf9 	bl	2b108 <__aeabi_memcpy>
   21b16:	9802      	ldr	r0, [sp, #8]
   21b18:	7030      	strb	r0, [r6, #0]
   21b1a:	2c02      	cmp	r4, #2
   21b1c:	d006      	beq.n	21b2c <_ZN20complex_dynamic_type3app17h39ec297b216404ccE+0x134>
   21b1e:	2c04      	cmp	r4, #4
   21b20:	d10f      	bne.n	21b42 <_ZN20complex_dynamic_type3app17h39ec297b216404ccE+0x14a>
   21b22:	2102      	movs	r1, #2
   21b24:	2200      	movs	r2, #0
   21b26:	9800      	ldr	r0, [sp, #0]
   21b28:	4613      	mov	r3, r2
   21b2a:	df04      	svc	4
   21b2c:	b031      	add	sp, #196	@ 0xc4
   21b2e:	bdf0      	pop	{r4, r5, r6, r7, pc}
   21b30:	1c70      	adds	r0, r6, #1
   21b32:	2261      	movs	r2, #97	@ 0x61
   21b34:	4629      	mov	r1, r5
   21b36:	f009 fae7 	bl	2b108 <__aeabi_memcpy>
   21b3a:	9802      	ldr	r0, [sp, #8]
   21b3c:	7030      	strb	r0, [r6, #0]
   21b3e:	b031      	add	sp, #196	@ 0xc4
   21b40:	bdf0      	pop	{r4, r5, r6, r7, pc}
   21b42:	9800      	ldr	r0, [sp, #0]
   21b44:	2102      	movs	r1, #2
   21b46:	2200      	movs	r2, #0
   21b48:	4613      	mov	r3, r2
   21b4a:	df03      	svc	3
   21b4c:	b031      	add	sp, #196	@ 0xc4
   21b4e:	bdf0      	pop	{r4, r5, r6, r7, pc}

00021b50 <_ZN20complex_dynamic_type3app17h3b13d0f62b1e26b5E>:
   21b50:	b5f0      	push	{r4, r5, r6, r7, lr}
   21b52:	af03      	add	r7, sp, #12
   21b54:	b09d      	sub	sp, #116	@ 0x74
   21b56:	9004      	str	r0, [sp, #16]
   21b58:	a805      	add	r0, sp, #20
   21b5a:	2602      	movs	r6, #2
   21b5c:	7006      	strb	r6, [r0, #0]
   21b5e:	1c40      	adds	r0, r0, #1
   21b60:	9003      	str	r0, [sp, #12]
   21b62:	251e      	movs	r5, #30
   21b64:	462a      	mov	r2, r5
   21b66:	f009 facf 	bl	2b108 <__aeabi_memcpy>
   21b6a:	ac0d      	add	r4, sp, #52	@ 0x34
   21b6c:	1c60      	adds	r0, r4, #1
   21b6e:	213c      	movs	r1, #60	@ 0x3c
   21b70:	9002      	str	r0, [sp, #8]
   21b72:	f009 f909 	bl	2ad88 <__aeabi_memclr>
   21b76:	7026      	strb	r6, [r4, #0]
   21b78:	484a      	ldr	r0, [pc, #296]	@ (21ca4 <_ZN20complex_dynamic_type3app17h3b13d0f62b1e26b5E+0x154>)
   21b7a:	4631      	mov	r1, r6
   21b7c:	9a03      	ldr	r2, [sp, #12]
   21b7e:	462b      	mov	r3, r5
   21b80:	df04      	svc	4
   21b82:	2802      	cmp	r0, #2
   21b84:	d104      	bne.n	21b90 <_ZN20complex_dynamic_type3app17h3b13d0f62b1e26b5E+0x40>
   21b86:	2001      	movs	r0, #1
   21b88:	9a04      	ldr	r2, [sp, #16]
   21b8a:	7010      	strb	r0, [r2, #0]
   21b8c:	6051      	str	r1, [r2, #4]
   21b8e:	e02e      	b.n	21bee <_ZN20complex_dynamic_type3app17h3b13d0f62b1e26b5E+0x9e>
   21b90:	9d04      	ldr	r5, [sp, #16]
   21b92:	a805      	add	r0, sp, #20
   21b94:	2104      	movs	r1, #4
   21b96:	7001      	strb	r1, [r0, #0]
   21b98:	4842      	ldr	r0, [pc, #264]	@ (21ca4 <_ZN20complex_dynamic_type3app17h3b13d0f62b1e26b5E+0x154>)
   21b9a:	2603      	movs	r6, #3
   21b9c:	233c      	movs	r3, #60	@ 0x3c
   21b9e:	4631      	mov	r1, r6
   21ba0:	9c02      	ldr	r4, [sp, #8]
   21ba2:	4622      	mov	r2, r4
   21ba4:	df03      	svc	3
   21ba6:	2802      	cmp	r0, #2
   21ba8:	d10e      	bne.n	21bc8 <_ZN20complex_dynamic_type3app17h3b13d0f62b1e26b5E+0x78>
   21baa:	2001      	movs	r0, #1
   21bac:	7028      	strb	r0, [r5, #0]
   21bae:	6069      	str	r1, [r5, #4]
   21bb0:	a80d      	add	r0, sp, #52	@ 0x34
   21bb2:	7800      	ldrb	r0, [r0, #0]
   21bb4:	2802      	cmp	r0, #2
   21bb6:	d01a      	beq.n	21bee <_ZN20complex_dynamic_type3app17h3b13d0f62b1e26b5E+0x9e>
   21bb8:	2803      	cmp	r0, #3
   21bba:	d013      	beq.n	21be4 <_ZN20complex_dynamic_type3app17h3b13d0f62b1e26b5E+0x94>
   21bbc:	4839      	ldr	r0, [pc, #228]	@ (21ca4 <_ZN20complex_dynamic_type3app17h3b13d0f62b1e26b5E+0x154>)
   21bbe:	2103      	movs	r1, #3
   21bc0:	2200      	movs	r2, #0
   21bc2:	4613      	mov	r3, r2
   21bc4:	df04      	svc	4
   21bc6:	e012      	b.n	21bee <_ZN20complex_dynamic_type3app17h3b13d0f62b1e26b5E+0x9e>
   21bc8:	a80d      	add	r0, sp, #52	@ 0x34
   21bca:	7006      	strb	r6, [r0, #0]
   21bcc:	4835      	ldr	r0, [pc, #212]	@ (21ca4 <_ZN20complex_dynamic_type3app17h3b13d0f62b1e26b5E+0x154>)
   21bce:	2102      	movs	r1, #2
   21bd0:	2300      	movs	r3, #0
   21bd2:	9101      	str	r1, [sp, #4]
   21bd4:	4632      	mov	r2, r6
   21bd6:	9303      	str	r3, [sp, #12]
   21bd8:	df02      	svc	2
   21bda:	2880      	cmp	r0, #128	@ 0x80
   21bdc:	d21b      	bcs.n	21c16 <_ZN20complex_dynamic_type3app17h3b13d0f62b1e26b5E+0xc6>
   21bde:	2001      	movs	r0, #1
   21be0:	7028      	strb	r0, [r5, #0]
   21be2:	6069      	str	r1, [r5, #4]
   21be4:	482f      	ldr	r0, [pc, #188]	@ (21ca4 <_ZN20complex_dynamic_type3app17h3b13d0f62b1e26b5E+0x154>)
   21be6:	2103      	movs	r1, #3
   21be8:	2200      	movs	r2, #0
   21bea:	4613      	mov	r3, r2
   21bec:	df03      	svc	3
   21bee:	a805      	add	r0, sp, #20
   21bf0:	7800      	ldrb	r0, [r0, #0]
   21bf2:	2802      	cmp	r0, #2
   21bf4:	d048      	beq.n	21c88 <_ZN20complex_dynamic_type3app17h3b13d0f62b1e26b5E+0x138>
   21bf6:	2804      	cmp	r0, #4
   21bf8:	d106      	bne.n	21c08 <_ZN20complex_dynamic_type3app17h3b13d0f62b1e26b5E+0xb8>
   21bfa:	482a      	ldr	r0, [pc, #168]	@ (21ca4 <_ZN20complex_dynamic_type3app17h3b13d0f62b1e26b5E+0x154>)
   21bfc:	2102      	movs	r1, #2
   21bfe:	2200      	movs	r2, #0
   21c00:	4613      	mov	r3, r2
   21c02:	df04      	svc	4
   21c04:	b01d      	add	sp, #116	@ 0x74
   21c06:	bdf0      	pop	{r4, r5, r6, r7, pc}
   21c08:	4826      	ldr	r0, [pc, #152]	@ (21ca4 <_ZN20complex_dynamic_type3app17h3b13d0f62b1e26b5E+0x154>)
   21c0a:	2102      	movs	r1, #2
   21c0c:	2200      	movs	r2, #0
   21c0e:	4613      	mov	r3, r2
   21c10:	df03      	svc	3
   21c12:	b01d      	add	sp, #116	@ 0x74
   21c14:	bdf0      	pop	{r4, r5, r6, r7, pc}
   21c16:	a805      	add	r0, sp, #20
   21c18:	7800      	ldrb	r0, [r0, #0]
   21c1a:	2802      	cmp	r0, #2
   21c1c:	d00c      	beq.n	21c38 <_ZN20complex_dynamic_type3app17h3b13d0f62b1e26b5E+0xe8>
   21c1e:	2803      	cmp	r0, #3
   21c20:	d105      	bne.n	21c2e <_ZN20complex_dynamic_type3app17h3b13d0f62b1e26b5E+0xde>
   21c22:	4820      	ldr	r0, [pc, #128]	@ (21ca4 <_ZN20complex_dynamic_type3app17h3b13d0f62b1e26b5E+0x154>)
   21c24:	2102      	movs	r1, #2
   21c26:	2200      	movs	r2, #0
   21c28:	4613      	mov	r3, r2
   21c2a:	df03      	svc	3
   21c2c:	e004      	b.n	21c38 <_ZN20complex_dynamic_type3app17h3b13d0f62b1e26b5E+0xe8>
   21c2e:	481d      	ldr	r0, [pc, #116]	@ (21ca4 <_ZN20complex_dynamic_type3app17h3b13d0f62b1e26b5E+0x154>)
   21c30:	2102      	movs	r1, #2
   21c32:	2200      	movs	r2, #0
   21c34:	4613      	mov	r3, r2
   21c36:	df04      	svc	4
   21c38:	a805      	add	r0, sp, #20
   21c3a:	9901      	ldr	r1, [sp, #4]
   21c3c:	7001      	strb	r1, [r0, #0]
   21c3e:	a80d      	add	r0, sp, #52	@ 0x34
   21c40:	7800      	ldrb	r0, [r0, #0]
   21c42:	2804      	cmp	r0, #4
   21c44:	d008      	beq.n	21c58 <_ZN20complex_dynamic_type3app17h3b13d0f62b1e26b5E+0x108>
   21c46:	2803      	cmp	r0, #3
   21c48:	d120      	bne.n	21c8c <_ZN20complex_dynamic_type3app17h3b13d0f62b1e26b5E+0x13c>
   21c4a:	4626      	mov	r6, r4
   21c4c:	4815      	ldr	r0, [pc, #84]	@ (21ca4 <_ZN20complex_dynamic_type3app17h3b13d0f62b1e26b5E+0x154>)
   21c4e:	2103      	movs	r1, #3
   21c50:	2200      	movs	r2, #0
   21c52:	4613      	mov	r3, r2
   21c54:	df03      	svc	3
   21c56:	e005      	b.n	21c64 <_ZN20complex_dynamic_type3app17h3b13d0f62b1e26b5E+0x114>
   21c58:	4626      	mov	r6, r4
   21c5a:	4812      	ldr	r0, [pc, #72]	@ (21ca4 <_ZN20complex_dynamic_type3app17h3b13d0f62b1e26b5E+0x154>)
   21c5c:	2103      	movs	r1, #3
   21c5e:	2200      	movs	r2, #0
   21c60:	4613      	mov	r3, r2
   21c62:	df04      	svc	4
   21c64:	a805      	add	r0, sp, #20
   21c66:	7804      	ldrb	r4, [r0, #0]
   21c68:	1c68      	adds	r0, r5, #1
   21c6a:	223c      	movs	r2, #60	@ 0x3c
   21c6c:	4631      	mov	r1, r6
   21c6e:	f009 fa4b 	bl	2b108 <__aeabi_memcpy>
   21c72:	9803      	ldr	r0, [sp, #12]
   21c74:	7028      	strb	r0, [r5, #0]
   21c76:	2c02      	cmp	r4, #2
   21c78:	d006      	beq.n	21c88 <_ZN20complex_dynamic_type3app17h3b13d0f62b1e26b5E+0x138>
   21c7a:	480a      	ldr	r0, [pc, #40]	@ (21ca4 <_ZN20complex_dynamic_type3app17h3b13d0f62b1e26b5E+0x154>)
   21c7c:	2102      	movs	r1, #2
   21c7e:	2200      	movs	r2, #0
   21c80:	4613      	mov	r3, r2
   21c82:	2c04      	cmp	r4, #4
   21c84:	d10b      	bne.n	21c9e <_ZN20complex_dynamic_type3app17h3b13d0f62b1e26b5E+0x14e>
   21c86:	df04      	svc	4
   21c88:	b01d      	add	sp, #116	@ 0x74
   21c8a:	bdf0      	pop	{r4, r5, r6, r7, pc}
   21c8c:	1c68      	adds	r0, r5, #1
   21c8e:	223c      	movs	r2, #60	@ 0x3c
   21c90:	4621      	mov	r1, r4
   21c92:	f009 fa39 	bl	2b108 <__aeabi_memcpy>
   21c96:	9803      	ldr	r0, [sp, #12]
   21c98:	7028      	strb	r0, [r5, #0]
   21c9a:	b01d      	add	sp, #116	@ 0x74
   21c9c:	bdf0      	pop	{r4, r5, r6, r7, pc}
   21c9e:	df03      	svc	3
   21ca0:	b01d      	add	sp, #116	@ 0x74
   21ca2:	bdf0      	pop	{r4, r5, r6, r7, pc}
   21ca4:	00000b3c 	.word	0x00000b3c

00021ca8 <_ZN20complex_dynamic_type3app17h3b8dc6c03952889eE>:
   21ca8:	b5f0      	push	{r4, r5, r6, r7, lr}
   21caa:	af03      	add	r7, sp, #12
   21cac:	b0a9      	sub	sp, #164	@ 0xa4
   21cae:	9003      	str	r0, [sp, #12]
   21cb0:	a804      	add	r0, sp, #16
   21cb2:	2402      	movs	r4, #2
   21cb4:	7004      	strb	r4, [r0, #0]
   21cb6:	1c40      	adds	r0, r0, #1
   21cb8:	9002      	str	r0, [sp, #8]
   21cba:	2550      	movs	r5, #80	@ 0x50
   21cbc:	462a      	mov	r2, r5
   21cbe:	f009 fa23 	bl	2b108 <__aeabi_memcpy>
   21cc2:	ae19      	add	r6, sp, #100	@ 0x64
   21cc4:	1c70      	adds	r0, r6, #1
   21cc6:	213c      	movs	r1, #60	@ 0x3c
   21cc8:	9001      	str	r0, [sp, #4]
   21cca:	f009 f85d 	bl	2ad88 <__aeabi_memclr>
   21cce:	9400      	str	r4, [sp, #0]
   21cd0:	7034      	strb	r4, [r6, #0]
   21cd2:	484a      	ldr	r0, [pc, #296]	@ (21dfc <_ZN20complex_dynamic_type3app17h3b8dc6c03952889eE+0x154>)
   21cd4:	2603      	movs	r6, #3
   21cd6:	4631      	mov	r1, r6
   21cd8:	9a02      	ldr	r2, [sp, #8]
   21cda:	462b      	mov	r3, r5
   21cdc:	df04      	svc	4
   21cde:	2802      	cmp	r0, #2
   21ce0:	d104      	bne.n	21cec <_ZN20complex_dynamic_type3app17h3b8dc6c03952889eE+0x44>
   21ce2:	2001      	movs	r0, #1
   21ce4:	9a03      	ldr	r2, [sp, #12]
   21ce6:	7010      	strb	r0, [r2, #0]
   21ce8:	6051      	str	r1, [r2, #4]
   21cea:	e02c      	b.n	21d46 <_ZN20complex_dynamic_type3app17h3b8dc6c03952889eE+0x9e>
   21cec:	9d03      	ldr	r5, [sp, #12]
   21cee:	a804      	add	r0, sp, #16
   21cf0:	2104      	movs	r1, #4
   21cf2:	7001      	strb	r1, [r0, #0]
   21cf4:	4841      	ldr	r0, [pc, #260]	@ (21dfc <_ZN20complex_dynamic_type3app17h3b8dc6c03952889eE+0x154>)
   21cf6:	2109      	movs	r1, #9
   21cf8:	233c      	movs	r3, #60	@ 0x3c
   21cfa:	9c01      	ldr	r4, [sp, #4]
   21cfc:	4622      	mov	r2, r4
   21cfe:	df03      	svc	3
   21d00:	2802      	cmp	r0, #2
   21d02:	d10e      	bne.n	21d22 <_ZN20complex_dynamic_type3app17h3b8dc6c03952889eE+0x7a>
   21d04:	2001      	movs	r0, #1
   21d06:	7028      	strb	r0, [r5, #0]
   21d08:	6069      	str	r1, [r5, #4]
   21d0a:	a819      	add	r0, sp, #100	@ 0x64
   21d0c:	7800      	ldrb	r0, [r0, #0]
   21d0e:	2802      	cmp	r0, #2
   21d10:	d019      	beq.n	21d46 <_ZN20complex_dynamic_type3app17h3b8dc6c03952889eE+0x9e>
   21d12:	2803      	cmp	r0, #3
   21d14:	d012      	beq.n	21d3c <_ZN20complex_dynamic_type3app17h3b8dc6c03952889eE+0x94>
   21d16:	4839      	ldr	r0, [pc, #228]	@ (21dfc <_ZN20complex_dynamic_type3app17h3b8dc6c03952889eE+0x154>)
   21d18:	2109      	movs	r1, #9
   21d1a:	2200      	movs	r2, #0
   21d1c:	4613      	mov	r3, r2
   21d1e:	df04      	svc	4
   21d20:	e011      	b.n	21d46 <_ZN20complex_dynamic_type3app17h3b8dc6c03952889eE+0x9e>
   21d22:	a819      	add	r0, sp, #100	@ 0x64
   21d24:	7006      	strb	r6, [r0, #0]
   21d26:	4835      	ldr	r0, [pc, #212]	@ (21dfc <_ZN20complex_dynamic_type3app17h3b8dc6c03952889eE+0x154>)
   21d28:	2209      	movs	r2, #9
   21d2a:	2300      	movs	r3, #0
   21d2c:	4631      	mov	r1, r6
   21d2e:	9302      	str	r3, [sp, #8]
   21d30:	df02      	svc	2
   21d32:	2880      	cmp	r0, #128	@ 0x80
   21d34:	d21b      	bcs.n	21d6e <_ZN20complex_dynamic_type3app17h3b8dc6c03952889eE+0xc6>
   21d36:	2001      	movs	r0, #1
   21d38:	7028      	strb	r0, [r5, #0]
   21d3a:	6069      	str	r1, [r5, #4]
   21d3c:	482f      	ldr	r0, [pc, #188]	@ (21dfc <_ZN20complex_dynamic_type3app17h3b8dc6c03952889eE+0x154>)
   21d3e:	2109      	movs	r1, #9
   21d40:	2200      	movs	r2, #0
   21d42:	4613      	mov	r3, r2
   21d44:	df03      	svc	3
   21d46:	a804      	add	r0, sp, #16
   21d48:	7800      	ldrb	r0, [r0, #0]
   21d4a:	2802      	cmp	r0, #2
   21d4c:	d048      	beq.n	21de0 <_ZN20complex_dynamic_type3app17h3b8dc6c03952889eE+0x138>
   21d4e:	2804      	cmp	r0, #4
   21d50:	d106      	bne.n	21d60 <_ZN20complex_dynamic_type3app17h3b8dc6c03952889eE+0xb8>
   21d52:	482a      	ldr	r0, [pc, #168]	@ (21dfc <_ZN20complex_dynamic_type3app17h3b8dc6c03952889eE+0x154>)
   21d54:	2103      	movs	r1, #3
   21d56:	2200      	movs	r2, #0
   21d58:	4613      	mov	r3, r2
   21d5a:	df04      	svc	4
   21d5c:	b029      	add	sp, #164	@ 0xa4
   21d5e:	bdf0      	pop	{r4, r5, r6, r7, pc}
   21d60:	4826      	ldr	r0, [pc, #152]	@ (21dfc <_ZN20complex_dynamic_type3app17h3b8dc6c03952889eE+0x154>)
   21d62:	2103      	movs	r1, #3
   21d64:	2200      	movs	r2, #0
   21d66:	4613      	mov	r3, r2
   21d68:	df03      	svc	3
   21d6a:	b029      	add	sp, #164	@ 0xa4
   21d6c:	bdf0      	pop	{r4, r5, r6, r7, pc}
   21d6e:	a804      	add	r0, sp, #16
   21d70:	7800      	ldrb	r0, [r0, #0]
   21d72:	2802      	cmp	r0, #2
   21d74:	d00c      	beq.n	21d90 <_ZN20complex_dynamic_type3app17h3b8dc6c03952889eE+0xe8>
   21d76:	2803      	cmp	r0, #3
   21d78:	d105      	bne.n	21d86 <_ZN20complex_dynamic_type3app17h3b8dc6c03952889eE+0xde>
   21d7a:	4820      	ldr	r0, [pc, #128]	@ (21dfc <_ZN20complex_dynamic_type3app17h3b8dc6c03952889eE+0x154>)
   21d7c:	2103      	movs	r1, #3
   21d7e:	2200      	movs	r2, #0
   21d80:	4613      	mov	r3, r2
   21d82:	df03      	svc	3
   21d84:	e004      	b.n	21d90 <_ZN20complex_dynamic_type3app17h3b8dc6c03952889eE+0xe8>
   21d86:	481d      	ldr	r0, [pc, #116]	@ (21dfc <_ZN20complex_dynamic_type3app17h3b8dc6c03952889eE+0x154>)
   21d88:	2103      	movs	r1, #3
   21d8a:	2200      	movs	r2, #0
   21d8c:	4613      	mov	r3, r2
   21d8e:	df04      	svc	4
   21d90:	a804      	add	r0, sp, #16
   21d92:	9900      	ldr	r1, [sp, #0]
   21d94:	7001      	strb	r1, [r0, #0]
   21d96:	a819      	add	r0, sp, #100	@ 0x64
   21d98:	7800      	ldrb	r0, [r0, #0]
   21d9a:	2804      	cmp	r0, #4
   21d9c:	d008      	beq.n	21db0 <_ZN20complex_dynamic_type3app17h3b8dc6c03952889eE+0x108>
   21d9e:	2803      	cmp	r0, #3
   21da0:	d120      	bne.n	21de4 <_ZN20complex_dynamic_type3app17h3b8dc6c03952889eE+0x13c>
   21da2:	4626      	mov	r6, r4
   21da4:	4815      	ldr	r0, [pc, #84]	@ (21dfc <_ZN20complex_dynamic_type3app17h3b8dc6c03952889eE+0x154>)
   21da6:	2109      	movs	r1, #9
   21da8:	2200      	movs	r2, #0
   21daa:	4613      	mov	r3, r2
   21dac:	df03      	svc	3
   21dae:	e005      	b.n	21dbc <_ZN20complex_dynamic_type3app17h3b8dc6c03952889eE+0x114>
   21db0:	4626      	mov	r6, r4
   21db2:	4812      	ldr	r0, [pc, #72]	@ (21dfc <_ZN20complex_dynamic_type3app17h3b8dc6c03952889eE+0x154>)
   21db4:	2109      	movs	r1, #9
   21db6:	2200      	movs	r2, #0
   21db8:	4613      	mov	r3, r2
   21dba:	df04      	svc	4
   21dbc:	a804      	add	r0, sp, #16
   21dbe:	7804      	ldrb	r4, [r0, #0]
   21dc0:	1c68      	adds	r0, r5, #1
   21dc2:	223c      	movs	r2, #60	@ 0x3c
   21dc4:	4631      	mov	r1, r6
   21dc6:	f009 f99f 	bl	2b108 <__aeabi_memcpy>
   21dca:	9802      	ldr	r0, [sp, #8]
   21dcc:	7028      	strb	r0, [r5, #0]
   21dce:	2c02      	cmp	r4, #2
   21dd0:	d006      	beq.n	21de0 <_ZN20complex_dynamic_type3app17h3b8dc6c03952889eE+0x138>
   21dd2:	480a      	ldr	r0, [pc, #40]	@ (21dfc <_ZN20complex_dynamic_type3app17h3b8dc6c03952889eE+0x154>)
   21dd4:	2103      	movs	r1, #3
   21dd6:	2200      	movs	r2, #0
   21dd8:	4613      	mov	r3, r2
   21dda:	2c04      	cmp	r4, #4
   21ddc:	d10b      	bne.n	21df6 <_ZN20complex_dynamic_type3app17h3b8dc6c03952889eE+0x14e>
   21dde:	df04      	svc	4
   21de0:	b029      	add	sp, #164	@ 0xa4
   21de2:	bdf0      	pop	{r4, r5, r6, r7, pc}
   21de4:	1c68      	adds	r0, r5, #1
   21de6:	223c      	movs	r2, #60	@ 0x3c
   21de8:	4621      	mov	r1, r4
   21dea:	f009 f98d 	bl	2b108 <__aeabi_memcpy>
   21dee:	9802      	ldr	r0, [sp, #8]
   21df0:	7028      	strb	r0, [r5, #0]
   21df2:	b029      	add	sp, #164	@ 0xa4
   21df4:	bdf0      	pop	{r4, r5, r6, r7, pc}
   21df6:	df03      	svc	3
   21df8:	b029      	add	sp, #164	@ 0xa4
   21dfa:	bdf0      	pop	{r4, r5, r6, r7, pc}
   21dfc:	00000d7a 	.word	0x00000d7a

00021e00 <_ZN20complex_dynamic_type3app17h3c1c32ee6c9d2cf1E>:
   21e00:	b5f0      	push	{r4, r5, r6, r7, lr}
   21e02:	af03      	add	r7, sp, #12
   21e04:	b09b      	sub	sp, #108	@ 0x6c
   21e06:	9003      	str	r0, [sp, #12]
   21e08:	a804      	add	r0, sp, #16
   21e0a:	2402      	movs	r4, #2
   21e0c:	7004      	strb	r4, [r0, #0]
   21e0e:	1c46      	adds	r6, r0, #1
   21e10:	2248      	movs	r2, #72	@ 0x48
   21e12:	9202      	str	r2, [sp, #8]
   21e14:	4630      	mov	r0, r6
   21e16:	f009 f977 	bl	2b108 <__aeabi_memcpy>
   21e1a:	ad17      	add	r5, sp, #92	@ 0x5c
   21e1c:	1c68      	adds	r0, r5, #1
   21e1e:	210f      	movs	r1, #15
   21e20:	9001      	str	r0, [sp, #4]
   21e22:	f008 ffb1 	bl	2ad88 <__aeabi_memclr>
   21e26:	9400      	str	r4, [sp, #0]
   21e28:	702c      	strb	r4, [r5, #0]
   21e2a:	4848      	ldr	r0, [pc, #288]	@ (21f4c <_ZN20complex_dynamic_type3app17h3c1c32ee6c9d2cf1E+0x14c>)
   21e2c:	2108      	movs	r1, #8
   21e2e:	4632      	mov	r2, r6
   21e30:	9b02      	ldr	r3, [sp, #8]
   21e32:	df04      	svc	4
   21e34:	2802      	cmp	r0, #2
   21e36:	d104      	bne.n	21e42 <_ZN20complex_dynamic_type3app17h3c1c32ee6c9d2cf1E+0x42>
   21e38:	2001      	movs	r0, #1
   21e3a:	9a03      	ldr	r2, [sp, #12]
   21e3c:	7010      	strb	r0, [r2, #0]
   21e3e:	6051      	str	r1, [r2, #4]
   21e40:	e02d      	b.n	21e9e <_ZN20complex_dynamic_type3app17h3c1c32ee6c9d2cf1E+0x9e>
   21e42:	9d03      	ldr	r5, [sp, #12]
   21e44:	a804      	add	r0, sp, #16
   21e46:	2104      	movs	r1, #4
   21e48:	7001      	strb	r1, [r0, #0]
   21e4a:	4840      	ldr	r0, [pc, #256]	@ (21f4c <_ZN20complex_dynamic_type3app17h3c1c32ee6c9d2cf1E+0x14c>)
   21e4c:	2109      	movs	r1, #9
   21e4e:	230f      	movs	r3, #15
   21e50:	9c01      	ldr	r4, [sp, #4]
   21e52:	4622      	mov	r2, r4
   21e54:	df03      	svc	3
   21e56:	2802      	cmp	r0, #2
   21e58:	d10e      	bne.n	21e78 <_ZN20complex_dynamic_type3app17h3c1c32ee6c9d2cf1E+0x78>
   21e5a:	2001      	movs	r0, #1
   21e5c:	7028      	strb	r0, [r5, #0]
   21e5e:	6069      	str	r1, [r5, #4]
   21e60:	a817      	add	r0, sp, #92	@ 0x5c
   21e62:	7800      	ldrb	r0, [r0, #0]
   21e64:	2802      	cmp	r0, #2
   21e66:	d01a      	beq.n	21e9e <_ZN20complex_dynamic_type3app17h3c1c32ee6c9d2cf1E+0x9e>
   21e68:	2803      	cmp	r0, #3
   21e6a:	d013      	beq.n	21e94 <_ZN20complex_dynamic_type3app17h3c1c32ee6c9d2cf1E+0x94>
   21e6c:	4837      	ldr	r0, [pc, #220]	@ (21f4c <_ZN20complex_dynamic_type3app17h3c1c32ee6c9d2cf1E+0x14c>)
   21e6e:	2109      	movs	r1, #9
   21e70:	2200      	movs	r2, #0
   21e72:	4613      	mov	r3, r2
   21e74:	df04      	svc	4
   21e76:	e012      	b.n	21e9e <_ZN20complex_dynamic_type3app17h3c1c32ee6c9d2cf1E+0x9e>
   21e78:	a817      	add	r0, sp, #92	@ 0x5c
   21e7a:	2103      	movs	r1, #3
   21e7c:	7001      	strb	r1, [r0, #0]
   21e7e:	4833      	ldr	r0, [pc, #204]	@ (21f4c <_ZN20complex_dynamic_type3app17h3c1c32ee6c9d2cf1E+0x14c>)
   21e80:	2108      	movs	r1, #8
   21e82:	2209      	movs	r2, #9
   21e84:	2600      	movs	r6, #0
   21e86:	4633      	mov	r3, r6
   21e88:	df02      	svc	2
   21e8a:	2880      	cmp	r0, #128	@ 0x80
   21e8c:	d21b      	bcs.n	21ec6 <_ZN20complex_dynamic_type3app17h3c1c32ee6c9d2cf1E+0xc6>
   21e8e:	2001      	movs	r0, #1
   21e90:	7028      	strb	r0, [r5, #0]
   21e92:	6069      	str	r1, [r5, #4]
   21e94:	482d      	ldr	r0, [pc, #180]	@ (21f4c <_ZN20complex_dynamic_type3app17h3c1c32ee6c9d2cf1E+0x14c>)
   21e96:	2109      	movs	r1, #9
   21e98:	2200      	movs	r2, #0
   21e9a:	4613      	mov	r3, r2
   21e9c:	df03      	svc	3
   21e9e:	a804      	add	r0, sp, #16
   21ea0:	7800      	ldrb	r0, [r0, #0]
   21ea2:	2802      	cmp	r0, #2
   21ea4:	d045      	beq.n	21f32 <_ZN20complex_dynamic_type3app17h3c1c32ee6c9d2cf1E+0x132>
   21ea6:	2804      	cmp	r0, #4
   21ea8:	d106      	bne.n	21eb8 <_ZN20complex_dynamic_type3app17h3c1c32ee6c9d2cf1E+0xb8>
   21eaa:	4828      	ldr	r0, [pc, #160]	@ (21f4c <_ZN20complex_dynamic_type3app17h3c1c32ee6c9d2cf1E+0x14c>)
   21eac:	2108      	movs	r1, #8
   21eae:	2200      	movs	r2, #0
   21eb0:	4613      	mov	r3, r2
   21eb2:	df04      	svc	4
   21eb4:	b01b      	add	sp, #108	@ 0x6c
   21eb6:	bdf0      	pop	{r4, r5, r6, r7, pc}
   21eb8:	4824      	ldr	r0, [pc, #144]	@ (21f4c <_ZN20complex_dynamic_type3app17h3c1c32ee6c9d2cf1E+0x14c>)
   21eba:	2108      	movs	r1, #8
   21ebc:	2200      	movs	r2, #0
   21ebe:	4613      	mov	r3, r2
   21ec0:	df03      	svc	3
   21ec2:	b01b      	add	sp, #108	@ 0x6c
   21ec4:	bdf0      	pop	{r4, r5, r6, r7, pc}
   21ec6:	a804      	add	r0, sp, #16
   21ec8:	7800      	ldrb	r0, [r0, #0]
   21eca:	2802      	cmp	r0, #2
   21ecc:	d00c      	beq.n	21ee8 <_ZN20complex_dynamic_type3app17h3c1c32ee6c9d2cf1E+0xe8>
   21ece:	2803      	cmp	r0, #3
   21ed0:	d105      	bne.n	21ede <_ZN20complex_dynamic_type3app17h3c1c32ee6c9d2cf1E+0xde>
   21ed2:	481e      	ldr	r0, [pc, #120]	@ (21f4c <_ZN20complex_dynamic_type3app17h3c1c32ee6c9d2cf1E+0x14c>)
   21ed4:	2108      	movs	r1, #8
   21ed6:	2200      	movs	r2, #0
   21ed8:	4613      	mov	r3, r2
   21eda:	df03      	svc	3
   21edc:	e004      	b.n	21ee8 <_ZN20complex_dynamic_type3app17h3c1c32ee6c9d2cf1E+0xe8>
   21ede:	481b      	ldr	r0, [pc, #108]	@ (21f4c <_ZN20complex_dynamic_type3app17h3c1c32ee6c9d2cf1E+0x14c>)
   21ee0:	2108      	movs	r1, #8
   21ee2:	2200      	movs	r2, #0
   21ee4:	4613      	mov	r3, r2
   21ee6:	df04      	svc	4
   21ee8:	a804      	add	r0, sp, #16
   21eea:	9900      	ldr	r1, [sp, #0]
   21eec:	7001      	strb	r1, [r0, #0]
   21eee:	a817      	add	r0, sp, #92	@ 0x5c
   21ef0:	7800      	ldrb	r0, [r0, #0]
   21ef2:	2804      	cmp	r0, #4
   21ef4:	d007      	beq.n	21f06 <_ZN20complex_dynamic_type3app17h3c1c32ee6c9d2cf1E+0x106>
   21ef6:	2803      	cmp	r0, #3
   21ef8:	d11d      	bne.n	21f36 <_ZN20complex_dynamic_type3app17h3c1c32ee6c9d2cf1E+0x136>
   21efa:	4814      	ldr	r0, [pc, #80]	@ (21f4c <_ZN20complex_dynamic_type3app17h3c1c32ee6c9d2cf1E+0x14c>)
   21efc:	2109      	movs	r1, #9
   21efe:	2200      	movs	r2, #0
   21f00:	4613      	mov	r3, r2
   21f02:	df03      	svc	3
   21f04:	e004      	b.n	21f10 <_ZN20complex_dynamic_type3app17h3c1c32ee6c9d2cf1E+0x110>
   21f06:	4811      	ldr	r0, [pc, #68]	@ (21f4c <_ZN20complex_dynamic_type3app17h3c1c32ee6c9d2cf1E+0x14c>)
   21f08:	2109      	movs	r1, #9
   21f0a:	2200      	movs	r2, #0
   21f0c:	4613      	mov	r3, r2
   21f0e:	df04      	svc	4
   21f10:	a804      	add	r0, sp, #16
   21f12:	7804      	ldrb	r4, [r0, #0]
   21f14:	1c68      	adds	r0, r5, #1
   21f16:	220f      	movs	r2, #15
   21f18:	9901      	ldr	r1, [sp, #4]
   21f1a:	f009 f8f5 	bl	2b108 <__aeabi_memcpy>
   21f1e:	702e      	strb	r6, [r5, #0]
   21f20:	2c02      	cmp	r4, #2
   21f22:	d006      	beq.n	21f32 <_ZN20complex_dynamic_type3app17h3c1c32ee6c9d2cf1E+0x132>
   21f24:	4809      	ldr	r0, [pc, #36]	@ (21f4c <_ZN20complex_dynamic_type3app17h3c1c32ee6c9d2cf1E+0x14c>)
   21f26:	2108      	movs	r1, #8
   21f28:	2200      	movs	r2, #0
   21f2a:	4613      	mov	r3, r2
   21f2c:	2c04      	cmp	r4, #4
   21f2e:	d10a      	bne.n	21f46 <_ZN20complex_dynamic_type3app17h3c1c32ee6c9d2cf1E+0x146>
   21f30:	df04      	svc	4
   21f32:	b01b      	add	sp, #108	@ 0x6c
   21f34:	bdf0      	pop	{r4, r5, r6, r7, pc}
   21f36:	1c68      	adds	r0, r5, #1
   21f38:	220f      	movs	r2, #15
   21f3a:	4621      	mov	r1, r4
   21f3c:	f009 f8e4 	bl	2b108 <__aeabi_memcpy>
   21f40:	702e      	strb	r6, [r5, #0]
   21f42:	b01b      	add	sp, #108	@ 0x6c
   21f44:	bdf0      	pop	{r4, r5, r6, r7, pc}
   21f46:	df03      	svc	3
   21f48:	b01b      	add	sp, #108	@ 0x6c
   21f4a:	bdf0      	pop	{r4, r5, r6, r7, pc}
   21f4c:	0000111d 	.word	0x0000111d

00021f50 <_ZN20complex_dynamic_type3app17h3f3b285ca1b71ffdE>:
   21f50:	b5f0      	push	{r4, r5, r6, r7, lr}
   21f52:	af03      	add	r7, sp, #12
   21f54:	b0a7      	sub	sp, #156	@ 0x9c
   21f56:	9004      	str	r0, [sp, #16]
   21f58:	a805      	add	r0, sp, #20
   21f5a:	2402      	movs	r4, #2
   21f5c:	7004      	strb	r4, [r0, #0]
   21f5e:	1c46      	adds	r6, r0, #1
   21f60:	224f      	movs	r2, #79	@ 0x4f
   21f62:	9203      	str	r2, [sp, #12]
   21f64:	4630      	mov	r0, r6
   21f66:	f009 f8cf 	bl	2b108 <__aeabi_memcpy>
   21f6a:	ad19      	add	r5, sp, #100	@ 0x64
   21f6c:	1c68      	adds	r0, r5, #1
   21f6e:	2135      	movs	r1, #53	@ 0x35
   21f70:	9002      	str	r0, [sp, #8]
   21f72:	f008 ff09 	bl	2ad88 <__aeabi_memclr>
   21f76:	9401      	str	r4, [sp, #4]
   21f78:	702c      	strb	r4, [r5, #0]
   21f7a:	4848      	ldr	r0, [pc, #288]	@ (2209c <_ZN20complex_dynamic_type3app17h3f3b285ca1b71ffdE+0x14c>)
   21f7c:	2107      	movs	r1, #7
   21f7e:	4632      	mov	r2, r6
   21f80:	9b03      	ldr	r3, [sp, #12]
   21f82:	df04      	svc	4
   21f84:	2802      	cmp	r0, #2
   21f86:	d104      	bne.n	21f92 <_ZN20complex_dynamic_type3app17h3f3b285ca1b71ffdE+0x42>
   21f88:	2001      	movs	r0, #1
   21f8a:	9a04      	ldr	r2, [sp, #16]
   21f8c:	7010      	strb	r0, [r2, #0]
   21f8e:	6051      	str	r1, [r2, #4]
   21f90:	e02c      	b.n	21fec <_ZN20complex_dynamic_type3app17h3f3b285ca1b71ffdE+0x9c>
   21f92:	9d04      	ldr	r5, [sp, #16]
   21f94:	a805      	add	r0, sp, #20
   21f96:	2104      	movs	r1, #4
   21f98:	7001      	strb	r1, [r0, #0]
   21f9a:	4840      	ldr	r0, [pc, #256]	@ (2209c <_ZN20complex_dynamic_type3app17h3f3b285ca1b71ffdE+0x14c>)
   21f9c:	2401      	movs	r4, #1
   21f9e:	2335      	movs	r3, #53	@ 0x35
   21fa0:	4621      	mov	r1, r4
   21fa2:	9a02      	ldr	r2, [sp, #8]
   21fa4:	df03      	svc	3
   21fa6:	2802      	cmp	r0, #2
   21fa8:	d10d      	bne.n	21fc6 <_ZN20complex_dynamic_type3app17h3f3b285ca1b71ffdE+0x76>
   21faa:	702c      	strb	r4, [r5, #0]
   21fac:	6069      	str	r1, [r5, #4]
   21fae:	a819      	add	r0, sp, #100	@ 0x64
   21fb0:	7800      	ldrb	r0, [r0, #0]
   21fb2:	2802      	cmp	r0, #2
   21fb4:	d01a      	beq.n	21fec <_ZN20complex_dynamic_type3app17h3f3b285ca1b71ffdE+0x9c>
   21fb6:	2803      	cmp	r0, #3
   21fb8:	d013      	beq.n	21fe2 <_ZN20complex_dynamic_type3app17h3f3b285ca1b71ffdE+0x92>
   21fba:	4838      	ldr	r0, [pc, #224]	@ (2209c <_ZN20complex_dynamic_type3app17h3f3b285ca1b71ffdE+0x14c>)
   21fbc:	2101      	movs	r1, #1
   21fbe:	2200      	movs	r2, #0
   21fc0:	4613      	mov	r3, r2
   21fc2:	df04      	svc	4
   21fc4:	e012      	b.n	21fec <_ZN20complex_dynamic_type3app17h3f3b285ca1b71ffdE+0x9c>
   21fc6:	a819      	add	r0, sp, #100	@ 0x64
   21fc8:	2103      	movs	r1, #3
   21fca:	7001      	strb	r1, [r0, #0]
   21fcc:	4833      	ldr	r0, [pc, #204]	@ (2209c <_ZN20complex_dynamic_type3app17h3f3b285ca1b71ffdE+0x14c>)
   21fce:	2107      	movs	r1, #7
   21fd0:	2401      	movs	r4, #1
   21fd2:	2600      	movs	r6, #0
   21fd4:	4622      	mov	r2, r4
   21fd6:	4633      	mov	r3, r6
   21fd8:	df02      	svc	2
   21fda:	2880      	cmp	r0, #128	@ 0x80
   21fdc:	d21a      	bcs.n	22014 <_ZN20complex_dynamic_type3app17h3f3b285ca1b71ffdE+0xc4>
   21fde:	702c      	strb	r4, [r5, #0]
   21fe0:	6069      	str	r1, [r5, #4]
   21fe2:	482e      	ldr	r0, [pc, #184]	@ (2209c <_ZN20complex_dynamic_type3app17h3f3b285ca1b71ffdE+0x14c>)
   21fe4:	2101      	movs	r1, #1
   21fe6:	2200      	movs	r2, #0
   21fe8:	4613      	mov	r3, r2
   21fea:	df03      	svc	3
   21fec:	a805      	add	r0, sp, #20
   21fee:	7800      	ldrb	r0, [r0, #0]
   21ff0:	2802      	cmp	r0, #2
   21ff2:	d045      	beq.n	22080 <_ZN20complex_dynamic_type3app17h3f3b285ca1b71ffdE+0x130>
   21ff4:	2804      	cmp	r0, #4
   21ff6:	d106      	bne.n	22006 <_ZN20complex_dynamic_type3app17h3f3b285ca1b71ffdE+0xb6>
   21ff8:	4828      	ldr	r0, [pc, #160]	@ (2209c <_ZN20complex_dynamic_type3app17h3f3b285ca1b71ffdE+0x14c>)
   21ffa:	2107      	movs	r1, #7
   21ffc:	2200      	movs	r2, #0
   21ffe:	4613      	mov	r3, r2
   22000:	df04      	svc	4
   22002:	b027      	add	sp, #156	@ 0x9c
   22004:	bdf0      	pop	{r4, r5, r6, r7, pc}
   22006:	4825      	ldr	r0, [pc, #148]	@ (2209c <_ZN20complex_dynamic_type3app17h3f3b285ca1b71ffdE+0x14c>)
   22008:	2107      	movs	r1, #7
   2200a:	2200      	movs	r2, #0
   2200c:	4613      	mov	r3, r2
   2200e:	df03      	svc	3
   22010:	b027      	add	sp, #156	@ 0x9c
   22012:	bdf0      	pop	{r4, r5, r6, r7, pc}
   22014:	a805      	add	r0, sp, #20
   22016:	7800      	ldrb	r0, [r0, #0]
   22018:	2802      	cmp	r0, #2
   2201a:	d00c      	beq.n	22036 <_ZN20complex_dynamic_type3app17h3f3b285ca1b71ffdE+0xe6>
   2201c:	2803      	cmp	r0, #3
   2201e:	d105      	bne.n	2202c <_ZN20complex_dynamic_type3app17h3f3b285ca1b71ffdE+0xdc>
   22020:	481e      	ldr	r0, [pc, #120]	@ (2209c <_ZN20complex_dynamic_type3app17h3f3b285ca1b71ffdE+0x14c>)
   22022:	2107      	movs	r1, #7
   22024:	2200      	movs	r2, #0
   22026:	4613      	mov	r3, r2
   22028:	df03      	svc	3
   2202a:	e004      	b.n	22036 <_ZN20complex_dynamic_type3app17h3f3b285ca1b71ffdE+0xe6>
   2202c:	481b      	ldr	r0, [pc, #108]	@ (2209c <_ZN20complex_dynamic_type3app17h3f3b285ca1b71ffdE+0x14c>)
   2202e:	2107      	movs	r1, #7
   22030:	2200      	movs	r2, #0
   22032:	4613      	mov	r3, r2
   22034:	df04      	svc	4
   22036:	a805      	add	r0, sp, #20
   22038:	9901      	ldr	r1, [sp, #4]
   2203a:	7001      	strb	r1, [r0, #0]
   2203c:	a819      	add	r0, sp, #100	@ 0x64
   2203e:	7800      	ldrb	r0, [r0, #0]
   22040:	2804      	cmp	r0, #4
   22042:	d007      	beq.n	22054 <_ZN20complex_dynamic_type3app17h3f3b285ca1b71ffdE+0x104>
   22044:	2803      	cmp	r0, #3
   22046:	d11d      	bne.n	22084 <_ZN20complex_dynamic_type3app17h3f3b285ca1b71ffdE+0x134>
   22048:	4814      	ldr	r0, [pc, #80]	@ (2209c <_ZN20complex_dynamic_type3app17h3f3b285ca1b71ffdE+0x14c>)
   2204a:	2101      	movs	r1, #1
   2204c:	2200      	movs	r2, #0
   2204e:	4613      	mov	r3, r2
   22050:	df03      	svc	3
   22052:	e004      	b.n	2205e <_ZN20complex_dynamic_type3app17h3f3b285ca1b71ffdE+0x10e>
   22054:	4811      	ldr	r0, [pc, #68]	@ (2209c <_ZN20complex_dynamic_type3app17h3f3b285ca1b71ffdE+0x14c>)
   22056:	2101      	movs	r1, #1
   22058:	2200      	movs	r2, #0
   2205a:	4613      	mov	r3, r2
   2205c:	df04      	svc	4
   2205e:	a805      	add	r0, sp, #20
   22060:	7804      	ldrb	r4, [r0, #0]
   22062:	1c68      	adds	r0, r5, #1
   22064:	2235      	movs	r2, #53	@ 0x35
   22066:	9902      	ldr	r1, [sp, #8]
   22068:	f009 f84e 	bl	2b108 <__aeabi_memcpy>
   2206c:	702e      	strb	r6, [r5, #0]
   2206e:	2c02      	cmp	r4, #2
   22070:	d006      	beq.n	22080 <_ZN20complex_dynamic_type3app17h3f3b285ca1b71ffdE+0x130>
   22072:	480a      	ldr	r0, [pc, #40]	@ (2209c <_ZN20complex_dynamic_type3app17h3f3b285ca1b71ffdE+0x14c>)
   22074:	2107      	movs	r1, #7
   22076:	2200      	movs	r2, #0
   22078:	4613      	mov	r3, r2
   2207a:	2c04      	cmp	r4, #4
   2207c:	d10a      	bne.n	22094 <_ZN20complex_dynamic_type3app17h3f3b285ca1b71ffdE+0x144>
   2207e:	df04      	svc	4
   22080:	b027      	add	sp, #156	@ 0x9c
   22082:	bdf0      	pop	{r4, r5, r6, r7, pc}
   22084:	1c68      	adds	r0, r5, #1
   22086:	2235      	movs	r2, #53	@ 0x35
   22088:	9902      	ldr	r1, [sp, #8]
   2208a:	f009 f83d 	bl	2b108 <__aeabi_memcpy>
   2208e:	702e      	strb	r6, [r5, #0]
   22090:	b027      	add	sp, #156	@ 0x9c
   22092:	bdf0      	pop	{r4, r5, r6, r7, pc}
   22094:	df03      	svc	3
   22096:	b027      	add	sp, #156	@ 0x9c
   22098:	bdf0      	pop	{r4, r5, r6, r7, pc}
   2209a:	46c0      	nop			@ (mov r8, r8)
   2209c:	000016d7 	.word	0x000016d7

000220a0 <_ZN20complex_dynamic_type3app17h45f3776745265ca0E>:
   220a0:	b5f0      	push	{r4, r5, r6, r7, lr}
   220a2:	af03      	add	r7, sp, #12
   220a4:	b0a7      	sub	sp, #156	@ 0x9c
   220a6:	9003      	str	r0, [sp, #12]
   220a8:	a804      	add	r0, sp, #16
   220aa:	2402      	movs	r4, #2
   220ac:	7004      	strb	r4, [r0, #0]
   220ae:	1c46      	adds	r6, r0, #1
   220b0:	224f      	movs	r2, #79	@ 0x4f
   220b2:	9202      	str	r2, [sp, #8]
   220b4:	4630      	mov	r0, r6
   220b6:	f009 f827 	bl	2b108 <__aeabi_memcpy>
   220ba:	ad18      	add	r5, sp, #96	@ 0x60
   220bc:	1c68      	adds	r0, r5, #1
   220be:	213b      	movs	r1, #59	@ 0x3b
   220c0:	9001      	str	r0, [sp, #4]
   220c2:	f008 fe61 	bl	2ad88 <__aeabi_memclr>
   220c6:	9400      	str	r4, [sp, #0]
   220c8:	702c      	strb	r4, [r5, #0]
   220ca:	4848      	ldr	r0, [pc, #288]	@ (221ec <_ZN20complex_dynamic_type3app17h45f3776745265ca0E+0x14c>)
   220cc:	2108      	movs	r1, #8
   220ce:	4632      	mov	r2, r6
   220d0:	9b02      	ldr	r3, [sp, #8]
   220d2:	df04      	svc	4
   220d4:	2802      	cmp	r0, #2
   220d6:	d104      	bne.n	220e2 <_ZN20complex_dynamic_type3app17h45f3776745265ca0E+0x42>
   220d8:	2001      	movs	r0, #1
   220da:	9a03      	ldr	r2, [sp, #12]
   220dc:	7010      	strb	r0, [r2, #0]
   220de:	6051      	str	r1, [r2, #4]
   220e0:	e02d      	b.n	2213e <_ZN20complex_dynamic_type3app17h45f3776745265ca0E+0x9e>
   220e2:	9d03      	ldr	r5, [sp, #12]
   220e4:	a804      	add	r0, sp, #16
   220e6:	2104      	movs	r1, #4
   220e8:	7001      	strb	r1, [r0, #0]
   220ea:	4840      	ldr	r0, [pc, #256]	@ (221ec <_ZN20complex_dynamic_type3app17h45f3776745265ca0E+0x14c>)
   220ec:	2105      	movs	r1, #5
   220ee:	233b      	movs	r3, #59	@ 0x3b
   220f0:	9c01      	ldr	r4, [sp, #4]
   220f2:	4622      	mov	r2, r4
   220f4:	df03      	svc	3
   220f6:	2802      	cmp	r0, #2
   220f8:	d10e      	bne.n	22118 <_ZN20complex_dynamic_type3app17h45f3776745265ca0E+0x78>
   220fa:	2001      	movs	r0, #1
   220fc:	7028      	strb	r0, [r5, #0]
   220fe:	6069      	str	r1, [r5, #4]
   22100:	a818      	add	r0, sp, #96	@ 0x60
   22102:	7800      	ldrb	r0, [r0, #0]
   22104:	2802      	cmp	r0, #2
   22106:	d01a      	beq.n	2213e <_ZN20complex_dynamic_type3app17h45f3776745265ca0E+0x9e>
   22108:	2803      	cmp	r0, #3
   2210a:	d013      	beq.n	22134 <_ZN20complex_dynamic_type3app17h45f3776745265ca0E+0x94>
   2210c:	4837      	ldr	r0, [pc, #220]	@ (221ec <_ZN20complex_dynamic_type3app17h45f3776745265ca0E+0x14c>)
   2210e:	2105      	movs	r1, #5
   22110:	2200      	movs	r2, #0
   22112:	4613      	mov	r3, r2
   22114:	df04      	svc	4
   22116:	e012      	b.n	2213e <_ZN20complex_dynamic_type3app17h45f3776745265ca0E+0x9e>
   22118:	a818      	add	r0, sp, #96	@ 0x60
   2211a:	2103      	movs	r1, #3
   2211c:	7001      	strb	r1, [r0, #0]
   2211e:	4833      	ldr	r0, [pc, #204]	@ (221ec <_ZN20complex_dynamic_type3app17h45f3776745265ca0E+0x14c>)
   22120:	2108      	movs	r1, #8
   22122:	2205      	movs	r2, #5
   22124:	2600      	movs	r6, #0
   22126:	4633      	mov	r3, r6
   22128:	df02      	svc	2
   2212a:	2880      	cmp	r0, #128	@ 0x80
   2212c:	d21b      	bcs.n	22166 <_ZN20complex_dynamic_type3app17h45f3776745265ca0E+0xc6>
   2212e:	2001      	movs	r0, #1
   22130:	7028      	strb	r0, [r5, #0]
   22132:	6069      	str	r1, [r5, #4]
   22134:	482d      	ldr	r0, [pc, #180]	@ (221ec <_ZN20complex_dynamic_type3app17h45f3776745265ca0E+0x14c>)
   22136:	2105      	movs	r1, #5
   22138:	2200      	movs	r2, #0
   2213a:	4613      	mov	r3, r2
   2213c:	df03      	svc	3
   2213e:	a804      	add	r0, sp, #16
   22140:	7800      	ldrb	r0, [r0, #0]
   22142:	2802      	cmp	r0, #2
   22144:	d045      	beq.n	221d2 <_ZN20complex_dynamic_type3app17h45f3776745265ca0E+0x132>
   22146:	2804      	cmp	r0, #4
   22148:	d106      	bne.n	22158 <_ZN20complex_dynamic_type3app17h45f3776745265ca0E+0xb8>
   2214a:	4828      	ldr	r0, [pc, #160]	@ (221ec <_ZN20complex_dynamic_type3app17h45f3776745265ca0E+0x14c>)
   2214c:	2108      	movs	r1, #8
   2214e:	2200      	movs	r2, #0
   22150:	4613      	mov	r3, r2
   22152:	df04      	svc	4
   22154:	b027      	add	sp, #156	@ 0x9c
   22156:	bdf0      	pop	{r4, r5, r6, r7, pc}
   22158:	4824      	ldr	r0, [pc, #144]	@ (221ec <_ZN20complex_dynamic_type3app17h45f3776745265ca0E+0x14c>)
   2215a:	2108      	movs	r1, #8
   2215c:	2200      	movs	r2, #0
   2215e:	4613      	mov	r3, r2
   22160:	df03      	svc	3
   22162:	b027      	add	sp, #156	@ 0x9c
   22164:	bdf0      	pop	{r4, r5, r6, r7, pc}
   22166:	a804      	add	r0, sp, #16
   22168:	7800      	ldrb	r0, [r0, #0]
   2216a:	2802      	cmp	r0, #2
   2216c:	d00c      	beq.n	22188 <_ZN20complex_dynamic_type3app17h45f3776745265ca0E+0xe8>
   2216e:	2803      	cmp	r0, #3
   22170:	d105      	bne.n	2217e <_ZN20complex_dynamic_type3app17h45f3776745265ca0E+0xde>
   22172:	481e      	ldr	r0, [pc, #120]	@ (221ec <_ZN20complex_dynamic_type3app17h45f3776745265ca0E+0x14c>)
   22174:	2108      	movs	r1, #8
   22176:	2200      	movs	r2, #0
   22178:	4613      	mov	r3, r2
   2217a:	df03      	svc	3
   2217c:	e004      	b.n	22188 <_ZN20complex_dynamic_type3app17h45f3776745265ca0E+0xe8>
   2217e:	481b      	ldr	r0, [pc, #108]	@ (221ec <_ZN20complex_dynamic_type3app17h45f3776745265ca0E+0x14c>)
   22180:	2108      	movs	r1, #8
   22182:	2200      	movs	r2, #0
   22184:	4613      	mov	r3, r2
   22186:	df04      	svc	4
   22188:	a804      	add	r0, sp, #16
   2218a:	9900      	ldr	r1, [sp, #0]
   2218c:	7001      	strb	r1, [r0, #0]
   2218e:	a818      	add	r0, sp, #96	@ 0x60
   22190:	7800      	ldrb	r0, [r0, #0]
   22192:	2804      	cmp	r0, #4
   22194:	d007      	beq.n	221a6 <_ZN20complex_dynamic_type3app17h45f3776745265ca0E+0x106>
   22196:	2803      	cmp	r0, #3
   22198:	d11d      	bne.n	221d6 <_ZN20complex_dynamic_type3app17h45f3776745265ca0E+0x136>
   2219a:	4814      	ldr	r0, [pc, #80]	@ (221ec <_ZN20complex_dynamic_type3app17h45f3776745265ca0E+0x14c>)
   2219c:	2105      	movs	r1, #5
   2219e:	2200      	movs	r2, #0
   221a0:	4613      	mov	r3, r2
   221a2:	df03      	svc	3
   221a4:	e004      	b.n	221b0 <_ZN20complex_dynamic_type3app17h45f3776745265ca0E+0x110>
   221a6:	4811      	ldr	r0, [pc, #68]	@ (221ec <_ZN20complex_dynamic_type3app17h45f3776745265ca0E+0x14c>)
   221a8:	2105      	movs	r1, #5
   221aa:	2200      	movs	r2, #0
   221ac:	4613      	mov	r3, r2
   221ae:	df04      	svc	4
   221b0:	a804      	add	r0, sp, #16
   221b2:	7804      	ldrb	r4, [r0, #0]
   221b4:	1c68      	adds	r0, r5, #1
   221b6:	223b      	movs	r2, #59	@ 0x3b
   221b8:	9901      	ldr	r1, [sp, #4]
   221ba:	f008 ffa5 	bl	2b108 <__aeabi_memcpy>
   221be:	702e      	strb	r6, [r5, #0]
   221c0:	2c02      	cmp	r4, #2
   221c2:	d006      	beq.n	221d2 <_ZN20complex_dynamic_type3app17h45f3776745265ca0E+0x132>
   221c4:	4809      	ldr	r0, [pc, #36]	@ (221ec <_ZN20complex_dynamic_type3app17h45f3776745265ca0E+0x14c>)
   221c6:	2108      	movs	r1, #8
   221c8:	2200      	movs	r2, #0
   221ca:	4613      	mov	r3, r2
   221cc:	2c04      	cmp	r4, #4
   221ce:	d10a      	bne.n	221e6 <_ZN20complex_dynamic_type3app17h45f3776745265ca0E+0x146>
   221d0:	df04      	svc	4
   221d2:	b027      	add	sp, #156	@ 0x9c
   221d4:	bdf0      	pop	{r4, r5, r6, r7, pc}
   221d6:	1c68      	adds	r0, r5, #1
   221d8:	223b      	movs	r2, #59	@ 0x3b
   221da:	4621      	mov	r1, r4
   221dc:	f008 ff94 	bl	2b108 <__aeabi_memcpy>
   221e0:	702e      	strb	r6, [r5, #0]
   221e2:	b027      	add	sp, #156	@ 0x9c
   221e4:	bdf0      	pop	{r4, r5, r6, r7, pc}
   221e6:	df03      	svc	3
   221e8:	b027      	add	sp, #156	@ 0x9c
   221ea:	bdf0      	pop	{r4, r5, r6, r7, pc}
   221ec:	00000a06 	.word	0x00000a06

000221f0 <_ZN20complex_dynamic_type3app17h48a9db16e4990c2eE>:
   221f0:	b5f0      	push	{r4, r5, r6, r7, lr}
   221f2:	af03      	add	r7, sp, #12
   221f4:	b0a5      	sub	sp, #148	@ 0x94
   221f6:	9004      	str	r0, [sp, #16]
   221f8:	a805      	add	r0, sp, #20
   221fa:	2402      	movs	r4, #2
   221fc:	7004      	strb	r4, [r0, #0]
   221fe:	1c46      	adds	r6, r0, #1
   22200:	2231      	movs	r2, #49	@ 0x31
   22202:	9203      	str	r2, [sp, #12]
   22204:	4630      	mov	r0, r6
   22206:	f008 ff7f 	bl	2b108 <__aeabi_memcpy>
   2220a:	ad12      	add	r5, sp, #72	@ 0x48
   2220c:	1c68      	adds	r0, r5, #1
   2220e:	2148      	movs	r1, #72	@ 0x48
   22210:	9002      	str	r0, [sp, #8]
   22212:	f008 fdb9 	bl	2ad88 <__aeabi_memclr>
   22216:	9401      	str	r4, [sp, #4]
   22218:	702c      	strb	r4, [r5, #0]
   2221a:	4848      	ldr	r0, [pc, #288]	@ (2233c <_ZN20complex_dynamic_type3app17h48a9db16e4990c2eE+0x14c>)
   2221c:	2504      	movs	r5, #4
   2221e:	4629      	mov	r1, r5
   22220:	4632      	mov	r2, r6
   22222:	9b03      	ldr	r3, [sp, #12]
   22224:	df04      	svc	4
   22226:	2802      	cmp	r0, #2
   22228:	d104      	bne.n	22234 <_ZN20complex_dynamic_type3app17h48a9db16e4990c2eE+0x44>
   2222a:	2001      	movs	r0, #1
   2222c:	9a04      	ldr	r2, [sp, #16]
   2222e:	7010      	strb	r0, [r2, #0]
   22230:	6051      	str	r1, [r2, #4]
   22232:	e02b      	b.n	2228c <_ZN20complex_dynamic_type3app17h48a9db16e4990c2eE+0x9c>
   22234:	9e04      	ldr	r6, [sp, #16]
   22236:	a805      	add	r0, sp, #20
   22238:	7005      	strb	r5, [r0, #0]
   2223a:	4840      	ldr	r0, [pc, #256]	@ (2233c <_ZN20complex_dynamic_type3app17h48a9db16e4990c2eE+0x14c>)
   2223c:	2403      	movs	r4, #3
   2223e:	2348      	movs	r3, #72	@ 0x48
   22240:	4621      	mov	r1, r4
   22242:	9a02      	ldr	r2, [sp, #8]
   22244:	df03      	svc	3
   22246:	2802      	cmp	r0, #2
   22248:	d10e      	bne.n	22268 <_ZN20complex_dynamic_type3app17h48a9db16e4990c2eE+0x78>
   2224a:	2001      	movs	r0, #1
   2224c:	7030      	strb	r0, [r6, #0]
   2224e:	6071      	str	r1, [r6, #4]
   22250:	a812      	add	r0, sp, #72	@ 0x48
   22252:	7800      	ldrb	r0, [r0, #0]
   22254:	2802      	cmp	r0, #2
   22256:	d019      	beq.n	2228c <_ZN20complex_dynamic_type3app17h48a9db16e4990c2eE+0x9c>
   22258:	2803      	cmp	r0, #3
   2225a:	d012      	beq.n	22282 <_ZN20complex_dynamic_type3app17h48a9db16e4990c2eE+0x92>
   2225c:	4837      	ldr	r0, [pc, #220]	@ (2233c <_ZN20complex_dynamic_type3app17h48a9db16e4990c2eE+0x14c>)
   2225e:	2103      	movs	r1, #3
   22260:	2200      	movs	r2, #0
   22262:	4613      	mov	r3, r2
   22264:	df04      	svc	4
   22266:	e011      	b.n	2228c <_ZN20complex_dynamic_type3app17h48a9db16e4990c2eE+0x9c>
   22268:	a812      	add	r0, sp, #72	@ 0x48
   2226a:	7004      	strb	r4, [r0, #0]
   2226c:	4833      	ldr	r0, [pc, #204]	@ (2233c <_ZN20complex_dynamic_type3app17h48a9db16e4990c2eE+0x14c>)
   2226e:	2104      	movs	r1, #4
   22270:	2500      	movs	r5, #0
   22272:	4622      	mov	r2, r4
   22274:	462b      	mov	r3, r5
   22276:	df02      	svc	2
   22278:	2880      	cmp	r0, #128	@ 0x80
   2227a:	d21b      	bcs.n	222b4 <_ZN20complex_dynamic_type3app17h48a9db16e4990c2eE+0xc4>
   2227c:	2001      	movs	r0, #1
   2227e:	7030      	strb	r0, [r6, #0]
   22280:	6071      	str	r1, [r6, #4]
   22282:	482e      	ldr	r0, [pc, #184]	@ (2233c <_ZN20complex_dynamic_type3app17h48a9db16e4990c2eE+0x14c>)
   22284:	2103      	movs	r1, #3
   22286:	2200      	movs	r2, #0
   22288:	4613      	mov	r3, r2
   2228a:	df03      	svc	3
   2228c:	a805      	add	r0, sp, #20
   2228e:	7800      	ldrb	r0, [r0, #0]
   22290:	2802      	cmp	r0, #2
   22292:	d045      	beq.n	22320 <_ZN20complex_dynamic_type3app17h48a9db16e4990c2eE+0x130>
   22294:	2804      	cmp	r0, #4
   22296:	d106      	bne.n	222a6 <_ZN20complex_dynamic_type3app17h48a9db16e4990c2eE+0xb6>
   22298:	4828      	ldr	r0, [pc, #160]	@ (2233c <_ZN20complex_dynamic_type3app17h48a9db16e4990c2eE+0x14c>)
   2229a:	2104      	movs	r1, #4
   2229c:	2200      	movs	r2, #0
   2229e:	4613      	mov	r3, r2
   222a0:	df04      	svc	4
   222a2:	b025      	add	sp, #148	@ 0x94
   222a4:	bdf0      	pop	{r4, r5, r6, r7, pc}
   222a6:	4825      	ldr	r0, [pc, #148]	@ (2233c <_ZN20complex_dynamic_type3app17h48a9db16e4990c2eE+0x14c>)
   222a8:	2104      	movs	r1, #4
   222aa:	2200      	movs	r2, #0
   222ac:	4613      	mov	r3, r2
   222ae:	df03      	svc	3
   222b0:	b025      	add	sp, #148	@ 0x94
   222b2:	bdf0      	pop	{r4, r5, r6, r7, pc}
   222b4:	a805      	add	r0, sp, #20
   222b6:	7800      	ldrb	r0, [r0, #0]
   222b8:	2802      	cmp	r0, #2
   222ba:	d00c      	beq.n	222d6 <_ZN20complex_dynamic_type3app17h48a9db16e4990c2eE+0xe6>
   222bc:	2803      	cmp	r0, #3
   222be:	d105      	bne.n	222cc <_ZN20complex_dynamic_type3app17h48a9db16e4990c2eE+0xdc>
   222c0:	481e      	ldr	r0, [pc, #120]	@ (2233c <_ZN20complex_dynamic_type3app17h48a9db16e4990c2eE+0x14c>)
   222c2:	2104      	movs	r1, #4
   222c4:	2200      	movs	r2, #0
   222c6:	4613      	mov	r3, r2
   222c8:	df03      	svc	3
   222ca:	e004      	b.n	222d6 <_ZN20complex_dynamic_type3app17h48a9db16e4990c2eE+0xe6>
   222cc:	481b      	ldr	r0, [pc, #108]	@ (2233c <_ZN20complex_dynamic_type3app17h48a9db16e4990c2eE+0x14c>)
   222ce:	2104      	movs	r1, #4
   222d0:	2200      	movs	r2, #0
   222d2:	4613      	mov	r3, r2
   222d4:	df04      	svc	4
   222d6:	a805      	add	r0, sp, #20
   222d8:	9901      	ldr	r1, [sp, #4]
   222da:	7001      	strb	r1, [r0, #0]
   222dc:	a812      	add	r0, sp, #72	@ 0x48
   222de:	7800      	ldrb	r0, [r0, #0]
   222e0:	2804      	cmp	r0, #4
   222e2:	d007      	beq.n	222f4 <_ZN20complex_dynamic_type3app17h48a9db16e4990c2eE+0x104>
   222e4:	2803      	cmp	r0, #3
   222e6:	d11d      	bne.n	22324 <_ZN20complex_dynamic_type3app17h48a9db16e4990c2eE+0x134>
   222e8:	4814      	ldr	r0, [pc, #80]	@ (2233c <_ZN20complex_dynamic_type3app17h48a9db16e4990c2eE+0x14c>)
   222ea:	2103      	movs	r1, #3
   222ec:	2200      	movs	r2, #0
   222ee:	4613      	mov	r3, r2
   222f0:	df03      	svc	3
   222f2:	e004      	b.n	222fe <_ZN20complex_dynamic_type3app17h48a9db16e4990c2eE+0x10e>
   222f4:	4811      	ldr	r0, [pc, #68]	@ (2233c <_ZN20complex_dynamic_type3app17h48a9db16e4990c2eE+0x14c>)
   222f6:	2103      	movs	r1, #3
   222f8:	2200      	movs	r2, #0
   222fa:	4613      	mov	r3, r2
   222fc:	df04      	svc	4
   222fe:	a805      	add	r0, sp, #20
   22300:	7804      	ldrb	r4, [r0, #0]
   22302:	1c70      	adds	r0, r6, #1
   22304:	2248      	movs	r2, #72	@ 0x48
   22306:	9902      	ldr	r1, [sp, #8]
   22308:	f008 fefe 	bl	2b108 <__aeabi_memcpy>
   2230c:	7035      	strb	r5, [r6, #0]
   2230e:	2c02      	cmp	r4, #2
   22310:	d006      	beq.n	22320 <_ZN20complex_dynamic_type3app17h48a9db16e4990c2eE+0x130>
   22312:	480a      	ldr	r0, [pc, #40]	@ (2233c <_ZN20complex_dynamic_type3app17h48a9db16e4990c2eE+0x14c>)
   22314:	2104      	movs	r1, #4
   22316:	2200      	movs	r2, #0
   22318:	4613      	mov	r3, r2
   2231a:	2c04      	cmp	r4, #4
   2231c:	d10a      	bne.n	22334 <_ZN20complex_dynamic_type3app17h48a9db16e4990c2eE+0x144>
   2231e:	df04      	svc	4
   22320:	b025      	add	sp, #148	@ 0x94
   22322:	bdf0      	pop	{r4, r5, r6, r7, pc}
   22324:	1c70      	adds	r0, r6, #1
   22326:	2248      	movs	r2, #72	@ 0x48
   22328:	9902      	ldr	r1, [sp, #8]
   2232a:	f008 feed 	bl	2b108 <__aeabi_memcpy>
   2232e:	7035      	strb	r5, [r6, #0]
   22330:	b025      	add	sp, #148	@ 0x94
   22332:	bdf0      	pop	{r4, r5, r6, r7, pc}
   22334:	df03      	svc	3
   22336:	b025      	add	sp, #148	@ 0x94
   22338:	bdf0      	pop	{r4, r5, r6, r7, pc}
   2233a:	46c0      	nop			@ (mov r8, r8)
   2233c:	0000180e 	.word	0x0000180e

00022340 <_ZN20complex_dynamic_type3app17h4cabf9af9be69d13E>:
   22340:	b5f0      	push	{r4, r5, r6, r7, lr}
   22342:	af03      	add	r7, sp, #12
   22344:	b08d      	sub	sp, #52	@ 0x34
   22346:	9003      	str	r0, [sp, #12]
   22348:	a804      	add	r0, sp, #16
   2234a:	2402      	movs	r4, #2
   2234c:	7004      	strb	r4, [r0, #0]
   2234e:	1c40      	adds	r0, r0, #1
   22350:	9002      	str	r0, [sp, #8]
   22352:	250f      	movs	r5, #15
   22354:	462a      	mov	r2, r5
   22356:	f008 fed7 	bl	2b108 <__aeabi_memcpy>
   2235a:	ae08      	add	r6, sp, #32
   2235c:	1c70      	adds	r0, r6, #1
   2235e:	2113      	movs	r1, #19
   22360:	9001      	str	r0, [sp, #4]
   22362:	f008 fd11 	bl	2ad88 <__aeabi_memclr>
   22366:	9400      	str	r4, [sp, #0]
   22368:	7034      	strb	r4, [r6, #0]
   2236a:	484a      	ldr	r0, [pc, #296]	@ (22494 <_ZN20complex_dynamic_type3app17h4cabf9af9be69d13E+0x154>)
   2236c:	2603      	movs	r6, #3
   2236e:	4631      	mov	r1, r6
   22370:	9a02      	ldr	r2, [sp, #8]
   22372:	462b      	mov	r3, r5
   22374:	df04      	svc	4
   22376:	2802      	cmp	r0, #2
   22378:	d104      	bne.n	22384 <_ZN20complex_dynamic_type3app17h4cabf9af9be69d13E+0x44>
   2237a:	2001      	movs	r0, #1
   2237c:	9a03      	ldr	r2, [sp, #12]
   2237e:	7010      	strb	r0, [r2, #0]
   22380:	6051      	str	r1, [r2, #4]
   22382:	e02c      	b.n	223de <_ZN20complex_dynamic_type3app17h4cabf9af9be69d13E+0x9e>
   22384:	9d03      	ldr	r5, [sp, #12]
   22386:	a804      	add	r0, sp, #16
   22388:	2104      	movs	r1, #4
   2238a:	7001      	strb	r1, [r0, #0]
   2238c:	4841      	ldr	r0, [pc, #260]	@ (22494 <_ZN20complex_dynamic_type3app17h4cabf9af9be69d13E+0x154>)
   2238e:	2100      	movs	r1, #0
   22390:	2313      	movs	r3, #19
   22392:	9c01      	ldr	r4, [sp, #4]
   22394:	4622      	mov	r2, r4
   22396:	df03      	svc	3
   22398:	2802      	cmp	r0, #2
   2239a:	d10e      	bne.n	223ba <_ZN20complex_dynamic_type3app17h4cabf9af9be69d13E+0x7a>
   2239c:	2001      	movs	r0, #1
   2239e:	7028      	strb	r0, [r5, #0]
   223a0:	6069      	str	r1, [r5, #4]
   223a2:	a808      	add	r0, sp, #32
   223a4:	7800      	ldrb	r0, [r0, #0]
   223a6:	2802      	cmp	r0, #2
   223a8:	d019      	beq.n	223de <_ZN20complex_dynamic_type3app17h4cabf9af9be69d13E+0x9e>
   223aa:	2803      	cmp	r0, #3
   223ac:	d012      	beq.n	223d4 <_ZN20complex_dynamic_type3app17h4cabf9af9be69d13E+0x94>
   223ae:	4839      	ldr	r0, [pc, #228]	@ (22494 <_ZN20complex_dynamic_type3app17h4cabf9af9be69d13E+0x154>)
   223b0:	2100      	movs	r1, #0
   223b2:	460a      	mov	r2, r1
   223b4:	460b      	mov	r3, r1
   223b6:	df04      	svc	4
   223b8:	e011      	b.n	223de <_ZN20complex_dynamic_type3app17h4cabf9af9be69d13E+0x9e>
   223ba:	a808      	add	r0, sp, #32
   223bc:	7006      	strb	r6, [r0, #0]
   223be:	4835      	ldr	r0, [pc, #212]	@ (22494 <_ZN20complex_dynamic_type3app17h4cabf9af9be69d13E+0x154>)
   223c0:	2200      	movs	r2, #0
   223c2:	4631      	mov	r1, r6
   223c4:	9202      	str	r2, [sp, #8]
   223c6:	4613      	mov	r3, r2
   223c8:	df02      	svc	2
   223ca:	2880      	cmp	r0, #128	@ 0x80
   223cc:	d21b      	bcs.n	22406 <_ZN20complex_dynamic_type3app17h4cabf9af9be69d13E+0xc6>
   223ce:	2001      	movs	r0, #1
   223d0:	7028      	strb	r0, [r5, #0]
   223d2:	6069      	str	r1, [r5, #4]
   223d4:	482f      	ldr	r0, [pc, #188]	@ (22494 <_ZN20complex_dynamic_type3app17h4cabf9af9be69d13E+0x154>)
   223d6:	2100      	movs	r1, #0
   223d8:	460a      	mov	r2, r1
   223da:	460b      	mov	r3, r1
   223dc:	df03      	svc	3
   223de:	a804      	add	r0, sp, #16
   223e0:	7800      	ldrb	r0, [r0, #0]
   223e2:	2802      	cmp	r0, #2
   223e4:	d048      	beq.n	22478 <_ZN20complex_dynamic_type3app17h4cabf9af9be69d13E+0x138>
   223e6:	2804      	cmp	r0, #4
   223e8:	d106      	bne.n	223f8 <_ZN20complex_dynamic_type3app17h4cabf9af9be69d13E+0xb8>
   223ea:	482a      	ldr	r0, [pc, #168]	@ (22494 <_ZN20complex_dynamic_type3app17h4cabf9af9be69d13E+0x154>)
   223ec:	2103      	movs	r1, #3
   223ee:	2200      	movs	r2, #0
   223f0:	4613      	mov	r3, r2
   223f2:	df04      	svc	4
   223f4:	b00d      	add	sp, #52	@ 0x34
   223f6:	bdf0      	pop	{r4, r5, r6, r7, pc}
   223f8:	4826      	ldr	r0, [pc, #152]	@ (22494 <_ZN20complex_dynamic_type3app17h4cabf9af9be69d13E+0x154>)
   223fa:	2103      	movs	r1, #3
   223fc:	2200      	movs	r2, #0
   223fe:	4613      	mov	r3, r2
   22400:	df03      	svc	3
   22402:	b00d      	add	sp, #52	@ 0x34
   22404:	bdf0      	pop	{r4, r5, r6, r7, pc}
   22406:	a804      	add	r0, sp, #16
   22408:	7800      	ldrb	r0, [r0, #0]
   2240a:	2802      	cmp	r0, #2
   2240c:	d00c      	beq.n	22428 <_ZN20complex_dynamic_type3app17h4cabf9af9be69d13E+0xe8>
   2240e:	2803      	cmp	r0, #3
   22410:	d105      	bne.n	2241e <_ZN20complex_dynamic_type3app17h4cabf9af9be69d13E+0xde>
   22412:	4820      	ldr	r0, [pc, #128]	@ (22494 <_ZN20complex_dynamic_type3app17h4cabf9af9be69d13E+0x154>)
   22414:	2103      	movs	r1, #3
   22416:	2200      	movs	r2, #0
   22418:	4613      	mov	r3, r2
   2241a:	df03      	svc	3
   2241c:	e004      	b.n	22428 <_ZN20complex_dynamic_type3app17h4cabf9af9be69d13E+0xe8>
   2241e:	481d      	ldr	r0, [pc, #116]	@ (22494 <_ZN20complex_dynamic_type3app17h4cabf9af9be69d13E+0x154>)
   22420:	2103      	movs	r1, #3
   22422:	2200      	movs	r2, #0
   22424:	4613      	mov	r3, r2
   22426:	df04      	svc	4
   22428:	a804      	add	r0, sp, #16
   2242a:	9900      	ldr	r1, [sp, #0]
   2242c:	7001      	strb	r1, [r0, #0]
   2242e:	a808      	add	r0, sp, #32
   22430:	7800      	ldrb	r0, [r0, #0]
   22432:	2804      	cmp	r0, #4
   22434:	d008      	beq.n	22448 <_ZN20complex_dynamic_type3app17h4cabf9af9be69d13E+0x108>
   22436:	2803      	cmp	r0, #3
   22438:	d120      	bne.n	2247c <_ZN20complex_dynamic_type3app17h4cabf9af9be69d13E+0x13c>
   2243a:	4626      	mov	r6, r4
   2243c:	4815      	ldr	r0, [pc, #84]	@ (22494 <_ZN20complex_dynamic_type3app17h4cabf9af9be69d13E+0x154>)
   2243e:	2100      	movs	r1, #0
   22440:	460a      	mov	r2, r1
   22442:	460b      	mov	r3, r1
   22444:	df03      	svc	3
   22446:	e005      	b.n	22454 <_ZN20complex_dynamic_type3app17h4cabf9af9be69d13E+0x114>
   22448:	4626      	mov	r6, r4
   2244a:	4812      	ldr	r0, [pc, #72]	@ (22494 <_ZN20complex_dynamic_type3app17h4cabf9af9be69d13E+0x154>)
   2244c:	2100      	movs	r1, #0
   2244e:	460a      	mov	r2, r1
   22450:	460b      	mov	r3, r1
   22452:	df04      	svc	4
   22454:	a804      	add	r0, sp, #16
   22456:	7804      	ldrb	r4, [r0, #0]
   22458:	1c68      	adds	r0, r5, #1
   2245a:	2213      	movs	r2, #19
   2245c:	4631      	mov	r1, r6
   2245e:	f008 fe53 	bl	2b108 <__aeabi_memcpy>
   22462:	9802      	ldr	r0, [sp, #8]
   22464:	7028      	strb	r0, [r5, #0]
   22466:	2c02      	cmp	r4, #2
   22468:	d006      	beq.n	22478 <_ZN20complex_dynamic_type3app17h4cabf9af9be69d13E+0x138>
   2246a:	480a      	ldr	r0, [pc, #40]	@ (22494 <_ZN20complex_dynamic_type3app17h4cabf9af9be69d13E+0x154>)
   2246c:	2103      	movs	r1, #3
   2246e:	2200      	movs	r2, #0
   22470:	4613      	mov	r3, r2
   22472:	2c04      	cmp	r4, #4
   22474:	d10b      	bne.n	2248e <_ZN20complex_dynamic_type3app17h4cabf9af9be69d13E+0x14e>
   22476:	df04      	svc	4
   22478:	b00d      	add	sp, #52	@ 0x34
   2247a:	bdf0      	pop	{r4, r5, r6, r7, pc}
   2247c:	1c68      	adds	r0, r5, #1
   2247e:	2213      	movs	r2, #19
   22480:	4621      	mov	r1, r4
   22482:	f008 fe41 	bl	2b108 <__aeabi_memcpy>
   22486:	9802      	ldr	r0, [sp, #8]
   22488:	7028      	strb	r0, [r5, #0]
   2248a:	b00d      	add	sp, #52	@ 0x34
   2248c:	bdf0      	pop	{r4, r5, r6, r7, pc}
   2248e:	df03      	svc	3
   22490:	b00d      	add	sp, #52	@ 0x34
   22492:	bdf0      	pop	{r4, r5, r6, r7, pc}
   22494:	00001e4b 	.word	0x00001e4b

00022498 <_ZN20complex_dynamic_type3app17h50feef0d2ce7c3a2E>:
   22498:	b5f0      	push	{r4, r5, r6, r7, lr}
   2249a:	af03      	add	r7, sp, #12
   2249c:	b0a7      	sub	sp, #156	@ 0x9c
   2249e:	9002      	str	r0, [sp, #8]
   224a0:	a803      	add	r0, sp, #12
   224a2:	2502      	movs	r5, #2
   224a4:	7005      	strb	r5, [r0, #0]
   224a6:	1c46      	adds	r6, r0, #1
   224a8:	222f      	movs	r2, #47	@ 0x2f
   224aa:	9201      	str	r2, [sp, #4]
   224ac:	4630      	mov	r0, r6
   224ae:	f008 fe2b 	bl	2b108 <__aeabi_memcpy>
   224b2:	ac0f      	add	r4, sp, #60	@ 0x3c
   224b4:	1c60      	adds	r0, r4, #1
   224b6:	215e      	movs	r1, #94	@ 0x5e
   224b8:	9000      	str	r0, [sp, #0]
   224ba:	f008 fc65 	bl	2ad88 <__aeabi_memclr>
   224be:	7025      	strb	r5, [r4, #0]
   224c0:	484a      	ldr	r0, [pc, #296]	@ (225ec <_ZN20complex_dynamic_type3app17h50feef0d2ce7c3a2E+0x154>)
   224c2:	2105      	movs	r1, #5
   224c4:	4632      	mov	r2, r6
   224c6:	9b01      	ldr	r3, [sp, #4]
   224c8:	df04      	svc	4
   224ca:	2802      	cmp	r0, #2
   224cc:	d104      	bne.n	224d8 <_ZN20complex_dynamic_type3app17h50feef0d2ce7c3a2E+0x40>
   224ce:	2001      	movs	r0, #1
   224d0:	9a02      	ldr	r2, [sp, #8]
   224d2:	7010      	strb	r0, [r2, #0]
   224d4:	6051      	str	r1, [r2, #4]
   224d6:	e02e      	b.n	22536 <_ZN20complex_dynamic_type3app17h50feef0d2ce7c3a2E+0x9e>
   224d8:	9d02      	ldr	r5, [sp, #8]
   224da:	a803      	add	r0, sp, #12
   224dc:	2104      	movs	r1, #4
   224de:	7001      	strb	r1, [r0, #0]
   224e0:	4842      	ldr	r0, [pc, #264]	@ (225ec <_ZN20complex_dynamic_type3app17h50feef0d2ce7c3a2E+0x154>)
   224e2:	2102      	movs	r1, #2
   224e4:	235e      	movs	r3, #94	@ 0x5e
   224e6:	9c00      	ldr	r4, [sp, #0]
   224e8:	4622      	mov	r2, r4
   224ea:	df03      	svc	3
   224ec:	2802      	cmp	r0, #2
   224ee:	d10e      	bne.n	2250e <_ZN20complex_dynamic_type3app17h50feef0d2ce7c3a2E+0x76>
   224f0:	2001      	movs	r0, #1
   224f2:	7028      	strb	r0, [r5, #0]
   224f4:	6069      	str	r1, [r5, #4]
   224f6:	a80f      	add	r0, sp, #60	@ 0x3c
   224f8:	7800      	ldrb	r0, [r0, #0]
   224fa:	2802      	cmp	r0, #2
   224fc:	d01b      	beq.n	22536 <_ZN20complex_dynamic_type3app17h50feef0d2ce7c3a2E+0x9e>
   224fe:	2803      	cmp	r0, #3
   22500:	d014      	beq.n	2252c <_ZN20complex_dynamic_type3app17h50feef0d2ce7c3a2E+0x94>
   22502:	483a      	ldr	r0, [pc, #232]	@ (225ec <_ZN20complex_dynamic_type3app17h50feef0d2ce7c3a2E+0x154>)
   22504:	2102      	movs	r1, #2
   22506:	2200      	movs	r2, #0
   22508:	4613      	mov	r3, r2
   2250a:	df04      	svc	4
   2250c:	e013      	b.n	22536 <_ZN20complex_dynamic_type3app17h50feef0d2ce7c3a2E+0x9e>
   2250e:	a80f      	add	r0, sp, #60	@ 0x3c
   22510:	2103      	movs	r1, #3
   22512:	7001      	strb	r1, [r0, #0]
   22514:	4835      	ldr	r0, [pc, #212]	@ (225ec <_ZN20complex_dynamic_type3app17h50feef0d2ce7c3a2E+0x154>)
   22516:	2105      	movs	r1, #5
   22518:	2602      	movs	r6, #2
   2251a:	2300      	movs	r3, #0
   2251c:	4632      	mov	r2, r6
   2251e:	9301      	str	r3, [sp, #4]
   22520:	df02      	svc	2
   22522:	2880      	cmp	r0, #128	@ 0x80
   22524:	d21b      	bcs.n	2255e <_ZN20complex_dynamic_type3app17h50feef0d2ce7c3a2E+0xc6>
   22526:	2001      	movs	r0, #1
   22528:	7028      	strb	r0, [r5, #0]
   2252a:	6069      	str	r1, [r5, #4]
   2252c:	482f      	ldr	r0, [pc, #188]	@ (225ec <_ZN20complex_dynamic_type3app17h50feef0d2ce7c3a2E+0x154>)
   2252e:	2102      	movs	r1, #2
   22530:	2200      	movs	r2, #0
   22532:	4613      	mov	r3, r2
   22534:	df03      	svc	3
   22536:	a803      	add	r0, sp, #12
   22538:	7800      	ldrb	r0, [r0, #0]
   2253a:	2802      	cmp	r0, #2
   2253c:	d047      	beq.n	225ce <_ZN20complex_dynamic_type3app17h50feef0d2ce7c3a2E+0x136>
   2253e:	2804      	cmp	r0, #4
   22540:	d106      	bne.n	22550 <_ZN20complex_dynamic_type3app17h50feef0d2ce7c3a2E+0xb8>
   22542:	482a      	ldr	r0, [pc, #168]	@ (225ec <_ZN20complex_dynamic_type3app17h50feef0d2ce7c3a2E+0x154>)
   22544:	2105      	movs	r1, #5
   22546:	2200      	movs	r2, #0
   22548:	4613      	mov	r3, r2
   2254a:	df04      	svc	4
   2254c:	b027      	add	sp, #156	@ 0x9c
   2254e:	bdf0      	pop	{r4, r5, r6, r7, pc}
   22550:	4826      	ldr	r0, [pc, #152]	@ (225ec <_ZN20complex_dynamic_type3app17h50feef0d2ce7c3a2E+0x154>)
   22552:	2105      	movs	r1, #5
   22554:	2200      	movs	r2, #0
   22556:	4613      	mov	r3, r2
   22558:	df03      	svc	3
   2255a:	b027      	add	sp, #156	@ 0x9c
   2255c:	bdf0      	pop	{r4, r5, r6, r7, pc}
   2255e:	a803      	add	r0, sp, #12
   22560:	7800      	ldrb	r0, [r0, #0]
   22562:	2802      	cmp	r0, #2
   22564:	d00c      	beq.n	22580 <_ZN20complex_dynamic_type3app17h50feef0d2ce7c3a2E+0xe8>
   22566:	2803      	cmp	r0, #3
   22568:	d105      	bne.n	22576 <_ZN20complex_dynamic_type3app17h50feef0d2ce7c3a2E+0xde>
   2256a:	4820      	ldr	r0, [pc, #128]	@ (225ec <_ZN20complex_dynamic_type3app17h50feef0d2ce7c3a2E+0x154>)
   2256c:	2105      	movs	r1, #5
   2256e:	2200      	movs	r2, #0
   22570:	4613      	mov	r3, r2
   22572:	df03      	svc	3
   22574:	e004      	b.n	22580 <_ZN20complex_dynamic_type3app17h50feef0d2ce7c3a2E+0xe8>
   22576:	481d      	ldr	r0, [pc, #116]	@ (225ec <_ZN20complex_dynamic_type3app17h50feef0d2ce7c3a2E+0x154>)
   22578:	2105      	movs	r1, #5
   2257a:	2200      	movs	r2, #0
   2257c:	4613      	mov	r3, r2
   2257e:	df04      	svc	4
   22580:	a803      	add	r0, sp, #12
   22582:	7006      	strb	r6, [r0, #0]
   22584:	a80f      	add	r0, sp, #60	@ 0x3c
   22586:	7800      	ldrb	r0, [r0, #0]
   22588:	2804      	cmp	r0, #4
   2258a:	d008      	beq.n	2259e <_ZN20complex_dynamic_type3app17h50feef0d2ce7c3a2E+0x106>
   2258c:	2803      	cmp	r0, #3
   2258e:	d120      	bne.n	225d2 <_ZN20complex_dynamic_type3app17h50feef0d2ce7c3a2E+0x13a>
   22590:	4626      	mov	r6, r4
   22592:	4816      	ldr	r0, [pc, #88]	@ (225ec <_ZN20complex_dynamic_type3app17h50feef0d2ce7c3a2E+0x154>)
   22594:	2102      	movs	r1, #2
   22596:	2200      	movs	r2, #0
   22598:	4613      	mov	r3, r2
   2259a:	df03      	svc	3
   2259c:	e005      	b.n	225aa <_ZN20complex_dynamic_type3app17h50feef0d2ce7c3a2E+0x112>
   2259e:	4626      	mov	r6, r4
   225a0:	4812      	ldr	r0, [pc, #72]	@ (225ec <_ZN20complex_dynamic_type3app17h50feef0d2ce7c3a2E+0x154>)
   225a2:	2102      	movs	r1, #2
   225a4:	2200      	movs	r2, #0
   225a6:	4613      	mov	r3, r2
   225a8:	df04      	svc	4
   225aa:	a803      	add	r0, sp, #12
   225ac:	7804      	ldrb	r4, [r0, #0]
   225ae:	1c68      	adds	r0, r5, #1
   225b0:	225e      	movs	r2, #94	@ 0x5e
   225b2:	4631      	mov	r1, r6
   225b4:	f008 fda8 	bl	2b108 <__aeabi_memcpy>
   225b8:	9801      	ldr	r0, [sp, #4]
   225ba:	7028      	strb	r0, [r5, #0]
   225bc:	2c02      	cmp	r4, #2
   225be:	d006      	beq.n	225ce <_ZN20complex_dynamic_type3app17h50feef0d2ce7c3a2E+0x136>
   225c0:	480a      	ldr	r0, [pc, #40]	@ (225ec <_ZN20complex_dynamic_type3app17h50feef0d2ce7c3a2E+0x154>)
   225c2:	2105      	movs	r1, #5
   225c4:	2200      	movs	r2, #0
   225c6:	4613      	mov	r3, r2
   225c8:	2c04      	cmp	r4, #4
   225ca:	d10b      	bne.n	225e4 <_ZN20complex_dynamic_type3app17h50feef0d2ce7c3a2E+0x14c>
   225cc:	df04      	svc	4
   225ce:	b027      	add	sp, #156	@ 0x9c
   225d0:	bdf0      	pop	{r4, r5, r6, r7, pc}
   225d2:	1c68      	adds	r0, r5, #1
   225d4:	225e      	movs	r2, #94	@ 0x5e
   225d6:	4621      	mov	r1, r4
   225d8:	f008 fd96 	bl	2b108 <__aeabi_memcpy>
   225dc:	9801      	ldr	r0, [sp, #4]
   225de:	7028      	strb	r0, [r5, #0]
   225e0:	b027      	add	sp, #156	@ 0x9c
   225e2:	bdf0      	pop	{r4, r5, r6, r7, pc}
   225e4:	df03      	svc	3
   225e6:	b027      	add	sp, #156	@ 0x9c
   225e8:	bdf0      	pop	{r4, r5, r6, r7, pc}
   225ea:	46c0      	nop			@ (mov r8, r8)
   225ec:	0000022b 	.word	0x0000022b

000225f0 <_ZN20complex_dynamic_type3app17h517f71674e917c71E>:
   225f0:	b5f0      	push	{r4, r5, r6, r7, lr}
   225f2:	af03      	add	r7, sp, #12
   225f4:	b093      	sub	sp, #76	@ 0x4c
   225f6:	9003      	str	r0, [sp, #12]
   225f8:	a804      	add	r0, sp, #16
   225fa:	2402      	movs	r4, #2
   225fc:	7004      	strb	r4, [r0, #0]
   225fe:	1c46      	adds	r6, r0, #1
   22600:	2218      	movs	r2, #24
   22602:	9202      	str	r2, [sp, #8]
   22604:	4630      	mov	r0, r6
   22606:	f008 fd7f 	bl	2b108 <__aeabi_memcpy>
   2260a:	ad0b      	add	r5, sp, #44	@ 0x2c
   2260c:	1c68      	adds	r0, r5, #1
   2260e:	211e      	movs	r1, #30
   22610:	9001      	str	r0, [sp, #4]
   22612:	f008 fbb9 	bl	2ad88 <__aeabi_memclr>
   22616:	9400      	str	r4, [sp, #0]
   22618:	702c      	strb	r4, [r5, #0]
   2261a:	4848      	ldr	r0, [pc, #288]	@ (2273c <_ZN20complex_dynamic_type3app17h517f71674e917c71E+0x14c>)
   2261c:	2109      	movs	r1, #9
   2261e:	4632      	mov	r2, r6
   22620:	9b02      	ldr	r3, [sp, #8]
   22622:	df04      	svc	4
   22624:	2802      	cmp	r0, #2
   22626:	d104      	bne.n	22632 <_ZN20complex_dynamic_type3app17h517f71674e917c71E+0x42>
   22628:	2001      	movs	r0, #1
   2262a:	9a03      	ldr	r2, [sp, #12]
   2262c:	7010      	strb	r0, [r2, #0]
   2262e:	6051      	str	r1, [r2, #4]
   22630:	e02d      	b.n	2268e <_ZN20complex_dynamic_type3app17h517f71674e917c71E+0x9e>
   22632:	9d03      	ldr	r5, [sp, #12]
   22634:	a804      	add	r0, sp, #16
   22636:	2104      	movs	r1, #4
   22638:	7001      	strb	r1, [r0, #0]
   2263a:	4840      	ldr	r0, [pc, #256]	@ (2273c <_ZN20complex_dynamic_type3app17h517f71674e917c71E+0x14c>)
   2263c:	2105      	movs	r1, #5
   2263e:	231e      	movs	r3, #30
   22640:	9c01      	ldr	r4, [sp, #4]
   22642:	4622      	mov	r2, r4
   22644:	df03      	svc	3
   22646:	2802      	cmp	r0, #2
   22648:	d10e      	bne.n	22668 <_ZN20complex_dynamic_type3app17h517f71674e917c71E+0x78>
   2264a:	2001      	movs	r0, #1
   2264c:	7028      	strb	r0, [r5, #0]
   2264e:	6069      	str	r1, [r5, #4]
   22650:	a80b      	add	r0, sp, #44	@ 0x2c
   22652:	7800      	ldrb	r0, [r0, #0]
   22654:	2802      	cmp	r0, #2
   22656:	d01a      	beq.n	2268e <_ZN20complex_dynamic_type3app17h517f71674e917c71E+0x9e>
   22658:	2803      	cmp	r0, #3
   2265a:	d013      	beq.n	22684 <_ZN20complex_dynamic_type3app17h517f71674e917c71E+0x94>
   2265c:	4837      	ldr	r0, [pc, #220]	@ (2273c <_ZN20complex_dynamic_type3app17h517f71674e917c71E+0x14c>)
   2265e:	2105      	movs	r1, #5
   22660:	2200      	movs	r2, #0
   22662:	4613      	mov	r3, r2
   22664:	df04      	svc	4
   22666:	e012      	b.n	2268e <_ZN20complex_dynamic_type3app17h517f71674e917c71E+0x9e>
   22668:	a80b      	add	r0, sp, #44	@ 0x2c
   2266a:	2103      	movs	r1, #3
   2266c:	7001      	strb	r1, [r0, #0]
   2266e:	4833      	ldr	r0, [pc, #204]	@ (2273c <_ZN20complex_dynamic_type3app17h517f71674e917c71E+0x14c>)
   22670:	2109      	movs	r1, #9
   22672:	2205      	movs	r2, #5
   22674:	2600      	movs	r6, #0
   22676:	4633      	mov	r3, r6
   22678:	df02      	svc	2
   2267a:	2880      	cmp	r0, #128	@ 0x80
   2267c:	d21b      	bcs.n	226b6 <_ZN20complex_dynamic_type3app17h517f71674e917c71E+0xc6>
   2267e:	2001      	movs	r0, #1
   22680:	7028      	strb	r0, [r5, #0]
   22682:	6069      	str	r1, [r5, #4]
   22684:	482d      	ldr	r0, [pc, #180]	@ (2273c <_ZN20complex_dynamic_type3app17h517f71674e917c71E+0x14c>)
   22686:	2105      	movs	r1, #5
   22688:	2200      	movs	r2, #0
   2268a:	4613      	mov	r3, r2
   2268c:	df03      	svc	3
   2268e:	a804      	add	r0, sp, #16
   22690:	7800      	ldrb	r0, [r0, #0]
   22692:	2802      	cmp	r0, #2
   22694:	d045      	beq.n	22722 <_ZN20complex_dynamic_type3app17h517f71674e917c71E+0x132>
   22696:	2804      	cmp	r0, #4
   22698:	d106      	bne.n	226a8 <_ZN20complex_dynamic_type3app17h517f71674e917c71E+0xb8>
   2269a:	4828      	ldr	r0, [pc, #160]	@ (2273c <_ZN20complex_dynamic_type3app17h517f71674e917c71E+0x14c>)
   2269c:	2109      	movs	r1, #9
   2269e:	2200      	movs	r2, #0
   226a0:	4613      	mov	r3, r2
   226a2:	df04      	svc	4
   226a4:	b013      	add	sp, #76	@ 0x4c
   226a6:	bdf0      	pop	{r4, r5, r6, r7, pc}
   226a8:	4824      	ldr	r0, [pc, #144]	@ (2273c <_ZN20complex_dynamic_type3app17h517f71674e917c71E+0x14c>)
   226aa:	2109      	movs	r1, #9
   226ac:	2200      	movs	r2, #0
   226ae:	4613      	mov	r3, r2
   226b0:	df03      	svc	3
   226b2:	b013      	add	sp, #76	@ 0x4c
   226b4:	bdf0      	pop	{r4, r5, r6, r7, pc}
   226b6:	a804      	add	r0, sp, #16
   226b8:	7800      	ldrb	r0, [r0, #0]
   226ba:	2802      	cmp	r0, #2
   226bc:	d00c      	beq.n	226d8 <_ZN20complex_dynamic_type3app17h517f71674e917c71E+0xe8>
   226be:	2803      	cmp	r0, #3
   226c0:	d105      	bne.n	226ce <_ZN20complex_dynamic_type3app17h517f71674e917c71E+0xde>
   226c2:	481e      	ldr	r0, [pc, #120]	@ (2273c <_ZN20complex_dynamic_type3app17h517f71674e917c71E+0x14c>)
   226c4:	2109      	movs	r1, #9
   226c6:	2200      	movs	r2, #0
   226c8:	4613      	mov	r3, r2
   226ca:	df03      	svc	3
   226cc:	e004      	b.n	226d8 <_ZN20complex_dynamic_type3app17h517f71674e917c71E+0xe8>
   226ce:	481b      	ldr	r0, [pc, #108]	@ (2273c <_ZN20complex_dynamic_type3app17h517f71674e917c71E+0x14c>)
   226d0:	2109      	movs	r1, #9
   226d2:	2200      	movs	r2, #0
   226d4:	4613      	mov	r3, r2
   226d6:	df04      	svc	4
   226d8:	a804      	add	r0, sp, #16
   226da:	9900      	ldr	r1, [sp, #0]
   226dc:	7001      	strb	r1, [r0, #0]
   226de:	a80b      	add	r0, sp, #44	@ 0x2c
   226e0:	7800      	ldrb	r0, [r0, #0]
   226e2:	2804      	cmp	r0, #4
   226e4:	d007      	beq.n	226f6 <_ZN20complex_dynamic_type3app17h517f71674e917c71E+0x106>
   226e6:	2803      	cmp	r0, #3
   226e8:	d11d      	bne.n	22726 <_ZN20complex_dynamic_type3app17h517f71674e917c71E+0x136>
   226ea:	4814      	ldr	r0, [pc, #80]	@ (2273c <_ZN20complex_dynamic_type3app17h517f71674e917c71E+0x14c>)
   226ec:	2105      	movs	r1, #5
   226ee:	2200      	movs	r2, #0
   226f0:	4613      	mov	r3, r2
   226f2:	df03      	svc	3
   226f4:	e004      	b.n	22700 <_ZN20complex_dynamic_type3app17h517f71674e917c71E+0x110>
   226f6:	4811      	ldr	r0, [pc, #68]	@ (2273c <_ZN20complex_dynamic_type3app17h517f71674e917c71E+0x14c>)
   226f8:	2105      	movs	r1, #5
   226fa:	2200      	movs	r2, #0
   226fc:	4613      	mov	r3, r2
   226fe:	df04      	svc	4
   22700:	a804      	add	r0, sp, #16
   22702:	7804      	ldrb	r4, [r0, #0]
   22704:	1c68      	adds	r0, r5, #1
   22706:	221e      	movs	r2, #30
   22708:	9901      	ldr	r1, [sp, #4]
   2270a:	f008 fcfd 	bl	2b108 <__aeabi_memcpy>
   2270e:	702e      	strb	r6, [r5, #0]
   22710:	2c02      	cmp	r4, #2
   22712:	d006      	beq.n	22722 <_ZN20complex_dynamic_type3app17h517f71674e917c71E+0x132>
   22714:	4809      	ldr	r0, [pc, #36]	@ (2273c <_ZN20complex_dynamic_type3app17h517f71674e917c71E+0x14c>)
   22716:	2109      	movs	r1, #9
   22718:	2200      	movs	r2, #0
   2271a:	4613      	mov	r3, r2
   2271c:	2c04      	cmp	r4, #4
   2271e:	d10a      	bne.n	22736 <_ZN20complex_dynamic_type3app17h517f71674e917c71E+0x146>
   22720:	df04      	svc	4
   22722:	b013      	add	sp, #76	@ 0x4c
   22724:	bdf0      	pop	{r4, r5, r6, r7, pc}
   22726:	1c68      	adds	r0, r5, #1
   22728:	221e      	movs	r2, #30
   2272a:	4621      	mov	r1, r4
   2272c:	f008 fcec 	bl	2b108 <__aeabi_memcpy>
   22730:	702e      	strb	r6, [r5, #0]
   22732:	b013      	add	sp, #76	@ 0x4c
   22734:	bdf0      	pop	{r4, r5, r6, r7, pc}
   22736:	df03      	svc	3
   22738:	b013      	add	sp, #76	@ 0x4c
   2273a:	bdf0      	pop	{r4, r5, r6, r7, pc}
   2273c:	00000cbb 	.word	0x00000cbb

00022740 <_ZN20complex_dynamic_type3app17h569e448ae6c1ba36E>:
   22740:	b5f0      	push	{r4, r5, r6, r7, lr}
   22742:	af03      	add	r7, sp, #12
   22744:	b093      	sub	sp, #76	@ 0x4c
   22746:	9004      	str	r0, [sp, #16]
   22748:	a805      	add	r0, sp, #20
   2274a:	2402      	movs	r4, #2
   2274c:	7004      	strb	r4, [r0, #0]
   2274e:	1c46      	adds	r6, r0, #1
   22750:	220f      	movs	r2, #15
   22752:	9203      	str	r2, [sp, #12]
   22754:	4630      	mov	r0, r6
   22756:	f008 fcd7 	bl	2b108 <__aeabi_memcpy>
   2275a:	ad09      	add	r5, sp, #36	@ 0x24
   2275c:	1c68      	adds	r0, r5, #1
   2275e:	2125      	movs	r1, #37	@ 0x25
   22760:	9002      	str	r0, [sp, #8]
   22762:	f008 fb11 	bl	2ad88 <__aeabi_memclr>
   22766:	9401      	str	r4, [sp, #4]
   22768:	702c      	strb	r4, [r5, #0]
   2276a:	20a2      	movs	r0, #162	@ 0xa2
   2276c:	2108      	movs	r1, #8
   2276e:	4632      	mov	r2, r6
   22770:	9b03      	ldr	r3, [sp, #12]
   22772:	df04      	svc	4
   22774:	2802      	cmp	r0, #2
   22776:	d104      	bne.n	22782 <_ZN20complex_dynamic_type3app17h569e448ae6c1ba36E+0x42>
   22778:	2001      	movs	r0, #1
   2277a:	9a04      	ldr	r2, [sp, #16]
   2277c:	7010      	strb	r0, [r2, #0]
   2277e:	6051      	str	r1, [r2, #4]
   22780:	e02d      	b.n	227de <_ZN20complex_dynamic_type3app17h569e448ae6c1ba36E+0x9e>
   22782:	9d04      	ldr	r5, [sp, #16]
   22784:	a805      	add	r0, sp, #20
   22786:	2104      	movs	r1, #4
   22788:	7001      	strb	r1, [r0, #0]
   2278a:	20a2      	movs	r0, #162	@ 0xa2
   2278c:	2100      	movs	r1, #0
   2278e:	2325      	movs	r3, #37	@ 0x25
   22790:	9c02      	ldr	r4, [sp, #8]
   22792:	4622      	mov	r2, r4
   22794:	df03      	svc	3
   22796:	2802      	cmp	r0, #2
   22798:	d10e      	bne.n	227b8 <_ZN20complex_dynamic_type3app17h569e448ae6c1ba36E+0x78>
   2279a:	2001      	movs	r0, #1
   2279c:	7028      	strb	r0, [r5, #0]
   2279e:	6069      	str	r1, [r5, #4]
   227a0:	a809      	add	r0, sp, #36	@ 0x24
   227a2:	7800      	ldrb	r0, [r0, #0]
   227a4:	2802      	cmp	r0, #2
   227a6:	d01a      	beq.n	227de <_ZN20complex_dynamic_type3app17h569e448ae6c1ba36E+0x9e>
   227a8:	2803      	cmp	r0, #3
   227aa:	d013      	beq.n	227d4 <_ZN20complex_dynamic_type3app17h569e448ae6c1ba36E+0x94>
   227ac:	20a2      	movs	r0, #162	@ 0xa2
   227ae:	2100      	movs	r1, #0
   227b0:	460a      	mov	r2, r1
   227b2:	460b      	mov	r3, r1
   227b4:	df04      	svc	4
   227b6:	e012      	b.n	227de <_ZN20complex_dynamic_type3app17h569e448ae6c1ba36E+0x9e>
   227b8:	a809      	add	r0, sp, #36	@ 0x24
   227ba:	2103      	movs	r1, #3
   227bc:	7001      	strb	r1, [r0, #0]
   227be:	20a2      	movs	r0, #162	@ 0xa2
   227c0:	2108      	movs	r1, #8
   227c2:	2600      	movs	r6, #0
   227c4:	4632      	mov	r2, r6
   227c6:	4633      	mov	r3, r6
   227c8:	df02      	svc	2
   227ca:	2880      	cmp	r0, #128	@ 0x80
   227cc:	d21b      	bcs.n	22806 <_ZN20complex_dynamic_type3app17h569e448ae6c1ba36E+0xc6>
   227ce:	2001      	movs	r0, #1
   227d0:	7028      	strb	r0, [r5, #0]
   227d2:	6069      	str	r1, [r5, #4]
   227d4:	20a2      	movs	r0, #162	@ 0xa2
   227d6:	2100      	movs	r1, #0
   227d8:	460a      	mov	r2, r1
   227da:	460b      	mov	r3, r1
   227dc:	df03      	svc	3
   227de:	a805      	add	r0, sp, #20
   227e0:	7800      	ldrb	r0, [r0, #0]
   227e2:	2802      	cmp	r0, #2
   227e4:	d045      	beq.n	22872 <_ZN20complex_dynamic_type3app17h569e448ae6c1ba36E+0x132>
   227e6:	2804      	cmp	r0, #4
   227e8:	d106      	bne.n	227f8 <_ZN20complex_dynamic_type3app17h569e448ae6c1ba36E+0xb8>
   227ea:	20a2      	movs	r0, #162	@ 0xa2
   227ec:	2108      	movs	r1, #8
   227ee:	2200      	movs	r2, #0
   227f0:	4613      	mov	r3, r2
   227f2:	df04      	svc	4
   227f4:	b013      	add	sp, #76	@ 0x4c
   227f6:	bdf0      	pop	{r4, r5, r6, r7, pc}
   227f8:	20a2      	movs	r0, #162	@ 0xa2
   227fa:	2108      	movs	r1, #8
   227fc:	2200      	movs	r2, #0
   227fe:	4613      	mov	r3, r2
   22800:	df03      	svc	3
   22802:	b013      	add	sp, #76	@ 0x4c
   22804:	bdf0      	pop	{r4, r5, r6, r7, pc}
   22806:	a805      	add	r0, sp, #20
   22808:	7800      	ldrb	r0, [r0, #0]
   2280a:	2802      	cmp	r0, #2
   2280c:	d00c      	beq.n	22828 <_ZN20complex_dynamic_type3app17h569e448ae6c1ba36E+0xe8>
   2280e:	2803      	cmp	r0, #3
   22810:	d105      	bne.n	2281e <_ZN20complex_dynamic_type3app17h569e448ae6c1ba36E+0xde>
   22812:	20a2      	movs	r0, #162	@ 0xa2
   22814:	2108      	movs	r1, #8
   22816:	2200      	movs	r2, #0
   22818:	4613      	mov	r3, r2
   2281a:	df03      	svc	3
   2281c:	e004      	b.n	22828 <_ZN20complex_dynamic_type3app17h569e448ae6c1ba36E+0xe8>
   2281e:	20a2      	movs	r0, #162	@ 0xa2
   22820:	2108      	movs	r1, #8
   22822:	2200      	movs	r2, #0
   22824:	4613      	mov	r3, r2
   22826:	df04      	svc	4
   22828:	a805      	add	r0, sp, #20
   2282a:	9901      	ldr	r1, [sp, #4]
   2282c:	7001      	strb	r1, [r0, #0]
   2282e:	a809      	add	r0, sp, #36	@ 0x24
   22830:	7800      	ldrb	r0, [r0, #0]
   22832:	2804      	cmp	r0, #4
   22834:	d007      	beq.n	22846 <_ZN20complex_dynamic_type3app17h569e448ae6c1ba36E+0x106>
   22836:	2803      	cmp	r0, #3
   22838:	d11d      	bne.n	22876 <_ZN20complex_dynamic_type3app17h569e448ae6c1ba36E+0x136>
   2283a:	20a2      	movs	r0, #162	@ 0xa2
   2283c:	2100      	movs	r1, #0
   2283e:	460a      	mov	r2, r1
   22840:	460b      	mov	r3, r1
   22842:	df03      	svc	3
   22844:	e004      	b.n	22850 <_ZN20complex_dynamic_type3app17h569e448ae6c1ba36E+0x110>
   22846:	20a2      	movs	r0, #162	@ 0xa2
   22848:	2100      	movs	r1, #0
   2284a:	460a      	mov	r2, r1
   2284c:	460b      	mov	r3, r1
   2284e:	df04      	svc	4
   22850:	a805      	add	r0, sp, #20
   22852:	7804      	ldrb	r4, [r0, #0]
   22854:	1c68      	adds	r0, r5, #1
   22856:	2225      	movs	r2, #37	@ 0x25
   22858:	9902      	ldr	r1, [sp, #8]
   2285a:	f008 fc55 	bl	2b108 <__aeabi_memcpy>
   2285e:	702e      	strb	r6, [r5, #0]
   22860:	2c02      	cmp	r4, #2
   22862:	d006      	beq.n	22872 <_ZN20complex_dynamic_type3app17h569e448ae6c1ba36E+0x132>
   22864:	20a2      	movs	r0, #162	@ 0xa2
   22866:	2108      	movs	r1, #8
   22868:	2200      	movs	r2, #0
   2286a:	4613      	mov	r3, r2
   2286c:	2c04      	cmp	r4, #4
   2286e:	d10a      	bne.n	22886 <_ZN20complex_dynamic_type3app17h569e448ae6c1ba36E+0x146>
   22870:	df04      	svc	4
   22872:	b013      	add	sp, #76	@ 0x4c
   22874:	bdf0      	pop	{r4, r5, r6, r7, pc}
   22876:	1c68      	adds	r0, r5, #1
   22878:	2225      	movs	r2, #37	@ 0x25
   2287a:	4621      	mov	r1, r4
   2287c:	f008 fc44 	bl	2b108 <__aeabi_memcpy>
   22880:	702e      	strb	r6, [r5, #0]
   22882:	b013      	add	sp, #76	@ 0x4c
   22884:	bdf0      	pop	{r4, r5, r6, r7, pc}
   22886:	df03      	svc	3
   22888:	b013      	add	sp, #76	@ 0x4c
   2288a:	bdf0      	pop	{r4, r5, r6, r7, pc}

0002288c <_ZN20complex_dynamic_type3app17h57334147c3393873E>:
   2288c:	b5f0      	push	{r4, r5, r6, r7, lr}
   2288e:	af03      	add	r7, sp, #12
   22890:	b0ad      	sub	sp, #180	@ 0xb4
   22892:	9003      	str	r0, [sp, #12]
   22894:	a804      	add	r0, sp, #16
   22896:	2402      	movs	r4, #2
   22898:	7004      	strb	r4, [r0, #0]
   2289a:	1c46      	adds	r6, r0, #1
   2289c:	2253      	movs	r2, #83	@ 0x53
   2289e:	9202      	str	r2, [sp, #8]
   228a0:	4630      	mov	r0, r6
   228a2:	f008 fc31 	bl	2b108 <__aeabi_memcpy>
   228a6:	ad19      	add	r5, sp, #100	@ 0x64
   228a8:	1c68      	adds	r0, r5, #1
   228aa:	214d      	movs	r1, #77	@ 0x4d
   228ac:	9001      	str	r0, [sp, #4]
   228ae:	f008 fa6b 	bl	2ad88 <__aeabi_memclr>
   228b2:	9400      	str	r4, [sp, #0]
   228b4:	702c      	strb	r4, [r5, #0]
   228b6:	4848      	ldr	r0, [pc, #288]	@ (229d8 <_ZN20complex_dynamic_type3app17h57334147c3393873E+0x14c>)
   228b8:	2109      	movs	r1, #9
   228ba:	4632      	mov	r2, r6
   228bc:	9b02      	ldr	r3, [sp, #8]
   228be:	df04      	svc	4
   228c0:	2802      	cmp	r0, #2
   228c2:	d104      	bne.n	228ce <_ZN20complex_dynamic_type3app17h57334147c3393873E+0x42>
   228c4:	2001      	movs	r0, #1
   228c6:	9a03      	ldr	r2, [sp, #12]
   228c8:	7010      	strb	r0, [r2, #0]
   228ca:	6051      	str	r1, [r2, #4]
   228cc:	e02c      	b.n	22928 <_ZN20complex_dynamic_type3app17h57334147c3393873E+0x9c>
   228ce:	9d03      	ldr	r5, [sp, #12]
   228d0:	a804      	add	r0, sp, #16
   228d2:	2104      	movs	r1, #4
   228d4:	7001      	strb	r1, [r0, #0]
   228d6:	4840      	ldr	r0, [pc, #256]	@ (229d8 <_ZN20complex_dynamic_type3app17h57334147c3393873E+0x14c>)
   228d8:	234d      	movs	r3, #77	@ 0x4d
   228da:	9c01      	ldr	r4, [sp, #4]
   228dc:	4622      	mov	r2, r4
   228de:	df03      	svc	3
   228e0:	2802      	cmp	r0, #2
   228e2:	d10e      	bne.n	22902 <_ZN20complex_dynamic_type3app17h57334147c3393873E+0x76>
   228e4:	2001      	movs	r0, #1
   228e6:	7028      	strb	r0, [r5, #0]
   228e8:	6069      	str	r1, [r5, #4]
   228ea:	a819      	add	r0, sp, #100	@ 0x64
   228ec:	7800      	ldrb	r0, [r0, #0]
   228ee:	2802      	cmp	r0, #2
   228f0:	d01a      	beq.n	22928 <_ZN20complex_dynamic_type3app17h57334147c3393873E+0x9c>
   228f2:	2803      	cmp	r0, #3
   228f4:	d013      	beq.n	2291e <_ZN20complex_dynamic_type3app17h57334147c3393873E+0x92>
   228f6:	4838      	ldr	r0, [pc, #224]	@ (229d8 <_ZN20complex_dynamic_type3app17h57334147c3393873E+0x14c>)
   228f8:	2104      	movs	r1, #4
   228fa:	2200      	movs	r2, #0
   228fc:	4613      	mov	r3, r2
   228fe:	df04      	svc	4
   22900:	e012      	b.n	22928 <_ZN20complex_dynamic_type3app17h57334147c3393873E+0x9c>
   22902:	a819      	add	r0, sp, #100	@ 0x64
   22904:	2103      	movs	r1, #3
   22906:	7001      	strb	r1, [r0, #0]
   22908:	4833      	ldr	r0, [pc, #204]	@ (229d8 <_ZN20complex_dynamic_type3app17h57334147c3393873E+0x14c>)
   2290a:	2109      	movs	r1, #9
   2290c:	2204      	movs	r2, #4
   2290e:	2600      	movs	r6, #0
   22910:	4633      	mov	r3, r6
   22912:	df02      	svc	2
   22914:	2880      	cmp	r0, #128	@ 0x80
   22916:	d21b      	bcs.n	22950 <_ZN20complex_dynamic_type3app17h57334147c3393873E+0xc4>
   22918:	2001      	movs	r0, #1
   2291a:	7028      	strb	r0, [r5, #0]
   2291c:	6069      	str	r1, [r5, #4]
   2291e:	482e      	ldr	r0, [pc, #184]	@ (229d8 <_ZN20complex_dynamic_type3app17h57334147c3393873E+0x14c>)
   22920:	2104      	movs	r1, #4
   22922:	2200      	movs	r2, #0
   22924:	4613      	mov	r3, r2
   22926:	df03      	svc	3
   22928:	a804      	add	r0, sp, #16
   2292a:	7800      	ldrb	r0, [r0, #0]
   2292c:	2802      	cmp	r0, #2
   2292e:	d045      	beq.n	229bc <_ZN20complex_dynamic_type3app17h57334147c3393873E+0x130>
   22930:	2804      	cmp	r0, #4
   22932:	d106      	bne.n	22942 <_ZN20complex_dynamic_type3app17h57334147c3393873E+0xb6>
   22934:	4828      	ldr	r0, [pc, #160]	@ (229d8 <_ZN20complex_dynamic_type3app17h57334147c3393873E+0x14c>)
   22936:	2109      	movs	r1, #9
   22938:	2200      	movs	r2, #0
   2293a:	4613      	mov	r3, r2
   2293c:	df04      	svc	4
   2293e:	b02d      	add	sp, #180	@ 0xb4
   22940:	bdf0      	pop	{r4, r5, r6, r7, pc}
   22942:	4825      	ldr	r0, [pc, #148]	@ (229d8 <_ZN20complex_dynamic_type3app17h57334147c3393873E+0x14c>)
   22944:	2109      	movs	r1, #9
   22946:	2200      	movs	r2, #0
   22948:	4613      	mov	r3, r2
   2294a:	df03      	svc	3
   2294c:	b02d      	add	sp, #180	@ 0xb4
   2294e:	bdf0      	pop	{r4, r5, r6, r7, pc}
   22950:	a804      	add	r0, sp, #16
   22952:	7800      	ldrb	r0, [r0, #0]
   22954:	2802      	cmp	r0, #2
   22956:	d00c      	beq.n	22972 <_ZN20complex_dynamic_type3app17h57334147c3393873E+0xe6>
   22958:	2803      	cmp	r0, #3
   2295a:	d105      	bne.n	22968 <_ZN20complex_dynamic_type3app17h57334147c3393873E+0xdc>
   2295c:	481e      	ldr	r0, [pc, #120]	@ (229d8 <_ZN20complex_dynamic_type3app17h57334147c3393873E+0x14c>)
   2295e:	2109      	movs	r1, #9
   22960:	2200      	movs	r2, #0
   22962:	4613      	mov	r3, r2
   22964:	df03      	svc	3
   22966:	e004      	b.n	22972 <_ZN20complex_dynamic_type3app17h57334147c3393873E+0xe6>
   22968:	481b      	ldr	r0, [pc, #108]	@ (229d8 <_ZN20complex_dynamic_type3app17h57334147c3393873E+0x14c>)
   2296a:	2109      	movs	r1, #9
   2296c:	2200      	movs	r2, #0
   2296e:	4613      	mov	r3, r2
   22970:	df04      	svc	4
   22972:	a804      	add	r0, sp, #16
   22974:	9900      	ldr	r1, [sp, #0]
   22976:	7001      	strb	r1, [r0, #0]
   22978:	a819      	add	r0, sp, #100	@ 0x64
   2297a:	7800      	ldrb	r0, [r0, #0]
   2297c:	2804      	cmp	r0, #4
   2297e:	d007      	beq.n	22990 <_ZN20complex_dynamic_type3app17h57334147c3393873E+0x104>
   22980:	2803      	cmp	r0, #3
   22982:	d11d      	bne.n	229c0 <_ZN20complex_dynamic_type3app17h57334147c3393873E+0x134>
   22984:	4814      	ldr	r0, [pc, #80]	@ (229d8 <_ZN20complex_dynamic_type3app17h57334147c3393873E+0x14c>)
   22986:	2104      	movs	r1, #4
   22988:	2200      	movs	r2, #0
   2298a:	4613      	mov	r3, r2
   2298c:	df03      	svc	3
   2298e:	e004      	b.n	2299a <_ZN20complex_dynamic_type3app17h57334147c3393873E+0x10e>
   22990:	4811      	ldr	r0, [pc, #68]	@ (229d8 <_ZN20complex_dynamic_type3app17h57334147c3393873E+0x14c>)
   22992:	2104      	movs	r1, #4
   22994:	2200      	movs	r2, #0
   22996:	4613      	mov	r3, r2
   22998:	df04      	svc	4
   2299a:	a804      	add	r0, sp, #16
   2299c:	7804      	ldrb	r4, [r0, #0]
   2299e:	1c68      	adds	r0, r5, #1
   229a0:	224d      	movs	r2, #77	@ 0x4d
   229a2:	9901      	ldr	r1, [sp, #4]
   229a4:	f008 fbb0 	bl	2b108 <__aeabi_memcpy>
   229a8:	702e      	strb	r6, [r5, #0]
   229aa:	2c02      	cmp	r4, #2
   229ac:	d006      	beq.n	229bc <_ZN20complex_dynamic_type3app17h57334147c3393873E+0x130>
   229ae:	480a      	ldr	r0, [pc, #40]	@ (229d8 <_ZN20complex_dynamic_type3app17h57334147c3393873E+0x14c>)
   229b0:	2109      	movs	r1, #9
   229b2:	2200      	movs	r2, #0
   229b4:	4613      	mov	r3, r2
   229b6:	2c04      	cmp	r4, #4
   229b8:	d10a      	bne.n	229d0 <_ZN20complex_dynamic_type3app17h57334147c3393873E+0x144>
   229ba:	df04      	svc	4
   229bc:	b02d      	add	sp, #180	@ 0xb4
   229be:	bdf0      	pop	{r4, r5, r6, r7, pc}
   229c0:	1c68      	adds	r0, r5, #1
   229c2:	224d      	movs	r2, #77	@ 0x4d
   229c4:	4621      	mov	r1, r4
   229c6:	f008 fb9f 	bl	2b108 <__aeabi_memcpy>
   229ca:	702e      	strb	r6, [r5, #0]
   229cc:	b02d      	add	sp, #180	@ 0xb4
   229ce:	bdf0      	pop	{r4, r5, r6, r7, pc}
   229d0:	df03      	svc	3
   229d2:	b02d      	add	sp, #180	@ 0xb4
   229d4:	bdf0      	pop	{r4, r5, r6, r7, pc}
   229d6:	46c0      	nop			@ (mov r8, r8)
   229d8:	000016ba 	.word	0x000016ba

000229dc <_ZN20complex_dynamic_type3app17h5aa822e73b398f5bE>:
   229dc:	b5f0      	push	{r4, r5, r6, r7, lr}
   229de:	af03      	add	r7, sp, #12
   229e0:	b0ad      	sub	sp, #180	@ 0xb4
   229e2:	9004      	str	r0, [sp, #16]
   229e4:	a805      	add	r0, sp, #20
   229e6:	2402      	movs	r4, #2
   229e8:	7004      	strb	r4, [r0, #0]
   229ea:	1c46      	adds	r6, r0, #1
   229ec:	2246      	movs	r2, #70	@ 0x46
   229ee:	9203      	str	r2, [sp, #12]
   229f0:	4630      	mov	r0, r6
   229f2:	f008 fb89 	bl	2b108 <__aeabi_memcpy>
   229f6:	ad17      	add	r5, sp, #92	@ 0x5c
   229f8:	1c68      	adds	r0, r5, #1
   229fa:	2156      	movs	r1, #86	@ 0x56
   229fc:	9002      	str	r0, [sp, #8]
   229fe:	f008 f9c3 	bl	2ad88 <__aeabi_memclr>
   22a02:	9401      	str	r4, [sp, #4]
   22a04:	702c      	strb	r4, [r5, #0]
   22a06:	4848      	ldr	r0, [pc, #288]	@ (22b28 <_ZN20complex_dynamic_type3app17h5aa822e73b398f5bE+0x14c>)
   22a08:	2107      	movs	r1, #7
   22a0a:	4632      	mov	r2, r6
   22a0c:	9b03      	ldr	r3, [sp, #12]
   22a0e:	df04      	svc	4
   22a10:	2802      	cmp	r0, #2
   22a12:	d104      	bne.n	22a1e <_ZN20complex_dynamic_type3app17h5aa822e73b398f5bE+0x42>
   22a14:	2001      	movs	r0, #1
   22a16:	9a04      	ldr	r2, [sp, #16]
   22a18:	7010      	strb	r0, [r2, #0]
   22a1a:	6051      	str	r1, [r2, #4]
   22a1c:	e02c      	b.n	22a78 <_ZN20complex_dynamic_type3app17h5aa822e73b398f5bE+0x9c>
   22a1e:	9d04      	ldr	r5, [sp, #16]
   22a20:	a805      	add	r0, sp, #20
   22a22:	2104      	movs	r1, #4
   22a24:	7001      	strb	r1, [r0, #0]
   22a26:	4840      	ldr	r0, [pc, #256]	@ (22b28 <_ZN20complex_dynamic_type3app17h5aa822e73b398f5bE+0x14c>)
   22a28:	2403      	movs	r4, #3
   22a2a:	2356      	movs	r3, #86	@ 0x56
   22a2c:	4621      	mov	r1, r4
   22a2e:	9a02      	ldr	r2, [sp, #8]
   22a30:	df03      	svc	3
   22a32:	2802      	cmp	r0, #2
   22a34:	d10e      	bne.n	22a54 <_ZN20complex_dynamic_type3app17h5aa822e73b398f5bE+0x78>
   22a36:	2001      	movs	r0, #1
   22a38:	7028      	strb	r0, [r5, #0]
   22a3a:	6069      	str	r1, [r5, #4]
   22a3c:	a817      	add	r0, sp, #92	@ 0x5c
   22a3e:	7800      	ldrb	r0, [r0, #0]
   22a40:	2802      	cmp	r0, #2
   22a42:	d019      	beq.n	22a78 <_ZN20complex_dynamic_type3app17h5aa822e73b398f5bE+0x9c>
   22a44:	2803      	cmp	r0, #3
   22a46:	d012      	beq.n	22a6e <_ZN20complex_dynamic_type3app17h5aa822e73b398f5bE+0x92>
   22a48:	4837      	ldr	r0, [pc, #220]	@ (22b28 <_ZN20complex_dynamic_type3app17h5aa822e73b398f5bE+0x14c>)
   22a4a:	2103      	movs	r1, #3
   22a4c:	2200      	movs	r2, #0
   22a4e:	4613      	mov	r3, r2
   22a50:	df04      	svc	4
   22a52:	e011      	b.n	22a78 <_ZN20complex_dynamic_type3app17h5aa822e73b398f5bE+0x9c>
   22a54:	a817      	add	r0, sp, #92	@ 0x5c
   22a56:	7004      	strb	r4, [r0, #0]
   22a58:	4833      	ldr	r0, [pc, #204]	@ (22b28 <_ZN20complex_dynamic_type3app17h5aa822e73b398f5bE+0x14c>)
   22a5a:	2107      	movs	r1, #7
   22a5c:	2600      	movs	r6, #0
   22a5e:	4622      	mov	r2, r4
   22a60:	4633      	mov	r3, r6
   22a62:	df02      	svc	2
   22a64:	2880      	cmp	r0, #128	@ 0x80
   22a66:	d21b      	bcs.n	22aa0 <_ZN20complex_dynamic_type3app17h5aa822e73b398f5bE+0xc4>
   22a68:	2001      	movs	r0, #1
   22a6a:	7028      	strb	r0, [r5, #0]
   22a6c:	6069      	str	r1, [r5, #4]
   22a6e:	482e      	ldr	r0, [pc, #184]	@ (22b28 <_ZN20complex_dynamic_type3app17h5aa822e73b398f5bE+0x14c>)
   22a70:	2103      	movs	r1, #3
   22a72:	2200      	movs	r2, #0
   22a74:	4613      	mov	r3, r2
   22a76:	df03      	svc	3
   22a78:	a805      	add	r0, sp, #20
   22a7a:	7800      	ldrb	r0, [r0, #0]
   22a7c:	2802      	cmp	r0, #2
   22a7e:	d045      	beq.n	22b0c <_ZN20complex_dynamic_type3app17h5aa822e73b398f5bE+0x130>
   22a80:	2804      	cmp	r0, #4
   22a82:	d106      	bne.n	22a92 <_ZN20complex_dynamic_type3app17h5aa822e73b398f5bE+0xb6>
   22a84:	4828      	ldr	r0, [pc, #160]	@ (22b28 <_ZN20complex_dynamic_type3app17h5aa822e73b398f5bE+0x14c>)
   22a86:	2107      	movs	r1, #7
   22a88:	2200      	movs	r2, #0
   22a8a:	4613      	mov	r3, r2
   22a8c:	df04      	svc	4
   22a8e:	b02d      	add	sp, #180	@ 0xb4
   22a90:	bdf0      	pop	{r4, r5, r6, r7, pc}
   22a92:	4825      	ldr	r0, [pc, #148]	@ (22b28 <_ZN20complex_dynamic_type3app17h5aa822e73b398f5bE+0x14c>)
   22a94:	2107      	movs	r1, #7
   22a96:	2200      	movs	r2, #0
   22a98:	4613      	mov	r3, r2
   22a9a:	df03      	svc	3
   22a9c:	b02d      	add	sp, #180	@ 0xb4
   22a9e:	bdf0      	pop	{r4, r5, r6, r7, pc}
   22aa0:	a805      	add	r0, sp, #20
   22aa2:	7800      	ldrb	r0, [r0, #0]
   22aa4:	2802      	cmp	r0, #2
   22aa6:	d00c      	beq.n	22ac2 <_ZN20complex_dynamic_type3app17h5aa822e73b398f5bE+0xe6>
   22aa8:	2803      	cmp	r0, #3
   22aaa:	d105      	bne.n	22ab8 <_ZN20complex_dynamic_type3app17h5aa822e73b398f5bE+0xdc>
   22aac:	481e      	ldr	r0, [pc, #120]	@ (22b28 <_ZN20complex_dynamic_type3app17h5aa822e73b398f5bE+0x14c>)
   22aae:	2107      	movs	r1, #7
   22ab0:	2200      	movs	r2, #0
   22ab2:	4613      	mov	r3, r2
   22ab4:	df03      	svc	3
   22ab6:	e004      	b.n	22ac2 <_ZN20complex_dynamic_type3app17h5aa822e73b398f5bE+0xe6>
   22ab8:	481b      	ldr	r0, [pc, #108]	@ (22b28 <_ZN20complex_dynamic_type3app17h5aa822e73b398f5bE+0x14c>)
   22aba:	2107      	movs	r1, #7
   22abc:	2200      	movs	r2, #0
   22abe:	4613      	mov	r3, r2
   22ac0:	df04      	svc	4
   22ac2:	a805      	add	r0, sp, #20
   22ac4:	9901      	ldr	r1, [sp, #4]
   22ac6:	7001      	strb	r1, [r0, #0]
   22ac8:	a817      	add	r0, sp, #92	@ 0x5c
   22aca:	7800      	ldrb	r0, [r0, #0]
   22acc:	2804      	cmp	r0, #4
   22ace:	d007      	beq.n	22ae0 <_ZN20complex_dynamic_type3app17h5aa822e73b398f5bE+0x104>
   22ad0:	2803      	cmp	r0, #3
   22ad2:	d11d      	bne.n	22b10 <_ZN20complex_dynamic_type3app17h5aa822e73b398f5bE+0x134>
   22ad4:	4814      	ldr	r0, [pc, #80]	@ (22b28 <_ZN20complex_dynamic_type3app17h5aa822e73b398f5bE+0x14c>)
   22ad6:	2103      	movs	r1, #3
   22ad8:	2200      	movs	r2, #0
   22ada:	4613      	mov	r3, r2
   22adc:	df03      	svc	3
   22ade:	e004      	b.n	22aea <_ZN20complex_dynamic_type3app17h5aa822e73b398f5bE+0x10e>
   22ae0:	4811      	ldr	r0, [pc, #68]	@ (22b28 <_ZN20complex_dynamic_type3app17h5aa822e73b398f5bE+0x14c>)
   22ae2:	2103      	movs	r1, #3
   22ae4:	2200      	movs	r2, #0
   22ae6:	4613      	mov	r3, r2
   22ae8:	df04      	svc	4
   22aea:	a805      	add	r0, sp, #20
   22aec:	7804      	ldrb	r4, [r0, #0]
   22aee:	1c68      	adds	r0, r5, #1
   22af0:	2256      	movs	r2, #86	@ 0x56
   22af2:	9902      	ldr	r1, [sp, #8]
   22af4:	f008 fb08 	bl	2b108 <__aeabi_memcpy>
   22af8:	702e      	strb	r6, [r5, #0]
   22afa:	2c02      	cmp	r4, #2
   22afc:	d006      	beq.n	22b0c <_ZN20complex_dynamic_type3app17h5aa822e73b398f5bE+0x130>
   22afe:	480a      	ldr	r0, [pc, #40]	@ (22b28 <_ZN20complex_dynamic_type3app17h5aa822e73b398f5bE+0x14c>)
   22b00:	2107      	movs	r1, #7
   22b02:	2200      	movs	r2, #0
   22b04:	4613      	mov	r3, r2
   22b06:	2c04      	cmp	r4, #4
   22b08:	d10a      	bne.n	22b20 <_ZN20complex_dynamic_type3app17h5aa822e73b398f5bE+0x144>
   22b0a:	df04      	svc	4
   22b0c:	b02d      	add	sp, #180	@ 0xb4
   22b0e:	bdf0      	pop	{r4, r5, r6, r7, pc}
   22b10:	1c68      	adds	r0, r5, #1
   22b12:	2256      	movs	r2, #86	@ 0x56
   22b14:	9902      	ldr	r1, [sp, #8]
   22b16:	f008 faf7 	bl	2b108 <__aeabi_memcpy>
   22b1a:	702e      	strb	r6, [r5, #0]
   22b1c:	b02d      	add	sp, #180	@ 0xb4
   22b1e:	bdf0      	pop	{r4, r5, r6, r7, pc}
   22b20:	df03      	svc	3
   22b22:	b02d      	add	sp, #180	@ 0xb4
   22b24:	bdf0      	pop	{r4, r5, r6, r7, pc}
   22b26:	46c0      	nop			@ (mov r8, r8)
   22b28:	00001e50 	.word	0x00001e50

00022b2c <_ZN20complex_dynamic_type3app17h5bf9ec4f303103fcE>:
   22b2c:	b5f0      	push	{r4, r5, r6, r7, lr}
   22b2e:	af03      	add	r7, sp, #12
   22b30:	b099      	sub	sp, #100	@ 0x64
   22b32:	9004      	str	r0, [sp, #16]
   22b34:	a805      	add	r0, sp, #20
   22b36:	2402      	movs	r4, #2
   22b38:	7004      	strb	r4, [r0, #0]
   22b3a:	1c46      	adds	r6, r0, #1
   22b3c:	221e      	movs	r2, #30
   22b3e:	9203      	str	r2, [sp, #12]
   22b40:	4630      	mov	r0, r6
   22b42:	f008 fae1 	bl	2b108 <__aeabi_memcpy>
   22b46:	ad0d      	add	r5, sp, #52	@ 0x34
   22b48:	1c68      	adds	r0, r5, #1
   22b4a:	212c      	movs	r1, #44	@ 0x2c
   22b4c:	9002      	str	r0, [sp, #8]
   22b4e:	f008 f91b 	bl	2ad88 <__aeabi_memclr>
   22b52:	9401      	str	r4, [sp, #4]
   22b54:	702c      	strb	r4, [r5, #0]
   22b56:	4848      	ldr	r0, [pc, #288]	@ (22c78 <_ZN20complex_dynamic_type3app17h5bf9ec4f303103fcE+0x14c>)
   22b58:	2107      	movs	r1, #7
   22b5a:	4632      	mov	r2, r6
   22b5c:	9b03      	ldr	r3, [sp, #12]
   22b5e:	df04      	svc	4
   22b60:	2802      	cmp	r0, #2
   22b62:	d104      	bne.n	22b6e <_ZN20complex_dynamic_type3app17h5bf9ec4f303103fcE+0x42>
   22b64:	2001      	movs	r0, #1
   22b66:	9a04      	ldr	r2, [sp, #16]
   22b68:	7010      	strb	r0, [r2, #0]
   22b6a:	6051      	str	r1, [r2, #4]
   22b6c:	e02d      	b.n	22bca <_ZN20complex_dynamic_type3app17h5bf9ec4f303103fcE+0x9e>
   22b6e:	9d04      	ldr	r5, [sp, #16]
   22b70:	a805      	add	r0, sp, #20
   22b72:	2104      	movs	r1, #4
   22b74:	7001      	strb	r1, [r0, #0]
   22b76:	4840      	ldr	r0, [pc, #256]	@ (22c78 <_ZN20complex_dynamic_type3app17h5bf9ec4f303103fcE+0x14c>)
   22b78:	2100      	movs	r1, #0
   22b7a:	232c      	movs	r3, #44	@ 0x2c
   22b7c:	9c02      	ldr	r4, [sp, #8]
   22b7e:	4622      	mov	r2, r4
   22b80:	df03      	svc	3
   22b82:	2802      	cmp	r0, #2
   22b84:	d10e      	bne.n	22ba4 <_ZN20complex_dynamic_type3app17h5bf9ec4f303103fcE+0x78>
   22b86:	2001      	movs	r0, #1
   22b88:	7028      	strb	r0, [r5, #0]
   22b8a:	6069      	str	r1, [r5, #4]
   22b8c:	a80d      	add	r0, sp, #52	@ 0x34
   22b8e:	7800      	ldrb	r0, [r0, #0]
   22b90:	2802      	cmp	r0, #2
   22b92:	d01a      	beq.n	22bca <_ZN20complex_dynamic_type3app17h5bf9ec4f303103fcE+0x9e>
   22b94:	2803      	cmp	r0, #3
   22b96:	d013      	beq.n	22bc0 <_ZN20complex_dynamic_type3app17h5bf9ec4f303103fcE+0x94>
   22b98:	4837      	ldr	r0, [pc, #220]	@ (22c78 <_ZN20complex_dynamic_type3app17h5bf9ec4f303103fcE+0x14c>)
   22b9a:	2100      	movs	r1, #0
   22b9c:	460a      	mov	r2, r1
   22b9e:	460b      	mov	r3, r1
   22ba0:	df04      	svc	4
   22ba2:	e012      	b.n	22bca <_ZN20complex_dynamic_type3app17h5bf9ec4f303103fcE+0x9e>
   22ba4:	a80d      	add	r0, sp, #52	@ 0x34
   22ba6:	2103      	movs	r1, #3
   22ba8:	7001      	strb	r1, [r0, #0]
   22baa:	4833      	ldr	r0, [pc, #204]	@ (22c78 <_ZN20complex_dynamic_type3app17h5bf9ec4f303103fcE+0x14c>)
   22bac:	2107      	movs	r1, #7
   22bae:	2600      	movs	r6, #0
   22bb0:	4632      	mov	r2, r6
   22bb2:	4633      	mov	r3, r6
   22bb4:	df02      	svc	2
   22bb6:	2880      	cmp	r0, #128	@ 0x80
   22bb8:	d21b      	bcs.n	22bf2 <_ZN20complex_dynamic_type3app17h5bf9ec4f303103fcE+0xc6>
   22bba:	2001      	movs	r0, #1
   22bbc:	7028      	strb	r0, [r5, #0]
   22bbe:	6069      	str	r1, [r5, #4]
   22bc0:	482d      	ldr	r0, [pc, #180]	@ (22c78 <_ZN20complex_dynamic_type3app17h5bf9ec4f303103fcE+0x14c>)
   22bc2:	2100      	movs	r1, #0
   22bc4:	460a      	mov	r2, r1
   22bc6:	460b      	mov	r3, r1
   22bc8:	df03      	svc	3
   22bca:	a805      	add	r0, sp, #20
   22bcc:	7800      	ldrb	r0, [r0, #0]
   22bce:	2802      	cmp	r0, #2
   22bd0:	d045      	beq.n	22c5e <_ZN20complex_dynamic_type3app17h5bf9ec4f303103fcE+0x132>
   22bd2:	2804      	cmp	r0, #4
   22bd4:	d106      	bne.n	22be4 <_ZN20complex_dynamic_type3app17h5bf9ec4f303103fcE+0xb8>
   22bd6:	4828      	ldr	r0, [pc, #160]	@ (22c78 <_ZN20complex_dynamic_type3app17h5bf9ec4f303103fcE+0x14c>)
   22bd8:	2107      	movs	r1, #7
   22bda:	2200      	movs	r2, #0
   22bdc:	4613      	mov	r3, r2
   22bde:	df04      	svc	4
   22be0:	b019      	add	sp, #100	@ 0x64
   22be2:	bdf0      	pop	{r4, r5, r6, r7, pc}
   22be4:	4824      	ldr	r0, [pc, #144]	@ (22c78 <_ZN20complex_dynamic_type3app17h5bf9ec4f303103fcE+0x14c>)
   22be6:	2107      	movs	r1, #7
   22be8:	2200      	movs	r2, #0
   22bea:	4613      	mov	r3, r2
   22bec:	df03      	svc	3
   22bee:	b019      	add	sp, #100	@ 0x64
   22bf0:	bdf0      	pop	{r4, r5, r6, r7, pc}
   22bf2:	a805      	add	r0, sp, #20
   22bf4:	7800      	ldrb	r0, [r0, #0]
   22bf6:	2802      	cmp	r0, #2
   22bf8:	d00c      	beq.n	22c14 <_ZN20complex_dynamic_type3app17h5bf9ec4f303103fcE+0xe8>
   22bfa:	2803      	cmp	r0, #3
   22bfc:	d105      	bne.n	22c0a <_ZN20complex_dynamic_type3app17h5bf9ec4f303103fcE+0xde>
   22bfe:	481e      	ldr	r0, [pc, #120]	@ (22c78 <_ZN20complex_dynamic_type3app17h5bf9ec4f303103fcE+0x14c>)
   22c00:	2107      	movs	r1, #7
   22c02:	2200      	movs	r2, #0
   22c04:	4613      	mov	r3, r2
   22c06:	df03      	svc	3
   22c08:	e004      	b.n	22c14 <_ZN20complex_dynamic_type3app17h5bf9ec4f303103fcE+0xe8>
   22c0a:	481b      	ldr	r0, [pc, #108]	@ (22c78 <_ZN20complex_dynamic_type3app17h5bf9ec4f303103fcE+0x14c>)
   22c0c:	2107      	movs	r1, #7
   22c0e:	2200      	movs	r2, #0
   22c10:	4613      	mov	r3, r2
   22c12:	df04      	svc	4
   22c14:	a805      	add	r0, sp, #20
   22c16:	9901      	ldr	r1, [sp, #4]
   22c18:	7001      	strb	r1, [r0, #0]
   22c1a:	a80d      	add	r0, sp, #52	@ 0x34
   22c1c:	7800      	ldrb	r0, [r0, #0]
   22c1e:	2804      	cmp	r0, #4
   22c20:	d007      	beq.n	22c32 <_ZN20complex_dynamic_type3app17h5bf9ec4f303103fcE+0x106>
   22c22:	2803      	cmp	r0, #3
   22c24:	d11d      	bne.n	22c62 <_ZN20complex_dynamic_type3app17h5bf9ec4f303103fcE+0x136>
   22c26:	4814      	ldr	r0, [pc, #80]	@ (22c78 <_ZN20complex_dynamic_type3app17h5bf9ec4f303103fcE+0x14c>)
   22c28:	2100      	movs	r1, #0
   22c2a:	460a      	mov	r2, r1
   22c2c:	460b      	mov	r3, r1
   22c2e:	df03      	svc	3
   22c30:	e004      	b.n	22c3c <_ZN20complex_dynamic_type3app17h5bf9ec4f303103fcE+0x110>
   22c32:	4811      	ldr	r0, [pc, #68]	@ (22c78 <_ZN20complex_dynamic_type3app17h5bf9ec4f303103fcE+0x14c>)
   22c34:	2100      	movs	r1, #0
   22c36:	460a      	mov	r2, r1
   22c38:	460b      	mov	r3, r1
   22c3a:	df04      	svc	4
   22c3c:	a805      	add	r0, sp, #20
   22c3e:	7804      	ldrb	r4, [r0, #0]
   22c40:	1c68      	adds	r0, r5, #1
   22c42:	222c      	movs	r2, #44	@ 0x2c
   22c44:	9902      	ldr	r1, [sp, #8]
   22c46:	f008 fa5f 	bl	2b108 <__aeabi_memcpy>
   22c4a:	702e      	strb	r6, [r5, #0]
   22c4c:	2c02      	cmp	r4, #2
   22c4e:	d006      	beq.n	22c5e <_ZN20complex_dynamic_type3app17h5bf9ec4f303103fcE+0x132>
   22c50:	4809      	ldr	r0, [pc, #36]	@ (22c78 <_ZN20complex_dynamic_type3app17h5bf9ec4f303103fcE+0x14c>)
   22c52:	2107      	movs	r1, #7
   22c54:	2200      	movs	r2, #0
   22c56:	4613      	mov	r3, r2
   22c58:	2c04      	cmp	r4, #4
   22c5a:	d10a      	bne.n	22c72 <_ZN20complex_dynamic_type3app17h5bf9ec4f303103fcE+0x146>
   22c5c:	df04      	svc	4
   22c5e:	b019      	add	sp, #100	@ 0x64
   22c60:	bdf0      	pop	{r4, r5, r6, r7, pc}
   22c62:	1c68      	adds	r0, r5, #1
   22c64:	222c      	movs	r2, #44	@ 0x2c
   22c66:	4621      	mov	r1, r4
   22c68:	f008 fa4e 	bl	2b108 <__aeabi_memcpy>
   22c6c:	702e      	strb	r6, [r5, #0]
   22c6e:	b019      	add	sp, #100	@ 0x64
   22c70:	bdf0      	pop	{r4, r5, r6, r7, pc}
   22c72:	df03      	svc	3
   22c74:	b019      	add	sp, #100	@ 0x64
   22c76:	bdf0      	pop	{r4, r5, r6, r7, pc}
   22c78:	000003fb 	.word	0x000003fb

00022c7c <_ZN20complex_dynamic_type3app17h60f35d3a0cd495deE>:
   22c7c:	b5f0      	push	{r4, r5, r6, r7, lr}
   22c7e:	af03      	add	r7, sp, #12
   22c80:	b097      	sub	sp, #92	@ 0x5c
   22c82:	9004      	str	r0, [sp, #16]
   22c84:	a805      	add	r0, sp, #20
   22c86:	2402      	movs	r4, #2
   22c88:	7004      	strb	r4, [r0, #0]
   22c8a:	1c46      	adds	r6, r0, #1
   22c8c:	2229      	movs	r2, #41	@ 0x29
   22c8e:	9203      	str	r2, [sp, #12]
   22c90:	4630      	mov	r0, r6
   22c92:	f008 fa39 	bl	2b108 <__aeabi_memcpy>
   22c96:	ad10      	add	r5, sp, #64	@ 0x40
   22c98:	1c68      	adds	r0, r5, #1
   22c9a:	211a      	movs	r1, #26
   22c9c:	9002      	str	r0, [sp, #8]
   22c9e:	f008 f873 	bl	2ad88 <__aeabi_memclr>
   22ca2:	9401      	str	r4, [sp, #4]
   22ca4:	702c      	strb	r4, [r5, #0]
   22ca6:	4848      	ldr	r0, [pc, #288]	@ (22dc8 <_ZN20complex_dynamic_type3app17h60f35d3a0cd495deE+0x14c>)
   22ca8:	2105      	movs	r1, #5
   22caa:	4632      	mov	r2, r6
   22cac:	9b03      	ldr	r3, [sp, #12]
   22cae:	df04      	svc	4
   22cb0:	2802      	cmp	r0, #2
   22cb2:	d104      	bne.n	22cbe <_ZN20complex_dynamic_type3app17h60f35d3a0cd495deE+0x42>
   22cb4:	2001      	movs	r0, #1
   22cb6:	9a04      	ldr	r2, [sp, #16]
   22cb8:	7010      	strb	r0, [r2, #0]
   22cba:	6051      	str	r1, [r2, #4]
   22cbc:	e02c      	b.n	22d18 <_ZN20complex_dynamic_type3app17h60f35d3a0cd495deE+0x9c>
   22cbe:	9d04      	ldr	r5, [sp, #16]
   22cc0:	a805      	add	r0, sp, #20
   22cc2:	2104      	movs	r1, #4
   22cc4:	7001      	strb	r1, [r0, #0]
   22cc6:	4840      	ldr	r0, [pc, #256]	@ (22dc8 <_ZN20complex_dynamic_type3app17h60f35d3a0cd495deE+0x14c>)
   22cc8:	2403      	movs	r4, #3
   22cca:	231a      	movs	r3, #26
   22ccc:	4621      	mov	r1, r4
   22cce:	9a02      	ldr	r2, [sp, #8]
   22cd0:	df03      	svc	3
   22cd2:	2802      	cmp	r0, #2
   22cd4:	d10e      	bne.n	22cf4 <_ZN20complex_dynamic_type3app17h60f35d3a0cd495deE+0x78>
   22cd6:	2001      	movs	r0, #1
   22cd8:	7028      	strb	r0, [r5, #0]
   22cda:	6069      	str	r1, [r5, #4]
   22cdc:	a810      	add	r0, sp, #64	@ 0x40
   22cde:	7800      	ldrb	r0, [r0, #0]
   22ce0:	2802      	cmp	r0, #2
   22ce2:	d019      	beq.n	22d18 <_ZN20complex_dynamic_type3app17h60f35d3a0cd495deE+0x9c>
   22ce4:	2803      	cmp	r0, #3
   22ce6:	d012      	beq.n	22d0e <_ZN20complex_dynamic_type3app17h60f35d3a0cd495deE+0x92>
   22ce8:	4837      	ldr	r0, [pc, #220]	@ (22dc8 <_ZN20complex_dynamic_type3app17h60f35d3a0cd495deE+0x14c>)
   22cea:	2103      	movs	r1, #3
   22cec:	2200      	movs	r2, #0
   22cee:	4613      	mov	r3, r2
   22cf0:	df04      	svc	4
   22cf2:	e011      	b.n	22d18 <_ZN20complex_dynamic_type3app17h60f35d3a0cd495deE+0x9c>
   22cf4:	a810      	add	r0, sp, #64	@ 0x40
   22cf6:	7004      	strb	r4, [r0, #0]
   22cf8:	4833      	ldr	r0, [pc, #204]	@ (22dc8 <_ZN20complex_dynamic_type3app17h60f35d3a0cd495deE+0x14c>)
   22cfa:	2105      	movs	r1, #5
   22cfc:	2600      	movs	r6, #0
   22cfe:	4622      	mov	r2, r4
   22d00:	4633      	mov	r3, r6
   22d02:	df02      	svc	2
   22d04:	2880      	cmp	r0, #128	@ 0x80
   22d06:	d21b      	bcs.n	22d40 <_ZN20complex_dynamic_type3app17h60f35d3a0cd495deE+0xc4>
   22d08:	2001      	movs	r0, #1
   22d0a:	7028      	strb	r0, [r5, #0]
   22d0c:	6069      	str	r1, [r5, #4]
   22d0e:	482e      	ldr	r0, [pc, #184]	@ (22dc8 <_ZN20complex_dynamic_type3app17h60f35d3a0cd495deE+0x14c>)
   22d10:	2103      	movs	r1, #3
   22d12:	2200      	movs	r2, #0
   22d14:	4613      	mov	r3, r2
   22d16:	df03      	svc	3
   22d18:	a805      	add	r0, sp, #20
   22d1a:	7800      	ldrb	r0, [r0, #0]
   22d1c:	2802      	cmp	r0, #2
   22d1e:	d045      	beq.n	22dac <_ZN20complex_dynamic_type3app17h60f35d3a0cd495deE+0x130>
   22d20:	2804      	cmp	r0, #4
   22d22:	d106      	bne.n	22d32 <_ZN20complex_dynamic_type3app17h60f35d3a0cd495deE+0xb6>
   22d24:	4828      	ldr	r0, [pc, #160]	@ (22dc8 <_ZN20complex_dynamic_type3app17h60f35d3a0cd495deE+0x14c>)
   22d26:	2105      	movs	r1, #5
   22d28:	2200      	movs	r2, #0
   22d2a:	4613      	mov	r3, r2
   22d2c:	df04      	svc	4
   22d2e:	b017      	add	sp, #92	@ 0x5c
   22d30:	bdf0      	pop	{r4, r5, r6, r7, pc}
   22d32:	4825      	ldr	r0, [pc, #148]	@ (22dc8 <_ZN20complex_dynamic_type3app17h60f35d3a0cd495deE+0x14c>)
   22d34:	2105      	movs	r1, #5
   22d36:	2200      	movs	r2, #0
   22d38:	4613      	mov	r3, r2
   22d3a:	df03      	svc	3
   22d3c:	b017      	add	sp, #92	@ 0x5c
   22d3e:	bdf0      	pop	{r4, r5, r6, r7, pc}
   22d40:	a805      	add	r0, sp, #20
   22d42:	7800      	ldrb	r0, [r0, #0]
   22d44:	2802      	cmp	r0, #2
   22d46:	d00c      	beq.n	22d62 <_ZN20complex_dynamic_type3app17h60f35d3a0cd495deE+0xe6>
   22d48:	2803      	cmp	r0, #3
   22d4a:	d105      	bne.n	22d58 <_ZN20complex_dynamic_type3app17h60f35d3a0cd495deE+0xdc>
   22d4c:	481e      	ldr	r0, [pc, #120]	@ (22dc8 <_ZN20complex_dynamic_type3app17h60f35d3a0cd495deE+0x14c>)
   22d4e:	2105      	movs	r1, #5
   22d50:	2200      	movs	r2, #0
   22d52:	4613      	mov	r3, r2
   22d54:	df03      	svc	3
   22d56:	e004      	b.n	22d62 <_ZN20complex_dynamic_type3app17h60f35d3a0cd495deE+0xe6>
   22d58:	481b      	ldr	r0, [pc, #108]	@ (22dc8 <_ZN20complex_dynamic_type3app17h60f35d3a0cd495deE+0x14c>)
   22d5a:	2105      	movs	r1, #5
   22d5c:	2200      	movs	r2, #0
   22d5e:	4613      	mov	r3, r2
   22d60:	df04      	svc	4
   22d62:	a805      	add	r0, sp, #20
   22d64:	9901      	ldr	r1, [sp, #4]
   22d66:	7001      	strb	r1, [r0, #0]
   22d68:	a810      	add	r0, sp, #64	@ 0x40
   22d6a:	7800      	ldrb	r0, [r0, #0]
   22d6c:	2804      	cmp	r0, #4
   22d6e:	d007      	beq.n	22d80 <_ZN20complex_dynamic_type3app17h60f35d3a0cd495deE+0x104>
   22d70:	2803      	cmp	r0, #3
   22d72:	d11d      	bne.n	22db0 <_ZN20complex_dynamic_type3app17h60f35d3a0cd495deE+0x134>
   22d74:	4814      	ldr	r0, [pc, #80]	@ (22dc8 <_ZN20complex_dynamic_type3app17h60f35d3a0cd495deE+0x14c>)
   22d76:	2103      	movs	r1, #3
   22d78:	2200      	movs	r2, #0
   22d7a:	4613      	mov	r3, r2
   22d7c:	df03      	svc	3
   22d7e:	e004      	b.n	22d8a <_ZN20complex_dynamic_type3app17h60f35d3a0cd495deE+0x10e>
   22d80:	4811      	ldr	r0, [pc, #68]	@ (22dc8 <_ZN20complex_dynamic_type3app17h60f35d3a0cd495deE+0x14c>)
   22d82:	2103      	movs	r1, #3
   22d84:	2200      	movs	r2, #0
   22d86:	4613      	mov	r3, r2
   22d88:	df04      	svc	4
   22d8a:	a805      	add	r0, sp, #20
   22d8c:	7804      	ldrb	r4, [r0, #0]
   22d8e:	1c68      	adds	r0, r5, #1
   22d90:	221a      	movs	r2, #26
   22d92:	9902      	ldr	r1, [sp, #8]
   22d94:	f008 f9b8 	bl	2b108 <__aeabi_memcpy>
   22d98:	702e      	strb	r6, [r5, #0]
   22d9a:	2c02      	cmp	r4, #2
   22d9c:	d006      	beq.n	22dac <_ZN20complex_dynamic_type3app17h60f35d3a0cd495deE+0x130>
   22d9e:	480a      	ldr	r0, [pc, #40]	@ (22dc8 <_ZN20complex_dynamic_type3app17h60f35d3a0cd495deE+0x14c>)
   22da0:	2105      	movs	r1, #5
   22da2:	2200      	movs	r2, #0
   22da4:	4613      	mov	r3, r2
   22da6:	2c04      	cmp	r4, #4
   22da8:	d10a      	bne.n	22dc0 <_ZN20complex_dynamic_type3app17h60f35d3a0cd495deE+0x144>
   22daa:	df04      	svc	4
   22dac:	b017      	add	sp, #92	@ 0x5c
   22dae:	bdf0      	pop	{r4, r5, r6, r7, pc}
   22db0:	1c68      	adds	r0, r5, #1
   22db2:	221a      	movs	r2, #26
   22db4:	9902      	ldr	r1, [sp, #8]
   22db6:	f008 f9a7 	bl	2b108 <__aeabi_memcpy>
   22dba:	702e      	strb	r6, [r5, #0]
   22dbc:	b017      	add	sp, #92	@ 0x5c
   22dbe:	bdf0      	pop	{r4, r5, r6, r7, pc}
   22dc0:	df03      	svc	3
   22dc2:	b017      	add	sp, #92	@ 0x5c
   22dc4:	bdf0      	pop	{r4, r5, r6, r7, pc}
   22dc6:	46c0      	nop			@ (mov r8, r8)
   22dc8:	00002048 	.word	0x00002048

00022dcc <_ZN20complex_dynamic_type3app17h64cbc4ff6b178503E>:
   22dcc:	b5f0      	push	{r4, r5, r6, r7, lr}
   22dce:	af03      	add	r7, sp, #12
   22dd0:	b0ad      	sub	sp, #180	@ 0xb4
   22dd2:	9003      	str	r0, [sp, #12]
   22dd4:	a804      	add	r0, sp, #16
   22dd6:	2402      	movs	r4, #2
   22dd8:	7004      	strb	r4, [r0, #0]
   22dda:	1c46      	adds	r6, r0, #1
   22ddc:	2256      	movs	r2, #86	@ 0x56
   22dde:	9202      	str	r2, [sp, #8]
   22de0:	4630      	mov	r0, r6
   22de2:	f008 f991 	bl	2b108 <__aeabi_memcpy>
   22de6:	ad1a      	add	r5, sp, #104	@ 0x68
   22de8:	1c68      	adds	r0, r5, #1
   22dea:	2149      	movs	r1, #73	@ 0x49
   22dec:	9001      	str	r0, [sp, #4]
   22dee:	f007 ffcb 	bl	2ad88 <__aeabi_memclr>
   22df2:	9400      	str	r4, [sp, #0]
   22df4:	702c      	strb	r4, [r5, #0]
   22df6:	4848      	ldr	r0, [pc, #288]	@ (22f18 <_ZN20complex_dynamic_type3app17h64cbc4ff6b178503E+0x14c>)
   22df8:	2106      	movs	r1, #6
   22dfa:	4632      	mov	r2, r6
   22dfc:	9b02      	ldr	r3, [sp, #8]
   22dfe:	df04      	svc	4
   22e00:	2802      	cmp	r0, #2
   22e02:	d104      	bne.n	22e0e <_ZN20complex_dynamic_type3app17h64cbc4ff6b178503E+0x42>
   22e04:	2001      	movs	r0, #1
   22e06:	9a03      	ldr	r2, [sp, #12]
   22e08:	7010      	strb	r0, [r2, #0]
   22e0a:	6051      	str	r1, [r2, #4]
   22e0c:	e02d      	b.n	22e6a <_ZN20complex_dynamic_type3app17h64cbc4ff6b178503E+0x9e>
   22e0e:	9d03      	ldr	r5, [sp, #12]
   22e10:	a804      	add	r0, sp, #16
   22e12:	2104      	movs	r1, #4
   22e14:	7001      	strb	r1, [r0, #0]
   22e16:	4840      	ldr	r0, [pc, #256]	@ (22f18 <_ZN20complex_dynamic_type3app17h64cbc4ff6b178503E+0x14c>)
   22e18:	2106      	movs	r1, #6
   22e1a:	2349      	movs	r3, #73	@ 0x49
   22e1c:	9c01      	ldr	r4, [sp, #4]
   22e1e:	4622      	mov	r2, r4
   22e20:	df03      	svc	3
   22e22:	2802      	cmp	r0, #2
   22e24:	d10e      	bne.n	22e44 <_ZN20complex_dynamic_type3app17h64cbc4ff6b178503E+0x78>
   22e26:	2001      	movs	r0, #1
   22e28:	7028      	strb	r0, [r5, #0]
   22e2a:	6069      	str	r1, [r5, #4]
   22e2c:	a81a      	add	r0, sp, #104	@ 0x68
   22e2e:	7800      	ldrb	r0, [r0, #0]
   22e30:	2802      	cmp	r0, #2
   22e32:	d01a      	beq.n	22e6a <_ZN20complex_dynamic_type3app17h64cbc4ff6b178503E+0x9e>
   22e34:	2803      	cmp	r0, #3
   22e36:	d013      	beq.n	22e60 <_ZN20complex_dynamic_type3app17h64cbc4ff6b178503E+0x94>
   22e38:	4837      	ldr	r0, [pc, #220]	@ (22f18 <_ZN20complex_dynamic_type3app17h64cbc4ff6b178503E+0x14c>)
   22e3a:	2106      	movs	r1, #6
   22e3c:	2200      	movs	r2, #0
   22e3e:	4613      	mov	r3, r2
   22e40:	df04      	svc	4
   22e42:	e012      	b.n	22e6a <_ZN20complex_dynamic_type3app17h64cbc4ff6b178503E+0x9e>
   22e44:	a81a      	add	r0, sp, #104	@ 0x68
   22e46:	2103      	movs	r1, #3
   22e48:	7001      	strb	r1, [r0, #0]
   22e4a:	4833      	ldr	r0, [pc, #204]	@ (22f18 <_ZN20complex_dynamic_type3app17h64cbc4ff6b178503E+0x14c>)
   22e4c:	2106      	movs	r1, #6
   22e4e:	2600      	movs	r6, #0
   22e50:	460a      	mov	r2, r1
   22e52:	4633      	mov	r3, r6
   22e54:	df02      	svc	2
   22e56:	2880      	cmp	r0, #128	@ 0x80
   22e58:	d21b      	bcs.n	22e92 <_ZN20complex_dynamic_type3app17h64cbc4ff6b178503E+0xc6>
   22e5a:	2001      	movs	r0, #1
   22e5c:	7028      	strb	r0, [r5, #0]
   22e5e:	6069      	str	r1, [r5, #4]
   22e60:	482d      	ldr	r0, [pc, #180]	@ (22f18 <_ZN20complex_dynamic_type3app17h64cbc4ff6b178503E+0x14c>)
   22e62:	2106      	movs	r1, #6
   22e64:	2200      	movs	r2, #0
   22e66:	4613      	mov	r3, r2
   22e68:	df03      	svc	3
   22e6a:	a804      	add	r0, sp, #16
   22e6c:	7800      	ldrb	r0, [r0, #0]
   22e6e:	2802      	cmp	r0, #2
   22e70:	d045      	beq.n	22efe <_ZN20complex_dynamic_type3app17h64cbc4ff6b178503E+0x132>
   22e72:	2804      	cmp	r0, #4
   22e74:	d106      	bne.n	22e84 <_ZN20complex_dynamic_type3app17h64cbc4ff6b178503E+0xb8>
   22e76:	4828      	ldr	r0, [pc, #160]	@ (22f18 <_ZN20complex_dynamic_type3app17h64cbc4ff6b178503E+0x14c>)
   22e78:	2106      	movs	r1, #6
   22e7a:	2200      	movs	r2, #0
   22e7c:	4613      	mov	r3, r2
   22e7e:	df04      	svc	4
   22e80:	b02d      	add	sp, #180	@ 0xb4
   22e82:	bdf0      	pop	{r4, r5, r6, r7, pc}
   22e84:	4824      	ldr	r0, [pc, #144]	@ (22f18 <_ZN20complex_dynamic_type3app17h64cbc4ff6b178503E+0x14c>)
   22e86:	2106      	movs	r1, #6
   22e88:	2200      	movs	r2, #0
   22e8a:	4613      	mov	r3, r2
   22e8c:	df03      	svc	3
   22e8e:	b02d      	add	sp, #180	@ 0xb4
   22e90:	bdf0      	pop	{r4, r5, r6, r7, pc}
   22e92:	a804      	add	r0, sp, #16
   22e94:	7800      	ldrb	r0, [r0, #0]
   22e96:	2802      	cmp	r0, #2
   22e98:	d00c      	beq.n	22eb4 <_ZN20complex_dynamic_type3app17h64cbc4ff6b178503E+0xe8>
   22e9a:	2803      	cmp	r0, #3
   22e9c:	d105      	bne.n	22eaa <_ZN20complex_dynamic_type3app17h64cbc4ff6b178503E+0xde>
   22e9e:	481e      	ldr	r0, [pc, #120]	@ (22f18 <_ZN20complex_dynamic_type3app17h64cbc4ff6b178503E+0x14c>)
   22ea0:	2106      	movs	r1, #6
   22ea2:	2200      	movs	r2, #0
   22ea4:	4613      	mov	r3, r2
   22ea6:	df03      	svc	3
   22ea8:	e004      	b.n	22eb4 <_ZN20complex_dynamic_type3app17h64cbc4ff6b178503E+0xe8>
   22eaa:	481b      	ldr	r0, [pc, #108]	@ (22f18 <_ZN20complex_dynamic_type3app17h64cbc4ff6b178503E+0x14c>)
   22eac:	2106      	movs	r1, #6
   22eae:	2200      	movs	r2, #0
   22eb0:	4613      	mov	r3, r2
   22eb2:	df04      	svc	4
   22eb4:	a804      	add	r0, sp, #16
   22eb6:	9900      	ldr	r1, [sp, #0]
   22eb8:	7001      	strb	r1, [r0, #0]
   22eba:	a81a      	add	r0, sp, #104	@ 0x68
   22ebc:	7800      	ldrb	r0, [r0, #0]
   22ebe:	2804      	cmp	r0, #4
   22ec0:	d007      	beq.n	22ed2 <_ZN20complex_dynamic_type3app17h64cbc4ff6b178503E+0x106>
   22ec2:	2803      	cmp	r0, #3
   22ec4:	d11d      	bne.n	22f02 <_ZN20complex_dynamic_type3app17h64cbc4ff6b178503E+0x136>
   22ec6:	4814      	ldr	r0, [pc, #80]	@ (22f18 <_ZN20complex_dynamic_type3app17h64cbc4ff6b178503E+0x14c>)
   22ec8:	2106      	movs	r1, #6
   22eca:	2200      	movs	r2, #0
   22ecc:	4613      	mov	r3, r2
   22ece:	df03      	svc	3
   22ed0:	e004      	b.n	22edc <_ZN20complex_dynamic_type3app17h64cbc4ff6b178503E+0x110>
   22ed2:	4811      	ldr	r0, [pc, #68]	@ (22f18 <_ZN20complex_dynamic_type3app17h64cbc4ff6b178503E+0x14c>)
   22ed4:	2106      	movs	r1, #6
   22ed6:	2200      	movs	r2, #0
   22ed8:	4613      	mov	r3, r2
   22eda:	df04      	svc	4
   22edc:	a804      	add	r0, sp, #16
   22ede:	7804      	ldrb	r4, [r0, #0]
   22ee0:	1c68      	adds	r0, r5, #1
   22ee2:	2249      	movs	r2, #73	@ 0x49
   22ee4:	9901      	ldr	r1, [sp, #4]
   22ee6:	f008 f90f 	bl	2b108 <__aeabi_memcpy>
   22eea:	702e      	strb	r6, [r5, #0]
   22eec:	2c02      	cmp	r4, #2
   22eee:	d006      	beq.n	22efe <_ZN20complex_dynamic_type3app17h64cbc4ff6b178503E+0x132>
   22ef0:	4809      	ldr	r0, [pc, #36]	@ (22f18 <_ZN20complex_dynamic_type3app17h64cbc4ff6b178503E+0x14c>)
   22ef2:	2106      	movs	r1, #6
   22ef4:	2200      	movs	r2, #0
   22ef6:	4613      	mov	r3, r2
   22ef8:	2c04      	cmp	r4, #4
   22efa:	d10a      	bne.n	22f12 <_ZN20complex_dynamic_type3app17h64cbc4ff6b178503E+0x146>
   22efc:	df04      	svc	4
   22efe:	b02d      	add	sp, #180	@ 0xb4
   22f00:	bdf0      	pop	{r4, r5, r6, r7, pc}
   22f02:	1c68      	adds	r0, r5, #1
   22f04:	2249      	movs	r2, #73	@ 0x49
   22f06:	4621      	mov	r1, r4
   22f08:	f008 f8fe 	bl	2b108 <__aeabi_memcpy>
   22f0c:	702e      	strb	r6, [r5, #0]
   22f0e:	b02d      	add	sp, #180	@ 0xb4
   22f10:	bdf0      	pop	{r4, r5, r6, r7, pc}
   22f12:	df03      	svc	3
   22f14:	b02d      	add	sp, #180	@ 0xb4
   22f16:	bdf0      	pop	{r4, r5, r6, r7, pc}
   22f18:	00001c6b 	.word	0x00001c6b

00022f1c <_ZN20complex_dynamic_type3app17h655df8382a7c5c7eE>:
   22f1c:	b5f0      	push	{r4, r5, r6, r7, lr}
   22f1e:	af03      	add	r7, sp, #12
   22f20:	b099      	sub	sp, #100	@ 0x64
   22f22:	9004      	str	r0, [sp, #16]
   22f24:	a805      	add	r0, sp, #20
   22f26:	2402      	movs	r4, #2
   22f28:	7004      	strb	r4, [r0, #0]
   22f2a:	1c40      	adds	r0, r0, #1
   22f2c:	9003      	str	r0, [sp, #12]
   22f2e:	2521      	movs	r5, #33	@ 0x21
   22f30:	462a      	mov	r2, r5
   22f32:	f008 f8e9 	bl	2b108 <__aeabi_memcpy>
   22f36:	ae0e      	add	r6, sp, #56	@ 0x38
   22f38:	1c70      	adds	r0, r6, #1
   22f3a:	212a      	movs	r1, #42	@ 0x2a
   22f3c:	9002      	str	r0, [sp, #8]
   22f3e:	f007 ff23 	bl	2ad88 <__aeabi_memclr>
   22f42:	9401      	str	r4, [sp, #4]
   22f44:	7034      	strb	r4, [r6, #0]
   22f46:	4849      	ldr	r0, [pc, #292]	@ (2306c <_ZN20complex_dynamic_type3app17h655df8382a7c5c7eE+0x150>)
   22f48:	2601      	movs	r6, #1
   22f4a:	4631      	mov	r1, r6
   22f4c:	9a03      	ldr	r2, [sp, #12]
   22f4e:	462b      	mov	r3, r5
   22f50:	df04      	svc	4
   22f52:	2802      	cmp	r0, #2
   22f54:	d103      	bne.n	22f5e <_ZN20complex_dynamic_type3app17h655df8382a7c5c7eE+0x42>
   22f56:	9804      	ldr	r0, [sp, #16]
   22f58:	7006      	strb	r6, [r0, #0]
   22f5a:	6041      	str	r1, [r0, #4]
   22f5c:	e02c      	b.n	22fb8 <_ZN20complex_dynamic_type3app17h655df8382a7c5c7eE+0x9c>
   22f5e:	a805      	add	r0, sp, #20
   22f60:	2104      	movs	r1, #4
   22f62:	7001      	strb	r1, [r0, #0]
   22f64:	4841      	ldr	r0, [pc, #260]	@ (2306c <_ZN20complex_dynamic_type3app17h655df8382a7c5c7eE+0x150>)
   22f66:	2403      	movs	r4, #3
   22f68:	232a      	movs	r3, #42	@ 0x2a
   22f6a:	4621      	mov	r1, r4
   22f6c:	9a02      	ldr	r2, [sp, #8]
   22f6e:	df03      	svc	3
   22f70:	2802      	cmp	r0, #2
   22f72:	d10e      	bne.n	22f92 <_ZN20complex_dynamic_type3app17h655df8382a7c5c7eE+0x76>
   22f74:	9804      	ldr	r0, [sp, #16]
   22f76:	7006      	strb	r6, [r0, #0]
   22f78:	6041      	str	r1, [r0, #4]
   22f7a:	a80e      	add	r0, sp, #56	@ 0x38
   22f7c:	7800      	ldrb	r0, [r0, #0]
   22f7e:	2802      	cmp	r0, #2
   22f80:	d01a      	beq.n	22fb8 <_ZN20complex_dynamic_type3app17h655df8382a7c5c7eE+0x9c>
   22f82:	2803      	cmp	r0, #3
   22f84:	d013      	beq.n	22fae <_ZN20complex_dynamic_type3app17h655df8382a7c5c7eE+0x92>
   22f86:	4839      	ldr	r0, [pc, #228]	@ (2306c <_ZN20complex_dynamic_type3app17h655df8382a7c5c7eE+0x150>)
   22f88:	2103      	movs	r1, #3
   22f8a:	2200      	movs	r2, #0
   22f8c:	4613      	mov	r3, r2
   22f8e:	df04      	svc	4
   22f90:	e012      	b.n	22fb8 <_ZN20complex_dynamic_type3app17h655df8382a7c5c7eE+0x9c>
   22f92:	a80e      	add	r0, sp, #56	@ 0x38
   22f94:	7004      	strb	r4, [r0, #0]
   22f96:	4835      	ldr	r0, [pc, #212]	@ (2306c <_ZN20complex_dynamic_type3app17h655df8382a7c5c7eE+0x150>)
   22f98:	2501      	movs	r5, #1
   22f9a:	2600      	movs	r6, #0
   22f9c:	4629      	mov	r1, r5
   22f9e:	4622      	mov	r2, r4
   22fa0:	4633      	mov	r3, r6
   22fa2:	df02      	svc	2
   22fa4:	2880      	cmp	r0, #128	@ 0x80
   22fa6:	d21b      	bcs.n	22fe0 <_ZN20complex_dynamic_type3app17h655df8382a7c5c7eE+0xc4>
   22fa8:	9804      	ldr	r0, [sp, #16]
   22faa:	7005      	strb	r5, [r0, #0]
   22fac:	6041      	str	r1, [r0, #4]
   22fae:	482f      	ldr	r0, [pc, #188]	@ (2306c <_ZN20complex_dynamic_type3app17h655df8382a7c5c7eE+0x150>)
   22fb0:	2103      	movs	r1, #3
   22fb2:	2200      	movs	r2, #0
   22fb4:	4613      	mov	r3, r2
   22fb6:	df03      	svc	3
   22fb8:	a805      	add	r0, sp, #20
   22fba:	7800      	ldrb	r0, [r0, #0]
   22fbc:	2802      	cmp	r0, #2
   22fbe:	d046      	beq.n	2304e <_ZN20complex_dynamic_type3app17h655df8382a7c5c7eE+0x132>
   22fc0:	2804      	cmp	r0, #4
   22fc2:	d106      	bne.n	22fd2 <_ZN20complex_dynamic_type3app17h655df8382a7c5c7eE+0xb6>
   22fc4:	4829      	ldr	r0, [pc, #164]	@ (2306c <_ZN20complex_dynamic_type3app17h655df8382a7c5c7eE+0x150>)
   22fc6:	2101      	movs	r1, #1
   22fc8:	2200      	movs	r2, #0
   22fca:	4613      	mov	r3, r2
   22fcc:	df04      	svc	4
   22fce:	b019      	add	sp, #100	@ 0x64
   22fd0:	bdf0      	pop	{r4, r5, r6, r7, pc}
   22fd2:	4826      	ldr	r0, [pc, #152]	@ (2306c <_ZN20complex_dynamic_type3app17h655df8382a7c5c7eE+0x150>)
   22fd4:	2101      	movs	r1, #1
   22fd6:	2200      	movs	r2, #0
   22fd8:	4613      	mov	r3, r2
   22fda:	df03      	svc	3
   22fdc:	b019      	add	sp, #100	@ 0x64
   22fde:	bdf0      	pop	{r4, r5, r6, r7, pc}
   22fe0:	a805      	add	r0, sp, #20
   22fe2:	7800      	ldrb	r0, [r0, #0]
   22fe4:	2802      	cmp	r0, #2
   22fe6:	d00c      	beq.n	23002 <_ZN20complex_dynamic_type3app17h655df8382a7c5c7eE+0xe6>
   22fe8:	2803      	cmp	r0, #3
   22fea:	d105      	bne.n	22ff8 <_ZN20complex_dynamic_type3app17h655df8382a7c5c7eE+0xdc>
   22fec:	481f      	ldr	r0, [pc, #124]	@ (2306c <_ZN20complex_dynamic_type3app17h655df8382a7c5c7eE+0x150>)
   22fee:	2101      	movs	r1, #1
   22ff0:	2200      	movs	r2, #0
   22ff2:	4613      	mov	r3, r2
   22ff4:	df03      	svc	3
   22ff6:	e004      	b.n	23002 <_ZN20complex_dynamic_type3app17h655df8382a7c5c7eE+0xe6>
   22ff8:	481c      	ldr	r0, [pc, #112]	@ (2306c <_ZN20complex_dynamic_type3app17h655df8382a7c5c7eE+0x150>)
   22ffa:	2101      	movs	r1, #1
   22ffc:	2200      	movs	r2, #0
   22ffe:	4613      	mov	r3, r2
   23000:	df04      	svc	4
   23002:	a805      	add	r0, sp, #20
   23004:	9901      	ldr	r1, [sp, #4]
   23006:	7001      	strb	r1, [r0, #0]
   23008:	a80e      	add	r0, sp, #56	@ 0x38
   2300a:	7800      	ldrb	r0, [r0, #0]
   2300c:	2804      	cmp	r0, #4
   2300e:	d007      	beq.n	23020 <_ZN20complex_dynamic_type3app17h655df8382a7c5c7eE+0x104>
   23010:	2803      	cmp	r0, #3
   23012:	d11e      	bne.n	23052 <_ZN20complex_dynamic_type3app17h655df8382a7c5c7eE+0x136>
   23014:	4815      	ldr	r0, [pc, #84]	@ (2306c <_ZN20complex_dynamic_type3app17h655df8382a7c5c7eE+0x150>)
   23016:	2103      	movs	r1, #3
   23018:	2200      	movs	r2, #0
   2301a:	4613      	mov	r3, r2
   2301c:	df03      	svc	3
   2301e:	e004      	b.n	2302a <_ZN20complex_dynamic_type3app17h655df8382a7c5c7eE+0x10e>
   23020:	4812      	ldr	r0, [pc, #72]	@ (2306c <_ZN20complex_dynamic_type3app17h655df8382a7c5c7eE+0x150>)
   23022:	2103      	movs	r1, #3
   23024:	2200      	movs	r2, #0
   23026:	4613      	mov	r3, r2
   23028:	df04      	svc	4
   2302a:	a805      	add	r0, sp, #20
   2302c:	7804      	ldrb	r4, [r0, #0]
   2302e:	9d04      	ldr	r5, [sp, #16]
   23030:	1c68      	adds	r0, r5, #1
   23032:	222a      	movs	r2, #42	@ 0x2a
   23034:	9902      	ldr	r1, [sp, #8]
   23036:	f008 f867 	bl	2b108 <__aeabi_memcpy>
   2303a:	702e      	strb	r6, [r5, #0]
   2303c:	2c02      	cmp	r4, #2
   2303e:	d006      	beq.n	2304e <_ZN20complex_dynamic_type3app17h655df8382a7c5c7eE+0x132>
   23040:	480a      	ldr	r0, [pc, #40]	@ (2306c <_ZN20complex_dynamic_type3app17h655df8382a7c5c7eE+0x150>)
   23042:	2101      	movs	r1, #1
   23044:	2200      	movs	r2, #0
   23046:	4613      	mov	r3, r2
   23048:	2c04      	cmp	r4, #4
   2304a:	d10b      	bne.n	23064 <_ZN20complex_dynamic_type3app17h655df8382a7c5c7eE+0x148>
   2304c:	df04      	svc	4
   2304e:	b019      	add	sp, #100	@ 0x64
   23050:	bdf0      	pop	{r4, r5, r6, r7, pc}
   23052:	9c04      	ldr	r4, [sp, #16]
   23054:	9902      	ldr	r1, [sp, #8]
   23056:	1c60      	adds	r0, r4, #1
   23058:	222a      	movs	r2, #42	@ 0x2a
   2305a:	f008 f855 	bl	2b108 <__aeabi_memcpy>
   2305e:	7026      	strb	r6, [r4, #0]
   23060:	b019      	add	sp, #100	@ 0x64
   23062:	bdf0      	pop	{r4, r5, r6, r7, pc}
   23064:	df03      	svc	3
   23066:	b019      	add	sp, #100	@ 0x64
   23068:	bdf0      	pop	{r4, r5, r6, r7, pc}
   2306a:	46c0      	nop			@ (mov r8, r8)
   2306c:	000015f3 	.word	0x000015f3

00023070 <_ZN20complex_dynamic_type3app17h675ced629fa2dcabE>:
   23070:	b5f0      	push	{r4, r5, r6, r7, lr}
   23072:	af03      	add	r7, sp, #12
   23074:	b09d      	sub	sp, #116	@ 0x74
   23076:	9003      	str	r0, [sp, #12]
   23078:	a804      	add	r0, sp, #16
   2307a:	2402      	movs	r4, #2
   2307c:	7004      	strb	r4, [r0, #0]
   2307e:	1c46      	adds	r6, r0, #1
   23080:	223b      	movs	r2, #59	@ 0x3b
   23082:	9202      	str	r2, [sp, #8]
   23084:	4630      	mov	r0, r6
   23086:	f008 f83f 	bl	2b108 <__aeabi_memcpy>
   2308a:	ad13      	add	r5, sp, #76	@ 0x4c
   2308c:	1c68      	adds	r0, r5, #1
   2308e:	2127      	movs	r1, #39	@ 0x27
   23090:	9001      	str	r0, [sp, #4]
   23092:	f007 fe79 	bl	2ad88 <__aeabi_memclr>
   23096:	9400      	str	r4, [sp, #0]
   23098:	702c      	strb	r4, [r5, #0]
   2309a:	4848      	ldr	r0, [pc, #288]	@ (231bc <_ZN20complex_dynamic_type3app17h675ced629fa2dcabE+0x14c>)
   2309c:	2105      	movs	r1, #5
   2309e:	4632      	mov	r2, r6
   230a0:	9b02      	ldr	r3, [sp, #8]
   230a2:	df04      	svc	4
   230a4:	2802      	cmp	r0, #2
   230a6:	d104      	bne.n	230b2 <_ZN20complex_dynamic_type3app17h675ced629fa2dcabE+0x42>
   230a8:	2001      	movs	r0, #1
   230aa:	9a03      	ldr	r2, [sp, #12]
   230ac:	7010      	strb	r0, [r2, #0]
   230ae:	6051      	str	r1, [r2, #4]
   230b0:	e02c      	b.n	2310c <_ZN20complex_dynamic_type3app17h675ced629fa2dcabE+0x9c>
   230b2:	9d03      	ldr	r5, [sp, #12]
   230b4:	a804      	add	r0, sp, #16
   230b6:	2104      	movs	r1, #4
   230b8:	7001      	strb	r1, [r0, #0]
   230ba:	4840      	ldr	r0, [pc, #256]	@ (231bc <_ZN20complex_dynamic_type3app17h675ced629fa2dcabE+0x14c>)
   230bc:	2403      	movs	r4, #3
   230be:	2327      	movs	r3, #39	@ 0x27
   230c0:	4621      	mov	r1, r4
   230c2:	9a01      	ldr	r2, [sp, #4]
   230c4:	df03      	svc	3
   230c6:	2802      	cmp	r0, #2
   230c8:	d10e      	bne.n	230e8 <_ZN20complex_dynamic_type3app17h675ced629fa2dcabE+0x78>
   230ca:	2001      	movs	r0, #1
   230cc:	7028      	strb	r0, [r5, #0]
   230ce:	6069      	str	r1, [r5, #4]
   230d0:	a813      	add	r0, sp, #76	@ 0x4c
   230d2:	7800      	ldrb	r0, [r0, #0]
   230d4:	2802      	cmp	r0, #2
   230d6:	d019      	beq.n	2310c <_ZN20complex_dynamic_type3app17h675ced629fa2dcabE+0x9c>
   230d8:	2803      	cmp	r0, #3
   230da:	d012      	beq.n	23102 <_ZN20complex_dynamic_type3app17h675ced629fa2dcabE+0x92>
   230dc:	4837      	ldr	r0, [pc, #220]	@ (231bc <_ZN20complex_dynamic_type3app17h675ced629fa2dcabE+0x14c>)
   230de:	2103      	movs	r1, #3
   230e0:	2200      	movs	r2, #0
   230e2:	4613      	mov	r3, r2
   230e4:	df04      	svc	4
   230e6:	e011      	b.n	2310c <_ZN20complex_dynamic_type3app17h675ced629fa2dcabE+0x9c>
   230e8:	a813      	add	r0, sp, #76	@ 0x4c
   230ea:	7004      	strb	r4, [r0, #0]
   230ec:	4833      	ldr	r0, [pc, #204]	@ (231bc <_ZN20complex_dynamic_type3app17h675ced629fa2dcabE+0x14c>)
   230ee:	2105      	movs	r1, #5
   230f0:	2600      	movs	r6, #0
   230f2:	4622      	mov	r2, r4
   230f4:	4633      	mov	r3, r6
   230f6:	df02      	svc	2
   230f8:	2880      	cmp	r0, #128	@ 0x80
   230fa:	d21b      	bcs.n	23134 <_ZN20complex_dynamic_type3app17h675ced629fa2dcabE+0xc4>
   230fc:	2001      	movs	r0, #1
   230fe:	7028      	strb	r0, [r5, #0]
   23100:	6069      	str	r1, [r5, #4]
   23102:	482e      	ldr	r0, [pc, #184]	@ (231bc <_ZN20complex_dynamic_type3app17h675ced629fa2dcabE+0x14c>)
   23104:	2103      	movs	r1, #3
   23106:	2200      	movs	r2, #0
   23108:	4613      	mov	r3, r2
   2310a:	df03      	svc	3
   2310c:	a804      	add	r0, sp, #16
   2310e:	7800      	ldrb	r0, [r0, #0]
   23110:	2802      	cmp	r0, #2
   23112:	d045      	beq.n	231a0 <_ZN20complex_dynamic_type3app17h675ced629fa2dcabE+0x130>
   23114:	2804      	cmp	r0, #4
   23116:	d106      	bne.n	23126 <_ZN20complex_dynamic_type3app17h675ced629fa2dcabE+0xb6>
   23118:	4828      	ldr	r0, [pc, #160]	@ (231bc <_ZN20complex_dynamic_type3app17h675ced629fa2dcabE+0x14c>)
   2311a:	2105      	movs	r1, #5
   2311c:	2200      	movs	r2, #0
   2311e:	4613      	mov	r3, r2
   23120:	df04      	svc	4
   23122:	b01d      	add	sp, #116	@ 0x74
   23124:	bdf0      	pop	{r4, r5, r6, r7, pc}
   23126:	4825      	ldr	r0, [pc, #148]	@ (231bc <_ZN20complex_dynamic_type3app17h675ced629fa2dcabE+0x14c>)
   23128:	2105      	movs	r1, #5
   2312a:	2200      	movs	r2, #0
   2312c:	4613      	mov	r3, r2
   2312e:	df03      	svc	3
   23130:	b01d      	add	sp, #116	@ 0x74
   23132:	bdf0      	pop	{r4, r5, r6, r7, pc}
   23134:	a804      	add	r0, sp, #16
   23136:	7800      	ldrb	r0, [r0, #0]
   23138:	2802      	cmp	r0, #2
   2313a:	d00c      	beq.n	23156 <_ZN20complex_dynamic_type3app17h675ced629fa2dcabE+0xe6>
   2313c:	2803      	cmp	r0, #3
   2313e:	d105      	bne.n	2314c <_ZN20complex_dynamic_type3app17h675ced629fa2dcabE+0xdc>
   23140:	481e      	ldr	r0, [pc, #120]	@ (231bc <_ZN20complex_dynamic_type3app17h675ced629fa2dcabE+0x14c>)
   23142:	2105      	movs	r1, #5
   23144:	2200      	movs	r2, #0
   23146:	4613      	mov	r3, r2
   23148:	df03      	svc	3
   2314a:	e004      	b.n	23156 <_ZN20complex_dynamic_type3app17h675ced629fa2dcabE+0xe6>
   2314c:	481b      	ldr	r0, [pc, #108]	@ (231bc <_ZN20complex_dynamic_type3app17h675ced629fa2dcabE+0x14c>)
   2314e:	2105      	movs	r1, #5
   23150:	2200      	movs	r2, #0
   23152:	4613      	mov	r3, r2
   23154:	df04      	svc	4
   23156:	a804      	add	r0, sp, #16
   23158:	9900      	ldr	r1, [sp, #0]
   2315a:	7001      	strb	r1, [r0, #0]
   2315c:	a813      	add	r0, sp, #76	@ 0x4c
   2315e:	7800      	ldrb	r0, [r0, #0]
   23160:	2804      	cmp	r0, #4
   23162:	d007      	beq.n	23174 <_ZN20complex_dynamic_type3app17h675ced629fa2dcabE+0x104>
   23164:	2803      	cmp	r0, #3
   23166:	d11d      	bne.n	231a4 <_ZN20complex_dynamic_type3app17h675ced629fa2dcabE+0x134>
   23168:	4814      	ldr	r0, [pc, #80]	@ (231bc <_ZN20complex_dynamic_type3app17h675ced629fa2dcabE+0x14c>)
   2316a:	2103      	movs	r1, #3
   2316c:	2200      	movs	r2, #0
   2316e:	4613      	mov	r3, r2
   23170:	df03      	svc	3
   23172:	e004      	b.n	2317e <_ZN20complex_dynamic_type3app17h675ced629fa2dcabE+0x10e>
   23174:	4811      	ldr	r0, [pc, #68]	@ (231bc <_ZN20complex_dynamic_type3app17h675ced629fa2dcabE+0x14c>)
   23176:	2103      	movs	r1, #3
   23178:	2200      	movs	r2, #0
   2317a:	4613      	mov	r3, r2
   2317c:	df04      	svc	4
   2317e:	a804      	add	r0, sp, #16
   23180:	7804      	ldrb	r4, [r0, #0]
   23182:	1c68      	adds	r0, r5, #1
   23184:	2227      	movs	r2, #39	@ 0x27
   23186:	9901      	ldr	r1, [sp, #4]
   23188:	f007 ffbe 	bl	2b108 <__aeabi_memcpy>
   2318c:	702e      	strb	r6, [r5, #0]
   2318e:	2c02      	cmp	r4, #2
   23190:	d006      	beq.n	231a0 <_ZN20complex_dynamic_type3app17h675ced629fa2dcabE+0x130>
   23192:	480a      	ldr	r0, [pc, #40]	@ (231bc <_ZN20complex_dynamic_type3app17h675ced629fa2dcabE+0x14c>)
   23194:	2105      	movs	r1, #5
   23196:	2200      	movs	r2, #0
   23198:	4613      	mov	r3, r2
   2319a:	2c04      	cmp	r4, #4
   2319c:	d10a      	bne.n	231b4 <_ZN20complex_dynamic_type3app17h675ced629fa2dcabE+0x144>
   2319e:	df04      	svc	4
   231a0:	b01d      	add	sp, #116	@ 0x74
   231a2:	bdf0      	pop	{r4, r5, r6, r7, pc}
   231a4:	1c68      	adds	r0, r5, #1
   231a6:	2227      	movs	r2, #39	@ 0x27
   231a8:	9901      	ldr	r1, [sp, #4]
   231aa:	f007 ffad 	bl	2b108 <__aeabi_memcpy>
   231ae:	702e      	strb	r6, [r5, #0]
   231b0:	b01d      	add	sp, #116	@ 0x74
   231b2:	bdf0      	pop	{r4, r5, r6, r7, pc}
   231b4:	df03      	svc	3
   231b6:	b01d      	add	sp, #116	@ 0x74
   231b8:	bdf0      	pop	{r4, r5, r6, r7, pc}
   231ba:	46c0      	nop			@ (mov r8, r8)
   231bc:	00000bd3 	.word	0x00000bd3

000231c0 <_ZN20complex_dynamic_type3app17h67daf3ce0d48ab92E>:
   231c0:	b5f0      	push	{r4, r5, r6, r7, lr}
   231c2:	af03      	add	r7, sp, #12
   231c4:	b0a3      	sub	sp, #140	@ 0x8c
   231c6:	9004      	str	r0, [sp, #16]
   231c8:	a805      	add	r0, sp, #20
   231ca:	2402      	movs	r4, #2
   231cc:	7004      	strb	r4, [r0, #0]
   231ce:	1c46      	adds	r6, r0, #1
   231d0:	2240      	movs	r2, #64	@ 0x40
   231d2:	9203      	str	r2, [sp, #12]
   231d4:	4630      	mov	r0, r6
   231d6:	f007 ff97 	bl	2b108 <__aeabi_memcpy>
   231da:	ad16      	add	r5, sp, #88	@ 0x58
   231dc:	1c68      	adds	r0, r5, #1
   231de:	2131      	movs	r1, #49	@ 0x31
   231e0:	9002      	str	r0, [sp, #8]
   231e2:	f007 fdd1 	bl	2ad88 <__aeabi_memclr>
   231e6:	9401      	str	r4, [sp, #4]
   231e8:	702c      	strb	r4, [r5, #0]
   231ea:	4848      	ldr	r0, [pc, #288]	@ (2330c <_ZN20complex_dynamic_type3app17h67daf3ce0d48ab92E+0x14c>)
   231ec:	2108      	movs	r1, #8
   231ee:	4632      	mov	r2, r6
   231f0:	9b03      	ldr	r3, [sp, #12]
   231f2:	df04      	svc	4
   231f4:	2802      	cmp	r0, #2
   231f6:	d104      	bne.n	23202 <_ZN20complex_dynamic_type3app17h67daf3ce0d48ab92E+0x42>
   231f8:	2001      	movs	r0, #1
   231fa:	9a04      	ldr	r2, [sp, #16]
   231fc:	7010      	strb	r0, [r2, #0]
   231fe:	6051      	str	r1, [r2, #4]
   23200:	e02d      	b.n	2325e <_ZN20complex_dynamic_type3app17h67daf3ce0d48ab92E+0x9e>
   23202:	9d04      	ldr	r5, [sp, #16]
   23204:	a805      	add	r0, sp, #20
   23206:	2104      	movs	r1, #4
   23208:	7001      	strb	r1, [r0, #0]
   2320a:	4840      	ldr	r0, [pc, #256]	@ (2330c <_ZN20complex_dynamic_type3app17h67daf3ce0d48ab92E+0x14c>)
   2320c:	2105      	movs	r1, #5
   2320e:	2331      	movs	r3, #49	@ 0x31
   23210:	9c02      	ldr	r4, [sp, #8]
   23212:	4622      	mov	r2, r4
   23214:	df03      	svc	3
   23216:	2802      	cmp	r0, #2
   23218:	d10e      	bne.n	23238 <_ZN20complex_dynamic_type3app17h67daf3ce0d48ab92E+0x78>
   2321a:	2001      	movs	r0, #1
   2321c:	7028      	strb	r0, [r5, #0]
   2321e:	6069      	str	r1, [r5, #4]
   23220:	a816      	add	r0, sp, #88	@ 0x58
   23222:	7800      	ldrb	r0, [r0, #0]
   23224:	2802      	cmp	r0, #2
   23226:	d01a      	beq.n	2325e <_ZN20complex_dynamic_type3app17h67daf3ce0d48ab92E+0x9e>
   23228:	2803      	cmp	r0, #3
   2322a:	d013      	beq.n	23254 <_ZN20complex_dynamic_type3app17h67daf3ce0d48ab92E+0x94>
   2322c:	4837      	ldr	r0, [pc, #220]	@ (2330c <_ZN20complex_dynamic_type3app17h67daf3ce0d48ab92E+0x14c>)
   2322e:	2105      	movs	r1, #5
   23230:	2200      	movs	r2, #0
   23232:	4613      	mov	r3, r2
   23234:	df04      	svc	4
   23236:	e012      	b.n	2325e <_ZN20complex_dynamic_type3app17h67daf3ce0d48ab92E+0x9e>
   23238:	a816      	add	r0, sp, #88	@ 0x58
   2323a:	2103      	movs	r1, #3
   2323c:	7001      	strb	r1, [r0, #0]
   2323e:	4833      	ldr	r0, [pc, #204]	@ (2330c <_ZN20complex_dynamic_type3app17h67daf3ce0d48ab92E+0x14c>)
   23240:	2108      	movs	r1, #8
   23242:	2205      	movs	r2, #5
   23244:	2600      	movs	r6, #0
   23246:	4633      	mov	r3, r6
   23248:	df02      	svc	2
   2324a:	2880      	cmp	r0, #128	@ 0x80
   2324c:	d21b      	bcs.n	23286 <_ZN20complex_dynamic_type3app17h67daf3ce0d48ab92E+0xc6>
   2324e:	2001      	movs	r0, #1
   23250:	7028      	strb	r0, [r5, #0]
   23252:	6069      	str	r1, [r5, #4]
   23254:	482d      	ldr	r0, [pc, #180]	@ (2330c <_ZN20complex_dynamic_type3app17h67daf3ce0d48ab92E+0x14c>)
   23256:	2105      	movs	r1, #5
   23258:	2200      	movs	r2, #0
   2325a:	4613      	mov	r3, r2
   2325c:	df03      	svc	3
   2325e:	a805      	add	r0, sp, #20
   23260:	7800      	ldrb	r0, [r0, #0]
   23262:	2802      	cmp	r0, #2
   23264:	d045      	beq.n	232f2 <_ZN20complex_dynamic_type3app17h67daf3ce0d48ab92E+0x132>
   23266:	2804      	cmp	r0, #4
   23268:	d106      	bne.n	23278 <_ZN20complex_dynamic_type3app17h67daf3ce0d48ab92E+0xb8>
   2326a:	4828      	ldr	r0, [pc, #160]	@ (2330c <_ZN20complex_dynamic_type3app17h67daf3ce0d48ab92E+0x14c>)
   2326c:	2108      	movs	r1, #8
   2326e:	2200      	movs	r2, #0
   23270:	4613      	mov	r3, r2
   23272:	df04      	svc	4
   23274:	b023      	add	sp, #140	@ 0x8c
   23276:	bdf0      	pop	{r4, r5, r6, r7, pc}
   23278:	4824      	ldr	r0, [pc, #144]	@ (2330c <_ZN20complex_dynamic_type3app17h67daf3ce0d48ab92E+0x14c>)
   2327a:	2108      	movs	r1, #8
   2327c:	2200      	movs	r2, #0
   2327e:	4613      	mov	r3, r2
   23280:	df03      	svc	3
   23282:	b023      	add	sp, #140	@ 0x8c
   23284:	bdf0      	pop	{r4, r5, r6, r7, pc}
   23286:	a805      	add	r0, sp, #20
   23288:	7800      	ldrb	r0, [r0, #0]
   2328a:	2802      	cmp	r0, #2
   2328c:	d00c      	beq.n	232a8 <_ZN20complex_dynamic_type3app17h67daf3ce0d48ab92E+0xe8>
   2328e:	2803      	cmp	r0, #3
   23290:	d105      	bne.n	2329e <_ZN20complex_dynamic_type3app17h67daf3ce0d48ab92E+0xde>
   23292:	481e      	ldr	r0, [pc, #120]	@ (2330c <_ZN20complex_dynamic_type3app17h67daf3ce0d48ab92E+0x14c>)
   23294:	2108      	movs	r1, #8
   23296:	2200      	movs	r2, #0
   23298:	4613      	mov	r3, r2
   2329a:	df03      	svc	3
   2329c:	e004      	b.n	232a8 <_ZN20complex_dynamic_type3app17h67daf3ce0d48ab92E+0xe8>
   2329e:	481b      	ldr	r0, [pc, #108]	@ (2330c <_ZN20complex_dynamic_type3app17h67daf3ce0d48ab92E+0x14c>)
   232a0:	2108      	movs	r1, #8
   232a2:	2200      	movs	r2, #0
   232a4:	4613      	mov	r3, r2
   232a6:	df04      	svc	4
   232a8:	a805      	add	r0, sp, #20
   232aa:	9901      	ldr	r1, [sp, #4]
   232ac:	7001      	strb	r1, [r0, #0]
   232ae:	a816      	add	r0, sp, #88	@ 0x58
   232b0:	7800      	ldrb	r0, [r0, #0]
   232b2:	2804      	cmp	r0, #4
   232b4:	d007      	beq.n	232c6 <_ZN20complex_dynamic_type3app17h67daf3ce0d48ab92E+0x106>
   232b6:	2803      	cmp	r0, #3
   232b8:	d11d      	bne.n	232f6 <_ZN20complex_dynamic_type3app17h67daf3ce0d48ab92E+0x136>
   232ba:	4814      	ldr	r0, [pc, #80]	@ (2330c <_ZN20complex_dynamic_type3app17h67daf3ce0d48ab92E+0x14c>)
   232bc:	2105      	movs	r1, #5
   232be:	2200      	movs	r2, #0
   232c0:	4613      	mov	r3, r2
   232c2:	df03      	svc	3
   232c4:	e004      	b.n	232d0 <_ZN20complex_dynamic_type3app17h67daf3ce0d48ab92E+0x110>
   232c6:	4811      	ldr	r0, [pc, #68]	@ (2330c <_ZN20complex_dynamic_type3app17h67daf3ce0d48ab92E+0x14c>)
   232c8:	2105      	movs	r1, #5
   232ca:	2200      	movs	r2, #0
   232cc:	4613      	mov	r3, r2
   232ce:	df04      	svc	4
   232d0:	a805      	add	r0, sp, #20
   232d2:	7804      	ldrb	r4, [r0, #0]
   232d4:	1c68      	adds	r0, r5, #1
   232d6:	2231      	movs	r2, #49	@ 0x31
   232d8:	9902      	ldr	r1, [sp, #8]
   232da:	f007 ff15 	bl	2b108 <__aeabi_memcpy>
   232de:	702e      	strb	r6, [r5, #0]
   232e0:	2c02      	cmp	r4, #2
   232e2:	d006      	beq.n	232f2 <_ZN20complex_dynamic_type3app17h67daf3ce0d48ab92E+0x132>
   232e4:	4809      	ldr	r0, [pc, #36]	@ (2330c <_ZN20complex_dynamic_type3app17h67daf3ce0d48ab92E+0x14c>)
   232e6:	2108      	movs	r1, #8
   232e8:	2200      	movs	r2, #0
   232ea:	4613      	mov	r3, r2
   232ec:	2c04      	cmp	r4, #4
   232ee:	d10a      	bne.n	23306 <_ZN20complex_dynamic_type3app17h67daf3ce0d48ab92E+0x146>
   232f0:	df04      	svc	4
   232f2:	b023      	add	sp, #140	@ 0x8c
   232f4:	bdf0      	pop	{r4, r5, r6, r7, pc}
   232f6:	1c68      	adds	r0, r5, #1
   232f8:	2231      	movs	r2, #49	@ 0x31
   232fa:	4621      	mov	r1, r4
   232fc:	f007 ff04 	bl	2b108 <__aeabi_memcpy>
   23300:	702e      	strb	r6, [r5, #0]
   23302:	b023      	add	sp, #140	@ 0x8c
   23304:	bdf0      	pop	{r4, r5, r6, r7, pc}
   23306:	df03      	svc	3
   23308:	b023      	add	sp, #140	@ 0x8c
   2330a:	bdf0      	pop	{r4, r5, r6, r7, pc}
   2330c:	00000fce 	.word	0x00000fce

00023310 <_ZN20complex_dynamic_type3app17h697433b612162e4cE>:
   23310:	b5f0      	push	{r4, r5, r6, r7, lr}
   23312:	af03      	add	r7, sp, #12
   23314:	b0ad      	sub	sp, #180	@ 0xb4
   23316:	9003      	str	r0, [sp, #12]
   23318:	a804      	add	r0, sp, #16
   2331a:	2402      	movs	r4, #2
   2331c:	7004      	strb	r4, [r0, #0]
   2331e:	1c46      	adds	r6, r0, #1
   23320:	225d      	movs	r2, #93	@ 0x5d
   23322:	9202      	str	r2, [sp, #8]
   23324:	4630      	mov	r0, r6
   23326:	f007 feef 	bl	2b108 <__aeabi_memcpy>
   2332a:	ad1c      	add	r5, sp, #112	@ 0x70
   2332c:	1c68      	adds	r0, r5, #1
   2332e:	2140      	movs	r1, #64	@ 0x40
   23330:	9001      	str	r0, [sp, #4]
   23332:	f007 fd29 	bl	2ad88 <__aeabi_memclr>
   23336:	9400      	str	r4, [sp, #0]
   23338:	702c      	strb	r4, [r5, #0]
   2333a:	4848      	ldr	r0, [pc, #288]	@ (2345c <_ZN20complex_dynamic_type3app17h697433b612162e4cE+0x14c>)
   2333c:	2108      	movs	r1, #8
   2333e:	4632      	mov	r2, r6
   23340:	9b02      	ldr	r3, [sp, #8]
   23342:	df04      	svc	4
   23344:	2802      	cmp	r0, #2
   23346:	d104      	bne.n	23352 <_ZN20complex_dynamic_type3app17h697433b612162e4cE+0x42>
   23348:	2001      	movs	r0, #1
   2334a:	9a03      	ldr	r2, [sp, #12]
   2334c:	7010      	strb	r0, [r2, #0]
   2334e:	6051      	str	r1, [r2, #4]
   23350:	e02c      	b.n	233ac <_ZN20complex_dynamic_type3app17h697433b612162e4cE+0x9c>
   23352:	9d03      	ldr	r5, [sp, #12]
   23354:	a804      	add	r0, sp, #16
   23356:	2104      	movs	r1, #4
   23358:	7001      	strb	r1, [r0, #0]
   2335a:	4840      	ldr	r0, [pc, #256]	@ (2345c <_ZN20complex_dynamic_type3app17h697433b612162e4cE+0x14c>)
   2335c:	2340      	movs	r3, #64	@ 0x40
   2335e:	9c01      	ldr	r4, [sp, #4]
   23360:	4622      	mov	r2, r4
   23362:	df03      	svc	3
   23364:	2802      	cmp	r0, #2
   23366:	d10e      	bne.n	23386 <_ZN20complex_dynamic_type3app17h697433b612162e4cE+0x76>
   23368:	2001      	movs	r0, #1
   2336a:	7028      	strb	r0, [r5, #0]
   2336c:	6069      	str	r1, [r5, #4]
   2336e:	a81c      	add	r0, sp, #112	@ 0x70
   23370:	7800      	ldrb	r0, [r0, #0]
   23372:	2802      	cmp	r0, #2
   23374:	d01a      	beq.n	233ac <_ZN20complex_dynamic_type3app17h697433b612162e4cE+0x9c>
   23376:	2803      	cmp	r0, #3
   23378:	d013      	beq.n	233a2 <_ZN20complex_dynamic_type3app17h697433b612162e4cE+0x92>
   2337a:	4838      	ldr	r0, [pc, #224]	@ (2345c <_ZN20complex_dynamic_type3app17h697433b612162e4cE+0x14c>)
   2337c:	2104      	movs	r1, #4
   2337e:	2200      	movs	r2, #0
   23380:	4613      	mov	r3, r2
   23382:	df04      	svc	4
   23384:	e012      	b.n	233ac <_ZN20complex_dynamic_type3app17h697433b612162e4cE+0x9c>
   23386:	a81c      	add	r0, sp, #112	@ 0x70
   23388:	2103      	movs	r1, #3
   2338a:	7001      	strb	r1, [r0, #0]
   2338c:	4833      	ldr	r0, [pc, #204]	@ (2345c <_ZN20complex_dynamic_type3app17h697433b612162e4cE+0x14c>)
   2338e:	2108      	movs	r1, #8
   23390:	2204      	movs	r2, #4
   23392:	2600      	movs	r6, #0
   23394:	4633      	mov	r3, r6
   23396:	df02      	svc	2
   23398:	2880      	cmp	r0, #128	@ 0x80
   2339a:	d21b      	bcs.n	233d4 <_ZN20complex_dynamic_type3app17h697433b612162e4cE+0xc4>
   2339c:	2001      	movs	r0, #1
   2339e:	7028      	strb	r0, [r5, #0]
   233a0:	6069      	str	r1, [r5, #4]
   233a2:	482e      	ldr	r0, [pc, #184]	@ (2345c <_ZN20complex_dynamic_type3app17h697433b612162e4cE+0x14c>)
   233a4:	2104      	movs	r1, #4
   233a6:	2200      	movs	r2, #0
   233a8:	4613      	mov	r3, r2
   233aa:	df03      	svc	3
   233ac:	a804      	add	r0, sp, #16
   233ae:	7800      	ldrb	r0, [r0, #0]
   233b0:	2802      	cmp	r0, #2
   233b2:	d045      	beq.n	23440 <_ZN20complex_dynamic_type3app17h697433b612162e4cE+0x130>
   233b4:	2804      	cmp	r0, #4
   233b6:	d106      	bne.n	233c6 <_ZN20complex_dynamic_type3app17h697433b612162e4cE+0xb6>
   233b8:	4828      	ldr	r0, [pc, #160]	@ (2345c <_ZN20complex_dynamic_type3app17h697433b612162e4cE+0x14c>)
   233ba:	2108      	movs	r1, #8
   233bc:	2200      	movs	r2, #0
   233be:	4613      	mov	r3, r2
   233c0:	df04      	svc	4
   233c2:	b02d      	add	sp, #180	@ 0xb4
   233c4:	bdf0      	pop	{r4, r5, r6, r7, pc}
   233c6:	4825      	ldr	r0, [pc, #148]	@ (2345c <_ZN20complex_dynamic_type3app17h697433b612162e4cE+0x14c>)
   233c8:	2108      	movs	r1, #8
   233ca:	2200      	movs	r2, #0
   233cc:	4613      	mov	r3, r2
   233ce:	df03      	svc	3
   233d0:	b02d      	add	sp, #180	@ 0xb4
   233d2:	bdf0      	pop	{r4, r5, r6, r7, pc}
   233d4:	a804      	add	r0, sp, #16
   233d6:	7800      	ldrb	r0, [r0, #0]
   233d8:	2802      	cmp	r0, #2
   233da:	d00c      	beq.n	233f6 <_ZN20complex_dynamic_type3app17h697433b612162e4cE+0xe6>
   233dc:	2803      	cmp	r0, #3
   233de:	d105      	bne.n	233ec <_ZN20complex_dynamic_type3app17h697433b612162e4cE+0xdc>
   233e0:	481e      	ldr	r0, [pc, #120]	@ (2345c <_ZN20complex_dynamic_type3app17h697433b612162e4cE+0x14c>)
   233e2:	2108      	movs	r1, #8
   233e4:	2200      	movs	r2, #0
   233e6:	4613      	mov	r3, r2
   233e8:	df03      	svc	3
   233ea:	e004      	b.n	233f6 <_ZN20complex_dynamic_type3app17h697433b612162e4cE+0xe6>
   233ec:	481b      	ldr	r0, [pc, #108]	@ (2345c <_ZN20complex_dynamic_type3app17h697433b612162e4cE+0x14c>)
   233ee:	2108      	movs	r1, #8
   233f0:	2200      	movs	r2, #0
   233f2:	4613      	mov	r3, r2
   233f4:	df04      	svc	4
   233f6:	a804      	add	r0, sp, #16
   233f8:	9900      	ldr	r1, [sp, #0]
   233fa:	7001      	strb	r1, [r0, #0]
   233fc:	a81c      	add	r0, sp, #112	@ 0x70
   233fe:	7800      	ldrb	r0, [r0, #0]
   23400:	2804      	cmp	r0, #4
   23402:	d007      	beq.n	23414 <_ZN20complex_dynamic_type3app17h697433b612162e4cE+0x104>
   23404:	2803      	cmp	r0, #3
   23406:	d11d      	bne.n	23444 <_ZN20complex_dynamic_type3app17h697433b612162e4cE+0x134>
   23408:	4814      	ldr	r0, [pc, #80]	@ (2345c <_ZN20complex_dynamic_type3app17h697433b612162e4cE+0x14c>)
   2340a:	2104      	movs	r1, #4
   2340c:	2200      	movs	r2, #0
   2340e:	4613      	mov	r3, r2
   23410:	df03      	svc	3
   23412:	e004      	b.n	2341e <_ZN20complex_dynamic_type3app17h697433b612162e4cE+0x10e>
   23414:	4811      	ldr	r0, [pc, #68]	@ (2345c <_ZN20complex_dynamic_type3app17h697433b612162e4cE+0x14c>)
   23416:	2104      	movs	r1, #4
   23418:	2200      	movs	r2, #0
   2341a:	4613      	mov	r3, r2
   2341c:	df04      	svc	4
   2341e:	a804      	add	r0, sp, #16
   23420:	7804      	ldrb	r4, [r0, #0]
   23422:	1c68      	adds	r0, r5, #1
   23424:	2240      	movs	r2, #64	@ 0x40
   23426:	9901      	ldr	r1, [sp, #4]
   23428:	f007 fe6e 	bl	2b108 <__aeabi_memcpy>
   2342c:	702e      	strb	r6, [r5, #0]
   2342e:	2c02      	cmp	r4, #2
   23430:	d006      	beq.n	23440 <_ZN20complex_dynamic_type3app17h697433b612162e4cE+0x130>
   23432:	480a      	ldr	r0, [pc, #40]	@ (2345c <_ZN20complex_dynamic_type3app17h697433b612162e4cE+0x14c>)
   23434:	2108      	movs	r1, #8
   23436:	2200      	movs	r2, #0
   23438:	4613      	mov	r3, r2
   2343a:	2c04      	cmp	r4, #4
   2343c:	d10a      	bne.n	23454 <_ZN20complex_dynamic_type3app17h697433b612162e4cE+0x144>
   2343e:	df04      	svc	4
   23440:	b02d      	add	sp, #180	@ 0xb4
   23442:	bdf0      	pop	{r4, r5, r6, r7, pc}
   23444:	1c68      	adds	r0, r5, #1
   23446:	2240      	movs	r2, #64	@ 0x40
   23448:	4621      	mov	r1, r4
   2344a:	f007 fe5d 	bl	2b108 <__aeabi_memcpy>
   2344e:	702e      	strb	r6, [r5, #0]
   23450:	b02d      	add	sp, #180	@ 0xb4
   23452:	bdf0      	pop	{r4, r5, r6, r7, pc}
   23454:	df03      	svc	3
   23456:	b02d      	add	sp, #180	@ 0xb4
   23458:	bdf0      	pop	{r4, r5, r6, r7, pc}
   2345a:	46c0      	nop			@ (mov r8, r8)
   2345c:	00001028 	.word	0x00001028

00023460 <_ZN20complex_dynamic_type3app17h6a1a19ed56097619E>:
   23460:	b5f0      	push	{r4, r5, r6, r7, lr}
   23462:	af03      	add	r7, sp, #12
   23464:	b095      	sub	sp, #84	@ 0x54
   23466:	9004      	str	r0, [sp, #16]
   23468:	a805      	add	r0, sp, #20
   2346a:	2402      	movs	r4, #2
   2346c:	7004      	strb	r4, [r0, #0]
   2346e:	1c46      	adds	r6, r0, #1
   23470:	2227      	movs	r2, #39	@ 0x27
   23472:	9203      	str	r2, [sp, #12]
   23474:	4630      	mov	r0, r6
   23476:	f007 fe47 	bl	2b108 <__aeabi_memcpy>
   2347a:	ad0f      	add	r5, sp, #60	@ 0x3c
   2347c:	1c68      	adds	r0, r5, #1
   2347e:	2114      	movs	r1, #20
   23480:	9002      	str	r0, [sp, #8]
   23482:	f007 fc81 	bl	2ad88 <__aeabi_memclr>
   23486:	9401      	str	r4, [sp, #4]
   23488:	702c      	strb	r4, [r5, #0]
   2348a:	4848      	ldr	r0, [pc, #288]	@ (235ac <_ZN20complex_dynamic_type3app17h6a1a19ed56097619E+0x14c>)
   2348c:	2106      	movs	r1, #6
   2348e:	4632      	mov	r2, r6
   23490:	9b03      	ldr	r3, [sp, #12]
   23492:	df04      	svc	4
   23494:	2802      	cmp	r0, #2
   23496:	d104      	bne.n	234a2 <_ZN20complex_dynamic_type3app17h6a1a19ed56097619E+0x42>
   23498:	2001      	movs	r0, #1
   2349a:	9a04      	ldr	r2, [sp, #16]
   2349c:	7010      	strb	r0, [r2, #0]
   2349e:	6051      	str	r1, [r2, #4]
   234a0:	e02d      	b.n	234fe <_ZN20complex_dynamic_type3app17h6a1a19ed56097619E+0x9e>
   234a2:	9d04      	ldr	r5, [sp, #16]
   234a4:	a805      	add	r0, sp, #20
   234a6:	2104      	movs	r1, #4
   234a8:	7001      	strb	r1, [r0, #0]
   234aa:	4840      	ldr	r0, [pc, #256]	@ (235ac <_ZN20complex_dynamic_type3app17h6a1a19ed56097619E+0x14c>)
   234ac:	2105      	movs	r1, #5
   234ae:	2314      	movs	r3, #20
   234b0:	9c02      	ldr	r4, [sp, #8]
   234b2:	4622      	mov	r2, r4
   234b4:	df03      	svc	3
   234b6:	2802      	cmp	r0, #2
   234b8:	d10e      	bne.n	234d8 <_ZN20complex_dynamic_type3app17h6a1a19ed56097619E+0x78>
   234ba:	2001      	movs	r0, #1
   234bc:	7028      	strb	r0, [r5, #0]
   234be:	6069      	str	r1, [r5, #4]
   234c0:	a80f      	add	r0, sp, #60	@ 0x3c
   234c2:	7800      	ldrb	r0, [r0, #0]
   234c4:	2802      	cmp	r0, #2
   234c6:	d01a      	beq.n	234fe <_ZN20complex_dynamic_type3app17h6a1a19ed56097619E+0x9e>
   234c8:	2803      	cmp	r0, #3
   234ca:	d013      	beq.n	234f4 <_ZN20complex_dynamic_type3app17h6a1a19ed56097619E+0x94>
   234cc:	4837      	ldr	r0, [pc, #220]	@ (235ac <_ZN20complex_dynamic_type3app17h6a1a19ed56097619E+0x14c>)
   234ce:	2105      	movs	r1, #5
   234d0:	2200      	movs	r2, #0
   234d2:	4613      	mov	r3, r2
   234d4:	df04      	svc	4
   234d6:	e012      	b.n	234fe <_ZN20complex_dynamic_type3app17h6a1a19ed56097619E+0x9e>
   234d8:	a80f      	add	r0, sp, #60	@ 0x3c
   234da:	2103      	movs	r1, #3
   234dc:	7001      	strb	r1, [r0, #0]
   234de:	4833      	ldr	r0, [pc, #204]	@ (235ac <_ZN20complex_dynamic_type3app17h6a1a19ed56097619E+0x14c>)
   234e0:	2106      	movs	r1, #6
   234e2:	2205      	movs	r2, #5
   234e4:	2600      	movs	r6, #0
   234e6:	4633      	mov	r3, r6
   234e8:	df02      	svc	2
   234ea:	2880      	cmp	r0, #128	@ 0x80
   234ec:	d21b      	bcs.n	23526 <_ZN20complex_dynamic_type3app17h6a1a19ed56097619E+0xc6>
   234ee:	2001      	movs	r0, #1
   234f0:	7028      	strb	r0, [r5, #0]
   234f2:	6069      	str	r1, [r5, #4]
   234f4:	482d      	ldr	r0, [pc, #180]	@ (235ac <_ZN20complex_dynamic_type3app17h6a1a19ed56097619E+0x14c>)
   234f6:	2105      	movs	r1, #5
   234f8:	2200      	movs	r2, #0
   234fa:	4613      	mov	r3, r2
   234fc:	df03      	svc	3
   234fe:	a805      	add	r0, sp, #20
   23500:	7800      	ldrb	r0, [r0, #0]
   23502:	2802      	cmp	r0, #2
   23504:	d045      	beq.n	23592 <_ZN20complex_dynamic_type3app17h6a1a19ed56097619E+0x132>
   23506:	2804      	cmp	r0, #4
   23508:	d106      	bne.n	23518 <_ZN20complex_dynamic_type3app17h6a1a19ed56097619E+0xb8>
   2350a:	4828      	ldr	r0, [pc, #160]	@ (235ac <_ZN20complex_dynamic_type3app17h6a1a19ed56097619E+0x14c>)
   2350c:	2106      	movs	r1, #6
   2350e:	2200      	movs	r2, #0
   23510:	4613      	mov	r3, r2
   23512:	df04      	svc	4
   23514:	b015      	add	sp, #84	@ 0x54
   23516:	bdf0      	pop	{r4, r5, r6, r7, pc}
   23518:	4824      	ldr	r0, [pc, #144]	@ (235ac <_ZN20complex_dynamic_type3app17h6a1a19ed56097619E+0x14c>)
   2351a:	2106      	movs	r1, #6
   2351c:	2200      	movs	r2, #0
   2351e:	4613      	mov	r3, r2
   23520:	df03      	svc	3
   23522:	b015      	add	sp, #84	@ 0x54
   23524:	bdf0      	pop	{r4, r5, r6, r7, pc}
   23526:	a805      	add	r0, sp, #20
   23528:	7800      	ldrb	r0, [r0, #0]
   2352a:	2802      	cmp	r0, #2
   2352c:	d00c      	beq.n	23548 <_ZN20complex_dynamic_type3app17h6a1a19ed56097619E+0xe8>
   2352e:	2803      	cmp	r0, #3
   23530:	d105      	bne.n	2353e <_ZN20complex_dynamic_type3app17h6a1a19ed56097619E+0xde>
   23532:	481e      	ldr	r0, [pc, #120]	@ (235ac <_ZN20complex_dynamic_type3app17h6a1a19ed56097619E+0x14c>)
   23534:	2106      	movs	r1, #6
   23536:	2200      	movs	r2, #0
   23538:	4613      	mov	r3, r2
   2353a:	df03      	svc	3
   2353c:	e004      	b.n	23548 <_ZN20complex_dynamic_type3app17h6a1a19ed56097619E+0xe8>
   2353e:	481b      	ldr	r0, [pc, #108]	@ (235ac <_ZN20complex_dynamic_type3app17h6a1a19ed56097619E+0x14c>)
   23540:	2106      	movs	r1, #6
   23542:	2200      	movs	r2, #0
   23544:	4613      	mov	r3, r2
   23546:	df04      	svc	4
   23548:	a805      	add	r0, sp, #20
   2354a:	9901      	ldr	r1, [sp, #4]
   2354c:	7001      	strb	r1, [r0, #0]
   2354e:	a80f      	add	r0, sp, #60	@ 0x3c
   23550:	7800      	ldrb	r0, [r0, #0]
   23552:	2804      	cmp	r0, #4
   23554:	d007      	beq.n	23566 <_ZN20complex_dynamic_type3app17h6a1a19ed56097619E+0x106>
   23556:	2803      	cmp	r0, #3
   23558:	d11d      	bne.n	23596 <_ZN20complex_dynamic_type3app17h6a1a19ed56097619E+0x136>
   2355a:	4814      	ldr	r0, [pc, #80]	@ (235ac <_ZN20complex_dynamic_type3app17h6a1a19ed56097619E+0x14c>)
   2355c:	2105      	movs	r1, #5
   2355e:	2200      	movs	r2, #0
   23560:	4613      	mov	r3, r2
   23562:	df03      	svc	3
   23564:	e004      	b.n	23570 <_ZN20complex_dynamic_type3app17h6a1a19ed56097619E+0x110>
   23566:	4811      	ldr	r0, [pc, #68]	@ (235ac <_ZN20complex_dynamic_type3app17h6a1a19ed56097619E+0x14c>)
   23568:	2105      	movs	r1, #5
   2356a:	2200      	movs	r2, #0
   2356c:	4613      	mov	r3, r2
   2356e:	df04      	svc	4
   23570:	a805      	add	r0, sp, #20
   23572:	7804      	ldrb	r4, [r0, #0]
   23574:	1c68      	adds	r0, r5, #1
   23576:	2214      	movs	r2, #20
   23578:	9902      	ldr	r1, [sp, #8]
   2357a:	f007 fdc5 	bl	2b108 <__aeabi_memcpy>
   2357e:	702e      	strb	r6, [r5, #0]
   23580:	2c02      	cmp	r4, #2
   23582:	d006      	beq.n	23592 <_ZN20complex_dynamic_type3app17h6a1a19ed56097619E+0x132>
   23584:	4809      	ldr	r0, [pc, #36]	@ (235ac <_ZN20complex_dynamic_type3app17h6a1a19ed56097619E+0x14c>)
   23586:	2106      	movs	r1, #6
   23588:	2200      	movs	r2, #0
   2358a:	4613      	mov	r3, r2
   2358c:	2c04      	cmp	r4, #4
   2358e:	d10a      	bne.n	235a6 <_ZN20complex_dynamic_type3app17h6a1a19ed56097619E+0x146>
   23590:	df04      	svc	4
   23592:	b015      	add	sp, #84	@ 0x54
   23594:	bdf0      	pop	{r4, r5, r6, r7, pc}
   23596:	1c68      	adds	r0, r5, #1
   23598:	2214      	movs	r2, #20
   2359a:	4621      	mov	r1, r4
   2359c:	f007 fdb4 	bl	2b108 <__aeabi_memcpy>
   235a0:	702e      	strb	r6, [r5, #0]
   235a2:	b015      	add	sp, #84	@ 0x54
   235a4:	bdf0      	pop	{r4, r5, r6, r7, pc}
   235a6:	df03      	svc	3
   235a8:	b015      	add	sp, #84	@ 0x54
   235aa:	bdf0      	pop	{r4, r5, r6, r7, pc}
   235ac:	000022c9 	.word	0x000022c9

000235b0 <_ZN20complex_dynamic_type3app17h6e440eed79199ad5E>:
   235b0:	b5f0      	push	{r4, r5, r6, r7, lr}
   235b2:	af03      	add	r7, sp, #12
   235b4:	b0a1      	sub	sp, #132	@ 0x84
   235b6:	9003      	str	r0, [sp, #12]
   235b8:	a804      	add	r0, sp, #16
   235ba:	2502      	movs	r5, #2
   235bc:	7005      	strb	r5, [r0, #0]
   235be:	1c46      	adds	r6, r0, #1
   235c0:	225d      	movs	r2, #93	@ 0x5d
   235c2:	9202      	str	r2, [sp, #8]
   235c4:	4630      	mov	r0, r6
   235c6:	f007 fd9f 	bl	2b108 <__aeabi_memcpy>
   235ca:	ac1c      	add	r4, sp, #112	@ 0x70
   235cc:	1c60      	adds	r0, r4, #1
   235ce:	2112      	movs	r1, #18
   235d0:	9001      	str	r0, [sp, #4]
   235d2:	f007 fbd9 	bl	2ad88 <__aeabi_memclr>
   235d6:	7025      	strb	r5, [r4, #0]
   235d8:	484a      	ldr	r0, [pc, #296]	@ (23704 <_ZN20complex_dynamic_type3app17h6e440eed79199ad5E+0x154>)
   235da:	2100      	movs	r1, #0
   235dc:	4632      	mov	r2, r6
   235de:	9b02      	ldr	r3, [sp, #8]
   235e0:	df04      	svc	4
   235e2:	2802      	cmp	r0, #2
   235e4:	d104      	bne.n	235f0 <_ZN20complex_dynamic_type3app17h6e440eed79199ad5E+0x40>
   235e6:	2001      	movs	r0, #1
   235e8:	9a03      	ldr	r2, [sp, #12]
   235ea:	7010      	strb	r0, [r2, #0]
   235ec:	6051      	str	r1, [r2, #4]
   235ee:	e02e      	b.n	2364e <_ZN20complex_dynamic_type3app17h6e440eed79199ad5E+0x9e>
   235f0:	9d03      	ldr	r5, [sp, #12]
   235f2:	a804      	add	r0, sp, #16
   235f4:	2104      	movs	r1, #4
   235f6:	7001      	strb	r1, [r0, #0]
   235f8:	4842      	ldr	r0, [pc, #264]	@ (23704 <_ZN20complex_dynamic_type3app17h6e440eed79199ad5E+0x154>)
   235fa:	2102      	movs	r1, #2
   235fc:	2312      	movs	r3, #18
   235fe:	9c01      	ldr	r4, [sp, #4]
   23600:	4622      	mov	r2, r4
   23602:	df03      	svc	3
   23604:	2802      	cmp	r0, #2
   23606:	d10e      	bne.n	23626 <_ZN20complex_dynamic_type3app17h6e440eed79199ad5E+0x76>
   23608:	2001      	movs	r0, #1
   2360a:	7028      	strb	r0, [r5, #0]
   2360c:	6069      	str	r1, [r5, #4]
   2360e:	a81c      	add	r0, sp, #112	@ 0x70
   23610:	7800      	ldrb	r0, [r0, #0]
   23612:	2802      	cmp	r0, #2
   23614:	d01b      	beq.n	2364e <_ZN20complex_dynamic_type3app17h6e440eed79199ad5E+0x9e>
   23616:	2803      	cmp	r0, #3
   23618:	d014      	beq.n	23644 <_ZN20complex_dynamic_type3app17h6e440eed79199ad5E+0x94>
   2361a:	483a      	ldr	r0, [pc, #232]	@ (23704 <_ZN20complex_dynamic_type3app17h6e440eed79199ad5E+0x154>)
   2361c:	2102      	movs	r1, #2
   2361e:	2200      	movs	r2, #0
   23620:	4613      	mov	r3, r2
   23622:	df04      	svc	4
   23624:	e013      	b.n	2364e <_ZN20complex_dynamic_type3app17h6e440eed79199ad5E+0x9e>
   23626:	a81c      	add	r0, sp, #112	@ 0x70
   23628:	2103      	movs	r1, #3
   2362a:	7001      	strb	r1, [r0, #0]
   2362c:	4835      	ldr	r0, [pc, #212]	@ (23704 <_ZN20complex_dynamic_type3app17h6e440eed79199ad5E+0x154>)
   2362e:	2602      	movs	r6, #2
   23630:	2100      	movs	r1, #0
   23632:	4632      	mov	r2, r6
   23634:	9102      	str	r1, [sp, #8]
   23636:	460b      	mov	r3, r1
   23638:	df02      	svc	2
   2363a:	2880      	cmp	r0, #128	@ 0x80
   2363c:	d21b      	bcs.n	23676 <_ZN20complex_dynamic_type3app17h6e440eed79199ad5E+0xc6>
   2363e:	2001      	movs	r0, #1
   23640:	7028      	strb	r0, [r5, #0]
   23642:	6069      	str	r1, [r5, #4]
   23644:	482f      	ldr	r0, [pc, #188]	@ (23704 <_ZN20complex_dynamic_type3app17h6e440eed79199ad5E+0x154>)
   23646:	2102      	movs	r1, #2
   23648:	2200      	movs	r2, #0
   2364a:	4613      	mov	r3, r2
   2364c:	df03      	svc	3
   2364e:	a804      	add	r0, sp, #16
   23650:	7800      	ldrb	r0, [r0, #0]
   23652:	2802      	cmp	r0, #2
   23654:	d047      	beq.n	236e6 <_ZN20complex_dynamic_type3app17h6e440eed79199ad5E+0x136>
   23656:	2804      	cmp	r0, #4
   23658:	d106      	bne.n	23668 <_ZN20complex_dynamic_type3app17h6e440eed79199ad5E+0xb8>
   2365a:	482a      	ldr	r0, [pc, #168]	@ (23704 <_ZN20complex_dynamic_type3app17h6e440eed79199ad5E+0x154>)
   2365c:	2100      	movs	r1, #0
   2365e:	460a      	mov	r2, r1
   23660:	460b      	mov	r3, r1
   23662:	df04      	svc	4
   23664:	b021      	add	sp, #132	@ 0x84
   23666:	bdf0      	pop	{r4, r5, r6, r7, pc}
   23668:	4826      	ldr	r0, [pc, #152]	@ (23704 <_ZN20complex_dynamic_type3app17h6e440eed79199ad5E+0x154>)
   2366a:	2100      	movs	r1, #0
   2366c:	460a      	mov	r2, r1
   2366e:	460b      	mov	r3, r1
   23670:	df03      	svc	3
   23672:	b021      	add	sp, #132	@ 0x84
   23674:	bdf0      	pop	{r4, r5, r6, r7, pc}
   23676:	a804      	add	r0, sp, #16
   23678:	7800      	ldrb	r0, [r0, #0]
   2367a:	2802      	cmp	r0, #2
   2367c:	d00c      	beq.n	23698 <_ZN20complex_dynamic_type3app17h6e440eed79199ad5E+0xe8>
   2367e:	2803      	cmp	r0, #3
   23680:	d105      	bne.n	2368e <_ZN20complex_dynamic_type3app17h6e440eed79199ad5E+0xde>
   23682:	4820      	ldr	r0, [pc, #128]	@ (23704 <_ZN20complex_dynamic_type3app17h6e440eed79199ad5E+0x154>)
   23684:	2100      	movs	r1, #0
   23686:	460a      	mov	r2, r1
   23688:	460b      	mov	r3, r1
   2368a:	df03      	svc	3
   2368c:	e004      	b.n	23698 <_ZN20complex_dynamic_type3app17h6e440eed79199ad5E+0xe8>
   2368e:	481d      	ldr	r0, [pc, #116]	@ (23704 <_ZN20complex_dynamic_type3app17h6e440eed79199ad5E+0x154>)
   23690:	2100      	movs	r1, #0
   23692:	460a      	mov	r2, r1
   23694:	460b      	mov	r3, r1
   23696:	df04      	svc	4
   23698:	a804      	add	r0, sp, #16
   2369a:	7006      	strb	r6, [r0, #0]
   2369c:	a81c      	add	r0, sp, #112	@ 0x70
   2369e:	7800      	ldrb	r0, [r0, #0]
   236a0:	2804      	cmp	r0, #4
   236a2:	d008      	beq.n	236b6 <_ZN20complex_dynamic_type3app17h6e440eed79199ad5E+0x106>
   236a4:	2803      	cmp	r0, #3
   236a6:	d120      	bne.n	236ea <_ZN20complex_dynamic_type3app17h6e440eed79199ad5E+0x13a>
   236a8:	4626      	mov	r6, r4
   236aa:	4816      	ldr	r0, [pc, #88]	@ (23704 <_ZN20complex_dynamic_type3app17h6e440eed79199ad5E+0x154>)
   236ac:	2102      	movs	r1, #2
   236ae:	2200      	movs	r2, #0
   236b0:	4613      	mov	r3, r2
   236b2:	df03      	svc	3
   236b4:	e005      	b.n	236c2 <_ZN20complex_dynamic_type3app17h6e440eed79199ad5E+0x112>
   236b6:	4626      	mov	r6, r4
   236b8:	4812      	ldr	r0, [pc, #72]	@ (23704 <_ZN20complex_dynamic_type3app17h6e440eed79199ad5E+0x154>)
   236ba:	2102      	movs	r1, #2
   236bc:	2200      	movs	r2, #0
   236be:	4613      	mov	r3, r2
   236c0:	df04      	svc	4
   236c2:	a804      	add	r0, sp, #16
   236c4:	7804      	ldrb	r4, [r0, #0]
   236c6:	1c68      	adds	r0, r5, #1
   236c8:	2212      	movs	r2, #18
   236ca:	4631      	mov	r1, r6
   236cc:	f007 fd1c 	bl	2b108 <__aeabi_memcpy>
   236d0:	9802      	ldr	r0, [sp, #8]
   236d2:	7028      	strb	r0, [r5, #0]
   236d4:	2c02      	cmp	r4, #2
   236d6:	d006      	beq.n	236e6 <_ZN20complex_dynamic_type3app17h6e440eed79199ad5E+0x136>
   236d8:	480a      	ldr	r0, [pc, #40]	@ (23704 <_ZN20complex_dynamic_type3app17h6e440eed79199ad5E+0x154>)
   236da:	2100      	movs	r1, #0
   236dc:	460a      	mov	r2, r1
   236de:	460b      	mov	r3, r1
   236e0:	2c04      	cmp	r4, #4
   236e2:	d10b      	bne.n	236fc <_ZN20complex_dynamic_type3app17h6e440eed79199ad5E+0x14c>
   236e4:	df04      	svc	4
   236e6:	b021      	add	sp, #132	@ 0x84
   236e8:	bdf0      	pop	{r4, r5, r6, r7, pc}
   236ea:	1c68      	adds	r0, r5, #1
   236ec:	2212      	movs	r2, #18
   236ee:	4621      	mov	r1, r4
   236f0:	f007 fd0a 	bl	2b108 <__aeabi_memcpy>
   236f4:	9802      	ldr	r0, [sp, #8]
   236f6:	7028      	strb	r0, [r5, #0]
   236f8:	b021      	add	sp, #132	@ 0x84
   236fa:	bdf0      	pop	{r4, r5, r6, r7, pc}
   236fc:	df03      	svc	3
   236fe:	b021      	add	sp, #132	@ 0x84
   23700:	bdf0      	pop	{r4, r5, r6, r7, pc}
   23702:	46c0      	nop			@ (mov r8, r8)
   23704:	000015f1 	.word	0x000015f1

00023708 <_ZN20complex_dynamic_type3app17h70d7968c3a25fa44E>:
   23708:	b5f0      	push	{r4, r5, r6, r7, lr}
   2370a:	af03      	add	r7, sp, #12
   2370c:	b09b      	sub	sp, #108	@ 0x6c
   2370e:	9003      	str	r0, [sp, #12]
   23710:	a804      	add	r0, sp, #16
   23712:	2602      	movs	r6, #2
   23714:	7006      	strb	r6, [r0, #0]
   23716:	1c40      	adds	r0, r0, #1
   23718:	9002      	str	r0, [sp, #8]
   2371a:	2512      	movs	r5, #18
   2371c:	462a      	mov	r2, r5
   2371e:	f007 fcf3 	bl	2b108 <__aeabi_memcpy>
   23722:	ac09      	add	r4, sp, #36	@ 0x24
   23724:	1c60      	adds	r0, r4, #1
   23726:	2144      	movs	r1, #68	@ 0x44
   23728:	9001      	str	r0, [sp, #4]
   2372a:	f007 fb2d 	bl	2ad88 <__aeabi_memclr>
   2372e:	7026      	strb	r6, [r4, #0]
   23730:	484a      	ldr	r0, [pc, #296]	@ (2385c <_ZN20complex_dynamic_type3app17h70d7968c3a25fa44E+0x154>)
   23732:	4631      	mov	r1, r6
   23734:	9a02      	ldr	r2, [sp, #8]
   23736:	462b      	mov	r3, r5
   23738:	df04      	svc	4
   2373a:	2802      	cmp	r0, #2
   2373c:	d104      	bne.n	23748 <_ZN20complex_dynamic_type3app17h70d7968c3a25fa44E+0x40>
   2373e:	2001      	movs	r0, #1
   23740:	9a03      	ldr	r2, [sp, #12]
   23742:	7010      	strb	r0, [r2, #0]
   23744:	6051      	str	r1, [r2, #4]
   23746:	e02e      	b.n	237a6 <_ZN20complex_dynamic_type3app17h70d7968c3a25fa44E+0x9e>
   23748:	9d03      	ldr	r5, [sp, #12]
   2374a:	a804      	add	r0, sp, #16
   2374c:	2104      	movs	r1, #4
   2374e:	7001      	strb	r1, [r0, #0]
   23750:	4842      	ldr	r0, [pc, #264]	@ (2385c <_ZN20complex_dynamic_type3app17h70d7968c3a25fa44E+0x154>)
   23752:	2109      	movs	r1, #9
   23754:	2344      	movs	r3, #68	@ 0x44
   23756:	9c01      	ldr	r4, [sp, #4]
   23758:	4622      	mov	r2, r4
   2375a:	df03      	svc	3
   2375c:	2802      	cmp	r0, #2
   2375e:	d10e      	bne.n	2377e <_ZN20complex_dynamic_type3app17h70d7968c3a25fa44E+0x76>
   23760:	2001      	movs	r0, #1
   23762:	7028      	strb	r0, [r5, #0]
   23764:	6069      	str	r1, [r5, #4]
   23766:	a809      	add	r0, sp, #36	@ 0x24
   23768:	7800      	ldrb	r0, [r0, #0]
   2376a:	2802      	cmp	r0, #2
   2376c:	d01b      	beq.n	237a6 <_ZN20complex_dynamic_type3app17h70d7968c3a25fa44E+0x9e>
   2376e:	2803      	cmp	r0, #3
   23770:	d014      	beq.n	2379c <_ZN20complex_dynamic_type3app17h70d7968c3a25fa44E+0x94>
   23772:	483a      	ldr	r0, [pc, #232]	@ (2385c <_ZN20complex_dynamic_type3app17h70d7968c3a25fa44E+0x154>)
   23774:	2109      	movs	r1, #9
   23776:	2200      	movs	r2, #0
   23778:	4613      	mov	r3, r2
   2377a:	df04      	svc	4
   2377c:	e013      	b.n	237a6 <_ZN20complex_dynamic_type3app17h70d7968c3a25fa44E+0x9e>
   2377e:	a809      	add	r0, sp, #36	@ 0x24
   23780:	2103      	movs	r1, #3
   23782:	7001      	strb	r1, [r0, #0]
   23784:	4835      	ldr	r0, [pc, #212]	@ (2385c <_ZN20complex_dynamic_type3app17h70d7968c3a25fa44E+0x154>)
   23786:	2602      	movs	r6, #2
   23788:	2209      	movs	r2, #9
   2378a:	2300      	movs	r3, #0
   2378c:	4631      	mov	r1, r6
   2378e:	9302      	str	r3, [sp, #8]
   23790:	df02      	svc	2
   23792:	2880      	cmp	r0, #128	@ 0x80
   23794:	d21b      	bcs.n	237ce <_ZN20complex_dynamic_type3app17h70d7968c3a25fa44E+0xc6>
   23796:	2001      	movs	r0, #1
   23798:	7028      	strb	r0, [r5, #0]
   2379a:	6069      	str	r1, [r5, #4]
   2379c:	482f      	ldr	r0, [pc, #188]	@ (2385c <_ZN20complex_dynamic_type3app17h70d7968c3a25fa44E+0x154>)
   2379e:	2109      	movs	r1, #9
   237a0:	2200      	movs	r2, #0
   237a2:	4613      	mov	r3, r2
   237a4:	df03      	svc	3
   237a6:	a804      	add	r0, sp, #16
   237a8:	7800      	ldrb	r0, [r0, #0]
   237aa:	2802      	cmp	r0, #2
   237ac:	d047      	beq.n	2383e <_ZN20complex_dynamic_type3app17h70d7968c3a25fa44E+0x136>
   237ae:	2804      	cmp	r0, #4
   237b0:	d106      	bne.n	237c0 <_ZN20complex_dynamic_type3app17h70d7968c3a25fa44E+0xb8>
   237b2:	482a      	ldr	r0, [pc, #168]	@ (2385c <_ZN20complex_dynamic_type3app17h70d7968c3a25fa44E+0x154>)
   237b4:	2102      	movs	r1, #2
   237b6:	2200      	movs	r2, #0
   237b8:	4613      	mov	r3, r2
   237ba:	df04      	svc	4
   237bc:	b01b      	add	sp, #108	@ 0x6c
   237be:	bdf0      	pop	{r4, r5, r6, r7, pc}
   237c0:	4826      	ldr	r0, [pc, #152]	@ (2385c <_ZN20complex_dynamic_type3app17h70d7968c3a25fa44E+0x154>)
   237c2:	2102      	movs	r1, #2
   237c4:	2200      	movs	r2, #0
   237c6:	4613      	mov	r3, r2
   237c8:	df03      	svc	3
   237ca:	b01b      	add	sp, #108	@ 0x6c
   237cc:	bdf0      	pop	{r4, r5, r6, r7, pc}
   237ce:	a804      	add	r0, sp, #16
   237d0:	7800      	ldrb	r0, [r0, #0]
   237d2:	2802      	cmp	r0, #2
   237d4:	d00c      	beq.n	237f0 <_ZN20complex_dynamic_type3app17h70d7968c3a25fa44E+0xe8>
   237d6:	2803      	cmp	r0, #3
   237d8:	d105      	bne.n	237e6 <_ZN20complex_dynamic_type3app17h70d7968c3a25fa44E+0xde>
   237da:	4820      	ldr	r0, [pc, #128]	@ (2385c <_ZN20complex_dynamic_type3app17h70d7968c3a25fa44E+0x154>)
   237dc:	2102      	movs	r1, #2
   237de:	2200      	movs	r2, #0
   237e0:	4613      	mov	r3, r2
   237e2:	df03      	svc	3
   237e4:	e004      	b.n	237f0 <_ZN20complex_dynamic_type3app17h70d7968c3a25fa44E+0xe8>
   237e6:	481d      	ldr	r0, [pc, #116]	@ (2385c <_ZN20complex_dynamic_type3app17h70d7968c3a25fa44E+0x154>)
   237e8:	2102      	movs	r1, #2
   237ea:	2200      	movs	r2, #0
   237ec:	4613      	mov	r3, r2
   237ee:	df04      	svc	4
   237f0:	a804      	add	r0, sp, #16
   237f2:	7006      	strb	r6, [r0, #0]
   237f4:	a809      	add	r0, sp, #36	@ 0x24
   237f6:	7800      	ldrb	r0, [r0, #0]
   237f8:	2804      	cmp	r0, #4
   237fa:	d008      	beq.n	2380e <_ZN20complex_dynamic_type3app17h70d7968c3a25fa44E+0x106>
   237fc:	2803      	cmp	r0, #3
   237fe:	d120      	bne.n	23842 <_ZN20complex_dynamic_type3app17h70d7968c3a25fa44E+0x13a>
   23800:	4626      	mov	r6, r4
   23802:	4816      	ldr	r0, [pc, #88]	@ (2385c <_ZN20complex_dynamic_type3app17h70d7968c3a25fa44E+0x154>)
   23804:	2109      	movs	r1, #9
   23806:	2200      	movs	r2, #0
   23808:	4613      	mov	r3, r2
   2380a:	df03      	svc	3
   2380c:	e005      	b.n	2381a <_ZN20complex_dynamic_type3app17h70d7968c3a25fa44E+0x112>
   2380e:	4626      	mov	r6, r4
   23810:	4812      	ldr	r0, [pc, #72]	@ (2385c <_ZN20complex_dynamic_type3app17h70d7968c3a25fa44E+0x154>)
   23812:	2109      	movs	r1, #9
   23814:	2200      	movs	r2, #0
   23816:	4613      	mov	r3, r2
   23818:	df04      	svc	4
   2381a:	a804      	add	r0, sp, #16
   2381c:	7804      	ldrb	r4, [r0, #0]
   2381e:	1c68      	adds	r0, r5, #1
   23820:	2244      	movs	r2, #68	@ 0x44
   23822:	4631      	mov	r1, r6
   23824:	f007 fc70 	bl	2b108 <__aeabi_memcpy>
   23828:	9802      	ldr	r0, [sp, #8]
   2382a:	7028      	strb	r0, [r5, #0]
   2382c:	2c02      	cmp	r4, #2
   2382e:	d006      	beq.n	2383e <_ZN20complex_dynamic_type3app17h70d7968c3a25fa44E+0x136>
   23830:	480a      	ldr	r0, [pc, #40]	@ (2385c <_ZN20complex_dynamic_type3app17h70d7968c3a25fa44E+0x154>)
   23832:	2102      	movs	r1, #2
   23834:	2200      	movs	r2, #0
   23836:	4613      	mov	r3, r2
   23838:	2c04      	cmp	r4, #4
   2383a:	d10b      	bne.n	23854 <_ZN20complex_dynamic_type3app17h70d7968c3a25fa44E+0x14c>
   2383c:	df04      	svc	4
   2383e:	b01b      	add	sp, #108	@ 0x6c
   23840:	bdf0      	pop	{r4, r5, r6, r7, pc}
   23842:	1c68      	adds	r0, r5, #1
   23844:	2244      	movs	r2, #68	@ 0x44
   23846:	4621      	mov	r1, r4
   23848:	f007 fc5e 	bl	2b108 <__aeabi_memcpy>
   2384c:	9802      	ldr	r0, [sp, #8]
   2384e:	7028      	strb	r0, [r5, #0]
   23850:	b01b      	add	sp, #108	@ 0x6c
   23852:	bdf0      	pop	{r4, r5, r6, r7, pc}
   23854:	df03      	svc	3
   23856:	b01b      	add	sp, #108	@ 0x6c
   23858:	bdf0      	pop	{r4, r5, r6, r7, pc}
   2385a:	46c0      	nop			@ (mov r8, r8)
   2385c:	00002432 	.word	0x00002432

00023860 <_ZN20complex_dynamic_type3app17h72e443edf8b67651E>:
   23860:	b5f0      	push	{r4, r5, r6, r7, lr}
   23862:	af03      	add	r7, sp, #12
   23864:	b09d      	sub	sp, #116	@ 0x74
   23866:	9004      	str	r0, [sp, #16]
   23868:	a805      	add	r0, sp, #20
   2386a:	2502      	movs	r5, #2
   2386c:	7005      	strb	r5, [r0, #0]
   2386e:	1c40      	adds	r0, r0, #1
   23870:	9003      	str	r0, [sp, #12]
   23872:	261b      	movs	r6, #27
   23874:	4632      	mov	r2, r6
   23876:	f007 fc47 	bl	2b108 <__aeabi_memcpy>
   2387a:	ac0c      	add	r4, sp, #48	@ 0x30
   2387c:	1c60      	adds	r0, r4, #1
   2387e:	2141      	movs	r1, #65	@ 0x41
   23880:	9002      	str	r0, [sp, #8]
   23882:	f007 fa81 	bl	2ad88 <__aeabi_memclr>
   23886:	9501      	str	r5, [sp, #4]
   23888:	7025      	strb	r5, [r4, #0]
   2388a:	2005      	movs	r0, #5
   2388c:	0184      	lsls	r4, r0, #6
   2388e:	2108      	movs	r1, #8
   23890:	4620      	mov	r0, r4
   23892:	9a03      	ldr	r2, [sp, #12]
   23894:	4633      	mov	r3, r6
   23896:	df04      	svc	4
   23898:	2802      	cmp	r0, #2
   2389a:	d104      	bne.n	238a6 <_ZN20complex_dynamic_type3app17h72e443edf8b67651E+0x46>
   2389c:	2001      	movs	r0, #1
   2389e:	9a04      	ldr	r2, [sp, #16]
   238a0:	7010      	strb	r0, [r2, #0]
   238a2:	6051      	str	r1, [r2, #4]
   238a4:	e02d      	b.n	23902 <_ZN20complex_dynamic_type3app17h72e443edf8b67651E+0xa2>
   238a6:	9e04      	ldr	r6, [sp, #16]
   238a8:	a805      	add	r0, sp, #20
   238aa:	2104      	movs	r1, #4
   238ac:	7001      	strb	r1, [r0, #0]
   238ae:	2109      	movs	r1, #9
   238b0:	2341      	movs	r3, #65	@ 0x41
   238b2:	4620      	mov	r0, r4
   238b4:	9d02      	ldr	r5, [sp, #8]
   238b6:	462a      	mov	r2, r5
   238b8:	df03      	svc	3
   238ba:	2802      	cmp	r0, #2
   238bc:	d10e      	bne.n	238dc <_ZN20complex_dynamic_type3app17h72e443edf8b67651E+0x7c>
   238be:	2001      	movs	r0, #1
   238c0:	7030      	strb	r0, [r6, #0]
   238c2:	6071      	str	r1, [r6, #4]
   238c4:	a80c      	add	r0, sp, #48	@ 0x30
   238c6:	7800      	ldrb	r0, [r0, #0]
   238c8:	2802      	cmp	r0, #2
   238ca:	d01a      	beq.n	23902 <_ZN20complex_dynamic_type3app17h72e443edf8b67651E+0xa2>
   238cc:	2803      	cmp	r0, #3
   238ce:	d013      	beq.n	238f8 <_ZN20complex_dynamic_type3app17h72e443edf8b67651E+0x98>
   238d0:	2109      	movs	r1, #9
   238d2:	2200      	movs	r2, #0
   238d4:	4620      	mov	r0, r4
   238d6:	4613      	mov	r3, r2
   238d8:	df04      	svc	4
   238da:	e012      	b.n	23902 <_ZN20complex_dynamic_type3app17h72e443edf8b67651E+0xa2>
   238dc:	a80c      	add	r0, sp, #48	@ 0x30
   238de:	2103      	movs	r1, #3
   238e0:	7001      	strb	r1, [r0, #0]
   238e2:	2108      	movs	r1, #8
   238e4:	2209      	movs	r2, #9
   238e6:	2300      	movs	r3, #0
   238e8:	4620      	mov	r0, r4
   238ea:	9303      	str	r3, [sp, #12]
   238ec:	df02      	svc	2
   238ee:	2880      	cmp	r0, #128	@ 0x80
   238f0:	d219      	bcs.n	23926 <_ZN20complex_dynamic_type3app17h72e443edf8b67651E+0xc6>
   238f2:	2001      	movs	r0, #1
   238f4:	7030      	strb	r0, [r6, #0]
   238f6:	6071      	str	r1, [r6, #4]
   238f8:	2109      	movs	r1, #9
   238fa:	2200      	movs	r2, #0
   238fc:	4620      	mov	r0, r4
   238fe:	4613      	mov	r3, r2
   23900:	df03      	svc	3
   23902:	a805      	add	r0, sp, #20
   23904:	7800      	ldrb	r0, [r0, #0]
   23906:	2802      	cmp	r0, #2
   23908:	d044      	beq.n	23994 <_ZN20complex_dynamic_type3app17h72e443edf8b67651E+0x134>
   2390a:	2108      	movs	r1, #8
   2390c:	2200      	movs	r2, #0
   2390e:	2804      	cmp	r0, #4
   23910:	d104      	bne.n	2391c <_ZN20complex_dynamic_type3app17h72e443edf8b67651E+0xbc>
   23912:	4620      	mov	r0, r4
   23914:	4613      	mov	r3, r2
   23916:	df04      	svc	4
   23918:	b01d      	add	sp, #116	@ 0x74
   2391a:	bdf0      	pop	{r4, r5, r6, r7, pc}
   2391c:	4620      	mov	r0, r4
   2391e:	4613      	mov	r3, r2
   23920:	df03      	svc	3
   23922:	b01d      	add	sp, #116	@ 0x74
   23924:	bdf0      	pop	{r4, r5, r6, r7, pc}
   23926:	a805      	add	r0, sp, #20
   23928:	7800      	ldrb	r0, [r0, #0]
   2392a:	2802      	cmp	r0, #2
   2392c:	d00a      	beq.n	23944 <_ZN20complex_dynamic_type3app17h72e443edf8b67651E+0xe4>
   2392e:	2108      	movs	r1, #8
   23930:	2200      	movs	r2, #0
   23932:	2803      	cmp	r0, #3
   23934:	d103      	bne.n	2393e <_ZN20complex_dynamic_type3app17h72e443edf8b67651E+0xde>
   23936:	4620      	mov	r0, r4
   23938:	4613      	mov	r3, r2
   2393a:	df03      	svc	3
   2393c:	e002      	b.n	23944 <_ZN20complex_dynamic_type3app17h72e443edf8b67651E+0xe4>
   2393e:	4620      	mov	r0, r4
   23940:	4613      	mov	r3, r2
   23942:	df04      	svc	4
   23944:	a805      	add	r0, sp, #20
   23946:	9901      	ldr	r1, [sp, #4]
   23948:	7001      	strb	r1, [r0, #0]
   2394a:	a80c      	add	r0, sp, #48	@ 0x30
   2394c:	7800      	ldrb	r0, [r0, #0]
   2394e:	2804      	cmp	r0, #4
   23950:	d008      	beq.n	23964 <_ZN20complex_dynamic_type3app17h72e443edf8b67651E+0x104>
   23952:	2803      	cmp	r0, #3
   23954:	d120      	bne.n	23998 <_ZN20complex_dynamic_type3app17h72e443edf8b67651E+0x138>
   23956:	2109      	movs	r1, #9
   23958:	2200      	movs	r2, #0
   2395a:	9401      	str	r4, [sp, #4]
   2395c:	4620      	mov	r0, r4
   2395e:	4613      	mov	r3, r2
   23960:	df03      	svc	3
   23962:	e005      	b.n	23970 <_ZN20complex_dynamic_type3app17h72e443edf8b67651E+0x110>
   23964:	2109      	movs	r1, #9
   23966:	2200      	movs	r2, #0
   23968:	9401      	str	r4, [sp, #4]
   2396a:	4620      	mov	r0, r4
   2396c:	4613      	mov	r3, r2
   2396e:	df04      	svc	4
   23970:	a805      	add	r0, sp, #20
   23972:	7804      	ldrb	r4, [r0, #0]
   23974:	1c70      	adds	r0, r6, #1
   23976:	2241      	movs	r2, #65	@ 0x41
   23978:	4629      	mov	r1, r5
   2397a:	f007 fbc5 	bl	2b108 <__aeabi_memcpy>
   2397e:	9803      	ldr	r0, [sp, #12]
   23980:	7030      	strb	r0, [r6, #0]
   23982:	2c02      	cmp	r4, #2
   23984:	d006      	beq.n	23994 <_ZN20complex_dynamic_type3app17h72e443edf8b67651E+0x134>
   23986:	2c04      	cmp	r4, #4
   23988:	d10f      	bne.n	239aa <_ZN20complex_dynamic_type3app17h72e443edf8b67651E+0x14a>
   2398a:	2108      	movs	r1, #8
   2398c:	2200      	movs	r2, #0
   2398e:	9801      	ldr	r0, [sp, #4]
   23990:	4613      	mov	r3, r2
   23992:	df04      	svc	4
   23994:	b01d      	add	sp, #116	@ 0x74
   23996:	bdf0      	pop	{r4, r5, r6, r7, pc}
   23998:	1c70      	adds	r0, r6, #1
   2399a:	2241      	movs	r2, #65	@ 0x41
   2399c:	4629      	mov	r1, r5
   2399e:	f007 fbb3 	bl	2b108 <__aeabi_memcpy>
   239a2:	9803      	ldr	r0, [sp, #12]
   239a4:	7030      	strb	r0, [r6, #0]
   239a6:	b01d      	add	sp, #116	@ 0x74
   239a8:	bdf0      	pop	{r4, r5, r6, r7, pc}
   239aa:	9801      	ldr	r0, [sp, #4]
   239ac:	2108      	movs	r1, #8
   239ae:	2200      	movs	r2, #0
   239b0:	4613      	mov	r3, r2
   239b2:	df03      	svc	3
   239b4:	b01d      	add	sp, #116	@ 0x74
   239b6:	bdf0      	pop	{r4, r5, r6, r7, pc}

000239b8 <_ZN20complex_dynamic_type3app17h73f8967a7251e99fE>:
   239b8:	b5f0      	push	{r4, r5, r6, r7, lr}
   239ba:	af03      	add	r7, sp, #12
   239bc:	b09f      	sub	sp, #124	@ 0x7c
   239be:	9003      	str	r0, [sp, #12]
   239c0:	a804      	add	r0, sp, #16
   239c2:	2402      	movs	r4, #2
   239c4:	7004      	strb	r4, [r0, #0]
   239c6:	1c46      	adds	r6, r0, #1
   239c8:	2213      	movs	r2, #19
   239ca:	9202      	str	r2, [sp, #8]
   239cc:	4630      	mov	r0, r6
   239ce:	f007 fb9b 	bl	2b108 <__aeabi_memcpy>
   239d2:	ad09      	add	r5, sp, #36	@ 0x24
   239d4:	1c68      	adds	r0, r5, #1
   239d6:	2155      	movs	r1, #85	@ 0x55
   239d8:	9001      	str	r0, [sp, #4]
   239da:	f007 f9d5 	bl	2ad88 <__aeabi_memclr>
   239de:	9400      	str	r4, [sp, #0]
   239e0:	702c      	strb	r4, [r5, #0]
   239e2:	4848      	ldr	r0, [pc, #288]	@ (23b04 <_ZN20complex_dynamic_type3app17h73f8967a7251e99fE+0x14c>)
   239e4:	2109      	movs	r1, #9
   239e6:	4632      	mov	r2, r6
   239e8:	9b02      	ldr	r3, [sp, #8]
   239ea:	df04      	svc	4
   239ec:	2802      	cmp	r0, #2
   239ee:	d104      	bne.n	239fa <_ZN20complex_dynamic_type3app17h73f8967a7251e99fE+0x42>
   239f0:	2001      	movs	r0, #1
   239f2:	9a03      	ldr	r2, [sp, #12]
   239f4:	7010      	strb	r0, [r2, #0]
   239f6:	6051      	str	r1, [r2, #4]
   239f8:	e02d      	b.n	23a56 <_ZN20complex_dynamic_type3app17h73f8967a7251e99fE+0x9e>
   239fa:	9d03      	ldr	r5, [sp, #12]
   239fc:	a804      	add	r0, sp, #16
   239fe:	2104      	movs	r1, #4
   23a00:	7001      	strb	r1, [r0, #0]
   23a02:	4840      	ldr	r0, [pc, #256]	@ (23b04 <_ZN20complex_dynamic_type3app17h73f8967a7251e99fE+0x14c>)
   23a04:	2107      	movs	r1, #7
   23a06:	2355      	movs	r3, #85	@ 0x55
   23a08:	9c01      	ldr	r4, [sp, #4]
   23a0a:	4622      	mov	r2, r4
   23a0c:	df03      	svc	3
   23a0e:	2802      	cmp	r0, #2
   23a10:	d10e      	bne.n	23a30 <_ZN20complex_dynamic_type3app17h73f8967a7251e99fE+0x78>
   23a12:	2001      	movs	r0, #1
   23a14:	7028      	strb	r0, [r5, #0]
   23a16:	6069      	str	r1, [r5, #4]
   23a18:	a809      	add	r0, sp, #36	@ 0x24
   23a1a:	7800      	ldrb	r0, [r0, #0]
   23a1c:	2802      	cmp	r0, #2
   23a1e:	d01a      	beq.n	23a56 <_ZN20complex_dynamic_type3app17h73f8967a7251e99fE+0x9e>
   23a20:	2803      	cmp	r0, #3
   23a22:	d013      	beq.n	23a4c <_ZN20complex_dynamic_type3app17h73f8967a7251e99fE+0x94>
   23a24:	4837      	ldr	r0, [pc, #220]	@ (23b04 <_ZN20complex_dynamic_type3app17h73f8967a7251e99fE+0x14c>)
   23a26:	2107      	movs	r1, #7
   23a28:	2200      	movs	r2, #0
   23a2a:	4613      	mov	r3, r2
   23a2c:	df04      	svc	4
   23a2e:	e012      	b.n	23a56 <_ZN20complex_dynamic_type3app17h73f8967a7251e99fE+0x9e>
   23a30:	a809      	add	r0, sp, #36	@ 0x24
   23a32:	2103      	movs	r1, #3
   23a34:	7001      	strb	r1, [r0, #0]
   23a36:	4833      	ldr	r0, [pc, #204]	@ (23b04 <_ZN20complex_dynamic_type3app17h73f8967a7251e99fE+0x14c>)
   23a38:	2109      	movs	r1, #9
   23a3a:	2207      	movs	r2, #7
   23a3c:	2600      	movs	r6, #0
   23a3e:	4633      	mov	r3, r6
   23a40:	df02      	svc	2
   23a42:	2880      	cmp	r0, #128	@ 0x80
   23a44:	d21b      	bcs.n	23a7e <_ZN20complex_dynamic_type3app17h73f8967a7251e99fE+0xc6>
   23a46:	2001      	movs	r0, #1
   23a48:	7028      	strb	r0, [r5, #0]
   23a4a:	6069      	str	r1, [r5, #4]
   23a4c:	482d      	ldr	r0, [pc, #180]	@ (23b04 <_ZN20complex_dynamic_type3app17h73f8967a7251e99fE+0x14c>)
   23a4e:	2107      	movs	r1, #7
   23a50:	2200      	movs	r2, #0
   23a52:	4613      	mov	r3, r2
   23a54:	df03      	svc	3
   23a56:	a804      	add	r0, sp, #16
   23a58:	7800      	ldrb	r0, [r0, #0]
   23a5a:	2802      	cmp	r0, #2
   23a5c:	d045      	beq.n	23aea <_ZN20complex_dynamic_type3app17h73f8967a7251e99fE+0x132>
   23a5e:	2804      	cmp	r0, #4
   23a60:	d106      	bne.n	23a70 <_ZN20complex_dynamic_type3app17h73f8967a7251e99fE+0xb8>
   23a62:	4828      	ldr	r0, [pc, #160]	@ (23b04 <_ZN20complex_dynamic_type3app17h73f8967a7251e99fE+0x14c>)
   23a64:	2109      	movs	r1, #9
   23a66:	2200      	movs	r2, #0
   23a68:	4613      	mov	r3, r2
   23a6a:	df04      	svc	4
   23a6c:	b01f      	add	sp, #124	@ 0x7c
   23a6e:	bdf0      	pop	{r4, r5, r6, r7, pc}
   23a70:	4824      	ldr	r0, [pc, #144]	@ (23b04 <_ZN20complex_dynamic_type3app17h73f8967a7251e99fE+0x14c>)
   23a72:	2109      	movs	r1, #9
   23a74:	2200      	movs	r2, #0
   23a76:	4613      	mov	r3, r2
   23a78:	df03      	svc	3
   23a7a:	b01f      	add	sp, #124	@ 0x7c
   23a7c:	bdf0      	pop	{r4, r5, r6, r7, pc}
   23a7e:	a804      	add	r0, sp, #16
   23a80:	7800      	ldrb	r0, [r0, #0]
   23a82:	2802      	cmp	r0, #2
   23a84:	d00c      	beq.n	23aa0 <_ZN20complex_dynamic_type3app17h73f8967a7251e99fE+0xe8>
   23a86:	2803      	cmp	r0, #3
   23a88:	d105      	bne.n	23a96 <_ZN20complex_dynamic_type3app17h73f8967a7251e99fE+0xde>
   23a8a:	481e      	ldr	r0, [pc, #120]	@ (23b04 <_ZN20complex_dynamic_type3app17h73f8967a7251e99fE+0x14c>)
   23a8c:	2109      	movs	r1, #9
   23a8e:	2200      	movs	r2, #0
   23a90:	4613      	mov	r3, r2
   23a92:	df03      	svc	3
   23a94:	e004      	b.n	23aa0 <_ZN20complex_dynamic_type3app17h73f8967a7251e99fE+0xe8>
   23a96:	481b      	ldr	r0, [pc, #108]	@ (23b04 <_ZN20complex_dynamic_type3app17h73f8967a7251e99fE+0x14c>)
   23a98:	2109      	movs	r1, #9
   23a9a:	2200      	movs	r2, #0
   23a9c:	4613      	mov	r3, r2
   23a9e:	df04      	svc	4
   23aa0:	a804      	add	r0, sp, #16
   23aa2:	9900      	ldr	r1, [sp, #0]
   23aa4:	7001      	strb	r1, [r0, #0]
   23aa6:	a809      	add	r0, sp, #36	@ 0x24
   23aa8:	7800      	ldrb	r0, [r0, #0]
   23aaa:	2804      	cmp	r0, #4
   23aac:	d007      	beq.n	23abe <_ZN20complex_dynamic_type3app17h73f8967a7251e99fE+0x106>
   23aae:	2803      	cmp	r0, #3
   23ab0:	d11d      	bne.n	23aee <_ZN20complex_dynamic_type3app17h73f8967a7251e99fE+0x136>
   23ab2:	4814      	ldr	r0, [pc, #80]	@ (23b04 <_ZN20complex_dynamic_type3app17h73f8967a7251e99fE+0x14c>)
   23ab4:	2107      	movs	r1, #7
   23ab6:	2200      	movs	r2, #0
   23ab8:	4613      	mov	r3, r2
   23aba:	df03      	svc	3
   23abc:	e004      	b.n	23ac8 <_ZN20complex_dynamic_type3app17h73f8967a7251e99fE+0x110>
   23abe:	4811      	ldr	r0, [pc, #68]	@ (23b04 <_ZN20complex_dynamic_type3app17h73f8967a7251e99fE+0x14c>)
   23ac0:	2107      	movs	r1, #7
   23ac2:	2200      	movs	r2, #0
   23ac4:	4613      	mov	r3, r2
   23ac6:	df04      	svc	4
   23ac8:	a804      	add	r0, sp, #16
   23aca:	7804      	ldrb	r4, [r0, #0]
   23acc:	1c68      	adds	r0, r5, #1
   23ace:	2255      	movs	r2, #85	@ 0x55
   23ad0:	9901      	ldr	r1, [sp, #4]
   23ad2:	f007 fb19 	bl	2b108 <__aeabi_memcpy>
   23ad6:	702e      	strb	r6, [r5, #0]
   23ad8:	2c02      	cmp	r4, #2
   23ada:	d006      	beq.n	23aea <_ZN20complex_dynamic_type3app17h73f8967a7251e99fE+0x132>
   23adc:	4809      	ldr	r0, [pc, #36]	@ (23b04 <_ZN20complex_dynamic_type3app17h73f8967a7251e99fE+0x14c>)
   23ade:	2109      	movs	r1, #9
   23ae0:	2200      	movs	r2, #0
   23ae2:	4613      	mov	r3, r2
   23ae4:	2c04      	cmp	r4, #4
   23ae6:	d10a      	bne.n	23afe <_ZN20complex_dynamic_type3app17h73f8967a7251e99fE+0x146>
   23ae8:	df04      	svc	4
   23aea:	b01f      	add	sp, #124	@ 0x7c
   23aec:	bdf0      	pop	{r4, r5, r6, r7, pc}
   23aee:	1c68      	adds	r0, r5, #1
   23af0:	2255      	movs	r2, #85	@ 0x55
   23af2:	4621      	mov	r1, r4
   23af4:	f007 fb08 	bl	2b108 <__aeabi_memcpy>
   23af8:	702e      	strb	r6, [r5, #0]
   23afa:	b01f      	add	sp, #124	@ 0x7c
   23afc:	bdf0      	pop	{r4, r5, r6, r7, pc}
   23afe:	df03      	svc	3
   23b00:	b01f      	add	sp, #124	@ 0x7c
   23b02:	bdf0      	pop	{r4, r5, r6, r7, pc}
   23b04:	0000032e 	.word	0x0000032e

00023b08 <_ZN20complex_dynamic_type3app17h7440e9b724c97395E>:
   23b08:	b5f0      	push	{r4, r5, r6, r7, lr}
   23b0a:	af03      	add	r7, sp, #12
   23b0c:	b097      	sub	sp, #92	@ 0x5c
   23b0e:	9003      	str	r0, [sp, #12]
   23b10:	a804      	add	r0, sp, #16
   23b12:	2402      	movs	r4, #2
   23b14:	7004      	strb	r4, [r0, #0]
   23b16:	1c46      	adds	r6, r0, #1
   23b18:	2223      	movs	r2, #35	@ 0x23
   23b1a:	9202      	str	r2, [sp, #8]
   23b1c:	4630      	mov	r0, r6
   23b1e:	f007 faf3 	bl	2b108 <__aeabi_memcpy>
   23b22:	ad0d      	add	r5, sp, #52	@ 0x34
   23b24:	1c68      	adds	r0, r5, #1
   23b26:	2124      	movs	r1, #36	@ 0x24
   23b28:	9001      	str	r0, [sp, #4]
   23b2a:	f007 f92d 	bl	2ad88 <__aeabi_memclr>
   23b2e:	9400      	str	r4, [sp, #0]
   23b30:	702c      	strb	r4, [r5, #0]
   23b32:	4848      	ldr	r0, [pc, #288]	@ (23c54 <_ZN20complex_dynamic_type3app17h7440e9b724c97395E+0x14c>)
   23b34:	2504      	movs	r5, #4
   23b36:	4629      	mov	r1, r5
   23b38:	4632      	mov	r2, r6
   23b3a:	9b02      	ldr	r3, [sp, #8]
   23b3c:	df04      	svc	4
   23b3e:	2802      	cmp	r0, #2
   23b40:	d104      	bne.n	23b4c <_ZN20complex_dynamic_type3app17h7440e9b724c97395E+0x44>
   23b42:	2001      	movs	r0, #1
   23b44:	9a03      	ldr	r2, [sp, #12]
   23b46:	7010      	strb	r0, [r2, #0]
   23b48:	6051      	str	r1, [r2, #4]
   23b4a:	e02c      	b.n	23ba6 <_ZN20complex_dynamic_type3app17h7440e9b724c97395E+0x9e>
   23b4c:	9c03      	ldr	r4, [sp, #12]
   23b4e:	a804      	add	r0, sp, #16
   23b50:	7005      	strb	r5, [r0, #0]
   23b52:	4840      	ldr	r0, [pc, #256]	@ (23c54 <_ZN20complex_dynamic_type3app17h7440e9b724c97395E+0x14c>)
   23b54:	2108      	movs	r1, #8
   23b56:	2324      	movs	r3, #36	@ 0x24
   23b58:	9a01      	ldr	r2, [sp, #4]
   23b5a:	df03      	svc	3
   23b5c:	2802      	cmp	r0, #2
   23b5e:	d10e      	bne.n	23b7e <_ZN20complex_dynamic_type3app17h7440e9b724c97395E+0x76>
   23b60:	2001      	movs	r0, #1
   23b62:	7020      	strb	r0, [r4, #0]
   23b64:	6061      	str	r1, [r4, #4]
   23b66:	a80d      	add	r0, sp, #52	@ 0x34
   23b68:	7800      	ldrb	r0, [r0, #0]
   23b6a:	2802      	cmp	r0, #2
   23b6c:	d01b      	beq.n	23ba6 <_ZN20complex_dynamic_type3app17h7440e9b724c97395E+0x9e>
   23b6e:	2803      	cmp	r0, #3
   23b70:	d014      	beq.n	23b9c <_ZN20complex_dynamic_type3app17h7440e9b724c97395E+0x94>
   23b72:	4838      	ldr	r0, [pc, #224]	@ (23c54 <_ZN20complex_dynamic_type3app17h7440e9b724c97395E+0x14c>)
   23b74:	2108      	movs	r1, #8
   23b76:	2200      	movs	r2, #0
   23b78:	4613      	mov	r3, r2
   23b7a:	df04      	svc	4
   23b7c:	e013      	b.n	23ba6 <_ZN20complex_dynamic_type3app17h7440e9b724c97395E+0x9e>
   23b7e:	a80d      	add	r0, sp, #52	@ 0x34
   23b80:	2103      	movs	r1, #3
   23b82:	7001      	strb	r1, [r0, #0]
   23b84:	4833      	ldr	r0, [pc, #204]	@ (23c54 <_ZN20complex_dynamic_type3app17h7440e9b724c97395E+0x14c>)
   23b86:	2104      	movs	r1, #4
   23b88:	2208      	movs	r2, #8
   23b8a:	2600      	movs	r6, #0
   23b8c:	4633      	mov	r3, r6
   23b8e:	df02      	svc	2
   23b90:	2880      	cmp	r0, #128	@ 0x80
   23b92:	4625      	mov	r5, r4
   23b94:	d21b      	bcs.n	23bce <_ZN20complex_dynamic_type3app17h7440e9b724c97395E+0xc6>
   23b96:	2001      	movs	r0, #1
   23b98:	7028      	strb	r0, [r5, #0]
   23b9a:	6069      	str	r1, [r5, #4]
   23b9c:	482d      	ldr	r0, [pc, #180]	@ (23c54 <_ZN20complex_dynamic_type3app17h7440e9b724c97395E+0x14c>)
   23b9e:	2108      	movs	r1, #8
   23ba0:	2200      	movs	r2, #0
   23ba2:	4613      	mov	r3, r2
   23ba4:	df03      	svc	3
   23ba6:	a804      	add	r0, sp, #16
   23ba8:	7800      	ldrb	r0, [r0, #0]
   23baa:	2802      	cmp	r0, #2
   23bac:	d045      	beq.n	23c3a <_ZN20complex_dynamic_type3app17h7440e9b724c97395E+0x132>
   23bae:	2804      	cmp	r0, #4
   23bb0:	d106      	bne.n	23bc0 <_ZN20complex_dynamic_type3app17h7440e9b724c97395E+0xb8>
   23bb2:	4828      	ldr	r0, [pc, #160]	@ (23c54 <_ZN20complex_dynamic_type3app17h7440e9b724c97395E+0x14c>)
   23bb4:	2104      	movs	r1, #4
   23bb6:	2200      	movs	r2, #0
   23bb8:	4613      	mov	r3, r2
   23bba:	df04      	svc	4
   23bbc:	b017      	add	sp, #92	@ 0x5c
   23bbe:	bdf0      	pop	{r4, r5, r6, r7, pc}
   23bc0:	4824      	ldr	r0, [pc, #144]	@ (23c54 <_ZN20complex_dynamic_type3app17h7440e9b724c97395E+0x14c>)
   23bc2:	2104      	movs	r1, #4
   23bc4:	2200      	movs	r2, #0
   23bc6:	4613      	mov	r3, r2
   23bc8:	df03      	svc	3
   23bca:	b017      	add	sp, #92	@ 0x5c
   23bcc:	bdf0      	pop	{r4, r5, r6, r7, pc}
   23bce:	a804      	add	r0, sp, #16
   23bd0:	7800      	ldrb	r0, [r0, #0]
   23bd2:	2802      	cmp	r0, #2
   23bd4:	d00c      	beq.n	23bf0 <_ZN20complex_dynamic_type3app17h7440e9b724c97395E+0xe8>
   23bd6:	2803      	cmp	r0, #3
   23bd8:	d105      	bne.n	23be6 <_ZN20complex_dynamic_type3app17h7440e9b724c97395E+0xde>
   23bda:	481e      	ldr	r0, [pc, #120]	@ (23c54 <_ZN20complex_dynamic_type3app17h7440e9b724c97395E+0x14c>)
   23bdc:	2104      	movs	r1, #4
   23bde:	2200      	movs	r2, #0
   23be0:	4613      	mov	r3, r2
   23be2:	df03      	svc	3
   23be4:	e004      	b.n	23bf0 <_ZN20complex_dynamic_type3app17h7440e9b724c97395E+0xe8>
   23be6:	481b      	ldr	r0, [pc, #108]	@ (23c54 <_ZN20complex_dynamic_type3app17h7440e9b724c97395E+0x14c>)
   23be8:	2104      	movs	r1, #4
   23bea:	2200      	movs	r2, #0
   23bec:	4613      	mov	r3, r2
   23bee:	df04      	svc	4
   23bf0:	a804      	add	r0, sp, #16
   23bf2:	9900      	ldr	r1, [sp, #0]
   23bf4:	7001      	strb	r1, [r0, #0]
   23bf6:	a80d      	add	r0, sp, #52	@ 0x34
   23bf8:	7800      	ldrb	r0, [r0, #0]
   23bfa:	2804      	cmp	r0, #4
   23bfc:	d007      	beq.n	23c0e <_ZN20complex_dynamic_type3app17h7440e9b724c97395E+0x106>
   23bfe:	2803      	cmp	r0, #3
   23c00:	d11d      	bne.n	23c3e <_ZN20complex_dynamic_type3app17h7440e9b724c97395E+0x136>
   23c02:	4814      	ldr	r0, [pc, #80]	@ (23c54 <_ZN20complex_dynamic_type3app17h7440e9b724c97395E+0x14c>)
   23c04:	2108      	movs	r1, #8
   23c06:	2200      	movs	r2, #0
   23c08:	4613      	mov	r3, r2
   23c0a:	df03      	svc	3
   23c0c:	e004      	b.n	23c18 <_ZN20complex_dynamic_type3app17h7440e9b724c97395E+0x110>
   23c0e:	4811      	ldr	r0, [pc, #68]	@ (23c54 <_ZN20complex_dynamic_type3app17h7440e9b724c97395E+0x14c>)
   23c10:	2108      	movs	r1, #8
   23c12:	2200      	movs	r2, #0
   23c14:	4613      	mov	r3, r2
   23c16:	df04      	svc	4
   23c18:	a804      	add	r0, sp, #16
   23c1a:	7804      	ldrb	r4, [r0, #0]
   23c1c:	1c68      	adds	r0, r5, #1
   23c1e:	2224      	movs	r2, #36	@ 0x24
   23c20:	9901      	ldr	r1, [sp, #4]
   23c22:	f007 fa71 	bl	2b108 <__aeabi_memcpy>
   23c26:	702e      	strb	r6, [r5, #0]
   23c28:	2c02      	cmp	r4, #2
   23c2a:	d006      	beq.n	23c3a <_ZN20complex_dynamic_type3app17h7440e9b724c97395E+0x132>
   23c2c:	4809      	ldr	r0, [pc, #36]	@ (23c54 <_ZN20complex_dynamic_type3app17h7440e9b724c97395E+0x14c>)
   23c2e:	2104      	movs	r1, #4
   23c30:	2200      	movs	r2, #0
   23c32:	4613      	mov	r3, r2
   23c34:	2c04      	cmp	r4, #4
   23c36:	d10a      	bne.n	23c4e <_ZN20complex_dynamic_type3app17h7440e9b724c97395E+0x146>
   23c38:	df04      	svc	4
   23c3a:	b017      	add	sp, #92	@ 0x5c
   23c3c:	bdf0      	pop	{r4, r5, r6, r7, pc}
   23c3e:	1c68      	adds	r0, r5, #1
   23c40:	2224      	movs	r2, #36	@ 0x24
   23c42:	9901      	ldr	r1, [sp, #4]
   23c44:	f007 fa60 	bl	2b108 <__aeabi_memcpy>
   23c48:	702e      	strb	r6, [r5, #0]
   23c4a:	b017      	add	sp, #92	@ 0x5c
   23c4c:	bdf0      	pop	{r4, r5, r6, r7, pc}
   23c4e:	df03      	svc	3
   23c50:	b017      	add	sp, #92	@ 0x5c
   23c52:	bdf0      	pop	{r4, r5, r6, r7, pc}
   23c54:	00001bd6 	.word	0x00001bd6

00023c58 <_ZN20complex_dynamic_type3app17h7ac88aa0110f5ee6E>:
   23c58:	b5f0      	push	{r4, r5, r6, r7, lr}
   23c5a:	af03      	add	r7, sp, #12
   23c5c:	b0a9      	sub	sp, #164	@ 0xa4
   23c5e:	9004      	str	r0, [sp, #16]
   23c60:	a805      	add	r0, sp, #20
   23c62:	2402      	movs	r4, #2
   23c64:	7004      	strb	r4, [r0, #0]
   23c66:	1c46      	adds	r6, r0, #1
   23c68:	2253      	movs	r2, #83	@ 0x53
   23c6a:	9203      	str	r2, [sp, #12]
   23c6c:	4630      	mov	r0, r6
   23c6e:	f007 fa4b 	bl	2b108 <__aeabi_memcpy>
   23c72:	ad1a      	add	r5, sp, #104	@ 0x68
   23c74:	1c68      	adds	r0, r5, #1
   23c76:	213a      	movs	r1, #58	@ 0x3a
   23c78:	9002      	str	r0, [sp, #8]
   23c7a:	f007 f885 	bl	2ad88 <__aeabi_memclr>
   23c7e:	9401      	str	r4, [sp, #4]
   23c80:	702c      	strb	r4, [r5, #0]
   23c82:	4848      	ldr	r0, [pc, #288]	@ (23da4 <_ZN20complex_dynamic_type3app17h7ac88aa0110f5ee6E+0x14c>)
   23c84:	2106      	movs	r1, #6
   23c86:	4632      	mov	r2, r6
   23c88:	9b03      	ldr	r3, [sp, #12]
   23c8a:	df04      	svc	4
   23c8c:	2802      	cmp	r0, #2
   23c8e:	d104      	bne.n	23c9a <_ZN20complex_dynamic_type3app17h7ac88aa0110f5ee6E+0x42>
   23c90:	2001      	movs	r0, #1
   23c92:	9a04      	ldr	r2, [sp, #16]
   23c94:	7010      	strb	r0, [r2, #0]
   23c96:	6051      	str	r1, [r2, #4]
   23c98:	e02d      	b.n	23cf6 <_ZN20complex_dynamic_type3app17h7ac88aa0110f5ee6E+0x9e>
   23c9a:	9d04      	ldr	r5, [sp, #16]
   23c9c:	a805      	add	r0, sp, #20
   23c9e:	2104      	movs	r1, #4
   23ca0:	7001      	strb	r1, [r0, #0]
   23ca2:	4840      	ldr	r0, [pc, #256]	@ (23da4 <_ZN20complex_dynamic_type3app17h7ac88aa0110f5ee6E+0x14c>)
   23ca4:	2107      	movs	r1, #7
   23ca6:	233a      	movs	r3, #58	@ 0x3a
   23ca8:	9c02      	ldr	r4, [sp, #8]
   23caa:	4622      	mov	r2, r4
   23cac:	df03      	svc	3
   23cae:	2802      	cmp	r0, #2
   23cb0:	d10e      	bne.n	23cd0 <_ZN20complex_dynamic_type3app17h7ac88aa0110f5ee6E+0x78>
   23cb2:	2001      	movs	r0, #1
   23cb4:	7028      	strb	r0, [r5, #0]
   23cb6:	6069      	str	r1, [r5, #4]
   23cb8:	a81a      	add	r0, sp, #104	@ 0x68
   23cba:	7800      	ldrb	r0, [r0, #0]
   23cbc:	2802      	cmp	r0, #2
   23cbe:	d01a      	beq.n	23cf6 <_ZN20complex_dynamic_type3app17h7ac88aa0110f5ee6E+0x9e>
   23cc0:	2803      	cmp	r0, #3
   23cc2:	d013      	beq.n	23cec <_ZN20complex_dynamic_type3app17h7ac88aa0110f5ee6E+0x94>
   23cc4:	4837      	ldr	r0, [pc, #220]	@ (23da4 <_ZN20complex_dynamic_type3app17h7ac88aa0110f5ee6E+0x14c>)
   23cc6:	2107      	movs	r1, #7
   23cc8:	2200      	movs	r2, #0
   23cca:	4613      	mov	r3, r2
   23ccc:	df04      	svc	4
   23cce:	e012      	b.n	23cf6 <_ZN20complex_dynamic_type3app17h7ac88aa0110f5ee6E+0x9e>
   23cd0:	a81a      	add	r0, sp, #104	@ 0x68
   23cd2:	2103      	movs	r1, #3
   23cd4:	7001      	strb	r1, [r0, #0]
   23cd6:	4833      	ldr	r0, [pc, #204]	@ (23da4 <_ZN20complex_dynamic_type3app17h7ac88aa0110f5ee6E+0x14c>)
   23cd8:	2106      	movs	r1, #6
   23cda:	2207      	movs	r2, #7
   23cdc:	2600      	movs	r6, #0
   23cde:	4633      	mov	r3, r6
   23ce0:	df02      	svc	2
   23ce2:	2880      	cmp	r0, #128	@ 0x80
   23ce4:	d21b      	bcs.n	23d1e <_ZN20complex_dynamic_type3app17h7ac88aa0110f5ee6E+0xc6>
   23ce6:	2001      	movs	r0, #1
   23ce8:	7028      	strb	r0, [r5, #0]
   23cea:	6069      	str	r1, [r5, #4]
   23cec:	482d      	ldr	r0, [pc, #180]	@ (23da4 <_ZN20complex_dynamic_type3app17h7ac88aa0110f5ee6E+0x14c>)
   23cee:	2107      	movs	r1, #7
   23cf0:	2200      	movs	r2, #0
   23cf2:	4613      	mov	r3, r2
   23cf4:	df03      	svc	3
   23cf6:	a805      	add	r0, sp, #20
   23cf8:	7800      	ldrb	r0, [r0, #0]
   23cfa:	2802      	cmp	r0, #2
   23cfc:	d045      	beq.n	23d8a <_ZN20complex_dynamic_type3app17h7ac88aa0110f5ee6E+0x132>
   23cfe:	2804      	cmp	r0, #4
   23d00:	d106      	bne.n	23d10 <_ZN20complex_dynamic_type3app17h7ac88aa0110f5ee6E+0xb8>
   23d02:	4828      	ldr	r0, [pc, #160]	@ (23da4 <_ZN20complex_dynamic_type3app17h7ac88aa0110f5ee6E+0x14c>)
   23d04:	2106      	movs	r1, #6
   23d06:	2200      	movs	r2, #0
   23d08:	4613      	mov	r3, r2
   23d0a:	df04      	svc	4
   23d0c:	b029      	add	sp, #164	@ 0xa4
   23d0e:	bdf0      	pop	{r4, r5, r6, r7, pc}
   23d10:	4824      	ldr	r0, [pc, #144]	@ (23da4 <_ZN20complex_dynamic_type3app17h7ac88aa0110f5ee6E+0x14c>)
   23d12:	2106      	movs	r1, #6
   23d14:	2200      	movs	r2, #0
   23d16:	4613      	mov	r3, r2
   23d18:	df03      	svc	3
   23d1a:	b029      	add	sp, #164	@ 0xa4
   23d1c:	bdf0      	pop	{r4, r5, r6, r7, pc}
   23d1e:	a805      	add	r0, sp, #20
   23d20:	7800      	ldrb	r0, [r0, #0]
   23d22:	2802      	cmp	r0, #2
   23d24:	d00c      	beq.n	23d40 <_ZN20complex_dynamic_type3app17h7ac88aa0110f5ee6E+0xe8>
   23d26:	2803      	cmp	r0, #3
   23d28:	d105      	bne.n	23d36 <_ZN20complex_dynamic_type3app17h7ac88aa0110f5ee6E+0xde>
   23d2a:	481e      	ldr	r0, [pc, #120]	@ (23da4 <_ZN20complex_dynamic_type3app17h7ac88aa0110f5ee6E+0x14c>)
   23d2c:	2106      	movs	r1, #6
   23d2e:	2200      	movs	r2, #0
   23d30:	4613      	mov	r3, r2
   23d32:	df03      	svc	3
   23d34:	e004      	b.n	23d40 <_ZN20complex_dynamic_type3app17h7ac88aa0110f5ee6E+0xe8>
   23d36:	481b      	ldr	r0, [pc, #108]	@ (23da4 <_ZN20complex_dynamic_type3app17h7ac88aa0110f5ee6E+0x14c>)
   23d38:	2106      	movs	r1, #6
   23d3a:	2200      	movs	r2, #0
   23d3c:	4613      	mov	r3, r2
   23d3e:	df04      	svc	4
   23d40:	a805      	add	r0, sp, #20
   23d42:	9901      	ldr	r1, [sp, #4]
   23d44:	7001      	strb	r1, [r0, #0]
   23d46:	a81a      	add	r0, sp, #104	@ 0x68
   23d48:	7800      	ldrb	r0, [r0, #0]
   23d4a:	2804      	cmp	r0, #4
   23d4c:	d007      	beq.n	23d5e <_ZN20complex_dynamic_type3app17h7ac88aa0110f5ee6E+0x106>
   23d4e:	2803      	cmp	r0, #3
   23d50:	d11d      	bne.n	23d8e <_ZN20complex_dynamic_type3app17h7ac88aa0110f5ee6E+0x136>
   23d52:	4814      	ldr	r0, [pc, #80]	@ (23da4 <_ZN20complex_dynamic_type3app17h7ac88aa0110f5ee6E+0x14c>)
   23d54:	2107      	movs	r1, #7
   23d56:	2200      	movs	r2, #0
   23d58:	4613      	mov	r3, r2
   23d5a:	df03      	svc	3
   23d5c:	e004      	b.n	23d68 <_ZN20complex_dynamic_type3app17h7ac88aa0110f5ee6E+0x110>
   23d5e:	4811      	ldr	r0, [pc, #68]	@ (23da4 <_ZN20complex_dynamic_type3app17h7ac88aa0110f5ee6E+0x14c>)
   23d60:	2107      	movs	r1, #7
   23d62:	2200      	movs	r2, #0
   23d64:	4613      	mov	r3, r2
   23d66:	df04      	svc	4
   23d68:	a805      	add	r0, sp, #20
   23d6a:	7804      	ldrb	r4, [r0, #0]
   23d6c:	1c68      	adds	r0, r5, #1
   23d6e:	223a      	movs	r2, #58	@ 0x3a
   23d70:	9902      	ldr	r1, [sp, #8]
   23d72:	f007 f9c9 	bl	2b108 <__aeabi_memcpy>
   23d76:	702e      	strb	r6, [r5, #0]
   23d78:	2c02      	cmp	r4, #2
   23d7a:	d006      	beq.n	23d8a <_ZN20complex_dynamic_type3app17h7ac88aa0110f5ee6E+0x132>
   23d7c:	4809      	ldr	r0, [pc, #36]	@ (23da4 <_ZN20complex_dynamic_type3app17h7ac88aa0110f5ee6E+0x14c>)
   23d7e:	2106      	movs	r1, #6
   23d80:	2200      	movs	r2, #0
   23d82:	4613      	mov	r3, r2
   23d84:	2c04      	cmp	r4, #4
   23d86:	d10a      	bne.n	23d9e <_ZN20complex_dynamic_type3app17h7ac88aa0110f5ee6E+0x146>
   23d88:	df04      	svc	4
   23d8a:	b029      	add	sp, #164	@ 0xa4
   23d8c:	bdf0      	pop	{r4, r5, r6, r7, pc}
   23d8e:	1c68      	adds	r0, r5, #1
   23d90:	223a      	movs	r2, #58	@ 0x3a
   23d92:	4621      	mov	r1, r4
   23d94:	f007 f9b8 	bl	2b108 <__aeabi_memcpy>
   23d98:	702e      	strb	r6, [r5, #0]
   23d9a:	b029      	add	sp, #164	@ 0xa4
   23d9c:	bdf0      	pop	{r4, r5, r6, r7, pc}
   23d9e:	df03      	svc	3
   23da0:	b029      	add	sp, #164	@ 0xa4
   23da2:	bdf0      	pop	{r4, r5, r6, r7, pc}
   23da4:	00002645 	.word	0x00002645

00023da8 <_ZN20complex_dynamic_type3app17h7bc650c2985107f2E>:
   23da8:	b5f0      	push	{r4, r5, r6, r7, lr}
   23daa:	af03      	add	r7, sp, #12
   23dac:	b095      	sub	sp, #84	@ 0x54
   23dae:	9003      	str	r0, [sp, #12]
   23db0:	a804      	add	r0, sp, #16
   23db2:	2402      	movs	r4, #2
   23db4:	7004      	strb	r4, [r0, #0]
   23db6:	1c46      	adds	r6, r0, #1
   23db8:	2214      	movs	r2, #20
   23dba:	9202      	str	r2, [sp, #8]
   23dbc:	4630      	mov	r0, r6
   23dbe:	f007 f9a3 	bl	2b108 <__aeabi_memcpy>
   23dc2:	ad0a      	add	r5, sp, #40	@ 0x28
   23dc4:	1c68      	adds	r0, r5, #1
   23dc6:	212b      	movs	r1, #43	@ 0x2b
   23dc8:	9001      	str	r0, [sp, #4]
   23dca:	f006 ffdd 	bl	2ad88 <__aeabi_memclr>
   23dce:	9400      	str	r4, [sp, #0]
   23dd0:	702c      	strb	r4, [r5, #0]
   23dd2:	4848      	ldr	r0, [pc, #288]	@ (23ef4 <_ZN20complex_dynamic_type3app17h7bc650c2985107f2E+0x14c>)
   23dd4:	2108      	movs	r1, #8
   23dd6:	4632      	mov	r2, r6
   23dd8:	9b02      	ldr	r3, [sp, #8]
   23dda:	df04      	svc	4
   23ddc:	2802      	cmp	r0, #2
   23dde:	d104      	bne.n	23dea <_ZN20complex_dynamic_type3app17h7bc650c2985107f2E+0x42>
   23de0:	2001      	movs	r0, #1
   23de2:	9a03      	ldr	r2, [sp, #12]
   23de4:	7010      	strb	r0, [r2, #0]
   23de6:	6051      	str	r1, [r2, #4]
   23de8:	e02c      	b.n	23e44 <_ZN20complex_dynamic_type3app17h7bc650c2985107f2E+0x9c>
   23dea:	9d03      	ldr	r5, [sp, #12]
   23dec:	a804      	add	r0, sp, #16
   23dee:	2104      	movs	r1, #4
   23df0:	7001      	strb	r1, [r0, #0]
   23df2:	4840      	ldr	r0, [pc, #256]	@ (23ef4 <_ZN20complex_dynamic_type3app17h7bc650c2985107f2E+0x14c>)
   23df4:	232b      	movs	r3, #43	@ 0x2b
   23df6:	9c01      	ldr	r4, [sp, #4]
   23df8:	4622      	mov	r2, r4
   23dfa:	df03      	svc	3
   23dfc:	2802      	cmp	r0, #2
   23dfe:	d10e      	bne.n	23e1e <_ZN20complex_dynamic_type3app17h7bc650c2985107f2E+0x76>
   23e00:	2001      	movs	r0, #1
   23e02:	7028      	strb	r0, [r5, #0]
   23e04:	6069      	str	r1, [r5, #4]
   23e06:	a80a      	add	r0, sp, #40	@ 0x28
   23e08:	7800      	ldrb	r0, [r0, #0]
   23e0a:	2802      	cmp	r0, #2
   23e0c:	d01a      	beq.n	23e44 <_ZN20complex_dynamic_type3app17h7bc650c2985107f2E+0x9c>
   23e0e:	2803      	cmp	r0, #3
   23e10:	d013      	beq.n	23e3a <_ZN20complex_dynamic_type3app17h7bc650c2985107f2E+0x92>
   23e12:	4838      	ldr	r0, [pc, #224]	@ (23ef4 <_ZN20complex_dynamic_type3app17h7bc650c2985107f2E+0x14c>)
   23e14:	2104      	movs	r1, #4
   23e16:	2200      	movs	r2, #0
   23e18:	4613      	mov	r3, r2
   23e1a:	df04      	svc	4
   23e1c:	e012      	b.n	23e44 <_ZN20complex_dynamic_type3app17h7bc650c2985107f2E+0x9c>
   23e1e:	a80a      	add	r0, sp, #40	@ 0x28
   23e20:	2103      	movs	r1, #3
   23e22:	7001      	strb	r1, [r0, #0]
   23e24:	4833      	ldr	r0, [pc, #204]	@ (23ef4 <_ZN20complex_dynamic_type3app17h7bc650c2985107f2E+0x14c>)
   23e26:	2108      	movs	r1, #8
   23e28:	2204      	movs	r2, #4
   23e2a:	2600      	movs	r6, #0
   23e2c:	4633      	mov	r3, r6
   23e2e:	df02      	svc	2
   23e30:	2880      	cmp	r0, #128	@ 0x80
   23e32:	d21b      	bcs.n	23e6c <_ZN20complex_dynamic_type3app17h7bc650c2985107f2E+0xc4>
   23e34:	2001      	movs	r0, #1
   23e36:	7028      	strb	r0, [r5, #0]
   23e38:	6069      	str	r1, [r5, #4]
   23e3a:	482e      	ldr	r0, [pc, #184]	@ (23ef4 <_ZN20complex_dynamic_type3app17h7bc650c2985107f2E+0x14c>)
   23e3c:	2104      	movs	r1, #4
   23e3e:	2200      	movs	r2, #0
   23e40:	4613      	mov	r3, r2
   23e42:	df03      	svc	3
   23e44:	a804      	add	r0, sp, #16
   23e46:	7800      	ldrb	r0, [r0, #0]
   23e48:	2802      	cmp	r0, #2
   23e4a:	d045      	beq.n	23ed8 <_ZN20complex_dynamic_type3app17h7bc650c2985107f2E+0x130>
   23e4c:	2804      	cmp	r0, #4
   23e4e:	d106      	bne.n	23e5e <_ZN20complex_dynamic_type3app17h7bc650c2985107f2E+0xb6>
   23e50:	4828      	ldr	r0, [pc, #160]	@ (23ef4 <_ZN20complex_dynamic_type3app17h7bc650c2985107f2E+0x14c>)
   23e52:	2108      	movs	r1, #8
   23e54:	2200      	movs	r2, #0
   23e56:	4613      	mov	r3, r2
   23e58:	df04      	svc	4
   23e5a:	b015      	add	sp, #84	@ 0x54
   23e5c:	bdf0      	pop	{r4, r5, r6, r7, pc}
   23e5e:	4825      	ldr	r0, [pc, #148]	@ (23ef4 <_ZN20complex_dynamic_type3app17h7bc650c2985107f2E+0x14c>)
   23e60:	2108      	movs	r1, #8
   23e62:	2200      	movs	r2, #0
   23e64:	4613      	mov	r3, r2
   23e66:	df03      	svc	3
   23e68:	b015      	add	sp, #84	@ 0x54
   23e6a:	bdf0      	pop	{r4, r5, r6, r7, pc}
   23e6c:	a804      	add	r0, sp, #16
   23e6e:	7800      	ldrb	r0, [r0, #0]
   23e70:	2802      	cmp	r0, #2
   23e72:	d00c      	beq.n	23e8e <_ZN20complex_dynamic_type3app17h7bc650c2985107f2E+0xe6>
   23e74:	2803      	cmp	r0, #3
   23e76:	d105      	bne.n	23e84 <_ZN20complex_dynamic_type3app17h7bc650c2985107f2E+0xdc>
   23e78:	481e      	ldr	r0, [pc, #120]	@ (23ef4 <_ZN20complex_dynamic_type3app17h7bc650c2985107f2E+0x14c>)
   23e7a:	2108      	movs	r1, #8
   23e7c:	2200      	movs	r2, #0
   23e7e:	4613      	mov	r3, r2
   23e80:	df03      	svc	3
   23e82:	e004      	b.n	23e8e <_ZN20complex_dynamic_type3app17h7bc650c2985107f2E+0xe6>
   23e84:	481b      	ldr	r0, [pc, #108]	@ (23ef4 <_ZN20complex_dynamic_type3app17h7bc650c2985107f2E+0x14c>)
   23e86:	2108      	movs	r1, #8
   23e88:	2200      	movs	r2, #0
   23e8a:	4613      	mov	r3, r2
   23e8c:	df04      	svc	4
   23e8e:	a804      	add	r0, sp, #16
   23e90:	9900      	ldr	r1, [sp, #0]
   23e92:	7001      	strb	r1, [r0, #0]
   23e94:	a80a      	add	r0, sp, #40	@ 0x28
   23e96:	7800      	ldrb	r0, [r0, #0]
   23e98:	2804      	cmp	r0, #4
   23e9a:	d007      	beq.n	23eac <_ZN20complex_dynamic_type3app17h7bc650c2985107f2E+0x104>
   23e9c:	2803      	cmp	r0, #3
   23e9e:	d11d      	bne.n	23edc <_ZN20complex_dynamic_type3app17h7bc650c2985107f2E+0x134>
   23ea0:	4814      	ldr	r0, [pc, #80]	@ (23ef4 <_ZN20complex_dynamic_type3app17h7bc650c2985107f2E+0x14c>)
   23ea2:	2104      	movs	r1, #4
   23ea4:	2200      	movs	r2, #0
   23ea6:	4613      	mov	r3, r2
   23ea8:	df03      	svc	3
   23eaa:	e004      	b.n	23eb6 <_ZN20complex_dynamic_type3app17h7bc650c2985107f2E+0x10e>
   23eac:	4811      	ldr	r0, [pc, #68]	@ (23ef4 <_ZN20complex_dynamic_type3app17h7bc650c2985107f2E+0x14c>)
   23eae:	2104      	movs	r1, #4
   23eb0:	2200      	movs	r2, #0
   23eb2:	4613      	mov	r3, r2
   23eb4:	df04      	svc	4
   23eb6:	a804      	add	r0, sp, #16
   23eb8:	7804      	ldrb	r4, [r0, #0]
   23eba:	1c68      	adds	r0, r5, #1
   23ebc:	222b      	movs	r2, #43	@ 0x2b
   23ebe:	9901      	ldr	r1, [sp, #4]
   23ec0:	f007 f922 	bl	2b108 <__aeabi_memcpy>
   23ec4:	702e      	strb	r6, [r5, #0]
   23ec6:	2c02      	cmp	r4, #2
   23ec8:	d006      	beq.n	23ed8 <_ZN20complex_dynamic_type3app17h7bc650c2985107f2E+0x130>
   23eca:	480a      	ldr	r0, [pc, #40]	@ (23ef4 <_ZN20complex_dynamic_type3app17h7bc650c2985107f2E+0x14c>)
   23ecc:	2108      	movs	r1, #8
   23ece:	2200      	movs	r2, #0
   23ed0:	4613      	mov	r3, r2
   23ed2:	2c04      	cmp	r4, #4
   23ed4:	d10a      	bne.n	23eec <_ZN20complex_dynamic_type3app17h7bc650c2985107f2E+0x144>
   23ed6:	df04      	svc	4
   23ed8:	b015      	add	sp, #84	@ 0x54
   23eda:	bdf0      	pop	{r4, r5, r6, r7, pc}
   23edc:	1c68      	adds	r0, r5, #1
   23ede:	222b      	movs	r2, #43	@ 0x2b
   23ee0:	4621      	mov	r1, r4
   23ee2:	f007 f911 	bl	2b108 <__aeabi_memcpy>
   23ee6:	702e      	strb	r6, [r5, #0]
   23ee8:	b015      	add	sp, #84	@ 0x54
   23eea:	bdf0      	pop	{r4, r5, r6, r7, pc}
   23eec:	df03      	svc	3
   23eee:	b015      	add	sp, #84	@ 0x54
   23ef0:	bdf0      	pop	{r4, r5, r6, r7, pc}
   23ef2:	46c0      	nop			@ (mov r8, r8)
   23ef4:	0000239f 	.word	0x0000239f

00023ef8 <_ZN20complex_dynamic_type3app17h7db99cc50173374eE>:
   23ef8:	b5f0      	push	{r4, r5, r6, r7, lr}
   23efa:	af03      	add	r7, sp, #12
   23efc:	b0a3      	sub	sp, #140	@ 0x8c
   23efe:	9004      	str	r0, [sp, #16]
   23f00:	a805      	add	r0, sp, #20
   23f02:	2402      	movs	r4, #2
   23f04:	7004      	strb	r4, [r0, #0]
   23f06:	1c40      	adds	r0, r0, #1
   23f08:	9003      	str	r0, [sp, #12]
   23f0a:	2548      	movs	r5, #72	@ 0x48
   23f0c:	462a      	mov	r2, r5
   23f0e:	f007 f8fb 	bl	2b108 <__aeabi_memcpy>
   23f12:	ae18      	add	r6, sp, #96	@ 0x60
   23f14:	1c70      	adds	r0, r6, #1
   23f16:	2129      	movs	r1, #41	@ 0x29
   23f18:	9002      	str	r0, [sp, #8]
   23f1a:	f006 ff35 	bl	2ad88 <__aeabi_memclr>
   23f1e:	9401      	str	r4, [sp, #4]
   23f20:	7034      	strb	r4, [r6, #0]
   23f22:	484a      	ldr	r0, [pc, #296]	@ (2404c <_ZN20complex_dynamic_type3app17h7db99cc50173374eE+0x154>)
   23f24:	2603      	movs	r6, #3
   23f26:	4631      	mov	r1, r6
   23f28:	9a03      	ldr	r2, [sp, #12]
   23f2a:	462b      	mov	r3, r5
   23f2c:	df04      	svc	4
   23f2e:	2802      	cmp	r0, #2
   23f30:	d104      	bne.n	23f3c <_ZN20complex_dynamic_type3app17h7db99cc50173374eE+0x44>
   23f32:	2001      	movs	r0, #1
   23f34:	9a04      	ldr	r2, [sp, #16]
   23f36:	7010      	strb	r0, [r2, #0]
   23f38:	6051      	str	r1, [r2, #4]
   23f3a:	e02b      	b.n	23f94 <_ZN20complex_dynamic_type3app17h7db99cc50173374eE+0x9c>
   23f3c:	9d04      	ldr	r5, [sp, #16]
   23f3e:	a805      	add	r0, sp, #20
   23f40:	2104      	movs	r1, #4
   23f42:	7001      	strb	r1, [r0, #0]
   23f44:	4841      	ldr	r0, [pc, #260]	@ (2404c <_ZN20complex_dynamic_type3app17h7db99cc50173374eE+0x154>)
   23f46:	2329      	movs	r3, #41	@ 0x29
   23f48:	9c02      	ldr	r4, [sp, #8]
   23f4a:	4622      	mov	r2, r4
   23f4c:	df03      	svc	3
   23f4e:	2802      	cmp	r0, #2
   23f50:	d10e      	bne.n	23f70 <_ZN20complex_dynamic_type3app17h7db99cc50173374eE+0x78>
   23f52:	2001      	movs	r0, #1
   23f54:	7028      	strb	r0, [r5, #0]
   23f56:	6069      	str	r1, [r5, #4]
   23f58:	a818      	add	r0, sp, #96	@ 0x60
   23f5a:	7800      	ldrb	r0, [r0, #0]
   23f5c:	2802      	cmp	r0, #2
   23f5e:	d019      	beq.n	23f94 <_ZN20complex_dynamic_type3app17h7db99cc50173374eE+0x9c>
   23f60:	2803      	cmp	r0, #3
   23f62:	d012      	beq.n	23f8a <_ZN20complex_dynamic_type3app17h7db99cc50173374eE+0x92>
   23f64:	4839      	ldr	r0, [pc, #228]	@ (2404c <_ZN20complex_dynamic_type3app17h7db99cc50173374eE+0x154>)
   23f66:	2104      	movs	r1, #4
   23f68:	2200      	movs	r2, #0
   23f6a:	4613      	mov	r3, r2
   23f6c:	df04      	svc	4
   23f6e:	e011      	b.n	23f94 <_ZN20complex_dynamic_type3app17h7db99cc50173374eE+0x9c>
   23f70:	a818      	add	r0, sp, #96	@ 0x60
   23f72:	7006      	strb	r6, [r0, #0]
   23f74:	4835      	ldr	r0, [pc, #212]	@ (2404c <_ZN20complex_dynamic_type3app17h7db99cc50173374eE+0x154>)
   23f76:	2204      	movs	r2, #4
   23f78:	2300      	movs	r3, #0
   23f7a:	4631      	mov	r1, r6
   23f7c:	9303      	str	r3, [sp, #12]
   23f7e:	df02      	svc	2
   23f80:	2880      	cmp	r0, #128	@ 0x80
   23f82:	d21b      	bcs.n	23fbc <_ZN20complex_dynamic_type3app17h7db99cc50173374eE+0xc4>
   23f84:	2001      	movs	r0, #1
   23f86:	7028      	strb	r0, [r5, #0]
   23f88:	6069      	str	r1, [r5, #4]
   23f8a:	4830      	ldr	r0, [pc, #192]	@ (2404c <_ZN20complex_dynamic_type3app17h7db99cc50173374eE+0x154>)
   23f8c:	2104      	movs	r1, #4
   23f8e:	2200      	movs	r2, #0
   23f90:	4613      	mov	r3, r2
   23f92:	df03      	svc	3
   23f94:	a805      	add	r0, sp, #20
   23f96:	7800      	ldrb	r0, [r0, #0]
   23f98:	2802      	cmp	r0, #2
   23f9a:	d048      	beq.n	2402e <_ZN20complex_dynamic_type3app17h7db99cc50173374eE+0x136>
   23f9c:	2804      	cmp	r0, #4
   23f9e:	d106      	bne.n	23fae <_ZN20complex_dynamic_type3app17h7db99cc50173374eE+0xb6>
   23fa0:	482a      	ldr	r0, [pc, #168]	@ (2404c <_ZN20complex_dynamic_type3app17h7db99cc50173374eE+0x154>)
   23fa2:	2103      	movs	r1, #3
   23fa4:	2200      	movs	r2, #0
   23fa6:	4613      	mov	r3, r2
   23fa8:	df04      	svc	4
   23faa:	b023      	add	sp, #140	@ 0x8c
   23fac:	bdf0      	pop	{r4, r5, r6, r7, pc}
   23fae:	4827      	ldr	r0, [pc, #156]	@ (2404c <_ZN20complex_dynamic_type3app17h7db99cc50173374eE+0x154>)
   23fb0:	2103      	movs	r1, #3
   23fb2:	2200      	movs	r2, #0
   23fb4:	4613      	mov	r3, r2
   23fb6:	df03      	svc	3
   23fb8:	b023      	add	sp, #140	@ 0x8c
   23fba:	bdf0      	pop	{r4, r5, r6, r7, pc}
   23fbc:	a805      	add	r0, sp, #20
   23fbe:	7800      	ldrb	r0, [r0, #0]
   23fc0:	2802      	cmp	r0, #2
   23fc2:	d00c      	beq.n	23fde <_ZN20complex_dynamic_type3app17h7db99cc50173374eE+0xe6>
   23fc4:	2803      	cmp	r0, #3
   23fc6:	d105      	bne.n	23fd4 <_ZN20complex_dynamic_type3app17h7db99cc50173374eE+0xdc>
   23fc8:	4820      	ldr	r0, [pc, #128]	@ (2404c <_ZN20complex_dynamic_type3app17h7db99cc50173374eE+0x154>)
   23fca:	2103      	movs	r1, #3
   23fcc:	2200      	movs	r2, #0
   23fce:	4613      	mov	r3, r2
   23fd0:	df03      	svc	3
   23fd2:	e004      	b.n	23fde <_ZN20complex_dynamic_type3app17h7db99cc50173374eE+0xe6>
   23fd4:	481d      	ldr	r0, [pc, #116]	@ (2404c <_ZN20complex_dynamic_type3app17h7db99cc50173374eE+0x154>)
   23fd6:	2103      	movs	r1, #3
   23fd8:	2200      	movs	r2, #0
   23fda:	4613      	mov	r3, r2
   23fdc:	df04      	svc	4
   23fde:	a805      	add	r0, sp, #20
   23fe0:	9901      	ldr	r1, [sp, #4]
   23fe2:	7001      	strb	r1, [r0, #0]
   23fe4:	a818      	add	r0, sp, #96	@ 0x60
   23fe6:	7800      	ldrb	r0, [r0, #0]
   23fe8:	2804      	cmp	r0, #4
   23fea:	d008      	beq.n	23ffe <_ZN20complex_dynamic_type3app17h7db99cc50173374eE+0x106>
   23fec:	2803      	cmp	r0, #3
   23fee:	d120      	bne.n	24032 <_ZN20complex_dynamic_type3app17h7db99cc50173374eE+0x13a>
   23ff0:	4626      	mov	r6, r4
   23ff2:	4816      	ldr	r0, [pc, #88]	@ (2404c <_ZN20complex_dynamic_type3app17h7db99cc50173374eE+0x154>)
   23ff4:	2104      	movs	r1, #4
   23ff6:	2200      	movs	r2, #0
   23ff8:	4613      	mov	r3, r2
   23ffa:	df03      	svc	3
   23ffc:	e005      	b.n	2400a <_ZN20complex_dynamic_type3app17h7db99cc50173374eE+0x112>
   23ffe:	4626      	mov	r6, r4
   24000:	4812      	ldr	r0, [pc, #72]	@ (2404c <_ZN20complex_dynamic_type3app17h7db99cc50173374eE+0x154>)
   24002:	2104      	movs	r1, #4
   24004:	2200      	movs	r2, #0
   24006:	4613      	mov	r3, r2
   24008:	df04      	svc	4
   2400a:	a805      	add	r0, sp, #20
   2400c:	7804      	ldrb	r4, [r0, #0]
   2400e:	1c68      	adds	r0, r5, #1
   24010:	2229      	movs	r2, #41	@ 0x29
   24012:	4631      	mov	r1, r6
   24014:	f007 f878 	bl	2b108 <__aeabi_memcpy>
   24018:	9803      	ldr	r0, [sp, #12]
   2401a:	7028      	strb	r0, [r5, #0]
   2401c:	2c02      	cmp	r4, #2
   2401e:	d006      	beq.n	2402e <_ZN20complex_dynamic_type3app17h7db99cc50173374eE+0x136>
   24020:	480a      	ldr	r0, [pc, #40]	@ (2404c <_ZN20complex_dynamic_type3app17h7db99cc50173374eE+0x154>)
   24022:	2103      	movs	r1, #3
   24024:	2200      	movs	r2, #0
   24026:	4613      	mov	r3, r2
   24028:	2c04      	cmp	r4, #4
   2402a:	d10b      	bne.n	24044 <_ZN20complex_dynamic_type3app17h7db99cc50173374eE+0x14c>
   2402c:	df04      	svc	4
   2402e:	b023      	add	sp, #140	@ 0x8c
   24030:	bdf0      	pop	{r4, r5, r6, r7, pc}
   24032:	1c68      	adds	r0, r5, #1
   24034:	2229      	movs	r2, #41	@ 0x29
   24036:	4621      	mov	r1, r4
   24038:	f007 f866 	bl	2b108 <__aeabi_memcpy>
   2403c:	9803      	ldr	r0, [sp, #12]
   2403e:	7028      	strb	r0, [r5, #0]
   24040:	b023      	add	sp, #140	@ 0x8c
   24042:	bdf0      	pop	{r4, r5, r6, r7, pc}
   24044:	df03      	svc	3
   24046:	b023      	add	sp, #140	@ 0x8c
   24048:	bdf0      	pop	{r4, r5, r6, r7, pc}
   2404a:	46c0      	nop			@ (mov r8, r8)
   2404c:	000026a4 	.word	0x000026a4

00024050 <_ZN20complex_dynamic_type3app17h7e206a4f557ce007E>:
   24050:	b5f0      	push	{r4, r5, r6, r7, lr}
   24052:	af03      	add	r7, sp, #12
   24054:	b095      	sub	sp, #84	@ 0x54
   24056:	9003      	str	r0, [sp, #12]
   24058:	a804      	add	r0, sp, #16
   2405a:	2402      	movs	r4, #2
   2405c:	7004      	strb	r4, [r0, #0]
   2405e:	1c46      	adds	r6, r0, #1
   24060:	221e      	movs	r2, #30
   24062:	9202      	str	r2, [sp, #8]
   24064:	4630      	mov	r0, r6
   24066:	f007 f84f 	bl	2b108 <__aeabi_memcpy>
   2406a:	ad0c      	add	r5, sp, #48	@ 0x30
   2406c:	1c68      	adds	r0, r5, #1
   2406e:	2121      	movs	r1, #33	@ 0x21
   24070:	9001      	str	r0, [sp, #4]
   24072:	f006 fe89 	bl	2ad88 <__aeabi_memclr>
   24076:	9400      	str	r4, [sp, #0]
   24078:	702c      	strb	r4, [r5, #0]
   2407a:	4848      	ldr	r0, [pc, #288]	@ (2419c <_ZN20complex_dynamic_type3app17h7e206a4f557ce007E+0x14c>)
   2407c:	2106      	movs	r1, #6
   2407e:	4632      	mov	r2, r6
   24080:	9b02      	ldr	r3, [sp, #8]
   24082:	df04      	svc	4
   24084:	2802      	cmp	r0, #2
   24086:	d104      	bne.n	24092 <_ZN20complex_dynamic_type3app17h7e206a4f557ce007E+0x42>
   24088:	2001      	movs	r0, #1
   2408a:	9a03      	ldr	r2, [sp, #12]
   2408c:	7010      	strb	r0, [r2, #0]
   2408e:	6051      	str	r1, [r2, #4]
   24090:	e02d      	b.n	240ee <_ZN20complex_dynamic_type3app17h7e206a4f557ce007E+0x9e>
   24092:	9d03      	ldr	r5, [sp, #12]
   24094:	a804      	add	r0, sp, #16
   24096:	2104      	movs	r1, #4
   24098:	7001      	strb	r1, [r0, #0]
   2409a:	4840      	ldr	r0, [pc, #256]	@ (2419c <_ZN20complex_dynamic_type3app17h7e206a4f557ce007E+0x14c>)
   2409c:	2109      	movs	r1, #9
   2409e:	2321      	movs	r3, #33	@ 0x21
   240a0:	9c01      	ldr	r4, [sp, #4]
   240a2:	4622      	mov	r2, r4
   240a4:	df03      	svc	3
   240a6:	2802      	cmp	r0, #2
   240a8:	d10e      	bne.n	240c8 <_ZN20complex_dynamic_type3app17h7e206a4f557ce007E+0x78>
   240aa:	2001      	movs	r0, #1
   240ac:	7028      	strb	r0, [r5, #0]
   240ae:	6069      	str	r1, [r5, #4]
   240b0:	a80c      	add	r0, sp, #48	@ 0x30
   240b2:	7800      	ldrb	r0, [r0, #0]
   240b4:	2802      	cmp	r0, #2
   240b6:	d01a      	beq.n	240ee <_ZN20complex_dynamic_type3app17h7e206a4f557ce007E+0x9e>
   240b8:	2803      	cmp	r0, #3
   240ba:	d013      	beq.n	240e4 <_ZN20complex_dynamic_type3app17h7e206a4f557ce007E+0x94>
   240bc:	4837      	ldr	r0, [pc, #220]	@ (2419c <_ZN20complex_dynamic_type3app17h7e206a4f557ce007E+0x14c>)
   240be:	2109      	movs	r1, #9
   240c0:	2200      	movs	r2, #0
   240c2:	4613      	mov	r3, r2
   240c4:	df04      	svc	4
   240c6:	e012      	b.n	240ee <_ZN20complex_dynamic_type3app17h7e206a4f557ce007E+0x9e>
   240c8:	a80c      	add	r0, sp, #48	@ 0x30
   240ca:	2103      	movs	r1, #3
   240cc:	7001      	strb	r1, [r0, #0]
   240ce:	4833      	ldr	r0, [pc, #204]	@ (2419c <_ZN20complex_dynamic_type3app17h7e206a4f557ce007E+0x14c>)
   240d0:	2106      	movs	r1, #6
   240d2:	2209      	movs	r2, #9
   240d4:	2600      	movs	r6, #0
   240d6:	4633      	mov	r3, r6
   240d8:	df02      	svc	2
   240da:	2880      	cmp	r0, #128	@ 0x80
   240dc:	d21b      	bcs.n	24116 <_ZN20complex_dynamic_type3app17h7e206a4f557ce007E+0xc6>
   240de:	2001      	movs	r0, #1
   240e0:	7028      	strb	r0, [r5, #0]
   240e2:	6069      	str	r1, [r5, #4]
   240e4:	482d      	ldr	r0, [pc, #180]	@ (2419c <_ZN20complex_dynamic_type3app17h7e206a4f557ce007E+0x14c>)
   240e6:	2109      	movs	r1, #9
   240e8:	2200      	movs	r2, #0
   240ea:	4613      	mov	r3, r2
   240ec:	df03      	svc	3
   240ee:	a804      	add	r0, sp, #16
   240f0:	7800      	ldrb	r0, [r0, #0]
   240f2:	2802      	cmp	r0, #2
   240f4:	d045      	beq.n	24182 <_ZN20complex_dynamic_type3app17h7e206a4f557ce007E+0x132>
   240f6:	2804      	cmp	r0, #4
   240f8:	d106      	bne.n	24108 <_ZN20complex_dynamic_type3app17h7e206a4f557ce007E+0xb8>
   240fa:	4828      	ldr	r0, [pc, #160]	@ (2419c <_ZN20complex_dynamic_type3app17h7e206a4f557ce007E+0x14c>)
   240fc:	2106      	movs	r1, #6
   240fe:	2200      	movs	r2, #0
   24100:	4613      	mov	r3, r2
   24102:	df04      	svc	4
   24104:	b015      	add	sp, #84	@ 0x54
   24106:	bdf0      	pop	{r4, r5, r6, r7, pc}
   24108:	4824      	ldr	r0, [pc, #144]	@ (2419c <_ZN20complex_dynamic_type3app17h7e206a4f557ce007E+0x14c>)
   2410a:	2106      	movs	r1, #6
   2410c:	2200      	movs	r2, #0
   2410e:	4613      	mov	r3, r2
   24110:	df03      	svc	3
   24112:	b015      	add	sp, #84	@ 0x54
   24114:	bdf0      	pop	{r4, r5, r6, r7, pc}
   24116:	a804      	add	r0, sp, #16
   24118:	7800      	ldrb	r0, [r0, #0]
   2411a:	2802      	cmp	r0, #2
   2411c:	d00c      	beq.n	24138 <_ZN20complex_dynamic_type3app17h7e206a4f557ce007E+0xe8>
   2411e:	2803      	cmp	r0, #3
   24120:	d105      	bne.n	2412e <_ZN20complex_dynamic_type3app17h7e206a4f557ce007E+0xde>
   24122:	481e      	ldr	r0, [pc, #120]	@ (2419c <_ZN20complex_dynamic_type3app17h7e206a4f557ce007E+0x14c>)
   24124:	2106      	movs	r1, #6
   24126:	2200      	movs	r2, #0
   24128:	4613      	mov	r3, r2
   2412a:	df03      	svc	3
   2412c:	e004      	b.n	24138 <_ZN20complex_dynamic_type3app17h7e206a4f557ce007E+0xe8>
   2412e:	481b      	ldr	r0, [pc, #108]	@ (2419c <_ZN20complex_dynamic_type3app17h7e206a4f557ce007E+0x14c>)
   24130:	2106      	movs	r1, #6
   24132:	2200      	movs	r2, #0
   24134:	4613      	mov	r3, r2
   24136:	df04      	svc	4
   24138:	a804      	add	r0, sp, #16
   2413a:	9900      	ldr	r1, [sp, #0]
   2413c:	7001      	strb	r1, [r0, #0]
   2413e:	a80c      	add	r0, sp, #48	@ 0x30
   24140:	7800      	ldrb	r0, [r0, #0]
   24142:	2804      	cmp	r0, #4
   24144:	d007      	beq.n	24156 <_ZN20complex_dynamic_type3app17h7e206a4f557ce007E+0x106>
   24146:	2803      	cmp	r0, #3
   24148:	d11d      	bne.n	24186 <_ZN20complex_dynamic_type3app17h7e206a4f557ce007E+0x136>
   2414a:	4814      	ldr	r0, [pc, #80]	@ (2419c <_ZN20complex_dynamic_type3app17h7e206a4f557ce007E+0x14c>)
   2414c:	2109      	movs	r1, #9
   2414e:	2200      	movs	r2, #0
   24150:	4613      	mov	r3, r2
   24152:	df03      	svc	3
   24154:	e004      	b.n	24160 <_ZN20complex_dynamic_type3app17h7e206a4f557ce007E+0x110>
   24156:	4811      	ldr	r0, [pc, #68]	@ (2419c <_ZN20complex_dynamic_type3app17h7e206a4f557ce007E+0x14c>)
   24158:	2109      	movs	r1, #9
   2415a:	2200      	movs	r2, #0
   2415c:	4613      	mov	r3, r2
   2415e:	df04      	svc	4
   24160:	a804      	add	r0, sp, #16
   24162:	7804      	ldrb	r4, [r0, #0]
   24164:	1c68      	adds	r0, r5, #1
   24166:	2221      	movs	r2, #33	@ 0x21
   24168:	9901      	ldr	r1, [sp, #4]
   2416a:	f006 ffcd 	bl	2b108 <__aeabi_memcpy>
   2416e:	702e      	strb	r6, [r5, #0]
   24170:	2c02      	cmp	r4, #2
   24172:	d006      	beq.n	24182 <_ZN20complex_dynamic_type3app17h7e206a4f557ce007E+0x132>
   24174:	4809      	ldr	r0, [pc, #36]	@ (2419c <_ZN20complex_dynamic_type3app17h7e206a4f557ce007E+0x14c>)
   24176:	2106      	movs	r1, #6
   24178:	2200      	movs	r2, #0
   2417a:	4613      	mov	r3, r2
   2417c:	2c04      	cmp	r4, #4
   2417e:	d10a      	bne.n	24196 <_ZN20complex_dynamic_type3app17h7e206a4f557ce007E+0x146>
   24180:	df04      	svc	4
   24182:	b015      	add	sp, #84	@ 0x54
   24184:	bdf0      	pop	{r4, r5, r6, r7, pc}
   24186:	1c68      	adds	r0, r5, #1
   24188:	2221      	movs	r2, #33	@ 0x21
   2418a:	4621      	mov	r1, r4
   2418c:	f006 ffbc 	bl	2b108 <__aeabi_memcpy>
   24190:	702e      	strb	r6, [r5, #0]
   24192:	b015      	add	sp, #84	@ 0x54
   24194:	bdf0      	pop	{r4, r5, r6, r7, pc}
   24196:	df03      	svc	3
   24198:	b015      	add	sp, #84	@ 0x54
   2419a:	bdf0      	pop	{r4, r5, r6, r7, pc}
   2419c:	000019b5 	.word	0x000019b5

000241a0 <_ZN20complex_dynamic_type3app17h80df791d8b651177E>:
   241a0:	b5f0      	push	{r4, r5, r6, r7, lr}
   241a2:	af03      	add	r7, sp, #12
   241a4:	b099      	sub	sp, #100	@ 0x64
   241a6:	9003      	str	r0, [sp, #12]
   241a8:	a804      	add	r0, sp, #16
   241aa:	2502      	movs	r5, #2
   241ac:	7005      	strb	r5, [r0, #0]
   241ae:	1c40      	adds	r0, r0, #1
   241b0:	9002      	str	r0, [sp, #8]
   241b2:	2611      	movs	r6, #17
   241b4:	4632      	mov	r2, r6
   241b6:	f006 ffa7 	bl	2b108 <__aeabi_memcpy>
   241ba:	ac09      	add	r4, sp, #36	@ 0x24
   241bc:	1c60      	adds	r0, r4, #1
   241be:	213f      	movs	r1, #63	@ 0x3f
   241c0:	9001      	str	r0, [sp, #4]
   241c2:	f006 fde1 	bl	2ad88 <__aeabi_memclr>
   241c6:	9500      	str	r5, [sp, #0]
   241c8:	7025      	strb	r5, [r4, #0]
   241ca:	20cb      	movs	r0, #203	@ 0xcb
   241cc:	0104      	lsls	r4, r0, #4
   241ce:	2107      	movs	r1, #7
   241d0:	4620      	mov	r0, r4
   241d2:	9a02      	ldr	r2, [sp, #8]
   241d4:	4633      	mov	r3, r6
   241d6:	df04      	svc	4
   241d8:	2802      	cmp	r0, #2
   241da:	d104      	bne.n	241e6 <_ZN20complex_dynamic_type3app17h80df791d8b651177E+0x46>
   241dc:	2001      	movs	r0, #1
   241de:	9a03      	ldr	r2, [sp, #12]
   241e0:	7010      	strb	r0, [r2, #0]
   241e2:	6051      	str	r1, [r2, #4]
   241e4:	e02c      	b.n	24240 <_ZN20complex_dynamic_type3app17h80df791d8b651177E+0xa0>
   241e6:	9e03      	ldr	r6, [sp, #12]
   241e8:	a804      	add	r0, sp, #16
   241ea:	2104      	movs	r1, #4
   241ec:	7001      	strb	r1, [r0, #0]
   241ee:	233f      	movs	r3, #63	@ 0x3f
   241f0:	4620      	mov	r0, r4
   241f2:	9d01      	ldr	r5, [sp, #4]
   241f4:	462a      	mov	r2, r5
   241f6:	df03      	svc	3
   241f8:	2802      	cmp	r0, #2
   241fa:	d10e      	bne.n	2421a <_ZN20complex_dynamic_type3app17h80df791d8b651177E+0x7a>
   241fc:	2001      	movs	r0, #1
   241fe:	7030      	strb	r0, [r6, #0]
   24200:	6071      	str	r1, [r6, #4]
   24202:	a809      	add	r0, sp, #36	@ 0x24
   24204:	7800      	ldrb	r0, [r0, #0]
   24206:	2802      	cmp	r0, #2
   24208:	d01a      	beq.n	24240 <_ZN20complex_dynamic_type3app17h80df791d8b651177E+0xa0>
   2420a:	2803      	cmp	r0, #3
   2420c:	d013      	beq.n	24236 <_ZN20complex_dynamic_type3app17h80df791d8b651177E+0x96>
   2420e:	2104      	movs	r1, #4
   24210:	2200      	movs	r2, #0
   24212:	4620      	mov	r0, r4
   24214:	4613      	mov	r3, r2
   24216:	df04      	svc	4
   24218:	e012      	b.n	24240 <_ZN20complex_dynamic_type3app17h80df791d8b651177E+0xa0>
   2421a:	a809      	add	r0, sp, #36	@ 0x24
   2421c:	2103      	movs	r1, #3
   2421e:	7001      	strb	r1, [r0, #0]
   24220:	2107      	movs	r1, #7
   24222:	2204      	movs	r2, #4
   24224:	2300      	movs	r3, #0
   24226:	4620      	mov	r0, r4
   24228:	9302      	str	r3, [sp, #8]
   2422a:	df02      	svc	2
   2422c:	2880      	cmp	r0, #128	@ 0x80
   2422e:	d219      	bcs.n	24264 <_ZN20complex_dynamic_type3app17h80df791d8b651177E+0xc4>
   24230:	2001      	movs	r0, #1
   24232:	7030      	strb	r0, [r6, #0]
   24234:	6071      	str	r1, [r6, #4]
   24236:	2104      	movs	r1, #4
   24238:	2200      	movs	r2, #0
   2423a:	4620      	mov	r0, r4
   2423c:	4613      	mov	r3, r2
   2423e:	df03      	svc	3
   24240:	a804      	add	r0, sp, #16
   24242:	7800      	ldrb	r0, [r0, #0]
   24244:	2802      	cmp	r0, #2
   24246:	d044      	beq.n	242d2 <_ZN20complex_dynamic_type3app17h80df791d8b651177E+0x132>
   24248:	2107      	movs	r1, #7
   2424a:	2200      	movs	r2, #0
   2424c:	2804      	cmp	r0, #4
   2424e:	d104      	bne.n	2425a <_ZN20complex_dynamic_type3app17h80df791d8b651177E+0xba>
   24250:	4620      	mov	r0, r4
   24252:	4613      	mov	r3, r2
   24254:	df04      	svc	4
   24256:	b019      	add	sp, #100	@ 0x64
   24258:	bdf0      	pop	{r4, r5, r6, r7, pc}
   2425a:	4620      	mov	r0, r4
   2425c:	4613      	mov	r3, r2
   2425e:	df03      	svc	3
   24260:	b019      	add	sp, #100	@ 0x64
   24262:	bdf0      	pop	{r4, r5, r6, r7, pc}
   24264:	a804      	add	r0, sp, #16
   24266:	7800      	ldrb	r0, [r0, #0]
   24268:	2802      	cmp	r0, #2
   2426a:	d00a      	beq.n	24282 <_ZN20complex_dynamic_type3app17h80df791d8b651177E+0xe2>
   2426c:	2107      	movs	r1, #7
   2426e:	2200      	movs	r2, #0
   24270:	2803      	cmp	r0, #3
   24272:	d103      	bne.n	2427c <_ZN20complex_dynamic_type3app17h80df791d8b651177E+0xdc>
   24274:	4620      	mov	r0, r4
   24276:	4613      	mov	r3, r2
   24278:	df03      	svc	3
   2427a:	e002      	b.n	24282 <_ZN20complex_dynamic_type3app17h80df791d8b651177E+0xe2>
   2427c:	4620      	mov	r0, r4
   2427e:	4613      	mov	r3, r2
   24280:	df04      	svc	4
   24282:	a804      	add	r0, sp, #16
   24284:	9900      	ldr	r1, [sp, #0]
   24286:	7001      	strb	r1, [r0, #0]
   24288:	a809      	add	r0, sp, #36	@ 0x24
   2428a:	7800      	ldrb	r0, [r0, #0]
   2428c:	2804      	cmp	r0, #4
   2428e:	d008      	beq.n	242a2 <_ZN20complex_dynamic_type3app17h80df791d8b651177E+0x102>
   24290:	2803      	cmp	r0, #3
   24292:	d120      	bne.n	242d6 <_ZN20complex_dynamic_type3app17h80df791d8b651177E+0x136>
   24294:	2104      	movs	r1, #4
   24296:	2200      	movs	r2, #0
   24298:	9400      	str	r4, [sp, #0]
   2429a:	4620      	mov	r0, r4
   2429c:	4613      	mov	r3, r2
   2429e:	df03      	svc	3
   242a0:	e005      	b.n	242ae <_ZN20complex_dynamic_type3app17h80df791d8b651177E+0x10e>
   242a2:	2104      	movs	r1, #4
   242a4:	2200      	movs	r2, #0
   242a6:	9400      	str	r4, [sp, #0]
   242a8:	4620      	mov	r0, r4
   242aa:	4613      	mov	r3, r2
   242ac:	df04      	svc	4
   242ae:	a804      	add	r0, sp, #16
   242b0:	7804      	ldrb	r4, [r0, #0]
   242b2:	1c70      	adds	r0, r6, #1
   242b4:	223f      	movs	r2, #63	@ 0x3f
   242b6:	4629      	mov	r1, r5
   242b8:	f006 ff26 	bl	2b108 <__aeabi_memcpy>
   242bc:	9802      	ldr	r0, [sp, #8]
   242be:	7030      	strb	r0, [r6, #0]
   242c0:	2c02      	cmp	r4, #2
   242c2:	d006      	beq.n	242d2 <_ZN20complex_dynamic_type3app17h80df791d8b651177E+0x132>
   242c4:	2c04      	cmp	r4, #4
   242c6:	d10f      	bne.n	242e8 <_ZN20complex_dynamic_type3app17h80df791d8b651177E+0x148>
   242c8:	2107      	movs	r1, #7
   242ca:	2200      	movs	r2, #0
   242cc:	9800      	ldr	r0, [sp, #0]
   242ce:	4613      	mov	r3, r2
   242d0:	df04      	svc	4
   242d2:	b019      	add	sp, #100	@ 0x64
   242d4:	bdf0      	pop	{r4, r5, r6, r7, pc}
   242d6:	1c70      	adds	r0, r6, #1
   242d8:	223f      	movs	r2, #63	@ 0x3f
   242da:	4629      	mov	r1, r5
   242dc:	f006 ff14 	bl	2b108 <__aeabi_memcpy>
   242e0:	9802      	ldr	r0, [sp, #8]
   242e2:	7030      	strb	r0, [r6, #0]
   242e4:	b019      	add	sp, #100	@ 0x64
   242e6:	bdf0      	pop	{r4, r5, r6, r7, pc}
   242e8:	9800      	ldr	r0, [sp, #0]
   242ea:	2107      	movs	r1, #7
   242ec:	2200      	movs	r2, #0
   242ee:	4613      	mov	r3, r2
   242f0:	df03      	svc	3
   242f2:	b019      	add	sp, #100	@ 0x64
   242f4:	bdf0      	pop	{r4, r5, r6, r7, pc}
   242f6:	d4d4      	bmi.n	242a2 <_ZN20complex_dynamic_type3app17h80df791d8b651177E+0x102>

000242f8 <_ZN20complex_dynamic_type3app17h88764f7a46f2c657E>:
   242f8:	b5f0      	push	{r4, r5, r6, r7, lr}
   242fa:	af03      	add	r7, sp, #12
   242fc:	b0a1      	sub	sp, #132	@ 0x84
   242fe:	9004      	str	r0, [sp, #16]
   24300:	a805      	add	r0, sp, #20
   24302:	2402      	movs	r4, #2
   24304:	7004      	strb	r4, [r0, #0]
   24306:	1c46      	adds	r6, r0, #1
   24308:	2249      	movs	r2, #73	@ 0x49
   2430a:	9203      	str	r2, [sp, #12]
   2430c:	4630      	mov	r0, r6
   2430e:	f006 fefb 	bl	2b108 <__aeabi_memcpy>
   24312:	ad18      	add	r5, sp, #96	@ 0x60
   24314:	1c68      	adds	r0, r5, #1
   24316:	2123      	movs	r1, #35	@ 0x23
   24318:	9002      	str	r0, [sp, #8]
   2431a:	f006 fd35 	bl	2ad88 <__aeabi_memclr>
   2431e:	9401      	str	r4, [sp, #4]
   24320:	702c      	strb	r4, [r5, #0]
   24322:	4848      	ldr	r0, [pc, #288]	@ (24444 <_ZN20complex_dynamic_type3app17h88764f7a46f2c657E+0x14c>)
   24324:	2107      	movs	r1, #7
   24326:	4632      	mov	r2, r6
   24328:	9b03      	ldr	r3, [sp, #12]
   2432a:	df04      	svc	4
   2432c:	2802      	cmp	r0, #2
   2432e:	d104      	bne.n	2433a <_ZN20complex_dynamic_type3app17h88764f7a46f2c657E+0x42>
   24330:	2001      	movs	r0, #1
   24332:	9a04      	ldr	r2, [sp, #16]
   24334:	7010      	strb	r0, [r2, #0]
   24336:	6051      	str	r1, [r2, #4]
   24338:	e02c      	b.n	24394 <_ZN20complex_dynamic_type3app17h88764f7a46f2c657E+0x9c>
   2433a:	9d04      	ldr	r5, [sp, #16]
   2433c:	a805      	add	r0, sp, #20
   2433e:	2104      	movs	r1, #4
   24340:	7001      	strb	r1, [r0, #0]
   24342:	4840      	ldr	r0, [pc, #256]	@ (24444 <_ZN20complex_dynamic_type3app17h88764f7a46f2c657E+0x14c>)
   24344:	2401      	movs	r4, #1
   24346:	2323      	movs	r3, #35	@ 0x23
   24348:	4621      	mov	r1, r4
   2434a:	9a02      	ldr	r2, [sp, #8]
   2434c:	df03      	svc	3
   2434e:	2802      	cmp	r0, #2
   24350:	d10d      	bne.n	2436e <_ZN20complex_dynamic_type3app17h88764f7a46f2c657E+0x76>
   24352:	702c      	strb	r4, [r5, #0]
   24354:	6069      	str	r1, [r5, #4]
   24356:	a818      	add	r0, sp, #96	@ 0x60
   24358:	7800      	ldrb	r0, [r0, #0]
   2435a:	2802      	cmp	r0, #2
   2435c:	d01a      	beq.n	24394 <_ZN20complex_dynamic_type3app17h88764f7a46f2c657E+0x9c>
   2435e:	2803      	cmp	r0, #3
   24360:	d013      	beq.n	2438a <_ZN20complex_dynamic_type3app17h88764f7a46f2c657E+0x92>
   24362:	4838      	ldr	r0, [pc, #224]	@ (24444 <_ZN20complex_dynamic_type3app17h88764f7a46f2c657E+0x14c>)
   24364:	2101      	movs	r1, #1
   24366:	2200      	movs	r2, #0
   24368:	4613      	mov	r3, r2
   2436a:	df04      	svc	4
   2436c:	e012      	b.n	24394 <_ZN20complex_dynamic_type3app17h88764f7a46f2c657E+0x9c>
   2436e:	a818      	add	r0, sp, #96	@ 0x60
   24370:	2103      	movs	r1, #3
   24372:	7001      	strb	r1, [r0, #0]
   24374:	4833      	ldr	r0, [pc, #204]	@ (24444 <_ZN20complex_dynamic_type3app17h88764f7a46f2c657E+0x14c>)
   24376:	2107      	movs	r1, #7
   24378:	2401      	movs	r4, #1
   2437a:	2600      	movs	r6, #0
   2437c:	4622      	mov	r2, r4
   2437e:	4633      	mov	r3, r6
   24380:	df02      	svc	2
   24382:	2880      	cmp	r0, #128	@ 0x80
   24384:	d21a      	bcs.n	243bc <_ZN20complex_dynamic_type3app17h88764f7a46f2c657E+0xc4>
   24386:	702c      	strb	r4, [r5, #0]
   24388:	6069      	str	r1, [r5, #4]
   2438a:	482e      	ldr	r0, [pc, #184]	@ (24444 <_ZN20complex_dynamic_type3app17h88764f7a46f2c657E+0x14c>)
   2438c:	2101      	movs	r1, #1
   2438e:	2200      	movs	r2, #0
   24390:	4613      	mov	r3, r2
   24392:	df03      	svc	3
   24394:	a805      	add	r0, sp, #20
   24396:	7800      	ldrb	r0, [r0, #0]
   24398:	2802      	cmp	r0, #2
   2439a:	d045      	beq.n	24428 <_ZN20complex_dynamic_type3app17h88764f7a46f2c657E+0x130>
   2439c:	2804      	cmp	r0, #4
   2439e:	d106      	bne.n	243ae <_ZN20complex_dynamic_type3app17h88764f7a46f2c657E+0xb6>
   243a0:	4828      	ldr	r0, [pc, #160]	@ (24444 <_ZN20complex_dynamic_type3app17h88764f7a46f2c657E+0x14c>)
   243a2:	2107      	movs	r1, #7
   243a4:	2200      	movs	r2, #0
   243a6:	4613      	mov	r3, r2
   243a8:	df04      	svc	4
   243aa:	b021      	add	sp, #132	@ 0x84
   243ac:	bdf0      	pop	{r4, r5, r6, r7, pc}
   243ae:	4825      	ldr	r0, [pc, #148]	@ (24444 <_ZN20complex_dynamic_type3app17h88764f7a46f2c657E+0x14c>)
   243b0:	2107      	movs	r1, #7
   243b2:	2200      	movs	r2, #0
   243b4:	4613      	mov	r3, r2
   243b6:	df03      	svc	3
   243b8:	b021      	add	sp, #132	@ 0x84
   243ba:	bdf0      	pop	{r4, r5, r6, r7, pc}
   243bc:	a805      	add	r0, sp, #20
   243be:	7800      	ldrb	r0, [r0, #0]
   243c0:	2802      	cmp	r0, #2
   243c2:	d00c      	beq.n	243de <_ZN20complex_dynamic_type3app17h88764f7a46f2c657E+0xe6>
   243c4:	2803      	cmp	r0, #3
   243c6:	d105      	bne.n	243d4 <_ZN20complex_dynamic_type3app17h88764f7a46f2c657E+0xdc>
   243c8:	481e      	ldr	r0, [pc, #120]	@ (24444 <_ZN20complex_dynamic_type3app17h88764f7a46f2c657E+0x14c>)
   243ca:	2107      	movs	r1, #7
   243cc:	2200      	movs	r2, #0
   243ce:	4613      	mov	r3, r2
   243d0:	df03      	svc	3
   243d2:	e004      	b.n	243de <_ZN20complex_dynamic_type3app17h88764f7a46f2c657E+0xe6>
   243d4:	481b      	ldr	r0, [pc, #108]	@ (24444 <_ZN20complex_dynamic_type3app17h88764f7a46f2c657E+0x14c>)
   243d6:	2107      	movs	r1, #7
   243d8:	2200      	movs	r2, #0
   243da:	4613      	mov	r3, r2
   243dc:	df04      	svc	4
   243de:	a805      	add	r0, sp, #20
   243e0:	9901      	ldr	r1, [sp, #4]
   243e2:	7001      	strb	r1, [r0, #0]
   243e4:	a818      	add	r0, sp, #96	@ 0x60
   243e6:	7800      	ldrb	r0, [r0, #0]
   243e8:	2804      	cmp	r0, #4
   243ea:	d007      	beq.n	243fc <_ZN20complex_dynamic_type3app17h88764f7a46f2c657E+0x104>
   243ec:	2803      	cmp	r0, #3
   243ee:	d11d      	bne.n	2442c <_ZN20complex_dynamic_type3app17h88764f7a46f2c657E+0x134>
   243f0:	4814      	ldr	r0, [pc, #80]	@ (24444 <_ZN20complex_dynamic_type3app17h88764f7a46f2c657E+0x14c>)
   243f2:	2101      	movs	r1, #1
   243f4:	2200      	movs	r2, #0
   243f6:	4613      	mov	r3, r2
   243f8:	df03      	svc	3
   243fa:	e004      	b.n	24406 <_ZN20complex_dynamic_type3app17h88764f7a46f2c657E+0x10e>
   243fc:	4811      	ldr	r0, [pc, #68]	@ (24444 <_ZN20complex_dynamic_type3app17h88764f7a46f2c657E+0x14c>)
   243fe:	2101      	movs	r1, #1
   24400:	2200      	movs	r2, #0
   24402:	4613      	mov	r3, r2
   24404:	df04      	svc	4
   24406:	a805      	add	r0, sp, #20
   24408:	7804      	ldrb	r4, [r0, #0]
   2440a:	1c68      	adds	r0, r5, #1
   2440c:	2223      	movs	r2, #35	@ 0x23
   2440e:	9902      	ldr	r1, [sp, #8]
   24410:	f006 fe7a 	bl	2b108 <__aeabi_memcpy>
   24414:	702e      	strb	r6, [r5, #0]
   24416:	2c02      	cmp	r4, #2
   24418:	d006      	beq.n	24428 <_ZN20complex_dynamic_type3app17h88764f7a46f2c657E+0x130>
   2441a:	480a      	ldr	r0, [pc, #40]	@ (24444 <_ZN20complex_dynamic_type3app17h88764f7a46f2c657E+0x14c>)
   2441c:	2107      	movs	r1, #7
   2441e:	2200      	movs	r2, #0
   24420:	4613      	mov	r3, r2
   24422:	2c04      	cmp	r4, #4
   24424:	d10a      	bne.n	2443c <_ZN20complex_dynamic_type3app17h88764f7a46f2c657E+0x144>
   24426:	df04      	svc	4
   24428:	b021      	add	sp, #132	@ 0x84
   2442a:	bdf0      	pop	{r4, r5, r6, r7, pc}
   2442c:	1c68      	adds	r0, r5, #1
   2442e:	2223      	movs	r2, #35	@ 0x23
   24430:	9902      	ldr	r1, [sp, #8]
   24432:	f006 fe69 	bl	2b108 <__aeabi_memcpy>
   24436:	702e      	strb	r6, [r5, #0]
   24438:	b021      	add	sp, #132	@ 0x84
   2443a:	bdf0      	pop	{r4, r5, r6, r7, pc}
   2443c:	df03      	svc	3
   2443e:	b021      	add	sp, #132	@ 0x84
   24440:	bdf0      	pop	{r4, r5, r6, r7, pc}
   24442:	46c0      	nop			@ (mov r8, r8)
   24444:	00001551 	.word	0x00001551

00024448 <_ZN20complex_dynamic_type3app17h891852dc0564c1d6E>:
   24448:	b5f0      	push	{r4, r5, r6, r7, lr}
   2444a:	af03      	add	r7, sp, #12
   2444c:	b0a3      	sub	sp, #140	@ 0x8c
   2444e:	9003      	str	r0, [sp, #12]
   24450:	a804      	add	r0, sp, #16
   24452:	2402      	movs	r4, #2
   24454:	7004      	strb	r4, [r0, #0]
   24456:	1c46      	adds	r6, r0, #1
   24458:	223c      	movs	r2, #60	@ 0x3c
   2445a:	9202      	str	r2, [sp, #8]
   2445c:	4630      	mov	r0, r6
   2445e:	f006 fe53 	bl	2b108 <__aeabi_memcpy>
   24462:	ad14      	add	r5, sp, #80	@ 0x50
   24464:	1c68      	adds	r0, r5, #1
   24466:	2138      	movs	r1, #56	@ 0x38
   24468:	9001      	str	r0, [sp, #4]
   2446a:	f006 fc8d 	bl	2ad88 <__aeabi_memclr>
   2446e:	9400      	str	r4, [sp, #0]
   24470:	702c      	strb	r4, [r5, #0]
   24472:	4848      	ldr	r0, [pc, #288]	@ (24594 <_ZN20complex_dynamic_type3app17h891852dc0564c1d6E+0x14c>)
   24474:	2103      	movs	r1, #3
   24476:	4632      	mov	r2, r6
   24478:	9b02      	ldr	r3, [sp, #8]
   2447a:	df04      	svc	4
   2447c:	2802      	cmp	r0, #2
   2447e:	d104      	bne.n	2448a <_ZN20complex_dynamic_type3app17h891852dc0564c1d6E+0x42>
   24480:	2001      	movs	r0, #1
   24482:	9a03      	ldr	r2, [sp, #12]
   24484:	7010      	strb	r0, [r2, #0]
   24486:	6051      	str	r1, [r2, #4]
   24488:	e02c      	b.n	244e4 <_ZN20complex_dynamic_type3app17h891852dc0564c1d6E+0x9c>
   2448a:	9d03      	ldr	r5, [sp, #12]
   2448c:	a804      	add	r0, sp, #16
   2448e:	2104      	movs	r1, #4
   24490:	7001      	strb	r1, [r0, #0]
   24492:	4840      	ldr	r0, [pc, #256]	@ (24594 <_ZN20complex_dynamic_type3app17h891852dc0564c1d6E+0x14c>)
   24494:	2403      	movs	r4, #3
   24496:	2338      	movs	r3, #56	@ 0x38
   24498:	4621      	mov	r1, r4
   2449a:	9a01      	ldr	r2, [sp, #4]
   2449c:	df03      	svc	3
   2449e:	2802      	cmp	r0, #2
   244a0:	d10e      	bne.n	244c0 <_ZN20complex_dynamic_type3app17h891852dc0564c1d6E+0x78>
   244a2:	2001      	movs	r0, #1
   244a4:	7028      	strb	r0, [r5, #0]
   244a6:	6069      	str	r1, [r5, #4]
   244a8:	a814      	add	r0, sp, #80	@ 0x50
   244aa:	7800      	ldrb	r0, [r0, #0]
   244ac:	2802      	cmp	r0, #2
   244ae:	d019      	beq.n	244e4 <_ZN20complex_dynamic_type3app17h891852dc0564c1d6E+0x9c>
   244b0:	2803      	cmp	r0, #3
   244b2:	d012      	beq.n	244da <_ZN20complex_dynamic_type3app17h891852dc0564c1d6E+0x92>
   244b4:	4837      	ldr	r0, [pc, #220]	@ (24594 <_ZN20complex_dynamic_type3app17h891852dc0564c1d6E+0x14c>)
   244b6:	2103      	movs	r1, #3
   244b8:	2200      	movs	r2, #0
   244ba:	4613      	mov	r3, r2
   244bc:	df04      	svc	4
   244be:	e011      	b.n	244e4 <_ZN20complex_dynamic_type3app17h891852dc0564c1d6E+0x9c>
   244c0:	a814      	add	r0, sp, #80	@ 0x50
   244c2:	7004      	strb	r4, [r0, #0]
   244c4:	4833      	ldr	r0, [pc, #204]	@ (24594 <_ZN20complex_dynamic_type3app17h891852dc0564c1d6E+0x14c>)
   244c6:	2600      	movs	r6, #0
   244c8:	4621      	mov	r1, r4
   244ca:	4622      	mov	r2, r4
   244cc:	4633      	mov	r3, r6
   244ce:	df02      	svc	2
   244d0:	2880      	cmp	r0, #128	@ 0x80
   244d2:	d21b      	bcs.n	2450c <_ZN20complex_dynamic_type3app17h891852dc0564c1d6E+0xc4>
   244d4:	2001      	movs	r0, #1
   244d6:	7028      	strb	r0, [r5, #0]
   244d8:	6069      	str	r1, [r5, #4]
   244da:	482e      	ldr	r0, [pc, #184]	@ (24594 <_ZN20complex_dynamic_type3app17h891852dc0564c1d6E+0x14c>)
   244dc:	2103      	movs	r1, #3
   244de:	2200      	movs	r2, #0
   244e0:	4613      	mov	r3, r2
   244e2:	df03      	svc	3
   244e4:	a804      	add	r0, sp, #16
   244e6:	7800      	ldrb	r0, [r0, #0]
   244e8:	2802      	cmp	r0, #2
   244ea:	d045      	beq.n	24578 <_ZN20complex_dynamic_type3app17h891852dc0564c1d6E+0x130>
   244ec:	2804      	cmp	r0, #4
   244ee:	d106      	bne.n	244fe <_ZN20complex_dynamic_type3app17h891852dc0564c1d6E+0xb6>
   244f0:	4828      	ldr	r0, [pc, #160]	@ (24594 <_ZN20complex_dynamic_type3app17h891852dc0564c1d6E+0x14c>)
   244f2:	2103      	movs	r1, #3
   244f4:	2200      	movs	r2, #0
   244f6:	4613      	mov	r3, r2
   244f8:	df04      	svc	4
   244fa:	b023      	add	sp, #140	@ 0x8c
   244fc:	bdf0      	pop	{r4, r5, r6, r7, pc}
   244fe:	4825      	ldr	r0, [pc, #148]	@ (24594 <_ZN20complex_dynamic_type3app17h891852dc0564c1d6E+0x14c>)
   24500:	2103      	movs	r1, #3
   24502:	2200      	movs	r2, #0
   24504:	4613      	mov	r3, r2
   24506:	df03      	svc	3
   24508:	b023      	add	sp, #140	@ 0x8c
   2450a:	bdf0      	pop	{r4, r5, r6, r7, pc}
   2450c:	a804      	add	r0, sp, #16
   2450e:	7800      	ldrb	r0, [r0, #0]
   24510:	2802      	cmp	r0, #2
   24512:	d00c      	beq.n	2452e <_ZN20complex_dynamic_type3app17h891852dc0564c1d6E+0xe6>
   24514:	2803      	cmp	r0, #3
   24516:	d105      	bne.n	24524 <_ZN20complex_dynamic_type3app17h891852dc0564c1d6E+0xdc>
   24518:	481e      	ldr	r0, [pc, #120]	@ (24594 <_ZN20complex_dynamic_type3app17h891852dc0564c1d6E+0x14c>)
   2451a:	2103      	movs	r1, #3
   2451c:	2200      	movs	r2, #0
   2451e:	4613      	mov	r3, r2
   24520:	df03      	svc	3
   24522:	e004      	b.n	2452e <_ZN20complex_dynamic_type3app17h891852dc0564c1d6E+0xe6>
   24524:	481b      	ldr	r0, [pc, #108]	@ (24594 <_ZN20complex_dynamic_type3app17h891852dc0564c1d6E+0x14c>)
   24526:	2103      	movs	r1, #3
   24528:	2200      	movs	r2, #0
   2452a:	4613      	mov	r3, r2
   2452c:	df04      	svc	4
   2452e:	a804      	add	r0, sp, #16
   24530:	9900      	ldr	r1, [sp, #0]
   24532:	7001      	strb	r1, [r0, #0]
   24534:	a814      	add	r0, sp, #80	@ 0x50
   24536:	7800      	ldrb	r0, [r0, #0]
   24538:	2804      	cmp	r0, #4
   2453a:	d007      	beq.n	2454c <_ZN20complex_dynamic_type3app17h891852dc0564c1d6E+0x104>
   2453c:	2803      	cmp	r0, #3
   2453e:	d11d      	bne.n	2457c <_ZN20complex_dynamic_type3app17h891852dc0564c1d6E+0x134>
   24540:	4814      	ldr	r0, [pc, #80]	@ (24594 <_ZN20complex_dynamic_type3app17h891852dc0564c1d6E+0x14c>)
   24542:	2103      	movs	r1, #3
   24544:	2200      	movs	r2, #0
   24546:	4613      	mov	r3, r2
   24548:	df03      	svc	3
   2454a:	e004      	b.n	24556 <_ZN20complex_dynamic_type3app17h891852dc0564c1d6E+0x10e>
   2454c:	4811      	ldr	r0, [pc, #68]	@ (24594 <_ZN20complex_dynamic_type3app17h891852dc0564c1d6E+0x14c>)
   2454e:	2103      	movs	r1, #3
   24550:	2200      	movs	r2, #0
   24552:	4613      	mov	r3, r2
   24554:	df04      	svc	4
   24556:	a804      	add	r0, sp, #16
   24558:	7804      	ldrb	r4, [r0, #0]
   2455a:	1c68      	adds	r0, r5, #1
   2455c:	2238      	movs	r2, #56	@ 0x38
   2455e:	9901      	ldr	r1, [sp, #4]
   24560:	f006 fdd2 	bl	2b108 <__aeabi_memcpy>
   24564:	702e      	strb	r6, [r5, #0]
   24566:	2c02      	cmp	r4, #2
   24568:	d006      	beq.n	24578 <_ZN20complex_dynamic_type3app17h891852dc0564c1d6E+0x130>
   2456a:	480a      	ldr	r0, [pc, #40]	@ (24594 <_ZN20complex_dynamic_type3app17h891852dc0564c1d6E+0x14c>)
   2456c:	2103      	movs	r1, #3
   2456e:	2200      	movs	r2, #0
   24570:	4613      	mov	r3, r2
   24572:	2c04      	cmp	r4, #4
   24574:	d10a      	bne.n	2458c <_ZN20complex_dynamic_type3app17h891852dc0564c1d6E+0x144>
   24576:	df04      	svc	4
   24578:	b023      	add	sp, #140	@ 0x8c
   2457a:	bdf0      	pop	{r4, r5, r6, r7, pc}
   2457c:	1c68      	adds	r0, r5, #1
   2457e:	2238      	movs	r2, #56	@ 0x38
   24580:	9901      	ldr	r1, [sp, #4]
   24582:	f006 fdc1 	bl	2b108 <__aeabi_memcpy>
   24586:	702e      	strb	r6, [r5, #0]
   24588:	b023      	add	sp, #140	@ 0x8c
   2458a:	bdf0      	pop	{r4, r5, r6, r7, pc}
   2458c:	df03      	svc	3
   2458e:	b023      	add	sp, #140	@ 0x8c
   24590:	bdf0      	pop	{r4, r5, r6, r7, pc}
   24592:	46c0      	nop			@ (mov r8, r8)
   24594:	00001d19 	.word	0x00001d19

00024598 <_ZN20complex_dynamic_type3app17h8f9e90dccab689a9E>:
   24598:	b5f0      	push	{r4, r5, r6, r7, lr}
   2459a:	af03      	add	r7, sp, #12
   2459c:	b09f      	sub	sp, #124	@ 0x7c
   2459e:	9004      	str	r0, [sp, #16]
   245a0:	a805      	add	r0, sp, #20
   245a2:	2402      	movs	r4, #2
   245a4:	7004      	strb	r4, [r0, #0]
   245a6:	1c40      	adds	r0, r0, #1
   245a8:	9003      	str	r0, [sp, #12]
   245aa:	2541      	movs	r5, #65	@ 0x41
   245ac:	462a      	mov	r2, r5
   245ae:	f006 fdab 	bl	2b108 <__aeabi_memcpy>
   245b2:	ae16      	add	r6, sp, #88	@ 0x58
   245b4:	1c70      	adds	r0, r6, #1
   245b6:	2122      	movs	r1, #34	@ 0x22
   245b8:	9002      	str	r0, [sp, #8]
   245ba:	f006 fbe5 	bl	2ad88 <__aeabi_memclr>
   245be:	9401      	str	r4, [sp, #4]
   245c0:	7034      	strb	r4, [r6, #0]
   245c2:	4847      	ldr	r0, [pc, #284]	@ (246e0 <_ZN20complex_dynamic_type3app17h8f9e90dccab689a9E+0x148>)
   245c4:	2601      	movs	r6, #1
   245c6:	4631      	mov	r1, r6
   245c8:	9a03      	ldr	r2, [sp, #12]
   245ca:	462b      	mov	r3, r5
   245cc:	df04      	svc	4
   245ce:	2802      	cmp	r0, #2
   245d0:	d103      	bne.n	245da <_ZN20complex_dynamic_type3app17h8f9e90dccab689a9E+0x42>
   245d2:	9804      	ldr	r0, [sp, #16]
   245d4:	7006      	strb	r6, [r0, #0]
   245d6:	6041      	str	r1, [r0, #4]
   245d8:	e02b      	b.n	24632 <_ZN20complex_dynamic_type3app17h8f9e90dccab689a9E+0x9a>
   245da:	9d04      	ldr	r5, [sp, #16]
   245dc:	a805      	add	r0, sp, #20
   245de:	2104      	movs	r1, #4
   245e0:	7001      	strb	r1, [r0, #0]
   245e2:	483f      	ldr	r0, [pc, #252]	@ (246e0 <_ZN20complex_dynamic_type3app17h8f9e90dccab689a9E+0x148>)
   245e4:	2100      	movs	r1, #0
   245e6:	2322      	movs	r3, #34	@ 0x22
   245e8:	9a02      	ldr	r2, [sp, #8]
   245ea:	df03      	svc	3
   245ec:	2802      	cmp	r0, #2
   245ee:	d10d      	bne.n	2460c <_ZN20complex_dynamic_type3app17h8f9e90dccab689a9E+0x74>
   245f0:	702e      	strb	r6, [r5, #0]
   245f2:	6069      	str	r1, [r5, #4]
   245f4:	a816      	add	r0, sp, #88	@ 0x58
   245f6:	7800      	ldrb	r0, [r0, #0]
   245f8:	2802      	cmp	r0, #2
   245fa:	d01a      	beq.n	24632 <_ZN20complex_dynamic_type3app17h8f9e90dccab689a9E+0x9a>
   245fc:	2803      	cmp	r0, #3
   245fe:	d013      	beq.n	24628 <_ZN20complex_dynamic_type3app17h8f9e90dccab689a9E+0x90>
   24600:	4837      	ldr	r0, [pc, #220]	@ (246e0 <_ZN20complex_dynamic_type3app17h8f9e90dccab689a9E+0x148>)
   24602:	2100      	movs	r1, #0
   24604:	460a      	mov	r2, r1
   24606:	460b      	mov	r3, r1
   24608:	df04      	svc	4
   2460a:	e012      	b.n	24632 <_ZN20complex_dynamic_type3app17h8f9e90dccab689a9E+0x9a>
   2460c:	a816      	add	r0, sp, #88	@ 0x58
   2460e:	2103      	movs	r1, #3
   24610:	7001      	strb	r1, [r0, #0]
   24612:	4833      	ldr	r0, [pc, #204]	@ (246e0 <_ZN20complex_dynamic_type3app17h8f9e90dccab689a9E+0x148>)
   24614:	2401      	movs	r4, #1
   24616:	2600      	movs	r6, #0
   24618:	4621      	mov	r1, r4
   2461a:	4632      	mov	r2, r6
   2461c:	4633      	mov	r3, r6
   2461e:	df02      	svc	2
   24620:	2880      	cmp	r0, #128	@ 0x80
   24622:	d21a      	bcs.n	2465a <_ZN20complex_dynamic_type3app17h8f9e90dccab689a9E+0xc2>
   24624:	702c      	strb	r4, [r5, #0]
   24626:	6069      	str	r1, [r5, #4]
   24628:	482d      	ldr	r0, [pc, #180]	@ (246e0 <_ZN20complex_dynamic_type3app17h8f9e90dccab689a9E+0x148>)
   2462a:	2100      	movs	r1, #0
   2462c:	460a      	mov	r2, r1
   2462e:	460b      	mov	r3, r1
   24630:	df03      	svc	3
   24632:	a805      	add	r0, sp, #20
   24634:	7800      	ldrb	r0, [r0, #0]
   24636:	2802      	cmp	r0, #2
   24638:	d045      	beq.n	246c6 <_ZN20complex_dynamic_type3app17h8f9e90dccab689a9E+0x12e>
   2463a:	2804      	cmp	r0, #4
   2463c:	d106      	bne.n	2464c <_ZN20complex_dynamic_type3app17h8f9e90dccab689a9E+0xb4>
   2463e:	4828      	ldr	r0, [pc, #160]	@ (246e0 <_ZN20complex_dynamic_type3app17h8f9e90dccab689a9E+0x148>)
   24640:	2101      	movs	r1, #1
   24642:	2200      	movs	r2, #0
   24644:	4613      	mov	r3, r2
   24646:	df04      	svc	4
   24648:	b01f      	add	sp, #124	@ 0x7c
   2464a:	bdf0      	pop	{r4, r5, r6, r7, pc}
   2464c:	4824      	ldr	r0, [pc, #144]	@ (246e0 <_ZN20complex_dynamic_type3app17h8f9e90dccab689a9E+0x148>)
   2464e:	2101      	movs	r1, #1
   24650:	2200      	movs	r2, #0
   24652:	4613      	mov	r3, r2
   24654:	df03      	svc	3
   24656:	b01f      	add	sp, #124	@ 0x7c
   24658:	bdf0      	pop	{r4, r5, r6, r7, pc}
   2465a:	a805      	add	r0, sp, #20
   2465c:	7800      	ldrb	r0, [r0, #0]
   2465e:	2802      	cmp	r0, #2
   24660:	d00c      	beq.n	2467c <_ZN20complex_dynamic_type3app17h8f9e90dccab689a9E+0xe4>
   24662:	2803      	cmp	r0, #3
   24664:	d105      	bne.n	24672 <_ZN20complex_dynamic_type3app17h8f9e90dccab689a9E+0xda>
   24666:	481e      	ldr	r0, [pc, #120]	@ (246e0 <_ZN20complex_dynamic_type3app17h8f9e90dccab689a9E+0x148>)
   24668:	2101      	movs	r1, #1
   2466a:	2200      	movs	r2, #0
   2466c:	4613      	mov	r3, r2
   2466e:	df03      	svc	3
   24670:	e004      	b.n	2467c <_ZN20complex_dynamic_type3app17h8f9e90dccab689a9E+0xe4>
   24672:	481b      	ldr	r0, [pc, #108]	@ (246e0 <_ZN20complex_dynamic_type3app17h8f9e90dccab689a9E+0x148>)
   24674:	2101      	movs	r1, #1
   24676:	2200      	movs	r2, #0
   24678:	4613      	mov	r3, r2
   2467a:	df04      	svc	4
   2467c:	a805      	add	r0, sp, #20
   2467e:	9901      	ldr	r1, [sp, #4]
   24680:	7001      	strb	r1, [r0, #0]
   24682:	a816      	add	r0, sp, #88	@ 0x58
   24684:	7800      	ldrb	r0, [r0, #0]
   24686:	2804      	cmp	r0, #4
   24688:	d007      	beq.n	2469a <_ZN20complex_dynamic_type3app17h8f9e90dccab689a9E+0x102>
   2468a:	2803      	cmp	r0, #3
   2468c:	d11d      	bne.n	246ca <_ZN20complex_dynamic_type3app17h8f9e90dccab689a9E+0x132>
   2468e:	4814      	ldr	r0, [pc, #80]	@ (246e0 <_ZN20complex_dynamic_type3app17h8f9e90dccab689a9E+0x148>)
   24690:	2100      	movs	r1, #0
   24692:	460a      	mov	r2, r1
   24694:	460b      	mov	r3, r1
   24696:	df03      	svc	3
   24698:	e004      	b.n	246a4 <_ZN20complex_dynamic_type3app17h8f9e90dccab689a9E+0x10c>
   2469a:	4811      	ldr	r0, [pc, #68]	@ (246e0 <_ZN20complex_dynamic_type3app17h8f9e90dccab689a9E+0x148>)
   2469c:	2100      	movs	r1, #0
   2469e:	460a      	mov	r2, r1
   246a0:	460b      	mov	r3, r1
   246a2:	df04      	svc	4
   246a4:	a805      	add	r0, sp, #20
   246a6:	7804      	ldrb	r4, [r0, #0]
   246a8:	1c68      	adds	r0, r5, #1
   246aa:	2222      	movs	r2, #34	@ 0x22
   246ac:	9902      	ldr	r1, [sp, #8]
   246ae:	f006 fd2b 	bl	2b108 <__aeabi_memcpy>
   246b2:	702e      	strb	r6, [r5, #0]
   246b4:	2c02      	cmp	r4, #2
   246b6:	d006      	beq.n	246c6 <_ZN20complex_dynamic_type3app17h8f9e90dccab689a9E+0x12e>
   246b8:	4809      	ldr	r0, [pc, #36]	@ (246e0 <_ZN20complex_dynamic_type3app17h8f9e90dccab689a9E+0x148>)
   246ba:	2101      	movs	r1, #1
   246bc:	2200      	movs	r2, #0
   246be:	4613      	mov	r3, r2
   246c0:	2c04      	cmp	r4, #4
   246c2:	d10a      	bne.n	246da <_ZN20complex_dynamic_type3app17h8f9e90dccab689a9E+0x142>
   246c4:	df04      	svc	4
   246c6:	b01f      	add	sp, #124	@ 0x7c
   246c8:	bdf0      	pop	{r4, r5, r6, r7, pc}
   246ca:	9902      	ldr	r1, [sp, #8]
   246cc:	1c68      	adds	r0, r5, #1
   246ce:	2222      	movs	r2, #34	@ 0x22
   246d0:	f006 fd1a 	bl	2b108 <__aeabi_memcpy>
   246d4:	702e      	strb	r6, [r5, #0]
   246d6:	b01f      	add	sp, #124	@ 0x7c
   246d8:	bdf0      	pop	{r4, r5, r6, r7, pc}
   246da:	df03      	svc	3
   246dc:	b01f      	add	sp, #124	@ 0x7c
   246de:	bdf0      	pop	{r4, r5, r6, r7, pc}
   246e0:	0000247c 	.word	0x0000247c

000246e4 <_ZN20complex_dynamic_type3app17h95acbac09822cbf1E>:
   246e4:	b5f0      	push	{r4, r5, r6, r7, lr}
   246e6:	af03      	add	r7, sp, #12
   246e8:	b099      	sub	sp, #100	@ 0x64
   246ea:	9003      	str	r0, [sp, #12]
   246ec:	a804      	add	r0, sp, #16
   246ee:	2402      	movs	r4, #2
   246f0:	7004      	strb	r4, [r0, #0]
   246f2:	1c46      	adds	r6, r0, #1
   246f4:	223f      	movs	r2, #63	@ 0x3f
   246f6:	9202      	str	r2, [sp, #8]
   246f8:	4630      	mov	r0, r6
   246fa:	f006 fd05 	bl	2b108 <__aeabi_memcpy>
   246fe:	ad14      	add	r5, sp, #80	@ 0x50
   24700:	1c68      	adds	r0, r5, #1
   24702:	2111      	movs	r1, #17
   24704:	9001      	str	r0, [sp, #4]
   24706:	f006 fb3f 	bl	2ad88 <__aeabi_memclr>
   2470a:	9400      	str	r4, [sp, #0]
   2470c:	702c      	strb	r4, [r5, #0]
   2470e:	4848      	ldr	r0, [pc, #288]	@ (24830 <_ZN20complex_dynamic_type3app17h95acbac09822cbf1E+0x14c>)
   24710:	2504      	movs	r5, #4
   24712:	4629      	mov	r1, r5
   24714:	4632      	mov	r2, r6
   24716:	9b02      	ldr	r3, [sp, #8]
   24718:	df04      	svc	4
   2471a:	2802      	cmp	r0, #2
   2471c:	d104      	bne.n	24728 <_ZN20complex_dynamic_type3app17h95acbac09822cbf1E+0x44>
   2471e:	2001      	movs	r0, #1
   24720:	9a03      	ldr	r2, [sp, #12]
   24722:	7010      	strb	r0, [r2, #0]
   24724:	6051      	str	r1, [r2, #4]
   24726:	e02b      	b.n	24780 <_ZN20complex_dynamic_type3app17h95acbac09822cbf1E+0x9c>
   24728:	9e03      	ldr	r6, [sp, #12]
   2472a:	a804      	add	r0, sp, #16
   2472c:	7005      	strb	r5, [r0, #0]
   2472e:	4840      	ldr	r0, [pc, #256]	@ (24830 <_ZN20complex_dynamic_type3app17h95acbac09822cbf1E+0x14c>)
   24730:	2403      	movs	r4, #3
   24732:	2311      	movs	r3, #17
   24734:	4621      	mov	r1, r4
   24736:	9a01      	ldr	r2, [sp, #4]
   24738:	df03      	svc	3
   2473a:	2802      	cmp	r0, #2
   2473c:	d10e      	bne.n	2475c <_ZN20complex_dynamic_type3app17h95acbac09822cbf1E+0x78>
   2473e:	2001      	movs	r0, #1
   24740:	7030      	strb	r0, [r6, #0]
   24742:	6071      	str	r1, [r6, #4]
   24744:	a814      	add	r0, sp, #80	@ 0x50
   24746:	7800      	ldrb	r0, [r0, #0]
   24748:	2802      	cmp	r0, #2
   2474a:	d019      	beq.n	24780 <_ZN20complex_dynamic_type3app17h95acbac09822cbf1E+0x9c>
   2474c:	2803      	cmp	r0, #3
   2474e:	d012      	beq.n	24776 <_ZN20complex_dynamic_type3app17h95acbac09822cbf1E+0x92>
   24750:	4837      	ldr	r0, [pc, #220]	@ (24830 <_ZN20complex_dynamic_type3app17h95acbac09822cbf1E+0x14c>)
   24752:	2103      	movs	r1, #3
   24754:	2200      	movs	r2, #0
   24756:	4613      	mov	r3, r2
   24758:	df04      	svc	4
   2475a:	e011      	b.n	24780 <_ZN20complex_dynamic_type3app17h95acbac09822cbf1E+0x9c>
   2475c:	a814      	add	r0, sp, #80	@ 0x50
   2475e:	7004      	strb	r4, [r0, #0]
   24760:	4833      	ldr	r0, [pc, #204]	@ (24830 <_ZN20complex_dynamic_type3app17h95acbac09822cbf1E+0x14c>)
   24762:	2104      	movs	r1, #4
   24764:	2500      	movs	r5, #0
   24766:	4622      	mov	r2, r4
   24768:	462b      	mov	r3, r5
   2476a:	df02      	svc	2
   2476c:	2880      	cmp	r0, #128	@ 0x80
   2476e:	d21b      	bcs.n	247a8 <_ZN20complex_dynamic_type3app17h95acbac09822cbf1E+0xc4>
   24770:	2001      	movs	r0, #1
   24772:	7030      	strb	r0, [r6, #0]
   24774:	6071      	str	r1, [r6, #4]
   24776:	482e      	ldr	r0, [pc, #184]	@ (24830 <_ZN20complex_dynamic_type3app17h95acbac09822cbf1E+0x14c>)
   24778:	2103      	movs	r1, #3
   2477a:	2200      	movs	r2, #0
   2477c:	4613      	mov	r3, r2
   2477e:	df03      	svc	3
   24780:	a804      	add	r0, sp, #16
   24782:	7800      	ldrb	r0, [r0, #0]
   24784:	2802      	cmp	r0, #2
   24786:	d045      	beq.n	24814 <_ZN20complex_dynamic_type3app17h95acbac09822cbf1E+0x130>
   24788:	2804      	cmp	r0, #4
   2478a:	d106      	bne.n	2479a <_ZN20complex_dynamic_type3app17h95acbac09822cbf1E+0xb6>
   2478c:	4828      	ldr	r0, [pc, #160]	@ (24830 <_ZN20complex_dynamic_type3app17h95acbac09822cbf1E+0x14c>)
   2478e:	2104      	movs	r1, #4
   24790:	2200      	movs	r2, #0
   24792:	4613      	mov	r3, r2
   24794:	df04      	svc	4
   24796:	b019      	add	sp, #100	@ 0x64
   24798:	bdf0      	pop	{r4, r5, r6, r7, pc}
   2479a:	4825      	ldr	r0, [pc, #148]	@ (24830 <_ZN20complex_dynamic_type3app17h95acbac09822cbf1E+0x14c>)
   2479c:	2104      	movs	r1, #4
   2479e:	2200      	movs	r2, #0
   247a0:	4613      	mov	r3, r2
   247a2:	df03      	svc	3
   247a4:	b019      	add	sp, #100	@ 0x64
   247a6:	bdf0      	pop	{r4, r5, r6, r7, pc}
   247a8:	a804      	add	r0, sp, #16
   247aa:	7800      	ldrb	r0, [r0, #0]
   247ac:	2802      	cmp	r0, #2
   247ae:	d00c      	beq.n	247ca <_ZN20complex_dynamic_type3app17h95acbac09822cbf1E+0xe6>
   247b0:	2803      	cmp	r0, #3
   247b2:	d105      	bne.n	247c0 <_ZN20complex_dynamic_type3app17h95acbac09822cbf1E+0xdc>
   247b4:	481e      	ldr	r0, [pc, #120]	@ (24830 <_ZN20complex_dynamic_type3app17h95acbac09822cbf1E+0x14c>)
   247b6:	2104      	movs	r1, #4
   247b8:	2200      	movs	r2, #0
   247ba:	4613      	mov	r3, r2
   247bc:	df03      	svc	3
   247be:	e004      	b.n	247ca <_ZN20complex_dynamic_type3app17h95acbac09822cbf1E+0xe6>
   247c0:	481b      	ldr	r0, [pc, #108]	@ (24830 <_ZN20complex_dynamic_type3app17h95acbac09822cbf1E+0x14c>)
   247c2:	2104      	movs	r1, #4
   247c4:	2200      	movs	r2, #0
   247c6:	4613      	mov	r3, r2
   247c8:	df04      	svc	4
   247ca:	a804      	add	r0, sp, #16
   247cc:	9900      	ldr	r1, [sp, #0]
   247ce:	7001      	strb	r1, [r0, #0]
   247d0:	a814      	add	r0, sp, #80	@ 0x50
   247d2:	7800      	ldrb	r0, [r0, #0]
   247d4:	2804      	cmp	r0, #4
   247d6:	d007      	beq.n	247e8 <_ZN20complex_dynamic_type3app17h95acbac09822cbf1E+0x104>
   247d8:	2803      	cmp	r0, #3
   247da:	d11d      	bne.n	24818 <_ZN20complex_dynamic_type3app17h95acbac09822cbf1E+0x134>
   247dc:	4814      	ldr	r0, [pc, #80]	@ (24830 <_ZN20complex_dynamic_type3app17h95acbac09822cbf1E+0x14c>)
   247de:	2103      	movs	r1, #3
   247e0:	2200      	movs	r2, #0
   247e2:	4613      	mov	r3, r2
   247e4:	df03      	svc	3
   247e6:	e004      	b.n	247f2 <_ZN20complex_dynamic_type3app17h95acbac09822cbf1E+0x10e>
   247e8:	4811      	ldr	r0, [pc, #68]	@ (24830 <_ZN20complex_dynamic_type3app17h95acbac09822cbf1E+0x14c>)
   247ea:	2103      	movs	r1, #3
   247ec:	2200      	movs	r2, #0
   247ee:	4613      	mov	r3, r2
   247f0:	df04      	svc	4
   247f2:	a804      	add	r0, sp, #16
   247f4:	7804      	ldrb	r4, [r0, #0]
   247f6:	1c70      	adds	r0, r6, #1
   247f8:	2211      	movs	r2, #17
   247fa:	9901      	ldr	r1, [sp, #4]
   247fc:	f006 fc84 	bl	2b108 <__aeabi_memcpy>
   24800:	7035      	strb	r5, [r6, #0]
   24802:	2c02      	cmp	r4, #2
   24804:	d006      	beq.n	24814 <_ZN20complex_dynamic_type3app17h95acbac09822cbf1E+0x130>
   24806:	480a      	ldr	r0, [pc, #40]	@ (24830 <_ZN20complex_dynamic_type3app17h95acbac09822cbf1E+0x14c>)
   24808:	2104      	movs	r1, #4
   2480a:	2200      	movs	r2, #0
   2480c:	4613      	mov	r3, r2
   2480e:	2c04      	cmp	r4, #4
   24810:	d10a      	bne.n	24828 <_ZN20complex_dynamic_type3app17h95acbac09822cbf1E+0x144>
   24812:	df04      	svc	4
   24814:	b019      	add	sp, #100	@ 0x64
   24816:	bdf0      	pop	{r4, r5, r6, r7, pc}
   24818:	1c70      	adds	r0, r6, #1
   2481a:	2211      	movs	r2, #17
   2481c:	9901      	ldr	r1, [sp, #4]
   2481e:	f006 fc73 	bl	2b108 <__aeabi_memcpy>
   24822:	7035      	strb	r5, [r6, #0]
   24824:	b019      	add	sp, #100	@ 0x64
   24826:	bdf0      	pop	{r4, r5, r6, r7, pc}
   24828:	df03      	svc	3
   2482a:	b019      	add	sp, #100	@ 0x64
   2482c:	bdf0      	pop	{r4, r5, r6, r7, pc}
   2482e:	46c0      	nop			@ (mov r8, r8)
   24830:	000014d7 	.word	0x000014d7

00024834 <_ZN20complex_dynamic_type3app17h981a746f9cb3f0f1E>:
   24834:	b5f0      	push	{r4, r5, r6, r7, lr}
   24836:	af03      	add	r7, sp, #12
   24838:	b09f      	sub	sp, #124	@ 0x7c
   2483a:	9003      	str	r0, [sp, #12]
   2483c:	a804      	add	r0, sp, #16
   2483e:	2402      	movs	r4, #2
   24840:	7004      	strb	r4, [r0, #0]
   24842:	1c46      	adds	r6, r0, #1
   24844:	2244      	movs	r2, #68	@ 0x44
   24846:	9202      	str	r2, [sp, #8]
   24848:	4630      	mov	r0, r6
   2484a:	f006 fc5d 	bl	2b108 <__aeabi_memcpy>
   2484e:	ad16      	add	r5, sp, #88	@ 0x58
   24850:	1c68      	adds	r0, r5, #1
   24852:	2123      	movs	r1, #35	@ 0x23
   24854:	9001      	str	r0, [sp, #4]
   24856:	f006 fa97 	bl	2ad88 <__aeabi_memclr>
   2485a:	9400      	str	r4, [sp, #0]
   2485c:	702c      	strb	r4, [r5, #0]
   2485e:	4848      	ldr	r0, [pc, #288]	@ (24980 <_ZN20complex_dynamic_type3app17h981a746f9cb3f0f1E+0x14c>)
   24860:	2106      	movs	r1, #6
   24862:	4632      	mov	r2, r6
   24864:	9b02      	ldr	r3, [sp, #8]
   24866:	df04      	svc	4
   24868:	2802      	cmp	r0, #2
   2486a:	d104      	bne.n	24876 <_ZN20complex_dynamic_type3app17h981a746f9cb3f0f1E+0x42>
   2486c:	2001      	movs	r0, #1
   2486e:	9a03      	ldr	r2, [sp, #12]
   24870:	7010      	strb	r0, [r2, #0]
   24872:	6051      	str	r1, [r2, #4]
   24874:	e02c      	b.n	248d0 <_ZN20complex_dynamic_type3app17h981a746f9cb3f0f1E+0x9c>
   24876:	9d03      	ldr	r5, [sp, #12]
   24878:	a804      	add	r0, sp, #16
   2487a:	2104      	movs	r1, #4
   2487c:	7001      	strb	r1, [r0, #0]
   2487e:	4840      	ldr	r0, [pc, #256]	@ (24980 <_ZN20complex_dynamic_type3app17h981a746f9cb3f0f1E+0x14c>)
   24880:	2403      	movs	r4, #3
   24882:	2323      	movs	r3, #35	@ 0x23
   24884:	4621      	mov	r1, r4
   24886:	9a01      	ldr	r2, [sp, #4]
   24888:	df03      	svc	3
   2488a:	2802      	cmp	r0, #2
   2488c:	d10e      	bne.n	248ac <_ZN20complex_dynamic_type3app17h981a746f9cb3f0f1E+0x78>
   2488e:	2001      	movs	r0, #1
   24890:	7028      	strb	r0, [r5, #0]
   24892:	6069      	str	r1, [r5, #4]
   24894:	a816      	add	r0, sp, #88	@ 0x58
   24896:	7800      	ldrb	r0, [r0, #0]
   24898:	2802      	cmp	r0, #2
   2489a:	d019      	beq.n	248d0 <_ZN20complex_dynamic_type3app17h981a746f9cb3f0f1E+0x9c>
   2489c:	2803      	cmp	r0, #3
   2489e:	d012      	beq.n	248c6 <_ZN20complex_dynamic_type3app17h981a746f9cb3f0f1E+0x92>
   248a0:	4837      	ldr	r0, [pc, #220]	@ (24980 <_ZN20complex_dynamic_type3app17h981a746f9cb3f0f1E+0x14c>)
   248a2:	2103      	movs	r1, #3
   248a4:	2200      	movs	r2, #0
   248a6:	4613      	mov	r3, r2
   248a8:	df04      	svc	4
   248aa:	e011      	b.n	248d0 <_ZN20complex_dynamic_type3app17h981a746f9cb3f0f1E+0x9c>
   248ac:	a816      	add	r0, sp, #88	@ 0x58
   248ae:	7004      	strb	r4, [r0, #0]
   248b0:	4833      	ldr	r0, [pc, #204]	@ (24980 <_ZN20complex_dynamic_type3app17h981a746f9cb3f0f1E+0x14c>)
   248b2:	2106      	movs	r1, #6
   248b4:	2600      	movs	r6, #0
   248b6:	4622      	mov	r2, r4
   248b8:	4633      	mov	r3, r6
   248ba:	df02      	svc	2
   248bc:	2880      	cmp	r0, #128	@ 0x80
   248be:	d21b      	bcs.n	248f8 <_ZN20complex_dynamic_type3app17h981a746f9cb3f0f1E+0xc4>
   248c0:	2001      	movs	r0, #1
   248c2:	7028      	strb	r0, [r5, #0]
   248c4:	6069      	str	r1, [r5, #4]
   248c6:	482e      	ldr	r0, [pc, #184]	@ (24980 <_ZN20complex_dynamic_type3app17h981a746f9cb3f0f1E+0x14c>)
   248c8:	2103      	movs	r1, #3
   248ca:	2200      	movs	r2, #0
   248cc:	4613      	mov	r3, r2
   248ce:	df03      	svc	3
   248d0:	a804      	add	r0, sp, #16
   248d2:	7800      	ldrb	r0, [r0, #0]
   248d4:	2802      	cmp	r0, #2
   248d6:	d045      	beq.n	24964 <_ZN20complex_dynamic_type3app17h981a746f9cb3f0f1E+0x130>
   248d8:	2804      	cmp	r0, #4
   248da:	d106      	bne.n	248ea <_ZN20complex_dynamic_type3app17h981a746f9cb3f0f1E+0xb6>
   248dc:	4828      	ldr	r0, [pc, #160]	@ (24980 <_ZN20complex_dynamic_type3app17h981a746f9cb3f0f1E+0x14c>)
   248de:	2106      	movs	r1, #6
   248e0:	2200      	movs	r2, #0
   248e2:	4613      	mov	r3, r2
   248e4:	df04      	svc	4
   248e6:	b01f      	add	sp, #124	@ 0x7c
   248e8:	bdf0      	pop	{r4, r5, r6, r7, pc}
   248ea:	4825      	ldr	r0, [pc, #148]	@ (24980 <_ZN20complex_dynamic_type3app17h981a746f9cb3f0f1E+0x14c>)
   248ec:	2106      	movs	r1, #6
   248ee:	2200      	movs	r2, #0
   248f0:	4613      	mov	r3, r2
   248f2:	df03      	svc	3
   248f4:	b01f      	add	sp, #124	@ 0x7c
   248f6:	bdf0      	pop	{r4, r5, r6, r7, pc}
   248f8:	a804      	add	r0, sp, #16
   248fa:	7800      	ldrb	r0, [r0, #0]
   248fc:	2802      	cmp	r0, #2
   248fe:	d00c      	beq.n	2491a <_ZN20complex_dynamic_type3app17h981a746f9cb3f0f1E+0xe6>
   24900:	2803      	cmp	r0, #3
   24902:	d105      	bne.n	24910 <_ZN20complex_dynamic_type3app17h981a746f9cb3f0f1E+0xdc>
   24904:	481e      	ldr	r0, [pc, #120]	@ (24980 <_ZN20complex_dynamic_type3app17h981a746f9cb3f0f1E+0x14c>)
   24906:	2106      	movs	r1, #6
   24908:	2200      	movs	r2, #0
   2490a:	4613      	mov	r3, r2
   2490c:	df03      	svc	3
   2490e:	e004      	b.n	2491a <_ZN20complex_dynamic_type3app17h981a746f9cb3f0f1E+0xe6>
   24910:	481b      	ldr	r0, [pc, #108]	@ (24980 <_ZN20complex_dynamic_type3app17h981a746f9cb3f0f1E+0x14c>)
   24912:	2106      	movs	r1, #6
   24914:	2200      	movs	r2, #0
   24916:	4613      	mov	r3, r2
   24918:	df04      	svc	4
   2491a:	a804      	add	r0, sp, #16
   2491c:	9900      	ldr	r1, [sp, #0]
   2491e:	7001      	strb	r1, [r0, #0]
   24920:	a816      	add	r0, sp, #88	@ 0x58
   24922:	7800      	ldrb	r0, [r0, #0]
   24924:	2804      	cmp	r0, #4
   24926:	d007      	beq.n	24938 <_ZN20complex_dynamic_type3app17h981a746f9cb3f0f1E+0x104>
   24928:	2803      	cmp	r0, #3
   2492a:	d11d      	bne.n	24968 <_ZN20complex_dynamic_type3app17h981a746f9cb3f0f1E+0x134>
   2492c:	4814      	ldr	r0, [pc, #80]	@ (24980 <_ZN20complex_dynamic_type3app17h981a746f9cb3f0f1E+0x14c>)
   2492e:	2103      	movs	r1, #3
   24930:	2200      	movs	r2, #0
   24932:	4613      	mov	r3, r2
   24934:	df03      	svc	3
   24936:	e004      	b.n	24942 <_ZN20complex_dynamic_type3app17h981a746f9cb3f0f1E+0x10e>
   24938:	4811      	ldr	r0, [pc, #68]	@ (24980 <_ZN20complex_dynamic_type3app17h981a746f9cb3f0f1E+0x14c>)
   2493a:	2103      	movs	r1, #3
   2493c:	2200      	movs	r2, #0
   2493e:	4613      	mov	r3, r2
   24940:	df04      	svc	4
   24942:	a804      	add	r0, sp, #16
   24944:	7804      	ldrb	r4, [r0, #0]
   24946:	1c68      	adds	r0, r5, #1
   24948:	2223      	movs	r2, #35	@ 0x23
   2494a:	9901      	ldr	r1, [sp, #4]
   2494c:	f006 fbdc 	bl	2b108 <__aeabi_memcpy>
   24950:	702e      	strb	r6, [r5, #0]
   24952:	2c02      	cmp	r4, #2
   24954:	d006      	beq.n	24964 <_ZN20complex_dynamic_type3app17h981a746f9cb3f0f1E+0x130>
   24956:	480a      	ldr	r0, [pc, #40]	@ (24980 <_ZN20complex_dynamic_type3app17h981a746f9cb3f0f1E+0x14c>)
   24958:	2106      	movs	r1, #6
   2495a:	2200      	movs	r2, #0
   2495c:	4613      	mov	r3, r2
   2495e:	2c04      	cmp	r4, #4
   24960:	d10a      	bne.n	24978 <_ZN20complex_dynamic_type3app17h981a746f9cb3f0f1E+0x144>
   24962:	df04      	svc	4
   24964:	b01f      	add	sp, #124	@ 0x7c
   24966:	bdf0      	pop	{r4, r5, r6, r7, pc}
   24968:	1c68      	adds	r0, r5, #1
   2496a:	2223      	movs	r2, #35	@ 0x23
   2496c:	9901      	ldr	r1, [sp, #4]
   2496e:	f006 fbcb 	bl	2b108 <__aeabi_memcpy>
   24972:	702e      	strb	r6, [r5, #0]
   24974:	b01f      	add	sp, #124	@ 0x7c
   24976:	bdf0      	pop	{r4, r5, r6, r7, pc}
   24978:	df03      	svc	3
   2497a:	b01f      	add	sp, #124	@ 0x7c
   2497c:	bdf0      	pop	{r4, r5, r6, r7, pc}
   2497e:	46c0      	nop			@ (mov r8, r8)
   24980:	000009bf 	.word	0x000009bf

00024984 <_ZN20complex_dynamic_type3app17h984b5f191b89bb28E>:
   24984:	b5f0      	push	{r4, r5, r6, r7, lr}
   24986:	af03      	add	r7, sp, #12
   24988:	b097      	sub	sp, #92	@ 0x5c
   2498a:	9003      	str	r0, [sp, #12]
   2498c:	a804      	add	r0, sp, #16
   2498e:	2402      	movs	r4, #2
   24990:	7004      	strb	r4, [r0, #0]
   24992:	1c46      	adds	r6, r0, #1
   24994:	222b      	movs	r2, #43	@ 0x2b
   24996:	9202      	str	r2, [sp, #8]
   24998:	4630      	mov	r0, r6
   2499a:	f006 fbb5 	bl	2b108 <__aeabi_memcpy>
   2499e:	ad0f      	add	r5, sp, #60	@ 0x3c
   249a0:	1c68      	adds	r0, r5, #1
   249a2:	211e      	movs	r1, #30
   249a4:	9001      	str	r0, [sp, #4]
   249a6:	f006 f9ef 	bl	2ad88 <__aeabi_memclr>
   249aa:	9400      	str	r4, [sp, #0]
   249ac:	702c      	strb	r4, [r5, #0]
   249ae:	4848      	ldr	r0, [pc, #288]	@ (24ad0 <_ZN20complex_dynamic_type3app17h984b5f191b89bb28E+0x14c>)
   249b0:	2107      	movs	r1, #7
   249b2:	4632      	mov	r2, r6
   249b4:	9b02      	ldr	r3, [sp, #8]
   249b6:	df04      	svc	4
   249b8:	2802      	cmp	r0, #2
   249ba:	d104      	bne.n	249c6 <_ZN20complex_dynamic_type3app17h984b5f191b89bb28E+0x42>
   249bc:	2001      	movs	r0, #1
   249be:	9a03      	ldr	r2, [sp, #12]
   249c0:	7010      	strb	r0, [r2, #0]
   249c2:	6051      	str	r1, [r2, #4]
   249c4:	e02d      	b.n	24a22 <_ZN20complex_dynamic_type3app17h984b5f191b89bb28E+0x9e>
   249c6:	9d03      	ldr	r5, [sp, #12]
   249c8:	a804      	add	r0, sp, #16
   249ca:	2104      	movs	r1, #4
   249cc:	7001      	strb	r1, [r0, #0]
   249ce:	4840      	ldr	r0, [pc, #256]	@ (24ad0 <_ZN20complex_dynamic_type3app17h984b5f191b89bb28E+0x14c>)
   249d0:	2108      	movs	r1, #8
   249d2:	231e      	movs	r3, #30
   249d4:	9c01      	ldr	r4, [sp, #4]
   249d6:	4622      	mov	r2, r4
   249d8:	df03      	svc	3
   249da:	2802      	cmp	r0, #2
   249dc:	d10e      	bne.n	249fc <_ZN20complex_dynamic_type3app17h984b5f191b89bb28E+0x78>
   249de:	2001      	movs	r0, #1
   249e0:	7028      	strb	r0, [r5, #0]
   249e2:	6069      	str	r1, [r5, #4]
   249e4:	a80f      	add	r0, sp, #60	@ 0x3c
   249e6:	7800      	ldrb	r0, [r0, #0]
   249e8:	2802      	cmp	r0, #2
   249ea:	d01a      	beq.n	24a22 <_ZN20complex_dynamic_type3app17h984b5f191b89bb28E+0x9e>
   249ec:	2803      	cmp	r0, #3
   249ee:	d013      	beq.n	24a18 <_ZN20complex_dynamic_type3app17h984b5f191b89bb28E+0x94>
   249f0:	4837      	ldr	r0, [pc, #220]	@ (24ad0 <_ZN20complex_dynamic_type3app17h984b5f191b89bb28E+0x14c>)
   249f2:	2108      	movs	r1, #8
   249f4:	2200      	movs	r2, #0
   249f6:	4613      	mov	r3, r2
   249f8:	df04      	svc	4
   249fa:	e012      	b.n	24a22 <_ZN20complex_dynamic_type3app17h984b5f191b89bb28E+0x9e>
   249fc:	a80f      	add	r0, sp, #60	@ 0x3c
   249fe:	2103      	movs	r1, #3
   24a00:	7001      	strb	r1, [r0, #0]
   24a02:	4833      	ldr	r0, [pc, #204]	@ (24ad0 <_ZN20complex_dynamic_type3app17h984b5f191b89bb28E+0x14c>)
   24a04:	2107      	movs	r1, #7
   24a06:	2208      	movs	r2, #8
   24a08:	2600      	movs	r6, #0
   24a0a:	4633      	mov	r3, r6
   24a0c:	df02      	svc	2
   24a0e:	2880      	cmp	r0, #128	@ 0x80
   24a10:	d21b      	bcs.n	24a4a <_ZN20complex_dynamic_type3app17h984b5f191b89bb28E+0xc6>
   24a12:	2001      	movs	r0, #1
   24a14:	7028      	strb	r0, [r5, #0]
   24a16:	6069      	str	r1, [r5, #4]
   24a18:	482d      	ldr	r0, [pc, #180]	@ (24ad0 <_ZN20complex_dynamic_type3app17h984b5f191b89bb28E+0x14c>)
   24a1a:	2108      	movs	r1, #8
   24a1c:	2200      	movs	r2, #0
   24a1e:	4613      	mov	r3, r2
   24a20:	df03      	svc	3
   24a22:	a804      	add	r0, sp, #16
   24a24:	7800      	ldrb	r0, [r0, #0]
   24a26:	2802      	cmp	r0, #2
   24a28:	d045      	beq.n	24ab6 <_ZN20complex_dynamic_type3app17h984b5f191b89bb28E+0x132>
   24a2a:	2804      	cmp	r0, #4
   24a2c:	d106      	bne.n	24a3c <_ZN20complex_dynamic_type3app17h984b5f191b89bb28E+0xb8>
   24a2e:	4828      	ldr	r0, [pc, #160]	@ (24ad0 <_ZN20complex_dynamic_type3app17h984b5f191b89bb28E+0x14c>)
   24a30:	2107      	movs	r1, #7
   24a32:	2200      	movs	r2, #0
   24a34:	4613      	mov	r3, r2
   24a36:	df04      	svc	4
   24a38:	b017      	add	sp, #92	@ 0x5c
   24a3a:	bdf0      	pop	{r4, r5, r6, r7, pc}
   24a3c:	4824      	ldr	r0, [pc, #144]	@ (24ad0 <_ZN20complex_dynamic_type3app17h984b5f191b89bb28E+0x14c>)
   24a3e:	2107      	movs	r1, #7
   24a40:	2200      	movs	r2, #0
   24a42:	4613      	mov	r3, r2
   24a44:	df03      	svc	3
   24a46:	b017      	add	sp, #92	@ 0x5c
   24a48:	bdf0      	pop	{r4, r5, r6, r7, pc}
   24a4a:	a804      	add	r0, sp, #16
   24a4c:	7800      	ldrb	r0, [r0, #0]
   24a4e:	2802      	cmp	r0, #2
   24a50:	d00c      	beq.n	24a6c <_ZN20complex_dynamic_type3app17h984b5f191b89bb28E+0xe8>
   24a52:	2803      	cmp	r0, #3
   24a54:	d105      	bne.n	24a62 <_ZN20complex_dynamic_type3app17h984b5f191b89bb28E+0xde>
   24a56:	481e      	ldr	r0, [pc, #120]	@ (24ad0 <_ZN20complex_dynamic_type3app17h984b5f191b89bb28E+0x14c>)
   24a58:	2107      	movs	r1, #7
   24a5a:	2200      	movs	r2, #0
   24a5c:	4613      	mov	r3, r2
   24a5e:	df03      	svc	3
   24a60:	e004      	b.n	24a6c <_ZN20complex_dynamic_type3app17h984b5f191b89bb28E+0xe8>
   24a62:	481b      	ldr	r0, [pc, #108]	@ (24ad0 <_ZN20complex_dynamic_type3app17h984b5f191b89bb28E+0x14c>)
   24a64:	2107      	movs	r1, #7
   24a66:	2200      	movs	r2, #0
   24a68:	4613      	mov	r3, r2
   24a6a:	df04      	svc	4
   24a6c:	a804      	add	r0, sp, #16
   24a6e:	9900      	ldr	r1, [sp, #0]
   24a70:	7001      	strb	r1, [r0, #0]
   24a72:	a80f      	add	r0, sp, #60	@ 0x3c
   24a74:	7800      	ldrb	r0, [r0, #0]
   24a76:	2804      	cmp	r0, #4
   24a78:	d007      	beq.n	24a8a <_ZN20complex_dynamic_type3app17h984b5f191b89bb28E+0x106>
   24a7a:	2803      	cmp	r0, #3
   24a7c:	d11d      	bne.n	24aba <_ZN20complex_dynamic_type3app17h984b5f191b89bb28E+0x136>
   24a7e:	4814      	ldr	r0, [pc, #80]	@ (24ad0 <_ZN20complex_dynamic_type3app17h984b5f191b89bb28E+0x14c>)
   24a80:	2108      	movs	r1, #8
   24a82:	2200      	movs	r2, #0
   24a84:	4613      	mov	r3, r2
   24a86:	df03      	svc	3
   24a88:	e004      	b.n	24a94 <_ZN20complex_dynamic_type3app17h984b5f191b89bb28E+0x110>
   24a8a:	4811      	ldr	r0, [pc, #68]	@ (24ad0 <_ZN20complex_dynamic_type3app17h984b5f191b89bb28E+0x14c>)
   24a8c:	2108      	movs	r1, #8
   24a8e:	2200      	movs	r2, #0
   24a90:	4613      	mov	r3, r2
   24a92:	df04      	svc	4
   24a94:	a804      	add	r0, sp, #16
   24a96:	7804      	ldrb	r4, [r0, #0]
   24a98:	1c68      	adds	r0, r5, #1
   24a9a:	221e      	movs	r2, #30
   24a9c:	9901      	ldr	r1, [sp, #4]
   24a9e:	f006 fb33 	bl	2b108 <__aeabi_memcpy>
   24aa2:	702e      	strb	r6, [r5, #0]
   24aa4:	2c02      	cmp	r4, #2
   24aa6:	d006      	beq.n	24ab6 <_ZN20complex_dynamic_type3app17h984b5f191b89bb28E+0x132>
   24aa8:	4809      	ldr	r0, [pc, #36]	@ (24ad0 <_ZN20complex_dynamic_type3app17h984b5f191b89bb28E+0x14c>)
   24aaa:	2107      	movs	r1, #7
   24aac:	2200      	movs	r2, #0
   24aae:	4613      	mov	r3, r2
   24ab0:	2c04      	cmp	r4, #4
   24ab2:	d10a      	bne.n	24aca <_ZN20complex_dynamic_type3app17h984b5f191b89bb28E+0x146>
   24ab4:	df04      	svc	4
   24ab6:	b017      	add	sp, #92	@ 0x5c
   24ab8:	bdf0      	pop	{r4, r5, r6, r7, pc}
   24aba:	1c68      	adds	r0, r5, #1
   24abc:	221e      	movs	r2, #30
   24abe:	4621      	mov	r1, r4
   24ac0:	f006 fb22 	bl	2b108 <__aeabi_memcpy>
   24ac4:	702e      	strb	r6, [r5, #0]
   24ac6:	b017      	add	sp, #92	@ 0x5c
   24ac8:	bdf0      	pop	{r4, r5, r6, r7, pc}
   24aca:	df03      	svc	3
   24acc:	b017      	add	sp, #92	@ 0x5c
   24ace:	bdf0      	pop	{r4, r5, r6, r7, pc}
   24ad0:	000007e3 	.word	0x000007e3

00024ad4 <_ZN20complex_dynamic_type3app17h98df976a826cf04aE>:
   24ad4:	b5f0      	push	{r4, r5, r6, r7, lr}
   24ad6:	af03      	add	r7, sp, #12
   24ad8:	b0a1      	sub	sp, #132	@ 0x84
   24ada:	9004      	str	r0, [sp, #16]
   24adc:	a805      	add	r0, sp, #20
   24ade:	2402      	movs	r4, #2
   24ae0:	7004      	strb	r4, [r0, #0]
   24ae2:	1c46      	adds	r6, r0, #1
   24ae4:	221a      	movs	r2, #26
   24ae6:	9203      	str	r2, [sp, #12]
   24ae8:	4630      	mov	r0, r6
   24aea:	f006 fb0d 	bl	2b108 <__aeabi_memcpy>
   24aee:	ad0c      	add	r5, sp, #48	@ 0x30
   24af0:	1c68      	adds	r0, r5, #1
   24af2:	2150      	movs	r1, #80	@ 0x50
   24af4:	9002      	str	r0, [sp, #8]
   24af6:	f006 f947 	bl	2ad88 <__aeabi_memclr>
   24afa:	9401      	str	r4, [sp, #4]
   24afc:	702c      	strb	r4, [r5, #0]
   24afe:	4848      	ldr	r0, [pc, #288]	@ (24c20 <_ZN20complex_dynamic_type3app17h98df976a826cf04aE+0x14c>)
   24b00:	2107      	movs	r1, #7
   24b02:	4632      	mov	r2, r6
   24b04:	9b03      	ldr	r3, [sp, #12]
   24b06:	df04      	svc	4
   24b08:	2802      	cmp	r0, #2
   24b0a:	d104      	bne.n	24b16 <_ZN20complex_dynamic_type3app17h98df976a826cf04aE+0x42>
   24b0c:	2001      	movs	r0, #1
   24b0e:	9a04      	ldr	r2, [sp, #16]
   24b10:	7010      	strb	r0, [r2, #0]
   24b12:	6051      	str	r1, [r2, #4]
   24b14:	e02c      	b.n	24b70 <_ZN20complex_dynamic_type3app17h98df976a826cf04aE+0x9c>
   24b16:	9d04      	ldr	r5, [sp, #16]
   24b18:	a805      	add	r0, sp, #20
   24b1a:	2104      	movs	r1, #4
   24b1c:	7001      	strb	r1, [r0, #0]
   24b1e:	4840      	ldr	r0, [pc, #256]	@ (24c20 <_ZN20complex_dynamic_type3app17h98df976a826cf04aE+0x14c>)
   24b20:	2350      	movs	r3, #80	@ 0x50
   24b22:	9c02      	ldr	r4, [sp, #8]
   24b24:	4622      	mov	r2, r4
   24b26:	df03      	svc	3
   24b28:	2802      	cmp	r0, #2
   24b2a:	d10e      	bne.n	24b4a <_ZN20complex_dynamic_type3app17h98df976a826cf04aE+0x76>
   24b2c:	2001      	movs	r0, #1
   24b2e:	7028      	strb	r0, [r5, #0]
   24b30:	6069      	str	r1, [r5, #4]
   24b32:	a80c      	add	r0, sp, #48	@ 0x30
   24b34:	7800      	ldrb	r0, [r0, #0]
   24b36:	2802      	cmp	r0, #2
   24b38:	d01a      	beq.n	24b70 <_ZN20complex_dynamic_type3app17h98df976a826cf04aE+0x9c>
   24b3a:	2803      	cmp	r0, #3
   24b3c:	d013      	beq.n	24b66 <_ZN20complex_dynamic_type3app17h98df976a826cf04aE+0x92>
   24b3e:	4838      	ldr	r0, [pc, #224]	@ (24c20 <_ZN20complex_dynamic_type3app17h98df976a826cf04aE+0x14c>)
   24b40:	2104      	movs	r1, #4
   24b42:	2200      	movs	r2, #0
   24b44:	4613      	mov	r3, r2
   24b46:	df04      	svc	4
   24b48:	e012      	b.n	24b70 <_ZN20complex_dynamic_type3app17h98df976a826cf04aE+0x9c>
   24b4a:	a80c      	add	r0, sp, #48	@ 0x30
   24b4c:	2103      	movs	r1, #3
   24b4e:	7001      	strb	r1, [r0, #0]
   24b50:	4833      	ldr	r0, [pc, #204]	@ (24c20 <_ZN20complex_dynamic_type3app17h98df976a826cf04aE+0x14c>)
   24b52:	2107      	movs	r1, #7
   24b54:	2204      	movs	r2, #4
   24b56:	2600      	movs	r6, #0
   24b58:	4633      	mov	r3, r6
   24b5a:	df02      	svc	2
   24b5c:	2880      	cmp	r0, #128	@ 0x80
   24b5e:	d21b      	bcs.n	24b98 <_ZN20complex_dynamic_type3app17h98df976a826cf04aE+0xc4>
   24b60:	2001      	movs	r0, #1
   24b62:	7028      	strb	r0, [r5, #0]
   24b64:	6069      	str	r1, [r5, #4]
   24b66:	482e      	ldr	r0, [pc, #184]	@ (24c20 <_ZN20complex_dynamic_type3app17h98df976a826cf04aE+0x14c>)
   24b68:	2104      	movs	r1, #4
   24b6a:	2200      	movs	r2, #0
   24b6c:	4613      	mov	r3, r2
   24b6e:	df03      	svc	3
   24b70:	a805      	add	r0, sp, #20
   24b72:	7800      	ldrb	r0, [r0, #0]
   24b74:	2802      	cmp	r0, #2
   24b76:	d045      	beq.n	24c04 <_ZN20complex_dynamic_type3app17h98df976a826cf04aE+0x130>
   24b78:	2804      	cmp	r0, #4
   24b7a:	d106      	bne.n	24b8a <_ZN20complex_dynamic_type3app17h98df976a826cf04aE+0xb6>
   24b7c:	4828      	ldr	r0, [pc, #160]	@ (24c20 <_ZN20complex_dynamic_type3app17h98df976a826cf04aE+0x14c>)
   24b7e:	2107      	movs	r1, #7
   24b80:	2200      	movs	r2, #0
   24b82:	4613      	mov	r3, r2
   24b84:	df04      	svc	4
   24b86:	b021      	add	sp, #132	@ 0x84
   24b88:	bdf0      	pop	{r4, r5, r6, r7, pc}
   24b8a:	4825      	ldr	r0, [pc, #148]	@ (24c20 <_ZN20complex_dynamic_type3app17h98df976a826cf04aE+0x14c>)
   24b8c:	2107      	movs	r1, #7
   24b8e:	2200      	movs	r2, #0
   24b90:	4613      	mov	r3, r2
   24b92:	df03      	svc	3
   24b94:	b021      	add	sp, #132	@ 0x84
   24b96:	bdf0      	pop	{r4, r5, r6, r7, pc}
   24b98:	a805      	add	r0, sp, #20
   24b9a:	7800      	ldrb	r0, [r0, #0]
   24b9c:	2802      	cmp	r0, #2
   24b9e:	d00c      	beq.n	24bba <_ZN20complex_dynamic_type3app17h98df976a826cf04aE+0xe6>
   24ba0:	2803      	cmp	r0, #3
   24ba2:	d105      	bne.n	24bb0 <_ZN20complex_dynamic_type3app17h98df976a826cf04aE+0xdc>
   24ba4:	481e      	ldr	r0, [pc, #120]	@ (24c20 <_ZN20complex_dynamic_type3app17h98df976a826cf04aE+0x14c>)
   24ba6:	2107      	movs	r1, #7
   24ba8:	2200      	movs	r2, #0
   24baa:	4613      	mov	r3, r2
   24bac:	df03      	svc	3
   24bae:	e004      	b.n	24bba <_ZN20complex_dynamic_type3app17h98df976a826cf04aE+0xe6>
   24bb0:	481b      	ldr	r0, [pc, #108]	@ (24c20 <_ZN20complex_dynamic_type3app17h98df976a826cf04aE+0x14c>)
   24bb2:	2107      	movs	r1, #7
   24bb4:	2200      	movs	r2, #0
   24bb6:	4613      	mov	r3, r2
   24bb8:	df04      	svc	4
   24bba:	a805      	add	r0, sp, #20
   24bbc:	9901      	ldr	r1, [sp, #4]
   24bbe:	7001      	strb	r1, [r0, #0]
   24bc0:	a80c      	add	r0, sp, #48	@ 0x30
   24bc2:	7800      	ldrb	r0, [r0, #0]
   24bc4:	2804      	cmp	r0, #4
   24bc6:	d007      	beq.n	24bd8 <_ZN20complex_dynamic_type3app17h98df976a826cf04aE+0x104>
   24bc8:	2803      	cmp	r0, #3
   24bca:	d11d      	bne.n	24c08 <_ZN20complex_dynamic_type3app17h98df976a826cf04aE+0x134>
   24bcc:	4814      	ldr	r0, [pc, #80]	@ (24c20 <_ZN20complex_dynamic_type3app17h98df976a826cf04aE+0x14c>)
   24bce:	2104      	movs	r1, #4
   24bd0:	2200      	movs	r2, #0
   24bd2:	4613      	mov	r3, r2
   24bd4:	df03      	svc	3
   24bd6:	e004      	b.n	24be2 <_ZN20complex_dynamic_type3app17h98df976a826cf04aE+0x10e>
   24bd8:	4811      	ldr	r0, [pc, #68]	@ (24c20 <_ZN20complex_dynamic_type3app17h98df976a826cf04aE+0x14c>)
   24bda:	2104      	movs	r1, #4
   24bdc:	2200      	movs	r2, #0
   24bde:	4613      	mov	r3, r2
   24be0:	df04      	svc	4
   24be2:	a805      	add	r0, sp, #20
   24be4:	7804      	ldrb	r4, [r0, #0]
   24be6:	1c68      	adds	r0, r5, #1
   24be8:	2250      	movs	r2, #80	@ 0x50
   24bea:	9902      	ldr	r1, [sp, #8]
   24bec:	f006 fa8c 	bl	2b108 <__aeabi_memcpy>
   24bf0:	702e      	strb	r6, [r5, #0]
   24bf2:	2c02      	cmp	r4, #2
   24bf4:	d006      	beq.n	24c04 <_ZN20complex_dynamic_type3app17h98df976a826cf04aE+0x130>
   24bf6:	480a      	ldr	r0, [pc, #40]	@ (24c20 <_ZN20complex_dynamic_type3app17h98df976a826cf04aE+0x14c>)
   24bf8:	2107      	movs	r1, #7
   24bfa:	2200      	movs	r2, #0
   24bfc:	4613      	mov	r3, r2
   24bfe:	2c04      	cmp	r4, #4
   24c00:	d10a      	bne.n	24c18 <_ZN20complex_dynamic_type3app17h98df976a826cf04aE+0x144>
   24c02:	df04      	svc	4
   24c04:	b021      	add	sp, #132	@ 0x84
   24c06:	bdf0      	pop	{r4, r5, r6, r7, pc}
   24c08:	1c68      	adds	r0, r5, #1
   24c0a:	2250      	movs	r2, #80	@ 0x50
   24c0c:	4621      	mov	r1, r4
   24c0e:	f006 fa7b 	bl	2b108 <__aeabi_memcpy>
   24c12:	702e      	strb	r6, [r5, #0]
   24c14:	b021      	add	sp, #132	@ 0x84
   24c16:	bdf0      	pop	{r4, r5, r6, r7, pc}
   24c18:	df03      	svc	3
   24c1a:	b021      	add	sp, #132	@ 0x84
   24c1c:	bdf0      	pop	{r4, r5, r6, r7, pc}
   24c1e:	46c0      	nop			@ (mov r8, r8)
   24c20:	00000aee 	.word	0x00000aee

00024c24 <_ZN20complex_dynamic_type3app17h9966d6692f2e0307E>:
   24c24:	b5f0      	push	{r4, r5, r6, r7, lr}
   24c26:	af03      	add	r7, sp, #12
   24c28:	b0a1      	sub	sp, #132	@ 0x84
   24c2a:	9003      	str	r0, [sp, #12]
   24c2c:	a804      	add	r0, sp, #16
   24c2e:	2602      	movs	r6, #2
   24c30:	7006      	strb	r6, [r0, #0]
   24c32:	1c40      	adds	r0, r0, #1
   24c34:	9002      	str	r0, [sp, #8]
   24c36:	251e      	movs	r5, #30
   24c38:	462a      	mov	r2, r5
   24c3a:	f006 fa65 	bl	2b108 <__aeabi_memcpy>
   24c3e:	ac0c      	add	r4, sp, #48	@ 0x30
   24c40:	1c60      	adds	r0, r4, #1
   24c42:	2151      	movs	r1, #81	@ 0x51
   24c44:	9001      	str	r0, [sp, #4]
   24c46:	f006 f89f 	bl	2ad88 <__aeabi_memclr>
   24c4a:	7026      	strb	r6, [r4, #0]
   24c4c:	484a      	ldr	r0, [pc, #296]	@ (24d78 <_ZN20complex_dynamic_type3app17h9966d6692f2e0307E+0x154>)
   24c4e:	4631      	mov	r1, r6
   24c50:	9a02      	ldr	r2, [sp, #8]
   24c52:	462b      	mov	r3, r5
   24c54:	df04      	svc	4
   24c56:	2802      	cmp	r0, #2
   24c58:	d104      	bne.n	24c64 <_ZN20complex_dynamic_type3app17h9966d6692f2e0307E+0x40>
   24c5a:	2001      	movs	r0, #1
   24c5c:	9a03      	ldr	r2, [sp, #12]
   24c5e:	7010      	strb	r0, [r2, #0]
   24c60:	6051      	str	r1, [r2, #4]
   24c62:	e02e      	b.n	24cc2 <_ZN20complex_dynamic_type3app17h9966d6692f2e0307E+0x9e>
   24c64:	9d03      	ldr	r5, [sp, #12]
   24c66:	a804      	add	r0, sp, #16
   24c68:	2104      	movs	r1, #4
   24c6a:	7001      	strb	r1, [r0, #0]
   24c6c:	4842      	ldr	r0, [pc, #264]	@ (24d78 <_ZN20complex_dynamic_type3app17h9966d6692f2e0307E+0x154>)
   24c6e:	2100      	movs	r1, #0
   24c70:	2351      	movs	r3, #81	@ 0x51
   24c72:	9c01      	ldr	r4, [sp, #4]
   24c74:	4622      	mov	r2, r4
   24c76:	df03      	svc	3
   24c78:	2802      	cmp	r0, #2
   24c7a:	d10e      	bne.n	24c9a <_ZN20complex_dynamic_type3app17h9966d6692f2e0307E+0x76>
   24c7c:	2001      	movs	r0, #1
   24c7e:	7028      	strb	r0, [r5, #0]
   24c80:	6069      	str	r1, [r5, #4]
   24c82:	a80c      	add	r0, sp, #48	@ 0x30
   24c84:	7800      	ldrb	r0, [r0, #0]
   24c86:	2802      	cmp	r0, #2
   24c88:	d01b      	beq.n	24cc2 <_ZN20complex_dynamic_type3app17h9966d6692f2e0307E+0x9e>
   24c8a:	2803      	cmp	r0, #3
   24c8c:	d014      	beq.n	24cb8 <_ZN20complex_dynamic_type3app17h9966d6692f2e0307E+0x94>
   24c8e:	483a      	ldr	r0, [pc, #232]	@ (24d78 <_ZN20complex_dynamic_type3app17h9966d6692f2e0307E+0x154>)
   24c90:	2100      	movs	r1, #0
   24c92:	460a      	mov	r2, r1
   24c94:	460b      	mov	r3, r1
   24c96:	df04      	svc	4
   24c98:	e013      	b.n	24cc2 <_ZN20complex_dynamic_type3app17h9966d6692f2e0307E+0x9e>
   24c9a:	a80c      	add	r0, sp, #48	@ 0x30
   24c9c:	2103      	movs	r1, #3
   24c9e:	7001      	strb	r1, [r0, #0]
   24ca0:	4835      	ldr	r0, [pc, #212]	@ (24d78 <_ZN20complex_dynamic_type3app17h9966d6692f2e0307E+0x154>)
   24ca2:	2602      	movs	r6, #2
   24ca4:	2200      	movs	r2, #0
   24ca6:	4631      	mov	r1, r6
   24ca8:	9202      	str	r2, [sp, #8]
   24caa:	4613      	mov	r3, r2
   24cac:	df02      	svc	2
   24cae:	2880      	cmp	r0, #128	@ 0x80
   24cb0:	d21b      	bcs.n	24cea <_ZN20complex_dynamic_type3app17h9966d6692f2e0307E+0xc6>
   24cb2:	2001      	movs	r0, #1
   24cb4:	7028      	strb	r0, [r5, #0]
   24cb6:	6069      	str	r1, [r5, #4]
   24cb8:	482f      	ldr	r0, [pc, #188]	@ (24d78 <_ZN20complex_dynamic_type3app17h9966d6692f2e0307E+0x154>)
   24cba:	2100      	movs	r1, #0
   24cbc:	460a      	mov	r2, r1
   24cbe:	460b      	mov	r3, r1
   24cc0:	df03      	svc	3
   24cc2:	a804      	add	r0, sp, #16
   24cc4:	7800      	ldrb	r0, [r0, #0]
   24cc6:	2802      	cmp	r0, #2
   24cc8:	d047      	beq.n	24d5a <_ZN20complex_dynamic_type3app17h9966d6692f2e0307E+0x136>
   24cca:	2804      	cmp	r0, #4
   24ccc:	d106      	bne.n	24cdc <_ZN20complex_dynamic_type3app17h9966d6692f2e0307E+0xb8>
   24cce:	482a      	ldr	r0, [pc, #168]	@ (24d78 <_ZN20complex_dynamic_type3app17h9966d6692f2e0307E+0x154>)
   24cd0:	2102      	movs	r1, #2
   24cd2:	2200      	movs	r2, #0
   24cd4:	4613      	mov	r3, r2
   24cd6:	df04      	svc	4
   24cd8:	b021      	add	sp, #132	@ 0x84
   24cda:	bdf0      	pop	{r4, r5, r6, r7, pc}
   24cdc:	4826      	ldr	r0, [pc, #152]	@ (24d78 <_ZN20complex_dynamic_type3app17h9966d6692f2e0307E+0x154>)
   24cde:	2102      	movs	r1, #2
   24ce0:	2200      	movs	r2, #0
   24ce2:	4613      	mov	r3, r2
   24ce4:	df03      	svc	3
   24ce6:	b021      	add	sp, #132	@ 0x84
   24ce8:	bdf0      	pop	{r4, r5, r6, r7, pc}
   24cea:	a804      	add	r0, sp, #16
   24cec:	7800      	ldrb	r0, [r0, #0]
   24cee:	2802      	cmp	r0, #2
   24cf0:	d00c      	beq.n	24d0c <_ZN20complex_dynamic_type3app17h9966d6692f2e0307E+0xe8>
   24cf2:	2803      	cmp	r0, #3
   24cf4:	d105      	bne.n	24d02 <_ZN20complex_dynamic_type3app17h9966d6692f2e0307E+0xde>
   24cf6:	4820      	ldr	r0, [pc, #128]	@ (24d78 <_ZN20complex_dynamic_type3app17h9966d6692f2e0307E+0x154>)
   24cf8:	2102      	movs	r1, #2
   24cfa:	2200      	movs	r2, #0
   24cfc:	4613      	mov	r3, r2
   24cfe:	df03      	svc	3
   24d00:	e004      	b.n	24d0c <_ZN20complex_dynamic_type3app17h9966d6692f2e0307E+0xe8>
   24d02:	481d      	ldr	r0, [pc, #116]	@ (24d78 <_ZN20complex_dynamic_type3app17h9966d6692f2e0307E+0x154>)
   24d04:	2102      	movs	r1, #2
   24d06:	2200      	movs	r2, #0
   24d08:	4613      	mov	r3, r2
   24d0a:	df04      	svc	4
   24d0c:	a804      	add	r0, sp, #16
   24d0e:	7006      	strb	r6, [r0, #0]
   24d10:	a80c      	add	r0, sp, #48	@ 0x30
   24d12:	7800      	ldrb	r0, [r0, #0]
   24d14:	2804      	cmp	r0, #4
   24d16:	d008      	beq.n	24d2a <_ZN20complex_dynamic_type3app17h9966d6692f2e0307E+0x106>
   24d18:	2803      	cmp	r0, #3
   24d1a:	d120      	bne.n	24d5e <_ZN20complex_dynamic_type3app17h9966d6692f2e0307E+0x13a>
   24d1c:	4626      	mov	r6, r4
   24d1e:	4816      	ldr	r0, [pc, #88]	@ (24d78 <_ZN20complex_dynamic_type3app17h9966d6692f2e0307E+0x154>)
   24d20:	2100      	movs	r1, #0
   24d22:	460a      	mov	r2, r1
   24d24:	460b      	mov	r3, r1
   24d26:	df03      	svc	3
   24d28:	e005      	b.n	24d36 <_ZN20complex_dynamic_type3app17h9966d6692f2e0307E+0x112>
   24d2a:	4626      	mov	r6, r4
   24d2c:	4812      	ldr	r0, [pc, #72]	@ (24d78 <_ZN20complex_dynamic_type3app17h9966d6692f2e0307E+0x154>)
   24d2e:	2100      	movs	r1, #0
   24d30:	460a      	mov	r2, r1
   24d32:	460b      	mov	r3, r1
   24d34:	df04      	svc	4
   24d36:	a804      	add	r0, sp, #16
   24d38:	7804      	ldrb	r4, [r0, #0]
   24d3a:	1c68      	adds	r0, r5, #1
   24d3c:	2251      	movs	r2, #81	@ 0x51
   24d3e:	4631      	mov	r1, r6
   24d40:	f006 f9e2 	bl	2b108 <__aeabi_memcpy>
   24d44:	9802      	ldr	r0, [sp, #8]
   24d46:	7028      	strb	r0, [r5, #0]
   24d48:	2c02      	cmp	r4, #2
   24d4a:	d006      	beq.n	24d5a <_ZN20complex_dynamic_type3app17h9966d6692f2e0307E+0x136>
   24d4c:	480a      	ldr	r0, [pc, #40]	@ (24d78 <_ZN20complex_dynamic_type3app17h9966d6692f2e0307E+0x154>)
   24d4e:	2102      	movs	r1, #2
   24d50:	2200      	movs	r2, #0
   24d52:	4613      	mov	r3, r2
   24d54:	2c04      	cmp	r4, #4
   24d56:	d10b      	bne.n	24d70 <_ZN20complex_dynamic_type3app17h9966d6692f2e0307E+0x14c>
   24d58:	df04      	svc	4
   24d5a:	b021      	add	sp, #132	@ 0x84
   24d5c:	bdf0      	pop	{r4, r5, r6, r7, pc}
   24d5e:	1c68      	adds	r0, r5, #1
   24d60:	2251      	movs	r2, #81	@ 0x51
   24d62:	4621      	mov	r1, r4
   24d64:	f006 f9d0 	bl	2b108 <__aeabi_memcpy>
   24d68:	9802      	ldr	r0, [sp, #8]
   24d6a:	7028      	strb	r0, [r5, #0]
   24d6c:	b021      	add	sp, #132	@ 0x84
   24d6e:	bdf0      	pop	{r4, r5, r6, r7, pc}
   24d70:	df03      	svc	3
   24d72:	b021      	add	sp, #132	@ 0x84
   24d74:	bdf0      	pop	{r4, r5, r6, r7, pc}
   24d76:	46c0      	nop			@ (mov r8, r8)
   24d78:	0000196b 	.word	0x0000196b

00024d7c <_ZN20complex_dynamic_type3app17ha039ed984250b37aE>:
   24d7c:	b5f0      	push	{r4, r5, r6, r7, lr}
   24d7e:	af03      	add	r7, sp, #12
   24d80:	b0a5      	sub	sp, #148	@ 0x94
   24d82:	9003      	str	r0, [sp, #12]
   24d84:	a804      	add	r0, sp, #16
   24d86:	2602      	movs	r6, #2
   24d88:	7006      	strb	r6, [r0, #0]
   24d8a:	1c40      	adds	r0, r0, #1
   24d8c:	9002      	str	r0, [sp, #8]
   24d8e:	252d      	movs	r5, #45	@ 0x2d
   24d90:	462a      	mov	r2, r5
   24d92:	f006 f9b9 	bl	2b108 <__aeabi_memcpy>
   24d96:	ac10      	add	r4, sp, #64	@ 0x40
   24d98:	1c60      	adds	r0, r4, #1
   24d9a:	2153      	movs	r1, #83	@ 0x53
   24d9c:	9001      	str	r0, [sp, #4]
   24d9e:	f005 fff3 	bl	2ad88 <__aeabi_memclr>
   24da2:	7026      	strb	r6, [r4, #0]
   24da4:	484a      	ldr	r0, [pc, #296]	@ (24ed0 <_ZN20complex_dynamic_type3app17ha039ed984250b37aE+0x154>)
   24da6:	4631      	mov	r1, r6
   24da8:	9a02      	ldr	r2, [sp, #8]
   24daa:	462b      	mov	r3, r5
   24dac:	df04      	svc	4
   24dae:	2802      	cmp	r0, #2
   24db0:	d104      	bne.n	24dbc <_ZN20complex_dynamic_type3app17ha039ed984250b37aE+0x40>
   24db2:	2001      	movs	r0, #1
   24db4:	9a03      	ldr	r2, [sp, #12]
   24db6:	7010      	strb	r0, [r2, #0]
   24db8:	6051      	str	r1, [r2, #4]
   24dba:	e02e      	b.n	24e1a <_ZN20complex_dynamic_type3app17ha039ed984250b37aE+0x9e>
   24dbc:	9d03      	ldr	r5, [sp, #12]
   24dbe:	a804      	add	r0, sp, #16
   24dc0:	2104      	movs	r1, #4
   24dc2:	7001      	strb	r1, [r0, #0]
   24dc4:	4842      	ldr	r0, [pc, #264]	@ (24ed0 <_ZN20complex_dynamic_type3app17ha039ed984250b37aE+0x154>)
   24dc6:	2107      	movs	r1, #7
   24dc8:	2353      	movs	r3, #83	@ 0x53
   24dca:	9c01      	ldr	r4, [sp, #4]
   24dcc:	4622      	mov	r2, r4
   24dce:	df03      	svc	3
   24dd0:	2802      	cmp	r0, #2
   24dd2:	d10e      	bne.n	24df2 <_ZN20complex_dynamic_type3app17ha039ed984250b37aE+0x76>
   24dd4:	2001      	movs	r0, #1
   24dd6:	7028      	strb	r0, [r5, #0]
   24dd8:	6069      	str	r1, [r5, #4]
   24dda:	a810      	add	r0, sp, #64	@ 0x40
   24ddc:	7800      	ldrb	r0, [r0, #0]
   24dde:	2802      	cmp	r0, #2
   24de0:	d01b      	beq.n	24e1a <_ZN20complex_dynamic_type3app17ha039ed984250b37aE+0x9e>
   24de2:	2803      	cmp	r0, #3
   24de4:	d014      	beq.n	24e10 <_ZN20complex_dynamic_type3app17ha039ed984250b37aE+0x94>
   24de6:	483a      	ldr	r0, [pc, #232]	@ (24ed0 <_ZN20complex_dynamic_type3app17ha039ed984250b37aE+0x154>)
   24de8:	2107      	movs	r1, #7
   24dea:	2200      	movs	r2, #0
   24dec:	4613      	mov	r3, r2
   24dee:	df04      	svc	4
   24df0:	e013      	b.n	24e1a <_ZN20complex_dynamic_type3app17ha039ed984250b37aE+0x9e>
   24df2:	a810      	add	r0, sp, #64	@ 0x40
   24df4:	2103      	movs	r1, #3
   24df6:	7001      	strb	r1, [r0, #0]
   24df8:	4835      	ldr	r0, [pc, #212]	@ (24ed0 <_ZN20complex_dynamic_type3app17ha039ed984250b37aE+0x154>)
   24dfa:	2602      	movs	r6, #2
   24dfc:	2207      	movs	r2, #7
   24dfe:	2300      	movs	r3, #0
   24e00:	4631      	mov	r1, r6
   24e02:	9302      	str	r3, [sp, #8]
   24e04:	df02      	svc	2
   24e06:	2880      	cmp	r0, #128	@ 0x80
   24e08:	d21b      	bcs.n	24e42 <_ZN20complex_dynamic_type3app17ha039ed984250b37aE+0xc6>
   24e0a:	2001      	movs	r0, #1
   24e0c:	7028      	strb	r0, [r5, #0]
   24e0e:	6069      	str	r1, [r5, #4]
   24e10:	482f      	ldr	r0, [pc, #188]	@ (24ed0 <_ZN20complex_dynamic_type3app17ha039ed984250b37aE+0x154>)
   24e12:	2107      	movs	r1, #7
   24e14:	2200      	movs	r2, #0
   24e16:	4613      	mov	r3, r2
   24e18:	df03      	svc	3
   24e1a:	a804      	add	r0, sp, #16
   24e1c:	7800      	ldrb	r0, [r0, #0]
   24e1e:	2802      	cmp	r0, #2
   24e20:	d047      	beq.n	24eb2 <_ZN20complex_dynamic_type3app17ha039ed984250b37aE+0x136>
   24e22:	2804      	cmp	r0, #4
   24e24:	d106      	bne.n	24e34 <_ZN20complex_dynamic_type3app17ha039ed984250b37aE+0xb8>
   24e26:	482a      	ldr	r0, [pc, #168]	@ (24ed0 <_ZN20complex_dynamic_type3app17ha039ed984250b37aE+0x154>)
   24e28:	2102      	movs	r1, #2
   24e2a:	2200      	movs	r2, #0
   24e2c:	4613      	mov	r3, r2
   24e2e:	df04      	svc	4
   24e30:	b025      	add	sp, #148	@ 0x94
   24e32:	bdf0      	pop	{r4, r5, r6, r7, pc}
   24e34:	4826      	ldr	r0, [pc, #152]	@ (24ed0 <_ZN20complex_dynamic_type3app17ha039ed984250b37aE+0x154>)
   24e36:	2102      	movs	r1, #2
   24e38:	2200      	movs	r2, #0
   24e3a:	4613      	mov	r3, r2
   24e3c:	df03      	svc	3
   24e3e:	b025      	add	sp, #148	@ 0x94
   24e40:	bdf0      	pop	{r4, r5, r6, r7, pc}
   24e42:	a804      	add	r0, sp, #16
   24e44:	7800      	ldrb	r0, [r0, #0]
   24e46:	2802      	cmp	r0, #2
   24e48:	d00c      	beq.n	24e64 <_ZN20complex_dynamic_type3app17ha039ed984250b37aE+0xe8>
   24e4a:	2803      	cmp	r0, #3
   24e4c:	d105      	bne.n	24e5a <_ZN20complex_dynamic_type3app17ha039ed984250b37aE+0xde>
   24e4e:	4820      	ldr	r0, [pc, #128]	@ (24ed0 <_ZN20complex_dynamic_type3app17ha039ed984250b37aE+0x154>)
   24e50:	2102      	movs	r1, #2
   24e52:	2200      	movs	r2, #0
   24e54:	4613      	mov	r3, r2
   24e56:	df03      	svc	3
   24e58:	e004      	b.n	24e64 <_ZN20complex_dynamic_type3app17ha039ed984250b37aE+0xe8>
   24e5a:	481d      	ldr	r0, [pc, #116]	@ (24ed0 <_ZN20complex_dynamic_type3app17ha039ed984250b37aE+0x154>)
   24e5c:	2102      	movs	r1, #2
   24e5e:	2200      	movs	r2, #0
   24e60:	4613      	mov	r3, r2
   24e62:	df04      	svc	4
   24e64:	a804      	add	r0, sp, #16
   24e66:	7006      	strb	r6, [r0, #0]
   24e68:	a810      	add	r0, sp, #64	@ 0x40
   24e6a:	7800      	ldrb	r0, [r0, #0]
   24e6c:	2804      	cmp	r0, #4
   24e6e:	d008      	beq.n	24e82 <_ZN20complex_dynamic_type3app17ha039ed984250b37aE+0x106>
   24e70:	2803      	cmp	r0, #3
   24e72:	d120      	bne.n	24eb6 <_ZN20complex_dynamic_type3app17ha039ed984250b37aE+0x13a>
   24e74:	4626      	mov	r6, r4
   24e76:	4816      	ldr	r0, [pc, #88]	@ (24ed0 <_ZN20complex_dynamic_type3app17ha039ed984250b37aE+0x154>)
   24e78:	2107      	movs	r1, #7
   24e7a:	2200      	movs	r2, #0
   24e7c:	4613      	mov	r3, r2
   24e7e:	df03      	svc	3
   24e80:	e005      	b.n	24e8e <_ZN20complex_dynamic_type3app17ha039ed984250b37aE+0x112>
   24e82:	4626      	mov	r6, r4
   24e84:	4812      	ldr	r0, [pc, #72]	@ (24ed0 <_ZN20complex_dynamic_type3app17ha039ed984250b37aE+0x154>)
   24e86:	2107      	movs	r1, #7
   24e88:	2200      	movs	r2, #0
   24e8a:	4613      	mov	r3, r2
   24e8c:	df04      	svc	4
   24e8e:	a804      	add	r0, sp, #16
   24e90:	7804      	ldrb	r4, [r0, #0]
   24e92:	1c68      	adds	r0, r5, #1
   24e94:	2253      	movs	r2, #83	@ 0x53
   24e96:	4631      	mov	r1, r6
   24e98:	f006 f936 	bl	2b108 <__aeabi_memcpy>
   24e9c:	9802      	ldr	r0, [sp, #8]
   24e9e:	7028      	strb	r0, [r5, #0]
   24ea0:	2c02      	cmp	r4, #2
   24ea2:	d006      	beq.n	24eb2 <_ZN20complex_dynamic_type3app17ha039ed984250b37aE+0x136>
   24ea4:	480a      	ldr	r0, [pc, #40]	@ (24ed0 <_ZN20complex_dynamic_type3app17ha039ed984250b37aE+0x154>)
   24ea6:	2102      	movs	r1, #2
   24ea8:	2200      	movs	r2, #0
   24eaa:	4613      	mov	r3, r2
   24eac:	2c04      	cmp	r4, #4
   24eae:	d10b      	bne.n	24ec8 <_ZN20complex_dynamic_type3app17ha039ed984250b37aE+0x14c>
   24eb0:	df04      	svc	4
   24eb2:	b025      	add	sp, #148	@ 0x94
   24eb4:	bdf0      	pop	{r4, r5, r6, r7, pc}
   24eb6:	1c68      	adds	r0, r5, #1
   24eb8:	2253      	movs	r2, #83	@ 0x53
   24eba:	4621      	mov	r1, r4
   24ebc:	f006 f924 	bl	2b108 <__aeabi_memcpy>
   24ec0:	9802      	ldr	r0, [sp, #8]
   24ec2:	7028      	strb	r0, [r5, #0]
   24ec4:	b025      	add	sp, #148	@ 0x94
   24ec6:	bdf0      	pop	{r4, r5, r6, r7, pc}
   24ec8:	df03      	svc	3
   24eca:	b025      	add	sp, #148	@ 0x94
   24ecc:	bdf0      	pop	{r4, r5, r6, r7, pc}
   24ece:	46c0      	nop			@ (mov r8, r8)
   24ed0:	00000ec3 	.word	0x00000ec3

00024ed4 <_ZN20complex_dynamic_type3app17ha16940b78001fdd6E>:
   24ed4:	b5f0      	push	{r4, r5, r6, r7, lr}
   24ed6:	af03      	add	r7, sp, #12
   24ed8:	b0a9      	sub	sp, #164	@ 0xa4
   24eda:	9004      	str	r0, [sp, #16]
   24edc:	a805      	add	r0, sp, #20
   24ede:	2402      	movs	r4, #2
   24ee0:	7004      	strb	r4, [r0, #0]
   24ee2:	1c46      	adds	r6, r0, #1
   24ee4:	222a      	movs	r2, #42	@ 0x2a
   24ee6:	9203      	str	r2, [sp, #12]
   24ee8:	4630      	mov	r0, r6
   24eea:	f006 f90d 	bl	2b108 <__aeabi_memcpy>
   24eee:	ad10      	add	r5, sp, #64	@ 0x40
   24ef0:	1c68      	adds	r0, r5, #1
   24ef2:	2163      	movs	r1, #99	@ 0x63
   24ef4:	9002      	str	r0, [sp, #8]
   24ef6:	f005 ff47 	bl	2ad88 <__aeabi_memclr>
   24efa:	9401      	str	r4, [sp, #4]
   24efc:	702c      	strb	r4, [r5, #0]
   24efe:	4848      	ldr	r0, [pc, #288]	@ (25020 <_ZN20complex_dynamic_type3app17ha16940b78001fdd6E+0x14c>)
   24f00:	2504      	movs	r5, #4
   24f02:	4629      	mov	r1, r5
   24f04:	4632      	mov	r2, r6
   24f06:	9b03      	ldr	r3, [sp, #12]
   24f08:	df04      	svc	4
   24f0a:	2802      	cmp	r0, #2
   24f0c:	d104      	bne.n	24f18 <_ZN20complex_dynamic_type3app17ha16940b78001fdd6E+0x44>
   24f0e:	2001      	movs	r0, #1
   24f10:	9a04      	ldr	r2, [sp, #16]
   24f12:	7010      	strb	r0, [r2, #0]
   24f14:	6051      	str	r1, [r2, #4]
   24f16:	e02c      	b.n	24f72 <_ZN20complex_dynamic_type3app17ha16940b78001fdd6E+0x9e>
   24f18:	9c04      	ldr	r4, [sp, #16]
   24f1a:	a805      	add	r0, sp, #20
   24f1c:	7005      	strb	r5, [r0, #0]
   24f1e:	4840      	ldr	r0, [pc, #256]	@ (25020 <_ZN20complex_dynamic_type3app17ha16940b78001fdd6E+0x14c>)
   24f20:	2100      	movs	r1, #0
   24f22:	2363      	movs	r3, #99	@ 0x63
   24f24:	9a02      	ldr	r2, [sp, #8]
   24f26:	df03      	svc	3
   24f28:	2802      	cmp	r0, #2
   24f2a:	d10e      	bne.n	24f4a <_ZN20complex_dynamic_type3app17ha16940b78001fdd6E+0x76>
   24f2c:	2001      	movs	r0, #1
   24f2e:	7020      	strb	r0, [r4, #0]
   24f30:	6061      	str	r1, [r4, #4]
   24f32:	a810      	add	r0, sp, #64	@ 0x40
   24f34:	7800      	ldrb	r0, [r0, #0]
   24f36:	2802      	cmp	r0, #2
   24f38:	d01b      	beq.n	24f72 <_ZN20complex_dynamic_type3app17ha16940b78001fdd6E+0x9e>
   24f3a:	2803      	cmp	r0, #3
   24f3c:	d014      	beq.n	24f68 <_ZN20complex_dynamic_type3app17ha16940b78001fdd6E+0x94>
   24f3e:	4838      	ldr	r0, [pc, #224]	@ (25020 <_ZN20complex_dynamic_type3app17ha16940b78001fdd6E+0x14c>)
   24f40:	2100      	movs	r1, #0
   24f42:	460a      	mov	r2, r1
   24f44:	460b      	mov	r3, r1
   24f46:	df04      	svc	4
   24f48:	e013      	b.n	24f72 <_ZN20complex_dynamic_type3app17ha16940b78001fdd6E+0x9e>
   24f4a:	a810      	add	r0, sp, #64	@ 0x40
   24f4c:	2103      	movs	r1, #3
   24f4e:	7001      	strb	r1, [r0, #0]
   24f50:	4833      	ldr	r0, [pc, #204]	@ (25020 <_ZN20complex_dynamic_type3app17ha16940b78001fdd6E+0x14c>)
   24f52:	2104      	movs	r1, #4
   24f54:	2600      	movs	r6, #0
   24f56:	4632      	mov	r2, r6
   24f58:	4633      	mov	r3, r6
   24f5a:	df02      	svc	2
   24f5c:	2880      	cmp	r0, #128	@ 0x80
   24f5e:	4625      	mov	r5, r4
   24f60:	d21b      	bcs.n	24f9a <_ZN20complex_dynamic_type3app17ha16940b78001fdd6E+0xc6>
   24f62:	2001      	movs	r0, #1
   24f64:	7028      	strb	r0, [r5, #0]
   24f66:	6069      	str	r1, [r5, #4]
   24f68:	482d      	ldr	r0, [pc, #180]	@ (25020 <_ZN20complex_dynamic_type3app17ha16940b78001fdd6E+0x14c>)
   24f6a:	2100      	movs	r1, #0
   24f6c:	460a      	mov	r2, r1
   24f6e:	460b      	mov	r3, r1
   24f70:	df03      	svc	3
   24f72:	a805      	add	r0, sp, #20
   24f74:	7800      	ldrb	r0, [r0, #0]
   24f76:	2802      	cmp	r0, #2
   24f78:	d045      	beq.n	25006 <_ZN20complex_dynamic_type3app17ha16940b78001fdd6E+0x132>
   24f7a:	2804      	cmp	r0, #4
   24f7c:	d106      	bne.n	24f8c <_ZN20complex_dynamic_type3app17ha16940b78001fdd6E+0xb8>
   24f7e:	4828      	ldr	r0, [pc, #160]	@ (25020 <_ZN20complex_dynamic_type3app17ha16940b78001fdd6E+0x14c>)
   24f80:	2104      	movs	r1, #4
   24f82:	2200      	movs	r2, #0
   24f84:	4613      	mov	r3, r2
   24f86:	df04      	svc	4
   24f88:	b029      	add	sp, #164	@ 0xa4
   24f8a:	bdf0      	pop	{r4, r5, r6, r7, pc}
   24f8c:	4824      	ldr	r0, [pc, #144]	@ (25020 <_ZN20complex_dynamic_type3app17ha16940b78001fdd6E+0x14c>)
   24f8e:	2104      	movs	r1, #4
   24f90:	2200      	movs	r2, #0
   24f92:	4613      	mov	r3, r2
   24f94:	df03      	svc	3
   24f96:	b029      	add	sp, #164	@ 0xa4
   24f98:	bdf0      	pop	{r4, r5, r6, r7, pc}
   24f9a:	a805      	add	r0, sp, #20
   24f9c:	7800      	ldrb	r0, [r0, #0]
   24f9e:	2802      	cmp	r0, #2
   24fa0:	d00c      	beq.n	24fbc <_ZN20complex_dynamic_type3app17ha16940b78001fdd6E+0xe8>
   24fa2:	2803      	cmp	r0, #3
   24fa4:	d105      	bne.n	24fb2 <_ZN20complex_dynamic_type3app17ha16940b78001fdd6E+0xde>
   24fa6:	481e      	ldr	r0, [pc, #120]	@ (25020 <_ZN20complex_dynamic_type3app17ha16940b78001fdd6E+0x14c>)
   24fa8:	2104      	movs	r1, #4
   24faa:	2200      	movs	r2, #0
   24fac:	4613      	mov	r3, r2
   24fae:	df03      	svc	3
   24fb0:	e004      	b.n	24fbc <_ZN20complex_dynamic_type3app17ha16940b78001fdd6E+0xe8>
   24fb2:	481b      	ldr	r0, [pc, #108]	@ (25020 <_ZN20complex_dynamic_type3app17ha16940b78001fdd6E+0x14c>)
   24fb4:	2104      	movs	r1, #4
   24fb6:	2200      	movs	r2, #0
   24fb8:	4613      	mov	r3, r2
   24fba:	df04      	svc	4
   24fbc:	a805      	add	r0, sp, #20
   24fbe:	9901      	ldr	r1, [sp, #4]
   24fc0:	7001      	strb	r1, [r0, #0]
   24fc2:	a810      	add	r0, sp, #64	@ 0x40
   24fc4:	7800      	ldrb	r0, [r0, #0]
   24fc6:	2804      	cmp	r0, #4
   24fc8:	d007      	beq.n	24fda <_ZN20complex_dynamic_type3app17ha16940b78001fdd6E+0x106>
   24fca:	2803      	cmp	r0, #3
   24fcc:	d11d      	bne.n	2500a <_ZN20complex_dynamic_type3app17ha16940b78001fdd6E+0x136>
   24fce:	4814      	ldr	r0, [pc, #80]	@ (25020 <_ZN20complex_dynamic_type3app17ha16940b78001fdd6E+0x14c>)
   24fd0:	2100      	movs	r1, #0
   24fd2:	460a      	mov	r2, r1
   24fd4:	460b      	mov	r3, r1
   24fd6:	df03      	svc	3
   24fd8:	e004      	b.n	24fe4 <_ZN20complex_dynamic_type3app17ha16940b78001fdd6E+0x110>
   24fda:	4811      	ldr	r0, [pc, #68]	@ (25020 <_ZN20complex_dynamic_type3app17ha16940b78001fdd6E+0x14c>)
   24fdc:	2100      	movs	r1, #0
   24fde:	460a      	mov	r2, r1
   24fe0:	460b      	mov	r3, r1
   24fe2:	df04      	svc	4
   24fe4:	a805      	add	r0, sp, #20
   24fe6:	7804      	ldrb	r4, [r0, #0]
   24fe8:	1c68      	adds	r0, r5, #1
   24fea:	2263      	movs	r2, #99	@ 0x63
   24fec:	9902      	ldr	r1, [sp, #8]
   24fee:	f006 f88b 	bl	2b108 <__aeabi_memcpy>
   24ff2:	702e      	strb	r6, [r5, #0]
   24ff4:	2c02      	cmp	r4, #2
   24ff6:	d006      	beq.n	25006 <_ZN20complex_dynamic_type3app17ha16940b78001fdd6E+0x132>
   24ff8:	4809      	ldr	r0, [pc, #36]	@ (25020 <_ZN20complex_dynamic_type3app17ha16940b78001fdd6E+0x14c>)
   24ffa:	2104      	movs	r1, #4
   24ffc:	2200      	movs	r2, #0
   24ffe:	4613      	mov	r3, r2
   25000:	2c04      	cmp	r4, #4
   25002:	d10a      	bne.n	2501a <_ZN20complex_dynamic_type3app17ha16940b78001fdd6E+0x146>
   25004:	df04      	svc	4
   25006:	b029      	add	sp, #164	@ 0xa4
   25008:	bdf0      	pop	{r4, r5, r6, r7, pc}
   2500a:	1c68      	adds	r0, r5, #1
   2500c:	2263      	movs	r2, #99	@ 0x63
   2500e:	9902      	ldr	r1, [sp, #8]
   25010:	f006 f87a 	bl	2b108 <__aeabi_memcpy>
   25014:	702e      	strb	r6, [r5, #0]
   25016:	b029      	add	sp, #164	@ 0xa4
   25018:	bdf0      	pop	{r4, r5, r6, r7, pc}
   2501a:	df03      	svc	3
   2501c:	b029      	add	sp, #164	@ 0xa4
   2501e:	bdf0      	pop	{r4, r5, r6, r7, pc}
   25020:	00001c7c 	.word	0x00001c7c

00025024 <_ZN20complex_dynamic_type3app17ha2047110057ce593E>:
   25024:	b5f0      	push	{r4, r5, r6, r7, lr}
   25026:	af03      	add	r7, sp, #12
   25028:	b0a7      	sub	sp, #156	@ 0x9c
   2502a:	9004      	str	r0, [sp, #16]
   2502c:	a805      	add	r0, sp, #20
   2502e:	2402      	movs	r4, #2
   25030:	7004      	strb	r4, [r0, #0]
   25032:	1c40      	adds	r0, r0, #1
   25034:	9003      	str	r0, [sp, #12]
   25036:	252a      	movs	r5, #42	@ 0x2a
   25038:	462a      	mov	r2, r5
   2503a:	f006 f865 	bl	2b108 <__aeabi_memcpy>
   2503e:	ae10      	add	r6, sp, #64	@ 0x40
   25040:	1c70      	adds	r0, r6, #1
   25042:	2159      	movs	r1, #89	@ 0x59
   25044:	9002      	str	r0, [sp, #8]
   25046:	f005 fe9f 	bl	2ad88 <__aeabi_memclr>
   2504a:	9401      	str	r4, [sp, #4]
   2504c:	7034      	strb	r4, [r6, #0]
   2504e:	4849      	ldr	r0, [pc, #292]	@ (25174 <_ZN20complex_dynamic_type3app17ha2047110057ce593E+0x150>)
   25050:	2601      	movs	r6, #1
   25052:	4631      	mov	r1, r6
   25054:	9a03      	ldr	r2, [sp, #12]
   25056:	462b      	mov	r3, r5
   25058:	df04      	svc	4
   2505a:	2802      	cmp	r0, #2
   2505c:	d103      	bne.n	25066 <_ZN20complex_dynamic_type3app17ha2047110057ce593E+0x42>
   2505e:	9804      	ldr	r0, [sp, #16]
   25060:	7006      	strb	r6, [r0, #0]
   25062:	6041      	str	r1, [r0, #4]
   25064:	e02c      	b.n	250c0 <_ZN20complex_dynamic_type3app17ha2047110057ce593E+0x9c>
   25066:	a805      	add	r0, sp, #20
   25068:	2104      	movs	r1, #4
   2506a:	7001      	strb	r1, [r0, #0]
   2506c:	4841      	ldr	r0, [pc, #260]	@ (25174 <_ZN20complex_dynamic_type3app17ha2047110057ce593E+0x150>)
   2506e:	2403      	movs	r4, #3
   25070:	2359      	movs	r3, #89	@ 0x59
   25072:	4621      	mov	r1, r4
   25074:	9a02      	ldr	r2, [sp, #8]
   25076:	df03      	svc	3
   25078:	2802      	cmp	r0, #2
   2507a:	d10e      	bne.n	2509a <_ZN20complex_dynamic_type3app17ha2047110057ce593E+0x76>
   2507c:	9804      	ldr	r0, [sp, #16]
   2507e:	7006      	strb	r6, [r0, #0]
   25080:	6041      	str	r1, [r0, #4]
   25082:	a810      	add	r0, sp, #64	@ 0x40
   25084:	7800      	ldrb	r0, [r0, #0]
   25086:	2802      	cmp	r0, #2
   25088:	d01a      	beq.n	250c0 <_ZN20complex_dynamic_type3app17ha2047110057ce593E+0x9c>
   2508a:	2803      	cmp	r0, #3
   2508c:	d013      	beq.n	250b6 <_ZN20complex_dynamic_type3app17ha2047110057ce593E+0x92>
   2508e:	4839      	ldr	r0, [pc, #228]	@ (25174 <_ZN20complex_dynamic_type3app17ha2047110057ce593E+0x150>)
   25090:	2103      	movs	r1, #3
   25092:	2200      	movs	r2, #0
   25094:	4613      	mov	r3, r2
   25096:	df04      	svc	4
   25098:	e012      	b.n	250c0 <_ZN20complex_dynamic_type3app17ha2047110057ce593E+0x9c>
   2509a:	a810      	add	r0, sp, #64	@ 0x40
   2509c:	7004      	strb	r4, [r0, #0]
   2509e:	4835      	ldr	r0, [pc, #212]	@ (25174 <_ZN20complex_dynamic_type3app17ha2047110057ce593E+0x150>)
   250a0:	2501      	movs	r5, #1
   250a2:	2600      	movs	r6, #0
   250a4:	4629      	mov	r1, r5
   250a6:	4622      	mov	r2, r4
   250a8:	4633      	mov	r3, r6
   250aa:	df02      	svc	2
   250ac:	2880      	cmp	r0, #128	@ 0x80
   250ae:	d21b      	bcs.n	250e8 <_ZN20complex_dynamic_type3app17ha2047110057ce593E+0xc4>
   250b0:	9804      	ldr	r0, [sp, #16]
   250b2:	7005      	strb	r5, [r0, #0]
   250b4:	6041      	str	r1, [r0, #4]
   250b6:	482f      	ldr	r0, [pc, #188]	@ (25174 <_ZN20complex_dynamic_type3app17ha2047110057ce593E+0x150>)
   250b8:	2103      	movs	r1, #3
   250ba:	2200      	movs	r2, #0
   250bc:	4613      	mov	r3, r2
   250be:	df03      	svc	3
   250c0:	a805      	add	r0, sp, #20
   250c2:	7800      	ldrb	r0, [r0, #0]
   250c4:	2802      	cmp	r0, #2
   250c6:	d046      	beq.n	25156 <_ZN20complex_dynamic_type3app17ha2047110057ce593E+0x132>
   250c8:	2804      	cmp	r0, #4
   250ca:	d106      	bne.n	250da <_ZN20complex_dynamic_type3app17ha2047110057ce593E+0xb6>
   250cc:	4829      	ldr	r0, [pc, #164]	@ (25174 <_ZN20complex_dynamic_type3app17ha2047110057ce593E+0x150>)
   250ce:	2101      	movs	r1, #1
   250d0:	2200      	movs	r2, #0
   250d2:	4613      	mov	r3, r2
   250d4:	df04      	svc	4
   250d6:	b027      	add	sp, #156	@ 0x9c
   250d8:	bdf0      	pop	{r4, r5, r6, r7, pc}
   250da:	4826      	ldr	r0, [pc, #152]	@ (25174 <_ZN20complex_dynamic_type3app17ha2047110057ce593E+0x150>)
   250dc:	2101      	movs	r1, #1
   250de:	2200      	movs	r2, #0
   250e0:	4613      	mov	r3, r2
   250e2:	df03      	svc	3
   250e4:	b027      	add	sp, #156	@ 0x9c
   250e6:	bdf0      	pop	{r4, r5, r6, r7, pc}
   250e8:	a805      	add	r0, sp, #20
   250ea:	7800      	ldrb	r0, [r0, #0]
   250ec:	2802      	cmp	r0, #2
   250ee:	d00c      	beq.n	2510a <_ZN20complex_dynamic_type3app17ha2047110057ce593E+0xe6>
   250f0:	2803      	cmp	r0, #3
   250f2:	d105      	bne.n	25100 <_ZN20complex_dynamic_type3app17ha2047110057ce593E+0xdc>
   250f4:	481f      	ldr	r0, [pc, #124]	@ (25174 <_ZN20complex_dynamic_type3app17ha2047110057ce593E+0x150>)
   250f6:	2101      	movs	r1, #1
   250f8:	2200      	movs	r2, #0
   250fa:	4613      	mov	r3, r2
   250fc:	df03      	svc	3
   250fe:	e004      	b.n	2510a <_ZN20complex_dynamic_type3app17ha2047110057ce593E+0xe6>
   25100:	481c      	ldr	r0, [pc, #112]	@ (25174 <_ZN20complex_dynamic_type3app17ha2047110057ce593E+0x150>)
   25102:	2101      	movs	r1, #1
   25104:	2200      	movs	r2, #0
   25106:	4613      	mov	r3, r2
   25108:	df04      	svc	4
   2510a:	a805      	add	r0, sp, #20
   2510c:	9901      	ldr	r1, [sp, #4]
   2510e:	7001      	strb	r1, [r0, #0]
   25110:	a810      	add	r0, sp, #64	@ 0x40
   25112:	7800      	ldrb	r0, [r0, #0]
   25114:	2804      	cmp	r0, #4
   25116:	d007      	beq.n	25128 <_ZN20complex_dynamic_type3app17ha2047110057ce593E+0x104>
   25118:	2803      	cmp	r0, #3
   2511a:	d11e      	bne.n	2515a <_ZN20complex_dynamic_type3app17ha2047110057ce593E+0x136>
   2511c:	4815      	ldr	r0, [pc, #84]	@ (25174 <_ZN20complex_dynamic_type3app17ha2047110057ce593E+0x150>)
   2511e:	2103      	movs	r1, #3
   25120:	2200      	movs	r2, #0
   25122:	4613      	mov	r3, r2
   25124:	df03      	svc	3
   25126:	e004      	b.n	25132 <_ZN20complex_dynamic_type3app17ha2047110057ce593E+0x10e>
   25128:	4812      	ldr	r0, [pc, #72]	@ (25174 <_ZN20complex_dynamic_type3app17ha2047110057ce593E+0x150>)
   2512a:	2103      	movs	r1, #3
   2512c:	2200      	movs	r2, #0
   2512e:	4613      	mov	r3, r2
   25130:	df04      	svc	4
   25132:	a805      	add	r0, sp, #20
   25134:	7804      	ldrb	r4, [r0, #0]
   25136:	9d04      	ldr	r5, [sp, #16]
   25138:	1c68      	adds	r0, r5, #1
   2513a:	2259      	movs	r2, #89	@ 0x59
   2513c:	9902      	ldr	r1, [sp, #8]
   2513e:	f005 ffe3 	bl	2b108 <__aeabi_memcpy>
   25142:	702e      	strb	r6, [r5, #0]
   25144:	2c02      	cmp	r4, #2
   25146:	d006      	beq.n	25156 <_ZN20complex_dynamic_type3app17ha2047110057ce593E+0x132>
   25148:	480a      	ldr	r0, [pc, #40]	@ (25174 <_ZN20complex_dynamic_type3app17ha2047110057ce593E+0x150>)
   2514a:	2101      	movs	r1, #1
   2514c:	2200      	movs	r2, #0
   2514e:	4613      	mov	r3, r2
   25150:	2c04      	cmp	r4, #4
   25152:	d10b      	bne.n	2516c <_ZN20complex_dynamic_type3app17ha2047110057ce593E+0x148>
   25154:	df04      	svc	4
   25156:	b027      	add	sp, #156	@ 0x9c
   25158:	bdf0      	pop	{r4, r5, r6, r7, pc}
   2515a:	9c04      	ldr	r4, [sp, #16]
   2515c:	9902      	ldr	r1, [sp, #8]
   2515e:	1c60      	adds	r0, r4, #1
   25160:	2259      	movs	r2, #89	@ 0x59
   25162:	f005 ffd1 	bl	2b108 <__aeabi_memcpy>
   25166:	7026      	strb	r6, [r4, #0]
   25168:	b027      	add	sp, #156	@ 0x9c
   2516a:	bdf0      	pop	{r4, r5, r6, r7, pc}
   2516c:	df03      	svc	3
   2516e:	b027      	add	sp, #156	@ 0x9c
   25170:	bdf0      	pop	{r4, r5, r6, r7, pc}
   25172:	46c0      	nop			@ (mov r8, r8)
   25174:	00000ed2 	.word	0x00000ed2

00025178 <_ZN20complex_dynamic_type3app17ha4c99e814e29a372E>:
   25178:	b5f0      	push	{r4, r5, r6, r7, lr}
   2517a:	af03      	add	r7, sp, #12
   2517c:	b091      	sub	sp, #68	@ 0x44
   2517e:	9002      	str	r0, [sp, #8]
   25180:	a803      	add	r0, sp, #12
   25182:	2502      	movs	r5, #2
   25184:	7005      	strb	r5, [r0, #0]
   25186:	1c46      	adds	r6, r0, #1
   25188:	221a      	movs	r2, #26
   2518a:	9201      	str	r2, [sp, #4]
   2518c:	4630      	mov	r0, r6
   2518e:	f005 ffbb 	bl	2b108 <__aeabi_memcpy>
   25192:	ac0a      	add	r4, sp, #40	@ 0x28
   25194:	1c60      	adds	r0, r4, #1
   25196:	211b      	movs	r1, #27
   25198:	9000      	str	r0, [sp, #0]
   2519a:	f005 fdf5 	bl	2ad88 <__aeabi_memclr>
   2519e:	7025      	strb	r5, [r4, #0]
   251a0:	484a      	ldr	r0, [pc, #296]	@ (252cc <_ZN20complex_dynamic_type3app17ha4c99e814e29a372E+0x154>)
   251a2:	2105      	movs	r1, #5
   251a4:	4632      	mov	r2, r6
   251a6:	9b01      	ldr	r3, [sp, #4]
   251a8:	df04      	svc	4
   251aa:	2802      	cmp	r0, #2
   251ac:	d104      	bne.n	251b8 <_ZN20complex_dynamic_type3app17ha4c99e814e29a372E+0x40>
   251ae:	2001      	movs	r0, #1
   251b0:	9a02      	ldr	r2, [sp, #8]
   251b2:	7010      	strb	r0, [r2, #0]
   251b4:	6051      	str	r1, [r2, #4]
   251b6:	e02e      	b.n	25216 <_ZN20complex_dynamic_type3app17ha4c99e814e29a372E+0x9e>
   251b8:	9d02      	ldr	r5, [sp, #8]
   251ba:	a803      	add	r0, sp, #12
   251bc:	2104      	movs	r1, #4
   251be:	7001      	strb	r1, [r0, #0]
   251c0:	4842      	ldr	r0, [pc, #264]	@ (252cc <_ZN20complex_dynamic_type3app17ha4c99e814e29a372E+0x154>)
   251c2:	2102      	movs	r1, #2
   251c4:	231b      	movs	r3, #27
   251c6:	9c00      	ldr	r4, [sp, #0]
   251c8:	4622      	mov	r2, r4
   251ca:	df03      	svc	3
   251cc:	2802      	cmp	r0, #2
   251ce:	d10e      	bne.n	251ee <_ZN20complex_dynamic_type3app17ha4c99e814e29a372E+0x76>
   251d0:	2001      	movs	r0, #1
   251d2:	7028      	strb	r0, [r5, #0]
   251d4:	6069      	str	r1, [r5, #4]
   251d6:	a80a      	add	r0, sp, #40	@ 0x28
   251d8:	7800      	ldrb	r0, [r0, #0]
   251da:	2802      	cmp	r0, #2
   251dc:	d01b      	beq.n	25216 <_ZN20complex_dynamic_type3app17ha4c99e814e29a372E+0x9e>
   251de:	2803      	cmp	r0, #3
   251e0:	d014      	beq.n	2520c <_ZN20complex_dynamic_type3app17ha4c99e814e29a372E+0x94>
   251e2:	483a      	ldr	r0, [pc, #232]	@ (252cc <_ZN20complex_dynamic_type3app17ha4c99e814e29a372E+0x154>)
   251e4:	2102      	movs	r1, #2
   251e6:	2200      	movs	r2, #0
   251e8:	4613      	mov	r3, r2
   251ea:	df04      	svc	4
   251ec:	e013      	b.n	25216 <_ZN20complex_dynamic_type3app17ha4c99e814e29a372E+0x9e>
   251ee:	a80a      	add	r0, sp, #40	@ 0x28
   251f0:	2103      	movs	r1, #3
   251f2:	7001      	strb	r1, [r0, #0]
   251f4:	4835      	ldr	r0, [pc, #212]	@ (252cc <_ZN20complex_dynamic_type3app17ha4c99e814e29a372E+0x154>)
   251f6:	2105      	movs	r1, #5
   251f8:	2602      	movs	r6, #2
   251fa:	2300      	movs	r3, #0
   251fc:	4632      	mov	r2, r6
   251fe:	9301      	str	r3, [sp, #4]
   25200:	df02      	svc	2
   25202:	2880      	cmp	r0, #128	@ 0x80
   25204:	d21b      	bcs.n	2523e <_ZN20complex_dynamic_type3app17ha4c99e814e29a372E+0xc6>
   25206:	2001      	movs	r0, #1
   25208:	7028      	strb	r0, [r5, #0]
   2520a:	6069      	str	r1, [r5, #4]
   2520c:	482f      	ldr	r0, [pc, #188]	@ (252cc <_ZN20complex_dynamic_type3app17ha4c99e814e29a372E+0x154>)
   2520e:	2102      	movs	r1, #2
   25210:	2200      	movs	r2, #0
   25212:	4613      	mov	r3, r2
   25214:	df03      	svc	3
   25216:	a803      	add	r0, sp, #12
   25218:	7800      	ldrb	r0, [r0, #0]
   2521a:	2802      	cmp	r0, #2
   2521c:	d047      	beq.n	252ae <_ZN20complex_dynamic_type3app17ha4c99e814e29a372E+0x136>
   2521e:	2804      	cmp	r0, #4
   25220:	d106      	bne.n	25230 <_ZN20complex_dynamic_type3app17ha4c99e814e29a372E+0xb8>
   25222:	482a      	ldr	r0, [pc, #168]	@ (252cc <_ZN20complex_dynamic_type3app17ha4c99e814e29a372E+0x154>)
   25224:	2105      	movs	r1, #5
   25226:	2200      	movs	r2, #0
   25228:	4613      	mov	r3, r2
   2522a:	df04      	svc	4
   2522c:	b011      	add	sp, #68	@ 0x44
   2522e:	bdf0      	pop	{r4, r5, r6, r7, pc}
   25230:	4826      	ldr	r0, [pc, #152]	@ (252cc <_ZN20complex_dynamic_type3app17ha4c99e814e29a372E+0x154>)
   25232:	2105      	movs	r1, #5
   25234:	2200      	movs	r2, #0
   25236:	4613      	mov	r3, r2
   25238:	df03      	svc	3
   2523a:	b011      	add	sp, #68	@ 0x44
   2523c:	bdf0      	pop	{r4, r5, r6, r7, pc}
   2523e:	a803      	add	r0, sp, #12
   25240:	7800      	ldrb	r0, [r0, #0]
   25242:	2802      	cmp	r0, #2
   25244:	d00c      	beq.n	25260 <_ZN20complex_dynamic_type3app17ha4c99e814e29a372E+0xe8>
   25246:	2803      	cmp	r0, #3
   25248:	d105      	bne.n	25256 <_ZN20complex_dynamic_type3app17ha4c99e814e29a372E+0xde>
   2524a:	4820      	ldr	r0, [pc, #128]	@ (252cc <_ZN20complex_dynamic_type3app17ha4c99e814e29a372E+0x154>)
   2524c:	2105      	movs	r1, #5
   2524e:	2200      	movs	r2, #0
   25250:	4613      	mov	r3, r2
   25252:	df03      	svc	3
   25254:	e004      	b.n	25260 <_ZN20complex_dynamic_type3app17ha4c99e814e29a372E+0xe8>
   25256:	481d      	ldr	r0, [pc, #116]	@ (252cc <_ZN20complex_dynamic_type3app17ha4c99e814e29a372E+0x154>)
   25258:	2105      	movs	r1, #5
   2525a:	2200      	movs	r2, #0
   2525c:	4613      	mov	r3, r2
   2525e:	df04      	svc	4
   25260:	a803      	add	r0, sp, #12
   25262:	7006      	strb	r6, [r0, #0]
   25264:	a80a      	add	r0, sp, #40	@ 0x28
   25266:	7800      	ldrb	r0, [r0, #0]
   25268:	2804      	cmp	r0, #4
   2526a:	d008      	beq.n	2527e <_ZN20complex_dynamic_type3app17ha4c99e814e29a372E+0x106>
   2526c:	2803      	cmp	r0, #3
   2526e:	d120      	bne.n	252b2 <_ZN20complex_dynamic_type3app17ha4c99e814e29a372E+0x13a>
   25270:	4626      	mov	r6, r4
   25272:	4816      	ldr	r0, [pc, #88]	@ (252cc <_ZN20complex_dynamic_type3app17ha4c99e814e29a372E+0x154>)
   25274:	2102      	movs	r1, #2
   25276:	2200      	movs	r2, #0
   25278:	4613      	mov	r3, r2
   2527a:	df03      	svc	3
   2527c:	e005      	b.n	2528a <_ZN20complex_dynamic_type3app17ha4c99e814e29a372E+0x112>
   2527e:	4626      	mov	r6, r4
   25280:	4812      	ldr	r0, [pc, #72]	@ (252cc <_ZN20complex_dynamic_type3app17ha4c99e814e29a372E+0x154>)
   25282:	2102      	movs	r1, #2
   25284:	2200      	movs	r2, #0
   25286:	4613      	mov	r3, r2
   25288:	df04      	svc	4
   2528a:	a803      	add	r0, sp, #12
   2528c:	7804      	ldrb	r4, [r0, #0]
   2528e:	1c68      	adds	r0, r5, #1
   25290:	221b      	movs	r2, #27
   25292:	4631      	mov	r1, r6
   25294:	f005 ff38 	bl	2b108 <__aeabi_memcpy>
   25298:	9801      	ldr	r0, [sp, #4]
   2529a:	7028      	strb	r0, [r5, #0]
   2529c:	2c02      	cmp	r4, #2
   2529e:	d006      	beq.n	252ae <_ZN20complex_dynamic_type3app17ha4c99e814e29a372E+0x136>
   252a0:	480a      	ldr	r0, [pc, #40]	@ (252cc <_ZN20complex_dynamic_type3app17ha4c99e814e29a372E+0x154>)
   252a2:	2105      	movs	r1, #5
   252a4:	2200      	movs	r2, #0
   252a6:	4613      	mov	r3, r2
   252a8:	2c04      	cmp	r4, #4
   252aa:	d10b      	bne.n	252c4 <_ZN20complex_dynamic_type3app17ha4c99e814e29a372E+0x14c>
   252ac:	df04      	svc	4
   252ae:	b011      	add	sp, #68	@ 0x44
   252b0:	bdf0      	pop	{r4, r5, r6, r7, pc}
   252b2:	1c68      	adds	r0, r5, #1
   252b4:	221b      	movs	r2, #27
   252b6:	4621      	mov	r1, r4
   252b8:	f005 ff26 	bl	2b108 <__aeabi_memcpy>
   252bc:	9801      	ldr	r0, [sp, #4]
   252be:	7028      	strb	r0, [r5, #0]
   252c0:	b011      	add	sp, #68	@ 0x44
   252c2:	bdf0      	pop	{r4, r5, r6, r7, pc}
   252c4:	df03      	svc	3
   252c6:	b011      	add	sp, #68	@ 0x44
   252c8:	bdf0      	pop	{r4, r5, r6, r7, pc}
   252ca:	46c0      	nop			@ (mov r8, r8)
   252cc:	00001cce 	.word	0x00001cce

000252d0 <_ZN20complex_dynamic_type3app17ha593cccd540e823dE>:
   252d0:	b5f0      	push	{r4, r5, r6, r7, lr}
   252d2:	af03      	add	r7, sp, #12
   252d4:	b0ad      	sub	sp, #180	@ 0xb4
   252d6:	9003      	str	r0, [sp, #12]
   252d8:	a804      	add	r0, sp, #16
   252da:	2402      	movs	r4, #2
   252dc:	7004      	strb	r4, [r0, #0]
   252de:	1c46      	adds	r6, r0, #1
   252e0:	2251      	movs	r2, #81	@ 0x51
   252e2:	9202      	str	r2, [sp, #8]
   252e4:	4630      	mov	r0, r6
   252e6:	f005 ff0f 	bl	2b108 <__aeabi_memcpy>
   252ea:	ad19      	add	r5, sp, #100	@ 0x64
   252ec:	1c68      	adds	r0, r5, #1
   252ee:	214f      	movs	r1, #79	@ 0x4f
   252f0:	9001      	str	r0, [sp, #4]
   252f2:	f005 fd49 	bl	2ad88 <__aeabi_memclr>
   252f6:	9400      	str	r4, [sp, #0]
   252f8:	702c      	strb	r4, [r5, #0]
   252fa:	4848      	ldr	r0, [pc, #288]	@ (2541c <_ZN20complex_dynamic_type3app17ha593cccd540e823dE+0x14c>)
   252fc:	2504      	movs	r5, #4
   252fe:	4629      	mov	r1, r5
   25300:	4632      	mov	r2, r6
   25302:	9b02      	ldr	r3, [sp, #8]
   25304:	df04      	svc	4
   25306:	2802      	cmp	r0, #2
   25308:	d104      	bne.n	25314 <_ZN20complex_dynamic_type3app17ha593cccd540e823dE+0x44>
   2530a:	2001      	movs	r0, #1
   2530c:	9a03      	ldr	r2, [sp, #12]
   2530e:	7010      	strb	r0, [r2, #0]
   25310:	6051      	str	r1, [r2, #4]
   25312:	e02c      	b.n	2536e <_ZN20complex_dynamic_type3app17ha593cccd540e823dE+0x9e>
   25314:	9c03      	ldr	r4, [sp, #12]
   25316:	a804      	add	r0, sp, #16
   25318:	7005      	strb	r5, [r0, #0]
   2531a:	4840      	ldr	r0, [pc, #256]	@ (2541c <_ZN20complex_dynamic_type3app17ha593cccd540e823dE+0x14c>)
   2531c:	2109      	movs	r1, #9
   2531e:	234f      	movs	r3, #79	@ 0x4f
   25320:	9a01      	ldr	r2, [sp, #4]
   25322:	df03      	svc	3
   25324:	2802      	cmp	r0, #2
   25326:	d10e      	bne.n	25346 <_ZN20complex_dynamic_type3app17ha593cccd540e823dE+0x76>
   25328:	2001      	movs	r0, #1
   2532a:	7020      	strb	r0, [r4, #0]
   2532c:	6061      	str	r1, [r4, #4]
   2532e:	a819      	add	r0, sp, #100	@ 0x64
   25330:	7800      	ldrb	r0, [r0, #0]
   25332:	2802      	cmp	r0, #2
   25334:	d01b      	beq.n	2536e <_ZN20complex_dynamic_type3app17ha593cccd540e823dE+0x9e>
   25336:	2803      	cmp	r0, #3
   25338:	d014      	beq.n	25364 <_ZN20complex_dynamic_type3app17ha593cccd540e823dE+0x94>
   2533a:	4838      	ldr	r0, [pc, #224]	@ (2541c <_ZN20complex_dynamic_type3app17ha593cccd540e823dE+0x14c>)
   2533c:	2109      	movs	r1, #9
   2533e:	2200      	movs	r2, #0
   25340:	4613      	mov	r3, r2
   25342:	df04      	svc	4
   25344:	e013      	b.n	2536e <_ZN20complex_dynamic_type3app17ha593cccd540e823dE+0x9e>
   25346:	a819      	add	r0, sp, #100	@ 0x64
   25348:	2103      	movs	r1, #3
   2534a:	7001      	strb	r1, [r0, #0]
   2534c:	4833      	ldr	r0, [pc, #204]	@ (2541c <_ZN20complex_dynamic_type3app17ha593cccd540e823dE+0x14c>)
   2534e:	2104      	movs	r1, #4
   25350:	2209      	movs	r2, #9
   25352:	2600      	movs	r6, #0
   25354:	4633      	mov	r3, r6
   25356:	df02      	svc	2
   25358:	2880      	cmp	r0, #128	@ 0x80
   2535a:	4625      	mov	r5, r4
   2535c:	d21b      	bcs.n	25396 <_ZN20complex_dynamic_type3app17ha593cccd540e823dE+0xc6>
   2535e:	2001      	movs	r0, #1
   25360:	7028      	strb	r0, [r5, #0]
   25362:	6069      	str	r1, [r5, #4]
   25364:	482d      	ldr	r0, [pc, #180]	@ (2541c <_ZN20complex_dynamic_type3app17ha593cccd540e823dE+0x14c>)
   25366:	2109      	movs	r1, #9
   25368:	2200      	movs	r2, #0
   2536a:	4613      	mov	r3, r2
   2536c:	df03      	svc	3
   2536e:	a804      	add	r0, sp, #16
   25370:	7800      	ldrb	r0, [r0, #0]
   25372:	2802      	cmp	r0, #2
   25374:	d045      	beq.n	25402 <_ZN20complex_dynamic_type3app17ha593cccd540e823dE+0x132>
   25376:	2804      	cmp	r0, #4
   25378:	d106      	bne.n	25388 <_ZN20complex_dynamic_type3app17ha593cccd540e823dE+0xb8>
   2537a:	4828      	ldr	r0, [pc, #160]	@ (2541c <_ZN20complex_dynamic_type3app17ha593cccd540e823dE+0x14c>)
   2537c:	2104      	movs	r1, #4
   2537e:	2200      	movs	r2, #0
   25380:	4613      	mov	r3, r2
   25382:	df04      	svc	4
   25384:	b02d      	add	sp, #180	@ 0xb4
   25386:	bdf0      	pop	{r4, r5, r6, r7, pc}
   25388:	4824      	ldr	r0, [pc, #144]	@ (2541c <_ZN20complex_dynamic_type3app17ha593cccd540e823dE+0x14c>)
   2538a:	2104      	movs	r1, #4
   2538c:	2200      	movs	r2, #0
   2538e:	4613      	mov	r3, r2
   25390:	df03      	svc	3
   25392:	b02d      	add	sp, #180	@ 0xb4
   25394:	bdf0      	pop	{r4, r5, r6, r7, pc}
   25396:	a804      	add	r0, sp, #16
   25398:	7800      	ldrb	r0, [r0, #0]
   2539a:	2802      	cmp	r0, #2
   2539c:	d00c      	beq.n	253b8 <_ZN20complex_dynamic_type3app17ha593cccd540e823dE+0xe8>
   2539e:	2803      	cmp	r0, #3
   253a0:	d105      	bne.n	253ae <_ZN20complex_dynamic_type3app17ha593cccd540e823dE+0xde>
   253a2:	481e      	ldr	r0, [pc, #120]	@ (2541c <_ZN20complex_dynamic_type3app17ha593cccd540e823dE+0x14c>)
   253a4:	2104      	movs	r1, #4
   253a6:	2200      	movs	r2, #0
   253a8:	4613      	mov	r3, r2
   253aa:	df03      	svc	3
   253ac:	e004      	b.n	253b8 <_ZN20complex_dynamic_type3app17ha593cccd540e823dE+0xe8>
   253ae:	481b      	ldr	r0, [pc, #108]	@ (2541c <_ZN20complex_dynamic_type3app17ha593cccd540e823dE+0x14c>)
   253b0:	2104      	movs	r1, #4
   253b2:	2200      	movs	r2, #0
   253b4:	4613      	mov	r3, r2
   253b6:	df04      	svc	4
   253b8:	a804      	add	r0, sp, #16
   253ba:	9900      	ldr	r1, [sp, #0]
   253bc:	7001      	strb	r1, [r0, #0]
   253be:	a819      	add	r0, sp, #100	@ 0x64
   253c0:	7800      	ldrb	r0, [r0, #0]
   253c2:	2804      	cmp	r0, #4
   253c4:	d007      	beq.n	253d6 <_ZN20complex_dynamic_type3app17ha593cccd540e823dE+0x106>
   253c6:	2803      	cmp	r0, #3
   253c8:	d11d      	bne.n	25406 <_ZN20complex_dynamic_type3app17ha593cccd540e823dE+0x136>
   253ca:	4814      	ldr	r0, [pc, #80]	@ (2541c <_ZN20complex_dynamic_type3app17ha593cccd540e823dE+0x14c>)
   253cc:	2109      	movs	r1, #9
   253ce:	2200      	movs	r2, #0
   253d0:	4613      	mov	r3, r2
   253d2:	df03      	svc	3
   253d4:	e004      	b.n	253e0 <_ZN20complex_dynamic_type3app17ha593cccd540e823dE+0x110>
   253d6:	4811      	ldr	r0, [pc, #68]	@ (2541c <_ZN20complex_dynamic_type3app17ha593cccd540e823dE+0x14c>)
   253d8:	2109      	movs	r1, #9
   253da:	2200      	movs	r2, #0
   253dc:	4613      	mov	r3, r2
   253de:	df04      	svc	4
   253e0:	a804      	add	r0, sp, #16
   253e2:	7804      	ldrb	r4, [r0, #0]
   253e4:	1c68      	adds	r0, r5, #1
   253e6:	224f      	movs	r2, #79	@ 0x4f
   253e8:	9901      	ldr	r1, [sp, #4]
   253ea:	f005 fe8d 	bl	2b108 <__aeabi_memcpy>
   253ee:	702e      	strb	r6, [r5, #0]
   253f0:	2c02      	cmp	r4, #2
   253f2:	d006      	beq.n	25402 <_ZN20complex_dynamic_type3app17ha593cccd540e823dE+0x132>
   253f4:	4809      	ldr	r0, [pc, #36]	@ (2541c <_ZN20complex_dynamic_type3app17ha593cccd540e823dE+0x14c>)
   253f6:	2104      	movs	r1, #4
   253f8:	2200      	movs	r2, #0
   253fa:	4613      	mov	r3, r2
   253fc:	2c04      	cmp	r4, #4
   253fe:	d10a      	bne.n	25416 <_ZN20complex_dynamic_type3app17ha593cccd540e823dE+0x146>
   25400:	df04      	svc	4
   25402:	b02d      	add	sp, #180	@ 0xb4
   25404:	bdf0      	pop	{r4, r5, r6, r7, pc}
   25406:	1c68      	adds	r0, r5, #1
   25408:	224f      	movs	r2, #79	@ 0x4f
   2540a:	9901      	ldr	r1, [sp, #4]
   2540c:	f005 fe7c 	bl	2b108 <__aeabi_memcpy>
   25410:	702e      	strb	r6, [r5, #0]
   25412:	b02d      	add	sp, #180	@ 0xb4
   25414:	bdf0      	pop	{r4, r5, r6, r7, pc}
   25416:	df03      	svc	3
   25418:	b02d      	add	sp, #180	@ 0xb4
   2541a:	bdf0      	pop	{r4, r5, r6, r7, pc}
   2541c:	000020ee 	.word	0x000020ee

00025420 <_ZN20complex_dynamic_type3app17ha9d4855ad47c5013E>:
   25420:	b5f0      	push	{r4, r5, r6, r7, lr}
   25422:	af03      	add	r7, sp, #12
   25424:	b0a3      	sub	sp, #140	@ 0x8c
   25426:	9004      	str	r0, [sp, #16]
   25428:	a805      	add	r0, sp, #20
   2542a:	2402      	movs	r4, #2
   2542c:	7004      	strb	r4, [r0, #0]
   2542e:	1c46      	adds	r6, r0, #1
   25430:	2227      	movs	r2, #39	@ 0x27
   25432:	9203      	str	r2, [sp, #12]
   25434:	4630      	mov	r0, r6
   25436:	f005 fe67 	bl	2b108 <__aeabi_memcpy>
   2543a:	ad0f      	add	r5, sp, #60	@ 0x3c
   2543c:	1c68      	adds	r0, r5, #1
   2543e:	214f      	movs	r1, #79	@ 0x4f
   25440:	9002      	str	r0, [sp, #8]
   25442:	f005 fca1 	bl	2ad88 <__aeabi_memclr>
   25446:	9401      	str	r4, [sp, #4]
   25448:	702c      	strb	r4, [r5, #0]
   2544a:	4848      	ldr	r0, [pc, #288]	@ (2556c <_ZN20complex_dynamic_type3app17ha9d4855ad47c5013E+0x14c>)
   2544c:	2109      	movs	r1, #9
   2544e:	4632      	mov	r2, r6
   25450:	9b03      	ldr	r3, [sp, #12]
   25452:	df04      	svc	4
   25454:	2802      	cmp	r0, #2
   25456:	d104      	bne.n	25462 <_ZN20complex_dynamic_type3app17ha9d4855ad47c5013E+0x42>
   25458:	2001      	movs	r0, #1
   2545a:	9a04      	ldr	r2, [sp, #16]
   2545c:	7010      	strb	r0, [r2, #0]
   2545e:	6051      	str	r1, [r2, #4]
   25460:	e02d      	b.n	254be <_ZN20complex_dynamic_type3app17ha9d4855ad47c5013E+0x9e>
   25462:	9d04      	ldr	r5, [sp, #16]
   25464:	a805      	add	r0, sp, #20
   25466:	2104      	movs	r1, #4
   25468:	7001      	strb	r1, [r0, #0]
   2546a:	4840      	ldr	r0, [pc, #256]	@ (2556c <_ZN20complex_dynamic_type3app17ha9d4855ad47c5013E+0x14c>)
   2546c:	2100      	movs	r1, #0
   2546e:	234f      	movs	r3, #79	@ 0x4f
   25470:	9c02      	ldr	r4, [sp, #8]
   25472:	4622      	mov	r2, r4
   25474:	df03      	svc	3
   25476:	2802      	cmp	r0, #2
   25478:	d10e      	bne.n	25498 <_ZN20complex_dynamic_type3app17ha9d4855ad47c5013E+0x78>
   2547a:	2001      	movs	r0, #1
   2547c:	7028      	strb	r0, [r5, #0]
   2547e:	6069      	str	r1, [r5, #4]
   25480:	a80f      	add	r0, sp, #60	@ 0x3c
   25482:	7800      	ldrb	r0, [r0, #0]
   25484:	2802      	cmp	r0, #2
   25486:	d01a      	beq.n	254be <_ZN20complex_dynamic_type3app17ha9d4855ad47c5013E+0x9e>
   25488:	2803      	cmp	r0, #3
   2548a:	d013      	beq.n	254b4 <_ZN20complex_dynamic_type3app17ha9d4855ad47c5013E+0x94>
   2548c:	4837      	ldr	r0, [pc, #220]	@ (2556c <_ZN20complex_dynamic_type3app17ha9d4855ad47c5013E+0x14c>)
   2548e:	2100      	movs	r1, #0
   25490:	460a      	mov	r2, r1
   25492:	460b      	mov	r3, r1
   25494:	df04      	svc	4
   25496:	e012      	b.n	254be <_ZN20complex_dynamic_type3app17ha9d4855ad47c5013E+0x9e>
   25498:	a80f      	add	r0, sp, #60	@ 0x3c
   2549a:	2103      	movs	r1, #3
   2549c:	7001      	strb	r1, [r0, #0]
   2549e:	4833      	ldr	r0, [pc, #204]	@ (2556c <_ZN20complex_dynamic_type3app17ha9d4855ad47c5013E+0x14c>)
   254a0:	2109      	movs	r1, #9
   254a2:	2600      	movs	r6, #0
   254a4:	4632      	mov	r2, r6
   254a6:	4633      	mov	r3, r6
   254a8:	df02      	svc	2
   254aa:	2880      	cmp	r0, #128	@ 0x80
   254ac:	d21b      	bcs.n	254e6 <_ZN20complex_dynamic_type3app17ha9d4855ad47c5013E+0xc6>
   254ae:	2001      	movs	r0, #1
   254b0:	7028      	strb	r0, [r5, #0]
   254b2:	6069      	str	r1, [r5, #4]
   254b4:	482d      	ldr	r0, [pc, #180]	@ (2556c <_ZN20complex_dynamic_type3app17ha9d4855ad47c5013E+0x14c>)
   254b6:	2100      	movs	r1, #0
   254b8:	460a      	mov	r2, r1
   254ba:	460b      	mov	r3, r1
   254bc:	df03      	svc	3
   254be:	a805      	add	r0, sp, #20
   254c0:	7800      	ldrb	r0, [r0, #0]
   254c2:	2802      	cmp	r0, #2
   254c4:	d045      	beq.n	25552 <_ZN20complex_dynamic_type3app17ha9d4855ad47c5013E+0x132>
   254c6:	2804      	cmp	r0, #4
   254c8:	d106      	bne.n	254d8 <_ZN20complex_dynamic_type3app17ha9d4855ad47c5013E+0xb8>
   254ca:	4828      	ldr	r0, [pc, #160]	@ (2556c <_ZN20complex_dynamic_type3app17ha9d4855ad47c5013E+0x14c>)
   254cc:	2109      	movs	r1, #9
   254ce:	2200      	movs	r2, #0
   254d0:	4613      	mov	r3, r2
   254d2:	df04      	svc	4
   254d4:	b023      	add	sp, #140	@ 0x8c
   254d6:	bdf0      	pop	{r4, r5, r6, r7, pc}
   254d8:	4824      	ldr	r0, [pc, #144]	@ (2556c <_ZN20complex_dynamic_type3app17ha9d4855ad47c5013E+0x14c>)
   254da:	2109      	movs	r1, #9
   254dc:	2200      	movs	r2, #0
   254de:	4613      	mov	r3, r2
   254e0:	df03      	svc	3
   254e2:	b023      	add	sp, #140	@ 0x8c
   254e4:	bdf0      	pop	{r4, r5, r6, r7, pc}
   254e6:	a805      	add	r0, sp, #20
   254e8:	7800      	ldrb	r0, [r0, #0]
   254ea:	2802      	cmp	r0, #2
   254ec:	d00c      	beq.n	25508 <_ZN20complex_dynamic_type3app17ha9d4855ad47c5013E+0xe8>
   254ee:	2803      	cmp	r0, #3
   254f0:	d105      	bne.n	254fe <_ZN20complex_dynamic_type3app17ha9d4855ad47c5013E+0xde>
   254f2:	481e      	ldr	r0, [pc, #120]	@ (2556c <_ZN20complex_dynamic_type3app17ha9d4855ad47c5013E+0x14c>)
   254f4:	2109      	movs	r1, #9
   254f6:	2200      	movs	r2, #0
   254f8:	4613      	mov	r3, r2
   254fa:	df03      	svc	3
   254fc:	e004      	b.n	25508 <_ZN20complex_dynamic_type3app17ha9d4855ad47c5013E+0xe8>
   254fe:	481b      	ldr	r0, [pc, #108]	@ (2556c <_ZN20complex_dynamic_type3app17ha9d4855ad47c5013E+0x14c>)
   25500:	2109      	movs	r1, #9
   25502:	2200      	movs	r2, #0
   25504:	4613      	mov	r3, r2
   25506:	df04      	svc	4
   25508:	a805      	add	r0, sp, #20
   2550a:	9901      	ldr	r1, [sp, #4]
   2550c:	7001      	strb	r1, [r0, #0]
   2550e:	a80f      	add	r0, sp, #60	@ 0x3c
   25510:	7800      	ldrb	r0, [r0, #0]
   25512:	2804      	cmp	r0, #4
   25514:	d007      	beq.n	25526 <_ZN20complex_dynamic_type3app17ha9d4855ad47c5013E+0x106>
   25516:	2803      	cmp	r0, #3
   25518:	d11d      	bne.n	25556 <_ZN20complex_dynamic_type3app17ha9d4855ad47c5013E+0x136>
   2551a:	4814      	ldr	r0, [pc, #80]	@ (2556c <_ZN20complex_dynamic_type3app17ha9d4855ad47c5013E+0x14c>)
   2551c:	2100      	movs	r1, #0
   2551e:	460a      	mov	r2, r1
   25520:	460b      	mov	r3, r1
   25522:	df03      	svc	3
   25524:	e004      	b.n	25530 <_ZN20complex_dynamic_type3app17ha9d4855ad47c5013E+0x110>
   25526:	4811      	ldr	r0, [pc, #68]	@ (2556c <_ZN20complex_dynamic_type3app17ha9d4855ad47c5013E+0x14c>)
   25528:	2100      	movs	r1, #0
   2552a:	460a      	mov	r2, r1
   2552c:	460b      	mov	r3, r1
   2552e:	df04      	svc	4
   25530:	a805      	add	r0, sp, #20
   25532:	7804      	ldrb	r4, [r0, #0]
   25534:	1c68      	adds	r0, r5, #1
   25536:	224f      	movs	r2, #79	@ 0x4f
   25538:	9902      	ldr	r1, [sp, #8]
   2553a:	f005 fde5 	bl	2b108 <__aeabi_memcpy>
   2553e:	702e      	strb	r6, [r5, #0]
   25540:	2c02      	cmp	r4, #2
   25542:	d006      	beq.n	25552 <_ZN20complex_dynamic_type3app17ha9d4855ad47c5013E+0x132>
   25544:	4809      	ldr	r0, [pc, #36]	@ (2556c <_ZN20complex_dynamic_type3app17ha9d4855ad47c5013E+0x14c>)
   25546:	2109      	movs	r1, #9
   25548:	2200      	movs	r2, #0
   2554a:	4613      	mov	r3, r2
   2554c:	2c04      	cmp	r4, #4
   2554e:	d10a      	bne.n	25566 <_ZN20complex_dynamic_type3app17ha9d4855ad47c5013E+0x146>
   25550:	df04      	svc	4
   25552:	b023      	add	sp, #140	@ 0x8c
   25554:	bdf0      	pop	{r4, r5, r6, r7, pc}
   25556:	1c68      	adds	r0, r5, #1
   25558:	224f      	movs	r2, #79	@ 0x4f
   2555a:	4621      	mov	r1, r4
   2555c:	f005 fdd4 	bl	2b108 <__aeabi_memcpy>
   25560:	702e      	strb	r6, [r5, #0]
   25562:	b023      	add	sp, #140	@ 0x8c
   25564:	bdf0      	pop	{r4, r5, r6, r7, pc}
   25566:	df03      	svc	3
   25568:	b023      	add	sp, #140	@ 0x8c
   2556a:	bdf0      	pop	{r4, r5, r6, r7, pc}
   2556c:	00000b4c 	.word	0x00000b4c

00025570 <_ZN20complex_dynamic_type3app17hb03d5d7eab6d8335E>:
   25570:	b5f0      	push	{r4, r5, r6, r7, lr}
   25572:	af03      	add	r7, sp, #12
   25574:	b09b      	sub	sp, #108	@ 0x6c
   25576:	9003      	str	r0, [sp, #12]
   25578:	a804      	add	r0, sp, #16
   2557a:	2402      	movs	r4, #2
   2557c:	7004      	strb	r4, [r0, #0]
   2557e:	1c40      	adds	r0, r0, #1
   25580:	9002      	str	r0, [sp, #8]
   25582:	250e      	movs	r5, #14
   25584:	462a      	mov	r2, r5
   25586:	f005 fdbf 	bl	2b108 <__aeabi_memcpy>
   2558a:	ae08      	add	r6, sp, #32
   2558c:	1c70      	adds	r0, r6, #1
   2558e:	2148      	movs	r1, #72	@ 0x48
   25590:	9001      	str	r0, [sp, #4]
   25592:	f005 fbf9 	bl	2ad88 <__aeabi_memclr>
   25596:	9400      	str	r4, [sp, #0]
   25598:	7034      	strb	r4, [r6, #0]
   2559a:	484a      	ldr	r0, [pc, #296]	@ (256c4 <_ZN20complex_dynamic_type3app17hb03d5d7eab6d8335E+0x154>)
   2559c:	2603      	movs	r6, #3
   2559e:	4631      	mov	r1, r6
   255a0:	9a02      	ldr	r2, [sp, #8]
   255a2:	462b      	mov	r3, r5
   255a4:	df04      	svc	4
   255a6:	2802      	cmp	r0, #2
   255a8:	d104      	bne.n	255b4 <_ZN20complex_dynamic_type3app17hb03d5d7eab6d8335E+0x44>
   255aa:	2001      	movs	r0, #1
   255ac:	9a03      	ldr	r2, [sp, #12]
   255ae:	7010      	strb	r0, [r2, #0]
   255b0:	6051      	str	r1, [r2, #4]
   255b2:	e02c      	b.n	2560e <_ZN20complex_dynamic_type3app17hb03d5d7eab6d8335E+0x9e>
   255b4:	9d03      	ldr	r5, [sp, #12]
   255b6:	a804      	add	r0, sp, #16
   255b8:	2104      	movs	r1, #4
   255ba:	7001      	strb	r1, [r0, #0]
   255bc:	4841      	ldr	r0, [pc, #260]	@ (256c4 <_ZN20complex_dynamic_type3app17hb03d5d7eab6d8335E+0x154>)
   255be:	2108      	movs	r1, #8
   255c0:	2348      	movs	r3, #72	@ 0x48
   255c2:	9c01      	ldr	r4, [sp, #4]
   255c4:	4622      	mov	r2, r4
   255c6:	df03      	svc	3
   255c8:	2802      	cmp	r0, #2
   255ca:	d10e      	bne.n	255ea <_ZN20complex_dynamic_type3app17hb03d5d7eab6d8335E+0x7a>
   255cc:	2001      	movs	r0, #1
   255ce:	7028      	strb	r0, [r5, #0]
   255d0:	6069      	str	r1, [r5, #4]
   255d2:	a808      	add	r0, sp, #32
   255d4:	7800      	ldrb	r0, [r0, #0]
   255d6:	2802      	cmp	r0, #2
   255d8:	d019      	beq.n	2560e <_ZN20complex_dynamic_type3app17hb03d5d7eab6d8335E+0x9e>
   255da:	2803      	cmp	r0, #3
   255dc:	d012      	beq.n	25604 <_ZN20complex_dynamic_type3app17hb03d5d7eab6d8335E+0x94>
   255de:	4839      	ldr	r0, [pc, #228]	@ (256c4 <_ZN20complex_dynamic_type3app17hb03d5d7eab6d8335E+0x154>)
   255e0:	2108      	movs	r1, #8
   255e2:	2200      	movs	r2, #0
   255e4:	4613      	mov	r3, r2
   255e6:	df04      	svc	4
   255e8:	e011      	b.n	2560e <_ZN20complex_dynamic_type3app17hb03d5d7eab6d8335E+0x9e>
   255ea:	a808      	add	r0, sp, #32
   255ec:	7006      	strb	r6, [r0, #0]
   255ee:	4835      	ldr	r0, [pc, #212]	@ (256c4 <_ZN20complex_dynamic_type3app17hb03d5d7eab6d8335E+0x154>)
   255f0:	2208      	movs	r2, #8
   255f2:	2300      	movs	r3, #0
   255f4:	4631      	mov	r1, r6
   255f6:	9302      	str	r3, [sp, #8]
   255f8:	df02      	svc	2
   255fa:	2880      	cmp	r0, #128	@ 0x80
   255fc:	d21b      	bcs.n	25636 <_ZN20complex_dynamic_type3app17hb03d5d7eab6d8335E+0xc6>
   255fe:	2001      	movs	r0, #1
   25600:	7028      	strb	r0, [r5, #0]
   25602:	6069      	str	r1, [r5, #4]
   25604:	482f      	ldr	r0, [pc, #188]	@ (256c4 <_ZN20complex_dynamic_type3app17hb03d5d7eab6d8335E+0x154>)
   25606:	2108      	movs	r1, #8
   25608:	2200      	movs	r2, #0
   2560a:	4613      	mov	r3, r2
   2560c:	df03      	svc	3
   2560e:	a804      	add	r0, sp, #16
   25610:	7800      	ldrb	r0, [r0, #0]
   25612:	2802      	cmp	r0, #2
   25614:	d048      	beq.n	256a8 <_ZN20complex_dynamic_type3app17hb03d5d7eab6d8335E+0x138>
   25616:	2804      	cmp	r0, #4
   25618:	d106      	bne.n	25628 <_ZN20complex_dynamic_type3app17hb03d5d7eab6d8335E+0xb8>
   2561a:	482a      	ldr	r0, [pc, #168]	@ (256c4 <_ZN20complex_dynamic_type3app17hb03d5d7eab6d8335E+0x154>)
   2561c:	2103      	movs	r1, #3
   2561e:	2200      	movs	r2, #0
   25620:	4613      	mov	r3, r2
   25622:	df04      	svc	4
   25624:	b01b      	add	sp, #108	@ 0x6c
   25626:	bdf0      	pop	{r4, r5, r6, r7, pc}
   25628:	4826      	ldr	r0, [pc, #152]	@ (256c4 <_ZN20complex_dynamic_type3app17hb03d5d7eab6d8335E+0x154>)
   2562a:	2103      	movs	r1, #3
   2562c:	2200      	movs	r2, #0
   2562e:	4613      	mov	r3, r2
   25630:	df03      	svc	3
   25632:	b01b      	add	sp, #108	@ 0x6c
   25634:	bdf0      	pop	{r4, r5, r6, r7, pc}
   25636:	a804      	add	r0, sp, #16
   25638:	7800      	ldrb	r0, [r0, #0]
   2563a:	2802      	cmp	r0, #2
   2563c:	d00c      	beq.n	25658 <_ZN20complex_dynamic_type3app17hb03d5d7eab6d8335E+0xe8>
   2563e:	2803      	cmp	r0, #3
   25640:	d105      	bne.n	2564e <_ZN20complex_dynamic_type3app17hb03d5d7eab6d8335E+0xde>
   25642:	4820      	ldr	r0, [pc, #128]	@ (256c4 <_ZN20complex_dynamic_type3app17hb03d5d7eab6d8335E+0x154>)
   25644:	2103      	movs	r1, #3
   25646:	2200      	movs	r2, #0
   25648:	4613      	mov	r3, r2
   2564a:	df03      	svc	3
   2564c:	e004      	b.n	25658 <_ZN20complex_dynamic_type3app17hb03d5d7eab6d8335E+0xe8>
   2564e:	481d      	ldr	r0, [pc, #116]	@ (256c4 <_ZN20complex_dynamic_type3app17hb03d5d7eab6d8335E+0x154>)
   25650:	2103      	movs	r1, #3
   25652:	2200      	movs	r2, #0
   25654:	4613      	mov	r3, r2
   25656:	df04      	svc	4
   25658:	a804      	add	r0, sp, #16
   2565a:	9900      	ldr	r1, [sp, #0]
   2565c:	7001      	strb	r1, [r0, #0]
   2565e:	a808      	add	r0, sp, #32
   25660:	7800      	ldrb	r0, [r0, #0]
   25662:	2804      	cmp	r0, #4
   25664:	d008      	beq.n	25678 <_ZN20complex_dynamic_type3app17hb03d5d7eab6d8335E+0x108>
   25666:	2803      	cmp	r0, #3
   25668:	d120      	bne.n	256ac <_ZN20complex_dynamic_type3app17hb03d5d7eab6d8335E+0x13c>
   2566a:	4626      	mov	r6, r4
   2566c:	4815      	ldr	r0, [pc, #84]	@ (256c4 <_ZN20complex_dynamic_type3app17hb03d5d7eab6d8335E+0x154>)
   2566e:	2108      	movs	r1, #8
   25670:	2200      	movs	r2, #0
   25672:	4613      	mov	r3, r2
   25674:	df03      	svc	3
   25676:	e005      	b.n	25684 <_ZN20complex_dynamic_type3app17hb03d5d7eab6d8335E+0x114>
   25678:	4626      	mov	r6, r4
   2567a:	4812      	ldr	r0, [pc, #72]	@ (256c4 <_ZN20complex_dynamic_type3app17hb03d5d7eab6d8335E+0x154>)
   2567c:	2108      	movs	r1, #8
   2567e:	2200      	movs	r2, #0
   25680:	4613      	mov	r3, r2
   25682:	df04      	svc	4
   25684:	a804      	add	r0, sp, #16
   25686:	7804      	ldrb	r4, [r0, #0]
   25688:	1c68      	adds	r0, r5, #1
   2568a:	2248      	movs	r2, #72	@ 0x48
   2568c:	4631      	mov	r1, r6
   2568e:	f005 fd3b 	bl	2b108 <__aeabi_memcpy>
   25692:	9802      	ldr	r0, [sp, #8]
   25694:	7028      	strb	r0, [r5, #0]
   25696:	2c02      	cmp	r4, #2
   25698:	d006      	beq.n	256a8 <_ZN20complex_dynamic_type3app17hb03d5d7eab6d8335E+0x138>
   2569a:	480a      	ldr	r0, [pc, #40]	@ (256c4 <_ZN20complex_dynamic_type3app17hb03d5d7eab6d8335E+0x154>)
   2569c:	2103      	movs	r1, #3
   2569e:	2200      	movs	r2, #0
   256a0:	4613      	mov	r3, r2
   256a2:	2c04      	cmp	r4, #4
   256a4:	d10b      	bne.n	256be <_ZN20complex_dynamic_type3app17hb03d5d7eab6d8335E+0x14e>
   256a6:	df04      	svc	4
   256a8:	b01b      	add	sp, #108	@ 0x6c
   256aa:	bdf0      	pop	{r4, r5, r6, r7, pc}
   256ac:	1c68      	adds	r0, r5, #1
   256ae:	2248      	movs	r2, #72	@ 0x48
   256b0:	4621      	mov	r1, r4
   256b2:	f005 fd29 	bl	2b108 <__aeabi_memcpy>
   256b6:	9802      	ldr	r0, [sp, #8]
   256b8:	7028      	strb	r0, [r5, #0]
   256ba:	b01b      	add	sp, #108	@ 0x6c
   256bc:	bdf0      	pop	{r4, r5, r6, r7, pc}
   256be:	df03      	svc	3
   256c0:	b01b      	add	sp, #108	@ 0x6c
   256c2:	bdf0      	pop	{r4, r5, r6, r7, pc}
   256c4:	000012d1 	.word	0x000012d1

000256c8 <_ZN20complex_dynamic_type3app17hb067549b3909844dE>:
   256c8:	b5f0      	push	{r4, r5, r6, r7, lr}
   256ca:	af03      	add	r7, sp, #12
   256cc:	b0a9      	sub	sp, #164	@ 0xa4
   256ce:	9003      	str	r0, [sp, #12]
   256d0:	a804      	add	r0, sp, #16
   256d2:	2402      	movs	r4, #2
   256d4:	7004      	strb	r4, [r0, #0]
   256d6:	1c46      	adds	r6, r0, #1
   256d8:	2263      	movs	r2, #99	@ 0x63
   256da:	9202      	str	r2, [sp, #8]
   256dc:	4630      	mov	r0, r6
   256de:	f005 fd13 	bl	2b108 <__aeabi_memcpy>
   256e2:	ad1d      	add	r5, sp, #116	@ 0x74
   256e4:	1c68      	adds	r0, r5, #1
   256e6:	212c      	movs	r1, #44	@ 0x2c
   256e8:	9001      	str	r0, [sp, #4]
   256ea:	f005 fb4d 	bl	2ad88 <__aeabi_memclr>
   256ee:	9400      	str	r4, [sp, #0]
   256f0:	702c      	strb	r4, [r5, #0]
   256f2:	2018      	movs	r0, #24
   256f4:	2105      	movs	r1, #5
   256f6:	4632      	mov	r2, r6
   256f8:	9b02      	ldr	r3, [sp, #8]
   256fa:	df04      	svc	4
   256fc:	2802      	cmp	r0, #2
   256fe:	d104      	bne.n	2570a <_ZN20complex_dynamic_type3app17hb067549b3909844dE+0x42>
   25700:	2001      	movs	r0, #1
   25702:	9a03      	ldr	r2, [sp, #12]
   25704:	7010      	strb	r0, [r2, #0]
   25706:	6051      	str	r1, [r2, #4]
   25708:	e02c      	b.n	25764 <_ZN20complex_dynamic_type3app17hb067549b3909844dE+0x9c>
   2570a:	9d03      	ldr	r5, [sp, #12]
   2570c:	a804      	add	r0, sp, #16
   2570e:	2104      	movs	r1, #4
   25710:	7001      	strb	r1, [r0, #0]
   25712:	2018      	movs	r0, #24
   25714:	2403      	movs	r4, #3
   25716:	232c      	movs	r3, #44	@ 0x2c
   25718:	4621      	mov	r1, r4
   2571a:	9a01      	ldr	r2, [sp, #4]
   2571c:	df03      	svc	3
   2571e:	2802      	cmp	r0, #2
   25720:	d10e      	bne.n	25740 <_ZN20complex_dynamic_type3app17hb067549b3909844dE+0x78>
   25722:	2001      	movs	r0, #1
   25724:	7028      	strb	r0, [r5, #0]
   25726:	6069      	str	r1, [r5, #4]
   25728:	a81d      	add	r0, sp, #116	@ 0x74
   2572a:	7800      	ldrb	r0, [r0, #0]
   2572c:	2802      	cmp	r0, #2
   2572e:	d019      	beq.n	25764 <_ZN20complex_dynamic_type3app17hb067549b3909844dE+0x9c>
   25730:	2803      	cmp	r0, #3
   25732:	d012      	beq.n	2575a <_ZN20complex_dynamic_type3app17hb067549b3909844dE+0x92>
   25734:	2018      	movs	r0, #24
   25736:	2103      	movs	r1, #3
   25738:	2200      	movs	r2, #0
   2573a:	4613      	mov	r3, r2
   2573c:	df04      	svc	4
   2573e:	e011      	b.n	25764 <_ZN20complex_dynamic_type3app17hb067549b3909844dE+0x9c>
   25740:	a81d      	add	r0, sp, #116	@ 0x74
   25742:	7004      	strb	r4, [r0, #0]
   25744:	2018      	movs	r0, #24
   25746:	2105      	movs	r1, #5
   25748:	2600      	movs	r6, #0
   2574a:	4622      	mov	r2, r4
   2574c:	4633      	mov	r3, r6
   2574e:	df02      	svc	2
   25750:	2880      	cmp	r0, #128	@ 0x80
   25752:	d21b      	bcs.n	2578c <_ZN20complex_dynamic_type3app17hb067549b3909844dE+0xc4>
   25754:	2001      	movs	r0, #1
   25756:	7028      	strb	r0, [r5, #0]
   25758:	6069      	str	r1, [r5, #4]
   2575a:	2018      	movs	r0, #24
   2575c:	2103      	movs	r1, #3
   2575e:	2200      	movs	r2, #0
   25760:	4613      	mov	r3, r2
   25762:	df03      	svc	3
   25764:	a804      	add	r0, sp, #16
   25766:	7800      	ldrb	r0, [r0, #0]
   25768:	2802      	cmp	r0, #2
   2576a:	d045      	beq.n	257f8 <_ZN20complex_dynamic_type3app17hb067549b3909844dE+0x130>
   2576c:	2804      	cmp	r0, #4
   2576e:	d106      	bne.n	2577e <_ZN20complex_dynamic_type3app17hb067549b3909844dE+0xb6>
   25770:	2018      	movs	r0, #24
   25772:	2105      	movs	r1, #5
   25774:	2200      	movs	r2, #0
   25776:	4613      	mov	r3, r2
   25778:	df04      	svc	4
   2577a:	b029      	add	sp, #164	@ 0xa4
   2577c:	bdf0      	pop	{r4, r5, r6, r7, pc}
   2577e:	2018      	movs	r0, #24
   25780:	2105      	movs	r1, #5
   25782:	2200      	movs	r2, #0
   25784:	4613      	mov	r3, r2
   25786:	df03      	svc	3
   25788:	b029      	add	sp, #164	@ 0xa4
   2578a:	bdf0      	pop	{r4, r5, r6, r7, pc}
   2578c:	a804      	add	r0, sp, #16
   2578e:	7800      	ldrb	r0, [r0, #0]
   25790:	2802      	cmp	r0, #2
   25792:	d00c      	beq.n	257ae <_ZN20complex_dynamic_type3app17hb067549b3909844dE+0xe6>
   25794:	2803      	cmp	r0, #3
   25796:	d105      	bne.n	257a4 <_ZN20complex_dynamic_type3app17hb067549b3909844dE+0xdc>
   25798:	2018      	movs	r0, #24
   2579a:	2105      	movs	r1, #5
   2579c:	2200      	movs	r2, #0
   2579e:	4613      	mov	r3, r2
   257a0:	df03      	svc	3
   257a2:	e004      	b.n	257ae <_ZN20complex_dynamic_type3app17hb067549b3909844dE+0xe6>
   257a4:	2018      	movs	r0, #24
   257a6:	2105      	movs	r1, #5
   257a8:	2200      	movs	r2, #0
   257aa:	4613      	mov	r3, r2
   257ac:	df04      	svc	4
   257ae:	a804      	add	r0, sp, #16
   257b0:	9900      	ldr	r1, [sp, #0]
   257b2:	7001      	strb	r1, [r0, #0]
   257b4:	a81d      	add	r0, sp, #116	@ 0x74
   257b6:	7800      	ldrb	r0, [r0, #0]
   257b8:	2804      	cmp	r0, #4
   257ba:	d007      	beq.n	257cc <_ZN20complex_dynamic_type3app17hb067549b3909844dE+0x104>
   257bc:	2803      	cmp	r0, #3
   257be:	d11d      	bne.n	257fc <_ZN20complex_dynamic_type3app17hb067549b3909844dE+0x134>
   257c0:	2018      	movs	r0, #24
   257c2:	2103      	movs	r1, #3
   257c4:	2200      	movs	r2, #0
   257c6:	4613      	mov	r3, r2
   257c8:	df03      	svc	3
   257ca:	e004      	b.n	257d6 <_ZN20complex_dynamic_type3app17hb067549b3909844dE+0x10e>
   257cc:	2018      	movs	r0, #24
   257ce:	2103      	movs	r1, #3
   257d0:	2200      	movs	r2, #0
   257d2:	4613      	mov	r3, r2
   257d4:	df04      	svc	4
   257d6:	a804      	add	r0, sp, #16
   257d8:	7804      	ldrb	r4, [r0, #0]
   257da:	1c68      	adds	r0, r5, #1
   257dc:	222c      	movs	r2, #44	@ 0x2c
   257de:	9901      	ldr	r1, [sp, #4]
   257e0:	f005 fc92 	bl	2b108 <__aeabi_memcpy>
   257e4:	702e      	strb	r6, [r5, #0]
   257e6:	2c02      	cmp	r4, #2
   257e8:	d006      	beq.n	257f8 <_ZN20complex_dynamic_type3app17hb067549b3909844dE+0x130>
   257ea:	2018      	movs	r0, #24
   257ec:	2105      	movs	r1, #5
   257ee:	2200      	movs	r2, #0
   257f0:	4613      	mov	r3, r2
   257f2:	2c04      	cmp	r4, #4
   257f4:	d10a      	bne.n	2580c <_ZN20complex_dynamic_type3app17hb067549b3909844dE+0x144>
   257f6:	df04      	svc	4
   257f8:	b029      	add	sp, #164	@ 0xa4
   257fa:	bdf0      	pop	{r4, r5, r6, r7, pc}
   257fc:	1c68      	adds	r0, r5, #1
   257fe:	222c      	movs	r2, #44	@ 0x2c
   25800:	9901      	ldr	r1, [sp, #4]
   25802:	f005 fc81 	bl	2b108 <__aeabi_memcpy>
   25806:	702e      	strb	r6, [r5, #0]
   25808:	b029      	add	sp, #164	@ 0xa4
   2580a:	bdf0      	pop	{r4, r5, r6, r7, pc}
   2580c:	df03      	svc	3
   2580e:	b029      	add	sp, #164	@ 0xa4
   25810:	bdf0      	pop	{r4, r5, r6, r7, pc}
   25812:	d4d4      	bmi.n	257be <_ZN20complex_dynamic_type3app17hb067549b3909844dE+0xf6>

00025814 <_ZN20complex_dynamic_type3app17hb384715a68268b10E>:
   25814:	b5f0      	push	{r4, r5, r6, r7, lr}
   25816:	af03      	add	r7, sp, #12
   25818:	b099      	sub	sp, #100	@ 0x64
   2581a:	9003      	str	r0, [sp, #12]
   2581c:	a804      	add	r0, sp, #16
   2581e:	2402      	movs	r4, #2
   25820:	7004      	strb	r4, [r0, #0]
   25822:	1c46      	adds	r6, r0, #1
   25824:	2225      	movs	r2, #37	@ 0x25
   25826:	9202      	str	r2, [sp, #8]
   25828:	4630      	mov	r0, r6
   2582a:	f005 fc6d 	bl	2b108 <__aeabi_memcpy>
   2582e:	ad0e      	add	r5, sp, #56	@ 0x38
   25830:	1c68      	adds	r0, r5, #1
   25832:	212a      	movs	r1, #42	@ 0x2a
   25834:	9001      	str	r0, [sp, #4]
   25836:	f005 faa7 	bl	2ad88 <__aeabi_memclr>
   2583a:	9400      	str	r4, [sp, #0]
   2583c:	702c      	strb	r4, [r5, #0]
   2583e:	4848      	ldr	r0, [pc, #288]	@ (25960 <_ZN20complex_dynamic_type3app17hb384715a68268b10E+0x14c>)
   25840:	2100      	movs	r1, #0
   25842:	4632      	mov	r2, r6
   25844:	9b02      	ldr	r3, [sp, #8]
   25846:	df04      	svc	4
   25848:	2802      	cmp	r0, #2
   2584a:	d104      	bne.n	25856 <_ZN20complex_dynamic_type3app17hb384715a68268b10E+0x42>
   2584c:	2001      	movs	r0, #1
   2584e:	9a03      	ldr	r2, [sp, #12]
   25850:	7010      	strb	r0, [r2, #0]
   25852:	6051      	str	r1, [r2, #4]
   25854:	e02c      	b.n	258b0 <_ZN20complex_dynamic_type3app17hb384715a68268b10E+0x9c>
   25856:	9d03      	ldr	r5, [sp, #12]
   25858:	a804      	add	r0, sp, #16
   2585a:	2104      	movs	r1, #4
   2585c:	7001      	strb	r1, [r0, #0]
   2585e:	4840      	ldr	r0, [pc, #256]	@ (25960 <_ZN20complex_dynamic_type3app17hb384715a68268b10E+0x14c>)
   25860:	2403      	movs	r4, #3
   25862:	232a      	movs	r3, #42	@ 0x2a
   25864:	4621      	mov	r1, r4
   25866:	9a01      	ldr	r2, [sp, #4]
   25868:	df03      	svc	3
   2586a:	2802      	cmp	r0, #2
   2586c:	d10e      	bne.n	2588c <_ZN20complex_dynamic_type3app17hb384715a68268b10E+0x78>
   2586e:	2001      	movs	r0, #1
   25870:	7028      	strb	r0, [r5, #0]
   25872:	6069      	str	r1, [r5, #4]
   25874:	a80e      	add	r0, sp, #56	@ 0x38
   25876:	7800      	ldrb	r0, [r0, #0]
   25878:	2802      	cmp	r0, #2
   2587a:	d019      	beq.n	258b0 <_ZN20complex_dynamic_type3app17hb384715a68268b10E+0x9c>
   2587c:	2803      	cmp	r0, #3
   2587e:	d012      	beq.n	258a6 <_ZN20complex_dynamic_type3app17hb384715a68268b10E+0x92>
   25880:	4837      	ldr	r0, [pc, #220]	@ (25960 <_ZN20complex_dynamic_type3app17hb384715a68268b10E+0x14c>)
   25882:	2103      	movs	r1, #3
   25884:	2200      	movs	r2, #0
   25886:	4613      	mov	r3, r2
   25888:	df04      	svc	4
   2588a:	e011      	b.n	258b0 <_ZN20complex_dynamic_type3app17hb384715a68268b10E+0x9c>
   2588c:	a80e      	add	r0, sp, #56	@ 0x38
   2588e:	7004      	strb	r4, [r0, #0]
   25890:	4833      	ldr	r0, [pc, #204]	@ (25960 <_ZN20complex_dynamic_type3app17hb384715a68268b10E+0x14c>)
   25892:	2600      	movs	r6, #0
   25894:	4631      	mov	r1, r6
   25896:	4622      	mov	r2, r4
   25898:	4633      	mov	r3, r6
   2589a:	df02      	svc	2
   2589c:	2880      	cmp	r0, #128	@ 0x80
   2589e:	d21b      	bcs.n	258d8 <_ZN20complex_dynamic_type3app17hb384715a68268b10E+0xc4>
   258a0:	2001      	movs	r0, #1
   258a2:	7028      	strb	r0, [r5, #0]
   258a4:	6069      	str	r1, [r5, #4]
   258a6:	482e      	ldr	r0, [pc, #184]	@ (25960 <_ZN20complex_dynamic_type3app17hb384715a68268b10E+0x14c>)
   258a8:	2103      	movs	r1, #3
   258aa:	2200      	movs	r2, #0
   258ac:	4613      	mov	r3, r2
   258ae:	df03      	svc	3
   258b0:	a804      	add	r0, sp, #16
   258b2:	7800      	ldrb	r0, [r0, #0]
   258b4:	2802      	cmp	r0, #2
   258b6:	d045      	beq.n	25944 <_ZN20complex_dynamic_type3app17hb384715a68268b10E+0x130>
   258b8:	2804      	cmp	r0, #4
   258ba:	d106      	bne.n	258ca <_ZN20complex_dynamic_type3app17hb384715a68268b10E+0xb6>
   258bc:	4828      	ldr	r0, [pc, #160]	@ (25960 <_ZN20complex_dynamic_type3app17hb384715a68268b10E+0x14c>)
   258be:	2100      	movs	r1, #0
   258c0:	460a      	mov	r2, r1
   258c2:	460b      	mov	r3, r1
   258c4:	df04      	svc	4
   258c6:	b019      	add	sp, #100	@ 0x64
   258c8:	bdf0      	pop	{r4, r5, r6, r7, pc}
   258ca:	4825      	ldr	r0, [pc, #148]	@ (25960 <_ZN20complex_dynamic_type3app17hb384715a68268b10E+0x14c>)
   258cc:	2100      	movs	r1, #0
   258ce:	460a      	mov	r2, r1
   258d0:	460b      	mov	r3, r1
   258d2:	df03      	svc	3
   258d4:	b019      	add	sp, #100	@ 0x64
   258d6:	bdf0      	pop	{r4, r5, r6, r7, pc}
   258d8:	a804      	add	r0, sp, #16
   258da:	7800      	ldrb	r0, [r0, #0]
   258dc:	2802      	cmp	r0, #2
   258de:	d00c      	beq.n	258fa <_ZN20complex_dynamic_type3app17hb384715a68268b10E+0xe6>
   258e0:	2803      	cmp	r0, #3
   258e2:	d105      	bne.n	258f0 <_ZN20complex_dynamic_type3app17hb384715a68268b10E+0xdc>
   258e4:	481e      	ldr	r0, [pc, #120]	@ (25960 <_ZN20complex_dynamic_type3app17hb384715a68268b10E+0x14c>)
   258e6:	2100      	movs	r1, #0
   258e8:	460a      	mov	r2, r1
   258ea:	460b      	mov	r3, r1
   258ec:	df03      	svc	3
   258ee:	e004      	b.n	258fa <_ZN20complex_dynamic_type3app17hb384715a68268b10E+0xe6>
   258f0:	481b      	ldr	r0, [pc, #108]	@ (25960 <_ZN20complex_dynamic_type3app17hb384715a68268b10E+0x14c>)
   258f2:	2100      	movs	r1, #0
   258f4:	460a      	mov	r2, r1
   258f6:	460b      	mov	r3, r1
   258f8:	df04      	svc	4
   258fa:	a804      	add	r0, sp, #16
   258fc:	9900      	ldr	r1, [sp, #0]
   258fe:	7001      	strb	r1, [r0, #0]
   25900:	a80e      	add	r0, sp, #56	@ 0x38
   25902:	7800      	ldrb	r0, [r0, #0]
   25904:	2804      	cmp	r0, #4
   25906:	d007      	beq.n	25918 <_ZN20complex_dynamic_type3app17hb384715a68268b10E+0x104>
   25908:	2803      	cmp	r0, #3
   2590a:	d11d      	bne.n	25948 <_ZN20complex_dynamic_type3app17hb384715a68268b10E+0x134>
   2590c:	4814      	ldr	r0, [pc, #80]	@ (25960 <_ZN20complex_dynamic_type3app17hb384715a68268b10E+0x14c>)
   2590e:	2103      	movs	r1, #3
   25910:	2200      	movs	r2, #0
   25912:	4613      	mov	r3, r2
   25914:	df03      	svc	3
   25916:	e004      	b.n	25922 <_ZN20complex_dynamic_type3app17hb384715a68268b10E+0x10e>
   25918:	4811      	ldr	r0, [pc, #68]	@ (25960 <_ZN20complex_dynamic_type3app17hb384715a68268b10E+0x14c>)
   2591a:	2103      	movs	r1, #3
   2591c:	2200      	movs	r2, #0
   2591e:	4613      	mov	r3, r2
   25920:	df04      	svc	4
   25922:	a804      	add	r0, sp, #16
   25924:	7804      	ldrb	r4, [r0, #0]
   25926:	1c68      	adds	r0, r5, #1
   25928:	222a      	movs	r2, #42	@ 0x2a
   2592a:	9901      	ldr	r1, [sp, #4]
   2592c:	f005 fbec 	bl	2b108 <__aeabi_memcpy>
   25930:	702e      	strb	r6, [r5, #0]
   25932:	2c02      	cmp	r4, #2
   25934:	d006      	beq.n	25944 <_ZN20complex_dynamic_type3app17hb384715a68268b10E+0x130>
   25936:	480a      	ldr	r0, [pc, #40]	@ (25960 <_ZN20complex_dynamic_type3app17hb384715a68268b10E+0x14c>)
   25938:	2100      	movs	r1, #0
   2593a:	460a      	mov	r2, r1
   2593c:	460b      	mov	r3, r1
   2593e:	2c04      	cmp	r4, #4
   25940:	d10a      	bne.n	25958 <_ZN20complex_dynamic_type3app17hb384715a68268b10E+0x144>
   25942:	df04      	svc	4
   25944:	b019      	add	sp, #100	@ 0x64
   25946:	bdf0      	pop	{r4, r5, r6, r7, pc}
   25948:	1c68      	adds	r0, r5, #1
   2594a:	222a      	movs	r2, #42	@ 0x2a
   2594c:	9901      	ldr	r1, [sp, #4]
   2594e:	f005 fbdb 	bl	2b108 <__aeabi_memcpy>
   25952:	702e      	strb	r6, [r5, #0]
   25954:	b019      	add	sp, #100	@ 0x64
   25956:	bdf0      	pop	{r4, r5, r6, r7, pc}
   25958:	df03      	svc	3
   2595a:	b019      	add	sp, #100	@ 0x64
   2595c:	bdf0      	pop	{r4, r5, r6, r7, pc}
   2595e:	46c0      	nop			@ (mov r8, r8)
   25960:	0000093c 	.word	0x0000093c

00025964 <_ZN20complex_dynamic_type3app17hb7e053492cd7fbd0E>:
   25964:	b5f0      	push	{r4, r5, r6, r7, lr}
   25966:	af03      	add	r7, sp, #12
   25968:	b09b      	sub	sp, #108	@ 0x6c
   2596a:	9004      	str	r0, [sp, #16]
   2596c:	a805      	add	r0, sp, #20
   2596e:	2402      	movs	r4, #2
   25970:	7004      	strb	r4, [r0, #0]
   25972:	1c40      	adds	r0, r0, #1
   25974:	9003      	str	r0, [sp, #12]
   25976:	252c      	movs	r5, #44	@ 0x2c
   25978:	462a      	mov	r2, r5
   2597a:	f005 fbc5 	bl	2b108 <__aeabi_memcpy>
   2597e:	ae11      	add	r6, sp, #68	@ 0x44
   25980:	1c70      	adds	r0, r6, #1
   25982:	2125      	movs	r1, #37	@ 0x25
   25984:	9002      	str	r0, [sp, #8]
   25986:	f005 f9ff 	bl	2ad88 <__aeabi_memclr>
   2598a:	9401      	str	r4, [sp, #4]
   2598c:	7034      	strb	r4, [r6, #0]
   2598e:	484a      	ldr	r0, [pc, #296]	@ (25ab8 <_ZN20complex_dynamic_type3app17hb7e053492cd7fbd0E+0x154>)
   25990:	2603      	movs	r6, #3
   25992:	4631      	mov	r1, r6
   25994:	9a03      	ldr	r2, [sp, #12]
   25996:	462b      	mov	r3, r5
   25998:	df04      	svc	4
   2599a:	2802      	cmp	r0, #2
   2599c:	d104      	bne.n	259a8 <_ZN20complex_dynamic_type3app17hb7e053492cd7fbd0E+0x44>
   2599e:	2001      	movs	r0, #1
   259a0:	9a04      	ldr	r2, [sp, #16]
   259a2:	7010      	strb	r0, [r2, #0]
   259a4:	6051      	str	r1, [r2, #4]
   259a6:	e02c      	b.n	25a02 <_ZN20complex_dynamic_type3app17hb7e053492cd7fbd0E+0x9e>
   259a8:	9d04      	ldr	r5, [sp, #16]
   259aa:	a805      	add	r0, sp, #20
   259ac:	2104      	movs	r1, #4
   259ae:	7001      	strb	r1, [r0, #0]
   259b0:	4841      	ldr	r0, [pc, #260]	@ (25ab8 <_ZN20complex_dynamic_type3app17hb7e053492cd7fbd0E+0x154>)
   259b2:	2100      	movs	r1, #0
   259b4:	2325      	movs	r3, #37	@ 0x25
   259b6:	9c02      	ldr	r4, [sp, #8]
   259b8:	4622      	mov	r2, r4
   259ba:	df03      	svc	3
   259bc:	2802      	cmp	r0, #2
   259be:	d10e      	bne.n	259de <_ZN20complex_dynamic_type3app17hb7e053492cd7fbd0E+0x7a>
   259c0:	2001      	movs	r0, #1
   259c2:	7028      	strb	r0, [r5, #0]
   259c4:	6069      	str	r1, [r5, #4]
   259c6:	a811      	add	r0, sp, #68	@ 0x44
   259c8:	7800      	ldrb	r0, [r0, #0]
   259ca:	2802      	cmp	r0, #2
   259cc:	d019      	beq.n	25a02 <_ZN20complex_dynamic_type3app17hb7e053492cd7fbd0E+0x9e>
   259ce:	2803      	cmp	r0, #3
   259d0:	d012      	beq.n	259f8 <_ZN20complex_dynamic_type3app17hb7e053492cd7fbd0E+0x94>
   259d2:	4839      	ldr	r0, [pc, #228]	@ (25ab8 <_ZN20complex_dynamic_type3app17hb7e053492cd7fbd0E+0x154>)
   259d4:	2100      	movs	r1, #0
   259d6:	460a      	mov	r2, r1
   259d8:	460b      	mov	r3, r1
   259da:	df04      	svc	4
   259dc:	e011      	b.n	25a02 <_ZN20complex_dynamic_type3app17hb7e053492cd7fbd0E+0x9e>
   259de:	a811      	add	r0, sp, #68	@ 0x44
   259e0:	7006      	strb	r6, [r0, #0]
   259e2:	4835      	ldr	r0, [pc, #212]	@ (25ab8 <_ZN20complex_dynamic_type3app17hb7e053492cd7fbd0E+0x154>)
   259e4:	2200      	movs	r2, #0
   259e6:	4631      	mov	r1, r6
   259e8:	9203      	str	r2, [sp, #12]
   259ea:	4613      	mov	r3, r2
   259ec:	df02      	svc	2
   259ee:	2880      	cmp	r0, #128	@ 0x80
   259f0:	d21b      	bcs.n	25a2a <_ZN20complex_dynamic_type3app17hb7e053492cd7fbd0E+0xc6>
   259f2:	2001      	movs	r0, #1
   259f4:	7028      	strb	r0, [r5, #0]
   259f6:	6069      	str	r1, [r5, #4]
   259f8:	482f      	ldr	r0, [pc, #188]	@ (25ab8 <_ZN20complex_dynamic_type3app17hb7e053492cd7fbd0E+0x154>)
   259fa:	2100      	movs	r1, #0
   259fc:	460a      	mov	r2, r1
   259fe:	460b      	mov	r3, r1
   25a00:	df03      	svc	3
   25a02:	a805      	add	r0, sp, #20
   25a04:	7800      	ldrb	r0, [r0, #0]
   25a06:	2802      	cmp	r0, #2
   25a08:	d048      	beq.n	25a9c <_ZN20complex_dynamic_type3app17hb7e053492cd7fbd0E+0x138>
   25a0a:	2804      	cmp	r0, #4
   25a0c:	d106      	bne.n	25a1c <_ZN20complex_dynamic_type3app17hb7e053492cd7fbd0E+0xb8>
   25a0e:	482a      	ldr	r0, [pc, #168]	@ (25ab8 <_ZN20complex_dynamic_type3app17hb7e053492cd7fbd0E+0x154>)
   25a10:	2103      	movs	r1, #3
   25a12:	2200      	movs	r2, #0
   25a14:	4613      	mov	r3, r2
   25a16:	df04      	svc	4
   25a18:	b01b      	add	sp, #108	@ 0x6c
   25a1a:	bdf0      	pop	{r4, r5, r6, r7, pc}
   25a1c:	4826      	ldr	r0, [pc, #152]	@ (25ab8 <_ZN20complex_dynamic_type3app17hb7e053492cd7fbd0E+0x154>)
   25a1e:	2103      	movs	r1, #3
   25a20:	2200      	movs	r2, #0
   25a22:	4613      	mov	r3, r2
   25a24:	df03      	svc	3
   25a26:	b01b      	add	sp, #108	@ 0x6c
   25a28:	bdf0      	pop	{r4, r5, r6, r7, pc}
   25a2a:	a805      	add	r0, sp, #20
   25a2c:	7800      	ldrb	r0, [r0, #0]
   25a2e:	2802      	cmp	r0, #2
   25a30:	d00c      	beq.n	25a4c <_ZN20complex_dynamic_type3app17hb7e053492cd7fbd0E+0xe8>
   25a32:	2803      	cmp	r0, #3
   25a34:	d105      	bne.n	25a42 <_ZN20complex_dynamic_type3app17hb7e053492cd7fbd0E+0xde>
   25a36:	4820      	ldr	r0, [pc, #128]	@ (25ab8 <_ZN20complex_dynamic_type3app17hb7e053492cd7fbd0E+0x154>)
   25a38:	2103      	movs	r1, #3
   25a3a:	2200      	movs	r2, #0
   25a3c:	4613      	mov	r3, r2
   25a3e:	df03      	svc	3
   25a40:	e004      	b.n	25a4c <_ZN20complex_dynamic_type3app17hb7e053492cd7fbd0E+0xe8>
   25a42:	481d      	ldr	r0, [pc, #116]	@ (25ab8 <_ZN20complex_dynamic_type3app17hb7e053492cd7fbd0E+0x154>)
   25a44:	2103      	movs	r1, #3
   25a46:	2200      	movs	r2, #0
   25a48:	4613      	mov	r3, r2
   25a4a:	df04      	svc	4
   25a4c:	a805      	add	r0, sp, #20
   25a4e:	9901      	ldr	r1, [sp, #4]
   25a50:	7001      	strb	r1, [r0, #0]
   25a52:	a811      	add	r0, sp, #68	@ 0x44
   25a54:	7800      	ldrb	r0, [r0, #0]
   25a56:	2804      	cmp	r0, #4
   25a58:	d008      	beq.n	25a6c <_ZN20complex_dynamic_type3app17hb7e053492cd7fbd0E+0x108>
   25a5a:	2803      	cmp	r0, #3
   25a5c:	d120      	bne.n	25aa0 <_ZN20complex_dynamic_type3app17hb7e053492cd7fbd0E+0x13c>
   25a5e:	4626      	mov	r6, r4
   25a60:	4815      	ldr	r0, [pc, #84]	@ (25ab8 <_ZN20complex_dynamic_type3app17hb7e053492cd7fbd0E+0x154>)
   25a62:	2100      	movs	r1, #0
   25a64:	460a      	mov	r2, r1
   25a66:	460b      	mov	r3, r1
   25a68:	df03      	svc	3
   25a6a:	e005      	b.n	25a78 <_ZN20complex_dynamic_type3app17hb7e053492cd7fbd0E+0x114>
   25a6c:	4626      	mov	r6, r4
   25a6e:	4812      	ldr	r0, [pc, #72]	@ (25ab8 <_ZN20complex_dynamic_type3app17hb7e053492cd7fbd0E+0x154>)
   25a70:	2100      	movs	r1, #0
   25a72:	460a      	mov	r2, r1
   25a74:	460b      	mov	r3, r1
   25a76:	df04      	svc	4
   25a78:	a805      	add	r0, sp, #20
   25a7a:	7804      	ldrb	r4, [r0, #0]
   25a7c:	1c68      	adds	r0, r5, #1
   25a7e:	2225      	movs	r2, #37	@ 0x25
   25a80:	4631      	mov	r1, r6
   25a82:	f005 fb41 	bl	2b108 <__aeabi_memcpy>
   25a86:	9803      	ldr	r0, [sp, #12]
   25a88:	7028      	strb	r0, [r5, #0]
   25a8a:	2c02      	cmp	r4, #2
   25a8c:	d006      	beq.n	25a9c <_ZN20complex_dynamic_type3app17hb7e053492cd7fbd0E+0x138>
   25a8e:	480a      	ldr	r0, [pc, #40]	@ (25ab8 <_ZN20complex_dynamic_type3app17hb7e053492cd7fbd0E+0x154>)
   25a90:	2103      	movs	r1, #3
   25a92:	2200      	movs	r2, #0
   25a94:	4613      	mov	r3, r2
   25a96:	2c04      	cmp	r4, #4
   25a98:	d10b      	bne.n	25ab2 <_ZN20complex_dynamic_type3app17hb7e053492cd7fbd0E+0x14e>
   25a9a:	df04      	svc	4
   25a9c:	b01b      	add	sp, #108	@ 0x6c
   25a9e:	bdf0      	pop	{r4, r5, r6, r7, pc}
   25aa0:	1c68      	adds	r0, r5, #1
   25aa2:	2225      	movs	r2, #37	@ 0x25
   25aa4:	4621      	mov	r1, r4
   25aa6:	f005 fb2f 	bl	2b108 <__aeabi_memcpy>
   25aaa:	9803      	ldr	r0, [sp, #12]
   25aac:	7028      	strb	r0, [r5, #0]
   25aae:	b01b      	add	sp, #108	@ 0x6c
   25ab0:	bdf0      	pop	{r4, r5, r6, r7, pc}
   25ab2:	df03      	svc	3
   25ab4:	b01b      	add	sp, #108	@ 0x6c
   25ab6:	bdf0      	pop	{r4, r5, r6, r7, pc}
   25ab8:	0000077f 	.word	0x0000077f

00025abc <_ZN20complex_dynamic_type3app17hb7f3c185aaa7968bE>:
   25abc:	b5f0      	push	{r4, r5, r6, r7, lr}
   25abe:	af03      	add	r7, sp, #12
   25ac0:	b09f      	sub	sp, #124	@ 0x7c
   25ac2:	9004      	str	r0, [sp, #16]
   25ac4:	a805      	add	r0, sp, #20
   25ac6:	2402      	movs	r4, #2
   25ac8:	7004      	strb	r4, [r0, #0]
   25aca:	1c40      	adds	r0, r0, #1
   25acc:	9003      	str	r0, [sp, #12]
   25ace:	2532      	movs	r5, #50	@ 0x32
   25ad0:	462a      	mov	r2, r5
   25ad2:	f005 fb19 	bl	2b108 <__aeabi_memcpy>
   25ad6:	ae12      	add	r6, sp, #72	@ 0x48
   25ad8:	1c70      	adds	r0, r6, #1
   25ada:	9002      	str	r0, [sp, #8]
   25adc:	4629      	mov	r1, r5
   25ade:	f005 f953 	bl	2ad88 <__aeabi_memclr>
   25ae2:	9401      	str	r4, [sp, #4]
   25ae4:	7034      	strb	r4, [r6, #0]
   25ae6:	4848      	ldr	r0, [pc, #288]	@ (25c08 <_ZN20complex_dynamic_type3app17hb7f3c185aaa7968bE+0x14c>)
   25ae8:	2603      	movs	r6, #3
   25aea:	4631      	mov	r1, r6
   25aec:	9a03      	ldr	r2, [sp, #12]
   25aee:	462b      	mov	r3, r5
   25af0:	df04      	svc	4
   25af2:	2802      	cmp	r0, #2
   25af4:	d104      	bne.n	25b00 <_ZN20complex_dynamic_type3app17hb7f3c185aaa7968bE+0x44>
   25af6:	2001      	movs	r0, #1
   25af8:	9a04      	ldr	r2, [sp, #16]
   25afa:	7010      	strb	r0, [r2, #0]
   25afc:	6051      	str	r1, [r2, #4]
   25afe:	e02c      	b.n	25b5a <_ZN20complex_dynamic_type3app17hb7f3c185aaa7968bE+0x9e>
   25b00:	9d04      	ldr	r5, [sp, #16]
   25b02:	a805      	add	r0, sp, #20
   25b04:	2104      	movs	r1, #4
   25b06:	7001      	strb	r1, [r0, #0]
   25b08:	483f      	ldr	r0, [pc, #252]	@ (25c08 <_ZN20complex_dynamic_type3app17hb7f3c185aaa7968bE+0x14c>)
   25b0a:	2401      	movs	r4, #1
   25b0c:	2332      	movs	r3, #50	@ 0x32
   25b0e:	4621      	mov	r1, r4
   25b10:	9a02      	ldr	r2, [sp, #8]
   25b12:	df03      	svc	3
   25b14:	2802      	cmp	r0, #2
   25b16:	d10d      	bne.n	25b34 <_ZN20complex_dynamic_type3app17hb7f3c185aaa7968bE+0x78>
   25b18:	702c      	strb	r4, [r5, #0]
   25b1a:	6069      	str	r1, [r5, #4]
   25b1c:	a812      	add	r0, sp, #72	@ 0x48
   25b1e:	7800      	ldrb	r0, [r0, #0]
   25b20:	2802      	cmp	r0, #2
   25b22:	d01a      	beq.n	25b5a <_ZN20complex_dynamic_type3app17hb7f3c185aaa7968bE+0x9e>
   25b24:	2803      	cmp	r0, #3
   25b26:	d013      	beq.n	25b50 <_ZN20complex_dynamic_type3app17hb7f3c185aaa7968bE+0x94>
   25b28:	4837      	ldr	r0, [pc, #220]	@ (25c08 <_ZN20complex_dynamic_type3app17hb7f3c185aaa7968bE+0x14c>)
   25b2a:	2101      	movs	r1, #1
   25b2c:	2200      	movs	r2, #0
   25b2e:	4613      	mov	r3, r2
   25b30:	df04      	svc	4
   25b32:	e012      	b.n	25b5a <_ZN20complex_dynamic_type3app17hb7f3c185aaa7968bE+0x9e>
   25b34:	a812      	add	r0, sp, #72	@ 0x48
   25b36:	7006      	strb	r6, [r0, #0]
   25b38:	4833      	ldr	r0, [pc, #204]	@ (25c08 <_ZN20complex_dynamic_type3app17hb7f3c185aaa7968bE+0x14c>)
   25b3a:	2401      	movs	r4, #1
   25b3c:	2200      	movs	r2, #0
   25b3e:	4631      	mov	r1, r6
   25b40:	4616      	mov	r6, r2
   25b42:	4622      	mov	r2, r4
   25b44:	4633      	mov	r3, r6
   25b46:	df02      	svc	2
   25b48:	2880      	cmp	r0, #128	@ 0x80
   25b4a:	d21a      	bcs.n	25b82 <_ZN20complex_dynamic_type3app17hb7f3c185aaa7968bE+0xc6>
   25b4c:	702c      	strb	r4, [r5, #0]
   25b4e:	6069      	str	r1, [r5, #4]
   25b50:	482d      	ldr	r0, [pc, #180]	@ (25c08 <_ZN20complex_dynamic_type3app17hb7f3c185aaa7968bE+0x14c>)
   25b52:	2101      	movs	r1, #1
   25b54:	2200      	movs	r2, #0
   25b56:	4613      	mov	r3, r2
   25b58:	df03      	svc	3
   25b5a:	a805      	add	r0, sp, #20
   25b5c:	7800      	ldrb	r0, [r0, #0]
   25b5e:	2802      	cmp	r0, #2
   25b60:	d045      	beq.n	25bee <_ZN20complex_dynamic_type3app17hb7f3c185aaa7968bE+0x132>
   25b62:	2804      	cmp	r0, #4
   25b64:	d106      	bne.n	25b74 <_ZN20complex_dynamic_type3app17hb7f3c185aaa7968bE+0xb8>
   25b66:	4828      	ldr	r0, [pc, #160]	@ (25c08 <_ZN20complex_dynamic_type3app17hb7f3c185aaa7968bE+0x14c>)
   25b68:	2103      	movs	r1, #3
   25b6a:	2200      	movs	r2, #0
   25b6c:	4613      	mov	r3, r2
   25b6e:	df04      	svc	4
   25b70:	b01f      	add	sp, #124	@ 0x7c
   25b72:	bdf0      	pop	{r4, r5, r6, r7, pc}
   25b74:	4824      	ldr	r0, [pc, #144]	@ (25c08 <_ZN20complex_dynamic_type3app17hb7f3c185aaa7968bE+0x14c>)
   25b76:	2103      	movs	r1, #3
   25b78:	2200      	movs	r2, #0
   25b7a:	4613      	mov	r3, r2
   25b7c:	df03      	svc	3
   25b7e:	b01f      	add	sp, #124	@ 0x7c
   25b80:	bdf0      	pop	{r4, r5, r6, r7, pc}
   25b82:	a805      	add	r0, sp, #20
   25b84:	7800      	ldrb	r0, [r0, #0]
   25b86:	2802      	cmp	r0, #2
   25b88:	d00c      	beq.n	25ba4 <_ZN20complex_dynamic_type3app17hb7f3c185aaa7968bE+0xe8>
   25b8a:	2803      	cmp	r0, #3
   25b8c:	d105      	bne.n	25b9a <_ZN20complex_dynamic_type3app17hb7f3c185aaa7968bE+0xde>
   25b8e:	481e      	ldr	r0, [pc, #120]	@ (25c08 <_ZN20complex_dynamic_type3app17hb7f3c185aaa7968bE+0x14c>)
   25b90:	2103      	movs	r1, #3
   25b92:	2200      	movs	r2, #0
   25b94:	4613      	mov	r3, r2
   25b96:	df03      	svc	3
   25b98:	e004      	b.n	25ba4 <_ZN20complex_dynamic_type3app17hb7f3c185aaa7968bE+0xe8>
   25b9a:	481b      	ldr	r0, [pc, #108]	@ (25c08 <_ZN20complex_dynamic_type3app17hb7f3c185aaa7968bE+0x14c>)
   25b9c:	2103      	movs	r1, #3
   25b9e:	2200      	movs	r2, #0
   25ba0:	4613      	mov	r3, r2
   25ba2:	df04      	svc	4
   25ba4:	a805      	add	r0, sp, #20
   25ba6:	9901      	ldr	r1, [sp, #4]
   25ba8:	7001      	strb	r1, [r0, #0]
   25baa:	a812      	add	r0, sp, #72	@ 0x48
   25bac:	7800      	ldrb	r0, [r0, #0]
   25bae:	2804      	cmp	r0, #4
   25bb0:	d007      	beq.n	25bc2 <_ZN20complex_dynamic_type3app17hb7f3c185aaa7968bE+0x106>
   25bb2:	2803      	cmp	r0, #3
   25bb4:	d11d      	bne.n	25bf2 <_ZN20complex_dynamic_type3app17hb7f3c185aaa7968bE+0x136>
   25bb6:	4814      	ldr	r0, [pc, #80]	@ (25c08 <_ZN20complex_dynamic_type3app17hb7f3c185aaa7968bE+0x14c>)
   25bb8:	2101      	movs	r1, #1
   25bba:	2200      	movs	r2, #0
   25bbc:	4613      	mov	r3, r2
   25bbe:	df03      	svc	3
   25bc0:	e004      	b.n	25bcc <_ZN20complex_dynamic_type3app17hb7f3c185aaa7968bE+0x110>
   25bc2:	4811      	ldr	r0, [pc, #68]	@ (25c08 <_ZN20complex_dynamic_type3app17hb7f3c185aaa7968bE+0x14c>)
   25bc4:	2101      	movs	r1, #1
   25bc6:	2200      	movs	r2, #0
   25bc8:	4613      	mov	r3, r2
   25bca:	df04      	svc	4
   25bcc:	a805      	add	r0, sp, #20
   25bce:	7804      	ldrb	r4, [r0, #0]
   25bd0:	1c68      	adds	r0, r5, #1
   25bd2:	2232      	movs	r2, #50	@ 0x32
   25bd4:	9902      	ldr	r1, [sp, #8]
   25bd6:	f005 fa97 	bl	2b108 <__aeabi_memcpy>
   25bda:	702e      	strb	r6, [r5, #0]
   25bdc:	2c02      	cmp	r4, #2
   25bde:	d006      	beq.n	25bee <_ZN20complex_dynamic_type3app17hb7f3c185aaa7968bE+0x132>
   25be0:	4809      	ldr	r0, [pc, #36]	@ (25c08 <_ZN20complex_dynamic_type3app17hb7f3c185aaa7968bE+0x14c>)
   25be2:	2103      	movs	r1, #3
   25be4:	2200      	movs	r2, #0
   25be6:	4613      	mov	r3, r2
   25be8:	2c04      	cmp	r4, #4
   25bea:	d10a      	bne.n	25c02 <_ZN20complex_dynamic_type3app17hb7f3c185aaa7968bE+0x146>
   25bec:	df04      	svc	4
   25bee:	b01f      	add	sp, #124	@ 0x7c
   25bf0:	bdf0      	pop	{r4, r5, r6, r7, pc}
   25bf2:	9902      	ldr	r1, [sp, #8]
   25bf4:	1c68      	adds	r0, r5, #1
   25bf6:	2232      	movs	r2, #50	@ 0x32
   25bf8:	f005 fa86 	bl	2b108 <__aeabi_memcpy>
   25bfc:	702e      	strb	r6, [r5, #0]
   25bfe:	b01f      	add	sp, #124	@ 0x7c
   25c00:	bdf0      	pop	{r4, r5, r6, r7, pc}
   25c02:	df03      	svc	3
   25c04:	b01f      	add	sp, #124	@ 0x7c
   25c06:	bdf0      	pop	{r4, r5, r6, r7, pc}
   25c08:	00001f07 	.word	0x00001f07

00025c0c <_ZN20complex_dynamic_type3app17hb9398cc16f05c4ffE>:
   25c0c:	b5f0      	push	{r4, r5, r6, r7, lr}
   25c0e:	af03      	add	r7, sp, #12
   25c10:	b09f      	sub	sp, #124	@ 0x7c
   25c12:	9002      	str	r0, [sp, #8]
   25c14:	a803      	add	r0, sp, #12
   25c16:	2602      	movs	r6, #2
   25c18:	7006      	strb	r6, [r0, #0]
   25c1a:	1c40      	adds	r0, r0, #1
   25c1c:	9001      	str	r0, [sp, #4]
   25c1e:	2550      	movs	r5, #80	@ 0x50
   25c20:	462a      	mov	r2, r5
   25c22:	f005 fa71 	bl	2b108 <__aeabi_memcpy>
   25c26:	ac18      	add	r4, sp, #96	@ 0x60
   25c28:	1c60      	adds	r0, r4, #1
   25c2a:	211b      	movs	r1, #27
   25c2c:	9000      	str	r0, [sp, #0]
   25c2e:	f005 f8ab 	bl	2ad88 <__aeabi_memclr>
   25c32:	7026      	strb	r6, [r4, #0]
   25c34:	4848      	ldr	r0, [pc, #288]	@ (25d58 <_ZN20complex_dynamic_type3app17hb9398cc16f05c4ffE+0x14c>)
   25c36:	2601      	movs	r6, #1
   25c38:	4631      	mov	r1, r6
   25c3a:	9a01      	ldr	r2, [sp, #4]
   25c3c:	462b      	mov	r3, r5
   25c3e:	df04      	svc	4
   25c40:	2802      	cmp	r0, #2
   25c42:	d103      	bne.n	25c4c <_ZN20complex_dynamic_type3app17hb9398cc16f05c4ffE+0x40>
   25c44:	9802      	ldr	r0, [sp, #8]
   25c46:	7006      	strb	r6, [r0, #0]
   25c48:	6041      	str	r1, [r0, #4]
   25c4a:	e02c      	b.n	25ca6 <_ZN20complex_dynamic_type3app17hb9398cc16f05c4ffE+0x9a>
   25c4c:	9d02      	ldr	r5, [sp, #8]
   25c4e:	a803      	add	r0, sp, #12
   25c50:	2104      	movs	r1, #4
   25c52:	7001      	strb	r1, [r0, #0]
   25c54:	4840      	ldr	r0, [pc, #256]	@ (25d58 <_ZN20complex_dynamic_type3app17hb9398cc16f05c4ffE+0x14c>)
   25c56:	2102      	movs	r1, #2
   25c58:	231b      	movs	r3, #27
   25c5a:	9a00      	ldr	r2, [sp, #0]
   25c5c:	df03      	svc	3
   25c5e:	2802      	cmp	r0, #2
   25c60:	d10d      	bne.n	25c7e <_ZN20complex_dynamic_type3app17hb9398cc16f05c4ffE+0x72>
   25c62:	702e      	strb	r6, [r5, #0]
   25c64:	6069      	str	r1, [r5, #4]
   25c66:	a818      	add	r0, sp, #96	@ 0x60
   25c68:	7800      	ldrb	r0, [r0, #0]
   25c6a:	2802      	cmp	r0, #2
   25c6c:	d01b      	beq.n	25ca6 <_ZN20complex_dynamic_type3app17hb9398cc16f05c4ffE+0x9a>
   25c6e:	2803      	cmp	r0, #3
   25c70:	d014      	beq.n	25c9c <_ZN20complex_dynamic_type3app17hb9398cc16f05c4ffE+0x90>
   25c72:	4839      	ldr	r0, [pc, #228]	@ (25d58 <_ZN20complex_dynamic_type3app17hb9398cc16f05c4ffE+0x14c>)
   25c74:	2102      	movs	r1, #2
   25c76:	2200      	movs	r2, #0
   25c78:	4613      	mov	r3, r2
   25c7a:	df04      	svc	4
   25c7c:	e013      	b.n	25ca6 <_ZN20complex_dynamic_type3app17hb9398cc16f05c4ffE+0x9a>
   25c7e:	a818      	add	r0, sp, #96	@ 0x60
   25c80:	2103      	movs	r1, #3
   25c82:	7001      	strb	r1, [r0, #0]
   25c84:	4834      	ldr	r0, [pc, #208]	@ (25d58 <_ZN20complex_dynamic_type3app17hb9398cc16f05c4ffE+0x14c>)
   25c86:	2401      	movs	r4, #1
   25c88:	2602      	movs	r6, #2
   25c8a:	2300      	movs	r3, #0
   25c8c:	4621      	mov	r1, r4
   25c8e:	4632      	mov	r2, r6
   25c90:	9301      	str	r3, [sp, #4]
   25c92:	df02      	svc	2
   25c94:	2880      	cmp	r0, #128	@ 0x80
   25c96:	d21a      	bcs.n	25cce <_ZN20complex_dynamic_type3app17hb9398cc16f05c4ffE+0xc2>
   25c98:	702c      	strb	r4, [r5, #0]
   25c9a:	6069      	str	r1, [r5, #4]
   25c9c:	482e      	ldr	r0, [pc, #184]	@ (25d58 <_ZN20complex_dynamic_type3app17hb9398cc16f05c4ffE+0x14c>)
   25c9e:	2102      	movs	r1, #2
   25ca0:	2200      	movs	r2, #0
   25ca2:	4613      	mov	r3, r2
   25ca4:	df03      	svc	3
   25ca6:	a803      	add	r0, sp, #12
   25ca8:	7800      	ldrb	r0, [r0, #0]
   25caa:	2802      	cmp	r0, #2
   25cac:	d045      	beq.n	25d3a <_ZN20complex_dynamic_type3app17hb9398cc16f05c4ffE+0x12e>
   25cae:	2804      	cmp	r0, #4
   25cb0:	d106      	bne.n	25cc0 <_ZN20complex_dynamic_type3app17hb9398cc16f05c4ffE+0xb4>
   25cb2:	4829      	ldr	r0, [pc, #164]	@ (25d58 <_ZN20complex_dynamic_type3app17hb9398cc16f05c4ffE+0x14c>)
   25cb4:	2101      	movs	r1, #1
   25cb6:	2200      	movs	r2, #0
   25cb8:	4613      	mov	r3, r2
   25cba:	df04      	svc	4
   25cbc:	b01f      	add	sp, #124	@ 0x7c
   25cbe:	bdf0      	pop	{r4, r5, r6, r7, pc}
   25cc0:	4825      	ldr	r0, [pc, #148]	@ (25d58 <_ZN20complex_dynamic_type3app17hb9398cc16f05c4ffE+0x14c>)
   25cc2:	2101      	movs	r1, #1
   25cc4:	2200      	movs	r2, #0
   25cc6:	4613      	mov	r3, r2
   25cc8:	df03      	svc	3
   25cca:	b01f      	add	sp, #124	@ 0x7c
   25ccc:	bdf0      	pop	{r4, r5, r6, r7, pc}
   25cce:	a803      	add	r0, sp, #12
   25cd0:	7800      	ldrb	r0, [r0, #0]
   25cd2:	2802      	cmp	r0, #2
   25cd4:	d00c      	beq.n	25cf0 <_ZN20complex_dynamic_type3app17hb9398cc16f05c4ffE+0xe4>
   25cd6:	2803      	cmp	r0, #3
   25cd8:	d105      	bne.n	25ce6 <_ZN20complex_dynamic_type3app17hb9398cc16f05c4ffE+0xda>
   25cda:	481f      	ldr	r0, [pc, #124]	@ (25d58 <_ZN20complex_dynamic_type3app17hb9398cc16f05c4ffE+0x14c>)
   25cdc:	2101      	movs	r1, #1
   25cde:	2200      	movs	r2, #0
   25ce0:	4613      	mov	r3, r2
   25ce2:	df03      	svc	3
   25ce4:	e004      	b.n	25cf0 <_ZN20complex_dynamic_type3app17hb9398cc16f05c4ffE+0xe4>
   25ce6:	481c      	ldr	r0, [pc, #112]	@ (25d58 <_ZN20complex_dynamic_type3app17hb9398cc16f05c4ffE+0x14c>)
   25ce8:	2101      	movs	r1, #1
   25cea:	2200      	movs	r2, #0
   25cec:	4613      	mov	r3, r2
   25cee:	df04      	svc	4
   25cf0:	a803      	add	r0, sp, #12
   25cf2:	7006      	strb	r6, [r0, #0]
   25cf4:	a818      	add	r0, sp, #96	@ 0x60
   25cf6:	7800      	ldrb	r0, [r0, #0]
   25cf8:	2804      	cmp	r0, #4
   25cfa:	d007      	beq.n	25d0c <_ZN20complex_dynamic_type3app17hb9398cc16f05c4ffE+0x100>
   25cfc:	2803      	cmp	r0, #3
   25cfe:	d11e      	bne.n	25d3e <_ZN20complex_dynamic_type3app17hb9398cc16f05c4ffE+0x132>
   25d00:	4815      	ldr	r0, [pc, #84]	@ (25d58 <_ZN20complex_dynamic_type3app17hb9398cc16f05c4ffE+0x14c>)
   25d02:	2102      	movs	r1, #2
   25d04:	2200      	movs	r2, #0
   25d06:	4613      	mov	r3, r2
   25d08:	df03      	svc	3
   25d0a:	e004      	b.n	25d16 <_ZN20complex_dynamic_type3app17hb9398cc16f05c4ffE+0x10a>
   25d0c:	4812      	ldr	r0, [pc, #72]	@ (25d58 <_ZN20complex_dynamic_type3app17hb9398cc16f05c4ffE+0x14c>)
   25d0e:	2102      	movs	r1, #2
   25d10:	2200      	movs	r2, #0
   25d12:	4613      	mov	r3, r2
   25d14:	df04      	svc	4
   25d16:	a803      	add	r0, sp, #12
   25d18:	7804      	ldrb	r4, [r0, #0]
   25d1a:	1c68      	adds	r0, r5, #1
   25d1c:	221b      	movs	r2, #27
   25d1e:	9900      	ldr	r1, [sp, #0]
   25d20:	f005 f9f2 	bl	2b108 <__aeabi_memcpy>
   25d24:	9801      	ldr	r0, [sp, #4]
   25d26:	7028      	strb	r0, [r5, #0]
   25d28:	2c02      	cmp	r4, #2
   25d2a:	d006      	beq.n	25d3a <_ZN20complex_dynamic_type3app17hb9398cc16f05c4ffE+0x12e>
   25d2c:	480a      	ldr	r0, [pc, #40]	@ (25d58 <_ZN20complex_dynamic_type3app17hb9398cc16f05c4ffE+0x14c>)
   25d2e:	2101      	movs	r1, #1
   25d30:	2200      	movs	r2, #0
   25d32:	4613      	mov	r3, r2
   25d34:	2c04      	cmp	r4, #4
   25d36:	d10b      	bne.n	25d50 <_ZN20complex_dynamic_type3app17hb9398cc16f05c4ffE+0x144>
   25d38:	df04      	svc	4
   25d3a:	b01f      	add	sp, #124	@ 0x7c
   25d3c:	bdf0      	pop	{r4, r5, r6, r7, pc}
   25d3e:	9900      	ldr	r1, [sp, #0]
   25d40:	1c68      	adds	r0, r5, #1
   25d42:	221b      	movs	r2, #27
   25d44:	f005 f9e0 	bl	2b108 <__aeabi_memcpy>
   25d48:	9801      	ldr	r0, [sp, #4]
   25d4a:	7028      	strb	r0, [r5, #0]
   25d4c:	b01f      	add	sp, #124	@ 0x7c
   25d4e:	bdf0      	pop	{r4, r5, r6, r7, pc}
   25d50:	df03      	svc	3
   25d52:	b01f      	add	sp, #124	@ 0x7c
   25d54:	bdf0      	pop	{r4, r5, r6, r7, pc}
   25d56:	46c0      	nop			@ (mov r8, r8)
   25d58:	000003d9 	.word	0x000003d9

00025d5c <_ZN20complex_dynamic_type3app17hb962f93751411d6eE>:
   25d5c:	b5f0      	push	{r4, r5, r6, r7, lr}
   25d5e:	af03      	add	r7, sp, #12
   25d60:	b09f      	sub	sp, #124	@ 0x7c
   25d62:	9002      	str	r0, [sp, #8]
   25d64:	a803      	add	r0, sp, #12
   25d66:	2502      	movs	r5, #2
   25d68:	7005      	strb	r5, [r0, #0]
   25d6a:	1c46      	adds	r6, r0, #1
   25d6c:	2236      	movs	r2, #54	@ 0x36
   25d6e:	9201      	str	r2, [sp, #4]
   25d70:	4630      	mov	r0, r6
   25d72:	f005 f9c9 	bl	2b108 <__aeabi_memcpy>
   25d76:	ac11      	add	r4, sp, #68	@ 0x44
   25d78:	1c60      	adds	r0, r4, #1
   25d7a:	2134      	movs	r1, #52	@ 0x34
   25d7c:	9000      	str	r0, [sp, #0]
   25d7e:	f005 f803 	bl	2ad88 <__aeabi_memclr>
   25d82:	7025      	strb	r5, [r4, #0]
   25d84:	4849      	ldr	r0, [pc, #292]	@ (25eac <_ZN20complex_dynamic_type3app17hb962f93751411d6eE+0x150>)
   25d86:	2504      	movs	r5, #4
   25d88:	4629      	mov	r1, r5
   25d8a:	4632      	mov	r2, r6
   25d8c:	9b01      	ldr	r3, [sp, #4]
   25d8e:	df04      	svc	4
   25d90:	2802      	cmp	r0, #2
   25d92:	d104      	bne.n	25d9e <_ZN20complex_dynamic_type3app17hb962f93751411d6eE+0x42>
   25d94:	2001      	movs	r0, #1
   25d96:	9a02      	ldr	r2, [sp, #8]
   25d98:	7010      	strb	r0, [r2, #0]
   25d9a:	6051      	str	r1, [r2, #4]
   25d9c:	e02d      	b.n	25dfa <_ZN20complex_dynamic_type3app17hb962f93751411d6eE+0x9e>
   25d9e:	9c02      	ldr	r4, [sp, #8]
   25da0:	a803      	add	r0, sp, #12
   25da2:	7005      	strb	r5, [r0, #0]
   25da4:	4841      	ldr	r0, [pc, #260]	@ (25eac <_ZN20complex_dynamic_type3app17hb962f93751411d6eE+0x150>)
   25da6:	2102      	movs	r1, #2
   25da8:	2334      	movs	r3, #52	@ 0x34
   25daa:	9a00      	ldr	r2, [sp, #0]
   25dac:	df03      	svc	3
   25dae:	2802      	cmp	r0, #2
   25db0:	d10e      	bne.n	25dd0 <_ZN20complex_dynamic_type3app17hb962f93751411d6eE+0x74>
   25db2:	2001      	movs	r0, #1
   25db4:	7020      	strb	r0, [r4, #0]
   25db6:	6061      	str	r1, [r4, #4]
   25db8:	a811      	add	r0, sp, #68	@ 0x44
   25dba:	7800      	ldrb	r0, [r0, #0]
   25dbc:	2802      	cmp	r0, #2
   25dbe:	d01c      	beq.n	25dfa <_ZN20complex_dynamic_type3app17hb962f93751411d6eE+0x9e>
   25dc0:	2803      	cmp	r0, #3
   25dc2:	d015      	beq.n	25df0 <_ZN20complex_dynamic_type3app17hb962f93751411d6eE+0x94>
   25dc4:	4839      	ldr	r0, [pc, #228]	@ (25eac <_ZN20complex_dynamic_type3app17hb962f93751411d6eE+0x150>)
   25dc6:	2102      	movs	r1, #2
   25dc8:	2200      	movs	r2, #0
   25dca:	4613      	mov	r3, r2
   25dcc:	df04      	svc	4
   25dce:	e014      	b.n	25dfa <_ZN20complex_dynamic_type3app17hb962f93751411d6eE+0x9e>
   25dd0:	a811      	add	r0, sp, #68	@ 0x44
   25dd2:	2103      	movs	r1, #3
   25dd4:	7001      	strb	r1, [r0, #0]
   25dd6:	4835      	ldr	r0, [pc, #212]	@ (25eac <_ZN20complex_dynamic_type3app17hb962f93751411d6eE+0x150>)
   25dd8:	2104      	movs	r1, #4
   25dda:	2602      	movs	r6, #2
   25ddc:	2300      	movs	r3, #0
   25dde:	4632      	mov	r2, r6
   25de0:	9301      	str	r3, [sp, #4]
   25de2:	df02      	svc	2
   25de4:	2880      	cmp	r0, #128	@ 0x80
   25de6:	4625      	mov	r5, r4
   25de8:	d21b      	bcs.n	25e22 <_ZN20complex_dynamic_type3app17hb962f93751411d6eE+0xc6>
   25dea:	2001      	movs	r0, #1
   25dec:	7028      	strb	r0, [r5, #0]
   25dee:	6069      	str	r1, [r5, #4]
   25df0:	482e      	ldr	r0, [pc, #184]	@ (25eac <_ZN20complex_dynamic_type3app17hb962f93751411d6eE+0x150>)
   25df2:	2102      	movs	r1, #2
   25df4:	2200      	movs	r2, #0
   25df6:	4613      	mov	r3, r2
   25df8:	df03      	svc	3
   25dfa:	a803      	add	r0, sp, #12
   25dfc:	7800      	ldrb	r0, [r0, #0]
   25dfe:	2802      	cmp	r0, #2
   25e00:	d045      	beq.n	25e8e <_ZN20complex_dynamic_type3app17hb962f93751411d6eE+0x132>
   25e02:	2804      	cmp	r0, #4
   25e04:	d106      	bne.n	25e14 <_ZN20complex_dynamic_type3app17hb962f93751411d6eE+0xb8>
   25e06:	4829      	ldr	r0, [pc, #164]	@ (25eac <_ZN20complex_dynamic_type3app17hb962f93751411d6eE+0x150>)
   25e08:	2104      	movs	r1, #4
   25e0a:	2200      	movs	r2, #0
   25e0c:	4613      	mov	r3, r2
   25e0e:	df04      	svc	4
   25e10:	b01f      	add	sp, #124	@ 0x7c
   25e12:	bdf0      	pop	{r4, r5, r6, r7, pc}
   25e14:	4825      	ldr	r0, [pc, #148]	@ (25eac <_ZN20complex_dynamic_type3app17hb962f93751411d6eE+0x150>)
   25e16:	2104      	movs	r1, #4
   25e18:	2200      	movs	r2, #0
   25e1a:	4613      	mov	r3, r2
   25e1c:	df03      	svc	3
   25e1e:	b01f      	add	sp, #124	@ 0x7c
   25e20:	bdf0      	pop	{r4, r5, r6, r7, pc}
   25e22:	a803      	add	r0, sp, #12
   25e24:	7800      	ldrb	r0, [r0, #0]
   25e26:	2802      	cmp	r0, #2
   25e28:	d00c      	beq.n	25e44 <_ZN20complex_dynamic_type3app17hb962f93751411d6eE+0xe8>
   25e2a:	2803      	cmp	r0, #3
   25e2c:	d105      	bne.n	25e3a <_ZN20complex_dynamic_type3app17hb962f93751411d6eE+0xde>
   25e2e:	481f      	ldr	r0, [pc, #124]	@ (25eac <_ZN20complex_dynamic_type3app17hb962f93751411d6eE+0x150>)
   25e30:	2104      	movs	r1, #4
   25e32:	2200      	movs	r2, #0
   25e34:	4613      	mov	r3, r2
   25e36:	df03      	svc	3
   25e38:	e004      	b.n	25e44 <_ZN20complex_dynamic_type3app17hb962f93751411d6eE+0xe8>
   25e3a:	481c      	ldr	r0, [pc, #112]	@ (25eac <_ZN20complex_dynamic_type3app17hb962f93751411d6eE+0x150>)
   25e3c:	2104      	movs	r1, #4
   25e3e:	2200      	movs	r2, #0
   25e40:	4613      	mov	r3, r2
   25e42:	df04      	svc	4
   25e44:	a803      	add	r0, sp, #12
   25e46:	7006      	strb	r6, [r0, #0]
   25e48:	a811      	add	r0, sp, #68	@ 0x44
   25e4a:	7800      	ldrb	r0, [r0, #0]
   25e4c:	2804      	cmp	r0, #4
   25e4e:	d007      	beq.n	25e60 <_ZN20complex_dynamic_type3app17hb962f93751411d6eE+0x104>
   25e50:	2803      	cmp	r0, #3
   25e52:	d11e      	bne.n	25e92 <_ZN20complex_dynamic_type3app17hb962f93751411d6eE+0x136>
   25e54:	4815      	ldr	r0, [pc, #84]	@ (25eac <_ZN20complex_dynamic_type3app17hb962f93751411d6eE+0x150>)
   25e56:	2102      	movs	r1, #2
   25e58:	2200      	movs	r2, #0
   25e5a:	4613      	mov	r3, r2
   25e5c:	df03      	svc	3
   25e5e:	e004      	b.n	25e6a <_ZN20complex_dynamic_type3app17hb962f93751411d6eE+0x10e>
   25e60:	4812      	ldr	r0, [pc, #72]	@ (25eac <_ZN20complex_dynamic_type3app17hb962f93751411d6eE+0x150>)
   25e62:	2102      	movs	r1, #2
   25e64:	2200      	movs	r2, #0
   25e66:	4613      	mov	r3, r2
   25e68:	df04      	svc	4
   25e6a:	a803      	add	r0, sp, #12
   25e6c:	7804      	ldrb	r4, [r0, #0]
   25e6e:	1c68      	adds	r0, r5, #1
   25e70:	2234      	movs	r2, #52	@ 0x34
   25e72:	9900      	ldr	r1, [sp, #0]
   25e74:	f005 f948 	bl	2b108 <__aeabi_memcpy>
   25e78:	9801      	ldr	r0, [sp, #4]
   25e7a:	7028      	strb	r0, [r5, #0]
   25e7c:	2c02      	cmp	r4, #2
   25e7e:	d006      	beq.n	25e8e <_ZN20complex_dynamic_type3app17hb962f93751411d6eE+0x132>
   25e80:	480a      	ldr	r0, [pc, #40]	@ (25eac <_ZN20complex_dynamic_type3app17hb962f93751411d6eE+0x150>)
   25e82:	2104      	movs	r1, #4
   25e84:	2200      	movs	r2, #0
   25e86:	4613      	mov	r3, r2
   25e88:	2c04      	cmp	r4, #4
   25e8a:	d10b      	bne.n	25ea4 <_ZN20complex_dynamic_type3app17hb962f93751411d6eE+0x148>
   25e8c:	df04      	svc	4
   25e8e:	b01f      	add	sp, #124	@ 0x7c
   25e90:	bdf0      	pop	{r4, r5, r6, r7, pc}
   25e92:	1c68      	adds	r0, r5, #1
   25e94:	2234      	movs	r2, #52	@ 0x34
   25e96:	9900      	ldr	r1, [sp, #0]
   25e98:	f005 f936 	bl	2b108 <__aeabi_memcpy>
   25e9c:	9801      	ldr	r0, [sp, #4]
   25e9e:	7028      	strb	r0, [r5, #0]
   25ea0:	b01f      	add	sp, #124	@ 0x7c
   25ea2:	bdf0      	pop	{r4, r5, r6, r7, pc}
   25ea4:	df03      	svc	3
   25ea6:	b01f      	add	sp, #124	@ 0x7c
   25ea8:	bdf0      	pop	{r4, r5, r6, r7, pc}
   25eaa:	46c0      	nop			@ (mov r8, r8)
   25eac:	000023c6 	.word	0x000023c6

00025eb0 <_ZN20complex_dynamic_type3app17hb9843ab66012ca50E>:
   25eb0:	b5f0      	push	{r4, r5, r6, r7, lr}
   25eb2:	af03      	add	r7, sp, #12
   25eb4:	b0a5      	sub	sp, #148	@ 0x94
   25eb6:	9003      	str	r0, [sp, #12]
   25eb8:	a804      	add	r0, sp, #16
   25eba:	2502      	movs	r5, #2
   25ebc:	7005      	strb	r5, [r0, #0]
   25ebe:	1c40      	adds	r0, r0, #1
   25ec0:	9002      	str	r0, [sp, #8]
   25ec2:	2661      	movs	r6, #97	@ 0x61
   25ec4:	4632      	mov	r2, r6
   25ec6:	f005 f91f 	bl	2b108 <__aeabi_memcpy>
   25eca:	ac1d      	add	r4, sp, #116	@ 0x74
   25ecc:	1c60      	adds	r0, r4, #1
   25ece:	211e      	movs	r1, #30
   25ed0:	9001      	str	r0, [sp, #4]
   25ed2:	f004 ff59 	bl	2ad88 <__aeabi_memclr>
   25ed6:	9500      	str	r5, [sp, #0]
   25ed8:	7025      	strb	r5, [r4, #0]
   25eda:	2031      	movs	r0, #49	@ 0x31
   25edc:	00c5      	lsls	r5, r0, #3
   25ede:	2404      	movs	r4, #4
   25ee0:	4628      	mov	r0, r5
   25ee2:	4621      	mov	r1, r4
   25ee4:	9a02      	ldr	r2, [sp, #8]
   25ee6:	4633      	mov	r3, r6
   25ee8:	df04      	svc	4
   25eea:	2802      	cmp	r0, #2
   25eec:	d104      	bne.n	25ef8 <_ZN20complex_dynamic_type3app17hb9843ab66012ca50E+0x48>
   25eee:	2001      	movs	r0, #1
   25ef0:	9a03      	ldr	r2, [sp, #12]
   25ef2:	7010      	strb	r0, [r2, #0]
   25ef4:	6051      	str	r1, [r2, #4]
   25ef6:	e02c      	b.n	25f52 <_ZN20complex_dynamic_type3app17hb9843ab66012ca50E+0xa2>
   25ef8:	9e03      	ldr	r6, [sp, #12]
   25efa:	a804      	add	r0, sp, #16
   25efc:	7004      	strb	r4, [r0, #0]
   25efe:	2106      	movs	r1, #6
   25f00:	231e      	movs	r3, #30
   25f02:	4628      	mov	r0, r5
   25f04:	9c01      	ldr	r4, [sp, #4]
   25f06:	4622      	mov	r2, r4
   25f08:	df03      	svc	3
   25f0a:	2802      	cmp	r0, #2
   25f0c:	d10e      	bne.n	25f2c <_ZN20complex_dynamic_type3app17hb9843ab66012ca50E+0x7c>
   25f0e:	2001      	movs	r0, #1
   25f10:	7030      	strb	r0, [r6, #0]
   25f12:	6071      	str	r1, [r6, #4]
   25f14:	a81d      	add	r0, sp, #116	@ 0x74
   25f16:	7800      	ldrb	r0, [r0, #0]
   25f18:	2802      	cmp	r0, #2
   25f1a:	d01a      	beq.n	25f52 <_ZN20complex_dynamic_type3app17hb9843ab66012ca50E+0xa2>
   25f1c:	2803      	cmp	r0, #3
   25f1e:	d013      	beq.n	25f48 <_ZN20complex_dynamic_type3app17hb9843ab66012ca50E+0x98>
   25f20:	2106      	movs	r1, #6
   25f22:	2200      	movs	r2, #0
   25f24:	4628      	mov	r0, r5
   25f26:	4613      	mov	r3, r2
   25f28:	df04      	svc	4
   25f2a:	e012      	b.n	25f52 <_ZN20complex_dynamic_type3app17hb9843ab66012ca50E+0xa2>
   25f2c:	a81d      	add	r0, sp, #116	@ 0x74
   25f2e:	2103      	movs	r1, #3
   25f30:	7001      	strb	r1, [r0, #0]
   25f32:	2104      	movs	r1, #4
   25f34:	2206      	movs	r2, #6
   25f36:	2300      	movs	r3, #0
   25f38:	4628      	mov	r0, r5
   25f3a:	9302      	str	r3, [sp, #8]
   25f3c:	df02      	svc	2
   25f3e:	2880      	cmp	r0, #128	@ 0x80
   25f40:	d219      	bcs.n	25f76 <_ZN20complex_dynamic_type3app17hb9843ab66012ca50E+0xc6>
   25f42:	2001      	movs	r0, #1
   25f44:	7030      	strb	r0, [r6, #0]
   25f46:	6071      	str	r1, [r6, #4]
   25f48:	2106      	movs	r1, #6
   25f4a:	2200      	movs	r2, #0
   25f4c:	4628      	mov	r0, r5
   25f4e:	4613      	mov	r3, r2
   25f50:	df03      	svc	3
   25f52:	a804      	add	r0, sp, #16
   25f54:	7800      	ldrb	r0, [r0, #0]
   25f56:	2802      	cmp	r0, #2
   25f58:	d042      	beq.n	25fe0 <_ZN20complex_dynamic_type3app17hb9843ab66012ca50E+0x130>
   25f5a:	2104      	movs	r1, #4
   25f5c:	2200      	movs	r2, #0
   25f5e:	2804      	cmp	r0, #4
   25f60:	d104      	bne.n	25f6c <_ZN20complex_dynamic_type3app17hb9843ab66012ca50E+0xbc>
   25f62:	4628      	mov	r0, r5
   25f64:	4613      	mov	r3, r2
   25f66:	df04      	svc	4
   25f68:	b025      	add	sp, #148	@ 0x94
   25f6a:	bdf0      	pop	{r4, r5, r6, r7, pc}
   25f6c:	4628      	mov	r0, r5
   25f6e:	4613      	mov	r3, r2
   25f70:	df03      	svc	3
   25f72:	b025      	add	sp, #148	@ 0x94
   25f74:	bdf0      	pop	{r4, r5, r6, r7, pc}
   25f76:	a804      	add	r0, sp, #16
   25f78:	7800      	ldrb	r0, [r0, #0]
   25f7a:	2802      	cmp	r0, #2
   25f7c:	d00a      	beq.n	25f94 <_ZN20complex_dynamic_type3app17hb9843ab66012ca50E+0xe4>
   25f7e:	2104      	movs	r1, #4
   25f80:	2200      	movs	r2, #0
   25f82:	2803      	cmp	r0, #3
   25f84:	d103      	bne.n	25f8e <_ZN20complex_dynamic_type3app17hb9843ab66012ca50E+0xde>
   25f86:	4628      	mov	r0, r5
   25f88:	4613      	mov	r3, r2
   25f8a:	df03      	svc	3
   25f8c:	e002      	b.n	25f94 <_ZN20complex_dynamic_type3app17hb9843ab66012ca50E+0xe4>
   25f8e:	4628      	mov	r0, r5
   25f90:	4613      	mov	r3, r2
   25f92:	df04      	svc	4
   25f94:	a804      	add	r0, sp, #16
   25f96:	9900      	ldr	r1, [sp, #0]
   25f98:	7001      	strb	r1, [r0, #0]
   25f9a:	a81d      	add	r0, sp, #116	@ 0x74
   25f9c:	7800      	ldrb	r0, [r0, #0]
   25f9e:	2804      	cmp	r0, #4
   25fa0:	d007      	beq.n	25fb2 <_ZN20complex_dynamic_type3app17hb9843ab66012ca50E+0x102>
   25fa2:	2803      	cmp	r0, #3
   25fa4:	d11e      	bne.n	25fe4 <_ZN20complex_dynamic_type3app17hb9843ab66012ca50E+0x134>
   25fa6:	2106      	movs	r1, #6
   25fa8:	2200      	movs	r2, #0
   25faa:	4628      	mov	r0, r5
   25fac:	4613      	mov	r3, r2
   25fae:	df03      	svc	3
   25fb0:	e004      	b.n	25fbc <_ZN20complex_dynamic_type3app17hb9843ab66012ca50E+0x10c>
   25fb2:	2106      	movs	r1, #6
   25fb4:	2200      	movs	r2, #0
   25fb6:	4628      	mov	r0, r5
   25fb8:	4613      	mov	r3, r2
   25fba:	df04      	svc	4
   25fbc:	a804      	add	r0, sp, #16
   25fbe:	7804      	ldrb	r4, [r0, #0]
   25fc0:	1c70      	adds	r0, r6, #1
   25fc2:	221e      	movs	r2, #30
   25fc4:	9901      	ldr	r1, [sp, #4]
   25fc6:	f005 f89f 	bl	2b108 <__aeabi_memcpy>
   25fca:	9802      	ldr	r0, [sp, #8]
   25fcc:	7030      	strb	r0, [r6, #0]
   25fce:	2c02      	cmp	r4, #2
   25fd0:	d006      	beq.n	25fe0 <_ZN20complex_dynamic_type3app17hb9843ab66012ca50E+0x130>
   25fd2:	2104      	movs	r1, #4
   25fd4:	2200      	movs	r2, #0
   25fd6:	4628      	mov	r0, r5
   25fd8:	4613      	mov	r3, r2
   25fda:	2c04      	cmp	r4, #4
   25fdc:	d10b      	bne.n	25ff6 <_ZN20complex_dynamic_type3app17hb9843ab66012ca50E+0x146>
   25fde:	df04      	svc	4
   25fe0:	b025      	add	sp, #148	@ 0x94
   25fe2:	bdf0      	pop	{r4, r5, r6, r7, pc}
   25fe4:	1c70      	adds	r0, r6, #1
   25fe6:	221e      	movs	r2, #30
   25fe8:	4621      	mov	r1, r4
   25fea:	f005 f88d 	bl	2b108 <__aeabi_memcpy>
   25fee:	9802      	ldr	r0, [sp, #8]
   25ff0:	7030      	strb	r0, [r6, #0]
   25ff2:	b025      	add	sp, #148	@ 0x94
   25ff4:	bdf0      	pop	{r4, r5, r6, r7, pc}
   25ff6:	df03      	svc	3
   25ff8:	b025      	add	sp, #148	@ 0x94
   25ffa:	bdf0      	pop	{r4, r5, r6, r7, pc}

00025ffc <_ZN20complex_dynamic_type3app17hbe33b955a5d01565E>:
   25ffc:	b5f0      	push	{r4, r5, r6, r7, lr}
   25ffe:	af03      	add	r7, sp, #12
   26000:	b0a3      	sub	sp, #140	@ 0x8c
   26002:	9004      	str	r0, [sp, #16]
   26004:	a805      	add	r0, sp, #20
   26006:	2402      	movs	r4, #2
   26008:	7004      	strb	r4, [r0, #0]
   2600a:	1c46      	adds	r6, r0, #1
   2600c:	2222      	movs	r2, #34	@ 0x22
   2600e:	9203      	str	r2, [sp, #12]
   26010:	4630      	mov	r0, r6
   26012:	f005 f879 	bl	2b108 <__aeabi_memcpy>
   26016:	ad0e      	add	r5, sp, #56	@ 0x38
   26018:	1c68      	adds	r0, r5, #1
   2601a:	2151      	movs	r1, #81	@ 0x51
   2601c:	9002      	str	r0, [sp, #8]
   2601e:	f004 feb3 	bl	2ad88 <__aeabi_memclr>
   26022:	9401      	str	r4, [sp, #4]
   26024:	702c      	strb	r4, [r5, #0]
   26026:	4848      	ldr	r0, [pc, #288]	@ (26148 <_ZN20complex_dynamic_type3app17hbe33b955a5d01565E+0x14c>)
   26028:	2109      	movs	r1, #9
   2602a:	4632      	mov	r2, r6
   2602c:	9b03      	ldr	r3, [sp, #12]
   2602e:	df04      	svc	4
   26030:	2802      	cmp	r0, #2
   26032:	d104      	bne.n	2603e <_ZN20complex_dynamic_type3app17hbe33b955a5d01565E+0x42>
   26034:	2001      	movs	r0, #1
   26036:	9a04      	ldr	r2, [sp, #16]
   26038:	7010      	strb	r0, [r2, #0]
   2603a:	6051      	str	r1, [r2, #4]
   2603c:	e02d      	b.n	2609a <_ZN20complex_dynamic_type3app17hbe33b955a5d01565E+0x9e>
   2603e:	9d04      	ldr	r5, [sp, #16]
   26040:	a805      	add	r0, sp, #20
   26042:	2104      	movs	r1, #4
   26044:	7001      	strb	r1, [r0, #0]
   26046:	4840      	ldr	r0, [pc, #256]	@ (26148 <_ZN20complex_dynamic_type3app17hbe33b955a5d01565E+0x14c>)
   26048:	2109      	movs	r1, #9
   2604a:	2351      	movs	r3, #81	@ 0x51
   2604c:	9c02      	ldr	r4, [sp, #8]
   2604e:	4622      	mov	r2, r4
   26050:	df03      	svc	3
   26052:	2802      	cmp	r0, #2
   26054:	d10e      	bne.n	26074 <_ZN20complex_dynamic_type3app17hbe33b955a5d01565E+0x78>
   26056:	2001      	movs	r0, #1
   26058:	7028      	strb	r0, [r5, #0]
   2605a:	6069      	str	r1, [r5, #4]
   2605c:	a80e      	add	r0, sp, #56	@ 0x38
   2605e:	7800      	ldrb	r0, [r0, #0]
   26060:	2802      	cmp	r0, #2
   26062:	d01a      	beq.n	2609a <_ZN20complex_dynamic_type3app17hbe33b955a5d01565E+0x9e>
   26064:	2803      	cmp	r0, #3
   26066:	d013      	beq.n	26090 <_ZN20complex_dynamic_type3app17hbe33b955a5d01565E+0x94>
   26068:	4837      	ldr	r0, [pc, #220]	@ (26148 <_ZN20complex_dynamic_type3app17hbe33b955a5d01565E+0x14c>)
   2606a:	2109      	movs	r1, #9
   2606c:	2200      	movs	r2, #0
   2606e:	4613      	mov	r3, r2
   26070:	df04      	svc	4
   26072:	e012      	b.n	2609a <_ZN20complex_dynamic_type3app17hbe33b955a5d01565E+0x9e>
   26074:	a80e      	add	r0, sp, #56	@ 0x38
   26076:	2103      	movs	r1, #3
   26078:	7001      	strb	r1, [r0, #0]
   2607a:	4833      	ldr	r0, [pc, #204]	@ (26148 <_ZN20complex_dynamic_type3app17hbe33b955a5d01565E+0x14c>)
   2607c:	2109      	movs	r1, #9
   2607e:	2600      	movs	r6, #0
   26080:	460a      	mov	r2, r1
   26082:	4633      	mov	r3, r6
   26084:	df02      	svc	2
   26086:	2880      	cmp	r0, #128	@ 0x80
   26088:	d21b      	bcs.n	260c2 <_ZN20complex_dynamic_type3app17hbe33b955a5d01565E+0xc6>
   2608a:	2001      	movs	r0, #1
   2608c:	7028      	strb	r0, [r5, #0]
   2608e:	6069      	str	r1, [r5, #4]
   26090:	482d      	ldr	r0, [pc, #180]	@ (26148 <_ZN20complex_dynamic_type3app17hbe33b955a5d01565E+0x14c>)
   26092:	2109      	movs	r1, #9
   26094:	2200      	movs	r2, #0
   26096:	4613      	mov	r3, r2
   26098:	df03      	svc	3
   2609a:	a805      	add	r0, sp, #20
   2609c:	7800      	ldrb	r0, [r0, #0]
   2609e:	2802      	cmp	r0, #2
   260a0:	d045      	beq.n	2612e <_ZN20complex_dynamic_type3app17hbe33b955a5d01565E+0x132>
   260a2:	2804      	cmp	r0, #4
   260a4:	d106      	bne.n	260b4 <_ZN20complex_dynamic_type3app17hbe33b955a5d01565E+0xb8>
   260a6:	4828      	ldr	r0, [pc, #160]	@ (26148 <_ZN20complex_dynamic_type3app17hbe33b955a5d01565E+0x14c>)
   260a8:	2109      	movs	r1, #9
   260aa:	2200      	movs	r2, #0
   260ac:	4613      	mov	r3, r2
   260ae:	df04      	svc	4
   260b0:	b023      	add	sp, #140	@ 0x8c
   260b2:	bdf0      	pop	{r4, r5, r6, r7, pc}
   260b4:	4824      	ldr	r0, [pc, #144]	@ (26148 <_ZN20complex_dynamic_type3app17hbe33b955a5d01565E+0x14c>)
   260b6:	2109      	movs	r1, #9
   260b8:	2200      	movs	r2, #0
   260ba:	4613      	mov	r3, r2
   260bc:	df03      	svc	3
   260be:	b023      	add	sp, #140	@ 0x8c
   260c0:	bdf0      	pop	{r4, r5, r6, r7, pc}
   260c2:	a805      	add	r0, sp, #20
   260c4:	7800      	ldrb	r0, [r0, #0]
   260c6:	2802      	cmp	r0, #2
   260c8:	d00c      	beq.n	260e4 <_ZN20complex_dynamic_type3app17hbe33b955a5d01565E+0xe8>
   260ca:	2803      	cmp	r0, #3
   260cc:	d105      	bne.n	260da <_ZN20complex_dynamic_type3app17hbe33b955a5d01565E+0xde>
   260ce:	481e      	ldr	r0, [pc, #120]	@ (26148 <_ZN20complex_dynamic_type3app17hbe33b955a5d01565E+0x14c>)
   260d0:	2109      	movs	r1, #9
   260d2:	2200      	movs	r2, #0
   260d4:	4613      	mov	r3, r2
   260d6:	df03      	svc	3
   260d8:	e004      	b.n	260e4 <_ZN20complex_dynamic_type3app17hbe33b955a5d01565E+0xe8>
   260da:	481b      	ldr	r0, [pc, #108]	@ (26148 <_ZN20complex_dynamic_type3app17hbe33b955a5d01565E+0x14c>)
   260dc:	2109      	movs	r1, #9
   260de:	2200      	movs	r2, #0
   260e0:	4613      	mov	r3, r2
   260e2:	df04      	svc	4
   260e4:	a805      	add	r0, sp, #20
   260e6:	9901      	ldr	r1, [sp, #4]
   260e8:	7001      	strb	r1, [r0, #0]
   260ea:	a80e      	add	r0, sp, #56	@ 0x38
   260ec:	7800      	ldrb	r0, [r0, #0]
   260ee:	2804      	cmp	r0, #4
   260f0:	d007      	beq.n	26102 <_ZN20complex_dynamic_type3app17hbe33b955a5d01565E+0x106>
   260f2:	2803      	cmp	r0, #3
   260f4:	d11d      	bne.n	26132 <_ZN20complex_dynamic_type3app17hbe33b955a5d01565E+0x136>
   260f6:	4814      	ldr	r0, [pc, #80]	@ (26148 <_ZN20complex_dynamic_type3app17hbe33b955a5d01565E+0x14c>)
   260f8:	2109      	movs	r1, #9
   260fa:	2200      	movs	r2, #0
   260fc:	4613      	mov	r3, r2
   260fe:	df03      	svc	3
   26100:	e004      	b.n	2610c <_ZN20complex_dynamic_type3app17hbe33b955a5d01565E+0x110>
   26102:	4811      	ldr	r0, [pc, #68]	@ (26148 <_ZN20complex_dynamic_type3app17hbe33b955a5d01565E+0x14c>)
   26104:	2109      	movs	r1, #9
   26106:	2200      	movs	r2, #0
   26108:	4613      	mov	r3, r2
   2610a:	df04      	svc	4
   2610c:	a805      	add	r0, sp, #20
   2610e:	7804      	ldrb	r4, [r0, #0]
   26110:	1c68      	adds	r0, r5, #1
   26112:	2251      	movs	r2, #81	@ 0x51
   26114:	9902      	ldr	r1, [sp, #8]
   26116:	f004 fff7 	bl	2b108 <__aeabi_memcpy>
   2611a:	702e      	strb	r6, [r5, #0]
   2611c:	2c02      	cmp	r4, #2
   2611e:	d006      	beq.n	2612e <_ZN20complex_dynamic_type3app17hbe33b955a5d01565E+0x132>
   26120:	4809      	ldr	r0, [pc, #36]	@ (26148 <_ZN20complex_dynamic_type3app17hbe33b955a5d01565E+0x14c>)
   26122:	2109      	movs	r1, #9
   26124:	2200      	movs	r2, #0
   26126:	4613      	mov	r3, r2
   26128:	2c04      	cmp	r4, #4
   2612a:	d10a      	bne.n	26142 <_ZN20complex_dynamic_type3app17hbe33b955a5d01565E+0x146>
   2612c:	df04      	svc	4
   2612e:	b023      	add	sp, #140	@ 0x8c
   26130:	bdf0      	pop	{r4, r5, r6, r7, pc}
   26132:	1c68      	adds	r0, r5, #1
   26134:	2251      	movs	r2, #81	@ 0x51
   26136:	4621      	mov	r1, r4
   26138:	f004 ffe6 	bl	2b108 <__aeabi_memcpy>
   2613c:	702e      	strb	r6, [r5, #0]
   2613e:	b023      	add	sp, #140	@ 0x8c
   26140:	bdf0      	pop	{r4, r5, r6, r7, pc}
   26142:	df03      	svc	3
   26144:	b023      	add	sp, #140	@ 0x8c
   26146:	bdf0      	pop	{r4, r5, r6, r7, pc}
   26148:	0000055e 	.word	0x0000055e

0002614c <_ZN20complex_dynamic_type3app17hc06569a85c4dcc1dE>:
   2614c:	b5f0      	push	{r4, r5, r6, r7, lr}
   2614e:	af03      	add	r7, sp, #12
   26150:	b09b      	sub	sp, #108	@ 0x6c
   26152:	9004      	str	r0, [sp, #16]
   26154:	a805      	add	r0, sp, #20
   26156:	2402      	movs	r4, #2
   26158:	7004      	strb	r4, [r0, #0]
   2615a:	1c46      	adds	r6, r0, #1
   2615c:	2224      	movs	r2, #36	@ 0x24
   2615e:	9203      	str	r2, [sp, #12]
   26160:	4630      	mov	r0, r6
   26162:	f004 ffd1 	bl	2b108 <__aeabi_memcpy>
   26166:	ad0f      	add	r5, sp, #60	@ 0x3c
   26168:	1c68      	adds	r0, r5, #1
   2616a:	212f      	movs	r1, #47	@ 0x2f
   2616c:	9002      	str	r0, [sp, #8]
   2616e:	f004 fe0b 	bl	2ad88 <__aeabi_memclr>
   26172:	9401      	str	r4, [sp, #4]
   26174:	702c      	strb	r4, [r5, #0]
   26176:	4848      	ldr	r0, [pc, #288]	@ (26298 <_ZN20complex_dynamic_type3app17hc06569a85c4dcc1dE+0x14c>)
   26178:	2106      	movs	r1, #6
   2617a:	4632      	mov	r2, r6
   2617c:	9b03      	ldr	r3, [sp, #12]
   2617e:	df04      	svc	4
   26180:	2802      	cmp	r0, #2
   26182:	d104      	bne.n	2618e <_ZN20complex_dynamic_type3app17hc06569a85c4dcc1dE+0x42>
   26184:	2001      	movs	r0, #1
   26186:	9a04      	ldr	r2, [sp, #16]
   26188:	7010      	strb	r0, [r2, #0]
   2618a:	6051      	str	r1, [r2, #4]
   2618c:	e02d      	b.n	261ea <_ZN20complex_dynamic_type3app17hc06569a85c4dcc1dE+0x9e>
   2618e:	9d04      	ldr	r5, [sp, #16]
   26190:	a805      	add	r0, sp, #20
   26192:	2104      	movs	r1, #4
   26194:	7001      	strb	r1, [r0, #0]
   26196:	4840      	ldr	r0, [pc, #256]	@ (26298 <_ZN20complex_dynamic_type3app17hc06569a85c4dcc1dE+0x14c>)
   26198:	2109      	movs	r1, #9
   2619a:	232f      	movs	r3, #47	@ 0x2f
   2619c:	9c02      	ldr	r4, [sp, #8]
   2619e:	4622      	mov	r2, r4
   261a0:	df03      	svc	3
   261a2:	2802      	cmp	r0, #2
   261a4:	d10e      	bne.n	261c4 <_ZN20complex_dynamic_type3app17hc06569a85c4dcc1dE+0x78>
   261a6:	2001      	movs	r0, #1
   261a8:	7028      	strb	r0, [r5, #0]
   261aa:	6069      	str	r1, [r5, #4]
   261ac:	a80f      	add	r0, sp, #60	@ 0x3c
   261ae:	7800      	ldrb	r0, [r0, #0]
   261b0:	2802      	cmp	r0, #2
   261b2:	d01a      	beq.n	261ea <_ZN20complex_dynamic_type3app17hc06569a85c4dcc1dE+0x9e>
   261b4:	2803      	cmp	r0, #3
   261b6:	d013      	beq.n	261e0 <_ZN20complex_dynamic_type3app17hc06569a85c4dcc1dE+0x94>
   261b8:	4837      	ldr	r0, [pc, #220]	@ (26298 <_ZN20complex_dynamic_type3app17hc06569a85c4dcc1dE+0x14c>)
   261ba:	2109      	movs	r1, #9
   261bc:	2200      	movs	r2, #0
   261be:	4613      	mov	r3, r2
   261c0:	df04      	svc	4
   261c2:	e012      	b.n	261ea <_ZN20complex_dynamic_type3app17hc06569a85c4dcc1dE+0x9e>
   261c4:	a80f      	add	r0, sp, #60	@ 0x3c
   261c6:	2103      	movs	r1, #3
   261c8:	7001      	strb	r1, [r0, #0]
   261ca:	4833      	ldr	r0, [pc, #204]	@ (26298 <_ZN20complex_dynamic_type3app17hc06569a85c4dcc1dE+0x14c>)
   261cc:	2106      	movs	r1, #6
   261ce:	2209      	movs	r2, #9
   261d0:	2600      	movs	r6, #0
   261d2:	4633      	mov	r3, r6
   261d4:	df02      	svc	2
   261d6:	2880      	cmp	r0, #128	@ 0x80
   261d8:	d21b      	bcs.n	26212 <_ZN20complex_dynamic_type3app17hc06569a85c4dcc1dE+0xc6>
   261da:	2001      	movs	r0, #1
   261dc:	7028      	strb	r0, [r5, #0]
   261de:	6069      	str	r1, [r5, #4]
   261e0:	482d      	ldr	r0, [pc, #180]	@ (26298 <_ZN20complex_dynamic_type3app17hc06569a85c4dcc1dE+0x14c>)
   261e2:	2109      	movs	r1, #9
   261e4:	2200      	movs	r2, #0
   261e6:	4613      	mov	r3, r2
   261e8:	df03      	svc	3
   261ea:	a805      	add	r0, sp, #20
   261ec:	7800      	ldrb	r0, [r0, #0]
   261ee:	2802      	cmp	r0, #2
   261f0:	d045      	beq.n	2627e <_ZN20complex_dynamic_type3app17hc06569a85c4dcc1dE+0x132>
   261f2:	2804      	cmp	r0, #4
   261f4:	d106      	bne.n	26204 <_ZN20complex_dynamic_type3app17hc06569a85c4dcc1dE+0xb8>
   261f6:	4828      	ldr	r0, [pc, #160]	@ (26298 <_ZN20complex_dynamic_type3app17hc06569a85c4dcc1dE+0x14c>)
   261f8:	2106      	movs	r1, #6
   261fa:	2200      	movs	r2, #0
   261fc:	4613      	mov	r3, r2
   261fe:	df04      	svc	4
   26200:	b01b      	add	sp, #108	@ 0x6c
   26202:	bdf0      	pop	{r4, r5, r6, r7, pc}
   26204:	4824      	ldr	r0, [pc, #144]	@ (26298 <_ZN20complex_dynamic_type3app17hc06569a85c4dcc1dE+0x14c>)
   26206:	2106      	movs	r1, #6
   26208:	2200      	movs	r2, #0
   2620a:	4613      	mov	r3, r2
   2620c:	df03      	svc	3
   2620e:	b01b      	add	sp, #108	@ 0x6c
   26210:	bdf0      	pop	{r4, r5, r6, r7, pc}
   26212:	a805      	add	r0, sp, #20
   26214:	7800      	ldrb	r0, [r0, #0]
   26216:	2802      	cmp	r0, #2
   26218:	d00c      	beq.n	26234 <_ZN20complex_dynamic_type3app17hc06569a85c4dcc1dE+0xe8>
   2621a:	2803      	cmp	r0, #3
   2621c:	d105      	bne.n	2622a <_ZN20complex_dynamic_type3app17hc06569a85c4dcc1dE+0xde>
   2621e:	481e      	ldr	r0, [pc, #120]	@ (26298 <_ZN20complex_dynamic_type3app17hc06569a85c4dcc1dE+0x14c>)
   26220:	2106      	movs	r1, #6
   26222:	2200      	movs	r2, #0
   26224:	4613      	mov	r3, r2
   26226:	df03      	svc	3
   26228:	e004      	b.n	26234 <_ZN20complex_dynamic_type3app17hc06569a85c4dcc1dE+0xe8>
   2622a:	481b      	ldr	r0, [pc, #108]	@ (26298 <_ZN20complex_dynamic_type3app17hc06569a85c4dcc1dE+0x14c>)
   2622c:	2106      	movs	r1, #6
   2622e:	2200      	movs	r2, #0
   26230:	4613      	mov	r3, r2
   26232:	df04      	svc	4
   26234:	a805      	add	r0, sp, #20
   26236:	9901      	ldr	r1, [sp, #4]
   26238:	7001      	strb	r1, [r0, #0]
   2623a:	a80f      	add	r0, sp, #60	@ 0x3c
   2623c:	7800      	ldrb	r0, [r0, #0]
   2623e:	2804      	cmp	r0, #4
   26240:	d007      	beq.n	26252 <_ZN20complex_dynamic_type3app17hc06569a85c4dcc1dE+0x106>
   26242:	2803      	cmp	r0, #3
   26244:	d11d      	bne.n	26282 <_ZN20complex_dynamic_type3app17hc06569a85c4dcc1dE+0x136>
   26246:	4814      	ldr	r0, [pc, #80]	@ (26298 <_ZN20complex_dynamic_type3app17hc06569a85c4dcc1dE+0x14c>)
   26248:	2109      	movs	r1, #9
   2624a:	2200      	movs	r2, #0
   2624c:	4613      	mov	r3, r2
   2624e:	df03      	svc	3
   26250:	e004      	b.n	2625c <_ZN20complex_dynamic_type3app17hc06569a85c4dcc1dE+0x110>
   26252:	4811      	ldr	r0, [pc, #68]	@ (26298 <_ZN20complex_dynamic_type3app17hc06569a85c4dcc1dE+0x14c>)
   26254:	2109      	movs	r1, #9
   26256:	2200      	movs	r2, #0
   26258:	4613      	mov	r3, r2
   2625a:	df04      	svc	4
   2625c:	a805      	add	r0, sp, #20
   2625e:	7804      	ldrb	r4, [r0, #0]
   26260:	1c68      	adds	r0, r5, #1
   26262:	222f      	movs	r2, #47	@ 0x2f
   26264:	9902      	ldr	r1, [sp, #8]
   26266:	f004 ff4f 	bl	2b108 <__aeabi_memcpy>
   2626a:	702e      	strb	r6, [r5, #0]
   2626c:	2c02      	cmp	r4, #2
   2626e:	d006      	beq.n	2627e <_ZN20complex_dynamic_type3app17hc06569a85c4dcc1dE+0x132>
   26270:	4809      	ldr	r0, [pc, #36]	@ (26298 <_ZN20complex_dynamic_type3app17hc06569a85c4dcc1dE+0x14c>)
   26272:	2106      	movs	r1, #6
   26274:	2200      	movs	r2, #0
   26276:	4613      	mov	r3, r2
   26278:	2c04      	cmp	r4, #4
   2627a:	d10a      	bne.n	26292 <_ZN20complex_dynamic_type3app17hc06569a85c4dcc1dE+0x146>
   2627c:	df04      	svc	4
   2627e:	b01b      	add	sp, #108	@ 0x6c
   26280:	bdf0      	pop	{r4, r5, r6, r7, pc}
   26282:	1c68      	adds	r0, r5, #1
   26284:	222f      	movs	r2, #47	@ 0x2f
   26286:	4621      	mov	r1, r4
   26288:	f004 ff3e 	bl	2b108 <__aeabi_memcpy>
   2628c:	702e      	strb	r6, [r5, #0]
   2628e:	b01b      	add	sp, #108	@ 0x6c
   26290:	bdf0      	pop	{r4, r5, r6, r7, pc}
   26292:	df03      	svc	3
   26294:	b01b      	add	sp, #108	@ 0x6c
   26296:	bdf0      	pop	{r4, r5, r6, r7, pc}
   26298:	00001273 	.word	0x00001273

0002629c <_ZN20complex_dynamic_type3app17hc330d28805ee80b1E>:
   2629c:	b5f0      	push	{r4, r5, r6, r7, lr}
   2629e:	af03      	add	r7, sp, #12
   262a0:	b09b      	sub	sp, #108	@ 0x6c
   262a2:	9004      	str	r0, [sp, #16]
   262a4:	a805      	add	r0, sp, #20
   262a6:	2402      	movs	r4, #2
   262a8:	7004      	strb	r4, [r0, #0]
   262aa:	1c46      	adds	r6, r0, #1
   262ac:	222c      	movs	r2, #44	@ 0x2c
   262ae:	9203      	str	r2, [sp, #12]
   262b0:	4630      	mov	r0, r6
   262b2:	f004 ff29 	bl	2b108 <__aeabi_memcpy>
   262b6:	ad11      	add	r5, sp, #68	@ 0x44
   262b8:	1c68      	adds	r0, r5, #1
   262ba:	2127      	movs	r1, #39	@ 0x27
   262bc:	9002      	str	r0, [sp, #8]
   262be:	f004 fd63 	bl	2ad88 <__aeabi_memclr>
   262c2:	9401      	str	r4, [sp, #4]
   262c4:	702c      	strb	r4, [r5, #0]
   262c6:	4848      	ldr	r0, [pc, #288]	@ (263e8 <_ZN20complex_dynamic_type3app17hc330d28805ee80b1E+0x14c>)
   262c8:	2504      	movs	r5, #4
   262ca:	4629      	mov	r1, r5
   262cc:	4632      	mov	r2, r6
   262ce:	9b03      	ldr	r3, [sp, #12]
   262d0:	df04      	svc	4
   262d2:	2802      	cmp	r0, #2
   262d4:	d104      	bne.n	262e0 <_ZN20complex_dynamic_type3app17hc330d28805ee80b1E+0x44>
   262d6:	2001      	movs	r0, #1
   262d8:	9a04      	ldr	r2, [sp, #16]
   262da:	7010      	strb	r0, [r2, #0]
   262dc:	6051      	str	r1, [r2, #4]
   262de:	e02b      	b.n	26338 <_ZN20complex_dynamic_type3app17hc330d28805ee80b1E+0x9c>
   262e0:	9e04      	ldr	r6, [sp, #16]
   262e2:	a805      	add	r0, sp, #20
   262e4:	7005      	strb	r5, [r0, #0]
   262e6:	4840      	ldr	r0, [pc, #256]	@ (263e8 <_ZN20complex_dynamic_type3app17hc330d28805ee80b1E+0x14c>)
   262e8:	2403      	movs	r4, #3
   262ea:	2327      	movs	r3, #39	@ 0x27
   262ec:	4621      	mov	r1, r4
   262ee:	9a02      	ldr	r2, [sp, #8]
   262f0:	df03      	svc	3
   262f2:	2802      	cmp	r0, #2
   262f4:	d10e      	bne.n	26314 <_ZN20complex_dynamic_type3app17hc330d28805ee80b1E+0x78>
   262f6:	2001      	movs	r0, #1
   262f8:	7030      	strb	r0, [r6, #0]
   262fa:	6071      	str	r1, [r6, #4]
   262fc:	a811      	add	r0, sp, #68	@ 0x44
   262fe:	7800      	ldrb	r0, [r0, #0]
   26300:	2802      	cmp	r0, #2
   26302:	d019      	beq.n	26338 <_ZN20complex_dynamic_type3app17hc330d28805ee80b1E+0x9c>
   26304:	2803      	cmp	r0, #3
   26306:	d012      	beq.n	2632e <_ZN20complex_dynamic_type3app17hc330d28805ee80b1E+0x92>
   26308:	4837      	ldr	r0, [pc, #220]	@ (263e8 <_ZN20complex_dynamic_type3app17hc330d28805ee80b1E+0x14c>)
   2630a:	2103      	movs	r1, #3
   2630c:	2200      	movs	r2, #0
   2630e:	4613      	mov	r3, r2
   26310:	df04      	svc	4
   26312:	e011      	b.n	26338 <_ZN20complex_dynamic_type3app17hc330d28805ee80b1E+0x9c>
   26314:	a811      	add	r0, sp, #68	@ 0x44
   26316:	7004      	strb	r4, [r0, #0]
   26318:	4833      	ldr	r0, [pc, #204]	@ (263e8 <_ZN20complex_dynamic_type3app17hc330d28805ee80b1E+0x14c>)
   2631a:	2104      	movs	r1, #4
   2631c:	2500      	movs	r5, #0
   2631e:	4622      	mov	r2, r4
   26320:	462b      	mov	r3, r5
   26322:	df02      	svc	2
   26324:	2880      	cmp	r0, #128	@ 0x80
   26326:	d21b      	bcs.n	26360 <_ZN20complex_dynamic_type3app17hc330d28805ee80b1E+0xc4>
   26328:	2001      	movs	r0, #1
   2632a:	7030      	strb	r0, [r6, #0]
   2632c:	6071      	str	r1, [r6, #4]
   2632e:	482e      	ldr	r0, [pc, #184]	@ (263e8 <_ZN20complex_dynamic_type3app17hc330d28805ee80b1E+0x14c>)
   26330:	2103      	movs	r1, #3
   26332:	2200      	movs	r2, #0
   26334:	4613      	mov	r3, r2
   26336:	df03      	svc	3
   26338:	a805      	add	r0, sp, #20
   2633a:	7800      	ldrb	r0, [r0, #0]
   2633c:	2802      	cmp	r0, #2
   2633e:	d045      	beq.n	263cc <_ZN20complex_dynamic_type3app17hc330d28805ee80b1E+0x130>
   26340:	2804      	cmp	r0, #4
   26342:	d106      	bne.n	26352 <_ZN20complex_dynamic_type3app17hc330d28805ee80b1E+0xb6>
   26344:	4828      	ldr	r0, [pc, #160]	@ (263e8 <_ZN20complex_dynamic_type3app17hc330d28805ee80b1E+0x14c>)
   26346:	2104      	movs	r1, #4
   26348:	2200      	movs	r2, #0
   2634a:	4613      	mov	r3, r2
   2634c:	df04      	svc	4
   2634e:	b01b      	add	sp, #108	@ 0x6c
   26350:	bdf0      	pop	{r4, r5, r6, r7, pc}
   26352:	4825      	ldr	r0, [pc, #148]	@ (263e8 <_ZN20complex_dynamic_type3app17hc330d28805ee80b1E+0x14c>)
   26354:	2104      	movs	r1, #4
   26356:	2200      	movs	r2, #0
   26358:	4613      	mov	r3, r2
   2635a:	df03      	svc	3
   2635c:	b01b      	add	sp, #108	@ 0x6c
   2635e:	bdf0      	pop	{r4, r5, r6, r7, pc}
   26360:	a805      	add	r0, sp, #20
   26362:	7800      	ldrb	r0, [r0, #0]
   26364:	2802      	cmp	r0, #2
   26366:	d00c      	beq.n	26382 <_ZN20complex_dynamic_type3app17hc330d28805ee80b1E+0xe6>
   26368:	2803      	cmp	r0, #3
   2636a:	d105      	bne.n	26378 <_ZN20complex_dynamic_type3app17hc330d28805ee80b1E+0xdc>
   2636c:	481e      	ldr	r0, [pc, #120]	@ (263e8 <_ZN20complex_dynamic_type3app17hc330d28805ee80b1E+0x14c>)
   2636e:	2104      	movs	r1, #4
   26370:	2200      	movs	r2, #0
   26372:	4613      	mov	r3, r2
   26374:	df03      	svc	3
   26376:	e004      	b.n	26382 <_ZN20complex_dynamic_type3app17hc330d28805ee80b1E+0xe6>
   26378:	481b      	ldr	r0, [pc, #108]	@ (263e8 <_ZN20complex_dynamic_type3app17hc330d28805ee80b1E+0x14c>)
   2637a:	2104      	movs	r1, #4
   2637c:	2200      	movs	r2, #0
   2637e:	4613      	mov	r3, r2
   26380:	df04      	svc	4
   26382:	a805      	add	r0, sp, #20
   26384:	9901      	ldr	r1, [sp, #4]
   26386:	7001      	strb	r1, [r0, #0]
   26388:	a811      	add	r0, sp, #68	@ 0x44
   2638a:	7800      	ldrb	r0, [r0, #0]
   2638c:	2804      	cmp	r0, #4
   2638e:	d007      	beq.n	263a0 <_ZN20complex_dynamic_type3app17hc330d28805ee80b1E+0x104>
   26390:	2803      	cmp	r0, #3
   26392:	d11d      	bne.n	263d0 <_ZN20complex_dynamic_type3app17hc330d28805ee80b1E+0x134>
   26394:	4814      	ldr	r0, [pc, #80]	@ (263e8 <_ZN20complex_dynamic_type3app17hc330d28805ee80b1E+0x14c>)
   26396:	2103      	movs	r1, #3
   26398:	2200      	movs	r2, #0
   2639a:	4613      	mov	r3, r2
   2639c:	df03      	svc	3
   2639e:	e004      	b.n	263aa <_ZN20complex_dynamic_type3app17hc330d28805ee80b1E+0x10e>
   263a0:	4811      	ldr	r0, [pc, #68]	@ (263e8 <_ZN20complex_dynamic_type3app17hc330d28805ee80b1E+0x14c>)
   263a2:	2103      	movs	r1, #3
   263a4:	2200      	movs	r2, #0
   263a6:	4613      	mov	r3, r2
   263a8:	df04      	svc	4
   263aa:	a805      	add	r0, sp, #20
   263ac:	7804      	ldrb	r4, [r0, #0]
   263ae:	1c70      	adds	r0, r6, #1
   263b0:	2227      	movs	r2, #39	@ 0x27
   263b2:	9902      	ldr	r1, [sp, #8]
   263b4:	f004 fea8 	bl	2b108 <__aeabi_memcpy>
   263b8:	7035      	strb	r5, [r6, #0]
   263ba:	2c02      	cmp	r4, #2
   263bc:	d006      	beq.n	263cc <_ZN20complex_dynamic_type3app17hc330d28805ee80b1E+0x130>
   263be:	480a      	ldr	r0, [pc, #40]	@ (263e8 <_ZN20complex_dynamic_type3app17hc330d28805ee80b1E+0x14c>)
   263c0:	2104      	movs	r1, #4
   263c2:	2200      	movs	r2, #0
   263c4:	4613      	mov	r3, r2
   263c6:	2c04      	cmp	r4, #4
   263c8:	d10a      	bne.n	263e0 <_ZN20complex_dynamic_type3app17hc330d28805ee80b1E+0x144>
   263ca:	df04      	svc	4
   263cc:	b01b      	add	sp, #108	@ 0x6c
   263ce:	bdf0      	pop	{r4, r5, r6, r7, pc}
   263d0:	1c70      	adds	r0, r6, #1
   263d2:	2227      	movs	r2, #39	@ 0x27
   263d4:	9902      	ldr	r1, [sp, #8]
   263d6:	f004 fe97 	bl	2b108 <__aeabi_memcpy>
   263da:	7035      	strb	r5, [r6, #0]
   263dc:	b01b      	add	sp, #108	@ 0x6c
   263de:	bdf0      	pop	{r4, r5, r6, r7, pc}
   263e0:	df03      	svc	3
   263e2:	b01b      	add	sp, #108	@ 0x6c
   263e4:	bdf0      	pop	{r4, r5, r6, r7, pc}
   263e6:	46c0      	nop			@ (mov r8, r8)
   263e8:	000011b5 	.word	0x000011b5

000263ec <_ZN20complex_dynamic_type3app17hc5a793af8f81f53dE>:
   263ec:	b5f0      	push	{r4, r5, r6, r7, lr}
   263ee:	af03      	add	r7, sp, #12
   263f0:	b0a1      	sub	sp, #132	@ 0x84
   263f2:	9002      	str	r0, [sp, #8]
   263f4:	a803      	add	r0, sp, #12
   263f6:	2602      	movs	r6, #2
   263f8:	7006      	strb	r6, [r0, #0]
   263fa:	1c40      	adds	r0, r0, #1
   263fc:	9001      	str	r0, [sp, #4]
   263fe:	2521      	movs	r5, #33	@ 0x21
   26400:	462a      	mov	r2, r5
   26402:	f004 fe81 	bl	2b108 <__aeabi_memcpy>
   26406:	ac0c      	add	r4, sp, #48	@ 0x30
   26408:	1c60      	adds	r0, r4, #1
   2640a:	2153      	movs	r1, #83	@ 0x53
   2640c:	9000      	str	r0, [sp, #0]
   2640e:	f004 fcbb 	bl	2ad88 <__aeabi_memclr>
   26412:	7026      	strb	r6, [r4, #0]
   26414:	484a      	ldr	r0, [pc, #296]	@ (26540 <_ZN20complex_dynamic_type3app17hc5a793af8f81f53dE+0x154>)
   26416:	4631      	mov	r1, r6
   26418:	9a01      	ldr	r2, [sp, #4]
   2641a:	462b      	mov	r3, r5
   2641c:	df04      	svc	4
   2641e:	2802      	cmp	r0, #2
   26420:	d104      	bne.n	2642c <_ZN20complex_dynamic_type3app17hc5a793af8f81f53dE+0x40>
   26422:	2001      	movs	r0, #1
   26424:	9a02      	ldr	r2, [sp, #8]
   26426:	7010      	strb	r0, [r2, #0]
   26428:	6051      	str	r1, [r2, #4]
   2642a:	e02e      	b.n	2648a <_ZN20complex_dynamic_type3app17hc5a793af8f81f53dE+0x9e>
   2642c:	9d02      	ldr	r5, [sp, #8]
   2642e:	a803      	add	r0, sp, #12
   26430:	2104      	movs	r1, #4
   26432:	7001      	strb	r1, [r0, #0]
   26434:	4842      	ldr	r0, [pc, #264]	@ (26540 <_ZN20complex_dynamic_type3app17hc5a793af8f81f53dE+0x154>)
   26436:	2108      	movs	r1, #8
   26438:	2353      	movs	r3, #83	@ 0x53
   2643a:	9c00      	ldr	r4, [sp, #0]
   2643c:	4622      	mov	r2, r4
   2643e:	df03      	svc	3
   26440:	2802      	cmp	r0, #2
   26442:	d10e      	bne.n	26462 <_ZN20complex_dynamic_type3app17hc5a793af8f81f53dE+0x76>
   26444:	2001      	movs	r0, #1
   26446:	7028      	strb	r0, [r5, #0]
   26448:	6069      	str	r1, [r5, #4]
   2644a:	a80c      	add	r0, sp, #48	@ 0x30
   2644c:	7800      	ldrb	r0, [r0, #0]
   2644e:	2802      	cmp	r0, #2
   26450:	d01b      	beq.n	2648a <_ZN20complex_dynamic_type3app17hc5a793af8f81f53dE+0x9e>
   26452:	2803      	cmp	r0, #3
   26454:	d014      	beq.n	26480 <_ZN20complex_dynamic_type3app17hc5a793af8f81f53dE+0x94>
   26456:	483a      	ldr	r0, [pc, #232]	@ (26540 <_ZN20complex_dynamic_type3app17hc5a793af8f81f53dE+0x154>)
   26458:	2108      	movs	r1, #8
   2645a:	2200      	movs	r2, #0
   2645c:	4613      	mov	r3, r2
   2645e:	df04      	svc	4
   26460:	e013      	b.n	2648a <_ZN20complex_dynamic_type3app17hc5a793af8f81f53dE+0x9e>
   26462:	a80c      	add	r0, sp, #48	@ 0x30
   26464:	2103      	movs	r1, #3
   26466:	7001      	strb	r1, [r0, #0]
   26468:	4835      	ldr	r0, [pc, #212]	@ (26540 <_ZN20complex_dynamic_type3app17hc5a793af8f81f53dE+0x154>)
   2646a:	2602      	movs	r6, #2
   2646c:	2208      	movs	r2, #8
   2646e:	2300      	movs	r3, #0
   26470:	4631      	mov	r1, r6
   26472:	9301      	str	r3, [sp, #4]
   26474:	df02      	svc	2
   26476:	2880      	cmp	r0, #128	@ 0x80
   26478:	d21b      	bcs.n	264b2 <_ZN20complex_dynamic_type3app17hc5a793af8f81f53dE+0xc6>
   2647a:	2001      	movs	r0, #1
   2647c:	7028      	strb	r0, [r5, #0]
   2647e:	6069      	str	r1, [r5, #4]
   26480:	482f      	ldr	r0, [pc, #188]	@ (26540 <_ZN20complex_dynamic_type3app17hc5a793af8f81f53dE+0x154>)
   26482:	2108      	movs	r1, #8
   26484:	2200      	movs	r2, #0
   26486:	4613      	mov	r3, r2
   26488:	df03      	svc	3
   2648a:	a803      	add	r0, sp, #12
   2648c:	7800      	ldrb	r0, [r0, #0]
   2648e:	2802      	cmp	r0, #2
   26490:	d047      	beq.n	26522 <_ZN20complex_dynamic_type3app17hc5a793af8f81f53dE+0x136>
   26492:	2804      	cmp	r0, #4
   26494:	d106      	bne.n	264a4 <_ZN20complex_dynamic_type3app17hc5a793af8f81f53dE+0xb8>
   26496:	482a      	ldr	r0, [pc, #168]	@ (26540 <_ZN20complex_dynamic_type3app17hc5a793af8f81f53dE+0x154>)
   26498:	2102      	movs	r1, #2
   2649a:	2200      	movs	r2, #0
   2649c:	4613      	mov	r3, r2
   2649e:	df04      	svc	4
   264a0:	b021      	add	sp, #132	@ 0x84
   264a2:	bdf0      	pop	{r4, r5, r6, r7, pc}
   264a4:	4826      	ldr	r0, [pc, #152]	@ (26540 <_ZN20complex_dynamic_type3app17hc5a793af8f81f53dE+0x154>)
   264a6:	2102      	movs	r1, #2
   264a8:	2200      	movs	r2, #0
   264aa:	4613      	mov	r3, r2
   264ac:	df03      	svc	3
   264ae:	b021      	add	sp, #132	@ 0x84
   264b0:	bdf0      	pop	{r4, r5, r6, r7, pc}
   264b2:	a803      	add	r0, sp, #12
   264b4:	7800      	ldrb	r0, [r0, #0]
   264b6:	2802      	cmp	r0, #2
   264b8:	d00c      	beq.n	264d4 <_ZN20complex_dynamic_type3app17hc5a793af8f81f53dE+0xe8>
   264ba:	2803      	cmp	r0, #3
   264bc:	d105      	bne.n	264ca <_ZN20complex_dynamic_type3app17hc5a793af8f81f53dE+0xde>
   264be:	4820      	ldr	r0, [pc, #128]	@ (26540 <_ZN20complex_dynamic_type3app17hc5a793af8f81f53dE+0x154>)
   264c0:	2102      	movs	r1, #2
   264c2:	2200      	movs	r2, #0
   264c4:	4613      	mov	r3, r2
   264c6:	df03      	svc	3
   264c8:	e004      	b.n	264d4 <_ZN20complex_dynamic_type3app17hc5a793af8f81f53dE+0xe8>
   264ca:	481d      	ldr	r0, [pc, #116]	@ (26540 <_ZN20complex_dynamic_type3app17hc5a793af8f81f53dE+0x154>)
   264cc:	2102      	movs	r1, #2
   264ce:	2200      	movs	r2, #0
   264d0:	4613      	mov	r3, r2
   264d2:	df04      	svc	4
   264d4:	a803      	add	r0, sp, #12
   264d6:	7006      	strb	r6, [r0, #0]
   264d8:	a80c      	add	r0, sp, #48	@ 0x30
   264da:	7800      	ldrb	r0, [r0, #0]
   264dc:	2804      	cmp	r0, #4
   264de:	d008      	beq.n	264f2 <_ZN20complex_dynamic_type3app17hc5a793af8f81f53dE+0x106>
   264e0:	2803      	cmp	r0, #3
   264e2:	d120      	bne.n	26526 <_ZN20complex_dynamic_type3app17hc5a793af8f81f53dE+0x13a>
   264e4:	4626      	mov	r6, r4
   264e6:	4816      	ldr	r0, [pc, #88]	@ (26540 <_ZN20complex_dynamic_type3app17hc5a793af8f81f53dE+0x154>)
   264e8:	2108      	movs	r1, #8
   264ea:	2200      	movs	r2, #0
   264ec:	4613      	mov	r3, r2
   264ee:	df03      	svc	3
   264f0:	e005      	b.n	264fe <_ZN20complex_dynamic_type3app17hc5a793af8f81f53dE+0x112>
   264f2:	4626      	mov	r6, r4
   264f4:	4812      	ldr	r0, [pc, #72]	@ (26540 <_ZN20complex_dynamic_type3app17hc5a793af8f81f53dE+0x154>)
   264f6:	2108      	movs	r1, #8
   264f8:	2200      	movs	r2, #0
   264fa:	4613      	mov	r3, r2
   264fc:	df04      	svc	4
   264fe:	a803      	add	r0, sp, #12
   26500:	7804      	ldrb	r4, [r0, #0]
   26502:	1c68      	adds	r0, r5, #1
   26504:	2253      	movs	r2, #83	@ 0x53
   26506:	4631      	mov	r1, r6
   26508:	f004 fdfe 	bl	2b108 <__aeabi_memcpy>
   2650c:	9801      	ldr	r0, [sp, #4]
   2650e:	7028      	strb	r0, [r5, #0]
   26510:	2c02      	cmp	r4, #2
   26512:	d006      	beq.n	26522 <_ZN20complex_dynamic_type3app17hc5a793af8f81f53dE+0x136>
   26514:	480a      	ldr	r0, [pc, #40]	@ (26540 <_ZN20complex_dynamic_type3app17hc5a793af8f81f53dE+0x154>)
   26516:	2102      	movs	r1, #2
   26518:	2200      	movs	r2, #0
   2651a:	4613      	mov	r3, r2
   2651c:	2c04      	cmp	r4, #4
   2651e:	d10b      	bne.n	26538 <_ZN20complex_dynamic_type3app17hc5a793af8f81f53dE+0x14c>
   26520:	df04      	svc	4
   26522:	b021      	add	sp, #132	@ 0x84
   26524:	bdf0      	pop	{r4, r5, r6, r7, pc}
   26526:	1c68      	adds	r0, r5, #1
   26528:	2253      	movs	r2, #83	@ 0x53
   2652a:	4621      	mov	r1, r4
   2652c:	f004 fdec 	bl	2b108 <__aeabi_memcpy>
   26530:	9801      	ldr	r0, [sp, #4]
   26532:	7028      	strb	r0, [r5, #0]
   26534:	b021      	add	sp, #132	@ 0x84
   26536:	bdf0      	pop	{r4, r5, r6, r7, pc}
   26538:	df03      	svc	3
   2653a:	b021      	add	sp, #132	@ 0x84
   2653c:	bdf0      	pop	{r4, r5, r6, r7, pc}
   2653e:	46c0      	nop			@ (mov r8, r8)
   26540:	0000253e 	.word	0x0000253e

00026544 <_ZN20complex_dynamic_type3app17hc62db1218cb117faE>:
   26544:	b5f0      	push	{r4, r5, r6, r7, lr}
   26546:	af03      	add	r7, sp, #12
   26548:	b099      	sub	sp, #100	@ 0x64
   2654a:	9002      	str	r0, [sp, #8]
   2654c:	a803      	add	r0, sp, #12
   2654e:	2502      	movs	r5, #2
   26550:	7005      	strb	r5, [r0, #0]
   26552:	1c46      	adds	r6, r0, #1
   26554:	220f      	movs	r2, #15
   26556:	9201      	str	r2, [sp, #4]
   26558:	4630      	mov	r0, r6
   2655a:	f004 fdd5 	bl	2b108 <__aeabi_memcpy>
   2655e:	ac07      	add	r4, sp, #28
   26560:	1c60      	adds	r0, r4, #1
   26562:	2146      	movs	r1, #70	@ 0x46
   26564:	9000      	str	r0, [sp, #0]
   26566:	f004 fc0f 	bl	2ad88 <__aeabi_memclr>
   2656a:	7025      	strb	r5, [r4, #0]
   2656c:	484a      	ldr	r0, [pc, #296]	@ (26698 <_ZN20complex_dynamic_type3app17hc62db1218cb117faE+0x154>)
   2656e:	2109      	movs	r1, #9
   26570:	4632      	mov	r2, r6
   26572:	9b01      	ldr	r3, [sp, #4]
   26574:	df04      	svc	4
   26576:	2802      	cmp	r0, #2
   26578:	d104      	bne.n	26584 <_ZN20complex_dynamic_type3app17hc62db1218cb117faE+0x40>
   2657a:	2001      	movs	r0, #1
   2657c:	9a02      	ldr	r2, [sp, #8]
   2657e:	7010      	strb	r0, [r2, #0]
   26580:	6051      	str	r1, [r2, #4]
   26582:	e02e      	b.n	265e2 <_ZN20complex_dynamic_type3app17hc62db1218cb117faE+0x9e>
   26584:	9d02      	ldr	r5, [sp, #8]
   26586:	a803      	add	r0, sp, #12
   26588:	2104      	movs	r1, #4
   2658a:	7001      	strb	r1, [r0, #0]
   2658c:	4842      	ldr	r0, [pc, #264]	@ (26698 <_ZN20complex_dynamic_type3app17hc62db1218cb117faE+0x154>)
   2658e:	2102      	movs	r1, #2
   26590:	2346      	movs	r3, #70	@ 0x46
   26592:	9c00      	ldr	r4, [sp, #0]
   26594:	4622      	mov	r2, r4
   26596:	df03      	svc	3
   26598:	2802      	cmp	r0, #2
   2659a:	d10e      	bne.n	265ba <_ZN20complex_dynamic_type3app17hc62db1218cb117faE+0x76>
   2659c:	2001      	movs	r0, #1
   2659e:	7028      	strb	r0, [r5, #0]
   265a0:	6069      	str	r1, [r5, #4]
   265a2:	a807      	add	r0, sp, #28
   265a4:	7800      	ldrb	r0, [r0, #0]
   265a6:	2802      	cmp	r0, #2
   265a8:	d01b      	beq.n	265e2 <_ZN20complex_dynamic_type3app17hc62db1218cb117faE+0x9e>
   265aa:	2803      	cmp	r0, #3
   265ac:	d014      	beq.n	265d8 <_ZN20complex_dynamic_type3app17hc62db1218cb117faE+0x94>
   265ae:	483a      	ldr	r0, [pc, #232]	@ (26698 <_ZN20complex_dynamic_type3app17hc62db1218cb117faE+0x154>)
   265b0:	2102      	movs	r1, #2
   265b2:	2200      	movs	r2, #0
   265b4:	4613      	mov	r3, r2
   265b6:	df04      	svc	4
   265b8:	e013      	b.n	265e2 <_ZN20complex_dynamic_type3app17hc62db1218cb117faE+0x9e>
   265ba:	a807      	add	r0, sp, #28
   265bc:	2103      	movs	r1, #3
   265be:	7001      	strb	r1, [r0, #0]
   265c0:	4835      	ldr	r0, [pc, #212]	@ (26698 <_ZN20complex_dynamic_type3app17hc62db1218cb117faE+0x154>)
   265c2:	2109      	movs	r1, #9
   265c4:	2602      	movs	r6, #2
   265c6:	2300      	movs	r3, #0
   265c8:	4632      	mov	r2, r6
   265ca:	9301      	str	r3, [sp, #4]
   265cc:	df02      	svc	2
   265ce:	2880      	cmp	r0, #128	@ 0x80
   265d0:	d21b      	bcs.n	2660a <_ZN20complex_dynamic_type3app17hc62db1218cb117faE+0xc6>
   265d2:	2001      	movs	r0, #1
   265d4:	7028      	strb	r0, [r5, #0]
   265d6:	6069      	str	r1, [r5, #4]
   265d8:	482f      	ldr	r0, [pc, #188]	@ (26698 <_ZN20complex_dynamic_type3app17hc62db1218cb117faE+0x154>)
   265da:	2102      	movs	r1, #2
   265dc:	2200      	movs	r2, #0
   265de:	4613      	mov	r3, r2
   265e0:	df03      	svc	3
   265e2:	a803      	add	r0, sp, #12
   265e4:	7800      	ldrb	r0, [r0, #0]
   265e6:	2802      	cmp	r0, #2
   265e8:	d047      	beq.n	2667a <_ZN20complex_dynamic_type3app17hc62db1218cb117faE+0x136>
   265ea:	2804      	cmp	r0, #4
   265ec:	d106      	bne.n	265fc <_ZN20complex_dynamic_type3app17hc62db1218cb117faE+0xb8>
   265ee:	482a      	ldr	r0, [pc, #168]	@ (26698 <_ZN20complex_dynamic_type3app17hc62db1218cb117faE+0x154>)
   265f0:	2109      	movs	r1, #9
   265f2:	2200      	movs	r2, #0
   265f4:	4613      	mov	r3, r2
   265f6:	df04      	svc	4
   265f8:	b019      	add	sp, #100	@ 0x64
   265fa:	bdf0      	pop	{r4, r5, r6, r7, pc}
   265fc:	4826      	ldr	r0, [pc, #152]	@ (26698 <_ZN20complex_dynamic_type3app17hc62db1218cb117faE+0x154>)
   265fe:	2109      	movs	r1, #9
   26600:	2200      	movs	r2, #0
   26602:	4613      	mov	r3, r2
   26604:	df03      	svc	3
   26606:	b019      	add	sp, #100	@ 0x64
   26608:	bdf0      	pop	{r4, r5, r6, r7, pc}
   2660a:	a803      	add	r0, sp, #12
   2660c:	7800      	ldrb	r0, [r0, #0]
   2660e:	2802      	cmp	r0, #2
   26610:	d00c      	beq.n	2662c <_ZN20complex_dynamic_type3app17hc62db1218cb117faE+0xe8>
   26612:	2803      	cmp	r0, #3
   26614:	d105      	bne.n	26622 <_ZN20complex_dynamic_type3app17hc62db1218cb117faE+0xde>
   26616:	4820      	ldr	r0, [pc, #128]	@ (26698 <_ZN20complex_dynamic_type3app17hc62db1218cb117faE+0x154>)
   26618:	2109      	movs	r1, #9
   2661a:	2200      	movs	r2, #0
   2661c:	4613      	mov	r3, r2
   2661e:	df03      	svc	3
   26620:	e004      	b.n	2662c <_ZN20complex_dynamic_type3app17hc62db1218cb117faE+0xe8>
   26622:	481d      	ldr	r0, [pc, #116]	@ (26698 <_ZN20complex_dynamic_type3app17hc62db1218cb117faE+0x154>)
   26624:	2109      	movs	r1, #9
   26626:	2200      	movs	r2, #0
   26628:	4613      	mov	r3, r2
   2662a:	df04      	svc	4
   2662c:	a803      	add	r0, sp, #12
   2662e:	7006      	strb	r6, [r0, #0]
   26630:	a807      	add	r0, sp, #28
   26632:	7800      	ldrb	r0, [r0, #0]
   26634:	2804      	cmp	r0, #4
   26636:	d008      	beq.n	2664a <_ZN20complex_dynamic_type3app17hc62db1218cb117faE+0x106>
   26638:	2803      	cmp	r0, #3
   2663a:	d120      	bne.n	2667e <_ZN20complex_dynamic_type3app17hc62db1218cb117faE+0x13a>
   2663c:	4626      	mov	r6, r4
   2663e:	4816      	ldr	r0, [pc, #88]	@ (26698 <_ZN20complex_dynamic_type3app17hc62db1218cb117faE+0x154>)
   26640:	2102      	movs	r1, #2
   26642:	2200      	movs	r2, #0
   26644:	4613      	mov	r3, r2
   26646:	df03      	svc	3
   26648:	e005      	b.n	26656 <_ZN20complex_dynamic_type3app17hc62db1218cb117faE+0x112>
   2664a:	4626      	mov	r6, r4
   2664c:	4812      	ldr	r0, [pc, #72]	@ (26698 <_ZN20complex_dynamic_type3app17hc62db1218cb117faE+0x154>)
   2664e:	2102      	movs	r1, #2
   26650:	2200      	movs	r2, #0
   26652:	4613      	mov	r3, r2
   26654:	df04      	svc	4
   26656:	a803      	add	r0, sp, #12
   26658:	7804      	ldrb	r4, [r0, #0]
   2665a:	1c68      	adds	r0, r5, #1
   2665c:	2246      	movs	r2, #70	@ 0x46
   2665e:	4631      	mov	r1, r6
   26660:	f004 fd52 	bl	2b108 <__aeabi_memcpy>
   26664:	9801      	ldr	r0, [sp, #4]
   26666:	7028      	strb	r0, [r5, #0]
   26668:	2c02      	cmp	r4, #2
   2666a:	d006      	beq.n	2667a <_ZN20complex_dynamic_type3app17hc62db1218cb117faE+0x136>
   2666c:	480a      	ldr	r0, [pc, #40]	@ (26698 <_ZN20complex_dynamic_type3app17hc62db1218cb117faE+0x154>)
   2666e:	2109      	movs	r1, #9
   26670:	2200      	movs	r2, #0
   26672:	4613      	mov	r3, r2
   26674:	2c04      	cmp	r4, #4
   26676:	d10b      	bne.n	26690 <_ZN20complex_dynamic_type3app17hc62db1218cb117faE+0x14c>
   26678:	df04      	svc	4
   2667a:	b019      	add	sp, #100	@ 0x64
   2667c:	bdf0      	pop	{r4, r5, r6, r7, pc}
   2667e:	1c68      	adds	r0, r5, #1
   26680:	2246      	movs	r2, #70	@ 0x46
   26682:	4621      	mov	r1, r4
   26684:	f004 fd40 	bl	2b108 <__aeabi_memcpy>
   26688:	9801      	ldr	r0, [sp, #4]
   2668a:	7028      	strb	r0, [r5, #0]
   2668c:	b019      	add	sp, #100	@ 0x64
   2668e:	bdf0      	pop	{r4, r5, r6, r7, pc}
   26690:	df03      	svc	3
   26692:	b019      	add	sp, #100	@ 0x64
   26694:	bdf0      	pop	{r4, r5, r6, r7, pc}
   26696:	46c0      	nop			@ (mov r8, r8)
   26698:	00001d7e 	.word	0x00001d7e

0002669c <_ZN20complex_dynamic_type3app17hc8ad2d158ce1c07bE>:
   2669c:	b5f0      	push	{r4, r5, r6, r7, lr}
   2669e:	af03      	add	r7, sp, #12
   266a0:	b097      	sub	sp, #92	@ 0x5c
   266a2:	9004      	str	r0, [sp, #16]
   266a4:	a805      	add	r0, sp, #20
   266a6:	2402      	movs	r4, #2
   266a8:	7004      	strb	r4, [r0, #0]
   266aa:	1c46      	adds	r6, r0, #1
   266ac:	2236      	movs	r2, #54	@ 0x36
   266ae:	9203      	str	r2, [sp, #12]
   266b0:	4630      	mov	r0, r6
   266b2:	f004 fd29 	bl	2b108 <__aeabi_memcpy>
   266b6:	ad13      	add	r5, sp, #76	@ 0x4c
   266b8:	1c68      	adds	r0, r5, #1
   266ba:	210f      	movs	r1, #15
   266bc:	9002      	str	r0, [sp, #8]
   266be:	f004 fb63 	bl	2ad88 <__aeabi_memclr>
   266c2:	9401      	str	r4, [sp, #4]
   266c4:	702c      	strb	r4, [r5, #0]
   266c6:	4848      	ldr	r0, [pc, #288]	@ (267e8 <_ZN20complex_dynamic_type3app17hc8ad2d158ce1c07bE+0x14c>)
   266c8:	2105      	movs	r1, #5
   266ca:	4632      	mov	r2, r6
   266cc:	9b03      	ldr	r3, [sp, #12]
   266ce:	df04      	svc	4
   266d0:	2802      	cmp	r0, #2
   266d2:	d104      	bne.n	266de <_ZN20complex_dynamic_type3app17hc8ad2d158ce1c07bE+0x42>
   266d4:	2001      	movs	r0, #1
   266d6:	9a04      	ldr	r2, [sp, #16]
   266d8:	7010      	strb	r0, [r2, #0]
   266da:	6051      	str	r1, [r2, #4]
   266dc:	e02c      	b.n	26738 <_ZN20complex_dynamic_type3app17hc8ad2d158ce1c07bE+0x9c>
   266de:	9d04      	ldr	r5, [sp, #16]
   266e0:	a805      	add	r0, sp, #20
   266e2:	2104      	movs	r1, #4
   266e4:	7001      	strb	r1, [r0, #0]
   266e6:	4840      	ldr	r0, [pc, #256]	@ (267e8 <_ZN20complex_dynamic_type3app17hc8ad2d158ce1c07bE+0x14c>)
   266e8:	2403      	movs	r4, #3
   266ea:	230f      	movs	r3, #15
   266ec:	4621      	mov	r1, r4
   266ee:	9a02      	ldr	r2, [sp, #8]
   266f0:	df03      	svc	3
   266f2:	2802      	cmp	r0, #2
   266f4:	d10e      	bne.n	26714 <_ZN20complex_dynamic_type3app17hc8ad2d158ce1c07bE+0x78>
   266f6:	2001      	movs	r0, #1
   266f8:	7028      	strb	r0, [r5, #0]
   266fa:	6069      	str	r1, [r5, #4]
   266fc:	a813      	add	r0, sp, #76	@ 0x4c
   266fe:	7800      	ldrb	r0, [r0, #0]
   26700:	2802      	cmp	r0, #2
   26702:	d019      	beq.n	26738 <_ZN20complex_dynamic_type3app17hc8ad2d158ce1c07bE+0x9c>
   26704:	2803      	cmp	r0, #3
   26706:	d012      	beq.n	2672e <_ZN20complex_dynamic_type3app17hc8ad2d158ce1c07bE+0x92>
   26708:	4837      	ldr	r0, [pc, #220]	@ (267e8 <_ZN20complex_dynamic_type3app17hc8ad2d158ce1c07bE+0x14c>)
   2670a:	2103      	movs	r1, #3
   2670c:	2200      	movs	r2, #0
   2670e:	4613      	mov	r3, r2
   26710:	df04      	svc	4
   26712:	e011      	b.n	26738 <_ZN20complex_dynamic_type3app17hc8ad2d158ce1c07bE+0x9c>
   26714:	a813      	add	r0, sp, #76	@ 0x4c
   26716:	7004      	strb	r4, [r0, #0]
   26718:	4833      	ldr	r0, [pc, #204]	@ (267e8 <_ZN20complex_dynamic_type3app17hc8ad2d158ce1c07bE+0x14c>)
   2671a:	2105      	movs	r1, #5
   2671c:	2600      	movs	r6, #0
   2671e:	4622      	mov	r2, r4
   26720:	4633      	mov	r3, r6
   26722:	df02      	svc	2
   26724:	2880      	cmp	r0, #128	@ 0x80
   26726:	d21b      	bcs.n	26760 <_ZN20complex_dynamic_type3app17hc8ad2d158ce1c07bE+0xc4>
   26728:	2001      	movs	r0, #1
   2672a:	7028      	strb	r0, [r5, #0]
   2672c:	6069      	str	r1, [r5, #4]
   2672e:	482e      	ldr	r0, [pc, #184]	@ (267e8 <_ZN20complex_dynamic_type3app17hc8ad2d158ce1c07bE+0x14c>)
   26730:	2103      	movs	r1, #3
   26732:	2200      	movs	r2, #0
   26734:	4613      	mov	r3, r2
   26736:	df03      	svc	3
   26738:	a805      	add	r0, sp, #20
   2673a:	7800      	ldrb	r0, [r0, #0]
   2673c:	2802      	cmp	r0, #2
   2673e:	d045      	beq.n	267cc <_ZN20complex_dynamic_type3app17hc8ad2d158ce1c07bE+0x130>
   26740:	2804      	cmp	r0, #4
   26742:	d106      	bne.n	26752 <_ZN20complex_dynamic_type3app17hc8ad2d158ce1c07bE+0xb6>
   26744:	4828      	ldr	r0, [pc, #160]	@ (267e8 <_ZN20complex_dynamic_type3app17hc8ad2d158ce1c07bE+0x14c>)
   26746:	2105      	movs	r1, #5
   26748:	2200      	movs	r2, #0
   2674a:	4613      	mov	r3, r2
   2674c:	df04      	svc	4
   2674e:	b017      	add	sp, #92	@ 0x5c
   26750:	bdf0      	pop	{r4, r5, r6, r7, pc}
   26752:	4825      	ldr	r0, [pc, #148]	@ (267e8 <_ZN20complex_dynamic_type3app17hc8ad2d158ce1c07bE+0x14c>)
   26754:	2105      	movs	r1, #5
   26756:	2200      	movs	r2, #0
   26758:	4613      	mov	r3, r2
   2675a:	df03      	svc	3
   2675c:	b017      	add	sp, #92	@ 0x5c
   2675e:	bdf0      	pop	{r4, r5, r6, r7, pc}
   26760:	a805      	add	r0, sp, #20
   26762:	7800      	ldrb	r0, [r0, #0]
   26764:	2802      	cmp	r0, #2
   26766:	d00c      	beq.n	26782 <_ZN20complex_dynamic_type3app17hc8ad2d158ce1c07bE+0xe6>
   26768:	2803      	cmp	r0, #3
   2676a:	d105      	bne.n	26778 <_ZN20complex_dynamic_type3app17hc8ad2d158ce1c07bE+0xdc>
   2676c:	481e      	ldr	r0, [pc, #120]	@ (267e8 <_ZN20complex_dynamic_type3app17hc8ad2d158ce1c07bE+0x14c>)
   2676e:	2105      	movs	r1, #5
   26770:	2200      	movs	r2, #0
   26772:	4613      	mov	r3, r2
   26774:	df03      	svc	3
   26776:	e004      	b.n	26782 <_ZN20complex_dynamic_type3app17hc8ad2d158ce1c07bE+0xe6>
   26778:	481b      	ldr	r0, [pc, #108]	@ (267e8 <_ZN20complex_dynamic_type3app17hc8ad2d158ce1c07bE+0x14c>)
   2677a:	2105      	movs	r1, #5
   2677c:	2200      	movs	r2, #0
   2677e:	4613      	mov	r3, r2
   26780:	df04      	svc	4
   26782:	a805      	add	r0, sp, #20
   26784:	9901      	ldr	r1, [sp, #4]
   26786:	7001      	strb	r1, [r0, #0]
   26788:	a813      	add	r0, sp, #76	@ 0x4c
   2678a:	7800      	ldrb	r0, [r0, #0]
   2678c:	2804      	cmp	r0, #4
   2678e:	d007      	beq.n	267a0 <_ZN20complex_dynamic_type3app17hc8ad2d158ce1c07bE+0x104>
   26790:	2803      	cmp	r0, #3
   26792:	d11d      	bne.n	267d0 <_ZN20complex_dynamic_type3app17hc8ad2d158ce1c07bE+0x134>
   26794:	4814      	ldr	r0, [pc, #80]	@ (267e8 <_ZN20complex_dynamic_type3app17hc8ad2d158ce1c07bE+0x14c>)
   26796:	2103      	movs	r1, #3
   26798:	2200      	movs	r2, #0
   2679a:	4613      	mov	r3, r2
   2679c:	df03      	svc	3
   2679e:	e004      	b.n	267aa <_ZN20complex_dynamic_type3app17hc8ad2d158ce1c07bE+0x10e>
   267a0:	4811      	ldr	r0, [pc, #68]	@ (267e8 <_ZN20complex_dynamic_type3app17hc8ad2d158ce1c07bE+0x14c>)
   267a2:	2103      	movs	r1, #3
   267a4:	2200      	movs	r2, #0
   267a6:	4613      	mov	r3, r2
   267a8:	df04      	svc	4
   267aa:	a805      	add	r0, sp, #20
   267ac:	7804      	ldrb	r4, [r0, #0]
   267ae:	1c68      	adds	r0, r5, #1
   267b0:	220f      	movs	r2, #15
   267b2:	9902      	ldr	r1, [sp, #8]
   267b4:	f004 fca8 	bl	2b108 <__aeabi_memcpy>
   267b8:	702e      	strb	r6, [r5, #0]
   267ba:	2c02      	cmp	r4, #2
   267bc:	d006      	beq.n	267cc <_ZN20complex_dynamic_type3app17hc8ad2d158ce1c07bE+0x130>
   267be:	480a      	ldr	r0, [pc, #40]	@ (267e8 <_ZN20complex_dynamic_type3app17hc8ad2d158ce1c07bE+0x14c>)
   267c0:	2105      	movs	r1, #5
   267c2:	2200      	movs	r2, #0
   267c4:	4613      	mov	r3, r2
   267c6:	2c04      	cmp	r4, #4
   267c8:	d10a      	bne.n	267e0 <_ZN20complex_dynamic_type3app17hc8ad2d158ce1c07bE+0x144>
   267ca:	df04      	svc	4
   267cc:	b017      	add	sp, #92	@ 0x5c
   267ce:	bdf0      	pop	{r4, r5, r6, r7, pc}
   267d0:	1c68      	adds	r0, r5, #1
   267d2:	220f      	movs	r2, #15
   267d4:	9902      	ldr	r1, [sp, #8]
   267d6:	f004 fc97 	bl	2b108 <__aeabi_memcpy>
   267da:	702e      	strb	r6, [r5, #0]
   267dc:	b017      	add	sp, #92	@ 0x5c
   267de:	bdf0      	pop	{r4, r5, r6, r7, pc}
   267e0:	df03      	svc	3
   267e2:	b017      	add	sp, #92	@ 0x5c
   267e4:	bdf0      	pop	{r4, r5, r6, r7, pc}
   267e6:	46c0      	nop			@ (mov r8, r8)
   267e8:	00000653 	.word	0x00000653

000267ec <_ZN20complex_dynamic_type3app17hcbf7f5cbaf44a1baE>:
   267ec:	b5f0      	push	{r4, r5, r6, r7, lr}
   267ee:	af03      	add	r7, sp, #12
   267f0:	b0ad      	sub	sp, #180	@ 0xb4
   267f2:	9003      	str	r0, [sp, #12]
   267f4:	a804      	add	r0, sp, #16
   267f6:	2602      	movs	r6, #2
   267f8:	7006      	strb	r6, [r0, #0]
   267fa:	1c40      	adds	r0, r0, #1
   267fc:	9002      	str	r0, [sp, #8]
   267fe:	2551      	movs	r5, #81	@ 0x51
   26800:	462a      	mov	r2, r5
   26802:	f004 fc81 	bl	2b108 <__aeabi_memcpy>
   26806:	ac19      	add	r4, sp, #100	@ 0x64
   26808:	1c60      	adds	r0, r4, #1
   2680a:	214f      	movs	r1, #79	@ 0x4f
   2680c:	9001      	str	r0, [sp, #4]
   2680e:	f004 fabb 	bl	2ad88 <__aeabi_memclr>
   26812:	7026      	strb	r6, [r4, #0]
   26814:	4849      	ldr	r0, [pc, #292]	@ (2693c <_ZN20complex_dynamic_type3app17hcbf7f5cbaf44a1baE+0x150>)
   26816:	4631      	mov	r1, r6
   26818:	9a02      	ldr	r2, [sp, #8]
   2681a:	462b      	mov	r3, r5
   2681c:	df04      	svc	4
   2681e:	2802      	cmp	r0, #2
   26820:	d104      	bne.n	2682c <_ZN20complex_dynamic_type3app17hcbf7f5cbaf44a1baE+0x40>
   26822:	2001      	movs	r0, #1
   26824:	9a03      	ldr	r2, [sp, #12]
   26826:	7010      	strb	r0, [r2, #0]
   26828:	6051      	str	r1, [r2, #4]
   2682a:	e02d      	b.n	26888 <_ZN20complex_dynamic_type3app17hcbf7f5cbaf44a1baE+0x9c>
   2682c:	9d03      	ldr	r5, [sp, #12]
   2682e:	a804      	add	r0, sp, #16
   26830:	2104      	movs	r1, #4
   26832:	7001      	strb	r1, [r0, #0]
   26834:	4841      	ldr	r0, [pc, #260]	@ (2693c <_ZN20complex_dynamic_type3app17hcbf7f5cbaf44a1baE+0x150>)
   26836:	234f      	movs	r3, #79	@ 0x4f
   26838:	9c01      	ldr	r4, [sp, #4]
   2683a:	4622      	mov	r2, r4
   2683c:	df03      	svc	3
   2683e:	2802      	cmp	r0, #2
   26840:	d10e      	bne.n	26860 <_ZN20complex_dynamic_type3app17hcbf7f5cbaf44a1baE+0x74>
   26842:	2001      	movs	r0, #1
   26844:	7028      	strb	r0, [r5, #0]
   26846:	6069      	str	r1, [r5, #4]
   26848:	a819      	add	r0, sp, #100	@ 0x64
   2684a:	7800      	ldrb	r0, [r0, #0]
   2684c:	2802      	cmp	r0, #2
   2684e:	d01b      	beq.n	26888 <_ZN20complex_dynamic_type3app17hcbf7f5cbaf44a1baE+0x9c>
   26850:	2803      	cmp	r0, #3
   26852:	d014      	beq.n	2687e <_ZN20complex_dynamic_type3app17hcbf7f5cbaf44a1baE+0x92>
   26854:	4839      	ldr	r0, [pc, #228]	@ (2693c <_ZN20complex_dynamic_type3app17hcbf7f5cbaf44a1baE+0x150>)
   26856:	2104      	movs	r1, #4
   26858:	2200      	movs	r2, #0
   2685a:	4613      	mov	r3, r2
   2685c:	df04      	svc	4
   2685e:	e013      	b.n	26888 <_ZN20complex_dynamic_type3app17hcbf7f5cbaf44a1baE+0x9c>
   26860:	a819      	add	r0, sp, #100	@ 0x64
   26862:	2103      	movs	r1, #3
   26864:	7001      	strb	r1, [r0, #0]
   26866:	4835      	ldr	r0, [pc, #212]	@ (2693c <_ZN20complex_dynamic_type3app17hcbf7f5cbaf44a1baE+0x150>)
   26868:	2602      	movs	r6, #2
   2686a:	2204      	movs	r2, #4
   2686c:	2300      	movs	r3, #0
   2686e:	4631      	mov	r1, r6
   26870:	9302      	str	r3, [sp, #8]
   26872:	df02      	svc	2
   26874:	2880      	cmp	r0, #128	@ 0x80
   26876:	d21b      	bcs.n	268b0 <_ZN20complex_dynamic_type3app17hcbf7f5cbaf44a1baE+0xc4>
   26878:	2001      	movs	r0, #1
   2687a:	7028      	strb	r0, [r5, #0]
   2687c:	6069      	str	r1, [r5, #4]
   2687e:	482f      	ldr	r0, [pc, #188]	@ (2693c <_ZN20complex_dynamic_type3app17hcbf7f5cbaf44a1baE+0x150>)
   26880:	2104      	movs	r1, #4
   26882:	2200      	movs	r2, #0
   26884:	4613      	mov	r3, r2
   26886:	df03      	svc	3
   26888:	a804      	add	r0, sp, #16
   2688a:	7800      	ldrb	r0, [r0, #0]
   2688c:	2802      	cmp	r0, #2
   2688e:	d047      	beq.n	26920 <_ZN20complex_dynamic_type3app17hcbf7f5cbaf44a1baE+0x134>
   26890:	2804      	cmp	r0, #4
   26892:	d106      	bne.n	268a2 <_ZN20complex_dynamic_type3app17hcbf7f5cbaf44a1baE+0xb6>
   26894:	4829      	ldr	r0, [pc, #164]	@ (2693c <_ZN20complex_dynamic_type3app17hcbf7f5cbaf44a1baE+0x150>)
   26896:	2102      	movs	r1, #2
   26898:	2200      	movs	r2, #0
   2689a:	4613      	mov	r3, r2
   2689c:	df04      	svc	4
   2689e:	b02d      	add	sp, #180	@ 0xb4
   268a0:	bdf0      	pop	{r4, r5, r6, r7, pc}
   268a2:	4826      	ldr	r0, [pc, #152]	@ (2693c <_ZN20complex_dynamic_type3app17hcbf7f5cbaf44a1baE+0x150>)
   268a4:	2102      	movs	r1, #2
   268a6:	2200      	movs	r2, #0
   268a8:	4613      	mov	r3, r2
   268aa:	df03      	svc	3
   268ac:	b02d      	add	sp, #180	@ 0xb4
   268ae:	bdf0      	pop	{r4, r5, r6, r7, pc}
   268b0:	a804      	add	r0, sp, #16
   268b2:	7800      	ldrb	r0, [r0, #0]
   268b4:	2802      	cmp	r0, #2
   268b6:	d00c      	beq.n	268d2 <_ZN20complex_dynamic_type3app17hcbf7f5cbaf44a1baE+0xe6>
   268b8:	2803      	cmp	r0, #3
   268ba:	d105      	bne.n	268c8 <_ZN20complex_dynamic_type3app17hcbf7f5cbaf44a1baE+0xdc>
   268bc:	481f      	ldr	r0, [pc, #124]	@ (2693c <_ZN20complex_dynamic_type3app17hcbf7f5cbaf44a1baE+0x150>)
   268be:	2102      	movs	r1, #2
   268c0:	2200      	movs	r2, #0
   268c2:	4613      	mov	r3, r2
   268c4:	df03      	svc	3
   268c6:	e004      	b.n	268d2 <_ZN20complex_dynamic_type3app17hcbf7f5cbaf44a1baE+0xe6>
   268c8:	481c      	ldr	r0, [pc, #112]	@ (2693c <_ZN20complex_dynamic_type3app17hcbf7f5cbaf44a1baE+0x150>)
   268ca:	2102      	movs	r1, #2
   268cc:	2200      	movs	r2, #0
   268ce:	4613      	mov	r3, r2
   268d0:	df04      	svc	4
   268d2:	a804      	add	r0, sp, #16
   268d4:	7006      	strb	r6, [r0, #0]
   268d6:	a819      	add	r0, sp, #100	@ 0x64
   268d8:	7800      	ldrb	r0, [r0, #0]
   268da:	2804      	cmp	r0, #4
   268dc:	d008      	beq.n	268f0 <_ZN20complex_dynamic_type3app17hcbf7f5cbaf44a1baE+0x104>
   268de:	2803      	cmp	r0, #3
   268e0:	d120      	bne.n	26924 <_ZN20complex_dynamic_type3app17hcbf7f5cbaf44a1baE+0x138>
   268e2:	4626      	mov	r6, r4
   268e4:	4815      	ldr	r0, [pc, #84]	@ (2693c <_ZN20complex_dynamic_type3app17hcbf7f5cbaf44a1baE+0x150>)
   268e6:	2104      	movs	r1, #4
   268e8:	2200      	movs	r2, #0
   268ea:	4613      	mov	r3, r2
   268ec:	df03      	svc	3
   268ee:	e005      	b.n	268fc <_ZN20complex_dynamic_type3app17hcbf7f5cbaf44a1baE+0x110>
   268f0:	4626      	mov	r6, r4
   268f2:	4812      	ldr	r0, [pc, #72]	@ (2693c <_ZN20complex_dynamic_type3app17hcbf7f5cbaf44a1baE+0x150>)
   268f4:	2104      	movs	r1, #4
   268f6:	2200      	movs	r2, #0
   268f8:	4613      	mov	r3, r2
   268fa:	df04      	svc	4
   268fc:	a804      	add	r0, sp, #16
   268fe:	7804      	ldrb	r4, [r0, #0]
   26900:	1c68      	adds	r0, r5, #1
   26902:	224f      	movs	r2, #79	@ 0x4f
   26904:	4631      	mov	r1, r6
   26906:	f004 fbff 	bl	2b108 <__aeabi_memcpy>
   2690a:	9802      	ldr	r0, [sp, #8]
   2690c:	7028      	strb	r0, [r5, #0]
   2690e:	2c02      	cmp	r4, #2
   26910:	d006      	beq.n	26920 <_ZN20complex_dynamic_type3app17hcbf7f5cbaf44a1baE+0x134>
   26912:	480a      	ldr	r0, [pc, #40]	@ (2693c <_ZN20complex_dynamic_type3app17hcbf7f5cbaf44a1baE+0x150>)
   26914:	2102      	movs	r1, #2
   26916:	2200      	movs	r2, #0
   26918:	4613      	mov	r3, r2
   2691a:	2c04      	cmp	r4, #4
   2691c:	d10b      	bne.n	26936 <_ZN20complex_dynamic_type3app17hcbf7f5cbaf44a1baE+0x14a>
   2691e:	df04      	svc	4
   26920:	b02d      	add	sp, #180	@ 0xb4
   26922:	bdf0      	pop	{r4, r5, r6, r7, pc}
   26924:	1c68      	adds	r0, r5, #1
   26926:	224f      	movs	r2, #79	@ 0x4f
   26928:	4621      	mov	r1, r4
   2692a:	f004 fbed 	bl	2b108 <__aeabi_memcpy>
   2692e:	9802      	ldr	r0, [sp, #8]
   26930:	7028      	strb	r0, [r5, #0]
   26932:	b02d      	add	sp, #180	@ 0xb4
   26934:	bdf0      	pop	{r4, r5, r6, r7, pc}
   26936:	df03      	svc	3
   26938:	b02d      	add	sp, #180	@ 0xb4
   2693a:	bdf0      	pop	{r4, r5, r6, r7, pc}
   2693c:	00000e16 	.word	0x00000e16

00026940 <_ZN20complex_dynamic_type3app17hd538ad8fdc74646eE>:
   26940:	b5f0      	push	{r4, r5, r6, r7, lr}
   26942:	af03      	add	r7, sp, #12
   26944:	b0a3      	sub	sp, #140	@ 0x8c
   26946:	9004      	str	r0, [sp, #16]
   26948:	a805      	add	r0, sp, #20
   2694a:	2402      	movs	r4, #2
   2694c:	7004      	strb	r4, [r0, #0]
   2694e:	1c46      	adds	r6, r0, #1
   26950:	2232      	movs	r2, #50	@ 0x32
   26952:	9203      	str	r2, [sp, #12]
   26954:	4630      	mov	r0, r6
   26956:	f004 fbd7 	bl	2b108 <__aeabi_memcpy>
   2695a:	ad12      	add	r5, sp, #72	@ 0x48
   2695c:	1c68      	adds	r0, r5, #1
   2695e:	2141      	movs	r1, #65	@ 0x41
   26960:	9002      	str	r0, [sp, #8]
   26962:	f004 fa11 	bl	2ad88 <__aeabi_memclr>
   26966:	9401      	str	r4, [sp, #4]
   26968:	702c      	strb	r4, [r5, #0]
   2696a:	4848      	ldr	r0, [pc, #288]	@ (26a8c <_ZN20complex_dynamic_type3app17hd538ad8fdc74646eE+0x14c>)
   2696c:	2107      	movs	r1, #7
   2696e:	4632      	mov	r2, r6
   26970:	9b03      	ldr	r3, [sp, #12]
   26972:	df04      	svc	4
   26974:	2802      	cmp	r0, #2
   26976:	d104      	bne.n	26982 <_ZN20complex_dynamic_type3app17hd538ad8fdc74646eE+0x42>
   26978:	2001      	movs	r0, #1
   2697a:	9a04      	ldr	r2, [sp, #16]
   2697c:	7010      	strb	r0, [r2, #0]
   2697e:	6051      	str	r1, [r2, #4]
   26980:	e02d      	b.n	269de <_ZN20complex_dynamic_type3app17hd538ad8fdc74646eE+0x9e>
   26982:	9d04      	ldr	r5, [sp, #16]
   26984:	a805      	add	r0, sp, #20
   26986:	2104      	movs	r1, #4
   26988:	7001      	strb	r1, [r0, #0]
   2698a:	4840      	ldr	r0, [pc, #256]	@ (26a8c <_ZN20complex_dynamic_type3app17hd538ad8fdc74646eE+0x14c>)
   2698c:	2105      	movs	r1, #5
   2698e:	2341      	movs	r3, #65	@ 0x41
   26990:	9c02      	ldr	r4, [sp, #8]
   26992:	4622      	mov	r2, r4
   26994:	df03      	svc	3
   26996:	2802      	cmp	r0, #2
   26998:	d10e      	bne.n	269b8 <_ZN20complex_dynamic_type3app17hd538ad8fdc74646eE+0x78>
   2699a:	2001      	movs	r0, #1
   2699c:	7028      	strb	r0, [r5, #0]
   2699e:	6069      	str	r1, [r5, #4]
   269a0:	a812      	add	r0, sp, #72	@ 0x48
   269a2:	7800      	ldrb	r0, [r0, #0]
   269a4:	2802      	cmp	r0, #2
   269a6:	d01a      	beq.n	269de <_ZN20complex_dynamic_type3app17hd538ad8fdc74646eE+0x9e>
   269a8:	2803      	cmp	r0, #3
   269aa:	d013      	beq.n	269d4 <_ZN20complex_dynamic_type3app17hd538ad8fdc74646eE+0x94>
   269ac:	4837      	ldr	r0, [pc, #220]	@ (26a8c <_ZN20complex_dynamic_type3app17hd538ad8fdc74646eE+0x14c>)
   269ae:	2105      	movs	r1, #5
   269b0:	2200      	movs	r2, #0
   269b2:	4613      	mov	r3, r2
   269b4:	df04      	svc	4
   269b6:	e012      	b.n	269de <_ZN20complex_dynamic_type3app17hd538ad8fdc74646eE+0x9e>
   269b8:	a812      	add	r0, sp, #72	@ 0x48
   269ba:	2103      	movs	r1, #3
   269bc:	7001      	strb	r1, [r0, #0]
   269be:	4833      	ldr	r0, [pc, #204]	@ (26a8c <_ZN20complex_dynamic_type3app17hd538ad8fdc74646eE+0x14c>)
   269c0:	2107      	movs	r1, #7
   269c2:	2205      	movs	r2, #5
   269c4:	2600      	movs	r6, #0
   269c6:	4633      	mov	r3, r6
   269c8:	df02      	svc	2
   269ca:	2880      	cmp	r0, #128	@ 0x80
   269cc:	d21b      	bcs.n	26a06 <_ZN20complex_dynamic_type3app17hd538ad8fdc74646eE+0xc6>
   269ce:	2001      	movs	r0, #1
   269d0:	7028      	strb	r0, [r5, #0]
   269d2:	6069      	str	r1, [r5, #4]
   269d4:	482d      	ldr	r0, [pc, #180]	@ (26a8c <_ZN20complex_dynamic_type3app17hd538ad8fdc74646eE+0x14c>)
   269d6:	2105      	movs	r1, #5
   269d8:	2200      	movs	r2, #0
   269da:	4613      	mov	r3, r2
   269dc:	df03      	svc	3
   269de:	a805      	add	r0, sp, #20
   269e0:	7800      	ldrb	r0, [r0, #0]
   269e2:	2802      	cmp	r0, #2
   269e4:	d045      	beq.n	26a72 <_ZN20complex_dynamic_type3app17hd538ad8fdc74646eE+0x132>
   269e6:	2804      	cmp	r0, #4
   269e8:	d106      	bne.n	269f8 <_ZN20complex_dynamic_type3app17hd538ad8fdc74646eE+0xb8>
   269ea:	4828      	ldr	r0, [pc, #160]	@ (26a8c <_ZN20complex_dynamic_type3app17hd538ad8fdc74646eE+0x14c>)
   269ec:	2107      	movs	r1, #7
   269ee:	2200      	movs	r2, #0
   269f0:	4613      	mov	r3, r2
   269f2:	df04      	svc	4
   269f4:	b023      	add	sp, #140	@ 0x8c
   269f6:	bdf0      	pop	{r4, r5, r6, r7, pc}
   269f8:	4824      	ldr	r0, [pc, #144]	@ (26a8c <_ZN20complex_dynamic_type3app17hd538ad8fdc74646eE+0x14c>)
   269fa:	2107      	movs	r1, #7
   269fc:	2200      	movs	r2, #0
   269fe:	4613      	mov	r3, r2
   26a00:	df03      	svc	3
   26a02:	b023      	add	sp, #140	@ 0x8c
   26a04:	bdf0      	pop	{r4, r5, r6, r7, pc}
   26a06:	a805      	add	r0, sp, #20
   26a08:	7800      	ldrb	r0, [r0, #0]
   26a0a:	2802      	cmp	r0, #2
   26a0c:	d00c      	beq.n	26a28 <_ZN20complex_dynamic_type3app17hd538ad8fdc74646eE+0xe8>
   26a0e:	2803      	cmp	r0, #3
   26a10:	d105      	bne.n	26a1e <_ZN20complex_dynamic_type3app17hd538ad8fdc74646eE+0xde>
   26a12:	481e      	ldr	r0, [pc, #120]	@ (26a8c <_ZN20complex_dynamic_type3app17hd538ad8fdc74646eE+0x14c>)
   26a14:	2107      	movs	r1, #7
   26a16:	2200      	movs	r2, #0
   26a18:	4613      	mov	r3, r2
   26a1a:	df03      	svc	3
   26a1c:	e004      	b.n	26a28 <_ZN20complex_dynamic_type3app17hd538ad8fdc74646eE+0xe8>
   26a1e:	481b      	ldr	r0, [pc, #108]	@ (26a8c <_ZN20complex_dynamic_type3app17hd538ad8fdc74646eE+0x14c>)
   26a20:	2107      	movs	r1, #7
   26a22:	2200      	movs	r2, #0
   26a24:	4613      	mov	r3, r2
   26a26:	df04      	svc	4
   26a28:	a805      	add	r0, sp, #20
   26a2a:	9901      	ldr	r1, [sp, #4]
   26a2c:	7001      	strb	r1, [r0, #0]
   26a2e:	a812      	add	r0, sp, #72	@ 0x48
   26a30:	7800      	ldrb	r0, [r0, #0]
   26a32:	2804      	cmp	r0, #4
   26a34:	d007      	beq.n	26a46 <_ZN20complex_dynamic_type3app17hd538ad8fdc74646eE+0x106>
   26a36:	2803      	cmp	r0, #3
   26a38:	d11d      	bne.n	26a76 <_ZN20complex_dynamic_type3app17hd538ad8fdc74646eE+0x136>
   26a3a:	4814      	ldr	r0, [pc, #80]	@ (26a8c <_ZN20complex_dynamic_type3app17hd538ad8fdc74646eE+0x14c>)
   26a3c:	2105      	movs	r1, #5
   26a3e:	2200      	movs	r2, #0
   26a40:	4613      	mov	r3, r2
   26a42:	df03      	svc	3
   26a44:	e004      	b.n	26a50 <_ZN20complex_dynamic_type3app17hd538ad8fdc74646eE+0x110>
   26a46:	4811      	ldr	r0, [pc, #68]	@ (26a8c <_ZN20complex_dynamic_type3app17hd538ad8fdc74646eE+0x14c>)
   26a48:	2105      	movs	r1, #5
   26a4a:	2200      	movs	r2, #0
   26a4c:	4613      	mov	r3, r2
   26a4e:	df04      	svc	4
   26a50:	a805      	add	r0, sp, #20
   26a52:	7804      	ldrb	r4, [r0, #0]
   26a54:	1c68      	adds	r0, r5, #1
   26a56:	2241      	movs	r2, #65	@ 0x41
   26a58:	9902      	ldr	r1, [sp, #8]
   26a5a:	f004 fb55 	bl	2b108 <__aeabi_memcpy>
   26a5e:	702e      	strb	r6, [r5, #0]
   26a60:	2c02      	cmp	r4, #2
   26a62:	d006      	beq.n	26a72 <_ZN20complex_dynamic_type3app17hd538ad8fdc74646eE+0x132>
   26a64:	4809      	ldr	r0, [pc, #36]	@ (26a8c <_ZN20complex_dynamic_type3app17hd538ad8fdc74646eE+0x14c>)
   26a66:	2107      	movs	r1, #7
   26a68:	2200      	movs	r2, #0
   26a6a:	4613      	mov	r3, r2
   26a6c:	2c04      	cmp	r4, #4
   26a6e:	d10a      	bne.n	26a86 <_ZN20complex_dynamic_type3app17hd538ad8fdc74646eE+0x146>
   26a70:	df04      	svc	4
   26a72:	b023      	add	sp, #140	@ 0x8c
   26a74:	bdf0      	pop	{r4, r5, r6, r7, pc}
   26a76:	1c68      	adds	r0, r5, #1
   26a78:	2241      	movs	r2, #65	@ 0x41
   26a7a:	4621      	mov	r1, r4
   26a7c:	f004 fb44 	bl	2b108 <__aeabi_memcpy>
   26a80:	702e      	strb	r6, [r5, #0]
   26a82:	b023      	add	sp, #140	@ 0x8c
   26a84:	bdf0      	pop	{r4, r5, r6, r7, pc}
   26a86:	df03      	svc	3
   26a88:	b023      	add	sp, #140	@ 0x8c
   26a8a:	bdf0      	pop	{r4, r5, r6, r7, pc}
   26a8c:	0000091d 	.word	0x0000091d

00026a90 <_ZN20complex_dynamic_type3app17hdc5bc5b5def0d593E>:
   26a90:	b5f0      	push	{r4, r5, r6, r7, lr}
   26a92:	af03      	add	r7, sp, #12
   26a94:	b099      	sub	sp, #100	@ 0x64
   26a96:	9003      	str	r0, [sp, #12]
   26a98:	a804      	add	r0, sp, #16
   26a9a:	2402      	movs	r4, #2
   26a9c:	7004      	strb	r4, [r0, #0]
   26a9e:	1c46      	adds	r6, r0, #1
   26aa0:	2218      	movs	r2, #24
   26aa2:	9202      	str	r2, [sp, #8]
   26aa4:	4630      	mov	r0, r6
   26aa6:	f004 fb2f 	bl	2b108 <__aeabi_memcpy>
   26aaa:	ad0b      	add	r5, sp, #44	@ 0x2c
   26aac:	1c68      	adds	r0, r5, #1
   26aae:	2136      	movs	r1, #54	@ 0x36
   26ab0:	9001      	str	r0, [sp, #4]
   26ab2:	f004 f969 	bl	2ad88 <__aeabi_memclr>
   26ab6:	9400      	str	r4, [sp, #0]
   26ab8:	702c      	strb	r4, [r5, #0]
   26aba:	20f3      	movs	r0, #243	@ 0xf3
   26abc:	2108      	movs	r1, #8
   26abe:	4632      	mov	r2, r6
   26ac0:	9b02      	ldr	r3, [sp, #8]
   26ac2:	df04      	svc	4
   26ac4:	2802      	cmp	r0, #2
   26ac6:	d104      	bne.n	26ad2 <_ZN20complex_dynamic_type3app17hdc5bc5b5def0d593E+0x42>
   26ac8:	2001      	movs	r0, #1
   26aca:	9a03      	ldr	r2, [sp, #12]
   26acc:	7010      	strb	r0, [r2, #0]
   26ace:	6051      	str	r1, [r2, #4]
   26ad0:	e02c      	b.n	26b2c <_ZN20complex_dynamic_type3app17hdc5bc5b5def0d593E+0x9c>
   26ad2:	9d03      	ldr	r5, [sp, #12]
   26ad4:	a804      	add	r0, sp, #16
   26ad6:	2104      	movs	r1, #4
   26ad8:	7001      	strb	r1, [r0, #0]
   26ada:	20f3      	movs	r0, #243	@ 0xf3
   26adc:	2336      	movs	r3, #54	@ 0x36
   26ade:	9c01      	ldr	r4, [sp, #4]
   26ae0:	4622      	mov	r2, r4
   26ae2:	df03      	svc	3
   26ae4:	2802      	cmp	r0, #2
   26ae6:	d10e      	bne.n	26b06 <_ZN20complex_dynamic_type3app17hdc5bc5b5def0d593E+0x76>
   26ae8:	2001      	movs	r0, #1
   26aea:	7028      	strb	r0, [r5, #0]
   26aec:	6069      	str	r1, [r5, #4]
   26aee:	a80b      	add	r0, sp, #44	@ 0x2c
   26af0:	7800      	ldrb	r0, [r0, #0]
   26af2:	2802      	cmp	r0, #2
   26af4:	d01a      	beq.n	26b2c <_ZN20complex_dynamic_type3app17hdc5bc5b5def0d593E+0x9c>
   26af6:	2803      	cmp	r0, #3
   26af8:	d013      	beq.n	26b22 <_ZN20complex_dynamic_type3app17hdc5bc5b5def0d593E+0x92>
   26afa:	20f3      	movs	r0, #243	@ 0xf3
   26afc:	2104      	movs	r1, #4
   26afe:	2200      	movs	r2, #0
   26b00:	4613      	mov	r3, r2
   26b02:	df04      	svc	4
   26b04:	e012      	b.n	26b2c <_ZN20complex_dynamic_type3app17hdc5bc5b5def0d593E+0x9c>
   26b06:	a80b      	add	r0, sp, #44	@ 0x2c
   26b08:	2103      	movs	r1, #3
   26b0a:	7001      	strb	r1, [r0, #0]
   26b0c:	20f3      	movs	r0, #243	@ 0xf3
   26b0e:	2108      	movs	r1, #8
   26b10:	2204      	movs	r2, #4
   26b12:	2600      	movs	r6, #0
   26b14:	4633      	mov	r3, r6
   26b16:	df02      	svc	2
   26b18:	2880      	cmp	r0, #128	@ 0x80
   26b1a:	d21b      	bcs.n	26b54 <_ZN20complex_dynamic_type3app17hdc5bc5b5def0d593E+0xc4>
   26b1c:	2001      	movs	r0, #1
   26b1e:	7028      	strb	r0, [r5, #0]
   26b20:	6069      	str	r1, [r5, #4]
   26b22:	20f3      	movs	r0, #243	@ 0xf3
   26b24:	2104      	movs	r1, #4
   26b26:	2200      	movs	r2, #0
   26b28:	4613      	mov	r3, r2
   26b2a:	df03      	svc	3
   26b2c:	a804      	add	r0, sp, #16
   26b2e:	7800      	ldrb	r0, [r0, #0]
   26b30:	2802      	cmp	r0, #2
   26b32:	d045      	beq.n	26bc0 <_ZN20complex_dynamic_type3app17hdc5bc5b5def0d593E+0x130>
   26b34:	2804      	cmp	r0, #4
   26b36:	d106      	bne.n	26b46 <_ZN20complex_dynamic_type3app17hdc5bc5b5def0d593E+0xb6>
   26b38:	20f3      	movs	r0, #243	@ 0xf3
   26b3a:	2108      	movs	r1, #8
   26b3c:	2200      	movs	r2, #0
   26b3e:	4613      	mov	r3, r2
   26b40:	df04      	svc	4
   26b42:	b019      	add	sp, #100	@ 0x64
   26b44:	bdf0      	pop	{r4, r5, r6, r7, pc}
   26b46:	20f3      	movs	r0, #243	@ 0xf3
   26b48:	2108      	movs	r1, #8
   26b4a:	2200      	movs	r2, #0
   26b4c:	4613      	mov	r3, r2
   26b4e:	df03      	svc	3
   26b50:	b019      	add	sp, #100	@ 0x64
   26b52:	bdf0      	pop	{r4, r5, r6, r7, pc}
   26b54:	a804      	add	r0, sp, #16
   26b56:	7800      	ldrb	r0, [r0, #0]
   26b58:	2802      	cmp	r0, #2
   26b5a:	d00c      	beq.n	26b76 <_ZN20complex_dynamic_type3app17hdc5bc5b5def0d593E+0xe6>
   26b5c:	2803      	cmp	r0, #3
   26b5e:	d105      	bne.n	26b6c <_ZN20complex_dynamic_type3app17hdc5bc5b5def0d593E+0xdc>
   26b60:	20f3      	movs	r0, #243	@ 0xf3
   26b62:	2108      	movs	r1, #8
   26b64:	2200      	movs	r2, #0
   26b66:	4613      	mov	r3, r2
   26b68:	df03      	svc	3
   26b6a:	e004      	b.n	26b76 <_ZN20complex_dynamic_type3app17hdc5bc5b5def0d593E+0xe6>
   26b6c:	20f3      	movs	r0, #243	@ 0xf3
   26b6e:	2108      	movs	r1, #8
   26b70:	2200      	movs	r2, #0
   26b72:	4613      	mov	r3, r2
   26b74:	df04      	svc	4
   26b76:	a804      	add	r0, sp, #16
   26b78:	9900      	ldr	r1, [sp, #0]
   26b7a:	7001      	strb	r1, [r0, #0]
   26b7c:	a80b      	add	r0, sp, #44	@ 0x2c
   26b7e:	7800      	ldrb	r0, [r0, #0]
   26b80:	2804      	cmp	r0, #4
   26b82:	d007      	beq.n	26b94 <_ZN20complex_dynamic_type3app17hdc5bc5b5def0d593E+0x104>
   26b84:	2803      	cmp	r0, #3
   26b86:	d11d      	bne.n	26bc4 <_ZN20complex_dynamic_type3app17hdc5bc5b5def0d593E+0x134>
   26b88:	20f3      	movs	r0, #243	@ 0xf3
   26b8a:	2104      	movs	r1, #4
   26b8c:	2200      	movs	r2, #0
   26b8e:	4613      	mov	r3, r2
   26b90:	df03      	svc	3
   26b92:	e004      	b.n	26b9e <_ZN20complex_dynamic_type3app17hdc5bc5b5def0d593E+0x10e>
   26b94:	20f3      	movs	r0, #243	@ 0xf3
   26b96:	2104      	movs	r1, #4
   26b98:	2200      	movs	r2, #0
   26b9a:	4613      	mov	r3, r2
   26b9c:	df04      	svc	4
   26b9e:	a804      	add	r0, sp, #16
   26ba0:	7804      	ldrb	r4, [r0, #0]
   26ba2:	1c68      	adds	r0, r5, #1
   26ba4:	2236      	movs	r2, #54	@ 0x36
   26ba6:	9901      	ldr	r1, [sp, #4]
   26ba8:	f004 faae 	bl	2b108 <__aeabi_memcpy>
   26bac:	702e      	strb	r6, [r5, #0]
   26bae:	2c02      	cmp	r4, #2
   26bb0:	d006      	beq.n	26bc0 <_ZN20complex_dynamic_type3app17hdc5bc5b5def0d593E+0x130>
   26bb2:	20f3      	movs	r0, #243	@ 0xf3
   26bb4:	2108      	movs	r1, #8
   26bb6:	2200      	movs	r2, #0
   26bb8:	4613      	mov	r3, r2
   26bba:	2c04      	cmp	r4, #4
   26bbc:	d10a      	bne.n	26bd4 <_ZN20complex_dynamic_type3app17hdc5bc5b5def0d593E+0x144>
   26bbe:	df04      	svc	4
   26bc0:	b019      	add	sp, #100	@ 0x64
   26bc2:	bdf0      	pop	{r4, r5, r6, r7, pc}
   26bc4:	1c68      	adds	r0, r5, #1
   26bc6:	2236      	movs	r2, #54	@ 0x36
   26bc8:	4621      	mov	r1, r4
   26bca:	f004 fa9d 	bl	2b108 <__aeabi_memcpy>
   26bce:	702e      	strb	r6, [r5, #0]
   26bd0:	b019      	add	sp, #100	@ 0x64
   26bd2:	bdf0      	pop	{r4, r5, r6, r7, pc}
   26bd4:	df03      	svc	3
   26bd6:	b019      	add	sp, #100	@ 0x64
   26bd8:	bdf0      	pop	{r4, r5, r6, r7, pc}

00026bda <_ZN20complex_dynamic_type3app17hdc84439260b60c9eE>:
   26bda:	b5f0      	push	{r4, r5, r6, r7, lr}
   26bdc:	af03      	add	r7, sp, #12
   26bde:	b0a1      	sub	sp, #132	@ 0x84
   26be0:	9003      	str	r0, [sp, #12]
   26be2:	a804      	add	r0, sp, #16
   26be4:	2502      	movs	r5, #2
   26be6:	7005      	strb	r5, [r0, #0]
   26be8:	1c40      	adds	r0, r0, #1
   26bea:	9002      	str	r0, [sp, #8]
   26bec:	2638      	movs	r6, #56	@ 0x38
   26bee:	4632      	mov	r2, r6
   26bf0:	f004 fa8a 	bl	2b108 <__aeabi_memcpy>
   26bf4:	ac13      	add	r4, sp, #76	@ 0x4c
   26bf6:	1c60      	adds	r0, r4, #1
   26bf8:	2134      	movs	r1, #52	@ 0x34
   26bfa:	9001      	str	r0, [sp, #4]
   26bfc:	f004 f8c4 	bl	2ad88 <__aeabi_memclr>
   26c00:	9500      	str	r5, [sp, #0]
   26c02:	7025      	strb	r5, [r4, #0]
   26c04:	2097      	movs	r0, #151	@ 0x97
   26c06:	0044      	lsls	r4, r0, #1
   26c08:	2108      	movs	r1, #8
   26c0a:	4620      	mov	r0, r4
   26c0c:	9a02      	ldr	r2, [sp, #8]
   26c0e:	4633      	mov	r3, r6
   26c10:	df04      	svc	4
   26c12:	2802      	cmp	r0, #2
   26c14:	d104      	bne.n	26c20 <_ZN20complex_dynamic_type3app17hdc84439260b60c9eE+0x46>
   26c16:	2001      	movs	r0, #1
   26c18:	9a03      	ldr	r2, [sp, #12]
   26c1a:	7010      	strb	r0, [r2, #0]
   26c1c:	6051      	str	r1, [r2, #4]
   26c1e:	e02c      	b.n	26c7a <_ZN20complex_dynamic_type3app17hdc84439260b60c9eE+0xa0>
   26c20:	9e03      	ldr	r6, [sp, #12]
   26c22:	a804      	add	r0, sp, #16
   26c24:	2104      	movs	r1, #4
   26c26:	7001      	strb	r1, [r0, #0]
   26c28:	2503      	movs	r5, #3
   26c2a:	2334      	movs	r3, #52	@ 0x34
   26c2c:	4620      	mov	r0, r4
   26c2e:	4629      	mov	r1, r5
   26c30:	9a01      	ldr	r2, [sp, #4]
   26c32:	df03      	svc	3
   26c34:	2802      	cmp	r0, #2
   26c36:	d10e      	bne.n	26c56 <_ZN20complex_dynamic_type3app17hdc84439260b60c9eE+0x7c>
   26c38:	2001      	movs	r0, #1
   26c3a:	7030      	strb	r0, [r6, #0]
   26c3c:	6071      	str	r1, [r6, #4]
   26c3e:	a813      	add	r0, sp, #76	@ 0x4c
   26c40:	7800      	ldrb	r0, [r0, #0]
   26c42:	2802      	cmp	r0, #2
   26c44:	d019      	beq.n	26c7a <_ZN20complex_dynamic_type3app17hdc84439260b60c9eE+0xa0>
   26c46:	2803      	cmp	r0, #3
   26c48:	d012      	beq.n	26c70 <_ZN20complex_dynamic_type3app17hdc84439260b60c9eE+0x96>
   26c4a:	2103      	movs	r1, #3
   26c4c:	2200      	movs	r2, #0
   26c4e:	4620      	mov	r0, r4
   26c50:	4613      	mov	r3, r2
   26c52:	df04      	svc	4
   26c54:	e011      	b.n	26c7a <_ZN20complex_dynamic_type3app17hdc84439260b60c9eE+0xa0>
   26c56:	a813      	add	r0, sp, #76	@ 0x4c
   26c58:	7005      	strb	r5, [r0, #0]
   26c5a:	2108      	movs	r1, #8
   26c5c:	2300      	movs	r3, #0
   26c5e:	4620      	mov	r0, r4
   26c60:	462a      	mov	r2, r5
   26c62:	461d      	mov	r5, r3
   26c64:	df02      	svc	2
   26c66:	2880      	cmp	r0, #128	@ 0x80
   26c68:	d219      	bcs.n	26c9e <_ZN20complex_dynamic_type3app17hdc84439260b60c9eE+0xc4>
   26c6a:	2001      	movs	r0, #1
   26c6c:	7030      	strb	r0, [r6, #0]
   26c6e:	6071      	str	r1, [r6, #4]
   26c70:	2103      	movs	r1, #3
   26c72:	2200      	movs	r2, #0
   26c74:	4620      	mov	r0, r4
   26c76:	4613      	mov	r3, r2
   26c78:	df03      	svc	3
   26c7a:	a804      	add	r0, sp, #16
   26c7c:	7800      	ldrb	r0, [r0, #0]
   26c7e:	2802      	cmp	r0, #2
   26c80:	d043      	beq.n	26d0a <_ZN20complex_dynamic_type3app17hdc84439260b60c9eE+0x130>
   26c82:	2108      	movs	r1, #8
   26c84:	2200      	movs	r2, #0
   26c86:	2804      	cmp	r0, #4
   26c88:	d104      	bne.n	26c94 <_ZN20complex_dynamic_type3app17hdc84439260b60c9eE+0xba>
   26c8a:	4620      	mov	r0, r4
   26c8c:	4613      	mov	r3, r2
   26c8e:	df04      	svc	4
   26c90:	b021      	add	sp, #132	@ 0x84
   26c92:	bdf0      	pop	{r4, r5, r6, r7, pc}
   26c94:	4620      	mov	r0, r4
   26c96:	4613      	mov	r3, r2
   26c98:	df03      	svc	3
   26c9a:	b021      	add	sp, #132	@ 0x84
   26c9c:	bdf0      	pop	{r4, r5, r6, r7, pc}
   26c9e:	a804      	add	r0, sp, #16
   26ca0:	7800      	ldrb	r0, [r0, #0]
   26ca2:	2802      	cmp	r0, #2
   26ca4:	d00a      	beq.n	26cbc <_ZN20complex_dynamic_type3app17hdc84439260b60c9eE+0xe2>
   26ca6:	2108      	movs	r1, #8
   26ca8:	2200      	movs	r2, #0
   26caa:	2803      	cmp	r0, #3
   26cac:	d103      	bne.n	26cb6 <_ZN20complex_dynamic_type3app17hdc84439260b60c9eE+0xdc>
   26cae:	4620      	mov	r0, r4
   26cb0:	4613      	mov	r3, r2
   26cb2:	df03      	svc	3
   26cb4:	e002      	b.n	26cbc <_ZN20complex_dynamic_type3app17hdc84439260b60c9eE+0xe2>
   26cb6:	4620      	mov	r0, r4
   26cb8:	4613      	mov	r3, r2
   26cba:	df04      	svc	4
   26cbc:	a804      	add	r0, sp, #16
   26cbe:	9900      	ldr	r1, [sp, #0]
   26cc0:	7001      	strb	r1, [r0, #0]
   26cc2:	a813      	add	r0, sp, #76	@ 0x4c
   26cc4:	7800      	ldrb	r0, [r0, #0]
   26cc6:	2804      	cmp	r0, #4
   26cc8:	d008      	beq.n	26cdc <_ZN20complex_dynamic_type3app17hdc84439260b60c9eE+0x102>
   26cca:	2803      	cmp	r0, #3
   26ccc:	d11f      	bne.n	26d0e <_ZN20complex_dynamic_type3app17hdc84439260b60c9eE+0x134>
   26cce:	2103      	movs	r1, #3
   26cd0:	2200      	movs	r2, #0
   26cd2:	9402      	str	r4, [sp, #8]
   26cd4:	4620      	mov	r0, r4
   26cd6:	4613      	mov	r3, r2
   26cd8:	df03      	svc	3
   26cda:	e005      	b.n	26ce8 <_ZN20complex_dynamic_type3app17hdc84439260b60c9eE+0x10e>
   26cdc:	2103      	movs	r1, #3
   26cde:	2200      	movs	r2, #0
   26ce0:	9402      	str	r4, [sp, #8]
   26ce2:	4620      	mov	r0, r4
   26ce4:	4613      	mov	r3, r2
   26ce6:	df04      	svc	4
   26ce8:	a804      	add	r0, sp, #16
   26cea:	7804      	ldrb	r4, [r0, #0]
   26cec:	1c70      	adds	r0, r6, #1
   26cee:	2234      	movs	r2, #52	@ 0x34
   26cf0:	9901      	ldr	r1, [sp, #4]
   26cf2:	f004 fa09 	bl	2b108 <__aeabi_memcpy>
   26cf6:	7035      	strb	r5, [r6, #0]
   26cf8:	2c02      	cmp	r4, #2
   26cfa:	d006      	beq.n	26d0a <_ZN20complex_dynamic_type3app17hdc84439260b60c9eE+0x130>
   26cfc:	2c04      	cmp	r4, #4
   26cfe:	d10e      	bne.n	26d1e <_ZN20complex_dynamic_type3app17hdc84439260b60c9eE+0x144>
   26d00:	2108      	movs	r1, #8
   26d02:	2200      	movs	r2, #0
   26d04:	9802      	ldr	r0, [sp, #8]
   26d06:	4613      	mov	r3, r2
   26d08:	df04      	svc	4
   26d0a:	b021      	add	sp, #132	@ 0x84
   26d0c:	bdf0      	pop	{r4, r5, r6, r7, pc}
   26d0e:	9901      	ldr	r1, [sp, #4]
   26d10:	1c70      	adds	r0, r6, #1
   26d12:	2234      	movs	r2, #52	@ 0x34
   26d14:	f004 f9f8 	bl	2b108 <__aeabi_memcpy>
   26d18:	7035      	strb	r5, [r6, #0]
   26d1a:	b021      	add	sp, #132	@ 0x84
   26d1c:	bdf0      	pop	{r4, r5, r6, r7, pc}
   26d1e:	9802      	ldr	r0, [sp, #8]
   26d20:	2108      	movs	r1, #8
   26d22:	2200      	movs	r2, #0
   26d24:	4613      	mov	r3, r2
   26d26:	df03      	svc	3
   26d28:	b021      	add	sp, #132	@ 0x84
   26d2a:	bdf0      	pop	{r4, r5, r6, r7, pc}

00026d2c <_ZN20complex_dynamic_type3app17hdcaddac158c954c6E>:
   26d2c:	b5f0      	push	{r4, r5, r6, r7, lr}
   26d2e:	af03      	add	r7, sp, #12
   26d30:	b095      	sub	sp, #84	@ 0x54
   26d32:	9003      	str	r0, [sp, #12]
   26d34:	a804      	add	r0, sp, #16
   26d36:	2502      	movs	r5, #2
   26d38:	7005      	strb	r5, [r0, #0]
   26d3a:	1c40      	adds	r0, r0, #1
   26d3c:	9002      	str	r0, [sp, #8]
   26d3e:	2625      	movs	r6, #37	@ 0x25
   26d40:	4632      	mov	r2, r6
   26d42:	f004 f9e1 	bl	2b108 <__aeabi_memcpy>
   26d46:	ac0e      	add	r4, sp, #56	@ 0x38
   26d48:	1c60      	adds	r0, r4, #1
   26d4a:	2118      	movs	r1, #24
   26d4c:	9001      	str	r0, [sp, #4]
   26d4e:	f004 f81b 	bl	2ad88 <__aeabi_memclr>
   26d52:	9500      	str	r5, [sp, #0]
   26d54:	7025      	strb	r5, [r4, #0]
   26d56:	20a7      	movs	r0, #167	@ 0xa7
   26d58:	0104      	lsls	r4, r0, #4
   26d5a:	2109      	movs	r1, #9
   26d5c:	4620      	mov	r0, r4
   26d5e:	9a02      	ldr	r2, [sp, #8]
   26d60:	4633      	mov	r3, r6
   26d62:	df04      	svc	4
   26d64:	2802      	cmp	r0, #2
   26d66:	d104      	bne.n	26d72 <_ZN20complex_dynamic_type3app17hdcaddac158c954c6E+0x46>
   26d68:	2001      	movs	r0, #1
   26d6a:	9a03      	ldr	r2, [sp, #12]
   26d6c:	7010      	strb	r0, [r2, #0]
   26d6e:	6051      	str	r1, [r2, #4]
   26d70:	e02d      	b.n	26dce <_ZN20complex_dynamic_type3app17hdcaddac158c954c6E+0xa2>
   26d72:	9e03      	ldr	r6, [sp, #12]
   26d74:	a804      	add	r0, sp, #16
   26d76:	2104      	movs	r1, #4
   26d78:	7001      	strb	r1, [r0, #0]
   26d7a:	2108      	movs	r1, #8
   26d7c:	2318      	movs	r3, #24
   26d7e:	4620      	mov	r0, r4
   26d80:	9d01      	ldr	r5, [sp, #4]
   26d82:	462a      	mov	r2, r5
   26d84:	df03      	svc	3
   26d86:	2802      	cmp	r0, #2
   26d88:	d10e      	bne.n	26da8 <_ZN20complex_dynamic_type3app17hdcaddac158c954c6E+0x7c>
   26d8a:	2001      	movs	r0, #1
   26d8c:	7030      	strb	r0, [r6, #0]
   26d8e:	6071      	str	r1, [r6, #4]
   26d90:	a80e      	add	r0, sp, #56	@ 0x38
   26d92:	7800      	ldrb	r0, [r0, #0]
   26d94:	2802      	cmp	r0, #2
   26d96:	d01a      	beq.n	26dce <_ZN20complex_dynamic_type3app17hdcaddac158c954c6E+0xa2>
   26d98:	2803      	cmp	r0, #3
   26d9a:	d013      	beq.n	26dc4 <_ZN20complex_dynamic_type3app17hdcaddac158c954c6E+0x98>
   26d9c:	2108      	movs	r1, #8
   26d9e:	2200      	movs	r2, #0
   26da0:	4620      	mov	r0, r4
   26da2:	4613      	mov	r3, r2
   26da4:	df04      	svc	4
   26da6:	e012      	b.n	26dce <_ZN20complex_dynamic_type3app17hdcaddac158c954c6E+0xa2>
   26da8:	a80e      	add	r0, sp, #56	@ 0x38
   26daa:	2103      	movs	r1, #3
   26dac:	7001      	strb	r1, [r0, #0]
   26dae:	2109      	movs	r1, #9
   26db0:	2208      	movs	r2, #8
   26db2:	2300      	movs	r3, #0
   26db4:	4620      	mov	r0, r4
   26db6:	9302      	str	r3, [sp, #8]
   26db8:	df02      	svc	2
   26dba:	2880      	cmp	r0, #128	@ 0x80
   26dbc:	d219      	bcs.n	26df2 <_ZN20complex_dynamic_type3app17hdcaddac158c954c6E+0xc6>
   26dbe:	2001      	movs	r0, #1
   26dc0:	7030      	strb	r0, [r6, #0]
   26dc2:	6071      	str	r1, [r6, #4]
   26dc4:	2108      	movs	r1, #8
   26dc6:	2200      	movs	r2, #0
   26dc8:	4620      	mov	r0, r4
   26dca:	4613      	mov	r3, r2
   26dcc:	df03      	svc	3
   26dce:	a804      	add	r0, sp, #16
   26dd0:	7800      	ldrb	r0, [r0, #0]
   26dd2:	2802      	cmp	r0, #2
   26dd4:	d044      	beq.n	26e60 <_ZN20complex_dynamic_type3app17hdcaddac158c954c6E+0x134>
   26dd6:	2109      	movs	r1, #9
   26dd8:	2200      	movs	r2, #0
   26dda:	2804      	cmp	r0, #4
   26ddc:	d104      	bne.n	26de8 <_ZN20complex_dynamic_type3app17hdcaddac158c954c6E+0xbc>
   26dde:	4620      	mov	r0, r4
   26de0:	4613      	mov	r3, r2
   26de2:	df04      	svc	4
   26de4:	b015      	add	sp, #84	@ 0x54
   26de6:	bdf0      	pop	{r4, r5, r6, r7, pc}
   26de8:	4620      	mov	r0, r4
   26dea:	4613      	mov	r3, r2
   26dec:	df03      	svc	3
   26dee:	b015      	add	sp, #84	@ 0x54
   26df0:	bdf0      	pop	{r4, r5, r6, r7, pc}
   26df2:	a804      	add	r0, sp, #16
   26df4:	7800      	ldrb	r0, [r0, #0]
   26df6:	2802      	cmp	r0, #2
   26df8:	d00a      	beq.n	26e10 <_ZN20complex_dynamic_type3app17hdcaddac158c954c6E+0xe4>
   26dfa:	2109      	movs	r1, #9
   26dfc:	2200      	movs	r2, #0
   26dfe:	2803      	cmp	r0, #3
   26e00:	d103      	bne.n	26e0a <_ZN20complex_dynamic_type3app17hdcaddac158c954c6E+0xde>
   26e02:	4620      	mov	r0, r4
   26e04:	4613      	mov	r3, r2
   26e06:	df03      	svc	3
   26e08:	e002      	b.n	26e10 <_ZN20complex_dynamic_type3app17hdcaddac158c954c6E+0xe4>
   26e0a:	4620      	mov	r0, r4
   26e0c:	4613      	mov	r3, r2
   26e0e:	df04      	svc	4
   26e10:	a804      	add	r0, sp, #16
   26e12:	9900      	ldr	r1, [sp, #0]
   26e14:	7001      	strb	r1, [r0, #0]
   26e16:	a80e      	add	r0, sp, #56	@ 0x38
   26e18:	7800      	ldrb	r0, [r0, #0]
   26e1a:	2804      	cmp	r0, #4
   26e1c:	d008      	beq.n	26e30 <_ZN20complex_dynamic_type3app17hdcaddac158c954c6E+0x104>
   26e1e:	2803      	cmp	r0, #3
   26e20:	d120      	bne.n	26e64 <_ZN20complex_dynamic_type3app17hdcaddac158c954c6E+0x138>
   26e22:	2108      	movs	r1, #8
   26e24:	2200      	movs	r2, #0
   26e26:	9400      	str	r4, [sp, #0]
   26e28:	4620      	mov	r0, r4
   26e2a:	4613      	mov	r3, r2
   26e2c:	df03      	svc	3
   26e2e:	e005      	b.n	26e3c <_ZN20complex_dynamic_type3app17hdcaddac158c954c6E+0x110>
   26e30:	2108      	movs	r1, #8
   26e32:	2200      	movs	r2, #0
   26e34:	9400      	str	r4, [sp, #0]
   26e36:	4620      	mov	r0, r4
   26e38:	4613      	mov	r3, r2
   26e3a:	df04      	svc	4
   26e3c:	a804      	add	r0, sp, #16
   26e3e:	7804      	ldrb	r4, [r0, #0]
   26e40:	1c70      	adds	r0, r6, #1
   26e42:	2218      	movs	r2, #24
   26e44:	4629      	mov	r1, r5
   26e46:	f004 f95f 	bl	2b108 <__aeabi_memcpy>
   26e4a:	9802      	ldr	r0, [sp, #8]
   26e4c:	7030      	strb	r0, [r6, #0]
   26e4e:	2c02      	cmp	r4, #2
   26e50:	d006      	beq.n	26e60 <_ZN20complex_dynamic_type3app17hdcaddac158c954c6E+0x134>
   26e52:	2c04      	cmp	r4, #4
   26e54:	d10f      	bne.n	26e76 <_ZN20complex_dynamic_type3app17hdcaddac158c954c6E+0x14a>
   26e56:	2109      	movs	r1, #9
   26e58:	2200      	movs	r2, #0
   26e5a:	9800      	ldr	r0, [sp, #0]
   26e5c:	4613      	mov	r3, r2
   26e5e:	df04      	svc	4
   26e60:	b015      	add	sp, #84	@ 0x54
   26e62:	bdf0      	pop	{r4, r5, r6, r7, pc}
   26e64:	1c70      	adds	r0, r6, #1
   26e66:	2218      	movs	r2, #24
   26e68:	4629      	mov	r1, r5
   26e6a:	f004 f94d 	bl	2b108 <__aeabi_memcpy>
   26e6e:	9802      	ldr	r0, [sp, #8]
   26e70:	7030      	strb	r0, [r6, #0]
   26e72:	b015      	add	sp, #84	@ 0x54
   26e74:	bdf0      	pop	{r4, r5, r6, r7, pc}
   26e76:	9800      	ldr	r0, [sp, #0]
   26e78:	2109      	movs	r1, #9
   26e7a:	2200      	movs	r2, #0
   26e7c:	4613      	mov	r3, r2
   26e7e:	df03      	svc	3
   26e80:	b015      	add	sp, #84	@ 0x54
   26e82:	bdf0      	pop	{r4, r5, r6, r7, pc}

00026e84 <_ZN20complex_dynamic_type3app17hdd0d3b1175ad9dd0E>:
   26e84:	b5f0      	push	{r4, r5, r6, r7, lr}
   26e86:	af03      	add	r7, sp, #12
   26e88:	b09b      	sub	sp, #108	@ 0x6c
   26e8a:	9004      	str	r0, [sp, #16]
   26e8c:	a805      	add	r0, sp, #20
   26e8e:	2402      	movs	r4, #2
   26e90:	7004      	strb	r4, [r0, #0]
   26e92:	1c46      	adds	r6, r0, #1
   26e94:	222a      	movs	r2, #42	@ 0x2a
   26e96:	9203      	str	r2, [sp, #12]
   26e98:	4630      	mov	r0, r6
   26e9a:	f004 f935 	bl	2b108 <__aeabi_memcpy>
   26e9e:	ad10      	add	r5, sp, #64	@ 0x40
   26ea0:	1c68      	adds	r0, r5, #1
   26ea2:	2128      	movs	r1, #40	@ 0x28
   26ea4:	9002      	str	r0, [sp, #8]
   26ea6:	f003 ff6f 	bl	2ad88 <__aeabi_memclr>
   26eaa:	9401      	str	r4, [sp, #4]
   26eac:	702c      	strb	r4, [r5, #0]
   26eae:	4848      	ldr	r0, [pc, #288]	@ (26fd0 <_ZN20complex_dynamic_type3app17hdd0d3b1175ad9dd0E+0x14c>)
   26eb0:	2504      	movs	r5, #4
   26eb2:	4629      	mov	r1, r5
   26eb4:	4632      	mov	r2, r6
   26eb6:	9b03      	ldr	r3, [sp, #12]
   26eb8:	df04      	svc	4
   26eba:	2802      	cmp	r0, #2
   26ebc:	d104      	bne.n	26ec8 <_ZN20complex_dynamic_type3app17hdd0d3b1175ad9dd0E+0x44>
   26ebe:	2001      	movs	r0, #1
   26ec0:	9a04      	ldr	r2, [sp, #16]
   26ec2:	7010      	strb	r0, [r2, #0]
   26ec4:	6051      	str	r1, [r2, #4]
   26ec6:	e02c      	b.n	26f22 <_ZN20complex_dynamic_type3app17hdd0d3b1175ad9dd0E+0x9e>
   26ec8:	9c04      	ldr	r4, [sp, #16]
   26eca:	a805      	add	r0, sp, #20
   26ecc:	7005      	strb	r5, [r0, #0]
   26ece:	4840      	ldr	r0, [pc, #256]	@ (26fd0 <_ZN20complex_dynamic_type3app17hdd0d3b1175ad9dd0E+0x14c>)
   26ed0:	2108      	movs	r1, #8
   26ed2:	2328      	movs	r3, #40	@ 0x28
   26ed4:	9a02      	ldr	r2, [sp, #8]
   26ed6:	df03      	svc	3
   26ed8:	2802      	cmp	r0, #2
   26eda:	d10e      	bne.n	26efa <_ZN20complex_dynamic_type3app17hdd0d3b1175ad9dd0E+0x76>
   26edc:	2001      	movs	r0, #1
   26ede:	7020      	strb	r0, [r4, #0]
   26ee0:	6061      	str	r1, [r4, #4]
   26ee2:	a810      	add	r0, sp, #64	@ 0x40
   26ee4:	7800      	ldrb	r0, [r0, #0]
   26ee6:	2802      	cmp	r0, #2
   26ee8:	d01b      	beq.n	26f22 <_ZN20complex_dynamic_type3app17hdd0d3b1175ad9dd0E+0x9e>
   26eea:	2803      	cmp	r0, #3
   26eec:	d014      	beq.n	26f18 <_ZN20complex_dynamic_type3app17hdd0d3b1175ad9dd0E+0x94>
   26eee:	4838      	ldr	r0, [pc, #224]	@ (26fd0 <_ZN20complex_dynamic_type3app17hdd0d3b1175ad9dd0E+0x14c>)
   26ef0:	2108      	movs	r1, #8
   26ef2:	2200      	movs	r2, #0
   26ef4:	4613      	mov	r3, r2
   26ef6:	df04      	svc	4
   26ef8:	e013      	b.n	26f22 <_ZN20complex_dynamic_type3app17hdd0d3b1175ad9dd0E+0x9e>
   26efa:	a810      	add	r0, sp, #64	@ 0x40
   26efc:	2103      	movs	r1, #3
   26efe:	7001      	strb	r1, [r0, #0]
   26f00:	4833      	ldr	r0, [pc, #204]	@ (26fd0 <_ZN20complex_dynamic_type3app17hdd0d3b1175ad9dd0E+0x14c>)
   26f02:	2104      	movs	r1, #4
   26f04:	2208      	movs	r2, #8
   26f06:	2600      	movs	r6, #0
   26f08:	4633      	mov	r3, r6
   26f0a:	df02      	svc	2
   26f0c:	2880      	cmp	r0, #128	@ 0x80
   26f0e:	4625      	mov	r5, r4
   26f10:	d21b      	bcs.n	26f4a <_ZN20complex_dynamic_type3app17hdd0d3b1175ad9dd0E+0xc6>
   26f12:	2001      	movs	r0, #1
   26f14:	7028      	strb	r0, [r5, #0]
   26f16:	6069      	str	r1, [r5, #4]
   26f18:	482d      	ldr	r0, [pc, #180]	@ (26fd0 <_ZN20complex_dynamic_type3app17hdd0d3b1175ad9dd0E+0x14c>)
   26f1a:	2108      	movs	r1, #8
   26f1c:	2200      	movs	r2, #0
   26f1e:	4613      	mov	r3, r2
   26f20:	df03      	svc	3
   26f22:	a805      	add	r0, sp, #20
   26f24:	7800      	ldrb	r0, [r0, #0]
   26f26:	2802      	cmp	r0, #2
   26f28:	d045      	beq.n	26fb6 <_ZN20complex_dynamic_type3app17hdd0d3b1175ad9dd0E+0x132>
   26f2a:	2804      	cmp	r0, #4
   26f2c:	d106      	bne.n	26f3c <_ZN20complex_dynamic_type3app17hdd0d3b1175ad9dd0E+0xb8>
   26f2e:	4828      	ldr	r0, [pc, #160]	@ (26fd0 <_ZN20complex_dynamic_type3app17hdd0d3b1175ad9dd0E+0x14c>)
   26f30:	2104      	movs	r1, #4
   26f32:	2200      	movs	r2, #0
   26f34:	4613      	mov	r3, r2
   26f36:	df04      	svc	4
   26f38:	b01b      	add	sp, #108	@ 0x6c
   26f3a:	bdf0      	pop	{r4, r5, r6, r7, pc}
   26f3c:	4824      	ldr	r0, [pc, #144]	@ (26fd0 <_ZN20complex_dynamic_type3app17hdd0d3b1175ad9dd0E+0x14c>)
   26f3e:	2104      	movs	r1, #4
   26f40:	2200      	movs	r2, #0
   26f42:	4613      	mov	r3, r2
   26f44:	df03      	svc	3
   26f46:	b01b      	add	sp, #108	@ 0x6c
   26f48:	bdf0      	pop	{r4, r5, r6, r7, pc}
   26f4a:	a805      	add	r0, sp, #20
   26f4c:	7800      	ldrb	r0, [r0, #0]
   26f4e:	2802      	cmp	r0, #2
   26f50:	d00c      	beq.n	26f6c <_ZN20complex_dynamic_type3app17hdd0d3b1175ad9dd0E+0xe8>
   26f52:	2803      	cmp	r0, #3
   26f54:	d105      	bne.n	26f62 <_ZN20complex_dynamic_type3app17hdd0d3b1175ad9dd0E+0xde>
   26f56:	481e      	ldr	r0, [pc, #120]	@ (26fd0 <_ZN20complex_dynamic_type3app17hdd0d3b1175ad9dd0E+0x14c>)
   26f58:	2104      	movs	r1, #4
   26f5a:	2200      	movs	r2, #0
   26f5c:	4613      	mov	r3, r2
   26f5e:	df03      	svc	3
   26f60:	e004      	b.n	26f6c <_ZN20complex_dynamic_type3app17hdd0d3b1175ad9dd0E+0xe8>
   26f62:	481b      	ldr	r0, [pc, #108]	@ (26fd0 <_ZN20complex_dynamic_type3app17hdd0d3b1175ad9dd0E+0x14c>)
   26f64:	2104      	movs	r1, #4
   26f66:	2200      	movs	r2, #0
   26f68:	4613      	mov	r3, r2
   26f6a:	df04      	svc	4
   26f6c:	a805      	add	r0, sp, #20
   26f6e:	9901      	ldr	r1, [sp, #4]
   26f70:	7001      	strb	r1, [r0, #0]
   26f72:	a810      	add	r0, sp, #64	@ 0x40
   26f74:	7800      	ldrb	r0, [r0, #0]
   26f76:	2804      	cmp	r0, #4
   26f78:	d007      	beq.n	26f8a <_ZN20complex_dynamic_type3app17hdd0d3b1175ad9dd0E+0x106>
   26f7a:	2803      	cmp	r0, #3
   26f7c:	d11d      	bne.n	26fba <_ZN20complex_dynamic_type3app17hdd0d3b1175ad9dd0E+0x136>
   26f7e:	4814      	ldr	r0, [pc, #80]	@ (26fd0 <_ZN20complex_dynamic_type3app17hdd0d3b1175ad9dd0E+0x14c>)
   26f80:	2108      	movs	r1, #8
   26f82:	2200      	movs	r2, #0
   26f84:	4613      	mov	r3, r2
   26f86:	df03      	svc	3
   26f88:	e004      	b.n	26f94 <_ZN20complex_dynamic_type3app17hdd0d3b1175ad9dd0E+0x110>
   26f8a:	4811      	ldr	r0, [pc, #68]	@ (26fd0 <_ZN20complex_dynamic_type3app17hdd0d3b1175ad9dd0E+0x14c>)
   26f8c:	2108      	movs	r1, #8
   26f8e:	2200      	movs	r2, #0
   26f90:	4613      	mov	r3, r2
   26f92:	df04      	svc	4
   26f94:	a805      	add	r0, sp, #20
   26f96:	7804      	ldrb	r4, [r0, #0]
   26f98:	1c68      	adds	r0, r5, #1
   26f9a:	2228      	movs	r2, #40	@ 0x28
   26f9c:	9902      	ldr	r1, [sp, #8]
   26f9e:	f004 f8b3 	bl	2b108 <__aeabi_memcpy>
   26fa2:	702e      	strb	r6, [r5, #0]
   26fa4:	2c02      	cmp	r4, #2
   26fa6:	d006      	beq.n	26fb6 <_ZN20complex_dynamic_type3app17hdd0d3b1175ad9dd0E+0x132>
   26fa8:	4809      	ldr	r0, [pc, #36]	@ (26fd0 <_ZN20complex_dynamic_type3app17hdd0d3b1175ad9dd0E+0x14c>)
   26faa:	2104      	movs	r1, #4
   26fac:	2200      	movs	r2, #0
   26fae:	4613      	mov	r3, r2
   26fb0:	2c04      	cmp	r4, #4
   26fb2:	d10a      	bne.n	26fca <_ZN20complex_dynamic_type3app17hdd0d3b1175ad9dd0E+0x146>
   26fb4:	df04      	svc	4
   26fb6:	b01b      	add	sp, #108	@ 0x6c
   26fb8:	bdf0      	pop	{r4, r5, r6, r7, pc}
   26fba:	1c68      	adds	r0, r5, #1
   26fbc:	2228      	movs	r2, #40	@ 0x28
   26fbe:	9902      	ldr	r1, [sp, #8]
   26fc0:	f004 f8a2 	bl	2b108 <__aeabi_memcpy>
   26fc4:	702e      	strb	r6, [r5, #0]
   26fc6:	b01b      	add	sp, #108	@ 0x6c
   26fc8:	bdf0      	pop	{r4, r5, r6, r7, pc}
   26fca:	df03      	svc	3
   26fcc:	b01b      	add	sp, #108	@ 0x6c
   26fce:	bdf0      	pop	{r4, r5, r6, r7, pc}
   26fd0:	00001efa 	.word	0x00001efa

00026fd4 <_ZN20complex_dynamic_type3app17he61860d16e4c65fdE>:
   26fd4:	b5f0      	push	{r4, r5, r6, r7, lr}
   26fd6:	af03      	add	r7, sp, #12
   26fd8:	b09d      	sub	sp, #116	@ 0x74
   26fda:	9004      	str	r0, [sp, #16]
   26fdc:	a805      	add	r0, sp, #20
   26fde:	2402      	movs	r4, #2
   26fe0:	7004      	strb	r4, [r0, #0]
   26fe2:	1c40      	adds	r0, r0, #1
   26fe4:	9003      	str	r0, [sp, #12]
   26fe6:	2541      	movs	r5, #65	@ 0x41
   26fe8:	462a      	mov	r2, r5
   26fea:	f004 f88d 	bl	2b108 <__aeabi_memcpy>
   26fee:	ae16      	add	r6, sp, #88	@ 0x58
   26ff0:	1c70      	adds	r0, r6, #1
   26ff2:	2118      	movs	r1, #24
   26ff4:	9002      	str	r0, [sp, #8]
   26ff6:	f003 fec7 	bl	2ad88 <__aeabi_memclr>
   26ffa:	9401      	str	r4, [sp, #4]
   26ffc:	7034      	strb	r4, [r6, #0]
   26ffe:	4847      	ldr	r0, [pc, #284]	@ (2711c <_ZN20complex_dynamic_type3app17he61860d16e4c65fdE+0x148>)
   27000:	2601      	movs	r6, #1
   27002:	4631      	mov	r1, r6
   27004:	9a03      	ldr	r2, [sp, #12]
   27006:	462b      	mov	r3, r5
   27008:	df04      	svc	4
   2700a:	2802      	cmp	r0, #2
   2700c:	d103      	bne.n	27016 <_ZN20complex_dynamic_type3app17he61860d16e4c65fdE+0x42>
   2700e:	9804      	ldr	r0, [sp, #16]
   27010:	7006      	strb	r6, [r0, #0]
   27012:	6041      	str	r1, [r0, #4]
   27014:	e02b      	b.n	2706e <_ZN20complex_dynamic_type3app17he61860d16e4c65fdE+0x9a>
   27016:	9d04      	ldr	r5, [sp, #16]
   27018:	a805      	add	r0, sp, #20
   2701a:	2104      	movs	r1, #4
   2701c:	7001      	strb	r1, [r0, #0]
   2701e:	483f      	ldr	r0, [pc, #252]	@ (2711c <_ZN20complex_dynamic_type3app17he61860d16e4c65fdE+0x148>)
   27020:	2109      	movs	r1, #9
   27022:	2318      	movs	r3, #24
   27024:	9a02      	ldr	r2, [sp, #8]
   27026:	df03      	svc	3
   27028:	2802      	cmp	r0, #2
   2702a:	d10d      	bne.n	27048 <_ZN20complex_dynamic_type3app17he61860d16e4c65fdE+0x74>
   2702c:	702e      	strb	r6, [r5, #0]
   2702e:	6069      	str	r1, [r5, #4]
   27030:	a816      	add	r0, sp, #88	@ 0x58
   27032:	7800      	ldrb	r0, [r0, #0]
   27034:	2802      	cmp	r0, #2
   27036:	d01a      	beq.n	2706e <_ZN20complex_dynamic_type3app17he61860d16e4c65fdE+0x9a>
   27038:	2803      	cmp	r0, #3
   2703a:	d013      	beq.n	27064 <_ZN20complex_dynamic_type3app17he61860d16e4c65fdE+0x90>
   2703c:	4837      	ldr	r0, [pc, #220]	@ (2711c <_ZN20complex_dynamic_type3app17he61860d16e4c65fdE+0x148>)
   2703e:	2109      	movs	r1, #9
   27040:	2200      	movs	r2, #0
   27042:	4613      	mov	r3, r2
   27044:	df04      	svc	4
   27046:	e012      	b.n	2706e <_ZN20complex_dynamic_type3app17he61860d16e4c65fdE+0x9a>
   27048:	a816      	add	r0, sp, #88	@ 0x58
   2704a:	2103      	movs	r1, #3
   2704c:	7001      	strb	r1, [r0, #0]
   2704e:	4833      	ldr	r0, [pc, #204]	@ (2711c <_ZN20complex_dynamic_type3app17he61860d16e4c65fdE+0x148>)
   27050:	2401      	movs	r4, #1
   27052:	2209      	movs	r2, #9
   27054:	2600      	movs	r6, #0
   27056:	4621      	mov	r1, r4
   27058:	4633      	mov	r3, r6
   2705a:	df02      	svc	2
   2705c:	2880      	cmp	r0, #128	@ 0x80
   2705e:	d21a      	bcs.n	27096 <_ZN20complex_dynamic_type3app17he61860d16e4c65fdE+0xc2>
   27060:	702c      	strb	r4, [r5, #0]
   27062:	6069      	str	r1, [r5, #4]
   27064:	482d      	ldr	r0, [pc, #180]	@ (2711c <_ZN20complex_dynamic_type3app17he61860d16e4c65fdE+0x148>)
   27066:	2109      	movs	r1, #9
   27068:	2200      	movs	r2, #0
   2706a:	4613      	mov	r3, r2
   2706c:	df03      	svc	3
   2706e:	a805      	add	r0, sp, #20
   27070:	7800      	ldrb	r0, [r0, #0]
   27072:	2802      	cmp	r0, #2
   27074:	d045      	beq.n	27102 <_ZN20complex_dynamic_type3app17he61860d16e4c65fdE+0x12e>
   27076:	2804      	cmp	r0, #4
   27078:	d106      	bne.n	27088 <_ZN20complex_dynamic_type3app17he61860d16e4c65fdE+0xb4>
   2707a:	4828      	ldr	r0, [pc, #160]	@ (2711c <_ZN20complex_dynamic_type3app17he61860d16e4c65fdE+0x148>)
   2707c:	2101      	movs	r1, #1
   2707e:	2200      	movs	r2, #0
   27080:	4613      	mov	r3, r2
   27082:	df04      	svc	4
   27084:	b01d      	add	sp, #116	@ 0x74
   27086:	bdf0      	pop	{r4, r5, r6, r7, pc}
   27088:	4824      	ldr	r0, [pc, #144]	@ (2711c <_ZN20complex_dynamic_type3app17he61860d16e4c65fdE+0x148>)
   2708a:	2101      	movs	r1, #1
   2708c:	2200      	movs	r2, #0
   2708e:	4613      	mov	r3, r2
   27090:	df03      	svc	3
   27092:	b01d      	add	sp, #116	@ 0x74
   27094:	bdf0      	pop	{r4, r5, r6, r7, pc}
   27096:	a805      	add	r0, sp, #20
   27098:	7800      	ldrb	r0, [r0, #0]
   2709a:	2802      	cmp	r0, #2
   2709c:	d00c      	beq.n	270b8 <_ZN20complex_dynamic_type3app17he61860d16e4c65fdE+0xe4>
   2709e:	2803      	cmp	r0, #3
   270a0:	d105      	bne.n	270ae <_ZN20complex_dynamic_type3app17he61860d16e4c65fdE+0xda>
   270a2:	481e      	ldr	r0, [pc, #120]	@ (2711c <_ZN20complex_dynamic_type3app17he61860d16e4c65fdE+0x148>)
   270a4:	2101      	movs	r1, #1
   270a6:	2200      	movs	r2, #0
   270a8:	4613      	mov	r3, r2
   270aa:	df03      	svc	3
   270ac:	e004      	b.n	270b8 <_ZN20complex_dynamic_type3app17he61860d16e4c65fdE+0xe4>
   270ae:	481b      	ldr	r0, [pc, #108]	@ (2711c <_ZN20complex_dynamic_type3app17he61860d16e4c65fdE+0x148>)
   270b0:	2101      	movs	r1, #1
   270b2:	2200      	movs	r2, #0
   270b4:	4613      	mov	r3, r2
   270b6:	df04      	svc	4
   270b8:	a805      	add	r0, sp, #20
   270ba:	9901      	ldr	r1, [sp, #4]
   270bc:	7001      	strb	r1, [r0, #0]
   270be:	a816      	add	r0, sp, #88	@ 0x58
   270c0:	7800      	ldrb	r0, [r0, #0]
   270c2:	2804      	cmp	r0, #4
   270c4:	d007      	beq.n	270d6 <_ZN20complex_dynamic_type3app17he61860d16e4c65fdE+0x102>
   270c6:	2803      	cmp	r0, #3
   270c8:	d11d      	bne.n	27106 <_ZN20complex_dynamic_type3app17he61860d16e4c65fdE+0x132>
   270ca:	4814      	ldr	r0, [pc, #80]	@ (2711c <_ZN20complex_dynamic_type3app17he61860d16e4c65fdE+0x148>)
   270cc:	2109      	movs	r1, #9
   270ce:	2200      	movs	r2, #0
   270d0:	4613      	mov	r3, r2
   270d2:	df03      	svc	3
   270d4:	e004      	b.n	270e0 <_ZN20complex_dynamic_type3app17he61860d16e4c65fdE+0x10c>
   270d6:	4811      	ldr	r0, [pc, #68]	@ (2711c <_ZN20complex_dynamic_type3app17he61860d16e4c65fdE+0x148>)
   270d8:	2109      	movs	r1, #9
   270da:	2200      	movs	r2, #0
   270dc:	4613      	mov	r3, r2
   270de:	df04      	svc	4
   270e0:	a805      	add	r0, sp, #20
   270e2:	7804      	ldrb	r4, [r0, #0]
   270e4:	1c68      	adds	r0, r5, #1
   270e6:	2218      	movs	r2, #24
   270e8:	9902      	ldr	r1, [sp, #8]
   270ea:	f004 f80d 	bl	2b108 <__aeabi_memcpy>
   270ee:	702e      	strb	r6, [r5, #0]
   270f0:	2c02      	cmp	r4, #2
   270f2:	d006      	beq.n	27102 <_ZN20complex_dynamic_type3app17he61860d16e4c65fdE+0x12e>
   270f4:	4809      	ldr	r0, [pc, #36]	@ (2711c <_ZN20complex_dynamic_type3app17he61860d16e4c65fdE+0x148>)
   270f6:	2101      	movs	r1, #1
   270f8:	2200      	movs	r2, #0
   270fa:	4613      	mov	r3, r2
   270fc:	2c04      	cmp	r4, #4
   270fe:	d10a      	bne.n	27116 <_ZN20complex_dynamic_type3app17he61860d16e4c65fdE+0x142>
   27100:	df04      	svc	4
   27102:	b01d      	add	sp, #116	@ 0x74
   27104:	bdf0      	pop	{r4, r5, r6, r7, pc}
   27106:	9902      	ldr	r1, [sp, #8]
   27108:	1c68      	adds	r0, r5, #1
   2710a:	2218      	movs	r2, #24
   2710c:	f003 fffc 	bl	2b108 <__aeabi_memcpy>
   27110:	702e      	strb	r6, [r5, #0]
   27112:	b01d      	add	sp, #116	@ 0x74
   27114:	bdf0      	pop	{r4, r5, r6, r7, pc}
   27116:	df03      	svc	3
   27118:	b01d      	add	sp, #116	@ 0x74
   2711a:	bdf0      	pop	{r4, r5, r6, r7, pc}
   2711c:	00002156 	.word	0x00002156

00027120 <_ZN20complex_dynamic_type3app17heb997dde41f6ce9bE>:
   27120:	b5f0      	push	{r4, r5, r6, r7, lr}
   27122:	af03      	add	r7, sp, #12
   27124:	b097      	sub	sp, #92	@ 0x5c
   27126:	9004      	str	r0, [sp, #16]
   27128:	a805      	add	r0, sp, #20
   2712a:	2402      	movs	r4, #2
   2712c:	7004      	strb	r4, [r0, #0]
   2712e:	1c46      	adds	r6, r0, #1
   27130:	2227      	movs	r2, #39	@ 0x27
   27132:	9203      	str	r2, [sp, #12]
   27134:	4630      	mov	r0, r6
   27136:	f003 ffe7 	bl	2b108 <__aeabi_memcpy>
   2713a:	ad0f      	add	r5, sp, #60	@ 0x3c
   2713c:	1c68      	adds	r0, r5, #1
   2713e:	211e      	movs	r1, #30
   27140:	9002      	str	r0, [sp, #8]
   27142:	f003 fe21 	bl	2ad88 <__aeabi_memclr>
   27146:	9401      	str	r4, [sp, #4]
   27148:	702c      	strb	r4, [r5, #0]
   2714a:	4848      	ldr	r0, [pc, #288]	@ (2726c <_ZN20complex_dynamic_type3app17heb997dde41f6ce9bE+0x14c>)
   2714c:	2103      	movs	r1, #3
   2714e:	4632      	mov	r2, r6
   27150:	9b03      	ldr	r3, [sp, #12]
   27152:	df04      	svc	4
   27154:	2802      	cmp	r0, #2
   27156:	d104      	bne.n	27162 <_ZN20complex_dynamic_type3app17heb997dde41f6ce9bE+0x42>
   27158:	2001      	movs	r0, #1
   2715a:	9a04      	ldr	r2, [sp, #16]
   2715c:	7010      	strb	r0, [r2, #0]
   2715e:	6051      	str	r1, [r2, #4]
   27160:	e02c      	b.n	271bc <_ZN20complex_dynamic_type3app17heb997dde41f6ce9bE+0x9c>
   27162:	9d04      	ldr	r5, [sp, #16]
   27164:	a805      	add	r0, sp, #20
   27166:	2104      	movs	r1, #4
   27168:	7001      	strb	r1, [r0, #0]
   2716a:	4840      	ldr	r0, [pc, #256]	@ (2726c <_ZN20complex_dynamic_type3app17heb997dde41f6ce9bE+0x14c>)
   2716c:	2403      	movs	r4, #3
   2716e:	231e      	movs	r3, #30
   27170:	4621      	mov	r1, r4
   27172:	9a02      	ldr	r2, [sp, #8]
   27174:	df03      	svc	3
   27176:	2802      	cmp	r0, #2
   27178:	d10e      	bne.n	27198 <_ZN20complex_dynamic_type3app17heb997dde41f6ce9bE+0x78>
   2717a:	2001      	movs	r0, #1
   2717c:	7028      	strb	r0, [r5, #0]
   2717e:	6069      	str	r1, [r5, #4]
   27180:	a80f      	add	r0, sp, #60	@ 0x3c
   27182:	7800      	ldrb	r0, [r0, #0]
   27184:	2802      	cmp	r0, #2
   27186:	d019      	beq.n	271bc <_ZN20complex_dynamic_type3app17heb997dde41f6ce9bE+0x9c>
   27188:	2803      	cmp	r0, #3
   2718a:	d012      	beq.n	271b2 <_ZN20complex_dynamic_type3app17heb997dde41f6ce9bE+0x92>
   2718c:	4837      	ldr	r0, [pc, #220]	@ (2726c <_ZN20complex_dynamic_type3app17heb997dde41f6ce9bE+0x14c>)
   2718e:	2103      	movs	r1, #3
   27190:	2200      	movs	r2, #0
   27192:	4613      	mov	r3, r2
   27194:	df04      	svc	4
   27196:	e011      	b.n	271bc <_ZN20complex_dynamic_type3app17heb997dde41f6ce9bE+0x9c>
   27198:	a80f      	add	r0, sp, #60	@ 0x3c
   2719a:	7004      	strb	r4, [r0, #0]
   2719c:	4833      	ldr	r0, [pc, #204]	@ (2726c <_ZN20complex_dynamic_type3app17heb997dde41f6ce9bE+0x14c>)
   2719e:	2600      	movs	r6, #0
   271a0:	4621      	mov	r1, r4
   271a2:	4622      	mov	r2, r4
   271a4:	4633      	mov	r3, r6
   271a6:	df02      	svc	2
   271a8:	2880      	cmp	r0, #128	@ 0x80
   271aa:	d21b      	bcs.n	271e4 <_ZN20complex_dynamic_type3app17heb997dde41f6ce9bE+0xc4>
   271ac:	2001      	movs	r0, #1
   271ae:	7028      	strb	r0, [r5, #0]
   271b0:	6069      	str	r1, [r5, #4]
   271b2:	482e      	ldr	r0, [pc, #184]	@ (2726c <_ZN20complex_dynamic_type3app17heb997dde41f6ce9bE+0x14c>)
   271b4:	2103      	movs	r1, #3
   271b6:	2200      	movs	r2, #0
   271b8:	4613      	mov	r3, r2
   271ba:	df03      	svc	3
   271bc:	a805      	add	r0, sp, #20
   271be:	7800      	ldrb	r0, [r0, #0]
   271c0:	2802      	cmp	r0, #2
   271c2:	d045      	beq.n	27250 <_ZN20complex_dynamic_type3app17heb997dde41f6ce9bE+0x130>
   271c4:	2804      	cmp	r0, #4
   271c6:	d106      	bne.n	271d6 <_ZN20complex_dynamic_type3app17heb997dde41f6ce9bE+0xb6>
   271c8:	4828      	ldr	r0, [pc, #160]	@ (2726c <_ZN20complex_dynamic_type3app17heb997dde41f6ce9bE+0x14c>)
   271ca:	2103      	movs	r1, #3
   271cc:	2200      	movs	r2, #0
   271ce:	4613      	mov	r3, r2
   271d0:	df04      	svc	4
   271d2:	b017      	add	sp, #92	@ 0x5c
   271d4:	bdf0      	pop	{r4, r5, r6, r7, pc}
   271d6:	4825      	ldr	r0, [pc, #148]	@ (2726c <_ZN20complex_dynamic_type3app17heb997dde41f6ce9bE+0x14c>)
   271d8:	2103      	movs	r1, #3
   271da:	2200      	movs	r2, #0
   271dc:	4613      	mov	r3, r2
   271de:	df03      	svc	3
   271e0:	b017      	add	sp, #92	@ 0x5c
   271e2:	bdf0      	pop	{r4, r5, r6, r7, pc}
   271e4:	a805      	add	r0, sp, #20
   271e6:	7800      	ldrb	r0, [r0, #0]
   271e8:	2802      	cmp	r0, #2
   271ea:	d00c      	beq.n	27206 <_ZN20complex_dynamic_type3app17heb997dde41f6ce9bE+0xe6>
   271ec:	2803      	cmp	r0, #3
   271ee:	d105      	bne.n	271fc <_ZN20complex_dynamic_type3app17heb997dde41f6ce9bE+0xdc>
   271f0:	481e      	ldr	r0, [pc, #120]	@ (2726c <_ZN20complex_dynamic_type3app17heb997dde41f6ce9bE+0x14c>)
   271f2:	2103      	movs	r1, #3
   271f4:	2200      	movs	r2, #0
   271f6:	4613      	mov	r3, r2
   271f8:	df03      	svc	3
   271fa:	e004      	b.n	27206 <_ZN20complex_dynamic_type3app17heb997dde41f6ce9bE+0xe6>
   271fc:	481b      	ldr	r0, [pc, #108]	@ (2726c <_ZN20complex_dynamic_type3app17heb997dde41f6ce9bE+0x14c>)
   271fe:	2103      	movs	r1, #3
   27200:	2200      	movs	r2, #0
   27202:	4613      	mov	r3, r2
   27204:	df04      	svc	4
   27206:	a805      	add	r0, sp, #20
   27208:	9901      	ldr	r1, [sp, #4]
   2720a:	7001      	strb	r1, [r0, #0]
   2720c:	a80f      	add	r0, sp, #60	@ 0x3c
   2720e:	7800      	ldrb	r0, [r0, #0]
   27210:	2804      	cmp	r0, #4
   27212:	d007      	beq.n	27224 <_ZN20complex_dynamic_type3app17heb997dde41f6ce9bE+0x104>
   27214:	2803      	cmp	r0, #3
   27216:	d11d      	bne.n	27254 <_ZN20complex_dynamic_type3app17heb997dde41f6ce9bE+0x134>
   27218:	4814      	ldr	r0, [pc, #80]	@ (2726c <_ZN20complex_dynamic_type3app17heb997dde41f6ce9bE+0x14c>)
   2721a:	2103      	movs	r1, #3
   2721c:	2200      	movs	r2, #0
   2721e:	4613      	mov	r3, r2
   27220:	df03      	svc	3
   27222:	e004      	b.n	2722e <_ZN20complex_dynamic_type3app17heb997dde41f6ce9bE+0x10e>
   27224:	4811      	ldr	r0, [pc, #68]	@ (2726c <_ZN20complex_dynamic_type3app17heb997dde41f6ce9bE+0x14c>)
   27226:	2103      	movs	r1, #3
   27228:	2200      	movs	r2, #0
   2722a:	4613      	mov	r3, r2
   2722c:	df04      	svc	4
   2722e:	a805      	add	r0, sp, #20
   27230:	7804      	ldrb	r4, [r0, #0]
   27232:	1c68      	adds	r0, r5, #1
   27234:	221e      	movs	r2, #30
   27236:	9902      	ldr	r1, [sp, #8]
   27238:	f003 ff66 	bl	2b108 <__aeabi_memcpy>
   2723c:	702e      	strb	r6, [r5, #0]
   2723e:	2c02      	cmp	r4, #2
   27240:	d006      	beq.n	27250 <_ZN20complex_dynamic_type3app17heb997dde41f6ce9bE+0x130>
   27242:	480a      	ldr	r0, [pc, #40]	@ (2726c <_ZN20complex_dynamic_type3app17heb997dde41f6ce9bE+0x14c>)
   27244:	2103      	movs	r1, #3
   27246:	2200      	movs	r2, #0
   27248:	4613      	mov	r3, r2
   2724a:	2c04      	cmp	r4, #4
   2724c:	d10a      	bne.n	27264 <_ZN20complex_dynamic_type3app17heb997dde41f6ce9bE+0x144>
   2724e:	df04      	svc	4
   27250:	b017      	add	sp, #92	@ 0x5c
   27252:	bdf0      	pop	{r4, r5, r6, r7, pc}
   27254:	1c68      	adds	r0, r5, #1
   27256:	221e      	movs	r2, #30
   27258:	9902      	ldr	r1, [sp, #8]
   2725a:	f003 ff55 	bl	2b108 <__aeabi_memcpy>
   2725e:	702e      	strb	r6, [r5, #0]
   27260:	b017      	add	sp, #92	@ 0x5c
   27262:	bdf0      	pop	{r4, r5, r6, r7, pc}
   27264:	df03      	svc	3
   27266:	b017      	add	sp, #92	@ 0x5c
   27268:	bdf0      	pop	{r4, r5, r6, r7, pc}
   2726a:	46c0      	nop			@ (mov r8, r8)
   2726c:	000010e2 	.word	0x000010e2

00027270 <_ZN20complex_dynamic_type3app17hec2e958fc06272d4E>:
   27270:	b5f0      	push	{r4, r5, r6, r7, lr}
   27272:	af03      	add	r7, sp, #12
   27274:	b0a7      	sub	sp, #156	@ 0x9c
   27276:	9003      	str	r0, [sp, #12]
   27278:	a804      	add	r0, sp, #16
   2727a:	2402      	movs	r4, #2
   2727c:	7004      	strb	r4, [r0, #0]
   2727e:	1c46      	adds	r6, r0, #1
   27280:	2263      	movs	r2, #99	@ 0x63
   27282:	9202      	str	r2, [sp, #8]
   27284:	4630      	mov	r0, r6
   27286:	f003 ff3f 	bl	2b108 <__aeabi_memcpy>
   2728a:	ad1d      	add	r5, sp, #116	@ 0x74
   2728c:	1c68      	adds	r0, r5, #1
   2728e:	2127      	movs	r1, #39	@ 0x27
   27290:	9001      	str	r0, [sp, #4]
   27292:	f003 fd79 	bl	2ad88 <__aeabi_memclr>
   27296:	9400      	str	r4, [sp, #0]
   27298:	702c      	strb	r4, [r5, #0]
   2729a:	4848      	ldr	r0, [pc, #288]	@ (273bc <_ZN20complex_dynamic_type3app17hec2e958fc06272d4E+0x14c>)
   2729c:	2107      	movs	r1, #7
   2729e:	4632      	mov	r2, r6
   272a0:	9b02      	ldr	r3, [sp, #8]
   272a2:	df04      	svc	4
   272a4:	2802      	cmp	r0, #2
   272a6:	d104      	bne.n	272b2 <_ZN20complex_dynamic_type3app17hec2e958fc06272d4E+0x42>
   272a8:	2001      	movs	r0, #1
   272aa:	9a03      	ldr	r2, [sp, #12]
   272ac:	7010      	strb	r0, [r2, #0]
   272ae:	6051      	str	r1, [r2, #4]
   272b0:	e02d      	b.n	2730e <_ZN20complex_dynamic_type3app17hec2e958fc06272d4E+0x9e>
   272b2:	9d03      	ldr	r5, [sp, #12]
   272b4:	a804      	add	r0, sp, #16
   272b6:	2104      	movs	r1, #4
   272b8:	7001      	strb	r1, [r0, #0]
   272ba:	4840      	ldr	r0, [pc, #256]	@ (273bc <_ZN20complex_dynamic_type3app17hec2e958fc06272d4E+0x14c>)
   272bc:	2100      	movs	r1, #0
   272be:	2327      	movs	r3, #39	@ 0x27
   272c0:	9c01      	ldr	r4, [sp, #4]
   272c2:	4622      	mov	r2, r4
   272c4:	df03      	svc	3
   272c6:	2802      	cmp	r0, #2
   272c8:	d10e      	bne.n	272e8 <_ZN20complex_dynamic_type3app17hec2e958fc06272d4E+0x78>
   272ca:	2001      	movs	r0, #1
   272cc:	7028      	strb	r0, [r5, #0]
   272ce:	6069      	str	r1, [r5, #4]
   272d0:	a81d      	add	r0, sp, #116	@ 0x74
   272d2:	7800      	ldrb	r0, [r0, #0]
   272d4:	2802      	cmp	r0, #2
   272d6:	d01a      	beq.n	2730e <_ZN20complex_dynamic_type3app17hec2e958fc06272d4E+0x9e>
   272d8:	2803      	cmp	r0, #3
   272da:	d013      	beq.n	27304 <_ZN20complex_dynamic_type3app17hec2e958fc06272d4E+0x94>
   272dc:	4837      	ldr	r0, [pc, #220]	@ (273bc <_ZN20complex_dynamic_type3app17hec2e958fc06272d4E+0x14c>)
   272de:	2100      	movs	r1, #0
   272e0:	460a      	mov	r2, r1
   272e2:	460b      	mov	r3, r1
   272e4:	df04      	svc	4
   272e6:	e012      	b.n	2730e <_ZN20complex_dynamic_type3app17hec2e958fc06272d4E+0x9e>
   272e8:	a81d      	add	r0, sp, #116	@ 0x74
   272ea:	2103      	movs	r1, #3
   272ec:	7001      	strb	r1, [r0, #0]
   272ee:	4833      	ldr	r0, [pc, #204]	@ (273bc <_ZN20complex_dynamic_type3app17hec2e958fc06272d4E+0x14c>)
   272f0:	2107      	movs	r1, #7
   272f2:	2600      	movs	r6, #0
   272f4:	4632      	mov	r2, r6
   272f6:	4633      	mov	r3, r6
   272f8:	df02      	svc	2
   272fa:	2880      	cmp	r0, #128	@ 0x80
   272fc:	d21b      	bcs.n	27336 <_ZN20complex_dynamic_type3app17hec2e958fc06272d4E+0xc6>
   272fe:	2001      	movs	r0, #1
   27300:	7028      	strb	r0, [r5, #0]
   27302:	6069      	str	r1, [r5, #4]
   27304:	482d      	ldr	r0, [pc, #180]	@ (273bc <_ZN20complex_dynamic_type3app17hec2e958fc06272d4E+0x14c>)
   27306:	2100      	movs	r1, #0
   27308:	460a      	mov	r2, r1
   2730a:	460b      	mov	r3, r1
   2730c:	df03      	svc	3
   2730e:	a804      	add	r0, sp, #16
   27310:	7800      	ldrb	r0, [r0, #0]
   27312:	2802      	cmp	r0, #2
   27314:	d045      	beq.n	273a2 <_ZN20complex_dynamic_type3app17hec2e958fc06272d4E+0x132>
   27316:	2804      	cmp	r0, #4
   27318:	d106      	bne.n	27328 <_ZN20complex_dynamic_type3app17hec2e958fc06272d4E+0xb8>
   2731a:	4828      	ldr	r0, [pc, #160]	@ (273bc <_ZN20complex_dynamic_type3app17hec2e958fc06272d4E+0x14c>)
   2731c:	2107      	movs	r1, #7
   2731e:	2200      	movs	r2, #0
   27320:	4613      	mov	r3, r2
   27322:	df04      	svc	4
   27324:	b027      	add	sp, #156	@ 0x9c
   27326:	bdf0      	pop	{r4, r5, r6, r7, pc}
   27328:	4824      	ldr	r0, [pc, #144]	@ (273bc <_ZN20complex_dynamic_type3app17hec2e958fc06272d4E+0x14c>)
   2732a:	2107      	movs	r1, #7
   2732c:	2200      	movs	r2, #0
   2732e:	4613      	mov	r3, r2
   27330:	df03      	svc	3
   27332:	b027      	add	sp, #156	@ 0x9c
   27334:	bdf0      	pop	{r4, r5, r6, r7, pc}
   27336:	a804      	add	r0, sp, #16
   27338:	7800      	ldrb	r0, [r0, #0]
   2733a:	2802      	cmp	r0, #2
   2733c:	d00c      	beq.n	27358 <_ZN20complex_dynamic_type3app17hec2e958fc06272d4E+0xe8>
   2733e:	2803      	cmp	r0, #3
   27340:	d105      	bne.n	2734e <_ZN20complex_dynamic_type3app17hec2e958fc06272d4E+0xde>
   27342:	481e      	ldr	r0, [pc, #120]	@ (273bc <_ZN20complex_dynamic_type3app17hec2e958fc06272d4E+0x14c>)
   27344:	2107      	movs	r1, #7
   27346:	2200      	movs	r2, #0
   27348:	4613      	mov	r3, r2
   2734a:	df03      	svc	3
   2734c:	e004      	b.n	27358 <_ZN20complex_dynamic_type3app17hec2e958fc06272d4E+0xe8>
   2734e:	481b      	ldr	r0, [pc, #108]	@ (273bc <_ZN20complex_dynamic_type3app17hec2e958fc06272d4E+0x14c>)
   27350:	2107      	movs	r1, #7
   27352:	2200      	movs	r2, #0
   27354:	4613      	mov	r3, r2
   27356:	df04      	svc	4
   27358:	a804      	add	r0, sp, #16
   2735a:	9900      	ldr	r1, [sp, #0]
   2735c:	7001      	strb	r1, [r0, #0]
   2735e:	a81d      	add	r0, sp, #116	@ 0x74
   27360:	7800      	ldrb	r0, [r0, #0]
   27362:	2804      	cmp	r0, #4
   27364:	d007      	beq.n	27376 <_ZN20complex_dynamic_type3app17hec2e958fc06272d4E+0x106>
   27366:	2803      	cmp	r0, #3
   27368:	d11d      	bne.n	273a6 <_ZN20complex_dynamic_type3app17hec2e958fc06272d4E+0x136>
   2736a:	4814      	ldr	r0, [pc, #80]	@ (273bc <_ZN20complex_dynamic_type3app17hec2e958fc06272d4E+0x14c>)
   2736c:	2100      	movs	r1, #0
   2736e:	460a      	mov	r2, r1
   27370:	460b      	mov	r3, r1
   27372:	df03      	svc	3
   27374:	e004      	b.n	27380 <_ZN20complex_dynamic_type3app17hec2e958fc06272d4E+0x110>
   27376:	4811      	ldr	r0, [pc, #68]	@ (273bc <_ZN20complex_dynamic_type3app17hec2e958fc06272d4E+0x14c>)
   27378:	2100      	movs	r1, #0
   2737a:	460a      	mov	r2, r1
   2737c:	460b      	mov	r3, r1
   2737e:	df04      	svc	4
   27380:	a804      	add	r0, sp, #16
   27382:	7804      	ldrb	r4, [r0, #0]
   27384:	1c68      	adds	r0, r5, #1
   27386:	2227      	movs	r2, #39	@ 0x27
   27388:	9901      	ldr	r1, [sp, #4]
   2738a:	f003 febd 	bl	2b108 <__aeabi_memcpy>
   2738e:	702e      	strb	r6, [r5, #0]
   27390:	2c02      	cmp	r4, #2
   27392:	d006      	beq.n	273a2 <_ZN20complex_dynamic_type3app17hec2e958fc06272d4E+0x132>
   27394:	4809      	ldr	r0, [pc, #36]	@ (273bc <_ZN20complex_dynamic_type3app17hec2e958fc06272d4E+0x14c>)
   27396:	2107      	movs	r1, #7
   27398:	2200      	movs	r2, #0
   2739a:	4613      	mov	r3, r2
   2739c:	2c04      	cmp	r4, #4
   2739e:	d10a      	bne.n	273b6 <_ZN20complex_dynamic_type3app17hec2e958fc06272d4E+0x146>
   273a0:	df04      	svc	4
   273a2:	b027      	add	sp, #156	@ 0x9c
   273a4:	bdf0      	pop	{r4, r5, r6, r7, pc}
   273a6:	1c68      	adds	r0, r5, #1
   273a8:	2227      	movs	r2, #39	@ 0x27
   273aa:	4621      	mov	r1, r4
   273ac:	f003 feac 	bl	2b108 <__aeabi_memcpy>
   273b0:	702e      	strb	r6, [r5, #0]
   273b2:	b027      	add	sp, #156	@ 0x9c
   273b4:	bdf0      	pop	{r4, r5, r6, r7, pc}
   273b6:	df03      	svc	3
   273b8:	b027      	add	sp, #156	@ 0x9c
   273ba:	bdf0      	pop	{r4, r5, r6, r7, pc}
   273bc:	00001e54 	.word	0x00001e54

000273c0 <_ZN20complex_dynamic_type3app17hec510210b10f1595E>:
   273c0:	b5f0      	push	{r4, r5, r6, r7, lr}
   273c2:	af03      	add	r7, sp, #12
   273c4:	b0ab      	sub	sp, #172	@ 0xac
   273c6:	9003      	str	r0, [sp, #12]
   273c8:	a804      	add	r0, sp, #16
   273ca:	2402      	movs	r4, #2
   273cc:	7004      	strb	r4, [r0, #0]
   273ce:	1c46      	adds	r6, r0, #1
   273d0:	223a      	movs	r2, #58	@ 0x3a
   273d2:	9202      	str	r2, [sp, #8]
   273d4:	4630      	mov	r0, r6
   273d6:	f003 fe97 	bl	2b108 <__aeabi_memcpy>
   273da:	ad13      	add	r5, sp, #76	@ 0x4c
   273dc:	1c68      	adds	r0, r5, #1
   273de:	215d      	movs	r1, #93	@ 0x5d
   273e0:	9001      	str	r0, [sp, #4]
   273e2:	f003 fcd1 	bl	2ad88 <__aeabi_memclr>
   273e6:	9400      	str	r4, [sp, #0]
   273e8:	702c      	strb	r4, [r5, #0]
   273ea:	4848      	ldr	r0, [pc, #288]	@ (2750c <_ZN20complex_dynamic_type3app17hec510210b10f1595E+0x14c>)
   273ec:	2100      	movs	r1, #0
   273ee:	4632      	mov	r2, r6
   273f0:	9b02      	ldr	r3, [sp, #8]
   273f2:	df04      	svc	4
   273f4:	2802      	cmp	r0, #2
   273f6:	d104      	bne.n	27402 <_ZN20complex_dynamic_type3app17hec510210b10f1595E+0x42>
   273f8:	2001      	movs	r0, #1
   273fa:	9a03      	ldr	r2, [sp, #12]
   273fc:	7010      	strb	r0, [r2, #0]
   273fe:	6051      	str	r1, [r2, #4]
   27400:	e02d      	b.n	2745e <_ZN20complex_dynamic_type3app17hec510210b10f1595E+0x9e>
   27402:	9d03      	ldr	r5, [sp, #12]
   27404:	a804      	add	r0, sp, #16
   27406:	2104      	movs	r1, #4
   27408:	7001      	strb	r1, [r0, #0]
   2740a:	4840      	ldr	r0, [pc, #256]	@ (2750c <_ZN20complex_dynamic_type3app17hec510210b10f1595E+0x14c>)
   2740c:	2105      	movs	r1, #5
   2740e:	235d      	movs	r3, #93	@ 0x5d
   27410:	9c01      	ldr	r4, [sp, #4]
   27412:	4622      	mov	r2, r4
   27414:	df03      	svc	3
   27416:	2802      	cmp	r0, #2
   27418:	d10e      	bne.n	27438 <_ZN20complex_dynamic_type3app17hec510210b10f1595E+0x78>
   2741a:	2001      	movs	r0, #1
   2741c:	7028      	strb	r0, [r5, #0]
   2741e:	6069      	str	r1, [r5, #4]
   27420:	a813      	add	r0, sp, #76	@ 0x4c
   27422:	7800      	ldrb	r0, [r0, #0]
   27424:	2802      	cmp	r0, #2
   27426:	d01a      	beq.n	2745e <_ZN20complex_dynamic_type3app17hec510210b10f1595E+0x9e>
   27428:	2803      	cmp	r0, #3
   2742a:	d013      	beq.n	27454 <_ZN20complex_dynamic_type3app17hec510210b10f1595E+0x94>
   2742c:	4837      	ldr	r0, [pc, #220]	@ (2750c <_ZN20complex_dynamic_type3app17hec510210b10f1595E+0x14c>)
   2742e:	2105      	movs	r1, #5
   27430:	2200      	movs	r2, #0
   27432:	4613      	mov	r3, r2
   27434:	df04      	svc	4
   27436:	e012      	b.n	2745e <_ZN20complex_dynamic_type3app17hec510210b10f1595E+0x9e>
   27438:	a813      	add	r0, sp, #76	@ 0x4c
   2743a:	2103      	movs	r1, #3
   2743c:	7001      	strb	r1, [r0, #0]
   2743e:	4833      	ldr	r0, [pc, #204]	@ (2750c <_ZN20complex_dynamic_type3app17hec510210b10f1595E+0x14c>)
   27440:	2205      	movs	r2, #5
   27442:	2600      	movs	r6, #0
   27444:	4631      	mov	r1, r6
   27446:	4633      	mov	r3, r6
   27448:	df02      	svc	2
   2744a:	2880      	cmp	r0, #128	@ 0x80
   2744c:	d21b      	bcs.n	27486 <_ZN20complex_dynamic_type3app17hec510210b10f1595E+0xc6>
   2744e:	2001      	movs	r0, #1
   27450:	7028      	strb	r0, [r5, #0]
   27452:	6069      	str	r1, [r5, #4]
   27454:	482d      	ldr	r0, [pc, #180]	@ (2750c <_ZN20complex_dynamic_type3app17hec510210b10f1595E+0x14c>)
   27456:	2105      	movs	r1, #5
   27458:	2200      	movs	r2, #0
   2745a:	4613      	mov	r3, r2
   2745c:	df03      	svc	3
   2745e:	a804      	add	r0, sp, #16
   27460:	7800      	ldrb	r0, [r0, #0]
   27462:	2802      	cmp	r0, #2
   27464:	d045      	beq.n	274f2 <_ZN20complex_dynamic_type3app17hec510210b10f1595E+0x132>
   27466:	2804      	cmp	r0, #4
   27468:	d106      	bne.n	27478 <_ZN20complex_dynamic_type3app17hec510210b10f1595E+0xb8>
   2746a:	4828      	ldr	r0, [pc, #160]	@ (2750c <_ZN20complex_dynamic_type3app17hec510210b10f1595E+0x14c>)
   2746c:	2100      	movs	r1, #0
   2746e:	460a      	mov	r2, r1
   27470:	460b      	mov	r3, r1
   27472:	df04      	svc	4
   27474:	b02b      	add	sp, #172	@ 0xac
   27476:	bdf0      	pop	{r4, r5, r6, r7, pc}
   27478:	4824      	ldr	r0, [pc, #144]	@ (2750c <_ZN20complex_dynamic_type3app17hec510210b10f1595E+0x14c>)
   2747a:	2100      	movs	r1, #0
   2747c:	460a      	mov	r2, r1
   2747e:	460b      	mov	r3, r1
   27480:	df03      	svc	3
   27482:	b02b      	add	sp, #172	@ 0xac
   27484:	bdf0      	pop	{r4, r5, r6, r7, pc}
   27486:	a804      	add	r0, sp, #16
   27488:	7800      	ldrb	r0, [r0, #0]
   2748a:	2802      	cmp	r0, #2
   2748c:	d00c      	beq.n	274a8 <_ZN20complex_dynamic_type3app17hec510210b10f1595E+0xe8>
   2748e:	2803      	cmp	r0, #3
   27490:	d105      	bne.n	2749e <_ZN20complex_dynamic_type3app17hec510210b10f1595E+0xde>
   27492:	481e      	ldr	r0, [pc, #120]	@ (2750c <_ZN20complex_dynamic_type3app17hec510210b10f1595E+0x14c>)
   27494:	2100      	movs	r1, #0
   27496:	460a      	mov	r2, r1
   27498:	460b      	mov	r3, r1
   2749a:	df03      	svc	3
   2749c:	e004      	b.n	274a8 <_ZN20complex_dynamic_type3app17hec510210b10f1595E+0xe8>
   2749e:	481b      	ldr	r0, [pc, #108]	@ (2750c <_ZN20complex_dynamic_type3app17hec510210b10f1595E+0x14c>)
   274a0:	2100      	movs	r1, #0
   274a2:	460a      	mov	r2, r1
   274a4:	460b      	mov	r3, r1
   274a6:	df04      	svc	4
   274a8:	a804      	add	r0, sp, #16
   274aa:	9900      	ldr	r1, [sp, #0]
   274ac:	7001      	strb	r1, [r0, #0]
   274ae:	a813      	add	r0, sp, #76	@ 0x4c
   274b0:	7800      	ldrb	r0, [r0, #0]
   274b2:	2804      	cmp	r0, #4
   274b4:	d007      	beq.n	274c6 <_ZN20complex_dynamic_type3app17hec510210b10f1595E+0x106>
   274b6:	2803      	cmp	r0, #3
   274b8:	d11d      	bne.n	274f6 <_ZN20complex_dynamic_type3app17hec510210b10f1595E+0x136>
   274ba:	4814      	ldr	r0, [pc, #80]	@ (2750c <_ZN20complex_dynamic_type3app17hec510210b10f1595E+0x14c>)
   274bc:	2105      	movs	r1, #5
   274be:	2200      	movs	r2, #0
   274c0:	4613      	mov	r3, r2
   274c2:	df03      	svc	3
   274c4:	e004      	b.n	274d0 <_ZN20complex_dynamic_type3app17hec510210b10f1595E+0x110>
   274c6:	4811      	ldr	r0, [pc, #68]	@ (2750c <_ZN20complex_dynamic_type3app17hec510210b10f1595E+0x14c>)
   274c8:	2105      	movs	r1, #5
   274ca:	2200      	movs	r2, #0
   274cc:	4613      	mov	r3, r2
   274ce:	df04      	svc	4
   274d0:	a804      	add	r0, sp, #16
   274d2:	7804      	ldrb	r4, [r0, #0]
   274d4:	1c68      	adds	r0, r5, #1
   274d6:	225d      	movs	r2, #93	@ 0x5d
   274d8:	9901      	ldr	r1, [sp, #4]
   274da:	f003 fe15 	bl	2b108 <__aeabi_memcpy>
   274de:	702e      	strb	r6, [r5, #0]
   274e0:	2c02      	cmp	r4, #2
   274e2:	d006      	beq.n	274f2 <_ZN20complex_dynamic_type3app17hec510210b10f1595E+0x132>
   274e4:	4809      	ldr	r0, [pc, #36]	@ (2750c <_ZN20complex_dynamic_type3app17hec510210b10f1595E+0x14c>)
   274e6:	2100      	movs	r1, #0
   274e8:	460a      	mov	r2, r1
   274ea:	460b      	mov	r3, r1
   274ec:	2c04      	cmp	r4, #4
   274ee:	d10a      	bne.n	27506 <_ZN20complex_dynamic_type3app17hec510210b10f1595E+0x146>
   274f0:	df04      	svc	4
   274f2:	b02b      	add	sp, #172	@ 0xac
   274f4:	bdf0      	pop	{r4, r5, r6, r7, pc}
   274f6:	1c68      	adds	r0, r5, #1
   274f8:	225d      	movs	r2, #93	@ 0x5d
   274fa:	4621      	mov	r1, r4
   274fc:	f003 fe04 	bl	2b108 <__aeabi_memcpy>
   27500:	702e      	strb	r6, [r5, #0]
   27502:	b02b      	add	sp, #172	@ 0xac
   27504:	bdf0      	pop	{r4, r5, r6, r7, pc}
   27506:	df03      	svc	3
   27508:	b02b      	add	sp, #172	@ 0xac
   2750a:	bdf0      	pop	{r4, r5, r6, r7, pc}
   2750c:	000014a4 	.word	0x000014a4

00027510 <_ZN20complex_dynamic_type3app17hf18ba5d2e1eb0169E>:
   27510:	b5f0      	push	{r4, r5, r6, r7, lr}
   27512:	af03      	add	r7, sp, #12
   27514:	b0af      	sub	sp, #188	@ 0xbc
   27516:	9004      	str	r0, [sp, #16]
   27518:	a805      	add	r0, sp, #20
   2751a:	2402      	movs	r4, #2
   2751c:	7004      	strb	r4, [r0, #0]
   2751e:	1c46      	adds	r6, r0, #1
   27520:	2259      	movs	r2, #89	@ 0x59
   27522:	9203      	str	r2, [sp, #12]
   27524:	4630      	mov	r0, r6
   27526:	f003 fdef 	bl	2b108 <__aeabi_memcpy>
   2752a:	ad1c      	add	r5, sp, #112	@ 0x70
   2752c:	1c68      	adds	r0, r5, #1
   2752e:	214a      	movs	r1, #74	@ 0x4a
   27530:	9002      	str	r0, [sp, #8]
   27532:	f003 fc29 	bl	2ad88 <__aeabi_memclr>
   27536:	9401      	str	r4, [sp, #4]
   27538:	702c      	strb	r4, [r5, #0]
   2753a:	4848      	ldr	r0, [pc, #288]	@ (2765c <_ZN20complex_dynamic_type3app17hf18ba5d2e1eb0169E+0x14c>)
   2753c:	2100      	movs	r1, #0
   2753e:	4632      	mov	r2, r6
   27540:	9b03      	ldr	r3, [sp, #12]
   27542:	df04      	svc	4
   27544:	2802      	cmp	r0, #2
   27546:	d104      	bne.n	27552 <_ZN20complex_dynamic_type3app17hf18ba5d2e1eb0169E+0x42>
   27548:	2001      	movs	r0, #1
   2754a:	9a04      	ldr	r2, [sp, #16]
   2754c:	7010      	strb	r0, [r2, #0]
   2754e:	6051      	str	r1, [r2, #4]
   27550:	e02c      	b.n	275ac <_ZN20complex_dynamic_type3app17hf18ba5d2e1eb0169E+0x9c>
   27552:	9d04      	ldr	r5, [sp, #16]
   27554:	a805      	add	r0, sp, #20
   27556:	2104      	movs	r1, #4
   27558:	7001      	strb	r1, [r0, #0]
   2755a:	4840      	ldr	r0, [pc, #256]	@ (2765c <_ZN20complex_dynamic_type3app17hf18ba5d2e1eb0169E+0x14c>)
   2755c:	234a      	movs	r3, #74	@ 0x4a
   2755e:	9c02      	ldr	r4, [sp, #8]
   27560:	4622      	mov	r2, r4
   27562:	df03      	svc	3
   27564:	2802      	cmp	r0, #2
   27566:	d10e      	bne.n	27586 <_ZN20complex_dynamic_type3app17hf18ba5d2e1eb0169E+0x76>
   27568:	2001      	movs	r0, #1
   2756a:	7028      	strb	r0, [r5, #0]
   2756c:	6069      	str	r1, [r5, #4]
   2756e:	a81c      	add	r0, sp, #112	@ 0x70
   27570:	7800      	ldrb	r0, [r0, #0]
   27572:	2802      	cmp	r0, #2
   27574:	d01a      	beq.n	275ac <_ZN20complex_dynamic_type3app17hf18ba5d2e1eb0169E+0x9c>
   27576:	2803      	cmp	r0, #3
   27578:	d013      	beq.n	275a2 <_ZN20complex_dynamic_type3app17hf18ba5d2e1eb0169E+0x92>
   2757a:	4838      	ldr	r0, [pc, #224]	@ (2765c <_ZN20complex_dynamic_type3app17hf18ba5d2e1eb0169E+0x14c>)
   2757c:	2104      	movs	r1, #4
   2757e:	2200      	movs	r2, #0
   27580:	4613      	mov	r3, r2
   27582:	df04      	svc	4
   27584:	e012      	b.n	275ac <_ZN20complex_dynamic_type3app17hf18ba5d2e1eb0169E+0x9c>
   27586:	a81c      	add	r0, sp, #112	@ 0x70
   27588:	2103      	movs	r1, #3
   2758a:	7001      	strb	r1, [r0, #0]
   2758c:	4833      	ldr	r0, [pc, #204]	@ (2765c <_ZN20complex_dynamic_type3app17hf18ba5d2e1eb0169E+0x14c>)
   2758e:	2204      	movs	r2, #4
   27590:	2600      	movs	r6, #0
   27592:	4631      	mov	r1, r6
   27594:	4633      	mov	r3, r6
   27596:	df02      	svc	2
   27598:	2880      	cmp	r0, #128	@ 0x80
   2759a:	d21b      	bcs.n	275d4 <_ZN20complex_dynamic_type3app17hf18ba5d2e1eb0169E+0xc4>
   2759c:	2001      	movs	r0, #1
   2759e:	7028      	strb	r0, [r5, #0]
   275a0:	6069      	str	r1, [r5, #4]
   275a2:	482e      	ldr	r0, [pc, #184]	@ (2765c <_ZN20complex_dynamic_type3app17hf18ba5d2e1eb0169E+0x14c>)
   275a4:	2104      	movs	r1, #4
   275a6:	2200      	movs	r2, #0
   275a8:	4613      	mov	r3, r2
   275aa:	df03      	svc	3
   275ac:	a805      	add	r0, sp, #20
   275ae:	7800      	ldrb	r0, [r0, #0]
   275b0:	2802      	cmp	r0, #2
   275b2:	d045      	beq.n	27640 <_ZN20complex_dynamic_type3app17hf18ba5d2e1eb0169E+0x130>
   275b4:	2804      	cmp	r0, #4
   275b6:	d106      	bne.n	275c6 <_ZN20complex_dynamic_type3app17hf18ba5d2e1eb0169E+0xb6>
   275b8:	4828      	ldr	r0, [pc, #160]	@ (2765c <_ZN20complex_dynamic_type3app17hf18ba5d2e1eb0169E+0x14c>)
   275ba:	2100      	movs	r1, #0
   275bc:	460a      	mov	r2, r1
   275be:	460b      	mov	r3, r1
   275c0:	df04      	svc	4
   275c2:	b02f      	add	sp, #188	@ 0xbc
   275c4:	bdf0      	pop	{r4, r5, r6, r7, pc}
   275c6:	4825      	ldr	r0, [pc, #148]	@ (2765c <_ZN20complex_dynamic_type3app17hf18ba5d2e1eb0169E+0x14c>)
   275c8:	2100      	movs	r1, #0
   275ca:	460a      	mov	r2, r1
   275cc:	460b      	mov	r3, r1
   275ce:	df03      	svc	3
   275d0:	b02f      	add	sp, #188	@ 0xbc
   275d2:	bdf0      	pop	{r4, r5, r6, r7, pc}
   275d4:	a805      	add	r0, sp, #20
   275d6:	7800      	ldrb	r0, [r0, #0]
   275d8:	2802      	cmp	r0, #2
   275da:	d00c      	beq.n	275f6 <_ZN20complex_dynamic_type3app17hf18ba5d2e1eb0169E+0xe6>
   275dc:	2803      	cmp	r0, #3
   275de:	d105      	bne.n	275ec <_ZN20complex_dynamic_type3app17hf18ba5d2e1eb0169E+0xdc>
   275e0:	481e      	ldr	r0, [pc, #120]	@ (2765c <_ZN20complex_dynamic_type3app17hf18ba5d2e1eb0169E+0x14c>)
   275e2:	2100      	movs	r1, #0
   275e4:	460a      	mov	r2, r1
   275e6:	460b      	mov	r3, r1
   275e8:	df03      	svc	3
   275ea:	e004      	b.n	275f6 <_ZN20complex_dynamic_type3app17hf18ba5d2e1eb0169E+0xe6>
   275ec:	481b      	ldr	r0, [pc, #108]	@ (2765c <_ZN20complex_dynamic_type3app17hf18ba5d2e1eb0169E+0x14c>)
   275ee:	2100      	movs	r1, #0
   275f0:	460a      	mov	r2, r1
   275f2:	460b      	mov	r3, r1
   275f4:	df04      	svc	4
   275f6:	a805      	add	r0, sp, #20
   275f8:	9901      	ldr	r1, [sp, #4]
   275fa:	7001      	strb	r1, [r0, #0]
   275fc:	a81c      	add	r0, sp, #112	@ 0x70
   275fe:	7800      	ldrb	r0, [r0, #0]
   27600:	2804      	cmp	r0, #4
   27602:	d007      	beq.n	27614 <_ZN20complex_dynamic_type3app17hf18ba5d2e1eb0169E+0x104>
   27604:	2803      	cmp	r0, #3
   27606:	d11d      	bne.n	27644 <_ZN20complex_dynamic_type3app17hf18ba5d2e1eb0169E+0x134>
   27608:	4814      	ldr	r0, [pc, #80]	@ (2765c <_ZN20complex_dynamic_type3app17hf18ba5d2e1eb0169E+0x14c>)
   2760a:	2104      	movs	r1, #4
   2760c:	2200      	movs	r2, #0
   2760e:	4613      	mov	r3, r2
   27610:	df03      	svc	3
   27612:	e004      	b.n	2761e <_ZN20complex_dynamic_type3app17hf18ba5d2e1eb0169E+0x10e>
   27614:	4811      	ldr	r0, [pc, #68]	@ (2765c <_ZN20complex_dynamic_type3app17hf18ba5d2e1eb0169E+0x14c>)
   27616:	2104      	movs	r1, #4
   27618:	2200      	movs	r2, #0
   2761a:	4613      	mov	r3, r2
   2761c:	df04      	svc	4
   2761e:	a805      	add	r0, sp, #20
   27620:	7804      	ldrb	r4, [r0, #0]
   27622:	1c68      	adds	r0, r5, #1
   27624:	224a      	movs	r2, #74	@ 0x4a
   27626:	9902      	ldr	r1, [sp, #8]
   27628:	f003 fd6e 	bl	2b108 <__aeabi_memcpy>
   2762c:	702e      	strb	r6, [r5, #0]
   2762e:	2c02      	cmp	r4, #2
   27630:	d006      	beq.n	27640 <_ZN20complex_dynamic_type3app17hf18ba5d2e1eb0169E+0x130>
   27632:	480a      	ldr	r0, [pc, #40]	@ (2765c <_ZN20complex_dynamic_type3app17hf18ba5d2e1eb0169E+0x14c>)
   27634:	2100      	movs	r1, #0
   27636:	460a      	mov	r2, r1
   27638:	460b      	mov	r3, r1
   2763a:	2c04      	cmp	r4, #4
   2763c:	d10a      	bne.n	27654 <_ZN20complex_dynamic_type3app17hf18ba5d2e1eb0169E+0x144>
   2763e:	df04      	svc	4
   27640:	b02f      	add	sp, #188	@ 0xbc
   27642:	bdf0      	pop	{r4, r5, r6, r7, pc}
   27644:	1c68      	adds	r0, r5, #1
   27646:	224a      	movs	r2, #74	@ 0x4a
   27648:	4621      	mov	r1, r4
   2764a:	f003 fd5d 	bl	2b108 <__aeabi_memcpy>
   2764e:	702e      	strb	r6, [r5, #0]
   27650:	b02f      	add	sp, #188	@ 0xbc
   27652:	bdf0      	pop	{r4, r5, r6, r7, pc}
   27654:	df03      	svc	3
   27656:	b02f      	add	sp, #188	@ 0xbc
   27658:	bdf0      	pop	{r4, r5, r6, r7, pc}
   2765a:	46c0      	nop			@ (mov r8, r8)
   2765c:	00001484 	.word	0x00001484

00027660 <_ZN20complex_dynamic_type3app17hf2e2720825f11730E>:
   27660:	b5f0      	push	{r4, r5, r6, r7, lr}
   27662:	af03      	add	r7, sp, #12
   27664:	b091      	sub	sp, #68	@ 0x44
   27666:	9003      	str	r0, [sp, #12]
   27668:	a804      	add	r0, sp, #16
   2766a:	2402      	movs	r4, #2
   2766c:	7004      	strb	r4, [r0, #0]
   2766e:	1c46      	adds	r6, r0, #1
   27670:	220d      	movs	r2, #13
   27672:	9202      	str	r2, [sp, #8]
   27674:	4630      	mov	r0, r6
   27676:	f003 fd47 	bl	2b108 <__aeabi_memcpy>
   2767a:	ad08      	add	r5, sp, #32
   2767c:	1c68      	adds	r0, r5, #1
   2767e:	2121      	movs	r1, #33	@ 0x21
   27680:	9001      	str	r0, [sp, #4]
   27682:	f003 fb81 	bl	2ad88 <__aeabi_memclr>
   27686:	9400      	str	r4, [sp, #0]
   27688:	702c      	strb	r4, [r5, #0]
   2768a:	4848      	ldr	r0, [pc, #288]	@ (277ac <_ZN20complex_dynamic_type3app17hf2e2720825f11730E+0x14c>)
   2768c:	2100      	movs	r1, #0
   2768e:	4632      	mov	r2, r6
   27690:	9b02      	ldr	r3, [sp, #8]
   27692:	df04      	svc	4
   27694:	2802      	cmp	r0, #2
   27696:	d104      	bne.n	276a2 <_ZN20complex_dynamic_type3app17hf2e2720825f11730E+0x42>
   27698:	2001      	movs	r0, #1
   2769a:	9a03      	ldr	r2, [sp, #12]
   2769c:	7010      	strb	r0, [r2, #0]
   2769e:	6051      	str	r1, [r2, #4]
   276a0:	e02d      	b.n	276fe <_ZN20complex_dynamic_type3app17hf2e2720825f11730E+0x9e>
   276a2:	9d03      	ldr	r5, [sp, #12]
   276a4:	a804      	add	r0, sp, #16
   276a6:	2104      	movs	r1, #4
   276a8:	7001      	strb	r1, [r0, #0]
   276aa:	4840      	ldr	r0, [pc, #256]	@ (277ac <_ZN20complex_dynamic_type3app17hf2e2720825f11730E+0x14c>)
   276ac:	2100      	movs	r1, #0
   276ae:	2321      	movs	r3, #33	@ 0x21
   276b0:	9c01      	ldr	r4, [sp, #4]
   276b2:	4622      	mov	r2, r4
   276b4:	df03      	svc	3
   276b6:	2802      	cmp	r0, #2
   276b8:	d10e      	bne.n	276d8 <_ZN20complex_dynamic_type3app17hf2e2720825f11730E+0x78>
   276ba:	2001      	movs	r0, #1
   276bc:	7028      	strb	r0, [r5, #0]
   276be:	6069      	str	r1, [r5, #4]
   276c0:	a808      	add	r0, sp, #32
   276c2:	7800      	ldrb	r0, [r0, #0]
   276c4:	2802      	cmp	r0, #2
   276c6:	d01a      	beq.n	276fe <_ZN20complex_dynamic_type3app17hf2e2720825f11730E+0x9e>
   276c8:	2803      	cmp	r0, #3
   276ca:	d013      	beq.n	276f4 <_ZN20complex_dynamic_type3app17hf2e2720825f11730E+0x94>
   276cc:	4837      	ldr	r0, [pc, #220]	@ (277ac <_ZN20complex_dynamic_type3app17hf2e2720825f11730E+0x14c>)
   276ce:	2100      	movs	r1, #0
   276d0:	460a      	mov	r2, r1
   276d2:	460b      	mov	r3, r1
   276d4:	df04      	svc	4
   276d6:	e012      	b.n	276fe <_ZN20complex_dynamic_type3app17hf2e2720825f11730E+0x9e>
   276d8:	a808      	add	r0, sp, #32
   276da:	2103      	movs	r1, #3
   276dc:	7001      	strb	r1, [r0, #0]
   276de:	4833      	ldr	r0, [pc, #204]	@ (277ac <_ZN20complex_dynamic_type3app17hf2e2720825f11730E+0x14c>)
   276e0:	2600      	movs	r6, #0
   276e2:	4631      	mov	r1, r6
   276e4:	4632      	mov	r2, r6
   276e6:	4633      	mov	r3, r6
   276e8:	df02      	svc	2
   276ea:	2880      	cmp	r0, #128	@ 0x80
   276ec:	d21b      	bcs.n	27726 <_ZN20complex_dynamic_type3app17hf2e2720825f11730E+0xc6>
   276ee:	2001      	movs	r0, #1
   276f0:	7028      	strb	r0, [r5, #0]
   276f2:	6069      	str	r1, [r5, #4]
   276f4:	482d      	ldr	r0, [pc, #180]	@ (277ac <_ZN20complex_dynamic_type3app17hf2e2720825f11730E+0x14c>)
   276f6:	2100      	movs	r1, #0
   276f8:	460a      	mov	r2, r1
   276fa:	460b      	mov	r3, r1
   276fc:	df03      	svc	3
   276fe:	a804      	add	r0, sp, #16
   27700:	7800      	ldrb	r0, [r0, #0]
   27702:	2802      	cmp	r0, #2
   27704:	d045      	beq.n	27792 <_ZN20complex_dynamic_type3app17hf2e2720825f11730E+0x132>
   27706:	2804      	cmp	r0, #4
   27708:	d106      	bne.n	27718 <_ZN20complex_dynamic_type3app17hf2e2720825f11730E+0xb8>
   2770a:	4828      	ldr	r0, [pc, #160]	@ (277ac <_ZN20complex_dynamic_type3app17hf2e2720825f11730E+0x14c>)
   2770c:	2100      	movs	r1, #0
   2770e:	460a      	mov	r2, r1
   27710:	460b      	mov	r3, r1
   27712:	df04      	svc	4
   27714:	b011      	add	sp, #68	@ 0x44
   27716:	bdf0      	pop	{r4, r5, r6, r7, pc}
   27718:	4824      	ldr	r0, [pc, #144]	@ (277ac <_ZN20complex_dynamic_type3app17hf2e2720825f11730E+0x14c>)
   2771a:	2100      	movs	r1, #0
   2771c:	460a      	mov	r2, r1
   2771e:	460b      	mov	r3, r1
   27720:	df03      	svc	3
   27722:	b011      	add	sp, #68	@ 0x44
   27724:	bdf0      	pop	{r4, r5, r6, r7, pc}
   27726:	a804      	add	r0, sp, #16
   27728:	7800      	ldrb	r0, [r0, #0]
   2772a:	2802      	cmp	r0, #2
   2772c:	d00c      	beq.n	27748 <_ZN20complex_dynamic_type3app17hf2e2720825f11730E+0xe8>
   2772e:	2803      	cmp	r0, #3
   27730:	d105      	bne.n	2773e <_ZN20complex_dynamic_type3app17hf2e2720825f11730E+0xde>
   27732:	481e      	ldr	r0, [pc, #120]	@ (277ac <_ZN20complex_dynamic_type3app17hf2e2720825f11730E+0x14c>)
   27734:	2100      	movs	r1, #0
   27736:	460a      	mov	r2, r1
   27738:	460b      	mov	r3, r1
   2773a:	df03      	svc	3
   2773c:	e004      	b.n	27748 <_ZN20complex_dynamic_type3app17hf2e2720825f11730E+0xe8>
   2773e:	481b      	ldr	r0, [pc, #108]	@ (277ac <_ZN20complex_dynamic_type3app17hf2e2720825f11730E+0x14c>)
   27740:	2100      	movs	r1, #0
   27742:	460a      	mov	r2, r1
   27744:	460b      	mov	r3, r1
   27746:	df04      	svc	4
   27748:	a804      	add	r0, sp, #16
   2774a:	9900      	ldr	r1, [sp, #0]
   2774c:	7001      	strb	r1, [r0, #0]
   2774e:	a808      	add	r0, sp, #32
   27750:	7800      	ldrb	r0, [r0, #0]
   27752:	2804      	cmp	r0, #4
   27754:	d007      	beq.n	27766 <_ZN20complex_dynamic_type3app17hf2e2720825f11730E+0x106>
   27756:	2803      	cmp	r0, #3
   27758:	d11d      	bne.n	27796 <_ZN20complex_dynamic_type3app17hf2e2720825f11730E+0x136>
   2775a:	4814      	ldr	r0, [pc, #80]	@ (277ac <_ZN20complex_dynamic_type3app17hf2e2720825f11730E+0x14c>)
   2775c:	2100      	movs	r1, #0
   2775e:	460a      	mov	r2, r1
   27760:	460b      	mov	r3, r1
   27762:	df03      	svc	3
   27764:	e004      	b.n	27770 <_ZN20complex_dynamic_type3app17hf2e2720825f11730E+0x110>
   27766:	4811      	ldr	r0, [pc, #68]	@ (277ac <_ZN20complex_dynamic_type3app17hf2e2720825f11730E+0x14c>)
   27768:	2100      	movs	r1, #0
   2776a:	460a      	mov	r2, r1
   2776c:	460b      	mov	r3, r1
   2776e:	df04      	svc	4
   27770:	a804      	add	r0, sp, #16
   27772:	7804      	ldrb	r4, [r0, #0]
   27774:	1c68      	adds	r0, r5, #1
   27776:	2221      	movs	r2, #33	@ 0x21
   27778:	9901      	ldr	r1, [sp, #4]
   2777a:	f003 fcc5 	bl	2b108 <__aeabi_memcpy>
   2777e:	702e      	strb	r6, [r5, #0]
   27780:	2c02      	cmp	r4, #2
   27782:	d006      	beq.n	27792 <_ZN20complex_dynamic_type3app17hf2e2720825f11730E+0x132>
   27784:	4809      	ldr	r0, [pc, #36]	@ (277ac <_ZN20complex_dynamic_type3app17hf2e2720825f11730E+0x14c>)
   27786:	2100      	movs	r1, #0
   27788:	460a      	mov	r2, r1
   2778a:	460b      	mov	r3, r1
   2778c:	2c04      	cmp	r4, #4
   2778e:	d10a      	bne.n	277a6 <_ZN20complex_dynamic_type3app17hf2e2720825f11730E+0x146>
   27790:	df04      	svc	4
   27792:	b011      	add	sp, #68	@ 0x44
   27794:	bdf0      	pop	{r4, r5, r6, r7, pc}
   27796:	1c68      	adds	r0, r5, #1
   27798:	2221      	movs	r2, #33	@ 0x21
   2779a:	4621      	mov	r1, r4
   2779c:	f003 fcb4 	bl	2b108 <__aeabi_memcpy>
   277a0:	702e      	strb	r6, [r5, #0]
   277a2:	b011      	add	sp, #68	@ 0x44
   277a4:	bdf0      	pop	{r4, r5, r6, r7, pc}
   277a6:	df03      	svc	3
   277a8:	b011      	add	sp, #68	@ 0x44
   277aa:	bdf0      	pop	{r4, r5, r6, r7, pc}
   277ac:	000016b0 	.word	0x000016b0

000277b0 <_ZN20complex_dynamic_type3app17hf4c2c84542464893E>:
   277b0:	b5f0      	push	{r4, r5, r6, r7, lr}
   277b2:	af03      	add	r7, sp, #12
   277b4:	b09d      	sub	sp, #116	@ 0x74
   277b6:	9003      	str	r0, [sp, #12]
   277b8:	a804      	add	r0, sp, #16
   277ba:	2602      	movs	r6, #2
   277bc:	7006      	strb	r6, [r0, #0]
   277be:	1c40      	adds	r0, r0, #1
   277c0:	9002      	str	r0, [sp, #8]
   277c2:	2538      	movs	r5, #56	@ 0x38
   277c4:	462a      	mov	r2, r5
   277c6:	f003 fc9f 	bl	2b108 <__aeabi_memcpy>
   277ca:	ac13      	add	r4, sp, #76	@ 0x4c
   277cc:	1c60      	adds	r0, r4, #1
   277ce:	2127      	movs	r1, #39	@ 0x27
   277d0:	9001      	str	r0, [sp, #4]
   277d2:	f003 fad9 	bl	2ad88 <__aeabi_memclr>
   277d6:	7026      	strb	r6, [r4, #0]
   277d8:	484a      	ldr	r0, [pc, #296]	@ (27904 <_ZN20complex_dynamic_type3app17hf4c2c84542464893E+0x154>)
   277da:	4631      	mov	r1, r6
   277dc:	9a02      	ldr	r2, [sp, #8]
   277de:	462b      	mov	r3, r5
   277e0:	df04      	svc	4
   277e2:	2802      	cmp	r0, #2
   277e4:	d104      	bne.n	277f0 <_ZN20complex_dynamic_type3app17hf4c2c84542464893E+0x40>
   277e6:	2001      	movs	r0, #1
   277e8:	9a03      	ldr	r2, [sp, #12]
   277ea:	7010      	strb	r0, [r2, #0]
   277ec:	6051      	str	r1, [r2, #4]
   277ee:	e02e      	b.n	2784e <_ZN20complex_dynamic_type3app17hf4c2c84542464893E+0x9e>
   277f0:	9d03      	ldr	r5, [sp, #12]
   277f2:	a804      	add	r0, sp, #16
   277f4:	2104      	movs	r1, #4
   277f6:	7001      	strb	r1, [r0, #0]
   277f8:	4842      	ldr	r0, [pc, #264]	@ (27904 <_ZN20complex_dynamic_type3app17hf4c2c84542464893E+0x154>)
   277fa:	2108      	movs	r1, #8
   277fc:	2327      	movs	r3, #39	@ 0x27
   277fe:	9c01      	ldr	r4, [sp, #4]
   27800:	4622      	mov	r2, r4
   27802:	df03      	svc	3
   27804:	2802      	cmp	r0, #2
   27806:	d10e      	bne.n	27826 <_ZN20complex_dynamic_type3app17hf4c2c84542464893E+0x76>
   27808:	2001      	movs	r0, #1
   2780a:	7028      	strb	r0, [r5, #0]
   2780c:	6069      	str	r1, [r5, #4]
   2780e:	a813      	add	r0, sp, #76	@ 0x4c
   27810:	7800      	ldrb	r0, [r0, #0]
   27812:	2802      	cmp	r0, #2
   27814:	d01b      	beq.n	2784e <_ZN20complex_dynamic_type3app17hf4c2c84542464893E+0x9e>
   27816:	2803      	cmp	r0, #3
   27818:	d014      	beq.n	27844 <_ZN20complex_dynamic_type3app17hf4c2c84542464893E+0x94>
   2781a:	483a      	ldr	r0, [pc, #232]	@ (27904 <_ZN20complex_dynamic_type3app17hf4c2c84542464893E+0x154>)
   2781c:	2108      	movs	r1, #8
   2781e:	2200      	movs	r2, #0
   27820:	4613      	mov	r3, r2
   27822:	df04      	svc	4
   27824:	e013      	b.n	2784e <_ZN20complex_dynamic_type3app17hf4c2c84542464893E+0x9e>
   27826:	a813      	add	r0, sp, #76	@ 0x4c
   27828:	2103      	movs	r1, #3
   2782a:	7001      	strb	r1, [r0, #0]
   2782c:	4835      	ldr	r0, [pc, #212]	@ (27904 <_ZN20complex_dynamic_type3app17hf4c2c84542464893E+0x154>)
   2782e:	2602      	movs	r6, #2
   27830:	2208      	movs	r2, #8
   27832:	2300      	movs	r3, #0
   27834:	4631      	mov	r1, r6
   27836:	9302      	str	r3, [sp, #8]
   27838:	df02      	svc	2
   2783a:	2880      	cmp	r0, #128	@ 0x80
   2783c:	d21b      	bcs.n	27876 <_ZN20complex_dynamic_type3app17hf4c2c84542464893E+0xc6>
   2783e:	2001      	movs	r0, #1
   27840:	7028      	strb	r0, [r5, #0]
   27842:	6069      	str	r1, [r5, #4]
   27844:	482f      	ldr	r0, [pc, #188]	@ (27904 <_ZN20complex_dynamic_type3app17hf4c2c84542464893E+0x154>)
   27846:	2108      	movs	r1, #8
   27848:	2200      	movs	r2, #0
   2784a:	4613      	mov	r3, r2
   2784c:	df03      	svc	3
   2784e:	a804      	add	r0, sp, #16
   27850:	7800      	ldrb	r0, [r0, #0]
   27852:	2802      	cmp	r0, #2
   27854:	d047      	beq.n	278e6 <_ZN20complex_dynamic_type3app17hf4c2c84542464893E+0x136>
   27856:	2804      	cmp	r0, #4
   27858:	d106      	bne.n	27868 <_ZN20complex_dynamic_type3app17hf4c2c84542464893E+0xb8>
   2785a:	482a      	ldr	r0, [pc, #168]	@ (27904 <_ZN20complex_dynamic_type3app17hf4c2c84542464893E+0x154>)
   2785c:	2102      	movs	r1, #2
   2785e:	2200      	movs	r2, #0
   27860:	4613      	mov	r3, r2
   27862:	df04      	svc	4
   27864:	b01d      	add	sp, #116	@ 0x74
   27866:	bdf0      	pop	{r4, r5, r6, r7, pc}
   27868:	4826      	ldr	r0, [pc, #152]	@ (27904 <_ZN20complex_dynamic_type3app17hf4c2c84542464893E+0x154>)
   2786a:	2102      	movs	r1, #2
   2786c:	2200      	movs	r2, #0
   2786e:	4613      	mov	r3, r2
   27870:	df03      	svc	3
   27872:	b01d      	add	sp, #116	@ 0x74
   27874:	bdf0      	pop	{r4, r5, r6, r7, pc}
   27876:	a804      	add	r0, sp, #16
   27878:	7800      	ldrb	r0, [r0, #0]
   2787a:	2802      	cmp	r0, #2
   2787c:	d00c      	beq.n	27898 <_ZN20complex_dynamic_type3app17hf4c2c84542464893E+0xe8>
   2787e:	2803      	cmp	r0, #3
   27880:	d105      	bne.n	2788e <_ZN20complex_dynamic_type3app17hf4c2c84542464893E+0xde>
   27882:	4820      	ldr	r0, [pc, #128]	@ (27904 <_ZN20complex_dynamic_type3app17hf4c2c84542464893E+0x154>)
   27884:	2102      	movs	r1, #2
   27886:	2200      	movs	r2, #0
   27888:	4613      	mov	r3, r2
   2788a:	df03      	svc	3
   2788c:	e004      	b.n	27898 <_ZN20complex_dynamic_type3app17hf4c2c84542464893E+0xe8>
   2788e:	481d      	ldr	r0, [pc, #116]	@ (27904 <_ZN20complex_dynamic_type3app17hf4c2c84542464893E+0x154>)
   27890:	2102      	movs	r1, #2
   27892:	2200      	movs	r2, #0
   27894:	4613      	mov	r3, r2
   27896:	df04      	svc	4
   27898:	a804      	add	r0, sp, #16
   2789a:	7006      	strb	r6, [r0, #0]
   2789c:	a813      	add	r0, sp, #76	@ 0x4c
   2789e:	7800      	ldrb	r0, [r0, #0]
   278a0:	2804      	cmp	r0, #4
   278a2:	d008      	beq.n	278b6 <_ZN20complex_dynamic_type3app17hf4c2c84542464893E+0x106>
   278a4:	2803      	cmp	r0, #3
   278a6:	d120      	bne.n	278ea <_ZN20complex_dynamic_type3app17hf4c2c84542464893E+0x13a>
   278a8:	4626      	mov	r6, r4
   278aa:	4816      	ldr	r0, [pc, #88]	@ (27904 <_ZN20complex_dynamic_type3app17hf4c2c84542464893E+0x154>)
   278ac:	2108      	movs	r1, #8
   278ae:	2200      	movs	r2, #0
   278b0:	4613      	mov	r3, r2
   278b2:	df03      	svc	3
   278b4:	e005      	b.n	278c2 <_ZN20complex_dynamic_type3app17hf4c2c84542464893E+0x112>
   278b6:	4626      	mov	r6, r4
   278b8:	4812      	ldr	r0, [pc, #72]	@ (27904 <_ZN20complex_dynamic_type3app17hf4c2c84542464893E+0x154>)
   278ba:	2108      	movs	r1, #8
   278bc:	2200      	movs	r2, #0
   278be:	4613      	mov	r3, r2
   278c0:	df04      	svc	4
   278c2:	a804      	add	r0, sp, #16
   278c4:	7804      	ldrb	r4, [r0, #0]
   278c6:	1c68      	adds	r0, r5, #1
   278c8:	2227      	movs	r2, #39	@ 0x27
   278ca:	4631      	mov	r1, r6
   278cc:	f003 fc1c 	bl	2b108 <__aeabi_memcpy>
   278d0:	9802      	ldr	r0, [sp, #8]
   278d2:	7028      	strb	r0, [r5, #0]
   278d4:	2c02      	cmp	r4, #2
   278d6:	d006      	beq.n	278e6 <_ZN20complex_dynamic_type3app17hf4c2c84542464893E+0x136>
   278d8:	480a      	ldr	r0, [pc, #40]	@ (27904 <_ZN20complex_dynamic_type3app17hf4c2c84542464893E+0x154>)
   278da:	2102      	movs	r1, #2
   278dc:	2200      	movs	r2, #0
   278de:	4613      	mov	r3, r2
   278e0:	2c04      	cmp	r4, #4
   278e2:	d10b      	bne.n	278fc <_ZN20complex_dynamic_type3app17hf4c2c84542464893E+0x14c>
   278e4:	df04      	svc	4
   278e6:	b01d      	add	sp, #116	@ 0x74
   278e8:	bdf0      	pop	{r4, r5, r6, r7, pc}
   278ea:	1c68      	adds	r0, r5, #1
   278ec:	2227      	movs	r2, #39	@ 0x27
   278ee:	4621      	mov	r1, r4
   278f0:	f003 fc0a 	bl	2b108 <__aeabi_memcpy>
   278f4:	9802      	ldr	r0, [sp, #8]
   278f6:	7028      	strb	r0, [r5, #0]
   278f8:	b01d      	add	sp, #116	@ 0x74
   278fa:	bdf0      	pop	{r4, r5, r6, r7, pc}
   278fc:	df03      	svc	3
   278fe:	b01d      	add	sp, #116	@ 0x74
   27900:	bdf0      	pop	{r4, r5, r6, r7, pc}
   27902:	46c0      	nop			@ (mov r8, r8)
   27904:	00000e2b 	.word	0x00000e2b

00027908 <_ZN20complex_dynamic_type3app17hf505e81579c015a8E>:
   27908:	b5f0      	push	{r4, r5, r6, r7, lr}
   2790a:	af03      	add	r7, sp, #12
   2790c:	b099      	sub	sp, #100	@ 0x64
   2790e:	9003      	str	r0, [sp, #12]
   27910:	a804      	add	r0, sp, #16
   27912:	2402      	movs	r4, #2
   27914:	7004      	strb	r4, [r0, #0]
   27916:	1c46      	adds	r6, r0, #1
   27918:	2234      	movs	r2, #52	@ 0x34
   2791a:	9202      	str	r2, [sp, #8]
   2791c:	4630      	mov	r0, r6
   2791e:	f003 fbf3 	bl	2b108 <__aeabi_memcpy>
   27922:	ad12      	add	r5, sp, #72	@ 0x48
   27924:	1c68      	adds	r0, r5, #1
   27926:	211a      	movs	r1, #26
   27928:	9001      	str	r0, [sp, #4]
   2792a:	f003 fa2d 	bl	2ad88 <__aeabi_memclr>
   2792e:	9400      	str	r4, [sp, #0]
   27930:	702c      	strb	r4, [r5, #0]
   27932:	4848      	ldr	r0, [pc, #288]	@ (27a54 <_ZN20complex_dynamic_type3app17hf505e81579c015a8E+0x14c>)
   27934:	2100      	movs	r1, #0
   27936:	4632      	mov	r2, r6
   27938:	9b02      	ldr	r3, [sp, #8]
   2793a:	df04      	svc	4
   2793c:	2802      	cmp	r0, #2
   2793e:	d104      	bne.n	2794a <_ZN20complex_dynamic_type3app17hf505e81579c015a8E+0x42>
   27940:	2001      	movs	r0, #1
   27942:	9a03      	ldr	r2, [sp, #12]
   27944:	7010      	strb	r0, [r2, #0]
   27946:	6051      	str	r1, [r2, #4]
   27948:	e02d      	b.n	279a6 <_ZN20complex_dynamic_type3app17hf505e81579c015a8E+0x9e>
   2794a:	9d03      	ldr	r5, [sp, #12]
   2794c:	a804      	add	r0, sp, #16
   2794e:	2104      	movs	r1, #4
   27950:	7001      	strb	r1, [r0, #0]
   27952:	4840      	ldr	r0, [pc, #256]	@ (27a54 <_ZN20complex_dynamic_type3app17hf505e81579c015a8E+0x14c>)
   27954:	2105      	movs	r1, #5
   27956:	231a      	movs	r3, #26
   27958:	9c01      	ldr	r4, [sp, #4]
   2795a:	4622      	mov	r2, r4
   2795c:	df03      	svc	3
   2795e:	2802      	cmp	r0, #2
   27960:	d10e      	bne.n	27980 <_ZN20complex_dynamic_type3app17hf505e81579c015a8E+0x78>
   27962:	2001      	movs	r0, #1
   27964:	7028      	strb	r0, [r5, #0]
   27966:	6069      	str	r1, [r5, #4]
   27968:	a812      	add	r0, sp, #72	@ 0x48
   2796a:	7800      	ldrb	r0, [r0, #0]
   2796c:	2802      	cmp	r0, #2
   2796e:	d01a      	beq.n	279a6 <_ZN20complex_dynamic_type3app17hf505e81579c015a8E+0x9e>
   27970:	2803      	cmp	r0, #3
   27972:	d013      	beq.n	2799c <_ZN20complex_dynamic_type3app17hf505e81579c015a8E+0x94>
   27974:	4837      	ldr	r0, [pc, #220]	@ (27a54 <_ZN20complex_dynamic_type3app17hf505e81579c015a8E+0x14c>)
   27976:	2105      	movs	r1, #5
   27978:	2200      	movs	r2, #0
   2797a:	4613      	mov	r3, r2
   2797c:	df04      	svc	4
   2797e:	e012      	b.n	279a6 <_ZN20complex_dynamic_type3app17hf505e81579c015a8E+0x9e>
   27980:	a812      	add	r0, sp, #72	@ 0x48
   27982:	2103      	movs	r1, #3
   27984:	7001      	strb	r1, [r0, #0]
   27986:	4833      	ldr	r0, [pc, #204]	@ (27a54 <_ZN20complex_dynamic_type3app17hf505e81579c015a8E+0x14c>)
   27988:	2205      	movs	r2, #5
   2798a:	2600      	movs	r6, #0
   2798c:	4631      	mov	r1, r6
   2798e:	4633      	mov	r3, r6
   27990:	df02      	svc	2
   27992:	2880      	cmp	r0, #128	@ 0x80
   27994:	d21b      	bcs.n	279ce <_ZN20complex_dynamic_type3app17hf505e81579c015a8E+0xc6>
   27996:	2001      	movs	r0, #1
   27998:	7028      	strb	r0, [r5, #0]
   2799a:	6069      	str	r1, [r5, #4]
   2799c:	482d      	ldr	r0, [pc, #180]	@ (27a54 <_ZN20complex_dynamic_type3app17hf505e81579c015a8E+0x14c>)
   2799e:	2105      	movs	r1, #5
   279a0:	2200      	movs	r2, #0
   279a2:	4613      	mov	r3, r2
   279a4:	df03      	svc	3
   279a6:	a804      	add	r0, sp, #16
   279a8:	7800      	ldrb	r0, [r0, #0]
   279aa:	2802      	cmp	r0, #2
   279ac:	d045      	beq.n	27a3a <_ZN20complex_dynamic_type3app17hf505e81579c015a8E+0x132>
   279ae:	2804      	cmp	r0, #4
   279b0:	d106      	bne.n	279c0 <_ZN20complex_dynamic_type3app17hf505e81579c015a8E+0xb8>
   279b2:	4828      	ldr	r0, [pc, #160]	@ (27a54 <_ZN20complex_dynamic_type3app17hf505e81579c015a8E+0x14c>)
   279b4:	2100      	movs	r1, #0
   279b6:	460a      	mov	r2, r1
   279b8:	460b      	mov	r3, r1
   279ba:	df04      	svc	4
   279bc:	b019      	add	sp, #100	@ 0x64
   279be:	bdf0      	pop	{r4, r5, r6, r7, pc}
   279c0:	4824      	ldr	r0, [pc, #144]	@ (27a54 <_ZN20complex_dynamic_type3app17hf505e81579c015a8E+0x14c>)
   279c2:	2100      	movs	r1, #0
   279c4:	460a      	mov	r2, r1
   279c6:	460b      	mov	r3, r1
   279c8:	df03      	svc	3
   279ca:	b019      	add	sp, #100	@ 0x64
   279cc:	bdf0      	pop	{r4, r5, r6, r7, pc}
   279ce:	a804      	add	r0, sp, #16
   279d0:	7800      	ldrb	r0, [r0, #0]
   279d2:	2802      	cmp	r0, #2
   279d4:	d00c      	beq.n	279f0 <_ZN20complex_dynamic_type3app17hf505e81579c015a8E+0xe8>
   279d6:	2803      	cmp	r0, #3
   279d8:	d105      	bne.n	279e6 <_ZN20complex_dynamic_type3app17hf505e81579c015a8E+0xde>
   279da:	481e      	ldr	r0, [pc, #120]	@ (27a54 <_ZN20complex_dynamic_type3app17hf505e81579c015a8E+0x14c>)
   279dc:	2100      	movs	r1, #0
   279de:	460a      	mov	r2, r1
   279e0:	460b      	mov	r3, r1
   279e2:	df03      	svc	3
   279e4:	e004      	b.n	279f0 <_ZN20complex_dynamic_type3app17hf505e81579c015a8E+0xe8>
   279e6:	481b      	ldr	r0, [pc, #108]	@ (27a54 <_ZN20complex_dynamic_type3app17hf505e81579c015a8E+0x14c>)
   279e8:	2100      	movs	r1, #0
   279ea:	460a      	mov	r2, r1
   279ec:	460b      	mov	r3, r1
   279ee:	df04      	svc	4
   279f0:	a804      	add	r0, sp, #16
   279f2:	9900      	ldr	r1, [sp, #0]
   279f4:	7001      	strb	r1, [r0, #0]
   279f6:	a812      	add	r0, sp, #72	@ 0x48
   279f8:	7800      	ldrb	r0, [r0, #0]
   279fa:	2804      	cmp	r0, #4
   279fc:	d007      	beq.n	27a0e <_ZN20complex_dynamic_type3app17hf505e81579c015a8E+0x106>
   279fe:	2803      	cmp	r0, #3
   27a00:	d11d      	bne.n	27a3e <_ZN20complex_dynamic_type3app17hf505e81579c015a8E+0x136>
   27a02:	4814      	ldr	r0, [pc, #80]	@ (27a54 <_ZN20complex_dynamic_type3app17hf505e81579c015a8E+0x14c>)
   27a04:	2105      	movs	r1, #5
   27a06:	2200      	movs	r2, #0
   27a08:	4613      	mov	r3, r2
   27a0a:	df03      	svc	3
   27a0c:	e004      	b.n	27a18 <_ZN20complex_dynamic_type3app17hf505e81579c015a8E+0x110>
   27a0e:	4811      	ldr	r0, [pc, #68]	@ (27a54 <_ZN20complex_dynamic_type3app17hf505e81579c015a8E+0x14c>)
   27a10:	2105      	movs	r1, #5
   27a12:	2200      	movs	r2, #0
   27a14:	4613      	mov	r3, r2
   27a16:	df04      	svc	4
   27a18:	a804      	add	r0, sp, #16
   27a1a:	7804      	ldrb	r4, [r0, #0]
   27a1c:	1c68      	adds	r0, r5, #1
   27a1e:	221a      	movs	r2, #26
   27a20:	9901      	ldr	r1, [sp, #4]
   27a22:	f003 fb71 	bl	2b108 <__aeabi_memcpy>
   27a26:	702e      	strb	r6, [r5, #0]
   27a28:	2c02      	cmp	r4, #2
   27a2a:	d006      	beq.n	27a3a <_ZN20complex_dynamic_type3app17hf505e81579c015a8E+0x132>
   27a2c:	4809      	ldr	r0, [pc, #36]	@ (27a54 <_ZN20complex_dynamic_type3app17hf505e81579c015a8E+0x14c>)
   27a2e:	2100      	movs	r1, #0
   27a30:	460a      	mov	r2, r1
   27a32:	460b      	mov	r3, r1
   27a34:	2c04      	cmp	r4, #4
   27a36:	d10a      	bne.n	27a4e <_ZN20complex_dynamic_type3app17hf505e81579c015a8E+0x146>
   27a38:	df04      	svc	4
   27a3a:	b019      	add	sp, #100	@ 0x64
   27a3c:	bdf0      	pop	{r4, r5, r6, r7, pc}
   27a3e:	1c68      	adds	r0, r5, #1
   27a40:	221a      	movs	r2, #26
   27a42:	4621      	mov	r1, r4
   27a44:	f003 fb60 	bl	2b108 <__aeabi_memcpy>
   27a48:	702e      	strb	r6, [r5, #0]
   27a4a:	b019      	add	sp, #100	@ 0x64
   27a4c:	bdf0      	pop	{r4, r5, r6, r7, pc}
   27a4e:	df03      	svc	3
   27a50:	b019      	add	sp, #100	@ 0x64
   27a52:	bdf0      	pop	{r4, r5, r6, r7, pc}
   27a54:	000012cc 	.word	0x000012cc

00027a58 <_ZN20complex_dynamic_type3app17hf72c38fa9904a213E>:
   27a58:	b5f0      	push	{r4, r5, r6, r7, lr}
   27a5a:	af03      	add	r7, sp, #12
   27a5c:	b0a1      	sub	sp, #132	@ 0x84
   27a5e:	9004      	str	r0, [sp, #16]
   27a60:	a805      	add	r0, sp, #20
   27a62:	2402      	movs	r4, #2
   27a64:	7004      	strb	r4, [r0, #0]
   27a66:	1c46      	adds	r6, r0, #1
   27a68:	223c      	movs	r2, #60	@ 0x3c
   27a6a:	9203      	str	r2, [sp, #12]
   27a6c:	4630      	mov	r0, r6
   27a6e:	f003 fb4b 	bl	2b108 <__aeabi_memcpy>
   27a72:	ad15      	add	r5, sp, #84	@ 0x54
   27a74:	1c68      	adds	r0, r5, #1
   27a76:	212c      	movs	r1, #44	@ 0x2c
   27a78:	9002      	str	r0, [sp, #8]
   27a7a:	f003 f985 	bl	2ad88 <__aeabi_memclr>
   27a7e:	9401      	str	r4, [sp, #4]
   27a80:	702c      	strb	r4, [r5, #0]
   27a82:	4848      	ldr	r0, [pc, #288]	@ (27ba4 <_ZN20complex_dynamic_type3app17hf72c38fa9904a213E+0x14c>)
   27a84:	2105      	movs	r1, #5
   27a86:	4632      	mov	r2, r6
   27a88:	9b03      	ldr	r3, [sp, #12]
   27a8a:	df04      	svc	4
   27a8c:	2802      	cmp	r0, #2
   27a8e:	d104      	bne.n	27a9a <_ZN20complex_dynamic_type3app17hf72c38fa9904a213E+0x42>
   27a90:	2001      	movs	r0, #1
   27a92:	9a04      	ldr	r2, [sp, #16]
   27a94:	7010      	strb	r0, [r2, #0]
   27a96:	6051      	str	r1, [r2, #4]
   27a98:	e02d      	b.n	27af6 <_ZN20complex_dynamic_type3app17hf72c38fa9904a213E+0x9e>
   27a9a:	9d04      	ldr	r5, [sp, #16]
   27a9c:	a805      	add	r0, sp, #20
   27a9e:	2104      	movs	r1, #4
   27aa0:	7001      	strb	r1, [r0, #0]
   27aa2:	4840      	ldr	r0, [pc, #256]	@ (27ba4 <_ZN20complex_dynamic_type3app17hf72c38fa9904a213E+0x14c>)
   27aa4:	2107      	movs	r1, #7
   27aa6:	232c      	movs	r3, #44	@ 0x2c
   27aa8:	9c02      	ldr	r4, [sp, #8]
   27aaa:	4622      	mov	r2, r4
   27aac:	df03      	svc	3
   27aae:	2802      	cmp	r0, #2
   27ab0:	d10e      	bne.n	27ad0 <_ZN20complex_dynamic_type3app17hf72c38fa9904a213E+0x78>
   27ab2:	2001      	movs	r0, #1
   27ab4:	7028      	strb	r0, [r5, #0]
   27ab6:	6069      	str	r1, [r5, #4]
   27ab8:	a815      	add	r0, sp, #84	@ 0x54
   27aba:	7800      	ldrb	r0, [r0, #0]
   27abc:	2802      	cmp	r0, #2
   27abe:	d01a      	beq.n	27af6 <_ZN20complex_dynamic_type3app17hf72c38fa9904a213E+0x9e>
   27ac0:	2803      	cmp	r0, #3
   27ac2:	d013      	beq.n	27aec <_ZN20complex_dynamic_type3app17hf72c38fa9904a213E+0x94>
   27ac4:	4837      	ldr	r0, [pc, #220]	@ (27ba4 <_ZN20complex_dynamic_type3app17hf72c38fa9904a213E+0x14c>)
   27ac6:	2107      	movs	r1, #7
   27ac8:	2200      	movs	r2, #0
   27aca:	4613      	mov	r3, r2
   27acc:	df04      	svc	4
   27ace:	e012      	b.n	27af6 <_ZN20complex_dynamic_type3app17hf72c38fa9904a213E+0x9e>
   27ad0:	a815      	add	r0, sp, #84	@ 0x54
   27ad2:	2103      	movs	r1, #3
   27ad4:	7001      	strb	r1, [r0, #0]
   27ad6:	4833      	ldr	r0, [pc, #204]	@ (27ba4 <_ZN20complex_dynamic_type3app17hf72c38fa9904a213E+0x14c>)
   27ad8:	2105      	movs	r1, #5
   27ada:	2207      	movs	r2, #7
   27adc:	2600      	movs	r6, #0
   27ade:	4633      	mov	r3, r6
   27ae0:	df02      	svc	2
   27ae2:	2880      	cmp	r0, #128	@ 0x80
   27ae4:	d21b      	bcs.n	27b1e <_ZN20complex_dynamic_type3app17hf72c38fa9904a213E+0xc6>
   27ae6:	2001      	movs	r0, #1
   27ae8:	7028      	strb	r0, [r5, #0]
   27aea:	6069      	str	r1, [r5, #4]
   27aec:	482d      	ldr	r0, [pc, #180]	@ (27ba4 <_ZN20complex_dynamic_type3app17hf72c38fa9904a213E+0x14c>)
   27aee:	2107      	movs	r1, #7
   27af0:	2200      	movs	r2, #0
   27af2:	4613      	mov	r3, r2
   27af4:	df03      	svc	3
   27af6:	a805      	add	r0, sp, #20
   27af8:	7800      	ldrb	r0, [r0, #0]
   27afa:	2802      	cmp	r0, #2
   27afc:	d045      	beq.n	27b8a <_ZN20complex_dynamic_type3app17hf72c38fa9904a213E+0x132>
   27afe:	2804      	cmp	r0, #4
   27b00:	d106      	bne.n	27b10 <_ZN20complex_dynamic_type3app17hf72c38fa9904a213E+0xb8>
   27b02:	4828      	ldr	r0, [pc, #160]	@ (27ba4 <_ZN20complex_dynamic_type3app17hf72c38fa9904a213E+0x14c>)
   27b04:	2105      	movs	r1, #5
   27b06:	2200      	movs	r2, #0
   27b08:	4613      	mov	r3, r2
   27b0a:	df04      	svc	4
   27b0c:	b021      	add	sp, #132	@ 0x84
   27b0e:	bdf0      	pop	{r4, r5, r6, r7, pc}
   27b10:	4824      	ldr	r0, [pc, #144]	@ (27ba4 <_ZN20complex_dynamic_type3app17hf72c38fa9904a213E+0x14c>)
   27b12:	2105      	movs	r1, #5
   27b14:	2200      	movs	r2, #0
   27b16:	4613      	mov	r3, r2
   27b18:	df03      	svc	3
   27b1a:	b021      	add	sp, #132	@ 0x84
   27b1c:	bdf0      	pop	{r4, r5, r6, r7, pc}
   27b1e:	a805      	add	r0, sp, #20
   27b20:	7800      	ldrb	r0, [r0, #0]
   27b22:	2802      	cmp	r0, #2
   27b24:	d00c      	beq.n	27b40 <_ZN20complex_dynamic_type3app17hf72c38fa9904a213E+0xe8>
   27b26:	2803      	cmp	r0, #3
   27b28:	d105      	bne.n	27b36 <_ZN20complex_dynamic_type3app17hf72c38fa9904a213E+0xde>
   27b2a:	481e      	ldr	r0, [pc, #120]	@ (27ba4 <_ZN20complex_dynamic_type3app17hf72c38fa9904a213E+0x14c>)
   27b2c:	2105      	movs	r1, #5
   27b2e:	2200      	movs	r2, #0
   27b30:	4613      	mov	r3, r2
   27b32:	df03      	svc	3
   27b34:	e004      	b.n	27b40 <_ZN20complex_dynamic_type3app17hf72c38fa9904a213E+0xe8>
   27b36:	481b      	ldr	r0, [pc, #108]	@ (27ba4 <_ZN20complex_dynamic_type3app17hf72c38fa9904a213E+0x14c>)
   27b38:	2105      	movs	r1, #5
   27b3a:	2200      	movs	r2, #0
   27b3c:	4613      	mov	r3, r2
   27b3e:	df04      	svc	4
   27b40:	a805      	add	r0, sp, #20
   27b42:	9901      	ldr	r1, [sp, #4]
   27b44:	7001      	strb	r1, [r0, #0]
   27b46:	a815      	add	r0, sp, #84	@ 0x54
   27b48:	7800      	ldrb	r0, [r0, #0]
   27b4a:	2804      	cmp	r0, #4
   27b4c:	d007      	beq.n	27b5e <_ZN20complex_dynamic_type3app17hf72c38fa9904a213E+0x106>
   27b4e:	2803      	cmp	r0, #3
   27b50:	d11d      	bne.n	27b8e <_ZN20complex_dynamic_type3app17hf72c38fa9904a213E+0x136>
   27b52:	4814      	ldr	r0, [pc, #80]	@ (27ba4 <_ZN20complex_dynamic_type3app17hf72c38fa9904a213E+0x14c>)
   27b54:	2107      	movs	r1, #7
   27b56:	2200      	movs	r2, #0
   27b58:	4613      	mov	r3, r2
   27b5a:	df03      	svc	3
   27b5c:	e004      	b.n	27b68 <_ZN20complex_dynamic_type3app17hf72c38fa9904a213E+0x110>
   27b5e:	4811      	ldr	r0, [pc, #68]	@ (27ba4 <_ZN20complex_dynamic_type3app17hf72c38fa9904a213E+0x14c>)
   27b60:	2107      	movs	r1, #7
   27b62:	2200      	movs	r2, #0
   27b64:	4613      	mov	r3, r2
   27b66:	df04      	svc	4
   27b68:	a805      	add	r0, sp, #20
   27b6a:	7804      	ldrb	r4, [r0, #0]
   27b6c:	1c68      	adds	r0, r5, #1
   27b6e:	222c      	movs	r2, #44	@ 0x2c
   27b70:	9902      	ldr	r1, [sp, #8]
   27b72:	f003 fac9 	bl	2b108 <__aeabi_memcpy>
   27b76:	702e      	strb	r6, [r5, #0]
   27b78:	2c02      	cmp	r4, #2
   27b7a:	d006      	beq.n	27b8a <_ZN20complex_dynamic_type3app17hf72c38fa9904a213E+0x132>
   27b7c:	4809      	ldr	r0, [pc, #36]	@ (27ba4 <_ZN20complex_dynamic_type3app17hf72c38fa9904a213E+0x14c>)
   27b7e:	2105      	movs	r1, #5
   27b80:	2200      	movs	r2, #0
   27b82:	4613      	mov	r3, r2
   27b84:	2c04      	cmp	r4, #4
   27b86:	d10a      	bne.n	27b9e <_ZN20complex_dynamic_type3app17hf72c38fa9904a213E+0x146>
   27b88:	df04      	svc	4
   27b8a:	b021      	add	sp, #132	@ 0x84
   27b8c:	bdf0      	pop	{r4, r5, r6, r7, pc}
   27b8e:	1c68      	adds	r0, r5, #1
   27b90:	222c      	movs	r2, #44	@ 0x2c
   27b92:	4621      	mov	r1, r4
   27b94:	f003 fab8 	bl	2b108 <__aeabi_memcpy>
   27b98:	702e      	strb	r6, [r5, #0]
   27b9a:	b021      	add	sp, #132	@ 0x84
   27b9c:	bdf0      	pop	{r4, r5, r6, r7, pc}
   27b9e:	df03      	svc	3
   27ba0:	b021      	add	sp, #132	@ 0x84
   27ba2:	bdf0      	pop	{r4, r5, r6, r7, pc}
   27ba4:	00001eac 	.word	0x00001eac

00027ba8 <_ZN20complex_dynamic_type3app17hf882712a9004198cE>:
   27ba8:	b5f0      	push	{r4, r5, r6, r7, lr}
   27baa:	af03      	add	r7, sp, #12
   27bac:	b093      	sub	sp, #76	@ 0x4c
   27bae:	9003      	str	r0, [sp, #12]
   27bb0:	a804      	add	r0, sp, #16
   27bb2:	2402      	movs	r4, #2
   27bb4:	7004      	strb	r4, [r0, #0]
   27bb6:	1c46      	adds	r6, r0, #1
   27bb8:	222b      	movs	r2, #43	@ 0x2b
   27bba:	9202      	str	r2, [sp, #8]
   27bbc:	4630      	mov	r0, r6
   27bbe:	f003 faa3 	bl	2b108 <__aeabi_memcpy>
   27bc2:	ad0f      	add	r5, sp, #60	@ 0x3c
   27bc4:	1c68      	adds	r0, r5, #1
   27bc6:	210d      	movs	r1, #13
   27bc8:	9001      	str	r0, [sp, #4]
   27bca:	f003 f8dd 	bl	2ad88 <__aeabi_memclr>
   27bce:	9400      	str	r4, [sp, #0]
   27bd0:	702c      	strb	r4, [r5, #0]
   27bd2:	4848      	ldr	r0, [pc, #288]	@ (27cf4 <_ZN20complex_dynamic_type3app17hf882712a9004198cE+0x14c>)
   27bd4:	2106      	movs	r1, #6
   27bd6:	4632      	mov	r2, r6
   27bd8:	9b02      	ldr	r3, [sp, #8]
   27bda:	df04      	svc	4
   27bdc:	2802      	cmp	r0, #2
   27bde:	d104      	bne.n	27bea <_ZN20complex_dynamic_type3app17hf882712a9004198cE+0x42>
   27be0:	2001      	movs	r0, #1
   27be2:	9a03      	ldr	r2, [sp, #12]
   27be4:	7010      	strb	r0, [r2, #0]
   27be6:	6051      	str	r1, [r2, #4]
   27be8:	e02d      	b.n	27c46 <_ZN20complex_dynamic_type3app17hf882712a9004198cE+0x9e>
   27bea:	9d03      	ldr	r5, [sp, #12]
   27bec:	a804      	add	r0, sp, #16
   27bee:	2104      	movs	r1, #4
   27bf0:	7001      	strb	r1, [r0, #0]
   27bf2:	4840      	ldr	r0, [pc, #256]	@ (27cf4 <_ZN20complex_dynamic_type3app17hf882712a9004198cE+0x14c>)
   27bf4:	2100      	movs	r1, #0
   27bf6:	230d      	movs	r3, #13
   27bf8:	9c01      	ldr	r4, [sp, #4]
   27bfa:	4622      	mov	r2, r4
   27bfc:	df03      	svc	3
   27bfe:	2802      	cmp	r0, #2
   27c00:	d10e      	bne.n	27c20 <_ZN20complex_dynamic_type3app17hf882712a9004198cE+0x78>
   27c02:	2001      	movs	r0, #1
   27c04:	7028      	strb	r0, [r5, #0]
   27c06:	6069      	str	r1, [r5, #4]
   27c08:	a80f      	add	r0, sp, #60	@ 0x3c
   27c0a:	7800      	ldrb	r0, [r0, #0]
   27c0c:	2802      	cmp	r0, #2
   27c0e:	d01a      	beq.n	27c46 <_ZN20complex_dynamic_type3app17hf882712a9004198cE+0x9e>
   27c10:	2803      	cmp	r0, #3
   27c12:	d013      	beq.n	27c3c <_ZN20complex_dynamic_type3app17hf882712a9004198cE+0x94>
   27c14:	4837      	ldr	r0, [pc, #220]	@ (27cf4 <_ZN20complex_dynamic_type3app17hf882712a9004198cE+0x14c>)
   27c16:	2100      	movs	r1, #0
   27c18:	460a      	mov	r2, r1
   27c1a:	460b      	mov	r3, r1
   27c1c:	df04      	svc	4
   27c1e:	e012      	b.n	27c46 <_ZN20complex_dynamic_type3app17hf882712a9004198cE+0x9e>
   27c20:	a80f      	add	r0, sp, #60	@ 0x3c
   27c22:	2103      	movs	r1, #3
   27c24:	7001      	strb	r1, [r0, #0]
   27c26:	4833      	ldr	r0, [pc, #204]	@ (27cf4 <_ZN20complex_dynamic_type3app17hf882712a9004198cE+0x14c>)
   27c28:	2106      	movs	r1, #6
   27c2a:	2600      	movs	r6, #0
   27c2c:	4632      	mov	r2, r6
   27c2e:	4633      	mov	r3, r6
   27c30:	df02      	svc	2
   27c32:	2880      	cmp	r0, #128	@ 0x80
   27c34:	d21b      	bcs.n	27c6e <_ZN20complex_dynamic_type3app17hf882712a9004198cE+0xc6>
   27c36:	2001      	movs	r0, #1
   27c38:	7028      	strb	r0, [r5, #0]
   27c3a:	6069      	str	r1, [r5, #4]
   27c3c:	482d      	ldr	r0, [pc, #180]	@ (27cf4 <_ZN20complex_dynamic_type3app17hf882712a9004198cE+0x14c>)
   27c3e:	2100      	movs	r1, #0
   27c40:	460a      	mov	r2, r1
   27c42:	460b      	mov	r3, r1
   27c44:	df03      	svc	3
   27c46:	a804      	add	r0, sp, #16
   27c48:	7800      	ldrb	r0, [r0, #0]
   27c4a:	2802      	cmp	r0, #2
   27c4c:	d045      	beq.n	27cda <_ZN20complex_dynamic_type3app17hf882712a9004198cE+0x132>
   27c4e:	2804      	cmp	r0, #4
   27c50:	d106      	bne.n	27c60 <_ZN20complex_dynamic_type3app17hf882712a9004198cE+0xb8>
   27c52:	4828      	ldr	r0, [pc, #160]	@ (27cf4 <_ZN20complex_dynamic_type3app17hf882712a9004198cE+0x14c>)
   27c54:	2106      	movs	r1, #6
   27c56:	2200      	movs	r2, #0
   27c58:	4613      	mov	r3, r2
   27c5a:	df04      	svc	4
   27c5c:	b013      	add	sp, #76	@ 0x4c
   27c5e:	bdf0      	pop	{r4, r5, r6, r7, pc}
   27c60:	4824      	ldr	r0, [pc, #144]	@ (27cf4 <_ZN20complex_dynamic_type3app17hf882712a9004198cE+0x14c>)
   27c62:	2106      	movs	r1, #6
   27c64:	2200      	movs	r2, #0
   27c66:	4613      	mov	r3, r2
   27c68:	df03      	svc	3
   27c6a:	b013      	add	sp, #76	@ 0x4c
   27c6c:	bdf0      	pop	{r4, r5, r6, r7, pc}
   27c6e:	a804      	add	r0, sp, #16
   27c70:	7800      	ldrb	r0, [r0, #0]
   27c72:	2802      	cmp	r0, #2
   27c74:	d00c      	beq.n	27c90 <_ZN20complex_dynamic_type3app17hf882712a9004198cE+0xe8>
   27c76:	2803      	cmp	r0, #3
   27c78:	d105      	bne.n	27c86 <_ZN20complex_dynamic_type3app17hf882712a9004198cE+0xde>
   27c7a:	481e      	ldr	r0, [pc, #120]	@ (27cf4 <_ZN20complex_dynamic_type3app17hf882712a9004198cE+0x14c>)
   27c7c:	2106      	movs	r1, #6
   27c7e:	2200      	movs	r2, #0
   27c80:	4613      	mov	r3, r2
   27c82:	df03      	svc	3
   27c84:	e004      	b.n	27c90 <_ZN20complex_dynamic_type3app17hf882712a9004198cE+0xe8>
   27c86:	481b      	ldr	r0, [pc, #108]	@ (27cf4 <_ZN20complex_dynamic_type3app17hf882712a9004198cE+0x14c>)
   27c88:	2106      	movs	r1, #6
   27c8a:	2200      	movs	r2, #0
   27c8c:	4613      	mov	r3, r2
   27c8e:	df04      	svc	4
   27c90:	a804      	add	r0, sp, #16
   27c92:	9900      	ldr	r1, [sp, #0]
   27c94:	7001      	strb	r1, [r0, #0]
   27c96:	a80f      	add	r0, sp, #60	@ 0x3c
   27c98:	7800      	ldrb	r0, [r0, #0]
   27c9a:	2804      	cmp	r0, #4
   27c9c:	d007      	beq.n	27cae <_ZN20complex_dynamic_type3app17hf882712a9004198cE+0x106>
   27c9e:	2803      	cmp	r0, #3
   27ca0:	d11d      	bne.n	27cde <_ZN20complex_dynamic_type3app17hf882712a9004198cE+0x136>
   27ca2:	4814      	ldr	r0, [pc, #80]	@ (27cf4 <_ZN20complex_dynamic_type3app17hf882712a9004198cE+0x14c>)
   27ca4:	2100      	movs	r1, #0
   27ca6:	460a      	mov	r2, r1
   27ca8:	460b      	mov	r3, r1
   27caa:	df03      	svc	3
   27cac:	e004      	b.n	27cb8 <_ZN20complex_dynamic_type3app17hf882712a9004198cE+0x110>
   27cae:	4811      	ldr	r0, [pc, #68]	@ (27cf4 <_ZN20complex_dynamic_type3app17hf882712a9004198cE+0x14c>)
   27cb0:	2100      	movs	r1, #0
   27cb2:	460a      	mov	r2, r1
   27cb4:	460b      	mov	r3, r1
   27cb6:	df04      	svc	4
   27cb8:	a804      	add	r0, sp, #16
   27cba:	7804      	ldrb	r4, [r0, #0]
   27cbc:	1c68      	adds	r0, r5, #1
   27cbe:	220d      	movs	r2, #13
   27cc0:	9901      	ldr	r1, [sp, #4]
   27cc2:	f003 fa21 	bl	2b108 <__aeabi_memcpy>
   27cc6:	702e      	strb	r6, [r5, #0]
   27cc8:	2c02      	cmp	r4, #2
   27cca:	d006      	beq.n	27cda <_ZN20complex_dynamic_type3app17hf882712a9004198cE+0x132>
   27ccc:	4809      	ldr	r0, [pc, #36]	@ (27cf4 <_ZN20complex_dynamic_type3app17hf882712a9004198cE+0x14c>)
   27cce:	2106      	movs	r1, #6
   27cd0:	2200      	movs	r2, #0
   27cd2:	4613      	mov	r3, r2
   27cd4:	2c04      	cmp	r4, #4
   27cd6:	d10a      	bne.n	27cee <_ZN20complex_dynamic_type3app17hf882712a9004198cE+0x146>
   27cd8:	df04      	svc	4
   27cda:	b013      	add	sp, #76	@ 0x4c
   27cdc:	bdf0      	pop	{r4, r5, r6, r7, pc}
   27cde:	1c68      	adds	r0, r5, #1
   27ce0:	220d      	movs	r2, #13
   27ce2:	4621      	mov	r1, r4
   27ce4:	f003 fa10 	bl	2b108 <__aeabi_memcpy>
   27ce8:	702e      	strb	r6, [r5, #0]
   27cea:	b013      	add	sp, #76	@ 0x4c
   27cec:	bdf0      	pop	{r4, r5, r6, r7, pc}
   27cee:	df03      	svc	3
   27cf0:	b013      	add	sp, #76	@ 0x4c
   27cf2:	bdf0      	pop	{r4, r5, r6, r7, pc}
   27cf4:	00001465 	.word	0x00001465

00027cf8 <_start>:
   27cf8:	b5f0      	push	{r4, r5, r6, r7, lr}
   27cfa:	af03      	add	r7, sp, #12
   27cfc:	4ed1      	ldr	r6, [pc, #836]	@ (28044 <_start+0x34c>)
   27cfe:	44b5      	add	sp, r6
   27d00:	48d1      	ldr	r0, [pc, #836]	@ (28048 <_start+0x350>)
   27d02:	4468      	add	r0, sp
   27d04:	9008      	str	r0, [sp, #32]
   27d06:	48d1      	ldr	r0, [pc, #836]	@ (2804c <_start+0x354>)
   27d08:	4468      	add	r0, sp
   27d0a:	9007      	str	r0, [sp, #28]
   27d0c:	ac1f      	add	r4, sp, #124	@ 0x7c
   27d0e:	1c60      	adds	r0, r4, #1
   27d10:	900b      	str	r0, [sp, #44]	@ 0x2c
   27d12:	2628      	movs	r6, #40	@ 0x28
   27d14:	4631      	mov	r1, r6
   27d16:	f003 f837 	bl	2ad88 <__aeabi_memclr>
   27d1a:	2502      	movs	r5, #2
   27d1c:	7025      	strb	r5, [r4, #0]
   27d1e:	4ccc      	ldr	r4, [pc, #816]	@ (28050 <_start+0x358>)
   27d20:	446c      	add	r4, sp
   27d22:	1c60      	adds	r0, r4, #1
   27d24:	2151      	movs	r1, #81	@ 0x51
   27d26:	900a      	str	r0, [sp, #40]	@ 0x28
   27d28:	f003 f82e 	bl	2ad88 <__aeabi_memclr>
   27d2c:	9509      	str	r5, [sp, #36]	@ 0x24
   27d2e:	7025      	strb	r5, [r4, #0]
   27d30:	48c8      	ldr	r0, [pc, #800]	@ (28054 <_start+0x35c>)
   27d32:	2109      	movs	r1, #9
   27d34:	9a0b      	ldr	r2, [sp, #44]	@ 0x2c
   27d36:	4633      	mov	r3, r6
   27d38:	df04      	svc	4
   27d3a:	ac4b      	add	r4, sp, #300	@ 0x12c
   27d3c:	4ec6      	ldr	r6, [pc, #792]	@ (28058 <_start+0x360>)
   27d3e:	446e      	add	r6, sp
   27d40:	4dc6      	ldr	r5, [pc, #792]	@ (2805c <_start+0x364>)
   27d42:	446d      	add	r5, sp
   27d44:	2802      	cmp	r0, #2
   27d46:	d02b      	beq.n	27da0 <_start+0xa8>
   27d48:	a81f      	add	r0, sp, #124	@ 0x7c
   27d4a:	2104      	movs	r1, #4
   27d4c:	910b      	str	r1, [sp, #44]	@ 0x2c
   27d4e:	7001      	strb	r1, [r0, #0]
   27d50:	48c0      	ldr	r0, [pc, #768]	@ (28054 <_start+0x35c>)
   27d52:	2109      	movs	r1, #9
   27d54:	2351      	movs	r3, #81	@ 0x51
   27d56:	9a0a      	ldr	r2, [sp, #40]	@ 0x28
   27d58:	df03      	svc	3
   27d5a:	2802      	cmp	r0, #2
   27d5c:	d10d      	bne.n	27d7a <_start+0x82>
   27d5e:	48bc      	ldr	r0, [pc, #752]	@ (28050 <_start+0x358>)
   27d60:	4468      	add	r0, sp
   27d62:	7800      	ldrb	r0, [r0, #0]
   27d64:	2802      	cmp	r0, #2
   27d66:	d01b      	beq.n	27da0 <_start+0xa8>
   27d68:	460c      	mov	r4, r1
   27d6a:	2803      	cmp	r0, #3
   27d6c:	d012      	beq.n	27d94 <_start+0x9c>
   27d6e:	48b9      	ldr	r0, [pc, #740]	@ (28054 <_start+0x35c>)
   27d70:	2109      	movs	r1, #9
   27d72:	2200      	movs	r2, #0
   27d74:	4613      	mov	r3, r2
   27d76:	df04      	svc	4
   27d78:	e011      	b.n	27d9e <_start+0xa6>
   27d7a:	48b5      	ldr	r0, [pc, #724]	@ (28050 <_start+0x358>)
   27d7c:	4468      	add	r0, sp
   27d7e:	2103      	movs	r1, #3
   27d80:	9106      	str	r1, [sp, #24]
   27d82:	7001      	strb	r1, [r0, #0]
   27d84:	48b3      	ldr	r0, [pc, #716]	@ (28054 <_start+0x35c>)
   27d86:	2109      	movs	r1, #9
   27d88:	2300      	movs	r3, #0
   27d8a:	460a      	mov	r2, r1
   27d8c:	df02      	svc	2
   27d8e:	2880      	cmp	r0, #128	@ 0x80
   27d90:	d220      	bcs.n	27dd4 <_start+0xdc>
   27d92:	460c      	mov	r4, r1
   27d94:	48af      	ldr	r0, [pc, #700]	@ (28054 <_start+0x35c>)
   27d96:	2109      	movs	r1, #9
   27d98:	2200      	movs	r2, #0
   27d9a:	4613      	mov	r3, r2
   27d9c:	df03      	svc	3
   27d9e:	4621      	mov	r1, r4
   27da0:	a81f      	add	r0, sp, #124	@ 0x7c
   27da2:	7800      	ldrb	r0, [r0, #0]
   27da4:	2802      	cmp	r0, #2
   27da6:	d010      	beq.n	27dca <_start+0xd2>
   27da8:	2804      	cmp	r0, #4
   27daa:	d107      	bne.n	27dbc <_start+0xc4>
   27dac:	48a9      	ldr	r0, [pc, #676]	@ (28054 <_start+0x35c>)
   27dae:	2209      	movs	r2, #9
   27db0:	2300      	movs	r3, #0
   27db2:	460c      	mov	r4, r1
   27db4:	4611      	mov	r1, r2
   27db6:	461a      	mov	r2, r3
   27db8:	df04      	svc	4
   27dba:	e005      	b.n	27dc8 <_start+0xd0>
   27dbc:	460c      	mov	r4, r1
   27dbe:	48a5      	ldr	r0, [pc, #660]	@ (28054 <_start+0x35c>)
   27dc0:	2109      	movs	r1, #9
   27dc2:	2200      	movs	r2, #0
   27dc4:	4613      	mov	r3, r2
   27dc6:	df03      	svc	3
   27dc8:	4621      	mov	r1, r4
   27dca:	2001      	movs	r0, #1
   27dcc:	1ffe      	subs	r6, r7, #7
   27dce:	3e05      	subs	r6, #5
   27dd0:	46b5      	mov	sp, r6
   27dd2:	bdf0      	pop	{r4, r5, r6, r7, pc}
   27dd4:	a81f      	add	r0, sp, #124	@ 0x7c
   27dd6:	7800      	ldrb	r0, [r0, #0]
   27dd8:	2802      	cmp	r0, #2
   27dda:	d00c      	beq.n	27df6 <_start+0xfe>
   27ddc:	2803      	cmp	r0, #3
   27dde:	d105      	bne.n	27dec <_start+0xf4>
   27de0:	489c      	ldr	r0, [pc, #624]	@ (28054 <_start+0x35c>)
   27de2:	2109      	movs	r1, #9
   27de4:	2200      	movs	r2, #0
   27de6:	4613      	mov	r3, r2
   27de8:	df03      	svc	3
   27dea:	e004      	b.n	27df6 <_start+0xfe>
   27dec:	4899      	ldr	r0, [pc, #612]	@ (28054 <_start+0x35c>)
   27dee:	2109      	movs	r1, #9
   27df0:	2200      	movs	r2, #0
   27df2:	4613      	mov	r3, r2
   27df4:	df04      	svc	4
   27df6:	a81f      	add	r0, sp, #124	@ 0x7c
   27df8:	9909      	ldr	r1, [sp, #36]	@ 0x24
   27dfa:	7001      	strb	r1, [r0, #0]
   27dfc:	4894      	ldr	r0, [pc, #592]	@ (28050 <_start+0x358>)
   27dfe:	4468      	add	r0, sp
   27e00:	7800      	ldrb	r0, [r0, #0]
   27e02:	2804      	cmp	r0, #4
   27e04:	9504      	str	r5, [sp, #16]
   27e06:	9603      	str	r6, [sp, #12]
   27e08:	9405      	str	r4, [sp, #20]
   27e0a:	d007      	beq.n	27e1c <_start+0x124>
   27e0c:	2803      	cmp	r0, #3
   27e0e:	d129      	bne.n	27e64 <_start+0x16c>
   27e10:	4890      	ldr	r0, [pc, #576]	@ (28054 <_start+0x35c>)
   27e12:	2109      	movs	r1, #9
   27e14:	2200      	movs	r2, #0
   27e16:	4613      	mov	r3, r2
   27e18:	df03      	svc	3
   27e1a:	e004      	b.n	27e26 <_start+0x12e>
   27e1c:	488d      	ldr	r0, [pc, #564]	@ (28054 <_start+0x35c>)
   27e1e:	2109      	movs	r1, #9
   27e20:	2200      	movs	r2, #0
   27e22:	4613      	mov	r3, r2
   27e24:	df04      	svc	4
   27e26:	9a0a      	ldr	r2, [sp, #40]	@ 0x28
   27e28:	7890      	ldrb	r0, [r2, #2]
   27e2a:	a92f      	add	r1, sp, #188	@ 0xbc
   27e2c:	7088      	strb	r0, [r1, #2]
   27e2e:	7810      	ldrb	r0, [r2, #0]
   27e30:	7852      	ldrb	r2, [r2, #1]
   27e32:	0212      	lsls	r2, r2, #8
   27e34:	1810      	adds	r0, r2, r0
   27e36:	8008      	strh	r0, [r1, #0]
   27e38:	a81f      	add	r0, sp, #124	@ 0x7c
   27e3a:	7804      	ldrb	r4, [r0, #0]
   27e3c:	9808      	ldr	r0, [sp, #32]
   27e3e:	6e00      	ldr	r0, [r0, #96]	@ 0x60
   27e40:	900a      	str	r0, [sp, #40]	@ 0x28
   27e42:	4983      	ldr	r1, [pc, #524]	@ (28050 <_start+0x358>)
   27e44:	4469      	add	r1, sp
   27e46:	3108      	adds	r1, #8
   27e48:	a80c      	add	r0, sp, #48	@ 0x30
   27e4a:	224a      	movs	r2, #74	@ 0x4a
   27e4c:	f002 fffc 	bl	2ae48 <__aeabi_memcpy4>
   27e50:	2c02      	cmp	r4, #2
   27e52:	d01c      	beq.n	27e8e <_start+0x196>
   27e54:	487f      	ldr	r0, [pc, #508]	@ (28054 <_start+0x35c>)
   27e56:	2109      	movs	r1, #9
   27e58:	2200      	movs	r2, #0
   27e5a:	4613      	mov	r3, r2
   27e5c:	2c04      	cmp	r4, #4
   27e5e:	d115      	bne.n	27e8c <_start+0x194>
   27e60:	df04      	svc	4
   27e62:	e014      	b.n	27e8e <_start+0x196>
   27e64:	9a0a      	ldr	r2, [sp, #40]	@ 0x28
   27e66:	7890      	ldrb	r0, [r2, #2]
   27e68:	a92f      	add	r1, sp, #188	@ 0xbc
   27e6a:	7088      	strb	r0, [r1, #2]
   27e6c:	7810      	ldrb	r0, [r2, #0]
   27e6e:	7852      	ldrb	r2, [r2, #1]
   27e70:	0212      	lsls	r2, r2, #8
   27e72:	1810      	adds	r0, r2, r0
   27e74:	8008      	strh	r0, [r1, #0]
   27e76:	9808      	ldr	r0, [sp, #32]
   27e78:	6e00      	ldr	r0, [r0, #96]	@ 0x60
   27e7a:	900a      	str	r0, [sp, #40]	@ 0x28
   27e7c:	4974      	ldr	r1, [pc, #464]	@ (28050 <_start+0x358>)
   27e7e:	4469      	add	r1, sp
   27e80:	3108      	adds	r1, #8
   27e82:	a80c      	add	r0, sp, #48	@ 0x30
   27e84:	224a      	movs	r2, #74	@ 0x4a
   27e86:	f002 ffdf 	bl	2ae48 <__aeabi_memcpy4>
   27e8a:	e000      	b.n	27e8e <_start+0x196>
   27e8c:	df03      	svc	3
   27e8e:	a82f      	add	r0, sp, #188	@ 0xbc
   27e90:	7881      	ldrb	r1, [r0, #2]
   27e92:	4e6f      	ldr	r6, [pc, #444]	@ (28050 <_start+0x358>)
   27e94:	446e      	add	r6, sp
   27e96:	70f1      	strb	r1, [r6, #3]
   27e98:	7840      	ldrb	r0, [r0, #1]
   27e9a:	70b0      	strb	r0, [r6, #2]
   27e9c:	982f      	ldr	r0, [sp, #188]	@ 0xbc
   27e9e:	7070      	strb	r0, [r6, #1]
   27ea0:	4c69      	ldr	r4, [pc, #420]	@ (28048 <_start+0x350>)
   27ea2:	446c      	add	r4, sp
   27ea4:	a90c      	add	r1, sp, #48	@ 0x30
   27ea6:	254a      	movs	r5, #74	@ 0x4a
   27ea8:	4620      	mov	r0, r4
   27eaa:	462a      	mov	r2, r5
   27eac:	f002 ffcc 	bl	2ae48 <__aeabi_memcpy4>
   27eb0:	4630      	mov	r0, r6
   27eb2:	3008      	adds	r0, #8
   27eb4:	4621      	mov	r1, r4
   27eb6:	462a      	mov	r2, r5
   27eb8:	f002 ffc6 	bl	2ae48 <__aeabi_memcpy4>
   27ebc:	9c09      	ldr	r4, [sp, #36]	@ 0x24
   27ebe:	7034      	strb	r4, [r6, #0]
   27ec0:	9808      	ldr	r0, [sp, #32]
   27ec2:	990a      	ldr	r1, [sp, #40]	@ 0x28
   27ec4:	6601      	str	r1, [r0, #96]	@ 0x60
   27ec6:	4d60      	ldr	r5, [pc, #384]	@ (28048 <_start+0x350>)
   27ec8:	446d      	add	r5, sp
   27eca:	1c68      	adds	r0, r5, #1
   27ecc:	2146      	movs	r1, #70	@ 0x46
   27ece:	900a      	str	r0, [sp, #40]	@ 0x28
   27ed0:	f002 ff5a 	bl	2ad88 <__aeabi_memclr>
   27ed4:	702c      	strb	r4, [r5, #0]
   27ed6:	1c72      	adds	r2, r6, #1
   27ed8:	4861      	ldr	r0, [pc, #388]	@ (28060 <_start+0x368>)
   27eda:	2107      	movs	r1, #7
   27edc:	2351      	movs	r3, #81	@ 0x51
   27ede:	df04      	svc	4
   27ee0:	2802      	cmp	r0, #2
   27ee2:	d02b      	beq.n	27f3c <_start+0x244>
   27ee4:	485a      	ldr	r0, [pc, #360]	@ (28050 <_start+0x358>)
   27ee6:	4468      	add	r0, sp
   27ee8:	990b      	ldr	r1, [sp, #44]	@ 0x2c
   27eea:	7001      	strb	r1, [r0, #0]
   27eec:	485c      	ldr	r0, [pc, #368]	@ (28060 <_start+0x368>)
   27eee:	2100      	movs	r1, #0
   27ef0:	2346      	movs	r3, #70	@ 0x46
   27ef2:	9c0a      	ldr	r4, [sp, #40]	@ 0x28
   27ef4:	4622      	mov	r2, r4
   27ef6:	df03      	svc	3
   27ef8:	2802      	cmp	r0, #2
   27efa:	d10d      	bne.n	27f18 <_start+0x220>
   27efc:	4852      	ldr	r0, [pc, #328]	@ (28048 <_start+0x350>)
   27efe:	4468      	add	r0, sp
   27f00:	7800      	ldrb	r0, [r0, #0]
   27f02:	2802      	cmp	r0, #2
   27f04:	d01a      	beq.n	27f3c <_start+0x244>
   27f06:	460c      	mov	r4, r1
   27f08:	2803      	cmp	r0, #3
   27f0a:	d011      	beq.n	27f30 <_start+0x238>
   27f0c:	4854      	ldr	r0, [pc, #336]	@ (28060 <_start+0x368>)
   27f0e:	2100      	movs	r1, #0
   27f10:	460a      	mov	r2, r1
   27f12:	460b      	mov	r3, r1
   27f14:	df04      	svc	4
   27f16:	e010      	b.n	27f3a <_start+0x242>
   27f18:	484b      	ldr	r0, [pc, #300]	@ (28048 <_start+0x350>)
   27f1a:	4468      	add	r0, sp
   27f1c:	9906      	ldr	r1, [sp, #24]
   27f1e:	7001      	strb	r1, [r0, #0]
   27f20:	484f      	ldr	r0, [pc, #316]	@ (28060 <_start+0x368>)
   27f22:	2107      	movs	r1, #7
   27f24:	2200      	movs	r2, #0
   27f26:	4613      	mov	r3, r2
   27f28:	df02      	svc	2
   27f2a:	2880      	cmp	r0, #128	@ 0x80
   27f2c:	d21d      	bcs.n	27f6a <_start+0x272>
   27f2e:	460c      	mov	r4, r1
   27f30:	484b      	ldr	r0, [pc, #300]	@ (28060 <_start+0x368>)
   27f32:	2100      	movs	r1, #0
   27f34:	460a      	mov	r2, r1
   27f36:	460b      	mov	r3, r1
   27f38:	df03      	svc	3
   27f3a:	4621      	mov	r1, r4
   27f3c:	4844      	ldr	r0, [pc, #272]	@ (28050 <_start+0x358>)
   27f3e:	4468      	add	r0, sp
   27f40:	7800      	ldrb	r0, [r0, #0]
   27f42:	2802      	cmp	r0, #2
   27f44:	d100      	bne.n	27f48 <_start+0x250>
   27f46:	e740      	b.n	27dca <_start+0xd2>
   27f48:	2804      	cmp	r0, #4
   27f4a:	d107      	bne.n	27f5c <_start+0x264>
   27f4c:	4844      	ldr	r0, [pc, #272]	@ (28060 <_start+0x368>)
   27f4e:	2207      	movs	r2, #7
   27f50:	2300      	movs	r3, #0
   27f52:	460c      	mov	r4, r1
   27f54:	4611      	mov	r1, r2
   27f56:	461a      	mov	r2, r3
   27f58:	df04      	svc	4
   27f5a:	e735      	b.n	27dc8 <_start+0xd0>
   27f5c:	460c      	mov	r4, r1
   27f5e:	4840      	ldr	r0, [pc, #256]	@ (28060 <_start+0x368>)
   27f60:	2107      	movs	r1, #7
   27f62:	2200      	movs	r2, #0
   27f64:	4613      	mov	r3, r2
   27f66:	df03      	svc	3
   27f68:	e72e      	b.n	27dc8 <_start+0xd0>
   27f6a:	4839      	ldr	r0, [pc, #228]	@ (28050 <_start+0x358>)
   27f6c:	4468      	add	r0, sp
   27f6e:	7800      	ldrb	r0, [r0, #0]
   27f70:	2802      	cmp	r0, #2
   27f72:	d00c      	beq.n	27f8e <_start+0x296>
   27f74:	2803      	cmp	r0, #3
   27f76:	d105      	bne.n	27f84 <_start+0x28c>
   27f78:	4839      	ldr	r0, [pc, #228]	@ (28060 <_start+0x368>)
   27f7a:	2107      	movs	r1, #7
   27f7c:	2200      	movs	r2, #0
   27f7e:	4613      	mov	r3, r2
   27f80:	df03      	svc	3
   27f82:	e004      	b.n	27f8e <_start+0x296>
   27f84:	4836      	ldr	r0, [pc, #216]	@ (28060 <_start+0x368>)
   27f86:	2107      	movs	r1, #7
   27f88:	2200      	movs	r2, #0
   27f8a:	4613      	mov	r3, r2
   27f8c:	df04      	svc	4
   27f8e:	4830      	ldr	r0, [pc, #192]	@ (28050 <_start+0x358>)
   27f90:	4468      	add	r0, sp
   27f92:	9909      	ldr	r1, [sp, #36]	@ 0x24
   27f94:	7001      	strb	r1, [r0, #0]
   27f96:	482c      	ldr	r0, [pc, #176]	@ (28048 <_start+0x350>)
   27f98:	4468      	add	r0, sp
   27f9a:	7800      	ldrb	r0, [r0, #0]
   27f9c:	2804      	cmp	r0, #4
   27f9e:	d007      	beq.n	27fb0 <_start+0x2b8>
   27fa0:	2803      	cmp	r0, #3
   27fa2:	d132      	bne.n	2800a <_start+0x312>
   27fa4:	482e      	ldr	r0, [pc, #184]	@ (28060 <_start+0x368>)
   27fa6:	2100      	movs	r1, #0
   27fa8:	460a      	mov	r2, r1
   27faa:	460b      	mov	r3, r1
   27fac:	df03      	svc	3
   27fae:	e004      	b.n	27fba <_start+0x2c2>
   27fb0:	482b      	ldr	r0, [pc, #172]	@ (28060 <_start+0x368>)
   27fb2:	2100      	movs	r1, #0
   27fb4:	460a      	mov	r2, r1
   27fb6:	460b      	mov	r3, r1
   27fb8:	df04      	svc	4
   27fba:	78a0      	ldrb	r0, [r4, #2]
   27fbc:	a92f      	add	r1, sp, #188	@ 0xbc
   27fbe:	7088      	strb	r0, [r1, #2]
   27fc0:	7820      	ldrb	r0, [r4, #0]
   27fc2:	7862      	ldrb	r2, [r4, #1]
   27fc4:	0212      	lsls	r2, r2, #8
   27fc6:	1810      	adds	r0, r2, r0
   27fc8:	8008      	strh	r0, [r1, #0]
   27fca:	4821      	ldr	r0, [pc, #132]	@ (28050 <_start+0x358>)
   27fcc:	4468      	add	r0, sp
   27fce:	7800      	ldrb	r0, [r0, #0]
   27fd0:	491d      	ldr	r1, [pc, #116]	@ (28048 <_start+0x350>)
   27fd2:	4469      	add	r1, sp
   27fd4:	3108      	adds	r1, #8
   27fd6:	9a07      	ldr	r2, [sp, #28]
   27fd8:	6812      	ldr	r2, [r2, #0]
   27fda:	9206      	str	r2, [sp, #24]
   27fdc:	aa1f      	add	r2, sp, #124	@ 0x7c
   27fde:	c968      	ldmia	r1!, {r3, r5, r6}
   27fe0:	c268      	stmia	r2!, {r3, r5, r6}
   27fe2:	c978      	ldmia	r1!, {r3, r4, r5, r6}
   27fe4:	c278      	stmia	r2!, {r3, r4, r5, r6}
   27fe6:	c978      	ldmia	r1!, {r3, r4, r5, r6}
   27fe8:	c278      	stmia	r2!, {r3, r4, r5, r6}
   27fea:	c978      	ldmia	r1!, {r3, r4, r5, r6}
   27fec:	c278      	stmia	r2!, {r3, r4, r5, r6}
   27fee:	880b      	ldrh	r3, [r1, #0]
   27ff0:	8013      	strh	r3, [r2, #0]
   27ff2:	7889      	ldrb	r1, [r1, #2]
   27ff4:	7091      	strb	r1, [r2, #2]
   27ff6:	2802      	cmp	r0, #2
   27ff8:	d039      	beq.n	2806e <_start+0x376>
   27ffa:	2804      	cmp	r0, #4
   27ffc:	d132      	bne.n	28064 <_start+0x36c>
   27ffe:	4818      	ldr	r0, [pc, #96]	@ (28060 <_start+0x368>)
   28000:	2107      	movs	r1, #7
   28002:	2200      	movs	r2, #0
   28004:	4613      	mov	r3, r2
   28006:	df04      	svc	4
   28008:	e031      	b.n	2806e <_start+0x376>
   2800a:	78a0      	ldrb	r0, [r4, #2]
   2800c:	a92f      	add	r1, sp, #188	@ 0xbc
   2800e:	7088      	strb	r0, [r1, #2]
   28010:	7820      	ldrb	r0, [r4, #0]
   28012:	7862      	ldrb	r2, [r4, #1]
   28014:	0212      	lsls	r2, r2, #8
   28016:	1810      	adds	r0, r2, r0
   28018:	8008      	strh	r0, [r1, #0]
   2801a:	480b      	ldr	r0, [pc, #44]	@ (28048 <_start+0x350>)
   2801c:	4468      	add	r0, sp
   2801e:	3008      	adds	r0, #8
   28020:	9907      	ldr	r1, [sp, #28]
   28022:	6809      	ldr	r1, [r1, #0]
   28024:	9106      	str	r1, [sp, #24]
   28026:	a91f      	add	r1, sp, #124	@ 0x7c
   28028:	c82c      	ldmia	r0!, {r2, r3, r5}
   2802a:	c12c      	stmia	r1!, {r2, r3, r5}
   2802c:	c86c      	ldmia	r0!, {r2, r3, r5, r6}
   2802e:	c16c      	stmia	r1!, {r2, r3, r5, r6}
   28030:	c86c      	ldmia	r0!, {r2, r3, r5, r6}
   28032:	c16c      	stmia	r1!, {r2, r3, r5, r6}
   28034:	c86c      	ldmia	r0!, {r2, r3, r5, r6}
   28036:	c16c      	stmia	r1!, {r2, r3, r5, r6}
   28038:	8802      	ldrh	r2, [r0, #0]
   2803a:	800a      	strh	r2, [r1, #0]
   2803c:	7880      	ldrb	r0, [r0, #2]
   2803e:	7088      	strb	r0, [r1, #2]
   28040:	e015      	b.n	2806e <_start+0x376>
   28042:	46c0      	nop			@ (mov r8, r8)
   28044:	ffffeadc 	.word	0xffffeadc
   28048:	000013a8 	.word	0x000013a8
   2804c:	000013ac 	.word	0x000013ac
   28050:	00001404 	.word	0x00001404
   28054:	00002006 	.word	0x00002006
   28058:	00000508 	.word	0x00000508
   2805c:	000007dc 	.word	0x000007dc
   28060:	000020c4 	.word	0x000020c4
   28064:	48da      	ldr	r0, [pc, #872]	@ (283d0 <_start+0x6d8>)
   28066:	2107      	movs	r1, #7
   28068:	2200      	movs	r2, #0
   2806a:	4613      	mov	r3, r2
   2806c:	df03      	svc	3
   2806e:	a82f      	add	r0, sp, #188	@ 0xbc
   28070:	7881      	ldrb	r1, [r0, #2]
   28072:	4ad8      	ldr	r2, [pc, #864]	@ (283d4 <_start+0x6dc>)
   28074:	446a      	add	r2, sp
   28076:	920a      	str	r2, [sp, #40]	@ 0x28
   28078:	70d1      	strb	r1, [r2, #3]
   2807a:	7840      	ldrb	r0, [r0, #1]
   2807c:	7090      	strb	r0, [r2, #2]
   2807e:	982f      	ldr	r0, [sp, #188]	@ 0xbc
   28080:	7050      	strb	r0, [r2, #1]
   28082:	a91f      	add	r1, sp, #124	@ 0x7c
   28084:	a80c      	add	r0, sp, #48	@ 0x30
   28086:	4602      	mov	r2, r0
   28088:	c938      	ldmia	r1!, {r3, r4, r5}
   2808a:	c238      	stmia	r2!, {r3, r4, r5}
   2808c:	c978      	ldmia	r1!, {r3, r4, r5, r6}
   2808e:	c278      	stmia	r2!, {r3, r4, r5, r6}
   28090:	c978      	ldmia	r1!, {r3, r4, r5, r6}
   28092:	c278      	stmia	r2!, {r3, r4, r5, r6}
   28094:	c978      	ldmia	r1!, {r3, r4, r5, r6}
   28096:	c278      	stmia	r2!, {r3, r4, r5, r6}
   28098:	880b      	ldrh	r3, [r1, #0]
   2809a:	8013      	strh	r3, [r2, #0]
   2809c:	7889      	ldrb	r1, [r1, #2]
   2809e:	7091      	strb	r1, [r2, #2]
   280a0:	990a      	ldr	r1, [sp, #40]	@ 0x28
   280a2:	3108      	adds	r1, #8
   280a4:	c81c      	ldmia	r0!, {r2, r3, r4}
   280a6:	c11c      	stmia	r1!, {r2, r3, r4}
   280a8:	c83c      	ldmia	r0!, {r2, r3, r4, r5}
   280aa:	c13c      	stmia	r1!, {r2, r3, r4, r5}
   280ac:	c83c      	ldmia	r0!, {r2, r3, r4, r5}
   280ae:	c13c      	stmia	r1!, {r2, r3, r4, r5}
   280b0:	c83c      	ldmia	r0!, {r2, r3, r4, r5}
   280b2:	c13c      	stmia	r1!, {r2, r3, r4, r5}
   280b4:	8802      	ldrh	r2, [r0, #0]
   280b6:	800a      	strh	r2, [r1, #0]
   280b8:	7880      	ldrb	r0, [r0, #2]
   280ba:	7088      	strb	r0, [r1, #2]
   280bc:	9e09      	ldr	r6, [sp, #36]	@ 0x24
   280be:	9d0a      	ldr	r5, [sp, #40]	@ 0x28
   280c0:	702e      	strb	r6, [r5, #0]
   280c2:	9808      	ldr	r0, [sp, #32]
   280c4:	9906      	ldr	r1, [sp, #24]
   280c6:	6601      	str	r1, [r0, #96]	@ 0x60
   280c8:	4cc3      	ldr	r4, [pc, #780]	@ (283d8 <_start+0x6e0>)
   280ca:	446c      	add	r4, sp
   280cc:	1c60      	adds	r0, r4, #1
   280ce:	2118      	movs	r1, #24
   280d0:	9006      	str	r0, [sp, #24]
   280d2:	f002 fe59 	bl	2ad88 <__aeabi_memclr>
   280d6:	7026      	strb	r6, [r4, #0]
   280d8:	1c6a      	adds	r2, r5, #1
   280da:	48c0      	ldr	r0, [pc, #768]	@ (283dc <_start+0x6e4>)
   280dc:	2403      	movs	r4, #3
   280de:	2346      	movs	r3, #70	@ 0x46
   280e0:	4621      	mov	r1, r4
   280e2:	df04      	svc	4
   280e4:	2802      	cmp	r0, #2
   280e6:	d02b      	beq.n	28140 <_start+0x448>
   280e8:	48ba      	ldr	r0, [pc, #744]	@ (283d4 <_start+0x6dc>)
   280ea:	4468      	add	r0, sp
   280ec:	990b      	ldr	r1, [sp, #44]	@ 0x2c
   280ee:	7001      	strb	r1, [r0, #0]
   280f0:	48ba      	ldr	r0, [pc, #744]	@ (283dc <_start+0x6e4>)
   280f2:	2102      	movs	r1, #2
   280f4:	2318      	movs	r3, #24
   280f6:	9d06      	ldr	r5, [sp, #24]
   280f8:	462a      	mov	r2, r5
   280fa:	df03      	svc	3
   280fc:	2802      	cmp	r0, #2
   280fe:	d10d      	bne.n	2811c <_start+0x424>
   28100:	48b5      	ldr	r0, [pc, #724]	@ (283d8 <_start+0x6e0>)
   28102:	4468      	add	r0, sp
   28104:	7800      	ldrb	r0, [r0, #0]
   28106:	2802      	cmp	r0, #2
   28108:	d01a      	beq.n	28140 <_start+0x448>
   2810a:	460c      	mov	r4, r1
   2810c:	2803      	cmp	r0, #3
   2810e:	d011      	beq.n	28134 <_start+0x43c>
   28110:	48b2      	ldr	r0, [pc, #712]	@ (283dc <_start+0x6e4>)
   28112:	2102      	movs	r1, #2
   28114:	2200      	movs	r2, #0
   28116:	4613      	mov	r3, r2
   28118:	df04      	svc	4
   2811a:	e010      	b.n	2813e <_start+0x446>
   2811c:	48ae      	ldr	r0, [pc, #696]	@ (283d8 <_start+0x6e0>)
   2811e:	4468      	add	r0, sp
   28120:	7004      	strb	r4, [r0, #0]
   28122:	48ae      	ldr	r0, [pc, #696]	@ (283dc <_start+0x6e4>)
   28124:	2602      	movs	r6, #2
   28126:	2300      	movs	r3, #0
   28128:	4621      	mov	r1, r4
   2812a:	4632      	mov	r2, r6
   2812c:	df02      	svc	2
   2812e:	2880      	cmp	r0, #128	@ 0x80
   28130:	d21d      	bcs.n	2816e <_start+0x476>
   28132:	460c      	mov	r4, r1
   28134:	48a9      	ldr	r0, [pc, #676]	@ (283dc <_start+0x6e4>)
   28136:	2102      	movs	r1, #2
   28138:	2200      	movs	r2, #0
   2813a:	4613      	mov	r3, r2
   2813c:	df03      	svc	3
   2813e:	4621      	mov	r1, r4
   28140:	48a4      	ldr	r0, [pc, #656]	@ (283d4 <_start+0x6dc>)
   28142:	4468      	add	r0, sp
   28144:	7800      	ldrb	r0, [r0, #0]
   28146:	2802      	cmp	r0, #2
   28148:	d100      	bne.n	2814c <_start+0x454>
   2814a:	e63e      	b.n	27dca <_start+0xd2>
   2814c:	2804      	cmp	r0, #4
   2814e:	d107      	bne.n	28160 <_start+0x468>
   28150:	48a2      	ldr	r0, [pc, #648]	@ (283dc <_start+0x6e4>)
   28152:	2203      	movs	r2, #3
   28154:	2300      	movs	r3, #0
   28156:	460c      	mov	r4, r1
   28158:	4611      	mov	r1, r2
   2815a:	461a      	mov	r2, r3
   2815c:	df04      	svc	4
   2815e:	e633      	b.n	27dc8 <_start+0xd0>
   28160:	460c      	mov	r4, r1
   28162:	489e      	ldr	r0, [pc, #632]	@ (283dc <_start+0x6e4>)
   28164:	2103      	movs	r1, #3
   28166:	2200      	movs	r2, #0
   28168:	4613      	mov	r3, r2
   2816a:	df03      	svc	3
   2816c:	e62c      	b.n	27dc8 <_start+0xd0>
   2816e:	4899      	ldr	r0, [pc, #612]	@ (283d4 <_start+0x6dc>)
   28170:	4468      	add	r0, sp
   28172:	7800      	ldrb	r0, [r0, #0]
   28174:	2802      	cmp	r0, #2
   28176:	d00c      	beq.n	28192 <_start+0x49a>
   28178:	2803      	cmp	r0, #3
   2817a:	d105      	bne.n	28188 <_start+0x490>
   2817c:	4897      	ldr	r0, [pc, #604]	@ (283dc <_start+0x6e4>)
   2817e:	2103      	movs	r1, #3
   28180:	2200      	movs	r2, #0
   28182:	4613      	mov	r3, r2
   28184:	df03      	svc	3
   28186:	e004      	b.n	28192 <_start+0x49a>
   28188:	4894      	ldr	r0, [pc, #592]	@ (283dc <_start+0x6e4>)
   2818a:	2103      	movs	r1, #3
   2818c:	2200      	movs	r2, #0
   2818e:	4613      	mov	r3, r2
   28190:	df04      	svc	4
   28192:	4890      	ldr	r0, [pc, #576]	@ (283d4 <_start+0x6dc>)
   28194:	4468      	add	r0, sp
   28196:	7006      	strb	r6, [r0, #0]
   28198:	488f      	ldr	r0, [pc, #572]	@ (283d8 <_start+0x6e0>)
   2819a:	4468      	add	r0, sp
   2819c:	7800      	ldrb	r0, [r0, #0]
   2819e:	2804      	cmp	r0, #4
   281a0:	9402      	str	r4, [sp, #8]
   281a2:	960a      	str	r6, [sp, #40]	@ 0x28
   281a4:	d007      	beq.n	281b6 <_start+0x4be>
   281a6:	2803      	cmp	r0, #3
   281a8:	d12a      	bne.n	28200 <_start+0x508>
   281aa:	488c      	ldr	r0, [pc, #560]	@ (283dc <_start+0x6e4>)
   281ac:	2102      	movs	r1, #2
   281ae:	2200      	movs	r2, #0
   281b0:	4613      	mov	r3, r2
   281b2:	df03      	svc	3
   281b4:	e004      	b.n	281c0 <_start+0x4c8>
   281b6:	4889      	ldr	r0, [pc, #548]	@ (283dc <_start+0x6e4>)
   281b8:	2102      	movs	r1, #2
   281ba:	2200      	movs	r2, #0
   281bc:	4613      	mov	r3, r2
   281be:	df04      	svc	4
   281c0:	78a8      	ldrb	r0, [r5, #2]
   281c2:	a934      	add	r1, sp, #208	@ 0xd0
   281c4:	7088      	strb	r0, [r1, #2]
   281c6:	7828      	ldrb	r0, [r5, #0]
   281c8:	786a      	ldrb	r2, [r5, #1]
   281ca:	0212      	lsls	r2, r2, #8
   281cc:	1810      	adds	r0, r2, r0
   281ce:	8008      	strh	r0, [r1, #0]
   281d0:	4880      	ldr	r0, [pc, #512]	@ (283d4 <_start+0x6dc>)
   281d2:	4468      	add	r0, sp
   281d4:	7800      	ldrb	r0, [r0, #0]
   281d6:	4980      	ldr	r1, [pc, #512]	@ (283d8 <_start+0x6e0>)
   281d8:	4469      	add	r1, sp
   281da:	3108      	adds	r1, #8
   281dc:	9a07      	ldr	r2, [sp, #28]
   281de:	6812      	ldr	r2, [r2, #0]
   281e0:	9209      	str	r2, [sp, #36]	@ 0x24
   281e2:	aa2f      	add	r2, sp, #188	@ 0xbc
   281e4:	c978      	ldmia	r1!, {r3, r4, r5, r6}
   281e6:	c278      	stmia	r2!, {r3, r4, r5, r6}
   281e8:	7809      	ldrb	r1, [r1, #0]
   281ea:	7011      	strb	r1, [r2, #0]
   281ec:	2802      	cmp	r0, #2
   281ee:	d020      	beq.n	28232 <_start+0x53a>
   281f0:	2804      	cmp	r0, #4
   281f2:	d119      	bne.n	28228 <_start+0x530>
   281f4:	4879      	ldr	r0, [pc, #484]	@ (283dc <_start+0x6e4>)
   281f6:	2103      	movs	r1, #3
   281f8:	2200      	movs	r2, #0
   281fa:	4613      	mov	r3, r2
   281fc:	df04      	svc	4
   281fe:	e018      	b.n	28232 <_start+0x53a>
   28200:	78a8      	ldrb	r0, [r5, #2]
   28202:	a934      	add	r1, sp, #208	@ 0xd0
   28204:	7088      	strb	r0, [r1, #2]
   28206:	7828      	ldrb	r0, [r5, #0]
   28208:	786a      	ldrb	r2, [r5, #1]
   2820a:	0212      	lsls	r2, r2, #8
   2820c:	1810      	adds	r0, r2, r0
   2820e:	8008      	strh	r0, [r1, #0]
   28210:	4871      	ldr	r0, [pc, #452]	@ (283d8 <_start+0x6e0>)
   28212:	4468      	add	r0, sp
   28214:	3008      	adds	r0, #8
   28216:	9907      	ldr	r1, [sp, #28]
   28218:	6809      	ldr	r1, [r1, #0]
   2821a:	9109      	str	r1, [sp, #36]	@ 0x24
   2821c:	a92f      	add	r1, sp, #188	@ 0xbc
   2821e:	c86c      	ldmia	r0!, {r2, r3, r5, r6}
   28220:	c16c      	stmia	r1!, {r2, r3, r5, r6}
   28222:	7800      	ldrb	r0, [r0, #0]
   28224:	7008      	strb	r0, [r1, #0]
   28226:	e004      	b.n	28232 <_start+0x53a>
   28228:	486c      	ldr	r0, [pc, #432]	@ (283dc <_start+0x6e4>)
   2822a:	2103      	movs	r1, #3
   2822c:	2200      	movs	r2, #0
   2822e:	4613      	mov	r3, r2
   28230:	df03      	svc	3
   28232:	a834      	add	r0, sp, #208	@ 0xd0
   28234:	7881      	ldrb	r1, [r0, #2]
   28236:	aa1f      	add	r2, sp, #124	@ 0x7c
   28238:	9206      	str	r2, [sp, #24]
   2823a:	70d1      	strb	r1, [r2, #3]
   2823c:	7840      	ldrb	r0, [r0, #1]
   2823e:	7090      	strb	r0, [r2, #2]
   28240:	9834      	ldr	r0, [sp, #208]	@ 0xd0
   28242:	7050      	strb	r0, [r2, #1]
   28244:	a82f      	add	r0, sp, #188	@ 0xbc
   28246:	a90c      	add	r1, sp, #48	@ 0x30
   28248:	460a      	mov	r2, r1
   2824a:	c878      	ldmia	r0!, {r3, r4, r5, r6}
   2824c:	c278      	stmia	r2!, {r3, r4, r5, r6}
   2824e:	7800      	ldrb	r0, [r0, #0]
   28250:	7010      	strb	r0, [r2, #0]
   28252:	9e06      	ldr	r6, [sp, #24]
   28254:	4630      	mov	r0, r6
   28256:	3008      	adds	r0, #8
   28258:	c93c      	ldmia	r1!, {r2, r3, r4, r5}
   2825a:	c03c      	stmia	r0!, {r2, r3, r4, r5}
   2825c:	7809      	ldrb	r1, [r1, #0]
   2825e:	7001      	strb	r1, [r0, #0]
   28260:	9c0a      	ldr	r4, [sp, #40]	@ 0x28
   28262:	7034      	strb	r4, [r6, #0]
   28264:	9809      	ldr	r0, [sp, #36]	@ 0x24
   28266:	9020      	str	r0, [sp, #128]	@ 0x80
   28268:	4d5a      	ldr	r5, [pc, #360]	@ (283d4 <_start+0x6dc>)
   2826a:	446d      	add	r5, sp
   2826c:	1c68      	adds	r0, r5, #1
   2826e:	2136      	movs	r1, #54	@ 0x36
   28270:	9009      	str	r0, [sp, #36]	@ 0x24
   28272:	f002 fd89 	bl	2ad88 <__aeabi_memclr>
   28276:	702c      	strb	r4, [r5, #0]
   28278:	1c72      	adds	r2, r6, #1
   2827a:	4859      	ldr	r0, [pc, #356]	@ (283e0 <_start+0x6e8>)
   2827c:	2100      	movs	r1, #0
   2827e:	2318      	movs	r3, #24
   28280:	df04      	svc	4
   28282:	2802      	cmp	r0, #2
   28284:	d02a      	beq.n	282dc <_start+0x5e4>
   28286:	a81f      	add	r0, sp, #124	@ 0x7c
   28288:	990b      	ldr	r1, [sp, #44]	@ 0x2c
   2828a:	7001      	strb	r1, [r0, #0]
   2828c:	4854      	ldr	r0, [pc, #336]	@ (283e0 <_start+0x6e8>)
   2828e:	2107      	movs	r1, #7
   28290:	2336      	movs	r3, #54	@ 0x36
   28292:	9d09      	ldr	r5, [sp, #36]	@ 0x24
   28294:	462a      	mov	r2, r5
   28296:	df03      	svc	3
   28298:	2802      	cmp	r0, #2
   2829a:	d10d      	bne.n	282b8 <_start+0x5c0>
   2829c:	484d      	ldr	r0, [pc, #308]	@ (283d4 <_start+0x6dc>)
   2829e:	4468      	add	r0, sp
   282a0:	7800      	ldrb	r0, [r0, #0]
   282a2:	2802      	cmp	r0, #2
   282a4:	d01a      	beq.n	282dc <_start+0x5e4>
   282a6:	460c      	mov	r4, r1
   282a8:	2803      	cmp	r0, #3
   282aa:	d011      	beq.n	282d0 <_start+0x5d8>
   282ac:	484c      	ldr	r0, [pc, #304]	@ (283e0 <_start+0x6e8>)
   282ae:	2107      	movs	r1, #7
   282b0:	2200      	movs	r2, #0
   282b2:	4613      	mov	r3, r2
   282b4:	df04      	svc	4
   282b6:	e010      	b.n	282da <_start+0x5e2>
   282b8:	4846      	ldr	r0, [pc, #280]	@ (283d4 <_start+0x6dc>)
   282ba:	4468      	add	r0, sp
   282bc:	9902      	ldr	r1, [sp, #8]
   282be:	7001      	strb	r1, [r0, #0]
   282c0:	4847      	ldr	r0, [pc, #284]	@ (283e0 <_start+0x6e8>)
   282c2:	2207      	movs	r2, #7
   282c4:	2100      	movs	r1, #0
   282c6:	460b      	mov	r3, r1
   282c8:	df02      	svc	2
   282ca:	2880      	cmp	r0, #128	@ 0x80
   282cc:	d21b      	bcs.n	28306 <_start+0x60e>
   282ce:	460c      	mov	r4, r1
   282d0:	4843      	ldr	r0, [pc, #268]	@ (283e0 <_start+0x6e8>)
   282d2:	2107      	movs	r1, #7
   282d4:	2200      	movs	r2, #0
   282d6:	4613      	mov	r3, r2
   282d8:	df03      	svc	3
   282da:	4621      	mov	r1, r4
   282dc:	a81f      	add	r0, sp, #124	@ 0x7c
   282de:	7800      	ldrb	r0, [r0, #0]
   282e0:	2802      	cmp	r0, #2
   282e2:	d100      	bne.n	282e6 <_start+0x5ee>
   282e4:	e571      	b.n	27dca <_start+0xd2>
   282e6:	2804      	cmp	r0, #4
   282e8:	d106      	bne.n	282f8 <_start+0x600>
   282ea:	483d      	ldr	r0, [pc, #244]	@ (283e0 <_start+0x6e8>)
   282ec:	2200      	movs	r2, #0
   282ee:	460c      	mov	r4, r1
   282f0:	4611      	mov	r1, r2
   282f2:	4613      	mov	r3, r2
   282f4:	df04      	svc	4
   282f6:	e567      	b.n	27dc8 <_start+0xd0>
   282f8:	460c      	mov	r4, r1
   282fa:	4839      	ldr	r0, [pc, #228]	@ (283e0 <_start+0x6e8>)
   282fc:	2100      	movs	r1, #0
   282fe:	460a      	mov	r2, r1
   28300:	460b      	mov	r3, r1
   28302:	df03      	svc	3
   28304:	e560      	b.n	27dc8 <_start+0xd0>
   28306:	a81f      	add	r0, sp, #124	@ 0x7c
   28308:	7800      	ldrb	r0, [r0, #0]
   2830a:	2802      	cmp	r0, #2
   2830c:	d00c      	beq.n	28328 <_start+0x630>
   2830e:	2803      	cmp	r0, #3
   28310:	d105      	bne.n	2831e <_start+0x626>
   28312:	4833      	ldr	r0, [pc, #204]	@ (283e0 <_start+0x6e8>)
   28314:	2100      	movs	r1, #0
   28316:	460a      	mov	r2, r1
   28318:	460b      	mov	r3, r1
   2831a:	df03      	svc	3
   2831c:	e004      	b.n	28328 <_start+0x630>
   2831e:	4830      	ldr	r0, [pc, #192]	@ (283e0 <_start+0x6e8>)
   28320:	2100      	movs	r1, #0
   28322:	460a      	mov	r2, r1
   28324:	460b      	mov	r3, r1
   28326:	df04      	svc	4
   28328:	a81f      	add	r0, sp, #124	@ 0x7c
   2832a:	7004      	strb	r4, [r0, #0]
   2832c:	4829      	ldr	r0, [pc, #164]	@ (283d4 <_start+0x6dc>)
   2832e:	4468      	add	r0, sp
   28330:	7800      	ldrb	r0, [r0, #0]
   28332:	2804      	cmp	r0, #4
   28334:	d007      	beq.n	28346 <_start+0x64e>
   28336:	2803      	cmp	r0, #3
   28338:	d12f      	bne.n	2839a <_start+0x6a2>
   2833a:	4829      	ldr	r0, [pc, #164]	@ (283e0 <_start+0x6e8>)
   2833c:	2107      	movs	r1, #7
   2833e:	2200      	movs	r2, #0
   28340:	4613      	mov	r3, r2
   28342:	df03      	svc	3
   28344:	e004      	b.n	28350 <_start+0x658>
   28346:	4826      	ldr	r0, [pc, #152]	@ (283e0 <_start+0x6e8>)
   28348:	2107      	movs	r1, #7
   2834a:	2200      	movs	r2, #0
   2834c:	4613      	mov	r3, r2
   2834e:	df04      	svc	4
   28350:	78a8      	ldrb	r0, [r5, #2]
   28352:	a92f      	add	r1, sp, #188	@ 0xbc
   28354:	7088      	strb	r0, [r1, #2]
   28356:	7828      	ldrb	r0, [r5, #0]
   28358:	786a      	ldrb	r2, [r5, #1]
   2835a:	0212      	lsls	r2, r2, #8
   2835c:	1810      	adds	r0, r2, r0
   2835e:	8008      	strh	r0, [r1, #0]
   28360:	a81f      	add	r0, sp, #124	@ 0x7c
   28362:	7800      	ldrb	r0, [r0, #0]
   28364:	491b      	ldr	r1, [pc, #108]	@ (283d4 <_start+0x6dc>)
   28366:	4469      	add	r1, sp
   28368:	3108      	adds	r1, #8
   2836a:	9a08      	ldr	r2, [sp, #32]
   2836c:	6e12      	ldr	r2, [r2, #96]	@ 0x60
   2836e:	9209      	str	r2, [sp, #36]	@ 0x24
   28370:	aa0c      	add	r2, sp, #48	@ 0x30
   28372:	c958      	ldmia	r1!, {r3, r4, r6}
   28374:	c258      	stmia	r2!, {r3, r4, r6}
   28376:	c978      	ldmia	r1!, {r3, r4, r5, r6}
   28378:	c278      	stmia	r2!, {r3, r4, r5, r6}
   2837a:	c978      	ldmia	r1!, {r3, r4, r5, r6}
   2837c:	c278      	stmia	r2!, {r3, r4, r5, r6}
   2837e:	880b      	ldrh	r3, [r1, #0]
   28380:	8013      	strh	r3, [r2, #0]
   28382:	7889      	ldrb	r1, [r1, #2]
   28384:	7091      	strb	r1, [r2, #2]
   28386:	2802      	cmp	r0, #2
   28388:	d031      	beq.n	283ee <_start+0x6f6>
   2838a:	2804      	cmp	r0, #4
   2838c:	d12a      	bne.n	283e4 <_start+0x6ec>
   2838e:	4814      	ldr	r0, [pc, #80]	@ (283e0 <_start+0x6e8>)
   28390:	2100      	movs	r1, #0
   28392:	460a      	mov	r2, r1
   28394:	460b      	mov	r3, r1
   28396:	df04      	svc	4
   28398:	e029      	b.n	283ee <_start+0x6f6>
   2839a:	78a8      	ldrb	r0, [r5, #2]
   2839c:	a92f      	add	r1, sp, #188	@ 0xbc
   2839e:	7088      	strb	r0, [r1, #2]
   283a0:	7828      	ldrb	r0, [r5, #0]
   283a2:	786a      	ldrb	r2, [r5, #1]
   283a4:	0212      	lsls	r2, r2, #8
   283a6:	1810      	adds	r0, r2, r0
   283a8:	8008      	strh	r0, [r1, #0]
   283aa:	480a      	ldr	r0, [pc, #40]	@ (283d4 <_start+0x6dc>)
   283ac:	4468      	add	r0, sp
   283ae:	3008      	adds	r0, #8
   283b0:	9908      	ldr	r1, [sp, #32]
   283b2:	6e09      	ldr	r1, [r1, #96]	@ 0x60
   283b4:	9109      	str	r1, [sp, #36]	@ 0x24
   283b6:	a90c      	add	r1, sp, #48	@ 0x30
   283b8:	c81c      	ldmia	r0!, {r2, r3, r4}
   283ba:	c11c      	stmia	r1!, {r2, r3, r4}
   283bc:	c85c      	ldmia	r0!, {r2, r3, r4, r6}
   283be:	c15c      	stmia	r1!, {r2, r3, r4, r6}
   283c0:	c85c      	ldmia	r0!, {r2, r3, r4, r6}
   283c2:	c15c      	stmia	r1!, {r2, r3, r4, r6}
   283c4:	8802      	ldrh	r2, [r0, #0]
   283c6:	800a      	strh	r2, [r1, #0]
   283c8:	7880      	ldrb	r0, [r0, #2]
   283ca:	7088      	strb	r0, [r1, #2]
   283cc:	e00f      	b.n	283ee <_start+0x6f6>
   283ce:	46c0      	nop			@ (mov r8, r8)
   283d0:	000020c4 	.word	0x000020c4
   283d4:	00001404 	.word	0x00001404
   283d8:	000013a8 	.word	0x000013a8
   283dc:	000023cf 	.word	0x000023cf
   283e0:	0000021f 	.word	0x0000021f
   283e4:	48dc      	ldr	r0, [pc, #880]	@ (28758 <_start+0xa60>)
   283e6:	2100      	movs	r1, #0
   283e8:	460a      	mov	r2, r1
   283ea:	460b      	mov	r3, r1
   283ec:	df03      	svc	3
   283ee:	a82f      	add	r0, sp, #188	@ 0xbc
   283f0:	7881      	ldrb	r1, [r0, #2]
   283f2:	4ada      	ldr	r2, [pc, #872]	@ (2875c <_start+0xa64>)
   283f4:	446a      	add	r2, sp
   283f6:	9206      	str	r2, [sp, #24]
   283f8:	70d1      	strb	r1, [r2, #3]
   283fa:	7840      	ldrb	r0, [r0, #1]
   283fc:	7090      	strb	r0, [r2, #2]
   283fe:	982f      	ldr	r0, [sp, #188]	@ 0xbc
   28400:	7050      	strb	r0, [r2, #1]
   28402:	a90c      	add	r1, sp, #48	@ 0x30
   28404:	48d6      	ldr	r0, [pc, #856]	@ (28760 <_start+0xa68>)
   28406:	4468      	add	r0, sp
   28408:	4602      	mov	r2, r0
   2840a:	c938      	ldmia	r1!, {r3, r4, r5}
   2840c:	c238      	stmia	r2!, {r3, r4, r5}
   2840e:	c978      	ldmia	r1!, {r3, r4, r5, r6}
   28410:	c278      	stmia	r2!, {r3, r4, r5, r6}
   28412:	c978      	ldmia	r1!, {r3, r4, r5, r6}
   28414:	c278      	stmia	r2!, {r3, r4, r5, r6}
   28416:	880b      	ldrh	r3, [r1, #0]
   28418:	8013      	strh	r3, [r2, #0]
   2841a:	7889      	ldrb	r1, [r1, #2]
   2841c:	7091      	strb	r1, [r2, #2]
   2841e:	9e06      	ldr	r6, [sp, #24]
   28420:	4631      	mov	r1, r6
   28422:	3108      	adds	r1, #8
   28424:	c81c      	ldmia	r0!, {r2, r3, r4}
   28426:	c11c      	stmia	r1!, {r2, r3, r4}
   28428:	c83c      	ldmia	r0!, {r2, r3, r4, r5}
   2842a:	c13c      	stmia	r1!, {r2, r3, r4, r5}
   2842c:	c83c      	ldmia	r0!, {r2, r3, r4, r5}
   2842e:	c13c      	stmia	r1!, {r2, r3, r4, r5}
   28430:	8802      	ldrh	r2, [r0, #0]
   28432:	800a      	strh	r2, [r1, #0]
   28434:	7880      	ldrb	r0, [r0, #2]
   28436:	7088      	strb	r0, [r1, #2]
   28438:	980a      	ldr	r0, [sp, #40]	@ 0x28
   2843a:	4635      	mov	r5, r6
   2843c:	7030      	strb	r0, [r6, #0]
   2843e:	4606      	mov	r6, r0
   28440:	9808      	ldr	r0, [sp, #32]
   28442:	9909      	ldr	r1, [sp, #36]	@ 0x24
   28444:	6601      	str	r1, [r0, #96]	@ 0x60
   28446:	4cc6      	ldr	r4, [pc, #792]	@ (28760 <_start+0xa68>)
   28448:	446c      	add	r4, sp
   2844a:	1c60      	adds	r0, r4, #1
   2844c:	2125      	movs	r1, #37	@ 0x25
   2844e:	9009      	str	r0, [sp, #36]	@ 0x24
   28450:	f002 fc9a 	bl	2ad88 <__aeabi_memclr>
   28454:	7026      	strb	r6, [r4, #0]
   28456:	1c6a      	adds	r2, r5, #1
   28458:	48c2      	ldr	r0, [pc, #776]	@ (28764 <_start+0xa6c>)
   2845a:	2107      	movs	r1, #7
   2845c:	2336      	movs	r3, #54	@ 0x36
   2845e:	df04      	svc	4
   28460:	2802      	cmp	r0, #2
   28462:	d02b      	beq.n	284bc <_start+0x7c4>
   28464:	48bd      	ldr	r0, [pc, #756]	@ (2875c <_start+0xa64>)
   28466:	4468      	add	r0, sp
   28468:	990b      	ldr	r1, [sp, #44]	@ 0x2c
   2846a:	7001      	strb	r1, [r0, #0]
   2846c:	48bd      	ldr	r0, [pc, #756]	@ (28764 <_start+0xa6c>)
   2846e:	2100      	movs	r1, #0
   28470:	2325      	movs	r3, #37	@ 0x25
   28472:	9e09      	ldr	r6, [sp, #36]	@ 0x24
   28474:	4632      	mov	r2, r6
   28476:	df03      	svc	3
   28478:	2802      	cmp	r0, #2
   2847a:	d10d      	bne.n	28498 <_start+0x7a0>
   2847c:	9106      	str	r1, [sp, #24]
   2847e:	48b8      	ldr	r0, [pc, #736]	@ (28760 <_start+0xa68>)
   28480:	4468      	add	r0, sp
   28482:	7800      	ldrb	r0, [r0, #0]
   28484:	2802      	cmp	r0, #2
   28486:	d018      	beq.n	284ba <_start+0x7c2>
   28488:	2803      	cmp	r0, #3
   2848a:	d011      	beq.n	284b0 <_start+0x7b8>
   2848c:	48b5      	ldr	r0, [pc, #724]	@ (28764 <_start+0xa6c>)
   2848e:	2100      	movs	r1, #0
   28490:	460a      	mov	r2, r1
   28492:	460b      	mov	r3, r1
   28494:	df04      	svc	4
   28496:	e010      	b.n	284ba <_start+0x7c2>
   28498:	48b1      	ldr	r0, [pc, #708]	@ (28760 <_start+0xa68>)
   2849a:	4468      	add	r0, sp
   2849c:	9902      	ldr	r1, [sp, #8]
   2849e:	7001      	strb	r1, [r0, #0]
   284a0:	48b0      	ldr	r0, [pc, #704]	@ (28764 <_start+0xa6c>)
   284a2:	2107      	movs	r1, #7
   284a4:	2200      	movs	r2, #0
   284a6:	4613      	mov	r3, r2
   284a8:	df02      	svc	2
   284aa:	9106      	str	r1, [sp, #24]
   284ac:	2880      	cmp	r0, #128	@ 0x80
   284ae:	d21a      	bcs.n	284e6 <_start+0x7ee>
   284b0:	48ac      	ldr	r0, [pc, #688]	@ (28764 <_start+0xa6c>)
   284b2:	2100      	movs	r1, #0
   284b4:	460a      	mov	r2, r1
   284b6:	460b      	mov	r3, r1
   284b8:	df03      	svc	3
   284ba:	9906      	ldr	r1, [sp, #24]
   284bc:	48a7      	ldr	r0, [pc, #668]	@ (2875c <_start+0xa64>)
   284be:	4468      	add	r0, sp
   284c0:	7800      	ldrb	r0, [r0, #0]
   284c2:	2802      	cmp	r0, #2
   284c4:	d100      	bne.n	284c8 <_start+0x7d0>
   284c6:	e480      	b.n	27dca <_start+0xd2>
   284c8:	460c      	mov	r4, r1
   284ca:	2804      	cmp	r0, #4
   284cc:	d105      	bne.n	284da <_start+0x7e2>
   284ce:	48a5      	ldr	r0, [pc, #660]	@ (28764 <_start+0xa6c>)
   284d0:	2107      	movs	r1, #7
   284d2:	2200      	movs	r2, #0
   284d4:	4613      	mov	r3, r2
   284d6:	df04      	svc	4
   284d8:	e476      	b.n	27dc8 <_start+0xd0>
   284da:	48a2      	ldr	r0, [pc, #648]	@ (28764 <_start+0xa6c>)
   284dc:	2107      	movs	r1, #7
   284de:	2200      	movs	r2, #0
   284e0:	4613      	mov	r3, r2
   284e2:	df03      	svc	3
   284e4:	e470      	b.n	27dc8 <_start+0xd0>
   284e6:	4634      	mov	r4, r6
   284e8:	489c      	ldr	r0, [pc, #624]	@ (2875c <_start+0xa64>)
   284ea:	4468      	add	r0, sp
   284ec:	7800      	ldrb	r0, [r0, #0]
   284ee:	2802      	cmp	r0, #2
   284f0:	d00c      	beq.n	2850c <_start+0x814>
   284f2:	2803      	cmp	r0, #3
   284f4:	d105      	bne.n	28502 <_start+0x80a>
   284f6:	489b      	ldr	r0, [pc, #620]	@ (28764 <_start+0xa6c>)
   284f8:	2107      	movs	r1, #7
   284fa:	2200      	movs	r2, #0
   284fc:	4613      	mov	r3, r2
   284fe:	df03      	svc	3
   28500:	e004      	b.n	2850c <_start+0x814>
   28502:	4898      	ldr	r0, [pc, #608]	@ (28764 <_start+0xa6c>)
   28504:	2107      	movs	r1, #7
   28506:	2200      	movs	r2, #0
   28508:	4613      	mov	r3, r2
   2850a:	df04      	svc	4
   2850c:	4893      	ldr	r0, [pc, #588]	@ (2875c <_start+0xa64>)
   2850e:	4468      	add	r0, sp
   28510:	990a      	ldr	r1, [sp, #40]	@ 0x28
   28512:	7001      	strb	r1, [r0, #0]
   28514:	4892      	ldr	r0, [pc, #584]	@ (28760 <_start+0xa68>)
   28516:	4468      	add	r0, sp
   28518:	7800      	ldrb	r0, [r0, #0]
   2851a:	2804      	cmp	r0, #4
   2851c:	d007      	beq.n	2852e <_start+0x836>
   2851e:	2803      	cmp	r0, #3
   28520:	d12c      	bne.n	2857c <_start+0x884>
   28522:	4890      	ldr	r0, [pc, #576]	@ (28764 <_start+0xa6c>)
   28524:	2100      	movs	r1, #0
   28526:	460a      	mov	r2, r1
   28528:	460b      	mov	r3, r1
   2852a:	df03      	svc	3
   2852c:	e004      	b.n	28538 <_start+0x840>
   2852e:	488d      	ldr	r0, [pc, #564]	@ (28764 <_start+0xa6c>)
   28530:	2100      	movs	r1, #0
   28532:	460a      	mov	r2, r1
   28534:	460b      	mov	r3, r1
   28536:	df04      	svc	4
   28538:	78a0      	ldrb	r0, [r4, #2]
   2853a:	a92f      	add	r1, sp, #188	@ 0xbc
   2853c:	7088      	strb	r0, [r1, #2]
   2853e:	7820      	ldrb	r0, [r4, #0]
   28540:	7862      	ldrb	r2, [r4, #1]
   28542:	0212      	lsls	r2, r2, #8
   28544:	1810      	adds	r0, r2, r0
   28546:	8008      	strh	r0, [r1, #0]
   28548:	4884      	ldr	r0, [pc, #528]	@ (2875c <_start+0xa64>)
   2854a:	4468      	add	r0, sp
   2854c:	7800      	ldrb	r0, [r0, #0]
   2854e:	4984      	ldr	r1, [pc, #528]	@ (28760 <_start+0xa68>)
   28550:	4469      	add	r1, sp
   28552:	3108      	adds	r1, #8
   28554:	9a07      	ldr	r2, [sp, #28]
   28556:	6812      	ldr	r2, [r2, #0]
   28558:	9209      	str	r2, [sp, #36]	@ 0x24
   2855a:	aa1f      	add	r2, sp, #124	@ 0x7c
   2855c:	c958      	ldmia	r1!, {r3, r4, r6}
   2855e:	c258      	stmia	r2!, {r3, r4, r6}
   28560:	c978      	ldmia	r1!, {r3, r4, r5, r6}
   28562:	c278      	stmia	r2!, {r3, r4, r5, r6}
   28564:	8809      	ldrh	r1, [r1, #0]
   28566:	8011      	strh	r1, [r2, #0]
   28568:	2802      	cmp	r0, #2
   2856a:	d022      	beq.n	285b2 <_start+0x8ba>
   2856c:	2804      	cmp	r0, #4
   2856e:	d11b      	bne.n	285a8 <_start+0x8b0>
   28570:	487c      	ldr	r0, [pc, #496]	@ (28764 <_start+0xa6c>)
   28572:	2107      	movs	r1, #7
   28574:	2200      	movs	r2, #0
   28576:	4613      	mov	r3, r2
   28578:	df04      	svc	4
   2857a:	e01a      	b.n	285b2 <_start+0x8ba>
   2857c:	78a0      	ldrb	r0, [r4, #2]
   2857e:	a92f      	add	r1, sp, #188	@ 0xbc
   28580:	7088      	strb	r0, [r1, #2]
   28582:	7820      	ldrb	r0, [r4, #0]
   28584:	7862      	ldrb	r2, [r4, #1]
   28586:	0212      	lsls	r2, r2, #8
   28588:	1810      	adds	r0, r2, r0
   2858a:	8008      	strh	r0, [r1, #0]
   2858c:	4874      	ldr	r0, [pc, #464]	@ (28760 <_start+0xa68>)
   2858e:	4468      	add	r0, sp
   28590:	3008      	adds	r0, #8
   28592:	9907      	ldr	r1, [sp, #28]
   28594:	6809      	ldr	r1, [r1, #0]
   28596:	9109      	str	r1, [sp, #36]	@ 0x24
   28598:	a91f      	add	r1, sp, #124	@ 0x7c
   2859a:	c81c      	ldmia	r0!, {r2, r3, r4}
   2859c:	c11c      	stmia	r1!, {r2, r3, r4}
   2859e:	c85c      	ldmia	r0!, {r2, r3, r4, r6}
   285a0:	c15c      	stmia	r1!, {r2, r3, r4, r6}
   285a2:	8800      	ldrh	r0, [r0, #0]
   285a4:	8008      	strh	r0, [r1, #0]
   285a6:	e004      	b.n	285b2 <_start+0x8ba>
   285a8:	486e      	ldr	r0, [pc, #440]	@ (28764 <_start+0xa6c>)
   285aa:	2107      	movs	r1, #7
   285ac:	2200      	movs	r2, #0
   285ae:	4613      	mov	r3, r2
   285b0:	df03      	svc	3
   285b2:	a82f      	add	r0, sp, #188	@ 0xbc
   285b4:	7881      	ldrb	r1, [r0, #2]
   285b6:	4a69      	ldr	r2, [pc, #420]	@ (2875c <_start+0xa64>)
   285b8:	446a      	add	r2, sp
   285ba:	9206      	str	r2, [sp, #24]
   285bc:	70d1      	strb	r1, [r2, #3]
   285be:	7840      	ldrb	r0, [r0, #1]
   285c0:	7090      	strb	r0, [r2, #2]
   285c2:	982f      	ldr	r0, [sp, #188]	@ 0xbc
   285c4:	7050      	strb	r0, [r2, #1]
   285c6:	a91f      	add	r1, sp, #124	@ 0x7c
   285c8:	a80c      	add	r0, sp, #48	@ 0x30
   285ca:	4602      	mov	r2, r0
   285cc:	c938      	ldmia	r1!, {r3, r4, r5}
   285ce:	c238      	stmia	r2!, {r3, r4, r5}
   285d0:	c978      	ldmia	r1!, {r3, r4, r5, r6}
   285d2:	c278      	stmia	r2!, {r3, r4, r5, r6}
   285d4:	8809      	ldrh	r1, [r1, #0]
   285d6:	8011      	strh	r1, [r2, #0]
   285d8:	9e06      	ldr	r6, [sp, #24]
   285da:	4631      	mov	r1, r6
   285dc:	3108      	adds	r1, #8
   285de:	c81c      	ldmia	r0!, {r2, r3, r4}
   285e0:	c11c      	stmia	r1!, {r2, r3, r4}
   285e2:	c83c      	ldmia	r0!, {r2, r3, r4, r5}
   285e4:	c13c      	stmia	r1!, {r2, r3, r4, r5}
   285e6:	8800      	ldrh	r0, [r0, #0]
   285e8:	8008      	strh	r0, [r1, #0]
   285ea:	9d0a      	ldr	r5, [sp, #40]	@ 0x28
   285ec:	7035      	strb	r5, [r6, #0]
   285ee:	9808      	ldr	r0, [sp, #32]
   285f0:	9909      	ldr	r1, [sp, #36]	@ 0x24
   285f2:	6601      	str	r1, [r0, #96]	@ 0x60
   285f4:	4c5a      	ldr	r4, [pc, #360]	@ (28760 <_start+0xa68>)
   285f6:	446c      	add	r4, sp
   285f8:	1c60      	adds	r0, r4, #1
   285fa:	210e      	movs	r1, #14
   285fc:	9009      	str	r0, [sp, #36]	@ 0x24
   285fe:	f002 fbc3 	bl	2ad88 <__aeabi_memclr>
   28602:	7025      	strb	r5, [r4, #0]
   28604:	1c72      	adds	r2, r6, #1
   28606:	4858      	ldr	r0, [pc, #352]	@ (28768 <_start+0xa70>)
   28608:	2325      	movs	r3, #37	@ 0x25
   2860a:	4629      	mov	r1, r5
   2860c:	df04      	svc	4
   2860e:	2802      	cmp	r0, #2
   28610:	d101      	bne.n	28616 <_start+0x91e>
   28612:	460d      	mov	r5, r1
   28614:	e02a      	b.n	2866c <_start+0x974>
   28616:	4851      	ldr	r0, [pc, #324]	@ (2875c <_start+0xa64>)
   28618:	4468      	add	r0, sp
   2861a:	990b      	ldr	r1, [sp, #44]	@ 0x2c
   2861c:	7001      	strb	r1, [r0, #0]
   2861e:	4852      	ldr	r0, [pc, #328]	@ (28768 <_start+0xa70>)
   28620:	2108      	movs	r1, #8
   28622:	230e      	movs	r3, #14
   28624:	9a09      	ldr	r2, [sp, #36]	@ 0x24
   28626:	df03      	svc	3
   28628:	2802      	cmp	r0, #2
   2862a:	d10d      	bne.n	28648 <_start+0x950>
   2862c:	460d      	mov	r5, r1
   2862e:	484c      	ldr	r0, [pc, #304]	@ (28760 <_start+0xa68>)
   28630:	4468      	add	r0, sp
   28632:	7800      	ldrb	r0, [r0, #0]
   28634:	2802      	cmp	r0, #2
   28636:	d019      	beq.n	2866c <_start+0x974>
   28638:	2803      	cmp	r0, #3
   2863a:	d012      	beq.n	28662 <_start+0x96a>
   2863c:	484a      	ldr	r0, [pc, #296]	@ (28768 <_start+0xa70>)
   2863e:	2108      	movs	r1, #8
   28640:	2200      	movs	r2, #0
   28642:	4613      	mov	r3, r2
   28644:	df04      	svc	4
   28646:	e011      	b.n	2866c <_start+0x974>
   28648:	4845      	ldr	r0, [pc, #276]	@ (28760 <_start+0xa68>)
   2864a:	4468      	add	r0, sp
   2864c:	9902      	ldr	r1, [sp, #8]
   2864e:	7001      	strb	r1, [r0, #0]
   28650:	4845      	ldr	r0, [pc, #276]	@ (28768 <_start+0xa70>)
   28652:	2402      	movs	r4, #2
   28654:	2208      	movs	r2, #8
   28656:	2300      	movs	r3, #0
   28658:	4621      	mov	r1, r4
   2865a:	df02      	svc	2
   2865c:	2880      	cmp	r0, #128	@ 0x80
   2865e:	d21d      	bcs.n	2869c <_start+0x9a4>
   28660:	460d      	mov	r5, r1
   28662:	4841      	ldr	r0, [pc, #260]	@ (28768 <_start+0xa70>)
   28664:	2108      	movs	r1, #8
   28666:	2200      	movs	r2, #0
   28668:	4613      	mov	r3, r2
   2866a:	df03      	svc	3
   2866c:	483b      	ldr	r0, [pc, #236]	@ (2875c <_start+0xa64>)
   2866e:	4468      	add	r0, sp
   28670:	7800      	ldrb	r0, [r0, #0]
   28672:	2802      	cmp	r0, #2
   28674:	d00c      	beq.n	28690 <_start+0x998>
   28676:	2804      	cmp	r0, #4
   28678:	d105      	bne.n	28686 <_start+0x98e>
   2867a:	483b      	ldr	r0, [pc, #236]	@ (28768 <_start+0xa70>)
   2867c:	2102      	movs	r1, #2
   2867e:	2200      	movs	r2, #0
   28680:	4613      	mov	r3, r2
   28682:	df04      	svc	4
   28684:	e004      	b.n	28690 <_start+0x998>
   28686:	4838      	ldr	r0, [pc, #224]	@ (28768 <_start+0xa70>)
   28688:	2102      	movs	r1, #2
   2868a:	2200      	movs	r2, #0
   2868c:	4613      	mov	r3, r2
   2868e:	df03      	svc	3
   28690:	2001      	movs	r0, #1
   28692:	4629      	mov	r1, r5
   28694:	1ffe      	subs	r6, r7, #7
   28696:	3e05      	subs	r6, #5
   28698:	46b5      	mov	sp, r6
   2869a:	bdf0      	pop	{r4, r5, r6, r7, pc}
   2869c:	482f      	ldr	r0, [pc, #188]	@ (2875c <_start+0xa64>)
   2869e:	4468      	add	r0, sp
   286a0:	7800      	ldrb	r0, [r0, #0]
   286a2:	2802      	cmp	r0, #2
   286a4:	d00c      	beq.n	286c0 <_start+0x9c8>
   286a6:	2803      	cmp	r0, #3
   286a8:	d105      	bne.n	286b6 <_start+0x9be>
   286aa:	482f      	ldr	r0, [pc, #188]	@ (28768 <_start+0xa70>)
   286ac:	2102      	movs	r1, #2
   286ae:	2200      	movs	r2, #0
   286b0:	4613      	mov	r3, r2
   286b2:	df03      	svc	3
   286b4:	e004      	b.n	286c0 <_start+0x9c8>
   286b6:	482c      	ldr	r0, [pc, #176]	@ (28768 <_start+0xa70>)
   286b8:	2102      	movs	r1, #2
   286ba:	2200      	movs	r2, #0
   286bc:	4613      	mov	r3, r2
   286be:	df04      	svc	4
   286c0:	4826      	ldr	r0, [pc, #152]	@ (2875c <_start+0xa64>)
   286c2:	4468      	add	r0, sp
   286c4:	7004      	strb	r4, [r0, #0]
   286c6:	4826      	ldr	r0, [pc, #152]	@ (28760 <_start+0xa68>)
   286c8:	4468      	add	r0, sp
   286ca:	7800      	ldrb	r0, [r0, #0]
   286cc:	2804      	cmp	r0, #4
   286ce:	d007      	beq.n	286e0 <_start+0x9e8>
   286d0:	2803      	cmp	r0, #3
   286d2:	d12b      	bne.n	2872c <_start+0xa34>
   286d4:	4824      	ldr	r0, [pc, #144]	@ (28768 <_start+0xa70>)
   286d6:	2108      	movs	r1, #8
   286d8:	2200      	movs	r2, #0
   286da:	4613      	mov	r3, r2
   286dc:	df03      	svc	3
   286de:	e004      	b.n	286ea <_start+0x9f2>
   286e0:	4821      	ldr	r0, [pc, #132]	@ (28768 <_start+0xa70>)
   286e2:	2108      	movs	r1, #8
   286e4:	2200      	movs	r2, #0
   286e6:	4613      	mov	r3, r2
   286e8:	df04      	svc	4
   286ea:	a81f      	add	r0, sp, #124	@ 0x7c
   286ec:	9b07      	ldr	r3, [sp, #28]
   286ee:	6899      	ldr	r1, [r3, #8]
   286f0:	8081      	strh	r1, [r0, #4]
   286f2:	9c09      	ldr	r4, [sp, #36]	@ 0x24
   286f4:	78a1      	ldrb	r1, [r4, #2]
   286f6:	aa2f      	add	r2, sp, #188	@ 0xbc
   286f8:	7091      	strb	r1, [r2, #2]
   286fa:	4919      	ldr	r1, [pc, #100]	@ (28760 <_start+0xa68>)
   286fc:	4469      	add	r1, sp
   286fe:	7b89      	ldrb	r1, [r1, #14]
   28700:	7181      	strb	r1, [r0, #6]
   28702:	7820      	ldrb	r0, [r4, #0]
   28704:	7861      	ldrb	r1, [r4, #1]
   28706:	0209      	lsls	r1, r1, #8
   28708:	1808      	adds	r0, r1, r0
   2870a:	8010      	strh	r0, [r2, #0]
   2870c:	6858      	ldr	r0, [r3, #4]
   2870e:	901f      	str	r0, [sp, #124]	@ 0x7c
   28710:	4812      	ldr	r0, [pc, #72]	@ (2875c <_start+0xa64>)
   28712:	4468      	add	r0, sp
   28714:	7800      	ldrb	r0, [r0, #0]
   28716:	681d      	ldr	r5, [r3, #0]
   28718:	2802      	cmp	r0, #2
   2871a:	d02f      	beq.n	2877c <_start+0xa84>
   2871c:	2804      	cmp	r0, #4
   2871e:	d125      	bne.n	2876c <_start+0xa74>
   28720:	4811      	ldr	r0, [pc, #68]	@ (28768 <_start+0xa70>)
   28722:	2102      	movs	r1, #2
   28724:	2200      	movs	r2, #0
   28726:	4613      	mov	r3, r2
   28728:	df04      	svc	4
   2872a:	e027      	b.n	2877c <_start+0xa84>
   2872c:	a81f      	add	r0, sp, #124	@ 0x7c
   2872e:	9b07      	ldr	r3, [sp, #28]
   28730:	6899      	ldr	r1, [r3, #8]
   28732:	8081      	strh	r1, [r0, #4]
   28734:	9c09      	ldr	r4, [sp, #36]	@ 0x24
   28736:	78a1      	ldrb	r1, [r4, #2]
   28738:	aa2f      	add	r2, sp, #188	@ 0xbc
   2873a:	7091      	strb	r1, [r2, #2]
   2873c:	4908      	ldr	r1, [pc, #32]	@ (28760 <_start+0xa68>)
   2873e:	4469      	add	r1, sp
   28740:	7b89      	ldrb	r1, [r1, #14]
   28742:	7181      	strb	r1, [r0, #6]
   28744:	7820      	ldrb	r0, [r4, #0]
   28746:	7861      	ldrb	r1, [r4, #1]
   28748:	0209      	lsls	r1, r1, #8
   2874a:	1808      	adds	r0, r1, r0
   2874c:	8010      	strh	r0, [r2, #0]
   2874e:	6858      	ldr	r0, [r3, #4]
   28750:	901f      	str	r0, [sp, #124]	@ 0x7c
   28752:	681d      	ldr	r5, [r3, #0]
   28754:	e012      	b.n	2877c <_start+0xa84>
   28756:	46c0      	nop			@ (mov r8, r8)
   28758:	0000021f 	.word	0x0000021f
   2875c:	00001404 	.word	0x00001404
   28760:	000013a8 	.word	0x000013a8
   28764:	00001597 	.word	0x00001597
   28768:	00000667 	.word	0x00000667
   2876c:	4802      	ldr	r0, [pc, #8]	@ (28778 <_start+0xa80>)
   2876e:	2102      	movs	r1, #2
   28770:	2200      	movs	r2, #0
   28772:	4613      	mov	r3, r2
   28774:	df03      	svc	3
   28776:	e001      	b.n	2877c <_start+0xa84>
   28778:	00000667 	.word	0x00000667
   2877c:	ac35      	add	r4, sp, #212	@ 0xd4
   2877e:	982f      	ldr	r0, [sp, #188]	@ 0xbc
   28780:	8020      	strh	r0, [r4, #0]
   28782:	a90c      	add	r1, sp, #48	@ 0x30
   28784:	9820      	ldr	r0, [sp, #128]	@ 0x80
   28786:	8088      	strh	r0, [r1, #4]
   28788:	a82f      	add	r0, sp, #188	@ 0xbc
   2878a:	7880      	ldrb	r0, [r0, #2]
   2878c:	70a0      	strb	r0, [r4, #2]
   2878e:	a81f      	add	r0, sp, #124	@ 0x7c
   28790:	7980      	ldrb	r0, [r0, #6]
   28792:	7188      	strb	r0, [r1, #6]
   28794:	70e5      	strb	r5, [r4, #3]
   28796:	0e28      	lsrs	r0, r5, #24
   28798:	71a0      	strb	r0, [r4, #6]
   2879a:	0c28      	lsrs	r0, r5, #16
   2879c:	7160      	strb	r0, [r4, #5]
   2879e:	0a28      	lsrs	r0, r5, #8
   287a0:	7120      	strb	r0, [r4, #4]
   287a2:	981f      	ldr	r0, [sp, #124]	@ 0x7c
   287a4:	900c      	str	r0, [sp, #48]	@ 0x30
   287a6:	1de0      	adds	r0, r4, #7
   287a8:	2207      	movs	r2, #7
   287aa:	f002 fcad 	bl	2b108 <__aeabi_memcpy>
   287ae:	4d05      	ldr	r5, [pc, #20]	@ (287c4 <_start+0xacc>)
   287b0:	446d      	add	r5, sp
   287b2:	4628      	mov	r0, r5
   287b4:	4621      	mov	r1, r4
   287b6:	f7fc fedb 	bl	25570 <_ZN20complex_dynamic_type3app17hb03d5d7eab6d8335E>
   287ba:	7828      	ldrb	r0, [r5, #0]
   287bc:	2801      	cmp	r0, #1
   287be:	d103      	bne.n	287c8 <_start+0xad0>
   287c0:	f002 fa8a 	bl	2acd8 <_start+0x2fe0>
   287c4:	00001404 	.word	0x00001404
   287c8:	4915      	ldr	r1, [pc, #84]	@ (28820 <_start+0xb28>)
   287ca:	4469      	add	r1, sp
   287cc:	78c8      	ldrb	r0, [r1, #3]
   287ce:	ac39      	add	r4, sp, #228	@ 0xe4
   287d0:	70a0      	strb	r0, [r4, #2]
   287d2:	7848      	ldrb	r0, [r1, #1]
   287d4:	788a      	ldrb	r2, [r1, #2]
   287d6:	0212      	lsls	r2, r2, #8
   287d8:	1810      	adds	r0, r2, r0
   287da:	8020      	strh	r0, [r4, #0]
   287dc:	9808      	ldr	r0, [sp, #32]
   287de:	6e06      	ldr	r6, [r0, #96]	@ 0x60
   287e0:	3108      	adds	r1, #8
   287e2:	4d10      	ldr	r5, [pc, #64]	@ (28824 <_start+0xb2c>)
   287e4:	446d      	add	r5, sp
   287e6:	2241      	movs	r2, #65	@ 0x41
   287e8:	920b      	str	r2, [sp, #44]	@ 0x2c
   287ea:	4628      	mov	r0, r5
   287ec:	f002 fb2c 	bl	2ae48 <__aeabi_memcpy4>
   287f0:	0e30      	lsrs	r0, r6, #24
   287f2:	71a0      	strb	r0, [r4, #6]
   287f4:	0c30      	lsrs	r0, r6, #16
   287f6:	7160      	strb	r0, [r4, #5]
   287f8:	0a30      	lsrs	r0, r6, #8
   287fa:	7120      	strb	r0, [r4, #4]
   287fc:	70e6      	strb	r6, [r4, #3]
   287fe:	1de0      	adds	r0, r4, #7
   28800:	4629      	mov	r1, r5
   28802:	9a0b      	ldr	r2, [sp, #44]	@ 0x2c
   28804:	f002 fc80 	bl	2b108 <__aeabi_memcpy>
   28808:	4d05      	ldr	r5, [pc, #20]	@ (28820 <_start+0xb28>)
   2880a:	446d      	add	r5, sp
   2880c:	4628      	mov	r0, r5
   2880e:	4621      	mov	r1, r4
   28810:	f7f9 faf6 	bl	21e00 <_ZN20complex_dynamic_type3app17h3c1c32ee6c9d2cf1E>
   28814:	7828      	ldrb	r0, [r5, #0]
   28816:	2801      	cmp	r0, #1
   28818:	d106      	bne.n	28828 <_start+0xb30>
   2881a:	f002 fa5d 	bl	2acd8 <_start+0x2fe0>
   2881e:	46c0      	nop			@ (mov r8, r8)
   28820:	00001404 	.word	0x00001404
   28824:	000013a8 	.word	0x000013a8
   28828:	9805      	ldr	r0, [sp, #20]
   2882a:	1cc0      	adds	r0, r0, #3
   2882c:	4a15      	ldr	r2, [pc, #84]	@ (28884 <_start+0xb8c>)
   2882e:	446a      	add	r2, sp
   28830:	78d3      	ldrb	r3, [r2, #3]
   28832:	a94b      	add	r1, sp, #300	@ 0x12c
   28834:	708b      	strb	r3, [r1, #2]
   28836:	7853      	ldrb	r3, [r2, #1]
   28838:	7892      	ldrb	r2, [r2, #2]
   2883a:	0212      	lsls	r2, r2, #8
   2883c:	18d2      	adds	r2, r2, r3
   2883e:	800a      	strh	r2, [r1, #0]
   28840:	9c08      	ldr	r4, [sp, #32]
   28842:	3460      	adds	r4, #96	@ 0x60
   28844:	cc1c      	ldmia	r4, {r2, r3, r4}
   28846:	0e25      	lsrs	r5, r4, #24
   28848:	72c5      	strb	r5, [r0, #11]
   2884a:	0c25      	lsrs	r5, r4, #16
   2884c:	7285      	strb	r5, [r0, #10]
   2884e:	0a25      	lsrs	r5, r4, #8
   28850:	7245      	strb	r5, [r0, #9]
   28852:	7204      	strb	r4, [r0, #8]
   28854:	0e1c      	lsrs	r4, r3, #24
   28856:	71c4      	strb	r4, [r0, #7]
   28858:	0c1c      	lsrs	r4, r3, #16
   2885a:	7184      	strb	r4, [r0, #6]
   2885c:	0a1c      	lsrs	r4, r3, #8
   2885e:	7144      	strb	r4, [r0, #5]
   28860:	7103      	strb	r3, [r0, #4]
   28862:	0e13      	lsrs	r3, r2, #24
   28864:	70c3      	strb	r3, [r0, #3]
   28866:	0c13      	lsrs	r3, r2, #16
   28868:	7083      	strb	r3, [r0, #2]
   2886a:	0a13      	lsrs	r3, r2, #8
   2886c:	7043      	strb	r3, [r0, #1]
   2886e:	7002      	strb	r2, [r0, #0]
   28870:	4c04      	ldr	r4, [pc, #16]	@ (28884 <_start+0xb8c>)
   28872:	446c      	add	r4, sp
   28874:	4620      	mov	r0, r4
   28876:	f7f9 ff63 	bl	22740 <_ZN20complex_dynamic_type3app17h569e448ae6c1ba36E>
   2887a:	7820      	ldrb	r0, [r4, #0]
   2887c:	2801      	cmp	r0, #1
   2887e:	d103      	bne.n	28888 <_start+0xb90>
   28880:	f002 fa2a 	bl	2acd8 <_start+0x2fe0>
   28884:	00001404 	.word	0x00001404
   28888:	4817      	ldr	r0, [pc, #92]	@ (288e8 <_start+0xbf0>)
   2888a:	4468      	add	r0, sp
   2888c:	78c1      	ldrb	r1, [r0, #3]
   2888e:	ac4f      	add	r4, sp, #316	@ 0x13c
   28890:	70a1      	strb	r1, [r4, #2]
   28892:	7841      	ldrb	r1, [r0, #1]
   28894:	7882      	ldrb	r2, [r0, #2]
   28896:	0212      	lsls	r2, r2, #8
   28898:	1851      	adds	r1, r2, r1
   2889a:	8021      	strh	r1, [r4, #0]
   2889c:	3008      	adds	r0, #8
   2889e:	9908      	ldr	r1, [sp, #32]
   288a0:	6e09      	ldr	r1, [r1, #96]	@ 0x60
   288a2:	910a      	str	r1, [sp, #40]	@ 0x28
   288a4:	4b11      	ldr	r3, [pc, #68]	@ (288ec <_start+0xbf4>)
   288a6:	446b      	add	r3, sp
   288a8:	930b      	str	r3, [sp, #44]	@ 0x2c
   288aa:	c864      	ldmia	r0!, {r2, r5, r6}
   288ac:	c364      	stmia	r3!, {r2, r5, r6}
   288ae:	c866      	ldmia	r0!, {r1, r2, r5, r6}
   288b0:	c366      	stmia	r3!, {r1, r2, r5, r6}
   288b2:	8800      	ldrh	r0, [r0, #0]
   288b4:	8018      	strh	r0, [r3, #0]
   288b6:	990a      	ldr	r1, [sp, #40]	@ 0x28
   288b8:	0e08      	lsrs	r0, r1, #24
   288ba:	71a0      	strb	r0, [r4, #6]
   288bc:	0c08      	lsrs	r0, r1, #16
   288be:	7160      	strb	r0, [r4, #5]
   288c0:	0a08      	lsrs	r0, r1, #8
   288c2:	7120      	strb	r0, [r4, #4]
   288c4:	70e1      	strb	r1, [r4, #3]
   288c6:	1de0      	adds	r0, r4, #7
   288c8:	221e      	movs	r2, #30
   288ca:	990b      	ldr	r1, [sp, #44]	@ 0x2c
   288cc:	f002 fc1c 	bl	2b108 <__aeabi_memcpy>
   288d0:	4d05      	ldr	r5, [pc, #20]	@ (288e8 <_start+0xbf0>)
   288d2:	446d      	add	r5, sp
   288d4:	4628      	mov	r0, r5
   288d6:	4621      	mov	r1, r4
   288d8:	f7fc ff9c 	bl	25814 <_ZN20complex_dynamic_type3app17hb384715a68268b10E>
   288dc:	7828      	ldrb	r0, [r5, #0]
   288de:	2801      	cmp	r0, #1
   288e0:	d106      	bne.n	288f0 <_start+0xbf8>
   288e2:	f002 f9f9 	bl	2acd8 <_start+0x2fe0>
   288e6:	46c0      	nop			@ (mov r8, r8)
   288e8:	00001404 	.word	0x00001404
   288ec:	000013a8 	.word	0x000013a8
   288f0:	4818      	ldr	r0, [pc, #96]	@ (28954 <_start+0xc5c>)
   288f2:	4468      	add	r0, sp
   288f4:	78c1      	ldrb	r1, [r0, #3]
   288f6:	ac59      	add	r4, sp, #356	@ 0x164
   288f8:	70a1      	strb	r1, [r4, #2]
   288fa:	7841      	ldrb	r1, [r0, #1]
   288fc:	7882      	ldrb	r2, [r0, #2]
   288fe:	0212      	lsls	r2, r2, #8
   28900:	1851      	adds	r1, r2, r1
   28902:	8021      	strh	r1, [r4, #0]
   28904:	3008      	adds	r0, #8
   28906:	9908      	ldr	r1, [sp, #32]
   28908:	6e09      	ldr	r1, [r1, #96]	@ 0x60
   2890a:	910a      	str	r1, [sp, #40]	@ 0x28
   2890c:	4b12      	ldr	r3, [pc, #72]	@ (28958 <_start+0xc60>)
   2890e:	446b      	add	r3, sp
   28910:	930b      	str	r3, [sp, #44]	@ 0x2c
   28912:	c866      	ldmia	r0!, {r1, r2, r5, r6}
   28914:	c366      	stmia	r3!, {r1, r2, r5, r6}
   28916:	c866      	ldmia	r0!, {r1, r2, r5, r6}
   28918:	c366      	stmia	r3!, {r1, r2, r5, r6}
   2891a:	8801      	ldrh	r1, [r0, #0]
   2891c:	8019      	strh	r1, [r3, #0]
   2891e:	7880      	ldrb	r0, [r0, #2]
   28920:	7098      	strb	r0, [r3, #2]
   28922:	990a      	ldr	r1, [sp, #40]	@ 0x28
   28924:	0e08      	lsrs	r0, r1, #24
   28926:	71a0      	strb	r0, [r4, #6]
   28928:	0c08      	lsrs	r0, r1, #16
   2892a:	7160      	strb	r0, [r4, #5]
   2892c:	0a08      	lsrs	r0, r1, #8
   2892e:	7120      	strb	r0, [r4, #4]
   28930:	70e1      	strb	r1, [r4, #3]
   28932:	1de0      	adds	r0, r4, #7
   28934:	2223      	movs	r2, #35	@ 0x23
   28936:	990b      	ldr	r1, [sp, #44]	@ 0x2c
   28938:	f002 fbe6 	bl	2b108 <__aeabi_memcpy>
   2893c:	4d05      	ldr	r5, [pc, #20]	@ (28954 <_start+0xc5c>)
   2893e:	446d      	add	r5, sp
   28940:	4628      	mov	r0, r5
   28942:	4621      	mov	r1, r4
   28944:	f7fc fac6 	bl	24ed4 <_ZN20complex_dynamic_type3app17ha16940b78001fdd6E>
   28948:	7828      	ldrb	r0, [r5, #0]
   2894a:	2801      	cmp	r0, #1
   2894c:	d106      	bne.n	2895c <_start+0xc64>
   2894e:	f002 f9c3 	bl	2acd8 <_start+0x2fe0>
   28952:	46c0      	nop			@ (mov r8, r8)
   28954:	00001404 	.word	0x00001404
   28958:	000013a8 	.word	0x000013a8
   2895c:	4915      	ldr	r1, [pc, #84]	@ (289b4 <_start+0xcbc>)
   2895e:	4469      	add	r1, sp
   28960:	78c8      	ldrb	r0, [r1, #3]
   28962:	ac64      	add	r4, sp, #400	@ 0x190
   28964:	70a0      	strb	r0, [r4, #2]
   28966:	7848      	ldrb	r0, [r1, #1]
   28968:	788a      	ldrb	r2, [r1, #2]
   2896a:	0212      	lsls	r2, r2, #8
   2896c:	1810      	adds	r0, r2, r0
   2896e:	8020      	strh	r0, [r4, #0]
   28970:	9808      	ldr	r0, [sp, #32]
   28972:	6e06      	ldr	r6, [r0, #96]	@ 0x60
   28974:	3108      	adds	r1, #8
   28976:	4d10      	ldr	r5, [pc, #64]	@ (289b8 <_start+0xcc0>)
   28978:	446d      	add	r5, sp
   2897a:	225c      	movs	r2, #92	@ 0x5c
   2897c:	920b      	str	r2, [sp, #44]	@ 0x2c
   2897e:	4628      	mov	r0, r5
   28980:	f002 fa62 	bl	2ae48 <__aeabi_memcpy4>
   28984:	0e30      	lsrs	r0, r6, #24
   28986:	71a0      	strb	r0, [r4, #6]
   28988:	0c30      	lsrs	r0, r6, #16
   2898a:	7160      	strb	r0, [r4, #5]
   2898c:	0a30      	lsrs	r0, r6, #8
   2898e:	7120      	strb	r0, [r4, #4]
   28990:	70e6      	strb	r6, [r4, #3]
   28992:	1de0      	adds	r0, r4, #7
   28994:	4629      	mov	r1, r5
   28996:	9a0b      	ldr	r2, [sp, #44]	@ 0x2c
   28998:	f002 fbb6 	bl	2b108 <__aeabi_memcpy>
   2899c:	4d05      	ldr	r5, [pc, #20]	@ (289b4 <_start+0xcbc>)
   2899e:	446d      	add	r5, sp
   289a0:	4628      	mov	r0, r5
   289a2:	4621      	mov	r1, r4
   289a4:	f7fe fc64 	bl	27270 <_ZN20complex_dynamic_type3app17hec2e958fc06272d4E>
   289a8:	7828      	ldrb	r0, [r5, #0]
   289aa:	2801      	cmp	r0, #1
   289ac:	d106      	bne.n	289bc <_start+0xcc4>
   289ae:	f002 f993 	bl	2acd8 <_start+0x2fe0>
   289b2:	46c0      	nop			@ (mov r8, r8)
   289b4:	00001404 	.word	0x00001404
   289b8:	000013a8 	.word	0x000013a8
   289bc:	4816      	ldr	r0, [pc, #88]	@ (28a18 <_start+0xd20>)
   289be:	4468      	add	r0, sp
   289c0:	78c1      	ldrb	r1, [r0, #3]
   289c2:	ac7d      	add	r4, sp, #500	@ 0x1f4
   289c4:	70a1      	strb	r1, [r4, #2]
   289c6:	7841      	ldrb	r1, [r0, #1]
   289c8:	7882      	ldrb	r2, [r0, #2]
   289ca:	0212      	lsls	r2, r2, #8
   289cc:	1851      	adds	r1, r2, r1
   289ce:	8021      	strh	r1, [r4, #0]
   289d0:	3008      	adds	r0, #8
   289d2:	9908      	ldr	r1, [sp, #32]
   289d4:	6e09      	ldr	r1, [r1, #96]	@ 0x60
   289d6:	910a      	str	r1, [sp, #40]	@ 0x28
   289d8:	4b10      	ldr	r3, [pc, #64]	@ (28a1c <_start+0xd24>)
   289da:	446b      	add	r3, sp
   289dc:	930b      	str	r3, [sp, #44]	@ 0x2c
   289de:	c866      	ldmia	r0!, {r1, r2, r5, r6}
   289e0:	c366      	stmia	r3!, {r1, r2, r5, r6}
   289e2:	c866      	ldmia	r0!, {r1, r2, r5, r6}
   289e4:	c366      	stmia	r3!, {r1, r2, r5, r6}
   289e6:	990a      	ldr	r1, [sp, #40]	@ 0x28
   289e8:	0e08      	lsrs	r0, r1, #24
   289ea:	71a0      	strb	r0, [r4, #6]
   289ec:	0c08      	lsrs	r0, r1, #16
   289ee:	7160      	strb	r0, [r4, #5]
   289f0:	0a08      	lsrs	r0, r1, #8
   289f2:	7120      	strb	r0, [r4, #4]
   289f4:	70e1      	strb	r1, [r4, #3]
   289f6:	1de0      	adds	r0, r4, #7
   289f8:	2220      	movs	r2, #32
   289fa:	990b      	ldr	r1, [sp, #44]	@ 0x2c
   289fc:	f002 fb84 	bl	2b108 <__aeabi_memcpy>
   28a00:	4d05      	ldr	r5, [pc, #20]	@ (28a18 <_start+0xd20>)
   28a02:	446d      	add	r5, sp
   28a04:	4628      	mov	r0, r5
   28a06:	4621      	mov	r1, r4
   28a08:	f7fe fb8a 	bl	27120 <_ZN20complex_dynamic_type3app17heb997dde41f6ce9bE>
   28a0c:	7828      	ldrb	r0, [r5, #0]
   28a0e:	2801      	cmp	r0, #1
   28a10:	d106      	bne.n	28a20 <_start+0xd28>
   28a12:	f002 f961 	bl	2acd8 <_start+0x2fe0>
   28a16:	46c0      	nop			@ (mov r8, r8)
   28a18:	00001404 	.word	0x00001404
   28a1c:	000013a8 	.word	0x000013a8
   28a20:	4817      	ldr	r0, [pc, #92]	@ (28a80 <_start+0xd88>)
   28a22:	4468      	add	r0, sp
   28a24:	78c1      	ldrb	r1, [r0, #3]
   28a26:	ac87      	add	r4, sp, #540	@ 0x21c
   28a28:	70a1      	strb	r1, [r4, #2]
   28a2a:	7841      	ldrb	r1, [r0, #1]
   28a2c:	7882      	ldrb	r2, [r0, #2]
   28a2e:	0212      	lsls	r2, r2, #8
   28a30:	1851      	adds	r1, r2, r1
   28a32:	8021      	strh	r1, [r4, #0]
   28a34:	3008      	adds	r0, #8
   28a36:	9908      	ldr	r1, [sp, #32]
   28a38:	6e09      	ldr	r1, [r1, #96]	@ 0x60
   28a3a:	4b12      	ldr	r3, [pc, #72]	@ (28a84 <_start+0xd8c>)
   28a3c:	446b      	add	r3, sp
   28a3e:	930b      	str	r3, [sp, #44]	@ 0x2c
   28a40:	c860      	ldmia	r0!, {r5, r6}
   28a42:	c360      	stmia	r3!, {r5, r6}
   28a44:	c864      	ldmia	r0!, {r2, r5, r6}
   28a46:	c364      	stmia	r3!, {r2, r5, r6}
   28a48:	8802      	ldrh	r2, [r0, #0]
   28a4a:	801a      	strh	r2, [r3, #0]
   28a4c:	7880      	ldrb	r0, [r0, #2]
   28a4e:	7098      	strb	r0, [r3, #2]
   28a50:	0e08      	lsrs	r0, r1, #24
   28a52:	71a0      	strb	r0, [r4, #6]
   28a54:	0c08      	lsrs	r0, r1, #16
   28a56:	7160      	strb	r0, [r4, #5]
   28a58:	0a08      	lsrs	r0, r1, #8
   28a5a:	7120      	strb	r0, [r4, #4]
   28a5c:	70e1      	strb	r1, [r4, #3]
   28a5e:	1de0      	adds	r0, r4, #7
   28a60:	2217      	movs	r2, #23
   28a62:	990b      	ldr	r1, [sp, #44]	@ 0x2c
   28a64:	f002 fb50 	bl	2b108 <__aeabi_memcpy>
   28a68:	4d05      	ldr	r5, [pc, #20]	@ (28a80 <_start+0xd88>)
   28a6a:	446d      	add	r5, sp
   28a6c:	4628      	mov	r0, r5
   28a6e:	4621      	mov	r1, r4
   28a70:	f7fa f85c 	bl	22b2c <_ZN20complex_dynamic_type3app17h5bf9ec4f303103fcE>
   28a74:	7828      	ldrb	r0, [r5, #0]
   28a76:	2801      	cmp	r0, #1
   28a78:	d106      	bne.n	28a88 <_start+0xd90>
   28a7a:	f002 f92d 	bl	2acd8 <_start+0x2fe0>
   28a7e:	46c0      	nop			@ (mov r8, r8)
   28a80:	00001404 	.word	0x00001404
   28a84:	000013a8 	.word	0x000013a8
   28a88:	4817      	ldr	r0, [pc, #92]	@ (28ae8 <_start+0xdf0>)
   28a8a:	4468      	add	r0, sp
   28a8c:	78c1      	ldrb	r1, [r0, #3]
   28a8e:	ac8f      	add	r4, sp, #572	@ 0x23c
   28a90:	70a1      	strb	r1, [r4, #2]
   28a92:	7841      	ldrb	r1, [r0, #1]
   28a94:	7882      	ldrb	r2, [r0, #2]
   28a96:	0212      	lsls	r2, r2, #8
   28a98:	1851      	adds	r1, r2, r1
   28a9a:	8021      	strh	r1, [r4, #0]
   28a9c:	3008      	adds	r0, #8
   28a9e:	9908      	ldr	r1, [sp, #32]
   28aa0:	6e09      	ldr	r1, [r1, #96]	@ 0x60
   28aa2:	4b12      	ldr	r3, [pc, #72]	@ (28aec <_start+0xdf4>)
   28aa4:	446b      	add	r3, sp
   28aa6:	930b      	str	r3, [sp, #44]	@ 0x2c
   28aa8:	c864      	ldmia	r0!, {r2, r5, r6}
   28aaa:	c364      	stmia	r3!, {r2, r5, r6}
   28aac:	c864      	ldmia	r0!, {r2, r5, r6}
   28aae:	c364      	stmia	r3!, {r2, r5, r6}
   28ab0:	c864      	ldmia	r0!, {r2, r5, r6}
   28ab2:	c364      	stmia	r3!, {r2, r5, r6}
   28ab4:	7800      	ldrb	r0, [r0, #0]
   28ab6:	7018      	strb	r0, [r3, #0]
   28ab8:	0e08      	lsrs	r0, r1, #24
   28aba:	71a0      	strb	r0, [r4, #6]
   28abc:	0c08      	lsrs	r0, r1, #16
   28abe:	7160      	strb	r0, [r4, #5]
   28ac0:	0a08      	lsrs	r0, r1, #8
   28ac2:	7120      	strb	r0, [r4, #4]
   28ac4:	70e1      	strb	r1, [r4, #3]
   28ac6:	1de0      	adds	r0, r4, #7
   28ac8:	2225      	movs	r2, #37	@ 0x25
   28aca:	990b      	ldr	r1, [sp, #44]	@ 0x2c
   28acc:	f002 fb1c 	bl	2b108 <__aeabi_memcpy>
   28ad0:	4d05      	ldr	r5, [pc, #20]	@ (28ae8 <_start+0xdf0>)
   28ad2:	446d      	add	r5, sp
   28ad4:	4628      	mov	r0, r5
   28ad6:	4621      	mov	r1, r4
   28ad8:	f7fc ff44 	bl	25964 <_ZN20complex_dynamic_type3app17hb7e053492cd7fbd0E>
   28adc:	7828      	ldrb	r0, [r5, #0]
   28ade:	2801      	cmp	r0, #1
   28ae0:	d106      	bne.n	28af0 <_start+0xdf8>
   28ae2:	f002 f8f9 	bl	2acd8 <_start+0x2fe0>
   28ae6:	46c0      	nop			@ (mov r8, r8)
   28ae8:	00001404 	.word	0x00001404
   28aec:	000013a8 	.word	0x000013a8
   28af0:	4817      	ldr	r0, [pc, #92]	@ (28b50 <_start+0xe58>)
   28af2:	4468      	add	r0, sp
   28af4:	78c1      	ldrb	r1, [r0, #3]
   28af6:	ac9a      	add	r4, sp, #616	@ 0x268
   28af8:	70a1      	strb	r1, [r4, #2]
   28afa:	7841      	ldrb	r1, [r0, #1]
   28afc:	7882      	ldrb	r2, [r0, #2]
   28afe:	0212      	lsls	r2, r2, #8
   28b00:	1851      	adds	r1, r2, r1
   28b02:	8021      	strh	r1, [r4, #0]
   28b04:	3008      	adds	r0, #8
   28b06:	9908      	ldr	r1, [sp, #32]
   28b08:	6e09      	ldr	r1, [r1, #96]	@ 0x60
   28b0a:	910a      	str	r1, [sp, #40]	@ 0x28
   28b0c:	4b11      	ldr	r3, [pc, #68]	@ (28b54 <_start+0xe5c>)
   28b0e:	446b      	add	r3, sp
   28b10:	930b      	str	r3, [sp, #44]	@ 0x2c
   28b12:	c864      	ldmia	r0!, {r2, r5, r6}
   28b14:	c364      	stmia	r3!, {r2, r5, r6}
   28b16:	c866      	ldmia	r0!, {r1, r2, r5, r6}
   28b18:	c366      	stmia	r3!, {r1, r2, r5, r6}
   28b1a:	8800      	ldrh	r0, [r0, #0]
   28b1c:	8018      	strh	r0, [r3, #0]
   28b1e:	990a      	ldr	r1, [sp, #40]	@ 0x28
   28b20:	0e08      	lsrs	r0, r1, #24
   28b22:	71a0      	strb	r0, [r4, #6]
   28b24:	0c08      	lsrs	r0, r1, #16
   28b26:	7160      	strb	r0, [r4, #5]
   28b28:	0a08      	lsrs	r0, r1, #8
   28b2a:	7120      	strb	r0, [r4, #4]
   28b2c:	70e1      	strb	r1, [r4, #3]
   28b2e:	1de0      	adds	r0, r4, #7
   28b30:	221e      	movs	r2, #30
   28b32:	990b      	ldr	r1, [sp, #44]	@ 0x2c
   28b34:	f002 fae8 	bl	2b108 <__aeabi_memcpy>
   28b38:	4d05      	ldr	r5, [pc, #20]	@ (28b50 <_start+0xe58>)
   28b3a:	446d      	add	r5, sp
   28b3c:	4628      	mov	r0, r5
   28b3e:	4621      	mov	r1, r4
   28b40:	f7fe f8f4 	bl	26d2c <_ZN20complex_dynamic_type3app17hdcaddac158c954c6E>
   28b44:	7828      	ldrb	r0, [r5, #0]
   28b46:	2801      	cmp	r0, #1
   28b48:	d106      	bne.n	28b58 <_start+0xe60>
   28b4a:	f002 f8c5 	bl	2acd8 <_start+0x2fe0>
   28b4e:	46c0      	nop			@ (mov r8, r8)
   28b50:	00001404 	.word	0x00001404
   28b54:	000013a8 	.word	0x000013a8
   28b58:	4816      	ldr	r0, [pc, #88]	@ (28bb4 <_start+0xebc>)
   28b5a:	4468      	add	r0, sp
   28b5c:	78c1      	ldrb	r1, [r0, #3]
   28b5e:	aca4      	add	r4, sp, #656	@ 0x290
   28b60:	70a1      	strb	r1, [r4, #2]
   28b62:	7841      	ldrb	r1, [r0, #1]
   28b64:	7882      	ldrb	r2, [r0, #2]
   28b66:	0212      	lsls	r2, r2, #8
   28b68:	1851      	adds	r1, r2, r1
   28b6a:	8021      	strh	r1, [r4, #0]
   28b6c:	3008      	adds	r0, #8
   28b6e:	9908      	ldr	r1, [sp, #32]
   28b70:	6e09      	ldr	r1, [r1, #96]	@ 0x60
   28b72:	910a      	str	r1, [sp, #40]	@ 0x28
   28b74:	4b10      	ldr	r3, [pc, #64]	@ (28bb8 <_start+0xec0>)
   28b76:	446b      	add	r3, sp
   28b78:	930b      	str	r3, [sp, #44]	@ 0x2c
   28b7a:	c866      	ldmia	r0!, {r1, r2, r5, r6}
   28b7c:	c366      	stmia	r3!, {r1, r2, r5, r6}
   28b7e:	7800      	ldrb	r0, [r0, #0]
   28b80:	7018      	strb	r0, [r3, #0]
   28b82:	990a      	ldr	r1, [sp, #40]	@ 0x28
   28b84:	0e08      	lsrs	r0, r1, #24
   28b86:	71a0      	strb	r0, [r4, #6]
   28b88:	0c08      	lsrs	r0, r1, #16
   28b8a:	7160      	strb	r0, [r4, #5]
   28b8c:	0a08      	lsrs	r0, r1, #8
   28b8e:	7120      	strb	r0, [r4, #4]
   28b90:	70e1      	strb	r1, [r4, #3]
   28b92:	1de0      	adds	r0, r4, #7
   28b94:	2211      	movs	r2, #17
   28b96:	990b      	ldr	r1, [sp, #44]	@ 0x2c
   28b98:	f002 fab6 	bl	2b108 <__aeabi_memcpy>
   28b9c:	4d05      	ldr	r5, [pc, #20]	@ (28bb4 <_start+0xebc>)
   28b9e:	446d      	add	r5, sp
   28ba0:	4628      	mov	r0, r5
   28ba2:	4621      	mov	r1, r4
   28ba4:	f7fd ff74 	bl	26a90 <_ZN20complex_dynamic_type3app17hdc5bc5b5def0d593E>
   28ba8:	7828      	ldrb	r0, [r5, #0]
   28baa:	2801      	cmp	r0, #1
   28bac:	d106      	bne.n	28bbc <_start+0xec4>
   28bae:	f002 f893 	bl	2acd8 <_start+0x2fe0>
   28bb2:	46c0      	nop			@ (mov r8, r8)
   28bb4:	00001404 	.word	0x00001404
   28bb8:	000013a8 	.word	0x000013a8
   28bbc:	4819      	ldr	r0, [pc, #100]	@ (28c24 <_start+0xf2c>)
   28bbe:	4468      	add	r0, sp
   28bc0:	78c1      	ldrb	r1, [r0, #3]
   28bc2:	acaa      	add	r4, sp, #680	@ 0x2a8
   28bc4:	70a1      	strb	r1, [r4, #2]
   28bc6:	7841      	ldrb	r1, [r0, #1]
   28bc8:	7882      	ldrb	r2, [r0, #2]
   28bca:	0212      	lsls	r2, r2, #8
   28bcc:	1851      	adds	r1, r2, r1
   28bce:	8021      	strh	r1, [r4, #0]
   28bd0:	3008      	adds	r0, #8
   28bd2:	9908      	ldr	r1, [sp, #32]
   28bd4:	6e09      	ldr	r1, [r1, #96]	@ 0x60
   28bd6:	910a      	str	r1, [sp, #40]	@ 0x28
   28bd8:	4b13      	ldr	r3, [pc, #76]	@ (28c28 <_start+0xf30>)
   28bda:	446b      	add	r3, sp
   28bdc:	930b      	str	r3, [sp, #44]	@ 0x2c
   28bde:	c864      	ldmia	r0!, {r2, r5, r6}
   28be0:	c364      	stmia	r3!, {r2, r5, r6}
   28be2:	c866      	ldmia	r0!, {r1, r2, r5, r6}
   28be4:	c366      	stmia	r3!, {r1, r2, r5, r6}
   28be6:	c866      	ldmia	r0!, {r1, r2, r5, r6}
   28be8:	c366      	stmia	r3!, {r1, r2, r5, r6}
   28bea:	8801      	ldrh	r1, [r0, #0]
   28bec:	8019      	strh	r1, [r3, #0]
   28bee:	7880      	ldrb	r0, [r0, #2]
   28bf0:	7098      	strb	r0, [r3, #2]
   28bf2:	990a      	ldr	r1, [sp, #40]	@ 0x28
   28bf4:	0e08      	lsrs	r0, r1, #24
   28bf6:	71a0      	strb	r0, [r4, #6]
   28bf8:	0c08      	lsrs	r0, r1, #16
   28bfa:	7160      	strb	r0, [r4, #5]
   28bfc:	0a08      	lsrs	r0, r1, #8
   28bfe:	7120      	strb	r0, [r4, #4]
   28c00:	70e1      	strb	r1, [r4, #3]
   28c02:	1de0      	adds	r0, r4, #7
   28c04:	222f      	movs	r2, #47	@ 0x2f
   28c06:	990b      	ldr	r1, [sp, #44]	@ 0x2c
   28c08:	f002 fa7e 	bl	2b108 <__aeabi_memcpy>
   28c0c:	4d05      	ldr	r5, [pc, #20]	@ (28c24 <_start+0xf2c>)
   28c0e:	446d      	add	r5, sp
   28c10:	4628      	mov	r0, r5
   28c12:	4621      	mov	r1, r4
   28c14:	f7fd f8a2 	bl	25d5c <_ZN20complex_dynamic_type3app17hb962f93751411d6eE>
   28c18:	7828      	ldrb	r0, [r5, #0]
   28c1a:	2801      	cmp	r0, #1
   28c1c:	d106      	bne.n	28c2c <_start+0xf34>
   28c1e:	f002 f85b 	bl	2acd8 <_start+0x2fe0>
   28c22:	46c0      	nop			@ (mov r8, r8)
   28c24:	00001404 	.word	0x00001404
   28c28:	000013a8 	.word	0x000013a8
   28c2c:	4818      	ldr	r0, [pc, #96]	@ (28c90 <_start+0xf98>)
   28c2e:	4468      	add	r0, sp
   28c30:	78c1      	ldrb	r1, [r0, #3]
   28c32:	acb8      	add	r4, sp, #736	@ 0x2e0
   28c34:	70a1      	strb	r1, [r4, #2]
   28c36:	7841      	ldrb	r1, [r0, #1]
   28c38:	7882      	ldrb	r2, [r0, #2]
   28c3a:	0212      	lsls	r2, r2, #8
   28c3c:	1851      	adds	r1, r2, r1
   28c3e:	8021      	strh	r1, [r4, #0]
   28c40:	3008      	adds	r0, #8
   28c42:	9908      	ldr	r1, [sp, #32]
   28c44:	6e09      	ldr	r1, [r1, #96]	@ 0x60
   28c46:	910a      	str	r1, [sp, #40]	@ 0x28
   28c48:	4b12      	ldr	r3, [pc, #72]	@ (28c94 <_start+0xf9c>)
   28c4a:	446b      	add	r3, sp
   28c4c:	930b      	str	r3, [sp, #44]	@ 0x2c
   28c4e:	c864      	ldmia	r0!, {r2, r5, r6}
   28c50:	c364      	stmia	r3!, {r2, r5, r6}
   28c52:	c866      	ldmia	r0!, {r1, r2, r5, r6}
   28c54:	c366      	stmia	r3!, {r1, r2, r5, r6}
   28c56:	c866      	ldmia	r0!, {r1, r2, r5, r6}
   28c58:	c366      	stmia	r3!, {r1, r2, r5, r6}
   28c5a:	7800      	ldrb	r0, [r0, #0]
   28c5c:	7018      	strb	r0, [r3, #0]
   28c5e:	990a      	ldr	r1, [sp, #40]	@ 0x28
   28c60:	0e08      	lsrs	r0, r1, #24
   28c62:	71a0      	strb	r0, [r4, #6]
   28c64:	0c08      	lsrs	r0, r1, #16
   28c66:	7160      	strb	r0, [r4, #5]
   28c68:	0a08      	lsrs	r0, r1, #8
   28c6a:	7120      	strb	r0, [r4, #4]
   28c6c:	70e1      	strb	r1, [r4, #3]
   28c6e:	1de0      	adds	r0, r4, #7
   28c70:	222d      	movs	r2, #45	@ 0x2d
   28c72:	990b      	ldr	r1, [sp, #44]	@ 0x2c
   28c74:	f002 fa48 	bl	2b108 <__aeabi_memcpy>
   28c78:	4d05      	ldr	r5, [pc, #20]	@ (28c90 <_start+0xf98>)
   28c7a:	446d      	add	r5, sp
   28c7c:	4628      	mov	r0, r5
   28c7e:	4621      	mov	r1, r4
   28c80:	f7f8 fac4 	bl	2120c <_ZN20complex_dynamic_type3app17h2285336856e512b4E>
   28c84:	7828      	ldrb	r0, [r5, #0]
   28c86:	2801      	cmp	r0, #1
   28c88:	d106      	bne.n	28c98 <_start+0xfa0>
   28c8a:	f002 f825 	bl	2acd8 <_start+0x2fe0>
   28c8e:	46c0      	nop			@ (mov r8, r8)
   28c90:	00001404 	.word	0x00001404
   28c94:	000013a8 	.word	0x000013a8
   28c98:	4818      	ldr	r0, [pc, #96]	@ (28cfc <_start+0x1004>)
   28c9a:	4468      	add	r0, sp
   28c9c:	78c1      	ldrb	r1, [r0, #3]
   28c9e:	acc5      	add	r4, sp, #788	@ 0x314
   28ca0:	70a1      	strb	r1, [r4, #2]
   28ca2:	7841      	ldrb	r1, [r0, #1]
   28ca4:	7882      	ldrb	r2, [r0, #2]
   28ca6:	0212      	lsls	r2, r2, #8
   28ca8:	1851      	adds	r1, r2, r1
   28caa:	8021      	strh	r1, [r4, #0]
   28cac:	3008      	adds	r0, #8
   28cae:	9908      	ldr	r1, [sp, #32]
   28cb0:	6e09      	ldr	r1, [r1, #96]	@ 0x60
   28cb2:	4b13      	ldr	r3, [pc, #76]	@ (28d00 <_start+0x1008>)
   28cb4:	446b      	add	r3, sp
   28cb6:	930b      	str	r3, [sp, #44]	@ 0x2c
   28cb8:	c864      	ldmia	r0!, {r2, r5, r6}
   28cba:	c364      	stmia	r3!, {r2, r5, r6}
   28cbc:	c864      	ldmia	r0!, {r2, r5, r6}
   28cbe:	c364      	stmia	r3!, {r2, r5, r6}
   28cc0:	c864      	ldmia	r0!, {r2, r5, r6}
   28cc2:	c364      	stmia	r3!, {r2, r5, r6}
   28cc4:	8802      	ldrh	r2, [r0, #0]
   28cc6:	801a      	strh	r2, [r3, #0]
   28cc8:	7880      	ldrb	r0, [r0, #2]
   28cca:	7098      	strb	r0, [r3, #2]
   28ccc:	0e08      	lsrs	r0, r1, #24
   28cce:	71a0      	strb	r0, [r4, #6]
   28cd0:	0c08      	lsrs	r0, r1, #16
   28cd2:	7160      	strb	r0, [r4, #5]
   28cd4:	0a08      	lsrs	r0, r1, #8
   28cd6:	7120      	strb	r0, [r4, #4]
   28cd8:	70e1      	strb	r1, [r4, #3]
   28cda:	1de0      	adds	r0, r4, #7
   28cdc:	2227      	movs	r2, #39	@ 0x27
   28cde:	990b      	ldr	r1, [sp, #44]	@ 0x2c
   28ce0:	f002 fa12 	bl	2b108 <__aeabi_memcpy>
   28ce4:	4d05      	ldr	r5, [pc, #20]	@ (28cfc <_start+0x1004>)
   28ce6:	446d      	add	r5, sp
   28ce8:	4628      	mov	r0, r5
   28cea:	4621      	mov	r1, r4
   28cec:	f7f7 f9fa 	bl	200e4 <_ZN20complex_dynamic_type3app17h000f68b702893cf9E>
   28cf0:	7828      	ldrb	r0, [r5, #0]
   28cf2:	2801      	cmp	r0, #1
   28cf4:	d106      	bne.n	28d04 <_start+0x100c>
   28cf6:	f001 ffef 	bl	2acd8 <_start+0x2fe0>
   28cfa:	46c0      	nop			@ (mov r8, r8)
   28cfc:	00001404 	.word	0x00001404
   28d00:	000013a8 	.word	0x000013a8
   28d04:	4818      	ldr	r0, [pc, #96]	@ (28d68 <_start+0x1070>)
   28d06:	4468      	add	r0, sp
   28d08:	78c1      	ldrb	r1, [r0, #3]
   28d0a:	acd1      	add	r4, sp, #836	@ 0x344
   28d0c:	70a1      	strb	r1, [r4, #2]
   28d0e:	7841      	ldrb	r1, [r0, #1]
   28d10:	7882      	ldrb	r2, [r0, #2]
   28d12:	0212      	lsls	r2, r2, #8
   28d14:	1851      	adds	r1, r2, r1
   28d16:	8021      	strh	r1, [r4, #0]
   28d18:	3008      	adds	r0, #8
   28d1a:	9908      	ldr	r1, [sp, #32]
   28d1c:	6e09      	ldr	r1, [r1, #96]	@ 0x60
   28d1e:	910a      	str	r1, [sp, #40]	@ 0x28
   28d20:	4b12      	ldr	r3, [pc, #72]	@ (28d6c <_start+0x1074>)
   28d22:	446b      	add	r3, sp
   28d24:	930b      	str	r3, [sp, #44]	@ 0x2c
   28d26:	c866      	ldmia	r0!, {r1, r2, r5, r6}
   28d28:	c366      	stmia	r3!, {r1, r2, r5, r6}
   28d2a:	c866      	ldmia	r0!, {r1, r2, r5, r6}
   28d2c:	c366      	stmia	r3!, {r1, r2, r5, r6}
   28d2e:	c866      	ldmia	r0!, {r1, r2, r5, r6}
   28d30:	c366      	stmia	r3!, {r1, r2, r5, r6}
   28d32:	7800      	ldrb	r0, [r0, #0]
   28d34:	7018      	strb	r0, [r3, #0]
   28d36:	990a      	ldr	r1, [sp, #40]	@ 0x28
   28d38:	0e08      	lsrs	r0, r1, #24
   28d3a:	71a0      	strb	r0, [r4, #6]
   28d3c:	0c08      	lsrs	r0, r1, #16
   28d3e:	7160      	strb	r0, [r4, #5]
   28d40:	0a08      	lsrs	r0, r1, #8
   28d42:	7120      	strb	r0, [r4, #4]
   28d44:	70e1      	strb	r1, [r4, #3]
   28d46:	1de0      	adds	r0, r4, #7
   28d48:	2231      	movs	r2, #49	@ 0x31
   28d4a:	990b      	ldr	r1, [sp, #44]	@ 0x2c
   28d4c:	f002 f9dc 	bl	2b108 <__aeabi_memcpy>
   28d50:	4d05      	ldr	r5, [pc, #20]	@ (28d68 <_start+0x1070>)
   28d52:	446d      	add	r5, sp
   28d54:	4628      	mov	r0, r5
   28d56:	4621      	mov	r1, r4
   28d58:	f7fd ff3f 	bl	26bda <_ZN20complex_dynamic_type3app17hdc84439260b60c9eE>
   28d5c:	7828      	ldrb	r0, [r5, #0]
   28d5e:	2801      	cmp	r0, #1
   28d60:	d106      	bne.n	28d70 <_start+0x1078>
   28d62:	f001 ffb9 	bl	2acd8 <_start+0x2fe0>
   28d66:	46c0      	nop			@ (mov r8, r8)
   28d68:	00001404 	.word	0x00001404
   28d6c:	000013a8 	.word	0x000013a8
   28d70:	4818      	ldr	r0, [pc, #96]	@ (28dd4 <_start+0x10dc>)
   28d72:	4468      	add	r0, sp
   28d74:	78c1      	ldrb	r1, [r0, #3]
   28d76:	acdf      	add	r4, sp, #892	@ 0x37c
   28d78:	70a1      	strb	r1, [r4, #2]
   28d7a:	7841      	ldrb	r1, [r0, #1]
   28d7c:	7882      	ldrb	r2, [r0, #2]
   28d7e:	0212      	lsls	r2, r2, #8
   28d80:	1851      	adds	r1, r2, r1
   28d82:	8021      	strh	r1, [r4, #0]
   28d84:	3008      	adds	r0, #8
   28d86:	9908      	ldr	r1, [sp, #32]
   28d88:	6e09      	ldr	r1, [r1, #96]	@ 0x60
   28d8a:	910a      	str	r1, [sp, #40]	@ 0x28
   28d8c:	4b12      	ldr	r3, [pc, #72]	@ (28dd8 <_start+0x10e0>)
   28d8e:	446b      	add	r3, sp
   28d90:	930b      	str	r3, [sp, #44]	@ 0x2c
   28d92:	c864      	ldmia	r0!, {r2, r5, r6}
   28d94:	c364      	stmia	r3!, {r2, r5, r6}
   28d96:	c866      	ldmia	r0!, {r1, r2, r5, r6}
   28d98:	c366      	stmia	r3!, {r1, r2, r5, r6}
   28d9a:	c866      	ldmia	r0!, {r1, r2, r5, r6}
   28d9c:	c366      	stmia	r3!, {r1, r2, r5, r6}
   28d9e:	7800      	ldrb	r0, [r0, #0]
   28da0:	7018      	strb	r0, [r3, #0]
   28da2:	990a      	ldr	r1, [sp, #40]	@ 0x28
   28da4:	0e08      	lsrs	r0, r1, #24
   28da6:	71a0      	strb	r0, [r4, #6]
   28da8:	0c08      	lsrs	r0, r1, #16
   28daa:	7160      	strb	r0, [r4, #5]
   28dac:	0a08      	lsrs	r0, r1, #8
   28dae:	7120      	strb	r0, [r4, #4]
   28db0:	70e1      	strb	r1, [r4, #3]
   28db2:	1de0      	adds	r0, r4, #7
   28db4:	222d      	movs	r2, #45	@ 0x2d
   28db6:	990b      	ldr	r1, [sp, #44]	@ 0x2c
   28db8:	f002 f9a6 	bl	2b108 <__aeabi_memcpy>
   28dbc:	4d05      	ldr	r5, [pc, #20]	@ (28dd4 <_start+0x10dc>)
   28dbe:	446d      	add	r5, sp
   28dc0:	4628      	mov	r0, r5
   28dc2:	4621      	mov	r1, r4
   28dc4:	f7fe fda0 	bl	27908 <_ZN20complex_dynamic_type3app17hf505e81579c015a8E>
   28dc8:	7828      	ldrb	r0, [r5, #0]
   28dca:	2801      	cmp	r0, #1
   28dcc:	d106      	bne.n	28ddc <_start+0x10e4>
   28dce:	f001 ff83 	bl	2acd8 <_start+0x2fe0>
   28dd2:	46c0      	nop			@ (mov r8, r8)
   28dd4:	00001404 	.word	0x00001404
   28dd8:	000013a8 	.word	0x000013a8
   28ddc:	4817      	ldr	r0, [pc, #92]	@ (28e3c <_start+0x1144>)
   28dde:	4468      	add	r0, sp
   28de0:	78c1      	ldrb	r1, [r0, #3]
   28de2:	acec      	add	r4, sp, #944	@ 0x3b0
   28de4:	70a1      	strb	r1, [r4, #2]
   28de6:	7841      	ldrb	r1, [r0, #1]
   28de8:	7882      	ldrb	r2, [r0, #2]
   28dea:	0212      	lsls	r2, r2, #8
   28dec:	1851      	adds	r1, r2, r1
   28dee:	8021      	strh	r1, [r4, #0]
   28df0:	3008      	adds	r0, #8
   28df2:	9908      	ldr	r1, [sp, #32]
   28df4:	6e09      	ldr	r1, [r1, #96]	@ 0x60
   28df6:	910a      	str	r1, [sp, #40]	@ 0x28
   28df8:	4b11      	ldr	r3, [pc, #68]	@ (28e40 <_start+0x1148>)
   28dfa:	446b      	add	r3, sp
   28dfc:	930b      	str	r3, [sp, #44]	@ 0x2c
   28dfe:	c866      	ldmia	r0!, {r1, r2, r5, r6}
   28e00:	c366      	stmia	r3!, {r1, r2, r5, r6}
   28e02:	8801      	ldrh	r1, [r0, #0]
   28e04:	8019      	strh	r1, [r3, #0]
   28e06:	7880      	ldrb	r0, [r0, #2]
   28e08:	7098      	strb	r0, [r3, #2]
   28e0a:	990a      	ldr	r1, [sp, #40]	@ 0x28
   28e0c:	0e08      	lsrs	r0, r1, #24
   28e0e:	71a0      	strb	r0, [r4, #6]
   28e10:	0c08      	lsrs	r0, r1, #16
   28e12:	7160      	strb	r0, [r4, #5]
   28e14:	0a08      	lsrs	r0, r1, #8
   28e16:	7120      	strb	r0, [r4, #4]
   28e18:	70e1      	strb	r1, [r4, #3]
   28e1a:	1de0      	adds	r0, r4, #7
   28e1c:	2213      	movs	r2, #19
   28e1e:	990b      	ldr	r1, [sp, #44]	@ 0x2c
   28e20:	f002 f972 	bl	2b108 <__aeabi_memcpy>
   28e24:	4d05      	ldr	r5, [pc, #20]	@ (28e3c <_start+0x1144>)
   28e26:	446d      	add	r5, sp
   28e28:	4628      	mov	r0, r5
   28e2a:	4621      	mov	r1, r4
   28e2c:	f7fb fe52 	bl	24ad4 <_ZN20complex_dynamic_type3app17h98df976a826cf04aE>
   28e30:	7828      	ldrb	r0, [r5, #0]
   28e32:	2801      	cmp	r0, #1
   28e34:	d106      	bne.n	28e44 <_start+0x114c>
   28e36:	f001 ff4f 	bl	2acd8 <_start+0x2fe0>
   28e3a:	46c0      	nop			@ (mov r8, r8)
   28e3c:	00001404 	.word	0x00001404
   28e40:	000013a8 	.word	0x000013a8
   28e44:	4915      	ldr	r1, [pc, #84]	@ (28e9c <_start+0x11a4>)
   28e46:	4469      	add	r1, sp
   28e48:	78c8      	ldrb	r0, [r1, #3]
   28e4a:	acf3      	add	r4, sp, #972	@ 0x3cc
   28e4c:	70a0      	strb	r0, [r4, #2]
   28e4e:	7848      	ldrb	r0, [r1, #1]
   28e50:	788a      	ldrb	r2, [r1, #2]
   28e52:	0212      	lsls	r2, r2, #8
   28e54:	1810      	adds	r0, r2, r0
   28e56:	8020      	strh	r0, [r4, #0]
   28e58:	9808      	ldr	r0, [sp, #32]
   28e5a:	6e06      	ldr	r6, [r0, #96]	@ 0x60
   28e5c:	3108      	adds	r1, #8
   28e5e:	4d10      	ldr	r5, [pc, #64]	@ (28ea0 <_start+0x11a8>)
   28e60:	446d      	add	r5, sp
   28e62:	2249      	movs	r2, #73	@ 0x49
   28e64:	920b      	str	r2, [sp, #44]	@ 0x2c
   28e66:	4628      	mov	r0, r5
   28e68:	f001 ffee 	bl	2ae48 <__aeabi_memcpy4>
   28e6c:	0e30      	lsrs	r0, r6, #24
   28e6e:	71a0      	strb	r0, [r4, #6]
   28e70:	0c30      	lsrs	r0, r6, #16
   28e72:	7160      	strb	r0, [r4, #5]
   28e74:	0a30      	lsrs	r0, r6, #8
   28e76:	7120      	strb	r0, [r4, #4]
   28e78:	70e6      	strb	r6, [r4, #3]
   28e7a:	1de0      	adds	r0, r4, #7
   28e7c:	4629      	mov	r1, r5
   28e7e:	9a0b      	ldr	r2, [sp, #44]	@ 0x2c
   28e80:	f002 f942 	bl	2b108 <__aeabi_memcpy>
   28e84:	4d05      	ldr	r5, [pc, #20]	@ (28e9c <_start+0x11a4>)
   28e86:	446d      	add	r5, sp
   28e88:	4628      	mov	r0, r5
   28e8a:	4621      	mov	r1, r4
   28e8c:	f7f8 ff0c 	bl	21ca8 <_ZN20complex_dynamic_type3app17h3b8dc6c03952889eE>
   28e90:	7828      	ldrb	r0, [r5, #0]
   28e92:	2801      	cmp	r0, #1
   28e94:	d106      	bne.n	28ea4 <_start+0x11ac>
   28e96:	f001 ff1f 	bl	2acd8 <_start+0x2fe0>
   28e9a:	46c0      	nop			@ (mov r8, r8)
   28e9c:	00001404 	.word	0x00001404
   28ea0:	000013a8 	.word	0x000013a8
   28ea4:	4819      	ldr	r0, [pc, #100]	@ (28f0c <_start+0x1214>)
   28ea6:	4468      	add	r0, sp
   28ea8:	78c1      	ldrb	r1, [r0, #3]
   28eaa:	acff      	add	r4, sp, #1020	@ 0x3fc
   28eac:	3420      	adds	r4, #32
   28eae:	70a1      	strb	r1, [r4, #2]
   28eb0:	7841      	ldrb	r1, [r0, #1]
   28eb2:	7882      	ldrb	r2, [r0, #2]
   28eb4:	0212      	lsls	r2, r2, #8
   28eb6:	1851      	adds	r1, r2, r1
   28eb8:	8021      	strh	r1, [r4, #0]
   28eba:	3008      	adds	r0, #8
   28ebc:	9908      	ldr	r1, [sp, #32]
   28ebe:	6e09      	ldr	r1, [r1, #96]	@ 0x60
   28ec0:	910a      	str	r1, [sp, #40]	@ 0x28
   28ec2:	4b13      	ldr	r3, [pc, #76]	@ (28f10 <_start+0x1218>)
   28ec4:	446b      	add	r3, sp
   28ec6:	930b      	str	r3, [sp, #44]	@ 0x2c
   28ec8:	c864      	ldmia	r0!, {r2, r5, r6}
   28eca:	c364      	stmia	r3!, {r2, r5, r6}
   28ecc:	c864      	ldmia	r0!, {r2, r5, r6}
   28ece:	c364      	stmia	r3!, {r2, r5, r6}
   28ed0:	c864      	ldmia	r0!, {r2, r5, r6}
   28ed2:	c364      	stmia	r3!, {r2, r5, r6}
   28ed4:	c866      	ldmia	r0!, {r1, r2, r5, r6}
   28ed6:	c366      	stmia	r3!, {r1, r2, r5, r6}
   28ed8:	7800      	ldrb	r0, [r0, #0]
   28eda:	7018      	strb	r0, [r3, #0]
   28edc:	990a      	ldr	r1, [sp, #40]	@ 0x28
   28ede:	0e08      	lsrs	r0, r1, #24
   28ee0:	71a0      	strb	r0, [r4, #6]
   28ee2:	0c08      	lsrs	r0, r1, #16
   28ee4:	7160      	strb	r0, [r4, #5]
   28ee6:	0a08      	lsrs	r0, r1, #8
   28ee8:	7120      	strb	r0, [r4, #4]
   28eea:	70e1      	strb	r1, [r4, #3]
   28eec:	1de0      	adds	r0, r4, #7
   28eee:	2235      	movs	r2, #53	@ 0x35
   28ef0:	990b      	ldr	r1, [sp, #44]	@ 0x2c
   28ef2:	f002 f909 	bl	2b108 <__aeabi_memcpy>
   28ef6:	4d05      	ldr	r5, [pc, #20]	@ (28f0c <_start+0x1214>)
   28ef8:	446d      	add	r5, sp
   28efa:	4628      	mov	r0, r5
   28efc:	4621      	mov	r1, r4
   28efe:	f7f7 faed 	bl	204dc <_ZN20complex_dynamic_type3app17h06b550c031071e36E>
   28f02:	7828      	ldrb	r0, [r5, #0]
   28f04:	2801      	cmp	r0, #1
   28f06:	d105      	bne.n	28f14 <_start+0x121c>
   28f08:	f001 fee6 	bl	2acd8 <_start+0x2fe0>
   28f0c:	00001404 	.word	0x00001404
   28f10:	000013a8 	.word	0x000013a8
   28f14:	4819      	ldr	r0, [pc, #100]	@ (28f7c <_start+0x1284>)
   28f16:	4468      	add	r0, sp
   28f18:	78c1      	ldrb	r1, [r0, #3]
   28f1a:	acff      	add	r4, sp, #1020	@ 0x3fc
   28f1c:	345c      	adds	r4, #92	@ 0x5c
   28f1e:	70a1      	strb	r1, [r4, #2]
   28f20:	7841      	ldrb	r1, [r0, #1]
   28f22:	7882      	ldrb	r2, [r0, #2]
   28f24:	0212      	lsls	r2, r2, #8
   28f26:	1851      	adds	r1, r2, r1
   28f28:	8021      	strh	r1, [r4, #0]
   28f2a:	3008      	adds	r0, #8
   28f2c:	9908      	ldr	r1, [sp, #32]
   28f2e:	6e09      	ldr	r1, [r1, #96]	@ 0x60
   28f30:	910a      	str	r1, [sp, #40]	@ 0x28
   28f32:	4b13      	ldr	r3, [pc, #76]	@ (28f80 <_start+0x1288>)
   28f34:	446b      	add	r3, sp
   28f36:	930b      	str	r3, [sp, #44]	@ 0x2c
   28f38:	c864      	ldmia	r0!, {r2, r5, r6}
   28f3a:	c364      	stmia	r3!, {r2, r5, r6}
   28f3c:	c864      	ldmia	r0!, {r2, r5, r6}
   28f3e:	c364      	stmia	r3!, {r2, r5, r6}
   28f40:	c866      	ldmia	r0!, {r1, r2, r5, r6}
   28f42:	c366      	stmia	r3!, {r1, r2, r5, r6}
   28f44:	8801      	ldrh	r1, [r0, #0]
   28f46:	8019      	strh	r1, [r3, #0]
   28f48:	7880      	ldrb	r0, [r0, #2]
   28f4a:	7098      	strb	r0, [r3, #2]
   28f4c:	990a      	ldr	r1, [sp, #40]	@ 0x28
   28f4e:	0e08      	lsrs	r0, r1, #24
   28f50:	71a0      	strb	r0, [r4, #6]
   28f52:	0c08      	lsrs	r0, r1, #16
   28f54:	7160      	strb	r0, [r4, #5]
   28f56:	0a08      	lsrs	r0, r1, #8
   28f58:	7120      	strb	r0, [r4, #4]
   28f5a:	70e1      	strb	r1, [r4, #3]
   28f5c:	1de0      	adds	r0, r4, #7
   28f5e:	222b      	movs	r2, #43	@ 0x2b
   28f60:	990b      	ldr	r1, [sp, #44]	@ 0x2c
   28f62:	f002 f8d1 	bl	2b108 <__aeabi_memcpy>
   28f66:	4d05      	ldr	r5, [pc, #20]	@ (28f7c <_start+0x1284>)
   28f68:	446d      	add	r5, sp
   28f6a:	4628      	mov	r0, r5
   28f6c:	4621      	mov	r1, r4
   28f6e:	f7fc fda5 	bl	25abc <_ZN20complex_dynamic_type3app17hb7f3c185aaa7968bE>
   28f72:	7828      	ldrb	r0, [r5, #0]
   28f74:	2801      	cmp	r0, #1
   28f76:	d105      	bne.n	28f84 <_start+0x128c>
   28f78:	f001 feae 	bl	2acd8 <_start+0x2fe0>
   28f7c:	00001404 	.word	0x00001404
   28f80:	000013a8 	.word	0x000013a8
   28f84:	4819      	ldr	r0, [pc, #100]	@ (28fec <_start+0x12f4>)
   28f86:	4468      	add	r0, sp
   28f88:	78c1      	ldrb	r1, [r0, #3]
   28f8a:	acff      	add	r4, sp, #1020	@ 0x3fc
   28f8c:	3490      	adds	r4, #144	@ 0x90
   28f8e:	70a1      	strb	r1, [r4, #2]
   28f90:	7841      	ldrb	r1, [r0, #1]
   28f92:	7882      	ldrb	r2, [r0, #2]
   28f94:	0212      	lsls	r2, r2, #8
   28f96:	1851      	adds	r1, r2, r1
   28f98:	8021      	strh	r1, [r4, #0]
   28f9a:	3008      	adds	r0, #8
   28f9c:	9908      	ldr	r1, [sp, #32]
   28f9e:	6e09      	ldr	r1, [r1, #96]	@ 0x60
   28fa0:	910a      	str	r1, [sp, #40]	@ 0x28
   28fa2:	4b13      	ldr	r3, [pc, #76]	@ (28ff0 <_start+0x12f8>)
   28fa4:	446b      	add	r3, sp
   28fa6:	930b      	str	r3, [sp, #44]	@ 0x2c
   28fa8:	c864      	ldmia	r0!, {r2, r5, r6}
   28faa:	c364      	stmia	r3!, {r2, r5, r6}
   28fac:	c864      	ldmia	r0!, {r2, r5, r6}
   28fae:	c364      	stmia	r3!, {r2, r5, r6}
   28fb0:	c866      	ldmia	r0!, {r1, r2, r5, r6}
   28fb2:	c366      	stmia	r3!, {r1, r2, r5, r6}
   28fb4:	8801      	ldrh	r1, [r0, #0]
   28fb6:	8019      	strh	r1, [r3, #0]
   28fb8:	7880      	ldrb	r0, [r0, #2]
   28fba:	7098      	strb	r0, [r3, #2]
   28fbc:	990a      	ldr	r1, [sp, #40]	@ 0x28
   28fbe:	0e08      	lsrs	r0, r1, #24
   28fc0:	71a0      	strb	r0, [r4, #6]
   28fc2:	0c08      	lsrs	r0, r1, #16
   28fc4:	7160      	strb	r0, [r4, #5]
   28fc6:	0a08      	lsrs	r0, r1, #8
   28fc8:	7120      	strb	r0, [r4, #4]
   28fca:	70e1      	strb	r1, [r4, #3]
   28fcc:	1de0      	adds	r0, r4, #7
   28fce:	222b      	movs	r2, #43	@ 0x2b
   28fd0:	990b      	ldr	r1, [sp, #44]	@ 0x2c
   28fd2:	f002 f899 	bl	2b108 <__aeabi_memcpy>
   28fd6:	4d05      	ldr	r5, [pc, #20]	@ (28fec <_start+0x12f4>)
   28fd8:	446d      	add	r5, sp
   28fda:	4628      	mov	r0, r5
   28fdc:	4621      	mov	r1, r4
   28fde:	f7f7 fbcd 	bl	2077c <_ZN20complex_dynamic_type3app17h0a01ac204053e7caE>
   28fe2:	7828      	ldrb	r0, [r5, #0]
   28fe4:	2801      	cmp	r0, #1
   28fe6:	d105      	bne.n	28ff4 <_start+0x12fc>
   28fe8:	f001 fe76 	bl	2acd8 <_start+0x2fe0>
   28fec:	00001404 	.word	0x00001404
   28ff0:	000013a8 	.word	0x000013a8
   28ff4:	4914      	ldr	r1, [pc, #80]	@ (29048 <_start+0x1350>)
   28ff6:	4469      	add	r1, sp
   28ff8:	9b08      	ldr	r3, [sp, #32]
   28ffa:	6ed8      	ldr	r0, [r3, #108]	@ 0x6c
   28ffc:	7208      	strb	r0, [r1, #8]
   28ffe:	4813      	ldr	r0, [pc, #76]	@ (2904c <_start+0x1354>)
   29000:	4468      	add	r0, sp
   29002:	78c2      	ldrb	r2, [r0, #3]
   29004:	acff      	add	r4, sp, #1020	@ 0x3fc
   29006:	34c4      	adds	r4, #196	@ 0xc4
   29008:	70a2      	strb	r2, [r4, #2]
   2900a:	7842      	ldrb	r2, [r0, #1]
   2900c:	7880      	ldrb	r0, [r0, #2]
   2900e:	0200      	lsls	r0, r0, #8
   29010:	1880      	adds	r0, r0, r2
   29012:	8020      	strh	r0, [r4, #0]
   29014:	6e18      	ldr	r0, [r3, #96]	@ 0x60
   29016:	70e0      	strb	r0, [r4, #3]
   29018:	0e02      	lsrs	r2, r0, #24
   2901a:	71a2      	strb	r2, [r4, #6]
   2901c:	0c02      	lsrs	r2, r0, #16
   2901e:	7162      	strb	r2, [r4, #5]
   29020:	0a00      	lsrs	r0, r0, #8
   29022:	7120      	strb	r0, [r4, #4]
   29024:	6e58      	ldr	r0, [r3, #100]	@ 0x64
   29026:	6e9a      	ldr	r2, [r3, #104]	@ 0x68
   29028:	c305      	stmia	r3!, {r0, r2}
   2902a:	1de0      	adds	r0, r4, #7
   2902c:	2209      	movs	r2, #9
   2902e:	f002 f86b 	bl	2b108 <__aeabi_memcpy>
   29032:	4d06      	ldr	r5, [pc, #24]	@ (2904c <_start+0x1354>)
   29034:	446d      	add	r5, sp
   29036:	4628      	mov	r0, r5
   29038:	4621      	mov	r1, r4
   2903a:	f7f8 fae3 	bl	21604 <_ZN20complex_dynamic_type3app17h2d46b2858bb2be2dE>
   2903e:	7828      	ldrb	r0, [r5, #0]
   29040:	2801      	cmp	r0, #1
   29042:	d105      	bne.n	29050 <_start+0x1358>
   29044:	f001 fe48 	bl	2acd8 <_start+0x2fe0>
   29048:	000013a8 	.word	0x000013a8
   2904c:	00001404 	.word	0x00001404
   29050:	4819      	ldr	r0, [pc, #100]	@ (290b8 <_start+0x13c0>)
   29052:	4468      	add	r0, sp
   29054:	78c1      	ldrb	r1, [r0, #3]
   29056:	acff      	add	r4, sp, #1020	@ 0x3fc
   29058:	34d4      	adds	r4, #212	@ 0xd4
   2905a:	70a1      	strb	r1, [r4, #2]
   2905c:	7841      	ldrb	r1, [r0, #1]
   2905e:	7882      	ldrb	r2, [r0, #2]
   29060:	0212      	lsls	r2, r2, #8
   29062:	1851      	adds	r1, r2, r1
   29064:	8021      	strh	r1, [r4, #0]
   29066:	3008      	adds	r0, #8
   29068:	9908      	ldr	r1, [sp, #32]
   2906a:	6e09      	ldr	r1, [r1, #96]	@ 0x60
   2906c:	910a      	str	r1, [sp, #40]	@ 0x28
   2906e:	4b13      	ldr	r3, [pc, #76]	@ (290bc <_start+0x13c4>)
   29070:	446b      	add	r3, sp
   29072:	930b      	str	r3, [sp, #44]	@ 0x2c
   29074:	c864      	ldmia	r0!, {r2, r5, r6}
   29076:	c364      	stmia	r3!, {r2, r5, r6}
   29078:	c866      	ldmia	r0!, {r1, r2, r5, r6}
   2907a:	c366      	stmia	r3!, {r1, r2, r5, r6}
   2907c:	c866      	ldmia	r0!, {r1, r2, r5, r6}
   2907e:	c366      	stmia	r3!, {r1, r2, r5, r6}
   29080:	8801      	ldrh	r1, [r0, #0]
   29082:	8019      	strh	r1, [r3, #0]
   29084:	7880      	ldrb	r0, [r0, #2]
   29086:	7098      	strb	r0, [r3, #2]
   29088:	990a      	ldr	r1, [sp, #40]	@ 0x28
   2908a:	0e08      	lsrs	r0, r1, #24
   2908c:	71a0      	strb	r0, [r4, #6]
   2908e:	0c08      	lsrs	r0, r1, #16
   29090:	7160      	strb	r0, [r4, #5]
   29092:	0a08      	lsrs	r0, r1, #8
   29094:	7120      	strb	r0, [r4, #4]
   29096:	70e1      	strb	r1, [r4, #3]
   29098:	1de0      	adds	r0, r4, #7
   2909a:	222f      	movs	r2, #47	@ 0x2f
   2909c:	990b      	ldr	r1, [sp, #44]	@ 0x2c
   2909e:	f002 f833 	bl	2b108 <__aeabi_memcpy>
   290a2:	4d05      	ldr	r5, [pc, #20]	@ (290b8 <_start+0x13c0>)
   290a4:	446d      	add	r5, sp
   290a6:	4628      	mov	r0, r5
   290a8:	4621      	mov	r1, r4
   290aa:	f7fd faf7 	bl	2669c <_ZN20complex_dynamic_type3app17hc8ad2d158ce1c07bE>
   290ae:	7828      	ldrb	r0, [r5, #0]
   290b0:	2801      	cmp	r0, #1
   290b2:	d105      	bne.n	290c0 <_start+0x13c8>
   290b4:	f001 fe10 	bl	2acd8 <_start+0x2fe0>
   290b8:	00001404 	.word	0x00001404
   290bc:	000013a8 	.word	0x000013a8
   290c0:	9803      	ldr	r0, [sp, #12]
   290c2:	1cc0      	adds	r0, r0, #3
   290c4:	4a16      	ldr	r2, [pc, #88]	@ (29120 <_start+0x1428>)
   290c6:	446a      	add	r2, sp
   290c8:	78d3      	ldrb	r3, [r2, #3]
   290ca:	4916      	ldr	r1, [pc, #88]	@ (29124 <_start+0x142c>)
   290cc:	4469      	add	r1, sp
   290ce:	708b      	strb	r3, [r1, #2]
   290d0:	7853      	ldrb	r3, [r2, #1]
   290d2:	7892      	ldrb	r2, [r2, #2]
   290d4:	0212      	lsls	r2, r2, #8
   290d6:	18d2      	adds	r2, r2, r3
   290d8:	800a      	strh	r2, [r1, #0]
   290da:	9c08      	ldr	r4, [sp, #32]
   290dc:	3460      	adds	r4, #96	@ 0x60
   290de:	cc1c      	ldmia	r4, {r2, r3, r4}
   290e0:	0e25      	lsrs	r5, r4, #24
   290e2:	72c5      	strb	r5, [r0, #11]
   290e4:	0c25      	lsrs	r5, r4, #16
   290e6:	7285      	strb	r5, [r0, #10]
   290e8:	0a25      	lsrs	r5, r4, #8
   290ea:	7245      	strb	r5, [r0, #9]
   290ec:	7204      	strb	r4, [r0, #8]
   290ee:	0e1c      	lsrs	r4, r3, #24
   290f0:	71c4      	strb	r4, [r0, #7]
   290f2:	0c1c      	lsrs	r4, r3, #16
   290f4:	7184      	strb	r4, [r0, #6]
   290f6:	0a1c      	lsrs	r4, r3, #8
   290f8:	7144      	strb	r4, [r0, #5]
   290fa:	7103      	strb	r3, [r0, #4]
   290fc:	0e13      	lsrs	r3, r2, #24
   290fe:	70c3      	strb	r3, [r0, #3]
   29100:	0c13      	lsrs	r3, r2, #16
   29102:	7083      	strb	r3, [r0, #2]
   29104:	0a13      	lsrs	r3, r2, #8
   29106:	7043      	strb	r3, [r0, #1]
   29108:	7002      	strb	r2, [r0, #0]
   2910a:	4c05      	ldr	r4, [pc, #20]	@ (29120 <_start+0x1428>)
   2910c:	446c      	add	r4, sp
   2910e:	4620      	mov	r0, r4
   29110:	f7f9 f916 	bl	22340 <_ZN20complex_dynamic_type3app17h4cabf9af9be69d13E>
   29114:	7820      	ldrb	r0, [r4, #0]
   29116:	2801      	cmp	r0, #1
   29118:	d106      	bne.n	29128 <_start+0x1430>
   2911a:	f001 fddd 	bl	2acd8 <_start+0x2fe0>
   2911e:	46c0      	nop			@ (mov r8, r8)
   29120:	00001404 	.word	0x00001404
   29124:	00000508 	.word	0x00000508
   29128:	4813      	ldr	r0, [pc, #76]	@ (29178 <_start+0x1480>)
   2912a:	4468      	add	r0, sp
   2912c:	78c1      	ldrb	r1, [r0, #3]
   2912e:	4c13      	ldr	r4, [pc, #76]	@ (2917c <_start+0x1484>)
   29130:	446c      	add	r4, sp
   29132:	70a1      	strb	r1, [r4, #2]
   29134:	7841      	ldrb	r1, [r0, #1]
   29136:	7880      	ldrb	r0, [r0, #2]
   29138:	0200      	lsls	r0, r0, #8
   2913a:	1840      	adds	r0, r0, r1
   2913c:	8020      	strh	r0, [r4, #0]
   2913e:	9e08      	ldr	r6, [sp, #32]
   29140:	4633      	mov	r3, r6
   29142:	3360      	adds	r3, #96	@ 0x60
   29144:	cb0f      	ldmia	r3, {r0, r1, r2, r3}
   29146:	70e0      	strb	r0, [r4, #3]
   29148:	0e05      	lsrs	r5, r0, #24
   2914a:	71a5      	strb	r5, [r4, #6]
   2914c:	0c05      	lsrs	r5, r0, #16
   2914e:	7165      	strb	r5, [r4, #5]
   29150:	0a00      	lsrs	r0, r0, #8
   29152:	7120      	strb	r0, [r4, #4]
   29154:	c60e      	stmia	r6!, {r1, r2, r3}
   29156:	1de0      	adds	r0, r4, #7
   29158:	4909      	ldr	r1, [pc, #36]	@ (29180 <_start+0x1488>)
   2915a:	4469      	add	r1, sp
   2915c:	220c      	movs	r2, #12
   2915e:	f001 ffd3 	bl	2b108 <__aeabi_memcpy>
   29162:	4d05      	ldr	r5, [pc, #20]	@ (29178 <_start+0x1480>)
   29164:	446d      	add	r5, sp
   29166:	4628      	mov	r0, r5
   29168:	4621      	mov	r1, r4
   2916a:	f7fa fc25 	bl	239b8 <_ZN20complex_dynamic_type3app17h73f8967a7251e99fE>
   2916e:	7828      	ldrb	r0, [r5, #0]
   29170:	2801      	cmp	r0, #1
   29172:	d107      	bne.n	29184 <_start+0x148c>
   29174:	f001 fdb0 	bl	2acd8 <_start+0x2fe0>
   29178:	00001404 	.word	0x00001404
   2917c:	00000518 	.word	0x00000518
   29180:	000013a8 	.word	0x000013a8
   29184:	4915      	ldr	r1, [pc, #84]	@ (291dc <_start+0x14e4>)
   29186:	4469      	add	r1, sp
   29188:	78c8      	ldrb	r0, [r1, #3]
   2918a:	4c15      	ldr	r4, [pc, #84]	@ (291e0 <_start+0x14e8>)
   2918c:	446c      	add	r4, sp
   2918e:	70a0      	strb	r0, [r4, #2]
   29190:	7848      	ldrb	r0, [r1, #1]
   29192:	788a      	ldrb	r2, [r1, #2]
   29194:	0212      	lsls	r2, r2, #8
   29196:	1810      	adds	r0, r2, r0
   29198:	8020      	strh	r0, [r4, #0]
   2919a:	9808      	ldr	r0, [sp, #32]
   2919c:	6e05      	ldr	r5, [r0, #96]	@ 0x60
   2919e:	3108      	adds	r1, #8
   291a0:	4810      	ldr	r0, [pc, #64]	@ (291e4 <_start+0x14ec>)
   291a2:	4468      	add	r0, sp
   291a4:	900b      	str	r0, [sp, #44]	@ 0x2c
   291a6:	264e      	movs	r6, #78	@ 0x4e
   291a8:	4632      	mov	r2, r6
   291aa:	f001 fe4d 	bl	2ae48 <__aeabi_memcpy4>
   291ae:	0e28      	lsrs	r0, r5, #24
   291b0:	71a0      	strb	r0, [r4, #6]
   291b2:	0c28      	lsrs	r0, r5, #16
   291b4:	7160      	strb	r0, [r4, #5]
   291b6:	0a28      	lsrs	r0, r5, #8
   291b8:	7120      	strb	r0, [r4, #4]
   291ba:	70e5      	strb	r5, [r4, #3]
   291bc:	1de0      	adds	r0, r4, #7
   291be:	990b      	ldr	r1, [sp, #44]	@ 0x2c
   291c0:	4632      	mov	r2, r6
   291c2:	f001 ffa1 	bl	2b108 <__aeabi_memcpy>
   291c6:	4d05      	ldr	r5, [pc, #20]	@ (291dc <_start+0x14e4>)
   291c8:	446d      	add	r5, sp
   291ca:	4628      	mov	r0, r5
   291cc:	4621      	mov	r1, r4
   291ce:	f7f7 fa2d 	bl	2062c <_ZN20complex_dynamic_type3app17h0772d9973d59b54cE>
   291d2:	7828      	ldrb	r0, [r5, #0]
   291d4:	2801      	cmp	r0, #1
   291d6:	d107      	bne.n	291e8 <_start+0x14f0>
   291d8:	f001 fd7e 	bl	2acd8 <_start+0x2fe0>
   291dc:	00001404 	.word	0x00001404
   291e0:	0000052c 	.word	0x0000052c
   291e4:	000013a8 	.word	0x000013a8
   291e8:	4819      	ldr	r0, [pc, #100]	@ (29250 <_start+0x1558>)
   291ea:	4468      	add	r0, sp
   291ec:	78c1      	ldrb	r1, [r0, #3]
   291ee:	4c19      	ldr	r4, [pc, #100]	@ (29254 <_start+0x155c>)
   291f0:	446c      	add	r4, sp
   291f2:	70a1      	strb	r1, [r4, #2]
   291f4:	7841      	ldrb	r1, [r0, #1]
   291f6:	7882      	ldrb	r2, [r0, #2]
   291f8:	0212      	lsls	r2, r2, #8
   291fa:	1851      	adds	r1, r2, r1
   291fc:	8021      	strh	r1, [r4, #0]
   291fe:	3008      	adds	r0, #8
   29200:	9908      	ldr	r1, [sp, #32]
   29202:	6e09      	ldr	r1, [r1, #96]	@ 0x60
   29204:	910a      	str	r1, [sp, #40]	@ 0x28
   29206:	4b14      	ldr	r3, [pc, #80]	@ (29258 <_start+0x1560>)
   29208:	446b      	add	r3, sp
   2920a:	930b      	str	r3, [sp, #44]	@ 0x2c
   2920c:	c864      	ldmia	r0!, {r2, r5, r6}
   2920e:	c364      	stmia	r3!, {r2, r5, r6}
   29210:	c864      	ldmia	r0!, {r2, r5, r6}
   29212:	c364      	stmia	r3!, {r2, r5, r6}
   29214:	c866      	ldmia	r0!, {r1, r2, r5, r6}
   29216:	c366      	stmia	r3!, {r1, r2, r5, r6}
   29218:	8801      	ldrh	r1, [r0, #0]
   2921a:	8019      	strh	r1, [r3, #0]
   2921c:	7880      	ldrb	r0, [r0, #2]
   2921e:	7098      	strb	r0, [r3, #2]
   29220:	990a      	ldr	r1, [sp, #40]	@ 0x28
   29222:	0e08      	lsrs	r0, r1, #24
   29224:	71a0      	strb	r0, [r4, #6]
   29226:	0c08      	lsrs	r0, r1, #16
   29228:	7160      	strb	r0, [r4, #5]
   2922a:	0a08      	lsrs	r0, r1, #8
   2922c:	7120      	strb	r0, [r4, #4]
   2922e:	70e1      	strb	r1, [r4, #3]
   29230:	1de0      	adds	r0, r4, #7
   29232:	222b      	movs	r2, #43	@ 0x2b
   29234:	990b      	ldr	r1, [sp, #44]	@ 0x2c
   29236:	f001 ff67 	bl	2b108 <__aeabi_memcpy>
   2923a:	4d05      	ldr	r5, [pc, #20]	@ (29250 <_start+0x1558>)
   2923c:	446d      	add	r5, sp
   2923e:	4628      	mov	r0, r5
   29240:	4621      	mov	r1, r4
   29242:	f7fd fb7d 	bl	26940 <_ZN20complex_dynamic_type3app17hd538ad8fdc74646eE>
   29246:	7828      	ldrb	r0, [r5, #0]
   29248:	2801      	cmp	r0, #1
   2924a:	d107      	bne.n	2925c <_start+0x1564>
   2924c:	f001 fd44 	bl	2acd8 <_start+0x2fe0>
   29250:	00001404 	.word	0x00001404
   29254:	00000584 	.word	0x00000584
   29258:	000013a8 	.word	0x000013a8
   2925c:	4819      	ldr	r0, [pc, #100]	@ (292c4 <_start+0x15cc>)
   2925e:	4468      	add	r0, sp
   29260:	78c1      	ldrb	r1, [r0, #3]
   29262:	4c19      	ldr	r4, [pc, #100]	@ (292c8 <_start+0x15d0>)
   29264:	446c      	add	r4, sp
   29266:	70a1      	strb	r1, [r4, #2]
   29268:	7841      	ldrb	r1, [r0, #1]
   2926a:	7882      	ldrb	r2, [r0, #2]
   2926c:	0212      	lsls	r2, r2, #8
   2926e:	1851      	adds	r1, r2, r1
   29270:	8021      	strh	r1, [r4, #0]
   29272:	3008      	adds	r0, #8
   29274:	9908      	ldr	r1, [sp, #32]
   29276:	6e09      	ldr	r1, [r1, #96]	@ 0x60
   29278:	910a      	str	r1, [sp, #40]	@ 0x28
   2927a:	4b14      	ldr	r3, [pc, #80]	@ (292cc <_start+0x15d4>)
   2927c:	446b      	add	r3, sp
   2927e:	930b      	str	r3, [sp, #44]	@ 0x2c
   29280:	c864      	ldmia	r0!, {r2, r5, r6}
   29282:	c364      	stmia	r3!, {r2, r5, r6}
   29284:	c866      	ldmia	r0!, {r1, r2, r5, r6}
   29286:	c366      	stmia	r3!, {r1, r2, r5, r6}
   29288:	c826      	ldmia	r0!, {r1, r2, r5}
   2928a:	c326      	stmia	r3!, {r1, r2, r5}
   2928c:	c866      	ldmia	r0!, {r1, r2, r5, r6}
   2928e:	c366      	stmia	r3!, {r1, r2, r5, r6}
   29290:	8800      	ldrh	r0, [r0, #0]
   29292:	8018      	strh	r0, [r3, #0]
   29294:	990a      	ldr	r1, [sp, #40]	@ 0x28
   29296:	0e08      	lsrs	r0, r1, #24
   29298:	71a0      	strb	r0, [r4, #6]
   2929a:	0c08      	lsrs	r0, r1, #16
   2929c:	7160      	strb	r0, [r4, #5]
   2929e:	0a08      	lsrs	r0, r1, #8
   292a0:	7120      	strb	r0, [r4, #4]
   292a2:	70e1      	strb	r1, [r4, #3]
   292a4:	1de0      	adds	r0, r4, #7
   292a6:	223a      	movs	r2, #58	@ 0x3a
   292a8:	990b      	ldr	r1, [sp, #44]	@ 0x2c
   292aa:	f001 ff2d 	bl	2b108 <__aeabi_memcpy>
   292ae:	4d05      	ldr	r5, [pc, #20]	@ (292c4 <_start+0x15cc>)
   292b0:	446d      	add	r5, sp
   292b2:	4628      	mov	r0, r5
   292b4:	4621      	mov	r1, r4
   292b6:	f7fb f96f 	bl	24598 <_ZN20complex_dynamic_type3app17h8f9e90dccab689a9E>
   292ba:	7828      	ldrb	r0, [r5, #0]
   292bc:	2801      	cmp	r0, #1
   292be:	d107      	bne.n	292d0 <_start+0x15d8>
   292c0:	f001 fd0a 	bl	2acd8 <_start+0x2fe0>
   292c4:	00001404 	.word	0x00001404
   292c8:	000005b8 	.word	0x000005b8
   292cc:	000013a8 	.word	0x000013a8
   292d0:	4817      	ldr	r0, [pc, #92]	@ (29330 <_start+0x1638>)
   292d2:	4468      	add	r0, sp
   292d4:	78c1      	ldrb	r1, [r0, #3]
   292d6:	4c17      	ldr	r4, [pc, #92]	@ (29334 <_start+0x163c>)
   292d8:	446c      	add	r4, sp
   292da:	70a1      	strb	r1, [r4, #2]
   292dc:	7841      	ldrb	r1, [r0, #1]
   292de:	7882      	ldrb	r2, [r0, #2]
   292e0:	0212      	lsls	r2, r2, #8
   292e2:	1851      	adds	r1, r2, r1
   292e4:	8021      	strh	r1, [r4, #0]
   292e6:	3008      	adds	r0, #8
   292e8:	9908      	ldr	r1, [sp, #32]
   292ea:	6e09      	ldr	r1, [r1, #96]	@ 0x60
   292ec:	4b12      	ldr	r3, [pc, #72]	@ (29338 <_start+0x1640>)
   292ee:	446b      	add	r3, sp
   292f0:	930b      	str	r3, [sp, #44]	@ 0x2c
   292f2:	c864      	ldmia	r0!, {r2, r5, r6}
   292f4:	c364      	stmia	r3!, {r2, r5, r6}
   292f6:	c864      	ldmia	r0!, {r2, r5, r6}
   292f8:	c364      	stmia	r3!, {r2, r5, r6}
   292fa:	8802      	ldrh	r2, [r0, #0]
   292fc:	801a      	strh	r2, [r3, #0]
   292fe:	7880      	ldrb	r0, [r0, #2]
   29300:	7098      	strb	r0, [r3, #2]
   29302:	0e08      	lsrs	r0, r1, #24
   29304:	71a0      	strb	r0, [r4, #6]
   29306:	0c08      	lsrs	r0, r1, #16
   29308:	7160      	strb	r0, [r4, #5]
   2930a:	0a08      	lsrs	r0, r1, #8
   2930c:	7120      	strb	r0, [r4, #4]
   2930e:	70e1      	strb	r1, [r4, #3]
   29310:	1de0      	adds	r0, r4, #7
   29312:	221b      	movs	r2, #27
   29314:	990b      	ldr	r1, [sp, #44]	@ 0x2c
   29316:	f001 fef7 	bl	2b108 <__aeabi_memcpy>
   2931a:	4d05      	ldr	r5, [pc, #20]	@ (29330 <_start+0x1638>)
   2931c:	446d      	add	r5, sp
   2931e:	4628      	mov	r0, r5
   29320:	4621      	mov	r1, r4
   29322:	f7fc fe6b 	bl	25ffc <_ZN20complex_dynamic_type3app17hbe33b955a5d01565E>
   29326:	7828      	ldrb	r0, [r5, #0]
   29328:	2801      	cmp	r0, #1
   2932a:	d107      	bne.n	2933c <_start+0x1644>
   2932c:	f001 fcd4 	bl	2acd8 <_start+0x2fe0>
   29330:	00001404 	.word	0x00001404
   29334:	000005fc 	.word	0x000005fc
   29338:	000013a8 	.word	0x000013a8
   2933c:	4915      	ldr	r1, [pc, #84]	@ (29394 <_start+0x169c>)
   2933e:	4469      	add	r1, sp
   29340:	78c8      	ldrb	r0, [r1, #3]
   29342:	4c15      	ldr	r4, [pc, #84]	@ (29398 <_start+0x16a0>)
   29344:	446c      	add	r4, sp
   29346:	70a0      	strb	r0, [r4, #2]
   29348:	7848      	ldrb	r0, [r1, #1]
   2934a:	788a      	ldrb	r2, [r1, #2]
   2934c:	0212      	lsls	r2, r2, #8
   2934e:	1810      	adds	r0, r2, r0
   29350:	8020      	strh	r0, [r4, #0]
   29352:	9808      	ldr	r0, [sp, #32]
   29354:	6e05      	ldr	r5, [r0, #96]	@ 0x60
   29356:	3108      	adds	r1, #8
   29358:	4810      	ldr	r0, [pc, #64]	@ (2939c <_start+0x16a4>)
   2935a:	4468      	add	r0, sp
   2935c:	900b      	str	r0, [sp, #44]	@ 0x2c
   2935e:	264a      	movs	r6, #74	@ 0x4a
   29360:	4632      	mov	r2, r6
   29362:	f001 fd71 	bl	2ae48 <__aeabi_memcpy4>
   29366:	0e28      	lsrs	r0, r5, #24
   29368:	71a0      	strb	r0, [r4, #6]
   2936a:	0c28      	lsrs	r0, r5, #16
   2936c:	7160      	strb	r0, [r4, #5]
   2936e:	0a28      	lsrs	r0, r5, #8
   29370:	7120      	strb	r0, [r4, #4]
   29372:	70e5      	strb	r5, [r4, #3]
   29374:	1de0      	adds	r0, r4, #7
   29376:	990b      	ldr	r1, [sp, #44]	@ 0x2c
   29378:	4632      	mov	r2, r6
   2937a:	f001 fec5 	bl	2b108 <__aeabi_memcpy>
   2937e:	4d05      	ldr	r5, [pc, #20]	@ (29394 <_start+0x169c>)
   29380:	446d      	add	r5, sp
   29382:	4628      	mov	r0, r5
   29384:	4621      	mov	r1, r4
   29386:	f7fd fa31 	bl	267ec <_ZN20complex_dynamic_type3app17hcbf7f5cbaf44a1baE>
   2938a:	7828      	ldrb	r0, [r5, #0]
   2938c:	2801      	cmp	r0, #1
   2938e:	d107      	bne.n	293a0 <_start+0x16a8>
   29390:	f001 fca2 	bl	2acd8 <_start+0x2fe0>
   29394:	00001404 	.word	0x00001404
   29398:	00000620 	.word	0x00000620
   2939c:	000013a8 	.word	0x000013a8
   293a0:	4915      	ldr	r1, [pc, #84]	@ (293f8 <_start+0x1700>)
   293a2:	4469      	add	r1, sp
   293a4:	78c8      	ldrb	r0, [r1, #3]
   293a6:	4c15      	ldr	r4, [pc, #84]	@ (293fc <_start+0x1704>)
   293a8:	446c      	add	r4, sp
   293aa:	70a0      	strb	r0, [r4, #2]
   293ac:	7848      	ldrb	r0, [r1, #1]
   293ae:	788a      	ldrb	r2, [r1, #2]
   293b0:	0212      	lsls	r2, r2, #8
   293b2:	1810      	adds	r0, r2, r0
   293b4:	8020      	strh	r0, [r4, #0]
   293b6:	9808      	ldr	r0, [sp, #32]
   293b8:	6e05      	ldr	r5, [r0, #96]	@ 0x60
   293ba:	3108      	adds	r1, #8
   293bc:	4810      	ldr	r0, [pc, #64]	@ (29400 <_start+0x1708>)
   293be:	4468      	add	r0, sp
   293c0:	900b      	str	r0, [sp, #44]	@ 0x2c
   293c2:	2648      	movs	r6, #72	@ 0x48
   293c4:	4632      	mov	r2, r6
   293c6:	f001 fd3f 	bl	2ae48 <__aeabi_memcpy4>
   293ca:	0e28      	lsrs	r0, r5, #24
   293cc:	71a0      	strb	r0, [r4, #6]
   293ce:	0c28      	lsrs	r0, r5, #16
   293d0:	7160      	strb	r0, [r4, #5]
   293d2:	0a28      	lsrs	r0, r5, #8
   293d4:	7120      	strb	r0, [r4, #4]
   293d6:	70e5      	strb	r5, [r4, #3]
   293d8:	1de0      	adds	r0, r4, #7
   293da:	990b      	ldr	r1, [sp, #44]	@ 0x2c
   293dc:	4632      	mov	r2, r6
   293de:	f001 fe93 	bl	2b108 <__aeabi_memcpy>
   293e2:	4d05      	ldr	r5, [pc, #20]	@ (293f8 <_start+0x1700>)
   293e4:	446d      	add	r5, sp
   293e6:	4628      	mov	r0, r5
   293e8:	4621      	mov	r1, r4
   293ea:	f7f8 fe59 	bl	220a0 <_ZN20complex_dynamic_type3app17h45f3776745265ca0E>
   293ee:	7828      	ldrb	r0, [r5, #0]
   293f0:	2801      	cmp	r0, #1
   293f2:	d107      	bne.n	29404 <_start+0x170c>
   293f4:	f001 fc70 	bl	2acd8 <_start+0x2fe0>
   293f8:	00001404 	.word	0x00001404
   293fc:	00000674 	.word	0x00000674
   29400:	000013a8 	.word	0x000013a8
   29404:	4818      	ldr	r0, [pc, #96]	@ (29468 <_start+0x1770>)
   29406:	4468      	add	r0, sp
   29408:	78c1      	ldrb	r1, [r0, #3]
   2940a:	4c18      	ldr	r4, [pc, #96]	@ (2946c <_start+0x1774>)
   2940c:	446c      	add	r4, sp
   2940e:	70a1      	strb	r1, [r4, #2]
   29410:	7841      	ldrb	r1, [r0, #1]
   29412:	7882      	ldrb	r2, [r0, #2]
   29414:	0212      	lsls	r2, r2, #8
   29416:	1851      	adds	r1, r2, r1
   29418:	8021      	strh	r1, [r4, #0]
   2941a:	3008      	adds	r0, #8
   2941c:	9908      	ldr	r1, [sp, #32]
   2941e:	6e09      	ldr	r1, [r1, #96]	@ 0x60
   29420:	910a      	str	r1, [sp, #40]	@ 0x28
   29422:	4b13      	ldr	r3, [pc, #76]	@ (29470 <_start+0x1778>)
   29424:	446b      	add	r3, sp
   29426:	930b      	str	r3, [sp, #44]	@ 0x2c
   29428:	c864      	ldmia	r0!, {r2, r5, r6}
   2942a:	c364      	stmia	r3!, {r2, r5, r6}
   2942c:	c864      	ldmia	r0!, {r2, r5, r6}
   2942e:	c364      	stmia	r3!, {r2, r5, r6}
   29430:	c864      	ldmia	r0!, {r2, r5, r6}
   29432:	c364      	stmia	r3!, {r2, r5, r6}
   29434:	c866      	ldmia	r0!, {r1, r2, r5, r6}
   29436:	c366      	stmia	r3!, {r1, r2, r5, r6}
   29438:	990a      	ldr	r1, [sp, #40]	@ 0x28
   2943a:	0e08      	lsrs	r0, r1, #24
   2943c:	71a0      	strb	r0, [r4, #6]
   2943e:	0c08      	lsrs	r0, r1, #16
   29440:	7160      	strb	r0, [r4, #5]
   29442:	0a08      	lsrs	r0, r1, #8
   29444:	7120      	strb	r0, [r4, #4]
   29446:	70e1      	strb	r1, [r4, #3]
   29448:	1de0      	adds	r0, r4, #7
   2944a:	2234      	movs	r2, #52	@ 0x34
   2944c:	990b      	ldr	r1, [sp, #44]	@ 0x2c
   2944e:	f001 fe5b 	bl	2b108 <__aeabi_memcpy>
   29452:	4d05      	ldr	r5, [pc, #20]	@ (29468 <_start+0x1770>)
   29454:	446d      	add	r5, sp
   29456:	4628      	mov	r0, r5
   29458:	4621      	mov	r1, r4
   2945a:	f7f9 fe09 	bl	23070 <_ZN20complex_dynamic_type3app17h675ced629fa2dcabE>
   2945e:	7828      	ldrb	r0, [r5, #0]
   29460:	2801      	cmp	r0, #1
   29462:	d107      	bne.n	29474 <_start+0x177c>
   29464:	f001 fc38 	bl	2acd8 <_start+0x2fe0>
   29468:	00001404 	.word	0x00001404
   2946c:	000006c4 	.word	0x000006c4
   29470:	000013a8 	.word	0x000013a8
   29474:	4816      	ldr	r0, [pc, #88]	@ (294d0 <_start+0x17d8>)
   29476:	4468      	add	r0, sp
   29478:	78c1      	ldrb	r1, [r0, #3]
   2947a:	4c16      	ldr	r4, [pc, #88]	@ (294d4 <_start+0x17dc>)
   2947c:	446c      	add	r4, sp
   2947e:	70a1      	strb	r1, [r4, #2]
   29480:	7841      	ldrb	r1, [r0, #1]
   29482:	7882      	ldrb	r2, [r0, #2]
   29484:	0212      	lsls	r2, r2, #8
   29486:	1851      	adds	r1, r2, r1
   29488:	8021      	strh	r1, [r4, #0]
   2948a:	3008      	adds	r0, #8
   2948c:	9908      	ldr	r1, [sp, #32]
   2948e:	6e09      	ldr	r1, [r1, #96]	@ 0x60
   29490:	910a      	str	r1, [sp, #40]	@ 0x28
   29492:	4b11      	ldr	r3, [pc, #68]	@ (294d8 <_start+0x17e0>)
   29494:	446b      	add	r3, sp
   29496:	930b      	str	r3, [sp, #44]	@ 0x2c
   29498:	c866      	ldmia	r0!, {r1, r2, r5, r6}
   2949a:	c366      	stmia	r3!, {r1, r2, r5, r6}
   2949c:	c866      	ldmia	r0!, {r1, r2, r5, r6}
   2949e:	c366      	stmia	r3!, {r1, r2, r5, r6}
   294a0:	990a      	ldr	r1, [sp, #40]	@ 0x28
   294a2:	0e08      	lsrs	r0, r1, #24
   294a4:	71a0      	strb	r0, [r4, #6]
   294a6:	0c08      	lsrs	r0, r1, #16
   294a8:	7160      	strb	r0, [r4, #5]
   294aa:	0a08      	lsrs	r0, r1, #8
   294ac:	7120      	strb	r0, [r4, #4]
   294ae:	70e1      	strb	r1, [r4, #3]
   294b0:	1de0      	adds	r0, r4, #7
   294b2:	2220      	movs	r2, #32
   294b4:	990b      	ldr	r1, [sp, #44]	@ 0x2c
   294b6:	f001 fe27 	bl	2b108 <__aeabi_memcpy>
   294ba:	4d05      	ldr	r5, [pc, #20]	@ (294d0 <_start+0x17d8>)
   294bc:	446d      	add	r5, sp
   294be:	4628      	mov	r0, r5
   294c0:	4621      	mov	r1, r4
   294c2:	f7f9 ffcd 	bl	23460 <_ZN20complex_dynamic_type3app17h6a1a19ed56097619E>
   294c6:	7828      	ldrb	r0, [r5, #0]
   294c8:	2801      	cmp	r0, #1
   294ca:	d107      	bne.n	294dc <_start+0x17e4>
   294cc:	f001 fc04 	bl	2acd8 <_start+0x2fe0>
   294d0:	00001404 	.word	0x00001404
   294d4:	00000700 	.word	0x00000700
   294d8:	000013a8 	.word	0x000013a8
   294dc:	4915      	ldr	r1, [pc, #84]	@ (29534 <_start+0x183c>)
   294de:	4469      	add	r1, sp
   294e0:	9d08      	ldr	r5, [sp, #32]
   294e2:	6f28      	ldr	r0, [r5, #112]	@ 0x70
   294e4:	7308      	strb	r0, [r1, #12]
   294e6:	4814      	ldr	r0, [pc, #80]	@ (29538 <_start+0x1840>)
   294e8:	4468      	add	r0, sp
   294ea:	78c2      	ldrb	r2, [r0, #3]
   294ec:	4c13      	ldr	r4, [pc, #76]	@ (2953c <_start+0x1844>)
   294ee:	446c      	add	r4, sp
   294f0:	70a2      	strb	r2, [r4, #2]
   294f2:	7842      	ldrb	r2, [r0, #1]
   294f4:	7880      	ldrb	r0, [r0, #2]
   294f6:	0200      	lsls	r0, r0, #8
   294f8:	1880      	adds	r0, r0, r2
   294fa:	8020      	strh	r0, [r4, #0]
   294fc:	6e28      	ldr	r0, [r5, #96]	@ 0x60
   294fe:	70e0      	strb	r0, [r4, #3]
   29500:	0e02      	lsrs	r2, r0, #24
   29502:	71a2      	strb	r2, [r4, #6]
   29504:	0c02      	lsrs	r2, r0, #16
   29506:	7162      	strb	r2, [r4, #5]
   29508:	0a00      	lsrs	r0, r0, #8
   2950a:	7120      	strb	r0, [r4, #4]
   2950c:	462b      	mov	r3, r5
   2950e:	3364      	adds	r3, #100	@ 0x64
   29510:	cb0d      	ldmia	r3, {r0, r2, r3}
   29512:	c50d      	stmia	r5!, {r0, r2, r3}
   29514:	1de0      	adds	r0, r4, #7
   29516:	220d      	movs	r2, #13
   29518:	f001 fdf6 	bl	2b108 <__aeabi_memcpy>
   2951c:	4d06      	ldr	r5, [pc, #24]	@ (29538 <_start+0x1840>)
   2951e:	446d      	add	r5, sp
   29520:	4628      	mov	r0, r5
   29522:	4621      	mov	r1, r4
   29524:	f7fa fc40 	bl	23da8 <_ZN20complex_dynamic_type3app17h7bc650c2985107f2E>
   29528:	7828      	ldrb	r0, [r5, #0]
   2952a:	2801      	cmp	r0, #1
   2952c:	d108      	bne.n	29540 <_start+0x1848>
   2952e:	f001 fbd3 	bl	2acd8 <_start+0x2fe0>
   29532:	46c0      	nop			@ (mov r8, r8)
   29534:	000013a8 	.word	0x000013a8
   29538:	00001404 	.word	0x00001404
   2953c:	00000728 	.word	0x00000728
   29540:	4816      	ldr	r0, [pc, #88]	@ (2959c <_start+0x18a4>)
   29542:	4468      	add	r0, sp
   29544:	78c1      	ldrb	r1, [r0, #3]
   29546:	4c16      	ldr	r4, [pc, #88]	@ (295a0 <_start+0x18a8>)
   29548:	446c      	add	r4, sp
   2954a:	70a1      	strb	r1, [r4, #2]
   2954c:	7841      	ldrb	r1, [r0, #1]
   2954e:	7882      	ldrb	r2, [r0, #2]
   29550:	0212      	lsls	r2, r2, #8
   29552:	1851      	adds	r1, r2, r1
   29554:	8021      	strh	r1, [r4, #0]
   29556:	3008      	adds	r0, #8
   29558:	9908      	ldr	r1, [sp, #32]
   2955a:	6e09      	ldr	r1, [r1, #96]	@ 0x60
   2955c:	4b11      	ldr	r3, [pc, #68]	@ (295a4 <_start+0x18ac>)
   2955e:	446b      	add	r3, sp
   29560:	930b      	str	r3, [sp, #44]	@ 0x2c
   29562:	c864      	ldmia	r0!, {r2, r5, r6}
   29564:	c364      	stmia	r3!, {r2, r5, r6}
   29566:	c864      	ldmia	r0!, {r2, r5, r6}
   29568:	c364      	stmia	r3!, {r2, r5, r6}
   2956a:	c864      	ldmia	r0!, {r2, r5, r6}
   2956c:	c364      	stmia	r3!, {r2, r5, r6}
   2956e:	0e08      	lsrs	r0, r1, #24
   29570:	71a0      	strb	r0, [r4, #6]
   29572:	0c08      	lsrs	r0, r1, #16
   29574:	7160      	strb	r0, [r4, #5]
   29576:	0a08      	lsrs	r0, r1, #8
   29578:	7120      	strb	r0, [r4, #4]
   2957a:	70e1      	strb	r1, [r4, #3]
   2957c:	1de0      	adds	r0, r4, #7
   2957e:	2224      	movs	r2, #36	@ 0x24
   29580:	990b      	ldr	r1, [sp, #44]	@ 0x2c
   29582:	f001 fdc1 	bl	2b108 <__aeabi_memcpy>
   29586:	4d05      	ldr	r5, [pc, #20]	@ (2959c <_start+0x18a4>)
   29588:	446d      	add	r5, sp
   2958a:	4628      	mov	r0, r5
   2958c:	4621      	mov	r1, r4
   2958e:	f7fb f9f9 	bl	24984 <_ZN20complex_dynamic_type3app17h984b5f191b89bb28E>
   29592:	7828      	ldrb	r0, [r5, #0]
   29594:	2801      	cmp	r0, #1
   29596:	d107      	bne.n	295a8 <_start+0x18b0>
   29598:	f001 fb9e 	bl	2acd8 <_start+0x2fe0>
   2959c:	00001404 	.word	0x00001404
   295a0:	0000073c 	.word	0x0000073c
   295a4:	000013a8 	.word	0x000013a8
   295a8:	4817      	ldr	r0, [pc, #92]	@ (29608 <_start+0x1910>)
   295aa:	4468      	add	r0, sp
   295ac:	78c1      	ldrb	r1, [r0, #3]
   295ae:	4c17      	ldr	r4, [pc, #92]	@ (2960c <_start+0x1914>)
   295b0:	446c      	add	r4, sp
   295b2:	70a1      	strb	r1, [r4, #2]
   295b4:	7841      	ldrb	r1, [r0, #1]
   295b6:	7882      	ldrb	r2, [r0, #2]
   295b8:	0212      	lsls	r2, r2, #8
   295ba:	1851      	adds	r1, r2, r1
   295bc:	8021      	strh	r1, [r4, #0]
   295be:	3008      	adds	r0, #8
   295c0:	9908      	ldr	r1, [sp, #32]
   295c2:	6e09      	ldr	r1, [r1, #96]	@ 0x60
   295c4:	4b12      	ldr	r3, [pc, #72]	@ (29610 <_start+0x1918>)
   295c6:	446b      	add	r3, sp
   295c8:	930b      	str	r3, [sp, #44]	@ 0x2c
   295ca:	c860      	ldmia	r0!, {r5, r6}
   295cc:	c360      	stmia	r3!, {r5, r6}
   295ce:	c864      	ldmia	r0!, {r2, r5, r6}
   295d0:	c364      	stmia	r3!, {r2, r5, r6}
   295d2:	8802      	ldrh	r2, [r0, #0]
   295d4:	801a      	strh	r2, [r3, #0]
   295d6:	7880      	ldrb	r0, [r0, #2]
   295d8:	7098      	strb	r0, [r3, #2]
   295da:	0e08      	lsrs	r0, r1, #24
   295dc:	71a0      	strb	r0, [r4, #6]
   295de:	0c08      	lsrs	r0, r1, #16
   295e0:	7160      	strb	r0, [r4, #5]
   295e2:	0a08      	lsrs	r0, r1, #8
   295e4:	7120      	strb	r0, [r4, #4]
   295e6:	70e1      	strb	r1, [r4, #3]
   295e8:	1de0      	adds	r0, r4, #7
   295ea:	2217      	movs	r2, #23
   295ec:	990b      	ldr	r1, [sp, #44]	@ 0x2c
   295ee:	f001 fd8b 	bl	2b108 <__aeabi_memcpy>
   295f2:	4d05      	ldr	r5, [pc, #20]	@ (29608 <_start+0x1910>)
   295f4:	446d      	add	r5, sp
   295f6:	4628      	mov	r0, r5
   295f8:	4621      	mov	r1, r4
   295fa:	f7fb fb13 	bl	24c24 <_ZN20complex_dynamic_type3app17h9966d6692f2e0307E>
   295fe:	7828      	ldrb	r0, [r5, #0]
   29600:	2801      	cmp	r0, #1
   29602:	d107      	bne.n	29614 <_start+0x191c>
   29604:	f001 fb68 	bl	2acd8 <_start+0x2fe0>
   29608:	00001404 	.word	0x00001404
   2960c:	00000768 	.word	0x00000768
   29610:	000013a8 	.word	0x000013a8
   29614:	4915      	ldr	r1, [pc, #84]	@ (2966c <_start+0x1974>)
   29616:	4469      	add	r1, sp
   29618:	78c8      	ldrb	r0, [r1, #3]
   2961a:	4c15      	ldr	r4, [pc, #84]	@ (29670 <_start+0x1978>)
   2961c:	446c      	add	r4, sp
   2961e:	70a0      	strb	r0, [r4, #2]
   29620:	7848      	ldrb	r0, [r1, #1]
   29622:	788a      	ldrb	r2, [r1, #2]
   29624:	0212      	lsls	r2, r2, #8
   29626:	1810      	adds	r0, r2, r0
   29628:	8020      	strh	r0, [r4, #0]
   2962a:	9808      	ldr	r0, [sp, #32]
   2962c:	6e05      	ldr	r5, [r0, #96]	@ 0x60
   2962e:	3108      	adds	r1, #8
   29630:	4810      	ldr	r0, [pc, #64]	@ (29674 <_start+0x197c>)
   29632:	4468      	add	r0, sp
   29634:	900b      	str	r0, [sp, #44]	@ 0x2c
   29636:	264a      	movs	r6, #74	@ 0x4a
   29638:	4632      	mov	r2, r6
   2963a:	f001 fc05 	bl	2ae48 <__aeabi_memcpy4>
   2963e:	0e28      	lsrs	r0, r5, #24
   29640:	71a0      	strb	r0, [r4, #6]
   29642:	0c28      	lsrs	r0, r5, #16
   29644:	7160      	strb	r0, [r4, #5]
   29646:	0a28      	lsrs	r0, r5, #8
   29648:	7120      	strb	r0, [r4, #4]
   2964a:	70e5      	strb	r5, [r4, #3]
   2964c:	1de0      	adds	r0, r4, #7
   2964e:	990b      	ldr	r1, [sp, #44]	@ 0x2c
   29650:	4632      	mov	r2, r6
   29652:	f001 fd59 	bl	2b108 <__aeabi_memcpy>
   29656:	4d05      	ldr	r5, [pc, #20]	@ (2966c <_start+0x1974>)
   29658:	446d      	add	r5, sp
   2965a:	4628      	mov	r0, r5
   2965c:	4621      	mov	r1, r4
   2965e:	f7f6 fde9 	bl	20234 <_ZN20complex_dynamic_type3app17h01af947ec1dc48ffE>
   29662:	7828      	ldrb	r0, [r5, #0]
   29664:	2801      	cmp	r0, #1
   29666:	d107      	bne.n	29678 <_start+0x1980>
   29668:	f001 fb36 	bl	2acd8 <_start+0x2fe0>
   2966c:	00001404 	.word	0x00001404
   29670:	00000788 	.word	0x00000788
   29674:	000013a8 	.word	0x000013a8
   29678:	9804      	ldr	r0, [sp, #16]
   2967a:	1cc0      	adds	r0, r0, #3
   2967c:	4a16      	ldr	r2, [pc, #88]	@ (296d8 <_start+0x19e0>)
   2967e:	446a      	add	r2, sp
   29680:	78d3      	ldrb	r3, [r2, #3]
   29682:	4916      	ldr	r1, [pc, #88]	@ (296dc <_start+0x19e4>)
   29684:	4469      	add	r1, sp
   29686:	708b      	strb	r3, [r1, #2]
   29688:	7853      	ldrb	r3, [r2, #1]
   2968a:	7892      	ldrb	r2, [r2, #2]
   2968c:	0212      	lsls	r2, r2, #8
   2968e:	18d2      	adds	r2, r2, r3
   29690:	800a      	strh	r2, [r1, #0]
   29692:	9c08      	ldr	r4, [sp, #32]
   29694:	3460      	adds	r4, #96	@ 0x60
   29696:	cc1c      	ldmia	r4, {r2, r3, r4}
   29698:	0e25      	lsrs	r5, r4, #24
   2969a:	72c5      	strb	r5, [r0, #11]
   2969c:	0c25      	lsrs	r5, r4, #16
   2969e:	7285      	strb	r5, [r0, #10]
   296a0:	0a25      	lsrs	r5, r4, #8
   296a2:	7245      	strb	r5, [r0, #9]
   296a4:	7204      	strb	r4, [r0, #8]
   296a6:	0e1c      	lsrs	r4, r3, #24
   296a8:	71c4      	strb	r4, [r0, #7]
   296aa:	0c1c      	lsrs	r4, r3, #16
   296ac:	7184      	strb	r4, [r0, #6]
   296ae:	0a1c      	lsrs	r4, r3, #8
   296b0:	7144      	strb	r4, [r0, #5]
   296b2:	7103      	strb	r3, [r0, #4]
   296b4:	0e13      	lsrs	r3, r2, #24
   296b6:	70c3      	strb	r3, [r0, #3]
   296b8:	0c13      	lsrs	r3, r2, #16
   296ba:	7083      	strb	r3, [r0, #2]
   296bc:	0a13      	lsrs	r3, r2, #8
   296be:	7043      	strb	r3, [r0, #1]
   296c0:	7002      	strb	r2, [r0, #0]
   296c2:	4c05      	ldr	r4, [pc, #20]	@ (296d8 <_start+0x19e0>)
   296c4:	446c      	add	r4, sp
   296c6:	4620      	mov	r0, r4
   296c8:	f7fc ff3c 	bl	26544 <_ZN20complex_dynamic_type3app17hc62db1218cb117faE>
   296cc:	7820      	ldrb	r0, [r4, #0]
   296ce:	2801      	cmp	r0, #1
   296d0:	d106      	bne.n	296e0 <_start+0x19e8>
   296d2:	f001 fb01 	bl	2acd8 <_start+0x2fe0>
   296d6:	46c0      	nop			@ (mov r8, r8)
   296d8:	00001404 	.word	0x00001404
   296dc:	000007dc 	.word	0x000007dc
   296e0:	481a      	ldr	r0, [pc, #104]	@ (2974c <_start+0x1a54>)
   296e2:	4468      	add	r0, sp
   296e4:	78c1      	ldrb	r1, [r0, #3]
   296e6:	4c1a      	ldr	r4, [pc, #104]	@ (29750 <_start+0x1a58>)
   296e8:	446c      	add	r4, sp
   296ea:	70a1      	strb	r1, [r4, #2]
   296ec:	7841      	ldrb	r1, [r0, #1]
   296ee:	7882      	ldrb	r2, [r0, #2]
   296f0:	0212      	lsls	r2, r2, #8
   296f2:	1851      	adds	r1, r2, r1
   296f4:	8021      	strh	r1, [r4, #0]
   296f6:	3008      	adds	r0, #8
   296f8:	9908      	ldr	r1, [sp, #32]
   296fa:	6e09      	ldr	r1, [r1, #96]	@ 0x60
   296fc:	910a      	str	r1, [sp, #40]	@ 0x28
   296fe:	4b15      	ldr	r3, [pc, #84]	@ (29754 <_start+0x1a5c>)
   29700:	446b      	add	r3, sp
   29702:	930b      	str	r3, [sp, #44]	@ 0x2c
   29704:	c864      	ldmia	r0!, {r2, r5, r6}
   29706:	c364      	stmia	r3!, {r2, r5, r6}
   29708:	c866      	ldmia	r0!, {r1, r2, r5, r6}
   2970a:	c366      	stmia	r3!, {r1, r2, r5, r6}
   2970c:	c866      	ldmia	r0!, {r1, r2, r5, r6}
   2970e:	c366      	stmia	r3!, {r1, r2, r5, r6}
   29710:	c866      	ldmia	r0!, {r1, r2, r5, r6}
   29712:	c366      	stmia	r3!, {r1, r2, r5, r6}
   29714:	8801      	ldrh	r1, [r0, #0]
   29716:	8019      	strh	r1, [r3, #0]
   29718:	7880      	ldrb	r0, [r0, #2]
   2971a:	7098      	strb	r0, [r3, #2]
   2971c:	990a      	ldr	r1, [sp, #40]	@ 0x28
   2971e:	0e08      	lsrs	r0, r1, #24
   29720:	71a0      	strb	r0, [r4, #6]
   29722:	0c08      	lsrs	r0, r1, #16
   29724:	7160      	strb	r0, [r4, #5]
   29726:	0a08      	lsrs	r0, r1, #8
   29728:	7120      	strb	r0, [r4, #4]
   2972a:	70e1      	strb	r1, [r4, #3]
   2972c:	1de0      	adds	r0, r4, #7
   2972e:	223f      	movs	r2, #63	@ 0x3f
   29730:	990b      	ldr	r1, [sp, #44]	@ 0x2c
   29732:	f001 fce9 	bl	2b108 <__aeabi_memcpy>
   29736:	4d05      	ldr	r5, [pc, #20]	@ (2974c <_start+0x1a54>)
   29738:	446d      	add	r5, sp
   2973a:	4628      	mov	r0, r5
   2973c:	4621      	mov	r1, r4
   2973e:	f7f9 f94d 	bl	229dc <_ZN20complex_dynamic_type3app17h5aa822e73b398f5bE>
   29742:	7828      	ldrb	r0, [r5, #0]
   29744:	2801      	cmp	r0, #1
   29746:	d107      	bne.n	29758 <_start+0x1a60>
   29748:	f001 fac6 	bl	2acd8 <_start+0x2fe0>
   2974c:	00001404 	.word	0x00001404
   29750:	000007ec 	.word	0x000007ec
   29754:	000013a8 	.word	0x000013a8
   29758:	4915      	ldr	r1, [pc, #84]	@ (297b0 <_start+0x1ab8>)
   2975a:	4469      	add	r1, sp
   2975c:	78c8      	ldrb	r0, [r1, #3]
   2975e:	4c15      	ldr	r4, [pc, #84]	@ (297b4 <_start+0x1abc>)
   29760:	446c      	add	r4, sp
   29762:	70a0      	strb	r0, [r4, #2]
   29764:	7848      	ldrb	r0, [r1, #1]
   29766:	788a      	ldrb	r2, [r1, #2]
   29768:	0212      	lsls	r2, r2, #8
   2976a:	1810      	adds	r0, r2, r0
   2976c:	8020      	strh	r0, [r4, #0]
   2976e:	9808      	ldr	r0, [sp, #32]
   29770:	6e05      	ldr	r5, [r0, #96]	@ 0x60
   29772:	3108      	adds	r1, #8
   29774:	4810      	ldr	r0, [pc, #64]	@ (297b8 <_start+0x1ac0>)
   29776:	4468      	add	r0, sp
   29778:	900b      	str	r0, [sp, #44]	@ 0x2c
   2977a:	264f      	movs	r6, #79	@ 0x4f
   2977c:	4632      	mov	r2, r6
   2977e:	f001 fb63 	bl	2ae48 <__aeabi_memcpy4>
   29782:	0e28      	lsrs	r0, r5, #24
   29784:	71a0      	strb	r0, [r4, #6]
   29786:	0c28      	lsrs	r0, r5, #16
   29788:	7160      	strb	r0, [r4, #5]
   2978a:	0a28      	lsrs	r0, r5, #8
   2978c:	7120      	strb	r0, [r4, #4]
   2978e:	70e5      	strb	r5, [r4, #3]
   29790:	1de0      	adds	r0, r4, #7
   29792:	990b      	ldr	r1, [sp, #44]	@ 0x2c
   29794:	4632      	mov	r2, r6
   29796:	f001 fcb7 	bl	2b108 <__aeabi_memcpy>
   2979a:	4d05      	ldr	r5, [pc, #20]	@ (297b0 <_start+0x1ab8>)
   2979c:	446d      	add	r5, sp
   2979e:	4628      	mov	r0, r5
   297a0:	4621      	mov	r1, r4
   297a2:	f7f9 fb13 	bl	22dcc <_ZN20complex_dynamic_type3app17h64cbc4ff6b178503E>
   297a6:	7828      	ldrb	r0, [r5, #0]
   297a8:	2801      	cmp	r0, #1
   297aa:	d107      	bne.n	297bc <_start+0x1ac4>
   297ac:	f001 fa94 	bl	2acd8 <_start+0x2fe0>
   297b0:	00001404 	.word	0x00001404
   297b4:	00000834 	.word	0x00000834
   297b8:	000013a8 	.word	0x000013a8
   297bc:	4915      	ldr	r1, [pc, #84]	@ (29814 <_start+0x1b1c>)
   297be:	4469      	add	r1, sp
   297c0:	78c8      	ldrb	r0, [r1, #3]
   297c2:	4c15      	ldr	r4, [pc, #84]	@ (29818 <_start+0x1b20>)
   297c4:	446c      	add	r4, sp
   297c6:	70a0      	strb	r0, [r4, #2]
   297c8:	7848      	ldrb	r0, [r1, #1]
   297ca:	788a      	ldrb	r2, [r1, #2]
   297cc:	0212      	lsls	r2, r2, #8
   297ce:	1810      	adds	r0, r2, r0
   297d0:	8020      	strh	r0, [r4, #0]
   297d2:	9808      	ldr	r0, [sp, #32]
   297d4:	6e05      	ldr	r5, [r0, #96]	@ 0x60
   297d6:	3108      	adds	r1, #8
   297d8:	4810      	ldr	r0, [pc, #64]	@ (2981c <_start+0x1b24>)
   297da:	4468      	add	r0, sp
   297dc:	900b      	str	r0, [sp, #44]	@ 0x2c
   297de:	2642      	movs	r6, #66	@ 0x42
   297e0:	4632      	mov	r2, r6
   297e2:	f001 fb31 	bl	2ae48 <__aeabi_memcpy4>
   297e6:	0e28      	lsrs	r0, r5, #24
   297e8:	71a0      	strb	r0, [r4, #6]
   297ea:	0c28      	lsrs	r0, r5, #16
   297ec:	7160      	strb	r0, [r4, #5]
   297ee:	0a28      	lsrs	r0, r5, #8
   297f0:	7120      	strb	r0, [r4, #4]
   297f2:	70e5      	strb	r5, [r4, #3]
   297f4:	1de0      	adds	r0, r4, #7
   297f6:	990b      	ldr	r1, [sp, #44]	@ 0x2c
   297f8:	4632      	mov	r2, r6
   297fa:	f001 fc85 	bl	2b108 <__aeabi_memcpy>
   297fe:	4d05      	ldr	r5, [pc, #20]	@ (29814 <_start+0x1b1c>)
   29800:	446d      	add	r5, sp
   29802:	4628      	mov	r0, r5
   29804:	4621      	mov	r1, r4
   29806:	f7fa fd77 	bl	242f8 <_ZN20complex_dynamic_type3app17h88764f7a46f2c657E>
   2980a:	7828      	ldrb	r0, [r5, #0]
   2980c:	2801      	cmp	r0, #1
   2980e:	d107      	bne.n	29820 <_start+0x1b28>
   29810:	f001 fa62 	bl	2acd8 <_start+0x2fe0>
   29814:	00001404 	.word	0x00001404
   29818:	0000088c 	.word	0x0000088c
   2981c:	000013a8 	.word	0x000013a8
   29820:	4816      	ldr	r0, [pc, #88]	@ (2987c <_start+0x1b84>)
   29822:	4468      	add	r0, sp
   29824:	78c1      	ldrb	r1, [r0, #3]
   29826:	4c16      	ldr	r4, [pc, #88]	@ (29880 <_start+0x1b88>)
   29828:	446c      	add	r4, sp
   2982a:	70a1      	strb	r1, [r4, #2]
   2982c:	7841      	ldrb	r1, [r0, #1]
   2982e:	7882      	ldrb	r2, [r0, #2]
   29830:	0212      	lsls	r2, r2, #8
   29832:	1851      	adds	r1, r2, r1
   29834:	8021      	strh	r1, [r4, #0]
   29836:	3008      	adds	r0, #8
   29838:	9908      	ldr	r1, [sp, #32]
   2983a:	6e09      	ldr	r1, [r1, #96]	@ 0x60
   2983c:	910a      	str	r1, [sp, #40]	@ 0x28
   2983e:	4b11      	ldr	r3, [pc, #68]	@ (29884 <_start+0x1b8c>)
   29840:	446b      	add	r3, sp
   29842:	930b      	str	r3, [sp, #44]	@ 0x2c
   29844:	c864      	ldmia	r0!, {r2, r5, r6}
   29846:	c364      	stmia	r3!, {r2, r5, r6}
   29848:	c866      	ldmia	r0!, {r1, r2, r5, r6}
   2984a:	c366      	stmia	r3!, {r1, r2, r5, r6}
   2984c:	990a      	ldr	r1, [sp, #40]	@ 0x28
   2984e:	0e08      	lsrs	r0, r1, #24
   29850:	71a0      	strb	r0, [r4, #6]
   29852:	0c08      	lsrs	r0, r1, #16
   29854:	7160      	strb	r0, [r4, #5]
   29856:	0a08      	lsrs	r0, r1, #8
   29858:	7120      	strb	r0, [r4, #4]
   2985a:	70e1      	strb	r1, [r4, #3]
   2985c:	1de0      	adds	r0, r4, #7
   2985e:	221c      	movs	r2, #28
   29860:	990b      	ldr	r1, [sp, #44]	@ 0x2c
   29862:	f001 fc51 	bl	2b108 <__aeabi_memcpy>
   29866:	4d05      	ldr	r5, [pc, #20]	@ (2987c <_start+0x1b84>)
   29868:	446d      	add	r5, sp
   2986a:	4628      	mov	r0, r5
   2986c:	4621      	mov	r1, r4
   2986e:	f7f6 fd89 	bl	20384 <_ZN20complex_dynamic_type3app17h063a83fb3eccf4c9E>
   29872:	7828      	ldrb	r0, [r5, #0]
   29874:	2801      	cmp	r0, #1
   29876:	d107      	bne.n	29888 <_start+0x1b90>
   29878:	f001 fa2e 	bl	2acd8 <_start+0x2fe0>
   2987c:	00001404 	.word	0x00001404
   29880:	000008d8 	.word	0x000008d8
   29884:	000013a8 	.word	0x000013a8
   29888:	4816      	ldr	r0, [pc, #88]	@ (298e4 <_start+0x1bec>)
   2988a:	4468      	add	r0, sp
   2988c:	78c1      	ldrb	r1, [r0, #3]
   2988e:	4c16      	ldr	r4, [pc, #88]	@ (298e8 <_start+0x1bf0>)
   29890:	446c      	add	r4, sp
   29892:	70a1      	strb	r1, [r4, #2]
   29894:	7841      	ldrb	r1, [r0, #1]
   29896:	7882      	ldrb	r2, [r0, #2]
   29898:	0212      	lsls	r2, r2, #8
   2989a:	1851      	adds	r1, r2, r1
   2989c:	8021      	strh	r1, [r4, #0]
   2989e:	3008      	adds	r0, #8
   298a0:	9908      	ldr	r1, [sp, #32]
   298a2:	6e09      	ldr	r1, [r1, #96]	@ 0x60
   298a4:	4b11      	ldr	r3, [pc, #68]	@ (298ec <_start+0x1bf4>)
   298a6:	446b      	add	r3, sp
   298a8:	930b      	str	r3, [sp, #44]	@ 0x2c
   298aa:	c864      	ldmia	r0!, {r2, r5, r6}
   298ac:	c364      	stmia	r3!, {r2, r5, r6}
   298ae:	c864      	ldmia	r0!, {r2, r5, r6}
   298b0:	c364      	stmia	r3!, {r2, r5, r6}
   298b2:	c864      	ldmia	r0!, {r2, r5, r6}
   298b4:	c364      	stmia	r3!, {r2, r5, r6}
   298b6:	0e08      	lsrs	r0, r1, #24
   298b8:	71a0      	strb	r0, [r4, #6]
   298ba:	0c08      	lsrs	r0, r1, #16
   298bc:	7160      	strb	r0, [r4, #5]
   298be:	0a08      	lsrs	r0, r1, #8
   298c0:	7120      	strb	r0, [r4, #4]
   298c2:	70e1      	strb	r1, [r4, #3]
   298c4:	1de0      	adds	r0, r4, #7
   298c6:	2224      	movs	r2, #36	@ 0x24
   298c8:	990b      	ldr	r1, [sp, #44]	@ 0x2c
   298ca:	f001 fc1d 	bl	2b108 <__aeabi_memcpy>
   298ce:	4d05      	ldr	r5, [pc, #20]	@ (298e4 <_start+0x1bec>)
   298d0:	446d      	add	r5, sp
   298d2:	4628      	mov	r0, r5
   298d4:	4621      	mov	r1, r4
   298d6:	f7fe f967 	bl	27ba8 <_ZN20complex_dynamic_type3app17hf882712a9004198cE>
   298da:	7828      	ldrb	r0, [r5, #0]
   298dc:	2801      	cmp	r0, #1
   298de:	d107      	bne.n	298f0 <_start+0x1bf8>
   298e0:	f001 f9fa 	bl	2acd8 <_start+0x2fe0>
   298e4:	00001404 	.word	0x00001404
   298e8:	000008fc 	.word	0x000008fc
   298ec:	000013a8 	.word	0x000013a8
   298f0:	4914      	ldr	r1, [pc, #80]	@ (29944 <_start+0x1c4c>)
   298f2:	4469      	add	r1, sp
   298f4:	9b08      	ldr	r3, [sp, #32]
   298f6:	6e98      	ldr	r0, [r3, #104]	@ 0x68
   298f8:	8088      	strh	r0, [r1, #4]
   298fa:	4813      	ldr	r0, [pc, #76]	@ (29948 <_start+0x1c50>)
   298fc:	4468      	add	r0, sp
   298fe:	78c2      	ldrb	r2, [r0, #3]
   29900:	4c12      	ldr	r4, [pc, #72]	@ (2994c <_start+0x1c54>)
   29902:	446c      	add	r4, sp
   29904:	70a2      	strb	r2, [r4, #2]
   29906:	7842      	ldrb	r2, [r0, #1]
   29908:	7880      	ldrb	r0, [r0, #2]
   2990a:	0200      	lsls	r0, r0, #8
   2990c:	1880      	adds	r0, r0, r2
   2990e:	8020      	strh	r0, [r4, #0]
   29910:	6e18      	ldr	r0, [r3, #96]	@ 0x60
   29912:	70e0      	strb	r0, [r4, #3]
   29914:	0e02      	lsrs	r2, r0, #24
   29916:	71a2      	strb	r2, [r4, #6]
   29918:	0c02      	lsrs	r2, r0, #16
   2991a:	7162      	strb	r2, [r4, #5]
   2991c:	0a00      	lsrs	r0, r0, #8
   2991e:	7120      	strb	r0, [r4, #4]
   29920:	6e58      	ldr	r0, [r3, #100]	@ 0x64
   29922:	6018      	str	r0, [r3, #0]
   29924:	1de0      	adds	r0, r4, #7
   29926:	2206      	movs	r2, #6
   29928:	f001 fbee 	bl	2b108 <__aeabi_memcpy>
   2992c:	4d06      	ldr	r5, [pc, #24]	@ (29948 <_start+0x1c50>)
   2992e:	446d      	add	r5, sp
   29930:	4628      	mov	r0, r5
   29932:	4621      	mov	r1, r4
   29934:	f7fd fe94 	bl	27660 <_ZN20complex_dynamic_type3app17hf2e2720825f11730E>
   29938:	7828      	ldrb	r0, [r5, #0]
   2993a:	2801      	cmp	r0, #1
   2993c:	d108      	bne.n	29950 <_start+0x1c58>
   2993e:	f001 f9cb 	bl	2acd8 <_start+0x2fe0>
   29942:	46c0      	nop			@ (mov r8, r8)
   29944:	000013a8 	.word	0x000013a8
   29948:	00001404 	.word	0x00001404
   2994c:	00000928 	.word	0x00000928
   29950:	4816      	ldr	r0, [pc, #88]	@ (299ac <_start+0x1cb4>)
   29952:	4468      	add	r0, sp
   29954:	78c1      	ldrb	r1, [r0, #3]
   29956:	4c16      	ldr	r4, [pc, #88]	@ (299b0 <_start+0x1cb8>)
   29958:	446c      	add	r4, sp
   2995a:	70a1      	strb	r1, [r4, #2]
   2995c:	7841      	ldrb	r1, [r0, #1]
   2995e:	7882      	ldrb	r2, [r0, #2]
   29960:	0212      	lsls	r2, r2, #8
   29962:	1851      	adds	r1, r2, r1
   29964:	8021      	strh	r1, [r4, #0]
   29966:	3008      	adds	r0, #8
   29968:	9908      	ldr	r1, [sp, #32]
   2996a:	6e09      	ldr	r1, [r1, #96]	@ 0x60
   2996c:	4b11      	ldr	r3, [pc, #68]	@ (299b4 <_start+0x1cbc>)
   2996e:	446b      	add	r3, sp
   29970:	930b      	str	r3, [sp, #44]	@ 0x2c
   29972:	c864      	ldmia	r0!, {r2, r5, r6}
   29974:	c364      	stmia	r3!, {r2, r5, r6}
   29976:	c864      	ldmia	r0!, {r2, r5, r6}
   29978:	c364      	stmia	r3!, {r2, r5, r6}
   2997a:	8800      	ldrh	r0, [r0, #0]
   2997c:	8018      	strh	r0, [r3, #0]
   2997e:	0e08      	lsrs	r0, r1, #24
   29980:	71a0      	strb	r0, [r4, #6]
   29982:	0c08      	lsrs	r0, r1, #16
   29984:	7160      	strb	r0, [r4, #5]
   29986:	0a08      	lsrs	r0, r1, #8
   29988:	7120      	strb	r0, [r4, #4]
   2998a:	70e1      	strb	r1, [r4, #3]
   2998c:	1de0      	adds	r0, r4, #7
   2998e:	221a      	movs	r2, #26
   29990:	990b      	ldr	r1, [sp, #44]	@ 0x2c
   29992:	f001 fbb9 	bl	2b108 <__aeabi_memcpy>
   29996:	4d05      	ldr	r5, [pc, #20]	@ (299ac <_start+0x1cb4>)
   29998:	446d      	add	r5, sp
   2999a:	4628      	mov	r0, r5
   2999c:	4621      	mov	r1, r4
   2999e:	f7fc fd25 	bl	263ec <_ZN20complex_dynamic_type3app17hc5a793af8f81f53dE>
   299a2:	7828      	ldrb	r0, [r5, #0]
   299a4:	2801      	cmp	r0, #1
   299a6:	d107      	bne.n	299b8 <_start+0x1cc0>
   299a8:	f001 f996 	bl	2acd8 <_start+0x2fe0>
   299ac:	00001404 	.word	0x00001404
   299b0:	00000938 	.word	0x00000938
   299b4:	000013a8 	.word	0x000013a8
   299b8:	4915      	ldr	r1, [pc, #84]	@ (29a10 <_start+0x1d18>)
   299ba:	4469      	add	r1, sp
   299bc:	78c8      	ldrb	r0, [r1, #3]
   299be:	4c15      	ldr	r4, [pc, #84]	@ (29a14 <_start+0x1d1c>)
   299c0:	446c      	add	r4, sp
   299c2:	70a0      	strb	r0, [r4, #2]
   299c4:	7848      	ldrb	r0, [r1, #1]
   299c6:	788a      	ldrb	r2, [r1, #2]
   299c8:	0212      	lsls	r2, r2, #8
   299ca:	1810      	adds	r0, r2, r0
   299cc:	8020      	strh	r0, [r4, #0]
   299ce:	9808      	ldr	r0, [sp, #32]
   299d0:	6e05      	ldr	r5, [r0, #96]	@ 0x60
   299d2:	3108      	adds	r1, #8
   299d4:	4810      	ldr	r0, [pc, #64]	@ (29a18 <_start+0x1d20>)
   299d6:	4468      	add	r0, sp
   299d8:	900b      	str	r0, [sp, #44]	@ 0x2c
   299da:	264c      	movs	r6, #76	@ 0x4c
   299dc:	4632      	mov	r2, r6
   299de:	f001 fa33 	bl	2ae48 <__aeabi_memcpy4>
   299e2:	0e28      	lsrs	r0, r5, #24
   299e4:	71a0      	strb	r0, [r4, #6]
   299e6:	0c28      	lsrs	r0, r5, #16
   299e8:	7160      	strb	r0, [r4, #5]
   299ea:	0a28      	lsrs	r0, r5, #8
   299ec:	7120      	strb	r0, [r4, #4]
   299ee:	70e5      	strb	r5, [r4, #3]
   299f0:	1de0      	adds	r0, r4, #7
   299f2:	990b      	ldr	r1, [sp, #44]	@ 0x2c
   299f4:	4632      	mov	r2, r6
   299f6:	f001 fb87 	bl	2b108 <__aeabi_memcpy>
   299fa:	4d05      	ldr	r5, [pc, #20]	@ (29a10 <_start+0x1d18>)
   299fc:	446d      	add	r5, sp
   299fe:	4628      	mov	r0, r5
   29a00:	4621      	mov	r1, r4
   29a02:	f7f8 ff43 	bl	2288c <_ZN20complex_dynamic_type3app17h57334147c3393873E>
   29a06:	7828      	ldrb	r0, [r5, #0]
   29a08:	2801      	cmp	r0, #1
   29a0a:	d107      	bne.n	29a1c <_start+0x1d24>
   29a0c:	f001 f964 	bl	2acd8 <_start+0x2fe0>
   29a10:	00001404 	.word	0x00001404
   29a14:	0000095c 	.word	0x0000095c
   29a18:	000013a8 	.word	0x000013a8
   29a1c:	4915      	ldr	r1, [pc, #84]	@ (29a74 <_start+0x1d7c>)
   29a1e:	4469      	add	r1, sp
   29a20:	78c8      	ldrb	r0, [r1, #3]
   29a22:	4c15      	ldr	r4, [pc, #84]	@ (29a78 <_start+0x1d80>)
   29a24:	446c      	add	r4, sp
   29a26:	70a0      	strb	r0, [r4, #2]
   29a28:	7848      	ldrb	r0, [r1, #1]
   29a2a:	788a      	ldrb	r2, [r1, #2]
   29a2c:	0212      	lsls	r2, r2, #8
   29a2e:	1810      	adds	r0, r2, r0
   29a30:	8020      	strh	r0, [r4, #0]
   29a32:	9808      	ldr	r0, [sp, #32]
   29a34:	6e05      	ldr	r5, [r0, #96]	@ 0x60
   29a36:	3108      	adds	r1, #8
   29a38:	4810      	ldr	r0, [pc, #64]	@ (29a7c <_start+0x1d84>)
   29a3a:	4468      	add	r0, sp
   29a3c:	900b      	str	r0, [sp, #44]	@ 0x2c
   29a3e:	2646      	movs	r6, #70	@ 0x46
   29a40:	4632      	mov	r2, r6
   29a42:	f001 fa01 	bl	2ae48 <__aeabi_memcpy4>
   29a46:	0e28      	lsrs	r0, r5, #24
   29a48:	71a0      	strb	r0, [r4, #6]
   29a4a:	0c28      	lsrs	r0, r5, #16
   29a4c:	7160      	strb	r0, [r4, #5]
   29a4e:	0a28      	lsrs	r0, r5, #8
   29a50:	7120      	strb	r0, [r4, #4]
   29a52:	70e5      	strb	r5, [r4, #3]
   29a54:	1de0      	adds	r0, r4, #7
   29a56:	990b      	ldr	r1, [sp, #44]	@ 0x2c
   29a58:	4632      	mov	r2, r6
   29a5a:	f001 fb55 	bl	2b108 <__aeabi_memcpy>
   29a5e:	4d05      	ldr	r5, [pc, #20]	@ (29a74 <_start+0x1d7c>)
   29a60:	446d      	add	r5, sp
   29a62:	4628      	mov	r0, r5
   29a64:	4621      	mov	r1, r4
   29a66:	f7f7 fa81 	bl	20f6c <_ZN20complex_dynamic_type3app17h206877f36bd3bf2cE>
   29a6a:	7828      	ldrb	r0, [r5, #0]
   29a6c:	2801      	cmp	r0, #1
   29a6e:	d107      	bne.n	29a80 <_start+0x1d88>
   29a70:	f001 f932 	bl	2acd8 <_start+0x2fe0>
   29a74:	00001404 	.word	0x00001404
   29a78:	000009b0 	.word	0x000009b0
   29a7c:	000013a8 	.word	0x000013a8
   29a80:	4819      	ldr	r0, [pc, #100]	@ (29ae8 <_start+0x1df0>)
   29a82:	4468      	add	r0, sp
   29a84:	78c1      	ldrb	r1, [r0, #3]
   29a86:	4c19      	ldr	r4, [pc, #100]	@ (29aec <_start+0x1df4>)
   29a88:	446c      	add	r4, sp
   29a8a:	70a1      	strb	r1, [r4, #2]
   29a8c:	7841      	ldrb	r1, [r0, #1]
   29a8e:	7882      	ldrb	r2, [r0, #2]
   29a90:	0212      	lsls	r2, r2, #8
   29a92:	1851      	adds	r1, r2, r1
   29a94:	8021      	strh	r1, [r4, #0]
   29a96:	3008      	adds	r0, #8
   29a98:	9908      	ldr	r1, [sp, #32]
   29a9a:	6e09      	ldr	r1, [r1, #96]	@ 0x60
   29a9c:	910a      	str	r1, [sp, #40]	@ 0x28
   29a9e:	4b14      	ldr	r3, [pc, #80]	@ (29af0 <_start+0x1df8>)
   29aa0:	446b      	add	r3, sp
   29aa2:	930b      	str	r3, [sp, #44]	@ 0x2c
   29aa4:	c864      	ldmia	r0!, {r2, r5, r6}
   29aa6:	c364      	stmia	r3!, {r2, r5, r6}
   29aa8:	c864      	ldmia	r0!, {r2, r5, r6}
   29aaa:	c364      	stmia	r3!, {r2, r5, r6}
   29aac:	c864      	ldmia	r0!, {r2, r5, r6}
   29aae:	c364      	stmia	r3!, {r2, r5, r6}
   29ab0:	c866      	ldmia	r0!, {r1, r2, r5, r6}
   29ab2:	c366      	stmia	r3!, {r1, r2, r5, r6}
   29ab4:	7800      	ldrb	r0, [r0, #0]
   29ab6:	7018      	strb	r0, [r3, #0]
   29ab8:	990a      	ldr	r1, [sp, #40]	@ 0x28
   29aba:	0e08      	lsrs	r0, r1, #24
   29abc:	71a0      	strb	r0, [r4, #6]
   29abe:	0c08      	lsrs	r0, r1, #16
   29ac0:	7160      	strb	r0, [r4, #5]
   29ac2:	0a08      	lsrs	r0, r1, #8
   29ac4:	7120      	strb	r0, [r4, #4]
   29ac6:	70e1      	strb	r1, [r4, #3]
   29ac8:	1de0      	adds	r0, r4, #7
   29aca:	2235      	movs	r2, #53	@ 0x35
   29acc:	990b      	ldr	r1, [sp, #44]	@ 0x2c
   29ace:	f001 fb1b 	bl	2b108 <__aeabi_memcpy>
   29ad2:	4d05      	ldr	r5, [pc, #20]	@ (29ae8 <_start+0x1df0>)
   29ad4:	446d      	add	r5, sp
   29ad6:	4628      	mov	r0, r5
   29ad8:	4621      	mov	r1, r4
   29ada:	f7fa fcb5 	bl	24448 <_ZN20complex_dynamic_type3app17h891852dc0564c1d6E>
   29ade:	7828      	ldrb	r0, [r5, #0]
   29ae0:	2801      	cmp	r0, #1
   29ae2:	d107      	bne.n	29af4 <_start+0x1dfc>
   29ae4:	f001 f8f8 	bl	2acd8 <_start+0x2fe0>
   29ae8:	00001404 	.word	0x00001404
   29aec:	00000a00 	.word	0x00000a00
   29af0:	000013a8 	.word	0x000013a8
   29af4:	4818      	ldr	r0, [pc, #96]	@ (29b58 <_start+0x1e60>)
   29af6:	4468      	add	r0, sp
   29af8:	78c1      	ldrb	r1, [r0, #3]
   29afa:	4c18      	ldr	r4, [pc, #96]	@ (29b5c <_start+0x1e64>)
   29afc:	446c      	add	r4, sp
   29afe:	70a1      	strb	r1, [r4, #2]
   29b00:	7841      	ldrb	r1, [r0, #1]
   29b02:	7882      	ldrb	r2, [r0, #2]
   29b04:	0212      	lsls	r2, r2, #8
   29b06:	1851      	adds	r1, r2, r1
   29b08:	8021      	strh	r1, [r4, #0]
   29b0a:	3008      	adds	r0, #8
   29b0c:	9908      	ldr	r1, [sp, #32]
   29b0e:	6e09      	ldr	r1, [r1, #96]	@ 0x60
   29b10:	910a      	str	r1, [sp, #40]	@ 0x28
   29b12:	4b13      	ldr	r3, [pc, #76]	@ (29b60 <_start+0x1e68>)
   29b14:	446b      	add	r3, sp
   29b16:	930b      	str	r3, [sp, #44]	@ 0x2c
   29b18:	c866      	ldmia	r0!, {r1, r2, r5, r6}
   29b1a:	c366      	stmia	r3!, {r1, r2, r5, r6}
   29b1c:	c866      	ldmia	r0!, {r1, r2, r5, r6}
   29b1e:	c366      	stmia	r3!, {r1, r2, r5, r6}
   29b20:	c866      	ldmia	r0!, {r1, r2, r5, r6}
   29b22:	c366      	stmia	r3!, {r1, r2, r5, r6}
   29b24:	7800      	ldrb	r0, [r0, #0]
   29b26:	7018      	strb	r0, [r3, #0]
   29b28:	990a      	ldr	r1, [sp, #40]	@ 0x28
   29b2a:	0e08      	lsrs	r0, r1, #24
   29b2c:	71a0      	strb	r0, [r4, #6]
   29b2e:	0c08      	lsrs	r0, r1, #16
   29b30:	7160      	strb	r0, [r4, #5]
   29b32:	0a08      	lsrs	r0, r1, #8
   29b34:	7120      	strb	r0, [r4, #4]
   29b36:	70e1      	strb	r1, [r4, #3]
   29b38:	1de0      	adds	r0, r4, #7
   29b3a:	2231      	movs	r2, #49	@ 0x31
   29b3c:	990b      	ldr	r1, [sp, #44]	@ 0x2c
   29b3e:	f001 fae3 	bl	2b108 <__aeabi_memcpy>
   29b42:	4d05      	ldr	r5, [pc, #20]	@ (29b58 <_start+0x1e60>)
   29b44:	446d      	add	r5, sp
   29b46:	4628      	mov	r0, r5
   29b48:	4621      	mov	r1, r4
   29b4a:	f7fd fe31 	bl	277b0 <_ZN20complex_dynamic_type3app17hf4c2c84542464893E>
   29b4e:	7828      	ldrb	r0, [r5, #0]
   29b50:	2801      	cmp	r0, #1
   29b52:	d107      	bne.n	29b64 <_start+0x1e6c>
   29b54:	f001 f8c0 	bl	2acd8 <_start+0x2fe0>
   29b58:	00001404 	.word	0x00001404
   29b5c:	00000a3c 	.word	0x00000a3c
   29b60:	000013a8 	.word	0x000013a8
   29b64:	4816      	ldr	r0, [pc, #88]	@ (29bc0 <_start+0x1ec8>)
   29b66:	4468      	add	r0, sp
   29b68:	78c1      	ldrb	r1, [r0, #3]
   29b6a:	4c16      	ldr	r4, [pc, #88]	@ (29bc4 <_start+0x1ecc>)
   29b6c:	446c      	add	r4, sp
   29b6e:	70a1      	strb	r1, [r4, #2]
   29b70:	7841      	ldrb	r1, [r0, #1]
   29b72:	7882      	ldrb	r2, [r0, #2]
   29b74:	0212      	lsls	r2, r2, #8
   29b76:	1851      	adds	r1, r2, r1
   29b78:	8021      	strh	r1, [r4, #0]
   29b7a:	3008      	adds	r0, #8
   29b7c:	9908      	ldr	r1, [sp, #32]
   29b7e:	6e09      	ldr	r1, [r1, #96]	@ 0x60
   29b80:	910a      	str	r1, [sp, #40]	@ 0x28
   29b82:	4b11      	ldr	r3, [pc, #68]	@ (29bc8 <_start+0x1ed0>)
   29b84:	446b      	add	r3, sp
   29b86:	930b      	str	r3, [sp, #44]	@ 0x2c
   29b88:	c866      	ldmia	r0!, {r1, r2, r5, r6}
   29b8a:	c366      	stmia	r3!, {r1, r2, r5, r6}
   29b8c:	c866      	ldmia	r0!, {r1, r2, r5, r6}
   29b8e:	c366      	stmia	r3!, {r1, r2, r5, r6}
   29b90:	990a      	ldr	r1, [sp, #40]	@ 0x28
   29b92:	0e08      	lsrs	r0, r1, #24
   29b94:	71a0      	strb	r0, [r4, #6]
   29b96:	0c08      	lsrs	r0, r1, #16
   29b98:	7160      	strb	r0, [r4, #5]
   29b9a:	0a08      	lsrs	r0, r1, #8
   29b9c:	7120      	strb	r0, [r4, #4]
   29b9e:	70e1      	strb	r1, [r4, #3]
   29ba0:	1de0      	adds	r0, r4, #7
   29ba2:	2220      	movs	r2, #32
   29ba4:	990b      	ldr	r1, [sp, #44]	@ 0x2c
   29ba6:	f001 faaf 	bl	2b108 <__aeabi_memcpy>
   29baa:	4d05      	ldr	r5, [pc, #20]	@ (29bc0 <_start+0x1ec8>)
   29bac:	446d      	add	r5, sp
   29bae:	4628      	mov	r0, r5
   29bb0:	4621      	mov	r1, r4
   29bb2:	f7f7 fe79 	bl	218a8 <_ZN20complex_dynamic_type3app17h3032866677b10e3cE>
   29bb6:	7828      	ldrb	r0, [r5, #0]
   29bb8:	2801      	cmp	r0, #1
   29bba:	d107      	bne.n	29bcc <_start+0x1ed4>
   29bbc:	f001 f88c 	bl	2acd8 <_start+0x2fe0>
   29bc0:	00001404 	.word	0x00001404
   29bc4:	00000a74 	.word	0x00000a74
   29bc8:	000013a8 	.word	0x000013a8
   29bcc:	4915      	ldr	r1, [pc, #84]	@ (29c24 <_start+0x1f2c>)
   29bce:	4469      	add	r1, sp
   29bd0:	78c8      	ldrb	r0, [r1, #3]
   29bd2:	4c15      	ldr	r4, [pc, #84]	@ (29c28 <_start+0x1f30>)
   29bd4:	446c      	add	r4, sp
   29bd6:	70a0      	strb	r0, [r4, #2]
   29bd8:	7848      	ldrb	r0, [r1, #1]
   29bda:	788a      	ldrb	r2, [r1, #2]
   29bdc:	0212      	lsls	r2, r2, #8
   29bde:	1810      	adds	r0, r2, r0
   29be0:	8020      	strh	r0, [r4, #0]
   29be2:	9808      	ldr	r0, [sp, #32]
   29be4:	6e05      	ldr	r5, [r0, #96]	@ 0x60
   29be6:	3108      	adds	r1, #8
   29be8:	4810      	ldr	r0, [pc, #64]	@ (29c2c <_start+0x1f34>)
   29bea:	4468      	add	r0, sp
   29bec:	900b      	str	r0, [sp, #44]	@ 0x2c
   29bee:	264a      	movs	r6, #74	@ 0x4a
   29bf0:	4632      	mov	r2, r6
   29bf2:	f001 f929 	bl	2ae48 <__aeabi_memcpy4>
   29bf6:	0e28      	lsrs	r0, r5, #24
   29bf8:	71a0      	strb	r0, [r4, #6]
   29bfa:	0c28      	lsrs	r0, r5, #16
   29bfc:	7160      	strb	r0, [r4, #5]
   29bfe:	0a28      	lsrs	r0, r5, #8
   29c00:	7120      	strb	r0, [r4, #4]
   29c02:	70e5      	strb	r5, [r4, #3]
   29c04:	1de0      	adds	r0, r4, #7
   29c06:	990b      	ldr	r1, [sp, #44]	@ 0x2c
   29c08:	4632      	mov	r2, r6
   29c0a:	f001 fa7d 	bl	2b108 <__aeabi_memcpy>
   29c0e:	4d05      	ldr	r5, [pc, #20]	@ (29c24 <_start+0x1f2c>)
   29c10:	446d      	add	r5, sp
   29c12:	4628      	mov	r0, r5
   29c14:	4621      	mov	r1, r4
   29c16:	f7fb fb5b 	bl	252d0 <_ZN20complex_dynamic_type3app17ha593cccd540e823dE>
   29c1a:	7828      	ldrb	r0, [r5, #0]
   29c1c:	2801      	cmp	r0, #1
   29c1e:	d107      	bne.n	29c30 <_start+0x1f38>
   29c20:	f001 f85a 	bl	2acd8 <_start+0x2fe0>
   29c24:	00001404 	.word	0x00001404
   29c28:	00000a9c 	.word	0x00000a9c
   29c2c:	000013a8 	.word	0x000013a8
   29c30:	4915      	ldr	r1, [pc, #84]	@ (29c88 <_start+0x1f90>)
   29c32:	4469      	add	r1, sp
   29c34:	78c8      	ldrb	r0, [r1, #3]
   29c36:	4c15      	ldr	r4, [pc, #84]	@ (29c8c <_start+0x1f94>)
   29c38:	446c      	add	r4, sp
   29c3a:	70a0      	strb	r0, [r4, #2]
   29c3c:	7848      	ldrb	r0, [r1, #1]
   29c3e:	788a      	ldrb	r2, [r1, #2]
   29c40:	0212      	lsls	r2, r2, #8
   29c42:	1810      	adds	r0, r2, r0
   29c44:	8020      	strh	r0, [r4, #0]
   29c46:	9808      	ldr	r0, [sp, #32]
   29c48:	6e05      	ldr	r5, [r0, #96]	@ 0x60
   29c4a:	3108      	adds	r1, #8
   29c4c:	4810      	ldr	r0, [pc, #64]	@ (29c90 <_start+0x1f98>)
   29c4e:	4468      	add	r0, sp
   29c50:	900b      	str	r0, [sp, #44]	@ 0x2c
   29c52:	2648      	movs	r6, #72	@ 0x48
   29c54:	4632      	mov	r2, r6
   29c56:	f001 f8f7 	bl	2ae48 <__aeabi_memcpy4>
   29c5a:	0e28      	lsrs	r0, r5, #24
   29c5c:	71a0      	strb	r0, [r4, #6]
   29c5e:	0c28      	lsrs	r0, r5, #16
   29c60:	7160      	strb	r0, [r4, #5]
   29c62:	0a28      	lsrs	r0, r5, #8
   29c64:	7120      	strb	r0, [r4, #4]
   29c66:	70e5      	strb	r5, [r4, #3]
   29c68:	1de0      	adds	r0, r4, #7
   29c6a:	990b      	ldr	r1, [sp, #44]	@ 0x2c
   29c6c:	4632      	mov	r2, r6
   29c6e:	f001 fa4b 	bl	2b108 <__aeabi_memcpy>
   29c72:	4d05      	ldr	r5, [pc, #20]	@ (29c88 <_start+0x1f90>)
   29c74:	446d      	add	r5, sp
   29c76:	4628      	mov	r0, r5
   29c78:	4621      	mov	r1, r4
   29c7a:	f7f7 febd 	bl	219f8 <_ZN20complex_dynamic_type3app17h39ec297b216404ccE>
   29c7e:	7828      	ldrb	r0, [r5, #0]
   29c80:	2801      	cmp	r0, #1
   29c82:	d107      	bne.n	29c94 <_start+0x1f9c>
   29c84:	f001 f828 	bl	2acd8 <_start+0x2fe0>
   29c88:	00001404 	.word	0x00001404
   29c8c:	00000af0 	.word	0x00000af0
   29c90:	000013a8 	.word	0x000013a8
   29c94:	4915      	ldr	r1, [pc, #84]	@ (29cec <_start+0x1ff4>)
   29c96:	4469      	add	r1, sp
   29c98:	78c8      	ldrb	r0, [r1, #3]
   29c9a:	4c15      	ldr	r4, [pc, #84]	@ (29cf0 <_start+0x1ff8>)
   29c9c:	446c      	add	r4, sp
   29c9e:	70a0      	strb	r0, [r4, #2]
   29ca0:	7848      	ldrb	r0, [r1, #1]
   29ca2:	788a      	ldrb	r2, [r1, #2]
   29ca4:	0212      	lsls	r2, r2, #8
   29ca6:	1810      	adds	r0, r2, r0
   29ca8:	8020      	strh	r0, [r4, #0]
   29caa:	9808      	ldr	r0, [sp, #32]
   29cac:	6e05      	ldr	r5, [r0, #96]	@ 0x60
   29cae:	3108      	adds	r1, #8
   29cb0:	4810      	ldr	r0, [pc, #64]	@ (29cf4 <_start+0x1ffc>)
   29cb2:	4468      	add	r0, sp
   29cb4:	900b      	str	r0, [sp, #44]	@ 0x2c
   29cb6:	265a      	movs	r6, #90	@ 0x5a
   29cb8:	4632      	mov	r2, r6
   29cba:	f001 f8c5 	bl	2ae48 <__aeabi_memcpy4>
   29cbe:	0e28      	lsrs	r0, r5, #24
   29cc0:	71a0      	strb	r0, [r4, #6]
   29cc2:	0c28      	lsrs	r0, r5, #16
   29cc4:	7160      	strb	r0, [r4, #5]
   29cc6:	0a28      	lsrs	r0, r5, #8
   29cc8:	7120      	strb	r0, [r4, #4]
   29cca:	70e5      	strb	r5, [r4, #3]
   29ccc:	1de0      	adds	r0, r4, #7
   29cce:	990b      	ldr	r1, [sp, #44]	@ 0x2c
   29cd0:	4632      	mov	r2, r6
   29cd2:	f001 fa19 	bl	2b108 <__aeabi_memcpy>
   29cd6:	4d05      	ldr	r5, [pc, #20]	@ (29cec <_start+0x1ff4>)
   29cd8:	446d      	add	r5, sp
   29cda:	4628      	mov	r0, r5
   29cdc:	4621      	mov	r1, r4
   29cde:	f7fc f8e7 	bl	25eb0 <_ZN20complex_dynamic_type3app17hb9843ab66012ca50E>
   29ce2:	7828      	ldrb	r0, [r5, #0]
   29ce4:	2801      	cmp	r0, #1
   29ce6:	d107      	bne.n	29cf8 <_start+0x2000>
   29ce8:	f000 fff6 	bl	2acd8 <_start+0x2fe0>
   29cec:	00001404 	.word	0x00001404
   29cf0:	00000b40 	.word	0x00000b40
   29cf4:	000013a8 	.word	0x000013a8
   29cf8:	4817      	ldr	r0, [pc, #92]	@ (29d58 <_start+0x2060>)
   29cfa:	4468      	add	r0, sp
   29cfc:	78c1      	ldrb	r1, [r0, #3]
   29cfe:	4c17      	ldr	r4, [pc, #92]	@ (29d5c <_start+0x2064>)
   29d00:	446c      	add	r4, sp
   29d02:	70a1      	strb	r1, [r4, #2]
   29d04:	7841      	ldrb	r1, [r0, #1]
   29d06:	7882      	ldrb	r2, [r0, #2]
   29d08:	0212      	lsls	r2, r2, #8
   29d0a:	1851      	adds	r1, r2, r1
   29d0c:	8021      	strh	r1, [r4, #0]
   29d0e:	3008      	adds	r0, #8
   29d10:	9908      	ldr	r1, [sp, #32]
   29d12:	6e09      	ldr	r1, [r1, #96]	@ 0x60
   29d14:	4b12      	ldr	r3, [pc, #72]	@ (29d60 <_start+0x2068>)
   29d16:	446b      	add	r3, sp
   29d18:	930b      	str	r3, [sp, #44]	@ 0x2c
   29d1a:	c860      	ldmia	r0!, {r5, r6}
   29d1c:	c360      	stmia	r3!, {r5, r6}
   29d1e:	c864      	ldmia	r0!, {r2, r5, r6}
   29d20:	c364      	stmia	r3!, {r2, r5, r6}
   29d22:	8802      	ldrh	r2, [r0, #0]
   29d24:	801a      	strh	r2, [r3, #0]
   29d26:	7880      	ldrb	r0, [r0, #2]
   29d28:	7098      	strb	r0, [r3, #2]
   29d2a:	0e08      	lsrs	r0, r1, #24
   29d2c:	71a0      	strb	r0, [r4, #6]
   29d2e:	0c08      	lsrs	r0, r1, #16
   29d30:	7160      	strb	r0, [r4, #5]
   29d32:	0a08      	lsrs	r0, r1, #8
   29d34:	7120      	strb	r0, [r4, #4]
   29d36:	70e1      	strb	r1, [r4, #3]
   29d38:	1de0      	adds	r0, r4, #7
   29d3a:	2217      	movs	r2, #23
   29d3c:	990b      	ldr	r1, [sp, #44]	@ 0x2c
   29d3e:	f001 f9e3 	bl	2b108 <__aeabi_memcpy>
   29d42:	4d05      	ldr	r5, [pc, #20]	@ (29d58 <_start+0x2060>)
   29d44:	446d      	add	r5, sp
   29d46:	4628      	mov	r0, r5
   29d48:	4621      	mov	r1, r4
   29d4a:	f7fa f981 	bl	24050 <_ZN20complex_dynamic_type3app17h7e206a4f557ce007E>
   29d4e:	7828      	ldrb	r0, [r5, #0]
   29d50:	2801      	cmp	r0, #1
   29d52:	d107      	bne.n	29d64 <_start+0x206c>
   29d54:	f000 ffc0 	bl	2acd8 <_start+0x2fe0>
   29d58:	00001404 	.word	0x00001404
   29d5c:	00000ba4 	.word	0x00000ba4
   29d60:	000013a8 	.word	0x000013a8
   29d64:	4816      	ldr	r0, [pc, #88]	@ (29dc0 <_start+0x20c8>)
   29d66:	4468      	add	r0, sp
   29d68:	78c1      	ldrb	r1, [r0, #3]
   29d6a:	4c16      	ldr	r4, [pc, #88]	@ (29dc4 <_start+0x20cc>)
   29d6c:	446c      	add	r4, sp
   29d6e:	70a1      	strb	r1, [r4, #2]
   29d70:	7841      	ldrb	r1, [r0, #1]
   29d72:	7882      	ldrb	r2, [r0, #2]
   29d74:	0212      	lsls	r2, r2, #8
   29d76:	1851      	adds	r1, r2, r1
   29d78:	8021      	strh	r1, [r4, #0]
   29d7a:	3008      	adds	r0, #8
   29d7c:	9908      	ldr	r1, [sp, #32]
   29d7e:	6e09      	ldr	r1, [r1, #96]	@ 0x60
   29d80:	4b11      	ldr	r3, [pc, #68]	@ (29dc8 <_start+0x20d0>)
   29d82:	446b      	add	r3, sp
   29d84:	930b      	str	r3, [sp, #44]	@ 0x2c
   29d86:	c864      	ldmia	r0!, {r2, r5, r6}
   29d88:	c364      	stmia	r3!, {r2, r5, r6}
   29d8a:	c864      	ldmia	r0!, {r2, r5, r6}
   29d8c:	c364      	stmia	r3!, {r2, r5, r6}
   29d8e:	8800      	ldrh	r0, [r0, #0]
   29d90:	8018      	strh	r0, [r3, #0]
   29d92:	0e08      	lsrs	r0, r1, #24
   29d94:	71a0      	strb	r0, [r4, #6]
   29d96:	0c08      	lsrs	r0, r1, #16
   29d98:	7160      	strb	r0, [r4, #5]
   29d9a:	0a08      	lsrs	r0, r1, #8
   29d9c:	7120      	strb	r0, [r4, #4]
   29d9e:	70e1      	strb	r1, [r4, #3]
   29da0:	1de0      	adds	r0, r4, #7
   29da2:	221a      	movs	r2, #26
   29da4:	990b      	ldr	r1, [sp, #44]	@ 0x2c
   29da6:	f001 f9af 	bl	2b108 <__aeabi_memcpy>
   29daa:	4d05      	ldr	r5, [pc, #20]	@ (29dc0 <_start+0x20c8>)
   29dac:	446d      	add	r5, sp
   29dae:	4628      	mov	r0, r5
   29db0:	4621      	mov	r1, r4
   29db2:	f7f9 f8b3 	bl	22f1c <_ZN20complex_dynamic_type3app17h655df8382a7c5c7eE>
   29db6:	7828      	ldrb	r0, [r5, #0]
   29db8:	2801      	cmp	r0, #1
   29dba:	d107      	bne.n	29dcc <_start+0x20d4>
   29dbc:	f000 ff8c 	bl	2acd8 <_start+0x2fe0>
   29dc0:	00001404 	.word	0x00001404
   29dc4:	00000bc4 	.word	0x00000bc4
   29dc8:	000013a8 	.word	0x000013a8
   29dcc:	4818      	ldr	r0, [pc, #96]	@ (29e30 <_start+0x2138>)
   29dce:	4468      	add	r0, sp
   29dd0:	78c1      	ldrb	r1, [r0, #3]
   29dd2:	4c18      	ldr	r4, [pc, #96]	@ (29e34 <_start+0x213c>)
   29dd4:	446c      	add	r4, sp
   29dd6:	70a1      	strb	r1, [r4, #2]
   29dd8:	7841      	ldrb	r1, [r0, #1]
   29dda:	7882      	ldrb	r2, [r0, #2]
   29ddc:	0212      	lsls	r2, r2, #8
   29dde:	1851      	adds	r1, r2, r1
   29de0:	8021      	strh	r1, [r4, #0]
   29de2:	3008      	adds	r0, #8
   29de4:	9908      	ldr	r1, [sp, #32]
   29de6:	6e09      	ldr	r1, [r1, #96]	@ 0x60
   29de8:	910a      	str	r1, [sp, #40]	@ 0x28
   29dea:	4b13      	ldr	r3, [pc, #76]	@ (29e38 <_start+0x2140>)
   29dec:	446b      	add	r3, sp
   29dee:	930b      	str	r3, [sp, #44]	@ 0x2c
   29df0:	c866      	ldmia	r0!, {r1, r2, r5, r6}
   29df2:	c366      	stmia	r3!, {r1, r2, r5, r6}
   29df4:	c866      	ldmia	r0!, {r1, r2, r5, r6}
   29df6:	c366      	stmia	r3!, {r1, r2, r5, r6}
   29df8:	8801      	ldrh	r1, [r0, #0]
   29dfa:	8019      	strh	r1, [r3, #0]
   29dfc:	7880      	ldrb	r0, [r0, #2]
   29dfe:	7098      	strb	r0, [r3, #2]
   29e00:	990a      	ldr	r1, [sp, #40]	@ 0x28
   29e02:	0e08      	lsrs	r0, r1, #24
   29e04:	71a0      	strb	r0, [r4, #6]
   29e06:	0c08      	lsrs	r0, r1, #16
   29e08:	7160      	strb	r0, [r4, #5]
   29e0a:	0a08      	lsrs	r0, r1, #8
   29e0c:	7120      	strb	r0, [r4, #4]
   29e0e:	70e1      	strb	r1, [r4, #3]
   29e10:	1de0      	adds	r0, r4, #7
   29e12:	2223      	movs	r2, #35	@ 0x23
   29e14:	990b      	ldr	r1, [sp, #44]	@ 0x2c
   29e16:	f001 f977 	bl	2b108 <__aeabi_memcpy>
   29e1a:	4d05      	ldr	r5, [pc, #20]	@ (29e30 <_start+0x2138>)
   29e1c:	446d      	add	r5, sp
   29e1e:	4628      	mov	r0, r5
   29e20:	4621      	mov	r1, r4
   29e22:	f7fb f8ff 	bl	25024 <_ZN20complex_dynamic_type3app17ha2047110057ce593E>
   29e26:	7828      	ldrb	r0, [r5, #0]
   29e28:	2801      	cmp	r0, #1
   29e2a:	d107      	bne.n	29e3c <_start+0x2144>
   29e2c:	f000 ff54 	bl	2acd8 <_start+0x2fe0>
   29e30:	00001404 	.word	0x00001404
   29e34:	00000be8 	.word	0x00000be8
   29e38:	000013a8 	.word	0x000013a8
   29e3c:	4915      	ldr	r1, [pc, #84]	@ (29e94 <_start+0x219c>)
   29e3e:	4469      	add	r1, sp
   29e40:	78c8      	ldrb	r0, [r1, #3]
   29e42:	4c15      	ldr	r4, [pc, #84]	@ (29e98 <_start+0x21a0>)
   29e44:	446c      	add	r4, sp
   29e46:	70a0      	strb	r0, [r4, #2]
   29e48:	7848      	ldrb	r0, [r1, #1]
   29e4a:	788a      	ldrb	r2, [r1, #2]
   29e4c:	0212      	lsls	r2, r2, #8
   29e4e:	1810      	adds	r0, r2, r0
   29e50:	8020      	strh	r0, [r4, #0]
   29e52:	9808      	ldr	r0, [sp, #32]
   29e54:	6e05      	ldr	r5, [r0, #96]	@ 0x60
   29e56:	3108      	adds	r1, #8
   29e58:	4810      	ldr	r0, [pc, #64]	@ (29e9c <_start+0x21a4>)
   29e5a:	4468      	add	r0, sp
   29e5c:	900b      	str	r0, [sp, #44]	@ 0x2c
   29e5e:	2652      	movs	r6, #82	@ 0x52
   29e60:	4632      	mov	r2, r6
   29e62:	f000 fff1 	bl	2ae48 <__aeabi_memcpy4>
   29e66:	0e28      	lsrs	r0, r5, #24
   29e68:	71a0      	strb	r0, [r4, #6]
   29e6a:	0c28      	lsrs	r0, r5, #16
   29e6c:	7160      	strb	r0, [r4, #5]
   29e6e:	0a28      	lsrs	r0, r5, #8
   29e70:	7120      	strb	r0, [r4, #4]
   29e72:	70e5      	strb	r5, [r4, #3]
   29e74:	1de0      	adds	r0, r4, #7
   29e76:	990b      	ldr	r1, [sp, #44]	@ 0x2c
   29e78:	4632      	mov	r2, r6
   29e7a:	f001 f945 	bl	2b108 <__aeabi_memcpy>
   29e7e:	4d05      	ldr	r5, [pc, #20]	@ (29e94 <_start+0x219c>)
   29e80:	446d      	add	r5, sp
   29e82:	4628      	mov	r0, r5
   29e84:	4621      	mov	r1, r4
   29e86:	f7fd fb43 	bl	27510 <_ZN20complex_dynamic_type3app17hf18ba5d2e1eb0169E>
   29e8a:	7828      	ldrb	r0, [r5, #0]
   29e8c:	2801      	cmp	r0, #1
   29e8e:	d107      	bne.n	29ea0 <_start+0x21a8>
   29e90:	f000 ff22 	bl	2acd8 <_start+0x2fe0>
   29e94:	00001404 	.word	0x00001404
   29e98:	00000c14 	.word	0x00000c14
   29e9c:	000013a8 	.word	0x000013a8
   29ea0:	4915      	ldr	r1, [pc, #84]	@ (29ef8 <_start+0x2200>)
   29ea2:	4469      	add	r1, sp
   29ea4:	78c8      	ldrb	r0, [r1, #3]
   29ea6:	4c15      	ldr	r4, [pc, #84]	@ (29efc <_start+0x2204>)
   29ea8:	446c      	add	r4, sp
   29eaa:	70a0      	strb	r0, [r4, #2]
   29eac:	7848      	ldrb	r0, [r1, #1]
   29eae:	788a      	ldrb	r2, [r1, #2]
   29eb0:	0212      	lsls	r2, r2, #8
   29eb2:	1810      	adds	r0, r2, r0
   29eb4:	8020      	strh	r0, [r4, #0]
   29eb6:	9808      	ldr	r0, [sp, #32]
   29eb8:	6e05      	ldr	r5, [r0, #96]	@ 0x60
   29eba:	3108      	adds	r1, #8
   29ebc:	4810      	ldr	r0, [pc, #64]	@ (29f00 <_start+0x2208>)
   29ebe:	4468      	add	r0, sp
   29ec0:	900b      	str	r0, [sp, #44]	@ 0x2c
   29ec2:	2643      	movs	r6, #67	@ 0x43
   29ec4:	4632      	mov	r2, r6
   29ec6:	f000 ffbf 	bl	2ae48 <__aeabi_memcpy4>
   29eca:	0e28      	lsrs	r0, r5, #24
   29ecc:	71a0      	strb	r0, [r4, #6]
   29ece:	0c28      	lsrs	r0, r5, #16
   29ed0:	7160      	strb	r0, [r4, #5]
   29ed2:	0a28      	lsrs	r0, r5, #8
   29ed4:	7120      	strb	r0, [r4, #4]
   29ed6:	70e5      	strb	r5, [r4, #3]
   29ed8:	1de0      	adds	r0, r4, #7
   29eda:	990b      	ldr	r1, [sp, #44]	@ 0x2c
   29edc:	4632      	mov	r2, r6
   29ede:	f001 f913 	bl	2b108 <__aeabi_memcpy>
   29ee2:	4d05      	ldr	r5, [pc, #20]	@ (29ef8 <_start+0x2200>)
   29ee4:	446d      	add	r5, sp
   29ee6:	4628      	mov	r0, r5
   29ee8:	4621      	mov	r1, r4
   29eea:	f7f6 fcef 	bl	208cc <_ZN20complex_dynamic_type3app17h0a316936758c9468E>
   29eee:	7828      	ldrb	r0, [r5, #0]
   29ef0:	2801      	cmp	r0, #1
   29ef2:	d107      	bne.n	29f04 <_start+0x220c>
   29ef4:	f000 fef0 	bl	2acd8 <_start+0x2fe0>
   29ef8:	00001404 	.word	0x00001404
   29efc:	00000c70 	.word	0x00000c70
   29f00:	000013a8 	.word	0x000013a8
   29f04:	4817      	ldr	r0, [pc, #92]	@ (29f64 <_start+0x226c>)
   29f06:	4468      	add	r0, sp
   29f08:	78c1      	ldrb	r1, [r0, #3]
   29f0a:	4c17      	ldr	r4, [pc, #92]	@ (29f68 <_start+0x2270>)
   29f0c:	446c      	add	r4, sp
   29f0e:	70a1      	strb	r1, [r4, #2]
   29f10:	7841      	ldrb	r1, [r0, #1]
   29f12:	7882      	ldrb	r2, [r0, #2]
   29f14:	0212      	lsls	r2, r2, #8
   29f16:	1851      	adds	r1, r2, r1
   29f18:	8021      	strh	r1, [r4, #0]
   29f1a:	3008      	adds	r0, #8
   29f1c:	9908      	ldr	r1, [sp, #32]
   29f1e:	6e09      	ldr	r1, [r1, #96]	@ 0x60
   29f20:	4b12      	ldr	r3, [pc, #72]	@ (29f6c <_start+0x2274>)
   29f22:	446b      	add	r3, sp
   29f24:	930b      	str	r3, [sp, #44]	@ 0x2c
   29f26:	c864      	ldmia	r0!, {r2, r5, r6}
   29f28:	c364      	stmia	r3!, {r2, r5, r6}
   29f2a:	c864      	ldmia	r0!, {r2, r5, r6}
   29f2c:	c364      	stmia	r3!, {r2, r5, r6}
   29f2e:	c864      	ldmia	r0!, {r2, r5, r6}
   29f30:	c364      	stmia	r3!, {r2, r5, r6}
   29f32:	8800      	ldrh	r0, [r0, #0]
   29f34:	8018      	strh	r0, [r3, #0]
   29f36:	0e08      	lsrs	r0, r1, #24
   29f38:	71a0      	strb	r0, [r4, #6]
   29f3a:	0c08      	lsrs	r0, r1, #16
   29f3c:	7160      	strb	r0, [r4, #5]
   29f3e:	0a08      	lsrs	r0, r1, #8
   29f40:	7120      	strb	r0, [r4, #4]
   29f42:	70e1      	strb	r1, [r4, #3]
   29f44:	1de0      	adds	r0, r4, #7
   29f46:	2226      	movs	r2, #38	@ 0x26
   29f48:	990b      	ldr	r1, [sp, #44]	@ 0x2c
   29f4a:	f001 f8dd 	bl	2b108 <__aeabi_memcpy>
   29f4e:	4d05      	ldr	r5, [pc, #20]	@ (29f64 <_start+0x226c>)
   29f50:	446d      	add	r5, sp
   29f52:	4628      	mov	r0, r5
   29f54:	4621      	mov	r1, r4
   29f56:	f7fa ff11 	bl	24d7c <_ZN20complex_dynamic_type3app17ha039ed984250b37aE>
   29f5a:	7828      	ldrb	r0, [r5, #0]
   29f5c:	2801      	cmp	r0, #1
   29f5e:	d107      	bne.n	29f70 <_start+0x2278>
   29f60:	f000 feba 	bl	2acd8 <_start+0x2fe0>
   29f64:	00001404 	.word	0x00001404
   29f68:	00000cbc 	.word	0x00000cbc
   29f6c:	000013a8 	.word	0x000013a8
   29f70:	4915      	ldr	r1, [pc, #84]	@ (29fc8 <_start+0x22d0>)
   29f72:	4469      	add	r1, sp
   29f74:	78c8      	ldrb	r0, [r1, #3]
   29f76:	4c15      	ldr	r4, [pc, #84]	@ (29fcc <_start+0x22d4>)
   29f78:	446c      	add	r4, sp
   29f7a:	70a0      	strb	r0, [r4, #2]
   29f7c:	7848      	ldrb	r0, [r1, #1]
   29f7e:	788a      	ldrb	r2, [r1, #2]
   29f80:	0212      	lsls	r2, r2, #8
   29f82:	1810      	adds	r0, r2, r0
   29f84:	8020      	strh	r0, [r4, #0]
   29f86:	9808      	ldr	r0, [sp, #32]
   29f88:	6e05      	ldr	r5, [r0, #96]	@ 0x60
   29f8a:	3108      	adds	r1, #8
   29f8c:	4810      	ldr	r0, [pc, #64]	@ (29fd0 <_start+0x22d8>)
   29f8e:	4468      	add	r0, sp
   29f90:	900b      	str	r0, [sp, #44]	@ 0x2c
   29f92:	264c      	movs	r6, #76	@ 0x4c
   29f94:	4632      	mov	r2, r6
   29f96:	f000 ff57 	bl	2ae48 <__aeabi_memcpy4>
   29f9a:	0e28      	lsrs	r0, r5, #24
   29f9c:	71a0      	strb	r0, [r4, #6]
   29f9e:	0c28      	lsrs	r0, r5, #16
   29fa0:	7160      	strb	r0, [r4, #5]
   29fa2:	0a28      	lsrs	r0, r5, #8
   29fa4:	7120      	strb	r0, [r4, #4]
   29fa6:	70e5      	strb	r5, [r4, #3]
   29fa8:	1de0      	adds	r0, r4, #7
   29faa:	990b      	ldr	r1, [sp, #44]	@ 0x2c
   29fac:	4632      	mov	r2, r6
   29fae:	f001 f8ab 	bl	2b108 <__aeabi_memcpy>
   29fb2:	4d05      	ldr	r5, [pc, #20]	@ (29fc8 <_start+0x22d0>)
   29fb4:	446d      	add	r5, sp
   29fb6:	4628      	mov	r0, r5
   29fb8:	4621      	mov	r1, r4
   29fba:	f7f9 fe4d 	bl	23c58 <_ZN20complex_dynamic_type3app17h7ac88aa0110f5ee6E>
   29fbe:	7828      	ldrb	r0, [r5, #0]
   29fc0:	2801      	cmp	r0, #1
   29fc2:	d107      	bne.n	29fd4 <_start+0x22dc>
   29fc4:	f000 fe88 	bl	2acd8 <_start+0x2fe0>
   29fc8:	00001404 	.word	0x00001404
   29fcc:	00000cec 	.word	0x00000cec
   29fd0:	000013a8 	.word	0x000013a8
   29fd4:	4819      	ldr	r0, [pc, #100]	@ (2a03c <_start+0x2344>)
   29fd6:	4468      	add	r0, sp
   29fd8:	78c1      	ldrb	r1, [r0, #3]
   29fda:	4c19      	ldr	r4, [pc, #100]	@ (2a040 <_start+0x2348>)
   29fdc:	446c      	add	r4, sp
   29fde:	70a1      	strb	r1, [r4, #2]
   29fe0:	7841      	ldrb	r1, [r0, #1]
   29fe2:	7882      	ldrb	r2, [r0, #2]
   29fe4:	0212      	lsls	r2, r2, #8
   29fe6:	1851      	adds	r1, r2, r1
   29fe8:	8021      	strh	r1, [r4, #0]
   29fea:	3008      	adds	r0, #8
   29fec:	9908      	ldr	r1, [sp, #32]
   29fee:	6e09      	ldr	r1, [r1, #96]	@ 0x60
   29ff0:	910a      	str	r1, [sp, #40]	@ 0x28
   29ff2:	4b14      	ldr	r3, [pc, #80]	@ (2a044 <_start+0x234c>)
   29ff4:	446b      	add	r3, sp
   29ff6:	930b      	str	r3, [sp, #44]	@ 0x2c
   29ff8:	c866      	ldmia	r0!, {r1, r2, r5, r6}
   29ffa:	c366      	stmia	r3!, {r1, r2, r5, r6}
   29ffc:	c866      	ldmia	r0!, {r1, r2, r5, r6}
   29ffe:	c366      	stmia	r3!, {r1, r2, r5, r6}
   2a000:	c866      	ldmia	r0!, {r1, r2, r5, r6}
   2a002:	c366      	stmia	r3!, {r1, r2, r5, r6}
   2a004:	8801      	ldrh	r1, [r0, #0]
   2a006:	8019      	strh	r1, [r3, #0]
   2a008:	7880      	ldrb	r0, [r0, #2]
   2a00a:	7098      	strb	r0, [r3, #2]
   2a00c:	990a      	ldr	r1, [sp, #40]	@ 0x28
   2a00e:	0e08      	lsrs	r0, r1, #24
   2a010:	71a0      	strb	r0, [r4, #6]
   2a012:	0c08      	lsrs	r0, r1, #16
   2a014:	7160      	strb	r0, [r4, #5]
   2a016:	0a08      	lsrs	r0, r1, #8
   2a018:	7120      	strb	r0, [r4, #4]
   2a01a:	70e1      	strb	r1, [r4, #3]
   2a01c:	1de0      	adds	r0, r4, #7
   2a01e:	2233      	movs	r2, #51	@ 0x33
   2a020:	990b      	ldr	r1, [sp, #44]	@ 0x2c
   2a022:	f001 f871 	bl	2b108 <__aeabi_memcpy>
   2a026:	4d05      	ldr	r5, [pc, #20]	@ (2a03c <_start+0x2344>)
   2a028:	446d      	add	r5, sp
   2a02a:	4628      	mov	r0, r5
   2a02c:	4621      	mov	r1, r4
   2a02e:	f7fd f9c7 	bl	273c0 <_ZN20complex_dynamic_type3app17hec510210b10f1595E>
   2a032:	7828      	ldrb	r0, [r5, #0]
   2a034:	2801      	cmp	r0, #1
   2a036:	d107      	bne.n	2a048 <_start+0x2350>
   2a038:	f000 fe4e 	bl	2acd8 <_start+0x2fe0>
   2a03c:	00001404 	.word	0x00001404
   2a040:	00000d40 	.word	0x00000d40
   2a044:	000013a8 	.word	0x000013a8
   2a048:	4915      	ldr	r1, [pc, #84]	@ (2a0a0 <_start+0x23a8>)
   2a04a:	4469      	add	r1, sp
   2a04c:	78c8      	ldrb	r0, [r1, #3]
   2a04e:	4c15      	ldr	r4, [pc, #84]	@ (2a0a4 <_start+0x23ac>)
   2a050:	446c      	add	r4, sp
   2a052:	70a0      	strb	r0, [r4, #2]
   2a054:	7848      	ldrb	r0, [r1, #1]
   2a056:	788a      	ldrb	r2, [r1, #2]
   2a058:	0212      	lsls	r2, r2, #8
   2a05a:	1810      	adds	r0, r2, r0
   2a05c:	8020      	strh	r0, [r4, #0]
   2a05e:	9808      	ldr	r0, [sp, #32]
   2a060:	6e05      	ldr	r5, [r0, #96]	@ 0x60
   2a062:	3108      	adds	r1, #8
   2a064:	4810      	ldr	r0, [pc, #64]	@ (2a0a8 <_start+0x23b0>)
   2a066:	4468      	add	r0, sp
   2a068:	900b      	str	r0, [sp, #44]	@ 0x2c
   2a06a:	2656      	movs	r6, #86	@ 0x56
   2a06c:	4632      	mov	r2, r6
   2a06e:	f000 feeb 	bl	2ae48 <__aeabi_memcpy4>
   2a072:	0e28      	lsrs	r0, r5, #24
   2a074:	71a0      	strb	r0, [r4, #6]
   2a076:	0c28      	lsrs	r0, r5, #16
   2a078:	7160      	strb	r0, [r4, #5]
   2a07a:	0a28      	lsrs	r0, r5, #8
   2a07c:	7120      	strb	r0, [r4, #4]
   2a07e:	70e5      	strb	r5, [r4, #3]
   2a080:	1de0      	adds	r0, r4, #7
   2a082:	990b      	ldr	r1, [sp, #44]	@ 0x2c
   2a084:	4632      	mov	r2, r6
   2a086:	f001 f83f 	bl	2b108 <__aeabi_memcpy>
   2a08a:	4d05      	ldr	r5, [pc, #20]	@ (2a0a0 <_start+0x23a8>)
   2a08c:	446d      	add	r5, sp
   2a08e:	4628      	mov	r0, r5
   2a090:	4621      	mov	r1, r4
   2a092:	f7f9 f93d 	bl	23310 <_ZN20complex_dynamic_type3app17h697433b612162e4cE>
   2a096:	7828      	ldrb	r0, [r5, #0]
   2a098:	2801      	cmp	r0, #1
   2a09a:	d107      	bne.n	2a0ac <_start+0x23b4>
   2a09c:	f000 fe1c 	bl	2acd8 <_start+0x2fe0>
   2a0a0:	00001404 	.word	0x00001404
   2a0a4:	00000d7c 	.word	0x00000d7c
   2a0a8:	000013a8 	.word	0x000013a8
   2a0ac:	4819      	ldr	r0, [pc, #100]	@ (2a114 <_start+0x241c>)
   2a0ae:	4468      	add	r0, sp
   2a0b0:	78c1      	ldrb	r1, [r0, #3]
   2a0b2:	4c19      	ldr	r4, [pc, #100]	@ (2a118 <_start+0x2420>)
   2a0b4:	446c      	add	r4, sp
   2a0b6:	70a1      	strb	r1, [r4, #2]
   2a0b8:	7841      	ldrb	r1, [r0, #1]
   2a0ba:	7882      	ldrb	r2, [r0, #2]
   2a0bc:	0212      	lsls	r2, r2, #8
   2a0be:	1851      	adds	r1, r2, r1
   2a0c0:	8021      	strh	r1, [r4, #0]
   2a0c2:	3008      	adds	r0, #8
   2a0c4:	9908      	ldr	r1, [sp, #32]
   2a0c6:	6e09      	ldr	r1, [r1, #96]	@ 0x60
   2a0c8:	910a      	str	r1, [sp, #40]	@ 0x28
   2a0ca:	4b14      	ldr	r3, [pc, #80]	@ (2a11c <_start+0x2424>)
   2a0cc:	446b      	add	r3, sp
   2a0ce:	930b      	str	r3, [sp, #44]	@ 0x2c
   2a0d0:	c864      	ldmia	r0!, {r2, r5, r6}
   2a0d2:	c364      	stmia	r3!, {r2, r5, r6}
   2a0d4:	c866      	ldmia	r0!, {r1, r2, r5, r6}
   2a0d6:	c366      	stmia	r3!, {r1, r2, r5, r6}
   2a0d8:	c826      	ldmia	r0!, {r1, r2, r5}
   2a0da:	c326      	stmia	r3!, {r1, r2, r5}
   2a0dc:	c866      	ldmia	r0!, {r1, r2, r5, r6}
   2a0de:	c366      	stmia	r3!, {r1, r2, r5, r6}
   2a0e0:	7800      	ldrb	r0, [r0, #0]
   2a0e2:	7018      	strb	r0, [r3, #0]
   2a0e4:	990a      	ldr	r1, [sp, #40]	@ 0x28
   2a0e6:	0e08      	lsrs	r0, r1, #24
   2a0e8:	71a0      	strb	r0, [r4, #6]
   2a0ea:	0c08      	lsrs	r0, r1, #16
   2a0ec:	7160      	strb	r0, [r4, #5]
   2a0ee:	0a08      	lsrs	r0, r1, #8
   2a0f0:	7120      	strb	r0, [r4, #4]
   2a0f2:	70e1      	strb	r1, [r4, #3]
   2a0f4:	1de0      	adds	r0, r4, #7
   2a0f6:	2239      	movs	r2, #57	@ 0x39
   2a0f8:	990b      	ldr	r1, [sp, #44]	@ 0x2c
   2a0fa:	f001 f805 	bl	2b108 <__aeabi_memcpy>
   2a0fe:	4d05      	ldr	r5, [pc, #20]	@ (2a114 <_start+0x241c>)
   2a100:	446d      	add	r5, sp
   2a102:	4628      	mov	r0, r5
   2a104:	4621      	mov	r1, r4
   2a106:	f7f9 f85b 	bl	231c0 <_ZN20complex_dynamic_type3app17h67daf3ce0d48ab92E>
   2a10a:	7828      	ldrb	r0, [r5, #0]
   2a10c:	2801      	cmp	r0, #1
   2a10e:	d107      	bne.n	2a120 <_start+0x2428>
   2a110:	f000 fde2 	bl	2acd8 <_start+0x2fe0>
   2a114:	00001404 	.word	0x00001404
   2a118:	00000ddc 	.word	0x00000ddc
   2a11c:	000013a8 	.word	0x000013a8
   2a120:	4818      	ldr	r0, [pc, #96]	@ (2a184 <_start+0x248c>)
   2a122:	4468      	add	r0, sp
   2a124:	78c1      	ldrb	r1, [r0, #3]
   2a126:	4c18      	ldr	r4, [pc, #96]	@ (2a188 <_start+0x2490>)
   2a128:	446c      	add	r4, sp
   2a12a:	70a1      	strb	r1, [r4, #2]
   2a12c:	7841      	ldrb	r1, [r0, #1]
   2a12e:	7882      	ldrb	r2, [r0, #2]
   2a130:	0212      	lsls	r2, r2, #8
   2a132:	1851      	adds	r1, r2, r1
   2a134:	8021      	strh	r1, [r4, #0]
   2a136:	3008      	adds	r0, #8
   2a138:	9908      	ldr	r1, [sp, #32]
   2a13a:	6e09      	ldr	r1, [r1, #96]	@ 0x60
   2a13c:	910a      	str	r1, [sp, #40]	@ 0x28
   2a13e:	4b13      	ldr	r3, [pc, #76]	@ (2a18c <_start+0x2494>)
   2a140:	446b      	add	r3, sp
   2a142:	930b      	str	r3, [sp, #44]	@ 0x2c
   2a144:	c864      	ldmia	r0!, {r2, r5, r6}
   2a146:	c364      	stmia	r3!, {r2, r5, r6}
   2a148:	c864      	ldmia	r0!, {r2, r5, r6}
   2a14a:	c364      	stmia	r3!, {r2, r5, r6}
   2a14c:	c866      	ldmia	r0!, {r1, r2, r5, r6}
   2a14e:	c366      	stmia	r3!, {r1, r2, r5, r6}
   2a150:	8800      	ldrh	r0, [r0, #0]
   2a152:	8018      	strh	r0, [r3, #0]
   2a154:	990a      	ldr	r1, [sp, #40]	@ 0x28
   2a156:	0e08      	lsrs	r0, r1, #24
   2a158:	71a0      	strb	r0, [r4, #6]
   2a15a:	0c08      	lsrs	r0, r1, #16
   2a15c:	7160      	strb	r0, [r4, #5]
   2a15e:	0a08      	lsrs	r0, r1, #8
   2a160:	7120      	strb	r0, [r4, #4]
   2a162:	70e1      	strb	r1, [r4, #3]
   2a164:	1de0      	adds	r0, r4, #7
   2a166:	222a      	movs	r2, #42	@ 0x2a
   2a168:	990b      	ldr	r1, [sp, #44]	@ 0x2c
   2a16a:	f000 ffcd 	bl	2b108 <__aeabi_memcpy>
   2a16e:	4d05      	ldr	r5, [pc, #20]	@ (2a184 <_start+0x248c>)
   2a170:	446d      	add	r5, sp
   2a172:	4628      	mov	r0, r5
   2a174:	4621      	mov	r1, r4
   2a176:	f7f8 f83b 	bl	221f0 <_ZN20complex_dynamic_type3app17h48a9db16e4990c2eE>
   2a17a:	7828      	ldrb	r0, [r5, #0]
   2a17c:	2801      	cmp	r0, #1
   2a17e:	d107      	bne.n	2a190 <_start+0x2498>
   2a180:	f000 fdaa 	bl	2acd8 <_start+0x2fe0>
   2a184:	00001404 	.word	0x00001404
   2a188:	00000e1c 	.word	0x00000e1c
   2a18c:	000013a8 	.word	0x000013a8
   2a190:	4915      	ldr	r1, [pc, #84]	@ (2a1e8 <_start+0x24f0>)
   2a192:	4469      	add	r1, sp
   2a194:	78c8      	ldrb	r0, [r1, #3]
   2a196:	4c15      	ldr	r4, [pc, #84]	@ (2a1ec <_start+0x24f4>)
   2a198:	446c      	add	r4, sp
   2a19a:	70a0      	strb	r0, [r4, #2]
   2a19c:	7848      	ldrb	r0, [r1, #1]
   2a19e:	788a      	ldrb	r2, [r1, #2]
   2a1a0:	0212      	lsls	r2, r2, #8
   2a1a2:	1810      	adds	r0, r2, r0
   2a1a4:	8020      	strh	r0, [r4, #0]
   2a1a6:	9808      	ldr	r0, [sp, #32]
   2a1a8:	6e05      	ldr	r5, [r0, #96]	@ 0x60
   2a1aa:	3108      	adds	r1, #8
   2a1ac:	4810      	ldr	r0, [pc, #64]	@ (2a1f0 <_start+0x24f8>)
   2a1ae:	4468      	add	r0, sp
   2a1b0:	900b      	str	r0, [sp, #44]	@ 0x2c
   2a1b2:	2641      	movs	r6, #65	@ 0x41
   2a1b4:	4632      	mov	r2, r6
   2a1b6:	f000 fe47 	bl	2ae48 <__aeabi_memcpy4>
   2a1ba:	0e28      	lsrs	r0, r5, #24
   2a1bc:	71a0      	strb	r0, [r4, #6]
   2a1be:	0c28      	lsrs	r0, r5, #16
   2a1c0:	7160      	strb	r0, [r4, #5]
   2a1c2:	0a28      	lsrs	r0, r5, #8
   2a1c4:	7120      	strb	r0, [r4, #4]
   2a1c6:	70e5      	strb	r5, [r4, #3]
   2a1c8:	1de0      	adds	r0, r4, #7
   2a1ca:	990b      	ldr	r1, [sp, #44]	@ 0x2c
   2a1cc:	4632      	mov	r2, r6
   2a1ce:	f000 ff9b 	bl	2b108 <__aeabi_memcpy>
   2a1d2:	4d05      	ldr	r5, [pc, #20]	@ (2a1e8 <_start+0x24f0>)
   2a1d4:	446d      	add	r5, sp
   2a1d6:	4628      	mov	r0, r5
   2a1d8:	4621      	mov	r1, r4
   2a1da:	f7f9 fe8d 	bl	23ef8 <_ZN20complex_dynamic_type3app17h7db99cc50173374eE>
   2a1de:	7828      	ldrb	r0, [r5, #0]
   2a1e0:	2801      	cmp	r0, #1
   2a1e2:	d107      	bne.n	2a1f4 <_start+0x24fc>
   2a1e4:	f000 fd78 	bl	2acd8 <_start+0x2fe0>
   2a1e8:	00001404 	.word	0x00001404
   2a1ec:	00000e50 	.word	0x00000e50
   2a1f0:	000013a8 	.word	0x000013a8
   2a1f4:	4817      	ldr	r0, [pc, #92]	@ (2a254 <_start+0x255c>)
   2a1f6:	4468      	add	r0, sp
   2a1f8:	78c1      	ldrb	r1, [r0, #3]
   2a1fa:	4c17      	ldr	r4, [pc, #92]	@ (2a258 <_start+0x2560>)
   2a1fc:	446c      	add	r4, sp
   2a1fe:	70a1      	strb	r1, [r4, #2]
   2a200:	7841      	ldrb	r1, [r0, #1]
   2a202:	7882      	ldrb	r2, [r0, #2]
   2a204:	0212      	lsls	r2, r2, #8
   2a206:	1851      	adds	r1, r2, r1
   2a208:	8021      	strh	r1, [r4, #0]
   2a20a:	3008      	adds	r0, #8
   2a20c:	9908      	ldr	r1, [sp, #32]
   2a20e:	6e09      	ldr	r1, [r1, #96]	@ 0x60
   2a210:	910a      	str	r1, [sp, #40]	@ 0x28
   2a212:	4b12      	ldr	r3, [pc, #72]	@ (2a25c <_start+0x2564>)
   2a214:	446b      	add	r3, sp
   2a216:	930b      	str	r3, [sp, #44]	@ 0x2c
   2a218:	c866      	ldmia	r0!, {r1, r2, r5, r6}
   2a21a:	c366      	stmia	r3!, {r1, r2, r5, r6}
   2a21c:	c866      	ldmia	r0!, {r1, r2, r5, r6}
   2a21e:	c366      	stmia	r3!, {r1, r2, r5, r6}
   2a220:	8800      	ldrh	r0, [r0, #0]
   2a222:	8018      	strh	r0, [r3, #0]
   2a224:	990a      	ldr	r1, [sp, #40]	@ 0x28
   2a226:	0e08      	lsrs	r0, r1, #24
   2a228:	71a0      	strb	r0, [r4, #6]
   2a22a:	0c08      	lsrs	r0, r1, #16
   2a22c:	7160      	strb	r0, [r4, #5]
   2a22e:	0a08      	lsrs	r0, r1, #8
   2a230:	7120      	strb	r0, [r4, #4]
   2a232:	70e1      	strb	r1, [r4, #3]
   2a234:	1de0      	adds	r0, r4, #7
   2a236:	2222      	movs	r2, #34	@ 0x22
   2a238:	990b      	ldr	r1, [sp, #44]	@ 0x2c
   2a23a:	f000 ff65 	bl	2b108 <__aeabi_memcpy>
   2a23e:	4d05      	ldr	r5, [pc, #20]	@ (2a254 <_start+0x255c>)
   2a240:	446d      	add	r5, sp
   2a242:	4628      	mov	r0, r5
   2a244:	4621      	mov	r1, r4
   2a246:	f7f8 fd19 	bl	22c7c <_ZN20complex_dynamic_type3app17h60f35d3a0cd495deE>
   2a24a:	7828      	ldrb	r0, [r5, #0]
   2a24c:	2801      	cmp	r0, #1
   2a24e:	d107      	bne.n	2a260 <_start+0x2568>
   2a250:	f000 fd42 	bl	2acd8 <_start+0x2fe0>
   2a254:	00001404 	.word	0x00001404
   2a258:	00000e98 	.word	0x00000e98
   2a25c:	000013a8 	.word	0x000013a8
   2a260:	4817      	ldr	r0, [pc, #92]	@ (2a2c0 <_start+0x25c8>)
   2a262:	4468      	add	r0, sp
   2a264:	78c1      	ldrb	r1, [r0, #3]
   2a266:	4c17      	ldr	r4, [pc, #92]	@ (2a2c4 <_start+0x25cc>)
   2a268:	446c      	add	r4, sp
   2a26a:	70a1      	strb	r1, [r4, #2]
   2a26c:	7841      	ldrb	r1, [r0, #1]
   2a26e:	7882      	ldrb	r2, [r0, #2]
   2a270:	0212      	lsls	r2, r2, #8
   2a272:	1851      	adds	r1, r2, r1
   2a274:	8021      	strh	r1, [r4, #0]
   2a276:	3008      	adds	r0, #8
   2a278:	9908      	ldr	r1, [sp, #32]
   2a27a:	6e09      	ldr	r1, [r1, #96]	@ 0x60
   2a27c:	910a      	str	r1, [sp, #40]	@ 0x28
   2a27e:	4b12      	ldr	r3, [pc, #72]	@ (2a2c8 <_start+0x25d0>)
   2a280:	446b      	add	r3, sp
   2a282:	930b      	str	r3, [sp, #44]	@ 0x2c
   2a284:	c866      	ldmia	r0!, {r1, r2, r5, r6}
   2a286:	c366      	stmia	r3!, {r1, r2, r5, r6}
   2a288:	8801      	ldrh	r1, [r0, #0]
   2a28a:	8019      	strh	r1, [r3, #0]
   2a28c:	7880      	ldrb	r0, [r0, #2]
   2a28e:	7098      	strb	r0, [r3, #2]
   2a290:	990a      	ldr	r1, [sp, #40]	@ 0x28
   2a292:	0e08      	lsrs	r0, r1, #24
   2a294:	71a0      	strb	r0, [r4, #6]
   2a296:	0c08      	lsrs	r0, r1, #16
   2a298:	7160      	strb	r0, [r4, #5]
   2a29a:	0a08      	lsrs	r0, r1, #8
   2a29c:	7120      	strb	r0, [r4, #4]
   2a29e:	70e1      	strb	r1, [r4, #3]
   2a2a0:	1de0      	adds	r0, r4, #7
   2a2a2:	2213      	movs	r2, #19
   2a2a4:	990b      	ldr	r1, [sp, #44]	@ 0x2c
   2a2a6:	f000 ff2f 	bl	2b108 <__aeabi_memcpy>
   2a2aa:	4d05      	ldr	r5, [pc, #20]	@ (2a2c0 <_start+0x25c8>)
   2a2ac:	446d      	add	r5, sp
   2a2ae:	4628      	mov	r0, r5
   2a2b0:	4621      	mov	r1, r4
   2a2b2:	f7fa ff61 	bl	25178 <_ZN20complex_dynamic_type3app17ha4c99e814e29a372E>
   2a2b6:	7828      	ldrb	r0, [r5, #0]
   2a2b8:	2801      	cmp	r0, #1
   2a2ba:	d107      	bne.n	2a2cc <_start+0x25d4>
   2a2bc:	f000 fd0c 	bl	2acd8 <_start+0x2fe0>
   2a2c0:	00001404 	.word	0x00001404
   2a2c4:	00000ec4 	.word	0x00000ec4
   2a2c8:	000013a8 	.word	0x000013a8
   2a2cc:	4815      	ldr	r0, [pc, #84]	@ (2a324 <_start+0x262c>)
   2a2ce:	4468      	add	r0, sp
   2a2d0:	78c1      	ldrb	r1, [r0, #3]
   2a2d2:	4c15      	ldr	r4, [pc, #84]	@ (2a328 <_start+0x2630>)
   2a2d4:	446c      	add	r4, sp
   2a2d6:	70a1      	strb	r1, [r4, #2]
   2a2d8:	7841      	ldrb	r1, [r0, #1]
   2a2da:	7882      	ldrb	r2, [r0, #2]
   2a2dc:	0212      	lsls	r2, r2, #8
   2a2de:	1851      	adds	r1, r2, r1
   2a2e0:	8021      	strh	r1, [r4, #0]
   2a2e2:	3008      	adds	r0, #8
   2a2e4:	9908      	ldr	r1, [sp, #32]
   2a2e6:	6e09      	ldr	r1, [r1, #96]	@ 0x60
   2a2e8:	4b10      	ldr	r3, [pc, #64]	@ (2a32c <_start+0x2634>)
   2a2ea:	446b      	add	r3, sp
   2a2ec:	930b      	str	r3, [sp, #44]	@ 0x2c
   2a2ee:	c860      	ldmia	r0!, {r5, r6}
   2a2f0:	c360      	stmia	r3!, {r5, r6}
   2a2f2:	c864      	ldmia	r0!, {r2, r5, r6}
   2a2f4:	c364      	stmia	r3!, {r2, r5, r6}
   2a2f6:	0e08      	lsrs	r0, r1, #24
   2a2f8:	71a0      	strb	r0, [r4, #6]
   2a2fa:	0c08      	lsrs	r0, r1, #16
   2a2fc:	7160      	strb	r0, [r4, #5]
   2a2fe:	0a08      	lsrs	r0, r1, #8
   2a300:	7120      	strb	r0, [r4, #4]
   2a302:	70e1      	strb	r1, [r4, #3]
   2a304:	1de0      	adds	r0, r4, #7
   2a306:	2214      	movs	r2, #20
   2a308:	990b      	ldr	r1, [sp, #44]	@ 0x2c
   2a30a:	f000 fefd 	bl	2b108 <__aeabi_memcpy>
   2a30e:	4d05      	ldr	r5, [pc, #20]	@ (2a324 <_start+0x262c>)
   2a310:	446d      	add	r5, sp
   2a312:	4628      	mov	r0, r5
   2a314:	4621      	mov	r1, r4
   2a316:	f7f9 faa3 	bl	23860 <_ZN20complex_dynamic_type3app17h72e443edf8b67651E>
   2a31a:	7828      	ldrb	r0, [r5, #0]
   2a31c:	2801      	cmp	r0, #1
   2a31e:	d107      	bne.n	2a330 <_start+0x2638>
   2a320:	f000 fcda 	bl	2acd8 <_start+0x2fe0>
   2a324:	00001404 	.word	0x00001404
   2a328:	00000ee0 	.word	0x00000ee0
   2a32c:	000013a8 	.word	0x000013a8
   2a330:	4819      	ldr	r0, [pc, #100]	@ (2a398 <_start+0x26a0>)
   2a332:	4468      	add	r0, sp
   2a334:	78c1      	ldrb	r1, [r0, #3]
   2a336:	4c19      	ldr	r4, [pc, #100]	@ (2a39c <_start+0x26a4>)
   2a338:	446c      	add	r4, sp
   2a33a:	70a1      	strb	r1, [r4, #2]
   2a33c:	7841      	ldrb	r1, [r0, #1]
   2a33e:	7882      	ldrb	r2, [r0, #2]
   2a340:	0212      	lsls	r2, r2, #8
   2a342:	1851      	adds	r1, r2, r1
   2a344:	8021      	strh	r1, [r4, #0]
   2a346:	3008      	adds	r0, #8
   2a348:	9908      	ldr	r1, [sp, #32]
   2a34a:	6e09      	ldr	r1, [r1, #96]	@ 0x60
   2a34c:	910a      	str	r1, [sp, #40]	@ 0x28
   2a34e:	4b14      	ldr	r3, [pc, #80]	@ (2a3a0 <_start+0x26a8>)
   2a350:	446b      	add	r3, sp
   2a352:	930b      	str	r3, [sp, #44]	@ 0x2c
   2a354:	c864      	ldmia	r0!, {r2, r5, r6}
   2a356:	c364      	stmia	r3!, {r2, r5, r6}
   2a358:	c866      	ldmia	r0!, {r1, r2, r5, r6}
   2a35a:	c366      	stmia	r3!, {r1, r2, r5, r6}
   2a35c:	c826      	ldmia	r0!, {r1, r2, r5}
   2a35e:	c326      	stmia	r3!, {r1, r2, r5}
   2a360:	c866      	ldmia	r0!, {r1, r2, r5, r6}
   2a362:	c366      	stmia	r3!, {r1, r2, r5, r6}
   2a364:	8800      	ldrh	r0, [r0, #0]
   2a366:	8018      	strh	r0, [r3, #0]
   2a368:	990a      	ldr	r1, [sp, #40]	@ 0x28
   2a36a:	0e08      	lsrs	r0, r1, #24
   2a36c:	71a0      	strb	r0, [r4, #6]
   2a36e:	0c08      	lsrs	r0, r1, #16
   2a370:	7160      	strb	r0, [r4, #5]
   2a372:	0a08      	lsrs	r0, r1, #8
   2a374:	7120      	strb	r0, [r4, #4]
   2a376:	70e1      	strb	r1, [r4, #3]
   2a378:	1de0      	adds	r0, r4, #7
   2a37a:	223a      	movs	r2, #58	@ 0x3a
   2a37c:	990b      	ldr	r1, [sp, #44]	@ 0x2c
   2a37e:	f000 fec3 	bl	2b108 <__aeabi_memcpy>
   2a382:	4d05      	ldr	r5, [pc, #20]	@ (2a398 <_start+0x26a0>)
   2a384:	446d      	add	r5, sp
   2a386:	4628      	mov	r0, r5
   2a388:	4621      	mov	r1, r4
   2a38a:	f7fc fe23 	bl	26fd4 <_ZN20complex_dynamic_type3app17he61860d16e4c65fdE>
   2a38e:	7828      	ldrb	r0, [r5, #0]
   2a390:	2801      	cmp	r0, #1
   2a392:	d107      	bne.n	2a3a4 <_start+0x26ac>
   2a394:	f000 fca0 	bl	2acd8 <_start+0x2fe0>
   2a398:	00001404 	.word	0x00001404
   2a39c:	00000efc 	.word	0x00000efc
   2a3a0:	000013a8 	.word	0x000013a8
   2a3a4:	4816      	ldr	r0, [pc, #88]	@ (2a400 <_start+0x2708>)
   2a3a6:	4468      	add	r0, sp
   2a3a8:	78c1      	ldrb	r1, [r0, #3]
   2a3aa:	4c16      	ldr	r4, [pc, #88]	@ (2a404 <_start+0x270c>)
   2a3ac:	446c      	add	r4, sp
   2a3ae:	70a1      	strb	r1, [r4, #2]
   2a3b0:	7841      	ldrb	r1, [r0, #1]
   2a3b2:	7882      	ldrb	r2, [r0, #2]
   2a3b4:	0212      	lsls	r2, r2, #8
   2a3b6:	1851      	adds	r1, r2, r1
   2a3b8:	8021      	strh	r1, [r4, #0]
   2a3ba:	3008      	adds	r0, #8
   2a3bc:	9908      	ldr	r1, [sp, #32]
   2a3be:	6e09      	ldr	r1, [r1, #96]	@ 0x60
   2a3c0:	910a      	str	r1, [sp, #40]	@ 0x28
   2a3c2:	4b11      	ldr	r3, [pc, #68]	@ (2a408 <_start+0x2710>)
   2a3c4:	446b      	add	r3, sp
   2a3c6:	930b      	str	r3, [sp, #44]	@ 0x2c
   2a3c8:	c866      	ldmia	r0!, {r1, r2, r5, r6}
   2a3ca:	c366      	stmia	r3!, {r1, r2, r5, r6}
   2a3cc:	7800      	ldrb	r0, [r0, #0]
   2a3ce:	7018      	strb	r0, [r3, #0]
   2a3d0:	990a      	ldr	r1, [sp, #40]	@ 0x28
   2a3d2:	0e08      	lsrs	r0, r1, #24
   2a3d4:	71a0      	strb	r0, [r4, #6]
   2a3d6:	0c08      	lsrs	r0, r1, #16
   2a3d8:	7160      	strb	r0, [r4, #5]
   2a3da:	0a08      	lsrs	r0, r1, #8
   2a3dc:	7120      	strb	r0, [r4, #4]
   2a3de:	70e1      	strb	r1, [r4, #3]
   2a3e0:	1de0      	adds	r0, r4, #7
   2a3e2:	2211      	movs	r2, #17
   2a3e4:	990b      	ldr	r1, [sp, #44]	@ 0x2c
   2a3e6:	f000 fe8f 	bl	2b108 <__aeabi_memcpy>
   2a3ea:	4d05      	ldr	r5, [pc, #20]	@ (2a400 <_start+0x2708>)
   2a3ec:	446d      	add	r5, sp
   2a3ee:	4628      	mov	r0, r5
   2a3f0:	4621      	mov	r1, r4
   2a3f2:	f7f8 f8fd 	bl	225f0 <_ZN20complex_dynamic_type3app17h517f71674e917c71E>
   2a3f6:	7828      	ldrb	r0, [r5, #0]
   2a3f8:	2801      	cmp	r0, #1
   2a3fa:	d107      	bne.n	2a40c <_start+0x2714>
   2a3fc:	f000 fc6c 	bl	2acd8 <_start+0x2fe0>
   2a400:	00001404 	.word	0x00001404
   2a404:	00000f40 	.word	0x00000f40
   2a408:	000013a8 	.word	0x000013a8
   2a40c:	4817      	ldr	r0, [pc, #92]	@ (2a46c <_start+0x2774>)
   2a40e:	4468      	add	r0, sp
   2a410:	78c1      	ldrb	r1, [r0, #3]
   2a412:	4c17      	ldr	r4, [pc, #92]	@ (2a470 <_start+0x2778>)
   2a414:	446c      	add	r4, sp
   2a416:	70a1      	strb	r1, [r4, #2]
   2a418:	7841      	ldrb	r1, [r0, #1]
   2a41a:	7882      	ldrb	r2, [r0, #2]
   2a41c:	0212      	lsls	r2, r2, #8
   2a41e:	1851      	adds	r1, r2, r1
   2a420:	8021      	strh	r1, [r4, #0]
   2a422:	3008      	adds	r0, #8
   2a424:	9908      	ldr	r1, [sp, #32]
   2a426:	6e09      	ldr	r1, [r1, #96]	@ 0x60
   2a428:	4b12      	ldr	r3, [pc, #72]	@ (2a474 <_start+0x277c>)
   2a42a:	446b      	add	r3, sp
   2a42c:	930b      	str	r3, [sp, #44]	@ 0x2c
   2a42e:	c860      	ldmia	r0!, {r5, r6}
   2a430:	c360      	stmia	r3!, {r5, r6}
   2a432:	c864      	ldmia	r0!, {r2, r5, r6}
   2a434:	c364      	stmia	r3!, {r2, r5, r6}
   2a436:	8802      	ldrh	r2, [r0, #0]
   2a438:	801a      	strh	r2, [r3, #0]
   2a43a:	7880      	ldrb	r0, [r0, #2]
   2a43c:	7098      	strb	r0, [r3, #2]
   2a43e:	0e08      	lsrs	r0, r1, #24
   2a440:	71a0      	strb	r0, [r4, #6]
   2a442:	0c08      	lsrs	r0, r1, #16
   2a444:	7160      	strb	r0, [r4, #5]
   2a446:	0a08      	lsrs	r0, r1, #8
   2a448:	7120      	strb	r0, [r4, #4]
   2a44a:	70e1      	strb	r1, [r4, #3]
   2a44c:	1de0      	adds	r0, r4, #7
   2a44e:	2217      	movs	r2, #23
   2a450:	990b      	ldr	r1, [sp, #44]	@ 0x2c
   2a452:	f000 fe59 	bl	2b108 <__aeabi_memcpy>
   2a456:	4d05      	ldr	r5, [pc, #20]	@ (2a46c <_start+0x2774>)
   2a458:	446d      	add	r5, sp
   2a45a:	4628      	mov	r0, r5
   2a45c:	4621      	mov	r1, r4
   2a45e:	f7f7 fb77 	bl	21b50 <_ZN20complex_dynamic_type3app17h3b13d0f62b1e26b5E>
   2a462:	7828      	ldrb	r0, [r5, #0]
   2a464:	2801      	cmp	r0, #1
   2a466:	d107      	bne.n	2a478 <_start+0x2780>
   2a468:	f000 fc36 	bl	2acd8 <_start+0x2fe0>
   2a46c:	00001404 	.word	0x00001404
   2a470:	00000f58 	.word	0x00000f58
   2a474:	000013a8 	.word	0x000013a8
   2a478:	4819      	ldr	r0, [pc, #100]	@ (2a4e0 <_start+0x27e8>)
   2a47a:	4468      	add	r0, sp
   2a47c:	78c1      	ldrb	r1, [r0, #3]
   2a47e:	4c19      	ldr	r4, [pc, #100]	@ (2a4e4 <_start+0x27ec>)
   2a480:	446c      	add	r4, sp
   2a482:	70a1      	strb	r1, [r4, #2]
   2a484:	7841      	ldrb	r1, [r0, #1]
   2a486:	7882      	ldrb	r2, [r0, #2]
   2a488:	0212      	lsls	r2, r2, #8
   2a48a:	1851      	adds	r1, r2, r1
   2a48c:	8021      	strh	r1, [r4, #0]
   2a48e:	3008      	adds	r0, #8
   2a490:	9908      	ldr	r1, [sp, #32]
   2a492:	6e09      	ldr	r1, [r1, #96]	@ 0x60
   2a494:	910a      	str	r1, [sp, #40]	@ 0x28
   2a496:	4b14      	ldr	r3, [pc, #80]	@ (2a4e8 <_start+0x27f0>)
   2a498:	446b      	add	r3, sp
   2a49a:	930b      	str	r3, [sp, #44]	@ 0x2c
   2a49c:	c864      	ldmia	r0!, {r2, r5, r6}
   2a49e:	c364      	stmia	r3!, {r2, r5, r6}
   2a4a0:	c864      	ldmia	r0!, {r2, r5, r6}
   2a4a2:	c364      	stmia	r3!, {r2, r5, r6}
   2a4a4:	c864      	ldmia	r0!, {r2, r5, r6}
   2a4a6:	c364      	stmia	r3!, {r2, r5, r6}
   2a4a8:	c866      	ldmia	r0!, {r1, r2, r5, r6}
   2a4aa:	c366      	stmia	r3!, {r1, r2, r5, r6}
   2a4ac:	7800      	ldrb	r0, [r0, #0]
   2a4ae:	7018      	strb	r0, [r3, #0]
   2a4b0:	990a      	ldr	r1, [sp, #40]	@ 0x28
   2a4b2:	0e08      	lsrs	r0, r1, #24
   2a4b4:	71a0      	strb	r0, [r4, #6]
   2a4b6:	0c08      	lsrs	r0, r1, #16
   2a4b8:	7160      	strb	r0, [r4, #5]
   2a4ba:	0a08      	lsrs	r0, r1, #8
   2a4bc:	7120      	strb	r0, [r4, #4]
   2a4be:	70e1      	strb	r1, [r4, #3]
   2a4c0:	1de0      	adds	r0, r4, #7
   2a4c2:	2235      	movs	r2, #53	@ 0x35
   2a4c4:	990b      	ldr	r1, [sp, #44]	@ 0x2c
   2a4c6:	f000 fe1f 	bl	2b108 <__aeabi_memcpy>
   2a4ca:	4d05      	ldr	r5, [pc, #20]	@ (2a4e0 <_start+0x27e8>)
   2a4cc:	446d      	add	r5, sp
   2a4ce:	4628      	mov	r0, r5
   2a4d0:	4621      	mov	r1, r4
   2a4d2:	f7fd fac1 	bl	27a58 <_ZN20complex_dynamic_type3app17hf72c38fa9904a213E>
   2a4d6:	7828      	ldrb	r0, [r5, #0]
   2a4d8:	2801      	cmp	r0, #1
   2a4da:	d107      	bne.n	2a4ec <_start+0x27f4>
   2a4dc:	e3fc      	b.n	2acd8 <_start+0x2fe0>
   2a4de:	46c0      	nop			@ (mov r8, r8)
   2a4e0:	00001404 	.word	0x00001404
   2a4e4:	00000f78 	.word	0x00000f78
   2a4e8:	000013a8 	.word	0x000013a8
   2a4ec:	4817      	ldr	r0, [pc, #92]	@ (2a54c <_start+0x2854>)
   2a4ee:	4468      	add	r0, sp
   2a4f0:	78c1      	ldrb	r1, [r0, #3]
   2a4f2:	4c17      	ldr	r4, [pc, #92]	@ (2a550 <_start+0x2858>)
   2a4f4:	446c      	add	r4, sp
   2a4f6:	70a1      	strb	r1, [r4, #2]
   2a4f8:	7841      	ldrb	r1, [r0, #1]
   2a4fa:	7882      	ldrb	r2, [r0, #2]
   2a4fc:	0212      	lsls	r2, r2, #8
   2a4fe:	1851      	adds	r1, r2, r1
   2a500:	8021      	strh	r1, [r4, #0]
   2a502:	3008      	adds	r0, #8
   2a504:	9908      	ldr	r1, [sp, #32]
   2a506:	6e09      	ldr	r1, [r1, #96]	@ 0x60
   2a508:	4b12      	ldr	r3, [pc, #72]	@ (2a554 <_start+0x285c>)
   2a50a:	446b      	add	r3, sp
   2a50c:	930b      	str	r3, [sp, #44]	@ 0x2c
   2a50e:	c864      	ldmia	r0!, {r2, r5, r6}
   2a510:	c364      	stmia	r3!, {r2, r5, r6}
   2a512:	c864      	ldmia	r0!, {r2, r5, r6}
   2a514:	c364      	stmia	r3!, {r2, r5, r6}
   2a516:	c864      	ldmia	r0!, {r2, r5, r6}
   2a518:	c364      	stmia	r3!, {r2, r5, r6}
   2a51a:	7800      	ldrb	r0, [r0, #0]
   2a51c:	7018      	strb	r0, [r3, #0]
   2a51e:	0e08      	lsrs	r0, r1, #24
   2a520:	71a0      	strb	r0, [r4, #6]
   2a522:	0c08      	lsrs	r0, r1, #16
   2a524:	7160      	strb	r0, [r4, #5]
   2a526:	0a08      	lsrs	r0, r1, #8
   2a528:	7120      	strb	r0, [r4, #4]
   2a52a:	70e1      	strb	r1, [r4, #3]
   2a52c:	1de0      	adds	r0, r4, #7
   2a52e:	2225      	movs	r2, #37	@ 0x25
   2a530:	990b      	ldr	r1, [sp, #44]	@ 0x2c
   2a532:	f000 fde9 	bl	2b108 <__aeabi_memcpy>
   2a536:	4d05      	ldr	r5, [pc, #20]	@ (2a54c <_start+0x2854>)
   2a538:	446d      	add	r5, sp
   2a53a:	4628      	mov	r0, r5
   2a53c:	4621      	mov	r1, r4
   2a53e:	f7fb fead 	bl	2629c <_ZN20complex_dynamic_type3app17hc330d28805ee80b1E>
   2a542:	7828      	ldrb	r0, [r5, #0]
   2a544:	2801      	cmp	r0, #1
   2a546:	d107      	bne.n	2a558 <_start+0x2860>
   2a548:	e3c6      	b.n	2acd8 <_start+0x2fe0>
   2a54a:	46c0      	nop			@ (mov r8, r8)
   2a54c:	00001404 	.word	0x00001404
   2a550:	00000fb4 	.word	0x00000fb4
   2a554:	000013a8 	.word	0x000013a8
   2a558:	4816      	ldr	r0, [pc, #88]	@ (2a5b4 <_start+0x28bc>)
   2a55a:	4468      	add	r0, sp
   2a55c:	78c1      	ldrb	r1, [r0, #3]
   2a55e:	4c16      	ldr	r4, [pc, #88]	@ (2a5b8 <_start+0x28c0>)
   2a560:	446c      	add	r4, sp
   2a562:	70a1      	strb	r1, [r4, #2]
   2a564:	7841      	ldrb	r1, [r0, #1]
   2a566:	7882      	ldrb	r2, [r0, #2]
   2a568:	0212      	lsls	r2, r2, #8
   2a56a:	1851      	adds	r1, r2, r1
   2a56c:	8021      	strh	r1, [r4, #0]
   2a56e:	3008      	adds	r0, #8
   2a570:	9908      	ldr	r1, [sp, #32]
   2a572:	6e09      	ldr	r1, [r1, #96]	@ 0x60
   2a574:	910a      	str	r1, [sp, #40]	@ 0x28
   2a576:	4b11      	ldr	r3, [pc, #68]	@ (2a5bc <_start+0x28c4>)
   2a578:	446b      	add	r3, sp
   2a57a:	930b      	str	r3, [sp, #44]	@ 0x2c
   2a57c:	c866      	ldmia	r0!, {r1, r2, r5, r6}
   2a57e:	c366      	stmia	r3!, {r1, r2, r5, r6}
   2a580:	c866      	ldmia	r0!, {r1, r2, r5, r6}
   2a582:	c366      	stmia	r3!, {r1, r2, r5, r6}
   2a584:	990a      	ldr	r1, [sp, #40]	@ 0x28
   2a586:	0e08      	lsrs	r0, r1, #24
   2a588:	71a0      	strb	r0, [r4, #6]
   2a58a:	0c08      	lsrs	r0, r1, #16
   2a58c:	7160      	strb	r0, [r4, #5]
   2a58e:	0a08      	lsrs	r0, r1, #8
   2a590:	7120      	strb	r0, [r4, #4]
   2a592:	70e1      	strb	r1, [r4, #3]
   2a594:	1de0      	adds	r0, r4, #7
   2a596:	2220      	movs	r2, #32
   2a598:	990b      	ldr	r1, [sp, #44]	@ 0x2c
   2a59a:	f000 fdb5 	bl	2b108 <__aeabi_memcpy>
   2a59e:	4d05      	ldr	r5, [pc, #20]	@ (2a5b4 <_start+0x28bc>)
   2a5a0:	446d      	add	r5, sp
   2a5a2:	4628      	mov	r0, r5
   2a5a4:	4621      	mov	r1, r4
   2a5a6:	f7fa ff3b 	bl	25420 <_ZN20complex_dynamic_type3app17ha9d4855ad47c5013E>
   2a5aa:	7828      	ldrb	r0, [r5, #0]
   2a5ac:	2801      	cmp	r0, #1
   2a5ae:	d107      	bne.n	2a5c0 <_start+0x28c8>
   2a5b0:	e392      	b.n	2acd8 <_start+0x2fe0>
   2a5b2:	46c0      	nop			@ (mov r8, r8)
   2a5b4:	00001404 	.word	0x00001404
   2a5b8:	00000fe0 	.word	0x00000fe0
   2a5bc:	000013a8 	.word	0x000013a8
   2a5c0:	4915      	ldr	r1, [pc, #84]	@ (2a618 <_start+0x2920>)
   2a5c2:	4469      	add	r1, sp
   2a5c4:	78c8      	ldrb	r0, [r1, #3]
   2a5c6:	4c15      	ldr	r4, [pc, #84]	@ (2a61c <_start+0x2924>)
   2a5c8:	446c      	add	r4, sp
   2a5ca:	70a0      	strb	r0, [r4, #2]
   2a5cc:	7848      	ldrb	r0, [r1, #1]
   2a5ce:	788a      	ldrb	r2, [r1, #2]
   2a5d0:	0212      	lsls	r2, r2, #8
   2a5d2:	1810      	adds	r0, r2, r0
   2a5d4:	8020      	strh	r0, [r4, #0]
   2a5d6:	9808      	ldr	r0, [sp, #32]
   2a5d8:	6e05      	ldr	r5, [r0, #96]	@ 0x60
   2a5da:	3108      	adds	r1, #8
   2a5dc:	4810      	ldr	r0, [pc, #64]	@ (2a620 <_start+0x2928>)
   2a5de:	4468      	add	r0, sp
   2a5e0:	900b      	str	r0, [sp, #44]	@ 0x2c
   2a5e2:	2648      	movs	r6, #72	@ 0x48
   2a5e4:	4632      	mov	r2, r6
   2a5e6:	f000 fc2f 	bl	2ae48 <__aeabi_memcpy4>
   2a5ea:	0e28      	lsrs	r0, r5, #24
   2a5ec:	71a0      	strb	r0, [r4, #6]
   2a5ee:	0c28      	lsrs	r0, r5, #16
   2a5f0:	7160      	strb	r0, [r4, #5]
   2a5f2:	0a28      	lsrs	r0, r5, #8
   2a5f4:	7120      	strb	r0, [r4, #4]
   2a5f6:	70e5      	strb	r5, [r4, #3]
   2a5f8:	1de0      	adds	r0, r4, #7
   2a5fa:	990b      	ldr	r1, [sp, #44]	@ 0x2c
   2a5fc:	4632      	mov	r2, r6
   2a5fe:	f000 fd83 	bl	2b108 <__aeabi_memcpy>
   2a602:	4d05      	ldr	r5, [pc, #20]	@ (2a618 <_start+0x2920>)
   2a604:	446d      	add	r5, sp
   2a606:	4628      	mov	r0, r5
   2a608:	4621      	mov	r1, r4
   2a60a:	f7f7 fca1 	bl	21f50 <_ZN20complex_dynamic_type3app17h3f3b285ca1b71ffdE>
   2a60e:	7828      	ldrb	r0, [r5, #0]
   2a610:	2801      	cmp	r0, #1
   2a612:	d107      	bne.n	2a624 <_start+0x292c>
   2a614:	e360      	b.n	2acd8 <_start+0x2fe0>
   2a616:	46c0      	nop			@ (mov r8, r8)
   2a618:	00001404 	.word	0x00001404
   2a61c:	00001008 	.word	0x00001008
   2a620:	000013a8 	.word	0x000013a8
   2a624:	4818      	ldr	r0, [pc, #96]	@ (2a688 <_start+0x2990>)
   2a626:	4468      	add	r0, sp
   2a628:	78c1      	ldrb	r1, [r0, #3]
   2a62a:	4c18      	ldr	r4, [pc, #96]	@ (2a68c <_start+0x2994>)
   2a62c:	446c      	add	r4, sp
   2a62e:	70a1      	strb	r1, [r4, #2]
   2a630:	7841      	ldrb	r1, [r0, #1]
   2a632:	7882      	ldrb	r2, [r0, #2]
   2a634:	0212      	lsls	r2, r2, #8
   2a636:	1851      	adds	r1, r2, r1
   2a638:	8021      	strh	r1, [r4, #0]
   2a63a:	3008      	adds	r0, #8
   2a63c:	9908      	ldr	r1, [sp, #32]
   2a63e:	6e09      	ldr	r1, [r1, #96]	@ 0x60
   2a640:	910a      	str	r1, [sp, #40]	@ 0x28
   2a642:	4b13      	ldr	r3, [pc, #76]	@ (2a690 <_start+0x2998>)
   2a644:	446b      	add	r3, sp
   2a646:	930b      	str	r3, [sp, #44]	@ 0x2c
   2a648:	c864      	ldmia	r0!, {r2, r5, r6}
   2a64a:	c364      	stmia	r3!, {r2, r5, r6}
   2a64c:	c866      	ldmia	r0!, {r1, r2, r5, r6}
   2a64e:	c366      	stmia	r3!, {r1, r2, r5, r6}
   2a650:	c866      	ldmia	r0!, {r1, r2, r5, r6}
   2a652:	c366      	stmia	r3!, {r1, r2, r5, r6}
   2a654:	8800      	ldrh	r0, [r0, #0]
   2a656:	8018      	strh	r0, [r3, #0]
   2a658:	990a      	ldr	r1, [sp, #40]	@ 0x28
   2a65a:	0e08      	lsrs	r0, r1, #24
   2a65c:	71a0      	strb	r0, [r4, #6]
   2a65e:	0c08      	lsrs	r0, r1, #16
   2a660:	7160      	strb	r0, [r4, #5]
   2a662:	0a08      	lsrs	r0, r1, #8
   2a664:	7120      	strb	r0, [r4, #4]
   2a666:	70e1      	strb	r1, [r4, #3]
   2a668:	1de0      	adds	r0, r4, #7
   2a66a:	222e      	movs	r2, #46	@ 0x2e
   2a66c:	990b      	ldr	r1, [sp, #44]	@ 0x2c
   2a66e:	f000 fd4b 	bl	2b108 <__aeabi_memcpy>
   2a672:	4d05      	ldr	r5, [pc, #20]	@ (2a688 <_start+0x2990>)
   2a674:	446d      	add	r5, sp
   2a676:	4628      	mov	r0, r5
   2a678:	4621      	mov	r1, r4
   2a67a:	f7f6 fbcf 	bl	20e1c <_ZN20complex_dynamic_type3app17h15c6785a2387d5cdE>
   2a67e:	7828      	ldrb	r0, [r5, #0]
   2a680:	2801      	cmp	r0, #1
   2a682:	d107      	bne.n	2a694 <_start+0x299c>
   2a684:	e328      	b.n	2acd8 <_start+0x2fe0>
   2a686:	46c0      	nop			@ (mov r8, r8)
   2a688:	00001404 	.word	0x00001404
   2a68c:	00001058 	.word	0x00001058
   2a690:	000013a8 	.word	0x000013a8
   2a694:	4818      	ldr	r0, [pc, #96]	@ (2a6f8 <_start+0x2a00>)
   2a696:	4468      	add	r0, sp
   2a698:	78c1      	ldrb	r1, [r0, #3]
   2a69a:	4c18      	ldr	r4, [pc, #96]	@ (2a6fc <_start+0x2a04>)
   2a69c:	446c      	add	r4, sp
   2a69e:	70a1      	strb	r1, [r4, #2]
   2a6a0:	7841      	ldrb	r1, [r0, #1]
   2a6a2:	7882      	ldrb	r2, [r0, #2]
   2a6a4:	0212      	lsls	r2, r2, #8
   2a6a6:	1851      	adds	r1, r2, r1
   2a6a8:	8021      	strh	r1, [r4, #0]
   2a6aa:	3008      	adds	r0, #8
   2a6ac:	9908      	ldr	r1, [sp, #32]
   2a6ae:	6e09      	ldr	r1, [r1, #96]	@ 0x60
   2a6b0:	910a      	str	r1, [sp, #40]	@ 0x28
   2a6b2:	4b13      	ldr	r3, [pc, #76]	@ (2a700 <_start+0x2a08>)
   2a6b4:	446b      	add	r3, sp
   2a6b6:	930b      	str	r3, [sp, #44]	@ 0x2c
   2a6b8:	c864      	ldmia	r0!, {r2, r5, r6}
   2a6ba:	c364      	stmia	r3!, {r2, r5, r6}
   2a6bc:	c866      	ldmia	r0!, {r1, r2, r5, r6}
   2a6be:	c366      	stmia	r3!, {r1, r2, r5, r6}
   2a6c0:	c826      	ldmia	r0!, {r1, r2, r5}
   2a6c2:	c326      	stmia	r3!, {r1, r2, r5}
   2a6c4:	c866      	ldmia	r0!, {r1, r2, r5, r6}
   2a6c6:	c366      	stmia	r3!, {r1, r2, r5, r6}
   2a6c8:	990a      	ldr	r1, [sp, #40]	@ 0x28
   2a6ca:	0e08      	lsrs	r0, r1, #24
   2a6cc:	71a0      	strb	r0, [r4, #6]
   2a6ce:	0c08      	lsrs	r0, r1, #16
   2a6d0:	7160      	strb	r0, [r4, #5]
   2a6d2:	0a08      	lsrs	r0, r1, #8
   2a6d4:	7120      	strb	r0, [r4, #4]
   2a6d6:	70e1      	strb	r1, [r4, #3]
   2a6d8:	1de0      	adds	r0, r4, #7
   2a6da:	2238      	movs	r2, #56	@ 0x38
   2a6dc:	990b      	ldr	r1, [sp, #44]	@ 0x2c
   2a6de:	f000 fd13 	bl	2b108 <__aeabi_memcpy>
   2a6e2:	4d05      	ldr	r5, [pc, #20]	@ (2a6f8 <_start+0x2a00>)
   2a6e4:	446d      	add	r5, sp
   2a6e6:	4628      	mov	r0, r5
   2a6e8:	4621      	mov	r1, r4
   2a6ea:	f7f9 fffb 	bl	246e4 <_ZN20complex_dynamic_type3app17h95acbac09822cbf1E>
   2a6ee:	7828      	ldrb	r0, [r5, #0]
   2a6f0:	2801      	cmp	r0, #1
   2a6f2:	d107      	bne.n	2a704 <_start+0x2a0c>
   2a6f4:	e2f0      	b.n	2acd8 <_start+0x2fe0>
   2a6f6:	46c0      	nop			@ (mov r8, r8)
   2a6f8:	00001404 	.word	0x00001404
   2a6fc:	00001090 	.word	0x00001090
   2a700:	000013a8 	.word	0x000013a8
   2a704:	4914      	ldr	r1, [pc, #80]	@ (2a758 <_start+0x2a60>)
   2a706:	4469      	add	r1, sp
   2a708:	9b08      	ldr	r3, [sp, #32]
   2a70a:	6ed8      	ldr	r0, [r3, #108]	@ 0x6c
   2a70c:	8108      	strh	r0, [r1, #8]
   2a70e:	4813      	ldr	r0, [pc, #76]	@ (2a75c <_start+0x2a64>)
   2a710:	4468      	add	r0, sp
   2a712:	78c2      	ldrb	r2, [r0, #3]
   2a714:	4c12      	ldr	r4, [pc, #72]	@ (2a760 <_start+0x2a68>)
   2a716:	446c      	add	r4, sp
   2a718:	70a2      	strb	r2, [r4, #2]
   2a71a:	7842      	ldrb	r2, [r0, #1]
   2a71c:	7880      	ldrb	r0, [r0, #2]
   2a71e:	0200      	lsls	r0, r0, #8
   2a720:	1880      	adds	r0, r0, r2
   2a722:	8020      	strh	r0, [r4, #0]
   2a724:	6e18      	ldr	r0, [r3, #96]	@ 0x60
   2a726:	70e0      	strb	r0, [r4, #3]
   2a728:	0e02      	lsrs	r2, r0, #24
   2a72a:	71a2      	strb	r2, [r4, #6]
   2a72c:	0c02      	lsrs	r2, r0, #16
   2a72e:	7162      	strb	r2, [r4, #5]
   2a730:	0a00      	lsrs	r0, r0, #8
   2a732:	7120      	strb	r0, [r4, #4]
   2a734:	6e58      	ldr	r0, [r3, #100]	@ 0x64
   2a736:	6e9a      	ldr	r2, [r3, #104]	@ 0x68
   2a738:	c305      	stmia	r3!, {r0, r2}
   2a73a:	1de0      	adds	r0, r4, #7
   2a73c:	220a      	movs	r2, #10
   2a73e:	f000 fce3 	bl	2b108 <__aeabi_memcpy>
   2a742:	4d06      	ldr	r5, [pc, #24]	@ (2a75c <_start+0x2a64>)
   2a744:	446d      	add	r5, sp
   2a746:	4628      	mov	r0, r5
   2a748:	4621      	mov	r1, r4
   2a74a:	f7f9 fd29 	bl	241a0 <_ZN20complex_dynamic_type3app17h80df791d8b651177E>
   2a74e:	7828      	ldrb	r0, [r5, #0]
   2a750:	2801      	cmp	r0, #1
   2a752:	d107      	bne.n	2a764 <_start+0x2a6c>
   2a754:	e2c0      	b.n	2acd8 <_start+0x2fe0>
   2a756:	46c0      	nop			@ (mov r8, r8)
   2a758:	000013a8 	.word	0x000013a8
   2a75c:	00001404 	.word	0x00001404
   2a760:	000010d0 	.word	0x000010d0
   2a764:	4818      	ldr	r0, [pc, #96]	@ (2a7c8 <_start+0x2ad0>)
   2a766:	4468      	add	r0, sp
   2a768:	78c1      	ldrb	r1, [r0, #3]
   2a76a:	4c18      	ldr	r4, [pc, #96]	@ (2a7cc <_start+0x2ad4>)
   2a76c:	446c      	add	r4, sp
   2a76e:	70a1      	strb	r1, [r4, #2]
   2a770:	7841      	ldrb	r1, [r0, #1]
   2a772:	7882      	ldrb	r2, [r0, #2]
   2a774:	0212      	lsls	r2, r2, #8
   2a776:	1851      	adds	r1, r2, r1
   2a778:	8021      	strh	r1, [r4, #0]
   2a77a:	3008      	adds	r0, #8
   2a77c:	9908      	ldr	r1, [sp, #32]
   2a77e:	6e09      	ldr	r1, [r1, #96]	@ 0x60
   2a780:	910a      	str	r1, [sp, #40]	@ 0x28
   2a782:	4b13      	ldr	r3, [pc, #76]	@ (2a7d0 <_start+0x2ad8>)
   2a784:	446b      	add	r3, sp
   2a786:	930b      	str	r3, [sp, #44]	@ 0x2c
   2a788:	c864      	ldmia	r0!, {r2, r5, r6}
   2a78a:	c364      	stmia	r3!, {r2, r5, r6}
   2a78c:	c866      	ldmia	r0!, {r1, r2, r5, r6}
   2a78e:	c366      	stmia	r3!, {r1, r2, r5, r6}
   2a790:	c826      	ldmia	r0!, {r1, r2, r5}
   2a792:	c326      	stmia	r3!, {r1, r2, r5}
   2a794:	c866      	ldmia	r0!, {r1, r2, r5, r6}
   2a796:	c366      	stmia	r3!, {r1, r2, r5, r6}
   2a798:	990a      	ldr	r1, [sp, #40]	@ 0x28
   2a79a:	0e08      	lsrs	r0, r1, #24
   2a79c:	71a0      	strb	r0, [r4, #6]
   2a79e:	0c08      	lsrs	r0, r1, #16
   2a7a0:	7160      	strb	r0, [r4, #5]
   2a7a2:	0a08      	lsrs	r0, r1, #8
   2a7a4:	7120      	strb	r0, [r4, #4]
   2a7a6:	70e1      	strb	r1, [r4, #3]
   2a7a8:	1de0      	adds	r0, r4, #7
   2a7aa:	2238      	movs	r2, #56	@ 0x38
   2a7ac:	990b      	ldr	r1, [sp, #44]	@ 0x2c
   2a7ae:	f000 fcab 	bl	2b108 <__aeabi_memcpy>
   2a7b2:	4d05      	ldr	r5, [pc, #20]	@ (2a7c8 <_start+0x2ad0>)
   2a7b4:	446d      	add	r5, sp
   2a7b6:	4628      	mov	r0, r5
   2a7b8:	4621      	mov	r1, r4
   2a7ba:	f7f6 fc7f 	bl	210bc <_ZN20complex_dynamic_type3app17h20c758d6034b358fE>
   2a7be:	7828      	ldrb	r0, [r5, #0]
   2a7c0:	2801      	cmp	r0, #1
   2a7c2:	d107      	bne.n	2a7d4 <_start+0x2adc>
   2a7c4:	e288      	b.n	2acd8 <_start+0x2fe0>
   2a7c6:	46c0      	nop			@ (mov r8, r8)
   2a7c8:	00001404 	.word	0x00001404
   2a7cc:	000010e4 	.word	0x000010e4
   2a7d0:	000013a8 	.word	0x000013a8
   2a7d4:	4816      	ldr	r0, [pc, #88]	@ (2a830 <_start+0x2b38>)
   2a7d6:	4468      	add	r0, sp
   2a7d8:	78c1      	ldrb	r1, [r0, #3]
   2a7da:	4c16      	ldr	r4, [pc, #88]	@ (2a834 <_start+0x2b3c>)
   2a7dc:	446c      	add	r4, sp
   2a7de:	70a1      	strb	r1, [r4, #2]
   2a7e0:	7841      	ldrb	r1, [r0, #1]
   2a7e2:	7882      	ldrb	r2, [r0, #2]
   2a7e4:	0212      	lsls	r2, r2, #8
   2a7e6:	1851      	adds	r1, r2, r1
   2a7e8:	8021      	strh	r1, [r4, #0]
   2a7ea:	3008      	adds	r0, #8
   2a7ec:	9908      	ldr	r1, [sp, #32]
   2a7ee:	6e09      	ldr	r1, [r1, #96]	@ 0x60
   2a7f0:	4b11      	ldr	r3, [pc, #68]	@ (2a838 <_start+0x2b40>)
   2a7f2:	446b      	add	r3, sp
   2a7f4:	930b      	str	r3, [sp, #44]	@ 0x2c
   2a7f6:	c860      	ldmia	r0!, {r5, r6}
   2a7f8:	c360      	stmia	r3!, {r5, r6}
   2a7fa:	c864      	ldmia	r0!, {r2, r5, r6}
   2a7fc:	c364      	stmia	r3!, {r2, r5, r6}
   2a7fe:	7800      	ldrb	r0, [r0, #0]
   2a800:	7018      	strb	r0, [r3, #0]
   2a802:	0e08      	lsrs	r0, r1, #24
   2a804:	71a0      	strb	r0, [r4, #6]
   2a806:	0c08      	lsrs	r0, r1, #16
   2a808:	7160      	strb	r0, [r4, #5]
   2a80a:	0a08      	lsrs	r0, r1, #8
   2a80c:	7120      	strb	r0, [r4, #4]
   2a80e:	70e1      	strb	r1, [r4, #3]
   2a810:	1de0      	adds	r0, r4, #7
   2a812:	2215      	movs	r2, #21
   2a814:	990b      	ldr	r1, [sp, #44]	@ 0x2c
   2a816:	f000 fc77 	bl	2b108 <__aeabi_memcpy>
   2a81a:	4d05      	ldr	r5, [pc, #20]	@ (2a830 <_start+0x2b38>)
   2a81c:	446d      	add	r5, sp
   2a81e:	4628      	mov	r0, r5
   2a820:	4621      	mov	r1, r4
   2a822:	f7f6 fd9f 	bl	21364 <_ZN20complex_dynamic_type3app17h254b5270e2634860E>
   2a826:	7828      	ldrb	r0, [r5, #0]
   2a828:	2801      	cmp	r0, #1
   2a82a:	d107      	bne.n	2a83c <_start+0x2b44>
   2a82c:	e254      	b.n	2acd8 <_start+0x2fe0>
   2a82e:	46c0      	nop			@ (mov r8, r8)
   2a830:	00001404 	.word	0x00001404
   2a834:	00001124 	.word	0x00001124
   2a838:	000013a8 	.word	0x000013a8
   2a83c:	4915      	ldr	r1, [pc, #84]	@ (2a894 <_start+0x2b9c>)
   2a83e:	4469      	add	r1, sp
   2a840:	78c8      	ldrb	r0, [r1, #3]
   2a842:	4c15      	ldr	r4, [pc, #84]	@ (2a898 <_start+0x2ba0>)
   2a844:	446c      	add	r4, sp
   2a846:	70a0      	strb	r0, [r4, #2]
   2a848:	7848      	ldrb	r0, [r1, #1]
   2a84a:	788a      	ldrb	r2, [r1, #2]
   2a84c:	0212      	lsls	r2, r2, #8
   2a84e:	1810      	adds	r0, r2, r0
   2a850:	8020      	strh	r0, [r4, #0]
   2a852:	9808      	ldr	r0, [sp, #32]
   2a854:	6e05      	ldr	r5, [r0, #96]	@ 0x60
   2a856:	3108      	adds	r1, #8
   2a858:	4810      	ldr	r0, [pc, #64]	@ (2a89c <_start+0x2ba4>)
   2a85a:	4468      	add	r0, sp
   2a85c:	900b      	str	r0, [sp, #44]	@ 0x2c
   2a85e:	2656      	movs	r6, #86	@ 0x56
   2a860:	4632      	mov	r2, r6
   2a862:	f000 faf1 	bl	2ae48 <__aeabi_memcpy4>
   2a866:	0e28      	lsrs	r0, r5, #24
   2a868:	71a0      	strb	r0, [r4, #6]
   2a86a:	0c28      	lsrs	r0, r5, #16
   2a86c:	7160      	strb	r0, [r4, #5]
   2a86e:	0a28      	lsrs	r0, r5, #8
   2a870:	7120      	strb	r0, [r4, #4]
   2a872:	70e5      	strb	r5, [r4, #3]
   2a874:	1de0      	adds	r0, r4, #7
   2a876:	990b      	ldr	r1, [sp, #44]	@ 0x2c
   2a878:	4632      	mov	r2, r6
   2a87a:	f000 fc45 	bl	2b108 <__aeabi_memcpy>
   2a87e:	4d05      	ldr	r5, [pc, #20]	@ (2a894 <_start+0x2b9c>)
   2a880:	446d      	add	r5, sp
   2a882:	4628      	mov	r0, r5
   2a884:	4621      	mov	r1, r4
   2a886:	f7f8 fe93 	bl	235b0 <_ZN20complex_dynamic_type3app17h6e440eed79199ad5E>
   2a88a:	7828      	ldrb	r0, [r5, #0]
   2a88c:	2801      	cmp	r0, #1
   2a88e:	d107      	bne.n	2a8a0 <_start+0x2ba8>
   2a890:	e222      	b.n	2acd8 <_start+0x2fe0>
   2a892:	46c0      	nop			@ (mov r8, r8)
   2a894:	00001404 	.word	0x00001404
   2a898:	00001140 	.word	0x00001140
   2a89c:	000013a8 	.word	0x000013a8
   2a8a0:	4915      	ldr	r1, [pc, #84]	@ (2a8f8 <_start+0x2c00>)
   2a8a2:	4469      	add	r1, sp
   2a8a4:	9b08      	ldr	r3, [sp, #32]
   2a8a6:	6ed8      	ldr	r0, [r3, #108]	@ 0x6c
   2a8a8:	8108      	strh	r0, [r1, #8]
   2a8aa:	4814      	ldr	r0, [pc, #80]	@ (2a8fc <_start+0x2c04>)
   2a8ac:	4468      	add	r0, sp
   2a8ae:	78c2      	ldrb	r2, [r0, #3]
   2a8b0:	4c13      	ldr	r4, [pc, #76]	@ (2a900 <_start+0x2c08>)
   2a8b2:	446c      	add	r4, sp
   2a8b4:	70a2      	strb	r2, [r4, #2]
   2a8b6:	7c82      	ldrb	r2, [r0, #18]
   2a8b8:	728a      	strb	r2, [r1, #10]
   2a8ba:	7842      	ldrb	r2, [r0, #1]
   2a8bc:	7880      	ldrb	r0, [r0, #2]
   2a8be:	0200      	lsls	r0, r0, #8
   2a8c0:	1880      	adds	r0, r0, r2
   2a8c2:	8020      	strh	r0, [r4, #0]
   2a8c4:	6e18      	ldr	r0, [r3, #96]	@ 0x60
   2a8c6:	70e0      	strb	r0, [r4, #3]
   2a8c8:	0e02      	lsrs	r2, r0, #24
   2a8ca:	71a2      	strb	r2, [r4, #6]
   2a8cc:	0c02      	lsrs	r2, r0, #16
   2a8ce:	7162      	strb	r2, [r4, #5]
   2a8d0:	0a00      	lsrs	r0, r0, #8
   2a8d2:	7120      	strb	r0, [r4, #4]
   2a8d4:	6e58      	ldr	r0, [r3, #100]	@ 0x64
   2a8d6:	6e9a      	ldr	r2, [r3, #104]	@ 0x68
   2a8d8:	c305      	stmia	r3!, {r0, r2}
   2a8da:	1de0      	adds	r0, r4, #7
   2a8dc:	220b      	movs	r2, #11
   2a8de:	f000 fc13 	bl	2b108 <__aeabi_memcpy>
   2a8e2:	4d06      	ldr	r5, [pc, #24]	@ (2a8fc <_start+0x2c04>)
   2a8e4:	446d      	add	r5, sp
   2a8e6:	4628      	mov	r0, r5
   2a8e8:	4621      	mov	r1, r4
   2a8ea:	f7f8 ff0d 	bl	23708 <_ZN20complex_dynamic_type3app17h70d7968c3a25fa44E>
   2a8ee:	7828      	ldrb	r0, [r5, #0]
   2a8f0:	2801      	cmp	r0, #1
   2a8f2:	d107      	bne.n	2a904 <_start+0x2c0c>
   2a8f4:	e1f0      	b.n	2acd8 <_start+0x2fe0>
   2a8f6:	46c0      	nop			@ (mov r8, r8)
   2a8f8:	000013a8 	.word	0x000013a8
   2a8fc:	00001404 	.word	0x00001404
   2a900:	000011a0 	.word	0x000011a0
   2a904:	48f6      	ldr	r0, [pc, #984]	@ (2ace0 <_start+0x2fe8>)
   2a906:	4468      	add	r0, sp
   2a908:	78c1      	ldrb	r1, [r0, #3]
   2a90a:	4cf6      	ldr	r4, [pc, #984]	@ (2ace4 <_start+0x2fec>)
   2a90c:	446c      	add	r4, sp
   2a90e:	70a1      	strb	r1, [r4, #2]
   2a910:	7841      	ldrb	r1, [r0, #1]
   2a912:	7882      	ldrb	r2, [r0, #2]
   2a914:	0212      	lsls	r2, r2, #8
   2a916:	1851      	adds	r1, r2, r1
   2a918:	8021      	strh	r1, [r4, #0]
   2a91a:	3008      	adds	r0, #8
   2a91c:	9908      	ldr	r1, [sp, #32]
   2a91e:	6e09      	ldr	r1, [r1, #96]	@ 0x60
   2a920:	910a      	str	r1, [sp, #40]	@ 0x28
   2a922:	4bf1      	ldr	r3, [pc, #964]	@ (2ace8 <_start+0x2ff0>)
   2a924:	446b      	add	r3, sp
   2a926:	930b      	str	r3, [sp, #44]	@ 0x2c
   2a928:	c864      	ldmia	r0!, {r2, r5, r6}
   2a92a:	c364      	stmia	r3!, {r2, r5, r6}
   2a92c:	c866      	ldmia	r0!, {r1, r2, r5, r6}
   2a92e:	c366      	stmia	r3!, {r1, r2, r5, r6}
   2a930:	c866      	ldmia	r0!, {r1, r2, r5, r6}
   2a932:	c366      	stmia	r3!, {r1, r2, r5, r6}
   2a934:	c866      	ldmia	r0!, {r1, r2, r5, r6}
   2a936:	c366      	stmia	r3!, {r1, r2, r5, r6}
   2a938:	7800      	ldrb	r0, [r0, #0]
   2a93a:	7018      	strb	r0, [r3, #0]
   2a93c:	990a      	ldr	r1, [sp, #40]	@ 0x28
   2a93e:	0e08      	lsrs	r0, r1, #24
   2a940:	71a0      	strb	r0, [r4, #6]
   2a942:	0c08      	lsrs	r0, r1, #16
   2a944:	7160      	strb	r0, [r4, #5]
   2a946:	0a08      	lsrs	r0, r1, #8
   2a948:	7120      	strb	r0, [r4, #4]
   2a94a:	70e1      	strb	r1, [r4, #3]
   2a94c:	1de0      	adds	r0, r4, #7
   2a94e:	223d      	movs	r2, #61	@ 0x3d
   2a950:	990b      	ldr	r1, [sp, #44]	@ 0x2c
   2a952:	f000 fbd9 	bl	2b108 <__aeabi_memcpy>
   2a956:	4de2      	ldr	r5, [pc, #904]	@ (2ace0 <_start+0x2fe8>)
   2a958:	446d      	add	r5, sp
   2a95a:	4628      	mov	r0, r5
   2a95c:	4621      	mov	r1, r4
   2a95e:	f7f9 ff69 	bl	24834 <_ZN20complex_dynamic_type3app17h981a746f9cb3f0f1E>
   2a962:	7828      	ldrb	r0, [r5, #0]
   2a964:	2801      	cmp	r0, #1
   2a966:	d100      	bne.n	2a96a <_start+0x2c72>
   2a968:	e1b6      	b.n	2acd8 <_start+0x2fe0>
   2a96a:	48fa      	ldr	r0, [pc, #1000]	@ (2ad54 <_start+0x305c>)
   2a96c:	4468      	add	r0, sp
   2a96e:	78c1      	ldrb	r1, [r0, #3]
   2a970:	4cfa      	ldr	r4, [pc, #1000]	@ (2ad5c <_start+0x3064>)
   2a972:	446c      	add	r4, sp
   2a974:	70a1      	strb	r1, [r4, #2]
   2a976:	7841      	ldrb	r1, [r0, #1]
   2a978:	7882      	ldrb	r2, [r0, #2]
   2a97a:	0212      	lsls	r2, r2, #8
   2a97c:	1851      	adds	r1, r2, r1
   2a97e:	8021      	strh	r1, [r4, #0]
   2a980:	3008      	adds	r0, #8
   2a982:	9908      	ldr	r1, [sp, #32]
   2a984:	6e09      	ldr	r1, [r1, #96]	@ 0x60
   2a986:	910a      	str	r1, [sp, #40]	@ 0x28
   2a988:	4bf3      	ldr	r3, [pc, #972]	@ (2ad58 <_start+0x3060>)
   2a98a:	446b      	add	r3, sp
   2a98c:	930b      	str	r3, [sp, #44]	@ 0x2c
   2a98e:	c864      	ldmia	r0!, {r2, r5, r6}
   2a990:	c364      	stmia	r3!, {r2, r5, r6}
   2a992:	c866      	ldmia	r0!, {r1, r2, r5, r6}
   2a994:	c366      	stmia	r3!, {r1, r2, r5, r6}
   2a996:	990a      	ldr	r1, [sp, #40]	@ 0x28
   2a998:	0e08      	lsrs	r0, r1, #24
   2a99a:	71a0      	strb	r0, [r4, #6]
   2a99c:	0c08      	lsrs	r0, r1, #16
   2a99e:	7160      	strb	r0, [r4, #5]
   2a9a0:	0a08      	lsrs	r0, r1, #8
   2a9a2:	7120      	strb	r0, [r4, #4]
   2a9a4:	70e1      	strb	r1, [r4, #3]
   2a9a6:	1de0      	adds	r0, r4, #7
   2a9a8:	221c      	movs	r2, #28
   2a9aa:	990b      	ldr	r1, [sp, #44]	@ 0x2c
   2a9ac:	f000 fbac 	bl	2b108 <__aeabi_memcpy>
   2a9b0:	4de8      	ldr	r5, [pc, #928]	@ (2ad54 <_start+0x305c>)
   2a9b2:	446d      	add	r5, sp
   2a9b4:	4628      	mov	r0, r5
   2a9b6:	4621      	mov	r1, r4
   2a9b8:	f7f9 f8a6 	bl	23b08 <_ZN20complex_dynamic_type3app17h7440e9b724c97395E>
   2a9bc:	7828      	ldrb	r0, [r5, #0]
   2a9be:	2801      	cmp	r0, #1
   2a9c0:	d100      	bne.n	2a9c4 <_start+0x2ccc>
   2a9c2:	e189      	b.n	2acd8 <_start+0x2fe0>
   2a9c4:	48e3      	ldr	r0, [pc, #908]	@ (2ad54 <_start+0x305c>)
   2a9c6:	4468      	add	r0, sp
   2a9c8:	78c1      	ldrb	r1, [r0, #3]
   2a9ca:	4ce5      	ldr	r4, [pc, #916]	@ (2ad60 <_start+0x3068>)
   2a9cc:	446c      	add	r4, sp
   2a9ce:	70a1      	strb	r1, [r4, #2]
   2a9d0:	7841      	ldrb	r1, [r0, #1]
   2a9d2:	7882      	ldrb	r2, [r0, #2]
   2a9d4:	0212      	lsls	r2, r2, #8
   2a9d6:	1851      	adds	r1, r2, r1
   2a9d8:	8021      	strh	r1, [r4, #0]
   2a9da:	3008      	adds	r0, #8
   2a9dc:	9908      	ldr	r1, [sp, #32]
   2a9de:	6e09      	ldr	r1, [r1, #96]	@ 0x60
   2a9e0:	910a      	str	r1, [sp, #40]	@ 0x28
   2a9e2:	4bdd      	ldr	r3, [pc, #884]	@ (2ad58 <_start+0x3060>)
   2a9e4:	446b      	add	r3, sp
   2a9e6:	930b      	str	r3, [sp, #44]	@ 0x2c
   2a9e8:	c864      	ldmia	r0!, {r2, r5, r6}
   2a9ea:	c364      	stmia	r3!, {r2, r5, r6}
   2a9ec:	c866      	ldmia	r0!, {r1, r2, r5, r6}
   2a9ee:	c366      	stmia	r3!, {r1, r2, r5, r6}
   2a9f0:	7800      	ldrb	r0, [r0, #0]
   2a9f2:	7018      	strb	r0, [r3, #0]
   2a9f4:	990a      	ldr	r1, [sp, #40]	@ 0x28
   2a9f6:	0e08      	lsrs	r0, r1, #24
   2a9f8:	71a0      	strb	r0, [r4, #6]
   2a9fa:	0c08      	lsrs	r0, r1, #16
   2a9fc:	7160      	strb	r0, [r4, #5]
   2a9fe:	0a08      	lsrs	r0, r1, #8
   2aa00:	7120      	strb	r0, [r4, #4]
   2aa02:	70e1      	strb	r1, [r4, #3]
   2aa04:	1de0      	adds	r0, r4, #7
   2aa06:	221d      	movs	r2, #29
   2aa08:	990b      	ldr	r1, [sp, #44]	@ 0x2c
   2aa0a:	f000 fb7d 	bl	2b108 <__aeabi_memcpy>
   2aa0e:	4dd1      	ldr	r5, [pc, #836]	@ (2ad54 <_start+0x305c>)
   2aa10:	446d      	add	r5, sp
   2aa12:	4628      	mov	r0, r5
   2aa14:	4621      	mov	r1, r4
   2aa16:	f7fb fb99 	bl	2614c <_ZN20complex_dynamic_type3app17hc06569a85c4dcc1dE>
   2aa1a:	7828      	ldrb	r0, [r5, #0]
   2aa1c:	2801      	cmp	r0, #1
   2aa1e:	d100      	bne.n	2aa22 <_start+0x2d2a>
   2aa20:	e15a      	b.n	2acd8 <_start+0x2fe0>
   2aa22:	48cc      	ldr	r0, [pc, #816]	@ (2ad54 <_start+0x305c>)
   2aa24:	4468      	add	r0, sp
   2aa26:	78c1      	ldrb	r1, [r0, #3]
   2aa28:	4cce      	ldr	r4, [pc, #824]	@ (2ad64 <_start+0x306c>)
   2aa2a:	446c      	add	r4, sp
   2aa2c:	70a1      	strb	r1, [r4, #2]
   2aa2e:	7841      	ldrb	r1, [r0, #1]
   2aa30:	7882      	ldrb	r2, [r0, #2]
   2aa32:	0212      	lsls	r2, r2, #8
   2aa34:	1851      	adds	r1, r2, r1
   2aa36:	8021      	strh	r1, [r4, #0]
   2aa38:	3008      	adds	r0, #8
   2aa3a:	9908      	ldr	r1, [sp, #32]
   2aa3c:	6e09      	ldr	r1, [r1, #96]	@ 0x60
   2aa3e:	910a      	str	r1, [sp, #40]	@ 0x28
   2aa40:	4bc5      	ldr	r3, [pc, #788]	@ (2ad58 <_start+0x3060>)
   2aa42:	446b      	add	r3, sp
   2aa44:	930b      	str	r3, [sp, #44]	@ 0x2c
   2aa46:	c864      	ldmia	r0!, {r2, r5, r6}
   2aa48:	c364      	stmia	r3!, {r2, r5, r6}
   2aa4a:	c864      	ldmia	r0!, {r2, r5, r6}
   2aa4c:	c364      	stmia	r3!, {r2, r5, r6}
   2aa4e:	c866      	ldmia	r0!, {r1, r2, r5, r6}
   2aa50:	c366      	stmia	r3!, {r1, r2, r5, r6}
   2aa52:	990a      	ldr	r1, [sp, #40]	@ 0x28
   2aa54:	0e08      	lsrs	r0, r1, #24
   2aa56:	71a0      	strb	r0, [r4, #6]
   2aa58:	0c08      	lsrs	r0, r1, #16
   2aa5a:	7160      	strb	r0, [r4, #5]
   2aa5c:	0a08      	lsrs	r0, r1, #8
   2aa5e:	7120      	strb	r0, [r4, #4]
   2aa60:	70e1      	strb	r1, [r4, #3]
   2aa62:	1de0      	adds	r0, r4, #7
   2aa64:	2228      	movs	r2, #40	@ 0x28
   2aa66:	990b      	ldr	r1, [sp, #44]	@ 0x2c
   2aa68:	f000 fb4e 	bl	2b108 <__aeabi_memcpy>
   2aa6c:	4db9      	ldr	r5, [pc, #740]	@ (2ad54 <_start+0x305c>)
   2aa6e:	446d      	add	r5, sp
   2aa70:	4628      	mov	r0, r5
   2aa72:	4621      	mov	r1, r4
   2aa74:	f7f7 fd10 	bl	22498 <_ZN20complex_dynamic_type3app17h50feef0d2ce7c3a2E>
   2aa78:	7828      	ldrb	r0, [r5, #0]
   2aa7a:	2801      	cmp	r0, #1
   2aa7c:	d100      	bne.n	2aa80 <_start+0x2d88>
   2aa7e:	e12b      	b.n	2acd8 <_start+0x2fe0>
   2aa80:	49b4      	ldr	r1, [pc, #720]	@ (2ad54 <_start+0x305c>)
   2aa82:	4469      	add	r1, sp
   2aa84:	78c8      	ldrb	r0, [r1, #3]
   2aa86:	4cb8      	ldr	r4, [pc, #736]	@ (2ad68 <_start+0x3070>)
   2aa88:	446c      	add	r4, sp
   2aa8a:	70a0      	strb	r0, [r4, #2]
   2aa8c:	7848      	ldrb	r0, [r1, #1]
   2aa8e:	788a      	ldrb	r2, [r1, #2]
   2aa90:	0212      	lsls	r2, r2, #8
   2aa92:	1810      	adds	r0, r2, r0
   2aa94:	8020      	strh	r0, [r4, #0]
   2aa96:	9808      	ldr	r0, [sp, #32]
   2aa98:	6e05      	ldr	r5, [r0, #96]	@ 0x60
   2aa9a:	3108      	adds	r1, #8
   2aa9c:	48ae      	ldr	r0, [pc, #696]	@ (2ad58 <_start+0x3060>)
   2aa9e:	4468      	add	r0, sp
   2aaa0:	900b      	str	r0, [sp, #44]	@ 0x2c
   2aaa2:	2657      	movs	r6, #87	@ 0x57
   2aaa4:	4632      	mov	r2, r6
   2aaa6:	f000 f9cf 	bl	2ae48 <__aeabi_memcpy4>
   2aaaa:	0e28      	lsrs	r0, r5, #24
   2aaac:	71a0      	strb	r0, [r4, #6]
   2aaae:	0c28      	lsrs	r0, r5, #16
   2aab0:	7160      	strb	r0, [r4, #5]
   2aab2:	0a28      	lsrs	r0, r5, #8
   2aab4:	7120      	strb	r0, [r4, #4]
   2aab6:	70e5      	strb	r5, [r4, #3]
   2aab8:	1de0      	adds	r0, r4, #7
   2aaba:	990b      	ldr	r1, [sp, #44]	@ 0x2c
   2aabc:	4632      	mov	r2, r6
   2aabe:	f000 fb23 	bl	2b108 <__aeabi_memcpy>
   2aac2:	4da4      	ldr	r5, [pc, #656]	@ (2ad54 <_start+0x305c>)
   2aac4:	446d      	add	r5, sp
   2aac6:	4628      	mov	r0, r5
   2aac8:	4621      	mov	r1, r4
   2aaca:	f7f6 fcf3 	bl	214b4 <_ZN20complex_dynamic_type3app17h2734fbcaba170f56E>
   2aace:	7828      	ldrb	r0, [r5, #0]
   2aad0:	2801      	cmp	r0, #1
   2aad2:	d100      	bne.n	2aad6 <_start+0x2dde>
   2aad4:	e100      	b.n	2acd8 <_start+0x2fe0>
   2aad6:	499f      	ldr	r1, [pc, #636]	@ (2ad54 <_start+0x305c>)
   2aad8:	4469      	add	r1, sp
   2aada:	78c8      	ldrb	r0, [r1, #3]
   2aadc:	4ca3      	ldr	r4, [pc, #652]	@ (2ad6c <_start+0x3074>)
   2aade:	446c      	add	r4, sp
   2aae0:	70a0      	strb	r0, [r4, #2]
   2aae2:	7848      	ldrb	r0, [r1, #1]
   2aae4:	788a      	ldrb	r2, [r1, #2]
   2aae6:	0212      	lsls	r2, r2, #8
   2aae8:	1810      	adds	r0, r2, r0
   2aaea:	8020      	strh	r0, [r4, #0]
   2aaec:	9808      	ldr	r0, [sp, #32]
   2aaee:	6e05      	ldr	r5, [r0, #96]	@ 0x60
   2aaf0:	3108      	adds	r1, #8
   2aaf2:	4899      	ldr	r0, [pc, #612]	@ (2ad58 <_start+0x3060>)
   2aaf4:	4468      	add	r0, sp
   2aaf6:	900b      	str	r0, [sp, #44]	@ 0x2c
   2aaf8:	264e      	movs	r6, #78	@ 0x4e
   2aafa:	4632      	mov	r2, r6
   2aafc:	f000 f9a4 	bl	2ae48 <__aeabi_memcpy4>
   2ab00:	0e28      	lsrs	r0, r5, #24
   2ab02:	71a0      	strb	r0, [r4, #6]
   2ab04:	0c28      	lsrs	r0, r5, #16
   2ab06:	7160      	strb	r0, [r4, #5]
   2ab08:	0a28      	lsrs	r0, r5, #8
   2ab0a:	7120      	strb	r0, [r4, #4]
   2ab0c:	70e5      	strb	r5, [r4, #3]
   2ab0e:	1de0      	adds	r0, r4, #7
   2ab10:	990b      	ldr	r1, [sp, #44]	@ 0x2c
   2ab12:	4632      	mov	r2, r6
   2ab14:	f000 faf8 	bl	2b108 <__aeabi_memcpy>
   2ab18:	4d8e      	ldr	r5, [pc, #568]	@ (2ad54 <_start+0x305c>)
   2ab1a:	446d      	add	r5, sp
   2ab1c:	4628      	mov	r0, r5
   2ab1e:	4621      	mov	r1, r4
   2ab20:	f7f6 f8d0 	bl	20cc4 <_ZN20complex_dynamic_type3app17h12327896d1f9db6fE>
   2ab24:	7828      	ldrb	r0, [r5, #0]
   2ab26:	2801      	cmp	r0, #1
   2ab28:	d100      	bne.n	2ab2c <_start+0x2e34>
   2ab2a:	e0d5      	b.n	2acd8 <_start+0x2fe0>
   2ab2c:	498a      	ldr	r1, [pc, #552]	@ (2ad58 <_start+0x3060>)
   2ab2e:	4469      	add	r1, sp
   2ab30:	9b08      	ldr	r3, [sp, #32]
   2ab32:	6ed8      	ldr	r0, [r3, #108]	@ 0x6c
   2ab34:	8108      	strh	r0, [r1, #8]
   2ab36:	4887      	ldr	r0, [pc, #540]	@ (2ad54 <_start+0x305c>)
   2ab38:	4468      	add	r0, sp
   2ab3a:	78c2      	ldrb	r2, [r0, #3]
   2ab3c:	4c8c      	ldr	r4, [pc, #560]	@ (2ad70 <_start+0x3078>)
   2ab3e:	446c      	add	r4, sp
   2ab40:	70a2      	strb	r2, [r4, #2]
   2ab42:	7842      	ldrb	r2, [r0, #1]
   2ab44:	7880      	ldrb	r0, [r0, #2]
   2ab46:	0200      	lsls	r0, r0, #8
   2ab48:	1880      	adds	r0, r0, r2
   2ab4a:	8020      	strh	r0, [r4, #0]
   2ab4c:	6e18      	ldr	r0, [r3, #96]	@ 0x60
   2ab4e:	70e0      	strb	r0, [r4, #3]
   2ab50:	0e02      	lsrs	r2, r0, #24
   2ab52:	71a2      	strb	r2, [r4, #6]
   2ab54:	0c02      	lsrs	r2, r0, #16
   2ab56:	7162      	strb	r2, [r4, #5]
   2ab58:	0a00      	lsrs	r0, r0, #8
   2ab5a:	7120      	strb	r0, [r4, #4]
   2ab5c:	6e58      	ldr	r0, [r3, #100]	@ 0x64
   2ab5e:	6e9a      	ldr	r2, [r3, #104]	@ 0x68
   2ab60:	c305      	stmia	r3!, {r0, r2}
   2ab62:	1de0      	adds	r0, r4, #7
   2ab64:	220a      	movs	r2, #10
   2ab66:	f000 facf 	bl	2b108 <__aeabi_memcpy>
   2ab6a:	4d7a      	ldr	r5, [pc, #488]	@ (2ad54 <_start+0x305c>)
   2ab6c:	446d      	add	r5, sp
   2ab6e:	4628      	mov	r0, r5
   2ab70:	4621      	mov	r1, r4
   2ab72:	f7f5 ff57 	bl	20a24 <_ZN20complex_dynamic_type3app17h0c0f9106060cb325E>
   2ab76:	7828      	ldrb	r0, [r5, #0]
   2ab78:	2801      	cmp	r0, #1
   2ab7a:	d100      	bne.n	2ab7e <_start+0x2e86>
   2ab7c:	e0ac      	b.n	2acd8 <_start+0x2fe0>
   2ab7e:	4975      	ldr	r1, [pc, #468]	@ (2ad54 <_start+0x305c>)
   2ab80:	4469      	add	r1, sp
   2ab82:	78c8      	ldrb	r0, [r1, #3]
   2ab84:	4c7b      	ldr	r4, [pc, #492]	@ (2ad74 <_start+0x307c>)
   2ab86:	446c      	add	r4, sp
   2ab88:	70a0      	strb	r0, [r4, #2]
   2ab8a:	7848      	ldrb	r0, [r1, #1]
   2ab8c:	788a      	ldrb	r2, [r1, #2]
   2ab8e:	0212      	lsls	r2, r2, #8
   2ab90:	1810      	adds	r0, r2, r0
   2ab92:	8020      	strh	r0, [r4, #0]
   2ab94:	9808      	ldr	r0, [sp, #32]
   2ab96:	6e05      	ldr	r5, [r0, #96]	@ 0x60
   2ab98:	3108      	adds	r1, #8
   2ab9a:	486f      	ldr	r0, [pc, #444]	@ (2ad58 <_start+0x3060>)
   2ab9c:	4468      	add	r0, sp
   2ab9e:	900b      	str	r0, [sp, #44]	@ 0x2c
   2aba0:	2649      	movs	r6, #73	@ 0x49
   2aba2:	4632      	mov	r2, r6
   2aba4:	f000 f950 	bl	2ae48 <__aeabi_memcpy4>
   2aba8:	0e28      	lsrs	r0, r5, #24
   2abaa:	71a0      	strb	r0, [r4, #6]
   2abac:	0c28      	lsrs	r0, r5, #16
   2abae:	7160      	strb	r0, [r4, #5]
   2abb0:	0a28      	lsrs	r0, r5, #8
   2abb2:	7120      	strb	r0, [r4, #4]
   2abb4:	70e5      	strb	r5, [r4, #3]
   2abb6:	1de0      	adds	r0, r4, #7
   2abb8:	990b      	ldr	r1, [sp, #44]	@ 0x2c
   2abba:	4632      	mov	r2, r6
   2abbc:	f000 faa4 	bl	2b108 <__aeabi_memcpy>
   2abc0:	4d64      	ldr	r5, [pc, #400]	@ (2ad54 <_start+0x305c>)
   2abc2:	446d      	add	r5, sp
   2abc4:	4628      	mov	r0, r5
   2abc6:	4621      	mov	r1, r4
   2abc8:	f7fb f820 	bl	25c0c <_ZN20complex_dynamic_type3app17hb9398cc16f05c4ffE>
   2abcc:	7828      	ldrb	r0, [r5, #0]
   2abce:	2801      	cmp	r0, #1
   2abd0:	d100      	bne.n	2abd4 <_start+0x2edc>
   2abd2:	e081      	b.n	2acd8 <_start+0x2fe0>
   2abd4:	485f      	ldr	r0, [pc, #380]	@ (2ad54 <_start+0x305c>)
   2abd6:	4468      	add	r0, sp
   2abd8:	78c1      	ldrb	r1, [r0, #3]
   2abda:	4c67      	ldr	r4, [pc, #412]	@ (2ad78 <_start+0x3080>)
   2abdc:	446c      	add	r4, sp
   2abde:	70a1      	strb	r1, [r4, #2]
   2abe0:	7841      	ldrb	r1, [r0, #1]
   2abe2:	7882      	ldrb	r2, [r0, #2]
   2abe4:	0212      	lsls	r2, r2, #8
   2abe6:	1851      	adds	r1, r2, r1
   2abe8:	8021      	strh	r1, [r4, #0]
   2abea:	3008      	adds	r0, #8
   2abec:	9908      	ldr	r1, [sp, #32]
   2abee:	6e09      	ldr	r1, [r1, #96]	@ 0x60
   2abf0:	4b59      	ldr	r3, [pc, #356]	@ (2ad58 <_start+0x3060>)
   2abf2:	446b      	add	r3, sp
   2abf4:	930b      	str	r3, [sp, #44]	@ 0x2c
   2abf6:	c860      	ldmia	r0!, {r5, r6}
   2abf8:	c360      	stmia	r3!, {r5, r6}
   2abfa:	c864      	ldmia	r0!, {r2, r5, r6}
   2abfc:	c364      	stmia	r3!, {r2, r5, r6}
   2abfe:	0e08      	lsrs	r0, r1, #24
   2ac00:	71a0      	strb	r0, [r4, #6]
   2ac02:	0c08      	lsrs	r0, r1, #16
   2ac04:	7160      	strb	r0, [r4, #5]
   2ac06:	0a08      	lsrs	r0, r1, #8
   2ac08:	7120      	strb	r0, [r4, #4]
   2ac0a:	70e1      	strb	r1, [r4, #3]
   2ac0c:	1de0      	adds	r0, r4, #7
   2ac0e:	2214      	movs	r2, #20
   2ac10:	990b      	ldr	r1, [sp, #44]	@ 0x2c
   2ac12:	f000 fa79 	bl	2b108 <__aeabi_memcpy>
   2ac16:	4d4f      	ldr	r5, [pc, #316]	@ (2ad54 <_start+0x305c>)
   2ac18:	446d      	add	r5, sp
   2ac1a:	4628      	mov	r0, r5
   2ac1c:	4621      	mov	r1, r4
   2ac1e:	f7f5 ffa9 	bl	20b74 <_ZN20complex_dynamic_type3app17h117a3c511296846bE>
   2ac22:	7828      	ldrb	r0, [r5, #0]
   2ac24:	2801      	cmp	r0, #1
   2ac26:	d057      	beq.n	2acd8 <_start+0x2fe0>
   2ac28:	494a      	ldr	r1, [pc, #296]	@ (2ad54 <_start+0x305c>)
   2ac2a:	4469      	add	r1, sp
   2ac2c:	78c8      	ldrb	r0, [r1, #3]
   2ac2e:	4c53      	ldr	r4, [pc, #332]	@ (2ad7c <_start+0x3084>)
   2ac30:	446c      	add	r4, sp
   2ac32:	70a0      	strb	r0, [r4, #2]
   2ac34:	7848      	ldrb	r0, [r1, #1]
   2ac36:	788a      	ldrb	r2, [r1, #2]
   2ac38:	0212      	lsls	r2, r2, #8
   2ac3a:	1810      	adds	r0, r2, r0
   2ac3c:	8020      	strh	r0, [r4, #0]
   2ac3e:	9808      	ldr	r0, [sp, #32]
   2ac40:	6e05      	ldr	r5, [r0, #96]	@ 0x60
   2ac42:	3108      	adds	r1, #8
   2ac44:	4844      	ldr	r0, [pc, #272]	@ (2ad58 <_start+0x3060>)
   2ac46:	4468      	add	r0, sp
   2ac48:	900b      	str	r0, [sp, #44]	@ 0x2c
   2ac4a:	265c      	movs	r6, #92	@ 0x5c
   2ac4c:	4632      	mov	r2, r6
   2ac4e:	f000 f8fb 	bl	2ae48 <__aeabi_memcpy4>
   2ac52:	0e28      	lsrs	r0, r5, #24
   2ac54:	71a0      	strb	r0, [r4, #6]
   2ac56:	0c28      	lsrs	r0, r5, #16
   2ac58:	7160      	strb	r0, [r4, #5]
   2ac5a:	0a28      	lsrs	r0, r5, #8
   2ac5c:	7120      	strb	r0, [r4, #4]
   2ac5e:	70e5      	strb	r5, [r4, #3]
   2ac60:	1de0      	adds	r0, r4, #7
   2ac62:	990b      	ldr	r1, [sp, #44]	@ 0x2c
   2ac64:	4632      	mov	r2, r6
   2ac66:	f000 fa4f 	bl	2b108 <__aeabi_memcpy>
   2ac6a:	4d3a      	ldr	r5, [pc, #232]	@ (2ad54 <_start+0x305c>)
   2ac6c:	446d      	add	r5, sp
   2ac6e:	4628      	mov	r0, r5
   2ac70:	4621      	mov	r1, r4
   2ac72:	f7fa fd29 	bl	256c8 <_ZN20complex_dynamic_type3app17hb067549b3909844dE>
   2ac76:	7828      	ldrb	r0, [r5, #0]
   2ac78:	2801      	cmp	r0, #1
   2ac7a:	d02d      	beq.n	2acd8 <_start+0x2fe0>
   2ac7c:	4835      	ldr	r0, [pc, #212]	@ (2ad54 <_start+0x305c>)
   2ac7e:	4468      	add	r0, sp
   2ac80:	78c1      	ldrb	r1, [r0, #3]
   2ac82:	4c3f      	ldr	r4, [pc, #252]	@ (2ad80 <_start+0x3088>)
   2ac84:	446c      	add	r4, sp
   2ac86:	70a1      	strb	r1, [r4, #2]
   2ac88:	7841      	ldrb	r1, [r0, #1]
   2ac8a:	7882      	ldrb	r2, [r0, #2]
   2ac8c:	0212      	lsls	r2, r2, #8
   2ac8e:	1851      	adds	r1, r2, r1
   2ac90:	8021      	strh	r1, [r4, #0]
   2ac92:	3008      	adds	r0, #8
   2ac94:	9908      	ldr	r1, [sp, #32]
   2ac96:	6e09      	ldr	r1, [r1, #96]	@ 0x60
   2ac98:	4b2f      	ldr	r3, [pc, #188]	@ (2ad58 <_start+0x3060>)
   2ac9a:	446b      	add	r3, sp
   2ac9c:	930b      	str	r3, [sp, #44]	@ 0x2c
   2ac9e:	c864      	ldmia	r0!, {r2, r5, r6}
   2aca0:	c364      	stmia	r3!, {r2, r5, r6}
   2aca2:	c864      	ldmia	r0!, {r2, r5, r6}
   2aca4:	c364      	stmia	r3!, {r2, r5, r6}
   2aca6:	c864      	ldmia	r0!, {r2, r5, r6}
   2aca8:	c364      	stmia	r3!, {r2, r5, r6}
   2acaa:	7800      	ldrb	r0, [r0, #0]
   2acac:	7018      	strb	r0, [r3, #0]
   2acae:	0e08      	lsrs	r0, r1, #24
   2acb0:	71a0      	strb	r0, [r4, #6]
   2acb2:	0c08      	lsrs	r0, r1, #16
   2acb4:	7160      	strb	r0, [r4, #5]
   2acb6:	0a08      	lsrs	r0, r1, #8
   2acb8:	7120      	strb	r0, [r4, #4]
   2acba:	70e1      	strb	r1, [r4, #3]
   2acbc:	1de0      	adds	r0, r4, #7
   2acbe:	2225      	movs	r2, #37	@ 0x25
   2acc0:	990b      	ldr	r1, [sp, #44]	@ 0x2c
   2acc2:	f000 fa21 	bl	2b108 <__aeabi_memcpy>
   2acc6:	4d23      	ldr	r5, [pc, #140]	@ (2ad54 <_start+0x305c>)
   2acc8:	446d      	add	r5, sp
   2acca:	4628      	mov	r0, r5
   2accc:	4621      	mov	r1, r4
   2acce:	f7f6 fd3f 	bl	21750 <_ZN20complex_dynamic_type3app17h2e62c25c67398d3aE>
   2acd2:	7828      	ldrb	r0, [r5, #0]
   2acd4:	2801      	cmp	r0, #1
   2acd6:	d109      	bne.n	2acec <_start+0x2ff4>
   2acd8:	9808      	ldr	r0, [sp, #32]
   2acda:	6e01      	ldr	r1, [r0, #96]	@ 0x60
   2acdc:	f7fd f875 	bl	27dca <_start+0xd2>
   2ace0:	00001404 	.word	0x00001404
   2ace4:	000011b4 	.word	0x000011b4
   2ace8:	000013a8 	.word	0x000013a8
   2acec:	4819      	ldr	r0, [pc, #100]	@ (2ad54 <_start+0x305c>)
   2acee:	4468      	add	r0, sp
   2acf0:	78c1      	ldrb	r1, [r0, #3]
   2acf2:	4c24      	ldr	r4, [pc, #144]	@ (2ad84 <_start+0x308c>)
   2acf4:	446c      	add	r4, sp
   2acf6:	70a1      	strb	r1, [r4, #2]
   2acf8:	7841      	ldrb	r1, [r0, #1]
   2acfa:	7882      	ldrb	r2, [r0, #2]
   2acfc:	0212      	lsls	r2, r2, #8
   2acfe:	1851      	adds	r1, r2, r1
   2ad00:	8021      	strh	r1, [r4, #0]
   2ad02:	3008      	adds	r0, #8
   2ad04:	9908      	ldr	r1, [sp, #32]
   2ad06:	6e09      	ldr	r1, [r1, #96]	@ 0x60
   2ad08:	910a      	str	r1, [sp, #40]	@ 0x28
   2ad0a:	4b13      	ldr	r3, [pc, #76]	@ (2ad58 <_start+0x3060>)
   2ad0c:	446b      	add	r3, sp
   2ad0e:	930b      	str	r3, [sp, #44]	@ 0x2c
   2ad10:	c866      	ldmia	r0!, {r1, r2, r5, r6}
   2ad12:	c366      	stmia	r3!, {r1, r2, r5, r6}
   2ad14:	c866      	ldmia	r0!, {r1, r2, r5, r6}
   2ad16:	c366      	stmia	r3!, {r1, r2, r5, r6}
   2ad18:	8801      	ldrh	r1, [r0, #0]
   2ad1a:	8019      	strh	r1, [r3, #0]
   2ad1c:	7880      	ldrb	r0, [r0, #2]
   2ad1e:	7098      	strb	r0, [r3, #2]
   2ad20:	990a      	ldr	r1, [sp, #40]	@ 0x28
   2ad22:	0e08      	lsrs	r0, r1, #24
   2ad24:	71a0      	strb	r0, [r4, #6]
   2ad26:	0c08      	lsrs	r0, r1, #16
   2ad28:	7160      	strb	r0, [r4, #5]
   2ad2a:	0a08      	lsrs	r0, r1, #8
   2ad2c:	7120      	strb	r0, [r4, #4]
   2ad2e:	70e1      	strb	r1, [r4, #3]
   2ad30:	1de0      	adds	r0, r4, #7
   2ad32:	2223      	movs	r2, #35	@ 0x23
   2ad34:	990b      	ldr	r1, [sp, #44]	@ 0x2c
   2ad36:	f000 f9e7 	bl	2b108 <__aeabi_memcpy>
   2ad3a:	4d06      	ldr	r5, [pc, #24]	@ (2ad54 <_start+0x305c>)
   2ad3c:	446d      	add	r5, sp
   2ad3e:	4628      	mov	r0, r5
   2ad40:	4621      	mov	r1, r4
   2ad42:	f7fc f89f 	bl	26e84 <_ZN20complex_dynamic_type3app17hdd0d3b1175ad9dd0E>
   2ad46:	7828      	ldrb	r0, [r5, #0]
   2ad48:	9908      	ldr	r1, [sp, #32]
   2ad4a:	6e09      	ldr	r1, [r1, #96]	@ 0x60
   2ad4c:	1ffe      	subs	r6, r7, #7
   2ad4e:	3e05      	subs	r6, #5
   2ad50:	46b5      	mov	sp, r6
   2ad52:	bdf0      	pop	{r4, r5, r6, r7, pc}
   2ad54:	00001404 	.word	0x00001404
   2ad58:	000013a8 	.word	0x000013a8
   2ad5c:	000011f8 	.word	0x000011f8
   2ad60:	0000121c 	.word	0x0000121c
   2ad64:	00001240 	.word	0x00001240
   2ad68:	00001270 	.word	0x00001270
   2ad6c:	000012d0 	.word	0x000012d0
   2ad70:	00001328 	.word	0x00001328
   2ad74:	0000133c 	.word	0x0000133c
   2ad78:	0000138c 	.word	0x0000138c
   2ad7c:	00001468 	.word	0x00001468
   2ad80:	000014cc 	.word	0x000014cc
   2ad84:	000014f8 	.word	0x000014f8

0002ad88 <__aeabi_memclr>:
   2ad88:	b5f0      	push	{r4, r5, r6, r7, lr}
   2ad8a:	af03      	add	r7, sp, #12
   2ad8c:	2910      	cmp	r1, #16
   2ad8e:	d332      	bcc.n	2adf6 <__aeabi_memclr+0x6e>
   2ad90:	4244      	negs	r4, r0
   2ad92:	2203      	movs	r2, #3
   2ad94:	4014      	ands	r4, r2
   2ad96:	1903      	adds	r3, r0, r4
   2ad98:	4298      	cmp	r0, r3
   2ad9a:	d218      	bcs.n	2adce <__aeabi_memclr+0x46>
   2ad9c:	1e65      	subs	r5, r4, #1
   2ad9e:	2c00      	cmp	r4, #0
   2ada0:	d00b      	beq.n	2adba <__aeabi_memclr+0x32>
   2ada2:	2600      	movs	r6, #0
   2ada4:	7006      	strb	r6, [r0, #0]
   2ada6:	2c01      	cmp	r4, #1
   2ada8:	d103      	bne.n	2adb2 <__aeabi_memclr+0x2a>
   2adaa:	1c40      	adds	r0, r0, #1
   2adac:	2d03      	cmp	r5, #3
   2adae:	d206      	bcs.n	2adbe <__aeabi_memclr+0x36>
   2adb0:	e00d      	b.n	2adce <__aeabi_memclr+0x46>
   2adb2:	7046      	strb	r6, [r0, #1]
   2adb4:	2c02      	cmp	r4, #2
   2adb6:	d142      	bne.n	2ae3e <__aeabi_memclr+0xb6>
   2adb8:	1c80      	adds	r0, r0, #2
   2adba:	2d03      	cmp	r5, #3
   2adbc:	d307      	bcc.n	2adce <__aeabi_memclr+0x46>
   2adbe:	2500      	movs	r5, #0
   2adc0:	70c5      	strb	r5, [r0, #3]
   2adc2:	7085      	strb	r5, [r0, #2]
   2adc4:	7045      	strb	r5, [r0, #1]
   2adc6:	7005      	strb	r5, [r0, #0]
   2adc8:	1d00      	adds	r0, r0, #4
   2adca:	4298      	cmp	r0, r3
   2adcc:	d1f7      	bne.n	2adbe <__aeabi_memclr+0x36>
   2adce:	1b09      	subs	r1, r1, r4
   2add0:	4608      	mov	r0, r1
   2add2:	4390      	bics	r0, r2
   2add4:	1818      	adds	r0, r3, r0
   2add6:	4283      	cmp	r3, r0
   2add8:	d20c      	bcs.n	2adf4 <__aeabi_memclr+0x6c>
   2adda:	2400      	movs	r4, #0
   2addc:	c310      	stmia	r3!, {r4}
   2adde:	4283      	cmp	r3, r0
   2ade0:	d208      	bcs.n	2adf4 <__aeabi_memclr+0x6c>
   2ade2:	c310      	stmia	r3!, {r4}
   2ade4:	4283      	cmp	r3, r0
   2ade6:	d205      	bcs.n	2adf4 <__aeabi_memclr+0x6c>
   2ade8:	c310      	stmia	r3!, {r4}
   2adea:	4283      	cmp	r3, r0
   2adec:	d202      	bcs.n	2adf4 <__aeabi_memclr+0x6c>
   2adee:	c310      	stmia	r3!, {r4}
   2adf0:	4283      	cmp	r3, r0
   2adf2:	d3f2      	bcc.n	2adda <__aeabi_memclr+0x52>
   2adf4:	4011      	ands	r1, r2
   2adf6:	1842      	adds	r2, r0, r1
   2adf8:	4290      	cmp	r0, r2
   2adfa:	d21a      	bcs.n	2ae32 <__aeabi_memclr+0xaa>
   2adfc:	2303      	movs	r3, #3
   2adfe:	400b      	ands	r3, r1
   2ae00:	1e49      	subs	r1, r1, #1
   2ae02:	2b00      	cmp	r3, #0
   2ae04:	d00b      	beq.n	2ae1e <__aeabi_memclr+0x96>
   2ae06:	2400      	movs	r4, #0
   2ae08:	7004      	strb	r4, [r0, #0]
   2ae0a:	2b01      	cmp	r3, #1
   2ae0c:	d103      	bne.n	2ae16 <__aeabi_memclr+0x8e>
   2ae0e:	1c40      	adds	r0, r0, #1
   2ae10:	2903      	cmp	r1, #3
   2ae12:	d206      	bcs.n	2ae22 <__aeabi_memclr+0x9a>
   2ae14:	e00d      	b.n	2ae32 <__aeabi_memclr+0xaa>
   2ae16:	7044      	strb	r4, [r0, #1]
   2ae18:	2b02      	cmp	r3, #2
   2ae1a:	d10b      	bne.n	2ae34 <__aeabi_memclr+0xac>
   2ae1c:	1c80      	adds	r0, r0, #2
   2ae1e:	2903      	cmp	r1, #3
   2ae20:	d307      	bcc.n	2ae32 <__aeabi_memclr+0xaa>
   2ae22:	2100      	movs	r1, #0
   2ae24:	70c1      	strb	r1, [r0, #3]
   2ae26:	7081      	strb	r1, [r0, #2]
   2ae28:	7041      	strb	r1, [r0, #1]
   2ae2a:	7001      	strb	r1, [r0, #0]
   2ae2c:	1d00      	adds	r0, r0, #4
   2ae2e:	4290      	cmp	r0, r2
   2ae30:	d1f7      	bne.n	2ae22 <__aeabi_memclr+0x9a>
   2ae32:	bdf0      	pop	{r4, r5, r6, r7, pc}
   2ae34:	7084      	strb	r4, [r0, #2]
   2ae36:	1cc0      	adds	r0, r0, #3
   2ae38:	2903      	cmp	r1, #3
   2ae3a:	d2f2      	bcs.n	2ae22 <__aeabi_memclr+0x9a>
   2ae3c:	e7f9      	b.n	2ae32 <__aeabi_memclr+0xaa>
   2ae3e:	7086      	strb	r6, [r0, #2]
   2ae40:	1cc0      	adds	r0, r0, #3
   2ae42:	2d03      	cmp	r5, #3
   2ae44:	d2bb      	bcs.n	2adbe <__aeabi_memclr+0x36>
   2ae46:	e7c2      	b.n	2adce <__aeabi_memclr+0x46>

0002ae48 <__aeabi_memcpy4>:
   2ae48:	b5f0      	push	{r4, r5, r6, r7, lr}
   2ae4a:	af03      	add	r7, sp, #12
   2ae4c:	b081      	sub	sp, #4
   2ae4e:	2a04      	cmp	r2, #4
   2ae50:	d32d      	bcc.n	2aeae <__aeabi_memcpy4+0x66>
   2ae52:	1f13      	subs	r3, r2, #4
   2ae54:	250c      	movs	r5, #12
   2ae56:	401d      	ands	r5, r3
   2ae58:	2d0c      	cmp	r5, #12
   2ae5a:	d019      	beq.n	2ae90 <__aeabi_memcpy4+0x48>
   2ae5c:	9200      	str	r2, [sp, #0]
   2ae5e:	460e      	mov	r6, r1
   2ae60:	c904      	ldmia	r1!, {r2}
   2ae62:	4604      	mov	r4, r0
   2ae64:	c004      	stmia	r0!, {r2}
   2ae66:	071a      	lsls	r2, r3, #28
   2ae68:	0f92      	lsrs	r2, r2, #30
   2ae6a:	461a      	mov	r2, r3
   2ae6c:	d010      	beq.n	2ae90 <__aeabi_memcpy4+0x48>
   2ae6e:	4631      	mov	r1, r6
   2ae70:	6872      	ldr	r2, [r6, #4]
   2ae72:	6062      	str	r2, [r4, #4]
   2ae74:	2d04      	cmp	r5, #4
   2ae76:	d104      	bne.n	2ae82 <__aeabi_memcpy4+0x3a>
   2ae78:	9a00      	ldr	r2, [sp, #0]
   2ae7a:	3a08      	subs	r2, #8
   2ae7c:	3108      	adds	r1, #8
   2ae7e:	3408      	adds	r4, #8
   2ae80:	e005      	b.n	2ae8e <__aeabi_memcpy4+0x46>
   2ae82:	688a      	ldr	r2, [r1, #8]
   2ae84:	60a2      	str	r2, [r4, #8]
   2ae86:	9a00      	ldr	r2, [sp, #0]
   2ae88:	3a0c      	subs	r2, #12
   2ae8a:	310c      	adds	r1, #12
   2ae8c:	340c      	adds	r4, #12
   2ae8e:	4620      	mov	r0, r4
   2ae90:	2b0c      	cmp	r3, #12
   2ae92:	d30c      	bcc.n	2aeae <__aeabi_memcpy4+0x66>
   2ae94:	680b      	ldr	r3, [r1, #0]
   2ae96:	6003      	str	r3, [r0, #0]
   2ae98:	684b      	ldr	r3, [r1, #4]
   2ae9a:	6043      	str	r3, [r0, #4]
   2ae9c:	688b      	ldr	r3, [r1, #8]
   2ae9e:	6083      	str	r3, [r0, #8]
   2aea0:	68cb      	ldr	r3, [r1, #12]
   2aea2:	60c3      	str	r3, [r0, #12]
   2aea4:	3110      	adds	r1, #16
   2aea6:	3010      	adds	r0, #16
   2aea8:	3a10      	subs	r2, #16
   2aeaa:	2a03      	cmp	r2, #3
   2aeac:	d8f2      	bhi.n	2ae94 <__aeabi_memcpy4+0x4c>
   2aeae:	f000 f802 	bl	2aeb6 <_ZN17compiler_builtins3mem6memcpy17h1f9dbb1c3fd18e2fE>
   2aeb2:	b001      	add	sp, #4
   2aeb4:	bdf0      	pop	{r4, r5, r6, r7, pc}

0002aeb6 <_ZN17compiler_builtins3mem6memcpy17h1f9dbb1c3fd18e2fE>:
   2aeb6:	b5f0      	push	{r4, r5, r6, r7, lr}
   2aeb8:	af03      	add	r7, sp, #12
   2aeba:	b08f      	sub	sp, #60	@ 0x3c
   2aebc:	2a10      	cmp	r2, #16
   2aebe:	d315      	bcc.n	2aeec <_ZN17compiler_builtins3mem6memcpy17h1f9dbb1c3fd18e2fE+0x36>
   2aec0:	920b      	str	r2, [sp, #44]	@ 0x2c
   2aec2:	4242      	negs	r2, r0
   2aec4:	2303      	movs	r3, #3
   2aec6:	9308      	str	r3, [sp, #32]
   2aec8:	401a      	ands	r2, r3
   2aeca:	1885      	adds	r5, r0, r2
   2aecc:	900a      	str	r0, [sp, #40]	@ 0x28
   2aece:	42a8      	cmp	r0, r5
   2aed0:	d22a      	bcs.n	2af28 <_ZN17compiler_builtins3mem6memcpy17h1f9dbb1c3fd18e2fE+0x72>
   2aed2:	1e54      	subs	r4, r2, #1
   2aed4:	2a00      	cmp	r2, #0
   2aed6:	980a      	ldr	r0, [sp, #40]	@ 0x28
   2aed8:	4606      	mov	r6, r0
   2aeda:	460b      	mov	r3, r1
   2aedc:	d016      	beq.n	2af0c <_ZN17compiler_builtins3mem6memcpy17h1f9dbb1c3fd18e2fE+0x56>
   2aede:	780b      	ldrb	r3, [r1, #0]
   2aee0:	7003      	strb	r3, [r0, #0]
   2aee2:	2a01      	cmp	r2, #1
   2aee4:	d107      	bne.n	2aef6 <_ZN17compiler_builtins3mem6memcpy17h1f9dbb1c3fd18e2fE+0x40>
   2aee6:	1c4b      	adds	r3, r1, #1
   2aee8:	1c46      	adds	r6, r0, #1
   2aeea:	e00f      	b.n	2af0c <_ZN17compiler_builtins3mem6memcpy17h1f9dbb1c3fd18e2fE+0x56>
   2aeec:	4603      	mov	r3, r0
   2aeee:	189c      	adds	r4, r3, r2
   2aef0:	42a3      	cmp	r3, r4
   2aef2:	d341      	bcc.n	2af78 <_ZN17compiler_builtins3mem6memcpy17h1f9dbb1c3fd18e2fE+0xc2>
   2aef4:	e062      	b.n	2afbc <_ZN17compiler_builtins3mem6memcpy17h1f9dbb1c3fd18e2fE+0x106>
   2aef6:	784b      	ldrb	r3, [r1, #1]
   2aef8:	7043      	strb	r3, [r0, #1]
   2aefa:	2a02      	cmp	r2, #2
   2aefc:	d102      	bne.n	2af04 <_ZN17compiler_builtins3mem6memcpy17h1f9dbb1c3fd18e2fE+0x4e>
   2aefe:	1c8b      	adds	r3, r1, #2
   2af00:	1c86      	adds	r6, r0, #2
   2af02:	e003      	b.n	2af0c <_ZN17compiler_builtins3mem6memcpy17h1f9dbb1c3fd18e2fE+0x56>
   2af04:	788b      	ldrb	r3, [r1, #2]
   2af06:	7083      	strb	r3, [r0, #2]
   2af08:	1ccb      	adds	r3, r1, #3
   2af0a:	1cc6      	adds	r6, r0, #3
   2af0c:	2c03      	cmp	r4, #3
   2af0e:	d30b      	bcc.n	2af28 <_ZN17compiler_builtins3mem6memcpy17h1f9dbb1c3fd18e2fE+0x72>
   2af10:	781c      	ldrb	r4, [r3, #0]
   2af12:	7034      	strb	r4, [r6, #0]
   2af14:	785c      	ldrb	r4, [r3, #1]
   2af16:	7074      	strb	r4, [r6, #1]
   2af18:	789c      	ldrb	r4, [r3, #2]
   2af1a:	70b4      	strb	r4, [r6, #2]
   2af1c:	78dc      	ldrb	r4, [r3, #3]
   2af1e:	70f4      	strb	r4, [r6, #3]
   2af20:	1d1b      	adds	r3, r3, #4
   2af22:	1d36      	adds	r6, r6, #4
   2af24:	42ae      	cmp	r6, r5
   2af26:	d1f3      	bne.n	2af10 <_ZN17compiler_builtins3mem6memcpy17h1f9dbb1c3fd18e2fE+0x5a>
   2af28:	980b      	ldr	r0, [sp, #44]	@ 0x2c
   2af2a:	1a80      	subs	r0, r0, r2
   2af2c:	900b      	str	r0, [sp, #44]	@ 0x2c
   2af2e:	9c08      	ldr	r4, [sp, #32]
   2af30:	43a0      	bics	r0, r4
   2af32:	182b      	adds	r3, r5, r0
   2af34:	188e      	adds	r6, r1, r2
   2af36:	9609      	str	r6, [sp, #36]	@ 0x24
   2af38:	4026      	ands	r6, r4
   2af3a:	9007      	str	r0, [sp, #28]
   2af3c:	d147      	bne.n	2afce <_ZN17compiler_builtins3mem6memcpy17h1f9dbb1c3fd18e2fE+0x118>
   2af3e:	429d      	cmp	r5, r3
   2af40:	9a0b      	ldr	r2, [sp, #44]	@ 0x2c
   2af42:	9e09      	ldr	r6, [sp, #36]	@ 0x24
   2af44:	d211      	bcs.n	2af6a <_ZN17compiler_builtins3mem6memcpy17h1f9dbb1c3fd18e2fE+0xb4>
   2af46:	4631      	mov	r1, r6
   2af48:	6808      	ldr	r0, [r1, #0]
   2af4a:	c501      	stmia	r5!, {r0}
   2af4c:	429d      	cmp	r5, r3
   2af4e:	d20c      	bcs.n	2af6a <_ZN17compiler_builtins3mem6memcpy17h1f9dbb1c3fd18e2fE+0xb4>
   2af50:	6848      	ldr	r0, [r1, #4]
   2af52:	c501      	stmia	r5!, {r0}
   2af54:	429d      	cmp	r5, r3
   2af56:	d208      	bcs.n	2af6a <_ZN17compiler_builtins3mem6memcpy17h1f9dbb1c3fd18e2fE+0xb4>
   2af58:	6888      	ldr	r0, [r1, #8]
   2af5a:	c501      	stmia	r5!, {r0}
   2af5c:	429d      	cmp	r5, r3
   2af5e:	d204      	bcs.n	2af6a <_ZN17compiler_builtins3mem6memcpy17h1f9dbb1c3fd18e2fE+0xb4>
   2af60:	68c8      	ldr	r0, [r1, #12]
   2af62:	c501      	stmia	r5!, {r0}
   2af64:	3110      	adds	r1, #16
   2af66:	429d      	cmp	r5, r3
   2af68:	d3ee      	bcc.n	2af48 <_ZN17compiler_builtins3mem6memcpy17h1f9dbb1c3fd18e2fE+0x92>
   2af6a:	4022      	ands	r2, r4
   2af6c:	9807      	ldr	r0, [sp, #28]
   2af6e:	1831      	adds	r1, r6, r0
   2af70:	980a      	ldr	r0, [sp, #40]	@ 0x28
   2af72:	189c      	adds	r4, r3, r2
   2af74:	42a3      	cmp	r3, r4
   2af76:	d221      	bcs.n	2afbc <_ZN17compiler_builtins3mem6memcpy17h1f9dbb1c3fd18e2fE+0x106>
   2af78:	2503      	movs	r5, #3
   2af7a:	4015      	ands	r5, r2
   2af7c:	1e52      	subs	r2, r2, #1
   2af7e:	2d00      	cmp	r5, #0
   2af80:	d00e      	beq.n	2afa0 <_ZN17compiler_builtins3mem6memcpy17h1f9dbb1c3fd18e2fE+0xea>
   2af82:	780e      	ldrb	r6, [r1, #0]
   2af84:	701e      	strb	r6, [r3, #0]
   2af86:	2d01      	cmp	r5, #1
   2af88:	d104      	bne.n	2af94 <_ZN17compiler_builtins3mem6memcpy17h1f9dbb1c3fd18e2fE+0xde>
   2af8a:	1c49      	adds	r1, r1, #1
   2af8c:	1c5b      	adds	r3, r3, #1
   2af8e:	2a03      	cmp	r2, #3
   2af90:	d208      	bcs.n	2afa4 <_ZN17compiler_builtins3mem6memcpy17h1f9dbb1c3fd18e2fE+0xee>
   2af92:	e013      	b.n	2afbc <_ZN17compiler_builtins3mem6memcpy17h1f9dbb1c3fd18e2fE+0x106>
   2af94:	784e      	ldrb	r6, [r1, #1]
   2af96:	705e      	strb	r6, [r3, #1]
   2af98:	2d02      	cmp	r5, #2
   2af9a:	d111      	bne.n	2afc0 <_ZN17compiler_builtins3mem6memcpy17h1f9dbb1c3fd18e2fE+0x10a>
   2af9c:	1c89      	adds	r1, r1, #2
   2af9e:	1c9b      	adds	r3, r3, #2
   2afa0:	2a03      	cmp	r2, #3
   2afa2:	d30b      	bcc.n	2afbc <_ZN17compiler_builtins3mem6memcpy17h1f9dbb1c3fd18e2fE+0x106>
   2afa4:	780a      	ldrb	r2, [r1, #0]
   2afa6:	701a      	strb	r2, [r3, #0]
   2afa8:	784a      	ldrb	r2, [r1, #1]
   2afaa:	705a      	strb	r2, [r3, #1]
   2afac:	788a      	ldrb	r2, [r1, #2]
   2afae:	709a      	strb	r2, [r3, #2]
   2afb0:	78ca      	ldrb	r2, [r1, #3]
   2afb2:	70da      	strb	r2, [r3, #3]
   2afb4:	1d09      	adds	r1, r1, #4
   2afb6:	1d1b      	adds	r3, r3, #4
   2afb8:	42a3      	cmp	r3, r4
   2afba:	d1f3      	bne.n	2afa4 <_ZN17compiler_builtins3mem6memcpy17h1f9dbb1c3fd18e2fE+0xee>
   2afbc:	b00f      	add	sp, #60	@ 0x3c
   2afbe:	bdf0      	pop	{r4, r5, r6, r7, pc}
   2afc0:	788d      	ldrb	r5, [r1, #2]
   2afc2:	709d      	strb	r5, [r3, #2]
   2afc4:	1cc9      	adds	r1, r1, #3
   2afc6:	1cdb      	adds	r3, r3, #3
   2afc8:	2a03      	cmp	r2, #3
   2afca:	d2eb      	bcs.n	2afa4 <_ZN17compiler_builtins3mem6memcpy17h1f9dbb1c3fd18e2fE+0xee>
   2afcc:	e7f6      	b.n	2afbc <_ZN17compiler_builtins3mem6memcpy17h1f9dbb1c3fd18e2fE+0x106>
   2afce:	2400      	movs	r4, #0
   2afd0:	9406      	str	r4, [sp, #24]
   2afd2:	940e      	str	r4, [sp, #56]	@ 0x38
   2afd4:	ac0e      	add	r4, sp, #56	@ 0x38
   2afd6:	19a4      	adds	r4, r4, r6
   2afd8:	9405      	str	r4, [sp, #20]
   2afda:	2404      	movs	r4, #4
   2afdc:	1ba4      	subs	r4, r4, r6
   2afde:	9404      	str	r4, [sp, #16]
   2afe0:	07e4      	lsls	r4, r4, #31
   2afe2:	9600      	str	r6, [sp, #0]
   2afe4:	d006      	beq.n	2aff4 <_ZN17compiler_builtins3mem6memcpy17h1f9dbb1c3fd18e2fE+0x13e>
   2afe6:	9c09      	ldr	r4, [sp, #36]	@ 0x24
   2afe8:	7824      	ldrb	r4, [r4, #0]
   2afea:	9e05      	ldr	r6, [sp, #20]
   2afec:	7034      	strb	r4, [r6, #0]
   2afee:	9e00      	ldr	r6, [sp, #0]
   2aff0:	2401      	movs	r4, #1
   2aff2:	9406      	str	r4, [sp, #24]
   2aff4:	9c04      	ldr	r4, [sp, #16]
   2aff6:	07a4      	lsls	r4, r4, #30
   2aff8:	d508      	bpl.n	2b00c <_ZN17compiler_builtins3mem6memcpy17h1f9dbb1c3fd18e2fE+0x156>
   2affa:	9c09      	ldr	r4, [sp, #36]	@ 0x24
   2affc:	9204      	str	r2, [sp, #16]
   2affe:	9a06      	ldr	r2, [sp, #24]
   2b000:	5aa4      	ldrh	r4, [r4, r2]
   2b002:	9e05      	ldr	r6, [sp, #20]
   2b004:	9a06      	ldr	r2, [sp, #24]
   2b006:	52b4      	strh	r4, [r6, r2]
   2b008:	9a04      	ldr	r2, [sp, #16]
   2b00a:	9e00      	ldr	r6, [sp, #0]
   2b00c:	00f4      	lsls	r4, r6, #3
   2b00e:	9403      	str	r4, [sp, #12]
   2b010:	9c0e      	ldr	r4, [sp, #56]	@ 0x38
   2b012:	9406      	str	r4, [sp, #24]
   2b014:	1d2c      	adds	r4, r5, #4
   2b016:	429c      	cmp	r4, r3
   2b018:	d236      	bcs.n	2b088 <_ZN17compiler_builtins3mem6memcpy17h1f9dbb1c3fd18e2fE+0x1d2>
   2b01a:	4274      	negs	r4, r6
   2b01c:	1909      	adds	r1, r1, r4
   2b01e:	9105      	str	r1, [sp, #20]
   2b020:	9d03      	ldr	r5, [sp, #12]
   2b022:	4269      	negs	r1, r5
   2b024:	2418      	movs	r4, #24
   2b026:	400c      	ands	r4, r1
   2b028:	9402      	str	r4, [sp, #8]
   2b02a:	990a      	ldr	r1, [sp, #40]	@ 0x28
   2b02c:	9104      	str	r1, [sp, #16]
   2b02e:	4629      	mov	r1, r5
   2b030:	9c06      	ldr	r4, [sp, #24]
   2b032:	40cc      	lsrs	r4, r1
   2b034:	9406      	str	r4, [sp, #24]
   2b036:	9905      	ldr	r1, [sp, #20]
   2b038:	1889      	adds	r1, r1, r2
   2b03a:	9101      	str	r1, [sp, #4]
   2b03c:	6849      	ldr	r1, [r1, #4]
   2b03e:	460c      	mov	r4, r1
   2b040:	9d02      	ldr	r5, [sp, #8]
   2b042:	40ac      	lsls	r4, r5
   2b044:	9d06      	ldr	r5, [sp, #24]
   2b046:	432c      	orrs	r4, r5
   2b048:	9d04      	ldr	r5, [sp, #16]
   2b04a:	50ac      	str	r4, [r5, r2]
   2b04c:	18ad      	adds	r5, r5, r2
   2b04e:	462c      	mov	r4, r5
   2b050:	3408      	adds	r4, #8
   2b052:	429c      	cmp	r4, r3
   2b054:	d21c      	bcs.n	2b090 <_ZN17compiler_builtins3mem6memcpy17h1f9dbb1c3fd18e2fE+0x1da>
   2b056:	9c03      	ldr	r4, [sp, #12]
   2b058:	40e1      	lsrs	r1, r4
   2b05a:	9c01      	ldr	r4, [sp, #4]
   2b05c:	68a4      	ldr	r4, [r4, #8]
   2b05e:	9406      	str	r4, [sp, #24]
   2b060:	9501      	str	r5, [sp, #4]
   2b062:	9d02      	ldr	r5, [sp, #8]
   2b064:	40ac      	lsls	r4, r5
   2b066:	430c      	orrs	r4, r1
   2b068:	9901      	ldr	r1, [sp, #4]
   2b06a:	604c      	str	r4, [r1, #4]
   2b06c:	9904      	ldr	r1, [sp, #16]
   2b06e:	3108      	adds	r1, #8
   2b070:	9104      	str	r1, [sp, #16]
   2b072:	188d      	adds	r5, r1, r2
   2b074:	1d29      	adds	r1, r5, #4
   2b076:	9c05      	ldr	r4, [sp, #20]
   2b078:	3408      	adds	r4, #8
   2b07a:	9405      	str	r4, [sp, #20]
   2b07c:	4299      	cmp	r1, r3
   2b07e:	9903      	ldr	r1, [sp, #12]
   2b080:	d3d6      	bcc.n	2b030 <_ZN17compiler_builtins3mem6memcpy17h1f9dbb1c3fd18e2fE+0x17a>
   2b082:	9805      	ldr	r0, [sp, #20]
   2b084:	1880      	adds	r0, r0, r2
   2b086:	e001      	b.n	2b08c <_ZN17compiler_builtins3mem6memcpy17h1f9dbb1c3fd18e2fE+0x1d6>
   2b088:	9809      	ldr	r0, [sp, #36]	@ 0x24
   2b08a:	1b80      	subs	r0, r0, r6
   2b08c:	9005      	str	r0, [sp, #20]
   2b08e:	e004      	b.n	2b09a <_ZN17compiler_builtins3mem6memcpy17h1f9dbb1c3fd18e2fE+0x1e4>
   2b090:	9801      	ldr	r0, [sp, #4]
   2b092:	1d00      	adds	r0, r0, #4
   2b094:	9005      	str	r0, [sp, #20]
   2b096:	1d2d      	adds	r5, r5, #4
   2b098:	9106      	str	r1, [sp, #24]
   2b09a:	a80d      	add	r0, sp, #52	@ 0x34
   2b09c:	2100      	movs	r1, #0
   2b09e:	9004      	str	r0, [sp, #16]
   2b0a0:	7001      	strb	r1, [r0, #0]
   2b0a2:	a80c      	add	r0, sp, #48	@ 0x30
   2b0a4:	7001      	strb	r1, [r0, #0]
   2b0a6:	2e01      	cmp	r6, #1
   2b0a8:	460e      	mov	r6, r1
   2b0aa:	460c      	mov	r4, r1
   2b0ac:	9102      	str	r1, [sp, #8]
   2b0ae:	9a0b      	ldr	r2, [sp, #44]	@ 0x2c
   2b0b0:	d009      	beq.n	2b0c6 <_ZN17compiler_builtins3mem6memcpy17h1f9dbb1c3fd18e2fE+0x210>
   2b0b2:	9c05      	ldr	r4, [sp, #20]
   2b0b4:	7960      	ldrb	r0, [r4, #5]
   2b0b6:	7926      	ldrb	r6, [r4, #4]
   2b0b8:	ac0d      	add	r4, sp, #52	@ 0x34
   2b0ba:	7026      	strb	r6, [r4, #0]
   2b0bc:	0204      	lsls	r4, r0, #8
   2b0be:	2002      	movs	r0, #2
   2b0c0:	9002      	str	r0, [sp, #8]
   2b0c2:	a80c      	add	r0, sp, #48	@ 0x30
   2b0c4:	9004      	str	r0, [sp, #16]
   2b0c6:	9809      	ldr	r0, [sp, #36]	@ 0x24
   2b0c8:	07c0      	lsls	r0, r0, #31
   2b0ca:	d00a      	beq.n	2b0e2 <_ZN17compiler_builtins3mem6memcpy17h1f9dbb1c3fd18e2fE+0x22c>
   2b0cc:	9805      	ldr	r0, [sp, #20]
   2b0ce:	1d00      	adds	r0, r0, #4
   2b0d0:	9902      	ldr	r1, [sp, #8]
   2b0d2:	5c40      	ldrb	r0, [r0, r1]
   2b0d4:	9904      	ldr	r1, [sp, #16]
   2b0d6:	7008      	strb	r0, [r1, #0]
   2b0d8:	a80d      	add	r0, sp, #52	@ 0x34
   2b0da:	7806      	ldrb	r6, [r0, #0]
   2b0dc:	a80c      	add	r0, sp, #48	@ 0x30
   2b0de:	7800      	ldrb	r0, [r0, #0]
   2b0e0:	0401      	lsls	r1, r0, #16
   2b0e2:	9605      	str	r6, [sp, #20]
   2b0e4:	9803      	ldr	r0, [sp, #12]
   2b0e6:	4240      	negs	r0, r0
   2b0e8:	9004      	str	r0, [sp, #16]
   2b0ea:	2618      	movs	r6, #24
   2b0ec:	9804      	ldr	r0, [sp, #16]
   2b0ee:	4006      	ands	r6, r0
   2b0f0:	430c      	orrs	r4, r1
   2b0f2:	9905      	ldr	r1, [sp, #20]
   2b0f4:	430c      	orrs	r4, r1
   2b0f6:	40b4      	lsls	r4, r6
   2b0f8:	9906      	ldr	r1, [sp, #24]
   2b0fa:	9803      	ldr	r0, [sp, #12]
   2b0fc:	40c1      	lsrs	r1, r0
   2b0fe:	4321      	orrs	r1, r4
   2b100:	6029      	str	r1, [r5, #0]
   2b102:	9c08      	ldr	r4, [sp, #32]
   2b104:	9e09      	ldr	r6, [sp, #36]	@ 0x24
   2b106:	e730      	b.n	2af6a <_ZN17compiler_builtins3mem6memcpy17h1f9dbb1c3fd18e2fE+0xb4>

0002b108 <__aeabi_memcpy>:
   2b108:	b580      	push	{r7, lr}
   2b10a:	af00      	add	r7, sp, #0
   2b10c:	f7ff fed3 	bl	2aeb6 <_ZN17compiler_builtins3mem6memcpy17h1f9dbb1c3fd18e2fE>
   2b110:	bd80      	pop	{r7, pc}
