
target/thumbv6m-none-eabi/opt-2/examples/complex_dynamic_type:     file format elf32-littlearm

Sections:
Idx Name          Size      VMA       LMA       File off  Algn
  0 .ARM.exidx    00000010  000100d4  000100d4  000000d4  2**2
                  CONTENTS, ALLOC, LOAD, READONLY, DATA
  1 .text         0000b02a  000200e4  000200e4  000000e4  2**2
                  CONTENTS, ALLOC, LOAD, READONLY, CODE
  2 .comment      00000099  00000000  00000000  0000b10e  2**0
                  CONTENTS, READONLY
  3 .ARM.attributes 00000032  00000000  00000000  0000b1a7  2**0
                  CONTENTS, READONLY

Disassembly of section .text:

000200e4 <_ZN20complex_dynamic_type3app17h09a615765a9eabb6E>:
   200e4:	b5f0      	push	{r4, r5, r6, r7, lr}
   200e6:	af03      	add	r7, sp, #12
   200e8:	b0a3      	sub	sp, #140	@ 0x8c
   200ea:	9003      	str	r0, [sp, #12]
   200ec:	a804      	add	r0, sp, #16
   200ee:	2402      	movs	r4, #2
   200f0:	7004      	strb	r4, [r0, #0]
   200f2:	1c46      	adds	r6, r0, #1
   200f4:	223c      	movs	r2, #60	@ 0x3c
   200f6:	9202      	str	r2, [sp, #8]
   200f8:	4630      	mov	r0, r6
   200fa:	f00b f803 	bl	2b104 <__aeabi_memcpy>
   200fe:	ad14      	add	r5, sp, #80	@ 0x50
   20100:	1c68      	adds	r0, r5, #1
   20102:	2138      	movs	r1, #56	@ 0x38
   20104:	9001      	str	r0, [sp, #4]
   20106:	f00a fe3d 	bl	2ad84 <__aeabi_memclr>
   2010a:	9400      	str	r4, [sp, #0]
   2010c:	702c      	strb	r4, [r5, #0]
   2010e:	4848      	ldr	r0, [pc, #288]	@ (20230 <_ZN20complex_dynamic_type3app17h09a615765a9eabb6E+0x14c>)
   20110:	2103      	movs	r1, #3
   20112:	4632      	mov	r2, r6
   20114:	9b02      	ldr	r3, [sp, #8]
   20116:	df04      	svc	4
   20118:	2802      	cmp	r0, #2
   2011a:	d104      	bne.n	20126 <_ZN20complex_dynamic_type3app17h09a615765a9eabb6E+0x42>
   2011c:	2001      	movs	r0, #1
   2011e:	9a03      	ldr	r2, [sp, #12]
   20120:	7010      	strb	r0, [r2, #0]
   20122:	6051      	str	r1, [r2, #4]
   20124:	e02c      	b.n	20180 <_ZN20complex_dynamic_type3app17h09a615765a9eabb6E+0x9c>
   20126:	9d03      	ldr	r5, [sp, #12]
   20128:	a804      	add	r0, sp, #16
   2012a:	2104      	movs	r1, #4
   2012c:	7001      	strb	r1, [r0, #0]
   2012e:	4840      	ldr	r0, [pc, #256]	@ (20230 <_ZN20complex_dynamic_type3app17h09a615765a9eabb6E+0x14c>)
   20130:	2403      	movs	r4, #3
   20132:	2338      	movs	r3, #56	@ 0x38
   20134:	4621      	mov	r1, r4
   20136:	9a01      	ldr	r2, [sp, #4]
   20138:	df03      	svc	3
   2013a:	2802      	cmp	r0, #2
   2013c:	d10e      	bne.n	2015c <_ZN20complex_dynamic_type3app17h09a615765a9eabb6E+0x78>
   2013e:	2001      	movs	r0, #1
   20140:	7028      	strb	r0, [r5, #0]
   20142:	6069      	str	r1, [r5, #4]
   20144:	a814      	add	r0, sp, #80	@ 0x50
   20146:	7800      	ldrb	r0, [r0, #0]
   20148:	2802      	cmp	r0, #2
   2014a:	d019      	beq.n	20180 <_ZN20complex_dynamic_type3app17h09a615765a9eabb6E+0x9c>
   2014c:	2803      	cmp	r0, #3
   2014e:	d012      	beq.n	20176 <_ZN20complex_dynamic_type3app17h09a615765a9eabb6E+0x92>
   20150:	4837      	ldr	r0, [pc, #220]	@ (20230 <_ZN20complex_dynamic_type3app17h09a615765a9eabb6E+0x14c>)
   20152:	2103      	movs	r1, #3
   20154:	2200      	movs	r2, #0
   20156:	4613      	mov	r3, r2
   20158:	df04      	svc	4
   2015a:	e011      	b.n	20180 <_ZN20complex_dynamic_type3app17h09a615765a9eabb6E+0x9c>
   2015c:	a814      	add	r0, sp, #80	@ 0x50
   2015e:	7004      	strb	r4, [r0, #0]
   20160:	4833      	ldr	r0, [pc, #204]	@ (20230 <_ZN20complex_dynamic_type3app17h09a615765a9eabb6E+0x14c>)
   20162:	2600      	movs	r6, #0
   20164:	4621      	mov	r1, r4
   20166:	4622      	mov	r2, r4
   20168:	4633      	mov	r3, r6
   2016a:	df02      	svc	2
   2016c:	2880      	cmp	r0, #128	@ 0x80
   2016e:	d21b      	bcs.n	201a8 <_ZN20complex_dynamic_type3app17h09a615765a9eabb6E+0xc4>
   20170:	2001      	movs	r0, #1
   20172:	7028      	strb	r0, [r5, #0]
   20174:	6069      	str	r1, [r5, #4]
   20176:	482e      	ldr	r0, [pc, #184]	@ (20230 <_ZN20complex_dynamic_type3app17h09a615765a9eabb6E+0x14c>)
   20178:	2103      	movs	r1, #3
   2017a:	2200      	movs	r2, #0
   2017c:	4613      	mov	r3, r2
   2017e:	df03      	svc	3
   20180:	a804      	add	r0, sp, #16
   20182:	7800      	ldrb	r0, [r0, #0]
   20184:	2802      	cmp	r0, #2
   20186:	d045      	beq.n	20214 <_ZN20complex_dynamic_type3app17h09a615765a9eabb6E+0x130>
   20188:	2804      	cmp	r0, #4
   2018a:	d106      	bne.n	2019a <_ZN20complex_dynamic_type3app17h09a615765a9eabb6E+0xb6>
   2018c:	4828      	ldr	r0, [pc, #160]	@ (20230 <_ZN20complex_dynamic_type3app17h09a615765a9eabb6E+0x14c>)
   2018e:	2103      	movs	r1, #3
   20190:	2200      	movs	r2, #0
   20192:	4613      	mov	r3, r2
   20194:	df04      	svc	4
   20196:	b023      	add	sp, #140	@ 0x8c
   20198:	bdf0      	pop	{r4, r5, r6, r7, pc}
   2019a:	4825      	ldr	r0, [pc, #148]	@ (20230 <_ZN20complex_dynamic_type3app17h09a615765a9eabb6E+0x14c>)
   2019c:	2103      	movs	r1, #3
   2019e:	2200      	movs	r2, #0
   201a0:	4613      	mov	r3, r2
   201a2:	df03      	svc	3
   201a4:	b023      	add	sp, #140	@ 0x8c
   201a6:	bdf0      	pop	{r4, r5, r6, r7, pc}
   201a8:	a804      	add	r0, sp, #16
   201aa:	7800      	ldrb	r0, [r0, #0]
   201ac:	2802      	cmp	r0, #2
   201ae:	d00c      	beq.n	201ca <_ZN20complex_dynamic_type3app17h09a615765a9eabb6E+0xe6>
   201b0:	2803      	cmp	r0, #3
   201b2:	d105      	bne.n	201c0 <_ZN20complex_dynamic_type3app17h09a615765a9eabb6E+0xdc>
   201b4:	481e      	ldr	r0, [pc, #120]	@ (20230 <_ZN20complex_dynamic_type3app17h09a615765a9eabb6E+0x14c>)
   201b6:	2103      	movs	r1, #3
   201b8:	2200      	movs	r2, #0
   201ba:	4613      	mov	r3, r2
   201bc:	df03      	svc	3
   201be:	e004      	b.n	201ca <_ZN20complex_dynamic_type3app17h09a615765a9eabb6E+0xe6>
   201c0:	481b      	ldr	r0, [pc, #108]	@ (20230 <_ZN20complex_dynamic_type3app17h09a615765a9eabb6E+0x14c>)
   201c2:	2103      	movs	r1, #3
   201c4:	2200      	movs	r2, #0
   201c6:	4613      	mov	r3, r2
   201c8:	df04      	svc	4
   201ca:	a804      	add	r0, sp, #16
   201cc:	9900      	ldr	r1, [sp, #0]
   201ce:	7001      	strb	r1, [r0, #0]
   201d0:	a814      	add	r0, sp, #80	@ 0x50
   201d2:	7800      	ldrb	r0, [r0, #0]
   201d4:	2804      	cmp	r0, #4
   201d6:	d007      	beq.n	201e8 <_ZN20complex_dynamic_type3app17h09a615765a9eabb6E+0x104>
   201d8:	2803      	cmp	r0, #3
   201da:	d11d      	bne.n	20218 <_ZN20complex_dynamic_type3app17h09a615765a9eabb6E+0x134>
   201dc:	4814      	ldr	r0, [pc, #80]	@ (20230 <_ZN20complex_dynamic_type3app17h09a615765a9eabb6E+0x14c>)
   201de:	2103      	movs	r1, #3
   201e0:	2200      	movs	r2, #0
   201e2:	4613      	mov	r3, r2
   201e4:	df03      	svc	3
   201e6:	e004      	b.n	201f2 <_ZN20complex_dynamic_type3app17h09a615765a9eabb6E+0x10e>
   201e8:	4811      	ldr	r0, [pc, #68]	@ (20230 <_ZN20complex_dynamic_type3app17h09a615765a9eabb6E+0x14c>)
   201ea:	2103      	movs	r1, #3
   201ec:	2200      	movs	r2, #0
   201ee:	4613      	mov	r3, r2
   201f0:	df04      	svc	4
   201f2:	a804      	add	r0, sp, #16
   201f4:	7804      	ldrb	r4, [r0, #0]
   201f6:	1c68      	adds	r0, r5, #1
   201f8:	2238      	movs	r2, #56	@ 0x38
   201fa:	9901      	ldr	r1, [sp, #4]
   201fc:	f00a ff82 	bl	2b104 <__aeabi_memcpy>
   20200:	702e      	strb	r6, [r5, #0]
   20202:	2c02      	cmp	r4, #2
   20204:	d006      	beq.n	20214 <_ZN20complex_dynamic_type3app17h09a615765a9eabb6E+0x130>
   20206:	480a      	ldr	r0, [pc, #40]	@ (20230 <_ZN20complex_dynamic_type3app17h09a615765a9eabb6E+0x14c>)
   20208:	2103      	movs	r1, #3
   2020a:	2200      	movs	r2, #0
   2020c:	4613      	mov	r3, r2
   2020e:	2c04      	cmp	r4, #4
   20210:	d10a      	bne.n	20228 <_ZN20complex_dynamic_type3app17h09a615765a9eabb6E+0x144>
   20212:	df04      	svc	4
   20214:	b023      	add	sp, #140	@ 0x8c
   20216:	bdf0      	pop	{r4, r5, r6, r7, pc}
   20218:	1c68      	adds	r0, r5, #1
   2021a:	2238      	movs	r2, #56	@ 0x38
   2021c:	9901      	ldr	r1, [sp, #4]
   2021e:	f00a ff71 	bl	2b104 <__aeabi_memcpy>
   20222:	702e      	strb	r6, [r5, #0]
   20224:	b023      	add	sp, #140	@ 0x8c
   20226:	bdf0      	pop	{r4, r5, r6, r7, pc}
   20228:	df03      	svc	3
   2022a:	b023      	add	sp, #140	@ 0x8c
   2022c:	bdf0      	pop	{r4, r5, r6, r7, pc}
   2022e:	46c0      	nop			@ (mov r8, r8)
   20230:	00001d19 	.word	0x00001d19

00020234 <_ZN20complex_dynamic_type3app17h0a1cf1e8dc559fccE>:
   20234:	b5f0      	push	{r4, r5, r6, r7, lr}
   20236:	af03      	add	r7, sp, #12
   20238:	b0a7      	sub	sp, #156	@ 0x9c
   2023a:	9002      	str	r0, [sp, #8]
   2023c:	a803      	add	r0, sp, #12
   2023e:	2502      	movs	r5, #2
   20240:	7005      	strb	r5, [r0, #0]
   20242:	1c46      	adds	r6, r0, #1
   20244:	222f      	movs	r2, #47	@ 0x2f
   20246:	9201      	str	r2, [sp, #4]
   20248:	4630      	mov	r0, r6
   2024a:	f00a ff5b 	bl	2b104 <__aeabi_memcpy>
   2024e:	ac0f      	add	r4, sp, #60	@ 0x3c
   20250:	1c60      	adds	r0, r4, #1
   20252:	215e      	movs	r1, #94	@ 0x5e
   20254:	9000      	str	r0, [sp, #0]
   20256:	f00a fd95 	bl	2ad84 <__aeabi_memclr>
   2025a:	7025      	strb	r5, [r4, #0]
   2025c:	484a      	ldr	r0, [pc, #296]	@ (20388 <_ZN20complex_dynamic_type3app17h0a1cf1e8dc559fccE+0x154>)
   2025e:	2105      	movs	r1, #5
   20260:	4632      	mov	r2, r6
   20262:	9b01      	ldr	r3, [sp, #4]
   20264:	df04      	svc	4
   20266:	2802      	cmp	r0, #2
   20268:	d104      	bne.n	20274 <_ZN20complex_dynamic_type3app17h0a1cf1e8dc559fccE+0x40>
   2026a:	2001      	movs	r0, #1
   2026c:	9a02      	ldr	r2, [sp, #8]
   2026e:	7010      	strb	r0, [r2, #0]
   20270:	6051      	str	r1, [r2, #4]
   20272:	e02e      	b.n	202d2 <_ZN20complex_dynamic_type3app17h0a1cf1e8dc559fccE+0x9e>
   20274:	9d02      	ldr	r5, [sp, #8]
   20276:	a803      	add	r0, sp, #12
   20278:	2104      	movs	r1, #4
   2027a:	7001      	strb	r1, [r0, #0]
   2027c:	4842      	ldr	r0, [pc, #264]	@ (20388 <_ZN20complex_dynamic_type3app17h0a1cf1e8dc559fccE+0x154>)
   2027e:	2102      	movs	r1, #2
   20280:	235e      	movs	r3, #94	@ 0x5e
   20282:	9c00      	ldr	r4, [sp, #0]
   20284:	4622      	mov	r2, r4
   20286:	df03      	svc	3
   20288:	2802      	cmp	r0, #2
   2028a:	d10e      	bne.n	202aa <_ZN20complex_dynamic_type3app17h0a1cf1e8dc559fccE+0x76>
   2028c:	2001      	movs	r0, #1
   2028e:	7028      	strb	r0, [r5, #0]
   20290:	6069      	str	r1, [r5, #4]
   20292:	a80f      	add	r0, sp, #60	@ 0x3c
   20294:	7800      	ldrb	r0, [r0, #0]
   20296:	2802      	cmp	r0, #2
   20298:	d01b      	beq.n	202d2 <_ZN20complex_dynamic_type3app17h0a1cf1e8dc559fccE+0x9e>
   2029a:	2803      	cmp	r0, #3
   2029c:	d014      	beq.n	202c8 <_ZN20complex_dynamic_type3app17h0a1cf1e8dc559fccE+0x94>
   2029e:	483a      	ldr	r0, [pc, #232]	@ (20388 <_ZN20complex_dynamic_type3app17h0a1cf1e8dc559fccE+0x154>)
   202a0:	2102      	movs	r1, #2
   202a2:	2200      	movs	r2, #0
   202a4:	4613      	mov	r3, r2
   202a6:	df04      	svc	4
   202a8:	e013      	b.n	202d2 <_ZN20complex_dynamic_type3app17h0a1cf1e8dc559fccE+0x9e>
   202aa:	a80f      	add	r0, sp, #60	@ 0x3c
   202ac:	2103      	movs	r1, #3
   202ae:	7001      	strb	r1, [r0, #0]
   202b0:	4835      	ldr	r0, [pc, #212]	@ (20388 <_ZN20complex_dynamic_type3app17h0a1cf1e8dc559fccE+0x154>)
   202b2:	2105      	movs	r1, #5
   202b4:	2602      	movs	r6, #2
   202b6:	2300      	movs	r3, #0
   202b8:	4632      	mov	r2, r6
   202ba:	9301      	str	r3, [sp, #4]
   202bc:	df02      	svc	2
   202be:	2880      	cmp	r0, #128	@ 0x80
   202c0:	d21b      	bcs.n	202fa <_ZN20complex_dynamic_type3app17h0a1cf1e8dc559fccE+0xc6>
   202c2:	2001      	movs	r0, #1
   202c4:	7028      	strb	r0, [r5, #0]
   202c6:	6069      	str	r1, [r5, #4]
   202c8:	482f      	ldr	r0, [pc, #188]	@ (20388 <_ZN20complex_dynamic_type3app17h0a1cf1e8dc559fccE+0x154>)
   202ca:	2102      	movs	r1, #2
   202cc:	2200      	movs	r2, #0
   202ce:	4613      	mov	r3, r2
   202d0:	df03      	svc	3
   202d2:	a803      	add	r0, sp, #12
   202d4:	7800      	ldrb	r0, [r0, #0]
   202d6:	2802      	cmp	r0, #2
   202d8:	d047      	beq.n	2036a <_ZN20complex_dynamic_type3app17h0a1cf1e8dc559fccE+0x136>
   202da:	2804      	cmp	r0, #4
   202dc:	d106      	bne.n	202ec <_ZN20complex_dynamic_type3app17h0a1cf1e8dc559fccE+0xb8>
   202de:	482a      	ldr	r0, [pc, #168]	@ (20388 <_ZN20complex_dynamic_type3app17h0a1cf1e8dc559fccE+0x154>)
   202e0:	2105      	movs	r1, #5
   202e2:	2200      	movs	r2, #0
   202e4:	4613      	mov	r3, r2
   202e6:	df04      	svc	4
   202e8:	b027      	add	sp, #156	@ 0x9c
   202ea:	bdf0      	pop	{r4, r5, r6, r7, pc}
   202ec:	4826      	ldr	r0, [pc, #152]	@ (20388 <_ZN20complex_dynamic_type3app17h0a1cf1e8dc559fccE+0x154>)
   202ee:	2105      	movs	r1, #5
   202f0:	2200      	movs	r2, #0
   202f2:	4613      	mov	r3, r2
   202f4:	df03      	svc	3
   202f6:	b027      	add	sp, #156	@ 0x9c
   202f8:	bdf0      	pop	{r4, r5, r6, r7, pc}
   202fa:	a803      	add	r0, sp, #12
   202fc:	7800      	ldrb	r0, [r0, #0]
   202fe:	2802      	cmp	r0, #2
   20300:	d00c      	beq.n	2031c <_ZN20complex_dynamic_type3app17h0a1cf1e8dc559fccE+0xe8>
   20302:	2803      	cmp	r0, #3
   20304:	d105      	bne.n	20312 <_ZN20complex_dynamic_type3app17h0a1cf1e8dc559fccE+0xde>
   20306:	4820      	ldr	r0, [pc, #128]	@ (20388 <_ZN20complex_dynamic_type3app17h0a1cf1e8dc559fccE+0x154>)
   20308:	2105      	movs	r1, #5
   2030a:	2200      	movs	r2, #0
   2030c:	4613      	mov	r3, r2
   2030e:	df03      	svc	3
   20310:	e004      	b.n	2031c <_ZN20complex_dynamic_type3app17h0a1cf1e8dc559fccE+0xe8>
   20312:	481d      	ldr	r0, [pc, #116]	@ (20388 <_ZN20complex_dynamic_type3app17h0a1cf1e8dc559fccE+0x154>)
   20314:	2105      	movs	r1, #5
   20316:	2200      	movs	r2, #0
   20318:	4613      	mov	r3, r2
   2031a:	df04      	svc	4
   2031c:	a803      	add	r0, sp, #12
   2031e:	7006      	strb	r6, [r0, #0]
   20320:	a80f      	add	r0, sp, #60	@ 0x3c
   20322:	7800      	ldrb	r0, [r0, #0]
   20324:	2804      	cmp	r0, #4
   20326:	d008      	beq.n	2033a <_ZN20complex_dynamic_type3app17h0a1cf1e8dc559fccE+0x106>
   20328:	2803      	cmp	r0, #3
   2032a:	d120      	bne.n	2036e <_ZN20complex_dynamic_type3app17h0a1cf1e8dc559fccE+0x13a>
   2032c:	4626      	mov	r6, r4
   2032e:	4816      	ldr	r0, [pc, #88]	@ (20388 <_ZN20complex_dynamic_type3app17h0a1cf1e8dc559fccE+0x154>)
   20330:	2102      	movs	r1, #2
   20332:	2200      	movs	r2, #0
   20334:	4613      	mov	r3, r2
   20336:	df03      	svc	3
   20338:	e005      	b.n	20346 <_ZN20complex_dynamic_type3app17h0a1cf1e8dc559fccE+0x112>
   2033a:	4626      	mov	r6, r4
   2033c:	4812      	ldr	r0, [pc, #72]	@ (20388 <_ZN20complex_dynamic_type3app17h0a1cf1e8dc559fccE+0x154>)
   2033e:	2102      	movs	r1, #2
   20340:	2200      	movs	r2, #0
   20342:	4613      	mov	r3, r2
   20344:	df04      	svc	4
   20346:	a803      	add	r0, sp, #12
   20348:	7804      	ldrb	r4, [r0, #0]
   2034a:	1c68      	adds	r0, r5, #1
   2034c:	225e      	movs	r2, #94	@ 0x5e
   2034e:	4631      	mov	r1, r6
   20350:	f00a fed8 	bl	2b104 <__aeabi_memcpy>
   20354:	9801      	ldr	r0, [sp, #4]
   20356:	7028      	strb	r0, [r5, #0]
   20358:	2c02      	cmp	r4, #2
   2035a:	d006      	beq.n	2036a <_ZN20complex_dynamic_type3app17h0a1cf1e8dc559fccE+0x136>
   2035c:	480a      	ldr	r0, [pc, #40]	@ (20388 <_ZN20complex_dynamic_type3app17h0a1cf1e8dc559fccE+0x154>)
   2035e:	2105      	movs	r1, #5
   20360:	2200      	movs	r2, #0
   20362:	4613      	mov	r3, r2
   20364:	2c04      	cmp	r4, #4
   20366:	d10b      	bne.n	20380 <_ZN20complex_dynamic_type3app17h0a1cf1e8dc559fccE+0x14c>
   20368:	df04      	svc	4
   2036a:	b027      	add	sp, #156	@ 0x9c
   2036c:	bdf0      	pop	{r4, r5, r6, r7, pc}
   2036e:	1c68      	adds	r0, r5, #1
   20370:	225e      	movs	r2, #94	@ 0x5e
   20372:	4621      	mov	r1, r4
   20374:	f00a fec6 	bl	2b104 <__aeabi_memcpy>
   20378:	9801      	ldr	r0, [sp, #4]
   2037a:	7028      	strb	r0, [r5, #0]
   2037c:	b027      	add	sp, #156	@ 0x9c
   2037e:	bdf0      	pop	{r4, r5, r6, r7, pc}
   20380:	df03      	svc	3
   20382:	b027      	add	sp, #156	@ 0x9c
   20384:	bdf0      	pop	{r4, r5, r6, r7, pc}
   20386:	46c0      	nop			@ (mov r8, r8)
   20388:	0000022b 	.word	0x0000022b

0002038c <_ZN20complex_dynamic_type3app17h0d3a0af7d9cdc897E>:
   2038c:	b5f0      	push	{r4, r5, r6, r7, lr}
   2038e:	af03      	add	r7, sp, #12
   20390:	b09f      	sub	sp, #124	@ 0x7c
   20392:	9002      	str	r0, [sp, #8]
   20394:	a803      	add	r0, sp, #12
   20396:	2502      	movs	r5, #2
   20398:	7005      	strb	r5, [r0, #0]
   2039a:	1c46      	adds	r6, r0, #1
   2039c:	2236      	movs	r2, #54	@ 0x36
   2039e:	9201      	str	r2, [sp, #4]
   203a0:	4630      	mov	r0, r6
   203a2:	f00a feaf 	bl	2b104 <__aeabi_memcpy>
   203a6:	ac11      	add	r4, sp, #68	@ 0x44
   203a8:	1c60      	adds	r0, r4, #1
   203aa:	2134      	movs	r1, #52	@ 0x34
   203ac:	9000      	str	r0, [sp, #0]
   203ae:	f00a fce9 	bl	2ad84 <__aeabi_memclr>
   203b2:	7025      	strb	r5, [r4, #0]
   203b4:	4849      	ldr	r0, [pc, #292]	@ (204dc <_ZN20complex_dynamic_type3app17h0d3a0af7d9cdc897E+0x150>)
   203b6:	2504      	movs	r5, #4
   203b8:	4629      	mov	r1, r5
   203ba:	4632      	mov	r2, r6
   203bc:	9b01      	ldr	r3, [sp, #4]
   203be:	df04      	svc	4
   203c0:	2802      	cmp	r0, #2
   203c2:	d104      	bne.n	203ce <_ZN20complex_dynamic_type3app17h0d3a0af7d9cdc897E+0x42>
   203c4:	2001      	movs	r0, #1
   203c6:	9a02      	ldr	r2, [sp, #8]
   203c8:	7010      	strb	r0, [r2, #0]
   203ca:	6051      	str	r1, [r2, #4]
   203cc:	e02d      	b.n	2042a <_ZN20complex_dynamic_type3app17h0d3a0af7d9cdc897E+0x9e>
   203ce:	9c02      	ldr	r4, [sp, #8]
   203d0:	a803      	add	r0, sp, #12
   203d2:	7005      	strb	r5, [r0, #0]
   203d4:	4841      	ldr	r0, [pc, #260]	@ (204dc <_ZN20complex_dynamic_type3app17h0d3a0af7d9cdc897E+0x150>)
   203d6:	2102      	movs	r1, #2
   203d8:	2334      	movs	r3, #52	@ 0x34
   203da:	9a00      	ldr	r2, [sp, #0]
   203dc:	df03      	svc	3
   203de:	2802      	cmp	r0, #2
   203e0:	d10e      	bne.n	20400 <_ZN20complex_dynamic_type3app17h0d3a0af7d9cdc897E+0x74>
   203e2:	2001      	movs	r0, #1
   203e4:	7020      	strb	r0, [r4, #0]
   203e6:	6061      	str	r1, [r4, #4]
   203e8:	a811      	add	r0, sp, #68	@ 0x44
   203ea:	7800      	ldrb	r0, [r0, #0]
   203ec:	2802      	cmp	r0, #2
   203ee:	d01c      	beq.n	2042a <_ZN20complex_dynamic_type3app17h0d3a0af7d9cdc897E+0x9e>
   203f0:	2803      	cmp	r0, #3
   203f2:	d015      	beq.n	20420 <_ZN20complex_dynamic_type3app17h0d3a0af7d9cdc897E+0x94>
   203f4:	4839      	ldr	r0, [pc, #228]	@ (204dc <_ZN20complex_dynamic_type3app17h0d3a0af7d9cdc897E+0x150>)
   203f6:	2102      	movs	r1, #2
   203f8:	2200      	movs	r2, #0
   203fa:	4613      	mov	r3, r2
   203fc:	df04      	svc	4
   203fe:	e014      	b.n	2042a <_ZN20complex_dynamic_type3app17h0d3a0af7d9cdc897E+0x9e>
   20400:	a811      	add	r0, sp, #68	@ 0x44
   20402:	2103      	movs	r1, #3
   20404:	7001      	strb	r1, [r0, #0]
   20406:	4835      	ldr	r0, [pc, #212]	@ (204dc <_ZN20complex_dynamic_type3app17h0d3a0af7d9cdc897E+0x150>)
   20408:	2104      	movs	r1, #4
   2040a:	2602      	movs	r6, #2
   2040c:	2300      	movs	r3, #0
   2040e:	4632      	mov	r2, r6
   20410:	9301      	str	r3, [sp, #4]
   20412:	df02      	svc	2
   20414:	2880      	cmp	r0, #128	@ 0x80
   20416:	4625      	mov	r5, r4
   20418:	d21b      	bcs.n	20452 <_ZN20complex_dynamic_type3app17h0d3a0af7d9cdc897E+0xc6>
   2041a:	2001      	movs	r0, #1
   2041c:	7028      	strb	r0, [r5, #0]
   2041e:	6069      	str	r1, [r5, #4]
   20420:	482e      	ldr	r0, [pc, #184]	@ (204dc <_ZN20complex_dynamic_type3app17h0d3a0af7d9cdc897E+0x150>)
   20422:	2102      	movs	r1, #2
   20424:	2200      	movs	r2, #0
   20426:	4613      	mov	r3, r2
   20428:	df03      	svc	3
   2042a:	a803      	add	r0, sp, #12
   2042c:	7800      	ldrb	r0, [r0, #0]
   2042e:	2802      	cmp	r0, #2
   20430:	d045      	beq.n	204be <_ZN20complex_dynamic_type3app17h0d3a0af7d9cdc897E+0x132>
   20432:	2804      	cmp	r0, #4
   20434:	d106      	bne.n	20444 <_ZN20complex_dynamic_type3app17h0d3a0af7d9cdc897E+0xb8>
   20436:	4829      	ldr	r0, [pc, #164]	@ (204dc <_ZN20complex_dynamic_type3app17h0d3a0af7d9cdc897E+0x150>)
   20438:	2104      	movs	r1, #4
   2043a:	2200      	movs	r2, #0
   2043c:	4613      	mov	r3, r2
   2043e:	df04      	svc	4
   20440:	b01f      	add	sp, #124	@ 0x7c
   20442:	bdf0      	pop	{r4, r5, r6, r7, pc}
   20444:	4825      	ldr	r0, [pc, #148]	@ (204dc <_ZN20complex_dynamic_type3app17h0d3a0af7d9cdc897E+0x150>)
   20446:	2104      	movs	r1, #4
   20448:	2200      	movs	r2, #0
   2044a:	4613      	mov	r3, r2
   2044c:	df03      	svc	3
   2044e:	b01f      	add	sp, #124	@ 0x7c
   20450:	bdf0      	pop	{r4, r5, r6, r7, pc}
   20452:	a803      	add	r0, sp, #12
   20454:	7800      	ldrb	r0, [r0, #0]
   20456:	2802      	cmp	r0, #2
   20458:	d00c      	beq.n	20474 <_ZN20complex_dynamic_type3app17h0d3a0af7d9cdc897E+0xe8>
   2045a:	2803      	cmp	r0, #3
   2045c:	d105      	bne.n	2046a <_ZN20complex_dynamic_type3app17h0d3a0af7d9cdc897E+0xde>
   2045e:	481f      	ldr	r0, [pc, #124]	@ (204dc <_ZN20complex_dynamic_type3app17h0d3a0af7d9cdc897E+0x150>)
   20460:	2104      	movs	r1, #4
   20462:	2200      	movs	r2, #0
   20464:	4613      	mov	r3, r2
   20466:	df03      	svc	3
   20468:	e004      	b.n	20474 <_ZN20complex_dynamic_type3app17h0d3a0af7d9cdc897E+0xe8>
   2046a:	481c      	ldr	r0, [pc, #112]	@ (204dc <_ZN20complex_dynamic_type3app17h0d3a0af7d9cdc897E+0x150>)
   2046c:	2104      	movs	r1, #4
   2046e:	2200      	movs	r2, #0
   20470:	4613      	mov	r3, r2
   20472:	df04      	svc	4
   20474:	a803      	add	r0, sp, #12
   20476:	7006      	strb	r6, [r0, #0]
   20478:	a811      	add	r0, sp, #68	@ 0x44
   2047a:	7800      	ldrb	r0, [r0, #0]
   2047c:	2804      	cmp	r0, #4
   2047e:	d007      	beq.n	20490 <_ZN20complex_dynamic_type3app17h0d3a0af7d9cdc897E+0x104>
   20480:	2803      	cmp	r0, #3
   20482:	d11e      	bne.n	204c2 <_ZN20complex_dynamic_type3app17h0d3a0af7d9cdc897E+0x136>
   20484:	4815      	ldr	r0, [pc, #84]	@ (204dc <_ZN20complex_dynamic_type3app17h0d3a0af7d9cdc897E+0x150>)
   20486:	2102      	movs	r1, #2
   20488:	2200      	movs	r2, #0
   2048a:	4613      	mov	r3, r2
   2048c:	df03      	svc	3
   2048e:	e004      	b.n	2049a <_ZN20complex_dynamic_type3app17h0d3a0af7d9cdc897E+0x10e>
   20490:	4812      	ldr	r0, [pc, #72]	@ (204dc <_ZN20complex_dynamic_type3app17h0d3a0af7d9cdc897E+0x150>)
   20492:	2102      	movs	r1, #2
   20494:	2200      	movs	r2, #0
   20496:	4613      	mov	r3, r2
   20498:	df04      	svc	4
   2049a:	a803      	add	r0, sp, #12
   2049c:	7804      	ldrb	r4, [r0, #0]
   2049e:	1c68      	adds	r0, r5, #1
   204a0:	2234      	movs	r2, #52	@ 0x34
   204a2:	9900      	ldr	r1, [sp, #0]
   204a4:	f00a fe2e 	bl	2b104 <__aeabi_memcpy>
   204a8:	9801      	ldr	r0, [sp, #4]
   204aa:	7028      	strb	r0, [r5, #0]
   204ac:	2c02      	cmp	r4, #2
   204ae:	d006      	beq.n	204be <_ZN20complex_dynamic_type3app17h0d3a0af7d9cdc897E+0x132>
   204b0:	480a      	ldr	r0, [pc, #40]	@ (204dc <_ZN20complex_dynamic_type3app17h0d3a0af7d9cdc897E+0x150>)
   204b2:	2104      	movs	r1, #4
   204b4:	2200      	movs	r2, #0
   204b6:	4613      	mov	r3, r2
   204b8:	2c04      	cmp	r4, #4
   204ba:	d10b      	bne.n	204d4 <_ZN20complex_dynamic_type3app17h0d3a0af7d9cdc897E+0x148>
   204bc:	df04      	svc	4
   204be:	b01f      	add	sp, #124	@ 0x7c
   204c0:	bdf0      	pop	{r4, r5, r6, r7, pc}
   204c2:	1c68      	adds	r0, r5, #1
   204c4:	2234      	movs	r2, #52	@ 0x34
   204c6:	9900      	ldr	r1, [sp, #0]
   204c8:	f00a fe1c 	bl	2b104 <__aeabi_memcpy>
   204cc:	9801      	ldr	r0, [sp, #4]
   204ce:	7028      	strb	r0, [r5, #0]
   204d0:	b01f      	add	sp, #124	@ 0x7c
   204d2:	bdf0      	pop	{r4, r5, r6, r7, pc}
   204d4:	df03      	svc	3
   204d6:	b01f      	add	sp, #124	@ 0x7c
   204d8:	bdf0      	pop	{r4, r5, r6, r7, pc}
   204da:	46c0      	nop			@ (mov r8, r8)
   204dc:	000023c6 	.word	0x000023c6

000204e0 <_ZN20complex_dynamic_type3app17h0dbe4a43c674bfb3E>:
   204e0:	b5f0      	push	{r4, r5, r6, r7, lr}
   204e2:	af03      	add	r7, sp, #12
   204e4:	b09d      	sub	sp, #116	@ 0x74
   204e6:	9004      	str	r0, [sp, #16]
   204e8:	a805      	add	r0, sp, #20
   204ea:	2402      	movs	r4, #2
   204ec:	7004      	strb	r4, [r0, #0]
   204ee:	1c40      	adds	r0, r0, #1
   204f0:	9003      	str	r0, [sp, #12]
   204f2:	2541      	movs	r5, #65	@ 0x41
   204f4:	462a      	mov	r2, r5
   204f6:	f00a fe05 	bl	2b104 <__aeabi_memcpy>
   204fa:	ae16      	add	r6, sp, #88	@ 0x58
   204fc:	1c70      	adds	r0, r6, #1
   204fe:	2118      	movs	r1, #24
   20500:	9002      	str	r0, [sp, #8]
   20502:	f00a fc3f 	bl	2ad84 <__aeabi_memclr>
   20506:	9401      	str	r4, [sp, #4]
   20508:	7034      	strb	r4, [r6, #0]
   2050a:	4847      	ldr	r0, [pc, #284]	@ (20628 <_ZN20complex_dynamic_type3app17h0dbe4a43c674bfb3E+0x148>)
   2050c:	2601      	movs	r6, #1
   2050e:	4631      	mov	r1, r6
   20510:	9a03      	ldr	r2, [sp, #12]
   20512:	462b      	mov	r3, r5
   20514:	df04      	svc	4
   20516:	2802      	cmp	r0, #2
   20518:	d103      	bne.n	20522 <_ZN20complex_dynamic_type3app17h0dbe4a43c674bfb3E+0x42>
   2051a:	9804      	ldr	r0, [sp, #16]
   2051c:	7006      	strb	r6, [r0, #0]
   2051e:	6041      	str	r1, [r0, #4]
   20520:	e02b      	b.n	2057a <_ZN20complex_dynamic_type3app17h0dbe4a43c674bfb3E+0x9a>
   20522:	9d04      	ldr	r5, [sp, #16]
   20524:	a805      	add	r0, sp, #20
   20526:	2104      	movs	r1, #4
   20528:	7001      	strb	r1, [r0, #0]
   2052a:	483f      	ldr	r0, [pc, #252]	@ (20628 <_ZN20complex_dynamic_type3app17h0dbe4a43c674bfb3E+0x148>)
   2052c:	2109      	movs	r1, #9
   2052e:	2318      	movs	r3, #24
   20530:	9a02      	ldr	r2, [sp, #8]
   20532:	df03      	svc	3
   20534:	2802      	cmp	r0, #2
   20536:	d10d      	bne.n	20554 <_ZN20complex_dynamic_type3app17h0dbe4a43c674bfb3E+0x74>
   20538:	702e      	strb	r6, [r5, #0]
   2053a:	6069      	str	r1, [r5, #4]
   2053c:	a816      	add	r0, sp, #88	@ 0x58
   2053e:	7800      	ldrb	r0, [r0, #0]
   20540:	2802      	cmp	r0, #2
   20542:	d01a      	beq.n	2057a <_ZN20complex_dynamic_type3app17h0dbe4a43c674bfb3E+0x9a>
   20544:	2803      	cmp	r0, #3
   20546:	d013      	beq.n	20570 <_ZN20complex_dynamic_type3app17h0dbe4a43c674bfb3E+0x90>
   20548:	4837      	ldr	r0, [pc, #220]	@ (20628 <_ZN20complex_dynamic_type3app17h0dbe4a43c674bfb3E+0x148>)
   2054a:	2109      	movs	r1, #9
   2054c:	2200      	movs	r2, #0
   2054e:	4613      	mov	r3, r2
   20550:	df04      	svc	4
   20552:	e012      	b.n	2057a <_ZN20complex_dynamic_type3app17h0dbe4a43c674bfb3E+0x9a>
   20554:	a816      	add	r0, sp, #88	@ 0x58
   20556:	2103      	movs	r1, #3
   20558:	7001      	strb	r1, [r0, #0]
   2055a:	4833      	ldr	r0, [pc, #204]	@ (20628 <_ZN20complex_dynamic_type3app17h0dbe4a43c674bfb3E+0x148>)
   2055c:	2401      	movs	r4, #1
   2055e:	2209      	movs	r2, #9
   20560:	2600      	movs	r6, #0
   20562:	4621      	mov	r1, r4
   20564:	4633      	mov	r3, r6
   20566:	df02      	svc	2
   20568:	2880      	cmp	r0, #128	@ 0x80
   2056a:	d21a      	bcs.n	205a2 <_ZN20complex_dynamic_type3app17h0dbe4a43c674bfb3E+0xc2>
   2056c:	702c      	strb	r4, [r5, #0]
   2056e:	6069      	str	r1, [r5, #4]
   20570:	482d      	ldr	r0, [pc, #180]	@ (20628 <_ZN20complex_dynamic_type3app17h0dbe4a43c674bfb3E+0x148>)
   20572:	2109      	movs	r1, #9
   20574:	2200      	movs	r2, #0
   20576:	4613      	mov	r3, r2
   20578:	df03      	svc	3
   2057a:	a805      	add	r0, sp, #20
   2057c:	7800      	ldrb	r0, [r0, #0]
   2057e:	2802      	cmp	r0, #2
   20580:	d045      	beq.n	2060e <_ZN20complex_dynamic_type3app17h0dbe4a43c674bfb3E+0x12e>
   20582:	2804      	cmp	r0, #4
   20584:	d106      	bne.n	20594 <_ZN20complex_dynamic_type3app17h0dbe4a43c674bfb3E+0xb4>
   20586:	4828      	ldr	r0, [pc, #160]	@ (20628 <_ZN20complex_dynamic_type3app17h0dbe4a43c674bfb3E+0x148>)
   20588:	2101      	movs	r1, #1
   2058a:	2200      	movs	r2, #0
   2058c:	4613      	mov	r3, r2
   2058e:	df04      	svc	4
   20590:	b01d      	add	sp, #116	@ 0x74
   20592:	bdf0      	pop	{r4, r5, r6, r7, pc}
   20594:	4824      	ldr	r0, [pc, #144]	@ (20628 <_ZN20complex_dynamic_type3app17h0dbe4a43c674bfb3E+0x148>)
   20596:	2101      	movs	r1, #1
   20598:	2200      	movs	r2, #0
   2059a:	4613      	mov	r3, r2
   2059c:	df03      	svc	3
   2059e:	b01d      	add	sp, #116	@ 0x74
   205a0:	bdf0      	pop	{r4, r5, r6, r7, pc}
   205a2:	a805      	add	r0, sp, #20
   205a4:	7800      	ldrb	r0, [r0, #0]
   205a6:	2802      	cmp	r0, #2
   205a8:	d00c      	beq.n	205c4 <_ZN20complex_dynamic_type3app17h0dbe4a43c674bfb3E+0xe4>
   205aa:	2803      	cmp	r0, #3
   205ac:	d105      	bne.n	205ba <_ZN20complex_dynamic_type3app17h0dbe4a43c674bfb3E+0xda>
   205ae:	481e      	ldr	r0, [pc, #120]	@ (20628 <_ZN20complex_dynamic_type3app17h0dbe4a43c674bfb3E+0x148>)
   205b0:	2101      	movs	r1, #1
   205b2:	2200      	movs	r2, #0
   205b4:	4613      	mov	r3, r2
   205b6:	df03      	svc	3
   205b8:	e004      	b.n	205c4 <_ZN20complex_dynamic_type3app17h0dbe4a43c674bfb3E+0xe4>
   205ba:	481b      	ldr	r0, [pc, #108]	@ (20628 <_ZN20complex_dynamic_type3app17h0dbe4a43c674bfb3E+0x148>)
   205bc:	2101      	movs	r1, #1
   205be:	2200      	movs	r2, #0
   205c0:	4613      	mov	r3, r2
   205c2:	df04      	svc	4
   205c4:	a805      	add	r0, sp, #20
   205c6:	9901      	ldr	r1, [sp, #4]
   205c8:	7001      	strb	r1, [r0, #0]
   205ca:	a816      	add	r0, sp, #88	@ 0x58
   205cc:	7800      	ldrb	r0, [r0, #0]
   205ce:	2804      	cmp	r0, #4
   205d0:	d007      	beq.n	205e2 <_ZN20complex_dynamic_type3app17h0dbe4a43c674bfb3E+0x102>
   205d2:	2803      	cmp	r0, #3
   205d4:	d11d      	bne.n	20612 <_ZN20complex_dynamic_type3app17h0dbe4a43c674bfb3E+0x132>
   205d6:	4814      	ldr	r0, [pc, #80]	@ (20628 <_ZN20complex_dynamic_type3app17h0dbe4a43c674bfb3E+0x148>)
   205d8:	2109      	movs	r1, #9
   205da:	2200      	movs	r2, #0
   205dc:	4613      	mov	r3, r2
   205de:	df03      	svc	3
   205e0:	e004      	b.n	205ec <_ZN20complex_dynamic_type3app17h0dbe4a43c674bfb3E+0x10c>
   205e2:	4811      	ldr	r0, [pc, #68]	@ (20628 <_ZN20complex_dynamic_type3app17h0dbe4a43c674bfb3E+0x148>)
   205e4:	2109      	movs	r1, #9
   205e6:	2200      	movs	r2, #0
   205e8:	4613      	mov	r3, r2
   205ea:	df04      	svc	4
   205ec:	a805      	add	r0, sp, #20
   205ee:	7804      	ldrb	r4, [r0, #0]
   205f0:	1c68      	adds	r0, r5, #1
   205f2:	2218      	movs	r2, #24
   205f4:	9902      	ldr	r1, [sp, #8]
   205f6:	f00a fd85 	bl	2b104 <__aeabi_memcpy>
   205fa:	702e      	strb	r6, [r5, #0]
   205fc:	2c02      	cmp	r4, #2
   205fe:	d006      	beq.n	2060e <_ZN20complex_dynamic_type3app17h0dbe4a43c674bfb3E+0x12e>
   20600:	4809      	ldr	r0, [pc, #36]	@ (20628 <_ZN20complex_dynamic_type3app17h0dbe4a43c674bfb3E+0x148>)
   20602:	2101      	movs	r1, #1
   20604:	2200      	movs	r2, #0
   20606:	4613      	mov	r3, r2
   20608:	2c04      	cmp	r4, #4
   2060a:	d10a      	bne.n	20622 <_ZN20complex_dynamic_type3app17h0dbe4a43c674bfb3E+0x142>
   2060c:	df04      	svc	4
   2060e:	b01d      	add	sp, #116	@ 0x74
   20610:	bdf0      	pop	{r4, r5, r6, r7, pc}
   20612:	9902      	ldr	r1, [sp, #8]
   20614:	1c68      	adds	r0, r5, #1
   20616:	2218      	movs	r2, #24
   20618:	f00a fd74 	bl	2b104 <__aeabi_memcpy>
   2061c:	702e      	strb	r6, [r5, #0]
   2061e:	b01d      	add	sp, #116	@ 0x74
   20620:	bdf0      	pop	{r4, r5, r6, r7, pc}
   20622:	df03      	svc	3
   20624:	b01d      	add	sp, #116	@ 0x74
   20626:	bdf0      	pop	{r4, r5, r6, r7, pc}
   20628:	00002156 	.word	0x00002156

0002062c <_ZN20complex_dynamic_type3app17h0fa1d1db20662b43E>:
   2062c:	b5f0      	push	{r4, r5, r6, r7, lr}
   2062e:	af03      	add	r7, sp, #12
   20630:	b0a7      	sub	sp, #156	@ 0x9c
   20632:	9004      	str	r0, [sp, #16]
   20634:	a805      	add	r0, sp, #20
   20636:	2402      	movs	r4, #2
   20638:	7004      	strb	r4, [r0, #0]
   2063a:	1c46      	adds	r6, r0, #1
   2063c:	224f      	movs	r2, #79	@ 0x4f
   2063e:	9203      	str	r2, [sp, #12]
   20640:	4630      	mov	r0, r6
   20642:	f00a fd5f 	bl	2b104 <__aeabi_memcpy>
   20646:	ad19      	add	r5, sp, #100	@ 0x64
   20648:	1c68      	adds	r0, r5, #1
   2064a:	2135      	movs	r1, #53	@ 0x35
   2064c:	9002      	str	r0, [sp, #8]
   2064e:	f00a fb99 	bl	2ad84 <__aeabi_memclr>
   20652:	9401      	str	r4, [sp, #4]
   20654:	702c      	strb	r4, [r5, #0]
   20656:	4848      	ldr	r0, [pc, #288]	@ (20778 <_ZN20complex_dynamic_type3app17h0fa1d1db20662b43E+0x14c>)
   20658:	2107      	movs	r1, #7
   2065a:	4632      	mov	r2, r6
   2065c:	9b03      	ldr	r3, [sp, #12]
   2065e:	df04      	svc	4
   20660:	2802      	cmp	r0, #2
   20662:	d104      	bne.n	2066e <_ZN20complex_dynamic_type3app17h0fa1d1db20662b43E+0x42>
   20664:	2001      	movs	r0, #1
   20666:	9a04      	ldr	r2, [sp, #16]
   20668:	7010      	strb	r0, [r2, #0]
   2066a:	6051      	str	r1, [r2, #4]
   2066c:	e02c      	b.n	206c8 <_ZN20complex_dynamic_type3app17h0fa1d1db20662b43E+0x9c>
   2066e:	9d04      	ldr	r5, [sp, #16]
   20670:	a805      	add	r0, sp, #20
   20672:	2104      	movs	r1, #4
   20674:	7001      	strb	r1, [r0, #0]
   20676:	4840      	ldr	r0, [pc, #256]	@ (20778 <_ZN20complex_dynamic_type3app17h0fa1d1db20662b43E+0x14c>)
   20678:	2401      	movs	r4, #1
   2067a:	2335      	movs	r3, #53	@ 0x35
   2067c:	4621      	mov	r1, r4
   2067e:	9a02      	ldr	r2, [sp, #8]
   20680:	df03      	svc	3
   20682:	2802      	cmp	r0, #2
   20684:	d10d      	bne.n	206a2 <_ZN20complex_dynamic_type3app17h0fa1d1db20662b43E+0x76>
   20686:	702c      	strb	r4, [r5, #0]
   20688:	6069      	str	r1, [r5, #4]
   2068a:	a819      	add	r0, sp, #100	@ 0x64
   2068c:	7800      	ldrb	r0, [r0, #0]
   2068e:	2802      	cmp	r0, #2
   20690:	d01a      	beq.n	206c8 <_ZN20complex_dynamic_type3app17h0fa1d1db20662b43E+0x9c>
   20692:	2803      	cmp	r0, #3
   20694:	d013      	beq.n	206be <_ZN20complex_dynamic_type3app17h0fa1d1db20662b43E+0x92>
   20696:	4838      	ldr	r0, [pc, #224]	@ (20778 <_ZN20complex_dynamic_type3app17h0fa1d1db20662b43E+0x14c>)
   20698:	2101      	movs	r1, #1
   2069a:	2200      	movs	r2, #0
   2069c:	4613      	mov	r3, r2
   2069e:	df04      	svc	4
   206a0:	e012      	b.n	206c8 <_ZN20complex_dynamic_type3app17h0fa1d1db20662b43E+0x9c>
   206a2:	a819      	add	r0, sp, #100	@ 0x64
   206a4:	2103      	movs	r1, #3
   206a6:	7001      	strb	r1, [r0, #0]
   206a8:	4833      	ldr	r0, [pc, #204]	@ (20778 <_ZN20complex_dynamic_type3app17h0fa1d1db20662b43E+0x14c>)
   206aa:	2107      	movs	r1, #7
   206ac:	2401      	movs	r4, #1
   206ae:	2600      	movs	r6, #0
   206b0:	4622      	mov	r2, r4
   206b2:	4633      	mov	r3, r6
   206b4:	df02      	svc	2
   206b6:	2880      	cmp	r0, #128	@ 0x80
   206b8:	d21a      	bcs.n	206f0 <_ZN20complex_dynamic_type3app17h0fa1d1db20662b43E+0xc4>
   206ba:	702c      	strb	r4, [r5, #0]
   206bc:	6069      	str	r1, [r5, #4]
   206be:	482e      	ldr	r0, [pc, #184]	@ (20778 <_ZN20complex_dynamic_type3app17h0fa1d1db20662b43E+0x14c>)
   206c0:	2101      	movs	r1, #1
   206c2:	2200      	movs	r2, #0
   206c4:	4613      	mov	r3, r2
   206c6:	df03      	svc	3
   206c8:	a805      	add	r0, sp, #20
   206ca:	7800      	ldrb	r0, [r0, #0]
   206cc:	2802      	cmp	r0, #2
   206ce:	d045      	beq.n	2075c <_ZN20complex_dynamic_type3app17h0fa1d1db20662b43E+0x130>
   206d0:	2804      	cmp	r0, #4
   206d2:	d106      	bne.n	206e2 <_ZN20complex_dynamic_type3app17h0fa1d1db20662b43E+0xb6>
   206d4:	4828      	ldr	r0, [pc, #160]	@ (20778 <_ZN20complex_dynamic_type3app17h0fa1d1db20662b43E+0x14c>)
   206d6:	2107      	movs	r1, #7
   206d8:	2200      	movs	r2, #0
   206da:	4613      	mov	r3, r2
   206dc:	df04      	svc	4
   206de:	b027      	add	sp, #156	@ 0x9c
   206e0:	bdf0      	pop	{r4, r5, r6, r7, pc}
   206e2:	4825      	ldr	r0, [pc, #148]	@ (20778 <_ZN20complex_dynamic_type3app17h0fa1d1db20662b43E+0x14c>)
   206e4:	2107      	movs	r1, #7
   206e6:	2200      	movs	r2, #0
   206e8:	4613      	mov	r3, r2
   206ea:	df03      	svc	3
   206ec:	b027      	add	sp, #156	@ 0x9c
   206ee:	bdf0      	pop	{r4, r5, r6, r7, pc}
   206f0:	a805      	add	r0, sp, #20
   206f2:	7800      	ldrb	r0, [r0, #0]
   206f4:	2802      	cmp	r0, #2
   206f6:	d00c      	beq.n	20712 <_ZN20complex_dynamic_type3app17h0fa1d1db20662b43E+0xe6>
   206f8:	2803      	cmp	r0, #3
   206fa:	d105      	bne.n	20708 <_ZN20complex_dynamic_type3app17h0fa1d1db20662b43E+0xdc>
   206fc:	481e      	ldr	r0, [pc, #120]	@ (20778 <_ZN20complex_dynamic_type3app17h0fa1d1db20662b43E+0x14c>)
   206fe:	2107      	movs	r1, #7
   20700:	2200      	movs	r2, #0
   20702:	4613      	mov	r3, r2
   20704:	df03      	svc	3
   20706:	e004      	b.n	20712 <_ZN20complex_dynamic_type3app17h0fa1d1db20662b43E+0xe6>
   20708:	481b      	ldr	r0, [pc, #108]	@ (20778 <_ZN20complex_dynamic_type3app17h0fa1d1db20662b43E+0x14c>)
   2070a:	2107      	movs	r1, #7
   2070c:	2200      	movs	r2, #0
   2070e:	4613      	mov	r3, r2
   20710:	df04      	svc	4
   20712:	a805      	add	r0, sp, #20
   20714:	9901      	ldr	r1, [sp, #4]
   20716:	7001      	strb	r1, [r0, #0]
   20718:	a819      	add	r0, sp, #100	@ 0x64
   2071a:	7800      	ldrb	r0, [r0, #0]
   2071c:	2804      	cmp	r0, #4
   2071e:	d007      	beq.n	20730 <_ZN20complex_dynamic_type3app17h0fa1d1db20662b43E+0x104>
   20720:	2803      	cmp	r0, #3
   20722:	d11d      	bne.n	20760 <_ZN20complex_dynamic_type3app17h0fa1d1db20662b43E+0x134>
   20724:	4814      	ldr	r0, [pc, #80]	@ (20778 <_ZN20complex_dynamic_type3app17h0fa1d1db20662b43E+0x14c>)
   20726:	2101      	movs	r1, #1
   20728:	2200      	movs	r2, #0
   2072a:	4613      	mov	r3, r2
   2072c:	df03      	svc	3
   2072e:	e004      	b.n	2073a <_ZN20complex_dynamic_type3app17h0fa1d1db20662b43E+0x10e>
   20730:	4811      	ldr	r0, [pc, #68]	@ (20778 <_ZN20complex_dynamic_type3app17h0fa1d1db20662b43E+0x14c>)
   20732:	2101      	movs	r1, #1
   20734:	2200      	movs	r2, #0
   20736:	4613      	mov	r3, r2
   20738:	df04      	svc	4
   2073a:	a805      	add	r0, sp, #20
   2073c:	7804      	ldrb	r4, [r0, #0]
   2073e:	1c68      	adds	r0, r5, #1
   20740:	2235      	movs	r2, #53	@ 0x35
   20742:	9902      	ldr	r1, [sp, #8]
   20744:	f00a fcde 	bl	2b104 <__aeabi_memcpy>
   20748:	702e      	strb	r6, [r5, #0]
   2074a:	2c02      	cmp	r4, #2
   2074c:	d006      	beq.n	2075c <_ZN20complex_dynamic_type3app17h0fa1d1db20662b43E+0x130>
   2074e:	480a      	ldr	r0, [pc, #40]	@ (20778 <_ZN20complex_dynamic_type3app17h0fa1d1db20662b43E+0x14c>)
   20750:	2107      	movs	r1, #7
   20752:	2200      	movs	r2, #0
   20754:	4613      	mov	r3, r2
   20756:	2c04      	cmp	r4, #4
   20758:	d10a      	bne.n	20770 <_ZN20complex_dynamic_type3app17h0fa1d1db20662b43E+0x144>
   2075a:	df04      	svc	4
   2075c:	b027      	add	sp, #156	@ 0x9c
   2075e:	bdf0      	pop	{r4, r5, r6, r7, pc}
   20760:	1c68      	adds	r0, r5, #1
   20762:	2235      	movs	r2, #53	@ 0x35
   20764:	9902      	ldr	r1, [sp, #8]
   20766:	f00a fccd 	bl	2b104 <__aeabi_memcpy>
   2076a:	702e      	strb	r6, [r5, #0]
   2076c:	b027      	add	sp, #156	@ 0x9c
   2076e:	bdf0      	pop	{r4, r5, r6, r7, pc}
   20770:	df03      	svc	3
   20772:	b027      	add	sp, #156	@ 0x9c
   20774:	bdf0      	pop	{r4, r5, r6, r7, pc}
   20776:	46c0      	nop			@ (mov r8, r8)
   20778:	000016d7 	.word	0x000016d7

0002077c <_ZN20complex_dynamic_type3app17h132e88f935babb9aE>:
   2077c:	b5f0      	push	{r4, r5, r6, r7, lr}
   2077e:	af03      	add	r7, sp, #12
   20780:	b0a1      	sub	sp, #132	@ 0x84
   20782:	9003      	str	r0, [sp, #12]
   20784:	a804      	add	r0, sp, #16
   20786:	2602      	movs	r6, #2
   20788:	7006      	strb	r6, [r0, #0]
   2078a:	1c40      	adds	r0, r0, #1
   2078c:	9002      	str	r0, [sp, #8]
   2078e:	251e      	movs	r5, #30
   20790:	462a      	mov	r2, r5
   20792:	f00a fcb7 	bl	2b104 <__aeabi_memcpy>
   20796:	ac0c      	add	r4, sp, #48	@ 0x30
   20798:	1c60      	adds	r0, r4, #1
   2079a:	2151      	movs	r1, #81	@ 0x51
   2079c:	9001      	str	r0, [sp, #4]
   2079e:	f00a faf1 	bl	2ad84 <__aeabi_memclr>
   207a2:	7026      	strb	r6, [r4, #0]
   207a4:	484a      	ldr	r0, [pc, #296]	@ (208d0 <_ZN20complex_dynamic_type3app17h132e88f935babb9aE+0x154>)
   207a6:	4631      	mov	r1, r6
   207a8:	9a02      	ldr	r2, [sp, #8]
   207aa:	462b      	mov	r3, r5
   207ac:	df04      	svc	4
   207ae:	2802      	cmp	r0, #2
   207b0:	d104      	bne.n	207bc <_ZN20complex_dynamic_type3app17h132e88f935babb9aE+0x40>
   207b2:	2001      	movs	r0, #1
   207b4:	9a03      	ldr	r2, [sp, #12]
   207b6:	7010      	strb	r0, [r2, #0]
   207b8:	6051      	str	r1, [r2, #4]
   207ba:	e02e      	b.n	2081a <_ZN20complex_dynamic_type3app17h132e88f935babb9aE+0x9e>
   207bc:	9d03      	ldr	r5, [sp, #12]
   207be:	a804      	add	r0, sp, #16
   207c0:	2104      	movs	r1, #4
   207c2:	7001      	strb	r1, [r0, #0]
   207c4:	4842      	ldr	r0, [pc, #264]	@ (208d0 <_ZN20complex_dynamic_type3app17h132e88f935babb9aE+0x154>)
   207c6:	2100      	movs	r1, #0
   207c8:	2351      	movs	r3, #81	@ 0x51
   207ca:	9c01      	ldr	r4, [sp, #4]
   207cc:	4622      	mov	r2, r4
   207ce:	df03      	svc	3
   207d0:	2802      	cmp	r0, #2
   207d2:	d10e      	bne.n	207f2 <_ZN20complex_dynamic_type3app17h132e88f935babb9aE+0x76>
   207d4:	2001      	movs	r0, #1
   207d6:	7028      	strb	r0, [r5, #0]
   207d8:	6069      	str	r1, [r5, #4]
   207da:	a80c      	add	r0, sp, #48	@ 0x30
   207dc:	7800      	ldrb	r0, [r0, #0]
   207de:	2802      	cmp	r0, #2
   207e0:	d01b      	beq.n	2081a <_ZN20complex_dynamic_type3app17h132e88f935babb9aE+0x9e>
   207e2:	2803      	cmp	r0, #3
   207e4:	d014      	beq.n	20810 <_ZN20complex_dynamic_type3app17h132e88f935babb9aE+0x94>
   207e6:	483a      	ldr	r0, [pc, #232]	@ (208d0 <_ZN20complex_dynamic_type3app17h132e88f935babb9aE+0x154>)
   207e8:	2100      	movs	r1, #0
   207ea:	460a      	mov	r2, r1
   207ec:	460b      	mov	r3, r1
   207ee:	df04      	svc	4
   207f0:	e013      	b.n	2081a <_ZN20complex_dynamic_type3app17h132e88f935babb9aE+0x9e>
   207f2:	a80c      	add	r0, sp, #48	@ 0x30
   207f4:	2103      	movs	r1, #3
   207f6:	7001      	strb	r1, [r0, #0]
   207f8:	4835      	ldr	r0, [pc, #212]	@ (208d0 <_ZN20complex_dynamic_type3app17h132e88f935babb9aE+0x154>)
   207fa:	2602      	movs	r6, #2
   207fc:	2200      	movs	r2, #0
   207fe:	4631      	mov	r1, r6
   20800:	9202      	str	r2, [sp, #8]
   20802:	4613      	mov	r3, r2
   20804:	df02      	svc	2
   20806:	2880      	cmp	r0, #128	@ 0x80
   20808:	d21b      	bcs.n	20842 <_ZN20complex_dynamic_type3app17h132e88f935babb9aE+0xc6>
   2080a:	2001      	movs	r0, #1
   2080c:	7028      	strb	r0, [r5, #0]
   2080e:	6069      	str	r1, [r5, #4]
   20810:	482f      	ldr	r0, [pc, #188]	@ (208d0 <_ZN20complex_dynamic_type3app17h132e88f935babb9aE+0x154>)
   20812:	2100      	movs	r1, #0
   20814:	460a      	mov	r2, r1
   20816:	460b      	mov	r3, r1
   20818:	df03      	svc	3
   2081a:	a804      	add	r0, sp, #16
   2081c:	7800      	ldrb	r0, [r0, #0]
   2081e:	2802      	cmp	r0, #2
   20820:	d047      	beq.n	208b2 <_ZN20complex_dynamic_type3app17h132e88f935babb9aE+0x136>
   20822:	2804      	cmp	r0, #4
   20824:	d106      	bne.n	20834 <_ZN20complex_dynamic_type3app17h132e88f935babb9aE+0xb8>
   20826:	482a      	ldr	r0, [pc, #168]	@ (208d0 <_ZN20complex_dynamic_type3app17h132e88f935babb9aE+0x154>)
   20828:	2102      	movs	r1, #2
   2082a:	2200      	movs	r2, #0
   2082c:	4613      	mov	r3, r2
   2082e:	df04      	svc	4
   20830:	b021      	add	sp, #132	@ 0x84
   20832:	bdf0      	pop	{r4, r5, r6, r7, pc}
   20834:	4826      	ldr	r0, [pc, #152]	@ (208d0 <_ZN20complex_dynamic_type3app17h132e88f935babb9aE+0x154>)
   20836:	2102      	movs	r1, #2
   20838:	2200      	movs	r2, #0
   2083a:	4613      	mov	r3, r2
   2083c:	df03      	svc	3
   2083e:	b021      	add	sp, #132	@ 0x84
   20840:	bdf0      	pop	{r4, r5, r6, r7, pc}
   20842:	a804      	add	r0, sp, #16
   20844:	7800      	ldrb	r0, [r0, #0]
   20846:	2802      	cmp	r0, #2
   20848:	d00c      	beq.n	20864 <_ZN20complex_dynamic_type3app17h132e88f935babb9aE+0xe8>
   2084a:	2803      	cmp	r0, #3
   2084c:	d105      	bne.n	2085a <_ZN20complex_dynamic_type3app17h132e88f935babb9aE+0xde>
   2084e:	4820      	ldr	r0, [pc, #128]	@ (208d0 <_ZN20complex_dynamic_type3app17h132e88f935babb9aE+0x154>)
   20850:	2102      	movs	r1, #2
   20852:	2200      	movs	r2, #0
   20854:	4613      	mov	r3, r2
   20856:	df03      	svc	3
   20858:	e004      	b.n	20864 <_ZN20complex_dynamic_type3app17h132e88f935babb9aE+0xe8>
   2085a:	481d      	ldr	r0, [pc, #116]	@ (208d0 <_ZN20complex_dynamic_type3app17h132e88f935babb9aE+0x154>)
   2085c:	2102      	movs	r1, #2
   2085e:	2200      	movs	r2, #0
   20860:	4613      	mov	r3, r2
   20862:	df04      	svc	4
   20864:	a804      	add	r0, sp, #16
   20866:	7006      	strb	r6, [r0, #0]
   20868:	a80c      	add	r0, sp, #48	@ 0x30
   2086a:	7800      	ldrb	r0, [r0, #0]
   2086c:	2804      	cmp	r0, #4
   2086e:	d008      	beq.n	20882 <_ZN20complex_dynamic_type3app17h132e88f935babb9aE+0x106>
   20870:	2803      	cmp	r0, #3
   20872:	d120      	bne.n	208b6 <_ZN20complex_dynamic_type3app17h132e88f935babb9aE+0x13a>
   20874:	4626      	mov	r6, r4
   20876:	4816      	ldr	r0, [pc, #88]	@ (208d0 <_ZN20complex_dynamic_type3app17h132e88f935babb9aE+0x154>)
   20878:	2100      	movs	r1, #0
   2087a:	460a      	mov	r2, r1
   2087c:	460b      	mov	r3, r1
   2087e:	df03      	svc	3
   20880:	e005      	b.n	2088e <_ZN20complex_dynamic_type3app17h132e88f935babb9aE+0x112>
   20882:	4626      	mov	r6, r4
   20884:	4812      	ldr	r0, [pc, #72]	@ (208d0 <_ZN20complex_dynamic_type3app17h132e88f935babb9aE+0x154>)
   20886:	2100      	movs	r1, #0
   20888:	460a      	mov	r2, r1
   2088a:	460b      	mov	r3, r1
   2088c:	df04      	svc	4
   2088e:	a804      	add	r0, sp, #16
   20890:	7804      	ldrb	r4, [r0, #0]
   20892:	1c68      	adds	r0, r5, #1
   20894:	2251      	movs	r2, #81	@ 0x51
   20896:	4631      	mov	r1, r6
   20898:	f00a fc34 	bl	2b104 <__aeabi_memcpy>
   2089c:	9802      	ldr	r0, [sp, #8]
   2089e:	7028      	strb	r0, [r5, #0]
   208a0:	2c02      	cmp	r4, #2
   208a2:	d006      	beq.n	208b2 <_ZN20complex_dynamic_type3app17h132e88f935babb9aE+0x136>
   208a4:	480a      	ldr	r0, [pc, #40]	@ (208d0 <_ZN20complex_dynamic_type3app17h132e88f935babb9aE+0x154>)
   208a6:	2102      	movs	r1, #2
   208a8:	2200      	movs	r2, #0
   208aa:	4613      	mov	r3, r2
   208ac:	2c04      	cmp	r4, #4
   208ae:	d10b      	bne.n	208c8 <_ZN20complex_dynamic_type3app17h132e88f935babb9aE+0x14c>
   208b0:	df04      	svc	4
   208b2:	b021      	add	sp, #132	@ 0x84
   208b4:	bdf0      	pop	{r4, r5, r6, r7, pc}
   208b6:	1c68      	adds	r0, r5, #1
   208b8:	2251      	movs	r2, #81	@ 0x51
   208ba:	4621      	mov	r1, r4
   208bc:	f00a fc22 	bl	2b104 <__aeabi_memcpy>
   208c0:	9802      	ldr	r0, [sp, #8]
   208c2:	7028      	strb	r0, [r5, #0]
   208c4:	b021      	add	sp, #132	@ 0x84
   208c6:	bdf0      	pop	{r4, r5, r6, r7, pc}
   208c8:	df03      	svc	3
   208ca:	b021      	add	sp, #132	@ 0x84
   208cc:	bdf0      	pop	{r4, r5, r6, r7, pc}
   208ce:	46c0      	nop			@ (mov r8, r8)
   208d0:	0000196b 	.word	0x0000196b

000208d4 <_ZN20complex_dynamic_type3app17h1602661672869386E>:
   208d4:	b5f0      	push	{r4, r5, r6, r7, lr}
   208d6:	af03      	add	r7, sp, #12
   208d8:	b097      	sub	sp, #92	@ 0x5c
   208da:	9004      	str	r0, [sp, #16]
   208dc:	a805      	add	r0, sp, #20
   208de:	2402      	movs	r4, #2
   208e0:	7004      	strb	r4, [r0, #0]
   208e2:	1c46      	adds	r6, r0, #1
   208e4:	2227      	movs	r2, #39	@ 0x27
   208e6:	9203      	str	r2, [sp, #12]
   208e8:	4630      	mov	r0, r6
   208ea:	f00a fc0b 	bl	2b104 <__aeabi_memcpy>
   208ee:	ad0f      	add	r5, sp, #60	@ 0x3c
   208f0:	1c68      	adds	r0, r5, #1
   208f2:	211e      	movs	r1, #30
   208f4:	9002      	str	r0, [sp, #8]
   208f6:	f00a fa45 	bl	2ad84 <__aeabi_memclr>
   208fa:	9401      	str	r4, [sp, #4]
   208fc:	702c      	strb	r4, [r5, #0]
   208fe:	4848      	ldr	r0, [pc, #288]	@ (20a20 <_ZN20complex_dynamic_type3app17h1602661672869386E+0x14c>)
   20900:	2103      	movs	r1, #3
   20902:	4632      	mov	r2, r6
   20904:	9b03      	ldr	r3, [sp, #12]
   20906:	df04      	svc	4
   20908:	2802      	cmp	r0, #2
   2090a:	d104      	bne.n	20916 <_ZN20complex_dynamic_type3app17h1602661672869386E+0x42>
   2090c:	2001      	movs	r0, #1
   2090e:	9a04      	ldr	r2, [sp, #16]
   20910:	7010      	strb	r0, [r2, #0]
   20912:	6051      	str	r1, [r2, #4]
   20914:	e02c      	b.n	20970 <_ZN20complex_dynamic_type3app17h1602661672869386E+0x9c>
   20916:	9d04      	ldr	r5, [sp, #16]
   20918:	a805      	add	r0, sp, #20
   2091a:	2104      	movs	r1, #4
   2091c:	7001      	strb	r1, [r0, #0]
   2091e:	4840      	ldr	r0, [pc, #256]	@ (20a20 <_ZN20complex_dynamic_type3app17h1602661672869386E+0x14c>)
   20920:	2403      	movs	r4, #3
   20922:	231e      	movs	r3, #30
   20924:	4621      	mov	r1, r4
   20926:	9a02      	ldr	r2, [sp, #8]
   20928:	df03      	svc	3
   2092a:	2802      	cmp	r0, #2
   2092c:	d10e      	bne.n	2094c <_ZN20complex_dynamic_type3app17h1602661672869386E+0x78>
   2092e:	2001      	movs	r0, #1
   20930:	7028      	strb	r0, [r5, #0]
   20932:	6069      	str	r1, [r5, #4]
   20934:	a80f      	add	r0, sp, #60	@ 0x3c
   20936:	7800      	ldrb	r0, [r0, #0]
   20938:	2802      	cmp	r0, #2
   2093a:	d019      	beq.n	20970 <_ZN20complex_dynamic_type3app17h1602661672869386E+0x9c>
   2093c:	2803      	cmp	r0, #3
   2093e:	d012      	beq.n	20966 <_ZN20complex_dynamic_type3app17h1602661672869386E+0x92>
   20940:	4837      	ldr	r0, [pc, #220]	@ (20a20 <_ZN20complex_dynamic_type3app17h1602661672869386E+0x14c>)
   20942:	2103      	movs	r1, #3
   20944:	2200      	movs	r2, #0
   20946:	4613      	mov	r3, r2
   20948:	df04      	svc	4
   2094a:	e011      	b.n	20970 <_ZN20complex_dynamic_type3app17h1602661672869386E+0x9c>
   2094c:	a80f      	add	r0, sp, #60	@ 0x3c
   2094e:	7004      	strb	r4, [r0, #0]
   20950:	4833      	ldr	r0, [pc, #204]	@ (20a20 <_ZN20complex_dynamic_type3app17h1602661672869386E+0x14c>)
   20952:	2600      	movs	r6, #0
   20954:	4621      	mov	r1, r4
   20956:	4622      	mov	r2, r4
   20958:	4633      	mov	r3, r6
   2095a:	df02      	svc	2
   2095c:	2880      	cmp	r0, #128	@ 0x80
   2095e:	d21b      	bcs.n	20998 <_ZN20complex_dynamic_type3app17h1602661672869386E+0xc4>
   20960:	2001      	movs	r0, #1
   20962:	7028      	strb	r0, [r5, #0]
   20964:	6069      	str	r1, [r5, #4]
   20966:	482e      	ldr	r0, [pc, #184]	@ (20a20 <_ZN20complex_dynamic_type3app17h1602661672869386E+0x14c>)
   20968:	2103      	movs	r1, #3
   2096a:	2200      	movs	r2, #0
   2096c:	4613      	mov	r3, r2
   2096e:	df03      	svc	3
   20970:	a805      	add	r0, sp, #20
   20972:	7800      	ldrb	r0, [r0, #0]
   20974:	2802      	cmp	r0, #2
   20976:	d045      	beq.n	20a04 <_ZN20complex_dynamic_type3app17h1602661672869386E+0x130>
   20978:	2804      	cmp	r0, #4
   2097a:	d106      	bne.n	2098a <_ZN20complex_dynamic_type3app17h1602661672869386E+0xb6>
   2097c:	4828      	ldr	r0, [pc, #160]	@ (20a20 <_ZN20complex_dynamic_type3app17h1602661672869386E+0x14c>)
   2097e:	2103      	movs	r1, #3
   20980:	2200      	movs	r2, #0
   20982:	4613      	mov	r3, r2
   20984:	df04      	svc	4
   20986:	b017      	add	sp, #92	@ 0x5c
   20988:	bdf0      	pop	{r4, r5, r6, r7, pc}
   2098a:	4825      	ldr	r0, [pc, #148]	@ (20a20 <_ZN20complex_dynamic_type3app17h1602661672869386E+0x14c>)
   2098c:	2103      	movs	r1, #3
   2098e:	2200      	movs	r2, #0
   20990:	4613      	mov	r3, r2
   20992:	df03      	svc	3
   20994:	b017      	add	sp, #92	@ 0x5c
   20996:	bdf0      	pop	{r4, r5, r6, r7, pc}
   20998:	a805      	add	r0, sp, #20
   2099a:	7800      	ldrb	r0, [r0, #0]
   2099c:	2802      	cmp	r0, #2
   2099e:	d00c      	beq.n	209ba <_ZN20complex_dynamic_type3app17h1602661672869386E+0xe6>
   209a0:	2803      	cmp	r0, #3
   209a2:	d105      	bne.n	209b0 <_ZN20complex_dynamic_type3app17h1602661672869386E+0xdc>
   209a4:	481e      	ldr	r0, [pc, #120]	@ (20a20 <_ZN20complex_dynamic_type3app17h1602661672869386E+0x14c>)
   209a6:	2103      	movs	r1, #3
   209a8:	2200      	movs	r2, #0
   209aa:	4613      	mov	r3, r2
   209ac:	df03      	svc	3
   209ae:	e004      	b.n	209ba <_ZN20complex_dynamic_type3app17h1602661672869386E+0xe6>
   209b0:	481b      	ldr	r0, [pc, #108]	@ (20a20 <_ZN20complex_dynamic_type3app17h1602661672869386E+0x14c>)
   209b2:	2103      	movs	r1, #3
   209b4:	2200      	movs	r2, #0
   209b6:	4613      	mov	r3, r2
   209b8:	df04      	svc	4
   209ba:	a805      	add	r0, sp, #20
   209bc:	9901      	ldr	r1, [sp, #4]
   209be:	7001      	strb	r1, [r0, #0]
   209c0:	a80f      	add	r0, sp, #60	@ 0x3c
   209c2:	7800      	ldrb	r0, [r0, #0]
   209c4:	2804      	cmp	r0, #4
   209c6:	d007      	beq.n	209d8 <_ZN20complex_dynamic_type3app17h1602661672869386E+0x104>
   209c8:	2803      	cmp	r0, #3
   209ca:	d11d      	bne.n	20a08 <_ZN20complex_dynamic_type3app17h1602661672869386E+0x134>
   209cc:	4814      	ldr	r0, [pc, #80]	@ (20a20 <_ZN20complex_dynamic_type3app17h1602661672869386E+0x14c>)
   209ce:	2103      	movs	r1, #3
   209d0:	2200      	movs	r2, #0
   209d2:	4613      	mov	r3, r2
   209d4:	df03      	svc	3
   209d6:	e004      	b.n	209e2 <_ZN20complex_dynamic_type3app17h1602661672869386E+0x10e>
   209d8:	4811      	ldr	r0, [pc, #68]	@ (20a20 <_ZN20complex_dynamic_type3app17h1602661672869386E+0x14c>)
   209da:	2103      	movs	r1, #3
   209dc:	2200      	movs	r2, #0
   209de:	4613      	mov	r3, r2
   209e0:	df04      	svc	4
   209e2:	a805      	add	r0, sp, #20
   209e4:	7804      	ldrb	r4, [r0, #0]
   209e6:	1c68      	adds	r0, r5, #1
   209e8:	221e      	movs	r2, #30
   209ea:	9902      	ldr	r1, [sp, #8]
   209ec:	f00a fb8a 	bl	2b104 <__aeabi_memcpy>
   209f0:	702e      	strb	r6, [r5, #0]
   209f2:	2c02      	cmp	r4, #2
   209f4:	d006      	beq.n	20a04 <_ZN20complex_dynamic_type3app17h1602661672869386E+0x130>
   209f6:	480a      	ldr	r0, [pc, #40]	@ (20a20 <_ZN20complex_dynamic_type3app17h1602661672869386E+0x14c>)
   209f8:	2103      	movs	r1, #3
   209fa:	2200      	movs	r2, #0
   209fc:	4613      	mov	r3, r2
   209fe:	2c04      	cmp	r4, #4
   20a00:	d10a      	bne.n	20a18 <_ZN20complex_dynamic_type3app17h1602661672869386E+0x144>
   20a02:	df04      	svc	4
   20a04:	b017      	add	sp, #92	@ 0x5c
   20a06:	bdf0      	pop	{r4, r5, r6, r7, pc}
   20a08:	1c68      	adds	r0, r5, #1
   20a0a:	221e      	movs	r2, #30
   20a0c:	9902      	ldr	r1, [sp, #8]
   20a0e:	f00a fb79 	bl	2b104 <__aeabi_memcpy>
   20a12:	702e      	strb	r6, [r5, #0]
   20a14:	b017      	add	sp, #92	@ 0x5c
   20a16:	bdf0      	pop	{r4, r5, r6, r7, pc}
   20a18:	df03      	svc	3
   20a1a:	b017      	add	sp, #92	@ 0x5c
   20a1c:	bdf0      	pop	{r4, r5, r6, r7, pc}
   20a1e:	46c0      	nop			@ (mov r8, r8)
   20a20:	000010e2 	.word	0x000010e2

00020a24 <_ZN20complex_dynamic_type3app17h1613718388bd7ac5E>:
   20a24:	b5f0      	push	{r4, r5, r6, r7, lr}
   20a26:	af03      	add	r7, sp, #12
   20a28:	b0ab      	sub	sp, #172	@ 0xac
   20a2a:	9003      	str	r0, [sp, #12]
   20a2c:	a804      	add	r0, sp, #16
   20a2e:	2402      	movs	r4, #2
   20a30:	7004      	strb	r4, [r0, #0]
   20a32:	1c46      	adds	r6, r0, #1
   20a34:	223a      	movs	r2, #58	@ 0x3a
   20a36:	9202      	str	r2, [sp, #8]
   20a38:	4630      	mov	r0, r6
   20a3a:	f00a fb63 	bl	2b104 <__aeabi_memcpy>
   20a3e:	ad13      	add	r5, sp, #76	@ 0x4c
   20a40:	1c68      	adds	r0, r5, #1
   20a42:	215d      	movs	r1, #93	@ 0x5d
   20a44:	9001      	str	r0, [sp, #4]
   20a46:	f00a f99d 	bl	2ad84 <__aeabi_memclr>
   20a4a:	9400      	str	r4, [sp, #0]
   20a4c:	702c      	strb	r4, [r5, #0]
   20a4e:	4848      	ldr	r0, [pc, #288]	@ (20b70 <_ZN20complex_dynamic_type3app17h1613718388bd7ac5E+0x14c>)
   20a50:	2100      	movs	r1, #0
   20a52:	4632      	mov	r2, r6
   20a54:	9b02      	ldr	r3, [sp, #8]
   20a56:	df04      	svc	4
   20a58:	2802      	cmp	r0, #2
   20a5a:	d104      	bne.n	20a66 <_ZN20complex_dynamic_type3app17h1613718388bd7ac5E+0x42>
   20a5c:	2001      	movs	r0, #1
   20a5e:	9a03      	ldr	r2, [sp, #12]
   20a60:	7010      	strb	r0, [r2, #0]
   20a62:	6051      	str	r1, [r2, #4]
   20a64:	e02d      	b.n	20ac2 <_ZN20complex_dynamic_type3app17h1613718388bd7ac5E+0x9e>
   20a66:	9d03      	ldr	r5, [sp, #12]
   20a68:	a804      	add	r0, sp, #16
   20a6a:	2104      	movs	r1, #4
   20a6c:	7001      	strb	r1, [r0, #0]
   20a6e:	4840      	ldr	r0, [pc, #256]	@ (20b70 <_ZN20complex_dynamic_type3app17h1613718388bd7ac5E+0x14c>)
   20a70:	2105      	movs	r1, #5
   20a72:	235d      	movs	r3, #93	@ 0x5d
   20a74:	9c01      	ldr	r4, [sp, #4]
   20a76:	4622      	mov	r2, r4
   20a78:	df03      	svc	3
   20a7a:	2802      	cmp	r0, #2
   20a7c:	d10e      	bne.n	20a9c <_ZN20complex_dynamic_type3app17h1613718388bd7ac5E+0x78>
   20a7e:	2001      	movs	r0, #1
   20a80:	7028      	strb	r0, [r5, #0]
   20a82:	6069      	str	r1, [r5, #4]
   20a84:	a813      	add	r0, sp, #76	@ 0x4c
   20a86:	7800      	ldrb	r0, [r0, #0]
   20a88:	2802      	cmp	r0, #2
   20a8a:	d01a      	beq.n	20ac2 <_ZN20complex_dynamic_type3app17h1613718388bd7ac5E+0x9e>
   20a8c:	2803      	cmp	r0, #3
   20a8e:	d013      	beq.n	20ab8 <_ZN20complex_dynamic_type3app17h1613718388bd7ac5E+0x94>
   20a90:	4837      	ldr	r0, [pc, #220]	@ (20b70 <_ZN20complex_dynamic_type3app17h1613718388bd7ac5E+0x14c>)
   20a92:	2105      	movs	r1, #5
   20a94:	2200      	movs	r2, #0
   20a96:	4613      	mov	r3, r2
   20a98:	df04      	svc	4
   20a9a:	e012      	b.n	20ac2 <_ZN20complex_dynamic_type3app17h1613718388bd7ac5E+0x9e>
   20a9c:	a813      	add	r0, sp, #76	@ 0x4c
   20a9e:	2103      	movs	r1, #3
   20aa0:	7001      	strb	r1, [r0, #0]
   20aa2:	4833      	ldr	r0, [pc, #204]	@ (20b70 <_ZN20complex_dynamic_type3app17h1613718388bd7ac5E+0x14c>)
   20aa4:	2205      	movs	r2, #5
   20aa6:	2600      	movs	r6, #0
   20aa8:	4631      	mov	r1, r6
   20aaa:	4633      	mov	r3, r6
   20aac:	df02      	svc	2
   20aae:	2880      	cmp	r0, #128	@ 0x80
   20ab0:	d21b      	bcs.n	20aea <_ZN20complex_dynamic_type3app17h1613718388bd7ac5E+0xc6>
   20ab2:	2001      	movs	r0, #1
   20ab4:	7028      	strb	r0, [r5, #0]
   20ab6:	6069      	str	r1, [r5, #4]
   20ab8:	482d      	ldr	r0, [pc, #180]	@ (20b70 <_ZN20complex_dynamic_type3app17h1613718388bd7ac5E+0x14c>)
   20aba:	2105      	movs	r1, #5
   20abc:	2200      	movs	r2, #0
   20abe:	4613      	mov	r3, r2
   20ac0:	df03      	svc	3
   20ac2:	a804      	add	r0, sp, #16
   20ac4:	7800      	ldrb	r0, [r0, #0]
   20ac6:	2802      	cmp	r0, #2
   20ac8:	d045      	beq.n	20b56 <_ZN20complex_dynamic_type3app17h1613718388bd7ac5E+0x132>
   20aca:	2804      	cmp	r0, #4
   20acc:	d106      	bne.n	20adc <_ZN20complex_dynamic_type3app17h1613718388bd7ac5E+0xb8>
   20ace:	4828      	ldr	r0, [pc, #160]	@ (20b70 <_ZN20complex_dynamic_type3app17h1613718388bd7ac5E+0x14c>)
   20ad0:	2100      	movs	r1, #0
   20ad2:	460a      	mov	r2, r1
   20ad4:	460b      	mov	r3, r1
   20ad6:	df04      	svc	4
   20ad8:	b02b      	add	sp, #172	@ 0xac
   20ada:	bdf0      	pop	{r4, r5, r6, r7, pc}
   20adc:	4824      	ldr	r0, [pc, #144]	@ (20b70 <_ZN20complex_dynamic_type3app17h1613718388bd7ac5E+0x14c>)
   20ade:	2100      	movs	r1, #0
   20ae0:	460a      	mov	r2, r1
   20ae2:	460b      	mov	r3, r1
   20ae4:	df03      	svc	3
   20ae6:	b02b      	add	sp, #172	@ 0xac
   20ae8:	bdf0      	pop	{r4, r5, r6, r7, pc}
   20aea:	a804      	add	r0, sp, #16
   20aec:	7800      	ldrb	r0, [r0, #0]
   20aee:	2802      	cmp	r0, #2
   20af0:	d00c      	beq.n	20b0c <_ZN20complex_dynamic_type3app17h1613718388bd7ac5E+0xe8>
   20af2:	2803      	cmp	r0, #3
   20af4:	d105      	bne.n	20b02 <_ZN20complex_dynamic_type3app17h1613718388bd7ac5E+0xde>
   20af6:	481e      	ldr	r0, [pc, #120]	@ (20b70 <_ZN20complex_dynamic_type3app17h1613718388bd7ac5E+0x14c>)
   20af8:	2100      	movs	r1, #0
   20afa:	460a      	mov	r2, r1
   20afc:	460b      	mov	r3, r1
   20afe:	df03      	svc	3
   20b00:	e004      	b.n	20b0c <_ZN20complex_dynamic_type3app17h1613718388bd7ac5E+0xe8>
   20b02:	481b      	ldr	r0, [pc, #108]	@ (20b70 <_ZN20complex_dynamic_type3app17h1613718388bd7ac5E+0x14c>)
   20b04:	2100      	movs	r1, #0
   20b06:	460a      	mov	r2, r1
   20b08:	460b      	mov	r3, r1
   20b0a:	df04      	svc	4
   20b0c:	a804      	add	r0, sp, #16
   20b0e:	9900      	ldr	r1, [sp, #0]
   20b10:	7001      	strb	r1, [r0, #0]
   20b12:	a813      	add	r0, sp, #76	@ 0x4c
   20b14:	7800      	ldrb	r0, [r0, #0]
   20b16:	2804      	cmp	r0, #4
   20b18:	d007      	beq.n	20b2a <_ZN20complex_dynamic_type3app17h1613718388bd7ac5E+0x106>
   20b1a:	2803      	cmp	r0, #3
   20b1c:	d11d      	bne.n	20b5a <_ZN20complex_dynamic_type3app17h1613718388bd7ac5E+0x136>
   20b1e:	4814      	ldr	r0, [pc, #80]	@ (20b70 <_ZN20complex_dynamic_type3app17h1613718388bd7ac5E+0x14c>)
   20b20:	2105      	movs	r1, #5
   20b22:	2200      	movs	r2, #0
   20b24:	4613      	mov	r3, r2
   20b26:	df03      	svc	3
   20b28:	e004      	b.n	20b34 <_ZN20complex_dynamic_type3app17h1613718388bd7ac5E+0x110>
   20b2a:	4811      	ldr	r0, [pc, #68]	@ (20b70 <_ZN20complex_dynamic_type3app17h1613718388bd7ac5E+0x14c>)
   20b2c:	2105      	movs	r1, #5
   20b2e:	2200      	movs	r2, #0
   20b30:	4613      	mov	r3, r2
   20b32:	df04      	svc	4
   20b34:	a804      	add	r0, sp, #16
   20b36:	7804      	ldrb	r4, [r0, #0]
   20b38:	1c68      	adds	r0, r5, #1
   20b3a:	225d      	movs	r2, #93	@ 0x5d
   20b3c:	9901      	ldr	r1, [sp, #4]
   20b3e:	f00a fae1 	bl	2b104 <__aeabi_memcpy>
   20b42:	702e      	strb	r6, [r5, #0]
   20b44:	2c02      	cmp	r4, #2
   20b46:	d006      	beq.n	20b56 <_ZN20complex_dynamic_type3app17h1613718388bd7ac5E+0x132>
   20b48:	4809      	ldr	r0, [pc, #36]	@ (20b70 <_ZN20complex_dynamic_type3app17h1613718388bd7ac5E+0x14c>)
   20b4a:	2100      	movs	r1, #0
   20b4c:	460a      	mov	r2, r1
   20b4e:	460b      	mov	r3, r1
   20b50:	2c04      	cmp	r4, #4
   20b52:	d10a      	bne.n	20b6a <_ZN20complex_dynamic_type3app17h1613718388bd7ac5E+0x146>
   20b54:	df04      	svc	4
   20b56:	b02b      	add	sp, #172	@ 0xac
   20b58:	bdf0      	pop	{r4, r5, r6, r7, pc}
   20b5a:	1c68      	adds	r0, r5, #1
   20b5c:	225d      	movs	r2, #93	@ 0x5d
   20b5e:	4621      	mov	r1, r4
   20b60:	f00a fad0 	bl	2b104 <__aeabi_memcpy>
   20b64:	702e      	strb	r6, [r5, #0]
   20b66:	b02b      	add	sp, #172	@ 0xac
   20b68:	bdf0      	pop	{r4, r5, r6, r7, pc}
   20b6a:	df03      	svc	3
   20b6c:	b02b      	add	sp, #172	@ 0xac
   20b6e:	bdf0      	pop	{r4, r5, r6, r7, pc}
   20b70:	000014a4 	.word	0x000014a4

00020b74 <_ZN20complex_dynamic_type3app17h25cb69d935022c0aE>:
   20b74:	b5f0      	push	{r4, r5, r6, r7, lr}
   20b76:	af03      	add	r7, sp, #12
   20b78:	b0a9      	sub	sp, #164	@ 0xa4
   20b7a:	9003      	str	r0, [sp, #12]
   20b7c:	a804      	add	r0, sp, #16
   20b7e:	2402      	movs	r4, #2
   20b80:	7004      	strb	r4, [r0, #0]
   20b82:	1c46      	adds	r6, r0, #1
   20b84:	2263      	movs	r2, #99	@ 0x63
   20b86:	9202      	str	r2, [sp, #8]
   20b88:	4630      	mov	r0, r6
   20b8a:	f00a fabb 	bl	2b104 <__aeabi_memcpy>
   20b8e:	ad1d      	add	r5, sp, #116	@ 0x74
   20b90:	1c68      	adds	r0, r5, #1
   20b92:	212c      	movs	r1, #44	@ 0x2c
   20b94:	9001      	str	r0, [sp, #4]
   20b96:	f00a f8f5 	bl	2ad84 <__aeabi_memclr>
   20b9a:	9400      	str	r4, [sp, #0]
   20b9c:	702c      	strb	r4, [r5, #0]
   20b9e:	2018      	movs	r0, #24
   20ba0:	2105      	movs	r1, #5
   20ba2:	4632      	mov	r2, r6
   20ba4:	9b02      	ldr	r3, [sp, #8]
   20ba6:	df04      	svc	4
   20ba8:	2802      	cmp	r0, #2
   20baa:	d104      	bne.n	20bb6 <_ZN20complex_dynamic_type3app17h25cb69d935022c0aE+0x42>
   20bac:	2001      	movs	r0, #1
   20bae:	9a03      	ldr	r2, [sp, #12]
   20bb0:	7010      	strb	r0, [r2, #0]
   20bb2:	6051      	str	r1, [r2, #4]
   20bb4:	e02c      	b.n	20c10 <_ZN20complex_dynamic_type3app17h25cb69d935022c0aE+0x9c>
   20bb6:	9d03      	ldr	r5, [sp, #12]
   20bb8:	a804      	add	r0, sp, #16
   20bba:	2104      	movs	r1, #4
   20bbc:	7001      	strb	r1, [r0, #0]
   20bbe:	2018      	movs	r0, #24
   20bc0:	2403      	movs	r4, #3
   20bc2:	232c      	movs	r3, #44	@ 0x2c
   20bc4:	4621      	mov	r1, r4
   20bc6:	9a01      	ldr	r2, [sp, #4]
   20bc8:	df03      	svc	3
   20bca:	2802      	cmp	r0, #2
   20bcc:	d10e      	bne.n	20bec <_ZN20complex_dynamic_type3app17h25cb69d935022c0aE+0x78>
   20bce:	2001      	movs	r0, #1
   20bd0:	7028      	strb	r0, [r5, #0]
   20bd2:	6069      	str	r1, [r5, #4]
   20bd4:	a81d      	add	r0, sp, #116	@ 0x74
   20bd6:	7800      	ldrb	r0, [r0, #0]
   20bd8:	2802      	cmp	r0, #2
   20bda:	d019      	beq.n	20c10 <_ZN20complex_dynamic_type3app17h25cb69d935022c0aE+0x9c>
   20bdc:	2803      	cmp	r0, #3
   20bde:	d012      	beq.n	20c06 <_ZN20complex_dynamic_type3app17h25cb69d935022c0aE+0x92>
   20be0:	2018      	movs	r0, #24
   20be2:	2103      	movs	r1, #3
   20be4:	2200      	movs	r2, #0
   20be6:	4613      	mov	r3, r2
   20be8:	df04      	svc	4
   20bea:	e011      	b.n	20c10 <_ZN20complex_dynamic_type3app17h25cb69d935022c0aE+0x9c>
   20bec:	a81d      	add	r0, sp, #116	@ 0x74
   20bee:	7004      	strb	r4, [r0, #0]
   20bf0:	2018      	movs	r0, #24
   20bf2:	2105      	movs	r1, #5
   20bf4:	2600      	movs	r6, #0
   20bf6:	4622      	mov	r2, r4
   20bf8:	4633      	mov	r3, r6
   20bfa:	df02      	svc	2
   20bfc:	2880      	cmp	r0, #128	@ 0x80
   20bfe:	d21b      	bcs.n	20c38 <_ZN20complex_dynamic_type3app17h25cb69d935022c0aE+0xc4>
   20c00:	2001      	movs	r0, #1
   20c02:	7028      	strb	r0, [r5, #0]
   20c04:	6069      	str	r1, [r5, #4]
   20c06:	2018      	movs	r0, #24
   20c08:	2103      	movs	r1, #3
   20c0a:	2200      	movs	r2, #0
   20c0c:	4613      	mov	r3, r2
   20c0e:	df03      	svc	3
   20c10:	a804      	add	r0, sp, #16
   20c12:	7800      	ldrb	r0, [r0, #0]
   20c14:	2802      	cmp	r0, #2
   20c16:	d045      	beq.n	20ca4 <_ZN20complex_dynamic_type3app17h25cb69d935022c0aE+0x130>
   20c18:	2804      	cmp	r0, #4
   20c1a:	d106      	bne.n	20c2a <_ZN20complex_dynamic_type3app17h25cb69d935022c0aE+0xb6>
   20c1c:	2018      	movs	r0, #24
   20c1e:	2105      	movs	r1, #5
   20c20:	2200      	movs	r2, #0
   20c22:	4613      	mov	r3, r2
   20c24:	df04      	svc	4
   20c26:	b029      	add	sp, #164	@ 0xa4
   20c28:	bdf0      	pop	{r4, r5, r6, r7, pc}
   20c2a:	2018      	movs	r0, #24
   20c2c:	2105      	movs	r1, #5
   20c2e:	2200      	movs	r2, #0
   20c30:	4613      	mov	r3, r2
   20c32:	df03      	svc	3
   20c34:	b029      	add	sp, #164	@ 0xa4
   20c36:	bdf0      	pop	{r4, r5, r6, r7, pc}
   20c38:	a804      	add	r0, sp, #16
   20c3a:	7800      	ldrb	r0, [r0, #0]
   20c3c:	2802      	cmp	r0, #2
   20c3e:	d00c      	beq.n	20c5a <_ZN20complex_dynamic_type3app17h25cb69d935022c0aE+0xe6>
   20c40:	2803      	cmp	r0, #3
   20c42:	d105      	bne.n	20c50 <_ZN20complex_dynamic_type3app17h25cb69d935022c0aE+0xdc>
   20c44:	2018      	movs	r0, #24
   20c46:	2105      	movs	r1, #5
   20c48:	2200      	movs	r2, #0
   20c4a:	4613      	mov	r3, r2
   20c4c:	df03      	svc	3
   20c4e:	e004      	b.n	20c5a <_ZN20complex_dynamic_type3app17h25cb69d935022c0aE+0xe6>
   20c50:	2018      	movs	r0, #24
   20c52:	2105      	movs	r1, #5
   20c54:	2200      	movs	r2, #0
   20c56:	4613      	mov	r3, r2
   20c58:	df04      	svc	4
   20c5a:	a804      	add	r0, sp, #16
   20c5c:	9900      	ldr	r1, [sp, #0]
   20c5e:	7001      	strb	r1, [r0, #0]
   20c60:	a81d      	add	r0, sp, #116	@ 0x74
   20c62:	7800      	ldrb	r0, [r0, #0]
   20c64:	2804      	cmp	r0, #4
   20c66:	d007      	beq.n	20c78 <_ZN20complex_dynamic_type3app17h25cb69d935022c0aE+0x104>
   20c68:	2803      	cmp	r0, #3
   20c6a:	d11d      	bne.n	20ca8 <_ZN20complex_dynamic_type3app17h25cb69d935022c0aE+0x134>
   20c6c:	2018      	movs	r0, #24
   20c6e:	2103      	movs	r1, #3
   20c70:	2200      	movs	r2, #0
   20c72:	4613      	mov	r3, r2
   20c74:	df03      	svc	3
   20c76:	e004      	b.n	20c82 <_ZN20complex_dynamic_type3app17h25cb69d935022c0aE+0x10e>
   20c78:	2018      	movs	r0, #24
   20c7a:	2103      	movs	r1, #3
   20c7c:	2200      	movs	r2, #0
   20c7e:	4613      	mov	r3, r2
   20c80:	df04      	svc	4
   20c82:	a804      	add	r0, sp, #16
   20c84:	7804      	ldrb	r4, [r0, #0]
   20c86:	1c68      	adds	r0, r5, #1
   20c88:	222c      	movs	r2, #44	@ 0x2c
   20c8a:	9901      	ldr	r1, [sp, #4]
   20c8c:	f00a fa3a 	bl	2b104 <__aeabi_memcpy>
   20c90:	702e      	strb	r6, [r5, #0]
   20c92:	2c02      	cmp	r4, #2
   20c94:	d006      	beq.n	20ca4 <_ZN20complex_dynamic_type3app17h25cb69d935022c0aE+0x130>
   20c96:	2018      	movs	r0, #24
   20c98:	2105      	movs	r1, #5
   20c9a:	2200      	movs	r2, #0
   20c9c:	4613      	mov	r3, r2
   20c9e:	2c04      	cmp	r4, #4
   20ca0:	d10a      	bne.n	20cb8 <_ZN20complex_dynamic_type3app17h25cb69d935022c0aE+0x144>
   20ca2:	df04      	svc	4
   20ca4:	b029      	add	sp, #164	@ 0xa4
   20ca6:	bdf0      	pop	{r4, r5, r6, r7, pc}
   20ca8:	1c68      	adds	r0, r5, #1
   20caa:	222c      	movs	r2, #44	@ 0x2c
   20cac:	9901      	ldr	r1, [sp, #4]
   20cae:	f00a fa29 	bl	2b104 <__aeabi_memcpy>
   20cb2:	702e      	strb	r6, [r5, #0]
   20cb4:	b029      	add	sp, #164	@ 0xa4
   20cb6:	bdf0      	pop	{r4, r5, r6, r7, pc}
   20cb8:	df03      	svc	3
   20cba:	b029      	add	sp, #164	@ 0xa4
   20cbc:	bdf0      	pop	{r4, r5, r6, r7, pc}
   20cbe:	d4d4      	bmi.n	20c6a <_ZN20complex_dynamic_type3app17h25cb69d935022c0aE+0xf6>

00020cc0 <_ZN20complex_dynamic_type3app17h26498d2331a2ac79E>:
   20cc0:	b5f0      	push	{r4, r5, r6, r7, lr}
   20cc2:	af03      	add	r7, sp, #12
   20cc4:	b0a1      	sub	sp, #132	@ 0x84
   20cc6:	9004      	str	r0, [sp, #16]
   20cc8:	a805      	add	r0, sp, #20
   20cca:	2402      	movs	r4, #2
   20ccc:	7004      	strb	r4, [r0, #0]
   20cce:	1c46      	adds	r6, r0, #1
   20cd0:	221a      	movs	r2, #26
   20cd2:	9203      	str	r2, [sp, #12]
   20cd4:	4630      	mov	r0, r6
   20cd6:	f00a fa15 	bl	2b104 <__aeabi_memcpy>
   20cda:	ad0c      	add	r5, sp, #48	@ 0x30
   20cdc:	1c68      	adds	r0, r5, #1
   20cde:	2150      	movs	r1, #80	@ 0x50
   20ce0:	9002      	str	r0, [sp, #8]
   20ce2:	f00a f84f 	bl	2ad84 <__aeabi_memclr>
   20ce6:	9401      	str	r4, [sp, #4]
   20ce8:	702c      	strb	r4, [r5, #0]
   20cea:	4848      	ldr	r0, [pc, #288]	@ (20e0c <_ZN20complex_dynamic_type3app17h26498d2331a2ac79E+0x14c>)
   20cec:	2107      	movs	r1, #7
   20cee:	4632      	mov	r2, r6
   20cf0:	9b03      	ldr	r3, [sp, #12]
   20cf2:	df04      	svc	4
   20cf4:	2802      	cmp	r0, #2
   20cf6:	d104      	bne.n	20d02 <_ZN20complex_dynamic_type3app17h26498d2331a2ac79E+0x42>
   20cf8:	2001      	movs	r0, #1
   20cfa:	9a04      	ldr	r2, [sp, #16]
   20cfc:	7010      	strb	r0, [r2, #0]
   20cfe:	6051      	str	r1, [r2, #4]
   20d00:	e02c      	b.n	20d5c <_ZN20complex_dynamic_type3app17h26498d2331a2ac79E+0x9c>
   20d02:	9d04      	ldr	r5, [sp, #16]
   20d04:	a805      	add	r0, sp, #20
   20d06:	2104      	movs	r1, #4
   20d08:	7001      	strb	r1, [r0, #0]
   20d0a:	4840      	ldr	r0, [pc, #256]	@ (20e0c <_ZN20complex_dynamic_type3app17h26498d2331a2ac79E+0x14c>)
   20d0c:	2350      	movs	r3, #80	@ 0x50
   20d0e:	9c02      	ldr	r4, [sp, #8]
   20d10:	4622      	mov	r2, r4
   20d12:	df03      	svc	3
   20d14:	2802      	cmp	r0, #2
   20d16:	d10e      	bne.n	20d36 <_ZN20complex_dynamic_type3app17h26498d2331a2ac79E+0x76>
   20d18:	2001      	movs	r0, #1
   20d1a:	7028      	strb	r0, [r5, #0]
   20d1c:	6069      	str	r1, [r5, #4]
   20d1e:	a80c      	add	r0, sp, #48	@ 0x30
   20d20:	7800      	ldrb	r0, [r0, #0]
   20d22:	2802      	cmp	r0, #2
   20d24:	d01a      	beq.n	20d5c <_ZN20complex_dynamic_type3app17h26498d2331a2ac79E+0x9c>
   20d26:	2803      	cmp	r0, #3
   20d28:	d013      	beq.n	20d52 <_ZN20complex_dynamic_type3app17h26498d2331a2ac79E+0x92>
   20d2a:	4838      	ldr	r0, [pc, #224]	@ (20e0c <_ZN20complex_dynamic_type3app17h26498d2331a2ac79E+0x14c>)
   20d2c:	2104      	movs	r1, #4
   20d2e:	2200      	movs	r2, #0
   20d30:	4613      	mov	r3, r2
   20d32:	df04      	svc	4
   20d34:	e012      	b.n	20d5c <_ZN20complex_dynamic_type3app17h26498d2331a2ac79E+0x9c>
   20d36:	a80c      	add	r0, sp, #48	@ 0x30
   20d38:	2103      	movs	r1, #3
   20d3a:	7001      	strb	r1, [r0, #0]
   20d3c:	4833      	ldr	r0, [pc, #204]	@ (20e0c <_ZN20complex_dynamic_type3app17h26498d2331a2ac79E+0x14c>)
   20d3e:	2107      	movs	r1, #7
   20d40:	2204      	movs	r2, #4
   20d42:	2600      	movs	r6, #0
   20d44:	4633      	mov	r3, r6
   20d46:	df02      	svc	2
   20d48:	2880      	cmp	r0, #128	@ 0x80
   20d4a:	d21b      	bcs.n	20d84 <_ZN20complex_dynamic_type3app17h26498d2331a2ac79E+0xc4>
   20d4c:	2001      	movs	r0, #1
   20d4e:	7028      	strb	r0, [r5, #0]
   20d50:	6069      	str	r1, [r5, #4]
   20d52:	482e      	ldr	r0, [pc, #184]	@ (20e0c <_ZN20complex_dynamic_type3app17h26498d2331a2ac79E+0x14c>)
   20d54:	2104      	movs	r1, #4
   20d56:	2200      	movs	r2, #0
   20d58:	4613      	mov	r3, r2
   20d5a:	df03      	svc	3
   20d5c:	a805      	add	r0, sp, #20
   20d5e:	7800      	ldrb	r0, [r0, #0]
   20d60:	2802      	cmp	r0, #2
   20d62:	d045      	beq.n	20df0 <_ZN20complex_dynamic_type3app17h26498d2331a2ac79E+0x130>
   20d64:	2804      	cmp	r0, #4
   20d66:	d106      	bne.n	20d76 <_ZN20complex_dynamic_type3app17h26498d2331a2ac79E+0xb6>
   20d68:	4828      	ldr	r0, [pc, #160]	@ (20e0c <_ZN20complex_dynamic_type3app17h26498d2331a2ac79E+0x14c>)
   20d6a:	2107      	movs	r1, #7
   20d6c:	2200      	movs	r2, #0
   20d6e:	4613      	mov	r3, r2
   20d70:	df04      	svc	4
   20d72:	b021      	add	sp, #132	@ 0x84
   20d74:	bdf0      	pop	{r4, r5, r6, r7, pc}
   20d76:	4825      	ldr	r0, [pc, #148]	@ (20e0c <_ZN20complex_dynamic_type3app17h26498d2331a2ac79E+0x14c>)
   20d78:	2107      	movs	r1, #7
   20d7a:	2200      	movs	r2, #0
   20d7c:	4613      	mov	r3, r2
   20d7e:	df03      	svc	3
   20d80:	b021      	add	sp, #132	@ 0x84
   20d82:	bdf0      	pop	{r4, r5, r6, r7, pc}
   20d84:	a805      	add	r0, sp, #20
   20d86:	7800      	ldrb	r0, [r0, #0]
   20d88:	2802      	cmp	r0, #2
   20d8a:	d00c      	beq.n	20da6 <_ZN20complex_dynamic_type3app17h26498d2331a2ac79E+0xe6>
   20d8c:	2803      	cmp	r0, #3
   20d8e:	d105      	bne.n	20d9c <_ZN20complex_dynamic_type3app17h26498d2331a2ac79E+0xdc>
   20d90:	481e      	ldr	r0, [pc, #120]	@ (20e0c <_ZN20complex_dynamic_type3app17h26498d2331a2ac79E+0x14c>)
   20d92:	2107      	movs	r1, #7
   20d94:	2200      	movs	r2, #0
   20d96:	4613      	mov	r3, r2
   20d98:	df03      	svc	3
   20d9a:	e004      	b.n	20da6 <_ZN20complex_dynamic_type3app17h26498d2331a2ac79E+0xe6>
   20d9c:	481b      	ldr	r0, [pc, #108]	@ (20e0c <_ZN20complex_dynamic_type3app17h26498d2331a2ac79E+0x14c>)
   20d9e:	2107      	movs	r1, #7
   20da0:	2200      	movs	r2, #0
   20da2:	4613      	mov	r3, r2
   20da4:	df04      	svc	4
   20da6:	a805      	add	r0, sp, #20
   20da8:	9901      	ldr	r1, [sp, #4]
   20daa:	7001      	strb	r1, [r0, #0]
   20dac:	a80c      	add	r0, sp, #48	@ 0x30
   20dae:	7800      	ldrb	r0, [r0, #0]
   20db0:	2804      	cmp	r0, #4
   20db2:	d007      	beq.n	20dc4 <_ZN20complex_dynamic_type3app17h26498d2331a2ac79E+0x104>
   20db4:	2803      	cmp	r0, #3
   20db6:	d11d      	bne.n	20df4 <_ZN20complex_dynamic_type3app17h26498d2331a2ac79E+0x134>
   20db8:	4814      	ldr	r0, [pc, #80]	@ (20e0c <_ZN20complex_dynamic_type3app17h26498d2331a2ac79E+0x14c>)
   20dba:	2104      	movs	r1, #4
   20dbc:	2200      	movs	r2, #0
   20dbe:	4613      	mov	r3, r2
   20dc0:	df03      	svc	3
   20dc2:	e004      	b.n	20dce <_ZN20complex_dynamic_type3app17h26498d2331a2ac79E+0x10e>
   20dc4:	4811      	ldr	r0, [pc, #68]	@ (20e0c <_ZN20complex_dynamic_type3app17h26498d2331a2ac79E+0x14c>)
   20dc6:	2104      	movs	r1, #4
   20dc8:	2200      	movs	r2, #0
   20dca:	4613      	mov	r3, r2
   20dcc:	df04      	svc	4
   20dce:	a805      	add	r0, sp, #20
   20dd0:	7804      	ldrb	r4, [r0, #0]
   20dd2:	1c68      	adds	r0, r5, #1
   20dd4:	2250      	movs	r2, #80	@ 0x50
   20dd6:	9902      	ldr	r1, [sp, #8]
   20dd8:	f00a f994 	bl	2b104 <__aeabi_memcpy>
   20ddc:	702e      	strb	r6, [r5, #0]
   20dde:	2c02      	cmp	r4, #2
   20de0:	d006      	beq.n	20df0 <_ZN20complex_dynamic_type3app17h26498d2331a2ac79E+0x130>
   20de2:	480a      	ldr	r0, [pc, #40]	@ (20e0c <_ZN20complex_dynamic_type3app17h26498d2331a2ac79E+0x14c>)
   20de4:	2107      	movs	r1, #7
   20de6:	2200      	movs	r2, #0
   20de8:	4613      	mov	r3, r2
   20dea:	2c04      	cmp	r4, #4
   20dec:	d10a      	bne.n	20e04 <_ZN20complex_dynamic_type3app17h26498d2331a2ac79E+0x144>
   20dee:	df04      	svc	4
   20df0:	b021      	add	sp, #132	@ 0x84
   20df2:	bdf0      	pop	{r4, r5, r6, r7, pc}
   20df4:	1c68      	adds	r0, r5, #1
   20df6:	2250      	movs	r2, #80	@ 0x50
   20df8:	4621      	mov	r1, r4
   20dfa:	f00a f983 	bl	2b104 <__aeabi_memcpy>
   20dfe:	702e      	strb	r6, [r5, #0]
   20e00:	b021      	add	sp, #132	@ 0x84
   20e02:	bdf0      	pop	{r4, r5, r6, r7, pc}
   20e04:	df03      	svc	3
   20e06:	b021      	add	sp, #132	@ 0x84
   20e08:	bdf0      	pop	{r4, r5, r6, r7, pc}
   20e0a:	46c0      	nop			@ (mov r8, r8)
   20e0c:	00000aee 	.word	0x00000aee

00020e10 <_ZN20complex_dynamic_type3app17h2875d8247c0d3625E>:
   20e10:	b5f0      	push	{r4, r5, r6, r7, lr}
   20e12:	af03      	add	r7, sp, #12
   20e14:	b09b      	sub	sp, #108	@ 0x6c
   20e16:	9003      	str	r0, [sp, #12]
   20e18:	a804      	add	r0, sp, #16
   20e1a:	2602      	movs	r6, #2
   20e1c:	7006      	strb	r6, [r0, #0]
   20e1e:	1c40      	adds	r0, r0, #1
   20e20:	9002      	str	r0, [sp, #8]
   20e22:	2512      	movs	r5, #18
   20e24:	462a      	mov	r2, r5
   20e26:	f00a f96d 	bl	2b104 <__aeabi_memcpy>
   20e2a:	ac09      	add	r4, sp, #36	@ 0x24
   20e2c:	1c60      	adds	r0, r4, #1
   20e2e:	2144      	movs	r1, #68	@ 0x44
   20e30:	9001      	str	r0, [sp, #4]
   20e32:	f009 ffa7 	bl	2ad84 <__aeabi_memclr>
   20e36:	7026      	strb	r6, [r4, #0]
   20e38:	484a      	ldr	r0, [pc, #296]	@ (20f64 <_ZN20complex_dynamic_type3app17h2875d8247c0d3625E+0x154>)
   20e3a:	4631      	mov	r1, r6
   20e3c:	9a02      	ldr	r2, [sp, #8]
   20e3e:	462b      	mov	r3, r5
   20e40:	df04      	svc	4
   20e42:	2802      	cmp	r0, #2
   20e44:	d104      	bne.n	20e50 <_ZN20complex_dynamic_type3app17h2875d8247c0d3625E+0x40>
   20e46:	2001      	movs	r0, #1
   20e48:	9a03      	ldr	r2, [sp, #12]
   20e4a:	7010      	strb	r0, [r2, #0]
   20e4c:	6051      	str	r1, [r2, #4]
   20e4e:	e02e      	b.n	20eae <_ZN20complex_dynamic_type3app17h2875d8247c0d3625E+0x9e>
   20e50:	9d03      	ldr	r5, [sp, #12]
   20e52:	a804      	add	r0, sp, #16
   20e54:	2104      	movs	r1, #4
   20e56:	7001      	strb	r1, [r0, #0]
   20e58:	4842      	ldr	r0, [pc, #264]	@ (20f64 <_ZN20complex_dynamic_type3app17h2875d8247c0d3625E+0x154>)
   20e5a:	2109      	movs	r1, #9
   20e5c:	2344      	movs	r3, #68	@ 0x44
   20e5e:	9c01      	ldr	r4, [sp, #4]
   20e60:	4622      	mov	r2, r4
   20e62:	df03      	svc	3
   20e64:	2802      	cmp	r0, #2
   20e66:	d10e      	bne.n	20e86 <_ZN20complex_dynamic_type3app17h2875d8247c0d3625E+0x76>
   20e68:	2001      	movs	r0, #1
   20e6a:	7028      	strb	r0, [r5, #0]
   20e6c:	6069      	str	r1, [r5, #4]
   20e6e:	a809      	add	r0, sp, #36	@ 0x24
   20e70:	7800      	ldrb	r0, [r0, #0]
   20e72:	2802      	cmp	r0, #2
   20e74:	d01b      	beq.n	20eae <_ZN20complex_dynamic_type3app17h2875d8247c0d3625E+0x9e>
   20e76:	2803      	cmp	r0, #3
   20e78:	d014      	beq.n	20ea4 <_ZN20complex_dynamic_type3app17h2875d8247c0d3625E+0x94>
   20e7a:	483a      	ldr	r0, [pc, #232]	@ (20f64 <_ZN20complex_dynamic_type3app17h2875d8247c0d3625E+0x154>)
   20e7c:	2109      	movs	r1, #9
   20e7e:	2200      	movs	r2, #0
   20e80:	4613      	mov	r3, r2
   20e82:	df04      	svc	4
   20e84:	e013      	b.n	20eae <_ZN20complex_dynamic_type3app17h2875d8247c0d3625E+0x9e>
   20e86:	a809      	add	r0, sp, #36	@ 0x24
   20e88:	2103      	movs	r1, #3
   20e8a:	7001      	strb	r1, [r0, #0]
   20e8c:	4835      	ldr	r0, [pc, #212]	@ (20f64 <_ZN20complex_dynamic_type3app17h2875d8247c0d3625E+0x154>)
   20e8e:	2602      	movs	r6, #2
   20e90:	2209      	movs	r2, #9
   20e92:	2300      	movs	r3, #0
   20e94:	4631      	mov	r1, r6
   20e96:	9302      	str	r3, [sp, #8]
   20e98:	df02      	svc	2
   20e9a:	2880      	cmp	r0, #128	@ 0x80
   20e9c:	d21b      	bcs.n	20ed6 <_ZN20complex_dynamic_type3app17h2875d8247c0d3625E+0xc6>
   20e9e:	2001      	movs	r0, #1
   20ea0:	7028      	strb	r0, [r5, #0]
   20ea2:	6069      	str	r1, [r5, #4]
   20ea4:	482f      	ldr	r0, [pc, #188]	@ (20f64 <_ZN20complex_dynamic_type3app17h2875d8247c0d3625E+0x154>)
   20ea6:	2109      	movs	r1, #9
   20ea8:	2200      	movs	r2, #0
   20eaa:	4613      	mov	r3, r2
   20eac:	df03      	svc	3
   20eae:	a804      	add	r0, sp, #16
   20eb0:	7800      	ldrb	r0, [r0, #0]
   20eb2:	2802      	cmp	r0, #2
   20eb4:	d047      	beq.n	20f46 <_ZN20complex_dynamic_type3app17h2875d8247c0d3625E+0x136>
   20eb6:	2804      	cmp	r0, #4
   20eb8:	d106      	bne.n	20ec8 <_ZN20complex_dynamic_type3app17h2875d8247c0d3625E+0xb8>
   20eba:	482a      	ldr	r0, [pc, #168]	@ (20f64 <_ZN20complex_dynamic_type3app17h2875d8247c0d3625E+0x154>)
   20ebc:	2102      	movs	r1, #2
   20ebe:	2200      	movs	r2, #0
   20ec0:	4613      	mov	r3, r2
   20ec2:	df04      	svc	4
   20ec4:	b01b      	add	sp, #108	@ 0x6c
   20ec6:	bdf0      	pop	{r4, r5, r6, r7, pc}
   20ec8:	4826      	ldr	r0, [pc, #152]	@ (20f64 <_ZN20complex_dynamic_type3app17h2875d8247c0d3625E+0x154>)
   20eca:	2102      	movs	r1, #2
   20ecc:	2200      	movs	r2, #0
   20ece:	4613      	mov	r3, r2
   20ed0:	df03      	svc	3
   20ed2:	b01b      	add	sp, #108	@ 0x6c
   20ed4:	bdf0      	pop	{r4, r5, r6, r7, pc}
   20ed6:	a804      	add	r0, sp, #16
   20ed8:	7800      	ldrb	r0, [r0, #0]
   20eda:	2802      	cmp	r0, #2
   20edc:	d00c      	beq.n	20ef8 <_ZN20complex_dynamic_type3app17h2875d8247c0d3625E+0xe8>
   20ede:	2803      	cmp	r0, #3
   20ee0:	d105      	bne.n	20eee <_ZN20complex_dynamic_type3app17h2875d8247c0d3625E+0xde>
   20ee2:	4820      	ldr	r0, [pc, #128]	@ (20f64 <_ZN20complex_dynamic_type3app17h2875d8247c0d3625E+0x154>)
   20ee4:	2102      	movs	r1, #2
   20ee6:	2200      	movs	r2, #0
   20ee8:	4613      	mov	r3, r2
   20eea:	df03      	svc	3
   20eec:	e004      	b.n	20ef8 <_ZN20complex_dynamic_type3app17h2875d8247c0d3625E+0xe8>
   20eee:	481d      	ldr	r0, [pc, #116]	@ (20f64 <_ZN20complex_dynamic_type3app17h2875d8247c0d3625E+0x154>)
   20ef0:	2102      	movs	r1, #2
   20ef2:	2200      	movs	r2, #0
   20ef4:	4613      	mov	r3, r2
   20ef6:	df04      	svc	4
   20ef8:	a804      	add	r0, sp, #16
   20efa:	7006      	strb	r6, [r0, #0]
   20efc:	a809      	add	r0, sp, #36	@ 0x24
   20efe:	7800      	ldrb	r0, [r0, #0]
   20f00:	2804      	cmp	r0, #4
   20f02:	d008      	beq.n	20f16 <_ZN20complex_dynamic_type3app17h2875d8247c0d3625E+0x106>
   20f04:	2803      	cmp	r0, #3
   20f06:	d120      	bne.n	20f4a <_ZN20complex_dynamic_type3app17h2875d8247c0d3625E+0x13a>
   20f08:	4626      	mov	r6, r4
   20f0a:	4816      	ldr	r0, [pc, #88]	@ (20f64 <_ZN20complex_dynamic_type3app17h2875d8247c0d3625E+0x154>)
   20f0c:	2109      	movs	r1, #9
   20f0e:	2200      	movs	r2, #0
   20f10:	4613      	mov	r3, r2
   20f12:	df03      	svc	3
   20f14:	e005      	b.n	20f22 <_ZN20complex_dynamic_type3app17h2875d8247c0d3625E+0x112>
   20f16:	4626      	mov	r6, r4
   20f18:	4812      	ldr	r0, [pc, #72]	@ (20f64 <_ZN20complex_dynamic_type3app17h2875d8247c0d3625E+0x154>)
   20f1a:	2109      	movs	r1, #9
   20f1c:	2200      	movs	r2, #0
   20f1e:	4613      	mov	r3, r2
   20f20:	df04      	svc	4
   20f22:	a804      	add	r0, sp, #16
   20f24:	7804      	ldrb	r4, [r0, #0]
   20f26:	1c68      	adds	r0, r5, #1
   20f28:	2244      	movs	r2, #68	@ 0x44
   20f2a:	4631      	mov	r1, r6
   20f2c:	f00a f8ea 	bl	2b104 <__aeabi_memcpy>
   20f30:	9802      	ldr	r0, [sp, #8]
   20f32:	7028      	strb	r0, [r5, #0]
   20f34:	2c02      	cmp	r4, #2
   20f36:	d006      	beq.n	20f46 <_ZN20complex_dynamic_type3app17h2875d8247c0d3625E+0x136>
   20f38:	480a      	ldr	r0, [pc, #40]	@ (20f64 <_ZN20complex_dynamic_type3app17h2875d8247c0d3625E+0x154>)
   20f3a:	2102      	movs	r1, #2
   20f3c:	2200      	movs	r2, #0
   20f3e:	4613      	mov	r3, r2
   20f40:	2c04      	cmp	r4, #4
   20f42:	d10b      	bne.n	20f5c <_ZN20complex_dynamic_type3app17h2875d8247c0d3625E+0x14c>
   20f44:	df04      	svc	4
   20f46:	b01b      	add	sp, #108	@ 0x6c
   20f48:	bdf0      	pop	{r4, r5, r6, r7, pc}
   20f4a:	1c68      	adds	r0, r5, #1
   20f4c:	2244      	movs	r2, #68	@ 0x44
   20f4e:	4621      	mov	r1, r4
   20f50:	f00a f8d8 	bl	2b104 <__aeabi_memcpy>
   20f54:	9802      	ldr	r0, [sp, #8]
   20f56:	7028      	strb	r0, [r5, #0]
   20f58:	b01b      	add	sp, #108	@ 0x6c
   20f5a:	bdf0      	pop	{r4, r5, r6, r7, pc}
   20f5c:	df03      	svc	3
   20f5e:	b01b      	add	sp, #108	@ 0x6c
   20f60:	bdf0      	pop	{r4, r5, r6, r7, pc}
   20f62:	46c0      	nop			@ (mov r8, r8)
   20f64:	00002432 	.word	0x00002432

00020f68 <_ZN20complex_dynamic_type3app17h2a6f00d2547e6dedE>:
   20f68:	b5f0      	push	{r4, r5, r6, r7, lr}
   20f6a:	af03      	add	r7, sp, #12
   20f6c:	b091      	sub	sp, #68	@ 0x44
   20f6e:	9002      	str	r0, [sp, #8]
   20f70:	a803      	add	r0, sp, #12
   20f72:	2502      	movs	r5, #2
   20f74:	7005      	strb	r5, [r0, #0]
   20f76:	1c46      	adds	r6, r0, #1
   20f78:	221a      	movs	r2, #26
   20f7a:	9201      	str	r2, [sp, #4]
   20f7c:	4630      	mov	r0, r6
   20f7e:	f00a f8c1 	bl	2b104 <__aeabi_memcpy>
   20f82:	ac0a      	add	r4, sp, #40	@ 0x28
   20f84:	1c60      	adds	r0, r4, #1
   20f86:	211b      	movs	r1, #27
   20f88:	9000      	str	r0, [sp, #0]
   20f8a:	f009 fefb 	bl	2ad84 <__aeabi_memclr>
   20f8e:	7025      	strb	r5, [r4, #0]
   20f90:	484a      	ldr	r0, [pc, #296]	@ (210bc <_ZN20complex_dynamic_type3app17h2a6f00d2547e6dedE+0x154>)
   20f92:	2105      	movs	r1, #5
   20f94:	4632      	mov	r2, r6
   20f96:	9b01      	ldr	r3, [sp, #4]
   20f98:	df04      	svc	4
   20f9a:	2802      	cmp	r0, #2
   20f9c:	d104      	bne.n	20fa8 <_ZN20complex_dynamic_type3app17h2a6f00d2547e6dedE+0x40>
   20f9e:	2001      	movs	r0, #1
   20fa0:	9a02      	ldr	r2, [sp, #8]
   20fa2:	7010      	strb	r0, [r2, #0]
   20fa4:	6051      	str	r1, [r2, #4]
   20fa6:	e02e      	b.n	21006 <_ZN20complex_dynamic_type3app17h2a6f00d2547e6dedE+0x9e>
   20fa8:	9d02      	ldr	r5, [sp, #8]
   20faa:	a803      	add	r0, sp, #12
   20fac:	2104      	movs	r1, #4
   20fae:	7001      	strb	r1, [r0, #0]
   20fb0:	4842      	ldr	r0, [pc, #264]	@ (210bc <_ZN20complex_dynamic_type3app17h2a6f00d2547e6dedE+0x154>)
   20fb2:	2102      	movs	r1, #2
   20fb4:	231b      	movs	r3, #27
   20fb6:	9c00      	ldr	r4, [sp, #0]
   20fb8:	4622      	mov	r2, r4
   20fba:	df03      	svc	3
   20fbc:	2802      	cmp	r0, #2
   20fbe:	d10e      	bne.n	20fde <_ZN20complex_dynamic_type3app17h2a6f00d2547e6dedE+0x76>
   20fc0:	2001      	movs	r0, #1
   20fc2:	7028      	strb	r0, [r5, #0]
   20fc4:	6069      	str	r1, [r5, #4]
   20fc6:	a80a      	add	r0, sp, #40	@ 0x28
   20fc8:	7800      	ldrb	r0, [r0, #0]
   20fca:	2802      	cmp	r0, #2
   20fcc:	d01b      	beq.n	21006 <_ZN20complex_dynamic_type3app17h2a6f00d2547e6dedE+0x9e>
   20fce:	2803      	cmp	r0, #3
   20fd0:	d014      	beq.n	20ffc <_ZN20complex_dynamic_type3app17h2a6f00d2547e6dedE+0x94>
   20fd2:	483a      	ldr	r0, [pc, #232]	@ (210bc <_ZN20complex_dynamic_type3app17h2a6f00d2547e6dedE+0x154>)
   20fd4:	2102      	movs	r1, #2
   20fd6:	2200      	movs	r2, #0
   20fd8:	4613      	mov	r3, r2
   20fda:	df04      	svc	4
   20fdc:	e013      	b.n	21006 <_ZN20complex_dynamic_type3app17h2a6f00d2547e6dedE+0x9e>
   20fde:	a80a      	add	r0, sp, #40	@ 0x28
   20fe0:	2103      	movs	r1, #3
   20fe2:	7001      	strb	r1, [r0, #0]
   20fe4:	4835      	ldr	r0, [pc, #212]	@ (210bc <_ZN20complex_dynamic_type3app17h2a6f00d2547e6dedE+0x154>)
   20fe6:	2105      	movs	r1, #5
   20fe8:	2602      	movs	r6, #2
   20fea:	2300      	movs	r3, #0
   20fec:	4632      	mov	r2, r6
   20fee:	9301      	str	r3, [sp, #4]
   20ff0:	df02      	svc	2
   20ff2:	2880      	cmp	r0, #128	@ 0x80
   20ff4:	d21b      	bcs.n	2102e <_ZN20complex_dynamic_type3app17h2a6f00d2547e6dedE+0xc6>
   20ff6:	2001      	movs	r0, #1
   20ff8:	7028      	strb	r0, [r5, #0]
   20ffa:	6069      	str	r1, [r5, #4]
   20ffc:	482f      	ldr	r0, [pc, #188]	@ (210bc <_ZN20complex_dynamic_type3app17h2a6f00d2547e6dedE+0x154>)
   20ffe:	2102      	movs	r1, #2
   21000:	2200      	movs	r2, #0
   21002:	4613      	mov	r3, r2
   21004:	df03      	svc	3
   21006:	a803      	add	r0, sp, #12
   21008:	7800      	ldrb	r0, [r0, #0]
   2100a:	2802      	cmp	r0, #2
   2100c:	d047      	beq.n	2109e <_ZN20complex_dynamic_type3app17h2a6f00d2547e6dedE+0x136>
   2100e:	2804      	cmp	r0, #4
   21010:	d106      	bne.n	21020 <_ZN20complex_dynamic_type3app17h2a6f00d2547e6dedE+0xb8>
   21012:	482a      	ldr	r0, [pc, #168]	@ (210bc <_ZN20complex_dynamic_type3app17h2a6f00d2547e6dedE+0x154>)
   21014:	2105      	movs	r1, #5
   21016:	2200      	movs	r2, #0
   21018:	4613      	mov	r3, r2
   2101a:	df04      	svc	4
   2101c:	b011      	add	sp, #68	@ 0x44
   2101e:	bdf0      	pop	{r4, r5, r6, r7, pc}
   21020:	4826      	ldr	r0, [pc, #152]	@ (210bc <_ZN20complex_dynamic_type3app17h2a6f00d2547e6dedE+0x154>)
   21022:	2105      	movs	r1, #5
   21024:	2200      	movs	r2, #0
   21026:	4613      	mov	r3, r2
   21028:	df03      	svc	3
   2102a:	b011      	add	sp, #68	@ 0x44
   2102c:	bdf0      	pop	{r4, r5, r6, r7, pc}
   2102e:	a803      	add	r0, sp, #12
   21030:	7800      	ldrb	r0, [r0, #0]
   21032:	2802      	cmp	r0, #2
   21034:	d00c      	beq.n	21050 <_ZN20complex_dynamic_type3app17h2a6f00d2547e6dedE+0xe8>
   21036:	2803      	cmp	r0, #3
   21038:	d105      	bne.n	21046 <_ZN20complex_dynamic_type3app17h2a6f00d2547e6dedE+0xde>
   2103a:	4820      	ldr	r0, [pc, #128]	@ (210bc <_ZN20complex_dynamic_type3app17h2a6f00d2547e6dedE+0x154>)
   2103c:	2105      	movs	r1, #5
   2103e:	2200      	movs	r2, #0
   21040:	4613      	mov	r3, r2
   21042:	df03      	svc	3
   21044:	e004      	b.n	21050 <_ZN20complex_dynamic_type3app17h2a6f00d2547e6dedE+0xe8>
   21046:	481d      	ldr	r0, [pc, #116]	@ (210bc <_ZN20complex_dynamic_type3app17h2a6f00d2547e6dedE+0x154>)
   21048:	2105      	movs	r1, #5
   2104a:	2200      	movs	r2, #0
   2104c:	4613      	mov	r3, r2
   2104e:	df04      	svc	4
   21050:	a803      	add	r0, sp, #12
   21052:	7006      	strb	r6, [r0, #0]
   21054:	a80a      	add	r0, sp, #40	@ 0x28
   21056:	7800      	ldrb	r0, [r0, #0]
   21058:	2804      	cmp	r0, #4
   2105a:	d008      	beq.n	2106e <_ZN20complex_dynamic_type3app17h2a6f00d2547e6dedE+0x106>
   2105c:	2803      	cmp	r0, #3
   2105e:	d120      	bne.n	210a2 <_ZN20complex_dynamic_type3app17h2a6f00d2547e6dedE+0x13a>
   21060:	4626      	mov	r6, r4
   21062:	4816      	ldr	r0, [pc, #88]	@ (210bc <_ZN20complex_dynamic_type3app17h2a6f00d2547e6dedE+0x154>)
   21064:	2102      	movs	r1, #2
   21066:	2200      	movs	r2, #0
   21068:	4613      	mov	r3, r2
   2106a:	df03      	svc	3
   2106c:	e005      	b.n	2107a <_ZN20complex_dynamic_type3app17h2a6f00d2547e6dedE+0x112>
   2106e:	4626      	mov	r6, r4
   21070:	4812      	ldr	r0, [pc, #72]	@ (210bc <_ZN20complex_dynamic_type3app17h2a6f00d2547e6dedE+0x154>)
   21072:	2102      	movs	r1, #2
   21074:	2200      	movs	r2, #0
   21076:	4613      	mov	r3, r2
   21078:	df04      	svc	4
   2107a:	a803      	add	r0, sp, #12
   2107c:	7804      	ldrb	r4, [r0, #0]
   2107e:	1c68      	adds	r0, r5, #1
   21080:	221b      	movs	r2, #27
   21082:	4631      	mov	r1, r6
   21084:	f00a f83e 	bl	2b104 <__aeabi_memcpy>
   21088:	9801      	ldr	r0, [sp, #4]
   2108a:	7028      	strb	r0, [r5, #0]
   2108c:	2c02      	cmp	r4, #2
   2108e:	d006      	beq.n	2109e <_ZN20complex_dynamic_type3app17h2a6f00d2547e6dedE+0x136>
   21090:	480a      	ldr	r0, [pc, #40]	@ (210bc <_ZN20complex_dynamic_type3app17h2a6f00d2547e6dedE+0x154>)
   21092:	2105      	movs	r1, #5
   21094:	2200      	movs	r2, #0
   21096:	4613      	mov	r3, r2
   21098:	2c04      	cmp	r4, #4
   2109a:	d10b      	bne.n	210b4 <_ZN20complex_dynamic_type3app17h2a6f00d2547e6dedE+0x14c>
   2109c:	df04      	svc	4
   2109e:	b011      	add	sp, #68	@ 0x44
   210a0:	bdf0      	pop	{r4, r5, r6, r7, pc}
   210a2:	1c68      	adds	r0, r5, #1
   210a4:	221b      	movs	r2, #27
   210a6:	4621      	mov	r1, r4
   210a8:	f00a f82c 	bl	2b104 <__aeabi_memcpy>
   210ac:	9801      	ldr	r0, [sp, #4]
   210ae:	7028      	strb	r0, [r5, #0]
   210b0:	b011      	add	sp, #68	@ 0x44
   210b2:	bdf0      	pop	{r4, r5, r6, r7, pc}
   210b4:	df03      	svc	3
   210b6:	b011      	add	sp, #68	@ 0x44
   210b8:	bdf0      	pop	{r4, r5, r6, r7, pc}
   210ba:	46c0      	nop			@ (mov r8, r8)
   210bc:	00001cce 	.word	0x00001cce

000210c0 <_ZN20complex_dynamic_type3app17h2aaf408f17f52fc8E>:
   210c0:	b5f0      	push	{r4, r5, r6, r7, lr}
   210c2:	af03      	add	r7, sp, #12
   210c4:	b095      	sub	sp, #84	@ 0x54
   210c6:	9004      	str	r0, [sp, #16]
   210c8:	a805      	add	r0, sp, #20
   210ca:	2402      	movs	r4, #2
   210cc:	7004      	strb	r4, [r0, #0]
   210ce:	1c46      	adds	r6, r0, #1
   210d0:	2227      	movs	r2, #39	@ 0x27
   210d2:	9203      	str	r2, [sp, #12]
   210d4:	4630      	mov	r0, r6
   210d6:	f00a f815 	bl	2b104 <__aeabi_memcpy>
   210da:	ad0f      	add	r5, sp, #60	@ 0x3c
   210dc:	1c68      	adds	r0, r5, #1
   210de:	2114      	movs	r1, #20
   210e0:	9002      	str	r0, [sp, #8]
   210e2:	f009 fe4f 	bl	2ad84 <__aeabi_memclr>
   210e6:	9401      	str	r4, [sp, #4]
   210e8:	702c      	strb	r4, [r5, #0]
   210ea:	4848      	ldr	r0, [pc, #288]	@ (2120c <_ZN20complex_dynamic_type3app17h2aaf408f17f52fc8E+0x14c>)
   210ec:	2106      	movs	r1, #6
   210ee:	4632      	mov	r2, r6
   210f0:	9b03      	ldr	r3, [sp, #12]
   210f2:	df04      	svc	4
   210f4:	2802      	cmp	r0, #2
   210f6:	d104      	bne.n	21102 <_ZN20complex_dynamic_type3app17h2aaf408f17f52fc8E+0x42>
   210f8:	2001      	movs	r0, #1
   210fa:	9a04      	ldr	r2, [sp, #16]
   210fc:	7010      	strb	r0, [r2, #0]
   210fe:	6051      	str	r1, [r2, #4]
   21100:	e02d      	b.n	2115e <_ZN20complex_dynamic_type3app17h2aaf408f17f52fc8E+0x9e>
   21102:	9d04      	ldr	r5, [sp, #16]
   21104:	a805      	add	r0, sp, #20
   21106:	2104      	movs	r1, #4
   21108:	7001      	strb	r1, [r0, #0]
   2110a:	4840      	ldr	r0, [pc, #256]	@ (2120c <_ZN20complex_dynamic_type3app17h2aaf408f17f52fc8E+0x14c>)
   2110c:	2105      	movs	r1, #5
   2110e:	2314      	movs	r3, #20
   21110:	9c02      	ldr	r4, [sp, #8]
   21112:	4622      	mov	r2, r4
   21114:	df03      	svc	3
   21116:	2802      	cmp	r0, #2
   21118:	d10e      	bne.n	21138 <_ZN20complex_dynamic_type3app17h2aaf408f17f52fc8E+0x78>
   2111a:	2001      	movs	r0, #1
   2111c:	7028      	strb	r0, [r5, #0]
   2111e:	6069      	str	r1, [r5, #4]
   21120:	a80f      	add	r0, sp, #60	@ 0x3c
   21122:	7800      	ldrb	r0, [r0, #0]
   21124:	2802      	cmp	r0, #2
   21126:	d01a      	beq.n	2115e <_ZN20complex_dynamic_type3app17h2aaf408f17f52fc8E+0x9e>
   21128:	2803      	cmp	r0, #3
   2112a:	d013      	beq.n	21154 <_ZN20complex_dynamic_type3app17h2aaf408f17f52fc8E+0x94>
   2112c:	4837      	ldr	r0, [pc, #220]	@ (2120c <_ZN20complex_dynamic_type3app17h2aaf408f17f52fc8E+0x14c>)
   2112e:	2105      	movs	r1, #5
   21130:	2200      	movs	r2, #0
   21132:	4613      	mov	r3, r2
   21134:	df04      	svc	4
   21136:	e012      	b.n	2115e <_ZN20complex_dynamic_type3app17h2aaf408f17f52fc8E+0x9e>
   21138:	a80f      	add	r0, sp, #60	@ 0x3c
   2113a:	2103      	movs	r1, #3
   2113c:	7001      	strb	r1, [r0, #0]
   2113e:	4833      	ldr	r0, [pc, #204]	@ (2120c <_ZN20complex_dynamic_type3app17h2aaf408f17f52fc8E+0x14c>)
   21140:	2106      	movs	r1, #6
   21142:	2205      	movs	r2, #5
   21144:	2600      	movs	r6, #0
   21146:	4633      	mov	r3, r6
   21148:	df02      	svc	2
   2114a:	2880      	cmp	r0, #128	@ 0x80
   2114c:	d21b      	bcs.n	21186 <_ZN20complex_dynamic_type3app17h2aaf408f17f52fc8E+0xc6>
   2114e:	2001      	movs	r0, #1
   21150:	7028      	strb	r0, [r5, #0]
   21152:	6069      	str	r1, [r5, #4]
   21154:	482d      	ldr	r0, [pc, #180]	@ (2120c <_ZN20complex_dynamic_type3app17h2aaf408f17f52fc8E+0x14c>)
   21156:	2105      	movs	r1, #5
   21158:	2200      	movs	r2, #0
   2115a:	4613      	mov	r3, r2
   2115c:	df03      	svc	3
   2115e:	a805      	add	r0, sp, #20
   21160:	7800      	ldrb	r0, [r0, #0]
   21162:	2802      	cmp	r0, #2
   21164:	d045      	beq.n	211f2 <_ZN20complex_dynamic_type3app17h2aaf408f17f52fc8E+0x132>
   21166:	2804      	cmp	r0, #4
   21168:	d106      	bne.n	21178 <_ZN20complex_dynamic_type3app17h2aaf408f17f52fc8E+0xb8>
   2116a:	4828      	ldr	r0, [pc, #160]	@ (2120c <_ZN20complex_dynamic_type3app17h2aaf408f17f52fc8E+0x14c>)
   2116c:	2106      	movs	r1, #6
   2116e:	2200      	movs	r2, #0
   21170:	4613      	mov	r3, r2
   21172:	df04      	svc	4
   21174:	b015      	add	sp, #84	@ 0x54
   21176:	bdf0      	pop	{r4, r5, r6, r7, pc}
   21178:	4824      	ldr	r0, [pc, #144]	@ (2120c <_ZN20complex_dynamic_type3app17h2aaf408f17f52fc8E+0x14c>)
   2117a:	2106      	movs	r1, #6
   2117c:	2200      	movs	r2, #0
   2117e:	4613      	mov	r3, r2
   21180:	df03      	svc	3
   21182:	b015      	add	sp, #84	@ 0x54
   21184:	bdf0      	pop	{r4, r5, r6, r7, pc}
   21186:	a805      	add	r0, sp, #20
   21188:	7800      	ldrb	r0, [r0, #0]
   2118a:	2802      	cmp	r0, #2
   2118c:	d00c      	beq.n	211a8 <_ZN20complex_dynamic_type3app17h2aaf408f17f52fc8E+0xe8>
   2118e:	2803      	cmp	r0, #3
   21190:	d105      	bne.n	2119e <_ZN20complex_dynamic_type3app17h2aaf408f17f52fc8E+0xde>
   21192:	481e      	ldr	r0, [pc, #120]	@ (2120c <_ZN20complex_dynamic_type3app17h2aaf408f17f52fc8E+0x14c>)
   21194:	2106      	movs	r1, #6
   21196:	2200      	movs	r2, #0
   21198:	4613      	mov	r3, r2
   2119a:	df03      	svc	3
   2119c:	e004      	b.n	211a8 <_ZN20complex_dynamic_type3app17h2aaf408f17f52fc8E+0xe8>
   2119e:	481b      	ldr	r0, [pc, #108]	@ (2120c <_ZN20complex_dynamic_type3app17h2aaf408f17f52fc8E+0x14c>)
   211a0:	2106      	movs	r1, #6
   211a2:	2200      	movs	r2, #0
   211a4:	4613      	mov	r3, r2
   211a6:	df04      	svc	4
   211a8:	a805      	add	r0, sp, #20
   211aa:	9901      	ldr	r1, [sp, #4]
   211ac:	7001      	strb	r1, [r0, #0]
   211ae:	a80f      	add	r0, sp, #60	@ 0x3c
   211b0:	7800      	ldrb	r0, [r0, #0]
   211b2:	2804      	cmp	r0, #4
   211b4:	d007      	beq.n	211c6 <_ZN20complex_dynamic_type3app17h2aaf408f17f52fc8E+0x106>
   211b6:	2803      	cmp	r0, #3
   211b8:	d11d      	bne.n	211f6 <_ZN20complex_dynamic_type3app17h2aaf408f17f52fc8E+0x136>
   211ba:	4814      	ldr	r0, [pc, #80]	@ (2120c <_ZN20complex_dynamic_type3app17h2aaf408f17f52fc8E+0x14c>)
   211bc:	2105      	movs	r1, #5
   211be:	2200      	movs	r2, #0
   211c0:	4613      	mov	r3, r2
   211c2:	df03      	svc	3
   211c4:	e004      	b.n	211d0 <_ZN20complex_dynamic_type3app17h2aaf408f17f52fc8E+0x110>
   211c6:	4811      	ldr	r0, [pc, #68]	@ (2120c <_ZN20complex_dynamic_type3app17h2aaf408f17f52fc8E+0x14c>)
   211c8:	2105      	movs	r1, #5
   211ca:	2200      	movs	r2, #0
   211cc:	4613      	mov	r3, r2
   211ce:	df04      	svc	4
   211d0:	a805      	add	r0, sp, #20
   211d2:	7804      	ldrb	r4, [r0, #0]
   211d4:	1c68      	adds	r0, r5, #1
   211d6:	2214      	movs	r2, #20
   211d8:	9902      	ldr	r1, [sp, #8]
   211da:	f009 ff93 	bl	2b104 <__aeabi_memcpy>
   211de:	702e      	strb	r6, [r5, #0]
   211e0:	2c02      	cmp	r4, #2
   211e2:	d006      	beq.n	211f2 <_ZN20complex_dynamic_type3app17h2aaf408f17f52fc8E+0x132>
   211e4:	4809      	ldr	r0, [pc, #36]	@ (2120c <_ZN20complex_dynamic_type3app17h2aaf408f17f52fc8E+0x14c>)
   211e6:	2106      	movs	r1, #6
   211e8:	2200      	movs	r2, #0
   211ea:	4613      	mov	r3, r2
   211ec:	2c04      	cmp	r4, #4
   211ee:	d10a      	bne.n	21206 <_ZN20complex_dynamic_type3app17h2aaf408f17f52fc8E+0x146>
   211f0:	df04      	svc	4
   211f2:	b015      	add	sp, #84	@ 0x54
   211f4:	bdf0      	pop	{r4, r5, r6, r7, pc}
   211f6:	1c68      	adds	r0, r5, #1
   211f8:	2214      	movs	r2, #20
   211fa:	4621      	mov	r1, r4
   211fc:	f009 ff82 	bl	2b104 <__aeabi_memcpy>
   21200:	702e      	strb	r6, [r5, #0]
   21202:	b015      	add	sp, #84	@ 0x54
   21204:	bdf0      	pop	{r4, r5, r6, r7, pc}
   21206:	df03      	svc	3
   21208:	b015      	add	sp, #84	@ 0x54
   2120a:	bdf0      	pop	{r4, r5, r6, r7, pc}
   2120c:	000022c9 	.word	0x000022c9

00021210 <_ZN20complex_dynamic_type3app17h32c43dcc0c278d61E>:
   21210:	b5f0      	push	{r4, r5, r6, r7, lr}
   21212:	af03      	add	r7, sp, #12
   21214:	b0ad      	sub	sp, #180	@ 0xb4
   21216:	9003      	str	r0, [sp, #12]
   21218:	a804      	add	r0, sp, #16
   2121a:	2402      	movs	r4, #2
   2121c:	7004      	strb	r4, [r0, #0]
   2121e:	1c46      	adds	r6, r0, #1
   21220:	2256      	movs	r2, #86	@ 0x56
   21222:	9202      	str	r2, [sp, #8]
   21224:	4630      	mov	r0, r6
   21226:	f009 ff6d 	bl	2b104 <__aeabi_memcpy>
   2122a:	ad1a      	add	r5, sp, #104	@ 0x68
   2122c:	1c68      	adds	r0, r5, #1
   2122e:	2149      	movs	r1, #73	@ 0x49
   21230:	9001      	str	r0, [sp, #4]
   21232:	f009 fda7 	bl	2ad84 <__aeabi_memclr>
   21236:	9400      	str	r4, [sp, #0]
   21238:	702c      	strb	r4, [r5, #0]
   2123a:	4848      	ldr	r0, [pc, #288]	@ (2135c <_ZN20complex_dynamic_type3app17h32c43dcc0c278d61E+0x14c>)
   2123c:	2106      	movs	r1, #6
   2123e:	4632      	mov	r2, r6
   21240:	9b02      	ldr	r3, [sp, #8]
   21242:	df04      	svc	4
   21244:	2802      	cmp	r0, #2
   21246:	d104      	bne.n	21252 <_ZN20complex_dynamic_type3app17h32c43dcc0c278d61E+0x42>
   21248:	2001      	movs	r0, #1
   2124a:	9a03      	ldr	r2, [sp, #12]
   2124c:	7010      	strb	r0, [r2, #0]
   2124e:	6051      	str	r1, [r2, #4]
   21250:	e02d      	b.n	212ae <_ZN20complex_dynamic_type3app17h32c43dcc0c278d61E+0x9e>
   21252:	9d03      	ldr	r5, [sp, #12]
   21254:	a804      	add	r0, sp, #16
   21256:	2104      	movs	r1, #4
   21258:	7001      	strb	r1, [r0, #0]
   2125a:	4840      	ldr	r0, [pc, #256]	@ (2135c <_ZN20complex_dynamic_type3app17h32c43dcc0c278d61E+0x14c>)
   2125c:	2106      	movs	r1, #6
   2125e:	2349      	movs	r3, #73	@ 0x49
   21260:	9c01      	ldr	r4, [sp, #4]
   21262:	4622      	mov	r2, r4
   21264:	df03      	svc	3
   21266:	2802      	cmp	r0, #2
   21268:	d10e      	bne.n	21288 <_ZN20complex_dynamic_type3app17h32c43dcc0c278d61E+0x78>
   2126a:	2001      	movs	r0, #1
   2126c:	7028      	strb	r0, [r5, #0]
   2126e:	6069      	str	r1, [r5, #4]
   21270:	a81a      	add	r0, sp, #104	@ 0x68
   21272:	7800      	ldrb	r0, [r0, #0]
   21274:	2802      	cmp	r0, #2
   21276:	d01a      	beq.n	212ae <_ZN20complex_dynamic_type3app17h32c43dcc0c278d61E+0x9e>
   21278:	2803      	cmp	r0, #3
   2127a:	d013      	beq.n	212a4 <_ZN20complex_dynamic_type3app17h32c43dcc0c278d61E+0x94>
   2127c:	4837      	ldr	r0, [pc, #220]	@ (2135c <_ZN20complex_dynamic_type3app17h32c43dcc0c278d61E+0x14c>)
   2127e:	2106      	movs	r1, #6
   21280:	2200      	movs	r2, #0
   21282:	4613      	mov	r3, r2
   21284:	df04      	svc	4
   21286:	e012      	b.n	212ae <_ZN20complex_dynamic_type3app17h32c43dcc0c278d61E+0x9e>
   21288:	a81a      	add	r0, sp, #104	@ 0x68
   2128a:	2103      	movs	r1, #3
   2128c:	7001      	strb	r1, [r0, #0]
   2128e:	4833      	ldr	r0, [pc, #204]	@ (2135c <_ZN20complex_dynamic_type3app17h32c43dcc0c278d61E+0x14c>)
   21290:	2106      	movs	r1, #6
   21292:	2600      	movs	r6, #0
   21294:	460a      	mov	r2, r1
   21296:	4633      	mov	r3, r6
   21298:	df02      	svc	2
   2129a:	2880      	cmp	r0, #128	@ 0x80
   2129c:	d21b      	bcs.n	212d6 <_ZN20complex_dynamic_type3app17h32c43dcc0c278d61E+0xc6>
   2129e:	2001      	movs	r0, #1
   212a0:	7028      	strb	r0, [r5, #0]
   212a2:	6069      	str	r1, [r5, #4]
   212a4:	482d      	ldr	r0, [pc, #180]	@ (2135c <_ZN20complex_dynamic_type3app17h32c43dcc0c278d61E+0x14c>)
   212a6:	2106      	movs	r1, #6
   212a8:	2200      	movs	r2, #0
   212aa:	4613      	mov	r3, r2
   212ac:	df03      	svc	3
   212ae:	a804      	add	r0, sp, #16
   212b0:	7800      	ldrb	r0, [r0, #0]
   212b2:	2802      	cmp	r0, #2
   212b4:	d045      	beq.n	21342 <_ZN20complex_dynamic_type3app17h32c43dcc0c278d61E+0x132>
   212b6:	2804      	cmp	r0, #4
   212b8:	d106      	bne.n	212c8 <_ZN20complex_dynamic_type3app17h32c43dcc0c278d61E+0xb8>
   212ba:	4828      	ldr	r0, [pc, #160]	@ (2135c <_ZN20complex_dynamic_type3app17h32c43dcc0c278d61E+0x14c>)
   212bc:	2106      	movs	r1, #6
   212be:	2200      	movs	r2, #0
   212c0:	4613      	mov	r3, r2
   212c2:	df04      	svc	4
   212c4:	b02d      	add	sp, #180	@ 0xb4
   212c6:	bdf0      	pop	{r4, r5, r6, r7, pc}
   212c8:	4824      	ldr	r0, [pc, #144]	@ (2135c <_ZN20complex_dynamic_type3app17h32c43dcc0c278d61E+0x14c>)
   212ca:	2106      	movs	r1, #6
   212cc:	2200      	movs	r2, #0
   212ce:	4613      	mov	r3, r2
   212d0:	df03      	svc	3
   212d2:	b02d      	add	sp, #180	@ 0xb4
   212d4:	bdf0      	pop	{r4, r5, r6, r7, pc}
   212d6:	a804      	add	r0, sp, #16
   212d8:	7800      	ldrb	r0, [r0, #0]
   212da:	2802      	cmp	r0, #2
   212dc:	d00c      	beq.n	212f8 <_ZN20complex_dynamic_type3app17h32c43dcc0c278d61E+0xe8>
   212de:	2803      	cmp	r0, #3
   212e0:	d105      	bne.n	212ee <_ZN20complex_dynamic_type3app17h32c43dcc0c278d61E+0xde>
   212e2:	481e      	ldr	r0, [pc, #120]	@ (2135c <_ZN20complex_dynamic_type3app17h32c43dcc0c278d61E+0x14c>)
   212e4:	2106      	movs	r1, #6
   212e6:	2200      	movs	r2, #0
   212e8:	4613      	mov	r3, r2
   212ea:	df03      	svc	3
   212ec:	e004      	b.n	212f8 <_ZN20complex_dynamic_type3app17h32c43dcc0c278d61E+0xe8>
   212ee:	481b      	ldr	r0, [pc, #108]	@ (2135c <_ZN20complex_dynamic_type3app17h32c43dcc0c278d61E+0x14c>)
   212f0:	2106      	movs	r1, #6
   212f2:	2200      	movs	r2, #0
   212f4:	4613      	mov	r3, r2
   212f6:	df04      	svc	4
   212f8:	a804      	add	r0, sp, #16
   212fa:	9900      	ldr	r1, [sp, #0]
   212fc:	7001      	strb	r1, [r0, #0]
   212fe:	a81a      	add	r0, sp, #104	@ 0x68
   21300:	7800      	ldrb	r0, [r0, #0]
   21302:	2804      	cmp	r0, #4
   21304:	d007      	beq.n	21316 <_ZN20complex_dynamic_type3app17h32c43dcc0c278d61E+0x106>
   21306:	2803      	cmp	r0, #3
   21308:	d11d      	bne.n	21346 <_ZN20complex_dynamic_type3app17h32c43dcc0c278d61E+0x136>
   2130a:	4814      	ldr	r0, [pc, #80]	@ (2135c <_ZN20complex_dynamic_type3app17h32c43dcc0c278d61E+0x14c>)
   2130c:	2106      	movs	r1, #6
   2130e:	2200      	movs	r2, #0
   21310:	4613      	mov	r3, r2
   21312:	df03      	svc	3
   21314:	e004      	b.n	21320 <_ZN20complex_dynamic_type3app17h32c43dcc0c278d61E+0x110>
   21316:	4811      	ldr	r0, [pc, #68]	@ (2135c <_ZN20complex_dynamic_type3app17h32c43dcc0c278d61E+0x14c>)
   21318:	2106      	movs	r1, #6
   2131a:	2200      	movs	r2, #0
   2131c:	4613      	mov	r3, r2
   2131e:	df04      	svc	4
   21320:	a804      	add	r0, sp, #16
   21322:	7804      	ldrb	r4, [r0, #0]
   21324:	1c68      	adds	r0, r5, #1
   21326:	2249      	movs	r2, #73	@ 0x49
   21328:	9901      	ldr	r1, [sp, #4]
   2132a:	f009 feeb 	bl	2b104 <__aeabi_memcpy>
   2132e:	702e      	strb	r6, [r5, #0]
   21330:	2c02      	cmp	r4, #2
   21332:	d006      	beq.n	21342 <_ZN20complex_dynamic_type3app17h32c43dcc0c278d61E+0x132>
   21334:	4809      	ldr	r0, [pc, #36]	@ (2135c <_ZN20complex_dynamic_type3app17h32c43dcc0c278d61E+0x14c>)
   21336:	2106      	movs	r1, #6
   21338:	2200      	movs	r2, #0
   2133a:	4613      	mov	r3, r2
   2133c:	2c04      	cmp	r4, #4
   2133e:	d10a      	bne.n	21356 <_ZN20complex_dynamic_type3app17h32c43dcc0c278d61E+0x146>
   21340:	df04      	svc	4
   21342:	b02d      	add	sp, #180	@ 0xb4
   21344:	bdf0      	pop	{r4, r5, r6, r7, pc}
   21346:	1c68      	adds	r0, r5, #1
   21348:	2249      	movs	r2, #73	@ 0x49
   2134a:	4621      	mov	r1, r4
   2134c:	f009 feda 	bl	2b104 <__aeabi_memcpy>
   21350:	702e      	strb	r6, [r5, #0]
   21352:	b02d      	add	sp, #180	@ 0xb4
   21354:	bdf0      	pop	{r4, r5, r6, r7, pc}
   21356:	df03      	svc	3
   21358:	b02d      	add	sp, #180	@ 0xb4
   2135a:	bdf0      	pop	{r4, r5, r6, r7, pc}
   2135c:	00001c6b 	.word	0x00001c6b

00021360 <_ZN20complex_dynamic_type3app17h33d0582e92dee581E>:
   21360:	b5f0      	push	{r4, r5, r6, r7, lr}
   21362:	af03      	add	r7, sp, #12
   21364:	b0a5      	sub	sp, #148	@ 0x94
   21366:	9004      	str	r0, [sp, #16]
   21368:	a805      	add	r0, sp, #20
   2136a:	2402      	movs	r4, #2
   2136c:	7004      	strb	r4, [r0, #0]
   2136e:	1c46      	adds	r6, r0, #1
   21370:	221b      	movs	r2, #27
   21372:	9203      	str	r2, [sp, #12]
   21374:	4630      	mov	r0, r6
   21376:	f009 fec5 	bl	2b104 <__aeabi_memcpy>
   2137a:	ad0c      	add	r5, sp, #48	@ 0x30
   2137c:	1c68      	adds	r0, r5, #1
   2137e:	2163      	movs	r1, #99	@ 0x63
   21380:	9002      	str	r0, [sp, #8]
   21382:	f009 fcff 	bl	2ad84 <__aeabi_memclr>
   21386:	9401      	str	r4, [sp, #4]
   21388:	702c      	strb	r4, [r5, #0]
   2138a:	4848      	ldr	r0, [pc, #288]	@ (214ac <_ZN20complex_dynamic_type3app17h33d0582e92dee581E+0x14c>)
   2138c:	2103      	movs	r1, #3
   2138e:	4632      	mov	r2, r6
   21390:	9b03      	ldr	r3, [sp, #12]
   21392:	df04      	svc	4
   21394:	2802      	cmp	r0, #2
   21396:	d104      	bne.n	213a2 <_ZN20complex_dynamic_type3app17h33d0582e92dee581E+0x42>
   21398:	2001      	movs	r0, #1
   2139a:	9a04      	ldr	r2, [sp, #16]
   2139c:	7010      	strb	r0, [r2, #0]
   2139e:	6051      	str	r1, [r2, #4]
   213a0:	e02c      	b.n	213fc <_ZN20complex_dynamic_type3app17h33d0582e92dee581E+0x9c>
   213a2:	9d04      	ldr	r5, [sp, #16]
   213a4:	a805      	add	r0, sp, #20
   213a6:	2104      	movs	r1, #4
   213a8:	7001      	strb	r1, [r0, #0]
   213aa:	4840      	ldr	r0, [pc, #256]	@ (214ac <_ZN20complex_dynamic_type3app17h33d0582e92dee581E+0x14c>)
   213ac:	2403      	movs	r4, #3
   213ae:	2363      	movs	r3, #99	@ 0x63
   213b0:	4621      	mov	r1, r4
   213b2:	9a02      	ldr	r2, [sp, #8]
   213b4:	df03      	svc	3
   213b6:	2802      	cmp	r0, #2
   213b8:	d10e      	bne.n	213d8 <_ZN20complex_dynamic_type3app17h33d0582e92dee581E+0x78>
   213ba:	2001      	movs	r0, #1
   213bc:	7028      	strb	r0, [r5, #0]
   213be:	6069      	str	r1, [r5, #4]
   213c0:	a80c      	add	r0, sp, #48	@ 0x30
   213c2:	7800      	ldrb	r0, [r0, #0]
   213c4:	2802      	cmp	r0, #2
   213c6:	d019      	beq.n	213fc <_ZN20complex_dynamic_type3app17h33d0582e92dee581E+0x9c>
   213c8:	2803      	cmp	r0, #3
   213ca:	d012      	beq.n	213f2 <_ZN20complex_dynamic_type3app17h33d0582e92dee581E+0x92>
   213cc:	4837      	ldr	r0, [pc, #220]	@ (214ac <_ZN20complex_dynamic_type3app17h33d0582e92dee581E+0x14c>)
   213ce:	2103      	movs	r1, #3
   213d0:	2200      	movs	r2, #0
   213d2:	4613      	mov	r3, r2
   213d4:	df04      	svc	4
   213d6:	e011      	b.n	213fc <_ZN20complex_dynamic_type3app17h33d0582e92dee581E+0x9c>
   213d8:	a80c      	add	r0, sp, #48	@ 0x30
   213da:	7004      	strb	r4, [r0, #0]
   213dc:	4833      	ldr	r0, [pc, #204]	@ (214ac <_ZN20complex_dynamic_type3app17h33d0582e92dee581E+0x14c>)
   213de:	2600      	movs	r6, #0
   213e0:	4621      	mov	r1, r4
   213e2:	4622      	mov	r2, r4
   213e4:	4633      	mov	r3, r6
   213e6:	df02      	svc	2
   213e8:	2880      	cmp	r0, #128	@ 0x80
   213ea:	d21b      	bcs.n	21424 <_ZN20complex_dynamic_type3app17h33d0582e92dee581E+0xc4>
   213ec:	2001      	movs	r0, #1
   213ee:	7028      	strb	r0, [r5, #0]
   213f0:	6069      	str	r1, [r5, #4]
   213f2:	482e      	ldr	r0, [pc, #184]	@ (214ac <_ZN20complex_dynamic_type3app17h33d0582e92dee581E+0x14c>)
   213f4:	2103      	movs	r1, #3
   213f6:	2200      	movs	r2, #0
   213f8:	4613      	mov	r3, r2
   213fa:	df03      	svc	3
   213fc:	a805      	add	r0, sp, #20
   213fe:	7800      	ldrb	r0, [r0, #0]
   21400:	2802      	cmp	r0, #2
   21402:	d045      	beq.n	21490 <_ZN20complex_dynamic_type3app17h33d0582e92dee581E+0x130>
   21404:	2804      	cmp	r0, #4
   21406:	d106      	bne.n	21416 <_ZN20complex_dynamic_type3app17h33d0582e92dee581E+0xb6>
   21408:	4828      	ldr	r0, [pc, #160]	@ (214ac <_ZN20complex_dynamic_type3app17h33d0582e92dee581E+0x14c>)
   2140a:	2103      	movs	r1, #3
   2140c:	2200      	movs	r2, #0
   2140e:	4613      	mov	r3, r2
   21410:	df04      	svc	4
   21412:	b025      	add	sp, #148	@ 0x94
   21414:	bdf0      	pop	{r4, r5, r6, r7, pc}
   21416:	4825      	ldr	r0, [pc, #148]	@ (214ac <_ZN20complex_dynamic_type3app17h33d0582e92dee581E+0x14c>)
   21418:	2103      	movs	r1, #3
   2141a:	2200      	movs	r2, #0
   2141c:	4613      	mov	r3, r2
   2141e:	df03      	svc	3
   21420:	b025      	add	sp, #148	@ 0x94
   21422:	bdf0      	pop	{r4, r5, r6, r7, pc}
   21424:	a805      	add	r0, sp, #20
   21426:	7800      	ldrb	r0, [r0, #0]
   21428:	2802      	cmp	r0, #2
   2142a:	d00c      	beq.n	21446 <_ZN20complex_dynamic_type3app17h33d0582e92dee581E+0xe6>
   2142c:	2803      	cmp	r0, #3
   2142e:	d105      	bne.n	2143c <_ZN20complex_dynamic_type3app17h33d0582e92dee581E+0xdc>
   21430:	481e      	ldr	r0, [pc, #120]	@ (214ac <_ZN20complex_dynamic_type3app17h33d0582e92dee581E+0x14c>)
   21432:	2103      	movs	r1, #3
   21434:	2200      	movs	r2, #0
   21436:	4613      	mov	r3, r2
   21438:	df03      	svc	3
   2143a:	e004      	b.n	21446 <_ZN20complex_dynamic_type3app17h33d0582e92dee581E+0xe6>
   2143c:	481b      	ldr	r0, [pc, #108]	@ (214ac <_ZN20complex_dynamic_type3app17h33d0582e92dee581E+0x14c>)
   2143e:	2103      	movs	r1, #3
   21440:	2200      	movs	r2, #0
   21442:	4613      	mov	r3, r2
   21444:	df04      	svc	4
   21446:	a805      	add	r0, sp, #20
   21448:	9901      	ldr	r1, [sp, #4]
   2144a:	7001      	strb	r1, [r0, #0]
   2144c:	a80c      	add	r0, sp, #48	@ 0x30
   2144e:	7800      	ldrb	r0, [r0, #0]
   21450:	2804      	cmp	r0, #4
   21452:	d007      	beq.n	21464 <_ZN20complex_dynamic_type3app17h33d0582e92dee581E+0x104>
   21454:	2803      	cmp	r0, #3
   21456:	d11d      	bne.n	21494 <_ZN20complex_dynamic_type3app17h33d0582e92dee581E+0x134>
   21458:	4814      	ldr	r0, [pc, #80]	@ (214ac <_ZN20complex_dynamic_type3app17h33d0582e92dee581E+0x14c>)
   2145a:	2103      	movs	r1, #3
   2145c:	2200      	movs	r2, #0
   2145e:	4613      	mov	r3, r2
   21460:	df03      	svc	3
   21462:	e004      	b.n	2146e <_ZN20complex_dynamic_type3app17h33d0582e92dee581E+0x10e>
   21464:	4811      	ldr	r0, [pc, #68]	@ (214ac <_ZN20complex_dynamic_type3app17h33d0582e92dee581E+0x14c>)
   21466:	2103      	movs	r1, #3
   21468:	2200      	movs	r2, #0
   2146a:	4613      	mov	r3, r2
   2146c:	df04      	svc	4
   2146e:	a805      	add	r0, sp, #20
   21470:	7804      	ldrb	r4, [r0, #0]
   21472:	1c68      	adds	r0, r5, #1
   21474:	2263      	movs	r2, #99	@ 0x63
   21476:	9902      	ldr	r1, [sp, #8]
   21478:	f009 fe44 	bl	2b104 <__aeabi_memcpy>
   2147c:	702e      	strb	r6, [r5, #0]
   2147e:	2c02      	cmp	r4, #2
   21480:	d006      	beq.n	21490 <_ZN20complex_dynamic_type3app17h33d0582e92dee581E+0x130>
   21482:	480a      	ldr	r0, [pc, #40]	@ (214ac <_ZN20complex_dynamic_type3app17h33d0582e92dee581E+0x14c>)
   21484:	2103      	movs	r1, #3
   21486:	2200      	movs	r2, #0
   21488:	4613      	mov	r3, r2
   2148a:	2c04      	cmp	r4, #4
   2148c:	d10a      	bne.n	214a4 <_ZN20complex_dynamic_type3app17h33d0582e92dee581E+0x144>
   2148e:	df04      	svc	4
   21490:	b025      	add	sp, #148	@ 0x94
   21492:	bdf0      	pop	{r4, r5, r6, r7, pc}
   21494:	1c68      	adds	r0, r5, #1
   21496:	2263      	movs	r2, #99	@ 0x63
   21498:	9902      	ldr	r1, [sp, #8]
   2149a:	f009 fe33 	bl	2b104 <__aeabi_memcpy>
   2149e:	702e      	strb	r6, [r5, #0]
   214a0:	b025      	add	sp, #148	@ 0x94
   214a2:	bdf0      	pop	{r4, r5, r6, r7, pc}
   214a4:	df03      	svc	3
   214a6:	b025      	add	sp, #148	@ 0x94
   214a8:	bdf0      	pop	{r4, r5, r6, r7, pc}
   214aa:	46c0      	nop			@ (mov r8, r8)
   214ac:	00002548 	.word	0x00002548

000214b0 <_ZN20complex_dynamic_type3app17h34709570f8996073E>:
   214b0:	b5f0      	push	{r4, r5, r6, r7, lr}
   214b2:	af03      	add	r7, sp, #12
   214b4:	b0a3      	sub	sp, #140	@ 0x8c
   214b6:	9003      	str	r0, [sp, #12]
   214b8:	a804      	add	r0, sp, #16
   214ba:	2602      	movs	r6, #2
   214bc:	7006      	strb	r6, [r0, #0]
   214be:	1c40      	adds	r0, r0, #1
   214c0:	9002      	str	r0, [sp, #8]
   214c2:	254a      	movs	r5, #74	@ 0x4a
   214c4:	462a      	mov	r2, r5
   214c6:	f009 fe1d 	bl	2b104 <__aeabi_memcpy>
   214ca:	ac17      	add	r4, sp, #92	@ 0x5c
   214cc:	1c60      	adds	r0, r4, #1
   214ce:	212d      	movs	r1, #45	@ 0x2d
   214d0:	9001      	str	r0, [sp, #4]
   214d2:	f009 fc57 	bl	2ad84 <__aeabi_memclr>
   214d6:	7026      	strb	r6, [r4, #0]
   214d8:	484a      	ldr	r0, [pc, #296]	@ (21604 <_ZN20complex_dynamic_type3app17h34709570f8996073E+0x154>)
   214da:	4631      	mov	r1, r6
   214dc:	9a02      	ldr	r2, [sp, #8]
   214de:	462b      	mov	r3, r5
   214e0:	df04      	svc	4
   214e2:	2802      	cmp	r0, #2
   214e4:	d104      	bne.n	214f0 <_ZN20complex_dynamic_type3app17h34709570f8996073E+0x40>
   214e6:	2001      	movs	r0, #1
   214e8:	9a03      	ldr	r2, [sp, #12]
   214ea:	7010      	strb	r0, [r2, #0]
   214ec:	6051      	str	r1, [r2, #4]
   214ee:	e02e      	b.n	2154e <_ZN20complex_dynamic_type3app17h34709570f8996073E+0x9e>
   214f0:	9d03      	ldr	r5, [sp, #12]
   214f2:	a804      	add	r0, sp, #16
   214f4:	2104      	movs	r1, #4
   214f6:	7001      	strb	r1, [r0, #0]
   214f8:	4842      	ldr	r0, [pc, #264]	@ (21604 <_ZN20complex_dynamic_type3app17h34709570f8996073E+0x154>)
   214fa:	2603      	movs	r6, #3
   214fc:	232d      	movs	r3, #45	@ 0x2d
   214fe:	4631      	mov	r1, r6
   21500:	9c01      	ldr	r4, [sp, #4]
   21502:	4622      	mov	r2, r4
   21504:	df03      	svc	3
   21506:	2802      	cmp	r0, #2
   21508:	d10e      	bne.n	21528 <_ZN20complex_dynamic_type3app17h34709570f8996073E+0x78>
   2150a:	2001      	movs	r0, #1
   2150c:	7028      	strb	r0, [r5, #0]
   2150e:	6069      	str	r1, [r5, #4]
   21510:	a817      	add	r0, sp, #92	@ 0x5c
   21512:	7800      	ldrb	r0, [r0, #0]
   21514:	2802      	cmp	r0, #2
   21516:	d01a      	beq.n	2154e <_ZN20complex_dynamic_type3app17h34709570f8996073E+0x9e>
   21518:	2803      	cmp	r0, #3
   2151a:	d013      	beq.n	21544 <_ZN20complex_dynamic_type3app17h34709570f8996073E+0x94>
   2151c:	4839      	ldr	r0, [pc, #228]	@ (21604 <_ZN20complex_dynamic_type3app17h34709570f8996073E+0x154>)
   2151e:	2103      	movs	r1, #3
   21520:	2200      	movs	r2, #0
   21522:	4613      	mov	r3, r2
   21524:	df04      	svc	4
   21526:	e012      	b.n	2154e <_ZN20complex_dynamic_type3app17h34709570f8996073E+0x9e>
   21528:	a817      	add	r0, sp, #92	@ 0x5c
   2152a:	7006      	strb	r6, [r0, #0]
   2152c:	4835      	ldr	r0, [pc, #212]	@ (21604 <_ZN20complex_dynamic_type3app17h34709570f8996073E+0x154>)
   2152e:	2102      	movs	r1, #2
   21530:	2300      	movs	r3, #0
   21532:	9100      	str	r1, [sp, #0]
   21534:	4632      	mov	r2, r6
   21536:	9302      	str	r3, [sp, #8]
   21538:	df02      	svc	2
   2153a:	2880      	cmp	r0, #128	@ 0x80
   2153c:	d21b      	bcs.n	21576 <_ZN20complex_dynamic_type3app17h34709570f8996073E+0xc6>
   2153e:	2001      	movs	r0, #1
   21540:	7028      	strb	r0, [r5, #0]
   21542:	6069      	str	r1, [r5, #4]
   21544:	482f      	ldr	r0, [pc, #188]	@ (21604 <_ZN20complex_dynamic_type3app17h34709570f8996073E+0x154>)
   21546:	2103      	movs	r1, #3
   21548:	2200      	movs	r2, #0
   2154a:	4613      	mov	r3, r2
   2154c:	df03      	svc	3
   2154e:	a804      	add	r0, sp, #16
   21550:	7800      	ldrb	r0, [r0, #0]
   21552:	2802      	cmp	r0, #2
   21554:	d048      	beq.n	215e8 <_ZN20complex_dynamic_type3app17h34709570f8996073E+0x138>
   21556:	2804      	cmp	r0, #4
   21558:	d106      	bne.n	21568 <_ZN20complex_dynamic_type3app17h34709570f8996073E+0xb8>
   2155a:	482a      	ldr	r0, [pc, #168]	@ (21604 <_ZN20complex_dynamic_type3app17h34709570f8996073E+0x154>)
   2155c:	2102      	movs	r1, #2
   2155e:	2200      	movs	r2, #0
   21560:	4613      	mov	r3, r2
   21562:	df04      	svc	4
   21564:	b023      	add	sp, #140	@ 0x8c
   21566:	bdf0      	pop	{r4, r5, r6, r7, pc}
   21568:	4826      	ldr	r0, [pc, #152]	@ (21604 <_ZN20complex_dynamic_type3app17h34709570f8996073E+0x154>)
   2156a:	2102      	movs	r1, #2
   2156c:	2200      	movs	r2, #0
   2156e:	4613      	mov	r3, r2
   21570:	df03      	svc	3
   21572:	b023      	add	sp, #140	@ 0x8c
   21574:	bdf0      	pop	{r4, r5, r6, r7, pc}
   21576:	a804      	add	r0, sp, #16
   21578:	7800      	ldrb	r0, [r0, #0]
   2157a:	2802      	cmp	r0, #2
   2157c:	d00c      	beq.n	21598 <_ZN20complex_dynamic_type3app17h34709570f8996073E+0xe8>
   2157e:	2803      	cmp	r0, #3
   21580:	d105      	bne.n	2158e <_ZN20complex_dynamic_type3app17h34709570f8996073E+0xde>
   21582:	4820      	ldr	r0, [pc, #128]	@ (21604 <_ZN20complex_dynamic_type3app17h34709570f8996073E+0x154>)
   21584:	2102      	movs	r1, #2
   21586:	2200      	movs	r2, #0
   21588:	4613      	mov	r3, r2
   2158a:	df03      	svc	3
   2158c:	e004      	b.n	21598 <_ZN20complex_dynamic_type3app17h34709570f8996073E+0xe8>
   2158e:	481d      	ldr	r0, [pc, #116]	@ (21604 <_ZN20complex_dynamic_type3app17h34709570f8996073E+0x154>)
   21590:	2102      	movs	r1, #2
   21592:	2200      	movs	r2, #0
   21594:	4613      	mov	r3, r2
   21596:	df04      	svc	4
   21598:	a804      	add	r0, sp, #16
   2159a:	9900      	ldr	r1, [sp, #0]
   2159c:	7001      	strb	r1, [r0, #0]
   2159e:	a817      	add	r0, sp, #92	@ 0x5c
   215a0:	7800      	ldrb	r0, [r0, #0]
   215a2:	2804      	cmp	r0, #4
   215a4:	d008      	beq.n	215b8 <_ZN20complex_dynamic_type3app17h34709570f8996073E+0x108>
   215a6:	2803      	cmp	r0, #3
   215a8:	d120      	bne.n	215ec <_ZN20complex_dynamic_type3app17h34709570f8996073E+0x13c>
   215aa:	4626      	mov	r6, r4
   215ac:	4815      	ldr	r0, [pc, #84]	@ (21604 <_ZN20complex_dynamic_type3app17h34709570f8996073E+0x154>)
   215ae:	2103      	movs	r1, #3
   215b0:	2200      	movs	r2, #0
   215b2:	4613      	mov	r3, r2
   215b4:	df03      	svc	3
   215b6:	e005      	b.n	215c4 <_ZN20complex_dynamic_type3app17h34709570f8996073E+0x114>
   215b8:	4626      	mov	r6, r4
   215ba:	4812      	ldr	r0, [pc, #72]	@ (21604 <_ZN20complex_dynamic_type3app17h34709570f8996073E+0x154>)
   215bc:	2103      	movs	r1, #3
   215be:	2200      	movs	r2, #0
   215c0:	4613      	mov	r3, r2
   215c2:	df04      	svc	4
   215c4:	a804      	add	r0, sp, #16
   215c6:	7804      	ldrb	r4, [r0, #0]
   215c8:	1c68      	adds	r0, r5, #1
   215ca:	222d      	movs	r2, #45	@ 0x2d
   215cc:	4631      	mov	r1, r6
   215ce:	f009 fd99 	bl	2b104 <__aeabi_memcpy>
   215d2:	9802      	ldr	r0, [sp, #8]
   215d4:	7028      	strb	r0, [r5, #0]
   215d6:	2c02      	cmp	r4, #2
   215d8:	d006      	beq.n	215e8 <_ZN20complex_dynamic_type3app17h34709570f8996073E+0x138>
   215da:	480a      	ldr	r0, [pc, #40]	@ (21604 <_ZN20complex_dynamic_type3app17h34709570f8996073E+0x154>)
   215dc:	2102      	movs	r1, #2
   215de:	2200      	movs	r2, #0
   215e0:	4613      	mov	r3, r2
   215e2:	2c04      	cmp	r4, #4
   215e4:	d10b      	bne.n	215fe <_ZN20complex_dynamic_type3app17h34709570f8996073E+0x14e>
   215e6:	df04      	svc	4
   215e8:	b023      	add	sp, #140	@ 0x8c
   215ea:	bdf0      	pop	{r4, r5, r6, r7, pc}
   215ec:	1c68      	adds	r0, r5, #1
   215ee:	222d      	movs	r2, #45	@ 0x2d
   215f0:	4621      	mov	r1, r4
   215f2:	f009 fd87 	bl	2b104 <__aeabi_memcpy>
   215f6:	9802      	ldr	r0, [sp, #8]
   215f8:	7028      	strb	r0, [r5, #0]
   215fa:	b023      	add	sp, #140	@ 0x8c
   215fc:	bdf0      	pop	{r4, r5, r6, r7, pc}
   215fe:	df03      	svc	3
   21600:	b023      	add	sp, #140	@ 0x8c
   21602:	bdf0      	pop	{r4, r5, r6, r7, pc}
   21604:	00000e3d 	.word	0x00000e3d

00021608 <_ZN20complex_dynamic_type3app17h38ca41f3bcbe670fE>:
   21608:	b5f0      	push	{r4, r5, r6, r7, lr}
   2160a:	af03      	add	r7, sp, #12
   2160c:	b093      	sub	sp, #76	@ 0x4c
   2160e:	9003      	str	r0, [sp, #12]
   21610:	a804      	add	r0, sp, #16
   21612:	2402      	movs	r4, #2
   21614:	7004      	strb	r4, [r0, #0]
   21616:	1c46      	adds	r6, r0, #1
   21618:	2218      	movs	r2, #24
   2161a:	9202      	str	r2, [sp, #8]
   2161c:	4630      	mov	r0, r6
   2161e:	f009 fd71 	bl	2b104 <__aeabi_memcpy>
   21622:	ad0b      	add	r5, sp, #44	@ 0x2c
   21624:	1c68      	adds	r0, r5, #1
   21626:	211e      	movs	r1, #30
   21628:	9001      	str	r0, [sp, #4]
   2162a:	f009 fbab 	bl	2ad84 <__aeabi_memclr>
   2162e:	9400      	str	r4, [sp, #0]
   21630:	702c      	strb	r4, [r5, #0]
   21632:	4848      	ldr	r0, [pc, #288]	@ (21754 <_ZN20complex_dynamic_type3app17h38ca41f3bcbe670fE+0x14c>)
   21634:	2109      	movs	r1, #9
   21636:	4632      	mov	r2, r6
   21638:	9b02      	ldr	r3, [sp, #8]
   2163a:	df04      	svc	4
   2163c:	2802      	cmp	r0, #2
   2163e:	d104      	bne.n	2164a <_ZN20complex_dynamic_type3app17h38ca41f3bcbe670fE+0x42>
   21640:	2001      	movs	r0, #1
   21642:	9a03      	ldr	r2, [sp, #12]
   21644:	7010      	strb	r0, [r2, #0]
   21646:	6051      	str	r1, [r2, #4]
   21648:	e02d      	b.n	216a6 <_ZN20complex_dynamic_type3app17h38ca41f3bcbe670fE+0x9e>
   2164a:	9d03      	ldr	r5, [sp, #12]
   2164c:	a804      	add	r0, sp, #16
   2164e:	2104      	movs	r1, #4
   21650:	7001      	strb	r1, [r0, #0]
   21652:	4840      	ldr	r0, [pc, #256]	@ (21754 <_ZN20complex_dynamic_type3app17h38ca41f3bcbe670fE+0x14c>)
   21654:	2105      	movs	r1, #5
   21656:	231e      	movs	r3, #30
   21658:	9c01      	ldr	r4, [sp, #4]
   2165a:	4622      	mov	r2, r4
   2165c:	df03      	svc	3
   2165e:	2802      	cmp	r0, #2
   21660:	d10e      	bne.n	21680 <_ZN20complex_dynamic_type3app17h38ca41f3bcbe670fE+0x78>
   21662:	2001      	movs	r0, #1
   21664:	7028      	strb	r0, [r5, #0]
   21666:	6069      	str	r1, [r5, #4]
   21668:	a80b      	add	r0, sp, #44	@ 0x2c
   2166a:	7800      	ldrb	r0, [r0, #0]
   2166c:	2802      	cmp	r0, #2
   2166e:	d01a      	beq.n	216a6 <_ZN20complex_dynamic_type3app17h38ca41f3bcbe670fE+0x9e>
   21670:	2803      	cmp	r0, #3
   21672:	d013      	beq.n	2169c <_ZN20complex_dynamic_type3app17h38ca41f3bcbe670fE+0x94>
   21674:	4837      	ldr	r0, [pc, #220]	@ (21754 <_ZN20complex_dynamic_type3app17h38ca41f3bcbe670fE+0x14c>)
   21676:	2105      	movs	r1, #5
   21678:	2200      	movs	r2, #0
   2167a:	4613      	mov	r3, r2
   2167c:	df04      	svc	4
   2167e:	e012      	b.n	216a6 <_ZN20complex_dynamic_type3app17h38ca41f3bcbe670fE+0x9e>
   21680:	a80b      	add	r0, sp, #44	@ 0x2c
   21682:	2103      	movs	r1, #3
   21684:	7001      	strb	r1, [r0, #0]
   21686:	4833      	ldr	r0, [pc, #204]	@ (21754 <_ZN20complex_dynamic_type3app17h38ca41f3bcbe670fE+0x14c>)
   21688:	2109      	movs	r1, #9
   2168a:	2205      	movs	r2, #5
   2168c:	2600      	movs	r6, #0
   2168e:	4633      	mov	r3, r6
   21690:	df02      	svc	2
   21692:	2880      	cmp	r0, #128	@ 0x80
   21694:	d21b      	bcs.n	216ce <_ZN20complex_dynamic_type3app17h38ca41f3bcbe670fE+0xc6>
   21696:	2001      	movs	r0, #1
   21698:	7028      	strb	r0, [r5, #0]
   2169a:	6069      	str	r1, [r5, #4]
   2169c:	482d      	ldr	r0, [pc, #180]	@ (21754 <_ZN20complex_dynamic_type3app17h38ca41f3bcbe670fE+0x14c>)
   2169e:	2105      	movs	r1, #5
   216a0:	2200      	movs	r2, #0
   216a2:	4613      	mov	r3, r2
   216a4:	df03      	svc	3
   216a6:	a804      	add	r0, sp, #16
   216a8:	7800      	ldrb	r0, [r0, #0]
   216aa:	2802      	cmp	r0, #2
   216ac:	d045      	beq.n	2173a <_ZN20complex_dynamic_type3app17h38ca41f3bcbe670fE+0x132>
   216ae:	2804      	cmp	r0, #4
   216b0:	d106      	bne.n	216c0 <_ZN20complex_dynamic_type3app17h38ca41f3bcbe670fE+0xb8>
   216b2:	4828      	ldr	r0, [pc, #160]	@ (21754 <_ZN20complex_dynamic_type3app17h38ca41f3bcbe670fE+0x14c>)
   216b4:	2109      	movs	r1, #9
   216b6:	2200      	movs	r2, #0
   216b8:	4613      	mov	r3, r2
   216ba:	df04      	svc	4
   216bc:	b013      	add	sp, #76	@ 0x4c
   216be:	bdf0      	pop	{r4, r5, r6, r7, pc}
   216c0:	4824      	ldr	r0, [pc, #144]	@ (21754 <_ZN20complex_dynamic_type3app17h38ca41f3bcbe670fE+0x14c>)
   216c2:	2109      	movs	r1, #9
   216c4:	2200      	movs	r2, #0
   216c6:	4613      	mov	r3, r2
   216c8:	df03      	svc	3
   216ca:	b013      	add	sp, #76	@ 0x4c
   216cc:	bdf0      	pop	{r4, r5, r6, r7, pc}
   216ce:	a804      	add	r0, sp, #16
   216d0:	7800      	ldrb	r0, [r0, #0]
   216d2:	2802      	cmp	r0, #2
   216d4:	d00c      	beq.n	216f0 <_ZN20complex_dynamic_type3app17h38ca41f3bcbe670fE+0xe8>
   216d6:	2803      	cmp	r0, #3
   216d8:	d105      	bne.n	216e6 <_ZN20complex_dynamic_type3app17h38ca41f3bcbe670fE+0xde>
   216da:	481e      	ldr	r0, [pc, #120]	@ (21754 <_ZN20complex_dynamic_type3app17h38ca41f3bcbe670fE+0x14c>)
   216dc:	2109      	movs	r1, #9
   216de:	2200      	movs	r2, #0
   216e0:	4613      	mov	r3, r2
   216e2:	df03      	svc	3
   216e4:	e004      	b.n	216f0 <_ZN20complex_dynamic_type3app17h38ca41f3bcbe670fE+0xe8>
   216e6:	481b      	ldr	r0, [pc, #108]	@ (21754 <_ZN20complex_dynamic_type3app17h38ca41f3bcbe670fE+0x14c>)
   216e8:	2109      	movs	r1, #9
   216ea:	2200      	movs	r2, #0
   216ec:	4613      	mov	r3, r2
   216ee:	df04      	svc	4
   216f0:	a804      	add	r0, sp, #16
   216f2:	9900      	ldr	r1, [sp, #0]
   216f4:	7001      	strb	r1, [r0, #0]
   216f6:	a80b      	add	r0, sp, #44	@ 0x2c
   216f8:	7800      	ldrb	r0, [r0, #0]
   216fa:	2804      	cmp	r0, #4
   216fc:	d007      	beq.n	2170e <_ZN20complex_dynamic_type3app17h38ca41f3bcbe670fE+0x106>
   216fe:	2803      	cmp	r0, #3
   21700:	d11d      	bne.n	2173e <_ZN20complex_dynamic_type3app17h38ca41f3bcbe670fE+0x136>
   21702:	4814      	ldr	r0, [pc, #80]	@ (21754 <_ZN20complex_dynamic_type3app17h38ca41f3bcbe670fE+0x14c>)
   21704:	2105      	movs	r1, #5
   21706:	2200      	movs	r2, #0
   21708:	4613      	mov	r3, r2
   2170a:	df03      	svc	3
   2170c:	e004      	b.n	21718 <_ZN20complex_dynamic_type3app17h38ca41f3bcbe670fE+0x110>
   2170e:	4811      	ldr	r0, [pc, #68]	@ (21754 <_ZN20complex_dynamic_type3app17h38ca41f3bcbe670fE+0x14c>)
   21710:	2105      	movs	r1, #5
   21712:	2200      	movs	r2, #0
   21714:	4613      	mov	r3, r2
   21716:	df04      	svc	4
   21718:	a804      	add	r0, sp, #16
   2171a:	7804      	ldrb	r4, [r0, #0]
   2171c:	1c68      	adds	r0, r5, #1
   2171e:	221e      	movs	r2, #30
   21720:	9901      	ldr	r1, [sp, #4]
   21722:	f009 fcef 	bl	2b104 <__aeabi_memcpy>
   21726:	702e      	strb	r6, [r5, #0]
   21728:	2c02      	cmp	r4, #2
   2172a:	d006      	beq.n	2173a <_ZN20complex_dynamic_type3app17h38ca41f3bcbe670fE+0x132>
   2172c:	4809      	ldr	r0, [pc, #36]	@ (21754 <_ZN20complex_dynamic_type3app17h38ca41f3bcbe670fE+0x14c>)
   2172e:	2109      	movs	r1, #9
   21730:	2200      	movs	r2, #0
   21732:	4613      	mov	r3, r2
   21734:	2c04      	cmp	r4, #4
   21736:	d10a      	bne.n	2174e <_ZN20complex_dynamic_type3app17h38ca41f3bcbe670fE+0x146>
   21738:	df04      	svc	4
   2173a:	b013      	add	sp, #76	@ 0x4c
   2173c:	bdf0      	pop	{r4, r5, r6, r7, pc}
   2173e:	1c68      	adds	r0, r5, #1
   21740:	221e      	movs	r2, #30
   21742:	4621      	mov	r1, r4
   21744:	f009 fcde 	bl	2b104 <__aeabi_memcpy>
   21748:	702e      	strb	r6, [r5, #0]
   2174a:	b013      	add	sp, #76	@ 0x4c
   2174c:	bdf0      	pop	{r4, r5, r6, r7, pc}
   2174e:	df03      	svc	3
   21750:	b013      	add	sp, #76	@ 0x4c
   21752:	bdf0      	pop	{r4, r5, r6, r7, pc}
   21754:	00000cbb 	.word	0x00000cbb

00021758 <_ZN20complex_dynamic_type3app17h3d055618705ec01aE>:
   21758:	b5f0      	push	{r4, r5, r6, r7, lr}
   2175a:	af03      	add	r7, sp, #12
   2175c:	b0a3      	sub	sp, #140	@ 0x8c
   2175e:	9004      	str	r0, [sp, #16]
   21760:	a805      	add	r0, sp, #20
   21762:	2402      	movs	r4, #2
   21764:	7004      	strb	r4, [r0, #0]
   21766:	1c46      	adds	r6, r0, #1
   21768:	2232      	movs	r2, #50	@ 0x32
   2176a:	9203      	str	r2, [sp, #12]
   2176c:	4630      	mov	r0, r6
   2176e:	f009 fcc9 	bl	2b104 <__aeabi_memcpy>
   21772:	ad12      	add	r5, sp, #72	@ 0x48
   21774:	1c68      	adds	r0, r5, #1
   21776:	2141      	movs	r1, #65	@ 0x41
   21778:	9002      	str	r0, [sp, #8]
   2177a:	f009 fb03 	bl	2ad84 <__aeabi_memclr>
   2177e:	9401      	str	r4, [sp, #4]
   21780:	702c      	strb	r4, [r5, #0]
   21782:	4848      	ldr	r0, [pc, #288]	@ (218a4 <_ZN20complex_dynamic_type3app17h3d055618705ec01aE+0x14c>)
   21784:	2107      	movs	r1, #7
   21786:	4632      	mov	r2, r6
   21788:	9b03      	ldr	r3, [sp, #12]
   2178a:	df04      	svc	4
   2178c:	2802      	cmp	r0, #2
   2178e:	d104      	bne.n	2179a <_ZN20complex_dynamic_type3app17h3d055618705ec01aE+0x42>
   21790:	2001      	movs	r0, #1
   21792:	9a04      	ldr	r2, [sp, #16]
   21794:	7010      	strb	r0, [r2, #0]
   21796:	6051      	str	r1, [r2, #4]
   21798:	e02d      	b.n	217f6 <_ZN20complex_dynamic_type3app17h3d055618705ec01aE+0x9e>
   2179a:	9d04      	ldr	r5, [sp, #16]
   2179c:	a805      	add	r0, sp, #20
   2179e:	2104      	movs	r1, #4
   217a0:	7001      	strb	r1, [r0, #0]
   217a2:	4840      	ldr	r0, [pc, #256]	@ (218a4 <_ZN20complex_dynamic_type3app17h3d055618705ec01aE+0x14c>)
   217a4:	2105      	movs	r1, #5
   217a6:	2341      	movs	r3, #65	@ 0x41
   217a8:	9c02      	ldr	r4, [sp, #8]
   217aa:	4622      	mov	r2, r4
   217ac:	df03      	svc	3
   217ae:	2802      	cmp	r0, #2
   217b0:	d10e      	bne.n	217d0 <_ZN20complex_dynamic_type3app17h3d055618705ec01aE+0x78>
   217b2:	2001      	movs	r0, #1
   217b4:	7028      	strb	r0, [r5, #0]
   217b6:	6069      	str	r1, [r5, #4]
   217b8:	a812      	add	r0, sp, #72	@ 0x48
   217ba:	7800      	ldrb	r0, [r0, #0]
   217bc:	2802      	cmp	r0, #2
   217be:	d01a      	beq.n	217f6 <_ZN20complex_dynamic_type3app17h3d055618705ec01aE+0x9e>
   217c0:	2803      	cmp	r0, #3
   217c2:	d013      	beq.n	217ec <_ZN20complex_dynamic_type3app17h3d055618705ec01aE+0x94>
   217c4:	4837      	ldr	r0, [pc, #220]	@ (218a4 <_ZN20complex_dynamic_type3app17h3d055618705ec01aE+0x14c>)
   217c6:	2105      	movs	r1, #5
   217c8:	2200      	movs	r2, #0
   217ca:	4613      	mov	r3, r2
   217cc:	df04      	svc	4
   217ce:	e012      	b.n	217f6 <_ZN20complex_dynamic_type3app17h3d055618705ec01aE+0x9e>
   217d0:	a812      	add	r0, sp, #72	@ 0x48
   217d2:	2103      	movs	r1, #3
   217d4:	7001      	strb	r1, [r0, #0]
   217d6:	4833      	ldr	r0, [pc, #204]	@ (218a4 <_ZN20complex_dynamic_type3app17h3d055618705ec01aE+0x14c>)
   217d8:	2107      	movs	r1, #7
   217da:	2205      	movs	r2, #5
   217dc:	2600      	movs	r6, #0
   217de:	4633      	mov	r3, r6
   217e0:	df02      	svc	2
   217e2:	2880      	cmp	r0, #128	@ 0x80
   217e4:	d21b      	bcs.n	2181e <_ZN20complex_dynamic_type3app17h3d055618705ec01aE+0xc6>
   217e6:	2001      	movs	r0, #1
   217e8:	7028      	strb	r0, [r5, #0]
   217ea:	6069      	str	r1, [r5, #4]
   217ec:	482d      	ldr	r0, [pc, #180]	@ (218a4 <_ZN20complex_dynamic_type3app17h3d055618705ec01aE+0x14c>)
   217ee:	2105      	movs	r1, #5
   217f0:	2200      	movs	r2, #0
   217f2:	4613      	mov	r3, r2
   217f4:	df03      	svc	3
   217f6:	a805      	add	r0, sp, #20
   217f8:	7800      	ldrb	r0, [r0, #0]
   217fa:	2802      	cmp	r0, #2
   217fc:	d045      	beq.n	2188a <_ZN20complex_dynamic_type3app17h3d055618705ec01aE+0x132>
   217fe:	2804      	cmp	r0, #4
   21800:	d106      	bne.n	21810 <_ZN20complex_dynamic_type3app17h3d055618705ec01aE+0xb8>
   21802:	4828      	ldr	r0, [pc, #160]	@ (218a4 <_ZN20complex_dynamic_type3app17h3d055618705ec01aE+0x14c>)
   21804:	2107      	movs	r1, #7
   21806:	2200      	movs	r2, #0
   21808:	4613      	mov	r3, r2
   2180a:	df04      	svc	4
   2180c:	b023      	add	sp, #140	@ 0x8c
   2180e:	bdf0      	pop	{r4, r5, r6, r7, pc}
   21810:	4824      	ldr	r0, [pc, #144]	@ (218a4 <_ZN20complex_dynamic_type3app17h3d055618705ec01aE+0x14c>)
   21812:	2107      	movs	r1, #7
   21814:	2200      	movs	r2, #0
   21816:	4613      	mov	r3, r2
   21818:	df03      	svc	3
   2181a:	b023      	add	sp, #140	@ 0x8c
   2181c:	bdf0      	pop	{r4, r5, r6, r7, pc}
   2181e:	a805      	add	r0, sp, #20
   21820:	7800      	ldrb	r0, [r0, #0]
   21822:	2802      	cmp	r0, #2
   21824:	d00c      	beq.n	21840 <_ZN20complex_dynamic_type3app17h3d055618705ec01aE+0xe8>
   21826:	2803      	cmp	r0, #3
   21828:	d105      	bne.n	21836 <_ZN20complex_dynamic_type3app17h3d055618705ec01aE+0xde>
   2182a:	481e      	ldr	r0, [pc, #120]	@ (218a4 <_ZN20complex_dynamic_type3app17h3d055618705ec01aE+0x14c>)
   2182c:	2107      	movs	r1, #7
   2182e:	2200      	movs	r2, #0
   21830:	4613      	mov	r3, r2
   21832:	df03      	svc	3
   21834:	e004      	b.n	21840 <_ZN20complex_dynamic_type3app17h3d055618705ec01aE+0xe8>
   21836:	481b      	ldr	r0, [pc, #108]	@ (218a4 <_ZN20complex_dynamic_type3app17h3d055618705ec01aE+0x14c>)
   21838:	2107      	movs	r1, #7
   2183a:	2200      	movs	r2, #0
   2183c:	4613      	mov	r3, r2
   2183e:	df04      	svc	4
   21840:	a805      	add	r0, sp, #20
   21842:	9901      	ldr	r1, [sp, #4]
   21844:	7001      	strb	r1, [r0, #0]
   21846:	a812      	add	r0, sp, #72	@ 0x48
   21848:	7800      	ldrb	r0, [r0, #0]
   2184a:	2804      	cmp	r0, #4
   2184c:	d007      	beq.n	2185e <_ZN20complex_dynamic_type3app17h3d055618705ec01aE+0x106>
   2184e:	2803      	cmp	r0, #3
   21850:	d11d      	bne.n	2188e <_ZN20complex_dynamic_type3app17h3d055618705ec01aE+0x136>
   21852:	4814      	ldr	r0, [pc, #80]	@ (218a4 <_ZN20complex_dynamic_type3app17h3d055618705ec01aE+0x14c>)
   21854:	2105      	movs	r1, #5
   21856:	2200      	movs	r2, #0
   21858:	4613      	mov	r3, r2
   2185a:	df03      	svc	3
   2185c:	e004      	b.n	21868 <_ZN20complex_dynamic_type3app17h3d055618705ec01aE+0x110>
   2185e:	4811      	ldr	r0, [pc, #68]	@ (218a4 <_ZN20complex_dynamic_type3app17h3d055618705ec01aE+0x14c>)
   21860:	2105      	movs	r1, #5
   21862:	2200      	movs	r2, #0
   21864:	4613      	mov	r3, r2
   21866:	df04      	svc	4
   21868:	a805      	add	r0, sp, #20
   2186a:	7804      	ldrb	r4, [r0, #0]
   2186c:	1c68      	adds	r0, r5, #1
   2186e:	2241      	movs	r2, #65	@ 0x41
   21870:	9902      	ldr	r1, [sp, #8]
   21872:	f009 fc47 	bl	2b104 <__aeabi_memcpy>
   21876:	702e      	strb	r6, [r5, #0]
   21878:	2c02      	cmp	r4, #2
   2187a:	d006      	beq.n	2188a <_ZN20complex_dynamic_type3app17h3d055618705ec01aE+0x132>
   2187c:	4809      	ldr	r0, [pc, #36]	@ (218a4 <_ZN20complex_dynamic_type3app17h3d055618705ec01aE+0x14c>)
   2187e:	2107      	movs	r1, #7
   21880:	2200      	movs	r2, #0
   21882:	4613      	mov	r3, r2
   21884:	2c04      	cmp	r4, #4
   21886:	d10a      	bne.n	2189e <_ZN20complex_dynamic_type3app17h3d055618705ec01aE+0x146>
   21888:	df04      	svc	4
   2188a:	b023      	add	sp, #140	@ 0x8c
   2188c:	bdf0      	pop	{r4, r5, r6, r7, pc}
   2188e:	1c68      	adds	r0, r5, #1
   21890:	2241      	movs	r2, #65	@ 0x41
   21892:	4621      	mov	r1, r4
   21894:	f009 fc36 	bl	2b104 <__aeabi_memcpy>
   21898:	702e      	strb	r6, [r5, #0]
   2189a:	b023      	add	sp, #140	@ 0x8c
   2189c:	bdf0      	pop	{r4, r5, r6, r7, pc}
   2189e:	df03      	svc	3
   218a0:	b023      	add	sp, #140	@ 0x8c
   218a2:	bdf0      	pop	{r4, r5, r6, r7, pc}
   218a4:	0000091d 	.word	0x0000091d

000218a8 <_ZN20complex_dynamic_type3app17h3eb19e262381d93aE>:
   218a8:	b5f0      	push	{r4, r5, r6, r7, lr}
   218aa:	af03      	add	r7, sp, #12
   218ac:	b0a5      	sub	sp, #148	@ 0x94
   218ae:	9003      	str	r0, [sp, #12]
   218b0:	a804      	add	r0, sp, #16
   218b2:	2502      	movs	r5, #2
   218b4:	7005      	strb	r5, [r0, #0]
   218b6:	1c40      	adds	r0, r0, #1
   218b8:	9002      	str	r0, [sp, #8]
   218ba:	2661      	movs	r6, #97	@ 0x61
   218bc:	4632      	mov	r2, r6
   218be:	f009 fc21 	bl	2b104 <__aeabi_memcpy>
   218c2:	ac1d      	add	r4, sp, #116	@ 0x74
   218c4:	1c60      	adds	r0, r4, #1
   218c6:	211e      	movs	r1, #30
   218c8:	9001      	str	r0, [sp, #4]
   218ca:	f009 fa5b 	bl	2ad84 <__aeabi_memclr>
   218ce:	9500      	str	r5, [sp, #0]
   218d0:	7025      	strb	r5, [r4, #0]
   218d2:	2031      	movs	r0, #49	@ 0x31
   218d4:	00c5      	lsls	r5, r0, #3
   218d6:	2404      	movs	r4, #4
   218d8:	4628      	mov	r0, r5
   218da:	4621      	mov	r1, r4
   218dc:	9a02      	ldr	r2, [sp, #8]
   218de:	4633      	mov	r3, r6
   218e0:	df04      	svc	4
   218e2:	2802      	cmp	r0, #2
   218e4:	d104      	bne.n	218f0 <_ZN20complex_dynamic_type3app17h3eb19e262381d93aE+0x48>
   218e6:	2001      	movs	r0, #1
   218e8:	9a03      	ldr	r2, [sp, #12]
   218ea:	7010      	strb	r0, [r2, #0]
   218ec:	6051      	str	r1, [r2, #4]
   218ee:	e02c      	b.n	2194a <_ZN20complex_dynamic_type3app17h3eb19e262381d93aE+0xa2>
   218f0:	9e03      	ldr	r6, [sp, #12]
   218f2:	a804      	add	r0, sp, #16
   218f4:	7004      	strb	r4, [r0, #0]
   218f6:	2106      	movs	r1, #6
   218f8:	231e      	movs	r3, #30
   218fa:	4628      	mov	r0, r5
   218fc:	9c01      	ldr	r4, [sp, #4]
   218fe:	4622      	mov	r2, r4
   21900:	df03      	svc	3
   21902:	2802      	cmp	r0, #2
   21904:	d10e      	bne.n	21924 <_ZN20complex_dynamic_type3app17h3eb19e262381d93aE+0x7c>
   21906:	2001      	movs	r0, #1
   21908:	7030      	strb	r0, [r6, #0]
   2190a:	6071      	str	r1, [r6, #4]
   2190c:	a81d      	add	r0, sp, #116	@ 0x74
   2190e:	7800      	ldrb	r0, [r0, #0]
   21910:	2802      	cmp	r0, #2
   21912:	d01a      	beq.n	2194a <_ZN20complex_dynamic_type3app17h3eb19e262381d93aE+0xa2>
   21914:	2803      	cmp	r0, #3
   21916:	d013      	beq.n	21940 <_ZN20complex_dynamic_type3app17h3eb19e262381d93aE+0x98>
   21918:	2106      	movs	r1, #6
   2191a:	2200      	movs	r2, #0
   2191c:	4628      	mov	r0, r5
   2191e:	4613      	mov	r3, r2
   21920:	df04      	svc	4
   21922:	e012      	b.n	2194a <_ZN20complex_dynamic_type3app17h3eb19e262381d93aE+0xa2>
   21924:	a81d      	add	r0, sp, #116	@ 0x74
   21926:	2103      	movs	r1, #3
   21928:	7001      	strb	r1, [r0, #0]
   2192a:	2104      	movs	r1, #4
   2192c:	2206      	movs	r2, #6
   2192e:	2300      	movs	r3, #0
   21930:	4628      	mov	r0, r5
   21932:	9302      	str	r3, [sp, #8]
   21934:	df02      	svc	2
   21936:	2880      	cmp	r0, #128	@ 0x80
   21938:	d219      	bcs.n	2196e <_ZN20complex_dynamic_type3app17h3eb19e262381d93aE+0xc6>
   2193a:	2001      	movs	r0, #1
   2193c:	7030      	strb	r0, [r6, #0]
   2193e:	6071      	str	r1, [r6, #4]
   21940:	2106      	movs	r1, #6
   21942:	2200      	movs	r2, #0
   21944:	4628      	mov	r0, r5
   21946:	4613      	mov	r3, r2
   21948:	df03      	svc	3
   2194a:	a804      	add	r0, sp, #16
   2194c:	7800      	ldrb	r0, [r0, #0]
   2194e:	2802      	cmp	r0, #2
   21950:	d042      	beq.n	219d8 <_ZN20complex_dynamic_type3app17h3eb19e262381d93aE+0x130>
   21952:	2104      	movs	r1, #4
   21954:	2200      	movs	r2, #0
   21956:	2804      	cmp	r0, #4
   21958:	d104      	bne.n	21964 <_ZN20complex_dynamic_type3app17h3eb19e262381d93aE+0xbc>
   2195a:	4628      	mov	r0, r5
   2195c:	4613      	mov	r3, r2
   2195e:	df04      	svc	4
   21960:	b025      	add	sp, #148	@ 0x94
   21962:	bdf0      	pop	{r4, r5, r6, r7, pc}
   21964:	4628      	mov	r0, r5
   21966:	4613      	mov	r3, r2
   21968:	df03      	svc	3
   2196a:	b025      	add	sp, #148	@ 0x94
   2196c:	bdf0      	pop	{r4, r5, r6, r7, pc}
   2196e:	a804      	add	r0, sp, #16
   21970:	7800      	ldrb	r0, [r0, #0]
   21972:	2802      	cmp	r0, #2
   21974:	d00a      	beq.n	2198c <_ZN20complex_dynamic_type3app17h3eb19e262381d93aE+0xe4>
   21976:	2104      	movs	r1, #4
   21978:	2200      	movs	r2, #0
   2197a:	2803      	cmp	r0, #3
   2197c:	d103      	bne.n	21986 <_ZN20complex_dynamic_type3app17h3eb19e262381d93aE+0xde>
   2197e:	4628      	mov	r0, r5
   21980:	4613      	mov	r3, r2
   21982:	df03      	svc	3
   21984:	e002      	b.n	2198c <_ZN20complex_dynamic_type3app17h3eb19e262381d93aE+0xe4>
   21986:	4628      	mov	r0, r5
   21988:	4613      	mov	r3, r2
   2198a:	df04      	svc	4
   2198c:	a804      	add	r0, sp, #16
   2198e:	9900      	ldr	r1, [sp, #0]
   21990:	7001      	strb	r1, [r0, #0]
   21992:	a81d      	add	r0, sp, #116	@ 0x74
   21994:	7800      	ldrb	r0, [r0, #0]
   21996:	2804      	cmp	r0, #4
   21998:	d007      	beq.n	219aa <_ZN20complex_dynamic_type3app17h3eb19e262381d93aE+0x102>
   2199a:	2803      	cmp	r0, #3
   2199c:	d11e      	bne.n	219dc <_ZN20complex_dynamic_type3app17h3eb19e262381d93aE+0x134>
   2199e:	2106      	movs	r1, #6
   219a0:	2200      	movs	r2, #0
   219a2:	4628      	mov	r0, r5
   219a4:	4613      	mov	r3, r2
   219a6:	df03      	svc	3
   219a8:	e004      	b.n	219b4 <_ZN20complex_dynamic_type3app17h3eb19e262381d93aE+0x10c>
   219aa:	2106      	movs	r1, #6
   219ac:	2200      	movs	r2, #0
   219ae:	4628      	mov	r0, r5
   219b0:	4613      	mov	r3, r2
   219b2:	df04      	svc	4
   219b4:	a804      	add	r0, sp, #16
   219b6:	7804      	ldrb	r4, [r0, #0]
   219b8:	1c70      	adds	r0, r6, #1
   219ba:	221e      	movs	r2, #30
   219bc:	9901      	ldr	r1, [sp, #4]
   219be:	f009 fba1 	bl	2b104 <__aeabi_memcpy>
   219c2:	9802      	ldr	r0, [sp, #8]
   219c4:	7030      	strb	r0, [r6, #0]
   219c6:	2c02      	cmp	r4, #2
   219c8:	d006      	beq.n	219d8 <_ZN20complex_dynamic_type3app17h3eb19e262381d93aE+0x130>
   219ca:	2104      	movs	r1, #4
   219cc:	2200      	movs	r2, #0
   219ce:	4628      	mov	r0, r5
   219d0:	4613      	mov	r3, r2
   219d2:	2c04      	cmp	r4, #4
   219d4:	d10b      	bne.n	219ee <_ZN20complex_dynamic_type3app17h3eb19e262381d93aE+0x146>
   219d6:	df04      	svc	4
   219d8:	b025      	add	sp, #148	@ 0x94
   219da:	bdf0      	pop	{r4, r5, r6, r7, pc}
   219dc:	1c70      	adds	r0, r6, #1
   219de:	221e      	movs	r2, #30
   219e0:	4621      	mov	r1, r4
   219e2:	f009 fb8f 	bl	2b104 <__aeabi_memcpy>
   219e6:	9802      	ldr	r0, [sp, #8]
   219e8:	7030      	strb	r0, [r6, #0]
   219ea:	b025      	add	sp, #148	@ 0x94
   219ec:	bdf0      	pop	{r4, r5, r6, r7, pc}
   219ee:	df03      	svc	3
   219f0:	b025      	add	sp, #148	@ 0x94
   219f2:	bdf0      	pop	{r4, r5, r6, r7, pc}

000219f4 <_ZN20complex_dynamic_type3app17h430a913ec59d828eE>:
   219f4:	b5f0      	push	{r4, r5, r6, r7, lr}
   219f6:	af03      	add	r7, sp, #12
   219f8:	b09b      	sub	sp, #108	@ 0x6c
   219fa:	9003      	str	r0, [sp, #12]
   219fc:	a804      	add	r0, sp, #16
   219fe:	2402      	movs	r4, #2
   21a00:	7004      	strb	r4, [r0, #0]
   21a02:	1c46      	adds	r6, r0, #1
   21a04:	2248      	movs	r2, #72	@ 0x48
   21a06:	9202      	str	r2, [sp, #8]
   21a08:	4630      	mov	r0, r6
   21a0a:	f009 fb7b 	bl	2b104 <__aeabi_memcpy>
   21a0e:	ad17      	add	r5, sp, #92	@ 0x5c
   21a10:	1c68      	adds	r0, r5, #1
   21a12:	210f      	movs	r1, #15
   21a14:	9001      	str	r0, [sp, #4]
   21a16:	f009 f9b5 	bl	2ad84 <__aeabi_memclr>
   21a1a:	9400      	str	r4, [sp, #0]
   21a1c:	702c      	strb	r4, [r5, #0]
   21a1e:	4848      	ldr	r0, [pc, #288]	@ (21b40 <_ZN20complex_dynamic_type3app17h430a913ec59d828eE+0x14c>)
   21a20:	2108      	movs	r1, #8
   21a22:	4632      	mov	r2, r6
   21a24:	9b02      	ldr	r3, [sp, #8]
   21a26:	df04      	svc	4
   21a28:	2802      	cmp	r0, #2
   21a2a:	d104      	bne.n	21a36 <_ZN20complex_dynamic_type3app17h430a913ec59d828eE+0x42>
   21a2c:	2001      	movs	r0, #1
   21a2e:	9a03      	ldr	r2, [sp, #12]
   21a30:	7010      	strb	r0, [r2, #0]
   21a32:	6051      	str	r1, [r2, #4]
   21a34:	e02d      	b.n	21a92 <_ZN20complex_dynamic_type3app17h430a913ec59d828eE+0x9e>
   21a36:	9d03      	ldr	r5, [sp, #12]
   21a38:	a804      	add	r0, sp, #16
   21a3a:	2104      	movs	r1, #4
   21a3c:	7001      	strb	r1, [r0, #0]
   21a3e:	4840      	ldr	r0, [pc, #256]	@ (21b40 <_ZN20complex_dynamic_type3app17h430a913ec59d828eE+0x14c>)
   21a40:	2109      	movs	r1, #9
   21a42:	230f      	movs	r3, #15
   21a44:	9c01      	ldr	r4, [sp, #4]
   21a46:	4622      	mov	r2, r4
   21a48:	df03      	svc	3
   21a4a:	2802      	cmp	r0, #2
   21a4c:	d10e      	bne.n	21a6c <_ZN20complex_dynamic_type3app17h430a913ec59d828eE+0x78>
   21a4e:	2001      	movs	r0, #1
   21a50:	7028      	strb	r0, [r5, #0]
   21a52:	6069      	str	r1, [r5, #4]
   21a54:	a817      	add	r0, sp, #92	@ 0x5c
   21a56:	7800      	ldrb	r0, [r0, #0]
   21a58:	2802      	cmp	r0, #2
   21a5a:	d01a      	beq.n	21a92 <_ZN20complex_dynamic_type3app17h430a913ec59d828eE+0x9e>
   21a5c:	2803      	cmp	r0, #3
   21a5e:	d013      	beq.n	21a88 <_ZN20complex_dynamic_type3app17h430a913ec59d828eE+0x94>
   21a60:	4837      	ldr	r0, [pc, #220]	@ (21b40 <_ZN20complex_dynamic_type3app17h430a913ec59d828eE+0x14c>)
   21a62:	2109      	movs	r1, #9
   21a64:	2200      	movs	r2, #0
   21a66:	4613      	mov	r3, r2
   21a68:	df04      	svc	4
   21a6a:	e012      	b.n	21a92 <_ZN20complex_dynamic_type3app17h430a913ec59d828eE+0x9e>
   21a6c:	a817      	add	r0, sp, #92	@ 0x5c
   21a6e:	2103      	movs	r1, #3
   21a70:	7001      	strb	r1, [r0, #0]
   21a72:	4833      	ldr	r0, [pc, #204]	@ (21b40 <_ZN20complex_dynamic_type3app17h430a913ec59d828eE+0x14c>)
   21a74:	2108      	movs	r1, #8
   21a76:	2209      	movs	r2, #9
   21a78:	2600      	movs	r6, #0
   21a7a:	4633      	mov	r3, r6
   21a7c:	df02      	svc	2
   21a7e:	2880      	cmp	r0, #128	@ 0x80
   21a80:	d21b      	bcs.n	21aba <_ZN20complex_dynamic_type3app17h430a913ec59d828eE+0xc6>
   21a82:	2001      	movs	r0, #1
   21a84:	7028      	strb	r0, [r5, #0]
   21a86:	6069      	str	r1, [r5, #4]
   21a88:	482d      	ldr	r0, [pc, #180]	@ (21b40 <_ZN20complex_dynamic_type3app17h430a913ec59d828eE+0x14c>)
   21a8a:	2109      	movs	r1, #9
   21a8c:	2200      	movs	r2, #0
   21a8e:	4613      	mov	r3, r2
   21a90:	df03      	svc	3
   21a92:	a804      	add	r0, sp, #16
   21a94:	7800      	ldrb	r0, [r0, #0]
   21a96:	2802      	cmp	r0, #2
   21a98:	d045      	beq.n	21b26 <_ZN20complex_dynamic_type3app17h430a913ec59d828eE+0x132>
   21a9a:	2804      	cmp	r0, #4
   21a9c:	d106      	bne.n	21aac <_ZN20complex_dynamic_type3app17h430a913ec59d828eE+0xb8>
   21a9e:	4828      	ldr	r0, [pc, #160]	@ (21b40 <_ZN20complex_dynamic_type3app17h430a913ec59d828eE+0x14c>)
   21aa0:	2108      	movs	r1, #8
   21aa2:	2200      	movs	r2, #0
   21aa4:	4613      	mov	r3, r2
   21aa6:	df04      	svc	4
   21aa8:	b01b      	add	sp, #108	@ 0x6c
   21aaa:	bdf0      	pop	{r4, r5, r6, r7, pc}
   21aac:	4824      	ldr	r0, [pc, #144]	@ (21b40 <_ZN20complex_dynamic_type3app17h430a913ec59d828eE+0x14c>)
   21aae:	2108      	movs	r1, #8
   21ab0:	2200      	movs	r2, #0
   21ab2:	4613      	mov	r3, r2
   21ab4:	df03      	svc	3
   21ab6:	b01b      	add	sp, #108	@ 0x6c
   21ab8:	bdf0      	pop	{r4, r5, r6, r7, pc}
   21aba:	a804      	add	r0, sp, #16
   21abc:	7800      	ldrb	r0, [r0, #0]
   21abe:	2802      	cmp	r0, #2
   21ac0:	d00c      	beq.n	21adc <_ZN20complex_dynamic_type3app17h430a913ec59d828eE+0xe8>
   21ac2:	2803      	cmp	r0, #3
   21ac4:	d105      	bne.n	21ad2 <_ZN20complex_dynamic_type3app17h430a913ec59d828eE+0xde>
   21ac6:	481e      	ldr	r0, [pc, #120]	@ (21b40 <_ZN20complex_dynamic_type3app17h430a913ec59d828eE+0x14c>)
   21ac8:	2108      	movs	r1, #8
   21aca:	2200      	movs	r2, #0
   21acc:	4613      	mov	r3, r2
   21ace:	df03      	svc	3
   21ad0:	e004      	b.n	21adc <_ZN20complex_dynamic_type3app17h430a913ec59d828eE+0xe8>
   21ad2:	481b      	ldr	r0, [pc, #108]	@ (21b40 <_ZN20complex_dynamic_type3app17h430a913ec59d828eE+0x14c>)
   21ad4:	2108      	movs	r1, #8
   21ad6:	2200      	movs	r2, #0
   21ad8:	4613      	mov	r3, r2
   21ada:	df04      	svc	4
   21adc:	a804      	add	r0, sp, #16
   21ade:	9900      	ldr	r1, [sp, #0]
   21ae0:	7001      	strb	r1, [r0, #0]
   21ae2:	a817      	add	r0, sp, #92	@ 0x5c
   21ae4:	7800      	ldrb	r0, [r0, #0]
   21ae6:	2804      	cmp	r0, #4
   21ae8:	d007      	beq.n	21afa <_ZN20complex_dynamic_type3app17h430a913ec59d828eE+0x106>
   21aea:	2803      	cmp	r0, #3
   21aec:	d11d      	bne.n	21b2a <_ZN20complex_dynamic_type3app17h430a913ec59d828eE+0x136>
   21aee:	4814      	ldr	r0, [pc, #80]	@ (21b40 <_ZN20complex_dynamic_type3app17h430a913ec59d828eE+0x14c>)
   21af0:	2109      	movs	r1, #9
   21af2:	2200      	movs	r2, #0
   21af4:	4613      	mov	r3, r2
   21af6:	df03      	svc	3
   21af8:	e004      	b.n	21b04 <_ZN20complex_dynamic_type3app17h430a913ec59d828eE+0x110>
   21afa:	4811      	ldr	r0, [pc, #68]	@ (21b40 <_ZN20complex_dynamic_type3app17h430a913ec59d828eE+0x14c>)
   21afc:	2109      	movs	r1, #9
   21afe:	2200      	movs	r2, #0
   21b00:	4613      	mov	r3, r2
   21b02:	df04      	svc	4
   21b04:	a804      	add	r0, sp, #16
   21b06:	7804      	ldrb	r4, [r0, #0]
   21b08:	1c68      	adds	r0, r5, #1
   21b0a:	220f      	movs	r2, #15
   21b0c:	9901      	ldr	r1, [sp, #4]
   21b0e:	f009 faf9 	bl	2b104 <__aeabi_memcpy>
   21b12:	702e      	strb	r6, [r5, #0]
   21b14:	2c02      	cmp	r4, #2
   21b16:	d006      	beq.n	21b26 <_ZN20complex_dynamic_type3app17h430a913ec59d828eE+0x132>
   21b18:	4809      	ldr	r0, [pc, #36]	@ (21b40 <_ZN20complex_dynamic_type3app17h430a913ec59d828eE+0x14c>)
   21b1a:	2108      	movs	r1, #8
   21b1c:	2200      	movs	r2, #0
   21b1e:	4613      	mov	r3, r2
   21b20:	2c04      	cmp	r4, #4
   21b22:	d10a      	bne.n	21b3a <_ZN20complex_dynamic_type3app17h430a913ec59d828eE+0x146>
   21b24:	df04      	svc	4
   21b26:	b01b      	add	sp, #108	@ 0x6c
   21b28:	bdf0      	pop	{r4, r5, r6, r7, pc}
   21b2a:	1c68      	adds	r0, r5, #1
   21b2c:	220f      	movs	r2, #15
   21b2e:	4621      	mov	r1, r4
   21b30:	f009 fae8 	bl	2b104 <__aeabi_memcpy>
   21b34:	702e      	strb	r6, [r5, #0]
   21b36:	b01b      	add	sp, #108	@ 0x6c
   21b38:	bdf0      	pop	{r4, r5, r6, r7, pc}
   21b3a:	df03      	svc	3
   21b3c:	b01b      	add	sp, #108	@ 0x6c
   21b3e:	bdf0      	pop	{r4, r5, r6, r7, pc}
   21b40:	0000111d 	.word	0x0000111d

00021b44 <_ZN20complex_dynamic_type3app17h443dba469ab14169E>:
   21b44:	b5f0      	push	{r4, r5, r6, r7, lr}
   21b46:	af03      	add	r7, sp, #12
   21b48:	b0ad      	sub	sp, #180	@ 0xb4
   21b4a:	9003      	str	r0, [sp, #12]
   21b4c:	a804      	add	r0, sp, #16
   21b4e:	2602      	movs	r6, #2
   21b50:	7006      	strb	r6, [r0, #0]
   21b52:	1c40      	adds	r0, r0, #1
   21b54:	9002      	str	r0, [sp, #8]
   21b56:	2551      	movs	r5, #81	@ 0x51
   21b58:	462a      	mov	r2, r5
   21b5a:	f009 fad3 	bl	2b104 <__aeabi_memcpy>
   21b5e:	ac19      	add	r4, sp, #100	@ 0x64
   21b60:	1c60      	adds	r0, r4, #1
   21b62:	214f      	movs	r1, #79	@ 0x4f
   21b64:	9001      	str	r0, [sp, #4]
   21b66:	f009 f90d 	bl	2ad84 <__aeabi_memclr>
   21b6a:	7026      	strb	r6, [r4, #0]
   21b6c:	4849      	ldr	r0, [pc, #292]	@ (21c94 <_ZN20complex_dynamic_type3app17h443dba469ab14169E+0x150>)
   21b6e:	4631      	mov	r1, r6
   21b70:	9a02      	ldr	r2, [sp, #8]
   21b72:	462b      	mov	r3, r5
   21b74:	df04      	svc	4
   21b76:	2802      	cmp	r0, #2
   21b78:	d104      	bne.n	21b84 <_ZN20complex_dynamic_type3app17h443dba469ab14169E+0x40>
   21b7a:	2001      	movs	r0, #1
   21b7c:	9a03      	ldr	r2, [sp, #12]
   21b7e:	7010      	strb	r0, [r2, #0]
   21b80:	6051      	str	r1, [r2, #4]
   21b82:	e02d      	b.n	21be0 <_ZN20complex_dynamic_type3app17h443dba469ab14169E+0x9c>
   21b84:	9d03      	ldr	r5, [sp, #12]
   21b86:	a804      	add	r0, sp, #16
   21b88:	2104      	movs	r1, #4
   21b8a:	7001      	strb	r1, [r0, #0]
   21b8c:	4841      	ldr	r0, [pc, #260]	@ (21c94 <_ZN20complex_dynamic_type3app17h443dba469ab14169E+0x150>)
   21b8e:	234f      	movs	r3, #79	@ 0x4f
   21b90:	9c01      	ldr	r4, [sp, #4]
   21b92:	4622      	mov	r2, r4
   21b94:	df03      	svc	3
   21b96:	2802      	cmp	r0, #2
   21b98:	d10e      	bne.n	21bb8 <_ZN20complex_dynamic_type3app17h443dba469ab14169E+0x74>
   21b9a:	2001      	movs	r0, #1
   21b9c:	7028      	strb	r0, [r5, #0]
   21b9e:	6069      	str	r1, [r5, #4]
   21ba0:	a819      	add	r0, sp, #100	@ 0x64
   21ba2:	7800      	ldrb	r0, [r0, #0]
   21ba4:	2802      	cmp	r0, #2
   21ba6:	d01b      	beq.n	21be0 <_ZN20complex_dynamic_type3app17h443dba469ab14169E+0x9c>
   21ba8:	2803      	cmp	r0, #3
   21baa:	d014      	beq.n	21bd6 <_ZN20complex_dynamic_type3app17h443dba469ab14169E+0x92>
   21bac:	4839      	ldr	r0, [pc, #228]	@ (21c94 <_ZN20complex_dynamic_type3app17h443dba469ab14169E+0x150>)
   21bae:	2104      	movs	r1, #4
   21bb0:	2200      	movs	r2, #0
   21bb2:	4613      	mov	r3, r2
   21bb4:	df04      	svc	4
   21bb6:	e013      	b.n	21be0 <_ZN20complex_dynamic_type3app17h443dba469ab14169E+0x9c>
   21bb8:	a819      	add	r0, sp, #100	@ 0x64
   21bba:	2103      	movs	r1, #3
   21bbc:	7001      	strb	r1, [r0, #0]
   21bbe:	4835      	ldr	r0, [pc, #212]	@ (21c94 <_ZN20complex_dynamic_type3app17h443dba469ab14169E+0x150>)
   21bc0:	2602      	movs	r6, #2
   21bc2:	2204      	movs	r2, #4
   21bc4:	2300      	movs	r3, #0
   21bc6:	4631      	mov	r1, r6
   21bc8:	9302      	str	r3, [sp, #8]
   21bca:	df02      	svc	2
   21bcc:	2880      	cmp	r0, #128	@ 0x80
   21bce:	d21b      	bcs.n	21c08 <_ZN20complex_dynamic_type3app17h443dba469ab14169E+0xc4>
   21bd0:	2001      	movs	r0, #1
   21bd2:	7028      	strb	r0, [r5, #0]
   21bd4:	6069      	str	r1, [r5, #4]
   21bd6:	482f      	ldr	r0, [pc, #188]	@ (21c94 <_ZN20complex_dynamic_type3app17h443dba469ab14169E+0x150>)
   21bd8:	2104      	movs	r1, #4
   21bda:	2200      	movs	r2, #0
   21bdc:	4613      	mov	r3, r2
   21bde:	df03      	svc	3
   21be0:	a804      	add	r0, sp, #16
   21be2:	7800      	ldrb	r0, [r0, #0]
   21be4:	2802      	cmp	r0, #2
   21be6:	d047      	beq.n	21c78 <_ZN20complex_dynamic_type3app17h443dba469ab14169E+0x134>
   21be8:	2804      	cmp	r0, #4
   21bea:	d106      	bne.n	21bfa <_ZN20complex_dynamic_type3app17h443dba469ab14169E+0xb6>
   21bec:	4829      	ldr	r0, [pc, #164]	@ (21c94 <_ZN20complex_dynamic_type3app17h443dba469ab14169E+0x150>)
   21bee:	2102      	movs	r1, #2
   21bf0:	2200      	movs	r2, #0
   21bf2:	4613      	mov	r3, r2
   21bf4:	df04      	svc	4
   21bf6:	b02d      	add	sp, #180	@ 0xb4
   21bf8:	bdf0      	pop	{r4, r5, r6, r7, pc}
   21bfa:	4826      	ldr	r0, [pc, #152]	@ (21c94 <_ZN20complex_dynamic_type3app17h443dba469ab14169E+0x150>)
   21bfc:	2102      	movs	r1, #2
   21bfe:	2200      	movs	r2, #0
   21c00:	4613      	mov	r3, r2
   21c02:	df03      	svc	3
   21c04:	b02d      	add	sp, #180	@ 0xb4
   21c06:	bdf0      	pop	{r4, r5, r6, r7, pc}
   21c08:	a804      	add	r0, sp, #16
   21c0a:	7800      	ldrb	r0, [r0, #0]
   21c0c:	2802      	cmp	r0, #2
   21c0e:	d00c      	beq.n	21c2a <_ZN20complex_dynamic_type3app17h443dba469ab14169E+0xe6>
   21c10:	2803      	cmp	r0, #3
   21c12:	d105      	bne.n	21c20 <_ZN20complex_dynamic_type3app17h443dba469ab14169E+0xdc>
   21c14:	481f      	ldr	r0, [pc, #124]	@ (21c94 <_ZN20complex_dynamic_type3app17h443dba469ab14169E+0x150>)
   21c16:	2102      	movs	r1, #2
   21c18:	2200      	movs	r2, #0
   21c1a:	4613      	mov	r3, r2
   21c1c:	df03      	svc	3
   21c1e:	e004      	b.n	21c2a <_ZN20complex_dynamic_type3app17h443dba469ab14169E+0xe6>
   21c20:	481c      	ldr	r0, [pc, #112]	@ (21c94 <_ZN20complex_dynamic_type3app17h443dba469ab14169E+0x150>)
   21c22:	2102      	movs	r1, #2
   21c24:	2200      	movs	r2, #0
   21c26:	4613      	mov	r3, r2
   21c28:	df04      	svc	4
   21c2a:	a804      	add	r0, sp, #16
   21c2c:	7006      	strb	r6, [r0, #0]
   21c2e:	a819      	add	r0, sp, #100	@ 0x64
   21c30:	7800      	ldrb	r0, [r0, #0]
   21c32:	2804      	cmp	r0, #4
   21c34:	d008      	beq.n	21c48 <_ZN20complex_dynamic_type3app17h443dba469ab14169E+0x104>
   21c36:	2803      	cmp	r0, #3
   21c38:	d120      	bne.n	21c7c <_ZN20complex_dynamic_type3app17h443dba469ab14169E+0x138>
   21c3a:	4626      	mov	r6, r4
   21c3c:	4815      	ldr	r0, [pc, #84]	@ (21c94 <_ZN20complex_dynamic_type3app17h443dba469ab14169E+0x150>)
   21c3e:	2104      	movs	r1, #4
   21c40:	2200      	movs	r2, #0
   21c42:	4613      	mov	r3, r2
   21c44:	df03      	svc	3
   21c46:	e005      	b.n	21c54 <_ZN20complex_dynamic_type3app17h443dba469ab14169E+0x110>
   21c48:	4626      	mov	r6, r4
   21c4a:	4812      	ldr	r0, [pc, #72]	@ (21c94 <_ZN20complex_dynamic_type3app17h443dba469ab14169E+0x150>)
   21c4c:	2104      	movs	r1, #4
   21c4e:	2200      	movs	r2, #0
   21c50:	4613      	mov	r3, r2
   21c52:	df04      	svc	4
   21c54:	a804      	add	r0, sp, #16
   21c56:	7804      	ldrb	r4, [r0, #0]
   21c58:	1c68      	adds	r0, r5, #1
   21c5a:	224f      	movs	r2, #79	@ 0x4f
   21c5c:	4631      	mov	r1, r6
   21c5e:	f009 fa51 	bl	2b104 <__aeabi_memcpy>
   21c62:	9802      	ldr	r0, [sp, #8]
   21c64:	7028      	strb	r0, [r5, #0]
   21c66:	2c02      	cmp	r4, #2
   21c68:	d006      	beq.n	21c78 <_ZN20complex_dynamic_type3app17h443dba469ab14169E+0x134>
   21c6a:	480a      	ldr	r0, [pc, #40]	@ (21c94 <_ZN20complex_dynamic_type3app17h443dba469ab14169E+0x150>)
   21c6c:	2102      	movs	r1, #2
   21c6e:	2200      	movs	r2, #0
   21c70:	4613      	mov	r3, r2
   21c72:	2c04      	cmp	r4, #4
   21c74:	d10b      	bne.n	21c8e <_ZN20complex_dynamic_type3app17h443dba469ab14169E+0x14a>
   21c76:	df04      	svc	4
   21c78:	b02d      	add	sp, #180	@ 0xb4
   21c7a:	bdf0      	pop	{r4, r5, r6, r7, pc}
   21c7c:	1c68      	adds	r0, r5, #1
   21c7e:	224f      	movs	r2, #79	@ 0x4f
   21c80:	4621      	mov	r1, r4
   21c82:	f009 fa3f 	bl	2b104 <__aeabi_memcpy>
   21c86:	9802      	ldr	r0, [sp, #8]
   21c88:	7028      	strb	r0, [r5, #0]
   21c8a:	b02d      	add	sp, #180	@ 0xb4
   21c8c:	bdf0      	pop	{r4, r5, r6, r7, pc}
   21c8e:	df03      	svc	3
   21c90:	b02d      	add	sp, #180	@ 0xb4
   21c92:	bdf0      	pop	{r4, r5, r6, r7, pc}
   21c94:	00000e16 	.word	0x00000e16

00021c98 <_ZN20complex_dynamic_type3app17h4479d396fa9e33d3E>:
   21c98:	b5f0      	push	{r4, r5, r6, r7, lr}
   21c9a:	af03      	add	r7, sp, #12
   21c9c:	b0a1      	sub	sp, #132	@ 0x84
   21c9e:	9004      	str	r0, [sp, #16]
   21ca0:	a805      	add	r0, sp, #20
   21ca2:	2402      	movs	r4, #2
   21ca4:	7004      	strb	r4, [r0, #0]
   21ca6:	1c46      	adds	r6, r0, #1
   21ca8:	2249      	movs	r2, #73	@ 0x49
   21caa:	9203      	str	r2, [sp, #12]
   21cac:	4630      	mov	r0, r6
   21cae:	f009 fa29 	bl	2b104 <__aeabi_memcpy>
   21cb2:	ad18      	add	r5, sp, #96	@ 0x60
   21cb4:	1c68      	adds	r0, r5, #1
   21cb6:	2123      	movs	r1, #35	@ 0x23
   21cb8:	9002      	str	r0, [sp, #8]
   21cba:	f009 f863 	bl	2ad84 <__aeabi_memclr>
   21cbe:	9401      	str	r4, [sp, #4]
   21cc0:	702c      	strb	r4, [r5, #0]
   21cc2:	4848      	ldr	r0, [pc, #288]	@ (21de4 <_ZN20complex_dynamic_type3app17h4479d396fa9e33d3E+0x14c>)
   21cc4:	2107      	movs	r1, #7
   21cc6:	4632      	mov	r2, r6
   21cc8:	9b03      	ldr	r3, [sp, #12]
   21cca:	df04      	svc	4
   21ccc:	2802      	cmp	r0, #2
   21cce:	d104      	bne.n	21cda <_ZN20complex_dynamic_type3app17h4479d396fa9e33d3E+0x42>
   21cd0:	2001      	movs	r0, #1
   21cd2:	9a04      	ldr	r2, [sp, #16]
   21cd4:	7010      	strb	r0, [r2, #0]
   21cd6:	6051      	str	r1, [r2, #4]
   21cd8:	e02c      	b.n	21d34 <_ZN20complex_dynamic_type3app17h4479d396fa9e33d3E+0x9c>
   21cda:	9d04      	ldr	r5, [sp, #16]
   21cdc:	a805      	add	r0, sp, #20
   21cde:	2104      	movs	r1, #4
   21ce0:	7001      	strb	r1, [r0, #0]
   21ce2:	4840      	ldr	r0, [pc, #256]	@ (21de4 <_ZN20complex_dynamic_type3app17h4479d396fa9e33d3E+0x14c>)
   21ce4:	2401      	movs	r4, #1
   21ce6:	2323      	movs	r3, #35	@ 0x23
   21ce8:	4621      	mov	r1, r4
   21cea:	9a02      	ldr	r2, [sp, #8]
   21cec:	df03      	svc	3
   21cee:	2802      	cmp	r0, #2
   21cf0:	d10d      	bne.n	21d0e <_ZN20complex_dynamic_type3app17h4479d396fa9e33d3E+0x76>
   21cf2:	702c      	strb	r4, [r5, #0]
   21cf4:	6069      	str	r1, [r5, #4]
   21cf6:	a818      	add	r0, sp, #96	@ 0x60
   21cf8:	7800      	ldrb	r0, [r0, #0]
   21cfa:	2802      	cmp	r0, #2
   21cfc:	d01a      	beq.n	21d34 <_ZN20complex_dynamic_type3app17h4479d396fa9e33d3E+0x9c>
   21cfe:	2803      	cmp	r0, #3
   21d00:	d013      	beq.n	21d2a <_ZN20complex_dynamic_type3app17h4479d396fa9e33d3E+0x92>
   21d02:	4838      	ldr	r0, [pc, #224]	@ (21de4 <_ZN20complex_dynamic_type3app17h4479d396fa9e33d3E+0x14c>)
   21d04:	2101      	movs	r1, #1
   21d06:	2200      	movs	r2, #0
   21d08:	4613      	mov	r3, r2
   21d0a:	df04      	svc	4
   21d0c:	e012      	b.n	21d34 <_ZN20complex_dynamic_type3app17h4479d396fa9e33d3E+0x9c>
   21d0e:	a818      	add	r0, sp, #96	@ 0x60
   21d10:	2103      	movs	r1, #3
   21d12:	7001      	strb	r1, [r0, #0]
   21d14:	4833      	ldr	r0, [pc, #204]	@ (21de4 <_ZN20complex_dynamic_type3app17h4479d396fa9e33d3E+0x14c>)
   21d16:	2107      	movs	r1, #7
   21d18:	2401      	movs	r4, #1
   21d1a:	2600      	movs	r6, #0
   21d1c:	4622      	mov	r2, r4
   21d1e:	4633      	mov	r3, r6
   21d20:	df02      	svc	2
   21d22:	2880      	cmp	r0, #128	@ 0x80
   21d24:	d21a      	bcs.n	21d5c <_ZN20complex_dynamic_type3app17h4479d396fa9e33d3E+0xc4>
   21d26:	702c      	strb	r4, [r5, #0]
   21d28:	6069      	str	r1, [r5, #4]
   21d2a:	482e      	ldr	r0, [pc, #184]	@ (21de4 <_ZN20complex_dynamic_type3app17h4479d396fa9e33d3E+0x14c>)
   21d2c:	2101      	movs	r1, #1
   21d2e:	2200      	movs	r2, #0
   21d30:	4613      	mov	r3, r2
   21d32:	df03      	svc	3
   21d34:	a805      	add	r0, sp, #20
   21d36:	7800      	ldrb	r0, [r0, #0]
   21d38:	2802      	cmp	r0, #2
   21d3a:	d045      	beq.n	21dc8 <_ZN20complex_dynamic_type3app17h4479d396fa9e33d3E+0x130>
   21d3c:	2804      	cmp	r0, #4
   21d3e:	d106      	bne.n	21d4e <_ZN20complex_dynamic_type3app17h4479d396fa9e33d3E+0xb6>
   21d40:	4828      	ldr	r0, [pc, #160]	@ (21de4 <_ZN20complex_dynamic_type3app17h4479d396fa9e33d3E+0x14c>)
   21d42:	2107      	movs	r1, #7
   21d44:	2200      	movs	r2, #0
   21d46:	4613      	mov	r3, r2
   21d48:	df04      	svc	4
   21d4a:	b021      	add	sp, #132	@ 0x84
   21d4c:	bdf0      	pop	{r4, r5, r6, r7, pc}
   21d4e:	4825      	ldr	r0, [pc, #148]	@ (21de4 <_ZN20complex_dynamic_type3app17h4479d396fa9e33d3E+0x14c>)
   21d50:	2107      	movs	r1, #7
   21d52:	2200      	movs	r2, #0
   21d54:	4613      	mov	r3, r2
   21d56:	df03      	svc	3
   21d58:	b021      	add	sp, #132	@ 0x84
   21d5a:	bdf0      	pop	{r4, r5, r6, r7, pc}
   21d5c:	a805      	add	r0, sp, #20
   21d5e:	7800      	ldrb	r0, [r0, #0]
   21d60:	2802      	cmp	r0, #2
   21d62:	d00c      	beq.n	21d7e <_ZN20complex_dynamic_type3app17h4479d396fa9e33d3E+0xe6>
   21d64:	2803      	cmp	r0, #3
   21d66:	d105      	bne.n	21d74 <_ZN20complex_dynamic_type3app17h4479d396fa9e33d3E+0xdc>
   21d68:	481e      	ldr	r0, [pc, #120]	@ (21de4 <_ZN20complex_dynamic_type3app17h4479d396fa9e33d3E+0x14c>)
   21d6a:	2107      	movs	r1, #7
   21d6c:	2200      	movs	r2, #0
   21d6e:	4613      	mov	r3, r2
   21d70:	df03      	svc	3
   21d72:	e004      	b.n	21d7e <_ZN20complex_dynamic_type3app17h4479d396fa9e33d3E+0xe6>
   21d74:	481b      	ldr	r0, [pc, #108]	@ (21de4 <_ZN20complex_dynamic_type3app17h4479d396fa9e33d3E+0x14c>)
   21d76:	2107      	movs	r1, #7
   21d78:	2200      	movs	r2, #0
   21d7a:	4613      	mov	r3, r2
   21d7c:	df04      	svc	4
   21d7e:	a805      	add	r0, sp, #20
   21d80:	9901      	ldr	r1, [sp, #4]
   21d82:	7001      	strb	r1, [r0, #0]
   21d84:	a818      	add	r0, sp, #96	@ 0x60
   21d86:	7800      	ldrb	r0, [r0, #0]
   21d88:	2804      	cmp	r0, #4
   21d8a:	d007      	beq.n	21d9c <_ZN20complex_dynamic_type3app17h4479d396fa9e33d3E+0x104>
   21d8c:	2803      	cmp	r0, #3
   21d8e:	d11d      	bne.n	21dcc <_ZN20complex_dynamic_type3app17h4479d396fa9e33d3E+0x134>
   21d90:	4814      	ldr	r0, [pc, #80]	@ (21de4 <_ZN20complex_dynamic_type3app17h4479d396fa9e33d3E+0x14c>)
   21d92:	2101      	movs	r1, #1
   21d94:	2200      	movs	r2, #0
   21d96:	4613      	mov	r3, r2
   21d98:	df03      	svc	3
   21d9a:	e004      	b.n	21da6 <_ZN20complex_dynamic_type3app17h4479d396fa9e33d3E+0x10e>
   21d9c:	4811      	ldr	r0, [pc, #68]	@ (21de4 <_ZN20complex_dynamic_type3app17h4479d396fa9e33d3E+0x14c>)
   21d9e:	2101      	movs	r1, #1
   21da0:	2200      	movs	r2, #0
   21da2:	4613      	mov	r3, r2
   21da4:	df04      	svc	4
   21da6:	a805      	add	r0, sp, #20
   21da8:	7804      	ldrb	r4, [r0, #0]
   21daa:	1c68      	adds	r0, r5, #1
   21dac:	2223      	movs	r2, #35	@ 0x23
   21dae:	9902      	ldr	r1, [sp, #8]
   21db0:	f009 f9a8 	bl	2b104 <__aeabi_memcpy>
   21db4:	702e      	strb	r6, [r5, #0]
   21db6:	2c02      	cmp	r4, #2
   21db8:	d006      	beq.n	21dc8 <_ZN20complex_dynamic_type3app17h4479d396fa9e33d3E+0x130>
   21dba:	480a      	ldr	r0, [pc, #40]	@ (21de4 <_ZN20complex_dynamic_type3app17h4479d396fa9e33d3E+0x14c>)
   21dbc:	2107      	movs	r1, #7
   21dbe:	2200      	movs	r2, #0
   21dc0:	4613      	mov	r3, r2
   21dc2:	2c04      	cmp	r4, #4
   21dc4:	d10a      	bne.n	21ddc <_ZN20complex_dynamic_type3app17h4479d396fa9e33d3E+0x144>
   21dc6:	df04      	svc	4
   21dc8:	b021      	add	sp, #132	@ 0x84
   21dca:	bdf0      	pop	{r4, r5, r6, r7, pc}
   21dcc:	1c68      	adds	r0, r5, #1
   21dce:	2223      	movs	r2, #35	@ 0x23
   21dd0:	9902      	ldr	r1, [sp, #8]
   21dd2:	f009 f997 	bl	2b104 <__aeabi_memcpy>
   21dd6:	702e      	strb	r6, [r5, #0]
   21dd8:	b021      	add	sp, #132	@ 0x84
   21dda:	bdf0      	pop	{r4, r5, r6, r7, pc}
   21ddc:	df03      	svc	3
   21dde:	b021      	add	sp, #132	@ 0x84
   21de0:	bdf0      	pop	{r4, r5, r6, r7, pc}
   21de2:	46c0      	nop			@ (mov r8, r8)
   21de4:	00001551 	.word	0x00001551

00021de8 <_ZN20complex_dynamic_type3app17h450f80b7b9918562E>:
   21de8:	b5f0      	push	{r4, r5, r6, r7, lr}
   21dea:	af03      	add	r7, sp, #12
   21dec:	b099      	sub	sp, #100	@ 0x64
   21dee:	9003      	str	r0, [sp, #12]
   21df0:	a804      	add	r0, sp, #16
   21df2:	2402      	movs	r4, #2
   21df4:	7004      	strb	r4, [r0, #0]
   21df6:	1c46      	adds	r6, r0, #1
   21df8:	223f      	movs	r2, #63	@ 0x3f
   21dfa:	9202      	str	r2, [sp, #8]
   21dfc:	4630      	mov	r0, r6
   21dfe:	f009 f981 	bl	2b104 <__aeabi_memcpy>
   21e02:	ad14      	add	r5, sp, #80	@ 0x50
   21e04:	1c68      	adds	r0, r5, #1
   21e06:	2111      	movs	r1, #17
   21e08:	9001      	str	r0, [sp, #4]
   21e0a:	f008 ffbb 	bl	2ad84 <__aeabi_memclr>
   21e0e:	9400      	str	r4, [sp, #0]
   21e10:	702c      	strb	r4, [r5, #0]
   21e12:	4848      	ldr	r0, [pc, #288]	@ (21f34 <_ZN20complex_dynamic_type3app17h450f80b7b9918562E+0x14c>)
   21e14:	2504      	movs	r5, #4
   21e16:	4629      	mov	r1, r5
   21e18:	4632      	mov	r2, r6
   21e1a:	9b02      	ldr	r3, [sp, #8]
   21e1c:	df04      	svc	4
   21e1e:	2802      	cmp	r0, #2
   21e20:	d104      	bne.n	21e2c <_ZN20complex_dynamic_type3app17h450f80b7b9918562E+0x44>
   21e22:	2001      	movs	r0, #1
   21e24:	9a03      	ldr	r2, [sp, #12]
   21e26:	7010      	strb	r0, [r2, #0]
   21e28:	6051      	str	r1, [r2, #4]
   21e2a:	e02b      	b.n	21e84 <_ZN20complex_dynamic_type3app17h450f80b7b9918562E+0x9c>
   21e2c:	9e03      	ldr	r6, [sp, #12]
   21e2e:	a804      	add	r0, sp, #16
   21e30:	7005      	strb	r5, [r0, #0]
   21e32:	4840      	ldr	r0, [pc, #256]	@ (21f34 <_ZN20complex_dynamic_type3app17h450f80b7b9918562E+0x14c>)
   21e34:	2403      	movs	r4, #3
   21e36:	2311      	movs	r3, #17
   21e38:	4621      	mov	r1, r4
   21e3a:	9a01      	ldr	r2, [sp, #4]
   21e3c:	df03      	svc	3
   21e3e:	2802      	cmp	r0, #2
   21e40:	d10e      	bne.n	21e60 <_ZN20complex_dynamic_type3app17h450f80b7b9918562E+0x78>
   21e42:	2001      	movs	r0, #1
   21e44:	7030      	strb	r0, [r6, #0]
   21e46:	6071      	str	r1, [r6, #4]
   21e48:	a814      	add	r0, sp, #80	@ 0x50
   21e4a:	7800      	ldrb	r0, [r0, #0]
   21e4c:	2802      	cmp	r0, #2
   21e4e:	d019      	beq.n	21e84 <_ZN20complex_dynamic_type3app17h450f80b7b9918562E+0x9c>
   21e50:	2803      	cmp	r0, #3
   21e52:	d012      	beq.n	21e7a <_ZN20complex_dynamic_type3app17h450f80b7b9918562E+0x92>
   21e54:	4837      	ldr	r0, [pc, #220]	@ (21f34 <_ZN20complex_dynamic_type3app17h450f80b7b9918562E+0x14c>)
   21e56:	2103      	movs	r1, #3
   21e58:	2200      	movs	r2, #0
   21e5a:	4613      	mov	r3, r2
   21e5c:	df04      	svc	4
   21e5e:	e011      	b.n	21e84 <_ZN20complex_dynamic_type3app17h450f80b7b9918562E+0x9c>
   21e60:	a814      	add	r0, sp, #80	@ 0x50
   21e62:	7004      	strb	r4, [r0, #0]
   21e64:	4833      	ldr	r0, [pc, #204]	@ (21f34 <_ZN20complex_dynamic_type3app17h450f80b7b9918562E+0x14c>)
   21e66:	2104      	movs	r1, #4
   21e68:	2500      	movs	r5, #0
   21e6a:	4622      	mov	r2, r4
   21e6c:	462b      	mov	r3, r5
   21e6e:	df02      	svc	2
   21e70:	2880      	cmp	r0, #128	@ 0x80
   21e72:	d21b      	bcs.n	21eac <_ZN20complex_dynamic_type3app17h450f80b7b9918562E+0xc4>
   21e74:	2001      	movs	r0, #1
   21e76:	7030      	strb	r0, [r6, #0]
   21e78:	6071      	str	r1, [r6, #4]
   21e7a:	482e      	ldr	r0, [pc, #184]	@ (21f34 <_ZN20complex_dynamic_type3app17h450f80b7b9918562E+0x14c>)
   21e7c:	2103      	movs	r1, #3
   21e7e:	2200      	movs	r2, #0
   21e80:	4613      	mov	r3, r2
   21e82:	df03      	svc	3
   21e84:	a804      	add	r0, sp, #16
   21e86:	7800      	ldrb	r0, [r0, #0]
   21e88:	2802      	cmp	r0, #2
   21e8a:	d045      	beq.n	21f18 <_ZN20complex_dynamic_type3app17h450f80b7b9918562E+0x130>
   21e8c:	2804      	cmp	r0, #4
   21e8e:	d106      	bne.n	21e9e <_ZN20complex_dynamic_type3app17h450f80b7b9918562E+0xb6>
   21e90:	4828      	ldr	r0, [pc, #160]	@ (21f34 <_ZN20complex_dynamic_type3app17h450f80b7b9918562E+0x14c>)
   21e92:	2104      	movs	r1, #4
   21e94:	2200      	movs	r2, #0
   21e96:	4613      	mov	r3, r2
   21e98:	df04      	svc	4
   21e9a:	b019      	add	sp, #100	@ 0x64
   21e9c:	bdf0      	pop	{r4, r5, r6, r7, pc}
   21e9e:	4825      	ldr	r0, [pc, #148]	@ (21f34 <_ZN20complex_dynamic_type3app17h450f80b7b9918562E+0x14c>)
   21ea0:	2104      	movs	r1, #4
   21ea2:	2200      	movs	r2, #0
   21ea4:	4613      	mov	r3, r2
   21ea6:	df03      	svc	3
   21ea8:	b019      	add	sp, #100	@ 0x64
   21eaa:	bdf0      	pop	{r4, r5, r6, r7, pc}
   21eac:	a804      	add	r0, sp, #16
   21eae:	7800      	ldrb	r0, [r0, #0]
   21eb0:	2802      	cmp	r0, #2
   21eb2:	d00c      	beq.n	21ece <_ZN20complex_dynamic_type3app17h450f80b7b9918562E+0xe6>
   21eb4:	2803      	cmp	r0, #3
   21eb6:	d105      	bne.n	21ec4 <_ZN20complex_dynamic_type3app17h450f80b7b9918562E+0xdc>
   21eb8:	481e      	ldr	r0, [pc, #120]	@ (21f34 <_ZN20complex_dynamic_type3app17h450f80b7b9918562E+0x14c>)
   21eba:	2104      	movs	r1, #4
   21ebc:	2200      	movs	r2, #0
   21ebe:	4613      	mov	r3, r2
   21ec0:	df03      	svc	3
   21ec2:	e004      	b.n	21ece <_ZN20complex_dynamic_type3app17h450f80b7b9918562E+0xe6>
   21ec4:	481b      	ldr	r0, [pc, #108]	@ (21f34 <_ZN20complex_dynamic_type3app17h450f80b7b9918562E+0x14c>)
   21ec6:	2104      	movs	r1, #4
   21ec8:	2200      	movs	r2, #0
   21eca:	4613      	mov	r3, r2
   21ecc:	df04      	svc	4
   21ece:	a804      	add	r0, sp, #16
   21ed0:	9900      	ldr	r1, [sp, #0]
   21ed2:	7001      	strb	r1, [r0, #0]
   21ed4:	a814      	add	r0, sp, #80	@ 0x50
   21ed6:	7800      	ldrb	r0, [r0, #0]
   21ed8:	2804      	cmp	r0, #4
   21eda:	d007      	beq.n	21eec <_ZN20complex_dynamic_type3app17h450f80b7b9918562E+0x104>
   21edc:	2803      	cmp	r0, #3
   21ede:	d11d      	bne.n	21f1c <_ZN20complex_dynamic_type3app17h450f80b7b9918562E+0x134>
   21ee0:	4814      	ldr	r0, [pc, #80]	@ (21f34 <_ZN20complex_dynamic_type3app17h450f80b7b9918562E+0x14c>)
   21ee2:	2103      	movs	r1, #3
   21ee4:	2200      	movs	r2, #0
   21ee6:	4613      	mov	r3, r2
   21ee8:	df03      	svc	3
   21eea:	e004      	b.n	21ef6 <_ZN20complex_dynamic_type3app17h450f80b7b9918562E+0x10e>
   21eec:	4811      	ldr	r0, [pc, #68]	@ (21f34 <_ZN20complex_dynamic_type3app17h450f80b7b9918562E+0x14c>)
   21eee:	2103      	movs	r1, #3
   21ef0:	2200      	movs	r2, #0
   21ef2:	4613      	mov	r3, r2
   21ef4:	df04      	svc	4
   21ef6:	a804      	add	r0, sp, #16
   21ef8:	7804      	ldrb	r4, [r0, #0]
   21efa:	1c70      	adds	r0, r6, #1
   21efc:	2211      	movs	r2, #17
   21efe:	9901      	ldr	r1, [sp, #4]
   21f00:	f009 f900 	bl	2b104 <__aeabi_memcpy>
   21f04:	7035      	strb	r5, [r6, #0]
   21f06:	2c02      	cmp	r4, #2
   21f08:	d006      	beq.n	21f18 <_ZN20complex_dynamic_type3app17h450f80b7b9918562E+0x130>
   21f0a:	480a      	ldr	r0, [pc, #40]	@ (21f34 <_ZN20complex_dynamic_type3app17h450f80b7b9918562E+0x14c>)
   21f0c:	2104      	movs	r1, #4
   21f0e:	2200      	movs	r2, #0
   21f10:	4613      	mov	r3, r2
   21f12:	2c04      	cmp	r4, #4
   21f14:	d10a      	bne.n	21f2c <_ZN20complex_dynamic_type3app17h450f80b7b9918562E+0x144>
   21f16:	df04      	svc	4
   21f18:	b019      	add	sp, #100	@ 0x64
   21f1a:	bdf0      	pop	{r4, r5, r6, r7, pc}
   21f1c:	1c70      	adds	r0, r6, #1
   21f1e:	2211      	movs	r2, #17
   21f20:	9901      	ldr	r1, [sp, #4]
   21f22:	f009 f8ef 	bl	2b104 <__aeabi_memcpy>
   21f26:	7035      	strb	r5, [r6, #0]
   21f28:	b019      	add	sp, #100	@ 0x64
   21f2a:	bdf0      	pop	{r4, r5, r6, r7, pc}
   21f2c:	df03      	svc	3
   21f2e:	b019      	add	sp, #100	@ 0x64
   21f30:	bdf0      	pop	{r4, r5, r6, r7, pc}
   21f32:	46c0      	nop			@ (mov r8, r8)
   21f34:	000014d7 	.word	0x000014d7

00021f38 <_ZN20complex_dynamic_type3app17h471fccfbbcdb33ebE>:
   21f38:	b5f0      	push	{r4, r5, r6, r7, lr}
   21f3a:	af03      	add	r7, sp, #12
   21f3c:	b099      	sub	sp, #100	@ 0x64
   21f3e:	9003      	str	r0, [sp, #12]
   21f40:	a804      	add	r0, sp, #16
   21f42:	2402      	movs	r4, #2
   21f44:	7004      	strb	r4, [r0, #0]
   21f46:	1c46      	adds	r6, r0, #1
   21f48:	2234      	movs	r2, #52	@ 0x34
   21f4a:	9202      	str	r2, [sp, #8]
   21f4c:	4630      	mov	r0, r6
   21f4e:	f009 f8d9 	bl	2b104 <__aeabi_memcpy>
   21f52:	ad12      	add	r5, sp, #72	@ 0x48
   21f54:	1c68      	adds	r0, r5, #1
   21f56:	211a      	movs	r1, #26
   21f58:	9001      	str	r0, [sp, #4]
   21f5a:	f008 ff13 	bl	2ad84 <__aeabi_memclr>
   21f5e:	9400      	str	r4, [sp, #0]
   21f60:	702c      	strb	r4, [r5, #0]
   21f62:	4848      	ldr	r0, [pc, #288]	@ (22084 <_ZN20complex_dynamic_type3app17h471fccfbbcdb33ebE+0x14c>)
   21f64:	2100      	movs	r1, #0
   21f66:	4632      	mov	r2, r6
   21f68:	9b02      	ldr	r3, [sp, #8]
   21f6a:	df04      	svc	4
   21f6c:	2802      	cmp	r0, #2
   21f6e:	d104      	bne.n	21f7a <_ZN20complex_dynamic_type3app17h471fccfbbcdb33ebE+0x42>
   21f70:	2001      	movs	r0, #1
   21f72:	9a03      	ldr	r2, [sp, #12]
   21f74:	7010      	strb	r0, [r2, #0]
   21f76:	6051      	str	r1, [r2, #4]
   21f78:	e02d      	b.n	21fd6 <_ZN20complex_dynamic_type3app17h471fccfbbcdb33ebE+0x9e>
   21f7a:	9d03      	ldr	r5, [sp, #12]
   21f7c:	a804      	add	r0, sp, #16
   21f7e:	2104      	movs	r1, #4
   21f80:	7001      	strb	r1, [r0, #0]
   21f82:	4840      	ldr	r0, [pc, #256]	@ (22084 <_ZN20complex_dynamic_type3app17h471fccfbbcdb33ebE+0x14c>)
   21f84:	2105      	movs	r1, #5
   21f86:	231a      	movs	r3, #26
   21f88:	9c01      	ldr	r4, [sp, #4]
   21f8a:	4622      	mov	r2, r4
   21f8c:	df03      	svc	3
   21f8e:	2802      	cmp	r0, #2
   21f90:	d10e      	bne.n	21fb0 <_ZN20complex_dynamic_type3app17h471fccfbbcdb33ebE+0x78>
   21f92:	2001      	movs	r0, #1
   21f94:	7028      	strb	r0, [r5, #0]
   21f96:	6069      	str	r1, [r5, #4]
   21f98:	a812      	add	r0, sp, #72	@ 0x48
   21f9a:	7800      	ldrb	r0, [r0, #0]
   21f9c:	2802      	cmp	r0, #2
   21f9e:	d01a      	beq.n	21fd6 <_ZN20complex_dynamic_type3app17h471fccfbbcdb33ebE+0x9e>
   21fa0:	2803      	cmp	r0, #3
   21fa2:	d013      	beq.n	21fcc <_ZN20complex_dynamic_type3app17h471fccfbbcdb33ebE+0x94>
   21fa4:	4837      	ldr	r0, [pc, #220]	@ (22084 <_ZN20complex_dynamic_type3app17h471fccfbbcdb33ebE+0x14c>)
   21fa6:	2105      	movs	r1, #5
   21fa8:	2200      	movs	r2, #0
   21faa:	4613      	mov	r3, r2
   21fac:	df04      	svc	4
   21fae:	e012      	b.n	21fd6 <_ZN20complex_dynamic_type3app17h471fccfbbcdb33ebE+0x9e>
   21fb0:	a812      	add	r0, sp, #72	@ 0x48
   21fb2:	2103      	movs	r1, #3
   21fb4:	7001      	strb	r1, [r0, #0]
   21fb6:	4833      	ldr	r0, [pc, #204]	@ (22084 <_ZN20complex_dynamic_type3app17h471fccfbbcdb33ebE+0x14c>)
   21fb8:	2205      	movs	r2, #5
   21fba:	2600      	movs	r6, #0
   21fbc:	4631      	mov	r1, r6
   21fbe:	4633      	mov	r3, r6
   21fc0:	df02      	svc	2
   21fc2:	2880      	cmp	r0, #128	@ 0x80
   21fc4:	d21b      	bcs.n	21ffe <_ZN20complex_dynamic_type3app17h471fccfbbcdb33ebE+0xc6>
   21fc6:	2001      	movs	r0, #1
   21fc8:	7028      	strb	r0, [r5, #0]
   21fca:	6069      	str	r1, [r5, #4]
   21fcc:	482d      	ldr	r0, [pc, #180]	@ (22084 <_ZN20complex_dynamic_type3app17h471fccfbbcdb33ebE+0x14c>)
   21fce:	2105      	movs	r1, #5
   21fd0:	2200      	movs	r2, #0
   21fd2:	4613      	mov	r3, r2
   21fd4:	df03      	svc	3
   21fd6:	a804      	add	r0, sp, #16
   21fd8:	7800      	ldrb	r0, [r0, #0]
   21fda:	2802      	cmp	r0, #2
   21fdc:	d045      	beq.n	2206a <_ZN20complex_dynamic_type3app17h471fccfbbcdb33ebE+0x132>
   21fde:	2804      	cmp	r0, #4
   21fe0:	d106      	bne.n	21ff0 <_ZN20complex_dynamic_type3app17h471fccfbbcdb33ebE+0xb8>
   21fe2:	4828      	ldr	r0, [pc, #160]	@ (22084 <_ZN20complex_dynamic_type3app17h471fccfbbcdb33ebE+0x14c>)
   21fe4:	2100      	movs	r1, #0
   21fe6:	460a      	mov	r2, r1
   21fe8:	460b      	mov	r3, r1
   21fea:	df04      	svc	4
   21fec:	b019      	add	sp, #100	@ 0x64
   21fee:	bdf0      	pop	{r4, r5, r6, r7, pc}
   21ff0:	4824      	ldr	r0, [pc, #144]	@ (22084 <_ZN20complex_dynamic_type3app17h471fccfbbcdb33ebE+0x14c>)
   21ff2:	2100      	movs	r1, #0
   21ff4:	460a      	mov	r2, r1
   21ff6:	460b      	mov	r3, r1
   21ff8:	df03      	svc	3
   21ffa:	b019      	add	sp, #100	@ 0x64
   21ffc:	bdf0      	pop	{r4, r5, r6, r7, pc}
   21ffe:	a804      	add	r0, sp, #16
   22000:	7800      	ldrb	r0, [r0, #0]
   22002:	2802      	cmp	r0, #2
   22004:	d00c      	beq.n	22020 <_ZN20complex_dynamic_type3app17h471fccfbbcdb33ebE+0xe8>
   22006:	2803      	cmp	r0, #3
   22008:	d105      	bne.n	22016 <_ZN20complex_dynamic_type3app17h471fccfbbcdb33ebE+0xde>
   2200a:	481e      	ldr	r0, [pc, #120]	@ (22084 <_ZN20complex_dynamic_type3app17h471fccfbbcdb33ebE+0x14c>)
   2200c:	2100      	movs	r1, #0
   2200e:	460a      	mov	r2, r1
   22010:	460b      	mov	r3, r1
   22012:	df03      	svc	3
   22014:	e004      	b.n	22020 <_ZN20complex_dynamic_type3app17h471fccfbbcdb33ebE+0xe8>
   22016:	481b      	ldr	r0, [pc, #108]	@ (22084 <_ZN20complex_dynamic_type3app17h471fccfbbcdb33ebE+0x14c>)
   22018:	2100      	movs	r1, #0
   2201a:	460a      	mov	r2, r1
   2201c:	460b      	mov	r3, r1
   2201e:	df04      	svc	4
   22020:	a804      	add	r0, sp, #16
   22022:	9900      	ldr	r1, [sp, #0]
   22024:	7001      	strb	r1, [r0, #0]
   22026:	a812      	add	r0, sp, #72	@ 0x48
   22028:	7800      	ldrb	r0, [r0, #0]
   2202a:	2804      	cmp	r0, #4
   2202c:	d007      	beq.n	2203e <_ZN20complex_dynamic_type3app17h471fccfbbcdb33ebE+0x106>
   2202e:	2803      	cmp	r0, #3
   22030:	d11d      	bne.n	2206e <_ZN20complex_dynamic_type3app17h471fccfbbcdb33ebE+0x136>
   22032:	4814      	ldr	r0, [pc, #80]	@ (22084 <_ZN20complex_dynamic_type3app17h471fccfbbcdb33ebE+0x14c>)
   22034:	2105      	movs	r1, #5
   22036:	2200      	movs	r2, #0
   22038:	4613      	mov	r3, r2
   2203a:	df03      	svc	3
   2203c:	e004      	b.n	22048 <_ZN20complex_dynamic_type3app17h471fccfbbcdb33ebE+0x110>
   2203e:	4811      	ldr	r0, [pc, #68]	@ (22084 <_ZN20complex_dynamic_type3app17h471fccfbbcdb33ebE+0x14c>)
   22040:	2105      	movs	r1, #5
   22042:	2200      	movs	r2, #0
   22044:	4613      	mov	r3, r2
   22046:	df04      	svc	4
   22048:	a804      	add	r0, sp, #16
   2204a:	7804      	ldrb	r4, [r0, #0]
   2204c:	1c68      	adds	r0, r5, #1
   2204e:	221a      	movs	r2, #26
   22050:	9901      	ldr	r1, [sp, #4]
   22052:	f009 f857 	bl	2b104 <__aeabi_memcpy>
   22056:	702e      	strb	r6, [r5, #0]
   22058:	2c02      	cmp	r4, #2
   2205a:	d006      	beq.n	2206a <_ZN20complex_dynamic_type3app17h471fccfbbcdb33ebE+0x132>
   2205c:	4809      	ldr	r0, [pc, #36]	@ (22084 <_ZN20complex_dynamic_type3app17h471fccfbbcdb33ebE+0x14c>)
   2205e:	2100      	movs	r1, #0
   22060:	460a      	mov	r2, r1
   22062:	460b      	mov	r3, r1
   22064:	2c04      	cmp	r4, #4
   22066:	d10a      	bne.n	2207e <_ZN20complex_dynamic_type3app17h471fccfbbcdb33ebE+0x146>
   22068:	df04      	svc	4
   2206a:	b019      	add	sp, #100	@ 0x64
   2206c:	bdf0      	pop	{r4, r5, r6, r7, pc}
   2206e:	1c68      	adds	r0, r5, #1
   22070:	221a      	movs	r2, #26
   22072:	4621      	mov	r1, r4
   22074:	f009 f846 	bl	2b104 <__aeabi_memcpy>
   22078:	702e      	strb	r6, [r5, #0]
   2207a:	b019      	add	sp, #100	@ 0x64
   2207c:	bdf0      	pop	{r4, r5, r6, r7, pc}
   2207e:	df03      	svc	3
   22080:	b019      	add	sp, #100	@ 0x64
   22082:	bdf0      	pop	{r4, r5, r6, r7, pc}
   22084:	000012cc 	.word	0x000012cc

00022088 <_ZN20complex_dynamic_type3app17h47f637721c0e756fE>:
   22088:	b5f0      	push	{r4, r5, r6, r7, lr}
   2208a:	af03      	add	r7, sp, #12
   2208c:	b0a9      	sub	sp, #164	@ 0xa4
   2208e:	9004      	str	r0, [sp, #16]
   22090:	a805      	add	r0, sp, #20
   22092:	2402      	movs	r4, #2
   22094:	7004      	strb	r4, [r0, #0]
   22096:	1c46      	adds	r6, r0, #1
   22098:	222a      	movs	r2, #42	@ 0x2a
   2209a:	9203      	str	r2, [sp, #12]
   2209c:	4630      	mov	r0, r6
   2209e:	f009 f831 	bl	2b104 <__aeabi_memcpy>
   220a2:	ad10      	add	r5, sp, #64	@ 0x40
   220a4:	1c68      	adds	r0, r5, #1
   220a6:	2163      	movs	r1, #99	@ 0x63
   220a8:	9002      	str	r0, [sp, #8]
   220aa:	f008 fe6b 	bl	2ad84 <__aeabi_memclr>
   220ae:	9401      	str	r4, [sp, #4]
   220b0:	702c      	strb	r4, [r5, #0]
   220b2:	4848      	ldr	r0, [pc, #288]	@ (221d4 <_ZN20complex_dynamic_type3app17h47f637721c0e756fE+0x14c>)
   220b4:	2504      	movs	r5, #4
   220b6:	4629      	mov	r1, r5
   220b8:	4632      	mov	r2, r6
   220ba:	9b03      	ldr	r3, [sp, #12]
   220bc:	df04      	svc	4
   220be:	2802      	cmp	r0, #2
   220c0:	d104      	bne.n	220cc <_ZN20complex_dynamic_type3app17h47f637721c0e756fE+0x44>
   220c2:	2001      	movs	r0, #1
   220c4:	9a04      	ldr	r2, [sp, #16]
   220c6:	7010      	strb	r0, [r2, #0]
   220c8:	6051      	str	r1, [r2, #4]
   220ca:	e02c      	b.n	22126 <_ZN20complex_dynamic_type3app17h47f637721c0e756fE+0x9e>
   220cc:	9c04      	ldr	r4, [sp, #16]
   220ce:	a805      	add	r0, sp, #20
   220d0:	7005      	strb	r5, [r0, #0]
   220d2:	4840      	ldr	r0, [pc, #256]	@ (221d4 <_ZN20complex_dynamic_type3app17h47f637721c0e756fE+0x14c>)
   220d4:	2100      	movs	r1, #0
   220d6:	2363      	movs	r3, #99	@ 0x63
   220d8:	9a02      	ldr	r2, [sp, #8]
   220da:	df03      	svc	3
   220dc:	2802      	cmp	r0, #2
   220de:	d10e      	bne.n	220fe <_ZN20complex_dynamic_type3app17h47f637721c0e756fE+0x76>
   220e0:	2001      	movs	r0, #1
   220e2:	7020      	strb	r0, [r4, #0]
   220e4:	6061      	str	r1, [r4, #4]
   220e6:	a810      	add	r0, sp, #64	@ 0x40
   220e8:	7800      	ldrb	r0, [r0, #0]
   220ea:	2802      	cmp	r0, #2
   220ec:	d01b      	beq.n	22126 <_ZN20complex_dynamic_type3app17h47f637721c0e756fE+0x9e>
   220ee:	2803      	cmp	r0, #3
   220f0:	d014      	beq.n	2211c <_ZN20complex_dynamic_type3app17h47f637721c0e756fE+0x94>
   220f2:	4838      	ldr	r0, [pc, #224]	@ (221d4 <_ZN20complex_dynamic_type3app17h47f637721c0e756fE+0x14c>)
   220f4:	2100      	movs	r1, #0
   220f6:	460a      	mov	r2, r1
   220f8:	460b      	mov	r3, r1
   220fa:	df04      	svc	4
   220fc:	e013      	b.n	22126 <_ZN20complex_dynamic_type3app17h47f637721c0e756fE+0x9e>
   220fe:	a810      	add	r0, sp, #64	@ 0x40
   22100:	2103      	movs	r1, #3
   22102:	7001      	strb	r1, [r0, #0]
   22104:	4833      	ldr	r0, [pc, #204]	@ (221d4 <_ZN20complex_dynamic_type3app17h47f637721c0e756fE+0x14c>)
   22106:	2104      	movs	r1, #4
   22108:	2600      	movs	r6, #0
   2210a:	4632      	mov	r2, r6
   2210c:	4633      	mov	r3, r6
   2210e:	df02      	svc	2
   22110:	2880      	cmp	r0, #128	@ 0x80
   22112:	4625      	mov	r5, r4
   22114:	d21b      	bcs.n	2214e <_ZN20complex_dynamic_type3app17h47f637721c0e756fE+0xc6>
   22116:	2001      	movs	r0, #1
   22118:	7028      	strb	r0, [r5, #0]
   2211a:	6069      	str	r1, [r5, #4]
   2211c:	482d      	ldr	r0, [pc, #180]	@ (221d4 <_ZN20complex_dynamic_type3app17h47f637721c0e756fE+0x14c>)
   2211e:	2100      	movs	r1, #0
   22120:	460a      	mov	r2, r1
   22122:	460b      	mov	r3, r1
   22124:	df03      	svc	3
   22126:	a805      	add	r0, sp, #20
   22128:	7800      	ldrb	r0, [r0, #0]
   2212a:	2802      	cmp	r0, #2
   2212c:	d045      	beq.n	221ba <_ZN20complex_dynamic_type3app17h47f637721c0e756fE+0x132>
   2212e:	2804      	cmp	r0, #4
   22130:	d106      	bne.n	22140 <_ZN20complex_dynamic_type3app17h47f637721c0e756fE+0xb8>
   22132:	4828      	ldr	r0, [pc, #160]	@ (221d4 <_ZN20complex_dynamic_type3app17h47f637721c0e756fE+0x14c>)
   22134:	2104      	movs	r1, #4
   22136:	2200      	movs	r2, #0
   22138:	4613      	mov	r3, r2
   2213a:	df04      	svc	4
   2213c:	b029      	add	sp, #164	@ 0xa4
   2213e:	bdf0      	pop	{r4, r5, r6, r7, pc}
   22140:	4824      	ldr	r0, [pc, #144]	@ (221d4 <_ZN20complex_dynamic_type3app17h47f637721c0e756fE+0x14c>)
   22142:	2104      	movs	r1, #4
   22144:	2200      	movs	r2, #0
   22146:	4613      	mov	r3, r2
   22148:	df03      	svc	3
   2214a:	b029      	add	sp, #164	@ 0xa4
   2214c:	bdf0      	pop	{r4, r5, r6, r7, pc}
   2214e:	a805      	add	r0, sp, #20
   22150:	7800      	ldrb	r0, [r0, #0]
   22152:	2802      	cmp	r0, #2
   22154:	d00c      	beq.n	22170 <_ZN20complex_dynamic_type3app17h47f637721c0e756fE+0xe8>
   22156:	2803      	cmp	r0, #3
   22158:	d105      	bne.n	22166 <_ZN20complex_dynamic_type3app17h47f637721c0e756fE+0xde>
   2215a:	481e      	ldr	r0, [pc, #120]	@ (221d4 <_ZN20complex_dynamic_type3app17h47f637721c0e756fE+0x14c>)
   2215c:	2104      	movs	r1, #4
   2215e:	2200      	movs	r2, #0
   22160:	4613      	mov	r3, r2
   22162:	df03      	svc	3
   22164:	e004      	b.n	22170 <_ZN20complex_dynamic_type3app17h47f637721c0e756fE+0xe8>
   22166:	481b      	ldr	r0, [pc, #108]	@ (221d4 <_ZN20complex_dynamic_type3app17h47f637721c0e756fE+0x14c>)
   22168:	2104      	movs	r1, #4
   2216a:	2200      	movs	r2, #0
   2216c:	4613      	mov	r3, r2
   2216e:	df04      	svc	4
   22170:	a805      	add	r0, sp, #20
   22172:	9901      	ldr	r1, [sp, #4]
   22174:	7001      	strb	r1, [r0, #0]
   22176:	a810      	add	r0, sp, #64	@ 0x40
   22178:	7800      	ldrb	r0, [r0, #0]
   2217a:	2804      	cmp	r0, #4
   2217c:	d007      	beq.n	2218e <_ZN20complex_dynamic_type3app17h47f637721c0e756fE+0x106>
   2217e:	2803      	cmp	r0, #3
   22180:	d11d      	bne.n	221be <_ZN20complex_dynamic_type3app17h47f637721c0e756fE+0x136>
   22182:	4814      	ldr	r0, [pc, #80]	@ (221d4 <_ZN20complex_dynamic_type3app17h47f637721c0e756fE+0x14c>)
   22184:	2100      	movs	r1, #0
   22186:	460a      	mov	r2, r1
   22188:	460b      	mov	r3, r1
   2218a:	df03      	svc	3
   2218c:	e004      	b.n	22198 <_ZN20complex_dynamic_type3app17h47f637721c0e756fE+0x110>
   2218e:	4811      	ldr	r0, [pc, #68]	@ (221d4 <_ZN20complex_dynamic_type3app17h47f637721c0e756fE+0x14c>)
   22190:	2100      	movs	r1, #0
   22192:	460a      	mov	r2, r1
   22194:	460b      	mov	r3, r1
   22196:	df04      	svc	4
   22198:	a805      	add	r0, sp, #20
   2219a:	7804      	ldrb	r4, [r0, #0]
   2219c:	1c68      	adds	r0, r5, #1
   2219e:	2263      	movs	r2, #99	@ 0x63
   221a0:	9902      	ldr	r1, [sp, #8]
   221a2:	f008 ffaf 	bl	2b104 <__aeabi_memcpy>
   221a6:	702e      	strb	r6, [r5, #0]
   221a8:	2c02      	cmp	r4, #2
   221aa:	d006      	beq.n	221ba <_ZN20complex_dynamic_type3app17h47f637721c0e756fE+0x132>
   221ac:	4809      	ldr	r0, [pc, #36]	@ (221d4 <_ZN20complex_dynamic_type3app17h47f637721c0e756fE+0x14c>)
   221ae:	2104      	movs	r1, #4
   221b0:	2200      	movs	r2, #0
   221b2:	4613      	mov	r3, r2
   221b4:	2c04      	cmp	r4, #4
   221b6:	d10a      	bne.n	221ce <_ZN20complex_dynamic_type3app17h47f637721c0e756fE+0x146>
   221b8:	df04      	svc	4
   221ba:	b029      	add	sp, #164	@ 0xa4
   221bc:	bdf0      	pop	{r4, r5, r6, r7, pc}
   221be:	1c68      	adds	r0, r5, #1
   221c0:	2263      	movs	r2, #99	@ 0x63
   221c2:	9902      	ldr	r1, [sp, #8]
   221c4:	f008 ff9e 	bl	2b104 <__aeabi_memcpy>
   221c8:	702e      	strb	r6, [r5, #0]
   221ca:	b029      	add	sp, #164	@ 0xa4
   221cc:	bdf0      	pop	{r4, r5, r6, r7, pc}
   221ce:	df03      	svc	3
   221d0:	b029      	add	sp, #164	@ 0xa4
   221d2:	bdf0      	pop	{r4, r5, r6, r7, pc}
   221d4:	00001c7c 	.word	0x00001c7c

000221d8 <_ZN20complex_dynamic_type3app17h4b66a6198c3179d8E>:
   221d8:	b5f0      	push	{r4, r5, r6, r7, lr}
   221da:	af03      	add	r7, sp, #12
   221dc:	b0ad      	sub	sp, #180	@ 0xb4
   221de:	9004      	str	r0, [sp, #16]
   221e0:	a805      	add	r0, sp, #20
   221e2:	2402      	movs	r4, #2
   221e4:	7004      	strb	r4, [r0, #0]
   221e6:	1c46      	adds	r6, r0, #1
   221e8:	2246      	movs	r2, #70	@ 0x46
   221ea:	9203      	str	r2, [sp, #12]
   221ec:	4630      	mov	r0, r6
   221ee:	f008 ff89 	bl	2b104 <__aeabi_memcpy>
   221f2:	ad17      	add	r5, sp, #92	@ 0x5c
   221f4:	1c68      	adds	r0, r5, #1
   221f6:	2156      	movs	r1, #86	@ 0x56
   221f8:	9002      	str	r0, [sp, #8]
   221fa:	f008 fdc3 	bl	2ad84 <__aeabi_memclr>
   221fe:	9401      	str	r4, [sp, #4]
   22200:	702c      	strb	r4, [r5, #0]
   22202:	4848      	ldr	r0, [pc, #288]	@ (22324 <_ZN20complex_dynamic_type3app17h4b66a6198c3179d8E+0x14c>)
   22204:	2107      	movs	r1, #7
   22206:	4632      	mov	r2, r6
   22208:	9b03      	ldr	r3, [sp, #12]
   2220a:	df04      	svc	4
   2220c:	2802      	cmp	r0, #2
   2220e:	d104      	bne.n	2221a <_ZN20complex_dynamic_type3app17h4b66a6198c3179d8E+0x42>
   22210:	2001      	movs	r0, #1
   22212:	9a04      	ldr	r2, [sp, #16]
   22214:	7010      	strb	r0, [r2, #0]
   22216:	6051      	str	r1, [r2, #4]
   22218:	e02c      	b.n	22274 <_ZN20complex_dynamic_type3app17h4b66a6198c3179d8E+0x9c>
   2221a:	9d04      	ldr	r5, [sp, #16]
   2221c:	a805      	add	r0, sp, #20
   2221e:	2104      	movs	r1, #4
   22220:	7001      	strb	r1, [r0, #0]
   22222:	4840      	ldr	r0, [pc, #256]	@ (22324 <_ZN20complex_dynamic_type3app17h4b66a6198c3179d8E+0x14c>)
   22224:	2403      	movs	r4, #3
   22226:	2356      	movs	r3, #86	@ 0x56
   22228:	4621      	mov	r1, r4
   2222a:	9a02      	ldr	r2, [sp, #8]
   2222c:	df03      	svc	3
   2222e:	2802      	cmp	r0, #2
   22230:	d10e      	bne.n	22250 <_ZN20complex_dynamic_type3app17h4b66a6198c3179d8E+0x78>
   22232:	2001      	movs	r0, #1
   22234:	7028      	strb	r0, [r5, #0]
   22236:	6069      	str	r1, [r5, #4]
   22238:	a817      	add	r0, sp, #92	@ 0x5c
   2223a:	7800      	ldrb	r0, [r0, #0]
   2223c:	2802      	cmp	r0, #2
   2223e:	d019      	beq.n	22274 <_ZN20complex_dynamic_type3app17h4b66a6198c3179d8E+0x9c>
   22240:	2803      	cmp	r0, #3
   22242:	d012      	beq.n	2226a <_ZN20complex_dynamic_type3app17h4b66a6198c3179d8E+0x92>
   22244:	4837      	ldr	r0, [pc, #220]	@ (22324 <_ZN20complex_dynamic_type3app17h4b66a6198c3179d8E+0x14c>)
   22246:	2103      	movs	r1, #3
   22248:	2200      	movs	r2, #0
   2224a:	4613      	mov	r3, r2
   2224c:	df04      	svc	4
   2224e:	e011      	b.n	22274 <_ZN20complex_dynamic_type3app17h4b66a6198c3179d8E+0x9c>
   22250:	a817      	add	r0, sp, #92	@ 0x5c
   22252:	7004      	strb	r4, [r0, #0]
   22254:	4833      	ldr	r0, [pc, #204]	@ (22324 <_ZN20complex_dynamic_type3app17h4b66a6198c3179d8E+0x14c>)
   22256:	2107      	movs	r1, #7
   22258:	2600      	movs	r6, #0
   2225a:	4622      	mov	r2, r4
   2225c:	4633      	mov	r3, r6
   2225e:	df02      	svc	2
   22260:	2880      	cmp	r0, #128	@ 0x80
   22262:	d21b      	bcs.n	2229c <_ZN20complex_dynamic_type3app17h4b66a6198c3179d8E+0xc4>
   22264:	2001      	movs	r0, #1
   22266:	7028      	strb	r0, [r5, #0]
   22268:	6069      	str	r1, [r5, #4]
   2226a:	482e      	ldr	r0, [pc, #184]	@ (22324 <_ZN20complex_dynamic_type3app17h4b66a6198c3179d8E+0x14c>)
   2226c:	2103      	movs	r1, #3
   2226e:	2200      	movs	r2, #0
   22270:	4613      	mov	r3, r2
   22272:	df03      	svc	3
   22274:	a805      	add	r0, sp, #20
   22276:	7800      	ldrb	r0, [r0, #0]
   22278:	2802      	cmp	r0, #2
   2227a:	d045      	beq.n	22308 <_ZN20complex_dynamic_type3app17h4b66a6198c3179d8E+0x130>
   2227c:	2804      	cmp	r0, #4
   2227e:	d106      	bne.n	2228e <_ZN20complex_dynamic_type3app17h4b66a6198c3179d8E+0xb6>
   22280:	4828      	ldr	r0, [pc, #160]	@ (22324 <_ZN20complex_dynamic_type3app17h4b66a6198c3179d8E+0x14c>)
   22282:	2107      	movs	r1, #7
   22284:	2200      	movs	r2, #0
   22286:	4613      	mov	r3, r2
   22288:	df04      	svc	4
   2228a:	b02d      	add	sp, #180	@ 0xb4
   2228c:	bdf0      	pop	{r4, r5, r6, r7, pc}
   2228e:	4825      	ldr	r0, [pc, #148]	@ (22324 <_ZN20complex_dynamic_type3app17h4b66a6198c3179d8E+0x14c>)
   22290:	2107      	movs	r1, #7
   22292:	2200      	movs	r2, #0
   22294:	4613      	mov	r3, r2
   22296:	df03      	svc	3
   22298:	b02d      	add	sp, #180	@ 0xb4
   2229a:	bdf0      	pop	{r4, r5, r6, r7, pc}
   2229c:	a805      	add	r0, sp, #20
   2229e:	7800      	ldrb	r0, [r0, #0]
   222a0:	2802      	cmp	r0, #2
   222a2:	d00c      	beq.n	222be <_ZN20complex_dynamic_type3app17h4b66a6198c3179d8E+0xe6>
   222a4:	2803      	cmp	r0, #3
   222a6:	d105      	bne.n	222b4 <_ZN20complex_dynamic_type3app17h4b66a6198c3179d8E+0xdc>
   222a8:	481e      	ldr	r0, [pc, #120]	@ (22324 <_ZN20complex_dynamic_type3app17h4b66a6198c3179d8E+0x14c>)
   222aa:	2107      	movs	r1, #7
   222ac:	2200      	movs	r2, #0
   222ae:	4613      	mov	r3, r2
   222b0:	df03      	svc	3
   222b2:	e004      	b.n	222be <_ZN20complex_dynamic_type3app17h4b66a6198c3179d8E+0xe6>
   222b4:	481b      	ldr	r0, [pc, #108]	@ (22324 <_ZN20complex_dynamic_type3app17h4b66a6198c3179d8E+0x14c>)
   222b6:	2107      	movs	r1, #7
   222b8:	2200      	movs	r2, #0
   222ba:	4613      	mov	r3, r2
   222bc:	df04      	svc	4
   222be:	a805      	add	r0, sp, #20
   222c0:	9901      	ldr	r1, [sp, #4]
   222c2:	7001      	strb	r1, [r0, #0]
   222c4:	a817      	add	r0, sp, #92	@ 0x5c
   222c6:	7800      	ldrb	r0, [r0, #0]
   222c8:	2804      	cmp	r0, #4
   222ca:	d007      	beq.n	222dc <_ZN20complex_dynamic_type3app17h4b66a6198c3179d8E+0x104>
   222cc:	2803      	cmp	r0, #3
   222ce:	d11d      	bne.n	2230c <_ZN20complex_dynamic_type3app17h4b66a6198c3179d8E+0x134>
   222d0:	4814      	ldr	r0, [pc, #80]	@ (22324 <_ZN20complex_dynamic_type3app17h4b66a6198c3179d8E+0x14c>)
   222d2:	2103      	movs	r1, #3
   222d4:	2200      	movs	r2, #0
   222d6:	4613      	mov	r3, r2
   222d8:	df03      	svc	3
   222da:	e004      	b.n	222e6 <_ZN20complex_dynamic_type3app17h4b66a6198c3179d8E+0x10e>
   222dc:	4811      	ldr	r0, [pc, #68]	@ (22324 <_ZN20complex_dynamic_type3app17h4b66a6198c3179d8E+0x14c>)
   222de:	2103      	movs	r1, #3
   222e0:	2200      	movs	r2, #0
   222e2:	4613      	mov	r3, r2
   222e4:	df04      	svc	4
   222e6:	a805      	add	r0, sp, #20
   222e8:	7804      	ldrb	r4, [r0, #0]
   222ea:	1c68      	adds	r0, r5, #1
   222ec:	2256      	movs	r2, #86	@ 0x56
   222ee:	9902      	ldr	r1, [sp, #8]
   222f0:	f008 ff08 	bl	2b104 <__aeabi_memcpy>
   222f4:	702e      	strb	r6, [r5, #0]
   222f6:	2c02      	cmp	r4, #2
   222f8:	d006      	beq.n	22308 <_ZN20complex_dynamic_type3app17h4b66a6198c3179d8E+0x130>
   222fa:	480a      	ldr	r0, [pc, #40]	@ (22324 <_ZN20complex_dynamic_type3app17h4b66a6198c3179d8E+0x14c>)
   222fc:	2107      	movs	r1, #7
   222fe:	2200      	movs	r2, #0
   22300:	4613      	mov	r3, r2
   22302:	2c04      	cmp	r4, #4
   22304:	d10a      	bne.n	2231c <_ZN20complex_dynamic_type3app17h4b66a6198c3179d8E+0x144>
   22306:	df04      	svc	4
   22308:	b02d      	add	sp, #180	@ 0xb4
   2230a:	bdf0      	pop	{r4, r5, r6, r7, pc}
   2230c:	1c68      	adds	r0, r5, #1
   2230e:	2256      	movs	r2, #86	@ 0x56
   22310:	9902      	ldr	r1, [sp, #8]
   22312:	f008 fef7 	bl	2b104 <__aeabi_memcpy>
   22316:	702e      	strb	r6, [r5, #0]
   22318:	b02d      	add	sp, #180	@ 0xb4
   2231a:	bdf0      	pop	{r4, r5, r6, r7, pc}
   2231c:	df03      	svc	3
   2231e:	b02d      	add	sp, #180	@ 0xb4
   22320:	bdf0      	pop	{r4, r5, r6, r7, pc}
   22322:	46c0      	nop			@ (mov r8, r8)
   22324:	00001e50 	.word	0x00001e50

00022328 <_ZN20complex_dynamic_type3app17h51af787c251bfdcbE>:
   22328:	b5f0      	push	{r4, r5, r6, r7, lr}
   2232a:	af03      	add	r7, sp, #12
   2232c:	b097      	sub	sp, #92	@ 0x5c
   2232e:	9002      	str	r0, [sp, #8]
   22330:	a803      	add	r0, sp, #12
   22332:	2602      	movs	r6, #2
   22334:	7006      	strb	r6, [r0, #0]
   22336:	1c40      	adds	r0, r0, #1
   22338:	9001      	str	r0, [sp, #4]
   2233a:	2523      	movs	r5, #35	@ 0x23
   2233c:	462a      	mov	r2, r5
   2233e:	f008 fee1 	bl	2b104 <__aeabi_memcpy>
   22342:	ac0c      	add	r4, sp, #48	@ 0x30
   22344:	1c60      	adds	r0, r4, #1
   22346:	212b      	movs	r1, #43	@ 0x2b
   22348:	9000      	str	r0, [sp, #0]
   2234a:	f008 fd1b 	bl	2ad84 <__aeabi_memclr>
   2234e:	7026      	strb	r6, [r4, #0]
   22350:	484a      	ldr	r0, [pc, #296]	@ (2247c <_ZN20complex_dynamic_type3app17h51af787c251bfdcbE+0x154>)
   22352:	4631      	mov	r1, r6
   22354:	9a01      	ldr	r2, [sp, #4]
   22356:	462b      	mov	r3, r5
   22358:	df04      	svc	4
   2235a:	2802      	cmp	r0, #2
   2235c:	d104      	bne.n	22368 <_ZN20complex_dynamic_type3app17h51af787c251bfdcbE+0x40>
   2235e:	2001      	movs	r0, #1
   22360:	9a02      	ldr	r2, [sp, #8]
   22362:	7010      	strb	r0, [r2, #0]
   22364:	6051      	str	r1, [r2, #4]
   22366:	e02e      	b.n	223c6 <_ZN20complex_dynamic_type3app17h51af787c251bfdcbE+0x9e>
   22368:	9d02      	ldr	r5, [sp, #8]
   2236a:	a803      	add	r0, sp, #12
   2236c:	2104      	movs	r1, #4
   2236e:	7001      	strb	r1, [r0, #0]
   22370:	4842      	ldr	r0, [pc, #264]	@ (2247c <_ZN20complex_dynamic_type3app17h51af787c251bfdcbE+0x154>)
   22372:	2100      	movs	r1, #0
   22374:	232b      	movs	r3, #43	@ 0x2b
   22376:	9c00      	ldr	r4, [sp, #0]
   22378:	4622      	mov	r2, r4
   2237a:	df03      	svc	3
   2237c:	2802      	cmp	r0, #2
   2237e:	d10e      	bne.n	2239e <_ZN20complex_dynamic_type3app17h51af787c251bfdcbE+0x76>
   22380:	2001      	movs	r0, #1
   22382:	7028      	strb	r0, [r5, #0]
   22384:	6069      	str	r1, [r5, #4]
   22386:	a80c      	add	r0, sp, #48	@ 0x30
   22388:	7800      	ldrb	r0, [r0, #0]
   2238a:	2802      	cmp	r0, #2
   2238c:	d01b      	beq.n	223c6 <_ZN20complex_dynamic_type3app17h51af787c251bfdcbE+0x9e>
   2238e:	2803      	cmp	r0, #3
   22390:	d014      	beq.n	223bc <_ZN20complex_dynamic_type3app17h51af787c251bfdcbE+0x94>
   22392:	483a      	ldr	r0, [pc, #232]	@ (2247c <_ZN20complex_dynamic_type3app17h51af787c251bfdcbE+0x154>)
   22394:	2100      	movs	r1, #0
   22396:	460a      	mov	r2, r1
   22398:	460b      	mov	r3, r1
   2239a:	df04      	svc	4
   2239c:	e013      	b.n	223c6 <_ZN20complex_dynamic_type3app17h51af787c251bfdcbE+0x9e>
   2239e:	a80c      	add	r0, sp, #48	@ 0x30
   223a0:	2103      	movs	r1, #3
   223a2:	7001      	strb	r1, [r0, #0]
   223a4:	4835      	ldr	r0, [pc, #212]	@ (2247c <_ZN20complex_dynamic_type3app17h51af787c251bfdcbE+0x154>)
   223a6:	2602      	movs	r6, #2
   223a8:	2200      	movs	r2, #0
   223aa:	4631      	mov	r1, r6
   223ac:	9201      	str	r2, [sp, #4]
   223ae:	4613      	mov	r3, r2
   223b0:	df02      	svc	2
   223b2:	2880      	cmp	r0, #128	@ 0x80
   223b4:	d21b      	bcs.n	223ee <_ZN20complex_dynamic_type3app17h51af787c251bfdcbE+0xc6>
   223b6:	2001      	movs	r0, #1
   223b8:	7028      	strb	r0, [r5, #0]
   223ba:	6069      	str	r1, [r5, #4]
   223bc:	482f      	ldr	r0, [pc, #188]	@ (2247c <_ZN20complex_dynamic_type3app17h51af787c251bfdcbE+0x154>)
   223be:	2100      	movs	r1, #0
   223c0:	460a      	mov	r2, r1
   223c2:	460b      	mov	r3, r1
   223c4:	df03      	svc	3
   223c6:	a803      	add	r0, sp, #12
   223c8:	7800      	ldrb	r0, [r0, #0]
   223ca:	2802      	cmp	r0, #2
   223cc:	d047      	beq.n	2245e <_ZN20complex_dynamic_type3app17h51af787c251bfdcbE+0x136>
   223ce:	2804      	cmp	r0, #4
   223d0:	d106      	bne.n	223e0 <_ZN20complex_dynamic_type3app17h51af787c251bfdcbE+0xb8>
   223d2:	482a      	ldr	r0, [pc, #168]	@ (2247c <_ZN20complex_dynamic_type3app17h51af787c251bfdcbE+0x154>)
   223d4:	2102      	movs	r1, #2
   223d6:	2200      	movs	r2, #0
   223d8:	4613      	mov	r3, r2
   223da:	df04      	svc	4
   223dc:	b017      	add	sp, #92	@ 0x5c
   223de:	bdf0      	pop	{r4, r5, r6, r7, pc}
   223e0:	4826      	ldr	r0, [pc, #152]	@ (2247c <_ZN20complex_dynamic_type3app17h51af787c251bfdcbE+0x154>)
   223e2:	2102      	movs	r1, #2
   223e4:	2200      	movs	r2, #0
   223e6:	4613      	mov	r3, r2
   223e8:	df03      	svc	3
   223ea:	b017      	add	sp, #92	@ 0x5c
   223ec:	bdf0      	pop	{r4, r5, r6, r7, pc}
   223ee:	a803      	add	r0, sp, #12
   223f0:	7800      	ldrb	r0, [r0, #0]
   223f2:	2802      	cmp	r0, #2
   223f4:	d00c      	beq.n	22410 <_ZN20complex_dynamic_type3app17h51af787c251bfdcbE+0xe8>
   223f6:	2803      	cmp	r0, #3
   223f8:	d105      	bne.n	22406 <_ZN20complex_dynamic_type3app17h51af787c251bfdcbE+0xde>
   223fa:	4820      	ldr	r0, [pc, #128]	@ (2247c <_ZN20complex_dynamic_type3app17h51af787c251bfdcbE+0x154>)
   223fc:	2102      	movs	r1, #2
   223fe:	2200      	movs	r2, #0
   22400:	4613      	mov	r3, r2
   22402:	df03      	svc	3
   22404:	e004      	b.n	22410 <_ZN20complex_dynamic_type3app17h51af787c251bfdcbE+0xe8>
   22406:	481d      	ldr	r0, [pc, #116]	@ (2247c <_ZN20complex_dynamic_type3app17h51af787c251bfdcbE+0x154>)
   22408:	2102      	movs	r1, #2
   2240a:	2200      	movs	r2, #0
   2240c:	4613      	mov	r3, r2
   2240e:	df04      	svc	4
   22410:	a803      	add	r0, sp, #12
   22412:	7006      	strb	r6, [r0, #0]
   22414:	a80c      	add	r0, sp, #48	@ 0x30
   22416:	7800      	ldrb	r0, [r0, #0]
   22418:	2804      	cmp	r0, #4
   2241a:	d008      	beq.n	2242e <_ZN20complex_dynamic_type3app17h51af787c251bfdcbE+0x106>
   2241c:	2803      	cmp	r0, #3
   2241e:	d120      	bne.n	22462 <_ZN20complex_dynamic_type3app17h51af787c251bfdcbE+0x13a>
   22420:	4626      	mov	r6, r4
   22422:	4816      	ldr	r0, [pc, #88]	@ (2247c <_ZN20complex_dynamic_type3app17h51af787c251bfdcbE+0x154>)
   22424:	2100      	movs	r1, #0
   22426:	460a      	mov	r2, r1
   22428:	460b      	mov	r3, r1
   2242a:	df03      	svc	3
   2242c:	e005      	b.n	2243a <_ZN20complex_dynamic_type3app17h51af787c251bfdcbE+0x112>
   2242e:	4626      	mov	r6, r4
   22430:	4812      	ldr	r0, [pc, #72]	@ (2247c <_ZN20complex_dynamic_type3app17h51af787c251bfdcbE+0x154>)
   22432:	2100      	movs	r1, #0
   22434:	460a      	mov	r2, r1
   22436:	460b      	mov	r3, r1
   22438:	df04      	svc	4
   2243a:	a803      	add	r0, sp, #12
   2243c:	7804      	ldrb	r4, [r0, #0]
   2243e:	1c68      	adds	r0, r5, #1
   22440:	222b      	movs	r2, #43	@ 0x2b
   22442:	4631      	mov	r1, r6
   22444:	f008 fe5e 	bl	2b104 <__aeabi_memcpy>
   22448:	9801      	ldr	r0, [sp, #4]
   2244a:	7028      	strb	r0, [r5, #0]
   2244c:	2c02      	cmp	r4, #2
   2244e:	d006      	beq.n	2245e <_ZN20complex_dynamic_type3app17h51af787c251bfdcbE+0x136>
   22450:	480a      	ldr	r0, [pc, #40]	@ (2247c <_ZN20complex_dynamic_type3app17h51af787c251bfdcbE+0x154>)
   22452:	2102      	movs	r1, #2
   22454:	2200      	movs	r2, #0
   22456:	4613      	mov	r3, r2
   22458:	2c04      	cmp	r4, #4
   2245a:	d10b      	bne.n	22474 <_ZN20complex_dynamic_type3app17h51af787c251bfdcbE+0x14c>
   2245c:	df04      	svc	4
   2245e:	b017      	add	sp, #92	@ 0x5c
   22460:	bdf0      	pop	{r4, r5, r6, r7, pc}
   22462:	1c68      	adds	r0, r5, #1
   22464:	222b      	movs	r2, #43	@ 0x2b
   22466:	4621      	mov	r1, r4
   22468:	f008 fe4c 	bl	2b104 <__aeabi_memcpy>
   2246c:	9801      	ldr	r0, [sp, #4]
   2246e:	7028      	strb	r0, [r5, #0]
   22470:	b017      	add	sp, #92	@ 0x5c
   22472:	bdf0      	pop	{r4, r5, r6, r7, pc}
   22474:	df03      	svc	3
   22476:	b017      	add	sp, #92	@ 0x5c
   22478:	bdf0      	pop	{r4, r5, r6, r7, pc}
   2247a:	46c0      	nop			@ (mov r8, r8)
   2247c:	00000d5d 	.word	0x00000d5d

00022480 <_ZN20complex_dynamic_type3app17h5a78d9a14593c788E>:
   22480:	b5f0      	push	{r4, r5, r6, r7, lr}
   22482:	af03      	add	r7, sp, #12
   22484:	b0a7      	sub	sp, #156	@ 0x9c
   22486:	9003      	str	r0, [sp, #12]
   22488:	a804      	add	r0, sp, #16
   2248a:	2402      	movs	r4, #2
   2248c:	7004      	strb	r4, [r0, #0]
   2248e:	1c46      	adds	r6, r0, #1
   22490:	224f      	movs	r2, #79	@ 0x4f
   22492:	9202      	str	r2, [sp, #8]
   22494:	4630      	mov	r0, r6
   22496:	f008 fe35 	bl	2b104 <__aeabi_memcpy>
   2249a:	ad18      	add	r5, sp, #96	@ 0x60
   2249c:	1c68      	adds	r0, r5, #1
   2249e:	213b      	movs	r1, #59	@ 0x3b
   224a0:	9001      	str	r0, [sp, #4]
   224a2:	f008 fc6f 	bl	2ad84 <__aeabi_memclr>
   224a6:	9400      	str	r4, [sp, #0]
   224a8:	702c      	strb	r4, [r5, #0]
   224aa:	4848      	ldr	r0, [pc, #288]	@ (225cc <_ZN20complex_dynamic_type3app17h5a78d9a14593c788E+0x14c>)
   224ac:	2108      	movs	r1, #8
   224ae:	4632      	mov	r2, r6
   224b0:	9b02      	ldr	r3, [sp, #8]
   224b2:	df04      	svc	4
   224b4:	2802      	cmp	r0, #2
   224b6:	d104      	bne.n	224c2 <_ZN20complex_dynamic_type3app17h5a78d9a14593c788E+0x42>
   224b8:	2001      	movs	r0, #1
   224ba:	9a03      	ldr	r2, [sp, #12]
   224bc:	7010      	strb	r0, [r2, #0]
   224be:	6051      	str	r1, [r2, #4]
   224c0:	e02d      	b.n	2251e <_ZN20complex_dynamic_type3app17h5a78d9a14593c788E+0x9e>
   224c2:	9d03      	ldr	r5, [sp, #12]
   224c4:	a804      	add	r0, sp, #16
   224c6:	2104      	movs	r1, #4
   224c8:	7001      	strb	r1, [r0, #0]
   224ca:	4840      	ldr	r0, [pc, #256]	@ (225cc <_ZN20complex_dynamic_type3app17h5a78d9a14593c788E+0x14c>)
   224cc:	2105      	movs	r1, #5
   224ce:	233b      	movs	r3, #59	@ 0x3b
   224d0:	9c01      	ldr	r4, [sp, #4]
   224d2:	4622      	mov	r2, r4
   224d4:	df03      	svc	3
   224d6:	2802      	cmp	r0, #2
   224d8:	d10e      	bne.n	224f8 <_ZN20complex_dynamic_type3app17h5a78d9a14593c788E+0x78>
   224da:	2001      	movs	r0, #1
   224dc:	7028      	strb	r0, [r5, #0]
   224de:	6069      	str	r1, [r5, #4]
   224e0:	a818      	add	r0, sp, #96	@ 0x60
   224e2:	7800      	ldrb	r0, [r0, #0]
   224e4:	2802      	cmp	r0, #2
   224e6:	d01a      	beq.n	2251e <_ZN20complex_dynamic_type3app17h5a78d9a14593c788E+0x9e>
   224e8:	2803      	cmp	r0, #3
   224ea:	d013      	beq.n	22514 <_ZN20complex_dynamic_type3app17h5a78d9a14593c788E+0x94>
   224ec:	4837      	ldr	r0, [pc, #220]	@ (225cc <_ZN20complex_dynamic_type3app17h5a78d9a14593c788E+0x14c>)
   224ee:	2105      	movs	r1, #5
   224f0:	2200      	movs	r2, #0
   224f2:	4613      	mov	r3, r2
   224f4:	df04      	svc	4
   224f6:	e012      	b.n	2251e <_ZN20complex_dynamic_type3app17h5a78d9a14593c788E+0x9e>
   224f8:	a818      	add	r0, sp, #96	@ 0x60
   224fa:	2103      	movs	r1, #3
   224fc:	7001      	strb	r1, [r0, #0]
   224fe:	4833      	ldr	r0, [pc, #204]	@ (225cc <_ZN20complex_dynamic_type3app17h5a78d9a14593c788E+0x14c>)
   22500:	2108      	movs	r1, #8
   22502:	2205      	movs	r2, #5
   22504:	2600      	movs	r6, #0
   22506:	4633      	mov	r3, r6
   22508:	df02      	svc	2
   2250a:	2880      	cmp	r0, #128	@ 0x80
   2250c:	d21b      	bcs.n	22546 <_ZN20complex_dynamic_type3app17h5a78d9a14593c788E+0xc6>
   2250e:	2001      	movs	r0, #1
   22510:	7028      	strb	r0, [r5, #0]
   22512:	6069      	str	r1, [r5, #4]
   22514:	482d      	ldr	r0, [pc, #180]	@ (225cc <_ZN20complex_dynamic_type3app17h5a78d9a14593c788E+0x14c>)
   22516:	2105      	movs	r1, #5
   22518:	2200      	movs	r2, #0
   2251a:	4613      	mov	r3, r2
   2251c:	df03      	svc	3
   2251e:	a804      	add	r0, sp, #16
   22520:	7800      	ldrb	r0, [r0, #0]
   22522:	2802      	cmp	r0, #2
   22524:	d045      	beq.n	225b2 <_ZN20complex_dynamic_type3app17h5a78d9a14593c788E+0x132>
   22526:	2804      	cmp	r0, #4
   22528:	d106      	bne.n	22538 <_ZN20complex_dynamic_type3app17h5a78d9a14593c788E+0xb8>
   2252a:	4828      	ldr	r0, [pc, #160]	@ (225cc <_ZN20complex_dynamic_type3app17h5a78d9a14593c788E+0x14c>)
   2252c:	2108      	movs	r1, #8
   2252e:	2200      	movs	r2, #0
   22530:	4613      	mov	r3, r2
   22532:	df04      	svc	4
   22534:	b027      	add	sp, #156	@ 0x9c
   22536:	bdf0      	pop	{r4, r5, r6, r7, pc}
   22538:	4824      	ldr	r0, [pc, #144]	@ (225cc <_ZN20complex_dynamic_type3app17h5a78d9a14593c788E+0x14c>)
   2253a:	2108      	movs	r1, #8
   2253c:	2200      	movs	r2, #0
   2253e:	4613      	mov	r3, r2
   22540:	df03      	svc	3
   22542:	b027      	add	sp, #156	@ 0x9c
   22544:	bdf0      	pop	{r4, r5, r6, r7, pc}
   22546:	a804      	add	r0, sp, #16
   22548:	7800      	ldrb	r0, [r0, #0]
   2254a:	2802      	cmp	r0, #2
   2254c:	d00c      	beq.n	22568 <_ZN20complex_dynamic_type3app17h5a78d9a14593c788E+0xe8>
   2254e:	2803      	cmp	r0, #3
   22550:	d105      	bne.n	2255e <_ZN20complex_dynamic_type3app17h5a78d9a14593c788E+0xde>
   22552:	481e      	ldr	r0, [pc, #120]	@ (225cc <_ZN20complex_dynamic_type3app17h5a78d9a14593c788E+0x14c>)
   22554:	2108      	movs	r1, #8
   22556:	2200      	movs	r2, #0
   22558:	4613      	mov	r3, r2
   2255a:	df03      	svc	3
   2255c:	e004      	b.n	22568 <_ZN20complex_dynamic_type3app17h5a78d9a14593c788E+0xe8>
   2255e:	481b      	ldr	r0, [pc, #108]	@ (225cc <_ZN20complex_dynamic_type3app17h5a78d9a14593c788E+0x14c>)
   22560:	2108      	movs	r1, #8
   22562:	2200      	movs	r2, #0
   22564:	4613      	mov	r3, r2
   22566:	df04      	svc	4
   22568:	a804      	add	r0, sp, #16
   2256a:	9900      	ldr	r1, [sp, #0]
   2256c:	7001      	strb	r1, [r0, #0]
   2256e:	a818      	add	r0, sp, #96	@ 0x60
   22570:	7800      	ldrb	r0, [r0, #0]
   22572:	2804      	cmp	r0, #4
   22574:	d007      	beq.n	22586 <_ZN20complex_dynamic_type3app17h5a78d9a14593c788E+0x106>
   22576:	2803      	cmp	r0, #3
   22578:	d11d      	bne.n	225b6 <_ZN20complex_dynamic_type3app17h5a78d9a14593c788E+0x136>
   2257a:	4814      	ldr	r0, [pc, #80]	@ (225cc <_ZN20complex_dynamic_type3app17h5a78d9a14593c788E+0x14c>)
   2257c:	2105      	movs	r1, #5
   2257e:	2200      	movs	r2, #0
   22580:	4613      	mov	r3, r2
   22582:	df03      	svc	3
   22584:	e004      	b.n	22590 <_ZN20complex_dynamic_type3app17h5a78d9a14593c788E+0x110>
   22586:	4811      	ldr	r0, [pc, #68]	@ (225cc <_ZN20complex_dynamic_type3app17h5a78d9a14593c788E+0x14c>)
   22588:	2105      	movs	r1, #5
   2258a:	2200      	movs	r2, #0
   2258c:	4613      	mov	r3, r2
   2258e:	df04      	svc	4
   22590:	a804      	add	r0, sp, #16
   22592:	7804      	ldrb	r4, [r0, #0]
   22594:	1c68      	adds	r0, r5, #1
   22596:	223b      	movs	r2, #59	@ 0x3b
   22598:	9901      	ldr	r1, [sp, #4]
   2259a:	f008 fdb3 	bl	2b104 <__aeabi_memcpy>
   2259e:	702e      	strb	r6, [r5, #0]
   225a0:	2c02      	cmp	r4, #2
   225a2:	d006      	beq.n	225b2 <_ZN20complex_dynamic_type3app17h5a78d9a14593c788E+0x132>
   225a4:	4809      	ldr	r0, [pc, #36]	@ (225cc <_ZN20complex_dynamic_type3app17h5a78d9a14593c788E+0x14c>)
   225a6:	2108      	movs	r1, #8
   225a8:	2200      	movs	r2, #0
   225aa:	4613      	mov	r3, r2
   225ac:	2c04      	cmp	r4, #4
   225ae:	d10a      	bne.n	225c6 <_ZN20complex_dynamic_type3app17h5a78d9a14593c788E+0x146>
   225b0:	df04      	svc	4
   225b2:	b027      	add	sp, #156	@ 0x9c
   225b4:	bdf0      	pop	{r4, r5, r6, r7, pc}
   225b6:	1c68      	adds	r0, r5, #1
   225b8:	223b      	movs	r2, #59	@ 0x3b
   225ba:	4621      	mov	r1, r4
   225bc:	f008 fda2 	bl	2b104 <__aeabi_memcpy>
   225c0:	702e      	strb	r6, [r5, #0]
   225c2:	b027      	add	sp, #156	@ 0x9c
   225c4:	bdf0      	pop	{r4, r5, r6, r7, pc}
   225c6:	df03      	svc	3
   225c8:	b027      	add	sp, #156	@ 0x9c
   225ca:	bdf0      	pop	{r4, r5, r6, r7, pc}
   225cc:	00000a06 	.word	0x00000a06

000225d0 <_ZN20complex_dynamic_type3app17h5a81715d3698e226E>:
   225d0:	b5f0      	push	{r4, r5, r6, r7, lr}
   225d2:	af03      	add	r7, sp, #12
   225d4:	b0b1      	sub	sp, #196	@ 0xc4
   225d6:	9003      	str	r0, [sp, #12]
   225d8:	a804      	add	r0, sp, #16
   225da:	2502      	movs	r5, #2
   225dc:	7005      	strb	r5, [r0, #0]
   225de:	1c46      	adds	r6, r0, #1
   225e0:	224f      	movs	r2, #79	@ 0x4f
   225e2:	9202      	str	r2, [sp, #8]
   225e4:	4630      	mov	r0, r6
   225e6:	f008 fd8d 	bl	2b104 <__aeabi_memcpy>
   225ea:	ac18      	add	r4, sp, #96	@ 0x60
   225ec:	1c60      	adds	r0, r4, #1
   225ee:	2161      	movs	r1, #97	@ 0x61
   225f0:	9001      	str	r0, [sp, #4]
   225f2:	f008 fbc7 	bl	2ad84 <__aeabi_memclr>
   225f6:	7025      	strb	r5, [r4, #0]
   225f8:	20db      	movs	r0, #219	@ 0xdb
   225fa:	0044      	lsls	r4, r0, #1
   225fc:	4620      	mov	r0, r4
   225fe:	4629      	mov	r1, r5
   22600:	4632      	mov	r2, r6
   22602:	9b02      	ldr	r3, [sp, #8]
   22604:	df04      	svc	4
   22606:	2802      	cmp	r0, #2
   22608:	d104      	bne.n	22614 <_ZN20complex_dynamic_type3app17h5a81715d3698e226E+0x44>
   2260a:	2001      	movs	r0, #1
   2260c:	9a03      	ldr	r2, [sp, #12]
   2260e:	7010      	strb	r0, [r2, #0]
   22610:	6051      	str	r1, [r2, #4]
   22612:	e02e      	b.n	22672 <_ZN20complex_dynamic_type3app17h5a81715d3698e226E+0xa2>
   22614:	9e03      	ldr	r6, [sp, #12]
   22616:	a804      	add	r0, sp, #16
   22618:	2104      	movs	r1, #4
   2261a:	7001      	strb	r1, [r0, #0]
   2261c:	2108      	movs	r1, #8
   2261e:	2361      	movs	r3, #97	@ 0x61
   22620:	4620      	mov	r0, r4
   22622:	9d01      	ldr	r5, [sp, #4]
   22624:	462a      	mov	r2, r5
   22626:	df03      	svc	3
   22628:	2802      	cmp	r0, #2
   2262a:	d10e      	bne.n	2264a <_ZN20complex_dynamic_type3app17h5a81715d3698e226E+0x7a>
   2262c:	2001      	movs	r0, #1
   2262e:	7030      	strb	r0, [r6, #0]
   22630:	6071      	str	r1, [r6, #4]
   22632:	a818      	add	r0, sp, #96	@ 0x60
   22634:	7800      	ldrb	r0, [r0, #0]
   22636:	2802      	cmp	r0, #2
   22638:	d01b      	beq.n	22672 <_ZN20complex_dynamic_type3app17h5a81715d3698e226E+0xa2>
   2263a:	2803      	cmp	r0, #3
   2263c:	d014      	beq.n	22668 <_ZN20complex_dynamic_type3app17h5a81715d3698e226E+0x98>
   2263e:	2108      	movs	r1, #8
   22640:	2200      	movs	r2, #0
   22642:	4620      	mov	r0, r4
   22644:	4613      	mov	r3, r2
   22646:	df04      	svc	4
   22648:	e013      	b.n	22672 <_ZN20complex_dynamic_type3app17h5a81715d3698e226E+0xa2>
   2264a:	a818      	add	r0, sp, #96	@ 0x60
   2264c:	2103      	movs	r1, #3
   2264e:	7001      	strb	r1, [r0, #0]
   22650:	2102      	movs	r1, #2
   22652:	2208      	movs	r2, #8
   22654:	2300      	movs	r3, #0
   22656:	4620      	mov	r0, r4
   22658:	9100      	str	r1, [sp, #0]
   2265a:	9302      	str	r3, [sp, #8]
   2265c:	df02      	svc	2
   2265e:	2880      	cmp	r0, #128	@ 0x80
   22660:	d219      	bcs.n	22696 <_ZN20complex_dynamic_type3app17h5a81715d3698e226E+0xc6>
   22662:	2001      	movs	r0, #1
   22664:	7030      	strb	r0, [r6, #0]
   22666:	6071      	str	r1, [r6, #4]
   22668:	2108      	movs	r1, #8
   2266a:	2200      	movs	r2, #0
   2266c:	4620      	mov	r0, r4
   2266e:	4613      	mov	r3, r2
   22670:	df03      	svc	3
   22672:	a804      	add	r0, sp, #16
   22674:	7800      	ldrb	r0, [r0, #0]
   22676:	2802      	cmp	r0, #2
   22678:	d044      	beq.n	22704 <_ZN20complex_dynamic_type3app17h5a81715d3698e226E+0x134>
   2267a:	2102      	movs	r1, #2
   2267c:	2200      	movs	r2, #0
   2267e:	2804      	cmp	r0, #4
   22680:	d104      	bne.n	2268c <_ZN20complex_dynamic_type3app17h5a81715d3698e226E+0xbc>
   22682:	4620      	mov	r0, r4
   22684:	4613      	mov	r3, r2
   22686:	df04      	svc	4
   22688:	b031      	add	sp, #196	@ 0xc4
   2268a:	bdf0      	pop	{r4, r5, r6, r7, pc}
   2268c:	4620      	mov	r0, r4
   2268e:	4613      	mov	r3, r2
   22690:	df03      	svc	3
   22692:	b031      	add	sp, #196	@ 0xc4
   22694:	bdf0      	pop	{r4, r5, r6, r7, pc}
   22696:	a804      	add	r0, sp, #16
   22698:	7800      	ldrb	r0, [r0, #0]
   2269a:	2802      	cmp	r0, #2
   2269c:	d00a      	beq.n	226b4 <_ZN20complex_dynamic_type3app17h5a81715d3698e226E+0xe4>
   2269e:	2102      	movs	r1, #2
   226a0:	2200      	movs	r2, #0
   226a2:	2803      	cmp	r0, #3
   226a4:	d103      	bne.n	226ae <_ZN20complex_dynamic_type3app17h5a81715d3698e226E+0xde>
   226a6:	4620      	mov	r0, r4
   226a8:	4613      	mov	r3, r2
   226aa:	df03      	svc	3
   226ac:	e002      	b.n	226b4 <_ZN20complex_dynamic_type3app17h5a81715d3698e226E+0xe4>
   226ae:	4620      	mov	r0, r4
   226b0:	4613      	mov	r3, r2
   226b2:	df04      	svc	4
   226b4:	a804      	add	r0, sp, #16
   226b6:	9900      	ldr	r1, [sp, #0]
   226b8:	7001      	strb	r1, [r0, #0]
   226ba:	a818      	add	r0, sp, #96	@ 0x60
   226bc:	7800      	ldrb	r0, [r0, #0]
   226be:	2804      	cmp	r0, #4
   226c0:	d008      	beq.n	226d4 <_ZN20complex_dynamic_type3app17h5a81715d3698e226E+0x104>
   226c2:	2803      	cmp	r0, #3
   226c4:	d120      	bne.n	22708 <_ZN20complex_dynamic_type3app17h5a81715d3698e226E+0x138>
   226c6:	2108      	movs	r1, #8
   226c8:	2200      	movs	r2, #0
   226ca:	9400      	str	r4, [sp, #0]
   226cc:	4620      	mov	r0, r4
   226ce:	4613      	mov	r3, r2
   226d0:	df03      	svc	3
   226d2:	e005      	b.n	226e0 <_ZN20complex_dynamic_type3app17h5a81715d3698e226E+0x110>
   226d4:	2108      	movs	r1, #8
   226d6:	2200      	movs	r2, #0
   226d8:	9400      	str	r4, [sp, #0]
   226da:	4620      	mov	r0, r4
   226dc:	4613      	mov	r3, r2
   226de:	df04      	svc	4
   226e0:	a804      	add	r0, sp, #16
   226e2:	7804      	ldrb	r4, [r0, #0]
   226e4:	1c70      	adds	r0, r6, #1
   226e6:	2261      	movs	r2, #97	@ 0x61
   226e8:	4629      	mov	r1, r5
   226ea:	f008 fd0b 	bl	2b104 <__aeabi_memcpy>
   226ee:	9802      	ldr	r0, [sp, #8]
   226f0:	7030      	strb	r0, [r6, #0]
   226f2:	2c02      	cmp	r4, #2
   226f4:	d006      	beq.n	22704 <_ZN20complex_dynamic_type3app17h5a81715d3698e226E+0x134>
   226f6:	2c04      	cmp	r4, #4
   226f8:	d10f      	bne.n	2271a <_ZN20complex_dynamic_type3app17h5a81715d3698e226E+0x14a>
   226fa:	2102      	movs	r1, #2
   226fc:	2200      	movs	r2, #0
   226fe:	9800      	ldr	r0, [sp, #0]
   22700:	4613      	mov	r3, r2
   22702:	df04      	svc	4
   22704:	b031      	add	sp, #196	@ 0xc4
   22706:	bdf0      	pop	{r4, r5, r6, r7, pc}
   22708:	1c70      	adds	r0, r6, #1
   2270a:	2261      	movs	r2, #97	@ 0x61
   2270c:	4629      	mov	r1, r5
   2270e:	f008 fcf9 	bl	2b104 <__aeabi_memcpy>
   22712:	9802      	ldr	r0, [sp, #8]
   22714:	7030      	strb	r0, [r6, #0]
   22716:	b031      	add	sp, #196	@ 0xc4
   22718:	bdf0      	pop	{r4, r5, r6, r7, pc}
   2271a:	9800      	ldr	r0, [sp, #0]
   2271c:	2102      	movs	r1, #2
   2271e:	2200      	movs	r2, #0
   22720:	4613      	mov	r3, r2
   22722:	df03      	svc	3
   22724:	b031      	add	sp, #196	@ 0xc4
   22726:	bdf0      	pop	{r4, r5, r6, r7, pc}

00022728 <_ZN20complex_dynamic_type3app17h5ad3d42cb88f2766E>:
   22728:	b5f0      	push	{r4, r5, r6, r7, lr}
   2272a:	af03      	add	r7, sp, #12
   2272c:	b09d      	sub	sp, #116	@ 0x74
   2272e:	9003      	str	r0, [sp, #12]
   22730:	a804      	add	r0, sp, #16
   22732:	2402      	movs	r4, #2
   22734:	7004      	strb	r4, [r0, #0]
   22736:	1c46      	adds	r6, r0, #1
   22738:	223b      	movs	r2, #59	@ 0x3b
   2273a:	9202      	str	r2, [sp, #8]
   2273c:	4630      	mov	r0, r6
   2273e:	f008 fce1 	bl	2b104 <__aeabi_memcpy>
   22742:	ad13      	add	r5, sp, #76	@ 0x4c
   22744:	1c68      	adds	r0, r5, #1
   22746:	2127      	movs	r1, #39	@ 0x27
   22748:	9001      	str	r0, [sp, #4]
   2274a:	f008 fb1b 	bl	2ad84 <__aeabi_memclr>
   2274e:	9400      	str	r4, [sp, #0]
   22750:	702c      	strb	r4, [r5, #0]
   22752:	4848      	ldr	r0, [pc, #288]	@ (22874 <_ZN20complex_dynamic_type3app17h5ad3d42cb88f2766E+0x14c>)
   22754:	2105      	movs	r1, #5
   22756:	4632      	mov	r2, r6
   22758:	9b02      	ldr	r3, [sp, #8]
   2275a:	df04      	svc	4
   2275c:	2802      	cmp	r0, #2
   2275e:	d104      	bne.n	2276a <_ZN20complex_dynamic_type3app17h5ad3d42cb88f2766E+0x42>
   22760:	2001      	movs	r0, #1
   22762:	9a03      	ldr	r2, [sp, #12]
   22764:	7010      	strb	r0, [r2, #0]
   22766:	6051      	str	r1, [r2, #4]
   22768:	e02c      	b.n	227c4 <_ZN20complex_dynamic_type3app17h5ad3d42cb88f2766E+0x9c>
   2276a:	9d03      	ldr	r5, [sp, #12]
   2276c:	a804      	add	r0, sp, #16
   2276e:	2104      	movs	r1, #4
   22770:	7001      	strb	r1, [r0, #0]
   22772:	4840      	ldr	r0, [pc, #256]	@ (22874 <_ZN20complex_dynamic_type3app17h5ad3d42cb88f2766E+0x14c>)
   22774:	2403      	movs	r4, #3
   22776:	2327      	movs	r3, #39	@ 0x27
   22778:	4621      	mov	r1, r4
   2277a:	9a01      	ldr	r2, [sp, #4]
   2277c:	df03      	svc	3
   2277e:	2802      	cmp	r0, #2
   22780:	d10e      	bne.n	227a0 <_ZN20complex_dynamic_type3app17h5ad3d42cb88f2766E+0x78>
   22782:	2001      	movs	r0, #1
   22784:	7028      	strb	r0, [r5, #0]
   22786:	6069      	str	r1, [r5, #4]
   22788:	a813      	add	r0, sp, #76	@ 0x4c
   2278a:	7800      	ldrb	r0, [r0, #0]
   2278c:	2802      	cmp	r0, #2
   2278e:	d019      	beq.n	227c4 <_ZN20complex_dynamic_type3app17h5ad3d42cb88f2766E+0x9c>
   22790:	2803      	cmp	r0, #3
   22792:	d012      	beq.n	227ba <_ZN20complex_dynamic_type3app17h5ad3d42cb88f2766E+0x92>
   22794:	4837      	ldr	r0, [pc, #220]	@ (22874 <_ZN20complex_dynamic_type3app17h5ad3d42cb88f2766E+0x14c>)
   22796:	2103      	movs	r1, #3
   22798:	2200      	movs	r2, #0
   2279a:	4613      	mov	r3, r2
   2279c:	df04      	svc	4
   2279e:	e011      	b.n	227c4 <_ZN20complex_dynamic_type3app17h5ad3d42cb88f2766E+0x9c>
   227a0:	a813      	add	r0, sp, #76	@ 0x4c
   227a2:	7004      	strb	r4, [r0, #0]
   227a4:	4833      	ldr	r0, [pc, #204]	@ (22874 <_ZN20complex_dynamic_type3app17h5ad3d42cb88f2766E+0x14c>)
   227a6:	2105      	movs	r1, #5
   227a8:	2600      	movs	r6, #0
   227aa:	4622      	mov	r2, r4
   227ac:	4633      	mov	r3, r6
   227ae:	df02      	svc	2
   227b0:	2880      	cmp	r0, #128	@ 0x80
   227b2:	d21b      	bcs.n	227ec <_ZN20complex_dynamic_type3app17h5ad3d42cb88f2766E+0xc4>
   227b4:	2001      	movs	r0, #1
   227b6:	7028      	strb	r0, [r5, #0]
   227b8:	6069      	str	r1, [r5, #4]
   227ba:	482e      	ldr	r0, [pc, #184]	@ (22874 <_ZN20complex_dynamic_type3app17h5ad3d42cb88f2766E+0x14c>)
   227bc:	2103      	movs	r1, #3
   227be:	2200      	movs	r2, #0
   227c0:	4613      	mov	r3, r2
   227c2:	df03      	svc	3
   227c4:	a804      	add	r0, sp, #16
   227c6:	7800      	ldrb	r0, [r0, #0]
   227c8:	2802      	cmp	r0, #2
   227ca:	d045      	beq.n	22858 <_ZN20complex_dynamic_type3app17h5ad3d42cb88f2766E+0x130>
   227cc:	2804      	cmp	r0, #4
   227ce:	d106      	bne.n	227de <_ZN20complex_dynamic_type3app17h5ad3d42cb88f2766E+0xb6>
   227d0:	4828      	ldr	r0, [pc, #160]	@ (22874 <_ZN20complex_dynamic_type3app17h5ad3d42cb88f2766E+0x14c>)
   227d2:	2105      	movs	r1, #5
   227d4:	2200      	movs	r2, #0
   227d6:	4613      	mov	r3, r2
   227d8:	df04      	svc	4
   227da:	b01d      	add	sp, #116	@ 0x74
   227dc:	bdf0      	pop	{r4, r5, r6, r7, pc}
   227de:	4825      	ldr	r0, [pc, #148]	@ (22874 <_ZN20complex_dynamic_type3app17h5ad3d42cb88f2766E+0x14c>)
   227e0:	2105      	movs	r1, #5
   227e2:	2200      	movs	r2, #0
   227e4:	4613      	mov	r3, r2
   227e6:	df03      	svc	3
   227e8:	b01d      	add	sp, #116	@ 0x74
   227ea:	bdf0      	pop	{r4, r5, r6, r7, pc}
   227ec:	a804      	add	r0, sp, #16
   227ee:	7800      	ldrb	r0, [r0, #0]
   227f0:	2802      	cmp	r0, #2
   227f2:	d00c      	beq.n	2280e <_ZN20complex_dynamic_type3app17h5ad3d42cb88f2766E+0xe6>
   227f4:	2803      	cmp	r0, #3
   227f6:	d105      	bne.n	22804 <_ZN20complex_dynamic_type3app17h5ad3d42cb88f2766E+0xdc>
   227f8:	481e      	ldr	r0, [pc, #120]	@ (22874 <_ZN20complex_dynamic_type3app17h5ad3d42cb88f2766E+0x14c>)
   227fa:	2105      	movs	r1, #5
   227fc:	2200      	movs	r2, #0
   227fe:	4613      	mov	r3, r2
   22800:	df03      	svc	3
   22802:	e004      	b.n	2280e <_ZN20complex_dynamic_type3app17h5ad3d42cb88f2766E+0xe6>
   22804:	481b      	ldr	r0, [pc, #108]	@ (22874 <_ZN20complex_dynamic_type3app17h5ad3d42cb88f2766E+0x14c>)
   22806:	2105      	movs	r1, #5
   22808:	2200      	movs	r2, #0
   2280a:	4613      	mov	r3, r2
   2280c:	df04      	svc	4
   2280e:	a804      	add	r0, sp, #16
   22810:	9900      	ldr	r1, [sp, #0]
   22812:	7001      	strb	r1, [r0, #0]
   22814:	a813      	add	r0, sp, #76	@ 0x4c
   22816:	7800      	ldrb	r0, [r0, #0]
   22818:	2804      	cmp	r0, #4
   2281a:	d007      	beq.n	2282c <_ZN20complex_dynamic_type3app17h5ad3d42cb88f2766E+0x104>
   2281c:	2803      	cmp	r0, #3
   2281e:	d11d      	bne.n	2285c <_ZN20complex_dynamic_type3app17h5ad3d42cb88f2766E+0x134>
   22820:	4814      	ldr	r0, [pc, #80]	@ (22874 <_ZN20complex_dynamic_type3app17h5ad3d42cb88f2766E+0x14c>)
   22822:	2103      	movs	r1, #3
   22824:	2200      	movs	r2, #0
   22826:	4613      	mov	r3, r2
   22828:	df03      	svc	3
   2282a:	e004      	b.n	22836 <_ZN20complex_dynamic_type3app17h5ad3d42cb88f2766E+0x10e>
   2282c:	4811      	ldr	r0, [pc, #68]	@ (22874 <_ZN20complex_dynamic_type3app17h5ad3d42cb88f2766E+0x14c>)
   2282e:	2103      	movs	r1, #3
   22830:	2200      	movs	r2, #0
   22832:	4613      	mov	r3, r2
   22834:	df04      	svc	4
   22836:	a804      	add	r0, sp, #16
   22838:	7804      	ldrb	r4, [r0, #0]
   2283a:	1c68      	adds	r0, r5, #1
   2283c:	2227      	movs	r2, #39	@ 0x27
   2283e:	9901      	ldr	r1, [sp, #4]
   22840:	f008 fc60 	bl	2b104 <__aeabi_memcpy>
   22844:	702e      	strb	r6, [r5, #0]
   22846:	2c02      	cmp	r4, #2
   22848:	d006      	beq.n	22858 <_ZN20complex_dynamic_type3app17h5ad3d42cb88f2766E+0x130>
   2284a:	480a      	ldr	r0, [pc, #40]	@ (22874 <_ZN20complex_dynamic_type3app17h5ad3d42cb88f2766E+0x14c>)
   2284c:	2105      	movs	r1, #5
   2284e:	2200      	movs	r2, #0
   22850:	4613      	mov	r3, r2
   22852:	2c04      	cmp	r4, #4
   22854:	d10a      	bne.n	2286c <_ZN20complex_dynamic_type3app17h5ad3d42cb88f2766E+0x144>
   22856:	df04      	svc	4
   22858:	b01d      	add	sp, #116	@ 0x74
   2285a:	bdf0      	pop	{r4, r5, r6, r7, pc}
   2285c:	1c68      	adds	r0, r5, #1
   2285e:	2227      	movs	r2, #39	@ 0x27
   22860:	9901      	ldr	r1, [sp, #4]
   22862:	f008 fc4f 	bl	2b104 <__aeabi_memcpy>
   22866:	702e      	strb	r6, [r5, #0]
   22868:	b01d      	add	sp, #116	@ 0x74
   2286a:	bdf0      	pop	{r4, r5, r6, r7, pc}
   2286c:	df03      	svc	3
   2286e:	b01d      	add	sp, #116	@ 0x74
   22870:	bdf0      	pop	{r4, r5, r6, r7, pc}
   22872:	46c0      	nop			@ (mov r8, r8)
   22874:	00000bd3 	.word	0x00000bd3

00022878 <_ZN20complex_dynamic_type3app17h5aeb06010bca3cf7E>:
   22878:	b5f0      	push	{r4, r5, r6, r7, lr}
   2287a:	af03      	add	r7, sp, #12
   2287c:	b093      	sub	sp, #76	@ 0x4c
   2287e:	9003      	str	r0, [sp, #12]
   22880:	a804      	add	r0, sp, #16
   22882:	2402      	movs	r4, #2
   22884:	7004      	strb	r4, [r0, #0]
   22886:	1c46      	adds	r6, r0, #1
   22888:	222b      	movs	r2, #43	@ 0x2b
   2288a:	9202      	str	r2, [sp, #8]
   2288c:	4630      	mov	r0, r6
   2288e:	f008 fc39 	bl	2b104 <__aeabi_memcpy>
   22892:	ad0f      	add	r5, sp, #60	@ 0x3c
   22894:	1c68      	adds	r0, r5, #1
   22896:	210d      	movs	r1, #13
   22898:	9001      	str	r0, [sp, #4]
   2289a:	f008 fa73 	bl	2ad84 <__aeabi_memclr>
   2289e:	9400      	str	r4, [sp, #0]
   228a0:	702c      	strb	r4, [r5, #0]
   228a2:	4848      	ldr	r0, [pc, #288]	@ (229c4 <_ZN20complex_dynamic_type3app17h5aeb06010bca3cf7E+0x14c>)
   228a4:	2106      	movs	r1, #6
   228a6:	4632      	mov	r2, r6
   228a8:	9b02      	ldr	r3, [sp, #8]
   228aa:	df04      	svc	4
   228ac:	2802      	cmp	r0, #2
   228ae:	d104      	bne.n	228ba <_ZN20complex_dynamic_type3app17h5aeb06010bca3cf7E+0x42>
   228b0:	2001      	movs	r0, #1
   228b2:	9a03      	ldr	r2, [sp, #12]
   228b4:	7010      	strb	r0, [r2, #0]
   228b6:	6051      	str	r1, [r2, #4]
   228b8:	e02d      	b.n	22916 <_ZN20complex_dynamic_type3app17h5aeb06010bca3cf7E+0x9e>
   228ba:	9d03      	ldr	r5, [sp, #12]
   228bc:	a804      	add	r0, sp, #16
   228be:	2104      	movs	r1, #4
   228c0:	7001      	strb	r1, [r0, #0]
   228c2:	4840      	ldr	r0, [pc, #256]	@ (229c4 <_ZN20complex_dynamic_type3app17h5aeb06010bca3cf7E+0x14c>)
   228c4:	2100      	movs	r1, #0
   228c6:	230d      	movs	r3, #13
   228c8:	9c01      	ldr	r4, [sp, #4]
   228ca:	4622      	mov	r2, r4
   228cc:	df03      	svc	3
   228ce:	2802      	cmp	r0, #2
   228d0:	d10e      	bne.n	228f0 <_ZN20complex_dynamic_type3app17h5aeb06010bca3cf7E+0x78>
   228d2:	2001      	movs	r0, #1
   228d4:	7028      	strb	r0, [r5, #0]
   228d6:	6069      	str	r1, [r5, #4]
   228d8:	a80f      	add	r0, sp, #60	@ 0x3c
   228da:	7800      	ldrb	r0, [r0, #0]
   228dc:	2802      	cmp	r0, #2
   228de:	d01a      	beq.n	22916 <_ZN20complex_dynamic_type3app17h5aeb06010bca3cf7E+0x9e>
   228e0:	2803      	cmp	r0, #3
   228e2:	d013      	beq.n	2290c <_ZN20complex_dynamic_type3app17h5aeb06010bca3cf7E+0x94>
   228e4:	4837      	ldr	r0, [pc, #220]	@ (229c4 <_ZN20complex_dynamic_type3app17h5aeb06010bca3cf7E+0x14c>)
   228e6:	2100      	movs	r1, #0
   228e8:	460a      	mov	r2, r1
   228ea:	460b      	mov	r3, r1
   228ec:	df04      	svc	4
   228ee:	e012      	b.n	22916 <_ZN20complex_dynamic_type3app17h5aeb06010bca3cf7E+0x9e>
   228f0:	a80f      	add	r0, sp, #60	@ 0x3c
   228f2:	2103      	movs	r1, #3
   228f4:	7001      	strb	r1, [r0, #0]
   228f6:	4833      	ldr	r0, [pc, #204]	@ (229c4 <_ZN20complex_dynamic_type3app17h5aeb06010bca3cf7E+0x14c>)
   228f8:	2106      	movs	r1, #6
   228fa:	2600      	movs	r6, #0
   228fc:	4632      	mov	r2, r6
   228fe:	4633      	mov	r3, r6
   22900:	df02      	svc	2
   22902:	2880      	cmp	r0, #128	@ 0x80
   22904:	d21b      	bcs.n	2293e <_ZN20complex_dynamic_type3app17h5aeb06010bca3cf7E+0xc6>
   22906:	2001      	movs	r0, #1
   22908:	7028      	strb	r0, [r5, #0]
   2290a:	6069      	str	r1, [r5, #4]
   2290c:	482d      	ldr	r0, [pc, #180]	@ (229c4 <_ZN20complex_dynamic_type3app17h5aeb06010bca3cf7E+0x14c>)
   2290e:	2100      	movs	r1, #0
   22910:	460a      	mov	r2, r1
   22912:	460b      	mov	r3, r1
   22914:	df03      	svc	3
   22916:	a804      	add	r0, sp, #16
   22918:	7800      	ldrb	r0, [r0, #0]
   2291a:	2802      	cmp	r0, #2
   2291c:	d045      	beq.n	229aa <_ZN20complex_dynamic_type3app17h5aeb06010bca3cf7E+0x132>
   2291e:	2804      	cmp	r0, #4
   22920:	d106      	bne.n	22930 <_ZN20complex_dynamic_type3app17h5aeb06010bca3cf7E+0xb8>
   22922:	4828      	ldr	r0, [pc, #160]	@ (229c4 <_ZN20complex_dynamic_type3app17h5aeb06010bca3cf7E+0x14c>)
   22924:	2106      	movs	r1, #6
   22926:	2200      	movs	r2, #0
   22928:	4613      	mov	r3, r2
   2292a:	df04      	svc	4
   2292c:	b013      	add	sp, #76	@ 0x4c
   2292e:	bdf0      	pop	{r4, r5, r6, r7, pc}
   22930:	4824      	ldr	r0, [pc, #144]	@ (229c4 <_ZN20complex_dynamic_type3app17h5aeb06010bca3cf7E+0x14c>)
   22932:	2106      	movs	r1, #6
   22934:	2200      	movs	r2, #0
   22936:	4613      	mov	r3, r2
   22938:	df03      	svc	3
   2293a:	b013      	add	sp, #76	@ 0x4c
   2293c:	bdf0      	pop	{r4, r5, r6, r7, pc}
   2293e:	a804      	add	r0, sp, #16
   22940:	7800      	ldrb	r0, [r0, #0]
   22942:	2802      	cmp	r0, #2
   22944:	d00c      	beq.n	22960 <_ZN20complex_dynamic_type3app17h5aeb06010bca3cf7E+0xe8>
   22946:	2803      	cmp	r0, #3
   22948:	d105      	bne.n	22956 <_ZN20complex_dynamic_type3app17h5aeb06010bca3cf7E+0xde>
   2294a:	481e      	ldr	r0, [pc, #120]	@ (229c4 <_ZN20complex_dynamic_type3app17h5aeb06010bca3cf7E+0x14c>)
   2294c:	2106      	movs	r1, #6
   2294e:	2200      	movs	r2, #0
   22950:	4613      	mov	r3, r2
   22952:	df03      	svc	3
   22954:	e004      	b.n	22960 <_ZN20complex_dynamic_type3app17h5aeb06010bca3cf7E+0xe8>
   22956:	481b      	ldr	r0, [pc, #108]	@ (229c4 <_ZN20complex_dynamic_type3app17h5aeb06010bca3cf7E+0x14c>)
   22958:	2106      	movs	r1, #6
   2295a:	2200      	movs	r2, #0
   2295c:	4613      	mov	r3, r2
   2295e:	df04      	svc	4
   22960:	a804      	add	r0, sp, #16
   22962:	9900      	ldr	r1, [sp, #0]
   22964:	7001      	strb	r1, [r0, #0]
   22966:	a80f      	add	r0, sp, #60	@ 0x3c
   22968:	7800      	ldrb	r0, [r0, #0]
   2296a:	2804      	cmp	r0, #4
   2296c:	d007      	beq.n	2297e <_ZN20complex_dynamic_type3app17h5aeb06010bca3cf7E+0x106>
   2296e:	2803      	cmp	r0, #3
   22970:	d11d      	bne.n	229ae <_ZN20complex_dynamic_type3app17h5aeb06010bca3cf7E+0x136>
   22972:	4814      	ldr	r0, [pc, #80]	@ (229c4 <_ZN20complex_dynamic_type3app17h5aeb06010bca3cf7E+0x14c>)
   22974:	2100      	movs	r1, #0
   22976:	460a      	mov	r2, r1
   22978:	460b      	mov	r3, r1
   2297a:	df03      	svc	3
   2297c:	e004      	b.n	22988 <_ZN20complex_dynamic_type3app17h5aeb06010bca3cf7E+0x110>
   2297e:	4811      	ldr	r0, [pc, #68]	@ (229c4 <_ZN20complex_dynamic_type3app17h5aeb06010bca3cf7E+0x14c>)
   22980:	2100      	movs	r1, #0
   22982:	460a      	mov	r2, r1
   22984:	460b      	mov	r3, r1
   22986:	df04      	svc	4
   22988:	a804      	add	r0, sp, #16
   2298a:	7804      	ldrb	r4, [r0, #0]
   2298c:	1c68      	adds	r0, r5, #1
   2298e:	220d      	movs	r2, #13
   22990:	9901      	ldr	r1, [sp, #4]
   22992:	f008 fbb7 	bl	2b104 <__aeabi_memcpy>
   22996:	702e      	strb	r6, [r5, #0]
   22998:	2c02      	cmp	r4, #2
   2299a:	d006      	beq.n	229aa <_ZN20complex_dynamic_type3app17h5aeb06010bca3cf7E+0x132>
   2299c:	4809      	ldr	r0, [pc, #36]	@ (229c4 <_ZN20complex_dynamic_type3app17h5aeb06010bca3cf7E+0x14c>)
   2299e:	2106      	movs	r1, #6
   229a0:	2200      	movs	r2, #0
   229a2:	4613      	mov	r3, r2
   229a4:	2c04      	cmp	r4, #4
   229a6:	d10a      	bne.n	229be <_ZN20complex_dynamic_type3app17h5aeb06010bca3cf7E+0x146>
   229a8:	df04      	svc	4
   229aa:	b013      	add	sp, #76	@ 0x4c
   229ac:	bdf0      	pop	{r4, r5, r6, r7, pc}
   229ae:	1c68      	adds	r0, r5, #1
   229b0:	220d      	movs	r2, #13
   229b2:	4621      	mov	r1, r4
   229b4:	f008 fba6 	bl	2b104 <__aeabi_memcpy>
   229b8:	702e      	strb	r6, [r5, #0]
   229ba:	b013      	add	sp, #76	@ 0x4c
   229bc:	bdf0      	pop	{r4, r5, r6, r7, pc}
   229be:	df03      	svc	3
   229c0:	b013      	add	sp, #76	@ 0x4c
   229c2:	bdf0      	pop	{r4, r5, r6, r7, pc}
   229c4:	00001465 	.word	0x00001465

000229c8 <_ZN20complex_dynamic_type3app17h5b79d487458a18ebE>:
   229c8:	b5f0      	push	{r4, r5, r6, r7, lr}
   229ca:	af03      	add	r7, sp, #12
   229cc:	b0a7      	sub	sp, #156	@ 0x9c
   229ce:	9003      	str	r0, [sp, #12]
   229d0:	a804      	add	r0, sp, #16
   229d2:	2402      	movs	r4, #2
   229d4:	7004      	strb	r4, [r0, #0]
   229d6:	1c46      	adds	r6, r0, #1
   229d8:	2255      	movs	r2, #85	@ 0x55
   229da:	9202      	str	r2, [sp, #8]
   229dc:	4630      	mov	r0, r6
   229de:	f008 fb91 	bl	2b104 <__aeabi_memcpy>
   229e2:	ad1a      	add	r5, sp, #104	@ 0x68
   229e4:	1c68      	adds	r0, r5, #1
   229e6:	2132      	movs	r1, #50	@ 0x32
   229e8:	9001      	str	r0, [sp, #4]
   229ea:	f008 f9cb 	bl	2ad84 <__aeabi_memclr>
   229ee:	9400      	str	r4, [sp, #0]
   229f0:	702c      	strb	r4, [r5, #0]
   229f2:	4848      	ldr	r0, [pc, #288]	@ (22b14 <_ZN20complex_dynamic_type3app17h5b79d487458a18ebE+0x14c>)
   229f4:	2108      	movs	r1, #8
   229f6:	4632      	mov	r2, r6
   229f8:	9b02      	ldr	r3, [sp, #8]
   229fa:	df04      	svc	4
   229fc:	2802      	cmp	r0, #2
   229fe:	d104      	bne.n	22a0a <_ZN20complex_dynamic_type3app17h5b79d487458a18ebE+0x42>
   22a00:	2001      	movs	r0, #1
   22a02:	9a03      	ldr	r2, [sp, #12]
   22a04:	7010      	strb	r0, [r2, #0]
   22a06:	6051      	str	r1, [r2, #4]
   22a08:	e02d      	b.n	22a66 <_ZN20complex_dynamic_type3app17h5b79d487458a18ebE+0x9e>
   22a0a:	9d03      	ldr	r5, [sp, #12]
   22a0c:	a804      	add	r0, sp, #16
   22a0e:	2104      	movs	r1, #4
   22a10:	7001      	strb	r1, [r0, #0]
   22a12:	4840      	ldr	r0, [pc, #256]	@ (22b14 <_ZN20complex_dynamic_type3app17h5b79d487458a18ebE+0x14c>)
   22a14:	2108      	movs	r1, #8
   22a16:	2332      	movs	r3, #50	@ 0x32
   22a18:	9c01      	ldr	r4, [sp, #4]
   22a1a:	4622      	mov	r2, r4
   22a1c:	df03      	svc	3
   22a1e:	2802      	cmp	r0, #2
   22a20:	d10e      	bne.n	22a40 <_ZN20complex_dynamic_type3app17h5b79d487458a18ebE+0x78>
   22a22:	2001      	movs	r0, #1
   22a24:	7028      	strb	r0, [r5, #0]
   22a26:	6069      	str	r1, [r5, #4]
   22a28:	a81a      	add	r0, sp, #104	@ 0x68
   22a2a:	7800      	ldrb	r0, [r0, #0]
   22a2c:	2802      	cmp	r0, #2
   22a2e:	d01a      	beq.n	22a66 <_ZN20complex_dynamic_type3app17h5b79d487458a18ebE+0x9e>
   22a30:	2803      	cmp	r0, #3
   22a32:	d013      	beq.n	22a5c <_ZN20complex_dynamic_type3app17h5b79d487458a18ebE+0x94>
   22a34:	4837      	ldr	r0, [pc, #220]	@ (22b14 <_ZN20complex_dynamic_type3app17h5b79d487458a18ebE+0x14c>)
   22a36:	2108      	movs	r1, #8
   22a38:	2200      	movs	r2, #0
   22a3a:	4613      	mov	r3, r2
   22a3c:	df04      	svc	4
   22a3e:	e012      	b.n	22a66 <_ZN20complex_dynamic_type3app17h5b79d487458a18ebE+0x9e>
   22a40:	a81a      	add	r0, sp, #104	@ 0x68
   22a42:	2103      	movs	r1, #3
   22a44:	7001      	strb	r1, [r0, #0]
   22a46:	4833      	ldr	r0, [pc, #204]	@ (22b14 <_ZN20complex_dynamic_type3app17h5b79d487458a18ebE+0x14c>)
   22a48:	2108      	movs	r1, #8
   22a4a:	2600      	movs	r6, #0
   22a4c:	460a      	mov	r2, r1
   22a4e:	4633      	mov	r3, r6
   22a50:	df02      	svc	2
   22a52:	2880      	cmp	r0, #128	@ 0x80
   22a54:	d21b      	bcs.n	22a8e <_ZN20complex_dynamic_type3app17h5b79d487458a18ebE+0xc6>
   22a56:	2001      	movs	r0, #1
   22a58:	7028      	strb	r0, [r5, #0]
   22a5a:	6069      	str	r1, [r5, #4]
   22a5c:	482d      	ldr	r0, [pc, #180]	@ (22b14 <_ZN20complex_dynamic_type3app17h5b79d487458a18ebE+0x14c>)
   22a5e:	2108      	movs	r1, #8
   22a60:	2200      	movs	r2, #0
   22a62:	4613      	mov	r3, r2
   22a64:	df03      	svc	3
   22a66:	a804      	add	r0, sp, #16
   22a68:	7800      	ldrb	r0, [r0, #0]
   22a6a:	2802      	cmp	r0, #2
   22a6c:	d045      	beq.n	22afa <_ZN20complex_dynamic_type3app17h5b79d487458a18ebE+0x132>
   22a6e:	2804      	cmp	r0, #4
   22a70:	d106      	bne.n	22a80 <_ZN20complex_dynamic_type3app17h5b79d487458a18ebE+0xb8>
   22a72:	4828      	ldr	r0, [pc, #160]	@ (22b14 <_ZN20complex_dynamic_type3app17h5b79d487458a18ebE+0x14c>)
   22a74:	2108      	movs	r1, #8
   22a76:	2200      	movs	r2, #0
   22a78:	4613      	mov	r3, r2
   22a7a:	df04      	svc	4
   22a7c:	b027      	add	sp, #156	@ 0x9c
   22a7e:	bdf0      	pop	{r4, r5, r6, r7, pc}
   22a80:	4824      	ldr	r0, [pc, #144]	@ (22b14 <_ZN20complex_dynamic_type3app17h5b79d487458a18ebE+0x14c>)
   22a82:	2108      	movs	r1, #8
   22a84:	2200      	movs	r2, #0
   22a86:	4613      	mov	r3, r2
   22a88:	df03      	svc	3
   22a8a:	b027      	add	sp, #156	@ 0x9c
   22a8c:	bdf0      	pop	{r4, r5, r6, r7, pc}
   22a8e:	a804      	add	r0, sp, #16
   22a90:	7800      	ldrb	r0, [r0, #0]
   22a92:	2802      	cmp	r0, #2
   22a94:	d00c      	beq.n	22ab0 <_ZN20complex_dynamic_type3app17h5b79d487458a18ebE+0xe8>
   22a96:	2803      	cmp	r0, #3
   22a98:	d105      	bne.n	22aa6 <_ZN20complex_dynamic_type3app17h5b79d487458a18ebE+0xde>
   22a9a:	481e      	ldr	r0, [pc, #120]	@ (22b14 <_ZN20complex_dynamic_type3app17h5b79d487458a18ebE+0x14c>)
   22a9c:	2108      	movs	r1, #8
   22a9e:	2200      	movs	r2, #0
   22aa0:	4613      	mov	r3, r2
   22aa2:	df03      	svc	3
   22aa4:	e004      	b.n	22ab0 <_ZN20complex_dynamic_type3app17h5b79d487458a18ebE+0xe8>
   22aa6:	481b      	ldr	r0, [pc, #108]	@ (22b14 <_ZN20complex_dynamic_type3app17h5b79d487458a18ebE+0x14c>)
   22aa8:	2108      	movs	r1, #8
   22aaa:	2200      	movs	r2, #0
   22aac:	4613      	mov	r3, r2
   22aae:	df04      	svc	4
   22ab0:	a804      	add	r0, sp, #16
   22ab2:	9900      	ldr	r1, [sp, #0]
   22ab4:	7001      	strb	r1, [r0, #0]
   22ab6:	a81a      	add	r0, sp, #104	@ 0x68
   22ab8:	7800      	ldrb	r0, [r0, #0]
   22aba:	2804      	cmp	r0, #4
   22abc:	d007      	beq.n	22ace <_ZN20complex_dynamic_type3app17h5b79d487458a18ebE+0x106>
   22abe:	2803      	cmp	r0, #3
   22ac0:	d11d      	bne.n	22afe <_ZN20complex_dynamic_type3app17h5b79d487458a18ebE+0x136>
   22ac2:	4814      	ldr	r0, [pc, #80]	@ (22b14 <_ZN20complex_dynamic_type3app17h5b79d487458a18ebE+0x14c>)
   22ac4:	2108      	movs	r1, #8
   22ac6:	2200      	movs	r2, #0
   22ac8:	4613      	mov	r3, r2
   22aca:	df03      	svc	3
   22acc:	e004      	b.n	22ad8 <_ZN20complex_dynamic_type3app17h5b79d487458a18ebE+0x110>
   22ace:	4811      	ldr	r0, [pc, #68]	@ (22b14 <_ZN20complex_dynamic_type3app17h5b79d487458a18ebE+0x14c>)
   22ad0:	2108      	movs	r1, #8
   22ad2:	2200      	movs	r2, #0
   22ad4:	4613      	mov	r3, r2
   22ad6:	df04      	svc	4
   22ad8:	a804      	add	r0, sp, #16
   22ada:	7804      	ldrb	r4, [r0, #0]
   22adc:	1c68      	adds	r0, r5, #1
   22ade:	2232      	movs	r2, #50	@ 0x32
   22ae0:	9901      	ldr	r1, [sp, #4]
   22ae2:	f008 fb0f 	bl	2b104 <__aeabi_memcpy>
   22ae6:	702e      	strb	r6, [r5, #0]
   22ae8:	2c02      	cmp	r4, #2
   22aea:	d006      	beq.n	22afa <_ZN20complex_dynamic_type3app17h5b79d487458a18ebE+0x132>
   22aec:	4809      	ldr	r0, [pc, #36]	@ (22b14 <_ZN20complex_dynamic_type3app17h5b79d487458a18ebE+0x14c>)
   22aee:	2108      	movs	r1, #8
   22af0:	2200      	movs	r2, #0
   22af2:	4613      	mov	r3, r2
   22af4:	2c04      	cmp	r4, #4
   22af6:	d10a      	bne.n	22b0e <_ZN20complex_dynamic_type3app17h5b79d487458a18ebE+0x146>
   22af8:	df04      	svc	4
   22afa:	b027      	add	sp, #156	@ 0x9c
   22afc:	bdf0      	pop	{r4, r5, r6, r7, pc}
   22afe:	1c68      	adds	r0, r5, #1
   22b00:	2232      	movs	r2, #50	@ 0x32
   22b02:	4621      	mov	r1, r4
   22b04:	f008 fafe 	bl	2b104 <__aeabi_memcpy>
   22b08:	702e      	strb	r6, [r5, #0]
   22b0a:	b027      	add	sp, #156	@ 0x9c
   22b0c:	bdf0      	pop	{r4, r5, r6, r7, pc}
   22b0e:	df03      	svc	3
   22b10:	b027      	add	sp, #156	@ 0x9c
   22b12:	bdf0      	pop	{r4, r5, r6, r7, pc}
   22b14:	00002095 	.word	0x00002095

00022b18 <_ZN20complex_dynamic_type3app17h62d72f200aa91b56E>:
   22b18:	b5f0      	push	{r4, r5, r6, r7, lr}
   22b1a:	af03      	add	r7, sp, #12
   22b1c:	b0a3      	sub	sp, #140	@ 0x8c
   22b1e:	9004      	str	r0, [sp, #16]
   22b20:	a805      	add	r0, sp, #20
   22b22:	2402      	movs	r4, #2
   22b24:	7004      	strb	r4, [r0, #0]
   22b26:	1c46      	adds	r6, r0, #1
   22b28:	2240      	movs	r2, #64	@ 0x40
   22b2a:	9203      	str	r2, [sp, #12]
   22b2c:	4630      	mov	r0, r6
   22b2e:	f008 fae9 	bl	2b104 <__aeabi_memcpy>
   22b32:	ad16      	add	r5, sp, #88	@ 0x58
   22b34:	1c68      	adds	r0, r5, #1
   22b36:	2131      	movs	r1, #49	@ 0x31
   22b38:	9002      	str	r0, [sp, #8]
   22b3a:	f008 f923 	bl	2ad84 <__aeabi_memclr>
   22b3e:	9401      	str	r4, [sp, #4]
   22b40:	702c      	strb	r4, [r5, #0]
   22b42:	4848      	ldr	r0, [pc, #288]	@ (22c64 <_ZN20complex_dynamic_type3app17h62d72f200aa91b56E+0x14c>)
   22b44:	2108      	movs	r1, #8
   22b46:	4632      	mov	r2, r6
   22b48:	9b03      	ldr	r3, [sp, #12]
   22b4a:	df04      	svc	4
   22b4c:	2802      	cmp	r0, #2
   22b4e:	d104      	bne.n	22b5a <_ZN20complex_dynamic_type3app17h62d72f200aa91b56E+0x42>
   22b50:	2001      	movs	r0, #1
   22b52:	9a04      	ldr	r2, [sp, #16]
   22b54:	7010      	strb	r0, [r2, #0]
   22b56:	6051      	str	r1, [r2, #4]
   22b58:	e02d      	b.n	22bb6 <_ZN20complex_dynamic_type3app17h62d72f200aa91b56E+0x9e>
   22b5a:	9d04      	ldr	r5, [sp, #16]
   22b5c:	a805      	add	r0, sp, #20
   22b5e:	2104      	movs	r1, #4
   22b60:	7001      	strb	r1, [r0, #0]
   22b62:	4840      	ldr	r0, [pc, #256]	@ (22c64 <_ZN20complex_dynamic_type3app17h62d72f200aa91b56E+0x14c>)
   22b64:	2105      	movs	r1, #5
   22b66:	2331      	movs	r3, #49	@ 0x31
   22b68:	9c02      	ldr	r4, [sp, #8]
   22b6a:	4622      	mov	r2, r4
   22b6c:	df03      	svc	3
   22b6e:	2802      	cmp	r0, #2
   22b70:	d10e      	bne.n	22b90 <_ZN20complex_dynamic_type3app17h62d72f200aa91b56E+0x78>
   22b72:	2001      	movs	r0, #1
   22b74:	7028      	strb	r0, [r5, #0]
   22b76:	6069      	str	r1, [r5, #4]
   22b78:	a816      	add	r0, sp, #88	@ 0x58
   22b7a:	7800      	ldrb	r0, [r0, #0]
   22b7c:	2802      	cmp	r0, #2
   22b7e:	d01a      	beq.n	22bb6 <_ZN20complex_dynamic_type3app17h62d72f200aa91b56E+0x9e>
   22b80:	2803      	cmp	r0, #3
   22b82:	d013      	beq.n	22bac <_ZN20complex_dynamic_type3app17h62d72f200aa91b56E+0x94>
   22b84:	4837      	ldr	r0, [pc, #220]	@ (22c64 <_ZN20complex_dynamic_type3app17h62d72f200aa91b56E+0x14c>)
   22b86:	2105      	movs	r1, #5
   22b88:	2200      	movs	r2, #0
   22b8a:	4613      	mov	r3, r2
   22b8c:	df04      	svc	4
   22b8e:	e012      	b.n	22bb6 <_ZN20complex_dynamic_type3app17h62d72f200aa91b56E+0x9e>
   22b90:	a816      	add	r0, sp, #88	@ 0x58
   22b92:	2103      	movs	r1, #3
   22b94:	7001      	strb	r1, [r0, #0]
   22b96:	4833      	ldr	r0, [pc, #204]	@ (22c64 <_ZN20complex_dynamic_type3app17h62d72f200aa91b56E+0x14c>)
   22b98:	2108      	movs	r1, #8
   22b9a:	2205      	movs	r2, #5
   22b9c:	2600      	movs	r6, #0
   22b9e:	4633      	mov	r3, r6
   22ba0:	df02      	svc	2
   22ba2:	2880      	cmp	r0, #128	@ 0x80
   22ba4:	d21b      	bcs.n	22bde <_ZN20complex_dynamic_type3app17h62d72f200aa91b56E+0xc6>
   22ba6:	2001      	movs	r0, #1
   22ba8:	7028      	strb	r0, [r5, #0]
   22baa:	6069      	str	r1, [r5, #4]
   22bac:	482d      	ldr	r0, [pc, #180]	@ (22c64 <_ZN20complex_dynamic_type3app17h62d72f200aa91b56E+0x14c>)
   22bae:	2105      	movs	r1, #5
   22bb0:	2200      	movs	r2, #0
   22bb2:	4613      	mov	r3, r2
   22bb4:	df03      	svc	3
   22bb6:	a805      	add	r0, sp, #20
   22bb8:	7800      	ldrb	r0, [r0, #0]
   22bba:	2802      	cmp	r0, #2
   22bbc:	d045      	beq.n	22c4a <_ZN20complex_dynamic_type3app17h62d72f200aa91b56E+0x132>
   22bbe:	2804      	cmp	r0, #4
   22bc0:	d106      	bne.n	22bd0 <_ZN20complex_dynamic_type3app17h62d72f200aa91b56E+0xb8>
   22bc2:	4828      	ldr	r0, [pc, #160]	@ (22c64 <_ZN20complex_dynamic_type3app17h62d72f200aa91b56E+0x14c>)
   22bc4:	2108      	movs	r1, #8
   22bc6:	2200      	movs	r2, #0
   22bc8:	4613      	mov	r3, r2
   22bca:	df04      	svc	4
   22bcc:	b023      	add	sp, #140	@ 0x8c
   22bce:	bdf0      	pop	{r4, r5, r6, r7, pc}
   22bd0:	4824      	ldr	r0, [pc, #144]	@ (22c64 <_ZN20complex_dynamic_type3app17h62d72f200aa91b56E+0x14c>)
   22bd2:	2108      	movs	r1, #8
   22bd4:	2200      	movs	r2, #0
   22bd6:	4613      	mov	r3, r2
   22bd8:	df03      	svc	3
   22bda:	b023      	add	sp, #140	@ 0x8c
   22bdc:	bdf0      	pop	{r4, r5, r6, r7, pc}
   22bde:	a805      	add	r0, sp, #20
   22be0:	7800      	ldrb	r0, [r0, #0]
   22be2:	2802      	cmp	r0, #2
   22be4:	d00c      	beq.n	22c00 <_ZN20complex_dynamic_type3app17h62d72f200aa91b56E+0xe8>
   22be6:	2803      	cmp	r0, #3
   22be8:	d105      	bne.n	22bf6 <_ZN20complex_dynamic_type3app17h62d72f200aa91b56E+0xde>
   22bea:	481e      	ldr	r0, [pc, #120]	@ (22c64 <_ZN20complex_dynamic_type3app17h62d72f200aa91b56E+0x14c>)
   22bec:	2108      	movs	r1, #8
   22bee:	2200      	movs	r2, #0
   22bf0:	4613      	mov	r3, r2
   22bf2:	df03      	svc	3
   22bf4:	e004      	b.n	22c00 <_ZN20complex_dynamic_type3app17h62d72f200aa91b56E+0xe8>
   22bf6:	481b      	ldr	r0, [pc, #108]	@ (22c64 <_ZN20complex_dynamic_type3app17h62d72f200aa91b56E+0x14c>)
   22bf8:	2108      	movs	r1, #8
   22bfa:	2200      	movs	r2, #0
   22bfc:	4613      	mov	r3, r2
   22bfe:	df04      	svc	4
   22c00:	a805      	add	r0, sp, #20
   22c02:	9901      	ldr	r1, [sp, #4]
   22c04:	7001      	strb	r1, [r0, #0]
   22c06:	a816      	add	r0, sp, #88	@ 0x58
   22c08:	7800      	ldrb	r0, [r0, #0]
   22c0a:	2804      	cmp	r0, #4
   22c0c:	d007      	beq.n	22c1e <_ZN20complex_dynamic_type3app17h62d72f200aa91b56E+0x106>
   22c0e:	2803      	cmp	r0, #3
   22c10:	d11d      	bne.n	22c4e <_ZN20complex_dynamic_type3app17h62d72f200aa91b56E+0x136>
   22c12:	4814      	ldr	r0, [pc, #80]	@ (22c64 <_ZN20complex_dynamic_type3app17h62d72f200aa91b56E+0x14c>)
   22c14:	2105      	movs	r1, #5
   22c16:	2200      	movs	r2, #0
   22c18:	4613      	mov	r3, r2
   22c1a:	df03      	svc	3
   22c1c:	e004      	b.n	22c28 <_ZN20complex_dynamic_type3app17h62d72f200aa91b56E+0x110>
   22c1e:	4811      	ldr	r0, [pc, #68]	@ (22c64 <_ZN20complex_dynamic_type3app17h62d72f200aa91b56E+0x14c>)
   22c20:	2105      	movs	r1, #5
   22c22:	2200      	movs	r2, #0
   22c24:	4613      	mov	r3, r2
   22c26:	df04      	svc	4
   22c28:	a805      	add	r0, sp, #20
   22c2a:	7804      	ldrb	r4, [r0, #0]
   22c2c:	1c68      	adds	r0, r5, #1
   22c2e:	2231      	movs	r2, #49	@ 0x31
   22c30:	9902      	ldr	r1, [sp, #8]
   22c32:	f008 fa67 	bl	2b104 <__aeabi_memcpy>
   22c36:	702e      	strb	r6, [r5, #0]
   22c38:	2c02      	cmp	r4, #2
   22c3a:	d006      	beq.n	22c4a <_ZN20complex_dynamic_type3app17h62d72f200aa91b56E+0x132>
   22c3c:	4809      	ldr	r0, [pc, #36]	@ (22c64 <_ZN20complex_dynamic_type3app17h62d72f200aa91b56E+0x14c>)
   22c3e:	2108      	movs	r1, #8
   22c40:	2200      	movs	r2, #0
   22c42:	4613      	mov	r3, r2
   22c44:	2c04      	cmp	r4, #4
   22c46:	d10a      	bne.n	22c5e <_ZN20complex_dynamic_type3app17h62d72f200aa91b56E+0x146>
   22c48:	df04      	svc	4
   22c4a:	b023      	add	sp, #140	@ 0x8c
   22c4c:	bdf0      	pop	{r4, r5, r6, r7, pc}
   22c4e:	1c68      	adds	r0, r5, #1
   22c50:	2231      	movs	r2, #49	@ 0x31
   22c52:	4621      	mov	r1, r4
   22c54:	f008 fa56 	bl	2b104 <__aeabi_memcpy>
   22c58:	702e      	strb	r6, [r5, #0]
   22c5a:	b023      	add	sp, #140	@ 0x8c
   22c5c:	bdf0      	pop	{r4, r5, r6, r7, pc}
   22c5e:	df03      	svc	3
   22c60:	b023      	add	sp, #140	@ 0x8c
   22c62:	bdf0      	pop	{r4, r5, r6, r7, pc}
   22c64:	00000fce 	.word	0x00000fce

00022c68 <_ZN20complex_dynamic_type3app17h642f7e31653e4986E>:
   22c68:	b5f0      	push	{r4, r5, r6, r7, lr}
   22c6a:	af03      	add	r7, sp, #12
   22c6c:	b09f      	sub	sp, #124	@ 0x7c
   22c6e:	9003      	str	r0, [sp, #12]
   22c70:	a804      	add	r0, sp, #16
   22c72:	2402      	movs	r4, #2
   22c74:	7004      	strb	r4, [r0, #0]
   22c76:	1c46      	adds	r6, r0, #1
   22c78:	222e      	movs	r2, #46	@ 0x2e
   22c7a:	9202      	str	r2, [sp, #8]
   22c7c:	4630      	mov	r0, r6
   22c7e:	f008 fa41 	bl	2b104 <__aeabi_memcpy>
   22c82:	ad10      	add	r5, sp, #64	@ 0x40
   22c84:	1c68      	adds	r0, r5, #1
   22c86:	2138      	movs	r1, #56	@ 0x38
   22c88:	9001      	str	r0, [sp, #4]
   22c8a:	f008 f87b 	bl	2ad84 <__aeabi_memclr>
   22c8e:	9400      	str	r4, [sp, #0]
   22c90:	702c      	strb	r4, [r5, #0]
   22c92:	4848      	ldr	r0, [pc, #288]	@ (22db4 <_ZN20complex_dynamic_type3app17h642f7e31653e4986E+0x14c>)
   22c94:	2109      	movs	r1, #9
   22c96:	4632      	mov	r2, r6
   22c98:	9b02      	ldr	r3, [sp, #8]
   22c9a:	df04      	svc	4
   22c9c:	2802      	cmp	r0, #2
   22c9e:	d104      	bne.n	22caa <_ZN20complex_dynamic_type3app17h642f7e31653e4986E+0x42>
   22ca0:	2001      	movs	r0, #1
   22ca2:	9a03      	ldr	r2, [sp, #12]
   22ca4:	7010      	strb	r0, [r2, #0]
   22ca6:	6051      	str	r1, [r2, #4]
   22ca8:	e02d      	b.n	22d06 <_ZN20complex_dynamic_type3app17h642f7e31653e4986E+0x9e>
   22caa:	9d03      	ldr	r5, [sp, #12]
   22cac:	a804      	add	r0, sp, #16
   22cae:	2104      	movs	r1, #4
   22cb0:	7001      	strb	r1, [r0, #0]
   22cb2:	4840      	ldr	r0, [pc, #256]	@ (22db4 <_ZN20complex_dynamic_type3app17h642f7e31653e4986E+0x14c>)
   22cb4:	2109      	movs	r1, #9
   22cb6:	2338      	movs	r3, #56	@ 0x38
   22cb8:	9c01      	ldr	r4, [sp, #4]
   22cba:	4622      	mov	r2, r4
   22cbc:	df03      	svc	3
   22cbe:	2802      	cmp	r0, #2
   22cc0:	d10e      	bne.n	22ce0 <_ZN20complex_dynamic_type3app17h642f7e31653e4986E+0x78>
   22cc2:	2001      	movs	r0, #1
   22cc4:	7028      	strb	r0, [r5, #0]
   22cc6:	6069      	str	r1, [r5, #4]
   22cc8:	a810      	add	r0, sp, #64	@ 0x40
   22cca:	7800      	ldrb	r0, [r0, #0]
   22ccc:	2802      	cmp	r0, #2
   22cce:	d01a      	beq.n	22d06 <_ZN20complex_dynamic_type3app17h642f7e31653e4986E+0x9e>
   22cd0:	2803      	cmp	r0, #3
   22cd2:	d013      	beq.n	22cfc <_ZN20complex_dynamic_type3app17h642f7e31653e4986E+0x94>
   22cd4:	4837      	ldr	r0, [pc, #220]	@ (22db4 <_ZN20complex_dynamic_type3app17h642f7e31653e4986E+0x14c>)
   22cd6:	2109      	movs	r1, #9
   22cd8:	2200      	movs	r2, #0
   22cda:	4613      	mov	r3, r2
   22cdc:	df04      	svc	4
   22cde:	e012      	b.n	22d06 <_ZN20complex_dynamic_type3app17h642f7e31653e4986E+0x9e>
   22ce0:	a810      	add	r0, sp, #64	@ 0x40
   22ce2:	2103      	movs	r1, #3
   22ce4:	7001      	strb	r1, [r0, #0]
   22ce6:	4833      	ldr	r0, [pc, #204]	@ (22db4 <_ZN20complex_dynamic_type3app17h642f7e31653e4986E+0x14c>)
   22ce8:	2109      	movs	r1, #9
   22cea:	2600      	movs	r6, #0
   22cec:	460a      	mov	r2, r1
   22cee:	4633      	mov	r3, r6
   22cf0:	df02      	svc	2
   22cf2:	2880      	cmp	r0, #128	@ 0x80
   22cf4:	d21b      	bcs.n	22d2e <_ZN20complex_dynamic_type3app17h642f7e31653e4986E+0xc6>
   22cf6:	2001      	movs	r0, #1
   22cf8:	7028      	strb	r0, [r5, #0]
   22cfa:	6069      	str	r1, [r5, #4]
   22cfc:	482d      	ldr	r0, [pc, #180]	@ (22db4 <_ZN20complex_dynamic_type3app17h642f7e31653e4986E+0x14c>)
   22cfe:	2109      	movs	r1, #9
   22d00:	2200      	movs	r2, #0
   22d02:	4613      	mov	r3, r2
   22d04:	df03      	svc	3
   22d06:	a804      	add	r0, sp, #16
   22d08:	7800      	ldrb	r0, [r0, #0]
   22d0a:	2802      	cmp	r0, #2
   22d0c:	d045      	beq.n	22d9a <_ZN20complex_dynamic_type3app17h642f7e31653e4986E+0x132>
   22d0e:	2804      	cmp	r0, #4
   22d10:	d106      	bne.n	22d20 <_ZN20complex_dynamic_type3app17h642f7e31653e4986E+0xb8>
   22d12:	4828      	ldr	r0, [pc, #160]	@ (22db4 <_ZN20complex_dynamic_type3app17h642f7e31653e4986E+0x14c>)
   22d14:	2109      	movs	r1, #9
   22d16:	2200      	movs	r2, #0
   22d18:	4613      	mov	r3, r2
   22d1a:	df04      	svc	4
   22d1c:	b01f      	add	sp, #124	@ 0x7c
   22d1e:	bdf0      	pop	{r4, r5, r6, r7, pc}
   22d20:	4824      	ldr	r0, [pc, #144]	@ (22db4 <_ZN20complex_dynamic_type3app17h642f7e31653e4986E+0x14c>)
   22d22:	2109      	movs	r1, #9
   22d24:	2200      	movs	r2, #0
   22d26:	4613      	mov	r3, r2
   22d28:	df03      	svc	3
   22d2a:	b01f      	add	sp, #124	@ 0x7c
   22d2c:	bdf0      	pop	{r4, r5, r6, r7, pc}
   22d2e:	a804      	add	r0, sp, #16
   22d30:	7800      	ldrb	r0, [r0, #0]
   22d32:	2802      	cmp	r0, #2
   22d34:	d00c      	beq.n	22d50 <_ZN20complex_dynamic_type3app17h642f7e31653e4986E+0xe8>
   22d36:	2803      	cmp	r0, #3
   22d38:	d105      	bne.n	22d46 <_ZN20complex_dynamic_type3app17h642f7e31653e4986E+0xde>
   22d3a:	481e      	ldr	r0, [pc, #120]	@ (22db4 <_ZN20complex_dynamic_type3app17h642f7e31653e4986E+0x14c>)
   22d3c:	2109      	movs	r1, #9
   22d3e:	2200      	movs	r2, #0
   22d40:	4613      	mov	r3, r2
   22d42:	df03      	svc	3
   22d44:	e004      	b.n	22d50 <_ZN20complex_dynamic_type3app17h642f7e31653e4986E+0xe8>
   22d46:	481b      	ldr	r0, [pc, #108]	@ (22db4 <_ZN20complex_dynamic_type3app17h642f7e31653e4986E+0x14c>)
   22d48:	2109      	movs	r1, #9
   22d4a:	2200      	movs	r2, #0
   22d4c:	4613      	mov	r3, r2
   22d4e:	df04      	svc	4
   22d50:	a804      	add	r0, sp, #16
   22d52:	9900      	ldr	r1, [sp, #0]
   22d54:	7001      	strb	r1, [r0, #0]
   22d56:	a810      	add	r0, sp, #64	@ 0x40
   22d58:	7800      	ldrb	r0, [r0, #0]
   22d5a:	2804      	cmp	r0, #4
   22d5c:	d007      	beq.n	22d6e <_ZN20complex_dynamic_type3app17h642f7e31653e4986E+0x106>
   22d5e:	2803      	cmp	r0, #3
   22d60:	d11d      	bne.n	22d9e <_ZN20complex_dynamic_type3app17h642f7e31653e4986E+0x136>
   22d62:	4814      	ldr	r0, [pc, #80]	@ (22db4 <_ZN20complex_dynamic_type3app17h642f7e31653e4986E+0x14c>)
   22d64:	2109      	movs	r1, #9
   22d66:	2200      	movs	r2, #0
   22d68:	4613      	mov	r3, r2
   22d6a:	df03      	svc	3
   22d6c:	e004      	b.n	22d78 <_ZN20complex_dynamic_type3app17h642f7e31653e4986E+0x110>
   22d6e:	4811      	ldr	r0, [pc, #68]	@ (22db4 <_ZN20complex_dynamic_type3app17h642f7e31653e4986E+0x14c>)
   22d70:	2109      	movs	r1, #9
   22d72:	2200      	movs	r2, #0
   22d74:	4613      	mov	r3, r2
   22d76:	df04      	svc	4
   22d78:	a804      	add	r0, sp, #16
   22d7a:	7804      	ldrb	r4, [r0, #0]
   22d7c:	1c68      	adds	r0, r5, #1
   22d7e:	2238      	movs	r2, #56	@ 0x38
   22d80:	9901      	ldr	r1, [sp, #4]
   22d82:	f008 f9bf 	bl	2b104 <__aeabi_memcpy>
   22d86:	702e      	strb	r6, [r5, #0]
   22d88:	2c02      	cmp	r4, #2
   22d8a:	d006      	beq.n	22d9a <_ZN20complex_dynamic_type3app17h642f7e31653e4986E+0x132>
   22d8c:	4809      	ldr	r0, [pc, #36]	@ (22db4 <_ZN20complex_dynamic_type3app17h642f7e31653e4986E+0x14c>)
   22d8e:	2109      	movs	r1, #9
   22d90:	2200      	movs	r2, #0
   22d92:	4613      	mov	r3, r2
   22d94:	2c04      	cmp	r4, #4
   22d96:	d10a      	bne.n	22dae <_ZN20complex_dynamic_type3app17h642f7e31653e4986E+0x146>
   22d98:	df04      	svc	4
   22d9a:	b01f      	add	sp, #124	@ 0x7c
   22d9c:	bdf0      	pop	{r4, r5, r6, r7, pc}
   22d9e:	1c68      	adds	r0, r5, #1
   22da0:	2238      	movs	r2, #56	@ 0x38
   22da2:	4621      	mov	r1, r4
   22da4:	f008 f9ae 	bl	2b104 <__aeabi_memcpy>
   22da8:	702e      	strb	r6, [r5, #0]
   22daa:	b01f      	add	sp, #124	@ 0x7c
   22dac:	bdf0      	pop	{r4, r5, r6, r7, pc}
   22dae:	df03      	svc	3
   22db0:	b01f      	add	sp, #124	@ 0x7c
   22db2:	bdf0      	pop	{r4, r5, r6, r7, pc}
   22db4:	00000a9d 	.word	0x00000a9d

00022db8 <_ZN20complex_dynamic_type3app17h6631807ca753ddf6E>:
   22db8:	b5f0      	push	{r4, r5, r6, r7, lr}
   22dba:	af03      	add	r7, sp, #12
   22dbc:	b0ad      	sub	sp, #180	@ 0xb4
   22dbe:	9003      	str	r0, [sp, #12]
   22dc0:	a804      	add	r0, sp, #16
   22dc2:	2402      	movs	r4, #2
   22dc4:	7004      	strb	r4, [r0, #0]
   22dc6:	1c46      	adds	r6, r0, #1
   22dc8:	2253      	movs	r2, #83	@ 0x53
   22dca:	9202      	str	r2, [sp, #8]
   22dcc:	4630      	mov	r0, r6
   22dce:	f008 f999 	bl	2b104 <__aeabi_memcpy>
   22dd2:	ad19      	add	r5, sp, #100	@ 0x64
   22dd4:	1c68      	adds	r0, r5, #1
   22dd6:	214d      	movs	r1, #77	@ 0x4d
   22dd8:	9001      	str	r0, [sp, #4]
   22dda:	f007 ffd3 	bl	2ad84 <__aeabi_memclr>
   22dde:	9400      	str	r4, [sp, #0]
   22de0:	702c      	strb	r4, [r5, #0]
   22de2:	4848      	ldr	r0, [pc, #288]	@ (22f04 <_ZN20complex_dynamic_type3app17h6631807ca753ddf6E+0x14c>)
   22de4:	2109      	movs	r1, #9
   22de6:	4632      	mov	r2, r6
   22de8:	9b02      	ldr	r3, [sp, #8]
   22dea:	df04      	svc	4
   22dec:	2802      	cmp	r0, #2
   22dee:	d104      	bne.n	22dfa <_ZN20complex_dynamic_type3app17h6631807ca753ddf6E+0x42>
   22df0:	2001      	movs	r0, #1
   22df2:	9a03      	ldr	r2, [sp, #12]
   22df4:	7010      	strb	r0, [r2, #0]
   22df6:	6051      	str	r1, [r2, #4]
   22df8:	e02c      	b.n	22e54 <_ZN20complex_dynamic_type3app17h6631807ca753ddf6E+0x9c>
   22dfa:	9d03      	ldr	r5, [sp, #12]
   22dfc:	a804      	add	r0, sp, #16
   22dfe:	2104      	movs	r1, #4
   22e00:	7001      	strb	r1, [r0, #0]
   22e02:	4840      	ldr	r0, [pc, #256]	@ (22f04 <_ZN20complex_dynamic_type3app17h6631807ca753ddf6E+0x14c>)
   22e04:	234d      	movs	r3, #77	@ 0x4d
   22e06:	9c01      	ldr	r4, [sp, #4]
   22e08:	4622      	mov	r2, r4
   22e0a:	df03      	svc	3
   22e0c:	2802      	cmp	r0, #2
   22e0e:	d10e      	bne.n	22e2e <_ZN20complex_dynamic_type3app17h6631807ca753ddf6E+0x76>
   22e10:	2001      	movs	r0, #1
   22e12:	7028      	strb	r0, [r5, #0]
   22e14:	6069      	str	r1, [r5, #4]
   22e16:	a819      	add	r0, sp, #100	@ 0x64
   22e18:	7800      	ldrb	r0, [r0, #0]
   22e1a:	2802      	cmp	r0, #2
   22e1c:	d01a      	beq.n	22e54 <_ZN20complex_dynamic_type3app17h6631807ca753ddf6E+0x9c>
   22e1e:	2803      	cmp	r0, #3
   22e20:	d013      	beq.n	22e4a <_ZN20complex_dynamic_type3app17h6631807ca753ddf6E+0x92>
   22e22:	4838      	ldr	r0, [pc, #224]	@ (22f04 <_ZN20complex_dynamic_type3app17h6631807ca753ddf6E+0x14c>)
   22e24:	2104      	movs	r1, #4
   22e26:	2200      	movs	r2, #0
   22e28:	4613      	mov	r3, r2
   22e2a:	df04      	svc	4
   22e2c:	e012      	b.n	22e54 <_ZN20complex_dynamic_type3app17h6631807ca753ddf6E+0x9c>
   22e2e:	a819      	add	r0, sp, #100	@ 0x64
   22e30:	2103      	movs	r1, #3
   22e32:	7001      	strb	r1, [r0, #0]
   22e34:	4833      	ldr	r0, [pc, #204]	@ (22f04 <_ZN20complex_dynamic_type3app17h6631807ca753ddf6E+0x14c>)
   22e36:	2109      	movs	r1, #9
   22e38:	2204      	movs	r2, #4
   22e3a:	2600      	movs	r6, #0
   22e3c:	4633      	mov	r3, r6
   22e3e:	df02      	svc	2
   22e40:	2880      	cmp	r0, #128	@ 0x80
   22e42:	d21b      	bcs.n	22e7c <_ZN20complex_dynamic_type3app17h6631807ca753ddf6E+0xc4>
   22e44:	2001      	movs	r0, #1
   22e46:	7028      	strb	r0, [r5, #0]
   22e48:	6069      	str	r1, [r5, #4]
   22e4a:	482e      	ldr	r0, [pc, #184]	@ (22f04 <_ZN20complex_dynamic_type3app17h6631807ca753ddf6E+0x14c>)
   22e4c:	2104      	movs	r1, #4
   22e4e:	2200      	movs	r2, #0
   22e50:	4613      	mov	r3, r2
   22e52:	df03      	svc	3
   22e54:	a804      	add	r0, sp, #16
   22e56:	7800      	ldrb	r0, [r0, #0]
   22e58:	2802      	cmp	r0, #2
   22e5a:	d045      	beq.n	22ee8 <_ZN20complex_dynamic_type3app17h6631807ca753ddf6E+0x130>
   22e5c:	2804      	cmp	r0, #4
   22e5e:	d106      	bne.n	22e6e <_ZN20complex_dynamic_type3app17h6631807ca753ddf6E+0xb6>
   22e60:	4828      	ldr	r0, [pc, #160]	@ (22f04 <_ZN20complex_dynamic_type3app17h6631807ca753ddf6E+0x14c>)
   22e62:	2109      	movs	r1, #9
   22e64:	2200      	movs	r2, #0
   22e66:	4613      	mov	r3, r2
   22e68:	df04      	svc	4
   22e6a:	b02d      	add	sp, #180	@ 0xb4
   22e6c:	bdf0      	pop	{r4, r5, r6, r7, pc}
   22e6e:	4825      	ldr	r0, [pc, #148]	@ (22f04 <_ZN20complex_dynamic_type3app17h6631807ca753ddf6E+0x14c>)
   22e70:	2109      	movs	r1, #9
   22e72:	2200      	movs	r2, #0
   22e74:	4613      	mov	r3, r2
   22e76:	df03      	svc	3
   22e78:	b02d      	add	sp, #180	@ 0xb4
   22e7a:	bdf0      	pop	{r4, r5, r6, r7, pc}
   22e7c:	a804      	add	r0, sp, #16
   22e7e:	7800      	ldrb	r0, [r0, #0]
   22e80:	2802      	cmp	r0, #2
   22e82:	d00c      	beq.n	22e9e <_ZN20complex_dynamic_type3app17h6631807ca753ddf6E+0xe6>
   22e84:	2803      	cmp	r0, #3
   22e86:	d105      	bne.n	22e94 <_ZN20complex_dynamic_type3app17h6631807ca753ddf6E+0xdc>
   22e88:	481e      	ldr	r0, [pc, #120]	@ (22f04 <_ZN20complex_dynamic_type3app17h6631807ca753ddf6E+0x14c>)
   22e8a:	2109      	movs	r1, #9
   22e8c:	2200      	movs	r2, #0
   22e8e:	4613      	mov	r3, r2
   22e90:	df03      	svc	3
   22e92:	e004      	b.n	22e9e <_ZN20complex_dynamic_type3app17h6631807ca753ddf6E+0xe6>
   22e94:	481b      	ldr	r0, [pc, #108]	@ (22f04 <_ZN20complex_dynamic_type3app17h6631807ca753ddf6E+0x14c>)
   22e96:	2109      	movs	r1, #9
   22e98:	2200      	movs	r2, #0
   22e9a:	4613      	mov	r3, r2
   22e9c:	df04      	svc	4
   22e9e:	a804      	add	r0, sp, #16
   22ea0:	9900      	ldr	r1, [sp, #0]
   22ea2:	7001      	strb	r1, [r0, #0]
   22ea4:	a819      	add	r0, sp, #100	@ 0x64
   22ea6:	7800      	ldrb	r0, [r0, #0]
   22ea8:	2804      	cmp	r0, #4
   22eaa:	d007      	beq.n	22ebc <_ZN20complex_dynamic_type3app17h6631807ca753ddf6E+0x104>
   22eac:	2803      	cmp	r0, #3
   22eae:	d11d      	bne.n	22eec <_ZN20complex_dynamic_type3app17h6631807ca753ddf6E+0x134>
   22eb0:	4814      	ldr	r0, [pc, #80]	@ (22f04 <_ZN20complex_dynamic_type3app17h6631807ca753ddf6E+0x14c>)
   22eb2:	2104      	movs	r1, #4
   22eb4:	2200      	movs	r2, #0
   22eb6:	4613      	mov	r3, r2
   22eb8:	df03      	svc	3
   22eba:	e004      	b.n	22ec6 <_ZN20complex_dynamic_type3app17h6631807ca753ddf6E+0x10e>
   22ebc:	4811      	ldr	r0, [pc, #68]	@ (22f04 <_ZN20complex_dynamic_type3app17h6631807ca753ddf6E+0x14c>)
   22ebe:	2104      	movs	r1, #4
   22ec0:	2200      	movs	r2, #0
   22ec2:	4613      	mov	r3, r2
   22ec4:	df04      	svc	4
   22ec6:	a804      	add	r0, sp, #16
   22ec8:	7804      	ldrb	r4, [r0, #0]
   22eca:	1c68      	adds	r0, r5, #1
   22ecc:	224d      	movs	r2, #77	@ 0x4d
   22ece:	9901      	ldr	r1, [sp, #4]
   22ed0:	f008 f918 	bl	2b104 <__aeabi_memcpy>
   22ed4:	702e      	strb	r6, [r5, #0]
   22ed6:	2c02      	cmp	r4, #2
   22ed8:	d006      	beq.n	22ee8 <_ZN20complex_dynamic_type3app17h6631807ca753ddf6E+0x130>
   22eda:	480a      	ldr	r0, [pc, #40]	@ (22f04 <_ZN20complex_dynamic_type3app17h6631807ca753ddf6E+0x14c>)
   22edc:	2109      	movs	r1, #9
   22ede:	2200      	movs	r2, #0
   22ee0:	4613      	mov	r3, r2
   22ee2:	2c04      	cmp	r4, #4
   22ee4:	d10a      	bne.n	22efc <_ZN20complex_dynamic_type3app17h6631807ca753ddf6E+0x144>
   22ee6:	df04      	svc	4
   22ee8:	b02d      	add	sp, #180	@ 0xb4
   22eea:	bdf0      	pop	{r4, r5, r6, r7, pc}
   22eec:	1c68      	adds	r0, r5, #1
   22eee:	224d      	movs	r2, #77	@ 0x4d
   22ef0:	4621      	mov	r1, r4
   22ef2:	f008 f907 	bl	2b104 <__aeabi_memcpy>
   22ef6:	702e      	strb	r6, [r5, #0]
   22ef8:	b02d      	add	sp, #180	@ 0xb4
   22efa:	bdf0      	pop	{r4, r5, r6, r7, pc}
   22efc:	df03      	svc	3
   22efe:	b02d      	add	sp, #180	@ 0xb4
   22f00:	bdf0      	pop	{r4, r5, r6, r7, pc}
   22f02:	46c0      	nop			@ (mov r8, r8)
   22f04:	000016ba 	.word	0x000016ba

00022f08 <_ZN20complex_dynamic_type3app17h66a4f243e82bff8eE>:
   22f08:	b5f0      	push	{r4, r5, r6, r7, lr}
   22f0a:	af03      	add	r7, sp, #12
   22f0c:	b09d      	sub	sp, #116	@ 0x74
   22f0e:	9002      	str	r0, [sp, #8]
   22f10:	a803      	add	r0, sp, #12
   22f12:	2602      	movs	r6, #2
   22f14:	7006      	strb	r6, [r0, #0]
   22f16:	1c40      	adds	r0, r0, #1
   22f18:	9001      	str	r0, [sp, #4]
   22f1a:	2534      	movs	r5, #52	@ 0x34
   22f1c:	462a      	mov	r2, r5
   22f1e:	f008 f8f1 	bl	2b104 <__aeabi_memcpy>
   22f22:	ac11      	add	r4, sp, #68	@ 0x44
   22f24:	1c60      	adds	r0, r4, #1
   22f26:	212e      	movs	r1, #46	@ 0x2e
   22f28:	9000      	str	r0, [sp, #0]
   22f2a:	f007 ff2b 	bl	2ad84 <__aeabi_memclr>
   22f2e:	7026      	strb	r6, [r4, #0]
   22f30:	484a      	ldr	r0, [pc, #296]	@ (2305c <_ZN20complex_dynamic_type3app17h66a4f243e82bff8eE+0x154>)
   22f32:	4631      	mov	r1, r6
   22f34:	9a01      	ldr	r2, [sp, #4]
   22f36:	462b      	mov	r3, r5
   22f38:	df04      	svc	4
   22f3a:	2802      	cmp	r0, #2
   22f3c:	d104      	bne.n	22f48 <_ZN20complex_dynamic_type3app17h66a4f243e82bff8eE+0x40>
   22f3e:	2001      	movs	r0, #1
   22f40:	9a02      	ldr	r2, [sp, #8]
   22f42:	7010      	strb	r0, [r2, #0]
   22f44:	6051      	str	r1, [r2, #4]
   22f46:	e02e      	b.n	22fa6 <_ZN20complex_dynamic_type3app17h66a4f243e82bff8eE+0x9e>
   22f48:	9d02      	ldr	r5, [sp, #8]
   22f4a:	a803      	add	r0, sp, #12
   22f4c:	2104      	movs	r1, #4
   22f4e:	7001      	strb	r1, [r0, #0]
   22f50:	4842      	ldr	r0, [pc, #264]	@ (2305c <_ZN20complex_dynamic_type3app17h66a4f243e82bff8eE+0x154>)
   22f52:	2108      	movs	r1, #8
   22f54:	232e      	movs	r3, #46	@ 0x2e
   22f56:	9c00      	ldr	r4, [sp, #0]
   22f58:	4622      	mov	r2, r4
   22f5a:	df03      	svc	3
   22f5c:	2802      	cmp	r0, #2
   22f5e:	d10e      	bne.n	22f7e <_ZN20complex_dynamic_type3app17h66a4f243e82bff8eE+0x76>
   22f60:	2001      	movs	r0, #1
   22f62:	7028      	strb	r0, [r5, #0]
   22f64:	6069      	str	r1, [r5, #4]
   22f66:	a811      	add	r0, sp, #68	@ 0x44
   22f68:	7800      	ldrb	r0, [r0, #0]
   22f6a:	2802      	cmp	r0, #2
   22f6c:	d01b      	beq.n	22fa6 <_ZN20complex_dynamic_type3app17h66a4f243e82bff8eE+0x9e>
   22f6e:	2803      	cmp	r0, #3
   22f70:	d014      	beq.n	22f9c <_ZN20complex_dynamic_type3app17h66a4f243e82bff8eE+0x94>
   22f72:	483a      	ldr	r0, [pc, #232]	@ (2305c <_ZN20complex_dynamic_type3app17h66a4f243e82bff8eE+0x154>)
   22f74:	2108      	movs	r1, #8
   22f76:	2200      	movs	r2, #0
   22f78:	4613      	mov	r3, r2
   22f7a:	df04      	svc	4
   22f7c:	e013      	b.n	22fa6 <_ZN20complex_dynamic_type3app17h66a4f243e82bff8eE+0x9e>
   22f7e:	a811      	add	r0, sp, #68	@ 0x44
   22f80:	2103      	movs	r1, #3
   22f82:	7001      	strb	r1, [r0, #0]
   22f84:	4835      	ldr	r0, [pc, #212]	@ (2305c <_ZN20complex_dynamic_type3app17h66a4f243e82bff8eE+0x154>)
   22f86:	2602      	movs	r6, #2
   22f88:	2208      	movs	r2, #8
   22f8a:	2300      	movs	r3, #0
   22f8c:	4631      	mov	r1, r6
   22f8e:	9301      	str	r3, [sp, #4]
   22f90:	df02      	svc	2
   22f92:	2880      	cmp	r0, #128	@ 0x80
   22f94:	d21b      	bcs.n	22fce <_ZN20complex_dynamic_type3app17h66a4f243e82bff8eE+0xc6>
   22f96:	2001      	movs	r0, #1
   22f98:	7028      	strb	r0, [r5, #0]
   22f9a:	6069      	str	r1, [r5, #4]
   22f9c:	482f      	ldr	r0, [pc, #188]	@ (2305c <_ZN20complex_dynamic_type3app17h66a4f243e82bff8eE+0x154>)
   22f9e:	2108      	movs	r1, #8
   22fa0:	2200      	movs	r2, #0
   22fa2:	4613      	mov	r3, r2
   22fa4:	df03      	svc	3
   22fa6:	a803      	add	r0, sp, #12
   22fa8:	7800      	ldrb	r0, [r0, #0]
   22faa:	2802      	cmp	r0, #2
   22fac:	d047      	beq.n	2303e <_ZN20complex_dynamic_type3app17h66a4f243e82bff8eE+0x136>
   22fae:	2804      	cmp	r0, #4
   22fb0:	d106      	bne.n	22fc0 <_ZN20complex_dynamic_type3app17h66a4f243e82bff8eE+0xb8>
   22fb2:	482a      	ldr	r0, [pc, #168]	@ (2305c <_ZN20complex_dynamic_type3app17h66a4f243e82bff8eE+0x154>)
   22fb4:	2102      	movs	r1, #2
   22fb6:	2200      	movs	r2, #0
   22fb8:	4613      	mov	r3, r2
   22fba:	df04      	svc	4
   22fbc:	b01d      	add	sp, #116	@ 0x74
   22fbe:	bdf0      	pop	{r4, r5, r6, r7, pc}
   22fc0:	4826      	ldr	r0, [pc, #152]	@ (2305c <_ZN20complex_dynamic_type3app17h66a4f243e82bff8eE+0x154>)
   22fc2:	2102      	movs	r1, #2
   22fc4:	2200      	movs	r2, #0
   22fc6:	4613      	mov	r3, r2
   22fc8:	df03      	svc	3
   22fca:	b01d      	add	sp, #116	@ 0x74
   22fcc:	bdf0      	pop	{r4, r5, r6, r7, pc}
   22fce:	a803      	add	r0, sp, #12
   22fd0:	7800      	ldrb	r0, [r0, #0]
   22fd2:	2802      	cmp	r0, #2
   22fd4:	d00c      	beq.n	22ff0 <_ZN20complex_dynamic_type3app17h66a4f243e82bff8eE+0xe8>
   22fd6:	2803      	cmp	r0, #3
   22fd8:	d105      	bne.n	22fe6 <_ZN20complex_dynamic_type3app17h66a4f243e82bff8eE+0xde>
   22fda:	4820      	ldr	r0, [pc, #128]	@ (2305c <_ZN20complex_dynamic_type3app17h66a4f243e82bff8eE+0x154>)
   22fdc:	2102      	movs	r1, #2
   22fde:	2200      	movs	r2, #0
   22fe0:	4613      	mov	r3, r2
   22fe2:	df03      	svc	3
   22fe4:	e004      	b.n	22ff0 <_ZN20complex_dynamic_type3app17h66a4f243e82bff8eE+0xe8>
   22fe6:	481d      	ldr	r0, [pc, #116]	@ (2305c <_ZN20complex_dynamic_type3app17h66a4f243e82bff8eE+0x154>)
   22fe8:	2102      	movs	r1, #2
   22fea:	2200      	movs	r2, #0
   22fec:	4613      	mov	r3, r2
   22fee:	df04      	svc	4
   22ff0:	a803      	add	r0, sp, #12
   22ff2:	7006      	strb	r6, [r0, #0]
   22ff4:	a811      	add	r0, sp, #68	@ 0x44
   22ff6:	7800      	ldrb	r0, [r0, #0]
   22ff8:	2804      	cmp	r0, #4
   22ffa:	d008      	beq.n	2300e <_ZN20complex_dynamic_type3app17h66a4f243e82bff8eE+0x106>
   22ffc:	2803      	cmp	r0, #3
   22ffe:	d120      	bne.n	23042 <_ZN20complex_dynamic_type3app17h66a4f243e82bff8eE+0x13a>
   23000:	4626      	mov	r6, r4
   23002:	4816      	ldr	r0, [pc, #88]	@ (2305c <_ZN20complex_dynamic_type3app17h66a4f243e82bff8eE+0x154>)
   23004:	2108      	movs	r1, #8
   23006:	2200      	movs	r2, #0
   23008:	4613      	mov	r3, r2
   2300a:	df03      	svc	3
   2300c:	e005      	b.n	2301a <_ZN20complex_dynamic_type3app17h66a4f243e82bff8eE+0x112>
   2300e:	4626      	mov	r6, r4
   23010:	4812      	ldr	r0, [pc, #72]	@ (2305c <_ZN20complex_dynamic_type3app17h66a4f243e82bff8eE+0x154>)
   23012:	2108      	movs	r1, #8
   23014:	2200      	movs	r2, #0
   23016:	4613      	mov	r3, r2
   23018:	df04      	svc	4
   2301a:	a803      	add	r0, sp, #12
   2301c:	7804      	ldrb	r4, [r0, #0]
   2301e:	1c68      	adds	r0, r5, #1
   23020:	222e      	movs	r2, #46	@ 0x2e
   23022:	4631      	mov	r1, r6
   23024:	f008 f86e 	bl	2b104 <__aeabi_memcpy>
   23028:	9801      	ldr	r0, [sp, #4]
   2302a:	7028      	strb	r0, [r5, #0]
   2302c:	2c02      	cmp	r4, #2
   2302e:	d006      	beq.n	2303e <_ZN20complex_dynamic_type3app17h66a4f243e82bff8eE+0x136>
   23030:	480a      	ldr	r0, [pc, #40]	@ (2305c <_ZN20complex_dynamic_type3app17h66a4f243e82bff8eE+0x154>)
   23032:	2102      	movs	r1, #2
   23034:	2200      	movs	r2, #0
   23036:	4613      	mov	r3, r2
   23038:	2c04      	cmp	r4, #4
   2303a:	d10b      	bne.n	23054 <_ZN20complex_dynamic_type3app17h66a4f243e82bff8eE+0x14c>
   2303c:	df04      	svc	4
   2303e:	b01d      	add	sp, #116	@ 0x74
   23040:	bdf0      	pop	{r4, r5, r6, r7, pc}
   23042:	1c68      	adds	r0, r5, #1
   23044:	222e      	movs	r2, #46	@ 0x2e
   23046:	4621      	mov	r1, r4
   23048:	f008 f85c 	bl	2b104 <__aeabi_memcpy>
   2304c:	9801      	ldr	r0, [sp, #4]
   2304e:	7028      	strb	r0, [r5, #0]
   23050:	b01d      	add	sp, #116	@ 0x74
   23052:	bdf0      	pop	{r4, r5, r6, r7, pc}
   23054:	df03      	svc	3
   23056:	b01d      	add	sp, #116	@ 0x74
   23058:	bdf0      	pop	{r4, r5, r6, r7, pc}
   2305a:	46c0      	nop			@ (mov r8, r8)
   2305c:	00000209 	.word	0x00000209

00023060 <_ZN20complex_dynamic_type3app17h692df131b248e059E>:
   23060:	b5f0      	push	{r4, r5, r6, r7, lr}
   23062:	af03      	add	r7, sp, #12
   23064:	b09b      	sub	sp, #108	@ 0x6c
   23066:	9004      	str	r0, [sp, #16]
   23068:	a805      	add	r0, sp, #20
   2306a:	2402      	movs	r4, #2
   2306c:	7004      	strb	r4, [r0, #0]
   2306e:	1c40      	adds	r0, r0, #1
   23070:	9003      	str	r0, [sp, #12]
   23072:	252c      	movs	r5, #44	@ 0x2c
   23074:	462a      	mov	r2, r5
   23076:	f008 f845 	bl	2b104 <__aeabi_memcpy>
   2307a:	ae11      	add	r6, sp, #68	@ 0x44
   2307c:	1c70      	adds	r0, r6, #1
   2307e:	2125      	movs	r1, #37	@ 0x25
   23080:	9002      	str	r0, [sp, #8]
   23082:	f007 fe7f 	bl	2ad84 <__aeabi_memclr>
   23086:	9401      	str	r4, [sp, #4]
   23088:	7034      	strb	r4, [r6, #0]
   2308a:	484a      	ldr	r0, [pc, #296]	@ (231b4 <_ZN20complex_dynamic_type3app17h692df131b248e059E+0x154>)
   2308c:	2603      	movs	r6, #3
   2308e:	4631      	mov	r1, r6
   23090:	9a03      	ldr	r2, [sp, #12]
   23092:	462b      	mov	r3, r5
   23094:	df04      	svc	4
   23096:	2802      	cmp	r0, #2
   23098:	d104      	bne.n	230a4 <_ZN20complex_dynamic_type3app17h692df131b248e059E+0x44>
   2309a:	2001      	movs	r0, #1
   2309c:	9a04      	ldr	r2, [sp, #16]
   2309e:	7010      	strb	r0, [r2, #0]
   230a0:	6051      	str	r1, [r2, #4]
   230a2:	e02c      	b.n	230fe <_ZN20complex_dynamic_type3app17h692df131b248e059E+0x9e>
   230a4:	9d04      	ldr	r5, [sp, #16]
   230a6:	a805      	add	r0, sp, #20
   230a8:	2104      	movs	r1, #4
   230aa:	7001      	strb	r1, [r0, #0]
   230ac:	4841      	ldr	r0, [pc, #260]	@ (231b4 <_ZN20complex_dynamic_type3app17h692df131b248e059E+0x154>)
   230ae:	2100      	movs	r1, #0
   230b0:	2325      	movs	r3, #37	@ 0x25
   230b2:	9c02      	ldr	r4, [sp, #8]
   230b4:	4622      	mov	r2, r4
   230b6:	df03      	svc	3
   230b8:	2802      	cmp	r0, #2
   230ba:	d10e      	bne.n	230da <_ZN20complex_dynamic_type3app17h692df131b248e059E+0x7a>
   230bc:	2001      	movs	r0, #1
   230be:	7028      	strb	r0, [r5, #0]
   230c0:	6069      	str	r1, [r5, #4]
   230c2:	a811      	add	r0, sp, #68	@ 0x44
   230c4:	7800      	ldrb	r0, [r0, #0]
   230c6:	2802      	cmp	r0, #2
   230c8:	d019      	beq.n	230fe <_ZN20complex_dynamic_type3app17h692df131b248e059E+0x9e>
   230ca:	2803      	cmp	r0, #3
   230cc:	d012      	beq.n	230f4 <_ZN20complex_dynamic_type3app17h692df131b248e059E+0x94>
   230ce:	4839      	ldr	r0, [pc, #228]	@ (231b4 <_ZN20complex_dynamic_type3app17h692df131b248e059E+0x154>)
   230d0:	2100      	movs	r1, #0
   230d2:	460a      	mov	r2, r1
   230d4:	460b      	mov	r3, r1
   230d6:	df04      	svc	4
   230d8:	e011      	b.n	230fe <_ZN20complex_dynamic_type3app17h692df131b248e059E+0x9e>
   230da:	a811      	add	r0, sp, #68	@ 0x44
   230dc:	7006      	strb	r6, [r0, #0]
   230de:	4835      	ldr	r0, [pc, #212]	@ (231b4 <_ZN20complex_dynamic_type3app17h692df131b248e059E+0x154>)
   230e0:	2200      	movs	r2, #0
   230e2:	4631      	mov	r1, r6
   230e4:	9203      	str	r2, [sp, #12]
   230e6:	4613      	mov	r3, r2
   230e8:	df02      	svc	2
   230ea:	2880      	cmp	r0, #128	@ 0x80
   230ec:	d21b      	bcs.n	23126 <_ZN20complex_dynamic_type3app17h692df131b248e059E+0xc6>
   230ee:	2001      	movs	r0, #1
   230f0:	7028      	strb	r0, [r5, #0]
   230f2:	6069      	str	r1, [r5, #4]
   230f4:	482f      	ldr	r0, [pc, #188]	@ (231b4 <_ZN20complex_dynamic_type3app17h692df131b248e059E+0x154>)
   230f6:	2100      	movs	r1, #0
   230f8:	460a      	mov	r2, r1
   230fa:	460b      	mov	r3, r1
   230fc:	df03      	svc	3
   230fe:	a805      	add	r0, sp, #20
   23100:	7800      	ldrb	r0, [r0, #0]
   23102:	2802      	cmp	r0, #2
   23104:	d048      	beq.n	23198 <_ZN20complex_dynamic_type3app17h692df131b248e059E+0x138>
   23106:	2804      	cmp	r0, #4
   23108:	d106      	bne.n	23118 <_ZN20complex_dynamic_type3app17h692df131b248e059E+0xb8>
   2310a:	482a      	ldr	r0, [pc, #168]	@ (231b4 <_ZN20complex_dynamic_type3app17h692df131b248e059E+0x154>)
   2310c:	2103      	movs	r1, #3
   2310e:	2200      	movs	r2, #0
   23110:	4613      	mov	r3, r2
   23112:	df04      	svc	4
   23114:	b01b      	add	sp, #108	@ 0x6c
   23116:	bdf0      	pop	{r4, r5, r6, r7, pc}
   23118:	4826      	ldr	r0, [pc, #152]	@ (231b4 <_ZN20complex_dynamic_type3app17h692df131b248e059E+0x154>)
   2311a:	2103      	movs	r1, #3
   2311c:	2200      	movs	r2, #0
   2311e:	4613      	mov	r3, r2
   23120:	df03      	svc	3
   23122:	b01b      	add	sp, #108	@ 0x6c
   23124:	bdf0      	pop	{r4, r5, r6, r7, pc}
   23126:	a805      	add	r0, sp, #20
   23128:	7800      	ldrb	r0, [r0, #0]
   2312a:	2802      	cmp	r0, #2
   2312c:	d00c      	beq.n	23148 <_ZN20complex_dynamic_type3app17h692df131b248e059E+0xe8>
   2312e:	2803      	cmp	r0, #3
   23130:	d105      	bne.n	2313e <_ZN20complex_dynamic_type3app17h692df131b248e059E+0xde>
   23132:	4820      	ldr	r0, [pc, #128]	@ (231b4 <_ZN20complex_dynamic_type3app17h692df131b248e059E+0x154>)
   23134:	2103      	movs	r1, #3
   23136:	2200      	movs	r2, #0
   23138:	4613      	mov	r3, r2
   2313a:	df03      	svc	3
   2313c:	e004      	b.n	23148 <_ZN20complex_dynamic_type3app17h692df131b248e059E+0xe8>
   2313e:	481d      	ldr	r0, [pc, #116]	@ (231b4 <_ZN20complex_dynamic_type3app17h692df131b248e059E+0x154>)
   23140:	2103      	movs	r1, #3
   23142:	2200      	movs	r2, #0
   23144:	4613      	mov	r3, r2
   23146:	df04      	svc	4
   23148:	a805      	add	r0, sp, #20
   2314a:	9901      	ldr	r1, [sp, #4]
   2314c:	7001      	strb	r1, [r0, #0]
   2314e:	a811      	add	r0, sp, #68	@ 0x44
   23150:	7800      	ldrb	r0, [r0, #0]
   23152:	2804      	cmp	r0, #4
   23154:	d008      	beq.n	23168 <_ZN20complex_dynamic_type3app17h692df131b248e059E+0x108>
   23156:	2803      	cmp	r0, #3
   23158:	d120      	bne.n	2319c <_ZN20complex_dynamic_type3app17h692df131b248e059E+0x13c>
   2315a:	4626      	mov	r6, r4
   2315c:	4815      	ldr	r0, [pc, #84]	@ (231b4 <_ZN20complex_dynamic_type3app17h692df131b248e059E+0x154>)
   2315e:	2100      	movs	r1, #0
   23160:	460a      	mov	r2, r1
   23162:	460b      	mov	r3, r1
   23164:	df03      	svc	3
   23166:	e005      	b.n	23174 <_ZN20complex_dynamic_type3app17h692df131b248e059E+0x114>
   23168:	4626      	mov	r6, r4
   2316a:	4812      	ldr	r0, [pc, #72]	@ (231b4 <_ZN20complex_dynamic_type3app17h692df131b248e059E+0x154>)
   2316c:	2100      	movs	r1, #0
   2316e:	460a      	mov	r2, r1
   23170:	460b      	mov	r3, r1
   23172:	df04      	svc	4
   23174:	a805      	add	r0, sp, #20
   23176:	7804      	ldrb	r4, [r0, #0]
   23178:	1c68      	adds	r0, r5, #1
   2317a:	2225      	movs	r2, #37	@ 0x25
   2317c:	4631      	mov	r1, r6
   2317e:	f007 ffc1 	bl	2b104 <__aeabi_memcpy>
   23182:	9803      	ldr	r0, [sp, #12]
   23184:	7028      	strb	r0, [r5, #0]
   23186:	2c02      	cmp	r4, #2
   23188:	d006      	beq.n	23198 <_ZN20complex_dynamic_type3app17h692df131b248e059E+0x138>
   2318a:	480a      	ldr	r0, [pc, #40]	@ (231b4 <_ZN20complex_dynamic_type3app17h692df131b248e059E+0x154>)
   2318c:	2103      	movs	r1, #3
   2318e:	2200      	movs	r2, #0
   23190:	4613      	mov	r3, r2
   23192:	2c04      	cmp	r4, #4
   23194:	d10b      	bne.n	231ae <_ZN20complex_dynamic_type3app17h692df131b248e059E+0x14e>
   23196:	df04      	svc	4
   23198:	b01b      	add	sp, #108	@ 0x6c
   2319a:	bdf0      	pop	{r4, r5, r6, r7, pc}
   2319c:	1c68      	adds	r0, r5, #1
   2319e:	2225      	movs	r2, #37	@ 0x25
   231a0:	4621      	mov	r1, r4
   231a2:	f007 ffaf 	bl	2b104 <__aeabi_memcpy>
   231a6:	9803      	ldr	r0, [sp, #12]
   231a8:	7028      	strb	r0, [r5, #0]
   231aa:	b01b      	add	sp, #108	@ 0x6c
   231ac:	bdf0      	pop	{r4, r5, r6, r7, pc}
   231ae:	df03      	svc	3
   231b0:	b01b      	add	sp, #108	@ 0x6c
   231b2:	bdf0      	pop	{r4, r5, r6, r7, pc}
   231b4:	0000077f 	.word	0x0000077f

000231b8 <_ZN20complex_dynamic_type3app17h69a3c6ce973b664eE>:
   231b8:	b5f0      	push	{r4, r5, r6, r7, lr}
   231ba:	af03      	add	r7, sp, #12
   231bc:	b09d      	sub	sp, #116	@ 0x74
   231be:	9004      	str	r0, [sp, #16]
   231c0:	a805      	add	r0, sp, #20
   231c2:	2402      	movs	r4, #2
   231c4:	7004      	strb	r4, [r0, #0]
   231c6:	1c46      	adds	r6, r0, #1
   231c8:	223f      	movs	r2, #63	@ 0x3f
   231ca:	9203      	str	r2, [sp, #12]
   231cc:	4630      	mov	r0, r6
   231ce:	f007 ff99 	bl	2b104 <__aeabi_memcpy>
   231d2:	ad15      	add	r5, sp, #84	@ 0x54
   231d4:	1c68      	adds	r0, r5, #1
   231d6:	211c      	movs	r1, #28
   231d8:	9002      	str	r0, [sp, #8]
   231da:	f007 fdd3 	bl	2ad84 <__aeabi_memclr>
   231de:	9401      	str	r4, [sp, #4]
   231e0:	702c      	strb	r4, [r5, #0]
   231e2:	4848      	ldr	r0, [pc, #288]	@ (23304 <_ZN20complex_dynamic_type3app17h69a3c6ce973b664eE+0x14c>)
   231e4:	2105      	movs	r1, #5
   231e6:	4632      	mov	r2, r6
   231e8:	9b03      	ldr	r3, [sp, #12]
   231ea:	df04      	svc	4
   231ec:	2802      	cmp	r0, #2
   231ee:	d104      	bne.n	231fa <_ZN20complex_dynamic_type3app17h69a3c6ce973b664eE+0x42>
   231f0:	2001      	movs	r0, #1
   231f2:	9a04      	ldr	r2, [sp, #16]
   231f4:	7010      	strb	r0, [r2, #0]
   231f6:	6051      	str	r1, [r2, #4]
   231f8:	e02d      	b.n	23256 <_ZN20complex_dynamic_type3app17h69a3c6ce973b664eE+0x9e>
   231fa:	9d04      	ldr	r5, [sp, #16]
   231fc:	a805      	add	r0, sp, #20
   231fe:	2104      	movs	r1, #4
   23200:	7001      	strb	r1, [r0, #0]
   23202:	4840      	ldr	r0, [pc, #256]	@ (23304 <_ZN20complex_dynamic_type3app17h69a3c6ce973b664eE+0x14c>)
   23204:	2109      	movs	r1, #9
   23206:	231c      	movs	r3, #28
   23208:	9c02      	ldr	r4, [sp, #8]
   2320a:	4622      	mov	r2, r4
   2320c:	df03      	svc	3
   2320e:	2802      	cmp	r0, #2
   23210:	d10e      	bne.n	23230 <_ZN20complex_dynamic_type3app17h69a3c6ce973b664eE+0x78>
   23212:	2001      	movs	r0, #1
   23214:	7028      	strb	r0, [r5, #0]
   23216:	6069      	str	r1, [r5, #4]
   23218:	a815      	add	r0, sp, #84	@ 0x54
   2321a:	7800      	ldrb	r0, [r0, #0]
   2321c:	2802      	cmp	r0, #2
   2321e:	d01a      	beq.n	23256 <_ZN20complex_dynamic_type3app17h69a3c6ce973b664eE+0x9e>
   23220:	2803      	cmp	r0, #3
   23222:	d013      	beq.n	2324c <_ZN20complex_dynamic_type3app17h69a3c6ce973b664eE+0x94>
   23224:	4837      	ldr	r0, [pc, #220]	@ (23304 <_ZN20complex_dynamic_type3app17h69a3c6ce973b664eE+0x14c>)
   23226:	2109      	movs	r1, #9
   23228:	2200      	movs	r2, #0
   2322a:	4613      	mov	r3, r2
   2322c:	df04      	svc	4
   2322e:	e012      	b.n	23256 <_ZN20complex_dynamic_type3app17h69a3c6ce973b664eE+0x9e>
   23230:	a815      	add	r0, sp, #84	@ 0x54
   23232:	2103      	movs	r1, #3
   23234:	7001      	strb	r1, [r0, #0]
   23236:	4833      	ldr	r0, [pc, #204]	@ (23304 <_ZN20complex_dynamic_type3app17h69a3c6ce973b664eE+0x14c>)
   23238:	2105      	movs	r1, #5
   2323a:	2209      	movs	r2, #9
   2323c:	2600      	movs	r6, #0
   2323e:	4633      	mov	r3, r6
   23240:	df02      	svc	2
   23242:	2880      	cmp	r0, #128	@ 0x80
   23244:	d21b      	bcs.n	2327e <_ZN20complex_dynamic_type3app17h69a3c6ce973b664eE+0xc6>
   23246:	2001      	movs	r0, #1
   23248:	7028      	strb	r0, [r5, #0]
   2324a:	6069      	str	r1, [r5, #4]
   2324c:	482d      	ldr	r0, [pc, #180]	@ (23304 <_ZN20complex_dynamic_type3app17h69a3c6ce973b664eE+0x14c>)
   2324e:	2109      	movs	r1, #9
   23250:	2200      	movs	r2, #0
   23252:	4613      	mov	r3, r2
   23254:	df03      	svc	3
   23256:	a805      	add	r0, sp, #20
   23258:	7800      	ldrb	r0, [r0, #0]
   2325a:	2802      	cmp	r0, #2
   2325c:	d045      	beq.n	232ea <_ZN20complex_dynamic_type3app17h69a3c6ce973b664eE+0x132>
   2325e:	2804      	cmp	r0, #4
   23260:	d106      	bne.n	23270 <_ZN20complex_dynamic_type3app17h69a3c6ce973b664eE+0xb8>
   23262:	4828      	ldr	r0, [pc, #160]	@ (23304 <_ZN20complex_dynamic_type3app17h69a3c6ce973b664eE+0x14c>)
   23264:	2105      	movs	r1, #5
   23266:	2200      	movs	r2, #0
   23268:	4613      	mov	r3, r2
   2326a:	df04      	svc	4
   2326c:	b01d      	add	sp, #116	@ 0x74
   2326e:	bdf0      	pop	{r4, r5, r6, r7, pc}
   23270:	4824      	ldr	r0, [pc, #144]	@ (23304 <_ZN20complex_dynamic_type3app17h69a3c6ce973b664eE+0x14c>)
   23272:	2105      	movs	r1, #5
   23274:	2200      	movs	r2, #0
   23276:	4613      	mov	r3, r2
   23278:	df03      	svc	3
   2327a:	b01d      	add	sp, #116	@ 0x74
   2327c:	bdf0      	pop	{r4, r5, r6, r7, pc}
   2327e:	a805      	add	r0, sp, #20
   23280:	7800      	ldrb	r0, [r0, #0]
   23282:	2802      	cmp	r0, #2
   23284:	d00c      	beq.n	232a0 <_ZN20complex_dynamic_type3app17h69a3c6ce973b664eE+0xe8>
   23286:	2803      	cmp	r0, #3
   23288:	d105      	bne.n	23296 <_ZN20complex_dynamic_type3app17h69a3c6ce973b664eE+0xde>
   2328a:	481e      	ldr	r0, [pc, #120]	@ (23304 <_ZN20complex_dynamic_type3app17h69a3c6ce973b664eE+0x14c>)
   2328c:	2105      	movs	r1, #5
   2328e:	2200      	movs	r2, #0
   23290:	4613      	mov	r3, r2
   23292:	df03      	svc	3
   23294:	e004      	b.n	232a0 <_ZN20complex_dynamic_type3app17h69a3c6ce973b664eE+0xe8>
   23296:	481b      	ldr	r0, [pc, #108]	@ (23304 <_ZN20complex_dynamic_type3app17h69a3c6ce973b664eE+0x14c>)
   23298:	2105      	movs	r1, #5
   2329a:	2200      	movs	r2, #0
   2329c:	4613      	mov	r3, r2
   2329e:	df04      	svc	4
   232a0:	a805      	add	r0, sp, #20
   232a2:	9901      	ldr	r1, [sp, #4]
   232a4:	7001      	strb	r1, [r0, #0]
   232a6:	a815      	add	r0, sp, #84	@ 0x54
   232a8:	7800      	ldrb	r0, [r0, #0]
   232aa:	2804      	cmp	r0, #4
   232ac:	d007      	beq.n	232be <_ZN20complex_dynamic_type3app17h69a3c6ce973b664eE+0x106>
   232ae:	2803      	cmp	r0, #3
   232b0:	d11d      	bne.n	232ee <_ZN20complex_dynamic_type3app17h69a3c6ce973b664eE+0x136>
   232b2:	4814      	ldr	r0, [pc, #80]	@ (23304 <_ZN20complex_dynamic_type3app17h69a3c6ce973b664eE+0x14c>)
   232b4:	2109      	movs	r1, #9
   232b6:	2200      	movs	r2, #0
   232b8:	4613      	mov	r3, r2
   232ba:	df03      	svc	3
   232bc:	e004      	b.n	232c8 <_ZN20complex_dynamic_type3app17h69a3c6ce973b664eE+0x110>
   232be:	4811      	ldr	r0, [pc, #68]	@ (23304 <_ZN20complex_dynamic_type3app17h69a3c6ce973b664eE+0x14c>)
   232c0:	2109      	movs	r1, #9
   232c2:	2200      	movs	r2, #0
   232c4:	4613      	mov	r3, r2
   232c6:	df04      	svc	4
   232c8:	a805      	add	r0, sp, #20
   232ca:	7804      	ldrb	r4, [r0, #0]
   232cc:	1c68      	adds	r0, r5, #1
   232ce:	221c      	movs	r2, #28
   232d0:	9902      	ldr	r1, [sp, #8]
   232d2:	f007 ff17 	bl	2b104 <__aeabi_memcpy>
   232d6:	702e      	strb	r6, [r5, #0]
   232d8:	2c02      	cmp	r4, #2
   232da:	d006      	beq.n	232ea <_ZN20complex_dynamic_type3app17h69a3c6ce973b664eE+0x132>
   232dc:	4809      	ldr	r0, [pc, #36]	@ (23304 <_ZN20complex_dynamic_type3app17h69a3c6ce973b664eE+0x14c>)
   232de:	2105      	movs	r1, #5
   232e0:	2200      	movs	r2, #0
   232e2:	4613      	mov	r3, r2
   232e4:	2c04      	cmp	r4, #4
   232e6:	d10a      	bne.n	232fe <_ZN20complex_dynamic_type3app17h69a3c6ce973b664eE+0x146>
   232e8:	df04      	svc	4
   232ea:	b01d      	add	sp, #116	@ 0x74
   232ec:	bdf0      	pop	{r4, r5, r6, r7, pc}
   232ee:	1c68      	adds	r0, r5, #1
   232f0:	221c      	movs	r2, #28
   232f2:	4621      	mov	r1, r4
   232f4:	f007 ff06 	bl	2b104 <__aeabi_memcpy>
   232f8:	702e      	strb	r6, [r5, #0]
   232fa:	b01d      	add	sp, #116	@ 0x74
   232fc:	bdf0      	pop	{r4, r5, r6, r7, pc}
   232fe:	df03      	svc	3
   23300:	b01d      	add	sp, #116	@ 0x74
   23302:	bdf0      	pop	{r4, r5, r6, r7, pc}
   23304:	00001694 	.word	0x00001694

00023308 <_ZN20complex_dynamic_type3app17h6b64354e0f80e3dfE>:
   23308:	b5f0      	push	{r4, r5, r6, r7, lr}
   2330a:	af03      	add	r7, sp, #12
   2330c:	b0a1      	sub	sp, #132	@ 0x84
   2330e:	9002      	str	r0, [sp, #8]
   23310:	a803      	add	r0, sp, #12
   23312:	2602      	movs	r6, #2
   23314:	7006      	strb	r6, [r0, #0]
   23316:	1c40      	adds	r0, r0, #1
   23318:	9001      	str	r0, [sp, #4]
   2331a:	2521      	movs	r5, #33	@ 0x21
   2331c:	462a      	mov	r2, r5
   2331e:	f007 fef1 	bl	2b104 <__aeabi_memcpy>
   23322:	ac0c      	add	r4, sp, #48	@ 0x30
   23324:	1c60      	adds	r0, r4, #1
   23326:	2153      	movs	r1, #83	@ 0x53
   23328:	9000      	str	r0, [sp, #0]
   2332a:	f007 fd2b 	bl	2ad84 <__aeabi_memclr>
   2332e:	7026      	strb	r6, [r4, #0]
   23330:	484a      	ldr	r0, [pc, #296]	@ (2345c <_ZN20complex_dynamic_type3app17h6b64354e0f80e3dfE+0x154>)
   23332:	4631      	mov	r1, r6
   23334:	9a01      	ldr	r2, [sp, #4]
   23336:	462b      	mov	r3, r5
   23338:	df04      	svc	4
   2333a:	2802      	cmp	r0, #2
   2333c:	d104      	bne.n	23348 <_ZN20complex_dynamic_type3app17h6b64354e0f80e3dfE+0x40>
   2333e:	2001      	movs	r0, #1
   23340:	9a02      	ldr	r2, [sp, #8]
   23342:	7010      	strb	r0, [r2, #0]
   23344:	6051      	str	r1, [r2, #4]
   23346:	e02e      	b.n	233a6 <_ZN20complex_dynamic_type3app17h6b64354e0f80e3dfE+0x9e>
   23348:	9d02      	ldr	r5, [sp, #8]
   2334a:	a803      	add	r0, sp, #12
   2334c:	2104      	movs	r1, #4
   2334e:	7001      	strb	r1, [r0, #0]
   23350:	4842      	ldr	r0, [pc, #264]	@ (2345c <_ZN20complex_dynamic_type3app17h6b64354e0f80e3dfE+0x154>)
   23352:	2108      	movs	r1, #8
   23354:	2353      	movs	r3, #83	@ 0x53
   23356:	9c00      	ldr	r4, [sp, #0]
   23358:	4622      	mov	r2, r4
   2335a:	df03      	svc	3
   2335c:	2802      	cmp	r0, #2
   2335e:	d10e      	bne.n	2337e <_ZN20complex_dynamic_type3app17h6b64354e0f80e3dfE+0x76>
   23360:	2001      	movs	r0, #1
   23362:	7028      	strb	r0, [r5, #0]
   23364:	6069      	str	r1, [r5, #4]
   23366:	a80c      	add	r0, sp, #48	@ 0x30
   23368:	7800      	ldrb	r0, [r0, #0]
   2336a:	2802      	cmp	r0, #2
   2336c:	d01b      	beq.n	233a6 <_ZN20complex_dynamic_type3app17h6b64354e0f80e3dfE+0x9e>
   2336e:	2803      	cmp	r0, #3
   23370:	d014      	beq.n	2339c <_ZN20complex_dynamic_type3app17h6b64354e0f80e3dfE+0x94>
   23372:	483a      	ldr	r0, [pc, #232]	@ (2345c <_ZN20complex_dynamic_type3app17h6b64354e0f80e3dfE+0x154>)
   23374:	2108      	movs	r1, #8
   23376:	2200      	movs	r2, #0
   23378:	4613      	mov	r3, r2
   2337a:	df04      	svc	4
   2337c:	e013      	b.n	233a6 <_ZN20complex_dynamic_type3app17h6b64354e0f80e3dfE+0x9e>
   2337e:	a80c      	add	r0, sp, #48	@ 0x30
   23380:	2103      	movs	r1, #3
   23382:	7001      	strb	r1, [r0, #0]
   23384:	4835      	ldr	r0, [pc, #212]	@ (2345c <_ZN20complex_dynamic_type3app17h6b64354e0f80e3dfE+0x154>)
   23386:	2602      	movs	r6, #2
   23388:	2208      	movs	r2, #8
   2338a:	2300      	movs	r3, #0
   2338c:	4631      	mov	r1, r6
   2338e:	9301      	str	r3, [sp, #4]
   23390:	df02      	svc	2
   23392:	2880      	cmp	r0, #128	@ 0x80
   23394:	d21b      	bcs.n	233ce <_ZN20complex_dynamic_type3app17h6b64354e0f80e3dfE+0xc6>
   23396:	2001      	movs	r0, #1
   23398:	7028      	strb	r0, [r5, #0]
   2339a:	6069      	str	r1, [r5, #4]
   2339c:	482f      	ldr	r0, [pc, #188]	@ (2345c <_ZN20complex_dynamic_type3app17h6b64354e0f80e3dfE+0x154>)
   2339e:	2108      	movs	r1, #8
   233a0:	2200      	movs	r2, #0
   233a2:	4613      	mov	r3, r2
   233a4:	df03      	svc	3
   233a6:	a803      	add	r0, sp, #12
   233a8:	7800      	ldrb	r0, [r0, #0]
   233aa:	2802      	cmp	r0, #2
   233ac:	d047      	beq.n	2343e <_ZN20complex_dynamic_type3app17h6b64354e0f80e3dfE+0x136>
   233ae:	2804      	cmp	r0, #4
   233b0:	d106      	bne.n	233c0 <_ZN20complex_dynamic_type3app17h6b64354e0f80e3dfE+0xb8>
   233b2:	482a      	ldr	r0, [pc, #168]	@ (2345c <_ZN20complex_dynamic_type3app17h6b64354e0f80e3dfE+0x154>)
   233b4:	2102      	movs	r1, #2
   233b6:	2200      	movs	r2, #0
   233b8:	4613      	mov	r3, r2
   233ba:	df04      	svc	4
   233bc:	b021      	add	sp, #132	@ 0x84
   233be:	bdf0      	pop	{r4, r5, r6, r7, pc}
   233c0:	4826      	ldr	r0, [pc, #152]	@ (2345c <_ZN20complex_dynamic_type3app17h6b64354e0f80e3dfE+0x154>)
   233c2:	2102      	movs	r1, #2
   233c4:	2200      	movs	r2, #0
   233c6:	4613      	mov	r3, r2
   233c8:	df03      	svc	3
   233ca:	b021      	add	sp, #132	@ 0x84
   233cc:	bdf0      	pop	{r4, r5, r6, r7, pc}
   233ce:	a803      	add	r0, sp, #12
   233d0:	7800      	ldrb	r0, [r0, #0]
   233d2:	2802      	cmp	r0, #2
   233d4:	d00c      	beq.n	233f0 <_ZN20complex_dynamic_type3app17h6b64354e0f80e3dfE+0xe8>
   233d6:	2803      	cmp	r0, #3
   233d8:	d105      	bne.n	233e6 <_ZN20complex_dynamic_type3app17h6b64354e0f80e3dfE+0xde>
   233da:	4820      	ldr	r0, [pc, #128]	@ (2345c <_ZN20complex_dynamic_type3app17h6b64354e0f80e3dfE+0x154>)
   233dc:	2102      	movs	r1, #2
   233de:	2200      	movs	r2, #0
   233e0:	4613      	mov	r3, r2
   233e2:	df03      	svc	3
   233e4:	e004      	b.n	233f0 <_ZN20complex_dynamic_type3app17h6b64354e0f80e3dfE+0xe8>
   233e6:	481d      	ldr	r0, [pc, #116]	@ (2345c <_ZN20complex_dynamic_type3app17h6b64354e0f80e3dfE+0x154>)
   233e8:	2102      	movs	r1, #2
   233ea:	2200      	movs	r2, #0
   233ec:	4613      	mov	r3, r2
   233ee:	df04      	svc	4
   233f0:	a803      	add	r0, sp, #12
   233f2:	7006      	strb	r6, [r0, #0]
   233f4:	a80c      	add	r0, sp, #48	@ 0x30
   233f6:	7800      	ldrb	r0, [r0, #0]
   233f8:	2804      	cmp	r0, #4
   233fa:	d008      	beq.n	2340e <_ZN20complex_dynamic_type3app17h6b64354e0f80e3dfE+0x106>
   233fc:	2803      	cmp	r0, #3
   233fe:	d120      	bne.n	23442 <_ZN20complex_dynamic_type3app17h6b64354e0f80e3dfE+0x13a>
   23400:	4626      	mov	r6, r4
   23402:	4816      	ldr	r0, [pc, #88]	@ (2345c <_ZN20complex_dynamic_type3app17h6b64354e0f80e3dfE+0x154>)
   23404:	2108      	movs	r1, #8
   23406:	2200      	movs	r2, #0
   23408:	4613      	mov	r3, r2
   2340a:	df03      	svc	3
   2340c:	e005      	b.n	2341a <_ZN20complex_dynamic_type3app17h6b64354e0f80e3dfE+0x112>
   2340e:	4626      	mov	r6, r4
   23410:	4812      	ldr	r0, [pc, #72]	@ (2345c <_ZN20complex_dynamic_type3app17h6b64354e0f80e3dfE+0x154>)
   23412:	2108      	movs	r1, #8
   23414:	2200      	movs	r2, #0
   23416:	4613      	mov	r3, r2
   23418:	df04      	svc	4
   2341a:	a803      	add	r0, sp, #12
   2341c:	7804      	ldrb	r4, [r0, #0]
   2341e:	1c68      	adds	r0, r5, #1
   23420:	2253      	movs	r2, #83	@ 0x53
   23422:	4631      	mov	r1, r6
   23424:	f007 fe6e 	bl	2b104 <__aeabi_memcpy>
   23428:	9801      	ldr	r0, [sp, #4]
   2342a:	7028      	strb	r0, [r5, #0]
   2342c:	2c02      	cmp	r4, #2
   2342e:	d006      	beq.n	2343e <_ZN20complex_dynamic_type3app17h6b64354e0f80e3dfE+0x136>
   23430:	480a      	ldr	r0, [pc, #40]	@ (2345c <_ZN20complex_dynamic_type3app17h6b64354e0f80e3dfE+0x154>)
   23432:	2102      	movs	r1, #2
   23434:	2200      	movs	r2, #0
   23436:	4613      	mov	r3, r2
   23438:	2c04      	cmp	r4, #4
   2343a:	d10b      	bne.n	23454 <_ZN20complex_dynamic_type3app17h6b64354e0f80e3dfE+0x14c>
   2343c:	df04      	svc	4
   2343e:	b021      	add	sp, #132	@ 0x84
   23440:	bdf0      	pop	{r4, r5, r6, r7, pc}
   23442:	1c68      	adds	r0, r5, #1
   23444:	2253      	movs	r2, #83	@ 0x53
   23446:	4621      	mov	r1, r4
   23448:	f007 fe5c 	bl	2b104 <__aeabi_memcpy>
   2344c:	9801      	ldr	r0, [sp, #4]
   2344e:	7028      	strb	r0, [r5, #0]
   23450:	b021      	add	sp, #132	@ 0x84
   23452:	bdf0      	pop	{r4, r5, r6, r7, pc}
   23454:	df03      	svc	3
   23456:	b021      	add	sp, #132	@ 0x84
   23458:	bdf0      	pop	{r4, r5, r6, r7, pc}
   2345a:	46c0      	nop			@ (mov r8, r8)
   2345c:	0000253e 	.word	0x0000253e

00023460 <_ZN20complex_dynamic_type3app17h6dd61c27684e9d44E>:
   23460:	b5f0      	push	{r4, r5, r6, r7, lr}
   23462:	af03      	add	r7, sp, #12
   23464:	b09b      	sub	sp, #108	@ 0x6c
   23466:	9003      	str	r0, [sp, #12]
   23468:	a804      	add	r0, sp, #16
   2346a:	2402      	movs	r4, #2
   2346c:	7004      	strb	r4, [r0, #0]
   2346e:	1c40      	adds	r0, r0, #1
   23470:	9002      	str	r0, [sp, #8]
   23472:	252c      	movs	r5, #44	@ 0x2c
   23474:	462a      	mov	r2, r5
   23476:	f007 fe45 	bl	2b104 <__aeabi_memcpy>
   2347a:	ae10      	add	r6, sp, #64	@ 0x40
   2347c:	1c70      	adds	r0, r6, #1
   2347e:	212a      	movs	r1, #42	@ 0x2a
   23480:	9001      	str	r0, [sp, #4]
   23482:	f007 fc7f 	bl	2ad84 <__aeabi_memclr>
   23486:	9400      	str	r4, [sp, #0]
   23488:	7034      	strb	r4, [r6, #0]
   2348a:	484a      	ldr	r0, [pc, #296]	@ (235b4 <_ZN20complex_dynamic_type3app17h6dd61c27684e9d44E+0x154>)
   2348c:	2603      	movs	r6, #3
   2348e:	4631      	mov	r1, r6
   23490:	9a02      	ldr	r2, [sp, #8]
   23492:	462b      	mov	r3, r5
   23494:	df04      	svc	4
   23496:	2802      	cmp	r0, #2
   23498:	d104      	bne.n	234a4 <_ZN20complex_dynamic_type3app17h6dd61c27684e9d44E+0x44>
   2349a:	2001      	movs	r0, #1
   2349c:	9a03      	ldr	r2, [sp, #12]
   2349e:	7010      	strb	r0, [r2, #0]
   234a0:	6051      	str	r1, [r2, #4]
   234a2:	e02c      	b.n	234fe <_ZN20complex_dynamic_type3app17h6dd61c27684e9d44E+0x9e>
   234a4:	9d03      	ldr	r5, [sp, #12]
   234a6:	a804      	add	r0, sp, #16
   234a8:	2104      	movs	r1, #4
   234aa:	7001      	strb	r1, [r0, #0]
   234ac:	4841      	ldr	r0, [pc, #260]	@ (235b4 <_ZN20complex_dynamic_type3app17h6dd61c27684e9d44E+0x154>)
   234ae:	2100      	movs	r1, #0
   234b0:	232a      	movs	r3, #42	@ 0x2a
   234b2:	9c01      	ldr	r4, [sp, #4]
   234b4:	4622      	mov	r2, r4
   234b6:	df03      	svc	3
   234b8:	2802      	cmp	r0, #2
   234ba:	d10e      	bne.n	234da <_ZN20complex_dynamic_type3app17h6dd61c27684e9d44E+0x7a>
   234bc:	2001      	movs	r0, #1
   234be:	7028      	strb	r0, [r5, #0]
   234c0:	6069      	str	r1, [r5, #4]
   234c2:	a810      	add	r0, sp, #64	@ 0x40
   234c4:	7800      	ldrb	r0, [r0, #0]
   234c6:	2802      	cmp	r0, #2
   234c8:	d019      	beq.n	234fe <_ZN20complex_dynamic_type3app17h6dd61c27684e9d44E+0x9e>
   234ca:	2803      	cmp	r0, #3
   234cc:	d012      	beq.n	234f4 <_ZN20complex_dynamic_type3app17h6dd61c27684e9d44E+0x94>
   234ce:	4839      	ldr	r0, [pc, #228]	@ (235b4 <_ZN20complex_dynamic_type3app17h6dd61c27684e9d44E+0x154>)
   234d0:	2100      	movs	r1, #0
   234d2:	460a      	mov	r2, r1
   234d4:	460b      	mov	r3, r1
   234d6:	df04      	svc	4
   234d8:	e011      	b.n	234fe <_ZN20complex_dynamic_type3app17h6dd61c27684e9d44E+0x9e>
   234da:	a810      	add	r0, sp, #64	@ 0x40
   234dc:	7006      	strb	r6, [r0, #0]
   234de:	4835      	ldr	r0, [pc, #212]	@ (235b4 <_ZN20complex_dynamic_type3app17h6dd61c27684e9d44E+0x154>)
   234e0:	2200      	movs	r2, #0
   234e2:	4631      	mov	r1, r6
   234e4:	9202      	str	r2, [sp, #8]
   234e6:	4613      	mov	r3, r2
   234e8:	df02      	svc	2
   234ea:	2880      	cmp	r0, #128	@ 0x80
   234ec:	d21b      	bcs.n	23526 <_ZN20complex_dynamic_type3app17h6dd61c27684e9d44E+0xc6>
   234ee:	2001      	movs	r0, #1
   234f0:	7028      	strb	r0, [r5, #0]
   234f2:	6069      	str	r1, [r5, #4]
   234f4:	482f      	ldr	r0, [pc, #188]	@ (235b4 <_ZN20complex_dynamic_type3app17h6dd61c27684e9d44E+0x154>)
   234f6:	2100      	movs	r1, #0
   234f8:	460a      	mov	r2, r1
   234fa:	460b      	mov	r3, r1
   234fc:	df03      	svc	3
   234fe:	a804      	add	r0, sp, #16
   23500:	7800      	ldrb	r0, [r0, #0]
   23502:	2802      	cmp	r0, #2
   23504:	d048      	beq.n	23598 <_ZN20complex_dynamic_type3app17h6dd61c27684e9d44E+0x138>
   23506:	2804      	cmp	r0, #4
   23508:	d106      	bne.n	23518 <_ZN20complex_dynamic_type3app17h6dd61c27684e9d44E+0xb8>
   2350a:	482a      	ldr	r0, [pc, #168]	@ (235b4 <_ZN20complex_dynamic_type3app17h6dd61c27684e9d44E+0x154>)
   2350c:	2103      	movs	r1, #3
   2350e:	2200      	movs	r2, #0
   23510:	4613      	mov	r3, r2
   23512:	df04      	svc	4
   23514:	b01b      	add	sp, #108	@ 0x6c
   23516:	bdf0      	pop	{r4, r5, r6, r7, pc}
   23518:	4826      	ldr	r0, [pc, #152]	@ (235b4 <_ZN20complex_dynamic_type3app17h6dd61c27684e9d44E+0x154>)
   2351a:	2103      	movs	r1, #3
   2351c:	2200      	movs	r2, #0
   2351e:	4613      	mov	r3, r2
   23520:	df03      	svc	3
   23522:	b01b      	add	sp, #108	@ 0x6c
   23524:	bdf0      	pop	{r4, r5, r6, r7, pc}
   23526:	a804      	add	r0, sp, #16
   23528:	7800      	ldrb	r0, [r0, #0]
   2352a:	2802      	cmp	r0, #2
   2352c:	d00c      	beq.n	23548 <_ZN20complex_dynamic_type3app17h6dd61c27684e9d44E+0xe8>
   2352e:	2803      	cmp	r0, #3
   23530:	d105      	bne.n	2353e <_ZN20complex_dynamic_type3app17h6dd61c27684e9d44E+0xde>
   23532:	4820      	ldr	r0, [pc, #128]	@ (235b4 <_ZN20complex_dynamic_type3app17h6dd61c27684e9d44E+0x154>)
   23534:	2103      	movs	r1, #3
   23536:	2200      	movs	r2, #0
   23538:	4613      	mov	r3, r2
   2353a:	df03      	svc	3
   2353c:	e004      	b.n	23548 <_ZN20complex_dynamic_type3app17h6dd61c27684e9d44E+0xe8>
   2353e:	481d      	ldr	r0, [pc, #116]	@ (235b4 <_ZN20complex_dynamic_type3app17h6dd61c27684e9d44E+0x154>)
   23540:	2103      	movs	r1, #3
   23542:	2200      	movs	r2, #0
   23544:	4613      	mov	r3, r2
   23546:	df04      	svc	4
   23548:	a804      	add	r0, sp, #16
   2354a:	9900      	ldr	r1, [sp, #0]
   2354c:	7001      	strb	r1, [r0, #0]
   2354e:	a810      	add	r0, sp, #64	@ 0x40
   23550:	7800      	ldrb	r0, [r0, #0]
   23552:	2804      	cmp	r0, #4
   23554:	d008      	beq.n	23568 <_ZN20complex_dynamic_type3app17h6dd61c27684e9d44E+0x108>
   23556:	2803      	cmp	r0, #3
   23558:	d120      	bne.n	2359c <_ZN20complex_dynamic_type3app17h6dd61c27684e9d44E+0x13c>
   2355a:	4626      	mov	r6, r4
   2355c:	4815      	ldr	r0, [pc, #84]	@ (235b4 <_ZN20complex_dynamic_type3app17h6dd61c27684e9d44E+0x154>)
   2355e:	2100      	movs	r1, #0
   23560:	460a      	mov	r2, r1
   23562:	460b      	mov	r3, r1
   23564:	df03      	svc	3
   23566:	e005      	b.n	23574 <_ZN20complex_dynamic_type3app17h6dd61c27684e9d44E+0x114>
   23568:	4626      	mov	r6, r4
   2356a:	4812      	ldr	r0, [pc, #72]	@ (235b4 <_ZN20complex_dynamic_type3app17h6dd61c27684e9d44E+0x154>)
   2356c:	2100      	movs	r1, #0
   2356e:	460a      	mov	r2, r1
   23570:	460b      	mov	r3, r1
   23572:	df04      	svc	4
   23574:	a804      	add	r0, sp, #16
   23576:	7804      	ldrb	r4, [r0, #0]
   23578:	1c68      	adds	r0, r5, #1
   2357a:	222a      	movs	r2, #42	@ 0x2a
   2357c:	4631      	mov	r1, r6
   2357e:	f007 fdc1 	bl	2b104 <__aeabi_memcpy>
   23582:	9802      	ldr	r0, [sp, #8]
   23584:	7028      	strb	r0, [r5, #0]
   23586:	2c02      	cmp	r4, #2
   23588:	d006      	beq.n	23598 <_ZN20complex_dynamic_type3app17h6dd61c27684e9d44E+0x138>
   2358a:	480a      	ldr	r0, [pc, #40]	@ (235b4 <_ZN20complex_dynamic_type3app17h6dd61c27684e9d44E+0x154>)
   2358c:	2103      	movs	r1, #3
   2358e:	2200      	movs	r2, #0
   23590:	4613      	mov	r3, r2
   23592:	2c04      	cmp	r4, #4
   23594:	d10b      	bne.n	235ae <_ZN20complex_dynamic_type3app17h6dd61c27684e9d44E+0x14e>
   23596:	df04      	svc	4
   23598:	b01b      	add	sp, #108	@ 0x6c
   2359a:	bdf0      	pop	{r4, r5, r6, r7, pc}
   2359c:	1c68      	adds	r0, r5, #1
   2359e:	222a      	movs	r2, #42	@ 0x2a
   235a0:	4621      	mov	r1, r4
   235a2:	f007 fdaf 	bl	2b104 <__aeabi_memcpy>
   235a6:	9802      	ldr	r0, [sp, #8]
   235a8:	7028      	strb	r0, [r5, #0]
   235aa:	b01b      	add	sp, #108	@ 0x6c
   235ac:	bdf0      	pop	{r4, r5, r6, r7, pc}
   235ae:	df03      	svc	3
   235b0:	b01b      	add	sp, #108	@ 0x6c
   235b2:	bdf0      	pop	{r4, r5, r6, r7, pc}
   235b4:	000024f0 	.word	0x000024f0

000235b8 <_ZN20complex_dynamic_type3app17h6df73d05533f52d5E>:
   235b8:	b5f0      	push	{r4, r5, r6, r7, lr}
   235ba:	af03      	add	r7, sp, #12
   235bc:	b09f      	sub	sp, #124	@ 0x7c
   235be:	9002      	str	r0, [sp, #8]
   235c0:	a803      	add	r0, sp, #12
   235c2:	2602      	movs	r6, #2
   235c4:	7006      	strb	r6, [r0, #0]
   235c6:	1c40      	adds	r0, r0, #1
   235c8:	9001      	str	r0, [sp, #4]
   235ca:	2550      	movs	r5, #80	@ 0x50
   235cc:	462a      	mov	r2, r5
   235ce:	f007 fd99 	bl	2b104 <__aeabi_memcpy>
   235d2:	ac18      	add	r4, sp, #96	@ 0x60
   235d4:	1c60      	adds	r0, r4, #1
   235d6:	211b      	movs	r1, #27
   235d8:	9000      	str	r0, [sp, #0]
   235da:	f007 fbd3 	bl	2ad84 <__aeabi_memclr>
   235de:	7026      	strb	r6, [r4, #0]
   235e0:	4848      	ldr	r0, [pc, #288]	@ (23704 <_ZN20complex_dynamic_type3app17h6df73d05533f52d5E+0x14c>)
   235e2:	2601      	movs	r6, #1
   235e4:	4631      	mov	r1, r6
   235e6:	9a01      	ldr	r2, [sp, #4]
   235e8:	462b      	mov	r3, r5
   235ea:	df04      	svc	4
   235ec:	2802      	cmp	r0, #2
   235ee:	d103      	bne.n	235f8 <_ZN20complex_dynamic_type3app17h6df73d05533f52d5E+0x40>
   235f0:	9802      	ldr	r0, [sp, #8]
   235f2:	7006      	strb	r6, [r0, #0]
   235f4:	6041      	str	r1, [r0, #4]
   235f6:	e02c      	b.n	23652 <_ZN20complex_dynamic_type3app17h6df73d05533f52d5E+0x9a>
   235f8:	9d02      	ldr	r5, [sp, #8]
   235fa:	a803      	add	r0, sp, #12
   235fc:	2104      	movs	r1, #4
   235fe:	7001      	strb	r1, [r0, #0]
   23600:	4840      	ldr	r0, [pc, #256]	@ (23704 <_ZN20complex_dynamic_type3app17h6df73d05533f52d5E+0x14c>)
   23602:	2102      	movs	r1, #2
   23604:	231b      	movs	r3, #27
   23606:	9a00      	ldr	r2, [sp, #0]
   23608:	df03      	svc	3
   2360a:	2802      	cmp	r0, #2
   2360c:	d10d      	bne.n	2362a <_ZN20complex_dynamic_type3app17h6df73d05533f52d5E+0x72>
   2360e:	702e      	strb	r6, [r5, #0]
   23610:	6069      	str	r1, [r5, #4]
   23612:	a818      	add	r0, sp, #96	@ 0x60
   23614:	7800      	ldrb	r0, [r0, #0]
   23616:	2802      	cmp	r0, #2
   23618:	d01b      	beq.n	23652 <_ZN20complex_dynamic_type3app17h6df73d05533f52d5E+0x9a>
   2361a:	2803      	cmp	r0, #3
   2361c:	d014      	beq.n	23648 <_ZN20complex_dynamic_type3app17h6df73d05533f52d5E+0x90>
   2361e:	4839      	ldr	r0, [pc, #228]	@ (23704 <_ZN20complex_dynamic_type3app17h6df73d05533f52d5E+0x14c>)
   23620:	2102      	movs	r1, #2
   23622:	2200      	movs	r2, #0
   23624:	4613      	mov	r3, r2
   23626:	df04      	svc	4
   23628:	e013      	b.n	23652 <_ZN20complex_dynamic_type3app17h6df73d05533f52d5E+0x9a>
   2362a:	a818      	add	r0, sp, #96	@ 0x60
   2362c:	2103      	movs	r1, #3
   2362e:	7001      	strb	r1, [r0, #0]
   23630:	4834      	ldr	r0, [pc, #208]	@ (23704 <_ZN20complex_dynamic_type3app17h6df73d05533f52d5E+0x14c>)
   23632:	2401      	movs	r4, #1
   23634:	2602      	movs	r6, #2
   23636:	2300      	movs	r3, #0
   23638:	4621      	mov	r1, r4
   2363a:	4632      	mov	r2, r6
   2363c:	9301      	str	r3, [sp, #4]
   2363e:	df02      	svc	2
   23640:	2880      	cmp	r0, #128	@ 0x80
   23642:	d21a      	bcs.n	2367a <_ZN20complex_dynamic_type3app17h6df73d05533f52d5E+0xc2>
   23644:	702c      	strb	r4, [r5, #0]
   23646:	6069      	str	r1, [r5, #4]
   23648:	482e      	ldr	r0, [pc, #184]	@ (23704 <_ZN20complex_dynamic_type3app17h6df73d05533f52d5E+0x14c>)
   2364a:	2102      	movs	r1, #2
   2364c:	2200      	movs	r2, #0
   2364e:	4613      	mov	r3, r2
   23650:	df03      	svc	3
   23652:	a803      	add	r0, sp, #12
   23654:	7800      	ldrb	r0, [r0, #0]
   23656:	2802      	cmp	r0, #2
   23658:	d045      	beq.n	236e6 <_ZN20complex_dynamic_type3app17h6df73d05533f52d5E+0x12e>
   2365a:	2804      	cmp	r0, #4
   2365c:	d106      	bne.n	2366c <_ZN20complex_dynamic_type3app17h6df73d05533f52d5E+0xb4>
   2365e:	4829      	ldr	r0, [pc, #164]	@ (23704 <_ZN20complex_dynamic_type3app17h6df73d05533f52d5E+0x14c>)
   23660:	2101      	movs	r1, #1
   23662:	2200      	movs	r2, #0
   23664:	4613      	mov	r3, r2
   23666:	df04      	svc	4
   23668:	b01f      	add	sp, #124	@ 0x7c
   2366a:	bdf0      	pop	{r4, r5, r6, r7, pc}
   2366c:	4825      	ldr	r0, [pc, #148]	@ (23704 <_ZN20complex_dynamic_type3app17h6df73d05533f52d5E+0x14c>)
   2366e:	2101      	movs	r1, #1
   23670:	2200      	movs	r2, #0
   23672:	4613      	mov	r3, r2
   23674:	df03      	svc	3
   23676:	b01f      	add	sp, #124	@ 0x7c
   23678:	bdf0      	pop	{r4, r5, r6, r7, pc}
   2367a:	a803      	add	r0, sp, #12
   2367c:	7800      	ldrb	r0, [r0, #0]
   2367e:	2802      	cmp	r0, #2
   23680:	d00c      	beq.n	2369c <_ZN20complex_dynamic_type3app17h6df73d05533f52d5E+0xe4>
   23682:	2803      	cmp	r0, #3
   23684:	d105      	bne.n	23692 <_ZN20complex_dynamic_type3app17h6df73d05533f52d5E+0xda>
   23686:	481f      	ldr	r0, [pc, #124]	@ (23704 <_ZN20complex_dynamic_type3app17h6df73d05533f52d5E+0x14c>)
   23688:	2101      	movs	r1, #1
   2368a:	2200      	movs	r2, #0
   2368c:	4613      	mov	r3, r2
   2368e:	df03      	svc	3
   23690:	e004      	b.n	2369c <_ZN20complex_dynamic_type3app17h6df73d05533f52d5E+0xe4>
   23692:	481c      	ldr	r0, [pc, #112]	@ (23704 <_ZN20complex_dynamic_type3app17h6df73d05533f52d5E+0x14c>)
   23694:	2101      	movs	r1, #1
   23696:	2200      	movs	r2, #0
   23698:	4613      	mov	r3, r2
   2369a:	df04      	svc	4
   2369c:	a803      	add	r0, sp, #12
   2369e:	7006      	strb	r6, [r0, #0]
   236a0:	a818      	add	r0, sp, #96	@ 0x60
   236a2:	7800      	ldrb	r0, [r0, #0]
   236a4:	2804      	cmp	r0, #4
   236a6:	d007      	beq.n	236b8 <_ZN20complex_dynamic_type3app17h6df73d05533f52d5E+0x100>
   236a8:	2803      	cmp	r0, #3
   236aa:	d11e      	bne.n	236ea <_ZN20complex_dynamic_type3app17h6df73d05533f52d5E+0x132>
   236ac:	4815      	ldr	r0, [pc, #84]	@ (23704 <_ZN20complex_dynamic_type3app17h6df73d05533f52d5E+0x14c>)
   236ae:	2102      	movs	r1, #2
   236b0:	2200      	movs	r2, #0
   236b2:	4613      	mov	r3, r2
   236b4:	df03      	svc	3
   236b6:	e004      	b.n	236c2 <_ZN20complex_dynamic_type3app17h6df73d05533f52d5E+0x10a>
   236b8:	4812      	ldr	r0, [pc, #72]	@ (23704 <_ZN20complex_dynamic_type3app17h6df73d05533f52d5E+0x14c>)
   236ba:	2102      	movs	r1, #2
   236bc:	2200      	movs	r2, #0
   236be:	4613      	mov	r3, r2
   236c0:	df04      	svc	4
   236c2:	a803      	add	r0, sp, #12
   236c4:	7804      	ldrb	r4, [r0, #0]
   236c6:	1c68      	adds	r0, r5, #1
   236c8:	221b      	movs	r2, #27
   236ca:	9900      	ldr	r1, [sp, #0]
   236cc:	f007 fd1a 	bl	2b104 <__aeabi_memcpy>
   236d0:	9801      	ldr	r0, [sp, #4]
   236d2:	7028      	strb	r0, [r5, #0]
   236d4:	2c02      	cmp	r4, #2
   236d6:	d006      	beq.n	236e6 <_ZN20complex_dynamic_type3app17h6df73d05533f52d5E+0x12e>
   236d8:	480a      	ldr	r0, [pc, #40]	@ (23704 <_ZN20complex_dynamic_type3app17h6df73d05533f52d5E+0x14c>)
   236da:	2101      	movs	r1, #1
   236dc:	2200      	movs	r2, #0
   236de:	4613      	mov	r3, r2
   236e0:	2c04      	cmp	r4, #4
   236e2:	d10b      	bne.n	236fc <_ZN20complex_dynamic_type3app17h6df73d05533f52d5E+0x144>
   236e4:	df04      	svc	4
   236e6:	b01f      	add	sp, #124	@ 0x7c
   236e8:	bdf0      	pop	{r4, r5, r6, r7, pc}
   236ea:	9900      	ldr	r1, [sp, #0]
   236ec:	1c68      	adds	r0, r5, #1
   236ee:	221b      	movs	r2, #27
   236f0:	f007 fd08 	bl	2b104 <__aeabi_memcpy>
   236f4:	9801      	ldr	r0, [sp, #4]
   236f6:	7028      	strb	r0, [r5, #0]
   236f8:	b01f      	add	sp, #124	@ 0x7c
   236fa:	bdf0      	pop	{r4, r5, r6, r7, pc}
   236fc:	df03      	svc	3
   236fe:	b01f      	add	sp, #124	@ 0x7c
   23700:	bdf0      	pop	{r4, r5, r6, r7, pc}
   23702:	46c0      	nop			@ (mov r8, r8)
   23704:	000003d9 	.word	0x000003d9

00023708 <_ZN20complex_dynamic_type3app17h704c19e51a3f90bdE>:
   23708:	b5f0      	push	{r4, r5, r6, r7, lr}
   2370a:	af03      	add	r7, sp, #12
   2370c:	b08d      	sub	sp, #52	@ 0x34
   2370e:	9003      	str	r0, [sp, #12]
   23710:	a804      	add	r0, sp, #16
   23712:	2402      	movs	r4, #2
   23714:	7004      	strb	r4, [r0, #0]
   23716:	1c40      	adds	r0, r0, #1
   23718:	9002      	str	r0, [sp, #8]
   2371a:	250f      	movs	r5, #15
   2371c:	462a      	mov	r2, r5
   2371e:	f007 fcf1 	bl	2b104 <__aeabi_memcpy>
   23722:	ae08      	add	r6, sp, #32
   23724:	1c70      	adds	r0, r6, #1
   23726:	2113      	movs	r1, #19
   23728:	9001      	str	r0, [sp, #4]
   2372a:	f007 fb2b 	bl	2ad84 <__aeabi_memclr>
   2372e:	9400      	str	r4, [sp, #0]
   23730:	7034      	strb	r4, [r6, #0]
   23732:	484a      	ldr	r0, [pc, #296]	@ (2385c <_ZN20complex_dynamic_type3app17h704c19e51a3f90bdE+0x154>)
   23734:	2603      	movs	r6, #3
   23736:	4631      	mov	r1, r6
   23738:	9a02      	ldr	r2, [sp, #8]
   2373a:	462b      	mov	r3, r5
   2373c:	df04      	svc	4
   2373e:	2802      	cmp	r0, #2
   23740:	d104      	bne.n	2374c <_ZN20complex_dynamic_type3app17h704c19e51a3f90bdE+0x44>
   23742:	2001      	movs	r0, #1
   23744:	9a03      	ldr	r2, [sp, #12]
   23746:	7010      	strb	r0, [r2, #0]
   23748:	6051      	str	r1, [r2, #4]
   2374a:	e02c      	b.n	237a6 <_ZN20complex_dynamic_type3app17h704c19e51a3f90bdE+0x9e>
   2374c:	9d03      	ldr	r5, [sp, #12]
   2374e:	a804      	add	r0, sp, #16
   23750:	2104      	movs	r1, #4
   23752:	7001      	strb	r1, [r0, #0]
   23754:	4841      	ldr	r0, [pc, #260]	@ (2385c <_ZN20complex_dynamic_type3app17h704c19e51a3f90bdE+0x154>)
   23756:	2100      	movs	r1, #0
   23758:	2313      	movs	r3, #19
   2375a:	9c01      	ldr	r4, [sp, #4]
   2375c:	4622      	mov	r2, r4
   2375e:	df03      	svc	3
   23760:	2802      	cmp	r0, #2
   23762:	d10e      	bne.n	23782 <_ZN20complex_dynamic_type3app17h704c19e51a3f90bdE+0x7a>
   23764:	2001      	movs	r0, #1
   23766:	7028      	strb	r0, [r5, #0]
   23768:	6069      	str	r1, [r5, #4]
   2376a:	a808      	add	r0, sp, #32
   2376c:	7800      	ldrb	r0, [r0, #0]
   2376e:	2802      	cmp	r0, #2
   23770:	d019      	beq.n	237a6 <_ZN20complex_dynamic_type3app17h704c19e51a3f90bdE+0x9e>
   23772:	2803      	cmp	r0, #3
   23774:	d012      	beq.n	2379c <_ZN20complex_dynamic_type3app17h704c19e51a3f90bdE+0x94>
   23776:	4839      	ldr	r0, [pc, #228]	@ (2385c <_ZN20complex_dynamic_type3app17h704c19e51a3f90bdE+0x154>)
   23778:	2100      	movs	r1, #0
   2377a:	460a      	mov	r2, r1
   2377c:	460b      	mov	r3, r1
   2377e:	df04      	svc	4
   23780:	e011      	b.n	237a6 <_ZN20complex_dynamic_type3app17h704c19e51a3f90bdE+0x9e>
   23782:	a808      	add	r0, sp, #32
   23784:	7006      	strb	r6, [r0, #0]
   23786:	4835      	ldr	r0, [pc, #212]	@ (2385c <_ZN20complex_dynamic_type3app17h704c19e51a3f90bdE+0x154>)
   23788:	2200      	movs	r2, #0
   2378a:	4631      	mov	r1, r6
   2378c:	9202      	str	r2, [sp, #8]
   2378e:	4613      	mov	r3, r2
   23790:	df02      	svc	2
   23792:	2880      	cmp	r0, #128	@ 0x80
   23794:	d21b      	bcs.n	237ce <_ZN20complex_dynamic_type3app17h704c19e51a3f90bdE+0xc6>
   23796:	2001      	movs	r0, #1
   23798:	7028      	strb	r0, [r5, #0]
   2379a:	6069      	str	r1, [r5, #4]
   2379c:	482f      	ldr	r0, [pc, #188]	@ (2385c <_ZN20complex_dynamic_type3app17h704c19e51a3f90bdE+0x154>)
   2379e:	2100      	movs	r1, #0
   237a0:	460a      	mov	r2, r1
   237a2:	460b      	mov	r3, r1
   237a4:	df03      	svc	3
   237a6:	a804      	add	r0, sp, #16
   237a8:	7800      	ldrb	r0, [r0, #0]
   237aa:	2802      	cmp	r0, #2
   237ac:	d048      	beq.n	23840 <_ZN20complex_dynamic_type3app17h704c19e51a3f90bdE+0x138>
   237ae:	2804      	cmp	r0, #4
   237b0:	d106      	bne.n	237c0 <_ZN20complex_dynamic_type3app17h704c19e51a3f90bdE+0xb8>
   237b2:	482a      	ldr	r0, [pc, #168]	@ (2385c <_ZN20complex_dynamic_type3app17h704c19e51a3f90bdE+0x154>)
   237b4:	2103      	movs	r1, #3
   237b6:	2200      	movs	r2, #0
   237b8:	4613      	mov	r3, r2
   237ba:	df04      	svc	4
   237bc:	b00d      	add	sp, #52	@ 0x34
   237be:	bdf0      	pop	{r4, r5, r6, r7, pc}
   237c0:	4826      	ldr	r0, [pc, #152]	@ (2385c <_ZN20complex_dynamic_type3app17h704c19e51a3f90bdE+0x154>)
   237c2:	2103      	movs	r1, #3
   237c4:	2200      	movs	r2, #0
   237c6:	4613      	mov	r3, r2
   237c8:	df03      	svc	3
   237ca:	b00d      	add	sp, #52	@ 0x34
   237cc:	bdf0      	pop	{r4, r5, r6, r7, pc}
   237ce:	a804      	add	r0, sp, #16
   237d0:	7800      	ldrb	r0, [r0, #0]
   237d2:	2802      	cmp	r0, #2
   237d4:	d00c      	beq.n	237f0 <_ZN20complex_dynamic_type3app17h704c19e51a3f90bdE+0xe8>
   237d6:	2803      	cmp	r0, #3
   237d8:	d105      	bne.n	237e6 <_ZN20complex_dynamic_type3app17h704c19e51a3f90bdE+0xde>
   237da:	4820      	ldr	r0, [pc, #128]	@ (2385c <_ZN20complex_dynamic_type3app17h704c19e51a3f90bdE+0x154>)
   237dc:	2103      	movs	r1, #3
   237de:	2200      	movs	r2, #0
   237e0:	4613      	mov	r3, r2
   237e2:	df03      	svc	3
   237e4:	e004      	b.n	237f0 <_ZN20complex_dynamic_type3app17h704c19e51a3f90bdE+0xe8>
   237e6:	481d      	ldr	r0, [pc, #116]	@ (2385c <_ZN20complex_dynamic_type3app17h704c19e51a3f90bdE+0x154>)
   237e8:	2103      	movs	r1, #3
   237ea:	2200      	movs	r2, #0
   237ec:	4613      	mov	r3, r2
   237ee:	df04      	svc	4
   237f0:	a804      	add	r0, sp, #16
   237f2:	9900      	ldr	r1, [sp, #0]
   237f4:	7001      	strb	r1, [r0, #0]
   237f6:	a808      	add	r0, sp, #32
   237f8:	7800      	ldrb	r0, [r0, #0]
   237fa:	2804      	cmp	r0, #4
   237fc:	d008      	beq.n	23810 <_ZN20complex_dynamic_type3app17h704c19e51a3f90bdE+0x108>
   237fe:	2803      	cmp	r0, #3
   23800:	d120      	bne.n	23844 <_ZN20complex_dynamic_type3app17h704c19e51a3f90bdE+0x13c>
   23802:	4626      	mov	r6, r4
   23804:	4815      	ldr	r0, [pc, #84]	@ (2385c <_ZN20complex_dynamic_type3app17h704c19e51a3f90bdE+0x154>)
   23806:	2100      	movs	r1, #0
   23808:	460a      	mov	r2, r1
   2380a:	460b      	mov	r3, r1
   2380c:	df03      	svc	3
   2380e:	e005      	b.n	2381c <_ZN20complex_dynamic_type3app17h704c19e51a3f90bdE+0x114>
   23810:	4626      	mov	r6, r4
   23812:	4812      	ldr	r0, [pc, #72]	@ (2385c <_ZN20complex_dynamic_type3app17h704c19e51a3f90bdE+0x154>)
   23814:	2100      	movs	r1, #0
   23816:	460a      	mov	r2, r1
   23818:	460b      	mov	r3, r1
   2381a:	df04      	svc	4
   2381c:	a804      	add	r0, sp, #16
   2381e:	7804      	ldrb	r4, [r0, #0]
   23820:	1c68      	adds	r0, r5, #1
   23822:	2213      	movs	r2, #19
   23824:	4631      	mov	r1, r6
   23826:	f007 fc6d 	bl	2b104 <__aeabi_memcpy>
   2382a:	9802      	ldr	r0, [sp, #8]
   2382c:	7028      	strb	r0, [r5, #0]
   2382e:	2c02      	cmp	r4, #2
   23830:	d006      	beq.n	23840 <_ZN20complex_dynamic_type3app17h704c19e51a3f90bdE+0x138>
   23832:	480a      	ldr	r0, [pc, #40]	@ (2385c <_ZN20complex_dynamic_type3app17h704c19e51a3f90bdE+0x154>)
   23834:	2103      	movs	r1, #3
   23836:	2200      	movs	r2, #0
   23838:	4613      	mov	r3, r2
   2383a:	2c04      	cmp	r4, #4
   2383c:	d10b      	bne.n	23856 <_ZN20complex_dynamic_type3app17h704c19e51a3f90bdE+0x14e>
   2383e:	df04      	svc	4
   23840:	b00d      	add	sp, #52	@ 0x34
   23842:	bdf0      	pop	{r4, r5, r6, r7, pc}
   23844:	1c68      	adds	r0, r5, #1
   23846:	2213      	movs	r2, #19
   23848:	4621      	mov	r1, r4
   2384a:	f007 fc5b 	bl	2b104 <__aeabi_memcpy>
   2384e:	9802      	ldr	r0, [sp, #8]
   23850:	7028      	strb	r0, [r5, #0]
   23852:	b00d      	add	sp, #52	@ 0x34
   23854:	bdf0      	pop	{r4, r5, r6, r7, pc}
   23856:	df03      	svc	3
   23858:	b00d      	add	sp, #52	@ 0x34
   2385a:	bdf0      	pop	{r4, r5, r6, r7, pc}
   2385c:	00001e4b 	.word	0x00001e4b

00023860 <_ZN20complex_dynamic_type3app17h70d996df3f403f45E>:
   23860:	b5f0      	push	{r4, r5, r6, r7, lr}
   23862:	af03      	add	r7, sp, #12
   23864:	b0a1      	sub	sp, #132	@ 0x84
   23866:	9003      	str	r0, [sp, #12]
   23868:	a804      	add	r0, sp, #16
   2386a:	2502      	movs	r5, #2
   2386c:	7005      	strb	r5, [r0, #0]
   2386e:	1c46      	adds	r6, r0, #1
   23870:	225d      	movs	r2, #93	@ 0x5d
   23872:	9202      	str	r2, [sp, #8]
   23874:	4630      	mov	r0, r6
   23876:	f007 fc45 	bl	2b104 <__aeabi_memcpy>
   2387a:	ac1c      	add	r4, sp, #112	@ 0x70
   2387c:	1c60      	adds	r0, r4, #1
   2387e:	2112      	movs	r1, #18
   23880:	9001      	str	r0, [sp, #4]
   23882:	f007 fa7f 	bl	2ad84 <__aeabi_memclr>
   23886:	7025      	strb	r5, [r4, #0]
   23888:	484a      	ldr	r0, [pc, #296]	@ (239b4 <_ZN20complex_dynamic_type3app17h70d996df3f403f45E+0x154>)
   2388a:	2100      	movs	r1, #0
   2388c:	4632      	mov	r2, r6
   2388e:	9b02      	ldr	r3, [sp, #8]
   23890:	df04      	svc	4
   23892:	2802      	cmp	r0, #2
   23894:	d104      	bne.n	238a0 <_ZN20complex_dynamic_type3app17h70d996df3f403f45E+0x40>
   23896:	2001      	movs	r0, #1
   23898:	9a03      	ldr	r2, [sp, #12]
   2389a:	7010      	strb	r0, [r2, #0]
   2389c:	6051      	str	r1, [r2, #4]
   2389e:	e02e      	b.n	238fe <_ZN20complex_dynamic_type3app17h70d996df3f403f45E+0x9e>
   238a0:	9d03      	ldr	r5, [sp, #12]
   238a2:	a804      	add	r0, sp, #16
   238a4:	2104      	movs	r1, #4
   238a6:	7001      	strb	r1, [r0, #0]
   238a8:	4842      	ldr	r0, [pc, #264]	@ (239b4 <_ZN20complex_dynamic_type3app17h70d996df3f403f45E+0x154>)
   238aa:	2102      	movs	r1, #2
   238ac:	2312      	movs	r3, #18
   238ae:	9c01      	ldr	r4, [sp, #4]
   238b0:	4622      	mov	r2, r4
   238b2:	df03      	svc	3
   238b4:	2802      	cmp	r0, #2
   238b6:	d10e      	bne.n	238d6 <_ZN20complex_dynamic_type3app17h70d996df3f403f45E+0x76>
   238b8:	2001      	movs	r0, #1
   238ba:	7028      	strb	r0, [r5, #0]
   238bc:	6069      	str	r1, [r5, #4]
   238be:	a81c      	add	r0, sp, #112	@ 0x70
   238c0:	7800      	ldrb	r0, [r0, #0]
   238c2:	2802      	cmp	r0, #2
   238c4:	d01b      	beq.n	238fe <_ZN20complex_dynamic_type3app17h70d996df3f403f45E+0x9e>
   238c6:	2803      	cmp	r0, #3
   238c8:	d014      	beq.n	238f4 <_ZN20complex_dynamic_type3app17h70d996df3f403f45E+0x94>
   238ca:	483a      	ldr	r0, [pc, #232]	@ (239b4 <_ZN20complex_dynamic_type3app17h70d996df3f403f45E+0x154>)
   238cc:	2102      	movs	r1, #2
   238ce:	2200      	movs	r2, #0
   238d0:	4613      	mov	r3, r2
   238d2:	df04      	svc	4
   238d4:	e013      	b.n	238fe <_ZN20complex_dynamic_type3app17h70d996df3f403f45E+0x9e>
   238d6:	a81c      	add	r0, sp, #112	@ 0x70
   238d8:	2103      	movs	r1, #3
   238da:	7001      	strb	r1, [r0, #0]
   238dc:	4835      	ldr	r0, [pc, #212]	@ (239b4 <_ZN20complex_dynamic_type3app17h70d996df3f403f45E+0x154>)
   238de:	2602      	movs	r6, #2
   238e0:	2100      	movs	r1, #0
   238e2:	4632      	mov	r2, r6
   238e4:	9102      	str	r1, [sp, #8]
   238e6:	460b      	mov	r3, r1
   238e8:	df02      	svc	2
   238ea:	2880      	cmp	r0, #128	@ 0x80
   238ec:	d21b      	bcs.n	23926 <_ZN20complex_dynamic_type3app17h70d996df3f403f45E+0xc6>
   238ee:	2001      	movs	r0, #1
   238f0:	7028      	strb	r0, [r5, #0]
   238f2:	6069      	str	r1, [r5, #4]
   238f4:	482f      	ldr	r0, [pc, #188]	@ (239b4 <_ZN20complex_dynamic_type3app17h70d996df3f403f45E+0x154>)
   238f6:	2102      	movs	r1, #2
   238f8:	2200      	movs	r2, #0
   238fa:	4613      	mov	r3, r2
   238fc:	df03      	svc	3
   238fe:	a804      	add	r0, sp, #16
   23900:	7800      	ldrb	r0, [r0, #0]
   23902:	2802      	cmp	r0, #2
   23904:	d047      	beq.n	23996 <_ZN20complex_dynamic_type3app17h70d996df3f403f45E+0x136>
   23906:	2804      	cmp	r0, #4
   23908:	d106      	bne.n	23918 <_ZN20complex_dynamic_type3app17h70d996df3f403f45E+0xb8>
   2390a:	482a      	ldr	r0, [pc, #168]	@ (239b4 <_ZN20complex_dynamic_type3app17h70d996df3f403f45E+0x154>)
   2390c:	2100      	movs	r1, #0
   2390e:	460a      	mov	r2, r1
   23910:	460b      	mov	r3, r1
   23912:	df04      	svc	4
   23914:	b021      	add	sp, #132	@ 0x84
   23916:	bdf0      	pop	{r4, r5, r6, r7, pc}
   23918:	4826      	ldr	r0, [pc, #152]	@ (239b4 <_ZN20complex_dynamic_type3app17h70d996df3f403f45E+0x154>)
   2391a:	2100      	movs	r1, #0
   2391c:	460a      	mov	r2, r1
   2391e:	460b      	mov	r3, r1
   23920:	df03      	svc	3
   23922:	b021      	add	sp, #132	@ 0x84
   23924:	bdf0      	pop	{r4, r5, r6, r7, pc}
   23926:	a804      	add	r0, sp, #16
   23928:	7800      	ldrb	r0, [r0, #0]
   2392a:	2802      	cmp	r0, #2
   2392c:	d00c      	beq.n	23948 <_ZN20complex_dynamic_type3app17h70d996df3f403f45E+0xe8>
   2392e:	2803      	cmp	r0, #3
   23930:	d105      	bne.n	2393e <_ZN20complex_dynamic_type3app17h70d996df3f403f45E+0xde>
   23932:	4820      	ldr	r0, [pc, #128]	@ (239b4 <_ZN20complex_dynamic_type3app17h70d996df3f403f45E+0x154>)
   23934:	2100      	movs	r1, #0
   23936:	460a      	mov	r2, r1
   23938:	460b      	mov	r3, r1
   2393a:	df03      	svc	3
   2393c:	e004      	b.n	23948 <_ZN20complex_dynamic_type3app17h70d996df3f403f45E+0xe8>
   2393e:	481d      	ldr	r0, [pc, #116]	@ (239b4 <_ZN20complex_dynamic_type3app17h70d996df3f403f45E+0x154>)
   23940:	2100      	movs	r1, #0
   23942:	460a      	mov	r2, r1
   23944:	460b      	mov	r3, r1
   23946:	df04      	svc	4
   23948:	a804      	add	r0, sp, #16
   2394a:	7006      	strb	r6, [r0, #0]
   2394c:	a81c      	add	r0, sp, #112	@ 0x70
   2394e:	7800      	ldrb	r0, [r0, #0]
   23950:	2804      	cmp	r0, #4
   23952:	d008      	beq.n	23966 <_ZN20complex_dynamic_type3app17h70d996df3f403f45E+0x106>
   23954:	2803      	cmp	r0, #3
   23956:	d120      	bne.n	2399a <_ZN20complex_dynamic_type3app17h70d996df3f403f45E+0x13a>
   23958:	4626      	mov	r6, r4
   2395a:	4816      	ldr	r0, [pc, #88]	@ (239b4 <_ZN20complex_dynamic_type3app17h70d996df3f403f45E+0x154>)
   2395c:	2102      	movs	r1, #2
   2395e:	2200      	movs	r2, #0
   23960:	4613      	mov	r3, r2
   23962:	df03      	svc	3
   23964:	e005      	b.n	23972 <_ZN20complex_dynamic_type3app17h70d996df3f403f45E+0x112>
   23966:	4626      	mov	r6, r4
   23968:	4812      	ldr	r0, [pc, #72]	@ (239b4 <_ZN20complex_dynamic_type3app17h70d996df3f403f45E+0x154>)
   2396a:	2102      	movs	r1, #2
   2396c:	2200      	movs	r2, #0
   2396e:	4613      	mov	r3, r2
   23970:	df04      	svc	4
   23972:	a804      	add	r0, sp, #16
   23974:	7804      	ldrb	r4, [r0, #0]
   23976:	1c68      	adds	r0, r5, #1
   23978:	2212      	movs	r2, #18
   2397a:	4631      	mov	r1, r6
   2397c:	f007 fbc2 	bl	2b104 <__aeabi_memcpy>
   23980:	9802      	ldr	r0, [sp, #8]
   23982:	7028      	strb	r0, [r5, #0]
   23984:	2c02      	cmp	r4, #2
   23986:	d006      	beq.n	23996 <_ZN20complex_dynamic_type3app17h70d996df3f403f45E+0x136>
   23988:	480a      	ldr	r0, [pc, #40]	@ (239b4 <_ZN20complex_dynamic_type3app17h70d996df3f403f45E+0x154>)
   2398a:	2100      	movs	r1, #0
   2398c:	460a      	mov	r2, r1
   2398e:	460b      	mov	r3, r1
   23990:	2c04      	cmp	r4, #4
   23992:	d10b      	bne.n	239ac <_ZN20complex_dynamic_type3app17h70d996df3f403f45E+0x14c>
   23994:	df04      	svc	4
   23996:	b021      	add	sp, #132	@ 0x84
   23998:	bdf0      	pop	{r4, r5, r6, r7, pc}
   2399a:	1c68      	adds	r0, r5, #1
   2399c:	2212      	movs	r2, #18
   2399e:	4621      	mov	r1, r4
   239a0:	f007 fbb0 	bl	2b104 <__aeabi_memcpy>
   239a4:	9802      	ldr	r0, [sp, #8]
   239a6:	7028      	strb	r0, [r5, #0]
   239a8:	b021      	add	sp, #132	@ 0x84
   239aa:	bdf0      	pop	{r4, r5, r6, r7, pc}
   239ac:	df03      	svc	3
   239ae:	b021      	add	sp, #132	@ 0x84
   239b0:	bdf0      	pop	{r4, r5, r6, r7, pc}
   239b2:	46c0      	nop			@ (mov r8, r8)
   239b4:	000015f1 	.word	0x000015f1

000239b8 <_ZN20complex_dynamic_type3app17h70f444bad8bc60b5E>:
   239b8:	b5f0      	push	{r4, r5, r6, r7, lr}
   239ba:	af03      	add	r7, sp, #12
   239bc:	b097      	sub	sp, #92	@ 0x5c
   239be:	9003      	str	r0, [sp, #12]
   239c0:	a804      	add	r0, sp, #16
   239c2:	2402      	movs	r4, #2
   239c4:	7004      	strb	r4, [r0, #0]
   239c6:	1c46      	adds	r6, r0, #1
   239c8:	2223      	movs	r2, #35	@ 0x23
   239ca:	9202      	str	r2, [sp, #8]
   239cc:	4630      	mov	r0, r6
   239ce:	f007 fb99 	bl	2b104 <__aeabi_memcpy>
   239d2:	ad0d      	add	r5, sp, #52	@ 0x34
   239d4:	1c68      	adds	r0, r5, #1
   239d6:	2124      	movs	r1, #36	@ 0x24
   239d8:	9001      	str	r0, [sp, #4]
   239da:	f007 f9d3 	bl	2ad84 <__aeabi_memclr>
   239de:	9400      	str	r4, [sp, #0]
   239e0:	702c      	strb	r4, [r5, #0]
   239e2:	4848      	ldr	r0, [pc, #288]	@ (23b04 <_ZN20complex_dynamic_type3app17h70f444bad8bc60b5E+0x14c>)
   239e4:	2504      	movs	r5, #4
   239e6:	4629      	mov	r1, r5
   239e8:	4632      	mov	r2, r6
   239ea:	9b02      	ldr	r3, [sp, #8]
   239ec:	df04      	svc	4
   239ee:	2802      	cmp	r0, #2
   239f0:	d104      	bne.n	239fc <_ZN20complex_dynamic_type3app17h70f444bad8bc60b5E+0x44>
   239f2:	2001      	movs	r0, #1
   239f4:	9a03      	ldr	r2, [sp, #12]
   239f6:	7010      	strb	r0, [r2, #0]
   239f8:	6051      	str	r1, [r2, #4]
   239fa:	e02c      	b.n	23a56 <_ZN20complex_dynamic_type3app17h70f444bad8bc60b5E+0x9e>
   239fc:	9c03      	ldr	r4, [sp, #12]
   239fe:	a804      	add	r0, sp, #16
   23a00:	7005      	strb	r5, [r0, #0]
   23a02:	4840      	ldr	r0, [pc, #256]	@ (23b04 <_ZN20complex_dynamic_type3app17h70f444bad8bc60b5E+0x14c>)
   23a04:	2108      	movs	r1, #8
   23a06:	2324      	movs	r3, #36	@ 0x24
   23a08:	9a01      	ldr	r2, [sp, #4]
   23a0a:	df03      	svc	3
   23a0c:	2802      	cmp	r0, #2
   23a0e:	d10e      	bne.n	23a2e <_ZN20complex_dynamic_type3app17h70f444bad8bc60b5E+0x76>
   23a10:	2001      	movs	r0, #1
   23a12:	7020      	strb	r0, [r4, #0]
   23a14:	6061      	str	r1, [r4, #4]
   23a16:	a80d      	add	r0, sp, #52	@ 0x34
   23a18:	7800      	ldrb	r0, [r0, #0]
   23a1a:	2802      	cmp	r0, #2
   23a1c:	d01b      	beq.n	23a56 <_ZN20complex_dynamic_type3app17h70f444bad8bc60b5E+0x9e>
   23a1e:	2803      	cmp	r0, #3
   23a20:	d014      	beq.n	23a4c <_ZN20complex_dynamic_type3app17h70f444bad8bc60b5E+0x94>
   23a22:	4838      	ldr	r0, [pc, #224]	@ (23b04 <_ZN20complex_dynamic_type3app17h70f444bad8bc60b5E+0x14c>)
   23a24:	2108      	movs	r1, #8
   23a26:	2200      	movs	r2, #0
   23a28:	4613      	mov	r3, r2
   23a2a:	df04      	svc	4
   23a2c:	e013      	b.n	23a56 <_ZN20complex_dynamic_type3app17h70f444bad8bc60b5E+0x9e>
   23a2e:	a80d      	add	r0, sp, #52	@ 0x34
   23a30:	2103      	movs	r1, #3
   23a32:	7001      	strb	r1, [r0, #0]
   23a34:	4833      	ldr	r0, [pc, #204]	@ (23b04 <_ZN20complex_dynamic_type3app17h70f444bad8bc60b5E+0x14c>)
   23a36:	2104      	movs	r1, #4
   23a38:	2208      	movs	r2, #8
   23a3a:	2600      	movs	r6, #0
   23a3c:	4633      	mov	r3, r6
   23a3e:	df02      	svc	2
   23a40:	2880      	cmp	r0, #128	@ 0x80
   23a42:	4625      	mov	r5, r4
   23a44:	d21b      	bcs.n	23a7e <_ZN20complex_dynamic_type3app17h70f444bad8bc60b5E+0xc6>
   23a46:	2001      	movs	r0, #1
   23a48:	7028      	strb	r0, [r5, #0]
   23a4a:	6069      	str	r1, [r5, #4]
   23a4c:	482d      	ldr	r0, [pc, #180]	@ (23b04 <_ZN20complex_dynamic_type3app17h70f444bad8bc60b5E+0x14c>)
   23a4e:	2108      	movs	r1, #8
   23a50:	2200      	movs	r2, #0
   23a52:	4613      	mov	r3, r2
   23a54:	df03      	svc	3
   23a56:	a804      	add	r0, sp, #16
   23a58:	7800      	ldrb	r0, [r0, #0]
   23a5a:	2802      	cmp	r0, #2
   23a5c:	d045      	beq.n	23aea <_ZN20complex_dynamic_type3app17h70f444bad8bc60b5E+0x132>
   23a5e:	2804      	cmp	r0, #4
   23a60:	d106      	bne.n	23a70 <_ZN20complex_dynamic_type3app17h70f444bad8bc60b5E+0xb8>
   23a62:	4828      	ldr	r0, [pc, #160]	@ (23b04 <_ZN20complex_dynamic_type3app17h70f444bad8bc60b5E+0x14c>)
   23a64:	2104      	movs	r1, #4
   23a66:	2200      	movs	r2, #0
   23a68:	4613      	mov	r3, r2
   23a6a:	df04      	svc	4
   23a6c:	b017      	add	sp, #92	@ 0x5c
   23a6e:	bdf0      	pop	{r4, r5, r6, r7, pc}
   23a70:	4824      	ldr	r0, [pc, #144]	@ (23b04 <_ZN20complex_dynamic_type3app17h70f444bad8bc60b5E+0x14c>)
   23a72:	2104      	movs	r1, #4
   23a74:	2200      	movs	r2, #0
   23a76:	4613      	mov	r3, r2
   23a78:	df03      	svc	3
   23a7a:	b017      	add	sp, #92	@ 0x5c
   23a7c:	bdf0      	pop	{r4, r5, r6, r7, pc}
   23a7e:	a804      	add	r0, sp, #16
   23a80:	7800      	ldrb	r0, [r0, #0]
   23a82:	2802      	cmp	r0, #2
   23a84:	d00c      	beq.n	23aa0 <_ZN20complex_dynamic_type3app17h70f444bad8bc60b5E+0xe8>
   23a86:	2803      	cmp	r0, #3
   23a88:	d105      	bne.n	23a96 <_ZN20complex_dynamic_type3app17h70f444bad8bc60b5E+0xde>
   23a8a:	481e      	ldr	r0, [pc, #120]	@ (23b04 <_ZN20complex_dynamic_type3app17h70f444bad8bc60b5E+0x14c>)
   23a8c:	2104      	movs	r1, #4
   23a8e:	2200      	movs	r2, #0
   23a90:	4613      	mov	r3, r2
   23a92:	df03      	svc	3
   23a94:	e004      	b.n	23aa0 <_ZN20complex_dynamic_type3app17h70f444bad8bc60b5E+0xe8>
   23a96:	481b      	ldr	r0, [pc, #108]	@ (23b04 <_ZN20complex_dynamic_type3app17h70f444bad8bc60b5E+0x14c>)
   23a98:	2104      	movs	r1, #4
   23a9a:	2200      	movs	r2, #0
   23a9c:	4613      	mov	r3, r2
   23a9e:	df04      	svc	4
   23aa0:	a804      	add	r0, sp, #16
   23aa2:	9900      	ldr	r1, [sp, #0]
   23aa4:	7001      	strb	r1, [r0, #0]
   23aa6:	a80d      	add	r0, sp, #52	@ 0x34
   23aa8:	7800      	ldrb	r0, [r0, #0]
   23aaa:	2804      	cmp	r0, #4
   23aac:	d007      	beq.n	23abe <_ZN20complex_dynamic_type3app17h70f444bad8bc60b5E+0x106>
   23aae:	2803      	cmp	r0, #3
   23ab0:	d11d      	bne.n	23aee <_ZN20complex_dynamic_type3app17h70f444bad8bc60b5E+0x136>
   23ab2:	4814      	ldr	r0, [pc, #80]	@ (23b04 <_ZN20complex_dynamic_type3app17h70f444bad8bc60b5E+0x14c>)
   23ab4:	2108      	movs	r1, #8
   23ab6:	2200      	movs	r2, #0
   23ab8:	4613      	mov	r3, r2
   23aba:	df03      	svc	3
   23abc:	e004      	b.n	23ac8 <_ZN20complex_dynamic_type3app17h70f444bad8bc60b5E+0x110>
   23abe:	4811      	ldr	r0, [pc, #68]	@ (23b04 <_ZN20complex_dynamic_type3app17h70f444bad8bc60b5E+0x14c>)
   23ac0:	2108      	movs	r1, #8
   23ac2:	2200      	movs	r2, #0
   23ac4:	4613      	mov	r3, r2
   23ac6:	df04      	svc	4
   23ac8:	a804      	add	r0, sp, #16
   23aca:	7804      	ldrb	r4, [r0, #0]
   23acc:	1c68      	adds	r0, r5, #1
   23ace:	2224      	movs	r2, #36	@ 0x24
   23ad0:	9901      	ldr	r1, [sp, #4]
   23ad2:	f007 fb17 	bl	2b104 <__aeabi_memcpy>
   23ad6:	702e      	strb	r6, [r5, #0]
   23ad8:	2c02      	cmp	r4, #2
   23ada:	d006      	beq.n	23aea <_ZN20complex_dynamic_type3app17h70f444bad8bc60b5E+0x132>
   23adc:	4809      	ldr	r0, [pc, #36]	@ (23b04 <_ZN20complex_dynamic_type3app17h70f444bad8bc60b5E+0x14c>)
   23ade:	2104      	movs	r1, #4
   23ae0:	2200      	movs	r2, #0
   23ae2:	4613      	mov	r3, r2
   23ae4:	2c04      	cmp	r4, #4
   23ae6:	d10a      	bne.n	23afe <_ZN20complex_dynamic_type3app17h70f444bad8bc60b5E+0x146>
   23ae8:	df04      	svc	4
   23aea:	b017      	add	sp, #92	@ 0x5c
   23aec:	bdf0      	pop	{r4, r5, r6, r7, pc}
   23aee:	1c68      	adds	r0, r5, #1
   23af0:	2224      	movs	r2, #36	@ 0x24
   23af2:	9901      	ldr	r1, [sp, #4]
   23af4:	f007 fb06 	bl	2b104 <__aeabi_memcpy>
   23af8:	702e      	strb	r6, [r5, #0]
   23afa:	b017      	add	sp, #92	@ 0x5c
   23afc:	bdf0      	pop	{r4, r5, r6, r7, pc}
   23afe:	df03      	svc	3
   23b00:	b017      	add	sp, #92	@ 0x5c
   23b02:	bdf0      	pop	{r4, r5, r6, r7, pc}
   23b04:	00001bd6 	.word	0x00001bd6

00023b08 <_ZN20complex_dynamic_type3app17h72e709d33412754cE>:
   23b08:	b5f0      	push	{r4, r5, r6, r7, lr}
   23b0a:	af03      	add	r7, sp, #12
   23b0c:	b0a3      	sub	sp, #140	@ 0x8c
   23b0e:	9004      	str	r0, [sp, #16]
   23b10:	a805      	add	r0, sp, #20
   23b12:	2402      	movs	r4, #2
   23b14:	7004      	strb	r4, [r0, #0]
   23b16:	1c40      	adds	r0, r0, #1
   23b18:	9003      	str	r0, [sp, #12]
   23b1a:	2548      	movs	r5, #72	@ 0x48
   23b1c:	462a      	mov	r2, r5
   23b1e:	f007 faf1 	bl	2b104 <__aeabi_memcpy>
   23b22:	ae18      	add	r6, sp, #96	@ 0x60
   23b24:	1c70      	adds	r0, r6, #1
   23b26:	2129      	movs	r1, #41	@ 0x29
   23b28:	9002      	str	r0, [sp, #8]
   23b2a:	f007 f92b 	bl	2ad84 <__aeabi_memclr>
   23b2e:	9401      	str	r4, [sp, #4]
   23b30:	7034      	strb	r4, [r6, #0]
   23b32:	484a      	ldr	r0, [pc, #296]	@ (23c5c <_ZN20complex_dynamic_type3app17h72e709d33412754cE+0x154>)
   23b34:	2603      	movs	r6, #3
   23b36:	4631      	mov	r1, r6
   23b38:	9a03      	ldr	r2, [sp, #12]
   23b3a:	462b      	mov	r3, r5
   23b3c:	df04      	svc	4
   23b3e:	2802      	cmp	r0, #2
   23b40:	d104      	bne.n	23b4c <_ZN20complex_dynamic_type3app17h72e709d33412754cE+0x44>
   23b42:	2001      	movs	r0, #1
   23b44:	9a04      	ldr	r2, [sp, #16]
   23b46:	7010      	strb	r0, [r2, #0]
   23b48:	6051      	str	r1, [r2, #4]
   23b4a:	e02b      	b.n	23ba4 <_ZN20complex_dynamic_type3app17h72e709d33412754cE+0x9c>
   23b4c:	9d04      	ldr	r5, [sp, #16]
   23b4e:	a805      	add	r0, sp, #20
   23b50:	2104      	movs	r1, #4
   23b52:	7001      	strb	r1, [r0, #0]
   23b54:	4841      	ldr	r0, [pc, #260]	@ (23c5c <_ZN20complex_dynamic_type3app17h72e709d33412754cE+0x154>)
   23b56:	2329      	movs	r3, #41	@ 0x29
   23b58:	9c02      	ldr	r4, [sp, #8]
   23b5a:	4622      	mov	r2, r4
   23b5c:	df03      	svc	3
   23b5e:	2802      	cmp	r0, #2
   23b60:	d10e      	bne.n	23b80 <_ZN20complex_dynamic_type3app17h72e709d33412754cE+0x78>
   23b62:	2001      	movs	r0, #1
   23b64:	7028      	strb	r0, [r5, #0]
   23b66:	6069      	str	r1, [r5, #4]
   23b68:	a818      	add	r0, sp, #96	@ 0x60
   23b6a:	7800      	ldrb	r0, [r0, #0]
   23b6c:	2802      	cmp	r0, #2
   23b6e:	d019      	beq.n	23ba4 <_ZN20complex_dynamic_type3app17h72e709d33412754cE+0x9c>
   23b70:	2803      	cmp	r0, #3
   23b72:	d012      	beq.n	23b9a <_ZN20complex_dynamic_type3app17h72e709d33412754cE+0x92>
   23b74:	4839      	ldr	r0, [pc, #228]	@ (23c5c <_ZN20complex_dynamic_type3app17h72e709d33412754cE+0x154>)
   23b76:	2104      	movs	r1, #4
   23b78:	2200      	movs	r2, #0
   23b7a:	4613      	mov	r3, r2
   23b7c:	df04      	svc	4
   23b7e:	e011      	b.n	23ba4 <_ZN20complex_dynamic_type3app17h72e709d33412754cE+0x9c>
   23b80:	a818      	add	r0, sp, #96	@ 0x60
   23b82:	7006      	strb	r6, [r0, #0]
   23b84:	4835      	ldr	r0, [pc, #212]	@ (23c5c <_ZN20complex_dynamic_type3app17h72e709d33412754cE+0x154>)
   23b86:	2204      	movs	r2, #4
   23b88:	2300      	movs	r3, #0
   23b8a:	4631      	mov	r1, r6
   23b8c:	9303      	str	r3, [sp, #12]
   23b8e:	df02      	svc	2
   23b90:	2880      	cmp	r0, #128	@ 0x80
   23b92:	d21b      	bcs.n	23bcc <_ZN20complex_dynamic_type3app17h72e709d33412754cE+0xc4>
   23b94:	2001      	movs	r0, #1
   23b96:	7028      	strb	r0, [r5, #0]
   23b98:	6069      	str	r1, [r5, #4]
   23b9a:	4830      	ldr	r0, [pc, #192]	@ (23c5c <_ZN20complex_dynamic_type3app17h72e709d33412754cE+0x154>)
   23b9c:	2104      	movs	r1, #4
   23b9e:	2200      	movs	r2, #0
   23ba0:	4613      	mov	r3, r2
   23ba2:	df03      	svc	3
   23ba4:	a805      	add	r0, sp, #20
   23ba6:	7800      	ldrb	r0, [r0, #0]
   23ba8:	2802      	cmp	r0, #2
   23baa:	d048      	beq.n	23c3e <_ZN20complex_dynamic_type3app17h72e709d33412754cE+0x136>
   23bac:	2804      	cmp	r0, #4
   23bae:	d106      	bne.n	23bbe <_ZN20complex_dynamic_type3app17h72e709d33412754cE+0xb6>
   23bb0:	482a      	ldr	r0, [pc, #168]	@ (23c5c <_ZN20complex_dynamic_type3app17h72e709d33412754cE+0x154>)
   23bb2:	2103      	movs	r1, #3
   23bb4:	2200      	movs	r2, #0
   23bb6:	4613      	mov	r3, r2
   23bb8:	df04      	svc	4
   23bba:	b023      	add	sp, #140	@ 0x8c
   23bbc:	bdf0      	pop	{r4, r5, r6, r7, pc}
   23bbe:	4827      	ldr	r0, [pc, #156]	@ (23c5c <_ZN20complex_dynamic_type3app17h72e709d33412754cE+0x154>)
   23bc0:	2103      	movs	r1, #3
   23bc2:	2200      	movs	r2, #0
   23bc4:	4613      	mov	r3, r2
   23bc6:	df03      	svc	3
   23bc8:	b023      	add	sp, #140	@ 0x8c
   23bca:	bdf0      	pop	{r4, r5, r6, r7, pc}
   23bcc:	a805      	add	r0, sp, #20
   23bce:	7800      	ldrb	r0, [r0, #0]
   23bd0:	2802      	cmp	r0, #2
   23bd2:	d00c      	beq.n	23bee <_ZN20complex_dynamic_type3app17h72e709d33412754cE+0xe6>
   23bd4:	2803      	cmp	r0, #3
   23bd6:	d105      	bne.n	23be4 <_ZN20complex_dynamic_type3app17h72e709d33412754cE+0xdc>
   23bd8:	4820      	ldr	r0, [pc, #128]	@ (23c5c <_ZN20complex_dynamic_type3app17h72e709d33412754cE+0x154>)
   23bda:	2103      	movs	r1, #3
   23bdc:	2200      	movs	r2, #0
   23bde:	4613      	mov	r3, r2
   23be0:	df03      	svc	3
   23be2:	e004      	b.n	23bee <_ZN20complex_dynamic_type3app17h72e709d33412754cE+0xe6>
   23be4:	481d      	ldr	r0, [pc, #116]	@ (23c5c <_ZN20complex_dynamic_type3app17h72e709d33412754cE+0x154>)
   23be6:	2103      	movs	r1, #3
   23be8:	2200      	movs	r2, #0
   23bea:	4613      	mov	r3, r2
   23bec:	df04      	svc	4
   23bee:	a805      	add	r0, sp, #20
   23bf0:	9901      	ldr	r1, [sp, #4]
   23bf2:	7001      	strb	r1, [r0, #0]
   23bf4:	a818      	add	r0, sp, #96	@ 0x60
   23bf6:	7800      	ldrb	r0, [r0, #0]
   23bf8:	2804      	cmp	r0, #4
   23bfa:	d008      	beq.n	23c0e <_ZN20complex_dynamic_type3app17h72e709d33412754cE+0x106>
   23bfc:	2803      	cmp	r0, #3
   23bfe:	d120      	bne.n	23c42 <_ZN20complex_dynamic_type3app17h72e709d33412754cE+0x13a>
   23c00:	4626      	mov	r6, r4
   23c02:	4816      	ldr	r0, [pc, #88]	@ (23c5c <_ZN20complex_dynamic_type3app17h72e709d33412754cE+0x154>)
   23c04:	2104      	movs	r1, #4
   23c06:	2200      	movs	r2, #0
   23c08:	4613      	mov	r3, r2
   23c0a:	df03      	svc	3
   23c0c:	e005      	b.n	23c1a <_ZN20complex_dynamic_type3app17h72e709d33412754cE+0x112>
   23c0e:	4626      	mov	r6, r4
   23c10:	4812      	ldr	r0, [pc, #72]	@ (23c5c <_ZN20complex_dynamic_type3app17h72e709d33412754cE+0x154>)
   23c12:	2104      	movs	r1, #4
   23c14:	2200      	movs	r2, #0
   23c16:	4613      	mov	r3, r2
   23c18:	df04      	svc	4
   23c1a:	a805      	add	r0, sp, #20
   23c1c:	7804      	ldrb	r4, [r0, #0]
   23c1e:	1c68      	adds	r0, r5, #1
   23c20:	2229      	movs	r2, #41	@ 0x29
   23c22:	4631      	mov	r1, r6
   23c24:	f007 fa6e 	bl	2b104 <__aeabi_memcpy>
   23c28:	9803      	ldr	r0, [sp, #12]
   23c2a:	7028      	strb	r0, [r5, #0]
   23c2c:	2c02      	cmp	r4, #2
   23c2e:	d006      	beq.n	23c3e <_ZN20complex_dynamic_type3app17h72e709d33412754cE+0x136>
   23c30:	480a      	ldr	r0, [pc, #40]	@ (23c5c <_ZN20complex_dynamic_type3app17h72e709d33412754cE+0x154>)
   23c32:	2103      	movs	r1, #3
   23c34:	2200      	movs	r2, #0
   23c36:	4613      	mov	r3, r2
   23c38:	2c04      	cmp	r4, #4
   23c3a:	d10b      	bne.n	23c54 <_ZN20complex_dynamic_type3app17h72e709d33412754cE+0x14c>
   23c3c:	df04      	svc	4
   23c3e:	b023      	add	sp, #140	@ 0x8c
   23c40:	bdf0      	pop	{r4, r5, r6, r7, pc}
   23c42:	1c68      	adds	r0, r5, #1
   23c44:	2229      	movs	r2, #41	@ 0x29
   23c46:	4621      	mov	r1, r4
   23c48:	f007 fa5c 	bl	2b104 <__aeabi_memcpy>
   23c4c:	9803      	ldr	r0, [sp, #12]
   23c4e:	7028      	strb	r0, [r5, #0]
   23c50:	b023      	add	sp, #140	@ 0x8c
   23c52:	bdf0      	pop	{r4, r5, r6, r7, pc}
   23c54:	df03      	svc	3
   23c56:	b023      	add	sp, #140	@ 0x8c
   23c58:	bdf0      	pop	{r4, r5, r6, r7, pc}
   23c5a:	46c0      	nop			@ (mov r8, r8)
   23c5c:	000026a4 	.word	0x000026a4

00023c60 <_ZN20complex_dynamic_type3app17h756b74833a5f2b1bE>:
   23c60:	b5f0      	push	{r4, r5, r6, r7, lr}
   23c62:	af03      	add	r7, sp, #12
   23c64:	b09f      	sub	sp, #124	@ 0x7c
   23c66:	9003      	str	r0, [sp, #12]
   23c68:	a804      	add	r0, sp, #16
   23c6a:	2402      	movs	r4, #2
   23c6c:	7004      	strb	r4, [r0, #0]
   23c6e:	1c46      	adds	r6, r0, #1
   23c70:	2213      	movs	r2, #19
   23c72:	9202      	str	r2, [sp, #8]
   23c74:	4630      	mov	r0, r6
   23c76:	f007 fa45 	bl	2b104 <__aeabi_memcpy>
   23c7a:	ad09      	add	r5, sp, #36	@ 0x24
   23c7c:	1c68      	adds	r0, r5, #1
   23c7e:	2155      	movs	r1, #85	@ 0x55
   23c80:	9001      	str	r0, [sp, #4]
   23c82:	f007 f87f 	bl	2ad84 <__aeabi_memclr>
   23c86:	9400      	str	r4, [sp, #0]
   23c88:	702c      	strb	r4, [r5, #0]
   23c8a:	4848      	ldr	r0, [pc, #288]	@ (23dac <_ZN20complex_dynamic_type3app17h756b74833a5f2b1bE+0x14c>)
   23c8c:	2109      	movs	r1, #9
   23c8e:	4632      	mov	r2, r6
   23c90:	9b02      	ldr	r3, [sp, #8]
   23c92:	df04      	svc	4
   23c94:	2802      	cmp	r0, #2
   23c96:	d104      	bne.n	23ca2 <_ZN20complex_dynamic_type3app17h756b74833a5f2b1bE+0x42>
   23c98:	2001      	movs	r0, #1
   23c9a:	9a03      	ldr	r2, [sp, #12]
   23c9c:	7010      	strb	r0, [r2, #0]
   23c9e:	6051      	str	r1, [r2, #4]
   23ca0:	e02d      	b.n	23cfe <_ZN20complex_dynamic_type3app17h756b74833a5f2b1bE+0x9e>
   23ca2:	9d03      	ldr	r5, [sp, #12]
   23ca4:	a804      	add	r0, sp, #16
   23ca6:	2104      	movs	r1, #4
   23ca8:	7001      	strb	r1, [r0, #0]
   23caa:	4840      	ldr	r0, [pc, #256]	@ (23dac <_ZN20complex_dynamic_type3app17h756b74833a5f2b1bE+0x14c>)
   23cac:	2107      	movs	r1, #7
   23cae:	2355      	movs	r3, #85	@ 0x55
   23cb0:	9c01      	ldr	r4, [sp, #4]
   23cb2:	4622      	mov	r2, r4
   23cb4:	df03      	svc	3
   23cb6:	2802      	cmp	r0, #2
   23cb8:	d10e      	bne.n	23cd8 <_ZN20complex_dynamic_type3app17h756b74833a5f2b1bE+0x78>
   23cba:	2001      	movs	r0, #1
   23cbc:	7028      	strb	r0, [r5, #0]
   23cbe:	6069      	str	r1, [r5, #4]
   23cc0:	a809      	add	r0, sp, #36	@ 0x24
   23cc2:	7800      	ldrb	r0, [r0, #0]
   23cc4:	2802      	cmp	r0, #2
   23cc6:	d01a      	beq.n	23cfe <_ZN20complex_dynamic_type3app17h756b74833a5f2b1bE+0x9e>
   23cc8:	2803      	cmp	r0, #3
   23cca:	d013      	beq.n	23cf4 <_ZN20complex_dynamic_type3app17h756b74833a5f2b1bE+0x94>
   23ccc:	4837      	ldr	r0, [pc, #220]	@ (23dac <_ZN20complex_dynamic_type3app17h756b74833a5f2b1bE+0x14c>)
   23cce:	2107      	movs	r1, #7
   23cd0:	2200      	movs	r2, #0
   23cd2:	4613      	mov	r3, r2
   23cd4:	df04      	svc	4
   23cd6:	e012      	b.n	23cfe <_ZN20complex_dynamic_type3app17h756b74833a5f2b1bE+0x9e>
   23cd8:	a809      	add	r0, sp, #36	@ 0x24
   23cda:	2103      	movs	r1, #3
   23cdc:	7001      	strb	r1, [r0, #0]
   23cde:	4833      	ldr	r0, [pc, #204]	@ (23dac <_ZN20complex_dynamic_type3app17h756b74833a5f2b1bE+0x14c>)
   23ce0:	2109      	movs	r1, #9
   23ce2:	2207      	movs	r2, #7
   23ce4:	2600      	movs	r6, #0
   23ce6:	4633      	mov	r3, r6
   23ce8:	df02      	svc	2
   23cea:	2880      	cmp	r0, #128	@ 0x80
   23cec:	d21b      	bcs.n	23d26 <_ZN20complex_dynamic_type3app17h756b74833a5f2b1bE+0xc6>
   23cee:	2001      	movs	r0, #1
   23cf0:	7028      	strb	r0, [r5, #0]
   23cf2:	6069      	str	r1, [r5, #4]
   23cf4:	482d      	ldr	r0, [pc, #180]	@ (23dac <_ZN20complex_dynamic_type3app17h756b74833a5f2b1bE+0x14c>)
   23cf6:	2107      	movs	r1, #7
   23cf8:	2200      	movs	r2, #0
   23cfa:	4613      	mov	r3, r2
   23cfc:	df03      	svc	3
   23cfe:	a804      	add	r0, sp, #16
   23d00:	7800      	ldrb	r0, [r0, #0]
   23d02:	2802      	cmp	r0, #2
   23d04:	d045      	beq.n	23d92 <_ZN20complex_dynamic_type3app17h756b74833a5f2b1bE+0x132>
   23d06:	2804      	cmp	r0, #4
   23d08:	d106      	bne.n	23d18 <_ZN20complex_dynamic_type3app17h756b74833a5f2b1bE+0xb8>
   23d0a:	4828      	ldr	r0, [pc, #160]	@ (23dac <_ZN20complex_dynamic_type3app17h756b74833a5f2b1bE+0x14c>)
   23d0c:	2109      	movs	r1, #9
   23d0e:	2200      	movs	r2, #0
   23d10:	4613      	mov	r3, r2
   23d12:	df04      	svc	4
   23d14:	b01f      	add	sp, #124	@ 0x7c
   23d16:	bdf0      	pop	{r4, r5, r6, r7, pc}
   23d18:	4824      	ldr	r0, [pc, #144]	@ (23dac <_ZN20complex_dynamic_type3app17h756b74833a5f2b1bE+0x14c>)
   23d1a:	2109      	movs	r1, #9
   23d1c:	2200      	movs	r2, #0
   23d1e:	4613      	mov	r3, r2
   23d20:	df03      	svc	3
   23d22:	b01f      	add	sp, #124	@ 0x7c
   23d24:	bdf0      	pop	{r4, r5, r6, r7, pc}
   23d26:	a804      	add	r0, sp, #16
   23d28:	7800      	ldrb	r0, [r0, #0]
   23d2a:	2802      	cmp	r0, #2
   23d2c:	d00c      	beq.n	23d48 <_ZN20complex_dynamic_type3app17h756b74833a5f2b1bE+0xe8>
   23d2e:	2803      	cmp	r0, #3
   23d30:	d105      	bne.n	23d3e <_ZN20complex_dynamic_type3app17h756b74833a5f2b1bE+0xde>
   23d32:	481e      	ldr	r0, [pc, #120]	@ (23dac <_ZN20complex_dynamic_type3app17h756b74833a5f2b1bE+0x14c>)
   23d34:	2109      	movs	r1, #9
   23d36:	2200      	movs	r2, #0
   23d38:	4613      	mov	r3, r2
   23d3a:	df03      	svc	3
   23d3c:	e004      	b.n	23d48 <_ZN20complex_dynamic_type3app17h756b74833a5f2b1bE+0xe8>
   23d3e:	481b      	ldr	r0, [pc, #108]	@ (23dac <_ZN20complex_dynamic_type3app17h756b74833a5f2b1bE+0x14c>)
   23d40:	2109      	movs	r1, #9
   23d42:	2200      	movs	r2, #0
   23d44:	4613      	mov	r3, r2
   23d46:	df04      	svc	4
   23d48:	a804      	add	r0, sp, #16
   23d4a:	9900      	ldr	r1, [sp, #0]
   23d4c:	7001      	strb	r1, [r0, #0]
   23d4e:	a809      	add	r0, sp, #36	@ 0x24
   23d50:	7800      	ldrb	r0, [r0, #0]
   23d52:	2804      	cmp	r0, #4
   23d54:	d007      	beq.n	23d66 <_ZN20complex_dynamic_type3app17h756b74833a5f2b1bE+0x106>
   23d56:	2803      	cmp	r0, #3
   23d58:	d11d      	bne.n	23d96 <_ZN20complex_dynamic_type3app17h756b74833a5f2b1bE+0x136>
   23d5a:	4814      	ldr	r0, [pc, #80]	@ (23dac <_ZN20complex_dynamic_type3app17h756b74833a5f2b1bE+0x14c>)
   23d5c:	2107      	movs	r1, #7
   23d5e:	2200      	movs	r2, #0
   23d60:	4613      	mov	r3, r2
   23d62:	df03      	svc	3
   23d64:	e004      	b.n	23d70 <_ZN20complex_dynamic_type3app17h756b74833a5f2b1bE+0x110>
   23d66:	4811      	ldr	r0, [pc, #68]	@ (23dac <_ZN20complex_dynamic_type3app17h756b74833a5f2b1bE+0x14c>)
   23d68:	2107      	movs	r1, #7
   23d6a:	2200      	movs	r2, #0
   23d6c:	4613      	mov	r3, r2
   23d6e:	df04      	svc	4
   23d70:	a804      	add	r0, sp, #16
   23d72:	7804      	ldrb	r4, [r0, #0]
   23d74:	1c68      	adds	r0, r5, #1
   23d76:	2255      	movs	r2, #85	@ 0x55
   23d78:	9901      	ldr	r1, [sp, #4]
   23d7a:	f007 f9c3 	bl	2b104 <__aeabi_memcpy>
   23d7e:	702e      	strb	r6, [r5, #0]
   23d80:	2c02      	cmp	r4, #2
   23d82:	d006      	beq.n	23d92 <_ZN20complex_dynamic_type3app17h756b74833a5f2b1bE+0x132>
   23d84:	4809      	ldr	r0, [pc, #36]	@ (23dac <_ZN20complex_dynamic_type3app17h756b74833a5f2b1bE+0x14c>)
   23d86:	2109      	movs	r1, #9
   23d88:	2200      	movs	r2, #0
   23d8a:	4613      	mov	r3, r2
   23d8c:	2c04      	cmp	r4, #4
   23d8e:	d10a      	bne.n	23da6 <_ZN20complex_dynamic_type3app17h756b74833a5f2b1bE+0x146>
   23d90:	df04      	svc	4
   23d92:	b01f      	add	sp, #124	@ 0x7c
   23d94:	bdf0      	pop	{r4, r5, r6, r7, pc}
   23d96:	1c68      	adds	r0, r5, #1
   23d98:	2255      	movs	r2, #85	@ 0x55
   23d9a:	4621      	mov	r1, r4
   23d9c:	f007 f9b2 	bl	2b104 <__aeabi_memcpy>
   23da0:	702e      	strb	r6, [r5, #0]
   23da2:	b01f      	add	sp, #124	@ 0x7c
   23da4:	bdf0      	pop	{r4, r5, r6, r7, pc}
   23da6:	df03      	svc	3
   23da8:	b01f      	add	sp, #124	@ 0x7c
   23daa:	bdf0      	pop	{r4, r5, r6, r7, pc}
   23dac:	0000032e 	.word	0x0000032e

00023db0 <_ZN20complex_dynamic_type3app17h78c9bf5b4d30021eE>:
   23db0:	b5f0      	push	{r4, r5, r6, r7, lr}
   23db2:	af03      	add	r7, sp, #12
   23db4:	b0a3      	sub	sp, #140	@ 0x8c
   23db6:	9004      	str	r0, [sp, #16]
   23db8:	a805      	add	r0, sp, #20
   23dba:	2402      	movs	r4, #2
   23dbc:	7004      	strb	r4, [r0, #0]
   23dbe:	1c46      	adds	r6, r0, #1
   23dc0:	2222      	movs	r2, #34	@ 0x22
   23dc2:	9203      	str	r2, [sp, #12]
   23dc4:	4630      	mov	r0, r6
   23dc6:	f007 f99d 	bl	2b104 <__aeabi_memcpy>
   23dca:	ad0e      	add	r5, sp, #56	@ 0x38
   23dcc:	1c68      	adds	r0, r5, #1
   23dce:	2151      	movs	r1, #81	@ 0x51
   23dd0:	9002      	str	r0, [sp, #8]
   23dd2:	f006 ffd7 	bl	2ad84 <__aeabi_memclr>
   23dd6:	9401      	str	r4, [sp, #4]
   23dd8:	702c      	strb	r4, [r5, #0]
   23dda:	4848      	ldr	r0, [pc, #288]	@ (23efc <_ZN20complex_dynamic_type3app17h78c9bf5b4d30021eE+0x14c>)
   23ddc:	2109      	movs	r1, #9
   23dde:	4632      	mov	r2, r6
   23de0:	9b03      	ldr	r3, [sp, #12]
   23de2:	df04      	svc	4
   23de4:	2802      	cmp	r0, #2
   23de6:	d104      	bne.n	23df2 <_ZN20complex_dynamic_type3app17h78c9bf5b4d30021eE+0x42>
   23de8:	2001      	movs	r0, #1
   23dea:	9a04      	ldr	r2, [sp, #16]
   23dec:	7010      	strb	r0, [r2, #0]
   23dee:	6051      	str	r1, [r2, #4]
   23df0:	e02d      	b.n	23e4e <_ZN20complex_dynamic_type3app17h78c9bf5b4d30021eE+0x9e>
   23df2:	9d04      	ldr	r5, [sp, #16]
   23df4:	a805      	add	r0, sp, #20
   23df6:	2104      	movs	r1, #4
   23df8:	7001      	strb	r1, [r0, #0]
   23dfa:	4840      	ldr	r0, [pc, #256]	@ (23efc <_ZN20complex_dynamic_type3app17h78c9bf5b4d30021eE+0x14c>)
   23dfc:	2109      	movs	r1, #9
   23dfe:	2351      	movs	r3, #81	@ 0x51
   23e00:	9c02      	ldr	r4, [sp, #8]
   23e02:	4622      	mov	r2, r4
   23e04:	df03      	svc	3
   23e06:	2802      	cmp	r0, #2
   23e08:	d10e      	bne.n	23e28 <_ZN20complex_dynamic_type3app17h78c9bf5b4d30021eE+0x78>
   23e0a:	2001      	movs	r0, #1
   23e0c:	7028      	strb	r0, [r5, #0]
   23e0e:	6069      	str	r1, [r5, #4]
   23e10:	a80e      	add	r0, sp, #56	@ 0x38
   23e12:	7800      	ldrb	r0, [r0, #0]
   23e14:	2802      	cmp	r0, #2
   23e16:	d01a      	beq.n	23e4e <_ZN20complex_dynamic_type3app17h78c9bf5b4d30021eE+0x9e>
   23e18:	2803      	cmp	r0, #3
   23e1a:	d013      	beq.n	23e44 <_ZN20complex_dynamic_type3app17h78c9bf5b4d30021eE+0x94>
   23e1c:	4837      	ldr	r0, [pc, #220]	@ (23efc <_ZN20complex_dynamic_type3app17h78c9bf5b4d30021eE+0x14c>)
   23e1e:	2109      	movs	r1, #9
   23e20:	2200      	movs	r2, #0
   23e22:	4613      	mov	r3, r2
   23e24:	df04      	svc	4
   23e26:	e012      	b.n	23e4e <_ZN20complex_dynamic_type3app17h78c9bf5b4d30021eE+0x9e>
   23e28:	a80e      	add	r0, sp, #56	@ 0x38
   23e2a:	2103      	movs	r1, #3
   23e2c:	7001      	strb	r1, [r0, #0]
   23e2e:	4833      	ldr	r0, [pc, #204]	@ (23efc <_ZN20complex_dynamic_type3app17h78c9bf5b4d30021eE+0x14c>)
   23e30:	2109      	movs	r1, #9
   23e32:	2600      	movs	r6, #0
   23e34:	460a      	mov	r2, r1
   23e36:	4633      	mov	r3, r6
   23e38:	df02      	svc	2
   23e3a:	2880      	cmp	r0, #128	@ 0x80
   23e3c:	d21b      	bcs.n	23e76 <_ZN20complex_dynamic_type3app17h78c9bf5b4d30021eE+0xc6>
   23e3e:	2001      	movs	r0, #1
   23e40:	7028      	strb	r0, [r5, #0]
   23e42:	6069      	str	r1, [r5, #4]
   23e44:	482d      	ldr	r0, [pc, #180]	@ (23efc <_ZN20complex_dynamic_type3app17h78c9bf5b4d30021eE+0x14c>)
   23e46:	2109      	movs	r1, #9
   23e48:	2200      	movs	r2, #0
   23e4a:	4613      	mov	r3, r2
   23e4c:	df03      	svc	3
   23e4e:	a805      	add	r0, sp, #20
   23e50:	7800      	ldrb	r0, [r0, #0]
   23e52:	2802      	cmp	r0, #2
   23e54:	d045      	beq.n	23ee2 <_ZN20complex_dynamic_type3app17h78c9bf5b4d30021eE+0x132>
   23e56:	2804      	cmp	r0, #4
   23e58:	d106      	bne.n	23e68 <_ZN20complex_dynamic_type3app17h78c9bf5b4d30021eE+0xb8>
   23e5a:	4828      	ldr	r0, [pc, #160]	@ (23efc <_ZN20complex_dynamic_type3app17h78c9bf5b4d30021eE+0x14c>)
   23e5c:	2109      	movs	r1, #9
   23e5e:	2200      	movs	r2, #0
   23e60:	4613      	mov	r3, r2
   23e62:	df04      	svc	4
   23e64:	b023      	add	sp, #140	@ 0x8c
   23e66:	bdf0      	pop	{r4, r5, r6, r7, pc}
   23e68:	4824      	ldr	r0, [pc, #144]	@ (23efc <_ZN20complex_dynamic_type3app17h78c9bf5b4d30021eE+0x14c>)
   23e6a:	2109      	movs	r1, #9
   23e6c:	2200      	movs	r2, #0
   23e6e:	4613      	mov	r3, r2
   23e70:	df03      	svc	3
   23e72:	b023      	add	sp, #140	@ 0x8c
   23e74:	bdf0      	pop	{r4, r5, r6, r7, pc}
   23e76:	a805      	add	r0, sp, #20
   23e78:	7800      	ldrb	r0, [r0, #0]
   23e7a:	2802      	cmp	r0, #2
   23e7c:	d00c      	beq.n	23e98 <_ZN20complex_dynamic_type3app17h78c9bf5b4d30021eE+0xe8>
   23e7e:	2803      	cmp	r0, #3
   23e80:	d105      	bne.n	23e8e <_ZN20complex_dynamic_type3app17h78c9bf5b4d30021eE+0xde>
   23e82:	481e      	ldr	r0, [pc, #120]	@ (23efc <_ZN20complex_dynamic_type3app17h78c9bf5b4d30021eE+0x14c>)
   23e84:	2109      	movs	r1, #9
   23e86:	2200      	movs	r2, #0
   23e88:	4613      	mov	r3, r2
   23e8a:	df03      	svc	3
   23e8c:	e004      	b.n	23e98 <_ZN20complex_dynamic_type3app17h78c9bf5b4d30021eE+0xe8>
   23e8e:	481b      	ldr	r0, [pc, #108]	@ (23efc <_ZN20complex_dynamic_type3app17h78c9bf5b4d30021eE+0x14c>)
   23e90:	2109      	movs	r1, #9
   23e92:	2200      	movs	r2, #0
   23e94:	4613      	mov	r3, r2
   23e96:	df04      	svc	4
   23e98:	a805      	add	r0, sp, #20
   23e9a:	9901      	ldr	r1, [sp, #4]
   23e9c:	7001      	strb	r1, [r0, #0]
   23e9e:	a80e      	add	r0, sp, #56	@ 0x38
   23ea0:	7800      	ldrb	r0, [r0, #0]
   23ea2:	2804      	cmp	r0, #4
   23ea4:	d007      	beq.n	23eb6 <_ZN20complex_dynamic_type3app17h78c9bf5b4d30021eE+0x106>
   23ea6:	2803      	cmp	r0, #3
   23ea8:	d11d      	bne.n	23ee6 <_ZN20complex_dynamic_type3app17h78c9bf5b4d30021eE+0x136>
   23eaa:	4814      	ldr	r0, [pc, #80]	@ (23efc <_ZN20complex_dynamic_type3app17h78c9bf5b4d30021eE+0x14c>)
   23eac:	2109      	movs	r1, #9
   23eae:	2200      	movs	r2, #0
   23eb0:	4613      	mov	r3, r2
   23eb2:	df03      	svc	3
   23eb4:	e004      	b.n	23ec0 <_ZN20complex_dynamic_type3app17h78c9bf5b4d30021eE+0x110>
   23eb6:	4811      	ldr	r0, [pc, #68]	@ (23efc <_ZN20complex_dynamic_type3app17h78c9bf5b4d30021eE+0x14c>)
   23eb8:	2109      	movs	r1, #9
   23eba:	2200      	movs	r2, #0
   23ebc:	4613      	mov	r3, r2
   23ebe:	df04      	svc	4
   23ec0:	a805      	add	r0, sp, #20
   23ec2:	7804      	ldrb	r4, [r0, #0]
   23ec4:	1c68      	adds	r0, r5, #1
   23ec6:	2251      	movs	r2, #81	@ 0x51
   23ec8:	9902      	ldr	r1, [sp, #8]
   23eca:	f007 f91b 	bl	2b104 <__aeabi_memcpy>
   23ece:	702e      	strb	r6, [r5, #0]
   23ed0:	2c02      	cmp	r4, #2
   23ed2:	d006      	beq.n	23ee2 <_ZN20complex_dynamic_type3app17h78c9bf5b4d30021eE+0x132>
   23ed4:	4809      	ldr	r0, [pc, #36]	@ (23efc <_ZN20complex_dynamic_type3app17h78c9bf5b4d30021eE+0x14c>)
   23ed6:	2109      	movs	r1, #9
   23ed8:	2200      	movs	r2, #0
   23eda:	4613      	mov	r3, r2
   23edc:	2c04      	cmp	r4, #4
   23ede:	d10a      	bne.n	23ef6 <_ZN20complex_dynamic_type3app17h78c9bf5b4d30021eE+0x146>
   23ee0:	df04      	svc	4
   23ee2:	b023      	add	sp, #140	@ 0x8c
   23ee4:	bdf0      	pop	{r4, r5, r6, r7, pc}
   23ee6:	1c68      	adds	r0, r5, #1
   23ee8:	2251      	movs	r2, #81	@ 0x51
   23eea:	4621      	mov	r1, r4
   23eec:	f007 f90a 	bl	2b104 <__aeabi_memcpy>
   23ef0:	702e      	strb	r6, [r5, #0]
   23ef2:	b023      	add	sp, #140	@ 0x8c
   23ef4:	bdf0      	pop	{r4, r5, r6, r7, pc}
   23ef6:	df03      	svc	3
   23ef8:	b023      	add	sp, #140	@ 0x8c
   23efa:	bdf0      	pop	{r4, r5, r6, r7, pc}
   23efc:	0000055e 	.word	0x0000055e

00023f00 <_ZN20complex_dynamic_type3app17h80d1b26f97dbfbbaE>:
   23f00:	b5f0      	push	{r4, r5, r6, r7, lr}
   23f02:	af03      	add	r7, sp, #12
   23f04:	b0a9      	sub	sp, #164	@ 0xa4
   23f06:	9004      	str	r0, [sp, #16]
   23f08:	a805      	add	r0, sp, #20
   23f0a:	2402      	movs	r4, #2
   23f0c:	7004      	strb	r4, [r0, #0]
   23f0e:	1c46      	adds	r6, r0, #1
   23f10:	2253      	movs	r2, #83	@ 0x53
   23f12:	9203      	str	r2, [sp, #12]
   23f14:	4630      	mov	r0, r6
   23f16:	f007 f8f5 	bl	2b104 <__aeabi_memcpy>
   23f1a:	ad1a      	add	r5, sp, #104	@ 0x68
   23f1c:	1c68      	adds	r0, r5, #1
   23f1e:	213a      	movs	r1, #58	@ 0x3a
   23f20:	9002      	str	r0, [sp, #8]
   23f22:	f006 ff2f 	bl	2ad84 <__aeabi_memclr>
   23f26:	9401      	str	r4, [sp, #4]
   23f28:	702c      	strb	r4, [r5, #0]
   23f2a:	4848      	ldr	r0, [pc, #288]	@ (2404c <_ZN20complex_dynamic_type3app17h80d1b26f97dbfbbaE+0x14c>)
   23f2c:	2106      	movs	r1, #6
   23f2e:	4632      	mov	r2, r6
   23f30:	9b03      	ldr	r3, [sp, #12]
   23f32:	df04      	svc	4
   23f34:	2802      	cmp	r0, #2
   23f36:	d104      	bne.n	23f42 <_ZN20complex_dynamic_type3app17h80d1b26f97dbfbbaE+0x42>
   23f38:	2001      	movs	r0, #1
   23f3a:	9a04      	ldr	r2, [sp, #16]
   23f3c:	7010      	strb	r0, [r2, #0]
   23f3e:	6051      	str	r1, [r2, #4]
   23f40:	e02d      	b.n	23f9e <_ZN20complex_dynamic_type3app17h80d1b26f97dbfbbaE+0x9e>
   23f42:	9d04      	ldr	r5, [sp, #16]
   23f44:	a805      	add	r0, sp, #20
   23f46:	2104      	movs	r1, #4
   23f48:	7001      	strb	r1, [r0, #0]
   23f4a:	4840      	ldr	r0, [pc, #256]	@ (2404c <_ZN20complex_dynamic_type3app17h80d1b26f97dbfbbaE+0x14c>)
   23f4c:	2107      	movs	r1, #7
   23f4e:	233a      	movs	r3, #58	@ 0x3a
   23f50:	9c02      	ldr	r4, [sp, #8]
   23f52:	4622      	mov	r2, r4
   23f54:	df03      	svc	3
   23f56:	2802      	cmp	r0, #2
   23f58:	d10e      	bne.n	23f78 <_ZN20complex_dynamic_type3app17h80d1b26f97dbfbbaE+0x78>
   23f5a:	2001      	movs	r0, #1
   23f5c:	7028      	strb	r0, [r5, #0]
   23f5e:	6069      	str	r1, [r5, #4]
   23f60:	a81a      	add	r0, sp, #104	@ 0x68
   23f62:	7800      	ldrb	r0, [r0, #0]
   23f64:	2802      	cmp	r0, #2
   23f66:	d01a      	beq.n	23f9e <_ZN20complex_dynamic_type3app17h80d1b26f97dbfbbaE+0x9e>
   23f68:	2803      	cmp	r0, #3
   23f6a:	d013      	beq.n	23f94 <_ZN20complex_dynamic_type3app17h80d1b26f97dbfbbaE+0x94>
   23f6c:	4837      	ldr	r0, [pc, #220]	@ (2404c <_ZN20complex_dynamic_type3app17h80d1b26f97dbfbbaE+0x14c>)
   23f6e:	2107      	movs	r1, #7
   23f70:	2200      	movs	r2, #0
   23f72:	4613      	mov	r3, r2
   23f74:	df04      	svc	4
   23f76:	e012      	b.n	23f9e <_ZN20complex_dynamic_type3app17h80d1b26f97dbfbbaE+0x9e>
   23f78:	a81a      	add	r0, sp, #104	@ 0x68
   23f7a:	2103      	movs	r1, #3
   23f7c:	7001      	strb	r1, [r0, #0]
   23f7e:	4833      	ldr	r0, [pc, #204]	@ (2404c <_ZN20complex_dynamic_type3app17h80d1b26f97dbfbbaE+0x14c>)
   23f80:	2106      	movs	r1, #6
   23f82:	2207      	movs	r2, #7
   23f84:	2600      	movs	r6, #0
   23f86:	4633      	mov	r3, r6
   23f88:	df02      	svc	2
   23f8a:	2880      	cmp	r0, #128	@ 0x80
   23f8c:	d21b      	bcs.n	23fc6 <_ZN20complex_dynamic_type3app17h80d1b26f97dbfbbaE+0xc6>
   23f8e:	2001      	movs	r0, #1
   23f90:	7028      	strb	r0, [r5, #0]
   23f92:	6069      	str	r1, [r5, #4]
   23f94:	482d      	ldr	r0, [pc, #180]	@ (2404c <_ZN20complex_dynamic_type3app17h80d1b26f97dbfbbaE+0x14c>)
   23f96:	2107      	movs	r1, #7
   23f98:	2200      	movs	r2, #0
   23f9a:	4613      	mov	r3, r2
   23f9c:	df03      	svc	3
   23f9e:	a805      	add	r0, sp, #20
   23fa0:	7800      	ldrb	r0, [r0, #0]
   23fa2:	2802      	cmp	r0, #2
   23fa4:	d045      	beq.n	24032 <_ZN20complex_dynamic_type3app17h80d1b26f97dbfbbaE+0x132>
   23fa6:	2804      	cmp	r0, #4
   23fa8:	d106      	bne.n	23fb8 <_ZN20complex_dynamic_type3app17h80d1b26f97dbfbbaE+0xb8>
   23faa:	4828      	ldr	r0, [pc, #160]	@ (2404c <_ZN20complex_dynamic_type3app17h80d1b26f97dbfbbaE+0x14c>)
   23fac:	2106      	movs	r1, #6
   23fae:	2200      	movs	r2, #0
   23fb0:	4613      	mov	r3, r2
   23fb2:	df04      	svc	4
   23fb4:	b029      	add	sp, #164	@ 0xa4
   23fb6:	bdf0      	pop	{r4, r5, r6, r7, pc}
   23fb8:	4824      	ldr	r0, [pc, #144]	@ (2404c <_ZN20complex_dynamic_type3app17h80d1b26f97dbfbbaE+0x14c>)
   23fba:	2106      	movs	r1, #6
   23fbc:	2200      	movs	r2, #0
   23fbe:	4613      	mov	r3, r2
   23fc0:	df03      	svc	3
   23fc2:	b029      	add	sp, #164	@ 0xa4
   23fc4:	bdf0      	pop	{r4, r5, r6, r7, pc}
   23fc6:	a805      	add	r0, sp, #20
   23fc8:	7800      	ldrb	r0, [r0, #0]
   23fca:	2802      	cmp	r0, #2
   23fcc:	d00c      	beq.n	23fe8 <_ZN20complex_dynamic_type3app17h80d1b26f97dbfbbaE+0xe8>
   23fce:	2803      	cmp	r0, #3
   23fd0:	d105      	bne.n	23fde <_ZN20complex_dynamic_type3app17h80d1b26f97dbfbbaE+0xde>
   23fd2:	481e      	ldr	r0, [pc, #120]	@ (2404c <_ZN20complex_dynamic_type3app17h80d1b26f97dbfbbaE+0x14c>)
   23fd4:	2106      	movs	r1, #6
   23fd6:	2200      	movs	r2, #0
   23fd8:	4613      	mov	r3, r2
   23fda:	df03      	svc	3
   23fdc:	e004      	b.n	23fe8 <_ZN20complex_dynamic_type3app17h80d1b26f97dbfbbaE+0xe8>
   23fde:	481b      	ldr	r0, [pc, #108]	@ (2404c <_ZN20complex_dynamic_type3app17h80d1b26f97dbfbbaE+0x14c>)
   23fe0:	2106      	movs	r1, #6
   23fe2:	2200      	movs	r2, #0
   23fe4:	4613      	mov	r3, r2
   23fe6:	df04      	svc	4
   23fe8:	a805      	add	r0, sp, #20
   23fea:	9901      	ldr	r1, [sp, #4]
   23fec:	7001      	strb	r1, [r0, #0]
   23fee:	a81a      	add	r0, sp, #104	@ 0x68
   23ff0:	7800      	ldrb	r0, [r0, #0]
   23ff2:	2804      	cmp	r0, #4
   23ff4:	d007      	beq.n	24006 <_ZN20complex_dynamic_type3app17h80d1b26f97dbfbbaE+0x106>
   23ff6:	2803      	cmp	r0, #3
   23ff8:	d11d      	bne.n	24036 <_ZN20complex_dynamic_type3app17h80d1b26f97dbfbbaE+0x136>
   23ffa:	4814      	ldr	r0, [pc, #80]	@ (2404c <_ZN20complex_dynamic_type3app17h80d1b26f97dbfbbaE+0x14c>)
   23ffc:	2107      	movs	r1, #7
   23ffe:	2200      	movs	r2, #0
   24000:	4613      	mov	r3, r2
   24002:	df03      	svc	3
   24004:	e004      	b.n	24010 <_ZN20complex_dynamic_type3app17h80d1b26f97dbfbbaE+0x110>
   24006:	4811      	ldr	r0, [pc, #68]	@ (2404c <_ZN20complex_dynamic_type3app17h80d1b26f97dbfbbaE+0x14c>)
   24008:	2107      	movs	r1, #7
   2400a:	2200      	movs	r2, #0
   2400c:	4613      	mov	r3, r2
   2400e:	df04      	svc	4
   24010:	a805      	add	r0, sp, #20
   24012:	7804      	ldrb	r4, [r0, #0]
   24014:	1c68      	adds	r0, r5, #1
   24016:	223a      	movs	r2, #58	@ 0x3a
   24018:	9902      	ldr	r1, [sp, #8]
   2401a:	f007 f873 	bl	2b104 <__aeabi_memcpy>
   2401e:	702e      	strb	r6, [r5, #0]
   24020:	2c02      	cmp	r4, #2
   24022:	d006      	beq.n	24032 <_ZN20complex_dynamic_type3app17h80d1b26f97dbfbbaE+0x132>
   24024:	4809      	ldr	r0, [pc, #36]	@ (2404c <_ZN20complex_dynamic_type3app17h80d1b26f97dbfbbaE+0x14c>)
   24026:	2106      	movs	r1, #6
   24028:	2200      	movs	r2, #0
   2402a:	4613      	mov	r3, r2
   2402c:	2c04      	cmp	r4, #4
   2402e:	d10a      	bne.n	24046 <_ZN20complex_dynamic_type3app17h80d1b26f97dbfbbaE+0x146>
   24030:	df04      	svc	4
   24032:	b029      	add	sp, #164	@ 0xa4
   24034:	bdf0      	pop	{r4, r5, r6, r7, pc}
   24036:	1c68      	adds	r0, r5, #1
   24038:	223a      	movs	r2, #58	@ 0x3a
   2403a:	4621      	mov	r1, r4
   2403c:	f007 f862 	bl	2b104 <__aeabi_memcpy>
   24040:	702e      	strb	r6, [r5, #0]
   24042:	b029      	add	sp, #164	@ 0xa4
   24044:	bdf0      	pop	{r4, r5, r6, r7, pc}
   24046:	df03      	svc	3
   24048:	b029      	add	sp, #164	@ 0xa4
   2404a:	bdf0      	pop	{r4, r5, r6, r7, pc}
   2404c:	00002645 	.word	0x00002645

00024050 <_ZN20complex_dynamic_type3app17h81527989b2ca2695E>:
   24050:	b5f0      	push	{r4, r5, r6, r7, lr}
   24052:	af03      	add	r7, sp, #12
   24054:	b0ad      	sub	sp, #180	@ 0xb4
   24056:	9003      	str	r0, [sp, #12]
   24058:	a804      	add	r0, sp, #16
   2405a:	2402      	movs	r4, #2
   2405c:	7004      	strb	r4, [r0, #0]
   2405e:	1c46      	adds	r6, r0, #1
   24060:	225d      	movs	r2, #93	@ 0x5d
   24062:	9202      	str	r2, [sp, #8]
   24064:	4630      	mov	r0, r6
   24066:	f007 f84d 	bl	2b104 <__aeabi_memcpy>
   2406a:	ad1c      	add	r5, sp, #112	@ 0x70
   2406c:	1c68      	adds	r0, r5, #1
   2406e:	2140      	movs	r1, #64	@ 0x40
   24070:	9001      	str	r0, [sp, #4]
   24072:	f006 fe87 	bl	2ad84 <__aeabi_memclr>
   24076:	9400      	str	r4, [sp, #0]
   24078:	702c      	strb	r4, [r5, #0]
   2407a:	4848      	ldr	r0, [pc, #288]	@ (2419c <_ZN20complex_dynamic_type3app17h81527989b2ca2695E+0x14c>)
   2407c:	2108      	movs	r1, #8
   2407e:	4632      	mov	r2, r6
   24080:	9b02      	ldr	r3, [sp, #8]
   24082:	df04      	svc	4
   24084:	2802      	cmp	r0, #2
   24086:	d104      	bne.n	24092 <_ZN20complex_dynamic_type3app17h81527989b2ca2695E+0x42>
   24088:	2001      	movs	r0, #1
   2408a:	9a03      	ldr	r2, [sp, #12]
   2408c:	7010      	strb	r0, [r2, #0]
   2408e:	6051      	str	r1, [r2, #4]
   24090:	e02c      	b.n	240ec <_ZN20complex_dynamic_type3app17h81527989b2ca2695E+0x9c>
   24092:	9d03      	ldr	r5, [sp, #12]
   24094:	a804      	add	r0, sp, #16
   24096:	2104      	movs	r1, #4
   24098:	7001      	strb	r1, [r0, #0]
   2409a:	4840      	ldr	r0, [pc, #256]	@ (2419c <_ZN20complex_dynamic_type3app17h81527989b2ca2695E+0x14c>)
   2409c:	2340      	movs	r3, #64	@ 0x40
   2409e:	9c01      	ldr	r4, [sp, #4]
   240a0:	4622      	mov	r2, r4
   240a2:	df03      	svc	3
   240a4:	2802      	cmp	r0, #2
   240a6:	d10e      	bne.n	240c6 <_ZN20complex_dynamic_type3app17h81527989b2ca2695E+0x76>
   240a8:	2001      	movs	r0, #1
   240aa:	7028      	strb	r0, [r5, #0]
   240ac:	6069      	str	r1, [r5, #4]
   240ae:	a81c      	add	r0, sp, #112	@ 0x70
   240b0:	7800      	ldrb	r0, [r0, #0]
   240b2:	2802      	cmp	r0, #2
   240b4:	d01a      	beq.n	240ec <_ZN20complex_dynamic_type3app17h81527989b2ca2695E+0x9c>
   240b6:	2803      	cmp	r0, #3
   240b8:	d013      	beq.n	240e2 <_ZN20complex_dynamic_type3app17h81527989b2ca2695E+0x92>
   240ba:	4838      	ldr	r0, [pc, #224]	@ (2419c <_ZN20complex_dynamic_type3app17h81527989b2ca2695E+0x14c>)
   240bc:	2104      	movs	r1, #4
   240be:	2200      	movs	r2, #0
   240c0:	4613      	mov	r3, r2
   240c2:	df04      	svc	4
   240c4:	e012      	b.n	240ec <_ZN20complex_dynamic_type3app17h81527989b2ca2695E+0x9c>
   240c6:	a81c      	add	r0, sp, #112	@ 0x70
   240c8:	2103      	movs	r1, #3
   240ca:	7001      	strb	r1, [r0, #0]
   240cc:	4833      	ldr	r0, [pc, #204]	@ (2419c <_ZN20complex_dynamic_type3app17h81527989b2ca2695E+0x14c>)
   240ce:	2108      	movs	r1, #8
   240d0:	2204      	movs	r2, #4
   240d2:	2600      	movs	r6, #0
   240d4:	4633      	mov	r3, r6
   240d6:	df02      	svc	2
   240d8:	2880      	cmp	r0, #128	@ 0x80
   240da:	d21b      	bcs.n	24114 <_ZN20complex_dynamic_type3app17h81527989b2ca2695E+0xc4>
   240dc:	2001      	movs	r0, #1
   240de:	7028      	strb	r0, [r5, #0]
   240e0:	6069      	str	r1, [r5, #4]
   240e2:	482e      	ldr	r0, [pc, #184]	@ (2419c <_ZN20complex_dynamic_type3app17h81527989b2ca2695E+0x14c>)
   240e4:	2104      	movs	r1, #4
   240e6:	2200      	movs	r2, #0
   240e8:	4613      	mov	r3, r2
   240ea:	df03      	svc	3
   240ec:	a804      	add	r0, sp, #16
   240ee:	7800      	ldrb	r0, [r0, #0]
   240f0:	2802      	cmp	r0, #2
   240f2:	d045      	beq.n	24180 <_ZN20complex_dynamic_type3app17h81527989b2ca2695E+0x130>
   240f4:	2804      	cmp	r0, #4
   240f6:	d106      	bne.n	24106 <_ZN20complex_dynamic_type3app17h81527989b2ca2695E+0xb6>
   240f8:	4828      	ldr	r0, [pc, #160]	@ (2419c <_ZN20complex_dynamic_type3app17h81527989b2ca2695E+0x14c>)
   240fa:	2108      	movs	r1, #8
   240fc:	2200      	movs	r2, #0
   240fe:	4613      	mov	r3, r2
   24100:	df04      	svc	4
   24102:	b02d      	add	sp, #180	@ 0xb4
   24104:	bdf0      	pop	{r4, r5, r6, r7, pc}
   24106:	4825      	ldr	r0, [pc, #148]	@ (2419c <_ZN20complex_dynamic_type3app17h81527989b2ca2695E+0x14c>)
   24108:	2108      	movs	r1, #8
   2410a:	2200      	movs	r2, #0
   2410c:	4613      	mov	r3, r2
   2410e:	df03      	svc	3
   24110:	b02d      	add	sp, #180	@ 0xb4
   24112:	bdf0      	pop	{r4, r5, r6, r7, pc}
   24114:	a804      	add	r0, sp, #16
   24116:	7800      	ldrb	r0, [r0, #0]
   24118:	2802      	cmp	r0, #2
   2411a:	d00c      	beq.n	24136 <_ZN20complex_dynamic_type3app17h81527989b2ca2695E+0xe6>
   2411c:	2803      	cmp	r0, #3
   2411e:	d105      	bne.n	2412c <_ZN20complex_dynamic_type3app17h81527989b2ca2695E+0xdc>
   24120:	481e      	ldr	r0, [pc, #120]	@ (2419c <_ZN20complex_dynamic_type3app17h81527989b2ca2695E+0x14c>)
   24122:	2108      	movs	r1, #8
   24124:	2200      	movs	r2, #0
   24126:	4613      	mov	r3, r2
   24128:	df03      	svc	3
   2412a:	e004      	b.n	24136 <_ZN20complex_dynamic_type3app17h81527989b2ca2695E+0xe6>
   2412c:	481b      	ldr	r0, [pc, #108]	@ (2419c <_ZN20complex_dynamic_type3app17h81527989b2ca2695E+0x14c>)
   2412e:	2108      	movs	r1, #8
   24130:	2200      	movs	r2, #0
   24132:	4613      	mov	r3, r2
   24134:	df04      	svc	4
   24136:	a804      	add	r0, sp, #16
   24138:	9900      	ldr	r1, [sp, #0]
   2413a:	7001      	strb	r1, [r0, #0]
   2413c:	a81c      	add	r0, sp, #112	@ 0x70
   2413e:	7800      	ldrb	r0, [r0, #0]
   24140:	2804      	cmp	r0, #4
   24142:	d007      	beq.n	24154 <_ZN20complex_dynamic_type3app17h81527989b2ca2695E+0x104>
   24144:	2803      	cmp	r0, #3
   24146:	d11d      	bne.n	24184 <_ZN20complex_dynamic_type3app17h81527989b2ca2695E+0x134>
   24148:	4814      	ldr	r0, [pc, #80]	@ (2419c <_ZN20complex_dynamic_type3app17h81527989b2ca2695E+0x14c>)
   2414a:	2104      	movs	r1, #4
   2414c:	2200      	movs	r2, #0
   2414e:	4613      	mov	r3, r2
   24150:	df03      	svc	3
   24152:	e004      	b.n	2415e <_ZN20complex_dynamic_type3app17h81527989b2ca2695E+0x10e>
   24154:	4811      	ldr	r0, [pc, #68]	@ (2419c <_ZN20complex_dynamic_type3app17h81527989b2ca2695E+0x14c>)
   24156:	2104      	movs	r1, #4
   24158:	2200      	movs	r2, #0
   2415a:	4613      	mov	r3, r2
   2415c:	df04      	svc	4
   2415e:	a804      	add	r0, sp, #16
   24160:	7804      	ldrb	r4, [r0, #0]
   24162:	1c68      	adds	r0, r5, #1
   24164:	2240      	movs	r2, #64	@ 0x40
   24166:	9901      	ldr	r1, [sp, #4]
   24168:	f006 ffcc 	bl	2b104 <__aeabi_memcpy>
   2416c:	702e      	strb	r6, [r5, #0]
   2416e:	2c02      	cmp	r4, #2
   24170:	d006      	beq.n	24180 <_ZN20complex_dynamic_type3app17h81527989b2ca2695E+0x130>
   24172:	480a      	ldr	r0, [pc, #40]	@ (2419c <_ZN20complex_dynamic_type3app17h81527989b2ca2695E+0x14c>)
   24174:	2108      	movs	r1, #8
   24176:	2200      	movs	r2, #0
   24178:	4613      	mov	r3, r2
   2417a:	2c04      	cmp	r4, #4
   2417c:	d10a      	bne.n	24194 <_ZN20complex_dynamic_type3app17h81527989b2ca2695E+0x144>
   2417e:	df04      	svc	4
   24180:	b02d      	add	sp, #180	@ 0xb4
   24182:	bdf0      	pop	{r4, r5, r6, r7, pc}
   24184:	1c68      	adds	r0, r5, #1
   24186:	2240      	movs	r2, #64	@ 0x40
   24188:	4621      	mov	r1, r4
   2418a:	f006 ffbb 	bl	2b104 <__aeabi_memcpy>
   2418e:	702e      	strb	r6, [r5, #0]
   24190:	b02d      	add	sp, #180	@ 0xb4
   24192:	bdf0      	pop	{r4, r5, r6, r7, pc}
   24194:	df03      	svc	3
   24196:	b02d      	add	sp, #180	@ 0xb4
   24198:	bdf0      	pop	{r4, r5, r6, r7, pc}
   2419a:	46c0      	nop			@ (mov r8, r8)
   2419c:	00001028 	.word	0x00001028

000241a0 <_ZN20complex_dynamic_type3app17h8604701c2fa17affE>:
   241a0:	b5f0      	push	{r4, r5, r6, r7, lr}
   241a2:	af03      	add	r7, sp, #12
   241a4:	b09d      	sub	sp, #116	@ 0x74
   241a6:	9004      	str	r0, [sp, #16]
   241a8:	a805      	add	r0, sp, #20
   241aa:	2602      	movs	r6, #2
   241ac:	7006      	strb	r6, [r0, #0]
   241ae:	1c40      	adds	r0, r0, #1
   241b0:	9003      	str	r0, [sp, #12]
   241b2:	251e      	movs	r5, #30
   241b4:	462a      	mov	r2, r5
   241b6:	f006 ffa5 	bl	2b104 <__aeabi_memcpy>
   241ba:	ac0d      	add	r4, sp, #52	@ 0x34
   241bc:	1c60      	adds	r0, r4, #1
   241be:	213c      	movs	r1, #60	@ 0x3c
   241c0:	9002      	str	r0, [sp, #8]
   241c2:	f006 fddf 	bl	2ad84 <__aeabi_memclr>
   241c6:	7026      	strb	r6, [r4, #0]
   241c8:	484a      	ldr	r0, [pc, #296]	@ (242f4 <_ZN20complex_dynamic_type3app17h8604701c2fa17affE+0x154>)
   241ca:	4631      	mov	r1, r6
   241cc:	9a03      	ldr	r2, [sp, #12]
   241ce:	462b      	mov	r3, r5
   241d0:	df04      	svc	4
   241d2:	2802      	cmp	r0, #2
   241d4:	d104      	bne.n	241e0 <_ZN20complex_dynamic_type3app17h8604701c2fa17affE+0x40>
   241d6:	2001      	movs	r0, #1
   241d8:	9a04      	ldr	r2, [sp, #16]
   241da:	7010      	strb	r0, [r2, #0]
   241dc:	6051      	str	r1, [r2, #4]
   241de:	e02e      	b.n	2423e <_ZN20complex_dynamic_type3app17h8604701c2fa17affE+0x9e>
   241e0:	9d04      	ldr	r5, [sp, #16]
   241e2:	a805      	add	r0, sp, #20
   241e4:	2104      	movs	r1, #4
   241e6:	7001      	strb	r1, [r0, #0]
   241e8:	4842      	ldr	r0, [pc, #264]	@ (242f4 <_ZN20complex_dynamic_type3app17h8604701c2fa17affE+0x154>)
   241ea:	2603      	movs	r6, #3
   241ec:	233c      	movs	r3, #60	@ 0x3c
   241ee:	4631      	mov	r1, r6
   241f0:	9c02      	ldr	r4, [sp, #8]
   241f2:	4622      	mov	r2, r4
   241f4:	df03      	svc	3
   241f6:	2802      	cmp	r0, #2
   241f8:	d10e      	bne.n	24218 <_ZN20complex_dynamic_type3app17h8604701c2fa17affE+0x78>
   241fa:	2001      	movs	r0, #1
   241fc:	7028      	strb	r0, [r5, #0]
   241fe:	6069      	str	r1, [r5, #4]
   24200:	a80d      	add	r0, sp, #52	@ 0x34
   24202:	7800      	ldrb	r0, [r0, #0]
   24204:	2802      	cmp	r0, #2
   24206:	d01a      	beq.n	2423e <_ZN20complex_dynamic_type3app17h8604701c2fa17affE+0x9e>
   24208:	2803      	cmp	r0, #3
   2420a:	d013      	beq.n	24234 <_ZN20complex_dynamic_type3app17h8604701c2fa17affE+0x94>
   2420c:	4839      	ldr	r0, [pc, #228]	@ (242f4 <_ZN20complex_dynamic_type3app17h8604701c2fa17affE+0x154>)
   2420e:	2103      	movs	r1, #3
   24210:	2200      	movs	r2, #0
   24212:	4613      	mov	r3, r2
   24214:	df04      	svc	4
   24216:	e012      	b.n	2423e <_ZN20complex_dynamic_type3app17h8604701c2fa17affE+0x9e>
   24218:	a80d      	add	r0, sp, #52	@ 0x34
   2421a:	7006      	strb	r6, [r0, #0]
   2421c:	4835      	ldr	r0, [pc, #212]	@ (242f4 <_ZN20complex_dynamic_type3app17h8604701c2fa17affE+0x154>)
   2421e:	2102      	movs	r1, #2
   24220:	2300      	movs	r3, #0
   24222:	9101      	str	r1, [sp, #4]
   24224:	4632      	mov	r2, r6
   24226:	9303      	str	r3, [sp, #12]
   24228:	df02      	svc	2
   2422a:	2880      	cmp	r0, #128	@ 0x80
   2422c:	d21b      	bcs.n	24266 <_ZN20complex_dynamic_type3app17h8604701c2fa17affE+0xc6>
   2422e:	2001      	movs	r0, #1
   24230:	7028      	strb	r0, [r5, #0]
   24232:	6069      	str	r1, [r5, #4]
   24234:	482f      	ldr	r0, [pc, #188]	@ (242f4 <_ZN20complex_dynamic_type3app17h8604701c2fa17affE+0x154>)
   24236:	2103      	movs	r1, #3
   24238:	2200      	movs	r2, #0
   2423a:	4613      	mov	r3, r2
   2423c:	df03      	svc	3
   2423e:	a805      	add	r0, sp, #20
   24240:	7800      	ldrb	r0, [r0, #0]
   24242:	2802      	cmp	r0, #2
   24244:	d048      	beq.n	242d8 <_ZN20complex_dynamic_type3app17h8604701c2fa17affE+0x138>
   24246:	2804      	cmp	r0, #4
   24248:	d106      	bne.n	24258 <_ZN20complex_dynamic_type3app17h8604701c2fa17affE+0xb8>
   2424a:	482a      	ldr	r0, [pc, #168]	@ (242f4 <_ZN20complex_dynamic_type3app17h8604701c2fa17affE+0x154>)
   2424c:	2102      	movs	r1, #2
   2424e:	2200      	movs	r2, #0
   24250:	4613      	mov	r3, r2
   24252:	df04      	svc	4
   24254:	b01d      	add	sp, #116	@ 0x74
   24256:	bdf0      	pop	{r4, r5, r6, r7, pc}
   24258:	4826      	ldr	r0, [pc, #152]	@ (242f4 <_ZN20complex_dynamic_type3app17h8604701c2fa17affE+0x154>)
   2425a:	2102      	movs	r1, #2
   2425c:	2200      	movs	r2, #0
   2425e:	4613      	mov	r3, r2
   24260:	df03      	svc	3
   24262:	b01d      	add	sp, #116	@ 0x74
   24264:	bdf0      	pop	{r4, r5, r6, r7, pc}
   24266:	a805      	add	r0, sp, #20
   24268:	7800      	ldrb	r0, [r0, #0]
   2426a:	2802      	cmp	r0, #2
   2426c:	d00c      	beq.n	24288 <_ZN20complex_dynamic_type3app17h8604701c2fa17affE+0xe8>
   2426e:	2803      	cmp	r0, #3
   24270:	d105      	bne.n	2427e <_ZN20complex_dynamic_type3app17h8604701c2fa17affE+0xde>
   24272:	4820      	ldr	r0, [pc, #128]	@ (242f4 <_ZN20complex_dynamic_type3app17h8604701c2fa17affE+0x154>)
   24274:	2102      	movs	r1, #2
   24276:	2200      	movs	r2, #0
   24278:	4613      	mov	r3, r2
   2427a:	df03      	svc	3
   2427c:	e004      	b.n	24288 <_ZN20complex_dynamic_type3app17h8604701c2fa17affE+0xe8>
   2427e:	481d      	ldr	r0, [pc, #116]	@ (242f4 <_ZN20complex_dynamic_type3app17h8604701c2fa17affE+0x154>)
   24280:	2102      	movs	r1, #2
   24282:	2200      	movs	r2, #0
   24284:	4613      	mov	r3, r2
   24286:	df04      	svc	4
   24288:	a805      	add	r0, sp, #20
   2428a:	9901      	ldr	r1, [sp, #4]
   2428c:	7001      	strb	r1, [r0, #0]
   2428e:	a80d      	add	r0, sp, #52	@ 0x34
   24290:	7800      	ldrb	r0, [r0, #0]
   24292:	2804      	cmp	r0, #4
   24294:	d008      	beq.n	242a8 <_ZN20complex_dynamic_type3app17h8604701c2fa17affE+0x108>
   24296:	2803      	cmp	r0, #3
   24298:	d120      	bne.n	242dc <_ZN20complex_dynamic_type3app17h8604701c2fa17affE+0x13c>
   2429a:	4626      	mov	r6, r4
   2429c:	4815      	ldr	r0, [pc, #84]	@ (242f4 <_ZN20complex_dynamic_type3app17h8604701c2fa17affE+0x154>)
   2429e:	2103      	movs	r1, #3
   242a0:	2200      	movs	r2, #0
   242a2:	4613      	mov	r3, r2
   242a4:	df03      	svc	3
   242a6:	e005      	b.n	242b4 <_ZN20complex_dynamic_type3app17h8604701c2fa17affE+0x114>
   242a8:	4626      	mov	r6, r4
   242aa:	4812      	ldr	r0, [pc, #72]	@ (242f4 <_ZN20complex_dynamic_type3app17h8604701c2fa17affE+0x154>)
   242ac:	2103      	movs	r1, #3
   242ae:	2200      	movs	r2, #0
   242b0:	4613      	mov	r3, r2
   242b2:	df04      	svc	4
   242b4:	a805      	add	r0, sp, #20
   242b6:	7804      	ldrb	r4, [r0, #0]
   242b8:	1c68      	adds	r0, r5, #1
   242ba:	223c      	movs	r2, #60	@ 0x3c
   242bc:	4631      	mov	r1, r6
   242be:	f006 ff21 	bl	2b104 <__aeabi_memcpy>
   242c2:	9803      	ldr	r0, [sp, #12]
   242c4:	7028      	strb	r0, [r5, #0]
   242c6:	2c02      	cmp	r4, #2
   242c8:	d006      	beq.n	242d8 <_ZN20complex_dynamic_type3app17h8604701c2fa17affE+0x138>
   242ca:	480a      	ldr	r0, [pc, #40]	@ (242f4 <_ZN20complex_dynamic_type3app17h8604701c2fa17affE+0x154>)
   242cc:	2102      	movs	r1, #2
   242ce:	2200      	movs	r2, #0
   242d0:	4613      	mov	r3, r2
   242d2:	2c04      	cmp	r4, #4
   242d4:	d10b      	bne.n	242ee <_ZN20complex_dynamic_type3app17h8604701c2fa17affE+0x14e>
   242d6:	df04      	svc	4
   242d8:	b01d      	add	sp, #116	@ 0x74
   242da:	bdf0      	pop	{r4, r5, r6, r7, pc}
   242dc:	1c68      	adds	r0, r5, #1
   242de:	223c      	movs	r2, #60	@ 0x3c
   242e0:	4621      	mov	r1, r4
   242e2:	f006 ff0f 	bl	2b104 <__aeabi_memcpy>
   242e6:	9803      	ldr	r0, [sp, #12]
   242e8:	7028      	strb	r0, [r5, #0]
   242ea:	b01d      	add	sp, #116	@ 0x74
   242ec:	bdf0      	pop	{r4, r5, r6, r7, pc}
   242ee:	df03      	svc	3
   242f0:	b01d      	add	sp, #116	@ 0x74
   242f2:	bdf0      	pop	{r4, r5, r6, r7, pc}
   242f4:	00000b3c 	.word	0x00000b3c

000242f8 <_ZN20complex_dynamic_type3app17h87e46f50524c5325E>:
   242f8:	b5f0      	push	{r4, r5, r6, r7, lr}
   242fa:	af03      	add	r7, sp, #12
   242fc:	b09f      	sub	sp, #124	@ 0x7c
   242fe:	9004      	str	r0, [sp, #16]
   24300:	a805      	add	r0, sp, #20
   24302:	2402      	movs	r4, #2
   24304:	7004      	strb	r4, [r0, #0]
   24306:	1c46      	adds	r6, r0, #1
   24308:	2211      	movs	r2, #17
   2430a:	9203      	str	r2, [sp, #12]
   2430c:	4630      	mov	r0, r6
   2430e:	f006 fef9 	bl	2b104 <__aeabi_memcpy>
   24312:	ad0a      	add	r5, sp, #40	@ 0x28
   24314:	1c68      	adds	r0, r5, #1
   24316:	2150      	movs	r1, #80	@ 0x50
   24318:	9002      	str	r0, [sp, #8]
   2431a:	f006 fd33 	bl	2ad84 <__aeabi_memclr>
   2431e:	9401      	str	r4, [sp, #4]
   24320:	702c      	strb	r4, [r5, #0]
   24322:	4848      	ldr	r0, [pc, #288]	@ (24444 <_ZN20complex_dynamic_type3app17h87e46f50524c5325E+0x14c>)
   24324:	2106      	movs	r1, #6
   24326:	4632      	mov	r2, r6
   24328:	9b03      	ldr	r3, [sp, #12]
   2432a:	df04      	svc	4
   2432c:	2802      	cmp	r0, #2
   2432e:	d104      	bne.n	2433a <_ZN20complex_dynamic_type3app17h87e46f50524c5325E+0x42>
   24330:	2001      	movs	r0, #1
   24332:	9a04      	ldr	r2, [sp, #16]
   24334:	7010      	strb	r0, [r2, #0]
   24336:	6051      	str	r1, [r2, #4]
   24338:	e02d      	b.n	24396 <_ZN20complex_dynamic_type3app17h87e46f50524c5325E+0x9e>
   2433a:	9d04      	ldr	r5, [sp, #16]
   2433c:	a805      	add	r0, sp, #20
   2433e:	2104      	movs	r1, #4
   24340:	7001      	strb	r1, [r0, #0]
   24342:	4840      	ldr	r0, [pc, #256]	@ (24444 <_ZN20complex_dynamic_type3app17h87e46f50524c5325E+0x14c>)
   24344:	2105      	movs	r1, #5
   24346:	2350      	movs	r3, #80	@ 0x50
   24348:	9c02      	ldr	r4, [sp, #8]
   2434a:	4622      	mov	r2, r4
   2434c:	df03      	svc	3
   2434e:	2802      	cmp	r0, #2
   24350:	d10e      	bne.n	24370 <_ZN20complex_dynamic_type3app17h87e46f50524c5325E+0x78>
   24352:	2001      	movs	r0, #1
   24354:	7028      	strb	r0, [r5, #0]
   24356:	6069      	str	r1, [r5, #4]
   24358:	a80a      	add	r0, sp, #40	@ 0x28
   2435a:	7800      	ldrb	r0, [r0, #0]
   2435c:	2802      	cmp	r0, #2
   2435e:	d01a      	beq.n	24396 <_ZN20complex_dynamic_type3app17h87e46f50524c5325E+0x9e>
   24360:	2803      	cmp	r0, #3
   24362:	d013      	beq.n	2438c <_ZN20complex_dynamic_type3app17h87e46f50524c5325E+0x94>
   24364:	4837      	ldr	r0, [pc, #220]	@ (24444 <_ZN20complex_dynamic_type3app17h87e46f50524c5325E+0x14c>)
   24366:	2105      	movs	r1, #5
   24368:	2200      	movs	r2, #0
   2436a:	4613      	mov	r3, r2
   2436c:	df04      	svc	4
   2436e:	e012      	b.n	24396 <_ZN20complex_dynamic_type3app17h87e46f50524c5325E+0x9e>
   24370:	a80a      	add	r0, sp, #40	@ 0x28
   24372:	2103      	movs	r1, #3
   24374:	7001      	strb	r1, [r0, #0]
   24376:	4833      	ldr	r0, [pc, #204]	@ (24444 <_ZN20complex_dynamic_type3app17h87e46f50524c5325E+0x14c>)
   24378:	2106      	movs	r1, #6
   2437a:	2205      	movs	r2, #5
   2437c:	2600      	movs	r6, #0
   2437e:	4633      	mov	r3, r6
   24380:	df02      	svc	2
   24382:	2880      	cmp	r0, #128	@ 0x80
   24384:	d21b      	bcs.n	243be <_ZN20complex_dynamic_type3app17h87e46f50524c5325E+0xc6>
   24386:	2001      	movs	r0, #1
   24388:	7028      	strb	r0, [r5, #0]
   2438a:	6069      	str	r1, [r5, #4]
   2438c:	482d      	ldr	r0, [pc, #180]	@ (24444 <_ZN20complex_dynamic_type3app17h87e46f50524c5325E+0x14c>)
   2438e:	2105      	movs	r1, #5
   24390:	2200      	movs	r2, #0
   24392:	4613      	mov	r3, r2
   24394:	df03      	svc	3
   24396:	a805      	add	r0, sp, #20
   24398:	7800      	ldrb	r0, [r0, #0]
   2439a:	2802      	cmp	r0, #2
   2439c:	d045      	beq.n	2442a <_ZN20complex_dynamic_type3app17h87e46f50524c5325E+0x132>
   2439e:	2804      	cmp	r0, #4
   243a0:	d106      	bne.n	243b0 <_ZN20complex_dynamic_type3app17h87e46f50524c5325E+0xb8>
   243a2:	4828      	ldr	r0, [pc, #160]	@ (24444 <_ZN20complex_dynamic_type3app17h87e46f50524c5325E+0x14c>)
   243a4:	2106      	movs	r1, #6
   243a6:	2200      	movs	r2, #0
   243a8:	4613      	mov	r3, r2
   243aa:	df04      	svc	4
   243ac:	b01f      	add	sp, #124	@ 0x7c
   243ae:	bdf0      	pop	{r4, r5, r6, r7, pc}
   243b0:	4824      	ldr	r0, [pc, #144]	@ (24444 <_ZN20complex_dynamic_type3app17h87e46f50524c5325E+0x14c>)
   243b2:	2106      	movs	r1, #6
   243b4:	2200      	movs	r2, #0
   243b6:	4613      	mov	r3, r2
   243b8:	df03      	svc	3
   243ba:	b01f      	add	sp, #124	@ 0x7c
   243bc:	bdf0      	pop	{r4, r5, r6, r7, pc}
   243be:	a805      	add	r0, sp, #20
   243c0:	7800      	ldrb	r0, [r0, #0]
   243c2:	2802      	cmp	r0, #2
   243c4:	d00c      	beq.n	243e0 <_ZN20complex_dynamic_type3app17h87e46f50524c5325E+0xe8>
   243c6:	2803      	cmp	r0, #3
   243c8:	d105      	bne.n	243d6 <_ZN20complex_dynamic_type3app17h87e46f50524c5325E+0xde>
   243ca:	481e      	ldr	r0, [pc, #120]	@ (24444 <_ZN20complex_dynamic_type3app17h87e46f50524c5325E+0x14c>)
   243cc:	2106      	movs	r1, #6
   243ce:	2200      	movs	r2, #0
   243d0:	4613      	mov	r3, r2
   243d2:	df03      	svc	3
   243d4:	e004      	b.n	243e0 <_ZN20complex_dynamic_type3app17h87e46f50524c5325E+0xe8>
   243d6:	481b      	ldr	r0, [pc, #108]	@ (24444 <_ZN20complex_dynamic_type3app17h87e46f50524c5325E+0x14c>)
   243d8:	2106      	movs	r1, #6
   243da:	2200      	movs	r2, #0
   243dc:	4613      	mov	r3, r2
   243de:	df04      	svc	4
   243e0:	a805      	add	r0, sp, #20
   243e2:	9901      	ldr	r1, [sp, #4]
   243e4:	7001      	strb	r1, [r0, #0]
   243e6:	a80a      	add	r0, sp, #40	@ 0x28
   243e8:	7800      	ldrb	r0, [r0, #0]
   243ea:	2804      	cmp	r0, #4
   243ec:	d007      	beq.n	243fe <_ZN20complex_dynamic_type3app17h87e46f50524c5325E+0x106>
   243ee:	2803      	cmp	r0, #3
   243f0:	d11d      	bne.n	2442e <_ZN20complex_dynamic_type3app17h87e46f50524c5325E+0x136>
   243f2:	4814      	ldr	r0, [pc, #80]	@ (24444 <_ZN20complex_dynamic_type3app17h87e46f50524c5325E+0x14c>)
   243f4:	2105      	movs	r1, #5
   243f6:	2200      	movs	r2, #0
   243f8:	4613      	mov	r3, r2
   243fa:	df03      	svc	3
   243fc:	e004      	b.n	24408 <_ZN20complex_dynamic_type3app17h87e46f50524c5325E+0x110>
   243fe:	4811      	ldr	r0, [pc, #68]	@ (24444 <_ZN20complex_dynamic_type3app17h87e46f50524c5325E+0x14c>)
   24400:	2105      	movs	r1, #5
   24402:	2200      	movs	r2, #0
   24404:	4613      	mov	r3, r2
   24406:	df04      	svc	4
   24408:	a805      	add	r0, sp, #20
   2440a:	7804      	ldrb	r4, [r0, #0]
   2440c:	1c68      	adds	r0, r5, #1
   2440e:	2250      	movs	r2, #80	@ 0x50
   24410:	9902      	ldr	r1, [sp, #8]
   24412:	f006 fe77 	bl	2b104 <__aeabi_memcpy>
   24416:	702e      	strb	r6, [r5, #0]
   24418:	2c02      	cmp	r4, #2
   2441a:	d006      	beq.n	2442a <_ZN20complex_dynamic_type3app17h87e46f50524c5325E+0x132>
   2441c:	4809      	ldr	r0, [pc, #36]	@ (24444 <_ZN20complex_dynamic_type3app17h87e46f50524c5325E+0x14c>)
   2441e:	2106      	movs	r1, #6
   24420:	2200      	movs	r2, #0
   24422:	4613      	mov	r3, r2
   24424:	2c04      	cmp	r4, #4
   24426:	d10a      	bne.n	2443e <_ZN20complex_dynamic_type3app17h87e46f50524c5325E+0x146>
   24428:	df04      	svc	4
   2442a:	b01f      	add	sp, #124	@ 0x7c
   2442c:	bdf0      	pop	{r4, r5, r6, r7, pc}
   2442e:	1c68      	adds	r0, r5, #1
   24430:	2250      	movs	r2, #80	@ 0x50
   24432:	4621      	mov	r1, r4
   24434:	f006 fe66 	bl	2b104 <__aeabi_memcpy>
   24438:	702e      	strb	r6, [r5, #0]
   2443a:	b01f      	add	sp, #124	@ 0x7c
   2443c:	bdf0      	pop	{r4, r5, r6, r7, pc}
   2443e:	df03      	svc	3
   24440:	b01f      	add	sp, #124	@ 0x7c
   24442:	bdf0      	pop	{r4, r5, r6, r7, pc}
   24444:	00001aa9 	.word	0x00001aa9

00024448 <_ZN20complex_dynamic_type3app17h882996449019b6bbE>:
   24448:	b5f0      	push	{r4, r5, r6, r7, lr}
   2444a:	af03      	add	r7, sp, #12
   2444c:	b09b      	sub	sp, #108	@ 0x6c
   2444e:	9003      	str	r0, [sp, #12]
   24450:	a804      	add	r0, sp, #16
   24452:	2402      	movs	r4, #2
   24454:	7004      	strb	r4, [r0, #0]
   24456:	1c40      	adds	r0, r0, #1
   24458:	9002      	str	r0, [sp, #8]
   2445a:	250e      	movs	r5, #14
   2445c:	462a      	mov	r2, r5
   2445e:	f006 fe51 	bl	2b104 <__aeabi_memcpy>
   24462:	ae08      	add	r6, sp, #32
   24464:	1c70      	adds	r0, r6, #1
   24466:	2148      	movs	r1, #72	@ 0x48
   24468:	9001      	str	r0, [sp, #4]
   2446a:	f006 fc8b 	bl	2ad84 <__aeabi_memclr>
   2446e:	9400      	str	r4, [sp, #0]
   24470:	7034      	strb	r4, [r6, #0]
   24472:	484a      	ldr	r0, [pc, #296]	@ (2459c <_ZN20complex_dynamic_type3app17h882996449019b6bbE+0x154>)
   24474:	2603      	movs	r6, #3
   24476:	4631      	mov	r1, r6
   24478:	9a02      	ldr	r2, [sp, #8]
   2447a:	462b      	mov	r3, r5
   2447c:	df04      	svc	4
   2447e:	2802      	cmp	r0, #2
   24480:	d104      	bne.n	2448c <_ZN20complex_dynamic_type3app17h882996449019b6bbE+0x44>
   24482:	2001      	movs	r0, #1
   24484:	9a03      	ldr	r2, [sp, #12]
   24486:	7010      	strb	r0, [r2, #0]
   24488:	6051      	str	r1, [r2, #4]
   2448a:	e02c      	b.n	244e6 <_ZN20complex_dynamic_type3app17h882996449019b6bbE+0x9e>
   2448c:	9d03      	ldr	r5, [sp, #12]
   2448e:	a804      	add	r0, sp, #16
   24490:	2104      	movs	r1, #4
   24492:	7001      	strb	r1, [r0, #0]
   24494:	4841      	ldr	r0, [pc, #260]	@ (2459c <_ZN20complex_dynamic_type3app17h882996449019b6bbE+0x154>)
   24496:	2108      	movs	r1, #8
   24498:	2348      	movs	r3, #72	@ 0x48
   2449a:	9c01      	ldr	r4, [sp, #4]
   2449c:	4622      	mov	r2, r4
   2449e:	df03      	svc	3
   244a0:	2802      	cmp	r0, #2
   244a2:	d10e      	bne.n	244c2 <_ZN20complex_dynamic_type3app17h882996449019b6bbE+0x7a>
   244a4:	2001      	movs	r0, #1
   244a6:	7028      	strb	r0, [r5, #0]
   244a8:	6069      	str	r1, [r5, #4]
   244aa:	a808      	add	r0, sp, #32
   244ac:	7800      	ldrb	r0, [r0, #0]
   244ae:	2802      	cmp	r0, #2
   244b0:	d019      	beq.n	244e6 <_ZN20complex_dynamic_type3app17h882996449019b6bbE+0x9e>
   244b2:	2803      	cmp	r0, #3
   244b4:	d012      	beq.n	244dc <_ZN20complex_dynamic_type3app17h882996449019b6bbE+0x94>
   244b6:	4839      	ldr	r0, [pc, #228]	@ (2459c <_ZN20complex_dynamic_type3app17h882996449019b6bbE+0x154>)
   244b8:	2108      	movs	r1, #8
   244ba:	2200      	movs	r2, #0
   244bc:	4613      	mov	r3, r2
   244be:	df04      	svc	4
   244c0:	e011      	b.n	244e6 <_ZN20complex_dynamic_type3app17h882996449019b6bbE+0x9e>
   244c2:	a808      	add	r0, sp, #32
   244c4:	7006      	strb	r6, [r0, #0]
   244c6:	4835      	ldr	r0, [pc, #212]	@ (2459c <_ZN20complex_dynamic_type3app17h882996449019b6bbE+0x154>)
   244c8:	2208      	movs	r2, #8
   244ca:	2300      	movs	r3, #0
   244cc:	4631      	mov	r1, r6
   244ce:	9302      	str	r3, [sp, #8]
   244d0:	df02      	svc	2
   244d2:	2880      	cmp	r0, #128	@ 0x80
   244d4:	d21b      	bcs.n	2450e <_ZN20complex_dynamic_type3app17h882996449019b6bbE+0xc6>
   244d6:	2001      	movs	r0, #1
   244d8:	7028      	strb	r0, [r5, #0]
   244da:	6069      	str	r1, [r5, #4]
   244dc:	482f      	ldr	r0, [pc, #188]	@ (2459c <_ZN20complex_dynamic_type3app17h882996449019b6bbE+0x154>)
   244de:	2108      	movs	r1, #8
   244e0:	2200      	movs	r2, #0
   244e2:	4613      	mov	r3, r2
   244e4:	df03      	svc	3
   244e6:	a804      	add	r0, sp, #16
   244e8:	7800      	ldrb	r0, [r0, #0]
   244ea:	2802      	cmp	r0, #2
   244ec:	d048      	beq.n	24580 <_ZN20complex_dynamic_type3app17h882996449019b6bbE+0x138>
   244ee:	2804      	cmp	r0, #4
   244f0:	d106      	bne.n	24500 <_ZN20complex_dynamic_type3app17h882996449019b6bbE+0xb8>
   244f2:	482a      	ldr	r0, [pc, #168]	@ (2459c <_ZN20complex_dynamic_type3app17h882996449019b6bbE+0x154>)
   244f4:	2103      	movs	r1, #3
   244f6:	2200      	movs	r2, #0
   244f8:	4613      	mov	r3, r2
   244fa:	df04      	svc	4
   244fc:	b01b      	add	sp, #108	@ 0x6c
   244fe:	bdf0      	pop	{r4, r5, r6, r7, pc}
   24500:	4826      	ldr	r0, [pc, #152]	@ (2459c <_ZN20complex_dynamic_type3app17h882996449019b6bbE+0x154>)
   24502:	2103      	movs	r1, #3
   24504:	2200      	movs	r2, #0
   24506:	4613      	mov	r3, r2
   24508:	df03      	svc	3
   2450a:	b01b      	add	sp, #108	@ 0x6c
   2450c:	bdf0      	pop	{r4, r5, r6, r7, pc}
   2450e:	a804      	add	r0, sp, #16
   24510:	7800      	ldrb	r0, [r0, #0]
   24512:	2802      	cmp	r0, #2
   24514:	d00c      	beq.n	24530 <_ZN20complex_dynamic_type3app17h882996449019b6bbE+0xe8>
   24516:	2803      	cmp	r0, #3
   24518:	d105      	bne.n	24526 <_ZN20complex_dynamic_type3app17h882996449019b6bbE+0xde>
   2451a:	4820      	ldr	r0, [pc, #128]	@ (2459c <_ZN20complex_dynamic_type3app17h882996449019b6bbE+0x154>)
   2451c:	2103      	movs	r1, #3
   2451e:	2200      	movs	r2, #0
   24520:	4613      	mov	r3, r2
   24522:	df03      	svc	3
   24524:	e004      	b.n	24530 <_ZN20complex_dynamic_type3app17h882996449019b6bbE+0xe8>
   24526:	481d      	ldr	r0, [pc, #116]	@ (2459c <_ZN20complex_dynamic_type3app17h882996449019b6bbE+0x154>)
   24528:	2103      	movs	r1, #3
   2452a:	2200      	movs	r2, #0
   2452c:	4613      	mov	r3, r2
   2452e:	df04      	svc	4
   24530:	a804      	add	r0, sp, #16
   24532:	9900      	ldr	r1, [sp, #0]
   24534:	7001      	strb	r1, [r0, #0]
   24536:	a808      	add	r0, sp, #32
   24538:	7800      	ldrb	r0, [r0, #0]
   2453a:	2804      	cmp	r0, #4
   2453c:	d008      	beq.n	24550 <_ZN20complex_dynamic_type3app17h882996449019b6bbE+0x108>
   2453e:	2803      	cmp	r0, #3
   24540:	d120      	bne.n	24584 <_ZN20complex_dynamic_type3app17h882996449019b6bbE+0x13c>
   24542:	4626      	mov	r6, r4
   24544:	4815      	ldr	r0, [pc, #84]	@ (2459c <_ZN20complex_dynamic_type3app17h882996449019b6bbE+0x154>)
   24546:	2108      	movs	r1, #8
   24548:	2200      	movs	r2, #0
   2454a:	4613      	mov	r3, r2
   2454c:	df03      	svc	3
   2454e:	e005      	b.n	2455c <_ZN20complex_dynamic_type3app17h882996449019b6bbE+0x114>
   24550:	4626      	mov	r6, r4
   24552:	4812      	ldr	r0, [pc, #72]	@ (2459c <_ZN20complex_dynamic_type3app17h882996449019b6bbE+0x154>)
   24554:	2108      	movs	r1, #8
   24556:	2200      	movs	r2, #0
   24558:	4613      	mov	r3, r2
   2455a:	df04      	svc	4
   2455c:	a804      	add	r0, sp, #16
   2455e:	7804      	ldrb	r4, [r0, #0]
   24560:	1c68      	adds	r0, r5, #1
   24562:	2248      	movs	r2, #72	@ 0x48
   24564:	4631      	mov	r1, r6
   24566:	f006 fdcd 	bl	2b104 <__aeabi_memcpy>
   2456a:	9802      	ldr	r0, [sp, #8]
   2456c:	7028      	strb	r0, [r5, #0]
   2456e:	2c02      	cmp	r4, #2
   24570:	d006      	beq.n	24580 <_ZN20complex_dynamic_type3app17h882996449019b6bbE+0x138>
   24572:	480a      	ldr	r0, [pc, #40]	@ (2459c <_ZN20complex_dynamic_type3app17h882996449019b6bbE+0x154>)
   24574:	2103      	movs	r1, #3
   24576:	2200      	movs	r2, #0
   24578:	4613      	mov	r3, r2
   2457a:	2c04      	cmp	r4, #4
   2457c:	d10b      	bne.n	24596 <_ZN20complex_dynamic_type3app17h882996449019b6bbE+0x14e>
   2457e:	df04      	svc	4
   24580:	b01b      	add	sp, #108	@ 0x6c
   24582:	bdf0      	pop	{r4, r5, r6, r7, pc}
   24584:	1c68      	adds	r0, r5, #1
   24586:	2248      	movs	r2, #72	@ 0x48
   24588:	4621      	mov	r1, r4
   2458a:	f006 fdbb 	bl	2b104 <__aeabi_memcpy>
   2458e:	9802      	ldr	r0, [sp, #8]
   24590:	7028      	strb	r0, [r5, #0]
   24592:	b01b      	add	sp, #108	@ 0x6c
   24594:	bdf0      	pop	{r4, r5, r6, r7, pc}
   24596:	df03      	svc	3
   24598:	b01b      	add	sp, #108	@ 0x6c
   2459a:	bdf0      	pop	{r4, r5, r6, r7, pc}
   2459c:	000012d1 	.word	0x000012d1

000245a0 <_ZN20complex_dynamic_type3app17h8aec3885c67eaa45E>:
   245a0:	b5f0      	push	{r4, r5, r6, r7, lr}
   245a2:	af03      	add	r7, sp, #12
   245a4:	b095      	sub	sp, #84	@ 0x54
   245a6:	9003      	str	r0, [sp, #12]
   245a8:	a804      	add	r0, sp, #16
   245aa:	2402      	movs	r4, #2
   245ac:	7004      	strb	r4, [r0, #0]
   245ae:	1c46      	adds	r6, r0, #1
   245b0:	221e      	movs	r2, #30
   245b2:	9202      	str	r2, [sp, #8]
   245b4:	4630      	mov	r0, r6
   245b6:	f006 fda5 	bl	2b104 <__aeabi_memcpy>
   245ba:	ad0c      	add	r5, sp, #48	@ 0x30
   245bc:	1c68      	adds	r0, r5, #1
   245be:	2121      	movs	r1, #33	@ 0x21
   245c0:	9001      	str	r0, [sp, #4]
   245c2:	f006 fbdf 	bl	2ad84 <__aeabi_memclr>
   245c6:	9400      	str	r4, [sp, #0]
   245c8:	702c      	strb	r4, [r5, #0]
   245ca:	4848      	ldr	r0, [pc, #288]	@ (246ec <_ZN20complex_dynamic_type3app17h8aec3885c67eaa45E+0x14c>)
   245cc:	2106      	movs	r1, #6
   245ce:	4632      	mov	r2, r6
   245d0:	9b02      	ldr	r3, [sp, #8]
   245d2:	df04      	svc	4
   245d4:	2802      	cmp	r0, #2
   245d6:	d104      	bne.n	245e2 <_ZN20complex_dynamic_type3app17h8aec3885c67eaa45E+0x42>
   245d8:	2001      	movs	r0, #1
   245da:	9a03      	ldr	r2, [sp, #12]
   245dc:	7010      	strb	r0, [r2, #0]
   245de:	6051      	str	r1, [r2, #4]
   245e0:	e02d      	b.n	2463e <_ZN20complex_dynamic_type3app17h8aec3885c67eaa45E+0x9e>
   245e2:	9d03      	ldr	r5, [sp, #12]
   245e4:	a804      	add	r0, sp, #16
   245e6:	2104      	movs	r1, #4
   245e8:	7001      	strb	r1, [r0, #0]
   245ea:	4840      	ldr	r0, [pc, #256]	@ (246ec <_ZN20complex_dynamic_type3app17h8aec3885c67eaa45E+0x14c>)
   245ec:	2109      	movs	r1, #9
   245ee:	2321      	movs	r3, #33	@ 0x21
   245f0:	9c01      	ldr	r4, [sp, #4]
   245f2:	4622      	mov	r2, r4
   245f4:	df03      	svc	3
   245f6:	2802      	cmp	r0, #2
   245f8:	d10e      	bne.n	24618 <_ZN20complex_dynamic_type3app17h8aec3885c67eaa45E+0x78>
   245fa:	2001      	movs	r0, #1
   245fc:	7028      	strb	r0, [r5, #0]
   245fe:	6069      	str	r1, [r5, #4]
   24600:	a80c      	add	r0, sp, #48	@ 0x30
   24602:	7800      	ldrb	r0, [r0, #0]
   24604:	2802      	cmp	r0, #2
   24606:	d01a      	beq.n	2463e <_ZN20complex_dynamic_type3app17h8aec3885c67eaa45E+0x9e>
   24608:	2803      	cmp	r0, #3
   2460a:	d013      	beq.n	24634 <_ZN20complex_dynamic_type3app17h8aec3885c67eaa45E+0x94>
   2460c:	4837      	ldr	r0, [pc, #220]	@ (246ec <_ZN20complex_dynamic_type3app17h8aec3885c67eaa45E+0x14c>)
   2460e:	2109      	movs	r1, #9
   24610:	2200      	movs	r2, #0
   24612:	4613      	mov	r3, r2
   24614:	df04      	svc	4
   24616:	e012      	b.n	2463e <_ZN20complex_dynamic_type3app17h8aec3885c67eaa45E+0x9e>
   24618:	a80c      	add	r0, sp, #48	@ 0x30
   2461a:	2103      	movs	r1, #3
   2461c:	7001      	strb	r1, [r0, #0]
   2461e:	4833      	ldr	r0, [pc, #204]	@ (246ec <_ZN20complex_dynamic_type3app17h8aec3885c67eaa45E+0x14c>)
   24620:	2106      	movs	r1, #6
   24622:	2209      	movs	r2, #9
   24624:	2600      	movs	r6, #0
   24626:	4633      	mov	r3, r6
   24628:	df02      	svc	2
   2462a:	2880      	cmp	r0, #128	@ 0x80
   2462c:	d21b      	bcs.n	24666 <_ZN20complex_dynamic_type3app17h8aec3885c67eaa45E+0xc6>
   2462e:	2001      	movs	r0, #1
   24630:	7028      	strb	r0, [r5, #0]
   24632:	6069      	str	r1, [r5, #4]
   24634:	482d      	ldr	r0, [pc, #180]	@ (246ec <_ZN20complex_dynamic_type3app17h8aec3885c67eaa45E+0x14c>)
   24636:	2109      	movs	r1, #9
   24638:	2200      	movs	r2, #0
   2463a:	4613      	mov	r3, r2
   2463c:	df03      	svc	3
   2463e:	a804      	add	r0, sp, #16
   24640:	7800      	ldrb	r0, [r0, #0]
   24642:	2802      	cmp	r0, #2
   24644:	d045      	beq.n	246d2 <_ZN20complex_dynamic_type3app17h8aec3885c67eaa45E+0x132>
   24646:	2804      	cmp	r0, #4
   24648:	d106      	bne.n	24658 <_ZN20complex_dynamic_type3app17h8aec3885c67eaa45E+0xb8>
   2464a:	4828      	ldr	r0, [pc, #160]	@ (246ec <_ZN20complex_dynamic_type3app17h8aec3885c67eaa45E+0x14c>)
   2464c:	2106      	movs	r1, #6
   2464e:	2200      	movs	r2, #0
   24650:	4613      	mov	r3, r2
   24652:	df04      	svc	4
   24654:	b015      	add	sp, #84	@ 0x54
   24656:	bdf0      	pop	{r4, r5, r6, r7, pc}
   24658:	4824      	ldr	r0, [pc, #144]	@ (246ec <_ZN20complex_dynamic_type3app17h8aec3885c67eaa45E+0x14c>)
   2465a:	2106      	movs	r1, #6
   2465c:	2200      	movs	r2, #0
   2465e:	4613      	mov	r3, r2
   24660:	df03      	svc	3
   24662:	b015      	add	sp, #84	@ 0x54
   24664:	bdf0      	pop	{r4, r5, r6, r7, pc}
   24666:	a804      	add	r0, sp, #16
   24668:	7800      	ldrb	r0, [r0, #0]
   2466a:	2802      	cmp	r0, #2
   2466c:	d00c      	beq.n	24688 <_ZN20complex_dynamic_type3app17h8aec3885c67eaa45E+0xe8>
   2466e:	2803      	cmp	r0, #3
   24670:	d105      	bne.n	2467e <_ZN20complex_dynamic_type3app17h8aec3885c67eaa45E+0xde>
   24672:	481e      	ldr	r0, [pc, #120]	@ (246ec <_ZN20complex_dynamic_type3app17h8aec3885c67eaa45E+0x14c>)
   24674:	2106      	movs	r1, #6
   24676:	2200      	movs	r2, #0
   24678:	4613      	mov	r3, r2
   2467a:	df03      	svc	3
   2467c:	e004      	b.n	24688 <_ZN20complex_dynamic_type3app17h8aec3885c67eaa45E+0xe8>
   2467e:	481b      	ldr	r0, [pc, #108]	@ (246ec <_ZN20complex_dynamic_type3app17h8aec3885c67eaa45E+0x14c>)
   24680:	2106      	movs	r1, #6
   24682:	2200      	movs	r2, #0
   24684:	4613      	mov	r3, r2
   24686:	df04      	svc	4
   24688:	a804      	add	r0, sp, #16
   2468a:	9900      	ldr	r1, [sp, #0]
   2468c:	7001      	strb	r1, [r0, #0]
   2468e:	a80c      	add	r0, sp, #48	@ 0x30
   24690:	7800      	ldrb	r0, [r0, #0]
   24692:	2804      	cmp	r0, #4
   24694:	d007      	beq.n	246a6 <_ZN20complex_dynamic_type3app17h8aec3885c67eaa45E+0x106>
   24696:	2803      	cmp	r0, #3
   24698:	d11d      	bne.n	246d6 <_ZN20complex_dynamic_type3app17h8aec3885c67eaa45E+0x136>
   2469a:	4814      	ldr	r0, [pc, #80]	@ (246ec <_ZN20complex_dynamic_type3app17h8aec3885c67eaa45E+0x14c>)
   2469c:	2109      	movs	r1, #9
   2469e:	2200      	movs	r2, #0
   246a0:	4613      	mov	r3, r2
   246a2:	df03      	svc	3
   246a4:	e004      	b.n	246b0 <_ZN20complex_dynamic_type3app17h8aec3885c67eaa45E+0x110>
   246a6:	4811      	ldr	r0, [pc, #68]	@ (246ec <_ZN20complex_dynamic_type3app17h8aec3885c67eaa45E+0x14c>)
   246a8:	2109      	movs	r1, #9
   246aa:	2200      	movs	r2, #0
   246ac:	4613      	mov	r3, r2
   246ae:	df04      	svc	4
   246b0:	a804      	add	r0, sp, #16
   246b2:	7804      	ldrb	r4, [r0, #0]
   246b4:	1c68      	adds	r0, r5, #1
   246b6:	2221      	movs	r2, #33	@ 0x21
   246b8:	9901      	ldr	r1, [sp, #4]
   246ba:	f006 fd23 	bl	2b104 <__aeabi_memcpy>
   246be:	702e      	strb	r6, [r5, #0]
   246c0:	2c02      	cmp	r4, #2
   246c2:	d006      	beq.n	246d2 <_ZN20complex_dynamic_type3app17h8aec3885c67eaa45E+0x132>
   246c4:	4809      	ldr	r0, [pc, #36]	@ (246ec <_ZN20complex_dynamic_type3app17h8aec3885c67eaa45E+0x14c>)
   246c6:	2106      	movs	r1, #6
   246c8:	2200      	movs	r2, #0
   246ca:	4613      	mov	r3, r2
   246cc:	2c04      	cmp	r4, #4
   246ce:	d10a      	bne.n	246e6 <_ZN20complex_dynamic_type3app17h8aec3885c67eaa45E+0x146>
   246d0:	df04      	svc	4
   246d2:	b015      	add	sp, #84	@ 0x54
   246d4:	bdf0      	pop	{r4, r5, r6, r7, pc}
   246d6:	1c68      	adds	r0, r5, #1
   246d8:	2221      	movs	r2, #33	@ 0x21
   246da:	4621      	mov	r1, r4
   246dc:	f006 fd12 	bl	2b104 <__aeabi_memcpy>
   246e0:	702e      	strb	r6, [r5, #0]
   246e2:	b015      	add	sp, #84	@ 0x54
   246e4:	bdf0      	pop	{r4, r5, r6, r7, pc}
   246e6:	df03      	svc	3
   246e8:	b015      	add	sp, #84	@ 0x54
   246ea:	bdf0      	pop	{r4, r5, r6, r7, pc}
   246ec:	000019b5 	.word	0x000019b5

000246f0 <_ZN20complex_dynamic_type3app17h8d786004eab4ef03E>:
   246f0:	b5f0      	push	{r4, r5, r6, r7, lr}
   246f2:	af03      	add	r7, sp, #12
   246f4:	b09d      	sub	sp, #116	@ 0x74
   246f6:	9003      	str	r0, [sp, #12]
   246f8:	a804      	add	r0, sp, #16
   246fa:	2402      	movs	r4, #2
   246fc:	7004      	strb	r4, [r0, #0]
   246fe:	1c46      	adds	r6, r0, #1
   24700:	2251      	movs	r2, #81	@ 0x51
   24702:	9202      	str	r2, [sp, #8]
   24704:	4630      	mov	r0, r6
   24706:	f006 fcfd 	bl	2b104 <__aeabi_memcpy>
   2470a:	ad19      	add	r5, sp, #100	@ 0x64
   2470c:	1c68      	adds	r0, r5, #1
   2470e:	210f      	movs	r1, #15
   24710:	9001      	str	r0, [sp, #4]
   24712:	f006 fb37 	bl	2ad84 <__aeabi_memclr>
   24716:	9400      	str	r4, [sp, #0]
   24718:	702c      	strb	r4, [r5, #0]
   2471a:	4848      	ldr	r0, [pc, #288]	@ (2483c <_ZN20complex_dynamic_type3app17h8d786004eab4ef03E+0x14c>)
   2471c:	2100      	movs	r1, #0
   2471e:	4632      	mov	r2, r6
   24720:	9b02      	ldr	r3, [sp, #8]
   24722:	df04      	svc	4
   24724:	2802      	cmp	r0, #2
   24726:	d104      	bne.n	24732 <_ZN20complex_dynamic_type3app17h8d786004eab4ef03E+0x42>
   24728:	2001      	movs	r0, #1
   2472a:	9a03      	ldr	r2, [sp, #12]
   2472c:	7010      	strb	r0, [r2, #0]
   2472e:	6051      	str	r1, [r2, #4]
   24730:	e02c      	b.n	2478c <_ZN20complex_dynamic_type3app17h8d786004eab4ef03E+0x9c>
   24732:	9d03      	ldr	r5, [sp, #12]
   24734:	a804      	add	r0, sp, #16
   24736:	2104      	movs	r1, #4
   24738:	7001      	strb	r1, [r0, #0]
   2473a:	4840      	ldr	r0, [pc, #256]	@ (2483c <_ZN20complex_dynamic_type3app17h8d786004eab4ef03E+0x14c>)
   2473c:	2403      	movs	r4, #3
   2473e:	230f      	movs	r3, #15
   24740:	4621      	mov	r1, r4
   24742:	9a01      	ldr	r2, [sp, #4]
   24744:	df03      	svc	3
   24746:	2802      	cmp	r0, #2
   24748:	d10e      	bne.n	24768 <_ZN20complex_dynamic_type3app17h8d786004eab4ef03E+0x78>
   2474a:	2001      	movs	r0, #1
   2474c:	7028      	strb	r0, [r5, #0]
   2474e:	6069      	str	r1, [r5, #4]
   24750:	a819      	add	r0, sp, #100	@ 0x64
   24752:	7800      	ldrb	r0, [r0, #0]
   24754:	2802      	cmp	r0, #2
   24756:	d019      	beq.n	2478c <_ZN20complex_dynamic_type3app17h8d786004eab4ef03E+0x9c>
   24758:	2803      	cmp	r0, #3
   2475a:	d012      	beq.n	24782 <_ZN20complex_dynamic_type3app17h8d786004eab4ef03E+0x92>
   2475c:	4837      	ldr	r0, [pc, #220]	@ (2483c <_ZN20complex_dynamic_type3app17h8d786004eab4ef03E+0x14c>)
   2475e:	2103      	movs	r1, #3
   24760:	2200      	movs	r2, #0
   24762:	4613      	mov	r3, r2
   24764:	df04      	svc	4
   24766:	e011      	b.n	2478c <_ZN20complex_dynamic_type3app17h8d786004eab4ef03E+0x9c>
   24768:	a819      	add	r0, sp, #100	@ 0x64
   2476a:	7004      	strb	r4, [r0, #0]
   2476c:	4833      	ldr	r0, [pc, #204]	@ (2483c <_ZN20complex_dynamic_type3app17h8d786004eab4ef03E+0x14c>)
   2476e:	2600      	movs	r6, #0
   24770:	4631      	mov	r1, r6
   24772:	4622      	mov	r2, r4
   24774:	4633      	mov	r3, r6
   24776:	df02      	svc	2
   24778:	2880      	cmp	r0, #128	@ 0x80
   2477a:	d21b      	bcs.n	247b4 <_ZN20complex_dynamic_type3app17h8d786004eab4ef03E+0xc4>
   2477c:	2001      	movs	r0, #1
   2477e:	7028      	strb	r0, [r5, #0]
   24780:	6069      	str	r1, [r5, #4]
   24782:	482e      	ldr	r0, [pc, #184]	@ (2483c <_ZN20complex_dynamic_type3app17h8d786004eab4ef03E+0x14c>)
   24784:	2103      	movs	r1, #3
   24786:	2200      	movs	r2, #0
   24788:	4613      	mov	r3, r2
   2478a:	df03      	svc	3
   2478c:	a804      	add	r0, sp, #16
   2478e:	7800      	ldrb	r0, [r0, #0]
   24790:	2802      	cmp	r0, #2
   24792:	d045      	beq.n	24820 <_ZN20complex_dynamic_type3app17h8d786004eab4ef03E+0x130>
   24794:	2804      	cmp	r0, #4
   24796:	d106      	bne.n	247a6 <_ZN20complex_dynamic_type3app17h8d786004eab4ef03E+0xb6>
   24798:	4828      	ldr	r0, [pc, #160]	@ (2483c <_ZN20complex_dynamic_type3app17h8d786004eab4ef03E+0x14c>)
   2479a:	2100      	movs	r1, #0
   2479c:	460a      	mov	r2, r1
   2479e:	460b      	mov	r3, r1
   247a0:	df04      	svc	4
   247a2:	b01d      	add	sp, #116	@ 0x74
   247a4:	bdf0      	pop	{r4, r5, r6, r7, pc}
   247a6:	4825      	ldr	r0, [pc, #148]	@ (2483c <_ZN20complex_dynamic_type3app17h8d786004eab4ef03E+0x14c>)
   247a8:	2100      	movs	r1, #0
   247aa:	460a      	mov	r2, r1
   247ac:	460b      	mov	r3, r1
   247ae:	df03      	svc	3
   247b0:	b01d      	add	sp, #116	@ 0x74
   247b2:	bdf0      	pop	{r4, r5, r6, r7, pc}
   247b4:	a804      	add	r0, sp, #16
   247b6:	7800      	ldrb	r0, [r0, #0]
   247b8:	2802      	cmp	r0, #2
   247ba:	d00c      	beq.n	247d6 <_ZN20complex_dynamic_type3app17h8d786004eab4ef03E+0xe6>
   247bc:	2803      	cmp	r0, #3
   247be:	d105      	bne.n	247cc <_ZN20complex_dynamic_type3app17h8d786004eab4ef03E+0xdc>
   247c0:	481e      	ldr	r0, [pc, #120]	@ (2483c <_ZN20complex_dynamic_type3app17h8d786004eab4ef03E+0x14c>)
   247c2:	2100      	movs	r1, #0
   247c4:	460a      	mov	r2, r1
   247c6:	460b      	mov	r3, r1
   247c8:	df03      	svc	3
   247ca:	e004      	b.n	247d6 <_ZN20complex_dynamic_type3app17h8d786004eab4ef03E+0xe6>
   247cc:	481b      	ldr	r0, [pc, #108]	@ (2483c <_ZN20complex_dynamic_type3app17h8d786004eab4ef03E+0x14c>)
   247ce:	2100      	movs	r1, #0
   247d0:	460a      	mov	r2, r1
   247d2:	460b      	mov	r3, r1
   247d4:	df04      	svc	4
   247d6:	a804      	add	r0, sp, #16
   247d8:	9900      	ldr	r1, [sp, #0]
   247da:	7001      	strb	r1, [r0, #0]
   247dc:	a819      	add	r0, sp, #100	@ 0x64
   247de:	7800      	ldrb	r0, [r0, #0]
   247e0:	2804      	cmp	r0, #4
   247e2:	d007      	beq.n	247f4 <_ZN20complex_dynamic_type3app17h8d786004eab4ef03E+0x104>
   247e4:	2803      	cmp	r0, #3
   247e6:	d11d      	bne.n	24824 <_ZN20complex_dynamic_type3app17h8d786004eab4ef03E+0x134>
   247e8:	4814      	ldr	r0, [pc, #80]	@ (2483c <_ZN20complex_dynamic_type3app17h8d786004eab4ef03E+0x14c>)
   247ea:	2103      	movs	r1, #3
   247ec:	2200      	movs	r2, #0
   247ee:	4613      	mov	r3, r2
   247f0:	df03      	svc	3
   247f2:	e004      	b.n	247fe <_ZN20complex_dynamic_type3app17h8d786004eab4ef03E+0x10e>
   247f4:	4811      	ldr	r0, [pc, #68]	@ (2483c <_ZN20complex_dynamic_type3app17h8d786004eab4ef03E+0x14c>)
   247f6:	2103      	movs	r1, #3
   247f8:	2200      	movs	r2, #0
   247fa:	4613      	mov	r3, r2
   247fc:	df04      	svc	4
   247fe:	a804      	add	r0, sp, #16
   24800:	7804      	ldrb	r4, [r0, #0]
   24802:	1c68      	adds	r0, r5, #1
   24804:	220f      	movs	r2, #15
   24806:	9901      	ldr	r1, [sp, #4]
   24808:	f006 fc7c 	bl	2b104 <__aeabi_memcpy>
   2480c:	702e      	strb	r6, [r5, #0]
   2480e:	2c02      	cmp	r4, #2
   24810:	d006      	beq.n	24820 <_ZN20complex_dynamic_type3app17h8d786004eab4ef03E+0x130>
   24812:	480a      	ldr	r0, [pc, #40]	@ (2483c <_ZN20complex_dynamic_type3app17h8d786004eab4ef03E+0x14c>)
   24814:	2100      	movs	r1, #0
   24816:	460a      	mov	r2, r1
   24818:	460b      	mov	r3, r1
   2481a:	2c04      	cmp	r4, #4
   2481c:	d10a      	bne.n	24834 <_ZN20complex_dynamic_type3app17h8d786004eab4ef03E+0x144>
   2481e:	df04      	svc	4
   24820:	b01d      	add	sp, #116	@ 0x74
   24822:	bdf0      	pop	{r4, r5, r6, r7, pc}
   24824:	1c68      	adds	r0, r5, #1
   24826:	220f      	movs	r2, #15
   24828:	9901      	ldr	r1, [sp, #4]
   2482a:	f006 fc6b 	bl	2b104 <__aeabi_memcpy>
   2482e:	702e      	strb	r6, [r5, #0]
   24830:	b01d      	add	sp, #116	@ 0x74
   24832:	bdf0      	pop	{r4, r5, r6, r7, pc}
   24834:	df03      	svc	3
   24836:	b01d      	add	sp, #116	@ 0x74
   24838:	bdf0      	pop	{r4, r5, r6, r7, pc}
   2483a:	46c0      	nop			@ (mov r8, r8)
   2483c:	000013bf 	.word	0x000013bf

00024840 <_ZN20complex_dynamic_type3app17h939f0ecb5916686bE>:
   24840:	b5f0      	push	{r4, r5, r6, r7, lr}
   24842:	af03      	add	r7, sp, #12
   24844:	b097      	sub	sp, #92	@ 0x5c
   24846:	9004      	str	r0, [sp, #16]
   24848:	a805      	add	r0, sp, #20
   2484a:	2402      	movs	r4, #2
   2484c:	7004      	strb	r4, [r0, #0]
   2484e:	1c46      	adds	r6, r0, #1
   24850:	2229      	movs	r2, #41	@ 0x29
   24852:	9203      	str	r2, [sp, #12]
   24854:	4630      	mov	r0, r6
   24856:	f006 fc55 	bl	2b104 <__aeabi_memcpy>
   2485a:	ad10      	add	r5, sp, #64	@ 0x40
   2485c:	1c68      	adds	r0, r5, #1
   2485e:	211a      	movs	r1, #26
   24860:	9002      	str	r0, [sp, #8]
   24862:	f006 fa8f 	bl	2ad84 <__aeabi_memclr>
   24866:	9401      	str	r4, [sp, #4]
   24868:	702c      	strb	r4, [r5, #0]
   2486a:	4848      	ldr	r0, [pc, #288]	@ (2498c <_ZN20complex_dynamic_type3app17h939f0ecb5916686bE+0x14c>)
   2486c:	2105      	movs	r1, #5
   2486e:	4632      	mov	r2, r6
   24870:	9b03      	ldr	r3, [sp, #12]
   24872:	df04      	svc	4
   24874:	2802      	cmp	r0, #2
   24876:	d104      	bne.n	24882 <_ZN20complex_dynamic_type3app17h939f0ecb5916686bE+0x42>
   24878:	2001      	movs	r0, #1
   2487a:	9a04      	ldr	r2, [sp, #16]
   2487c:	7010      	strb	r0, [r2, #0]
   2487e:	6051      	str	r1, [r2, #4]
   24880:	e02c      	b.n	248dc <_ZN20complex_dynamic_type3app17h939f0ecb5916686bE+0x9c>
   24882:	9d04      	ldr	r5, [sp, #16]
   24884:	a805      	add	r0, sp, #20
   24886:	2104      	movs	r1, #4
   24888:	7001      	strb	r1, [r0, #0]
   2488a:	4840      	ldr	r0, [pc, #256]	@ (2498c <_ZN20complex_dynamic_type3app17h939f0ecb5916686bE+0x14c>)
   2488c:	2403      	movs	r4, #3
   2488e:	231a      	movs	r3, #26
   24890:	4621      	mov	r1, r4
   24892:	9a02      	ldr	r2, [sp, #8]
   24894:	df03      	svc	3
   24896:	2802      	cmp	r0, #2
   24898:	d10e      	bne.n	248b8 <_ZN20complex_dynamic_type3app17h939f0ecb5916686bE+0x78>
   2489a:	2001      	movs	r0, #1
   2489c:	7028      	strb	r0, [r5, #0]
   2489e:	6069      	str	r1, [r5, #4]
   248a0:	a810      	add	r0, sp, #64	@ 0x40
   248a2:	7800      	ldrb	r0, [r0, #0]
   248a4:	2802      	cmp	r0, #2
   248a6:	d019      	beq.n	248dc <_ZN20complex_dynamic_type3app17h939f0ecb5916686bE+0x9c>
   248a8:	2803      	cmp	r0, #3
   248aa:	d012      	beq.n	248d2 <_ZN20complex_dynamic_type3app17h939f0ecb5916686bE+0x92>
   248ac:	4837      	ldr	r0, [pc, #220]	@ (2498c <_ZN20complex_dynamic_type3app17h939f0ecb5916686bE+0x14c>)
   248ae:	2103      	movs	r1, #3
   248b0:	2200      	movs	r2, #0
   248b2:	4613      	mov	r3, r2
   248b4:	df04      	svc	4
   248b6:	e011      	b.n	248dc <_ZN20complex_dynamic_type3app17h939f0ecb5916686bE+0x9c>
   248b8:	a810      	add	r0, sp, #64	@ 0x40
   248ba:	7004      	strb	r4, [r0, #0]
   248bc:	4833      	ldr	r0, [pc, #204]	@ (2498c <_ZN20complex_dynamic_type3app17h939f0ecb5916686bE+0x14c>)
   248be:	2105      	movs	r1, #5
   248c0:	2600      	movs	r6, #0
   248c2:	4622      	mov	r2, r4
   248c4:	4633      	mov	r3, r6
   248c6:	df02      	svc	2
   248c8:	2880      	cmp	r0, #128	@ 0x80
   248ca:	d21b      	bcs.n	24904 <_ZN20complex_dynamic_type3app17h939f0ecb5916686bE+0xc4>
   248cc:	2001      	movs	r0, #1
   248ce:	7028      	strb	r0, [r5, #0]
   248d0:	6069      	str	r1, [r5, #4]
   248d2:	482e      	ldr	r0, [pc, #184]	@ (2498c <_ZN20complex_dynamic_type3app17h939f0ecb5916686bE+0x14c>)
   248d4:	2103      	movs	r1, #3
   248d6:	2200      	movs	r2, #0
   248d8:	4613      	mov	r3, r2
   248da:	df03      	svc	3
   248dc:	a805      	add	r0, sp, #20
   248de:	7800      	ldrb	r0, [r0, #0]
   248e0:	2802      	cmp	r0, #2
   248e2:	d045      	beq.n	24970 <_ZN20complex_dynamic_type3app17h939f0ecb5916686bE+0x130>
   248e4:	2804      	cmp	r0, #4
   248e6:	d106      	bne.n	248f6 <_ZN20complex_dynamic_type3app17h939f0ecb5916686bE+0xb6>
   248e8:	4828      	ldr	r0, [pc, #160]	@ (2498c <_ZN20complex_dynamic_type3app17h939f0ecb5916686bE+0x14c>)
   248ea:	2105      	movs	r1, #5
   248ec:	2200      	movs	r2, #0
   248ee:	4613      	mov	r3, r2
   248f0:	df04      	svc	4
   248f2:	b017      	add	sp, #92	@ 0x5c
   248f4:	bdf0      	pop	{r4, r5, r6, r7, pc}
   248f6:	4825      	ldr	r0, [pc, #148]	@ (2498c <_ZN20complex_dynamic_type3app17h939f0ecb5916686bE+0x14c>)
   248f8:	2105      	movs	r1, #5
   248fa:	2200      	movs	r2, #0
   248fc:	4613      	mov	r3, r2
   248fe:	df03      	svc	3
   24900:	b017      	add	sp, #92	@ 0x5c
   24902:	bdf0      	pop	{r4, r5, r6, r7, pc}
   24904:	a805      	add	r0, sp, #20
   24906:	7800      	ldrb	r0, [r0, #0]
   24908:	2802      	cmp	r0, #2
   2490a:	d00c      	beq.n	24926 <_ZN20complex_dynamic_type3app17h939f0ecb5916686bE+0xe6>
   2490c:	2803      	cmp	r0, #3
   2490e:	d105      	bne.n	2491c <_ZN20complex_dynamic_type3app17h939f0ecb5916686bE+0xdc>
   24910:	481e      	ldr	r0, [pc, #120]	@ (2498c <_ZN20complex_dynamic_type3app17h939f0ecb5916686bE+0x14c>)
   24912:	2105      	movs	r1, #5
   24914:	2200      	movs	r2, #0
   24916:	4613      	mov	r3, r2
   24918:	df03      	svc	3
   2491a:	e004      	b.n	24926 <_ZN20complex_dynamic_type3app17h939f0ecb5916686bE+0xe6>
   2491c:	481b      	ldr	r0, [pc, #108]	@ (2498c <_ZN20complex_dynamic_type3app17h939f0ecb5916686bE+0x14c>)
   2491e:	2105      	movs	r1, #5
   24920:	2200      	movs	r2, #0
   24922:	4613      	mov	r3, r2
   24924:	df04      	svc	4
   24926:	a805      	add	r0, sp, #20
   24928:	9901      	ldr	r1, [sp, #4]
   2492a:	7001      	strb	r1, [r0, #0]
   2492c:	a810      	add	r0, sp, #64	@ 0x40
   2492e:	7800      	ldrb	r0, [r0, #0]
   24930:	2804      	cmp	r0, #4
   24932:	d007      	beq.n	24944 <_ZN20complex_dynamic_type3app17h939f0ecb5916686bE+0x104>
   24934:	2803      	cmp	r0, #3
   24936:	d11d      	bne.n	24974 <_ZN20complex_dynamic_type3app17h939f0ecb5916686bE+0x134>
   24938:	4814      	ldr	r0, [pc, #80]	@ (2498c <_ZN20complex_dynamic_type3app17h939f0ecb5916686bE+0x14c>)
   2493a:	2103      	movs	r1, #3
   2493c:	2200      	movs	r2, #0
   2493e:	4613      	mov	r3, r2
   24940:	df03      	svc	3
   24942:	e004      	b.n	2494e <_ZN20complex_dynamic_type3app17h939f0ecb5916686bE+0x10e>
   24944:	4811      	ldr	r0, [pc, #68]	@ (2498c <_ZN20complex_dynamic_type3app17h939f0ecb5916686bE+0x14c>)
   24946:	2103      	movs	r1, #3
   24948:	2200      	movs	r2, #0
   2494a:	4613      	mov	r3, r2
   2494c:	df04      	svc	4
   2494e:	a805      	add	r0, sp, #20
   24950:	7804      	ldrb	r4, [r0, #0]
   24952:	1c68      	adds	r0, r5, #1
   24954:	221a      	movs	r2, #26
   24956:	9902      	ldr	r1, [sp, #8]
   24958:	f006 fbd4 	bl	2b104 <__aeabi_memcpy>
   2495c:	702e      	strb	r6, [r5, #0]
   2495e:	2c02      	cmp	r4, #2
   24960:	d006      	beq.n	24970 <_ZN20complex_dynamic_type3app17h939f0ecb5916686bE+0x130>
   24962:	480a      	ldr	r0, [pc, #40]	@ (2498c <_ZN20complex_dynamic_type3app17h939f0ecb5916686bE+0x14c>)
   24964:	2105      	movs	r1, #5
   24966:	2200      	movs	r2, #0
   24968:	4613      	mov	r3, r2
   2496a:	2c04      	cmp	r4, #4
   2496c:	d10a      	bne.n	24984 <_ZN20complex_dynamic_type3app17h939f0ecb5916686bE+0x144>
   2496e:	df04      	svc	4
   24970:	b017      	add	sp, #92	@ 0x5c
   24972:	bdf0      	pop	{r4, r5, r6, r7, pc}
   24974:	1c68      	adds	r0, r5, #1
   24976:	221a      	movs	r2, #26
   24978:	9902      	ldr	r1, [sp, #8]
   2497a:	f006 fbc3 	bl	2b104 <__aeabi_memcpy>
   2497e:	702e      	strb	r6, [r5, #0]
   24980:	b017      	add	sp, #92	@ 0x5c
   24982:	bdf0      	pop	{r4, r5, r6, r7, pc}
   24984:	df03      	svc	3
   24986:	b017      	add	sp, #92	@ 0x5c
   24988:	bdf0      	pop	{r4, r5, r6, r7, pc}
   2498a:	46c0      	nop			@ (mov r8, r8)
   2498c:	00002048 	.word	0x00002048

00024990 <_ZN20complex_dynamic_type3app17h9aaa63b3e5c89061E>:
   24990:	b5f0      	push	{r4, r5, r6, r7, lr}
   24992:	af03      	add	r7, sp, #12
   24994:	b09b      	sub	sp, #108	@ 0x6c
   24996:	9004      	str	r0, [sp, #16]
   24998:	a805      	add	r0, sp, #20
   2499a:	2402      	movs	r4, #2
   2499c:	7004      	strb	r4, [r0, #0]
   2499e:	1c46      	adds	r6, r0, #1
   249a0:	2224      	movs	r2, #36	@ 0x24
   249a2:	9203      	str	r2, [sp, #12]
   249a4:	4630      	mov	r0, r6
   249a6:	f006 fbad 	bl	2b104 <__aeabi_memcpy>
   249aa:	ad0f      	add	r5, sp, #60	@ 0x3c
   249ac:	1c68      	adds	r0, r5, #1
   249ae:	212f      	movs	r1, #47	@ 0x2f
   249b0:	9002      	str	r0, [sp, #8]
   249b2:	f006 f9e7 	bl	2ad84 <__aeabi_memclr>
   249b6:	9401      	str	r4, [sp, #4]
   249b8:	702c      	strb	r4, [r5, #0]
   249ba:	4848      	ldr	r0, [pc, #288]	@ (24adc <_ZN20complex_dynamic_type3app17h9aaa63b3e5c89061E+0x14c>)
   249bc:	2106      	movs	r1, #6
   249be:	4632      	mov	r2, r6
   249c0:	9b03      	ldr	r3, [sp, #12]
   249c2:	df04      	svc	4
   249c4:	2802      	cmp	r0, #2
   249c6:	d104      	bne.n	249d2 <_ZN20complex_dynamic_type3app17h9aaa63b3e5c89061E+0x42>
   249c8:	2001      	movs	r0, #1
   249ca:	9a04      	ldr	r2, [sp, #16]
   249cc:	7010      	strb	r0, [r2, #0]
   249ce:	6051      	str	r1, [r2, #4]
   249d0:	e02d      	b.n	24a2e <_ZN20complex_dynamic_type3app17h9aaa63b3e5c89061E+0x9e>
   249d2:	9d04      	ldr	r5, [sp, #16]
   249d4:	a805      	add	r0, sp, #20
   249d6:	2104      	movs	r1, #4
   249d8:	7001      	strb	r1, [r0, #0]
   249da:	4840      	ldr	r0, [pc, #256]	@ (24adc <_ZN20complex_dynamic_type3app17h9aaa63b3e5c89061E+0x14c>)
   249dc:	2109      	movs	r1, #9
   249de:	232f      	movs	r3, #47	@ 0x2f
   249e0:	9c02      	ldr	r4, [sp, #8]
   249e2:	4622      	mov	r2, r4
   249e4:	df03      	svc	3
   249e6:	2802      	cmp	r0, #2
   249e8:	d10e      	bne.n	24a08 <_ZN20complex_dynamic_type3app17h9aaa63b3e5c89061E+0x78>
   249ea:	2001      	movs	r0, #1
   249ec:	7028      	strb	r0, [r5, #0]
   249ee:	6069      	str	r1, [r5, #4]
   249f0:	a80f      	add	r0, sp, #60	@ 0x3c
   249f2:	7800      	ldrb	r0, [r0, #0]
   249f4:	2802      	cmp	r0, #2
   249f6:	d01a      	beq.n	24a2e <_ZN20complex_dynamic_type3app17h9aaa63b3e5c89061E+0x9e>
   249f8:	2803      	cmp	r0, #3
   249fa:	d013      	beq.n	24a24 <_ZN20complex_dynamic_type3app17h9aaa63b3e5c89061E+0x94>
   249fc:	4837      	ldr	r0, [pc, #220]	@ (24adc <_ZN20complex_dynamic_type3app17h9aaa63b3e5c89061E+0x14c>)
   249fe:	2109      	movs	r1, #9
   24a00:	2200      	movs	r2, #0
   24a02:	4613      	mov	r3, r2
   24a04:	df04      	svc	4
   24a06:	e012      	b.n	24a2e <_ZN20complex_dynamic_type3app17h9aaa63b3e5c89061E+0x9e>
   24a08:	a80f      	add	r0, sp, #60	@ 0x3c
   24a0a:	2103      	movs	r1, #3
   24a0c:	7001      	strb	r1, [r0, #0]
   24a0e:	4833      	ldr	r0, [pc, #204]	@ (24adc <_ZN20complex_dynamic_type3app17h9aaa63b3e5c89061E+0x14c>)
   24a10:	2106      	movs	r1, #6
   24a12:	2209      	movs	r2, #9
   24a14:	2600      	movs	r6, #0
   24a16:	4633      	mov	r3, r6
   24a18:	df02      	svc	2
   24a1a:	2880      	cmp	r0, #128	@ 0x80
   24a1c:	d21b      	bcs.n	24a56 <_ZN20complex_dynamic_type3app17h9aaa63b3e5c89061E+0xc6>
   24a1e:	2001      	movs	r0, #1
   24a20:	7028      	strb	r0, [r5, #0]
   24a22:	6069      	str	r1, [r5, #4]
   24a24:	482d      	ldr	r0, [pc, #180]	@ (24adc <_ZN20complex_dynamic_type3app17h9aaa63b3e5c89061E+0x14c>)
   24a26:	2109      	movs	r1, #9
   24a28:	2200      	movs	r2, #0
   24a2a:	4613      	mov	r3, r2
   24a2c:	df03      	svc	3
   24a2e:	a805      	add	r0, sp, #20
   24a30:	7800      	ldrb	r0, [r0, #0]
   24a32:	2802      	cmp	r0, #2
   24a34:	d045      	beq.n	24ac2 <_ZN20complex_dynamic_type3app17h9aaa63b3e5c89061E+0x132>
   24a36:	2804      	cmp	r0, #4
   24a38:	d106      	bne.n	24a48 <_ZN20complex_dynamic_type3app17h9aaa63b3e5c89061E+0xb8>
   24a3a:	4828      	ldr	r0, [pc, #160]	@ (24adc <_ZN20complex_dynamic_type3app17h9aaa63b3e5c89061E+0x14c>)
   24a3c:	2106      	movs	r1, #6
   24a3e:	2200      	movs	r2, #0
   24a40:	4613      	mov	r3, r2
   24a42:	df04      	svc	4
   24a44:	b01b      	add	sp, #108	@ 0x6c
   24a46:	bdf0      	pop	{r4, r5, r6, r7, pc}
   24a48:	4824      	ldr	r0, [pc, #144]	@ (24adc <_ZN20complex_dynamic_type3app17h9aaa63b3e5c89061E+0x14c>)
   24a4a:	2106      	movs	r1, #6
   24a4c:	2200      	movs	r2, #0
   24a4e:	4613      	mov	r3, r2
   24a50:	df03      	svc	3
   24a52:	b01b      	add	sp, #108	@ 0x6c
   24a54:	bdf0      	pop	{r4, r5, r6, r7, pc}
   24a56:	a805      	add	r0, sp, #20
   24a58:	7800      	ldrb	r0, [r0, #0]
   24a5a:	2802      	cmp	r0, #2
   24a5c:	d00c      	beq.n	24a78 <_ZN20complex_dynamic_type3app17h9aaa63b3e5c89061E+0xe8>
   24a5e:	2803      	cmp	r0, #3
   24a60:	d105      	bne.n	24a6e <_ZN20complex_dynamic_type3app17h9aaa63b3e5c89061E+0xde>
   24a62:	481e      	ldr	r0, [pc, #120]	@ (24adc <_ZN20complex_dynamic_type3app17h9aaa63b3e5c89061E+0x14c>)
   24a64:	2106      	movs	r1, #6
   24a66:	2200      	movs	r2, #0
   24a68:	4613      	mov	r3, r2
   24a6a:	df03      	svc	3
   24a6c:	e004      	b.n	24a78 <_ZN20complex_dynamic_type3app17h9aaa63b3e5c89061E+0xe8>
   24a6e:	481b      	ldr	r0, [pc, #108]	@ (24adc <_ZN20complex_dynamic_type3app17h9aaa63b3e5c89061E+0x14c>)
   24a70:	2106      	movs	r1, #6
   24a72:	2200      	movs	r2, #0
   24a74:	4613      	mov	r3, r2
   24a76:	df04      	svc	4
   24a78:	a805      	add	r0, sp, #20
   24a7a:	9901      	ldr	r1, [sp, #4]
   24a7c:	7001      	strb	r1, [r0, #0]
   24a7e:	a80f      	add	r0, sp, #60	@ 0x3c
   24a80:	7800      	ldrb	r0, [r0, #0]
   24a82:	2804      	cmp	r0, #4
   24a84:	d007      	beq.n	24a96 <_ZN20complex_dynamic_type3app17h9aaa63b3e5c89061E+0x106>
   24a86:	2803      	cmp	r0, #3
   24a88:	d11d      	bne.n	24ac6 <_ZN20complex_dynamic_type3app17h9aaa63b3e5c89061E+0x136>
   24a8a:	4814      	ldr	r0, [pc, #80]	@ (24adc <_ZN20complex_dynamic_type3app17h9aaa63b3e5c89061E+0x14c>)
   24a8c:	2109      	movs	r1, #9
   24a8e:	2200      	movs	r2, #0
   24a90:	4613      	mov	r3, r2
   24a92:	df03      	svc	3
   24a94:	e004      	b.n	24aa0 <_ZN20complex_dynamic_type3app17h9aaa63b3e5c89061E+0x110>
   24a96:	4811      	ldr	r0, [pc, #68]	@ (24adc <_ZN20complex_dynamic_type3app17h9aaa63b3e5c89061E+0x14c>)
   24a98:	2109      	movs	r1, #9
   24a9a:	2200      	movs	r2, #0
   24a9c:	4613      	mov	r3, r2
   24a9e:	df04      	svc	4
   24aa0:	a805      	add	r0, sp, #20
   24aa2:	7804      	ldrb	r4, [r0, #0]
   24aa4:	1c68      	adds	r0, r5, #1
   24aa6:	222f      	movs	r2, #47	@ 0x2f
   24aa8:	9902      	ldr	r1, [sp, #8]
   24aaa:	f006 fb2b 	bl	2b104 <__aeabi_memcpy>
   24aae:	702e      	strb	r6, [r5, #0]
   24ab0:	2c02      	cmp	r4, #2
   24ab2:	d006      	beq.n	24ac2 <_ZN20complex_dynamic_type3app17h9aaa63b3e5c89061E+0x132>
   24ab4:	4809      	ldr	r0, [pc, #36]	@ (24adc <_ZN20complex_dynamic_type3app17h9aaa63b3e5c89061E+0x14c>)
   24ab6:	2106      	movs	r1, #6
   24ab8:	2200      	movs	r2, #0
   24aba:	4613      	mov	r3, r2
   24abc:	2c04      	cmp	r4, #4
   24abe:	d10a      	bne.n	24ad6 <_ZN20complex_dynamic_type3app17h9aaa63b3e5c89061E+0x146>
   24ac0:	df04      	svc	4
   24ac2:	b01b      	add	sp, #108	@ 0x6c
   24ac4:	bdf0      	pop	{r4, r5, r6, r7, pc}
   24ac6:	1c68      	adds	r0, r5, #1
   24ac8:	222f      	movs	r2, #47	@ 0x2f
   24aca:	4621      	mov	r1, r4
   24acc:	f006 fb1a 	bl	2b104 <__aeabi_memcpy>
   24ad0:	702e      	strb	r6, [r5, #0]
   24ad2:	b01b      	add	sp, #108	@ 0x6c
   24ad4:	bdf0      	pop	{r4, r5, r6, r7, pc}
   24ad6:	df03      	svc	3
   24ad8:	b01b      	add	sp, #108	@ 0x6c
   24ada:	bdf0      	pop	{r4, r5, r6, r7, pc}
   24adc:	00001273 	.word	0x00001273

00024ae0 <_ZN20complex_dynamic_type3app17h9ae27d235d631bacE>:
   24ae0:	b5f0      	push	{r4, r5, r6, r7, lr}
   24ae2:	af03      	add	r7, sp, #12
   24ae4:	b0a7      	sub	sp, #156	@ 0x9c
   24ae6:	9004      	str	r0, [sp, #16]
   24ae8:	a805      	add	r0, sp, #20
   24aea:	2402      	movs	r4, #2
   24aec:	7004      	strb	r4, [r0, #0]
   24aee:	1c40      	adds	r0, r0, #1
   24af0:	9003      	str	r0, [sp, #12]
   24af2:	252a      	movs	r5, #42	@ 0x2a
   24af4:	462a      	mov	r2, r5
   24af6:	f006 fb05 	bl	2b104 <__aeabi_memcpy>
   24afa:	ae10      	add	r6, sp, #64	@ 0x40
   24afc:	1c70      	adds	r0, r6, #1
   24afe:	2159      	movs	r1, #89	@ 0x59
   24b00:	9002      	str	r0, [sp, #8]
   24b02:	f006 f93f 	bl	2ad84 <__aeabi_memclr>
   24b06:	9401      	str	r4, [sp, #4]
   24b08:	7034      	strb	r4, [r6, #0]
   24b0a:	4849      	ldr	r0, [pc, #292]	@ (24c30 <_ZN20complex_dynamic_type3app17h9ae27d235d631bacE+0x150>)
   24b0c:	2601      	movs	r6, #1
   24b0e:	4631      	mov	r1, r6
   24b10:	9a03      	ldr	r2, [sp, #12]
   24b12:	462b      	mov	r3, r5
   24b14:	df04      	svc	4
   24b16:	2802      	cmp	r0, #2
   24b18:	d103      	bne.n	24b22 <_ZN20complex_dynamic_type3app17h9ae27d235d631bacE+0x42>
   24b1a:	9804      	ldr	r0, [sp, #16]
   24b1c:	7006      	strb	r6, [r0, #0]
   24b1e:	6041      	str	r1, [r0, #4]
   24b20:	e02c      	b.n	24b7c <_ZN20complex_dynamic_type3app17h9ae27d235d631bacE+0x9c>
   24b22:	a805      	add	r0, sp, #20
   24b24:	2104      	movs	r1, #4
   24b26:	7001      	strb	r1, [r0, #0]
   24b28:	4841      	ldr	r0, [pc, #260]	@ (24c30 <_ZN20complex_dynamic_type3app17h9ae27d235d631bacE+0x150>)
   24b2a:	2403      	movs	r4, #3
   24b2c:	2359      	movs	r3, #89	@ 0x59
   24b2e:	4621      	mov	r1, r4
   24b30:	9a02      	ldr	r2, [sp, #8]
   24b32:	df03      	svc	3
   24b34:	2802      	cmp	r0, #2
   24b36:	d10e      	bne.n	24b56 <_ZN20complex_dynamic_type3app17h9ae27d235d631bacE+0x76>
   24b38:	9804      	ldr	r0, [sp, #16]
   24b3a:	7006      	strb	r6, [r0, #0]
   24b3c:	6041      	str	r1, [r0, #4]
   24b3e:	a810      	add	r0, sp, #64	@ 0x40
   24b40:	7800      	ldrb	r0, [r0, #0]
   24b42:	2802      	cmp	r0, #2
   24b44:	d01a      	beq.n	24b7c <_ZN20complex_dynamic_type3app17h9ae27d235d631bacE+0x9c>
   24b46:	2803      	cmp	r0, #3
   24b48:	d013      	beq.n	24b72 <_ZN20complex_dynamic_type3app17h9ae27d235d631bacE+0x92>
   24b4a:	4839      	ldr	r0, [pc, #228]	@ (24c30 <_ZN20complex_dynamic_type3app17h9ae27d235d631bacE+0x150>)
   24b4c:	2103      	movs	r1, #3
   24b4e:	2200      	movs	r2, #0
   24b50:	4613      	mov	r3, r2
   24b52:	df04      	svc	4
   24b54:	e012      	b.n	24b7c <_ZN20complex_dynamic_type3app17h9ae27d235d631bacE+0x9c>
   24b56:	a810      	add	r0, sp, #64	@ 0x40
   24b58:	7004      	strb	r4, [r0, #0]
   24b5a:	4835      	ldr	r0, [pc, #212]	@ (24c30 <_ZN20complex_dynamic_type3app17h9ae27d235d631bacE+0x150>)
   24b5c:	2501      	movs	r5, #1
   24b5e:	2600      	movs	r6, #0
   24b60:	4629      	mov	r1, r5
   24b62:	4622      	mov	r2, r4
   24b64:	4633      	mov	r3, r6
   24b66:	df02      	svc	2
   24b68:	2880      	cmp	r0, #128	@ 0x80
   24b6a:	d21b      	bcs.n	24ba4 <_ZN20complex_dynamic_type3app17h9ae27d235d631bacE+0xc4>
   24b6c:	9804      	ldr	r0, [sp, #16]
   24b6e:	7005      	strb	r5, [r0, #0]
   24b70:	6041      	str	r1, [r0, #4]
   24b72:	482f      	ldr	r0, [pc, #188]	@ (24c30 <_ZN20complex_dynamic_type3app17h9ae27d235d631bacE+0x150>)
   24b74:	2103      	movs	r1, #3
   24b76:	2200      	movs	r2, #0
   24b78:	4613      	mov	r3, r2
   24b7a:	df03      	svc	3
   24b7c:	a805      	add	r0, sp, #20
   24b7e:	7800      	ldrb	r0, [r0, #0]
   24b80:	2802      	cmp	r0, #2
   24b82:	d046      	beq.n	24c12 <_ZN20complex_dynamic_type3app17h9ae27d235d631bacE+0x132>
   24b84:	2804      	cmp	r0, #4
   24b86:	d106      	bne.n	24b96 <_ZN20complex_dynamic_type3app17h9ae27d235d631bacE+0xb6>
   24b88:	4829      	ldr	r0, [pc, #164]	@ (24c30 <_ZN20complex_dynamic_type3app17h9ae27d235d631bacE+0x150>)
   24b8a:	2101      	movs	r1, #1
   24b8c:	2200      	movs	r2, #0
   24b8e:	4613      	mov	r3, r2
   24b90:	df04      	svc	4
   24b92:	b027      	add	sp, #156	@ 0x9c
   24b94:	bdf0      	pop	{r4, r5, r6, r7, pc}
   24b96:	4826      	ldr	r0, [pc, #152]	@ (24c30 <_ZN20complex_dynamic_type3app17h9ae27d235d631bacE+0x150>)
   24b98:	2101      	movs	r1, #1
   24b9a:	2200      	movs	r2, #0
   24b9c:	4613      	mov	r3, r2
   24b9e:	df03      	svc	3
   24ba0:	b027      	add	sp, #156	@ 0x9c
   24ba2:	bdf0      	pop	{r4, r5, r6, r7, pc}
   24ba4:	a805      	add	r0, sp, #20
   24ba6:	7800      	ldrb	r0, [r0, #0]
   24ba8:	2802      	cmp	r0, #2
   24baa:	d00c      	beq.n	24bc6 <_ZN20complex_dynamic_type3app17h9ae27d235d631bacE+0xe6>
   24bac:	2803      	cmp	r0, #3
   24bae:	d105      	bne.n	24bbc <_ZN20complex_dynamic_type3app17h9ae27d235d631bacE+0xdc>
   24bb0:	481f      	ldr	r0, [pc, #124]	@ (24c30 <_ZN20complex_dynamic_type3app17h9ae27d235d631bacE+0x150>)
   24bb2:	2101      	movs	r1, #1
   24bb4:	2200      	movs	r2, #0
   24bb6:	4613      	mov	r3, r2
   24bb8:	df03      	svc	3
   24bba:	e004      	b.n	24bc6 <_ZN20complex_dynamic_type3app17h9ae27d235d631bacE+0xe6>
   24bbc:	481c      	ldr	r0, [pc, #112]	@ (24c30 <_ZN20complex_dynamic_type3app17h9ae27d235d631bacE+0x150>)
   24bbe:	2101      	movs	r1, #1
   24bc0:	2200      	movs	r2, #0
   24bc2:	4613      	mov	r3, r2
   24bc4:	df04      	svc	4
   24bc6:	a805      	add	r0, sp, #20
   24bc8:	9901      	ldr	r1, [sp, #4]
   24bca:	7001      	strb	r1, [r0, #0]
   24bcc:	a810      	add	r0, sp, #64	@ 0x40
   24bce:	7800      	ldrb	r0, [r0, #0]
   24bd0:	2804      	cmp	r0, #4
   24bd2:	d007      	beq.n	24be4 <_ZN20complex_dynamic_type3app17h9ae27d235d631bacE+0x104>
   24bd4:	2803      	cmp	r0, #3
   24bd6:	d11e      	bne.n	24c16 <_ZN20complex_dynamic_type3app17h9ae27d235d631bacE+0x136>
   24bd8:	4815      	ldr	r0, [pc, #84]	@ (24c30 <_ZN20complex_dynamic_type3app17h9ae27d235d631bacE+0x150>)
   24bda:	2103      	movs	r1, #3
   24bdc:	2200      	movs	r2, #0
   24bde:	4613      	mov	r3, r2
   24be0:	df03      	svc	3
   24be2:	e004      	b.n	24bee <_ZN20complex_dynamic_type3app17h9ae27d235d631bacE+0x10e>
   24be4:	4812      	ldr	r0, [pc, #72]	@ (24c30 <_ZN20complex_dynamic_type3app17h9ae27d235d631bacE+0x150>)
   24be6:	2103      	movs	r1, #3
   24be8:	2200      	movs	r2, #0
   24bea:	4613      	mov	r3, r2
   24bec:	df04      	svc	4
   24bee:	a805      	add	r0, sp, #20
   24bf0:	7804      	ldrb	r4, [r0, #0]
   24bf2:	9d04      	ldr	r5, [sp, #16]
   24bf4:	1c68      	adds	r0, r5, #1
   24bf6:	2259      	movs	r2, #89	@ 0x59
   24bf8:	9902      	ldr	r1, [sp, #8]
   24bfa:	f006 fa83 	bl	2b104 <__aeabi_memcpy>
   24bfe:	702e      	strb	r6, [r5, #0]
   24c00:	2c02      	cmp	r4, #2
   24c02:	d006      	beq.n	24c12 <_ZN20complex_dynamic_type3app17h9ae27d235d631bacE+0x132>
   24c04:	480a      	ldr	r0, [pc, #40]	@ (24c30 <_ZN20complex_dynamic_type3app17h9ae27d235d631bacE+0x150>)
   24c06:	2101      	movs	r1, #1
   24c08:	2200      	movs	r2, #0
   24c0a:	4613      	mov	r3, r2
   24c0c:	2c04      	cmp	r4, #4
   24c0e:	d10b      	bne.n	24c28 <_ZN20complex_dynamic_type3app17h9ae27d235d631bacE+0x148>
   24c10:	df04      	svc	4
   24c12:	b027      	add	sp, #156	@ 0x9c
   24c14:	bdf0      	pop	{r4, r5, r6, r7, pc}
   24c16:	9c04      	ldr	r4, [sp, #16]
   24c18:	9902      	ldr	r1, [sp, #8]
   24c1a:	1c60      	adds	r0, r4, #1
   24c1c:	2259      	movs	r2, #89	@ 0x59
   24c1e:	f006 fa71 	bl	2b104 <__aeabi_memcpy>
   24c22:	7026      	strb	r6, [r4, #0]
   24c24:	b027      	add	sp, #156	@ 0x9c
   24c26:	bdf0      	pop	{r4, r5, r6, r7, pc}
   24c28:	df03      	svc	3
   24c2a:	b027      	add	sp, #156	@ 0x9c
   24c2c:	bdf0      	pop	{r4, r5, r6, r7, pc}
   24c2e:	46c0      	nop			@ (mov r8, r8)
   24c30:	00000ed2 	.word	0x00000ed2

00024c34 <_ZN20complex_dynamic_type3app17h9ba78c7b12a5da63E>:
   24c34:	b5f0      	push	{r4, r5, r6, r7, lr}
   24c36:	af03      	add	r7, sp, #12
   24c38:	b099      	sub	sp, #100	@ 0x64
   24c3a:	9004      	str	r0, [sp, #16]
   24c3c:	a805      	add	r0, sp, #20
   24c3e:	2402      	movs	r4, #2
   24c40:	7004      	strb	r4, [r0, #0]
   24c42:	1c46      	adds	r6, r0, #1
   24c44:	221e      	movs	r2, #30
   24c46:	9203      	str	r2, [sp, #12]
   24c48:	4630      	mov	r0, r6
   24c4a:	f006 fa5b 	bl	2b104 <__aeabi_memcpy>
   24c4e:	ad0d      	add	r5, sp, #52	@ 0x34
   24c50:	1c68      	adds	r0, r5, #1
   24c52:	212c      	movs	r1, #44	@ 0x2c
   24c54:	9002      	str	r0, [sp, #8]
   24c56:	f006 f895 	bl	2ad84 <__aeabi_memclr>
   24c5a:	9401      	str	r4, [sp, #4]
   24c5c:	702c      	strb	r4, [r5, #0]
   24c5e:	4848      	ldr	r0, [pc, #288]	@ (24d80 <_ZN20complex_dynamic_type3app17h9ba78c7b12a5da63E+0x14c>)
   24c60:	2107      	movs	r1, #7
   24c62:	4632      	mov	r2, r6
   24c64:	9b03      	ldr	r3, [sp, #12]
   24c66:	df04      	svc	4
   24c68:	2802      	cmp	r0, #2
   24c6a:	d104      	bne.n	24c76 <_ZN20complex_dynamic_type3app17h9ba78c7b12a5da63E+0x42>
   24c6c:	2001      	movs	r0, #1
   24c6e:	9a04      	ldr	r2, [sp, #16]
   24c70:	7010      	strb	r0, [r2, #0]
   24c72:	6051      	str	r1, [r2, #4]
   24c74:	e02d      	b.n	24cd2 <_ZN20complex_dynamic_type3app17h9ba78c7b12a5da63E+0x9e>
   24c76:	9d04      	ldr	r5, [sp, #16]
   24c78:	a805      	add	r0, sp, #20
   24c7a:	2104      	movs	r1, #4
   24c7c:	7001      	strb	r1, [r0, #0]
   24c7e:	4840      	ldr	r0, [pc, #256]	@ (24d80 <_ZN20complex_dynamic_type3app17h9ba78c7b12a5da63E+0x14c>)
   24c80:	2100      	movs	r1, #0
   24c82:	232c      	movs	r3, #44	@ 0x2c
   24c84:	9c02      	ldr	r4, [sp, #8]
   24c86:	4622      	mov	r2, r4
   24c88:	df03      	svc	3
   24c8a:	2802      	cmp	r0, #2
   24c8c:	d10e      	bne.n	24cac <_ZN20complex_dynamic_type3app17h9ba78c7b12a5da63E+0x78>
   24c8e:	2001      	movs	r0, #1
   24c90:	7028      	strb	r0, [r5, #0]
   24c92:	6069      	str	r1, [r5, #4]
   24c94:	a80d      	add	r0, sp, #52	@ 0x34
   24c96:	7800      	ldrb	r0, [r0, #0]
   24c98:	2802      	cmp	r0, #2
   24c9a:	d01a      	beq.n	24cd2 <_ZN20complex_dynamic_type3app17h9ba78c7b12a5da63E+0x9e>
   24c9c:	2803      	cmp	r0, #3
   24c9e:	d013      	beq.n	24cc8 <_ZN20complex_dynamic_type3app17h9ba78c7b12a5da63E+0x94>
   24ca0:	4837      	ldr	r0, [pc, #220]	@ (24d80 <_ZN20complex_dynamic_type3app17h9ba78c7b12a5da63E+0x14c>)
   24ca2:	2100      	movs	r1, #0
   24ca4:	460a      	mov	r2, r1
   24ca6:	460b      	mov	r3, r1
   24ca8:	df04      	svc	4
   24caa:	e012      	b.n	24cd2 <_ZN20complex_dynamic_type3app17h9ba78c7b12a5da63E+0x9e>
   24cac:	a80d      	add	r0, sp, #52	@ 0x34
   24cae:	2103      	movs	r1, #3
   24cb0:	7001      	strb	r1, [r0, #0]
   24cb2:	4833      	ldr	r0, [pc, #204]	@ (24d80 <_ZN20complex_dynamic_type3app17h9ba78c7b12a5da63E+0x14c>)
   24cb4:	2107      	movs	r1, #7
   24cb6:	2600      	movs	r6, #0
   24cb8:	4632      	mov	r2, r6
   24cba:	4633      	mov	r3, r6
   24cbc:	df02      	svc	2
   24cbe:	2880      	cmp	r0, #128	@ 0x80
   24cc0:	d21b      	bcs.n	24cfa <_ZN20complex_dynamic_type3app17h9ba78c7b12a5da63E+0xc6>
   24cc2:	2001      	movs	r0, #1
   24cc4:	7028      	strb	r0, [r5, #0]
   24cc6:	6069      	str	r1, [r5, #4]
   24cc8:	482d      	ldr	r0, [pc, #180]	@ (24d80 <_ZN20complex_dynamic_type3app17h9ba78c7b12a5da63E+0x14c>)
   24cca:	2100      	movs	r1, #0
   24ccc:	460a      	mov	r2, r1
   24cce:	460b      	mov	r3, r1
   24cd0:	df03      	svc	3
   24cd2:	a805      	add	r0, sp, #20
   24cd4:	7800      	ldrb	r0, [r0, #0]
   24cd6:	2802      	cmp	r0, #2
   24cd8:	d045      	beq.n	24d66 <_ZN20complex_dynamic_type3app17h9ba78c7b12a5da63E+0x132>
   24cda:	2804      	cmp	r0, #4
   24cdc:	d106      	bne.n	24cec <_ZN20complex_dynamic_type3app17h9ba78c7b12a5da63E+0xb8>
   24cde:	4828      	ldr	r0, [pc, #160]	@ (24d80 <_ZN20complex_dynamic_type3app17h9ba78c7b12a5da63E+0x14c>)
   24ce0:	2107      	movs	r1, #7
   24ce2:	2200      	movs	r2, #0
   24ce4:	4613      	mov	r3, r2
   24ce6:	df04      	svc	4
   24ce8:	b019      	add	sp, #100	@ 0x64
   24cea:	bdf0      	pop	{r4, r5, r6, r7, pc}
   24cec:	4824      	ldr	r0, [pc, #144]	@ (24d80 <_ZN20complex_dynamic_type3app17h9ba78c7b12a5da63E+0x14c>)
   24cee:	2107      	movs	r1, #7
   24cf0:	2200      	movs	r2, #0
   24cf2:	4613      	mov	r3, r2
   24cf4:	df03      	svc	3
   24cf6:	b019      	add	sp, #100	@ 0x64
   24cf8:	bdf0      	pop	{r4, r5, r6, r7, pc}
   24cfa:	a805      	add	r0, sp, #20
   24cfc:	7800      	ldrb	r0, [r0, #0]
   24cfe:	2802      	cmp	r0, #2
   24d00:	d00c      	beq.n	24d1c <_ZN20complex_dynamic_type3app17h9ba78c7b12a5da63E+0xe8>
   24d02:	2803      	cmp	r0, #3
   24d04:	d105      	bne.n	24d12 <_ZN20complex_dynamic_type3app17h9ba78c7b12a5da63E+0xde>
   24d06:	481e      	ldr	r0, [pc, #120]	@ (24d80 <_ZN20complex_dynamic_type3app17h9ba78c7b12a5da63E+0x14c>)
   24d08:	2107      	movs	r1, #7
   24d0a:	2200      	movs	r2, #0
   24d0c:	4613      	mov	r3, r2
   24d0e:	df03      	svc	3
   24d10:	e004      	b.n	24d1c <_ZN20complex_dynamic_type3app17h9ba78c7b12a5da63E+0xe8>
   24d12:	481b      	ldr	r0, [pc, #108]	@ (24d80 <_ZN20complex_dynamic_type3app17h9ba78c7b12a5da63E+0x14c>)
   24d14:	2107      	movs	r1, #7
   24d16:	2200      	movs	r2, #0
   24d18:	4613      	mov	r3, r2
   24d1a:	df04      	svc	4
   24d1c:	a805      	add	r0, sp, #20
   24d1e:	9901      	ldr	r1, [sp, #4]
   24d20:	7001      	strb	r1, [r0, #0]
   24d22:	a80d      	add	r0, sp, #52	@ 0x34
   24d24:	7800      	ldrb	r0, [r0, #0]
   24d26:	2804      	cmp	r0, #4
   24d28:	d007      	beq.n	24d3a <_ZN20complex_dynamic_type3app17h9ba78c7b12a5da63E+0x106>
   24d2a:	2803      	cmp	r0, #3
   24d2c:	d11d      	bne.n	24d6a <_ZN20complex_dynamic_type3app17h9ba78c7b12a5da63E+0x136>
   24d2e:	4814      	ldr	r0, [pc, #80]	@ (24d80 <_ZN20complex_dynamic_type3app17h9ba78c7b12a5da63E+0x14c>)
   24d30:	2100      	movs	r1, #0
   24d32:	460a      	mov	r2, r1
   24d34:	460b      	mov	r3, r1
   24d36:	df03      	svc	3
   24d38:	e004      	b.n	24d44 <_ZN20complex_dynamic_type3app17h9ba78c7b12a5da63E+0x110>
   24d3a:	4811      	ldr	r0, [pc, #68]	@ (24d80 <_ZN20complex_dynamic_type3app17h9ba78c7b12a5da63E+0x14c>)
   24d3c:	2100      	movs	r1, #0
   24d3e:	460a      	mov	r2, r1
   24d40:	460b      	mov	r3, r1
   24d42:	df04      	svc	4
   24d44:	a805      	add	r0, sp, #20
   24d46:	7804      	ldrb	r4, [r0, #0]
   24d48:	1c68      	adds	r0, r5, #1
   24d4a:	222c      	movs	r2, #44	@ 0x2c
   24d4c:	9902      	ldr	r1, [sp, #8]
   24d4e:	f006 f9d9 	bl	2b104 <__aeabi_memcpy>
   24d52:	702e      	strb	r6, [r5, #0]
   24d54:	2c02      	cmp	r4, #2
   24d56:	d006      	beq.n	24d66 <_ZN20complex_dynamic_type3app17h9ba78c7b12a5da63E+0x132>
   24d58:	4809      	ldr	r0, [pc, #36]	@ (24d80 <_ZN20complex_dynamic_type3app17h9ba78c7b12a5da63E+0x14c>)
   24d5a:	2107      	movs	r1, #7
   24d5c:	2200      	movs	r2, #0
   24d5e:	4613      	mov	r3, r2
   24d60:	2c04      	cmp	r4, #4
   24d62:	d10a      	bne.n	24d7a <_ZN20complex_dynamic_type3app17h9ba78c7b12a5da63E+0x146>
   24d64:	df04      	svc	4
   24d66:	b019      	add	sp, #100	@ 0x64
   24d68:	bdf0      	pop	{r4, r5, r6, r7, pc}
   24d6a:	1c68      	adds	r0, r5, #1
   24d6c:	222c      	movs	r2, #44	@ 0x2c
   24d6e:	4621      	mov	r1, r4
   24d70:	f006 f9c8 	bl	2b104 <__aeabi_memcpy>
   24d74:	702e      	strb	r6, [r5, #0]
   24d76:	b019      	add	sp, #100	@ 0x64
   24d78:	bdf0      	pop	{r4, r5, r6, r7, pc}
   24d7a:	df03      	svc	3
   24d7c:	b019      	add	sp, #100	@ 0x64
   24d7e:	bdf0      	pop	{r4, r5, r6, r7, pc}
   24d80:	000003fb 	.word	0x000003fb

00024d84 <_ZN20complex_dynamic_type3app17h9e70a7f76c2c6a27E>:
   24d84:	b5f0      	push	{r4, r5, r6, r7, lr}
   24d86:	af03      	add	r7, sp, #12
   24d88:	b0a5      	sub	sp, #148	@ 0x94
   24d8a:	9003      	str	r0, [sp, #12]
   24d8c:	a804      	add	r0, sp, #16
   24d8e:	2602      	movs	r6, #2
   24d90:	7006      	strb	r6, [r0, #0]
   24d92:	1c40      	adds	r0, r0, #1
   24d94:	9002      	str	r0, [sp, #8]
   24d96:	252d      	movs	r5, #45	@ 0x2d
   24d98:	462a      	mov	r2, r5
   24d9a:	f006 f9b3 	bl	2b104 <__aeabi_memcpy>
   24d9e:	ac10      	add	r4, sp, #64	@ 0x40
   24da0:	1c60      	adds	r0, r4, #1
   24da2:	2153      	movs	r1, #83	@ 0x53
   24da4:	9001      	str	r0, [sp, #4]
   24da6:	f005 ffed 	bl	2ad84 <__aeabi_memclr>
   24daa:	7026      	strb	r6, [r4, #0]
   24dac:	484a      	ldr	r0, [pc, #296]	@ (24ed8 <_ZN20complex_dynamic_type3app17h9e70a7f76c2c6a27E+0x154>)
   24dae:	4631      	mov	r1, r6
   24db0:	9a02      	ldr	r2, [sp, #8]
   24db2:	462b      	mov	r3, r5
   24db4:	df04      	svc	4
   24db6:	2802      	cmp	r0, #2
   24db8:	d104      	bne.n	24dc4 <_ZN20complex_dynamic_type3app17h9e70a7f76c2c6a27E+0x40>
   24dba:	2001      	movs	r0, #1
   24dbc:	9a03      	ldr	r2, [sp, #12]
   24dbe:	7010      	strb	r0, [r2, #0]
   24dc0:	6051      	str	r1, [r2, #4]
   24dc2:	e02e      	b.n	24e22 <_ZN20complex_dynamic_type3app17h9e70a7f76c2c6a27E+0x9e>
   24dc4:	9d03      	ldr	r5, [sp, #12]
   24dc6:	a804      	add	r0, sp, #16
   24dc8:	2104      	movs	r1, #4
   24dca:	7001      	strb	r1, [r0, #0]
   24dcc:	4842      	ldr	r0, [pc, #264]	@ (24ed8 <_ZN20complex_dynamic_type3app17h9e70a7f76c2c6a27E+0x154>)
   24dce:	2107      	movs	r1, #7
   24dd0:	2353      	movs	r3, #83	@ 0x53
   24dd2:	9c01      	ldr	r4, [sp, #4]
   24dd4:	4622      	mov	r2, r4
   24dd6:	df03      	svc	3
   24dd8:	2802      	cmp	r0, #2
   24dda:	d10e      	bne.n	24dfa <_ZN20complex_dynamic_type3app17h9e70a7f76c2c6a27E+0x76>
   24ddc:	2001      	movs	r0, #1
   24dde:	7028      	strb	r0, [r5, #0]
   24de0:	6069      	str	r1, [r5, #4]
   24de2:	a810      	add	r0, sp, #64	@ 0x40
   24de4:	7800      	ldrb	r0, [r0, #0]
   24de6:	2802      	cmp	r0, #2
   24de8:	d01b      	beq.n	24e22 <_ZN20complex_dynamic_type3app17h9e70a7f76c2c6a27E+0x9e>
   24dea:	2803      	cmp	r0, #3
   24dec:	d014      	beq.n	24e18 <_ZN20complex_dynamic_type3app17h9e70a7f76c2c6a27E+0x94>
   24dee:	483a      	ldr	r0, [pc, #232]	@ (24ed8 <_ZN20complex_dynamic_type3app17h9e70a7f76c2c6a27E+0x154>)
   24df0:	2107      	movs	r1, #7
   24df2:	2200      	movs	r2, #0
   24df4:	4613      	mov	r3, r2
   24df6:	df04      	svc	4
   24df8:	e013      	b.n	24e22 <_ZN20complex_dynamic_type3app17h9e70a7f76c2c6a27E+0x9e>
   24dfa:	a810      	add	r0, sp, #64	@ 0x40
   24dfc:	2103      	movs	r1, #3
   24dfe:	7001      	strb	r1, [r0, #0]
   24e00:	4835      	ldr	r0, [pc, #212]	@ (24ed8 <_ZN20complex_dynamic_type3app17h9e70a7f76c2c6a27E+0x154>)
   24e02:	2602      	movs	r6, #2
   24e04:	2207      	movs	r2, #7
   24e06:	2300      	movs	r3, #0
   24e08:	4631      	mov	r1, r6
   24e0a:	9302      	str	r3, [sp, #8]
   24e0c:	df02      	svc	2
   24e0e:	2880      	cmp	r0, #128	@ 0x80
   24e10:	d21b      	bcs.n	24e4a <_ZN20complex_dynamic_type3app17h9e70a7f76c2c6a27E+0xc6>
   24e12:	2001      	movs	r0, #1
   24e14:	7028      	strb	r0, [r5, #0]
   24e16:	6069      	str	r1, [r5, #4]
   24e18:	482f      	ldr	r0, [pc, #188]	@ (24ed8 <_ZN20complex_dynamic_type3app17h9e70a7f76c2c6a27E+0x154>)
   24e1a:	2107      	movs	r1, #7
   24e1c:	2200      	movs	r2, #0
   24e1e:	4613      	mov	r3, r2
   24e20:	df03      	svc	3
   24e22:	a804      	add	r0, sp, #16
   24e24:	7800      	ldrb	r0, [r0, #0]
   24e26:	2802      	cmp	r0, #2
   24e28:	d047      	beq.n	24eba <_ZN20complex_dynamic_type3app17h9e70a7f76c2c6a27E+0x136>
   24e2a:	2804      	cmp	r0, #4
   24e2c:	d106      	bne.n	24e3c <_ZN20complex_dynamic_type3app17h9e70a7f76c2c6a27E+0xb8>
   24e2e:	482a      	ldr	r0, [pc, #168]	@ (24ed8 <_ZN20complex_dynamic_type3app17h9e70a7f76c2c6a27E+0x154>)
   24e30:	2102      	movs	r1, #2
   24e32:	2200      	movs	r2, #0
   24e34:	4613      	mov	r3, r2
   24e36:	df04      	svc	4
   24e38:	b025      	add	sp, #148	@ 0x94
   24e3a:	bdf0      	pop	{r4, r5, r6, r7, pc}
   24e3c:	4826      	ldr	r0, [pc, #152]	@ (24ed8 <_ZN20complex_dynamic_type3app17h9e70a7f76c2c6a27E+0x154>)
   24e3e:	2102      	movs	r1, #2
   24e40:	2200      	movs	r2, #0
   24e42:	4613      	mov	r3, r2
   24e44:	df03      	svc	3
   24e46:	b025      	add	sp, #148	@ 0x94
   24e48:	bdf0      	pop	{r4, r5, r6, r7, pc}
   24e4a:	a804      	add	r0, sp, #16
   24e4c:	7800      	ldrb	r0, [r0, #0]
   24e4e:	2802      	cmp	r0, #2
   24e50:	d00c      	beq.n	24e6c <_ZN20complex_dynamic_type3app17h9e70a7f76c2c6a27E+0xe8>
   24e52:	2803      	cmp	r0, #3
   24e54:	d105      	bne.n	24e62 <_ZN20complex_dynamic_type3app17h9e70a7f76c2c6a27E+0xde>
   24e56:	4820      	ldr	r0, [pc, #128]	@ (24ed8 <_ZN20complex_dynamic_type3app17h9e70a7f76c2c6a27E+0x154>)
   24e58:	2102      	movs	r1, #2
   24e5a:	2200      	movs	r2, #0
   24e5c:	4613      	mov	r3, r2
   24e5e:	df03      	svc	3
   24e60:	e004      	b.n	24e6c <_ZN20complex_dynamic_type3app17h9e70a7f76c2c6a27E+0xe8>
   24e62:	481d      	ldr	r0, [pc, #116]	@ (24ed8 <_ZN20complex_dynamic_type3app17h9e70a7f76c2c6a27E+0x154>)
   24e64:	2102      	movs	r1, #2
   24e66:	2200      	movs	r2, #0
   24e68:	4613      	mov	r3, r2
   24e6a:	df04      	svc	4
   24e6c:	a804      	add	r0, sp, #16
   24e6e:	7006      	strb	r6, [r0, #0]
   24e70:	a810      	add	r0, sp, #64	@ 0x40
   24e72:	7800      	ldrb	r0, [r0, #0]
   24e74:	2804      	cmp	r0, #4
   24e76:	d008      	beq.n	24e8a <_ZN20complex_dynamic_type3app17h9e70a7f76c2c6a27E+0x106>
   24e78:	2803      	cmp	r0, #3
   24e7a:	d120      	bne.n	24ebe <_ZN20complex_dynamic_type3app17h9e70a7f76c2c6a27E+0x13a>
   24e7c:	4626      	mov	r6, r4
   24e7e:	4816      	ldr	r0, [pc, #88]	@ (24ed8 <_ZN20complex_dynamic_type3app17h9e70a7f76c2c6a27E+0x154>)
   24e80:	2107      	movs	r1, #7
   24e82:	2200      	movs	r2, #0
   24e84:	4613      	mov	r3, r2
   24e86:	df03      	svc	3
   24e88:	e005      	b.n	24e96 <_ZN20complex_dynamic_type3app17h9e70a7f76c2c6a27E+0x112>
   24e8a:	4626      	mov	r6, r4
   24e8c:	4812      	ldr	r0, [pc, #72]	@ (24ed8 <_ZN20complex_dynamic_type3app17h9e70a7f76c2c6a27E+0x154>)
   24e8e:	2107      	movs	r1, #7
   24e90:	2200      	movs	r2, #0
   24e92:	4613      	mov	r3, r2
   24e94:	df04      	svc	4
   24e96:	a804      	add	r0, sp, #16
   24e98:	7804      	ldrb	r4, [r0, #0]
   24e9a:	1c68      	adds	r0, r5, #1
   24e9c:	2253      	movs	r2, #83	@ 0x53
   24e9e:	4631      	mov	r1, r6
   24ea0:	f006 f930 	bl	2b104 <__aeabi_memcpy>
   24ea4:	9802      	ldr	r0, [sp, #8]
   24ea6:	7028      	strb	r0, [r5, #0]
   24ea8:	2c02      	cmp	r4, #2
   24eaa:	d006      	beq.n	24eba <_ZN20complex_dynamic_type3app17h9e70a7f76c2c6a27E+0x136>
   24eac:	480a      	ldr	r0, [pc, #40]	@ (24ed8 <_ZN20complex_dynamic_type3app17h9e70a7f76c2c6a27E+0x154>)
   24eae:	2102      	movs	r1, #2
   24eb0:	2200      	movs	r2, #0
   24eb2:	4613      	mov	r3, r2
   24eb4:	2c04      	cmp	r4, #4
   24eb6:	d10b      	bne.n	24ed0 <_ZN20complex_dynamic_type3app17h9e70a7f76c2c6a27E+0x14c>
   24eb8:	df04      	svc	4
   24eba:	b025      	add	sp, #148	@ 0x94
   24ebc:	bdf0      	pop	{r4, r5, r6, r7, pc}
   24ebe:	1c68      	adds	r0, r5, #1
   24ec0:	2253      	movs	r2, #83	@ 0x53
   24ec2:	4621      	mov	r1, r4
   24ec4:	f006 f91e 	bl	2b104 <__aeabi_memcpy>
   24ec8:	9802      	ldr	r0, [sp, #8]
   24eca:	7028      	strb	r0, [r5, #0]
   24ecc:	b025      	add	sp, #148	@ 0x94
   24ece:	bdf0      	pop	{r4, r5, r6, r7, pc}
   24ed0:	df03      	svc	3
   24ed2:	b025      	add	sp, #148	@ 0x94
   24ed4:	bdf0      	pop	{r4, r5, r6, r7, pc}
   24ed6:	46c0      	nop			@ (mov r8, r8)
   24ed8:	00000ec3 	.word	0x00000ec3

00024edc <_ZN20complex_dynamic_type3app17h9f2cdde1bfd8d7ffE>:
   24edc:	b5f0      	push	{r4, r5, r6, r7, lr}
   24ede:	af03      	add	r7, sp, #12
   24ee0:	b095      	sub	sp, #84	@ 0x54
   24ee2:	9003      	str	r0, [sp, #12]
   24ee4:	a804      	add	r0, sp, #16
   24ee6:	2402      	movs	r4, #2
   24ee8:	7004      	strb	r4, [r0, #0]
   24eea:	1c46      	adds	r6, r0, #1
   24eec:	2214      	movs	r2, #20
   24eee:	9202      	str	r2, [sp, #8]
   24ef0:	4630      	mov	r0, r6
   24ef2:	f006 f907 	bl	2b104 <__aeabi_memcpy>
   24ef6:	ad0a      	add	r5, sp, #40	@ 0x28
   24ef8:	1c68      	adds	r0, r5, #1
   24efa:	212b      	movs	r1, #43	@ 0x2b
   24efc:	9001      	str	r0, [sp, #4]
   24efe:	f005 ff41 	bl	2ad84 <__aeabi_memclr>
   24f02:	9400      	str	r4, [sp, #0]
   24f04:	702c      	strb	r4, [r5, #0]
   24f06:	4848      	ldr	r0, [pc, #288]	@ (25028 <_ZN20complex_dynamic_type3app17h9f2cdde1bfd8d7ffE+0x14c>)
   24f08:	2108      	movs	r1, #8
   24f0a:	4632      	mov	r2, r6
   24f0c:	9b02      	ldr	r3, [sp, #8]
   24f0e:	df04      	svc	4
   24f10:	2802      	cmp	r0, #2
   24f12:	d104      	bne.n	24f1e <_ZN20complex_dynamic_type3app17h9f2cdde1bfd8d7ffE+0x42>
   24f14:	2001      	movs	r0, #1
   24f16:	9a03      	ldr	r2, [sp, #12]
   24f18:	7010      	strb	r0, [r2, #0]
   24f1a:	6051      	str	r1, [r2, #4]
   24f1c:	e02c      	b.n	24f78 <_ZN20complex_dynamic_type3app17h9f2cdde1bfd8d7ffE+0x9c>
   24f1e:	9d03      	ldr	r5, [sp, #12]
   24f20:	a804      	add	r0, sp, #16
   24f22:	2104      	movs	r1, #4
   24f24:	7001      	strb	r1, [r0, #0]
   24f26:	4840      	ldr	r0, [pc, #256]	@ (25028 <_ZN20complex_dynamic_type3app17h9f2cdde1bfd8d7ffE+0x14c>)
   24f28:	232b      	movs	r3, #43	@ 0x2b
   24f2a:	9c01      	ldr	r4, [sp, #4]
   24f2c:	4622      	mov	r2, r4
   24f2e:	df03      	svc	3
   24f30:	2802      	cmp	r0, #2
   24f32:	d10e      	bne.n	24f52 <_ZN20complex_dynamic_type3app17h9f2cdde1bfd8d7ffE+0x76>
   24f34:	2001      	movs	r0, #1
   24f36:	7028      	strb	r0, [r5, #0]
   24f38:	6069      	str	r1, [r5, #4]
   24f3a:	a80a      	add	r0, sp, #40	@ 0x28
   24f3c:	7800      	ldrb	r0, [r0, #0]
   24f3e:	2802      	cmp	r0, #2
   24f40:	d01a      	beq.n	24f78 <_ZN20complex_dynamic_type3app17h9f2cdde1bfd8d7ffE+0x9c>
   24f42:	2803      	cmp	r0, #3
   24f44:	d013      	beq.n	24f6e <_ZN20complex_dynamic_type3app17h9f2cdde1bfd8d7ffE+0x92>
   24f46:	4838      	ldr	r0, [pc, #224]	@ (25028 <_ZN20complex_dynamic_type3app17h9f2cdde1bfd8d7ffE+0x14c>)
   24f48:	2104      	movs	r1, #4
   24f4a:	2200      	movs	r2, #0
   24f4c:	4613      	mov	r3, r2
   24f4e:	df04      	svc	4
   24f50:	e012      	b.n	24f78 <_ZN20complex_dynamic_type3app17h9f2cdde1bfd8d7ffE+0x9c>
   24f52:	a80a      	add	r0, sp, #40	@ 0x28
   24f54:	2103      	movs	r1, #3
   24f56:	7001      	strb	r1, [r0, #0]
   24f58:	4833      	ldr	r0, [pc, #204]	@ (25028 <_ZN20complex_dynamic_type3app17h9f2cdde1bfd8d7ffE+0x14c>)
   24f5a:	2108      	movs	r1, #8
   24f5c:	2204      	movs	r2, #4
   24f5e:	2600      	movs	r6, #0
   24f60:	4633      	mov	r3, r6
   24f62:	df02      	svc	2
   24f64:	2880      	cmp	r0, #128	@ 0x80
   24f66:	d21b      	bcs.n	24fa0 <_ZN20complex_dynamic_type3app17h9f2cdde1bfd8d7ffE+0xc4>
   24f68:	2001      	movs	r0, #1
   24f6a:	7028      	strb	r0, [r5, #0]
   24f6c:	6069      	str	r1, [r5, #4]
   24f6e:	482e      	ldr	r0, [pc, #184]	@ (25028 <_ZN20complex_dynamic_type3app17h9f2cdde1bfd8d7ffE+0x14c>)
   24f70:	2104      	movs	r1, #4
   24f72:	2200      	movs	r2, #0
   24f74:	4613      	mov	r3, r2
   24f76:	df03      	svc	3
   24f78:	a804      	add	r0, sp, #16
   24f7a:	7800      	ldrb	r0, [r0, #0]
   24f7c:	2802      	cmp	r0, #2
   24f7e:	d045      	beq.n	2500c <_ZN20complex_dynamic_type3app17h9f2cdde1bfd8d7ffE+0x130>
   24f80:	2804      	cmp	r0, #4
   24f82:	d106      	bne.n	24f92 <_ZN20complex_dynamic_type3app17h9f2cdde1bfd8d7ffE+0xb6>
   24f84:	4828      	ldr	r0, [pc, #160]	@ (25028 <_ZN20complex_dynamic_type3app17h9f2cdde1bfd8d7ffE+0x14c>)
   24f86:	2108      	movs	r1, #8
   24f88:	2200      	movs	r2, #0
   24f8a:	4613      	mov	r3, r2
   24f8c:	df04      	svc	4
   24f8e:	b015      	add	sp, #84	@ 0x54
   24f90:	bdf0      	pop	{r4, r5, r6, r7, pc}
   24f92:	4825      	ldr	r0, [pc, #148]	@ (25028 <_ZN20complex_dynamic_type3app17h9f2cdde1bfd8d7ffE+0x14c>)
   24f94:	2108      	movs	r1, #8
   24f96:	2200      	movs	r2, #0
   24f98:	4613      	mov	r3, r2
   24f9a:	df03      	svc	3
   24f9c:	b015      	add	sp, #84	@ 0x54
   24f9e:	bdf0      	pop	{r4, r5, r6, r7, pc}
   24fa0:	a804      	add	r0, sp, #16
   24fa2:	7800      	ldrb	r0, [r0, #0]
   24fa4:	2802      	cmp	r0, #2
   24fa6:	d00c      	beq.n	24fc2 <_ZN20complex_dynamic_type3app17h9f2cdde1bfd8d7ffE+0xe6>
   24fa8:	2803      	cmp	r0, #3
   24faa:	d105      	bne.n	24fb8 <_ZN20complex_dynamic_type3app17h9f2cdde1bfd8d7ffE+0xdc>
   24fac:	481e      	ldr	r0, [pc, #120]	@ (25028 <_ZN20complex_dynamic_type3app17h9f2cdde1bfd8d7ffE+0x14c>)
   24fae:	2108      	movs	r1, #8
   24fb0:	2200      	movs	r2, #0
   24fb2:	4613      	mov	r3, r2
   24fb4:	df03      	svc	3
   24fb6:	e004      	b.n	24fc2 <_ZN20complex_dynamic_type3app17h9f2cdde1bfd8d7ffE+0xe6>
   24fb8:	481b      	ldr	r0, [pc, #108]	@ (25028 <_ZN20complex_dynamic_type3app17h9f2cdde1bfd8d7ffE+0x14c>)
   24fba:	2108      	movs	r1, #8
   24fbc:	2200      	movs	r2, #0
   24fbe:	4613      	mov	r3, r2
   24fc0:	df04      	svc	4
   24fc2:	a804      	add	r0, sp, #16
   24fc4:	9900      	ldr	r1, [sp, #0]
   24fc6:	7001      	strb	r1, [r0, #0]
   24fc8:	a80a      	add	r0, sp, #40	@ 0x28
   24fca:	7800      	ldrb	r0, [r0, #0]
   24fcc:	2804      	cmp	r0, #4
   24fce:	d007      	beq.n	24fe0 <_ZN20complex_dynamic_type3app17h9f2cdde1bfd8d7ffE+0x104>
   24fd0:	2803      	cmp	r0, #3
   24fd2:	d11d      	bne.n	25010 <_ZN20complex_dynamic_type3app17h9f2cdde1bfd8d7ffE+0x134>
   24fd4:	4814      	ldr	r0, [pc, #80]	@ (25028 <_ZN20complex_dynamic_type3app17h9f2cdde1bfd8d7ffE+0x14c>)
   24fd6:	2104      	movs	r1, #4
   24fd8:	2200      	movs	r2, #0
   24fda:	4613      	mov	r3, r2
   24fdc:	df03      	svc	3
   24fde:	e004      	b.n	24fea <_ZN20complex_dynamic_type3app17h9f2cdde1bfd8d7ffE+0x10e>
   24fe0:	4811      	ldr	r0, [pc, #68]	@ (25028 <_ZN20complex_dynamic_type3app17h9f2cdde1bfd8d7ffE+0x14c>)
   24fe2:	2104      	movs	r1, #4
   24fe4:	2200      	movs	r2, #0
   24fe6:	4613      	mov	r3, r2
   24fe8:	df04      	svc	4
   24fea:	a804      	add	r0, sp, #16
   24fec:	7804      	ldrb	r4, [r0, #0]
   24fee:	1c68      	adds	r0, r5, #1
   24ff0:	222b      	movs	r2, #43	@ 0x2b
   24ff2:	9901      	ldr	r1, [sp, #4]
   24ff4:	f006 f886 	bl	2b104 <__aeabi_memcpy>
   24ff8:	702e      	strb	r6, [r5, #0]
   24ffa:	2c02      	cmp	r4, #2
   24ffc:	d006      	beq.n	2500c <_ZN20complex_dynamic_type3app17h9f2cdde1bfd8d7ffE+0x130>
   24ffe:	480a      	ldr	r0, [pc, #40]	@ (25028 <_ZN20complex_dynamic_type3app17h9f2cdde1bfd8d7ffE+0x14c>)
   25000:	2108      	movs	r1, #8
   25002:	2200      	movs	r2, #0
   25004:	4613      	mov	r3, r2
   25006:	2c04      	cmp	r4, #4
   25008:	d10a      	bne.n	25020 <_ZN20complex_dynamic_type3app17h9f2cdde1bfd8d7ffE+0x144>
   2500a:	df04      	svc	4
   2500c:	b015      	add	sp, #84	@ 0x54
   2500e:	bdf0      	pop	{r4, r5, r6, r7, pc}
   25010:	1c68      	adds	r0, r5, #1
   25012:	222b      	movs	r2, #43	@ 0x2b
   25014:	4621      	mov	r1, r4
   25016:	f006 f875 	bl	2b104 <__aeabi_memcpy>
   2501a:	702e      	strb	r6, [r5, #0]
   2501c:	b015      	add	sp, #84	@ 0x54
   2501e:	bdf0      	pop	{r4, r5, r6, r7, pc}
   25020:	df03      	svc	3
   25022:	b015      	add	sp, #84	@ 0x54
   25024:	bdf0      	pop	{r4, r5, r6, r7, pc}
   25026:	46c0      	nop			@ (mov r8, r8)
   25028:	0000239f 	.word	0x0000239f

0002502c <_ZN20complex_dynamic_type3app17ha069f7b2b7fe5354E>:
   2502c:	b5f0      	push	{r4, r5, r6, r7, lr}
   2502e:	af03      	add	r7, sp, #12
   25030:	b0a5      	sub	sp, #148	@ 0x94
   25032:	9004      	str	r0, [sp, #16]
   25034:	a805      	add	r0, sp, #20
   25036:	2402      	movs	r4, #2
   25038:	7004      	strb	r4, [r0, #0]
   2503a:	1c46      	adds	r6, r0, #1
   2503c:	221c      	movs	r2, #28
   2503e:	9203      	str	r2, [sp, #12]
   25040:	4630      	mov	r0, r6
   25042:	f006 f85f 	bl	2b104 <__aeabi_memcpy>
   25046:	ad0d      	add	r5, sp, #52	@ 0x34
   25048:	1c68      	adds	r0, r5, #1
   2504a:	215d      	movs	r1, #93	@ 0x5d
   2504c:	9002      	str	r0, [sp, #8]
   2504e:	f005 fe99 	bl	2ad84 <__aeabi_memclr>
   25052:	9401      	str	r4, [sp, #4]
   25054:	702c      	strb	r4, [r5, #0]
   25056:	4848      	ldr	r0, [pc, #288]	@ (25178 <_ZN20complex_dynamic_type3app17ha069f7b2b7fe5354E+0x14c>)
   25058:	2108      	movs	r1, #8
   2505a:	4632      	mov	r2, r6
   2505c:	9b03      	ldr	r3, [sp, #12]
   2505e:	df04      	svc	4
   25060:	2802      	cmp	r0, #2
   25062:	d104      	bne.n	2506e <_ZN20complex_dynamic_type3app17ha069f7b2b7fe5354E+0x42>
   25064:	2001      	movs	r0, #1
   25066:	9a04      	ldr	r2, [sp, #16]
   25068:	7010      	strb	r0, [r2, #0]
   2506a:	6051      	str	r1, [r2, #4]
   2506c:	e02d      	b.n	250ca <_ZN20complex_dynamic_type3app17ha069f7b2b7fe5354E+0x9e>
   2506e:	9d04      	ldr	r5, [sp, #16]
   25070:	a805      	add	r0, sp, #20
   25072:	2104      	movs	r1, #4
   25074:	7001      	strb	r1, [r0, #0]
   25076:	4840      	ldr	r0, [pc, #256]	@ (25178 <_ZN20complex_dynamic_type3app17ha069f7b2b7fe5354E+0x14c>)
   25078:	2105      	movs	r1, #5
   2507a:	235d      	movs	r3, #93	@ 0x5d
   2507c:	9c02      	ldr	r4, [sp, #8]
   2507e:	4622      	mov	r2, r4
   25080:	df03      	svc	3
   25082:	2802      	cmp	r0, #2
   25084:	d10e      	bne.n	250a4 <_ZN20complex_dynamic_type3app17ha069f7b2b7fe5354E+0x78>
   25086:	2001      	movs	r0, #1
   25088:	7028      	strb	r0, [r5, #0]
   2508a:	6069      	str	r1, [r5, #4]
   2508c:	a80d      	add	r0, sp, #52	@ 0x34
   2508e:	7800      	ldrb	r0, [r0, #0]
   25090:	2802      	cmp	r0, #2
   25092:	d01a      	beq.n	250ca <_ZN20complex_dynamic_type3app17ha069f7b2b7fe5354E+0x9e>
   25094:	2803      	cmp	r0, #3
   25096:	d013      	beq.n	250c0 <_ZN20complex_dynamic_type3app17ha069f7b2b7fe5354E+0x94>
   25098:	4837      	ldr	r0, [pc, #220]	@ (25178 <_ZN20complex_dynamic_type3app17ha069f7b2b7fe5354E+0x14c>)
   2509a:	2105      	movs	r1, #5
   2509c:	2200      	movs	r2, #0
   2509e:	4613      	mov	r3, r2
   250a0:	df04      	svc	4
   250a2:	e012      	b.n	250ca <_ZN20complex_dynamic_type3app17ha069f7b2b7fe5354E+0x9e>
   250a4:	a80d      	add	r0, sp, #52	@ 0x34
   250a6:	2103      	movs	r1, #3
   250a8:	7001      	strb	r1, [r0, #0]
   250aa:	4833      	ldr	r0, [pc, #204]	@ (25178 <_ZN20complex_dynamic_type3app17ha069f7b2b7fe5354E+0x14c>)
   250ac:	2108      	movs	r1, #8
   250ae:	2205      	movs	r2, #5
   250b0:	2600      	movs	r6, #0
   250b2:	4633      	mov	r3, r6
   250b4:	df02      	svc	2
   250b6:	2880      	cmp	r0, #128	@ 0x80
   250b8:	d21b      	bcs.n	250f2 <_ZN20complex_dynamic_type3app17ha069f7b2b7fe5354E+0xc6>
   250ba:	2001      	movs	r0, #1
   250bc:	7028      	strb	r0, [r5, #0]
   250be:	6069      	str	r1, [r5, #4]
   250c0:	482d      	ldr	r0, [pc, #180]	@ (25178 <_ZN20complex_dynamic_type3app17ha069f7b2b7fe5354E+0x14c>)
   250c2:	2105      	movs	r1, #5
   250c4:	2200      	movs	r2, #0
   250c6:	4613      	mov	r3, r2
   250c8:	df03      	svc	3
   250ca:	a805      	add	r0, sp, #20
   250cc:	7800      	ldrb	r0, [r0, #0]
   250ce:	2802      	cmp	r0, #2
   250d0:	d045      	beq.n	2515e <_ZN20complex_dynamic_type3app17ha069f7b2b7fe5354E+0x132>
   250d2:	2804      	cmp	r0, #4
   250d4:	d106      	bne.n	250e4 <_ZN20complex_dynamic_type3app17ha069f7b2b7fe5354E+0xb8>
   250d6:	4828      	ldr	r0, [pc, #160]	@ (25178 <_ZN20complex_dynamic_type3app17ha069f7b2b7fe5354E+0x14c>)
   250d8:	2108      	movs	r1, #8
   250da:	2200      	movs	r2, #0
   250dc:	4613      	mov	r3, r2
   250de:	df04      	svc	4
   250e0:	b025      	add	sp, #148	@ 0x94
   250e2:	bdf0      	pop	{r4, r5, r6, r7, pc}
   250e4:	4824      	ldr	r0, [pc, #144]	@ (25178 <_ZN20complex_dynamic_type3app17ha069f7b2b7fe5354E+0x14c>)
   250e6:	2108      	movs	r1, #8
   250e8:	2200      	movs	r2, #0
   250ea:	4613      	mov	r3, r2
   250ec:	df03      	svc	3
   250ee:	b025      	add	sp, #148	@ 0x94
   250f0:	bdf0      	pop	{r4, r5, r6, r7, pc}
   250f2:	a805      	add	r0, sp, #20
   250f4:	7800      	ldrb	r0, [r0, #0]
   250f6:	2802      	cmp	r0, #2
   250f8:	d00c      	beq.n	25114 <_ZN20complex_dynamic_type3app17ha069f7b2b7fe5354E+0xe8>
   250fa:	2803      	cmp	r0, #3
   250fc:	d105      	bne.n	2510a <_ZN20complex_dynamic_type3app17ha069f7b2b7fe5354E+0xde>
   250fe:	481e      	ldr	r0, [pc, #120]	@ (25178 <_ZN20complex_dynamic_type3app17ha069f7b2b7fe5354E+0x14c>)
   25100:	2108      	movs	r1, #8
   25102:	2200      	movs	r2, #0
   25104:	4613      	mov	r3, r2
   25106:	df03      	svc	3
   25108:	e004      	b.n	25114 <_ZN20complex_dynamic_type3app17ha069f7b2b7fe5354E+0xe8>
   2510a:	481b      	ldr	r0, [pc, #108]	@ (25178 <_ZN20complex_dynamic_type3app17ha069f7b2b7fe5354E+0x14c>)
   2510c:	2108      	movs	r1, #8
   2510e:	2200      	movs	r2, #0
   25110:	4613      	mov	r3, r2
   25112:	df04      	svc	4
   25114:	a805      	add	r0, sp, #20
   25116:	9901      	ldr	r1, [sp, #4]
   25118:	7001      	strb	r1, [r0, #0]
   2511a:	a80d      	add	r0, sp, #52	@ 0x34
   2511c:	7800      	ldrb	r0, [r0, #0]
   2511e:	2804      	cmp	r0, #4
   25120:	d007      	beq.n	25132 <_ZN20complex_dynamic_type3app17ha069f7b2b7fe5354E+0x106>
   25122:	2803      	cmp	r0, #3
   25124:	d11d      	bne.n	25162 <_ZN20complex_dynamic_type3app17ha069f7b2b7fe5354E+0x136>
   25126:	4814      	ldr	r0, [pc, #80]	@ (25178 <_ZN20complex_dynamic_type3app17ha069f7b2b7fe5354E+0x14c>)
   25128:	2105      	movs	r1, #5
   2512a:	2200      	movs	r2, #0
   2512c:	4613      	mov	r3, r2
   2512e:	df03      	svc	3
   25130:	e004      	b.n	2513c <_ZN20complex_dynamic_type3app17ha069f7b2b7fe5354E+0x110>
   25132:	4811      	ldr	r0, [pc, #68]	@ (25178 <_ZN20complex_dynamic_type3app17ha069f7b2b7fe5354E+0x14c>)
   25134:	2105      	movs	r1, #5
   25136:	2200      	movs	r2, #0
   25138:	4613      	mov	r3, r2
   2513a:	df04      	svc	4
   2513c:	a805      	add	r0, sp, #20
   2513e:	7804      	ldrb	r4, [r0, #0]
   25140:	1c68      	adds	r0, r5, #1
   25142:	225d      	movs	r2, #93	@ 0x5d
   25144:	9902      	ldr	r1, [sp, #8]
   25146:	f005 ffdd 	bl	2b104 <__aeabi_memcpy>
   2514a:	702e      	strb	r6, [r5, #0]
   2514c:	2c02      	cmp	r4, #2
   2514e:	d006      	beq.n	2515e <_ZN20complex_dynamic_type3app17ha069f7b2b7fe5354E+0x132>
   25150:	4809      	ldr	r0, [pc, #36]	@ (25178 <_ZN20complex_dynamic_type3app17ha069f7b2b7fe5354E+0x14c>)
   25152:	2108      	movs	r1, #8
   25154:	2200      	movs	r2, #0
   25156:	4613      	mov	r3, r2
   25158:	2c04      	cmp	r4, #4
   2515a:	d10a      	bne.n	25172 <_ZN20complex_dynamic_type3app17ha069f7b2b7fe5354E+0x146>
   2515c:	df04      	svc	4
   2515e:	b025      	add	sp, #148	@ 0x94
   25160:	bdf0      	pop	{r4, r5, r6, r7, pc}
   25162:	1c68      	adds	r0, r5, #1
   25164:	225d      	movs	r2, #93	@ 0x5d
   25166:	4621      	mov	r1, r4
   25168:	f005 ffcc 	bl	2b104 <__aeabi_memcpy>
   2516c:	702e      	strb	r6, [r5, #0]
   2516e:	b025      	add	sp, #148	@ 0x94
   25170:	bdf0      	pop	{r4, r5, r6, r7, pc}
   25172:	df03      	svc	3
   25174:	b025      	add	sp, #148	@ 0x94
   25176:	bdf0      	pop	{r4, r5, r6, r7, pc}
   25178:	00000c3e 	.word	0x00000c3e

0002517c <_ZN20complex_dynamic_type3app17ha73eafe683c1060eE>:
   2517c:	b5f0      	push	{r4, r5, r6, r7, lr}
   2517e:	af03      	add	r7, sp, #12
   25180:	b09d      	sub	sp, #116	@ 0x74
   25182:	9004      	str	r0, [sp, #16]
   25184:	a805      	add	r0, sp, #20
   25186:	2502      	movs	r5, #2
   25188:	7005      	strb	r5, [r0, #0]
   2518a:	1c40      	adds	r0, r0, #1
   2518c:	9003      	str	r0, [sp, #12]
   2518e:	261b      	movs	r6, #27
   25190:	4632      	mov	r2, r6
   25192:	f005 ffb7 	bl	2b104 <__aeabi_memcpy>
   25196:	ac0c      	add	r4, sp, #48	@ 0x30
   25198:	1c60      	adds	r0, r4, #1
   2519a:	2141      	movs	r1, #65	@ 0x41
   2519c:	9002      	str	r0, [sp, #8]
   2519e:	f005 fdf1 	bl	2ad84 <__aeabi_memclr>
   251a2:	9501      	str	r5, [sp, #4]
   251a4:	7025      	strb	r5, [r4, #0]
   251a6:	2005      	movs	r0, #5
   251a8:	0184      	lsls	r4, r0, #6
   251aa:	2108      	movs	r1, #8
   251ac:	4620      	mov	r0, r4
   251ae:	9a03      	ldr	r2, [sp, #12]
   251b0:	4633      	mov	r3, r6
   251b2:	df04      	svc	4
   251b4:	2802      	cmp	r0, #2
   251b6:	d104      	bne.n	251c2 <_ZN20complex_dynamic_type3app17ha73eafe683c1060eE+0x46>
   251b8:	2001      	movs	r0, #1
   251ba:	9a04      	ldr	r2, [sp, #16]
   251bc:	7010      	strb	r0, [r2, #0]
   251be:	6051      	str	r1, [r2, #4]
   251c0:	e02d      	b.n	2521e <_ZN20complex_dynamic_type3app17ha73eafe683c1060eE+0xa2>
   251c2:	9e04      	ldr	r6, [sp, #16]
   251c4:	a805      	add	r0, sp, #20
   251c6:	2104      	movs	r1, #4
   251c8:	7001      	strb	r1, [r0, #0]
   251ca:	2109      	movs	r1, #9
   251cc:	2341      	movs	r3, #65	@ 0x41
   251ce:	4620      	mov	r0, r4
   251d0:	9d02      	ldr	r5, [sp, #8]
   251d2:	462a      	mov	r2, r5
   251d4:	df03      	svc	3
   251d6:	2802      	cmp	r0, #2
   251d8:	d10e      	bne.n	251f8 <_ZN20complex_dynamic_type3app17ha73eafe683c1060eE+0x7c>
   251da:	2001      	movs	r0, #1
   251dc:	7030      	strb	r0, [r6, #0]
   251de:	6071      	str	r1, [r6, #4]
   251e0:	a80c      	add	r0, sp, #48	@ 0x30
   251e2:	7800      	ldrb	r0, [r0, #0]
   251e4:	2802      	cmp	r0, #2
   251e6:	d01a      	beq.n	2521e <_ZN20complex_dynamic_type3app17ha73eafe683c1060eE+0xa2>
   251e8:	2803      	cmp	r0, #3
   251ea:	d013      	beq.n	25214 <_ZN20complex_dynamic_type3app17ha73eafe683c1060eE+0x98>
   251ec:	2109      	movs	r1, #9
   251ee:	2200      	movs	r2, #0
   251f0:	4620      	mov	r0, r4
   251f2:	4613      	mov	r3, r2
   251f4:	df04      	svc	4
   251f6:	e012      	b.n	2521e <_ZN20complex_dynamic_type3app17ha73eafe683c1060eE+0xa2>
   251f8:	a80c      	add	r0, sp, #48	@ 0x30
   251fa:	2103      	movs	r1, #3
   251fc:	7001      	strb	r1, [r0, #0]
   251fe:	2108      	movs	r1, #8
   25200:	2209      	movs	r2, #9
   25202:	2300      	movs	r3, #0
   25204:	4620      	mov	r0, r4
   25206:	9303      	str	r3, [sp, #12]
   25208:	df02      	svc	2
   2520a:	2880      	cmp	r0, #128	@ 0x80
   2520c:	d219      	bcs.n	25242 <_ZN20complex_dynamic_type3app17ha73eafe683c1060eE+0xc6>
   2520e:	2001      	movs	r0, #1
   25210:	7030      	strb	r0, [r6, #0]
   25212:	6071      	str	r1, [r6, #4]
   25214:	2109      	movs	r1, #9
   25216:	2200      	movs	r2, #0
   25218:	4620      	mov	r0, r4
   2521a:	4613      	mov	r3, r2
   2521c:	df03      	svc	3
   2521e:	a805      	add	r0, sp, #20
   25220:	7800      	ldrb	r0, [r0, #0]
   25222:	2802      	cmp	r0, #2
   25224:	d044      	beq.n	252b0 <_ZN20complex_dynamic_type3app17ha73eafe683c1060eE+0x134>
   25226:	2108      	movs	r1, #8
   25228:	2200      	movs	r2, #0
   2522a:	2804      	cmp	r0, #4
   2522c:	d104      	bne.n	25238 <_ZN20complex_dynamic_type3app17ha73eafe683c1060eE+0xbc>
   2522e:	4620      	mov	r0, r4
   25230:	4613      	mov	r3, r2
   25232:	df04      	svc	4
   25234:	b01d      	add	sp, #116	@ 0x74
   25236:	bdf0      	pop	{r4, r5, r6, r7, pc}
   25238:	4620      	mov	r0, r4
   2523a:	4613      	mov	r3, r2
   2523c:	df03      	svc	3
   2523e:	b01d      	add	sp, #116	@ 0x74
   25240:	bdf0      	pop	{r4, r5, r6, r7, pc}
   25242:	a805      	add	r0, sp, #20
   25244:	7800      	ldrb	r0, [r0, #0]
   25246:	2802      	cmp	r0, #2
   25248:	d00a      	beq.n	25260 <_ZN20complex_dynamic_type3app17ha73eafe683c1060eE+0xe4>
   2524a:	2108      	movs	r1, #8
   2524c:	2200      	movs	r2, #0
   2524e:	2803      	cmp	r0, #3
   25250:	d103      	bne.n	2525a <_ZN20complex_dynamic_type3app17ha73eafe683c1060eE+0xde>
   25252:	4620      	mov	r0, r4
   25254:	4613      	mov	r3, r2
   25256:	df03      	svc	3
   25258:	e002      	b.n	25260 <_ZN20complex_dynamic_type3app17ha73eafe683c1060eE+0xe4>
   2525a:	4620      	mov	r0, r4
   2525c:	4613      	mov	r3, r2
   2525e:	df04      	svc	4
   25260:	a805      	add	r0, sp, #20
   25262:	9901      	ldr	r1, [sp, #4]
   25264:	7001      	strb	r1, [r0, #0]
   25266:	a80c      	add	r0, sp, #48	@ 0x30
   25268:	7800      	ldrb	r0, [r0, #0]
   2526a:	2804      	cmp	r0, #4
   2526c:	d008      	beq.n	25280 <_ZN20complex_dynamic_type3app17ha73eafe683c1060eE+0x104>
   2526e:	2803      	cmp	r0, #3
   25270:	d120      	bne.n	252b4 <_ZN20complex_dynamic_type3app17ha73eafe683c1060eE+0x138>
   25272:	2109      	movs	r1, #9
   25274:	2200      	movs	r2, #0
   25276:	9401      	str	r4, [sp, #4]
   25278:	4620      	mov	r0, r4
   2527a:	4613      	mov	r3, r2
   2527c:	df03      	svc	3
   2527e:	e005      	b.n	2528c <_ZN20complex_dynamic_type3app17ha73eafe683c1060eE+0x110>
   25280:	2109      	movs	r1, #9
   25282:	2200      	movs	r2, #0
   25284:	9401      	str	r4, [sp, #4]
   25286:	4620      	mov	r0, r4
   25288:	4613      	mov	r3, r2
   2528a:	df04      	svc	4
   2528c:	a805      	add	r0, sp, #20
   2528e:	7804      	ldrb	r4, [r0, #0]
   25290:	1c70      	adds	r0, r6, #1
   25292:	2241      	movs	r2, #65	@ 0x41
   25294:	4629      	mov	r1, r5
   25296:	f005 ff35 	bl	2b104 <__aeabi_memcpy>
   2529a:	9803      	ldr	r0, [sp, #12]
   2529c:	7030      	strb	r0, [r6, #0]
   2529e:	2c02      	cmp	r4, #2
   252a0:	d006      	beq.n	252b0 <_ZN20complex_dynamic_type3app17ha73eafe683c1060eE+0x134>
   252a2:	2c04      	cmp	r4, #4
   252a4:	d10f      	bne.n	252c6 <_ZN20complex_dynamic_type3app17ha73eafe683c1060eE+0x14a>
   252a6:	2108      	movs	r1, #8
   252a8:	2200      	movs	r2, #0
   252aa:	9801      	ldr	r0, [sp, #4]
   252ac:	4613      	mov	r3, r2
   252ae:	df04      	svc	4
   252b0:	b01d      	add	sp, #116	@ 0x74
   252b2:	bdf0      	pop	{r4, r5, r6, r7, pc}
   252b4:	1c70      	adds	r0, r6, #1
   252b6:	2241      	movs	r2, #65	@ 0x41
   252b8:	4629      	mov	r1, r5
   252ba:	f005 ff23 	bl	2b104 <__aeabi_memcpy>
   252be:	9803      	ldr	r0, [sp, #12]
   252c0:	7030      	strb	r0, [r6, #0]
   252c2:	b01d      	add	sp, #116	@ 0x74
   252c4:	bdf0      	pop	{r4, r5, r6, r7, pc}
   252c6:	9801      	ldr	r0, [sp, #4]
   252c8:	2108      	movs	r1, #8
   252ca:	2200      	movs	r2, #0
   252cc:	4613      	mov	r3, r2
   252ce:	df03      	svc	3
   252d0:	b01d      	add	sp, #116	@ 0x74
   252d2:	bdf0      	pop	{r4, r5, r6, r7, pc}

000252d4 <_ZN20complex_dynamic_type3app17ha83509a6ebf5c15fE>:
   252d4:	b5f0      	push	{r4, r5, r6, r7, lr}
   252d6:	af03      	add	r7, sp, #12
   252d8:	b097      	sub	sp, #92	@ 0x5c
   252da:	9003      	str	r0, [sp, #12]
   252dc:	a804      	add	r0, sp, #16
   252de:	2402      	movs	r4, #2
   252e0:	7004      	strb	r4, [r0, #0]
   252e2:	1c46      	adds	r6, r0, #1
   252e4:	222b      	movs	r2, #43	@ 0x2b
   252e6:	9202      	str	r2, [sp, #8]
   252e8:	4630      	mov	r0, r6
   252ea:	f005 ff0b 	bl	2b104 <__aeabi_memcpy>
   252ee:	ad0f      	add	r5, sp, #60	@ 0x3c
   252f0:	1c68      	adds	r0, r5, #1
   252f2:	211e      	movs	r1, #30
   252f4:	9001      	str	r0, [sp, #4]
   252f6:	f005 fd45 	bl	2ad84 <__aeabi_memclr>
   252fa:	9400      	str	r4, [sp, #0]
   252fc:	702c      	strb	r4, [r5, #0]
   252fe:	4848      	ldr	r0, [pc, #288]	@ (25420 <_ZN20complex_dynamic_type3app17ha83509a6ebf5c15fE+0x14c>)
   25300:	2107      	movs	r1, #7
   25302:	4632      	mov	r2, r6
   25304:	9b02      	ldr	r3, [sp, #8]
   25306:	df04      	svc	4
   25308:	2802      	cmp	r0, #2
   2530a:	d104      	bne.n	25316 <_ZN20complex_dynamic_type3app17ha83509a6ebf5c15fE+0x42>
   2530c:	2001      	movs	r0, #1
   2530e:	9a03      	ldr	r2, [sp, #12]
   25310:	7010      	strb	r0, [r2, #0]
   25312:	6051      	str	r1, [r2, #4]
   25314:	e02d      	b.n	25372 <_ZN20complex_dynamic_type3app17ha83509a6ebf5c15fE+0x9e>
   25316:	9d03      	ldr	r5, [sp, #12]
   25318:	a804      	add	r0, sp, #16
   2531a:	2104      	movs	r1, #4
   2531c:	7001      	strb	r1, [r0, #0]
   2531e:	4840      	ldr	r0, [pc, #256]	@ (25420 <_ZN20complex_dynamic_type3app17ha83509a6ebf5c15fE+0x14c>)
   25320:	2108      	movs	r1, #8
   25322:	231e      	movs	r3, #30
   25324:	9c01      	ldr	r4, [sp, #4]
   25326:	4622      	mov	r2, r4
   25328:	df03      	svc	3
   2532a:	2802      	cmp	r0, #2
   2532c:	d10e      	bne.n	2534c <_ZN20complex_dynamic_type3app17ha83509a6ebf5c15fE+0x78>
   2532e:	2001      	movs	r0, #1
   25330:	7028      	strb	r0, [r5, #0]
   25332:	6069      	str	r1, [r5, #4]
   25334:	a80f      	add	r0, sp, #60	@ 0x3c
   25336:	7800      	ldrb	r0, [r0, #0]
   25338:	2802      	cmp	r0, #2
   2533a:	d01a      	beq.n	25372 <_ZN20complex_dynamic_type3app17ha83509a6ebf5c15fE+0x9e>
   2533c:	2803      	cmp	r0, #3
   2533e:	d013      	beq.n	25368 <_ZN20complex_dynamic_type3app17ha83509a6ebf5c15fE+0x94>
   25340:	4837      	ldr	r0, [pc, #220]	@ (25420 <_ZN20complex_dynamic_type3app17ha83509a6ebf5c15fE+0x14c>)
   25342:	2108      	movs	r1, #8
   25344:	2200      	movs	r2, #0
   25346:	4613      	mov	r3, r2
   25348:	df04      	svc	4
   2534a:	e012      	b.n	25372 <_ZN20complex_dynamic_type3app17ha83509a6ebf5c15fE+0x9e>
   2534c:	a80f      	add	r0, sp, #60	@ 0x3c
   2534e:	2103      	movs	r1, #3
   25350:	7001      	strb	r1, [r0, #0]
   25352:	4833      	ldr	r0, [pc, #204]	@ (25420 <_ZN20complex_dynamic_type3app17ha83509a6ebf5c15fE+0x14c>)
   25354:	2107      	movs	r1, #7
   25356:	2208      	movs	r2, #8
   25358:	2600      	movs	r6, #0
   2535a:	4633      	mov	r3, r6
   2535c:	df02      	svc	2
   2535e:	2880      	cmp	r0, #128	@ 0x80
   25360:	d21b      	bcs.n	2539a <_ZN20complex_dynamic_type3app17ha83509a6ebf5c15fE+0xc6>
   25362:	2001      	movs	r0, #1
   25364:	7028      	strb	r0, [r5, #0]
   25366:	6069      	str	r1, [r5, #4]
   25368:	482d      	ldr	r0, [pc, #180]	@ (25420 <_ZN20complex_dynamic_type3app17ha83509a6ebf5c15fE+0x14c>)
   2536a:	2108      	movs	r1, #8
   2536c:	2200      	movs	r2, #0
   2536e:	4613      	mov	r3, r2
   25370:	df03      	svc	3
   25372:	a804      	add	r0, sp, #16
   25374:	7800      	ldrb	r0, [r0, #0]
   25376:	2802      	cmp	r0, #2
   25378:	d045      	beq.n	25406 <_ZN20complex_dynamic_type3app17ha83509a6ebf5c15fE+0x132>
   2537a:	2804      	cmp	r0, #4
   2537c:	d106      	bne.n	2538c <_ZN20complex_dynamic_type3app17ha83509a6ebf5c15fE+0xb8>
   2537e:	4828      	ldr	r0, [pc, #160]	@ (25420 <_ZN20complex_dynamic_type3app17ha83509a6ebf5c15fE+0x14c>)
   25380:	2107      	movs	r1, #7
   25382:	2200      	movs	r2, #0
   25384:	4613      	mov	r3, r2
   25386:	df04      	svc	4
   25388:	b017      	add	sp, #92	@ 0x5c
   2538a:	bdf0      	pop	{r4, r5, r6, r7, pc}
   2538c:	4824      	ldr	r0, [pc, #144]	@ (25420 <_ZN20complex_dynamic_type3app17ha83509a6ebf5c15fE+0x14c>)
   2538e:	2107      	movs	r1, #7
   25390:	2200      	movs	r2, #0
   25392:	4613      	mov	r3, r2
   25394:	df03      	svc	3
   25396:	b017      	add	sp, #92	@ 0x5c
   25398:	bdf0      	pop	{r4, r5, r6, r7, pc}
   2539a:	a804      	add	r0, sp, #16
   2539c:	7800      	ldrb	r0, [r0, #0]
   2539e:	2802      	cmp	r0, #2
   253a0:	d00c      	beq.n	253bc <_ZN20complex_dynamic_type3app17ha83509a6ebf5c15fE+0xe8>
   253a2:	2803      	cmp	r0, #3
   253a4:	d105      	bne.n	253b2 <_ZN20complex_dynamic_type3app17ha83509a6ebf5c15fE+0xde>
   253a6:	481e      	ldr	r0, [pc, #120]	@ (25420 <_ZN20complex_dynamic_type3app17ha83509a6ebf5c15fE+0x14c>)
   253a8:	2107      	movs	r1, #7
   253aa:	2200      	movs	r2, #0
   253ac:	4613      	mov	r3, r2
   253ae:	df03      	svc	3
   253b0:	e004      	b.n	253bc <_ZN20complex_dynamic_type3app17ha83509a6ebf5c15fE+0xe8>
   253b2:	481b      	ldr	r0, [pc, #108]	@ (25420 <_ZN20complex_dynamic_type3app17ha83509a6ebf5c15fE+0x14c>)
   253b4:	2107      	movs	r1, #7
   253b6:	2200      	movs	r2, #0
   253b8:	4613      	mov	r3, r2
   253ba:	df04      	svc	4
   253bc:	a804      	add	r0, sp, #16
   253be:	9900      	ldr	r1, [sp, #0]
   253c0:	7001      	strb	r1, [r0, #0]
   253c2:	a80f      	add	r0, sp, #60	@ 0x3c
   253c4:	7800      	ldrb	r0, [r0, #0]
   253c6:	2804      	cmp	r0, #4
   253c8:	d007      	beq.n	253da <_ZN20complex_dynamic_type3app17ha83509a6ebf5c15fE+0x106>
   253ca:	2803      	cmp	r0, #3
   253cc:	d11d      	bne.n	2540a <_ZN20complex_dynamic_type3app17ha83509a6ebf5c15fE+0x136>
   253ce:	4814      	ldr	r0, [pc, #80]	@ (25420 <_ZN20complex_dynamic_type3app17ha83509a6ebf5c15fE+0x14c>)
   253d0:	2108      	movs	r1, #8
   253d2:	2200      	movs	r2, #0
   253d4:	4613      	mov	r3, r2
   253d6:	df03      	svc	3
   253d8:	e004      	b.n	253e4 <_ZN20complex_dynamic_type3app17ha83509a6ebf5c15fE+0x110>
   253da:	4811      	ldr	r0, [pc, #68]	@ (25420 <_ZN20complex_dynamic_type3app17ha83509a6ebf5c15fE+0x14c>)
   253dc:	2108      	movs	r1, #8
   253de:	2200      	movs	r2, #0
   253e0:	4613      	mov	r3, r2
   253e2:	df04      	svc	4
   253e4:	a804      	add	r0, sp, #16
   253e6:	7804      	ldrb	r4, [r0, #0]
   253e8:	1c68      	adds	r0, r5, #1
   253ea:	221e      	movs	r2, #30
   253ec:	9901      	ldr	r1, [sp, #4]
   253ee:	f005 fe89 	bl	2b104 <__aeabi_memcpy>
   253f2:	702e      	strb	r6, [r5, #0]
   253f4:	2c02      	cmp	r4, #2
   253f6:	d006      	beq.n	25406 <_ZN20complex_dynamic_type3app17ha83509a6ebf5c15fE+0x132>
   253f8:	4809      	ldr	r0, [pc, #36]	@ (25420 <_ZN20complex_dynamic_type3app17ha83509a6ebf5c15fE+0x14c>)
   253fa:	2107      	movs	r1, #7
   253fc:	2200      	movs	r2, #0
   253fe:	4613      	mov	r3, r2
   25400:	2c04      	cmp	r4, #4
   25402:	d10a      	bne.n	2541a <_ZN20complex_dynamic_type3app17ha83509a6ebf5c15fE+0x146>
   25404:	df04      	svc	4
   25406:	b017      	add	sp, #92	@ 0x5c
   25408:	bdf0      	pop	{r4, r5, r6, r7, pc}
   2540a:	1c68      	adds	r0, r5, #1
   2540c:	221e      	movs	r2, #30
   2540e:	4621      	mov	r1, r4
   25410:	f005 fe78 	bl	2b104 <__aeabi_memcpy>
   25414:	702e      	strb	r6, [r5, #0]
   25416:	b017      	add	sp, #92	@ 0x5c
   25418:	bdf0      	pop	{r4, r5, r6, r7, pc}
   2541a:	df03      	svc	3
   2541c:	b017      	add	sp, #92	@ 0x5c
   2541e:	bdf0      	pop	{r4, r5, r6, r7, pc}
   25420:	000007e3 	.word	0x000007e3

00025424 <_ZN20complex_dynamic_type3app17haa0096d31300bf9aE>:
   25424:	b5f0      	push	{r4, r5, r6, r7, lr}
   25426:	af03      	add	r7, sp, #12
   25428:	b099      	sub	sp, #100	@ 0x64
   2542a:	9002      	str	r0, [sp, #8]
   2542c:	a803      	add	r0, sp, #12
   2542e:	2502      	movs	r5, #2
   25430:	7005      	strb	r5, [r0, #0]
   25432:	1c46      	adds	r6, r0, #1
   25434:	220f      	movs	r2, #15
   25436:	9201      	str	r2, [sp, #4]
   25438:	4630      	mov	r0, r6
   2543a:	f005 fe63 	bl	2b104 <__aeabi_memcpy>
   2543e:	ac07      	add	r4, sp, #28
   25440:	1c60      	adds	r0, r4, #1
   25442:	2146      	movs	r1, #70	@ 0x46
   25444:	9000      	str	r0, [sp, #0]
   25446:	f005 fc9d 	bl	2ad84 <__aeabi_memclr>
   2544a:	7025      	strb	r5, [r4, #0]
   2544c:	484a      	ldr	r0, [pc, #296]	@ (25578 <_ZN20complex_dynamic_type3app17haa0096d31300bf9aE+0x154>)
   2544e:	2109      	movs	r1, #9
   25450:	4632      	mov	r2, r6
   25452:	9b01      	ldr	r3, [sp, #4]
   25454:	df04      	svc	4
   25456:	2802      	cmp	r0, #2
   25458:	d104      	bne.n	25464 <_ZN20complex_dynamic_type3app17haa0096d31300bf9aE+0x40>
   2545a:	2001      	movs	r0, #1
   2545c:	9a02      	ldr	r2, [sp, #8]
   2545e:	7010      	strb	r0, [r2, #0]
   25460:	6051      	str	r1, [r2, #4]
   25462:	e02e      	b.n	254c2 <_ZN20complex_dynamic_type3app17haa0096d31300bf9aE+0x9e>
   25464:	9d02      	ldr	r5, [sp, #8]
   25466:	a803      	add	r0, sp, #12
   25468:	2104      	movs	r1, #4
   2546a:	7001      	strb	r1, [r0, #0]
   2546c:	4842      	ldr	r0, [pc, #264]	@ (25578 <_ZN20complex_dynamic_type3app17haa0096d31300bf9aE+0x154>)
   2546e:	2102      	movs	r1, #2
   25470:	2346      	movs	r3, #70	@ 0x46
   25472:	9c00      	ldr	r4, [sp, #0]
   25474:	4622      	mov	r2, r4
   25476:	df03      	svc	3
   25478:	2802      	cmp	r0, #2
   2547a:	d10e      	bne.n	2549a <_ZN20complex_dynamic_type3app17haa0096d31300bf9aE+0x76>
   2547c:	2001      	movs	r0, #1
   2547e:	7028      	strb	r0, [r5, #0]
   25480:	6069      	str	r1, [r5, #4]
   25482:	a807      	add	r0, sp, #28
   25484:	7800      	ldrb	r0, [r0, #0]
   25486:	2802      	cmp	r0, #2
   25488:	d01b      	beq.n	254c2 <_ZN20complex_dynamic_type3app17haa0096d31300bf9aE+0x9e>
   2548a:	2803      	cmp	r0, #3
   2548c:	d014      	beq.n	254b8 <_ZN20complex_dynamic_type3app17haa0096d31300bf9aE+0x94>
   2548e:	483a      	ldr	r0, [pc, #232]	@ (25578 <_ZN20complex_dynamic_type3app17haa0096d31300bf9aE+0x154>)
   25490:	2102      	movs	r1, #2
   25492:	2200      	movs	r2, #0
   25494:	4613      	mov	r3, r2
   25496:	df04      	svc	4
   25498:	e013      	b.n	254c2 <_ZN20complex_dynamic_type3app17haa0096d31300bf9aE+0x9e>
   2549a:	a807      	add	r0, sp, #28
   2549c:	2103      	movs	r1, #3
   2549e:	7001      	strb	r1, [r0, #0]
   254a0:	4835      	ldr	r0, [pc, #212]	@ (25578 <_ZN20complex_dynamic_type3app17haa0096d31300bf9aE+0x154>)
   254a2:	2109      	movs	r1, #9
   254a4:	2602      	movs	r6, #2
   254a6:	2300      	movs	r3, #0
   254a8:	4632      	mov	r2, r6
   254aa:	9301      	str	r3, [sp, #4]
   254ac:	df02      	svc	2
   254ae:	2880      	cmp	r0, #128	@ 0x80
   254b0:	d21b      	bcs.n	254ea <_ZN20complex_dynamic_type3app17haa0096d31300bf9aE+0xc6>
   254b2:	2001      	movs	r0, #1
   254b4:	7028      	strb	r0, [r5, #0]
   254b6:	6069      	str	r1, [r5, #4]
   254b8:	482f      	ldr	r0, [pc, #188]	@ (25578 <_ZN20complex_dynamic_type3app17haa0096d31300bf9aE+0x154>)
   254ba:	2102      	movs	r1, #2
   254bc:	2200      	movs	r2, #0
   254be:	4613      	mov	r3, r2
   254c0:	df03      	svc	3
   254c2:	a803      	add	r0, sp, #12
   254c4:	7800      	ldrb	r0, [r0, #0]
   254c6:	2802      	cmp	r0, #2
   254c8:	d047      	beq.n	2555a <_ZN20complex_dynamic_type3app17haa0096d31300bf9aE+0x136>
   254ca:	2804      	cmp	r0, #4
   254cc:	d106      	bne.n	254dc <_ZN20complex_dynamic_type3app17haa0096d31300bf9aE+0xb8>
   254ce:	482a      	ldr	r0, [pc, #168]	@ (25578 <_ZN20complex_dynamic_type3app17haa0096d31300bf9aE+0x154>)
   254d0:	2109      	movs	r1, #9
   254d2:	2200      	movs	r2, #0
   254d4:	4613      	mov	r3, r2
   254d6:	df04      	svc	4
   254d8:	b019      	add	sp, #100	@ 0x64
   254da:	bdf0      	pop	{r4, r5, r6, r7, pc}
   254dc:	4826      	ldr	r0, [pc, #152]	@ (25578 <_ZN20complex_dynamic_type3app17haa0096d31300bf9aE+0x154>)
   254de:	2109      	movs	r1, #9
   254e0:	2200      	movs	r2, #0
   254e2:	4613      	mov	r3, r2
   254e4:	df03      	svc	3
   254e6:	b019      	add	sp, #100	@ 0x64
   254e8:	bdf0      	pop	{r4, r5, r6, r7, pc}
   254ea:	a803      	add	r0, sp, #12
   254ec:	7800      	ldrb	r0, [r0, #0]
   254ee:	2802      	cmp	r0, #2
   254f0:	d00c      	beq.n	2550c <_ZN20complex_dynamic_type3app17haa0096d31300bf9aE+0xe8>
   254f2:	2803      	cmp	r0, #3
   254f4:	d105      	bne.n	25502 <_ZN20complex_dynamic_type3app17haa0096d31300bf9aE+0xde>
   254f6:	4820      	ldr	r0, [pc, #128]	@ (25578 <_ZN20complex_dynamic_type3app17haa0096d31300bf9aE+0x154>)
   254f8:	2109      	movs	r1, #9
   254fa:	2200      	movs	r2, #0
   254fc:	4613      	mov	r3, r2
   254fe:	df03      	svc	3
   25500:	e004      	b.n	2550c <_ZN20complex_dynamic_type3app17haa0096d31300bf9aE+0xe8>
   25502:	481d      	ldr	r0, [pc, #116]	@ (25578 <_ZN20complex_dynamic_type3app17haa0096d31300bf9aE+0x154>)
   25504:	2109      	movs	r1, #9
   25506:	2200      	movs	r2, #0
   25508:	4613      	mov	r3, r2
   2550a:	df04      	svc	4
   2550c:	a803      	add	r0, sp, #12
   2550e:	7006      	strb	r6, [r0, #0]
   25510:	a807      	add	r0, sp, #28
   25512:	7800      	ldrb	r0, [r0, #0]
   25514:	2804      	cmp	r0, #4
   25516:	d008      	beq.n	2552a <_ZN20complex_dynamic_type3app17haa0096d31300bf9aE+0x106>
   25518:	2803      	cmp	r0, #3
   2551a:	d120      	bne.n	2555e <_ZN20complex_dynamic_type3app17haa0096d31300bf9aE+0x13a>
   2551c:	4626      	mov	r6, r4
   2551e:	4816      	ldr	r0, [pc, #88]	@ (25578 <_ZN20complex_dynamic_type3app17haa0096d31300bf9aE+0x154>)
   25520:	2102      	movs	r1, #2
   25522:	2200      	movs	r2, #0
   25524:	4613      	mov	r3, r2
   25526:	df03      	svc	3
   25528:	e005      	b.n	25536 <_ZN20complex_dynamic_type3app17haa0096d31300bf9aE+0x112>
   2552a:	4626      	mov	r6, r4
   2552c:	4812      	ldr	r0, [pc, #72]	@ (25578 <_ZN20complex_dynamic_type3app17haa0096d31300bf9aE+0x154>)
   2552e:	2102      	movs	r1, #2
   25530:	2200      	movs	r2, #0
   25532:	4613      	mov	r3, r2
   25534:	df04      	svc	4
   25536:	a803      	add	r0, sp, #12
   25538:	7804      	ldrb	r4, [r0, #0]
   2553a:	1c68      	adds	r0, r5, #1
   2553c:	2246      	movs	r2, #70	@ 0x46
   2553e:	4631      	mov	r1, r6
   25540:	f005 fde0 	bl	2b104 <__aeabi_memcpy>
   25544:	9801      	ldr	r0, [sp, #4]
   25546:	7028      	strb	r0, [r5, #0]
   25548:	2c02      	cmp	r4, #2
   2554a:	d006      	beq.n	2555a <_ZN20complex_dynamic_type3app17haa0096d31300bf9aE+0x136>
   2554c:	480a      	ldr	r0, [pc, #40]	@ (25578 <_ZN20complex_dynamic_type3app17haa0096d31300bf9aE+0x154>)
   2554e:	2109      	movs	r1, #9
   25550:	2200      	movs	r2, #0
   25552:	4613      	mov	r3, r2
   25554:	2c04      	cmp	r4, #4
   25556:	d10b      	bne.n	25570 <_ZN20complex_dynamic_type3app17haa0096d31300bf9aE+0x14c>
   25558:	df04      	svc	4
   2555a:	b019      	add	sp, #100	@ 0x64
   2555c:	bdf0      	pop	{r4, r5, r6, r7, pc}
   2555e:	1c68      	adds	r0, r5, #1
   25560:	2246      	movs	r2, #70	@ 0x46
   25562:	4621      	mov	r1, r4
   25564:	f005 fdce 	bl	2b104 <__aeabi_memcpy>
   25568:	9801      	ldr	r0, [sp, #4]
   2556a:	7028      	strb	r0, [r5, #0]
   2556c:	b019      	add	sp, #100	@ 0x64
   2556e:	bdf0      	pop	{r4, r5, r6, r7, pc}
   25570:	df03      	svc	3
   25572:	b019      	add	sp, #100	@ 0x64
   25574:	bdf0      	pop	{r4, r5, r6, r7, pc}
   25576:	46c0      	nop			@ (mov r8, r8)
   25578:	00001d7e 	.word	0x00001d7e

0002557c <_ZN20complex_dynamic_type3app17hab3aae19010a9fcdE>:
   2557c:	b5f0      	push	{r4, r5, r6, r7, lr}
   2557e:	af03      	add	r7, sp, #12
   25580:	b09b      	sub	sp, #108	@ 0x6c
   25582:	9004      	str	r0, [sp, #16]
   25584:	a805      	add	r0, sp, #20
   25586:	2402      	movs	r4, #2
   25588:	7004      	strb	r4, [r0, #0]
   2558a:	1c46      	adds	r6, r0, #1
   2558c:	222c      	movs	r2, #44	@ 0x2c
   2558e:	9203      	str	r2, [sp, #12]
   25590:	4630      	mov	r0, r6
   25592:	f005 fdb7 	bl	2b104 <__aeabi_memcpy>
   25596:	ad11      	add	r5, sp, #68	@ 0x44
   25598:	1c68      	adds	r0, r5, #1
   2559a:	2127      	movs	r1, #39	@ 0x27
   2559c:	9002      	str	r0, [sp, #8]
   2559e:	f005 fbf1 	bl	2ad84 <__aeabi_memclr>
   255a2:	9401      	str	r4, [sp, #4]
   255a4:	702c      	strb	r4, [r5, #0]
   255a6:	4848      	ldr	r0, [pc, #288]	@ (256c8 <_ZN20complex_dynamic_type3app17hab3aae19010a9fcdE+0x14c>)
   255a8:	2504      	movs	r5, #4
   255aa:	4629      	mov	r1, r5
   255ac:	4632      	mov	r2, r6
   255ae:	9b03      	ldr	r3, [sp, #12]
   255b0:	df04      	svc	4
   255b2:	2802      	cmp	r0, #2
   255b4:	d104      	bne.n	255c0 <_ZN20complex_dynamic_type3app17hab3aae19010a9fcdE+0x44>
   255b6:	2001      	movs	r0, #1
   255b8:	9a04      	ldr	r2, [sp, #16]
   255ba:	7010      	strb	r0, [r2, #0]
   255bc:	6051      	str	r1, [r2, #4]
   255be:	e02b      	b.n	25618 <_ZN20complex_dynamic_type3app17hab3aae19010a9fcdE+0x9c>
   255c0:	9e04      	ldr	r6, [sp, #16]
   255c2:	a805      	add	r0, sp, #20
   255c4:	7005      	strb	r5, [r0, #0]
   255c6:	4840      	ldr	r0, [pc, #256]	@ (256c8 <_ZN20complex_dynamic_type3app17hab3aae19010a9fcdE+0x14c>)
   255c8:	2403      	movs	r4, #3
   255ca:	2327      	movs	r3, #39	@ 0x27
   255cc:	4621      	mov	r1, r4
   255ce:	9a02      	ldr	r2, [sp, #8]
   255d0:	df03      	svc	3
   255d2:	2802      	cmp	r0, #2
   255d4:	d10e      	bne.n	255f4 <_ZN20complex_dynamic_type3app17hab3aae19010a9fcdE+0x78>
   255d6:	2001      	movs	r0, #1
   255d8:	7030      	strb	r0, [r6, #0]
   255da:	6071      	str	r1, [r6, #4]
   255dc:	a811      	add	r0, sp, #68	@ 0x44
   255de:	7800      	ldrb	r0, [r0, #0]
   255e0:	2802      	cmp	r0, #2
   255e2:	d019      	beq.n	25618 <_ZN20complex_dynamic_type3app17hab3aae19010a9fcdE+0x9c>
   255e4:	2803      	cmp	r0, #3
   255e6:	d012      	beq.n	2560e <_ZN20complex_dynamic_type3app17hab3aae19010a9fcdE+0x92>
   255e8:	4837      	ldr	r0, [pc, #220]	@ (256c8 <_ZN20complex_dynamic_type3app17hab3aae19010a9fcdE+0x14c>)
   255ea:	2103      	movs	r1, #3
   255ec:	2200      	movs	r2, #0
   255ee:	4613      	mov	r3, r2
   255f0:	df04      	svc	4
   255f2:	e011      	b.n	25618 <_ZN20complex_dynamic_type3app17hab3aae19010a9fcdE+0x9c>
   255f4:	a811      	add	r0, sp, #68	@ 0x44
   255f6:	7004      	strb	r4, [r0, #0]
   255f8:	4833      	ldr	r0, [pc, #204]	@ (256c8 <_ZN20complex_dynamic_type3app17hab3aae19010a9fcdE+0x14c>)
   255fa:	2104      	movs	r1, #4
   255fc:	2500      	movs	r5, #0
   255fe:	4622      	mov	r2, r4
   25600:	462b      	mov	r3, r5
   25602:	df02      	svc	2
   25604:	2880      	cmp	r0, #128	@ 0x80
   25606:	d21b      	bcs.n	25640 <_ZN20complex_dynamic_type3app17hab3aae19010a9fcdE+0xc4>
   25608:	2001      	movs	r0, #1
   2560a:	7030      	strb	r0, [r6, #0]
   2560c:	6071      	str	r1, [r6, #4]
   2560e:	482e      	ldr	r0, [pc, #184]	@ (256c8 <_ZN20complex_dynamic_type3app17hab3aae19010a9fcdE+0x14c>)
   25610:	2103      	movs	r1, #3
   25612:	2200      	movs	r2, #0
   25614:	4613      	mov	r3, r2
   25616:	df03      	svc	3
   25618:	a805      	add	r0, sp, #20
   2561a:	7800      	ldrb	r0, [r0, #0]
   2561c:	2802      	cmp	r0, #2
   2561e:	d045      	beq.n	256ac <_ZN20complex_dynamic_type3app17hab3aae19010a9fcdE+0x130>
   25620:	2804      	cmp	r0, #4
   25622:	d106      	bne.n	25632 <_ZN20complex_dynamic_type3app17hab3aae19010a9fcdE+0xb6>
   25624:	4828      	ldr	r0, [pc, #160]	@ (256c8 <_ZN20complex_dynamic_type3app17hab3aae19010a9fcdE+0x14c>)
   25626:	2104      	movs	r1, #4
   25628:	2200      	movs	r2, #0
   2562a:	4613      	mov	r3, r2
   2562c:	df04      	svc	4
   2562e:	b01b      	add	sp, #108	@ 0x6c
   25630:	bdf0      	pop	{r4, r5, r6, r7, pc}
   25632:	4825      	ldr	r0, [pc, #148]	@ (256c8 <_ZN20complex_dynamic_type3app17hab3aae19010a9fcdE+0x14c>)
   25634:	2104      	movs	r1, #4
   25636:	2200      	movs	r2, #0
   25638:	4613      	mov	r3, r2
   2563a:	df03      	svc	3
   2563c:	b01b      	add	sp, #108	@ 0x6c
   2563e:	bdf0      	pop	{r4, r5, r6, r7, pc}
   25640:	a805      	add	r0, sp, #20
   25642:	7800      	ldrb	r0, [r0, #0]
   25644:	2802      	cmp	r0, #2
   25646:	d00c      	beq.n	25662 <_ZN20complex_dynamic_type3app17hab3aae19010a9fcdE+0xe6>
   25648:	2803      	cmp	r0, #3
   2564a:	d105      	bne.n	25658 <_ZN20complex_dynamic_type3app17hab3aae19010a9fcdE+0xdc>
   2564c:	481e      	ldr	r0, [pc, #120]	@ (256c8 <_ZN20complex_dynamic_type3app17hab3aae19010a9fcdE+0x14c>)
   2564e:	2104      	movs	r1, #4
   25650:	2200      	movs	r2, #0
   25652:	4613      	mov	r3, r2
   25654:	df03      	svc	3
   25656:	e004      	b.n	25662 <_ZN20complex_dynamic_type3app17hab3aae19010a9fcdE+0xe6>
   25658:	481b      	ldr	r0, [pc, #108]	@ (256c8 <_ZN20complex_dynamic_type3app17hab3aae19010a9fcdE+0x14c>)
   2565a:	2104      	movs	r1, #4
   2565c:	2200      	movs	r2, #0
   2565e:	4613      	mov	r3, r2
   25660:	df04      	svc	4
   25662:	a805      	add	r0, sp, #20
   25664:	9901      	ldr	r1, [sp, #4]
   25666:	7001      	strb	r1, [r0, #0]
   25668:	a811      	add	r0, sp, #68	@ 0x44
   2566a:	7800      	ldrb	r0, [r0, #0]
   2566c:	2804      	cmp	r0, #4
   2566e:	d007      	beq.n	25680 <_ZN20complex_dynamic_type3app17hab3aae19010a9fcdE+0x104>
   25670:	2803      	cmp	r0, #3
   25672:	d11d      	bne.n	256b0 <_ZN20complex_dynamic_type3app17hab3aae19010a9fcdE+0x134>
   25674:	4814      	ldr	r0, [pc, #80]	@ (256c8 <_ZN20complex_dynamic_type3app17hab3aae19010a9fcdE+0x14c>)
   25676:	2103      	movs	r1, #3
   25678:	2200      	movs	r2, #0
   2567a:	4613      	mov	r3, r2
   2567c:	df03      	svc	3
   2567e:	e004      	b.n	2568a <_ZN20complex_dynamic_type3app17hab3aae19010a9fcdE+0x10e>
   25680:	4811      	ldr	r0, [pc, #68]	@ (256c8 <_ZN20complex_dynamic_type3app17hab3aae19010a9fcdE+0x14c>)
   25682:	2103      	movs	r1, #3
   25684:	2200      	movs	r2, #0
   25686:	4613      	mov	r3, r2
   25688:	df04      	svc	4
   2568a:	a805      	add	r0, sp, #20
   2568c:	7804      	ldrb	r4, [r0, #0]
   2568e:	1c70      	adds	r0, r6, #1
   25690:	2227      	movs	r2, #39	@ 0x27
   25692:	9902      	ldr	r1, [sp, #8]
   25694:	f005 fd36 	bl	2b104 <__aeabi_memcpy>
   25698:	7035      	strb	r5, [r6, #0]
   2569a:	2c02      	cmp	r4, #2
   2569c:	d006      	beq.n	256ac <_ZN20complex_dynamic_type3app17hab3aae19010a9fcdE+0x130>
   2569e:	480a      	ldr	r0, [pc, #40]	@ (256c8 <_ZN20complex_dynamic_type3app17hab3aae19010a9fcdE+0x14c>)
   256a0:	2104      	movs	r1, #4
   256a2:	2200      	movs	r2, #0
   256a4:	4613      	mov	r3, r2
   256a6:	2c04      	cmp	r4, #4
   256a8:	d10a      	bne.n	256c0 <_ZN20complex_dynamic_type3app17hab3aae19010a9fcdE+0x144>
   256aa:	df04      	svc	4
   256ac:	b01b      	add	sp, #108	@ 0x6c
   256ae:	bdf0      	pop	{r4, r5, r6, r7, pc}
   256b0:	1c70      	adds	r0, r6, #1
   256b2:	2227      	movs	r2, #39	@ 0x27
   256b4:	9902      	ldr	r1, [sp, #8]
   256b6:	f005 fd25 	bl	2b104 <__aeabi_memcpy>
   256ba:	7035      	strb	r5, [r6, #0]
   256bc:	b01b      	add	sp, #108	@ 0x6c
   256be:	bdf0      	pop	{r4, r5, r6, r7, pc}
   256c0:	df03      	svc	3
   256c2:	b01b      	add	sp, #108	@ 0x6c
   256c4:	bdf0      	pop	{r4, r5, r6, r7, pc}
   256c6:	46c0      	nop			@ (mov r8, r8)
   256c8:	000011b5 	.word	0x000011b5

000256cc <_ZN20complex_dynamic_type3app17hb0e062bcb26ee298E>:
   256cc:	b5f0      	push	{r4, r5, r6, r7, lr}
   256ce:	af03      	add	r7, sp, #12
   256d0:	b0a5      	sub	sp, #148	@ 0x94
   256d2:	9004      	str	r0, [sp, #16]
   256d4:	a805      	add	r0, sp, #20
   256d6:	2402      	movs	r4, #2
   256d8:	7004      	strb	r4, [r0, #0]
   256da:	1c46      	adds	r6, r0, #1
   256dc:	2231      	movs	r2, #49	@ 0x31
   256de:	9203      	str	r2, [sp, #12]
   256e0:	4630      	mov	r0, r6
   256e2:	f005 fd0f 	bl	2b104 <__aeabi_memcpy>
   256e6:	ad12      	add	r5, sp, #72	@ 0x48
   256e8:	1c68      	adds	r0, r5, #1
   256ea:	2148      	movs	r1, #72	@ 0x48
   256ec:	9002      	str	r0, [sp, #8]
   256ee:	f005 fb49 	bl	2ad84 <__aeabi_memclr>
   256f2:	9401      	str	r4, [sp, #4]
   256f4:	702c      	strb	r4, [r5, #0]
   256f6:	4848      	ldr	r0, [pc, #288]	@ (25818 <_ZN20complex_dynamic_type3app17hb0e062bcb26ee298E+0x14c>)
   256f8:	2504      	movs	r5, #4
   256fa:	4629      	mov	r1, r5
   256fc:	4632      	mov	r2, r6
   256fe:	9b03      	ldr	r3, [sp, #12]
   25700:	df04      	svc	4
   25702:	2802      	cmp	r0, #2
   25704:	d104      	bne.n	25710 <_ZN20complex_dynamic_type3app17hb0e062bcb26ee298E+0x44>
   25706:	2001      	movs	r0, #1
   25708:	9a04      	ldr	r2, [sp, #16]
   2570a:	7010      	strb	r0, [r2, #0]
   2570c:	6051      	str	r1, [r2, #4]
   2570e:	e02b      	b.n	25768 <_ZN20complex_dynamic_type3app17hb0e062bcb26ee298E+0x9c>
   25710:	9e04      	ldr	r6, [sp, #16]
   25712:	a805      	add	r0, sp, #20
   25714:	7005      	strb	r5, [r0, #0]
   25716:	4840      	ldr	r0, [pc, #256]	@ (25818 <_ZN20complex_dynamic_type3app17hb0e062bcb26ee298E+0x14c>)
   25718:	2403      	movs	r4, #3
   2571a:	2348      	movs	r3, #72	@ 0x48
   2571c:	4621      	mov	r1, r4
   2571e:	9a02      	ldr	r2, [sp, #8]
   25720:	df03      	svc	3
   25722:	2802      	cmp	r0, #2
   25724:	d10e      	bne.n	25744 <_ZN20complex_dynamic_type3app17hb0e062bcb26ee298E+0x78>
   25726:	2001      	movs	r0, #1
   25728:	7030      	strb	r0, [r6, #0]
   2572a:	6071      	str	r1, [r6, #4]
   2572c:	a812      	add	r0, sp, #72	@ 0x48
   2572e:	7800      	ldrb	r0, [r0, #0]
   25730:	2802      	cmp	r0, #2
   25732:	d019      	beq.n	25768 <_ZN20complex_dynamic_type3app17hb0e062bcb26ee298E+0x9c>
   25734:	2803      	cmp	r0, #3
   25736:	d012      	beq.n	2575e <_ZN20complex_dynamic_type3app17hb0e062bcb26ee298E+0x92>
   25738:	4837      	ldr	r0, [pc, #220]	@ (25818 <_ZN20complex_dynamic_type3app17hb0e062bcb26ee298E+0x14c>)
   2573a:	2103      	movs	r1, #3
   2573c:	2200      	movs	r2, #0
   2573e:	4613      	mov	r3, r2
   25740:	df04      	svc	4
   25742:	e011      	b.n	25768 <_ZN20complex_dynamic_type3app17hb0e062bcb26ee298E+0x9c>
   25744:	a812      	add	r0, sp, #72	@ 0x48
   25746:	7004      	strb	r4, [r0, #0]
   25748:	4833      	ldr	r0, [pc, #204]	@ (25818 <_ZN20complex_dynamic_type3app17hb0e062bcb26ee298E+0x14c>)
   2574a:	2104      	movs	r1, #4
   2574c:	2500      	movs	r5, #0
   2574e:	4622      	mov	r2, r4
   25750:	462b      	mov	r3, r5
   25752:	df02      	svc	2
   25754:	2880      	cmp	r0, #128	@ 0x80
   25756:	d21b      	bcs.n	25790 <_ZN20complex_dynamic_type3app17hb0e062bcb26ee298E+0xc4>
   25758:	2001      	movs	r0, #1
   2575a:	7030      	strb	r0, [r6, #0]
   2575c:	6071      	str	r1, [r6, #4]
   2575e:	482e      	ldr	r0, [pc, #184]	@ (25818 <_ZN20complex_dynamic_type3app17hb0e062bcb26ee298E+0x14c>)
   25760:	2103      	movs	r1, #3
   25762:	2200      	movs	r2, #0
   25764:	4613      	mov	r3, r2
   25766:	df03      	svc	3
   25768:	a805      	add	r0, sp, #20
   2576a:	7800      	ldrb	r0, [r0, #0]
   2576c:	2802      	cmp	r0, #2
   2576e:	d045      	beq.n	257fc <_ZN20complex_dynamic_type3app17hb0e062bcb26ee298E+0x130>
   25770:	2804      	cmp	r0, #4
   25772:	d106      	bne.n	25782 <_ZN20complex_dynamic_type3app17hb0e062bcb26ee298E+0xb6>
   25774:	4828      	ldr	r0, [pc, #160]	@ (25818 <_ZN20complex_dynamic_type3app17hb0e062bcb26ee298E+0x14c>)
   25776:	2104      	movs	r1, #4
   25778:	2200      	movs	r2, #0
   2577a:	4613      	mov	r3, r2
   2577c:	df04      	svc	4
   2577e:	b025      	add	sp, #148	@ 0x94
   25780:	bdf0      	pop	{r4, r5, r6, r7, pc}
   25782:	4825      	ldr	r0, [pc, #148]	@ (25818 <_ZN20complex_dynamic_type3app17hb0e062bcb26ee298E+0x14c>)
   25784:	2104      	movs	r1, #4
   25786:	2200      	movs	r2, #0
   25788:	4613      	mov	r3, r2
   2578a:	df03      	svc	3
   2578c:	b025      	add	sp, #148	@ 0x94
   2578e:	bdf0      	pop	{r4, r5, r6, r7, pc}
   25790:	a805      	add	r0, sp, #20
   25792:	7800      	ldrb	r0, [r0, #0]
   25794:	2802      	cmp	r0, #2
   25796:	d00c      	beq.n	257b2 <_ZN20complex_dynamic_type3app17hb0e062bcb26ee298E+0xe6>
   25798:	2803      	cmp	r0, #3
   2579a:	d105      	bne.n	257a8 <_ZN20complex_dynamic_type3app17hb0e062bcb26ee298E+0xdc>
   2579c:	481e      	ldr	r0, [pc, #120]	@ (25818 <_ZN20complex_dynamic_type3app17hb0e062bcb26ee298E+0x14c>)
   2579e:	2104      	movs	r1, #4
   257a0:	2200      	movs	r2, #0
   257a2:	4613      	mov	r3, r2
   257a4:	df03      	svc	3
   257a6:	e004      	b.n	257b2 <_ZN20complex_dynamic_type3app17hb0e062bcb26ee298E+0xe6>
   257a8:	481b      	ldr	r0, [pc, #108]	@ (25818 <_ZN20complex_dynamic_type3app17hb0e062bcb26ee298E+0x14c>)
   257aa:	2104      	movs	r1, #4
   257ac:	2200      	movs	r2, #0
   257ae:	4613      	mov	r3, r2
   257b0:	df04      	svc	4
   257b2:	a805      	add	r0, sp, #20
   257b4:	9901      	ldr	r1, [sp, #4]
   257b6:	7001      	strb	r1, [r0, #0]
   257b8:	a812      	add	r0, sp, #72	@ 0x48
   257ba:	7800      	ldrb	r0, [r0, #0]
   257bc:	2804      	cmp	r0, #4
   257be:	d007      	beq.n	257d0 <_ZN20complex_dynamic_type3app17hb0e062bcb26ee298E+0x104>
   257c0:	2803      	cmp	r0, #3
   257c2:	d11d      	bne.n	25800 <_ZN20complex_dynamic_type3app17hb0e062bcb26ee298E+0x134>
   257c4:	4814      	ldr	r0, [pc, #80]	@ (25818 <_ZN20complex_dynamic_type3app17hb0e062bcb26ee298E+0x14c>)
   257c6:	2103      	movs	r1, #3
   257c8:	2200      	movs	r2, #0
   257ca:	4613      	mov	r3, r2
   257cc:	df03      	svc	3
   257ce:	e004      	b.n	257da <_ZN20complex_dynamic_type3app17hb0e062bcb26ee298E+0x10e>
   257d0:	4811      	ldr	r0, [pc, #68]	@ (25818 <_ZN20complex_dynamic_type3app17hb0e062bcb26ee298E+0x14c>)
   257d2:	2103      	movs	r1, #3
   257d4:	2200      	movs	r2, #0
   257d6:	4613      	mov	r3, r2
   257d8:	df04      	svc	4
   257da:	a805      	add	r0, sp, #20
   257dc:	7804      	ldrb	r4, [r0, #0]
   257de:	1c70      	adds	r0, r6, #1
   257e0:	2248      	movs	r2, #72	@ 0x48
   257e2:	9902      	ldr	r1, [sp, #8]
   257e4:	f005 fc8e 	bl	2b104 <__aeabi_memcpy>
   257e8:	7035      	strb	r5, [r6, #0]
   257ea:	2c02      	cmp	r4, #2
   257ec:	d006      	beq.n	257fc <_ZN20complex_dynamic_type3app17hb0e062bcb26ee298E+0x130>
   257ee:	480a      	ldr	r0, [pc, #40]	@ (25818 <_ZN20complex_dynamic_type3app17hb0e062bcb26ee298E+0x14c>)
   257f0:	2104      	movs	r1, #4
   257f2:	2200      	movs	r2, #0
   257f4:	4613      	mov	r3, r2
   257f6:	2c04      	cmp	r4, #4
   257f8:	d10a      	bne.n	25810 <_ZN20complex_dynamic_type3app17hb0e062bcb26ee298E+0x144>
   257fa:	df04      	svc	4
   257fc:	b025      	add	sp, #148	@ 0x94
   257fe:	bdf0      	pop	{r4, r5, r6, r7, pc}
   25800:	1c70      	adds	r0, r6, #1
   25802:	2248      	movs	r2, #72	@ 0x48
   25804:	9902      	ldr	r1, [sp, #8]
   25806:	f005 fc7d 	bl	2b104 <__aeabi_memcpy>
   2580a:	7035      	strb	r5, [r6, #0]
   2580c:	b025      	add	sp, #148	@ 0x94
   2580e:	bdf0      	pop	{r4, r5, r6, r7, pc}
   25810:	df03      	svc	3
   25812:	b025      	add	sp, #148	@ 0x94
   25814:	bdf0      	pop	{r4, r5, r6, r7, pc}
   25816:	46c0      	nop			@ (mov r8, r8)
   25818:	0000180e 	.word	0x0000180e

0002581c <_ZN20complex_dynamic_type3app17hbb3758a902ea59d2E>:
   2581c:	b5f0      	push	{r4, r5, r6, r7, lr}
   2581e:	af03      	add	r7, sp, #12
   25820:	b0a1      	sub	sp, #132	@ 0x84
   25822:	9003      	str	r0, [sp, #12]
   25824:	a804      	add	r0, sp, #16
   25826:	2402      	movs	r4, #2
   25828:	7004      	strb	r4, [r0, #0]
   2582a:	1c46      	adds	r6, r0, #1
   2582c:	223c      	movs	r2, #60	@ 0x3c
   2582e:	9202      	str	r2, [sp, #8]
   25830:	4630      	mov	r0, r6
   25832:	f005 fc67 	bl	2b104 <__aeabi_memcpy>
   25836:	ad14      	add	r5, sp, #80	@ 0x50
   25838:	1c68      	adds	r0, r5, #1
   2583a:	2132      	movs	r1, #50	@ 0x32
   2583c:	9001      	str	r0, [sp, #4]
   2583e:	f005 faa1 	bl	2ad84 <__aeabi_memclr>
   25842:	9400      	str	r4, [sp, #0]
   25844:	702c      	strb	r4, [r5, #0]
   25846:	4848      	ldr	r0, [pc, #288]	@ (25968 <_ZN20complex_dynamic_type3app17hbb3758a902ea59d2E+0x14c>)
   25848:	2106      	movs	r1, #6
   2584a:	4632      	mov	r2, r6
   2584c:	9b02      	ldr	r3, [sp, #8]
   2584e:	df04      	svc	4
   25850:	2802      	cmp	r0, #2
   25852:	d104      	bne.n	2585e <_ZN20complex_dynamic_type3app17hbb3758a902ea59d2E+0x42>
   25854:	2001      	movs	r0, #1
   25856:	9a03      	ldr	r2, [sp, #12]
   25858:	7010      	strb	r0, [r2, #0]
   2585a:	6051      	str	r1, [r2, #4]
   2585c:	e02d      	b.n	258ba <_ZN20complex_dynamic_type3app17hbb3758a902ea59d2E+0x9e>
   2585e:	9d03      	ldr	r5, [sp, #12]
   25860:	a804      	add	r0, sp, #16
   25862:	2104      	movs	r1, #4
   25864:	7001      	strb	r1, [r0, #0]
   25866:	4840      	ldr	r0, [pc, #256]	@ (25968 <_ZN20complex_dynamic_type3app17hbb3758a902ea59d2E+0x14c>)
   25868:	2108      	movs	r1, #8
   2586a:	2332      	movs	r3, #50	@ 0x32
   2586c:	9c01      	ldr	r4, [sp, #4]
   2586e:	4622      	mov	r2, r4
   25870:	df03      	svc	3
   25872:	2802      	cmp	r0, #2
   25874:	d10e      	bne.n	25894 <_ZN20complex_dynamic_type3app17hbb3758a902ea59d2E+0x78>
   25876:	2001      	movs	r0, #1
   25878:	7028      	strb	r0, [r5, #0]
   2587a:	6069      	str	r1, [r5, #4]
   2587c:	a814      	add	r0, sp, #80	@ 0x50
   2587e:	7800      	ldrb	r0, [r0, #0]
   25880:	2802      	cmp	r0, #2
   25882:	d01a      	beq.n	258ba <_ZN20complex_dynamic_type3app17hbb3758a902ea59d2E+0x9e>
   25884:	2803      	cmp	r0, #3
   25886:	d013      	beq.n	258b0 <_ZN20complex_dynamic_type3app17hbb3758a902ea59d2E+0x94>
   25888:	4837      	ldr	r0, [pc, #220]	@ (25968 <_ZN20complex_dynamic_type3app17hbb3758a902ea59d2E+0x14c>)
   2588a:	2108      	movs	r1, #8
   2588c:	2200      	movs	r2, #0
   2588e:	4613      	mov	r3, r2
   25890:	df04      	svc	4
   25892:	e012      	b.n	258ba <_ZN20complex_dynamic_type3app17hbb3758a902ea59d2E+0x9e>
   25894:	a814      	add	r0, sp, #80	@ 0x50
   25896:	2103      	movs	r1, #3
   25898:	7001      	strb	r1, [r0, #0]
   2589a:	4833      	ldr	r0, [pc, #204]	@ (25968 <_ZN20complex_dynamic_type3app17hbb3758a902ea59d2E+0x14c>)
   2589c:	2106      	movs	r1, #6
   2589e:	2208      	movs	r2, #8
   258a0:	2600      	movs	r6, #0
   258a2:	4633      	mov	r3, r6
   258a4:	df02      	svc	2
   258a6:	2880      	cmp	r0, #128	@ 0x80
   258a8:	d21b      	bcs.n	258e2 <_ZN20complex_dynamic_type3app17hbb3758a902ea59d2E+0xc6>
   258aa:	2001      	movs	r0, #1
   258ac:	7028      	strb	r0, [r5, #0]
   258ae:	6069      	str	r1, [r5, #4]
   258b0:	482d      	ldr	r0, [pc, #180]	@ (25968 <_ZN20complex_dynamic_type3app17hbb3758a902ea59d2E+0x14c>)
   258b2:	2108      	movs	r1, #8
   258b4:	2200      	movs	r2, #0
   258b6:	4613      	mov	r3, r2
   258b8:	df03      	svc	3
   258ba:	a804      	add	r0, sp, #16
   258bc:	7800      	ldrb	r0, [r0, #0]
   258be:	2802      	cmp	r0, #2
   258c0:	d045      	beq.n	2594e <_ZN20complex_dynamic_type3app17hbb3758a902ea59d2E+0x132>
   258c2:	2804      	cmp	r0, #4
   258c4:	d106      	bne.n	258d4 <_ZN20complex_dynamic_type3app17hbb3758a902ea59d2E+0xb8>
   258c6:	4828      	ldr	r0, [pc, #160]	@ (25968 <_ZN20complex_dynamic_type3app17hbb3758a902ea59d2E+0x14c>)
   258c8:	2106      	movs	r1, #6
   258ca:	2200      	movs	r2, #0
   258cc:	4613      	mov	r3, r2
   258ce:	df04      	svc	4
   258d0:	b021      	add	sp, #132	@ 0x84
   258d2:	bdf0      	pop	{r4, r5, r6, r7, pc}
   258d4:	4824      	ldr	r0, [pc, #144]	@ (25968 <_ZN20complex_dynamic_type3app17hbb3758a902ea59d2E+0x14c>)
   258d6:	2106      	movs	r1, #6
   258d8:	2200      	movs	r2, #0
   258da:	4613      	mov	r3, r2
   258dc:	df03      	svc	3
   258de:	b021      	add	sp, #132	@ 0x84
   258e0:	bdf0      	pop	{r4, r5, r6, r7, pc}
   258e2:	a804      	add	r0, sp, #16
   258e4:	7800      	ldrb	r0, [r0, #0]
   258e6:	2802      	cmp	r0, #2
   258e8:	d00c      	beq.n	25904 <_ZN20complex_dynamic_type3app17hbb3758a902ea59d2E+0xe8>
   258ea:	2803      	cmp	r0, #3
   258ec:	d105      	bne.n	258fa <_ZN20complex_dynamic_type3app17hbb3758a902ea59d2E+0xde>
   258ee:	481e      	ldr	r0, [pc, #120]	@ (25968 <_ZN20complex_dynamic_type3app17hbb3758a902ea59d2E+0x14c>)
   258f0:	2106      	movs	r1, #6
   258f2:	2200      	movs	r2, #0
   258f4:	4613      	mov	r3, r2
   258f6:	df03      	svc	3
   258f8:	e004      	b.n	25904 <_ZN20complex_dynamic_type3app17hbb3758a902ea59d2E+0xe8>
   258fa:	481b      	ldr	r0, [pc, #108]	@ (25968 <_ZN20complex_dynamic_type3app17hbb3758a902ea59d2E+0x14c>)
   258fc:	2106      	movs	r1, #6
   258fe:	2200      	movs	r2, #0
   25900:	4613      	mov	r3, r2
   25902:	df04      	svc	4
   25904:	a804      	add	r0, sp, #16
   25906:	9900      	ldr	r1, [sp, #0]
   25908:	7001      	strb	r1, [r0, #0]
   2590a:	a814      	add	r0, sp, #80	@ 0x50
   2590c:	7800      	ldrb	r0, [r0, #0]
   2590e:	2804      	cmp	r0, #4
   25910:	d007      	beq.n	25922 <_ZN20complex_dynamic_type3app17hbb3758a902ea59d2E+0x106>
   25912:	2803      	cmp	r0, #3
   25914:	d11d      	bne.n	25952 <_ZN20complex_dynamic_type3app17hbb3758a902ea59d2E+0x136>
   25916:	4814      	ldr	r0, [pc, #80]	@ (25968 <_ZN20complex_dynamic_type3app17hbb3758a902ea59d2E+0x14c>)
   25918:	2108      	movs	r1, #8
   2591a:	2200      	movs	r2, #0
   2591c:	4613      	mov	r3, r2
   2591e:	df03      	svc	3
   25920:	e004      	b.n	2592c <_ZN20complex_dynamic_type3app17hbb3758a902ea59d2E+0x110>
   25922:	4811      	ldr	r0, [pc, #68]	@ (25968 <_ZN20complex_dynamic_type3app17hbb3758a902ea59d2E+0x14c>)
   25924:	2108      	movs	r1, #8
   25926:	2200      	movs	r2, #0
   25928:	4613      	mov	r3, r2
   2592a:	df04      	svc	4
   2592c:	a804      	add	r0, sp, #16
   2592e:	7804      	ldrb	r4, [r0, #0]
   25930:	1c68      	adds	r0, r5, #1
   25932:	2232      	movs	r2, #50	@ 0x32
   25934:	9901      	ldr	r1, [sp, #4]
   25936:	f005 fbe5 	bl	2b104 <__aeabi_memcpy>
   2593a:	702e      	strb	r6, [r5, #0]
   2593c:	2c02      	cmp	r4, #2
   2593e:	d006      	beq.n	2594e <_ZN20complex_dynamic_type3app17hbb3758a902ea59d2E+0x132>
   25940:	4809      	ldr	r0, [pc, #36]	@ (25968 <_ZN20complex_dynamic_type3app17hbb3758a902ea59d2E+0x14c>)
   25942:	2106      	movs	r1, #6
   25944:	2200      	movs	r2, #0
   25946:	4613      	mov	r3, r2
   25948:	2c04      	cmp	r4, #4
   2594a:	d10a      	bne.n	25962 <_ZN20complex_dynamic_type3app17hbb3758a902ea59d2E+0x146>
   2594c:	df04      	svc	4
   2594e:	b021      	add	sp, #132	@ 0x84
   25950:	bdf0      	pop	{r4, r5, r6, r7, pc}
   25952:	1c68      	adds	r0, r5, #1
   25954:	2232      	movs	r2, #50	@ 0x32
   25956:	4621      	mov	r1, r4
   25958:	f005 fbd4 	bl	2b104 <__aeabi_memcpy>
   2595c:	702e      	strb	r6, [r5, #0]
   2595e:	b021      	add	sp, #132	@ 0x84
   25960:	bdf0      	pop	{r4, r5, r6, r7, pc}
   25962:	df03      	svc	3
   25964:	b021      	add	sp, #132	@ 0x84
   25966:	bdf0      	pop	{r4, r5, r6, r7, pc}
   25968:	00001b1e 	.word	0x00001b1e

0002596c <_ZN20complex_dynamic_type3app17hc037118a7587bdedE>:
   2596c:	b5f0      	push	{r4, r5, r6, r7, lr}
   2596e:	af03      	add	r7, sp, #12
   25970:	b093      	sub	sp, #76	@ 0x4c
   25972:	9004      	str	r0, [sp, #16]
   25974:	a805      	add	r0, sp, #20
   25976:	2402      	movs	r4, #2
   25978:	7004      	strb	r4, [r0, #0]
   2597a:	1c46      	adds	r6, r0, #1
   2597c:	220f      	movs	r2, #15
   2597e:	9203      	str	r2, [sp, #12]
   25980:	4630      	mov	r0, r6
   25982:	f005 fbbf 	bl	2b104 <__aeabi_memcpy>
   25986:	ad09      	add	r5, sp, #36	@ 0x24
   25988:	1c68      	adds	r0, r5, #1
   2598a:	2125      	movs	r1, #37	@ 0x25
   2598c:	9002      	str	r0, [sp, #8]
   2598e:	f005 f9f9 	bl	2ad84 <__aeabi_memclr>
   25992:	9401      	str	r4, [sp, #4]
   25994:	702c      	strb	r4, [r5, #0]
   25996:	20a2      	movs	r0, #162	@ 0xa2
   25998:	2108      	movs	r1, #8
   2599a:	4632      	mov	r2, r6
   2599c:	9b03      	ldr	r3, [sp, #12]
   2599e:	df04      	svc	4
   259a0:	2802      	cmp	r0, #2
   259a2:	d104      	bne.n	259ae <_ZN20complex_dynamic_type3app17hc037118a7587bdedE+0x42>
   259a4:	2001      	movs	r0, #1
   259a6:	9a04      	ldr	r2, [sp, #16]
   259a8:	7010      	strb	r0, [r2, #0]
   259aa:	6051      	str	r1, [r2, #4]
   259ac:	e02d      	b.n	25a0a <_ZN20complex_dynamic_type3app17hc037118a7587bdedE+0x9e>
   259ae:	9d04      	ldr	r5, [sp, #16]
   259b0:	a805      	add	r0, sp, #20
   259b2:	2104      	movs	r1, #4
   259b4:	7001      	strb	r1, [r0, #0]
   259b6:	20a2      	movs	r0, #162	@ 0xa2
   259b8:	2100      	movs	r1, #0
   259ba:	2325      	movs	r3, #37	@ 0x25
   259bc:	9c02      	ldr	r4, [sp, #8]
   259be:	4622      	mov	r2, r4
   259c0:	df03      	svc	3
   259c2:	2802      	cmp	r0, #2
   259c4:	d10e      	bne.n	259e4 <_ZN20complex_dynamic_type3app17hc037118a7587bdedE+0x78>
   259c6:	2001      	movs	r0, #1
   259c8:	7028      	strb	r0, [r5, #0]
   259ca:	6069      	str	r1, [r5, #4]
   259cc:	a809      	add	r0, sp, #36	@ 0x24
   259ce:	7800      	ldrb	r0, [r0, #0]
   259d0:	2802      	cmp	r0, #2
   259d2:	d01a      	beq.n	25a0a <_ZN20complex_dynamic_type3app17hc037118a7587bdedE+0x9e>
   259d4:	2803      	cmp	r0, #3
   259d6:	d013      	beq.n	25a00 <_ZN20complex_dynamic_type3app17hc037118a7587bdedE+0x94>
   259d8:	20a2      	movs	r0, #162	@ 0xa2
   259da:	2100      	movs	r1, #0
   259dc:	460a      	mov	r2, r1
   259de:	460b      	mov	r3, r1
   259e0:	df04      	svc	4
   259e2:	e012      	b.n	25a0a <_ZN20complex_dynamic_type3app17hc037118a7587bdedE+0x9e>
   259e4:	a809      	add	r0, sp, #36	@ 0x24
   259e6:	2103      	movs	r1, #3
   259e8:	7001      	strb	r1, [r0, #0]
   259ea:	20a2      	movs	r0, #162	@ 0xa2
   259ec:	2108      	movs	r1, #8
   259ee:	2600      	movs	r6, #0
   259f0:	4632      	mov	r2, r6
   259f2:	4633      	mov	r3, r6
   259f4:	df02      	svc	2
   259f6:	2880      	cmp	r0, #128	@ 0x80
   259f8:	d21b      	bcs.n	25a32 <_ZN20complex_dynamic_type3app17hc037118a7587bdedE+0xc6>
   259fa:	2001      	movs	r0, #1
   259fc:	7028      	strb	r0, [r5, #0]
   259fe:	6069      	str	r1, [r5, #4]
   25a00:	20a2      	movs	r0, #162	@ 0xa2
   25a02:	2100      	movs	r1, #0
   25a04:	460a      	mov	r2, r1
   25a06:	460b      	mov	r3, r1
   25a08:	df03      	svc	3
   25a0a:	a805      	add	r0, sp, #20
   25a0c:	7800      	ldrb	r0, [r0, #0]
   25a0e:	2802      	cmp	r0, #2
   25a10:	d045      	beq.n	25a9e <_ZN20complex_dynamic_type3app17hc037118a7587bdedE+0x132>
   25a12:	2804      	cmp	r0, #4
   25a14:	d106      	bne.n	25a24 <_ZN20complex_dynamic_type3app17hc037118a7587bdedE+0xb8>
   25a16:	20a2      	movs	r0, #162	@ 0xa2
   25a18:	2108      	movs	r1, #8
   25a1a:	2200      	movs	r2, #0
   25a1c:	4613      	mov	r3, r2
   25a1e:	df04      	svc	4
   25a20:	b013      	add	sp, #76	@ 0x4c
   25a22:	bdf0      	pop	{r4, r5, r6, r7, pc}
   25a24:	20a2      	movs	r0, #162	@ 0xa2
   25a26:	2108      	movs	r1, #8
   25a28:	2200      	movs	r2, #0
   25a2a:	4613      	mov	r3, r2
   25a2c:	df03      	svc	3
   25a2e:	b013      	add	sp, #76	@ 0x4c
   25a30:	bdf0      	pop	{r4, r5, r6, r7, pc}
   25a32:	a805      	add	r0, sp, #20
   25a34:	7800      	ldrb	r0, [r0, #0]
   25a36:	2802      	cmp	r0, #2
   25a38:	d00c      	beq.n	25a54 <_ZN20complex_dynamic_type3app17hc037118a7587bdedE+0xe8>
   25a3a:	2803      	cmp	r0, #3
   25a3c:	d105      	bne.n	25a4a <_ZN20complex_dynamic_type3app17hc037118a7587bdedE+0xde>
   25a3e:	20a2      	movs	r0, #162	@ 0xa2
   25a40:	2108      	movs	r1, #8
   25a42:	2200      	movs	r2, #0
   25a44:	4613      	mov	r3, r2
   25a46:	df03      	svc	3
   25a48:	e004      	b.n	25a54 <_ZN20complex_dynamic_type3app17hc037118a7587bdedE+0xe8>
   25a4a:	20a2      	movs	r0, #162	@ 0xa2
   25a4c:	2108      	movs	r1, #8
   25a4e:	2200      	movs	r2, #0
   25a50:	4613      	mov	r3, r2
   25a52:	df04      	svc	4
   25a54:	a805      	add	r0, sp, #20
   25a56:	9901      	ldr	r1, [sp, #4]
   25a58:	7001      	strb	r1, [r0, #0]
   25a5a:	a809      	add	r0, sp, #36	@ 0x24
   25a5c:	7800      	ldrb	r0, [r0, #0]
   25a5e:	2804      	cmp	r0, #4
   25a60:	d007      	beq.n	25a72 <_ZN20complex_dynamic_type3app17hc037118a7587bdedE+0x106>
   25a62:	2803      	cmp	r0, #3
   25a64:	d11d      	bne.n	25aa2 <_ZN20complex_dynamic_type3app17hc037118a7587bdedE+0x136>
   25a66:	20a2      	movs	r0, #162	@ 0xa2
   25a68:	2100      	movs	r1, #0
   25a6a:	460a      	mov	r2, r1
   25a6c:	460b      	mov	r3, r1
   25a6e:	df03      	svc	3
   25a70:	e004      	b.n	25a7c <_ZN20complex_dynamic_type3app17hc037118a7587bdedE+0x110>
   25a72:	20a2      	movs	r0, #162	@ 0xa2
   25a74:	2100      	movs	r1, #0
   25a76:	460a      	mov	r2, r1
   25a78:	460b      	mov	r3, r1
   25a7a:	df04      	svc	4
   25a7c:	a805      	add	r0, sp, #20
   25a7e:	7804      	ldrb	r4, [r0, #0]
   25a80:	1c68      	adds	r0, r5, #1
   25a82:	2225      	movs	r2, #37	@ 0x25
   25a84:	9902      	ldr	r1, [sp, #8]
   25a86:	f005 fb3d 	bl	2b104 <__aeabi_memcpy>
   25a8a:	702e      	strb	r6, [r5, #0]
   25a8c:	2c02      	cmp	r4, #2
   25a8e:	d006      	beq.n	25a9e <_ZN20complex_dynamic_type3app17hc037118a7587bdedE+0x132>
   25a90:	20a2      	movs	r0, #162	@ 0xa2
   25a92:	2108      	movs	r1, #8
   25a94:	2200      	movs	r2, #0
   25a96:	4613      	mov	r3, r2
   25a98:	2c04      	cmp	r4, #4
   25a9a:	d10a      	bne.n	25ab2 <_ZN20complex_dynamic_type3app17hc037118a7587bdedE+0x146>
   25a9c:	df04      	svc	4
   25a9e:	b013      	add	sp, #76	@ 0x4c
   25aa0:	bdf0      	pop	{r4, r5, r6, r7, pc}
   25aa2:	1c68      	adds	r0, r5, #1
   25aa4:	2225      	movs	r2, #37	@ 0x25
   25aa6:	4621      	mov	r1, r4
   25aa8:	f005 fb2c 	bl	2b104 <__aeabi_memcpy>
   25aac:	702e      	strb	r6, [r5, #0]
   25aae:	b013      	add	sp, #76	@ 0x4c
   25ab0:	bdf0      	pop	{r4, r5, r6, r7, pc}
   25ab2:	df03      	svc	3
   25ab4:	b013      	add	sp, #76	@ 0x4c
   25ab6:	bdf0      	pop	{r4, r5, r6, r7, pc}

00025ab8 <_ZN20complex_dynamic_type3app17hc15ecf02dd530c18E>:
   25ab8:	b5f0      	push	{r4, r5, r6, r7, lr}
   25aba:	af03      	add	r7, sp, #12
   25abc:	b097      	sub	sp, #92	@ 0x5c
   25abe:	9004      	str	r0, [sp, #16]
   25ac0:	a805      	add	r0, sp, #20
   25ac2:	2402      	movs	r4, #2
   25ac4:	7004      	strb	r4, [r0, #0]
   25ac6:	1c46      	adds	r6, r0, #1
   25ac8:	2232      	movs	r2, #50	@ 0x32
   25aca:	9203      	str	r2, [sp, #12]
   25acc:	4630      	mov	r0, r6
   25ace:	f005 fb19 	bl	2b104 <__aeabi_memcpy>
   25ad2:	ad12      	add	r5, sp, #72	@ 0x48
   25ad4:	1c68      	adds	r0, r5, #1
   25ad6:	2110      	movs	r1, #16
   25ad8:	9002      	str	r0, [sp, #8]
   25ada:	f005 f953 	bl	2ad84 <__aeabi_memclr>
   25ade:	9401      	str	r4, [sp, #4]
   25ae0:	702c      	strb	r4, [r5, #0]
   25ae2:	4848      	ldr	r0, [pc, #288]	@ (25c04 <_ZN20complex_dynamic_type3app17hc15ecf02dd530c18E+0x14c>)
   25ae4:	2504      	movs	r5, #4
   25ae6:	4629      	mov	r1, r5
   25ae8:	4632      	mov	r2, r6
   25aea:	9b03      	ldr	r3, [sp, #12]
   25aec:	df04      	svc	4
   25aee:	2802      	cmp	r0, #2
   25af0:	d104      	bne.n	25afc <_ZN20complex_dynamic_type3app17hc15ecf02dd530c18E+0x44>
   25af2:	2001      	movs	r0, #1
   25af4:	9a04      	ldr	r2, [sp, #16]
   25af6:	7010      	strb	r0, [r2, #0]
   25af8:	6051      	str	r1, [r2, #4]
   25afa:	e02c      	b.n	25b56 <_ZN20complex_dynamic_type3app17hc15ecf02dd530c18E+0x9e>
   25afc:	9c04      	ldr	r4, [sp, #16]
   25afe:	a805      	add	r0, sp, #20
   25b00:	7005      	strb	r5, [r0, #0]
   25b02:	4840      	ldr	r0, [pc, #256]	@ (25c04 <_ZN20complex_dynamic_type3app17hc15ecf02dd530c18E+0x14c>)
   25b04:	2109      	movs	r1, #9
   25b06:	2310      	movs	r3, #16
   25b08:	9a02      	ldr	r2, [sp, #8]
   25b0a:	df03      	svc	3
   25b0c:	2802      	cmp	r0, #2
   25b0e:	d10e      	bne.n	25b2e <_ZN20complex_dynamic_type3app17hc15ecf02dd530c18E+0x76>
   25b10:	2001      	movs	r0, #1
   25b12:	7020      	strb	r0, [r4, #0]
   25b14:	6061      	str	r1, [r4, #4]
   25b16:	a812      	add	r0, sp, #72	@ 0x48
   25b18:	7800      	ldrb	r0, [r0, #0]
   25b1a:	2802      	cmp	r0, #2
   25b1c:	d01b      	beq.n	25b56 <_ZN20complex_dynamic_type3app17hc15ecf02dd530c18E+0x9e>
   25b1e:	2803      	cmp	r0, #3
   25b20:	d014      	beq.n	25b4c <_ZN20complex_dynamic_type3app17hc15ecf02dd530c18E+0x94>
   25b22:	4838      	ldr	r0, [pc, #224]	@ (25c04 <_ZN20complex_dynamic_type3app17hc15ecf02dd530c18E+0x14c>)
   25b24:	2109      	movs	r1, #9
   25b26:	2200      	movs	r2, #0
   25b28:	4613      	mov	r3, r2
   25b2a:	df04      	svc	4
   25b2c:	e013      	b.n	25b56 <_ZN20complex_dynamic_type3app17hc15ecf02dd530c18E+0x9e>
   25b2e:	a812      	add	r0, sp, #72	@ 0x48
   25b30:	2103      	movs	r1, #3
   25b32:	7001      	strb	r1, [r0, #0]
   25b34:	4833      	ldr	r0, [pc, #204]	@ (25c04 <_ZN20complex_dynamic_type3app17hc15ecf02dd530c18E+0x14c>)
   25b36:	2104      	movs	r1, #4
   25b38:	2209      	movs	r2, #9
   25b3a:	2600      	movs	r6, #0
   25b3c:	4633      	mov	r3, r6
   25b3e:	df02      	svc	2
   25b40:	2880      	cmp	r0, #128	@ 0x80
   25b42:	4625      	mov	r5, r4
   25b44:	d21b      	bcs.n	25b7e <_ZN20complex_dynamic_type3app17hc15ecf02dd530c18E+0xc6>
   25b46:	2001      	movs	r0, #1
   25b48:	7028      	strb	r0, [r5, #0]
   25b4a:	6069      	str	r1, [r5, #4]
   25b4c:	482d      	ldr	r0, [pc, #180]	@ (25c04 <_ZN20complex_dynamic_type3app17hc15ecf02dd530c18E+0x14c>)
   25b4e:	2109      	movs	r1, #9
   25b50:	2200      	movs	r2, #0
   25b52:	4613      	mov	r3, r2
   25b54:	df03      	svc	3
   25b56:	a805      	add	r0, sp, #20
   25b58:	7800      	ldrb	r0, [r0, #0]
   25b5a:	2802      	cmp	r0, #2
   25b5c:	d045      	beq.n	25bea <_ZN20complex_dynamic_type3app17hc15ecf02dd530c18E+0x132>
   25b5e:	2804      	cmp	r0, #4
   25b60:	d106      	bne.n	25b70 <_ZN20complex_dynamic_type3app17hc15ecf02dd530c18E+0xb8>
   25b62:	4828      	ldr	r0, [pc, #160]	@ (25c04 <_ZN20complex_dynamic_type3app17hc15ecf02dd530c18E+0x14c>)
   25b64:	2104      	movs	r1, #4
   25b66:	2200      	movs	r2, #0
   25b68:	4613      	mov	r3, r2
   25b6a:	df04      	svc	4
   25b6c:	b017      	add	sp, #92	@ 0x5c
   25b6e:	bdf0      	pop	{r4, r5, r6, r7, pc}
   25b70:	4824      	ldr	r0, [pc, #144]	@ (25c04 <_ZN20complex_dynamic_type3app17hc15ecf02dd530c18E+0x14c>)
   25b72:	2104      	movs	r1, #4
   25b74:	2200      	movs	r2, #0
   25b76:	4613      	mov	r3, r2
   25b78:	df03      	svc	3
   25b7a:	b017      	add	sp, #92	@ 0x5c
   25b7c:	bdf0      	pop	{r4, r5, r6, r7, pc}
   25b7e:	a805      	add	r0, sp, #20
   25b80:	7800      	ldrb	r0, [r0, #0]
   25b82:	2802      	cmp	r0, #2
   25b84:	d00c      	beq.n	25ba0 <_ZN20complex_dynamic_type3app17hc15ecf02dd530c18E+0xe8>
   25b86:	2803      	cmp	r0, #3
   25b88:	d105      	bne.n	25b96 <_ZN20complex_dynamic_type3app17hc15ecf02dd530c18E+0xde>
   25b8a:	481e      	ldr	r0, [pc, #120]	@ (25c04 <_ZN20complex_dynamic_type3app17hc15ecf02dd530c18E+0x14c>)
   25b8c:	2104      	movs	r1, #4
   25b8e:	2200      	movs	r2, #0
   25b90:	4613      	mov	r3, r2
   25b92:	df03      	svc	3
   25b94:	e004      	b.n	25ba0 <_ZN20complex_dynamic_type3app17hc15ecf02dd530c18E+0xe8>
   25b96:	481b      	ldr	r0, [pc, #108]	@ (25c04 <_ZN20complex_dynamic_type3app17hc15ecf02dd530c18E+0x14c>)
   25b98:	2104      	movs	r1, #4
   25b9a:	2200      	movs	r2, #0
   25b9c:	4613      	mov	r3, r2
   25b9e:	df04      	svc	4
   25ba0:	a805      	add	r0, sp, #20
   25ba2:	9901      	ldr	r1, [sp, #4]
   25ba4:	7001      	strb	r1, [r0, #0]
   25ba6:	a812      	add	r0, sp, #72	@ 0x48
   25ba8:	7800      	ldrb	r0, [r0, #0]
   25baa:	2804      	cmp	r0, #4
   25bac:	d007      	beq.n	25bbe <_ZN20complex_dynamic_type3app17hc15ecf02dd530c18E+0x106>
   25bae:	2803      	cmp	r0, #3
   25bb0:	d11d      	bne.n	25bee <_ZN20complex_dynamic_type3app17hc15ecf02dd530c18E+0x136>
   25bb2:	4814      	ldr	r0, [pc, #80]	@ (25c04 <_ZN20complex_dynamic_type3app17hc15ecf02dd530c18E+0x14c>)
   25bb4:	2109      	movs	r1, #9
   25bb6:	2200      	movs	r2, #0
   25bb8:	4613      	mov	r3, r2
   25bba:	df03      	svc	3
   25bbc:	e004      	b.n	25bc8 <_ZN20complex_dynamic_type3app17hc15ecf02dd530c18E+0x110>
   25bbe:	4811      	ldr	r0, [pc, #68]	@ (25c04 <_ZN20complex_dynamic_type3app17hc15ecf02dd530c18E+0x14c>)
   25bc0:	2109      	movs	r1, #9
   25bc2:	2200      	movs	r2, #0
   25bc4:	4613      	mov	r3, r2
   25bc6:	df04      	svc	4
   25bc8:	a805      	add	r0, sp, #20
   25bca:	7804      	ldrb	r4, [r0, #0]
   25bcc:	1c68      	adds	r0, r5, #1
   25bce:	2210      	movs	r2, #16
   25bd0:	9902      	ldr	r1, [sp, #8]
   25bd2:	f005 fa97 	bl	2b104 <__aeabi_memcpy>
   25bd6:	702e      	strb	r6, [r5, #0]
   25bd8:	2c02      	cmp	r4, #2
   25bda:	d006      	beq.n	25bea <_ZN20complex_dynamic_type3app17hc15ecf02dd530c18E+0x132>
   25bdc:	4809      	ldr	r0, [pc, #36]	@ (25c04 <_ZN20complex_dynamic_type3app17hc15ecf02dd530c18E+0x14c>)
   25bde:	2104      	movs	r1, #4
   25be0:	2200      	movs	r2, #0
   25be2:	4613      	mov	r3, r2
   25be4:	2c04      	cmp	r4, #4
   25be6:	d10a      	bne.n	25bfe <_ZN20complex_dynamic_type3app17hc15ecf02dd530c18E+0x146>
   25be8:	df04      	svc	4
   25bea:	b017      	add	sp, #92	@ 0x5c
   25bec:	bdf0      	pop	{r4, r5, r6, r7, pc}
   25bee:	1c68      	adds	r0, r5, #1
   25bf0:	2210      	movs	r2, #16
   25bf2:	9902      	ldr	r1, [sp, #8]
   25bf4:	f005 fa86 	bl	2b104 <__aeabi_memcpy>
   25bf8:	702e      	strb	r6, [r5, #0]
   25bfa:	b017      	add	sp, #92	@ 0x5c
   25bfc:	bdf0      	pop	{r4, r5, r6, r7, pc}
   25bfe:	df03      	svc	3
   25c00:	b017      	add	sp, #92	@ 0x5c
   25c02:	bdf0      	pop	{r4, r5, r6, r7, pc}
   25c04:	000019d6 	.word	0x000019d6

00025c08 <_ZN20complex_dynamic_type3app17hc1920f6e2c214a02E>:
   25c08:	b5f0      	push	{r4, r5, r6, r7, lr}
   25c0a:	af03      	add	r7, sp, #12
   25c0c:	b0a3      	sub	sp, #140	@ 0x8c
   25c0e:	9004      	str	r0, [sp, #16]
   25c10:	a805      	add	r0, sp, #20
   25c12:	2402      	movs	r4, #2
   25c14:	7004      	strb	r4, [r0, #0]
   25c16:	1c46      	adds	r6, r0, #1
   25c18:	2235      	movs	r2, #53	@ 0x35
   25c1a:	9203      	str	r2, [sp, #12]
   25c1c:	4630      	mov	r0, r6
   25c1e:	f005 fa71 	bl	2b104 <__aeabi_memcpy>
   25c22:	ad13      	add	r5, sp, #76	@ 0x4c
   25c24:	1c68      	adds	r0, r5, #1
   25c26:	213f      	movs	r1, #63	@ 0x3f
   25c28:	9002      	str	r0, [sp, #8]
   25c2a:	f005 f8ab 	bl	2ad84 <__aeabi_memclr>
   25c2e:	9401      	str	r4, [sp, #4]
   25c30:	702c      	strb	r4, [r5, #0]
   25c32:	4848      	ldr	r0, [pc, #288]	@ (25d54 <_ZN20complex_dynamic_type3app17hc1920f6e2c214a02E+0x14c>)
   25c34:	2100      	movs	r1, #0
   25c36:	4632      	mov	r2, r6
   25c38:	9b03      	ldr	r3, [sp, #12]
   25c3a:	df04      	svc	4
   25c3c:	2802      	cmp	r0, #2
   25c3e:	d104      	bne.n	25c4a <_ZN20complex_dynamic_type3app17hc1920f6e2c214a02E+0x42>
   25c40:	2001      	movs	r0, #1
   25c42:	9a04      	ldr	r2, [sp, #16]
   25c44:	7010      	strb	r0, [r2, #0]
   25c46:	6051      	str	r1, [r2, #4]
   25c48:	e02c      	b.n	25ca4 <_ZN20complex_dynamic_type3app17hc1920f6e2c214a02E+0x9c>
   25c4a:	9d04      	ldr	r5, [sp, #16]
   25c4c:	a805      	add	r0, sp, #20
   25c4e:	2104      	movs	r1, #4
   25c50:	7001      	strb	r1, [r0, #0]
   25c52:	4840      	ldr	r0, [pc, #256]	@ (25d54 <_ZN20complex_dynamic_type3app17hc1920f6e2c214a02E+0x14c>)
   25c54:	2403      	movs	r4, #3
   25c56:	233f      	movs	r3, #63	@ 0x3f
   25c58:	4621      	mov	r1, r4
   25c5a:	9a02      	ldr	r2, [sp, #8]
   25c5c:	df03      	svc	3
   25c5e:	2802      	cmp	r0, #2
   25c60:	d10e      	bne.n	25c80 <_ZN20complex_dynamic_type3app17hc1920f6e2c214a02E+0x78>
   25c62:	2001      	movs	r0, #1
   25c64:	7028      	strb	r0, [r5, #0]
   25c66:	6069      	str	r1, [r5, #4]
   25c68:	a813      	add	r0, sp, #76	@ 0x4c
   25c6a:	7800      	ldrb	r0, [r0, #0]
   25c6c:	2802      	cmp	r0, #2
   25c6e:	d019      	beq.n	25ca4 <_ZN20complex_dynamic_type3app17hc1920f6e2c214a02E+0x9c>
   25c70:	2803      	cmp	r0, #3
   25c72:	d012      	beq.n	25c9a <_ZN20complex_dynamic_type3app17hc1920f6e2c214a02E+0x92>
   25c74:	4837      	ldr	r0, [pc, #220]	@ (25d54 <_ZN20complex_dynamic_type3app17hc1920f6e2c214a02E+0x14c>)
   25c76:	2103      	movs	r1, #3
   25c78:	2200      	movs	r2, #0
   25c7a:	4613      	mov	r3, r2
   25c7c:	df04      	svc	4
   25c7e:	e011      	b.n	25ca4 <_ZN20complex_dynamic_type3app17hc1920f6e2c214a02E+0x9c>
   25c80:	a813      	add	r0, sp, #76	@ 0x4c
   25c82:	7004      	strb	r4, [r0, #0]
   25c84:	4833      	ldr	r0, [pc, #204]	@ (25d54 <_ZN20complex_dynamic_type3app17hc1920f6e2c214a02E+0x14c>)
   25c86:	2600      	movs	r6, #0
   25c88:	4631      	mov	r1, r6
   25c8a:	4622      	mov	r2, r4
   25c8c:	4633      	mov	r3, r6
   25c8e:	df02      	svc	2
   25c90:	2880      	cmp	r0, #128	@ 0x80
   25c92:	d21b      	bcs.n	25ccc <_ZN20complex_dynamic_type3app17hc1920f6e2c214a02E+0xc4>
   25c94:	2001      	movs	r0, #1
   25c96:	7028      	strb	r0, [r5, #0]
   25c98:	6069      	str	r1, [r5, #4]
   25c9a:	482e      	ldr	r0, [pc, #184]	@ (25d54 <_ZN20complex_dynamic_type3app17hc1920f6e2c214a02E+0x14c>)
   25c9c:	2103      	movs	r1, #3
   25c9e:	2200      	movs	r2, #0
   25ca0:	4613      	mov	r3, r2
   25ca2:	df03      	svc	3
   25ca4:	a805      	add	r0, sp, #20
   25ca6:	7800      	ldrb	r0, [r0, #0]
   25ca8:	2802      	cmp	r0, #2
   25caa:	d045      	beq.n	25d38 <_ZN20complex_dynamic_type3app17hc1920f6e2c214a02E+0x130>
   25cac:	2804      	cmp	r0, #4
   25cae:	d106      	bne.n	25cbe <_ZN20complex_dynamic_type3app17hc1920f6e2c214a02E+0xb6>
   25cb0:	4828      	ldr	r0, [pc, #160]	@ (25d54 <_ZN20complex_dynamic_type3app17hc1920f6e2c214a02E+0x14c>)
   25cb2:	2100      	movs	r1, #0
   25cb4:	460a      	mov	r2, r1
   25cb6:	460b      	mov	r3, r1
   25cb8:	df04      	svc	4
   25cba:	b023      	add	sp, #140	@ 0x8c
   25cbc:	bdf0      	pop	{r4, r5, r6, r7, pc}
   25cbe:	4825      	ldr	r0, [pc, #148]	@ (25d54 <_ZN20complex_dynamic_type3app17hc1920f6e2c214a02E+0x14c>)
   25cc0:	2100      	movs	r1, #0
   25cc2:	460a      	mov	r2, r1
   25cc4:	460b      	mov	r3, r1
   25cc6:	df03      	svc	3
   25cc8:	b023      	add	sp, #140	@ 0x8c
   25cca:	bdf0      	pop	{r4, r5, r6, r7, pc}
   25ccc:	a805      	add	r0, sp, #20
   25cce:	7800      	ldrb	r0, [r0, #0]
   25cd0:	2802      	cmp	r0, #2
   25cd2:	d00c      	beq.n	25cee <_ZN20complex_dynamic_type3app17hc1920f6e2c214a02E+0xe6>
   25cd4:	2803      	cmp	r0, #3
   25cd6:	d105      	bne.n	25ce4 <_ZN20complex_dynamic_type3app17hc1920f6e2c214a02E+0xdc>
   25cd8:	481e      	ldr	r0, [pc, #120]	@ (25d54 <_ZN20complex_dynamic_type3app17hc1920f6e2c214a02E+0x14c>)
   25cda:	2100      	movs	r1, #0
   25cdc:	460a      	mov	r2, r1
   25cde:	460b      	mov	r3, r1
   25ce0:	df03      	svc	3
   25ce2:	e004      	b.n	25cee <_ZN20complex_dynamic_type3app17hc1920f6e2c214a02E+0xe6>
   25ce4:	481b      	ldr	r0, [pc, #108]	@ (25d54 <_ZN20complex_dynamic_type3app17hc1920f6e2c214a02E+0x14c>)
   25ce6:	2100      	movs	r1, #0
   25ce8:	460a      	mov	r2, r1
   25cea:	460b      	mov	r3, r1
   25cec:	df04      	svc	4
   25cee:	a805      	add	r0, sp, #20
   25cf0:	9901      	ldr	r1, [sp, #4]
   25cf2:	7001      	strb	r1, [r0, #0]
   25cf4:	a813      	add	r0, sp, #76	@ 0x4c
   25cf6:	7800      	ldrb	r0, [r0, #0]
   25cf8:	2804      	cmp	r0, #4
   25cfa:	d007      	beq.n	25d0c <_ZN20complex_dynamic_type3app17hc1920f6e2c214a02E+0x104>
   25cfc:	2803      	cmp	r0, #3
   25cfe:	d11d      	bne.n	25d3c <_ZN20complex_dynamic_type3app17hc1920f6e2c214a02E+0x134>
   25d00:	4814      	ldr	r0, [pc, #80]	@ (25d54 <_ZN20complex_dynamic_type3app17hc1920f6e2c214a02E+0x14c>)
   25d02:	2103      	movs	r1, #3
   25d04:	2200      	movs	r2, #0
   25d06:	4613      	mov	r3, r2
   25d08:	df03      	svc	3
   25d0a:	e004      	b.n	25d16 <_ZN20complex_dynamic_type3app17hc1920f6e2c214a02E+0x10e>
   25d0c:	4811      	ldr	r0, [pc, #68]	@ (25d54 <_ZN20complex_dynamic_type3app17hc1920f6e2c214a02E+0x14c>)
   25d0e:	2103      	movs	r1, #3
   25d10:	2200      	movs	r2, #0
   25d12:	4613      	mov	r3, r2
   25d14:	df04      	svc	4
   25d16:	a805      	add	r0, sp, #20
   25d18:	7804      	ldrb	r4, [r0, #0]
   25d1a:	1c68      	adds	r0, r5, #1
   25d1c:	223f      	movs	r2, #63	@ 0x3f
   25d1e:	9902      	ldr	r1, [sp, #8]
   25d20:	f005 f9f0 	bl	2b104 <__aeabi_memcpy>
   25d24:	702e      	strb	r6, [r5, #0]
   25d26:	2c02      	cmp	r4, #2
   25d28:	d006      	beq.n	25d38 <_ZN20complex_dynamic_type3app17hc1920f6e2c214a02E+0x130>
   25d2a:	480a      	ldr	r0, [pc, #40]	@ (25d54 <_ZN20complex_dynamic_type3app17hc1920f6e2c214a02E+0x14c>)
   25d2c:	2100      	movs	r1, #0
   25d2e:	460a      	mov	r2, r1
   25d30:	460b      	mov	r3, r1
   25d32:	2c04      	cmp	r4, #4
   25d34:	d10a      	bne.n	25d4c <_ZN20complex_dynamic_type3app17hc1920f6e2c214a02E+0x144>
   25d36:	df04      	svc	4
   25d38:	b023      	add	sp, #140	@ 0x8c
   25d3a:	bdf0      	pop	{r4, r5, r6, r7, pc}
   25d3c:	1c68      	adds	r0, r5, #1
   25d3e:	223f      	movs	r2, #63	@ 0x3f
   25d40:	9902      	ldr	r1, [sp, #8]
   25d42:	f005 f9df 	bl	2b104 <__aeabi_memcpy>
   25d46:	702e      	strb	r6, [r5, #0]
   25d48:	b023      	add	sp, #140	@ 0x8c
   25d4a:	bdf0      	pop	{r4, r5, r6, r7, pc}
   25d4c:	df03      	svc	3
   25d4e:	b023      	add	sp, #140	@ 0x8c
   25d50:	bdf0      	pop	{r4, r5, r6, r7, pc}
   25d52:	46c0      	nop			@ (mov r8, r8)
   25d54:	00000e57 	.word	0x00000e57

00025d58 <_ZN20complex_dynamic_type3app17hc35cd54330a3973eE>:
   25d58:	b5f0      	push	{r4, r5, r6, r7, lr}
   25d5a:	af03      	add	r7, sp, #12
   25d5c:	b0ad      	sub	sp, #180	@ 0xb4
   25d5e:	9003      	str	r0, [sp, #12]
   25d60:	a804      	add	r0, sp, #16
   25d62:	2402      	movs	r4, #2
   25d64:	7004      	strb	r4, [r0, #0]
   25d66:	1c46      	adds	r6, r0, #1
   25d68:	2251      	movs	r2, #81	@ 0x51
   25d6a:	9202      	str	r2, [sp, #8]
   25d6c:	4630      	mov	r0, r6
   25d6e:	f005 f9c9 	bl	2b104 <__aeabi_memcpy>
   25d72:	ad19      	add	r5, sp, #100	@ 0x64
   25d74:	1c68      	adds	r0, r5, #1
   25d76:	214f      	movs	r1, #79	@ 0x4f
   25d78:	9001      	str	r0, [sp, #4]
   25d7a:	f005 f803 	bl	2ad84 <__aeabi_memclr>
   25d7e:	9400      	str	r4, [sp, #0]
   25d80:	702c      	strb	r4, [r5, #0]
   25d82:	4848      	ldr	r0, [pc, #288]	@ (25ea4 <_ZN20complex_dynamic_type3app17hc35cd54330a3973eE+0x14c>)
   25d84:	2504      	movs	r5, #4
   25d86:	4629      	mov	r1, r5
   25d88:	4632      	mov	r2, r6
   25d8a:	9b02      	ldr	r3, [sp, #8]
   25d8c:	df04      	svc	4
   25d8e:	2802      	cmp	r0, #2
   25d90:	d104      	bne.n	25d9c <_ZN20complex_dynamic_type3app17hc35cd54330a3973eE+0x44>
   25d92:	2001      	movs	r0, #1
   25d94:	9a03      	ldr	r2, [sp, #12]
   25d96:	7010      	strb	r0, [r2, #0]
   25d98:	6051      	str	r1, [r2, #4]
   25d9a:	e02c      	b.n	25df6 <_ZN20complex_dynamic_type3app17hc35cd54330a3973eE+0x9e>
   25d9c:	9c03      	ldr	r4, [sp, #12]
   25d9e:	a804      	add	r0, sp, #16
   25da0:	7005      	strb	r5, [r0, #0]
   25da2:	4840      	ldr	r0, [pc, #256]	@ (25ea4 <_ZN20complex_dynamic_type3app17hc35cd54330a3973eE+0x14c>)
   25da4:	2109      	movs	r1, #9
   25da6:	234f      	movs	r3, #79	@ 0x4f
   25da8:	9a01      	ldr	r2, [sp, #4]
   25daa:	df03      	svc	3
   25dac:	2802      	cmp	r0, #2
   25dae:	d10e      	bne.n	25dce <_ZN20complex_dynamic_type3app17hc35cd54330a3973eE+0x76>
   25db0:	2001      	movs	r0, #1
   25db2:	7020      	strb	r0, [r4, #0]
   25db4:	6061      	str	r1, [r4, #4]
   25db6:	a819      	add	r0, sp, #100	@ 0x64
   25db8:	7800      	ldrb	r0, [r0, #0]
   25dba:	2802      	cmp	r0, #2
   25dbc:	d01b      	beq.n	25df6 <_ZN20complex_dynamic_type3app17hc35cd54330a3973eE+0x9e>
   25dbe:	2803      	cmp	r0, #3
   25dc0:	d014      	beq.n	25dec <_ZN20complex_dynamic_type3app17hc35cd54330a3973eE+0x94>
   25dc2:	4838      	ldr	r0, [pc, #224]	@ (25ea4 <_ZN20complex_dynamic_type3app17hc35cd54330a3973eE+0x14c>)
   25dc4:	2109      	movs	r1, #9
   25dc6:	2200      	movs	r2, #0
   25dc8:	4613      	mov	r3, r2
   25dca:	df04      	svc	4
   25dcc:	e013      	b.n	25df6 <_ZN20complex_dynamic_type3app17hc35cd54330a3973eE+0x9e>
   25dce:	a819      	add	r0, sp, #100	@ 0x64
   25dd0:	2103      	movs	r1, #3
   25dd2:	7001      	strb	r1, [r0, #0]
   25dd4:	4833      	ldr	r0, [pc, #204]	@ (25ea4 <_ZN20complex_dynamic_type3app17hc35cd54330a3973eE+0x14c>)
   25dd6:	2104      	movs	r1, #4
   25dd8:	2209      	movs	r2, #9
   25dda:	2600      	movs	r6, #0
   25ddc:	4633      	mov	r3, r6
   25dde:	df02      	svc	2
   25de0:	2880      	cmp	r0, #128	@ 0x80
   25de2:	4625      	mov	r5, r4
   25de4:	d21b      	bcs.n	25e1e <_ZN20complex_dynamic_type3app17hc35cd54330a3973eE+0xc6>
   25de6:	2001      	movs	r0, #1
   25de8:	7028      	strb	r0, [r5, #0]
   25dea:	6069      	str	r1, [r5, #4]
   25dec:	482d      	ldr	r0, [pc, #180]	@ (25ea4 <_ZN20complex_dynamic_type3app17hc35cd54330a3973eE+0x14c>)
   25dee:	2109      	movs	r1, #9
   25df0:	2200      	movs	r2, #0
   25df2:	4613      	mov	r3, r2
   25df4:	df03      	svc	3
   25df6:	a804      	add	r0, sp, #16
   25df8:	7800      	ldrb	r0, [r0, #0]
   25dfa:	2802      	cmp	r0, #2
   25dfc:	d045      	beq.n	25e8a <_ZN20complex_dynamic_type3app17hc35cd54330a3973eE+0x132>
   25dfe:	2804      	cmp	r0, #4
   25e00:	d106      	bne.n	25e10 <_ZN20complex_dynamic_type3app17hc35cd54330a3973eE+0xb8>
   25e02:	4828      	ldr	r0, [pc, #160]	@ (25ea4 <_ZN20complex_dynamic_type3app17hc35cd54330a3973eE+0x14c>)
   25e04:	2104      	movs	r1, #4
   25e06:	2200      	movs	r2, #0
   25e08:	4613      	mov	r3, r2
   25e0a:	df04      	svc	4
   25e0c:	b02d      	add	sp, #180	@ 0xb4
   25e0e:	bdf0      	pop	{r4, r5, r6, r7, pc}
   25e10:	4824      	ldr	r0, [pc, #144]	@ (25ea4 <_ZN20complex_dynamic_type3app17hc35cd54330a3973eE+0x14c>)
   25e12:	2104      	movs	r1, #4
   25e14:	2200      	movs	r2, #0
   25e16:	4613      	mov	r3, r2
   25e18:	df03      	svc	3
   25e1a:	b02d      	add	sp, #180	@ 0xb4
   25e1c:	bdf0      	pop	{r4, r5, r6, r7, pc}
   25e1e:	a804      	add	r0, sp, #16
   25e20:	7800      	ldrb	r0, [r0, #0]
   25e22:	2802      	cmp	r0, #2
   25e24:	d00c      	beq.n	25e40 <_ZN20complex_dynamic_type3app17hc35cd54330a3973eE+0xe8>
   25e26:	2803      	cmp	r0, #3
   25e28:	d105      	bne.n	25e36 <_ZN20complex_dynamic_type3app17hc35cd54330a3973eE+0xde>
   25e2a:	481e      	ldr	r0, [pc, #120]	@ (25ea4 <_ZN20complex_dynamic_type3app17hc35cd54330a3973eE+0x14c>)
   25e2c:	2104      	movs	r1, #4
   25e2e:	2200      	movs	r2, #0
   25e30:	4613      	mov	r3, r2
   25e32:	df03      	svc	3
   25e34:	e004      	b.n	25e40 <_ZN20complex_dynamic_type3app17hc35cd54330a3973eE+0xe8>
   25e36:	481b      	ldr	r0, [pc, #108]	@ (25ea4 <_ZN20complex_dynamic_type3app17hc35cd54330a3973eE+0x14c>)
   25e38:	2104      	movs	r1, #4
   25e3a:	2200      	movs	r2, #0
   25e3c:	4613      	mov	r3, r2
   25e3e:	df04      	svc	4
   25e40:	a804      	add	r0, sp, #16
   25e42:	9900      	ldr	r1, [sp, #0]
   25e44:	7001      	strb	r1, [r0, #0]
   25e46:	a819      	add	r0, sp, #100	@ 0x64
   25e48:	7800      	ldrb	r0, [r0, #0]
   25e4a:	2804      	cmp	r0, #4
   25e4c:	d007      	beq.n	25e5e <_ZN20complex_dynamic_type3app17hc35cd54330a3973eE+0x106>
   25e4e:	2803      	cmp	r0, #3
   25e50:	d11d      	bne.n	25e8e <_ZN20complex_dynamic_type3app17hc35cd54330a3973eE+0x136>
   25e52:	4814      	ldr	r0, [pc, #80]	@ (25ea4 <_ZN20complex_dynamic_type3app17hc35cd54330a3973eE+0x14c>)
   25e54:	2109      	movs	r1, #9
   25e56:	2200      	movs	r2, #0
   25e58:	4613      	mov	r3, r2
   25e5a:	df03      	svc	3
   25e5c:	e004      	b.n	25e68 <_ZN20complex_dynamic_type3app17hc35cd54330a3973eE+0x110>
   25e5e:	4811      	ldr	r0, [pc, #68]	@ (25ea4 <_ZN20complex_dynamic_type3app17hc35cd54330a3973eE+0x14c>)
   25e60:	2109      	movs	r1, #9
   25e62:	2200      	movs	r2, #0
   25e64:	4613      	mov	r3, r2
   25e66:	df04      	svc	4
   25e68:	a804      	add	r0, sp, #16
   25e6a:	7804      	ldrb	r4, [r0, #0]
   25e6c:	1c68      	adds	r0, r5, #1
   25e6e:	224f      	movs	r2, #79	@ 0x4f
   25e70:	9901      	ldr	r1, [sp, #4]
   25e72:	f005 f947 	bl	2b104 <__aeabi_memcpy>
   25e76:	702e      	strb	r6, [r5, #0]
   25e78:	2c02      	cmp	r4, #2
   25e7a:	d006      	beq.n	25e8a <_ZN20complex_dynamic_type3app17hc35cd54330a3973eE+0x132>
   25e7c:	4809      	ldr	r0, [pc, #36]	@ (25ea4 <_ZN20complex_dynamic_type3app17hc35cd54330a3973eE+0x14c>)
   25e7e:	2104      	movs	r1, #4
   25e80:	2200      	movs	r2, #0
   25e82:	4613      	mov	r3, r2
   25e84:	2c04      	cmp	r4, #4
   25e86:	d10a      	bne.n	25e9e <_ZN20complex_dynamic_type3app17hc35cd54330a3973eE+0x146>
   25e88:	df04      	svc	4
   25e8a:	b02d      	add	sp, #180	@ 0xb4
   25e8c:	bdf0      	pop	{r4, r5, r6, r7, pc}
   25e8e:	1c68      	adds	r0, r5, #1
   25e90:	224f      	movs	r2, #79	@ 0x4f
   25e92:	9901      	ldr	r1, [sp, #4]
   25e94:	f005 f936 	bl	2b104 <__aeabi_memcpy>
   25e98:	702e      	strb	r6, [r5, #0]
   25e9a:	b02d      	add	sp, #180	@ 0xb4
   25e9c:	bdf0      	pop	{r4, r5, r6, r7, pc}
   25e9e:	df03      	svc	3
   25ea0:	b02d      	add	sp, #180	@ 0xb4
   25ea2:	bdf0      	pop	{r4, r5, r6, r7, pc}
   25ea4:	000020ee 	.word	0x000020ee

00025ea8 <_ZN20complex_dynamic_type3app17hc39c530a082d75d2E>:
   25ea8:	b5f0      	push	{r4, r5, r6, r7, lr}
   25eaa:	af03      	add	r7, sp, #12
   25eac:	b09d      	sub	sp, #116	@ 0x74
   25eae:	9003      	str	r0, [sp, #12]
   25eb0:	a804      	add	r0, sp, #16
   25eb2:	2602      	movs	r6, #2
   25eb4:	7006      	strb	r6, [r0, #0]
   25eb6:	1c40      	adds	r0, r0, #1
   25eb8:	9002      	str	r0, [sp, #8]
   25eba:	2538      	movs	r5, #56	@ 0x38
   25ebc:	462a      	mov	r2, r5
   25ebe:	f005 f921 	bl	2b104 <__aeabi_memcpy>
   25ec2:	ac13      	add	r4, sp, #76	@ 0x4c
   25ec4:	1c60      	adds	r0, r4, #1
   25ec6:	2127      	movs	r1, #39	@ 0x27
   25ec8:	9001      	str	r0, [sp, #4]
   25eca:	f004 ff5b 	bl	2ad84 <__aeabi_memclr>
   25ece:	7026      	strb	r6, [r4, #0]
   25ed0:	484a      	ldr	r0, [pc, #296]	@ (25ffc <_ZN20complex_dynamic_type3app17hc39c530a082d75d2E+0x154>)
   25ed2:	4631      	mov	r1, r6
   25ed4:	9a02      	ldr	r2, [sp, #8]
   25ed6:	462b      	mov	r3, r5
   25ed8:	df04      	svc	4
   25eda:	2802      	cmp	r0, #2
   25edc:	d104      	bne.n	25ee8 <_ZN20complex_dynamic_type3app17hc39c530a082d75d2E+0x40>
   25ede:	2001      	movs	r0, #1
   25ee0:	9a03      	ldr	r2, [sp, #12]
   25ee2:	7010      	strb	r0, [r2, #0]
   25ee4:	6051      	str	r1, [r2, #4]
   25ee6:	e02e      	b.n	25f46 <_ZN20complex_dynamic_type3app17hc39c530a082d75d2E+0x9e>
   25ee8:	9d03      	ldr	r5, [sp, #12]
   25eea:	a804      	add	r0, sp, #16
   25eec:	2104      	movs	r1, #4
   25eee:	7001      	strb	r1, [r0, #0]
   25ef0:	4842      	ldr	r0, [pc, #264]	@ (25ffc <_ZN20complex_dynamic_type3app17hc39c530a082d75d2E+0x154>)
   25ef2:	2108      	movs	r1, #8
   25ef4:	2327      	movs	r3, #39	@ 0x27
   25ef6:	9c01      	ldr	r4, [sp, #4]
   25ef8:	4622      	mov	r2, r4
   25efa:	df03      	svc	3
   25efc:	2802      	cmp	r0, #2
   25efe:	d10e      	bne.n	25f1e <_ZN20complex_dynamic_type3app17hc39c530a082d75d2E+0x76>
   25f00:	2001      	movs	r0, #1
   25f02:	7028      	strb	r0, [r5, #0]
   25f04:	6069      	str	r1, [r5, #4]
   25f06:	a813      	add	r0, sp, #76	@ 0x4c
   25f08:	7800      	ldrb	r0, [r0, #0]
   25f0a:	2802      	cmp	r0, #2
   25f0c:	d01b      	beq.n	25f46 <_ZN20complex_dynamic_type3app17hc39c530a082d75d2E+0x9e>
   25f0e:	2803      	cmp	r0, #3
   25f10:	d014      	beq.n	25f3c <_ZN20complex_dynamic_type3app17hc39c530a082d75d2E+0x94>
   25f12:	483a      	ldr	r0, [pc, #232]	@ (25ffc <_ZN20complex_dynamic_type3app17hc39c530a082d75d2E+0x154>)
   25f14:	2108      	movs	r1, #8
   25f16:	2200      	movs	r2, #0
   25f18:	4613      	mov	r3, r2
   25f1a:	df04      	svc	4
   25f1c:	e013      	b.n	25f46 <_ZN20complex_dynamic_type3app17hc39c530a082d75d2E+0x9e>
   25f1e:	a813      	add	r0, sp, #76	@ 0x4c
   25f20:	2103      	movs	r1, #3
   25f22:	7001      	strb	r1, [r0, #0]
   25f24:	4835      	ldr	r0, [pc, #212]	@ (25ffc <_ZN20complex_dynamic_type3app17hc39c530a082d75d2E+0x154>)
   25f26:	2602      	movs	r6, #2
   25f28:	2208      	movs	r2, #8
   25f2a:	2300      	movs	r3, #0
   25f2c:	4631      	mov	r1, r6
   25f2e:	9302      	str	r3, [sp, #8]
   25f30:	df02      	svc	2
   25f32:	2880      	cmp	r0, #128	@ 0x80
   25f34:	d21b      	bcs.n	25f6e <_ZN20complex_dynamic_type3app17hc39c530a082d75d2E+0xc6>
   25f36:	2001      	movs	r0, #1
   25f38:	7028      	strb	r0, [r5, #0]
   25f3a:	6069      	str	r1, [r5, #4]
   25f3c:	482f      	ldr	r0, [pc, #188]	@ (25ffc <_ZN20complex_dynamic_type3app17hc39c530a082d75d2E+0x154>)
   25f3e:	2108      	movs	r1, #8
   25f40:	2200      	movs	r2, #0
   25f42:	4613      	mov	r3, r2
   25f44:	df03      	svc	3
   25f46:	a804      	add	r0, sp, #16
   25f48:	7800      	ldrb	r0, [r0, #0]
   25f4a:	2802      	cmp	r0, #2
   25f4c:	d047      	beq.n	25fde <_ZN20complex_dynamic_type3app17hc39c530a082d75d2E+0x136>
   25f4e:	2804      	cmp	r0, #4
   25f50:	d106      	bne.n	25f60 <_ZN20complex_dynamic_type3app17hc39c530a082d75d2E+0xb8>
   25f52:	482a      	ldr	r0, [pc, #168]	@ (25ffc <_ZN20complex_dynamic_type3app17hc39c530a082d75d2E+0x154>)
   25f54:	2102      	movs	r1, #2
   25f56:	2200      	movs	r2, #0
   25f58:	4613      	mov	r3, r2
   25f5a:	df04      	svc	4
   25f5c:	b01d      	add	sp, #116	@ 0x74
   25f5e:	bdf0      	pop	{r4, r5, r6, r7, pc}
   25f60:	4826      	ldr	r0, [pc, #152]	@ (25ffc <_ZN20complex_dynamic_type3app17hc39c530a082d75d2E+0x154>)
   25f62:	2102      	movs	r1, #2
   25f64:	2200      	movs	r2, #0
   25f66:	4613      	mov	r3, r2
   25f68:	df03      	svc	3
   25f6a:	b01d      	add	sp, #116	@ 0x74
   25f6c:	bdf0      	pop	{r4, r5, r6, r7, pc}
   25f6e:	a804      	add	r0, sp, #16
   25f70:	7800      	ldrb	r0, [r0, #0]
   25f72:	2802      	cmp	r0, #2
   25f74:	d00c      	beq.n	25f90 <_ZN20complex_dynamic_type3app17hc39c530a082d75d2E+0xe8>
   25f76:	2803      	cmp	r0, #3
   25f78:	d105      	bne.n	25f86 <_ZN20complex_dynamic_type3app17hc39c530a082d75d2E+0xde>
   25f7a:	4820      	ldr	r0, [pc, #128]	@ (25ffc <_ZN20complex_dynamic_type3app17hc39c530a082d75d2E+0x154>)
   25f7c:	2102      	movs	r1, #2
   25f7e:	2200      	movs	r2, #0
   25f80:	4613      	mov	r3, r2
   25f82:	df03      	svc	3
   25f84:	e004      	b.n	25f90 <_ZN20complex_dynamic_type3app17hc39c530a082d75d2E+0xe8>
   25f86:	481d      	ldr	r0, [pc, #116]	@ (25ffc <_ZN20complex_dynamic_type3app17hc39c530a082d75d2E+0x154>)
   25f88:	2102      	movs	r1, #2
   25f8a:	2200      	movs	r2, #0
   25f8c:	4613      	mov	r3, r2
   25f8e:	df04      	svc	4
   25f90:	a804      	add	r0, sp, #16
   25f92:	7006      	strb	r6, [r0, #0]
   25f94:	a813      	add	r0, sp, #76	@ 0x4c
   25f96:	7800      	ldrb	r0, [r0, #0]
   25f98:	2804      	cmp	r0, #4
   25f9a:	d008      	beq.n	25fae <_ZN20complex_dynamic_type3app17hc39c530a082d75d2E+0x106>
   25f9c:	2803      	cmp	r0, #3
   25f9e:	d120      	bne.n	25fe2 <_ZN20complex_dynamic_type3app17hc39c530a082d75d2E+0x13a>
   25fa0:	4626      	mov	r6, r4
   25fa2:	4816      	ldr	r0, [pc, #88]	@ (25ffc <_ZN20complex_dynamic_type3app17hc39c530a082d75d2E+0x154>)
   25fa4:	2108      	movs	r1, #8
   25fa6:	2200      	movs	r2, #0
   25fa8:	4613      	mov	r3, r2
   25faa:	df03      	svc	3
   25fac:	e005      	b.n	25fba <_ZN20complex_dynamic_type3app17hc39c530a082d75d2E+0x112>
   25fae:	4626      	mov	r6, r4
   25fb0:	4812      	ldr	r0, [pc, #72]	@ (25ffc <_ZN20complex_dynamic_type3app17hc39c530a082d75d2E+0x154>)
   25fb2:	2108      	movs	r1, #8
   25fb4:	2200      	movs	r2, #0
   25fb6:	4613      	mov	r3, r2
   25fb8:	df04      	svc	4
   25fba:	a804      	add	r0, sp, #16
   25fbc:	7804      	ldrb	r4, [r0, #0]
   25fbe:	1c68      	adds	r0, r5, #1
   25fc0:	2227      	movs	r2, #39	@ 0x27
   25fc2:	4631      	mov	r1, r6
   25fc4:	f005 f89e 	bl	2b104 <__aeabi_memcpy>
   25fc8:	9802      	ldr	r0, [sp, #8]
   25fca:	7028      	strb	r0, [r5, #0]
   25fcc:	2c02      	cmp	r4, #2
   25fce:	d006      	beq.n	25fde <_ZN20complex_dynamic_type3app17hc39c530a082d75d2E+0x136>
   25fd0:	480a      	ldr	r0, [pc, #40]	@ (25ffc <_ZN20complex_dynamic_type3app17hc39c530a082d75d2E+0x154>)
   25fd2:	2102      	movs	r1, #2
   25fd4:	2200      	movs	r2, #0
   25fd6:	4613      	mov	r3, r2
   25fd8:	2c04      	cmp	r4, #4
   25fda:	d10b      	bne.n	25ff4 <_ZN20complex_dynamic_type3app17hc39c530a082d75d2E+0x14c>
   25fdc:	df04      	svc	4
   25fde:	b01d      	add	sp, #116	@ 0x74
   25fe0:	bdf0      	pop	{r4, r5, r6, r7, pc}
   25fe2:	1c68      	adds	r0, r5, #1
   25fe4:	2227      	movs	r2, #39	@ 0x27
   25fe6:	4621      	mov	r1, r4
   25fe8:	f005 f88c 	bl	2b104 <__aeabi_memcpy>
   25fec:	9802      	ldr	r0, [sp, #8]
   25fee:	7028      	strb	r0, [r5, #0]
   25ff0:	b01d      	add	sp, #116	@ 0x74
   25ff2:	bdf0      	pop	{r4, r5, r6, r7, pc}
   25ff4:	df03      	svc	3
   25ff6:	b01d      	add	sp, #116	@ 0x74
   25ff8:	bdf0      	pop	{r4, r5, r6, r7, pc}
   25ffa:	46c0      	nop			@ (mov r8, r8)
   25ffc:	00000e2b 	.word	0x00000e2b

00026000 <_ZN20complex_dynamic_type3app17hc39eb30d0e2b3164E>:
   26000:	b5f0      	push	{r4, r5, r6, r7, lr}
   26002:	af03      	add	r7, sp, #12
   26004:	b0b3      	sub	sp, #204	@ 0xcc
   26006:	9004      	str	r0, [sp, #16]
   26008:	a805      	add	r0, sp, #20
   2600a:	2402      	movs	r4, #2
   2600c:	7004      	strb	r4, [r0, #0]
   2600e:	1c46      	adds	r6, r0, #1
   26010:	225e      	movs	r2, #94	@ 0x5e
   26012:	9203      	str	r2, [sp, #12]
   26014:	4630      	mov	r0, r6
   26016:	f005 f875 	bl	2b104 <__aeabi_memcpy>
   2601a:	ad1d      	add	r5, sp, #116	@ 0x74
   2601c:	1c68      	adds	r0, r5, #1
   2601e:	2155      	movs	r1, #85	@ 0x55
   26020:	9002      	str	r0, [sp, #8]
   26022:	f004 feaf 	bl	2ad84 <__aeabi_memclr>
   26026:	9401      	str	r4, [sp, #4]
   26028:	702c      	strb	r4, [r5, #0]
   2602a:	4848      	ldr	r0, [pc, #288]	@ (2614c <_ZN20complex_dynamic_type3app17hc39eb30d0e2b3164E+0x14c>)
   2602c:	2107      	movs	r1, #7
   2602e:	4632      	mov	r2, r6
   26030:	9b03      	ldr	r3, [sp, #12]
   26032:	df04      	svc	4
   26034:	2802      	cmp	r0, #2
   26036:	d104      	bne.n	26042 <_ZN20complex_dynamic_type3app17hc39eb30d0e2b3164E+0x42>
   26038:	2001      	movs	r0, #1
   2603a:	9a04      	ldr	r2, [sp, #16]
   2603c:	7010      	strb	r0, [r2, #0]
   2603e:	6051      	str	r1, [r2, #4]
   26040:	e02c      	b.n	2609c <_ZN20complex_dynamic_type3app17hc39eb30d0e2b3164E+0x9c>
   26042:	9d04      	ldr	r5, [sp, #16]
   26044:	a805      	add	r0, sp, #20
   26046:	2104      	movs	r1, #4
   26048:	7001      	strb	r1, [r0, #0]
   2604a:	4840      	ldr	r0, [pc, #256]	@ (2614c <_ZN20complex_dynamic_type3app17hc39eb30d0e2b3164E+0x14c>)
   2604c:	2403      	movs	r4, #3
   2604e:	2355      	movs	r3, #85	@ 0x55
   26050:	4621      	mov	r1, r4
   26052:	9a02      	ldr	r2, [sp, #8]
   26054:	df03      	svc	3
   26056:	2802      	cmp	r0, #2
   26058:	d10e      	bne.n	26078 <_ZN20complex_dynamic_type3app17hc39eb30d0e2b3164E+0x78>
   2605a:	2001      	movs	r0, #1
   2605c:	7028      	strb	r0, [r5, #0]
   2605e:	6069      	str	r1, [r5, #4]
   26060:	a81d      	add	r0, sp, #116	@ 0x74
   26062:	7800      	ldrb	r0, [r0, #0]
   26064:	2802      	cmp	r0, #2
   26066:	d019      	beq.n	2609c <_ZN20complex_dynamic_type3app17hc39eb30d0e2b3164E+0x9c>
   26068:	2803      	cmp	r0, #3
   2606a:	d012      	beq.n	26092 <_ZN20complex_dynamic_type3app17hc39eb30d0e2b3164E+0x92>
   2606c:	4837      	ldr	r0, [pc, #220]	@ (2614c <_ZN20complex_dynamic_type3app17hc39eb30d0e2b3164E+0x14c>)
   2606e:	2103      	movs	r1, #3
   26070:	2200      	movs	r2, #0
   26072:	4613      	mov	r3, r2
   26074:	df04      	svc	4
   26076:	e011      	b.n	2609c <_ZN20complex_dynamic_type3app17hc39eb30d0e2b3164E+0x9c>
   26078:	a81d      	add	r0, sp, #116	@ 0x74
   2607a:	7004      	strb	r4, [r0, #0]
   2607c:	4833      	ldr	r0, [pc, #204]	@ (2614c <_ZN20complex_dynamic_type3app17hc39eb30d0e2b3164E+0x14c>)
   2607e:	2107      	movs	r1, #7
   26080:	2600      	movs	r6, #0
   26082:	4622      	mov	r2, r4
   26084:	4633      	mov	r3, r6
   26086:	df02      	svc	2
   26088:	2880      	cmp	r0, #128	@ 0x80
   2608a:	d21b      	bcs.n	260c4 <_ZN20complex_dynamic_type3app17hc39eb30d0e2b3164E+0xc4>
   2608c:	2001      	movs	r0, #1
   2608e:	7028      	strb	r0, [r5, #0]
   26090:	6069      	str	r1, [r5, #4]
   26092:	482e      	ldr	r0, [pc, #184]	@ (2614c <_ZN20complex_dynamic_type3app17hc39eb30d0e2b3164E+0x14c>)
   26094:	2103      	movs	r1, #3
   26096:	2200      	movs	r2, #0
   26098:	4613      	mov	r3, r2
   2609a:	df03      	svc	3
   2609c:	a805      	add	r0, sp, #20
   2609e:	7800      	ldrb	r0, [r0, #0]
   260a0:	2802      	cmp	r0, #2
   260a2:	d045      	beq.n	26130 <_ZN20complex_dynamic_type3app17hc39eb30d0e2b3164E+0x130>
   260a4:	2804      	cmp	r0, #4
   260a6:	d106      	bne.n	260b6 <_ZN20complex_dynamic_type3app17hc39eb30d0e2b3164E+0xb6>
   260a8:	4828      	ldr	r0, [pc, #160]	@ (2614c <_ZN20complex_dynamic_type3app17hc39eb30d0e2b3164E+0x14c>)
   260aa:	2107      	movs	r1, #7
   260ac:	2200      	movs	r2, #0
   260ae:	4613      	mov	r3, r2
   260b0:	df04      	svc	4
   260b2:	b033      	add	sp, #204	@ 0xcc
   260b4:	bdf0      	pop	{r4, r5, r6, r7, pc}
   260b6:	4825      	ldr	r0, [pc, #148]	@ (2614c <_ZN20complex_dynamic_type3app17hc39eb30d0e2b3164E+0x14c>)
   260b8:	2107      	movs	r1, #7
   260ba:	2200      	movs	r2, #0
   260bc:	4613      	mov	r3, r2
   260be:	df03      	svc	3
   260c0:	b033      	add	sp, #204	@ 0xcc
   260c2:	bdf0      	pop	{r4, r5, r6, r7, pc}
   260c4:	a805      	add	r0, sp, #20
   260c6:	7800      	ldrb	r0, [r0, #0]
   260c8:	2802      	cmp	r0, #2
   260ca:	d00c      	beq.n	260e6 <_ZN20complex_dynamic_type3app17hc39eb30d0e2b3164E+0xe6>
   260cc:	2803      	cmp	r0, #3
   260ce:	d105      	bne.n	260dc <_ZN20complex_dynamic_type3app17hc39eb30d0e2b3164E+0xdc>
   260d0:	481e      	ldr	r0, [pc, #120]	@ (2614c <_ZN20complex_dynamic_type3app17hc39eb30d0e2b3164E+0x14c>)
   260d2:	2107      	movs	r1, #7
   260d4:	2200      	movs	r2, #0
   260d6:	4613      	mov	r3, r2
   260d8:	df03      	svc	3
   260da:	e004      	b.n	260e6 <_ZN20complex_dynamic_type3app17hc39eb30d0e2b3164E+0xe6>
   260dc:	481b      	ldr	r0, [pc, #108]	@ (2614c <_ZN20complex_dynamic_type3app17hc39eb30d0e2b3164E+0x14c>)
   260de:	2107      	movs	r1, #7
   260e0:	2200      	movs	r2, #0
   260e2:	4613      	mov	r3, r2
   260e4:	df04      	svc	4
   260e6:	a805      	add	r0, sp, #20
   260e8:	9901      	ldr	r1, [sp, #4]
   260ea:	7001      	strb	r1, [r0, #0]
   260ec:	a81d      	add	r0, sp, #116	@ 0x74
   260ee:	7800      	ldrb	r0, [r0, #0]
   260f0:	2804      	cmp	r0, #4
   260f2:	d007      	beq.n	26104 <_ZN20complex_dynamic_type3app17hc39eb30d0e2b3164E+0x104>
   260f4:	2803      	cmp	r0, #3
   260f6:	d11d      	bne.n	26134 <_ZN20complex_dynamic_type3app17hc39eb30d0e2b3164E+0x134>
   260f8:	4814      	ldr	r0, [pc, #80]	@ (2614c <_ZN20complex_dynamic_type3app17hc39eb30d0e2b3164E+0x14c>)
   260fa:	2103      	movs	r1, #3
   260fc:	2200      	movs	r2, #0
   260fe:	4613      	mov	r3, r2
   26100:	df03      	svc	3
   26102:	e004      	b.n	2610e <_ZN20complex_dynamic_type3app17hc39eb30d0e2b3164E+0x10e>
   26104:	4811      	ldr	r0, [pc, #68]	@ (2614c <_ZN20complex_dynamic_type3app17hc39eb30d0e2b3164E+0x14c>)
   26106:	2103      	movs	r1, #3
   26108:	2200      	movs	r2, #0
   2610a:	4613      	mov	r3, r2
   2610c:	df04      	svc	4
   2610e:	a805      	add	r0, sp, #20
   26110:	7804      	ldrb	r4, [r0, #0]
   26112:	1c68      	adds	r0, r5, #1
   26114:	2255      	movs	r2, #85	@ 0x55
   26116:	9902      	ldr	r1, [sp, #8]
   26118:	f004 fff4 	bl	2b104 <__aeabi_memcpy>
   2611c:	702e      	strb	r6, [r5, #0]
   2611e:	2c02      	cmp	r4, #2
   26120:	d006      	beq.n	26130 <_ZN20complex_dynamic_type3app17hc39eb30d0e2b3164E+0x130>
   26122:	480a      	ldr	r0, [pc, #40]	@ (2614c <_ZN20complex_dynamic_type3app17hc39eb30d0e2b3164E+0x14c>)
   26124:	2107      	movs	r1, #7
   26126:	2200      	movs	r2, #0
   26128:	4613      	mov	r3, r2
   2612a:	2c04      	cmp	r4, #4
   2612c:	d10a      	bne.n	26144 <_ZN20complex_dynamic_type3app17hc39eb30d0e2b3164E+0x144>
   2612e:	df04      	svc	4
   26130:	b033      	add	sp, #204	@ 0xcc
   26132:	bdf0      	pop	{r4, r5, r6, r7, pc}
   26134:	1c68      	adds	r0, r5, #1
   26136:	2255      	movs	r2, #85	@ 0x55
   26138:	9902      	ldr	r1, [sp, #8]
   2613a:	f004 ffe3 	bl	2b104 <__aeabi_memcpy>
   2613e:	702e      	strb	r6, [r5, #0]
   26140:	b033      	add	sp, #204	@ 0xcc
   26142:	bdf0      	pop	{r4, r5, r6, r7, pc}
   26144:	df03      	svc	3
   26146:	b033      	add	sp, #204	@ 0xcc
   26148:	bdf0      	pop	{r4, r5, r6, r7, pc}
   2614a:	46c0      	nop			@ (mov r8, r8)
   2614c:	0000178a 	.word	0x0000178a

00026150 <_ZN20complex_dynamic_type3app17hc8428d7d17a52a0eE>:
   26150:	b5f0      	push	{r4, r5, r6, r7, lr}
   26152:	af03      	add	r7, sp, #12
   26154:	b091      	sub	sp, #68	@ 0x44
   26156:	9003      	str	r0, [sp, #12]
   26158:	a804      	add	r0, sp, #16
   2615a:	2402      	movs	r4, #2
   2615c:	7004      	strb	r4, [r0, #0]
   2615e:	1c46      	adds	r6, r0, #1
   26160:	220d      	movs	r2, #13
   26162:	9202      	str	r2, [sp, #8]
   26164:	4630      	mov	r0, r6
   26166:	f004 ffcd 	bl	2b104 <__aeabi_memcpy>
   2616a:	ad08      	add	r5, sp, #32
   2616c:	1c68      	adds	r0, r5, #1
   2616e:	2121      	movs	r1, #33	@ 0x21
   26170:	9001      	str	r0, [sp, #4]
   26172:	f004 fe07 	bl	2ad84 <__aeabi_memclr>
   26176:	9400      	str	r4, [sp, #0]
   26178:	702c      	strb	r4, [r5, #0]
   2617a:	4848      	ldr	r0, [pc, #288]	@ (2629c <_ZN20complex_dynamic_type3app17hc8428d7d17a52a0eE+0x14c>)
   2617c:	2100      	movs	r1, #0
   2617e:	4632      	mov	r2, r6
   26180:	9b02      	ldr	r3, [sp, #8]
   26182:	df04      	svc	4
   26184:	2802      	cmp	r0, #2
   26186:	d104      	bne.n	26192 <_ZN20complex_dynamic_type3app17hc8428d7d17a52a0eE+0x42>
   26188:	2001      	movs	r0, #1
   2618a:	9a03      	ldr	r2, [sp, #12]
   2618c:	7010      	strb	r0, [r2, #0]
   2618e:	6051      	str	r1, [r2, #4]
   26190:	e02d      	b.n	261ee <_ZN20complex_dynamic_type3app17hc8428d7d17a52a0eE+0x9e>
   26192:	9d03      	ldr	r5, [sp, #12]
   26194:	a804      	add	r0, sp, #16
   26196:	2104      	movs	r1, #4
   26198:	7001      	strb	r1, [r0, #0]
   2619a:	4840      	ldr	r0, [pc, #256]	@ (2629c <_ZN20complex_dynamic_type3app17hc8428d7d17a52a0eE+0x14c>)
   2619c:	2100      	movs	r1, #0
   2619e:	2321      	movs	r3, #33	@ 0x21
   261a0:	9c01      	ldr	r4, [sp, #4]
   261a2:	4622      	mov	r2, r4
   261a4:	df03      	svc	3
   261a6:	2802      	cmp	r0, #2
   261a8:	d10e      	bne.n	261c8 <_ZN20complex_dynamic_type3app17hc8428d7d17a52a0eE+0x78>
   261aa:	2001      	movs	r0, #1
   261ac:	7028      	strb	r0, [r5, #0]
   261ae:	6069      	str	r1, [r5, #4]
   261b0:	a808      	add	r0, sp, #32
   261b2:	7800      	ldrb	r0, [r0, #0]
   261b4:	2802      	cmp	r0, #2
   261b6:	d01a      	beq.n	261ee <_ZN20complex_dynamic_type3app17hc8428d7d17a52a0eE+0x9e>
   261b8:	2803      	cmp	r0, #3
   261ba:	d013      	beq.n	261e4 <_ZN20complex_dynamic_type3app17hc8428d7d17a52a0eE+0x94>
   261bc:	4837      	ldr	r0, [pc, #220]	@ (2629c <_ZN20complex_dynamic_type3app17hc8428d7d17a52a0eE+0x14c>)
   261be:	2100      	movs	r1, #0
   261c0:	460a      	mov	r2, r1
   261c2:	460b      	mov	r3, r1
   261c4:	df04      	svc	4
   261c6:	e012      	b.n	261ee <_ZN20complex_dynamic_type3app17hc8428d7d17a52a0eE+0x9e>
   261c8:	a808      	add	r0, sp, #32
   261ca:	2103      	movs	r1, #3
   261cc:	7001      	strb	r1, [r0, #0]
   261ce:	4833      	ldr	r0, [pc, #204]	@ (2629c <_ZN20complex_dynamic_type3app17hc8428d7d17a52a0eE+0x14c>)
   261d0:	2600      	movs	r6, #0
   261d2:	4631      	mov	r1, r6
   261d4:	4632      	mov	r2, r6
   261d6:	4633      	mov	r3, r6
   261d8:	df02      	svc	2
   261da:	2880      	cmp	r0, #128	@ 0x80
   261dc:	d21b      	bcs.n	26216 <_ZN20complex_dynamic_type3app17hc8428d7d17a52a0eE+0xc6>
   261de:	2001      	movs	r0, #1
   261e0:	7028      	strb	r0, [r5, #0]
   261e2:	6069      	str	r1, [r5, #4]
   261e4:	482d      	ldr	r0, [pc, #180]	@ (2629c <_ZN20complex_dynamic_type3app17hc8428d7d17a52a0eE+0x14c>)
   261e6:	2100      	movs	r1, #0
   261e8:	460a      	mov	r2, r1
   261ea:	460b      	mov	r3, r1
   261ec:	df03      	svc	3
   261ee:	a804      	add	r0, sp, #16
   261f0:	7800      	ldrb	r0, [r0, #0]
   261f2:	2802      	cmp	r0, #2
   261f4:	d045      	beq.n	26282 <_ZN20complex_dynamic_type3app17hc8428d7d17a52a0eE+0x132>
   261f6:	2804      	cmp	r0, #4
   261f8:	d106      	bne.n	26208 <_ZN20complex_dynamic_type3app17hc8428d7d17a52a0eE+0xb8>
   261fa:	4828      	ldr	r0, [pc, #160]	@ (2629c <_ZN20complex_dynamic_type3app17hc8428d7d17a52a0eE+0x14c>)
   261fc:	2100      	movs	r1, #0
   261fe:	460a      	mov	r2, r1
   26200:	460b      	mov	r3, r1
   26202:	df04      	svc	4
   26204:	b011      	add	sp, #68	@ 0x44
   26206:	bdf0      	pop	{r4, r5, r6, r7, pc}
   26208:	4824      	ldr	r0, [pc, #144]	@ (2629c <_ZN20complex_dynamic_type3app17hc8428d7d17a52a0eE+0x14c>)
   2620a:	2100      	movs	r1, #0
   2620c:	460a      	mov	r2, r1
   2620e:	460b      	mov	r3, r1
   26210:	df03      	svc	3
   26212:	b011      	add	sp, #68	@ 0x44
   26214:	bdf0      	pop	{r4, r5, r6, r7, pc}
   26216:	a804      	add	r0, sp, #16
   26218:	7800      	ldrb	r0, [r0, #0]
   2621a:	2802      	cmp	r0, #2
   2621c:	d00c      	beq.n	26238 <_ZN20complex_dynamic_type3app17hc8428d7d17a52a0eE+0xe8>
   2621e:	2803      	cmp	r0, #3
   26220:	d105      	bne.n	2622e <_ZN20complex_dynamic_type3app17hc8428d7d17a52a0eE+0xde>
   26222:	481e      	ldr	r0, [pc, #120]	@ (2629c <_ZN20complex_dynamic_type3app17hc8428d7d17a52a0eE+0x14c>)
   26224:	2100      	movs	r1, #0
   26226:	460a      	mov	r2, r1
   26228:	460b      	mov	r3, r1
   2622a:	df03      	svc	3
   2622c:	e004      	b.n	26238 <_ZN20complex_dynamic_type3app17hc8428d7d17a52a0eE+0xe8>
   2622e:	481b      	ldr	r0, [pc, #108]	@ (2629c <_ZN20complex_dynamic_type3app17hc8428d7d17a52a0eE+0x14c>)
   26230:	2100      	movs	r1, #0
   26232:	460a      	mov	r2, r1
   26234:	460b      	mov	r3, r1
   26236:	df04      	svc	4
   26238:	a804      	add	r0, sp, #16
   2623a:	9900      	ldr	r1, [sp, #0]
   2623c:	7001      	strb	r1, [r0, #0]
   2623e:	a808      	add	r0, sp, #32
   26240:	7800      	ldrb	r0, [r0, #0]
   26242:	2804      	cmp	r0, #4
   26244:	d007      	beq.n	26256 <_ZN20complex_dynamic_type3app17hc8428d7d17a52a0eE+0x106>
   26246:	2803      	cmp	r0, #3
   26248:	d11d      	bne.n	26286 <_ZN20complex_dynamic_type3app17hc8428d7d17a52a0eE+0x136>
   2624a:	4814      	ldr	r0, [pc, #80]	@ (2629c <_ZN20complex_dynamic_type3app17hc8428d7d17a52a0eE+0x14c>)
   2624c:	2100      	movs	r1, #0
   2624e:	460a      	mov	r2, r1
   26250:	460b      	mov	r3, r1
   26252:	df03      	svc	3
   26254:	e004      	b.n	26260 <_ZN20complex_dynamic_type3app17hc8428d7d17a52a0eE+0x110>
   26256:	4811      	ldr	r0, [pc, #68]	@ (2629c <_ZN20complex_dynamic_type3app17hc8428d7d17a52a0eE+0x14c>)
   26258:	2100      	movs	r1, #0
   2625a:	460a      	mov	r2, r1
   2625c:	460b      	mov	r3, r1
   2625e:	df04      	svc	4
   26260:	a804      	add	r0, sp, #16
   26262:	7804      	ldrb	r4, [r0, #0]
   26264:	1c68      	adds	r0, r5, #1
   26266:	2221      	movs	r2, #33	@ 0x21
   26268:	9901      	ldr	r1, [sp, #4]
   2626a:	f004 ff4b 	bl	2b104 <__aeabi_memcpy>
   2626e:	702e      	strb	r6, [r5, #0]
   26270:	2c02      	cmp	r4, #2
   26272:	d006      	beq.n	26282 <_ZN20complex_dynamic_type3app17hc8428d7d17a52a0eE+0x132>
   26274:	4809      	ldr	r0, [pc, #36]	@ (2629c <_ZN20complex_dynamic_type3app17hc8428d7d17a52a0eE+0x14c>)
   26276:	2100      	movs	r1, #0
   26278:	460a      	mov	r2, r1
   2627a:	460b      	mov	r3, r1
   2627c:	2c04      	cmp	r4, #4
   2627e:	d10a      	bne.n	26296 <_ZN20complex_dynamic_type3app17hc8428d7d17a52a0eE+0x146>
   26280:	df04      	svc	4
   26282:	b011      	add	sp, #68	@ 0x44
   26284:	bdf0      	pop	{r4, r5, r6, r7, pc}
   26286:	1c68      	adds	r0, r5, #1
   26288:	2221      	movs	r2, #33	@ 0x21
   2628a:	4621      	mov	r1, r4
   2628c:	f004 ff3a 	bl	2b104 <__aeabi_memcpy>
   26290:	702e      	strb	r6, [r5, #0]
   26292:	b011      	add	sp, #68	@ 0x44
   26294:	bdf0      	pop	{r4, r5, r6, r7, pc}
   26296:	df03      	svc	3
   26298:	b011      	add	sp, #68	@ 0x44
   2629a:	bdf0      	pop	{r4, r5, r6, r7, pc}
   2629c:	000016b0 	.word	0x000016b0

000262a0 <_ZN20complex_dynamic_type3app17hc871a0bae2ea7a4eE>:
   262a0:	b5f0      	push	{r4, r5, r6, r7, lr}
   262a2:	af03      	add	r7, sp, #12
   262a4:	b0a9      	sub	sp, #164	@ 0xa4
   262a6:	9004      	str	r0, [sp, #16]
   262a8:	a805      	add	r0, sp, #20
   262aa:	2402      	movs	r4, #2
   262ac:	7004      	strb	r4, [r0, #0]
   262ae:	1c46      	adds	r6, r0, #1
   262b0:	224d      	movs	r2, #77	@ 0x4d
   262b2:	9203      	str	r2, [sp, #12]
   262b4:	4630      	mov	r0, r6
   262b6:	f004 ff25 	bl	2b104 <__aeabi_memcpy>
   262ba:	ad19      	add	r5, sp, #100	@ 0x64
   262bc:	1c68      	adds	r0, r5, #1
   262be:	213c      	movs	r1, #60	@ 0x3c
   262c0:	9002      	str	r0, [sp, #8]
   262c2:	f004 fd5f 	bl	2ad84 <__aeabi_memclr>
   262c6:	9401      	str	r4, [sp, #4]
   262c8:	702c      	strb	r4, [r5, #0]
   262ca:	4848      	ldr	r0, [pc, #288]	@ (263ec <_ZN20complex_dynamic_type3app17hc871a0bae2ea7a4eE+0x14c>)
   262cc:	2504      	movs	r5, #4
   262ce:	4629      	mov	r1, r5
   262d0:	4632      	mov	r2, r6
   262d2:	9b03      	ldr	r3, [sp, #12]
   262d4:	df04      	svc	4
   262d6:	2802      	cmp	r0, #2
   262d8:	d104      	bne.n	262e4 <_ZN20complex_dynamic_type3app17hc871a0bae2ea7a4eE+0x44>
   262da:	2001      	movs	r0, #1
   262dc:	9a04      	ldr	r2, [sp, #16]
   262de:	7010      	strb	r0, [r2, #0]
   262e0:	6051      	str	r1, [r2, #4]
   262e2:	e02c      	b.n	2633e <_ZN20complex_dynamic_type3app17hc871a0bae2ea7a4eE+0x9e>
   262e4:	9c04      	ldr	r4, [sp, #16]
   262e6:	a805      	add	r0, sp, #20
   262e8:	7005      	strb	r5, [r0, #0]
   262ea:	4840      	ldr	r0, [pc, #256]	@ (263ec <_ZN20complex_dynamic_type3app17hc871a0bae2ea7a4eE+0x14c>)
   262ec:	2109      	movs	r1, #9
   262ee:	233c      	movs	r3, #60	@ 0x3c
   262f0:	9a02      	ldr	r2, [sp, #8]
   262f2:	df03      	svc	3
   262f4:	2802      	cmp	r0, #2
   262f6:	d10e      	bne.n	26316 <_ZN20complex_dynamic_type3app17hc871a0bae2ea7a4eE+0x76>
   262f8:	2001      	movs	r0, #1
   262fa:	7020      	strb	r0, [r4, #0]
   262fc:	6061      	str	r1, [r4, #4]
   262fe:	a819      	add	r0, sp, #100	@ 0x64
   26300:	7800      	ldrb	r0, [r0, #0]
   26302:	2802      	cmp	r0, #2
   26304:	d01b      	beq.n	2633e <_ZN20complex_dynamic_type3app17hc871a0bae2ea7a4eE+0x9e>
   26306:	2803      	cmp	r0, #3
   26308:	d014      	beq.n	26334 <_ZN20complex_dynamic_type3app17hc871a0bae2ea7a4eE+0x94>
   2630a:	4838      	ldr	r0, [pc, #224]	@ (263ec <_ZN20complex_dynamic_type3app17hc871a0bae2ea7a4eE+0x14c>)
   2630c:	2109      	movs	r1, #9
   2630e:	2200      	movs	r2, #0
   26310:	4613      	mov	r3, r2
   26312:	df04      	svc	4
   26314:	e013      	b.n	2633e <_ZN20complex_dynamic_type3app17hc871a0bae2ea7a4eE+0x9e>
   26316:	a819      	add	r0, sp, #100	@ 0x64
   26318:	2103      	movs	r1, #3
   2631a:	7001      	strb	r1, [r0, #0]
   2631c:	4833      	ldr	r0, [pc, #204]	@ (263ec <_ZN20complex_dynamic_type3app17hc871a0bae2ea7a4eE+0x14c>)
   2631e:	2104      	movs	r1, #4
   26320:	2209      	movs	r2, #9
   26322:	2600      	movs	r6, #0
   26324:	4633      	mov	r3, r6
   26326:	df02      	svc	2
   26328:	2880      	cmp	r0, #128	@ 0x80
   2632a:	4625      	mov	r5, r4
   2632c:	d21b      	bcs.n	26366 <_ZN20complex_dynamic_type3app17hc871a0bae2ea7a4eE+0xc6>
   2632e:	2001      	movs	r0, #1
   26330:	7028      	strb	r0, [r5, #0]
   26332:	6069      	str	r1, [r5, #4]
   26334:	482d      	ldr	r0, [pc, #180]	@ (263ec <_ZN20complex_dynamic_type3app17hc871a0bae2ea7a4eE+0x14c>)
   26336:	2109      	movs	r1, #9
   26338:	2200      	movs	r2, #0
   2633a:	4613      	mov	r3, r2
   2633c:	df03      	svc	3
   2633e:	a805      	add	r0, sp, #20
   26340:	7800      	ldrb	r0, [r0, #0]
   26342:	2802      	cmp	r0, #2
   26344:	d045      	beq.n	263d2 <_ZN20complex_dynamic_type3app17hc871a0bae2ea7a4eE+0x132>
   26346:	2804      	cmp	r0, #4
   26348:	d106      	bne.n	26358 <_ZN20complex_dynamic_type3app17hc871a0bae2ea7a4eE+0xb8>
   2634a:	4828      	ldr	r0, [pc, #160]	@ (263ec <_ZN20complex_dynamic_type3app17hc871a0bae2ea7a4eE+0x14c>)
   2634c:	2104      	movs	r1, #4
   2634e:	2200      	movs	r2, #0
   26350:	4613      	mov	r3, r2
   26352:	df04      	svc	4
   26354:	b029      	add	sp, #164	@ 0xa4
   26356:	bdf0      	pop	{r4, r5, r6, r7, pc}
   26358:	4824      	ldr	r0, [pc, #144]	@ (263ec <_ZN20complex_dynamic_type3app17hc871a0bae2ea7a4eE+0x14c>)
   2635a:	2104      	movs	r1, #4
   2635c:	2200      	movs	r2, #0
   2635e:	4613      	mov	r3, r2
   26360:	df03      	svc	3
   26362:	b029      	add	sp, #164	@ 0xa4
   26364:	bdf0      	pop	{r4, r5, r6, r7, pc}
   26366:	a805      	add	r0, sp, #20
   26368:	7800      	ldrb	r0, [r0, #0]
   2636a:	2802      	cmp	r0, #2
   2636c:	d00c      	beq.n	26388 <_ZN20complex_dynamic_type3app17hc871a0bae2ea7a4eE+0xe8>
   2636e:	2803      	cmp	r0, #3
   26370:	d105      	bne.n	2637e <_ZN20complex_dynamic_type3app17hc871a0bae2ea7a4eE+0xde>
   26372:	481e      	ldr	r0, [pc, #120]	@ (263ec <_ZN20complex_dynamic_type3app17hc871a0bae2ea7a4eE+0x14c>)
   26374:	2104      	movs	r1, #4
   26376:	2200      	movs	r2, #0
   26378:	4613      	mov	r3, r2
   2637a:	df03      	svc	3
   2637c:	e004      	b.n	26388 <_ZN20complex_dynamic_type3app17hc871a0bae2ea7a4eE+0xe8>
   2637e:	481b      	ldr	r0, [pc, #108]	@ (263ec <_ZN20complex_dynamic_type3app17hc871a0bae2ea7a4eE+0x14c>)
   26380:	2104      	movs	r1, #4
   26382:	2200      	movs	r2, #0
   26384:	4613      	mov	r3, r2
   26386:	df04      	svc	4
   26388:	a805      	add	r0, sp, #20
   2638a:	9901      	ldr	r1, [sp, #4]
   2638c:	7001      	strb	r1, [r0, #0]
   2638e:	a819      	add	r0, sp, #100	@ 0x64
   26390:	7800      	ldrb	r0, [r0, #0]
   26392:	2804      	cmp	r0, #4
   26394:	d007      	beq.n	263a6 <_ZN20complex_dynamic_type3app17hc871a0bae2ea7a4eE+0x106>
   26396:	2803      	cmp	r0, #3
   26398:	d11d      	bne.n	263d6 <_ZN20complex_dynamic_type3app17hc871a0bae2ea7a4eE+0x136>
   2639a:	4814      	ldr	r0, [pc, #80]	@ (263ec <_ZN20complex_dynamic_type3app17hc871a0bae2ea7a4eE+0x14c>)
   2639c:	2109      	movs	r1, #9
   2639e:	2200      	movs	r2, #0
   263a0:	4613      	mov	r3, r2
   263a2:	df03      	svc	3
   263a4:	e004      	b.n	263b0 <_ZN20complex_dynamic_type3app17hc871a0bae2ea7a4eE+0x110>
   263a6:	4811      	ldr	r0, [pc, #68]	@ (263ec <_ZN20complex_dynamic_type3app17hc871a0bae2ea7a4eE+0x14c>)
   263a8:	2109      	movs	r1, #9
   263aa:	2200      	movs	r2, #0
   263ac:	4613      	mov	r3, r2
   263ae:	df04      	svc	4
   263b0:	a805      	add	r0, sp, #20
   263b2:	7804      	ldrb	r4, [r0, #0]
   263b4:	1c68      	adds	r0, r5, #1
   263b6:	223c      	movs	r2, #60	@ 0x3c
   263b8:	9902      	ldr	r1, [sp, #8]
   263ba:	f004 fea3 	bl	2b104 <__aeabi_memcpy>
   263be:	702e      	strb	r6, [r5, #0]
   263c0:	2c02      	cmp	r4, #2
   263c2:	d006      	beq.n	263d2 <_ZN20complex_dynamic_type3app17hc871a0bae2ea7a4eE+0x132>
   263c4:	4809      	ldr	r0, [pc, #36]	@ (263ec <_ZN20complex_dynamic_type3app17hc871a0bae2ea7a4eE+0x14c>)
   263c6:	2104      	movs	r1, #4
   263c8:	2200      	movs	r2, #0
   263ca:	4613      	mov	r3, r2
   263cc:	2c04      	cmp	r4, #4
   263ce:	d10a      	bne.n	263e6 <_ZN20complex_dynamic_type3app17hc871a0bae2ea7a4eE+0x146>
   263d0:	df04      	svc	4
   263d2:	b029      	add	sp, #164	@ 0xa4
   263d4:	bdf0      	pop	{r4, r5, r6, r7, pc}
   263d6:	1c68      	adds	r0, r5, #1
   263d8:	223c      	movs	r2, #60	@ 0x3c
   263da:	9902      	ldr	r1, [sp, #8]
   263dc:	f004 fe92 	bl	2b104 <__aeabi_memcpy>
   263e0:	702e      	strb	r6, [r5, #0]
   263e2:	b029      	add	sp, #164	@ 0xa4
   263e4:	bdf0      	pop	{r4, r5, r6, r7, pc}
   263e6:	df03      	svc	3
   263e8:	b029      	add	sp, #164	@ 0xa4
   263ea:	bdf0      	pop	{r4, r5, r6, r7, pc}
   263ec:	000021ab 	.word	0x000021ab

000263f0 <_ZN20complex_dynamic_type3app17hca34f8b18389f16eE>:
   263f0:	b5f0      	push	{r4, r5, r6, r7, lr}
   263f2:	af03      	add	r7, sp, #12
   263f4:	b09f      	sub	sp, #124	@ 0x7c
   263f6:	9004      	str	r0, [sp, #16]
   263f8:	a805      	add	r0, sp, #20
   263fa:	2402      	movs	r4, #2
   263fc:	7004      	strb	r4, [r0, #0]
   263fe:	1c40      	adds	r0, r0, #1
   26400:	9003      	str	r0, [sp, #12]
   26402:	2532      	movs	r5, #50	@ 0x32
   26404:	462a      	mov	r2, r5
   26406:	f004 fe7d 	bl	2b104 <__aeabi_memcpy>
   2640a:	ae12      	add	r6, sp, #72	@ 0x48
   2640c:	1c70      	adds	r0, r6, #1
   2640e:	9002      	str	r0, [sp, #8]
   26410:	4629      	mov	r1, r5
   26412:	f004 fcb7 	bl	2ad84 <__aeabi_memclr>
   26416:	9401      	str	r4, [sp, #4]
   26418:	7034      	strb	r4, [r6, #0]
   2641a:	4848      	ldr	r0, [pc, #288]	@ (2653c <_ZN20complex_dynamic_type3app17hca34f8b18389f16eE+0x14c>)
   2641c:	2603      	movs	r6, #3
   2641e:	4631      	mov	r1, r6
   26420:	9a03      	ldr	r2, [sp, #12]
   26422:	462b      	mov	r3, r5
   26424:	df04      	svc	4
   26426:	2802      	cmp	r0, #2
   26428:	d104      	bne.n	26434 <_ZN20complex_dynamic_type3app17hca34f8b18389f16eE+0x44>
   2642a:	2001      	movs	r0, #1
   2642c:	9a04      	ldr	r2, [sp, #16]
   2642e:	7010      	strb	r0, [r2, #0]
   26430:	6051      	str	r1, [r2, #4]
   26432:	e02c      	b.n	2648e <_ZN20complex_dynamic_type3app17hca34f8b18389f16eE+0x9e>
   26434:	9d04      	ldr	r5, [sp, #16]
   26436:	a805      	add	r0, sp, #20
   26438:	2104      	movs	r1, #4
   2643a:	7001      	strb	r1, [r0, #0]
   2643c:	483f      	ldr	r0, [pc, #252]	@ (2653c <_ZN20complex_dynamic_type3app17hca34f8b18389f16eE+0x14c>)
   2643e:	2401      	movs	r4, #1
   26440:	2332      	movs	r3, #50	@ 0x32
   26442:	4621      	mov	r1, r4
   26444:	9a02      	ldr	r2, [sp, #8]
   26446:	df03      	svc	3
   26448:	2802      	cmp	r0, #2
   2644a:	d10d      	bne.n	26468 <_ZN20complex_dynamic_type3app17hca34f8b18389f16eE+0x78>
   2644c:	702c      	strb	r4, [r5, #0]
   2644e:	6069      	str	r1, [r5, #4]
   26450:	a812      	add	r0, sp, #72	@ 0x48
   26452:	7800      	ldrb	r0, [r0, #0]
   26454:	2802      	cmp	r0, #2
   26456:	d01a      	beq.n	2648e <_ZN20complex_dynamic_type3app17hca34f8b18389f16eE+0x9e>
   26458:	2803      	cmp	r0, #3
   2645a:	d013      	beq.n	26484 <_ZN20complex_dynamic_type3app17hca34f8b18389f16eE+0x94>
   2645c:	4837      	ldr	r0, [pc, #220]	@ (2653c <_ZN20complex_dynamic_type3app17hca34f8b18389f16eE+0x14c>)
   2645e:	2101      	movs	r1, #1
   26460:	2200      	movs	r2, #0
   26462:	4613      	mov	r3, r2
   26464:	df04      	svc	4
   26466:	e012      	b.n	2648e <_ZN20complex_dynamic_type3app17hca34f8b18389f16eE+0x9e>
   26468:	a812      	add	r0, sp, #72	@ 0x48
   2646a:	7006      	strb	r6, [r0, #0]
   2646c:	4833      	ldr	r0, [pc, #204]	@ (2653c <_ZN20complex_dynamic_type3app17hca34f8b18389f16eE+0x14c>)
   2646e:	2401      	movs	r4, #1
   26470:	2200      	movs	r2, #0
   26472:	4631      	mov	r1, r6
   26474:	4616      	mov	r6, r2
   26476:	4622      	mov	r2, r4
   26478:	4633      	mov	r3, r6
   2647a:	df02      	svc	2
   2647c:	2880      	cmp	r0, #128	@ 0x80
   2647e:	d21a      	bcs.n	264b6 <_ZN20complex_dynamic_type3app17hca34f8b18389f16eE+0xc6>
   26480:	702c      	strb	r4, [r5, #0]
   26482:	6069      	str	r1, [r5, #4]
   26484:	482d      	ldr	r0, [pc, #180]	@ (2653c <_ZN20complex_dynamic_type3app17hca34f8b18389f16eE+0x14c>)
   26486:	2101      	movs	r1, #1
   26488:	2200      	movs	r2, #0
   2648a:	4613      	mov	r3, r2
   2648c:	df03      	svc	3
   2648e:	a805      	add	r0, sp, #20
   26490:	7800      	ldrb	r0, [r0, #0]
   26492:	2802      	cmp	r0, #2
   26494:	d045      	beq.n	26522 <_ZN20complex_dynamic_type3app17hca34f8b18389f16eE+0x132>
   26496:	2804      	cmp	r0, #4
   26498:	d106      	bne.n	264a8 <_ZN20complex_dynamic_type3app17hca34f8b18389f16eE+0xb8>
   2649a:	4828      	ldr	r0, [pc, #160]	@ (2653c <_ZN20complex_dynamic_type3app17hca34f8b18389f16eE+0x14c>)
   2649c:	2103      	movs	r1, #3
   2649e:	2200      	movs	r2, #0
   264a0:	4613      	mov	r3, r2
   264a2:	df04      	svc	4
   264a4:	b01f      	add	sp, #124	@ 0x7c
   264a6:	bdf0      	pop	{r4, r5, r6, r7, pc}
   264a8:	4824      	ldr	r0, [pc, #144]	@ (2653c <_ZN20complex_dynamic_type3app17hca34f8b18389f16eE+0x14c>)
   264aa:	2103      	movs	r1, #3
   264ac:	2200      	movs	r2, #0
   264ae:	4613      	mov	r3, r2
   264b0:	df03      	svc	3
   264b2:	b01f      	add	sp, #124	@ 0x7c
   264b4:	bdf0      	pop	{r4, r5, r6, r7, pc}
   264b6:	a805      	add	r0, sp, #20
   264b8:	7800      	ldrb	r0, [r0, #0]
   264ba:	2802      	cmp	r0, #2
   264bc:	d00c      	beq.n	264d8 <_ZN20complex_dynamic_type3app17hca34f8b18389f16eE+0xe8>
   264be:	2803      	cmp	r0, #3
   264c0:	d105      	bne.n	264ce <_ZN20complex_dynamic_type3app17hca34f8b18389f16eE+0xde>
   264c2:	481e      	ldr	r0, [pc, #120]	@ (2653c <_ZN20complex_dynamic_type3app17hca34f8b18389f16eE+0x14c>)
   264c4:	2103      	movs	r1, #3
   264c6:	2200      	movs	r2, #0
   264c8:	4613      	mov	r3, r2
   264ca:	df03      	svc	3
   264cc:	e004      	b.n	264d8 <_ZN20complex_dynamic_type3app17hca34f8b18389f16eE+0xe8>
   264ce:	481b      	ldr	r0, [pc, #108]	@ (2653c <_ZN20complex_dynamic_type3app17hca34f8b18389f16eE+0x14c>)
   264d0:	2103      	movs	r1, #3
   264d2:	2200      	movs	r2, #0
   264d4:	4613      	mov	r3, r2
   264d6:	df04      	svc	4
   264d8:	a805      	add	r0, sp, #20
   264da:	9901      	ldr	r1, [sp, #4]
   264dc:	7001      	strb	r1, [r0, #0]
   264de:	a812      	add	r0, sp, #72	@ 0x48
   264e0:	7800      	ldrb	r0, [r0, #0]
   264e2:	2804      	cmp	r0, #4
   264e4:	d007      	beq.n	264f6 <_ZN20complex_dynamic_type3app17hca34f8b18389f16eE+0x106>
   264e6:	2803      	cmp	r0, #3
   264e8:	d11d      	bne.n	26526 <_ZN20complex_dynamic_type3app17hca34f8b18389f16eE+0x136>
   264ea:	4814      	ldr	r0, [pc, #80]	@ (2653c <_ZN20complex_dynamic_type3app17hca34f8b18389f16eE+0x14c>)
   264ec:	2101      	movs	r1, #1
   264ee:	2200      	movs	r2, #0
   264f0:	4613      	mov	r3, r2
   264f2:	df03      	svc	3
   264f4:	e004      	b.n	26500 <_ZN20complex_dynamic_type3app17hca34f8b18389f16eE+0x110>
   264f6:	4811      	ldr	r0, [pc, #68]	@ (2653c <_ZN20complex_dynamic_type3app17hca34f8b18389f16eE+0x14c>)
   264f8:	2101      	movs	r1, #1
   264fa:	2200      	movs	r2, #0
   264fc:	4613      	mov	r3, r2
   264fe:	df04      	svc	4
   26500:	a805      	add	r0, sp, #20
   26502:	7804      	ldrb	r4, [r0, #0]
   26504:	1c68      	adds	r0, r5, #1
   26506:	2232      	movs	r2, #50	@ 0x32
   26508:	9902      	ldr	r1, [sp, #8]
   2650a:	f004 fdfb 	bl	2b104 <__aeabi_memcpy>
   2650e:	702e      	strb	r6, [r5, #0]
   26510:	2c02      	cmp	r4, #2
   26512:	d006      	beq.n	26522 <_ZN20complex_dynamic_type3app17hca34f8b18389f16eE+0x132>
   26514:	4809      	ldr	r0, [pc, #36]	@ (2653c <_ZN20complex_dynamic_type3app17hca34f8b18389f16eE+0x14c>)
   26516:	2103      	movs	r1, #3
   26518:	2200      	movs	r2, #0
   2651a:	4613      	mov	r3, r2
   2651c:	2c04      	cmp	r4, #4
   2651e:	d10a      	bne.n	26536 <_ZN20complex_dynamic_type3app17hca34f8b18389f16eE+0x146>
   26520:	df04      	svc	4
   26522:	b01f      	add	sp, #124	@ 0x7c
   26524:	bdf0      	pop	{r4, r5, r6, r7, pc}
   26526:	9902      	ldr	r1, [sp, #8]
   26528:	1c68      	adds	r0, r5, #1
   2652a:	2232      	movs	r2, #50	@ 0x32
   2652c:	f004 fdea 	bl	2b104 <__aeabi_memcpy>
   26530:	702e      	strb	r6, [r5, #0]
   26532:	b01f      	add	sp, #124	@ 0x7c
   26534:	bdf0      	pop	{r4, r5, r6, r7, pc}
   26536:	df03      	svc	3
   26538:	b01f      	add	sp, #124	@ 0x7c
   2653a:	bdf0      	pop	{r4, r5, r6, r7, pc}
   2653c:	00001f07 	.word	0x00001f07

00026540 <_ZN20complex_dynamic_type3app17hcb6decff47fec5bfE>:
   26540:	b5f0      	push	{r4, r5, r6, r7, lr}
   26542:	af03      	add	r7, sp, #12
   26544:	b0a7      	sub	sp, #156	@ 0x9c
   26546:	9003      	str	r0, [sp, #12]
   26548:	a804      	add	r0, sp, #16
   2654a:	2402      	movs	r4, #2
   2654c:	7004      	strb	r4, [r0, #0]
   2654e:	1c46      	adds	r6, r0, #1
   26550:	2263      	movs	r2, #99	@ 0x63
   26552:	9202      	str	r2, [sp, #8]
   26554:	4630      	mov	r0, r6
   26556:	f004 fdd5 	bl	2b104 <__aeabi_memcpy>
   2655a:	ad1d      	add	r5, sp, #116	@ 0x74
   2655c:	1c68      	adds	r0, r5, #1
   2655e:	2127      	movs	r1, #39	@ 0x27
   26560:	9001      	str	r0, [sp, #4]
   26562:	f004 fc0f 	bl	2ad84 <__aeabi_memclr>
   26566:	9400      	str	r4, [sp, #0]
   26568:	702c      	strb	r4, [r5, #0]
   2656a:	4848      	ldr	r0, [pc, #288]	@ (2668c <_ZN20complex_dynamic_type3app17hcb6decff47fec5bfE+0x14c>)
   2656c:	2107      	movs	r1, #7
   2656e:	4632      	mov	r2, r6
   26570:	9b02      	ldr	r3, [sp, #8]
   26572:	df04      	svc	4
   26574:	2802      	cmp	r0, #2
   26576:	d104      	bne.n	26582 <_ZN20complex_dynamic_type3app17hcb6decff47fec5bfE+0x42>
   26578:	2001      	movs	r0, #1
   2657a:	9a03      	ldr	r2, [sp, #12]
   2657c:	7010      	strb	r0, [r2, #0]
   2657e:	6051      	str	r1, [r2, #4]
   26580:	e02d      	b.n	265de <_ZN20complex_dynamic_type3app17hcb6decff47fec5bfE+0x9e>
   26582:	9d03      	ldr	r5, [sp, #12]
   26584:	a804      	add	r0, sp, #16
   26586:	2104      	movs	r1, #4
   26588:	7001      	strb	r1, [r0, #0]
   2658a:	4840      	ldr	r0, [pc, #256]	@ (2668c <_ZN20complex_dynamic_type3app17hcb6decff47fec5bfE+0x14c>)
   2658c:	2100      	movs	r1, #0
   2658e:	2327      	movs	r3, #39	@ 0x27
   26590:	9c01      	ldr	r4, [sp, #4]
   26592:	4622      	mov	r2, r4
   26594:	df03      	svc	3
   26596:	2802      	cmp	r0, #2
   26598:	d10e      	bne.n	265b8 <_ZN20complex_dynamic_type3app17hcb6decff47fec5bfE+0x78>
   2659a:	2001      	movs	r0, #1
   2659c:	7028      	strb	r0, [r5, #0]
   2659e:	6069      	str	r1, [r5, #4]
   265a0:	a81d      	add	r0, sp, #116	@ 0x74
   265a2:	7800      	ldrb	r0, [r0, #0]
   265a4:	2802      	cmp	r0, #2
   265a6:	d01a      	beq.n	265de <_ZN20complex_dynamic_type3app17hcb6decff47fec5bfE+0x9e>
   265a8:	2803      	cmp	r0, #3
   265aa:	d013      	beq.n	265d4 <_ZN20complex_dynamic_type3app17hcb6decff47fec5bfE+0x94>
   265ac:	4837      	ldr	r0, [pc, #220]	@ (2668c <_ZN20complex_dynamic_type3app17hcb6decff47fec5bfE+0x14c>)
   265ae:	2100      	movs	r1, #0
   265b0:	460a      	mov	r2, r1
   265b2:	460b      	mov	r3, r1
   265b4:	df04      	svc	4
   265b6:	e012      	b.n	265de <_ZN20complex_dynamic_type3app17hcb6decff47fec5bfE+0x9e>
   265b8:	a81d      	add	r0, sp, #116	@ 0x74
   265ba:	2103      	movs	r1, #3
   265bc:	7001      	strb	r1, [r0, #0]
   265be:	4833      	ldr	r0, [pc, #204]	@ (2668c <_ZN20complex_dynamic_type3app17hcb6decff47fec5bfE+0x14c>)
   265c0:	2107      	movs	r1, #7
   265c2:	2600      	movs	r6, #0
   265c4:	4632      	mov	r2, r6
   265c6:	4633      	mov	r3, r6
   265c8:	df02      	svc	2
   265ca:	2880      	cmp	r0, #128	@ 0x80
   265cc:	d21b      	bcs.n	26606 <_ZN20complex_dynamic_type3app17hcb6decff47fec5bfE+0xc6>
   265ce:	2001      	movs	r0, #1
   265d0:	7028      	strb	r0, [r5, #0]
   265d2:	6069      	str	r1, [r5, #4]
   265d4:	482d      	ldr	r0, [pc, #180]	@ (2668c <_ZN20complex_dynamic_type3app17hcb6decff47fec5bfE+0x14c>)
   265d6:	2100      	movs	r1, #0
   265d8:	460a      	mov	r2, r1
   265da:	460b      	mov	r3, r1
   265dc:	df03      	svc	3
   265de:	a804      	add	r0, sp, #16
   265e0:	7800      	ldrb	r0, [r0, #0]
   265e2:	2802      	cmp	r0, #2
   265e4:	d045      	beq.n	26672 <_ZN20complex_dynamic_type3app17hcb6decff47fec5bfE+0x132>
   265e6:	2804      	cmp	r0, #4
   265e8:	d106      	bne.n	265f8 <_ZN20complex_dynamic_type3app17hcb6decff47fec5bfE+0xb8>
   265ea:	4828      	ldr	r0, [pc, #160]	@ (2668c <_ZN20complex_dynamic_type3app17hcb6decff47fec5bfE+0x14c>)
   265ec:	2107      	movs	r1, #7
   265ee:	2200      	movs	r2, #0
   265f0:	4613      	mov	r3, r2
   265f2:	df04      	svc	4
   265f4:	b027      	add	sp, #156	@ 0x9c
   265f6:	bdf0      	pop	{r4, r5, r6, r7, pc}
   265f8:	4824      	ldr	r0, [pc, #144]	@ (2668c <_ZN20complex_dynamic_type3app17hcb6decff47fec5bfE+0x14c>)
   265fa:	2107      	movs	r1, #7
   265fc:	2200      	movs	r2, #0
   265fe:	4613      	mov	r3, r2
   26600:	df03      	svc	3
   26602:	b027      	add	sp, #156	@ 0x9c
   26604:	bdf0      	pop	{r4, r5, r6, r7, pc}
   26606:	a804      	add	r0, sp, #16
   26608:	7800      	ldrb	r0, [r0, #0]
   2660a:	2802      	cmp	r0, #2
   2660c:	d00c      	beq.n	26628 <_ZN20complex_dynamic_type3app17hcb6decff47fec5bfE+0xe8>
   2660e:	2803      	cmp	r0, #3
   26610:	d105      	bne.n	2661e <_ZN20complex_dynamic_type3app17hcb6decff47fec5bfE+0xde>
   26612:	481e      	ldr	r0, [pc, #120]	@ (2668c <_ZN20complex_dynamic_type3app17hcb6decff47fec5bfE+0x14c>)
   26614:	2107      	movs	r1, #7
   26616:	2200      	movs	r2, #0
   26618:	4613      	mov	r3, r2
   2661a:	df03      	svc	3
   2661c:	e004      	b.n	26628 <_ZN20complex_dynamic_type3app17hcb6decff47fec5bfE+0xe8>
   2661e:	481b      	ldr	r0, [pc, #108]	@ (2668c <_ZN20complex_dynamic_type3app17hcb6decff47fec5bfE+0x14c>)
   26620:	2107      	movs	r1, #7
   26622:	2200      	movs	r2, #0
   26624:	4613      	mov	r3, r2
   26626:	df04      	svc	4
   26628:	a804      	add	r0, sp, #16
   2662a:	9900      	ldr	r1, [sp, #0]
   2662c:	7001      	strb	r1, [r0, #0]
   2662e:	a81d      	add	r0, sp, #116	@ 0x74
   26630:	7800      	ldrb	r0, [r0, #0]
   26632:	2804      	cmp	r0, #4
   26634:	d007      	beq.n	26646 <_ZN20complex_dynamic_type3app17hcb6decff47fec5bfE+0x106>
   26636:	2803      	cmp	r0, #3
   26638:	d11d      	bne.n	26676 <_ZN20complex_dynamic_type3app17hcb6decff47fec5bfE+0x136>
   2663a:	4814      	ldr	r0, [pc, #80]	@ (2668c <_ZN20complex_dynamic_type3app17hcb6decff47fec5bfE+0x14c>)
   2663c:	2100      	movs	r1, #0
   2663e:	460a      	mov	r2, r1
   26640:	460b      	mov	r3, r1
   26642:	df03      	svc	3
   26644:	e004      	b.n	26650 <_ZN20complex_dynamic_type3app17hcb6decff47fec5bfE+0x110>
   26646:	4811      	ldr	r0, [pc, #68]	@ (2668c <_ZN20complex_dynamic_type3app17hcb6decff47fec5bfE+0x14c>)
   26648:	2100      	movs	r1, #0
   2664a:	460a      	mov	r2, r1
   2664c:	460b      	mov	r3, r1
   2664e:	df04      	svc	4
   26650:	a804      	add	r0, sp, #16
   26652:	7804      	ldrb	r4, [r0, #0]
   26654:	1c68      	adds	r0, r5, #1
   26656:	2227      	movs	r2, #39	@ 0x27
   26658:	9901      	ldr	r1, [sp, #4]
   2665a:	f004 fd53 	bl	2b104 <__aeabi_memcpy>
   2665e:	702e      	strb	r6, [r5, #0]
   26660:	2c02      	cmp	r4, #2
   26662:	d006      	beq.n	26672 <_ZN20complex_dynamic_type3app17hcb6decff47fec5bfE+0x132>
   26664:	4809      	ldr	r0, [pc, #36]	@ (2668c <_ZN20complex_dynamic_type3app17hcb6decff47fec5bfE+0x14c>)
   26666:	2107      	movs	r1, #7
   26668:	2200      	movs	r2, #0
   2666a:	4613      	mov	r3, r2
   2666c:	2c04      	cmp	r4, #4
   2666e:	d10a      	bne.n	26686 <_ZN20complex_dynamic_type3app17hcb6decff47fec5bfE+0x146>
   26670:	df04      	svc	4
   26672:	b027      	add	sp, #156	@ 0x9c
   26674:	bdf0      	pop	{r4, r5, r6, r7, pc}
   26676:	1c68      	adds	r0, r5, #1
   26678:	2227      	movs	r2, #39	@ 0x27
   2667a:	4621      	mov	r1, r4
   2667c:	f004 fd42 	bl	2b104 <__aeabi_memcpy>
   26680:	702e      	strb	r6, [r5, #0]
   26682:	b027      	add	sp, #156	@ 0x9c
   26684:	bdf0      	pop	{r4, r5, r6, r7, pc}
   26686:	df03      	svc	3
   26688:	b027      	add	sp, #156	@ 0x9c
   2668a:	bdf0      	pop	{r4, r5, r6, r7, pc}
   2668c:	00001e54 	.word	0x00001e54

00026690 <_ZN20complex_dynamic_type3app17hcc2e12cc0ec981aaE>:
   26690:	b5f0      	push	{r4, r5, r6, r7, lr}
   26692:	af03      	add	r7, sp, #12
   26694:	b099      	sub	sp, #100	@ 0x64
   26696:	9003      	str	r0, [sp, #12]
   26698:	a804      	add	r0, sp, #16
   2669a:	2402      	movs	r4, #2
   2669c:	7004      	strb	r4, [r0, #0]
   2669e:	1c46      	adds	r6, r0, #1
   266a0:	2225      	movs	r2, #37	@ 0x25
   266a2:	9202      	str	r2, [sp, #8]
   266a4:	4630      	mov	r0, r6
   266a6:	f004 fd2d 	bl	2b104 <__aeabi_memcpy>
   266aa:	ad0e      	add	r5, sp, #56	@ 0x38
   266ac:	1c68      	adds	r0, r5, #1
   266ae:	212a      	movs	r1, #42	@ 0x2a
   266b0:	9001      	str	r0, [sp, #4]
   266b2:	f004 fb67 	bl	2ad84 <__aeabi_memclr>
   266b6:	9400      	str	r4, [sp, #0]
   266b8:	702c      	strb	r4, [r5, #0]
   266ba:	4848      	ldr	r0, [pc, #288]	@ (267dc <_ZN20complex_dynamic_type3app17hcc2e12cc0ec981aaE+0x14c>)
   266bc:	2100      	movs	r1, #0
   266be:	4632      	mov	r2, r6
   266c0:	9b02      	ldr	r3, [sp, #8]
   266c2:	df04      	svc	4
   266c4:	2802      	cmp	r0, #2
   266c6:	d104      	bne.n	266d2 <_ZN20complex_dynamic_type3app17hcc2e12cc0ec981aaE+0x42>
   266c8:	2001      	movs	r0, #1
   266ca:	9a03      	ldr	r2, [sp, #12]
   266cc:	7010      	strb	r0, [r2, #0]
   266ce:	6051      	str	r1, [r2, #4]
   266d0:	e02c      	b.n	2672c <_ZN20complex_dynamic_type3app17hcc2e12cc0ec981aaE+0x9c>
   266d2:	9d03      	ldr	r5, [sp, #12]
   266d4:	a804      	add	r0, sp, #16
   266d6:	2104      	movs	r1, #4
   266d8:	7001      	strb	r1, [r0, #0]
   266da:	4840      	ldr	r0, [pc, #256]	@ (267dc <_ZN20complex_dynamic_type3app17hcc2e12cc0ec981aaE+0x14c>)
   266dc:	2403      	movs	r4, #3
   266de:	232a      	movs	r3, #42	@ 0x2a
   266e0:	4621      	mov	r1, r4
   266e2:	9a01      	ldr	r2, [sp, #4]
   266e4:	df03      	svc	3
   266e6:	2802      	cmp	r0, #2
   266e8:	d10e      	bne.n	26708 <_ZN20complex_dynamic_type3app17hcc2e12cc0ec981aaE+0x78>
   266ea:	2001      	movs	r0, #1
   266ec:	7028      	strb	r0, [r5, #0]
   266ee:	6069      	str	r1, [r5, #4]
   266f0:	a80e      	add	r0, sp, #56	@ 0x38
   266f2:	7800      	ldrb	r0, [r0, #0]
   266f4:	2802      	cmp	r0, #2
   266f6:	d019      	beq.n	2672c <_ZN20complex_dynamic_type3app17hcc2e12cc0ec981aaE+0x9c>
   266f8:	2803      	cmp	r0, #3
   266fa:	d012      	beq.n	26722 <_ZN20complex_dynamic_type3app17hcc2e12cc0ec981aaE+0x92>
   266fc:	4837      	ldr	r0, [pc, #220]	@ (267dc <_ZN20complex_dynamic_type3app17hcc2e12cc0ec981aaE+0x14c>)
   266fe:	2103      	movs	r1, #3
   26700:	2200      	movs	r2, #0
   26702:	4613      	mov	r3, r2
   26704:	df04      	svc	4
   26706:	e011      	b.n	2672c <_ZN20complex_dynamic_type3app17hcc2e12cc0ec981aaE+0x9c>
   26708:	a80e      	add	r0, sp, #56	@ 0x38
   2670a:	7004      	strb	r4, [r0, #0]
   2670c:	4833      	ldr	r0, [pc, #204]	@ (267dc <_ZN20complex_dynamic_type3app17hcc2e12cc0ec981aaE+0x14c>)
   2670e:	2600      	movs	r6, #0
   26710:	4631      	mov	r1, r6
   26712:	4622      	mov	r2, r4
   26714:	4633      	mov	r3, r6
   26716:	df02      	svc	2
   26718:	2880      	cmp	r0, #128	@ 0x80
   2671a:	d21b      	bcs.n	26754 <_ZN20complex_dynamic_type3app17hcc2e12cc0ec981aaE+0xc4>
   2671c:	2001      	movs	r0, #1
   2671e:	7028      	strb	r0, [r5, #0]
   26720:	6069      	str	r1, [r5, #4]
   26722:	482e      	ldr	r0, [pc, #184]	@ (267dc <_ZN20complex_dynamic_type3app17hcc2e12cc0ec981aaE+0x14c>)
   26724:	2103      	movs	r1, #3
   26726:	2200      	movs	r2, #0
   26728:	4613      	mov	r3, r2
   2672a:	df03      	svc	3
   2672c:	a804      	add	r0, sp, #16
   2672e:	7800      	ldrb	r0, [r0, #0]
   26730:	2802      	cmp	r0, #2
   26732:	d045      	beq.n	267c0 <_ZN20complex_dynamic_type3app17hcc2e12cc0ec981aaE+0x130>
   26734:	2804      	cmp	r0, #4
   26736:	d106      	bne.n	26746 <_ZN20complex_dynamic_type3app17hcc2e12cc0ec981aaE+0xb6>
   26738:	4828      	ldr	r0, [pc, #160]	@ (267dc <_ZN20complex_dynamic_type3app17hcc2e12cc0ec981aaE+0x14c>)
   2673a:	2100      	movs	r1, #0
   2673c:	460a      	mov	r2, r1
   2673e:	460b      	mov	r3, r1
   26740:	df04      	svc	4
   26742:	b019      	add	sp, #100	@ 0x64
   26744:	bdf0      	pop	{r4, r5, r6, r7, pc}
   26746:	4825      	ldr	r0, [pc, #148]	@ (267dc <_ZN20complex_dynamic_type3app17hcc2e12cc0ec981aaE+0x14c>)
   26748:	2100      	movs	r1, #0
   2674a:	460a      	mov	r2, r1
   2674c:	460b      	mov	r3, r1
   2674e:	df03      	svc	3
   26750:	b019      	add	sp, #100	@ 0x64
   26752:	bdf0      	pop	{r4, r5, r6, r7, pc}
   26754:	a804      	add	r0, sp, #16
   26756:	7800      	ldrb	r0, [r0, #0]
   26758:	2802      	cmp	r0, #2
   2675a:	d00c      	beq.n	26776 <_ZN20complex_dynamic_type3app17hcc2e12cc0ec981aaE+0xe6>
   2675c:	2803      	cmp	r0, #3
   2675e:	d105      	bne.n	2676c <_ZN20complex_dynamic_type3app17hcc2e12cc0ec981aaE+0xdc>
   26760:	481e      	ldr	r0, [pc, #120]	@ (267dc <_ZN20complex_dynamic_type3app17hcc2e12cc0ec981aaE+0x14c>)
   26762:	2100      	movs	r1, #0
   26764:	460a      	mov	r2, r1
   26766:	460b      	mov	r3, r1
   26768:	df03      	svc	3
   2676a:	e004      	b.n	26776 <_ZN20complex_dynamic_type3app17hcc2e12cc0ec981aaE+0xe6>
   2676c:	481b      	ldr	r0, [pc, #108]	@ (267dc <_ZN20complex_dynamic_type3app17hcc2e12cc0ec981aaE+0x14c>)
   2676e:	2100      	movs	r1, #0
   26770:	460a      	mov	r2, r1
   26772:	460b      	mov	r3, r1
   26774:	df04      	svc	4
   26776:	a804      	add	r0, sp, #16
   26778:	9900      	ldr	r1, [sp, #0]
   2677a:	7001      	strb	r1, [r0, #0]
   2677c:	a80e      	add	r0, sp, #56	@ 0x38
   2677e:	7800      	ldrb	r0, [r0, #0]
   26780:	2804      	cmp	r0, #4
   26782:	d007      	beq.n	26794 <_ZN20complex_dynamic_type3app17hcc2e12cc0ec981aaE+0x104>
   26784:	2803      	cmp	r0, #3
   26786:	d11d      	bne.n	267c4 <_ZN20complex_dynamic_type3app17hcc2e12cc0ec981aaE+0x134>
   26788:	4814      	ldr	r0, [pc, #80]	@ (267dc <_ZN20complex_dynamic_type3app17hcc2e12cc0ec981aaE+0x14c>)
   2678a:	2103      	movs	r1, #3
   2678c:	2200      	movs	r2, #0
   2678e:	4613      	mov	r3, r2
   26790:	df03      	svc	3
   26792:	e004      	b.n	2679e <_ZN20complex_dynamic_type3app17hcc2e12cc0ec981aaE+0x10e>
   26794:	4811      	ldr	r0, [pc, #68]	@ (267dc <_ZN20complex_dynamic_type3app17hcc2e12cc0ec981aaE+0x14c>)
   26796:	2103      	movs	r1, #3
   26798:	2200      	movs	r2, #0
   2679a:	4613      	mov	r3, r2
   2679c:	df04      	svc	4
   2679e:	a804      	add	r0, sp, #16
   267a0:	7804      	ldrb	r4, [r0, #0]
   267a2:	1c68      	adds	r0, r5, #1
   267a4:	222a      	movs	r2, #42	@ 0x2a
   267a6:	9901      	ldr	r1, [sp, #4]
   267a8:	f004 fcac 	bl	2b104 <__aeabi_memcpy>
   267ac:	702e      	strb	r6, [r5, #0]
   267ae:	2c02      	cmp	r4, #2
   267b0:	d006      	beq.n	267c0 <_ZN20complex_dynamic_type3app17hcc2e12cc0ec981aaE+0x130>
   267b2:	480a      	ldr	r0, [pc, #40]	@ (267dc <_ZN20complex_dynamic_type3app17hcc2e12cc0ec981aaE+0x14c>)
   267b4:	2100      	movs	r1, #0
   267b6:	460a      	mov	r2, r1
   267b8:	460b      	mov	r3, r1
   267ba:	2c04      	cmp	r4, #4
   267bc:	d10a      	bne.n	267d4 <_ZN20complex_dynamic_type3app17hcc2e12cc0ec981aaE+0x144>
   267be:	df04      	svc	4
   267c0:	b019      	add	sp, #100	@ 0x64
   267c2:	bdf0      	pop	{r4, r5, r6, r7, pc}
   267c4:	1c68      	adds	r0, r5, #1
   267c6:	222a      	movs	r2, #42	@ 0x2a
   267c8:	9901      	ldr	r1, [sp, #4]
   267ca:	f004 fc9b 	bl	2b104 <__aeabi_memcpy>
   267ce:	702e      	strb	r6, [r5, #0]
   267d0:	b019      	add	sp, #100	@ 0x64
   267d2:	bdf0      	pop	{r4, r5, r6, r7, pc}
   267d4:	df03      	svc	3
   267d6:	b019      	add	sp, #100	@ 0x64
   267d8:	bdf0      	pop	{r4, r5, r6, r7, pc}
   267da:	46c0      	nop			@ (mov r8, r8)
   267dc:	0000093c 	.word	0x0000093c

000267e0 <_ZN20complex_dynamic_type3app17hd923ddf16d12a1ebE>:
   267e0:	b5f0      	push	{r4, r5, r6, r7, lr}
   267e2:	af03      	add	r7, sp, #12
   267e4:	b097      	sub	sp, #92	@ 0x5c
   267e6:	9004      	str	r0, [sp, #16]
   267e8:	a805      	add	r0, sp, #20
   267ea:	2402      	movs	r4, #2
   267ec:	7004      	strb	r4, [r0, #0]
   267ee:	1c46      	adds	r6, r0, #1
   267f0:	2236      	movs	r2, #54	@ 0x36
   267f2:	9203      	str	r2, [sp, #12]
   267f4:	4630      	mov	r0, r6
   267f6:	f004 fc85 	bl	2b104 <__aeabi_memcpy>
   267fa:	ad13      	add	r5, sp, #76	@ 0x4c
   267fc:	1c68      	adds	r0, r5, #1
   267fe:	210f      	movs	r1, #15
   26800:	9002      	str	r0, [sp, #8]
   26802:	f004 fabf 	bl	2ad84 <__aeabi_memclr>
   26806:	9401      	str	r4, [sp, #4]
   26808:	702c      	strb	r4, [r5, #0]
   2680a:	4848      	ldr	r0, [pc, #288]	@ (2692c <_ZN20complex_dynamic_type3app17hd923ddf16d12a1ebE+0x14c>)
   2680c:	2105      	movs	r1, #5
   2680e:	4632      	mov	r2, r6
   26810:	9b03      	ldr	r3, [sp, #12]
   26812:	df04      	svc	4
   26814:	2802      	cmp	r0, #2
   26816:	d104      	bne.n	26822 <_ZN20complex_dynamic_type3app17hd923ddf16d12a1ebE+0x42>
   26818:	2001      	movs	r0, #1
   2681a:	9a04      	ldr	r2, [sp, #16]
   2681c:	7010      	strb	r0, [r2, #0]
   2681e:	6051      	str	r1, [r2, #4]
   26820:	e02c      	b.n	2687c <_ZN20complex_dynamic_type3app17hd923ddf16d12a1ebE+0x9c>
   26822:	9d04      	ldr	r5, [sp, #16]
   26824:	a805      	add	r0, sp, #20
   26826:	2104      	movs	r1, #4
   26828:	7001      	strb	r1, [r0, #0]
   2682a:	4840      	ldr	r0, [pc, #256]	@ (2692c <_ZN20complex_dynamic_type3app17hd923ddf16d12a1ebE+0x14c>)
   2682c:	2403      	movs	r4, #3
   2682e:	230f      	movs	r3, #15
   26830:	4621      	mov	r1, r4
   26832:	9a02      	ldr	r2, [sp, #8]
   26834:	df03      	svc	3
   26836:	2802      	cmp	r0, #2
   26838:	d10e      	bne.n	26858 <_ZN20complex_dynamic_type3app17hd923ddf16d12a1ebE+0x78>
   2683a:	2001      	movs	r0, #1
   2683c:	7028      	strb	r0, [r5, #0]
   2683e:	6069      	str	r1, [r5, #4]
   26840:	a813      	add	r0, sp, #76	@ 0x4c
   26842:	7800      	ldrb	r0, [r0, #0]
   26844:	2802      	cmp	r0, #2
   26846:	d019      	beq.n	2687c <_ZN20complex_dynamic_type3app17hd923ddf16d12a1ebE+0x9c>
   26848:	2803      	cmp	r0, #3
   2684a:	d012      	beq.n	26872 <_ZN20complex_dynamic_type3app17hd923ddf16d12a1ebE+0x92>
   2684c:	4837      	ldr	r0, [pc, #220]	@ (2692c <_ZN20complex_dynamic_type3app17hd923ddf16d12a1ebE+0x14c>)
   2684e:	2103      	movs	r1, #3
   26850:	2200      	movs	r2, #0
   26852:	4613      	mov	r3, r2
   26854:	df04      	svc	4
   26856:	e011      	b.n	2687c <_ZN20complex_dynamic_type3app17hd923ddf16d12a1ebE+0x9c>
   26858:	a813      	add	r0, sp, #76	@ 0x4c
   2685a:	7004      	strb	r4, [r0, #0]
   2685c:	4833      	ldr	r0, [pc, #204]	@ (2692c <_ZN20complex_dynamic_type3app17hd923ddf16d12a1ebE+0x14c>)
   2685e:	2105      	movs	r1, #5
   26860:	2600      	movs	r6, #0
   26862:	4622      	mov	r2, r4
   26864:	4633      	mov	r3, r6
   26866:	df02      	svc	2
   26868:	2880      	cmp	r0, #128	@ 0x80
   2686a:	d21b      	bcs.n	268a4 <_ZN20complex_dynamic_type3app17hd923ddf16d12a1ebE+0xc4>
   2686c:	2001      	movs	r0, #1
   2686e:	7028      	strb	r0, [r5, #0]
   26870:	6069      	str	r1, [r5, #4]
   26872:	482e      	ldr	r0, [pc, #184]	@ (2692c <_ZN20complex_dynamic_type3app17hd923ddf16d12a1ebE+0x14c>)
   26874:	2103      	movs	r1, #3
   26876:	2200      	movs	r2, #0
   26878:	4613      	mov	r3, r2
   2687a:	df03      	svc	3
   2687c:	a805      	add	r0, sp, #20
   2687e:	7800      	ldrb	r0, [r0, #0]
   26880:	2802      	cmp	r0, #2
   26882:	d045      	beq.n	26910 <_ZN20complex_dynamic_type3app17hd923ddf16d12a1ebE+0x130>
   26884:	2804      	cmp	r0, #4
   26886:	d106      	bne.n	26896 <_ZN20complex_dynamic_type3app17hd923ddf16d12a1ebE+0xb6>
   26888:	4828      	ldr	r0, [pc, #160]	@ (2692c <_ZN20complex_dynamic_type3app17hd923ddf16d12a1ebE+0x14c>)
   2688a:	2105      	movs	r1, #5
   2688c:	2200      	movs	r2, #0
   2688e:	4613      	mov	r3, r2
   26890:	df04      	svc	4
   26892:	b017      	add	sp, #92	@ 0x5c
   26894:	bdf0      	pop	{r4, r5, r6, r7, pc}
   26896:	4825      	ldr	r0, [pc, #148]	@ (2692c <_ZN20complex_dynamic_type3app17hd923ddf16d12a1ebE+0x14c>)
   26898:	2105      	movs	r1, #5
   2689a:	2200      	movs	r2, #0
   2689c:	4613      	mov	r3, r2
   2689e:	df03      	svc	3
   268a0:	b017      	add	sp, #92	@ 0x5c
   268a2:	bdf0      	pop	{r4, r5, r6, r7, pc}
   268a4:	a805      	add	r0, sp, #20
   268a6:	7800      	ldrb	r0, [r0, #0]
   268a8:	2802      	cmp	r0, #2
   268aa:	d00c      	beq.n	268c6 <_ZN20complex_dynamic_type3app17hd923ddf16d12a1ebE+0xe6>
   268ac:	2803      	cmp	r0, #3
   268ae:	d105      	bne.n	268bc <_ZN20complex_dynamic_type3app17hd923ddf16d12a1ebE+0xdc>
   268b0:	481e      	ldr	r0, [pc, #120]	@ (2692c <_ZN20complex_dynamic_type3app17hd923ddf16d12a1ebE+0x14c>)
   268b2:	2105      	movs	r1, #5
   268b4:	2200      	movs	r2, #0
   268b6:	4613      	mov	r3, r2
   268b8:	df03      	svc	3
   268ba:	e004      	b.n	268c6 <_ZN20complex_dynamic_type3app17hd923ddf16d12a1ebE+0xe6>
   268bc:	481b      	ldr	r0, [pc, #108]	@ (2692c <_ZN20complex_dynamic_type3app17hd923ddf16d12a1ebE+0x14c>)
   268be:	2105      	movs	r1, #5
   268c0:	2200      	movs	r2, #0
   268c2:	4613      	mov	r3, r2
   268c4:	df04      	svc	4
   268c6:	a805      	add	r0, sp, #20
   268c8:	9901      	ldr	r1, [sp, #4]
   268ca:	7001      	strb	r1, [r0, #0]
   268cc:	a813      	add	r0, sp, #76	@ 0x4c
   268ce:	7800      	ldrb	r0, [r0, #0]
   268d0:	2804      	cmp	r0, #4
   268d2:	d007      	beq.n	268e4 <_ZN20complex_dynamic_type3app17hd923ddf16d12a1ebE+0x104>
   268d4:	2803      	cmp	r0, #3
   268d6:	d11d      	bne.n	26914 <_ZN20complex_dynamic_type3app17hd923ddf16d12a1ebE+0x134>
   268d8:	4814      	ldr	r0, [pc, #80]	@ (2692c <_ZN20complex_dynamic_type3app17hd923ddf16d12a1ebE+0x14c>)
   268da:	2103      	movs	r1, #3
   268dc:	2200      	movs	r2, #0
   268de:	4613      	mov	r3, r2
   268e0:	df03      	svc	3
   268e2:	e004      	b.n	268ee <_ZN20complex_dynamic_type3app17hd923ddf16d12a1ebE+0x10e>
   268e4:	4811      	ldr	r0, [pc, #68]	@ (2692c <_ZN20complex_dynamic_type3app17hd923ddf16d12a1ebE+0x14c>)
   268e6:	2103      	movs	r1, #3
   268e8:	2200      	movs	r2, #0
   268ea:	4613      	mov	r3, r2
   268ec:	df04      	svc	4
   268ee:	a805      	add	r0, sp, #20
   268f0:	7804      	ldrb	r4, [r0, #0]
   268f2:	1c68      	adds	r0, r5, #1
   268f4:	220f      	movs	r2, #15
   268f6:	9902      	ldr	r1, [sp, #8]
   268f8:	f004 fc04 	bl	2b104 <__aeabi_memcpy>
   268fc:	702e      	strb	r6, [r5, #0]
   268fe:	2c02      	cmp	r4, #2
   26900:	d006      	beq.n	26910 <_ZN20complex_dynamic_type3app17hd923ddf16d12a1ebE+0x130>
   26902:	480a      	ldr	r0, [pc, #40]	@ (2692c <_ZN20complex_dynamic_type3app17hd923ddf16d12a1ebE+0x14c>)
   26904:	2105      	movs	r1, #5
   26906:	2200      	movs	r2, #0
   26908:	4613      	mov	r3, r2
   2690a:	2c04      	cmp	r4, #4
   2690c:	d10a      	bne.n	26924 <_ZN20complex_dynamic_type3app17hd923ddf16d12a1ebE+0x144>
   2690e:	df04      	svc	4
   26910:	b017      	add	sp, #92	@ 0x5c
   26912:	bdf0      	pop	{r4, r5, r6, r7, pc}
   26914:	1c68      	adds	r0, r5, #1
   26916:	220f      	movs	r2, #15
   26918:	9902      	ldr	r1, [sp, #8]
   2691a:	f004 fbf3 	bl	2b104 <__aeabi_memcpy>
   2691e:	702e      	strb	r6, [r5, #0]
   26920:	b017      	add	sp, #92	@ 0x5c
   26922:	bdf0      	pop	{r4, r5, r6, r7, pc}
   26924:	df03      	svc	3
   26926:	b017      	add	sp, #92	@ 0x5c
   26928:	bdf0      	pop	{r4, r5, r6, r7, pc}
   2692a:	46c0      	nop			@ (mov r8, r8)
   2692c:	00000653 	.word	0x00000653

00026930 <_ZN20complex_dynamic_type3app17hd987d047135f6e36E>:
   26930:	b5f0      	push	{r4, r5, r6, r7, lr}
   26932:	af03      	add	r7, sp, #12
   26934:	b099      	sub	sp, #100	@ 0x64
   26936:	9003      	str	r0, [sp, #12]
   26938:	a804      	add	r0, sp, #16
   2693a:	2402      	movs	r4, #2
   2693c:	7004      	strb	r4, [r0, #0]
   2693e:	1c46      	adds	r6, r0, #1
   26940:	2218      	movs	r2, #24
   26942:	9202      	str	r2, [sp, #8]
   26944:	4630      	mov	r0, r6
   26946:	f004 fbdd 	bl	2b104 <__aeabi_memcpy>
   2694a:	ad0b      	add	r5, sp, #44	@ 0x2c
   2694c:	1c68      	adds	r0, r5, #1
   2694e:	2136      	movs	r1, #54	@ 0x36
   26950:	9001      	str	r0, [sp, #4]
   26952:	f004 fa17 	bl	2ad84 <__aeabi_memclr>
   26956:	9400      	str	r4, [sp, #0]
   26958:	702c      	strb	r4, [r5, #0]
   2695a:	20f3      	movs	r0, #243	@ 0xf3
   2695c:	2108      	movs	r1, #8
   2695e:	4632      	mov	r2, r6
   26960:	9b02      	ldr	r3, [sp, #8]
   26962:	df04      	svc	4
   26964:	2802      	cmp	r0, #2
   26966:	d104      	bne.n	26972 <_ZN20complex_dynamic_type3app17hd987d047135f6e36E+0x42>
   26968:	2001      	movs	r0, #1
   2696a:	9a03      	ldr	r2, [sp, #12]
   2696c:	7010      	strb	r0, [r2, #0]
   2696e:	6051      	str	r1, [r2, #4]
   26970:	e02c      	b.n	269cc <_ZN20complex_dynamic_type3app17hd987d047135f6e36E+0x9c>
   26972:	9d03      	ldr	r5, [sp, #12]
   26974:	a804      	add	r0, sp, #16
   26976:	2104      	movs	r1, #4
   26978:	7001      	strb	r1, [r0, #0]
   2697a:	20f3      	movs	r0, #243	@ 0xf3
   2697c:	2336      	movs	r3, #54	@ 0x36
   2697e:	9c01      	ldr	r4, [sp, #4]
   26980:	4622      	mov	r2, r4
   26982:	df03      	svc	3
   26984:	2802      	cmp	r0, #2
   26986:	d10e      	bne.n	269a6 <_ZN20complex_dynamic_type3app17hd987d047135f6e36E+0x76>
   26988:	2001      	movs	r0, #1
   2698a:	7028      	strb	r0, [r5, #0]
   2698c:	6069      	str	r1, [r5, #4]
   2698e:	a80b      	add	r0, sp, #44	@ 0x2c
   26990:	7800      	ldrb	r0, [r0, #0]
   26992:	2802      	cmp	r0, #2
   26994:	d01a      	beq.n	269cc <_ZN20complex_dynamic_type3app17hd987d047135f6e36E+0x9c>
   26996:	2803      	cmp	r0, #3
   26998:	d013      	beq.n	269c2 <_ZN20complex_dynamic_type3app17hd987d047135f6e36E+0x92>
   2699a:	20f3      	movs	r0, #243	@ 0xf3
   2699c:	2104      	movs	r1, #4
   2699e:	2200      	movs	r2, #0
   269a0:	4613      	mov	r3, r2
   269a2:	df04      	svc	4
   269a4:	e012      	b.n	269cc <_ZN20complex_dynamic_type3app17hd987d047135f6e36E+0x9c>
   269a6:	a80b      	add	r0, sp, #44	@ 0x2c
   269a8:	2103      	movs	r1, #3
   269aa:	7001      	strb	r1, [r0, #0]
   269ac:	20f3      	movs	r0, #243	@ 0xf3
   269ae:	2108      	movs	r1, #8
   269b0:	2204      	movs	r2, #4
   269b2:	2600      	movs	r6, #0
   269b4:	4633      	mov	r3, r6
   269b6:	df02      	svc	2
   269b8:	2880      	cmp	r0, #128	@ 0x80
   269ba:	d21b      	bcs.n	269f4 <_ZN20complex_dynamic_type3app17hd987d047135f6e36E+0xc4>
   269bc:	2001      	movs	r0, #1
   269be:	7028      	strb	r0, [r5, #0]
   269c0:	6069      	str	r1, [r5, #4]
   269c2:	20f3      	movs	r0, #243	@ 0xf3
   269c4:	2104      	movs	r1, #4
   269c6:	2200      	movs	r2, #0
   269c8:	4613      	mov	r3, r2
   269ca:	df03      	svc	3
   269cc:	a804      	add	r0, sp, #16
   269ce:	7800      	ldrb	r0, [r0, #0]
   269d0:	2802      	cmp	r0, #2
   269d2:	d045      	beq.n	26a60 <_ZN20complex_dynamic_type3app17hd987d047135f6e36E+0x130>
   269d4:	2804      	cmp	r0, #4
   269d6:	d106      	bne.n	269e6 <_ZN20complex_dynamic_type3app17hd987d047135f6e36E+0xb6>
   269d8:	20f3      	movs	r0, #243	@ 0xf3
   269da:	2108      	movs	r1, #8
   269dc:	2200      	movs	r2, #0
   269de:	4613      	mov	r3, r2
   269e0:	df04      	svc	4
   269e2:	b019      	add	sp, #100	@ 0x64
   269e4:	bdf0      	pop	{r4, r5, r6, r7, pc}
   269e6:	20f3      	movs	r0, #243	@ 0xf3
   269e8:	2108      	movs	r1, #8
   269ea:	2200      	movs	r2, #0
   269ec:	4613      	mov	r3, r2
   269ee:	df03      	svc	3
   269f0:	b019      	add	sp, #100	@ 0x64
   269f2:	bdf0      	pop	{r4, r5, r6, r7, pc}
   269f4:	a804      	add	r0, sp, #16
   269f6:	7800      	ldrb	r0, [r0, #0]
   269f8:	2802      	cmp	r0, #2
   269fa:	d00c      	beq.n	26a16 <_ZN20complex_dynamic_type3app17hd987d047135f6e36E+0xe6>
   269fc:	2803      	cmp	r0, #3
   269fe:	d105      	bne.n	26a0c <_ZN20complex_dynamic_type3app17hd987d047135f6e36E+0xdc>
   26a00:	20f3      	movs	r0, #243	@ 0xf3
   26a02:	2108      	movs	r1, #8
   26a04:	2200      	movs	r2, #0
   26a06:	4613      	mov	r3, r2
   26a08:	df03      	svc	3
   26a0a:	e004      	b.n	26a16 <_ZN20complex_dynamic_type3app17hd987d047135f6e36E+0xe6>
   26a0c:	20f3      	movs	r0, #243	@ 0xf3
   26a0e:	2108      	movs	r1, #8
   26a10:	2200      	movs	r2, #0
   26a12:	4613      	mov	r3, r2
   26a14:	df04      	svc	4
   26a16:	a804      	add	r0, sp, #16
   26a18:	9900      	ldr	r1, [sp, #0]
   26a1a:	7001      	strb	r1, [r0, #0]
   26a1c:	a80b      	add	r0, sp, #44	@ 0x2c
   26a1e:	7800      	ldrb	r0, [r0, #0]
   26a20:	2804      	cmp	r0, #4
   26a22:	d007      	beq.n	26a34 <_ZN20complex_dynamic_type3app17hd987d047135f6e36E+0x104>
   26a24:	2803      	cmp	r0, #3
   26a26:	d11d      	bne.n	26a64 <_ZN20complex_dynamic_type3app17hd987d047135f6e36E+0x134>
   26a28:	20f3      	movs	r0, #243	@ 0xf3
   26a2a:	2104      	movs	r1, #4
   26a2c:	2200      	movs	r2, #0
   26a2e:	4613      	mov	r3, r2
   26a30:	df03      	svc	3
   26a32:	e004      	b.n	26a3e <_ZN20complex_dynamic_type3app17hd987d047135f6e36E+0x10e>
   26a34:	20f3      	movs	r0, #243	@ 0xf3
   26a36:	2104      	movs	r1, #4
   26a38:	2200      	movs	r2, #0
   26a3a:	4613      	mov	r3, r2
   26a3c:	df04      	svc	4
   26a3e:	a804      	add	r0, sp, #16
   26a40:	7804      	ldrb	r4, [r0, #0]
   26a42:	1c68      	adds	r0, r5, #1
   26a44:	2236      	movs	r2, #54	@ 0x36
   26a46:	9901      	ldr	r1, [sp, #4]
   26a48:	f004 fb5c 	bl	2b104 <__aeabi_memcpy>
   26a4c:	702e      	strb	r6, [r5, #0]
   26a4e:	2c02      	cmp	r4, #2
   26a50:	d006      	beq.n	26a60 <_ZN20complex_dynamic_type3app17hd987d047135f6e36E+0x130>
   26a52:	20f3      	movs	r0, #243	@ 0xf3
   26a54:	2108      	movs	r1, #8
   26a56:	2200      	movs	r2, #0
   26a58:	4613      	mov	r3, r2
   26a5a:	2c04      	cmp	r4, #4
   26a5c:	d10a      	bne.n	26a74 <_ZN20complex_dynamic_type3app17hd987d047135f6e36E+0x144>
   26a5e:	df04      	svc	4
   26a60:	b019      	add	sp, #100	@ 0x64
   26a62:	bdf0      	pop	{r4, r5, r6, r7, pc}
   26a64:	1c68      	adds	r0, r5, #1
   26a66:	2236      	movs	r2, #54	@ 0x36
   26a68:	4621      	mov	r1, r4
   26a6a:	f004 fb4b 	bl	2b104 <__aeabi_memcpy>
   26a6e:	702e      	strb	r6, [r5, #0]
   26a70:	b019      	add	sp, #100	@ 0x64
   26a72:	bdf0      	pop	{r4, r5, r6, r7, pc}
   26a74:	df03      	svc	3
   26a76:	b019      	add	sp, #100	@ 0x64
   26a78:	bdf0      	pop	{r4, r5, r6, r7, pc}
   26a7a:	d4d4      	bmi.n	26a26 <_ZN20complex_dynamic_type3app17hd987d047135f6e36E+0xf6>

00026a7c <_ZN20complex_dynamic_type3app17hdcd573bcff16be96E>:
   26a7c:	b5f0      	push	{r4, r5, r6, r7, lr}
   26a7e:	af03      	add	r7, sp, #12
   26a80:	b09f      	sub	sp, #124	@ 0x7c
   26a82:	9004      	str	r0, [sp, #16]
   26a84:	a805      	add	r0, sp, #20
   26a86:	2402      	movs	r4, #2
   26a88:	7004      	strb	r4, [r0, #0]
   26a8a:	1c40      	adds	r0, r0, #1
   26a8c:	9003      	str	r0, [sp, #12]
   26a8e:	2541      	movs	r5, #65	@ 0x41
   26a90:	462a      	mov	r2, r5
   26a92:	f004 fb37 	bl	2b104 <__aeabi_memcpy>
   26a96:	ae16      	add	r6, sp, #88	@ 0x58
   26a98:	1c70      	adds	r0, r6, #1
   26a9a:	2122      	movs	r1, #34	@ 0x22
   26a9c:	9002      	str	r0, [sp, #8]
   26a9e:	f004 f971 	bl	2ad84 <__aeabi_memclr>
   26aa2:	9401      	str	r4, [sp, #4]
   26aa4:	7034      	strb	r4, [r6, #0]
   26aa6:	4847      	ldr	r0, [pc, #284]	@ (26bc4 <_ZN20complex_dynamic_type3app17hdcd573bcff16be96E+0x148>)
   26aa8:	2601      	movs	r6, #1
   26aaa:	4631      	mov	r1, r6
   26aac:	9a03      	ldr	r2, [sp, #12]
   26aae:	462b      	mov	r3, r5
   26ab0:	df04      	svc	4
   26ab2:	2802      	cmp	r0, #2
   26ab4:	d103      	bne.n	26abe <_ZN20complex_dynamic_type3app17hdcd573bcff16be96E+0x42>
   26ab6:	9804      	ldr	r0, [sp, #16]
   26ab8:	7006      	strb	r6, [r0, #0]
   26aba:	6041      	str	r1, [r0, #4]
   26abc:	e02b      	b.n	26b16 <_ZN20complex_dynamic_type3app17hdcd573bcff16be96E+0x9a>
   26abe:	9d04      	ldr	r5, [sp, #16]
   26ac0:	a805      	add	r0, sp, #20
   26ac2:	2104      	movs	r1, #4
   26ac4:	7001      	strb	r1, [r0, #0]
   26ac6:	483f      	ldr	r0, [pc, #252]	@ (26bc4 <_ZN20complex_dynamic_type3app17hdcd573bcff16be96E+0x148>)
   26ac8:	2100      	movs	r1, #0
   26aca:	2322      	movs	r3, #34	@ 0x22
   26acc:	9a02      	ldr	r2, [sp, #8]
   26ace:	df03      	svc	3
   26ad0:	2802      	cmp	r0, #2
   26ad2:	d10d      	bne.n	26af0 <_ZN20complex_dynamic_type3app17hdcd573bcff16be96E+0x74>
   26ad4:	702e      	strb	r6, [r5, #0]
   26ad6:	6069      	str	r1, [r5, #4]
   26ad8:	a816      	add	r0, sp, #88	@ 0x58
   26ada:	7800      	ldrb	r0, [r0, #0]
   26adc:	2802      	cmp	r0, #2
   26ade:	d01a      	beq.n	26b16 <_ZN20complex_dynamic_type3app17hdcd573bcff16be96E+0x9a>
   26ae0:	2803      	cmp	r0, #3
   26ae2:	d013      	beq.n	26b0c <_ZN20complex_dynamic_type3app17hdcd573bcff16be96E+0x90>
   26ae4:	4837      	ldr	r0, [pc, #220]	@ (26bc4 <_ZN20complex_dynamic_type3app17hdcd573bcff16be96E+0x148>)
   26ae6:	2100      	movs	r1, #0
   26ae8:	460a      	mov	r2, r1
   26aea:	460b      	mov	r3, r1
   26aec:	df04      	svc	4
   26aee:	e012      	b.n	26b16 <_ZN20complex_dynamic_type3app17hdcd573bcff16be96E+0x9a>
   26af0:	a816      	add	r0, sp, #88	@ 0x58
   26af2:	2103      	movs	r1, #3
   26af4:	7001      	strb	r1, [r0, #0]
   26af6:	4833      	ldr	r0, [pc, #204]	@ (26bc4 <_ZN20complex_dynamic_type3app17hdcd573bcff16be96E+0x148>)
   26af8:	2401      	movs	r4, #1
   26afa:	2600      	movs	r6, #0
   26afc:	4621      	mov	r1, r4
   26afe:	4632      	mov	r2, r6
   26b00:	4633      	mov	r3, r6
   26b02:	df02      	svc	2
   26b04:	2880      	cmp	r0, #128	@ 0x80
   26b06:	d21a      	bcs.n	26b3e <_ZN20complex_dynamic_type3app17hdcd573bcff16be96E+0xc2>
   26b08:	702c      	strb	r4, [r5, #0]
   26b0a:	6069      	str	r1, [r5, #4]
   26b0c:	482d      	ldr	r0, [pc, #180]	@ (26bc4 <_ZN20complex_dynamic_type3app17hdcd573bcff16be96E+0x148>)
   26b0e:	2100      	movs	r1, #0
   26b10:	460a      	mov	r2, r1
   26b12:	460b      	mov	r3, r1
   26b14:	df03      	svc	3
   26b16:	a805      	add	r0, sp, #20
   26b18:	7800      	ldrb	r0, [r0, #0]
   26b1a:	2802      	cmp	r0, #2
   26b1c:	d045      	beq.n	26baa <_ZN20complex_dynamic_type3app17hdcd573bcff16be96E+0x12e>
   26b1e:	2804      	cmp	r0, #4
   26b20:	d106      	bne.n	26b30 <_ZN20complex_dynamic_type3app17hdcd573bcff16be96E+0xb4>
   26b22:	4828      	ldr	r0, [pc, #160]	@ (26bc4 <_ZN20complex_dynamic_type3app17hdcd573bcff16be96E+0x148>)
   26b24:	2101      	movs	r1, #1
   26b26:	2200      	movs	r2, #0
   26b28:	4613      	mov	r3, r2
   26b2a:	df04      	svc	4
   26b2c:	b01f      	add	sp, #124	@ 0x7c
   26b2e:	bdf0      	pop	{r4, r5, r6, r7, pc}
   26b30:	4824      	ldr	r0, [pc, #144]	@ (26bc4 <_ZN20complex_dynamic_type3app17hdcd573bcff16be96E+0x148>)
   26b32:	2101      	movs	r1, #1
   26b34:	2200      	movs	r2, #0
   26b36:	4613      	mov	r3, r2
   26b38:	df03      	svc	3
   26b3a:	b01f      	add	sp, #124	@ 0x7c
   26b3c:	bdf0      	pop	{r4, r5, r6, r7, pc}
   26b3e:	a805      	add	r0, sp, #20
   26b40:	7800      	ldrb	r0, [r0, #0]
   26b42:	2802      	cmp	r0, #2
   26b44:	d00c      	beq.n	26b60 <_ZN20complex_dynamic_type3app17hdcd573bcff16be96E+0xe4>
   26b46:	2803      	cmp	r0, #3
   26b48:	d105      	bne.n	26b56 <_ZN20complex_dynamic_type3app17hdcd573bcff16be96E+0xda>
   26b4a:	481e      	ldr	r0, [pc, #120]	@ (26bc4 <_ZN20complex_dynamic_type3app17hdcd573bcff16be96E+0x148>)
   26b4c:	2101      	movs	r1, #1
   26b4e:	2200      	movs	r2, #0
   26b50:	4613      	mov	r3, r2
   26b52:	df03      	svc	3
   26b54:	e004      	b.n	26b60 <_ZN20complex_dynamic_type3app17hdcd573bcff16be96E+0xe4>
   26b56:	481b      	ldr	r0, [pc, #108]	@ (26bc4 <_ZN20complex_dynamic_type3app17hdcd573bcff16be96E+0x148>)
   26b58:	2101      	movs	r1, #1
   26b5a:	2200      	movs	r2, #0
   26b5c:	4613      	mov	r3, r2
   26b5e:	df04      	svc	4
   26b60:	a805      	add	r0, sp, #20
   26b62:	9901      	ldr	r1, [sp, #4]
   26b64:	7001      	strb	r1, [r0, #0]
   26b66:	a816      	add	r0, sp, #88	@ 0x58
   26b68:	7800      	ldrb	r0, [r0, #0]
   26b6a:	2804      	cmp	r0, #4
   26b6c:	d007      	beq.n	26b7e <_ZN20complex_dynamic_type3app17hdcd573bcff16be96E+0x102>
   26b6e:	2803      	cmp	r0, #3
   26b70:	d11d      	bne.n	26bae <_ZN20complex_dynamic_type3app17hdcd573bcff16be96E+0x132>
   26b72:	4814      	ldr	r0, [pc, #80]	@ (26bc4 <_ZN20complex_dynamic_type3app17hdcd573bcff16be96E+0x148>)
   26b74:	2100      	movs	r1, #0
   26b76:	460a      	mov	r2, r1
   26b78:	460b      	mov	r3, r1
   26b7a:	df03      	svc	3
   26b7c:	e004      	b.n	26b88 <_ZN20complex_dynamic_type3app17hdcd573bcff16be96E+0x10c>
   26b7e:	4811      	ldr	r0, [pc, #68]	@ (26bc4 <_ZN20complex_dynamic_type3app17hdcd573bcff16be96E+0x148>)
   26b80:	2100      	movs	r1, #0
   26b82:	460a      	mov	r2, r1
   26b84:	460b      	mov	r3, r1
   26b86:	df04      	svc	4
   26b88:	a805      	add	r0, sp, #20
   26b8a:	7804      	ldrb	r4, [r0, #0]
   26b8c:	1c68      	adds	r0, r5, #1
   26b8e:	2222      	movs	r2, #34	@ 0x22
   26b90:	9902      	ldr	r1, [sp, #8]
   26b92:	f004 fab7 	bl	2b104 <__aeabi_memcpy>
   26b96:	702e      	strb	r6, [r5, #0]
   26b98:	2c02      	cmp	r4, #2
   26b9a:	d006      	beq.n	26baa <_ZN20complex_dynamic_type3app17hdcd573bcff16be96E+0x12e>
   26b9c:	4809      	ldr	r0, [pc, #36]	@ (26bc4 <_ZN20complex_dynamic_type3app17hdcd573bcff16be96E+0x148>)
   26b9e:	2101      	movs	r1, #1
   26ba0:	2200      	movs	r2, #0
   26ba2:	4613      	mov	r3, r2
   26ba4:	2c04      	cmp	r4, #4
   26ba6:	d10a      	bne.n	26bbe <_ZN20complex_dynamic_type3app17hdcd573bcff16be96E+0x142>
   26ba8:	df04      	svc	4
   26baa:	b01f      	add	sp, #124	@ 0x7c
   26bac:	bdf0      	pop	{r4, r5, r6, r7, pc}
   26bae:	9902      	ldr	r1, [sp, #8]
   26bb0:	1c68      	adds	r0, r5, #1
   26bb2:	2222      	movs	r2, #34	@ 0x22
   26bb4:	f004 faa6 	bl	2b104 <__aeabi_memcpy>
   26bb8:	702e      	strb	r6, [r5, #0]
   26bba:	b01f      	add	sp, #124	@ 0x7c
   26bbc:	bdf0      	pop	{r4, r5, r6, r7, pc}
   26bbe:	df03      	svc	3
   26bc0:	b01f      	add	sp, #124	@ 0x7c
   26bc2:	bdf0      	pop	{r4, r5, r6, r7, pc}
   26bc4:	0000247c 	.word	0x0000247c

00026bc8 <_ZN20complex_dynamic_type3app17he0dcf5157b808258E>:
   26bc8:	b5f0      	push	{r4, r5, r6, r7, lr}
   26bca:	af03      	add	r7, sp, #12
   26bcc:	b09f      	sub	sp, #124	@ 0x7c
   26bce:	9003      	str	r0, [sp, #12]
   26bd0:	a804      	add	r0, sp, #16
   26bd2:	2402      	movs	r4, #2
   26bd4:	7004      	strb	r4, [r0, #0]
   26bd6:	1c46      	adds	r6, r0, #1
   26bd8:	2244      	movs	r2, #68	@ 0x44
   26bda:	9202      	str	r2, [sp, #8]
   26bdc:	4630      	mov	r0, r6
   26bde:	f004 fa91 	bl	2b104 <__aeabi_memcpy>
   26be2:	ad16      	add	r5, sp, #88	@ 0x58
   26be4:	1c68      	adds	r0, r5, #1
   26be6:	2123      	movs	r1, #35	@ 0x23
   26be8:	9001      	str	r0, [sp, #4]
   26bea:	f004 f8cb 	bl	2ad84 <__aeabi_memclr>
   26bee:	9400      	str	r4, [sp, #0]
   26bf0:	702c      	strb	r4, [r5, #0]
   26bf2:	4848      	ldr	r0, [pc, #288]	@ (26d14 <_ZN20complex_dynamic_type3app17he0dcf5157b808258E+0x14c>)
   26bf4:	2106      	movs	r1, #6
   26bf6:	4632      	mov	r2, r6
   26bf8:	9b02      	ldr	r3, [sp, #8]
   26bfa:	df04      	svc	4
   26bfc:	2802      	cmp	r0, #2
   26bfe:	d104      	bne.n	26c0a <_ZN20complex_dynamic_type3app17he0dcf5157b808258E+0x42>
   26c00:	2001      	movs	r0, #1
   26c02:	9a03      	ldr	r2, [sp, #12]
   26c04:	7010      	strb	r0, [r2, #0]
   26c06:	6051      	str	r1, [r2, #4]
   26c08:	e02c      	b.n	26c64 <_ZN20complex_dynamic_type3app17he0dcf5157b808258E+0x9c>
   26c0a:	9d03      	ldr	r5, [sp, #12]
   26c0c:	a804      	add	r0, sp, #16
   26c0e:	2104      	movs	r1, #4
   26c10:	7001      	strb	r1, [r0, #0]
   26c12:	4840      	ldr	r0, [pc, #256]	@ (26d14 <_ZN20complex_dynamic_type3app17he0dcf5157b808258E+0x14c>)
   26c14:	2403      	movs	r4, #3
   26c16:	2323      	movs	r3, #35	@ 0x23
   26c18:	4621      	mov	r1, r4
   26c1a:	9a01      	ldr	r2, [sp, #4]
   26c1c:	df03      	svc	3
   26c1e:	2802      	cmp	r0, #2
   26c20:	d10e      	bne.n	26c40 <_ZN20complex_dynamic_type3app17he0dcf5157b808258E+0x78>
   26c22:	2001      	movs	r0, #1
   26c24:	7028      	strb	r0, [r5, #0]
   26c26:	6069      	str	r1, [r5, #4]
   26c28:	a816      	add	r0, sp, #88	@ 0x58
   26c2a:	7800      	ldrb	r0, [r0, #0]
   26c2c:	2802      	cmp	r0, #2
   26c2e:	d019      	beq.n	26c64 <_ZN20complex_dynamic_type3app17he0dcf5157b808258E+0x9c>
   26c30:	2803      	cmp	r0, #3
   26c32:	d012      	beq.n	26c5a <_ZN20complex_dynamic_type3app17he0dcf5157b808258E+0x92>
   26c34:	4837      	ldr	r0, [pc, #220]	@ (26d14 <_ZN20complex_dynamic_type3app17he0dcf5157b808258E+0x14c>)
   26c36:	2103      	movs	r1, #3
   26c38:	2200      	movs	r2, #0
   26c3a:	4613      	mov	r3, r2
   26c3c:	df04      	svc	4
   26c3e:	e011      	b.n	26c64 <_ZN20complex_dynamic_type3app17he0dcf5157b808258E+0x9c>
   26c40:	a816      	add	r0, sp, #88	@ 0x58
   26c42:	7004      	strb	r4, [r0, #0]
   26c44:	4833      	ldr	r0, [pc, #204]	@ (26d14 <_ZN20complex_dynamic_type3app17he0dcf5157b808258E+0x14c>)
   26c46:	2106      	movs	r1, #6
   26c48:	2600      	movs	r6, #0
   26c4a:	4622      	mov	r2, r4
   26c4c:	4633      	mov	r3, r6
   26c4e:	df02      	svc	2
   26c50:	2880      	cmp	r0, #128	@ 0x80
   26c52:	d21b      	bcs.n	26c8c <_ZN20complex_dynamic_type3app17he0dcf5157b808258E+0xc4>
   26c54:	2001      	movs	r0, #1
   26c56:	7028      	strb	r0, [r5, #0]
   26c58:	6069      	str	r1, [r5, #4]
   26c5a:	482e      	ldr	r0, [pc, #184]	@ (26d14 <_ZN20complex_dynamic_type3app17he0dcf5157b808258E+0x14c>)
   26c5c:	2103      	movs	r1, #3
   26c5e:	2200      	movs	r2, #0
   26c60:	4613      	mov	r3, r2
   26c62:	df03      	svc	3
   26c64:	a804      	add	r0, sp, #16
   26c66:	7800      	ldrb	r0, [r0, #0]
   26c68:	2802      	cmp	r0, #2
   26c6a:	d045      	beq.n	26cf8 <_ZN20complex_dynamic_type3app17he0dcf5157b808258E+0x130>
   26c6c:	2804      	cmp	r0, #4
   26c6e:	d106      	bne.n	26c7e <_ZN20complex_dynamic_type3app17he0dcf5157b808258E+0xb6>
   26c70:	4828      	ldr	r0, [pc, #160]	@ (26d14 <_ZN20complex_dynamic_type3app17he0dcf5157b808258E+0x14c>)
   26c72:	2106      	movs	r1, #6
   26c74:	2200      	movs	r2, #0
   26c76:	4613      	mov	r3, r2
   26c78:	df04      	svc	4
   26c7a:	b01f      	add	sp, #124	@ 0x7c
   26c7c:	bdf0      	pop	{r4, r5, r6, r7, pc}
   26c7e:	4825      	ldr	r0, [pc, #148]	@ (26d14 <_ZN20complex_dynamic_type3app17he0dcf5157b808258E+0x14c>)
   26c80:	2106      	movs	r1, #6
   26c82:	2200      	movs	r2, #0
   26c84:	4613      	mov	r3, r2
   26c86:	df03      	svc	3
   26c88:	b01f      	add	sp, #124	@ 0x7c
   26c8a:	bdf0      	pop	{r4, r5, r6, r7, pc}
   26c8c:	a804      	add	r0, sp, #16
   26c8e:	7800      	ldrb	r0, [r0, #0]
   26c90:	2802      	cmp	r0, #2
   26c92:	d00c      	beq.n	26cae <_ZN20complex_dynamic_type3app17he0dcf5157b808258E+0xe6>
   26c94:	2803      	cmp	r0, #3
   26c96:	d105      	bne.n	26ca4 <_ZN20complex_dynamic_type3app17he0dcf5157b808258E+0xdc>
   26c98:	481e      	ldr	r0, [pc, #120]	@ (26d14 <_ZN20complex_dynamic_type3app17he0dcf5157b808258E+0x14c>)
   26c9a:	2106      	movs	r1, #6
   26c9c:	2200      	movs	r2, #0
   26c9e:	4613      	mov	r3, r2
   26ca0:	df03      	svc	3
   26ca2:	e004      	b.n	26cae <_ZN20complex_dynamic_type3app17he0dcf5157b808258E+0xe6>
   26ca4:	481b      	ldr	r0, [pc, #108]	@ (26d14 <_ZN20complex_dynamic_type3app17he0dcf5157b808258E+0x14c>)
   26ca6:	2106      	movs	r1, #6
   26ca8:	2200      	movs	r2, #0
   26caa:	4613      	mov	r3, r2
   26cac:	df04      	svc	4
   26cae:	a804      	add	r0, sp, #16
   26cb0:	9900      	ldr	r1, [sp, #0]
   26cb2:	7001      	strb	r1, [r0, #0]
   26cb4:	a816      	add	r0, sp, #88	@ 0x58
   26cb6:	7800      	ldrb	r0, [r0, #0]
   26cb8:	2804      	cmp	r0, #4
   26cba:	d007      	beq.n	26ccc <_ZN20complex_dynamic_type3app17he0dcf5157b808258E+0x104>
   26cbc:	2803      	cmp	r0, #3
   26cbe:	d11d      	bne.n	26cfc <_ZN20complex_dynamic_type3app17he0dcf5157b808258E+0x134>
   26cc0:	4814      	ldr	r0, [pc, #80]	@ (26d14 <_ZN20complex_dynamic_type3app17he0dcf5157b808258E+0x14c>)
   26cc2:	2103      	movs	r1, #3
   26cc4:	2200      	movs	r2, #0
   26cc6:	4613      	mov	r3, r2
   26cc8:	df03      	svc	3
   26cca:	e004      	b.n	26cd6 <_ZN20complex_dynamic_type3app17he0dcf5157b808258E+0x10e>
   26ccc:	4811      	ldr	r0, [pc, #68]	@ (26d14 <_ZN20complex_dynamic_type3app17he0dcf5157b808258E+0x14c>)
   26cce:	2103      	movs	r1, #3
   26cd0:	2200      	movs	r2, #0
   26cd2:	4613      	mov	r3, r2
   26cd4:	df04      	svc	4
   26cd6:	a804      	add	r0, sp, #16
   26cd8:	7804      	ldrb	r4, [r0, #0]
   26cda:	1c68      	adds	r0, r5, #1
   26cdc:	2223      	movs	r2, #35	@ 0x23
   26cde:	9901      	ldr	r1, [sp, #4]
   26ce0:	f004 fa10 	bl	2b104 <__aeabi_memcpy>
   26ce4:	702e      	strb	r6, [r5, #0]
   26ce6:	2c02      	cmp	r4, #2
   26ce8:	d006      	beq.n	26cf8 <_ZN20complex_dynamic_type3app17he0dcf5157b808258E+0x130>
   26cea:	480a      	ldr	r0, [pc, #40]	@ (26d14 <_ZN20complex_dynamic_type3app17he0dcf5157b808258E+0x14c>)
   26cec:	2106      	movs	r1, #6
   26cee:	2200      	movs	r2, #0
   26cf0:	4613      	mov	r3, r2
   26cf2:	2c04      	cmp	r4, #4
   26cf4:	d10a      	bne.n	26d0c <_ZN20complex_dynamic_type3app17he0dcf5157b808258E+0x144>
   26cf6:	df04      	svc	4
   26cf8:	b01f      	add	sp, #124	@ 0x7c
   26cfa:	bdf0      	pop	{r4, r5, r6, r7, pc}
   26cfc:	1c68      	adds	r0, r5, #1
   26cfe:	2223      	movs	r2, #35	@ 0x23
   26d00:	9901      	ldr	r1, [sp, #4]
   26d02:	f004 f9ff 	bl	2b104 <__aeabi_memcpy>
   26d06:	702e      	strb	r6, [r5, #0]
   26d08:	b01f      	add	sp, #124	@ 0x7c
   26d0a:	bdf0      	pop	{r4, r5, r6, r7, pc}
   26d0c:	df03      	svc	3
   26d0e:	b01f      	add	sp, #124	@ 0x7c
   26d10:	bdf0      	pop	{r4, r5, r6, r7, pc}
   26d12:	46c0      	nop			@ (mov r8, r8)
   26d14:	000009bf 	.word	0x000009bf

00026d18 <_ZN20complex_dynamic_type3app17he260d34d3a0b2777E>:
   26d18:	b5f0      	push	{r4, r5, r6, r7, lr}
   26d1a:	af03      	add	r7, sp, #12
   26d1c:	b099      	sub	sp, #100	@ 0x64
   26d1e:	9003      	str	r0, [sp, #12]
   26d20:	a804      	add	r0, sp, #16
   26d22:	2502      	movs	r5, #2
   26d24:	7005      	strb	r5, [r0, #0]
   26d26:	1c40      	adds	r0, r0, #1
   26d28:	9002      	str	r0, [sp, #8]
   26d2a:	2611      	movs	r6, #17
   26d2c:	4632      	mov	r2, r6
   26d2e:	f004 f9e9 	bl	2b104 <__aeabi_memcpy>
   26d32:	ac09      	add	r4, sp, #36	@ 0x24
   26d34:	1c60      	adds	r0, r4, #1
   26d36:	213f      	movs	r1, #63	@ 0x3f
   26d38:	9001      	str	r0, [sp, #4]
   26d3a:	f004 f823 	bl	2ad84 <__aeabi_memclr>
   26d3e:	9500      	str	r5, [sp, #0]
   26d40:	7025      	strb	r5, [r4, #0]
   26d42:	20cb      	movs	r0, #203	@ 0xcb
   26d44:	0104      	lsls	r4, r0, #4
   26d46:	2107      	movs	r1, #7
   26d48:	4620      	mov	r0, r4
   26d4a:	9a02      	ldr	r2, [sp, #8]
   26d4c:	4633      	mov	r3, r6
   26d4e:	df04      	svc	4
   26d50:	2802      	cmp	r0, #2
   26d52:	d104      	bne.n	26d5e <_ZN20complex_dynamic_type3app17he260d34d3a0b2777E+0x46>
   26d54:	2001      	movs	r0, #1
   26d56:	9a03      	ldr	r2, [sp, #12]
   26d58:	7010      	strb	r0, [r2, #0]
   26d5a:	6051      	str	r1, [r2, #4]
   26d5c:	e02c      	b.n	26db8 <_ZN20complex_dynamic_type3app17he260d34d3a0b2777E+0xa0>
   26d5e:	9e03      	ldr	r6, [sp, #12]
   26d60:	a804      	add	r0, sp, #16
   26d62:	2104      	movs	r1, #4
   26d64:	7001      	strb	r1, [r0, #0]
   26d66:	233f      	movs	r3, #63	@ 0x3f
   26d68:	4620      	mov	r0, r4
   26d6a:	9d01      	ldr	r5, [sp, #4]
   26d6c:	462a      	mov	r2, r5
   26d6e:	df03      	svc	3
   26d70:	2802      	cmp	r0, #2
   26d72:	d10e      	bne.n	26d92 <_ZN20complex_dynamic_type3app17he260d34d3a0b2777E+0x7a>
   26d74:	2001      	movs	r0, #1
   26d76:	7030      	strb	r0, [r6, #0]
   26d78:	6071      	str	r1, [r6, #4]
   26d7a:	a809      	add	r0, sp, #36	@ 0x24
   26d7c:	7800      	ldrb	r0, [r0, #0]
   26d7e:	2802      	cmp	r0, #2
   26d80:	d01a      	beq.n	26db8 <_ZN20complex_dynamic_type3app17he260d34d3a0b2777E+0xa0>
   26d82:	2803      	cmp	r0, #3
   26d84:	d013      	beq.n	26dae <_ZN20complex_dynamic_type3app17he260d34d3a0b2777E+0x96>
   26d86:	2104      	movs	r1, #4
   26d88:	2200      	movs	r2, #0
   26d8a:	4620      	mov	r0, r4
   26d8c:	4613      	mov	r3, r2
   26d8e:	df04      	svc	4
   26d90:	e012      	b.n	26db8 <_ZN20complex_dynamic_type3app17he260d34d3a0b2777E+0xa0>
   26d92:	a809      	add	r0, sp, #36	@ 0x24
   26d94:	2103      	movs	r1, #3
   26d96:	7001      	strb	r1, [r0, #0]
   26d98:	2107      	movs	r1, #7
   26d9a:	2204      	movs	r2, #4
   26d9c:	2300      	movs	r3, #0
   26d9e:	4620      	mov	r0, r4
   26da0:	9302      	str	r3, [sp, #8]
   26da2:	df02      	svc	2
   26da4:	2880      	cmp	r0, #128	@ 0x80
   26da6:	d219      	bcs.n	26ddc <_ZN20complex_dynamic_type3app17he260d34d3a0b2777E+0xc4>
   26da8:	2001      	movs	r0, #1
   26daa:	7030      	strb	r0, [r6, #0]
   26dac:	6071      	str	r1, [r6, #4]
   26dae:	2104      	movs	r1, #4
   26db0:	2200      	movs	r2, #0
   26db2:	4620      	mov	r0, r4
   26db4:	4613      	mov	r3, r2
   26db6:	df03      	svc	3
   26db8:	a804      	add	r0, sp, #16
   26dba:	7800      	ldrb	r0, [r0, #0]
   26dbc:	2802      	cmp	r0, #2
   26dbe:	d044      	beq.n	26e4a <_ZN20complex_dynamic_type3app17he260d34d3a0b2777E+0x132>
   26dc0:	2107      	movs	r1, #7
   26dc2:	2200      	movs	r2, #0
   26dc4:	2804      	cmp	r0, #4
   26dc6:	d104      	bne.n	26dd2 <_ZN20complex_dynamic_type3app17he260d34d3a0b2777E+0xba>
   26dc8:	4620      	mov	r0, r4
   26dca:	4613      	mov	r3, r2
   26dcc:	df04      	svc	4
   26dce:	b019      	add	sp, #100	@ 0x64
   26dd0:	bdf0      	pop	{r4, r5, r6, r7, pc}
   26dd2:	4620      	mov	r0, r4
   26dd4:	4613      	mov	r3, r2
   26dd6:	df03      	svc	3
   26dd8:	b019      	add	sp, #100	@ 0x64
   26dda:	bdf0      	pop	{r4, r5, r6, r7, pc}
   26ddc:	a804      	add	r0, sp, #16
   26dde:	7800      	ldrb	r0, [r0, #0]
   26de0:	2802      	cmp	r0, #2
   26de2:	d00a      	beq.n	26dfa <_ZN20complex_dynamic_type3app17he260d34d3a0b2777E+0xe2>
   26de4:	2107      	movs	r1, #7
   26de6:	2200      	movs	r2, #0
   26de8:	2803      	cmp	r0, #3
   26dea:	d103      	bne.n	26df4 <_ZN20complex_dynamic_type3app17he260d34d3a0b2777E+0xdc>
   26dec:	4620      	mov	r0, r4
   26dee:	4613      	mov	r3, r2
   26df0:	df03      	svc	3
   26df2:	e002      	b.n	26dfa <_ZN20complex_dynamic_type3app17he260d34d3a0b2777E+0xe2>
   26df4:	4620      	mov	r0, r4
   26df6:	4613      	mov	r3, r2
   26df8:	df04      	svc	4
   26dfa:	a804      	add	r0, sp, #16
   26dfc:	9900      	ldr	r1, [sp, #0]
   26dfe:	7001      	strb	r1, [r0, #0]
   26e00:	a809      	add	r0, sp, #36	@ 0x24
   26e02:	7800      	ldrb	r0, [r0, #0]
   26e04:	2804      	cmp	r0, #4
   26e06:	d008      	beq.n	26e1a <_ZN20complex_dynamic_type3app17he260d34d3a0b2777E+0x102>
   26e08:	2803      	cmp	r0, #3
   26e0a:	d120      	bne.n	26e4e <_ZN20complex_dynamic_type3app17he260d34d3a0b2777E+0x136>
   26e0c:	2104      	movs	r1, #4
   26e0e:	2200      	movs	r2, #0
   26e10:	9400      	str	r4, [sp, #0]
   26e12:	4620      	mov	r0, r4
   26e14:	4613      	mov	r3, r2
   26e16:	df03      	svc	3
   26e18:	e005      	b.n	26e26 <_ZN20complex_dynamic_type3app17he260d34d3a0b2777E+0x10e>
   26e1a:	2104      	movs	r1, #4
   26e1c:	2200      	movs	r2, #0
   26e1e:	9400      	str	r4, [sp, #0]
   26e20:	4620      	mov	r0, r4
   26e22:	4613      	mov	r3, r2
   26e24:	df04      	svc	4
   26e26:	a804      	add	r0, sp, #16
   26e28:	7804      	ldrb	r4, [r0, #0]
   26e2a:	1c70      	adds	r0, r6, #1
   26e2c:	223f      	movs	r2, #63	@ 0x3f
   26e2e:	4629      	mov	r1, r5
   26e30:	f004 f968 	bl	2b104 <__aeabi_memcpy>
   26e34:	9802      	ldr	r0, [sp, #8]
   26e36:	7030      	strb	r0, [r6, #0]
   26e38:	2c02      	cmp	r4, #2
   26e3a:	d006      	beq.n	26e4a <_ZN20complex_dynamic_type3app17he260d34d3a0b2777E+0x132>
   26e3c:	2c04      	cmp	r4, #4
   26e3e:	d10f      	bne.n	26e60 <_ZN20complex_dynamic_type3app17he260d34d3a0b2777E+0x148>
   26e40:	2107      	movs	r1, #7
   26e42:	2200      	movs	r2, #0
   26e44:	9800      	ldr	r0, [sp, #0]
   26e46:	4613      	mov	r3, r2
   26e48:	df04      	svc	4
   26e4a:	b019      	add	sp, #100	@ 0x64
   26e4c:	bdf0      	pop	{r4, r5, r6, r7, pc}
   26e4e:	1c70      	adds	r0, r6, #1
   26e50:	223f      	movs	r2, #63	@ 0x3f
   26e52:	4629      	mov	r1, r5
   26e54:	f004 f956 	bl	2b104 <__aeabi_memcpy>
   26e58:	9802      	ldr	r0, [sp, #8]
   26e5a:	7030      	strb	r0, [r6, #0]
   26e5c:	b019      	add	sp, #100	@ 0x64
   26e5e:	bdf0      	pop	{r4, r5, r6, r7, pc}
   26e60:	9800      	ldr	r0, [sp, #0]
   26e62:	2107      	movs	r1, #7
   26e64:	2200      	movs	r2, #0
   26e66:	4613      	mov	r3, r2
   26e68:	df03      	svc	3
   26e6a:	b019      	add	sp, #100	@ 0x64
   26e6c:	bdf0      	pop	{r4, r5, r6, r7, pc}
   26e6e:	d4d4      	bmi.n	26e1a <_ZN20complex_dynamic_type3app17he260d34d3a0b2777E+0x102>

00026e70 <_ZN20complex_dynamic_type3app17he28b68a5b15cbb1cE>:
   26e70:	b5f0      	push	{r4, r5, r6, r7, lr}
   26e72:	af03      	add	r7, sp, #12
   26e74:	b09f      	sub	sp, #124	@ 0x7c
   26e76:	9003      	str	r0, [sp, #12]
   26e78:	a804      	add	r0, sp, #16
   26e7a:	2602      	movs	r6, #2
   26e7c:	7006      	strb	r6, [r0, #0]
   26e7e:	1c40      	adds	r0, r0, #1
   26e80:	9002      	str	r0, [sp, #8]
   26e82:	2555      	movs	r5, #85	@ 0x55
   26e84:	462a      	mov	r2, r5
   26e86:	f004 f93d 	bl	2b104 <__aeabi_memcpy>
   26e8a:	ac1a      	add	r4, sp, #104	@ 0x68
   26e8c:	1c60      	adds	r0, r4, #1
   26e8e:	2111      	movs	r1, #17
   26e90:	9001      	str	r0, [sp, #4]
   26e92:	f003 ff77 	bl	2ad84 <__aeabi_memclr>
   26e96:	7026      	strb	r6, [r4, #0]
   26e98:	484a      	ldr	r0, [pc, #296]	@ (26fc4 <_ZN20complex_dynamic_type3app17he28b68a5b15cbb1cE+0x154>)
   26e9a:	4631      	mov	r1, r6
   26e9c:	9a02      	ldr	r2, [sp, #8]
   26e9e:	462b      	mov	r3, r5
   26ea0:	df04      	svc	4
   26ea2:	2802      	cmp	r0, #2
   26ea4:	d104      	bne.n	26eb0 <_ZN20complex_dynamic_type3app17he28b68a5b15cbb1cE+0x40>
   26ea6:	2001      	movs	r0, #1
   26ea8:	9a03      	ldr	r2, [sp, #12]
   26eaa:	7010      	strb	r0, [r2, #0]
   26eac:	6051      	str	r1, [r2, #4]
   26eae:	e02e      	b.n	26f0e <_ZN20complex_dynamic_type3app17he28b68a5b15cbb1cE+0x9e>
   26eb0:	9d03      	ldr	r5, [sp, #12]
   26eb2:	a804      	add	r0, sp, #16
   26eb4:	2104      	movs	r1, #4
   26eb6:	7001      	strb	r1, [r0, #0]
   26eb8:	4842      	ldr	r0, [pc, #264]	@ (26fc4 <_ZN20complex_dynamic_type3app17he28b68a5b15cbb1cE+0x154>)
   26eba:	2102      	movs	r1, #2
   26ebc:	2311      	movs	r3, #17
   26ebe:	9c01      	ldr	r4, [sp, #4]
   26ec0:	4622      	mov	r2, r4
   26ec2:	df03      	svc	3
   26ec4:	2802      	cmp	r0, #2
   26ec6:	d10e      	bne.n	26ee6 <_ZN20complex_dynamic_type3app17he28b68a5b15cbb1cE+0x76>
   26ec8:	2001      	movs	r0, #1
   26eca:	7028      	strb	r0, [r5, #0]
   26ecc:	6069      	str	r1, [r5, #4]
   26ece:	a81a      	add	r0, sp, #104	@ 0x68
   26ed0:	7800      	ldrb	r0, [r0, #0]
   26ed2:	2802      	cmp	r0, #2
   26ed4:	d01b      	beq.n	26f0e <_ZN20complex_dynamic_type3app17he28b68a5b15cbb1cE+0x9e>
   26ed6:	2803      	cmp	r0, #3
   26ed8:	d014      	beq.n	26f04 <_ZN20complex_dynamic_type3app17he28b68a5b15cbb1cE+0x94>
   26eda:	483a      	ldr	r0, [pc, #232]	@ (26fc4 <_ZN20complex_dynamic_type3app17he28b68a5b15cbb1cE+0x154>)
   26edc:	2102      	movs	r1, #2
   26ede:	2200      	movs	r2, #0
   26ee0:	4613      	mov	r3, r2
   26ee2:	df04      	svc	4
   26ee4:	e013      	b.n	26f0e <_ZN20complex_dynamic_type3app17he28b68a5b15cbb1cE+0x9e>
   26ee6:	a81a      	add	r0, sp, #104	@ 0x68
   26ee8:	2103      	movs	r1, #3
   26eea:	7001      	strb	r1, [r0, #0]
   26eec:	4835      	ldr	r0, [pc, #212]	@ (26fc4 <_ZN20complex_dynamic_type3app17he28b68a5b15cbb1cE+0x154>)
   26eee:	2602      	movs	r6, #2
   26ef0:	2300      	movs	r3, #0
   26ef2:	4631      	mov	r1, r6
   26ef4:	4632      	mov	r2, r6
   26ef6:	9302      	str	r3, [sp, #8]
   26ef8:	df02      	svc	2
   26efa:	2880      	cmp	r0, #128	@ 0x80
   26efc:	d21b      	bcs.n	26f36 <_ZN20complex_dynamic_type3app17he28b68a5b15cbb1cE+0xc6>
   26efe:	2001      	movs	r0, #1
   26f00:	7028      	strb	r0, [r5, #0]
   26f02:	6069      	str	r1, [r5, #4]
   26f04:	482f      	ldr	r0, [pc, #188]	@ (26fc4 <_ZN20complex_dynamic_type3app17he28b68a5b15cbb1cE+0x154>)
   26f06:	2102      	movs	r1, #2
   26f08:	2200      	movs	r2, #0
   26f0a:	4613      	mov	r3, r2
   26f0c:	df03      	svc	3
   26f0e:	a804      	add	r0, sp, #16
   26f10:	7800      	ldrb	r0, [r0, #0]
   26f12:	2802      	cmp	r0, #2
   26f14:	d047      	beq.n	26fa6 <_ZN20complex_dynamic_type3app17he28b68a5b15cbb1cE+0x136>
   26f16:	2804      	cmp	r0, #4
   26f18:	d106      	bne.n	26f28 <_ZN20complex_dynamic_type3app17he28b68a5b15cbb1cE+0xb8>
   26f1a:	482a      	ldr	r0, [pc, #168]	@ (26fc4 <_ZN20complex_dynamic_type3app17he28b68a5b15cbb1cE+0x154>)
   26f1c:	2102      	movs	r1, #2
   26f1e:	2200      	movs	r2, #0
   26f20:	4613      	mov	r3, r2
   26f22:	df04      	svc	4
   26f24:	b01f      	add	sp, #124	@ 0x7c
   26f26:	bdf0      	pop	{r4, r5, r6, r7, pc}
   26f28:	4826      	ldr	r0, [pc, #152]	@ (26fc4 <_ZN20complex_dynamic_type3app17he28b68a5b15cbb1cE+0x154>)
   26f2a:	2102      	movs	r1, #2
   26f2c:	2200      	movs	r2, #0
   26f2e:	4613      	mov	r3, r2
   26f30:	df03      	svc	3
   26f32:	b01f      	add	sp, #124	@ 0x7c
   26f34:	bdf0      	pop	{r4, r5, r6, r7, pc}
   26f36:	a804      	add	r0, sp, #16
   26f38:	7800      	ldrb	r0, [r0, #0]
   26f3a:	2802      	cmp	r0, #2
   26f3c:	d00c      	beq.n	26f58 <_ZN20complex_dynamic_type3app17he28b68a5b15cbb1cE+0xe8>
   26f3e:	2803      	cmp	r0, #3
   26f40:	d105      	bne.n	26f4e <_ZN20complex_dynamic_type3app17he28b68a5b15cbb1cE+0xde>
   26f42:	4820      	ldr	r0, [pc, #128]	@ (26fc4 <_ZN20complex_dynamic_type3app17he28b68a5b15cbb1cE+0x154>)
   26f44:	2102      	movs	r1, #2
   26f46:	2200      	movs	r2, #0
   26f48:	4613      	mov	r3, r2
   26f4a:	df03      	svc	3
   26f4c:	e004      	b.n	26f58 <_ZN20complex_dynamic_type3app17he28b68a5b15cbb1cE+0xe8>
   26f4e:	481d      	ldr	r0, [pc, #116]	@ (26fc4 <_ZN20complex_dynamic_type3app17he28b68a5b15cbb1cE+0x154>)
   26f50:	2102      	movs	r1, #2
   26f52:	2200      	movs	r2, #0
   26f54:	4613      	mov	r3, r2
   26f56:	df04      	svc	4
   26f58:	a804      	add	r0, sp, #16
   26f5a:	7006      	strb	r6, [r0, #0]
   26f5c:	a81a      	add	r0, sp, #104	@ 0x68
   26f5e:	7800      	ldrb	r0, [r0, #0]
   26f60:	2804      	cmp	r0, #4
   26f62:	d008      	beq.n	26f76 <_ZN20complex_dynamic_type3app17he28b68a5b15cbb1cE+0x106>
   26f64:	2803      	cmp	r0, #3
   26f66:	d120      	bne.n	26faa <_ZN20complex_dynamic_type3app17he28b68a5b15cbb1cE+0x13a>
   26f68:	4626      	mov	r6, r4
   26f6a:	4816      	ldr	r0, [pc, #88]	@ (26fc4 <_ZN20complex_dynamic_type3app17he28b68a5b15cbb1cE+0x154>)
   26f6c:	2102      	movs	r1, #2
   26f6e:	2200      	movs	r2, #0
   26f70:	4613      	mov	r3, r2
   26f72:	df03      	svc	3
   26f74:	e005      	b.n	26f82 <_ZN20complex_dynamic_type3app17he28b68a5b15cbb1cE+0x112>
   26f76:	4626      	mov	r6, r4
   26f78:	4812      	ldr	r0, [pc, #72]	@ (26fc4 <_ZN20complex_dynamic_type3app17he28b68a5b15cbb1cE+0x154>)
   26f7a:	2102      	movs	r1, #2
   26f7c:	2200      	movs	r2, #0
   26f7e:	4613      	mov	r3, r2
   26f80:	df04      	svc	4
   26f82:	a804      	add	r0, sp, #16
   26f84:	7804      	ldrb	r4, [r0, #0]
   26f86:	1c68      	adds	r0, r5, #1
   26f88:	2211      	movs	r2, #17
   26f8a:	4631      	mov	r1, r6
   26f8c:	f004 f8ba 	bl	2b104 <__aeabi_memcpy>
   26f90:	9802      	ldr	r0, [sp, #8]
   26f92:	7028      	strb	r0, [r5, #0]
   26f94:	2c02      	cmp	r4, #2
   26f96:	d006      	beq.n	26fa6 <_ZN20complex_dynamic_type3app17he28b68a5b15cbb1cE+0x136>
   26f98:	480a      	ldr	r0, [pc, #40]	@ (26fc4 <_ZN20complex_dynamic_type3app17he28b68a5b15cbb1cE+0x154>)
   26f9a:	2102      	movs	r1, #2
   26f9c:	2200      	movs	r2, #0
   26f9e:	4613      	mov	r3, r2
   26fa0:	2c04      	cmp	r4, #4
   26fa2:	d10b      	bne.n	26fbc <_ZN20complex_dynamic_type3app17he28b68a5b15cbb1cE+0x14c>
   26fa4:	df04      	svc	4
   26fa6:	b01f      	add	sp, #124	@ 0x7c
   26fa8:	bdf0      	pop	{r4, r5, r6, r7, pc}
   26faa:	1c68      	adds	r0, r5, #1
   26fac:	2211      	movs	r2, #17
   26fae:	4621      	mov	r1, r4
   26fb0:	f004 f8a8 	bl	2b104 <__aeabi_memcpy>
   26fb4:	9802      	ldr	r0, [sp, #8]
   26fb6:	7028      	strb	r0, [r5, #0]
   26fb8:	b01f      	add	sp, #124	@ 0x7c
   26fba:	bdf0      	pop	{r4, r5, r6, r7, pc}
   26fbc:	df03      	svc	3
   26fbe:	b01f      	add	sp, #124	@ 0x7c
   26fc0:	bdf0      	pop	{r4, r5, r6, r7, pc}
   26fc2:	46c0      	nop			@ (mov r8, r8)
   26fc4:	00000c89 	.word	0x00000c89

00026fc8 <_ZN20complex_dynamic_type3app17heaa292a6d498a706E>:
   26fc8:	b5f0      	push	{r4, r5, r6, r7, lr}
   26fca:	af03      	add	r7, sp, #12
   26fcc:	b0a1      	sub	sp, #132	@ 0x84
   26fce:	9004      	str	r0, [sp, #16]
   26fd0:	a805      	add	r0, sp, #20
   26fd2:	2402      	movs	r4, #2
   26fd4:	7004      	strb	r4, [r0, #0]
   26fd6:	1c46      	adds	r6, r0, #1
   26fd8:	223c      	movs	r2, #60	@ 0x3c
   26fda:	9203      	str	r2, [sp, #12]
   26fdc:	4630      	mov	r0, r6
   26fde:	f004 f891 	bl	2b104 <__aeabi_memcpy>
   26fe2:	ad15      	add	r5, sp, #84	@ 0x54
   26fe4:	1c68      	adds	r0, r5, #1
   26fe6:	212c      	movs	r1, #44	@ 0x2c
   26fe8:	9002      	str	r0, [sp, #8]
   26fea:	f003 fecb 	bl	2ad84 <__aeabi_memclr>
   26fee:	9401      	str	r4, [sp, #4]
   26ff0:	702c      	strb	r4, [r5, #0]
   26ff2:	4848      	ldr	r0, [pc, #288]	@ (27114 <_ZN20complex_dynamic_type3app17heaa292a6d498a706E+0x14c>)
   26ff4:	2105      	movs	r1, #5
   26ff6:	4632      	mov	r2, r6
   26ff8:	9b03      	ldr	r3, [sp, #12]
   26ffa:	df04      	svc	4
   26ffc:	2802      	cmp	r0, #2
   26ffe:	d104      	bne.n	2700a <_ZN20complex_dynamic_type3app17heaa292a6d498a706E+0x42>
   27000:	2001      	movs	r0, #1
   27002:	9a04      	ldr	r2, [sp, #16]
   27004:	7010      	strb	r0, [r2, #0]
   27006:	6051      	str	r1, [r2, #4]
   27008:	e02d      	b.n	27066 <_ZN20complex_dynamic_type3app17heaa292a6d498a706E+0x9e>
   2700a:	9d04      	ldr	r5, [sp, #16]
   2700c:	a805      	add	r0, sp, #20
   2700e:	2104      	movs	r1, #4
   27010:	7001      	strb	r1, [r0, #0]
   27012:	4840      	ldr	r0, [pc, #256]	@ (27114 <_ZN20complex_dynamic_type3app17heaa292a6d498a706E+0x14c>)
   27014:	2107      	movs	r1, #7
   27016:	232c      	movs	r3, #44	@ 0x2c
   27018:	9c02      	ldr	r4, [sp, #8]
   2701a:	4622      	mov	r2, r4
   2701c:	df03      	svc	3
   2701e:	2802      	cmp	r0, #2
   27020:	d10e      	bne.n	27040 <_ZN20complex_dynamic_type3app17heaa292a6d498a706E+0x78>
   27022:	2001      	movs	r0, #1
   27024:	7028      	strb	r0, [r5, #0]
   27026:	6069      	str	r1, [r5, #4]
   27028:	a815      	add	r0, sp, #84	@ 0x54
   2702a:	7800      	ldrb	r0, [r0, #0]
   2702c:	2802      	cmp	r0, #2
   2702e:	d01a      	beq.n	27066 <_ZN20complex_dynamic_type3app17heaa292a6d498a706E+0x9e>
   27030:	2803      	cmp	r0, #3
   27032:	d013      	beq.n	2705c <_ZN20complex_dynamic_type3app17heaa292a6d498a706E+0x94>
   27034:	4837      	ldr	r0, [pc, #220]	@ (27114 <_ZN20complex_dynamic_type3app17heaa292a6d498a706E+0x14c>)
   27036:	2107      	movs	r1, #7
   27038:	2200      	movs	r2, #0
   2703a:	4613      	mov	r3, r2
   2703c:	df04      	svc	4
   2703e:	e012      	b.n	27066 <_ZN20complex_dynamic_type3app17heaa292a6d498a706E+0x9e>
   27040:	a815      	add	r0, sp, #84	@ 0x54
   27042:	2103      	movs	r1, #3
   27044:	7001      	strb	r1, [r0, #0]
   27046:	4833      	ldr	r0, [pc, #204]	@ (27114 <_ZN20complex_dynamic_type3app17heaa292a6d498a706E+0x14c>)
   27048:	2105      	movs	r1, #5
   2704a:	2207      	movs	r2, #7
   2704c:	2600      	movs	r6, #0
   2704e:	4633      	mov	r3, r6
   27050:	df02      	svc	2
   27052:	2880      	cmp	r0, #128	@ 0x80
   27054:	d21b      	bcs.n	2708e <_ZN20complex_dynamic_type3app17heaa292a6d498a706E+0xc6>
   27056:	2001      	movs	r0, #1
   27058:	7028      	strb	r0, [r5, #0]
   2705a:	6069      	str	r1, [r5, #4]
   2705c:	482d      	ldr	r0, [pc, #180]	@ (27114 <_ZN20complex_dynamic_type3app17heaa292a6d498a706E+0x14c>)
   2705e:	2107      	movs	r1, #7
   27060:	2200      	movs	r2, #0
   27062:	4613      	mov	r3, r2
   27064:	df03      	svc	3
   27066:	a805      	add	r0, sp, #20
   27068:	7800      	ldrb	r0, [r0, #0]
   2706a:	2802      	cmp	r0, #2
   2706c:	d045      	beq.n	270fa <_ZN20complex_dynamic_type3app17heaa292a6d498a706E+0x132>
   2706e:	2804      	cmp	r0, #4
   27070:	d106      	bne.n	27080 <_ZN20complex_dynamic_type3app17heaa292a6d498a706E+0xb8>
   27072:	4828      	ldr	r0, [pc, #160]	@ (27114 <_ZN20complex_dynamic_type3app17heaa292a6d498a706E+0x14c>)
   27074:	2105      	movs	r1, #5
   27076:	2200      	movs	r2, #0
   27078:	4613      	mov	r3, r2
   2707a:	df04      	svc	4
   2707c:	b021      	add	sp, #132	@ 0x84
   2707e:	bdf0      	pop	{r4, r5, r6, r7, pc}
   27080:	4824      	ldr	r0, [pc, #144]	@ (27114 <_ZN20complex_dynamic_type3app17heaa292a6d498a706E+0x14c>)
   27082:	2105      	movs	r1, #5
   27084:	2200      	movs	r2, #0
   27086:	4613      	mov	r3, r2
   27088:	df03      	svc	3
   2708a:	b021      	add	sp, #132	@ 0x84
   2708c:	bdf0      	pop	{r4, r5, r6, r7, pc}
   2708e:	a805      	add	r0, sp, #20
   27090:	7800      	ldrb	r0, [r0, #0]
   27092:	2802      	cmp	r0, #2
   27094:	d00c      	beq.n	270b0 <_ZN20complex_dynamic_type3app17heaa292a6d498a706E+0xe8>
   27096:	2803      	cmp	r0, #3
   27098:	d105      	bne.n	270a6 <_ZN20complex_dynamic_type3app17heaa292a6d498a706E+0xde>
   2709a:	481e      	ldr	r0, [pc, #120]	@ (27114 <_ZN20complex_dynamic_type3app17heaa292a6d498a706E+0x14c>)
   2709c:	2105      	movs	r1, #5
   2709e:	2200      	movs	r2, #0
   270a0:	4613      	mov	r3, r2
   270a2:	df03      	svc	3
   270a4:	e004      	b.n	270b0 <_ZN20complex_dynamic_type3app17heaa292a6d498a706E+0xe8>
   270a6:	481b      	ldr	r0, [pc, #108]	@ (27114 <_ZN20complex_dynamic_type3app17heaa292a6d498a706E+0x14c>)
   270a8:	2105      	movs	r1, #5
   270aa:	2200      	movs	r2, #0
   270ac:	4613      	mov	r3, r2
   270ae:	df04      	svc	4
   270b0:	a805      	add	r0, sp, #20
   270b2:	9901      	ldr	r1, [sp, #4]
   270b4:	7001      	strb	r1, [r0, #0]
   270b6:	a815      	add	r0, sp, #84	@ 0x54
   270b8:	7800      	ldrb	r0, [r0, #0]
   270ba:	2804      	cmp	r0, #4
   270bc:	d007      	beq.n	270ce <_ZN20complex_dynamic_type3app17heaa292a6d498a706E+0x106>
   270be:	2803      	cmp	r0, #3
   270c0:	d11d      	bne.n	270fe <_ZN20complex_dynamic_type3app17heaa292a6d498a706E+0x136>
   270c2:	4814      	ldr	r0, [pc, #80]	@ (27114 <_ZN20complex_dynamic_type3app17heaa292a6d498a706E+0x14c>)
   270c4:	2107      	movs	r1, #7
   270c6:	2200      	movs	r2, #0
   270c8:	4613      	mov	r3, r2
   270ca:	df03      	svc	3
   270cc:	e004      	b.n	270d8 <_ZN20complex_dynamic_type3app17heaa292a6d498a706E+0x110>
   270ce:	4811      	ldr	r0, [pc, #68]	@ (27114 <_ZN20complex_dynamic_type3app17heaa292a6d498a706E+0x14c>)
   270d0:	2107      	movs	r1, #7
   270d2:	2200      	movs	r2, #0
   270d4:	4613      	mov	r3, r2
   270d6:	df04      	svc	4
   270d8:	a805      	add	r0, sp, #20
   270da:	7804      	ldrb	r4, [r0, #0]
   270dc:	1c68      	adds	r0, r5, #1
   270de:	222c      	movs	r2, #44	@ 0x2c
   270e0:	9902      	ldr	r1, [sp, #8]
   270e2:	f004 f80f 	bl	2b104 <__aeabi_memcpy>
   270e6:	702e      	strb	r6, [r5, #0]
   270e8:	2c02      	cmp	r4, #2
   270ea:	d006      	beq.n	270fa <_ZN20complex_dynamic_type3app17heaa292a6d498a706E+0x132>
   270ec:	4809      	ldr	r0, [pc, #36]	@ (27114 <_ZN20complex_dynamic_type3app17heaa292a6d498a706E+0x14c>)
   270ee:	2105      	movs	r1, #5
   270f0:	2200      	movs	r2, #0
   270f2:	4613      	mov	r3, r2
   270f4:	2c04      	cmp	r4, #4
   270f6:	d10a      	bne.n	2710e <_ZN20complex_dynamic_type3app17heaa292a6d498a706E+0x146>
   270f8:	df04      	svc	4
   270fa:	b021      	add	sp, #132	@ 0x84
   270fc:	bdf0      	pop	{r4, r5, r6, r7, pc}
   270fe:	1c68      	adds	r0, r5, #1
   27100:	222c      	movs	r2, #44	@ 0x2c
   27102:	4621      	mov	r1, r4
   27104:	f003 fffe 	bl	2b104 <__aeabi_memcpy>
   27108:	702e      	strb	r6, [r5, #0]
   2710a:	b021      	add	sp, #132	@ 0x84
   2710c:	bdf0      	pop	{r4, r5, r6, r7, pc}
   2710e:	df03      	svc	3
   27110:	b021      	add	sp, #132	@ 0x84
   27112:	bdf0      	pop	{r4, r5, r6, r7, pc}
   27114:	00001eac 	.word	0x00001eac

00027118 <_ZN20complex_dynamic_type3app17heacacf66186a69abE>:
   27118:	b5f0      	push	{r4, r5, r6, r7, lr}
   2711a:	af03      	add	r7, sp, #12
   2711c:	b095      	sub	sp, #84	@ 0x54
   2711e:	9003      	str	r0, [sp, #12]
   27120:	a804      	add	r0, sp, #16
   27122:	2502      	movs	r5, #2
   27124:	7005      	strb	r5, [r0, #0]
   27126:	1c40      	adds	r0, r0, #1
   27128:	9002      	str	r0, [sp, #8]
   2712a:	2625      	movs	r6, #37	@ 0x25
   2712c:	4632      	mov	r2, r6
   2712e:	f003 ffe9 	bl	2b104 <__aeabi_memcpy>
   27132:	ac0e      	add	r4, sp, #56	@ 0x38
   27134:	1c60      	adds	r0, r4, #1
   27136:	2118      	movs	r1, #24
   27138:	9001      	str	r0, [sp, #4]
   2713a:	f003 fe23 	bl	2ad84 <__aeabi_memclr>
   2713e:	9500      	str	r5, [sp, #0]
   27140:	7025      	strb	r5, [r4, #0]
   27142:	20a7      	movs	r0, #167	@ 0xa7
   27144:	0104      	lsls	r4, r0, #4
   27146:	2109      	movs	r1, #9
   27148:	4620      	mov	r0, r4
   2714a:	9a02      	ldr	r2, [sp, #8]
   2714c:	4633      	mov	r3, r6
   2714e:	df04      	svc	4
   27150:	2802      	cmp	r0, #2
   27152:	d104      	bne.n	2715e <_ZN20complex_dynamic_type3app17heacacf66186a69abE+0x46>
   27154:	2001      	movs	r0, #1
   27156:	9a03      	ldr	r2, [sp, #12]
   27158:	7010      	strb	r0, [r2, #0]
   2715a:	6051      	str	r1, [r2, #4]
   2715c:	e02d      	b.n	271ba <_ZN20complex_dynamic_type3app17heacacf66186a69abE+0xa2>
   2715e:	9e03      	ldr	r6, [sp, #12]
   27160:	a804      	add	r0, sp, #16
   27162:	2104      	movs	r1, #4
   27164:	7001      	strb	r1, [r0, #0]
   27166:	2108      	movs	r1, #8
   27168:	2318      	movs	r3, #24
   2716a:	4620      	mov	r0, r4
   2716c:	9d01      	ldr	r5, [sp, #4]
   2716e:	462a      	mov	r2, r5
   27170:	df03      	svc	3
   27172:	2802      	cmp	r0, #2
   27174:	d10e      	bne.n	27194 <_ZN20complex_dynamic_type3app17heacacf66186a69abE+0x7c>
   27176:	2001      	movs	r0, #1
   27178:	7030      	strb	r0, [r6, #0]
   2717a:	6071      	str	r1, [r6, #4]
   2717c:	a80e      	add	r0, sp, #56	@ 0x38
   2717e:	7800      	ldrb	r0, [r0, #0]
   27180:	2802      	cmp	r0, #2
   27182:	d01a      	beq.n	271ba <_ZN20complex_dynamic_type3app17heacacf66186a69abE+0xa2>
   27184:	2803      	cmp	r0, #3
   27186:	d013      	beq.n	271b0 <_ZN20complex_dynamic_type3app17heacacf66186a69abE+0x98>
   27188:	2108      	movs	r1, #8
   2718a:	2200      	movs	r2, #0
   2718c:	4620      	mov	r0, r4
   2718e:	4613      	mov	r3, r2
   27190:	df04      	svc	4
   27192:	e012      	b.n	271ba <_ZN20complex_dynamic_type3app17heacacf66186a69abE+0xa2>
   27194:	a80e      	add	r0, sp, #56	@ 0x38
   27196:	2103      	movs	r1, #3
   27198:	7001      	strb	r1, [r0, #0]
   2719a:	2109      	movs	r1, #9
   2719c:	2208      	movs	r2, #8
   2719e:	2300      	movs	r3, #0
   271a0:	4620      	mov	r0, r4
   271a2:	9302      	str	r3, [sp, #8]
   271a4:	df02      	svc	2
   271a6:	2880      	cmp	r0, #128	@ 0x80
   271a8:	d219      	bcs.n	271de <_ZN20complex_dynamic_type3app17heacacf66186a69abE+0xc6>
   271aa:	2001      	movs	r0, #1
   271ac:	7030      	strb	r0, [r6, #0]
   271ae:	6071      	str	r1, [r6, #4]
   271b0:	2108      	movs	r1, #8
   271b2:	2200      	movs	r2, #0
   271b4:	4620      	mov	r0, r4
   271b6:	4613      	mov	r3, r2
   271b8:	df03      	svc	3
   271ba:	a804      	add	r0, sp, #16
   271bc:	7800      	ldrb	r0, [r0, #0]
   271be:	2802      	cmp	r0, #2
   271c0:	d044      	beq.n	2724c <_ZN20complex_dynamic_type3app17heacacf66186a69abE+0x134>
   271c2:	2109      	movs	r1, #9
   271c4:	2200      	movs	r2, #0
   271c6:	2804      	cmp	r0, #4
   271c8:	d104      	bne.n	271d4 <_ZN20complex_dynamic_type3app17heacacf66186a69abE+0xbc>
   271ca:	4620      	mov	r0, r4
   271cc:	4613      	mov	r3, r2
   271ce:	df04      	svc	4
   271d0:	b015      	add	sp, #84	@ 0x54
   271d2:	bdf0      	pop	{r4, r5, r6, r7, pc}
   271d4:	4620      	mov	r0, r4
   271d6:	4613      	mov	r3, r2
   271d8:	df03      	svc	3
   271da:	b015      	add	sp, #84	@ 0x54
   271dc:	bdf0      	pop	{r4, r5, r6, r7, pc}
   271de:	a804      	add	r0, sp, #16
   271e0:	7800      	ldrb	r0, [r0, #0]
   271e2:	2802      	cmp	r0, #2
   271e4:	d00a      	beq.n	271fc <_ZN20complex_dynamic_type3app17heacacf66186a69abE+0xe4>
   271e6:	2109      	movs	r1, #9
   271e8:	2200      	movs	r2, #0
   271ea:	2803      	cmp	r0, #3
   271ec:	d103      	bne.n	271f6 <_ZN20complex_dynamic_type3app17heacacf66186a69abE+0xde>
   271ee:	4620      	mov	r0, r4
   271f0:	4613      	mov	r3, r2
   271f2:	df03      	svc	3
   271f4:	e002      	b.n	271fc <_ZN20complex_dynamic_type3app17heacacf66186a69abE+0xe4>
   271f6:	4620      	mov	r0, r4
   271f8:	4613      	mov	r3, r2
   271fa:	df04      	svc	4
   271fc:	a804      	add	r0, sp, #16
   271fe:	9900      	ldr	r1, [sp, #0]
   27200:	7001      	strb	r1, [r0, #0]
   27202:	a80e      	add	r0, sp, #56	@ 0x38
   27204:	7800      	ldrb	r0, [r0, #0]
   27206:	2804      	cmp	r0, #4
   27208:	d008      	beq.n	2721c <_ZN20complex_dynamic_type3app17heacacf66186a69abE+0x104>
   2720a:	2803      	cmp	r0, #3
   2720c:	d120      	bne.n	27250 <_ZN20complex_dynamic_type3app17heacacf66186a69abE+0x138>
   2720e:	2108      	movs	r1, #8
   27210:	2200      	movs	r2, #0
   27212:	9400      	str	r4, [sp, #0]
   27214:	4620      	mov	r0, r4
   27216:	4613      	mov	r3, r2
   27218:	df03      	svc	3
   2721a:	e005      	b.n	27228 <_ZN20complex_dynamic_type3app17heacacf66186a69abE+0x110>
   2721c:	2108      	movs	r1, #8
   2721e:	2200      	movs	r2, #0
   27220:	9400      	str	r4, [sp, #0]
   27222:	4620      	mov	r0, r4
   27224:	4613      	mov	r3, r2
   27226:	df04      	svc	4
   27228:	a804      	add	r0, sp, #16
   2722a:	7804      	ldrb	r4, [r0, #0]
   2722c:	1c70      	adds	r0, r6, #1
   2722e:	2218      	movs	r2, #24
   27230:	4629      	mov	r1, r5
   27232:	f003 ff67 	bl	2b104 <__aeabi_memcpy>
   27236:	9802      	ldr	r0, [sp, #8]
   27238:	7030      	strb	r0, [r6, #0]
   2723a:	2c02      	cmp	r4, #2
   2723c:	d006      	beq.n	2724c <_ZN20complex_dynamic_type3app17heacacf66186a69abE+0x134>
   2723e:	2c04      	cmp	r4, #4
   27240:	d10f      	bne.n	27262 <_ZN20complex_dynamic_type3app17heacacf66186a69abE+0x14a>
   27242:	2109      	movs	r1, #9
   27244:	2200      	movs	r2, #0
   27246:	9800      	ldr	r0, [sp, #0]
   27248:	4613      	mov	r3, r2
   2724a:	df04      	svc	4
   2724c:	b015      	add	sp, #84	@ 0x54
   2724e:	bdf0      	pop	{r4, r5, r6, r7, pc}
   27250:	1c70      	adds	r0, r6, #1
   27252:	2218      	movs	r2, #24
   27254:	4629      	mov	r1, r5
   27256:	f003 ff55 	bl	2b104 <__aeabi_memcpy>
   2725a:	9802      	ldr	r0, [sp, #8]
   2725c:	7030      	strb	r0, [r6, #0]
   2725e:	b015      	add	sp, #84	@ 0x54
   27260:	bdf0      	pop	{r4, r5, r6, r7, pc}
   27262:	9800      	ldr	r0, [sp, #0]
   27264:	2109      	movs	r1, #9
   27266:	2200      	movs	r2, #0
   27268:	4613      	mov	r3, r2
   2726a:	df03      	svc	3
   2726c:	b015      	add	sp, #84	@ 0x54
   2726e:	bdf0      	pop	{r4, r5, r6, r7, pc}

00027270 <_ZN20complex_dynamic_type3app17heb3b2d72c6ffa5e0E>:
   27270:	b5f0      	push	{r4, r5, r6, r7, lr}
   27272:	af03      	add	r7, sp, #12
   27274:	b0a3      	sub	sp, #140	@ 0x8c
   27276:	9003      	str	r0, [sp, #12]
   27278:	a804      	add	r0, sp, #16
   2727a:	2402      	movs	r4, #2
   2727c:	7004      	strb	r4, [r0, #0]
   2727e:	1c46      	adds	r6, r0, #1
   27280:	2227      	movs	r2, #39	@ 0x27
   27282:	9202      	str	r2, [sp, #8]
   27284:	4630      	mov	r0, r6
   27286:	f003 ff3d 	bl	2b104 <__aeabi_memcpy>
   2728a:	ad0e      	add	r5, sp, #56	@ 0x38
   2728c:	1c68      	adds	r0, r5, #1
   2728e:	2151      	movs	r1, #81	@ 0x51
   27290:	9001      	str	r0, [sp, #4]
   27292:	f003 fd77 	bl	2ad84 <__aeabi_memclr>
   27296:	9400      	str	r4, [sp, #0]
   27298:	702c      	strb	r4, [r5, #0]
   2729a:	4848      	ldr	r0, [pc, #288]	@ (273bc <_ZN20complex_dynamic_type3app17heb3b2d72c6ffa5e0E+0x14c>)
   2729c:	2100      	movs	r1, #0
   2729e:	4632      	mov	r2, r6
   272a0:	9b02      	ldr	r3, [sp, #8]
   272a2:	df04      	svc	4
   272a4:	2802      	cmp	r0, #2
   272a6:	d104      	bne.n	272b2 <_ZN20complex_dynamic_type3app17heb3b2d72c6ffa5e0E+0x42>
   272a8:	2001      	movs	r0, #1
   272aa:	9a03      	ldr	r2, [sp, #12]
   272ac:	7010      	strb	r0, [r2, #0]
   272ae:	6051      	str	r1, [r2, #4]
   272b0:	e02c      	b.n	2730c <_ZN20complex_dynamic_type3app17heb3b2d72c6ffa5e0E+0x9c>
   272b2:	9d03      	ldr	r5, [sp, #12]
   272b4:	a804      	add	r0, sp, #16
   272b6:	2104      	movs	r1, #4
   272b8:	7001      	strb	r1, [r0, #0]
   272ba:	4840      	ldr	r0, [pc, #256]	@ (273bc <_ZN20complex_dynamic_type3app17heb3b2d72c6ffa5e0E+0x14c>)
   272bc:	2351      	movs	r3, #81	@ 0x51
   272be:	9c01      	ldr	r4, [sp, #4]
   272c0:	4622      	mov	r2, r4
   272c2:	df03      	svc	3
   272c4:	2802      	cmp	r0, #2
   272c6:	d10e      	bne.n	272e6 <_ZN20complex_dynamic_type3app17heb3b2d72c6ffa5e0E+0x76>
   272c8:	2001      	movs	r0, #1
   272ca:	7028      	strb	r0, [r5, #0]
   272cc:	6069      	str	r1, [r5, #4]
   272ce:	a80e      	add	r0, sp, #56	@ 0x38
   272d0:	7800      	ldrb	r0, [r0, #0]
   272d2:	2802      	cmp	r0, #2
   272d4:	d01a      	beq.n	2730c <_ZN20complex_dynamic_type3app17heb3b2d72c6ffa5e0E+0x9c>
   272d6:	2803      	cmp	r0, #3
   272d8:	d013      	beq.n	27302 <_ZN20complex_dynamic_type3app17heb3b2d72c6ffa5e0E+0x92>
   272da:	4838      	ldr	r0, [pc, #224]	@ (273bc <_ZN20complex_dynamic_type3app17heb3b2d72c6ffa5e0E+0x14c>)
   272dc:	2104      	movs	r1, #4
   272de:	2200      	movs	r2, #0
   272e0:	4613      	mov	r3, r2
   272e2:	df04      	svc	4
   272e4:	e012      	b.n	2730c <_ZN20complex_dynamic_type3app17heb3b2d72c6ffa5e0E+0x9c>
   272e6:	a80e      	add	r0, sp, #56	@ 0x38
   272e8:	2103      	movs	r1, #3
   272ea:	7001      	strb	r1, [r0, #0]
   272ec:	4833      	ldr	r0, [pc, #204]	@ (273bc <_ZN20complex_dynamic_type3app17heb3b2d72c6ffa5e0E+0x14c>)
   272ee:	2204      	movs	r2, #4
   272f0:	2600      	movs	r6, #0
   272f2:	4631      	mov	r1, r6
   272f4:	4633      	mov	r3, r6
   272f6:	df02      	svc	2
   272f8:	2880      	cmp	r0, #128	@ 0x80
   272fa:	d21b      	bcs.n	27334 <_ZN20complex_dynamic_type3app17heb3b2d72c6ffa5e0E+0xc4>
   272fc:	2001      	movs	r0, #1
   272fe:	7028      	strb	r0, [r5, #0]
   27300:	6069      	str	r1, [r5, #4]
   27302:	482e      	ldr	r0, [pc, #184]	@ (273bc <_ZN20complex_dynamic_type3app17heb3b2d72c6ffa5e0E+0x14c>)
   27304:	2104      	movs	r1, #4
   27306:	2200      	movs	r2, #0
   27308:	4613      	mov	r3, r2
   2730a:	df03      	svc	3
   2730c:	a804      	add	r0, sp, #16
   2730e:	7800      	ldrb	r0, [r0, #0]
   27310:	2802      	cmp	r0, #2
   27312:	d045      	beq.n	273a0 <_ZN20complex_dynamic_type3app17heb3b2d72c6ffa5e0E+0x130>
   27314:	2804      	cmp	r0, #4
   27316:	d106      	bne.n	27326 <_ZN20complex_dynamic_type3app17heb3b2d72c6ffa5e0E+0xb6>
   27318:	4828      	ldr	r0, [pc, #160]	@ (273bc <_ZN20complex_dynamic_type3app17heb3b2d72c6ffa5e0E+0x14c>)
   2731a:	2100      	movs	r1, #0
   2731c:	460a      	mov	r2, r1
   2731e:	460b      	mov	r3, r1
   27320:	df04      	svc	4
   27322:	b023      	add	sp, #140	@ 0x8c
   27324:	bdf0      	pop	{r4, r5, r6, r7, pc}
   27326:	4825      	ldr	r0, [pc, #148]	@ (273bc <_ZN20complex_dynamic_type3app17heb3b2d72c6ffa5e0E+0x14c>)
   27328:	2100      	movs	r1, #0
   2732a:	460a      	mov	r2, r1
   2732c:	460b      	mov	r3, r1
   2732e:	df03      	svc	3
   27330:	b023      	add	sp, #140	@ 0x8c
   27332:	bdf0      	pop	{r4, r5, r6, r7, pc}
   27334:	a804      	add	r0, sp, #16
   27336:	7800      	ldrb	r0, [r0, #0]
   27338:	2802      	cmp	r0, #2
   2733a:	d00c      	beq.n	27356 <_ZN20complex_dynamic_type3app17heb3b2d72c6ffa5e0E+0xe6>
   2733c:	2803      	cmp	r0, #3
   2733e:	d105      	bne.n	2734c <_ZN20complex_dynamic_type3app17heb3b2d72c6ffa5e0E+0xdc>
   27340:	481e      	ldr	r0, [pc, #120]	@ (273bc <_ZN20complex_dynamic_type3app17heb3b2d72c6ffa5e0E+0x14c>)
   27342:	2100      	movs	r1, #0
   27344:	460a      	mov	r2, r1
   27346:	460b      	mov	r3, r1
   27348:	df03      	svc	3
   2734a:	e004      	b.n	27356 <_ZN20complex_dynamic_type3app17heb3b2d72c6ffa5e0E+0xe6>
   2734c:	481b      	ldr	r0, [pc, #108]	@ (273bc <_ZN20complex_dynamic_type3app17heb3b2d72c6ffa5e0E+0x14c>)
   2734e:	2100      	movs	r1, #0
   27350:	460a      	mov	r2, r1
   27352:	460b      	mov	r3, r1
   27354:	df04      	svc	4
   27356:	a804      	add	r0, sp, #16
   27358:	9900      	ldr	r1, [sp, #0]
   2735a:	7001      	strb	r1, [r0, #0]
   2735c:	a80e      	add	r0, sp, #56	@ 0x38
   2735e:	7800      	ldrb	r0, [r0, #0]
   27360:	2804      	cmp	r0, #4
   27362:	d007      	beq.n	27374 <_ZN20complex_dynamic_type3app17heb3b2d72c6ffa5e0E+0x104>
   27364:	2803      	cmp	r0, #3
   27366:	d11d      	bne.n	273a4 <_ZN20complex_dynamic_type3app17heb3b2d72c6ffa5e0E+0x134>
   27368:	4814      	ldr	r0, [pc, #80]	@ (273bc <_ZN20complex_dynamic_type3app17heb3b2d72c6ffa5e0E+0x14c>)
   2736a:	2104      	movs	r1, #4
   2736c:	2200      	movs	r2, #0
   2736e:	4613      	mov	r3, r2
   27370:	df03      	svc	3
   27372:	e004      	b.n	2737e <_ZN20complex_dynamic_type3app17heb3b2d72c6ffa5e0E+0x10e>
   27374:	4811      	ldr	r0, [pc, #68]	@ (273bc <_ZN20complex_dynamic_type3app17heb3b2d72c6ffa5e0E+0x14c>)
   27376:	2104      	movs	r1, #4
   27378:	2200      	movs	r2, #0
   2737a:	4613      	mov	r3, r2
   2737c:	df04      	svc	4
   2737e:	a804      	add	r0, sp, #16
   27380:	7804      	ldrb	r4, [r0, #0]
   27382:	1c68      	adds	r0, r5, #1
   27384:	2251      	movs	r2, #81	@ 0x51
   27386:	9901      	ldr	r1, [sp, #4]
   27388:	f003 febc 	bl	2b104 <__aeabi_memcpy>
   2738c:	702e      	strb	r6, [r5, #0]
   2738e:	2c02      	cmp	r4, #2
   27390:	d006      	beq.n	273a0 <_ZN20complex_dynamic_type3app17heb3b2d72c6ffa5e0E+0x130>
   27392:	480a      	ldr	r0, [pc, #40]	@ (273bc <_ZN20complex_dynamic_type3app17heb3b2d72c6ffa5e0E+0x14c>)
   27394:	2100      	movs	r1, #0
   27396:	460a      	mov	r2, r1
   27398:	460b      	mov	r3, r1
   2739a:	2c04      	cmp	r4, #4
   2739c:	d10a      	bne.n	273b4 <_ZN20complex_dynamic_type3app17heb3b2d72c6ffa5e0E+0x144>
   2739e:	df04      	svc	4
   273a0:	b023      	add	sp, #140	@ 0x8c
   273a2:	bdf0      	pop	{r4, r5, r6, r7, pc}
   273a4:	1c68      	adds	r0, r5, #1
   273a6:	2251      	movs	r2, #81	@ 0x51
   273a8:	4621      	mov	r1, r4
   273aa:	f003 feab 	bl	2b104 <__aeabi_memcpy>
   273ae:	702e      	strb	r6, [r5, #0]
   273b0:	b023      	add	sp, #140	@ 0x8c
   273b2:	bdf0      	pop	{r4, r5, r6, r7, pc}
   273b4:	df03      	svc	3
   273b6:	b023      	add	sp, #140	@ 0x8c
   273b8:	bdf0      	pop	{r4, r5, r6, r7, pc}
   273ba:	46c0      	nop			@ (mov r8, r8)
   273bc:	00000a36 	.word	0x00000a36

000273c0 <_ZN20complex_dynamic_type3app17hefbe4250dbf88137E>:
   273c0:	b5f0      	push	{r4, r5, r6, r7, lr}
   273c2:	af03      	add	r7, sp, #12
   273c4:	b0a3      	sub	sp, #140	@ 0x8c
   273c6:	9004      	str	r0, [sp, #16]
   273c8:	a805      	add	r0, sp, #20
   273ca:	2402      	movs	r4, #2
   273cc:	7004      	strb	r4, [r0, #0]
   273ce:	1c46      	adds	r6, r0, #1
   273d0:	2227      	movs	r2, #39	@ 0x27
   273d2:	9203      	str	r2, [sp, #12]
   273d4:	4630      	mov	r0, r6
   273d6:	f003 fe95 	bl	2b104 <__aeabi_memcpy>
   273da:	ad0f      	add	r5, sp, #60	@ 0x3c
   273dc:	1c68      	adds	r0, r5, #1
   273de:	214f      	movs	r1, #79	@ 0x4f
   273e0:	9002      	str	r0, [sp, #8]
   273e2:	f003 fccf 	bl	2ad84 <__aeabi_memclr>
   273e6:	9401      	str	r4, [sp, #4]
   273e8:	702c      	strb	r4, [r5, #0]
   273ea:	4848      	ldr	r0, [pc, #288]	@ (2750c <_ZN20complex_dynamic_type3app17hefbe4250dbf88137E+0x14c>)
   273ec:	2109      	movs	r1, #9
   273ee:	4632      	mov	r2, r6
   273f0:	9b03      	ldr	r3, [sp, #12]
   273f2:	df04      	svc	4
   273f4:	2802      	cmp	r0, #2
   273f6:	d104      	bne.n	27402 <_ZN20complex_dynamic_type3app17hefbe4250dbf88137E+0x42>
   273f8:	2001      	movs	r0, #1
   273fa:	9a04      	ldr	r2, [sp, #16]
   273fc:	7010      	strb	r0, [r2, #0]
   273fe:	6051      	str	r1, [r2, #4]
   27400:	e02d      	b.n	2745e <_ZN20complex_dynamic_type3app17hefbe4250dbf88137E+0x9e>
   27402:	9d04      	ldr	r5, [sp, #16]
   27404:	a805      	add	r0, sp, #20
   27406:	2104      	movs	r1, #4
   27408:	7001      	strb	r1, [r0, #0]
   2740a:	4840      	ldr	r0, [pc, #256]	@ (2750c <_ZN20complex_dynamic_type3app17hefbe4250dbf88137E+0x14c>)
   2740c:	2100      	movs	r1, #0
   2740e:	234f      	movs	r3, #79	@ 0x4f
   27410:	9c02      	ldr	r4, [sp, #8]
   27412:	4622      	mov	r2, r4
   27414:	df03      	svc	3
   27416:	2802      	cmp	r0, #2
   27418:	d10e      	bne.n	27438 <_ZN20complex_dynamic_type3app17hefbe4250dbf88137E+0x78>
   2741a:	2001      	movs	r0, #1
   2741c:	7028      	strb	r0, [r5, #0]
   2741e:	6069      	str	r1, [r5, #4]
   27420:	a80f      	add	r0, sp, #60	@ 0x3c
   27422:	7800      	ldrb	r0, [r0, #0]
   27424:	2802      	cmp	r0, #2
   27426:	d01a      	beq.n	2745e <_ZN20complex_dynamic_type3app17hefbe4250dbf88137E+0x9e>
   27428:	2803      	cmp	r0, #3
   2742a:	d013      	beq.n	27454 <_ZN20complex_dynamic_type3app17hefbe4250dbf88137E+0x94>
   2742c:	4837      	ldr	r0, [pc, #220]	@ (2750c <_ZN20complex_dynamic_type3app17hefbe4250dbf88137E+0x14c>)
   2742e:	2100      	movs	r1, #0
   27430:	460a      	mov	r2, r1
   27432:	460b      	mov	r3, r1
   27434:	df04      	svc	4
   27436:	e012      	b.n	2745e <_ZN20complex_dynamic_type3app17hefbe4250dbf88137E+0x9e>
   27438:	a80f      	add	r0, sp, #60	@ 0x3c
   2743a:	2103      	movs	r1, #3
   2743c:	7001      	strb	r1, [r0, #0]
   2743e:	4833      	ldr	r0, [pc, #204]	@ (2750c <_ZN20complex_dynamic_type3app17hefbe4250dbf88137E+0x14c>)
   27440:	2109      	movs	r1, #9
   27442:	2600      	movs	r6, #0
   27444:	4632      	mov	r2, r6
   27446:	4633      	mov	r3, r6
   27448:	df02      	svc	2
   2744a:	2880      	cmp	r0, #128	@ 0x80
   2744c:	d21b      	bcs.n	27486 <_ZN20complex_dynamic_type3app17hefbe4250dbf88137E+0xc6>
   2744e:	2001      	movs	r0, #1
   27450:	7028      	strb	r0, [r5, #0]
   27452:	6069      	str	r1, [r5, #4]
   27454:	482d      	ldr	r0, [pc, #180]	@ (2750c <_ZN20complex_dynamic_type3app17hefbe4250dbf88137E+0x14c>)
   27456:	2100      	movs	r1, #0
   27458:	460a      	mov	r2, r1
   2745a:	460b      	mov	r3, r1
   2745c:	df03      	svc	3
   2745e:	a805      	add	r0, sp, #20
   27460:	7800      	ldrb	r0, [r0, #0]
   27462:	2802      	cmp	r0, #2
   27464:	d045      	beq.n	274f2 <_ZN20complex_dynamic_type3app17hefbe4250dbf88137E+0x132>
   27466:	2804      	cmp	r0, #4
   27468:	d106      	bne.n	27478 <_ZN20complex_dynamic_type3app17hefbe4250dbf88137E+0xb8>
   2746a:	4828      	ldr	r0, [pc, #160]	@ (2750c <_ZN20complex_dynamic_type3app17hefbe4250dbf88137E+0x14c>)
   2746c:	2109      	movs	r1, #9
   2746e:	2200      	movs	r2, #0
   27470:	4613      	mov	r3, r2
   27472:	df04      	svc	4
   27474:	b023      	add	sp, #140	@ 0x8c
   27476:	bdf0      	pop	{r4, r5, r6, r7, pc}
   27478:	4824      	ldr	r0, [pc, #144]	@ (2750c <_ZN20complex_dynamic_type3app17hefbe4250dbf88137E+0x14c>)
   2747a:	2109      	movs	r1, #9
   2747c:	2200      	movs	r2, #0
   2747e:	4613      	mov	r3, r2
   27480:	df03      	svc	3
   27482:	b023      	add	sp, #140	@ 0x8c
   27484:	bdf0      	pop	{r4, r5, r6, r7, pc}
   27486:	a805      	add	r0, sp, #20
   27488:	7800      	ldrb	r0, [r0, #0]
   2748a:	2802      	cmp	r0, #2
   2748c:	d00c      	beq.n	274a8 <_ZN20complex_dynamic_type3app17hefbe4250dbf88137E+0xe8>
   2748e:	2803      	cmp	r0, #3
   27490:	d105      	bne.n	2749e <_ZN20complex_dynamic_type3app17hefbe4250dbf88137E+0xde>
   27492:	481e      	ldr	r0, [pc, #120]	@ (2750c <_ZN20complex_dynamic_type3app17hefbe4250dbf88137E+0x14c>)
   27494:	2109      	movs	r1, #9
   27496:	2200      	movs	r2, #0
   27498:	4613      	mov	r3, r2
   2749a:	df03      	svc	3
   2749c:	e004      	b.n	274a8 <_ZN20complex_dynamic_type3app17hefbe4250dbf88137E+0xe8>
   2749e:	481b      	ldr	r0, [pc, #108]	@ (2750c <_ZN20complex_dynamic_type3app17hefbe4250dbf88137E+0x14c>)
   274a0:	2109      	movs	r1, #9
   274a2:	2200      	movs	r2, #0
   274a4:	4613      	mov	r3, r2
   274a6:	df04      	svc	4
   274a8:	a805      	add	r0, sp, #20
   274aa:	9901      	ldr	r1, [sp, #4]
   274ac:	7001      	strb	r1, [r0, #0]
   274ae:	a80f      	add	r0, sp, #60	@ 0x3c
   274b0:	7800      	ldrb	r0, [r0, #0]
   274b2:	2804      	cmp	r0, #4
   274b4:	d007      	beq.n	274c6 <_ZN20complex_dynamic_type3app17hefbe4250dbf88137E+0x106>
   274b6:	2803      	cmp	r0, #3
   274b8:	d11d      	bne.n	274f6 <_ZN20complex_dynamic_type3app17hefbe4250dbf88137E+0x136>
   274ba:	4814      	ldr	r0, [pc, #80]	@ (2750c <_ZN20complex_dynamic_type3app17hefbe4250dbf88137E+0x14c>)
   274bc:	2100      	movs	r1, #0
   274be:	460a      	mov	r2, r1
   274c0:	460b      	mov	r3, r1
   274c2:	df03      	svc	3
   274c4:	e004      	b.n	274d0 <_ZN20complex_dynamic_type3app17hefbe4250dbf88137E+0x110>
   274c6:	4811      	ldr	r0, [pc, #68]	@ (2750c <_ZN20complex_dynamic_type3app17hefbe4250dbf88137E+0x14c>)
   274c8:	2100      	movs	r1, #0
   274ca:	460a      	mov	r2, r1
   274cc:	460b      	mov	r3, r1
   274ce:	df04      	svc	4
   274d0:	a805      	add	r0, sp, #20
   274d2:	7804      	ldrb	r4, [r0, #0]
   274d4:	1c68      	adds	r0, r5, #1
   274d6:	224f      	movs	r2, #79	@ 0x4f
   274d8:	9902      	ldr	r1, [sp, #8]
   274da:	f003 fe13 	bl	2b104 <__aeabi_memcpy>
   274de:	702e      	strb	r6, [r5, #0]
   274e0:	2c02      	cmp	r4, #2
   274e2:	d006      	beq.n	274f2 <_ZN20complex_dynamic_type3app17hefbe4250dbf88137E+0x132>
   274e4:	4809      	ldr	r0, [pc, #36]	@ (2750c <_ZN20complex_dynamic_type3app17hefbe4250dbf88137E+0x14c>)
   274e6:	2109      	movs	r1, #9
   274e8:	2200      	movs	r2, #0
   274ea:	4613      	mov	r3, r2
   274ec:	2c04      	cmp	r4, #4
   274ee:	d10a      	bne.n	27506 <_ZN20complex_dynamic_type3app17hefbe4250dbf88137E+0x146>
   274f0:	df04      	svc	4
   274f2:	b023      	add	sp, #140	@ 0x8c
   274f4:	bdf0      	pop	{r4, r5, r6, r7, pc}
   274f6:	1c68      	adds	r0, r5, #1
   274f8:	224f      	movs	r2, #79	@ 0x4f
   274fa:	4621      	mov	r1, r4
   274fc:	f003 fe02 	bl	2b104 <__aeabi_memcpy>
   27500:	702e      	strb	r6, [r5, #0]
   27502:	b023      	add	sp, #140	@ 0x8c
   27504:	bdf0      	pop	{r4, r5, r6, r7, pc}
   27506:	df03      	svc	3
   27508:	b023      	add	sp, #140	@ 0x8c
   2750a:	bdf0      	pop	{r4, r5, r6, r7, pc}
   2750c:	00000b4c 	.word	0x00000b4c

00027510 <_ZN20complex_dynamic_type3app17hf23865a7303ef08eE>:
   27510:	b5f0      	push	{r4, r5, r6, r7, lr}
   27512:	af03      	add	r7, sp, #12
   27514:	b0a1      	sub	sp, #132	@ 0x84
   27516:	9003      	str	r0, [sp, #12]
   27518:	a804      	add	r0, sp, #16
   2751a:	2502      	movs	r5, #2
   2751c:	7005      	strb	r5, [r0, #0]
   2751e:	1c40      	adds	r0, r0, #1
   27520:	9002      	str	r0, [sp, #8]
   27522:	2638      	movs	r6, #56	@ 0x38
   27524:	4632      	mov	r2, r6
   27526:	f003 fded 	bl	2b104 <__aeabi_memcpy>
   2752a:	ac13      	add	r4, sp, #76	@ 0x4c
   2752c:	1c60      	adds	r0, r4, #1
   2752e:	2134      	movs	r1, #52	@ 0x34
   27530:	9001      	str	r0, [sp, #4]
   27532:	f003 fc27 	bl	2ad84 <__aeabi_memclr>
   27536:	9500      	str	r5, [sp, #0]
   27538:	7025      	strb	r5, [r4, #0]
   2753a:	2097      	movs	r0, #151	@ 0x97
   2753c:	0044      	lsls	r4, r0, #1
   2753e:	2108      	movs	r1, #8
   27540:	4620      	mov	r0, r4
   27542:	9a02      	ldr	r2, [sp, #8]
   27544:	4633      	mov	r3, r6
   27546:	df04      	svc	4
   27548:	2802      	cmp	r0, #2
   2754a:	d104      	bne.n	27556 <_ZN20complex_dynamic_type3app17hf23865a7303ef08eE+0x46>
   2754c:	2001      	movs	r0, #1
   2754e:	9a03      	ldr	r2, [sp, #12]
   27550:	7010      	strb	r0, [r2, #0]
   27552:	6051      	str	r1, [r2, #4]
   27554:	e02c      	b.n	275b0 <_ZN20complex_dynamic_type3app17hf23865a7303ef08eE+0xa0>
   27556:	9e03      	ldr	r6, [sp, #12]
   27558:	a804      	add	r0, sp, #16
   2755a:	2104      	movs	r1, #4
   2755c:	7001      	strb	r1, [r0, #0]
   2755e:	2503      	movs	r5, #3
   27560:	2334      	movs	r3, #52	@ 0x34
   27562:	4620      	mov	r0, r4
   27564:	4629      	mov	r1, r5
   27566:	9a01      	ldr	r2, [sp, #4]
   27568:	df03      	svc	3
   2756a:	2802      	cmp	r0, #2
   2756c:	d10e      	bne.n	2758c <_ZN20complex_dynamic_type3app17hf23865a7303ef08eE+0x7c>
   2756e:	2001      	movs	r0, #1
   27570:	7030      	strb	r0, [r6, #0]
   27572:	6071      	str	r1, [r6, #4]
   27574:	a813      	add	r0, sp, #76	@ 0x4c
   27576:	7800      	ldrb	r0, [r0, #0]
   27578:	2802      	cmp	r0, #2
   2757a:	d019      	beq.n	275b0 <_ZN20complex_dynamic_type3app17hf23865a7303ef08eE+0xa0>
   2757c:	2803      	cmp	r0, #3
   2757e:	d012      	beq.n	275a6 <_ZN20complex_dynamic_type3app17hf23865a7303ef08eE+0x96>
   27580:	2103      	movs	r1, #3
   27582:	2200      	movs	r2, #0
   27584:	4620      	mov	r0, r4
   27586:	4613      	mov	r3, r2
   27588:	df04      	svc	4
   2758a:	e011      	b.n	275b0 <_ZN20complex_dynamic_type3app17hf23865a7303ef08eE+0xa0>
   2758c:	a813      	add	r0, sp, #76	@ 0x4c
   2758e:	7005      	strb	r5, [r0, #0]
   27590:	2108      	movs	r1, #8
   27592:	2300      	movs	r3, #0
   27594:	4620      	mov	r0, r4
   27596:	462a      	mov	r2, r5
   27598:	461d      	mov	r5, r3
   2759a:	df02      	svc	2
   2759c:	2880      	cmp	r0, #128	@ 0x80
   2759e:	d219      	bcs.n	275d4 <_ZN20complex_dynamic_type3app17hf23865a7303ef08eE+0xc4>
   275a0:	2001      	movs	r0, #1
   275a2:	7030      	strb	r0, [r6, #0]
   275a4:	6071      	str	r1, [r6, #4]
   275a6:	2103      	movs	r1, #3
   275a8:	2200      	movs	r2, #0
   275aa:	4620      	mov	r0, r4
   275ac:	4613      	mov	r3, r2
   275ae:	df03      	svc	3
   275b0:	a804      	add	r0, sp, #16
   275b2:	7800      	ldrb	r0, [r0, #0]
   275b4:	2802      	cmp	r0, #2
   275b6:	d043      	beq.n	27640 <_ZN20complex_dynamic_type3app17hf23865a7303ef08eE+0x130>
   275b8:	2108      	movs	r1, #8
   275ba:	2200      	movs	r2, #0
   275bc:	2804      	cmp	r0, #4
   275be:	d104      	bne.n	275ca <_ZN20complex_dynamic_type3app17hf23865a7303ef08eE+0xba>
   275c0:	4620      	mov	r0, r4
   275c2:	4613      	mov	r3, r2
   275c4:	df04      	svc	4
   275c6:	b021      	add	sp, #132	@ 0x84
   275c8:	bdf0      	pop	{r4, r5, r6, r7, pc}
   275ca:	4620      	mov	r0, r4
   275cc:	4613      	mov	r3, r2
   275ce:	df03      	svc	3
   275d0:	b021      	add	sp, #132	@ 0x84
   275d2:	bdf0      	pop	{r4, r5, r6, r7, pc}
   275d4:	a804      	add	r0, sp, #16
   275d6:	7800      	ldrb	r0, [r0, #0]
   275d8:	2802      	cmp	r0, #2
   275da:	d00a      	beq.n	275f2 <_ZN20complex_dynamic_type3app17hf23865a7303ef08eE+0xe2>
   275dc:	2108      	movs	r1, #8
   275de:	2200      	movs	r2, #0
   275e0:	2803      	cmp	r0, #3
   275e2:	d103      	bne.n	275ec <_ZN20complex_dynamic_type3app17hf23865a7303ef08eE+0xdc>
   275e4:	4620      	mov	r0, r4
   275e6:	4613      	mov	r3, r2
   275e8:	df03      	svc	3
   275ea:	e002      	b.n	275f2 <_ZN20complex_dynamic_type3app17hf23865a7303ef08eE+0xe2>
   275ec:	4620      	mov	r0, r4
   275ee:	4613      	mov	r3, r2
   275f0:	df04      	svc	4
   275f2:	a804      	add	r0, sp, #16
   275f4:	9900      	ldr	r1, [sp, #0]
   275f6:	7001      	strb	r1, [r0, #0]
   275f8:	a813      	add	r0, sp, #76	@ 0x4c
   275fa:	7800      	ldrb	r0, [r0, #0]
   275fc:	2804      	cmp	r0, #4
   275fe:	d008      	beq.n	27612 <_ZN20complex_dynamic_type3app17hf23865a7303ef08eE+0x102>
   27600:	2803      	cmp	r0, #3
   27602:	d11f      	bne.n	27644 <_ZN20complex_dynamic_type3app17hf23865a7303ef08eE+0x134>
   27604:	2103      	movs	r1, #3
   27606:	2200      	movs	r2, #0
   27608:	9402      	str	r4, [sp, #8]
   2760a:	4620      	mov	r0, r4
   2760c:	4613      	mov	r3, r2
   2760e:	df03      	svc	3
   27610:	e005      	b.n	2761e <_ZN20complex_dynamic_type3app17hf23865a7303ef08eE+0x10e>
   27612:	2103      	movs	r1, #3
   27614:	2200      	movs	r2, #0
   27616:	9402      	str	r4, [sp, #8]
   27618:	4620      	mov	r0, r4
   2761a:	4613      	mov	r3, r2
   2761c:	df04      	svc	4
   2761e:	a804      	add	r0, sp, #16
   27620:	7804      	ldrb	r4, [r0, #0]
   27622:	1c70      	adds	r0, r6, #1
   27624:	2234      	movs	r2, #52	@ 0x34
   27626:	9901      	ldr	r1, [sp, #4]
   27628:	f003 fd6c 	bl	2b104 <__aeabi_memcpy>
   2762c:	7035      	strb	r5, [r6, #0]
   2762e:	2c02      	cmp	r4, #2
   27630:	d006      	beq.n	27640 <_ZN20complex_dynamic_type3app17hf23865a7303ef08eE+0x130>
   27632:	2c04      	cmp	r4, #4
   27634:	d10e      	bne.n	27654 <_ZN20complex_dynamic_type3app17hf23865a7303ef08eE+0x144>
   27636:	2108      	movs	r1, #8
   27638:	2200      	movs	r2, #0
   2763a:	9802      	ldr	r0, [sp, #8]
   2763c:	4613      	mov	r3, r2
   2763e:	df04      	svc	4
   27640:	b021      	add	sp, #132	@ 0x84
   27642:	bdf0      	pop	{r4, r5, r6, r7, pc}
   27644:	9901      	ldr	r1, [sp, #4]
   27646:	1c70      	adds	r0, r6, #1
   27648:	2234      	movs	r2, #52	@ 0x34
   2764a:	f003 fd5b 	bl	2b104 <__aeabi_memcpy>
   2764e:	7035      	strb	r5, [r6, #0]
   27650:	b021      	add	sp, #132	@ 0x84
   27652:	bdf0      	pop	{r4, r5, r6, r7, pc}
   27654:	9802      	ldr	r0, [sp, #8]
   27656:	2108      	movs	r1, #8
   27658:	2200      	movs	r2, #0
   2765a:	4613      	mov	r3, r2
   2765c:	df03      	svc	3
   2765e:	b021      	add	sp, #132	@ 0x84
   27660:	bdf0      	pop	{r4, r5, r6, r7, pc}
   27662:	d4d4      	bmi.n	2760e <_ZN20complex_dynamic_type3app17hf23865a7303ef08eE+0xfe>

00027664 <_ZN20complex_dynamic_type3app17hf4f3ff01787e75eaE>:
   27664:	b5f0      	push	{r4, r5, r6, r7, lr}
   27666:	af03      	add	r7, sp, #12
   27668:	b0a9      	sub	sp, #164	@ 0xa4
   2766a:	9003      	str	r0, [sp, #12]
   2766c:	a804      	add	r0, sp, #16
   2766e:	2402      	movs	r4, #2
   27670:	7004      	strb	r4, [r0, #0]
   27672:	1c40      	adds	r0, r0, #1
   27674:	9002      	str	r0, [sp, #8]
   27676:	2550      	movs	r5, #80	@ 0x50
   27678:	462a      	mov	r2, r5
   2767a:	f003 fd43 	bl	2b104 <__aeabi_memcpy>
   2767e:	ae19      	add	r6, sp, #100	@ 0x64
   27680:	1c70      	adds	r0, r6, #1
   27682:	213c      	movs	r1, #60	@ 0x3c
   27684:	9001      	str	r0, [sp, #4]
   27686:	f003 fb7d 	bl	2ad84 <__aeabi_memclr>
   2768a:	9400      	str	r4, [sp, #0]
   2768c:	7034      	strb	r4, [r6, #0]
   2768e:	484a      	ldr	r0, [pc, #296]	@ (277b8 <_ZN20complex_dynamic_type3app17hf4f3ff01787e75eaE+0x154>)
   27690:	2603      	movs	r6, #3
   27692:	4631      	mov	r1, r6
   27694:	9a02      	ldr	r2, [sp, #8]
   27696:	462b      	mov	r3, r5
   27698:	df04      	svc	4
   2769a:	2802      	cmp	r0, #2
   2769c:	d104      	bne.n	276a8 <_ZN20complex_dynamic_type3app17hf4f3ff01787e75eaE+0x44>
   2769e:	2001      	movs	r0, #1
   276a0:	9a03      	ldr	r2, [sp, #12]
   276a2:	7010      	strb	r0, [r2, #0]
   276a4:	6051      	str	r1, [r2, #4]
   276a6:	e02c      	b.n	27702 <_ZN20complex_dynamic_type3app17hf4f3ff01787e75eaE+0x9e>
   276a8:	9d03      	ldr	r5, [sp, #12]
   276aa:	a804      	add	r0, sp, #16
   276ac:	2104      	movs	r1, #4
   276ae:	7001      	strb	r1, [r0, #0]
   276b0:	4841      	ldr	r0, [pc, #260]	@ (277b8 <_ZN20complex_dynamic_type3app17hf4f3ff01787e75eaE+0x154>)
   276b2:	2109      	movs	r1, #9
   276b4:	233c      	movs	r3, #60	@ 0x3c
   276b6:	9c01      	ldr	r4, [sp, #4]
   276b8:	4622      	mov	r2, r4
   276ba:	df03      	svc	3
   276bc:	2802      	cmp	r0, #2
   276be:	d10e      	bne.n	276de <_ZN20complex_dynamic_type3app17hf4f3ff01787e75eaE+0x7a>
   276c0:	2001      	movs	r0, #1
   276c2:	7028      	strb	r0, [r5, #0]
   276c4:	6069      	str	r1, [r5, #4]
   276c6:	a819      	add	r0, sp, #100	@ 0x64
   276c8:	7800      	ldrb	r0, [r0, #0]
   276ca:	2802      	cmp	r0, #2
   276cc:	d019      	beq.n	27702 <_ZN20complex_dynamic_type3app17hf4f3ff01787e75eaE+0x9e>
   276ce:	2803      	cmp	r0, #3
   276d0:	d012      	beq.n	276f8 <_ZN20complex_dynamic_type3app17hf4f3ff01787e75eaE+0x94>
   276d2:	4839      	ldr	r0, [pc, #228]	@ (277b8 <_ZN20complex_dynamic_type3app17hf4f3ff01787e75eaE+0x154>)
   276d4:	2109      	movs	r1, #9
   276d6:	2200      	movs	r2, #0
   276d8:	4613      	mov	r3, r2
   276da:	df04      	svc	4
   276dc:	e011      	b.n	27702 <_ZN20complex_dynamic_type3app17hf4f3ff01787e75eaE+0x9e>
   276de:	a819      	add	r0, sp, #100	@ 0x64
   276e0:	7006      	strb	r6, [r0, #0]
   276e2:	4835      	ldr	r0, [pc, #212]	@ (277b8 <_ZN20complex_dynamic_type3app17hf4f3ff01787e75eaE+0x154>)
   276e4:	2209      	movs	r2, #9
   276e6:	2300      	movs	r3, #0
   276e8:	4631      	mov	r1, r6
   276ea:	9302      	str	r3, [sp, #8]
   276ec:	df02      	svc	2
   276ee:	2880      	cmp	r0, #128	@ 0x80
   276f0:	d21b      	bcs.n	2772a <_ZN20complex_dynamic_type3app17hf4f3ff01787e75eaE+0xc6>
   276f2:	2001      	movs	r0, #1
   276f4:	7028      	strb	r0, [r5, #0]
   276f6:	6069      	str	r1, [r5, #4]
   276f8:	482f      	ldr	r0, [pc, #188]	@ (277b8 <_ZN20complex_dynamic_type3app17hf4f3ff01787e75eaE+0x154>)
   276fa:	2109      	movs	r1, #9
   276fc:	2200      	movs	r2, #0
   276fe:	4613      	mov	r3, r2
   27700:	df03      	svc	3
   27702:	a804      	add	r0, sp, #16
   27704:	7800      	ldrb	r0, [r0, #0]
   27706:	2802      	cmp	r0, #2
   27708:	d048      	beq.n	2779c <_ZN20complex_dynamic_type3app17hf4f3ff01787e75eaE+0x138>
   2770a:	2804      	cmp	r0, #4
   2770c:	d106      	bne.n	2771c <_ZN20complex_dynamic_type3app17hf4f3ff01787e75eaE+0xb8>
   2770e:	482a      	ldr	r0, [pc, #168]	@ (277b8 <_ZN20complex_dynamic_type3app17hf4f3ff01787e75eaE+0x154>)
   27710:	2103      	movs	r1, #3
   27712:	2200      	movs	r2, #0
   27714:	4613      	mov	r3, r2
   27716:	df04      	svc	4
   27718:	b029      	add	sp, #164	@ 0xa4
   2771a:	bdf0      	pop	{r4, r5, r6, r7, pc}
   2771c:	4826      	ldr	r0, [pc, #152]	@ (277b8 <_ZN20complex_dynamic_type3app17hf4f3ff01787e75eaE+0x154>)
   2771e:	2103      	movs	r1, #3
   27720:	2200      	movs	r2, #0
   27722:	4613      	mov	r3, r2
   27724:	df03      	svc	3
   27726:	b029      	add	sp, #164	@ 0xa4
   27728:	bdf0      	pop	{r4, r5, r6, r7, pc}
   2772a:	a804      	add	r0, sp, #16
   2772c:	7800      	ldrb	r0, [r0, #0]
   2772e:	2802      	cmp	r0, #2
   27730:	d00c      	beq.n	2774c <_ZN20complex_dynamic_type3app17hf4f3ff01787e75eaE+0xe8>
   27732:	2803      	cmp	r0, #3
   27734:	d105      	bne.n	27742 <_ZN20complex_dynamic_type3app17hf4f3ff01787e75eaE+0xde>
   27736:	4820      	ldr	r0, [pc, #128]	@ (277b8 <_ZN20complex_dynamic_type3app17hf4f3ff01787e75eaE+0x154>)
   27738:	2103      	movs	r1, #3
   2773a:	2200      	movs	r2, #0
   2773c:	4613      	mov	r3, r2
   2773e:	df03      	svc	3
   27740:	e004      	b.n	2774c <_ZN20complex_dynamic_type3app17hf4f3ff01787e75eaE+0xe8>
   27742:	481d      	ldr	r0, [pc, #116]	@ (277b8 <_ZN20complex_dynamic_type3app17hf4f3ff01787e75eaE+0x154>)
   27744:	2103      	movs	r1, #3
   27746:	2200      	movs	r2, #0
   27748:	4613      	mov	r3, r2
   2774a:	df04      	svc	4
   2774c:	a804      	add	r0, sp, #16
   2774e:	9900      	ldr	r1, [sp, #0]
   27750:	7001      	strb	r1, [r0, #0]
   27752:	a819      	add	r0, sp, #100	@ 0x64
   27754:	7800      	ldrb	r0, [r0, #0]
   27756:	2804      	cmp	r0, #4
   27758:	d008      	beq.n	2776c <_ZN20complex_dynamic_type3app17hf4f3ff01787e75eaE+0x108>
   2775a:	2803      	cmp	r0, #3
   2775c:	d120      	bne.n	277a0 <_ZN20complex_dynamic_type3app17hf4f3ff01787e75eaE+0x13c>
   2775e:	4626      	mov	r6, r4
   27760:	4815      	ldr	r0, [pc, #84]	@ (277b8 <_ZN20complex_dynamic_type3app17hf4f3ff01787e75eaE+0x154>)
   27762:	2109      	movs	r1, #9
   27764:	2200      	movs	r2, #0
   27766:	4613      	mov	r3, r2
   27768:	df03      	svc	3
   2776a:	e005      	b.n	27778 <_ZN20complex_dynamic_type3app17hf4f3ff01787e75eaE+0x114>
   2776c:	4626      	mov	r6, r4
   2776e:	4812      	ldr	r0, [pc, #72]	@ (277b8 <_ZN20complex_dynamic_type3app17hf4f3ff01787e75eaE+0x154>)
   27770:	2109      	movs	r1, #9
   27772:	2200      	movs	r2, #0
   27774:	4613      	mov	r3, r2
   27776:	df04      	svc	4
   27778:	a804      	add	r0, sp, #16
   2777a:	7804      	ldrb	r4, [r0, #0]
   2777c:	1c68      	adds	r0, r5, #1
   2777e:	223c      	movs	r2, #60	@ 0x3c
   27780:	4631      	mov	r1, r6
   27782:	f003 fcbf 	bl	2b104 <__aeabi_memcpy>
   27786:	9802      	ldr	r0, [sp, #8]
   27788:	7028      	strb	r0, [r5, #0]
   2778a:	2c02      	cmp	r4, #2
   2778c:	d006      	beq.n	2779c <_ZN20complex_dynamic_type3app17hf4f3ff01787e75eaE+0x138>
   2778e:	480a      	ldr	r0, [pc, #40]	@ (277b8 <_ZN20complex_dynamic_type3app17hf4f3ff01787e75eaE+0x154>)
   27790:	2103      	movs	r1, #3
   27792:	2200      	movs	r2, #0
   27794:	4613      	mov	r3, r2
   27796:	2c04      	cmp	r4, #4
   27798:	d10b      	bne.n	277b2 <_ZN20complex_dynamic_type3app17hf4f3ff01787e75eaE+0x14e>
   2779a:	df04      	svc	4
   2779c:	b029      	add	sp, #164	@ 0xa4
   2779e:	bdf0      	pop	{r4, r5, r6, r7, pc}
   277a0:	1c68      	adds	r0, r5, #1
   277a2:	223c      	movs	r2, #60	@ 0x3c
   277a4:	4621      	mov	r1, r4
   277a6:	f003 fcad 	bl	2b104 <__aeabi_memcpy>
   277aa:	9802      	ldr	r0, [sp, #8]
   277ac:	7028      	strb	r0, [r5, #0]
   277ae:	b029      	add	sp, #164	@ 0xa4
   277b0:	bdf0      	pop	{r4, r5, r6, r7, pc}
   277b2:	df03      	svc	3
   277b4:	b029      	add	sp, #164	@ 0xa4
   277b6:	bdf0      	pop	{r4, r5, r6, r7, pc}
   277b8:	00000d7a 	.word	0x00000d7a

000277bc <_ZN20complex_dynamic_type3app17hf961a00621740485E>:
   277bc:	b5f0      	push	{r4, r5, r6, r7, lr}
   277be:	af03      	add	r7, sp, #12
   277c0:	b0af      	sub	sp, #188	@ 0xbc
   277c2:	9004      	str	r0, [sp, #16]
   277c4:	a805      	add	r0, sp, #20
   277c6:	2402      	movs	r4, #2
   277c8:	7004      	strb	r4, [r0, #0]
   277ca:	1c46      	adds	r6, r0, #1
   277cc:	2259      	movs	r2, #89	@ 0x59
   277ce:	9203      	str	r2, [sp, #12]
   277d0:	4630      	mov	r0, r6
   277d2:	f003 fc97 	bl	2b104 <__aeabi_memcpy>
   277d6:	ad1c      	add	r5, sp, #112	@ 0x70
   277d8:	1c68      	adds	r0, r5, #1
   277da:	214a      	movs	r1, #74	@ 0x4a
   277dc:	9002      	str	r0, [sp, #8]
   277de:	f003 fad1 	bl	2ad84 <__aeabi_memclr>
   277e2:	9401      	str	r4, [sp, #4]
   277e4:	702c      	strb	r4, [r5, #0]
   277e6:	4848      	ldr	r0, [pc, #288]	@ (27908 <_ZN20complex_dynamic_type3app17hf961a00621740485E+0x14c>)
   277e8:	2100      	movs	r1, #0
   277ea:	4632      	mov	r2, r6
   277ec:	9b03      	ldr	r3, [sp, #12]
   277ee:	df04      	svc	4
   277f0:	2802      	cmp	r0, #2
   277f2:	d104      	bne.n	277fe <_ZN20complex_dynamic_type3app17hf961a00621740485E+0x42>
   277f4:	2001      	movs	r0, #1
   277f6:	9a04      	ldr	r2, [sp, #16]
   277f8:	7010      	strb	r0, [r2, #0]
   277fa:	6051      	str	r1, [r2, #4]
   277fc:	e02c      	b.n	27858 <_ZN20complex_dynamic_type3app17hf961a00621740485E+0x9c>
   277fe:	9d04      	ldr	r5, [sp, #16]
   27800:	a805      	add	r0, sp, #20
   27802:	2104      	movs	r1, #4
   27804:	7001      	strb	r1, [r0, #0]
   27806:	4840      	ldr	r0, [pc, #256]	@ (27908 <_ZN20complex_dynamic_type3app17hf961a00621740485E+0x14c>)
   27808:	234a      	movs	r3, #74	@ 0x4a
   2780a:	9c02      	ldr	r4, [sp, #8]
   2780c:	4622      	mov	r2, r4
   2780e:	df03      	svc	3
   27810:	2802      	cmp	r0, #2
   27812:	d10e      	bne.n	27832 <_ZN20complex_dynamic_type3app17hf961a00621740485E+0x76>
   27814:	2001      	movs	r0, #1
   27816:	7028      	strb	r0, [r5, #0]
   27818:	6069      	str	r1, [r5, #4]
   2781a:	a81c      	add	r0, sp, #112	@ 0x70
   2781c:	7800      	ldrb	r0, [r0, #0]
   2781e:	2802      	cmp	r0, #2
   27820:	d01a      	beq.n	27858 <_ZN20complex_dynamic_type3app17hf961a00621740485E+0x9c>
   27822:	2803      	cmp	r0, #3
   27824:	d013      	beq.n	2784e <_ZN20complex_dynamic_type3app17hf961a00621740485E+0x92>
   27826:	4838      	ldr	r0, [pc, #224]	@ (27908 <_ZN20complex_dynamic_type3app17hf961a00621740485E+0x14c>)
   27828:	2104      	movs	r1, #4
   2782a:	2200      	movs	r2, #0
   2782c:	4613      	mov	r3, r2
   2782e:	df04      	svc	4
   27830:	e012      	b.n	27858 <_ZN20complex_dynamic_type3app17hf961a00621740485E+0x9c>
   27832:	a81c      	add	r0, sp, #112	@ 0x70
   27834:	2103      	movs	r1, #3
   27836:	7001      	strb	r1, [r0, #0]
   27838:	4833      	ldr	r0, [pc, #204]	@ (27908 <_ZN20complex_dynamic_type3app17hf961a00621740485E+0x14c>)
   2783a:	2204      	movs	r2, #4
   2783c:	2600      	movs	r6, #0
   2783e:	4631      	mov	r1, r6
   27840:	4633      	mov	r3, r6
   27842:	df02      	svc	2
   27844:	2880      	cmp	r0, #128	@ 0x80
   27846:	d21b      	bcs.n	27880 <_ZN20complex_dynamic_type3app17hf961a00621740485E+0xc4>
   27848:	2001      	movs	r0, #1
   2784a:	7028      	strb	r0, [r5, #0]
   2784c:	6069      	str	r1, [r5, #4]
   2784e:	482e      	ldr	r0, [pc, #184]	@ (27908 <_ZN20complex_dynamic_type3app17hf961a00621740485E+0x14c>)
   27850:	2104      	movs	r1, #4
   27852:	2200      	movs	r2, #0
   27854:	4613      	mov	r3, r2
   27856:	df03      	svc	3
   27858:	a805      	add	r0, sp, #20
   2785a:	7800      	ldrb	r0, [r0, #0]
   2785c:	2802      	cmp	r0, #2
   2785e:	d045      	beq.n	278ec <_ZN20complex_dynamic_type3app17hf961a00621740485E+0x130>
   27860:	2804      	cmp	r0, #4
   27862:	d106      	bne.n	27872 <_ZN20complex_dynamic_type3app17hf961a00621740485E+0xb6>
   27864:	4828      	ldr	r0, [pc, #160]	@ (27908 <_ZN20complex_dynamic_type3app17hf961a00621740485E+0x14c>)
   27866:	2100      	movs	r1, #0
   27868:	460a      	mov	r2, r1
   2786a:	460b      	mov	r3, r1
   2786c:	df04      	svc	4
   2786e:	b02f      	add	sp, #188	@ 0xbc
   27870:	bdf0      	pop	{r4, r5, r6, r7, pc}
   27872:	4825      	ldr	r0, [pc, #148]	@ (27908 <_ZN20complex_dynamic_type3app17hf961a00621740485E+0x14c>)
   27874:	2100      	movs	r1, #0
   27876:	460a      	mov	r2, r1
   27878:	460b      	mov	r3, r1
   2787a:	df03      	svc	3
   2787c:	b02f      	add	sp, #188	@ 0xbc
   2787e:	bdf0      	pop	{r4, r5, r6, r7, pc}
   27880:	a805      	add	r0, sp, #20
   27882:	7800      	ldrb	r0, [r0, #0]
   27884:	2802      	cmp	r0, #2
   27886:	d00c      	beq.n	278a2 <_ZN20complex_dynamic_type3app17hf961a00621740485E+0xe6>
   27888:	2803      	cmp	r0, #3
   2788a:	d105      	bne.n	27898 <_ZN20complex_dynamic_type3app17hf961a00621740485E+0xdc>
   2788c:	481e      	ldr	r0, [pc, #120]	@ (27908 <_ZN20complex_dynamic_type3app17hf961a00621740485E+0x14c>)
   2788e:	2100      	movs	r1, #0
   27890:	460a      	mov	r2, r1
   27892:	460b      	mov	r3, r1
   27894:	df03      	svc	3
   27896:	e004      	b.n	278a2 <_ZN20complex_dynamic_type3app17hf961a00621740485E+0xe6>
   27898:	481b      	ldr	r0, [pc, #108]	@ (27908 <_ZN20complex_dynamic_type3app17hf961a00621740485E+0x14c>)
   2789a:	2100      	movs	r1, #0
   2789c:	460a      	mov	r2, r1
   2789e:	460b      	mov	r3, r1
   278a0:	df04      	svc	4
   278a2:	a805      	add	r0, sp, #20
   278a4:	9901      	ldr	r1, [sp, #4]
   278a6:	7001      	strb	r1, [r0, #0]
   278a8:	a81c      	add	r0, sp, #112	@ 0x70
   278aa:	7800      	ldrb	r0, [r0, #0]
   278ac:	2804      	cmp	r0, #4
   278ae:	d007      	beq.n	278c0 <_ZN20complex_dynamic_type3app17hf961a00621740485E+0x104>
   278b0:	2803      	cmp	r0, #3
   278b2:	d11d      	bne.n	278f0 <_ZN20complex_dynamic_type3app17hf961a00621740485E+0x134>
   278b4:	4814      	ldr	r0, [pc, #80]	@ (27908 <_ZN20complex_dynamic_type3app17hf961a00621740485E+0x14c>)
   278b6:	2104      	movs	r1, #4
   278b8:	2200      	movs	r2, #0
   278ba:	4613      	mov	r3, r2
   278bc:	df03      	svc	3
   278be:	e004      	b.n	278ca <_ZN20complex_dynamic_type3app17hf961a00621740485E+0x10e>
   278c0:	4811      	ldr	r0, [pc, #68]	@ (27908 <_ZN20complex_dynamic_type3app17hf961a00621740485E+0x14c>)
   278c2:	2104      	movs	r1, #4
   278c4:	2200      	movs	r2, #0
   278c6:	4613      	mov	r3, r2
   278c8:	df04      	svc	4
   278ca:	a805      	add	r0, sp, #20
   278cc:	7804      	ldrb	r4, [r0, #0]
   278ce:	1c68      	adds	r0, r5, #1
   278d0:	224a      	movs	r2, #74	@ 0x4a
   278d2:	9902      	ldr	r1, [sp, #8]
   278d4:	f003 fc16 	bl	2b104 <__aeabi_memcpy>
   278d8:	702e      	strb	r6, [r5, #0]
   278da:	2c02      	cmp	r4, #2
   278dc:	d006      	beq.n	278ec <_ZN20complex_dynamic_type3app17hf961a00621740485E+0x130>
   278de:	480a      	ldr	r0, [pc, #40]	@ (27908 <_ZN20complex_dynamic_type3app17hf961a00621740485E+0x14c>)
   278e0:	2100      	movs	r1, #0
   278e2:	460a      	mov	r2, r1
   278e4:	460b      	mov	r3, r1
   278e6:	2c04      	cmp	r4, #4
   278e8:	d10a      	bne.n	27900 <_ZN20complex_dynamic_type3app17hf961a00621740485E+0x144>
   278ea:	df04      	svc	4
   278ec:	b02f      	add	sp, #188	@ 0xbc
   278ee:	bdf0      	pop	{r4, r5, r6, r7, pc}
   278f0:	1c68      	adds	r0, r5, #1
   278f2:	224a      	movs	r2, #74	@ 0x4a
   278f4:	4621      	mov	r1, r4
   278f6:	f003 fc05 	bl	2b104 <__aeabi_memcpy>
   278fa:	702e      	strb	r6, [r5, #0]
   278fc:	b02f      	add	sp, #188	@ 0xbc
   278fe:	bdf0      	pop	{r4, r5, r6, r7, pc}
   27900:	df03      	svc	3
   27902:	b02f      	add	sp, #188	@ 0xbc
   27904:	bdf0      	pop	{r4, r5, r6, r7, pc}
   27906:	46c0      	nop			@ (mov r8, r8)
   27908:	00001484 	.word	0x00001484

0002790c <_ZN20complex_dynamic_type3app17hf9c5f947f5d4b6f5E>:
   2790c:	b5f0      	push	{r4, r5, r6, r7, lr}
   2790e:	af03      	add	r7, sp, #12
   27910:	b09b      	sub	sp, #108	@ 0x6c
   27912:	9004      	str	r0, [sp, #16]
   27914:	a805      	add	r0, sp, #20
   27916:	2402      	movs	r4, #2
   27918:	7004      	strb	r4, [r0, #0]
   2791a:	1c46      	adds	r6, r0, #1
   2791c:	222a      	movs	r2, #42	@ 0x2a
   2791e:	9203      	str	r2, [sp, #12]
   27920:	4630      	mov	r0, r6
   27922:	f003 fbef 	bl	2b104 <__aeabi_memcpy>
   27926:	ad10      	add	r5, sp, #64	@ 0x40
   27928:	1c68      	adds	r0, r5, #1
   2792a:	2128      	movs	r1, #40	@ 0x28
   2792c:	9002      	str	r0, [sp, #8]
   2792e:	f003 fa29 	bl	2ad84 <__aeabi_memclr>
   27932:	9401      	str	r4, [sp, #4]
   27934:	702c      	strb	r4, [r5, #0]
   27936:	4848      	ldr	r0, [pc, #288]	@ (27a58 <_ZN20complex_dynamic_type3app17hf9c5f947f5d4b6f5E+0x14c>)
   27938:	2504      	movs	r5, #4
   2793a:	4629      	mov	r1, r5
   2793c:	4632      	mov	r2, r6
   2793e:	9b03      	ldr	r3, [sp, #12]
   27940:	df04      	svc	4
   27942:	2802      	cmp	r0, #2
   27944:	d104      	bne.n	27950 <_ZN20complex_dynamic_type3app17hf9c5f947f5d4b6f5E+0x44>
   27946:	2001      	movs	r0, #1
   27948:	9a04      	ldr	r2, [sp, #16]
   2794a:	7010      	strb	r0, [r2, #0]
   2794c:	6051      	str	r1, [r2, #4]
   2794e:	e02c      	b.n	279aa <_ZN20complex_dynamic_type3app17hf9c5f947f5d4b6f5E+0x9e>
   27950:	9c04      	ldr	r4, [sp, #16]
   27952:	a805      	add	r0, sp, #20
   27954:	7005      	strb	r5, [r0, #0]
   27956:	4840      	ldr	r0, [pc, #256]	@ (27a58 <_ZN20complex_dynamic_type3app17hf9c5f947f5d4b6f5E+0x14c>)
   27958:	2108      	movs	r1, #8
   2795a:	2328      	movs	r3, #40	@ 0x28
   2795c:	9a02      	ldr	r2, [sp, #8]
   2795e:	df03      	svc	3
   27960:	2802      	cmp	r0, #2
   27962:	d10e      	bne.n	27982 <_ZN20complex_dynamic_type3app17hf9c5f947f5d4b6f5E+0x76>
   27964:	2001      	movs	r0, #1
   27966:	7020      	strb	r0, [r4, #0]
   27968:	6061      	str	r1, [r4, #4]
   2796a:	a810      	add	r0, sp, #64	@ 0x40
   2796c:	7800      	ldrb	r0, [r0, #0]
   2796e:	2802      	cmp	r0, #2
   27970:	d01b      	beq.n	279aa <_ZN20complex_dynamic_type3app17hf9c5f947f5d4b6f5E+0x9e>
   27972:	2803      	cmp	r0, #3
   27974:	d014      	beq.n	279a0 <_ZN20complex_dynamic_type3app17hf9c5f947f5d4b6f5E+0x94>
   27976:	4838      	ldr	r0, [pc, #224]	@ (27a58 <_ZN20complex_dynamic_type3app17hf9c5f947f5d4b6f5E+0x14c>)
   27978:	2108      	movs	r1, #8
   2797a:	2200      	movs	r2, #0
   2797c:	4613      	mov	r3, r2
   2797e:	df04      	svc	4
   27980:	e013      	b.n	279aa <_ZN20complex_dynamic_type3app17hf9c5f947f5d4b6f5E+0x9e>
   27982:	a810      	add	r0, sp, #64	@ 0x40
   27984:	2103      	movs	r1, #3
   27986:	7001      	strb	r1, [r0, #0]
   27988:	4833      	ldr	r0, [pc, #204]	@ (27a58 <_ZN20complex_dynamic_type3app17hf9c5f947f5d4b6f5E+0x14c>)
   2798a:	2104      	movs	r1, #4
   2798c:	2208      	movs	r2, #8
   2798e:	2600      	movs	r6, #0
   27990:	4633      	mov	r3, r6
   27992:	df02      	svc	2
   27994:	2880      	cmp	r0, #128	@ 0x80
   27996:	4625      	mov	r5, r4
   27998:	d21b      	bcs.n	279d2 <_ZN20complex_dynamic_type3app17hf9c5f947f5d4b6f5E+0xc6>
   2799a:	2001      	movs	r0, #1
   2799c:	7028      	strb	r0, [r5, #0]
   2799e:	6069      	str	r1, [r5, #4]
   279a0:	482d      	ldr	r0, [pc, #180]	@ (27a58 <_ZN20complex_dynamic_type3app17hf9c5f947f5d4b6f5E+0x14c>)
   279a2:	2108      	movs	r1, #8
   279a4:	2200      	movs	r2, #0
   279a6:	4613      	mov	r3, r2
   279a8:	df03      	svc	3
   279aa:	a805      	add	r0, sp, #20
   279ac:	7800      	ldrb	r0, [r0, #0]
   279ae:	2802      	cmp	r0, #2
   279b0:	d045      	beq.n	27a3e <_ZN20complex_dynamic_type3app17hf9c5f947f5d4b6f5E+0x132>
   279b2:	2804      	cmp	r0, #4
   279b4:	d106      	bne.n	279c4 <_ZN20complex_dynamic_type3app17hf9c5f947f5d4b6f5E+0xb8>
   279b6:	4828      	ldr	r0, [pc, #160]	@ (27a58 <_ZN20complex_dynamic_type3app17hf9c5f947f5d4b6f5E+0x14c>)
   279b8:	2104      	movs	r1, #4
   279ba:	2200      	movs	r2, #0
   279bc:	4613      	mov	r3, r2
   279be:	df04      	svc	4
   279c0:	b01b      	add	sp, #108	@ 0x6c
   279c2:	bdf0      	pop	{r4, r5, r6, r7, pc}
   279c4:	4824      	ldr	r0, [pc, #144]	@ (27a58 <_ZN20complex_dynamic_type3app17hf9c5f947f5d4b6f5E+0x14c>)
   279c6:	2104      	movs	r1, #4
   279c8:	2200      	movs	r2, #0
   279ca:	4613      	mov	r3, r2
   279cc:	df03      	svc	3
   279ce:	b01b      	add	sp, #108	@ 0x6c
   279d0:	bdf0      	pop	{r4, r5, r6, r7, pc}
   279d2:	a805      	add	r0, sp, #20
   279d4:	7800      	ldrb	r0, [r0, #0]
   279d6:	2802      	cmp	r0, #2
   279d8:	d00c      	beq.n	279f4 <_ZN20complex_dynamic_type3app17hf9c5f947f5d4b6f5E+0xe8>
   279da:	2803      	cmp	r0, #3
   279dc:	d105      	bne.n	279ea <_ZN20complex_dynamic_type3app17hf9c5f947f5d4b6f5E+0xde>
   279de:	481e      	ldr	r0, [pc, #120]	@ (27a58 <_ZN20complex_dynamic_type3app17hf9c5f947f5d4b6f5E+0x14c>)
   279e0:	2104      	movs	r1, #4
   279e2:	2200      	movs	r2, #0
   279e4:	4613      	mov	r3, r2
   279e6:	df03      	svc	3
   279e8:	e004      	b.n	279f4 <_ZN20complex_dynamic_type3app17hf9c5f947f5d4b6f5E+0xe8>
   279ea:	481b      	ldr	r0, [pc, #108]	@ (27a58 <_ZN20complex_dynamic_type3app17hf9c5f947f5d4b6f5E+0x14c>)
   279ec:	2104      	movs	r1, #4
   279ee:	2200      	movs	r2, #0
   279f0:	4613      	mov	r3, r2
   279f2:	df04      	svc	4
   279f4:	a805      	add	r0, sp, #20
   279f6:	9901      	ldr	r1, [sp, #4]
   279f8:	7001      	strb	r1, [r0, #0]
   279fa:	a810      	add	r0, sp, #64	@ 0x40
   279fc:	7800      	ldrb	r0, [r0, #0]
   279fe:	2804      	cmp	r0, #4
   27a00:	d007      	beq.n	27a12 <_ZN20complex_dynamic_type3app17hf9c5f947f5d4b6f5E+0x106>
   27a02:	2803      	cmp	r0, #3
   27a04:	d11d      	bne.n	27a42 <_ZN20complex_dynamic_type3app17hf9c5f947f5d4b6f5E+0x136>
   27a06:	4814      	ldr	r0, [pc, #80]	@ (27a58 <_ZN20complex_dynamic_type3app17hf9c5f947f5d4b6f5E+0x14c>)
   27a08:	2108      	movs	r1, #8
   27a0a:	2200      	movs	r2, #0
   27a0c:	4613      	mov	r3, r2
   27a0e:	df03      	svc	3
   27a10:	e004      	b.n	27a1c <_ZN20complex_dynamic_type3app17hf9c5f947f5d4b6f5E+0x110>
   27a12:	4811      	ldr	r0, [pc, #68]	@ (27a58 <_ZN20complex_dynamic_type3app17hf9c5f947f5d4b6f5E+0x14c>)
   27a14:	2108      	movs	r1, #8
   27a16:	2200      	movs	r2, #0
   27a18:	4613      	mov	r3, r2
   27a1a:	df04      	svc	4
   27a1c:	a805      	add	r0, sp, #20
   27a1e:	7804      	ldrb	r4, [r0, #0]
   27a20:	1c68      	adds	r0, r5, #1
   27a22:	2228      	movs	r2, #40	@ 0x28
   27a24:	9902      	ldr	r1, [sp, #8]
   27a26:	f003 fb6d 	bl	2b104 <__aeabi_memcpy>
   27a2a:	702e      	strb	r6, [r5, #0]
   27a2c:	2c02      	cmp	r4, #2
   27a2e:	d006      	beq.n	27a3e <_ZN20complex_dynamic_type3app17hf9c5f947f5d4b6f5E+0x132>
   27a30:	4809      	ldr	r0, [pc, #36]	@ (27a58 <_ZN20complex_dynamic_type3app17hf9c5f947f5d4b6f5E+0x14c>)
   27a32:	2104      	movs	r1, #4
   27a34:	2200      	movs	r2, #0
   27a36:	4613      	mov	r3, r2
   27a38:	2c04      	cmp	r4, #4
   27a3a:	d10a      	bne.n	27a52 <_ZN20complex_dynamic_type3app17hf9c5f947f5d4b6f5E+0x146>
   27a3c:	df04      	svc	4
   27a3e:	b01b      	add	sp, #108	@ 0x6c
   27a40:	bdf0      	pop	{r4, r5, r6, r7, pc}
   27a42:	1c68      	adds	r0, r5, #1
   27a44:	2228      	movs	r2, #40	@ 0x28
   27a46:	9902      	ldr	r1, [sp, #8]
   27a48:	f003 fb5c 	bl	2b104 <__aeabi_memcpy>
   27a4c:	702e      	strb	r6, [r5, #0]
   27a4e:	b01b      	add	sp, #108	@ 0x6c
   27a50:	bdf0      	pop	{r4, r5, r6, r7, pc}
   27a52:	df03      	svc	3
   27a54:	b01b      	add	sp, #108	@ 0x6c
   27a56:	bdf0      	pop	{r4, r5, r6, r7, pc}
   27a58:	00001efa 	.word	0x00001efa

00027a5c <_ZN20complex_dynamic_type3app17hfcb68d02f8698b74E>:
   27a5c:	b5f0      	push	{r4, r5, r6, r7, lr}
   27a5e:	af03      	add	r7, sp, #12
   27a60:	b097      	sub	sp, #92	@ 0x5c
   27a62:	9003      	str	r0, [sp, #12]
   27a64:	a804      	add	r0, sp, #16
   27a66:	2402      	movs	r4, #2
   27a68:	7004      	strb	r4, [r0, #0]
   27a6a:	1c40      	adds	r0, r0, #1
   27a6c:	9002      	str	r0, [sp, #8]
   27a6e:	2510      	movs	r5, #16
   27a70:	462a      	mov	r2, r5
   27a72:	f003 fb47 	bl	2b104 <__aeabi_memcpy>
   27a76:	ae09      	add	r6, sp, #36	@ 0x24
   27a78:	1c70      	adds	r0, r6, #1
   27a7a:	2136      	movs	r1, #54	@ 0x36
   27a7c:	9001      	str	r0, [sp, #4]
   27a7e:	f003 f981 	bl	2ad84 <__aeabi_memclr>
   27a82:	9400      	str	r4, [sp, #0]
   27a84:	7034      	strb	r4, [r6, #0]
   27a86:	4847      	ldr	r0, [pc, #284]	@ (27ba4 <_ZN20complex_dynamic_type3app17hfcb68d02f8698b74E+0x148>)
   27a88:	2601      	movs	r6, #1
   27a8a:	4631      	mov	r1, r6
   27a8c:	9a02      	ldr	r2, [sp, #8]
   27a8e:	462b      	mov	r3, r5
   27a90:	df04      	svc	4
   27a92:	2802      	cmp	r0, #2
   27a94:	d103      	bne.n	27a9e <_ZN20complex_dynamic_type3app17hfcb68d02f8698b74E+0x42>
   27a96:	9803      	ldr	r0, [sp, #12]
   27a98:	7006      	strb	r6, [r0, #0]
   27a9a:	6041      	str	r1, [r0, #4]
   27a9c:	e02b      	b.n	27af6 <_ZN20complex_dynamic_type3app17hfcb68d02f8698b74E+0x9a>
   27a9e:	9d03      	ldr	r5, [sp, #12]
   27aa0:	a804      	add	r0, sp, #16
   27aa2:	2104      	movs	r1, #4
   27aa4:	7001      	strb	r1, [r0, #0]
   27aa6:	483f      	ldr	r0, [pc, #252]	@ (27ba4 <_ZN20complex_dynamic_type3app17hfcb68d02f8698b74E+0x148>)
   27aa8:	2107      	movs	r1, #7
   27aaa:	2336      	movs	r3, #54	@ 0x36
   27aac:	9a01      	ldr	r2, [sp, #4]
   27aae:	df03      	svc	3
   27ab0:	2802      	cmp	r0, #2
   27ab2:	d10d      	bne.n	27ad0 <_ZN20complex_dynamic_type3app17hfcb68d02f8698b74E+0x74>
   27ab4:	702e      	strb	r6, [r5, #0]
   27ab6:	6069      	str	r1, [r5, #4]
   27ab8:	a809      	add	r0, sp, #36	@ 0x24
   27aba:	7800      	ldrb	r0, [r0, #0]
   27abc:	2802      	cmp	r0, #2
   27abe:	d01a      	beq.n	27af6 <_ZN20complex_dynamic_type3app17hfcb68d02f8698b74E+0x9a>
   27ac0:	2803      	cmp	r0, #3
   27ac2:	d013      	beq.n	27aec <_ZN20complex_dynamic_type3app17hfcb68d02f8698b74E+0x90>
   27ac4:	4837      	ldr	r0, [pc, #220]	@ (27ba4 <_ZN20complex_dynamic_type3app17hfcb68d02f8698b74E+0x148>)
   27ac6:	2107      	movs	r1, #7
   27ac8:	2200      	movs	r2, #0
   27aca:	4613      	mov	r3, r2
   27acc:	df04      	svc	4
   27ace:	e012      	b.n	27af6 <_ZN20complex_dynamic_type3app17hfcb68d02f8698b74E+0x9a>
   27ad0:	a809      	add	r0, sp, #36	@ 0x24
   27ad2:	2103      	movs	r1, #3
   27ad4:	7001      	strb	r1, [r0, #0]
   27ad6:	4833      	ldr	r0, [pc, #204]	@ (27ba4 <_ZN20complex_dynamic_type3app17hfcb68d02f8698b74E+0x148>)
   27ad8:	2401      	movs	r4, #1
   27ada:	2207      	movs	r2, #7
   27adc:	2600      	movs	r6, #0
   27ade:	4621      	mov	r1, r4
   27ae0:	4633      	mov	r3, r6
   27ae2:	df02      	svc	2
   27ae4:	2880      	cmp	r0, #128	@ 0x80
   27ae6:	d21a      	bcs.n	27b1e <_ZN20complex_dynamic_type3app17hfcb68d02f8698b74E+0xc2>
   27ae8:	702c      	strb	r4, [r5, #0]
   27aea:	6069      	str	r1, [r5, #4]
   27aec:	482d      	ldr	r0, [pc, #180]	@ (27ba4 <_ZN20complex_dynamic_type3app17hfcb68d02f8698b74E+0x148>)
   27aee:	2107      	movs	r1, #7
   27af0:	2200      	movs	r2, #0
   27af2:	4613      	mov	r3, r2
   27af4:	df03      	svc	3
   27af6:	a804      	add	r0, sp, #16
   27af8:	7800      	ldrb	r0, [r0, #0]
   27afa:	2802      	cmp	r0, #2
   27afc:	d045      	beq.n	27b8a <_ZN20complex_dynamic_type3app17hfcb68d02f8698b74E+0x12e>
   27afe:	2804      	cmp	r0, #4
   27b00:	d106      	bne.n	27b10 <_ZN20complex_dynamic_type3app17hfcb68d02f8698b74E+0xb4>
   27b02:	4828      	ldr	r0, [pc, #160]	@ (27ba4 <_ZN20complex_dynamic_type3app17hfcb68d02f8698b74E+0x148>)
   27b04:	2101      	movs	r1, #1
   27b06:	2200      	movs	r2, #0
   27b08:	4613      	mov	r3, r2
   27b0a:	df04      	svc	4
   27b0c:	b017      	add	sp, #92	@ 0x5c
   27b0e:	bdf0      	pop	{r4, r5, r6, r7, pc}
   27b10:	4824      	ldr	r0, [pc, #144]	@ (27ba4 <_ZN20complex_dynamic_type3app17hfcb68d02f8698b74E+0x148>)
   27b12:	2101      	movs	r1, #1
   27b14:	2200      	movs	r2, #0
   27b16:	4613      	mov	r3, r2
   27b18:	df03      	svc	3
   27b1a:	b017      	add	sp, #92	@ 0x5c
   27b1c:	bdf0      	pop	{r4, r5, r6, r7, pc}
   27b1e:	a804      	add	r0, sp, #16
   27b20:	7800      	ldrb	r0, [r0, #0]
   27b22:	2802      	cmp	r0, #2
   27b24:	d00c      	beq.n	27b40 <_ZN20complex_dynamic_type3app17hfcb68d02f8698b74E+0xe4>
   27b26:	2803      	cmp	r0, #3
   27b28:	d105      	bne.n	27b36 <_ZN20complex_dynamic_type3app17hfcb68d02f8698b74E+0xda>
   27b2a:	481e      	ldr	r0, [pc, #120]	@ (27ba4 <_ZN20complex_dynamic_type3app17hfcb68d02f8698b74E+0x148>)
   27b2c:	2101      	movs	r1, #1
   27b2e:	2200      	movs	r2, #0
   27b30:	4613      	mov	r3, r2
   27b32:	df03      	svc	3
   27b34:	e004      	b.n	27b40 <_ZN20complex_dynamic_type3app17hfcb68d02f8698b74E+0xe4>
   27b36:	481b      	ldr	r0, [pc, #108]	@ (27ba4 <_ZN20complex_dynamic_type3app17hfcb68d02f8698b74E+0x148>)
   27b38:	2101      	movs	r1, #1
   27b3a:	2200      	movs	r2, #0
   27b3c:	4613      	mov	r3, r2
   27b3e:	df04      	svc	4
   27b40:	a804      	add	r0, sp, #16
   27b42:	9900      	ldr	r1, [sp, #0]
   27b44:	7001      	strb	r1, [r0, #0]
   27b46:	a809      	add	r0, sp, #36	@ 0x24
   27b48:	7800      	ldrb	r0, [r0, #0]
   27b4a:	2804      	cmp	r0, #4
   27b4c:	d007      	beq.n	27b5e <_ZN20complex_dynamic_type3app17hfcb68d02f8698b74E+0x102>
   27b4e:	2803      	cmp	r0, #3
   27b50:	d11d      	bne.n	27b8e <_ZN20complex_dynamic_type3app17hfcb68d02f8698b74E+0x132>
   27b52:	4814      	ldr	r0, [pc, #80]	@ (27ba4 <_ZN20complex_dynamic_type3app17hfcb68d02f8698b74E+0x148>)
   27b54:	2107      	movs	r1, #7
   27b56:	2200      	movs	r2, #0
   27b58:	4613      	mov	r3, r2
   27b5a:	df03      	svc	3
   27b5c:	e004      	b.n	27b68 <_ZN20complex_dynamic_type3app17hfcb68d02f8698b74E+0x10c>
   27b5e:	4811      	ldr	r0, [pc, #68]	@ (27ba4 <_ZN20complex_dynamic_type3app17hfcb68d02f8698b74E+0x148>)
   27b60:	2107      	movs	r1, #7
   27b62:	2200      	movs	r2, #0
   27b64:	4613      	mov	r3, r2
   27b66:	df04      	svc	4
   27b68:	a804      	add	r0, sp, #16
   27b6a:	7804      	ldrb	r4, [r0, #0]
   27b6c:	1c68      	adds	r0, r5, #1
   27b6e:	2236      	movs	r2, #54	@ 0x36
   27b70:	9901      	ldr	r1, [sp, #4]
   27b72:	f003 fac7 	bl	2b104 <__aeabi_memcpy>
   27b76:	702e      	strb	r6, [r5, #0]
   27b78:	2c02      	cmp	r4, #2
   27b7a:	d006      	beq.n	27b8a <_ZN20complex_dynamic_type3app17hfcb68d02f8698b74E+0x12e>
   27b7c:	4809      	ldr	r0, [pc, #36]	@ (27ba4 <_ZN20complex_dynamic_type3app17hfcb68d02f8698b74E+0x148>)
   27b7e:	2101      	movs	r1, #1
   27b80:	2200      	movs	r2, #0
   27b82:	4613      	mov	r3, r2
   27b84:	2c04      	cmp	r4, #4
   27b86:	d10a      	bne.n	27b9e <_ZN20complex_dynamic_type3app17hfcb68d02f8698b74E+0x142>
   27b88:	df04      	svc	4
   27b8a:	b017      	add	sp, #92	@ 0x5c
   27b8c:	bdf0      	pop	{r4, r5, r6, r7, pc}
   27b8e:	9901      	ldr	r1, [sp, #4]
   27b90:	1c68      	adds	r0, r5, #1
   27b92:	2236      	movs	r2, #54	@ 0x36
   27b94:	f003 fab6 	bl	2b104 <__aeabi_memcpy>
   27b98:	702e      	strb	r6, [r5, #0]
   27b9a:	b017      	add	sp, #92	@ 0x5c
   27b9c:	bdf0      	pop	{r4, r5, r6, r7, pc}
   27b9e:	df03      	svc	3
   27ba0:	b017      	add	sp, #92	@ 0x5c
   27ba2:	bdf0      	pop	{r4, r5, r6, r7, pc}
   27ba4:	00001989 	.word	0x00001989

00027ba8 <_ZN20complex_dynamic_type3app17hff66c88c85f1f991E>:
   27ba8:	b5f0      	push	{r4, r5, r6, r7, lr}
   27baa:	af03      	add	r7, sp, #12
   27bac:	b099      	sub	sp, #100	@ 0x64
   27bae:	9004      	str	r0, [sp, #16]
   27bb0:	a805      	add	r0, sp, #20
   27bb2:	2402      	movs	r4, #2
   27bb4:	7004      	strb	r4, [r0, #0]
   27bb6:	1c40      	adds	r0, r0, #1
   27bb8:	9003      	str	r0, [sp, #12]
   27bba:	2521      	movs	r5, #33	@ 0x21
   27bbc:	462a      	mov	r2, r5
   27bbe:	f003 faa1 	bl	2b104 <__aeabi_memcpy>
   27bc2:	ae0e      	add	r6, sp, #56	@ 0x38
   27bc4:	1c70      	adds	r0, r6, #1
   27bc6:	212a      	movs	r1, #42	@ 0x2a
   27bc8:	9002      	str	r0, [sp, #8]
   27bca:	f003 f8db 	bl	2ad84 <__aeabi_memclr>
   27bce:	9401      	str	r4, [sp, #4]
   27bd0:	7034      	strb	r4, [r6, #0]
   27bd2:	4849      	ldr	r0, [pc, #292]	@ (27cf8 <_ZN20complex_dynamic_type3app17hff66c88c85f1f991E+0x150>)
   27bd4:	2601      	movs	r6, #1
   27bd6:	4631      	mov	r1, r6
   27bd8:	9a03      	ldr	r2, [sp, #12]
   27bda:	462b      	mov	r3, r5
   27bdc:	df04      	svc	4
   27bde:	2802      	cmp	r0, #2
   27be0:	d103      	bne.n	27bea <_ZN20complex_dynamic_type3app17hff66c88c85f1f991E+0x42>
   27be2:	9804      	ldr	r0, [sp, #16]
   27be4:	7006      	strb	r6, [r0, #0]
   27be6:	6041      	str	r1, [r0, #4]
   27be8:	e02c      	b.n	27c44 <_ZN20complex_dynamic_type3app17hff66c88c85f1f991E+0x9c>
   27bea:	a805      	add	r0, sp, #20
   27bec:	2104      	movs	r1, #4
   27bee:	7001      	strb	r1, [r0, #0]
   27bf0:	4841      	ldr	r0, [pc, #260]	@ (27cf8 <_ZN20complex_dynamic_type3app17hff66c88c85f1f991E+0x150>)
   27bf2:	2403      	movs	r4, #3
   27bf4:	232a      	movs	r3, #42	@ 0x2a
   27bf6:	4621      	mov	r1, r4
   27bf8:	9a02      	ldr	r2, [sp, #8]
   27bfa:	df03      	svc	3
   27bfc:	2802      	cmp	r0, #2
   27bfe:	d10e      	bne.n	27c1e <_ZN20complex_dynamic_type3app17hff66c88c85f1f991E+0x76>
   27c00:	9804      	ldr	r0, [sp, #16]
   27c02:	7006      	strb	r6, [r0, #0]
   27c04:	6041      	str	r1, [r0, #4]
   27c06:	a80e      	add	r0, sp, #56	@ 0x38
   27c08:	7800      	ldrb	r0, [r0, #0]
   27c0a:	2802      	cmp	r0, #2
   27c0c:	d01a      	beq.n	27c44 <_ZN20complex_dynamic_type3app17hff66c88c85f1f991E+0x9c>
   27c0e:	2803      	cmp	r0, #3
   27c10:	d013      	beq.n	27c3a <_ZN20complex_dynamic_type3app17hff66c88c85f1f991E+0x92>
   27c12:	4839      	ldr	r0, [pc, #228]	@ (27cf8 <_ZN20complex_dynamic_type3app17hff66c88c85f1f991E+0x150>)
   27c14:	2103      	movs	r1, #3
   27c16:	2200      	movs	r2, #0
   27c18:	4613      	mov	r3, r2
   27c1a:	df04      	svc	4
   27c1c:	e012      	b.n	27c44 <_ZN20complex_dynamic_type3app17hff66c88c85f1f991E+0x9c>
   27c1e:	a80e      	add	r0, sp, #56	@ 0x38
   27c20:	7004      	strb	r4, [r0, #0]
   27c22:	4835      	ldr	r0, [pc, #212]	@ (27cf8 <_ZN20complex_dynamic_type3app17hff66c88c85f1f991E+0x150>)
   27c24:	2501      	movs	r5, #1
   27c26:	2600      	movs	r6, #0
   27c28:	4629      	mov	r1, r5
   27c2a:	4622      	mov	r2, r4
   27c2c:	4633      	mov	r3, r6
   27c2e:	df02      	svc	2
   27c30:	2880      	cmp	r0, #128	@ 0x80
   27c32:	d21b      	bcs.n	27c6c <_ZN20complex_dynamic_type3app17hff66c88c85f1f991E+0xc4>
   27c34:	9804      	ldr	r0, [sp, #16]
   27c36:	7005      	strb	r5, [r0, #0]
   27c38:	6041      	str	r1, [r0, #4]
   27c3a:	482f      	ldr	r0, [pc, #188]	@ (27cf8 <_ZN20complex_dynamic_type3app17hff66c88c85f1f991E+0x150>)
   27c3c:	2103      	movs	r1, #3
   27c3e:	2200      	movs	r2, #0
   27c40:	4613      	mov	r3, r2
   27c42:	df03      	svc	3
   27c44:	a805      	add	r0, sp, #20
   27c46:	7800      	ldrb	r0, [r0, #0]
   27c48:	2802      	cmp	r0, #2
   27c4a:	d046      	beq.n	27cda <_ZN20complex_dynamic_type3app17hff66c88c85f1f991E+0x132>
   27c4c:	2804      	cmp	r0, #4
   27c4e:	d106      	bne.n	27c5e <_ZN20complex_dynamic_type3app17hff66c88c85f1f991E+0xb6>
   27c50:	4829      	ldr	r0, [pc, #164]	@ (27cf8 <_ZN20complex_dynamic_type3app17hff66c88c85f1f991E+0x150>)
   27c52:	2101      	movs	r1, #1
   27c54:	2200      	movs	r2, #0
   27c56:	4613      	mov	r3, r2
   27c58:	df04      	svc	4
   27c5a:	b019      	add	sp, #100	@ 0x64
   27c5c:	bdf0      	pop	{r4, r5, r6, r7, pc}
   27c5e:	4826      	ldr	r0, [pc, #152]	@ (27cf8 <_ZN20complex_dynamic_type3app17hff66c88c85f1f991E+0x150>)
   27c60:	2101      	movs	r1, #1
   27c62:	2200      	movs	r2, #0
   27c64:	4613      	mov	r3, r2
   27c66:	df03      	svc	3
   27c68:	b019      	add	sp, #100	@ 0x64
   27c6a:	bdf0      	pop	{r4, r5, r6, r7, pc}
   27c6c:	a805      	add	r0, sp, #20
   27c6e:	7800      	ldrb	r0, [r0, #0]
   27c70:	2802      	cmp	r0, #2
   27c72:	d00c      	beq.n	27c8e <_ZN20complex_dynamic_type3app17hff66c88c85f1f991E+0xe6>
   27c74:	2803      	cmp	r0, #3
   27c76:	d105      	bne.n	27c84 <_ZN20complex_dynamic_type3app17hff66c88c85f1f991E+0xdc>
   27c78:	481f      	ldr	r0, [pc, #124]	@ (27cf8 <_ZN20complex_dynamic_type3app17hff66c88c85f1f991E+0x150>)
   27c7a:	2101      	movs	r1, #1
   27c7c:	2200      	movs	r2, #0
   27c7e:	4613      	mov	r3, r2
   27c80:	df03      	svc	3
   27c82:	e004      	b.n	27c8e <_ZN20complex_dynamic_type3app17hff66c88c85f1f991E+0xe6>
   27c84:	481c      	ldr	r0, [pc, #112]	@ (27cf8 <_ZN20complex_dynamic_type3app17hff66c88c85f1f991E+0x150>)
   27c86:	2101      	movs	r1, #1
   27c88:	2200      	movs	r2, #0
   27c8a:	4613      	mov	r3, r2
   27c8c:	df04      	svc	4
   27c8e:	a805      	add	r0, sp, #20
   27c90:	9901      	ldr	r1, [sp, #4]
   27c92:	7001      	strb	r1, [r0, #0]
   27c94:	a80e      	add	r0, sp, #56	@ 0x38
   27c96:	7800      	ldrb	r0, [r0, #0]
   27c98:	2804      	cmp	r0, #4
   27c9a:	d007      	beq.n	27cac <_ZN20complex_dynamic_type3app17hff66c88c85f1f991E+0x104>
   27c9c:	2803      	cmp	r0, #3
   27c9e:	d11e      	bne.n	27cde <_ZN20complex_dynamic_type3app17hff66c88c85f1f991E+0x136>
   27ca0:	4815      	ldr	r0, [pc, #84]	@ (27cf8 <_ZN20complex_dynamic_type3app17hff66c88c85f1f991E+0x150>)
   27ca2:	2103      	movs	r1, #3
   27ca4:	2200      	movs	r2, #0
   27ca6:	4613      	mov	r3, r2
   27ca8:	df03      	svc	3
   27caa:	e004      	b.n	27cb6 <_ZN20complex_dynamic_type3app17hff66c88c85f1f991E+0x10e>
   27cac:	4812      	ldr	r0, [pc, #72]	@ (27cf8 <_ZN20complex_dynamic_type3app17hff66c88c85f1f991E+0x150>)
   27cae:	2103      	movs	r1, #3
   27cb0:	2200      	movs	r2, #0
   27cb2:	4613      	mov	r3, r2
   27cb4:	df04      	svc	4
   27cb6:	a805      	add	r0, sp, #20
   27cb8:	7804      	ldrb	r4, [r0, #0]
   27cba:	9d04      	ldr	r5, [sp, #16]
   27cbc:	1c68      	adds	r0, r5, #1
   27cbe:	222a      	movs	r2, #42	@ 0x2a
   27cc0:	9902      	ldr	r1, [sp, #8]
   27cc2:	f003 fa1f 	bl	2b104 <__aeabi_memcpy>
   27cc6:	702e      	strb	r6, [r5, #0]
   27cc8:	2c02      	cmp	r4, #2
   27cca:	d006      	beq.n	27cda <_ZN20complex_dynamic_type3app17hff66c88c85f1f991E+0x132>
   27ccc:	480a      	ldr	r0, [pc, #40]	@ (27cf8 <_ZN20complex_dynamic_type3app17hff66c88c85f1f991E+0x150>)
   27cce:	2101      	movs	r1, #1
   27cd0:	2200      	movs	r2, #0
   27cd2:	4613      	mov	r3, r2
   27cd4:	2c04      	cmp	r4, #4
   27cd6:	d10b      	bne.n	27cf0 <_ZN20complex_dynamic_type3app17hff66c88c85f1f991E+0x148>
   27cd8:	df04      	svc	4
   27cda:	b019      	add	sp, #100	@ 0x64
   27cdc:	bdf0      	pop	{r4, r5, r6, r7, pc}
   27cde:	9c04      	ldr	r4, [sp, #16]
   27ce0:	9902      	ldr	r1, [sp, #8]
   27ce2:	1c60      	adds	r0, r4, #1
   27ce4:	222a      	movs	r2, #42	@ 0x2a
   27ce6:	f003 fa0d 	bl	2b104 <__aeabi_memcpy>
   27cea:	7026      	strb	r6, [r4, #0]
   27cec:	b019      	add	sp, #100	@ 0x64
   27cee:	bdf0      	pop	{r4, r5, r6, r7, pc}
   27cf0:	df03      	svc	3
   27cf2:	b019      	add	sp, #100	@ 0x64
   27cf4:	bdf0      	pop	{r4, r5, r6, r7, pc}
   27cf6:	46c0      	nop			@ (mov r8, r8)
   27cf8:	000015f3 	.word	0x000015f3

00027cfc <_start>:
   27cfc:	b5f0      	push	{r4, r5, r6, r7, lr}
   27cfe:	af03      	add	r7, sp, #12
   27d00:	4ed1      	ldr	r6, [pc, #836]	@ (28048 <_start+0x34c>)
   27d02:	44b5      	add	sp, r6
   27d04:	48d1      	ldr	r0, [pc, #836]	@ (2804c <_start+0x350>)
   27d06:	4468      	add	r0, sp
   27d08:	9008      	str	r0, [sp, #32]
   27d0a:	48d1      	ldr	r0, [pc, #836]	@ (28050 <_start+0x354>)
   27d0c:	4468      	add	r0, sp
   27d0e:	9007      	str	r0, [sp, #28]
   27d10:	ac1f      	add	r4, sp, #124	@ 0x7c
   27d12:	1c60      	adds	r0, r4, #1
   27d14:	900b      	str	r0, [sp, #44]	@ 0x2c
   27d16:	2628      	movs	r6, #40	@ 0x28
   27d18:	4631      	mov	r1, r6
   27d1a:	f003 f833 	bl	2ad84 <__aeabi_memclr>
   27d1e:	2502      	movs	r5, #2
   27d20:	7025      	strb	r5, [r4, #0]
   27d22:	4ccc      	ldr	r4, [pc, #816]	@ (28054 <_start+0x358>)
   27d24:	446c      	add	r4, sp
   27d26:	1c60      	adds	r0, r4, #1
   27d28:	2151      	movs	r1, #81	@ 0x51
   27d2a:	900a      	str	r0, [sp, #40]	@ 0x28
   27d2c:	f003 f82a 	bl	2ad84 <__aeabi_memclr>
   27d30:	9509      	str	r5, [sp, #36]	@ 0x24
   27d32:	7025      	strb	r5, [r4, #0]
   27d34:	48c8      	ldr	r0, [pc, #800]	@ (28058 <_start+0x35c>)
   27d36:	2109      	movs	r1, #9
   27d38:	9a0b      	ldr	r2, [sp, #44]	@ 0x2c
   27d3a:	4633      	mov	r3, r6
   27d3c:	df04      	svc	4
   27d3e:	ac4b      	add	r4, sp, #300	@ 0x12c
   27d40:	4ec6      	ldr	r6, [pc, #792]	@ (2805c <_start+0x360>)
   27d42:	446e      	add	r6, sp
   27d44:	4dc6      	ldr	r5, [pc, #792]	@ (28060 <_start+0x364>)
   27d46:	446d      	add	r5, sp
   27d48:	2802      	cmp	r0, #2
   27d4a:	d02b      	beq.n	27da4 <_start+0xa8>
   27d4c:	a81f      	add	r0, sp, #124	@ 0x7c
   27d4e:	2104      	movs	r1, #4
   27d50:	910b      	str	r1, [sp, #44]	@ 0x2c
   27d52:	7001      	strb	r1, [r0, #0]
   27d54:	48c0      	ldr	r0, [pc, #768]	@ (28058 <_start+0x35c>)
   27d56:	2109      	movs	r1, #9
   27d58:	2351      	movs	r3, #81	@ 0x51
   27d5a:	9a0a      	ldr	r2, [sp, #40]	@ 0x28
   27d5c:	df03      	svc	3
   27d5e:	2802      	cmp	r0, #2
   27d60:	d10d      	bne.n	27d7e <_start+0x82>
   27d62:	48bc      	ldr	r0, [pc, #752]	@ (28054 <_start+0x358>)
   27d64:	4468      	add	r0, sp
   27d66:	7800      	ldrb	r0, [r0, #0]
   27d68:	2802      	cmp	r0, #2
   27d6a:	d01b      	beq.n	27da4 <_start+0xa8>
   27d6c:	460c      	mov	r4, r1
   27d6e:	2803      	cmp	r0, #3
   27d70:	d012      	beq.n	27d98 <_start+0x9c>
   27d72:	48b9      	ldr	r0, [pc, #740]	@ (28058 <_start+0x35c>)
   27d74:	2109      	movs	r1, #9
   27d76:	2200      	movs	r2, #0
   27d78:	4613      	mov	r3, r2
   27d7a:	df04      	svc	4
   27d7c:	e011      	b.n	27da2 <_start+0xa6>
   27d7e:	48b5      	ldr	r0, [pc, #724]	@ (28054 <_start+0x358>)
   27d80:	4468      	add	r0, sp
   27d82:	2103      	movs	r1, #3
   27d84:	9106      	str	r1, [sp, #24]
   27d86:	7001      	strb	r1, [r0, #0]
   27d88:	48b3      	ldr	r0, [pc, #716]	@ (28058 <_start+0x35c>)
   27d8a:	2109      	movs	r1, #9
   27d8c:	2300      	movs	r3, #0
   27d8e:	460a      	mov	r2, r1
   27d90:	df02      	svc	2
   27d92:	2880      	cmp	r0, #128	@ 0x80
   27d94:	d220      	bcs.n	27dd8 <_start+0xdc>
   27d96:	460c      	mov	r4, r1
   27d98:	48af      	ldr	r0, [pc, #700]	@ (28058 <_start+0x35c>)
   27d9a:	2109      	movs	r1, #9
   27d9c:	2200      	movs	r2, #0
   27d9e:	4613      	mov	r3, r2
   27da0:	df03      	svc	3
   27da2:	4621      	mov	r1, r4
   27da4:	a81f      	add	r0, sp, #124	@ 0x7c
   27da6:	7800      	ldrb	r0, [r0, #0]
   27da8:	2802      	cmp	r0, #2
   27daa:	d010      	beq.n	27dce <_start+0xd2>
   27dac:	2804      	cmp	r0, #4
   27dae:	d107      	bne.n	27dc0 <_start+0xc4>
   27db0:	48a9      	ldr	r0, [pc, #676]	@ (28058 <_start+0x35c>)
   27db2:	2209      	movs	r2, #9
   27db4:	2300      	movs	r3, #0
   27db6:	460c      	mov	r4, r1
   27db8:	4611      	mov	r1, r2
   27dba:	461a      	mov	r2, r3
   27dbc:	df04      	svc	4
   27dbe:	e005      	b.n	27dcc <_start+0xd0>
   27dc0:	460c      	mov	r4, r1
   27dc2:	48a5      	ldr	r0, [pc, #660]	@ (28058 <_start+0x35c>)
   27dc4:	2109      	movs	r1, #9
   27dc6:	2200      	movs	r2, #0
   27dc8:	4613      	mov	r3, r2
   27dca:	df03      	svc	3
   27dcc:	4621      	mov	r1, r4
   27dce:	2001      	movs	r0, #1
   27dd0:	1ffe      	subs	r6, r7, #7
   27dd2:	3e05      	subs	r6, #5
   27dd4:	46b5      	mov	sp, r6
   27dd6:	bdf0      	pop	{r4, r5, r6, r7, pc}
   27dd8:	a81f      	add	r0, sp, #124	@ 0x7c
   27dda:	7800      	ldrb	r0, [r0, #0]
   27ddc:	2802      	cmp	r0, #2
   27dde:	d00c      	beq.n	27dfa <_start+0xfe>
   27de0:	2803      	cmp	r0, #3
   27de2:	d105      	bne.n	27df0 <_start+0xf4>
   27de4:	489c      	ldr	r0, [pc, #624]	@ (28058 <_start+0x35c>)
   27de6:	2109      	movs	r1, #9
   27de8:	2200      	movs	r2, #0
   27dea:	4613      	mov	r3, r2
   27dec:	df03      	svc	3
   27dee:	e004      	b.n	27dfa <_start+0xfe>
   27df0:	4899      	ldr	r0, [pc, #612]	@ (28058 <_start+0x35c>)
   27df2:	2109      	movs	r1, #9
   27df4:	2200      	movs	r2, #0
   27df6:	4613      	mov	r3, r2
   27df8:	df04      	svc	4
   27dfa:	a81f      	add	r0, sp, #124	@ 0x7c
   27dfc:	9909      	ldr	r1, [sp, #36]	@ 0x24
   27dfe:	7001      	strb	r1, [r0, #0]
   27e00:	4894      	ldr	r0, [pc, #592]	@ (28054 <_start+0x358>)
   27e02:	4468      	add	r0, sp
   27e04:	7800      	ldrb	r0, [r0, #0]
   27e06:	2804      	cmp	r0, #4
   27e08:	9504      	str	r5, [sp, #16]
   27e0a:	9603      	str	r6, [sp, #12]
   27e0c:	9405      	str	r4, [sp, #20]
   27e0e:	d007      	beq.n	27e20 <_start+0x124>
   27e10:	2803      	cmp	r0, #3
   27e12:	d129      	bne.n	27e68 <_start+0x16c>
   27e14:	4890      	ldr	r0, [pc, #576]	@ (28058 <_start+0x35c>)
   27e16:	2109      	movs	r1, #9
   27e18:	2200      	movs	r2, #0
   27e1a:	4613      	mov	r3, r2
   27e1c:	df03      	svc	3
   27e1e:	e004      	b.n	27e2a <_start+0x12e>
   27e20:	488d      	ldr	r0, [pc, #564]	@ (28058 <_start+0x35c>)
   27e22:	2109      	movs	r1, #9
   27e24:	2200      	movs	r2, #0
   27e26:	4613      	mov	r3, r2
   27e28:	df04      	svc	4
   27e2a:	9a0a      	ldr	r2, [sp, #40]	@ 0x28
   27e2c:	7890      	ldrb	r0, [r2, #2]
   27e2e:	a92f      	add	r1, sp, #188	@ 0xbc
   27e30:	7088      	strb	r0, [r1, #2]
   27e32:	7810      	ldrb	r0, [r2, #0]
   27e34:	7852      	ldrb	r2, [r2, #1]
   27e36:	0212      	lsls	r2, r2, #8
   27e38:	1810      	adds	r0, r2, r0
   27e3a:	8008      	strh	r0, [r1, #0]
   27e3c:	a81f      	add	r0, sp, #124	@ 0x7c
   27e3e:	7804      	ldrb	r4, [r0, #0]
   27e40:	9808      	ldr	r0, [sp, #32]
   27e42:	6e00      	ldr	r0, [r0, #96]	@ 0x60
   27e44:	900a      	str	r0, [sp, #40]	@ 0x28
   27e46:	4983      	ldr	r1, [pc, #524]	@ (28054 <_start+0x358>)
   27e48:	4469      	add	r1, sp
   27e4a:	3108      	adds	r1, #8
   27e4c:	a80c      	add	r0, sp, #48	@ 0x30
   27e4e:	224a      	movs	r2, #74	@ 0x4a
   27e50:	f002 fff8 	bl	2ae44 <__aeabi_memcpy4>
   27e54:	2c02      	cmp	r4, #2
   27e56:	d01c      	beq.n	27e92 <_start+0x196>
   27e58:	487f      	ldr	r0, [pc, #508]	@ (28058 <_start+0x35c>)
   27e5a:	2109      	movs	r1, #9
   27e5c:	2200      	movs	r2, #0
   27e5e:	4613      	mov	r3, r2
   27e60:	2c04      	cmp	r4, #4
   27e62:	d115      	bne.n	27e90 <_start+0x194>
   27e64:	df04      	svc	4
   27e66:	e014      	b.n	27e92 <_start+0x196>
   27e68:	9a0a      	ldr	r2, [sp, #40]	@ 0x28
   27e6a:	7890      	ldrb	r0, [r2, #2]
   27e6c:	a92f      	add	r1, sp, #188	@ 0xbc
   27e6e:	7088      	strb	r0, [r1, #2]
   27e70:	7810      	ldrb	r0, [r2, #0]
   27e72:	7852      	ldrb	r2, [r2, #1]
   27e74:	0212      	lsls	r2, r2, #8
   27e76:	1810      	adds	r0, r2, r0
   27e78:	8008      	strh	r0, [r1, #0]
   27e7a:	9808      	ldr	r0, [sp, #32]
   27e7c:	6e00      	ldr	r0, [r0, #96]	@ 0x60
   27e7e:	900a      	str	r0, [sp, #40]	@ 0x28
   27e80:	4974      	ldr	r1, [pc, #464]	@ (28054 <_start+0x358>)
   27e82:	4469      	add	r1, sp
   27e84:	3108      	adds	r1, #8
   27e86:	a80c      	add	r0, sp, #48	@ 0x30
   27e88:	224a      	movs	r2, #74	@ 0x4a
   27e8a:	f002 ffdb 	bl	2ae44 <__aeabi_memcpy4>
   27e8e:	e000      	b.n	27e92 <_start+0x196>
   27e90:	df03      	svc	3
   27e92:	a82f      	add	r0, sp, #188	@ 0xbc
   27e94:	7881      	ldrb	r1, [r0, #2]
   27e96:	4e6f      	ldr	r6, [pc, #444]	@ (28054 <_start+0x358>)
   27e98:	446e      	add	r6, sp
   27e9a:	70f1      	strb	r1, [r6, #3]
   27e9c:	7840      	ldrb	r0, [r0, #1]
   27e9e:	70b0      	strb	r0, [r6, #2]
   27ea0:	982f      	ldr	r0, [sp, #188]	@ 0xbc
   27ea2:	7070      	strb	r0, [r6, #1]
   27ea4:	4c69      	ldr	r4, [pc, #420]	@ (2804c <_start+0x350>)
   27ea6:	446c      	add	r4, sp
   27ea8:	a90c      	add	r1, sp, #48	@ 0x30
   27eaa:	254a      	movs	r5, #74	@ 0x4a
   27eac:	4620      	mov	r0, r4
   27eae:	462a      	mov	r2, r5
   27eb0:	f002 ffc8 	bl	2ae44 <__aeabi_memcpy4>
   27eb4:	4630      	mov	r0, r6
   27eb6:	3008      	adds	r0, #8
   27eb8:	4621      	mov	r1, r4
   27eba:	462a      	mov	r2, r5
   27ebc:	f002 ffc2 	bl	2ae44 <__aeabi_memcpy4>
   27ec0:	9c09      	ldr	r4, [sp, #36]	@ 0x24
   27ec2:	7034      	strb	r4, [r6, #0]
   27ec4:	9808      	ldr	r0, [sp, #32]
   27ec6:	990a      	ldr	r1, [sp, #40]	@ 0x28
   27ec8:	6601      	str	r1, [r0, #96]	@ 0x60
   27eca:	4d60      	ldr	r5, [pc, #384]	@ (2804c <_start+0x350>)
   27ecc:	446d      	add	r5, sp
   27ece:	1c68      	adds	r0, r5, #1
   27ed0:	2146      	movs	r1, #70	@ 0x46
   27ed2:	900a      	str	r0, [sp, #40]	@ 0x28
   27ed4:	f002 ff56 	bl	2ad84 <__aeabi_memclr>
   27ed8:	702c      	strb	r4, [r5, #0]
   27eda:	1c72      	adds	r2, r6, #1
   27edc:	4861      	ldr	r0, [pc, #388]	@ (28064 <_start+0x368>)
   27ede:	2107      	movs	r1, #7
   27ee0:	2351      	movs	r3, #81	@ 0x51
   27ee2:	df04      	svc	4
   27ee4:	2802      	cmp	r0, #2
   27ee6:	d02b      	beq.n	27f40 <_start+0x244>
   27ee8:	485a      	ldr	r0, [pc, #360]	@ (28054 <_start+0x358>)
   27eea:	4468      	add	r0, sp
   27eec:	990b      	ldr	r1, [sp, #44]	@ 0x2c
   27eee:	7001      	strb	r1, [r0, #0]
   27ef0:	485c      	ldr	r0, [pc, #368]	@ (28064 <_start+0x368>)
   27ef2:	2100      	movs	r1, #0
   27ef4:	2346      	movs	r3, #70	@ 0x46
   27ef6:	9c0a      	ldr	r4, [sp, #40]	@ 0x28
   27ef8:	4622      	mov	r2, r4
   27efa:	df03      	svc	3
   27efc:	2802      	cmp	r0, #2
   27efe:	d10d      	bne.n	27f1c <_start+0x220>
   27f00:	4852      	ldr	r0, [pc, #328]	@ (2804c <_start+0x350>)
   27f02:	4468      	add	r0, sp
   27f04:	7800      	ldrb	r0, [r0, #0]
   27f06:	2802      	cmp	r0, #2
   27f08:	d01a      	beq.n	27f40 <_start+0x244>
   27f0a:	460c      	mov	r4, r1
   27f0c:	2803      	cmp	r0, #3
   27f0e:	d011      	beq.n	27f34 <_start+0x238>
   27f10:	4854      	ldr	r0, [pc, #336]	@ (28064 <_start+0x368>)
   27f12:	2100      	movs	r1, #0
   27f14:	460a      	mov	r2, r1
   27f16:	460b      	mov	r3, r1
   27f18:	df04      	svc	4
   27f1a:	e010      	b.n	27f3e <_start+0x242>
   27f1c:	484b      	ldr	r0, [pc, #300]	@ (2804c <_start+0x350>)
   27f1e:	4468      	add	r0, sp
   27f20:	9906      	ldr	r1, [sp, #24]
   27f22:	7001      	strb	r1, [r0, #0]
   27f24:	484f      	ldr	r0, [pc, #316]	@ (28064 <_start+0x368>)
   27f26:	2107      	movs	r1, #7
   27f28:	2200      	movs	r2, #0
   27f2a:	4613      	mov	r3, r2
   27f2c:	df02      	svc	2
   27f2e:	2880      	cmp	r0, #128	@ 0x80
   27f30:	d21d      	bcs.n	27f6e <_start+0x272>
   27f32:	460c      	mov	r4, r1
   27f34:	484b      	ldr	r0, [pc, #300]	@ (28064 <_start+0x368>)
   27f36:	2100      	movs	r1, #0
   27f38:	460a      	mov	r2, r1
   27f3a:	460b      	mov	r3, r1
   27f3c:	df03      	svc	3
   27f3e:	4621      	mov	r1, r4
   27f40:	4844      	ldr	r0, [pc, #272]	@ (28054 <_start+0x358>)
   27f42:	4468      	add	r0, sp
   27f44:	7800      	ldrb	r0, [r0, #0]
   27f46:	2802      	cmp	r0, #2
   27f48:	d100      	bne.n	27f4c <_start+0x250>
   27f4a:	e740      	b.n	27dce <_start+0xd2>
   27f4c:	2804      	cmp	r0, #4
   27f4e:	d107      	bne.n	27f60 <_start+0x264>
   27f50:	4844      	ldr	r0, [pc, #272]	@ (28064 <_start+0x368>)
   27f52:	2207      	movs	r2, #7
   27f54:	2300      	movs	r3, #0
   27f56:	460c      	mov	r4, r1
   27f58:	4611      	mov	r1, r2
   27f5a:	461a      	mov	r2, r3
   27f5c:	df04      	svc	4
   27f5e:	e735      	b.n	27dcc <_start+0xd0>
   27f60:	460c      	mov	r4, r1
   27f62:	4840      	ldr	r0, [pc, #256]	@ (28064 <_start+0x368>)
   27f64:	2107      	movs	r1, #7
   27f66:	2200      	movs	r2, #0
   27f68:	4613      	mov	r3, r2
   27f6a:	df03      	svc	3
   27f6c:	e72e      	b.n	27dcc <_start+0xd0>
   27f6e:	4839      	ldr	r0, [pc, #228]	@ (28054 <_start+0x358>)
   27f70:	4468      	add	r0, sp
   27f72:	7800      	ldrb	r0, [r0, #0]
   27f74:	2802      	cmp	r0, #2
   27f76:	d00c      	beq.n	27f92 <_start+0x296>
   27f78:	2803      	cmp	r0, #3
   27f7a:	d105      	bne.n	27f88 <_start+0x28c>
   27f7c:	4839      	ldr	r0, [pc, #228]	@ (28064 <_start+0x368>)
   27f7e:	2107      	movs	r1, #7
   27f80:	2200      	movs	r2, #0
   27f82:	4613      	mov	r3, r2
   27f84:	df03      	svc	3
   27f86:	e004      	b.n	27f92 <_start+0x296>
   27f88:	4836      	ldr	r0, [pc, #216]	@ (28064 <_start+0x368>)
   27f8a:	2107      	movs	r1, #7
   27f8c:	2200      	movs	r2, #0
   27f8e:	4613      	mov	r3, r2
   27f90:	df04      	svc	4
   27f92:	4830      	ldr	r0, [pc, #192]	@ (28054 <_start+0x358>)
   27f94:	4468      	add	r0, sp
   27f96:	9909      	ldr	r1, [sp, #36]	@ 0x24
   27f98:	7001      	strb	r1, [r0, #0]
   27f9a:	482c      	ldr	r0, [pc, #176]	@ (2804c <_start+0x350>)
   27f9c:	4468      	add	r0, sp
   27f9e:	7800      	ldrb	r0, [r0, #0]
   27fa0:	2804      	cmp	r0, #4
   27fa2:	d007      	beq.n	27fb4 <_start+0x2b8>
   27fa4:	2803      	cmp	r0, #3
   27fa6:	d132      	bne.n	2800e <_start+0x312>
   27fa8:	482e      	ldr	r0, [pc, #184]	@ (28064 <_start+0x368>)
   27faa:	2100      	movs	r1, #0
   27fac:	460a      	mov	r2, r1
   27fae:	460b      	mov	r3, r1
   27fb0:	df03      	svc	3
   27fb2:	e004      	b.n	27fbe <_start+0x2c2>
   27fb4:	482b      	ldr	r0, [pc, #172]	@ (28064 <_start+0x368>)
   27fb6:	2100      	movs	r1, #0
   27fb8:	460a      	mov	r2, r1
   27fba:	460b      	mov	r3, r1
   27fbc:	df04      	svc	4
   27fbe:	78a0      	ldrb	r0, [r4, #2]
   27fc0:	a92f      	add	r1, sp, #188	@ 0xbc
   27fc2:	7088      	strb	r0, [r1, #2]
   27fc4:	7820      	ldrb	r0, [r4, #0]
   27fc6:	7862      	ldrb	r2, [r4, #1]
   27fc8:	0212      	lsls	r2, r2, #8
   27fca:	1810      	adds	r0, r2, r0
   27fcc:	8008      	strh	r0, [r1, #0]
   27fce:	4821      	ldr	r0, [pc, #132]	@ (28054 <_start+0x358>)
   27fd0:	4468      	add	r0, sp
   27fd2:	7800      	ldrb	r0, [r0, #0]
   27fd4:	491d      	ldr	r1, [pc, #116]	@ (2804c <_start+0x350>)
   27fd6:	4469      	add	r1, sp
   27fd8:	3108      	adds	r1, #8
   27fda:	9a07      	ldr	r2, [sp, #28]
   27fdc:	6812      	ldr	r2, [r2, #0]
   27fde:	9206      	str	r2, [sp, #24]
   27fe0:	aa1f      	add	r2, sp, #124	@ 0x7c
   27fe2:	c968      	ldmia	r1!, {r3, r5, r6}
   27fe4:	c268      	stmia	r2!, {r3, r5, r6}
   27fe6:	c978      	ldmia	r1!, {r3, r4, r5, r6}
   27fe8:	c278      	stmia	r2!, {r3, r4, r5, r6}
   27fea:	c978      	ldmia	r1!, {r3, r4, r5, r6}
   27fec:	c278      	stmia	r2!, {r3, r4, r5, r6}
   27fee:	c978      	ldmia	r1!, {r3, r4, r5, r6}
   27ff0:	c278      	stmia	r2!, {r3, r4, r5, r6}
   27ff2:	880b      	ldrh	r3, [r1, #0]
   27ff4:	8013      	strh	r3, [r2, #0]
   27ff6:	7889      	ldrb	r1, [r1, #2]
   27ff8:	7091      	strb	r1, [r2, #2]
   27ffa:	2802      	cmp	r0, #2
   27ffc:	d039      	beq.n	28072 <_start+0x376>
   27ffe:	2804      	cmp	r0, #4
   28000:	d132      	bne.n	28068 <_start+0x36c>
   28002:	4818      	ldr	r0, [pc, #96]	@ (28064 <_start+0x368>)
   28004:	2107      	movs	r1, #7
   28006:	2200      	movs	r2, #0
   28008:	4613      	mov	r3, r2
   2800a:	df04      	svc	4
   2800c:	e031      	b.n	28072 <_start+0x376>
   2800e:	78a0      	ldrb	r0, [r4, #2]
   28010:	a92f      	add	r1, sp, #188	@ 0xbc
   28012:	7088      	strb	r0, [r1, #2]
   28014:	7820      	ldrb	r0, [r4, #0]
   28016:	7862      	ldrb	r2, [r4, #1]
   28018:	0212      	lsls	r2, r2, #8
   2801a:	1810      	adds	r0, r2, r0
   2801c:	8008      	strh	r0, [r1, #0]
   2801e:	480b      	ldr	r0, [pc, #44]	@ (2804c <_start+0x350>)
   28020:	4468      	add	r0, sp
   28022:	3008      	adds	r0, #8
   28024:	9907      	ldr	r1, [sp, #28]
   28026:	6809      	ldr	r1, [r1, #0]
   28028:	9106      	str	r1, [sp, #24]
   2802a:	a91f      	add	r1, sp, #124	@ 0x7c
   2802c:	c82c      	ldmia	r0!, {r2, r3, r5}
   2802e:	c12c      	stmia	r1!, {r2, r3, r5}
   28030:	c86c      	ldmia	r0!, {r2, r3, r5, r6}
   28032:	c16c      	stmia	r1!, {r2, r3, r5, r6}
   28034:	c86c      	ldmia	r0!, {r2, r3, r5, r6}
   28036:	c16c      	stmia	r1!, {r2, r3, r5, r6}
   28038:	c86c      	ldmia	r0!, {r2, r3, r5, r6}
   2803a:	c16c      	stmia	r1!, {r2, r3, r5, r6}
   2803c:	8802      	ldrh	r2, [r0, #0]
   2803e:	800a      	strh	r2, [r1, #0]
   28040:	7880      	ldrb	r0, [r0, #2]
   28042:	7088      	strb	r0, [r1, #2]
   28044:	e015      	b.n	28072 <_start+0x376>
   28046:	46c0      	nop			@ (mov r8, r8)
   28048:	ffffeadc 	.word	0xffffeadc
   2804c:	000013a8 	.word	0x000013a8
   28050:	000013ac 	.word	0x000013ac
   28054:	00001404 	.word	0x00001404
   28058:	00002006 	.word	0x00002006
   2805c:	00000508 	.word	0x00000508
   28060:	000007dc 	.word	0x000007dc
   28064:	000020c4 	.word	0x000020c4
   28068:	48da      	ldr	r0, [pc, #872]	@ (283d4 <_start+0x6d8>)
   2806a:	2107      	movs	r1, #7
   2806c:	2200      	movs	r2, #0
   2806e:	4613      	mov	r3, r2
   28070:	df03      	svc	3
   28072:	a82f      	add	r0, sp, #188	@ 0xbc
   28074:	7881      	ldrb	r1, [r0, #2]
   28076:	4ad8      	ldr	r2, [pc, #864]	@ (283d8 <_start+0x6dc>)
   28078:	446a      	add	r2, sp
   2807a:	920a      	str	r2, [sp, #40]	@ 0x28
   2807c:	70d1      	strb	r1, [r2, #3]
   2807e:	7840      	ldrb	r0, [r0, #1]
   28080:	7090      	strb	r0, [r2, #2]
   28082:	982f      	ldr	r0, [sp, #188]	@ 0xbc
   28084:	7050      	strb	r0, [r2, #1]
   28086:	a91f      	add	r1, sp, #124	@ 0x7c
   28088:	a80c      	add	r0, sp, #48	@ 0x30
   2808a:	4602      	mov	r2, r0
   2808c:	c938      	ldmia	r1!, {r3, r4, r5}
   2808e:	c238      	stmia	r2!, {r3, r4, r5}
   28090:	c978      	ldmia	r1!, {r3, r4, r5, r6}
   28092:	c278      	stmia	r2!, {r3, r4, r5, r6}
   28094:	c978      	ldmia	r1!, {r3, r4, r5, r6}
   28096:	c278      	stmia	r2!, {r3, r4, r5, r6}
   28098:	c978      	ldmia	r1!, {r3, r4, r5, r6}
   2809a:	c278      	stmia	r2!, {r3, r4, r5, r6}
   2809c:	880b      	ldrh	r3, [r1, #0]
   2809e:	8013      	strh	r3, [r2, #0]
   280a0:	7889      	ldrb	r1, [r1, #2]
   280a2:	7091      	strb	r1, [r2, #2]
   280a4:	990a      	ldr	r1, [sp, #40]	@ 0x28
   280a6:	3108      	adds	r1, #8
   280a8:	c81c      	ldmia	r0!, {r2, r3, r4}
   280aa:	c11c      	stmia	r1!, {r2, r3, r4}
   280ac:	c83c      	ldmia	r0!, {r2, r3, r4, r5}
   280ae:	c13c      	stmia	r1!, {r2, r3, r4, r5}
   280b0:	c83c      	ldmia	r0!, {r2, r3, r4, r5}
   280b2:	c13c      	stmia	r1!, {r2, r3, r4, r5}
   280b4:	c83c      	ldmia	r0!, {r2, r3, r4, r5}
   280b6:	c13c      	stmia	r1!, {r2, r3, r4, r5}
   280b8:	8802      	ldrh	r2, [r0, #0]
   280ba:	800a      	strh	r2, [r1, #0]
   280bc:	7880      	ldrb	r0, [r0, #2]
   280be:	7088      	strb	r0, [r1, #2]
   280c0:	9e09      	ldr	r6, [sp, #36]	@ 0x24
   280c2:	9d0a      	ldr	r5, [sp, #40]	@ 0x28
   280c4:	702e      	strb	r6, [r5, #0]
   280c6:	9808      	ldr	r0, [sp, #32]
   280c8:	9906      	ldr	r1, [sp, #24]
   280ca:	6601      	str	r1, [r0, #96]	@ 0x60
   280cc:	4cc3      	ldr	r4, [pc, #780]	@ (283dc <_start+0x6e0>)
   280ce:	446c      	add	r4, sp
   280d0:	1c60      	adds	r0, r4, #1
   280d2:	2118      	movs	r1, #24
   280d4:	9006      	str	r0, [sp, #24]
   280d6:	f002 fe55 	bl	2ad84 <__aeabi_memclr>
   280da:	7026      	strb	r6, [r4, #0]
   280dc:	1c6a      	adds	r2, r5, #1
   280de:	48c0      	ldr	r0, [pc, #768]	@ (283e0 <_start+0x6e4>)
   280e0:	2403      	movs	r4, #3
   280e2:	2346      	movs	r3, #70	@ 0x46
   280e4:	4621      	mov	r1, r4
   280e6:	df04      	svc	4
   280e8:	2802      	cmp	r0, #2
   280ea:	d02b      	beq.n	28144 <_start+0x448>
   280ec:	48ba      	ldr	r0, [pc, #744]	@ (283d8 <_start+0x6dc>)
   280ee:	4468      	add	r0, sp
   280f0:	990b      	ldr	r1, [sp, #44]	@ 0x2c
   280f2:	7001      	strb	r1, [r0, #0]
   280f4:	48ba      	ldr	r0, [pc, #744]	@ (283e0 <_start+0x6e4>)
   280f6:	2102      	movs	r1, #2
   280f8:	2318      	movs	r3, #24
   280fa:	9d06      	ldr	r5, [sp, #24]
   280fc:	462a      	mov	r2, r5
   280fe:	df03      	svc	3
   28100:	2802      	cmp	r0, #2
   28102:	d10d      	bne.n	28120 <_start+0x424>
   28104:	48b5      	ldr	r0, [pc, #724]	@ (283dc <_start+0x6e0>)
   28106:	4468      	add	r0, sp
   28108:	7800      	ldrb	r0, [r0, #0]
   2810a:	2802      	cmp	r0, #2
   2810c:	d01a      	beq.n	28144 <_start+0x448>
   2810e:	460c      	mov	r4, r1
   28110:	2803      	cmp	r0, #3
   28112:	d011      	beq.n	28138 <_start+0x43c>
   28114:	48b2      	ldr	r0, [pc, #712]	@ (283e0 <_start+0x6e4>)
   28116:	2102      	movs	r1, #2
   28118:	2200      	movs	r2, #0
   2811a:	4613      	mov	r3, r2
   2811c:	df04      	svc	4
   2811e:	e010      	b.n	28142 <_start+0x446>
   28120:	48ae      	ldr	r0, [pc, #696]	@ (283dc <_start+0x6e0>)
   28122:	4468      	add	r0, sp
   28124:	7004      	strb	r4, [r0, #0]
   28126:	48ae      	ldr	r0, [pc, #696]	@ (283e0 <_start+0x6e4>)
   28128:	2602      	movs	r6, #2
   2812a:	2300      	movs	r3, #0
   2812c:	4621      	mov	r1, r4
   2812e:	4632      	mov	r2, r6
   28130:	df02      	svc	2
   28132:	2880      	cmp	r0, #128	@ 0x80
   28134:	d21d      	bcs.n	28172 <_start+0x476>
   28136:	460c      	mov	r4, r1
   28138:	48a9      	ldr	r0, [pc, #676]	@ (283e0 <_start+0x6e4>)
   2813a:	2102      	movs	r1, #2
   2813c:	2200      	movs	r2, #0
   2813e:	4613      	mov	r3, r2
   28140:	df03      	svc	3
   28142:	4621      	mov	r1, r4
   28144:	48a4      	ldr	r0, [pc, #656]	@ (283d8 <_start+0x6dc>)
   28146:	4468      	add	r0, sp
   28148:	7800      	ldrb	r0, [r0, #0]
   2814a:	2802      	cmp	r0, #2
   2814c:	d100      	bne.n	28150 <_start+0x454>
   2814e:	e63e      	b.n	27dce <_start+0xd2>
   28150:	2804      	cmp	r0, #4
   28152:	d107      	bne.n	28164 <_start+0x468>
   28154:	48a2      	ldr	r0, [pc, #648]	@ (283e0 <_start+0x6e4>)
   28156:	2203      	movs	r2, #3
   28158:	2300      	movs	r3, #0
   2815a:	460c      	mov	r4, r1
   2815c:	4611      	mov	r1, r2
   2815e:	461a      	mov	r2, r3
   28160:	df04      	svc	4
   28162:	e633      	b.n	27dcc <_start+0xd0>
   28164:	460c      	mov	r4, r1
   28166:	489e      	ldr	r0, [pc, #632]	@ (283e0 <_start+0x6e4>)
   28168:	2103      	movs	r1, #3
   2816a:	2200      	movs	r2, #0
   2816c:	4613      	mov	r3, r2
   2816e:	df03      	svc	3
   28170:	e62c      	b.n	27dcc <_start+0xd0>
   28172:	4899      	ldr	r0, [pc, #612]	@ (283d8 <_start+0x6dc>)
   28174:	4468      	add	r0, sp
   28176:	7800      	ldrb	r0, [r0, #0]
   28178:	2802      	cmp	r0, #2
   2817a:	d00c      	beq.n	28196 <_start+0x49a>
   2817c:	2803      	cmp	r0, #3
   2817e:	d105      	bne.n	2818c <_start+0x490>
   28180:	4897      	ldr	r0, [pc, #604]	@ (283e0 <_start+0x6e4>)
   28182:	2103      	movs	r1, #3
   28184:	2200      	movs	r2, #0
   28186:	4613      	mov	r3, r2
   28188:	df03      	svc	3
   2818a:	e004      	b.n	28196 <_start+0x49a>
   2818c:	4894      	ldr	r0, [pc, #592]	@ (283e0 <_start+0x6e4>)
   2818e:	2103      	movs	r1, #3
   28190:	2200      	movs	r2, #0
   28192:	4613      	mov	r3, r2
   28194:	df04      	svc	4
   28196:	4890      	ldr	r0, [pc, #576]	@ (283d8 <_start+0x6dc>)
   28198:	4468      	add	r0, sp
   2819a:	7006      	strb	r6, [r0, #0]
   2819c:	488f      	ldr	r0, [pc, #572]	@ (283dc <_start+0x6e0>)
   2819e:	4468      	add	r0, sp
   281a0:	7800      	ldrb	r0, [r0, #0]
   281a2:	2804      	cmp	r0, #4
   281a4:	9402      	str	r4, [sp, #8]
   281a6:	960a      	str	r6, [sp, #40]	@ 0x28
   281a8:	d007      	beq.n	281ba <_start+0x4be>
   281aa:	2803      	cmp	r0, #3
   281ac:	d12a      	bne.n	28204 <_start+0x508>
   281ae:	488c      	ldr	r0, [pc, #560]	@ (283e0 <_start+0x6e4>)
   281b0:	2102      	movs	r1, #2
   281b2:	2200      	movs	r2, #0
   281b4:	4613      	mov	r3, r2
   281b6:	df03      	svc	3
   281b8:	e004      	b.n	281c4 <_start+0x4c8>
   281ba:	4889      	ldr	r0, [pc, #548]	@ (283e0 <_start+0x6e4>)
   281bc:	2102      	movs	r1, #2
   281be:	2200      	movs	r2, #0
   281c0:	4613      	mov	r3, r2
   281c2:	df04      	svc	4
   281c4:	78a8      	ldrb	r0, [r5, #2]
   281c6:	a934      	add	r1, sp, #208	@ 0xd0
   281c8:	7088      	strb	r0, [r1, #2]
   281ca:	7828      	ldrb	r0, [r5, #0]
   281cc:	786a      	ldrb	r2, [r5, #1]
   281ce:	0212      	lsls	r2, r2, #8
   281d0:	1810      	adds	r0, r2, r0
   281d2:	8008      	strh	r0, [r1, #0]
   281d4:	4880      	ldr	r0, [pc, #512]	@ (283d8 <_start+0x6dc>)
   281d6:	4468      	add	r0, sp
   281d8:	7800      	ldrb	r0, [r0, #0]
   281da:	4980      	ldr	r1, [pc, #512]	@ (283dc <_start+0x6e0>)
   281dc:	4469      	add	r1, sp
   281de:	3108      	adds	r1, #8
   281e0:	9a07      	ldr	r2, [sp, #28]
   281e2:	6812      	ldr	r2, [r2, #0]
   281e4:	9209      	str	r2, [sp, #36]	@ 0x24
   281e6:	aa2f      	add	r2, sp, #188	@ 0xbc
   281e8:	c978      	ldmia	r1!, {r3, r4, r5, r6}
   281ea:	c278      	stmia	r2!, {r3, r4, r5, r6}
   281ec:	7809      	ldrb	r1, [r1, #0]
   281ee:	7011      	strb	r1, [r2, #0]
   281f0:	2802      	cmp	r0, #2
   281f2:	d020      	beq.n	28236 <_start+0x53a>
   281f4:	2804      	cmp	r0, #4
   281f6:	d119      	bne.n	2822c <_start+0x530>
   281f8:	4879      	ldr	r0, [pc, #484]	@ (283e0 <_start+0x6e4>)
   281fa:	2103      	movs	r1, #3
   281fc:	2200      	movs	r2, #0
   281fe:	4613      	mov	r3, r2
   28200:	df04      	svc	4
   28202:	e018      	b.n	28236 <_start+0x53a>
   28204:	78a8      	ldrb	r0, [r5, #2]
   28206:	a934      	add	r1, sp, #208	@ 0xd0
   28208:	7088      	strb	r0, [r1, #2]
   2820a:	7828      	ldrb	r0, [r5, #0]
   2820c:	786a      	ldrb	r2, [r5, #1]
   2820e:	0212      	lsls	r2, r2, #8
   28210:	1810      	adds	r0, r2, r0
   28212:	8008      	strh	r0, [r1, #0]
   28214:	4871      	ldr	r0, [pc, #452]	@ (283dc <_start+0x6e0>)
   28216:	4468      	add	r0, sp
   28218:	3008      	adds	r0, #8
   2821a:	9907      	ldr	r1, [sp, #28]
   2821c:	6809      	ldr	r1, [r1, #0]
   2821e:	9109      	str	r1, [sp, #36]	@ 0x24
   28220:	a92f      	add	r1, sp, #188	@ 0xbc
   28222:	c86c      	ldmia	r0!, {r2, r3, r5, r6}
   28224:	c16c      	stmia	r1!, {r2, r3, r5, r6}
   28226:	7800      	ldrb	r0, [r0, #0]
   28228:	7008      	strb	r0, [r1, #0]
   2822a:	e004      	b.n	28236 <_start+0x53a>
   2822c:	486c      	ldr	r0, [pc, #432]	@ (283e0 <_start+0x6e4>)
   2822e:	2103      	movs	r1, #3
   28230:	2200      	movs	r2, #0
   28232:	4613      	mov	r3, r2
   28234:	df03      	svc	3
   28236:	a834      	add	r0, sp, #208	@ 0xd0
   28238:	7881      	ldrb	r1, [r0, #2]
   2823a:	aa1f      	add	r2, sp, #124	@ 0x7c
   2823c:	9206      	str	r2, [sp, #24]
   2823e:	70d1      	strb	r1, [r2, #3]
   28240:	7840      	ldrb	r0, [r0, #1]
   28242:	7090      	strb	r0, [r2, #2]
   28244:	9834      	ldr	r0, [sp, #208]	@ 0xd0
   28246:	7050      	strb	r0, [r2, #1]
   28248:	a82f      	add	r0, sp, #188	@ 0xbc
   2824a:	a90c      	add	r1, sp, #48	@ 0x30
   2824c:	460a      	mov	r2, r1
   2824e:	c878      	ldmia	r0!, {r3, r4, r5, r6}
   28250:	c278      	stmia	r2!, {r3, r4, r5, r6}
   28252:	7800      	ldrb	r0, [r0, #0]
   28254:	7010      	strb	r0, [r2, #0]
   28256:	9e06      	ldr	r6, [sp, #24]
   28258:	4630      	mov	r0, r6
   2825a:	3008      	adds	r0, #8
   2825c:	c93c      	ldmia	r1!, {r2, r3, r4, r5}
   2825e:	c03c      	stmia	r0!, {r2, r3, r4, r5}
   28260:	7809      	ldrb	r1, [r1, #0]
   28262:	7001      	strb	r1, [r0, #0]
   28264:	9c0a      	ldr	r4, [sp, #40]	@ 0x28
   28266:	7034      	strb	r4, [r6, #0]
   28268:	9809      	ldr	r0, [sp, #36]	@ 0x24
   2826a:	9020      	str	r0, [sp, #128]	@ 0x80
   2826c:	4d5a      	ldr	r5, [pc, #360]	@ (283d8 <_start+0x6dc>)
   2826e:	446d      	add	r5, sp
   28270:	1c68      	adds	r0, r5, #1
   28272:	2136      	movs	r1, #54	@ 0x36
   28274:	9009      	str	r0, [sp, #36]	@ 0x24
   28276:	f002 fd85 	bl	2ad84 <__aeabi_memclr>
   2827a:	702c      	strb	r4, [r5, #0]
   2827c:	1c72      	adds	r2, r6, #1
   2827e:	4859      	ldr	r0, [pc, #356]	@ (283e4 <_start+0x6e8>)
   28280:	2100      	movs	r1, #0
   28282:	2318      	movs	r3, #24
   28284:	df04      	svc	4
   28286:	2802      	cmp	r0, #2
   28288:	d02a      	beq.n	282e0 <_start+0x5e4>
   2828a:	a81f      	add	r0, sp, #124	@ 0x7c
   2828c:	990b      	ldr	r1, [sp, #44]	@ 0x2c
   2828e:	7001      	strb	r1, [r0, #0]
   28290:	4854      	ldr	r0, [pc, #336]	@ (283e4 <_start+0x6e8>)
   28292:	2107      	movs	r1, #7
   28294:	2336      	movs	r3, #54	@ 0x36
   28296:	9d09      	ldr	r5, [sp, #36]	@ 0x24
   28298:	462a      	mov	r2, r5
   2829a:	df03      	svc	3
   2829c:	2802      	cmp	r0, #2
   2829e:	d10d      	bne.n	282bc <_start+0x5c0>
   282a0:	484d      	ldr	r0, [pc, #308]	@ (283d8 <_start+0x6dc>)
   282a2:	4468      	add	r0, sp
   282a4:	7800      	ldrb	r0, [r0, #0]
   282a6:	2802      	cmp	r0, #2
   282a8:	d01a      	beq.n	282e0 <_start+0x5e4>
   282aa:	460c      	mov	r4, r1
   282ac:	2803      	cmp	r0, #3
   282ae:	d011      	beq.n	282d4 <_start+0x5d8>
   282b0:	484c      	ldr	r0, [pc, #304]	@ (283e4 <_start+0x6e8>)
   282b2:	2107      	movs	r1, #7
   282b4:	2200      	movs	r2, #0
   282b6:	4613      	mov	r3, r2
   282b8:	df04      	svc	4
   282ba:	e010      	b.n	282de <_start+0x5e2>
   282bc:	4846      	ldr	r0, [pc, #280]	@ (283d8 <_start+0x6dc>)
   282be:	4468      	add	r0, sp
   282c0:	9902      	ldr	r1, [sp, #8]
   282c2:	7001      	strb	r1, [r0, #0]
   282c4:	4847      	ldr	r0, [pc, #284]	@ (283e4 <_start+0x6e8>)
   282c6:	2207      	movs	r2, #7
   282c8:	2100      	movs	r1, #0
   282ca:	460b      	mov	r3, r1
   282cc:	df02      	svc	2
   282ce:	2880      	cmp	r0, #128	@ 0x80
   282d0:	d21b      	bcs.n	2830a <_start+0x60e>
   282d2:	460c      	mov	r4, r1
   282d4:	4843      	ldr	r0, [pc, #268]	@ (283e4 <_start+0x6e8>)
   282d6:	2107      	movs	r1, #7
   282d8:	2200      	movs	r2, #0
   282da:	4613      	mov	r3, r2
   282dc:	df03      	svc	3
   282de:	4621      	mov	r1, r4
   282e0:	a81f      	add	r0, sp, #124	@ 0x7c
   282e2:	7800      	ldrb	r0, [r0, #0]
   282e4:	2802      	cmp	r0, #2
   282e6:	d100      	bne.n	282ea <_start+0x5ee>
   282e8:	e571      	b.n	27dce <_start+0xd2>
   282ea:	2804      	cmp	r0, #4
   282ec:	d106      	bne.n	282fc <_start+0x600>
   282ee:	483d      	ldr	r0, [pc, #244]	@ (283e4 <_start+0x6e8>)
   282f0:	2200      	movs	r2, #0
   282f2:	460c      	mov	r4, r1
   282f4:	4611      	mov	r1, r2
   282f6:	4613      	mov	r3, r2
   282f8:	df04      	svc	4
   282fa:	e567      	b.n	27dcc <_start+0xd0>
   282fc:	460c      	mov	r4, r1
   282fe:	4839      	ldr	r0, [pc, #228]	@ (283e4 <_start+0x6e8>)
   28300:	2100      	movs	r1, #0
   28302:	460a      	mov	r2, r1
   28304:	460b      	mov	r3, r1
   28306:	df03      	svc	3
   28308:	e560      	b.n	27dcc <_start+0xd0>
   2830a:	a81f      	add	r0, sp, #124	@ 0x7c
   2830c:	7800      	ldrb	r0, [r0, #0]
   2830e:	2802      	cmp	r0, #2
   28310:	d00c      	beq.n	2832c <_start+0x630>
   28312:	2803      	cmp	r0, #3
   28314:	d105      	bne.n	28322 <_start+0x626>
   28316:	4833      	ldr	r0, [pc, #204]	@ (283e4 <_start+0x6e8>)
   28318:	2100      	movs	r1, #0
   2831a:	460a      	mov	r2, r1
   2831c:	460b      	mov	r3, r1
   2831e:	df03      	svc	3
   28320:	e004      	b.n	2832c <_start+0x630>
   28322:	4830      	ldr	r0, [pc, #192]	@ (283e4 <_start+0x6e8>)
   28324:	2100      	movs	r1, #0
   28326:	460a      	mov	r2, r1
   28328:	460b      	mov	r3, r1
   2832a:	df04      	svc	4
   2832c:	a81f      	add	r0, sp, #124	@ 0x7c
   2832e:	7004      	strb	r4, [r0, #0]
   28330:	4829      	ldr	r0, [pc, #164]	@ (283d8 <_start+0x6dc>)
   28332:	4468      	add	r0, sp
   28334:	7800      	ldrb	r0, [r0, #0]
   28336:	2804      	cmp	r0, #4
   28338:	d007      	beq.n	2834a <_start+0x64e>
   2833a:	2803      	cmp	r0, #3
   2833c:	d12f      	bne.n	2839e <_start+0x6a2>
   2833e:	4829      	ldr	r0, [pc, #164]	@ (283e4 <_start+0x6e8>)
   28340:	2107      	movs	r1, #7
   28342:	2200      	movs	r2, #0
   28344:	4613      	mov	r3, r2
   28346:	df03      	svc	3
   28348:	e004      	b.n	28354 <_start+0x658>
   2834a:	4826      	ldr	r0, [pc, #152]	@ (283e4 <_start+0x6e8>)
   2834c:	2107      	movs	r1, #7
   2834e:	2200      	movs	r2, #0
   28350:	4613      	mov	r3, r2
   28352:	df04      	svc	4
   28354:	78a8      	ldrb	r0, [r5, #2]
   28356:	a92f      	add	r1, sp, #188	@ 0xbc
   28358:	7088      	strb	r0, [r1, #2]
   2835a:	7828      	ldrb	r0, [r5, #0]
   2835c:	786a      	ldrb	r2, [r5, #1]
   2835e:	0212      	lsls	r2, r2, #8
   28360:	1810      	adds	r0, r2, r0
   28362:	8008      	strh	r0, [r1, #0]
   28364:	a81f      	add	r0, sp, #124	@ 0x7c
   28366:	7800      	ldrb	r0, [r0, #0]
   28368:	491b      	ldr	r1, [pc, #108]	@ (283d8 <_start+0x6dc>)
   2836a:	4469      	add	r1, sp
   2836c:	3108      	adds	r1, #8
   2836e:	9a08      	ldr	r2, [sp, #32]
   28370:	6e12      	ldr	r2, [r2, #96]	@ 0x60
   28372:	9209      	str	r2, [sp, #36]	@ 0x24
   28374:	aa0c      	add	r2, sp, #48	@ 0x30
   28376:	c958      	ldmia	r1!, {r3, r4, r6}
   28378:	c258      	stmia	r2!, {r3, r4, r6}
   2837a:	c978      	ldmia	r1!, {r3, r4, r5, r6}
   2837c:	c278      	stmia	r2!, {r3, r4, r5, r6}
   2837e:	c978      	ldmia	r1!, {r3, r4, r5, r6}
   28380:	c278      	stmia	r2!, {r3, r4, r5, r6}
   28382:	880b      	ldrh	r3, [r1, #0]
   28384:	8013      	strh	r3, [r2, #0]
   28386:	7889      	ldrb	r1, [r1, #2]
   28388:	7091      	strb	r1, [r2, #2]
   2838a:	2802      	cmp	r0, #2
   2838c:	d031      	beq.n	283f2 <_start+0x6f6>
   2838e:	2804      	cmp	r0, #4
   28390:	d12a      	bne.n	283e8 <_start+0x6ec>
   28392:	4814      	ldr	r0, [pc, #80]	@ (283e4 <_start+0x6e8>)
   28394:	2100      	movs	r1, #0
   28396:	460a      	mov	r2, r1
   28398:	460b      	mov	r3, r1
   2839a:	df04      	svc	4
   2839c:	e029      	b.n	283f2 <_start+0x6f6>
   2839e:	78a8      	ldrb	r0, [r5, #2]
   283a0:	a92f      	add	r1, sp, #188	@ 0xbc
   283a2:	7088      	strb	r0, [r1, #2]
   283a4:	7828      	ldrb	r0, [r5, #0]
   283a6:	786a      	ldrb	r2, [r5, #1]
   283a8:	0212      	lsls	r2, r2, #8
   283aa:	1810      	adds	r0, r2, r0
   283ac:	8008      	strh	r0, [r1, #0]
   283ae:	480a      	ldr	r0, [pc, #40]	@ (283d8 <_start+0x6dc>)
   283b0:	4468      	add	r0, sp
   283b2:	3008      	adds	r0, #8
   283b4:	9908      	ldr	r1, [sp, #32]
   283b6:	6e09      	ldr	r1, [r1, #96]	@ 0x60
   283b8:	9109      	str	r1, [sp, #36]	@ 0x24
   283ba:	a90c      	add	r1, sp, #48	@ 0x30
   283bc:	c81c      	ldmia	r0!, {r2, r3, r4}
   283be:	c11c      	stmia	r1!, {r2, r3, r4}
   283c0:	c85c      	ldmia	r0!, {r2, r3, r4, r6}
   283c2:	c15c      	stmia	r1!, {r2, r3, r4, r6}
   283c4:	c85c      	ldmia	r0!, {r2, r3, r4, r6}
   283c6:	c15c      	stmia	r1!, {r2, r3, r4, r6}
   283c8:	8802      	ldrh	r2, [r0, #0]
   283ca:	800a      	strh	r2, [r1, #0]
   283cc:	7880      	ldrb	r0, [r0, #2]
   283ce:	7088      	strb	r0, [r1, #2]
   283d0:	e00f      	b.n	283f2 <_start+0x6f6>
   283d2:	46c0      	nop			@ (mov r8, r8)
   283d4:	000020c4 	.word	0x000020c4
   283d8:	00001404 	.word	0x00001404
   283dc:	000013a8 	.word	0x000013a8
   283e0:	000023cf 	.word	0x000023cf
   283e4:	0000021f 	.word	0x0000021f
   283e8:	48db      	ldr	r0, [pc, #876]	@ (28758 <_start+0xa5c>)
   283ea:	2100      	movs	r1, #0
   283ec:	460a      	mov	r2, r1
   283ee:	460b      	mov	r3, r1
   283f0:	df03      	svc	3
   283f2:	a82f      	add	r0, sp, #188	@ 0xbc
   283f4:	7881      	ldrb	r1, [r0, #2]
   283f6:	4ad9      	ldr	r2, [pc, #868]	@ (2875c <_start+0xa60>)
   283f8:	446a      	add	r2, sp
   283fa:	9206      	str	r2, [sp, #24]
   283fc:	70d1      	strb	r1, [r2, #3]
   283fe:	7840      	ldrb	r0, [r0, #1]
   28400:	7090      	strb	r0, [r2, #2]
   28402:	982f      	ldr	r0, [sp, #188]	@ 0xbc
   28404:	7050      	strb	r0, [r2, #1]
   28406:	a90c      	add	r1, sp, #48	@ 0x30
   28408:	48d5      	ldr	r0, [pc, #852]	@ (28760 <_start+0xa64>)
   2840a:	4468      	add	r0, sp
   2840c:	4602      	mov	r2, r0
   2840e:	c938      	ldmia	r1!, {r3, r4, r5}
   28410:	c238      	stmia	r2!, {r3, r4, r5}
   28412:	c978      	ldmia	r1!, {r3, r4, r5, r6}
   28414:	c278      	stmia	r2!, {r3, r4, r5, r6}
   28416:	c978      	ldmia	r1!, {r3, r4, r5, r6}
   28418:	c278      	stmia	r2!, {r3, r4, r5, r6}
   2841a:	880b      	ldrh	r3, [r1, #0]
   2841c:	8013      	strh	r3, [r2, #0]
   2841e:	7889      	ldrb	r1, [r1, #2]
   28420:	7091      	strb	r1, [r2, #2]
   28422:	9e06      	ldr	r6, [sp, #24]
   28424:	4631      	mov	r1, r6
   28426:	3108      	adds	r1, #8
   28428:	c81c      	ldmia	r0!, {r2, r3, r4}
   2842a:	c11c      	stmia	r1!, {r2, r3, r4}
   2842c:	c83c      	ldmia	r0!, {r2, r3, r4, r5}
   2842e:	c13c      	stmia	r1!, {r2, r3, r4, r5}
   28430:	c83c      	ldmia	r0!, {r2, r3, r4, r5}
   28432:	c13c      	stmia	r1!, {r2, r3, r4, r5}
   28434:	8802      	ldrh	r2, [r0, #0]
   28436:	800a      	strh	r2, [r1, #0]
   28438:	7880      	ldrb	r0, [r0, #2]
   2843a:	7088      	strb	r0, [r1, #2]
   2843c:	980a      	ldr	r0, [sp, #40]	@ 0x28
   2843e:	4635      	mov	r5, r6
   28440:	7030      	strb	r0, [r6, #0]
   28442:	4606      	mov	r6, r0
   28444:	9808      	ldr	r0, [sp, #32]
   28446:	9909      	ldr	r1, [sp, #36]	@ 0x24
   28448:	6601      	str	r1, [r0, #96]	@ 0x60
   2844a:	4cc5      	ldr	r4, [pc, #788]	@ (28760 <_start+0xa64>)
   2844c:	446c      	add	r4, sp
   2844e:	1c60      	adds	r0, r4, #1
   28450:	2125      	movs	r1, #37	@ 0x25
   28452:	9009      	str	r0, [sp, #36]	@ 0x24
   28454:	f002 fc96 	bl	2ad84 <__aeabi_memclr>
   28458:	7026      	strb	r6, [r4, #0]
   2845a:	1c6a      	adds	r2, r5, #1
   2845c:	48c1      	ldr	r0, [pc, #772]	@ (28764 <_start+0xa68>)
   2845e:	2107      	movs	r1, #7
   28460:	2336      	movs	r3, #54	@ 0x36
   28462:	df04      	svc	4
   28464:	2802      	cmp	r0, #2
   28466:	d02b      	beq.n	284c0 <_start+0x7c4>
   28468:	48bc      	ldr	r0, [pc, #752]	@ (2875c <_start+0xa60>)
   2846a:	4468      	add	r0, sp
   2846c:	990b      	ldr	r1, [sp, #44]	@ 0x2c
   2846e:	7001      	strb	r1, [r0, #0]
   28470:	48bc      	ldr	r0, [pc, #752]	@ (28764 <_start+0xa68>)
   28472:	2100      	movs	r1, #0
   28474:	2325      	movs	r3, #37	@ 0x25
   28476:	9e09      	ldr	r6, [sp, #36]	@ 0x24
   28478:	4632      	mov	r2, r6
   2847a:	df03      	svc	3
   2847c:	2802      	cmp	r0, #2
   2847e:	d10d      	bne.n	2849c <_start+0x7a0>
   28480:	9106      	str	r1, [sp, #24]
   28482:	48b7      	ldr	r0, [pc, #732]	@ (28760 <_start+0xa64>)
   28484:	4468      	add	r0, sp
   28486:	7800      	ldrb	r0, [r0, #0]
   28488:	2802      	cmp	r0, #2
   2848a:	d018      	beq.n	284be <_start+0x7c2>
   2848c:	2803      	cmp	r0, #3
   2848e:	d011      	beq.n	284b4 <_start+0x7b8>
   28490:	48b4      	ldr	r0, [pc, #720]	@ (28764 <_start+0xa68>)
   28492:	2100      	movs	r1, #0
   28494:	460a      	mov	r2, r1
   28496:	460b      	mov	r3, r1
   28498:	df04      	svc	4
   2849a:	e010      	b.n	284be <_start+0x7c2>
   2849c:	48b0      	ldr	r0, [pc, #704]	@ (28760 <_start+0xa64>)
   2849e:	4468      	add	r0, sp
   284a0:	9902      	ldr	r1, [sp, #8]
   284a2:	7001      	strb	r1, [r0, #0]
   284a4:	48af      	ldr	r0, [pc, #700]	@ (28764 <_start+0xa68>)
   284a6:	2107      	movs	r1, #7
   284a8:	2200      	movs	r2, #0
   284aa:	4613      	mov	r3, r2
   284ac:	df02      	svc	2
   284ae:	9106      	str	r1, [sp, #24]
   284b0:	2880      	cmp	r0, #128	@ 0x80
   284b2:	d21a      	bcs.n	284ea <_start+0x7ee>
   284b4:	48ab      	ldr	r0, [pc, #684]	@ (28764 <_start+0xa68>)
   284b6:	2100      	movs	r1, #0
   284b8:	460a      	mov	r2, r1
   284ba:	460b      	mov	r3, r1
   284bc:	df03      	svc	3
   284be:	9906      	ldr	r1, [sp, #24]
   284c0:	48a6      	ldr	r0, [pc, #664]	@ (2875c <_start+0xa60>)
   284c2:	4468      	add	r0, sp
   284c4:	7800      	ldrb	r0, [r0, #0]
   284c6:	2802      	cmp	r0, #2
   284c8:	d100      	bne.n	284cc <_start+0x7d0>
   284ca:	e480      	b.n	27dce <_start+0xd2>
   284cc:	460c      	mov	r4, r1
   284ce:	2804      	cmp	r0, #4
   284d0:	d105      	bne.n	284de <_start+0x7e2>
   284d2:	48a4      	ldr	r0, [pc, #656]	@ (28764 <_start+0xa68>)
   284d4:	2107      	movs	r1, #7
   284d6:	2200      	movs	r2, #0
   284d8:	4613      	mov	r3, r2
   284da:	df04      	svc	4
   284dc:	e476      	b.n	27dcc <_start+0xd0>
   284de:	48a1      	ldr	r0, [pc, #644]	@ (28764 <_start+0xa68>)
   284e0:	2107      	movs	r1, #7
   284e2:	2200      	movs	r2, #0
   284e4:	4613      	mov	r3, r2
   284e6:	df03      	svc	3
   284e8:	e470      	b.n	27dcc <_start+0xd0>
   284ea:	4634      	mov	r4, r6
   284ec:	489b      	ldr	r0, [pc, #620]	@ (2875c <_start+0xa60>)
   284ee:	4468      	add	r0, sp
   284f0:	7800      	ldrb	r0, [r0, #0]
   284f2:	2802      	cmp	r0, #2
   284f4:	d00c      	beq.n	28510 <_start+0x814>
   284f6:	2803      	cmp	r0, #3
   284f8:	d105      	bne.n	28506 <_start+0x80a>
   284fa:	489a      	ldr	r0, [pc, #616]	@ (28764 <_start+0xa68>)
   284fc:	2107      	movs	r1, #7
   284fe:	2200      	movs	r2, #0
   28500:	4613      	mov	r3, r2
   28502:	df03      	svc	3
   28504:	e004      	b.n	28510 <_start+0x814>
   28506:	4897      	ldr	r0, [pc, #604]	@ (28764 <_start+0xa68>)
   28508:	2107      	movs	r1, #7
   2850a:	2200      	movs	r2, #0
   2850c:	4613      	mov	r3, r2
   2850e:	df04      	svc	4
   28510:	4892      	ldr	r0, [pc, #584]	@ (2875c <_start+0xa60>)
   28512:	4468      	add	r0, sp
   28514:	990a      	ldr	r1, [sp, #40]	@ 0x28
   28516:	7001      	strb	r1, [r0, #0]
   28518:	4891      	ldr	r0, [pc, #580]	@ (28760 <_start+0xa64>)
   2851a:	4468      	add	r0, sp
   2851c:	7800      	ldrb	r0, [r0, #0]
   2851e:	2804      	cmp	r0, #4
   28520:	d007      	beq.n	28532 <_start+0x836>
   28522:	2803      	cmp	r0, #3
   28524:	d12c      	bne.n	28580 <_start+0x884>
   28526:	488f      	ldr	r0, [pc, #572]	@ (28764 <_start+0xa68>)
   28528:	2100      	movs	r1, #0
   2852a:	460a      	mov	r2, r1
   2852c:	460b      	mov	r3, r1
   2852e:	df03      	svc	3
   28530:	e004      	b.n	2853c <_start+0x840>
   28532:	488c      	ldr	r0, [pc, #560]	@ (28764 <_start+0xa68>)
   28534:	2100      	movs	r1, #0
   28536:	460a      	mov	r2, r1
   28538:	460b      	mov	r3, r1
   2853a:	df04      	svc	4
   2853c:	78a0      	ldrb	r0, [r4, #2]
   2853e:	a92f      	add	r1, sp, #188	@ 0xbc
   28540:	7088      	strb	r0, [r1, #2]
   28542:	7820      	ldrb	r0, [r4, #0]
   28544:	7862      	ldrb	r2, [r4, #1]
   28546:	0212      	lsls	r2, r2, #8
   28548:	1810      	adds	r0, r2, r0
   2854a:	8008      	strh	r0, [r1, #0]
   2854c:	4883      	ldr	r0, [pc, #524]	@ (2875c <_start+0xa60>)
   2854e:	4468      	add	r0, sp
   28550:	7800      	ldrb	r0, [r0, #0]
   28552:	4983      	ldr	r1, [pc, #524]	@ (28760 <_start+0xa64>)
   28554:	4469      	add	r1, sp
   28556:	3108      	adds	r1, #8
   28558:	9a07      	ldr	r2, [sp, #28]
   2855a:	6812      	ldr	r2, [r2, #0]
   2855c:	9209      	str	r2, [sp, #36]	@ 0x24
   2855e:	aa1f      	add	r2, sp, #124	@ 0x7c
   28560:	c958      	ldmia	r1!, {r3, r4, r6}
   28562:	c258      	stmia	r2!, {r3, r4, r6}
   28564:	c978      	ldmia	r1!, {r3, r4, r5, r6}
   28566:	c278      	stmia	r2!, {r3, r4, r5, r6}
   28568:	8809      	ldrh	r1, [r1, #0]
   2856a:	8011      	strh	r1, [r2, #0]
   2856c:	2802      	cmp	r0, #2
   2856e:	d022      	beq.n	285b6 <_start+0x8ba>
   28570:	2804      	cmp	r0, #4
   28572:	d11b      	bne.n	285ac <_start+0x8b0>
   28574:	487b      	ldr	r0, [pc, #492]	@ (28764 <_start+0xa68>)
   28576:	2107      	movs	r1, #7
   28578:	2200      	movs	r2, #0
   2857a:	4613      	mov	r3, r2
   2857c:	df04      	svc	4
   2857e:	e01a      	b.n	285b6 <_start+0x8ba>
   28580:	78a0      	ldrb	r0, [r4, #2]
   28582:	a92f      	add	r1, sp, #188	@ 0xbc
   28584:	7088      	strb	r0, [r1, #2]
   28586:	7820      	ldrb	r0, [r4, #0]
   28588:	7862      	ldrb	r2, [r4, #1]
   2858a:	0212      	lsls	r2, r2, #8
   2858c:	1810      	adds	r0, r2, r0
   2858e:	8008      	strh	r0, [r1, #0]
   28590:	4873      	ldr	r0, [pc, #460]	@ (28760 <_start+0xa64>)
   28592:	4468      	add	r0, sp
   28594:	3008      	adds	r0, #8
   28596:	9907      	ldr	r1, [sp, #28]
   28598:	6809      	ldr	r1, [r1, #0]
   2859a:	9109      	str	r1, [sp, #36]	@ 0x24
   2859c:	a91f      	add	r1, sp, #124	@ 0x7c
   2859e:	c81c      	ldmia	r0!, {r2, r3, r4}
   285a0:	c11c      	stmia	r1!, {r2, r3, r4}
   285a2:	c85c      	ldmia	r0!, {r2, r3, r4, r6}
   285a4:	c15c      	stmia	r1!, {r2, r3, r4, r6}
   285a6:	8800      	ldrh	r0, [r0, #0]
   285a8:	8008      	strh	r0, [r1, #0]
   285aa:	e004      	b.n	285b6 <_start+0x8ba>
   285ac:	486d      	ldr	r0, [pc, #436]	@ (28764 <_start+0xa68>)
   285ae:	2107      	movs	r1, #7
   285b0:	2200      	movs	r2, #0
   285b2:	4613      	mov	r3, r2
   285b4:	df03      	svc	3
   285b6:	a82f      	add	r0, sp, #188	@ 0xbc
   285b8:	7881      	ldrb	r1, [r0, #2]
   285ba:	4a68      	ldr	r2, [pc, #416]	@ (2875c <_start+0xa60>)
   285bc:	446a      	add	r2, sp
   285be:	9206      	str	r2, [sp, #24]
   285c0:	70d1      	strb	r1, [r2, #3]
   285c2:	7840      	ldrb	r0, [r0, #1]
   285c4:	7090      	strb	r0, [r2, #2]
   285c6:	982f      	ldr	r0, [sp, #188]	@ 0xbc
   285c8:	7050      	strb	r0, [r2, #1]
   285ca:	a91f      	add	r1, sp, #124	@ 0x7c
   285cc:	a80c      	add	r0, sp, #48	@ 0x30
   285ce:	4602      	mov	r2, r0
   285d0:	c938      	ldmia	r1!, {r3, r4, r5}
   285d2:	c238      	stmia	r2!, {r3, r4, r5}
   285d4:	c978      	ldmia	r1!, {r3, r4, r5, r6}
   285d6:	c278      	stmia	r2!, {r3, r4, r5, r6}
   285d8:	8809      	ldrh	r1, [r1, #0]
   285da:	8011      	strh	r1, [r2, #0]
   285dc:	9e06      	ldr	r6, [sp, #24]
   285de:	4631      	mov	r1, r6
   285e0:	3108      	adds	r1, #8
   285e2:	c81c      	ldmia	r0!, {r2, r3, r4}
   285e4:	c11c      	stmia	r1!, {r2, r3, r4}
   285e6:	c83c      	ldmia	r0!, {r2, r3, r4, r5}
   285e8:	c13c      	stmia	r1!, {r2, r3, r4, r5}
   285ea:	8800      	ldrh	r0, [r0, #0]
   285ec:	8008      	strh	r0, [r1, #0]
   285ee:	9d0a      	ldr	r5, [sp, #40]	@ 0x28
   285f0:	7035      	strb	r5, [r6, #0]
   285f2:	9808      	ldr	r0, [sp, #32]
   285f4:	9909      	ldr	r1, [sp, #36]	@ 0x24
   285f6:	6601      	str	r1, [r0, #96]	@ 0x60
   285f8:	4c59      	ldr	r4, [pc, #356]	@ (28760 <_start+0xa64>)
   285fa:	446c      	add	r4, sp
   285fc:	1c60      	adds	r0, r4, #1
   285fe:	210e      	movs	r1, #14
   28600:	9009      	str	r0, [sp, #36]	@ 0x24
   28602:	f002 fbbf 	bl	2ad84 <__aeabi_memclr>
   28606:	7025      	strb	r5, [r4, #0]
   28608:	1c72      	adds	r2, r6, #1
   2860a:	4857      	ldr	r0, [pc, #348]	@ (28768 <_start+0xa6c>)
   2860c:	2325      	movs	r3, #37	@ 0x25
   2860e:	4629      	mov	r1, r5
   28610:	df04      	svc	4
   28612:	2802      	cmp	r0, #2
   28614:	d101      	bne.n	2861a <_start+0x91e>
   28616:	460d      	mov	r5, r1
   28618:	e02a      	b.n	28670 <_start+0x974>
   2861a:	4850      	ldr	r0, [pc, #320]	@ (2875c <_start+0xa60>)
   2861c:	4468      	add	r0, sp
   2861e:	990b      	ldr	r1, [sp, #44]	@ 0x2c
   28620:	7001      	strb	r1, [r0, #0]
   28622:	4851      	ldr	r0, [pc, #324]	@ (28768 <_start+0xa6c>)
   28624:	2108      	movs	r1, #8
   28626:	230e      	movs	r3, #14
   28628:	9a09      	ldr	r2, [sp, #36]	@ 0x24
   2862a:	df03      	svc	3
   2862c:	2802      	cmp	r0, #2
   2862e:	d10d      	bne.n	2864c <_start+0x950>
   28630:	460d      	mov	r5, r1
   28632:	484b      	ldr	r0, [pc, #300]	@ (28760 <_start+0xa64>)
   28634:	4468      	add	r0, sp
   28636:	7800      	ldrb	r0, [r0, #0]
   28638:	2802      	cmp	r0, #2
   2863a:	d019      	beq.n	28670 <_start+0x974>
   2863c:	2803      	cmp	r0, #3
   2863e:	d012      	beq.n	28666 <_start+0x96a>
   28640:	4849      	ldr	r0, [pc, #292]	@ (28768 <_start+0xa6c>)
   28642:	2108      	movs	r1, #8
   28644:	2200      	movs	r2, #0
   28646:	4613      	mov	r3, r2
   28648:	df04      	svc	4
   2864a:	e011      	b.n	28670 <_start+0x974>
   2864c:	4844      	ldr	r0, [pc, #272]	@ (28760 <_start+0xa64>)
   2864e:	4468      	add	r0, sp
   28650:	9902      	ldr	r1, [sp, #8]
   28652:	7001      	strb	r1, [r0, #0]
   28654:	4844      	ldr	r0, [pc, #272]	@ (28768 <_start+0xa6c>)
   28656:	2402      	movs	r4, #2
   28658:	2208      	movs	r2, #8
   2865a:	2300      	movs	r3, #0
   2865c:	4621      	mov	r1, r4
   2865e:	df02      	svc	2
   28660:	2880      	cmp	r0, #128	@ 0x80
   28662:	d21b      	bcs.n	2869c <_start+0x9a0>
   28664:	460d      	mov	r5, r1
   28666:	4840      	ldr	r0, [pc, #256]	@ (28768 <_start+0xa6c>)
   28668:	2108      	movs	r1, #8
   2866a:	2200      	movs	r2, #0
   2866c:	4613      	mov	r3, r2
   2866e:	df03      	svc	3
   28670:	483a      	ldr	r0, [pc, #232]	@ (2875c <_start+0xa60>)
   28672:	4468      	add	r0, sp
   28674:	7800      	ldrb	r0, [r0, #0]
   28676:	2802      	cmp	r0, #2
   28678:	d00c      	beq.n	28694 <_start+0x998>
   2867a:	2804      	cmp	r0, #4
   2867c:	d105      	bne.n	2868a <_start+0x98e>
   2867e:	483a      	ldr	r0, [pc, #232]	@ (28768 <_start+0xa6c>)
   28680:	2102      	movs	r1, #2
   28682:	2200      	movs	r2, #0
   28684:	4613      	mov	r3, r2
   28686:	df04      	svc	4
   28688:	e004      	b.n	28694 <_start+0x998>
   2868a:	4837      	ldr	r0, [pc, #220]	@ (28768 <_start+0xa6c>)
   2868c:	2102      	movs	r1, #2
   2868e:	2200      	movs	r2, #0
   28690:	4613      	mov	r3, r2
   28692:	df03      	svc	3
   28694:	2001      	movs	r0, #1
   28696:	4629      	mov	r1, r5
   28698:	f7ff fb9a 	bl	27dd0 <_start+0xd4>
   2869c:	482f      	ldr	r0, [pc, #188]	@ (2875c <_start+0xa60>)
   2869e:	4468      	add	r0, sp
   286a0:	7800      	ldrb	r0, [r0, #0]
   286a2:	2802      	cmp	r0, #2
   286a4:	d00c      	beq.n	286c0 <_start+0x9c4>
   286a6:	2803      	cmp	r0, #3
   286a8:	d105      	bne.n	286b6 <_start+0x9ba>
   286aa:	482f      	ldr	r0, [pc, #188]	@ (28768 <_start+0xa6c>)
   286ac:	2102      	movs	r1, #2
   286ae:	2200      	movs	r2, #0
   286b0:	4613      	mov	r3, r2
   286b2:	df03      	svc	3
   286b4:	e004      	b.n	286c0 <_start+0x9c4>
   286b6:	482c      	ldr	r0, [pc, #176]	@ (28768 <_start+0xa6c>)
   286b8:	2102      	movs	r1, #2
   286ba:	2200      	movs	r2, #0
   286bc:	4613      	mov	r3, r2
   286be:	df04      	svc	4
   286c0:	4826      	ldr	r0, [pc, #152]	@ (2875c <_start+0xa60>)
   286c2:	4468      	add	r0, sp
   286c4:	7004      	strb	r4, [r0, #0]
   286c6:	4826      	ldr	r0, [pc, #152]	@ (28760 <_start+0xa64>)
   286c8:	4468      	add	r0, sp
   286ca:	7800      	ldrb	r0, [r0, #0]
   286cc:	2804      	cmp	r0, #4
   286ce:	d007      	beq.n	286e0 <_start+0x9e4>
   286d0:	2803      	cmp	r0, #3
   286d2:	d12b      	bne.n	2872c <_start+0xa30>
   286d4:	4824      	ldr	r0, [pc, #144]	@ (28768 <_start+0xa6c>)
   286d6:	2108      	movs	r1, #8
   286d8:	2200      	movs	r2, #0
   286da:	4613      	mov	r3, r2
   286dc:	df03      	svc	3
   286de:	e004      	b.n	286ea <_start+0x9ee>
   286e0:	4821      	ldr	r0, [pc, #132]	@ (28768 <_start+0xa6c>)
   286e2:	2108      	movs	r1, #8
   286e4:	2200      	movs	r2, #0
   286e6:	4613      	mov	r3, r2
   286e8:	df04      	svc	4
   286ea:	a81f      	add	r0, sp, #124	@ 0x7c
   286ec:	9b07      	ldr	r3, [sp, #28]
   286ee:	6899      	ldr	r1, [r3, #8]
   286f0:	8081      	strh	r1, [r0, #4]
   286f2:	9c09      	ldr	r4, [sp, #36]	@ 0x24
   286f4:	78a1      	ldrb	r1, [r4, #2]
   286f6:	aa2f      	add	r2, sp, #188	@ 0xbc
   286f8:	7091      	strb	r1, [r2, #2]
   286fa:	4919      	ldr	r1, [pc, #100]	@ (28760 <_start+0xa64>)
   286fc:	4469      	add	r1, sp
   286fe:	7b89      	ldrb	r1, [r1, #14]
   28700:	7181      	strb	r1, [r0, #6]
   28702:	7820      	ldrb	r0, [r4, #0]
   28704:	7861      	ldrb	r1, [r4, #1]
   28706:	0209      	lsls	r1, r1, #8
   28708:	1808      	adds	r0, r1, r0
   2870a:	8010      	strh	r0, [r2, #0]
   2870c:	6858      	ldr	r0, [r3, #4]
   2870e:	901f      	str	r0, [sp, #124]	@ 0x7c
   28710:	4812      	ldr	r0, [pc, #72]	@ (2875c <_start+0xa60>)
   28712:	4468      	add	r0, sp
   28714:	7800      	ldrb	r0, [r0, #0]
   28716:	681d      	ldr	r5, [r3, #0]
   28718:	2802      	cmp	r0, #2
   2871a:	d02f      	beq.n	2877c <_start+0xa80>
   2871c:	2804      	cmp	r0, #4
   2871e:	d125      	bne.n	2876c <_start+0xa70>
   28720:	4811      	ldr	r0, [pc, #68]	@ (28768 <_start+0xa6c>)
   28722:	2102      	movs	r1, #2
   28724:	2200      	movs	r2, #0
   28726:	4613      	mov	r3, r2
   28728:	df04      	svc	4
   2872a:	e027      	b.n	2877c <_start+0xa80>
   2872c:	a81f      	add	r0, sp, #124	@ 0x7c
   2872e:	9b07      	ldr	r3, [sp, #28]
   28730:	6899      	ldr	r1, [r3, #8]
   28732:	8081      	strh	r1, [r0, #4]
   28734:	9c09      	ldr	r4, [sp, #36]	@ 0x24
   28736:	78a1      	ldrb	r1, [r4, #2]
   28738:	aa2f      	add	r2, sp, #188	@ 0xbc
   2873a:	7091      	strb	r1, [r2, #2]
   2873c:	4908      	ldr	r1, [pc, #32]	@ (28760 <_start+0xa64>)
   2873e:	4469      	add	r1, sp
   28740:	7b89      	ldrb	r1, [r1, #14]
   28742:	7181      	strb	r1, [r0, #6]
   28744:	7820      	ldrb	r0, [r4, #0]
   28746:	7861      	ldrb	r1, [r4, #1]
   28748:	0209      	lsls	r1, r1, #8
   2874a:	1808      	adds	r0, r1, r0
   2874c:	8010      	strh	r0, [r2, #0]
   2874e:	6858      	ldr	r0, [r3, #4]
   28750:	901f      	str	r0, [sp, #124]	@ 0x7c
   28752:	681d      	ldr	r5, [r3, #0]
   28754:	e012      	b.n	2877c <_start+0xa80>
   28756:	46c0      	nop			@ (mov r8, r8)
   28758:	0000021f 	.word	0x0000021f
   2875c:	00001404 	.word	0x00001404
   28760:	000013a8 	.word	0x000013a8
   28764:	00001597 	.word	0x00001597
   28768:	00000667 	.word	0x00000667
   2876c:	4802      	ldr	r0, [pc, #8]	@ (28778 <_start+0xa7c>)
   2876e:	2102      	movs	r1, #2
   28770:	2200      	movs	r2, #0
   28772:	4613      	mov	r3, r2
   28774:	df03      	svc	3
   28776:	e001      	b.n	2877c <_start+0xa80>
   28778:	00000667 	.word	0x00000667
   2877c:	ac35      	add	r4, sp, #212	@ 0xd4
   2877e:	982f      	ldr	r0, [sp, #188]	@ 0xbc
   28780:	8020      	strh	r0, [r4, #0]
   28782:	a90c      	add	r1, sp, #48	@ 0x30
   28784:	9820      	ldr	r0, [sp, #128]	@ 0x80
   28786:	8088      	strh	r0, [r1, #4]
   28788:	a82f      	add	r0, sp, #188	@ 0xbc
   2878a:	7880      	ldrb	r0, [r0, #2]
   2878c:	70a0      	strb	r0, [r4, #2]
   2878e:	a81f      	add	r0, sp, #124	@ 0x7c
   28790:	7980      	ldrb	r0, [r0, #6]
   28792:	7188      	strb	r0, [r1, #6]
   28794:	70e5      	strb	r5, [r4, #3]
   28796:	0e28      	lsrs	r0, r5, #24
   28798:	71a0      	strb	r0, [r4, #6]
   2879a:	0c28      	lsrs	r0, r5, #16
   2879c:	7160      	strb	r0, [r4, #5]
   2879e:	0a28      	lsrs	r0, r5, #8
   287a0:	7120      	strb	r0, [r4, #4]
   287a2:	981f      	ldr	r0, [sp, #124]	@ 0x7c
   287a4:	900c      	str	r0, [sp, #48]	@ 0x30
   287a6:	1de0      	adds	r0, r4, #7
   287a8:	2207      	movs	r2, #7
   287aa:	f002 fcab 	bl	2b104 <__aeabi_memcpy>
   287ae:	4d05      	ldr	r5, [pc, #20]	@ (287c4 <_start+0xac8>)
   287b0:	446d      	add	r5, sp
   287b2:	4628      	mov	r0, r5
   287b4:	4621      	mov	r1, r4
   287b6:	f7fb fe47 	bl	24448 <_ZN20complex_dynamic_type3app17h882996449019b6bbE>
   287ba:	7828      	ldrb	r0, [r5, #0]
   287bc:	2801      	cmp	r0, #1
   287be:	d103      	bne.n	287c8 <_start+0xacc>
   287c0:	f002 fa8a 	bl	2acd8 <_start+0x2fdc>
   287c4:	00001404 	.word	0x00001404
   287c8:	4915      	ldr	r1, [pc, #84]	@ (28820 <_start+0xb24>)
   287ca:	4469      	add	r1, sp
   287cc:	78c8      	ldrb	r0, [r1, #3]
   287ce:	ac39      	add	r4, sp, #228	@ 0xe4
   287d0:	70a0      	strb	r0, [r4, #2]
   287d2:	7848      	ldrb	r0, [r1, #1]
   287d4:	788a      	ldrb	r2, [r1, #2]
   287d6:	0212      	lsls	r2, r2, #8
   287d8:	1810      	adds	r0, r2, r0
   287da:	8020      	strh	r0, [r4, #0]
   287dc:	9808      	ldr	r0, [sp, #32]
   287de:	6e06      	ldr	r6, [r0, #96]	@ 0x60
   287e0:	3108      	adds	r1, #8
   287e2:	4d10      	ldr	r5, [pc, #64]	@ (28824 <_start+0xb28>)
   287e4:	446d      	add	r5, sp
   287e6:	2241      	movs	r2, #65	@ 0x41
   287e8:	920b      	str	r2, [sp, #44]	@ 0x2c
   287ea:	4628      	mov	r0, r5
   287ec:	f002 fb2a 	bl	2ae44 <__aeabi_memcpy4>
   287f0:	0e30      	lsrs	r0, r6, #24
   287f2:	71a0      	strb	r0, [r4, #6]
   287f4:	0c30      	lsrs	r0, r6, #16
   287f6:	7160      	strb	r0, [r4, #5]
   287f8:	0a30      	lsrs	r0, r6, #8
   287fa:	7120      	strb	r0, [r4, #4]
   287fc:	70e6      	strb	r6, [r4, #3]
   287fe:	1de0      	adds	r0, r4, #7
   28800:	4629      	mov	r1, r5
   28802:	9a0b      	ldr	r2, [sp, #44]	@ 0x2c
   28804:	f002 fc7e 	bl	2b104 <__aeabi_memcpy>
   28808:	4d05      	ldr	r5, [pc, #20]	@ (28820 <_start+0xb24>)
   2880a:	446d      	add	r5, sp
   2880c:	4628      	mov	r0, r5
   2880e:	4621      	mov	r1, r4
   28810:	f7f9 f8f0 	bl	219f4 <_ZN20complex_dynamic_type3app17h430a913ec59d828eE>
   28814:	7828      	ldrb	r0, [r5, #0]
   28816:	2801      	cmp	r0, #1
   28818:	d106      	bne.n	28828 <_start+0xb2c>
   2881a:	f002 fa5d 	bl	2acd8 <_start+0x2fdc>
   2881e:	46c0      	nop			@ (mov r8, r8)
   28820:	00001404 	.word	0x00001404
   28824:	000013a8 	.word	0x000013a8
   28828:	9805      	ldr	r0, [sp, #20]
   2882a:	1cc0      	adds	r0, r0, #3
   2882c:	4a15      	ldr	r2, [pc, #84]	@ (28884 <_start+0xb88>)
   2882e:	446a      	add	r2, sp
   28830:	78d3      	ldrb	r3, [r2, #3]
   28832:	a94b      	add	r1, sp, #300	@ 0x12c
   28834:	708b      	strb	r3, [r1, #2]
   28836:	7853      	ldrb	r3, [r2, #1]
   28838:	7892      	ldrb	r2, [r2, #2]
   2883a:	0212      	lsls	r2, r2, #8
   2883c:	18d2      	adds	r2, r2, r3
   2883e:	800a      	strh	r2, [r1, #0]
   28840:	9c08      	ldr	r4, [sp, #32]
   28842:	3460      	adds	r4, #96	@ 0x60
   28844:	cc1c      	ldmia	r4, {r2, r3, r4}
   28846:	0e25      	lsrs	r5, r4, #24
   28848:	72c5      	strb	r5, [r0, #11]
   2884a:	0c25      	lsrs	r5, r4, #16
   2884c:	7285      	strb	r5, [r0, #10]
   2884e:	0a25      	lsrs	r5, r4, #8
   28850:	7245      	strb	r5, [r0, #9]
   28852:	7204      	strb	r4, [r0, #8]
   28854:	0e1c      	lsrs	r4, r3, #24
   28856:	71c4      	strb	r4, [r0, #7]
   28858:	0c1c      	lsrs	r4, r3, #16
   2885a:	7184      	strb	r4, [r0, #6]
   2885c:	0a1c      	lsrs	r4, r3, #8
   2885e:	7144      	strb	r4, [r0, #5]
   28860:	7103      	strb	r3, [r0, #4]
   28862:	0e13      	lsrs	r3, r2, #24
   28864:	70c3      	strb	r3, [r0, #3]
   28866:	0c13      	lsrs	r3, r2, #16
   28868:	7083      	strb	r3, [r0, #2]
   2886a:	0a13      	lsrs	r3, r2, #8
   2886c:	7043      	strb	r3, [r0, #1]
   2886e:	7002      	strb	r2, [r0, #0]
   28870:	4c04      	ldr	r4, [pc, #16]	@ (28884 <_start+0xb88>)
   28872:	446c      	add	r4, sp
   28874:	4620      	mov	r0, r4
   28876:	f7fd f879 	bl	2596c <_ZN20complex_dynamic_type3app17hc037118a7587bdedE>
   2887a:	7820      	ldrb	r0, [r4, #0]
   2887c:	2801      	cmp	r0, #1
   2887e:	d103      	bne.n	28888 <_start+0xb8c>
   28880:	f002 fa2a 	bl	2acd8 <_start+0x2fdc>
   28884:	00001404 	.word	0x00001404
   28888:	4817      	ldr	r0, [pc, #92]	@ (288e8 <_start+0xbec>)
   2888a:	4468      	add	r0, sp
   2888c:	78c1      	ldrb	r1, [r0, #3]
   2888e:	ac4f      	add	r4, sp, #316	@ 0x13c
   28890:	70a1      	strb	r1, [r4, #2]
   28892:	7841      	ldrb	r1, [r0, #1]
   28894:	7882      	ldrb	r2, [r0, #2]
   28896:	0212      	lsls	r2, r2, #8
   28898:	1851      	adds	r1, r2, r1
   2889a:	8021      	strh	r1, [r4, #0]
   2889c:	3008      	adds	r0, #8
   2889e:	9908      	ldr	r1, [sp, #32]
   288a0:	6e09      	ldr	r1, [r1, #96]	@ 0x60
   288a2:	910a      	str	r1, [sp, #40]	@ 0x28
   288a4:	4b11      	ldr	r3, [pc, #68]	@ (288ec <_start+0xbf0>)
   288a6:	446b      	add	r3, sp
   288a8:	930b      	str	r3, [sp, #44]	@ 0x2c
   288aa:	c864      	ldmia	r0!, {r2, r5, r6}
   288ac:	c364      	stmia	r3!, {r2, r5, r6}
   288ae:	c866      	ldmia	r0!, {r1, r2, r5, r6}
   288b0:	c366      	stmia	r3!, {r1, r2, r5, r6}
   288b2:	8800      	ldrh	r0, [r0, #0]
   288b4:	8018      	strh	r0, [r3, #0]
   288b6:	990a      	ldr	r1, [sp, #40]	@ 0x28
   288b8:	0e08      	lsrs	r0, r1, #24
   288ba:	71a0      	strb	r0, [r4, #6]
   288bc:	0c08      	lsrs	r0, r1, #16
   288be:	7160      	strb	r0, [r4, #5]
   288c0:	0a08      	lsrs	r0, r1, #8
   288c2:	7120      	strb	r0, [r4, #4]
   288c4:	70e1      	strb	r1, [r4, #3]
   288c6:	1de0      	adds	r0, r4, #7
   288c8:	221e      	movs	r2, #30
   288ca:	990b      	ldr	r1, [sp, #44]	@ 0x2c
   288cc:	f002 fc1a 	bl	2b104 <__aeabi_memcpy>
   288d0:	4d05      	ldr	r5, [pc, #20]	@ (288e8 <_start+0xbec>)
   288d2:	446d      	add	r5, sp
   288d4:	4628      	mov	r0, r5
   288d6:	4621      	mov	r1, r4
   288d8:	f7fd feda 	bl	26690 <_ZN20complex_dynamic_type3app17hcc2e12cc0ec981aaE>
   288dc:	7828      	ldrb	r0, [r5, #0]
   288de:	2801      	cmp	r0, #1
   288e0:	d106      	bne.n	288f0 <_start+0xbf4>
   288e2:	f002 f9f9 	bl	2acd8 <_start+0x2fdc>
   288e6:	46c0      	nop			@ (mov r8, r8)
   288e8:	00001404 	.word	0x00001404
   288ec:	000013a8 	.word	0x000013a8
   288f0:	4818      	ldr	r0, [pc, #96]	@ (28954 <_start+0xc58>)
   288f2:	4468      	add	r0, sp
   288f4:	78c1      	ldrb	r1, [r0, #3]
   288f6:	ac59      	add	r4, sp, #356	@ 0x164
   288f8:	70a1      	strb	r1, [r4, #2]
   288fa:	7841      	ldrb	r1, [r0, #1]
   288fc:	7882      	ldrb	r2, [r0, #2]
   288fe:	0212      	lsls	r2, r2, #8
   28900:	1851      	adds	r1, r2, r1
   28902:	8021      	strh	r1, [r4, #0]
   28904:	3008      	adds	r0, #8
   28906:	9908      	ldr	r1, [sp, #32]
   28908:	6e09      	ldr	r1, [r1, #96]	@ 0x60
   2890a:	910a      	str	r1, [sp, #40]	@ 0x28
   2890c:	4b12      	ldr	r3, [pc, #72]	@ (28958 <_start+0xc5c>)
   2890e:	446b      	add	r3, sp
   28910:	930b      	str	r3, [sp, #44]	@ 0x2c
   28912:	c866      	ldmia	r0!, {r1, r2, r5, r6}
   28914:	c366      	stmia	r3!, {r1, r2, r5, r6}
   28916:	c866      	ldmia	r0!, {r1, r2, r5, r6}
   28918:	c366      	stmia	r3!, {r1, r2, r5, r6}
   2891a:	8801      	ldrh	r1, [r0, #0]
   2891c:	8019      	strh	r1, [r3, #0]
   2891e:	7880      	ldrb	r0, [r0, #2]
   28920:	7098      	strb	r0, [r3, #2]
   28922:	990a      	ldr	r1, [sp, #40]	@ 0x28
   28924:	0e08      	lsrs	r0, r1, #24
   28926:	71a0      	strb	r0, [r4, #6]
   28928:	0c08      	lsrs	r0, r1, #16
   2892a:	7160      	strb	r0, [r4, #5]
   2892c:	0a08      	lsrs	r0, r1, #8
   2892e:	7120      	strb	r0, [r4, #4]
   28930:	70e1      	strb	r1, [r4, #3]
   28932:	1de0      	adds	r0, r4, #7
   28934:	2223      	movs	r2, #35	@ 0x23
   28936:	990b      	ldr	r1, [sp, #44]	@ 0x2c
   28938:	f002 fbe4 	bl	2b104 <__aeabi_memcpy>
   2893c:	4d05      	ldr	r5, [pc, #20]	@ (28954 <_start+0xc58>)
   2893e:	446d      	add	r5, sp
   28940:	4628      	mov	r0, r5
   28942:	4621      	mov	r1, r4
   28944:	f7f9 fba0 	bl	22088 <_ZN20complex_dynamic_type3app17h47f637721c0e756fE>
   28948:	7828      	ldrb	r0, [r5, #0]
   2894a:	2801      	cmp	r0, #1
   2894c:	d106      	bne.n	2895c <_start+0xc60>
   2894e:	f002 f9c3 	bl	2acd8 <_start+0x2fdc>
   28952:	46c0      	nop			@ (mov r8, r8)
   28954:	00001404 	.word	0x00001404
   28958:	000013a8 	.word	0x000013a8
   2895c:	4915      	ldr	r1, [pc, #84]	@ (289b4 <_start+0xcb8>)
   2895e:	4469      	add	r1, sp
   28960:	78c8      	ldrb	r0, [r1, #3]
   28962:	ac64      	add	r4, sp, #400	@ 0x190
   28964:	70a0      	strb	r0, [r4, #2]
   28966:	7848      	ldrb	r0, [r1, #1]
   28968:	788a      	ldrb	r2, [r1, #2]
   2896a:	0212      	lsls	r2, r2, #8
   2896c:	1810      	adds	r0, r2, r0
   2896e:	8020      	strh	r0, [r4, #0]
   28970:	9808      	ldr	r0, [sp, #32]
   28972:	6e06      	ldr	r6, [r0, #96]	@ 0x60
   28974:	3108      	adds	r1, #8
   28976:	4d10      	ldr	r5, [pc, #64]	@ (289b8 <_start+0xcbc>)
   28978:	446d      	add	r5, sp
   2897a:	225c      	movs	r2, #92	@ 0x5c
   2897c:	920b      	str	r2, [sp, #44]	@ 0x2c
   2897e:	4628      	mov	r0, r5
   28980:	f002 fa60 	bl	2ae44 <__aeabi_memcpy4>
   28984:	0e30      	lsrs	r0, r6, #24
   28986:	71a0      	strb	r0, [r4, #6]
   28988:	0c30      	lsrs	r0, r6, #16
   2898a:	7160      	strb	r0, [r4, #5]
   2898c:	0a30      	lsrs	r0, r6, #8
   2898e:	7120      	strb	r0, [r4, #4]
   28990:	70e6      	strb	r6, [r4, #3]
   28992:	1de0      	adds	r0, r4, #7
   28994:	4629      	mov	r1, r5
   28996:	9a0b      	ldr	r2, [sp, #44]	@ 0x2c
   28998:	f002 fbb4 	bl	2b104 <__aeabi_memcpy>
   2899c:	4d05      	ldr	r5, [pc, #20]	@ (289b4 <_start+0xcb8>)
   2899e:	446d      	add	r5, sp
   289a0:	4628      	mov	r0, r5
   289a2:	4621      	mov	r1, r4
   289a4:	f7fd fdcc 	bl	26540 <_ZN20complex_dynamic_type3app17hcb6decff47fec5bfE>
   289a8:	7828      	ldrb	r0, [r5, #0]
   289aa:	2801      	cmp	r0, #1
   289ac:	d106      	bne.n	289bc <_start+0xcc0>
   289ae:	f002 f993 	bl	2acd8 <_start+0x2fdc>
   289b2:	46c0      	nop			@ (mov r8, r8)
   289b4:	00001404 	.word	0x00001404
   289b8:	000013a8 	.word	0x000013a8
   289bc:	4816      	ldr	r0, [pc, #88]	@ (28a18 <_start+0xd1c>)
   289be:	4468      	add	r0, sp
   289c0:	78c1      	ldrb	r1, [r0, #3]
   289c2:	ac7d      	add	r4, sp, #500	@ 0x1f4
   289c4:	70a1      	strb	r1, [r4, #2]
   289c6:	7841      	ldrb	r1, [r0, #1]
   289c8:	7882      	ldrb	r2, [r0, #2]
   289ca:	0212      	lsls	r2, r2, #8
   289cc:	1851      	adds	r1, r2, r1
   289ce:	8021      	strh	r1, [r4, #0]
   289d0:	3008      	adds	r0, #8
   289d2:	9908      	ldr	r1, [sp, #32]
   289d4:	6e09      	ldr	r1, [r1, #96]	@ 0x60
   289d6:	910a      	str	r1, [sp, #40]	@ 0x28
   289d8:	4b10      	ldr	r3, [pc, #64]	@ (28a1c <_start+0xd20>)
   289da:	446b      	add	r3, sp
   289dc:	930b      	str	r3, [sp, #44]	@ 0x2c
   289de:	c866      	ldmia	r0!, {r1, r2, r5, r6}
   289e0:	c366      	stmia	r3!, {r1, r2, r5, r6}
   289e2:	c866      	ldmia	r0!, {r1, r2, r5, r6}
   289e4:	c366      	stmia	r3!, {r1, r2, r5, r6}
   289e6:	990a      	ldr	r1, [sp, #40]	@ 0x28
   289e8:	0e08      	lsrs	r0, r1, #24
   289ea:	71a0      	strb	r0, [r4, #6]
   289ec:	0c08      	lsrs	r0, r1, #16
   289ee:	7160      	strb	r0, [r4, #5]
   289f0:	0a08      	lsrs	r0, r1, #8
   289f2:	7120      	strb	r0, [r4, #4]
   289f4:	70e1      	strb	r1, [r4, #3]
   289f6:	1de0      	adds	r0, r4, #7
   289f8:	2220      	movs	r2, #32
   289fa:	990b      	ldr	r1, [sp, #44]	@ 0x2c
   289fc:	f002 fb82 	bl	2b104 <__aeabi_memcpy>
   28a00:	4d05      	ldr	r5, [pc, #20]	@ (28a18 <_start+0xd1c>)
   28a02:	446d      	add	r5, sp
   28a04:	4628      	mov	r0, r5
   28a06:	4621      	mov	r1, r4
   28a08:	f7f7 ff64 	bl	208d4 <_ZN20complex_dynamic_type3app17h1602661672869386E>
   28a0c:	7828      	ldrb	r0, [r5, #0]
   28a0e:	2801      	cmp	r0, #1
   28a10:	d106      	bne.n	28a20 <_start+0xd24>
   28a12:	f002 f961 	bl	2acd8 <_start+0x2fdc>
   28a16:	46c0      	nop			@ (mov r8, r8)
   28a18:	00001404 	.word	0x00001404
   28a1c:	000013a8 	.word	0x000013a8
   28a20:	4817      	ldr	r0, [pc, #92]	@ (28a80 <_start+0xd84>)
   28a22:	4468      	add	r0, sp
   28a24:	78c1      	ldrb	r1, [r0, #3]
   28a26:	ac87      	add	r4, sp, #540	@ 0x21c
   28a28:	70a1      	strb	r1, [r4, #2]
   28a2a:	7841      	ldrb	r1, [r0, #1]
   28a2c:	7882      	ldrb	r2, [r0, #2]
   28a2e:	0212      	lsls	r2, r2, #8
   28a30:	1851      	adds	r1, r2, r1
   28a32:	8021      	strh	r1, [r4, #0]
   28a34:	3008      	adds	r0, #8
   28a36:	9908      	ldr	r1, [sp, #32]
   28a38:	6e09      	ldr	r1, [r1, #96]	@ 0x60
   28a3a:	4b12      	ldr	r3, [pc, #72]	@ (28a84 <_start+0xd88>)
   28a3c:	446b      	add	r3, sp
   28a3e:	930b      	str	r3, [sp, #44]	@ 0x2c
   28a40:	c860      	ldmia	r0!, {r5, r6}
   28a42:	c360      	stmia	r3!, {r5, r6}
   28a44:	c864      	ldmia	r0!, {r2, r5, r6}
   28a46:	c364      	stmia	r3!, {r2, r5, r6}
   28a48:	8802      	ldrh	r2, [r0, #0]
   28a4a:	801a      	strh	r2, [r3, #0]
   28a4c:	7880      	ldrb	r0, [r0, #2]
   28a4e:	7098      	strb	r0, [r3, #2]
   28a50:	0e08      	lsrs	r0, r1, #24
   28a52:	71a0      	strb	r0, [r4, #6]
   28a54:	0c08      	lsrs	r0, r1, #16
   28a56:	7160      	strb	r0, [r4, #5]
   28a58:	0a08      	lsrs	r0, r1, #8
   28a5a:	7120      	strb	r0, [r4, #4]
   28a5c:	70e1      	strb	r1, [r4, #3]
   28a5e:	1de0      	adds	r0, r4, #7
   28a60:	2217      	movs	r2, #23
   28a62:	990b      	ldr	r1, [sp, #44]	@ 0x2c
   28a64:	f002 fb4e 	bl	2b104 <__aeabi_memcpy>
   28a68:	4d05      	ldr	r5, [pc, #20]	@ (28a80 <_start+0xd84>)
   28a6a:	446d      	add	r5, sp
   28a6c:	4628      	mov	r0, r5
   28a6e:	4621      	mov	r1, r4
   28a70:	f7fc f8e0 	bl	24c34 <_ZN20complex_dynamic_type3app17h9ba78c7b12a5da63E>
   28a74:	7828      	ldrb	r0, [r5, #0]
   28a76:	2801      	cmp	r0, #1
   28a78:	d106      	bne.n	28a88 <_start+0xd8c>
   28a7a:	f002 f92d 	bl	2acd8 <_start+0x2fdc>
   28a7e:	46c0      	nop			@ (mov r8, r8)
   28a80:	00001404 	.word	0x00001404
   28a84:	000013a8 	.word	0x000013a8
   28a88:	4817      	ldr	r0, [pc, #92]	@ (28ae8 <_start+0xdec>)
   28a8a:	4468      	add	r0, sp
   28a8c:	78c1      	ldrb	r1, [r0, #3]
   28a8e:	ac8f      	add	r4, sp, #572	@ 0x23c
   28a90:	70a1      	strb	r1, [r4, #2]
   28a92:	7841      	ldrb	r1, [r0, #1]
   28a94:	7882      	ldrb	r2, [r0, #2]
   28a96:	0212      	lsls	r2, r2, #8
   28a98:	1851      	adds	r1, r2, r1
   28a9a:	8021      	strh	r1, [r4, #0]
   28a9c:	3008      	adds	r0, #8
   28a9e:	9908      	ldr	r1, [sp, #32]
   28aa0:	6e09      	ldr	r1, [r1, #96]	@ 0x60
   28aa2:	4b12      	ldr	r3, [pc, #72]	@ (28aec <_start+0xdf0>)
   28aa4:	446b      	add	r3, sp
   28aa6:	930b      	str	r3, [sp, #44]	@ 0x2c
   28aa8:	c864      	ldmia	r0!, {r2, r5, r6}
   28aaa:	c364      	stmia	r3!, {r2, r5, r6}
   28aac:	c864      	ldmia	r0!, {r2, r5, r6}
   28aae:	c364      	stmia	r3!, {r2, r5, r6}
   28ab0:	c864      	ldmia	r0!, {r2, r5, r6}
   28ab2:	c364      	stmia	r3!, {r2, r5, r6}
   28ab4:	7800      	ldrb	r0, [r0, #0]
   28ab6:	7018      	strb	r0, [r3, #0]
   28ab8:	0e08      	lsrs	r0, r1, #24
   28aba:	71a0      	strb	r0, [r4, #6]
   28abc:	0c08      	lsrs	r0, r1, #16
   28abe:	7160      	strb	r0, [r4, #5]
   28ac0:	0a08      	lsrs	r0, r1, #8
   28ac2:	7120      	strb	r0, [r4, #4]
   28ac4:	70e1      	strb	r1, [r4, #3]
   28ac6:	1de0      	adds	r0, r4, #7
   28ac8:	2225      	movs	r2, #37	@ 0x25
   28aca:	990b      	ldr	r1, [sp, #44]	@ 0x2c
   28acc:	f002 fb1a 	bl	2b104 <__aeabi_memcpy>
   28ad0:	4d05      	ldr	r5, [pc, #20]	@ (28ae8 <_start+0xdec>)
   28ad2:	446d      	add	r5, sp
   28ad4:	4628      	mov	r0, r5
   28ad6:	4621      	mov	r1, r4
   28ad8:	f7fa fac2 	bl	23060 <_ZN20complex_dynamic_type3app17h692df131b248e059E>
   28adc:	7828      	ldrb	r0, [r5, #0]
   28ade:	2801      	cmp	r0, #1
   28ae0:	d106      	bne.n	28af0 <_start+0xdf4>
   28ae2:	f002 f8f9 	bl	2acd8 <_start+0x2fdc>
   28ae6:	46c0      	nop			@ (mov r8, r8)
   28ae8:	00001404 	.word	0x00001404
   28aec:	000013a8 	.word	0x000013a8
   28af0:	4817      	ldr	r0, [pc, #92]	@ (28b50 <_start+0xe54>)
   28af2:	4468      	add	r0, sp
   28af4:	78c1      	ldrb	r1, [r0, #3]
   28af6:	ac9a      	add	r4, sp, #616	@ 0x268
   28af8:	70a1      	strb	r1, [r4, #2]
   28afa:	7841      	ldrb	r1, [r0, #1]
   28afc:	7882      	ldrb	r2, [r0, #2]
   28afe:	0212      	lsls	r2, r2, #8
   28b00:	1851      	adds	r1, r2, r1
   28b02:	8021      	strh	r1, [r4, #0]
   28b04:	3008      	adds	r0, #8
   28b06:	9908      	ldr	r1, [sp, #32]
   28b08:	6e09      	ldr	r1, [r1, #96]	@ 0x60
   28b0a:	910a      	str	r1, [sp, #40]	@ 0x28
   28b0c:	4b11      	ldr	r3, [pc, #68]	@ (28b54 <_start+0xe58>)
   28b0e:	446b      	add	r3, sp
   28b10:	930b      	str	r3, [sp, #44]	@ 0x2c
   28b12:	c864      	ldmia	r0!, {r2, r5, r6}
   28b14:	c364      	stmia	r3!, {r2, r5, r6}
   28b16:	c866      	ldmia	r0!, {r1, r2, r5, r6}
   28b18:	c366      	stmia	r3!, {r1, r2, r5, r6}
   28b1a:	8800      	ldrh	r0, [r0, #0]
   28b1c:	8018      	strh	r0, [r3, #0]
   28b1e:	990a      	ldr	r1, [sp, #40]	@ 0x28
   28b20:	0e08      	lsrs	r0, r1, #24
   28b22:	71a0      	strb	r0, [r4, #6]
   28b24:	0c08      	lsrs	r0, r1, #16
   28b26:	7160      	strb	r0, [r4, #5]
   28b28:	0a08      	lsrs	r0, r1, #8
   28b2a:	7120      	strb	r0, [r4, #4]
   28b2c:	70e1      	strb	r1, [r4, #3]
   28b2e:	1de0      	adds	r0, r4, #7
   28b30:	221e      	movs	r2, #30
   28b32:	990b      	ldr	r1, [sp, #44]	@ 0x2c
   28b34:	f002 fae6 	bl	2b104 <__aeabi_memcpy>
   28b38:	4d05      	ldr	r5, [pc, #20]	@ (28b50 <_start+0xe54>)
   28b3a:	446d      	add	r5, sp
   28b3c:	4628      	mov	r0, r5
   28b3e:	4621      	mov	r1, r4
   28b40:	f7fe faea 	bl	27118 <_ZN20complex_dynamic_type3app17heacacf66186a69abE>
   28b44:	7828      	ldrb	r0, [r5, #0]
   28b46:	2801      	cmp	r0, #1
   28b48:	d106      	bne.n	28b58 <_start+0xe5c>
   28b4a:	f002 f8c5 	bl	2acd8 <_start+0x2fdc>
   28b4e:	46c0      	nop			@ (mov r8, r8)
   28b50:	00001404 	.word	0x00001404
   28b54:	000013a8 	.word	0x000013a8
   28b58:	4816      	ldr	r0, [pc, #88]	@ (28bb4 <_start+0xeb8>)
   28b5a:	4468      	add	r0, sp
   28b5c:	78c1      	ldrb	r1, [r0, #3]
   28b5e:	aca4      	add	r4, sp, #656	@ 0x290
   28b60:	70a1      	strb	r1, [r4, #2]
   28b62:	7841      	ldrb	r1, [r0, #1]
   28b64:	7882      	ldrb	r2, [r0, #2]
   28b66:	0212      	lsls	r2, r2, #8
   28b68:	1851      	adds	r1, r2, r1
   28b6a:	8021      	strh	r1, [r4, #0]
   28b6c:	3008      	adds	r0, #8
   28b6e:	9908      	ldr	r1, [sp, #32]
   28b70:	6e09      	ldr	r1, [r1, #96]	@ 0x60
   28b72:	910a      	str	r1, [sp, #40]	@ 0x28
   28b74:	4b10      	ldr	r3, [pc, #64]	@ (28bb8 <_start+0xebc>)
   28b76:	446b      	add	r3, sp
   28b78:	930b      	str	r3, [sp, #44]	@ 0x2c
   28b7a:	c866      	ldmia	r0!, {r1, r2, r5, r6}
   28b7c:	c366      	stmia	r3!, {r1, r2, r5, r6}
   28b7e:	7800      	ldrb	r0, [r0, #0]
   28b80:	7018      	strb	r0, [r3, #0]
   28b82:	990a      	ldr	r1, [sp, #40]	@ 0x28
   28b84:	0e08      	lsrs	r0, r1, #24
   28b86:	71a0      	strb	r0, [r4, #6]
   28b88:	0c08      	lsrs	r0, r1, #16
   28b8a:	7160      	strb	r0, [r4, #5]
   28b8c:	0a08      	lsrs	r0, r1, #8
   28b8e:	7120      	strb	r0, [r4, #4]
   28b90:	70e1      	strb	r1, [r4, #3]
   28b92:	1de0      	adds	r0, r4, #7
   28b94:	2211      	movs	r2, #17
   28b96:	990b      	ldr	r1, [sp, #44]	@ 0x2c
   28b98:	f002 fab4 	bl	2b104 <__aeabi_memcpy>
   28b9c:	4d05      	ldr	r5, [pc, #20]	@ (28bb4 <_start+0xeb8>)
   28b9e:	446d      	add	r5, sp
   28ba0:	4628      	mov	r0, r5
   28ba2:	4621      	mov	r1, r4
   28ba4:	f7fd fec4 	bl	26930 <_ZN20complex_dynamic_type3app17hd987d047135f6e36E>
   28ba8:	7828      	ldrb	r0, [r5, #0]
   28baa:	2801      	cmp	r0, #1
   28bac:	d106      	bne.n	28bbc <_start+0xec0>
   28bae:	f002 f893 	bl	2acd8 <_start+0x2fdc>
   28bb2:	46c0      	nop			@ (mov r8, r8)
   28bb4:	00001404 	.word	0x00001404
   28bb8:	000013a8 	.word	0x000013a8
   28bbc:	4819      	ldr	r0, [pc, #100]	@ (28c24 <_start+0xf28>)
   28bbe:	4468      	add	r0, sp
   28bc0:	78c1      	ldrb	r1, [r0, #3]
   28bc2:	acaa      	add	r4, sp, #680	@ 0x2a8
   28bc4:	70a1      	strb	r1, [r4, #2]
   28bc6:	7841      	ldrb	r1, [r0, #1]
   28bc8:	7882      	ldrb	r2, [r0, #2]
   28bca:	0212      	lsls	r2, r2, #8
   28bcc:	1851      	adds	r1, r2, r1
   28bce:	8021      	strh	r1, [r4, #0]
   28bd0:	3008      	adds	r0, #8
   28bd2:	9908      	ldr	r1, [sp, #32]
   28bd4:	6e09      	ldr	r1, [r1, #96]	@ 0x60
   28bd6:	910a      	str	r1, [sp, #40]	@ 0x28
   28bd8:	4b13      	ldr	r3, [pc, #76]	@ (28c28 <_start+0xf2c>)
   28bda:	446b      	add	r3, sp
   28bdc:	930b      	str	r3, [sp, #44]	@ 0x2c
   28bde:	c864      	ldmia	r0!, {r2, r5, r6}
   28be0:	c364      	stmia	r3!, {r2, r5, r6}
   28be2:	c866      	ldmia	r0!, {r1, r2, r5, r6}
   28be4:	c366      	stmia	r3!, {r1, r2, r5, r6}
   28be6:	c866      	ldmia	r0!, {r1, r2, r5, r6}
   28be8:	c366      	stmia	r3!, {r1, r2, r5, r6}
   28bea:	8801      	ldrh	r1, [r0, #0]
   28bec:	8019      	strh	r1, [r3, #0]
   28bee:	7880      	ldrb	r0, [r0, #2]
   28bf0:	7098      	strb	r0, [r3, #2]
   28bf2:	990a      	ldr	r1, [sp, #40]	@ 0x28
   28bf4:	0e08      	lsrs	r0, r1, #24
   28bf6:	71a0      	strb	r0, [r4, #6]
   28bf8:	0c08      	lsrs	r0, r1, #16
   28bfa:	7160      	strb	r0, [r4, #5]
   28bfc:	0a08      	lsrs	r0, r1, #8
   28bfe:	7120      	strb	r0, [r4, #4]
   28c00:	70e1      	strb	r1, [r4, #3]
   28c02:	1de0      	adds	r0, r4, #7
   28c04:	222f      	movs	r2, #47	@ 0x2f
   28c06:	990b      	ldr	r1, [sp, #44]	@ 0x2c
   28c08:	f002 fa7c 	bl	2b104 <__aeabi_memcpy>
   28c0c:	4d05      	ldr	r5, [pc, #20]	@ (28c24 <_start+0xf28>)
   28c0e:	446d      	add	r5, sp
   28c10:	4628      	mov	r0, r5
   28c12:	4621      	mov	r1, r4
   28c14:	f7f7 fbba 	bl	2038c <_ZN20complex_dynamic_type3app17h0d3a0af7d9cdc897E>
   28c18:	7828      	ldrb	r0, [r5, #0]
   28c1a:	2801      	cmp	r0, #1
   28c1c:	d106      	bne.n	28c2c <_start+0xf30>
   28c1e:	f002 f85b 	bl	2acd8 <_start+0x2fdc>
   28c22:	46c0      	nop			@ (mov r8, r8)
   28c24:	00001404 	.word	0x00001404
   28c28:	000013a8 	.word	0x000013a8
   28c2c:	4818      	ldr	r0, [pc, #96]	@ (28c90 <_start+0xf94>)
   28c2e:	4468      	add	r0, sp
   28c30:	78c1      	ldrb	r1, [r0, #3]
   28c32:	acb8      	add	r4, sp, #736	@ 0x2e0
   28c34:	70a1      	strb	r1, [r4, #2]
   28c36:	7841      	ldrb	r1, [r0, #1]
   28c38:	7882      	ldrb	r2, [r0, #2]
   28c3a:	0212      	lsls	r2, r2, #8
   28c3c:	1851      	adds	r1, r2, r1
   28c3e:	8021      	strh	r1, [r4, #0]
   28c40:	3008      	adds	r0, #8
   28c42:	9908      	ldr	r1, [sp, #32]
   28c44:	6e09      	ldr	r1, [r1, #96]	@ 0x60
   28c46:	910a      	str	r1, [sp, #40]	@ 0x28
   28c48:	4b12      	ldr	r3, [pc, #72]	@ (28c94 <_start+0xf98>)
   28c4a:	446b      	add	r3, sp
   28c4c:	930b      	str	r3, [sp, #44]	@ 0x2c
   28c4e:	c864      	ldmia	r0!, {r2, r5, r6}
   28c50:	c364      	stmia	r3!, {r2, r5, r6}
   28c52:	c866      	ldmia	r0!, {r1, r2, r5, r6}
   28c54:	c366      	stmia	r3!, {r1, r2, r5, r6}
   28c56:	c866      	ldmia	r0!, {r1, r2, r5, r6}
   28c58:	c366      	stmia	r3!, {r1, r2, r5, r6}
   28c5a:	7800      	ldrb	r0, [r0, #0]
   28c5c:	7018      	strb	r0, [r3, #0]
   28c5e:	990a      	ldr	r1, [sp, #40]	@ 0x28
   28c60:	0e08      	lsrs	r0, r1, #24
   28c62:	71a0      	strb	r0, [r4, #6]
   28c64:	0c08      	lsrs	r0, r1, #16
   28c66:	7160      	strb	r0, [r4, #5]
   28c68:	0a08      	lsrs	r0, r1, #8
   28c6a:	7120      	strb	r0, [r4, #4]
   28c6c:	70e1      	strb	r1, [r4, #3]
   28c6e:	1de0      	adds	r0, r4, #7
   28c70:	222d      	movs	r2, #45	@ 0x2d
   28c72:	990b      	ldr	r1, [sp, #44]	@ 0x2c
   28c74:	f002 fa46 	bl	2b104 <__aeabi_memcpy>
   28c78:	4d05      	ldr	r5, [pc, #20]	@ (28c90 <_start+0xf94>)
   28c7a:	446d      	add	r5, sp
   28c7c:	4628      	mov	r0, r5
   28c7e:	4621      	mov	r1, r4
   28c80:	f7fa f942 	bl	22f08 <_ZN20complex_dynamic_type3app17h66a4f243e82bff8eE>
   28c84:	7828      	ldrb	r0, [r5, #0]
   28c86:	2801      	cmp	r0, #1
   28c88:	d106      	bne.n	28c98 <_start+0xf9c>
   28c8a:	f002 f825 	bl	2acd8 <_start+0x2fdc>
   28c8e:	46c0      	nop			@ (mov r8, r8)
   28c90:	00001404 	.word	0x00001404
   28c94:	000013a8 	.word	0x000013a8
   28c98:	4818      	ldr	r0, [pc, #96]	@ (28cfc <_start+0x1000>)
   28c9a:	4468      	add	r0, sp
   28c9c:	78c1      	ldrb	r1, [r0, #3]
   28c9e:	acc5      	add	r4, sp, #788	@ 0x314
   28ca0:	70a1      	strb	r1, [r4, #2]
   28ca2:	7841      	ldrb	r1, [r0, #1]
   28ca4:	7882      	ldrb	r2, [r0, #2]
   28ca6:	0212      	lsls	r2, r2, #8
   28ca8:	1851      	adds	r1, r2, r1
   28caa:	8021      	strh	r1, [r4, #0]
   28cac:	3008      	adds	r0, #8
   28cae:	9908      	ldr	r1, [sp, #32]
   28cb0:	6e09      	ldr	r1, [r1, #96]	@ 0x60
   28cb2:	4b13      	ldr	r3, [pc, #76]	@ (28d00 <_start+0x1004>)
   28cb4:	446b      	add	r3, sp
   28cb6:	930b      	str	r3, [sp, #44]	@ 0x2c
   28cb8:	c864      	ldmia	r0!, {r2, r5, r6}
   28cba:	c364      	stmia	r3!, {r2, r5, r6}
   28cbc:	c864      	ldmia	r0!, {r2, r5, r6}
   28cbe:	c364      	stmia	r3!, {r2, r5, r6}
   28cc0:	c864      	ldmia	r0!, {r2, r5, r6}
   28cc2:	c364      	stmia	r3!, {r2, r5, r6}
   28cc4:	8802      	ldrh	r2, [r0, #0]
   28cc6:	801a      	strh	r2, [r3, #0]
   28cc8:	7880      	ldrb	r0, [r0, #2]
   28cca:	7098      	strb	r0, [r3, #2]
   28ccc:	0e08      	lsrs	r0, r1, #24
   28cce:	71a0      	strb	r0, [r4, #6]
   28cd0:	0c08      	lsrs	r0, r1, #16
   28cd2:	7160      	strb	r0, [r4, #5]
   28cd4:	0a08      	lsrs	r0, r1, #8
   28cd6:	7120      	strb	r0, [r4, #4]
   28cd8:	70e1      	strb	r1, [r4, #3]
   28cda:	1de0      	adds	r0, r4, #7
   28cdc:	2227      	movs	r2, #39	@ 0x27
   28cde:	990b      	ldr	r1, [sp, #44]	@ 0x2c
   28ce0:	f002 fa10 	bl	2b104 <__aeabi_memcpy>
   28ce4:	4d05      	ldr	r5, [pc, #20]	@ (28cfc <_start+0x1000>)
   28ce6:	446d      	add	r5, sp
   28ce8:	4628      	mov	r0, r5
   28cea:	4621      	mov	r1, r4
   28cec:	f7f9 ffbc 	bl	22c68 <_ZN20complex_dynamic_type3app17h642f7e31653e4986E>
   28cf0:	7828      	ldrb	r0, [r5, #0]
   28cf2:	2801      	cmp	r0, #1
   28cf4:	d106      	bne.n	28d04 <_start+0x1008>
   28cf6:	f001 ffef 	bl	2acd8 <_start+0x2fdc>
   28cfa:	46c0      	nop			@ (mov r8, r8)
   28cfc:	00001404 	.word	0x00001404
   28d00:	000013a8 	.word	0x000013a8
   28d04:	4818      	ldr	r0, [pc, #96]	@ (28d68 <_start+0x106c>)
   28d06:	4468      	add	r0, sp
   28d08:	78c1      	ldrb	r1, [r0, #3]
   28d0a:	acd1      	add	r4, sp, #836	@ 0x344
   28d0c:	70a1      	strb	r1, [r4, #2]
   28d0e:	7841      	ldrb	r1, [r0, #1]
   28d10:	7882      	ldrb	r2, [r0, #2]
   28d12:	0212      	lsls	r2, r2, #8
   28d14:	1851      	adds	r1, r2, r1
   28d16:	8021      	strh	r1, [r4, #0]
   28d18:	3008      	adds	r0, #8
   28d1a:	9908      	ldr	r1, [sp, #32]
   28d1c:	6e09      	ldr	r1, [r1, #96]	@ 0x60
   28d1e:	910a      	str	r1, [sp, #40]	@ 0x28
   28d20:	4b12      	ldr	r3, [pc, #72]	@ (28d6c <_start+0x1070>)
   28d22:	446b      	add	r3, sp
   28d24:	930b      	str	r3, [sp, #44]	@ 0x2c
   28d26:	c866      	ldmia	r0!, {r1, r2, r5, r6}
   28d28:	c366      	stmia	r3!, {r1, r2, r5, r6}
   28d2a:	c866      	ldmia	r0!, {r1, r2, r5, r6}
   28d2c:	c366      	stmia	r3!, {r1, r2, r5, r6}
   28d2e:	c866      	ldmia	r0!, {r1, r2, r5, r6}
   28d30:	c366      	stmia	r3!, {r1, r2, r5, r6}
   28d32:	7800      	ldrb	r0, [r0, #0]
   28d34:	7018      	strb	r0, [r3, #0]
   28d36:	990a      	ldr	r1, [sp, #40]	@ 0x28
   28d38:	0e08      	lsrs	r0, r1, #24
   28d3a:	71a0      	strb	r0, [r4, #6]
   28d3c:	0c08      	lsrs	r0, r1, #16
   28d3e:	7160      	strb	r0, [r4, #5]
   28d40:	0a08      	lsrs	r0, r1, #8
   28d42:	7120      	strb	r0, [r4, #4]
   28d44:	70e1      	strb	r1, [r4, #3]
   28d46:	1de0      	adds	r0, r4, #7
   28d48:	2231      	movs	r2, #49	@ 0x31
   28d4a:	990b      	ldr	r1, [sp, #44]	@ 0x2c
   28d4c:	f002 f9da 	bl	2b104 <__aeabi_memcpy>
   28d50:	4d05      	ldr	r5, [pc, #20]	@ (28d68 <_start+0x106c>)
   28d52:	446d      	add	r5, sp
   28d54:	4628      	mov	r0, r5
   28d56:	4621      	mov	r1, r4
   28d58:	f7fe fbda 	bl	27510 <_ZN20complex_dynamic_type3app17hf23865a7303ef08eE>
   28d5c:	7828      	ldrb	r0, [r5, #0]
   28d5e:	2801      	cmp	r0, #1
   28d60:	d106      	bne.n	28d70 <_start+0x1074>
   28d62:	f001 ffb9 	bl	2acd8 <_start+0x2fdc>
   28d66:	46c0      	nop			@ (mov r8, r8)
   28d68:	00001404 	.word	0x00001404
   28d6c:	000013a8 	.word	0x000013a8
   28d70:	4818      	ldr	r0, [pc, #96]	@ (28dd4 <_start+0x10d8>)
   28d72:	4468      	add	r0, sp
   28d74:	78c1      	ldrb	r1, [r0, #3]
   28d76:	acdf      	add	r4, sp, #892	@ 0x37c
   28d78:	70a1      	strb	r1, [r4, #2]
   28d7a:	7841      	ldrb	r1, [r0, #1]
   28d7c:	7882      	ldrb	r2, [r0, #2]
   28d7e:	0212      	lsls	r2, r2, #8
   28d80:	1851      	adds	r1, r2, r1
   28d82:	8021      	strh	r1, [r4, #0]
   28d84:	3008      	adds	r0, #8
   28d86:	9908      	ldr	r1, [sp, #32]
   28d88:	6e09      	ldr	r1, [r1, #96]	@ 0x60
   28d8a:	910a      	str	r1, [sp, #40]	@ 0x28
   28d8c:	4b12      	ldr	r3, [pc, #72]	@ (28dd8 <_start+0x10dc>)
   28d8e:	446b      	add	r3, sp
   28d90:	930b      	str	r3, [sp, #44]	@ 0x2c
   28d92:	c864      	ldmia	r0!, {r2, r5, r6}
   28d94:	c364      	stmia	r3!, {r2, r5, r6}
   28d96:	c866      	ldmia	r0!, {r1, r2, r5, r6}
   28d98:	c366      	stmia	r3!, {r1, r2, r5, r6}
   28d9a:	c866      	ldmia	r0!, {r1, r2, r5, r6}
   28d9c:	c366      	stmia	r3!, {r1, r2, r5, r6}
   28d9e:	7800      	ldrb	r0, [r0, #0]
   28da0:	7018      	strb	r0, [r3, #0]
   28da2:	990a      	ldr	r1, [sp, #40]	@ 0x28
   28da4:	0e08      	lsrs	r0, r1, #24
   28da6:	71a0      	strb	r0, [r4, #6]
   28da8:	0c08      	lsrs	r0, r1, #16
   28daa:	7160      	strb	r0, [r4, #5]
   28dac:	0a08      	lsrs	r0, r1, #8
   28dae:	7120      	strb	r0, [r4, #4]
   28db0:	70e1      	strb	r1, [r4, #3]
   28db2:	1de0      	adds	r0, r4, #7
   28db4:	222d      	movs	r2, #45	@ 0x2d
   28db6:	990b      	ldr	r1, [sp, #44]	@ 0x2c
   28db8:	f002 f9a4 	bl	2b104 <__aeabi_memcpy>
   28dbc:	4d05      	ldr	r5, [pc, #20]	@ (28dd4 <_start+0x10d8>)
   28dbe:	446d      	add	r5, sp
   28dc0:	4628      	mov	r0, r5
   28dc2:	4621      	mov	r1, r4
   28dc4:	f7f9 f8b8 	bl	21f38 <_ZN20complex_dynamic_type3app17h471fccfbbcdb33ebE>
   28dc8:	7828      	ldrb	r0, [r5, #0]
   28dca:	2801      	cmp	r0, #1
   28dcc:	d106      	bne.n	28ddc <_start+0x10e0>
   28dce:	f001 ff83 	bl	2acd8 <_start+0x2fdc>
   28dd2:	46c0      	nop			@ (mov r8, r8)
   28dd4:	00001404 	.word	0x00001404
   28dd8:	000013a8 	.word	0x000013a8
   28ddc:	4817      	ldr	r0, [pc, #92]	@ (28e3c <_start+0x1140>)
   28dde:	4468      	add	r0, sp
   28de0:	78c1      	ldrb	r1, [r0, #3]
   28de2:	acec      	add	r4, sp, #944	@ 0x3b0
   28de4:	70a1      	strb	r1, [r4, #2]
   28de6:	7841      	ldrb	r1, [r0, #1]
   28de8:	7882      	ldrb	r2, [r0, #2]
   28dea:	0212      	lsls	r2, r2, #8
   28dec:	1851      	adds	r1, r2, r1
   28dee:	8021      	strh	r1, [r4, #0]
   28df0:	3008      	adds	r0, #8
   28df2:	9908      	ldr	r1, [sp, #32]
   28df4:	6e09      	ldr	r1, [r1, #96]	@ 0x60
   28df6:	910a      	str	r1, [sp, #40]	@ 0x28
   28df8:	4b11      	ldr	r3, [pc, #68]	@ (28e40 <_start+0x1144>)
   28dfa:	446b      	add	r3, sp
   28dfc:	930b      	str	r3, [sp, #44]	@ 0x2c
   28dfe:	c866      	ldmia	r0!, {r1, r2, r5, r6}
   28e00:	c366      	stmia	r3!, {r1, r2, r5, r6}
   28e02:	8801      	ldrh	r1, [r0, #0]
   28e04:	8019      	strh	r1, [r3, #0]
   28e06:	7880      	ldrb	r0, [r0, #2]
   28e08:	7098      	strb	r0, [r3, #2]
   28e0a:	990a      	ldr	r1, [sp, #40]	@ 0x28
   28e0c:	0e08      	lsrs	r0, r1, #24
   28e0e:	71a0      	strb	r0, [r4, #6]
   28e10:	0c08      	lsrs	r0, r1, #16
   28e12:	7160      	strb	r0, [r4, #5]
   28e14:	0a08      	lsrs	r0, r1, #8
   28e16:	7120      	strb	r0, [r4, #4]
   28e18:	70e1      	strb	r1, [r4, #3]
   28e1a:	1de0      	adds	r0, r4, #7
   28e1c:	2213      	movs	r2, #19
   28e1e:	990b      	ldr	r1, [sp, #44]	@ 0x2c
   28e20:	f002 f970 	bl	2b104 <__aeabi_memcpy>
   28e24:	4d05      	ldr	r5, [pc, #20]	@ (28e3c <_start+0x1140>)
   28e26:	446d      	add	r5, sp
   28e28:	4628      	mov	r0, r5
   28e2a:	4621      	mov	r1, r4
   28e2c:	f7f7 ff48 	bl	20cc0 <_ZN20complex_dynamic_type3app17h26498d2331a2ac79E>
   28e30:	7828      	ldrb	r0, [r5, #0]
   28e32:	2801      	cmp	r0, #1
   28e34:	d106      	bne.n	28e44 <_start+0x1148>
   28e36:	f001 ff4f 	bl	2acd8 <_start+0x2fdc>
   28e3a:	46c0      	nop			@ (mov r8, r8)
   28e3c:	00001404 	.word	0x00001404
   28e40:	000013a8 	.word	0x000013a8
   28e44:	4915      	ldr	r1, [pc, #84]	@ (28e9c <_start+0x11a0>)
   28e46:	4469      	add	r1, sp
   28e48:	78c8      	ldrb	r0, [r1, #3]
   28e4a:	acf3      	add	r4, sp, #972	@ 0x3cc
   28e4c:	70a0      	strb	r0, [r4, #2]
   28e4e:	7848      	ldrb	r0, [r1, #1]
   28e50:	788a      	ldrb	r2, [r1, #2]
   28e52:	0212      	lsls	r2, r2, #8
   28e54:	1810      	adds	r0, r2, r0
   28e56:	8020      	strh	r0, [r4, #0]
   28e58:	9808      	ldr	r0, [sp, #32]
   28e5a:	6e06      	ldr	r6, [r0, #96]	@ 0x60
   28e5c:	3108      	adds	r1, #8
   28e5e:	4d10      	ldr	r5, [pc, #64]	@ (28ea0 <_start+0x11a4>)
   28e60:	446d      	add	r5, sp
   28e62:	2249      	movs	r2, #73	@ 0x49
   28e64:	920b      	str	r2, [sp, #44]	@ 0x2c
   28e66:	4628      	mov	r0, r5
   28e68:	f001 ffec 	bl	2ae44 <__aeabi_memcpy4>
   28e6c:	0e30      	lsrs	r0, r6, #24
   28e6e:	71a0      	strb	r0, [r4, #6]
   28e70:	0c30      	lsrs	r0, r6, #16
   28e72:	7160      	strb	r0, [r4, #5]
   28e74:	0a30      	lsrs	r0, r6, #8
   28e76:	7120      	strb	r0, [r4, #4]
   28e78:	70e6      	strb	r6, [r4, #3]
   28e7a:	1de0      	adds	r0, r4, #7
   28e7c:	4629      	mov	r1, r5
   28e7e:	9a0b      	ldr	r2, [sp, #44]	@ 0x2c
   28e80:	f002 f940 	bl	2b104 <__aeabi_memcpy>
   28e84:	4d05      	ldr	r5, [pc, #20]	@ (28e9c <_start+0x11a0>)
   28e86:	446d      	add	r5, sp
   28e88:	4628      	mov	r0, r5
   28e8a:	4621      	mov	r1, r4
   28e8c:	f7fe fbea 	bl	27664 <_ZN20complex_dynamic_type3app17hf4f3ff01787e75eaE>
   28e90:	7828      	ldrb	r0, [r5, #0]
   28e92:	2801      	cmp	r0, #1
   28e94:	d106      	bne.n	28ea4 <_start+0x11a8>
   28e96:	f001 ff1f 	bl	2acd8 <_start+0x2fdc>
   28e9a:	46c0      	nop			@ (mov r8, r8)
   28e9c:	00001404 	.word	0x00001404
   28ea0:	000013a8 	.word	0x000013a8
   28ea4:	4819      	ldr	r0, [pc, #100]	@ (28f0c <_start+0x1210>)
   28ea6:	4468      	add	r0, sp
   28ea8:	78c1      	ldrb	r1, [r0, #3]
   28eaa:	acff      	add	r4, sp, #1020	@ 0x3fc
   28eac:	3420      	adds	r4, #32
   28eae:	70a1      	strb	r1, [r4, #2]
   28eb0:	7841      	ldrb	r1, [r0, #1]
   28eb2:	7882      	ldrb	r2, [r0, #2]
   28eb4:	0212      	lsls	r2, r2, #8
   28eb6:	1851      	adds	r1, r2, r1
   28eb8:	8021      	strh	r1, [r4, #0]
   28eba:	3008      	adds	r0, #8
   28ebc:	9908      	ldr	r1, [sp, #32]
   28ebe:	6e09      	ldr	r1, [r1, #96]	@ 0x60
   28ec0:	910a      	str	r1, [sp, #40]	@ 0x28
   28ec2:	4b13      	ldr	r3, [pc, #76]	@ (28f10 <_start+0x1214>)
   28ec4:	446b      	add	r3, sp
   28ec6:	930b      	str	r3, [sp, #44]	@ 0x2c
   28ec8:	c864      	ldmia	r0!, {r2, r5, r6}
   28eca:	c364      	stmia	r3!, {r2, r5, r6}
   28ecc:	c864      	ldmia	r0!, {r2, r5, r6}
   28ece:	c364      	stmia	r3!, {r2, r5, r6}
   28ed0:	c864      	ldmia	r0!, {r2, r5, r6}
   28ed2:	c364      	stmia	r3!, {r2, r5, r6}
   28ed4:	c866      	ldmia	r0!, {r1, r2, r5, r6}
   28ed6:	c366      	stmia	r3!, {r1, r2, r5, r6}
   28ed8:	7800      	ldrb	r0, [r0, #0]
   28eda:	7018      	strb	r0, [r3, #0]
   28edc:	990a      	ldr	r1, [sp, #40]	@ 0x28
   28ede:	0e08      	lsrs	r0, r1, #24
   28ee0:	71a0      	strb	r0, [r4, #6]
   28ee2:	0c08      	lsrs	r0, r1, #16
   28ee4:	7160      	strb	r0, [r4, #5]
   28ee6:	0a08      	lsrs	r0, r1, #8
   28ee8:	7120      	strb	r0, [r4, #4]
   28eea:	70e1      	strb	r1, [r4, #3]
   28eec:	1de0      	adds	r0, r4, #7
   28eee:	2235      	movs	r2, #53	@ 0x35
   28ef0:	990b      	ldr	r1, [sp, #44]	@ 0x2c
   28ef2:	f002 f907 	bl	2b104 <__aeabi_memcpy>
   28ef6:	4d05      	ldr	r5, [pc, #20]	@ (28f0c <_start+0x1210>)
   28ef8:	446d      	add	r5, sp
   28efa:	4628      	mov	r0, r5
   28efc:	4621      	mov	r1, r4
   28efe:	f7fc fc8d 	bl	2581c <_ZN20complex_dynamic_type3app17hbb3758a902ea59d2E>
   28f02:	7828      	ldrb	r0, [r5, #0]
   28f04:	2801      	cmp	r0, #1
   28f06:	d105      	bne.n	28f14 <_start+0x1218>
   28f08:	f001 fee6 	bl	2acd8 <_start+0x2fdc>
   28f0c:	00001404 	.word	0x00001404
   28f10:	000013a8 	.word	0x000013a8
   28f14:	4819      	ldr	r0, [pc, #100]	@ (28f7c <_start+0x1280>)
   28f16:	4468      	add	r0, sp
   28f18:	78c1      	ldrb	r1, [r0, #3]
   28f1a:	acff      	add	r4, sp, #1020	@ 0x3fc
   28f1c:	345c      	adds	r4, #92	@ 0x5c
   28f1e:	70a1      	strb	r1, [r4, #2]
   28f20:	7841      	ldrb	r1, [r0, #1]
   28f22:	7882      	ldrb	r2, [r0, #2]
   28f24:	0212      	lsls	r2, r2, #8
   28f26:	1851      	adds	r1, r2, r1
   28f28:	8021      	strh	r1, [r4, #0]
   28f2a:	3008      	adds	r0, #8
   28f2c:	9908      	ldr	r1, [sp, #32]
   28f2e:	6e09      	ldr	r1, [r1, #96]	@ 0x60
   28f30:	910a      	str	r1, [sp, #40]	@ 0x28
   28f32:	4b13      	ldr	r3, [pc, #76]	@ (28f80 <_start+0x1284>)
   28f34:	446b      	add	r3, sp
   28f36:	930b      	str	r3, [sp, #44]	@ 0x2c
   28f38:	c864      	ldmia	r0!, {r2, r5, r6}
   28f3a:	c364      	stmia	r3!, {r2, r5, r6}
   28f3c:	c864      	ldmia	r0!, {r2, r5, r6}
   28f3e:	c364      	stmia	r3!, {r2, r5, r6}
   28f40:	c866      	ldmia	r0!, {r1, r2, r5, r6}
   28f42:	c366      	stmia	r3!, {r1, r2, r5, r6}
   28f44:	8801      	ldrh	r1, [r0, #0]
   28f46:	8019      	strh	r1, [r3, #0]
   28f48:	7880      	ldrb	r0, [r0, #2]
   28f4a:	7098      	strb	r0, [r3, #2]
   28f4c:	990a      	ldr	r1, [sp, #40]	@ 0x28
   28f4e:	0e08      	lsrs	r0, r1, #24
   28f50:	71a0      	strb	r0, [r4, #6]
   28f52:	0c08      	lsrs	r0, r1, #16
   28f54:	7160      	strb	r0, [r4, #5]
   28f56:	0a08      	lsrs	r0, r1, #8
   28f58:	7120      	strb	r0, [r4, #4]
   28f5a:	70e1      	strb	r1, [r4, #3]
   28f5c:	1de0      	adds	r0, r4, #7
   28f5e:	222b      	movs	r2, #43	@ 0x2b
   28f60:	990b      	ldr	r1, [sp, #44]	@ 0x2c
   28f62:	f002 f8cf 	bl	2b104 <__aeabi_memcpy>
   28f66:	4d05      	ldr	r5, [pc, #20]	@ (28f7c <_start+0x1280>)
   28f68:	446d      	add	r5, sp
   28f6a:	4628      	mov	r0, r5
   28f6c:	4621      	mov	r1, r4
   28f6e:	f7fd fa3f 	bl	263f0 <_ZN20complex_dynamic_type3app17hca34f8b18389f16eE>
   28f72:	7828      	ldrb	r0, [r5, #0]
   28f74:	2801      	cmp	r0, #1
   28f76:	d105      	bne.n	28f84 <_start+0x1288>
   28f78:	f001 feae 	bl	2acd8 <_start+0x2fdc>
   28f7c:	00001404 	.word	0x00001404
   28f80:	000013a8 	.word	0x000013a8
   28f84:	4819      	ldr	r0, [pc, #100]	@ (28fec <_start+0x12f0>)
   28f86:	4468      	add	r0, sp
   28f88:	78c1      	ldrb	r1, [r0, #3]
   28f8a:	acff      	add	r4, sp, #1020	@ 0x3fc
   28f8c:	3490      	adds	r4, #144	@ 0x90
   28f8e:	70a1      	strb	r1, [r4, #2]
   28f90:	7841      	ldrb	r1, [r0, #1]
   28f92:	7882      	ldrb	r2, [r0, #2]
   28f94:	0212      	lsls	r2, r2, #8
   28f96:	1851      	adds	r1, r2, r1
   28f98:	8021      	strh	r1, [r4, #0]
   28f9a:	3008      	adds	r0, #8
   28f9c:	9908      	ldr	r1, [sp, #32]
   28f9e:	6e09      	ldr	r1, [r1, #96]	@ 0x60
   28fa0:	910a      	str	r1, [sp, #40]	@ 0x28
   28fa2:	4b13      	ldr	r3, [pc, #76]	@ (28ff0 <_start+0x12f4>)
   28fa4:	446b      	add	r3, sp
   28fa6:	930b      	str	r3, [sp, #44]	@ 0x2c
   28fa8:	c864      	ldmia	r0!, {r2, r5, r6}
   28faa:	c364      	stmia	r3!, {r2, r5, r6}
   28fac:	c864      	ldmia	r0!, {r2, r5, r6}
   28fae:	c364      	stmia	r3!, {r2, r5, r6}
   28fb0:	c866      	ldmia	r0!, {r1, r2, r5, r6}
   28fb2:	c366      	stmia	r3!, {r1, r2, r5, r6}
   28fb4:	8801      	ldrh	r1, [r0, #0]
   28fb6:	8019      	strh	r1, [r3, #0]
   28fb8:	7880      	ldrb	r0, [r0, #2]
   28fba:	7098      	strb	r0, [r3, #2]
   28fbc:	990a      	ldr	r1, [sp, #40]	@ 0x28
   28fbe:	0e08      	lsrs	r0, r1, #24
   28fc0:	71a0      	strb	r0, [r4, #6]
   28fc2:	0c08      	lsrs	r0, r1, #16
   28fc4:	7160      	strb	r0, [r4, #5]
   28fc6:	0a08      	lsrs	r0, r1, #8
   28fc8:	7120      	strb	r0, [r4, #4]
   28fca:	70e1      	strb	r1, [r4, #3]
   28fcc:	1de0      	adds	r0, r4, #7
   28fce:	222b      	movs	r2, #43	@ 0x2b
   28fd0:	990b      	ldr	r1, [sp, #44]	@ 0x2c
   28fd2:	f002 f897 	bl	2b104 <__aeabi_memcpy>
   28fd6:	4d05      	ldr	r5, [pc, #20]	@ (28fec <_start+0x12f0>)
   28fd8:	446d      	add	r5, sp
   28fda:	4628      	mov	r0, r5
   28fdc:	4621      	mov	r1, r4
   28fde:	f7fc fd6b 	bl	25ab8 <_ZN20complex_dynamic_type3app17hc15ecf02dd530c18E>
   28fe2:	7828      	ldrb	r0, [r5, #0]
   28fe4:	2801      	cmp	r0, #1
   28fe6:	d105      	bne.n	28ff4 <_start+0x12f8>
   28fe8:	f001 fe76 	bl	2acd8 <_start+0x2fdc>
   28fec:	00001404 	.word	0x00001404
   28ff0:	000013a8 	.word	0x000013a8
   28ff4:	4914      	ldr	r1, [pc, #80]	@ (29048 <_start+0x134c>)
   28ff6:	4469      	add	r1, sp
   28ff8:	9b08      	ldr	r3, [sp, #32]
   28ffa:	6ed8      	ldr	r0, [r3, #108]	@ 0x6c
   28ffc:	7208      	strb	r0, [r1, #8]
   28ffe:	4813      	ldr	r0, [pc, #76]	@ (2904c <_start+0x1350>)
   29000:	4468      	add	r0, sp
   29002:	78c2      	ldrb	r2, [r0, #3]
   29004:	acff      	add	r4, sp, #1020	@ 0x3fc
   29006:	34c4      	adds	r4, #196	@ 0xc4
   29008:	70a2      	strb	r2, [r4, #2]
   2900a:	7842      	ldrb	r2, [r0, #1]
   2900c:	7880      	ldrb	r0, [r0, #2]
   2900e:	0200      	lsls	r0, r0, #8
   29010:	1880      	adds	r0, r0, r2
   29012:	8020      	strh	r0, [r4, #0]
   29014:	6e18      	ldr	r0, [r3, #96]	@ 0x60
   29016:	70e0      	strb	r0, [r4, #3]
   29018:	0e02      	lsrs	r2, r0, #24
   2901a:	71a2      	strb	r2, [r4, #6]
   2901c:	0c02      	lsrs	r2, r0, #16
   2901e:	7162      	strb	r2, [r4, #5]
   29020:	0a00      	lsrs	r0, r0, #8
   29022:	7120      	strb	r0, [r4, #4]
   29024:	6e58      	ldr	r0, [r3, #100]	@ 0x64
   29026:	6e9a      	ldr	r2, [r3, #104]	@ 0x68
   29028:	c305      	stmia	r3!, {r0, r2}
   2902a:	1de0      	adds	r0, r4, #7
   2902c:	2209      	movs	r2, #9
   2902e:	f002 f869 	bl	2b104 <__aeabi_memcpy>
   29032:	4d06      	ldr	r5, [pc, #24]	@ (2904c <_start+0x1350>)
   29034:	446d      	add	r5, sp
   29036:	4628      	mov	r0, r5
   29038:	4621      	mov	r1, r4
   2903a:	f7fe fd0f 	bl	27a5c <_ZN20complex_dynamic_type3app17hfcb68d02f8698b74E>
   2903e:	7828      	ldrb	r0, [r5, #0]
   29040:	2801      	cmp	r0, #1
   29042:	d105      	bne.n	29050 <_start+0x1354>
   29044:	f001 fe48 	bl	2acd8 <_start+0x2fdc>
   29048:	000013a8 	.word	0x000013a8
   2904c:	00001404 	.word	0x00001404
   29050:	4819      	ldr	r0, [pc, #100]	@ (290b8 <_start+0x13bc>)
   29052:	4468      	add	r0, sp
   29054:	78c1      	ldrb	r1, [r0, #3]
   29056:	acff      	add	r4, sp, #1020	@ 0x3fc
   29058:	34d4      	adds	r4, #212	@ 0xd4
   2905a:	70a1      	strb	r1, [r4, #2]
   2905c:	7841      	ldrb	r1, [r0, #1]
   2905e:	7882      	ldrb	r2, [r0, #2]
   29060:	0212      	lsls	r2, r2, #8
   29062:	1851      	adds	r1, r2, r1
   29064:	8021      	strh	r1, [r4, #0]
   29066:	3008      	adds	r0, #8
   29068:	9908      	ldr	r1, [sp, #32]
   2906a:	6e09      	ldr	r1, [r1, #96]	@ 0x60
   2906c:	910a      	str	r1, [sp, #40]	@ 0x28
   2906e:	4b13      	ldr	r3, [pc, #76]	@ (290bc <_start+0x13c0>)
   29070:	446b      	add	r3, sp
   29072:	930b      	str	r3, [sp, #44]	@ 0x2c
   29074:	c864      	ldmia	r0!, {r2, r5, r6}
   29076:	c364      	stmia	r3!, {r2, r5, r6}
   29078:	c866      	ldmia	r0!, {r1, r2, r5, r6}
   2907a:	c366      	stmia	r3!, {r1, r2, r5, r6}
   2907c:	c866      	ldmia	r0!, {r1, r2, r5, r6}
   2907e:	c366      	stmia	r3!, {r1, r2, r5, r6}
   29080:	8801      	ldrh	r1, [r0, #0]
   29082:	8019      	strh	r1, [r3, #0]
   29084:	7880      	ldrb	r0, [r0, #2]
   29086:	7098      	strb	r0, [r3, #2]
   29088:	990a      	ldr	r1, [sp, #40]	@ 0x28
   2908a:	0e08      	lsrs	r0, r1, #24
   2908c:	71a0      	strb	r0, [r4, #6]
   2908e:	0c08      	lsrs	r0, r1, #16
   29090:	7160      	strb	r0, [r4, #5]
   29092:	0a08      	lsrs	r0, r1, #8
   29094:	7120      	strb	r0, [r4, #4]
   29096:	70e1      	strb	r1, [r4, #3]
   29098:	1de0      	adds	r0, r4, #7
   2909a:	222f      	movs	r2, #47	@ 0x2f
   2909c:	990b      	ldr	r1, [sp, #44]	@ 0x2c
   2909e:	f002 f831 	bl	2b104 <__aeabi_memcpy>
   290a2:	4d05      	ldr	r5, [pc, #20]	@ (290b8 <_start+0x13bc>)
   290a4:	446d      	add	r5, sp
   290a6:	4628      	mov	r0, r5
   290a8:	4621      	mov	r1, r4
   290aa:	f7fd fb99 	bl	267e0 <_ZN20complex_dynamic_type3app17hd923ddf16d12a1ebE>
   290ae:	7828      	ldrb	r0, [r5, #0]
   290b0:	2801      	cmp	r0, #1
   290b2:	d105      	bne.n	290c0 <_start+0x13c4>
   290b4:	f001 fe10 	bl	2acd8 <_start+0x2fdc>
   290b8:	00001404 	.word	0x00001404
   290bc:	000013a8 	.word	0x000013a8
   290c0:	9803      	ldr	r0, [sp, #12]
   290c2:	1cc0      	adds	r0, r0, #3
   290c4:	4a16      	ldr	r2, [pc, #88]	@ (29120 <_start+0x1424>)
   290c6:	446a      	add	r2, sp
   290c8:	78d3      	ldrb	r3, [r2, #3]
   290ca:	4916      	ldr	r1, [pc, #88]	@ (29124 <_start+0x1428>)
   290cc:	4469      	add	r1, sp
   290ce:	708b      	strb	r3, [r1, #2]
   290d0:	7853      	ldrb	r3, [r2, #1]
   290d2:	7892      	ldrb	r2, [r2, #2]
   290d4:	0212      	lsls	r2, r2, #8
   290d6:	18d2      	adds	r2, r2, r3
   290d8:	800a      	strh	r2, [r1, #0]
   290da:	9c08      	ldr	r4, [sp, #32]
   290dc:	3460      	adds	r4, #96	@ 0x60
   290de:	cc1c      	ldmia	r4, {r2, r3, r4}
   290e0:	0e25      	lsrs	r5, r4, #24
   290e2:	72c5      	strb	r5, [r0, #11]
   290e4:	0c25      	lsrs	r5, r4, #16
   290e6:	7285      	strb	r5, [r0, #10]
   290e8:	0a25      	lsrs	r5, r4, #8
   290ea:	7245      	strb	r5, [r0, #9]
   290ec:	7204      	strb	r4, [r0, #8]
   290ee:	0e1c      	lsrs	r4, r3, #24
   290f0:	71c4      	strb	r4, [r0, #7]
   290f2:	0c1c      	lsrs	r4, r3, #16
   290f4:	7184      	strb	r4, [r0, #6]
   290f6:	0a1c      	lsrs	r4, r3, #8
   290f8:	7144      	strb	r4, [r0, #5]
   290fa:	7103      	strb	r3, [r0, #4]
   290fc:	0e13      	lsrs	r3, r2, #24
   290fe:	70c3      	strb	r3, [r0, #3]
   29100:	0c13      	lsrs	r3, r2, #16
   29102:	7083      	strb	r3, [r0, #2]
   29104:	0a13      	lsrs	r3, r2, #8
   29106:	7043      	strb	r3, [r0, #1]
   29108:	7002      	strb	r2, [r0, #0]
   2910a:	4c05      	ldr	r4, [pc, #20]	@ (29120 <_start+0x1424>)
   2910c:	446c      	add	r4, sp
   2910e:	4620      	mov	r0, r4
   29110:	f7fa fafa 	bl	23708 <_ZN20complex_dynamic_type3app17h704c19e51a3f90bdE>
   29114:	7820      	ldrb	r0, [r4, #0]
   29116:	2801      	cmp	r0, #1
   29118:	d106      	bne.n	29128 <_start+0x142c>
   2911a:	f001 fddd 	bl	2acd8 <_start+0x2fdc>
   2911e:	46c0      	nop			@ (mov r8, r8)
   29120:	00001404 	.word	0x00001404
   29124:	00000508 	.word	0x00000508
   29128:	4813      	ldr	r0, [pc, #76]	@ (29178 <_start+0x147c>)
   2912a:	4468      	add	r0, sp
   2912c:	78c1      	ldrb	r1, [r0, #3]
   2912e:	4c13      	ldr	r4, [pc, #76]	@ (2917c <_start+0x1480>)
   29130:	446c      	add	r4, sp
   29132:	70a1      	strb	r1, [r4, #2]
   29134:	7841      	ldrb	r1, [r0, #1]
   29136:	7880      	ldrb	r0, [r0, #2]
   29138:	0200      	lsls	r0, r0, #8
   2913a:	1840      	adds	r0, r0, r1
   2913c:	8020      	strh	r0, [r4, #0]
   2913e:	9e08      	ldr	r6, [sp, #32]
   29140:	4633      	mov	r3, r6
   29142:	3360      	adds	r3, #96	@ 0x60
   29144:	cb0f      	ldmia	r3, {r0, r1, r2, r3}
   29146:	70e0      	strb	r0, [r4, #3]
   29148:	0e05      	lsrs	r5, r0, #24
   2914a:	71a5      	strb	r5, [r4, #6]
   2914c:	0c05      	lsrs	r5, r0, #16
   2914e:	7165      	strb	r5, [r4, #5]
   29150:	0a00      	lsrs	r0, r0, #8
   29152:	7120      	strb	r0, [r4, #4]
   29154:	c60e      	stmia	r6!, {r1, r2, r3}
   29156:	1de0      	adds	r0, r4, #7
   29158:	4909      	ldr	r1, [pc, #36]	@ (29180 <_start+0x1484>)
   2915a:	4469      	add	r1, sp
   2915c:	220c      	movs	r2, #12
   2915e:	f001 ffd1 	bl	2b104 <__aeabi_memcpy>
   29162:	4d05      	ldr	r5, [pc, #20]	@ (29178 <_start+0x147c>)
   29164:	446d      	add	r5, sp
   29166:	4628      	mov	r0, r5
   29168:	4621      	mov	r1, r4
   2916a:	f7fa fd79 	bl	23c60 <_ZN20complex_dynamic_type3app17h756b74833a5f2b1bE>
   2916e:	7828      	ldrb	r0, [r5, #0]
   29170:	2801      	cmp	r0, #1
   29172:	d107      	bne.n	29184 <_start+0x1488>
   29174:	f001 fdb0 	bl	2acd8 <_start+0x2fdc>
   29178:	00001404 	.word	0x00001404
   2917c:	00000518 	.word	0x00000518
   29180:	000013a8 	.word	0x000013a8
   29184:	4915      	ldr	r1, [pc, #84]	@ (291dc <_start+0x14e0>)
   29186:	4469      	add	r1, sp
   29188:	78c8      	ldrb	r0, [r1, #3]
   2918a:	4c15      	ldr	r4, [pc, #84]	@ (291e0 <_start+0x14e4>)
   2918c:	446c      	add	r4, sp
   2918e:	70a0      	strb	r0, [r4, #2]
   29190:	7848      	ldrb	r0, [r1, #1]
   29192:	788a      	ldrb	r2, [r1, #2]
   29194:	0212      	lsls	r2, r2, #8
   29196:	1810      	adds	r0, r2, r0
   29198:	8020      	strh	r0, [r4, #0]
   2919a:	9808      	ldr	r0, [sp, #32]
   2919c:	6e05      	ldr	r5, [r0, #96]	@ 0x60
   2919e:	3108      	adds	r1, #8
   291a0:	4810      	ldr	r0, [pc, #64]	@ (291e4 <_start+0x14e8>)
   291a2:	4468      	add	r0, sp
   291a4:	900b      	str	r0, [sp, #44]	@ 0x2c
   291a6:	264e      	movs	r6, #78	@ 0x4e
   291a8:	4632      	mov	r2, r6
   291aa:	f001 fe4b 	bl	2ae44 <__aeabi_memcpy4>
   291ae:	0e28      	lsrs	r0, r5, #24
   291b0:	71a0      	strb	r0, [r4, #6]
   291b2:	0c28      	lsrs	r0, r5, #16
   291b4:	7160      	strb	r0, [r4, #5]
   291b6:	0a28      	lsrs	r0, r5, #8
   291b8:	7120      	strb	r0, [r4, #4]
   291ba:	70e5      	strb	r5, [r4, #3]
   291bc:	1de0      	adds	r0, r4, #7
   291be:	990b      	ldr	r1, [sp, #44]	@ 0x2c
   291c0:	4632      	mov	r2, r6
   291c2:	f001 ff9f 	bl	2b104 <__aeabi_memcpy>
   291c6:	4d05      	ldr	r5, [pc, #20]	@ (291dc <_start+0x14e0>)
   291c8:	446d      	add	r5, sp
   291ca:	4628      	mov	r0, r5
   291cc:	4621      	mov	r1, r4
   291ce:	f7f9 fbfb 	bl	229c8 <_ZN20complex_dynamic_type3app17h5b79d487458a18ebE>
   291d2:	7828      	ldrb	r0, [r5, #0]
   291d4:	2801      	cmp	r0, #1
   291d6:	d107      	bne.n	291e8 <_start+0x14ec>
   291d8:	f001 fd7e 	bl	2acd8 <_start+0x2fdc>
   291dc:	00001404 	.word	0x00001404
   291e0:	0000052c 	.word	0x0000052c
   291e4:	000013a8 	.word	0x000013a8
   291e8:	4819      	ldr	r0, [pc, #100]	@ (29250 <_start+0x1554>)
   291ea:	4468      	add	r0, sp
   291ec:	78c1      	ldrb	r1, [r0, #3]
   291ee:	4c19      	ldr	r4, [pc, #100]	@ (29254 <_start+0x1558>)
   291f0:	446c      	add	r4, sp
   291f2:	70a1      	strb	r1, [r4, #2]
   291f4:	7841      	ldrb	r1, [r0, #1]
   291f6:	7882      	ldrb	r2, [r0, #2]
   291f8:	0212      	lsls	r2, r2, #8
   291fa:	1851      	adds	r1, r2, r1
   291fc:	8021      	strh	r1, [r4, #0]
   291fe:	3008      	adds	r0, #8
   29200:	9908      	ldr	r1, [sp, #32]
   29202:	6e09      	ldr	r1, [r1, #96]	@ 0x60
   29204:	910a      	str	r1, [sp, #40]	@ 0x28
   29206:	4b14      	ldr	r3, [pc, #80]	@ (29258 <_start+0x155c>)
   29208:	446b      	add	r3, sp
   2920a:	930b      	str	r3, [sp, #44]	@ 0x2c
   2920c:	c864      	ldmia	r0!, {r2, r5, r6}
   2920e:	c364      	stmia	r3!, {r2, r5, r6}
   29210:	c864      	ldmia	r0!, {r2, r5, r6}
   29212:	c364      	stmia	r3!, {r2, r5, r6}
   29214:	c866      	ldmia	r0!, {r1, r2, r5, r6}
   29216:	c366      	stmia	r3!, {r1, r2, r5, r6}
   29218:	8801      	ldrh	r1, [r0, #0]
   2921a:	8019      	strh	r1, [r3, #0]
   2921c:	7880      	ldrb	r0, [r0, #2]
   2921e:	7098      	strb	r0, [r3, #2]
   29220:	990a      	ldr	r1, [sp, #40]	@ 0x28
   29222:	0e08      	lsrs	r0, r1, #24
   29224:	71a0      	strb	r0, [r4, #6]
   29226:	0c08      	lsrs	r0, r1, #16
   29228:	7160      	strb	r0, [r4, #5]
   2922a:	0a08      	lsrs	r0, r1, #8
   2922c:	7120      	strb	r0, [r4, #4]
   2922e:	70e1      	strb	r1, [r4, #3]
   29230:	1de0      	adds	r0, r4, #7
   29232:	222b      	movs	r2, #43	@ 0x2b
   29234:	990b      	ldr	r1, [sp, #44]	@ 0x2c
   29236:	f001 ff65 	bl	2b104 <__aeabi_memcpy>
   2923a:	4d05      	ldr	r5, [pc, #20]	@ (29250 <_start+0x1554>)
   2923c:	446d      	add	r5, sp
   2923e:	4628      	mov	r0, r5
   29240:	4621      	mov	r1, r4
   29242:	f7f8 fa89 	bl	21758 <_ZN20complex_dynamic_type3app17h3d055618705ec01aE>
   29246:	7828      	ldrb	r0, [r5, #0]
   29248:	2801      	cmp	r0, #1
   2924a:	d107      	bne.n	2925c <_start+0x1560>
   2924c:	f001 fd44 	bl	2acd8 <_start+0x2fdc>
   29250:	00001404 	.word	0x00001404
   29254:	00000584 	.word	0x00000584
   29258:	000013a8 	.word	0x000013a8
   2925c:	4819      	ldr	r0, [pc, #100]	@ (292c4 <_start+0x15c8>)
   2925e:	4468      	add	r0, sp
   29260:	78c1      	ldrb	r1, [r0, #3]
   29262:	4c19      	ldr	r4, [pc, #100]	@ (292c8 <_start+0x15cc>)
   29264:	446c      	add	r4, sp
   29266:	70a1      	strb	r1, [r4, #2]
   29268:	7841      	ldrb	r1, [r0, #1]
   2926a:	7882      	ldrb	r2, [r0, #2]
   2926c:	0212      	lsls	r2, r2, #8
   2926e:	1851      	adds	r1, r2, r1
   29270:	8021      	strh	r1, [r4, #0]
   29272:	3008      	adds	r0, #8
   29274:	9908      	ldr	r1, [sp, #32]
   29276:	6e09      	ldr	r1, [r1, #96]	@ 0x60
   29278:	910a      	str	r1, [sp, #40]	@ 0x28
   2927a:	4b14      	ldr	r3, [pc, #80]	@ (292cc <_start+0x15d0>)
   2927c:	446b      	add	r3, sp
   2927e:	930b      	str	r3, [sp, #44]	@ 0x2c
   29280:	c864      	ldmia	r0!, {r2, r5, r6}
   29282:	c364      	stmia	r3!, {r2, r5, r6}
   29284:	c866      	ldmia	r0!, {r1, r2, r5, r6}
   29286:	c366      	stmia	r3!, {r1, r2, r5, r6}
   29288:	c826      	ldmia	r0!, {r1, r2, r5}
   2928a:	c326      	stmia	r3!, {r1, r2, r5}
   2928c:	c866      	ldmia	r0!, {r1, r2, r5, r6}
   2928e:	c366      	stmia	r3!, {r1, r2, r5, r6}
   29290:	8800      	ldrh	r0, [r0, #0]
   29292:	8018      	strh	r0, [r3, #0]
   29294:	990a      	ldr	r1, [sp, #40]	@ 0x28
   29296:	0e08      	lsrs	r0, r1, #24
   29298:	71a0      	strb	r0, [r4, #6]
   2929a:	0c08      	lsrs	r0, r1, #16
   2929c:	7160      	strb	r0, [r4, #5]
   2929e:	0a08      	lsrs	r0, r1, #8
   292a0:	7120      	strb	r0, [r4, #4]
   292a2:	70e1      	strb	r1, [r4, #3]
   292a4:	1de0      	adds	r0, r4, #7
   292a6:	223a      	movs	r2, #58	@ 0x3a
   292a8:	990b      	ldr	r1, [sp, #44]	@ 0x2c
   292aa:	f001 ff2b 	bl	2b104 <__aeabi_memcpy>
   292ae:	4d05      	ldr	r5, [pc, #20]	@ (292c4 <_start+0x15c8>)
   292b0:	446d      	add	r5, sp
   292b2:	4628      	mov	r0, r5
   292b4:	4621      	mov	r1, r4
   292b6:	f7fd fbe1 	bl	26a7c <_ZN20complex_dynamic_type3app17hdcd573bcff16be96E>
   292ba:	7828      	ldrb	r0, [r5, #0]
   292bc:	2801      	cmp	r0, #1
   292be:	d107      	bne.n	292d0 <_start+0x15d4>
   292c0:	f001 fd0a 	bl	2acd8 <_start+0x2fdc>
   292c4:	00001404 	.word	0x00001404
   292c8:	000005b8 	.word	0x000005b8
   292cc:	000013a8 	.word	0x000013a8
   292d0:	4817      	ldr	r0, [pc, #92]	@ (29330 <_start+0x1634>)
   292d2:	4468      	add	r0, sp
   292d4:	78c1      	ldrb	r1, [r0, #3]
   292d6:	4c17      	ldr	r4, [pc, #92]	@ (29334 <_start+0x1638>)
   292d8:	446c      	add	r4, sp
   292da:	70a1      	strb	r1, [r4, #2]
   292dc:	7841      	ldrb	r1, [r0, #1]
   292de:	7882      	ldrb	r2, [r0, #2]
   292e0:	0212      	lsls	r2, r2, #8
   292e2:	1851      	adds	r1, r2, r1
   292e4:	8021      	strh	r1, [r4, #0]
   292e6:	3008      	adds	r0, #8
   292e8:	9908      	ldr	r1, [sp, #32]
   292ea:	6e09      	ldr	r1, [r1, #96]	@ 0x60
   292ec:	4b12      	ldr	r3, [pc, #72]	@ (29338 <_start+0x163c>)
   292ee:	446b      	add	r3, sp
   292f0:	930b      	str	r3, [sp, #44]	@ 0x2c
   292f2:	c864      	ldmia	r0!, {r2, r5, r6}
   292f4:	c364      	stmia	r3!, {r2, r5, r6}
   292f6:	c864      	ldmia	r0!, {r2, r5, r6}
   292f8:	c364      	stmia	r3!, {r2, r5, r6}
   292fa:	8802      	ldrh	r2, [r0, #0]
   292fc:	801a      	strh	r2, [r3, #0]
   292fe:	7880      	ldrb	r0, [r0, #2]
   29300:	7098      	strb	r0, [r3, #2]
   29302:	0e08      	lsrs	r0, r1, #24
   29304:	71a0      	strb	r0, [r4, #6]
   29306:	0c08      	lsrs	r0, r1, #16
   29308:	7160      	strb	r0, [r4, #5]
   2930a:	0a08      	lsrs	r0, r1, #8
   2930c:	7120      	strb	r0, [r4, #4]
   2930e:	70e1      	strb	r1, [r4, #3]
   29310:	1de0      	adds	r0, r4, #7
   29312:	221b      	movs	r2, #27
   29314:	990b      	ldr	r1, [sp, #44]	@ 0x2c
   29316:	f001 fef5 	bl	2b104 <__aeabi_memcpy>
   2931a:	4d05      	ldr	r5, [pc, #20]	@ (29330 <_start+0x1634>)
   2931c:	446d      	add	r5, sp
   2931e:	4628      	mov	r0, r5
   29320:	4621      	mov	r1, r4
   29322:	f7fa fd45 	bl	23db0 <_ZN20complex_dynamic_type3app17h78c9bf5b4d30021eE>
   29326:	7828      	ldrb	r0, [r5, #0]
   29328:	2801      	cmp	r0, #1
   2932a:	d107      	bne.n	2933c <_start+0x1640>
   2932c:	f001 fcd4 	bl	2acd8 <_start+0x2fdc>
   29330:	00001404 	.word	0x00001404
   29334:	000005fc 	.word	0x000005fc
   29338:	000013a8 	.word	0x000013a8
   2933c:	4915      	ldr	r1, [pc, #84]	@ (29394 <_start+0x1698>)
   2933e:	4469      	add	r1, sp
   29340:	78c8      	ldrb	r0, [r1, #3]
   29342:	4c15      	ldr	r4, [pc, #84]	@ (29398 <_start+0x169c>)
   29344:	446c      	add	r4, sp
   29346:	70a0      	strb	r0, [r4, #2]
   29348:	7848      	ldrb	r0, [r1, #1]
   2934a:	788a      	ldrb	r2, [r1, #2]
   2934c:	0212      	lsls	r2, r2, #8
   2934e:	1810      	adds	r0, r2, r0
   29350:	8020      	strh	r0, [r4, #0]
   29352:	9808      	ldr	r0, [sp, #32]
   29354:	6e05      	ldr	r5, [r0, #96]	@ 0x60
   29356:	3108      	adds	r1, #8
   29358:	4810      	ldr	r0, [pc, #64]	@ (2939c <_start+0x16a0>)
   2935a:	4468      	add	r0, sp
   2935c:	900b      	str	r0, [sp, #44]	@ 0x2c
   2935e:	264a      	movs	r6, #74	@ 0x4a
   29360:	4632      	mov	r2, r6
   29362:	f001 fd6f 	bl	2ae44 <__aeabi_memcpy4>
   29366:	0e28      	lsrs	r0, r5, #24
   29368:	71a0      	strb	r0, [r4, #6]
   2936a:	0c28      	lsrs	r0, r5, #16
   2936c:	7160      	strb	r0, [r4, #5]
   2936e:	0a28      	lsrs	r0, r5, #8
   29370:	7120      	strb	r0, [r4, #4]
   29372:	70e5      	strb	r5, [r4, #3]
   29374:	1de0      	adds	r0, r4, #7
   29376:	990b      	ldr	r1, [sp, #44]	@ 0x2c
   29378:	4632      	mov	r2, r6
   2937a:	f001 fec3 	bl	2b104 <__aeabi_memcpy>
   2937e:	4d05      	ldr	r5, [pc, #20]	@ (29394 <_start+0x1698>)
   29380:	446d      	add	r5, sp
   29382:	4628      	mov	r0, r5
   29384:	4621      	mov	r1, r4
   29386:	f7f8 fbdd 	bl	21b44 <_ZN20complex_dynamic_type3app17h443dba469ab14169E>
   2938a:	7828      	ldrb	r0, [r5, #0]
   2938c:	2801      	cmp	r0, #1
   2938e:	d107      	bne.n	293a0 <_start+0x16a4>
   29390:	f001 fca2 	bl	2acd8 <_start+0x2fdc>
   29394:	00001404 	.word	0x00001404
   29398:	00000620 	.word	0x00000620
   2939c:	000013a8 	.word	0x000013a8
   293a0:	4915      	ldr	r1, [pc, #84]	@ (293f8 <_start+0x16fc>)
   293a2:	4469      	add	r1, sp
   293a4:	78c8      	ldrb	r0, [r1, #3]
   293a6:	4c15      	ldr	r4, [pc, #84]	@ (293fc <_start+0x1700>)
   293a8:	446c      	add	r4, sp
   293aa:	70a0      	strb	r0, [r4, #2]
   293ac:	7848      	ldrb	r0, [r1, #1]
   293ae:	788a      	ldrb	r2, [r1, #2]
   293b0:	0212      	lsls	r2, r2, #8
   293b2:	1810      	adds	r0, r2, r0
   293b4:	8020      	strh	r0, [r4, #0]
   293b6:	9808      	ldr	r0, [sp, #32]
   293b8:	6e05      	ldr	r5, [r0, #96]	@ 0x60
   293ba:	3108      	adds	r1, #8
   293bc:	4810      	ldr	r0, [pc, #64]	@ (29400 <_start+0x1704>)
   293be:	4468      	add	r0, sp
   293c0:	900b      	str	r0, [sp, #44]	@ 0x2c
   293c2:	2648      	movs	r6, #72	@ 0x48
   293c4:	4632      	mov	r2, r6
   293c6:	f001 fd3d 	bl	2ae44 <__aeabi_memcpy4>
   293ca:	0e28      	lsrs	r0, r5, #24
   293cc:	71a0      	strb	r0, [r4, #6]
   293ce:	0c28      	lsrs	r0, r5, #16
   293d0:	7160      	strb	r0, [r4, #5]
   293d2:	0a28      	lsrs	r0, r5, #8
   293d4:	7120      	strb	r0, [r4, #4]
   293d6:	70e5      	strb	r5, [r4, #3]
   293d8:	1de0      	adds	r0, r4, #7
   293da:	990b      	ldr	r1, [sp, #44]	@ 0x2c
   293dc:	4632      	mov	r2, r6
   293de:	f001 fe91 	bl	2b104 <__aeabi_memcpy>
   293e2:	4d05      	ldr	r5, [pc, #20]	@ (293f8 <_start+0x16fc>)
   293e4:	446d      	add	r5, sp
   293e6:	4628      	mov	r0, r5
   293e8:	4621      	mov	r1, r4
   293ea:	f7f9 f849 	bl	22480 <_ZN20complex_dynamic_type3app17h5a78d9a14593c788E>
   293ee:	7828      	ldrb	r0, [r5, #0]
   293f0:	2801      	cmp	r0, #1
   293f2:	d107      	bne.n	29404 <_start+0x1708>
   293f4:	f001 fc70 	bl	2acd8 <_start+0x2fdc>
   293f8:	00001404 	.word	0x00001404
   293fc:	00000674 	.word	0x00000674
   29400:	000013a8 	.word	0x000013a8
   29404:	4818      	ldr	r0, [pc, #96]	@ (29468 <_start+0x176c>)
   29406:	4468      	add	r0, sp
   29408:	78c1      	ldrb	r1, [r0, #3]
   2940a:	4c18      	ldr	r4, [pc, #96]	@ (2946c <_start+0x1770>)
   2940c:	446c      	add	r4, sp
   2940e:	70a1      	strb	r1, [r4, #2]
   29410:	7841      	ldrb	r1, [r0, #1]
   29412:	7882      	ldrb	r2, [r0, #2]
   29414:	0212      	lsls	r2, r2, #8
   29416:	1851      	adds	r1, r2, r1
   29418:	8021      	strh	r1, [r4, #0]
   2941a:	3008      	adds	r0, #8
   2941c:	9908      	ldr	r1, [sp, #32]
   2941e:	6e09      	ldr	r1, [r1, #96]	@ 0x60
   29420:	910a      	str	r1, [sp, #40]	@ 0x28
   29422:	4b13      	ldr	r3, [pc, #76]	@ (29470 <_start+0x1774>)
   29424:	446b      	add	r3, sp
   29426:	930b      	str	r3, [sp, #44]	@ 0x2c
   29428:	c864      	ldmia	r0!, {r2, r5, r6}
   2942a:	c364      	stmia	r3!, {r2, r5, r6}
   2942c:	c864      	ldmia	r0!, {r2, r5, r6}
   2942e:	c364      	stmia	r3!, {r2, r5, r6}
   29430:	c864      	ldmia	r0!, {r2, r5, r6}
   29432:	c364      	stmia	r3!, {r2, r5, r6}
   29434:	c866      	ldmia	r0!, {r1, r2, r5, r6}
   29436:	c366      	stmia	r3!, {r1, r2, r5, r6}
   29438:	990a      	ldr	r1, [sp, #40]	@ 0x28
   2943a:	0e08      	lsrs	r0, r1, #24
   2943c:	71a0      	strb	r0, [r4, #6]
   2943e:	0c08      	lsrs	r0, r1, #16
   29440:	7160      	strb	r0, [r4, #5]
   29442:	0a08      	lsrs	r0, r1, #8
   29444:	7120      	strb	r0, [r4, #4]
   29446:	70e1      	strb	r1, [r4, #3]
   29448:	1de0      	adds	r0, r4, #7
   2944a:	2234      	movs	r2, #52	@ 0x34
   2944c:	990b      	ldr	r1, [sp, #44]	@ 0x2c
   2944e:	f001 fe59 	bl	2b104 <__aeabi_memcpy>
   29452:	4d05      	ldr	r5, [pc, #20]	@ (29468 <_start+0x176c>)
   29454:	446d      	add	r5, sp
   29456:	4628      	mov	r0, r5
   29458:	4621      	mov	r1, r4
   2945a:	f7f9 f965 	bl	22728 <_ZN20complex_dynamic_type3app17h5ad3d42cb88f2766E>
   2945e:	7828      	ldrb	r0, [r5, #0]
   29460:	2801      	cmp	r0, #1
   29462:	d107      	bne.n	29474 <_start+0x1778>
   29464:	f001 fc38 	bl	2acd8 <_start+0x2fdc>
   29468:	00001404 	.word	0x00001404
   2946c:	000006c4 	.word	0x000006c4
   29470:	000013a8 	.word	0x000013a8
   29474:	4816      	ldr	r0, [pc, #88]	@ (294d0 <_start+0x17d4>)
   29476:	4468      	add	r0, sp
   29478:	78c1      	ldrb	r1, [r0, #3]
   2947a:	4c16      	ldr	r4, [pc, #88]	@ (294d4 <_start+0x17d8>)
   2947c:	446c      	add	r4, sp
   2947e:	70a1      	strb	r1, [r4, #2]
   29480:	7841      	ldrb	r1, [r0, #1]
   29482:	7882      	ldrb	r2, [r0, #2]
   29484:	0212      	lsls	r2, r2, #8
   29486:	1851      	adds	r1, r2, r1
   29488:	8021      	strh	r1, [r4, #0]
   2948a:	3008      	adds	r0, #8
   2948c:	9908      	ldr	r1, [sp, #32]
   2948e:	6e09      	ldr	r1, [r1, #96]	@ 0x60
   29490:	910a      	str	r1, [sp, #40]	@ 0x28
   29492:	4b11      	ldr	r3, [pc, #68]	@ (294d8 <_start+0x17dc>)
   29494:	446b      	add	r3, sp
   29496:	930b      	str	r3, [sp, #44]	@ 0x2c
   29498:	c866      	ldmia	r0!, {r1, r2, r5, r6}
   2949a:	c366      	stmia	r3!, {r1, r2, r5, r6}
   2949c:	c866      	ldmia	r0!, {r1, r2, r5, r6}
   2949e:	c366      	stmia	r3!, {r1, r2, r5, r6}
   294a0:	990a      	ldr	r1, [sp, #40]	@ 0x28
   294a2:	0e08      	lsrs	r0, r1, #24
   294a4:	71a0      	strb	r0, [r4, #6]
   294a6:	0c08      	lsrs	r0, r1, #16
   294a8:	7160      	strb	r0, [r4, #5]
   294aa:	0a08      	lsrs	r0, r1, #8
   294ac:	7120      	strb	r0, [r4, #4]
   294ae:	70e1      	strb	r1, [r4, #3]
   294b0:	1de0      	adds	r0, r4, #7
   294b2:	2220      	movs	r2, #32
   294b4:	990b      	ldr	r1, [sp, #44]	@ 0x2c
   294b6:	f001 fe25 	bl	2b104 <__aeabi_memcpy>
   294ba:	4d05      	ldr	r5, [pc, #20]	@ (294d0 <_start+0x17d4>)
   294bc:	446d      	add	r5, sp
   294be:	4628      	mov	r0, r5
   294c0:	4621      	mov	r1, r4
   294c2:	f7f7 fdfd 	bl	210c0 <_ZN20complex_dynamic_type3app17h2aaf408f17f52fc8E>
   294c6:	7828      	ldrb	r0, [r5, #0]
   294c8:	2801      	cmp	r0, #1
   294ca:	d107      	bne.n	294dc <_start+0x17e0>
   294cc:	f001 fc04 	bl	2acd8 <_start+0x2fdc>
   294d0:	00001404 	.word	0x00001404
   294d4:	00000700 	.word	0x00000700
   294d8:	000013a8 	.word	0x000013a8
   294dc:	4915      	ldr	r1, [pc, #84]	@ (29534 <_start+0x1838>)
   294de:	4469      	add	r1, sp
   294e0:	9d08      	ldr	r5, [sp, #32]
   294e2:	6f28      	ldr	r0, [r5, #112]	@ 0x70
   294e4:	7308      	strb	r0, [r1, #12]
   294e6:	4814      	ldr	r0, [pc, #80]	@ (29538 <_start+0x183c>)
   294e8:	4468      	add	r0, sp
   294ea:	78c2      	ldrb	r2, [r0, #3]
   294ec:	4c13      	ldr	r4, [pc, #76]	@ (2953c <_start+0x1840>)
   294ee:	446c      	add	r4, sp
   294f0:	70a2      	strb	r2, [r4, #2]
   294f2:	7842      	ldrb	r2, [r0, #1]
   294f4:	7880      	ldrb	r0, [r0, #2]
   294f6:	0200      	lsls	r0, r0, #8
   294f8:	1880      	adds	r0, r0, r2
   294fa:	8020      	strh	r0, [r4, #0]
   294fc:	6e28      	ldr	r0, [r5, #96]	@ 0x60
   294fe:	70e0      	strb	r0, [r4, #3]
   29500:	0e02      	lsrs	r2, r0, #24
   29502:	71a2      	strb	r2, [r4, #6]
   29504:	0c02      	lsrs	r2, r0, #16
   29506:	7162      	strb	r2, [r4, #5]
   29508:	0a00      	lsrs	r0, r0, #8
   2950a:	7120      	strb	r0, [r4, #4]
   2950c:	462b      	mov	r3, r5
   2950e:	3364      	adds	r3, #100	@ 0x64
   29510:	cb0d      	ldmia	r3, {r0, r2, r3}
   29512:	c50d      	stmia	r5!, {r0, r2, r3}
   29514:	1de0      	adds	r0, r4, #7
   29516:	220d      	movs	r2, #13
   29518:	f001 fdf4 	bl	2b104 <__aeabi_memcpy>
   2951c:	4d06      	ldr	r5, [pc, #24]	@ (29538 <_start+0x183c>)
   2951e:	446d      	add	r5, sp
   29520:	4628      	mov	r0, r5
   29522:	4621      	mov	r1, r4
   29524:	f7fb fcda 	bl	24edc <_ZN20complex_dynamic_type3app17h9f2cdde1bfd8d7ffE>
   29528:	7828      	ldrb	r0, [r5, #0]
   2952a:	2801      	cmp	r0, #1
   2952c:	d108      	bne.n	29540 <_start+0x1844>
   2952e:	f001 fbd3 	bl	2acd8 <_start+0x2fdc>
   29532:	46c0      	nop			@ (mov r8, r8)
   29534:	000013a8 	.word	0x000013a8
   29538:	00001404 	.word	0x00001404
   2953c:	00000728 	.word	0x00000728
   29540:	4816      	ldr	r0, [pc, #88]	@ (2959c <_start+0x18a0>)
   29542:	4468      	add	r0, sp
   29544:	78c1      	ldrb	r1, [r0, #3]
   29546:	4c16      	ldr	r4, [pc, #88]	@ (295a0 <_start+0x18a4>)
   29548:	446c      	add	r4, sp
   2954a:	70a1      	strb	r1, [r4, #2]
   2954c:	7841      	ldrb	r1, [r0, #1]
   2954e:	7882      	ldrb	r2, [r0, #2]
   29550:	0212      	lsls	r2, r2, #8
   29552:	1851      	adds	r1, r2, r1
   29554:	8021      	strh	r1, [r4, #0]
   29556:	3008      	adds	r0, #8
   29558:	9908      	ldr	r1, [sp, #32]
   2955a:	6e09      	ldr	r1, [r1, #96]	@ 0x60
   2955c:	4b11      	ldr	r3, [pc, #68]	@ (295a4 <_start+0x18a8>)
   2955e:	446b      	add	r3, sp
   29560:	930b      	str	r3, [sp, #44]	@ 0x2c
   29562:	c864      	ldmia	r0!, {r2, r5, r6}
   29564:	c364      	stmia	r3!, {r2, r5, r6}
   29566:	c864      	ldmia	r0!, {r2, r5, r6}
   29568:	c364      	stmia	r3!, {r2, r5, r6}
   2956a:	c864      	ldmia	r0!, {r2, r5, r6}
   2956c:	c364      	stmia	r3!, {r2, r5, r6}
   2956e:	0e08      	lsrs	r0, r1, #24
   29570:	71a0      	strb	r0, [r4, #6]
   29572:	0c08      	lsrs	r0, r1, #16
   29574:	7160      	strb	r0, [r4, #5]
   29576:	0a08      	lsrs	r0, r1, #8
   29578:	7120      	strb	r0, [r4, #4]
   2957a:	70e1      	strb	r1, [r4, #3]
   2957c:	1de0      	adds	r0, r4, #7
   2957e:	2224      	movs	r2, #36	@ 0x24
   29580:	990b      	ldr	r1, [sp, #44]	@ 0x2c
   29582:	f001 fdbf 	bl	2b104 <__aeabi_memcpy>
   29586:	4d05      	ldr	r5, [pc, #20]	@ (2959c <_start+0x18a0>)
   29588:	446d      	add	r5, sp
   2958a:	4628      	mov	r0, r5
   2958c:	4621      	mov	r1, r4
   2958e:	f7fb fea1 	bl	252d4 <_ZN20complex_dynamic_type3app17ha83509a6ebf5c15fE>
   29592:	7828      	ldrb	r0, [r5, #0]
   29594:	2801      	cmp	r0, #1
   29596:	d107      	bne.n	295a8 <_start+0x18ac>
   29598:	f001 fb9e 	bl	2acd8 <_start+0x2fdc>
   2959c:	00001404 	.word	0x00001404
   295a0:	0000073c 	.word	0x0000073c
   295a4:	000013a8 	.word	0x000013a8
   295a8:	4817      	ldr	r0, [pc, #92]	@ (29608 <_start+0x190c>)
   295aa:	4468      	add	r0, sp
   295ac:	78c1      	ldrb	r1, [r0, #3]
   295ae:	4c17      	ldr	r4, [pc, #92]	@ (2960c <_start+0x1910>)
   295b0:	446c      	add	r4, sp
   295b2:	70a1      	strb	r1, [r4, #2]
   295b4:	7841      	ldrb	r1, [r0, #1]
   295b6:	7882      	ldrb	r2, [r0, #2]
   295b8:	0212      	lsls	r2, r2, #8
   295ba:	1851      	adds	r1, r2, r1
   295bc:	8021      	strh	r1, [r4, #0]
   295be:	3008      	adds	r0, #8
   295c0:	9908      	ldr	r1, [sp, #32]
   295c2:	6e09      	ldr	r1, [r1, #96]	@ 0x60
   295c4:	4b12      	ldr	r3, [pc, #72]	@ (29610 <_start+0x1914>)
   295c6:	446b      	add	r3, sp
   295c8:	930b      	str	r3, [sp, #44]	@ 0x2c
   295ca:	c860      	ldmia	r0!, {r5, r6}
   295cc:	c360      	stmia	r3!, {r5, r6}
   295ce:	c864      	ldmia	r0!, {r2, r5, r6}
   295d0:	c364      	stmia	r3!, {r2, r5, r6}
   295d2:	8802      	ldrh	r2, [r0, #0]
   295d4:	801a      	strh	r2, [r3, #0]
   295d6:	7880      	ldrb	r0, [r0, #2]
   295d8:	7098      	strb	r0, [r3, #2]
   295da:	0e08      	lsrs	r0, r1, #24
   295dc:	71a0      	strb	r0, [r4, #6]
   295de:	0c08      	lsrs	r0, r1, #16
   295e0:	7160      	strb	r0, [r4, #5]
   295e2:	0a08      	lsrs	r0, r1, #8
   295e4:	7120      	strb	r0, [r4, #4]
   295e6:	70e1      	strb	r1, [r4, #3]
   295e8:	1de0      	adds	r0, r4, #7
   295ea:	2217      	movs	r2, #23
   295ec:	990b      	ldr	r1, [sp, #44]	@ 0x2c
   295ee:	f001 fd89 	bl	2b104 <__aeabi_memcpy>
   295f2:	4d05      	ldr	r5, [pc, #20]	@ (29608 <_start+0x190c>)
   295f4:	446d      	add	r5, sp
   295f6:	4628      	mov	r0, r5
   295f8:	4621      	mov	r1, r4
   295fa:	f7f7 f8bf 	bl	2077c <_ZN20complex_dynamic_type3app17h132e88f935babb9aE>
   295fe:	7828      	ldrb	r0, [r5, #0]
   29600:	2801      	cmp	r0, #1
   29602:	d107      	bne.n	29614 <_start+0x1918>
   29604:	f001 fb68 	bl	2acd8 <_start+0x2fdc>
   29608:	00001404 	.word	0x00001404
   2960c:	00000768 	.word	0x00000768
   29610:	000013a8 	.word	0x000013a8
   29614:	4915      	ldr	r1, [pc, #84]	@ (2966c <_start+0x1970>)
   29616:	4469      	add	r1, sp
   29618:	78c8      	ldrb	r0, [r1, #3]
   2961a:	4c15      	ldr	r4, [pc, #84]	@ (29670 <_start+0x1974>)
   2961c:	446c      	add	r4, sp
   2961e:	70a0      	strb	r0, [r4, #2]
   29620:	7848      	ldrb	r0, [r1, #1]
   29622:	788a      	ldrb	r2, [r1, #2]
   29624:	0212      	lsls	r2, r2, #8
   29626:	1810      	adds	r0, r2, r0
   29628:	8020      	strh	r0, [r4, #0]
   2962a:	9808      	ldr	r0, [sp, #32]
   2962c:	6e05      	ldr	r5, [r0, #96]	@ 0x60
   2962e:	3108      	adds	r1, #8
   29630:	4810      	ldr	r0, [pc, #64]	@ (29674 <_start+0x1978>)
   29632:	4468      	add	r0, sp
   29634:	900b      	str	r0, [sp, #44]	@ 0x2c
   29636:	264a      	movs	r6, #74	@ 0x4a
   29638:	4632      	mov	r2, r6
   2963a:	f001 fc03 	bl	2ae44 <__aeabi_memcpy4>
   2963e:	0e28      	lsrs	r0, r5, #24
   29640:	71a0      	strb	r0, [r4, #6]
   29642:	0c28      	lsrs	r0, r5, #16
   29644:	7160      	strb	r0, [r4, #5]
   29646:	0a28      	lsrs	r0, r5, #8
   29648:	7120      	strb	r0, [r4, #4]
   2964a:	70e5      	strb	r5, [r4, #3]
   2964c:	1de0      	adds	r0, r4, #7
   2964e:	990b      	ldr	r1, [sp, #44]	@ 0x2c
   29650:	4632      	mov	r2, r6
   29652:	f001 fd57 	bl	2b104 <__aeabi_memcpy>
   29656:	4d05      	ldr	r5, [pc, #20]	@ (2966c <_start+0x1970>)
   29658:	446d      	add	r5, sp
   2965a:	4628      	mov	r0, r5
   2965c:	4621      	mov	r1, r4
   2965e:	f7fb f847 	bl	246f0 <_ZN20complex_dynamic_type3app17h8d786004eab4ef03E>
   29662:	7828      	ldrb	r0, [r5, #0]
   29664:	2801      	cmp	r0, #1
   29666:	d107      	bne.n	29678 <_start+0x197c>
   29668:	f001 fb36 	bl	2acd8 <_start+0x2fdc>
   2966c:	00001404 	.word	0x00001404
   29670:	00000788 	.word	0x00000788
   29674:	000013a8 	.word	0x000013a8
   29678:	9804      	ldr	r0, [sp, #16]
   2967a:	1cc0      	adds	r0, r0, #3
   2967c:	4a16      	ldr	r2, [pc, #88]	@ (296d8 <_start+0x19dc>)
   2967e:	446a      	add	r2, sp
   29680:	78d3      	ldrb	r3, [r2, #3]
   29682:	4916      	ldr	r1, [pc, #88]	@ (296dc <_start+0x19e0>)
   29684:	4469      	add	r1, sp
   29686:	708b      	strb	r3, [r1, #2]
   29688:	7853      	ldrb	r3, [r2, #1]
   2968a:	7892      	ldrb	r2, [r2, #2]
   2968c:	0212      	lsls	r2, r2, #8
   2968e:	18d2      	adds	r2, r2, r3
   29690:	800a      	strh	r2, [r1, #0]
   29692:	9c08      	ldr	r4, [sp, #32]
   29694:	3460      	adds	r4, #96	@ 0x60
   29696:	cc1c      	ldmia	r4, {r2, r3, r4}
   29698:	0e25      	lsrs	r5, r4, #24
   2969a:	72c5      	strb	r5, [r0, #11]
   2969c:	0c25      	lsrs	r5, r4, #16
   2969e:	7285      	strb	r5, [r0, #10]
   296a0:	0a25      	lsrs	r5, r4, #8
   296a2:	7245      	strb	r5, [r0, #9]
   296a4:	7204      	strb	r4, [r0, #8]
   296a6:	0e1c      	lsrs	r4, r3, #24
   296a8:	71c4      	strb	r4, [r0, #7]
   296aa:	0c1c      	lsrs	r4, r3, #16
   296ac:	7184      	strb	r4, [r0, #6]
   296ae:	0a1c      	lsrs	r4, r3, #8
   296b0:	7144      	strb	r4, [r0, #5]
   296b2:	7103      	strb	r3, [r0, #4]
   296b4:	0e13      	lsrs	r3, r2, #24
   296b6:	70c3      	strb	r3, [r0, #3]
   296b8:	0c13      	lsrs	r3, r2, #16
   296ba:	7083      	strb	r3, [r0, #2]
   296bc:	0a13      	lsrs	r3, r2, #8
   296be:	7043      	strb	r3, [r0, #1]
   296c0:	7002      	strb	r2, [r0, #0]
   296c2:	4c05      	ldr	r4, [pc, #20]	@ (296d8 <_start+0x19dc>)
   296c4:	446c      	add	r4, sp
   296c6:	4620      	mov	r0, r4
   296c8:	f7fb feac 	bl	25424 <_ZN20complex_dynamic_type3app17haa0096d31300bf9aE>
   296cc:	7820      	ldrb	r0, [r4, #0]
   296ce:	2801      	cmp	r0, #1
   296d0:	d106      	bne.n	296e0 <_start+0x19e4>
   296d2:	f001 fb01 	bl	2acd8 <_start+0x2fdc>
   296d6:	46c0      	nop			@ (mov r8, r8)
   296d8:	00001404 	.word	0x00001404
   296dc:	000007dc 	.word	0x000007dc
   296e0:	481a      	ldr	r0, [pc, #104]	@ (2974c <_start+0x1a50>)
   296e2:	4468      	add	r0, sp
   296e4:	78c1      	ldrb	r1, [r0, #3]
   296e6:	4c1a      	ldr	r4, [pc, #104]	@ (29750 <_start+0x1a54>)
   296e8:	446c      	add	r4, sp
   296ea:	70a1      	strb	r1, [r4, #2]
   296ec:	7841      	ldrb	r1, [r0, #1]
   296ee:	7882      	ldrb	r2, [r0, #2]
   296f0:	0212      	lsls	r2, r2, #8
   296f2:	1851      	adds	r1, r2, r1
   296f4:	8021      	strh	r1, [r4, #0]
   296f6:	3008      	adds	r0, #8
   296f8:	9908      	ldr	r1, [sp, #32]
   296fa:	6e09      	ldr	r1, [r1, #96]	@ 0x60
   296fc:	910a      	str	r1, [sp, #40]	@ 0x28
   296fe:	4b15      	ldr	r3, [pc, #84]	@ (29754 <_start+0x1a58>)
   29700:	446b      	add	r3, sp
   29702:	930b      	str	r3, [sp, #44]	@ 0x2c
   29704:	c864      	ldmia	r0!, {r2, r5, r6}
   29706:	c364      	stmia	r3!, {r2, r5, r6}
   29708:	c866      	ldmia	r0!, {r1, r2, r5, r6}
   2970a:	c366      	stmia	r3!, {r1, r2, r5, r6}
   2970c:	c866      	ldmia	r0!, {r1, r2, r5, r6}
   2970e:	c366      	stmia	r3!, {r1, r2, r5, r6}
   29710:	c866      	ldmia	r0!, {r1, r2, r5, r6}
   29712:	c366      	stmia	r3!, {r1, r2, r5, r6}
   29714:	8801      	ldrh	r1, [r0, #0]
   29716:	8019      	strh	r1, [r3, #0]
   29718:	7880      	ldrb	r0, [r0, #2]
   2971a:	7098      	strb	r0, [r3, #2]
   2971c:	990a      	ldr	r1, [sp, #40]	@ 0x28
   2971e:	0e08      	lsrs	r0, r1, #24
   29720:	71a0      	strb	r0, [r4, #6]
   29722:	0c08      	lsrs	r0, r1, #16
   29724:	7160      	strb	r0, [r4, #5]
   29726:	0a08      	lsrs	r0, r1, #8
   29728:	7120      	strb	r0, [r4, #4]
   2972a:	70e1      	strb	r1, [r4, #3]
   2972c:	1de0      	adds	r0, r4, #7
   2972e:	223f      	movs	r2, #63	@ 0x3f
   29730:	990b      	ldr	r1, [sp, #44]	@ 0x2c
   29732:	f001 fce7 	bl	2b104 <__aeabi_memcpy>
   29736:	4d05      	ldr	r5, [pc, #20]	@ (2974c <_start+0x1a50>)
   29738:	446d      	add	r5, sp
   2973a:	4628      	mov	r0, r5
   2973c:	4621      	mov	r1, r4
   2973e:	f7f8 fd4b 	bl	221d8 <_ZN20complex_dynamic_type3app17h4b66a6198c3179d8E>
   29742:	7828      	ldrb	r0, [r5, #0]
   29744:	2801      	cmp	r0, #1
   29746:	d107      	bne.n	29758 <_start+0x1a5c>
   29748:	f001 fac6 	bl	2acd8 <_start+0x2fdc>
   2974c:	00001404 	.word	0x00001404
   29750:	000007ec 	.word	0x000007ec
   29754:	000013a8 	.word	0x000013a8
   29758:	4915      	ldr	r1, [pc, #84]	@ (297b0 <_start+0x1ab4>)
   2975a:	4469      	add	r1, sp
   2975c:	78c8      	ldrb	r0, [r1, #3]
   2975e:	4c15      	ldr	r4, [pc, #84]	@ (297b4 <_start+0x1ab8>)
   29760:	446c      	add	r4, sp
   29762:	70a0      	strb	r0, [r4, #2]
   29764:	7848      	ldrb	r0, [r1, #1]
   29766:	788a      	ldrb	r2, [r1, #2]
   29768:	0212      	lsls	r2, r2, #8
   2976a:	1810      	adds	r0, r2, r0
   2976c:	8020      	strh	r0, [r4, #0]
   2976e:	9808      	ldr	r0, [sp, #32]
   29770:	6e05      	ldr	r5, [r0, #96]	@ 0x60
   29772:	3108      	adds	r1, #8
   29774:	4810      	ldr	r0, [pc, #64]	@ (297b8 <_start+0x1abc>)
   29776:	4468      	add	r0, sp
   29778:	900b      	str	r0, [sp, #44]	@ 0x2c
   2977a:	264f      	movs	r6, #79	@ 0x4f
   2977c:	4632      	mov	r2, r6
   2977e:	f001 fb61 	bl	2ae44 <__aeabi_memcpy4>
   29782:	0e28      	lsrs	r0, r5, #24
   29784:	71a0      	strb	r0, [r4, #6]
   29786:	0c28      	lsrs	r0, r5, #16
   29788:	7160      	strb	r0, [r4, #5]
   2978a:	0a28      	lsrs	r0, r5, #8
   2978c:	7120      	strb	r0, [r4, #4]
   2978e:	70e5      	strb	r5, [r4, #3]
   29790:	1de0      	adds	r0, r4, #7
   29792:	990b      	ldr	r1, [sp, #44]	@ 0x2c
   29794:	4632      	mov	r2, r6
   29796:	f001 fcb5 	bl	2b104 <__aeabi_memcpy>
   2979a:	4d05      	ldr	r5, [pc, #20]	@ (297b0 <_start+0x1ab4>)
   2979c:	446d      	add	r5, sp
   2979e:	4628      	mov	r0, r5
   297a0:	4621      	mov	r1, r4
   297a2:	f7f7 fd35 	bl	21210 <_ZN20complex_dynamic_type3app17h32c43dcc0c278d61E>
   297a6:	7828      	ldrb	r0, [r5, #0]
   297a8:	2801      	cmp	r0, #1
   297aa:	d107      	bne.n	297bc <_start+0x1ac0>
   297ac:	f001 fa94 	bl	2acd8 <_start+0x2fdc>
   297b0:	00001404 	.word	0x00001404
   297b4:	00000834 	.word	0x00000834
   297b8:	000013a8 	.word	0x000013a8
   297bc:	4915      	ldr	r1, [pc, #84]	@ (29814 <_start+0x1b18>)
   297be:	4469      	add	r1, sp
   297c0:	78c8      	ldrb	r0, [r1, #3]
   297c2:	4c15      	ldr	r4, [pc, #84]	@ (29818 <_start+0x1b1c>)
   297c4:	446c      	add	r4, sp
   297c6:	70a0      	strb	r0, [r4, #2]
   297c8:	7848      	ldrb	r0, [r1, #1]
   297ca:	788a      	ldrb	r2, [r1, #2]
   297cc:	0212      	lsls	r2, r2, #8
   297ce:	1810      	adds	r0, r2, r0
   297d0:	8020      	strh	r0, [r4, #0]
   297d2:	9808      	ldr	r0, [sp, #32]
   297d4:	6e05      	ldr	r5, [r0, #96]	@ 0x60
   297d6:	3108      	adds	r1, #8
   297d8:	4810      	ldr	r0, [pc, #64]	@ (2981c <_start+0x1b20>)
   297da:	4468      	add	r0, sp
   297dc:	900b      	str	r0, [sp, #44]	@ 0x2c
   297de:	2642      	movs	r6, #66	@ 0x42
   297e0:	4632      	mov	r2, r6
   297e2:	f001 fb2f 	bl	2ae44 <__aeabi_memcpy4>
   297e6:	0e28      	lsrs	r0, r5, #24
   297e8:	71a0      	strb	r0, [r4, #6]
   297ea:	0c28      	lsrs	r0, r5, #16
   297ec:	7160      	strb	r0, [r4, #5]
   297ee:	0a28      	lsrs	r0, r5, #8
   297f0:	7120      	strb	r0, [r4, #4]
   297f2:	70e5      	strb	r5, [r4, #3]
   297f4:	1de0      	adds	r0, r4, #7
   297f6:	990b      	ldr	r1, [sp, #44]	@ 0x2c
   297f8:	4632      	mov	r2, r6
   297fa:	f001 fc83 	bl	2b104 <__aeabi_memcpy>
   297fe:	4d05      	ldr	r5, [pc, #20]	@ (29814 <_start+0x1b18>)
   29800:	446d      	add	r5, sp
   29802:	4628      	mov	r0, r5
   29804:	4621      	mov	r1, r4
   29806:	f7f8 fa47 	bl	21c98 <_ZN20complex_dynamic_type3app17h4479d396fa9e33d3E>
   2980a:	7828      	ldrb	r0, [r5, #0]
   2980c:	2801      	cmp	r0, #1
   2980e:	d107      	bne.n	29820 <_start+0x1b24>
   29810:	f001 fa62 	bl	2acd8 <_start+0x2fdc>
   29814:	00001404 	.word	0x00001404
   29818:	0000088c 	.word	0x0000088c
   2981c:	000013a8 	.word	0x000013a8
   29820:	4816      	ldr	r0, [pc, #88]	@ (2987c <_start+0x1b80>)
   29822:	4468      	add	r0, sp
   29824:	78c1      	ldrb	r1, [r0, #3]
   29826:	4c16      	ldr	r4, [pc, #88]	@ (29880 <_start+0x1b84>)
   29828:	446c      	add	r4, sp
   2982a:	70a1      	strb	r1, [r4, #2]
   2982c:	7841      	ldrb	r1, [r0, #1]
   2982e:	7882      	ldrb	r2, [r0, #2]
   29830:	0212      	lsls	r2, r2, #8
   29832:	1851      	adds	r1, r2, r1
   29834:	8021      	strh	r1, [r4, #0]
   29836:	3008      	adds	r0, #8
   29838:	9908      	ldr	r1, [sp, #32]
   2983a:	6e09      	ldr	r1, [r1, #96]	@ 0x60
   2983c:	910a      	str	r1, [sp, #40]	@ 0x28
   2983e:	4b11      	ldr	r3, [pc, #68]	@ (29884 <_start+0x1b88>)
   29840:	446b      	add	r3, sp
   29842:	930b      	str	r3, [sp, #44]	@ 0x2c
   29844:	c864      	ldmia	r0!, {r2, r5, r6}
   29846:	c364      	stmia	r3!, {r2, r5, r6}
   29848:	c866      	ldmia	r0!, {r1, r2, r5, r6}
   2984a:	c366      	stmia	r3!, {r1, r2, r5, r6}
   2984c:	990a      	ldr	r1, [sp, #40]	@ 0x28
   2984e:	0e08      	lsrs	r0, r1, #24
   29850:	71a0      	strb	r0, [r4, #6]
   29852:	0c08      	lsrs	r0, r1, #16
   29854:	7160      	strb	r0, [r4, #5]
   29856:	0a08      	lsrs	r0, r1, #8
   29858:	7120      	strb	r0, [r4, #4]
   2985a:	70e1      	strb	r1, [r4, #3]
   2985c:	1de0      	adds	r0, r4, #7
   2985e:	221c      	movs	r2, #28
   29860:	990b      	ldr	r1, [sp, #44]	@ 0x2c
   29862:	f001 fc4f 	bl	2b104 <__aeabi_memcpy>
   29866:	4d05      	ldr	r5, [pc, #20]	@ (2987c <_start+0x1b80>)
   29868:	446d      	add	r5, sp
   2986a:	4628      	mov	r0, r5
   2986c:	4621      	mov	r1, r4
   2986e:	f7f8 fd5b 	bl	22328 <_ZN20complex_dynamic_type3app17h51af787c251bfdcbE>
   29872:	7828      	ldrb	r0, [r5, #0]
   29874:	2801      	cmp	r0, #1
   29876:	d107      	bne.n	29888 <_start+0x1b8c>
   29878:	f001 fa2e 	bl	2acd8 <_start+0x2fdc>
   2987c:	00001404 	.word	0x00001404
   29880:	000008d8 	.word	0x000008d8
   29884:	000013a8 	.word	0x000013a8
   29888:	4816      	ldr	r0, [pc, #88]	@ (298e4 <_start+0x1be8>)
   2988a:	4468      	add	r0, sp
   2988c:	78c1      	ldrb	r1, [r0, #3]
   2988e:	4c16      	ldr	r4, [pc, #88]	@ (298e8 <_start+0x1bec>)
   29890:	446c      	add	r4, sp
   29892:	70a1      	strb	r1, [r4, #2]
   29894:	7841      	ldrb	r1, [r0, #1]
   29896:	7882      	ldrb	r2, [r0, #2]
   29898:	0212      	lsls	r2, r2, #8
   2989a:	1851      	adds	r1, r2, r1
   2989c:	8021      	strh	r1, [r4, #0]
   2989e:	3008      	adds	r0, #8
   298a0:	9908      	ldr	r1, [sp, #32]
   298a2:	6e09      	ldr	r1, [r1, #96]	@ 0x60
   298a4:	4b11      	ldr	r3, [pc, #68]	@ (298ec <_start+0x1bf0>)
   298a6:	446b      	add	r3, sp
   298a8:	930b      	str	r3, [sp, #44]	@ 0x2c
   298aa:	c864      	ldmia	r0!, {r2, r5, r6}
   298ac:	c364      	stmia	r3!, {r2, r5, r6}
   298ae:	c864      	ldmia	r0!, {r2, r5, r6}
   298b0:	c364      	stmia	r3!, {r2, r5, r6}
   298b2:	c864      	ldmia	r0!, {r2, r5, r6}
   298b4:	c364      	stmia	r3!, {r2, r5, r6}
   298b6:	0e08      	lsrs	r0, r1, #24
   298b8:	71a0      	strb	r0, [r4, #6]
   298ba:	0c08      	lsrs	r0, r1, #16
   298bc:	7160      	strb	r0, [r4, #5]
   298be:	0a08      	lsrs	r0, r1, #8
   298c0:	7120      	strb	r0, [r4, #4]
   298c2:	70e1      	strb	r1, [r4, #3]
   298c4:	1de0      	adds	r0, r4, #7
   298c6:	2224      	movs	r2, #36	@ 0x24
   298c8:	990b      	ldr	r1, [sp, #44]	@ 0x2c
   298ca:	f001 fc1b 	bl	2b104 <__aeabi_memcpy>
   298ce:	4d05      	ldr	r5, [pc, #20]	@ (298e4 <_start+0x1be8>)
   298d0:	446d      	add	r5, sp
   298d2:	4628      	mov	r0, r5
   298d4:	4621      	mov	r1, r4
   298d6:	f7f8 ffcf 	bl	22878 <_ZN20complex_dynamic_type3app17h5aeb06010bca3cf7E>
   298da:	7828      	ldrb	r0, [r5, #0]
   298dc:	2801      	cmp	r0, #1
   298de:	d107      	bne.n	298f0 <_start+0x1bf4>
   298e0:	f001 f9fa 	bl	2acd8 <_start+0x2fdc>
   298e4:	00001404 	.word	0x00001404
   298e8:	000008fc 	.word	0x000008fc
   298ec:	000013a8 	.word	0x000013a8
   298f0:	4914      	ldr	r1, [pc, #80]	@ (29944 <_start+0x1c48>)
   298f2:	4469      	add	r1, sp
   298f4:	9b08      	ldr	r3, [sp, #32]
   298f6:	6e98      	ldr	r0, [r3, #104]	@ 0x68
   298f8:	8088      	strh	r0, [r1, #4]
   298fa:	4813      	ldr	r0, [pc, #76]	@ (29948 <_start+0x1c4c>)
   298fc:	4468      	add	r0, sp
   298fe:	78c2      	ldrb	r2, [r0, #3]
   29900:	4c12      	ldr	r4, [pc, #72]	@ (2994c <_start+0x1c50>)
   29902:	446c      	add	r4, sp
   29904:	70a2      	strb	r2, [r4, #2]
   29906:	7842      	ldrb	r2, [r0, #1]
   29908:	7880      	ldrb	r0, [r0, #2]
   2990a:	0200      	lsls	r0, r0, #8
   2990c:	1880      	adds	r0, r0, r2
   2990e:	8020      	strh	r0, [r4, #0]
   29910:	6e18      	ldr	r0, [r3, #96]	@ 0x60
   29912:	70e0      	strb	r0, [r4, #3]
   29914:	0e02      	lsrs	r2, r0, #24
   29916:	71a2      	strb	r2, [r4, #6]
   29918:	0c02      	lsrs	r2, r0, #16
   2991a:	7162      	strb	r2, [r4, #5]
   2991c:	0a00      	lsrs	r0, r0, #8
   2991e:	7120      	strb	r0, [r4, #4]
   29920:	6e58      	ldr	r0, [r3, #100]	@ 0x64
   29922:	6018      	str	r0, [r3, #0]
   29924:	1de0      	adds	r0, r4, #7
   29926:	2206      	movs	r2, #6
   29928:	f001 fbec 	bl	2b104 <__aeabi_memcpy>
   2992c:	4d06      	ldr	r5, [pc, #24]	@ (29948 <_start+0x1c4c>)
   2992e:	446d      	add	r5, sp
   29930:	4628      	mov	r0, r5
   29932:	4621      	mov	r1, r4
   29934:	f7fc fc0c 	bl	26150 <_ZN20complex_dynamic_type3app17hc8428d7d17a52a0eE>
   29938:	7828      	ldrb	r0, [r5, #0]
   2993a:	2801      	cmp	r0, #1
   2993c:	d108      	bne.n	29950 <_start+0x1c54>
   2993e:	f001 f9cb 	bl	2acd8 <_start+0x2fdc>
   29942:	46c0      	nop			@ (mov r8, r8)
   29944:	000013a8 	.word	0x000013a8
   29948:	00001404 	.word	0x00001404
   2994c:	00000928 	.word	0x00000928
   29950:	4816      	ldr	r0, [pc, #88]	@ (299ac <_start+0x1cb0>)
   29952:	4468      	add	r0, sp
   29954:	78c1      	ldrb	r1, [r0, #3]
   29956:	4c16      	ldr	r4, [pc, #88]	@ (299b0 <_start+0x1cb4>)
   29958:	446c      	add	r4, sp
   2995a:	70a1      	strb	r1, [r4, #2]
   2995c:	7841      	ldrb	r1, [r0, #1]
   2995e:	7882      	ldrb	r2, [r0, #2]
   29960:	0212      	lsls	r2, r2, #8
   29962:	1851      	adds	r1, r2, r1
   29964:	8021      	strh	r1, [r4, #0]
   29966:	3008      	adds	r0, #8
   29968:	9908      	ldr	r1, [sp, #32]
   2996a:	6e09      	ldr	r1, [r1, #96]	@ 0x60
   2996c:	4b11      	ldr	r3, [pc, #68]	@ (299b4 <_start+0x1cb8>)
   2996e:	446b      	add	r3, sp
   29970:	930b      	str	r3, [sp, #44]	@ 0x2c
   29972:	c864      	ldmia	r0!, {r2, r5, r6}
   29974:	c364      	stmia	r3!, {r2, r5, r6}
   29976:	c864      	ldmia	r0!, {r2, r5, r6}
   29978:	c364      	stmia	r3!, {r2, r5, r6}
   2997a:	8800      	ldrh	r0, [r0, #0]
   2997c:	8018      	strh	r0, [r3, #0]
   2997e:	0e08      	lsrs	r0, r1, #24
   29980:	71a0      	strb	r0, [r4, #6]
   29982:	0c08      	lsrs	r0, r1, #16
   29984:	7160      	strb	r0, [r4, #5]
   29986:	0a08      	lsrs	r0, r1, #8
   29988:	7120      	strb	r0, [r4, #4]
   2998a:	70e1      	strb	r1, [r4, #3]
   2998c:	1de0      	adds	r0, r4, #7
   2998e:	221a      	movs	r2, #26
   29990:	990b      	ldr	r1, [sp, #44]	@ 0x2c
   29992:	f001 fbb7 	bl	2b104 <__aeabi_memcpy>
   29996:	4d05      	ldr	r5, [pc, #20]	@ (299ac <_start+0x1cb0>)
   29998:	446d      	add	r5, sp
   2999a:	4628      	mov	r0, r5
   2999c:	4621      	mov	r1, r4
   2999e:	f7f9 fcb3 	bl	23308 <_ZN20complex_dynamic_type3app17h6b64354e0f80e3dfE>
   299a2:	7828      	ldrb	r0, [r5, #0]
   299a4:	2801      	cmp	r0, #1
   299a6:	d107      	bne.n	299b8 <_start+0x1cbc>
   299a8:	f001 f996 	bl	2acd8 <_start+0x2fdc>
   299ac:	00001404 	.word	0x00001404
   299b0:	00000938 	.word	0x00000938
   299b4:	000013a8 	.word	0x000013a8
   299b8:	4915      	ldr	r1, [pc, #84]	@ (29a10 <_start+0x1d14>)
   299ba:	4469      	add	r1, sp
   299bc:	78c8      	ldrb	r0, [r1, #3]
   299be:	4c15      	ldr	r4, [pc, #84]	@ (29a14 <_start+0x1d18>)
   299c0:	446c      	add	r4, sp
   299c2:	70a0      	strb	r0, [r4, #2]
   299c4:	7848      	ldrb	r0, [r1, #1]
   299c6:	788a      	ldrb	r2, [r1, #2]
   299c8:	0212      	lsls	r2, r2, #8
   299ca:	1810      	adds	r0, r2, r0
   299cc:	8020      	strh	r0, [r4, #0]
   299ce:	9808      	ldr	r0, [sp, #32]
   299d0:	6e05      	ldr	r5, [r0, #96]	@ 0x60
   299d2:	3108      	adds	r1, #8
   299d4:	4810      	ldr	r0, [pc, #64]	@ (29a18 <_start+0x1d1c>)
   299d6:	4468      	add	r0, sp
   299d8:	900b      	str	r0, [sp, #44]	@ 0x2c
   299da:	264c      	movs	r6, #76	@ 0x4c
   299dc:	4632      	mov	r2, r6
   299de:	f001 fa31 	bl	2ae44 <__aeabi_memcpy4>
   299e2:	0e28      	lsrs	r0, r5, #24
   299e4:	71a0      	strb	r0, [r4, #6]
   299e6:	0c28      	lsrs	r0, r5, #16
   299e8:	7160      	strb	r0, [r4, #5]
   299ea:	0a28      	lsrs	r0, r5, #8
   299ec:	7120      	strb	r0, [r4, #4]
   299ee:	70e5      	strb	r5, [r4, #3]
   299f0:	1de0      	adds	r0, r4, #7
   299f2:	990b      	ldr	r1, [sp, #44]	@ 0x2c
   299f4:	4632      	mov	r2, r6
   299f6:	f001 fb85 	bl	2b104 <__aeabi_memcpy>
   299fa:	4d05      	ldr	r5, [pc, #20]	@ (29a10 <_start+0x1d14>)
   299fc:	446d      	add	r5, sp
   299fe:	4628      	mov	r0, r5
   29a00:	4621      	mov	r1, r4
   29a02:	f7f9 f9d9 	bl	22db8 <_ZN20complex_dynamic_type3app17h6631807ca753ddf6E>
   29a06:	7828      	ldrb	r0, [r5, #0]
   29a08:	2801      	cmp	r0, #1
   29a0a:	d107      	bne.n	29a1c <_start+0x1d20>
   29a0c:	f001 f964 	bl	2acd8 <_start+0x2fdc>
   29a10:	00001404 	.word	0x00001404
   29a14:	0000095c 	.word	0x0000095c
   29a18:	000013a8 	.word	0x000013a8
   29a1c:	4915      	ldr	r1, [pc, #84]	@ (29a74 <_start+0x1d78>)
   29a1e:	4469      	add	r1, sp
   29a20:	78c8      	ldrb	r0, [r1, #3]
   29a22:	4c15      	ldr	r4, [pc, #84]	@ (29a78 <_start+0x1d7c>)
   29a24:	446c      	add	r4, sp
   29a26:	70a0      	strb	r0, [r4, #2]
   29a28:	7848      	ldrb	r0, [r1, #1]
   29a2a:	788a      	ldrb	r2, [r1, #2]
   29a2c:	0212      	lsls	r2, r2, #8
   29a2e:	1810      	adds	r0, r2, r0
   29a30:	8020      	strh	r0, [r4, #0]
   29a32:	9808      	ldr	r0, [sp, #32]
   29a34:	6e05      	ldr	r5, [r0, #96]	@ 0x60
   29a36:	3108      	adds	r1, #8
   29a38:	4810      	ldr	r0, [pc, #64]	@ (29a7c <_start+0x1d80>)
   29a3a:	4468      	add	r0, sp
   29a3c:	900b      	str	r0, [sp, #44]	@ 0x2c
   29a3e:	2646      	movs	r6, #70	@ 0x46
   29a40:	4632      	mov	r2, r6
   29a42:	f001 f9ff 	bl	2ae44 <__aeabi_memcpy4>
   29a46:	0e28      	lsrs	r0, r5, #24
   29a48:	71a0      	strb	r0, [r4, #6]
   29a4a:	0c28      	lsrs	r0, r5, #16
   29a4c:	7160      	strb	r0, [r4, #5]
   29a4e:	0a28      	lsrs	r0, r5, #8
   29a50:	7120      	strb	r0, [r4, #4]
   29a52:	70e5      	strb	r5, [r4, #3]
   29a54:	1de0      	adds	r0, r4, #7
   29a56:	990b      	ldr	r1, [sp, #44]	@ 0x2c
   29a58:	4632      	mov	r2, r6
   29a5a:	f001 fb53 	bl	2b104 <__aeabi_memcpy>
   29a5e:	4d05      	ldr	r5, [pc, #20]	@ (29a74 <_start+0x1d78>)
   29a60:	446d      	add	r5, sp
   29a62:	4628      	mov	r0, r5
   29a64:	4621      	mov	r1, r4
   29a66:	f7fc fc1b 	bl	262a0 <_ZN20complex_dynamic_type3app17hc871a0bae2ea7a4eE>
   29a6a:	7828      	ldrb	r0, [r5, #0]
   29a6c:	2801      	cmp	r0, #1
   29a6e:	d107      	bne.n	29a80 <_start+0x1d84>
   29a70:	f001 f932 	bl	2acd8 <_start+0x2fdc>
   29a74:	00001404 	.word	0x00001404
   29a78:	000009b0 	.word	0x000009b0
   29a7c:	000013a8 	.word	0x000013a8
   29a80:	4819      	ldr	r0, [pc, #100]	@ (29ae8 <_start+0x1dec>)
   29a82:	4468      	add	r0, sp
   29a84:	78c1      	ldrb	r1, [r0, #3]
   29a86:	4c19      	ldr	r4, [pc, #100]	@ (29aec <_start+0x1df0>)
   29a88:	446c      	add	r4, sp
   29a8a:	70a1      	strb	r1, [r4, #2]
   29a8c:	7841      	ldrb	r1, [r0, #1]
   29a8e:	7882      	ldrb	r2, [r0, #2]
   29a90:	0212      	lsls	r2, r2, #8
   29a92:	1851      	adds	r1, r2, r1
   29a94:	8021      	strh	r1, [r4, #0]
   29a96:	3008      	adds	r0, #8
   29a98:	9908      	ldr	r1, [sp, #32]
   29a9a:	6e09      	ldr	r1, [r1, #96]	@ 0x60
   29a9c:	910a      	str	r1, [sp, #40]	@ 0x28
   29a9e:	4b14      	ldr	r3, [pc, #80]	@ (29af0 <_start+0x1df4>)
   29aa0:	446b      	add	r3, sp
   29aa2:	930b      	str	r3, [sp, #44]	@ 0x2c
   29aa4:	c864      	ldmia	r0!, {r2, r5, r6}
   29aa6:	c364      	stmia	r3!, {r2, r5, r6}
   29aa8:	c864      	ldmia	r0!, {r2, r5, r6}
   29aaa:	c364      	stmia	r3!, {r2, r5, r6}
   29aac:	c864      	ldmia	r0!, {r2, r5, r6}
   29aae:	c364      	stmia	r3!, {r2, r5, r6}
   29ab0:	c866      	ldmia	r0!, {r1, r2, r5, r6}
   29ab2:	c366      	stmia	r3!, {r1, r2, r5, r6}
   29ab4:	7800      	ldrb	r0, [r0, #0]
   29ab6:	7018      	strb	r0, [r3, #0]
   29ab8:	990a      	ldr	r1, [sp, #40]	@ 0x28
   29aba:	0e08      	lsrs	r0, r1, #24
   29abc:	71a0      	strb	r0, [r4, #6]
   29abe:	0c08      	lsrs	r0, r1, #16
   29ac0:	7160      	strb	r0, [r4, #5]
   29ac2:	0a08      	lsrs	r0, r1, #8
   29ac4:	7120      	strb	r0, [r4, #4]
   29ac6:	70e1      	strb	r1, [r4, #3]
   29ac8:	1de0      	adds	r0, r4, #7
   29aca:	2235      	movs	r2, #53	@ 0x35
   29acc:	990b      	ldr	r1, [sp, #44]	@ 0x2c
   29ace:	f001 fb19 	bl	2b104 <__aeabi_memcpy>
   29ad2:	4d05      	ldr	r5, [pc, #20]	@ (29ae8 <_start+0x1dec>)
   29ad4:	446d      	add	r5, sp
   29ad6:	4628      	mov	r0, r5
   29ad8:	4621      	mov	r1, r4
   29ada:	f7f6 fb03 	bl	200e4 <_ZN20complex_dynamic_type3app17h09a615765a9eabb6E>
   29ade:	7828      	ldrb	r0, [r5, #0]
   29ae0:	2801      	cmp	r0, #1
   29ae2:	d107      	bne.n	29af4 <_start+0x1df8>
   29ae4:	f001 f8f8 	bl	2acd8 <_start+0x2fdc>
   29ae8:	00001404 	.word	0x00001404
   29aec:	00000a00 	.word	0x00000a00
   29af0:	000013a8 	.word	0x000013a8
   29af4:	4818      	ldr	r0, [pc, #96]	@ (29b58 <_start+0x1e5c>)
   29af6:	4468      	add	r0, sp
   29af8:	78c1      	ldrb	r1, [r0, #3]
   29afa:	4c18      	ldr	r4, [pc, #96]	@ (29b5c <_start+0x1e60>)
   29afc:	446c      	add	r4, sp
   29afe:	70a1      	strb	r1, [r4, #2]
   29b00:	7841      	ldrb	r1, [r0, #1]
   29b02:	7882      	ldrb	r2, [r0, #2]
   29b04:	0212      	lsls	r2, r2, #8
   29b06:	1851      	adds	r1, r2, r1
   29b08:	8021      	strh	r1, [r4, #0]
   29b0a:	3008      	adds	r0, #8
   29b0c:	9908      	ldr	r1, [sp, #32]
   29b0e:	6e09      	ldr	r1, [r1, #96]	@ 0x60
   29b10:	910a      	str	r1, [sp, #40]	@ 0x28
   29b12:	4b13      	ldr	r3, [pc, #76]	@ (29b60 <_start+0x1e64>)
   29b14:	446b      	add	r3, sp
   29b16:	930b      	str	r3, [sp, #44]	@ 0x2c
   29b18:	c866      	ldmia	r0!, {r1, r2, r5, r6}
   29b1a:	c366      	stmia	r3!, {r1, r2, r5, r6}
   29b1c:	c866      	ldmia	r0!, {r1, r2, r5, r6}
   29b1e:	c366      	stmia	r3!, {r1, r2, r5, r6}
   29b20:	c866      	ldmia	r0!, {r1, r2, r5, r6}
   29b22:	c366      	stmia	r3!, {r1, r2, r5, r6}
   29b24:	7800      	ldrb	r0, [r0, #0]
   29b26:	7018      	strb	r0, [r3, #0]
   29b28:	990a      	ldr	r1, [sp, #40]	@ 0x28
   29b2a:	0e08      	lsrs	r0, r1, #24
   29b2c:	71a0      	strb	r0, [r4, #6]
   29b2e:	0c08      	lsrs	r0, r1, #16
   29b30:	7160      	strb	r0, [r4, #5]
   29b32:	0a08      	lsrs	r0, r1, #8
   29b34:	7120      	strb	r0, [r4, #4]
   29b36:	70e1      	strb	r1, [r4, #3]
   29b38:	1de0      	adds	r0, r4, #7
   29b3a:	2231      	movs	r2, #49	@ 0x31
   29b3c:	990b      	ldr	r1, [sp, #44]	@ 0x2c
   29b3e:	f001 fae1 	bl	2b104 <__aeabi_memcpy>
   29b42:	4d05      	ldr	r5, [pc, #20]	@ (29b58 <_start+0x1e5c>)
   29b44:	446d      	add	r5, sp
   29b46:	4628      	mov	r0, r5
   29b48:	4621      	mov	r1, r4
   29b4a:	f7fc f9ad 	bl	25ea8 <_ZN20complex_dynamic_type3app17hc39c530a082d75d2E>
   29b4e:	7828      	ldrb	r0, [r5, #0]
   29b50:	2801      	cmp	r0, #1
   29b52:	d107      	bne.n	29b64 <_start+0x1e68>
   29b54:	f001 f8c0 	bl	2acd8 <_start+0x2fdc>
   29b58:	00001404 	.word	0x00001404
   29b5c:	00000a3c 	.word	0x00000a3c
   29b60:	000013a8 	.word	0x000013a8
   29b64:	4816      	ldr	r0, [pc, #88]	@ (29bc0 <_start+0x1ec4>)
   29b66:	4468      	add	r0, sp
   29b68:	78c1      	ldrb	r1, [r0, #3]
   29b6a:	4c16      	ldr	r4, [pc, #88]	@ (29bc4 <_start+0x1ec8>)
   29b6c:	446c      	add	r4, sp
   29b6e:	70a1      	strb	r1, [r4, #2]
   29b70:	7841      	ldrb	r1, [r0, #1]
   29b72:	7882      	ldrb	r2, [r0, #2]
   29b74:	0212      	lsls	r2, r2, #8
   29b76:	1851      	adds	r1, r2, r1
   29b78:	8021      	strh	r1, [r4, #0]
   29b7a:	3008      	adds	r0, #8
   29b7c:	9908      	ldr	r1, [sp, #32]
   29b7e:	6e09      	ldr	r1, [r1, #96]	@ 0x60
   29b80:	910a      	str	r1, [sp, #40]	@ 0x28
   29b82:	4b11      	ldr	r3, [pc, #68]	@ (29bc8 <_start+0x1ecc>)
   29b84:	446b      	add	r3, sp
   29b86:	930b      	str	r3, [sp, #44]	@ 0x2c
   29b88:	c866      	ldmia	r0!, {r1, r2, r5, r6}
   29b8a:	c366      	stmia	r3!, {r1, r2, r5, r6}
   29b8c:	c866      	ldmia	r0!, {r1, r2, r5, r6}
   29b8e:	c366      	stmia	r3!, {r1, r2, r5, r6}
   29b90:	990a      	ldr	r1, [sp, #40]	@ 0x28
   29b92:	0e08      	lsrs	r0, r1, #24
   29b94:	71a0      	strb	r0, [r4, #6]
   29b96:	0c08      	lsrs	r0, r1, #16
   29b98:	7160      	strb	r0, [r4, #5]
   29b9a:	0a08      	lsrs	r0, r1, #8
   29b9c:	7120      	strb	r0, [r4, #4]
   29b9e:	70e1      	strb	r1, [r4, #3]
   29ba0:	1de0      	adds	r0, r4, #7
   29ba2:	2220      	movs	r2, #32
   29ba4:	990b      	ldr	r1, [sp, #44]	@ 0x2c
   29ba6:	f001 faad 	bl	2b104 <__aeabi_memcpy>
   29baa:	4d05      	ldr	r5, [pc, #20]	@ (29bc0 <_start+0x1ec4>)
   29bac:	446d      	add	r5, sp
   29bae:	4628      	mov	r0, r5
   29bb0:	4621      	mov	r1, r4
   29bb2:	f7fd fb5d 	bl	27270 <_ZN20complex_dynamic_type3app17heb3b2d72c6ffa5e0E>
   29bb6:	7828      	ldrb	r0, [r5, #0]
   29bb8:	2801      	cmp	r0, #1
   29bba:	d107      	bne.n	29bcc <_start+0x1ed0>
   29bbc:	f001 f88c 	bl	2acd8 <_start+0x2fdc>
   29bc0:	00001404 	.word	0x00001404
   29bc4:	00000a74 	.word	0x00000a74
   29bc8:	000013a8 	.word	0x000013a8
   29bcc:	4915      	ldr	r1, [pc, #84]	@ (29c24 <_start+0x1f28>)
   29bce:	4469      	add	r1, sp
   29bd0:	78c8      	ldrb	r0, [r1, #3]
   29bd2:	4c15      	ldr	r4, [pc, #84]	@ (29c28 <_start+0x1f2c>)
   29bd4:	446c      	add	r4, sp
   29bd6:	70a0      	strb	r0, [r4, #2]
   29bd8:	7848      	ldrb	r0, [r1, #1]
   29bda:	788a      	ldrb	r2, [r1, #2]
   29bdc:	0212      	lsls	r2, r2, #8
   29bde:	1810      	adds	r0, r2, r0
   29be0:	8020      	strh	r0, [r4, #0]
   29be2:	9808      	ldr	r0, [sp, #32]
   29be4:	6e05      	ldr	r5, [r0, #96]	@ 0x60
   29be6:	3108      	adds	r1, #8
   29be8:	4810      	ldr	r0, [pc, #64]	@ (29c2c <_start+0x1f30>)
   29bea:	4468      	add	r0, sp
   29bec:	900b      	str	r0, [sp, #44]	@ 0x2c
   29bee:	264a      	movs	r6, #74	@ 0x4a
   29bf0:	4632      	mov	r2, r6
   29bf2:	f001 f927 	bl	2ae44 <__aeabi_memcpy4>
   29bf6:	0e28      	lsrs	r0, r5, #24
   29bf8:	71a0      	strb	r0, [r4, #6]
   29bfa:	0c28      	lsrs	r0, r5, #16
   29bfc:	7160      	strb	r0, [r4, #5]
   29bfe:	0a28      	lsrs	r0, r5, #8
   29c00:	7120      	strb	r0, [r4, #4]
   29c02:	70e5      	strb	r5, [r4, #3]
   29c04:	1de0      	adds	r0, r4, #7
   29c06:	990b      	ldr	r1, [sp, #44]	@ 0x2c
   29c08:	4632      	mov	r2, r6
   29c0a:	f001 fa7b 	bl	2b104 <__aeabi_memcpy>
   29c0e:	4d05      	ldr	r5, [pc, #20]	@ (29c24 <_start+0x1f28>)
   29c10:	446d      	add	r5, sp
   29c12:	4628      	mov	r0, r5
   29c14:	4621      	mov	r1, r4
   29c16:	f7fc f89f 	bl	25d58 <_ZN20complex_dynamic_type3app17hc35cd54330a3973eE>
   29c1a:	7828      	ldrb	r0, [r5, #0]
   29c1c:	2801      	cmp	r0, #1
   29c1e:	d107      	bne.n	29c30 <_start+0x1f34>
   29c20:	f001 f85a 	bl	2acd8 <_start+0x2fdc>
   29c24:	00001404 	.word	0x00001404
   29c28:	00000a9c 	.word	0x00000a9c
   29c2c:	000013a8 	.word	0x000013a8
   29c30:	4915      	ldr	r1, [pc, #84]	@ (29c88 <_start+0x1f8c>)
   29c32:	4469      	add	r1, sp
   29c34:	78c8      	ldrb	r0, [r1, #3]
   29c36:	4c15      	ldr	r4, [pc, #84]	@ (29c8c <_start+0x1f90>)
   29c38:	446c      	add	r4, sp
   29c3a:	70a0      	strb	r0, [r4, #2]
   29c3c:	7848      	ldrb	r0, [r1, #1]
   29c3e:	788a      	ldrb	r2, [r1, #2]
   29c40:	0212      	lsls	r2, r2, #8
   29c42:	1810      	adds	r0, r2, r0
   29c44:	8020      	strh	r0, [r4, #0]
   29c46:	9808      	ldr	r0, [sp, #32]
   29c48:	6e05      	ldr	r5, [r0, #96]	@ 0x60
   29c4a:	3108      	adds	r1, #8
   29c4c:	4810      	ldr	r0, [pc, #64]	@ (29c90 <_start+0x1f94>)
   29c4e:	4468      	add	r0, sp
   29c50:	900b      	str	r0, [sp, #44]	@ 0x2c
   29c52:	2648      	movs	r6, #72	@ 0x48
   29c54:	4632      	mov	r2, r6
   29c56:	f001 f8f5 	bl	2ae44 <__aeabi_memcpy4>
   29c5a:	0e28      	lsrs	r0, r5, #24
   29c5c:	71a0      	strb	r0, [r4, #6]
   29c5e:	0c28      	lsrs	r0, r5, #16
   29c60:	7160      	strb	r0, [r4, #5]
   29c62:	0a28      	lsrs	r0, r5, #8
   29c64:	7120      	strb	r0, [r4, #4]
   29c66:	70e5      	strb	r5, [r4, #3]
   29c68:	1de0      	adds	r0, r4, #7
   29c6a:	990b      	ldr	r1, [sp, #44]	@ 0x2c
   29c6c:	4632      	mov	r2, r6
   29c6e:	f001 fa49 	bl	2b104 <__aeabi_memcpy>
   29c72:	4d05      	ldr	r5, [pc, #20]	@ (29c88 <_start+0x1f8c>)
   29c74:	446d      	add	r5, sp
   29c76:	4628      	mov	r0, r5
   29c78:	4621      	mov	r1, r4
   29c7a:	f7f8 fca9 	bl	225d0 <_ZN20complex_dynamic_type3app17h5a81715d3698e226E>
   29c7e:	7828      	ldrb	r0, [r5, #0]
   29c80:	2801      	cmp	r0, #1
   29c82:	d107      	bne.n	29c94 <_start+0x1f98>
   29c84:	f001 f828 	bl	2acd8 <_start+0x2fdc>
   29c88:	00001404 	.word	0x00001404
   29c8c:	00000af0 	.word	0x00000af0
   29c90:	000013a8 	.word	0x000013a8
   29c94:	4915      	ldr	r1, [pc, #84]	@ (29cec <_start+0x1ff0>)
   29c96:	4469      	add	r1, sp
   29c98:	78c8      	ldrb	r0, [r1, #3]
   29c9a:	4c15      	ldr	r4, [pc, #84]	@ (29cf0 <_start+0x1ff4>)
   29c9c:	446c      	add	r4, sp
   29c9e:	70a0      	strb	r0, [r4, #2]
   29ca0:	7848      	ldrb	r0, [r1, #1]
   29ca2:	788a      	ldrb	r2, [r1, #2]
   29ca4:	0212      	lsls	r2, r2, #8
   29ca6:	1810      	adds	r0, r2, r0
   29ca8:	8020      	strh	r0, [r4, #0]
   29caa:	9808      	ldr	r0, [sp, #32]
   29cac:	6e05      	ldr	r5, [r0, #96]	@ 0x60
   29cae:	3108      	adds	r1, #8
   29cb0:	4810      	ldr	r0, [pc, #64]	@ (29cf4 <_start+0x1ff8>)
   29cb2:	4468      	add	r0, sp
   29cb4:	900b      	str	r0, [sp, #44]	@ 0x2c
   29cb6:	265a      	movs	r6, #90	@ 0x5a
   29cb8:	4632      	mov	r2, r6
   29cba:	f001 f8c3 	bl	2ae44 <__aeabi_memcpy4>
   29cbe:	0e28      	lsrs	r0, r5, #24
   29cc0:	71a0      	strb	r0, [r4, #6]
   29cc2:	0c28      	lsrs	r0, r5, #16
   29cc4:	7160      	strb	r0, [r4, #5]
   29cc6:	0a28      	lsrs	r0, r5, #8
   29cc8:	7120      	strb	r0, [r4, #4]
   29cca:	70e5      	strb	r5, [r4, #3]
   29ccc:	1de0      	adds	r0, r4, #7
   29cce:	990b      	ldr	r1, [sp, #44]	@ 0x2c
   29cd0:	4632      	mov	r2, r6
   29cd2:	f001 fa17 	bl	2b104 <__aeabi_memcpy>
   29cd6:	4d05      	ldr	r5, [pc, #20]	@ (29cec <_start+0x1ff0>)
   29cd8:	446d      	add	r5, sp
   29cda:	4628      	mov	r0, r5
   29cdc:	4621      	mov	r1, r4
   29cde:	f7f7 fde3 	bl	218a8 <_ZN20complex_dynamic_type3app17h3eb19e262381d93aE>
   29ce2:	7828      	ldrb	r0, [r5, #0]
   29ce4:	2801      	cmp	r0, #1
   29ce6:	d107      	bne.n	29cf8 <_start+0x1ffc>
   29ce8:	f000 fff6 	bl	2acd8 <_start+0x2fdc>
   29cec:	00001404 	.word	0x00001404
   29cf0:	00000b40 	.word	0x00000b40
   29cf4:	000013a8 	.word	0x000013a8
   29cf8:	4817      	ldr	r0, [pc, #92]	@ (29d58 <_start+0x205c>)
   29cfa:	4468      	add	r0, sp
   29cfc:	78c1      	ldrb	r1, [r0, #3]
   29cfe:	4c17      	ldr	r4, [pc, #92]	@ (29d5c <_start+0x2060>)
   29d00:	446c      	add	r4, sp
   29d02:	70a1      	strb	r1, [r4, #2]
   29d04:	7841      	ldrb	r1, [r0, #1]
   29d06:	7882      	ldrb	r2, [r0, #2]
   29d08:	0212      	lsls	r2, r2, #8
   29d0a:	1851      	adds	r1, r2, r1
   29d0c:	8021      	strh	r1, [r4, #0]
   29d0e:	3008      	adds	r0, #8
   29d10:	9908      	ldr	r1, [sp, #32]
   29d12:	6e09      	ldr	r1, [r1, #96]	@ 0x60
   29d14:	4b12      	ldr	r3, [pc, #72]	@ (29d60 <_start+0x2064>)
   29d16:	446b      	add	r3, sp
   29d18:	930b      	str	r3, [sp, #44]	@ 0x2c
   29d1a:	c860      	ldmia	r0!, {r5, r6}
   29d1c:	c360      	stmia	r3!, {r5, r6}
   29d1e:	c864      	ldmia	r0!, {r2, r5, r6}
   29d20:	c364      	stmia	r3!, {r2, r5, r6}
   29d22:	8802      	ldrh	r2, [r0, #0]
   29d24:	801a      	strh	r2, [r3, #0]
   29d26:	7880      	ldrb	r0, [r0, #2]
   29d28:	7098      	strb	r0, [r3, #2]
   29d2a:	0e08      	lsrs	r0, r1, #24
   29d2c:	71a0      	strb	r0, [r4, #6]
   29d2e:	0c08      	lsrs	r0, r1, #16
   29d30:	7160      	strb	r0, [r4, #5]
   29d32:	0a08      	lsrs	r0, r1, #8
   29d34:	7120      	strb	r0, [r4, #4]
   29d36:	70e1      	strb	r1, [r4, #3]
   29d38:	1de0      	adds	r0, r4, #7
   29d3a:	2217      	movs	r2, #23
   29d3c:	990b      	ldr	r1, [sp, #44]	@ 0x2c
   29d3e:	f001 f9e1 	bl	2b104 <__aeabi_memcpy>
   29d42:	4d05      	ldr	r5, [pc, #20]	@ (29d58 <_start+0x205c>)
   29d44:	446d      	add	r5, sp
   29d46:	4628      	mov	r0, r5
   29d48:	4621      	mov	r1, r4
   29d4a:	f7fa fc29 	bl	245a0 <_ZN20complex_dynamic_type3app17h8aec3885c67eaa45E>
   29d4e:	7828      	ldrb	r0, [r5, #0]
   29d50:	2801      	cmp	r0, #1
   29d52:	d107      	bne.n	29d64 <_start+0x2068>
   29d54:	f000 ffc0 	bl	2acd8 <_start+0x2fdc>
   29d58:	00001404 	.word	0x00001404
   29d5c:	00000ba4 	.word	0x00000ba4
   29d60:	000013a8 	.word	0x000013a8
   29d64:	4816      	ldr	r0, [pc, #88]	@ (29dc0 <_start+0x20c4>)
   29d66:	4468      	add	r0, sp
   29d68:	78c1      	ldrb	r1, [r0, #3]
   29d6a:	4c16      	ldr	r4, [pc, #88]	@ (29dc4 <_start+0x20c8>)
   29d6c:	446c      	add	r4, sp
   29d6e:	70a1      	strb	r1, [r4, #2]
   29d70:	7841      	ldrb	r1, [r0, #1]
   29d72:	7882      	ldrb	r2, [r0, #2]
   29d74:	0212      	lsls	r2, r2, #8
   29d76:	1851      	adds	r1, r2, r1
   29d78:	8021      	strh	r1, [r4, #0]
   29d7a:	3008      	adds	r0, #8
   29d7c:	9908      	ldr	r1, [sp, #32]
   29d7e:	6e09      	ldr	r1, [r1, #96]	@ 0x60
   29d80:	4b11      	ldr	r3, [pc, #68]	@ (29dc8 <_start+0x20cc>)
   29d82:	446b      	add	r3, sp
   29d84:	930b      	str	r3, [sp, #44]	@ 0x2c
   29d86:	c864      	ldmia	r0!, {r2, r5, r6}
   29d88:	c364      	stmia	r3!, {r2, r5, r6}
   29d8a:	c864      	ldmia	r0!, {r2, r5, r6}
   29d8c:	c364      	stmia	r3!, {r2, r5, r6}
   29d8e:	8800      	ldrh	r0, [r0, #0]
   29d90:	8018      	strh	r0, [r3, #0]
   29d92:	0e08      	lsrs	r0, r1, #24
   29d94:	71a0      	strb	r0, [r4, #6]
   29d96:	0c08      	lsrs	r0, r1, #16
   29d98:	7160      	strb	r0, [r4, #5]
   29d9a:	0a08      	lsrs	r0, r1, #8
   29d9c:	7120      	strb	r0, [r4, #4]
   29d9e:	70e1      	strb	r1, [r4, #3]
   29da0:	1de0      	adds	r0, r4, #7
   29da2:	221a      	movs	r2, #26
   29da4:	990b      	ldr	r1, [sp, #44]	@ 0x2c
   29da6:	f001 f9ad 	bl	2b104 <__aeabi_memcpy>
   29daa:	4d05      	ldr	r5, [pc, #20]	@ (29dc0 <_start+0x20c4>)
   29dac:	446d      	add	r5, sp
   29dae:	4628      	mov	r0, r5
   29db0:	4621      	mov	r1, r4
   29db2:	f7fd fef9 	bl	27ba8 <_ZN20complex_dynamic_type3app17hff66c88c85f1f991E>
   29db6:	7828      	ldrb	r0, [r5, #0]
   29db8:	2801      	cmp	r0, #1
   29dba:	d107      	bne.n	29dcc <_start+0x20d0>
   29dbc:	f000 ff8c 	bl	2acd8 <_start+0x2fdc>
   29dc0:	00001404 	.word	0x00001404
   29dc4:	00000bc4 	.word	0x00000bc4
   29dc8:	000013a8 	.word	0x000013a8
   29dcc:	4818      	ldr	r0, [pc, #96]	@ (29e30 <_start+0x2134>)
   29dce:	4468      	add	r0, sp
   29dd0:	78c1      	ldrb	r1, [r0, #3]
   29dd2:	4c18      	ldr	r4, [pc, #96]	@ (29e34 <_start+0x2138>)
   29dd4:	446c      	add	r4, sp
   29dd6:	70a1      	strb	r1, [r4, #2]
   29dd8:	7841      	ldrb	r1, [r0, #1]
   29dda:	7882      	ldrb	r2, [r0, #2]
   29ddc:	0212      	lsls	r2, r2, #8
   29dde:	1851      	adds	r1, r2, r1
   29de0:	8021      	strh	r1, [r4, #0]
   29de2:	3008      	adds	r0, #8
   29de4:	9908      	ldr	r1, [sp, #32]
   29de6:	6e09      	ldr	r1, [r1, #96]	@ 0x60
   29de8:	910a      	str	r1, [sp, #40]	@ 0x28
   29dea:	4b13      	ldr	r3, [pc, #76]	@ (29e38 <_start+0x213c>)
   29dec:	446b      	add	r3, sp
   29dee:	930b      	str	r3, [sp, #44]	@ 0x2c
   29df0:	c866      	ldmia	r0!, {r1, r2, r5, r6}
   29df2:	c366      	stmia	r3!, {r1, r2, r5, r6}
   29df4:	c866      	ldmia	r0!, {r1, r2, r5, r6}
   29df6:	c366      	stmia	r3!, {r1, r2, r5, r6}
   29df8:	8801      	ldrh	r1, [r0, #0]
   29dfa:	8019      	strh	r1, [r3, #0]
   29dfc:	7880      	ldrb	r0, [r0, #2]
   29dfe:	7098      	strb	r0, [r3, #2]
   29e00:	990a      	ldr	r1, [sp, #40]	@ 0x28
   29e02:	0e08      	lsrs	r0, r1, #24
   29e04:	71a0      	strb	r0, [r4, #6]
   29e06:	0c08      	lsrs	r0, r1, #16
   29e08:	7160      	strb	r0, [r4, #5]
   29e0a:	0a08      	lsrs	r0, r1, #8
   29e0c:	7120      	strb	r0, [r4, #4]
   29e0e:	70e1      	strb	r1, [r4, #3]
   29e10:	1de0      	adds	r0, r4, #7
   29e12:	2223      	movs	r2, #35	@ 0x23
   29e14:	990b      	ldr	r1, [sp, #44]	@ 0x2c
   29e16:	f001 f975 	bl	2b104 <__aeabi_memcpy>
   29e1a:	4d05      	ldr	r5, [pc, #20]	@ (29e30 <_start+0x2134>)
   29e1c:	446d      	add	r5, sp
   29e1e:	4628      	mov	r0, r5
   29e20:	4621      	mov	r1, r4
   29e22:	f7fa fe5d 	bl	24ae0 <_ZN20complex_dynamic_type3app17h9ae27d235d631bacE>
   29e26:	7828      	ldrb	r0, [r5, #0]
   29e28:	2801      	cmp	r0, #1
   29e2a:	d107      	bne.n	29e3c <_start+0x2140>
   29e2c:	f000 ff54 	bl	2acd8 <_start+0x2fdc>
   29e30:	00001404 	.word	0x00001404
   29e34:	00000be8 	.word	0x00000be8
   29e38:	000013a8 	.word	0x000013a8
   29e3c:	4915      	ldr	r1, [pc, #84]	@ (29e94 <_start+0x2198>)
   29e3e:	4469      	add	r1, sp
   29e40:	78c8      	ldrb	r0, [r1, #3]
   29e42:	4c15      	ldr	r4, [pc, #84]	@ (29e98 <_start+0x219c>)
   29e44:	446c      	add	r4, sp
   29e46:	70a0      	strb	r0, [r4, #2]
   29e48:	7848      	ldrb	r0, [r1, #1]
   29e4a:	788a      	ldrb	r2, [r1, #2]
   29e4c:	0212      	lsls	r2, r2, #8
   29e4e:	1810      	adds	r0, r2, r0
   29e50:	8020      	strh	r0, [r4, #0]
   29e52:	9808      	ldr	r0, [sp, #32]
   29e54:	6e05      	ldr	r5, [r0, #96]	@ 0x60
   29e56:	3108      	adds	r1, #8
   29e58:	4810      	ldr	r0, [pc, #64]	@ (29e9c <_start+0x21a0>)
   29e5a:	4468      	add	r0, sp
   29e5c:	900b      	str	r0, [sp, #44]	@ 0x2c
   29e5e:	2652      	movs	r6, #82	@ 0x52
   29e60:	4632      	mov	r2, r6
   29e62:	f000 ffef 	bl	2ae44 <__aeabi_memcpy4>
   29e66:	0e28      	lsrs	r0, r5, #24
   29e68:	71a0      	strb	r0, [r4, #6]
   29e6a:	0c28      	lsrs	r0, r5, #16
   29e6c:	7160      	strb	r0, [r4, #5]
   29e6e:	0a28      	lsrs	r0, r5, #8
   29e70:	7120      	strb	r0, [r4, #4]
   29e72:	70e5      	strb	r5, [r4, #3]
   29e74:	1de0      	adds	r0, r4, #7
   29e76:	990b      	ldr	r1, [sp, #44]	@ 0x2c
   29e78:	4632      	mov	r2, r6
   29e7a:	f001 f943 	bl	2b104 <__aeabi_memcpy>
   29e7e:	4d05      	ldr	r5, [pc, #20]	@ (29e94 <_start+0x2198>)
   29e80:	446d      	add	r5, sp
   29e82:	4628      	mov	r0, r5
   29e84:	4621      	mov	r1, r4
   29e86:	f7fd fc99 	bl	277bc <_ZN20complex_dynamic_type3app17hf961a00621740485E>
   29e8a:	7828      	ldrb	r0, [r5, #0]
   29e8c:	2801      	cmp	r0, #1
   29e8e:	d107      	bne.n	29ea0 <_start+0x21a4>
   29e90:	f000 ff22 	bl	2acd8 <_start+0x2fdc>
   29e94:	00001404 	.word	0x00001404
   29e98:	00000c14 	.word	0x00000c14
   29e9c:	000013a8 	.word	0x000013a8
   29ea0:	4915      	ldr	r1, [pc, #84]	@ (29ef8 <_start+0x21fc>)
   29ea2:	4469      	add	r1, sp
   29ea4:	78c8      	ldrb	r0, [r1, #3]
   29ea6:	4c15      	ldr	r4, [pc, #84]	@ (29efc <_start+0x2200>)
   29ea8:	446c      	add	r4, sp
   29eaa:	70a0      	strb	r0, [r4, #2]
   29eac:	7848      	ldrb	r0, [r1, #1]
   29eae:	788a      	ldrb	r2, [r1, #2]
   29eb0:	0212      	lsls	r2, r2, #8
   29eb2:	1810      	adds	r0, r2, r0
   29eb4:	8020      	strh	r0, [r4, #0]
   29eb6:	9808      	ldr	r0, [sp, #32]
   29eb8:	6e05      	ldr	r5, [r0, #96]	@ 0x60
   29eba:	3108      	adds	r1, #8
   29ebc:	4810      	ldr	r0, [pc, #64]	@ (29f00 <_start+0x2204>)
   29ebe:	4468      	add	r0, sp
   29ec0:	900b      	str	r0, [sp, #44]	@ 0x2c
   29ec2:	2643      	movs	r6, #67	@ 0x43
   29ec4:	4632      	mov	r2, r6
   29ec6:	f000 ffbd 	bl	2ae44 <__aeabi_memcpy4>
   29eca:	0e28      	lsrs	r0, r5, #24
   29ecc:	71a0      	strb	r0, [r4, #6]
   29ece:	0c28      	lsrs	r0, r5, #16
   29ed0:	7160      	strb	r0, [r4, #5]
   29ed2:	0a28      	lsrs	r0, r5, #8
   29ed4:	7120      	strb	r0, [r4, #4]
   29ed6:	70e5      	strb	r5, [r4, #3]
   29ed8:	1de0      	adds	r0, r4, #7
   29eda:	990b      	ldr	r1, [sp, #44]	@ 0x2c
   29edc:	4632      	mov	r2, r6
   29ede:	f001 f911 	bl	2b104 <__aeabi_memcpy>
   29ee2:	4d05      	ldr	r5, [pc, #20]	@ (29ef8 <_start+0x21fc>)
   29ee4:	446d      	add	r5, sp
   29ee6:	4628      	mov	r0, r5
   29ee8:	4621      	mov	r1, r4
   29eea:	f7f7 fae1 	bl	214b0 <_ZN20complex_dynamic_type3app17h34709570f8996073E>
   29eee:	7828      	ldrb	r0, [r5, #0]
   29ef0:	2801      	cmp	r0, #1
   29ef2:	d107      	bne.n	29f04 <_start+0x2208>
   29ef4:	f000 fef0 	bl	2acd8 <_start+0x2fdc>
   29ef8:	00001404 	.word	0x00001404
   29efc:	00000c70 	.word	0x00000c70
   29f00:	000013a8 	.word	0x000013a8
   29f04:	4817      	ldr	r0, [pc, #92]	@ (29f64 <_start+0x2268>)
   29f06:	4468      	add	r0, sp
   29f08:	78c1      	ldrb	r1, [r0, #3]
   29f0a:	4c17      	ldr	r4, [pc, #92]	@ (29f68 <_start+0x226c>)
   29f0c:	446c      	add	r4, sp
   29f0e:	70a1      	strb	r1, [r4, #2]
   29f10:	7841      	ldrb	r1, [r0, #1]
   29f12:	7882      	ldrb	r2, [r0, #2]
   29f14:	0212      	lsls	r2, r2, #8
   29f16:	1851      	adds	r1, r2, r1
   29f18:	8021      	strh	r1, [r4, #0]
   29f1a:	3008      	adds	r0, #8
   29f1c:	9908      	ldr	r1, [sp, #32]
   29f1e:	6e09      	ldr	r1, [r1, #96]	@ 0x60
   29f20:	4b12      	ldr	r3, [pc, #72]	@ (29f6c <_start+0x2270>)
   29f22:	446b      	add	r3, sp
   29f24:	930b      	str	r3, [sp, #44]	@ 0x2c
   29f26:	c864      	ldmia	r0!, {r2, r5, r6}
   29f28:	c364      	stmia	r3!, {r2, r5, r6}
   29f2a:	c864      	ldmia	r0!, {r2, r5, r6}
   29f2c:	c364      	stmia	r3!, {r2, r5, r6}
   29f2e:	c864      	ldmia	r0!, {r2, r5, r6}
   29f30:	c364      	stmia	r3!, {r2, r5, r6}
   29f32:	8800      	ldrh	r0, [r0, #0]
   29f34:	8018      	strh	r0, [r3, #0]
   29f36:	0e08      	lsrs	r0, r1, #24
   29f38:	71a0      	strb	r0, [r4, #6]
   29f3a:	0c08      	lsrs	r0, r1, #16
   29f3c:	7160      	strb	r0, [r4, #5]
   29f3e:	0a08      	lsrs	r0, r1, #8
   29f40:	7120      	strb	r0, [r4, #4]
   29f42:	70e1      	strb	r1, [r4, #3]
   29f44:	1de0      	adds	r0, r4, #7
   29f46:	2226      	movs	r2, #38	@ 0x26
   29f48:	990b      	ldr	r1, [sp, #44]	@ 0x2c
   29f4a:	f001 f8db 	bl	2b104 <__aeabi_memcpy>
   29f4e:	4d05      	ldr	r5, [pc, #20]	@ (29f64 <_start+0x2268>)
   29f50:	446d      	add	r5, sp
   29f52:	4628      	mov	r0, r5
   29f54:	4621      	mov	r1, r4
   29f56:	f7fa ff15 	bl	24d84 <_ZN20complex_dynamic_type3app17h9e70a7f76c2c6a27E>
   29f5a:	7828      	ldrb	r0, [r5, #0]
   29f5c:	2801      	cmp	r0, #1
   29f5e:	d107      	bne.n	29f70 <_start+0x2274>
   29f60:	f000 feba 	bl	2acd8 <_start+0x2fdc>
   29f64:	00001404 	.word	0x00001404
   29f68:	00000cbc 	.word	0x00000cbc
   29f6c:	000013a8 	.word	0x000013a8
   29f70:	4915      	ldr	r1, [pc, #84]	@ (29fc8 <_start+0x22cc>)
   29f72:	4469      	add	r1, sp
   29f74:	78c8      	ldrb	r0, [r1, #3]
   29f76:	4c15      	ldr	r4, [pc, #84]	@ (29fcc <_start+0x22d0>)
   29f78:	446c      	add	r4, sp
   29f7a:	70a0      	strb	r0, [r4, #2]
   29f7c:	7848      	ldrb	r0, [r1, #1]
   29f7e:	788a      	ldrb	r2, [r1, #2]
   29f80:	0212      	lsls	r2, r2, #8
   29f82:	1810      	adds	r0, r2, r0
   29f84:	8020      	strh	r0, [r4, #0]
   29f86:	9808      	ldr	r0, [sp, #32]
   29f88:	6e05      	ldr	r5, [r0, #96]	@ 0x60
   29f8a:	3108      	adds	r1, #8
   29f8c:	4810      	ldr	r0, [pc, #64]	@ (29fd0 <_start+0x22d4>)
   29f8e:	4468      	add	r0, sp
   29f90:	900b      	str	r0, [sp, #44]	@ 0x2c
   29f92:	264c      	movs	r6, #76	@ 0x4c
   29f94:	4632      	mov	r2, r6
   29f96:	f000 ff55 	bl	2ae44 <__aeabi_memcpy4>
   29f9a:	0e28      	lsrs	r0, r5, #24
   29f9c:	71a0      	strb	r0, [r4, #6]
   29f9e:	0c28      	lsrs	r0, r5, #16
   29fa0:	7160      	strb	r0, [r4, #5]
   29fa2:	0a28      	lsrs	r0, r5, #8
   29fa4:	7120      	strb	r0, [r4, #4]
   29fa6:	70e5      	strb	r5, [r4, #3]
   29fa8:	1de0      	adds	r0, r4, #7
   29faa:	990b      	ldr	r1, [sp, #44]	@ 0x2c
   29fac:	4632      	mov	r2, r6
   29fae:	f001 f8a9 	bl	2b104 <__aeabi_memcpy>
   29fb2:	4d05      	ldr	r5, [pc, #20]	@ (29fc8 <_start+0x22cc>)
   29fb4:	446d      	add	r5, sp
   29fb6:	4628      	mov	r0, r5
   29fb8:	4621      	mov	r1, r4
   29fba:	f7f9 ffa1 	bl	23f00 <_ZN20complex_dynamic_type3app17h80d1b26f97dbfbbaE>
   29fbe:	7828      	ldrb	r0, [r5, #0]
   29fc0:	2801      	cmp	r0, #1
   29fc2:	d107      	bne.n	29fd4 <_start+0x22d8>
   29fc4:	f000 fe88 	bl	2acd8 <_start+0x2fdc>
   29fc8:	00001404 	.word	0x00001404
   29fcc:	00000cec 	.word	0x00000cec
   29fd0:	000013a8 	.word	0x000013a8
   29fd4:	4819      	ldr	r0, [pc, #100]	@ (2a03c <_start+0x2340>)
   29fd6:	4468      	add	r0, sp
   29fd8:	78c1      	ldrb	r1, [r0, #3]
   29fda:	4c19      	ldr	r4, [pc, #100]	@ (2a040 <_start+0x2344>)
   29fdc:	446c      	add	r4, sp
   29fde:	70a1      	strb	r1, [r4, #2]
   29fe0:	7841      	ldrb	r1, [r0, #1]
   29fe2:	7882      	ldrb	r2, [r0, #2]
   29fe4:	0212      	lsls	r2, r2, #8
   29fe6:	1851      	adds	r1, r2, r1
   29fe8:	8021      	strh	r1, [r4, #0]
   29fea:	3008      	adds	r0, #8
   29fec:	9908      	ldr	r1, [sp, #32]
   29fee:	6e09      	ldr	r1, [r1, #96]	@ 0x60
   29ff0:	910a      	str	r1, [sp, #40]	@ 0x28
   29ff2:	4b14      	ldr	r3, [pc, #80]	@ (2a044 <_start+0x2348>)
   29ff4:	446b      	add	r3, sp
   29ff6:	930b      	str	r3, [sp, #44]	@ 0x2c
   29ff8:	c866      	ldmia	r0!, {r1, r2, r5, r6}
   29ffa:	c366      	stmia	r3!, {r1, r2, r5, r6}
   29ffc:	c866      	ldmia	r0!, {r1, r2, r5, r6}
   29ffe:	c366      	stmia	r3!, {r1, r2, r5, r6}
   2a000:	c866      	ldmia	r0!, {r1, r2, r5, r6}
   2a002:	c366      	stmia	r3!, {r1, r2, r5, r6}
   2a004:	8801      	ldrh	r1, [r0, #0]
   2a006:	8019      	strh	r1, [r3, #0]
   2a008:	7880      	ldrb	r0, [r0, #2]
   2a00a:	7098      	strb	r0, [r3, #2]
   2a00c:	990a      	ldr	r1, [sp, #40]	@ 0x28
   2a00e:	0e08      	lsrs	r0, r1, #24
   2a010:	71a0      	strb	r0, [r4, #6]
   2a012:	0c08      	lsrs	r0, r1, #16
   2a014:	7160      	strb	r0, [r4, #5]
   2a016:	0a08      	lsrs	r0, r1, #8
   2a018:	7120      	strb	r0, [r4, #4]
   2a01a:	70e1      	strb	r1, [r4, #3]
   2a01c:	1de0      	adds	r0, r4, #7
   2a01e:	2233      	movs	r2, #51	@ 0x33
   2a020:	990b      	ldr	r1, [sp, #44]	@ 0x2c
   2a022:	f001 f86f 	bl	2b104 <__aeabi_memcpy>
   2a026:	4d05      	ldr	r5, [pc, #20]	@ (2a03c <_start+0x2340>)
   2a028:	446d      	add	r5, sp
   2a02a:	4628      	mov	r0, r5
   2a02c:	4621      	mov	r1, r4
   2a02e:	f7f6 fcf9 	bl	20a24 <_ZN20complex_dynamic_type3app17h1613718388bd7ac5E>
   2a032:	7828      	ldrb	r0, [r5, #0]
   2a034:	2801      	cmp	r0, #1
   2a036:	d107      	bne.n	2a048 <_start+0x234c>
   2a038:	f000 fe4e 	bl	2acd8 <_start+0x2fdc>
   2a03c:	00001404 	.word	0x00001404
   2a040:	00000d40 	.word	0x00000d40
   2a044:	000013a8 	.word	0x000013a8
   2a048:	4915      	ldr	r1, [pc, #84]	@ (2a0a0 <_start+0x23a4>)
   2a04a:	4469      	add	r1, sp
   2a04c:	78c8      	ldrb	r0, [r1, #3]
   2a04e:	4c15      	ldr	r4, [pc, #84]	@ (2a0a4 <_start+0x23a8>)
   2a050:	446c      	add	r4, sp
   2a052:	70a0      	strb	r0, [r4, #2]
   2a054:	7848      	ldrb	r0, [r1, #1]
   2a056:	788a      	ldrb	r2, [r1, #2]
   2a058:	0212      	lsls	r2, r2, #8
   2a05a:	1810      	adds	r0, r2, r0
   2a05c:	8020      	strh	r0, [r4, #0]
   2a05e:	9808      	ldr	r0, [sp, #32]
   2a060:	6e05      	ldr	r5, [r0, #96]	@ 0x60
   2a062:	3108      	adds	r1, #8
   2a064:	4810      	ldr	r0, [pc, #64]	@ (2a0a8 <_start+0x23ac>)
   2a066:	4468      	add	r0, sp
   2a068:	900b      	str	r0, [sp, #44]	@ 0x2c
   2a06a:	2656      	movs	r6, #86	@ 0x56
   2a06c:	4632      	mov	r2, r6
   2a06e:	f000 fee9 	bl	2ae44 <__aeabi_memcpy4>
   2a072:	0e28      	lsrs	r0, r5, #24
   2a074:	71a0      	strb	r0, [r4, #6]
   2a076:	0c28      	lsrs	r0, r5, #16
   2a078:	7160      	strb	r0, [r4, #5]
   2a07a:	0a28      	lsrs	r0, r5, #8
   2a07c:	7120      	strb	r0, [r4, #4]
   2a07e:	70e5      	strb	r5, [r4, #3]
   2a080:	1de0      	adds	r0, r4, #7
   2a082:	990b      	ldr	r1, [sp, #44]	@ 0x2c
   2a084:	4632      	mov	r2, r6
   2a086:	f001 f83d 	bl	2b104 <__aeabi_memcpy>
   2a08a:	4d05      	ldr	r5, [pc, #20]	@ (2a0a0 <_start+0x23a4>)
   2a08c:	446d      	add	r5, sp
   2a08e:	4628      	mov	r0, r5
   2a090:	4621      	mov	r1, r4
   2a092:	f7f9 ffdd 	bl	24050 <_ZN20complex_dynamic_type3app17h81527989b2ca2695E>
   2a096:	7828      	ldrb	r0, [r5, #0]
   2a098:	2801      	cmp	r0, #1
   2a09a:	d107      	bne.n	2a0ac <_start+0x23b0>
   2a09c:	f000 fe1c 	bl	2acd8 <_start+0x2fdc>
   2a0a0:	00001404 	.word	0x00001404
   2a0a4:	00000d7c 	.word	0x00000d7c
   2a0a8:	000013a8 	.word	0x000013a8
   2a0ac:	4819      	ldr	r0, [pc, #100]	@ (2a114 <_start+0x2418>)
   2a0ae:	4468      	add	r0, sp
   2a0b0:	78c1      	ldrb	r1, [r0, #3]
   2a0b2:	4c19      	ldr	r4, [pc, #100]	@ (2a118 <_start+0x241c>)
   2a0b4:	446c      	add	r4, sp
   2a0b6:	70a1      	strb	r1, [r4, #2]
   2a0b8:	7841      	ldrb	r1, [r0, #1]
   2a0ba:	7882      	ldrb	r2, [r0, #2]
   2a0bc:	0212      	lsls	r2, r2, #8
   2a0be:	1851      	adds	r1, r2, r1
   2a0c0:	8021      	strh	r1, [r4, #0]
   2a0c2:	3008      	adds	r0, #8
   2a0c4:	9908      	ldr	r1, [sp, #32]
   2a0c6:	6e09      	ldr	r1, [r1, #96]	@ 0x60
   2a0c8:	910a      	str	r1, [sp, #40]	@ 0x28
   2a0ca:	4b14      	ldr	r3, [pc, #80]	@ (2a11c <_start+0x2420>)
   2a0cc:	446b      	add	r3, sp
   2a0ce:	930b      	str	r3, [sp, #44]	@ 0x2c
   2a0d0:	c864      	ldmia	r0!, {r2, r5, r6}
   2a0d2:	c364      	stmia	r3!, {r2, r5, r6}
   2a0d4:	c866      	ldmia	r0!, {r1, r2, r5, r6}
   2a0d6:	c366      	stmia	r3!, {r1, r2, r5, r6}
   2a0d8:	c826      	ldmia	r0!, {r1, r2, r5}
   2a0da:	c326      	stmia	r3!, {r1, r2, r5}
   2a0dc:	c866      	ldmia	r0!, {r1, r2, r5, r6}
   2a0de:	c366      	stmia	r3!, {r1, r2, r5, r6}
   2a0e0:	7800      	ldrb	r0, [r0, #0]
   2a0e2:	7018      	strb	r0, [r3, #0]
   2a0e4:	990a      	ldr	r1, [sp, #40]	@ 0x28
   2a0e6:	0e08      	lsrs	r0, r1, #24
   2a0e8:	71a0      	strb	r0, [r4, #6]
   2a0ea:	0c08      	lsrs	r0, r1, #16
   2a0ec:	7160      	strb	r0, [r4, #5]
   2a0ee:	0a08      	lsrs	r0, r1, #8
   2a0f0:	7120      	strb	r0, [r4, #4]
   2a0f2:	70e1      	strb	r1, [r4, #3]
   2a0f4:	1de0      	adds	r0, r4, #7
   2a0f6:	2239      	movs	r2, #57	@ 0x39
   2a0f8:	990b      	ldr	r1, [sp, #44]	@ 0x2c
   2a0fa:	f001 f803 	bl	2b104 <__aeabi_memcpy>
   2a0fe:	4d05      	ldr	r5, [pc, #20]	@ (2a114 <_start+0x2418>)
   2a100:	446d      	add	r5, sp
   2a102:	4628      	mov	r0, r5
   2a104:	4621      	mov	r1, r4
   2a106:	f7f8 fd07 	bl	22b18 <_ZN20complex_dynamic_type3app17h62d72f200aa91b56E>
   2a10a:	7828      	ldrb	r0, [r5, #0]
   2a10c:	2801      	cmp	r0, #1
   2a10e:	d107      	bne.n	2a120 <_start+0x2424>
   2a110:	f000 fde2 	bl	2acd8 <_start+0x2fdc>
   2a114:	00001404 	.word	0x00001404
   2a118:	00000ddc 	.word	0x00000ddc
   2a11c:	000013a8 	.word	0x000013a8
   2a120:	4818      	ldr	r0, [pc, #96]	@ (2a184 <_start+0x2488>)
   2a122:	4468      	add	r0, sp
   2a124:	78c1      	ldrb	r1, [r0, #3]
   2a126:	4c18      	ldr	r4, [pc, #96]	@ (2a188 <_start+0x248c>)
   2a128:	446c      	add	r4, sp
   2a12a:	70a1      	strb	r1, [r4, #2]
   2a12c:	7841      	ldrb	r1, [r0, #1]
   2a12e:	7882      	ldrb	r2, [r0, #2]
   2a130:	0212      	lsls	r2, r2, #8
   2a132:	1851      	adds	r1, r2, r1
   2a134:	8021      	strh	r1, [r4, #0]
   2a136:	3008      	adds	r0, #8
   2a138:	9908      	ldr	r1, [sp, #32]
   2a13a:	6e09      	ldr	r1, [r1, #96]	@ 0x60
   2a13c:	910a      	str	r1, [sp, #40]	@ 0x28
   2a13e:	4b13      	ldr	r3, [pc, #76]	@ (2a18c <_start+0x2490>)
   2a140:	446b      	add	r3, sp
   2a142:	930b      	str	r3, [sp, #44]	@ 0x2c
   2a144:	c864      	ldmia	r0!, {r2, r5, r6}
   2a146:	c364      	stmia	r3!, {r2, r5, r6}
   2a148:	c864      	ldmia	r0!, {r2, r5, r6}
   2a14a:	c364      	stmia	r3!, {r2, r5, r6}
   2a14c:	c866      	ldmia	r0!, {r1, r2, r5, r6}
   2a14e:	c366      	stmia	r3!, {r1, r2, r5, r6}
   2a150:	8800      	ldrh	r0, [r0, #0]
   2a152:	8018      	strh	r0, [r3, #0]
   2a154:	990a      	ldr	r1, [sp, #40]	@ 0x28
   2a156:	0e08      	lsrs	r0, r1, #24
   2a158:	71a0      	strb	r0, [r4, #6]
   2a15a:	0c08      	lsrs	r0, r1, #16
   2a15c:	7160      	strb	r0, [r4, #5]
   2a15e:	0a08      	lsrs	r0, r1, #8
   2a160:	7120      	strb	r0, [r4, #4]
   2a162:	70e1      	strb	r1, [r4, #3]
   2a164:	1de0      	adds	r0, r4, #7
   2a166:	222a      	movs	r2, #42	@ 0x2a
   2a168:	990b      	ldr	r1, [sp, #44]	@ 0x2c
   2a16a:	f000 ffcb 	bl	2b104 <__aeabi_memcpy>
   2a16e:	4d05      	ldr	r5, [pc, #20]	@ (2a184 <_start+0x2488>)
   2a170:	446d      	add	r5, sp
   2a172:	4628      	mov	r0, r5
   2a174:	4621      	mov	r1, r4
   2a176:	f7fb faa9 	bl	256cc <_ZN20complex_dynamic_type3app17hb0e062bcb26ee298E>
   2a17a:	7828      	ldrb	r0, [r5, #0]
   2a17c:	2801      	cmp	r0, #1
   2a17e:	d107      	bne.n	2a190 <_start+0x2494>
   2a180:	f000 fdaa 	bl	2acd8 <_start+0x2fdc>
   2a184:	00001404 	.word	0x00001404
   2a188:	00000e1c 	.word	0x00000e1c
   2a18c:	000013a8 	.word	0x000013a8
   2a190:	4915      	ldr	r1, [pc, #84]	@ (2a1e8 <_start+0x24ec>)
   2a192:	4469      	add	r1, sp
   2a194:	78c8      	ldrb	r0, [r1, #3]
   2a196:	4c15      	ldr	r4, [pc, #84]	@ (2a1ec <_start+0x24f0>)
   2a198:	446c      	add	r4, sp
   2a19a:	70a0      	strb	r0, [r4, #2]
   2a19c:	7848      	ldrb	r0, [r1, #1]
   2a19e:	788a      	ldrb	r2, [r1, #2]
   2a1a0:	0212      	lsls	r2, r2, #8
   2a1a2:	1810      	adds	r0, r2, r0
   2a1a4:	8020      	strh	r0, [r4, #0]
   2a1a6:	9808      	ldr	r0, [sp, #32]
   2a1a8:	6e05      	ldr	r5, [r0, #96]	@ 0x60
   2a1aa:	3108      	adds	r1, #8
   2a1ac:	4810      	ldr	r0, [pc, #64]	@ (2a1f0 <_start+0x24f4>)
   2a1ae:	4468      	add	r0, sp
   2a1b0:	900b      	str	r0, [sp, #44]	@ 0x2c
   2a1b2:	2641      	movs	r6, #65	@ 0x41
   2a1b4:	4632      	mov	r2, r6
   2a1b6:	f000 fe45 	bl	2ae44 <__aeabi_memcpy4>
   2a1ba:	0e28      	lsrs	r0, r5, #24
   2a1bc:	71a0      	strb	r0, [r4, #6]
   2a1be:	0c28      	lsrs	r0, r5, #16
   2a1c0:	7160      	strb	r0, [r4, #5]
   2a1c2:	0a28      	lsrs	r0, r5, #8
   2a1c4:	7120      	strb	r0, [r4, #4]
   2a1c6:	70e5      	strb	r5, [r4, #3]
   2a1c8:	1de0      	adds	r0, r4, #7
   2a1ca:	990b      	ldr	r1, [sp, #44]	@ 0x2c
   2a1cc:	4632      	mov	r2, r6
   2a1ce:	f000 ff99 	bl	2b104 <__aeabi_memcpy>
   2a1d2:	4d05      	ldr	r5, [pc, #20]	@ (2a1e8 <_start+0x24ec>)
   2a1d4:	446d      	add	r5, sp
   2a1d6:	4628      	mov	r0, r5
   2a1d8:	4621      	mov	r1, r4
   2a1da:	f7f9 fc95 	bl	23b08 <_ZN20complex_dynamic_type3app17h72e709d33412754cE>
   2a1de:	7828      	ldrb	r0, [r5, #0]
   2a1e0:	2801      	cmp	r0, #1
   2a1e2:	d107      	bne.n	2a1f4 <_start+0x24f8>
   2a1e4:	f000 fd78 	bl	2acd8 <_start+0x2fdc>
   2a1e8:	00001404 	.word	0x00001404
   2a1ec:	00000e50 	.word	0x00000e50
   2a1f0:	000013a8 	.word	0x000013a8
   2a1f4:	4817      	ldr	r0, [pc, #92]	@ (2a254 <_start+0x2558>)
   2a1f6:	4468      	add	r0, sp
   2a1f8:	78c1      	ldrb	r1, [r0, #3]
   2a1fa:	4c17      	ldr	r4, [pc, #92]	@ (2a258 <_start+0x255c>)
   2a1fc:	446c      	add	r4, sp
   2a1fe:	70a1      	strb	r1, [r4, #2]
   2a200:	7841      	ldrb	r1, [r0, #1]
   2a202:	7882      	ldrb	r2, [r0, #2]
   2a204:	0212      	lsls	r2, r2, #8
   2a206:	1851      	adds	r1, r2, r1
   2a208:	8021      	strh	r1, [r4, #0]
   2a20a:	3008      	adds	r0, #8
   2a20c:	9908      	ldr	r1, [sp, #32]
   2a20e:	6e09      	ldr	r1, [r1, #96]	@ 0x60
   2a210:	910a      	str	r1, [sp, #40]	@ 0x28
   2a212:	4b12      	ldr	r3, [pc, #72]	@ (2a25c <_start+0x2560>)
   2a214:	446b      	add	r3, sp
   2a216:	930b      	str	r3, [sp, #44]	@ 0x2c
   2a218:	c866      	ldmia	r0!, {r1, r2, r5, r6}
   2a21a:	c366      	stmia	r3!, {r1, r2, r5, r6}
   2a21c:	c866      	ldmia	r0!, {r1, r2, r5, r6}
   2a21e:	c366      	stmia	r3!, {r1, r2, r5, r6}
   2a220:	8800      	ldrh	r0, [r0, #0]
   2a222:	8018      	strh	r0, [r3, #0]
   2a224:	990a      	ldr	r1, [sp, #40]	@ 0x28
   2a226:	0e08      	lsrs	r0, r1, #24
   2a228:	71a0      	strb	r0, [r4, #6]
   2a22a:	0c08      	lsrs	r0, r1, #16
   2a22c:	7160      	strb	r0, [r4, #5]
   2a22e:	0a08      	lsrs	r0, r1, #8
   2a230:	7120      	strb	r0, [r4, #4]
   2a232:	70e1      	strb	r1, [r4, #3]
   2a234:	1de0      	adds	r0, r4, #7
   2a236:	2222      	movs	r2, #34	@ 0x22
   2a238:	990b      	ldr	r1, [sp, #44]	@ 0x2c
   2a23a:	f000 ff63 	bl	2b104 <__aeabi_memcpy>
   2a23e:	4d05      	ldr	r5, [pc, #20]	@ (2a254 <_start+0x2558>)
   2a240:	446d      	add	r5, sp
   2a242:	4628      	mov	r0, r5
   2a244:	4621      	mov	r1, r4
   2a246:	f7fa fafb 	bl	24840 <_ZN20complex_dynamic_type3app17h939f0ecb5916686bE>
   2a24a:	7828      	ldrb	r0, [r5, #0]
   2a24c:	2801      	cmp	r0, #1
   2a24e:	d107      	bne.n	2a260 <_start+0x2564>
   2a250:	f000 fd42 	bl	2acd8 <_start+0x2fdc>
   2a254:	00001404 	.word	0x00001404
   2a258:	00000e98 	.word	0x00000e98
   2a25c:	000013a8 	.word	0x000013a8
   2a260:	4817      	ldr	r0, [pc, #92]	@ (2a2c0 <_start+0x25c4>)
   2a262:	4468      	add	r0, sp
   2a264:	78c1      	ldrb	r1, [r0, #3]
   2a266:	4c17      	ldr	r4, [pc, #92]	@ (2a2c4 <_start+0x25c8>)
   2a268:	446c      	add	r4, sp
   2a26a:	70a1      	strb	r1, [r4, #2]
   2a26c:	7841      	ldrb	r1, [r0, #1]
   2a26e:	7882      	ldrb	r2, [r0, #2]
   2a270:	0212      	lsls	r2, r2, #8
   2a272:	1851      	adds	r1, r2, r1
   2a274:	8021      	strh	r1, [r4, #0]
   2a276:	3008      	adds	r0, #8
   2a278:	9908      	ldr	r1, [sp, #32]
   2a27a:	6e09      	ldr	r1, [r1, #96]	@ 0x60
   2a27c:	910a      	str	r1, [sp, #40]	@ 0x28
   2a27e:	4b12      	ldr	r3, [pc, #72]	@ (2a2c8 <_start+0x25cc>)
   2a280:	446b      	add	r3, sp
   2a282:	930b      	str	r3, [sp, #44]	@ 0x2c
   2a284:	c866      	ldmia	r0!, {r1, r2, r5, r6}
   2a286:	c366      	stmia	r3!, {r1, r2, r5, r6}
   2a288:	8801      	ldrh	r1, [r0, #0]
   2a28a:	8019      	strh	r1, [r3, #0]
   2a28c:	7880      	ldrb	r0, [r0, #2]
   2a28e:	7098      	strb	r0, [r3, #2]
   2a290:	990a      	ldr	r1, [sp, #40]	@ 0x28
   2a292:	0e08      	lsrs	r0, r1, #24
   2a294:	71a0      	strb	r0, [r4, #6]
   2a296:	0c08      	lsrs	r0, r1, #16
   2a298:	7160      	strb	r0, [r4, #5]
   2a29a:	0a08      	lsrs	r0, r1, #8
   2a29c:	7120      	strb	r0, [r4, #4]
   2a29e:	70e1      	strb	r1, [r4, #3]
   2a2a0:	1de0      	adds	r0, r4, #7
   2a2a2:	2213      	movs	r2, #19
   2a2a4:	990b      	ldr	r1, [sp, #44]	@ 0x2c
   2a2a6:	f000 ff2d 	bl	2b104 <__aeabi_memcpy>
   2a2aa:	4d05      	ldr	r5, [pc, #20]	@ (2a2c0 <_start+0x25c4>)
   2a2ac:	446d      	add	r5, sp
   2a2ae:	4628      	mov	r0, r5
   2a2b0:	4621      	mov	r1, r4
   2a2b2:	f7f6 fe59 	bl	20f68 <_ZN20complex_dynamic_type3app17h2a6f00d2547e6dedE>
   2a2b6:	7828      	ldrb	r0, [r5, #0]
   2a2b8:	2801      	cmp	r0, #1
   2a2ba:	d107      	bne.n	2a2cc <_start+0x25d0>
   2a2bc:	f000 fd0c 	bl	2acd8 <_start+0x2fdc>
   2a2c0:	00001404 	.word	0x00001404
   2a2c4:	00000ec4 	.word	0x00000ec4
   2a2c8:	000013a8 	.word	0x000013a8
   2a2cc:	4815      	ldr	r0, [pc, #84]	@ (2a324 <_start+0x2628>)
   2a2ce:	4468      	add	r0, sp
   2a2d0:	78c1      	ldrb	r1, [r0, #3]
   2a2d2:	4c15      	ldr	r4, [pc, #84]	@ (2a328 <_start+0x262c>)
   2a2d4:	446c      	add	r4, sp
   2a2d6:	70a1      	strb	r1, [r4, #2]
   2a2d8:	7841      	ldrb	r1, [r0, #1]
   2a2da:	7882      	ldrb	r2, [r0, #2]
   2a2dc:	0212      	lsls	r2, r2, #8
   2a2de:	1851      	adds	r1, r2, r1
   2a2e0:	8021      	strh	r1, [r4, #0]
   2a2e2:	3008      	adds	r0, #8
   2a2e4:	9908      	ldr	r1, [sp, #32]
   2a2e6:	6e09      	ldr	r1, [r1, #96]	@ 0x60
   2a2e8:	4b10      	ldr	r3, [pc, #64]	@ (2a32c <_start+0x2630>)
   2a2ea:	446b      	add	r3, sp
   2a2ec:	930b      	str	r3, [sp, #44]	@ 0x2c
   2a2ee:	c860      	ldmia	r0!, {r5, r6}
   2a2f0:	c360      	stmia	r3!, {r5, r6}
   2a2f2:	c864      	ldmia	r0!, {r2, r5, r6}
   2a2f4:	c364      	stmia	r3!, {r2, r5, r6}
   2a2f6:	0e08      	lsrs	r0, r1, #24
   2a2f8:	71a0      	strb	r0, [r4, #6]
   2a2fa:	0c08      	lsrs	r0, r1, #16
   2a2fc:	7160      	strb	r0, [r4, #5]
   2a2fe:	0a08      	lsrs	r0, r1, #8
   2a300:	7120      	strb	r0, [r4, #4]
   2a302:	70e1      	strb	r1, [r4, #3]
   2a304:	1de0      	adds	r0, r4, #7
   2a306:	2214      	movs	r2, #20
   2a308:	990b      	ldr	r1, [sp, #44]	@ 0x2c
   2a30a:	f000 fefb 	bl	2b104 <__aeabi_memcpy>
   2a30e:	4d05      	ldr	r5, [pc, #20]	@ (2a324 <_start+0x2628>)
   2a310:	446d      	add	r5, sp
   2a312:	4628      	mov	r0, r5
   2a314:	4621      	mov	r1, r4
   2a316:	f7fa ff31 	bl	2517c <_ZN20complex_dynamic_type3app17ha73eafe683c1060eE>
   2a31a:	7828      	ldrb	r0, [r5, #0]
   2a31c:	2801      	cmp	r0, #1
   2a31e:	d107      	bne.n	2a330 <_start+0x2634>
   2a320:	f000 fcda 	bl	2acd8 <_start+0x2fdc>
   2a324:	00001404 	.word	0x00001404
   2a328:	00000ee0 	.word	0x00000ee0
   2a32c:	000013a8 	.word	0x000013a8
   2a330:	4819      	ldr	r0, [pc, #100]	@ (2a398 <_start+0x269c>)
   2a332:	4468      	add	r0, sp
   2a334:	78c1      	ldrb	r1, [r0, #3]
   2a336:	4c19      	ldr	r4, [pc, #100]	@ (2a39c <_start+0x26a0>)
   2a338:	446c      	add	r4, sp
   2a33a:	70a1      	strb	r1, [r4, #2]
   2a33c:	7841      	ldrb	r1, [r0, #1]
   2a33e:	7882      	ldrb	r2, [r0, #2]
   2a340:	0212      	lsls	r2, r2, #8
   2a342:	1851      	adds	r1, r2, r1
   2a344:	8021      	strh	r1, [r4, #0]
   2a346:	3008      	adds	r0, #8
   2a348:	9908      	ldr	r1, [sp, #32]
   2a34a:	6e09      	ldr	r1, [r1, #96]	@ 0x60
   2a34c:	910a      	str	r1, [sp, #40]	@ 0x28
   2a34e:	4b14      	ldr	r3, [pc, #80]	@ (2a3a0 <_start+0x26a4>)
   2a350:	446b      	add	r3, sp
   2a352:	930b      	str	r3, [sp, #44]	@ 0x2c
   2a354:	c864      	ldmia	r0!, {r2, r5, r6}
   2a356:	c364      	stmia	r3!, {r2, r5, r6}
   2a358:	c866      	ldmia	r0!, {r1, r2, r5, r6}
   2a35a:	c366      	stmia	r3!, {r1, r2, r5, r6}
   2a35c:	c826      	ldmia	r0!, {r1, r2, r5}
   2a35e:	c326      	stmia	r3!, {r1, r2, r5}
   2a360:	c866      	ldmia	r0!, {r1, r2, r5, r6}
   2a362:	c366      	stmia	r3!, {r1, r2, r5, r6}
   2a364:	8800      	ldrh	r0, [r0, #0]
   2a366:	8018      	strh	r0, [r3, #0]
   2a368:	990a      	ldr	r1, [sp, #40]	@ 0x28
   2a36a:	0e08      	lsrs	r0, r1, #24
   2a36c:	71a0      	strb	r0, [r4, #6]
   2a36e:	0c08      	lsrs	r0, r1, #16
   2a370:	7160      	strb	r0, [r4, #5]
   2a372:	0a08      	lsrs	r0, r1, #8
   2a374:	7120      	strb	r0, [r4, #4]
   2a376:	70e1      	strb	r1, [r4, #3]
   2a378:	1de0      	adds	r0, r4, #7
   2a37a:	223a      	movs	r2, #58	@ 0x3a
   2a37c:	990b      	ldr	r1, [sp, #44]	@ 0x2c
   2a37e:	f000 fec1 	bl	2b104 <__aeabi_memcpy>
   2a382:	4d05      	ldr	r5, [pc, #20]	@ (2a398 <_start+0x269c>)
   2a384:	446d      	add	r5, sp
   2a386:	4628      	mov	r0, r5
   2a388:	4621      	mov	r1, r4
   2a38a:	f7f6 f8a9 	bl	204e0 <_ZN20complex_dynamic_type3app17h0dbe4a43c674bfb3E>
   2a38e:	7828      	ldrb	r0, [r5, #0]
   2a390:	2801      	cmp	r0, #1
   2a392:	d107      	bne.n	2a3a4 <_start+0x26a8>
   2a394:	f000 fca0 	bl	2acd8 <_start+0x2fdc>
   2a398:	00001404 	.word	0x00001404
   2a39c:	00000efc 	.word	0x00000efc
   2a3a0:	000013a8 	.word	0x000013a8
   2a3a4:	4816      	ldr	r0, [pc, #88]	@ (2a400 <_start+0x2704>)
   2a3a6:	4468      	add	r0, sp
   2a3a8:	78c1      	ldrb	r1, [r0, #3]
   2a3aa:	4c16      	ldr	r4, [pc, #88]	@ (2a404 <_start+0x2708>)
   2a3ac:	446c      	add	r4, sp
   2a3ae:	70a1      	strb	r1, [r4, #2]
   2a3b0:	7841      	ldrb	r1, [r0, #1]
   2a3b2:	7882      	ldrb	r2, [r0, #2]
   2a3b4:	0212      	lsls	r2, r2, #8
   2a3b6:	1851      	adds	r1, r2, r1
   2a3b8:	8021      	strh	r1, [r4, #0]
   2a3ba:	3008      	adds	r0, #8
   2a3bc:	9908      	ldr	r1, [sp, #32]
   2a3be:	6e09      	ldr	r1, [r1, #96]	@ 0x60
   2a3c0:	910a      	str	r1, [sp, #40]	@ 0x28
   2a3c2:	4b11      	ldr	r3, [pc, #68]	@ (2a408 <_start+0x270c>)
   2a3c4:	446b      	add	r3, sp
   2a3c6:	930b      	str	r3, [sp, #44]	@ 0x2c
   2a3c8:	c866      	ldmia	r0!, {r1, r2, r5, r6}
   2a3ca:	c366      	stmia	r3!, {r1, r2, r5, r6}
   2a3cc:	7800      	ldrb	r0, [r0, #0]
   2a3ce:	7018      	strb	r0, [r3, #0]
   2a3d0:	990a      	ldr	r1, [sp, #40]	@ 0x28
   2a3d2:	0e08      	lsrs	r0, r1, #24
   2a3d4:	71a0      	strb	r0, [r4, #6]
   2a3d6:	0c08      	lsrs	r0, r1, #16
   2a3d8:	7160      	strb	r0, [r4, #5]
   2a3da:	0a08      	lsrs	r0, r1, #8
   2a3dc:	7120      	strb	r0, [r4, #4]
   2a3de:	70e1      	strb	r1, [r4, #3]
   2a3e0:	1de0      	adds	r0, r4, #7
   2a3e2:	2211      	movs	r2, #17
   2a3e4:	990b      	ldr	r1, [sp, #44]	@ 0x2c
   2a3e6:	f000 fe8d 	bl	2b104 <__aeabi_memcpy>
   2a3ea:	4d05      	ldr	r5, [pc, #20]	@ (2a400 <_start+0x2704>)
   2a3ec:	446d      	add	r5, sp
   2a3ee:	4628      	mov	r0, r5
   2a3f0:	4621      	mov	r1, r4
   2a3f2:	f7f7 f909 	bl	21608 <_ZN20complex_dynamic_type3app17h38ca41f3bcbe670fE>
   2a3f6:	7828      	ldrb	r0, [r5, #0]
   2a3f8:	2801      	cmp	r0, #1
   2a3fa:	d107      	bne.n	2a40c <_start+0x2710>
   2a3fc:	f000 fc6c 	bl	2acd8 <_start+0x2fdc>
   2a400:	00001404 	.word	0x00001404
   2a404:	00000f40 	.word	0x00000f40
   2a408:	000013a8 	.word	0x000013a8
   2a40c:	4817      	ldr	r0, [pc, #92]	@ (2a46c <_start+0x2770>)
   2a40e:	4468      	add	r0, sp
   2a410:	78c1      	ldrb	r1, [r0, #3]
   2a412:	4c17      	ldr	r4, [pc, #92]	@ (2a470 <_start+0x2774>)
   2a414:	446c      	add	r4, sp
   2a416:	70a1      	strb	r1, [r4, #2]
   2a418:	7841      	ldrb	r1, [r0, #1]
   2a41a:	7882      	ldrb	r2, [r0, #2]
   2a41c:	0212      	lsls	r2, r2, #8
   2a41e:	1851      	adds	r1, r2, r1
   2a420:	8021      	strh	r1, [r4, #0]
   2a422:	3008      	adds	r0, #8
   2a424:	9908      	ldr	r1, [sp, #32]
   2a426:	6e09      	ldr	r1, [r1, #96]	@ 0x60
   2a428:	4b12      	ldr	r3, [pc, #72]	@ (2a474 <_start+0x2778>)
   2a42a:	446b      	add	r3, sp
   2a42c:	930b      	str	r3, [sp, #44]	@ 0x2c
   2a42e:	c860      	ldmia	r0!, {r5, r6}
   2a430:	c360      	stmia	r3!, {r5, r6}
   2a432:	c864      	ldmia	r0!, {r2, r5, r6}
   2a434:	c364      	stmia	r3!, {r2, r5, r6}
   2a436:	8802      	ldrh	r2, [r0, #0]
   2a438:	801a      	strh	r2, [r3, #0]
   2a43a:	7880      	ldrb	r0, [r0, #2]
   2a43c:	7098      	strb	r0, [r3, #2]
   2a43e:	0e08      	lsrs	r0, r1, #24
   2a440:	71a0      	strb	r0, [r4, #6]
   2a442:	0c08      	lsrs	r0, r1, #16
   2a444:	7160      	strb	r0, [r4, #5]
   2a446:	0a08      	lsrs	r0, r1, #8
   2a448:	7120      	strb	r0, [r4, #4]
   2a44a:	70e1      	strb	r1, [r4, #3]
   2a44c:	1de0      	adds	r0, r4, #7
   2a44e:	2217      	movs	r2, #23
   2a450:	990b      	ldr	r1, [sp, #44]	@ 0x2c
   2a452:	f000 fe57 	bl	2b104 <__aeabi_memcpy>
   2a456:	4d05      	ldr	r5, [pc, #20]	@ (2a46c <_start+0x2770>)
   2a458:	446d      	add	r5, sp
   2a45a:	4628      	mov	r0, r5
   2a45c:	4621      	mov	r1, r4
   2a45e:	f7f9 fe9f 	bl	241a0 <_ZN20complex_dynamic_type3app17h8604701c2fa17affE>
   2a462:	7828      	ldrb	r0, [r5, #0]
   2a464:	2801      	cmp	r0, #1
   2a466:	d107      	bne.n	2a478 <_start+0x277c>
   2a468:	f000 fc36 	bl	2acd8 <_start+0x2fdc>
   2a46c:	00001404 	.word	0x00001404
   2a470:	00000f58 	.word	0x00000f58
   2a474:	000013a8 	.word	0x000013a8
   2a478:	4819      	ldr	r0, [pc, #100]	@ (2a4e0 <_start+0x27e4>)
   2a47a:	4468      	add	r0, sp
   2a47c:	78c1      	ldrb	r1, [r0, #3]
   2a47e:	4c19      	ldr	r4, [pc, #100]	@ (2a4e4 <_start+0x27e8>)
   2a480:	446c      	add	r4, sp
   2a482:	70a1      	strb	r1, [r4, #2]
   2a484:	7841      	ldrb	r1, [r0, #1]
   2a486:	7882      	ldrb	r2, [r0, #2]
   2a488:	0212      	lsls	r2, r2, #8
   2a48a:	1851      	adds	r1, r2, r1
   2a48c:	8021      	strh	r1, [r4, #0]
   2a48e:	3008      	adds	r0, #8
   2a490:	9908      	ldr	r1, [sp, #32]
   2a492:	6e09      	ldr	r1, [r1, #96]	@ 0x60
   2a494:	910a      	str	r1, [sp, #40]	@ 0x28
   2a496:	4b14      	ldr	r3, [pc, #80]	@ (2a4e8 <_start+0x27ec>)
   2a498:	446b      	add	r3, sp
   2a49a:	930b      	str	r3, [sp, #44]	@ 0x2c
   2a49c:	c864      	ldmia	r0!, {r2, r5, r6}
   2a49e:	c364      	stmia	r3!, {r2, r5, r6}
   2a4a0:	c864      	ldmia	r0!, {r2, r5, r6}
   2a4a2:	c364      	stmia	r3!, {r2, r5, r6}
   2a4a4:	c864      	ldmia	r0!, {r2, r5, r6}
   2a4a6:	c364      	stmia	r3!, {r2, r5, r6}
   2a4a8:	c866      	ldmia	r0!, {r1, r2, r5, r6}
   2a4aa:	c366      	stmia	r3!, {r1, r2, r5, r6}
   2a4ac:	7800      	ldrb	r0, [r0, #0]
   2a4ae:	7018      	strb	r0, [r3, #0]
   2a4b0:	990a      	ldr	r1, [sp, #40]	@ 0x28
   2a4b2:	0e08      	lsrs	r0, r1, #24
   2a4b4:	71a0      	strb	r0, [r4, #6]
   2a4b6:	0c08      	lsrs	r0, r1, #16
   2a4b8:	7160      	strb	r0, [r4, #5]
   2a4ba:	0a08      	lsrs	r0, r1, #8
   2a4bc:	7120      	strb	r0, [r4, #4]
   2a4be:	70e1      	strb	r1, [r4, #3]
   2a4c0:	1de0      	adds	r0, r4, #7
   2a4c2:	2235      	movs	r2, #53	@ 0x35
   2a4c4:	990b      	ldr	r1, [sp, #44]	@ 0x2c
   2a4c6:	f000 fe1d 	bl	2b104 <__aeabi_memcpy>
   2a4ca:	4d05      	ldr	r5, [pc, #20]	@ (2a4e0 <_start+0x27e4>)
   2a4cc:	446d      	add	r5, sp
   2a4ce:	4628      	mov	r0, r5
   2a4d0:	4621      	mov	r1, r4
   2a4d2:	f7fc fd79 	bl	26fc8 <_ZN20complex_dynamic_type3app17heaa292a6d498a706E>
   2a4d6:	7828      	ldrb	r0, [r5, #0]
   2a4d8:	2801      	cmp	r0, #1
   2a4da:	d107      	bne.n	2a4ec <_start+0x27f0>
   2a4dc:	e3fc      	b.n	2acd8 <_start+0x2fdc>
   2a4de:	46c0      	nop			@ (mov r8, r8)
   2a4e0:	00001404 	.word	0x00001404
   2a4e4:	00000f78 	.word	0x00000f78
   2a4e8:	000013a8 	.word	0x000013a8
   2a4ec:	4817      	ldr	r0, [pc, #92]	@ (2a54c <_start+0x2850>)
   2a4ee:	4468      	add	r0, sp
   2a4f0:	78c1      	ldrb	r1, [r0, #3]
   2a4f2:	4c17      	ldr	r4, [pc, #92]	@ (2a550 <_start+0x2854>)
   2a4f4:	446c      	add	r4, sp
   2a4f6:	70a1      	strb	r1, [r4, #2]
   2a4f8:	7841      	ldrb	r1, [r0, #1]
   2a4fa:	7882      	ldrb	r2, [r0, #2]
   2a4fc:	0212      	lsls	r2, r2, #8
   2a4fe:	1851      	adds	r1, r2, r1
   2a500:	8021      	strh	r1, [r4, #0]
   2a502:	3008      	adds	r0, #8
   2a504:	9908      	ldr	r1, [sp, #32]
   2a506:	6e09      	ldr	r1, [r1, #96]	@ 0x60
   2a508:	4b12      	ldr	r3, [pc, #72]	@ (2a554 <_start+0x2858>)
   2a50a:	446b      	add	r3, sp
   2a50c:	930b      	str	r3, [sp, #44]	@ 0x2c
   2a50e:	c864      	ldmia	r0!, {r2, r5, r6}
   2a510:	c364      	stmia	r3!, {r2, r5, r6}
   2a512:	c864      	ldmia	r0!, {r2, r5, r6}
   2a514:	c364      	stmia	r3!, {r2, r5, r6}
   2a516:	c864      	ldmia	r0!, {r2, r5, r6}
   2a518:	c364      	stmia	r3!, {r2, r5, r6}
   2a51a:	7800      	ldrb	r0, [r0, #0]
   2a51c:	7018      	strb	r0, [r3, #0]
   2a51e:	0e08      	lsrs	r0, r1, #24
   2a520:	71a0      	strb	r0, [r4, #6]
   2a522:	0c08      	lsrs	r0, r1, #16
   2a524:	7160      	strb	r0, [r4, #5]
   2a526:	0a08      	lsrs	r0, r1, #8
   2a528:	7120      	strb	r0, [r4, #4]
   2a52a:	70e1      	strb	r1, [r4, #3]
   2a52c:	1de0      	adds	r0, r4, #7
   2a52e:	2225      	movs	r2, #37	@ 0x25
   2a530:	990b      	ldr	r1, [sp, #44]	@ 0x2c
   2a532:	f000 fde7 	bl	2b104 <__aeabi_memcpy>
   2a536:	4d05      	ldr	r5, [pc, #20]	@ (2a54c <_start+0x2850>)
   2a538:	446d      	add	r5, sp
   2a53a:	4628      	mov	r0, r5
   2a53c:	4621      	mov	r1, r4
   2a53e:	f7fb f81d 	bl	2557c <_ZN20complex_dynamic_type3app17hab3aae19010a9fcdE>
   2a542:	7828      	ldrb	r0, [r5, #0]
   2a544:	2801      	cmp	r0, #1
   2a546:	d107      	bne.n	2a558 <_start+0x285c>
   2a548:	e3c6      	b.n	2acd8 <_start+0x2fdc>
   2a54a:	46c0      	nop			@ (mov r8, r8)
   2a54c:	00001404 	.word	0x00001404
   2a550:	00000fb4 	.word	0x00000fb4
   2a554:	000013a8 	.word	0x000013a8
   2a558:	4816      	ldr	r0, [pc, #88]	@ (2a5b4 <_start+0x28b8>)
   2a55a:	4468      	add	r0, sp
   2a55c:	78c1      	ldrb	r1, [r0, #3]
   2a55e:	4c16      	ldr	r4, [pc, #88]	@ (2a5b8 <_start+0x28bc>)
   2a560:	446c      	add	r4, sp
   2a562:	70a1      	strb	r1, [r4, #2]
   2a564:	7841      	ldrb	r1, [r0, #1]
   2a566:	7882      	ldrb	r2, [r0, #2]
   2a568:	0212      	lsls	r2, r2, #8
   2a56a:	1851      	adds	r1, r2, r1
   2a56c:	8021      	strh	r1, [r4, #0]
   2a56e:	3008      	adds	r0, #8
   2a570:	9908      	ldr	r1, [sp, #32]
   2a572:	6e09      	ldr	r1, [r1, #96]	@ 0x60
   2a574:	910a      	str	r1, [sp, #40]	@ 0x28
   2a576:	4b11      	ldr	r3, [pc, #68]	@ (2a5bc <_start+0x28c0>)
   2a578:	446b      	add	r3, sp
   2a57a:	930b      	str	r3, [sp, #44]	@ 0x2c
   2a57c:	c866      	ldmia	r0!, {r1, r2, r5, r6}
   2a57e:	c366      	stmia	r3!, {r1, r2, r5, r6}
   2a580:	c866      	ldmia	r0!, {r1, r2, r5, r6}
   2a582:	c366      	stmia	r3!, {r1, r2, r5, r6}
   2a584:	990a      	ldr	r1, [sp, #40]	@ 0x28
   2a586:	0e08      	lsrs	r0, r1, #24
   2a588:	71a0      	strb	r0, [r4, #6]
   2a58a:	0c08      	lsrs	r0, r1, #16
   2a58c:	7160      	strb	r0, [r4, #5]
   2a58e:	0a08      	lsrs	r0, r1, #8
   2a590:	7120      	strb	r0, [r4, #4]
   2a592:	70e1      	strb	r1, [r4, #3]
   2a594:	1de0      	adds	r0, r4, #7
   2a596:	2220      	movs	r2, #32
   2a598:	990b      	ldr	r1, [sp, #44]	@ 0x2c
   2a59a:	f000 fdb3 	bl	2b104 <__aeabi_memcpy>
   2a59e:	4d05      	ldr	r5, [pc, #20]	@ (2a5b4 <_start+0x28b8>)
   2a5a0:	446d      	add	r5, sp
   2a5a2:	4628      	mov	r0, r5
   2a5a4:	4621      	mov	r1, r4
   2a5a6:	f7fc ff0b 	bl	273c0 <_ZN20complex_dynamic_type3app17hefbe4250dbf88137E>
   2a5aa:	7828      	ldrb	r0, [r5, #0]
   2a5ac:	2801      	cmp	r0, #1
   2a5ae:	d107      	bne.n	2a5c0 <_start+0x28c4>
   2a5b0:	e392      	b.n	2acd8 <_start+0x2fdc>
   2a5b2:	46c0      	nop			@ (mov r8, r8)
   2a5b4:	00001404 	.word	0x00001404
   2a5b8:	00000fe0 	.word	0x00000fe0
   2a5bc:	000013a8 	.word	0x000013a8
   2a5c0:	4915      	ldr	r1, [pc, #84]	@ (2a618 <_start+0x291c>)
   2a5c2:	4469      	add	r1, sp
   2a5c4:	78c8      	ldrb	r0, [r1, #3]
   2a5c6:	4c15      	ldr	r4, [pc, #84]	@ (2a61c <_start+0x2920>)
   2a5c8:	446c      	add	r4, sp
   2a5ca:	70a0      	strb	r0, [r4, #2]
   2a5cc:	7848      	ldrb	r0, [r1, #1]
   2a5ce:	788a      	ldrb	r2, [r1, #2]
   2a5d0:	0212      	lsls	r2, r2, #8
   2a5d2:	1810      	adds	r0, r2, r0
   2a5d4:	8020      	strh	r0, [r4, #0]
   2a5d6:	9808      	ldr	r0, [sp, #32]
   2a5d8:	6e05      	ldr	r5, [r0, #96]	@ 0x60
   2a5da:	3108      	adds	r1, #8
   2a5dc:	4810      	ldr	r0, [pc, #64]	@ (2a620 <_start+0x2924>)
   2a5de:	4468      	add	r0, sp
   2a5e0:	900b      	str	r0, [sp, #44]	@ 0x2c
   2a5e2:	2648      	movs	r6, #72	@ 0x48
   2a5e4:	4632      	mov	r2, r6
   2a5e6:	f000 fc2d 	bl	2ae44 <__aeabi_memcpy4>
   2a5ea:	0e28      	lsrs	r0, r5, #24
   2a5ec:	71a0      	strb	r0, [r4, #6]
   2a5ee:	0c28      	lsrs	r0, r5, #16
   2a5f0:	7160      	strb	r0, [r4, #5]
   2a5f2:	0a28      	lsrs	r0, r5, #8
   2a5f4:	7120      	strb	r0, [r4, #4]
   2a5f6:	70e5      	strb	r5, [r4, #3]
   2a5f8:	1de0      	adds	r0, r4, #7
   2a5fa:	990b      	ldr	r1, [sp, #44]	@ 0x2c
   2a5fc:	4632      	mov	r2, r6
   2a5fe:	f000 fd81 	bl	2b104 <__aeabi_memcpy>
   2a602:	4d05      	ldr	r5, [pc, #20]	@ (2a618 <_start+0x291c>)
   2a604:	446d      	add	r5, sp
   2a606:	4628      	mov	r0, r5
   2a608:	4621      	mov	r1, r4
   2a60a:	f7f6 f80f 	bl	2062c <_ZN20complex_dynamic_type3app17h0fa1d1db20662b43E>
   2a60e:	7828      	ldrb	r0, [r5, #0]
   2a610:	2801      	cmp	r0, #1
   2a612:	d107      	bne.n	2a624 <_start+0x2928>
   2a614:	e360      	b.n	2acd8 <_start+0x2fdc>
   2a616:	46c0      	nop			@ (mov r8, r8)
   2a618:	00001404 	.word	0x00001404
   2a61c:	00001008 	.word	0x00001008
   2a620:	000013a8 	.word	0x000013a8
   2a624:	4818      	ldr	r0, [pc, #96]	@ (2a688 <_start+0x298c>)
   2a626:	4468      	add	r0, sp
   2a628:	78c1      	ldrb	r1, [r0, #3]
   2a62a:	4c18      	ldr	r4, [pc, #96]	@ (2a68c <_start+0x2990>)
   2a62c:	446c      	add	r4, sp
   2a62e:	70a1      	strb	r1, [r4, #2]
   2a630:	7841      	ldrb	r1, [r0, #1]
   2a632:	7882      	ldrb	r2, [r0, #2]
   2a634:	0212      	lsls	r2, r2, #8
   2a636:	1851      	adds	r1, r2, r1
   2a638:	8021      	strh	r1, [r4, #0]
   2a63a:	3008      	adds	r0, #8
   2a63c:	9908      	ldr	r1, [sp, #32]
   2a63e:	6e09      	ldr	r1, [r1, #96]	@ 0x60
   2a640:	910a      	str	r1, [sp, #40]	@ 0x28
   2a642:	4b13      	ldr	r3, [pc, #76]	@ (2a690 <_start+0x2994>)
   2a644:	446b      	add	r3, sp
   2a646:	930b      	str	r3, [sp, #44]	@ 0x2c
   2a648:	c864      	ldmia	r0!, {r2, r5, r6}
   2a64a:	c364      	stmia	r3!, {r2, r5, r6}
   2a64c:	c866      	ldmia	r0!, {r1, r2, r5, r6}
   2a64e:	c366      	stmia	r3!, {r1, r2, r5, r6}
   2a650:	c866      	ldmia	r0!, {r1, r2, r5, r6}
   2a652:	c366      	stmia	r3!, {r1, r2, r5, r6}
   2a654:	8800      	ldrh	r0, [r0, #0]
   2a656:	8018      	strh	r0, [r3, #0]
   2a658:	990a      	ldr	r1, [sp, #40]	@ 0x28
   2a65a:	0e08      	lsrs	r0, r1, #24
   2a65c:	71a0      	strb	r0, [r4, #6]
   2a65e:	0c08      	lsrs	r0, r1, #16
   2a660:	7160      	strb	r0, [r4, #5]
   2a662:	0a08      	lsrs	r0, r1, #8
   2a664:	7120      	strb	r0, [r4, #4]
   2a666:	70e1      	strb	r1, [r4, #3]
   2a668:	1de0      	adds	r0, r4, #7
   2a66a:	222e      	movs	r2, #46	@ 0x2e
   2a66c:	990b      	ldr	r1, [sp, #44]	@ 0x2c
   2a66e:	f000 fd49 	bl	2b104 <__aeabi_memcpy>
   2a672:	4d05      	ldr	r5, [pc, #20]	@ (2a688 <_start+0x298c>)
   2a674:	446d      	add	r5, sp
   2a676:	4628      	mov	r0, r5
   2a678:	4621      	mov	r1, r4
   2a67a:	f7fb fac5 	bl	25c08 <_ZN20complex_dynamic_type3app17hc1920f6e2c214a02E>
   2a67e:	7828      	ldrb	r0, [r5, #0]
   2a680:	2801      	cmp	r0, #1
   2a682:	d107      	bne.n	2a694 <_start+0x2998>
   2a684:	e328      	b.n	2acd8 <_start+0x2fdc>
   2a686:	46c0      	nop			@ (mov r8, r8)
   2a688:	00001404 	.word	0x00001404
   2a68c:	00001058 	.word	0x00001058
   2a690:	000013a8 	.word	0x000013a8
   2a694:	4818      	ldr	r0, [pc, #96]	@ (2a6f8 <_start+0x29fc>)
   2a696:	4468      	add	r0, sp
   2a698:	78c1      	ldrb	r1, [r0, #3]
   2a69a:	4c18      	ldr	r4, [pc, #96]	@ (2a6fc <_start+0x2a00>)
   2a69c:	446c      	add	r4, sp
   2a69e:	70a1      	strb	r1, [r4, #2]
   2a6a0:	7841      	ldrb	r1, [r0, #1]
   2a6a2:	7882      	ldrb	r2, [r0, #2]
   2a6a4:	0212      	lsls	r2, r2, #8
   2a6a6:	1851      	adds	r1, r2, r1
   2a6a8:	8021      	strh	r1, [r4, #0]
   2a6aa:	3008      	adds	r0, #8
   2a6ac:	9908      	ldr	r1, [sp, #32]
   2a6ae:	6e09      	ldr	r1, [r1, #96]	@ 0x60
   2a6b0:	910a      	str	r1, [sp, #40]	@ 0x28
   2a6b2:	4b13      	ldr	r3, [pc, #76]	@ (2a700 <_start+0x2a04>)
   2a6b4:	446b      	add	r3, sp
   2a6b6:	930b      	str	r3, [sp, #44]	@ 0x2c
   2a6b8:	c864      	ldmia	r0!, {r2, r5, r6}
   2a6ba:	c364      	stmia	r3!, {r2, r5, r6}
   2a6bc:	c866      	ldmia	r0!, {r1, r2, r5, r6}
   2a6be:	c366      	stmia	r3!, {r1, r2, r5, r6}
   2a6c0:	c826      	ldmia	r0!, {r1, r2, r5}
   2a6c2:	c326      	stmia	r3!, {r1, r2, r5}
   2a6c4:	c866      	ldmia	r0!, {r1, r2, r5, r6}
   2a6c6:	c366      	stmia	r3!, {r1, r2, r5, r6}
   2a6c8:	990a      	ldr	r1, [sp, #40]	@ 0x28
   2a6ca:	0e08      	lsrs	r0, r1, #24
   2a6cc:	71a0      	strb	r0, [r4, #6]
   2a6ce:	0c08      	lsrs	r0, r1, #16
   2a6d0:	7160      	strb	r0, [r4, #5]
   2a6d2:	0a08      	lsrs	r0, r1, #8
   2a6d4:	7120      	strb	r0, [r4, #4]
   2a6d6:	70e1      	strb	r1, [r4, #3]
   2a6d8:	1de0      	adds	r0, r4, #7
   2a6da:	2238      	movs	r2, #56	@ 0x38
   2a6dc:	990b      	ldr	r1, [sp, #44]	@ 0x2c
   2a6de:	f000 fd11 	bl	2b104 <__aeabi_memcpy>
   2a6e2:	4d05      	ldr	r5, [pc, #20]	@ (2a6f8 <_start+0x29fc>)
   2a6e4:	446d      	add	r5, sp
   2a6e6:	4628      	mov	r0, r5
   2a6e8:	4621      	mov	r1, r4
   2a6ea:	f7f7 fb7d 	bl	21de8 <_ZN20complex_dynamic_type3app17h450f80b7b9918562E>
   2a6ee:	7828      	ldrb	r0, [r5, #0]
   2a6f0:	2801      	cmp	r0, #1
   2a6f2:	d107      	bne.n	2a704 <_start+0x2a08>
   2a6f4:	e2f0      	b.n	2acd8 <_start+0x2fdc>
   2a6f6:	46c0      	nop			@ (mov r8, r8)
   2a6f8:	00001404 	.word	0x00001404
   2a6fc:	00001090 	.word	0x00001090
   2a700:	000013a8 	.word	0x000013a8
   2a704:	4914      	ldr	r1, [pc, #80]	@ (2a758 <_start+0x2a5c>)
   2a706:	4469      	add	r1, sp
   2a708:	9b08      	ldr	r3, [sp, #32]
   2a70a:	6ed8      	ldr	r0, [r3, #108]	@ 0x6c
   2a70c:	8108      	strh	r0, [r1, #8]
   2a70e:	4813      	ldr	r0, [pc, #76]	@ (2a75c <_start+0x2a60>)
   2a710:	4468      	add	r0, sp
   2a712:	78c2      	ldrb	r2, [r0, #3]
   2a714:	4c12      	ldr	r4, [pc, #72]	@ (2a760 <_start+0x2a64>)
   2a716:	446c      	add	r4, sp
   2a718:	70a2      	strb	r2, [r4, #2]
   2a71a:	7842      	ldrb	r2, [r0, #1]
   2a71c:	7880      	ldrb	r0, [r0, #2]
   2a71e:	0200      	lsls	r0, r0, #8
   2a720:	1880      	adds	r0, r0, r2
   2a722:	8020      	strh	r0, [r4, #0]
   2a724:	6e18      	ldr	r0, [r3, #96]	@ 0x60
   2a726:	70e0      	strb	r0, [r4, #3]
   2a728:	0e02      	lsrs	r2, r0, #24
   2a72a:	71a2      	strb	r2, [r4, #6]
   2a72c:	0c02      	lsrs	r2, r0, #16
   2a72e:	7162      	strb	r2, [r4, #5]
   2a730:	0a00      	lsrs	r0, r0, #8
   2a732:	7120      	strb	r0, [r4, #4]
   2a734:	6e58      	ldr	r0, [r3, #100]	@ 0x64
   2a736:	6e9a      	ldr	r2, [r3, #104]	@ 0x68
   2a738:	c305      	stmia	r3!, {r0, r2}
   2a73a:	1de0      	adds	r0, r4, #7
   2a73c:	220a      	movs	r2, #10
   2a73e:	f000 fce1 	bl	2b104 <__aeabi_memcpy>
   2a742:	4d06      	ldr	r5, [pc, #24]	@ (2a75c <_start+0x2a60>)
   2a744:	446d      	add	r5, sp
   2a746:	4628      	mov	r0, r5
   2a748:	4621      	mov	r1, r4
   2a74a:	f7fc fae5 	bl	26d18 <_ZN20complex_dynamic_type3app17he260d34d3a0b2777E>
   2a74e:	7828      	ldrb	r0, [r5, #0]
   2a750:	2801      	cmp	r0, #1
   2a752:	d107      	bne.n	2a764 <_start+0x2a68>
   2a754:	e2c0      	b.n	2acd8 <_start+0x2fdc>
   2a756:	46c0      	nop			@ (mov r8, r8)
   2a758:	000013a8 	.word	0x000013a8
   2a75c:	00001404 	.word	0x00001404
   2a760:	000010d0 	.word	0x000010d0
   2a764:	4818      	ldr	r0, [pc, #96]	@ (2a7c8 <_start+0x2acc>)
   2a766:	4468      	add	r0, sp
   2a768:	78c1      	ldrb	r1, [r0, #3]
   2a76a:	4c18      	ldr	r4, [pc, #96]	@ (2a7cc <_start+0x2ad0>)
   2a76c:	446c      	add	r4, sp
   2a76e:	70a1      	strb	r1, [r4, #2]
   2a770:	7841      	ldrb	r1, [r0, #1]
   2a772:	7882      	ldrb	r2, [r0, #2]
   2a774:	0212      	lsls	r2, r2, #8
   2a776:	1851      	adds	r1, r2, r1
   2a778:	8021      	strh	r1, [r4, #0]
   2a77a:	3008      	adds	r0, #8
   2a77c:	9908      	ldr	r1, [sp, #32]
   2a77e:	6e09      	ldr	r1, [r1, #96]	@ 0x60
   2a780:	910a      	str	r1, [sp, #40]	@ 0x28
   2a782:	4b13      	ldr	r3, [pc, #76]	@ (2a7d0 <_start+0x2ad4>)
   2a784:	446b      	add	r3, sp
   2a786:	930b      	str	r3, [sp, #44]	@ 0x2c
   2a788:	c864      	ldmia	r0!, {r2, r5, r6}
   2a78a:	c364      	stmia	r3!, {r2, r5, r6}
   2a78c:	c866      	ldmia	r0!, {r1, r2, r5, r6}
   2a78e:	c366      	stmia	r3!, {r1, r2, r5, r6}
   2a790:	c826      	ldmia	r0!, {r1, r2, r5}
   2a792:	c326      	stmia	r3!, {r1, r2, r5}
   2a794:	c866      	ldmia	r0!, {r1, r2, r5, r6}
   2a796:	c366      	stmia	r3!, {r1, r2, r5, r6}
   2a798:	990a      	ldr	r1, [sp, #40]	@ 0x28
   2a79a:	0e08      	lsrs	r0, r1, #24
   2a79c:	71a0      	strb	r0, [r4, #6]
   2a79e:	0c08      	lsrs	r0, r1, #16
   2a7a0:	7160      	strb	r0, [r4, #5]
   2a7a2:	0a08      	lsrs	r0, r1, #8
   2a7a4:	7120      	strb	r0, [r4, #4]
   2a7a6:	70e1      	strb	r1, [r4, #3]
   2a7a8:	1de0      	adds	r0, r4, #7
   2a7aa:	2238      	movs	r2, #56	@ 0x38
   2a7ac:	990b      	ldr	r1, [sp, #44]	@ 0x2c
   2a7ae:	f000 fca9 	bl	2b104 <__aeabi_memcpy>
   2a7b2:	4d05      	ldr	r5, [pc, #20]	@ (2a7c8 <_start+0x2acc>)
   2a7b4:	446d      	add	r5, sp
   2a7b6:	4628      	mov	r0, r5
   2a7b8:	4621      	mov	r1, r4
   2a7ba:	f7f8 fcfd 	bl	231b8 <_ZN20complex_dynamic_type3app17h69a3c6ce973b664eE>
   2a7be:	7828      	ldrb	r0, [r5, #0]
   2a7c0:	2801      	cmp	r0, #1
   2a7c2:	d107      	bne.n	2a7d4 <_start+0x2ad8>
   2a7c4:	e288      	b.n	2acd8 <_start+0x2fdc>
   2a7c6:	46c0      	nop			@ (mov r8, r8)
   2a7c8:	00001404 	.word	0x00001404
   2a7cc:	000010e4 	.word	0x000010e4
   2a7d0:	000013a8 	.word	0x000013a8
   2a7d4:	4816      	ldr	r0, [pc, #88]	@ (2a830 <_start+0x2b34>)
   2a7d6:	4468      	add	r0, sp
   2a7d8:	78c1      	ldrb	r1, [r0, #3]
   2a7da:	4c16      	ldr	r4, [pc, #88]	@ (2a834 <_start+0x2b38>)
   2a7dc:	446c      	add	r4, sp
   2a7de:	70a1      	strb	r1, [r4, #2]
   2a7e0:	7841      	ldrb	r1, [r0, #1]
   2a7e2:	7882      	ldrb	r2, [r0, #2]
   2a7e4:	0212      	lsls	r2, r2, #8
   2a7e6:	1851      	adds	r1, r2, r1
   2a7e8:	8021      	strh	r1, [r4, #0]
   2a7ea:	3008      	adds	r0, #8
   2a7ec:	9908      	ldr	r1, [sp, #32]
   2a7ee:	6e09      	ldr	r1, [r1, #96]	@ 0x60
   2a7f0:	4b11      	ldr	r3, [pc, #68]	@ (2a838 <_start+0x2b3c>)
   2a7f2:	446b      	add	r3, sp
   2a7f4:	930b      	str	r3, [sp, #44]	@ 0x2c
   2a7f6:	c860      	ldmia	r0!, {r5, r6}
   2a7f8:	c360      	stmia	r3!, {r5, r6}
   2a7fa:	c864      	ldmia	r0!, {r2, r5, r6}
   2a7fc:	c364      	stmia	r3!, {r2, r5, r6}
   2a7fe:	7800      	ldrb	r0, [r0, #0]
   2a800:	7018      	strb	r0, [r3, #0]
   2a802:	0e08      	lsrs	r0, r1, #24
   2a804:	71a0      	strb	r0, [r4, #6]
   2a806:	0c08      	lsrs	r0, r1, #16
   2a808:	7160      	strb	r0, [r4, #5]
   2a80a:	0a08      	lsrs	r0, r1, #8
   2a80c:	7120      	strb	r0, [r4, #4]
   2a80e:	70e1      	strb	r1, [r4, #3]
   2a810:	1de0      	adds	r0, r4, #7
   2a812:	2215      	movs	r2, #21
   2a814:	990b      	ldr	r1, [sp, #44]	@ 0x2c
   2a816:	f000 fc75 	bl	2b104 <__aeabi_memcpy>
   2a81a:	4d05      	ldr	r5, [pc, #20]	@ (2a830 <_start+0x2b34>)
   2a81c:	446d      	add	r5, sp
   2a81e:	4628      	mov	r0, r5
   2a820:	4621      	mov	r1, r4
   2a822:	f7fa fc03 	bl	2502c <_ZN20complex_dynamic_type3app17ha069f7b2b7fe5354E>
   2a826:	7828      	ldrb	r0, [r5, #0]
   2a828:	2801      	cmp	r0, #1
   2a82a:	d107      	bne.n	2a83c <_start+0x2b40>
   2a82c:	e254      	b.n	2acd8 <_start+0x2fdc>
   2a82e:	46c0      	nop			@ (mov r8, r8)
   2a830:	00001404 	.word	0x00001404
   2a834:	00001124 	.word	0x00001124
   2a838:	000013a8 	.word	0x000013a8
   2a83c:	4915      	ldr	r1, [pc, #84]	@ (2a894 <_start+0x2b98>)
   2a83e:	4469      	add	r1, sp
   2a840:	78c8      	ldrb	r0, [r1, #3]
   2a842:	4c15      	ldr	r4, [pc, #84]	@ (2a898 <_start+0x2b9c>)
   2a844:	446c      	add	r4, sp
   2a846:	70a0      	strb	r0, [r4, #2]
   2a848:	7848      	ldrb	r0, [r1, #1]
   2a84a:	788a      	ldrb	r2, [r1, #2]
   2a84c:	0212      	lsls	r2, r2, #8
   2a84e:	1810      	adds	r0, r2, r0
   2a850:	8020      	strh	r0, [r4, #0]
   2a852:	9808      	ldr	r0, [sp, #32]
   2a854:	6e05      	ldr	r5, [r0, #96]	@ 0x60
   2a856:	3108      	adds	r1, #8
   2a858:	4810      	ldr	r0, [pc, #64]	@ (2a89c <_start+0x2ba0>)
   2a85a:	4468      	add	r0, sp
   2a85c:	900b      	str	r0, [sp, #44]	@ 0x2c
   2a85e:	2656      	movs	r6, #86	@ 0x56
   2a860:	4632      	mov	r2, r6
   2a862:	f000 faef 	bl	2ae44 <__aeabi_memcpy4>
   2a866:	0e28      	lsrs	r0, r5, #24
   2a868:	71a0      	strb	r0, [r4, #6]
   2a86a:	0c28      	lsrs	r0, r5, #16
   2a86c:	7160      	strb	r0, [r4, #5]
   2a86e:	0a28      	lsrs	r0, r5, #8
   2a870:	7120      	strb	r0, [r4, #4]
   2a872:	70e5      	strb	r5, [r4, #3]
   2a874:	1de0      	adds	r0, r4, #7
   2a876:	990b      	ldr	r1, [sp, #44]	@ 0x2c
   2a878:	4632      	mov	r2, r6
   2a87a:	f000 fc43 	bl	2b104 <__aeabi_memcpy>
   2a87e:	4d05      	ldr	r5, [pc, #20]	@ (2a894 <_start+0x2b98>)
   2a880:	446d      	add	r5, sp
   2a882:	4628      	mov	r0, r5
   2a884:	4621      	mov	r1, r4
   2a886:	f7f8 ffeb 	bl	23860 <_ZN20complex_dynamic_type3app17h70d996df3f403f45E>
   2a88a:	7828      	ldrb	r0, [r5, #0]
   2a88c:	2801      	cmp	r0, #1
   2a88e:	d107      	bne.n	2a8a0 <_start+0x2ba4>
   2a890:	e222      	b.n	2acd8 <_start+0x2fdc>
   2a892:	46c0      	nop			@ (mov r8, r8)
   2a894:	00001404 	.word	0x00001404
   2a898:	00001140 	.word	0x00001140
   2a89c:	000013a8 	.word	0x000013a8
   2a8a0:	4915      	ldr	r1, [pc, #84]	@ (2a8f8 <_start+0x2bfc>)
   2a8a2:	4469      	add	r1, sp
   2a8a4:	9b08      	ldr	r3, [sp, #32]
   2a8a6:	6ed8      	ldr	r0, [r3, #108]	@ 0x6c
   2a8a8:	8108      	strh	r0, [r1, #8]
   2a8aa:	4814      	ldr	r0, [pc, #80]	@ (2a8fc <_start+0x2c00>)
   2a8ac:	4468      	add	r0, sp
   2a8ae:	78c2      	ldrb	r2, [r0, #3]
   2a8b0:	4c13      	ldr	r4, [pc, #76]	@ (2a900 <_start+0x2c04>)
   2a8b2:	446c      	add	r4, sp
   2a8b4:	70a2      	strb	r2, [r4, #2]
   2a8b6:	7c82      	ldrb	r2, [r0, #18]
   2a8b8:	728a      	strb	r2, [r1, #10]
   2a8ba:	7842      	ldrb	r2, [r0, #1]
   2a8bc:	7880      	ldrb	r0, [r0, #2]
   2a8be:	0200      	lsls	r0, r0, #8
   2a8c0:	1880      	adds	r0, r0, r2
   2a8c2:	8020      	strh	r0, [r4, #0]
   2a8c4:	6e18      	ldr	r0, [r3, #96]	@ 0x60
   2a8c6:	70e0      	strb	r0, [r4, #3]
   2a8c8:	0e02      	lsrs	r2, r0, #24
   2a8ca:	71a2      	strb	r2, [r4, #6]
   2a8cc:	0c02      	lsrs	r2, r0, #16
   2a8ce:	7162      	strb	r2, [r4, #5]
   2a8d0:	0a00      	lsrs	r0, r0, #8
   2a8d2:	7120      	strb	r0, [r4, #4]
   2a8d4:	6e58      	ldr	r0, [r3, #100]	@ 0x64
   2a8d6:	6e9a      	ldr	r2, [r3, #104]	@ 0x68
   2a8d8:	c305      	stmia	r3!, {r0, r2}
   2a8da:	1de0      	adds	r0, r4, #7
   2a8dc:	220b      	movs	r2, #11
   2a8de:	f000 fc11 	bl	2b104 <__aeabi_memcpy>
   2a8e2:	4d06      	ldr	r5, [pc, #24]	@ (2a8fc <_start+0x2c00>)
   2a8e4:	446d      	add	r5, sp
   2a8e6:	4628      	mov	r0, r5
   2a8e8:	4621      	mov	r1, r4
   2a8ea:	f7f6 fa91 	bl	20e10 <_ZN20complex_dynamic_type3app17h2875d8247c0d3625E>
   2a8ee:	7828      	ldrb	r0, [r5, #0]
   2a8f0:	2801      	cmp	r0, #1
   2a8f2:	d107      	bne.n	2a904 <_start+0x2c08>
   2a8f4:	e1f0      	b.n	2acd8 <_start+0x2fdc>
   2a8f6:	46c0      	nop			@ (mov r8, r8)
   2a8f8:	000013a8 	.word	0x000013a8
   2a8fc:	00001404 	.word	0x00001404
   2a900:	000011a0 	.word	0x000011a0
   2a904:	48f6      	ldr	r0, [pc, #984]	@ (2ace0 <_start+0x2fe4>)
   2a906:	4468      	add	r0, sp
   2a908:	78c1      	ldrb	r1, [r0, #3]
   2a90a:	4cf6      	ldr	r4, [pc, #984]	@ (2ace4 <_start+0x2fe8>)
   2a90c:	446c      	add	r4, sp
   2a90e:	70a1      	strb	r1, [r4, #2]
   2a910:	7841      	ldrb	r1, [r0, #1]
   2a912:	7882      	ldrb	r2, [r0, #2]
   2a914:	0212      	lsls	r2, r2, #8
   2a916:	1851      	adds	r1, r2, r1
   2a918:	8021      	strh	r1, [r4, #0]
   2a91a:	3008      	adds	r0, #8
   2a91c:	9908      	ldr	r1, [sp, #32]
   2a91e:	6e09      	ldr	r1, [r1, #96]	@ 0x60
   2a920:	910a      	str	r1, [sp, #40]	@ 0x28
   2a922:	4bf1      	ldr	r3, [pc, #964]	@ (2ace8 <_start+0x2fec>)
   2a924:	446b      	add	r3, sp
   2a926:	930b      	str	r3, [sp, #44]	@ 0x2c
   2a928:	c864      	ldmia	r0!, {r2, r5, r6}
   2a92a:	c364      	stmia	r3!, {r2, r5, r6}
   2a92c:	c866      	ldmia	r0!, {r1, r2, r5, r6}
   2a92e:	c366      	stmia	r3!, {r1, r2, r5, r6}
   2a930:	c866      	ldmia	r0!, {r1, r2, r5, r6}
   2a932:	c366      	stmia	r3!, {r1, r2, r5, r6}
   2a934:	c866      	ldmia	r0!, {r1, r2, r5, r6}
   2a936:	c366      	stmia	r3!, {r1, r2, r5, r6}
   2a938:	7800      	ldrb	r0, [r0, #0]
   2a93a:	7018      	strb	r0, [r3, #0]
   2a93c:	990a      	ldr	r1, [sp, #40]	@ 0x28
   2a93e:	0e08      	lsrs	r0, r1, #24
   2a940:	71a0      	strb	r0, [r4, #6]
   2a942:	0c08      	lsrs	r0, r1, #16
   2a944:	7160      	strb	r0, [r4, #5]
   2a946:	0a08      	lsrs	r0, r1, #8
   2a948:	7120      	strb	r0, [r4, #4]
   2a94a:	70e1      	strb	r1, [r4, #3]
   2a94c:	1de0      	adds	r0, r4, #7
   2a94e:	223d      	movs	r2, #61	@ 0x3d
   2a950:	990b      	ldr	r1, [sp, #44]	@ 0x2c
   2a952:	f000 fbd7 	bl	2b104 <__aeabi_memcpy>
   2a956:	4dfe      	ldr	r5, [pc, #1016]	@ (2ad50 <_start+0x3054>)
   2a958:	446d      	add	r5, sp
   2a95a:	4628      	mov	r0, r5
   2a95c:	4621      	mov	r1, r4
   2a95e:	f7fc f933 	bl	26bc8 <_ZN20complex_dynamic_type3app17he0dcf5157b808258E>
   2a962:	7828      	ldrb	r0, [r5, #0]
   2a964:	2801      	cmp	r0, #1
   2a966:	d100      	bne.n	2a96a <_start+0x2c6e>
   2a968:	e1b6      	b.n	2acd8 <_start+0x2fdc>
   2a96a:	48f9      	ldr	r0, [pc, #996]	@ (2ad50 <_start+0x3054>)
   2a96c:	4468      	add	r0, sp
   2a96e:	78c1      	ldrb	r1, [r0, #3]
   2a970:	4cf9      	ldr	r4, [pc, #996]	@ (2ad58 <_start+0x305c>)
   2a972:	446c      	add	r4, sp
   2a974:	70a1      	strb	r1, [r4, #2]
   2a976:	7841      	ldrb	r1, [r0, #1]
   2a978:	7882      	ldrb	r2, [r0, #2]
   2a97a:	0212      	lsls	r2, r2, #8
   2a97c:	1851      	adds	r1, r2, r1
   2a97e:	8021      	strh	r1, [r4, #0]
   2a980:	3008      	adds	r0, #8
   2a982:	9908      	ldr	r1, [sp, #32]
   2a984:	6e09      	ldr	r1, [r1, #96]	@ 0x60
   2a986:	910a      	str	r1, [sp, #40]	@ 0x28
   2a988:	4bf2      	ldr	r3, [pc, #968]	@ (2ad54 <_start+0x3058>)
   2a98a:	446b      	add	r3, sp
   2a98c:	930b      	str	r3, [sp, #44]	@ 0x2c
   2a98e:	c864      	ldmia	r0!, {r2, r5, r6}
   2a990:	c364      	stmia	r3!, {r2, r5, r6}
   2a992:	c866      	ldmia	r0!, {r1, r2, r5, r6}
   2a994:	c366      	stmia	r3!, {r1, r2, r5, r6}
   2a996:	990a      	ldr	r1, [sp, #40]	@ 0x28
   2a998:	0e08      	lsrs	r0, r1, #24
   2a99a:	71a0      	strb	r0, [r4, #6]
   2a99c:	0c08      	lsrs	r0, r1, #16
   2a99e:	7160      	strb	r0, [r4, #5]
   2a9a0:	0a08      	lsrs	r0, r1, #8
   2a9a2:	7120      	strb	r0, [r4, #4]
   2a9a4:	70e1      	strb	r1, [r4, #3]
   2a9a6:	1de0      	adds	r0, r4, #7
   2a9a8:	221c      	movs	r2, #28
   2a9aa:	990b      	ldr	r1, [sp, #44]	@ 0x2c
   2a9ac:	f000 fbaa 	bl	2b104 <__aeabi_memcpy>
   2a9b0:	4de7      	ldr	r5, [pc, #924]	@ (2ad50 <_start+0x3054>)
   2a9b2:	446d      	add	r5, sp
   2a9b4:	4628      	mov	r0, r5
   2a9b6:	4621      	mov	r1, r4
   2a9b8:	f7f8 fffe 	bl	239b8 <_ZN20complex_dynamic_type3app17h70f444bad8bc60b5E>
   2a9bc:	7828      	ldrb	r0, [r5, #0]
   2a9be:	2801      	cmp	r0, #1
   2a9c0:	d100      	bne.n	2a9c4 <_start+0x2cc8>
   2a9c2:	e189      	b.n	2acd8 <_start+0x2fdc>
   2a9c4:	48e2      	ldr	r0, [pc, #904]	@ (2ad50 <_start+0x3054>)
   2a9c6:	4468      	add	r0, sp
   2a9c8:	78c1      	ldrb	r1, [r0, #3]
   2a9ca:	4ce4      	ldr	r4, [pc, #912]	@ (2ad5c <_start+0x3060>)
   2a9cc:	446c      	add	r4, sp
   2a9ce:	70a1      	strb	r1, [r4, #2]
   2a9d0:	7841      	ldrb	r1, [r0, #1]
   2a9d2:	7882      	ldrb	r2, [r0, #2]
   2a9d4:	0212      	lsls	r2, r2, #8
   2a9d6:	1851      	adds	r1, r2, r1
   2a9d8:	8021      	strh	r1, [r4, #0]
   2a9da:	3008      	adds	r0, #8
   2a9dc:	9908      	ldr	r1, [sp, #32]
   2a9de:	6e09      	ldr	r1, [r1, #96]	@ 0x60
   2a9e0:	910a      	str	r1, [sp, #40]	@ 0x28
   2a9e2:	4bdc      	ldr	r3, [pc, #880]	@ (2ad54 <_start+0x3058>)
   2a9e4:	446b      	add	r3, sp
   2a9e6:	930b      	str	r3, [sp, #44]	@ 0x2c
   2a9e8:	c864      	ldmia	r0!, {r2, r5, r6}
   2a9ea:	c364      	stmia	r3!, {r2, r5, r6}
   2a9ec:	c866      	ldmia	r0!, {r1, r2, r5, r6}
   2a9ee:	c366      	stmia	r3!, {r1, r2, r5, r6}
   2a9f0:	7800      	ldrb	r0, [r0, #0]
   2a9f2:	7018      	strb	r0, [r3, #0]
   2a9f4:	990a      	ldr	r1, [sp, #40]	@ 0x28
   2a9f6:	0e08      	lsrs	r0, r1, #24
   2a9f8:	71a0      	strb	r0, [r4, #6]
   2a9fa:	0c08      	lsrs	r0, r1, #16
   2a9fc:	7160      	strb	r0, [r4, #5]
   2a9fe:	0a08      	lsrs	r0, r1, #8
   2aa00:	7120      	strb	r0, [r4, #4]
   2aa02:	70e1      	strb	r1, [r4, #3]
   2aa04:	1de0      	adds	r0, r4, #7
   2aa06:	221d      	movs	r2, #29
   2aa08:	990b      	ldr	r1, [sp, #44]	@ 0x2c
   2aa0a:	f000 fb7b 	bl	2b104 <__aeabi_memcpy>
   2aa0e:	4dd0      	ldr	r5, [pc, #832]	@ (2ad50 <_start+0x3054>)
   2aa10:	446d      	add	r5, sp
   2aa12:	4628      	mov	r0, r5
   2aa14:	4621      	mov	r1, r4
   2aa16:	f7f9 ffbb 	bl	24990 <_ZN20complex_dynamic_type3app17h9aaa63b3e5c89061E>
   2aa1a:	7828      	ldrb	r0, [r5, #0]
   2aa1c:	2801      	cmp	r0, #1
   2aa1e:	d100      	bne.n	2aa22 <_start+0x2d26>
   2aa20:	e15a      	b.n	2acd8 <_start+0x2fdc>
   2aa22:	48cb      	ldr	r0, [pc, #812]	@ (2ad50 <_start+0x3054>)
   2aa24:	4468      	add	r0, sp
   2aa26:	78c1      	ldrb	r1, [r0, #3]
   2aa28:	4ccd      	ldr	r4, [pc, #820]	@ (2ad60 <_start+0x3064>)
   2aa2a:	446c      	add	r4, sp
   2aa2c:	70a1      	strb	r1, [r4, #2]
   2aa2e:	7841      	ldrb	r1, [r0, #1]
   2aa30:	7882      	ldrb	r2, [r0, #2]
   2aa32:	0212      	lsls	r2, r2, #8
   2aa34:	1851      	adds	r1, r2, r1
   2aa36:	8021      	strh	r1, [r4, #0]
   2aa38:	3008      	adds	r0, #8
   2aa3a:	9908      	ldr	r1, [sp, #32]
   2aa3c:	6e09      	ldr	r1, [r1, #96]	@ 0x60
   2aa3e:	910a      	str	r1, [sp, #40]	@ 0x28
   2aa40:	4bc4      	ldr	r3, [pc, #784]	@ (2ad54 <_start+0x3058>)
   2aa42:	446b      	add	r3, sp
   2aa44:	930b      	str	r3, [sp, #44]	@ 0x2c
   2aa46:	c864      	ldmia	r0!, {r2, r5, r6}
   2aa48:	c364      	stmia	r3!, {r2, r5, r6}
   2aa4a:	c864      	ldmia	r0!, {r2, r5, r6}
   2aa4c:	c364      	stmia	r3!, {r2, r5, r6}
   2aa4e:	c866      	ldmia	r0!, {r1, r2, r5, r6}
   2aa50:	c366      	stmia	r3!, {r1, r2, r5, r6}
   2aa52:	990a      	ldr	r1, [sp, #40]	@ 0x28
   2aa54:	0e08      	lsrs	r0, r1, #24
   2aa56:	71a0      	strb	r0, [r4, #6]
   2aa58:	0c08      	lsrs	r0, r1, #16
   2aa5a:	7160      	strb	r0, [r4, #5]
   2aa5c:	0a08      	lsrs	r0, r1, #8
   2aa5e:	7120      	strb	r0, [r4, #4]
   2aa60:	70e1      	strb	r1, [r4, #3]
   2aa62:	1de0      	adds	r0, r4, #7
   2aa64:	2228      	movs	r2, #40	@ 0x28
   2aa66:	990b      	ldr	r1, [sp, #44]	@ 0x2c
   2aa68:	f000 fb4c 	bl	2b104 <__aeabi_memcpy>
   2aa6c:	4db8      	ldr	r5, [pc, #736]	@ (2ad50 <_start+0x3054>)
   2aa6e:	446d      	add	r5, sp
   2aa70:	4628      	mov	r0, r5
   2aa72:	4621      	mov	r1, r4
   2aa74:	f7f5 fbde 	bl	20234 <_ZN20complex_dynamic_type3app17h0a1cf1e8dc559fccE>
   2aa78:	7828      	ldrb	r0, [r5, #0]
   2aa7a:	2801      	cmp	r0, #1
   2aa7c:	d100      	bne.n	2aa80 <_start+0x2d84>
   2aa7e:	e12b      	b.n	2acd8 <_start+0x2fdc>
   2aa80:	49b3      	ldr	r1, [pc, #716]	@ (2ad50 <_start+0x3054>)
   2aa82:	4469      	add	r1, sp
   2aa84:	78c8      	ldrb	r0, [r1, #3]
   2aa86:	4cb7      	ldr	r4, [pc, #732]	@ (2ad64 <_start+0x3068>)
   2aa88:	446c      	add	r4, sp
   2aa8a:	70a0      	strb	r0, [r4, #2]
   2aa8c:	7848      	ldrb	r0, [r1, #1]
   2aa8e:	788a      	ldrb	r2, [r1, #2]
   2aa90:	0212      	lsls	r2, r2, #8
   2aa92:	1810      	adds	r0, r2, r0
   2aa94:	8020      	strh	r0, [r4, #0]
   2aa96:	9808      	ldr	r0, [sp, #32]
   2aa98:	6e05      	ldr	r5, [r0, #96]	@ 0x60
   2aa9a:	3108      	adds	r1, #8
   2aa9c:	48ad      	ldr	r0, [pc, #692]	@ (2ad54 <_start+0x3058>)
   2aa9e:	4468      	add	r0, sp
   2aaa0:	900b      	str	r0, [sp, #44]	@ 0x2c
   2aaa2:	2657      	movs	r6, #87	@ 0x57
   2aaa4:	4632      	mov	r2, r6
   2aaa6:	f000 f9cd 	bl	2ae44 <__aeabi_memcpy4>
   2aaaa:	0e28      	lsrs	r0, r5, #24
   2aaac:	71a0      	strb	r0, [r4, #6]
   2aaae:	0c28      	lsrs	r0, r5, #16
   2aab0:	7160      	strb	r0, [r4, #5]
   2aab2:	0a28      	lsrs	r0, r5, #8
   2aab4:	7120      	strb	r0, [r4, #4]
   2aab6:	70e5      	strb	r5, [r4, #3]
   2aab8:	1de0      	adds	r0, r4, #7
   2aaba:	990b      	ldr	r1, [sp, #44]	@ 0x2c
   2aabc:	4632      	mov	r2, r6
   2aabe:	f000 fb21 	bl	2b104 <__aeabi_memcpy>
   2aac2:	4da3      	ldr	r5, [pc, #652]	@ (2ad50 <_start+0x3054>)
   2aac4:	446d      	add	r5, sp
   2aac6:	4628      	mov	r0, r5
   2aac8:	4621      	mov	r1, r4
   2aaca:	f7fb fa99 	bl	26000 <_ZN20complex_dynamic_type3app17hc39eb30d0e2b3164E>
   2aace:	7828      	ldrb	r0, [r5, #0]
   2aad0:	2801      	cmp	r0, #1
   2aad2:	d100      	bne.n	2aad6 <_start+0x2dda>
   2aad4:	e100      	b.n	2acd8 <_start+0x2fdc>
   2aad6:	499e      	ldr	r1, [pc, #632]	@ (2ad50 <_start+0x3054>)
   2aad8:	4469      	add	r1, sp
   2aada:	78c8      	ldrb	r0, [r1, #3]
   2aadc:	4ca2      	ldr	r4, [pc, #648]	@ (2ad68 <_start+0x306c>)
   2aade:	446c      	add	r4, sp
   2aae0:	70a0      	strb	r0, [r4, #2]
   2aae2:	7848      	ldrb	r0, [r1, #1]
   2aae4:	788a      	ldrb	r2, [r1, #2]
   2aae6:	0212      	lsls	r2, r2, #8
   2aae8:	1810      	adds	r0, r2, r0
   2aaea:	8020      	strh	r0, [r4, #0]
   2aaec:	9808      	ldr	r0, [sp, #32]
   2aaee:	6e05      	ldr	r5, [r0, #96]	@ 0x60
   2aaf0:	3108      	adds	r1, #8
   2aaf2:	4898      	ldr	r0, [pc, #608]	@ (2ad54 <_start+0x3058>)
   2aaf4:	4468      	add	r0, sp
   2aaf6:	900b      	str	r0, [sp, #44]	@ 0x2c
   2aaf8:	264e      	movs	r6, #78	@ 0x4e
   2aafa:	4632      	mov	r2, r6
   2aafc:	f000 f9a2 	bl	2ae44 <__aeabi_memcpy4>
   2ab00:	0e28      	lsrs	r0, r5, #24
   2ab02:	71a0      	strb	r0, [r4, #6]
   2ab04:	0c28      	lsrs	r0, r5, #16
   2ab06:	7160      	strb	r0, [r4, #5]
   2ab08:	0a28      	lsrs	r0, r5, #8
   2ab0a:	7120      	strb	r0, [r4, #4]
   2ab0c:	70e5      	strb	r5, [r4, #3]
   2ab0e:	1de0      	adds	r0, r4, #7
   2ab10:	990b      	ldr	r1, [sp, #44]	@ 0x2c
   2ab12:	4632      	mov	r2, r6
   2ab14:	f000 faf6 	bl	2b104 <__aeabi_memcpy>
   2ab18:	4d8d      	ldr	r5, [pc, #564]	@ (2ad50 <_start+0x3054>)
   2ab1a:	446d      	add	r5, sp
   2ab1c:	4628      	mov	r0, r5
   2ab1e:	4621      	mov	r1, r4
   2ab20:	f7fc f9a6 	bl	26e70 <_ZN20complex_dynamic_type3app17he28b68a5b15cbb1cE>
   2ab24:	7828      	ldrb	r0, [r5, #0]
   2ab26:	2801      	cmp	r0, #1
   2ab28:	d100      	bne.n	2ab2c <_start+0x2e30>
   2ab2a:	e0d5      	b.n	2acd8 <_start+0x2fdc>
   2ab2c:	4989      	ldr	r1, [pc, #548]	@ (2ad54 <_start+0x3058>)
   2ab2e:	4469      	add	r1, sp
   2ab30:	9b08      	ldr	r3, [sp, #32]
   2ab32:	6ed8      	ldr	r0, [r3, #108]	@ 0x6c
   2ab34:	8108      	strh	r0, [r1, #8]
   2ab36:	4886      	ldr	r0, [pc, #536]	@ (2ad50 <_start+0x3054>)
   2ab38:	4468      	add	r0, sp
   2ab3a:	78c2      	ldrb	r2, [r0, #3]
   2ab3c:	4c8b      	ldr	r4, [pc, #556]	@ (2ad6c <_start+0x3070>)
   2ab3e:	446c      	add	r4, sp
   2ab40:	70a2      	strb	r2, [r4, #2]
   2ab42:	7842      	ldrb	r2, [r0, #1]
   2ab44:	7880      	ldrb	r0, [r0, #2]
   2ab46:	0200      	lsls	r0, r0, #8
   2ab48:	1880      	adds	r0, r0, r2
   2ab4a:	8020      	strh	r0, [r4, #0]
   2ab4c:	6e18      	ldr	r0, [r3, #96]	@ 0x60
   2ab4e:	70e0      	strb	r0, [r4, #3]
   2ab50:	0e02      	lsrs	r2, r0, #24
   2ab52:	71a2      	strb	r2, [r4, #6]
   2ab54:	0c02      	lsrs	r2, r0, #16
   2ab56:	7162      	strb	r2, [r4, #5]
   2ab58:	0a00      	lsrs	r0, r0, #8
   2ab5a:	7120      	strb	r0, [r4, #4]
   2ab5c:	6e58      	ldr	r0, [r3, #100]	@ 0x64
   2ab5e:	6e9a      	ldr	r2, [r3, #104]	@ 0x68
   2ab60:	c305      	stmia	r3!, {r0, r2}
   2ab62:	1de0      	adds	r0, r4, #7
   2ab64:	220a      	movs	r2, #10
   2ab66:	f000 facd 	bl	2b104 <__aeabi_memcpy>
   2ab6a:	4d79      	ldr	r5, [pc, #484]	@ (2ad50 <_start+0x3054>)
   2ab6c:	446d      	add	r5, sp
   2ab6e:	4628      	mov	r0, r5
   2ab70:	4621      	mov	r1, r4
   2ab72:	f7f9 fbc1 	bl	242f8 <_ZN20complex_dynamic_type3app17h87e46f50524c5325E>
   2ab76:	7828      	ldrb	r0, [r5, #0]
   2ab78:	2801      	cmp	r0, #1
   2ab7a:	d100      	bne.n	2ab7e <_start+0x2e82>
   2ab7c:	e0ac      	b.n	2acd8 <_start+0x2fdc>
   2ab7e:	4974      	ldr	r1, [pc, #464]	@ (2ad50 <_start+0x3054>)
   2ab80:	4469      	add	r1, sp
   2ab82:	78c8      	ldrb	r0, [r1, #3]
   2ab84:	4c7a      	ldr	r4, [pc, #488]	@ (2ad70 <_start+0x3074>)
   2ab86:	446c      	add	r4, sp
   2ab88:	70a0      	strb	r0, [r4, #2]
   2ab8a:	7848      	ldrb	r0, [r1, #1]
   2ab8c:	788a      	ldrb	r2, [r1, #2]
   2ab8e:	0212      	lsls	r2, r2, #8
   2ab90:	1810      	adds	r0, r2, r0
   2ab92:	8020      	strh	r0, [r4, #0]
   2ab94:	9808      	ldr	r0, [sp, #32]
   2ab96:	6e05      	ldr	r5, [r0, #96]	@ 0x60
   2ab98:	3108      	adds	r1, #8
   2ab9a:	486e      	ldr	r0, [pc, #440]	@ (2ad54 <_start+0x3058>)
   2ab9c:	4468      	add	r0, sp
   2ab9e:	900b      	str	r0, [sp, #44]	@ 0x2c
   2aba0:	2649      	movs	r6, #73	@ 0x49
   2aba2:	4632      	mov	r2, r6
   2aba4:	f000 f94e 	bl	2ae44 <__aeabi_memcpy4>
   2aba8:	0e28      	lsrs	r0, r5, #24
   2abaa:	71a0      	strb	r0, [r4, #6]
   2abac:	0c28      	lsrs	r0, r5, #16
   2abae:	7160      	strb	r0, [r4, #5]
   2abb0:	0a28      	lsrs	r0, r5, #8
   2abb2:	7120      	strb	r0, [r4, #4]
   2abb4:	70e5      	strb	r5, [r4, #3]
   2abb6:	1de0      	adds	r0, r4, #7
   2abb8:	990b      	ldr	r1, [sp, #44]	@ 0x2c
   2abba:	4632      	mov	r2, r6
   2abbc:	f000 faa2 	bl	2b104 <__aeabi_memcpy>
   2abc0:	4d63      	ldr	r5, [pc, #396]	@ (2ad50 <_start+0x3054>)
   2abc2:	446d      	add	r5, sp
   2abc4:	4628      	mov	r0, r5
   2abc6:	4621      	mov	r1, r4
   2abc8:	f7f8 fcf6 	bl	235b8 <_ZN20complex_dynamic_type3app17h6df73d05533f52d5E>
   2abcc:	7828      	ldrb	r0, [r5, #0]
   2abce:	2801      	cmp	r0, #1
   2abd0:	d100      	bne.n	2abd4 <_start+0x2ed8>
   2abd2:	e081      	b.n	2acd8 <_start+0x2fdc>
   2abd4:	485e      	ldr	r0, [pc, #376]	@ (2ad50 <_start+0x3054>)
   2abd6:	4468      	add	r0, sp
   2abd8:	78c1      	ldrb	r1, [r0, #3]
   2abda:	4c66      	ldr	r4, [pc, #408]	@ (2ad74 <_start+0x3078>)
   2abdc:	446c      	add	r4, sp
   2abde:	70a1      	strb	r1, [r4, #2]
   2abe0:	7841      	ldrb	r1, [r0, #1]
   2abe2:	7882      	ldrb	r2, [r0, #2]
   2abe4:	0212      	lsls	r2, r2, #8
   2abe6:	1851      	adds	r1, r2, r1
   2abe8:	8021      	strh	r1, [r4, #0]
   2abea:	3008      	adds	r0, #8
   2abec:	9908      	ldr	r1, [sp, #32]
   2abee:	6e09      	ldr	r1, [r1, #96]	@ 0x60
   2abf0:	4b58      	ldr	r3, [pc, #352]	@ (2ad54 <_start+0x3058>)
   2abf2:	446b      	add	r3, sp
   2abf4:	930b      	str	r3, [sp, #44]	@ 0x2c
   2abf6:	c860      	ldmia	r0!, {r5, r6}
   2abf8:	c360      	stmia	r3!, {r5, r6}
   2abfa:	c864      	ldmia	r0!, {r2, r5, r6}
   2abfc:	c364      	stmia	r3!, {r2, r5, r6}
   2abfe:	0e08      	lsrs	r0, r1, #24
   2ac00:	71a0      	strb	r0, [r4, #6]
   2ac02:	0c08      	lsrs	r0, r1, #16
   2ac04:	7160      	strb	r0, [r4, #5]
   2ac06:	0a08      	lsrs	r0, r1, #8
   2ac08:	7120      	strb	r0, [r4, #4]
   2ac0a:	70e1      	strb	r1, [r4, #3]
   2ac0c:	1de0      	adds	r0, r4, #7
   2ac0e:	2214      	movs	r2, #20
   2ac10:	990b      	ldr	r1, [sp, #44]	@ 0x2c
   2ac12:	f000 fa77 	bl	2b104 <__aeabi_memcpy>
   2ac16:	4d4e      	ldr	r5, [pc, #312]	@ (2ad50 <_start+0x3054>)
   2ac18:	446d      	add	r5, sp
   2ac1a:	4628      	mov	r0, r5
   2ac1c:	4621      	mov	r1, r4
   2ac1e:	f7f6 fb9f 	bl	21360 <_ZN20complex_dynamic_type3app17h33d0582e92dee581E>
   2ac22:	7828      	ldrb	r0, [r5, #0]
   2ac24:	2801      	cmp	r0, #1
   2ac26:	d057      	beq.n	2acd8 <_start+0x2fdc>
   2ac28:	4949      	ldr	r1, [pc, #292]	@ (2ad50 <_start+0x3054>)
   2ac2a:	4469      	add	r1, sp
   2ac2c:	78c8      	ldrb	r0, [r1, #3]
   2ac2e:	4c52      	ldr	r4, [pc, #328]	@ (2ad78 <_start+0x307c>)
   2ac30:	446c      	add	r4, sp
   2ac32:	70a0      	strb	r0, [r4, #2]
   2ac34:	7848      	ldrb	r0, [r1, #1]
   2ac36:	788a      	ldrb	r2, [r1, #2]
   2ac38:	0212      	lsls	r2, r2, #8
   2ac3a:	1810      	adds	r0, r2, r0
   2ac3c:	8020      	strh	r0, [r4, #0]
   2ac3e:	9808      	ldr	r0, [sp, #32]
   2ac40:	6e05      	ldr	r5, [r0, #96]	@ 0x60
   2ac42:	3108      	adds	r1, #8
   2ac44:	4843      	ldr	r0, [pc, #268]	@ (2ad54 <_start+0x3058>)
   2ac46:	4468      	add	r0, sp
   2ac48:	900b      	str	r0, [sp, #44]	@ 0x2c
   2ac4a:	265c      	movs	r6, #92	@ 0x5c
   2ac4c:	4632      	mov	r2, r6
   2ac4e:	f000 f8f9 	bl	2ae44 <__aeabi_memcpy4>
   2ac52:	0e28      	lsrs	r0, r5, #24
   2ac54:	71a0      	strb	r0, [r4, #6]
   2ac56:	0c28      	lsrs	r0, r5, #16
   2ac58:	7160      	strb	r0, [r4, #5]
   2ac5a:	0a28      	lsrs	r0, r5, #8
   2ac5c:	7120      	strb	r0, [r4, #4]
   2ac5e:	70e5      	strb	r5, [r4, #3]
   2ac60:	1de0      	adds	r0, r4, #7
   2ac62:	990b      	ldr	r1, [sp, #44]	@ 0x2c
   2ac64:	4632      	mov	r2, r6
   2ac66:	f000 fa4d 	bl	2b104 <__aeabi_memcpy>
   2ac6a:	4d39      	ldr	r5, [pc, #228]	@ (2ad50 <_start+0x3054>)
   2ac6c:	446d      	add	r5, sp
   2ac6e:	4628      	mov	r0, r5
   2ac70:	4621      	mov	r1, r4
   2ac72:	f7f5 ff7f 	bl	20b74 <_ZN20complex_dynamic_type3app17h25cb69d935022c0aE>
   2ac76:	7828      	ldrb	r0, [r5, #0]
   2ac78:	2801      	cmp	r0, #1
   2ac7a:	d02d      	beq.n	2acd8 <_start+0x2fdc>
   2ac7c:	4834      	ldr	r0, [pc, #208]	@ (2ad50 <_start+0x3054>)
   2ac7e:	4468      	add	r0, sp
   2ac80:	78c1      	ldrb	r1, [r0, #3]
   2ac82:	4c3e      	ldr	r4, [pc, #248]	@ (2ad7c <_start+0x3080>)
   2ac84:	446c      	add	r4, sp
   2ac86:	70a1      	strb	r1, [r4, #2]
   2ac88:	7841      	ldrb	r1, [r0, #1]
   2ac8a:	7882      	ldrb	r2, [r0, #2]
   2ac8c:	0212      	lsls	r2, r2, #8
   2ac8e:	1851      	adds	r1, r2, r1
   2ac90:	8021      	strh	r1, [r4, #0]
   2ac92:	3008      	adds	r0, #8
   2ac94:	9908      	ldr	r1, [sp, #32]
   2ac96:	6e09      	ldr	r1, [r1, #96]	@ 0x60
   2ac98:	4b2e      	ldr	r3, [pc, #184]	@ (2ad54 <_start+0x3058>)
   2ac9a:	446b      	add	r3, sp
   2ac9c:	930b      	str	r3, [sp, #44]	@ 0x2c
   2ac9e:	c864      	ldmia	r0!, {r2, r5, r6}
   2aca0:	c364      	stmia	r3!, {r2, r5, r6}
   2aca2:	c864      	ldmia	r0!, {r2, r5, r6}
   2aca4:	c364      	stmia	r3!, {r2, r5, r6}
   2aca6:	c864      	ldmia	r0!, {r2, r5, r6}
   2aca8:	c364      	stmia	r3!, {r2, r5, r6}
   2acaa:	7800      	ldrb	r0, [r0, #0]
   2acac:	7018      	strb	r0, [r3, #0]
   2acae:	0e08      	lsrs	r0, r1, #24
   2acb0:	71a0      	strb	r0, [r4, #6]
   2acb2:	0c08      	lsrs	r0, r1, #16
   2acb4:	7160      	strb	r0, [r4, #5]
   2acb6:	0a08      	lsrs	r0, r1, #8
   2acb8:	7120      	strb	r0, [r4, #4]
   2acba:	70e1      	strb	r1, [r4, #3]
   2acbc:	1de0      	adds	r0, r4, #7
   2acbe:	2225      	movs	r2, #37	@ 0x25
   2acc0:	990b      	ldr	r1, [sp, #44]	@ 0x2c
   2acc2:	f000 fa1f 	bl	2b104 <__aeabi_memcpy>
   2acc6:	4d22      	ldr	r5, [pc, #136]	@ (2ad50 <_start+0x3054>)
   2acc8:	446d      	add	r5, sp
   2acca:	4628      	mov	r0, r5
   2accc:	4621      	mov	r1, r4
   2acce:	f7f8 fbc7 	bl	23460 <_ZN20complex_dynamic_type3app17h6dd61c27684e9d44E>
   2acd2:	7828      	ldrb	r0, [r5, #0]
   2acd4:	2801      	cmp	r0, #1
   2acd6:	d109      	bne.n	2acec <_start+0x2ff0>
   2acd8:	9808      	ldr	r0, [sp, #32]
   2acda:	6e01      	ldr	r1, [r0, #96]	@ 0x60
   2acdc:	f7fd f877 	bl	27dce <_start+0xd2>
   2ace0:	00001404 	.word	0x00001404
   2ace4:	000011b4 	.word	0x000011b4
   2ace8:	000013a8 	.word	0x000013a8
   2acec:	4818      	ldr	r0, [pc, #96]	@ (2ad50 <_start+0x3054>)
   2acee:	4468      	add	r0, sp
   2acf0:	78c1      	ldrb	r1, [r0, #3]
   2acf2:	4c23      	ldr	r4, [pc, #140]	@ (2ad80 <_start+0x3084>)
   2acf4:	446c      	add	r4, sp
   2acf6:	70a1      	strb	r1, [r4, #2]
   2acf8:	7841      	ldrb	r1, [r0, #1]
   2acfa:	7882      	ldrb	r2, [r0, #2]
   2acfc:	0212      	lsls	r2, r2, #8
   2acfe:	1851      	adds	r1, r2, r1
   2ad00:	8021      	strh	r1, [r4, #0]
   2ad02:	3008      	adds	r0, #8
   2ad04:	9908      	ldr	r1, [sp, #32]
   2ad06:	6e09      	ldr	r1, [r1, #96]	@ 0x60
   2ad08:	910a      	str	r1, [sp, #40]	@ 0x28
   2ad0a:	4b12      	ldr	r3, [pc, #72]	@ (2ad54 <_start+0x3058>)
   2ad0c:	446b      	add	r3, sp
   2ad0e:	930b      	str	r3, [sp, #44]	@ 0x2c
   2ad10:	c866      	ldmia	r0!, {r1, r2, r5, r6}
   2ad12:	c366      	stmia	r3!, {r1, r2, r5, r6}
   2ad14:	c866      	ldmia	r0!, {r1, r2, r5, r6}
   2ad16:	c366      	stmia	r3!, {r1, r2, r5, r6}
   2ad18:	8801      	ldrh	r1, [r0, #0]
   2ad1a:	8019      	strh	r1, [r3, #0]
   2ad1c:	7880      	ldrb	r0, [r0, #2]
   2ad1e:	7098      	strb	r0, [r3, #2]
   2ad20:	990a      	ldr	r1, [sp, #40]	@ 0x28
   2ad22:	0e08      	lsrs	r0, r1, #24
   2ad24:	71a0      	strb	r0, [r4, #6]
   2ad26:	0c08      	lsrs	r0, r1, #16
   2ad28:	7160      	strb	r0, [r4, #5]
   2ad2a:	0a08      	lsrs	r0, r1, #8
   2ad2c:	7120      	strb	r0, [r4, #4]
   2ad2e:	70e1      	strb	r1, [r4, #3]
   2ad30:	1de0      	adds	r0, r4, #7
   2ad32:	2223      	movs	r2, #35	@ 0x23
   2ad34:	990b      	ldr	r1, [sp, #44]	@ 0x2c
   2ad36:	f000 f9e5 	bl	2b104 <__aeabi_memcpy>
   2ad3a:	4d05      	ldr	r5, [pc, #20]	@ (2ad50 <_start+0x3054>)
   2ad3c:	446d      	add	r5, sp
   2ad3e:	4628      	mov	r0, r5
   2ad40:	4621      	mov	r1, r4
   2ad42:	f7fc fde3 	bl	2790c <_ZN20complex_dynamic_type3app17hf9c5f947f5d4b6f5E>
   2ad46:	7828      	ldrb	r0, [r5, #0]
   2ad48:	9908      	ldr	r1, [sp, #32]
   2ad4a:	6e09      	ldr	r1, [r1, #96]	@ 0x60
   2ad4c:	f7fd f840 	bl	27dd0 <_start+0xd4>
   2ad50:	00001404 	.word	0x00001404
   2ad54:	000013a8 	.word	0x000013a8
   2ad58:	000011f8 	.word	0x000011f8
   2ad5c:	0000121c 	.word	0x0000121c
   2ad60:	00001240 	.word	0x00001240
   2ad64:	00001270 	.word	0x00001270
   2ad68:	000012d0 	.word	0x000012d0
   2ad6c:	00001328 	.word	0x00001328
   2ad70:	0000133c 	.word	0x0000133c
   2ad74:	0000138c 	.word	0x0000138c
   2ad78:	00001468 	.word	0x00001468
   2ad7c:	000014cc 	.word	0x000014cc
   2ad80:	000014f8 	.word	0x000014f8

0002ad84 <__aeabi_memclr>:
   2ad84:	b5f0      	push	{r4, r5, r6, r7, lr}
   2ad86:	af03      	add	r7, sp, #12
   2ad88:	2910      	cmp	r1, #16
   2ad8a:	d332      	bcc.n	2adf2 <__aeabi_memclr+0x6e>
   2ad8c:	4244      	negs	r4, r0
   2ad8e:	2203      	movs	r2, #3
   2ad90:	4014      	ands	r4, r2
   2ad92:	1903      	adds	r3, r0, r4
   2ad94:	4298      	cmp	r0, r3
   2ad96:	d218      	bcs.n	2adca <__aeabi_memclr+0x46>
   2ad98:	1e65      	subs	r5, r4, #1
   2ad9a:	2c00      	cmp	r4, #0
   2ad9c:	d00b      	beq.n	2adb6 <__aeabi_memclr+0x32>
   2ad9e:	2600      	movs	r6, #0
   2ada0:	7006      	strb	r6, [r0, #0]
   2ada2:	2c01      	cmp	r4, #1
   2ada4:	d103      	bne.n	2adae <__aeabi_memclr+0x2a>
   2ada6:	1c40      	adds	r0, r0, #1
   2ada8:	2d03      	cmp	r5, #3
   2adaa:	d206      	bcs.n	2adba <__aeabi_memclr+0x36>
   2adac:	e00d      	b.n	2adca <__aeabi_memclr+0x46>
   2adae:	7046      	strb	r6, [r0, #1]
   2adb0:	2c02      	cmp	r4, #2
   2adb2:	d142      	bne.n	2ae3a <__aeabi_memclr+0xb6>
   2adb4:	1c80      	adds	r0, r0, #2
   2adb6:	2d03      	cmp	r5, #3
   2adb8:	d307      	bcc.n	2adca <__aeabi_memclr+0x46>
   2adba:	2500      	movs	r5, #0
   2adbc:	70c5      	strb	r5, [r0, #3]
   2adbe:	7085      	strb	r5, [r0, #2]
   2adc0:	7045      	strb	r5, [r0, #1]
   2adc2:	7005      	strb	r5, [r0, #0]
   2adc4:	1d00      	adds	r0, r0, #4
   2adc6:	4298      	cmp	r0, r3
   2adc8:	d1f7      	bne.n	2adba <__aeabi_memclr+0x36>
   2adca:	1b09      	subs	r1, r1, r4
   2adcc:	4608      	mov	r0, r1
   2adce:	4390      	bics	r0, r2
   2add0:	1818      	adds	r0, r3, r0
   2add2:	4283      	cmp	r3, r0
   2add4:	d20c      	bcs.n	2adf0 <__aeabi_memclr+0x6c>
   2add6:	2400      	movs	r4, #0
   2add8:	c310      	stmia	r3!, {r4}
   2adda:	4283      	cmp	r3, r0
   2addc:	d208      	bcs.n	2adf0 <__aeabi_memclr+0x6c>
   2adde:	c310      	stmia	r3!, {r4}
   2ade0:	4283      	cmp	r3, r0
   2ade2:	d205      	bcs.n	2adf0 <__aeabi_memclr+0x6c>
   2ade4:	c310      	stmia	r3!, {r4}
   2ade6:	4283      	cmp	r3, r0
   2ade8:	d202      	bcs.n	2adf0 <__aeabi_memclr+0x6c>
   2adea:	c310      	stmia	r3!, {r4}
   2adec:	4283      	cmp	r3, r0
   2adee:	d3f2      	bcc.n	2add6 <__aeabi_memclr+0x52>
   2adf0:	4011      	ands	r1, r2
   2adf2:	1842      	adds	r2, r0, r1
   2adf4:	4290      	cmp	r0, r2
   2adf6:	d21a      	bcs.n	2ae2e <__aeabi_memclr+0xaa>
   2adf8:	2303      	movs	r3, #3
   2adfa:	400b      	ands	r3, r1
   2adfc:	1e49      	subs	r1, r1, #1
   2adfe:	2b00      	cmp	r3, #0
   2ae00:	d00b      	beq.n	2ae1a <__aeabi_memclr+0x96>
   2ae02:	2400      	movs	r4, #0
   2ae04:	7004      	strb	r4, [r0, #0]
   2ae06:	2b01      	cmp	r3, #1
   2ae08:	d103      	bne.n	2ae12 <__aeabi_memclr+0x8e>
   2ae0a:	1c40      	adds	r0, r0, #1
   2ae0c:	2903      	cmp	r1, #3
   2ae0e:	d206      	bcs.n	2ae1e <__aeabi_memclr+0x9a>
   2ae10:	e00d      	b.n	2ae2e <__aeabi_memclr+0xaa>
   2ae12:	7044      	strb	r4, [r0, #1]
   2ae14:	2b02      	cmp	r3, #2
   2ae16:	d10b      	bne.n	2ae30 <__aeabi_memclr+0xac>
   2ae18:	1c80      	adds	r0, r0, #2
   2ae1a:	2903      	cmp	r1, #3
   2ae1c:	d307      	bcc.n	2ae2e <__aeabi_memclr+0xaa>
   2ae1e:	2100      	movs	r1, #0
   2ae20:	70c1      	strb	r1, [r0, #3]
   2ae22:	7081      	strb	r1, [r0, #2]
   2ae24:	7041      	strb	r1, [r0, #1]
   2ae26:	7001      	strb	r1, [r0, #0]
   2ae28:	1d00      	adds	r0, r0, #4
   2ae2a:	4290      	cmp	r0, r2
   2ae2c:	d1f7      	bne.n	2ae1e <__aeabi_memclr+0x9a>
   2ae2e:	bdf0      	pop	{r4, r5, r6, r7, pc}
   2ae30:	7084      	strb	r4, [r0, #2]
   2ae32:	1cc0      	adds	r0, r0, #3
   2ae34:	2903      	cmp	r1, #3
   2ae36:	d2f2      	bcs.n	2ae1e <__aeabi_memclr+0x9a>
   2ae38:	e7f9      	b.n	2ae2e <__aeabi_memclr+0xaa>
   2ae3a:	7086      	strb	r6, [r0, #2]
   2ae3c:	1cc0      	adds	r0, r0, #3
   2ae3e:	2d03      	cmp	r5, #3
   2ae40:	d2bb      	bcs.n	2adba <__aeabi_memclr+0x36>
   2ae42:	e7c2      	b.n	2adca <__aeabi_memclr+0x46>

0002ae44 <__aeabi_memcpy4>:
   2ae44:	b5f0      	push	{r4, r5, r6, r7, lr}
   2ae46:	af03      	add	r7, sp, #12
   2ae48:	b081      	sub	sp, #4
   2ae4a:	2a04      	cmp	r2, #4
   2ae4c:	d32d      	bcc.n	2aeaa <__aeabi_memcpy4+0x66>
   2ae4e:	1f13      	subs	r3, r2, #4
   2ae50:	250c      	movs	r5, #12
   2ae52:	401d      	ands	r5, r3
   2ae54:	2d0c      	cmp	r5, #12
   2ae56:	d019      	beq.n	2ae8c <__aeabi_memcpy4+0x48>
   2ae58:	9200      	str	r2, [sp, #0]
   2ae5a:	460e      	mov	r6, r1
   2ae5c:	c904      	ldmia	r1!, {r2}
   2ae5e:	4604      	mov	r4, r0
   2ae60:	c004      	stmia	r0!, {r2}
   2ae62:	071a      	lsls	r2, r3, #28
   2ae64:	0f92      	lsrs	r2, r2, #30
   2ae66:	461a      	mov	r2, r3
   2ae68:	d010      	beq.n	2ae8c <__aeabi_memcpy4+0x48>
   2ae6a:	4631      	mov	r1, r6
   2ae6c:	6872      	ldr	r2, [r6, #4]
   2ae6e:	6062      	str	r2, [r4, #4]
   2ae70:	2d04      	cmp	r5, #4
   2ae72:	d104      	bne.n	2ae7e <__aeabi_memcpy4+0x3a>
   2ae74:	9a00      	ldr	r2, [sp, #0]
   2ae76:	3a08      	subs	r2, #8
   2ae78:	3108      	adds	r1, #8
   2ae7a:	3408      	adds	r4, #8
   2ae7c:	e005      	b.n	2ae8a <__aeabi_memcpy4+0x46>
   2ae7e:	688a      	ldr	r2, [r1, #8]
   2ae80:	60a2      	str	r2, [r4, #8]
   2ae82:	9a00      	ldr	r2, [sp, #0]
   2ae84:	3a0c      	subs	r2, #12
   2ae86:	310c      	adds	r1, #12
   2ae88:	340c      	adds	r4, #12
   2ae8a:	4620      	mov	r0, r4
   2ae8c:	2b0c      	cmp	r3, #12
   2ae8e:	d30c      	bcc.n	2aeaa <__aeabi_memcpy4+0x66>
   2ae90:	680b      	ldr	r3, [r1, #0]
   2ae92:	6003      	str	r3, [r0, #0]
   2ae94:	684b      	ldr	r3, [r1, #4]
   2ae96:	6043      	str	r3, [r0, #4]
   2ae98:	688b      	ldr	r3, [r1, #8]
   2ae9a:	6083      	str	r3, [r0, #8]
   2ae9c:	68cb      	ldr	r3, [r1, #12]
   2ae9e:	60c3      	str	r3, [r0, #12]
   2aea0:	3110      	adds	r1, #16
   2aea2:	3010      	adds	r0, #16
   2aea4:	3a10      	subs	r2, #16
   2aea6:	2a03      	cmp	r2, #3
   2aea8:	d8f2      	bhi.n	2ae90 <__aeabi_memcpy4+0x4c>
   2aeaa:	f000 f802 	bl	2aeb2 <_ZN17compiler_builtins3mem6memcpy17h1f9dbb1c3fd18e2fE>
   2aeae:	b001      	add	sp, #4
   2aeb0:	bdf0      	pop	{r4, r5, r6, r7, pc}

0002aeb2 <_ZN17compiler_builtins3mem6memcpy17h1f9dbb1c3fd18e2fE>:
   2aeb2:	b5f0      	push	{r4, r5, r6, r7, lr}
   2aeb4:	af03      	add	r7, sp, #12
   2aeb6:	b08f      	sub	sp, #60	@ 0x3c
   2aeb8:	2a10      	cmp	r2, #16
   2aeba:	d315      	bcc.n	2aee8 <_ZN17compiler_builtins3mem6memcpy17h1f9dbb1c3fd18e2fE+0x36>
   2aebc:	920b      	str	r2, [sp, #44]	@ 0x2c
   2aebe:	4242      	negs	r2, r0
   2aec0:	2303      	movs	r3, #3
   2aec2:	9308      	str	r3, [sp, #32]
   2aec4:	401a      	ands	r2, r3
   2aec6:	1885      	adds	r5, r0, r2
   2aec8:	900a      	str	r0, [sp, #40]	@ 0x28
   2aeca:	42a8      	cmp	r0, r5
   2aecc:	d22a      	bcs.n	2af24 <_ZN17compiler_builtins3mem6memcpy17h1f9dbb1c3fd18e2fE+0x72>
   2aece:	1e54      	subs	r4, r2, #1
   2aed0:	2a00      	cmp	r2, #0
   2aed2:	980a      	ldr	r0, [sp, #40]	@ 0x28
   2aed4:	4606      	mov	r6, r0
   2aed6:	460b      	mov	r3, r1
   2aed8:	d016      	beq.n	2af08 <_ZN17compiler_builtins3mem6memcpy17h1f9dbb1c3fd18e2fE+0x56>
   2aeda:	780b      	ldrb	r3, [r1, #0]
   2aedc:	7003      	strb	r3, [r0, #0]
   2aede:	2a01      	cmp	r2, #1
   2aee0:	d107      	bne.n	2aef2 <_ZN17compiler_builtins3mem6memcpy17h1f9dbb1c3fd18e2fE+0x40>
   2aee2:	1c4b      	adds	r3, r1, #1
   2aee4:	1c46      	adds	r6, r0, #1
   2aee6:	e00f      	b.n	2af08 <_ZN17compiler_builtins3mem6memcpy17h1f9dbb1c3fd18e2fE+0x56>
   2aee8:	4603      	mov	r3, r0
   2aeea:	189c      	adds	r4, r3, r2
   2aeec:	42a3      	cmp	r3, r4
   2aeee:	d341      	bcc.n	2af74 <_ZN17compiler_builtins3mem6memcpy17h1f9dbb1c3fd18e2fE+0xc2>
   2aef0:	e062      	b.n	2afb8 <_ZN17compiler_builtins3mem6memcpy17h1f9dbb1c3fd18e2fE+0x106>
   2aef2:	784b      	ldrb	r3, [r1, #1]
   2aef4:	7043      	strb	r3, [r0, #1]
   2aef6:	2a02      	cmp	r2, #2
   2aef8:	d102      	bne.n	2af00 <_ZN17compiler_builtins3mem6memcpy17h1f9dbb1c3fd18e2fE+0x4e>
   2aefa:	1c8b      	adds	r3, r1, #2
   2aefc:	1c86      	adds	r6, r0, #2
   2aefe:	e003      	b.n	2af08 <_ZN17compiler_builtins3mem6memcpy17h1f9dbb1c3fd18e2fE+0x56>
   2af00:	788b      	ldrb	r3, [r1, #2]
   2af02:	7083      	strb	r3, [r0, #2]
   2af04:	1ccb      	adds	r3, r1, #3
   2af06:	1cc6      	adds	r6, r0, #3
   2af08:	2c03      	cmp	r4, #3
   2af0a:	d30b      	bcc.n	2af24 <_ZN17compiler_builtins3mem6memcpy17h1f9dbb1c3fd18e2fE+0x72>
   2af0c:	781c      	ldrb	r4, [r3, #0]
   2af0e:	7034      	strb	r4, [r6, #0]
   2af10:	785c      	ldrb	r4, [r3, #1]
   2af12:	7074      	strb	r4, [r6, #1]
   2af14:	789c      	ldrb	r4, [r3, #2]
   2af16:	70b4      	strb	r4, [r6, #2]
   2af18:	78dc      	ldrb	r4, [r3, #3]
   2af1a:	70f4      	strb	r4, [r6, #3]
   2af1c:	1d1b      	adds	r3, r3, #4
   2af1e:	1d36      	adds	r6, r6, #4
   2af20:	42ae      	cmp	r6, r5
   2af22:	d1f3      	bne.n	2af0c <_ZN17compiler_builtins3mem6memcpy17h1f9dbb1c3fd18e2fE+0x5a>
   2af24:	980b      	ldr	r0, [sp, #44]	@ 0x2c
   2af26:	1a80      	subs	r0, r0, r2
   2af28:	900b      	str	r0, [sp, #44]	@ 0x2c
   2af2a:	9c08      	ldr	r4, [sp, #32]
   2af2c:	43a0      	bics	r0, r4
   2af2e:	182b      	adds	r3, r5, r0
   2af30:	188e      	adds	r6, r1, r2
   2af32:	9609      	str	r6, [sp, #36]	@ 0x24
   2af34:	4026      	ands	r6, r4
   2af36:	9007      	str	r0, [sp, #28]
   2af38:	d147      	bne.n	2afca <_ZN17compiler_builtins3mem6memcpy17h1f9dbb1c3fd18e2fE+0x118>
   2af3a:	429d      	cmp	r5, r3
   2af3c:	9a0b      	ldr	r2, [sp, #44]	@ 0x2c
   2af3e:	9e09      	ldr	r6, [sp, #36]	@ 0x24
   2af40:	d211      	bcs.n	2af66 <_ZN17compiler_builtins3mem6memcpy17h1f9dbb1c3fd18e2fE+0xb4>
   2af42:	4631      	mov	r1, r6
   2af44:	6808      	ldr	r0, [r1, #0]
   2af46:	c501      	stmia	r5!, {r0}
   2af48:	429d      	cmp	r5, r3
   2af4a:	d20c      	bcs.n	2af66 <_ZN17compiler_builtins3mem6memcpy17h1f9dbb1c3fd18e2fE+0xb4>
   2af4c:	6848      	ldr	r0, [r1, #4]
   2af4e:	c501      	stmia	r5!, {r0}
   2af50:	429d      	cmp	r5, r3
   2af52:	d208      	bcs.n	2af66 <_ZN17compiler_builtins3mem6memcpy17h1f9dbb1c3fd18e2fE+0xb4>
   2af54:	6888      	ldr	r0, [r1, #8]
   2af56:	c501      	stmia	r5!, {r0}
   2af58:	429d      	cmp	r5, r3
   2af5a:	d204      	bcs.n	2af66 <_ZN17compiler_builtins3mem6memcpy17h1f9dbb1c3fd18e2fE+0xb4>
   2af5c:	68c8      	ldr	r0, [r1, #12]
   2af5e:	c501      	stmia	r5!, {r0}
   2af60:	3110      	adds	r1, #16
   2af62:	429d      	cmp	r5, r3
   2af64:	d3ee      	bcc.n	2af44 <_ZN17compiler_builtins3mem6memcpy17h1f9dbb1c3fd18e2fE+0x92>
   2af66:	4022      	ands	r2, r4
   2af68:	9807      	ldr	r0, [sp, #28]
   2af6a:	1831      	adds	r1, r6, r0
   2af6c:	980a      	ldr	r0, [sp, #40]	@ 0x28
   2af6e:	189c      	adds	r4, r3, r2
   2af70:	42a3      	cmp	r3, r4
   2af72:	d221      	bcs.n	2afb8 <_ZN17compiler_builtins3mem6memcpy17h1f9dbb1c3fd18e2fE+0x106>
   2af74:	2503      	movs	r5, #3
   2af76:	4015      	ands	r5, r2
   2af78:	1e52      	subs	r2, r2, #1
   2af7a:	2d00      	cmp	r5, #0
   2af7c:	d00e      	beq.n	2af9c <_ZN17compiler_builtins3mem6memcpy17h1f9dbb1c3fd18e2fE+0xea>
   2af7e:	780e      	ldrb	r6, [r1, #0]
   2af80:	701e      	strb	r6, [r3, #0]
   2af82:	2d01      	cmp	r5, #1
   2af84:	d104      	bne.n	2af90 <_ZN17compiler_builtins3mem6memcpy17h1f9dbb1c3fd18e2fE+0xde>
   2af86:	1c49      	adds	r1, r1, #1
   2af88:	1c5b      	adds	r3, r3, #1
   2af8a:	2a03      	cmp	r2, #3
   2af8c:	d208      	bcs.n	2afa0 <_ZN17compiler_builtins3mem6memcpy17h1f9dbb1c3fd18e2fE+0xee>
   2af8e:	e013      	b.n	2afb8 <_ZN17compiler_builtins3mem6memcpy17h1f9dbb1c3fd18e2fE+0x106>
   2af90:	784e      	ldrb	r6, [r1, #1]
   2af92:	705e      	strb	r6, [r3, #1]
   2af94:	2d02      	cmp	r5, #2
   2af96:	d111      	bne.n	2afbc <_ZN17compiler_builtins3mem6memcpy17h1f9dbb1c3fd18e2fE+0x10a>
   2af98:	1c89      	adds	r1, r1, #2
   2af9a:	1c9b      	adds	r3, r3, #2
   2af9c:	2a03      	cmp	r2, #3
   2af9e:	d30b      	bcc.n	2afb8 <_ZN17compiler_builtins3mem6memcpy17h1f9dbb1c3fd18e2fE+0x106>
   2afa0:	780a      	ldrb	r2, [r1, #0]
   2afa2:	701a      	strb	r2, [r3, #0]
   2afa4:	784a      	ldrb	r2, [r1, #1]
   2afa6:	705a      	strb	r2, [r3, #1]
   2afa8:	788a      	ldrb	r2, [r1, #2]
   2afaa:	709a      	strb	r2, [r3, #2]
   2afac:	78ca      	ldrb	r2, [r1, #3]
   2afae:	70da      	strb	r2, [r3, #3]
   2afb0:	1d09      	adds	r1, r1, #4
   2afb2:	1d1b      	adds	r3, r3, #4
   2afb4:	42a3      	cmp	r3, r4
   2afb6:	d1f3      	bne.n	2afa0 <_ZN17compiler_builtins3mem6memcpy17h1f9dbb1c3fd18e2fE+0xee>
   2afb8:	b00f      	add	sp, #60	@ 0x3c
   2afba:	bdf0      	pop	{r4, r5, r6, r7, pc}
   2afbc:	788d      	ldrb	r5, [r1, #2]
   2afbe:	709d      	strb	r5, [r3, #2]
   2afc0:	1cc9      	adds	r1, r1, #3
   2afc2:	1cdb      	adds	r3, r3, #3
   2afc4:	2a03      	cmp	r2, #3
   2afc6:	d2eb      	bcs.n	2afa0 <_ZN17compiler_builtins3mem6memcpy17h1f9dbb1c3fd18e2fE+0xee>
   2afc8:	e7f6      	b.n	2afb8 <_ZN17compiler_builtins3mem6memcpy17h1f9dbb1c3fd18e2fE+0x106>
   2afca:	2400      	movs	r4, #0
   2afcc:	9406      	str	r4, [sp, #24]
   2afce:	940e      	str	r4, [sp, #56]	@ 0x38
   2afd0:	ac0e      	add	r4, sp, #56	@ 0x38
   2afd2:	19a4      	adds	r4, r4, r6
   2afd4:	9405      	str	r4, [sp, #20]
   2afd6:	2404      	movs	r4, #4
   2afd8:	1ba4      	subs	r4, r4, r6
   2afda:	9404      	str	r4, [sp, #16]
   2afdc:	07e4      	lsls	r4, r4, #31
   2afde:	9600      	str	r6, [sp, #0]
   2afe0:	d006      	beq.n	2aff0 <_ZN17compiler_builtins3mem6memcpy17h1f9dbb1c3fd18e2fE+0x13e>
   2afe2:	9c09      	ldr	r4, [sp, #36]	@ 0x24
   2afe4:	7824      	ldrb	r4, [r4, #0]
   2afe6:	9e05      	ldr	r6, [sp, #20]
   2afe8:	7034      	strb	r4, [r6, #0]
   2afea:	9e00      	ldr	r6, [sp, #0]
   2afec:	2401      	movs	r4, #1
   2afee:	9406      	str	r4, [sp, #24]
   2aff0:	9c04      	ldr	r4, [sp, #16]
   2aff2:	07a4      	lsls	r4, r4, #30
   2aff4:	d508      	bpl.n	2b008 <_ZN17compiler_builtins3mem6memcpy17h1f9dbb1c3fd18e2fE+0x156>
   2aff6:	9c09      	ldr	r4, [sp, #36]	@ 0x24
   2aff8:	9204      	str	r2, [sp, #16]
   2affa:	9a06      	ldr	r2, [sp, #24]
   2affc:	5aa4      	ldrh	r4, [r4, r2]
   2affe:	9e05      	ldr	r6, [sp, #20]
   2b000:	9a06      	ldr	r2, [sp, #24]
   2b002:	52b4      	strh	r4, [r6, r2]
   2b004:	9a04      	ldr	r2, [sp, #16]
   2b006:	9e00      	ldr	r6, [sp, #0]
   2b008:	00f4      	lsls	r4, r6, #3
   2b00a:	9403      	str	r4, [sp, #12]
   2b00c:	9c0e      	ldr	r4, [sp, #56]	@ 0x38
   2b00e:	9406      	str	r4, [sp, #24]
   2b010:	1d2c      	adds	r4, r5, #4
   2b012:	429c      	cmp	r4, r3
   2b014:	d236      	bcs.n	2b084 <_ZN17compiler_builtins3mem6memcpy17h1f9dbb1c3fd18e2fE+0x1d2>
   2b016:	4274      	negs	r4, r6
   2b018:	1909      	adds	r1, r1, r4
   2b01a:	9105      	str	r1, [sp, #20]
   2b01c:	9d03      	ldr	r5, [sp, #12]
   2b01e:	4269      	negs	r1, r5
   2b020:	2418      	movs	r4, #24
   2b022:	400c      	ands	r4, r1
   2b024:	9402      	str	r4, [sp, #8]
   2b026:	990a      	ldr	r1, [sp, #40]	@ 0x28
   2b028:	9104      	str	r1, [sp, #16]
   2b02a:	4629      	mov	r1, r5
   2b02c:	9c06      	ldr	r4, [sp, #24]
   2b02e:	40cc      	lsrs	r4, r1
   2b030:	9406      	str	r4, [sp, #24]
   2b032:	9905      	ldr	r1, [sp, #20]
   2b034:	1889      	adds	r1, r1, r2
   2b036:	9101      	str	r1, [sp, #4]
   2b038:	6849      	ldr	r1, [r1, #4]
   2b03a:	460c      	mov	r4, r1
   2b03c:	9d02      	ldr	r5, [sp, #8]
   2b03e:	40ac      	lsls	r4, r5
   2b040:	9d06      	ldr	r5, [sp, #24]
   2b042:	432c      	orrs	r4, r5
   2b044:	9d04      	ldr	r5, [sp, #16]
   2b046:	50ac      	str	r4, [r5, r2]
   2b048:	18ad      	adds	r5, r5, r2
   2b04a:	462c      	mov	r4, r5
   2b04c:	3408      	adds	r4, #8
   2b04e:	429c      	cmp	r4, r3
   2b050:	d21c      	bcs.n	2b08c <_ZN17compiler_builtins3mem6memcpy17h1f9dbb1c3fd18e2fE+0x1da>
   2b052:	9c03      	ldr	r4, [sp, #12]
   2b054:	40e1      	lsrs	r1, r4
   2b056:	9c01      	ldr	r4, [sp, #4]
   2b058:	68a4      	ldr	r4, [r4, #8]
   2b05a:	9406      	str	r4, [sp, #24]
   2b05c:	9501      	str	r5, [sp, #4]
   2b05e:	9d02      	ldr	r5, [sp, #8]
   2b060:	40ac      	lsls	r4, r5
   2b062:	430c      	orrs	r4, r1
   2b064:	9901      	ldr	r1, [sp, #4]
   2b066:	604c      	str	r4, [r1, #4]
   2b068:	9904      	ldr	r1, [sp, #16]
   2b06a:	3108      	adds	r1, #8
   2b06c:	9104      	str	r1, [sp, #16]
   2b06e:	188d      	adds	r5, r1, r2
   2b070:	1d29      	adds	r1, r5, #4
   2b072:	9c05      	ldr	r4, [sp, #20]
   2b074:	3408      	adds	r4, #8
   2b076:	9405      	str	r4, [sp, #20]
   2b078:	4299      	cmp	r1, r3
   2b07a:	9903      	ldr	r1, [sp, #12]
   2b07c:	d3d6      	bcc.n	2b02c <_ZN17compiler_builtins3mem6memcpy17h1f9dbb1c3fd18e2fE+0x17a>
   2b07e:	9805      	ldr	r0, [sp, #20]
   2b080:	1880      	adds	r0, r0, r2
   2b082:	e001      	b.n	2b088 <_ZN17compiler_builtins3mem6memcpy17h1f9dbb1c3fd18e2fE+0x1d6>
   2b084:	9809      	ldr	r0, [sp, #36]	@ 0x24
   2b086:	1b80      	subs	r0, r0, r6
   2b088:	9005      	str	r0, [sp, #20]
   2b08a:	e004      	b.n	2b096 <_ZN17compiler_builtins3mem6memcpy17h1f9dbb1c3fd18e2fE+0x1e4>
   2b08c:	9801      	ldr	r0, [sp, #4]
   2b08e:	1d00      	adds	r0, r0, #4
   2b090:	9005      	str	r0, [sp, #20]
   2b092:	1d2d      	adds	r5, r5, #4
   2b094:	9106      	str	r1, [sp, #24]
   2b096:	a80d      	add	r0, sp, #52	@ 0x34
   2b098:	2100      	movs	r1, #0
   2b09a:	9004      	str	r0, [sp, #16]
   2b09c:	7001      	strb	r1, [r0, #0]
   2b09e:	a80c      	add	r0, sp, #48	@ 0x30
   2b0a0:	7001      	strb	r1, [r0, #0]
   2b0a2:	2e01      	cmp	r6, #1
   2b0a4:	460e      	mov	r6, r1
   2b0a6:	460c      	mov	r4, r1
   2b0a8:	9102      	str	r1, [sp, #8]
   2b0aa:	9a0b      	ldr	r2, [sp, #44]	@ 0x2c
   2b0ac:	d009      	beq.n	2b0c2 <_ZN17compiler_builtins3mem6memcpy17h1f9dbb1c3fd18e2fE+0x210>
   2b0ae:	9c05      	ldr	r4, [sp, #20]
   2b0b0:	7960      	ldrb	r0, [r4, #5]
   2b0b2:	7926      	ldrb	r6, [r4, #4]
   2b0b4:	ac0d      	add	r4, sp, #52	@ 0x34
   2b0b6:	7026      	strb	r6, [r4, #0]
   2b0b8:	0204      	lsls	r4, r0, #8
   2b0ba:	2002      	movs	r0, #2
   2b0bc:	9002      	str	r0, [sp, #8]
   2b0be:	a80c      	add	r0, sp, #48	@ 0x30
   2b0c0:	9004      	str	r0, [sp, #16]
   2b0c2:	9809      	ldr	r0, [sp, #36]	@ 0x24
   2b0c4:	07c0      	lsls	r0, r0, #31
   2b0c6:	d00a      	beq.n	2b0de <_ZN17compiler_builtins3mem6memcpy17h1f9dbb1c3fd18e2fE+0x22c>
   2b0c8:	9805      	ldr	r0, [sp, #20]
   2b0ca:	1d00      	adds	r0, r0, #4
   2b0cc:	9902      	ldr	r1, [sp, #8]
   2b0ce:	5c40      	ldrb	r0, [r0, r1]
   2b0d0:	9904      	ldr	r1, [sp, #16]
   2b0d2:	7008      	strb	r0, [r1, #0]
   2b0d4:	a80d      	add	r0, sp, #52	@ 0x34
   2b0d6:	7806      	ldrb	r6, [r0, #0]
   2b0d8:	a80c      	add	r0, sp, #48	@ 0x30
   2b0da:	7800      	ldrb	r0, [r0, #0]
   2b0dc:	0401      	lsls	r1, r0, #16
   2b0de:	9605      	str	r6, [sp, #20]
   2b0e0:	9803      	ldr	r0, [sp, #12]
   2b0e2:	4240      	negs	r0, r0
   2b0e4:	9004      	str	r0, [sp, #16]
   2b0e6:	2618      	movs	r6, #24
   2b0e8:	9804      	ldr	r0, [sp, #16]
   2b0ea:	4006      	ands	r6, r0
   2b0ec:	430c      	orrs	r4, r1
   2b0ee:	9905      	ldr	r1, [sp, #20]
   2b0f0:	430c      	orrs	r4, r1
   2b0f2:	40b4      	lsls	r4, r6
   2b0f4:	9906      	ldr	r1, [sp, #24]
   2b0f6:	9803      	ldr	r0, [sp, #12]
   2b0f8:	40c1      	lsrs	r1, r0
   2b0fa:	4321      	orrs	r1, r4
   2b0fc:	6029      	str	r1, [r5, #0]
   2b0fe:	9c08      	ldr	r4, [sp, #32]
   2b100:	9e09      	ldr	r6, [sp, #36]	@ 0x24
   2b102:	e730      	b.n	2af66 <_ZN17compiler_builtins3mem6memcpy17h1f9dbb1c3fd18e2fE+0xb4>

0002b104 <__aeabi_memcpy>:
   2b104:	b580      	push	{r7, lr}
   2b106:	af00      	add	r7, sp, #0
   2b108:	f7ff fed3 	bl	2aeb2 <_ZN17compiler_builtins3mem6memcpy17h1f9dbb1c3fd18e2fE>
   2b10c:	bd80      	pop	{r7, pc}
