
target/thumbv6m-none-eabi/opt-1/examples/complex_no_dynamic:     file format elf32-littlearm

Sections:
Idx Name          Size      VMA       LMA       File off  Algn
  0 .ARM.exidx    00000010  000100d4  000100d4  000000d4  2**2
                  CONTENTS, ALLOC, LOAD, READONLY, DATA
  1 .text         00007b7c  000200e4  000200e4  000000e4  2**2
                  CONTENTS, ALLOC, LOAD, READONLY, CODE
  2 .comment      00000099  00000000  00000000  00007c60  2**0
                  CONTENTS, READONLY
  3 .ARM.attributes 00000032  00000000  00000000  00007cf9  2**0
                  CONTENTS, READONLY

Disassembly of section .text:

000200e4 <_ZN18complex_no_dynamic3app17h006667351cc272c5E>:
   200e4:	b5f0      	push	{r4, r5, r6, r7, lr}
   200e6:	af03      	add	r7, sp, #12
   200e8:	b09f      	sub	sp, #124	@ 0x7c
   200ea:	4604      	mov	r4, r0
   200ec:	466d      	mov	r5, sp
   200ee:	264a      	movs	r6, #74	@ 0x4a
   200f0:	4628      	mov	r0, r5
   200f2:	4632      	mov	r2, r6
   200f4:	f007 fdaf 	bl	27c56 <__aeabi_memcpy>
   200f8:	a813      	add	r0, sp, #76	@ 0x4c
   200fa:	212d      	movs	r1, #45	@ 0x2d
   200fc:	f007 fbfe 	bl	278fc <__aeabi_memclr4>
   20100:	4824      	ldr	r0, [pc, #144]	@ (20194 <_ZN18complex_no_dynamic3app17h006667351cc272c5E+0xb0>)
   20102:	2102      	movs	r1, #2
   20104:	462a      	mov	r2, r5
   20106:	4633      	mov	r3, r6
   20108:	df04      	svc	4
   2010a:	2802      	cmp	r0, #2
   2010c:	d00e      	beq.n	2012c <_ZN18complex_no_dynamic3app17h006667351cc272c5E+0x48>
   2010e:	4821      	ldr	r0, [pc, #132]	@ (20194 <_ZN18complex_no_dynamic3app17h006667351cc272c5E+0xb0>)
   20110:	2103      	movs	r1, #3
   20112:	aa13      	add	r2, sp, #76	@ 0x4c
   20114:	232d      	movs	r3, #45	@ 0x2d
   20116:	df03      	svc	3
   20118:	2802      	cmp	r0, #2
   2011a:	d007      	beq.n	2012c <_ZN18complex_no_dynamic3app17h006667351cc272c5E+0x48>
   2011c:	481d      	ldr	r0, [pc, #116]	@ (20194 <_ZN18complex_no_dynamic3app17h006667351cc272c5E+0xb0>)
   2011e:	2102      	movs	r1, #2
   20120:	2203      	movs	r2, #3
   20122:	2500      	movs	r5, #0
   20124:	462b      	mov	r3, r5
   20126:	df02      	svc	2
   20128:	287f      	cmp	r0, #127	@ 0x7f
   2012a:	d813      	bhi.n	20154 <_ZN18complex_no_dynamic3app17h006667351cc272c5E+0x70>
   2012c:	2501      	movs	r5, #1
   2012e:	2d00      	cmp	r5, #0
   20130:	d017      	beq.n	20162 <_ZN18complex_no_dynamic3app17h006667351cc272c5E+0x7e>
   20132:	2001      	movs	r0, #1
   20134:	7020      	strb	r0, [r4, #0]
   20136:	6061      	str	r1, [r4, #4]
   20138:	4c16      	ldr	r4, [pc, #88]	@ (20194 <_ZN18complex_no_dynamic3app17h006667351cc272c5E+0xb0>)
   2013a:	2103      	movs	r1, #3
   2013c:	2500      	movs	r5, #0
   2013e:	4620      	mov	r0, r4
   20140:	462a      	mov	r2, r5
   20142:	462b      	mov	r3, r5
   20144:	df03      	svc	3
   20146:	2102      	movs	r1, #2
   20148:	4620      	mov	r0, r4
   2014a:	462a      	mov	r2, r5
   2014c:	462b      	mov	r3, r5
   2014e:	df04      	svc	4
   20150:	b01f      	add	sp, #124	@ 0x7c
   20152:	bdf0      	pop	{r4, r5, r6, r7, pc}
   20154:	480f      	ldr	r0, [pc, #60]	@ (20194 <_ZN18complex_no_dynamic3app17h006667351cc272c5E+0xb0>)
   20156:	2103      	movs	r1, #3
   20158:	462a      	mov	r2, r5
   2015a:	462b      	mov	r3, r5
   2015c:	df03      	svc	3
   2015e:	2d00      	cmp	r5, #0
   20160:	d1e7      	bne.n	20132 <_ZN18complex_no_dynamic3app17h006667351cc272c5E+0x4e>
   20162:	480c      	ldr	r0, [pc, #48]	@ (20194 <_ZN18complex_no_dynamic3app17h006667351cc272c5E+0xb0>)
   20164:	2603      	movs	r6, #3
   20166:	2500      	movs	r5, #0
   20168:	4631      	mov	r1, r6
   2016a:	462a      	mov	r2, r5
   2016c:	462b      	mov	r3, r5
   2016e:	df03      	svc	3
   20170:	1c60      	adds	r0, r4, #1
   20172:	a913      	add	r1, sp, #76	@ 0x4c
   20174:	222d      	movs	r2, #45	@ 0x2d
   20176:	f007 fd6e 	bl	27c56 <__aeabi_memcpy>
   2017a:	7025      	strb	r5, [r4, #0]
   2017c:	4805      	ldr	r0, [pc, #20]	@ (20194 <_ZN18complex_no_dynamic3app17h006667351cc272c5E+0xb0>)
   2017e:	4631      	mov	r1, r6
   20180:	462a      	mov	r2, r5
   20182:	462b      	mov	r3, r5
   20184:	df03      	svc	3
   20186:	2102      	movs	r1, #2
   20188:	4802      	ldr	r0, [pc, #8]	@ (20194 <_ZN18complex_no_dynamic3app17h006667351cc272c5E+0xb0>)
   2018a:	462a      	mov	r2, r5
   2018c:	462b      	mov	r3, r5
   2018e:	df04      	svc	4
   20190:	b01f      	add	sp, #124	@ 0x7c
   20192:	bdf0      	pop	{r4, r5, r6, r7, pc}
   20194:	00000e3d 	.word	0x00000e3d

00020198 <_ZN18complex_no_dynamic3app17h04f3be59ea28f0a8E>:
   20198:	b5f0      	push	{r4, r5, r6, r7, lr}
   2019a:	af03      	add	r7, sp, #12
   2019c:	b0a5      	sub	sp, #148	@ 0x94
   2019e:	4604      	mov	r4, r0
   201a0:	ad01      	add	r5, sp, #4
   201a2:	262f      	movs	r6, #47	@ 0x2f
   201a4:	4628      	mov	r0, r5
   201a6:	4632      	mov	r2, r6
   201a8:	f007 fd55 	bl	27c56 <__aeabi_memcpy>
   201ac:	a80d      	add	r0, sp, #52	@ 0x34
   201ae:	215e      	movs	r1, #94	@ 0x5e
   201b0:	f007 fba4 	bl	278fc <__aeabi_memclr4>
   201b4:	4824      	ldr	r0, [pc, #144]	@ (20248 <_ZN18complex_no_dynamic3app17h04f3be59ea28f0a8E+0xb0>)
   201b6:	2105      	movs	r1, #5
   201b8:	462a      	mov	r2, r5
   201ba:	4633      	mov	r3, r6
   201bc:	df04      	svc	4
   201be:	2802      	cmp	r0, #2
   201c0:	d00e      	beq.n	201e0 <_ZN18complex_no_dynamic3app17h04f3be59ea28f0a8E+0x48>
   201c2:	4821      	ldr	r0, [pc, #132]	@ (20248 <_ZN18complex_no_dynamic3app17h04f3be59ea28f0a8E+0xb0>)
   201c4:	2102      	movs	r1, #2
   201c6:	aa0d      	add	r2, sp, #52	@ 0x34
   201c8:	235e      	movs	r3, #94	@ 0x5e
   201ca:	df03      	svc	3
   201cc:	2802      	cmp	r0, #2
   201ce:	d007      	beq.n	201e0 <_ZN18complex_no_dynamic3app17h04f3be59ea28f0a8E+0x48>
   201d0:	481d      	ldr	r0, [pc, #116]	@ (20248 <_ZN18complex_no_dynamic3app17h04f3be59ea28f0a8E+0xb0>)
   201d2:	2105      	movs	r1, #5
   201d4:	2202      	movs	r2, #2
   201d6:	2500      	movs	r5, #0
   201d8:	462b      	mov	r3, r5
   201da:	df02      	svc	2
   201dc:	287f      	cmp	r0, #127	@ 0x7f
   201de:	d813      	bhi.n	20208 <_ZN18complex_no_dynamic3app17h04f3be59ea28f0a8E+0x70>
   201e0:	2501      	movs	r5, #1
   201e2:	2d00      	cmp	r5, #0
   201e4:	d017      	beq.n	20216 <_ZN18complex_no_dynamic3app17h04f3be59ea28f0a8E+0x7e>
   201e6:	2001      	movs	r0, #1
   201e8:	7020      	strb	r0, [r4, #0]
   201ea:	6061      	str	r1, [r4, #4]
   201ec:	4c16      	ldr	r4, [pc, #88]	@ (20248 <_ZN18complex_no_dynamic3app17h04f3be59ea28f0a8E+0xb0>)
   201ee:	2102      	movs	r1, #2
   201f0:	2500      	movs	r5, #0
   201f2:	4620      	mov	r0, r4
   201f4:	462a      	mov	r2, r5
   201f6:	462b      	mov	r3, r5
   201f8:	df03      	svc	3
   201fa:	2105      	movs	r1, #5
   201fc:	4620      	mov	r0, r4
   201fe:	462a      	mov	r2, r5
   20200:	462b      	mov	r3, r5
   20202:	df04      	svc	4
   20204:	b025      	add	sp, #148	@ 0x94
   20206:	bdf0      	pop	{r4, r5, r6, r7, pc}
   20208:	480f      	ldr	r0, [pc, #60]	@ (20248 <_ZN18complex_no_dynamic3app17h04f3be59ea28f0a8E+0xb0>)
   2020a:	2102      	movs	r1, #2
   2020c:	462a      	mov	r2, r5
   2020e:	462b      	mov	r3, r5
   20210:	df03      	svc	3
   20212:	2d00      	cmp	r5, #0
   20214:	d1e7      	bne.n	201e6 <_ZN18complex_no_dynamic3app17h04f3be59ea28f0a8E+0x4e>
   20216:	480c      	ldr	r0, [pc, #48]	@ (20248 <_ZN18complex_no_dynamic3app17h04f3be59ea28f0a8E+0xb0>)
   20218:	2602      	movs	r6, #2
   2021a:	2500      	movs	r5, #0
   2021c:	4631      	mov	r1, r6
   2021e:	462a      	mov	r2, r5
   20220:	462b      	mov	r3, r5
   20222:	df03      	svc	3
   20224:	1c60      	adds	r0, r4, #1
   20226:	a90d      	add	r1, sp, #52	@ 0x34
   20228:	225e      	movs	r2, #94	@ 0x5e
   2022a:	f007 fd14 	bl	27c56 <__aeabi_memcpy>
   2022e:	7025      	strb	r5, [r4, #0]
   20230:	4805      	ldr	r0, [pc, #20]	@ (20248 <_ZN18complex_no_dynamic3app17h04f3be59ea28f0a8E+0xb0>)
   20232:	4631      	mov	r1, r6
   20234:	462a      	mov	r2, r5
   20236:	462b      	mov	r3, r5
   20238:	df03      	svc	3
   2023a:	2105      	movs	r1, #5
   2023c:	4802      	ldr	r0, [pc, #8]	@ (20248 <_ZN18complex_no_dynamic3app17h04f3be59ea28f0a8E+0xb0>)
   2023e:	462a      	mov	r2, r5
   20240:	462b      	mov	r3, r5
   20242:	df04      	svc	4
   20244:	b025      	add	sp, #148	@ 0x94
   20246:	bdf0      	pop	{r4, r5, r6, r7, pc}
   20248:	0000022b 	.word	0x0000022b

0002024c <_ZN18complex_no_dynamic3app17h05b02a760f3b630aE>:
   2024c:	b5f0      	push	{r4, r5, r6, r7, lr}
   2024e:	af03      	add	r7, sp, #12
   20250:	b097      	sub	sp, #92	@ 0x5c
   20252:	9001      	str	r0, [sp, #4]
   20254:	ae02      	add	r6, sp, #8
   20256:	2411      	movs	r4, #17
   20258:	4630      	mov	r0, r6
   2025a:	4622      	mov	r2, r4
   2025c:	f007 fcfb 	bl	27c56 <__aeabi_memcpy>
   20260:	a807      	add	r0, sp, #28
   20262:	213f      	movs	r1, #63	@ 0x3f
   20264:	f007 fb4a 	bl	278fc <__aeabi_memclr4>
   20268:	20cb      	movs	r0, #203	@ 0xcb
   2026a:	0105      	lsls	r5, r0, #4
   2026c:	2107      	movs	r1, #7
   2026e:	4628      	mov	r0, r5
   20270:	4632      	mov	r2, r6
   20272:	4623      	mov	r3, r4
   20274:	df04      	svc	4
   20276:	2802      	cmp	r0, #2
   20278:	d00e      	beq.n	20298 <_ZN18complex_no_dynamic3app17h05b02a760f3b630aE+0x4c>
   2027a:	2104      	movs	r1, #4
   2027c:	aa07      	add	r2, sp, #28
   2027e:	233f      	movs	r3, #63	@ 0x3f
   20280:	4628      	mov	r0, r5
   20282:	df03      	svc	3
   20284:	2802      	cmp	r0, #2
   20286:	d007      	beq.n	20298 <_ZN18complex_no_dynamic3app17h05b02a760f3b630aE+0x4c>
   20288:	2107      	movs	r1, #7
   2028a:	2204      	movs	r2, #4
   2028c:	2600      	movs	r6, #0
   2028e:	4628      	mov	r0, r5
   20290:	4633      	mov	r3, r6
   20292:	df02      	svc	2
   20294:	287f      	cmp	r0, #127	@ 0x7f
   20296:	d813      	bhi.n	202c0 <_ZN18complex_no_dynamic3app17h05b02a760f3b630aE+0x74>
   20298:	2601      	movs	r6, #1
   2029a:	2e00      	cmp	r6, #0
   2029c:	d017      	beq.n	202ce <_ZN18complex_no_dynamic3app17h05b02a760f3b630aE+0x82>
   2029e:	2001      	movs	r0, #1
   202a0:	9a01      	ldr	r2, [sp, #4]
   202a2:	7010      	strb	r0, [r2, #0]
   202a4:	6051      	str	r1, [r2, #4]
   202a6:	2104      	movs	r1, #4
   202a8:	2400      	movs	r4, #0
   202aa:	4628      	mov	r0, r5
   202ac:	4622      	mov	r2, r4
   202ae:	4623      	mov	r3, r4
   202b0:	df03      	svc	3
   202b2:	2107      	movs	r1, #7
   202b4:	4628      	mov	r0, r5
   202b6:	4622      	mov	r2, r4
   202b8:	4623      	mov	r3, r4
   202ba:	df04      	svc	4
   202bc:	b017      	add	sp, #92	@ 0x5c
   202be:	bdf0      	pop	{r4, r5, r6, r7, pc}
   202c0:	2104      	movs	r1, #4
   202c2:	4628      	mov	r0, r5
   202c4:	4632      	mov	r2, r6
   202c6:	4633      	mov	r3, r6
   202c8:	df03      	svc	3
   202ca:	2e00      	cmp	r6, #0
   202cc:	d1e7      	bne.n	2029e <_ZN18complex_no_dynamic3app17h05b02a760f3b630aE+0x52>
   202ce:	2104      	movs	r1, #4
   202d0:	9100      	str	r1, [sp, #0]
   202d2:	2600      	movs	r6, #0
   202d4:	4628      	mov	r0, r5
   202d6:	4632      	mov	r2, r6
   202d8:	4633      	mov	r3, r6
   202da:	df03      	svc	3
   202dc:	9c01      	ldr	r4, [sp, #4]
   202de:	1c60      	adds	r0, r4, #1
   202e0:	a907      	add	r1, sp, #28
   202e2:	223f      	movs	r2, #63	@ 0x3f
   202e4:	f007 fcb7 	bl	27c56 <__aeabi_memcpy>
   202e8:	7026      	strb	r6, [r4, #0]
   202ea:	4628      	mov	r0, r5
   202ec:	9900      	ldr	r1, [sp, #0]
   202ee:	4632      	mov	r2, r6
   202f0:	4633      	mov	r3, r6
   202f2:	df03      	svc	3
   202f4:	2107      	movs	r1, #7
   202f6:	4628      	mov	r0, r5
   202f8:	4632      	mov	r2, r6
   202fa:	4633      	mov	r3, r6
   202fc:	df04      	svc	4
   202fe:	b017      	add	sp, #92	@ 0x5c
   20300:	bdf0      	pop	{r4, r5, r6, r7, pc}

00020302 <_ZN18complex_no_dynamic3app17h05ba7569ceff0753E>:
   20302:	b5f0      	push	{r4, r5, r6, r7, lr}
   20304:	af03      	add	r7, sp, #12
   20306:	b0a3      	sub	sp, #140	@ 0x8c
   20308:	9001      	str	r0, [sp, #4]
   2030a:	ac02      	add	r4, sp, #8
   2030c:	2261      	movs	r2, #97	@ 0x61
   2030e:	9200      	str	r2, [sp, #0]
   20310:	4620      	mov	r0, r4
   20312:	f007 fca0 	bl	27c56 <__aeabi_memcpy>
   20316:	a81b      	add	r0, sp, #108	@ 0x6c
   20318:	2500      	movs	r5, #0
   2031a:	8385      	strh	r5, [r0, #28]
   2031c:	9521      	str	r5, [sp, #132]	@ 0x84
   2031e:	9520      	str	r5, [sp, #128]	@ 0x80
   20320:	951f      	str	r5, [sp, #124]	@ 0x7c
   20322:	951e      	str	r5, [sp, #120]	@ 0x78
   20324:	951d      	str	r5, [sp, #116]	@ 0x74
   20326:	951c      	str	r5, [sp, #112]	@ 0x70
   20328:	951b      	str	r5, [sp, #108]	@ 0x6c
   2032a:	2031      	movs	r0, #49	@ 0x31
   2032c:	00c6      	lsls	r6, r0, #3
   2032e:	2104      	movs	r1, #4
   20330:	4630      	mov	r0, r6
   20332:	4622      	mov	r2, r4
   20334:	9b00      	ldr	r3, [sp, #0]
   20336:	df04      	svc	4
   20338:	2802      	cmp	r0, #2
   2033a:	d00e      	beq.n	2035a <_ZN18complex_no_dynamic3app17h05ba7569ceff0753E+0x58>
   2033c:	2106      	movs	r1, #6
   2033e:	aa1b      	add	r2, sp, #108	@ 0x6c
   20340:	231e      	movs	r3, #30
   20342:	4630      	mov	r0, r6
   20344:	df03      	svc	3
   20346:	2802      	cmp	r0, #2
   20348:	d007      	beq.n	2035a <_ZN18complex_no_dynamic3app17h05ba7569ceff0753E+0x58>
   2034a:	2104      	movs	r1, #4
   2034c:	2206      	movs	r2, #6
   2034e:	2400      	movs	r4, #0
   20350:	4630      	mov	r0, r6
   20352:	4623      	mov	r3, r4
   20354:	df02      	svc	2
   20356:	287f      	cmp	r0, #127	@ 0x7f
   20358:	d813      	bhi.n	20382 <_ZN18complex_no_dynamic3app17h05ba7569ceff0753E+0x80>
   2035a:	2401      	movs	r4, #1
   2035c:	2c00      	cmp	r4, #0
   2035e:	d017      	beq.n	20390 <_ZN18complex_no_dynamic3app17h05ba7569ceff0753E+0x8e>
   20360:	2001      	movs	r0, #1
   20362:	9a01      	ldr	r2, [sp, #4]
   20364:	7010      	strb	r0, [r2, #0]
   20366:	6051      	str	r1, [r2, #4]
   20368:	2106      	movs	r1, #6
   2036a:	2400      	movs	r4, #0
   2036c:	4630      	mov	r0, r6
   2036e:	4622      	mov	r2, r4
   20370:	4623      	mov	r3, r4
   20372:	df03      	svc	3
   20374:	2104      	movs	r1, #4
   20376:	4630      	mov	r0, r6
   20378:	4622      	mov	r2, r4
   2037a:	4623      	mov	r3, r4
   2037c:	df04      	svc	4
   2037e:	b023      	add	sp, #140	@ 0x8c
   20380:	bdf0      	pop	{r4, r5, r6, r7, pc}
   20382:	2106      	movs	r1, #6
   20384:	4630      	mov	r0, r6
   20386:	4622      	mov	r2, r4
   20388:	4623      	mov	r3, r4
   2038a:	df03      	svc	3
   2038c:	2c00      	cmp	r4, #0
   2038e:	d1e7      	bne.n	20360 <_ZN18complex_no_dynamic3app17h05ba7569ceff0753E+0x5e>
   20390:	2106      	movs	r1, #6
   20392:	9100      	str	r1, [sp, #0]
   20394:	4630      	mov	r0, r6
   20396:	462a      	mov	r2, r5
   20398:	462b      	mov	r3, r5
   2039a:	df03      	svc	3
   2039c:	4634      	mov	r4, r6
   2039e:	9e01      	ldr	r6, [sp, #4]
   203a0:	1c70      	adds	r0, r6, #1
   203a2:	a91b      	add	r1, sp, #108	@ 0x6c
   203a4:	221e      	movs	r2, #30
   203a6:	f007 fc56 	bl	27c56 <__aeabi_memcpy>
   203aa:	7035      	strb	r5, [r6, #0]
   203ac:	4620      	mov	r0, r4
   203ae:	9900      	ldr	r1, [sp, #0]
   203b0:	462a      	mov	r2, r5
   203b2:	462b      	mov	r3, r5
   203b4:	df03      	svc	3
   203b6:	2104      	movs	r1, #4
   203b8:	4620      	mov	r0, r4
   203ba:	462a      	mov	r2, r5
   203bc:	462b      	mov	r3, r5
   203be:	df04      	svc	4
   203c0:	b023      	add	sp, #140	@ 0x8c
   203c2:	bdf0      	pop	{r4, r5, r6, r7, pc}

000203c4 <_ZN18complex_no_dynamic3app17h0e3cbfe00dda8d8cE>:
   203c4:	b5f0      	push	{r4, r5, r6, r7, lr}
   203c6:	af03      	add	r7, sp, #12
   203c8:	b0a3      	sub	sp, #140	@ 0x8c
   203ca:	4604      	mov	r4, r0
   203cc:	466d      	mov	r5, sp
   203ce:	2650      	movs	r6, #80	@ 0x50
   203d0:	4628      	mov	r0, r5
   203d2:	4632      	mov	r2, r6
   203d4:	f007 fc3f 	bl	27c56 <__aeabi_memcpy>
   203d8:	a814      	add	r0, sp, #80	@ 0x50
   203da:	213c      	movs	r1, #60	@ 0x3c
   203dc:	f007 fa8e 	bl	278fc <__aeabi_memclr4>
   203e0:	4824      	ldr	r0, [pc, #144]	@ (20474 <_ZN18complex_no_dynamic3app17h0e3cbfe00dda8d8cE+0xb0>)
   203e2:	2103      	movs	r1, #3
   203e4:	462a      	mov	r2, r5
   203e6:	4633      	mov	r3, r6
   203e8:	df04      	svc	4
   203ea:	2802      	cmp	r0, #2
   203ec:	d00e      	beq.n	2040c <_ZN18complex_no_dynamic3app17h0e3cbfe00dda8d8cE+0x48>
   203ee:	4821      	ldr	r0, [pc, #132]	@ (20474 <_ZN18complex_no_dynamic3app17h0e3cbfe00dda8d8cE+0xb0>)
   203f0:	2109      	movs	r1, #9
   203f2:	aa14      	add	r2, sp, #80	@ 0x50
   203f4:	233c      	movs	r3, #60	@ 0x3c
   203f6:	df03      	svc	3
   203f8:	2802      	cmp	r0, #2
   203fa:	d007      	beq.n	2040c <_ZN18complex_no_dynamic3app17h0e3cbfe00dda8d8cE+0x48>
   203fc:	481d      	ldr	r0, [pc, #116]	@ (20474 <_ZN18complex_no_dynamic3app17h0e3cbfe00dda8d8cE+0xb0>)
   203fe:	2103      	movs	r1, #3
   20400:	2209      	movs	r2, #9
   20402:	2500      	movs	r5, #0
   20404:	462b      	mov	r3, r5
   20406:	df02      	svc	2
   20408:	287f      	cmp	r0, #127	@ 0x7f
   2040a:	d813      	bhi.n	20434 <_ZN18complex_no_dynamic3app17h0e3cbfe00dda8d8cE+0x70>
   2040c:	2501      	movs	r5, #1
   2040e:	2d00      	cmp	r5, #0
   20410:	d017      	beq.n	20442 <_ZN18complex_no_dynamic3app17h0e3cbfe00dda8d8cE+0x7e>
   20412:	2001      	movs	r0, #1
   20414:	7020      	strb	r0, [r4, #0]
   20416:	6061      	str	r1, [r4, #4]
   20418:	4c16      	ldr	r4, [pc, #88]	@ (20474 <_ZN18complex_no_dynamic3app17h0e3cbfe00dda8d8cE+0xb0>)
   2041a:	2109      	movs	r1, #9
   2041c:	2500      	movs	r5, #0
   2041e:	4620      	mov	r0, r4
   20420:	462a      	mov	r2, r5
   20422:	462b      	mov	r3, r5
   20424:	df03      	svc	3
   20426:	2103      	movs	r1, #3
   20428:	4620      	mov	r0, r4
   2042a:	462a      	mov	r2, r5
   2042c:	462b      	mov	r3, r5
   2042e:	df04      	svc	4
   20430:	b023      	add	sp, #140	@ 0x8c
   20432:	bdf0      	pop	{r4, r5, r6, r7, pc}
   20434:	480f      	ldr	r0, [pc, #60]	@ (20474 <_ZN18complex_no_dynamic3app17h0e3cbfe00dda8d8cE+0xb0>)
   20436:	2109      	movs	r1, #9
   20438:	462a      	mov	r2, r5
   2043a:	462b      	mov	r3, r5
   2043c:	df03      	svc	3
   2043e:	2d00      	cmp	r5, #0
   20440:	d1e7      	bne.n	20412 <_ZN18complex_no_dynamic3app17h0e3cbfe00dda8d8cE+0x4e>
   20442:	480c      	ldr	r0, [pc, #48]	@ (20474 <_ZN18complex_no_dynamic3app17h0e3cbfe00dda8d8cE+0xb0>)
   20444:	2609      	movs	r6, #9
   20446:	2500      	movs	r5, #0
   20448:	4631      	mov	r1, r6
   2044a:	462a      	mov	r2, r5
   2044c:	462b      	mov	r3, r5
   2044e:	df03      	svc	3
   20450:	1c60      	adds	r0, r4, #1
   20452:	a914      	add	r1, sp, #80	@ 0x50
   20454:	223c      	movs	r2, #60	@ 0x3c
   20456:	f007 fbfe 	bl	27c56 <__aeabi_memcpy>
   2045a:	7025      	strb	r5, [r4, #0]
   2045c:	4805      	ldr	r0, [pc, #20]	@ (20474 <_ZN18complex_no_dynamic3app17h0e3cbfe00dda8d8cE+0xb0>)
   2045e:	4631      	mov	r1, r6
   20460:	462a      	mov	r2, r5
   20462:	462b      	mov	r3, r5
   20464:	df03      	svc	3
   20466:	2103      	movs	r1, #3
   20468:	4802      	ldr	r0, [pc, #8]	@ (20474 <_ZN18complex_no_dynamic3app17h0e3cbfe00dda8d8cE+0xb0>)
   2046a:	462a      	mov	r2, r5
   2046c:	462b      	mov	r3, r5
   2046e:	df04      	svc	4
   20470:	b023      	add	sp, #140	@ 0x8c
   20472:	bdf0      	pop	{r4, r5, r6, r7, pc}
   20474:	00000d7a 	.word	0x00000d7a

00020478 <_ZN18complex_no_dynamic3app17h0ef1a48c4ae6cdcdE>:
   20478:	b5f0      	push	{r4, r5, r6, r7, lr}
   2047a:	af03      	add	r7, sp, #12
   2047c:	b0a9      	sub	sp, #164	@ 0xa4
   2047e:	4604      	mov	r4, r0
   20480:	466d      	mov	r5, sp
   20482:	2656      	movs	r6, #86	@ 0x56
   20484:	4628      	mov	r0, r5
   20486:	4632      	mov	r2, r6
   20488:	f007 fbe5 	bl	27c56 <__aeabi_memcpy>
   2048c:	a816      	add	r0, sp, #88	@ 0x58
   2048e:	2149      	movs	r1, #73	@ 0x49
   20490:	f007 fa34 	bl	278fc <__aeabi_memclr4>
   20494:	4825      	ldr	r0, [pc, #148]	@ (2052c <_ZN18complex_no_dynamic3app17h0ef1a48c4ae6cdcdE+0xb4>)
   20496:	2106      	movs	r1, #6
   20498:	462a      	mov	r2, r5
   2049a:	4633      	mov	r3, r6
   2049c:	df04      	svc	4
   2049e:	2802      	cmp	r0, #2
   204a0:	d00e      	beq.n	204c0 <_ZN18complex_no_dynamic3app17h0ef1a48c4ae6cdcdE+0x48>
   204a2:	4822      	ldr	r0, [pc, #136]	@ (2052c <_ZN18complex_no_dynamic3app17h0ef1a48c4ae6cdcdE+0xb4>)
   204a4:	2106      	movs	r1, #6
   204a6:	aa16      	add	r2, sp, #88	@ 0x58
   204a8:	2349      	movs	r3, #73	@ 0x49
   204aa:	df03      	svc	3
   204ac:	2802      	cmp	r0, #2
   204ae:	d007      	beq.n	204c0 <_ZN18complex_no_dynamic3app17h0ef1a48c4ae6cdcdE+0x48>
   204b0:	481e      	ldr	r0, [pc, #120]	@ (2052c <_ZN18complex_no_dynamic3app17h0ef1a48c4ae6cdcdE+0xb4>)
   204b2:	2106      	movs	r1, #6
   204b4:	2500      	movs	r5, #0
   204b6:	460a      	mov	r2, r1
   204b8:	462b      	mov	r3, r5
   204ba:	df02      	svc	2
   204bc:	287f      	cmp	r0, #127	@ 0x7f
   204be:	d814      	bhi.n	204ea <_ZN18complex_no_dynamic3app17h0ef1a48c4ae6cdcdE+0x72>
   204c0:	2501      	movs	r5, #1
   204c2:	2d00      	cmp	r5, #0
   204c4:	d018      	beq.n	204f8 <_ZN18complex_no_dynamic3app17h0ef1a48c4ae6cdcdE+0x80>
   204c6:	2001      	movs	r0, #1
   204c8:	7020      	strb	r0, [r4, #0]
   204ca:	6061      	str	r1, [r4, #4]
   204cc:	4c17      	ldr	r4, [pc, #92]	@ (2052c <_ZN18complex_no_dynamic3app17h0ef1a48c4ae6cdcdE+0xb4>)
   204ce:	2506      	movs	r5, #6
   204d0:	2600      	movs	r6, #0
   204d2:	4620      	mov	r0, r4
   204d4:	4629      	mov	r1, r5
   204d6:	4632      	mov	r2, r6
   204d8:	4633      	mov	r3, r6
   204da:	df03      	svc	3
   204dc:	4620      	mov	r0, r4
   204de:	4629      	mov	r1, r5
   204e0:	4632      	mov	r2, r6
   204e2:	4633      	mov	r3, r6
   204e4:	df04      	svc	4
   204e6:	b029      	add	sp, #164	@ 0xa4
   204e8:	bdf0      	pop	{r4, r5, r6, r7, pc}
   204ea:	4810      	ldr	r0, [pc, #64]	@ (2052c <_ZN18complex_no_dynamic3app17h0ef1a48c4ae6cdcdE+0xb4>)
   204ec:	2106      	movs	r1, #6
   204ee:	462a      	mov	r2, r5
   204f0:	462b      	mov	r3, r5
   204f2:	df03      	svc	3
   204f4:	2d00      	cmp	r5, #0
   204f6:	d1e6      	bne.n	204c6 <_ZN18complex_no_dynamic3app17h0ef1a48c4ae6cdcdE+0x4e>
   204f8:	480c      	ldr	r0, [pc, #48]	@ (2052c <_ZN18complex_no_dynamic3app17h0ef1a48c4ae6cdcdE+0xb4>)
   204fa:	2606      	movs	r6, #6
   204fc:	2500      	movs	r5, #0
   204fe:	4631      	mov	r1, r6
   20500:	462a      	mov	r2, r5
   20502:	462b      	mov	r3, r5
   20504:	df03      	svc	3
   20506:	1c60      	adds	r0, r4, #1
   20508:	a916      	add	r1, sp, #88	@ 0x58
   2050a:	2249      	movs	r2, #73	@ 0x49
   2050c:	f007 fba3 	bl	27c56 <__aeabi_memcpy>
   20510:	7025      	strb	r5, [r4, #0]
   20512:	4806      	ldr	r0, [pc, #24]	@ (2052c <_ZN18complex_no_dynamic3app17h0ef1a48c4ae6cdcdE+0xb4>)
   20514:	4631      	mov	r1, r6
   20516:	462a      	mov	r2, r5
   20518:	462b      	mov	r3, r5
   2051a:	df03      	svc	3
   2051c:	4803      	ldr	r0, [pc, #12]	@ (2052c <_ZN18complex_no_dynamic3app17h0ef1a48c4ae6cdcdE+0xb4>)
   2051e:	4631      	mov	r1, r6
   20520:	462a      	mov	r2, r5
   20522:	462b      	mov	r3, r5
   20524:	df04      	svc	4
   20526:	b029      	add	sp, #164	@ 0xa4
   20528:	bdf0      	pop	{r4, r5, r6, r7, pc}
   2052a:	46c0      	nop			@ (mov r8, r8)
   2052c:	00001c6b 	.word	0x00001c6b

00020530 <_ZN18complex_no_dynamic3app17h14ff950ecbc8c51cE>:
   20530:	b5f0      	push	{r4, r5, r6, r7, lr}
   20532:	af03      	add	r7, sp, #12
   20534:	b09f      	sub	sp, #124	@ 0x7c
   20536:	4604      	mov	r4, r0
   20538:	ad01      	add	r5, sp, #4
   2053a:	2632      	movs	r6, #50	@ 0x32
   2053c:	4628      	mov	r0, r5
   2053e:	4632      	mov	r2, r6
   20540:	f007 fb89 	bl	27c56 <__aeabi_memcpy>
   20544:	a80e      	add	r0, sp, #56	@ 0x38
   20546:	2141      	movs	r1, #65	@ 0x41
   20548:	f007 f9d8 	bl	278fc <__aeabi_memclr4>
   2054c:	4824      	ldr	r0, [pc, #144]	@ (205e0 <_ZN18complex_no_dynamic3app17h14ff950ecbc8c51cE+0xb0>)
   2054e:	2107      	movs	r1, #7
   20550:	462a      	mov	r2, r5
   20552:	4633      	mov	r3, r6
   20554:	df04      	svc	4
   20556:	2802      	cmp	r0, #2
   20558:	d00e      	beq.n	20578 <_ZN18complex_no_dynamic3app17h14ff950ecbc8c51cE+0x48>
   2055a:	4821      	ldr	r0, [pc, #132]	@ (205e0 <_ZN18complex_no_dynamic3app17h14ff950ecbc8c51cE+0xb0>)
   2055c:	2105      	movs	r1, #5
   2055e:	aa0e      	add	r2, sp, #56	@ 0x38
   20560:	2341      	movs	r3, #65	@ 0x41
   20562:	df03      	svc	3
   20564:	2802      	cmp	r0, #2
   20566:	d007      	beq.n	20578 <_ZN18complex_no_dynamic3app17h14ff950ecbc8c51cE+0x48>
   20568:	481d      	ldr	r0, [pc, #116]	@ (205e0 <_ZN18complex_no_dynamic3app17h14ff950ecbc8c51cE+0xb0>)
   2056a:	2107      	movs	r1, #7
   2056c:	2205      	movs	r2, #5
   2056e:	2500      	movs	r5, #0
   20570:	462b      	mov	r3, r5
   20572:	df02      	svc	2
   20574:	287f      	cmp	r0, #127	@ 0x7f
   20576:	d813      	bhi.n	205a0 <_ZN18complex_no_dynamic3app17h14ff950ecbc8c51cE+0x70>
   20578:	2501      	movs	r5, #1
   2057a:	2d00      	cmp	r5, #0
   2057c:	d017      	beq.n	205ae <_ZN18complex_no_dynamic3app17h14ff950ecbc8c51cE+0x7e>
   2057e:	2001      	movs	r0, #1
   20580:	7020      	strb	r0, [r4, #0]
   20582:	6061      	str	r1, [r4, #4]
   20584:	4c16      	ldr	r4, [pc, #88]	@ (205e0 <_ZN18complex_no_dynamic3app17h14ff950ecbc8c51cE+0xb0>)
   20586:	2105      	movs	r1, #5
   20588:	2500      	movs	r5, #0
   2058a:	4620      	mov	r0, r4
   2058c:	462a      	mov	r2, r5
   2058e:	462b      	mov	r3, r5
   20590:	df03      	svc	3
   20592:	2107      	movs	r1, #7
   20594:	4620      	mov	r0, r4
   20596:	462a      	mov	r2, r5
   20598:	462b      	mov	r3, r5
   2059a:	df04      	svc	4
   2059c:	b01f      	add	sp, #124	@ 0x7c
   2059e:	bdf0      	pop	{r4, r5, r6, r7, pc}
   205a0:	480f      	ldr	r0, [pc, #60]	@ (205e0 <_ZN18complex_no_dynamic3app17h14ff950ecbc8c51cE+0xb0>)
   205a2:	2105      	movs	r1, #5
   205a4:	462a      	mov	r2, r5
   205a6:	462b      	mov	r3, r5
   205a8:	df03      	svc	3
   205aa:	2d00      	cmp	r5, #0
   205ac:	d1e7      	bne.n	2057e <_ZN18complex_no_dynamic3app17h14ff950ecbc8c51cE+0x4e>
   205ae:	480c      	ldr	r0, [pc, #48]	@ (205e0 <_ZN18complex_no_dynamic3app17h14ff950ecbc8c51cE+0xb0>)
   205b0:	2605      	movs	r6, #5
   205b2:	2500      	movs	r5, #0
   205b4:	4631      	mov	r1, r6
   205b6:	462a      	mov	r2, r5
   205b8:	462b      	mov	r3, r5
   205ba:	df03      	svc	3
   205bc:	1c60      	adds	r0, r4, #1
   205be:	a90e      	add	r1, sp, #56	@ 0x38
   205c0:	2241      	movs	r2, #65	@ 0x41
   205c2:	f007 fb48 	bl	27c56 <__aeabi_memcpy>
   205c6:	7025      	strb	r5, [r4, #0]
   205c8:	4805      	ldr	r0, [pc, #20]	@ (205e0 <_ZN18complex_no_dynamic3app17h14ff950ecbc8c51cE+0xb0>)
   205ca:	4631      	mov	r1, r6
   205cc:	462a      	mov	r2, r5
   205ce:	462b      	mov	r3, r5
   205d0:	df03      	svc	3
   205d2:	2107      	movs	r1, #7
   205d4:	4802      	ldr	r0, [pc, #8]	@ (205e0 <_ZN18complex_no_dynamic3app17h14ff950ecbc8c51cE+0xb0>)
   205d6:	462a      	mov	r2, r5
   205d8:	462b      	mov	r3, r5
   205da:	df04      	svc	4
   205dc:	b01f      	add	sp, #124	@ 0x7c
   205de:	bdf0      	pop	{r4, r5, r6, r7, pc}
   205e0:	0000091d 	.word	0x0000091d

000205e4 <_ZN18complex_no_dynamic3app17h165047a01d7385b3E>:
   205e4:	b5f0      	push	{r4, r5, r6, r7, lr}
   205e6:	af03      	add	r7, sp, #12
   205e8:	b091      	sub	sp, #68	@ 0x44
   205ea:	4604      	mov	r4, r0
   205ec:	ad01      	add	r5, sp, #4
   205ee:	2614      	movs	r6, #20
   205f0:	4628      	mov	r0, r5
   205f2:	4632      	mov	r2, r6
   205f4:	f007 fb2f 	bl	27c56 <__aeabi_memcpy>
   205f8:	a806      	add	r0, sp, #24
   205fa:	212b      	movs	r1, #43	@ 0x2b
   205fc:	f007 f97e 	bl	278fc <__aeabi_memclr4>
   20600:	4824      	ldr	r0, [pc, #144]	@ (20694 <_ZN18complex_no_dynamic3app17h165047a01d7385b3E+0xb0>)
   20602:	2108      	movs	r1, #8
   20604:	462a      	mov	r2, r5
   20606:	4633      	mov	r3, r6
   20608:	df04      	svc	4
   2060a:	2802      	cmp	r0, #2
   2060c:	d00e      	beq.n	2062c <_ZN18complex_no_dynamic3app17h165047a01d7385b3E+0x48>
   2060e:	4821      	ldr	r0, [pc, #132]	@ (20694 <_ZN18complex_no_dynamic3app17h165047a01d7385b3E+0xb0>)
   20610:	2104      	movs	r1, #4
   20612:	aa06      	add	r2, sp, #24
   20614:	232b      	movs	r3, #43	@ 0x2b
   20616:	df03      	svc	3
   20618:	2802      	cmp	r0, #2
   2061a:	d007      	beq.n	2062c <_ZN18complex_no_dynamic3app17h165047a01d7385b3E+0x48>
   2061c:	481d      	ldr	r0, [pc, #116]	@ (20694 <_ZN18complex_no_dynamic3app17h165047a01d7385b3E+0xb0>)
   2061e:	2108      	movs	r1, #8
   20620:	2204      	movs	r2, #4
   20622:	2500      	movs	r5, #0
   20624:	462b      	mov	r3, r5
   20626:	df02      	svc	2
   20628:	287f      	cmp	r0, #127	@ 0x7f
   2062a:	d813      	bhi.n	20654 <_ZN18complex_no_dynamic3app17h165047a01d7385b3E+0x70>
   2062c:	2501      	movs	r5, #1
   2062e:	2d00      	cmp	r5, #0
   20630:	d017      	beq.n	20662 <_ZN18complex_no_dynamic3app17h165047a01d7385b3E+0x7e>
   20632:	2001      	movs	r0, #1
   20634:	7020      	strb	r0, [r4, #0]
   20636:	6061      	str	r1, [r4, #4]
   20638:	4c16      	ldr	r4, [pc, #88]	@ (20694 <_ZN18complex_no_dynamic3app17h165047a01d7385b3E+0xb0>)
   2063a:	2104      	movs	r1, #4
   2063c:	2500      	movs	r5, #0
   2063e:	4620      	mov	r0, r4
   20640:	462a      	mov	r2, r5
   20642:	462b      	mov	r3, r5
   20644:	df03      	svc	3
   20646:	2108      	movs	r1, #8
   20648:	4620      	mov	r0, r4
   2064a:	462a      	mov	r2, r5
   2064c:	462b      	mov	r3, r5
   2064e:	df04      	svc	4
   20650:	b011      	add	sp, #68	@ 0x44
   20652:	bdf0      	pop	{r4, r5, r6, r7, pc}
   20654:	480f      	ldr	r0, [pc, #60]	@ (20694 <_ZN18complex_no_dynamic3app17h165047a01d7385b3E+0xb0>)
   20656:	2104      	movs	r1, #4
   20658:	462a      	mov	r2, r5
   2065a:	462b      	mov	r3, r5
   2065c:	df03      	svc	3
   2065e:	2d00      	cmp	r5, #0
   20660:	d1e7      	bne.n	20632 <_ZN18complex_no_dynamic3app17h165047a01d7385b3E+0x4e>
   20662:	480c      	ldr	r0, [pc, #48]	@ (20694 <_ZN18complex_no_dynamic3app17h165047a01d7385b3E+0xb0>)
   20664:	2604      	movs	r6, #4
   20666:	2500      	movs	r5, #0
   20668:	4631      	mov	r1, r6
   2066a:	462a      	mov	r2, r5
   2066c:	462b      	mov	r3, r5
   2066e:	df03      	svc	3
   20670:	1c60      	adds	r0, r4, #1
   20672:	a906      	add	r1, sp, #24
   20674:	222b      	movs	r2, #43	@ 0x2b
   20676:	f007 faee 	bl	27c56 <__aeabi_memcpy>
   2067a:	7025      	strb	r5, [r4, #0]
   2067c:	4805      	ldr	r0, [pc, #20]	@ (20694 <_ZN18complex_no_dynamic3app17h165047a01d7385b3E+0xb0>)
   2067e:	4631      	mov	r1, r6
   20680:	462a      	mov	r2, r5
   20682:	462b      	mov	r3, r5
   20684:	df03      	svc	3
   20686:	2108      	movs	r1, #8
   20688:	4802      	ldr	r0, [pc, #8]	@ (20694 <_ZN18complex_no_dynamic3app17h165047a01d7385b3E+0xb0>)
   2068a:	462a      	mov	r2, r5
   2068c:	462b      	mov	r3, r5
   2068e:	df04      	svc	4
   20690:	b011      	add	sp, #68	@ 0x44
   20692:	bdf0      	pop	{r4, r5, r6, r7, pc}
   20694:	0000239f 	.word	0x0000239f

00020698 <_ZN18complex_no_dynamic3app17h16a6c595eca35e93E>:
   20698:	b5f0      	push	{r4, r5, r6, r7, lr}
   2069a:	af03      	add	r7, sp, #12
   2069c:	b0a1      	sub	sp, #132	@ 0x84
   2069e:	9001      	str	r0, [sp, #4]
   206a0:	ae02      	add	r6, sp, #8
   206a2:	2427      	movs	r4, #39	@ 0x27
   206a4:	4630      	mov	r0, r6
   206a6:	4622      	mov	r2, r4
   206a8:	f007 fad5 	bl	27c56 <__aeabi_memcpy>
   206ac:	a80c      	add	r0, sp, #48	@ 0x30
   206ae:	2151      	movs	r1, #81	@ 0x51
   206b0:	f007 f924 	bl	278fc <__aeabi_memclr4>
   206b4:	4826      	ldr	r0, [pc, #152]	@ (20750 <_ZN18complex_no_dynamic3app17h16a6c595eca35e93E+0xb8>)
   206b6:	2500      	movs	r5, #0
   206b8:	4629      	mov	r1, r5
   206ba:	4632      	mov	r2, r6
   206bc:	4623      	mov	r3, r4
   206be:	df04      	svc	4
   206c0:	2802      	cmp	r0, #2
   206c2:	d00e      	beq.n	206e2 <_ZN18complex_no_dynamic3app17h16a6c595eca35e93E+0x4a>
   206c4:	4822      	ldr	r0, [pc, #136]	@ (20750 <_ZN18complex_no_dynamic3app17h16a6c595eca35e93E+0xb8>)
   206c6:	2104      	movs	r1, #4
   206c8:	aa0c      	add	r2, sp, #48	@ 0x30
   206ca:	2351      	movs	r3, #81	@ 0x51
   206cc:	df03      	svc	3
   206ce:	2802      	cmp	r0, #2
   206d0:	d007      	beq.n	206e2 <_ZN18complex_no_dynamic3app17h16a6c595eca35e93E+0x4a>
   206d2:	481f      	ldr	r0, [pc, #124]	@ (20750 <_ZN18complex_no_dynamic3app17h16a6c595eca35e93E+0xb8>)
   206d4:	2204      	movs	r2, #4
   206d6:	2600      	movs	r6, #0
   206d8:	4631      	mov	r1, r6
   206da:	4633      	mov	r3, r6
   206dc:	df02      	svc	2
   206de:	287f      	cmp	r0, #127	@ 0x7f
   206e0:	d814      	bhi.n	2070c <_ZN18complex_no_dynamic3app17h16a6c595eca35e93E+0x74>
   206e2:	2601      	movs	r6, #1
   206e4:	2e00      	cmp	r6, #0
   206e6:	d018      	beq.n	2071a <_ZN18complex_no_dynamic3app17h16a6c595eca35e93E+0x82>
   206e8:	2001      	movs	r0, #1
   206ea:	9a01      	ldr	r2, [sp, #4]
   206ec:	7010      	strb	r0, [r2, #0]
   206ee:	6051      	str	r1, [r2, #4]
   206f0:	4c17      	ldr	r4, [pc, #92]	@ (20750 <_ZN18complex_no_dynamic3app17h16a6c595eca35e93E+0xb8>)
   206f2:	2104      	movs	r1, #4
   206f4:	2500      	movs	r5, #0
   206f6:	4620      	mov	r0, r4
   206f8:	462a      	mov	r2, r5
   206fa:	462b      	mov	r3, r5
   206fc:	df03      	svc	3
   206fe:	4620      	mov	r0, r4
   20700:	4629      	mov	r1, r5
   20702:	462a      	mov	r2, r5
   20704:	462b      	mov	r3, r5
   20706:	df04      	svc	4
   20708:	b021      	add	sp, #132	@ 0x84
   2070a:	bdf0      	pop	{r4, r5, r6, r7, pc}
   2070c:	4810      	ldr	r0, [pc, #64]	@ (20750 <_ZN18complex_no_dynamic3app17h16a6c595eca35e93E+0xb8>)
   2070e:	2104      	movs	r1, #4
   20710:	4632      	mov	r2, r6
   20712:	4633      	mov	r3, r6
   20714:	df03      	svc	3
   20716:	2e00      	cmp	r6, #0
   20718:	d1e6      	bne.n	206e8 <_ZN18complex_no_dynamic3app17h16a6c595eca35e93E+0x50>
   2071a:	480d      	ldr	r0, [pc, #52]	@ (20750 <_ZN18complex_no_dynamic3app17h16a6c595eca35e93E+0xb8>)
   2071c:	2404      	movs	r4, #4
   2071e:	4621      	mov	r1, r4
   20720:	462a      	mov	r2, r5
   20722:	462b      	mov	r3, r5
   20724:	df03      	svc	3
   20726:	9e01      	ldr	r6, [sp, #4]
   20728:	1c70      	adds	r0, r6, #1
   2072a:	a90c      	add	r1, sp, #48	@ 0x30
   2072c:	2251      	movs	r2, #81	@ 0x51
   2072e:	f007 fa92 	bl	27c56 <__aeabi_memcpy>
   20732:	7035      	strb	r5, [r6, #0]
   20734:	4e06      	ldr	r6, [pc, #24]	@ (20750 <_ZN18complex_no_dynamic3app17h16a6c595eca35e93E+0xb8>)
   20736:	4630      	mov	r0, r6
   20738:	4621      	mov	r1, r4
   2073a:	462a      	mov	r2, r5
   2073c:	462b      	mov	r3, r5
   2073e:	df03      	svc	3
   20740:	4630      	mov	r0, r6
   20742:	4629      	mov	r1, r5
   20744:	462a      	mov	r2, r5
   20746:	462b      	mov	r3, r5
   20748:	df04      	svc	4
   2074a:	b021      	add	sp, #132	@ 0x84
   2074c:	bdf0      	pop	{r4, r5, r6, r7, pc}
   2074e:	46c0      	nop			@ (mov r8, r8)
   20750:	00000a36 	.word	0x00000a36

00020754 <_ZN18complex_no_dynamic3app17h173b2ca51a2cd9f2E>:
   20754:	b5f0      	push	{r4, r5, r6, r7, lr}
   20756:	af03      	add	r7, sp, #12
   20758:	b097      	sub	sp, #92	@ 0x5c
   2075a:	9000      	str	r0, [sp, #0]
   2075c:	ae01      	add	r6, sp, #4
   2075e:	2448      	movs	r4, #72	@ 0x48
   20760:	4630      	mov	r0, r6
   20762:	4622      	mov	r2, r4
   20764:	f007 fa77 	bl	27c56 <__aeabi_memcpy>
   20768:	a813      	add	r0, sp, #76	@ 0x4c
   2076a:	2500      	movs	r5, #0
   2076c:	7385      	strb	r5, [r0, #14]
   2076e:	8185      	strh	r5, [r0, #12]
   20770:	9515      	str	r5, [sp, #84]	@ 0x54
   20772:	9514      	str	r5, [sp, #80]	@ 0x50
   20774:	9513      	str	r5, [sp, #76]	@ 0x4c
   20776:	4826      	ldr	r0, [pc, #152]	@ (20810 <_ZN18complex_no_dynamic3app17h173b2ca51a2cd9f2E+0xbc>)
   20778:	2108      	movs	r1, #8
   2077a:	4632      	mov	r2, r6
   2077c:	4623      	mov	r3, r4
   2077e:	df04      	svc	4
   20780:	2802      	cmp	r0, #2
   20782:	d00e      	beq.n	207a2 <_ZN18complex_no_dynamic3app17h173b2ca51a2cd9f2E+0x4e>
   20784:	4822      	ldr	r0, [pc, #136]	@ (20810 <_ZN18complex_no_dynamic3app17h173b2ca51a2cd9f2E+0xbc>)
   20786:	2109      	movs	r1, #9
   20788:	aa13      	add	r2, sp, #76	@ 0x4c
   2078a:	230f      	movs	r3, #15
   2078c:	df03      	svc	3
   2078e:	2802      	cmp	r0, #2
   20790:	d007      	beq.n	207a2 <_ZN18complex_no_dynamic3app17h173b2ca51a2cd9f2E+0x4e>
   20792:	481f      	ldr	r0, [pc, #124]	@ (20810 <_ZN18complex_no_dynamic3app17h173b2ca51a2cd9f2E+0xbc>)
   20794:	2108      	movs	r1, #8
   20796:	2209      	movs	r2, #9
   20798:	2600      	movs	r6, #0
   2079a:	4633      	mov	r3, r6
   2079c:	df02      	svc	2
   2079e:	287f      	cmp	r0, #127	@ 0x7f
   207a0:	d814      	bhi.n	207cc <_ZN18complex_no_dynamic3app17h173b2ca51a2cd9f2E+0x78>
   207a2:	2601      	movs	r6, #1
   207a4:	2e00      	cmp	r6, #0
   207a6:	d018      	beq.n	207da <_ZN18complex_no_dynamic3app17h173b2ca51a2cd9f2E+0x86>
   207a8:	2001      	movs	r0, #1
   207aa:	9a00      	ldr	r2, [sp, #0]
   207ac:	7010      	strb	r0, [r2, #0]
   207ae:	6051      	str	r1, [r2, #4]
   207b0:	4c17      	ldr	r4, [pc, #92]	@ (20810 <_ZN18complex_no_dynamic3app17h173b2ca51a2cd9f2E+0xbc>)
   207b2:	2109      	movs	r1, #9
   207b4:	2500      	movs	r5, #0
   207b6:	4620      	mov	r0, r4
   207b8:	462a      	mov	r2, r5
   207ba:	462b      	mov	r3, r5
   207bc:	df03      	svc	3
   207be:	2108      	movs	r1, #8
   207c0:	4620      	mov	r0, r4
   207c2:	462a      	mov	r2, r5
   207c4:	462b      	mov	r3, r5
   207c6:	df04      	svc	4
   207c8:	b017      	add	sp, #92	@ 0x5c
   207ca:	bdf0      	pop	{r4, r5, r6, r7, pc}
   207cc:	4810      	ldr	r0, [pc, #64]	@ (20810 <_ZN18complex_no_dynamic3app17h173b2ca51a2cd9f2E+0xbc>)
   207ce:	2109      	movs	r1, #9
   207d0:	4632      	mov	r2, r6
   207d2:	4633      	mov	r3, r6
   207d4:	df03      	svc	3
   207d6:	2e00      	cmp	r6, #0
   207d8:	d1e6      	bne.n	207a8 <_ZN18complex_no_dynamic3app17h173b2ca51a2cd9f2E+0x54>
   207da:	480d      	ldr	r0, [pc, #52]	@ (20810 <_ZN18complex_no_dynamic3app17h173b2ca51a2cd9f2E+0xbc>)
   207dc:	2409      	movs	r4, #9
   207de:	4621      	mov	r1, r4
   207e0:	462a      	mov	r2, r5
   207e2:	462b      	mov	r3, r5
   207e4:	df03      	svc	3
   207e6:	9e00      	ldr	r6, [sp, #0]
   207e8:	1c70      	adds	r0, r6, #1
   207ea:	a913      	add	r1, sp, #76	@ 0x4c
   207ec:	220f      	movs	r2, #15
   207ee:	f007 fa32 	bl	27c56 <__aeabi_memcpy>
   207f2:	7035      	strb	r5, [r6, #0]
   207f4:	4e06      	ldr	r6, [pc, #24]	@ (20810 <_ZN18complex_no_dynamic3app17h173b2ca51a2cd9f2E+0xbc>)
   207f6:	4630      	mov	r0, r6
   207f8:	4621      	mov	r1, r4
   207fa:	462a      	mov	r2, r5
   207fc:	462b      	mov	r3, r5
   207fe:	df03      	svc	3
   20800:	2108      	movs	r1, #8
   20802:	4630      	mov	r0, r6
   20804:	462a      	mov	r2, r5
   20806:	462b      	mov	r3, r5
   20808:	df04      	svc	4
   2080a:	b017      	add	sp, #92	@ 0x5c
   2080c:	bdf0      	pop	{r4, r5, r6, r7, pc}
   2080e:	46c0      	nop			@ (mov r8, r8)
   20810:	0000111d 	.word	0x0000111d

00020814 <_ZN18complex_no_dynamic3app17h179b47733fda9aaeE>:
   20814:	b5f0      	push	{r4, r5, r6, r7, lr}
   20816:	af03      	add	r7, sp, #12
   20818:	b093      	sub	sp, #76	@ 0x4c
   2081a:	9000      	str	r0, [sp, #0]
   2081c:	ac01      	add	r4, sp, #4
   2081e:	2627      	movs	r6, #39	@ 0x27
   20820:	4620      	mov	r0, r4
   20822:	4632      	mov	r2, r6
   20824:	f007 fa17 	bl	27c56 <__aeabi_memcpy>
   20828:	a80b      	add	r0, sp, #44	@ 0x2c
   2082a:	2500      	movs	r5, #0
   2082c:	8385      	strh	r5, [r0, #28]
   2082e:	9511      	str	r5, [sp, #68]	@ 0x44
   20830:	9510      	str	r5, [sp, #64]	@ 0x40
   20832:	950f      	str	r5, [sp, #60]	@ 0x3c
   20834:	950e      	str	r5, [sp, #56]	@ 0x38
   20836:	950d      	str	r5, [sp, #52]	@ 0x34
   20838:	950c      	str	r5, [sp, #48]	@ 0x30
   2083a:	950b      	str	r5, [sp, #44]	@ 0x2c
   2083c:	4826      	ldr	r0, [pc, #152]	@ (208d8 <_ZN18complex_no_dynamic3app17h179b47733fda9aaeE+0xc4>)
   2083e:	2103      	movs	r1, #3
   20840:	4622      	mov	r2, r4
   20842:	4633      	mov	r3, r6
   20844:	df04      	svc	4
   20846:	2802      	cmp	r0, #2
   20848:	d00e      	beq.n	20868 <_ZN18complex_no_dynamic3app17h179b47733fda9aaeE+0x54>
   2084a:	4823      	ldr	r0, [pc, #140]	@ (208d8 <_ZN18complex_no_dynamic3app17h179b47733fda9aaeE+0xc4>)
   2084c:	2103      	movs	r1, #3
   2084e:	aa0b      	add	r2, sp, #44	@ 0x2c
   20850:	231e      	movs	r3, #30
   20852:	df03      	svc	3
   20854:	2802      	cmp	r0, #2
   20856:	d007      	beq.n	20868 <_ZN18complex_no_dynamic3app17h179b47733fda9aaeE+0x54>
   20858:	481f      	ldr	r0, [pc, #124]	@ (208d8 <_ZN18complex_no_dynamic3app17h179b47733fda9aaeE+0xc4>)
   2085a:	2103      	movs	r1, #3
   2085c:	2600      	movs	r6, #0
   2085e:	460a      	mov	r2, r1
   20860:	4633      	mov	r3, r6
   20862:	df02      	svc	2
   20864:	287f      	cmp	r0, #127	@ 0x7f
   20866:	d815      	bhi.n	20894 <_ZN18complex_no_dynamic3app17h179b47733fda9aaeE+0x80>
   20868:	2601      	movs	r6, #1
   2086a:	2e00      	cmp	r6, #0
   2086c:	d019      	beq.n	208a2 <_ZN18complex_no_dynamic3app17h179b47733fda9aaeE+0x8e>
   2086e:	2001      	movs	r0, #1
   20870:	9a00      	ldr	r2, [sp, #0]
   20872:	7010      	strb	r0, [r2, #0]
   20874:	6051      	str	r1, [r2, #4]
   20876:	4c18      	ldr	r4, [pc, #96]	@ (208d8 <_ZN18complex_no_dynamic3app17h179b47733fda9aaeE+0xc4>)
   20878:	2503      	movs	r5, #3
   2087a:	2600      	movs	r6, #0
   2087c:	4620      	mov	r0, r4
   2087e:	4629      	mov	r1, r5
   20880:	4632      	mov	r2, r6
   20882:	4633      	mov	r3, r6
   20884:	df03      	svc	3
   20886:	4620      	mov	r0, r4
   20888:	4629      	mov	r1, r5
   2088a:	4632      	mov	r2, r6
   2088c:	4633      	mov	r3, r6
   2088e:	df04      	svc	4
   20890:	b013      	add	sp, #76	@ 0x4c
   20892:	bdf0      	pop	{r4, r5, r6, r7, pc}
   20894:	4810      	ldr	r0, [pc, #64]	@ (208d8 <_ZN18complex_no_dynamic3app17h179b47733fda9aaeE+0xc4>)
   20896:	2103      	movs	r1, #3
   20898:	4632      	mov	r2, r6
   2089a:	4633      	mov	r3, r6
   2089c:	df03      	svc	3
   2089e:	2e00      	cmp	r6, #0
   208a0:	d1e5      	bne.n	2086e <_ZN18complex_no_dynamic3app17h179b47733fda9aaeE+0x5a>
   208a2:	480d      	ldr	r0, [pc, #52]	@ (208d8 <_ZN18complex_no_dynamic3app17h179b47733fda9aaeE+0xc4>)
   208a4:	2403      	movs	r4, #3
   208a6:	4621      	mov	r1, r4
   208a8:	462a      	mov	r2, r5
   208aa:	462b      	mov	r3, r5
   208ac:	df03      	svc	3
   208ae:	9e00      	ldr	r6, [sp, #0]
   208b0:	1c70      	adds	r0, r6, #1
   208b2:	a90b      	add	r1, sp, #44	@ 0x2c
   208b4:	221e      	movs	r2, #30
   208b6:	f007 f9ce 	bl	27c56 <__aeabi_memcpy>
   208ba:	7035      	strb	r5, [r6, #0]
   208bc:	4e06      	ldr	r6, [pc, #24]	@ (208d8 <_ZN18complex_no_dynamic3app17h179b47733fda9aaeE+0xc4>)
   208be:	4630      	mov	r0, r6
   208c0:	4621      	mov	r1, r4
   208c2:	462a      	mov	r2, r5
   208c4:	462b      	mov	r3, r5
   208c6:	df03      	svc	3
   208c8:	4630      	mov	r0, r6
   208ca:	4621      	mov	r1, r4
   208cc:	462a      	mov	r2, r5
   208ce:	462b      	mov	r3, r5
   208d0:	df04      	svc	4
   208d2:	b013      	add	sp, #76	@ 0x4c
   208d4:	bdf0      	pop	{r4, r5, r6, r7, pc}
   208d6:	46c0      	nop			@ (mov r8, r8)
   208d8:	000010e2 	.word	0x000010e2

000208dc <_ZN18complex_no_dynamic3app17h17dbbffa4ee6a315E>:
   208dc:	b5f0      	push	{r4, r5, r6, r7, lr}
   208de:	af03      	add	r7, sp, #12
   208e0:	b095      	sub	sp, #84	@ 0x54
   208e2:	9001      	str	r0, [sp, #4]
   208e4:	ae02      	add	r6, sp, #8
   208e6:	242b      	movs	r4, #43	@ 0x2b
   208e8:	4630      	mov	r0, r6
   208ea:	4622      	mov	r2, r4
   208ec:	f007 f9b3 	bl	27c56 <__aeabi_memcpy>
   208f0:	a80d      	add	r0, sp, #52	@ 0x34
   208f2:	2500      	movs	r5, #0
   208f4:	8385      	strh	r5, [r0, #28]
   208f6:	9513      	str	r5, [sp, #76]	@ 0x4c
   208f8:	9512      	str	r5, [sp, #72]	@ 0x48
   208fa:	9511      	str	r5, [sp, #68]	@ 0x44
   208fc:	9510      	str	r5, [sp, #64]	@ 0x40
   208fe:	950f      	str	r5, [sp, #60]	@ 0x3c
   20900:	950e      	str	r5, [sp, #56]	@ 0x38
   20902:	950d      	str	r5, [sp, #52]	@ 0x34
   20904:	4825      	ldr	r0, [pc, #148]	@ (2099c <_ZN18complex_no_dynamic3app17h17dbbffa4ee6a315E+0xc0>)
   20906:	2107      	movs	r1, #7
   20908:	4632      	mov	r2, r6
   2090a:	4623      	mov	r3, r4
   2090c:	df04      	svc	4
   2090e:	2802      	cmp	r0, #2
   20910:	d00e      	beq.n	20930 <_ZN18complex_no_dynamic3app17h17dbbffa4ee6a315E+0x54>
   20912:	4822      	ldr	r0, [pc, #136]	@ (2099c <_ZN18complex_no_dynamic3app17h17dbbffa4ee6a315E+0xc0>)
   20914:	2108      	movs	r1, #8
   20916:	aa0d      	add	r2, sp, #52	@ 0x34
   20918:	231e      	movs	r3, #30
   2091a:	df03      	svc	3
   2091c:	2802      	cmp	r0, #2
   2091e:	d007      	beq.n	20930 <_ZN18complex_no_dynamic3app17h17dbbffa4ee6a315E+0x54>
   20920:	481e      	ldr	r0, [pc, #120]	@ (2099c <_ZN18complex_no_dynamic3app17h17dbbffa4ee6a315E+0xc0>)
   20922:	2107      	movs	r1, #7
   20924:	2208      	movs	r2, #8
   20926:	2600      	movs	r6, #0
   20928:	4633      	mov	r3, r6
   2092a:	df02      	svc	2
   2092c:	287f      	cmp	r0, #127	@ 0x7f
   2092e:	d814      	bhi.n	2095a <_ZN18complex_no_dynamic3app17h17dbbffa4ee6a315E+0x7e>
   20930:	2601      	movs	r6, #1
   20932:	2e00      	cmp	r6, #0
   20934:	d018      	beq.n	20968 <_ZN18complex_no_dynamic3app17h17dbbffa4ee6a315E+0x8c>
   20936:	2001      	movs	r0, #1
   20938:	9a01      	ldr	r2, [sp, #4]
   2093a:	7010      	strb	r0, [r2, #0]
   2093c:	6051      	str	r1, [r2, #4]
   2093e:	4c17      	ldr	r4, [pc, #92]	@ (2099c <_ZN18complex_no_dynamic3app17h17dbbffa4ee6a315E+0xc0>)
   20940:	2108      	movs	r1, #8
   20942:	2500      	movs	r5, #0
   20944:	4620      	mov	r0, r4
   20946:	462a      	mov	r2, r5
   20948:	462b      	mov	r3, r5
   2094a:	df03      	svc	3
   2094c:	2107      	movs	r1, #7
   2094e:	4620      	mov	r0, r4
   20950:	462a      	mov	r2, r5
   20952:	462b      	mov	r3, r5
   20954:	df04      	svc	4
   20956:	b015      	add	sp, #84	@ 0x54
   20958:	bdf0      	pop	{r4, r5, r6, r7, pc}
   2095a:	4810      	ldr	r0, [pc, #64]	@ (2099c <_ZN18complex_no_dynamic3app17h17dbbffa4ee6a315E+0xc0>)
   2095c:	2108      	movs	r1, #8
   2095e:	4632      	mov	r2, r6
   20960:	4633      	mov	r3, r6
   20962:	df03      	svc	3
   20964:	2e00      	cmp	r6, #0
   20966:	d1e6      	bne.n	20936 <_ZN18complex_no_dynamic3app17h17dbbffa4ee6a315E+0x5a>
   20968:	480c      	ldr	r0, [pc, #48]	@ (2099c <_ZN18complex_no_dynamic3app17h17dbbffa4ee6a315E+0xc0>)
   2096a:	2408      	movs	r4, #8
   2096c:	4621      	mov	r1, r4
   2096e:	462a      	mov	r2, r5
   20970:	462b      	mov	r3, r5
   20972:	df03      	svc	3
   20974:	9e01      	ldr	r6, [sp, #4]
   20976:	1c70      	adds	r0, r6, #1
   20978:	a90d      	add	r1, sp, #52	@ 0x34
   2097a:	221e      	movs	r2, #30
   2097c:	f007 f96b 	bl	27c56 <__aeabi_memcpy>
   20980:	7035      	strb	r5, [r6, #0]
   20982:	4e06      	ldr	r6, [pc, #24]	@ (2099c <_ZN18complex_no_dynamic3app17h17dbbffa4ee6a315E+0xc0>)
   20984:	4630      	mov	r0, r6
   20986:	4621      	mov	r1, r4
   20988:	462a      	mov	r2, r5
   2098a:	462b      	mov	r3, r5
   2098c:	df03      	svc	3
   2098e:	2107      	movs	r1, #7
   20990:	4630      	mov	r0, r6
   20992:	462a      	mov	r2, r5
   20994:	462b      	mov	r3, r5
   20996:	df04      	svc	4
   20998:	b015      	add	sp, #84	@ 0x54
   2099a:	bdf0      	pop	{r4, r5, r6, r7, pc}
   2099c:	000007e3 	.word	0x000007e3

000209a0 <_ZN18complex_no_dynamic3app17h18d28e291b71a9a2E>:
   209a0:	b5f0      	push	{r4, r5, r6, r7, lr}
   209a2:	af03      	add	r7, sp, #12
   209a4:	b09d      	sub	sp, #116	@ 0x74
   209a6:	9001      	str	r0, [sp, #4]
   209a8:	ae02      	add	r6, sp, #8
   209aa:	2438      	movs	r4, #56	@ 0x38
   209ac:	4630      	mov	r0, r6
   209ae:	4622      	mov	r2, r4
   209b0:	f007 f951 	bl	27c56 <__aeabi_memcpy>
   209b4:	a810      	add	r0, sp, #64	@ 0x40
   209b6:	2134      	movs	r1, #52	@ 0x34
   209b8:	f006 ffa0 	bl	278fc <__aeabi_memclr4>
   209bc:	2097      	movs	r0, #151	@ 0x97
   209be:	0045      	lsls	r5, r0, #1
   209c0:	2108      	movs	r1, #8
   209c2:	4628      	mov	r0, r5
   209c4:	4632      	mov	r2, r6
   209c6:	4623      	mov	r3, r4
   209c8:	df04      	svc	4
   209ca:	2802      	cmp	r0, #2
   209cc:	d00e      	beq.n	209ec <_ZN18complex_no_dynamic3app17h18d28e291b71a9a2E+0x4c>
   209ce:	2103      	movs	r1, #3
   209d0:	aa10      	add	r2, sp, #64	@ 0x40
   209d2:	2334      	movs	r3, #52	@ 0x34
   209d4:	4628      	mov	r0, r5
   209d6:	df03      	svc	3
   209d8:	2802      	cmp	r0, #2
   209da:	d007      	beq.n	209ec <_ZN18complex_no_dynamic3app17h18d28e291b71a9a2E+0x4c>
   209dc:	2108      	movs	r1, #8
   209de:	2203      	movs	r2, #3
   209e0:	2600      	movs	r6, #0
   209e2:	4628      	mov	r0, r5
   209e4:	4633      	mov	r3, r6
   209e6:	df02      	svc	2
   209e8:	287f      	cmp	r0, #127	@ 0x7f
   209ea:	d813      	bhi.n	20a14 <_ZN18complex_no_dynamic3app17h18d28e291b71a9a2E+0x74>
   209ec:	2601      	movs	r6, #1
   209ee:	2e00      	cmp	r6, #0
   209f0:	d017      	beq.n	20a22 <_ZN18complex_no_dynamic3app17h18d28e291b71a9a2E+0x82>
   209f2:	2001      	movs	r0, #1
   209f4:	9a01      	ldr	r2, [sp, #4]
   209f6:	7010      	strb	r0, [r2, #0]
   209f8:	6051      	str	r1, [r2, #4]
   209fa:	2103      	movs	r1, #3
   209fc:	2400      	movs	r4, #0
   209fe:	4628      	mov	r0, r5
   20a00:	4622      	mov	r2, r4
   20a02:	4623      	mov	r3, r4
   20a04:	df03      	svc	3
   20a06:	2108      	movs	r1, #8
   20a08:	4628      	mov	r0, r5
   20a0a:	4622      	mov	r2, r4
   20a0c:	4623      	mov	r3, r4
   20a0e:	df04      	svc	4
   20a10:	b01d      	add	sp, #116	@ 0x74
   20a12:	bdf0      	pop	{r4, r5, r6, r7, pc}
   20a14:	2103      	movs	r1, #3
   20a16:	4628      	mov	r0, r5
   20a18:	4632      	mov	r2, r6
   20a1a:	4633      	mov	r3, r6
   20a1c:	df03      	svc	3
   20a1e:	2e00      	cmp	r6, #0
   20a20:	d1e7      	bne.n	209f2 <_ZN18complex_no_dynamic3app17h18d28e291b71a9a2E+0x52>
   20a22:	2103      	movs	r1, #3
   20a24:	9100      	str	r1, [sp, #0]
   20a26:	2600      	movs	r6, #0
   20a28:	4628      	mov	r0, r5
   20a2a:	4632      	mov	r2, r6
   20a2c:	4633      	mov	r3, r6
   20a2e:	df03      	svc	3
   20a30:	9c01      	ldr	r4, [sp, #4]
   20a32:	1c60      	adds	r0, r4, #1
   20a34:	a910      	add	r1, sp, #64	@ 0x40
   20a36:	2234      	movs	r2, #52	@ 0x34
   20a38:	f007 f90d 	bl	27c56 <__aeabi_memcpy>
   20a3c:	7026      	strb	r6, [r4, #0]
   20a3e:	4628      	mov	r0, r5
   20a40:	9900      	ldr	r1, [sp, #0]
   20a42:	4632      	mov	r2, r6
   20a44:	4633      	mov	r3, r6
   20a46:	df03      	svc	3
   20a48:	2108      	movs	r1, #8
   20a4a:	4628      	mov	r0, r5
   20a4c:	4632      	mov	r2, r6
   20a4e:	4633      	mov	r3, r6
   20a50:	df04      	svc	4
   20a52:	b01d      	add	sp, #116	@ 0x74
   20a54:	bdf0      	pop	{r4, r5, r6, r7, pc}
   20a56:	d4d4      	bmi.n	20a02 <_ZN18complex_no_dynamic3app17h18d28e291b71a9a2E+0x62>

00020a58 <_ZN18complex_no_dynamic3app17h196a1ed9b296a8f1E>:
   20a58:	b5f0      	push	{r4, r5, r6, r7, lr}
   20a5a:	af03      	add	r7, sp, #12
   20a5c:	b0a9      	sub	sp, #164	@ 0xa4
   20a5e:	4604      	mov	r4, r0
   20a60:	466d      	mov	r5, sp
   20a62:	2651      	movs	r6, #81	@ 0x51
   20a64:	4628      	mov	r0, r5
   20a66:	4632      	mov	r2, r6
   20a68:	f007 f8f5 	bl	27c56 <__aeabi_memcpy>
   20a6c:	a815      	add	r0, sp, #84	@ 0x54
   20a6e:	214f      	movs	r1, #79	@ 0x4f
   20a70:	f006 ff44 	bl	278fc <__aeabi_memclr4>
   20a74:	4824      	ldr	r0, [pc, #144]	@ (20b08 <_ZN18complex_no_dynamic3app17h196a1ed9b296a8f1E+0xb0>)
   20a76:	2102      	movs	r1, #2
   20a78:	462a      	mov	r2, r5
   20a7a:	4633      	mov	r3, r6
   20a7c:	df04      	svc	4
   20a7e:	2802      	cmp	r0, #2
   20a80:	d00e      	beq.n	20aa0 <_ZN18complex_no_dynamic3app17h196a1ed9b296a8f1E+0x48>
   20a82:	4821      	ldr	r0, [pc, #132]	@ (20b08 <_ZN18complex_no_dynamic3app17h196a1ed9b296a8f1E+0xb0>)
   20a84:	2104      	movs	r1, #4
   20a86:	aa15      	add	r2, sp, #84	@ 0x54
   20a88:	234f      	movs	r3, #79	@ 0x4f
   20a8a:	df03      	svc	3
   20a8c:	2802      	cmp	r0, #2
   20a8e:	d007      	beq.n	20aa0 <_ZN18complex_no_dynamic3app17h196a1ed9b296a8f1E+0x48>
   20a90:	481d      	ldr	r0, [pc, #116]	@ (20b08 <_ZN18complex_no_dynamic3app17h196a1ed9b296a8f1E+0xb0>)
   20a92:	2102      	movs	r1, #2
   20a94:	2204      	movs	r2, #4
   20a96:	2500      	movs	r5, #0
   20a98:	462b      	mov	r3, r5
   20a9a:	df02      	svc	2
   20a9c:	287f      	cmp	r0, #127	@ 0x7f
   20a9e:	d813      	bhi.n	20ac8 <_ZN18complex_no_dynamic3app17h196a1ed9b296a8f1E+0x70>
   20aa0:	2501      	movs	r5, #1
   20aa2:	2d00      	cmp	r5, #0
   20aa4:	d017      	beq.n	20ad6 <_ZN18complex_no_dynamic3app17h196a1ed9b296a8f1E+0x7e>
   20aa6:	2001      	movs	r0, #1
   20aa8:	7020      	strb	r0, [r4, #0]
   20aaa:	6061      	str	r1, [r4, #4]
   20aac:	4c16      	ldr	r4, [pc, #88]	@ (20b08 <_ZN18complex_no_dynamic3app17h196a1ed9b296a8f1E+0xb0>)
   20aae:	2104      	movs	r1, #4
   20ab0:	2500      	movs	r5, #0
   20ab2:	4620      	mov	r0, r4
   20ab4:	462a      	mov	r2, r5
   20ab6:	462b      	mov	r3, r5
   20ab8:	df03      	svc	3
   20aba:	2102      	movs	r1, #2
   20abc:	4620      	mov	r0, r4
   20abe:	462a      	mov	r2, r5
   20ac0:	462b      	mov	r3, r5
   20ac2:	df04      	svc	4
   20ac4:	b029      	add	sp, #164	@ 0xa4
   20ac6:	bdf0      	pop	{r4, r5, r6, r7, pc}
   20ac8:	480f      	ldr	r0, [pc, #60]	@ (20b08 <_ZN18complex_no_dynamic3app17h196a1ed9b296a8f1E+0xb0>)
   20aca:	2104      	movs	r1, #4
   20acc:	462a      	mov	r2, r5
   20ace:	462b      	mov	r3, r5
   20ad0:	df03      	svc	3
   20ad2:	2d00      	cmp	r5, #0
   20ad4:	d1e7      	bne.n	20aa6 <_ZN18complex_no_dynamic3app17h196a1ed9b296a8f1E+0x4e>
   20ad6:	480c      	ldr	r0, [pc, #48]	@ (20b08 <_ZN18complex_no_dynamic3app17h196a1ed9b296a8f1E+0xb0>)
   20ad8:	2604      	movs	r6, #4
   20ada:	2500      	movs	r5, #0
   20adc:	4631      	mov	r1, r6
   20ade:	462a      	mov	r2, r5
   20ae0:	462b      	mov	r3, r5
   20ae2:	df03      	svc	3
   20ae4:	1c60      	adds	r0, r4, #1
   20ae6:	a915      	add	r1, sp, #84	@ 0x54
   20ae8:	224f      	movs	r2, #79	@ 0x4f
   20aea:	f007 f8b4 	bl	27c56 <__aeabi_memcpy>
   20aee:	7025      	strb	r5, [r4, #0]
   20af0:	4805      	ldr	r0, [pc, #20]	@ (20b08 <_ZN18complex_no_dynamic3app17h196a1ed9b296a8f1E+0xb0>)
   20af2:	4631      	mov	r1, r6
   20af4:	462a      	mov	r2, r5
   20af6:	462b      	mov	r3, r5
   20af8:	df03      	svc	3
   20afa:	2102      	movs	r1, #2
   20afc:	4802      	ldr	r0, [pc, #8]	@ (20b08 <_ZN18complex_no_dynamic3app17h196a1ed9b296a8f1E+0xb0>)
   20afe:	462a      	mov	r2, r5
   20b00:	462b      	mov	r3, r5
   20b02:	df04      	svc	4
   20b04:	b029      	add	sp, #164	@ 0xa4
   20b06:	bdf0      	pop	{r4, r5, r6, r7, pc}
   20b08:	00000e16 	.word	0x00000e16

00020b0c <_ZN18complex_no_dynamic3app17h267e9e2df9f434c7E>:
   20b0c:	b5f0      	push	{r4, r5, r6, r7, lr}
   20b0e:	af03      	add	r7, sp, #12
   20b10:	b09d      	sub	sp, #116	@ 0x74
   20b12:	4604      	mov	r4, r0
   20b14:	466d      	mov	r5, sp
   20b16:	2648      	movs	r6, #72	@ 0x48
   20b18:	4628      	mov	r0, r5
   20b1a:	4632      	mov	r2, r6
   20b1c:	f007 f89b 	bl	27c56 <__aeabi_memcpy>
   20b20:	a812      	add	r0, sp, #72	@ 0x48
   20b22:	2129      	movs	r1, #41	@ 0x29
   20b24:	f006 feea 	bl	278fc <__aeabi_memclr4>
   20b28:	4824      	ldr	r0, [pc, #144]	@ (20bbc <_ZN18complex_no_dynamic3app17h267e9e2df9f434c7E+0xb0>)
   20b2a:	2103      	movs	r1, #3
   20b2c:	462a      	mov	r2, r5
   20b2e:	4633      	mov	r3, r6
   20b30:	df04      	svc	4
   20b32:	2802      	cmp	r0, #2
   20b34:	d00e      	beq.n	20b54 <_ZN18complex_no_dynamic3app17h267e9e2df9f434c7E+0x48>
   20b36:	4821      	ldr	r0, [pc, #132]	@ (20bbc <_ZN18complex_no_dynamic3app17h267e9e2df9f434c7E+0xb0>)
   20b38:	2104      	movs	r1, #4
   20b3a:	aa12      	add	r2, sp, #72	@ 0x48
   20b3c:	2329      	movs	r3, #41	@ 0x29
   20b3e:	df03      	svc	3
   20b40:	2802      	cmp	r0, #2
   20b42:	d007      	beq.n	20b54 <_ZN18complex_no_dynamic3app17h267e9e2df9f434c7E+0x48>
   20b44:	481d      	ldr	r0, [pc, #116]	@ (20bbc <_ZN18complex_no_dynamic3app17h267e9e2df9f434c7E+0xb0>)
   20b46:	2103      	movs	r1, #3
   20b48:	2204      	movs	r2, #4
   20b4a:	2500      	movs	r5, #0
   20b4c:	462b      	mov	r3, r5
   20b4e:	df02      	svc	2
   20b50:	287f      	cmp	r0, #127	@ 0x7f
   20b52:	d813      	bhi.n	20b7c <_ZN18complex_no_dynamic3app17h267e9e2df9f434c7E+0x70>
   20b54:	2501      	movs	r5, #1
   20b56:	2d00      	cmp	r5, #0
   20b58:	d017      	beq.n	20b8a <_ZN18complex_no_dynamic3app17h267e9e2df9f434c7E+0x7e>
   20b5a:	2001      	movs	r0, #1
   20b5c:	7020      	strb	r0, [r4, #0]
   20b5e:	6061      	str	r1, [r4, #4]
   20b60:	4c16      	ldr	r4, [pc, #88]	@ (20bbc <_ZN18complex_no_dynamic3app17h267e9e2df9f434c7E+0xb0>)
   20b62:	2104      	movs	r1, #4
   20b64:	2500      	movs	r5, #0
   20b66:	4620      	mov	r0, r4
   20b68:	462a      	mov	r2, r5
   20b6a:	462b      	mov	r3, r5
   20b6c:	df03      	svc	3
   20b6e:	2103      	movs	r1, #3
   20b70:	4620      	mov	r0, r4
   20b72:	462a      	mov	r2, r5
   20b74:	462b      	mov	r3, r5
   20b76:	df04      	svc	4
   20b78:	b01d      	add	sp, #116	@ 0x74
   20b7a:	bdf0      	pop	{r4, r5, r6, r7, pc}
   20b7c:	480f      	ldr	r0, [pc, #60]	@ (20bbc <_ZN18complex_no_dynamic3app17h267e9e2df9f434c7E+0xb0>)
   20b7e:	2104      	movs	r1, #4
   20b80:	462a      	mov	r2, r5
   20b82:	462b      	mov	r3, r5
   20b84:	df03      	svc	3
   20b86:	2d00      	cmp	r5, #0
   20b88:	d1e7      	bne.n	20b5a <_ZN18complex_no_dynamic3app17h267e9e2df9f434c7E+0x4e>
   20b8a:	480c      	ldr	r0, [pc, #48]	@ (20bbc <_ZN18complex_no_dynamic3app17h267e9e2df9f434c7E+0xb0>)
   20b8c:	2604      	movs	r6, #4
   20b8e:	2500      	movs	r5, #0
   20b90:	4631      	mov	r1, r6
   20b92:	462a      	mov	r2, r5
   20b94:	462b      	mov	r3, r5
   20b96:	df03      	svc	3
   20b98:	1c60      	adds	r0, r4, #1
   20b9a:	a912      	add	r1, sp, #72	@ 0x48
   20b9c:	2229      	movs	r2, #41	@ 0x29
   20b9e:	f007 f85a 	bl	27c56 <__aeabi_memcpy>
   20ba2:	7025      	strb	r5, [r4, #0]
   20ba4:	4805      	ldr	r0, [pc, #20]	@ (20bbc <_ZN18complex_no_dynamic3app17h267e9e2df9f434c7E+0xb0>)
   20ba6:	4631      	mov	r1, r6
   20ba8:	462a      	mov	r2, r5
   20baa:	462b      	mov	r3, r5
   20bac:	df03      	svc	3
   20bae:	2103      	movs	r1, #3
   20bb0:	4802      	ldr	r0, [pc, #8]	@ (20bbc <_ZN18complex_no_dynamic3app17h267e9e2df9f434c7E+0xb0>)
   20bb2:	462a      	mov	r2, r5
   20bb4:	462b      	mov	r3, r5
   20bb6:	df04      	svc	4
   20bb8:	b01d      	add	sp, #116	@ 0x74
   20bba:	bdf0      	pop	{r4, r5, r6, r7, pc}
   20bbc:	000026a4 	.word	0x000026a4

00020bc0 <_ZN18complex_no_dynamic3app17h285ed38dcdff4d63E>:
   20bc0:	b5f0      	push	{r4, r5, r6, r7, lr}
   20bc2:	af03      	add	r7, sp, #12
   20bc4:	b099      	sub	sp, #100	@ 0x64
   20bc6:	4604      	mov	r4, r0
   20bc8:	466d      	mov	r5, sp
   20bca:	2634      	movs	r6, #52	@ 0x34
   20bcc:	4628      	mov	r0, r5
   20bce:	4632      	mov	r2, r6
   20bd0:	f007 f841 	bl	27c56 <__aeabi_memcpy>
   20bd4:	a80d      	add	r0, sp, #52	@ 0x34
   20bd6:	212e      	movs	r1, #46	@ 0x2e
   20bd8:	f006 fe90 	bl	278fc <__aeabi_memclr4>
   20bdc:	4824      	ldr	r0, [pc, #144]	@ (20c70 <_ZN18complex_no_dynamic3app17h285ed38dcdff4d63E+0xb0>)
   20bde:	2102      	movs	r1, #2
   20be0:	462a      	mov	r2, r5
   20be2:	4633      	mov	r3, r6
   20be4:	df04      	svc	4
   20be6:	2802      	cmp	r0, #2
   20be8:	d00e      	beq.n	20c08 <_ZN18complex_no_dynamic3app17h285ed38dcdff4d63E+0x48>
   20bea:	4821      	ldr	r0, [pc, #132]	@ (20c70 <_ZN18complex_no_dynamic3app17h285ed38dcdff4d63E+0xb0>)
   20bec:	2108      	movs	r1, #8
   20bee:	aa0d      	add	r2, sp, #52	@ 0x34
   20bf0:	232e      	movs	r3, #46	@ 0x2e
   20bf2:	df03      	svc	3
   20bf4:	2802      	cmp	r0, #2
   20bf6:	d007      	beq.n	20c08 <_ZN18complex_no_dynamic3app17h285ed38dcdff4d63E+0x48>
   20bf8:	481d      	ldr	r0, [pc, #116]	@ (20c70 <_ZN18complex_no_dynamic3app17h285ed38dcdff4d63E+0xb0>)
   20bfa:	2102      	movs	r1, #2
   20bfc:	2208      	movs	r2, #8
   20bfe:	2500      	movs	r5, #0
   20c00:	462b      	mov	r3, r5
   20c02:	df02      	svc	2
   20c04:	287f      	cmp	r0, #127	@ 0x7f
   20c06:	d813      	bhi.n	20c30 <_ZN18complex_no_dynamic3app17h285ed38dcdff4d63E+0x70>
   20c08:	2501      	movs	r5, #1
   20c0a:	2d00      	cmp	r5, #0
   20c0c:	d017      	beq.n	20c3e <_ZN18complex_no_dynamic3app17h285ed38dcdff4d63E+0x7e>
   20c0e:	2001      	movs	r0, #1
   20c10:	7020      	strb	r0, [r4, #0]
   20c12:	6061      	str	r1, [r4, #4]
   20c14:	4c16      	ldr	r4, [pc, #88]	@ (20c70 <_ZN18complex_no_dynamic3app17h285ed38dcdff4d63E+0xb0>)
   20c16:	2108      	movs	r1, #8
   20c18:	2500      	movs	r5, #0
   20c1a:	4620      	mov	r0, r4
   20c1c:	462a      	mov	r2, r5
   20c1e:	462b      	mov	r3, r5
   20c20:	df03      	svc	3
   20c22:	2102      	movs	r1, #2
   20c24:	4620      	mov	r0, r4
   20c26:	462a      	mov	r2, r5
   20c28:	462b      	mov	r3, r5
   20c2a:	df04      	svc	4
   20c2c:	b019      	add	sp, #100	@ 0x64
   20c2e:	bdf0      	pop	{r4, r5, r6, r7, pc}
   20c30:	480f      	ldr	r0, [pc, #60]	@ (20c70 <_ZN18complex_no_dynamic3app17h285ed38dcdff4d63E+0xb0>)
   20c32:	2108      	movs	r1, #8
   20c34:	462a      	mov	r2, r5
   20c36:	462b      	mov	r3, r5
   20c38:	df03      	svc	3
   20c3a:	2d00      	cmp	r5, #0
   20c3c:	d1e7      	bne.n	20c0e <_ZN18complex_no_dynamic3app17h285ed38dcdff4d63E+0x4e>
   20c3e:	480c      	ldr	r0, [pc, #48]	@ (20c70 <_ZN18complex_no_dynamic3app17h285ed38dcdff4d63E+0xb0>)
   20c40:	2608      	movs	r6, #8
   20c42:	2500      	movs	r5, #0
   20c44:	4631      	mov	r1, r6
   20c46:	462a      	mov	r2, r5
   20c48:	462b      	mov	r3, r5
   20c4a:	df03      	svc	3
   20c4c:	1c60      	adds	r0, r4, #1
   20c4e:	a90d      	add	r1, sp, #52	@ 0x34
   20c50:	222e      	movs	r2, #46	@ 0x2e
   20c52:	f007 f800 	bl	27c56 <__aeabi_memcpy>
   20c56:	7025      	strb	r5, [r4, #0]
   20c58:	4805      	ldr	r0, [pc, #20]	@ (20c70 <_ZN18complex_no_dynamic3app17h285ed38dcdff4d63E+0xb0>)
   20c5a:	4631      	mov	r1, r6
   20c5c:	462a      	mov	r2, r5
   20c5e:	462b      	mov	r3, r5
   20c60:	df03      	svc	3
   20c62:	2102      	movs	r1, #2
   20c64:	4802      	ldr	r0, [pc, #8]	@ (20c70 <_ZN18complex_no_dynamic3app17h285ed38dcdff4d63E+0xb0>)
   20c66:	462a      	mov	r2, r5
   20c68:	462b      	mov	r3, r5
   20c6a:	df04      	svc	4
   20c6c:	b019      	add	sp, #100	@ 0x64
   20c6e:	bdf0      	pop	{r4, r5, r6, r7, pc}
   20c70:	00000209 	.word	0x00000209

00020c74 <_ZN18complex_no_dynamic3app17h28aacee0d9e4b28bE>:
   20c74:	b5f0      	push	{r4, r5, r6, r7, lr}
   20c76:	af03      	add	r7, sp, #12
   20c78:	b097      	sub	sp, #92	@ 0x5c
   20c7a:	4604      	mov	r4, r0
   20c7c:	ad01      	add	r5, sp, #4
   20c7e:	2612      	movs	r6, #18
   20c80:	4628      	mov	r0, r5
   20c82:	4632      	mov	r2, r6
   20c84:	f006 ffe7 	bl	27c56 <__aeabi_memcpy>
   20c88:	a806      	add	r0, sp, #24
   20c8a:	2144      	movs	r1, #68	@ 0x44
   20c8c:	f006 fe36 	bl	278fc <__aeabi_memclr4>
   20c90:	4824      	ldr	r0, [pc, #144]	@ (20d24 <_ZN18complex_no_dynamic3app17h28aacee0d9e4b28bE+0xb0>)
   20c92:	2102      	movs	r1, #2
   20c94:	462a      	mov	r2, r5
   20c96:	4633      	mov	r3, r6
   20c98:	df04      	svc	4
   20c9a:	2802      	cmp	r0, #2
   20c9c:	d00e      	beq.n	20cbc <_ZN18complex_no_dynamic3app17h28aacee0d9e4b28bE+0x48>
   20c9e:	4821      	ldr	r0, [pc, #132]	@ (20d24 <_ZN18complex_no_dynamic3app17h28aacee0d9e4b28bE+0xb0>)
   20ca0:	2109      	movs	r1, #9
   20ca2:	aa06      	add	r2, sp, #24
   20ca4:	2344      	movs	r3, #68	@ 0x44
   20ca6:	df03      	svc	3
   20ca8:	2802      	cmp	r0, #2
   20caa:	d007      	beq.n	20cbc <_ZN18complex_no_dynamic3app17h28aacee0d9e4b28bE+0x48>
   20cac:	481d      	ldr	r0, [pc, #116]	@ (20d24 <_ZN18complex_no_dynamic3app17h28aacee0d9e4b28bE+0xb0>)
   20cae:	2102      	movs	r1, #2
   20cb0:	2209      	movs	r2, #9
   20cb2:	2500      	movs	r5, #0
   20cb4:	462b      	mov	r3, r5
   20cb6:	df02      	svc	2
   20cb8:	287f      	cmp	r0, #127	@ 0x7f
   20cba:	d813      	bhi.n	20ce4 <_ZN18complex_no_dynamic3app17h28aacee0d9e4b28bE+0x70>
   20cbc:	2501      	movs	r5, #1
   20cbe:	2d00      	cmp	r5, #0
   20cc0:	d017      	beq.n	20cf2 <_ZN18complex_no_dynamic3app17h28aacee0d9e4b28bE+0x7e>
   20cc2:	2001      	movs	r0, #1
   20cc4:	7020      	strb	r0, [r4, #0]
   20cc6:	6061      	str	r1, [r4, #4]
   20cc8:	4c16      	ldr	r4, [pc, #88]	@ (20d24 <_ZN18complex_no_dynamic3app17h28aacee0d9e4b28bE+0xb0>)
   20cca:	2109      	movs	r1, #9
   20ccc:	2500      	movs	r5, #0
   20cce:	4620      	mov	r0, r4
   20cd0:	462a      	mov	r2, r5
   20cd2:	462b      	mov	r3, r5
   20cd4:	df03      	svc	3
   20cd6:	2102      	movs	r1, #2
   20cd8:	4620      	mov	r0, r4
   20cda:	462a      	mov	r2, r5
   20cdc:	462b      	mov	r3, r5
   20cde:	df04      	svc	4
   20ce0:	b017      	add	sp, #92	@ 0x5c
   20ce2:	bdf0      	pop	{r4, r5, r6, r7, pc}
   20ce4:	480f      	ldr	r0, [pc, #60]	@ (20d24 <_ZN18complex_no_dynamic3app17h28aacee0d9e4b28bE+0xb0>)
   20ce6:	2109      	movs	r1, #9
   20ce8:	462a      	mov	r2, r5
   20cea:	462b      	mov	r3, r5
   20cec:	df03      	svc	3
   20cee:	2d00      	cmp	r5, #0
   20cf0:	d1e7      	bne.n	20cc2 <_ZN18complex_no_dynamic3app17h28aacee0d9e4b28bE+0x4e>
   20cf2:	480c      	ldr	r0, [pc, #48]	@ (20d24 <_ZN18complex_no_dynamic3app17h28aacee0d9e4b28bE+0xb0>)
   20cf4:	2609      	movs	r6, #9
   20cf6:	2500      	movs	r5, #0
   20cf8:	4631      	mov	r1, r6
   20cfa:	462a      	mov	r2, r5
   20cfc:	462b      	mov	r3, r5
   20cfe:	df03      	svc	3
   20d00:	1c60      	adds	r0, r4, #1
   20d02:	a906      	add	r1, sp, #24
   20d04:	2244      	movs	r2, #68	@ 0x44
   20d06:	f006 ffa6 	bl	27c56 <__aeabi_memcpy>
   20d0a:	7025      	strb	r5, [r4, #0]
   20d0c:	4805      	ldr	r0, [pc, #20]	@ (20d24 <_ZN18complex_no_dynamic3app17h28aacee0d9e4b28bE+0xb0>)
   20d0e:	4631      	mov	r1, r6
   20d10:	462a      	mov	r2, r5
   20d12:	462b      	mov	r3, r5
   20d14:	df03      	svc	3
   20d16:	2102      	movs	r1, #2
   20d18:	4802      	ldr	r0, [pc, #8]	@ (20d24 <_ZN18complex_no_dynamic3app17h28aacee0d9e4b28bE+0xb0>)
   20d1a:	462a      	mov	r2, r5
   20d1c:	462b      	mov	r3, r5
   20d1e:	df04      	svc	4
   20d20:	b017      	add	sp, #92	@ 0x5c
   20d22:	bdf0      	pop	{r4, r5, r6, r7, pc}
   20d24:	00002432 	.word	0x00002432

00020d28 <_ZN18complex_no_dynamic3app17h29b59a1730436f18E>:
   20d28:	b5f0      	push	{r4, r5, r6, r7, lr}
   20d2a:	af03      	add	r7, sp, #12
   20d2c:	b091      	sub	sp, #68	@ 0x44
   20d2e:	9001      	str	r0, [sp, #4]
   20d30:	ae02      	add	r6, sp, #8
   20d32:	2427      	movs	r4, #39	@ 0x27
   20d34:	4630      	mov	r0, r6
   20d36:	4622      	mov	r2, r4
   20d38:	f006 ff8d 	bl	27c56 <__aeabi_memcpy>
   20d3c:	2500      	movs	r5, #0
   20d3e:	9510      	str	r5, [sp, #64]	@ 0x40
   20d40:	950f      	str	r5, [sp, #60]	@ 0x3c
   20d42:	950e      	str	r5, [sp, #56]	@ 0x38
   20d44:	950d      	str	r5, [sp, #52]	@ 0x34
   20d46:	950c      	str	r5, [sp, #48]	@ 0x30
   20d48:	4825      	ldr	r0, [pc, #148]	@ (20de0 <_ZN18complex_no_dynamic3app17h29b59a1730436f18E+0xb8>)
   20d4a:	2106      	movs	r1, #6
   20d4c:	4632      	mov	r2, r6
   20d4e:	4623      	mov	r3, r4
   20d50:	df04      	svc	4
   20d52:	2802      	cmp	r0, #2
   20d54:	d00e      	beq.n	20d74 <_ZN18complex_no_dynamic3app17h29b59a1730436f18E+0x4c>
   20d56:	4822      	ldr	r0, [pc, #136]	@ (20de0 <_ZN18complex_no_dynamic3app17h29b59a1730436f18E+0xb8>)
   20d58:	2105      	movs	r1, #5
   20d5a:	aa0c      	add	r2, sp, #48	@ 0x30
   20d5c:	2314      	movs	r3, #20
   20d5e:	df03      	svc	3
   20d60:	2802      	cmp	r0, #2
   20d62:	d007      	beq.n	20d74 <_ZN18complex_no_dynamic3app17h29b59a1730436f18E+0x4c>
   20d64:	481e      	ldr	r0, [pc, #120]	@ (20de0 <_ZN18complex_no_dynamic3app17h29b59a1730436f18E+0xb8>)
   20d66:	2106      	movs	r1, #6
   20d68:	2205      	movs	r2, #5
   20d6a:	2600      	movs	r6, #0
   20d6c:	4633      	mov	r3, r6
   20d6e:	df02      	svc	2
   20d70:	287f      	cmp	r0, #127	@ 0x7f
   20d72:	d814      	bhi.n	20d9e <_ZN18complex_no_dynamic3app17h29b59a1730436f18E+0x76>
   20d74:	2601      	movs	r6, #1
   20d76:	2e00      	cmp	r6, #0
   20d78:	d018      	beq.n	20dac <_ZN18complex_no_dynamic3app17h29b59a1730436f18E+0x84>
   20d7a:	2001      	movs	r0, #1
   20d7c:	9a01      	ldr	r2, [sp, #4]
   20d7e:	7010      	strb	r0, [r2, #0]
   20d80:	6051      	str	r1, [r2, #4]
   20d82:	4c17      	ldr	r4, [pc, #92]	@ (20de0 <_ZN18complex_no_dynamic3app17h29b59a1730436f18E+0xb8>)
   20d84:	2105      	movs	r1, #5
   20d86:	2500      	movs	r5, #0
   20d88:	4620      	mov	r0, r4
   20d8a:	462a      	mov	r2, r5
   20d8c:	462b      	mov	r3, r5
   20d8e:	df03      	svc	3
   20d90:	2106      	movs	r1, #6
   20d92:	4620      	mov	r0, r4
   20d94:	462a      	mov	r2, r5
   20d96:	462b      	mov	r3, r5
   20d98:	df04      	svc	4
   20d9a:	b011      	add	sp, #68	@ 0x44
   20d9c:	bdf0      	pop	{r4, r5, r6, r7, pc}
   20d9e:	4810      	ldr	r0, [pc, #64]	@ (20de0 <_ZN18complex_no_dynamic3app17h29b59a1730436f18E+0xb8>)
   20da0:	2105      	movs	r1, #5
   20da2:	4632      	mov	r2, r6
   20da4:	4633      	mov	r3, r6
   20da6:	df03      	svc	3
   20da8:	2e00      	cmp	r6, #0
   20daa:	d1e6      	bne.n	20d7a <_ZN18complex_no_dynamic3app17h29b59a1730436f18E+0x52>
   20dac:	480c      	ldr	r0, [pc, #48]	@ (20de0 <_ZN18complex_no_dynamic3app17h29b59a1730436f18E+0xb8>)
   20dae:	2405      	movs	r4, #5
   20db0:	4621      	mov	r1, r4
   20db2:	462a      	mov	r2, r5
   20db4:	462b      	mov	r3, r5
   20db6:	df03      	svc	3
   20db8:	9e01      	ldr	r6, [sp, #4]
   20dba:	1c70      	adds	r0, r6, #1
   20dbc:	a90c      	add	r1, sp, #48	@ 0x30
   20dbe:	2214      	movs	r2, #20
   20dc0:	f006 ff49 	bl	27c56 <__aeabi_memcpy>
   20dc4:	7035      	strb	r5, [r6, #0]
   20dc6:	4e06      	ldr	r6, [pc, #24]	@ (20de0 <_ZN18complex_no_dynamic3app17h29b59a1730436f18E+0xb8>)
   20dc8:	4630      	mov	r0, r6
   20dca:	4621      	mov	r1, r4
   20dcc:	462a      	mov	r2, r5
   20dce:	462b      	mov	r3, r5
   20dd0:	df03      	svc	3
   20dd2:	2106      	movs	r1, #6
   20dd4:	4630      	mov	r0, r6
   20dd6:	462a      	mov	r2, r5
   20dd8:	462b      	mov	r3, r5
   20dda:	df04      	svc	4
   20ddc:	b011      	add	sp, #68	@ 0x44
   20dde:	bdf0      	pop	{r4, r5, r6, r7, pc}
   20de0:	000022c9 	.word	0x000022c9

00020de4 <_ZN18complex_no_dynamic3app17h2f14f827b34fe4ceE>:
   20de4:	b5f0      	push	{r4, r5, r6, r7, lr}
   20de6:	af03      	add	r7, sp, #12
   20de8:	b09f      	sub	sp, #124	@ 0x7c
   20dea:	4604      	mov	r4, r0
   20dec:	ad01      	add	r5, sp, #4
   20dee:	2627      	movs	r6, #39	@ 0x27
   20df0:	4628      	mov	r0, r5
   20df2:	4632      	mov	r2, r6
   20df4:	f006 ff2f 	bl	27c56 <__aeabi_memcpy>
   20df8:	a80b      	add	r0, sp, #44	@ 0x2c
   20dfa:	214f      	movs	r1, #79	@ 0x4f
   20dfc:	f006 fd7e 	bl	278fc <__aeabi_memclr4>
   20e00:	4824      	ldr	r0, [pc, #144]	@ (20e94 <_ZN18complex_no_dynamic3app17h2f14f827b34fe4ceE+0xb0>)
   20e02:	2109      	movs	r1, #9
   20e04:	462a      	mov	r2, r5
   20e06:	4633      	mov	r3, r6
   20e08:	df04      	svc	4
   20e0a:	2802      	cmp	r0, #2
   20e0c:	d00e      	beq.n	20e2c <_ZN18complex_no_dynamic3app17h2f14f827b34fe4ceE+0x48>
   20e0e:	4821      	ldr	r0, [pc, #132]	@ (20e94 <_ZN18complex_no_dynamic3app17h2f14f827b34fe4ceE+0xb0>)
   20e10:	2100      	movs	r1, #0
   20e12:	aa0b      	add	r2, sp, #44	@ 0x2c
   20e14:	234f      	movs	r3, #79	@ 0x4f
   20e16:	df03      	svc	3
   20e18:	2802      	cmp	r0, #2
   20e1a:	d007      	beq.n	20e2c <_ZN18complex_no_dynamic3app17h2f14f827b34fe4ceE+0x48>
   20e1c:	481d      	ldr	r0, [pc, #116]	@ (20e94 <_ZN18complex_no_dynamic3app17h2f14f827b34fe4ceE+0xb0>)
   20e1e:	2109      	movs	r1, #9
   20e20:	2500      	movs	r5, #0
   20e22:	462a      	mov	r2, r5
   20e24:	462b      	mov	r3, r5
   20e26:	df02      	svc	2
   20e28:	287f      	cmp	r0, #127	@ 0x7f
   20e2a:	d813      	bhi.n	20e54 <_ZN18complex_no_dynamic3app17h2f14f827b34fe4ceE+0x70>
   20e2c:	2501      	movs	r5, #1
   20e2e:	2d00      	cmp	r5, #0
   20e30:	d017      	beq.n	20e62 <_ZN18complex_no_dynamic3app17h2f14f827b34fe4ceE+0x7e>
   20e32:	2001      	movs	r0, #1
   20e34:	7020      	strb	r0, [r4, #0]
   20e36:	6061      	str	r1, [r4, #4]
   20e38:	4c16      	ldr	r4, [pc, #88]	@ (20e94 <_ZN18complex_no_dynamic3app17h2f14f827b34fe4ceE+0xb0>)
   20e3a:	2500      	movs	r5, #0
   20e3c:	4620      	mov	r0, r4
   20e3e:	4629      	mov	r1, r5
   20e40:	462a      	mov	r2, r5
   20e42:	462b      	mov	r3, r5
   20e44:	df03      	svc	3
   20e46:	2109      	movs	r1, #9
   20e48:	4620      	mov	r0, r4
   20e4a:	462a      	mov	r2, r5
   20e4c:	462b      	mov	r3, r5
   20e4e:	df04      	svc	4
   20e50:	b01f      	add	sp, #124	@ 0x7c
   20e52:	bdf0      	pop	{r4, r5, r6, r7, pc}
   20e54:	480f      	ldr	r0, [pc, #60]	@ (20e94 <_ZN18complex_no_dynamic3app17h2f14f827b34fe4ceE+0xb0>)
   20e56:	4629      	mov	r1, r5
   20e58:	462a      	mov	r2, r5
   20e5a:	462b      	mov	r3, r5
   20e5c:	df03      	svc	3
   20e5e:	2d00      	cmp	r5, #0
   20e60:	d1e7      	bne.n	20e32 <_ZN18complex_no_dynamic3app17h2f14f827b34fe4ceE+0x4e>
   20e62:	4e0c      	ldr	r6, [pc, #48]	@ (20e94 <_ZN18complex_no_dynamic3app17h2f14f827b34fe4ceE+0xb0>)
   20e64:	2500      	movs	r5, #0
   20e66:	4630      	mov	r0, r6
   20e68:	4629      	mov	r1, r5
   20e6a:	462a      	mov	r2, r5
   20e6c:	462b      	mov	r3, r5
   20e6e:	df03      	svc	3
   20e70:	1c60      	adds	r0, r4, #1
   20e72:	a90b      	add	r1, sp, #44	@ 0x2c
   20e74:	224f      	movs	r2, #79	@ 0x4f
   20e76:	f006 feee 	bl	27c56 <__aeabi_memcpy>
   20e7a:	7025      	strb	r5, [r4, #0]
   20e7c:	4630      	mov	r0, r6
   20e7e:	4629      	mov	r1, r5
   20e80:	462a      	mov	r2, r5
   20e82:	462b      	mov	r3, r5
   20e84:	df03      	svc	3
   20e86:	2109      	movs	r1, #9
   20e88:	4630      	mov	r0, r6
   20e8a:	462a      	mov	r2, r5
   20e8c:	462b      	mov	r3, r5
   20e8e:	df04      	svc	4
   20e90:	b01f      	add	sp, #124	@ 0x7c
   20e92:	bdf0      	pop	{r4, r5, r6, r7, pc}
   20e94:	00000b4c 	.word	0x00000b4c

00020e98 <_ZN18complex_no_dynamic3app17h31b5a833fb4361f3E>:
   20e98:	b5f0      	push	{r4, r5, r6, r7, lr}
   20e9a:	af03      	add	r7, sp, #12
   20e9c:	b09b      	sub	sp, #108	@ 0x6c
   20e9e:	9001      	str	r0, [sp, #4]
   20ea0:	ae02      	add	r6, sp, #8
   20ea2:	2451      	movs	r4, #81	@ 0x51
   20ea4:	4630      	mov	r0, r6
   20ea6:	4622      	mov	r2, r4
   20ea8:	f006 fed5 	bl	27c56 <__aeabi_memcpy>
   20eac:	a817      	add	r0, sp, #92	@ 0x5c
   20eae:	2500      	movs	r5, #0
   20eb0:	7385      	strb	r5, [r0, #14]
   20eb2:	8185      	strh	r5, [r0, #12]
   20eb4:	9519      	str	r5, [sp, #100]	@ 0x64
   20eb6:	9518      	str	r5, [sp, #96]	@ 0x60
   20eb8:	9517      	str	r5, [sp, #92]	@ 0x5c
   20eba:	4826      	ldr	r0, [pc, #152]	@ (20f54 <_ZN18complex_no_dynamic3app17h31b5a833fb4361f3E+0xbc>)
   20ebc:	4629      	mov	r1, r5
   20ebe:	4632      	mov	r2, r6
   20ec0:	4623      	mov	r3, r4
   20ec2:	df04      	svc	4
   20ec4:	2802      	cmp	r0, #2
   20ec6:	d00e      	beq.n	20ee6 <_ZN18complex_no_dynamic3app17h31b5a833fb4361f3E+0x4e>
   20ec8:	4822      	ldr	r0, [pc, #136]	@ (20f54 <_ZN18complex_no_dynamic3app17h31b5a833fb4361f3E+0xbc>)
   20eca:	2103      	movs	r1, #3
   20ecc:	aa17      	add	r2, sp, #92	@ 0x5c
   20ece:	230f      	movs	r3, #15
   20ed0:	df03      	svc	3
   20ed2:	2802      	cmp	r0, #2
   20ed4:	d007      	beq.n	20ee6 <_ZN18complex_no_dynamic3app17h31b5a833fb4361f3E+0x4e>
   20ed6:	481f      	ldr	r0, [pc, #124]	@ (20f54 <_ZN18complex_no_dynamic3app17h31b5a833fb4361f3E+0xbc>)
   20ed8:	2203      	movs	r2, #3
   20eda:	2600      	movs	r6, #0
   20edc:	4631      	mov	r1, r6
   20ede:	4633      	mov	r3, r6
   20ee0:	df02      	svc	2
   20ee2:	287f      	cmp	r0, #127	@ 0x7f
   20ee4:	d814      	bhi.n	20f10 <_ZN18complex_no_dynamic3app17h31b5a833fb4361f3E+0x78>
   20ee6:	2601      	movs	r6, #1
   20ee8:	2e00      	cmp	r6, #0
   20eea:	d018      	beq.n	20f1e <_ZN18complex_no_dynamic3app17h31b5a833fb4361f3E+0x86>
   20eec:	2001      	movs	r0, #1
   20eee:	9a01      	ldr	r2, [sp, #4]
   20ef0:	7010      	strb	r0, [r2, #0]
   20ef2:	6051      	str	r1, [r2, #4]
   20ef4:	4c17      	ldr	r4, [pc, #92]	@ (20f54 <_ZN18complex_no_dynamic3app17h31b5a833fb4361f3E+0xbc>)
   20ef6:	2103      	movs	r1, #3
   20ef8:	2500      	movs	r5, #0
   20efa:	4620      	mov	r0, r4
   20efc:	462a      	mov	r2, r5
   20efe:	462b      	mov	r3, r5
   20f00:	df03      	svc	3
   20f02:	4620      	mov	r0, r4
   20f04:	4629      	mov	r1, r5
   20f06:	462a      	mov	r2, r5
   20f08:	462b      	mov	r3, r5
   20f0a:	df04      	svc	4
   20f0c:	b01b      	add	sp, #108	@ 0x6c
   20f0e:	bdf0      	pop	{r4, r5, r6, r7, pc}
   20f10:	4810      	ldr	r0, [pc, #64]	@ (20f54 <_ZN18complex_no_dynamic3app17h31b5a833fb4361f3E+0xbc>)
   20f12:	2103      	movs	r1, #3
   20f14:	4632      	mov	r2, r6
   20f16:	4633      	mov	r3, r6
   20f18:	df03      	svc	3
   20f1a:	2e00      	cmp	r6, #0
   20f1c:	d1e6      	bne.n	20eec <_ZN18complex_no_dynamic3app17h31b5a833fb4361f3E+0x54>
   20f1e:	480d      	ldr	r0, [pc, #52]	@ (20f54 <_ZN18complex_no_dynamic3app17h31b5a833fb4361f3E+0xbc>)
   20f20:	2403      	movs	r4, #3
   20f22:	4621      	mov	r1, r4
   20f24:	462a      	mov	r2, r5
   20f26:	462b      	mov	r3, r5
   20f28:	df03      	svc	3
   20f2a:	9e01      	ldr	r6, [sp, #4]
   20f2c:	1c70      	adds	r0, r6, #1
   20f2e:	a917      	add	r1, sp, #92	@ 0x5c
   20f30:	220f      	movs	r2, #15
   20f32:	f006 fe90 	bl	27c56 <__aeabi_memcpy>
   20f36:	7035      	strb	r5, [r6, #0]
   20f38:	4e06      	ldr	r6, [pc, #24]	@ (20f54 <_ZN18complex_no_dynamic3app17h31b5a833fb4361f3E+0xbc>)
   20f3a:	4630      	mov	r0, r6
   20f3c:	4621      	mov	r1, r4
   20f3e:	462a      	mov	r2, r5
   20f40:	462b      	mov	r3, r5
   20f42:	df03      	svc	3
   20f44:	4630      	mov	r0, r6
   20f46:	4629      	mov	r1, r5
   20f48:	462a      	mov	r2, r5
   20f4a:	462b      	mov	r3, r5
   20f4c:	df04      	svc	4
   20f4e:	b01b      	add	sp, #108	@ 0x6c
   20f50:	bdf0      	pop	{r4, r5, r6, r7, pc}
   20f52:	46c0      	nop			@ (mov r8, r8)
   20f54:	000013bf 	.word	0x000013bf

00020f58 <_ZN18complex_no_dynamic3app17h32f32be7f0d22c78E>:
   20f58:	b5f0      	push	{r4, r5, r6, r7, lr}
   20f5a:	af03      	add	r7, sp, #12
   20f5c:	b0a5      	sub	sp, #148	@ 0x94
   20f5e:	4604      	mov	r4, r0
   20f60:	ad01      	add	r5, sp, #4
   20f62:	2663      	movs	r6, #99	@ 0x63
   20f64:	4628      	mov	r0, r5
   20f66:	4632      	mov	r2, r6
   20f68:	f006 fe75 	bl	27c56 <__aeabi_memcpy>
   20f6c:	a81a      	add	r0, sp, #104	@ 0x68
   20f6e:	212c      	movs	r1, #44	@ 0x2c
   20f70:	f006 fcc4 	bl	278fc <__aeabi_memclr4>
   20f74:	2018      	movs	r0, #24
   20f76:	2105      	movs	r1, #5
   20f78:	462a      	mov	r2, r5
   20f7a:	4633      	mov	r3, r6
   20f7c:	df04      	svc	4
   20f7e:	2802      	cmp	r0, #2
   20f80:	d00e      	beq.n	20fa0 <_ZN18complex_no_dynamic3app17h32f32be7f0d22c78E+0x48>
   20f82:	2018      	movs	r0, #24
   20f84:	2103      	movs	r1, #3
   20f86:	aa1a      	add	r2, sp, #104	@ 0x68
   20f88:	232c      	movs	r3, #44	@ 0x2c
   20f8a:	df03      	svc	3
   20f8c:	2802      	cmp	r0, #2
   20f8e:	d007      	beq.n	20fa0 <_ZN18complex_no_dynamic3app17h32f32be7f0d22c78E+0x48>
   20f90:	2018      	movs	r0, #24
   20f92:	2105      	movs	r1, #5
   20f94:	2203      	movs	r2, #3
   20f96:	2500      	movs	r5, #0
   20f98:	462b      	mov	r3, r5
   20f9a:	df02      	svc	2
   20f9c:	287f      	cmp	r0, #127	@ 0x7f
   20f9e:	d813      	bhi.n	20fc8 <_ZN18complex_no_dynamic3app17h32f32be7f0d22c78E+0x70>
   20fa0:	2501      	movs	r5, #1
   20fa2:	2d00      	cmp	r5, #0
   20fa4:	d017      	beq.n	20fd6 <_ZN18complex_no_dynamic3app17h32f32be7f0d22c78E+0x7e>
   20fa6:	2001      	movs	r0, #1
   20fa8:	7020      	strb	r0, [r4, #0]
   20faa:	6061      	str	r1, [r4, #4]
   20fac:	2418      	movs	r4, #24
   20fae:	2103      	movs	r1, #3
   20fb0:	2500      	movs	r5, #0
   20fb2:	4620      	mov	r0, r4
   20fb4:	462a      	mov	r2, r5
   20fb6:	462b      	mov	r3, r5
   20fb8:	df03      	svc	3
   20fba:	2105      	movs	r1, #5
   20fbc:	4620      	mov	r0, r4
   20fbe:	462a      	mov	r2, r5
   20fc0:	462b      	mov	r3, r5
   20fc2:	df04      	svc	4
   20fc4:	b025      	add	sp, #148	@ 0x94
   20fc6:	bdf0      	pop	{r4, r5, r6, r7, pc}
   20fc8:	2018      	movs	r0, #24
   20fca:	2103      	movs	r1, #3
   20fcc:	462a      	mov	r2, r5
   20fce:	462b      	mov	r3, r5
   20fd0:	df03      	svc	3
   20fd2:	2d00      	cmp	r5, #0
   20fd4:	d1e7      	bne.n	20fa6 <_ZN18complex_no_dynamic3app17h32f32be7f0d22c78E+0x4e>
   20fd6:	2618      	movs	r6, #24
   20fd8:	2103      	movs	r1, #3
   20fda:	9100      	str	r1, [sp, #0]
   20fdc:	2500      	movs	r5, #0
   20fde:	4630      	mov	r0, r6
   20fe0:	462a      	mov	r2, r5
   20fe2:	462b      	mov	r3, r5
   20fe4:	df03      	svc	3
   20fe6:	1c60      	adds	r0, r4, #1
   20fe8:	a91a      	add	r1, sp, #104	@ 0x68
   20fea:	222c      	movs	r2, #44	@ 0x2c
   20fec:	f006 fe33 	bl	27c56 <__aeabi_memcpy>
   20ff0:	7025      	strb	r5, [r4, #0]
   20ff2:	4630      	mov	r0, r6
   20ff4:	9900      	ldr	r1, [sp, #0]
   20ff6:	462a      	mov	r2, r5
   20ff8:	462b      	mov	r3, r5
   20ffa:	df03      	svc	3
   20ffc:	2105      	movs	r1, #5
   20ffe:	4630      	mov	r0, r6
   21000:	462a      	mov	r2, r5
   21002:	462b      	mov	r3, r5
   21004:	df04      	svc	4
   21006:	b025      	add	sp, #148	@ 0x94
   21008:	bdf0      	pop	{r4, r5, r6, r7, pc}
   2100a:	d4d4      	bmi.n	20fb6 <_ZN18complex_no_dynamic3app17h32f32be7f0d22c78E+0x5e>

0002100c <_ZN18complex_no_dynamic3app17h35ba38258a5b8e04E>:
   2100c:	b5f0      	push	{r4, r5, r6, r7, lr}
   2100e:	af03      	add	r7, sp, #12
   21010:	b09b      	sub	sp, #108	@ 0x6c
   21012:	4604      	mov	r4, r0
   21014:	ad01      	add	r5, sp, #4
   21016:	262e      	movs	r6, #46	@ 0x2e
   21018:	4628      	mov	r0, r5
   2101a:	4632      	mov	r2, r6
   2101c:	f006 fe1b 	bl	27c56 <__aeabi_memcpy>
   21020:	a80d      	add	r0, sp, #52	@ 0x34
   21022:	2138      	movs	r1, #56	@ 0x38
   21024:	f006 fc6a 	bl	278fc <__aeabi_memclr4>
   21028:	4825      	ldr	r0, [pc, #148]	@ (210c0 <_ZN18complex_no_dynamic3app17h35ba38258a5b8e04E+0xb4>)
   2102a:	2109      	movs	r1, #9
   2102c:	462a      	mov	r2, r5
   2102e:	4633      	mov	r3, r6
   21030:	df04      	svc	4
   21032:	2802      	cmp	r0, #2
   21034:	d00e      	beq.n	21054 <_ZN18complex_no_dynamic3app17h35ba38258a5b8e04E+0x48>
   21036:	4822      	ldr	r0, [pc, #136]	@ (210c0 <_ZN18complex_no_dynamic3app17h35ba38258a5b8e04E+0xb4>)
   21038:	2109      	movs	r1, #9
   2103a:	aa0d      	add	r2, sp, #52	@ 0x34
   2103c:	2338      	movs	r3, #56	@ 0x38
   2103e:	df03      	svc	3
   21040:	2802      	cmp	r0, #2
   21042:	d007      	beq.n	21054 <_ZN18complex_no_dynamic3app17h35ba38258a5b8e04E+0x48>
   21044:	481e      	ldr	r0, [pc, #120]	@ (210c0 <_ZN18complex_no_dynamic3app17h35ba38258a5b8e04E+0xb4>)
   21046:	2109      	movs	r1, #9
   21048:	2500      	movs	r5, #0
   2104a:	460a      	mov	r2, r1
   2104c:	462b      	mov	r3, r5
   2104e:	df02      	svc	2
   21050:	287f      	cmp	r0, #127	@ 0x7f
   21052:	d814      	bhi.n	2107e <_ZN18complex_no_dynamic3app17h35ba38258a5b8e04E+0x72>
   21054:	2501      	movs	r5, #1
   21056:	2d00      	cmp	r5, #0
   21058:	d018      	beq.n	2108c <_ZN18complex_no_dynamic3app17h35ba38258a5b8e04E+0x80>
   2105a:	2001      	movs	r0, #1
   2105c:	7020      	strb	r0, [r4, #0]
   2105e:	6061      	str	r1, [r4, #4]
   21060:	4c17      	ldr	r4, [pc, #92]	@ (210c0 <_ZN18complex_no_dynamic3app17h35ba38258a5b8e04E+0xb4>)
   21062:	2509      	movs	r5, #9
   21064:	2600      	movs	r6, #0
   21066:	4620      	mov	r0, r4
   21068:	4629      	mov	r1, r5
   2106a:	4632      	mov	r2, r6
   2106c:	4633      	mov	r3, r6
   2106e:	df03      	svc	3
   21070:	4620      	mov	r0, r4
   21072:	4629      	mov	r1, r5
   21074:	4632      	mov	r2, r6
   21076:	4633      	mov	r3, r6
   21078:	df04      	svc	4
   2107a:	b01b      	add	sp, #108	@ 0x6c
   2107c:	bdf0      	pop	{r4, r5, r6, r7, pc}
   2107e:	4810      	ldr	r0, [pc, #64]	@ (210c0 <_ZN18complex_no_dynamic3app17h35ba38258a5b8e04E+0xb4>)
   21080:	2109      	movs	r1, #9
   21082:	462a      	mov	r2, r5
   21084:	462b      	mov	r3, r5
   21086:	df03      	svc	3
   21088:	2d00      	cmp	r5, #0
   2108a:	d1e6      	bne.n	2105a <_ZN18complex_no_dynamic3app17h35ba38258a5b8e04E+0x4e>
   2108c:	480c      	ldr	r0, [pc, #48]	@ (210c0 <_ZN18complex_no_dynamic3app17h35ba38258a5b8e04E+0xb4>)
   2108e:	2609      	movs	r6, #9
   21090:	2500      	movs	r5, #0
   21092:	4631      	mov	r1, r6
   21094:	462a      	mov	r2, r5
   21096:	462b      	mov	r3, r5
   21098:	df03      	svc	3
   2109a:	1c60      	adds	r0, r4, #1
   2109c:	a90d      	add	r1, sp, #52	@ 0x34
   2109e:	2238      	movs	r2, #56	@ 0x38
   210a0:	f006 fdd9 	bl	27c56 <__aeabi_memcpy>
   210a4:	7025      	strb	r5, [r4, #0]
   210a6:	4806      	ldr	r0, [pc, #24]	@ (210c0 <_ZN18complex_no_dynamic3app17h35ba38258a5b8e04E+0xb4>)
   210a8:	4631      	mov	r1, r6
   210aa:	462a      	mov	r2, r5
   210ac:	462b      	mov	r3, r5
   210ae:	df03      	svc	3
   210b0:	4803      	ldr	r0, [pc, #12]	@ (210c0 <_ZN18complex_no_dynamic3app17h35ba38258a5b8e04E+0xb4>)
   210b2:	4631      	mov	r1, r6
   210b4:	462a      	mov	r2, r5
   210b6:	462b      	mov	r3, r5
   210b8:	df04      	svc	4
   210ba:	b01b      	add	sp, #108	@ 0x6c
   210bc:	bdf0      	pop	{r4, r5, r6, r7, pc}
   210be:	46c0      	nop			@ (mov r8, r8)
   210c0:	00000a9d 	.word	0x00000a9d

000210c4 <_ZN18complex_no_dynamic3app17h35e90010a7bd4af5E>:
   210c4:	b5f0      	push	{r4, r5, r6, r7, lr}
   210c6:	af03      	add	r7, sp, #12
   210c8:	b093      	sub	sp, #76	@ 0x4c
   210ca:	4604      	mov	r4, r0
   210cc:	ad01      	add	r5, sp, #4
   210ce:	2623      	movs	r6, #35	@ 0x23
   210d0:	4628      	mov	r0, r5
   210d2:	4632      	mov	r2, r6
   210d4:	f006 fdbf 	bl	27c56 <__aeabi_memcpy>
   210d8:	a80a      	add	r0, sp, #40	@ 0x28
   210da:	2124      	movs	r1, #36	@ 0x24
   210dc:	f006 fc0e 	bl	278fc <__aeabi_memclr4>
   210e0:	4824      	ldr	r0, [pc, #144]	@ (21174 <_ZN18complex_no_dynamic3app17h35e90010a7bd4af5E+0xb0>)
   210e2:	2104      	movs	r1, #4
   210e4:	462a      	mov	r2, r5
   210e6:	4633      	mov	r3, r6
   210e8:	df04      	svc	4
   210ea:	2802      	cmp	r0, #2
   210ec:	d00e      	beq.n	2110c <_ZN18complex_no_dynamic3app17h35e90010a7bd4af5E+0x48>
   210ee:	4821      	ldr	r0, [pc, #132]	@ (21174 <_ZN18complex_no_dynamic3app17h35e90010a7bd4af5E+0xb0>)
   210f0:	2108      	movs	r1, #8
   210f2:	aa0a      	add	r2, sp, #40	@ 0x28
   210f4:	2324      	movs	r3, #36	@ 0x24
   210f6:	df03      	svc	3
   210f8:	2802      	cmp	r0, #2
   210fa:	d007      	beq.n	2110c <_ZN18complex_no_dynamic3app17h35e90010a7bd4af5E+0x48>
   210fc:	481d      	ldr	r0, [pc, #116]	@ (21174 <_ZN18complex_no_dynamic3app17h35e90010a7bd4af5E+0xb0>)
   210fe:	2104      	movs	r1, #4
   21100:	2208      	movs	r2, #8
   21102:	2500      	movs	r5, #0
   21104:	462b      	mov	r3, r5
   21106:	df02      	svc	2
   21108:	287f      	cmp	r0, #127	@ 0x7f
   2110a:	d813      	bhi.n	21134 <_ZN18complex_no_dynamic3app17h35e90010a7bd4af5E+0x70>
   2110c:	2501      	movs	r5, #1
   2110e:	2d00      	cmp	r5, #0
   21110:	d017      	beq.n	21142 <_ZN18complex_no_dynamic3app17h35e90010a7bd4af5E+0x7e>
   21112:	2001      	movs	r0, #1
   21114:	7020      	strb	r0, [r4, #0]
   21116:	6061      	str	r1, [r4, #4]
   21118:	4c16      	ldr	r4, [pc, #88]	@ (21174 <_ZN18complex_no_dynamic3app17h35e90010a7bd4af5E+0xb0>)
   2111a:	2108      	movs	r1, #8
   2111c:	2500      	movs	r5, #0
   2111e:	4620      	mov	r0, r4
   21120:	462a      	mov	r2, r5
   21122:	462b      	mov	r3, r5
   21124:	df03      	svc	3
   21126:	2104      	movs	r1, #4
   21128:	4620      	mov	r0, r4
   2112a:	462a      	mov	r2, r5
   2112c:	462b      	mov	r3, r5
   2112e:	df04      	svc	4
   21130:	b013      	add	sp, #76	@ 0x4c
   21132:	bdf0      	pop	{r4, r5, r6, r7, pc}
   21134:	480f      	ldr	r0, [pc, #60]	@ (21174 <_ZN18complex_no_dynamic3app17h35e90010a7bd4af5E+0xb0>)
   21136:	2108      	movs	r1, #8
   21138:	462a      	mov	r2, r5
   2113a:	462b      	mov	r3, r5
   2113c:	df03      	svc	3
   2113e:	2d00      	cmp	r5, #0
   21140:	d1e7      	bne.n	21112 <_ZN18complex_no_dynamic3app17h35e90010a7bd4af5E+0x4e>
   21142:	480c      	ldr	r0, [pc, #48]	@ (21174 <_ZN18complex_no_dynamic3app17h35e90010a7bd4af5E+0xb0>)
   21144:	2608      	movs	r6, #8
   21146:	2500      	movs	r5, #0
   21148:	4631      	mov	r1, r6
   2114a:	462a      	mov	r2, r5
   2114c:	462b      	mov	r3, r5
   2114e:	df03      	svc	3
   21150:	1c60      	adds	r0, r4, #1
   21152:	a90a      	add	r1, sp, #40	@ 0x28
   21154:	2224      	movs	r2, #36	@ 0x24
   21156:	f006 fd7e 	bl	27c56 <__aeabi_memcpy>
   2115a:	7025      	strb	r5, [r4, #0]
   2115c:	4805      	ldr	r0, [pc, #20]	@ (21174 <_ZN18complex_no_dynamic3app17h35e90010a7bd4af5E+0xb0>)
   2115e:	4631      	mov	r1, r6
   21160:	462a      	mov	r2, r5
   21162:	462b      	mov	r3, r5
   21164:	df03      	svc	3
   21166:	2104      	movs	r1, #4
   21168:	4802      	ldr	r0, [pc, #8]	@ (21174 <_ZN18complex_no_dynamic3app17h35e90010a7bd4af5E+0xb0>)
   2116a:	462a      	mov	r2, r5
   2116c:	462b      	mov	r3, r5
   2116e:	df04      	svc	4
   21170:	b013      	add	sp, #76	@ 0x4c
   21172:	bdf0      	pop	{r4, r5, r6, r7, pc}
   21174:	00001bd6 	.word	0x00001bd6

00021178 <_ZN18complex_no_dynamic3app17h38ad2b6f7a1d8b1dE>:
   21178:	b5f0      	push	{r4, r5, r6, r7, lr}
   2117a:	af03      	add	r7, sp, #12
   2117c:	b093      	sub	sp, #76	@ 0x4c
   2117e:	9000      	str	r0, [sp, #0]
   21180:	ae01      	add	r6, sp, #4
   21182:	2429      	movs	r4, #41	@ 0x29
   21184:	4630      	mov	r0, r6
   21186:	4622      	mov	r2, r4
   21188:	f006 fd65 	bl	27c56 <__aeabi_memcpy>
   2118c:	a80c      	add	r0, sp, #48	@ 0x30
   2118e:	2500      	movs	r5, #0
   21190:	8305      	strh	r5, [r0, #24]
   21192:	9511      	str	r5, [sp, #68]	@ 0x44
   21194:	9510      	str	r5, [sp, #64]	@ 0x40
   21196:	950f      	str	r5, [sp, #60]	@ 0x3c
   21198:	950e      	str	r5, [sp, #56]	@ 0x38
   2119a:	950d      	str	r5, [sp, #52]	@ 0x34
   2119c:	950c      	str	r5, [sp, #48]	@ 0x30
   2119e:	4826      	ldr	r0, [pc, #152]	@ (21238 <_ZN18complex_no_dynamic3app17h38ad2b6f7a1d8b1dE+0xc0>)
   211a0:	2105      	movs	r1, #5
   211a2:	4632      	mov	r2, r6
   211a4:	4623      	mov	r3, r4
   211a6:	df04      	svc	4
   211a8:	2802      	cmp	r0, #2
   211aa:	d00e      	beq.n	211ca <_ZN18complex_no_dynamic3app17h38ad2b6f7a1d8b1dE+0x52>
   211ac:	4822      	ldr	r0, [pc, #136]	@ (21238 <_ZN18complex_no_dynamic3app17h38ad2b6f7a1d8b1dE+0xc0>)
   211ae:	2103      	movs	r1, #3
   211b0:	aa0c      	add	r2, sp, #48	@ 0x30
   211b2:	231a      	movs	r3, #26
   211b4:	df03      	svc	3
   211b6:	2802      	cmp	r0, #2
   211b8:	d007      	beq.n	211ca <_ZN18complex_no_dynamic3app17h38ad2b6f7a1d8b1dE+0x52>
   211ba:	481f      	ldr	r0, [pc, #124]	@ (21238 <_ZN18complex_no_dynamic3app17h38ad2b6f7a1d8b1dE+0xc0>)
   211bc:	2105      	movs	r1, #5
   211be:	2203      	movs	r2, #3
   211c0:	2600      	movs	r6, #0
   211c2:	4633      	mov	r3, r6
   211c4:	df02      	svc	2
   211c6:	287f      	cmp	r0, #127	@ 0x7f
   211c8:	d814      	bhi.n	211f4 <_ZN18complex_no_dynamic3app17h38ad2b6f7a1d8b1dE+0x7c>
   211ca:	2601      	movs	r6, #1
   211cc:	2e00      	cmp	r6, #0
   211ce:	d018      	beq.n	21202 <_ZN18complex_no_dynamic3app17h38ad2b6f7a1d8b1dE+0x8a>
   211d0:	2001      	movs	r0, #1
   211d2:	9a00      	ldr	r2, [sp, #0]
   211d4:	7010      	strb	r0, [r2, #0]
   211d6:	6051      	str	r1, [r2, #4]
   211d8:	4c17      	ldr	r4, [pc, #92]	@ (21238 <_ZN18complex_no_dynamic3app17h38ad2b6f7a1d8b1dE+0xc0>)
   211da:	2103      	movs	r1, #3
   211dc:	2500      	movs	r5, #0
   211de:	4620      	mov	r0, r4
   211e0:	462a      	mov	r2, r5
   211e2:	462b      	mov	r3, r5
   211e4:	df03      	svc	3
   211e6:	2105      	movs	r1, #5
   211e8:	4620      	mov	r0, r4
   211ea:	462a      	mov	r2, r5
   211ec:	462b      	mov	r3, r5
   211ee:	df04      	svc	4
   211f0:	b013      	add	sp, #76	@ 0x4c
   211f2:	bdf0      	pop	{r4, r5, r6, r7, pc}
   211f4:	4810      	ldr	r0, [pc, #64]	@ (21238 <_ZN18complex_no_dynamic3app17h38ad2b6f7a1d8b1dE+0xc0>)
   211f6:	2103      	movs	r1, #3
   211f8:	4632      	mov	r2, r6
   211fa:	4633      	mov	r3, r6
   211fc:	df03      	svc	3
   211fe:	2e00      	cmp	r6, #0
   21200:	d1e6      	bne.n	211d0 <_ZN18complex_no_dynamic3app17h38ad2b6f7a1d8b1dE+0x58>
   21202:	480d      	ldr	r0, [pc, #52]	@ (21238 <_ZN18complex_no_dynamic3app17h38ad2b6f7a1d8b1dE+0xc0>)
   21204:	2403      	movs	r4, #3
   21206:	4621      	mov	r1, r4
   21208:	462a      	mov	r2, r5
   2120a:	462b      	mov	r3, r5
   2120c:	df03      	svc	3
   2120e:	9e00      	ldr	r6, [sp, #0]
   21210:	1c70      	adds	r0, r6, #1
   21212:	a90c      	add	r1, sp, #48	@ 0x30
   21214:	221a      	movs	r2, #26
   21216:	f006 fd1e 	bl	27c56 <__aeabi_memcpy>
   2121a:	7035      	strb	r5, [r6, #0]
   2121c:	4e06      	ldr	r6, [pc, #24]	@ (21238 <_ZN18complex_no_dynamic3app17h38ad2b6f7a1d8b1dE+0xc0>)
   2121e:	4630      	mov	r0, r6
   21220:	4621      	mov	r1, r4
   21222:	462a      	mov	r2, r5
   21224:	462b      	mov	r3, r5
   21226:	df03      	svc	3
   21228:	2105      	movs	r1, #5
   2122a:	4630      	mov	r0, r6
   2122c:	462a      	mov	r2, r5
   2122e:	462b      	mov	r3, r5
   21230:	df04      	svc	4
   21232:	b013      	add	sp, #76	@ 0x4c
   21234:	bdf0      	pop	{r4, r5, r6, r7, pc}
   21236:	46c0      	nop			@ (mov r8, r8)
   21238:	00002048 	.word	0x00002048

0002123c <_ZN18complex_no_dynamic3app17h3a5c0637fb1b8b16E>:
   2123c:	b5f0      	push	{r4, r5, r6, r7, lr}
   2123e:	af03      	add	r7, sp, #12
   21240:	b099      	sub	sp, #100	@ 0x64
   21242:	4604      	mov	r4, r0
   21244:	ad01      	add	r5, sp, #4
   21246:	2638      	movs	r6, #56	@ 0x38
   21248:	4628      	mov	r0, r5
   2124a:	4632      	mov	r2, r6
   2124c:	f006 fd03 	bl	27c56 <__aeabi_memcpy>
   21250:	a80f      	add	r0, sp, #60	@ 0x3c
   21252:	2127      	movs	r1, #39	@ 0x27
   21254:	f006 fb52 	bl	278fc <__aeabi_memclr4>
   21258:	4824      	ldr	r0, [pc, #144]	@ (212ec <_ZN18complex_no_dynamic3app17h3a5c0637fb1b8b16E+0xb0>)
   2125a:	2102      	movs	r1, #2
   2125c:	462a      	mov	r2, r5
   2125e:	4633      	mov	r3, r6
   21260:	df04      	svc	4
   21262:	2802      	cmp	r0, #2
   21264:	d00e      	beq.n	21284 <_ZN18complex_no_dynamic3app17h3a5c0637fb1b8b16E+0x48>
   21266:	4821      	ldr	r0, [pc, #132]	@ (212ec <_ZN18complex_no_dynamic3app17h3a5c0637fb1b8b16E+0xb0>)
   21268:	2108      	movs	r1, #8
   2126a:	aa0f      	add	r2, sp, #60	@ 0x3c
   2126c:	2327      	movs	r3, #39	@ 0x27
   2126e:	df03      	svc	3
   21270:	2802      	cmp	r0, #2
   21272:	d007      	beq.n	21284 <_ZN18complex_no_dynamic3app17h3a5c0637fb1b8b16E+0x48>
   21274:	481d      	ldr	r0, [pc, #116]	@ (212ec <_ZN18complex_no_dynamic3app17h3a5c0637fb1b8b16E+0xb0>)
   21276:	2102      	movs	r1, #2
   21278:	2208      	movs	r2, #8
   2127a:	2500      	movs	r5, #0
   2127c:	462b      	mov	r3, r5
   2127e:	df02      	svc	2
   21280:	287f      	cmp	r0, #127	@ 0x7f
   21282:	d813      	bhi.n	212ac <_ZN18complex_no_dynamic3app17h3a5c0637fb1b8b16E+0x70>
   21284:	2501      	movs	r5, #1
   21286:	2d00      	cmp	r5, #0
   21288:	d017      	beq.n	212ba <_ZN18complex_no_dynamic3app17h3a5c0637fb1b8b16E+0x7e>
   2128a:	2001      	movs	r0, #1
   2128c:	7020      	strb	r0, [r4, #0]
   2128e:	6061      	str	r1, [r4, #4]
   21290:	4c16      	ldr	r4, [pc, #88]	@ (212ec <_ZN18complex_no_dynamic3app17h3a5c0637fb1b8b16E+0xb0>)
   21292:	2108      	movs	r1, #8
   21294:	2500      	movs	r5, #0
   21296:	4620      	mov	r0, r4
   21298:	462a      	mov	r2, r5
   2129a:	462b      	mov	r3, r5
   2129c:	df03      	svc	3
   2129e:	2102      	movs	r1, #2
   212a0:	4620      	mov	r0, r4
   212a2:	462a      	mov	r2, r5
   212a4:	462b      	mov	r3, r5
   212a6:	df04      	svc	4
   212a8:	b019      	add	sp, #100	@ 0x64
   212aa:	bdf0      	pop	{r4, r5, r6, r7, pc}
   212ac:	480f      	ldr	r0, [pc, #60]	@ (212ec <_ZN18complex_no_dynamic3app17h3a5c0637fb1b8b16E+0xb0>)
   212ae:	2108      	movs	r1, #8
   212b0:	462a      	mov	r2, r5
   212b2:	462b      	mov	r3, r5
   212b4:	df03      	svc	3
   212b6:	2d00      	cmp	r5, #0
   212b8:	d1e7      	bne.n	2128a <_ZN18complex_no_dynamic3app17h3a5c0637fb1b8b16E+0x4e>
   212ba:	480c      	ldr	r0, [pc, #48]	@ (212ec <_ZN18complex_no_dynamic3app17h3a5c0637fb1b8b16E+0xb0>)
   212bc:	2608      	movs	r6, #8
   212be:	2500      	movs	r5, #0
   212c0:	4631      	mov	r1, r6
   212c2:	462a      	mov	r2, r5
   212c4:	462b      	mov	r3, r5
   212c6:	df03      	svc	3
   212c8:	1c60      	adds	r0, r4, #1
   212ca:	a90f      	add	r1, sp, #60	@ 0x3c
   212cc:	2227      	movs	r2, #39	@ 0x27
   212ce:	f006 fcc2 	bl	27c56 <__aeabi_memcpy>
   212d2:	7025      	strb	r5, [r4, #0]
   212d4:	4805      	ldr	r0, [pc, #20]	@ (212ec <_ZN18complex_no_dynamic3app17h3a5c0637fb1b8b16E+0xb0>)
   212d6:	4631      	mov	r1, r6
   212d8:	462a      	mov	r2, r5
   212da:	462b      	mov	r3, r5
   212dc:	df03      	svc	3
   212de:	2102      	movs	r1, #2
   212e0:	4802      	ldr	r0, [pc, #8]	@ (212ec <_ZN18complex_no_dynamic3app17h3a5c0637fb1b8b16E+0xb0>)
   212e2:	462a      	mov	r2, r5
   212e4:	462b      	mov	r3, r5
   212e6:	df04      	svc	4
   212e8:	b019      	add	sp, #100	@ 0x64
   212ea:	bdf0      	pop	{r4, r5, r6, r7, pc}
   212ec:	00000e2b 	.word	0x00000e2b

000212f0 <_ZN18complex_no_dynamic3app17h3d7d2db2d345bc78E>:
   212f0:	b5f0      	push	{r4, r5, r6, r7, lr}
   212f2:	af03      	add	r7, sp, #12
   212f4:	b093      	sub	sp, #76	@ 0x4c
   212f6:	9002      	str	r0, [sp, #8]
   212f8:	ac03      	add	r4, sp, #12
   212fa:	2525      	movs	r5, #37	@ 0x25
   212fc:	4620      	mov	r0, r4
   212fe:	462a      	mov	r2, r5
   21300:	f006 fca9 	bl	27c56 <__aeabi_memcpy>
   21304:	2600      	movs	r6, #0
   21306:	9612      	str	r6, [sp, #72]	@ 0x48
   21308:	9611      	str	r6, [sp, #68]	@ 0x44
   2130a:	9610      	str	r6, [sp, #64]	@ 0x40
   2130c:	960f      	str	r6, [sp, #60]	@ 0x3c
   2130e:	960e      	str	r6, [sp, #56]	@ 0x38
   21310:	960d      	str	r6, [sp, #52]	@ 0x34
   21312:	20a7      	movs	r0, #167	@ 0xa7
   21314:	0100      	lsls	r0, r0, #4
   21316:	2109      	movs	r1, #9
   21318:	9001      	str	r0, [sp, #4]
   2131a:	4622      	mov	r2, r4
   2131c:	462b      	mov	r3, r5
   2131e:	df04      	svc	4
   21320:	2802      	cmp	r0, #2
   21322:	d114      	bne.n	2134e <_ZN18complex_no_dynamic3app17h3d7d2db2d345bc78E+0x5e>
   21324:	2401      	movs	r4, #1
   21326:	9d01      	ldr	r5, [sp, #4]
   21328:	2c00      	cmp	r4, #0
   2132a:	d023      	beq.n	21374 <_ZN18complex_no_dynamic3app17h3d7d2db2d345bc78E+0x84>
   2132c:	2001      	movs	r0, #1
   2132e:	9a02      	ldr	r2, [sp, #8]
   21330:	7010      	strb	r0, [r2, #0]
   21332:	6051      	str	r1, [r2, #4]
   21334:	2108      	movs	r1, #8
   21336:	2400      	movs	r4, #0
   21338:	4628      	mov	r0, r5
   2133a:	4622      	mov	r2, r4
   2133c:	4623      	mov	r3, r4
   2133e:	df03      	svc	3
   21340:	2109      	movs	r1, #9
   21342:	4628      	mov	r0, r5
   21344:	4622      	mov	r2, r4
   21346:	4623      	mov	r3, r4
   21348:	df04      	svc	4
   2134a:	b013      	add	sp, #76	@ 0x4c
   2134c:	bdf0      	pop	{r4, r5, r6, r7, pc}
   2134e:	2108      	movs	r1, #8
   21350:	aa0d      	add	r2, sp, #52	@ 0x34
   21352:	2318      	movs	r3, #24
   21354:	9d01      	ldr	r5, [sp, #4]
   21356:	4628      	mov	r0, r5
   21358:	df03      	svc	3
   2135a:	2802      	cmp	r0, #2
   2135c:	d007      	beq.n	2136e <_ZN18complex_no_dynamic3app17h3d7d2db2d345bc78E+0x7e>
   2135e:	2109      	movs	r1, #9
   21360:	2208      	movs	r2, #8
   21362:	2400      	movs	r4, #0
   21364:	4628      	mov	r0, r5
   21366:	4623      	mov	r3, r4
   21368:	df02      	svc	2
   2136a:	287f      	cmp	r0, #127	@ 0x7f
   2136c:	d81c      	bhi.n	213a8 <_ZN18complex_no_dynamic3app17h3d7d2db2d345bc78E+0xb8>
   2136e:	2401      	movs	r4, #1
   21370:	2c00      	cmp	r4, #0
   21372:	d1db      	bne.n	2132c <_ZN18complex_no_dynamic3app17h3d7d2db2d345bc78E+0x3c>
   21374:	2108      	movs	r1, #8
   21376:	9101      	str	r1, [sp, #4]
   21378:	4628      	mov	r0, r5
   2137a:	4632      	mov	r2, r6
   2137c:	4633      	mov	r3, r6
   2137e:	df03      	svc	3
   21380:	462c      	mov	r4, r5
   21382:	9d02      	ldr	r5, [sp, #8]
   21384:	1c68      	adds	r0, r5, #1
   21386:	a90d      	add	r1, sp, #52	@ 0x34
   21388:	2218      	movs	r2, #24
   2138a:	f006 fc64 	bl	27c56 <__aeabi_memcpy>
   2138e:	702e      	strb	r6, [r5, #0]
   21390:	4620      	mov	r0, r4
   21392:	9901      	ldr	r1, [sp, #4]
   21394:	4632      	mov	r2, r6
   21396:	4633      	mov	r3, r6
   21398:	df03      	svc	3
   2139a:	2109      	movs	r1, #9
   2139c:	4620      	mov	r0, r4
   2139e:	4632      	mov	r2, r6
   213a0:	4633      	mov	r3, r6
   213a2:	df04      	svc	4
   213a4:	b013      	add	sp, #76	@ 0x4c
   213a6:	bdf0      	pop	{r4, r5, r6, r7, pc}
   213a8:	2108      	movs	r1, #8
   213aa:	4628      	mov	r0, r5
   213ac:	4622      	mov	r2, r4
   213ae:	4623      	mov	r3, r4
   213b0:	df03      	svc	3
   213b2:	2c00      	cmp	r4, #0
   213b4:	d0de      	beq.n	21374 <_ZN18complex_no_dynamic3app17h3d7d2db2d345bc78E+0x84>
   213b6:	e7b9      	b.n	2132c <_ZN18complex_no_dynamic3app17h3d7d2db2d345bc78E+0x3c>

000213b8 <_ZN18complex_no_dynamic3app17h3f3307f93c9b59f5E>:
   213b8:	b5f0      	push	{r4, r5, r6, r7, lr}
   213ba:	af03      	add	r7, sp, #12
   213bc:	b097      	sub	sp, #92	@ 0x5c
   213be:	4604      	mov	r4, r0
   213c0:	ad01      	add	r5, sp, #4
   213c2:	262c      	movs	r6, #44	@ 0x2c
   213c4:	4628      	mov	r0, r5
   213c6:	4632      	mov	r2, r6
   213c8:	f006 fc45 	bl	27c56 <__aeabi_memcpy>
   213cc:	a80c      	add	r0, sp, #48	@ 0x30
   213ce:	212a      	movs	r1, #42	@ 0x2a
   213d0:	f006 fa94 	bl	278fc <__aeabi_memclr4>
   213d4:	4824      	ldr	r0, [pc, #144]	@ (21468 <_ZN18complex_no_dynamic3app17h3f3307f93c9b59f5E+0xb0>)
   213d6:	2103      	movs	r1, #3
   213d8:	462a      	mov	r2, r5
   213da:	4633      	mov	r3, r6
   213dc:	df04      	svc	4
   213de:	2802      	cmp	r0, #2
   213e0:	d00e      	beq.n	21400 <_ZN18complex_no_dynamic3app17h3f3307f93c9b59f5E+0x48>
   213e2:	4821      	ldr	r0, [pc, #132]	@ (21468 <_ZN18complex_no_dynamic3app17h3f3307f93c9b59f5E+0xb0>)
   213e4:	2100      	movs	r1, #0
   213e6:	aa0c      	add	r2, sp, #48	@ 0x30
   213e8:	232a      	movs	r3, #42	@ 0x2a
   213ea:	df03      	svc	3
   213ec:	2802      	cmp	r0, #2
   213ee:	d007      	beq.n	21400 <_ZN18complex_no_dynamic3app17h3f3307f93c9b59f5E+0x48>
   213f0:	481d      	ldr	r0, [pc, #116]	@ (21468 <_ZN18complex_no_dynamic3app17h3f3307f93c9b59f5E+0xb0>)
   213f2:	2103      	movs	r1, #3
   213f4:	2500      	movs	r5, #0
   213f6:	462a      	mov	r2, r5
   213f8:	462b      	mov	r3, r5
   213fa:	df02      	svc	2
   213fc:	287f      	cmp	r0, #127	@ 0x7f
   213fe:	d813      	bhi.n	21428 <_ZN18complex_no_dynamic3app17h3f3307f93c9b59f5E+0x70>
   21400:	2501      	movs	r5, #1
   21402:	2d00      	cmp	r5, #0
   21404:	d017      	beq.n	21436 <_ZN18complex_no_dynamic3app17h3f3307f93c9b59f5E+0x7e>
   21406:	2001      	movs	r0, #1
   21408:	7020      	strb	r0, [r4, #0]
   2140a:	6061      	str	r1, [r4, #4]
   2140c:	4c16      	ldr	r4, [pc, #88]	@ (21468 <_ZN18complex_no_dynamic3app17h3f3307f93c9b59f5E+0xb0>)
   2140e:	2500      	movs	r5, #0
   21410:	4620      	mov	r0, r4
   21412:	4629      	mov	r1, r5
   21414:	462a      	mov	r2, r5
   21416:	462b      	mov	r3, r5
   21418:	df03      	svc	3
   2141a:	2103      	movs	r1, #3
   2141c:	4620      	mov	r0, r4
   2141e:	462a      	mov	r2, r5
   21420:	462b      	mov	r3, r5
   21422:	df04      	svc	4
   21424:	b017      	add	sp, #92	@ 0x5c
   21426:	bdf0      	pop	{r4, r5, r6, r7, pc}
   21428:	480f      	ldr	r0, [pc, #60]	@ (21468 <_ZN18complex_no_dynamic3app17h3f3307f93c9b59f5E+0xb0>)
   2142a:	4629      	mov	r1, r5
   2142c:	462a      	mov	r2, r5
   2142e:	462b      	mov	r3, r5
   21430:	df03      	svc	3
   21432:	2d00      	cmp	r5, #0
   21434:	d1e7      	bne.n	21406 <_ZN18complex_no_dynamic3app17h3f3307f93c9b59f5E+0x4e>
   21436:	4e0c      	ldr	r6, [pc, #48]	@ (21468 <_ZN18complex_no_dynamic3app17h3f3307f93c9b59f5E+0xb0>)
   21438:	2500      	movs	r5, #0
   2143a:	4630      	mov	r0, r6
   2143c:	4629      	mov	r1, r5
   2143e:	462a      	mov	r2, r5
   21440:	462b      	mov	r3, r5
   21442:	df03      	svc	3
   21444:	1c60      	adds	r0, r4, #1
   21446:	a90c      	add	r1, sp, #48	@ 0x30
   21448:	222a      	movs	r2, #42	@ 0x2a
   2144a:	f006 fc04 	bl	27c56 <__aeabi_memcpy>
   2144e:	7025      	strb	r5, [r4, #0]
   21450:	4630      	mov	r0, r6
   21452:	4629      	mov	r1, r5
   21454:	462a      	mov	r2, r5
   21456:	462b      	mov	r3, r5
   21458:	df03      	svc	3
   2145a:	2103      	movs	r1, #3
   2145c:	4630      	mov	r0, r6
   2145e:	462a      	mov	r2, r5
   21460:	462b      	mov	r3, r5
   21462:	df04      	svc	4
   21464:	b017      	add	sp, #92	@ 0x5c
   21466:	bdf0      	pop	{r4, r5, r6, r7, pc}
   21468:	000024f0 	.word	0x000024f0

0002146c <_ZN18complex_no_dynamic3app17h42de7d352c5bf612E>:
   2146c:	b5f0      	push	{r4, r5, r6, r7, lr}
   2146e:	af03      	add	r7, sp, #12
   21470:	b093      	sub	sp, #76	@ 0x4c
   21472:	4606      	mov	r6, r0
   21474:	7b08      	ldrb	r0, [r1, #12]
   21476:	7b4a      	ldrb	r2, [r1, #13]
   21478:	0212      	lsls	r2, r2, #8
   2147a:	1810      	adds	r0, r2, r0
   2147c:	7b8a      	ldrb	r2, [r1, #14]
   2147e:	0412      	lsls	r2, r2, #16
   21480:	7bcb      	ldrb	r3, [r1, #15]
   21482:	061b      	lsls	r3, r3, #24
   21484:	189a      	adds	r2, r3, r2
   21486:	1810      	adds	r0, r2, r0
   21488:	9004      	str	r0, [sp, #16]
   2148a:	7a08      	ldrb	r0, [r1, #8]
   2148c:	7a4a      	ldrb	r2, [r1, #9]
   2148e:	0212      	lsls	r2, r2, #8
   21490:	1810      	adds	r0, r2, r0
   21492:	7a8a      	ldrb	r2, [r1, #10]
   21494:	0412      	lsls	r2, r2, #16
   21496:	7acb      	ldrb	r3, [r1, #11]
   21498:	061b      	lsls	r3, r3, #24
   2149a:	189a      	adds	r2, r3, r2
   2149c:	1810      	adds	r0, r2, r0
   2149e:	9003      	str	r0, [sp, #12]
   214a0:	7908      	ldrb	r0, [r1, #4]
   214a2:	794a      	ldrb	r2, [r1, #5]
   214a4:	0212      	lsls	r2, r2, #8
   214a6:	1810      	adds	r0, r2, r0
   214a8:	798a      	ldrb	r2, [r1, #6]
   214aa:	0412      	lsls	r2, r2, #16
   214ac:	79cb      	ldrb	r3, [r1, #7]
   214ae:	061b      	lsls	r3, r3, #24
   214b0:	189a      	adds	r2, r3, r2
   214b2:	1810      	adds	r0, r2, r0
   214b4:	9002      	str	r0, [sp, #8]
   214b6:	7808      	ldrb	r0, [r1, #0]
   214b8:	784a      	ldrb	r2, [r1, #1]
   214ba:	0212      	lsls	r2, r2, #8
   214bc:	1810      	adds	r0, r2, r0
   214be:	788a      	ldrb	r2, [r1, #2]
   214c0:	0412      	lsls	r2, r2, #16
   214c2:	78c9      	ldrb	r1, [r1, #3]
   214c4:	0609      	lsls	r1, r1, #24
   214c6:	1889      	adds	r1, r1, r2
   214c8:	1808      	adds	r0, r1, r0
   214ca:	9001      	str	r0, [sp, #4]
   214cc:	a805      	add	r0, sp, #20
   214ce:	2136      	movs	r1, #54	@ 0x36
   214d0:	f006 fa14 	bl	278fc <__aeabi_memclr4>
   214d4:	4825      	ldr	r0, [pc, #148]	@ (2156c <_ZN18complex_no_dynamic3app17h42de7d352c5bf612E+0x100>)
   214d6:	2501      	movs	r5, #1
   214d8:	aa01      	add	r2, sp, #4
   214da:	2310      	movs	r3, #16
   214dc:	4629      	mov	r1, r5
   214de:	df04      	svc	4
   214e0:	2802      	cmp	r0, #2
   214e2:	d017      	beq.n	21514 <_ZN18complex_no_dynamic3app17h42de7d352c5bf612E+0xa8>
   214e4:	4821      	ldr	r0, [pc, #132]	@ (2156c <_ZN18complex_no_dynamic3app17h42de7d352c5bf612E+0x100>)
   214e6:	2107      	movs	r1, #7
   214e8:	aa05      	add	r2, sp, #20
   214ea:	2336      	movs	r3, #54	@ 0x36
   214ec:	df03      	svc	3
   214ee:	2802      	cmp	r0, #2
   214f0:	d010      	beq.n	21514 <_ZN18complex_no_dynamic3app17h42de7d352c5bf612E+0xa8>
   214f2:	4634      	mov	r4, r6
   214f4:	481d      	ldr	r0, [pc, #116]	@ (2156c <_ZN18complex_no_dynamic3app17h42de7d352c5bf612E+0x100>)
   214f6:	2501      	movs	r5, #1
   214f8:	2207      	movs	r2, #7
   214fa:	2600      	movs	r6, #0
   214fc:	4629      	mov	r1, r5
   214fe:	4633      	mov	r3, r6
   21500:	df02      	svc	2
   21502:	287f      	cmp	r0, #127	@ 0x7f
   21504:	d905      	bls.n	21512 <_ZN18complex_no_dynamic3app17h42de7d352c5bf612E+0xa6>
   21506:	4819      	ldr	r0, [pc, #100]	@ (2156c <_ZN18complex_no_dynamic3app17h42de7d352c5bf612E+0x100>)
   21508:	2107      	movs	r1, #7
   2150a:	4632      	mov	r2, r6
   2150c:	4633      	mov	r3, r6
   2150e:	df03      	svc	3
   21510:	4635      	mov	r5, r6
   21512:	4626      	mov	r6, r4
   21514:	2d00      	cmp	r5, #0
   21516:	d010      	beq.n	2153a <_ZN18complex_no_dynamic3app17h42de7d352c5bf612E+0xce>
   21518:	2401      	movs	r4, #1
   2151a:	7034      	strb	r4, [r6, #0]
   2151c:	6071      	str	r1, [r6, #4]
   2151e:	4d13      	ldr	r5, [pc, #76]	@ (2156c <_ZN18complex_no_dynamic3app17h42de7d352c5bf612E+0x100>)
   21520:	2107      	movs	r1, #7
   21522:	2600      	movs	r6, #0
   21524:	4628      	mov	r0, r5
   21526:	4632      	mov	r2, r6
   21528:	4633      	mov	r3, r6
   2152a:	df03      	svc	3
   2152c:	4628      	mov	r0, r5
   2152e:	4621      	mov	r1, r4
   21530:	4632      	mov	r2, r6
   21532:	4633      	mov	r3, r6
   21534:	df04      	svc	4
   21536:	b013      	add	sp, #76	@ 0x4c
   21538:	bdf0      	pop	{r4, r5, r6, r7, pc}
   2153a:	480c      	ldr	r0, [pc, #48]	@ (2156c <_ZN18complex_no_dynamic3app17h42de7d352c5bf612E+0x100>)
   2153c:	2407      	movs	r4, #7
   2153e:	2500      	movs	r5, #0
   21540:	4621      	mov	r1, r4
   21542:	462a      	mov	r2, r5
   21544:	462b      	mov	r3, r5
   21546:	df03      	svc	3
   21548:	1c70      	adds	r0, r6, #1
   2154a:	a905      	add	r1, sp, #20
   2154c:	2236      	movs	r2, #54	@ 0x36
   2154e:	f006 fb82 	bl	27c56 <__aeabi_memcpy>
   21552:	7035      	strb	r5, [r6, #0]
   21554:	4805      	ldr	r0, [pc, #20]	@ (2156c <_ZN18complex_no_dynamic3app17h42de7d352c5bf612E+0x100>)
   21556:	4621      	mov	r1, r4
   21558:	462a      	mov	r2, r5
   2155a:	462b      	mov	r3, r5
   2155c:	df03      	svc	3
   2155e:	2101      	movs	r1, #1
   21560:	4802      	ldr	r0, [pc, #8]	@ (2156c <_ZN18complex_no_dynamic3app17h42de7d352c5bf612E+0x100>)
   21562:	462a      	mov	r2, r5
   21564:	462b      	mov	r3, r5
   21566:	df04      	svc	4
   21568:	b013      	add	sp, #76	@ 0x4c
   2156a:	bdf0      	pop	{r4, r5, r6, r7, pc}
   2156c:	00001989 	.word	0x00001989

00021570 <_ZN18complex_no_dynamic3app17h43768a3c5bfbe2d4E>:
   21570:	b5f0      	push	{r4, r5, r6, r7, lr}
   21572:	af03      	add	r7, sp, #12
   21574:	b097      	sub	sp, #92	@ 0x5c
   21576:	4604      	mov	r4, r0
   21578:	466d      	mov	r5, sp
   2157a:	261e      	movs	r6, #30
   2157c:	4628      	mov	r0, r5
   2157e:	4632      	mov	r2, r6
   21580:	f006 fb69 	bl	27c56 <__aeabi_memcpy>
   21584:	a808      	add	r0, sp, #32
   21586:	213c      	movs	r1, #60	@ 0x3c
   21588:	f006 f9b8 	bl	278fc <__aeabi_memclr4>
   2158c:	4824      	ldr	r0, [pc, #144]	@ (21620 <_ZN18complex_no_dynamic3app17h43768a3c5bfbe2d4E+0xb0>)
   2158e:	2102      	movs	r1, #2
   21590:	462a      	mov	r2, r5
   21592:	4633      	mov	r3, r6
   21594:	df04      	svc	4
   21596:	2802      	cmp	r0, #2
   21598:	d00e      	beq.n	215b8 <_ZN18complex_no_dynamic3app17h43768a3c5bfbe2d4E+0x48>
   2159a:	4821      	ldr	r0, [pc, #132]	@ (21620 <_ZN18complex_no_dynamic3app17h43768a3c5bfbe2d4E+0xb0>)
   2159c:	2103      	movs	r1, #3
   2159e:	aa08      	add	r2, sp, #32
   215a0:	233c      	movs	r3, #60	@ 0x3c
   215a2:	df03      	svc	3
   215a4:	2802      	cmp	r0, #2
   215a6:	d007      	beq.n	215b8 <_ZN18complex_no_dynamic3app17h43768a3c5bfbe2d4E+0x48>
   215a8:	481d      	ldr	r0, [pc, #116]	@ (21620 <_ZN18complex_no_dynamic3app17h43768a3c5bfbe2d4E+0xb0>)
   215aa:	2102      	movs	r1, #2
   215ac:	2203      	movs	r2, #3
   215ae:	2500      	movs	r5, #0
   215b0:	462b      	mov	r3, r5
   215b2:	df02      	svc	2
   215b4:	287f      	cmp	r0, #127	@ 0x7f
   215b6:	d813      	bhi.n	215e0 <_ZN18complex_no_dynamic3app17h43768a3c5bfbe2d4E+0x70>
   215b8:	2501      	movs	r5, #1
   215ba:	2d00      	cmp	r5, #0
   215bc:	d017      	beq.n	215ee <_ZN18complex_no_dynamic3app17h43768a3c5bfbe2d4E+0x7e>
   215be:	2001      	movs	r0, #1
   215c0:	7020      	strb	r0, [r4, #0]
   215c2:	6061      	str	r1, [r4, #4]
   215c4:	4c16      	ldr	r4, [pc, #88]	@ (21620 <_ZN18complex_no_dynamic3app17h43768a3c5bfbe2d4E+0xb0>)
   215c6:	2103      	movs	r1, #3
   215c8:	2500      	movs	r5, #0
   215ca:	4620      	mov	r0, r4
   215cc:	462a      	mov	r2, r5
   215ce:	462b      	mov	r3, r5
   215d0:	df03      	svc	3
   215d2:	2102      	movs	r1, #2
   215d4:	4620      	mov	r0, r4
   215d6:	462a      	mov	r2, r5
   215d8:	462b      	mov	r3, r5
   215da:	df04      	svc	4
   215dc:	b017      	add	sp, #92	@ 0x5c
   215de:	bdf0      	pop	{r4, r5, r6, r7, pc}
   215e0:	480f      	ldr	r0, [pc, #60]	@ (21620 <_ZN18complex_no_dynamic3app17h43768a3c5bfbe2d4E+0xb0>)
   215e2:	2103      	movs	r1, #3
   215e4:	462a      	mov	r2, r5
   215e6:	462b      	mov	r3, r5
   215e8:	df03      	svc	3
   215ea:	2d00      	cmp	r5, #0
   215ec:	d1e7      	bne.n	215be <_ZN18complex_no_dynamic3app17h43768a3c5bfbe2d4E+0x4e>
   215ee:	480c      	ldr	r0, [pc, #48]	@ (21620 <_ZN18complex_no_dynamic3app17h43768a3c5bfbe2d4E+0xb0>)
   215f0:	2603      	movs	r6, #3
   215f2:	2500      	movs	r5, #0
   215f4:	4631      	mov	r1, r6
   215f6:	462a      	mov	r2, r5
   215f8:	462b      	mov	r3, r5
   215fa:	df03      	svc	3
   215fc:	1c60      	adds	r0, r4, #1
   215fe:	a908      	add	r1, sp, #32
   21600:	223c      	movs	r2, #60	@ 0x3c
   21602:	f006 fb28 	bl	27c56 <__aeabi_memcpy>
   21606:	7025      	strb	r5, [r4, #0]
   21608:	4805      	ldr	r0, [pc, #20]	@ (21620 <_ZN18complex_no_dynamic3app17h43768a3c5bfbe2d4E+0xb0>)
   2160a:	4631      	mov	r1, r6
   2160c:	462a      	mov	r2, r5
   2160e:	462b      	mov	r3, r5
   21610:	df03      	svc	3
   21612:	2102      	movs	r1, #2
   21614:	4802      	ldr	r0, [pc, #8]	@ (21620 <_ZN18complex_no_dynamic3app17h43768a3c5bfbe2d4E+0xb0>)
   21616:	462a      	mov	r2, r5
   21618:	462b      	mov	r3, r5
   2161a:	df04      	svc	4
   2161c:	b017      	add	sp, #92	@ 0x5c
   2161e:	bdf0      	pop	{r4, r5, r6, r7, pc}
   21620:	00000b3c 	.word	0x00000b3c

00021624 <_ZN18complex_no_dynamic3app17h438ab2128b9ad349E>:
   21624:	b5f0      	push	{r4, r5, r6, r7, lr}
   21626:	af03      	add	r7, sp, #12
   21628:	b0ab      	sub	sp, #172	@ 0xac
   2162a:	9000      	str	r0, [sp, #0]
   2162c:	ae01      	add	r6, sp, #4
   2162e:	2459      	movs	r4, #89	@ 0x59
   21630:	4630      	mov	r0, r6
   21632:	4622      	mov	r2, r4
   21634:	f006 fb0f 	bl	27c56 <__aeabi_memcpy>
   21638:	a818      	add	r0, sp, #96	@ 0x60
   2163a:	214a      	movs	r1, #74	@ 0x4a
   2163c:	f006 f95e 	bl	278fc <__aeabi_memclr4>
   21640:	4826      	ldr	r0, [pc, #152]	@ (216dc <_ZN18complex_no_dynamic3app17h438ab2128b9ad349E+0xb8>)
   21642:	2500      	movs	r5, #0
   21644:	4629      	mov	r1, r5
   21646:	4632      	mov	r2, r6
   21648:	4623      	mov	r3, r4
   2164a:	df04      	svc	4
   2164c:	2802      	cmp	r0, #2
   2164e:	d00e      	beq.n	2166e <_ZN18complex_no_dynamic3app17h438ab2128b9ad349E+0x4a>
   21650:	4822      	ldr	r0, [pc, #136]	@ (216dc <_ZN18complex_no_dynamic3app17h438ab2128b9ad349E+0xb8>)
   21652:	2104      	movs	r1, #4
   21654:	aa18      	add	r2, sp, #96	@ 0x60
   21656:	234a      	movs	r3, #74	@ 0x4a
   21658:	df03      	svc	3
   2165a:	2802      	cmp	r0, #2
   2165c:	d007      	beq.n	2166e <_ZN18complex_no_dynamic3app17h438ab2128b9ad349E+0x4a>
   2165e:	481f      	ldr	r0, [pc, #124]	@ (216dc <_ZN18complex_no_dynamic3app17h438ab2128b9ad349E+0xb8>)
   21660:	2204      	movs	r2, #4
   21662:	2600      	movs	r6, #0
   21664:	4631      	mov	r1, r6
   21666:	4633      	mov	r3, r6
   21668:	df02      	svc	2
   2166a:	287f      	cmp	r0, #127	@ 0x7f
   2166c:	d814      	bhi.n	21698 <_ZN18complex_no_dynamic3app17h438ab2128b9ad349E+0x74>
   2166e:	2601      	movs	r6, #1
   21670:	2e00      	cmp	r6, #0
   21672:	d018      	beq.n	216a6 <_ZN18complex_no_dynamic3app17h438ab2128b9ad349E+0x82>
   21674:	2001      	movs	r0, #1
   21676:	9a00      	ldr	r2, [sp, #0]
   21678:	7010      	strb	r0, [r2, #0]
   2167a:	6051      	str	r1, [r2, #4]
   2167c:	4c17      	ldr	r4, [pc, #92]	@ (216dc <_ZN18complex_no_dynamic3app17h438ab2128b9ad349E+0xb8>)
   2167e:	2104      	movs	r1, #4
   21680:	2500      	movs	r5, #0
   21682:	4620      	mov	r0, r4
   21684:	462a      	mov	r2, r5
   21686:	462b      	mov	r3, r5
   21688:	df03      	svc	3
   2168a:	4620      	mov	r0, r4
   2168c:	4629      	mov	r1, r5
   2168e:	462a      	mov	r2, r5
   21690:	462b      	mov	r3, r5
   21692:	df04      	svc	4
   21694:	b02b      	add	sp, #172	@ 0xac
   21696:	bdf0      	pop	{r4, r5, r6, r7, pc}
   21698:	4810      	ldr	r0, [pc, #64]	@ (216dc <_ZN18complex_no_dynamic3app17h438ab2128b9ad349E+0xb8>)
   2169a:	2104      	movs	r1, #4
   2169c:	4632      	mov	r2, r6
   2169e:	4633      	mov	r3, r6
   216a0:	df03      	svc	3
   216a2:	2e00      	cmp	r6, #0
   216a4:	d1e6      	bne.n	21674 <_ZN18complex_no_dynamic3app17h438ab2128b9ad349E+0x50>
   216a6:	480d      	ldr	r0, [pc, #52]	@ (216dc <_ZN18complex_no_dynamic3app17h438ab2128b9ad349E+0xb8>)
   216a8:	2404      	movs	r4, #4
   216aa:	4621      	mov	r1, r4
   216ac:	462a      	mov	r2, r5
   216ae:	462b      	mov	r3, r5
   216b0:	df03      	svc	3
   216b2:	9e00      	ldr	r6, [sp, #0]
   216b4:	1c70      	adds	r0, r6, #1
   216b6:	a918      	add	r1, sp, #96	@ 0x60
   216b8:	224a      	movs	r2, #74	@ 0x4a
   216ba:	f006 facc 	bl	27c56 <__aeabi_memcpy>
   216be:	7035      	strb	r5, [r6, #0]
   216c0:	4e06      	ldr	r6, [pc, #24]	@ (216dc <_ZN18complex_no_dynamic3app17h438ab2128b9ad349E+0xb8>)
   216c2:	4630      	mov	r0, r6
   216c4:	4621      	mov	r1, r4
   216c6:	462a      	mov	r2, r5
   216c8:	462b      	mov	r3, r5
   216ca:	df03      	svc	3
   216cc:	4630      	mov	r0, r6
   216ce:	4629      	mov	r1, r5
   216d0:	462a      	mov	r2, r5
   216d2:	462b      	mov	r3, r5
   216d4:	df04      	svc	4
   216d6:	b02b      	add	sp, #172	@ 0xac
   216d8:	bdf0      	pop	{r4, r5, r6, r7, pc}
   216da:	46c0      	nop			@ (mov r8, r8)
   216dc:	00001484 	.word	0x00001484

000216e0 <_ZN18complex_no_dynamic3app17h47fd253a2c874cb2E>:
   216e0:	b5f0      	push	{r4, r5, r6, r7, lr}
   216e2:	af03      	add	r7, sp, #12
   216e4:	b0a9      	sub	sp, #164	@ 0xa4
   216e6:	4604      	mov	r4, r0
   216e8:	ad01      	add	r5, sp, #4
   216ea:	265d      	movs	r6, #93	@ 0x5d
   216ec:	4628      	mov	r0, r5
   216ee:	4632      	mov	r2, r6
   216f0:	f006 fab1 	bl	27c56 <__aeabi_memcpy>
   216f4:	a819      	add	r0, sp, #100	@ 0x64
   216f6:	2140      	movs	r1, #64	@ 0x40
   216f8:	f006 f900 	bl	278fc <__aeabi_memclr4>
   216fc:	4824      	ldr	r0, [pc, #144]	@ (21790 <_ZN18complex_no_dynamic3app17h47fd253a2c874cb2E+0xb0>)
   216fe:	2108      	movs	r1, #8
   21700:	462a      	mov	r2, r5
   21702:	4633      	mov	r3, r6
   21704:	df04      	svc	4
   21706:	2802      	cmp	r0, #2
   21708:	d00e      	beq.n	21728 <_ZN18complex_no_dynamic3app17h47fd253a2c874cb2E+0x48>
   2170a:	4821      	ldr	r0, [pc, #132]	@ (21790 <_ZN18complex_no_dynamic3app17h47fd253a2c874cb2E+0xb0>)
   2170c:	2104      	movs	r1, #4
   2170e:	aa19      	add	r2, sp, #100	@ 0x64
   21710:	2340      	movs	r3, #64	@ 0x40
   21712:	df03      	svc	3
   21714:	2802      	cmp	r0, #2
   21716:	d007      	beq.n	21728 <_ZN18complex_no_dynamic3app17h47fd253a2c874cb2E+0x48>
   21718:	481d      	ldr	r0, [pc, #116]	@ (21790 <_ZN18complex_no_dynamic3app17h47fd253a2c874cb2E+0xb0>)
   2171a:	2108      	movs	r1, #8
   2171c:	2204      	movs	r2, #4
   2171e:	2500      	movs	r5, #0
   21720:	462b      	mov	r3, r5
   21722:	df02      	svc	2
   21724:	287f      	cmp	r0, #127	@ 0x7f
   21726:	d813      	bhi.n	21750 <_ZN18complex_no_dynamic3app17h47fd253a2c874cb2E+0x70>
   21728:	2501      	movs	r5, #1
   2172a:	2d00      	cmp	r5, #0
   2172c:	d017      	beq.n	2175e <_ZN18complex_no_dynamic3app17h47fd253a2c874cb2E+0x7e>
   2172e:	2001      	movs	r0, #1
   21730:	7020      	strb	r0, [r4, #0]
   21732:	6061      	str	r1, [r4, #4]
   21734:	4c16      	ldr	r4, [pc, #88]	@ (21790 <_ZN18complex_no_dynamic3app17h47fd253a2c874cb2E+0xb0>)
   21736:	2104      	movs	r1, #4
   21738:	2500      	movs	r5, #0
   2173a:	4620      	mov	r0, r4
   2173c:	462a      	mov	r2, r5
   2173e:	462b      	mov	r3, r5
   21740:	df03      	svc	3
   21742:	2108      	movs	r1, #8
   21744:	4620      	mov	r0, r4
   21746:	462a      	mov	r2, r5
   21748:	462b      	mov	r3, r5
   2174a:	df04      	svc	4
   2174c:	b029      	add	sp, #164	@ 0xa4
   2174e:	bdf0      	pop	{r4, r5, r6, r7, pc}
   21750:	480f      	ldr	r0, [pc, #60]	@ (21790 <_ZN18complex_no_dynamic3app17h47fd253a2c874cb2E+0xb0>)
   21752:	2104      	movs	r1, #4
   21754:	462a      	mov	r2, r5
   21756:	462b      	mov	r3, r5
   21758:	df03      	svc	3
   2175a:	2d00      	cmp	r5, #0
   2175c:	d1e7      	bne.n	2172e <_ZN18complex_no_dynamic3app17h47fd253a2c874cb2E+0x4e>
   2175e:	480c      	ldr	r0, [pc, #48]	@ (21790 <_ZN18complex_no_dynamic3app17h47fd253a2c874cb2E+0xb0>)
   21760:	2604      	movs	r6, #4
   21762:	2500      	movs	r5, #0
   21764:	4631      	mov	r1, r6
   21766:	462a      	mov	r2, r5
   21768:	462b      	mov	r3, r5
   2176a:	df03      	svc	3
   2176c:	1c60      	adds	r0, r4, #1
   2176e:	a919      	add	r1, sp, #100	@ 0x64
   21770:	2240      	movs	r2, #64	@ 0x40
   21772:	f006 fa70 	bl	27c56 <__aeabi_memcpy>
   21776:	7025      	strb	r5, [r4, #0]
   21778:	4805      	ldr	r0, [pc, #20]	@ (21790 <_ZN18complex_no_dynamic3app17h47fd253a2c874cb2E+0xb0>)
   2177a:	4631      	mov	r1, r6
   2177c:	462a      	mov	r2, r5
   2177e:	462b      	mov	r3, r5
   21780:	df03      	svc	3
   21782:	2108      	movs	r1, #8
   21784:	4802      	ldr	r0, [pc, #8]	@ (21790 <_ZN18complex_no_dynamic3app17h47fd253a2c874cb2E+0xb0>)
   21786:	462a      	mov	r2, r5
   21788:	462b      	mov	r3, r5
   2178a:	df04      	svc	4
   2178c:	b029      	add	sp, #164	@ 0xa4
   2178e:	bdf0      	pop	{r4, r5, r6, r7, pc}
   21790:	00001028 	.word	0x00001028

00021794 <_ZN18complex_no_dynamic3app17h4b47c329b95fc1cfE>:
   21794:	b5f0      	push	{r4, r5, r6, r7, lr}
   21796:	af03      	add	r7, sp, #12
   21798:	b0a9      	sub	sp, #164	@ 0xa4
   2179a:	4604      	mov	r4, r0
   2179c:	ad01      	add	r5, sp, #4
   2179e:	2646      	movs	r6, #70	@ 0x46
   217a0:	4628      	mov	r0, r5
   217a2:	4632      	mov	r2, r6
   217a4:	f006 fa57 	bl	27c56 <__aeabi_memcpy>
   217a8:	a813      	add	r0, sp, #76	@ 0x4c
   217aa:	2156      	movs	r1, #86	@ 0x56
   217ac:	f006 f8a6 	bl	278fc <__aeabi_memclr4>
   217b0:	4824      	ldr	r0, [pc, #144]	@ (21844 <_ZN18complex_no_dynamic3app17h4b47c329b95fc1cfE+0xb0>)
   217b2:	2107      	movs	r1, #7
   217b4:	462a      	mov	r2, r5
   217b6:	4633      	mov	r3, r6
   217b8:	df04      	svc	4
   217ba:	2802      	cmp	r0, #2
   217bc:	d00e      	beq.n	217dc <_ZN18complex_no_dynamic3app17h4b47c329b95fc1cfE+0x48>
   217be:	4821      	ldr	r0, [pc, #132]	@ (21844 <_ZN18complex_no_dynamic3app17h4b47c329b95fc1cfE+0xb0>)
   217c0:	2103      	movs	r1, #3
   217c2:	aa13      	add	r2, sp, #76	@ 0x4c
   217c4:	2356      	movs	r3, #86	@ 0x56
   217c6:	df03      	svc	3
   217c8:	2802      	cmp	r0, #2
   217ca:	d007      	beq.n	217dc <_ZN18complex_no_dynamic3app17h4b47c329b95fc1cfE+0x48>
   217cc:	481d      	ldr	r0, [pc, #116]	@ (21844 <_ZN18complex_no_dynamic3app17h4b47c329b95fc1cfE+0xb0>)
   217ce:	2107      	movs	r1, #7
   217d0:	2203      	movs	r2, #3
   217d2:	2500      	movs	r5, #0
   217d4:	462b      	mov	r3, r5
   217d6:	df02      	svc	2
   217d8:	287f      	cmp	r0, #127	@ 0x7f
   217da:	d813      	bhi.n	21804 <_ZN18complex_no_dynamic3app17h4b47c329b95fc1cfE+0x70>
   217dc:	2501      	movs	r5, #1
   217de:	2d00      	cmp	r5, #0
   217e0:	d017      	beq.n	21812 <_ZN18complex_no_dynamic3app17h4b47c329b95fc1cfE+0x7e>
   217e2:	2001      	movs	r0, #1
   217e4:	7020      	strb	r0, [r4, #0]
   217e6:	6061      	str	r1, [r4, #4]
   217e8:	4c16      	ldr	r4, [pc, #88]	@ (21844 <_ZN18complex_no_dynamic3app17h4b47c329b95fc1cfE+0xb0>)
   217ea:	2103      	movs	r1, #3
   217ec:	2500      	movs	r5, #0
   217ee:	4620      	mov	r0, r4
   217f0:	462a      	mov	r2, r5
   217f2:	462b      	mov	r3, r5
   217f4:	df03      	svc	3
   217f6:	2107      	movs	r1, #7
   217f8:	4620      	mov	r0, r4
   217fa:	462a      	mov	r2, r5
   217fc:	462b      	mov	r3, r5
   217fe:	df04      	svc	4
   21800:	b029      	add	sp, #164	@ 0xa4
   21802:	bdf0      	pop	{r4, r5, r6, r7, pc}
   21804:	480f      	ldr	r0, [pc, #60]	@ (21844 <_ZN18complex_no_dynamic3app17h4b47c329b95fc1cfE+0xb0>)
   21806:	2103      	movs	r1, #3
   21808:	462a      	mov	r2, r5
   2180a:	462b      	mov	r3, r5
   2180c:	df03      	svc	3
   2180e:	2d00      	cmp	r5, #0
   21810:	d1e7      	bne.n	217e2 <_ZN18complex_no_dynamic3app17h4b47c329b95fc1cfE+0x4e>
   21812:	480c      	ldr	r0, [pc, #48]	@ (21844 <_ZN18complex_no_dynamic3app17h4b47c329b95fc1cfE+0xb0>)
   21814:	2603      	movs	r6, #3
   21816:	2500      	movs	r5, #0
   21818:	4631      	mov	r1, r6
   2181a:	462a      	mov	r2, r5
   2181c:	462b      	mov	r3, r5
   2181e:	df03      	svc	3
   21820:	1c60      	adds	r0, r4, #1
   21822:	a913      	add	r1, sp, #76	@ 0x4c
   21824:	2256      	movs	r2, #86	@ 0x56
   21826:	f006 fa16 	bl	27c56 <__aeabi_memcpy>
   2182a:	7025      	strb	r5, [r4, #0]
   2182c:	4805      	ldr	r0, [pc, #20]	@ (21844 <_ZN18complex_no_dynamic3app17h4b47c329b95fc1cfE+0xb0>)
   2182e:	4631      	mov	r1, r6
   21830:	462a      	mov	r2, r5
   21832:	462b      	mov	r3, r5
   21834:	df03      	svc	3
   21836:	2107      	movs	r1, #7
   21838:	4802      	ldr	r0, [pc, #8]	@ (21844 <_ZN18complex_no_dynamic3app17h4b47c329b95fc1cfE+0xb0>)
   2183a:	462a      	mov	r2, r5
   2183c:	462b      	mov	r3, r5
   2183e:	df04      	svc	4
   21840:	b029      	add	sp, #164	@ 0xa4
   21842:	bdf0      	pop	{r4, r5, r6, r7, pc}
   21844:	00001e50 	.word	0x00001e50

00021848 <_ZN18complex_no_dynamic3app17h4c316d8546f5e95cE>:
   21848:	b5f0      	push	{r4, r5, r6, r7, lr}
   2184a:	af03      	add	r7, sp, #12
   2184c:	b0a3      	sub	sp, #140	@ 0x8c
   2184e:	4604      	mov	r4, r0
   21850:	ad01      	add	r5, sp, #4
   21852:	264f      	movs	r6, #79	@ 0x4f
   21854:	4628      	mov	r0, r5
   21856:	4632      	mov	r2, r6
   21858:	f006 f9fd 	bl	27c56 <__aeabi_memcpy>
   2185c:	a815      	add	r0, sp, #84	@ 0x54
   2185e:	2135      	movs	r1, #53	@ 0x35
   21860:	f006 f84c 	bl	278fc <__aeabi_memclr4>
   21864:	4825      	ldr	r0, [pc, #148]	@ (218fc <_ZN18complex_no_dynamic3app17h4c316d8546f5e95cE+0xb4>)
   21866:	2107      	movs	r1, #7
   21868:	462a      	mov	r2, r5
   2186a:	4633      	mov	r3, r6
   2186c:	df04      	svc	4
   2186e:	2802      	cmp	r0, #2
   21870:	d101      	bne.n	21876 <_ZN18complex_no_dynamic3app17h4c316d8546f5e95cE+0x2e>
   21872:	2501      	movs	r5, #1
   21874:	e016      	b.n	218a4 <_ZN18complex_no_dynamic3app17h4c316d8546f5e95cE+0x5c>
   21876:	4821      	ldr	r0, [pc, #132]	@ (218fc <_ZN18complex_no_dynamic3app17h4c316d8546f5e95cE+0xb4>)
   21878:	2501      	movs	r5, #1
   2187a:	aa15      	add	r2, sp, #84	@ 0x54
   2187c:	2335      	movs	r3, #53	@ 0x35
   2187e:	4629      	mov	r1, r5
   21880:	df03      	svc	3
   21882:	2802      	cmp	r0, #2
   21884:	d00e      	beq.n	218a4 <_ZN18complex_no_dynamic3app17h4c316d8546f5e95cE+0x5c>
   21886:	481d      	ldr	r0, [pc, #116]	@ (218fc <_ZN18complex_no_dynamic3app17h4c316d8546f5e95cE+0xb4>)
   21888:	2107      	movs	r1, #7
   2188a:	2501      	movs	r5, #1
   2188c:	2600      	movs	r6, #0
   2188e:	462a      	mov	r2, r5
   21890:	4633      	mov	r3, r6
   21892:	df02      	svc	2
   21894:	287f      	cmp	r0, #127	@ 0x7f
   21896:	d905      	bls.n	218a4 <_ZN18complex_no_dynamic3app17h4c316d8546f5e95cE+0x5c>
   21898:	4818      	ldr	r0, [pc, #96]	@ (218fc <_ZN18complex_no_dynamic3app17h4c316d8546f5e95cE+0xb4>)
   2189a:	2101      	movs	r1, #1
   2189c:	4632      	mov	r2, r6
   2189e:	4633      	mov	r3, r6
   218a0:	df03      	svc	3
   218a2:	4635      	mov	r5, r6
   218a4:	2d00      	cmp	r5, #0
   218a6:	d010      	beq.n	218ca <_ZN18complex_no_dynamic3app17h4c316d8546f5e95cE+0x82>
   218a8:	2201      	movs	r2, #1
   218aa:	7022      	strb	r2, [r4, #0]
   218ac:	6061      	str	r1, [r4, #4]
   218ae:	4c13      	ldr	r4, [pc, #76]	@ (218fc <_ZN18complex_no_dynamic3app17h4c316d8546f5e95cE+0xb4>)
   218b0:	2500      	movs	r5, #0
   218b2:	4620      	mov	r0, r4
   218b4:	4611      	mov	r1, r2
   218b6:	462a      	mov	r2, r5
   218b8:	462b      	mov	r3, r5
   218ba:	df03      	svc	3
   218bc:	2107      	movs	r1, #7
   218be:	4620      	mov	r0, r4
   218c0:	462a      	mov	r2, r5
   218c2:	462b      	mov	r3, r5
   218c4:	df04      	svc	4
   218c6:	b023      	add	sp, #140	@ 0x8c
   218c8:	bdf0      	pop	{r4, r5, r6, r7, pc}
   218ca:	480c      	ldr	r0, [pc, #48]	@ (218fc <_ZN18complex_no_dynamic3app17h4c316d8546f5e95cE+0xb4>)
   218cc:	2601      	movs	r6, #1
   218ce:	2500      	movs	r5, #0
   218d0:	4631      	mov	r1, r6
   218d2:	462a      	mov	r2, r5
   218d4:	462b      	mov	r3, r5
   218d6:	df03      	svc	3
   218d8:	1c60      	adds	r0, r4, #1
   218da:	a915      	add	r1, sp, #84	@ 0x54
   218dc:	2235      	movs	r2, #53	@ 0x35
   218de:	f006 f9ba 	bl	27c56 <__aeabi_memcpy>
   218e2:	7025      	strb	r5, [r4, #0]
   218e4:	4805      	ldr	r0, [pc, #20]	@ (218fc <_ZN18complex_no_dynamic3app17h4c316d8546f5e95cE+0xb4>)
   218e6:	4631      	mov	r1, r6
   218e8:	462a      	mov	r2, r5
   218ea:	462b      	mov	r3, r5
   218ec:	df03      	svc	3
   218ee:	2107      	movs	r1, #7
   218f0:	4802      	ldr	r0, [pc, #8]	@ (218fc <_ZN18complex_no_dynamic3app17h4c316d8546f5e95cE+0xb4>)
   218f2:	462a      	mov	r2, r5
   218f4:	462b      	mov	r3, r5
   218f6:	df04      	svc	4
   218f8:	b023      	add	sp, #140	@ 0x8c
   218fa:	bdf0      	pop	{r4, r5, r6, r7, pc}
   218fc:	000016d7 	.word	0x000016d7

00021900 <_ZN18complex_no_dynamic3app17h4c457cbfd2e4acbaE>:
   21900:	b5f0      	push	{r4, r5, r6, r7, lr}
   21902:	af03      	add	r7, sp, #12
   21904:	b0a1      	sub	sp, #132	@ 0x84
   21906:	4604      	mov	r4, r0
   21908:	ad01      	add	r5, sp, #4
   2190a:	261b      	movs	r6, #27
   2190c:	4628      	mov	r0, r5
   2190e:	4632      	mov	r2, r6
   21910:	f006 f9a1 	bl	27c56 <__aeabi_memcpy>
   21914:	a808      	add	r0, sp, #32
   21916:	2163      	movs	r1, #99	@ 0x63
   21918:	f005 fff0 	bl	278fc <__aeabi_memclr4>
   2191c:	4825      	ldr	r0, [pc, #148]	@ (219b4 <_ZN18complex_no_dynamic3app17h4c457cbfd2e4acbaE+0xb4>)
   2191e:	2103      	movs	r1, #3
   21920:	462a      	mov	r2, r5
   21922:	4633      	mov	r3, r6
   21924:	df04      	svc	4
   21926:	2802      	cmp	r0, #2
   21928:	d00e      	beq.n	21948 <_ZN18complex_no_dynamic3app17h4c457cbfd2e4acbaE+0x48>
   2192a:	4822      	ldr	r0, [pc, #136]	@ (219b4 <_ZN18complex_no_dynamic3app17h4c457cbfd2e4acbaE+0xb4>)
   2192c:	2103      	movs	r1, #3
   2192e:	aa08      	add	r2, sp, #32
   21930:	2363      	movs	r3, #99	@ 0x63
   21932:	df03      	svc	3
   21934:	2802      	cmp	r0, #2
   21936:	d007      	beq.n	21948 <_ZN18complex_no_dynamic3app17h4c457cbfd2e4acbaE+0x48>
   21938:	481e      	ldr	r0, [pc, #120]	@ (219b4 <_ZN18complex_no_dynamic3app17h4c457cbfd2e4acbaE+0xb4>)
   2193a:	2103      	movs	r1, #3
   2193c:	2500      	movs	r5, #0
   2193e:	460a      	mov	r2, r1
   21940:	462b      	mov	r3, r5
   21942:	df02      	svc	2
   21944:	287f      	cmp	r0, #127	@ 0x7f
   21946:	d814      	bhi.n	21972 <_ZN18complex_no_dynamic3app17h4c457cbfd2e4acbaE+0x72>
   21948:	2501      	movs	r5, #1
   2194a:	2d00      	cmp	r5, #0
   2194c:	d018      	beq.n	21980 <_ZN18complex_no_dynamic3app17h4c457cbfd2e4acbaE+0x80>
   2194e:	2001      	movs	r0, #1
   21950:	7020      	strb	r0, [r4, #0]
   21952:	6061      	str	r1, [r4, #4]
   21954:	4c17      	ldr	r4, [pc, #92]	@ (219b4 <_ZN18complex_no_dynamic3app17h4c457cbfd2e4acbaE+0xb4>)
   21956:	2503      	movs	r5, #3
   21958:	2600      	movs	r6, #0
   2195a:	4620      	mov	r0, r4
   2195c:	4629      	mov	r1, r5
   2195e:	4632      	mov	r2, r6
   21960:	4633      	mov	r3, r6
   21962:	df03      	svc	3
   21964:	4620      	mov	r0, r4
   21966:	4629      	mov	r1, r5
   21968:	4632      	mov	r2, r6
   2196a:	4633      	mov	r3, r6
   2196c:	df04      	svc	4
   2196e:	b021      	add	sp, #132	@ 0x84
   21970:	bdf0      	pop	{r4, r5, r6, r7, pc}
   21972:	4810      	ldr	r0, [pc, #64]	@ (219b4 <_ZN18complex_no_dynamic3app17h4c457cbfd2e4acbaE+0xb4>)
   21974:	2103      	movs	r1, #3
   21976:	462a      	mov	r2, r5
   21978:	462b      	mov	r3, r5
   2197a:	df03      	svc	3
   2197c:	2d00      	cmp	r5, #0
   2197e:	d1e6      	bne.n	2194e <_ZN18complex_no_dynamic3app17h4c457cbfd2e4acbaE+0x4e>
   21980:	480c      	ldr	r0, [pc, #48]	@ (219b4 <_ZN18complex_no_dynamic3app17h4c457cbfd2e4acbaE+0xb4>)
   21982:	2603      	movs	r6, #3
   21984:	2500      	movs	r5, #0
   21986:	4631      	mov	r1, r6
   21988:	462a      	mov	r2, r5
   2198a:	462b      	mov	r3, r5
   2198c:	df03      	svc	3
   2198e:	1c60      	adds	r0, r4, #1
   21990:	a908      	add	r1, sp, #32
   21992:	2263      	movs	r2, #99	@ 0x63
   21994:	f006 f95f 	bl	27c56 <__aeabi_memcpy>
   21998:	7025      	strb	r5, [r4, #0]
   2199a:	4806      	ldr	r0, [pc, #24]	@ (219b4 <_ZN18complex_no_dynamic3app17h4c457cbfd2e4acbaE+0xb4>)
   2199c:	4631      	mov	r1, r6
   2199e:	462a      	mov	r2, r5
   219a0:	462b      	mov	r3, r5
   219a2:	df03      	svc	3
   219a4:	4803      	ldr	r0, [pc, #12]	@ (219b4 <_ZN18complex_no_dynamic3app17h4c457cbfd2e4acbaE+0xb4>)
   219a6:	4631      	mov	r1, r6
   219a8:	462a      	mov	r2, r5
   219aa:	462b      	mov	r3, r5
   219ac:	df04      	svc	4
   219ae:	b021      	add	sp, #132	@ 0x84
   219b0:	bdf0      	pop	{r4, r5, r6, r7, pc}
   219b2:	46c0      	nop			@ (mov r8, r8)
   219b4:	00002548 	.word	0x00002548

000219b8 <_ZN18complex_no_dynamic3app17h5027a9fde69bfaa2E>:
   219b8:	b5f0      	push	{r4, r5, r6, r7, lr}
   219ba:	af03      	add	r7, sp, #12
   219bc:	b099      	sub	sp, #100	@ 0x64
   219be:	9001      	str	r0, [sp, #4]
   219c0:	ac02      	add	r4, sp, #8
   219c2:	2641      	movs	r6, #65	@ 0x41
   219c4:	4620      	mov	r0, r4
   219c6:	4632      	mov	r2, r6
   219c8:	f006 f945 	bl	27c56 <__aeabi_memcpy>
   219cc:	2500      	movs	r5, #0
   219ce:	9518      	str	r5, [sp, #96]	@ 0x60
   219d0:	9517      	str	r5, [sp, #92]	@ 0x5c
   219d2:	9516      	str	r5, [sp, #88]	@ 0x58
   219d4:	9515      	str	r5, [sp, #84]	@ 0x54
   219d6:	9514      	str	r5, [sp, #80]	@ 0x50
   219d8:	9513      	str	r5, [sp, #76]	@ 0x4c
   219da:	4827      	ldr	r0, [pc, #156]	@ (21a78 <_ZN18complex_no_dynamic3app17h5027a9fde69bfaa2E+0xc0>)
   219dc:	2101      	movs	r1, #1
   219de:	9100      	str	r1, [sp, #0]
   219e0:	4622      	mov	r2, r4
   219e2:	4633      	mov	r3, r6
   219e4:	df04      	svc	4
   219e6:	2802      	cmp	r0, #2
   219e8:	d006      	beq.n	219f8 <_ZN18complex_no_dynamic3app17h5027a9fde69bfaa2E+0x40>
   219ea:	4823      	ldr	r0, [pc, #140]	@ (21a78 <_ZN18complex_no_dynamic3app17h5027a9fde69bfaa2E+0xc0>)
   219ec:	2109      	movs	r1, #9
   219ee:	aa13      	add	r2, sp, #76	@ 0x4c
   219f0:	2318      	movs	r3, #24
   219f2:	df03      	svc	3
   219f4:	2802      	cmp	r0, #2
   219f6:	d12e      	bne.n	21a56 <_ZN18complex_no_dynamic3app17h5027a9fde69bfaa2E+0x9e>
   219f8:	9c00      	ldr	r4, [sp, #0]
   219fa:	2c00      	cmp	r4, #0
   219fc:	d011      	beq.n	21a22 <_ZN18complex_no_dynamic3app17h5027a9fde69bfaa2E+0x6a>
   219fe:	2401      	movs	r4, #1
   21a00:	9801      	ldr	r0, [sp, #4]
   21a02:	7004      	strb	r4, [r0, #0]
   21a04:	6041      	str	r1, [r0, #4]
   21a06:	4d1c      	ldr	r5, [pc, #112]	@ (21a78 <_ZN18complex_no_dynamic3app17h5027a9fde69bfaa2E+0xc0>)
   21a08:	2109      	movs	r1, #9
   21a0a:	2600      	movs	r6, #0
   21a0c:	4628      	mov	r0, r5
   21a0e:	4632      	mov	r2, r6
   21a10:	4633      	mov	r3, r6
   21a12:	df03      	svc	3
   21a14:	4628      	mov	r0, r5
   21a16:	4621      	mov	r1, r4
   21a18:	4632      	mov	r2, r6
   21a1a:	4633      	mov	r3, r6
   21a1c:	df04      	svc	4
   21a1e:	b019      	add	sp, #100	@ 0x64
   21a20:	bdf0      	pop	{r4, r5, r6, r7, pc}
   21a22:	4815      	ldr	r0, [pc, #84]	@ (21a78 <_ZN18complex_no_dynamic3app17h5027a9fde69bfaa2E+0xc0>)
   21a24:	2409      	movs	r4, #9
   21a26:	4621      	mov	r1, r4
   21a28:	462a      	mov	r2, r5
   21a2a:	462b      	mov	r3, r5
   21a2c:	df03      	svc	3
   21a2e:	9e01      	ldr	r6, [sp, #4]
   21a30:	1c70      	adds	r0, r6, #1
   21a32:	a913      	add	r1, sp, #76	@ 0x4c
   21a34:	2218      	movs	r2, #24
   21a36:	f006 f90e 	bl	27c56 <__aeabi_memcpy>
   21a3a:	7035      	strb	r5, [r6, #0]
   21a3c:	4e0e      	ldr	r6, [pc, #56]	@ (21a78 <_ZN18complex_no_dynamic3app17h5027a9fde69bfaa2E+0xc0>)
   21a3e:	4630      	mov	r0, r6
   21a40:	4621      	mov	r1, r4
   21a42:	462a      	mov	r2, r5
   21a44:	462b      	mov	r3, r5
   21a46:	df03      	svc	3
   21a48:	2101      	movs	r1, #1
   21a4a:	4630      	mov	r0, r6
   21a4c:	462a      	mov	r2, r5
   21a4e:	462b      	mov	r3, r5
   21a50:	df04      	svc	4
   21a52:	b019      	add	sp, #100	@ 0x64
   21a54:	bdf0      	pop	{r4, r5, r6, r7, pc}
   21a56:	4808      	ldr	r0, [pc, #32]	@ (21a78 <_ZN18complex_no_dynamic3app17h5027a9fde69bfaa2E+0xc0>)
   21a58:	2401      	movs	r4, #1
   21a5a:	2209      	movs	r2, #9
   21a5c:	2600      	movs	r6, #0
   21a5e:	4621      	mov	r1, r4
   21a60:	4633      	mov	r3, r6
   21a62:	df02      	svc	2
   21a64:	287f      	cmp	r0, #127	@ 0x7f
   21a66:	d9c8      	bls.n	219fa <_ZN18complex_no_dynamic3app17h5027a9fde69bfaa2E+0x42>
   21a68:	4803      	ldr	r0, [pc, #12]	@ (21a78 <_ZN18complex_no_dynamic3app17h5027a9fde69bfaa2E+0xc0>)
   21a6a:	2109      	movs	r1, #9
   21a6c:	4632      	mov	r2, r6
   21a6e:	4633      	mov	r3, r6
   21a70:	df03      	svc	3
   21a72:	4634      	mov	r4, r6
   21a74:	e7c1      	b.n	219fa <_ZN18complex_no_dynamic3app17h5027a9fde69bfaa2E+0x42>
   21a76:	46c0      	nop			@ (mov r8, r8)
   21a78:	00002156 	.word	0x00002156

00021a7c <_ZN18complex_no_dynamic3app17h52c0458726900f2cE>:
   21a7c:	b5f0      	push	{r4, r5, r6, r7, lr}
   21a7e:	af03      	add	r7, sp, #12
   21a80:	b09d      	sub	sp, #116	@ 0x74
   21a82:	4604      	mov	r4, r0
   21a84:	ad01      	add	r5, sp, #4
   21a86:	263c      	movs	r6, #60	@ 0x3c
   21a88:	4628      	mov	r0, r5
   21a8a:	4632      	mov	r2, r6
   21a8c:	f006 f8e3 	bl	27c56 <__aeabi_memcpy>
   21a90:	a810      	add	r0, sp, #64	@ 0x40
   21a92:	2132      	movs	r1, #50	@ 0x32
   21a94:	f005 ff32 	bl	278fc <__aeabi_memclr4>
   21a98:	4824      	ldr	r0, [pc, #144]	@ (21b2c <_ZN18complex_no_dynamic3app17h52c0458726900f2cE+0xb0>)
   21a9a:	2106      	movs	r1, #6
   21a9c:	462a      	mov	r2, r5
   21a9e:	4633      	mov	r3, r6
   21aa0:	df04      	svc	4
   21aa2:	2802      	cmp	r0, #2
   21aa4:	d00e      	beq.n	21ac4 <_ZN18complex_no_dynamic3app17h52c0458726900f2cE+0x48>
   21aa6:	4821      	ldr	r0, [pc, #132]	@ (21b2c <_ZN18complex_no_dynamic3app17h52c0458726900f2cE+0xb0>)
   21aa8:	2108      	movs	r1, #8
   21aaa:	aa10      	add	r2, sp, #64	@ 0x40
   21aac:	2332      	movs	r3, #50	@ 0x32
   21aae:	df03      	svc	3
   21ab0:	2802      	cmp	r0, #2
   21ab2:	d007      	beq.n	21ac4 <_ZN18complex_no_dynamic3app17h52c0458726900f2cE+0x48>
   21ab4:	481d      	ldr	r0, [pc, #116]	@ (21b2c <_ZN18complex_no_dynamic3app17h52c0458726900f2cE+0xb0>)
   21ab6:	2106      	movs	r1, #6
   21ab8:	2208      	movs	r2, #8
   21aba:	2500      	movs	r5, #0
   21abc:	462b      	mov	r3, r5
   21abe:	df02      	svc	2
   21ac0:	287f      	cmp	r0, #127	@ 0x7f
   21ac2:	d813      	bhi.n	21aec <_ZN18complex_no_dynamic3app17h52c0458726900f2cE+0x70>
   21ac4:	2501      	movs	r5, #1
   21ac6:	2d00      	cmp	r5, #0
   21ac8:	d017      	beq.n	21afa <_ZN18complex_no_dynamic3app17h52c0458726900f2cE+0x7e>
   21aca:	2001      	movs	r0, #1
   21acc:	7020      	strb	r0, [r4, #0]
   21ace:	6061      	str	r1, [r4, #4]
   21ad0:	4c16      	ldr	r4, [pc, #88]	@ (21b2c <_ZN18complex_no_dynamic3app17h52c0458726900f2cE+0xb0>)
   21ad2:	2108      	movs	r1, #8
   21ad4:	2500      	movs	r5, #0
   21ad6:	4620      	mov	r0, r4
   21ad8:	462a      	mov	r2, r5
   21ada:	462b      	mov	r3, r5
   21adc:	df03      	svc	3
   21ade:	2106      	movs	r1, #6
   21ae0:	4620      	mov	r0, r4
   21ae2:	462a      	mov	r2, r5
   21ae4:	462b      	mov	r3, r5
   21ae6:	df04      	svc	4
   21ae8:	b01d      	add	sp, #116	@ 0x74
   21aea:	bdf0      	pop	{r4, r5, r6, r7, pc}
   21aec:	480f      	ldr	r0, [pc, #60]	@ (21b2c <_ZN18complex_no_dynamic3app17h52c0458726900f2cE+0xb0>)
   21aee:	2108      	movs	r1, #8
   21af0:	462a      	mov	r2, r5
   21af2:	462b      	mov	r3, r5
   21af4:	df03      	svc	3
   21af6:	2d00      	cmp	r5, #0
   21af8:	d1e7      	bne.n	21aca <_ZN18complex_no_dynamic3app17h52c0458726900f2cE+0x4e>
   21afa:	480c      	ldr	r0, [pc, #48]	@ (21b2c <_ZN18complex_no_dynamic3app17h52c0458726900f2cE+0xb0>)
   21afc:	2608      	movs	r6, #8
   21afe:	2500      	movs	r5, #0
   21b00:	4631      	mov	r1, r6
   21b02:	462a      	mov	r2, r5
   21b04:	462b      	mov	r3, r5
   21b06:	df03      	svc	3
   21b08:	1c60      	adds	r0, r4, #1
   21b0a:	a910      	add	r1, sp, #64	@ 0x40
   21b0c:	2232      	movs	r2, #50	@ 0x32
   21b0e:	f006 f8a2 	bl	27c56 <__aeabi_memcpy>
   21b12:	7025      	strb	r5, [r4, #0]
   21b14:	4805      	ldr	r0, [pc, #20]	@ (21b2c <_ZN18complex_no_dynamic3app17h52c0458726900f2cE+0xb0>)
   21b16:	4631      	mov	r1, r6
   21b18:	462a      	mov	r2, r5
   21b1a:	462b      	mov	r3, r5
   21b1c:	df03      	svc	3
   21b1e:	2106      	movs	r1, #6
   21b20:	4802      	ldr	r0, [pc, #8]	@ (21b2c <_ZN18complex_no_dynamic3app17h52c0458726900f2cE+0xb0>)
   21b22:	462a      	mov	r2, r5
   21b24:	462b      	mov	r3, r5
   21b26:	df04      	svc	4
   21b28:	b01d      	add	sp, #116	@ 0x74
   21b2a:	bdf0      	pop	{r4, r5, r6, r7, pc}
   21b2c:	00001b1e 	.word	0x00001b1e

00021b30 <_ZN18complex_no_dynamic3app17h547aefc700a3168bE>:
   21b30:	b5f0      	push	{r4, r5, r6, r7, lr}
   21b32:	af03      	add	r7, sp, #12
   21b34:	b0af      	sub	sp, #188	@ 0xbc
   21b36:	4604      	mov	r4, r0
   21b38:	ad01      	add	r5, sp, #4
   21b3a:	265e      	movs	r6, #94	@ 0x5e
   21b3c:	4628      	mov	r0, r5
   21b3e:	4632      	mov	r2, r6
   21b40:	f006 f889 	bl	27c56 <__aeabi_memcpy>
   21b44:	a819      	add	r0, sp, #100	@ 0x64
   21b46:	2155      	movs	r1, #85	@ 0x55
   21b48:	f005 fed8 	bl	278fc <__aeabi_memclr4>
   21b4c:	4824      	ldr	r0, [pc, #144]	@ (21be0 <_ZN18complex_no_dynamic3app17h547aefc700a3168bE+0xb0>)
   21b4e:	2107      	movs	r1, #7
   21b50:	462a      	mov	r2, r5
   21b52:	4633      	mov	r3, r6
   21b54:	df04      	svc	4
   21b56:	2802      	cmp	r0, #2
   21b58:	d00e      	beq.n	21b78 <_ZN18complex_no_dynamic3app17h547aefc700a3168bE+0x48>
   21b5a:	4821      	ldr	r0, [pc, #132]	@ (21be0 <_ZN18complex_no_dynamic3app17h547aefc700a3168bE+0xb0>)
   21b5c:	2103      	movs	r1, #3
   21b5e:	aa19      	add	r2, sp, #100	@ 0x64
   21b60:	2355      	movs	r3, #85	@ 0x55
   21b62:	df03      	svc	3
   21b64:	2802      	cmp	r0, #2
   21b66:	d007      	beq.n	21b78 <_ZN18complex_no_dynamic3app17h547aefc700a3168bE+0x48>
   21b68:	481d      	ldr	r0, [pc, #116]	@ (21be0 <_ZN18complex_no_dynamic3app17h547aefc700a3168bE+0xb0>)
   21b6a:	2107      	movs	r1, #7
   21b6c:	2203      	movs	r2, #3
   21b6e:	2500      	movs	r5, #0
   21b70:	462b      	mov	r3, r5
   21b72:	df02      	svc	2
   21b74:	287f      	cmp	r0, #127	@ 0x7f
   21b76:	d813      	bhi.n	21ba0 <_ZN18complex_no_dynamic3app17h547aefc700a3168bE+0x70>
   21b78:	2501      	movs	r5, #1
   21b7a:	2d00      	cmp	r5, #0
   21b7c:	d017      	beq.n	21bae <_ZN18complex_no_dynamic3app17h547aefc700a3168bE+0x7e>
   21b7e:	2001      	movs	r0, #1
   21b80:	7020      	strb	r0, [r4, #0]
   21b82:	6061      	str	r1, [r4, #4]
   21b84:	4c16      	ldr	r4, [pc, #88]	@ (21be0 <_ZN18complex_no_dynamic3app17h547aefc700a3168bE+0xb0>)
   21b86:	2103      	movs	r1, #3
   21b88:	2500      	movs	r5, #0
   21b8a:	4620      	mov	r0, r4
   21b8c:	462a      	mov	r2, r5
   21b8e:	462b      	mov	r3, r5
   21b90:	df03      	svc	3
   21b92:	2107      	movs	r1, #7
   21b94:	4620      	mov	r0, r4
   21b96:	462a      	mov	r2, r5
   21b98:	462b      	mov	r3, r5
   21b9a:	df04      	svc	4
   21b9c:	b02f      	add	sp, #188	@ 0xbc
   21b9e:	bdf0      	pop	{r4, r5, r6, r7, pc}
   21ba0:	480f      	ldr	r0, [pc, #60]	@ (21be0 <_ZN18complex_no_dynamic3app17h547aefc700a3168bE+0xb0>)
   21ba2:	2103      	movs	r1, #3
   21ba4:	462a      	mov	r2, r5
   21ba6:	462b      	mov	r3, r5
   21ba8:	df03      	svc	3
   21baa:	2d00      	cmp	r5, #0
   21bac:	d1e7      	bne.n	21b7e <_ZN18complex_no_dynamic3app17h547aefc700a3168bE+0x4e>
   21bae:	480c      	ldr	r0, [pc, #48]	@ (21be0 <_ZN18complex_no_dynamic3app17h547aefc700a3168bE+0xb0>)
   21bb0:	2603      	movs	r6, #3
   21bb2:	2500      	movs	r5, #0
   21bb4:	4631      	mov	r1, r6
   21bb6:	462a      	mov	r2, r5
   21bb8:	462b      	mov	r3, r5
   21bba:	df03      	svc	3
   21bbc:	1c60      	adds	r0, r4, #1
   21bbe:	a919      	add	r1, sp, #100	@ 0x64
   21bc0:	2255      	movs	r2, #85	@ 0x55
   21bc2:	f006 f848 	bl	27c56 <__aeabi_memcpy>
   21bc6:	7025      	strb	r5, [r4, #0]
   21bc8:	4805      	ldr	r0, [pc, #20]	@ (21be0 <_ZN18complex_no_dynamic3app17h547aefc700a3168bE+0xb0>)
   21bca:	4631      	mov	r1, r6
   21bcc:	462a      	mov	r2, r5
   21bce:	462b      	mov	r3, r5
   21bd0:	df03      	svc	3
   21bd2:	2107      	movs	r1, #7
   21bd4:	4802      	ldr	r0, [pc, #8]	@ (21be0 <_ZN18complex_no_dynamic3app17h547aefc700a3168bE+0xb0>)
   21bd6:	462a      	mov	r2, r5
   21bd8:	462b      	mov	r3, r5
   21bda:	df04      	svc	4
   21bdc:	b02f      	add	sp, #188	@ 0xbc
   21bde:	bdf0      	pop	{r4, r5, r6, r7, pc}
   21be0:	0000178a 	.word	0x0000178a

00021be4 <_ZN18complex_no_dynamic3app17h56b709fdb010a657E>:
   21be4:	b5f0      	push	{r4, r5, r6, r7, lr}
   21be6:	af03      	add	r7, sp, #12
   21be8:	b09b      	sub	sp, #108	@ 0x6c
   21bea:	4604      	mov	r4, r0
   21bec:	466d      	mov	r5, sp
   21bee:	2636      	movs	r6, #54	@ 0x36
   21bf0:	4628      	mov	r0, r5
   21bf2:	4632      	mov	r2, r6
   21bf4:	f006 f82f 	bl	27c56 <__aeabi_memcpy>
   21bf8:	a80e      	add	r0, sp, #56	@ 0x38
   21bfa:	2134      	movs	r1, #52	@ 0x34
   21bfc:	f005 fe7e 	bl	278fc <__aeabi_memclr4>
   21c00:	4824      	ldr	r0, [pc, #144]	@ (21c94 <_ZN18complex_no_dynamic3app17h56b709fdb010a657E+0xb0>)
   21c02:	2104      	movs	r1, #4
   21c04:	462a      	mov	r2, r5
   21c06:	4633      	mov	r3, r6
   21c08:	df04      	svc	4
   21c0a:	2802      	cmp	r0, #2
   21c0c:	d00e      	beq.n	21c2c <_ZN18complex_no_dynamic3app17h56b709fdb010a657E+0x48>
   21c0e:	4821      	ldr	r0, [pc, #132]	@ (21c94 <_ZN18complex_no_dynamic3app17h56b709fdb010a657E+0xb0>)
   21c10:	2102      	movs	r1, #2
   21c12:	aa0e      	add	r2, sp, #56	@ 0x38
   21c14:	2334      	movs	r3, #52	@ 0x34
   21c16:	df03      	svc	3
   21c18:	2802      	cmp	r0, #2
   21c1a:	d007      	beq.n	21c2c <_ZN18complex_no_dynamic3app17h56b709fdb010a657E+0x48>
   21c1c:	481d      	ldr	r0, [pc, #116]	@ (21c94 <_ZN18complex_no_dynamic3app17h56b709fdb010a657E+0xb0>)
   21c1e:	2104      	movs	r1, #4
   21c20:	2202      	movs	r2, #2
   21c22:	2500      	movs	r5, #0
   21c24:	462b      	mov	r3, r5
   21c26:	df02      	svc	2
   21c28:	287f      	cmp	r0, #127	@ 0x7f
   21c2a:	d813      	bhi.n	21c54 <_ZN18complex_no_dynamic3app17h56b709fdb010a657E+0x70>
   21c2c:	2501      	movs	r5, #1
   21c2e:	2d00      	cmp	r5, #0
   21c30:	d017      	beq.n	21c62 <_ZN18complex_no_dynamic3app17h56b709fdb010a657E+0x7e>
   21c32:	2001      	movs	r0, #1
   21c34:	7020      	strb	r0, [r4, #0]
   21c36:	6061      	str	r1, [r4, #4]
   21c38:	4c16      	ldr	r4, [pc, #88]	@ (21c94 <_ZN18complex_no_dynamic3app17h56b709fdb010a657E+0xb0>)
   21c3a:	2102      	movs	r1, #2
   21c3c:	2500      	movs	r5, #0
   21c3e:	4620      	mov	r0, r4
   21c40:	462a      	mov	r2, r5
   21c42:	462b      	mov	r3, r5
   21c44:	df03      	svc	3
   21c46:	2104      	movs	r1, #4
   21c48:	4620      	mov	r0, r4
   21c4a:	462a      	mov	r2, r5
   21c4c:	462b      	mov	r3, r5
   21c4e:	df04      	svc	4
   21c50:	b01b      	add	sp, #108	@ 0x6c
   21c52:	bdf0      	pop	{r4, r5, r6, r7, pc}
   21c54:	480f      	ldr	r0, [pc, #60]	@ (21c94 <_ZN18complex_no_dynamic3app17h56b709fdb010a657E+0xb0>)
   21c56:	2102      	movs	r1, #2
   21c58:	462a      	mov	r2, r5
   21c5a:	462b      	mov	r3, r5
   21c5c:	df03      	svc	3
   21c5e:	2d00      	cmp	r5, #0
   21c60:	d1e7      	bne.n	21c32 <_ZN18complex_no_dynamic3app17h56b709fdb010a657E+0x4e>
   21c62:	480c      	ldr	r0, [pc, #48]	@ (21c94 <_ZN18complex_no_dynamic3app17h56b709fdb010a657E+0xb0>)
   21c64:	2602      	movs	r6, #2
   21c66:	2500      	movs	r5, #0
   21c68:	4631      	mov	r1, r6
   21c6a:	462a      	mov	r2, r5
   21c6c:	462b      	mov	r3, r5
   21c6e:	df03      	svc	3
   21c70:	1c60      	adds	r0, r4, #1
   21c72:	a90e      	add	r1, sp, #56	@ 0x38
   21c74:	2234      	movs	r2, #52	@ 0x34
   21c76:	f005 ffee 	bl	27c56 <__aeabi_memcpy>
   21c7a:	7025      	strb	r5, [r4, #0]
   21c7c:	4805      	ldr	r0, [pc, #20]	@ (21c94 <_ZN18complex_no_dynamic3app17h56b709fdb010a657E+0xb0>)
   21c7e:	4631      	mov	r1, r6
   21c80:	462a      	mov	r2, r5
   21c82:	462b      	mov	r3, r5
   21c84:	df03      	svc	3
   21c86:	2104      	movs	r1, #4
   21c88:	4802      	ldr	r0, [pc, #8]	@ (21c94 <_ZN18complex_no_dynamic3app17h56b709fdb010a657E+0xb0>)
   21c8a:	462a      	mov	r2, r5
   21c8c:	462b      	mov	r3, r5
   21c8e:	df04      	svc	4
   21c90:	b01b      	add	sp, #108	@ 0x6c
   21c92:	bdf0      	pop	{r4, r5, r6, r7, pc}
   21c94:	000023c6 	.word	0x000023c6

00021c98 <_ZN18complex_no_dynamic3app17h59323add5a0e6742E>:
   21c98:	b5f0      	push	{r4, r5, r6, r7, lr}
   21c9a:	af03      	add	r7, sp, #12
   21c9c:	b09b      	sub	sp, #108	@ 0x6c
   21c9e:	4604      	mov	r4, r0
   21ca0:	ad01      	add	r5, sp, #4
   21ca2:	263c      	movs	r6, #60	@ 0x3c
   21ca4:	4628      	mov	r0, r5
   21ca6:	4632      	mov	r2, r6
   21ca8:	f005 ffd5 	bl	27c56 <__aeabi_memcpy>
   21cac:	a810      	add	r0, sp, #64	@ 0x40
   21cae:	212c      	movs	r1, #44	@ 0x2c
   21cb0:	f005 fe24 	bl	278fc <__aeabi_memclr4>
   21cb4:	4824      	ldr	r0, [pc, #144]	@ (21d48 <_ZN18complex_no_dynamic3app17h59323add5a0e6742E+0xb0>)
   21cb6:	2105      	movs	r1, #5
   21cb8:	462a      	mov	r2, r5
   21cba:	4633      	mov	r3, r6
   21cbc:	df04      	svc	4
   21cbe:	2802      	cmp	r0, #2
   21cc0:	d00e      	beq.n	21ce0 <_ZN18complex_no_dynamic3app17h59323add5a0e6742E+0x48>
   21cc2:	4821      	ldr	r0, [pc, #132]	@ (21d48 <_ZN18complex_no_dynamic3app17h59323add5a0e6742E+0xb0>)
   21cc4:	2107      	movs	r1, #7
   21cc6:	aa10      	add	r2, sp, #64	@ 0x40
   21cc8:	232c      	movs	r3, #44	@ 0x2c
   21cca:	df03      	svc	3
   21ccc:	2802      	cmp	r0, #2
   21cce:	d007      	beq.n	21ce0 <_ZN18complex_no_dynamic3app17h59323add5a0e6742E+0x48>
   21cd0:	481d      	ldr	r0, [pc, #116]	@ (21d48 <_ZN18complex_no_dynamic3app17h59323add5a0e6742E+0xb0>)
   21cd2:	2105      	movs	r1, #5
   21cd4:	2207      	movs	r2, #7
   21cd6:	2500      	movs	r5, #0
   21cd8:	462b      	mov	r3, r5
   21cda:	df02      	svc	2
   21cdc:	287f      	cmp	r0, #127	@ 0x7f
   21cde:	d813      	bhi.n	21d08 <_ZN18complex_no_dynamic3app17h59323add5a0e6742E+0x70>
   21ce0:	2501      	movs	r5, #1
   21ce2:	2d00      	cmp	r5, #0
   21ce4:	d017      	beq.n	21d16 <_ZN18complex_no_dynamic3app17h59323add5a0e6742E+0x7e>
   21ce6:	2001      	movs	r0, #1
   21ce8:	7020      	strb	r0, [r4, #0]
   21cea:	6061      	str	r1, [r4, #4]
   21cec:	4c16      	ldr	r4, [pc, #88]	@ (21d48 <_ZN18complex_no_dynamic3app17h59323add5a0e6742E+0xb0>)
   21cee:	2107      	movs	r1, #7
   21cf0:	2500      	movs	r5, #0
   21cf2:	4620      	mov	r0, r4
   21cf4:	462a      	mov	r2, r5
   21cf6:	462b      	mov	r3, r5
   21cf8:	df03      	svc	3
   21cfa:	2105      	movs	r1, #5
   21cfc:	4620      	mov	r0, r4
   21cfe:	462a      	mov	r2, r5
   21d00:	462b      	mov	r3, r5
   21d02:	df04      	svc	4
   21d04:	b01b      	add	sp, #108	@ 0x6c
   21d06:	bdf0      	pop	{r4, r5, r6, r7, pc}
   21d08:	480f      	ldr	r0, [pc, #60]	@ (21d48 <_ZN18complex_no_dynamic3app17h59323add5a0e6742E+0xb0>)
   21d0a:	2107      	movs	r1, #7
   21d0c:	462a      	mov	r2, r5
   21d0e:	462b      	mov	r3, r5
   21d10:	df03      	svc	3
   21d12:	2d00      	cmp	r5, #0
   21d14:	d1e7      	bne.n	21ce6 <_ZN18complex_no_dynamic3app17h59323add5a0e6742E+0x4e>
   21d16:	480c      	ldr	r0, [pc, #48]	@ (21d48 <_ZN18complex_no_dynamic3app17h59323add5a0e6742E+0xb0>)
   21d18:	2607      	movs	r6, #7
   21d1a:	2500      	movs	r5, #0
   21d1c:	4631      	mov	r1, r6
   21d1e:	462a      	mov	r2, r5
   21d20:	462b      	mov	r3, r5
   21d22:	df03      	svc	3
   21d24:	1c60      	adds	r0, r4, #1
   21d26:	a910      	add	r1, sp, #64	@ 0x40
   21d28:	222c      	movs	r2, #44	@ 0x2c
   21d2a:	f005 ff94 	bl	27c56 <__aeabi_memcpy>
   21d2e:	7025      	strb	r5, [r4, #0]
   21d30:	4805      	ldr	r0, [pc, #20]	@ (21d48 <_ZN18complex_no_dynamic3app17h59323add5a0e6742E+0xb0>)
   21d32:	4631      	mov	r1, r6
   21d34:	462a      	mov	r2, r5
   21d36:	462b      	mov	r3, r5
   21d38:	df03      	svc	3
   21d3a:	2105      	movs	r1, #5
   21d3c:	4802      	ldr	r0, [pc, #8]	@ (21d48 <_ZN18complex_no_dynamic3app17h59323add5a0e6742E+0xb0>)
   21d3e:	462a      	mov	r2, r5
   21d40:	462b      	mov	r3, r5
   21d42:	df04      	svc	4
   21d44:	b01b      	add	sp, #108	@ 0x6c
   21d46:	bdf0      	pop	{r4, r5, r6, r7, pc}
   21d48:	00001eac 	.word	0x00001eac

00021d4c <_ZN18complex_no_dynamic3app17h5d15ea7ef6fb2d59E>:
   21d4c:	b5f0      	push	{r4, r5, r6, r7, lr}
   21d4e:	af03      	add	r7, sp, #12
   21d50:	b0a9      	sub	sp, #164	@ 0xa4
   21d52:	4604      	mov	r4, r0
   21d54:	466d      	mov	r5, sp
   21d56:	2653      	movs	r6, #83	@ 0x53
   21d58:	4628      	mov	r0, r5
   21d5a:	4632      	mov	r2, r6
   21d5c:	f005 ff7b 	bl	27c56 <__aeabi_memcpy>
   21d60:	a815      	add	r0, sp, #84	@ 0x54
   21d62:	214d      	movs	r1, #77	@ 0x4d
   21d64:	f005 fdca 	bl	278fc <__aeabi_memclr4>
   21d68:	4824      	ldr	r0, [pc, #144]	@ (21dfc <_ZN18complex_no_dynamic3app17h5d15ea7ef6fb2d59E+0xb0>)
   21d6a:	2109      	movs	r1, #9
   21d6c:	462a      	mov	r2, r5
   21d6e:	4633      	mov	r3, r6
   21d70:	df04      	svc	4
   21d72:	2802      	cmp	r0, #2
   21d74:	d00e      	beq.n	21d94 <_ZN18complex_no_dynamic3app17h5d15ea7ef6fb2d59E+0x48>
   21d76:	4821      	ldr	r0, [pc, #132]	@ (21dfc <_ZN18complex_no_dynamic3app17h5d15ea7ef6fb2d59E+0xb0>)
   21d78:	2104      	movs	r1, #4
   21d7a:	aa15      	add	r2, sp, #84	@ 0x54
   21d7c:	234d      	movs	r3, #77	@ 0x4d
   21d7e:	df03      	svc	3
   21d80:	2802      	cmp	r0, #2
   21d82:	d007      	beq.n	21d94 <_ZN18complex_no_dynamic3app17h5d15ea7ef6fb2d59E+0x48>
   21d84:	481d      	ldr	r0, [pc, #116]	@ (21dfc <_ZN18complex_no_dynamic3app17h5d15ea7ef6fb2d59E+0xb0>)
   21d86:	2109      	movs	r1, #9
   21d88:	2204      	movs	r2, #4
   21d8a:	2500      	movs	r5, #0
   21d8c:	462b      	mov	r3, r5
   21d8e:	df02      	svc	2
   21d90:	287f      	cmp	r0, #127	@ 0x7f
   21d92:	d813      	bhi.n	21dbc <_ZN18complex_no_dynamic3app17h5d15ea7ef6fb2d59E+0x70>
   21d94:	2501      	movs	r5, #1
   21d96:	2d00      	cmp	r5, #0
   21d98:	d017      	beq.n	21dca <_ZN18complex_no_dynamic3app17h5d15ea7ef6fb2d59E+0x7e>
   21d9a:	2001      	movs	r0, #1
   21d9c:	7020      	strb	r0, [r4, #0]
   21d9e:	6061      	str	r1, [r4, #4]
   21da0:	4c16      	ldr	r4, [pc, #88]	@ (21dfc <_ZN18complex_no_dynamic3app17h5d15ea7ef6fb2d59E+0xb0>)
   21da2:	2104      	movs	r1, #4
   21da4:	2500      	movs	r5, #0
   21da6:	4620      	mov	r0, r4
   21da8:	462a      	mov	r2, r5
   21daa:	462b      	mov	r3, r5
   21dac:	df03      	svc	3
   21dae:	2109      	movs	r1, #9
   21db0:	4620      	mov	r0, r4
   21db2:	462a      	mov	r2, r5
   21db4:	462b      	mov	r3, r5
   21db6:	df04      	svc	4
   21db8:	b029      	add	sp, #164	@ 0xa4
   21dba:	bdf0      	pop	{r4, r5, r6, r7, pc}
   21dbc:	480f      	ldr	r0, [pc, #60]	@ (21dfc <_ZN18complex_no_dynamic3app17h5d15ea7ef6fb2d59E+0xb0>)
   21dbe:	2104      	movs	r1, #4
   21dc0:	462a      	mov	r2, r5
   21dc2:	462b      	mov	r3, r5
   21dc4:	df03      	svc	3
   21dc6:	2d00      	cmp	r5, #0
   21dc8:	d1e7      	bne.n	21d9a <_ZN18complex_no_dynamic3app17h5d15ea7ef6fb2d59E+0x4e>
   21dca:	480c      	ldr	r0, [pc, #48]	@ (21dfc <_ZN18complex_no_dynamic3app17h5d15ea7ef6fb2d59E+0xb0>)
   21dcc:	2604      	movs	r6, #4
   21dce:	2500      	movs	r5, #0
   21dd0:	4631      	mov	r1, r6
   21dd2:	462a      	mov	r2, r5
   21dd4:	462b      	mov	r3, r5
   21dd6:	df03      	svc	3
   21dd8:	1c60      	adds	r0, r4, #1
   21dda:	a915      	add	r1, sp, #84	@ 0x54
   21ddc:	224d      	movs	r2, #77	@ 0x4d
   21dde:	f005 ff3a 	bl	27c56 <__aeabi_memcpy>
   21de2:	7025      	strb	r5, [r4, #0]
   21de4:	4805      	ldr	r0, [pc, #20]	@ (21dfc <_ZN18complex_no_dynamic3app17h5d15ea7ef6fb2d59E+0xb0>)
   21de6:	4631      	mov	r1, r6
   21de8:	462a      	mov	r2, r5
   21dea:	462b      	mov	r3, r5
   21dec:	df03      	svc	3
   21dee:	2109      	movs	r1, #9
   21df0:	4802      	ldr	r0, [pc, #8]	@ (21dfc <_ZN18complex_no_dynamic3app17h5d15ea7ef6fb2d59E+0xb0>)
   21df2:	462a      	mov	r2, r5
   21df4:	462b      	mov	r3, r5
   21df6:	df04      	svc	4
   21df8:	b029      	add	sp, #164	@ 0xa4
   21dfa:	bdf0      	pop	{r4, r5, r6, r7, pc}
   21dfc:	000016ba 	.word	0x000016ba

00021e00 <_ZN18complex_no_dynamic3app17h5f680c0b23dc7332E>:
   21e00:	b5f0      	push	{r4, r5, r6, r7, lr}
   21e02:	af03      	add	r7, sp, #12
   21e04:	b099      	sub	sp, #100	@ 0x64
   21e06:	4604      	mov	r4, r0
   21e08:	466d      	mov	r5, sp
   21e0a:	2611      	movs	r6, #17
   21e0c:	4628      	mov	r0, r5
   21e0e:	4632      	mov	r2, r6
   21e10:	f005 ff21 	bl	27c56 <__aeabi_memcpy>
   21e14:	a805      	add	r0, sp, #20
   21e16:	2150      	movs	r1, #80	@ 0x50
   21e18:	f005 fd70 	bl	278fc <__aeabi_memclr4>
   21e1c:	4824      	ldr	r0, [pc, #144]	@ (21eb0 <_ZN18complex_no_dynamic3app17h5f680c0b23dc7332E+0xb0>)
   21e1e:	2106      	movs	r1, #6
   21e20:	462a      	mov	r2, r5
   21e22:	4633      	mov	r3, r6
   21e24:	df04      	svc	4
   21e26:	2802      	cmp	r0, #2
   21e28:	d00e      	beq.n	21e48 <_ZN18complex_no_dynamic3app17h5f680c0b23dc7332E+0x48>
   21e2a:	4821      	ldr	r0, [pc, #132]	@ (21eb0 <_ZN18complex_no_dynamic3app17h5f680c0b23dc7332E+0xb0>)
   21e2c:	2105      	movs	r1, #5
   21e2e:	aa05      	add	r2, sp, #20
   21e30:	2350      	movs	r3, #80	@ 0x50
   21e32:	df03      	svc	3
   21e34:	2802      	cmp	r0, #2
   21e36:	d007      	beq.n	21e48 <_ZN18complex_no_dynamic3app17h5f680c0b23dc7332E+0x48>
   21e38:	481d      	ldr	r0, [pc, #116]	@ (21eb0 <_ZN18complex_no_dynamic3app17h5f680c0b23dc7332E+0xb0>)
   21e3a:	2106      	movs	r1, #6
   21e3c:	2205      	movs	r2, #5
   21e3e:	2500      	movs	r5, #0
   21e40:	462b      	mov	r3, r5
   21e42:	df02      	svc	2
   21e44:	287f      	cmp	r0, #127	@ 0x7f
   21e46:	d813      	bhi.n	21e70 <_ZN18complex_no_dynamic3app17h5f680c0b23dc7332E+0x70>
   21e48:	2501      	movs	r5, #1
   21e4a:	2d00      	cmp	r5, #0
   21e4c:	d017      	beq.n	21e7e <_ZN18complex_no_dynamic3app17h5f680c0b23dc7332E+0x7e>
   21e4e:	2001      	movs	r0, #1
   21e50:	7020      	strb	r0, [r4, #0]
   21e52:	6061      	str	r1, [r4, #4]
   21e54:	4c16      	ldr	r4, [pc, #88]	@ (21eb0 <_ZN18complex_no_dynamic3app17h5f680c0b23dc7332E+0xb0>)
   21e56:	2105      	movs	r1, #5
   21e58:	2500      	movs	r5, #0
   21e5a:	4620      	mov	r0, r4
   21e5c:	462a      	mov	r2, r5
   21e5e:	462b      	mov	r3, r5
   21e60:	df03      	svc	3
   21e62:	2106      	movs	r1, #6
   21e64:	4620      	mov	r0, r4
   21e66:	462a      	mov	r2, r5
   21e68:	462b      	mov	r3, r5
   21e6a:	df04      	svc	4
   21e6c:	b019      	add	sp, #100	@ 0x64
   21e6e:	bdf0      	pop	{r4, r5, r6, r7, pc}
   21e70:	480f      	ldr	r0, [pc, #60]	@ (21eb0 <_ZN18complex_no_dynamic3app17h5f680c0b23dc7332E+0xb0>)
   21e72:	2105      	movs	r1, #5
   21e74:	462a      	mov	r2, r5
   21e76:	462b      	mov	r3, r5
   21e78:	df03      	svc	3
   21e7a:	2d00      	cmp	r5, #0
   21e7c:	d1e7      	bne.n	21e4e <_ZN18complex_no_dynamic3app17h5f680c0b23dc7332E+0x4e>
   21e7e:	480c      	ldr	r0, [pc, #48]	@ (21eb0 <_ZN18complex_no_dynamic3app17h5f680c0b23dc7332E+0xb0>)
   21e80:	2605      	movs	r6, #5
   21e82:	2500      	movs	r5, #0
   21e84:	4631      	mov	r1, r6
   21e86:	462a      	mov	r2, r5
   21e88:	462b      	mov	r3, r5
   21e8a:	df03      	svc	3
   21e8c:	1c60      	adds	r0, r4, #1
   21e8e:	a905      	add	r1, sp, #20
   21e90:	2250      	movs	r2, #80	@ 0x50
   21e92:	f005 fee0 	bl	27c56 <__aeabi_memcpy>
   21e96:	7025      	strb	r5, [r4, #0]
   21e98:	4805      	ldr	r0, [pc, #20]	@ (21eb0 <_ZN18complex_no_dynamic3app17h5f680c0b23dc7332E+0xb0>)
   21e9a:	4631      	mov	r1, r6
   21e9c:	462a      	mov	r2, r5
   21e9e:	462b      	mov	r3, r5
   21ea0:	df03      	svc	3
   21ea2:	2106      	movs	r1, #6
   21ea4:	4802      	ldr	r0, [pc, #8]	@ (21eb0 <_ZN18complex_no_dynamic3app17h5f680c0b23dc7332E+0xb0>)
   21ea6:	462a      	mov	r2, r5
   21ea8:	462b      	mov	r3, r5
   21eaa:	df04      	svc	4
   21eac:	b019      	add	sp, #100	@ 0x64
   21eae:	bdf0      	pop	{r4, r5, r6, r7, pc}
   21eb0:	00001aa9 	.word	0x00001aa9

00021eb4 <_ZN18complex_no_dynamic3app17h6307ad2232c133e8E>:
   21eb4:	b5f0      	push	{r4, r5, r6, r7, lr}
   21eb6:	af03      	add	r7, sp, #12
   21eb8:	b093      	sub	sp, #76	@ 0x4c
   21eba:	9001      	str	r0, [sp, #4]
   21ebc:	ae02      	add	r6, sp, #8
   21ebe:	2432      	movs	r4, #50	@ 0x32
   21ec0:	4630      	mov	r0, r6
   21ec2:	4622      	mov	r2, r4
   21ec4:	f005 fec7 	bl	27c56 <__aeabi_memcpy>
   21ec8:	2500      	movs	r5, #0
   21eca:	9512      	str	r5, [sp, #72]	@ 0x48
   21ecc:	9511      	str	r5, [sp, #68]	@ 0x44
   21ece:	9510      	str	r5, [sp, #64]	@ 0x40
   21ed0:	950f      	str	r5, [sp, #60]	@ 0x3c
   21ed2:	4826      	ldr	r0, [pc, #152]	@ (21f6c <_ZN18complex_no_dynamic3app17h6307ad2232c133e8E+0xb8>)
   21ed4:	2104      	movs	r1, #4
   21ed6:	4632      	mov	r2, r6
   21ed8:	4623      	mov	r3, r4
   21eda:	df04      	svc	4
   21edc:	2802      	cmp	r0, #2
   21ede:	d00e      	beq.n	21efe <_ZN18complex_no_dynamic3app17h6307ad2232c133e8E+0x4a>
   21ee0:	4822      	ldr	r0, [pc, #136]	@ (21f6c <_ZN18complex_no_dynamic3app17h6307ad2232c133e8E+0xb8>)
   21ee2:	2109      	movs	r1, #9
   21ee4:	aa0f      	add	r2, sp, #60	@ 0x3c
   21ee6:	2310      	movs	r3, #16
   21ee8:	df03      	svc	3
   21eea:	2802      	cmp	r0, #2
   21eec:	d007      	beq.n	21efe <_ZN18complex_no_dynamic3app17h6307ad2232c133e8E+0x4a>
   21eee:	481f      	ldr	r0, [pc, #124]	@ (21f6c <_ZN18complex_no_dynamic3app17h6307ad2232c133e8E+0xb8>)
   21ef0:	2104      	movs	r1, #4
   21ef2:	2209      	movs	r2, #9
   21ef4:	2600      	movs	r6, #0
   21ef6:	4633      	mov	r3, r6
   21ef8:	df02      	svc	2
   21efa:	287f      	cmp	r0, #127	@ 0x7f
   21efc:	d814      	bhi.n	21f28 <_ZN18complex_no_dynamic3app17h6307ad2232c133e8E+0x74>
   21efe:	2601      	movs	r6, #1
   21f00:	2e00      	cmp	r6, #0
   21f02:	d018      	beq.n	21f36 <_ZN18complex_no_dynamic3app17h6307ad2232c133e8E+0x82>
   21f04:	2001      	movs	r0, #1
   21f06:	9a01      	ldr	r2, [sp, #4]
   21f08:	7010      	strb	r0, [r2, #0]
   21f0a:	6051      	str	r1, [r2, #4]
   21f0c:	4c17      	ldr	r4, [pc, #92]	@ (21f6c <_ZN18complex_no_dynamic3app17h6307ad2232c133e8E+0xb8>)
   21f0e:	2109      	movs	r1, #9
   21f10:	2500      	movs	r5, #0
   21f12:	4620      	mov	r0, r4
   21f14:	462a      	mov	r2, r5
   21f16:	462b      	mov	r3, r5
   21f18:	df03      	svc	3
   21f1a:	2104      	movs	r1, #4
   21f1c:	4620      	mov	r0, r4
   21f1e:	462a      	mov	r2, r5
   21f20:	462b      	mov	r3, r5
   21f22:	df04      	svc	4
   21f24:	b013      	add	sp, #76	@ 0x4c
   21f26:	bdf0      	pop	{r4, r5, r6, r7, pc}
   21f28:	4810      	ldr	r0, [pc, #64]	@ (21f6c <_ZN18complex_no_dynamic3app17h6307ad2232c133e8E+0xb8>)
   21f2a:	2109      	movs	r1, #9
   21f2c:	4632      	mov	r2, r6
   21f2e:	4633      	mov	r3, r6
   21f30:	df03      	svc	3
   21f32:	2e00      	cmp	r6, #0
   21f34:	d1e6      	bne.n	21f04 <_ZN18complex_no_dynamic3app17h6307ad2232c133e8E+0x50>
   21f36:	480d      	ldr	r0, [pc, #52]	@ (21f6c <_ZN18complex_no_dynamic3app17h6307ad2232c133e8E+0xb8>)
   21f38:	2609      	movs	r6, #9
   21f3a:	4631      	mov	r1, r6
   21f3c:	462a      	mov	r2, r5
   21f3e:	462b      	mov	r3, r5
   21f40:	df03      	svc	3
   21f42:	9c01      	ldr	r4, [sp, #4]
   21f44:	1c60      	adds	r0, r4, #1
   21f46:	a90f      	add	r1, sp, #60	@ 0x3c
   21f48:	2210      	movs	r2, #16
   21f4a:	f005 fe84 	bl	27c56 <__aeabi_memcpy>
   21f4e:	7025      	strb	r5, [r4, #0]
   21f50:	4c06      	ldr	r4, [pc, #24]	@ (21f6c <_ZN18complex_no_dynamic3app17h6307ad2232c133e8E+0xb8>)
   21f52:	4620      	mov	r0, r4
   21f54:	4631      	mov	r1, r6
   21f56:	462a      	mov	r2, r5
   21f58:	462b      	mov	r3, r5
   21f5a:	df03      	svc	3
   21f5c:	2104      	movs	r1, #4
   21f5e:	4620      	mov	r0, r4
   21f60:	462a      	mov	r2, r5
   21f62:	462b      	mov	r3, r5
   21f64:	df04      	svc	4
   21f66:	b013      	add	sp, #76	@ 0x4c
   21f68:	bdf0      	pop	{r4, r5, r6, r7, pc}
   21f6a:	46c0      	nop			@ (mov r8, r8)
   21f6c:	000019d6 	.word	0x000019d6

00021f70 <_ZN18complex_no_dynamic3app17h63ffe376d3bc672fE>:
   21f70:	b5f0      	push	{r4, r5, r6, r7, lr}
   21f72:	af03      	add	r7, sp, #12
   21f74:	b097      	sub	sp, #92	@ 0x5c
   21f76:	9001      	str	r0, [sp, #4]
   21f78:	ae02      	add	r6, sp, #8
   21f7a:	2425      	movs	r4, #37	@ 0x25
   21f7c:	4630      	mov	r0, r6
   21f7e:	4622      	mov	r2, r4
   21f80:	f005 fe69 	bl	27c56 <__aeabi_memcpy>
   21f84:	a80c      	add	r0, sp, #48	@ 0x30
   21f86:	212a      	movs	r1, #42	@ 0x2a
   21f88:	f005 fcb8 	bl	278fc <__aeabi_memclr4>
   21f8c:	4826      	ldr	r0, [pc, #152]	@ (22028 <_ZN18complex_no_dynamic3app17h63ffe376d3bc672fE+0xb8>)
   21f8e:	2500      	movs	r5, #0
   21f90:	4629      	mov	r1, r5
   21f92:	4632      	mov	r2, r6
   21f94:	4623      	mov	r3, r4
   21f96:	df04      	svc	4
   21f98:	2802      	cmp	r0, #2
   21f9a:	d00e      	beq.n	21fba <_ZN18complex_no_dynamic3app17h63ffe376d3bc672fE+0x4a>
   21f9c:	4822      	ldr	r0, [pc, #136]	@ (22028 <_ZN18complex_no_dynamic3app17h63ffe376d3bc672fE+0xb8>)
   21f9e:	2103      	movs	r1, #3
   21fa0:	aa0c      	add	r2, sp, #48	@ 0x30
   21fa2:	232a      	movs	r3, #42	@ 0x2a
   21fa4:	df03      	svc	3
   21fa6:	2802      	cmp	r0, #2
   21fa8:	d007      	beq.n	21fba <_ZN18complex_no_dynamic3app17h63ffe376d3bc672fE+0x4a>
   21faa:	481f      	ldr	r0, [pc, #124]	@ (22028 <_ZN18complex_no_dynamic3app17h63ffe376d3bc672fE+0xb8>)
   21fac:	2203      	movs	r2, #3
   21fae:	2600      	movs	r6, #0
   21fb0:	4631      	mov	r1, r6
   21fb2:	4633      	mov	r3, r6
   21fb4:	df02      	svc	2
   21fb6:	287f      	cmp	r0, #127	@ 0x7f
   21fb8:	d814      	bhi.n	21fe4 <_ZN18complex_no_dynamic3app17h63ffe376d3bc672fE+0x74>
   21fba:	2601      	movs	r6, #1
   21fbc:	2e00      	cmp	r6, #0
   21fbe:	d018      	beq.n	21ff2 <_ZN18complex_no_dynamic3app17h63ffe376d3bc672fE+0x82>
   21fc0:	2001      	movs	r0, #1
   21fc2:	9a01      	ldr	r2, [sp, #4]
   21fc4:	7010      	strb	r0, [r2, #0]
   21fc6:	6051      	str	r1, [r2, #4]
   21fc8:	4c17      	ldr	r4, [pc, #92]	@ (22028 <_ZN18complex_no_dynamic3app17h63ffe376d3bc672fE+0xb8>)
   21fca:	2103      	movs	r1, #3
   21fcc:	2500      	movs	r5, #0
   21fce:	4620      	mov	r0, r4
   21fd0:	462a      	mov	r2, r5
   21fd2:	462b      	mov	r3, r5
   21fd4:	df03      	svc	3
   21fd6:	4620      	mov	r0, r4
   21fd8:	4629      	mov	r1, r5
   21fda:	462a      	mov	r2, r5
   21fdc:	462b      	mov	r3, r5
   21fde:	df04      	svc	4
   21fe0:	b017      	add	sp, #92	@ 0x5c
   21fe2:	bdf0      	pop	{r4, r5, r6, r7, pc}
   21fe4:	4810      	ldr	r0, [pc, #64]	@ (22028 <_ZN18complex_no_dynamic3app17h63ffe376d3bc672fE+0xb8>)
   21fe6:	2103      	movs	r1, #3
   21fe8:	4632      	mov	r2, r6
   21fea:	4633      	mov	r3, r6
   21fec:	df03      	svc	3
   21fee:	2e00      	cmp	r6, #0
   21ff0:	d1e6      	bne.n	21fc0 <_ZN18complex_no_dynamic3app17h63ffe376d3bc672fE+0x50>
   21ff2:	480d      	ldr	r0, [pc, #52]	@ (22028 <_ZN18complex_no_dynamic3app17h63ffe376d3bc672fE+0xb8>)
   21ff4:	2403      	movs	r4, #3
   21ff6:	4621      	mov	r1, r4
   21ff8:	462a      	mov	r2, r5
   21ffa:	462b      	mov	r3, r5
   21ffc:	df03      	svc	3
   21ffe:	9e01      	ldr	r6, [sp, #4]
   22000:	1c70      	adds	r0, r6, #1
   22002:	a90c      	add	r1, sp, #48	@ 0x30
   22004:	222a      	movs	r2, #42	@ 0x2a
   22006:	f005 fe26 	bl	27c56 <__aeabi_memcpy>
   2200a:	7035      	strb	r5, [r6, #0]
   2200c:	4e06      	ldr	r6, [pc, #24]	@ (22028 <_ZN18complex_no_dynamic3app17h63ffe376d3bc672fE+0xb8>)
   2200e:	4630      	mov	r0, r6
   22010:	4621      	mov	r1, r4
   22012:	462a      	mov	r2, r5
   22014:	462b      	mov	r3, r5
   22016:	df03      	svc	3
   22018:	4630      	mov	r0, r6
   2201a:	4629      	mov	r1, r5
   2201c:	462a      	mov	r2, r5
   2201e:	462b      	mov	r3, r5
   22020:	df04      	svc	4
   22022:	b017      	add	sp, #92	@ 0x5c
   22024:	bdf0      	pop	{r4, r5, r6, r7, pc}
   22026:	46c0      	nop			@ (mov r8, r8)
   22028:	0000093c 	.word	0x0000093c

0002202c <_ZN18complex_no_dynamic3app17h6d03fbdd0fe6f39cE>:
   2202c:	b5f0      	push	{r4, r5, r6, r7, lr}
   2202e:	af03      	add	r7, sp, #12
   22030:	b091      	sub	sp, #68	@ 0x44
   22032:	9001      	str	r0, [sp, #4]
   22034:	ae02      	add	r6, sp, #8
   22036:	242b      	movs	r4, #43	@ 0x2b
   22038:	4630      	mov	r0, r6
   2203a:	4622      	mov	r2, r4
   2203c:	f005 fe0b 	bl	27c56 <__aeabi_memcpy>
   22040:	a80d      	add	r0, sp, #52	@ 0x34
   22042:	2500      	movs	r5, #0
   22044:	7305      	strb	r5, [r0, #12]
   22046:	950f      	str	r5, [sp, #60]	@ 0x3c
   22048:	950e      	str	r5, [sp, #56]	@ 0x38
   2204a:	950d      	str	r5, [sp, #52]	@ 0x34
   2204c:	4825      	ldr	r0, [pc, #148]	@ (220e4 <_ZN18complex_no_dynamic3app17h6d03fbdd0fe6f39cE+0xb8>)
   2204e:	2106      	movs	r1, #6
   22050:	4632      	mov	r2, r6
   22052:	4623      	mov	r3, r4
   22054:	df04      	svc	4
   22056:	2802      	cmp	r0, #2
   22058:	d00e      	beq.n	22078 <_ZN18complex_no_dynamic3app17h6d03fbdd0fe6f39cE+0x4c>
   2205a:	4822      	ldr	r0, [pc, #136]	@ (220e4 <_ZN18complex_no_dynamic3app17h6d03fbdd0fe6f39cE+0xb8>)
   2205c:	2100      	movs	r1, #0
   2205e:	aa0d      	add	r2, sp, #52	@ 0x34
   22060:	230d      	movs	r3, #13
   22062:	df03      	svc	3
   22064:	2802      	cmp	r0, #2
   22066:	d007      	beq.n	22078 <_ZN18complex_no_dynamic3app17h6d03fbdd0fe6f39cE+0x4c>
   22068:	481e      	ldr	r0, [pc, #120]	@ (220e4 <_ZN18complex_no_dynamic3app17h6d03fbdd0fe6f39cE+0xb8>)
   2206a:	2106      	movs	r1, #6
   2206c:	2600      	movs	r6, #0
   2206e:	4632      	mov	r2, r6
   22070:	4633      	mov	r3, r6
   22072:	df02      	svc	2
   22074:	287f      	cmp	r0, #127	@ 0x7f
   22076:	d814      	bhi.n	220a2 <_ZN18complex_no_dynamic3app17h6d03fbdd0fe6f39cE+0x76>
   22078:	2601      	movs	r6, #1
   2207a:	2e00      	cmp	r6, #0
   2207c:	d018      	beq.n	220b0 <_ZN18complex_no_dynamic3app17h6d03fbdd0fe6f39cE+0x84>
   2207e:	2001      	movs	r0, #1
   22080:	9a01      	ldr	r2, [sp, #4]
   22082:	7010      	strb	r0, [r2, #0]
   22084:	6051      	str	r1, [r2, #4]
   22086:	4c17      	ldr	r4, [pc, #92]	@ (220e4 <_ZN18complex_no_dynamic3app17h6d03fbdd0fe6f39cE+0xb8>)
   22088:	2500      	movs	r5, #0
   2208a:	4620      	mov	r0, r4
   2208c:	4629      	mov	r1, r5
   2208e:	462a      	mov	r2, r5
   22090:	462b      	mov	r3, r5
   22092:	df03      	svc	3
   22094:	2106      	movs	r1, #6
   22096:	4620      	mov	r0, r4
   22098:	462a      	mov	r2, r5
   2209a:	462b      	mov	r3, r5
   2209c:	df04      	svc	4
   2209e:	b011      	add	sp, #68	@ 0x44
   220a0:	bdf0      	pop	{r4, r5, r6, r7, pc}
   220a2:	4810      	ldr	r0, [pc, #64]	@ (220e4 <_ZN18complex_no_dynamic3app17h6d03fbdd0fe6f39cE+0xb8>)
   220a4:	4631      	mov	r1, r6
   220a6:	4632      	mov	r2, r6
   220a8:	4633      	mov	r3, r6
   220aa:	df03      	svc	3
   220ac:	2e00      	cmp	r6, #0
   220ae:	d1e6      	bne.n	2207e <_ZN18complex_no_dynamic3app17h6d03fbdd0fe6f39cE+0x52>
   220b0:	4e0c      	ldr	r6, [pc, #48]	@ (220e4 <_ZN18complex_no_dynamic3app17h6d03fbdd0fe6f39cE+0xb8>)
   220b2:	4630      	mov	r0, r6
   220b4:	4629      	mov	r1, r5
   220b6:	462a      	mov	r2, r5
   220b8:	462b      	mov	r3, r5
   220ba:	df03      	svc	3
   220bc:	9c01      	ldr	r4, [sp, #4]
   220be:	1c60      	adds	r0, r4, #1
   220c0:	a90d      	add	r1, sp, #52	@ 0x34
   220c2:	220d      	movs	r2, #13
   220c4:	f005 fdc7 	bl	27c56 <__aeabi_memcpy>
   220c8:	7025      	strb	r5, [r4, #0]
   220ca:	4630      	mov	r0, r6
   220cc:	4629      	mov	r1, r5
   220ce:	462a      	mov	r2, r5
   220d0:	462b      	mov	r3, r5
   220d2:	df03      	svc	3
   220d4:	2106      	movs	r1, #6
   220d6:	4630      	mov	r0, r6
   220d8:	462a      	mov	r2, r5
   220da:	462b      	mov	r3, r5
   220dc:	df04      	svc	4
   220de:	b011      	add	sp, #68	@ 0x44
   220e0:	bdf0      	pop	{r4, r5, r6, r7, pc}
   220e2:	46c0      	nop			@ (mov r8, r8)
   220e4:	00001465 	.word	0x00001465

000220e8 <_ZN18complex_no_dynamic3app17h7246a121b8e6dd83E>:
   220e8:	b5f0      	push	{r4, r5, r6, r7, lr}
   220ea:	af03      	add	r7, sp, #12
   220ec:	b095      	sub	sp, #84	@ 0x54
   220ee:	4604      	mov	r4, r0
   220f0:	466d      	mov	r5, sp
   220f2:	262c      	movs	r6, #44	@ 0x2c
   220f4:	4628      	mov	r0, r5
   220f6:	4632      	mov	r2, r6
   220f8:	f005 fdad 	bl	27c56 <__aeabi_memcpy>
   220fc:	a80b      	add	r0, sp, #44	@ 0x2c
   220fe:	2127      	movs	r1, #39	@ 0x27
   22100:	f005 fbfc 	bl	278fc <__aeabi_memclr4>
   22104:	4824      	ldr	r0, [pc, #144]	@ (22198 <_ZN18complex_no_dynamic3app17h7246a121b8e6dd83E+0xb0>)
   22106:	2104      	movs	r1, #4
   22108:	462a      	mov	r2, r5
   2210a:	4633      	mov	r3, r6
   2210c:	df04      	svc	4
   2210e:	2802      	cmp	r0, #2
   22110:	d00e      	beq.n	22130 <_ZN18complex_no_dynamic3app17h7246a121b8e6dd83E+0x48>
   22112:	4821      	ldr	r0, [pc, #132]	@ (22198 <_ZN18complex_no_dynamic3app17h7246a121b8e6dd83E+0xb0>)
   22114:	2103      	movs	r1, #3
   22116:	aa0b      	add	r2, sp, #44	@ 0x2c
   22118:	2327      	movs	r3, #39	@ 0x27
   2211a:	df03      	svc	3
   2211c:	2802      	cmp	r0, #2
   2211e:	d007      	beq.n	22130 <_ZN18complex_no_dynamic3app17h7246a121b8e6dd83E+0x48>
   22120:	481d      	ldr	r0, [pc, #116]	@ (22198 <_ZN18complex_no_dynamic3app17h7246a121b8e6dd83E+0xb0>)
   22122:	2104      	movs	r1, #4
   22124:	2203      	movs	r2, #3
   22126:	2500      	movs	r5, #0
   22128:	462b      	mov	r3, r5
   2212a:	df02      	svc	2
   2212c:	287f      	cmp	r0, #127	@ 0x7f
   2212e:	d813      	bhi.n	22158 <_ZN18complex_no_dynamic3app17h7246a121b8e6dd83E+0x70>
   22130:	2501      	movs	r5, #1
   22132:	2d00      	cmp	r5, #0
   22134:	d017      	beq.n	22166 <_ZN18complex_no_dynamic3app17h7246a121b8e6dd83E+0x7e>
   22136:	2001      	movs	r0, #1
   22138:	7020      	strb	r0, [r4, #0]
   2213a:	6061      	str	r1, [r4, #4]
   2213c:	4c16      	ldr	r4, [pc, #88]	@ (22198 <_ZN18complex_no_dynamic3app17h7246a121b8e6dd83E+0xb0>)
   2213e:	2103      	movs	r1, #3
   22140:	2500      	movs	r5, #0
   22142:	4620      	mov	r0, r4
   22144:	462a      	mov	r2, r5
   22146:	462b      	mov	r3, r5
   22148:	df03      	svc	3
   2214a:	2104      	movs	r1, #4
   2214c:	4620      	mov	r0, r4
   2214e:	462a      	mov	r2, r5
   22150:	462b      	mov	r3, r5
   22152:	df04      	svc	4
   22154:	b015      	add	sp, #84	@ 0x54
   22156:	bdf0      	pop	{r4, r5, r6, r7, pc}
   22158:	480f      	ldr	r0, [pc, #60]	@ (22198 <_ZN18complex_no_dynamic3app17h7246a121b8e6dd83E+0xb0>)
   2215a:	2103      	movs	r1, #3
   2215c:	462a      	mov	r2, r5
   2215e:	462b      	mov	r3, r5
   22160:	df03      	svc	3
   22162:	2d00      	cmp	r5, #0
   22164:	d1e7      	bne.n	22136 <_ZN18complex_no_dynamic3app17h7246a121b8e6dd83E+0x4e>
   22166:	480c      	ldr	r0, [pc, #48]	@ (22198 <_ZN18complex_no_dynamic3app17h7246a121b8e6dd83E+0xb0>)
   22168:	2603      	movs	r6, #3
   2216a:	2500      	movs	r5, #0
   2216c:	4631      	mov	r1, r6
   2216e:	462a      	mov	r2, r5
   22170:	462b      	mov	r3, r5
   22172:	df03      	svc	3
   22174:	1c60      	adds	r0, r4, #1
   22176:	a90b      	add	r1, sp, #44	@ 0x2c
   22178:	2227      	movs	r2, #39	@ 0x27
   2217a:	f005 fd6c 	bl	27c56 <__aeabi_memcpy>
   2217e:	7025      	strb	r5, [r4, #0]
   22180:	4805      	ldr	r0, [pc, #20]	@ (22198 <_ZN18complex_no_dynamic3app17h7246a121b8e6dd83E+0xb0>)
   22182:	4631      	mov	r1, r6
   22184:	462a      	mov	r2, r5
   22186:	462b      	mov	r3, r5
   22188:	df03      	svc	3
   2218a:	2104      	movs	r1, #4
   2218c:	4802      	ldr	r0, [pc, #8]	@ (22198 <_ZN18complex_no_dynamic3app17h7246a121b8e6dd83E+0xb0>)
   2218e:	462a      	mov	r2, r5
   22190:	462b      	mov	r3, r5
   22192:	df04      	svc	4
   22194:	b015      	add	sp, #84	@ 0x54
   22196:	bdf0      	pop	{r4, r5, r6, r7, pc}
   22198:	000011b5 	.word	0x000011b5

0002219c <_ZN18complex_no_dynamic3app17h77df6bdb1dfbfc35E>:
   2219c:	b5f0      	push	{r4, r5, r6, r7, lr}
   2219e:	af03      	add	r7, sp, #12
   221a0:	b09b      	sub	sp, #108	@ 0x6c
   221a2:	4604      	mov	r4, r0
   221a4:	466d      	mov	r5, sp
   221a6:	261a      	movs	r6, #26
   221a8:	4628      	mov	r0, r5
   221aa:	4632      	mov	r2, r6
   221ac:	f005 fd53 	bl	27c56 <__aeabi_memcpy>
   221b0:	a807      	add	r0, sp, #28
   221b2:	2150      	movs	r1, #80	@ 0x50
   221b4:	f005 fba2 	bl	278fc <__aeabi_memclr4>
   221b8:	4824      	ldr	r0, [pc, #144]	@ (2224c <_ZN18complex_no_dynamic3app17h77df6bdb1dfbfc35E+0xb0>)
   221ba:	2107      	movs	r1, #7
   221bc:	462a      	mov	r2, r5
   221be:	4633      	mov	r3, r6
   221c0:	df04      	svc	4
   221c2:	2802      	cmp	r0, #2
   221c4:	d00e      	beq.n	221e4 <_ZN18complex_no_dynamic3app17h77df6bdb1dfbfc35E+0x48>
   221c6:	4821      	ldr	r0, [pc, #132]	@ (2224c <_ZN18complex_no_dynamic3app17h77df6bdb1dfbfc35E+0xb0>)
   221c8:	2104      	movs	r1, #4
   221ca:	aa07      	add	r2, sp, #28
   221cc:	2350      	movs	r3, #80	@ 0x50
   221ce:	df03      	svc	3
   221d0:	2802      	cmp	r0, #2
   221d2:	d007      	beq.n	221e4 <_ZN18complex_no_dynamic3app17h77df6bdb1dfbfc35E+0x48>
   221d4:	481d      	ldr	r0, [pc, #116]	@ (2224c <_ZN18complex_no_dynamic3app17h77df6bdb1dfbfc35E+0xb0>)
   221d6:	2107      	movs	r1, #7
   221d8:	2204      	movs	r2, #4
   221da:	2500      	movs	r5, #0
   221dc:	462b      	mov	r3, r5
   221de:	df02      	svc	2
   221e0:	287f      	cmp	r0, #127	@ 0x7f
   221e2:	d813      	bhi.n	2220c <_ZN18complex_no_dynamic3app17h77df6bdb1dfbfc35E+0x70>
   221e4:	2501      	movs	r5, #1
   221e6:	2d00      	cmp	r5, #0
   221e8:	d017      	beq.n	2221a <_ZN18complex_no_dynamic3app17h77df6bdb1dfbfc35E+0x7e>
   221ea:	2001      	movs	r0, #1
   221ec:	7020      	strb	r0, [r4, #0]
   221ee:	6061      	str	r1, [r4, #4]
   221f0:	4c16      	ldr	r4, [pc, #88]	@ (2224c <_ZN18complex_no_dynamic3app17h77df6bdb1dfbfc35E+0xb0>)
   221f2:	2104      	movs	r1, #4
   221f4:	2500      	movs	r5, #0
   221f6:	4620      	mov	r0, r4
   221f8:	462a      	mov	r2, r5
   221fa:	462b      	mov	r3, r5
   221fc:	df03      	svc	3
   221fe:	2107      	movs	r1, #7
   22200:	4620      	mov	r0, r4
   22202:	462a      	mov	r2, r5
   22204:	462b      	mov	r3, r5
   22206:	df04      	svc	4
   22208:	b01b      	add	sp, #108	@ 0x6c
   2220a:	bdf0      	pop	{r4, r5, r6, r7, pc}
   2220c:	480f      	ldr	r0, [pc, #60]	@ (2224c <_ZN18complex_no_dynamic3app17h77df6bdb1dfbfc35E+0xb0>)
   2220e:	2104      	movs	r1, #4
   22210:	462a      	mov	r2, r5
   22212:	462b      	mov	r3, r5
   22214:	df03      	svc	3
   22216:	2d00      	cmp	r5, #0
   22218:	d1e7      	bne.n	221ea <_ZN18complex_no_dynamic3app17h77df6bdb1dfbfc35E+0x4e>
   2221a:	480c      	ldr	r0, [pc, #48]	@ (2224c <_ZN18complex_no_dynamic3app17h77df6bdb1dfbfc35E+0xb0>)
   2221c:	2604      	movs	r6, #4
   2221e:	2500      	movs	r5, #0
   22220:	4631      	mov	r1, r6
   22222:	462a      	mov	r2, r5
   22224:	462b      	mov	r3, r5
   22226:	df03      	svc	3
   22228:	1c60      	adds	r0, r4, #1
   2222a:	a907      	add	r1, sp, #28
   2222c:	2250      	movs	r2, #80	@ 0x50
   2222e:	f005 fd12 	bl	27c56 <__aeabi_memcpy>
   22232:	7025      	strb	r5, [r4, #0]
   22234:	4805      	ldr	r0, [pc, #20]	@ (2224c <_ZN18complex_no_dynamic3app17h77df6bdb1dfbfc35E+0xb0>)
   22236:	4631      	mov	r1, r6
   22238:	462a      	mov	r2, r5
   2223a:	462b      	mov	r3, r5
   2223c:	df03      	svc	3
   2223e:	2107      	movs	r1, #7
   22240:	4802      	ldr	r0, [pc, #8]	@ (2224c <_ZN18complex_no_dynamic3app17h77df6bdb1dfbfc35E+0xb0>)
   22242:	462a      	mov	r2, r5
   22244:	462b      	mov	r3, r5
   22246:	df04      	svc	4
   22248:	b01b      	add	sp, #108	@ 0x6c
   2224a:	bdf0      	pop	{r4, r5, r6, r7, pc}
   2224c:	00000aee 	.word	0x00000aee

00022250 <_ZN18complex_no_dynamic3app17h78ab1949d582ec92E>:
   22250:	b5f0      	push	{r4, r5, r6, r7, lr}
   22252:	af03      	add	r7, sp, #12
   22254:	b0a5      	sub	sp, #148	@ 0x94
   22256:	4604      	mov	r4, r0
   22258:	ad01      	add	r5, sp, #4
   2225a:	2653      	movs	r6, #83	@ 0x53
   2225c:	4628      	mov	r0, r5
   2225e:	4632      	mov	r2, r6
   22260:	f005 fcf9 	bl	27c56 <__aeabi_memcpy>
   22264:	a816      	add	r0, sp, #88	@ 0x58
   22266:	213a      	movs	r1, #58	@ 0x3a
   22268:	f005 fb48 	bl	278fc <__aeabi_memclr4>
   2226c:	4824      	ldr	r0, [pc, #144]	@ (22300 <_ZN18complex_no_dynamic3app17h78ab1949d582ec92E+0xb0>)
   2226e:	2106      	movs	r1, #6
   22270:	462a      	mov	r2, r5
   22272:	4633      	mov	r3, r6
   22274:	df04      	svc	4
   22276:	2802      	cmp	r0, #2
   22278:	d00e      	beq.n	22298 <_ZN18complex_no_dynamic3app17h78ab1949d582ec92E+0x48>
   2227a:	4821      	ldr	r0, [pc, #132]	@ (22300 <_ZN18complex_no_dynamic3app17h78ab1949d582ec92E+0xb0>)
   2227c:	2107      	movs	r1, #7
   2227e:	aa16      	add	r2, sp, #88	@ 0x58
   22280:	233a      	movs	r3, #58	@ 0x3a
   22282:	df03      	svc	3
   22284:	2802      	cmp	r0, #2
   22286:	d007      	beq.n	22298 <_ZN18complex_no_dynamic3app17h78ab1949d582ec92E+0x48>
   22288:	481d      	ldr	r0, [pc, #116]	@ (22300 <_ZN18complex_no_dynamic3app17h78ab1949d582ec92E+0xb0>)
   2228a:	2106      	movs	r1, #6
   2228c:	2207      	movs	r2, #7
   2228e:	2500      	movs	r5, #0
   22290:	462b      	mov	r3, r5
   22292:	df02      	svc	2
   22294:	287f      	cmp	r0, #127	@ 0x7f
   22296:	d813      	bhi.n	222c0 <_ZN18complex_no_dynamic3app17h78ab1949d582ec92E+0x70>
   22298:	2501      	movs	r5, #1
   2229a:	2d00      	cmp	r5, #0
   2229c:	d017      	beq.n	222ce <_ZN18complex_no_dynamic3app17h78ab1949d582ec92E+0x7e>
   2229e:	2001      	movs	r0, #1
   222a0:	7020      	strb	r0, [r4, #0]
   222a2:	6061      	str	r1, [r4, #4]
   222a4:	4c16      	ldr	r4, [pc, #88]	@ (22300 <_ZN18complex_no_dynamic3app17h78ab1949d582ec92E+0xb0>)
   222a6:	2107      	movs	r1, #7
   222a8:	2500      	movs	r5, #0
   222aa:	4620      	mov	r0, r4
   222ac:	462a      	mov	r2, r5
   222ae:	462b      	mov	r3, r5
   222b0:	df03      	svc	3
   222b2:	2106      	movs	r1, #6
   222b4:	4620      	mov	r0, r4
   222b6:	462a      	mov	r2, r5
   222b8:	462b      	mov	r3, r5
   222ba:	df04      	svc	4
   222bc:	b025      	add	sp, #148	@ 0x94
   222be:	bdf0      	pop	{r4, r5, r6, r7, pc}
   222c0:	480f      	ldr	r0, [pc, #60]	@ (22300 <_ZN18complex_no_dynamic3app17h78ab1949d582ec92E+0xb0>)
   222c2:	2107      	movs	r1, #7
   222c4:	462a      	mov	r2, r5
   222c6:	462b      	mov	r3, r5
   222c8:	df03      	svc	3
   222ca:	2d00      	cmp	r5, #0
   222cc:	d1e7      	bne.n	2229e <_ZN18complex_no_dynamic3app17h78ab1949d582ec92E+0x4e>
   222ce:	480c      	ldr	r0, [pc, #48]	@ (22300 <_ZN18complex_no_dynamic3app17h78ab1949d582ec92E+0xb0>)
   222d0:	2607      	movs	r6, #7
   222d2:	2500      	movs	r5, #0
   222d4:	4631      	mov	r1, r6
   222d6:	462a      	mov	r2, r5
   222d8:	462b      	mov	r3, r5
   222da:	df03      	svc	3
   222dc:	1c60      	adds	r0, r4, #1
   222de:	a916      	add	r1, sp, #88	@ 0x58
   222e0:	223a      	movs	r2, #58	@ 0x3a
   222e2:	f005 fcb8 	bl	27c56 <__aeabi_memcpy>
   222e6:	7025      	strb	r5, [r4, #0]
   222e8:	4805      	ldr	r0, [pc, #20]	@ (22300 <_ZN18complex_no_dynamic3app17h78ab1949d582ec92E+0xb0>)
   222ea:	4631      	mov	r1, r6
   222ec:	462a      	mov	r2, r5
   222ee:	462b      	mov	r3, r5
   222f0:	df03      	svc	3
   222f2:	2106      	movs	r1, #6
   222f4:	4802      	ldr	r0, [pc, #8]	@ (22300 <_ZN18complex_no_dynamic3app17h78ab1949d582ec92E+0xb0>)
   222f6:	462a      	mov	r2, r5
   222f8:	462b      	mov	r3, r5
   222fa:	df04      	svc	4
   222fc:	b025      	add	sp, #148	@ 0x94
   222fe:	bdf0      	pop	{r4, r5, r6, r7, pc}
   22300:	00002645 	.word	0x00002645

00022304 <_ZN18complex_no_dynamic3app17h7c5051fe0b2a04d4E>:
   22304:	b5f0      	push	{r4, r5, r6, r7, lr}
   22306:	af03      	add	r7, sp, #12
   22308:	b09b      	sub	sp, #108	@ 0x6c
   2230a:	4604      	mov	r4, r0
   2230c:	ad01      	add	r5, sp, #4
   2230e:	2632      	movs	r6, #50	@ 0x32
   22310:	4628      	mov	r0, r5
   22312:	4632      	mov	r2, r6
   22314:	f005 fc9f 	bl	27c56 <__aeabi_memcpy>
   22318:	a80e      	add	r0, sp, #56	@ 0x38
   2231a:	4631      	mov	r1, r6
   2231c:	f005 faee 	bl	278fc <__aeabi_memclr4>
   22320:	4825      	ldr	r0, [pc, #148]	@ (223b8 <_ZN18complex_no_dynamic3app17h7c5051fe0b2a04d4E+0xb4>)
   22322:	2103      	movs	r1, #3
   22324:	462a      	mov	r2, r5
   22326:	4633      	mov	r3, r6
   22328:	df04      	svc	4
   2232a:	2802      	cmp	r0, #2
   2232c:	d101      	bne.n	22332 <_ZN18complex_no_dynamic3app17h7c5051fe0b2a04d4E+0x2e>
   2232e:	2501      	movs	r5, #1
   22330:	e016      	b.n	22360 <_ZN18complex_no_dynamic3app17h7c5051fe0b2a04d4E+0x5c>
   22332:	4821      	ldr	r0, [pc, #132]	@ (223b8 <_ZN18complex_no_dynamic3app17h7c5051fe0b2a04d4E+0xb4>)
   22334:	2501      	movs	r5, #1
   22336:	aa0e      	add	r2, sp, #56	@ 0x38
   22338:	2332      	movs	r3, #50	@ 0x32
   2233a:	4629      	mov	r1, r5
   2233c:	df03      	svc	3
   2233e:	2802      	cmp	r0, #2
   22340:	d00e      	beq.n	22360 <_ZN18complex_no_dynamic3app17h7c5051fe0b2a04d4E+0x5c>
   22342:	481d      	ldr	r0, [pc, #116]	@ (223b8 <_ZN18complex_no_dynamic3app17h7c5051fe0b2a04d4E+0xb4>)
   22344:	2103      	movs	r1, #3
   22346:	2501      	movs	r5, #1
   22348:	2600      	movs	r6, #0
   2234a:	462a      	mov	r2, r5
   2234c:	4633      	mov	r3, r6
   2234e:	df02      	svc	2
   22350:	287f      	cmp	r0, #127	@ 0x7f
   22352:	d905      	bls.n	22360 <_ZN18complex_no_dynamic3app17h7c5051fe0b2a04d4E+0x5c>
   22354:	4818      	ldr	r0, [pc, #96]	@ (223b8 <_ZN18complex_no_dynamic3app17h7c5051fe0b2a04d4E+0xb4>)
   22356:	2101      	movs	r1, #1
   22358:	4632      	mov	r2, r6
   2235a:	4633      	mov	r3, r6
   2235c:	df03      	svc	3
   2235e:	4635      	mov	r5, r6
   22360:	2d00      	cmp	r5, #0
   22362:	d010      	beq.n	22386 <_ZN18complex_no_dynamic3app17h7c5051fe0b2a04d4E+0x82>
   22364:	2201      	movs	r2, #1
   22366:	7022      	strb	r2, [r4, #0]
   22368:	6061      	str	r1, [r4, #4]
   2236a:	4c13      	ldr	r4, [pc, #76]	@ (223b8 <_ZN18complex_no_dynamic3app17h7c5051fe0b2a04d4E+0xb4>)
   2236c:	2500      	movs	r5, #0
   2236e:	4620      	mov	r0, r4
   22370:	4611      	mov	r1, r2
   22372:	462a      	mov	r2, r5
   22374:	462b      	mov	r3, r5
   22376:	df03      	svc	3
   22378:	2103      	movs	r1, #3
   2237a:	4620      	mov	r0, r4
   2237c:	462a      	mov	r2, r5
   2237e:	462b      	mov	r3, r5
   22380:	df04      	svc	4
   22382:	b01b      	add	sp, #108	@ 0x6c
   22384:	bdf0      	pop	{r4, r5, r6, r7, pc}
   22386:	480c      	ldr	r0, [pc, #48]	@ (223b8 <_ZN18complex_no_dynamic3app17h7c5051fe0b2a04d4E+0xb4>)
   22388:	2601      	movs	r6, #1
   2238a:	2500      	movs	r5, #0
   2238c:	4631      	mov	r1, r6
   2238e:	462a      	mov	r2, r5
   22390:	462b      	mov	r3, r5
   22392:	df03      	svc	3
   22394:	1c60      	adds	r0, r4, #1
   22396:	a90e      	add	r1, sp, #56	@ 0x38
   22398:	2232      	movs	r2, #50	@ 0x32
   2239a:	f005 fc5c 	bl	27c56 <__aeabi_memcpy>
   2239e:	7025      	strb	r5, [r4, #0]
   223a0:	4805      	ldr	r0, [pc, #20]	@ (223b8 <_ZN18complex_no_dynamic3app17h7c5051fe0b2a04d4E+0xb4>)
   223a2:	4631      	mov	r1, r6
   223a4:	462a      	mov	r2, r5
   223a6:	462b      	mov	r3, r5
   223a8:	df03      	svc	3
   223aa:	2103      	movs	r1, #3
   223ac:	4802      	ldr	r0, [pc, #8]	@ (223b8 <_ZN18complex_no_dynamic3app17h7c5051fe0b2a04d4E+0xb4>)
   223ae:	462a      	mov	r2, r5
   223b0:	462b      	mov	r3, r5
   223b2:	df04      	svc	4
   223b4:	b01b      	add	sp, #108	@ 0x6c
   223b6:	bdf0      	pop	{r4, r5, r6, r7, pc}
   223b8:	00001f07 	.word	0x00001f07

000223bc <_ZN18complex_no_dynamic3app17h7d856cc117f22352E>:
   223bc:	b5f0      	push	{r4, r5, r6, r7, lr}
   223be:	af03      	add	r7, sp, #12
   223c0:	b0a5      	sub	sp, #148	@ 0x94
   223c2:	4604      	mov	r4, r0
   223c4:	ad01      	add	r5, sp, #4
   223c6:	262a      	movs	r6, #42	@ 0x2a
   223c8:	4628      	mov	r0, r5
   223ca:	4632      	mov	r2, r6
   223cc:	f005 fc43 	bl	27c56 <__aeabi_memcpy>
   223d0:	a80c      	add	r0, sp, #48	@ 0x30
   223d2:	2163      	movs	r1, #99	@ 0x63
   223d4:	f005 fa92 	bl	278fc <__aeabi_memclr4>
   223d8:	4824      	ldr	r0, [pc, #144]	@ (2246c <_ZN18complex_no_dynamic3app17h7d856cc117f22352E+0xb0>)
   223da:	2104      	movs	r1, #4
   223dc:	462a      	mov	r2, r5
   223de:	4633      	mov	r3, r6
   223e0:	df04      	svc	4
   223e2:	2802      	cmp	r0, #2
   223e4:	d00e      	beq.n	22404 <_ZN18complex_no_dynamic3app17h7d856cc117f22352E+0x48>
   223e6:	4821      	ldr	r0, [pc, #132]	@ (2246c <_ZN18complex_no_dynamic3app17h7d856cc117f22352E+0xb0>)
   223e8:	2100      	movs	r1, #0
   223ea:	aa0c      	add	r2, sp, #48	@ 0x30
   223ec:	2363      	movs	r3, #99	@ 0x63
   223ee:	df03      	svc	3
   223f0:	2802      	cmp	r0, #2
   223f2:	d007      	beq.n	22404 <_ZN18complex_no_dynamic3app17h7d856cc117f22352E+0x48>
   223f4:	481d      	ldr	r0, [pc, #116]	@ (2246c <_ZN18complex_no_dynamic3app17h7d856cc117f22352E+0xb0>)
   223f6:	2104      	movs	r1, #4
   223f8:	2500      	movs	r5, #0
   223fa:	462a      	mov	r2, r5
   223fc:	462b      	mov	r3, r5
   223fe:	df02      	svc	2
   22400:	287f      	cmp	r0, #127	@ 0x7f
   22402:	d813      	bhi.n	2242c <_ZN18complex_no_dynamic3app17h7d856cc117f22352E+0x70>
   22404:	2501      	movs	r5, #1
   22406:	2d00      	cmp	r5, #0
   22408:	d017      	beq.n	2243a <_ZN18complex_no_dynamic3app17h7d856cc117f22352E+0x7e>
   2240a:	2001      	movs	r0, #1
   2240c:	7020      	strb	r0, [r4, #0]
   2240e:	6061      	str	r1, [r4, #4]
   22410:	4c16      	ldr	r4, [pc, #88]	@ (2246c <_ZN18complex_no_dynamic3app17h7d856cc117f22352E+0xb0>)
   22412:	2500      	movs	r5, #0
   22414:	4620      	mov	r0, r4
   22416:	4629      	mov	r1, r5
   22418:	462a      	mov	r2, r5
   2241a:	462b      	mov	r3, r5
   2241c:	df03      	svc	3
   2241e:	2104      	movs	r1, #4
   22420:	4620      	mov	r0, r4
   22422:	462a      	mov	r2, r5
   22424:	462b      	mov	r3, r5
   22426:	df04      	svc	4
   22428:	b025      	add	sp, #148	@ 0x94
   2242a:	bdf0      	pop	{r4, r5, r6, r7, pc}
   2242c:	480f      	ldr	r0, [pc, #60]	@ (2246c <_ZN18complex_no_dynamic3app17h7d856cc117f22352E+0xb0>)
   2242e:	4629      	mov	r1, r5
   22430:	462a      	mov	r2, r5
   22432:	462b      	mov	r3, r5
   22434:	df03      	svc	3
   22436:	2d00      	cmp	r5, #0
   22438:	d1e7      	bne.n	2240a <_ZN18complex_no_dynamic3app17h7d856cc117f22352E+0x4e>
   2243a:	4e0c      	ldr	r6, [pc, #48]	@ (2246c <_ZN18complex_no_dynamic3app17h7d856cc117f22352E+0xb0>)
   2243c:	2500      	movs	r5, #0
   2243e:	4630      	mov	r0, r6
   22440:	4629      	mov	r1, r5
   22442:	462a      	mov	r2, r5
   22444:	462b      	mov	r3, r5
   22446:	df03      	svc	3
   22448:	1c60      	adds	r0, r4, #1
   2244a:	a90c      	add	r1, sp, #48	@ 0x30
   2244c:	2263      	movs	r2, #99	@ 0x63
   2244e:	f005 fc02 	bl	27c56 <__aeabi_memcpy>
   22452:	7025      	strb	r5, [r4, #0]
   22454:	4630      	mov	r0, r6
   22456:	4629      	mov	r1, r5
   22458:	462a      	mov	r2, r5
   2245a:	462b      	mov	r3, r5
   2245c:	df03      	svc	3
   2245e:	2104      	movs	r1, #4
   22460:	4630      	mov	r0, r6
   22462:	462a      	mov	r2, r5
   22464:	462b      	mov	r3, r5
   22466:	df04      	svc	4
   22468:	b025      	add	sp, #148	@ 0x94
   2246a:	bdf0      	pop	{r4, r5, r6, r7, pc}
   2246c:	00001c7c 	.word	0x00001c7c

00022470 <_ZN18complex_no_dynamic3app17h7ff45d991a9ba3f8E>:
   22470:	b5f0      	push	{r4, r5, r6, r7, lr}
   22472:	af03      	add	r7, sp, #12
   22474:	b09f      	sub	sp, #124	@ 0x7c
   22476:	4604      	mov	r4, r0
   22478:	ad01      	add	r5, sp, #4
   2247a:	2621      	movs	r6, #33	@ 0x21
   2247c:	4628      	mov	r0, r5
   2247e:	4632      	mov	r2, r6
   22480:	f005 fbe9 	bl	27c56 <__aeabi_memcpy>
   22484:	a80a      	add	r0, sp, #40	@ 0x28
   22486:	2153      	movs	r1, #83	@ 0x53
   22488:	f005 fa38 	bl	278fc <__aeabi_memclr4>
   2248c:	4824      	ldr	r0, [pc, #144]	@ (22520 <_ZN18complex_no_dynamic3app17h7ff45d991a9ba3f8E+0xb0>)
   2248e:	2102      	movs	r1, #2
   22490:	462a      	mov	r2, r5
   22492:	4633      	mov	r3, r6
   22494:	df04      	svc	4
   22496:	2802      	cmp	r0, #2
   22498:	d00e      	beq.n	224b8 <_ZN18complex_no_dynamic3app17h7ff45d991a9ba3f8E+0x48>
   2249a:	4821      	ldr	r0, [pc, #132]	@ (22520 <_ZN18complex_no_dynamic3app17h7ff45d991a9ba3f8E+0xb0>)
   2249c:	2108      	movs	r1, #8
   2249e:	aa0a      	add	r2, sp, #40	@ 0x28
   224a0:	2353      	movs	r3, #83	@ 0x53
   224a2:	df03      	svc	3
   224a4:	2802      	cmp	r0, #2
   224a6:	d007      	beq.n	224b8 <_ZN18complex_no_dynamic3app17h7ff45d991a9ba3f8E+0x48>
   224a8:	481d      	ldr	r0, [pc, #116]	@ (22520 <_ZN18complex_no_dynamic3app17h7ff45d991a9ba3f8E+0xb0>)
   224aa:	2102      	movs	r1, #2
   224ac:	2208      	movs	r2, #8
   224ae:	2500      	movs	r5, #0
   224b0:	462b      	mov	r3, r5
   224b2:	df02      	svc	2
   224b4:	287f      	cmp	r0, #127	@ 0x7f
   224b6:	d813      	bhi.n	224e0 <_ZN18complex_no_dynamic3app17h7ff45d991a9ba3f8E+0x70>
   224b8:	2501      	movs	r5, #1
   224ba:	2d00      	cmp	r5, #0
   224bc:	d017      	beq.n	224ee <_ZN18complex_no_dynamic3app17h7ff45d991a9ba3f8E+0x7e>
   224be:	2001      	movs	r0, #1
   224c0:	7020      	strb	r0, [r4, #0]
   224c2:	6061      	str	r1, [r4, #4]
   224c4:	4c16      	ldr	r4, [pc, #88]	@ (22520 <_ZN18complex_no_dynamic3app17h7ff45d991a9ba3f8E+0xb0>)
   224c6:	2108      	movs	r1, #8
   224c8:	2500      	movs	r5, #0
   224ca:	4620      	mov	r0, r4
   224cc:	462a      	mov	r2, r5
   224ce:	462b      	mov	r3, r5
   224d0:	df03      	svc	3
   224d2:	2102      	movs	r1, #2
   224d4:	4620      	mov	r0, r4
   224d6:	462a      	mov	r2, r5
   224d8:	462b      	mov	r3, r5
   224da:	df04      	svc	4
   224dc:	b01f      	add	sp, #124	@ 0x7c
   224de:	bdf0      	pop	{r4, r5, r6, r7, pc}
   224e0:	480f      	ldr	r0, [pc, #60]	@ (22520 <_ZN18complex_no_dynamic3app17h7ff45d991a9ba3f8E+0xb0>)
   224e2:	2108      	movs	r1, #8
   224e4:	462a      	mov	r2, r5
   224e6:	462b      	mov	r3, r5
   224e8:	df03      	svc	3
   224ea:	2d00      	cmp	r5, #0
   224ec:	d1e7      	bne.n	224be <_ZN18complex_no_dynamic3app17h7ff45d991a9ba3f8E+0x4e>
   224ee:	480c      	ldr	r0, [pc, #48]	@ (22520 <_ZN18complex_no_dynamic3app17h7ff45d991a9ba3f8E+0xb0>)
   224f0:	2608      	movs	r6, #8
   224f2:	2500      	movs	r5, #0
   224f4:	4631      	mov	r1, r6
   224f6:	462a      	mov	r2, r5
   224f8:	462b      	mov	r3, r5
   224fa:	df03      	svc	3
   224fc:	1c60      	adds	r0, r4, #1
   224fe:	a90a      	add	r1, sp, #40	@ 0x28
   22500:	2253      	movs	r2, #83	@ 0x53
   22502:	f005 fba8 	bl	27c56 <__aeabi_memcpy>
   22506:	7025      	strb	r5, [r4, #0]
   22508:	4805      	ldr	r0, [pc, #20]	@ (22520 <_ZN18complex_no_dynamic3app17h7ff45d991a9ba3f8E+0xb0>)
   2250a:	4631      	mov	r1, r6
   2250c:	462a      	mov	r2, r5
   2250e:	462b      	mov	r3, r5
   22510:	df03      	svc	3
   22512:	2102      	movs	r1, #2
   22514:	4802      	ldr	r0, [pc, #8]	@ (22520 <_ZN18complex_no_dynamic3app17h7ff45d991a9ba3f8E+0xb0>)
   22516:	462a      	mov	r2, r5
   22518:	462b      	mov	r3, r5
   2251a:	df04      	svc	4
   2251c:	b01f      	add	sp, #124	@ 0x7c
   2251e:	bdf0      	pop	{r4, r5, r6, r7, pc}
   22520:	0000253e 	.word	0x0000253e

00022524 <_ZN18complex_no_dynamic3app17h8364862a0a2019e9E>:
   22524:	b5f0      	push	{r4, r5, r6, r7, lr}
   22526:	af03      	add	r7, sp, #12
   22528:	b095      	sub	sp, #84	@ 0x54
   2252a:	4604      	mov	r4, r0
   2252c:	466d      	mov	r5, sp
   2252e:	262c      	movs	r6, #44	@ 0x2c
   22530:	4628      	mov	r0, r5
   22532:	4632      	mov	r2, r6
   22534:	f005 fb8f 	bl	27c56 <__aeabi_memcpy>
   22538:	a80b      	add	r0, sp, #44	@ 0x2c
   2253a:	2125      	movs	r1, #37	@ 0x25
   2253c:	f005 f9de 	bl	278fc <__aeabi_memclr4>
   22540:	4824      	ldr	r0, [pc, #144]	@ (225d4 <_ZN18complex_no_dynamic3app17h8364862a0a2019e9E+0xb0>)
   22542:	2103      	movs	r1, #3
   22544:	462a      	mov	r2, r5
   22546:	4633      	mov	r3, r6
   22548:	df04      	svc	4
   2254a:	2802      	cmp	r0, #2
   2254c:	d00e      	beq.n	2256c <_ZN18complex_no_dynamic3app17h8364862a0a2019e9E+0x48>
   2254e:	4821      	ldr	r0, [pc, #132]	@ (225d4 <_ZN18complex_no_dynamic3app17h8364862a0a2019e9E+0xb0>)
   22550:	2100      	movs	r1, #0
   22552:	aa0b      	add	r2, sp, #44	@ 0x2c
   22554:	2325      	movs	r3, #37	@ 0x25
   22556:	df03      	svc	3
   22558:	2802      	cmp	r0, #2
   2255a:	d007      	beq.n	2256c <_ZN18complex_no_dynamic3app17h8364862a0a2019e9E+0x48>
   2255c:	481d      	ldr	r0, [pc, #116]	@ (225d4 <_ZN18complex_no_dynamic3app17h8364862a0a2019e9E+0xb0>)
   2255e:	2103      	movs	r1, #3
   22560:	2500      	movs	r5, #0
   22562:	462a      	mov	r2, r5
   22564:	462b      	mov	r3, r5
   22566:	df02      	svc	2
   22568:	287f      	cmp	r0, #127	@ 0x7f
   2256a:	d813      	bhi.n	22594 <_ZN18complex_no_dynamic3app17h8364862a0a2019e9E+0x70>
   2256c:	2501      	movs	r5, #1
   2256e:	2d00      	cmp	r5, #0
   22570:	d017      	beq.n	225a2 <_ZN18complex_no_dynamic3app17h8364862a0a2019e9E+0x7e>
   22572:	2001      	movs	r0, #1
   22574:	7020      	strb	r0, [r4, #0]
   22576:	6061      	str	r1, [r4, #4]
   22578:	4c16      	ldr	r4, [pc, #88]	@ (225d4 <_ZN18complex_no_dynamic3app17h8364862a0a2019e9E+0xb0>)
   2257a:	2500      	movs	r5, #0
   2257c:	4620      	mov	r0, r4
   2257e:	4629      	mov	r1, r5
   22580:	462a      	mov	r2, r5
   22582:	462b      	mov	r3, r5
   22584:	df03      	svc	3
   22586:	2103      	movs	r1, #3
   22588:	4620      	mov	r0, r4
   2258a:	462a      	mov	r2, r5
   2258c:	462b      	mov	r3, r5
   2258e:	df04      	svc	4
   22590:	b015      	add	sp, #84	@ 0x54
   22592:	bdf0      	pop	{r4, r5, r6, r7, pc}
   22594:	480f      	ldr	r0, [pc, #60]	@ (225d4 <_ZN18complex_no_dynamic3app17h8364862a0a2019e9E+0xb0>)
   22596:	4629      	mov	r1, r5
   22598:	462a      	mov	r2, r5
   2259a:	462b      	mov	r3, r5
   2259c:	df03      	svc	3
   2259e:	2d00      	cmp	r5, #0
   225a0:	d1e7      	bne.n	22572 <_ZN18complex_no_dynamic3app17h8364862a0a2019e9E+0x4e>
   225a2:	4e0c      	ldr	r6, [pc, #48]	@ (225d4 <_ZN18complex_no_dynamic3app17h8364862a0a2019e9E+0xb0>)
   225a4:	2500      	movs	r5, #0
   225a6:	4630      	mov	r0, r6
   225a8:	4629      	mov	r1, r5
   225aa:	462a      	mov	r2, r5
   225ac:	462b      	mov	r3, r5
   225ae:	df03      	svc	3
   225b0:	1c60      	adds	r0, r4, #1
   225b2:	a90b      	add	r1, sp, #44	@ 0x2c
   225b4:	2225      	movs	r2, #37	@ 0x25
   225b6:	f005 fb4e 	bl	27c56 <__aeabi_memcpy>
   225ba:	7025      	strb	r5, [r4, #0]
   225bc:	4630      	mov	r0, r6
   225be:	4629      	mov	r1, r5
   225c0:	462a      	mov	r2, r5
   225c2:	462b      	mov	r3, r5
   225c4:	df03      	svc	3
   225c6:	2103      	movs	r1, #3
   225c8:	4630      	mov	r0, r6
   225ca:	462a      	mov	r2, r5
   225cc:	462b      	mov	r3, r5
   225ce:	df04      	svc	4
   225d0:	b015      	add	sp, #84	@ 0x54
   225d2:	bdf0      	pop	{r4, r5, r6, r7, pc}
   225d4:	0000077f 	.word	0x0000077f

000225d8 <_ZN18complex_no_dynamic3app17h8714d982f4472e63E>:
   225d8:	b5f0      	push	{r4, r5, r6, r7, lr}
   225da:	af03      	add	r7, sp, #12
   225dc:	b08f      	sub	sp, #60	@ 0x3c
   225de:	4604      	mov	r4, r0
   225e0:	ad01      	add	r5, sp, #4
   225e2:	260f      	movs	r6, #15
   225e4:	4628      	mov	r0, r5
   225e6:	4632      	mov	r2, r6
   225e8:	f005 fb35 	bl	27c56 <__aeabi_memcpy>
   225ec:	a805      	add	r0, sp, #20
   225ee:	2125      	movs	r1, #37	@ 0x25
   225f0:	f005 f984 	bl	278fc <__aeabi_memclr4>
   225f4:	20a2      	movs	r0, #162	@ 0xa2
   225f6:	2108      	movs	r1, #8
   225f8:	462a      	mov	r2, r5
   225fa:	4633      	mov	r3, r6
   225fc:	df04      	svc	4
   225fe:	2802      	cmp	r0, #2
   22600:	d00e      	beq.n	22620 <_ZN18complex_no_dynamic3app17h8714d982f4472e63E+0x48>
   22602:	20a2      	movs	r0, #162	@ 0xa2
   22604:	2100      	movs	r1, #0
   22606:	aa05      	add	r2, sp, #20
   22608:	2325      	movs	r3, #37	@ 0x25
   2260a:	df03      	svc	3
   2260c:	2802      	cmp	r0, #2
   2260e:	d007      	beq.n	22620 <_ZN18complex_no_dynamic3app17h8714d982f4472e63E+0x48>
   22610:	20a2      	movs	r0, #162	@ 0xa2
   22612:	2108      	movs	r1, #8
   22614:	2500      	movs	r5, #0
   22616:	462a      	mov	r2, r5
   22618:	462b      	mov	r3, r5
   2261a:	df02      	svc	2
   2261c:	287f      	cmp	r0, #127	@ 0x7f
   2261e:	d813      	bhi.n	22648 <_ZN18complex_no_dynamic3app17h8714d982f4472e63E+0x70>
   22620:	2501      	movs	r5, #1
   22622:	2d00      	cmp	r5, #0
   22624:	d017      	beq.n	22656 <_ZN18complex_no_dynamic3app17h8714d982f4472e63E+0x7e>
   22626:	2001      	movs	r0, #1
   22628:	7020      	strb	r0, [r4, #0]
   2262a:	6061      	str	r1, [r4, #4]
   2262c:	24a2      	movs	r4, #162	@ 0xa2
   2262e:	2500      	movs	r5, #0
   22630:	4620      	mov	r0, r4
   22632:	4629      	mov	r1, r5
   22634:	462a      	mov	r2, r5
   22636:	462b      	mov	r3, r5
   22638:	df03      	svc	3
   2263a:	2108      	movs	r1, #8
   2263c:	4620      	mov	r0, r4
   2263e:	462a      	mov	r2, r5
   22640:	462b      	mov	r3, r5
   22642:	df04      	svc	4
   22644:	b00f      	add	sp, #60	@ 0x3c
   22646:	bdf0      	pop	{r4, r5, r6, r7, pc}
   22648:	20a2      	movs	r0, #162	@ 0xa2
   2264a:	4629      	mov	r1, r5
   2264c:	462a      	mov	r2, r5
   2264e:	462b      	mov	r3, r5
   22650:	df03      	svc	3
   22652:	2d00      	cmp	r5, #0
   22654:	d1e7      	bne.n	22626 <_ZN18complex_no_dynamic3app17h8714d982f4472e63E+0x4e>
   22656:	26a2      	movs	r6, #162	@ 0xa2
   22658:	2500      	movs	r5, #0
   2265a:	4630      	mov	r0, r6
   2265c:	4629      	mov	r1, r5
   2265e:	462a      	mov	r2, r5
   22660:	462b      	mov	r3, r5
   22662:	df03      	svc	3
   22664:	1c60      	adds	r0, r4, #1
   22666:	a905      	add	r1, sp, #20
   22668:	2225      	movs	r2, #37	@ 0x25
   2266a:	f005 faf4 	bl	27c56 <__aeabi_memcpy>
   2266e:	7025      	strb	r5, [r4, #0]
   22670:	4630      	mov	r0, r6
   22672:	4629      	mov	r1, r5
   22674:	462a      	mov	r2, r5
   22676:	462b      	mov	r3, r5
   22678:	df03      	svc	3
   2267a:	2108      	movs	r1, #8
   2267c:	4630      	mov	r0, r6
   2267e:	462a      	mov	r2, r5
   22680:	462b      	mov	r3, r5
   22682:	df04      	svc	4
   22684:	b00f      	add	sp, #60	@ 0x3c
   22686:	bdf0      	pop	{r4, r5, r6, r7, pc}

00022688 <_ZN18complex_no_dynamic3app17h88f3be9008ba137fE>:
   22688:	b5f0      	push	{r4, r5, r6, r7, lr}
   2268a:	af03      	add	r7, sp, #12
   2268c:	b0a3      	sub	sp, #140	@ 0x8c
   2268e:	4604      	mov	r4, r0
   22690:	466d      	mov	r5, sp
   22692:	264d      	movs	r6, #77	@ 0x4d
   22694:	4628      	mov	r0, r5
   22696:	4632      	mov	r2, r6
   22698:	f005 fadd 	bl	27c56 <__aeabi_memcpy>
   2269c:	a814      	add	r0, sp, #80	@ 0x50
   2269e:	213c      	movs	r1, #60	@ 0x3c
   226a0:	f005 f92c 	bl	278fc <__aeabi_memclr4>
   226a4:	4824      	ldr	r0, [pc, #144]	@ (22738 <_ZN18complex_no_dynamic3app17h88f3be9008ba137fE+0xb0>)
   226a6:	2104      	movs	r1, #4
   226a8:	462a      	mov	r2, r5
   226aa:	4633      	mov	r3, r6
   226ac:	df04      	svc	4
   226ae:	2802      	cmp	r0, #2
   226b0:	d00e      	beq.n	226d0 <_ZN18complex_no_dynamic3app17h88f3be9008ba137fE+0x48>
   226b2:	4821      	ldr	r0, [pc, #132]	@ (22738 <_ZN18complex_no_dynamic3app17h88f3be9008ba137fE+0xb0>)
   226b4:	2109      	movs	r1, #9
   226b6:	aa14      	add	r2, sp, #80	@ 0x50
   226b8:	233c      	movs	r3, #60	@ 0x3c
   226ba:	df03      	svc	3
   226bc:	2802      	cmp	r0, #2
   226be:	d007      	beq.n	226d0 <_ZN18complex_no_dynamic3app17h88f3be9008ba137fE+0x48>
   226c0:	481d      	ldr	r0, [pc, #116]	@ (22738 <_ZN18complex_no_dynamic3app17h88f3be9008ba137fE+0xb0>)
   226c2:	2104      	movs	r1, #4
   226c4:	2209      	movs	r2, #9
   226c6:	2500      	movs	r5, #0
   226c8:	462b      	mov	r3, r5
   226ca:	df02      	svc	2
   226cc:	287f      	cmp	r0, #127	@ 0x7f
   226ce:	d813      	bhi.n	226f8 <_ZN18complex_no_dynamic3app17h88f3be9008ba137fE+0x70>
   226d0:	2501      	movs	r5, #1
   226d2:	2d00      	cmp	r5, #0
   226d4:	d017      	beq.n	22706 <_ZN18complex_no_dynamic3app17h88f3be9008ba137fE+0x7e>
   226d6:	2001      	movs	r0, #1
   226d8:	7020      	strb	r0, [r4, #0]
   226da:	6061      	str	r1, [r4, #4]
   226dc:	4c16      	ldr	r4, [pc, #88]	@ (22738 <_ZN18complex_no_dynamic3app17h88f3be9008ba137fE+0xb0>)
   226de:	2109      	movs	r1, #9
   226e0:	2500      	movs	r5, #0
   226e2:	4620      	mov	r0, r4
   226e4:	462a      	mov	r2, r5
   226e6:	462b      	mov	r3, r5
   226e8:	df03      	svc	3
   226ea:	2104      	movs	r1, #4
   226ec:	4620      	mov	r0, r4
   226ee:	462a      	mov	r2, r5
   226f0:	462b      	mov	r3, r5
   226f2:	df04      	svc	4
   226f4:	b023      	add	sp, #140	@ 0x8c
   226f6:	bdf0      	pop	{r4, r5, r6, r7, pc}
   226f8:	480f      	ldr	r0, [pc, #60]	@ (22738 <_ZN18complex_no_dynamic3app17h88f3be9008ba137fE+0xb0>)
   226fa:	2109      	movs	r1, #9
   226fc:	462a      	mov	r2, r5
   226fe:	462b      	mov	r3, r5
   22700:	df03      	svc	3
   22702:	2d00      	cmp	r5, #0
   22704:	d1e7      	bne.n	226d6 <_ZN18complex_no_dynamic3app17h88f3be9008ba137fE+0x4e>
   22706:	480c      	ldr	r0, [pc, #48]	@ (22738 <_ZN18complex_no_dynamic3app17h88f3be9008ba137fE+0xb0>)
   22708:	2609      	movs	r6, #9
   2270a:	2500      	movs	r5, #0
   2270c:	4631      	mov	r1, r6
   2270e:	462a      	mov	r2, r5
   22710:	462b      	mov	r3, r5
   22712:	df03      	svc	3
   22714:	1c60      	adds	r0, r4, #1
   22716:	a914      	add	r1, sp, #80	@ 0x50
   22718:	223c      	movs	r2, #60	@ 0x3c
   2271a:	f005 fa9c 	bl	27c56 <__aeabi_memcpy>
   2271e:	7025      	strb	r5, [r4, #0]
   22720:	4805      	ldr	r0, [pc, #20]	@ (22738 <_ZN18complex_no_dynamic3app17h88f3be9008ba137fE+0xb0>)
   22722:	4631      	mov	r1, r6
   22724:	462a      	mov	r2, r5
   22726:	462b      	mov	r3, r5
   22728:	df03      	svc	3
   2272a:	2104      	movs	r1, #4
   2272c:	4802      	ldr	r0, [pc, #8]	@ (22738 <_ZN18complex_no_dynamic3app17h88f3be9008ba137fE+0xb0>)
   2272e:	462a      	mov	r2, r5
   22730:	462b      	mov	r3, r5
   22732:	df04      	svc	4
   22734:	b023      	add	sp, #140	@ 0x8c
   22736:	bdf0      	pop	{r4, r5, r6, r7, pc}
   22738:	000021ab 	.word	0x000021ab

0002273c <_ZN18complex_no_dynamic3app17h8db17bbe0fa029e6E>:
   2273c:	b5f0      	push	{r4, r5, r6, r7, lr}
   2273e:	af03      	add	r7, sp, #12
   22740:	b09d      	sub	sp, #116	@ 0x74
   22742:	4604      	mov	r4, r0
   22744:	466d      	mov	r5, sp
   22746:	2640      	movs	r6, #64	@ 0x40
   22748:	4628      	mov	r0, r5
   2274a:	4632      	mov	r2, r6
   2274c:	f005 fa83 	bl	27c56 <__aeabi_memcpy>
   22750:	a810      	add	r0, sp, #64	@ 0x40
   22752:	2131      	movs	r1, #49	@ 0x31
   22754:	f005 f8d2 	bl	278fc <__aeabi_memclr4>
   22758:	4824      	ldr	r0, [pc, #144]	@ (227ec <_ZN18complex_no_dynamic3app17h8db17bbe0fa029e6E+0xb0>)
   2275a:	2108      	movs	r1, #8
   2275c:	462a      	mov	r2, r5
   2275e:	4633      	mov	r3, r6
   22760:	df04      	svc	4
   22762:	2802      	cmp	r0, #2
   22764:	d00e      	beq.n	22784 <_ZN18complex_no_dynamic3app17h8db17bbe0fa029e6E+0x48>
   22766:	4821      	ldr	r0, [pc, #132]	@ (227ec <_ZN18complex_no_dynamic3app17h8db17bbe0fa029e6E+0xb0>)
   22768:	2105      	movs	r1, #5
   2276a:	aa10      	add	r2, sp, #64	@ 0x40
   2276c:	2331      	movs	r3, #49	@ 0x31
   2276e:	df03      	svc	3
   22770:	2802      	cmp	r0, #2
   22772:	d007      	beq.n	22784 <_ZN18complex_no_dynamic3app17h8db17bbe0fa029e6E+0x48>
   22774:	481d      	ldr	r0, [pc, #116]	@ (227ec <_ZN18complex_no_dynamic3app17h8db17bbe0fa029e6E+0xb0>)
   22776:	2108      	movs	r1, #8
   22778:	2205      	movs	r2, #5
   2277a:	2500      	movs	r5, #0
   2277c:	462b      	mov	r3, r5
   2277e:	df02      	svc	2
   22780:	287f      	cmp	r0, #127	@ 0x7f
   22782:	d813      	bhi.n	227ac <_ZN18complex_no_dynamic3app17h8db17bbe0fa029e6E+0x70>
   22784:	2501      	movs	r5, #1
   22786:	2d00      	cmp	r5, #0
   22788:	d017      	beq.n	227ba <_ZN18complex_no_dynamic3app17h8db17bbe0fa029e6E+0x7e>
   2278a:	2001      	movs	r0, #1
   2278c:	7020      	strb	r0, [r4, #0]
   2278e:	6061      	str	r1, [r4, #4]
   22790:	4c16      	ldr	r4, [pc, #88]	@ (227ec <_ZN18complex_no_dynamic3app17h8db17bbe0fa029e6E+0xb0>)
   22792:	2105      	movs	r1, #5
   22794:	2500      	movs	r5, #0
   22796:	4620      	mov	r0, r4
   22798:	462a      	mov	r2, r5
   2279a:	462b      	mov	r3, r5
   2279c:	df03      	svc	3
   2279e:	2108      	movs	r1, #8
   227a0:	4620      	mov	r0, r4
   227a2:	462a      	mov	r2, r5
   227a4:	462b      	mov	r3, r5
   227a6:	df04      	svc	4
   227a8:	b01d      	add	sp, #116	@ 0x74
   227aa:	bdf0      	pop	{r4, r5, r6, r7, pc}
   227ac:	480f      	ldr	r0, [pc, #60]	@ (227ec <_ZN18complex_no_dynamic3app17h8db17bbe0fa029e6E+0xb0>)
   227ae:	2105      	movs	r1, #5
   227b0:	462a      	mov	r2, r5
   227b2:	462b      	mov	r3, r5
   227b4:	df03      	svc	3
   227b6:	2d00      	cmp	r5, #0
   227b8:	d1e7      	bne.n	2278a <_ZN18complex_no_dynamic3app17h8db17bbe0fa029e6E+0x4e>
   227ba:	480c      	ldr	r0, [pc, #48]	@ (227ec <_ZN18complex_no_dynamic3app17h8db17bbe0fa029e6E+0xb0>)
   227bc:	2605      	movs	r6, #5
   227be:	2500      	movs	r5, #0
   227c0:	4631      	mov	r1, r6
   227c2:	462a      	mov	r2, r5
   227c4:	462b      	mov	r3, r5
   227c6:	df03      	svc	3
   227c8:	1c60      	adds	r0, r4, #1
   227ca:	a910      	add	r1, sp, #64	@ 0x40
   227cc:	2231      	movs	r2, #49	@ 0x31
   227ce:	f005 fa42 	bl	27c56 <__aeabi_memcpy>
   227d2:	7025      	strb	r5, [r4, #0]
   227d4:	4805      	ldr	r0, [pc, #20]	@ (227ec <_ZN18complex_no_dynamic3app17h8db17bbe0fa029e6E+0xb0>)
   227d6:	4631      	mov	r1, r6
   227d8:	462a      	mov	r2, r5
   227da:	462b      	mov	r3, r5
   227dc:	df03      	svc	3
   227de:	2108      	movs	r1, #8
   227e0:	4802      	ldr	r0, [pc, #8]	@ (227ec <_ZN18complex_no_dynamic3app17h8db17bbe0fa029e6E+0xb0>)
   227e2:	462a      	mov	r2, r5
   227e4:	462b      	mov	r3, r5
   227e6:	df04      	svc	4
   227e8:	b01d      	add	sp, #116	@ 0x74
   227ea:	bdf0      	pop	{r4, r5, r6, r7, pc}
   227ec:	00000fce 	.word	0x00000fce

000227f0 <_ZN18complex_no_dynamic3app17h92a9a19f1679a797E>:
   227f0:	b5f0      	push	{r4, r5, r6, r7, lr}
   227f2:	af03      	add	r7, sp, #12
   227f4:	b091      	sub	sp, #68	@ 0x44
   227f6:	4604      	mov	r4, r0
   227f8:	466d      	mov	r5, sp
   227fa:	261e      	movs	r6, #30
   227fc:	4628      	mov	r0, r5
   227fe:	4632      	mov	r2, r6
   22800:	f005 fa29 	bl	27c56 <__aeabi_memcpy>
   22804:	a808      	add	r0, sp, #32
   22806:	2121      	movs	r1, #33	@ 0x21
   22808:	f005 f878 	bl	278fc <__aeabi_memclr4>
   2280c:	4824      	ldr	r0, [pc, #144]	@ (228a0 <_ZN18complex_no_dynamic3app17h92a9a19f1679a797E+0xb0>)
   2280e:	2106      	movs	r1, #6
   22810:	462a      	mov	r2, r5
   22812:	4633      	mov	r3, r6
   22814:	df04      	svc	4
   22816:	2802      	cmp	r0, #2
   22818:	d00e      	beq.n	22838 <_ZN18complex_no_dynamic3app17h92a9a19f1679a797E+0x48>
   2281a:	4821      	ldr	r0, [pc, #132]	@ (228a0 <_ZN18complex_no_dynamic3app17h92a9a19f1679a797E+0xb0>)
   2281c:	2109      	movs	r1, #9
   2281e:	aa08      	add	r2, sp, #32
   22820:	2321      	movs	r3, #33	@ 0x21
   22822:	df03      	svc	3
   22824:	2802      	cmp	r0, #2
   22826:	d007      	beq.n	22838 <_ZN18complex_no_dynamic3app17h92a9a19f1679a797E+0x48>
   22828:	481d      	ldr	r0, [pc, #116]	@ (228a0 <_ZN18complex_no_dynamic3app17h92a9a19f1679a797E+0xb0>)
   2282a:	2106      	movs	r1, #6
   2282c:	2209      	movs	r2, #9
   2282e:	2500      	movs	r5, #0
   22830:	462b      	mov	r3, r5
   22832:	df02      	svc	2
   22834:	287f      	cmp	r0, #127	@ 0x7f
   22836:	d813      	bhi.n	22860 <_ZN18complex_no_dynamic3app17h92a9a19f1679a797E+0x70>
   22838:	2501      	movs	r5, #1
   2283a:	2d00      	cmp	r5, #0
   2283c:	d017      	beq.n	2286e <_ZN18complex_no_dynamic3app17h92a9a19f1679a797E+0x7e>
   2283e:	2001      	movs	r0, #1
   22840:	7020      	strb	r0, [r4, #0]
   22842:	6061      	str	r1, [r4, #4]
   22844:	4c16      	ldr	r4, [pc, #88]	@ (228a0 <_ZN18complex_no_dynamic3app17h92a9a19f1679a797E+0xb0>)
   22846:	2109      	movs	r1, #9
   22848:	2500      	movs	r5, #0
   2284a:	4620      	mov	r0, r4
   2284c:	462a      	mov	r2, r5
   2284e:	462b      	mov	r3, r5
   22850:	df03      	svc	3
   22852:	2106      	movs	r1, #6
   22854:	4620      	mov	r0, r4
   22856:	462a      	mov	r2, r5
   22858:	462b      	mov	r3, r5
   2285a:	df04      	svc	4
   2285c:	b011      	add	sp, #68	@ 0x44
   2285e:	bdf0      	pop	{r4, r5, r6, r7, pc}
   22860:	480f      	ldr	r0, [pc, #60]	@ (228a0 <_ZN18complex_no_dynamic3app17h92a9a19f1679a797E+0xb0>)
   22862:	2109      	movs	r1, #9
   22864:	462a      	mov	r2, r5
   22866:	462b      	mov	r3, r5
   22868:	df03      	svc	3
   2286a:	2d00      	cmp	r5, #0
   2286c:	d1e7      	bne.n	2283e <_ZN18complex_no_dynamic3app17h92a9a19f1679a797E+0x4e>
   2286e:	480c      	ldr	r0, [pc, #48]	@ (228a0 <_ZN18complex_no_dynamic3app17h92a9a19f1679a797E+0xb0>)
   22870:	2609      	movs	r6, #9
   22872:	2500      	movs	r5, #0
   22874:	4631      	mov	r1, r6
   22876:	462a      	mov	r2, r5
   22878:	462b      	mov	r3, r5
   2287a:	df03      	svc	3
   2287c:	1c60      	adds	r0, r4, #1
   2287e:	a908      	add	r1, sp, #32
   22880:	2221      	movs	r2, #33	@ 0x21
   22882:	f005 f9e8 	bl	27c56 <__aeabi_memcpy>
   22886:	7025      	strb	r5, [r4, #0]
   22888:	4805      	ldr	r0, [pc, #20]	@ (228a0 <_ZN18complex_no_dynamic3app17h92a9a19f1679a797E+0xb0>)
   2288a:	4631      	mov	r1, r6
   2288c:	462a      	mov	r2, r5
   2288e:	462b      	mov	r3, r5
   22890:	df03      	svc	3
   22892:	2106      	movs	r1, #6
   22894:	4802      	ldr	r0, [pc, #8]	@ (228a0 <_ZN18complex_no_dynamic3app17h92a9a19f1679a797E+0xb0>)
   22896:	462a      	mov	r2, r5
   22898:	462b      	mov	r3, r5
   2289a:	df04      	svc	4
   2289c:	b011      	add	sp, #68	@ 0x44
   2289e:	bdf0      	pop	{r4, r5, r6, r7, pc}
   228a0:	000019b5 	.word	0x000019b5

000228a4 <_ZN18complex_no_dynamic3app17h9776aa3695ab8350E>:
   228a4:	b5f0      	push	{r4, r5, r6, r7, lr}
   228a6:	af03      	add	r7, sp, #12
   228a8:	b09b      	sub	sp, #108	@ 0x6c
   228aa:	9002      	str	r0, [sp, #8]
   228ac:	ae03      	add	r6, sp, #12
   228ae:	241b      	movs	r4, #27
   228b0:	4630      	mov	r0, r6
   228b2:	4622      	mov	r2, r4
   228b4:	f005 f9cf 	bl	27c56 <__aeabi_memcpy>
   228b8:	a80a      	add	r0, sp, #40	@ 0x28
   228ba:	2141      	movs	r1, #65	@ 0x41
   228bc:	f005 f81e 	bl	278fc <__aeabi_memclr4>
   228c0:	2005      	movs	r0, #5
   228c2:	0185      	lsls	r5, r0, #6
   228c4:	2108      	movs	r1, #8
   228c6:	4628      	mov	r0, r5
   228c8:	4632      	mov	r2, r6
   228ca:	4623      	mov	r3, r4
   228cc:	df04      	svc	4
   228ce:	2802      	cmp	r0, #2
   228d0:	d00e      	beq.n	228f0 <_ZN18complex_no_dynamic3app17h9776aa3695ab8350E+0x4c>
   228d2:	2109      	movs	r1, #9
   228d4:	aa0a      	add	r2, sp, #40	@ 0x28
   228d6:	2341      	movs	r3, #65	@ 0x41
   228d8:	4628      	mov	r0, r5
   228da:	df03      	svc	3
   228dc:	2802      	cmp	r0, #2
   228de:	d007      	beq.n	228f0 <_ZN18complex_no_dynamic3app17h9776aa3695ab8350E+0x4c>
   228e0:	2108      	movs	r1, #8
   228e2:	2209      	movs	r2, #9
   228e4:	2600      	movs	r6, #0
   228e6:	4628      	mov	r0, r5
   228e8:	4633      	mov	r3, r6
   228ea:	df02      	svc	2
   228ec:	287f      	cmp	r0, #127	@ 0x7f
   228ee:	d813      	bhi.n	22918 <_ZN18complex_no_dynamic3app17h9776aa3695ab8350E+0x74>
   228f0:	2601      	movs	r6, #1
   228f2:	2e00      	cmp	r6, #0
   228f4:	d017      	beq.n	22926 <_ZN18complex_no_dynamic3app17h9776aa3695ab8350E+0x82>
   228f6:	2001      	movs	r0, #1
   228f8:	9a02      	ldr	r2, [sp, #8]
   228fa:	7010      	strb	r0, [r2, #0]
   228fc:	6051      	str	r1, [r2, #4]
   228fe:	2109      	movs	r1, #9
   22900:	2400      	movs	r4, #0
   22902:	4628      	mov	r0, r5
   22904:	4622      	mov	r2, r4
   22906:	4623      	mov	r3, r4
   22908:	df03      	svc	3
   2290a:	2108      	movs	r1, #8
   2290c:	4628      	mov	r0, r5
   2290e:	4622      	mov	r2, r4
   22910:	4623      	mov	r3, r4
   22912:	df04      	svc	4
   22914:	b01b      	add	sp, #108	@ 0x6c
   22916:	bdf0      	pop	{r4, r5, r6, r7, pc}
   22918:	2109      	movs	r1, #9
   2291a:	4628      	mov	r0, r5
   2291c:	4632      	mov	r2, r6
   2291e:	4633      	mov	r3, r6
   22920:	df03      	svc	3
   22922:	2e00      	cmp	r6, #0
   22924:	d1e7      	bne.n	228f6 <_ZN18complex_no_dynamic3app17h9776aa3695ab8350E+0x52>
   22926:	2109      	movs	r1, #9
   22928:	9101      	str	r1, [sp, #4]
   2292a:	2600      	movs	r6, #0
   2292c:	4628      	mov	r0, r5
   2292e:	4632      	mov	r2, r6
   22930:	4633      	mov	r3, r6
   22932:	df03      	svc	3
   22934:	9c02      	ldr	r4, [sp, #8]
   22936:	1c60      	adds	r0, r4, #1
   22938:	a90a      	add	r1, sp, #40	@ 0x28
   2293a:	2241      	movs	r2, #65	@ 0x41
   2293c:	f005 f98b 	bl	27c56 <__aeabi_memcpy>
   22940:	7026      	strb	r6, [r4, #0]
   22942:	4628      	mov	r0, r5
   22944:	9901      	ldr	r1, [sp, #4]
   22946:	4632      	mov	r2, r6
   22948:	4633      	mov	r3, r6
   2294a:	df03      	svc	3
   2294c:	2108      	movs	r1, #8
   2294e:	4628      	mov	r0, r5
   22950:	4632      	mov	r2, r6
   22952:	4633      	mov	r3, r6
   22954:	df04      	svc	4
   22956:	b01b      	add	sp, #108	@ 0x6c
   22958:	bdf0      	pop	{r4, r5, r6, r7, pc}
   2295a:	d4d4      	bmi.n	22906 <_ZN18complex_no_dynamic3app17h9776aa3695ab8350E+0x62>

0002295c <_ZN18complex_no_dynamic3app17h99e2db3eeecd8ed9E>:
   2295c:	b5f0      	push	{r4, r5, r6, r7, lr}
   2295e:	af03      	add	r7, sp, #12
   22960:	b0a1      	sub	sp, #132	@ 0x84
   22962:	4604      	mov	r4, r0
   22964:	466d      	mov	r5, sp
   22966:	262d      	movs	r6, #45	@ 0x2d
   22968:	4628      	mov	r0, r5
   2296a:	4632      	mov	r2, r6
   2296c:	f005 f973 	bl	27c56 <__aeabi_memcpy>
   22970:	a80c      	add	r0, sp, #48	@ 0x30
   22972:	2153      	movs	r1, #83	@ 0x53
   22974:	f004 ffc2 	bl	278fc <__aeabi_memclr4>
   22978:	4824      	ldr	r0, [pc, #144]	@ (22a0c <_ZN18complex_no_dynamic3app17h99e2db3eeecd8ed9E+0xb0>)
   2297a:	2102      	movs	r1, #2
   2297c:	462a      	mov	r2, r5
   2297e:	4633      	mov	r3, r6
   22980:	df04      	svc	4
   22982:	2802      	cmp	r0, #2
   22984:	d00e      	beq.n	229a4 <_ZN18complex_no_dynamic3app17h99e2db3eeecd8ed9E+0x48>
   22986:	4821      	ldr	r0, [pc, #132]	@ (22a0c <_ZN18complex_no_dynamic3app17h99e2db3eeecd8ed9E+0xb0>)
   22988:	2107      	movs	r1, #7
   2298a:	aa0c      	add	r2, sp, #48	@ 0x30
   2298c:	2353      	movs	r3, #83	@ 0x53
   2298e:	df03      	svc	3
   22990:	2802      	cmp	r0, #2
   22992:	d007      	beq.n	229a4 <_ZN18complex_no_dynamic3app17h99e2db3eeecd8ed9E+0x48>
   22994:	481d      	ldr	r0, [pc, #116]	@ (22a0c <_ZN18complex_no_dynamic3app17h99e2db3eeecd8ed9E+0xb0>)
   22996:	2102      	movs	r1, #2
   22998:	2207      	movs	r2, #7
   2299a:	2500      	movs	r5, #0
   2299c:	462b      	mov	r3, r5
   2299e:	df02      	svc	2
   229a0:	287f      	cmp	r0, #127	@ 0x7f
   229a2:	d813      	bhi.n	229cc <_ZN18complex_no_dynamic3app17h99e2db3eeecd8ed9E+0x70>
   229a4:	2501      	movs	r5, #1
   229a6:	2d00      	cmp	r5, #0
   229a8:	d017      	beq.n	229da <_ZN18complex_no_dynamic3app17h99e2db3eeecd8ed9E+0x7e>
   229aa:	2001      	movs	r0, #1
   229ac:	7020      	strb	r0, [r4, #0]
   229ae:	6061      	str	r1, [r4, #4]
   229b0:	4c16      	ldr	r4, [pc, #88]	@ (22a0c <_ZN18complex_no_dynamic3app17h99e2db3eeecd8ed9E+0xb0>)
   229b2:	2107      	movs	r1, #7
   229b4:	2500      	movs	r5, #0
   229b6:	4620      	mov	r0, r4
   229b8:	462a      	mov	r2, r5
   229ba:	462b      	mov	r3, r5
   229bc:	df03      	svc	3
   229be:	2102      	movs	r1, #2
   229c0:	4620      	mov	r0, r4
   229c2:	462a      	mov	r2, r5
   229c4:	462b      	mov	r3, r5
   229c6:	df04      	svc	4
   229c8:	b021      	add	sp, #132	@ 0x84
   229ca:	bdf0      	pop	{r4, r5, r6, r7, pc}
   229cc:	480f      	ldr	r0, [pc, #60]	@ (22a0c <_ZN18complex_no_dynamic3app17h99e2db3eeecd8ed9E+0xb0>)
   229ce:	2107      	movs	r1, #7
   229d0:	462a      	mov	r2, r5
   229d2:	462b      	mov	r3, r5
   229d4:	df03      	svc	3
   229d6:	2d00      	cmp	r5, #0
   229d8:	d1e7      	bne.n	229aa <_ZN18complex_no_dynamic3app17h99e2db3eeecd8ed9E+0x4e>
   229da:	480c      	ldr	r0, [pc, #48]	@ (22a0c <_ZN18complex_no_dynamic3app17h99e2db3eeecd8ed9E+0xb0>)
   229dc:	2607      	movs	r6, #7
   229de:	2500      	movs	r5, #0
   229e0:	4631      	mov	r1, r6
   229e2:	462a      	mov	r2, r5
   229e4:	462b      	mov	r3, r5
   229e6:	df03      	svc	3
   229e8:	1c60      	adds	r0, r4, #1
   229ea:	a90c      	add	r1, sp, #48	@ 0x30
   229ec:	2253      	movs	r2, #83	@ 0x53
   229ee:	f005 f932 	bl	27c56 <__aeabi_memcpy>
   229f2:	7025      	strb	r5, [r4, #0]
   229f4:	4805      	ldr	r0, [pc, #20]	@ (22a0c <_ZN18complex_no_dynamic3app17h99e2db3eeecd8ed9E+0xb0>)
   229f6:	4631      	mov	r1, r6
   229f8:	462a      	mov	r2, r5
   229fa:	462b      	mov	r3, r5
   229fc:	df03      	svc	3
   229fe:	2102      	movs	r1, #2
   22a00:	4802      	ldr	r0, [pc, #8]	@ (22a0c <_ZN18complex_no_dynamic3app17h99e2db3eeecd8ed9E+0xb0>)
   22a02:	462a      	mov	r2, r5
   22a04:	462b      	mov	r3, r5
   22a06:	df04      	svc	4
   22a08:	b021      	add	sp, #132	@ 0x84
   22a0a:	bdf0      	pop	{r4, r5, r6, r7, pc}
   22a0c:	00000ec3 	.word	0x00000ec3

00022a10 <_ZN18complex_no_dynamic3app17h9a6faf4f3fe90f09E>:
   22a10:	b5f0      	push	{r4, r5, r6, r7, lr}
   22a12:	af03      	add	r7, sp, #12
   22a14:	b09f      	sub	sp, #124	@ 0x7c
   22a16:	4604      	mov	r4, r0
   22a18:	466d      	mov	r5, sp
   22a1a:	261c      	movs	r6, #28
   22a1c:	4628      	mov	r0, r5
   22a1e:	4632      	mov	r2, r6
   22a20:	f005 f919 	bl	27c56 <__aeabi_memcpy>
   22a24:	a807      	add	r0, sp, #28
   22a26:	215d      	movs	r1, #93	@ 0x5d
   22a28:	f004 ff68 	bl	278fc <__aeabi_memclr4>
   22a2c:	4824      	ldr	r0, [pc, #144]	@ (22ac0 <_ZN18complex_no_dynamic3app17h9a6faf4f3fe90f09E+0xb0>)
   22a2e:	2108      	movs	r1, #8
   22a30:	462a      	mov	r2, r5
   22a32:	4633      	mov	r3, r6
   22a34:	df04      	svc	4
   22a36:	2802      	cmp	r0, #2
   22a38:	d00e      	beq.n	22a58 <_ZN18complex_no_dynamic3app17h9a6faf4f3fe90f09E+0x48>
   22a3a:	4821      	ldr	r0, [pc, #132]	@ (22ac0 <_ZN18complex_no_dynamic3app17h9a6faf4f3fe90f09E+0xb0>)
   22a3c:	2105      	movs	r1, #5
   22a3e:	aa07      	add	r2, sp, #28
   22a40:	235d      	movs	r3, #93	@ 0x5d
   22a42:	df03      	svc	3
   22a44:	2802      	cmp	r0, #2
   22a46:	d007      	beq.n	22a58 <_ZN18complex_no_dynamic3app17h9a6faf4f3fe90f09E+0x48>
   22a48:	481d      	ldr	r0, [pc, #116]	@ (22ac0 <_ZN18complex_no_dynamic3app17h9a6faf4f3fe90f09E+0xb0>)
   22a4a:	2108      	movs	r1, #8
   22a4c:	2205      	movs	r2, #5
   22a4e:	2500      	movs	r5, #0
   22a50:	462b      	mov	r3, r5
   22a52:	df02      	svc	2
   22a54:	287f      	cmp	r0, #127	@ 0x7f
   22a56:	d813      	bhi.n	22a80 <_ZN18complex_no_dynamic3app17h9a6faf4f3fe90f09E+0x70>
   22a58:	2501      	movs	r5, #1
   22a5a:	2d00      	cmp	r5, #0
   22a5c:	d017      	beq.n	22a8e <_ZN18complex_no_dynamic3app17h9a6faf4f3fe90f09E+0x7e>
   22a5e:	2001      	movs	r0, #1
   22a60:	7020      	strb	r0, [r4, #0]
   22a62:	6061      	str	r1, [r4, #4]
   22a64:	4c16      	ldr	r4, [pc, #88]	@ (22ac0 <_ZN18complex_no_dynamic3app17h9a6faf4f3fe90f09E+0xb0>)
   22a66:	2105      	movs	r1, #5
   22a68:	2500      	movs	r5, #0
   22a6a:	4620      	mov	r0, r4
   22a6c:	462a      	mov	r2, r5
   22a6e:	462b      	mov	r3, r5
   22a70:	df03      	svc	3
   22a72:	2108      	movs	r1, #8
   22a74:	4620      	mov	r0, r4
   22a76:	462a      	mov	r2, r5
   22a78:	462b      	mov	r3, r5
   22a7a:	df04      	svc	4
   22a7c:	b01f      	add	sp, #124	@ 0x7c
   22a7e:	bdf0      	pop	{r4, r5, r6, r7, pc}
   22a80:	480f      	ldr	r0, [pc, #60]	@ (22ac0 <_ZN18complex_no_dynamic3app17h9a6faf4f3fe90f09E+0xb0>)
   22a82:	2105      	movs	r1, #5
   22a84:	462a      	mov	r2, r5
   22a86:	462b      	mov	r3, r5
   22a88:	df03      	svc	3
   22a8a:	2d00      	cmp	r5, #0
   22a8c:	d1e7      	bne.n	22a5e <_ZN18complex_no_dynamic3app17h9a6faf4f3fe90f09E+0x4e>
   22a8e:	480c      	ldr	r0, [pc, #48]	@ (22ac0 <_ZN18complex_no_dynamic3app17h9a6faf4f3fe90f09E+0xb0>)
   22a90:	2605      	movs	r6, #5
   22a92:	2500      	movs	r5, #0
   22a94:	4631      	mov	r1, r6
   22a96:	462a      	mov	r2, r5
   22a98:	462b      	mov	r3, r5
   22a9a:	df03      	svc	3
   22a9c:	1c60      	adds	r0, r4, #1
   22a9e:	a907      	add	r1, sp, #28
   22aa0:	225d      	movs	r2, #93	@ 0x5d
   22aa2:	f005 f8d8 	bl	27c56 <__aeabi_memcpy>
   22aa6:	7025      	strb	r5, [r4, #0]
   22aa8:	4805      	ldr	r0, [pc, #20]	@ (22ac0 <_ZN18complex_no_dynamic3app17h9a6faf4f3fe90f09E+0xb0>)
   22aaa:	4631      	mov	r1, r6
   22aac:	462a      	mov	r2, r5
   22aae:	462b      	mov	r3, r5
   22ab0:	df03      	svc	3
   22ab2:	2108      	movs	r1, #8
   22ab4:	4802      	ldr	r0, [pc, #8]	@ (22ac0 <_ZN18complex_no_dynamic3app17h9a6faf4f3fe90f09E+0xb0>)
   22ab6:	462a      	mov	r2, r5
   22ab8:	462b      	mov	r3, r5
   22aba:	df04      	svc	4
   22abc:	b01f      	add	sp, #124	@ 0x7c
   22abe:	bdf0      	pop	{r4, r5, r6, r7, pc}
   22ac0:	00000c3e 	.word	0x00000c3e

00022ac4 <_ZN18complex_no_dynamic3app17h9f84577d91cba90fE>:
   22ac4:	b5f0      	push	{r4, r5, r6, r7, lr}
   22ac6:	af03      	add	r7, sp, #12
   22ac8:	b09f      	sub	sp, #124	@ 0x7c
   22aca:	9001      	str	r0, [sp, #4]
   22acc:	ae02      	add	r6, sp, #8
   22ace:	245d      	movs	r4, #93	@ 0x5d
   22ad0:	4630      	mov	r0, r6
   22ad2:	4622      	mov	r2, r4
   22ad4:	f005 f8bf 	bl	27c56 <__aeabi_memcpy>
   22ad8:	a81a      	add	r0, sp, #104	@ 0x68
   22ada:	2500      	movs	r5, #0
   22adc:	8205      	strh	r5, [r0, #16]
   22ade:	951d      	str	r5, [sp, #116]	@ 0x74
   22ae0:	951c      	str	r5, [sp, #112]	@ 0x70
   22ae2:	951b      	str	r5, [sp, #108]	@ 0x6c
   22ae4:	951a      	str	r5, [sp, #104]	@ 0x68
   22ae6:	4826      	ldr	r0, [pc, #152]	@ (22b80 <_ZN18complex_no_dynamic3app17h9f84577d91cba90fE+0xbc>)
   22ae8:	4629      	mov	r1, r5
   22aea:	4632      	mov	r2, r6
   22aec:	4623      	mov	r3, r4
   22aee:	df04      	svc	4
   22af0:	2802      	cmp	r0, #2
   22af2:	d00e      	beq.n	22b12 <_ZN18complex_no_dynamic3app17h9f84577d91cba90fE+0x4e>
   22af4:	4822      	ldr	r0, [pc, #136]	@ (22b80 <_ZN18complex_no_dynamic3app17h9f84577d91cba90fE+0xbc>)
   22af6:	2102      	movs	r1, #2
   22af8:	aa1a      	add	r2, sp, #104	@ 0x68
   22afa:	2312      	movs	r3, #18
   22afc:	df03      	svc	3
   22afe:	2802      	cmp	r0, #2
   22b00:	d007      	beq.n	22b12 <_ZN18complex_no_dynamic3app17h9f84577d91cba90fE+0x4e>
   22b02:	481f      	ldr	r0, [pc, #124]	@ (22b80 <_ZN18complex_no_dynamic3app17h9f84577d91cba90fE+0xbc>)
   22b04:	2202      	movs	r2, #2
   22b06:	2600      	movs	r6, #0
   22b08:	4631      	mov	r1, r6
   22b0a:	4633      	mov	r3, r6
   22b0c:	df02      	svc	2
   22b0e:	287f      	cmp	r0, #127	@ 0x7f
   22b10:	d814      	bhi.n	22b3c <_ZN18complex_no_dynamic3app17h9f84577d91cba90fE+0x78>
   22b12:	2601      	movs	r6, #1
   22b14:	2e00      	cmp	r6, #0
   22b16:	d018      	beq.n	22b4a <_ZN18complex_no_dynamic3app17h9f84577d91cba90fE+0x86>
   22b18:	2001      	movs	r0, #1
   22b1a:	9a01      	ldr	r2, [sp, #4]
   22b1c:	7010      	strb	r0, [r2, #0]
   22b1e:	6051      	str	r1, [r2, #4]
   22b20:	4c17      	ldr	r4, [pc, #92]	@ (22b80 <_ZN18complex_no_dynamic3app17h9f84577d91cba90fE+0xbc>)
   22b22:	2102      	movs	r1, #2
   22b24:	2500      	movs	r5, #0
   22b26:	4620      	mov	r0, r4
   22b28:	462a      	mov	r2, r5
   22b2a:	462b      	mov	r3, r5
   22b2c:	df03      	svc	3
   22b2e:	4620      	mov	r0, r4
   22b30:	4629      	mov	r1, r5
   22b32:	462a      	mov	r2, r5
   22b34:	462b      	mov	r3, r5
   22b36:	df04      	svc	4
   22b38:	b01f      	add	sp, #124	@ 0x7c
   22b3a:	bdf0      	pop	{r4, r5, r6, r7, pc}
   22b3c:	4810      	ldr	r0, [pc, #64]	@ (22b80 <_ZN18complex_no_dynamic3app17h9f84577d91cba90fE+0xbc>)
   22b3e:	2102      	movs	r1, #2
   22b40:	4632      	mov	r2, r6
   22b42:	4633      	mov	r3, r6
   22b44:	df03      	svc	3
   22b46:	2e00      	cmp	r6, #0
   22b48:	d1e6      	bne.n	22b18 <_ZN18complex_no_dynamic3app17h9f84577d91cba90fE+0x54>
   22b4a:	480d      	ldr	r0, [pc, #52]	@ (22b80 <_ZN18complex_no_dynamic3app17h9f84577d91cba90fE+0xbc>)
   22b4c:	2402      	movs	r4, #2
   22b4e:	4621      	mov	r1, r4
   22b50:	462a      	mov	r2, r5
   22b52:	462b      	mov	r3, r5
   22b54:	df03      	svc	3
   22b56:	9e01      	ldr	r6, [sp, #4]
   22b58:	1c70      	adds	r0, r6, #1
   22b5a:	a91a      	add	r1, sp, #104	@ 0x68
   22b5c:	2212      	movs	r2, #18
   22b5e:	f005 f87a 	bl	27c56 <__aeabi_memcpy>
   22b62:	7035      	strb	r5, [r6, #0]
   22b64:	4e06      	ldr	r6, [pc, #24]	@ (22b80 <_ZN18complex_no_dynamic3app17h9f84577d91cba90fE+0xbc>)
   22b66:	4630      	mov	r0, r6
   22b68:	4621      	mov	r1, r4
   22b6a:	462a      	mov	r2, r5
   22b6c:	462b      	mov	r3, r5
   22b6e:	df03      	svc	3
   22b70:	4630      	mov	r0, r6
   22b72:	4629      	mov	r1, r5
   22b74:	462a      	mov	r2, r5
   22b76:	462b      	mov	r3, r5
   22b78:	df04      	svc	4
   22b7a:	b01f      	add	sp, #124	@ 0x7c
   22b7c:	bdf0      	pop	{r4, r5, r6, r7, pc}
   22b7e:	46c0      	nop			@ (mov r8, r8)
   22b80:	000015f1 	.word	0x000015f1

00022b84 <_ZN18complex_no_dynamic3app17ha0251dbd078f2e6bE>:
   22b84:	b5f0      	push	{r4, r5, r6, r7, lr}
   22b86:	af03      	add	r7, sp, #12
   22b88:	b09f      	sub	sp, #124	@ 0x7c
   22b8a:	4604      	mov	r4, r0
   22b8c:	ad01      	add	r5, sp, #4
   22b8e:	2622      	movs	r6, #34	@ 0x22
   22b90:	4628      	mov	r0, r5
   22b92:	4632      	mov	r2, r6
   22b94:	f005 f85f 	bl	27c56 <__aeabi_memcpy>
   22b98:	a80a      	add	r0, sp, #40	@ 0x28
   22b9a:	2151      	movs	r1, #81	@ 0x51
   22b9c:	f004 feae 	bl	278fc <__aeabi_memclr4>
   22ba0:	4825      	ldr	r0, [pc, #148]	@ (22c38 <_ZN18complex_no_dynamic3app17ha0251dbd078f2e6bE+0xb4>)
   22ba2:	2109      	movs	r1, #9
   22ba4:	462a      	mov	r2, r5
   22ba6:	4633      	mov	r3, r6
   22ba8:	df04      	svc	4
   22baa:	2802      	cmp	r0, #2
   22bac:	d00e      	beq.n	22bcc <_ZN18complex_no_dynamic3app17ha0251dbd078f2e6bE+0x48>
   22bae:	4822      	ldr	r0, [pc, #136]	@ (22c38 <_ZN18complex_no_dynamic3app17ha0251dbd078f2e6bE+0xb4>)
   22bb0:	2109      	movs	r1, #9
   22bb2:	aa0a      	add	r2, sp, #40	@ 0x28
   22bb4:	2351      	movs	r3, #81	@ 0x51
   22bb6:	df03      	svc	3
   22bb8:	2802      	cmp	r0, #2
   22bba:	d007      	beq.n	22bcc <_ZN18complex_no_dynamic3app17ha0251dbd078f2e6bE+0x48>
   22bbc:	481e      	ldr	r0, [pc, #120]	@ (22c38 <_ZN18complex_no_dynamic3app17ha0251dbd078f2e6bE+0xb4>)
   22bbe:	2109      	movs	r1, #9
   22bc0:	2500      	movs	r5, #0
   22bc2:	460a      	mov	r2, r1
   22bc4:	462b      	mov	r3, r5
   22bc6:	df02      	svc	2
   22bc8:	287f      	cmp	r0, #127	@ 0x7f
   22bca:	d814      	bhi.n	22bf6 <_ZN18complex_no_dynamic3app17ha0251dbd078f2e6bE+0x72>
   22bcc:	2501      	movs	r5, #1
   22bce:	2d00      	cmp	r5, #0
   22bd0:	d018      	beq.n	22c04 <_ZN18complex_no_dynamic3app17ha0251dbd078f2e6bE+0x80>
   22bd2:	2001      	movs	r0, #1
   22bd4:	7020      	strb	r0, [r4, #0]
   22bd6:	6061      	str	r1, [r4, #4]
   22bd8:	4c17      	ldr	r4, [pc, #92]	@ (22c38 <_ZN18complex_no_dynamic3app17ha0251dbd078f2e6bE+0xb4>)
   22bda:	2509      	movs	r5, #9
   22bdc:	2600      	movs	r6, #0
   22bde:	4620      	mov	r0, r4
   22be0:	4629      	mov	r1, r5
   22be2:	4632      	mov	r2, r6
   22be4:	4633      	mov	r3, r6
   22be6:	df03      	svc	3
   22be8:	4620      	mov	r0, r4
   22bea:	4629      	mov	r1, r5
   22bec:	4632      	mov	r2, r6
   22bee:	4633      	mov	r3, r6
   22bf0:	df04      	svc	4
   22bf2:	b01f      	add	sp, #124	@ 0x7c
   22bf4:	bdf0      	pop	{r4, r5, r6, r7, pc}
   22bf6:	4810      	ldr	r0, [pc, #64]	@ (22c38 <_ZN18complex_no_dynamic3app17ha0251dbd078f2e6bE+0xb4>)
   22bf8:	2109      	movs	r1, #9
   22bfa:	462a      	mov	r2, r5
   22bfc:	462b      	mov	r3, r5
   22bfe:	df03      	svc	3
   22c00:	2d00      	cmp	r5, #0
   22c02:	d1e6      	bne.n	22bd2 <_ZN18complex_no_dynamic3app17ha0251dbd078f2e6bE+0x4e>
   22c04:	480c      	ldr	r0, [pc, #48]	@ (22c38 <_ZN18complex_no_dynamic3app17ha0251dbd078f2e6bE+0xb4>)
   22c06:	2609      	movs	r6, #9
   22c08:	2500      	movs	r5, #0
   22c0a:	4631      	mov	r1, r6
   22c0c:	462a      	mov	r2, r5
   22c0e:	462b      	mov	r3, r5
   22c10:	df03      	svc	3
   22c12:	1c60      	adds	r0, r4, #1
   22c14:	a90a      	add	r1, sp, #40	@ 0x28
   22c16:	2251      	movs	r2, #81	@ 0x51
   22c18:	f005 f81d 	bl	27c56 <__aeabi_memcpy>
   22c1c:	7025      	strb	r5, [r4, #0]
   22c1e:	4806      	ldr	r0, [pc, #24]	@ (22c38 <_ZN18complex_no_dynamic3app17ha0251dbd078f2e6bE+0xb4>)
   22c20:	4631      	mov	r1, r6
   22c22:	462a      	mov	r2, r5
   22c24:	462b      	mov	r3, r5
   22c26:	df03      	svc	3
   22c28:	4803      	ldr	r0, [pc, #12]	@ (22c38 <_ZN18complex_no_dynamic3app17ha0251dbd078f2e6bE+0xb4>)
   22c2a:	4631      	mov	r1, r6
   22c2c:	462a      	mov	r2, r5
   22c2e:	462b      	mov	r3, r5
   22c30:	df04      	svc	4
   22c32:	b01f      	add	sp, #124	@ 0x7c
   22c34:	bdf0      	pop	{r4, r5, r6, r7, pc}
   22c36:	46c0      	nop			@ (mov r8, r8)
   22c38:	0000055e 	.word	0x0000055e

00022c3c <_ZN18complex_no_dynamic3app17ha02b539b3eae5805E>:
   22c3c:	b5f0      	push	{r4, r5, r6, r7, lr}
   22c3e:	af03      	add	r7, sp, #12
   22c40:	b09f      	sub	sp, #124	@ 0x7c
   22c42:	4604      	mov	r4, r0
   22c44:	466d      	mov	r5, sp
   22c46:	2631      	movs	r6, #49	@ 0x31
   22c48:	4628      	mov	r0, r5
   22c4a:	4632      	mov	r2, r6
   22c4c:	f005 f803 	bl	27c56 <__aeabi_memcpy>
   22c50:	a80d      	add	r0, sp, #52	@ 0x34
   22c52:	2148      	movs	r1, #72	@ 0x48
   22c54:	f004 fe52 	bl	278fc <__aeabi_memclr4>
   22c58:	4824      	ldr	r0, [pc, #144]	@ (22cec <_ZN18complex_no_dynamic3app17ha02b539b3eae5805E+0xb0>)
   22c5a:	2104      	movs	r1, #4
   22c5c:	462a      	mov	r2, r5
   22c5e:	4633      	mov	r3, r6
   22c60:	df04      	svc	4
   22c62:	2802      	cmp	r0, #2
   22c64:	d00e      	beq.n	22c84 <_ZN18complex_no_dynamic3app17ha02b539b3eae5805E+0x48>
   22c66:	4821      	ldr	r0, [pc, #132]	@ (22cec <_ZN18complex_no_dynamic3app17ha02b539b3eae5805E+0xb0>)
   22c68:	2103      	movs	r1, #3
   22c6a:	aa0d      	add	r2, sp, #52	@ 0x34
   22c6c:	2348      	movs	r3, #72	@ 0x48
   22c6e:	df03      	svc	3
   22c70:	2802      	cmp	r0, #2
   22c72:	d007      	beq.n	22c84 <_ZN18complex_no_dynamic3app17ha02b539b3eae5805E+0x48>
   22c74:	481d      	ldr	r0, [pc, #116]	@ (22cec <_ZN18complex_no_dynamic3app17ha02b539b3eae5805E+0xb0>)
   22c76:	2104      	movs	r1, #4
   22c78:	2203      	movs	r2, #3
   22c7a:	2500      	movs	r5, #0
   22c7c:	462b      	mov	r3, r5
   22c7e:	df02      	svc	2
   22c80:	287f      	cmp	r0, #127	@ 0x7f
   22c82:	d813      	bhi.n	22cac <_ZN18complex_no_dynamic3app17ha02b539b3eae5805E+0x70>
   22c84:	2501      	movs	r5, #1
   22c86:	2d00      	cmp	r5, #0
   22c88:	d017      	beq.n	22cba <_ZN18complex_no_dynamic3app17ha02b539b3eae5805E+0x7e>
   22c8a:	2001      	movs	r0, #1
   22c8c:	7020      	strb	r0, [r4, #0]
   22c8e:	6061      	str	r1, [r4, #4]
   22c90:	4c16      	ldr	r4, [pc, #88]	@ (22cec <_ZN18complex_no_dynamic3app17ha02b539b3eae5805E+0xb0>)
   22c92:	2103      	movs	r1, #3
   22c94:	2500      	movs	r5, #0
   22c96:	4620      	mov	r0, r4
   22c98:	462a      	mov	r2, r5
   22c9a:	462b      	mov	r3, r5
   22c9c:	df03      	svc	3
   22c9e:	2104      	movs	r1, #4
   22ca0:	4620      	mov	r0, r4
   22ca2:	462a      	mov	r2, r5
   22ca4:	462b      	mov	r3, r5
   22ca6:	df04      	svc	4
   22ca8:	b01f      	add	sp, #124	@ 0x7c
   22caa:	bdf0      	pop	{r4, r5, r6, r7, pc}
   22cac:	480f      	ldr	r0, [pc, #60]	@ (22cec <_ZN18complex_no_dynamic3app17ha02b539b3eae5805E+0xb0>)
   22cae:	2103      	movs	r1, #3
   22cb0:	462a      	mov	r2, r5
   22cb2:	462b      	mov	r3, r5
   22cb4:	df03      	svc	3
   22cb6:	2d00      	cmp	r5, #0
   22cb8:	d1e7      	bne.n	22c8a <_ZN18complex_no_dynamic3app17ha02b539b3eae5805E+0x4e>
   22cba:	480c      	ldr	r0, [pc, #48]	@ (22cec <_ZN18complex_no_dynamic3app17ha02b539b3eae5805E+0xb0>)
   22cbc:	2603      	movs	r6, #3
   22cbe:	2500      	movs	r5, #0
   22cc0:	4631      	mov	r1, r6
   22cc2:	462a      	mov	r2, r5
   22cc4:	462b      	mov	r3, r5
   22cc6:	df03      	svc	3
   22cc8:	1c60      	adds	r0, r4, #1
   22cca:	a90d      	add	r1, sp, #52	@ 0x34
   22ccc:	2248      	movs	r2, #72	@ 0x48
   22cce:	f004 ffc2 	bl	27c56 <__aeabi_memcpy>
   22cd2:	7025      	strb	r5, [r4, #0]
   22cd4:	4805      	ldr	r0, [pc, #20]	@ (22cec <_ZN18complex_no_dynamic3app17ha02b539b3eae5805E+0xb0>)
   22cd6:	4631      	mov	r1, r6
   22cd8:	462a      	mov	r2, r5
   22cda:	462b      	mov	r3, r5
   22cdc:	df03      	svc	3
   22cde:	2104      	movs	r1, #4
   22ce0:	4802      	ldr	r0, [pc, #8]	@ (22cec <_ZN18complex_no_dynamic3app17ha02b539b3eae5805E+0xb0>)
   22ce2:	462a      	mov	r2, r5
   22ce4:	462b      	mov	r3, r5
   22ce6:	df04      	svc	4
   22ce8:	b01f      	add	sp, #124	@ 0x7c
   22cea:	bdf0      	pop	{r4, r5, r6, r7, pc}
   22cec:	0000180e 	.word	0x0000180e

00022cf0 <_ZN18complex_no_dynamic3app17ha09759f3f37973f7E>:
   22cf0:	b5f0      	push	{r4, r5, r6, r7, lr}
   22cf2:	af03      	add	r7, sp, #12
   22cf4:	b095      	sub	sp, #84	@ 0x54
   22cf6:	9000      	str	r0, [sp, #0]
   22cf8:	ae01      	add	r6, sp, #4
   22cfa:	2421      	movs	r4, #33	@ 0x21
   22cfc:	4630      	mov	r0, r6
   22cfe:	4622      	mov	r2, r4
   22d00:	f004 ffa9 	bl	27c56 <__aeabi_memcpy>
   22d04:	a80a      	add	r0, sp, #40	@ 0x28
   22d06:	212a      	movs	r1, #42	@ 0x2a
   22d08:	f004 fdf8 	bl	278fc <__aeabi_memclr4>
   22d0c:	4826      	ldr	r0, [pc, #152]	@ (22da8 <_ZN18complex_no_dynamic3app17ha09759f3f37973f7E+0xb8>)
   22d0e:	2501      	movs	r5, #1
   22d10:	4629      	mov	r1, r5
   22d12:	4632      	mov	r2, r6
   22d14:	4623      	mov	r3, r4
   22d16:	df04      	svc	4
   22d18:	2802      	cmp	r0, #2
   22d1a:	d015      	beq.n	22d48 <_ZN18complex_no_dynamic3app17ha09759f3f37973f7E+0x58>
   22d1c:	4822      	ldr	r0, [pc, #136]	@ (22da8 <_ZN18complex_no_dynamic3app17ha09759f3f37973f7E+0xb8>)
   22d1e:	2103      	movs	r1, #3
   22d20:	aa0a      	add	r2, sp, #40	@ 0x28
   22d22:	232a      	movs	r3, #42	@ 0x2a
   22d24:	df03      	svc	3
   22d26:	2802      	cmp	r0, #2
   22d28:	d00e      	beq.n	22d48 <_ZN18complex_no_dynamic3app17ha09759f3f37973f7E+0x58>
   22d2a:	481f      	ldr	r0, [pc, #124]	@ (22da8 <_ZN18complex_no_dynamic3app17ha09759f3f37973f7E+0xb8>)
   22d2c:	2501      	movs	r5, #1
   22d2e:	2203      	movs	r2, #3
   22d30:	2600      	movs	r6, #0
   22d32:	4629      	mov	r1, r5
   22d34:	4633      	mov	r3, r6
   22d36:	df02      	svc	2
   22d38:	287f      	cmp	r0, #127	@ 0x7f
   22d3a:	d905      	bls.n	22d48 <_ZN18complex_no_dynamic3app17ha09759f3f37973f7E+0x58>
   22d3c:	481a      	ldr	r0, [pc, #104]	@ (22da8 <_ZN18complex_no_dynamic3app17ha09759f3f37973f7E+0xb8>)
   22d3e:	2103      	movs	r1, #3
   22d40:	4632      	mov	r2, r6
   22d42:	4633      	mov	r3, r6
   22d44:	df03      	svc	3
   22d46:	4635      	mov	r5, r6
   22d48:	2d00      	cmp	r5, #0
   22d4a:	d011      	beq.n	22d70 <_ZN18complex_no_dynamic3app17ha09759f3f37973f7E+0x80>
   22d4c:	2401      	movs	r4, #1
   22d4e:	9800      	ldr	r0, [sp, #0]
   22d50:	7004      	strb	r4, [r0, #0]
   22d52:	6041      	str	r1, [r0, #4]
   22d54:	4d14      	ldr	r5, [pc, #80]	@ (22da8 <_ZN18complex_no_dynamic3app17ha09759f3f37973f7E+0xb8>)
   22d56:	2103      	movs	r1, #3
   22d58:	2600      	movs	r6, #0
   22d5a:	4628      	mov	r0, r5
   22d5c:	4632      	mov	r2, r6
   22d5e:	4633      	mov	r3, r6
   22d60:	df03      	svc	3
   22d62:	4628      	mov	r0, r5
   22d64:	4621      	mov	r1, r4
   22d66:	4632      	mov	r2, r6
   22d68:	4633      	mov	r3, r6
   22d6a:	df04      	svc	4
   22d6c:	b015      	add	sp, #84	@ 0x54
   22d6e:	bdf0      	pop	{r4, r5, r6, r7, pc}
   22d70:	480d      	ldr	r0, [pc, #52]	@ (22da8 <_ZN18complex_no_dynamic3app17ha09759f3f37973f7E+0xb8>)
   22d72:	2403      	movs	r4, #3
   22d74:	2500      	movs	r5, #0
   22d76:	4621      	mov	r1, r4
   22d78:	462a      	mov	r2, r5
   22d7a:	462b      	mov	r3, r5
   22d7c:	df03      	svc	3
   22d7e:	9e00      	ldr	r6, [sp, #0]
   22d80:	1c70      	adds	r0, r6, #1
   22d82:	a90a      	add	r1, sp, #40	@ 0x28
   22d84:	222a      	movs	r2, #42	@ 0x2a
   22d86:	f004 ff66 	bl	27c56 <__aeabi_memcpy>
   22d8a:	7035      	strb	r5, [r6, #0]
   22d8c:	4e06      	ldr	r6, [pc, #24]	@ (22da8 <_ZN18complex_no_dynamic3app17ha09759f3f37973f7E+0xb8>)
   22d8e:	4630      	mov	r0, r6
   22d90:	4621      	mov	r1, r4
   22d92:	462a      	mov	r2, r5
   22d94:	462b      	mov	r3, r5
   22d96:	df03      	svc	3
   22d98:	2101      	movs	r1, #1
   22d9a:	4630      	mov	r0, r6
   22d9c:	462a      	mov	r2, r5
   22d9e:	462b      	mov	r3, r5
   22da0:	df04      	svc	4
   22da2:	b015      	add	sp, #84	@ 0x54
   22da4:	bdf0      	pop	{r4, r5, r6, r7, pc}
   22da6:	46c0      	nop			@ (mov r8, r8)
   22da8:	000015f3 	.word	0x000015f3

00022dac <_ZN18complex_no_dynamic3app17ha0f81c7cec9b4e8eE>:
   22dac:	b5f0      	push	{r4, r5, r6, r7, lr}
   22dae:	af03      	add	r7, sp, #12
   22db0:	b095      	sub	sp, #84	@ 0x54
   22db2:	4604      	mov	r4, r0
   22db4:	ad01      	add	r5, sp, #4
   22db6:	2618      	movs	r6, #24
   22db8:	4628      	mov	r0, r5
   22dba:	4632      	mov	r2, r6
   22dbc:	f004 ff4b 	bl	27c56 <__aeabi_memcpy>
   22dc0:	a807      	add	r0, sp, #28
   22dc2:	2136      	movs	r1, #54	@ 0x36
   22dc4:	f004 fd9a 	bl	278fc <__aeabi_memclr4>
   22dc8:	20f3      	movs	r0, #243	@ 0xf3
   22dca:	2108      	movs	r1, #8
   22dcc:	462a      	mov	r2, r5
   22dce:	4633      	mov	r3, r6
   22dd0:	df04      	svc	4
   22dd2:	2802      	cmp	r0, #2
   22dd4:	d00e      	beq.n	22df4 <_ZN18complex_no_dynamic3app17ha0f81c7cec9b4e8eE+0x48>
   22dd6:	20f3      	movs	r0, #243	@ 0xf3
   22dd8:	2104      	movs	r1, #4
   22dda:	aa07      	add	r2, sp, #28
   22ddc:	2336      	movs	r3, #54	@ 0x36
   22dde:	df03      	svc	3
   22de0:	2802      	cmp	r0, #2
   22de2:	d007      	beq.n	22df4 <_ZN18complex_no_dynamic3app17ha0f81c7cec9b4e8eE+0x48>
   22de4:	20f3      	movs	r0, #243	@ 0xf3
   22de6:	2108      	movs	r1, #8
   22de8:	2204      	movs	r2, #4
   22dea:	2500      	movs	r5, #0
   22dec:	462b      	mov	r3, r5
   22dee:	df02      	svc	2
   22df0:	287f      	cmp	r0, #127	@ 0x7f
   22df2:	d813      	bhi.n	22e1c <_ZN18complex_no_dynamic3app17ha0f81c7cec9b4e8eE+0x70>
   22df4:	2501      	movs	r5, #1
   22df6:	2d00      	cmp	r5, #0
   22df8:	d017      	beq.n	22e2a <_ZN18complex_no_dynamic3app17ha0f81c7cec9b4e8eE+0x7e>
   22dfa:	2001      	movs	r0, #1
   22dfc:	7020      	strb	r0, [r4, #0]
   22dfe:	6061      	str	r1, [r4, #4]
   22e00:	24f3      	movs	r4, #243	@ 0xf3
   22e02:	2104      	movs	r1, #4
   22e04:	2500      	movs	r5, #0
   22e06:	4620      	mov	r0, r4
   22e08:	462a      	mov	r2, r5
   22e0a:	462b      	mov	r3, r5
   22e0c:	df03      	svc	3
   22e0e:	2108      	movs	r1, #8
   22e10:	4620      	mov	r0, r4
   22e12:	462a      	mov	r2, r5
   22e14:	462b      	mov	r3, r5
   22e16:	df04      	svc	4
   22e18:	b015      	add	sp, #84	@ 0x54
   22e1a:	bdf0      	pop	{r4, r5, r6, r7, pc}
   22e1c:	20f3      	movs	r0, #243	@ 0xf3
   22e1e:	2104      	movs	r1, #4
   22e20:	462a      	mov	r2, r5
   22e22:	462b      	mov	r3, r5
   22e24:	df03      	svc	3
   22e26:	2d00      	cmp	r5, #0
   22e28:	d1e7      	bne.n	22dfa <_ZN18complex_no_dynamic3app17ha0f81c7cec9b4e8eE+0x4e>
   22e2a:	26f3      	movs	r6, #243	@ 0xf3
   22e2c:	2104      	movs	r1, #4
   22e2e:	9100      	str	r1, [sp, #0]
   22e30:	2500      	movs	r5, #0
   22e32:	4630      	mov	r0, r6
   22e34:	462a      	mov	r2, r5
   22e36:	462b      	mov	r3, r5
   22e38:	df03      	svc	3
   22e3a:	1c60      	adds	r0, r4, #1
   22e3c:	a907      	add	r1, sp, #28
   22e3e:	2236      	movs	r2, #54	@ 0x36
   22e40:	f004 ff09 	bl	27c56 <__aeabi_memcpy>
   22e44:	7025      	strb	r5, [r4, #0]
   22e46:	4630      	mov	r0, r6
   22e48:	9900      	ldr	r1, [sp, #0]
   22e4a:	462a      	mov	r2, r5
   22e4c:	462b      	mov	r3, r5
   22e4e:	df03      	svc	3
   22e50:	2108      	movs	r1, #8
   22e52:	4630      	mov	r0, r6
   22e54:	462a      	mov	r2, r5
   22e56:	462b      	mov	r3, r5
   22e58:	df04      	svc	4
   22e5a:	b015      	add	sp, #84	@ 0x54
   22e5c:	bdf0      	pop	{r4, r5, r6, r7, pc}
   22e5e:	d4d4      	bmi.n	22e0a <_ZN18complex_no_dynamic3app17ha0f81c7cec9b4e8eE+0x5e>

00022e60 <_ZN18complex_no_dynamic3app17ha1899b38c20bb621E>:
   22e60:	b5f0      	push	{r4, r5, r6, r7, lr}
   22e62:	af03      	add	r7, sp, #12
   22e64:	b099      	sub	sp, #100	@ 0x64
   22e66:	4604      	mov	r4, r0
   22e68:	466d      	mov	r5, sp
   22e6a:	263b      	movs	r6, #59	@ 0x3b
   22e6c:	4628      	mov	r0, r5
   22e6e:	4632      	mov	r2, r6
   22e70:	f004 fef1 	bl	27c56 <__aeabi_memcpy>
   22e74:	a80f      	add	r0, sp, #60	@ 0x3c
   22e76:	2127      	movs	r1, #39	@ 0x27
   22e78:	f004 fd40 	bl	278fc <__aeabi_memclr4>
   22e7c:	4824      	ldr	r0, [pc, #144]	@ (22f10 <_ZN18complex_no_dynamic3app17ha1899b38c20bb621E+0xb0>)
   22e7e:	2105      	movs	r1, #5
   22e80:	462a      	mov	r2, r5
   22e82:	4633      	mov	r3, r6
   22e84:	df04      	svc	4
   22e86:	2802      	cmp	r0, #2
   22e88:	d00e      	beq.n	22ea8 <_ZN18complex_no_dynamic3app17ha1899b38c20bb621E+0x48>
   22e8a:	4821      	ldr	r0, [pc, #132]	@ (22f10 <_ZN18complex_no_dynamic3app17ha1899b38c20bb621E+0xb0>)
   22e8c:	2103      	movs	r1, #3
   22e8e:	aa0f      	add	r2, sp, #60	@ 0x3c
   22e90:	2327      	movs	r3, #39	@ 0x27
   22e92:	df03      	svc	3
   22e94:	2802      	cmp	r0, #2
   22e96:	d007      	beq.n	22ea8 <_ZN18complex_no_dynamic3app17ha1899b38c20bb621E+0x48>
   22e98:	481d      	ldr	r0, [pc, #116]	@ (22f10 <_ZN18complex_no_dynamic3app17ha1899b38c20bb621E+0xb0>)
   22e9a:	2105      	movs	r1, #5
   22e9c:	2203      	movs	r2, #3
   22e9e:	2500      	movs	r5, #0
   22ea0:	462b      	mov	r3, r5
   22ea2:	df02      	svc	2
   22ea4:	287f      	cmp	r0, #127	@ 0x7f
   22ea6:	d813      	bhi.n	22ed0 <_ZN18complex_no_dynamic3app17ha1899b38c20bb621E+0x70>
   22ea8:	2501      	movs	r5, #1
   22eaa:	2d00      	cmp	r5, #0
   22eac:	d017      	beq.n	22ede <_ZN18complex_no_dynamic3app17ha1899b38c20bb621E+0x7e>
   22eae:	2001      	movs	r0, #1
   22eb0:	7020      	strb	r0, [r4, #0]
   22eb2:	6061      	str	r1, [r4, #4]
   22eb4:	4c16      	ldr	r4, [pc, #88]	@ (22f10 <_ZN18complex_no_dynamic3app17ha1899b38c20bb621E+0xb0>)
   22eb6:	2103      	movs	r1, #3
   22eb8:	2500      	movs	r5, #0
   22eba:	4620      	mov	r0, r4
   22ebc:	462a      	mov	r2, r5
   22ebe:	462b      	mov	r3, r5
   22ec0:	df03      	svc	3
   22ec2:	2105      	movs	r1, #5
   22ec4:	4620      	mov	r0, r4
   22ec6:	462a      	mov	r2, r5
   22ec8:	462b      	mov	r3, r5
   22eca:	df04      	svc	4
   22ecc:	b019      	add	sp, #100	@ 0x64
   22ece:	bdf0      	pop	{r4, r5, r6, r7, pc}
   22ed0:	480f      	ldr	r0, [pc, #60]	@ (22f10 <_ZN18complex_no_dynamic3app17ha1899b38c20bb621E+0xb0>)
   22ed2:	2103      	movs	r1, #3
   22ed4:	462a      	mov	r2, r5
   22ed6:	462b      	mov	r3, r5
   22ed8:	df03      	svc	3
   22eda:	2d00      	cmp	r5, #0
   22edc:	d1e7      	bne.n	22eae <_ZN18complex_no_dynamic3app17ha1899b38c20bb621E+0x4e>
   22ede:	480c      	ldr	r0, [pc, #48]	@ (22f10 <_ZN18complex_no_dynamic3app17ha1899b38c20bb621E+0xb0>)
   22ee0:	2603      	movs	r6, #3
   22ee2:	2500      	movs	r5, #0
   22ee4:	4631      	mov	r1, r6
   22ee6:	462a      	mov	r2, r5
   22ee8:	462b      	mov	r3, r5
   22eea:	df03      	svc	3
   22eec:	1c60      	adds	r0, r4, #1
   22eee:	a90f      	add	r1, sp, #60	@ 0x3c
   22ef0:	2227      	movs	r2, #39	@ 0x27
   22ef2:	f004 feb0 	bl	27c56 <__aeabi_memcpy>
   22ef6:	7025      	strb	r5, [r4, #0]
   22ef8:	4805      	ldr	r0, [pc, #20]	@ (22f10 <_ZN18complex_no_dynamic3app17ha1899b38c20bb621E+0xb0>)
   22efa:	4631      	mov	r1, r6
   22efc:	462a      	mov	r2, r5
   22efe:	462b      	mov	r3, r5
   22f00:	df03      	svc	3
   22f02:	2105      	movs	r1, #5
   22f04:	4802      	ldr	r0, [pc, #8]	@ (22f10 <_ZN18complex_no_dynamic3app17ha1899b38c20bb621E+0xb0>)
   22f06:	462a      	mov	r2, r5
   22f08:	462b      	mov	r3, r5
   22f0a:	df04      	svc	4
   22f0c:	b019      	add	sp, #100	@ 0x64
   22f0e:	bdf0      	pop	{r4, r5, r6, r7, pc}
   22f10:	00000bd3 	.word	0x00000bd3

00022f14 <_ZN18complex_no_dynamic3app17ha486f4464e0bbc27E>:
   22f14:	b5f0      	push	{r4, r5, r6, r7, lr}
   22f16:	af03      	add	r7, sp, #12
   22f18:	b09b      	sub	sp, #108	@ 0x6c
   22f1a:	9000      	str	r0, [sp, #0]
   22f1c:	ae01      	add	r6, sp, #4
   22f1e:	2441      	movs	r4, #65	@ 0x41
   22f20:	4630      	mov	r0, r6
   22f22:	4622      	mov	r2, r4
   22f24:	f004 fe97 	bl	27c56 <__aeabi_memcpy>
   22f28:	a812      	add	r0, sp, #72	@ 0x48
   22f2a:	2122      	movs	r1, #34	@ 0x22
   22f2c:	f004 fce6 	bl	278fc <__aeabi_memclr4>
   22f30:	4825      	ldr	r0, [pc, #148]	@ (22fc8 <_ZN18complex_no_dynamic3app17ha486f4464e0bbc27E+0xb4>)
   22f32:	2501      	movs	r5, #1
   22f34:	4629      	mov	r1, r5
   22f36:	4632      	mov	r2, r6
   22f38:	4623      	mov	r3, r4
   22f3a:	df04      	svc	4
   22f3c:	2802      	cmp	r0, #2
   22f3e:	d015      	beq.n	22f6c <_ZN18complex_no_dynamic3app17ha486f4464e0bbc27E+0x58>
   22f40:	4821      	ldr	r0, [pc, #132]	@ (22fc8 <_ZN18complex_no_dynamic3app17ha486f4464e0bbc27E+0xb4>)
   22f42:	2100      	movs	r1, #0
   22f44:	aa12      	add	r2, sp, #72	@ 0x48
   22f46:	2322      	movs	r3, #34	@ 0x22
   22f48:	df03      	svc	3
   22f4a:	2802      	cmp	r0, #2
   22f4c:	d00e      	beq.n	22f6c <_ZN18complex_no_dynamic3app17ha486f4464e0bbc27E+0x58>
   22f4e:	481e      	ldr	r0, [pc, #120]	@ (22fc8 <_ZN18complex_no_dynamic3app17ha486f4464e0bbc27E+0xb4>)
   22f50:	2501      	movs	r5, #1
   22f52:	2600      	movs	r6, #0
   22f54:	4629      	mov	r1, r5
   22f56:	4632      	mov	r2, r6
   22f58:	4633      	mov	r3, r6
   22f5a:	df02      	svc	2
   22f5c:	287f      	cmp	r0, #127	@ 0x7f
   22f5e:	d905      	bls.n	22f6c <_ZN18complex_no_dynamic3app17ha486f4464e0bbc27E+0x58>
   22f60:	4819      	ldr	r0, [pc, #100]	@ (22fc8 <_ZN18complex_no_dynamic3app17ha486f4464e0bbc27E+0xb4>)
   22f62:	4631      	mov	r1, r6
   22f64:	4632      	mov	r2, r6
   22f66:	4633      	mov	r3, r6
   22f68:	df03      	svc	3
   22f6a:	4635      	mov	r5, r6
   22f6c:	2d00      	cmp	r5, #0
   22f6e:	d011      	beq.n	22f94 <_ZN18complex_no_dynamic3app17ha486f4464e0bbc27E+0x80>
   22f70:	2401      	movs	r4, #1
   22f72:	9800      	ldr	r0, [sp, #0]
   22f74:	7004      	strb	r4, [r0, #0]
   22f76:	6041      	str	r1, [r0, #4]
   22f78:	4d13      	ldr	r5, [pc, #76]	@ (22fc8 <_ZN18complex_no_dynamic3app17ha486f4464e0bbc27E+0xb4>)
   22f7a:	2600      	movs	r6, #0
   22f7c:	4628      	mov	r0, r5
   22f7e:	4631      	mov	r1, r6
   22f80:	4632      	mov	r2, r6
   22f82:	4633      	mov	r3, r6
   22f84:	df03      	svc	3
   22f86:	4628      	mov	r0, r5
   22f88:	4621      	mov	r1, r4
   22f8a:	4632      	mov	r2, r6
   22f8c:	4633      	mov	r3, r6
   22f8e:	df04      	svc	4
   22f90:	b01b      	add	sp, #108	@ 0x6c
   22f92:	bdf0      	pop	{r4, r5, r6, r7, pc}
   22f94:	4e0c      	ldr	r6, [pc, #48]	@ (22fc8 <_ZN18complex_no_dynamic3app17ha486f4464e0bbc27E+0xb4>)
   22f96:	2500      	movs	r5, #0
   22f98:	4630      	mov	r0, r6
   22f9a:	4629      	mov	r1, r5
   22f9c:	462a      	mov	r2, r5
   22f9e:	462b      	mov	r3, r5
   22fa0:	df03      	svc	3
   22fa2:	9c00      	ldr	r4, [sp, #0]
   22fa4:	1c60      	adds	r0, r4, #1
   22fa6:	a912      	add	r1, sp, #72	@ 0x48
   22fa8:	2222      	movs	r2, #34	@ 0x22
   22faa:	f004 fe54 	bl	27c56 <__aeabi_memcpy>
   22fae:	7025      	strb	r5, [r4, #0]
   22fb0:	4630      	mov	r0, r6
   22fb2:	4629      	mov	r1, r5
   22fb4:	462a      	mov	r2, r5
   22fb6:	462b      	mov	r3, r5
   22fb8:	df03      	svc	3
   22fba:	2101      	movs	r1, #1
   22fbc:	4630      	mov	r0, r6
   22fbe:	462a      	mov	r2, r5
   22fc0:	462b      	mov	r3, r5
   22fc2:	df04      	svc	4
   22fc4:	b01b      	add	sp, #108	@ 0x6c
   22fc6:	bdf0      	pop	{r4, r5, r6, r7, pc}
   22fc8:	0000247c 	.word	0x0000247c

00022fcc <_ZN18complex_no_dynamic3app17hab7ec6fbd5b7f26dE>:
   22fcc:	b5f0      	push	{r4, r5, r6, r7, lr}
   22fce:	af03      	add	r7, sp, #12
   22fd0:	b09d      	sub	sp, #116	@ 0x74
   22fd2:	4604      	mov	r4, r0
   22fd4:	ad01      	add	r5, sp, #4
   22fd6:	2649      	movs	r6, #73	@ 0x49
   22fd8:	4628      	mov	r0, r5
   22fda:	4632      	mov	r2, r6
   22fdc:	f004 fe3b 	bl	27c56 <__aeabi_memcpy>
   22fe0:	a814      	add	r0, sp, #80	@ 0x50
   22fe2:	2123      	movs	r1, #35	@ 0x23
   22fe4:	f004 fc8a 	bl	278fc <__aeabi_memclr4>
   22fe8:	4825      	ldr	r0, [pc, #148]	@ (23080 <_ZN18complex_no_dynamic3app17hab7ec6fbd5b7f26dE+0xb4>)
   22fea:	2107      	movs	r1, #7
   22fec:	462a      	mov	r2, r5
   22fee:	4633      	mov	r3, r6
   22ff0:	df04      	svc	4
   22ff2:	2802      	cmp	r0, #2
   22ff4:	d101      	bne.n	22ffa <_ZN18complex_no_dynamic3app17hab7ec6fbd5b7f26dE+0x2e>
   22ff6:	2501      	movs	r5, #1
   22ff8:	e016      	b.n	23028 <_ZN18complex_no_dynamic3app17hab7ec6fbd5b7f26dE+0x5c>
   22ffa:	4821      	ldr	r0, [pc, #132]	@ (23080 <_ZN18complex_no_dynamic3app17hab7ec6fbd5b7f26dE+0xb4>)
   22ffc:	2501      	movs	r5, #1
   22ffe:	aa14      	add	r2, sp, #80	@ 0x50
   23000:	2323      	movs	r3, #35	@ 0x23
   23002:	4629      	mov	r1, r5
   23004:	df03      	svc	3
   23006:	2802      	cmp	r0, #2
   23008:	d00e      	beq.n	23028 <_ZN18complex_no_dynamic3app17hab7ec6fbd5b7f26dE+0x5c>
   2300a:	481d      	ldr	r0, [pc, #116]	@ (23080 <_ZN18complex_no_dynamic3app17hab7ec6fbd5b7f26dE+0xb4>)
   2300c:	2107      	movs	r1, #7
   2300e:	2501      	movs	r5, #1
   23010:	2600      	movs	r6, #0
   23012:	462a      	mov	r2, r5
   23014:	4633      	mov	r3, r6
   23016:	df02      	svc	2
   23018:	287f      	cmp	r0, #127	@ 0x7f
   2301a:	d905      	bls.n	23028 <_ZN18complex_no_dynamic3app17hab7ec6fbd5b7f26dE+0x5c>
   2301c:	4818      	ldr	r0, [pc, #96]	@ (23080 <_ZN18complex_no_dynamic3app17hab7ec6fbd5b7f26dE+0xb4>)
   2301e:	2101      	movs	r1, #1
   23020:	4632      	mov	r2, r6
   23022:	4633      	mov	r3, r6
   23024:	df03      	svc	3
   23026:	4635      	mov	r5, r6
   23028:	2d00      	cmp	r5, #0
   2302a:	d010      	beq.n	2304e <_ZN18complex_no_dynamic3app17hab7ec6fbd5b7f26dE+0x82>
   2302c:	2201      	movs	r2, #1
   2302e:	7022      	strb	r2, [r4, #0]
   23030:	6061      	str	r1, [r4, #4]
   23032:	4c13      	ldr	r4, [pc, #76]	@ (23080 <_ZN18complex_no_dynamic3app17hab7ec6fbd5b7f26dE+0xb4>)
   23034:	2500      	movs	r5, #0
   23036:	4620      	mov	r0, r4
   23038:	4611      	mov	r1, r2
   2303a:	462a      	mov	r2, r5
   2303c:	462b      	mov	r3, r5
   2303e:	df03      	svc	3
   23040:	2107      	movs	r1, #7
   23042:	4620      	mov	r0, r4
   23044:	462a      	mov	r2, r5
   23046:	462b      	mov	r3, r5
   23048:	df04      	svc	4
   2304a:	b01d      	add	sp, #116	@ 0x74
   2304c:	bdf0      	pop	{r4, r5, r6, r7, pc}
   2304e:	480c      	ldr	r0, [pc, #48]	@ (23080 <_ZN18complex_no_dynamic3app17hab7ec6fbd5b7f26dE+0xb4>)
   23050:	2601      	movs	r6, #1
   23052:	2500      	movs	r5, #0
   23054:	4631      	mov	r1, r6
   23056:	462a      	mov	r2, r5
   23058:	462b      	mov	r3, r5
   2305a:	df03      	svc	3
   2305c:	1c60      	adds	r0, r4, #1
   2305e:	a914      	add	r1, sp, #80	@ 0x50
   23060:	2223      	movs	r2, #35	@ 0x23
   23062:	f004 fdf8 	bl	27c56 <__aeabi_memcpy>
   23066:	7025      	strb	r5, [r4, #0]
   23068:	4805      	ldr	r0, [pc, #20]	@ (23080 <_ZN18complex_no_dynamic3app17hab7ec6fbd5b7f26dE+0xb4>)
   2306a:	4631      	mov	r1, r6
   2306c:	462a      	mov	r2, r5
   2306e:	462b      	mov	r3, r5
   23070:	df03      	svc	3
   23072:	2107      	movs	r1, #7
   23074:	4802      	ldr	r0, [pc, #8]	@ (23080 <_ZN18complex_no_dynamic3app17hab7ec6fbd5b7f26dE+0xb4>)
   23076:	462a      	mov	r2, r5
   23078:	462b      	mov	r3, r5
   2307a:	df04      	svc	4
   2307c:	b01d      	add	sp, #116	@ 0x74
   2307e:	bdf0      	pop	{r4, r5, r6, r7, pc}
   23080:	00001551 	.word	0x00001551

00023084 <_ZN18complex_no_dynamic3app17had5596a98bc434fdE>:
   23084:	b5f0      	push	{r4, r5, r6, r7, lr}
   23086:	af03      	add	r7, sp, #12
   23088:	b095      	sub	sp, #84	@ 0x54
   2308a:	4604      	mov	r4, r0
   2308c:	ad01      	add	r5, sp, #4
   2308e:	2623      	movs	r6, #35	@ 0x23
   23090:	4628      	mov	r0, r5
   23092:	4632      	mov	r2, r6
   23094:	f004 fddf 	bl	27c56 <__aeabi_memcpy>
   23098:	a80a      	add	r0, sp, #40	@ 0x28
   2309a:	212b      	movs	r1, #43	@ 0x2b
   2309c:	f004 fc2e 	bl	278fc <__aeabi_memclr4>
   230a0:	4824      	ldr	r0, [pc, #144]	@ (23134 <_ZN18complex_no_dynamic3app17had5596a98bc434fdE+0xb0>)
   230a2:	2102      	movs	r1, #2
   230a4:	462a      	mov	r2, r5
   230a6:	4633      	mov	r3, r6
   230a8:	df04      	svc	4
   230aa:	2802      	cmp	r0, #2
   230ac:	d00e      	beq.n	230cc <_ZN18complex_no_dynamic3app17had5596a98bc434fdE+0x48>
   230ae:	4821      	ldr	r0, [pc, #132]	@ (23134 <_ZN18complex_no_dynamic3app17had5596a98bc434fdE+0xb0>)
   230b0:	2100      	movs	r1, #0
   230b2:	aa0a      	add	r2, sp, #40	@ 0x28
   230b4:	232b      	movs	r3, #43	@ 0x2b
   230b6:	df03      	svc	3
   230b8:	2802      	cmp	r0, #2
   230ba:	d007      	beq.n	230cc <_ZN18complex_no_dynamic3app17had5596a98bc434fdE+0x48>
   230bc:	481d      	ldr	r0, [pc, #116]	@ (23134 <_ZN18complex_no_dynamic3app17had5596a98bc434fdE+0xb0>)
   230be:	2102      	movs	r1, #2
   230c0:	2500      	movs	r5, #0
   230c2:	462a      	mov	r2, r5
   230c4:	462b      	mov	r3, r5
   230c6:	df02      	svc	2
   230c8:	287f      	cmp	r0, #127	@ 0x7f
   230ca:	d813      	bhi.n	230f4 <_ZN18complex_no_dynamic3app17had5596a98bc434fdE+0x70>
   230cc:	2501      	movs	r5, #1
   230ce:	2d00      	cmp	r5, #0
   230d0:	d017      	beq.n	23102 <_ZN18complex_no_dynamic3app17had5596a98bc434fdE+0x7e>
   230d2:	2001      	movs	r0, #1
   230d4:	7020      	strb	r0, [r4, #0]
   230d6:	6061      	str	r1, [r4, #4]
   230d8:	4c16      	ldr	r4, [pc, #88]	@ (23134 <_ZN18complex_no_dynamic3app17had5596a98bc434fdE+0xb0>)
   230da:	2500      	movs	r5, #0
   230dc:	4620      	mov	r0, r4
   230de:	4629      	mov	r1, r5
   230e0:	462a      	mov	r2, r5
   230e2:	462b      	mov	r3, r5
   230e4:	df03      	svc	3
   230e6:	2102      	movs	r1, #2
   230e8:	4620      	mov	r0, r4
   230ea:	462a      	mov	r2, r5
   230ec:	462b      	mov	r3, r5
   230ee:	df04      	svc	4
   230f0:	b015      	add	sp, #84	@ 0x54
   230f2:	bdf0      	pop	{r4, r5, r6, r7, pc}
   230f4:	480f      	ldr	r0, [pc, #60]	@ (23134 <_ZN18complex_no_dynamic3app17had5596a98bc434fdE+0xb0>)
   230f6:	4629      	mov	r1, r5
   230f8:	462a      	mov	r2, r5
   230fa:	462b      	mov	r3, r5
   230fc:	df03      	svc	3
   230fe:	2d00      	cmp	r5, #0
   23100:	d1e7      	bne.n	230d2 <_ZN18complex_no_dynamic3app17had5596a98bc434fdE+0x4e>
   23102:	4e0c      	ldr	r6, [pc, #48]	@ (23134 <_ZN18complex_no_dynamic3app17had5596a98bc434fdE+0xb0>)
   23104:	2500      	movs	r5, #0
   23106:	4630      	mov	r0, r6
   23108:	4629      	mov	r1, r5
   2310a:	462a      	mov	r2, r5
   2310c:	462b      	mov	r3, r5
   2310e:	df03      	svc	3
   23110:	1c60      	adds	r0, r4, #1
   23112:	a90a      	add	r1, sp, #40	@ 0x28
   23114:	222b      	movs	r2, #43	@ 0x2b
   23116:	f004 fd9e 	bl	27c56 <__aeabi_memcpy>
   2311a:	7025      	strb	r5, [r4, #0]
   2311c:	4630      	mov	r0, r6
   2311e:	4629      	mov	r1, r5
   23120:	462a      	mov	r2, r5
   23122:	462b      	mov	r3, r5
   23124:	df03      	svc	3
   23126:	2102      	movs	r1, #2
   23128:	4630      	mov	r0, r6
   2312a:	462a      	mov	r2, r5
   2312c:	462b      	mov	r3, r5
   2312e:	df04      	svc	4
   23130:	b015      	add	sp, #84	@ 0x54
   23132:	bdf0      	pop	{r4, r5, r6, r7, pc}
   23134:	00000d5d 	.word	0x00000d5d

00023138 <_ZN18complex_no_dynamic3app17haf3399294a1e702dE>:
   23138:	b5f0      	push	{r4, r5, r6, r7, lr}
   2313a:	af03      	add	r7, sp, #12
   2313c:	b09d      	sub	sp, #116	@ 0x74
   2313e:	4604      	mov	r4, r0
   23140:	466d      	mov	r5, sp
   23142:	263c      	movs	r6, #60	@ 0x3c
   23144:	4628      	mov	r0, r5
   23146:	4632      	mov	r2, r6
   23148:	f004 fd85 	bl	27c56 <__aeabi_memcpy>
   2314c:	a80f      	add	r0, sp, #60	@ 0x3c
   2314e:	2138      	movs	r1, #56	@ 0x38
   23150:	f004 fbd4 	bl	278fc <__aeabi_memclr4>
   23154:	4825      	ldr	r0, [pc, #148]	@ (231ec <_ZN18complex_no_dynamic3app17haf3399294a1e702dE+0xb4>)
   23156:	2103      	movs	r1, #3
   23158:	462a      	mov	r2, r5
   2315a:	4633      	mov	r3, r6
   2315c:	df04      	svc	4
   2315e:	2802      	cmp	r0, #2
   23160:	d00e      	beq.n	23180 <_ZN18complex_no_dynamic3app17haf3399294a1e702dE+0x48>
   23162:	4822      	ldr	r0, [pc, #136]	@ (231ec <_ZN18complex_no_dynamic3app17haf3399294a1e702dE+0xb4>)
   23164:	2103      	movs	r1, #3
   23166:	aa0f      	add	r2, sp, #60	@ 0x3c
   23168:	2338      	movs	r3, #56	@ 0x38
   2316a:	df03      	svc	3
   2316c:	2802      	cmp	r0, #2
   2316e:	d007      	beq.n	23180 <_ZN18complex_no_dynamic3app17haf3399294a1e702dE+0x48>
   23170:	481e      	ldr	r0, [pc, #120]	@ (231ec <_ZN18complex_no_dynamic3app17haf3399294a1e702dE+0xb4>)
   23172:	2103      	movs	r1, #3
   23174:	2500      	movs	r5, #0
   23176:	460a      	mov	r2, r1
   23178:	462b      	mov	r3, r5
   2317a:	df02      	svc	2
   2317c:	287f      	cmp	r0, #127	@ 0x7f
   2317e:	d814      	bhi.n	231aa <_ZN18complex_no_dynamic3app17haf3399294a1e702dE+0x72>
   23180:	2501      	movs	r5, #1
   23182:	2d00      	cmp	r5, #0
   23184:	d018      	beq.n	231b8 <_ZN18complex_no_dynamic3app17haf3399294a1e702dE+0x80>
   23186:	2001      	movs	r0, #1
   23188:	7020      	strb	r0, [r4, #0]
   2318a:	6061      	str	r1, [r4, #4]
   2318c:	4c17      	ldr	r4, [pc, #92]	@ (231ec <_ZN18complex_no_dynamic3app17haf3399294a1e702dE+0xb4>)
   2318e:	2503      	movs	r5, #3
   23190:	2600      	movs	r6, #0
   23192:	4620      	mov	r0, r4
   23194:	4629      	mov	r1, r5
   23196:	4632      	mov	r2, r6
   23198:	4633      	mov	r3, r6
   2319a:	df03      	svc	3
   2319c:	4620      	mov	r0, r4
   2319e:	4629      	mov	r1, r5
   231a0:	4632      	mov	r2, r6
   231a2:	4633      	mov	r3, r6
   231a4:	df04      	svc	4
   231a6:	b01d      	add	sp, #116	@ 0x74
   231a8:	bdf0      	pop	{r4, r5, r6, r7, pc}
   231aa:	4810      	ldr	r0, [pc, #64]	@ (231ec <_ZN18complex_no_dynamic3app17haf3399294a1e702dE+0xb4>)
   231ac:	2103      	movs	r1, #3
   231ae:	462a      	mov	r2, r5
   231b0:	462b      	mov	r3, r5
   231b2:	df03      	svc	3
   231b4:	2d00      	cmp	r5, #0
   231b6:	d1e6      	bne.n	23186 <_ZN18complex_no_dynamic3app17haf3399294a1e702dE+0x4e>
   231b8:	480c      	ldr	r0, [pc, #48]	@ (231ec <_ZN18complex_no_dynamic3app17haf3399294a1e702dE+0xb4>)
   231ba:	2603      	movs	r6, #3
   231bc:	2500      	movs	r5, #0
   231be:	4631      	mov	r1, r6
   231c0:	462a      	mov	r2, r5
   231c2:	462b      	mov	r3, r5
   231c4:	df03      	svc	3
   231c6:	1c60      	adds	r0, r4, #1
   231c8:	a90f      	add	r1, sp, #60	@ 0x3c
   231ca:	2238      	movs	r2, #56	@ 0x38
   231cc:	f004 fd43 	bl	27c56 <__aeabi_memcpy>
   231d0:	7025      	strb	r5, [r4, #0]
   231d2:	4806      	ldr	r0, [pc, #24]	@ (231ec <_ZN18complex_no_dynamic3app17haf3399294a1e702dE+0xb4>)
   231d4:	4631      	mov	r1, r6
   231d6:	462a      	mov	r2, r5
   231d8:	462b      	mov	r3, r5
   231da:	df03      	svc	3
   231dc:	4803      	ldr	r0, [pc, #12]	@ (231ec <_ZN18complex_no_dynamic3app17haf3399294a1e702dE+0xb4>)
   231de:	4631      	mov	r1, r6
   231e0:	462a      	mov	r2, r5
   231e2:	462b      	mov	r3, r5
   231e4:	df04      	svc	4
   231e6:	b01d      	add	sp, #116	@ 0x74
   231e8:	bdf0      	pop	{r4, r5, r6, r7, pc}
   231ea:	46c0      	nop			@ (mov r8, r8)
   231ec:	00001d19 	.word	0x00001d19

000231f0 <_ZN18complex_no_dynamic3app17hb249ba7d3e9f4249E>:
   231f0:	b5f0      	push	{r4, r5, r6, r7, lr}
   231f2:	af03      	add	r7, sp, #12
   231f4:	b095      	sub	sp, #84	@ 0x54
   231f6:	4604      	mov	r4, r0
   231f8:	466d      	mov	r5, sp
   231fa:	262a      	movs	r6, #42	@ 0x2a
   231fc:	4628      	mov	r0, r5
   231fe:	4632      	mov	r2, r6
   23200:	f004 fd29 	bl	27c56 <__aeabi_memcpy>
   23204:	a80b      	add	r0, sp, #44	@ 0x2c
   23206:	2128      	movs	r1, #40	@ 0x28
   23208:	f004 fb78 	bl	278fc <__aeabi_memclr4>
   2320c:	4824      	ldr	r0, [pc, #144]	@ (232a0 <_ZN18complex_no_dynamic3app17hb249ba7d3e9f4249E+0xb0>)
   2320e:	2104      	movs	r1, #4
   23210:	462a      	mov	r2, r5
   23212:	4633      	mov	r3, r6
   23214:	df04      	svc	4
   23216:	2802      	cmp	r0, #2
   23218:	d00e      	beq.n	23238 <_ZN18complex_no_dynamic3app17hb249ba7d3e9f4249E+0x48>
   2321a:	4821      	ldr	r0, [pc, #132]	@ (232a0 <_ZN18complex_no_dynamic3app17hb249ba7d3e9f4249E+0xb0>)
   2321c:	2108      	movs	r1, #8
   2321e:	aa0b      	add	r2, sp, #44	@ 0x2c
   23220:	2328      	movs	r3, #40	@ 0x28
   23222:	df03      	svc	3
   23224:	2802      	cmp	r0, #2
   23226:	d007      	beq.n	23238 <_ZN18complex_no_dynamic3app17hb249ba7d3e9f4249E+0x48>
   23228:	481d      	ldr	r0, [pc, #116]	@ (232a0 <_ZN18complex_no_dynamic3app17hb249ba7d3e9f4249E+0xb0>)
   2322a:	2104      	movs	r1, #4
   2322c:	2208      	movs	r2, #8
   2322e:	2500      	movs	r5, #0
   23230:	462b      	mov	r3, r5
   23232:	df02      	svc	2
   23234:	287f      	cmp	r0, #127	@ 0x7f
   23236:	d813      	bhi.n	23260 <_ZN18complex_no_dynamic3app17hb249ba7d3e9f4249E+0x70>
   23238:	2501      	movs	r5, #1
   2323a:	2d00      	cmp	r5, #0
   2323c:	d017      	beq.n	2326e <_ZN18complex_no_dynamic3app17hb249ba7d3e9f4249E+0x7e>
   2323e:	2001      	movs	r0, #1
   23240:	7020      	strb	r0, [r4, #0]
   23242:	6061      	str	r1, [r4, #4]
   23244:	4c16      	ldr	r4, [pc, #88]	@ (232a0 <_ZN18complex_no_dynamic3app17hb249ba7d3e9f4249E+0xb0>)
   23246:	2108      	movs	r1, #8
   23248:	2500      	movs	r5, #0
   2324a:	4620      	mov	r0, r4
   2324c:	462a      	mov	r2, r5
   2324e:	462b      	mov	r3, r5
   23250:	df03      	svc	3
   23252:	2104      	movs	r1, #4
   23254:	4620      	mov	r0, r4
   23256:	462a      	mov	r2, r5
   23258:	462b      	mov	r3, r5
   2325a:	df04      	svc	4
   2325c:	b015      	add	sp, #84	@ 0x54
   2325e:	bdf0      	pop	{r4, r5, r6, r7, pc}
   23260:	480f      	ldr	r0, [pc, #60]	@ (232a0 <_ZN18complex_no_dynamic3app17hb249ba7d3e9f4249E+0xb0>)
   23262:	2108      	movs	r1, #8
   23264:	462a      	mov	r2, r5
   23266:	462b      	mov	r3, r5
   23268:	df03      	svc	3
   2326a:	2d00      	cmp	r5, #0
   2326c:	d1e7      	bne.n	2323e <_ZN18complex_no_dynamic3app17hb249ba7d3e9f4249E+0x4e>
   2326e:	480c      	ldr	r0, [pc, #48]	@ (232a0 <_ZN18complex_no_dynamic3app17hb249ba7d3e9f4249E+0xb0>)
   23270:	2608      	movs	r6, #8
   23272:	2500      	movs	r5, #0
   23274:	4631      	mov	r1, r6
   23276:	462a      	mov	r2, r5
   23278:	462b      	mov	r3, r5
   2327a:	df03      	svc	3
   2327c:	1c60      	adds	r0, r4, #1
   2327e:	a90b      	add	r1, sp, #44	@ 0x2c
   23280:	2228      	movs	r2, #40	@ 0x28
   23282:	f004 fce8 	bl	27c56 <__aeabi_memcpy>
   23286:	7025      	strb	r5, [r4, #0]
   23288:	4805      	ldr	r0, [pc, #20]	@ (232a0 <_ZN18complex_no_dynamic3app17hb249ba7d3e9f4249E+0xb0>)
   2328a:	4631      	mov	r1, r6
   2328c:	462a      	mov	r2, r5
   2328e:	462b      	mov	r3, r5
   23290:	df03      	svc	3
   23292:	2104      	movs	r1, #4
   23294:	4802      	ldr	r0, [pc, #8]	@ (232a0 <_ZN18complex_no_dynamic3app17hb249ba7d3e9f4249E+0xb0>)
   23296:	462a      	mov	r2, r5
   23298:	462b      	mov	r3, r5
   2329a:	df04      	svc	4
   2329c:	b015      	add	sp, #84	@ 0x54
   2329e:	bdf0      	pop	{r4, r5, r6, r7, pc}
   232a0:	00001efa 	.word	0x00001efa

000232a4 <_ZN18complex_no_dynamic3app17hb52684d514201a8cE>:
   232a4:	b5f0      	push	{r4, r5, r6, r7, lr}
   232a6:	af03      	add	r7, sp, #12
   232a8:	b09b      	sub	sp, #108	@ 0x6c
   232aa:	4604      	mov	r4, r0
   232ac:	ad01      	add	r5, sp, #4
   232ae:	2644      	movs	r6, #68	@ 0x44
   232b0:	4628      	mov	r0, r5
   232b2:	4632      	mov	r2, r6
   232b4:	f004 fccf 	bl	27c56 <__aeabi_memcpy>
   232b8:	a812      	add	r0, sp, #72	@ 0x48
   232ba:	2123      	movs	r1, #35	@ 0x23
   232bc:	f004 fb1e 	bl	278fc <__aeabi_memclr4>
   232c0:	4824      	ldr	r0, [pc, #144]	@ (23354 <_ZN18complex_no_dynamic3app17hb52684d514201a8cE+0xb0>)
   232c2:	2106      	movs	r1, #6
   232c4:	462a      	mov	r2, r5
   232c6:	4633      	mov	r3, r6
   232c8:	df04      	svc	4
   232ca:	2802      	cmp	r0, #2
   232cc:	d00e      	beq.n	232ec <_ZN18complex_no_dynamic3app17hb52684d514201a8cE+0x48>
   232ce:	4821      	ldr	r0, [pc, #132]	@ (23354 <_ZN18complex_no_dynamic3app17hb52684d514201a8cE+0xb0>)
   232d0:	2103      	movs	r1, #3
   232d2:	aa12      	add	r2, sp, #72	@ 0x48
   232d4:	2323      	movs	r3, #35	@ 0x23
   232d6:	df03      	svc	3
   232d8:	2802      	cmp	r0, #2
   232da:	d007      	beq.n	232ec <_ZN18complex_no_dynamic3app17hb52684d514201a8cE+0x48>
   232dc:	481d      	ldr	r0, [pc, #116]	@ (23354 <_ZN18complex_no_dynamic3app17hb52684d514201a8cE+0xb0>)
   232de:	2106      	movs	r1, #6
   232e0:	2203      	movs	r2, #3
   232e2:	2500      	movs	r5, #0
   232e4:	462b      	mov	r3, r5
   232e6:	df02      	svc	2
   232e8:	287f      	cmp	r0, #127	@ 0x7f
   232ea:	d813      	bhi.n	23314 <_ZN18complex_no_dynamic3app17hb52684d514201a8cE+0x70>
   232ec:	2501      	movs	r5, #1
   232ee:	2d00      	cmp	r5, #0
   232f0:	d017      	beq.n	23322 <_ZN18complex_no_dynamic3app17hb52684d514201a8cE+0x7e>
   232f2:	2001      	movs	r0, #1
   232f4:	7020      	strb	r0, [r4, #0]
   232f6:	6061      	str	r1, [r4, #4]
   232f8:	4c16      	ldr	r4, [pc, #88]	@ (23354 <_ZN18complex_no_dynamic3app17hb52684d514201a8cE+0xb0>)
   232fa:	2103      	movs	r1, #3
   232fc:	2500      	movs	r5, #0
   232fe:	4620      	mov	r0, r4
   23300:	462a      	mov	r2, r5
   23302:	462b      	mov	r3, r5
   23304:	df03      	svc	3
   23306:	2106      	movs	r1, #6
   23308:	4620      	mov	r0, r4
   2330a:	462a      	mov	r2, r5
   2330c:	462b      	mov	r3, r5
   2330e:	df04      	svc	4
   23310:	b01b      	add	sp, #108	@ 0x6c
   23312:	bdf0      	pop	{r4, r5, r6, r7, pc}
   23314:	480f      	ldr	r0, [pc, #60]	@ (23354 <_ZN18complex_no_dynamic3app17hb52684d514201a8cE+0xb0>)
   23316:	2103      	movs	r1, #3
   23318:	462a      	mov	r2, r5
   2331a:	462b      	mov	r3, r5
   2331c:	df03      	svc	3
   2331e:	2d00      	cmp	r5, #0
   23320:	d1e7      	bne.n	232f2 <_ZN18complex_no_dynamic3app17hb52684d514201a8cE+0x4e>
   23322:	480c      	ldr	r0, [pc, #48]	@ (23354 <_ZN18complex_no_dynamic3app17hb52684d514201a8cE+0xb0>)
   23324:	2603      	movs	r6, #3
   23326:	2500      	movs	r5, #0
   23328:	4631      	mov	r1, r6
   2332a:	462a      	mov	r2, r5
   2332c:	462b      	mov	r3, r5
   2332e:	df03      	svc	3
   23330:	1c60      	adds	r0, r4, #1
   23332:	a912      	add	r1, sp, #72	@ 0x48
   23334:	2223      	movs	r2, #35	@ 0x23
   23336:	f004 fc8e 	bl	27c56 <__aeabi_memcpy>
   2333a:	7025      	strb	r5, [r4, #0]
   2333c:	4805      	ldr	r0, [pc, #20]	@ (23354 <_ZN18complex_no_dynamic3app17hb52684d514201a8cE+0xb0>)
   2333e:	4631      	mov	r1, r6
   23340:	462a      	mov	r2, r5
   23342:	462b      	mov	r3, r5
   23344:	df03      	svc	3
   23346:	2106      	movs	r1, #6
   23348:	4802      	ldr	r0, [pc, #8]	@ (23354 <_ZN18complex_no_dynamic3app17hb52684d514201a8cE+0xb0>)
   2334a:	462a      	mov	r2, r5
   2334c:	462b      	mov	r3, r5
   2334e:	df04      	svc	4
   23350:	b01b      	add	sp, #108	@ 0x6c
   23352:	bdf0      	pop	{r4, r5, r6, r7, pc}
   23354:	000009bf 	.word	0x000009bf

00023358 <_ZN18complex_no_dynamic3app17hb560450d3fa8c6b3E>:
   23358:	b5f0      	push	{r4, r5, r6, r7, lr}
   2335a:	af03      	add	r7, sp, #12
   2335c:	b095      	sub	sp, #84	@ 0x54
   2335e:	4604      	mov	r4, r0
   23360:	466d      	mov	r5, sp
   23362:	2624      	movs	r6, #36	@ 0x24
   23364:	4628      	mov	r0, r5
   23366:	4632      	mov	r2, r6
   23368:	f004 fc75 	bl	27c56 <__aeabi_memcpy>
   2336c:	a809      	add	r0, sp, #36	@ 0x24
   2336e:	212f      	movs	r1, #47	@ 0x2f
   23370:	f004 fac4 	bl	278fc <__aeabi_memclr4>
   23374:	4824      	ldr	r0, [pc, #144]	@ (23408 <_ZN18complex_no_dynamic3app17hb560450d3fa8c6b3E+0xb0>)
   23376:	2106      	movs	r1, #6
   23378:	462a      	mov	r2, r5
   2337a:	4633      	mov	r3, r6
   2337c:	df04      	svc	4
   2337e:	2802      	cmp	r0, #2
   23380:	d00e      	beq.n	233a0 <_ZN18complex_no_dynamic3app17hb560450d3fa8c6b3E+0x48>
   23382:	4821      	ldr	r0, [pc, #132]	@ (23408 <_ZN18complex_no_dynamic3app17hb560450d3fa8c6b3E+0xb0>)
   23384:	2109      	movs	r1, #9
   23386:	aa09      	add	r2, sp, #36	@ 0x24
   23388:	232f      	movs	r3, #47	@ 0x2f
   2338a:	df03      	svc	3
   2338c:	2802      	cmp	r0, #2
   2338e:	d007      	beq.n	233a0 <_ZN18complex_no_dynamic3app17hb560450d3fa8c6b3E+0x48>
   23390:	481d      	ldr	r0, [pc, #116]	@ (23408 <_ZN18complex_no_dynamic3app17hb560450d3fa8c6b3E+0xb0>)
   23392:	2106      	movs	r1, #6
   23394:	2209      	movs	r2, #9
   23396:	2500      	movs	r5, #0
   23398:	462b      	mov	r3, r5
   2339a:	df02      	svc	2
   2339c:	287f      	cmp	r0, #127	@ 0x7f
   2339e:	d813      	bhi.n	233c8 <_ZN18complex_no_dynamic3app17hb560450d3fa8c6b3E+0x70>
   233a0:	2501      	movs	r5, #1
   233a2:	2d00      	cmp	r5, #0
   233a4:	d017      	beq.n	233d6 <_ZN18complex_no_dynamic3app17hb560450d3fa8c6b3E+0x7e>
   233a6:	2001      	movs	r0, #1
   233a8:	7020      	strb	r0, [r4, #0]
   233aa:	6061      	str	r1, [r4, #4]
   233ac:	4c16      	ldr	r4, [pc, #88]	@ (23408 <_ZN18complex_no_dynamic3app17hb560450d3fa8c6b3E+0xb0>)
   233ae:	2109      	movs	r1, #9
   233b0:	2500      	movs	r5, #0
   233b2:	4620      	mov	r0, r4
   233b4:	462a      	mov	r2, r5
   233b6:	462b      	mov	r3, r5
   233b8:	df03      	svc	3
   233ba:	2106      	movs	r1, #6
   233bc:	4620      	mov	r0, r4
   233be:	462a      	mov	r2, r5
   233c0:	462b      	mov	r3, r5
   233c2:	df04      	svc	4
   233c4:	b015      	add	sp, #84	@ 0x54
   233c6:	bdf0      	pop	{r4, r5, r6, r7, pc}
   233c8:	480f      	ldr	r0, [pc, #60]	@ (23408 <_ZN18complex_no_dynamic3app17hb560450d3fa8c6b3E+0xb0>)
   233ca:	2109      	movs	r1, #9
   233cc:	462a      	mov	r2, r5
   233ce:	462b      	mov	r3, r5
   233d0:	df03      	svc	3
   233d2:	2d00      	cmp	r5, #0
   233d4:	d1e7      	bne.n	233a6 <_ZN18complex_no_dynamic3app17hb560450d3fa8c6b3E+0x4e>
   233d6:	480c      	ldr	r0, [pc, #48]	@ (23408 <_ZN18complex_no_dynamic3app17hb560450d3fa8c6b3E+0xb0>)
   233d8:	2609      	movs	r6, #9
   233da:	2500      	movs	r5, #0
   233dc:	4631      	mov	r1, r6
   233de:	462a      	mov	r2, r5
   233e0:	462b      	mov	r3, r5
   233e2:	df03      	svc	3
   233e4:	1c60      	adds	r0, r4, #1
   233e6:	a909      	add	r1, sp, #36	@ 0x24
   233e8:	222f      	movs	r2, #47	@ 0x2f
   233ea:	f004 fc34 	bl	27c56 <__aeabi_memcpy>
   233ee:	7025      	strb	r5, [r4, #0]
   233f0:	4805      	ldr	r0, [pc, #20]	@ (23408 <_ZN18complex_no_dynamic3app17hb560450d3fa8c6b3E+0xb0>)
   233f2:	4631      	mov	r1, r6
   233f4:	462a      	mov	r2, r5
   233f6:	462b      	mov	r3, r5
   233f8:	df03      	svc	3
   233fa:	2106      	movs	r1, #6
   233fc:	4802      	ldr	r0, [pc, #8]	@ (23408 <_ZN18complex_no_dynamic3app17hb560450d3fa8c6b3E+0xb0>)
   233fe:	462a      	mov	r2, r5
   23400:	462b      	mov	r3, r5
   23402:	df04      	svc	4
   23404:	b015      	add	sp, #84	@ 0x54
   23406:	bdf0      	pop	{r4, r5, r6, r7, pc}
   23408:	00001273 	.word	0x00001273

0002340c <_ZN18complex_no_dynamic3app17hb636384573e0d97eE>:
   2340c:	b5f0      	push	{r4, r5, r6, r7, lr}
   2340e:	af03      	add	r7, sp, #12
   23410:	b0a3      	sub	sp, #140	@ 0x8c
   23412:	4604      	mov	r4, r0
   23414:	466d      	mov	r5, sp
   23416:	2663      	movs	r6, #99	@ 0x63
   23418:	4628      	mov	r0, r5
   2341a:	4632      	mov	r2, r6
   2341c:	f004 fc1b 	bl	27c56 <__aeabi_memcpy>
   23420:	a819      	add	r0, sp, #100	@ 0x64
   23422:	2127      	movs	r1, #39	@ 0x27
   23424:	f004 fa6a 	bl	278fc <__aeabi_memclr4>
   23428:	4824      	ldr	r0, [pc, #144]	@ (234bc <_ZN18complex_no_dynamic3app17hb636384573e0d97eE+0xb0>)
   2342a:	2107      	movs	r1, #7
   2342c:	462a      	mov	r2, r5
   2342e:	4633      	mov	r3, r6
   23430:	df04      	svc	4
   23432:	2802      	cmp	r0, #2
   23434:	d00e      	beq.n	23454 <_ZN18complex_no_dynamic3app17hb636384573e0d97eE+0x48>
   23436:	4821      	ldr	r0, [pc, #132]	@ (234bc <_ZN18complex_no_dynamic3app17hb636384573e0d97eE+0xb0>)
   23438:	2100      	movs	r1, #0
   2343a:	aa19      	add	r2, sp, #100	@ 0x64
   2343c:	2327      	movs	r3, #39	@ 0x27
   2343e:	df03      	svc	3
   23440:	2802      	cmp	r0, #2
   23442:	d007      	beq.n	23454 <_ZN18complex_no_dynamic3app17hb636384573e0d97eE+0x48>
   23444:	481d      	ldr	r0, [pc, #116]	@ (234bc <_ZN18complex_no_dynamic3app17hb636384573e0d97eE+0xb0>)
   23446:	2107      	movs	r1, #7
   23448:	2500      	movs	r5, #0
   2344a:	462a      	mov	r2, r5
   2344c:	462b      	mov	r3, r5
   2344e:	df02      	svc	2
   23450:	287f      	cmp	r0, #127	@ 0x7f
   23452:	d813      	bhi.n	2347c <_ZN18complex_no_dynamic3app17hb636384573e0d97eE+0x70>
   23454:	2501      	movs	r5, #1
   23456:	2d00      	cmp	r5, #0
   23458:	d017      	beq.n	2348a <_ZN18complex_no_dynamic3app17hb636384573e0d97eE+0x7e>
   2345a:	2001      	movs	r0, #1
   2345c:	7020      	strb	r0, [r4, #0]
   2345e:	6061      	str	r1, [r4, #4]
   23460:	4c16      	ldr	r4, [pc, #88]	@ (234bc <_ZN18complex_no_dynamic3app17hb636384573e0d97eE+0xb0>)
   23462:	2500      	movs	r5, #0
   23464:	4620      	mov	r0, r4
   23466:	4629      	mov	r1, r5
   23468:	462a      	mov	r2, r5
   2346a:	462b      	mov	r3, r5
   2346c:	df03      	svc	3
   2346e:	2107      	movs	r1, #7
   23470:	4620      	mov	r0, r4
   23472:	462a      	mov	r2, r5
   23474:	462b      	mov	r3, r5
   23476:	df04      	svc	4
   23478:	b023      	add	sp, #140	@ 0x8c
   2347a:	bdf0      	pop	{r4, r5, r6, r7, pc}
   2347c:	480f      	ldr	r0, [pc, #60]	@ (234bc <_ZN18complex_no_dynamic3app17hb636384573e0d97eE+0xb0>)
   2347e:	4629      	mov	r1, r5
   23480:	462a      	mov	r2, r5
   23482:	462b      	mov	r3, r5
   23484:	df03      	svc	3
   23486:	2d00      	cmp	r5, #0
   23488:	d1e7      	bne.n	2345a <_ZN18complex_no_dynamic3app17hb636384573e0d97eE+0x4e>
   2348a:	4e0c      	ldr	r6, [pc, #48]	@ (234bc <_ZN18complex_no_dynamic3app17hb636384573e0d97eE+0xb0>)
   2348c:	2500      	movs	r5, #0
   2348e:	4630      	mov	r0, r6
   23490:	4629      	mov	r1, r5
   23492:	462a      	mov	r2, r5
   23494:	462b      	mov	r3, r5
   23496:	df03      	svc	3
   23498:	1c60      	adds	r0, r4, #1
   2349a:	a919      	add	r1, sp, #100	@ 0x64
   2349c:	2227      	movs	r2, #39	@ 0x27
   2349e:	f004 fbda 	bl	27c56 <__aeabi_memcpy>
   234a2:	7025      	strb	r5, [r4, #0]
   234a4:	4630      	mov	r0, r6
   234a6:	4629      	mov	r1, r5
   234a8:	462a      	mov	r2, r5
   234aa:	462b      	mov	r3, r5
   234ac:	df03      	svc	3
   234ae:	2107      	movs	r1, #7
   234b0:	4630      	mov	r0, r6
   234b2:	462a      	mov	r2, r5
   234b4:	462b      	mov	r3, r5
   234b6:	df04      	svc	4
   234b8:	b023      	add	sp, #140	@ 0x8c
   234ba:	bdf0      	pop	{r4, r5, r6, r7, pc}
   234bc:	00001e54 	.word	0x00001e54

000234c0 <_ZN18complex_no_dynamic3app17hb9139e9eb1ed47cbE>:
   234c0:	b5f0      	push	{r4, r5, r6, r7, lr}
   234c2:	af03      	add	r7, sp, #12
   234c4:	b093      	sub	sp, #76	@ 0x4c
   234c6:	9000      	str	r0, [sp, #0]
   234c8:	ae01      	add	r6, sp, #4
   234ca:	2436      	movs	r4, #54	@ 0x36
   234cc:	4630      	mov	r0, r6
   234ce:	4622      	mov	r2, r4
   234d0:	f004 fbc1 	bl	27c56 <__aeabi_memcpy>
   234d4:	a80f      	add	r0, sp, #60	@ 0x3c
   234d6:	2500      	movs	r5, #0
   234d8:	7385      	strb	r5, [r0, #14]
   234da:	8185      	strh	r5, [r0, #12]
   234dc:	9511      	str	r5, [sp, #68]	@ 0x44
   234de:	9510      	str	r5, [sp, #64]	@ 0x40
   234e0:	950f      	str	r5, [sp, #60]	@ 0x3c
   234e2:	4826      	ldr	r0, [pc, #152]	@ (2357c <_ZN18complex_no_dynamic3app17hb9139e9eb1ed47cbE+0xbc>)
   234e4:	2105      	movs	r1, #5
   234e6:	4632      	mov	r2, r6
   234e8:	4623      	mov	r3, r4
   234ea:	df04      	svc	4
   234ec:	2802      	cmp	r0, #2
   234ee:	d00e      	beq.n	2350e <_ZN18complex_no_dynamic3app17hb9139e9eb1ed47cbE+0x4e>
   234f0:	4822      	ldr	r0, [pc, #136]	@ (2357c <_ZN18complex_no_dynamic3app17hb9139e9eb1ed47cbE+0xbc>)
   234f2:	2103      	movs	r1, #3
   234f4:	aa0f      	add	r2, sp, #60	@ 0x3c
   234f6:	230f      	movs	r3, #15
   234f8:	df03      	svc	3
   234fa:	2802      	cmp	r0, #2
   234fc:	d007      	beq.n	2350e <_ZN18complex_no_dynamic3app17hb9139e9eb1ed47cbE+0x4e>
   234fe:	481f      	ldr	r0, [pc, #124]	@ (2357c <_ZN18complex_no_dynamic3app17hb9139e9eb1ed47cbE+0xbc>)
   23500:	2105      	movs	r1, #5
   23502:	2203      	movs	r2, #3
   23504:	2600      	movs	r6, #0
   23506:	4633      	mov	r3, r6
   23508:	df02      	svc	2
   2350a:	287f      	cmp	r0, #127	@ 0x7f
   2350c:	d814      	bhi.n	23538 <_ZN18complex_no_dynamic3app17hb9139e9eb1ed47cbE+0x78>
   2350e:	2601      	movs	r6, #1
   23510:	2e00      	cmp	r6, #0
   23512:	d018      	beq.n	23546 <_ZN18complex_no_dynamic3app17hb9139e9eb1ed47cbE+0x86>
   23514:	2001      	movs	r0, #1
   23516:	9a00      	ldr	r2, [sp, #0]
   23518:	7010      	strb	r0, [r2, #0]
   2351a:	6051      	str	r1, [r2, #4]
   2351c:	4c17      	ldr	r4, [pc, #92]	@ (2357c <_ZN18complex_no_dynamic3app17hb9139e9eb1ed47cbE+0xbc>)
   2351e:	2103      	movs	r1, #3
   23520:	2500      	movs	r5, #0
   23522:	4620      	mov	r0, r4
   23524:	462a      	mov	r2, r5
   23526:	462b      	mov	r3, r5
   23528:	df03      	svc	3
   2352a:	2105      	movs	r1, #5
   2352c:	4620      	mov	r0, r4
   2352e:	462a      	mov	r2, r5
   23530:	462b      	mov	r3, r5
   23532:	df04      	svc	4
   23534:	b013      	add	sp, #76	@ 0x4c
   23536:	bdf0      	pop	{r4, r5, r6, r7, pc}
   23538:	4810      	ldr	r0, [pc, #64]	@ (2357c <_ZN18complex_no_dynamic3app17hb9139e9eb1ed47cbE+0xbc>)
   2353a:	2103      	movs	r1, #3
   2353c:	4632      	mov	r2, r6
   2353e:	4633      	mov	r3, r6
   23540:	df03      	svc	3
   23542:	2e00      	cmp	r6, #0
   23544:	d1e6      	bne.n	23514 <_ZN18complex_no_dynamic3app17hb9139e9eb1ed47cbE+0x54>
   23546:	480d      	ldr	r0, [pc, #52]	@ (2357c <_ZN18complex_no_dynamic3app17hb9139e9eb1ed47cbE+0xbc>)
   23548:	2403      	movs	r4, #3
   2354a:	4621      	mov	r1, r4
   2354c:	462a      	mov	r2, r5
   2354e:	462b      	mov	r3, r5
   23550:	df03      	svc	3
   23552:	9e00      	ldr	r6, [sp, #0]
   23554:	1c70      	adds	r0, r6, #1
   23556:	a90f      	add	r1, sp, #60	@ 0x3c
   23558:	220f      	movs	r2, #15
   2355a:	f004 fb7c 	bl	27c56 <__aeabi_memcpy>
   2355e:	7035      	strb	r5, [r6, #0]
   23560:	4e06      	ldr	r6, [pc, #24]	@ (2357c <_ZN18complex_no_dynamic3app17hb9139e9eb1ed47cbE+0xbc>)
   23562:	4630      	mov	r0, r6
   23564:	4621      	mov	r1, r4
   23566:	462a      	mov	r2, r5
   23568:	462b      	mov	r3, r5
   2356a:	df03      	svc	3
   2356c:	2105      	movs	r1, #5
   2356e:	4630      	mov	r0, r6
   23570:	462a      	mov	r2, r5
   23572:	462b      	mov	r3, r5
   23574:	df04      	svc	4
   23576:	b013      	add	sp, #76	@ 0x4c
   23578:	bdf0      	pop	{r4, r5, r6, r7, pc}
   2357a:	46c0      	nop			@ (mov r8, r8)
   2357c:	00000653 	.word	0x00000653

00023580 <_ZN18complex_no_dynamic3app17hbbef398eee30a071E>:
   23580:	b5f0      	push	{r4, r5, r6, r7, lr}
   23582:	af03      	add	r7, sp, #12
   23584:	b097      	sub	sp, #92	@ 0x5c
   23586:	4604      	mov	r4, r0
   23588:	ad01      	add	r5, sp, #4
   2358a:	260f      	movs	r6, #15
   2358c:	4628      	mov	r0, r5
   2358e:	4632      	mov	r2, r6
   23590:	f004 fb61 	bl	27c56 <__aeabi_memcpy>
   23594:	a805      	add	r0, sp, #20
   23596:	2146      	movs	r1, #70	@ 0x46
   23598:	f004 f9b0 	bl	278fc <__aeabi_memclr4>
   2359c:	4824      	ldr	r0, [pc, #144]	@ (23630 <_ZN18complex_no_dynamic3app17hbbef398eee30a071E+0xb0>)
   2359e:	2109      	movs	r1, #9
   235a0:	462a      	mov	r2, r5
   235a2:	4633      	mov	r3, r6
   235a4:	df04      	svc	4
   235a6:	2802      	cmp	r0, #2
   235a8:	d00e      	beq.n	235c8 <_ZN18complex_no_dynamic3app17hbbef398eee30a071E+0x48>
   235aa:	4821      	ldr	r0, [pc, #132]	@ (23630 <_ZN18complex_no_dynamic3app17hbbef398eee30a071E+0xb0>)
   235ac:	2102      	movs	r1, #2
   235ae:	aa05      	add	r2, sp, #20
   235b0:	2346      	movs	r3, #70	@ 0x46
   235b2:	df03      	svc	3
   235b4:	2802      	cmp	r0, #2
   235b6:	d007      	beq.n	235c8 <_ZN18complex_no_dynamic3app17hbbef398eee30a071E+0x48>
   235b8:	481d      	ldr	r0, [pc, #116]	@ (23630 <_ZN18complex_no_dynamic3app17hbbef398eee30a071E+0xb0>)
   235ba:	2109      	movs	r1, #9
   235bc:	2202      	movs	r2, #2
   235be:	2500      	movs	r5, #0
   235c0:	462b      	mov	r3, r5
   235c2:	df02      	svc	2
   235c4:	287f      	cmp	r0, #127	@ 0x7f
   235c6:	d813      	bhi.n	235f0 <_ZN18complex_no_dynamic3app17hbbef398eee30a071E+0x70>
   235c8:	2501      	movs	r5, #1
   235ca:	2d00      	cmp	r5, #0
   235cc:	d017      	beq.n	235fe <_ZN18complex_no_dynamic3app17hbbef398eee30a071E+0x7e>
   235ce:	2001      	movs	r0, #1
   235d0:	7020      	strb	r0, [r4, #0]
   235d2:	6061      	str	r1, [r4, #4]
   235d4:	4c16      	ldr	r4, [pc, #88]	@ (23630 <_ZN18complex_no_dynamic3app17hbbef398eee30a071E+0xb0>)
   235d6:	2102      	movs	r1, #2
   235d8:	2500      	movs	r5, #0
   235da:	4620      	mov	r0, r4
   235dc:	462a      	mov	r2, r5
   235de:	462b      	mov	r3, r5
   235e0:	df03      	svc	3
   235e2:	2109      	movs	r1, #9
   235e4:	4620      	mov	r0, r4
   235e6:	462a      	mov	r2, r5
   235e8:	462b      	mov	r3, r5
   235ea:	df04      	svc	4
   235ec:	b017      	add	sp, #92	@ 0x5c
   235ee:	bdf0      	pop	{r4, r5, r6, r7, pc}
   235f0:	480f      	ldr	r0, [pc, #60]	@ (23630 <_ZN18complex_no_dynamic3app17hbbef398eee30a071E+0xb0>)
   235f2:	2102      	movs	r1, #2
   235f4:	462a      	mov	r2, r5
   235f6:	462b      	mov	r3, r5
   235f8:	df03      	svc	3
   235fa:	2d00      	cmp	r5, #0
   235fc:	d1e7      	bne.n	235ce <_ZN18complex_no_dynamic3app17hbbef398eee30a071E+0x4e>
   235fe:	480c      	ldr	r0, [pc, #48]	@ (23630 <_ZN18complex_no_dynamic3app17hbbef398eee30a071E+0xb0>)
   23600:	2602      	movs	r6, #2
   23602:	2500      	movs	r5, #0
   23604:	4631      	mov	r1, r6
   23606:	462a      	mov	r2, r5
   23608:	462b      	mov	r3, r5
   2360a:	df03      	svc	3
   2360c:	1c60      	adds	r0, r4, #1
   2360e:	a905      	add	r1, sp, #20
   23610:	2246      	movs	r2, #70	@ 0x46
   23612:	f004 fb20 	bl	27c56 <__aeabi_memcpy>
   23616:	7025      	strb	r5, [r4, #0]
   23618:	4805      	ldr	r0, [pc, #20]	@ (23630 <_ZN18complex_no_dynamic3app17hbbef398eee30a071E+0xb0>)
   2361a:	4631      	mov	r1, r6
   2361c:	462a      	mov	r2, r5
   2361e:	462b      	mov	r3, r5
   23620:	df03      	svc	3
   23622:	2109      	movs	r1, #9
   23624:	4802      	ldr	r0, [pc, #8]	@ (23630 <_ZN18complex_no_dynamic3app17hbbef398eee30a071E+0xb0>)
   23626:	462a      	mov	r2, r5
   23628:	462b      	mov	r3, r5
   2362a:	df04      	svc	4
   2362c:	b017      	add	sp, #92	@ 0x5c
   2362e:	bdf0      	pop	{r4, r5, r6, r7, pc}
   23630:	00001d7e 	.word	0x00001d7e

00023634 <_ZN18complex_no_dynamic3app17hbf687c4e931730d6E>:
   23634:	b5f0      	push	{r4, r5, r6, r7, lr}
   23636:	af03      	add	r7, sp, #12
   23638:	b09d      	sub	sp, #116	@ 0x74
   2363a:	9001      	str	r0, [sp, #4]
   2363c:	ac02      	add	r4, sp, #8
   2363e:	2650      	movs	r6, #80	@ 0x50
   23640:	4620      	mov	r0, r4
   23642:	4632      	mov	r2, r6
   23644:	f004 fb07 	bl	27c56 <__aeabi_memcpy>
   23648:	a816      	add	r0, sp, #88	@ 0x58
   2364a:	2500      	movs	r5, #0
   2364c:	7685      	strb	r5, [r0, #26]
   2364e:	8305      	strh	r5, [r0, #24]
   23650:	951b      	str	r5, [sp, #108]	@ 0x6c
   23652:	951a      	str	r5, [sp, #104]	@ 0x68
   23654:	9519      	str	r5, [sp, #100]	@ 0x64
   23656:	9518      	str	r5, [sp, #96]	@ 0x60
   23658:	9517      	str	r5, [sp, #92]	@ 0x5c
   2365a:	9516      	str	r5, [sp, #88]	@ 0x58
   2365c:	4826      	ldr	r0, [pc, #152]	@ (236f8 <_ZN18complex_no_dynamic3app17hbf687c4e931730d6E+0xc4>)
   2365e:	2101      	movs	r1, #1
   23660:	9100      	str	r1, [sp, #0]
   23662:	4622      	mov	r2, r4
   23664:	4633      	mov	r3, r6
   23666:	df04      	svc	4
   23668:	2802      	cmp	r0, #2
   2366a:	d006      	beq.n	2367a <_ZN18complex_no_dynamic3app17hbf687c4e931730d6E+0x46>
   2366c:	4822      	ldr	r0, [pc, #136]	@ (236f8 <_ZN18complex_no_dynamic3app17hbf687c4e931730d6E+0xc4>)
   2366e:	2102      	movs	r1, #2
   23670:	aa16      	add	r2, sp, #88	@ 0x58
   23672:	231b      	movs	r3, #27
   23674:	df03      	svc	3
   23676:	2802      	cmp	r0, #2
   23678:	d12e      	bne.n	236d8 <_ZN18complex_no_dynamic3app17hbf687c4e931730d6E+0xa4>
   2367a:	9e00      	ldr	r6, [sp, #0]
   2367c:	2e00      	cmp	r6, #0
   2367e:	d011      	beq.n	236a4 <_ZN18complex_no_dynamic3app17hbf687c4e931730d6E+0x70>
   23680:	2401      	movs	r4, #1
   23682:	9801      	ldr	r0, [sp, #4]
   23684:	7004      	strb	r4, [r0, #0]
   23686:	6041      	str	r1, [r0, #4]
   23688:	4d1b      	ldr	r5, [pc, #108]	@ (236f8 <_ZN18complex_no_dynamic3app17hbf687c4e931730d6E+0xc4>)
   2368a:	2102      	movs	r1, #2
   2368c:	2600      	movs	r6, #0
   2368e:	4628      	mov	r0, r5
   23690:	4632      	mov	r2, r6
   23692:	4633      	mov	r3, r6
   23694:	df03      	svc	3
   23696:	4628      	mov	r0, r5
   23698:	4621      	mov	r1, r4
   2369a:	4632      	mov	r2, r6
   2369c:	4633      	mov	r3, r6
   2369e:	df04      	svc	4
   236a0:	b01d      	add	sp, #116	@ 0x74
   236a2:	bdf0      	pop	{r4, r5, r6, r7, pc}
   236a4:	4814      	ldr	r0, [pc, #80]	@ (236f8 <_ZN18complex_no_dynamic3app17hbf687c4e931730d6E+0xc4>)
   236a6:	2402      	movs	r4, #2
   236a8:	4621      	mov	r1, r4
   236aa:	462a      	mov	r2, r5
   236ac:	462b      	mov	r3, r5
   236ae:	df03      	svc	3
   236b0:	9e01      	ldr	r6, [sp, #4]
   236b2:	1c70      	adds	r0, r6, #1
   236b4:	a916      	add	r1, sp, #88	@ 0x58
   236b6:	221b      	movs	r2, #27
   236b8:	f004 facd 	bl	27c56 <__aeabi_memcpy>
   236bc:	7035      	strb	r5, [r6, #0]
   236be:	4e0e      	ldr	r6, [pc, #56]	@ (236f8 <_ZN18complex_no_dynamic3app17hbf687c4e931730d6E+0xc4>)
   236c0:	4630      	mov	r0, r6
   236c2:	4621      	mov	r1, r4
   236c4:	462a      	mov	r2, r5
   236c6:	462b      	mov	r3, r5
   236c8:	df03      	svc	3
   236ca:	2101      	movs	r1, #1
   236cc:	4630      	mov	r0, r6
   236ce:	462a      	mov	r2, r5
   236d0:	462b      	mov	r3, r5
   236d2:	df04      	svc	4
   236d4:	b01d      	add	sp, #116	@ 0x74
   236d6:	bdf0      	pop	{r4, r5, r6, r7, pc}
   236d8:	4807      	ldr	r0, [pc, #28]	@ (236f8 <_ZN18complex_no_dynamic3app17hbf687c4e931730d6E+0xc4>)
   236da:	2601      	movs	r6, #1
   236dc:	2202      	movs	r2, #2
   236de:	2400      	movs	r4, #0
   236e0:	4631      	mov	r1, r6
   236e2:	4623      	mov	r3, r4
   236e4:	df02      	svc	2
   236e6:	287f      	cmp	r0, #127	@ 0x7f
   236e8:	d9c8      	bls.n	2367c <_ZN18complex_no_dynamic3app17hbf687c4e931730d6E+0x48>
   236ea:	4803      	ldr	r0, [pc, #12]	@ (236f8 <_ZN18complex_no_dynamic3app17hbf687c4e931730d6E+0xc4>)
   236ec:	2102      	movs	r1, #2
   236ee:	4622      	mov	r2, r4
   236f0:	4623      	mov	r3, r4
   236f2:	df03      	svc	3
   236f4:	4626      	mov	r6, r4
   236f6:	e7c1      	b.n	2367c <_ZN18complex_no_dynamic3app17hbf687c4e931730d6E+0x48>
   236f8:	000003d9 	.word	0x000003d9

000236fc <_ZN18complex_no_dynamic3app17hc249c8910ce5263cE>:
   236fc:	b5f0      	push	{r4, r5, r6, r7, lr}
   236fe:	af03      	add	r7, sp, #12
   23700:	b0af      	sub	sp, #188	@ 0xbc
   23702:	9001      	str	r0, [sp, #4]
   23704:	ae02      	add	r6, sp, #8
   23706:	244f      	movs	r4, #79	@ 0x4f
   23708:	4630      	mov	r0, r6
   2370a:	4622      	mov	r2, r4
   2370c:	f004 faa3 	bl	27c56 <__aeabi_memcpy>
   23710:	a816      	add	r0, sp, #88	@ 0x58
   23712:	2161      	movs	r1, #97	@ 0x61
   23714:	f004 f8f2 	bl	278fc <__aeabi_memclr4>
   23718:	20db      	movs	r0, #219	@ 0xdb
   2371a:	0045      	lsls	r5, r0, #1
   2371c:	2102      	movs	r1, #2
   2371e:	4628      	mov	r0, r5
   23720:	4632      	mov	r2, r6
   23722:	4623      	mov	r3, r4
   23724:	df04      	svc	4
   23726:	2802      	cmp	r0, #2
   23728:	d00e      	beq.n	23748 <_ZN18complex_no_dynamic3app17hc249c8910ce5263cE+0x4c>
   2372a:	2108      	movs	r1, #8
   2372c:	aa16      	add	r2, sp, #88	@ 0x58
   2372e:	2361      	movs	r3, #97	@ 0x61
   23730:	4628      	mov	r0, r5
   23732:	df03      	svc	3
   23734:	2802      	cmp	r0, #2
   23736:	d007      	beq.n	23748 <_ZN18complex_no_dynamic3app17hc249c8910ce5263cE+0x4c>
   23738:	2102      	movs	r1, #2
   2373a:	2208      	movs	r2, #8
   2373c:	2600      	movs	r6, #0
   2373e:	4628      	mov	r0, r5
   23740:	4633      	mov	r3, r6
   23742:	df02      	svc	2
   23744:	287f      	cmp	r0, #127	@ 0x7f
   23746:	d813      	bhi.n	23770 <_ZN18complex_no_dynamic3app17hc249c8910ce5263cE+0x74>
   23748:	2601      	movs	r6, #1
   2374a:	2e00      	cmp	r6, #0
   2374c:	d017      	beq.n	2377e <_ZN18complex_no_dynamic3app17hc249c8910ce5263cE+0x82>
   2374e:	2001      	movs	r0, #1
   23750:	9a01      	ldr	r2, [sp, #4]
   23752:	7010      	strb	r0, [r2, #0]
   23754:	6051      	str	r1, [r2, #4]
   23756:	2108      	movs	r1, #8
   23758:	2400      	movs	r4, #0
   2375a:	4628      	mov	r0, r5
   2375c:	4622      	mov	r2, r4
   2375e:	4623      	mov	r3, r4
   23760:	df03      	svc	3
   23762:	2102      	movs	r1, #2
   23764:	4628      	mov	r0, r5
   23766:	4622      	mov	r2, r4
   23768:	4623      	mov	r3, r4
   2376a:	df04      	svc	4
   2376c:	b02f      	add	sp, #188	@ 0xbc
   2376e:	bdf0      	pop	{r4, r5, r6, r7, pc}
   23770:	2108      	movs	r1, #8
   23772:	4628      	mov	r0, r5
   23774:	4632      	mov	r2, r6
   23776:	4633      	mov	r3, r6
   23778:	df03      	svc	3
   2377a:	2e00      	cmp	r6, #0
   2377c:	d1e7      	bne.n	2374e <_ZN18complex_no_dynamic3app17hc249c8910ce5263cE+0x52>
   2377e:	2108      	movs	r1, #8
   23780:	9100      	str	r1, [sp, #0]
   23782:	2600      	movs	r6, #0
   23784:	4628      	mov	r0, r5
   23786:	4632      	mov	r2, r6
   23788:	4633      	mov	r3, r6
   2378a:	df03      	svc	3
   2378c:	9c01      	ldr	r4, [sp, #4]
   2378e:	1c60      	adds	r0, r4, #1
   23790:	a916      	add	r1, sp, #88	@ 0x58
   23792:	2261      	movs	r2, #97	@ 0x61
   23794:	f004 fa5f 	bl	27c56 <__aeabi_memcpy>
   23798:	7026      	strb	r6, [r4, #0]
   2379a:	4628      	mov	r0, r5
   2379c:	9900      	ldr	r1, [sp, #0]
   2379e:	4632      	mov	r2, r6
   237a0:	4633      	mov	r3, r6
   237a2:	df03      	svc	3
   237a4:	2102      	movs	r1, #2
   237a6:	4628      	mov	r0, r5
   237a8:	4632      	mov	r2, r6
   237aa:	4633      	mov	r3, r6
   237ac:	df04      	svc	4
   237ae:	b02f      	add	sp, #188	@ 0xbc
   237b0:	bdf0      	pop	{r4, r5, r6, r7, pc}
   237b2:	d4d4      	bmi.n	2375e <_ZN18complex_no_dynamic3app17hc249c8910ce5263cE+0x62>

000237b4 <_ZN18complex_no_dynamic3app17hc37f6665a1c42a4aE>:
   237b4:	b5f0      	push	{r4, r5, r6, r7, lr}
   237b6:	af03      	add	r7, sp, #12
   237b8:	b09d      	sub	sp, #116	@ 0x74
   237ba:	9001      	str	r0, [sp, #4]
   237bc:	ae02      	add	r6, sp, #8
   237be:	2455      	movs	r4, #85	@ 0x55
   237c0:	4630      	mov	r0, r6
   237c2:	4622      	mov	r2, r4
   237c4:	f004 fa47 	bl	27c56 <__aeabi_memcpy>
   237c8:	a818      	add	r0, sp, #96	@ 0x60
   237ca:	2500      	movs	r5, #0
   237cc:	7405      	strb	r5, [r0, #16]
   237ce:	951b      	str	r5, [sp, #108]	@ 0x6c
   237d0:	951a      	str	r5, [sp, #104]	@ 0x68
   237d2:	9519      	str	r5, [sp, #100]	@ 0x64
   237d4:	9518      	str	r5, [sp, #96]	@ 0x60
   237d6:	4826      	ldr	r0, [pc, #152]	@ (23870 <_ZN18complex_no_dynamic3app17hc37f6665a1c42a4aE+0xbc>)
   237d8:	2102      	movs	r1, #2
   237da:	4632      	mov	r2, r6
   237dc:	4623      	mov	r3, r4
   237de:	df04      	svc	4
   237e0:	2802      	cmp	r0, #2
   237e2:	d00e      	beq.n	23802 <_ZN18complex_no_dynamic3app17hc37f6665a1c42a4aE+0x4e>
   237e4:	4822      	ldr	r0, [pc, #136]	@ (23870 <_ZN18complex_no_dynamic3app17hc37f6665a1c42a4aE+0xbc>)
   237e6:	2102      	movs	r1, #2
   237e8:	aa18      	add	r2, sp, #96	@ 0x60
   237ea:	2311      	movs	r3, #17
   237ec:	df03      	svc	3
   237ee:	2802      	cmp	r0, #2
   237f0:	d007      	beq.n	23802 <_ZN18complex_no_dynamic3app17hc37f6665a1c42a4aE+0x4e>
   237f2:	481f      	ldr	r0, [pc, #124]	@ (23870 <_ZN18complex_no_dynamic3app17hc37f6665a1c42a4aE+0xbc>)
   237f4:	2102      	movs	r1, #2
   237f6:	2600      	movs	r6, #0
   237f8:	460a      	mov	r2, r1
   237fa:	4633      	mov	r3, r6
   237fc:	df02      	svc	2
   237fe:	287f      	cmp	r0, #127	@ 0x7f
   23800:	d815      	bhi.n	2382e <_ZN18complex_no_dynamic3app17hc37f6665a1c42a4aE+0x7a>
   23802:	2601      	movs	r6, #1
   23804:	2e00      	cmp	r6, #0
   23806:	d019      	beq.n	2383c <_ZN18complex_no_dynamic3app17hc37f6665a1c42a4aE+0x88>
   23808:	2001      	movs	r0, #1
   2380a:	9a01      	ldr	r2, [sp, #4]
   2380c:	7010      	strb	r0, [r2, #0]
   2380e:	6051      	str	r1, [r2, #4]
   23810:	4c17      	ldr	r4, [pc, #92]	@ (23870 <_ZN18complex_no_dynamic3app17hc37f6665a1c42a4aE+0xbc>)
   23812:	2502      	movs	r5, #2
   23814:	2600      	movs	r6, #0
   23816:	4620      	mov	r0, r4
   23818:	4629      	mov	r1, r5
   2381a:	4632      	mov	r2, r6
   2381c:	4633      	mov	r3, r6
   2381e:	df03      	svc	3
   23820:	4620      	mov	r0, r4
   23822:	4629      	mov	r1, r5
   23824:	4632      	mov	r2, r6
   23826:	4633      	mov	r3, r6
   23828:	df04      	svc	4
   2382a:	b01d      	add	sp, #116	@ 0x74
   2382c:	bdf0      	pop	{r4, r5, r6, r7, pc}
   2382e:	4810      	ldr	r0, [pc, #64]	@ (23870 <_ZN18complex_no_dynamic3app17hc37f6665a1c42a4aE+0xbc>)
   23830:	2102      	movs	r1, #2
   23832:	4632      	mov	r2, r6
   23834:	4633      	mov	r3, r6
   23836:	df03      	svc	3
   23838:	2e00      	cmp	r6, #0
   2383a:	d1e5      	bne.n	23808 <_ZN18complex_no_dynamic3app17hc37f6665a1c42a4aE+0x54>
   2383c:	480c      	ldr	r0, [pc, #48]	@ (23870 <_ZN18complex_no_dynamic3app17hc37f6665a1c42a4aE+0xbc>)
   2383e:	2602      	movs	r6, #2
   23840:	4631      	mov	r1, r6
   23842:	462a      	mov	r2, r5
   23844:	462b      	mov	r3, r5
   23846:	df03      	svc	3
   23848:	9c01      	ldr	r4, [sp, #4]
   2384a:	1c60      	adds	r0, r4, #1
   2384c:	a918      	add	r1, sp, #96	@ 0x60
   2384e:	2211      	movs	r2, #17
   23850:	f004 fa01 	bl	27c56 <__aeabi_memcpy>
   23854:	7025      	strb	r5, [r4, #0]
   23856:	4c06      	ldr	r4, [pc, #24]	@ (23870 <_ZN18complex_no_dynamic3app17hc37f6665a1c42a4aE+0xbc>)
   23858:	4620      	mov	r0, r4
   2385a:	4631      	mov	r1, r6
   2385c:	462a      	mov	r2, r5
   2385e:	462b      	mov	r3, r5
   23860:	df03      	svc	3
   23862:	4620      	mov	r0, r4
   23864:	4631      	mov	r1, r6
   23866:	462a      	mov	r2, r5
   23868:	462b      	mov	r3, r5
   2386a:	df04      	svc	4
   2386c:	b01d      	add	sp, #116	@ 0x74
   2386e:	bdf0      	pop	{r4, r5, r6, r7, pc}
   23870:	00000c89 	.word	0x00000c89

00023874 <_ZN18complex_no_dynamic3app17hc5c3d3f09f2020a0E>:
   23874:	b5f0      	push	{r4, r5, r6, r7, lr}
   23876:	af03      	add	r7, sp, #12
   23878:	b0a3      	sub	sp, #140	@ 0x8c
   2387a:	9000      	str	r0, [sp, #0]
   2387c:	ae01      	add	r6, sp, #4
   2387e:	242a      	movs	r4, #42	@ 0x2a
   23880:	4630      	mov	r0, r6
   23882:	4622      	mov	r2, r4
   23884:	f004 f9e7 	bl	27c56 <__aeabi_memcpy>
   23888:	a80c      	add	r0, sp, #48	@ 0x30
   2388a:	2159      	movs	r1, #89	@ 0x59
   2388c:	f004 f836 	bl	278fc <__aeabi_memclr4>
   23890:	4826      	ldr	r0, [pc, #152]	@ (2392c <_ZN18complex_no_dynamic3app17hc5c3d3f09f2020a0E+0xb8>)
   23892:	2501      	movs	r5, #1
   23894:	4629      	mov	r1, r5
   23896:	4632      	mov	r2, r6
   23898:	4623      	mov	r3, r4
   2389a:	df04      	svc	4
   2389c:	2802      	cmp	r0, #2
   2389e:	d015      	beq.n	238cc <_ZN18complex_no_dynamic3app17hc5c3d3f09f2020a0E+0x58>
   238a0:	4822      	ldr	r0, [pc, #136]	@ (2392c <_ZN18complex_no_dynamic3app17hc5c3d3f09f2020a0E+0xb8>)
   238a2:	2103      	movs	r1, #3
   238a4:	aa0c      	add	r2, sp, #48	@ 0x30
   238a6:	2359      	movs	r3, #89	@ 0x59
   238a8:	df03      	svc	3
   238aa:	2802      	cmp	r0, #2
   238ac:	d00e      	beq.n	238cc <_ZN18complex_no_dynamic3app17hc5c3d3f09f2020a0E+0x58>
   238ae:	481f      	ldr	r0, [pc, #124]	@ (2392c <_ZN18complex_no_dynamic3app17hc5c3d3f09f2020a0E+0xb8>)
   238b0:	2501      	movs	r5, #1
   238b2:	2203      	movs	r2, #3
   238b4:	2600      	movs	r6, #0
   238b6:	4629      	mov	r1, r5
   238b8:	4633      	mov	r3, r6
   238ba:	df02      	svc	2
   238bc:	287f      	cmp	r0, #127	@ 0x7f
   238be:	d905      	bls.n	238cc <_ZN18complex_no_dynamic3app17hc5c3d3f09f2020a0E+0x58>
   238c0:	481a      	ldr	r0, [pc, #104]	@ (2392c <_ZN18complex_no_dynamic3app17hc5c3d3f09f2020a0E+0xb8>)
   238c2:	2103      	movs	r1, #3
   238c4:	4632      	mov	r2, r6
   238c6:	4633      	mov	r3, r6
   238c8:	df03      	svc	3
   238ca:	4635      	mov	r5, r6
   238cc:	2d00      	cmp	r5, #0
   238ce:	d011      	beq.n	238f4 <_ZN18complex_no_dynamic3app17hc5c3d3f09f2020a0E+0x80>
   238d0:	2401      	movs	r4, #1
   238d2:	9800      	ldr	r0, [sp, #0]
   238d4:	7004      	strb	r4, [r0, #0]
   238d6:	6041      	str	r1, [r0, #4]
   238d8:	4d14      	ldr	r5, [pc, #80]	@ (2392c <_ZN18complex_no_dynamic3app17hc5c3d3f09f2020a0E+0xb8>)
   238da:	2103      	movs	r1, #3
   238dc:	2600      	movs	r6, #0
   238de:	4628      	mov	r0, r5
   238e0:	4632      	mov	r2, r6
   238e2:	4633      	mov	r3, r6
   238e4:	df03      	svc	3
   238e6:	4628      	mov	r0, r5
   238e8:	4621      	mov	r1, r4
   238ea:	4632      	mov	r2, r6
   238ec:	4633      	mov	r3, r6
   238ee:	df04      	svc	4
   238f0:	b023      	add	sp, #140	@ 0x8c
   238f2:	bdf0      	pop	{r4, r5, r6, r7, pc}
   238f4:	480d      	ldr	r0, [pc, #52]	@ (2392c <_ZN18complex_no_dynamic3app17hc5c3d3f09f2020a0E+0xb8>)
   238f6:	2403      	movs	r4, #3
   238f8:	2500      	movs	r5, #0
   238fa:	4621      	mov	r1, r4
   238fc:	462a      	mov	r2, r5
   238fe:	462b      	mov	r3, r5
   23900:	df03      	svc	3
   23902:	9e00      	ldr	r6, [sp, #0]
   23904:	1c70      	adds	r0, r6, #1
   23906:	a90c      	add	r1, sp, #48	@ 0x30
   23908:	2259      	movs	r2, #89	@ 0x59
   2390a:	f004 f9a4 	bl	27c56 <__aeabi_memcpy>
   2390e:	7035      	strb	r5, [r6, #0]
   23910:	4e06      	ldr	r6, [pc, #24]	@ (2392c <_ZN18complex_no_dynamic3app17hc5c3d3f09f2020a0E+0xb8>)
   23912:	4630      	mov	r0, r6
   23914:	4621      	mov	r1, r4
   23916:	462a      	mov	r2, r5
   23918:	462b      	mov	r3, r5
   2391a:	df03      	svc	3
   2391c:	2101      	movs	r1, #1
   2391e:	4630      	mov	r0, r6
   23920:	462a      	mov	r2, r5
   23922:	462b      	mov	r3, r5
   23924:	df04      	svc	4
   23926:	b023      	add	sp, #140	@ 0x8c
   23928:	bdf0      	pop	{r4, r5, r6, r7, pc}
   2392a:	46c0      	nop			@ (mov r8, r8)
   2392c:	00000ed2 	.word	0x00000ed2

00023930 <_ZN18complex_no_dynamic3app17hc95df7e38c051d0fE>:
   23930:	b5f0      	push	{r4, r5, r6, r7, lr}
   23932:	af03      	add	r7, sp, #12
   23934:	b08f      	sub	sp, #60	@ 0x3c
   23936:	9000      	str	r0, [sp, #0]
   23938:	ae01      	add	r6, sp, #4
   2393a:	241a      	movs	r4, #26
   2393c:	4630      	mov	r0, r6
   2393e:	4622      	mov	r2, r4
   23940:	f004 f989 	bl	27c56 <__aeabi_memcpy>
   23944:	a808      	add	r0, sp, #32
   23946:	2500      	movs	r5, #0
   23948:	7685      	strb	r5, [r0, #26]
   2394a:	8305      	strh	r5, [r0, #24]
   2394c:	950d      	str	r5, [sp, #52]	@ 0x34
   2394e:	950c      	str	r5, [sp, #48]	@ 0x30
   23950:	950b      	str	r5, [sp, #44]	@ 0x2c
   23952:	950a      	str	r5, [sp, #40]	@ 0x28
   23954:	9509      	str	r5, [sp, #36]	@ 0x24
   23956:	9508      	str	r5, [sp, #32]
   23958:	4825      	ldr	r0, [pc, #148]	@ (239f0 <_ZN18complex_no_dynamic3app17hc95df7e38c051d0fE+0xc0>)
   2395a:	2105      	movs	r1, #5
   2395c:	4632      	mov	r2, r6
   2395e:	4623      	mov	r3, r4
   23960:	df04      	svc	4
   23962:	2802      	cmp	r0, #2
   23964:	d00e      	beq.n	23984 <_ZN18complex_no_dynamic3app17hc95df7e38c051d0fE+0x54>
   23966:	4822      	ldr	r0, [pc, #136]	@ (239f0 <_ZN18complex_no_dynamic3app17hc95df7e38c051d0fE+0xc0>)
   23968:	2102      	movs	r1, #2
   2396a:	aa08      	add	r2, sp, #32
   2396c:	231b      	movs	r3, #27
   2396e:	df03      	svc	3
   23970:	2802      	cmp	r0, #2
   23972:	d007      	beq.n	23984 <_ZN18complex_no_dynamic3app17hc95df7e38c051d0fE+0x54>
   23974:	481e      	ldr	r0, [pc, #120]	@ (239f0 <_ZN18complex_no_dynamic3app17hc95df7e38c051d0fE+0xc0>)
   23976:	2105      	movs	r1, #5
   23978:	2202      	movs	r2, #2
   2397a:	2600      	movs	r6, #0
   2397c:	4633      	mov	r3, r6
   2397e:	df02      	svc	2
   23980:	287f      	cmp	r0, #127	@ 0x7f
   23982:	d814      	bhi.n	239ae <_ZN18complex_no_dynamic3app17hc95df7e38c051d0fE+0x7e>
   23984:	2601      	movs	r6, #1
   23986:	2e00      	cmp	r6, #0
   23988:	d018      	beq.n	239bc <_ZN18complex_no_dynamic3app17hc95df7e38c051d0fE+0x8c>
   2398a:	2001      	movs	r0, #1
   2398c:	9a00      	ldr	r2, [sp, #0]
   2398e:	7010      	strb	r0, [r2, #0]
   23990:	6051      	str	r1, [r2, #4]
   23992:	4c17      	ldr	r4, [pc, #92]	@ (239f0 <_ZN18complex_no_dynamic3app17hc95df7e38c051d0fE+0xc0>)
   23994:	2102      	movs	r1, #2
   23996:	2500      	movs	r5, #0
   23998:	4620      	mov	r0, r4
   2399a:	462a      	mov	r2, r5
   2399c:	462b      	mov	r3, r5
   2399e:	df03      	svc	3
   239a0:	2105      	movs	r1, #5
   239a2:	4620      	mov	r0, r4
   239a4:	462a      	mov	r2, r5
   239a6:	462b      	mov	r3, r5
   239a8:	df04      	svc	4
   239aa:	b00f      	add	sp, #60	@ 0x3c
   239ac:	bdf0      	pop	{r4, r5, r6, r7, pc}
   239ae:	4810      	ldr	r0, [pc, #64]	@ (239f0 <_ZN18complex_no_dynamic3app17hc95df7e38c051d0fE+0xc0>)
   239b0:	2102      	movs	r1, #2
   239b2:	4632      	mov	r2, r6
   239b4:	4633      	mov	r3, r6
   239b6:	df03      	svc	3
   239b8:	2e00      	cmp	r6, #0
   239ba:	d1e6      	bne.n	2398a <_ZN18complex_no_dynamic3app17hc95df7e38c051d0fE+0x5a>
   239bc:	480c      	ldr	r0, [pc, #48]	@ (239f0 <_ZN18complex_no_dynamic3app17hc95df7e38c051d0fE+0xc0>)
   239be:	2402      	movs	r4, #2
   239c0:	4621      	mov	r1, r4
   239c2:	462a      	mov	r2, r5
   239c4:	462b      	mov	r3, r5
   239c6:	df03      	svc	3
   239c8:	9e00      	ldr	r6, [sp, #0]
   239ca:	1c70      	adds	r0, r6, #1
   239cc:	a908      	add	r1, sp, #32
   239ce:	221b      	movs	r2, #27
   239d0:	f004 f941 	bl	27c56 <__aeabi_memcpy>
   239d4:	7035      	strb	r5, [r6, #0]
   239d6:	4e06      	ldr	r6, [pc, #24]	@ (239f0 <_ZN18complex_no_dynamic3app17hc95df7e38c051d0fE+0xc0>)
   239d8:	4630      	mov	r0, r6
   239da:	4621      	mov	r1, r4
   239dc:	462a      	mov	r2, r5
   239de:	462b      	mov	r3, r5
   239e0:	df03      	svc	3
   239e2:	2105      	movs	r1, #5
   239e4:	4630      	mov	r0, r6
   239e6:	462a      	mov	r2, r5
   239e8:	462b      	mov	r3, r5
   239ea:	df04      	svc	4
   239ec:	b00f      	add	sp, #60	@ 0x3c
   239ee:	bdf0      	pop	{r4, r5, r6, r7, pc}
   239f0:	00001cce 	.word	0x00001cce

000239f4 <_ZN18complex_no_dynamic3app17hcf8bed44bc6c9b6dE>:
   239f4:	b5f0      	push	{r4, r5, r6, r7, lr}
   239f6:	af03      	add	r7, sp, #12
   239f8:	b0a3      	sub	sp, #140	@ 0x8c
   239fa:	4604      	mov	r4, r0
   239fc:	466d      	mov	r5, sp
   239fe:	2655      	movs	r6, #85	@ 0x55
   23a00:	4628      	mov	r0, r5
   23a02:	4632      	mov	r2, r6
   23a04:	f004 f927 	bl	27c56 <__aeabi_memcpy>
   23a08:	a816      	add	r0, sp, #88	@ 0x58
   23a0a:	2132      	movs	r1, #50	@ 0x32
   23a0c:	f003 ff76 	bl	278fc <__aeabi_memclr4>
   23a10:	4825      	ldr	r0, [pc, #148]	@ (23aa8 <_ZN18complex_no_dynamic3app17hcf8bed44bc6c9b6dE+0xb4>)
   23a12:	2108      	movs	r1, #8
   23a14:	462a      	mov	r2, r5
   23a16:	4633      	mov	r3, r6
   23a18:	df04      	svc	4
   23a1a:	2802      	cmp	r0, #2
   23a1c:	d00e      	beq.n	23a3c <_ZN18complex_no_dynamic3app17hcf8bed44bc6c9b6dE+0x48>
   23a1e:	4822      	ldr	r0, [pc, #136]	@ (23aa8 <_ZN18complex_no_dynamic3app17hcf8bed44bc6c9b6dE+0xb4>)
   23a20:	2108      	movs	r1, #8
   23a22:	aa16      	add	r2, sp, #88	@ 0x58
   23a24:	2332      	movs	r3, #50	@ 0x32
   23a26:	df03      	svc	3
   23a28:	2802      	cmp	r0, #2
   23a2a:	d007      	beq.n	23a3c <_ZN18complex_no_dynamic3app17hcf8bed44bc6c9b6dE+0x48>
   23a2c:	481e      	ldr	r0, [pc, #120]	@ (23aa8 <_ZN18complex_no_dynamic3app17hcf8bed44bc6c9b6dE+0xb4>)
   23a2e:	2108      	movs	r1, #8
   23a30:	2500      	movs	r5, #0
   23a32:	460a      	mov	r2, r1
   23a34:	462b      	mov	r3, r5
   23a36:	df02      	svc	2
   23a38:	287f      	cmp	r0, #127	@ 0x7f
   23a3a:	d814      	bhi.n	23a66 <_ZN18complex_no_dynamic3app17hcf8bed44bc6c9b6dE+0x72>
   23a3c:	2501      	movs	r5, #1
   23a3e:	2d00      	cmp	r5, #0
   23a40:	d018      	beq.n	23a74 <_ZN18complex_no_dynamic3app17hcf8bed44bc6c9b6dE+0x80>
   23a42:	2001      	movs	r0, #1
   23a44:	7020      	strb	r0, [r4, #0]
   23a46:	6061      	str	r1, [r4, #4]
   23a48:	4c17      	ldr	r4, [pc, #92]	@ (23aa8 <_ZN18complex_no_dynamic3app17hcf8bed44bc6c9b6dE+0xb4>)
   23a4a:	2508      	movs	r5, #8
   23a4c:	2600      	movs	r6, #0
   23a4e:	4620      	mov	r0, r4
   23a50:	4629      	mov	r1, r5
   23a52:	4632      	mov	r2, r6
   23a54:	4633      	mov	r3, r6
   23a56:	df03      	svc	3
   23a58:	4620      	mov	r0, r4
   23a5a:	4629      	mov	r1, r5
   23a5c:	4632      	mov	r2, r6
   23a5e:	4633      	mov	r3, r6
   23a60:	df04      	svc	4
   23a62:	b023      	add	sp, #140	@ 0x8c
   23a64:	bdf0      	pop	{r4, r5, r6, r7, pc}
   23a66:	4810      	ldr	r0, [pc, #64]	@ (23aa8 <_ZN18complex_no_dynamic3app17hcf8bed44bc6c9b6dE+0xb4>)
   23a68:	2108      	movs	r1, #8
   23a6a:	462a      	mov	r2, r5
   23a6c:	462b      	mov	r3, r5
   23a6e:	df03      	svc	3
   23a70:	2d00      	cmp	r5, #0
   23a72:	d1e6      	bne.n	23a42 <_ZN18complex_no_dynamic3app17hcf8bed44bc6c9b6dE+0x4e>
   23a74:	480c      	ldr	r0, [pc, #48]	@ (23aa8 <_ZN18complex_no_dynamic3app17hcf8bed44bc6c9b6dE+0xb4>)
   23a76:	2608      	movs	r6, #8
   23a78:	2500      	movs	r5, #0
   23a7a:	4631      	mov	r1, r6
   23a7c:	462a      	mov	r2, r5
   23a7e:	462b      	mov	r3, r5
   23a80:	df03      	svc	3
   23a82:	1c60      	adds	r0, r4, #1
   23a84:	a916      	add	r1, sp, #88	@ 0x58
   23a86:	2232      	movs	r2, #50	@ 0x32
   23a88:	f004 f8e5 	bl	27c56 <__aeabi_memcpy>
   23a8c:	7025      	strb	r5, [r4, #0]
   23a8e:	4806      	ldr	r0, [pc, #24]	@ (23aa8 <_ZN18complex_no_dynamic3app17hcf8bed44bc6c9b6dE+0xb4>)
   23a90:	4631      	mov	r1, r6
   23a92:	462a      	mov	r2, r5
   23a94:	462b      	mov	r3, r5
   23a96:	df03      	svc	3
   23a98:	4803      	ldr	r0, [pc, #12]	@ (23aa8 <_ZN18complex_no_dynamic3app17hcf8bed44bc6c9b6dE+0xb4>)
   23a9a:	4631      	mov	r1, r6
   23a9c:	462a      	mov	r2, r5
   23a9e:	462b      	mov	r3, r5
   23aa0:	df04      	svc	4
   23aa2:	b023      	add	sp, #140	@ 0x8c
   23aa4:	bdf0      	pop	{r4, r5, r6, r7, pc}
   23aa6:	46c0      	nop			@ (mov r8, r8)
   23aa8:	00002095 	.word	0x00002095

00023aac <_ZN18complex_no_dynamic3app17hd77a68297416d1dcE>:
   23aac:	b5f0      	push	{r4, r5, r6, r7, lr}
   23aae:	af03      	add	r7, sp, #12
   23ab0:	b0a9      	sub	sp, #164	@ 0xa4
   23ab2:	9001      	str	r0, [sp, #4]
   23ab4:	ae02      	add	r6, sp, #8
   23ab6:	243a      	movs	r4, #58	@ 0x3a
   23ab8:	4630      	mov	r0, r6
   23aba:	4622      	mov	r2, r4
   23abc:	f004 f8cb 	bl	27c56 <__aeabi_memcpy>
   23ac0:	a811      	add	r0, sp, #68	@ 0x44
   23ac2:	215d      	movs	r1, #93	@ 0x5d
   23ac4:	f003 ff1a 	bl	278fc <__aeabi_memclr4>
   23ac8:	4826      	ldr	r0, [pc, #152]	@ (23b64 <_ZN18complex_no_dynamic3app17hd77a68297416d1dcE+0xb8>)
   23aca:	2500      	movs	r5, #0
   23acc:	4629      	mov	r1, r5
   23ace:	4632      	mov	r2, r6
   23ad0:	4623      	mov	r3, r4
   23ad2:	df04      	svc	4
   23ad4:	2802      	cmp	r0, #2
   23ad6:	d00e      	beq.n	23af6 <_ZN18complex_no_dynamic3app17hd77a68297416d1dcE+0x4a>
   23ad8:	4822      	ldr	r0, [pc, #136]	@ (23b64 <_ZN18complex_no_dynamic3app17hd77a68297416d1dcE+0xb8>)
   23ada:	2105      	movs	r1, #5
   23adc:	aa11      	add	r2, sp, #68	@ 0x44
   23ade:	235d      	movs	r3, #93	@ 0x5d
   23ae0:	df03      	svc	3
   23ae2:	2802      	cmp	r0, #2
   23ae4:	d007      	beq.n	23af6 <_ZN18complex_no_dynamic3app17hd77a68297416d1dcE+0x4a>
   23ae6:	481f      	ldr	r0, [pc, #124]	@ (23b64 <_ZN18complex_no_dynamic3app17hd77a68297416d1dcE+0xb8>)
   23ae8:	2205      	movs	r2, #5
   23aea:	2600      	movs	r6, #0
   23aec:	4631      	mov	r1, r6
   23aee:	4633      	mov	r3, r6
   23af0:	df02      	svc	2
   23af2:	287f      	cmp	r0, #127	@ 0x7f
   23af4:	d814      	bhi.n	23b20 <_ZN18complex_no_dynamic3app17hd77a68297416d1dcE+0x74>
   23af6:	2601      	movs	r6, #1
   23af8:	2e00      	cmp	r6, #0
   23afa:	d018      	beq.n	23b2e <_ZN18complex_no_dynamic3app17hd77a68297416d1dcE+0x82>
   23afc:	2001      	movs	r0, #1
   23afe:	9a01      	ldr	r2, [sp, #4]
   23b00:	7010      	strb	r0, [r2, #0]
   23b02:	6051      	str	r1, [r2, #4]
   23b04:	4c17      	ldr	r4, [pc, #92]	@ (23b64 <_ZN18complex_no_dynamic3app17hd77a68297416d1dcE+0xb8>)
   23b06:	2105      	movs	r1, #5
   23b08:	2500      	movs	r5, #0
   23b0a:	4620      	mov	r0, r4
   23b0c:	462a      	mov	r2, r5
   23b0e:	462b      	mov	r3, r5
   23b10:	df03      	svc	3
   23b12:	4620      	mov	r0, r4
   23b14:	4629      	mov	r1, r5
   23b16:	462a      	mov	r2, r5
   23b18:	462b      	mov	r3, r5
   23b1a:	df04      	svc	4
   23b1c:	b029      	add	sp, #164	@ 0xa4
   23b1e:	bdf0      	pop	{r4, r5, r6, r7, pc}
   23b20:	4810      	ldr	r0, [pc, #64]	@ (23b64 <_ZN18complex_no_dynamic3app17hd77a68297416d1dcE+0xb8>)
   23b22:	2105      	movs	r1, #5
   23b24:	4632      	mov	r2, r6
   23b26:	4633      	mov	r3, r6
   23b28:	df03      	svc	3
   23b2a:	2e00      	cmp	r6, #0
   23b2c:	d1e6      	bne.n	23afc <_ZN18complex_no_dynamic3app17hd77a68297416d1dcE+0x50>
   23b2e:	480d      	ldr	r0, [pc, #52]	@ (23b64 <_ZN18complex_no_dynamic3app17hd77a68297416d1dcE+0xb8>)
   23b30:	2405      	movs	r4, #5
   23b32:	4621      	mov	r1, r4
   23b34:	462a      	mov	r2, r5
   23b36:	462b      	mov	r3, r5
   23b38:	df03      	svc	3
   23b3a:	9e01      	ldr	r6, [sp, #4]
   23b3c:	1c70      	adds	r0, r6, #1
   23b3e:	a911      	add	r1, sp, #68	@ 0x44
   23b40:	225d      	movs	r2, #93	@ 0x5d
   23b42:	f004 f888 	bl	27c56 <__aeabi_memcpy>
   23b46:	7035      	strb	r5, [r6, #0]
   23b48:	4e06      	ldr	r6, [pc, #24]	@ (23b64 <_ZN18complex_no_dynamic3app17hd77a68297416d1dcE+0xb8>)
   23b4a:	4630      	mov	r0, r6
   23b4c:	4621      	mov	r1, r4
   23b4e:	462a      	mov	r2, r5
   23b50:	462b      	mov	r3, r5
   23b52:	df03      	svc	3
   23b54:	4630      	mov	r0, r6
   23b56:	4629      	mov	r1, r5
   23b58:	462a      	mov	r2, r5
   23b5a:	462b      	mov	r3, r5
   23b5c:	df04      	svc	4
   23b5e:	b029      	add	sp, #164	@ 0xa4
   23b60:	bdf0      	pop	{r4, r5, r6, r7, pc}
   23b62:	46c0      	nop			@ (mov r8, r8)
   23b64:	000014a4 	.word	0x000014a4

00023b68 <_ZN18complex_no_dynamic3app17hd7d3ad96df436dbeE>:
   23b68:	b5f0      	push	{r4, r5, r6, r7, lr}
   23b6a:	af03      	add	r7, sp, #12
   23b6c:	b093      	sub	sp, #76	@ 0x4c
   23b6e:	4604      	mov	r4, r0
   23b70:	466d      	mov	r5, sp
   23b72:	261e      	movs	r6, #30
   23b74:	4628      	mov	r0, r5
   23b76:	4632      	mov	r2, r6
   23b78:	f004 f86d 	bl	27c56 <__aeabi_memcpy>
   23b7c:	a808      	add	r0, sp, #32
   23b7e:	212c      	movs	r1, #44	@ 0x2c
   23b80:	f003 febc 	bl	278fc <__aeabi_memclr4>
   23b84:	4824      	ldr	r0, [pc, #144]	@ (23c18 <_ZN18complex_no_dynamic3app17hd7d3ad96df436dbeE+0xb0>)
   23b86:	2107      	movs	r1, #7
   23b88:	462a      	mov	r2, r5
   23b8a:	4633      	mov	r3, r6
   23b8c:	df04      	svc	4
   23b8e:	2802      	cmp	r0, #2
   23b90:	d00e      	beq.n	23bb0 <_ZN18complex_no_dynamic3app17hd7d3ad96df436dbeE+0x48>
   23b92:	4821      	ldr	r0, [pc, #132]	@ (23c18 <_ZN18complex_no_dynamic3app17hd7d3ad96df436dbeE+0xb0>)
   23b94:	2100      	movs	r1, #0
   23b96:	aa08      	add	r2, sp, #32
   23b98:	232c      	movs	r3, #44	@ 0x2c
   23b9a:	df03      	svc	3
   23b9c:	2802      	cmp	r0, #2
   23b9e:	d007      	beq.n	23bb0 <_ZN18complex_no_dynamic3app17hd7d3ad96df436dbeE+0x48>
   23ba0:	481d      	ldr	r0, [pc, #116]	@ (23c18 <_ZN18complex_no_dynamic3app17hd7d3ad96df436dbeE+0xb0>)
   23ba2:	2107      	movs	r1, #7
   23ba4:	2500      	movs	r5, #0
   23ba6:	462a      	mov	r2, r5
   23ba8:	462b      	mov	r3, r5
   23baa:	df02      	svc	2
   23bac:	287f      	cmp	r0, #127	@ 0x7f
   23bae:	d813      	bhi.n	23bd8 <_ZN18complex_no_dynamic3app17hd7d3ad96df436dbeE+0x70>
   23bb0:	2501      	movs	r5, #1
   23bb2:	2d00      	cmp	r5, #0
   23bb4:	d017      	beq.n	23be6 <_ZN18complex_no_dynamic3app17hd7d3ad96df436dbeE+0x7e>
   23bb6:	2001      	movs	r0, #1
   23bb8:	7020      	strb	r0, [r4, #0]
   23bba:	6061      	str	r1, [r4, #4]
   23bbc:	4c16      	ldr	r4, [pc, #88]	@ (23c18 <_ZN18complex_no_dynamic3app17hd7d3ad96df436dbeE+0xb0>)
   23bbe:	2500      	movs	r5, #0
   23bc0:	4620      	mov	r0, r4
   23bc2:	4629      	mov	r1, r5
   23bc4:	462a      	mov	r2, r5
   23bc6:	462b      	mov	r3, r5
   23bc8:	df03      	svc	3
   23bca:	2107      	movs	r1, #7
   23bcc:	4620      	mov	r0, r4
   23bce:	462a      	mov	r2, r5
   23bd0:	462b      	mov	r3, r5
   23bd2:	df04      	svc	4
   23bd4:	b013      	add	sp, #76	@ 0x4c
   23bd6:	bdf0      	pop	{r4, r5, r6, r7, pc}
   23bd8:	480f      	ldr	r0, [pc, #60]	@ (23c18 <_ZN18complex_no_dynamic3app17hd7d3ad96df436dbeE+0xb0>)
   23bda:	4629      	mov	r1, r5
   23bdc:	462a      	mov	r2, r5
   23bde:	462b      	mov	r3, r5
   23be0:	df03      	svc	3
   23be2:	2d00      	cmp	r5, #0
   23be4:	d1e7      	bne.n	23bb6 <_ZN18complex_no_dynamic3app17hd7d3ad96df436dbeE+0x4e>
   23be6:	4e0c      	ldr	r6, [pc, #48]	@ (23c18 <_ZN18complex_no_dynamic3app17hd7d3ad96df436dbeE+0xb0>)
   23be8:	2500      	movs	r5, #0
   23bea:	4630      	mov	r0, r6
   23bec:	4629      	mov	r1, r5
   23bee:	462a      	mov	r2, r5
   23bf0:	462b      	mov	r3, r5
   23bf2:	df03      	svc	3
   23bf4:	1c60      	adds	r0, r4, #1
   23bf6:	a908      	add	r1, sp, #32
   23bf8:	222c      	movs	r2, #44	@ 0x2c
   23bfa:	f004 f82c 	bl	27c56 <__aeabi_memcpy>
   23bfe:	7025      	strb	r5, [r4, #0]
   23c00:	4630      	mov	r0, r6
   23c02:	4629      	mov	r1, r5
   23c04:	462a      	mov	r2, r5
   23c06:	462b      	mov	r3, r5
   23c08:	df03      	svc	3
   23c0a:	2107      	movs	r1, #7
   23c0c:	4630      	mov	r0, r6
   23c0e:	462a      	mov	r2, r5
   23c10:	462b      	mov	r3, r5
   23c12:	df04      	svc	4
   23c14:	b013      	add	sp, #76	@ 0x4c
   23c16:	bdf0      	pop	{r4, r5, r6, r7, pc}
   23c18:	000003fb 	.word	0x000003fb

00023c1c <_ZN18complex_no_dynamic3app17hd8804f85a0d315ecE>:
   23c1c:	b5f0      	push	{r4, r5, r6, r7, lr}
   23c1e:	af03      	add	r7, sp, #12
   23c20:	b0a3      	sub	sp, #140	@ 0x8c
   23c22:	4604      	mov	r4, r0
   23c24:	466d      	mov	r5, sp
   23c26:	264f      	movs	r6, #79	@ 0x4f
   23c28:	4628      	mov	r0, r5
   23c2a:	4632      	mov	r2, r6
   23c2c:	f004 f813 	bl	27c56 <__aeabi_memcpy>
   23c30:	a814      	add	r0, sp, #80	@ 0x50
   23c32:	213b      	movs	r1, #59	@ 0x3b
   23c34:	f003 fe62 	bl	278fc <__aeabi_memclr4>
   23c38:	4824      	ldr	r0, [pc, #144]	@ (23ccc <_ZN18complex_no_dynamic3app17hd8804f85a0d315ecE+0xb0>)
   23c3a:	2108      	movs	r1, #8
   23c3c:	462a      	mov	r2, r5
   23c3e:	4633      	mov	r3, r6
   23c40:	df04      	svc	4
   23c42:	2802      	cmp	r0, #2
   23c44:	d00e      	beq.n	23c64 <_ZN18complex_no_dynamic3app17hd8804f85a0d315ecE+0x48>
   23c46:	4821      	ldr	r0, [pc, #132]	@ (23ccc <_ZN18complex_no_dynamic3app17hd8804f85a0d315ecE+0xb0>)
   23c48:	2105      	movs	r1, #5
   23c4a:	aa14      	add	r2, sp, #80	@ 0x50
   23c4c:	233b      	movs	r3, #59	@ 0x3b
   23c4e:	df03      	svc	3
   23c50:	2802      	cmp	r0, #2
   23c52:	d007      	beq.n	23c64 <_ZN18complex_no_dynamic3app17hd8804f85a0d315ecE+0x48>
   23c54:	481d      	ldr	r0, [pc, #116]	@ (23ccc <_ZN18complex_no_dynamic3app17hd8804f85a0d315ecE+0xb0>)
   23c56:	2108      	movs	r1, #8
   23c58:	2205      	movs	r2, #5
   23c5a:	2500      	movs	r5, #0
   23c5c:	462b      	mov	r3, r5
   23c5e:	df02      	svc	2
   23c60:	287f      	cmp	r0, #127	@ 0x7f
   23c62:	d813      	bhi.n	23c8c <_ZN18complex_no_dynamic3app17hd8804f85a0d315ecE+0x70>
   23c64:	2501      	movs	r5, #1
   23c66:	2d00      	cmp	r5, #0
   23c68:	d017      	beq.n	23c9a <_ZN18complex_no_dynamic3app17hd8804f85a0d315ecE+0x7e>
   23c6a:	2001      	movs	r0, #1
   23c6c:	7020      	strb	r0, [r4, #0]
   23c6e:	6061      	str	r1, [r4, #4]
   23c70:	4c16      	ldr	r4, [pc, #88]	@ (23ccc <_ZN18complex_no_dynamic3app17hd8804f85a0d315ecE+0xb0>)
   23c72:	2105      	movs	r1, #5
   23c74:	2500      	movs	r5, #0
   23c76:	4620      	mov	r0, r4
   23c78:	462a      	mov	r2, r5
   23c7a:	462b      	mov	r3, r5
   23c7c:	df03      	svc	3
   23c7e:	2108      	movs	r1, #8
   23c80:	4620      	mov	r0, r4
   23c82:	462a      	mov	r2, r5
   23c84:	462b      	mov	r3, r5
   23c86:	df04      	svc	4
   23c88:	b023      	add	sp, #140	@ 0x8c
   23c8a:	bdf0      	pop	{r4, r5, r6, r7, pc}
   23c8c:	480f      	ldr	r0, [pc, #60]	@ (23ccc <_ZN18complex_no_dynamic3app17hd8804f85a0d315ecE+0xb0>)
   23c8e:	2105      	movs	r1, #5
   23c90:	462a      	mov	r2, r5
   23c92:	462b      	mov	r3, r5
   23c94:	df03      	svc	3
   23c96:	2d00      	cmp	r5, #0
   23c98:	d1e7      	bne.n	23c6a <_ZN18complex_no_dynamic3app17hd8804f85a0d315ecE+0x4e>
   23c9a:	480c      	ldr	r0, [pc, #48]	@ (23ccc <_ZN18complex_no_dynamic3app17hd8804f85a0d315ecE+0xb0>)
   23c9c:	2605      	movs	r6, #5
   23c9e:	2500      	movs	r5, #0
   23ca0:	4631      	mov	r1, r6
   23ca2:	462a      	mov	r2, r5
   23ca4:	462b      	mov	r3, r5
   23ca6:	df03      	svc	3
   23ca8:	1c60      	adds	r0, r4, #1
   23caa:	a914      	add	r1, sp, #80	@ 0x50
   23cac:	223b      	movs	r2, #59	@ 0x3b
   23cae:	f003 ffd2 	bl	27c56 <__aeabi_memcpy>
   23cb2:	7025      	strb	r5, [r4, #0]
   23cb4:	4805      	ldr	r0, [pc, #20]	@ (23ccc <_ZN18complex_no_dynamic3app17hd8804f85a0d315ecE+0xb0>)
   23cb6:	4631      	mov	r1, r6
   23cb8:	462a      	mov	r2, r5
   23cba:	462b      	mov	r3, r5
   23cbc:	df03      	svc	3
   23cbe:	2108      	movs	r1, #8
   23cc0:	4802      	ldr	r0, [pc, #8]	@ (23ccc <_ZN18complex_no_dynamic3app17hd8804f85a0d315ecE+0xb0>)
   23cc2:	462a      	mov	r2, r5
   23cc4:	462b      	mov	r3, r5
   23cc6:	df04      	svc	4
   23cc8:	b023      	add	sp, #140	@ 0x8c
   23cca:	bdf0      	pop	{r4, r5, r6, r7, pc}
   23ccc:	00000a06 	.word	0x00000a06

00023cd0 <_ZN18complex_no_dynamic3app17hd911c7c84bedadf9E>:
   23cd0:	b5f0      	push	{r4, r5, r6, r7, lr}
   23cd2:	af03      	add	r7, sp, #12
   23cd4:	b095      	sub	sp, #84	@ 0x54
   23cd6:	9000      	str	r0, [sp, #0]
   23cd8:	ae01      	add	r6, sp, #4
   23cda:	2434      	movs	r4, #52	@ 0x34
   23cdc:	4630      	mov	r0, r6
   23cde:	4622      	mov	r2, r4
   23ce0:	f003 ffb9 	bl	27c56 <__aeabi_memcpy>
   23ce4:	a80e      	add	r0, sp, #56	@ 0x38
   23ce6:	2500      	movs	r5, #0
   23ce8:	8305      	strh	r5, [r0, #24]
   23cea:	9513      	str	r5, [sp, #76]	@ 0x4c
   23cec:	9512      	str	r5, [sp, #72]	@ 0x48
   23cee:	9511      	str	r5, [sp, #68]	@ 0x44
   23cf0:	9510      	str	r5, [sp, #64]	@ 0x40
   23cf2:	950f      	str	r5, [sp, #60]	@ 0x3c
   23cf4:	950e      	str	r5, [sp, #56]	@ 0x38
   23cf6:	4826      	ldr	r0, [pc, #152]	@ (23d90 <_ZN18complex_no_dynamic3app17hd911c7c84bedadf9E+0xc0>)
   23cf8:	4629      	mov	r1, r5
   23cfa:	4632      	mov	r2, r6
   23cfc:	4623      	mov	r3, r4
   23cfe:	df04      	svc	4
   23d00:	2802      	cmp	r0, #2
   23d02:	d00e      	beq.n	23d22 <_ZN18complex_no_dynamic3app17hd911c7c84bedadf9E+0x52>
   23d04:	4822      	ldr	r0, [pc, #136]	@ (23d90 <_ZN18complex_no_dynamic3app17hd911c7c84bedadf9E+0xc0>)
   23d06:	2105      	movs	r1, #5
   23d08:	aa0e      	add	r2, sp, #56	@ 0x38
   23d0a:	231a      	movs	r3, #26
   23d0c:	df03      	svc	3
   23d0e:	2802      	cmp	r0, #2
   23d10:	d007      	beq.n	23d22 <_ZN18complex_no_dynamic3app17hd911c7c84bedadf9E+0x52>
   23d12:	481f      	ldr	r0, [pc, #124]	@ (23d90 <_ZN18complex_no_dynamic3app17hd911c7c84bedadf9E+0xc0>)
   23d14:	2205      	movs	r2, #5
   23d16:	2600      	movs	r6, #0
   23d18:	4631      	mov	r1, r6
   23d1a:	4633      	mov	r3, r6
   23d1c:	df02      	svc	2
   23d1e:	287f      	cmp	r0, #127	@ 0x7f
   23d20:	d814      	bhi.n	23d4c <_ZN18complex_no_dynamic3app17hd911c7c84bedadf9E+0x7c>
   23d22:	2601      	movs	r6, #1
   23d24:	2e00      	cmp	r6, #0
   23d26:	d018      	beq.n	23d5a <_ZN18complex_no_dynamic3app17hd911c7c84bedadf9E+0x8a>
   23d28:	2001      	movs	r0, #1
   23d2a:	9a00      	ldr	r2, [sp, #0]
   23d2c:	7010      	strb	r0, [r2, #0]
   23d2e:	6051      	str	r1, [r2, #4]
   23d30:	4c17      	ldr	r4, [pc, #92]	@ (23d90 <_ZN18complex_no_dynamic3app17hd911c7c84bedadf9E+0xc0>)
   23d32:	2105      	movs	r1, #5
   23d34:	2500      	movs	r5, #0
   23d36:	4620      	mov	r0, r4
   23d38:	462a      	mov	r2, r5
   23d3a:	462b      	mov	r3, r5
   23d3c:	df03      	svc	3
   23d3e:	4620      	mov	r0, r4
   23d40:	4629      	mov	r1, r5
   23d42:	462a      	mov	r2, r5
   23d44:	462b      	mov	r3, r5
   23d46:	df04      	svc	4
   23d48:	b015      	add	sp, #84	@ 0x54
   23d4a:	bdf0      	pop	{r4, r5, r6, r7, pc}
   23d4c:	4810      	ldr	r0, [pc, #64]	@ (23d90 <_ZN18complex_no_dynamic3app17hd911c7c84bedadf9E+0xc0>)
   23d4e:	2105      	movs	r1, #5
   23d50:	4632      	mov	r2, r6
   23d52:	4633      	mov	r3, r6
   23d54:	df03      	svc	3
   23d56:	2e00      	cmp	r6, #0
   23d58:	d1e6      	bne.n	23d28 <_ZN18complex_no_dynamic3app17hd911c7c84bedadf9E+0x58>
   23d5a:	480d      	ldr	r0, [pc, #52]	@ (23d90 <_ZN18complex_no_dynamic3app17hd911c7c84bedadf9E+0xc0>)
   23d5c:	2405      	movs	r4, #5
   23d5e:	4621      	mov	r1, r4
   23d60:	462a      	mov	r2, r5
   23d62:	462b      	mov	r3, r5
   23d64:	df03      	svc	3
   23d66:	9e00      	ldr	r6, [sp, #0]
   23d68:	1c70      	adds	r0, r6, #1
   23d6a:	a90e      	add	r1, sp, #56	@ 0x38
   23d6c:	221a      	movs	r2, #26
   23d6e:	f003 ff72 	bl	27c56 <__aeabi_memcpy>
   23d72:	7035      	strb	r5, [r6, #0]
   23d74:	4e06      	ldr	r6, [pc, #24]	@ (23d90 <_ZN18complex_no_dynamic3app17hd911c7c84bedadf9E+0xc0>)
   23d76:	4630      	mov	r0, r6
   23d78:	4621      	mov	r1, r4
   23d7a:	462a      	mov	r2, r5
   23d7c:	462b      	mov	r3, r5
   23d7e:	df03      	svc	3
   23d80:	4630      	mov	r0, r6
   23d82:	4629      	mov	r1, r5
   23d84:	462a      	mov	r2, r5
   23d86:	462b      	mov	r3, r5
   23d88:	df04      	svc	4
   23d8a:	b015      	add	sp, #84	@ 0x54
   23d8c:	bdf0      	pop	{r4, r5, r6, r7, pc}
   23d8e:	46c0      	nop			@ (mov r8, r8)
   23d90:	000012cc 	.word	0x000012cc

00023d94 <_ZN18complex_no_dynamic3app17hdee21525b91731ccE>:
   23d94:	b5f0      	push	{r4, r5, r6, r7, lr}
   23d96:	af03      	add	r7, sp, #12
   23d98:	b097      	sub	sp, #92	@ 0x5c
   23d9a:	9001      	str	r0, [sp, #4]
   23d9c:	ae02      	add	r6, sp, #8
   23d9e:	243f      	movs	r4, #63	@ 0x3f
   23da0:	4630      	mov	r0, r6
   23da2:	4622      	mov	r2, r4
   23da4:	f003 ff57 	bl	27c56 <__aeabi_memcpy>
   23da8:	a812      	add	r0, sp, #72	@ 0x48
   23daa:	2500      	movs	r5, #0
   23dac:	7405      	strb	r5, [r0, #16]
   23dae:	9515      	str	r5, [sp, #84]	@ 0x54
   23db0:	9514      	str	r5, [sp, #80]	@ 0x50
   23db2:	9513      	str	r5, [sp, #76]	@ 0x4c
   23db4:	9512      	str	r5, [sp, #72]	@ 0x48
   23db6:	4826      	ldr	r0, [pc, #152]	@ (23e50 <_ZN18complex_no_dynamic3app17hdee21525b91731ccE+0xbc>)
   23db8:	2104      	movs	r1, #4
   23dba:	4632      	mov	r2, r6
   23dbc:	4623      	mov	r3, r4
   23dbe:	df04      	svc	4
   23dc0:	2802      	cmp	r0, #2
   23dc2:	d00e      	beq.n	23de2 <_ZN18complex_no_dynamic3app17hdee21525b91731ccE+0x4e>
   23dc4:	4822      	ldr	r0, [pc, #136]	@ (23e50 <_ZN18complex_no_dynamic3app17hdee21525b91731ccE+0xbc>)
   23dc6:	2103      	movs	r1, #3
   23dc8:	aa12      	add	r2, sp, #72	@ 0x48
   23dca:	2311      	movs	r3, #17
   23dcc:	df03      	svc	3
   23dce:	2802      	cmp	r0, #2
   23dd0:	d007      	beq.n	23de2 <_ZN18complex_no_dynamic3app17hdee21525b91731ccE+0x4e>
   23dd2:	481f      	ldr	r0, [pc, #124]	@ (23e50 <_ZN18complex_no_dynamic3app17hdee21525b91731ccE+0xbc>)
   23dd4:	2104      	movs	r1, #4
   23dd6:	2203      	movs	r2, #3
   23dd8:	2600      	movs	r6, #0
   23dda:	4633      	mov	r3, r6
   23ddc:	df02      	svc	2
   23dde:	287f      	cmp	r0, #127	@ 0x7f
   23de0:	d814      	bhi.n	23e0c <_ZN18complex_no_dynamic3app17hdee21525b91731ccE+0x78>
   23de2:	2601      	movs	r6, #1
   23de4:	2e00      	cmp	r6, #0
   23de6:	d018      	beq.n	23e1a <_ZN18complex_no_dynamic3app17hdee21525b91731ccE+0x86>
   23de8:	2001      	movs	r0, #1
   23dea:	9a01      	ldr	r2, [sp, #4]
   23dec:	7010      	strb	r0, [r2, #0]
   23dee:	6051      	str	r1, [r2, #4]
   23df0:	4c17      	ldr	r4, [pc, #92]	@ (23e50 <_ZN18complex_no_dynamic3app17hdee21525b91731ccE+0xbc>)
   23df2:	2103      	movs	r1, #3
   23df4:	2500      	movs	r5, #0
   23df6:	4620      	mov	r0, r4
   23df8:	462a      	mov	r2, r5
   23dfa:	462b      	mov	r3, r5
   23dfc:	df03      	svc	3
   23dfe:	2104      	movs	r1, #4
   23e00:	4620      	mov	r0, r4
   23e02:	462a      	mov	r2, r5
   23e04:	462b      	mov	r3, r5
   23e06:	df04      	svc	4
   23e08:	b017      	add	sp, #92	@ 0x5c
   23e0a:	bdf0      	pop	{r4, r5, r6, r7, pc}
   23e0c:	4810      	ldr	r0, [pc, #64]	@ (23e50 <_ZN18complex_no_dynamic3app17hdee21525b91731ccE+0xbc>)
   23e0e:	2103      	movs	r1, #3
   23e10:	4632      	mov	r2, r6
   23e12:	4633      	mov	r3, r6
   23e14:	df03      	svc	3
   23e16:	2e00      	cmp	r6, #0
   23e18:	d1e6      	bne.n	23de8 <_ZN18complex_no_dynamic3app17hdee21525b91731ccE+0x54>
   23e1a:	480d      	ldr	r0, [pc, #52]	@ (23e50 <_ZN18complex_no_dynamic3app17hdee21525b91731ccE+0xbc>)
   23e1c:	2403      	movs	r4, #3
   23e1e:	4621      	mov	r1, r4
   23e20:	462a      	mov	r2, r5
   23e22:	462b      	mov	r3, r5
   23e24:	df03      	svc	3
   23e26:	9e01      	ldr	r6, [sp, #4]
   23e28:	1c70      	adds	r0, r6, #1
   23e2a:	a912      	add	r1, sp, #72	@ 0x48
   23e2c:	2211      	movs	r2, #17
   23e2e:	f003 ff12 	bl	27c56 <__aeabi_memcpy>
   23e32:	7035      	strb	r5, [r6, #0]
   23e34:	4e06      	ldr	r6, [pc, #24]	@ (23e50 <_ZN18complex_no_dynamic3app17hdee21525b91731ccE+0xbc>)
   23e36:	4630      	mov	r0, r6
   23e38:	4621      	mov	r1, r4
   23e3a:	462a      	mov	r2, r5
   23e3c:	462b      	mov	r3, r5
   23e3e:	df03      	svc	3
   23e40:	2104      	movs	r1, #4
   23e42:	4630      	mov	r0, r6
   23e44:	462a      	mov	r2, r5
   23e46:	462b      	mov	r3, r5
   23e48:	df04      	svc	4
   23e4a:	b017      	add	sp, #92	@ 0x5c
   23e4c:	bdf0      	pop	{r4, r5, r6, r7, pc}
   23e4e:	46c0      	nop			@ (mov r8, r8)
   23e50:	000014d7 	.word	0x000014d7

00023e54 <_ZN18complex_no_dynamic3app17hdf701b415a6eebbaE>:
   23e54:	b5f0      	push	{r4, r5, r6, r7, lr}
   23e56:	af03      	add	r7, sp, #12
   23e58:	b08d      	sub	sp, #52	@ 0x34
   23e5a:	4604      	mov	r4, r0
   23e5c:	7b08      	ldrb	r0, [r1, #12]
   23e5e:	466e      	mov	r6, sp
   23e60:	7330      	strb	r0, [r6, #12]
   23e62:	7a08      	ldrb	r0, [r1, #8]
   23e64:	7a4a      	ldrb	r2, [r1, #9]
   23e66:	0212      	lsls	r2, r2, #8
   23e68:	1810      	adds	r0, r2, r0
   23e6a:	7a8a      	ldrb	r2, [r1, #10]
   23e6c:	0412      	lsls	r2, r2, #16
   23e6e:	7acb      	ldrb	r3, [r1, #11]
   23e70:	061b      	lsls	r3, r3, #24
   23e72:	189a      	adds	r2, r3, r2
   23e74:	1810      	adds	r0, r2, r0
   23e76:	9002      	str	r0, [sp, #8]
   23e78:	7908      	ldrb	r0, [r1, #4]
   23e7a:	794a      	ldrb	r2, [r1, #5]
   23e7c:	0212      	lsls	r2, r2, #8
   23e7e:	1810      	adds	r0, r2, r0
   23e80:	798a      	ldrb	r2, [r1, #6]
   23e82:	0412      	lsls	r2, r2, #16
   23e84:	79cb      	ldrb	r3, [r1, #7]
   23e86:	061b      	lsls	r3, r3, #24
   23e88:	189a      	adds	r2, r3, r2
   23e8a:	1810      	adds	r0, r2, r0
   23e8c:	9001      	str	r0, [sp, #4]
   23e8e:	7808      	ldrb	r0, [r1, #0]
   23e90:	784a      	ldrb	r2, [r1, #1]
   23e92:	0212      	lsls	r2, r2, #8
   23e94:	1810      	adds	r0, r2, r0
   23e96:	788a      	ldrb	r2, [r1, #2]
   23e98:	0412      	lsls	r2, r2, #16
   23e9a:	78c9      	ldrb	r1, [r1, #3]
   23e9c:	0609      	lsls	r1, r1, #24
   23e9e:	1889      	adds	r1, r1, r2
   23ea0:	1808      	adds	r0, r1, r0
   23ea2:	9000      	str	r0, [sp, #0]
   23ea4:	a804      	add	r0, sp, #16
   23ea6:	2121      	movs	r1, #33	@ 0x21
   23ea8:	f003 fd28 	bl	278fc <__aeabi_memclr4>
   23eac:	4824      	ldr	r0, [pc, #144]	@ (23f40 <_ZN18complex_no_dynamic3app17hdf701b415a6eebbaE+0xec>)
   23eae:	2500      	movs	r5, #0
   23eb0:	230d      	movs	r3, #13
   23eb2:	4629      	mov	r1, r5
   23eb4:	4632      	mov	r2, r6
   23eb6:	df04      	svc	4
   23eb8:	2802      	cmp	r0, #2
   23eba:	d00e      	beq.n	23eda <_ZN18complex_no_dynamic3app17hdf701b415a6eebbaE+0x86>
   23ebc:	4820      	ldr	r0, [pc, #128]	@ (23f40 <_ZN18complex_no_dynamic3app17hdf701b415a6eebbaE+0xec>)
   23ebe:	2100      	movs	r1, #0
   23ec0:	aa04      	add	r2, sp, #16
   23ec2:	2321      	movs	r3, #33	@ 0x21
   23ec4:	df03      	svc	3
   23ec6:	2802      	cmp	r0, #2
   23ec8:	d007      	beq.n	23eda <_ZN18complex_no_dynamic3app17hdf701b415a6eebbaE+0x86>
   23eca:	481d      	ldr	r0, [pc, #116]	@ (23f40 <_ZN18complex_no_dynamic3app17hdf701b415a6eebbaE+0xec>)
   23ecc:	2600      	movs	r6, #0
   23ece:	4631      	mov	r1, r6
   23ed0:	4632      	mov	r2, r6
   23ed2:	4633      	mov	r3, r6
   23ed4:	df02      	svc	2
   23ed6:	287f      	cmp	r0, #127	@ 0x7f
   23ed8:	d813      	bhi.n	23f02 <_ZN18complex_no_dynamic3app17hdf701b415a6eebbaE+0xae>
   23eda:	2601      	movs	r6, #1
   23edc:	2e00      	cmp	r6, #0
   23ede:	d017      	beq.n	23f10 <_ZN18complex_no_dynamic3app17hdf701b415a6eebbaE+0xbc>
   23ee0:	2001      	movs	r0, #1
   23ee2:	7020      	strb	r0, [r4, #0]
   23ee4:	6061      	str	r1, [r4, #4]
   23ee6:	4c16      	ldr	r4, [pc, #88]	@ (23f40 <_ZN18complex_no_dynamic3app17hdf701b415a6eebbaE+0xec>)
   23ee8:	2500      	movs	r5, #0
   23eea:	4620      	mov	r0, r4
   23eec:	4629      	mov	r1, r5
   23eee:	462a      	mov	r2, r5
   23ef0:	462b      	mov	r3, r5
   23ef2:	df03      	svc	3
   23ef4:	4620      	mov	r0, r4
   23ef6:	4629      	mov	r1, r5
   23ef8:	462a      	mov	r2, r5
   23efa:	462b      	mov	r3, r5
   23efc:	df04      	svc	4
   23efe:	b00d      	add	sp, #52	@ 0x34
   23f00:	bdf0      	pop	{r4, r5, r6, r7, pc}
   23f02:	480f      	ldr	r0, [pc, #60]	@ (23f40 <_ZN18complex_no_dynamic3app17hdf701b415a6eebbaE+0xec>)
   23f04:	4631      	mov	r1, r6
   23f06:	4632      	mov	r2, r6
   23f08:	4633      	mov	r3, r6
   23f0a:	df03      	svc	3
   23f0c:	2e00      	cmp	r6, #0
   23f0e:	d1e7      	bne.n	23ee0 <_ZN18complex_no_dynamic3app17hdf701b415a6eebbaE+0x8c>
   23f10:	4e0b      	ldr	r6, [pc, #44]	@ (23f40 <_ZN18complex_no_dynamic3app17hdf701b415a6eebbaE+0xec>)
   23f12:	4630      	mov	r0, r6
   23f14:	4629      	mov	r1, r5
   23f16:	462a      	mov	r2, r5
   23f18:	462b      	mov	r3, r5
   23f1a:	df03      	svc	3
   23f1c:	1c60      	adds	r0, r4, #1
   23f1e:	a904      	add	r1, sp, #16
   23f20:	2221      	movs	r2, #33	@ 0x21
   23f22:	f003 fe98 	bl	27c56 <__aeabi_memcpy>
   23f26:	7025      	strb	r5, [r4, #0]
   23f28:	4630      	mov	r0, r6
   23f2a:	4629      	mov	r1, r5
   23f2c:	462a      	mov	r2, r5
   23f2e:	462b      	mov	r3, r5
   23f30:	df03      	svc	3
   23f32:	4630      	mov	r0, r6
   23f34:	4629      	mov	r1, r5
   23f36:	462a      	mov	r2, r5
   23f38:	462b      	mov	r3, r5
   23f3a:	df04      	svc	4
   23f3c:	b00d      	add	sp, #52	@ 0x34
   23f3e:	bdf0      	pop	{r4, r5, r6, r7, pc}
   23f40:	000016b0 	.word	0x000016b0

00023f44 <_ZN18complex_no_dynamic3app17he4df762eefab355eE>:
   23f44:	b5f0      	push	{r4, r5, r6, r7, lr}
   23f46:	af03      	add	r7, sp, #12
   23f48:	b0a9      	sub	sp, #164	@ 0xa4
   23f4a:	4604      	mov	r4, r0
   23f4c:	466d      	mov	r5, sp
   23f4e:	2651      	movs	r6, #81	@ 0x51
   23f50:	4628      	mov	r0, r5
   23f52:	4632      	mov	r2, r6
   23f54:	f003 fe7f 	bl	27c56 <__aeabi_memcpy>
   23f58:	a815      	add	r0, sp, #84	@ 0x54
   23f5a:	214f      	movs	r1, #79	@ 0x4f
   23f5c:	f003 fcce 	bl	278fc <__aeabi_memclr4>
   23f60:	4824      	ldr	r0, [pc, #144]	@ (23ff4 <_ZN18complex_no_dynamic3app17he4df762eefab355eE+0xb0>)
   23f62:	2104      	movs	r1, #4
   23f64:	462a      	mov	r2, r5
   23f66:	4633      	mov	r3, r6
   23f68:	df04      	svc	4
   23f6a:	2802      	cmp	r0, #2
   23f6c:	d00e      	beq.n	23f8c <_ZN18complex_no_dynamic3app17he4df762eefab355eE+0x48>
   23f6e:	4821      	ldr	r0, [pc, #132]	@ (23ff4 <_ZN18complex_no_dynamic3app17he4df762eefab355eE+0xb0>)
   23f70:	2109      	movs	r1, #9
   23f72:	aa15      	add	r2, sp, #84	@ 0x54
   23f74:	234f      	movs	r3, #79	@ 0x4f
   23f76:	df03      	svc	3
   23f78:	2802      	cmp	r0, #2
   23f7a:	d007      	beq.n	23f8c <_ZN18complex_no_dynamic3app17he4df762eefab355eE+0x48>
   23f7c:	481d      	ldr	r0, [pc, #116]	@ (23ff4 <_ZN18complex_no_dynamic3app17he4df762eefab355eE+0xb0>)
   23f7e:	2104      	movs	r1, #4
   23f80:	2209      	movs	r2, #9
   23f82:	2500      	movs	r5, #0
   23f84:	462b      	mov	r3, r5
   23f86:	df02      	svc	2
   23f88:	287f      	cmp	r0, #127	@ 0x7f
   23f8a:	d813      	bhi.n	23fb4 <_ZN18complex_no_dynamic3app17he4df762eefab355eE+0x70>
   23f8c:	2501      	movs	r5, #1
   23f8e:	2d00      	cmp	r5, #0
   23f90:	d017      	beq.n	23fc2 <_ZN18complex_no_dynamic3app17he4df762eefab355eE+0x7e>
   23f92:	2001      	movs	r0, #1
   23f94:	7020      	strb	r0, [r4, #0]
   23f96:	6061      	str	r1, [r4, #4]
   23f98:	4c16      	ldr	r4, [pc, #88]	@ (23ff4 <_ZN18complex_no_dynamic3app17he4df762eefab355eE+0xb0>)
   23f9a:	2109      	movs	r1, #9
   23f9c:	2500      	movs	r5, #0
   23f9e:	4620      	mov	r0, r4
   23fa0:	462a      	mov	r2, r5
   23fa2:	462b      	mov	r3, r5
   23fa4:	df03      	svc	3
   23fa6:	2104      	movs	r1, #4
   23fa8:	4620      	mov	r0, r4
   23faa:	462a      	mov	r2, r5
   23fac:	462b      	mov	r3, r5
   23fae:	df04      	svc	4
   23fb0:	b029      	add	sp, #164	@ 0xa4
   23fb2:	bdf0      	pop	{r4, r5, r6, r7, pc}
   23fb4:	480f      	ldr	r0, [pc, #60]	@ (23ff4 <_ZN18complex_no_dynamic3app17he4df762eefab355eE+0xb0>)
   23fb6:	2109      	movs	r1, #9
   23fb8:	462a      	mov	r2, r5
   23fba:	462b      	mov	r3, r5
   23fbc:	df03      	svc	3
   23fbe:	2d00      	cmp	r5, #0
   23fc0:	d1e7      	bne.n	23f92 <_ZN18complex_no_dynamic3app17he4df762eefab355eE+0x4e>
   23fc2:	480c      	ldr	r0, [pc, #48]	@ (23ff4 <_ZN18complex_no_dynamic3app17he4df762eefab355eE+0xb0>)
   23fc4:	2609      	movs	r6, #9
   23fc6:	2500      	movs	r5, #0
   23fc8:	4631      	mov	r1, r6
   23fca:	462a      	mov	r2, r5
   23fcc:	462b      	mov	r3, r5
   23fce:	df03      	svc	3
   23fd0:	1c60      	adds	r0, r4, #1
   23fd2:	a915      	add	r1, sp, #84	@ 0x54
   23fd4:	224f      	movs	r2, #79	@ 0x4f
   23fd6:	f003 fe3e 	bl	27c56 <__aeabi_memcpy>
   23fda:	7025      	strb	r5, [r4, #0]
   23fdc:	4805      	ldr	r0, [pc, #20]	@ (23ff4 <_ZN18complex_no_dynamic3app17he4df762eefab355eE+0xb0>)
   23fde:	4631      	mov	r1, r6
   23fe0:	462a      	mov	r2, r5
   23fe2:	462b      	mov	r3, r5
   23fe4:	df03      	svc	3
   23fe6:	2104      	movs	r1, #4
   23fe8:	4802      	ldr	r0, [pc, #8]	@ (23ff4 <_ZN18complex_no_dynamic3app17he4df762eefab355eE+0xb0>)
   23fea:	462a      	mov	r2, r5
   23fec:	462b      	mov	r3, r5
   23fee:	df04      	svc	4
   23ff0:	b029      	add	sp, #164	@ 0xa4
   23ff2:	bdf0      	pop	{r4, r5, r6, r7, pc}
   23ff4:	000020ee 	.word	0x000020ee

00023ff8 <_ZN18complex_no_dynamic3app17he9b4bb638deee3abE>:
   23ff8:	b5f0      	push	{r4, r5, r6, r7, lr}
   23ffa:	af03      	add	r7, sp, #12
   23ffc:	b099      	sub	sp, #100	@ 0x64
   23ffe:	9001      	str	r0, [sp, #4]
   24000:	ae02      	add	r6, sp, #8
   24002:	243f      	movs	r4, #63	@ 0x3f
   24004:	4630      	mov	r0, r6
   24006:	4622      	mov	r2, r4
   24008:	f003 fe25 	bl	27c56 <__aeabi_memcpy>
   2400c:	2500      	movs	r5, #0
   2400e:	9518      	str	r5, [sp, #96]	@ 0x60
   24010:	9517      	str	r5, [sp, #92]	@ 0x5c
   24012:	9516      	str	r5, [sp, #88]	@ 0x58
   24014:	9515      	str	r5, [sp, #84]	@ 0x54
   24016:	9514      	str	r5, [sp, #80]	@ 0x50
   24018:	9513      	str	r5, [sp, #76]	@ 0x4c
   2401a:	9512      	str	r5, [sp, #72]	@ 0x48
   2401c:	4825      	ldr	r0, [pc, #148]	@ (240b4 <_ZN18complex_no_dynamic3app17he9b4bb638deee3abE+0xbc>)
   2401e:	2105      	movs	r1, #5
   24020:	4632      	mov	r2, r6
   24022:	4623      	mov	r3, r4
   24024:	df04      	svc	4
   24026:	2802      	cmp	r0, #2
   24028:	d00e      	beq.n	24048 <_ZN18complex_no_dynamic3app17he9b4bb638deee3abE+0x50>
   2402a:	4822      	ldr	r0, [pc, #136]	@ (240b4 <_ZN18complex_no_dynamic3app17he9b4bb638deee3abE+0xbc>)
   2402c:	2109      	movs	r1, #9
   2402e:	aa12      	add	r2, sp, #72	@ 0x48
   24030:	231c      	movs	r3, #28
   24032:	df03      	svc	3
   24034:	2802      	cmp	r0, #2
   24036:	d007      	beq.n	24048 <_ZN18complex_no_dynamic3app17he9b4bb638deee3abE+0x50>
   24038:	481e      	ldr	r0, [pc, #120]	@ (240b4 <_ZN18complex_no_dynamic3app17he9b4bb638deee3abE+0xbc>)
   2403a:	2105      	movs	r1, #5
   2403c:	2209      	movs	r2, #9
   2403e:	2600      	movs	r6, #0
   24040:	4633      	mov	r3, r6
   24042:	df02      	svc	2
   24044:	287f      	cmp	r0, #127	@ 0x7f
   24046:	d814      	bhi.n	24072 <_ZN18complex_no_dynamic3app17he9b4bb638deee3abE+0x7a>
   24048:	2601      	movs	r6, #1
   2404a:	2e00      	cmp	r6, #0
   2404c:	d018      	beq.n	24080 <_ZN18complex_no_dynamic3app17he9b4bb638deee3abE+0x88>
   2404e:	2001      	movs	r0, #1
   24050:	9a01      	ldr	r2, [sp, #4]
   24052:	7010      	strb	r0, [r2, #0]
   24054:	6051      	str	r1, [r2, #4]
   24056:	4c17      	ldr	r4, [pc, #92]	@ (240b4 <_ZN18complex_no_dynamic3app17he9b4bb638deee3abE+0xbc>)
   24058:	2109      	movs	r1, #9
   2405a:	2500      	movs	r5, #0
   2405c:	4620      	mov	r0, r4
   2405e:	462a      	mov	r2, r5
   24060:	462b      	mov	r3, r5
   24062:	df03      	svc	3
   24064:	2105      	movs	r1, #5
   24066:	4620      	mov	r0, r4
   24068:	462a      	mov	r2, r5
   2406a:	462b      	mov	r3, r5
   2406c:	df04      	svc	4
   2406e:	b019      	add	sp, #100	@ 0x64
   24070:	bdf0      	pop	{r4, r5, r6, r7, pc}
   24072:	4810      	ldr	r0, [pc, #64]	@ (240b4 <_ZN18complex_no_dynamic3app17he9b4bb638deee3abE+0xbc>)
   24074:	2109      	movs	r1, #9
   24076:	4632      	mov	r2, r6
   24078:	4633      	mov	r3, r6
   2407a:	df03      	svc	3
   2407c:	2e00      	cmp	r6, #0
   2407e:	d1e6      	bne.n	2404e <_ZN18complex_no_dynamic3app17he9b4bb638deee3abE+0x56>
   24080:	480c      	ldr	r0, [pc, #48]	@ (240b4 <_ZN18complex_no_dynamic3app17he9b4bb638deee3abE+0xbc>)
   24082:	2409      	movs	r4, #9
   24084:	4621      	mov	r1, r4
   24086:	462a      	mov	r2, r5
   24088:	462b      	mov	r3, r5
   2408a:	df03      	svc	3
   2408c:	9e01      	ldr	r6, [sp, #4]
   2408e:	1c70      	adds	r0, r6, #1
   24090:	a912      	add	r1, sp, #72	@ 0x48
   24092:	221c      	movs	r2, #28
   24094:	f003 fddf 	bl	27c56 <__aeabi_memcpy>
   24098:	7035      	strb	r5, [r6, #0]
   2409a:	4e06      	ldr	r6, [pc, #24]	@ (240b4 <_ZN18complex_no_dynamic3app17he9b4bb638deee3abE+0xbc>)
   2409c:	4630      	mov	r0, r6
   2409e:	4621      	mov	r1, r4
   240a0:	462a      	mov	r2, r5
   240a2:	462b      	mov	r3, r5
   240a4:	df03      	svc	3
   240a6:	2105      	movs	r1, #5
   240a8:	4630      	mov	r0, r6
   240aa:	462a      	mov	r2, r5
   240ac:	462b      	mov	r3, r5
   240ae:	df04      	svc	4
   240b0:	b019      	add	sp, #100	@ 0x64
   240b2:	bdf0      	pop	{r4, r5, r6, r7, pc}
   240b4:	00001694 	.word	0x00001694

000240b8 <_ZN18complex_no_dynamic3app17hea47dd2519d1688cE>:
   240b8:	b5f0      	push	{r4, r5, r6, r7, lr}
   240ba:	af03      	add	r7, sp, #12
   240bc:	b097      	sub	sp, #92	@ 0x5c
   240be:	4604      	mov	r4, r0
   240c0:	7b08      	ldrb	r0, [r1, #12]
   240c2:	7b4a      	ldrb	r2, [r1, #13]
   240c4:	0212      	lsls	r2, r2, #8
   240c6:	1810      	adds	r0, r2, r0
   240c8:	ad01      	add	r5, sp, #4
   240ca:	81a8      	strh	r0, [r5, #12]
   240cc:	7a08      	ldrb	r0, [r1, #8]
   240ce:	7a4a      	ldrb	r2, [r1, #9]
   240d0:	0212      	lsls	r2, r2, #8
   240d2:	1810      	adds	r0, r2, r0
   240d4:	7a8a      	ldrb	r2, [r1, #10]
   240d6:	0412      	lsls	r2, r2, #16
   240d8:	7acb      	ldrb	r3, [r1, #11]
   240da:	061b      	lsls	r3, r3, #24
   240dc:	189a      	adds	r2, r3, r2
   240de:	1810      	adds	r0, r2, r0
   240e0:	9003      	str	r0, [sp, #12]
   240e2:	7908      	ldrb	r0, [r1, #4]
   240e4:	794a      	ldrb	r2, [r1, #5]
   240e6:	0212      	lsls	r2, r2, #8
   240e8:	1810      	adds	r0, r2, r0
   240ea:	798a      	ldrb	r2, [r1, #6]
   240ec:	0412      	lsls	r2, r2, #16
   240ee:	79cb      	ldrb	r3, [r1, #7]
   240f0:	061b      	lsls	r3, r3, #24
   240f2:	189a      	adds	r2, r3, r2
   240f4:	1810      	adds	r0, r2, r0
   240f6:	9002      	str	r0, [sp, #8]
   240f8:	7808      	ldrb	r0, [r1, #0]
   240fa:	784a      	ldrb	r2, [r1, #1]
   240fc:	0212      	lsls	r2, r2, #8
   240fe:	1810      	adds	r0, r2, r0
   24100:	788a      	ldrb	r2, [r1, #2]
   24102:	0412      	lsls	r2, r2, #16
   24104:	78c9      	ldrb	r1, [r1, #3]
   24106:	0609      	lsls	r1, r1, #24
   24108:	1889      	adds	r1, r1, r2
   2410a:	1808      	adds	r0, r1, r0
   2410c:	9001      	str	r0, [sp, #4]
   2410e:	a805      	add	r0, sp, #20
   24110:	2148      	movs	r1, #72	@ 0x48
   24112:	f003 fbf3 	bl	278fc <__aeabi_memclr4>
   24116:	4825      	ldr	r0, [pc, #148]	@ (241ac <_ZN18complex_no_dynamic3app17hea47dd2519d1688cE+0xf4>)
   24118:	2103      	movs	r1, #3
   2411a:	230e      	movs	r3, #14
   2411c:	462a      	mov	r2, r5
   2411e:	df04      	svc	4
   24120:	2802      	cmp	r0, #2
   24122:	d00e      	beq.n	24142 <_ZN18complex_no_dynamic3app17hea47dd2519d1688cE+0x8a>
   24124:	4821      	ldr	r0, [pc, #132]	@ (241ac <_ZN18complex_no_dynamic3app17hea47dd2519d1688cE+0xf4>)
   24126:	2108      	movs	r1, #8
   24128:	aa05      	add	r2, sp, #20
   2412a:	2348      	movs	r3, #72	@ 0x48
   2412c:	df03      	svc	3
   2412e:	2802      	cmp	r0, #2
   24130:	d007      	beq.n	24142 <_ZN18complex_no_dynamic3app17hea47dd2519d1688cE+0x8a>
   24132:	481e      	ldr	r0, [pc, #120]	@ (241ac <_ZN18complex_no_dynamic3app17hea47dd2519d1688cE+0xf4>)
   24134:	2103      	movs	r1, #3
   24136:	2208      	movs	r2, #8
   24138:	2500      	movs	r5, #0
   2413a:	462b      	mov	r3, r5
   2413c:	df02      	svc	2
   2413e:	287f      	cmp	r0, #127	@ 0x7f
   24140:	d813      	bhi.n	2416a <_ZN18complex_no_dynamic3app17hea47dd2519d1688cE+0xb2>
   24142:	2501      	movs	r5, #1
   24144:	2d00      	cmp	r5, #0
   24146:	d017      	beq.n	24178 <_ZN18complex_no_dynamic3app17hea47dd2519d1688cE+0xc0>
   24148:	2001      	movs	r0, #1
   2414a:	7020      	strb	r0, [r4, #0]
   2414c:	6061      	str	r1, [r4, #4]
   2414e:	4c17      	ldr	r4, [pc, #92]	@ (241ac <_ZN18complex_no_dynamic3app17hea47dd2519d1688cE+0xf4>)
   24150:	2108      	movs	r1, #8
   24152:	2500      	movs	r5, #0
   24154:	4620      	mov	r0, r4
   24156:	462a      	mov	r2, r5
   24158:	462b      	mov	r3, r5
   2415a:	df03      	svc	3
   2415c:	2103      	movs	r1, #3
   2415e:	4620      	mov	r0, r4
   24160:	462a      	mov	r2, r5
   24162:	462b      	mov	r3, r5
   24164:	df04      	svc	4
   24166:	b017      	add	sp, #92	@ 0x5c
   24168:	bdf0      	pop	{r4, r5, r6, r7, pc}
   2416a:	4810      	ldr	r0, [pc, #64]	@ (241ac <_ZN18complex_no_dynamic3app17hea47dd2519d1688cE+0xf4>)
   2416c:	2108      	movs	r1, #8
   2416e:	462a      	mov	r2, r5
   24170:	462b      	mov	r3, r5
   24172:	df03      	svc	3
   24174:	2d00      	cmp	r5, #0
   24176:	d1e7      	bne.n	24148 <_ZN18complex_no_dynamic3app17hea47dd2519d1688cE+0x90>
   24178:	480c      	ldr	r0, [pc, #48]	@ (241ac <_ZN18complex_no_dynamic3app17hea47dd2519d1688cE+0xf4>)
   2417a:	2608      	movs	r6, #8
   2417c:	2500      	movs	r5, #0
   2417e:	4631      	mov	r1, r6
   24180:	462a      	mov	r2, r5
   24182:	462b      	mov	r3, r5
   24184:	df03      	svc	3
   24186:	1c60      	adds	r0, r4, #1
   24188:	a905      	add	r1, sp, #20
   2418a:	2248      	movs	r2, #72	@ 0x48
   2418c:	f003 fd63 	bl	27c56 <__aeabi_memcpy>
   24190:	7025      	strb	r5, [r4, #0]
   24192:	4c06      	ldr	r4, [pc, #24]	@ (241ac <_ZN18complex_no_dynamic3app17hea47dd2519d1688cE+0xf4>)
   24194:	4620      	mov	r0, r4
   24196:	4631      	mov	r1, r6
   24198:	462a      	mov	r2, r5
   2419a:	462b      	mov	r3, r5
   2419c:	df03      	svc	3
   2419e:	2103      	movs	r1, #3
   241a0:	4620      	mov	r0, r4
   241a2:	462a      	mov	r2, r5
   241a4:	462b      	mov	r3, r5
   241a6:	df04      	svc	4
   241a8:	b017      	add	sp, #92	@ 0x5c
   241aa:	bdf0      	pop	{r4, r5, r6, r7, pc}
   241ac:	000012d1 	.word	0x000012d1

000241b0 <_ZN18complex_no_dynamic3app17hec6cc9325ccedff7E>:
   241b0:	b5f0      	push	{r4, r5, r6, r7, lr}
   241b2:	af03      	add	r7, sp, #12
   241b4:	b09b      	sub	sp, #108	@ 0x6c
   241b6:	4604      	mov	r4, r0
   241b8:	466d      	mov	r5, sp
   241ba:	2613      	movs	r6, #19
   241bc:	4628      	mov	r0, r5
   241be:	4632      	mov	r2, r6
   241c0:	f003 fd49 	bl	27c56 <__aeabi_memcpy>
   241c4:	a805      	add	r0, sp, #20
   241c6:	2155      	movs	r1, #85	@ 0x55
   241c8:	f003 fb98 	bl	278fc <__aeabi_memclr4>
   241cc:	4824      	ldr	r0, [pc, #144]	@ (24260 <_ZN18complex_no_dynamic3app17hec6cc9325ccedff7E+0xb0>)
   241ce:	2109      	movs	r1, #9
   241d0:	462a      	mov	r2, r5
   241d2:	4633      	mov	r3, r6
   241d4:	df04      	svc	4
   241d6:	2802      	cmp	r0, #2
   241d8:	d00e      	beq.n	241f8 <_ZN18complex_no_dynamic3app17hec6cc9325ccedff7E+0x48>
   241da:	4821      	ldr	r0, [pc, #132]	@ (24260 <_ZN18complex_no_dynamic3app17hec6cc9325ccedff7E+0xb0>)
   241dc:	2107      	movs	r1, #7
   241de:	aa05      	add	r2, sp, #20
   241e0:	2355      	movs	r3, #85	@ 0x55
   241e2:	df03      	svc	3
   241e4:	2802      	cmp	r0, #2
   241e6:	d007      	beq.n	241f8 <_ZN18complex_no_dynamic3app17hec6cc9325ccedff7E+0x48>
   241e8:	481d      	ldr	r0, [pc, #116]	@ (24260 <_ZN18complex_no_dynamic3app17hec6cc9325ccedff7E+0xb0>)
   241ea:	2109      	movs	r1, #9
   241ec:	2207      	movs	r2, #7
   241ee:	2500      	movs	r5, #0
   241f0:	462b      	mov	r3, r5
   241f2:	df02      	svc	2
   241f4:	287f      	cmp	r0, #127	@ 0x7f
   241f6:	d813      	bhi.n	24220 <_ZN18complex_no_dynamic3app17hec6cc9325ccedff7E+0x70>
   241f8:	2501      	movs	r5, #1
   241fa:	2d00      	cmp	r5, #0
   241fc:	d017      	beq.n	2422e <_ZN18complex_no_dynamic3app17hec6cc9325ccedff7E+0x7e>
   241fe:	2001      	movs	r0, #1
   24200:	7020      	strb	r0, [r4, #0]
   24202:	6061      	str	r1, [r4, #4]
   24204:	4c16      	ldr	r4, [pc, #88]	@ (24260 <_ZN18complex_no_dynamic3app17hec6cc9325ccedff7E+0xb0>)
   24206:	2107      	movs	r1, #7
   24208:	2500      	movs	r5, #0
   2420a:	4620      	mov	r0, r4
   2420c:	462a      	mov	r2, r5
   2420e:	462b      	mov	r3, r5
   24210:	df03      	svc	3
   24212:	2109      	movs	r1, #9
   24214:	4620      	mov	r0, r4
   24216:	462a      	mov	r2, r5
   24218:	462b      	mov	r3, r5
   2421a:	df04      	svc	4
   2421c:	b01b      	add	sp, #108	@ 0x6c
   2421e:	bdf0      	pop	{r4, r5, r6, r7, pc}
   24220:	480f      	ldr	r0, [pc, #60]	@ (24260 <_ZN18complex_no_dynamic3app17hec6cc9325ccedff7E+0xb0>)
   24222:	2107      	movs	r1, #7
   24224:	462a      	mov	r2, r5
   24226:	462b      	mov	r3, r5
   24228:	df03      	svc	3
   2422a:	2d00      	cmp	r5, #0
   2422c:	d1e7      	bne.n	241fe <_ZN18complex_no_dynamic3app17hec6cc9325ccedff7E+0x4e>
   2422e:	480c      	ldr	r0, [pc, #48]	@ (24260 <_ZN18complex_no_dynamic3app17hec6cc9325ccedff7E+0xb0>)
   24230:	2607      	movs	r6, #7
   24232:	2500      	movs	r5, #0
   24234:	4631      	mov	r1, r6
   24236:	462a      	mov	r2, r5
   24238:	462b      	mov	r3, r5
   2423a:	df03      	svc	3
   2423c:	1c60      	adds	r0, r4, #1
   2423e:	a905      	add	r1, sp, #20
   24240:	2255      	movs	r2, #85	@ 0x55
   24242:	f003 fd08 	bl	27c56 <__aeabi_memcpy>
   24246:	7025      	strb	r5, [r4, #0]
   24248:	4805      	ldr	r0, [pc, #20]	@ (24260 <_ZN18complex_no_dynamic3app17hec6cc9325ccedff7E+0xb0>)
   2424a:	4631      	mov	r1, r6
   2424c:	462a      	mov	r2, r5
   2424e:	462b      	mov	r3, r5
   24250:	df03      	svc	3
   24252:	2109      	movs	r1, #9
   24254:	4802      	ldr	r0, [pc, #8]	@ (24260 <_ZN18complex_no_dynamic3app17hec6cc9325ccedff7E+0xb0>)
   24256:	462a      	mov	r2, r5
   24258:	462b      	mov	r3, r5
   2425a:	df04      	svc	4
   2425c:	b01b      	add	sp, #108	@ 0x6c
   2425e:	bdf0      	pop	{r4, r5, r6, r7, pc}
   24260:	0000032e 	.word	0x0000032e

00024264 <_ZN18complex_no_dynamic3app17hee08272f079593b0E>:
   24264:	b5f0      	push	{r4, r5, r6, r7, lr}
   24266:	af03      	add	r7, sp, #12
   24268:	b09d      	sub	sp, #116	@ 0x74
   2426a:	4604      	mov	r4, r0
   2426c:	466d      	mov	r5, sp
   2426e:	261e      	movs	r6, #30
   24270:	4628      	mov	r0, r5
   24272:	4632      	mov	r2, r6
   24274:	f003 fcef 	bl	27c56 <__aeabi_memcpy>
   24278:	a808      	add	r0, sp, #32
   2427a:	2151      	movs	r1, #81	@ 0x51
   2427c:	f003 fb3e 	bl	278fc <__aeabi_memclr4>
   24280:	4824      	ldr	r0, [pc, #144]	@ (24314 <_ZN18complex_no_dynamic3app17hee08272f079593b0E+0xb0>)
   24282:	2102      	movs	r1, #2
   24284:	462a      	mov	r2, r5
   24286:	4633      	mov	r3, r6
   24288:	df04      	svc	4
   2428a:	2802      	cmp	r0, #2
   2428c:	d00e      	beq.n	242ac <_ZN18complex_no_dynamic3app17hee08272f079593b0E+0x48>
   2428e:	4821      	ldr	r0, [pc, #132]	@ (24314 <_ZN18complex_no_dynamic3app17hee08272f079593b0E+0xb0>)
   24290:	2100      	movs	r1, #0
   24292:	aa08      	add	r2, sp, #32
   24294:	2351      	movs	r3, #81	@ 0x51
   24296:	df03      	svc	3
   24298:	2802      	cmp	r0, #2
   2429a:	d007      	beq.n	242ac <_ZN18complex_no_dynamic3app17hee08272f079593b0E+0x48>
   2429c:	481d      	ldr	r0, [pc, #116]	@ (24314 <_ZN18complex_no_dynamic3app17hee08272f079593b0E+0xb0>)
   2429e:	2102      	movs	r1, #2
   242a0:	2500      	movs	r5, #0
   242a2:	462a      	mov	r2, r5
   242a4:	462b      	mov	r3, r5
   242a6:	df02      	svc	2
   242a8:	287f      	cmp	r0, #127	@ 0x7f
   242aa:	d813      	bhi.n	242d4 <_ZN18complex_no_dynamic3app17hee08272f079593b0E+0x70>
   242ac:	2501      	movs	r5, #1
   242ae:	2d00      	cmp	r5, #0
   242b0:	d017      	beq.n	242e2 <_ZN18complex_no_dynamic3app17hee08272f079593b0E+0x7e>
   242b2:	2001      	movs	r0, #1
   242b4:	7020      	strb	r0, [r4, #0]
   242b6:	6061      	str	r1, [r4, #4]
   242b8:	4c16      	ldr	r4, [pc, #88]	@ (24314 <_ZN18complex_no_dynamic3app17hee08272f079593b0E+0xb0>)
   242ba:	2500      	movs	r5, #0
   242bc:	4620      	mov	r0, r4
   242be:	4629      	mov	r1, r5
   242c0:	462a      	mov	r2, r5
   242c2:	462b      	mov	r3, r5
   242c4:	df03      	svc	3
   242c6:	2102      	movs	r1, #2
   242c8:	4620      	mov	r0, r4
   242ca:	462a      	mov	r2, r5
   242cc:	462b      	mov	r3, r5
   242ce:	df04      	svc	4
   242d0:	b01d      	add	sp, #116	@ 0x74
   242d2:	bdf0      	pop	{r4, r5, r6, r7, pc}
   242d4:	480f      	ldr	r0, [pc, #60]	@ (24314 <_ZN18complex_no_dynamic3app17hee08272f079593b0E+0xb0>)
   242d6:	4629      	mov	r1, r5
   242d8:	462a      	mov	r2, r5
   242da:	462b      	mov	r3, r5
   242dc:	df03      	svc	3
   242de:	2d00      	cmp	r5, #0
   242e0:	d1e7      	bne.n	242b2 <_ZN18complex_no_dynamic3app17hee08272f079593b0E+0x4e>
   242e2:	4e0c      	ldr	r6, [pc, #48]	@ (24314 <_ZN18complex_no_dynamic3app17hee08272f079593b0E+0xb0>)
   242e4:	2500      	movs	r5, #0
   242e6:	4630      	mov	r0, r6
   242e8:	4629      	mov	r1, r5
   242ea:	462a      	mov	r2, r5
   242ec:	462b      	mov	r3, r5
   242ee:	df03      	svc	3
   242f0:	1c60      	adds	r0, r4, #1
   242f2:	a908      	add	r1, sp, #32
   242f4:	2251      	movs	r2, #81	@ 0x51
   242f6:	f003 fcae 	bl	27c56 <__aeabi_memcpy>
   242fa:	7025      	strb	r5, [r4, #0]
   242fc:	4630      	mov	r0, r6
   242fe:	4629      	mov	r1, r5
   24300:	462a      	mov	r2, r5
   24302:	462b      	mov	r3, r5
   24304:	df03      	svc	3
   24306:	2102      	movs	r1, #2
   24308:	4630      	mov	r0, r6
   2430a:	462a      	mov	r2, r5
   2430c:	462b      	mov	r3, r5
   2430e:	df04      	svc	4
   24310:	b01d      	add	sp, #116	@ 0x74
   24312:	bdf0      	pop	{r4, r5, r6, r7, pc}
   24314:	0000196b 	.word	0x0000196b

00024318 <_ZN18complex_no_dynamic3app17hf4ef6ebd55ba3465E>:
   24318:	b5f0      	push	{r4, r5, r6, r7, lr}
   2431a:	af03      	add	r7, sp, #12
   2431c:	b08b      	sub	sp, #44	@ 0x2c
   2431e:	9001      	str	r0, [sp, #4]
   24320:	ae02      	add	r6, sp, #8
   24322:	240f      	movs	r4, #15
   24324:	4630      	mov	r0, r6
   24326:	4622      	mov	r2, r4
   24328:	f003 fc95 	bl	27c56 <__aeabi_memcpy>
   2432c:	a806      	add	r0, sp, #24
   2432e:	2500      	movs	r5, #0
   24330:	7485      	strb	r5, [r0, #18]
   24332:	8205      	strh	r5, [r0, #16]
   24334:	9509      	str	r5, [sp, #36]	@ 0x24
   24336:	9508      	str	r5, [sp, #32]
   24338:	9507      	str	r5, [sp, #28]
   2433a:	9506      	str	r5, [sp, #24]
   2433c:	4825      	ldr	r0, [pc, #148]	@ (243d4 <_ZN18complex_no_dynamic3app17hf4ef6ebd55ba3465E+0xbc>)
   2433e:	2103      	movs	r1, #3
   24340:	4632      	mov	r2, r6
   24342:	4623      	mov	r3, r4
   24344:	df04      	svc	4
   24346:	2802      	cmp	r0, #2
   24348:	d00e      	beq.n	24368 <_ZN18complex_no_dynamic3app17hf4ef6ebd55ba3465E+0x50>
   2434a:	4822      	ldr	r0, [pc, #136]	@ (243d4 <_ZN18complex_no_dynamic3app17hf4ef6ebd55ba3465E+0xbc>)
   2434c:	2100      	movs	r1, #0
   2434e:	aa06      	add	r2, sp, #24
   24350:	2313      	movs	r3, #19
   24352:	df03      	svc	3
   24354:	2802      	cmp	r0, #2
   24356:	d007      	beq.n	24368 <_ZN18complex_no_dynamic3app17hf4ef6ebd55ba3465E+0x50>
   24358:	481e      	ldr	r0, [pc, #120]	@ (243d4 <_ZN18complex_no_dynamic3app17hf4ef6ebd55ba3465E+0xbc>)
   2435a:	2103      	movs	r1, #3
   2435c:	2600      	movs	r6, #0
   2435e:	4632      	mov	r2, r6
   24360:	4633      	mov	r3, r6
   24362:	df02      	svc	2
   24364:	287f      	cmp	r0, #127	@ 0x7f
   24366:	d814      	bhi.n	24392 <_ZN18complex_no_dynamic3app17hf4ef6ebd55ba3465E+0x7a>
   24368:	2601      	movs	r6, #1
   2436a:	2e00      	cmp	r6, #0
   2436c:	d018      	beq.n	243a0 <_ZN18complex_no_dynamic3app17hf4ef6ebd55ba3465E+0x88>
   2436e:	2001      	movs	r0, #1
   24370:	9a01      	ldr	r2, [sp, #4]
   24372:	7010      	strb	r0, [r2, #0]
   24374:	6051      	str	r1, [r2, #4]
   24376:	4c17      	ldr	r4, [pc, #92]	@ (243d4 <_ZN18complex_no_dynamic3app17hf4ef6ebd55ba3465E+0xbc>)
   24378:	2500      	movs	r5, #0
   2437a:	4620      	mov	r0, r4
   2437c:	4629      	mov	r1, r5
   2437e:	462a      	mov	r2, r5
   24380:	462b      	mov	r3, r5
   24382:	df03      	svc	3
   24384:	2103      	movs	r1, #3
   24386:	4620      	mov	r0, r4
   24388:	462a      	mov	r2, r5
   2438a:	462b      	mov	r3, r5
   2438c:	df04      	svc	4
   2438e:	b00b      	add	sp, #44	@ 0x2c
   24390:	bdf0      	pop	{r4, r5, r6, r7, pc}
   24392:	4810      	ldr	r0, [pc, #64]	@ (243d4 <_ZN18complex_no_dynamic3app17hf4ef6ebd55ba3465E+0xbc>)
   24394:	4631      	mov	r1, r6
   24396:	4632      	mov	r2, r6
   24398:	4633      	mov	r3, r6
   2439a:	df03      	svc	3
   2439c:	2e00      	cmp	r6, #0
   2439e:	d1e6      	bne.n	2436e <_ZN18complex_no_dynamic3app17hf4ef6ebd55ba3465E+0x56>
   243a0:	4e0c      	ldr	r6, [pc, #48]	@ (243d4 <_ZN18complex_no_dynamic3app17hf4ef6ebd55ba3465E+0xbc>)
   243a2:	4630      	mov	r0, r6
   243a4:	4629      	mov	r1, r5
   243a6:	462a      	mov	r2, r5
   243a8:	462b      	mov	r3, r5
   243aa:	df03      	svc	3
   243ac:	9c01      	ldr	r4, [sp, #4]
   243ae:	1c60      	adds	r0, r4, #1
   243b0:	a906      	add	r1, sp, #24
   243b2:	2213      	movs	r2, #19
   243b4:	f003 fc4f 	bl	27c56 <__aeabi_memcpy>
   243b8:	7025      	strb	r5, [r4, #0]
   243ba:	4630      	mov	r0, r6
   243bc:	4629      	mov	r1, r5
   243be:	462a      	mov	r2, r5
   243c0:	462b      	mov	r3, r5
   243c2:	df03      	svc	3
   243c4:	2103      	movs	r1, #3
   243c6:	4630      	mov	r0, r6
   243c8:	462a      	mov	r2, r5
   243ca:	462b      	mov	r3, r5
   243cc:	df04      	svc	4
   243ce:	b00b      	add	sp, #44	@ 0x2c
   243d0:	bdf0      	pop	{r4, r5, r6, r7, pc}
   243d2:	46c0      	nop			@ (mov r8, r8)
   243d4:	00001e4b 	.word	0x00001e4b

000243d8 <_ZN18complex_no_dynamic3app17hf8c898e1a09c4a92E>:
   243d8:	b5f0      	push	{r4, r5, r6, r7, lr}
   243da:	af03      	add	r7, sp, #12
   243dc:	b08f      	sub	sp, #60	@ 0x3c
   243de:	9000      	str	r0, [sp, #0]
   243e0:	ae01      	add	r6, sp, #4
   243e2:	2418      	movs	r4, #24
   243e4:	4630      	mov	r0, r6
   243e6:	4622      	mov	r2, r4
   243e8:	f003 fc35 	bl	27c56 <__aeabi_memcpy>
   243ec:	a807      	add	r0, sp, #28
   243ee:	2500      	movs	r5, #0
   243f0:	8385      	strh	r5, [r0, #28]
   243f2:	950d      	str	r5, [sp, #52]	@ 0x34
   243f4:	950c      	str	r5, [sp, #48]	@ 0x30
   243f6:	950b      	str	r5, [sp, #44]	@ 0x2c
   243f8:	950a      	str	r5, [sp, #40]	@ 0x28
   243fa:	9509      	str	r5, [sp, #36]	@ 0x24
   243fc:	9508      	str	r5, [sp, #32]
   243fe:	9507      	str	r5, [sp, #28]
   24400:	4825      	ldr	r0, [pc, #148]	@ (24498 <_ZN18complex_no_dynamic3app17hf8c898e1a09c4a92E+0xc0>)
   24402:	2109      	movs	r1, #9
   24404:	4632      	mov	r2, r6
   24406:	4623      	mov	r3, r4
   24408:	df04      	svc	4
   2440a:	2802      	cmp	r0, #2
   2440c:	d00e      	beq.n	2442c <_ZN18complex_no_dynamic3app17hf8c898e1a09c4a92E+0x54>
   2440e:	4822      	ldr	r0, [pc, #136]	@ (24498 <_ZN18complex_no_dynamic3app17hf8c898e1a09c4a92E+0xc0>)
   24410:	2105      	movs	r1, #5
   24412:	aa07      	add	r2, sp, #28
   24414:	231e      	movs	r3, #30
   24416:	df03      	svc	3
   24418:	2802      	cmp	r0, #2
   2441a:	d007      	beq.n	2442c <_ZN18complex_no_dynamic3app17hf8c898e1a09c4a92E+0x54>
   2441c:	481e      	ldr	r0, [pc, #120]	@ (24498 <_ZN18complex_no_dynamic3app17hf8c898e1a09c4a92E+0xc0>)
   2441e:	2109      	movs	r1, #9
   24420:	2205      	movs	r2, #5
   24422:	2600      	movs	r6, #0
   24424:	4633      	mov	r3, r6
   24426:	df02      	svc	2
   24428:	287f      	cmp	r0, #127	@ 0x7f
   2442a:	d814      	bhi.n	24456 <_ZN18complex_no_dynamic3app17hf8c898e1a09c4a92E+0x7e>
   2442c:	2601      	movs	r6, #1
   2442e:	2e00      	cmp	r6, #0
   24430:	d018      	beq.n	24464 <_ZN18complex_no_dynamic3app17hf8c898e1a09c4a92E+0x8c>
   24432:	2001      	movs	r0, #1
   24434:	9a00      	ldr	r2, [sp, #0]
   24436:	7010      	strb	r0, [r2, #0]
   24438:	6051      	str	r1, [r2, #4]
   2443a:	4c17      	ldr	r4, [pc, #92]	@ (24498 <_ZN18complex_no_dynamic3app17hf8c898e1a09c4a92E+0xc0>)
   2443c:	2105      	movs	r1, #5
   2443e:	2500      	movs	r5, #0
   24440:	4620      	mov	r0, r4
   24442:	462a      	mov	r2, r5
   24444:	462b      	mov	r3, r5
   24446:	df03      	svc	3
   24448:	2109      	movs	r1, #9
   2444a:	4620      	mov	r0, r4
   2444c:	462a      	mov	r2, r5
   2444e:	462b      	mov	r3, r5
   24450:	df04      	svc	4
   24452:	b00f      	add	sp, #60	@ 0x3c
   24454:	bdf0      	pop	{r4, r5, r6, r7, pc}
   24456:	4810      	ldr	r0, [pc, #64]	@ (24498 <_ZN18complex_no_dynamic3app17hf8c898e1a09c4a92E+0xc0>)
   24458:	2105      	movs	r1, #5
   2445a:	4632      	mov	r2, r6
   2445c:	4633      	mov	r3, r6
   2445e:	df03      	svc	3
   24460:	2e00      	cmp	r6, #0
   24462:	d1e6      	bne.n	24432 <_ZN18complex_no_dynamic3app17hf8c898e1a09c4a92E+0x5a>
   24464:	480c      	ldr	r0, [pc, #48]	@ (24498 <_ZN18complex_no_dynamic3app17hf8c898e1a09c4a92E+0xc0>)
   24466:	2405      	movs	r4, #5
   24468:	4621      	mov	r1, r4
   2446a:	462a      	mov	r2, r5
   2446c:	462b      	mov	r3, r5
   2446e:	df03      	svc	3
   24470:	9e00      	ldr	r6, [sp, #0]
   24472:	1c70      	adds	r0, r6, #1
   24474:	a907      	add	r1, sp, #28
   24476:	221e      	movs	r2, #30
   24478:	f003 fbed 	bl	27c56 <__aeabi_memcpy>
   2447c:	7035      	strb	r5, [r6, #0]
   2447e:	4e06      	ldr	r6, [pc, #24]	@ (24498 <_ZN18complex_no_dynamic3app17hf8c898e1a09c4a92E+0xc0>)
   24480:	4630      	mov	r0, r6
   24482:	4621      	mov	r1, r4
   24484:	462a      	mov	r2, r5
   24486:	462b      	mov	r3, r5
   24488:	df03      	svc	3
   2448a:	2109      	movs	r1, #9
   2448c:	4630      	mov	r0, r6
   2448e:	462a      	mov	r2, r5
   24490:	462b      	mov	r3, r5
   24492:	df04      	svc	4
   24494:	b00f      	add	sp, #60	@ 0x3c
   24496:	bdf0      	pop	{r4, r5, r6, r7, pc}
   24498:	00000cbb 	.word	0x00000cbb

0002449c <_ZN18complex_no_dynamic3app17hf9f066d1b9a82906E>:
   2449c:	b5f0      	push	{r4, r5, r6, r7, lr}
   2449e:	af03      	add	r7, sp, #12
   244a0:	b09f      	sub	sp, #124	@ 0x7c
   244a2:	9000      	str	r0, [sp, #0]
   244a4:	ae01      	add	r6, sp, #4
   244a6:	2435      	movs	r4, #53	@ 0x35
   244a8:	4630      	mov	r0, r6
   244aa:	4622      	mov	r2, r4
   244ac:	f003 fbd3 	bl	27c56 <__aeabi_memcpy>
   244b0:	a80f      	add	r0, sp, #60	@ 0x3c
   244b2:	213f      	movs	r1, #63	@ 0x3f
   244b4:	f003 fa22 	bl	278fc <__aeabi_memclr4>
   244b8:	4826      	ldr	r0, [pc, #152]	@ (24554 <_ZN18complex_no_dynamic3app17hf9f066d1b9a82906E+0xb8>)
   244ba:	2500      	movs	r5, #0
   244bc:	4629      	mov	r1, r5
   244be:	4632      	mov	r2, r6
   244c0:	4623      	mov	r3, r4
   244c2:	df04      	svc	4
   244c4:	2802      	cmp	r0, #2
   244c6:	d00e      	beq.n	244e6 <_ZN18complex_no_dynamic3app17hf9f066d1b9a82906E+0x4a>
   244c8:	4822      	ldr	r0, [pc, #136]	@ (24554 <_ZN18complex_no_dynamic3app17hf9f066d1b9a82906E+0xb8>)
   244ca:	2103      	movs	r1, #3
   244cc:	aa0f      	add	r2, sp, #60	@ 0x3c
   244ce:	233f      	movs	r3, #63	@ 0x3f
   244d0:	df03      	svc	3
   244d2:	2802      	cmp	r0, #2
   244d4:	d007      	beq.n	244e6 <_ZN18complex_no_dynamic3app17hf9f066d1b9a82906E+0x4a>
   244d6:	481f      	ldr	r0, [pc, #124]	@ (24554 <_ZN18complex_no_dynamic3app17hf9f066d1b9a82906E+0xb8>)
   244d8:	2203      	movs	r2, #3
   244da:	2600      	movs	r6, #0
   244dc:	4631      	mov	r1, r6
   244de:	4633      	mov	r3, r6
   244e0:	df02      	svc	2
   244e2:	287f      	cmp	r0, #127	@ 0x7f
   244e4:	d814      	bhi.n	24510 <_ZN18complex_no_dynamic3app17hf9f066d1b9a82906E+0x74>
   244e6:	2601      	movs	r6, #1
   244e8:	2e00      	cmp	r6, #0
   244ea:	d018      	beq.n	2451e <_ZN18complex_no_dynamic3app17hf9f066d1b9a82906E+0x82>
   244ec:	2001      	movs	r0, #1
   244ee:	9a00      	ldr	r2, [sp, #0]
   244f0:	7010      	strb	r0, [r2, #0]
   244f2:	6051      	str	r1, [r2, #4]
   244f4:	4c17      	ldr	r4, [pc, #92]	@ (24554 <_ZN18complex_no_dynamic3app17hf9f066d1b9a82906E+0xb8>)
   244f6:	2103      	movs	r1, #3
   244f8:	2500      	movs	r5, #0
   244fa:	4620      	mov	r0, r4
   244fc:	462a      	mov	r2, r5
   244fe:	462b      	mov	r3, r5
   24500:	df03      	svc	3
   24502:	4620      	mov	r0, r4
   24504:	4629      	mov	r1, r5
   24506:	462a      	mov	r2, r5
   24508:	462b      	mov	r3, r5
   2450a:	df04      	svc	4
   2450c:	b01f      	add	sp, #124	@ 0x7c
   2450e:	bdf0      	pop	{r4, r5, r6, r7, pc}
   24510:	4810      	ldr	r0, [pc, #64]	@ (24554 <_ZN18complex_no_dynamic3app17hf9f066d1b9a82906E+0xb8>)
   24512:	2103      	movs	r1, #3
   24514:	4632      	mov	r2, r6
   24516:	4633      	mov	r3, r6
   24518:	df03      	svc	3
   2451a:	2e00      	cmp	r6, #0
   2451c:	d1e6      	bne.n	244ec <_ZN18complex_no_dynamic3app17hf9f066d1b9a82906E+0x50>
   2451e:	480d      	ldr	r0, [pc, #52]	@ (24554 <_ZN18complex_no_dynamic3app17hf9f066d1b9a82906E+0xb8>)
   24520:	2403      	movs	r4, #3
   24522:	4621      	mov	r1, r4
   24524:	462a      	mov	r2, r5
   24526:	462b      	mov	r3, r5
   24528:	df03      	svc	3
   2452a:	9e00      	ldr	r6, [sp, #0]
   2452c:	1c70      	adds	r0, r6, #1
   2452e:	a90f      	add	r1, sp, #60	@ 0x3c
   24530:	223f      	movs	r2, #63	@ 0x3f
   24532:	f003 fb90 	bl	27c56 <__aeabi_memcpy>
   24536:	7035      	strb	r5, [r6, #0]
   24538:	4e06      	ldr	r6, [pc, #24]	@ (24554 <_ZN18complex_no_dynamic3app17hf9f066d1b9a82906E+0xb8>)
   2453a:	4630      	mov	r0, r6
   2453c:	4621      	mov	r1, r4
   2453e:	462a      	mov	r2, r5
   24540:	462b      	mov	r3, r5
   24542:	df03      	svc	3
   24544:	4630      	mov	r0, r6
   24546:	4629      	mov	r1, r5
   24548:	462a      	mov	r2, r5
   2454a:	462b      	mov	r3, r5
   2454c:	df04      	svc	4
   2454e:	b01f      	add	sp, #124	@ 0x7c
   24550:	bdf0      	pop	{r4, r5, r6, r7, pc}
   24552:	46c0      	nop			@ (mov r8, r8)
   24554:	00000e57 	.word	0x00000e57

00024558 <_start>:
   24558:	b5f0      	push	{r4, r5, r6, r7, lr}
   2455a:	af03      	add	r7, sp, #12
   2455c:	4ee2      	ldr	r6, [pc, #904]	@ (248e8 <_start+0x390>)
   2455e:	44b5      	add	sp, r6
   24560:	4ee2      	ldr	r6, [pc, #904]	@ (248ec <_start+0x394>)
   24562:	446e      	add	r6, sp
   24564:	ac1f      	add	r4, sp, #124	@ 0x7c
   24566:	2528      	movs	r5, #40	@ 0x28
   24568:	4620      	mov	r0, r4
   2456a:	4629      	mov	r1, r5
   2456c:	f003 f9c6 	bl	278fc <__aeabi_memclr4>
   24570:	48df      	ldr	r0, [pc, #892]	@ (248f0 <_start+0x398>)
   24572:	4468      	add	r0, sp
   24574:	2151      	movs	r1, #81	@ 0x51
   24576:	f003 f9c1 	bl	278fc <__aeabi_memclr4>
   2457a:	48de      	ldr	r0, [pc, #888]	@ (248f4 <_start+0x39c>)
   2457c:	2109      	movs	r1, #9
   2457e:	4622      	mov	r2, r4
   24580:	462b      	mov	r3, r5
   24582:	df04      	svc	4
   24584:	460c      	mov	r4, r1
   24586:	a94b      	add	r1, sp, #300	@ 0x12c
   24588:	9108      	str	r1, [sp, #32]
   2458a:	49db      	ldr	r1, [pc, #876]	@ (248f8 <_start+0x3a0>)
   2458c:	4469      	add	r1, sp
   2458e:	9106      	str	r1, [sp, #24]
   24590:	49da      	ldr	r1, [pc, #872]	@ (248fc <_start+0x3a4>)
   24592:	4469      	add	r1, sp
   24594:	9107      	str	r1, [sp, #28]
   24596:	2501      	movs	r5, #1
   24598:	2802      	cmp	r0, #2
   2459a:	950a      	str	r5, [sp, #40]	@ 0x28
   2459c:	d019      	beq.n	245d2 <_start+0x7a>
   2459e:	48d5      	ldr	r0, [pc, #852]	@ (248f4 <_start+0x39c>)
   245a0:	2109      	movs	r1, #9
   245a2:	4ad3      	ldr	r2, [pc, #844]	@ (248f0 <_start+0x398>)
   245a4:	446a      	add	r2, sp
   245a6:	2351      	movs	r3, #81	@ 0x51
   245a8:	df03      	svc	3
   245aa:	2802      	cmp	r0, #2
   245ac:	d101      	bne.n	245b2 <_start+0x5a>
   245ae:	460c      	mov	r4, r1
   245b0:	e00f      	b.n	245d2 <_start+0x7a>
   245b2:	48d0      	ldr	r0, [pc, #832]	@ (248f4 <_start+0x39c>)
   245b4:	2109      	movs	r1, #9
   245b6:	2500      	movs	r5, #0
   245b8:	460a      	mov	r2, r1
   245ba:	462b      	mov	r3, r5
   245bc:	df02      	svc	2
   245be:	287f      	cmp	r0, #127	@ 0x7f
   245c0:	d802      	bhi.n	245c8 <_start+0x70>
   245c2:	460c      	mov	r4, r1
   245c4:	9d0a      	ldr	r5, [sp, #40]	@ 0x28
   245c6:	e004      	b.n	245d2 <_start+0x7a>
   245c8:	48ca      	ldr	r0, [pc, #808]	@ (248f4 <_start+0x39c>)
   245ca:	2109      	movs	r1, #9
   245cc:	462a      	mov	r2, r5
   245ce:	462b      	mov	r3, r5
   245d0:	df03      	svc	3
   245d2:	48c8      	ldr	r0, [pc, #800]	@ (248f4 <_start+0x39c>)
   245d4:	2109      	movs	r1, #9
   245d6:	2200      	movs	r2, #0
   245d8:	4613      	mov	r3, r2
   245da:	df03      	svc	3
   245dc:	2d00      	cmp	r5, #0
   245de:	9609      	str	r6, [sp, #36]	@ 0x24
   245e0:	d005      	beq.n	245ee <_start+0x96>
   245e2:	48c4      	ldr	r0, [pc, #784]	@ (248f4 <_start+0x39c>)
   245e4:	2109      	movs	r1, #9
   245e6:	2200      	movs	r2, #0
   245e8:	4613      	mov	r3, r2
   245ea:	df04      	svc	4
   245ec:	e029      	b.n	24642 <_start+0xea>
   245ee:	a82f      	add	r0, sp, #188	@ 0xbc
   245f0:	6df1      	ldr	r1, [r6, #92]	@ 0x5c
   245f2:	8001      	strh	r1, [r0, #0]
   245f4:	49be      	ldr	r1, [pc, #760]	@ (248f0 <_start+0x398>)
   245f6:	4469      	add	r1, sp
   245f8:	788a      	ldrb	r2, [r1, #2]
   245fa:	7082      	strb	r2, [r0, #2]
   245fc:	7988      	ldrb	r0, [r1, #6]
   245fe:	900b      	str	r0, [sp, #44]	@ 0x2c
   24600:	7948      	ldrb	r0, [r1, #5]
   24602:	9005      	str	r0, [sp, #20]
   24604:	78c8      	ldrb	r0, [r1, #3]
   24606:	9004      	str	r0, [sp, #16]
   24608:	7908      	ldrb	r0, [r1, #4]
   2460a:	9003      	str	r0, [sp, #12]
   2460c:	1dc9      	adds	r1, r1, #7
   2460e:	a80c      	add	r0, sp, #48	@ 0x30
   24610:	224a      	movs	r2, #74	@ 0x4a
   24612:	f003 fb20 	bl	27c56 <__aeabi_memcpy>
   24616:	48b7      	ldr	r0, [pc, #732]	@ (248f4 <_start+0x39c>)
   24618:	2609      	movs	r6, #9
   2461a:	2400      	movs	r4, #0
   2461c:	4631      	mov	r1, r6
   2461e:	4622      	mov	r2, r4
   24620:	4623      	mov	r3, r4
   24622:	df03      	svc	3
   24624:	48b3      	ldr	r0, [pc, #716]	@ (248f4 <_start+0x39c>)
   24626:	4631      	mov	r1, r6
   24628:	4622      	mov	r2, r4
   2462a:	4623      	mov	r3, r4
   2462c:	df04      	svc	4
   2462e:	9803      	ldr	r0, [sp, #12]
   24630:	0200      	lsls	r0, r0, #8
   24632:	9904      	ldr	r1, [sp, #16]
   24634:	1840      	adds	r0, r0, r1
   24636:	9905      	ldr	r1, [sp, #20]
   24638:	0409      	lsls	r1, r1, #16
   2463a:	9a0b      	ldr	r2, [sp, #44]	@ 0x2c
   2463c:	0612      	lsls	r2, r2, #24
   2463e:	1851      	adds	r1, r2, r1
   24640:	180c      	adds	r4, r1, r0
   24642:	940b      	str	r4, [sp, #44]	@ 0x2c
   24644:	2d00      	cmp	r5, #0
   24646:	d000      	beq.n	2464a <_start+0xf2>
   24648:	e07e      	b.n	24748 <_start+0x1f0>
   2464a:	4da9      	ldr	r5, [pc, #676]	@ (248f0 <_start+0x398>)
   2464c:	446d      	add	r5, sp
   2464e:	982f      	ldr	r0, [sp, #188]	@ 0xbc
   24650:	8028      	strh	r0, [r5, #0]
   24652:	a82f      	add	r0, sp, #188	@ 0xbc
   24654:	7880      	ldrb	r0, [r0, #2]
   24656:	70a8      	strb	r0, [r5, #2]
   24658:	4ea4      	ldr	r6, [pc, #656]	@ (248ec <_start+0x394>)
   2465a:	446e      	add	r6, sp
   2465c:	a90c      	add	r1, sp, #48	@ 0x30
   2465e:	244a      	movs	r4, #74	@ 0x4a
   24660:	4630      	mov	r0, r6
   24662:	4622      	mov	r2, r4
   24664:	f003 f997 	bl	27996 <__aeabi_memcpy4>
   24668:	1de8      	adds	r0, r5, #7
   2466a:	4631      	mov	r1, r6
   2466c:	4622      	mov	r2, r4
   2466e:	f003 faf2 	bl	27c56 <__aeabi_memcpy>
   24672:	990b      	ldr	r1, [sp, #44]	@ 0x2c
   24674:	0e08      	lsrs	r0, r1, #24
   24676:	71a8      	strb	r0, [r5, #6]
   24678:	0c08      	lsrs	r0, r1, #16
   2467a:	7168      	strb	r0, [r5, #5]
   2467c:	0a08      	lsrs	r0, r1, #8
   2467e:	7128      	strb	r0, [r5, #4]
   24680:	70e9      	strb	r1, [r5, #3]
   24682:	489a      	ldr	r0, [pc, #616]	@ (248ec <_start+0x394>)
   24684:	4468      	add	r0, sp
   24686:	2146      	movs	r1, #70	@ 0x46
   24688:	f003 f938 	bl	278fc <__aeabi_memclr4>
   2468c:	489c      	ldr	r0, [pc, #624]	@ (24900 <_start+0x3a8>)
   2468e:	2107      	movs	r1, #7
   24690:	2351      	movs	r3, #81	@ 0x51
   24692:	462a      	mov	r2, r5
   24694:	df04      	svc	4
   24696:	2802      	cmp	r0, #2
   24698:	d102      	bne.n	246a0 <_start+0x148>
   2469a:	460c      	mov	r4, r1
   2469c:	9e0a      	ldr	r6, [sp, #40]	@ 0x28
   2469e:	e018      	b.n	246d2 <_start+0x17a>
   246a0:	4897      	ldr	r0, [pc, #604]	@ (24900 <_start+0x3a8>)
   246a2:	2100      	movs	r1, #0
   246a4:	4a91      	ldr	r2, [pc, #580]	@ (248ec <_start+0x394>)
   246a6:	446a      	add	r2, sp
   246a8:	2346      	movs	r3, #70	@ 0x46
   246aa:	df03      	svc	3
   246ac:	2802      	cmp	r0, #2
   246ae:	9d0a      	ldr	r5, [sp, #40]	@ 0x28
   246b0:	d007      	beq.n	246c2 <_start+0x16a>
   246b2:	4893      	ldr	r0, [pc, #588]	@ (24900 <_start+0x3a8>)
   246b4:	2107      	movs	r1, #7
   246b6:	2600      	movs	r6, #0
   246b8:	4632      	mov	r2, r6
   246ba:	4633      	mov	r3, r6
   246bc:	df02      	svc	2
   246be:	287f      	cmp	r0, #127	@ 0x7f
   246c0:	d802      	bhi.n	246c8 <_start+0x170>
   246c2:	460c      	mov	r4, r1
   246c4:	462e      	mov	r6, r5
   246c6:	e004      	b.n	246d2 <_start+0x17a>
   246c8:	488d      	ldr	r0, [pc, #564]	@ (24900 <_start+0x3a8>)
   246ca:	4631      	mov	r1, r6
   246cc:	4632      	mov	r2, r6
   246ce:	4633      	mov	r3, r6
   246d0:	df03      	svc	3
   246d2:	488b      	ldr	r0, [pc, #556]	@ (24900 <_start+0x3a8>)
   246d4:	2100      	movs	r1, #0
   246d6:	460a      	mov	r2, r1
   246d8:	9105      	str	r1, [sp, #20]
   246da:	460b      	mov	r3, r1
   246dc:	df03      	svc	3
   246de:	2e00      	cmp	r6, #0
   246e0:	d005      	beq.n	246ee <_start+0x196>
   246e2:	4887      	ldr	r0, [pc, #540]	@ (24900 <_start+0x3a8>)
   246e4:	2107      	movs	r1, #7
   246e6:	2200      	movs	r2, #0
   246e8:	4613      	mov	r3, r2
   246ea:	df04      	svc	4
   246ec:	e029      	b.n	24742 <_start+0x1ea>
   246ee:	a82f      	add	r0, sp, #188	@ 0xbc
   246f0:	9909      	ldr	r1, [sp, #36]	@ 0x24
   246f2:	6809      	ldr	r1, [r1, #0]
   246f4:	8001      	strh	r1, [r0, #0]
   246f6:	497d      	ldr	r1, [pc, #500]	@ (248ec <_start+0x394>)
   246f8:	4469      	add	r1, sp
   246fa:	788a      	ldrb	r2, [r1, #2]
   246fc:	7082      	strb	r2, [r0, #2]
   246fe:	7988      	ldrb	r0, [r1, #6]
   24700:	900b      	str	r0, [sp, #44]	@ 0x2c
   24702:	7948      	ldrb	r0, [r1, #5]
   24704:	9004      	str	r0, [sp, #16]
   24706:	78c8      	ldrb	r0, [r1, #3]
   24708:	9003      	str	r0, [sp, #12]
   2470a:	7908      	ldrb	r0, [r1, #4]
   2470c:	9002      	str	r0, [sp, #8]
   2470e:	1dc9      	adds	r1, r1, #7
   24710:	a81f      	add	r0, sp, #124	@ 0x7c
   24712:	223f      	movs	r2, #63	@ 0x3f
   24714:	f003 fa9f 	bl	27c56 <__aeabi_memcpy>
   24718:	4879      	ldr	r0, [pc, #484]	@ (24900 <_start+0x3a8>)
   2471a:	2400      	movs	r4, #0
   2471c:	4621      	mov	r1, r4
   2471e:	4622      	mov	r2, r4
   24720:	4623      	mov	r3, r4
   24722:	df03      	svc	3
   24724:	2107      	movs	r1, #7
   24726:	4876      	ldr	r0, [pc, #472]	@ (24900 <_start+0x3a8>)
   24728:	4622      	mov	r2, r4
   2472a:	4623      	mov	r3, r4
   2472c:	df04      	svc	4
   2472e:	9802      	ldr	r0, [sp, #8]
   24730:	0200      	lsls	r0, r0, #8
   24732:	9903      	ldr	r1, [sp, #12]
   24734:	1840      	adds	r0, r0, r1
   24736:	9904      	ldr	r1, [sp, #16]
   24738:	0409      	lsls	r1, r1, #16
   2473a:	9a0b      	ldr	r2, [sp, #44]	@ 0x2c
   2473c:	0612      	lsls	r2, r2, #24
   2473e:	1851      	adds	r1, r2, r1
   24740:	180c      	adds	r4, r1, r0
   24742:	940b      	str	r4, [sp, #44]	@ 0x2c
   24744:	2e00      	cmp	r6, #0
   24746:	d005      	beq.n	24754 <_start+0x1fc>
   24748:	2001      	movs	r0, #1
   2474a:	990b      	ldr	r1, [sp, #44]	@ 0x2c
   2474c:	1ffe      	subs	r6, r7, #7
   2474e:	3e05      	subs	r6, #5
   24750:	46b5      	mov	sp, r6
   24752:	bdf0      	pop	{r4, r5, r6, r7, pc}
   24754:	4966      	ldr	r1, [pc, #408]	@ (248f0 <_start+0x398>)
   24756:	4469      	add	r1, sp
   24758:	9104      	str	r1, [sp, #16]
   2475a:	982f      	ldr	r0, [sp, #188]	@ 0xbc
   2475c:	8008      	strh	r0, [r1, #0]
   2475e:	a82f      	add	r0, sp, #188	@ 0xbc
   24760:	7880      	ldrb	r0, [r0, #2]
   24762:	7088      	strb	r0, [r1, #2]
   24764:	a81f      	add	r0, sp, #124	@ 0x7c
   24766:	a90c      	add	r1, sp, #48	@ 0x30
   24768:	460a      	mov	r2, r1
   2476a:	c838      	ldmia	r0!, {r3, r4, r5}
   2476c:	c238      	stmia	r2!, {r3, r4, r5}
   2476e:	c878      	ldmia	r0!, {r3, r4, r5, r6}
   24770:	c278      	stmia	r2!, {r3, r4, r5, r6}
   24772:	c878      	ldmia	r0!, {r3, r4, r5, r6}
   24774:	c278      	stmia	r2!, {r3, r4, r5, r6}
   24776:	c878      	ldmia	r0!, {r3, r4, r5, r6}
   24778:	c278      	stmia	r2!, {r3, r4, r5, r6}
   2477a:	8803      	ldrh	r3, [r0, #0]
   2477c:	8013      	strh	r3, [r2, #0]
   2477e:	7880      	ldrb	r0, [r0, #2]
   24780:	7090      	strb	r0, [r2, #2]
   24782:	9c04      	ldr	r4, [sp, #16]
   24784:	1de0      	adds	r0, r4, #7
   24786:	223f      	movs	r2, #63	@ 0x3f
   24788:	f003 fa65 	bl	27c56 <__aeabi_memcpy>
   2478c:	990b      	ldr	r1, [sp, #44]	@ 0x2c
   2478e:	0e08      	lsrs	r0, r1, #24
   24790:	4622      	mov	r2, r4
   24792:	71a0      	strb	r0, [r4, #6]
   24794:	0c08      	lsrs	r0, r1, #16
   24796:	7160      	strb	r0, [r4, #5]
   24798:	0a08      	lsrs	r0, r1, #8
   2479a:	7120      	strb	r0, [r4, #4]
   2479c:	70e1      	strb	r1, [r4, #3]
   2479e:	9c09      	ldr	r4, [sp, #36]	@ 0x24
   247a0:	9805      	ldr	r0, [sp, #20]
   247a2:	6020      	str	r0, [r4, #0]
   247a4:	6060      	str	r0, [r4, #4]
   247a6:	60a0      	str	r0, [r4, #8]
   247a8:	60e0      	str	r0, [r4, #12]
   247aa:	6120      	str	r0, [r4, #16]
   247ac:	6160      	str	r0, [r4, #20]
   247ae:	4855      	ldr	r0, [pc, #340]	@ (24904 <_start+0x3ac>)
   247b0:	2103      	movs	r1, #3
   247b2:	2346      	movs	r3, #70	@ 0x46
   247b4:	df04      	svc	4
   247b6:	910b      	str	r1, [sp, #44]	@ 0x2c
   247b8:	2802      	cmp	r0, #2
   247ba:	d012      	beq.n	247e2 <_start+0x28a>
   247bc:	4851      	ldr	r0, [pc, #324]	@ (24904 <_start+0x3ac>)
   247be:	2102      	movs	r1, #2
   247c0:	4a4a      	ldr	r2, [pc, #296]	@ (248ec <_start+0x394>)
   247c2:	446a      	add	r2, sp
   247c4:	2318      	movs	r3, #24
   247c6:	df03      	svc	3
   247c8:	910b      	str	r1, [sp, #44]	@ 0x2c
   247ca:	2802      	cmp	r0, #2
   247cc:	d009      	beq.n	247e2 <_start+0x28a>
   247ce:	484d      	ldr	r0, [pc, #308]	@ (24904 <_start+0x3ac>)
   247d0:	2103      	movs	r1, #3
   247d2:	2202      	movs	r2, #2
   247d4:	2500      	movs	r5, #0
   247d6:	462b      	mov	r3, r5
   247d8:	df02      	svc	2
   247da:	910b      	str	r1, [sp, #44]	@ 0x2c
   247dc:	287f      	cmp	r0, #127	@ 0x7f
   247de:	d900      	bls.n	247e2 <_start+0x28a>
   247e0:	e07c      	b.n	248dc <_start+0x384>
   247e2:	9d0a      	ldr	r5, [sp, #40]	@ 0x28
   247e4:	4847      	ldr	r0, [pc, #284]	@ (24904 <_start+0x3ac>)
   247e6:	2102      	movs	r1, #2
   247e8:	2200      	movs	r2, #0
   247ea:	4613      	mov	r3, r2
   247ec:	df03      	svc	3
   247ee:	2d00      	cmp	r5, #0
   247f0:	d007      	beq.n	24802 <_start+0x2aa>
   247f2:	4844      	ldr	r0, [pc, #272]	@ (24904 <_start+0x3ac>)
   247f4:	2103      	movs	r1, #3
   247f6:	2200      	movs	r2, #0
   247f8:	4613      	mov	r3, r2
   247fa:	df04      	svc	4
   247fc:	2d00      	cmp	r5, #0
   247fe:	d02e      	beq.n	2485e <_start+0x306>
   24800:	e7a2      	b.n	24748 <_start+0x1f0>
   24802:	a834      	add	r0, sp, #208	@ 0xd0
   24804:	6821      	ldr	r1, [r4, #0]
   24806:	8001      	strh	r1, [r0, #0]
   24808:	4938      	ldr	r1, [pc, #224]	@ (248ec <_start+0x394>)
   2480a:	4469      	add	r1, sp
   2480c:	788a      	ldrb	r2, [r1, #2]
   2480e:	7082      	strb	r2, [r0, #2]
   24810:	7988      	ldrb	r0, [r1, #6]
   24812:	900b      	str	r0, [sp, #44]	@ 0x2c
   24814:	7948      	ldrb	r0, [r1, #5]
   24816:	9005      	str	r0, [sp, #20]
   24818:	78c8      	ldrb	r0, [r1, #3]
   2481a:	9004      	str	r0, [sp, #16]
   2481c:	7908      	ldrb	r0, [r1, #4]
   2481e:	9003      	str	r0, [sp, #12]
   24820:	1dc9      	adds	r1, r1, #7
   24822:	a82f      	add	r0, sp, #188	@ 0xbc
   24824:	2211      	movs	r2, #17
   24826:	f003 fa16 	bl	27c56 <__aeabi_memcpy>
   2482a:	4c36      	ldr	r4, [pc, #216]	@ (24904 <_start+0x3ac>)
   2482c:	2102      	movs	r1, #2
   2482e:	2600      	movs	r6, #0
   24830:	4620      	mov	r0, r4
   24832:	4632      	mov	r2, r6
   24834:	4633      	mov	r3, r6
   24836:	df03      	svc	3
   24838:	2103      	movs	r1, #3
   2483a:	4620      	mov	r0, r4
   2483c:	4632      	mov	r2, r6
   2483e:	4633      	mov	r3, r6
   24840:	df04      	svc	4
   24842:	9803      	ldr	r0, [sp, #12]
   24844:	0200      	lsls	r0, r0, #8
   24846:	9904      	ldr	r1, [sp, #16]
   24848:	1840      	adds	r0, r0, r1
   2484a:	9905      	ldr	r1, [sp, #20]
   2484c:	0409      	lsls	r1, r1, #16
   2484e:	9a0b      	ldr	r2, [sp, #44]	@ 0x2c
   24850:	0612      	lsls	r2, r2, #24
   24852:	1851      	adds	r1, r2, r1
   24854:	1808      	adds	r0, r1, r0
   24856:	900b      	str	r0, [sp, #44]	@ 0x2c
   24858:	2d00      	cmp	r5, #0
   2485a:	d000      	beq.n	2485e <_start+0x306>
   2485c:	e774      	b.n	24748 <_start+0x1f0>
   2485e:	ad1f      	add	r5, sp, #124	@ 0x7c
   24860:	9834      	ldr	r0, [sp, #208]	@ 0xd0
   24862:	8028      	strh	r0, [r5, #0]
   24864:	a834      	add	r0, sp, #208	@ 0xd0
   24866:	7880      	ldrb	r0, [r0, #2]
   24868:	70a8      	strb	r0, [r5, #2]
   2486a:	a92f      	add	r1, sp, #188	@ 0xbc
   2486c:	aa0c      	add	r2, sp, #48	@ 0x30
   2486e:	9205      	str	r2, [sp, #20]
   24870:	c959      	ldmia	r1!, {r0, r3, r4, r6}
   24872:	c259      	stmia	r2!, {r0, r3, r4, r6}
   24874:	7808      	ldrb	r0, [r1, #0]
   24876:	7010      	strb	r0, [r2, #0]
   24878:	1de8      	adds	r0, r5, #7
   2487a:	2211      	movs	r2, #17
   2487c:	9905      	ldr	r1, [sp, #20]
   2487e:	f003 f9ea 	bl	27c56 <__aeabi_memcpy>
   24882:	990b      	ldr	r1, [sp, #44]	@ 0x2c
   24884:	0e08      	lsrs	r0, r1, #24
   24886:	71a8      	strb	r0, [r5, #6]
   24888:	0c08      	lsrs	r0, r1, #16
   2488a:	7168      	strb	r0, [r5, #5]
   2488c:	0a08      	lsrs	r0, r1, #8
   2488e:	7128      	strb	r0, [r5, #4]
   24890:	70e9      	strb	r1, [r5, #3]
   24892:	4817      	ldr	r0, [pc, #92]	@ (248f0 <_start+0x398>)
   24894:	4468      	add	r0, sp
   24896:	2136      	movs	r1, #54	@ 0x36
   24898:	f003 f830 	bl	278fc <__aeabi_memclr4>
   2489c:	481a      	ldr	r0, [pc, #104]	@ (24908 <_start+0x3b0>)
   2489e:	2100      	movs	r1, #0
   248a0:	2318      	movs	r3, #24
   248a2:	462a      	mov	r2, r5
   248a4:	df04      	svc	4
   248a6:	2802      	cmp	r0, #2
   248a8:	d103      	bne.n	248b2 <_start+0x35a>
   248aa:	910b      	str	r1, [sp, #44]	@ 0x2c
   248ac:	9d0a      	ldr	r5, [sp, #40]	@ 0x28
   248ae:	9c09      	ldr	r4, [sp, #36]	@ 0x24
   248b0:	e031      	b.n	24916 <_start+0x3be>
   248b2:	4815      	ldr	r0, [pc, #84]	@ (24908 <_start+0x3b0>)
   248b4:	2107      	movs	r1, #7
   248b6:	4a0e      	ldr	r2, [pc, #56]	@ (248f0 <_start+0x398>)
   248b8:	446a      	add	r2, sp
   248ba:	2336      	movs	r3, #54	@ 0x36
   248bc:	df03      	svc	3
   248be:	910b      	str	r1, [sp, #44]	@ 0x2c
   248c0:	2802      	cmp	r0, #2
   248c2:	9c09      	ldr	r4, [sp, #36]	@ 0x24
   248c4:	d008      	beq.n	248d8 <_start+0x380>
   248c6:	4810      	ldr	r0, [pc, #64]	@ (24908 <_start+0x3b0>)
   248c8:	2207      	movs	r2, #7
   248ca:	2500      	movs	r5, #0
   248cc:	4629      	mov	r1, r5
   248ce:	462b      	mov	r3, r5
   248d0:	df02      	svc	2
   248d2:	910b      	str	r1, [sp, #44]	@ 0x2c
   248d4:	287f      	cmp	r0, #127	@ 0x7f
   248d6:	d819      	bhi.n	2490c <_start+0x3b4>
   248d8:	9d0a      	ldr	r5, [sp, #40]	@ 0x28
   248da:	e01c      	b.n	24916 <_start+0x3be>
   248dc:	4809      	ldr	r0, [pc, #36]	@ (24904 <_start+0x3ac>)
   248de:	2102      	movs	r1, #2
   248e0:	462a      	mov	r2, r5
   248e2:	462b      	mov	r3, r5
   248e4:	df03      	svc	3
   248e6:	e77d      	b.n	247e4 <_start+0x28c>
   248e8:	ffffeadc 	.word	0xffffeadc
   248ec:	000013a8 	.word	0x000013a8
   248f0:	00001404 	.word	0x00001404
   248f4:	00002006 	.word	0x00002006
   248f8:	00000508 	.word	0x00000508
   248fc:	000007dc 	.word	0x000007dc
   24900:	000020c4 	.word	0x000020c4
   24904:	000023cf 	.word	0x000023cf
   24908:	0000021f 	.word	0x0000021f
   2490c:	48d8      	ldr	r0, [pc, #864]	@ (24c70 <_start+0x718>)
   2490e:	2107      	movs	r1, #7
   24910:	462a      	mov	r2, r5
   24912:	462b      	mov	r3, r5
   24914:	df03      	svc	3
   24916:	48d6      	ldr	r0, [pc, #856]	@ (24c70 <_start+0x718>)
   24918:	2107      	movs	r1, #7
   2491a:	2200      	movs	r2, #0
   2491c:	4613      	mov	r3, r2
   2491e:	df03      	svc	3
   24920:	2d00      	cmp	r5, #0
   24922:	d007      	beq.n	24934 <_start+0x3dc>
   24924:	48d2      	ldr	r0, [pc, #840]	@ (24c70 <_start+0x718>)
   24926:	2100      	movs	r1, #0
   24928:	460a      	mov	r2, r1
   2492a:	460b      	mov	r3, r1
   2492c:	df04      	svc	4
   2492e:	2d00      	cmp	r5, #0
   24930:	d02e      	beq.n	24990 <_start+0x438>
   24932:	e709      	b.n	24748 <_start+0x1f0>
   24934:	a82f      	add	r0, sp, #188	@ 0xbc
   24936:	6de1      	ldr	r1, [r4, #92]	@ 0x5c
   24938:	8001      	strh	r1, [r0, #0]
   2493a:	49ce      	ldr	r1, [pc, #824]	@ (24c74 <_start+0x71c>)
   2493c:	4469      	add	r1, sp
   2493e:	788a      	ldrb	r2, [r1, #2]
   24940:	7082      	strb	r2, [r0, #2]
   24942:	7988      	ldrb	r0, [r1, #6]
   24944:	900b      	str	r0, [sp, #44]	@ 0x2c
   24946:	7948      	ldrb	r0, [r1, #5]
   24948:	9005      	str	r0, [sp, #20]
   2494a:	78c8      	ldrb	r0, [r1, #3]
   2494c:	9004      	str	r0, [sp, #16]
   2494e:	7908      	ldrb	r0, [r1, #4]
   24950:	9003      	str	r0, [sp, #12]
   24952:	1dc9      	adds	r1, r1, #7
   24954:	a80c      	add	r0, sp, #48	@ 0x30
   24956:	222f      	movs	r2, #47	@ 0x2f
   24958:	f003 f97d 	bl	27c56 <__aeabi_memcpy>
   2495c:	4cc4      	ldr	r4, [pc, #784]	@ (24c70 <_start+0x718>)
   2495e:	2107      	movs	r1, #7
   24960:	2600      	movs	r6, #0
   24962:	4620      	mov	r0, r4
   24964:	4632      	mov	r2, r6
   24966:	4633      	mov	r3, r6
   24968:	df03      	svc	3
   2496a:	4620      	mov	r0, r4
   2496c:	4631      	mov	r1, r6
   2496e:	4632      	mov	r2, r6
   24970:	4633      	mov	r3, r6
   24972:	df04      	svc	4
   24974:	9803      	ldr	r0, [sp, #12]
   24976:	0200      	lsls	r0, r0, #8
   24978:	9904      	ldr	r1, [sp, #16]
   2497a:	1840      	adds	r0, r0, r1
   2497c:	9905      	ldr	r1, [sp, #20]
   2497e:	0409      	lsls	r1, r1, #16
   24980:	9a0b      	ldr	r2, [sp, #44]	@ 0x2c
   24982:	0612      	lsls	r2, r2, #24
   24984:	1851      	adds	r1, r2, r1
   24986:	1808      	adds	r0, r1, r0
   24988:	900b      	str	r0, [sp, #44]	@ 0x2c
   2498a:	2d00      	cmp	r5, #0
   2498c:	d000      	beq.n	24990 <_start+0x438>
   2498e:	e6db      	b.n	24748 <_start+0x1f0>
   24990:	49b8      	ldr	r1, [pc, #736]	@ (24c74 <_start+0x71c>)
   24992:	4469      	add	r1, sp
   24994:	9105      	str	r1, [sp, #20]
   24996:	982f      	ldr	r0, [sp, #188]	@ 0xbc
   24998:	8008      	strh	r0, [r1, #0]
   2499a:	a82f      	add	r0, sp, #188	@ 0xbc
   2499c:	7880      	ldrb	r0, [r0, #2]
   2499e:	7088      	strb	r0, [r1, #2]
   249a0:	a80c      	add	r0, sp, #48	@ 0x30
   249a2:	49b5      	ldr	r1, [pc, #724]	@ (24c78 <_start+0x720>)
   249a4:	4469      	add	r1, sp
   249a6:	460a      	mov	r2, r1
   249a8:	c858      	ldmia	r0!, {r3, r4, r6}
   249aa:	c258      	stmia	r2!, {r3, r4, r6}
   249ac:	c878      	ldmia	r0!, {r3, r4, r5, r6}
   249ae:	c278      	stmia	r2!, {r3, r4, r5, r6}
   249b0:	c878      	ldmia	r0!, {r3, r4, r5, r6}
   249b2:	c278      	stmia	r2!, {r3, r4, r5, r6}
   249b4:	8803      	ldrh	r3, [r0, #0]
   249b6:	8013      	strh	r3, [r2, #0]
   249b8:	7880      	ldrb	r0, [r0, #2]
   249ba:	7090      	strb	r0, [r2, #2]
   249bc:	9c05      	ldr	r4, [sp, #20]
   249be:	1de0      	adds	r0, r4, #7
   249c0:	222f      	movs	r2, #47	@ 0x2f
   249c2:	f003 f948 	bl	27c56 <__aeabi_memcpy>
   249c6:	990b      	ldr	r1, [sp, #44]	@ 0x2c
   249c8:	0e08      	lsrs	r0, r1, #24
   249ca:	71a0      	strb	r0, [r4, #6]
   249cc:	0c08      	lsrs	r0, r1, #16
   249ce:	7160      	strb	r0, [r4, #5]
   249d0:	0a08      	lsrs	r0, r1, #8
   249d2:	7120      	strb	r0, [r4, #4]
   249d4:	70e1      	strb	r1, [r4, #3]
   249d6:	48a8      	ldr	r0, [pc, #672]	@ (24c78 <_start+0x720>)
   249d8:	4468      	add	r0, sp
   249da:	2125      	movs	r1, #37	@ 0x25
   249dc:	f002 ff8e 	bl	278fc <__aeabi_memclr4>
   249e0:	48a6      	ldr	r0, [pc, #664]	@ (24c7c <_start+0x724>)
   249e2:	2107      	movs	r1, #7
   249e4:	2336      	movs	r3, #54	@ 0x36
   249e6:	4622      	mov	r2, r4
   249e8:	df04      	svc	4
   249ea:	2802      	cmp	r0, #2
   249ec:	d102      	bne.n	249f4 <_start+0x49c>
   249ee:	460c      	mov	r4, r1
   249f0:	9e0a      	ldr	r6, [sp, #40]	@ 0x28
   249f2:	e018      	b.n	24a26 <_start+0x4ce>
   249f4:	48a1      	ldr	r0, [pc, #644]	@ (24c7c <_start+0x724>)
   249f6:	2100      	movs	r1, #0
   249f8:	4a9f      	ldr	r2, [pc, #636]	@ (24c78 <_start+0x720>)
   249fa:	446a      	add	r2, sp
   249fc:	2325      	movs	r3, #37	@ 0x25
   249fe:	df03      	svc	3
   24a00:	2802      	cmp	r0, #2
   24a02:	9d0a      	ldr	r5, [sp, #40]	@ 0x28
   24a04:	d007      	beq.n	24a16 <_start+0x4be>
   24a06:	489d      	ldr	r0, [pc, #628]	@ (24c7c <_start+0x724>)
   24a08:	2107      	movs	r1, #7
   24a0a:	2600      	movs	r6, #0
   24a0c:	4632      	mov	r2, r6
   24a0e:	4633      	mov	r3, r6
   24a10:	df02      	svc	2
   24a12:	287f      	cmp	r0, #127	@ 0x7f
   24a14:	d802      	bhi.n	24a1c <_start+0x4c4>
   24a16:	460c      	mov	r4, r1
   24a18:	462e      	mov	r6, r5
   24a1a:	e004      	b.n	24a26 <_start+0x4ce>
   24a1c:	4897      	ldr	r0, [pc, #604]	@ (24c7c <_start+0x724>)
   24a1e:	4631      	mov	r1, r6
   24a20:	4632      	mov	r2, r6
   24a22:	4633      	mov	r3, r6
   24a24:	df03      	svc	3
   24a26:	4895      	ldr	r0, [pc, #596]	@ (24c7c <_start+0x724>)
   24a28:	2500      	movs	r5, #0
   24a2a:	4629      	mov	r1, r5
   24a2c:	462a      	mov	r2, r5
   24a2e:	462b      	mov	r3, r5
   24a30:	df03      	svc	3
   24a32:	2e00      	cmp	r6, #0
   24a34:	d005      	beq.n	24a42 <_start+0x4ea>
   24a36:	4891      	ldr	r0, [pc, #580]	@ (24c7c <_start+0x724>)
   24a38:	2107      	movs	r1, #7
   24a3a:	2200      	movs	r2, #0
   24a3c:	4613      	mov	r3, r2
   24a3e:	df04      	svc	4
   24a40:	e029      	b.n	24a96 <_start+0x53e>
   24a42:	a82f      	add	r0, sp, #188	@ 0xbc
   24a44:	9909      	ldr	r1, [sp, #36]	@ 0x24
   24a46:	6809      	ldr	r1, [r1, #0]
   24a48:	8001      	strh	r1, [r0, #0]
   24a4a:	498b      	ldr	r1, [pc, #556]	@ (24c78 <_start+0x720>)
   24a4c:	4469      	add	r1, sp
   24a4e:	788a      	ldrb	r2, [r1, #2]
   24a50:	7082      	strb	r2, [r0, #2]
   24a52:	7988      	ldrb	r0, [r1, #6]
   24a54:	900b      	str	r0, [sp, #44]	@ 0x2c
   24a56:	7948      	ldrb	r0, [r1, #5]
   24a58:	9005      	str	r0, [sp, #20]
   24a5a:	78c8      	ldrb	r0, [r1, #3]
   24a5c:	9004      	str	r0, [sp, #16]
   24a5e:	7908      	ldrb	r0, [r1, #4]
   24a60:	9003      	str	r0, [sp, #12]
   24a62:	1dc9      	adds	r1, r1, #7
   24a64:	a81f      	add	r0, sp, #124	@ 0x7c
   24a66:	221e      	movs	r2, #30
   24a68:	f003 f8f5 	bl	27c56 <__aeabi_memcpy>
   24a6c:	4883      	ldr	r0, [pc, #524]	@ (24c7c <_start+0x724>)
   24a6e:	2400      	movs	r4, #0
   24a70:	4621      	mov	r1, r4
   24a72:	4622      	mov	r2, r4
   24a74:	4623      	mov	r3, r4
   24a76:	df03      	svc	3
   24a78:	2107      	movs	r1, #7
   24a7a:	4880      	ldr	r0, [pc, #512]	@ (24c7c <_start+0x724>)
   24a7c:	4622      	mov	r2, r4
   24a7e:	4623      	mov	r3, r4
   24a80:	df04      	svc	4
   24a82:	9803      	ldr	r0, [sp, #12]
   24a84:	0200      	lsls	r0, r0, #8
   24a86:	9904      	ldr	r1, [sp, #16]
   24a88:	1840      	adds	r0, r0, r1
   24a8a:	9905      	ldr	r1, [sp, #20]
   24a8c:	0409      	lsls	r1, r1, #16
   24a8e:	9a0b      	ldr	r2, [sp, #44]	@ 0x2c
   24a90:	0612      	lsls	r2, r2, #24
   24a92:	1851      	adds	r1, r2, r1
   24a94:	180c      	adds	r4, r1, r0
   24a96:	940b      	str	r4, [sp, #44]	@ 0x2c
   24a98:	2e00      	cmp	r6, #0
   24a9a:	d000      	beq.n	24a9e <_start+0x546>
   24a9c:	e654      	b.n	24748 <_start+0x1f0>
   24a9e:	4975      	ldr	r1, [pc, #468]	@ (24c74 <_start+0x71c>)
   24aa0:	4469      	add	r1, sp
   24aa2:	9104      	str	r1, [sp, #16]
   24aa4:	982f      	ldr	r0, [sp, #188]	@ 0xbc
   24aa6:	8008      	strh	r0, [r1, #0]
   24aa8:	a82f      	add	r0, sp, #188	@ 0xbc
   24aaa:	7880      	ldrb	r0, [r0, #2]
   24aac:	7088      	strb	r0, [r1, #2]
   24aae:	a81f      	add	r0, sp, #124	@ 0x7c
   24ab0:	a90c      	add	r1, sp, #48	@ 0x30
   24ab2:	460a      	mov	r2, r1
   24ab4:	9505      	str	r5, [sp, #20]
   24ab6:	c838      	ldmia	r0!, {r3, r4, r5}
   24ab8:	c238      	stmia	r2!, {r3, r4, r5}
   24aba:	c878      	ldmia	r0!, {r3, r4, r5, r6}
   24abc:	c278      	stmia	r2!, {r3, r4, r5, r6}
   24abe:	8800      	ldrh	r0, [r0, #0]
   24ac0:	8010      	strh	r0, [r2, #0]
   24ac2:	9c04      	ldr	r4, [sp, #16]
   24ac4:	1de0      	adds	r0, r4, #7
   24ac6:	221e      	movs	r2, #30
   24ac8:	f003 f8c5 	bl	27c56 <__aeabi_memcpy>
   24acc:	990b      	ldr	r1, [sp, #44]	@ 0x2c
   24ace:	0e08      	lsrs	r0, r1, #24
   24ad0:	4622      	mov	r2, r4
   24ad2:	71a0      	strb	r0, [r4, #6]
   24ad4:	0c08      	lsrs	r0, r1, #16
   24ad6:	7160      	strb	r0, [r4, #5]
   24ad8:	0a08      	lsrs	r0, r1, #8
   24ada:	7120      	strb	r0, [r4, #4]
   24adc:	70e1      	strb	r1, [r4, #3]
   24ade:	4866      	ldr	r0, [pc, #408]	@ (24c78 <_start+0x720>)
   24ae0:	4468      	add	r0, sp
   24ae2:	9905      	ldr	r1, [sp, #20]
   24ae4:	8181      	strh	r1, [r0, #12]
   24ae6:	9e09      	ldr	r6, [sp, #36]	@ 0x24
   24ae8:	6031      	str	r1, [r6, #0]
   24aea:	6071      	str	r1, [r6, #4]
   24aec:	60b1      	str	r1, [r6, #8]
   24aee:	4864      	ldr	r0, [pc, #400]	@ (24c80 <_start+0x728>)
   24af0:	2102      	movs	r1, #2
   24af2:	2325      	movs	r3, #37	@ 0x25
   24af4:	df04      	svc	4
   24af6:	2802      	cmp	r0, #2
   24af8:	d010      	beq.n	24b1c <_start+0x5c4>
   24afa:	4861      	ldr	r0, [pc, #388]	@ (24c80 <_start+0x728>)
   24afc:	2108      	movs	r1, #8
   24afe:	4a5e      	ldr	r2, [pc, #376]	@ (24c78 <_start+0x720>)
   24b00:	446a      	add	r2, sp
   24b02:	230e      	movs	r3, #14
   24b04:	df03      	svc	3
   24b06:	2802      	cmp	r0, #2
   24b08:	d008      	beq.n	24b1c <_start+0x5c4>
   24b0a:	485d      	ldr	r0, [pc, #372]	@ (24c80 <_start+0x728>)
   24b0c:	2102      	movs	r1, #2
   24b0e:	2208      	movs	r2, #8
   24b10:	2500      	movs	r5, #0
   24b12:	462b      	mov	r3, r5
   24b14:	df02      	svc	2
   24b16:	287f      	cmp	r0, #127	@ 0x7f
   24b18:	d900      	bls.n	24b1c <_start+0x5c4>
   24b1a:	e0a3      	b.n	24c64 <_start+0x70c>
   24b1c:	460c      	mov	r4, r1
   24b1e:	9d0a      	ldr	r5, [sp, #40]	@ 0x28
   24b20:	4857      	ldr	r0, [pc, #348]	@ (24c80 <_start+0x728>)
   24b22:	2108      	movs	r1, #8
   24b24:	2200      	movs	r2, #0
   24b26:	4613      	mov	r3, r2
   24b28:	df03      	svc	3
   24b2a:	2d00      	cmp	r5, #0
   24b2c:	d005      	beq.n	24b3a <_start+0x5e2>
   24b2e:	4854      	ldr	r0, [pc, #336]	@ (24c80 <_start+0x728>)
   24b30:	2102      	movs	r1, #2
   24b32:	2200      	movs	r2, #0
   24b34:	4613      	mov	r3, r2
   24b36:	df04      	svc	4
   24b38:	e037      	b.n	24baa <_start+0x652>
   24b3a:	a92f      	add	r1, sp, #188	@ 0xbc
   24b3c:	6830      	ldr	r0, [r6, #0]
   24b3e:	8008      	strh	r0, [r1, #0]
   24b40:	484d      	ldr	r0, [pc, #308]	@ (24c78 <_start+0x720>)
   24b42:	4468      	add	r0, sp
   24b44:	7882      	ldrb	r2, [r0, #2]
   24b46:	708a      	strb	r2, [r1, #2]
   24b48:	7b41      	ldrb	r1, [r0, #13]
   24b4a:	aa1f      	add	r2, sp, #124	@ 0x7c
   24b4c:	7191      	strb	r1, [r2, #6]
   24b4e:	7ac1      	ldrb	r1, [r0, #11]
   24b50:	68f3      	ldr	r3, [r6, #12]
   24b52:	021b      	lsls	r3, r3, #8
   24b54:	1859      	adds	r1, r3, r1
   24b56:	8091      	strh	r1, [r2, #4]
   24b58:	79c1      	ldrb	r1, [r0, #7]
   24b5a:	7a02      	ldrb	r2, [r0, #8]
   24b5c:	0212      	lsls	r2, r2, #8
   24b5e:	1851      	adds	r1, r2, r1
   24b60:	7a42      	ldrb	r2, [r0, #9]
   24b62:	0412      	lsls	r2, r2, #16
   24b64:	7a83      	ldrb	r3, [r0, #10]
   24b66:	061b      	lsls	r3, r3, #24
   24b68:	189a      	adds	r2, r3, r2
   24b6a:	1851      	adds	r1, r2, r1
   24b6c:	911f      	str	r1, [sp, #124]	@ 0x7c
   24b6e:	7981      	ldrb	r1, [r0, #6]
   24b70:	910b      	str	r1, [sp, #44]	@ 0x2c
   24b72:	7941      	ldrb	r1, [r0, #5]
   24b74:	910a      	str	r1, [sp, #40]	@ 0x28
   24b76:	78c1      	ldrb	r1, [r0, #3]
   24b78:	9105      	str	r1, [sp, #20]
   24b7a:	7906      	ldrb	r6, [r0, #4]
   24b7c:	4840      	ldr	r0, [pc, #256]	@ (24c80 <_start+0x728>)
   24b7e:	2108      	movs	r1, #8
   24b80:	462c      	mov	r4, r5
   24b82:	2500      	movs	r5, #0
   24b84:	462a      	mov	r2, r5
   24b86:	462b      	mov	r3, r5
   24b88:	df03      	svc	3
   24b8a:	2102      	movs	r1, #2
   24b8c:	483c      	ldr	r0, [pc, #240]	@ (24c80 <_start+0x728>)
   24b8e:	462a      	mov	r2, r5
   24b90:	462b      	mov	r3, r5
   24b92:	4625      	mov	r5, r4
   24b94:	df04      	svc	4
   24b96:	0230      	lsls	r0, r6, #8
   24b98:	9e09      	ldr	r6, [sp, #36]	@ 0x24
   24b9a:	9905      	ldr	r1, [sp, #20]
   24b9c:	1840      	adds	r0, r0, r1
   24b9e:	990a      	ldr	r1, [sp, #40]	@ 0x28
   24ba0:	0409      	lsls	r1, r1, #16
   24ba2:	9a0b      	ldr	r2, [sp, #44]	@ 0x2c
   24ba4:	0612      	lsls	r2, r2, #24
   24ba6:	1851      	adds	r1, r2, r1
   24ba8:	180c      	adds	r4, r1, r0
   24baa:	2d00      	cmp	r5, #0
   24bac:	d001      	beq.n	24bb2 <_start+0x65a>
   24bae:	940b      	str	r4, [sp, #44]	@ 0x2c
   24bb0:	e5ca      	b.n	24748 <_start+0x1f0>
   24bb2:	ad35      	add	r5, sp, #212	@ 0xd4
   24bb4:	982f      	ldr	r0, [sp, #188]	@ 0xbc
   24bb6:	8028      	strh	r0, [r5, #0]
   24bb8:	a90c      	add	r1, sp, #48	@ 0x30
   24bba:	9820      	ldr	r0, [sp, #128]	@ 0x80
   24bbc:	8088      	strh	r0, [r1, #4]
   24bbe:	a82f      	add	r0, sp, #188	@ 0xbc
   24bc0:	7880      	ldrb	r0, [r0, #2]
   24bc2:	70a8      	strb	r0, [r5, #2]
   24bc4:	a81f      	add	r0, sp, #124	@ 0x7c
   24bc6:	7980      	ldrb	r0, [r0, #6]
   24bc8:	7188      	strb	r0, [r1, #6]
   24bca:	70ec      	strb	r4, [r5, #3]
   24bcc:	0e20      	lsrs	r0, r4, #24
   24bce:	71a8      	strb	r0, [r5, #6]
   24bd0:	0c20      	lsrs	r0, r4, #16
   24bd2:	7168      	strb	r0, [r5, #5]
   24bd4:	0a20      	lsrs	r0, r4, #8
   24bd6:	7128      	strb	r0, [r5, #4]
   24bd8:	981f      	ldr	r0, [sp, #124]	@ 0x7c
   24bda:	900c      	str	r0, [sp, #48]	@ 0x30
   24bdc:	1de8      	adds	r0, r5, #7
   24bde:	2207      	movs	r2, #7
   24be0:	f003 f839 	bl	27c56 <__aeabi_memcpy>
   24be4:	4c23      	ldr	r4, [pc, #140]	@ (24c74 <_start+0x71c>)
   24be6:	446c      	add	r4, sp
   24be8:	4620      	mov	r0, r4
   24bea:	4629      	mov	r1, r5
   24bec:	f7ff fa64 	bl	240b8 <_ZN18complex_no_dynamic3app17hea47dd2519d1688cE>
   24bf0:	7824      	ldrb	r4, [r4, #0]
   24bf2:	2c00      	cmp	r4, #0
   24bf4:	d002      	beq.n	24bfc <_start+0x6a4>
   24bf6:	6e30      	ldr	r0, [r6, #96]	@ 0x60
   24bf8:	900b      	str	r0, [sp, #44]	@ 0x2c
   24bfa:	e011      	b.n	24c20 <_start+0x6c8>
   24bfc:	491d      	ldr	r1, [pc, #116]	@ (24c74 <_start+0x71c>)
   24bfe:	4469      	add	r1, sp
   24c00:	78c8      	ldrb	r0, [r1, #3]
   24c02:	aa0c      	add	r2, sp, #48	@ 0x30
   24c04:	7090      	strb	r0, [r2, #2]
   24c06:	7848      	ldrb	r0, [r1, #1]
   24c08:	788b      	ldrb	r3, [r1, #2]
   24c0a:	021b      	lsls	r3, r3, #8
   24c0c:	1818      	adds	r0, r3, r0
   24c0e:	8010      	strh	r0, [r2, #0]
   24c10:	6e30      	ldr	r0, [r6, #96]	@ 0x60
   24c12:	900b      	str	r0, [sp, #44]	@ 0x2c
   24c14:	3108      	adds	r1, #8
   24c16:	4818      	ldr	r0, [pc, #96]	@ (24c78 <_start+0x720>)
   24c18:	4468      	add	r0, sp
   24c1a:	2241      	movs	r2, #65	@ 0x41
   24c1c:	f002 febb 	bl	27996 <__aeabi_memcpy4>
   24c20:	2c00      	cmp	r4, #0
   24c22:	d000      	beq.n	24c26 <_start+0x6ce>
   24c24:	e590      	b.n	24748 <_start+0x1f0>
   24c26:	ad39      	add	r5, sp, #228	@ 0xe4
   24c28:	990b      	ldr	r1, [sp, #44]	@ 0x2c
   24c2a:	70e9      	strb	r1, [r5, #3]
   24c2c:	980c      	ldr	r0, [sp, #48]	@ 0x30
   24c2e:	8028      	strh	r0, [r5, #0]
   24c30:	0e08      	lsrs	r0, r1, #24
   24c32:	71a8      	strb	r0, [r5, #6]
   24c34:	0c08      	lsrs	r0, r1, #16
   24c36:	7168      	strb	r0, [r5, #5]
   24c38:	0a08      	lsrs	r0, r1, #8
   24c3a:	7128      	strb	r0, [r5, #4]
   24c3c:	a80c      	add	r0, sp, #48	@ 0x30
   24c3e:	7880      	ldrb	r0, [r0, #2]
   24c40:	70a8      	strb	r0, [r5, #2]
   24c42:	1de8      	adds	r0, r5, #7
   24c44:	490c      	ldr	r1, [pc, #48]	@ (24c78 <_start+0x720>)
   24c46:	4469      	add	r1, sp
   24c48:	2241      	movs	r2, #65	@ 0x41
   24c4a:	f003 f804 	bl	27c56 <__aeabi_memcpy>
   24c4e:	4c09      	ldr	r4, [pc, #36]	@ (24c74 <_start+0x71c>)
   24c50:	446c      	add	r4, sp
   24c52:	4620      	mov	r0, r4
   24c54:	4629      	mov	r1, r5
   24c56:	f7fb fd7d 	bl	20754 <_ZN18complex_no_dynamic3app17h173b2ca51a2cd9f2E>
   24c5a:	7821      	ldrb	r1, [r4, #0]
   24c5c:	2901      	cmp	r1, #1
   24c5e:	d111      	bne.n	24c84 <_start+0x72c>
   24c60:	6e34      	ldr	r4, [r6, #96]	@ 0x60
   24c62:	e01d      	b.n	24ca0 <_start+0x748>
   24c64:	4806      	ldr	r0, [pc, #24]	@ (24c80 <_start+0x728>)
   24c66:	2108      	movs	r1, #8
   24c68:	462a      	mov	r2, r5
   24c6a:	462b      	mov	r3, r5
   24c6c:	df03      	svc	3
   24c6e:	e757      	b.n	24b20 <_start+0x5c8>
   24c70:	0000021f 	.word	0x0000021f
   24c74:	00001404 	.word	0x00001404
   24c78:	000013a8 	.word	0x000013a8
   24c7c:	00001597 	.word	0x00001597
   24c80:	00000667 	.word	0x00000667
   24c84:	48e3      	ldr	r0, [pc, #908]	@ (25014 <_start+0xabc>)
   24c86:	4468      	add	r0, sp
   24c88:	78c2      	ldrb	r2, [r0, #3]
   24c8a:	4be3      	ldr	r3, [pc, #908]	@ (25018 <_start+0xac0>)
   24c8c:	446b      	add	r3, sp
   24c8e:	709a      	strb	r2, [r3, #2]
   24c90:	7842      	ldrb	r2, [r0, #1]
   24c92:	7880      	ldrb	r0, [r0, #2]
   24c94:	0200      	lsls	r0, r0, #8
   24c96:	1880      	adds	r0, r0, r2
   24c98:	8018      	strh	r0, [r3, #0]
   24c9a:	6e34      	ldr	r4, [r6, #96]	@ 0x60
   24c9c:	6e72      	ldr	r2, [r6, #100]	@ 0x64
   24c9e:	6eb0      	ldr	r0, [r6, #104]	@ 0x68
   24ca0:	2900      	cmp	r1, #0
   24ca2:	d184      	bne.n	24bae <_start+0x656>
   24ca4:	9908      	ldr	r1, [sp, #32]
   24ca6:	1ccb      	adds	r3, r1, #3
   24ca8:	711a      	strb	r2, [r3, #4]
   24caa:	701c      	strb	r4, [r3, #0]
   24cac:	a94b      	add	r1, sp, #300	@ 0x12c
   24cae:	4625      	mov	r5, r4
   24cb0:	6834      	ldr	r4, [r6, #0]
   24cb2:	800c      	strh	r4, [r1, #0]
   24cb4:	7218      	strb	r0, [r3, #8]
   24cb6:	0e14      	lsrs	r4, r2, #24
   24cb8:	71dc      	strb	r4, [r3, #7]
   24cba:	0c14      	lsrs	r4, r2, #16
   24cbc:	719c      	strb	r4, [r3, #6]
   24cbe:	0a12      	lsrs	r2, r2, #8
   24cc0:	715a      	strb	r2, [r3, #5]
   24cc2:	0e2a      	lsrs	r2, r5, #24
   24cc4:	70da      	strb	r2, [r3, #3]
   24cc6:	0c2a      	lsrs	r2, r5, #16
   24cc8:	709a      	strb	r2, [r3, #2]
   24cca:	0a2a      	lsrs	r2, r5, #8
   24ccc:	705a      	strb	r2, [r3, #1]
   24cce:	4af1      	ldr	r2, [pc, #964]	@ (25094 <_start+0xb3c>)
   24cd0:	446a      	add	r2, sp
   24cd2:	7892      	ldrb	r2, [r2, #2]
   24cd4:	708a      	strb	r2, [r1, #2]
   24cd6:	0e02      	lsrs	r2, r0, #24
   24cd8:	72da      	strb	r2, [r3, #11]
   24cda:	0c02      	lsrs	r2, r0, #16
   24cdc:	729a      	strb	r2, [r3, #10]
   24cde:	0a00      	lsrs	r0, r0, #8
   24ce0:	7258      	strb	r0, [r3, #9]
   24ce2:	4ceb      	ldr	r4, [pc, #940]	@ (25090 <_start+0xb38>)
   24ce4:	446c      	add	r4, sp
   24ce6:	4620      	mov	r0, r4
   24ce8:	f7fd fc76 	bl	225d8 <_ZN18complex_no_dynamic3app17h8714d982f4472e63E>
   24cec:	7820      	ldrb	r0, [r4, #0]
   24cee:	2801      	cmp	r0, #1
   24cf0:	d102      	bne.n	24cf8 <_start+0x7a0>
   24cf2:	6e31      	ldr	r1, [r6, #96]	@ 0x60
   24cf4:	910b      	str	r1, [sp, #44]	@ 0x2c
   24cf6:	e015      	b.n	24d24 <_start+0x7cc>
   24cf8:	49e5      	ldr	r1, [pc, #916]	@ (25090 <_start+0xb38>)
   24cfa:	4469      	add	r1, sp
   24cfc:	78ca      	ldrb	r2, [r1, #3]
   24cfe:	ab0c      	add	r3, sp, #48	@ 0x30
   24d00:	709a      	strb	r2, [r3, #2]
   24d02:	784a      	ldrb	r2, [r1, #1]
   24d04:	788c      	ldrb	r4, [r1, #2]
   24d06:	0224      	lsls	r4, r4, #8
   24d08:	18a2      	adds	r2, r4, r2
   24d0a:	801a      	strh	r2, [r3, #0]
   24d0c:	3108      	adds	r1, #8
   24d0e:	6e32      	ldr	r2, [r6, #96]	@ 0x60
   24d10:	920b      	str	r2, [sp, #44]	@ 0x2c
   24d12:	4ae0      	ldr	r2, [pc, #896]	@ (25094 <_start+0xb3c>)
   24d14:	446a      	add	r2, sp
   24d16:	c938      	ldmia	r1!, {r3, r4, r5}
   24d18:	c238      	stmia	r2!, {r3, r4, r5}
   24d1a:	c978      	ldmia	r1!, {r3, r4, r5, r6}
   24d1c:	c278      	stmia	r2!, {r3, r4, r5, r6}
   24d1e:	9e09      	ldr	r6, [sp, #36]	@ 0x24
   24d20:	8809      	ldrh	r1, [r1, #0]
   24d22:	8011      	strh	r1, [r2, #0]
   24d24:	2800      	cmp	r0, #0
   24d26:	d000      	beq.n	24d2a <_start+0x7d2>
   24d28:	e50e      	b.n	24748 <_start+0x1f0>
   24d2a:	ad4f      	add	r5, sp, #316	@ 0x13c
   24d2c:	990b      	ldr	r1, [sp, #44]	@ 0x2c
   24d2e:	70e9      	strb	r1, [r5, #3]
   24d30:	980c      	ldr	r0, [sp, #48]	@ 0x30
   24d32:	8028      	strh	r0, [r5, #0]
   24d34:	0e08      	lsrs	r0, r1, #24
   24d36:	71a8      	strb	r0, [r5, #6]
   24d38:	0c08      	lsrs	r0, r1, #16
   24d3a:	7168      	strb	r0, [r5, #5]
   24d3c:	0a08      	lsrs	r0, r1, #8
   24d3e:	7128      	strb	r0, [r5, #4]
   24d40:	a80c      	add	r0, sp, #48	@ 0x30
   24d42:	7880      	ldrb	r0, [r0, #2]
   24d44:	70a8      	strb	r0, [r5, #2]
   24d46:	1de8      	adds	r0, r5, #7
   24d48:	49d2      	ldr	r1, [pc, #840]	@ (25094 <_start+0xb3c>)
   24d4a:	4469      	add	r1, sp
   24d4c:	221e      	movs	r2, #30
   24d4e:	f002 ff82 	bl	27c56 <__aeabi_memcpy>
   24d52:	4ccf      	ldr	r4, [pc, #828]	@ (25090 <_start+0xb38>)
   24d54:	446c      	add	r4, sp
   24d56:	4620      	mov	r0, r4
   24d58:	4629      	mov	r1, r5
   24d5a:	f7fd f909 	bl	21f70 <_ZN18complex_no_dynamic3app17h63ffe376d3bc672fE>
   24d5e:	7820      	ldrb	r0, [r4, #0]
   24d60:	2801      	cmp	r0, #1
   24d62:	d102      	bne.n	24d6a <_start+0x812>
   24d64:	6e31      	ldr	r1, [r6, #96]	@ 0x60
   24d66:	910b      	str	r1, [sp, #44]	@ 0x2c
   24d68:	e017      	b.n	24d9a <_start+0x842>
   24d6a:	49c9      	ldr	r1, [pc, #804]	@ (25090 <_start+0xb38>)
   24d6c:	4469      	add	r1, sp
   24d6e:	78ca      	ldrb	r2, [r1, #3]
   24d70:	ab0c      	add	r3, sp, #48	@ 0x30
   24d72:	709a      	strb	r2, [r3, #2]
   24d74:	784a      	ldrb	r2, [r1, #1]
   24d76:	788c      	ldrb	r4, [r1, #2]
   24d78:	0224      	lsls	r4, r4, #8
   24d7a:	18a2      	adds	r2, r4, r2
   24d7c:	801a      	strh	r2, [r3, #0]
   24d7e:	3108      	adds	r1, #8
   24d80:	6e32      	ldr	r2, [r6, #96]	@ 0x60
   24d82:	920b      	str	r2, [sp, #44]	@ 0x2c
   24d84:	4ac3      	ldr	r2, [pc, #780]	@ (25094 <_start+0xb3c>)
   24d86:	446a      	add	r2, sp
   24d88:	c978      	ldmia	r1!, {r3, r4, r5, r6}
   24d8a:	c278      	stmia	r2!, {r3, r4, r5, r6}
   24d8c:	c978      	ldmia	r1!, {r3, r4, r5, r6}
   24d8e:	c278      	stmia	r2!, {r3, r4, r5, r6}
   24d90:	9e09      	ldr	r6, [sp, #36]	@ 0x24
   24d92:	880b      	ldrh	r3, [r1, #0]
   24d94:	8013      	strh	r3, [r2, #0]
   24d96:	7889      	ldrb	r1, [r1, #2]
   24d98:	7091      	strb	r1, [r2, #2]
   24d9a:	2800      	cmp	r0, #0
   24d9c:	d000      	beq.n	24da0 <_start+0x848>
   24d9e:	e4d3      	b.n	24748 <_start+0x1f0>
   24da0:	ad59      	add	r5, sp, #356	@ 0x164
   24da2:	990b      	ldr	r1, [sp, #44]	@ 0x2c
   24da4:	70e9      	strb	r1, [r5, #3]
   24da6:	980c      	ldr	r0, [sp, #48]	@ 0x30
   24da8:	8028      	strh	r0, [r5, #0]
   24daa:	0e08      	lsrs	r0, r1, #24
   24dac:	71a8      	strb	r0, [r5, #6]
   24dae:	0c08      	lsrs	r0, r1, #16
   24db0:	7168      	strb	r0, [r5, #5]
   24db2:	0a08      	lsrs	r0, r1, #8
   24db4:	7128      	strb	r0, [r5, #4]
   24db6:	a80c      	add	r0, sp, #48	@ 0x30
   24db8:	7880      	ldrb	r0, [r0, #2]
   24dba:	70a8      	strb	r0, [r5, #2]
   24dbc:	1de8      	adds	r0, r5, #7
   24dbe:	49b5      	ldr	r1, [pc, #724]	@ (25094 <_start+0xb3c>)
   24dc0:	4469      	add	r1, sp
   24dc2:	2223      	movs	r2, #35	@ 0x23
   24dc4:	f002 ff47 	bl	27c56 <__aeabi_memcpy>
   24dc8:	4cb1      	ldr	r4, [pc, #708]	@ (25090 <_start+0xb38>)
   24dca:	446c      	add	r4, sp
   24dcc:	4620      	mov	r0, r4
   24dce:	4629      	mov	r1, r5
   24dd0:	f7fd faf4 	bl	223bc <_ZN18complex_no_dynamic3app17h7d856cc117f22352E>
   24dd4:	7824      	ldrb	r4, [r4, #0]
   24dd6:	2c01      	cmp	r4, #1
   24dd8:	d102      	bne.n	24de0 <_start+0x888>
   24dda:	6e30      	ldr	r0, [r6, #96]	@ 0x60
   24ddc:	900b      	str	r0, [sp, #44]	@ 0x2c
   24dde:	e011      	b.n	24e04 <_start+0x8ac>
   24de0:	49ab      	ldr	r1, [pc, #684]	@ (25090 <_start+0xb38>)
   24de2:	4469      	add	r1, sp
   24de4:	78c8      	ldrb	r0, [r1, #3]
   24de6:	aa0c      	add	r2, sp, #48	@ 0x30
   24de8:	7090      	strb	r0, [r2, #2]
   24dea:	7848      	ldrb	r0, [r1, #1]
   24dec:	788b      	ldrb	r3, [r1, #2]
   24dee:	021b      	lsls	r3, r3, #8
   24df0:	1818      	adds	r0, r3, r0
   24df2:	8010      	strh	r0, [r2, #0]
   24df4:	6e30      	ldr	r0, [r6, #96]	@ 0x60
   24df6:	900b      	str	r0, [sp, #44]	@ 0x2c
   24df8:	3108      	adds	r1, #8
   24dfa:	48a6      	ldr	r0, [pc, #664]	@ (25094 <_start+0xb3c>)
   24dfc:	4468      	add	r0, sp
   24dfe:	225c      	movs	r2, #92	@ 0x5c
   24e00:	f002 fdc9 	bl	27996 <__aeabi_memcpy4>
   24e04:	2c00      	cmp	r4, #0
   24e06:	d000      	beq.n	24e0a <_start+0x8b2>
   24e08:	e49e      	b.n	24748 <_start+0x1f0>
   24e0a:	ad64      	add	r5, sp, #400	@ 0x190
   24e0c:	990b      	ldr	r1, [sp, #44]	@ 0x2c
   24e0e:	70e9      	strb	r1, [r5, #3]
   24e10:	980c      	ldr	r0, [sp, #48]	@ 0x30
   24e12:	8028      	strh	r0, [r5, #0]
   24e14:	0e08      	lsrs	r0, r1, #24
   24e16:	71a8      	strb	r0, [r5, #6]
   24e18:	0c08      	lsrs	r0, r1, #16
   24e1a:	7168      	strb	r0, [r5, #5]
   24e1c:	0a08      	lsrs	r0, r1, #8
   24e1e:	7128      	strb	r0, [r5, #4]
   24e20:	a80c      	add	r0, sp, #48	@ 0x30
   24e22:	7880      	ldrb	r0, [r0, #2]
   24e24:	70a8      	strb	r0, [r5, #2]
   24e26:	1de8      	adds	r0, r5, #7
   24e28:	499a      	ldr	r1, [pc, #616]	@ (25094 <_start+0xb3c>)
   24e2a:	4469      	add	r1, sp
   24e2c:	225c      	movs	r2, #92	@ 0x5c
   24e2e:	f002 ff12 	bl	27c56 <__aeabi_memcpy>
   24e32:	4c97      	ldr	r4, [pc, #604]	@ (25090 <_start+0xb38>)
   24e34:	446c      	add	r4, sp
   24e36:	4620      	mov	r0, r4
   24e38:	4629      	mov	r1, r5
   24e3a:	f7fe fae7 	bl	2340c <_ZN18complex_no_dynamic3app17hb636384573e0d97eE>
   24e3e:	7820      	ldrb	r0, [r4, #0]
   24e40:	2801      	cmp	r0, #1
   24e42:	d101      	bne.n	24e48 <_start+0x8f0>
   24e44:	6e31      	ldr	r1, [r6, #96]	@ 0x60
   24e46:	e014      	b.n	24e72 <_start+0x91a>
   24e48:	4991      	ldr	r1, [pc, #580]	@ (25090 <_start+0xb38>)
   24e4a:	4469      	add	r1, sp
   24e4c:	78ca      	ldrb	r2, [r1, #3]
   24e4e:	ab0c      	add	r3, sp, #48	@ 0x30
   24e50:	709a      	strb	r2, [r3, #2]
   24e52:	784a      	ldrb	r2, [r1, #1]
   24e54:	788c      	ldrb	r4, [r1, #2]
   24e56:	0224      	lsls	r4, r4, #8
   24e58:	18a2      	adds	r2, r4, r2
   24e5a:	801a      	strh	r2, [r3, #0]
   24e5c:	3108      	adds	r1, #8
   24e5e:	6e32      	ldr	r2, [r6, #96]	@ 0x60
   24e60:	920b      	str	r2, [sp, #44]	@ 0x2c
   24e62:	4a8c      	ldr	r2, [pc, #560]	@ (25094 <_start+0xb3c>)
   24e64:	446a      	add	r2, sp
   24e66:	c978      	ldmia	r1!, {r3, r4, r5, r6}
   24e68:	c278      	stmia	r2!, {r3, r4, r5, r6}
   24e6a:	c978      	ldmia	r1!, {r3, r4, r5, r6}
   24e6c:	c278      	stmia	r2!, {r3, r4, r5, r6}
   24e6e:	990b      	ldr	r1, [sp, #44]	@ 0x2c
   24e70:	9e09      	ldr	r6, [sp, #36]	@ 0x24
   24e72:	2800      	cmp	r0, #0
   24e74:	d001      	beq.n	24e7a <_start+0x922>
   24e76:	910b      	str	r1, [sp, #44]	@ 0x2c
   24e78:	e466      	b.n	24748 <_start+0x1f0>
   24e7a:	ad7d      	add	r5, sp, #500	@ 0x1f4
   24e7c:	70e9      	strb	r1, [r5, #3]
   24e7e:	980c      	ldr	r0, [sp, #48]	@ 0x30
   24e80:	8028      	strh	r0, [r5, #0]
   24e82:	0e08      	lsrs	r0, r1, #24
   24e84:	71a8      	strb	r0, [r5, #6]
   24e86:	0c08      	lsrs	r0, r1, #16
   24e88:	7168      	strb	r0, [r5, #5]
   24e8a:	0a08      	lsrs	r0, r1, #8
   24e8c:	7128      	strb	r0, [r5, #4]
   24e8e:	a80c      	add	r0, sp, #48	@ 0x30
   24e90:	7880      	ldrb	r0, [r0, #2]
   24e92:	70a8      	strb	r0, [r5, #2]
   24e94:	1de8      	adds	r0, r5, #7
   24e96:	497f      	ldr	r1, [pc, #508]	@ (25094 <_start+0xb3c>)
   24e98:	4469      	add	r1, sp
   24e9a:	2220      	movs	r2, #32
   24e9c:	f002 fedb 	bl	27c56 <__aeabi_memcpy>
   24ea0:	4c7b      	ldr	r4, [pc, #492]	@ (25090 <_start+0xb38>)
   24ea2:	446c      	add	r4, sp
   24ea4:	4620      	mov	r0, r4
   24ea6:	4629      	mov	r1, r5
   24ea8:	f7fb fcb4 	bl	20814 <_ZN18complex_no_dynamic3app17h179b47733fda9aaeE>
   24eac:	7820      	ldrb	r0, [r4, #0]
   24eae:	2801      	cmp	r0, #1
   24eb0:	d101      	bne.n	24eb6 <_start+0x95e>
   24eb2:	6e34      	ldr	r4, [r6, #96]	@ 0x60
   24eb4:	e017      	b.n	24ee6 <_start+0x98e>
   24eb6:	4976      	ldr	r1, [pc, #472]	@ (25090 <_start+0xb38>)
   24eb8:	4469      	add	r1, sp
   24eba:	78ca      	ldrb	r2, [r1, #3]
   24ebc:	ab0c      	add	r3, sp, #48	@ 0x30
   24ebe:	709a      	strb	r2, [r3, #2]
   24ec0:	784a      	ldrb	r2, [r1, #1]
   24ec2:	788c      	ldrb	r4, [r1, #2]
   24ec4:	0224      	lsls	r4, r4, #8
   24ec6:	18a2      	adds	r2, r4, r2
   24ec8:	801a      	strh	r2, [r3, #0]
   24eca:	3108      	adds	r1, #8
   24ecc:	6e32      	ldr	r2, [r6, #96]	@ 0x60
   24ece:	920b      	str	r2, [sp, #44]	@ 0x2c
   24ed0:	4a70      	ldr	r2, [pc, #448]	@ (25094 <_start+0xb3c>)
   24ed2:	446a      	add	r2, sp
   24ed4:	c918      	ldmia	r1!, {r3, r4}
   24ed6:	c218      	stmia	r2!, {r3, r4}
   24ed8:	c938      	ldmia	r1!, {r3, r4, r5}
   24eda:	c238      	stmia	r2!, {r3, r4, r5}
   24edc:	9c0b      	ldr	r4, [sp, #44]	@ 0x2c
   24ede:	880b      	ldrh	r3, [r1, #0]
   24ee0:	8013      	strh	r3, [r2, #0]
   24ee2:	7889      	ldrb	r1, [r1, #2]
   24ee4:	7091      	strb	r1, [r2, #2]
   24ee6:	2800      	cmp	r0, #0
   24ee8:	d000      	beq.n	24eec <_start+0x994>
   24eea:	e660      	b.n	24bae <_start+0x656>
   24eec:	ad87      	add	r5, sp, #540	@ 0x21c
   24eee:	70ec      	strb	r4, [r5, #3]
   24ef0:	980c      	ldr	r0, [sp, #48]	@ 0x30
   24ef2:	8028      	strh	r0, [r5, #0]
   24ef4:	0e20      	lsrs	r0, r4, #24
   24ef6:	71a8      	strb	r0, [r5, #6]
   24ef8:	0c20      	lsrs	r0, r4, #16
   24efa:	7168      	strb	r0, [r5, #5]
   24efc:	0a20      	lsrs	r0, r4, #8
   24efe:	7128      	strb	r0, [r5, #4]
   24f00:	a80c      	add	r0, sp, #48	@ 0x30
   24f02:	7880      	ldrb	r0, [r0, #2]
   24f04:	70a8      	strb	r0, [r5, #2]
   24f06:	1de8      	adds	r0, r5, #7
   24f08:	4962      	ldr	r1, [pc, #392]	@ (25094 <_start+0xb3c>)
   24f0a:	4469      	add	r1, sp
   24f0c:	2217      	movs	r2, #23
   24f0e:	f002 fea2 	bl	27c56 <__aeabi_memcpy>
   24f12:	4c5f      	ldr	r4, [pc, #380]	@ (25090 <_start+0xb38>)
   24f14:	446c      	add	r4, sp
   24f16:	4620      	mov	r0, r4
   24f18:	4629      	mov	r1, r5
   24f1a:	f7fe fe25 	bl	23b68 <_ZN18complex_no_dynamic3app17hd7d3ad96df436dbeE>
   24f1e:	7820      	ldrb	r0, [r4, #0]
   24f20:	2801      	cmp	r0, #1
   24f22:	d102      	bne.n	24f2a <_start+0x9d2>
   24f24:	6e31      	ldr	r1, [r6, #96]	@ 0x60
   24f26:	910b      	str	r1, [sp, #44]	@ 0x2c
   24f28:	e016      	b.n	24f58 <_start+0xa00>
   24f2a:	4959      	ldr	r1, [pc, #356]	@ (25090 <_start+0xb38>)
   24f2c:	4469      	add	r1, sp
   24f2e:	78ca      	ldrb	r2, [r1, #3]
   24f30:	ab0c      	add	r3, sp, #48	@ 0x30
   24f32:	709a      	strb	r2, [r3, #2]
   24f34:	784a      	ldrb	r2, [r1, #1]
   24f36:	788c      	ldrb	r4, [r1, #2]
   24f38:	0224      	lsls	r4, r4, #8
   24f3a:	18a2      	adds	r2, r4, r2
   24f3c:	801a      	strh	r2, [r3, #0]
   24f3e:	3108      	adds	r1, #8
   24f40:	6e32      	ldr	r2, [r6, #96]	@ 0x60
   24f42:	920b      	str	r2, [sp, #44]	@ 0x2c
   24f44:	4a53      	ldr	r2, [pc, #332]	@ (25094 <_start+0xb3c>)
   24f46:	446a      	add	r2, sp
   24f48:	c938      	ldmia	r1!, {r3, r4, r5}
   24f4a:	c238      	stmia	r2!, {r3, r4, r5}
   24f4c:	c938      	ldmia	r1!, {r3, r4, r5}
   24f4e:	c238      	stmia	r2!, {r3, r4, r5}
   24f50:	c938      	ldmia	r1!, {r3, r4, r5}
   24f52:	c238      	stmia	r2!, {r3, r4, r5}
   24f54:	7809      	ldrb	r1, [r1, #0]
   24f56:	7011      	strb	r1, [r2, #0]
   24f58:	2800      	cmp	r0, #0
   24f5a:	d001      	beq.n	24f60 <_start+0xa08>
   24f5c:	f7ff fbf4 	bl	24748 <_start+0x1f0>
   24f60:	ad8f      	add	r5, sp, #572	@ 0x23c
   24f62:	990b      	ldr	r1, [sp, #44]	@ 0x2c
   24f64:	70e9      	strb	r1, [r5, #3]
   24f66:	980c      	ldr	r0, [sp, #48]	@ 0x30
   24f68:	8028      	strh	r0, [r5, #0]
   24f6a:	0e08      	lsrs	r0, r1, #24
   24f6c:	71a8      	strb	r0, [r5, #6]
   24f6e:	0c08      	lsrs	r0, r1, #16
   24f70:	7168      	strb	r0, [r5, #5]
   24f72:	0a08      	lsrs	r0, r1, #8
   24f74:	7128      	strb	r0, [r5, #4]
   24f76:	a80c      	add	r0, sp, #48	@ 0x30
   24f78:	7880      	ldrb	r0, [r0, #2]
   24f7a:	70a8      	strb	r0, [r5, #2]
   24f7c:	1de8      	adds	r0, r5, #7
   24f7e:	4945      	ldr	r1, [pc, #276]	@ (25094 <_start+0xb3c>)
   24f80:	4469      	add	r1, sp
   24f82:	2225      	movs	r2, #37	@ 0x25
   24f84:	f002 fe67 	bl	27c56 <__aeabi_memcpy>
   24f88:	4c41      	ldr	r4, [pc, #260]	@ (25090 <_start+0xb38>)
   24f8a:	446c      	add	r4, sp
   24f8c:	4620      	mov	r0, r4
   24f8e:	4629      	mov	r1, r5
   24f90:	f7fd fac8 	bl	22524 <_ZN18complex_no_dynamic3app17h8364862a0a2019e9E>
   24f94:	7820      	ldrb	r0, [r4, #0]
   24f96:	2801      	cmp	r0, #1
   24f98:	d102      	bne.n	24fa0 <_start+0xa48>
   24f9a:	6e31      	ldr	r1, [r6, #96]	@ 0x60
   24f9c:	910b      	str	r1, [sp, #44]	@ 0x2c
   24f9e:	e014      	b.n	24fca <_start+0xa72>
   24fa0:	493b      	ldr	r1, [pc, #236]	@ (25090 <_start+0xb38>)
   24fa2:	4469      	add	r1, sp
   24fa4:	78ca      	ldrb	r2, [r1, #3]
   24fa6:	ab0c      	add	r3, sp, #48	@ 0x30
   24fa8:	709a      	strb	r2, [r3, #2]
   24faa:	784a      	ldrb	r2, [r1, #1]
   24fac:	788c      	ldrb	r4, [r1, #2]
   24fae:	0224      	lsls	r4, r4, #8
   24fb0:	18a2      	adds	r2, r4, r2
   24fb2:	801a      	strh	r2, [r3, #0]
   24fb4:	3108      	adds	r1, #8
   24fb6:	6e32      	ldr	r2, [r6, #96]	@ 0x60
   24fb8:	920b      	str	r2, [sp, #44]	@ 0x2c
   24fba:	4a36      	ldr	r2, [pc, #216]	@ (25094 <_start+0xb3c>)
   24fbc:	446a      	add	r2, sp
   24fbe:	c938      	ldmia	r1!, {r3, r4, r5}
   24fc0:	c238      	stmia	r2!, {r3, r4, r5}
   24fc2:	c978      	ldmia	r1!, {r3, r4, r5, r6}
   24fc4:	c278      	stmia	r2!, {r3, r4, r5, r6}
   24fc6:	8809      	ldrh	r1, [r1, #0]
   24fc8:	8011      	strh	r1, [r2, #0]
   24fca:	2800      	cmp	r0, #0
   24fcc:	d001      	beq.n	24fd2 <_start+0xa7a>
   24fce:	f7ff fbbb 	bl	24748 <_start+0x1f0>
   24fd2:	ad9a      	add	r5, sp, #616	@ 0x268
   24fd4:	990b      	ldr	r1, [sp, #44]	@ 0x2c
   24fd6:	70e9      	strb	r1, [r5, #3]
   24fd8:	980c      	ldr	r0, [sp, #48]	@ 0x30
   24fda:	8028      	strh	r0, [r5, #0]
   24fdc:	0e08      	lsrs	r0, r1, #24
   24fde:	71a8      	strb	r0, [r5, #6]
   24fe0:	0c08      	lsrs	r0, r1, #16
   24fe2:	7168      	strb	r0, [r5, #5]
   24fe4:	0a08      	lsrs	r0, r1, #8
   24fe6:	7128      	strb	r0, [r5, #4]
   24fe8:	a80c      	add	r0, sp, #48	@ 0x30
   24fea:	7880      	ldrb	r0, [r0, #2]
   24fec:	70a8      	strb	r0, [r5, #2]
   24fee:	1de8      	adds	r0, r5, #7
   24ff0:	4928      	ldr	r1, [pc, #160]	@ (25094 <_start+0xb3c>)
   24ff2:	4469      	add	r1, sp
   24ff4:	221e      	movs	r2, #30
   24ff6:	f002 fe2e 	bl	27c56 <__aeabi_memcpy>
   24ffa:	4c25      	ldr	r4, [pc, #148]	@ (25090 <_start+0xb38>)
   24ffc:	446c      	add	r4, sp
   24ffe:	4620      	mov	r0, r4
   25000:	4629      	mov	r1, r5
   25002:	f7fc f975 	bl	212f0 <_ZN18complex_no_dynamic3app17h3d7d2db2d345bc78E>
   25006:	7820      	ldrb	r0, [r4, #0]
   25008:	2801      	cmp	r0, #1
   2500a:	d107      	bne.n	2501c <_start+0xac4>
   2500c:	9909      	ldr	r1, [sp, #36]	@ 0x24
   2500e:	6e09      	ldr	r1, [r1, #96]	@ 0x60
   25010:	910b      	str	r1, [sp, #44]	@ 0x2c
   25012:	e017      	b.n	25044 <_start+0xaec>
   25014:	00001404 	.word	0x00001404
   25018:	000013a8 	.word	0x000013a8
   2501c:	491c      	ldr	r1, [pc, #112]	@ (25090 <_start+0xb38>)
   2501e:	4469      	add	r1, sp
   25020:	78ca      	ldrb	r2, [r1, #3]
   25022:	ab0c      	add	r3, sp, #48	@ 0x30
   25024:	709a      	strb	r2, [r3, #2]
   25026:	784a      	ldrb	r2, [r1, #1]
   25028:	788c      	ldrb	r4, [r1, #2]
   2502a:	0224      	lsls	r4, r4, #8
   2502c:	18a2      	adds	r2, r4, r2
   2502e:	801a      	strh	r2, [r3, #0]
   25030:	3108      	adds	r1, #8
   25032:	9a09      	ldr	r2, [sp, #36]	@ 0x24
   25034:	6e12      	ldr	r2, [r2, #96]	@ 0x60
   25036:	920b      	str	r2, [sp, #44]	@ 0x2c
   25038:	4a16      	ldr	r2, [pc, #88]	@ (25094 <_start+0xb3c>)
   2503a:	446a      	add	r2, sp
   2503c:	c978      	ldmia	r1!, {r3, r4, r5, r6}
   2503e:	c278      	stmia	r2!, {r3, r4, r5, r6}
   25040:	7809      	ldrb	r1, [r1, #0]
   25042:	7011      	strb	r1, [r2, #0]
   25044:	2800      	cmp	r0, #0
   25046:	d001      	beq.n	2504c <_start+0xaf4>
   25048:	f7ff fb7e 	bl	24748 <_start+0x1f0>
   2504c:	ada4      	add	r5, sp, #656	@ 0x290
   2504e:	990b      	ldr	r1, [sp, #44]	@ 0x2c
   25050:	70e9      	strb	r1, [r5, #3]
   25052:	980c      	ldr	r0, [sp, #48]	@ 0x30
   25054:	8028      	strh	r0, [r5, #0]
   25056:	0e08      	lsrs	r0, r1, #24
   25058:	71a8      	strb	r0, [r5, #6]
   2505a:	0c08      	lsrs	r0, r1, #16
   2505c:	7168      	strb	r0, [r5, #5]
   2505e:	0a08      	lsrs	r0, r1, #8
   25060:	7128      	strb	r0, [r5, #4]
   25062:	a80c      	add	r0, sp, #48	@ 0x30
   25064:	7880      	ldrb	r0, [r0, #2]
   25066:	70a8      	strb	r0, [r5, #2]
   25068:	1de8      	adds	r0, r5, #7
   2506a:	490a      	ldr	r1, [pc, #40]	@ (25094 <_start+0xb3c>)
   2506c:	4469      	add	r1, sp
   2506e:	2211      	movs	r2, #17
   25070:	f002 fdf1 	bl	27c56 <__aeabi_memcpy>
   25074:	4c06      	ldr	r4, [pc, #24]	@ (25090 <_start+0xb38>)
   25076:	446c      	add	r4, sp
   25078:	4620      	mov	r0, r4
   2507a:	4629      	mov	r1, r5
   2507c:	f7fd fe96 	bl	22dac <_ZN18complex_no_dynamic3app17ha0f81c7cec9b4e8eE>
   25080:	7820      	ldrb	r0, [r4, #0]
   25082:	2801      	cmp	r0, #1
   25084:	d108      	bne.n	25098 <_start+0xb40>
   25086:	9909      	ldr	r1, [sp, #36]	@ 0x24
   25088:	6e09      	ldr	r1, [r1, #96]	@ 0x60
   2508a:	910b      	str	r1, [sp, #44]	@ 0x2c
   2508c:	e01e      	b.n	250cc <_start+0xb74>
   2508e:	46c0      	nop			@ (mov r8, r8)
   25090:	00001404 	.word	0x00001404
   25094:	000013a8 	.word	0x000013a8
   25098:	49f3      	ldr	r1, [pc, #972]	@ (25468 <_start+0xf10>)
   2509a:	4469      	add	r1, sp
   2509c:	78ca      	ldrb	r2, [r1, #3]
   2509e:	ab0c      	add	r3, sp, #48	@ 0x30
   250a0:	709a      	strb	r2, [r3, #2]
   250a2:	784a      	ldrb	r2, [r1, #1]
   250a4:	788c      	ldrb	r4, [r1, #2]
   250a6:	0224      	lsls	r4, r4, #8
   250a8:	18a2      	adds	r2, r4, r2
   250aa:	801a      	strh	r2, [r3, #0]
   250ac:	3108      	adds	r1, #8
   250ae:	9a09      	ldr	r2, [sp, #36]	@ 0x24
   250b0:	6e12      	ldr	r2, [r2, #96]	@ 0x60
   250b2:	920b      	str	r2, [sp, #44]	@ 0x2c
   250b4:	4aed      	ldr	r2, [pc, #948]	@ (2546c <_start+0xf14>)
   250b6:	446a      	add	r2, sp
   250b8:	c938      	ldmia	r1!, {r3, r4, r5}
   250ba:	c238      	stmia	r2!, {r3, r4, r5}
   250bc:	c978      	ldmia	r1!, {r3, r4, r5, r6}
   250be:	c278      	stmia	r2!, {r3, r4, r5, r6}
   250c0:	c978      	ldmia	r1!, {r3, r4, r5, r6}
   250c2:	c278      	stmia	r2!, {r3, r4, r5, r6}
   250c4:	880b      	ldrh	r3, [r1, #0]
   250c6:	8013      	strh	r3, [r2, #0]
   250c8:	7889      	ldrb	r1, [r1, #2]
   250ca:	7091      	strb	r1, [r2, #2]
   250cc:	2800      	cmp	r0, #0
   250ce:	d001      	beq.n	250d4 <_start+0xb7c>
   250d0:	f7ff fb3a 	bl	24748 <_start+0x1f0>
   250d4:	adaa      	add	r5, sp, #680	@ 0x2a8
   250d6:	990b      	ldr	r1, [sp, #44]	@ 0x2c
   250d8:	70e9      	strb	r1, [r5, #3]
   250da:	980c      	ldr	r0, [sp, #48]	@ 0x30
   250dc:	8028      	strh	r0, [r5, #0]
   250de:	0e08      	lsrs	r0, r1, #24
   250e0:	71a8      	strb	r0, [r5, #6]
   250e2:	0c08      	lsrs	r0, r1, #16
   250e4:	7168      	strb	r0, [r5, #5]
   250e6:	0a08      	lsrs	r0, r1, #8
   250e8:	7128      	strb	r0, [r5, #4]
   250ea:	a80c      	add	r0, sp, #48	@ 0x30
   250ec:	7880      	ldrb	r0, [r0, #2]
   250ee:	70a8      	strb	r0, [r5, #2]
   250f0:	1de8      	adds	r0, r5, #7
   250f2:	49de      	ldr	r1, [pc, #888]	@ (2546c <_start+0xf14>)
   250f4:	4469      	add	r1, sp
   250f6:	222f      	movs	r2, #47	@ 0x2f
   250f8:	f002 fdad 	bl	27c56 <__aeabi_memcpy>
   250fc:	4cda      	ldr	r4, [pc, #872]	@ (25468 <_start+0xf10>)
   250fe:	446c      	add	r4, sp
   25100:	4620      	mov	r0, r4
   25102:	4629      	mov	r1, r5
   25104:	f7fc fd6e 	bl	21be4 <_ZN18complex_no_dynamic3app17h56b709fdb010a657E>
   25108:	7820      	ldrb	r0, [r4, #0]
   2510a:	2801      	cmp	r0, #1
   2510c:	d103      	bne.n	25116 <_start+0xbbe>
   2510e:	9909      	ldr	r1, [sp, #36]	@ 0x24
   25110:	6e09      	ldr	r1, [r1, #96]	@ 0x60
   25112:	910b      	str	r1, [sp, #44]	@ 0x2c
   25114:	e017      	b.n	25146 <_start+0xbee>
   25116:	49d4      	ldr	r1, [pc, #848]	@ (25468 <_start+0xf10>)
   25118:	4469      	add	r1, sp
   2511a:	78ca      	ldrb	r2, [r1, #3]
   2511c:	ab0c      	add	r3, sp, #48	@ 0x30
   2511e:	709a      	strb	r2, [r3, #2]
   25120:	784a      	ldrb	r2, [r1, #1]
   25122:	788c      	ldrb	r4, [r1, #2]
   25124:	0224      	lsls	r4, r4, #8
   25126:	18a2      	adds	r2, r4, r2
   25128:	801a      	strh	r2, [r3, #0]
   2512a:	3108      	adds	r1, #8
   2512c:	9a09      	ldr	r2, [sp, #36]	@ 0x24
   2512e:	6e12      	ldr	r2, [r2, #96]	@ 0x60
   25130:	920b      	str	r2, [sp, #44]	@ 0x2c
   25132:	4ace      	ldr	r2, [pc, #824]	@ (2546c <_start+0xf14>)
   25134:	446a      	add	r2, sp
   25136:	c938      	ldmia	r1!, {r3, r4, r5}
   25138:	c238      	stmia	r2!, {r3, r4, r5}
   2513a:	c978      	ldmia	r1!, {r3, r4, r5, r6}
   2513c:	c278      	stmia	r2!, {r3, r4, r5, r6}
   2513e:	c978      	ldmia	r1!, {r3, r4, r5, r6}
   25140:	c278      	stmia	r2!, {r3, r4, r5, r6}
   25142:	7809      	ldrb	r1, [r1, #0]
   25144:	7011      	strb	r1, [r2, #0]
   25146:	2800      	cmp	r0, #0
   25148:	d001      	beq.n	2514e <_start+0xbf6>
   2514a:	f7ff fafd 	bl	24748 <_start+0x1f0>
   2514e:	adb8      	add	r5, sp, #736	@ 0x2e0
   25150:	990b      	ldr	r1, [sp, #44]	@ 0x2c
   25152:	70e9      	strb	r1, [r5, #3]
   25154:	980c      	ldr	r0, [sp, #48]	@ 0x30
   25156:	8028      	strh	r0, [r5, #0]
   25158:	0e08      	lsrs	r0, r1, #24
   2515a:	71a8      	strb	r0, [r5, #6]
   2515c:	0c08      	lsrs	r0, r1, #16
   2515e:	7168      	strb	r0, [r5, #5]
   25160:	0a08      	lsrs	r0, r1, #8
   25162:	7128      	strb	r0, [r5, #4]
   25164:	a80c      	add	r0, sp, #48	@ 0x30
   25166:	7880      	ldrb	r0, [r0, #2]
   25168:	70a8      	strb	r0, [r5, #2]
   2516a:	1de8      	adds	r0, r5, #7
   2516c:	49bf      	ldr	r1, [pc, #764]	@ (2546c <_start+0xf14>)
   2516e:	4469      	add	r1, sp
   25170:	222d      	movs	r2, #45	@ 0x2d
   25172:	f002 fd70 	bl	27c56 <__aeabi_memcpy>
   25176:	4cbc      	ldr	r4, [pc, #752]	@ (25468 <_start+0xf10>)
   25178:	446c      	add	r4, sp
   2517a:	4620      	mov	r0, r4
   2517c:	4629      	mov	r1, r5
   2517e:	f7fb fd1f 	bl	20bc0 <_ZN18complex_no_dynamic3app17h285ed38dcdff4d63E>
   25182:	7820      	ldrb	r0, [r4, #0]
   25184:	2801      	cmp	r0, #1
   25186:	d103      	bne.n	25190 <_start+0xc38>
   25188:	9909      	ldr	r1, [sp, #36]	@ 0x24
   2518a:	6e09      	ldr	r1, [r1, #96]	@ 0x60
   2518c:	910b      	str	r1, [sp, #44]	@ 0x2c
   2518e:	e019      	b.n	251c4 <_start+0xc6c>
   25190:	49b5      	ldr	r1, [pc, #724]	@ (25468 <_start+0xf10>)
   25192:	4469      	add	r1, sp
   25194:	78ca      	ldrb	r2, [r1, #3]
   25196:	ab0c      	add	r3, sp, #48	@ 0x30
   25198:	709a      	strb	r2, [r3, #2]
   2519a:	784a      	ldrb	r2, [r1, #1]
   2519c:	788c      	ldrb	r4, [r1, #2]
   2519e:	0224      	lsls	r4, r4, #8
   251a0:	18a2      	adds	r2, r4, r2
   251a2:	801a      	strh	r2, [r3, #0]
   251a4:	3108      	adds	r1, #8
   251a6:	9a09      	ldr	r2, [sp, #36]	@ 0x24
   251a8:	6e12      	ldr	r2, [r2, #96]	@ 0x60
   251aa:	920b      	str	r2, [sp, #44]	@ 0x2c
   251ac:	4aaf      	ldr	r2, [pc, #700]	@ (2546c <_start+0xf14>)
   251ae:	446a      	add	r2, sp
   251b0:	c938      	ldmia	r1!, {r3, r4, r5}
   251b2:	c238      	stmia	r2!, {r3, r4, r5}
   251b4:	c938      	ldmia	r1!, {r3, r4, r5}
   251b6:	c238      	stmia	r2!, {r3, r4, r5}
   251b8:	c938      	ldmia	r1!, {r3, r4, r5}
   251ba:	c238      	stmia	r2!, {r3, r4, r5}
   251bc:	880b      	ldrh	r3, [r1, #0]
   251be:	8013      	strh	r3, [r2, #0]
   251c0:	7889      	ldrb	r1, [r1, #2]
   251c2:	7091      	strb	r1, [r2, #2]
   251c4:	2800      	cmp	r0, #0
   251c6:	d001      	beq.n	251cc <_start+0xc74>
   251c8:	f7ff fabe 	bl	24748 <_start+0x1f0>
   251cc:	adc5      	add	r5, sp, #788	@ 0x314
   251ce:	990b      	ldr	r1, [sp, #44]	@ 0x2c
   251d0:	70e9      	strb	r1, [r5, #3]
   251d2:	980c      	ldr	r0, [sp, #48]	@ 0x30
   251d4:	8028      	strh	r0, [r5, #0]
   251d6:	0e08      	lsrs	r0, r1, #24
   251d8:	71a8      	strb	r0, [r5, #6]
   251da:	0c08      	lsrs	r0, r1, #16
   251dc:	7168      	strb	r0, [r5, #5]
   251de:	0a08      	lsrs	r0, r1, #8
   251e0:	7128      	strb	r0, [r5, #4]
   251e2:	a80c      	add	r0, sp, #48	@ 0x30
   251e4:	7880      	ldrb	r0, [r0, #2]
   251e6:	70a8      	strb	r0, [r5, #2]
   251e8:	1de8      	adds	r0, r5, #7
   251ea:	49a0      	ldr	r1, [pc, #640]	@ (2546c <_start+0xf14>)
   251ec:	4469      	add	r1, sp
   251ee:	2227      	movs	r2, #39	@ 0x27
   251f0:	f002 fd31 	bl	27c56 <__aeabi_memcpy>
   251f4:	4c9c      	ldr	r4, [pc, #624]	@ (25468 <_start+0xf10>)
   251f6:	446c      	add	r4, sp
   251f8:	4620      	mov	r0, r4
   251fa:	4629      	mov	r1, r5
   251fc:	f7fb ff06 	bl	2100c <_ZN18complex_no_dynamic3app17h35ba38258a5b8e04E>
   25200:	7820      	ldrb	r0, [r4, #0]
   25202:	2801      	cmp	r0, #1
   25204:	d103      	bne.n	2520e <_start+0xcb6>
   25206:	9909      	ldr	r1, [sp, #36]	@ 0x24
   25208:	6e09      	ldr	r1, [r1, #96]	@ 0x60
   2520a:	910b      	str	r1, [sp, #44]	@ 0x2c
   2520c:	e017      	b.n	2523e <_start+0xce6>
   2520e:	4996      	ldr	r1, [pc, #600]	@ (25468 <_start+0xf10>)
   25210:	4469      	add	r1, sp
   25212:	78ca      	ldrb	r2, [r1, #3]
   25214:	ab0c      	add	r3, sp, #48	@ 0x30
   25216:	709a      	strb	r2, [r3, #2]
   25218:	784a      	ldrb	r2, [r1, #1]
   2521a:	788c      	ldrb	r4, [r1, #2]
   2521c:	0224      	lsls	r4, r4, #8
   2521e:	18a2      	adds	r2, r4, r2
   25220:	801a      	strh	r2, [r3, #0]
   25222:	3108      	adds	r1, #8
   25224:	9a09      	ldr	r2, [sp, #36]	@ 0x24
   25226:	6e12      	ldr	r2, [r2, #96]	@ 0x60
   25228:	920b      	str	r2, [sp, #44]	@ 0x2c
   2522a:	4a90      	ldr	r2, [pc, #576]	@ (2546c <_start+0xf14>)
   2522c:	446a      	add	r2, sp
   2522e:	c978      	ldmia	r1!, {r3, r4, r5, r6}
   25230:	c278      	stmia	r2!, {r3, r4, r5, r6}
   25232:	c978      	ldmia	r1!, {r3, r4, r5, r6}
   25234:	c278      	stmia	r2!, {r3, r4, r5, r6}
   25236:	c978      	ldmia	r1!, {r3, r4, r5, r6}
   25238:	c278      	stmia	r2!, {r3, r4, r5, r6}
   2523a:	7809      	ldrb	r1, [r1, #0]
   2523c:	7011      	strb	r1, [r2, #0]
   2523e:	2800      	cmp	r0, #0
   25240:	d001      	beq.n	25246 <_start+0xcee>
   25242:	f7ff fa81 	bl	24748 <_start+0x1f0>
   25246:	add1      	add	r5, sp, #836	@ 0x344
   25248:	990b      	ldr	r1, [sp, #44]	@ 0x2c
   2524a:	70e9      	strb	r1, [r5, #3]
   2524c:	980c      	ldr	r0, [sp, #48]	@ 0x30
   2524e:	8028      	strh	r0, [r5, #0]
   25250:	0e08      	lsrs	r0, r1, #24
   25252:	71a8      	strb	r0, [r5, #6]
   25254:	0c08      	lsrs	r0, r1, #16
   25256:	7168      	strb	r0, [r5, #5]
   25258:	0a08      	lsrs	r0, r1, #8
   2525a:	7128      	strb	r0, [r5, #4]
   2525c:	a80c      	add	r0, sp, #48	@ 0x30
   2525e:	7880      	ldrb	r0, [r0, #2]
   25260:	70a8      	strb	r0, [r5, #2]
   25262:	1de8      	adds	r0, r5, #7
   25264:	4981      	ldr	r1, [pc, #516]	@ (2546c <_start+0xf14>)
   25266:	4469      	add	r1, sp
   25268:	2231      	movs	r2, #49	@ 0x31
   2526a:	f002 fcf4 	bl	27c56 <__aeabi_memcpy>
   2526e:	4c7e      	ldr	r4, [pc, #504]	@ (25468 <_start+0xf10>)
   25270:	446c      	add	r4, sp
   25272:	4620      	mov	r0, r4
   25274:	4629      	mov	r1, r5
   25276:	f7fb fb93 	bl	209a0 <_ZN18complex_no_dynamic3app17h18d28e291b71a9a2E>
   2527a:	7820      	ldrb	r0, [r4, #0]
   2527c:	2801      	cmp	r0, #1
   2527e:	d103      	bne.n	25288 <_start+0xd30>
   25280:	9909      	ldr	r1, [sp, #36]	@ 0x24
   25282:	6e09      	ldr	r1, [r1, #96]	@ 0x60
   25284:	910b      	str	r1, [sp, #44]	@ 0x2c
   25286:	e017      	b.n	252b8 <_start+0xd60>
   25288:	4977      	ldr	r1, [pc, #476]	@ (25468 <_start+0xf10>)
   2528a:	4469      	add	r1, sp
   2528c:	78ca      	ldrb	r2, [r1, #3]
   2528e:	ab0c      	add	r3, sp, #48	@ 0x30
   25290:	709a      	strb	r2, [r3, #2]
   25292:	784a      	ldrb	r2, [r1, #1]
   25294:	788c      	ldrb	r4, [r1, #2]
   25296:	0224      	lsls	r4, r4, #8
   25298:	18a2      	adds	r2, r4, r2
   2529a:	801a      	strh	r2, [r3, #0]
   2529c:	3108      	adds	r1, #8
   2529e:	9a09      	ldr	r2, [sp, #36]	@ 0x24
   252a0:	6e12      	ldr	r2, [r2, #96]	@ 0x60
   252a2:	920b      	str	r2, [sp, #44]	@ 0x2c
   252a4:	4a71      	ldr	r2, [pc, #452]	@ (2546c <_start+0xf14>)
   252a6:	446a      	add	r2, sp
   252a8:	c938      	ldmia	r1!, {r3, r4, r5}
   252aa:	c238      	stmia	r2!, {r3, r4, r5}
   252ac:	c978      	ldmia	r1!, {r3, r4, r5, r6}
   252ae:	c278      	stmia	r2!, {r3, r4, r5, r6}
   252b0:	c978      	ldmia	r1!, {r3, r4, r5, r6}
   252b2:	c278      	stmia	r2!, {r3, r4, r5, r6}
   252b4:	7809      	ldrb	r1, [r1, #0]
   252b6:	7011      	strb	r1, [r2, #0]
   252b8:	2800      	cmp	r0, #0
   252ba:	d001      	beq.n	252c0 <_start+0xd68>
   252bc:	f7ff fa44 	bl	24748 <_start+0x1f0>
   252c0:	addf      	add	r5, sp, #892	@ 0x37c
   252c2:	990b      	ldr	r1, [sp, #44]	@ 0x2c
   252c4:	70e9      	strb	r1, [r5, #3]
   252c6:	980c      	ldr	r0, [sp, #48]	@ 0x30
   252c8:	8028      	strh	r0, [r5, #0]
   252ca:	0e08      	lsrs	r0, r1, #24
   252cc:	71a8      	strb	r0, [r5, #6]
   252ce:	0c08      	lsrs	r0, r1, #16
   252d0:	7168      	strb	r0, [r5, #5]
   252d2:	0a08      	lsrs	r0, r1, #8
   252d4:	7128      	strb	r0, [r5, #4]
   252d6:	a80c      	add	r0, sp, #48	@ 0x30
   252d8:	7880      	ldrb	r0, [r0, #2]
   252da:	70a8      	strb	r0, [r5, #2]
   252dc:	1de8      	adds	r0, r5, #7
   252de:	4963      	ldr	r1, [pc, #396]	@ (2546c <_start+0xf14>)
   252e0:	4469      	add	r1, sp
   252e2:	222d      	movs	r2, #45	@ 0x2d
   252e4:	f002 fcb7 	bl	27c56 <__aeabi_memcpy>
   252e8:	4c5f      	ldr	r4, [pc, #380]	@ (25468 <_start+0xf10>)
   252ea:	446c      	add	r4, sp
   252ec:	4620      	mov	r0, r4
   252ee:	4629      	mov	r1, r5
   252f0:	f7fe fcee 	bl	23cd0 <_ZN18complex_no_dynamic3app17hd911c7c84bedadf9E>
   252f4:	7820      	ldrb	r0, [r4, #0]
   252f6:	2801      	cmp	r0, #1
   252f8:	d103      	bne.n	25302 <_start+0xdaa>
   252fa:	9909      	ldr	r1, [sp, #36]	@ 0x24
   252fc:	6e09      	ldr	r1, [r1, #96]	@ 0x60
   252fe:	910b      	str	r1, [sp, #44]	@ 0x2c
   25300:	e015      	b.n	2532e <_start+0xdd6>
   25302:	4959      	ldr	r1, [pc, #356]	@ (25468 <_start+0xf10>)
   25304:	4469      	add	r1, sp
   25306:	78ca      	ldrb	r2, [r1, #3]
   25308:	ab0c      	add	r3, sp, #48	@ 0x30
   2530a:	709a      	strb	r2, [r3, #2]
   2530c:	784a      	ldrb	r2, [r1, #1]
   2530e:	788c      	ldrb	r4, [r1, #2]
   25310:	0224      	lsls	r4, r4, #8
   25312:	18a2      	adds	r2, r4, r2
   25314:	801a      	strh	r2, [r3, #0]
   25316:	3108      	adds	r1, #8
   25318:	9a09      	ldr	r2, [sp, #36]	@ 0x24
   2531a:	6e12      	ldr	r2, [r2, #96]	@ 0x60
   2531c:	920b      	str	r2, [sp, #44]	@ 0x2c
   2531e:	4a53      	ldr	r2, [pc, #332]	@ (2546c <_start+0xf14>)
   25320:	446a      	add	r2, sp
   25322:	c978      	ldmia	r1!, {r3, r4, r5, r6}
   25324:	c278      	stmia	r2!, {r3, r4, r5, r6}
   25326:	880b      	ldrh	r3, [r1, #0]
   25328:	8013      	strh	r3, [r2, #0]
   2532a:	7889      	ldrb	r1, [r1, #2]
   2532c:	7091      	strb	r1, [r2, #2]
   2532e:	2800      	cmp	r0, #0
   25330:	d001      	beq.n	25336 <_start+0xdde>
   25332:	f7ff fa09 	bl	24748 <_start+0x1f0>
   25336:	adec      	add	r5, sp, #944	@ 0x3b0
   25338:	990b      	ldr	r1, [sp, #44]	@ 0x2c
   2533a:	70e9      	strb	r1, [r5, #3]
   2533c:	980c      	ldr	r0, [sp, #48]	@ 0x30
   2533e:	8028      	strh	r0, [r5, #0]
   25340:	0e08      	lsrs	r0, r1, #24
   25342:	71a8      	strb	r0, [r5, #6]
   25344:	0c08      	lsrs	r0, r1, #16
   25346:	7168      	strb	r0, [r5, #5]
   25348:	0a08      	lsrs	r0, r1, #8
   2534a:	7128      	strb	r0, [r5, #4]
   2534c:	a80c      	add	r0, sp, #48	@ 0x30
   2534e:	7880      	ldrb	r0, [r0, #2]
   25350:	70a8      	strb	r0, [r5, #2]
   25352:	1de8      	adds	r0, r5, #7
   25354:	4945      	ldr	r1, [pc, #276]	@ (2546c <_start+0xf14>)
   25356:	4469      	add	r1, sp
   25358:	2213      	movs	r2, #19
   2535a:	f002 fc7c 	bl	27c56 <__aeabi_memcpy>
   2535e:	4c42      	ldr	r4, [pc, #264]	@ (25468 <_start+0xf10>)
   25360:	446c      	add	r4, sp
   25362:	4620      	mov	r0, r4
   25364:	4629      	mov	r1, r5
   25366:	f7fc ff19 	bl	2219c <_ZN18complex_no_dynamic3app17h77df6bdb1dfbfc35E>
   2536a:	7824      	ldrb	r4, [r4, #0]
   2536c:	2c01      	cmp	r4, #1
   2536e:	d103      	bne.n	25378 <_start+0xe20>
   25370:	9809      	ldr	r0, [sp, #36]	@ 0x24
   25372:	6e00      	ldr	r0, [r0, #96]	@ 0x60
   25374:	900b      	str	r0, [sp, #44]	@ 0x2c
   25376:	e012      	b.n	2539e <_start+0xe46>
   25378:	493b      	ldr	r1, [pc, #236]	@ (25468 <_start+0xf10>)
   2537a:	4469      	add	r1, sp
   2537c:	78c8      	ldrb	r0, [r1, #3]
   2537e:	aa0c      	add	r2, sp, #48	@ 0x30
   25380:	7090      	strb	r0, [r2, #2]
   25382:	7848      	ldrb	r0, [r1, #1]
   25384:	788b      	ldrb	r3, [r1, #2]
   25386:	021b      	lsls	r3, r3, #8
   25388:	1818      	adds	r0, r3, r0
   2538a:	8010      	strh	r0, [r2, #0]
   2538c:	9809      	ldr	r0, [sp, #36]	@ 0x24
   2538e:	6e00      	ldr	r0, [r0, #96]	@ 0x60
   25390:	900b      	str	r0, [sp, #44]	@ 0x2c
   25392:	3108      	adds	r1, #8
   25394:	4835      	ldr	r0, [pc, #212]	@ (2546c <_start+0xf14>)
   25396:	4468      	add	r0, sp
   25398:	2249      	movs	r2, #73	@ 0x49
   2539a:	f002 fafc 	bl	27996 <__aeabi_memcpy4>
   2539e:	2c00      	cmp	r4, #0
   253a0:	d001      	beq.n	253a6 <_start+0xe4e>
   253a2:	f7ff f9d1 	bl	24748 <_start+0x1f0>
   253a6:	adf3      	add	r5, sp, #972	@ 0x3cc
   253a8:	990b      	ldr	r1, [sp, #44]	@ 0x2c
   253aa:	70e9      	strb	r1, [r5, #3]
   253ac:	980c      	ldr	r0, [sp, #48]	@ 0x30
   253ae:	8028      	strh	r0, [r5, #0]
   253b0:	0e08      	lsrs	r0, r1, #24
   253b2:	71a8      	strb	r0, [r5, #6]
   253b4:	0c08      	lsrs	r0, r1, #16
   253b6:	7168      	strb	r0, [r5, #5]
   253b8:	0a08      	lsrs	r0, r1, #8
   253ba:	7128      	strb	r0, [r5, #4]
   253bc:	a80c      	add	r0, sp, #48	@ 0x30
   253be:	7880      	ldrb	r0, [r0, #2]
   253c0:	70a8      	strb	r0, [r5, #2]
   253c2:	1de8      	adds	r0, r5, #7
   253c4:	4929      	ldr	r1, [pc, #164]	@ (2546c <_start+0xf14>)
   253c6:	4469      	add	r1, sp
   253c8:	2249      	movs	r2, #73	@ 0x49
   253ca:	f002 fc44 	bl	27c56 <__aeabi_memcpy>
   253ce:	4c26      	ldr	r4, [pc, #152]	@ (25468 <_start+0xf10>)
   253d0:	446c      	add	r4, sp
   253d2:	4620      	mov	r0, r4
   253d4:	4629      	mov	r1, r5
   253d6:	f7fa fff5 	bl	203c4 <_ZN18complex_no_dynamic3app17h0e3cbfe00dda8d8cE>
   253da:	7820      	ldrb	r0, [r4, #0]
   253dc:	2801      	cmp	r0, #1
   253de:	d103      	bne.n	253e8 <_start+0xe90>
   253e0:	9909      	ldr	r1, [sp, #36]	@ 0x24
   253e2:	6e09      	ldr	r1, [r1, #96]	@ 0x60
   253e4:	910b      	str	r1, [sp, #44]	@ 0x2c
   253e6:	e019      	b.n	2541c <_start+0xec4>
   253e8:	491f      	ldr	r1, [pc, #124]	@ (25468 <_start+0xf10>)
   253ea:	4469      	add	r1, sp
   253ec:	78ca      	ldrb	r2, [r1, #3]
   253ee:	ab0c      	add	r3, sp, #48	@ 0x30
   253f0:	709a      	strb	r2, [r3, #2]
   253f2:	784a      	ldrb	r2, [r1, #1]
   253f4:	788c      	ldrb	r4, [r1, #2]
   253f6:	0224      	lsls	r4, r4, #8
   253f8:	18a2      	adds	r2, r4, r2
   253fa:	801a      	strh	r2, [r3, #0]
   253fc:	3108      	adds	r1, #8
   253fe:	9a09      	ldr	r2, [sp, #36]	@ 0x24
   25400:	6e12      	ldr	r2, [r2, #96]	@ 0x60
   25402:	920b      	str	r2, [sp, #44]	@ 0x2c
   25404:	4a19      	ldr	r2, [pc, #100]	@ (2546c <_start+0xf14>)
   25406:	446a      	add	r2, sp
   25408:	c938      	ldmia	r1!, {r3, r4, r5}
   2540a:	c238      	stmia	r2!, {r3, r4, r5}
   2540c:	c938      	ldmia	r1!, {r3, r4, r5}
   2540e:	c238      	stmia	r2!, {r3, r4, r5}
   25410:	c938      	ldmia	r1!, {r3, r4, r5}
   25412:	c238      	stmia	r2!, {r3, r4, r5}
   25414:	c978      	ldmia	r1!, {r3, r4, r5, r6}
   25416:	c278      	stmia	r2!, {r3, r4, r5, r6}
   25418:	7809      	ldrb	r1, [r1, #0]
   2541a:	7011      	strb	r1, [r2, #0]
   2541c:	2800      	cmp	r0, #0
   2541e:	d001      	beq.n	25424 <_start+0xecc>
   25420:	f7ff f992 	bl	24748 <_start+0x1f0>
   25424:	adff      	add	r5, sp, #1020	@ 0x3fc
   25426:	3520      	adds	r5, #32
   25428:	990b      	ldr	r1, [sp, #44]	@ 0x2c
   2542a:	70e9      	strb	r1, [r5, #3]
   2542c:	980c      	ldr	r0, [sp, #48]	@ 0x30
   2542e:	8028      	strh	r0, [r5, #0]
   25430:	0e08      	lsrs	r0, r1, #24
   25432:	71a8      	strb	r0, [r5, #6]
   25434:	0c08      	lsrs	r0, r1, #16
   25436:	7168      	strb	r0, [r5, #5]
   25438:	0a08      	lsrs	r0, r1, #8
   2543a:	7128      	strb	r0, [r5, #4]
   2543c:	a80c      	add	r0, sp, #48	@ 0x30
   2543e:	7880      	ldrb	r0, [r0, #2]
   25440:	70a8      	strb	r0, [r5, #2]
   25442:	1de8      	adds	r0, r5, #7
   25444:	4909      	ldr	r1, [pc, #36]	@ (2546c <_start+0xf14>)
   25446:	4469      	add	r1, sp
   25448:	2235      	movs	r2, #53	@ 0x35
   2544a:	f002 fc04 	bl	27c56 <__aeabi_memcpy>
   2544e:	4c06      	ldr	r4, [pc, #24]	@ (25468 <_start+0xf10>)
   25450:	446c      	add	r4, sp
   25452:	4620      	mov	r0, r4
   25454:	4629      	mov	r1, r5
   25456:	f7fc fb11 	bl	21a7c <_ZN18complex_no_dynamic3app17h52c0458726900f2cE>
   2545a:	7820      	ldrb	r0, [r4, #0]
   2545c:	2801      	cmp	r0, #1
   2545e:	d107      	bne.n	25470 <_start+0xf18>
   25460:	9909      	ldr	r1, [sp, #36]	@ 0x24
   25462:	6e09      	ldr	r1, [r1, #96]	@ 0x60
   25464:	910b      	str	r1, [sp, #44]	@ 0x2c
   25466:	e01d      	b.n	254a4 <_start+0xf4c>
   25468:	00001404 	.word	0x00001404
   2546c:	000013a8 	.word	0x000013a8
   25470:	49f4      	ldr	r1, [pc, #976]	@ (25844 <_start+0x12ec>)
   25472:	4469      	add	r1, sp
   25474:	78ca      	ldrb	r2, [r1, #3]
   25476:	ab0c      	add	r3, sp, #48	@ 0x30
   25478:	709a      	strb	r2, [r3, #2]
   2547a:	784a      	ldrb	r2, [r1, #1]
   2547c:	788c      	ldrb	r4, [r1, #2]
   2547e:	0224      	lsls	r4, r4, #8
   25480:	18a2      	adds	r2, r4, r2
   25482:	801a      	strh	r2, [r3, #0]
   25484:	3108      	adds	r1, #8
   25486:	9a09      	ldr	r2, [sp, #36]	@ 0x24
   25488:	6e12      	ldr	r2, [r2, #96]	@ 0x60
   2548a:	920b      	str	r2, [sp, #44]	@ 0x2c
   2548c:	4aee      	ldr	r2, [pc, #952]	@ (25848 <_start+0x12f0>)
   2548e:	446a      	add	r2, sp
   25490:	c938      	ldmia	r1!, {r3, r4, r5}
   25492:	c238      	stmia	r2!, {r3, r4, r5}
   25494:	c938      	ldmia	r1!, {r3, r4, r5}
   25496:	c238      	stmia	r2!, {r3, r4, r5}
   25498:	c978      	ldmia	r1!, {r3, r4, r5, r6}
   2549a:	c278      	stmia	r2!, {r3, r4, r5, r6}
   2549c:	880b      	ldrh	r3, [r1, #0]
   2549e:	8013      	strh	r3, [r2, #0]
   254a0:	7889      	ldrb	r1, [r1, #2]
   254a2:	7091      	strb	r1, [r2, #2]
   254a4:	2800      	cmp	r0, #0
   254a6:	d001      	beq.n	254ac <_start+0xf54>
   254a8:	f7ff f94e 	bl	24748 <_start+0x1f0>
   254ac:	adff      	add	r5, sp, #1020	@ 0x3fc
   254ae:	355c      	adds	r5, #92	@ 0x5c
   254b0:	990b      	ldr	r1, [sp, #44]	@ 0x2c
   254b2:	70e9      	strb	r1, [r5, #3]
   254b4:	980c      	ldr	r0, [sp, #48]	@ 0x30
   254b6:	8028      	strh	r0, [r5, #0]
   254b8:	0e08      	lsrs	r0, r1, #24
   254ba:	71a8      	strb	r0, [r5, #6]
   254bc:	0c08      	lsrs	r0, r1, #16
   254be:	7168      	strb	r0, [r5, #5]
   254c0:	0a08      	lsrs	r0, r1, #8
   254c2:	7128      	strb	r0, [r5, #4]
   254c4:	a80c      	add	r0, sp, #48	@ 0x30
   254c6:	7880      	ldrb	r0, [r0, #2]
   254c8:	70a8      	strb	r0, [r5, #2]
   254ca:	1de8      	adds	r0, r5, #7
   254cc:	49de      	ldr	r1, [pc, #888]	@ (25848 <_start+0x12f0>)
   254ce:	4469      	add	r1, sp
   254d0:	222b      	movs	r2, #43	@ 0x2b
   254d2:	f002 fbc0 	bl	27c56 <__aeabi_memcpy>
   254d6:	4cdb      	ldr	r4, [pc, #876]	@ (25844 <_start+0x12ec>)
   254d8:	446c      	add	r4, sp
   254da:	4620      	mov	r0, r4
   254dc:	4629      	mov	r1, r5
   254de:	f7fc ff11 	bl	22304 <_ZN18complex_no_dynamic3app17h7c5051fe0b2a04d4E>
   254e2:	7820      	ldrb	r0, [r4, #0]
   254e4:	2801      	cmp	r0, #1
   254e6:	d103      	bne.n	254f0 <_start+0xf98>
   254e8:	9909      	ldr	r1, [sp, #36]	@ 0x24
   254ea:	6e09      	ldr	r1, [r1, #96]	@ 0x60
   254ec:	910b      	str	r1, [sp, #44]	@ 0x2c
   254ee:	e019      	b.n	25524 <_start+0xfcc>
   254f0:	49d4      	ldr	r1, [pc, #848]	@ (25844 <_start+0x12ec>)
   254f2:	4469      	add	r1, sp
   254f4:	78ca      	ldrb	r2, [r1, #3]
   254f6:	ab0c      	add	r3, sp, #48	@ 0x30
   254f8:	709a      	strb	r2, [r3, #2]
   254fa:	784a      	ldrb	r2, [r1, #1]
   254fc:	788c      	ldrb	r4, [r1, #2]
   254fe:	0224      	lsls	r4, r4, #8
   25500:	18a2      	adds	r2, r4, r2
   25502:	801a      	strh	r2, [r3, #0]
   25504:	3108      	adds	r1, #8
   25506:	9a09      	ldr	r2, [sp, #36]	@ 0x24
   25508:	6e12      	ldr	r2, [r2, #96]	@ 0x60
   2550a:	920b      	str	r2, [sp, #44]	@ 0x2c
   2550c:	4ace      	ldr	r2, [pc, #824]	@ (25848 <_start+0x12f0>)
   2550e:	446a      	add	r2, sp
   25510:	c938      	ldmia	r1!, {r3, r4, r5}
   25512:	c238      	stmia	r2!, {r3, r4, r5}
   25514:	c938      	ldmia	r1!, {r3, r4, r5}
   25516:	c238      	stmia	r2!, {r3, r4, r5}
   25518:	c978      	ldmia	r1!, {r3, r4, r5, r6}
   2551a:	c278      	stmia	r2!, {r3, r4, r5, r6}
   2551c:	880b      	ldrh	r3, [r1, #0]
   2551e:	8013      	strh	r3, [r2, #0]
   25520:	7889      	ldrb	r1, [r1, #2]
   25522:	7091      	strb	r1, [r2, #2]
   25524:	2800      	cmp	r0, #0
   25526:	d001      	beq.n	2552c <_start+0xfd4>
   25528:	f7ff f90e 	bl	24748 <_start+0x1f0>
   2552c:	adff      	add	r5, sp, #1020	@ 0x3fc
   2552e:	3590      	adds	r5, #144	@ 0x90
   25530:	990b      	ldr	r1, [sp, #44]	@ 0x2c
   25532:	70e9      	strb	r1, [r5, #3]
   25534:	980c      	ldr	r0, [sp, #48]	@ 0x30
   25536:	8028      	strh	r0, [r5, #0]
   25538:	0e08      	lsrs	r0, r1, #24
   2553a:	71a8      	strb	r0, [r5, #6]
   2553c:	0c08      	lsrs	r0, r1, #16
   2553e:	7168      	strb	r0, [r5, #5]
   25540:	0a08      	lsrs	r0, r1, #8
   25542:	7128      	strb	r0, [r5, #4]
   25544:	a80c      	add	r0, sp, #48	@ 0x30
   25546:	7880      	ldrb	r0, [r0, #2]
   25548:	70a8      	strb	r0, [r5, #2]
   2554a:	1de8      	adds	r0, r5, #7
   2554c:	49be      	ldr	r1, [pc, #760]	@ (25848 <_start+0x12f0>)
   2554e:	4469      	add	r1, sp
   25550:	222b      	movs	r2, #43	@ 0x2b
   25552:	f002 fb80 	bl	27c56 <__aeabi_memcpy>
   25556:	4cbb      	ldr	r4, [pc, #748]	@ (25844 <_start+0x12ec>)
   25558:	446c      	add	r4, sp
   2555a:	4620      	mov	r0, r4
   2555c:	4629      	mov	r1, r5
   2555e:	f7fc fca9 	bl	21eb4 <_ZN18complex_no_dynamic3app17h6307ad2232c133e8E>
   25562:	7820      	ldrb	r0, [r4, #0]
   25564:	2801      	cmp	r0, #1
   25566:	d102      	bne.n	2556e <_start+0x1016>
   25568:	9909      	ldr	r1, [sp, #36]	@ 0x24
   2556a:	6e09      	ldr	r1, [r1, #96]	@ 0x60
   2556c:	e012      	b.n	25594 <_start+0x103c>
   2556e:	49b6      	ldr	r1, [pc, #728]	@ (25848 <_start+0x12f0>)
   25570:	4469      	add	r1, sp
   25572:	9c09      	ldr	r4, [sp, #36]	@ 0x24
   25574:	6ee2      	ldr	r2, [r4, #108]	@ 0x6c
   25576:	720a      	strb	r2, [r1, #8]
   25578:	49b2      	ldr	r1, [pc, #712]	@ (25844 <_start+0x12ec>)
   2557a:	4469      	add	r1, sp
   2557c:	78ca      	ldrb	r2, [r1, #3]
   2557e:	ab0c      	add	r3, sp, #48	@ 0x30
   25580:	709a      	strb	r2, [r3, #2]
   25582:	784a      	ldrb	r2, [r1, #1]
   25584:	7889      	ldrb	r1, [r1, #2]
   25586:	0209      	lsls	r1, r1, #8
   25588:	1889      	adds	r1, r1, r2
   2558a:	8019      	strh	r1, [r3, #0]
   2558c:	6e61      	ldr	r1, [r4, #100]	@ 0x64
   2558e:	6ea2      	ldr	r2, [r4, #104]	@ 0x68
   25590:	c406      	stmia	r4!, {r1, r2}
   25592:	6da1      	ldr	r1, [r4, #88]	@ 0x58
   25594:	910b      	str	r1, [sp, #44]	@ 0x2c
   25596:	2800      	cmp	r0, #0
   25598:	d001      	beq.n	2559e <_start+0x1046>
   2559a:	f7ff f8d5 	bl	24748 <_start+0x1f0>
   2559e:	adff      	add	r5, sp, #1020	@ 0x3fc
   255a0:	35c4      	adds	r5, #196	@ 0xc4
   255a2:	990b      	ldr	r1, [sp, #44]	@ 0x2c
   255a4:	70e9      	strb	r1, [r5, #3]
   255a6:	980c      	ldr	r0, [sp, #48]	@ 0x30
   255a8:	8028      	strh	r0, [r5, #0]
   255aa:	0e08      	lsrs	r0, r1, #24
   255ac:	71a8      	strb	r0, [r5, #6]
   255ae:	0c08      	lsrs	r0, r1, #16
   255b0:	7168      	strb	r0, [r5, #5]
   255b2:	0a08      	lsrs	r0, r1, #8
   255b4:	7128      	strb	r0, [r5, #4]
   255b6:	a80c      	add	r0, sp, #48	@ 0x30
   255b8:	7880      	ldrb	r0, [r0, #2]
   255ba:	70a8      	strb	r0, [r5, #2]
   255bc:	1de8      	adds	r0, r5, #7
   255be:	49a2      	ldr	r1, [pc, #648]	@ (25848 <_start+0x12f0>)
   255c0:	4469      	add	r1, sp
   255c2:	2209      	movs	r2, #9
   255c4:	f002 fb47 	bl	27c56 <__aeabi_memcpy>
   255c8:	4c9e      	ldr	r4, [pc, #632]	@ (25844 <_start+0x12ec>)
   255ca:	446c      	add	r4, sp
   255cc:	4620      	mov	r0, r4
   255ce:	4629      	mov	r1, r5
   255d0:	f7fb ff4c 	bl	2146c <_ZN18complex_no_dynamic3app17h42de7d352c5bf612E>
   255d4:	7820      	ldrb	r0, [r4, #0]
   255d6:	2801      	cmp	r0, #1
   255d8:	d103      	bne.n	255e2 <_start+0x108a>
   255da:	9909      	ldr	r1, [sp, #36]	@ 0x24
   255dc:	6e09      	ldr	r1, [r1, #96]	@ 0x60
   255de:	910b      	str	r1, [sp, #44]	@ 0x2c
   255e0:	e019      	b.n	25616 <_start+0x10be>
   255e2:	4998      	ldr	r1, [pc, #608]	@ (25844 <_start+0x12ec>)
   255e4:	4469      	add	r1, sp
   255e6:	78ca      	ldrb	r2, [r1, #3]
   255e8:	ab0c      	add	r3, sp, #48	@ 0x30
   255ea:	709a      	strb	r2, [r3, #2]
   255ec:	784a      	ldrb	r2, [r1, #1]
   255ee:	788c      	ldrb	r4, [r1, #2]
   255f0:	0224      	lsls	r4, r4, #8
   255f2:	18a2      	adds	r2, r4, r2
   255f4:	801a      	strh	r2, [r3, #0]
   255f6:	3108      	adds	r1, #8
   255f8:	9a09      	ldr	r2, [sp, #36]	@ 0x24
   255fa:	6e12      	ldr	r2, [r2, #96]	@ 0x60
   255fc:	920b      	str	r2, [sp, #44]	@ 0x2c
   255fe:	4a92      	ldr	r2, [pc, #584]	@ (25848 <_start+0x12f0>)
   25600:	446a      	add	r2, sp
   25602:	c938      	ldmia	r1!, {r3, r4, r5}
   25604:	c238      	stmia	r2!, {r3, r4, r5}
   25606:	c978      	ldmia	r1!, {r3, r4, r5, r6}
   25608:	c278      	stmia	r2!, {r3, r4, r5, r6}
   2560a:	c978      	ldmia	r1!, {r3, r4, r5, r6}
   2560c:	c278      	stmia	r2!, {r3, r4, r5, r6}
   2560e:	880b      	ldrh	r3, [r1, #0]
   25610:	8013      	strh	r3, [r2, #0]
   25612:	7889      	ldrb	r1, [r1, #2]
   25614:	7091      	strb	r1, [r2, #2]
   25616:	2800      	cmp	r0, #0
   25618:	d001      	beq.n	2561e <_start+0x10c6>
   2561a:	f7ff f895 	bl	24748 <_start+0x1f0>
   2561e:	adff      	add	r5, sp, #1020	@ 0x3fc
   25620:	35d4      	adds	r5, #212	@ 0xd4
   25622:	990b      	ldr	r1, [sp, #44]	@ 0x2c
   25624:	70e9      	strb	r1, [r5, #3]
   25626:	980c      	ldr	r0, [sp, #48]	@ 0x30
   25628:	8028      	strh	r0, [r5, #0]
   2562a:	0e08      	lsrs	r0, r1, #24
   2562c:	71a8      	strb	r0, [r5, #6]
   2562e:	0c08      	lsrs	r0, r1, #16
   25630:	7168      	strb	r0, [r5, #5]
   25632:	0a08      	lsrs	r0, r1, #8
   25634:	7128      	strb	r0, [r5, #4]
   25636:	a80c      	add	r0, sp, #48	@ 0x30
   25638:	7880      	ldrb	r0, [r0, #2]
   2563a:	70a8      	strb	r0, [r5, #2]
   2563c:	1de8      	adds	r0, r5, #7
   2563e:	4982      	ldr	r1, [pc, #520]	@ (25848 <_start+0x12f0>)
   25640:	4469      	add	r1, sp
   25642:	222f      	movs	r2, #47	@ 0x2f
   25644:	f002 fb07 	bl	27c56 <__aeabi_memcpy>
   25648:	4c7e      	ldr	r4, [pc, #504]	@ (25844 <_start+0x12ec>)
   2564a:	446c      	add	r4, sp
   2564c:	4620      	mov	r0, r4
   2564e:	4629      	mov	r1, r5
   25650:	f7fd ff36 	bl	234c0 <_ZN18complex_no_dynamic3app17hb9139e9eb1ed47cbE>
   25654:	7821      	ldrb	r1, [r4, #0]
   25656:	2901      	cmp	r1, #1
   25658:	d103      	bne.n	25662 <_start+0x110a>
   2565a:	9809      	ldr	r0, [sp, #36]	@ 0x24
   2565c:	6e00      	ldr	r0, [r0, #96]	@ 0x60
   2565e:	900b      	str	r0, [sp, #44]	@ 0x2c
   25660:	e00f      	b.n	25682 <_start+0x112a>
   25662:	4878      	ldr	r0, [pc, #480]	@ (25844 <_start+0x12ec>)
   25664:	4468      	add	r0, sp
   25666:	78c2      	ldrb	r2, [r0, #3]
   25668:	4b77      	ldr	r3, [pc, #476]	@ (25848 <_start+0x12f0>)
   2566a:	446b      	add	r3, sp
   2566c:	709a      	strb	r2, [r3, #2]
   2566e:	7842      	ldrb	r2, [r0, #1]
   25670:	7880      	ldrb	r0, [r0, #2]
   25672:	0200      	lsls	r0, r0, #8
   25674:	1880      	adds	r0, r0, r2
   25676:	8018      	strh	r0, [r3, #0]
   25678:	9809      	ldr	r0, [sp, #36]	@ 0x24
   2567a:	6e02      	ldr	r2, [r0, #96]	@ 0x60
   2567c:	920b      	str	r2, [sp, #44]	@ 0x2c
   2567e:	6e42      	ldr	r2, [r0, #100]	@ 0x64
   25680:	6e80      	ldr	r0, [r0, #104]	@ 0x68
   25682:	2900      	cmp	r1, #0
   25684:	d001      	beq.n	2568a <_start+0x1132>
   25686:	f7ff f85f 	bl	24748 <_start+0x1f0>
   2568a:	9906      	ldr	r1, [sp, #24]
   2568c:	1ccb      	adds	r3, r1, #3
   2568e:	711a      	strb	r2, [r3, #4]
   25690:	9d0b      	ldr	r5, [sp, #44]	@ 0x2c
   25692:	701d      	strb	r5, [r3, #0]
   25694:	496d      	ldr	r1, [pc, #436]	@ (2584c <_start+0x12f4>)
   25696:	4469      	add	r1, sp
   25698:	9c09      	ldr	r4, [sp, #36]	@ 0x24
   2569a:	6824      	ldr	r4, [r4, #0]
   2569c:	800c      	strh	r4, [r1, #0]
   2569e:	7218      	strb	r0, [r3, #8]
   256a0:	0e14      	lsrs	r4, r2, #24
   256a2:	71dc      	strb	r4, [r3, #7]
   256a4:	0c14      	lsrs	r4, r2, #16
   256a6:	719c      	strb	r4, [r3, #6]
   256a8:	0a12      	lsrs	r2, r2, #8
   256aa:	715a      	strb	r2, [r3, #5]
   256ac:	0e2a      	lsrs	r2, r5, #24
   256ae:	70da      	strb	r2, [r3, #3]
   256b0:	0c2a      	lsrs	r2, r5, #16
   256b2:	709a      	strb	r2, [r3, #2]
   256b4:	0a2a      	lsrs	r2, r5, #8
   256b6:	705a      	strb	r2, [r3, #1]
   256b8:	4a63      	ldr	r2, [pc, #396]	@ (25848 <_start+0x12f0>)
   256ba:	446a      	add	r2, sp
   256bc:	7892      	ldrb	r2, [r2, #2]
   256be:	708a      	strb	r2, [r1, #2]
   256c0:	0e02      	lsrs	r2, r0, #24
   256c2:	72da      	strb	r2, [r3, #11]
   256c4:	0c02      	lsrs	r2, r0, #16
   256c6:	729a      	strb	r2, [r3, #10]
   256c8:	0a00      	lsrs	r0, r0, #8
   256ca:	7258      	strb	r0, [r3, #9]
   256cc:	4c5d      	ldr	r4, [pc, #372]	@ (25844 <_start+0x12ec>)
   256ce:	446c      	add	r4, sp
   256d0:	4620      	mov	r0, r4
   256d2:	f7fe fe21 	bl	24318 <_ZN18complex_no_dynamic3app17hf4ef6ebd55ba3465E>
   256d6:	7820      	ldrb	r0, [r4, #0]
   256d8:	2801      	cmp	r0, #1
   256da:	d103      	bne.n	256e4 <_start+0x118c>
   256dc:	9909      	ldr	r1, [sp, #36]	@ 0x24
   256de:	6e09      	ldr	r1, [r1, #96]	@ 0x60
   256e0:	910b      	str	r1, [sp, #44]	@ 0x2c
   256e2:	e010      	b.n	25706 <_start+0x11ae>
   256e4:	4957      	ldr	r1, [pc, #348]	@ (25844 <_start+0x12ec>)
   256e6:	4469      	add	r1, sp
   256e8:	78ca      	ldrb	r2, [r1, #3]
   256ea:	ab0c      	add	r3, sp, #48	@ 0x30
   256ec:	709a      	strb	r2, [r3, #2]
   256ee:	784a      	ldrb	r2, [r1, #1]
   256f0:	7889      	ldrb	r1, [r1, #2]
   256f2:	0209      	lsls	r1, r1, #8
   256f4:	1889      	adds	r1, r1, r2
   256f6:	8019      	strh	r1, [r3, #0]
   256f8:	9c09      	ldr	r4, [sp, #36]	@ 0x24
   256fa:	6e21      	ldr	r1, [r4, #96]	@ 0x60
   256fc:	910b      	str	r1, [sp, #44]	@ 0x2c
   256fe:	4623      	mov	r3, r4
   25700:	3364      	adds	r3, #100	@ 0x64
   25702:	cb0e      	ldmia	r3, {r1, r2, r3}
   25704:	c40e      	stmia	r4!, {r1, r2, r3}
   25706:	2800      	cmp	r0, #0
   25708:	d001      	beq.n	2570e <_start+0x11b6>
   2570a:	f7ff f81d 	bl	24748 <_start+0x1f0>
   2570e:	4d50      	ldr	r5, [pc, #320]	@ (25850 <_start+0x12f8>)
   25710:	446d      	add	r5, sp
   25712:	990b      	ldr	r1, [sp, #44]	@ 0x2c
   25714:	70e9      	strb	r1, [r5, #3]
   25716:	980c      	ldr	r0, [sp, #48]	@ 0x30
   25718:	8028      	strh	r0, [r5, #0]
   2571a:	0e08      	lsrs	r0, r1, #24
   2571c:	71a8      	strb	r0, [r5, #6]
   2571e:	0c08      	lsrs	r0, r1, #16
   25720:	7168      	strb	r0, [r5, #5]
   25722:	0a08      	lsrs	r0, r1, #8
   25724:	7128      	strb	r0, [r5, #4]
   25726:	a80c      	add	r0, sp, #48	@ 0x30
   25728:	7880      	ldrb	r0, [r0, #2]
   2572a:	70a8      	strb	r0, [r5, #2]
   2572c:	1de8      	adds	r0, r5, #7
   2572e:	4946      	ldr	r1, [pc, #280]	@ (25848 <_start+0x12f0>)
   25730:	4469      	add	r1, sp
   25732:	220c      	movs	r2, #12
   25734:	f002 fa8f 	bl	27c56 <__aeabi_memcpy>
   25738:	4c42      	ldr	r4, [pc, #264]	@ (25844 <_start+0x12ec>)
   2573a:	446c      	add	r4, sp
   2573c:	4620      	mov	r0, r4
   2573e:	4629      	mov	r1, r5
   25740:	f7fe fd36 	bl	241b0 <_ZN18complex_no_dynamic3app17hec6cc9325ccedff7E>
   25744:	7824      	ldrb	r4, [r4, #0]
   25746:	2c01      	cmp	r4, #1
   25748:	d103      	bne.n	25752 <_start+0x11fa>
   2574a:	9809      	ldr	r0, [sp, #36]	@ 0x24
   2574c:	6e00      	ldr	r0, [r0, #96]	@ 0x60
   2574e:	900b      	str	r0, [sp, #44]	@ 0x2c
   25750:	e012      	b.n	25778 <_start+0x1220>
   25752:	493c      	ldr	r1, [pc, #240]	@ (25844 <_start+0x12ec>)
   25754:	4469      	add	r1, sp
   25756:	78c8      	ldrb	r0, [r1, #3]
   25758:	aa0c      	add	r2, sp, #48	@ 0x30
   2575a:	7090      	strb	r0, [r2, #2]
   2575c:	7848      	ldrb	r0, [r1, #1]
   2575e:	788b      	ldrb	r3, [r1, #2]
   25760:	021b      	lsls	r3, r3, #8
   25762:	1818      	adds	r0, r3, r0
   25764:	8010      	strh	r0, [r2, #0]
   25766:	9809      	ldr	r0, [sp, #36]	@ 0x24
   25768:	6e00      	ldr	r0, [r0, #96]	@ 0x60
   2576a:	900b      	str	r0, [sp, #44]	@ 0x2c
   2576c:	3108      	adds	r1, #8
   2576e:	4836      	ldr	r0, [pc, #216]	@ (25848 <_start+0x12f0>)
   25770:	4468      	add	r0, sp
   25772:	224e      	movs	r2, #78	@ 0x4e
   25774:	f002 f90f 	bl	27996 <__aeabi_memcpy4>
   25778:	2c00      	cmp	r4, #0
   2577a:	d001      	beq.n	25780 <_start+0x1228>
   2577c:	f7fe ffe4 	bl	24748 <_start+0x1f0>
   25780:	4d34      	ldr	r5, [pc, #208]	@ (25854 <_start+0x12fc>)
   25782:	446d      	add	r5, sp
   25784:	990b      	ldr	r1, [sp, #44]	@ 0x2c
   25786:	70e9      	strb	r1, [r5, #3]
   25788:	980c      	ldr	r0, [sp, #48]	@ 0x30
   2578a:	8028      	strh	r0, [r5, #0]
   2578c:	0e08      	lsrs	r0, r1, #24
   2578e:	71a8      	strb	r0, [r5, #6]
   25790:	0c08      	lsrs	r0, r1, #16
   25792:	7168      	strb	r0, [r5, #5]
   25794:	0a08      	lsrs	r0, r1, #8
   25796:	7128      	strb	r0, [r5, #4]
   25798:	a80c      	add	r0, sp, #48	@ 0x30
   2579a:	7880      	ldrb	r0, [r0, #2]
   2579c:	70a8      	strb	r0, [r5, #2]
   2579e:	1de8      	adds	r0, r5, #7
   257a0:	4929      	ldr	r1, [pc, #164]	@ (25848 <_start+0x12f0>)
   257a2:	4469      	add	r1, sp
   257a4:	224e      	movs	r2, #78	@ 0x4e
   257a6:	f002 fa56 	bl	27c56 <__aeabi_memcpy>
   257aa:	4c26      	ldr	r4, [pc, #152]	@ (25844 <_start+0x12ec>)
   257ac:	446c      	add	r4, sp
   257ae:	4620      	mov	r0, r4
   257b0:	4629      	mov	r1, r5
   257b2:	f7fe f91f 	bl	239f4 <_ZN18complex_no_dynamic3app17hcf8bed44bc6c9b6dE>
   257b6:	7820      	ldrb	r0, [r4, #0]
   257b8:	2801      	cmp	r0, #1
   257ba:	d103      	bne.n	257c4 <_start+0x126c>
   257bc:	9909      	ldr	r1, [sp, #36]	@ 0x24
   257be:	6e09      	ldr	r1, [r1, #96]	@ 0x60
   257c0:	910b      	str	r1, [sp, #44]	@ 0x2c
   257c2:	e019      	b.n	257f8 <_start+0x12a0>
   257c4:	491f      	ldr	r1, [pc, #124]	@ (25844 <_start+0x12ec>)
   257c6:	4469      	add	r1, sp
   257c8:	78ca      	ldrb	r2, [r1, #3]
   257ca:	ab0c      	add	r3, sp, #48	@ 0x30
   257cc:	709a      	strb	r2, [r3, #2]
   257ce:	784a      	ldrb	r2, [r1, #1]
   257d0:	788c      	ldrb	r4, [r1, #2]
   257d2:	0224      	lsls	r4, r4, #8
   257d4:	18a2      	adds	r2, r4, r2
   257d6:	801a      	strh	r2, [r3, #0]
   257d8:	3108      	adds	r1, #8
   257da:	9a09      	ldr	r2, [sp, #36]	@ 0x24
   257dc:	6e12      	ldr	r2, [r2, #96]	@ 0x60
   257de:	920b      	str	r2, [sp, #44]	@ 0x2c
   257e0:	4a19      	ldr	r2, [pc, #100]	@ (25848 <_start+0x12f0>)
   257e2:	446a      	add	r2, sp
   257e4:	c938      	ldmia	r1!, {r3, r4, r5}
   257e6:	c238      	stmia	r2!, {r3, r4, r5}
   257e8:	c938      	ldmia	r1!, {r3, r4, r5}
   257ea:	c238      	stmia	r2!, {r3, r4, r5}
   257ec:	c978      	ldmia	r1!, {r3, r4, r5, r6}
   257ee:	c278      	stmia	r2!, {r3, r4, r5, r6}
   257f0:	880b      	ldrh	r3, [r1, #0]
   257f2:	8013      	strh	r3, [r2, #0]
   257f4:	7889      	ldrb	r1, [r1, #2]
   257f6:	7091      	strb	r1, [r2, #2]
   257f8:	2800      	cmp	r0, #0
   257fa:	d001      	beq.n	25800 <_start+0x12a8>
   257fc:	f7fe ffa4 	bl	24748 <_start+0x1f0>
   25800:	4d15      	ldr	r5, [pc, #84]	@ (25858 <_start+0x1300>)
   25802:	446d      	add	r5, sp
   25804:	990b      	ldr	r1, [sp, #44]	@ 0x2c
   25806:	70e9      	strb	r1, [r5, #3]
   25808:	980c      	ldr	r0, [sp, #48]	@ 0x30
   2580a:	8028      	strh	r0, [r5, #0]
   2580c:	0e08      	lsrs	r0, r1, #24
   2580e:	71a8      	strb	r0, [r5, #6]
   25810:	0c08      	lsrs	r0, r1, #16
   25812:	7168      	strb	r0, [r5, #5]
   25814:	0a08      	lsrs	r0, r1, #8
   25816:	7128      	strb	r0, [r5, #4]
   25818:	a80c      	add	r0, sp, #48	@ 0x30
   2581a:	7880      	ldrb	r0, [r0, #2]
   2581c:	70a8      	strb	r0, [r5, #2]
   2581e:	1de8      	adds	r0, r5, #7
   25820:	4909      	ldr	r1, [pc, #36]	@ (25848 <_start+0x12f0>)
   25822:	4469      	add	r1, sp
   25824:	222b      	movs	r2, #43	@ 0x2b
   25826:	f002 fa16 	bl	27c56 <__aeabi_memcpy>
   2582a:	4c06      	ldr	r4, [pc, #24]	@ (25844 <_start+0x12ec>)
   2582c:	446c      	add	r4, sp
   2582e:	4620      	mov	r0, r4
   25830:	4629      	mov	r1, r5
   25832:	f7fa fe7d 	bl	20530 <_ZN18complex_no_dynamic3app17h14ff950ecbc8c51cE>
   25836:	7820      	ldrb	r0, [r4, #0]
   25838:	2801      	cmp	r0, #1
   2583a:	d10f      	bne.n	2585c <_start+0x1304>
   2583c:	9909      	ldr	r1, [sp, #36]	@ 0x24
   2583e:	6e09      	ldr	r1, [r1, #96]	@ 0x60
   25840:	910b      	str	r1, [sp, #44]	@ 0x2c
   25842:	e025      	b.n	25890 <_start+0x1338>
   25844:	00001404 	.word	0x00001404
   25848:	000013a8 	.word	0x000013a8
   2584c:	00000508 	.word	0x00000508
   25850:	00000518 	.word	0x00000518
   25854:	0000052c 	.word	0x0000052c
   25858:	00000584 	.word	0x00000584
   2585c:	49ee      	ldr	r1, [pc, #952]	@ (25c18 <_start+0x16c0>)
   2585e:	4469      	add	r1, sp
   25860:	78ca      	ldrb	r2, [r1, #3]
   25862:	ab0c      	add	r3, sp, #48	@ 0x30
   25864:	709a      	strb	r2, [r3, #2]
   25866:	784a      	ldrb	r2, [r1, #1]
   25868:	788c      	ldrb	r4, [r1, #2]
   2586a:	0224      	lsls	r4, r4, #8
   2586c:	18a2      	adds	r2, r4, r2
   2586e:	801a      	strh	r2, [r3, #0]
   25870:	3108      	adds	r1, #8
   25872:	9a09      	ldr	r2, [sp, #36]	@ 0x24
   25874:	6e12      	ldr	r2, [r2, #96]	@ 0x60
   25876:	920b      	str	r2, [sp, #44]	@ 0x2c
   25878:	4ae8      	ldr	r2, [pc, #928]	@ (25c1c <_start+0x16c4>)
   2587a:	446a      	add	r2, sp
   2587c:	c938      	ldmia	r1!, {r3, r4, r5}
   2587e:	c238      	stmia	r2!, {r3, r4, r5}
   25880:	c978      	ldmia	r1!, {r3, r4, r5, r6}
   25882:	c278      	stmia	r2!, {r3, r4, r5, r6}
   25884:	c938      	ldmia	r1!, {r3, r4, r5}
   25886:	c238      	stmia	r2!, {r3, r4, r5}
   25888:	c978      	ldmia	r1!, {r3, r4, r5, r6}
   2588a:	c278      	stmia	r2!, {r3, r4, r5, r6}
   2588c:	8809      	ldrh	r1, [r1, #0]
   2588e:	8011      	strh	r1, [r2, #0]
   25890:	2800      	cmp	r0, #0
   25892:	d001      	beq.n	25898 <_start+0x1340>
   25894:	f7fe ff58 	bl	24748 <_start+0x1f0>
   25898:	4de1      	ldr	r5, [pc, #900]	@ (25c20 <_start+0x16c8>)
   2589a:	446d      	add	r5, sp
   2589c:	990b      	ldr	r1, [sp, #44]	@ 0x2c
   2589e:	70e9      	strb	r1, [r5, #3]
   258a0:	980c      	ldr	r0, [sp, #48]	@ 0x30
   258a2:	8028      	strh	r0, [r5, #0]
   258a4:	0e08      	lsrs	r0, r1, #24
   258a6:	71a8      	strb	r0, [r5, #6]
   258a8:	0c08      	lsrs	r0, r1, #16
   258aa:	7168      	strb	r0, [r5, #5]
   258ac:	0a08      	lsrs	r0, r1, #8
   258ae:	7128      	strb	r0, [r5, #4]
   258b0:	a80c      	add	r0, sp, #48	@ 0x30
   258b2:	7880      	ldrb	r0, [r0, #2]
   258b4:	70a8      	strb	r0, [r5, #2]
   258b6:	1de8      	adds	r0, r5, #7
   258b8:	49d8      	ldr	r1, [pc, #864]	@ (25c1c <_start+0x16c4>)
   258ba:	4469      	add	r1, sp
   258bc:	223a      	movs	r2, #58	@ 0x3a
   258be:	f002 f9ca 	bl	27c56 <__aeabi_memcpy>
   258c2:	4cd5      	ldr	r4, [pc, #852]	@ (25c18 <_start+0x16c0>)
   258c4:	446c      	add	r4, sp
   258c6:	4620      	mov	r0, r4
   258c8:	4629      	mov	r1, r5
   258ca:	f7fd fb23 	bl	22f14 <_ZN18complex_no_dynamic3app17ha486f4464e0bbc27E>
   258ce:	7820      	ldrb	r0, [r4, #0]
   258d0:	2801      	cmp	r0, #1
   258d2:	d103      	bne.n	258dc <_start+0x1384>
   258d4:	9909      	ldr	r1, [sp, #36]	@ 0x24
   258d6:	6e09      	ldr	r1, [r1, #96]	@ 0x60
   258d8:	910b      	str	r1, [sp, #44]	@ 0x2c
   258da:	e017      	b.n	2590c <_start+0x13b4>
   258dc:	49ce      	ldr	r1, [pc, #824]	@ (25c18 <_start+0x16c0>)
   258de:	4469      	add	r1, sp
   258e0:	78ca      	ldrb	r2, [r1, #3]
   258e2:	ab0c      	add	r3, sp, #48	@ 0x30
   258e4:	709a      	strb	r2, [r3, #2]
   258e6:	784a      	ldrb	r2, [r1, #1]
   258e8:	788c      	ldrb	r4, [r1, #2]
   258ea:	0224      	lsls	r4, r4, #8
   258ec:	18a2      	adds	r2, r4, r2
   258ee:	801a      	strh	r2, [r3, #0]
   258f0:	3108      	adds	r1, #8
   258f2:	9a09      	ldr	r2, [sp, #36]	@ 0x24
   258f4:	6e12      	ldr	r2, [r2, #96]	@ 0x60
   258f6:	920b      	str	r2, [sp, #44]	@ 0x2c
   258f8:	4ac8      	ldr	r2, [pc, #800]	@ (25c1c <_start+0x16c4>)
   258fa:	446a      	add	r2, sp
   258fc:	c938      	ldmia	r1!, {r3, r4, r5}
   258fe:	c238      	stmia	r2!, {r3, r4, r5}
   25900:	c938      	ldmia	r1!, {r3, r4, r5}
   25902:	c238      	stmia	r2!, {r3, r4, r5}
   25904:	880b      	ldrh	r3, [r1, #0]
   25906:	8013      	strh	r3, [r2, #0]
   25908:	7889      	ldrb	r1, [r1, #2]
   2590a:	7091      	strb	r1, [r2, #2]
   2590c:	2800      	cmp	r0, #0
   2590e:	d001      	beq.n	25914 <_start+0x13bc>
   25910:	f7fe ff1a 	bl	24748 <_start+0x1f0>
   25914:	4dc3      	ldr	r5, [pc, #780]	@ (25c24 <_start+0x16cc>)
   25916:	446d      	add	r5, sp
   25918:	990b      	ldr	r1, [sp, #44]	@ 0x2c
   2591a:	70e9      	strb	r1, [r5, #3]
   2591c:	980c      	ldr	r0, [sp, #48]	@ 0x30
   2591e:	8028      	strh	r0, [r5, #0]
   25920:	0e08      	lsrs	r0, r1, #24
   25922:	71a8      	strb	r0, [r5, #6]
   25924:	0c08      	lsrs	r0, r1, #16
   25926:	7168      	strb	r0, [r5, #5]
   25928:	0a08      	lsrs	r0, r1, #8
   2592a:	7128      	strb	r0, [r5, #4]
   2592c:	a80c      	add	r0, sp, #48	@ 0x30
   2592e:	7880      	ldrb	r0, [r0, #2]
   25930:	70a8      	strb	r0, [r5, #2]
   25932:	1de8      	adds	r0, r5, #7
   25934:	49b9      	ldr	r1, [pc, #740]	@ (25c1c <_start+0x16c4>)
   25936:	4469      	add	r1, sp
   25938:	221b      	movs	r2, #27
   2593a:	f002 f98c 	bl	27c56 <__aeabi_memcpy>
   2593e:	4cb6      	ldr	r4, [pc, #728]	@ (25c18 <_start+0x16c0>)
   25940:	446c      	add	r4, sp
   25942:	4620      	mov	r0, r4
   25944:	4629      	mov	r1, r5
   25946:	f7fd f91d 	bl	22b84 <_ZN18complex_no_dynamic3app17ha0251dbd078f2e6bE>
   2594a:	7824      	ldrb	r4, [r4, #0]
   2594c:	2c01      	cmp	r4, #1
   2594e:	d103      	bne.n	25958 <_start+0x1400>
   25950:	9809      	ldr	r0, [sp, #36]	@ 0x24
   25952:	6e00      	ldr	r0, [r0, #96]	@ 0x60
   25954:	900b      	str	r0, [sp, #44]	@ 0x2c
   25956:	e012      	b.n	2597e <_start+0x1426>
   25958:	49af      	ldr	r1, [pc, #700]	@ (25c18 <_start+0x16c0>)
   2595a:	4469      	add	r1, sp
   2595c:	78c8      	ldrb	r0, [r1, #3]
   2595e:	aa0c      	add	r2, sp, #48	@ 0x30
   25960:	7090      	strb	r0, [r2, #2]
   25962:	7848      	ldrb	r0, [r1, #1]
   25964:	788b      	ldrb	r3, [r1, #2]
   25966:	021b      	lsls	r3, r3, #8
   25968:	1818      	adds	r0, r3, r0
   2596a:	8010      	strh	r0, [r2, #0]
   2596c:	9809      	ldr	r0, [sp, #36]	@ 0x24
   2596e:	6e00      	ldr	r0, [r0, #96]	@ 0x60
   25970:	900b      	str	r0, [sp, #44]	@ 0x2c
   25972:	3108      	adds	r1, #8
   25974:	48a9      	ldr	r0, [pc, #676]	@ (25c1c <_start+0x16c4>)
   25976:	4468      	add	r0, sp
   25978:	224a      	movs	r2, #74	@ 0x4a
   2597a:	f002 f80c 	bl	27996 <__aeabi_memcpy4>
   2597e:	2c00      	cmp	r4, #0
   25980:	d001      	beq.n	25986 <_start+0x142e>
   25982:	f7fe fee1 	bl	24748 <_start+0x1f0>
   25986:	4da8      	ldr	r5, [pc, #672]	@ (25c28 <_start+0x16d0>)
   25988:	446d      	add	r5, sp
   2598a:	990b      	ldr	r1, [sp, #44]	@ 0x2c
   2598c:	70e9      	strb	r1, [r5, #3]
   2598e:	980c      	ldr	r0, [sp, #48]	@ 0x30
   25990:	8028      	strh	r0, [r5, #0]
   25992:	0e08      	lsrs	r0, r1, #24
   25994:	71a8      	strb	r0, [r5, #6]
   25996:	0c08      	lsrs	r0, r1, #16
   25998:	7168      	strb	r0, [r5, #5]
   2599a:	0a08      	lsrs	r0, r1, #8
   2599c:	7128      	strb	r0, [r5, #4]
   2599e:	a80c      	add	r0, sp, #48	@ 0x30
   259a0:	7880      	ldrb	r0, [r0, #2]
   259a2:	70a8      	strb	r0, [r5, #2]
   259a4:	1de8      	adds	r0, r5, #7
   259a6:	499d      	ldr	r1, [pc, #628]	@ (25c1c <_start+0x16c4>)
   259a8:	4469      	add	r1, sp
   259aa:	224a      	movs	r2, #74	@ 0x4a
   259ac:	f002 f953 	bl	27c56 <__aeabi_memcpy>
   259b0:	4c99      	ldr	r4, [pc, #612]	@ (25c18 <_start+0x16c0>)
   259b2:	446c      	add	r4, sp
   259b4:	4620      	mov	r0, r4
   259b6:	4629      	mov	r1, r5
   259b8:	f7fb f84e 	bl	20a58 <_ZN18complex_no_dynamic3app17h196a1ed9b296a8f1E>
   259bc:	7824      	ldrb	r4, [r4, #0]
   259be:	2c01      	cmp	r4, #1
   259c0:	d103      	bne.n	259ca <_start+0x1472>
   259c2:	9809      	ldr	r0, [sp, #36]	@ 0x24
   259c4:	6e00      	ldr	r0, [r0, #96]	@ 0x60
   259c6:	900b      	str	r0, [sp, #44]	@ 0x2c
   259c8:	e012      	b.n	259f0 <_start+0x1498>
   259ca:	4993      	ldr	r1, [pc, #588]	@ (25c18 <_start+0x16c0>)
   259cc:	4469      	add	r1, sp
   259ce:	78c8      	ldrb	r0, [r1, #3]
   259d0:	aa0c      	add	r2, sp, #48	@ 0x30
   259d2:	7090      	strb	r0, [r2, #2]
   259d4:	7848      	ldrb	r0, [r1, #1]
   259d6:	788b      	ldrb	r3, [r1, #2]
   259d8:	021b      	lsls	r3, r3, #8
   259da:	1818      	adds	r0, r3, r0
   259dc:	8010      	strh	r0, [r2, #0]
   259de:	9809      	ldr	r0, [sp, #36]	@ 0x24
   259e0:	6e00      	ldr	r0, [r0, #96]	@ 0x60
   259e2:	900b      	str	r0, [sp, #44]	@ 0x2c
   259e4:	3108      	adds	r1, #8
   259e6:	488d      	ldr	r0, [pc, #564]	@ (25c1c <_start+0x16c4>)
   259e8:	4468      	add	r0, sp
   259ea:	2248      	movs	r2, #72	@ 0x48
   259ec:	f001 ffd3 	bl	27996 <__aeabi_memcpy4>
   259f0:	2c00      	cmp	r4, #0
   259f2:	d001      	beq.n	259f8 <_start+0x14a0>
   259f4:	f7fe fea8 	bl	24748 <_start+0x1f0>
   259f8:	4d8c      	ldr	r5, [pc, #560]	@ (25c2c <_start+0x16d4>)
   259fa:	446d      	add	r5, sp
   259fc:	990b      	ldr	r1, [sp, #44]	@ 0x2c
   259fe:	70e9      	strb	r1, [r5, #3]
   25a00:	980c      	ldr	r0, [sp, #48]	@ 0x30
   25a02:	8028      	strh	r0, [r5, #0]
   25a04:	0e08      	lsrs	r0, r1, #24
   25a06:	71a8      	strb	r0, [r5, #6]
   25a08:	0c08      	lsrs	r0, r1, #16
   25a0a:	7168      	strb	r0, [r5, #5]
   25a0c:	0a08      	lsrs	r0, r1, #8
   25a0e:	7128      	strb	r0, [r5, #4]
   25a10:	a80c      	add	r0, sp, #48	@ 0x30
   25a12:	7880      	ldrb	r0, [r0, #2]
   25a14:	70a8      	strb	r0, [r5, #2]
   25a16:	1de8      	adds	r0, r5, #7
   25a18:	4980      	ldr	r1, [pc, #512]	@ (25c1c <_start+0x16c4>)
   25a1a:	4469      	add	r1, sp
   25a1c:	2248      	movs	r2, #72	@ 0x48
   25a1e:	f002 f91a 	bl	27c56 <__aeabi_memcpy>
   25a22:	4c7d      	ldr	r4, [pc, #500]	@ (25c18 <_start+0x16c0>)
   25a24:	446c      	add	r4, sp
   25a26:	4620      	mov	r0, r4
   25a28:	4629      	mov	r1, r5
   25a2a:	f7fe f8f7 	bl	23c1c <_ZN18complex_no_dynamic3app17hd8804f85a0d315ecE>
   25a2e:	7820      	ldrb	r0, [r4, #0]
   25a30:	2801      	cmp	r0, #1
   25a32:	d103      	bne.n	25a3c <_start+0x14e4>
   25a34:	9909      	ldr	r1, [sp, #36]	@ 0x24
   25a36:	6e09      	ldr	r1, [r1, #96]	@ 0x60
   25a38:	910b      	str	r1, [sp, #44]	@ 0x2c
   25a3a:	e017      	b.n	25a6c <_start+0x1514>
   25a3c:	4976      	ldr	r1, [pc, #472]	@ (25c18 <_start+0x16c0>)
   25a3e:	4469      	add	r1, sp
   25a40:	78ca      	ldrb	r2, [r1, #3]
   25a42:	ab0c      	add	r3, sp, #48	@ 0x30
   25a44:	709a      	strb	r2, [r3, #2]
   25a46:	784a      	ldrb	r2, [r1, #1]
   25a48:	788c      	ldrb	r4, [r1, #2]
   25a4a:	0224      	lsls	r4, r4, #8
   25a4c:	18a2      	adds	r2, r4, r2
   25a4e:	801a      	strh	r2, [r3, #0]
   25a50:	3108      	adds	r1, #8
   25a52:	9a09      	ldr	r2, [sp, #36]	@ 0x24
   25a54:	6e12      	ldr	r2, [r2, #96]	@ 0x60
   25a56:	920b      	str	r2, [sp, #44]	@ 0x2c
   25a58:	4a70      	ldr	r2, [pc, #448]	@ (25c1c <_start+0x16c4>)
   25a5a:	446a      	add	r2, sp
   25a5c:	c938      	ldmia	r1!, {r3, r4, r5}
   25a5e:	c238      	stmia	r2!, {r3, r4, r5}
   25a60:	c938      	ldmia	r1!, {r3, r4, r5}
   25a62:	c238      	stmia	r2!, {r3, r4, r5}
   25a64:	c938      	ldmia	r1!, {r3, r4, r5}
   25a66:	c238      	stmia	r2!, {r3, r4, r5}
   25a68:	c978      	ldmia	r1!, {r3, r4, r5, r6}
   25a6a:	c278      	stmia	r2!, {r3, r4, r5, r6}
   25a6c:	2800      	cmp	r0, #0
   25a6e:	d001      	beq.n	25a74 <_start+0x151c>
   25a70:	f7fe fe6a 	bl	24748 <_start+0x1f0>
   25a74:	4d6e      	ldr	r5, [pc, #440]	@ (25c30 <_start+0x16d8>)
   25a76:	446d      	add	r5, sp
   25a78:	990b      	ldr	r1, [sp, #44]	@ 0x2c
   25a7a:	70e9      	strb	r1, [r5, #3]
   25a7c:	980c      	ldr	r0, [sp, #48]	@ 0x30
   25a7e:	8028      	strh	r0, [r5, #0]
   25a80:	0e08      	lsrs	r0, r1, #24
   25a82:	71a8      	strb	r0, [r5, #6]
   25a84:	0c08      	lsrs	r0, r1, #16
   25a86:	7168      	strb	r0, [r5, #5]
   25a88:	0a08      	lsrs	r0, r1, #8
   25a8a:	7128      	strb	r0, [r5, #4]
   25a8c:	a80c      	add	r0, sp, #48	@ 0x30
   25a8e:	7880      	ldrb	r0, [r0, #2]
   25a90:	70a8      	strb	r0, [r5, #2]
   25a92:	1de8      	adds	r0, r5, #7
   25a94:	4961      	ldr	r1, [pc, #388]	@ (25c1c <_start+0x16c4>)
   25a96:	4469      	add	r1, sp
   25a98:	2234      	movs	r2, #52	@ 0x34
   25a9a:	f002 f8dc 	bl	27c56 <__aeabi_memcpy>
   25a9e:	4c5e      	ldr	r4, [pc, #376]	@ (25c18 <_start+0x16c0>)
   25aa0:	446c      	add	r4, sp
   25aa2:	4620      	mov	r0, r4
   25aa4:	4629      	mov	r1, r5
   25aa6:	f7fd f9db 	bl	22e60 <_ZN18complex_no_dynamic3app17ha1899b38c20bb621E>
   25aaa:	7820      	ldrb	r0, [r4, #0]
   25aac:	2801      	cmp	r0, #1
   25aae:	d103      	bne.n	25ab8 <_start+0x1560>
   25ab0:	9909      	ldr	r1, [sp, #36]	@ 0x24
   25ab2:	6e09      	ldr	r1, [r1, #96]	@ 0x60
   25ab4:	910b      	str	r1, [sp, #44]	@ 0x2c
   25ab6:	e013      	b.n	25ae0 <_start+0x1588>
   25ab8:	4957      	ldr	r1, [pc, #348]	@ (25c18 <_start+0x16c0>)
   25aba:	4469      	add	r1, sp
   25abc:	78ca      	ldrb	r2, [r1, #3]
   25abe:	ab0c      	add	r3, sp, #48	@ 0x30
   25ac0:	709a      	strb	r2, [r3, #2]
   25ac2:	784a      	ldrb	r2, [r1, #1]
   25ac4:	788c      	ldrb	r4, [r1, #2]
   25ac6:	0224      	lsls	r4, r4, #8
   25ac8:	18a2      	adds	r2, r4, r2
   25aca:	801a      	strh	r2, [r3, #0]
   25acc:	3108      	adds	r1, #8
   25ace:	9a09      	ldr	r2, [sp, #36]	@ 0x24
   25ad0:	6e12      	ldr	r2, [r2, #96]	@ 0x60
   25ad2:	920b      	str	r2, [sp, #44]	@ 0x2c
   25ad4:	4a51      	ldr	r2, [pc, #324]	@ (25c1c <_start+0x16c4>)
   25ad6:	446a      	add	r2, sp
   25ad8:	c978      	ldmia	r1!, {r3, r4, r5, r6}
   25ada:	c278      	stmia	r2!, {r3, r4, r5, r6}
   25adc:	c978      	ldmia	r1!, {r3, r4, r5, r6}
   25ade:	c278      	stmia	r2!, {r3, r4, r5, r6}
   25ae0:	2800      	cmp	r0, #0
   25ae2:	d001      	beq.n	25ae8 <_start+0x1590>
   25ae4:	f7fe fe30 	bl	24748 <_start+0x1f0>
   25ae8:	4d52      	ldr	r5, [pc, #328]	@ (25c34 <_start+0x16dc>)
   25aea:	446d      	add	r5, sp
   25aec:	990b      	ldr	r1, [sp, #44]	@ 0x2c
   25aee:	70e9      	strb	r1, [r5, #3]
   25af0:	980c      	ldr	r0, [sp, #48]	@ 0x30
   25af2:	8028      	strh	r0, [r5, #0]
   25af4:	0e08      	lsrs	r0, r1, #24
   25af6:	71a8      	strb	r0, [r5, #6]
   25af8:	0c08      	lsrs	r0, r1, #16
   25afa:	7168      	strb	r0, [r5, #5]
   25afc:	0a08      	lsrs	r0, r1, #8
   25afe:	7128      	strb	r0, [r5, #4]
   25b00:	a80c      	add	r0, sp, #48	@ 0x30
   25b02:	7880      	ldrb	r0, [r0, #2]
   25b04:	70a8      	strb	r0, [r5, #2]
   25b06:	1de8      	adds	r0, r5, #7
   25b08:	4944      	ldr	r1, [pc, #272]	@ (25c1c <_start+0x16c4>)
   25b0a:	4469      	add	r1, sp
   25b0c:	2220      	movs	r2, #32
   25b0e:	f002 f8a2 	bl	27c56 <__aeabi_memcpy>
   25b12:	4c41      	ldr	r4, [pc, #260]	@ (25c18 <_start+0x16c0>)
   25b14:	446c      	add	r4, sp
   25b16:	4620      	mov	r0, r4
   25b18:	4629      	mov	r1, r5
   25b1a:	f7fb f905 	bl	20d28 <_ZN18complex_no_dynamic3app17h29b59a1730436f18E>
   25b1e:	7820      	ldrb	r0, [r4, #0]
   25b20:	2801      	cmp	r0, #1
   25b22:	d102      	bne.n	25b2a <_start+0x15d2>
   25b24:	9909      	ldr	r1, [sp, #36]	@ 0x24
   25b26:	6e09      	ldr	r1, [r1, #96]	@ 0x60
   25b28:	e013      	b.n	25b52 <_start+0x15fa>
   25b2a:	493c      	ldr	r1, [pc, #240]	@ (25c1c <_start+0x16c4>)
   25b2c:	4469      	add	r1, sp
   25b2e:	9c09      	ldr	r4, [sp, #36]	@ 0x24
   25b30:	6f22      	ldr	r2, [r4, #112]	@ 0x70
   25b32:	730a      	strb	r2, [r1, #12]
   25b34:	4938      	ldr	r1, [pc, #224]	@ (25c18 <_start+0x16c0>)
   25b36:	4469      	add	r1, sp
   25b38:	78ca      	ldrb	r2, [r1, #3]
   25b3a:	ab0c      	add	r3, sp, #48	@ 0x30
   25b3c:	709a      	strb	r2, [r3, #2]
   25b3e:	784a      	ldrb	r2, [r1, #1]
   25b40:	7889      	ldrb	r1, [r1, #2]
   25b42:	0209      	lsls	r1, r1, #8
   25b44:	1889      	adds	r1, r1, r2
   25b46:	8019      	strh	r1, [r3, #0]
   25b48:	4623      	mov	r3, r4
   25b4a:	3364      	adds	r3, #100	@ 0x64
   25b4c:	cb0e      	ldmia	r3, {r1, r2, r3}
   25b4e:	c40e      	stmia	r4!, {r1, r2, r3}
   25b50:	6d61      	ldr	r1, [r4, #84]	@ 0x54
   25b52:	910b      	str	r1, [sp, #44]	@ 0x2c
   25b54:	2800      	cmp	r0, #0
   25b56:	d001      	beq.n	25b5c <_start+0x1604>
   25b58:	f7fe fdf6 	bl	24748 <_start+0x1f0>
   25b5c:	4d36      	ldr	r5, [pc, #216]	@ (25c38 <_start+0x16e0>)
   25b5e:	446d      	add	r5, sp
   25b60:	990b      	ldr	r1, [sp, #44]	@ 0x2c
   25b62:	70e9      	strb	r1, [r5, #3]
   25b64:	980c      	ldr	r0, [sp, #48]	@ 0x30
   25b66:	8028      	strh	r0, [r5, #0]
   25b68:	0e08      	lsrs	r0, r1, #24
   25b6a:	71a8      	strb	r0, [r5, #6]
   25b6c:	0c08      	lsrs	r0, r1, #16
   25b6e:	7168      	strb	r0, [r5, #5]
   25b70:	0a08      	lsrs	r0, r1, #8
   25b72:	7128      	strb	r0, [r5, #4]
   25b74:	a80c      	add	r0, sp, #48	@ 0x30
   25b76:	7880      	ldrb	r0, [r0, #2]
   25b78:	70a8      	strb	r0, [r5, #2]
   25b7a:	1de8      	adds	r0, r5, #7
   25b7c:	4927      	ldr	r1, [pc, #156]	@ (25c1c <_start+0x16c4>)
   25b7e:	4469      	add	r1, sp
   25b80:	220d      	movs	r2, #13
   25b82:	f002 f868 	bl	27c56 <__aeabi_memcpy>
   25b86:	4c24      	ldr	r4, [pc, #144]	@ (25c18 <_start+0x16c0>)
   25b88:	446c      	add	r4, sp
   25b8a:	4620      	mov	r0, r4
   25b8c:	4629      	mov	r1, r5
   25b8e:	f7fa fd29 	bl	205e4 <_ZN18complex_no_dynamic3app17h165047a01d7385b3E>
   25b92:	7820      	ldrb	r0, [r4, #0]
   25b94:	2801      	cmp	r0, #1
   25b96:	d103      	bne.n	25ba0 <_start+0x1648>
   25b98:	9909      	ldr	r1, [sp, #36]	@ 0x24
   25b9a:	6e09      	ldr	r1, [r1, #96]	@ 0x60
   25b9c:	910b      	str	r1, [sp, #44]	@ 0x2c
   25b9e:	e015      	b.n	25bcc <_start+0x1674>
   25ba0:	491d      	ldr	r1, [pc, #116]	@ (25c18 <_start+0x16c0>)
   25ba2:	4469      	add	r1, sp
   25ba4:	78ca      	ldrb	r2, [r1, #3]
   25ba6:	ab0c      	add	r3, sp, #48	@ 0x30
   25ba8:	709a      	strb	r2, [r3, #2]
   25baa:	784a      	ldrb	r2, [r1, #1]
   25bac:	788c      	ldrb	r4, [r1, #2]
   25bae:	0224      	lsls	r4, r4, #8
   25bb0:	18a2      	adds	r2, r4, r2
   25bb2:	801a      	strh	r2, [r3, #0]
   25bb4:	3108      	adds	r1, #8
   25bb6:	9a09      	ldr	r2, [sp, #36]	@ 0x24
   25bb8:	6e12      	ldr	r2, [r2, #96]	@ 0x60
   25bba:	920b      	str	r2, [sp, #44]	@ 0x2c
   25bbc:	4a17      	ldr	r2, [pc, #92]	@ (25c1c <_start+0x16c4>)
   25bbe:	446a      	add	r2, sp
   25bc0:	c938      	ldmia	r1!, {r3, r4, r5}
   25bc2:	c238      	stmia	r2!, {r3, r4, r5}
   25bc4:	c938      	ldmia	r1!, {r3, r4, r5}
   25bc6:	c238      	stmia	r2!, {r3, r4, r5}
   25bc8:	c938      	ldmia	r1!, {r3, r4, r5}
   25bca:	c238      	stmia	r2!, {r3, r4, r5}
   25bcc:	2800      	cmp	r0, #0
   25bce:	d001      	beq.n	25bd4 <_start+0x167c>
   25bd0:	f7fe fdba 	bl	24748 <_start+0x1f0>
   25bd4:	4d19      	ldr	r5, [pc, #100]	@ (25c3c <_start+0x16e4>)
   25bd6:	446d      	add	r5, sp
   25bd8:	990b      	ldr	r1, [sp, #44]	@ 0x2c
   25bda:	70e9      	strb	r1, [r5, #3]
   25bdc:	980c      	ldr	r0, [sp, #48]	@ 0x30
   25bde:	8028      	strh	r0, [r5, #0]
   25be0:	0e08      	lsrs	r0, r1, #24
   25be2:	71a8      	strb	r0, [r5, #6]
   25be4:	0c08      	lsrs	r0, r1, #16
   25be6:	7168      	strb	r0, [r5, #5]
   25be8:	0a08      	lsrs	r0, r1, #8
   25bea:	7128      	strb	r0, [r5, #4]
   25bec:	a80c      	add	r0, sp, #48	@ 0x30
   25bee:	7880      	ldrb	r0, [r0, #2]
   25bf0:	70a8      	strb	r0, [r5, #2]
   25bf2:	1de8      	adds	r0, r5, #7
   25bf4:	4909      	ldr	r1, [pc, #36]	@ (25c1c <_start+0x16c4>)
   25bf6:	4469      	add	r1, sp
   25bf8:	2224      	movs	r2, #36	@ 0x24
   25bfa:	f002 f82c 	bl	27c56 <__aeabi_memcpy>
   25bfe:	4c06      	ldr	r4, [pc, #24]	@ (25c18 <_start+0x16c0>)
   25c00:	446c      	add	r4, sp
   25c02:	4620      	mov	r0, r4
   25c04:	4629      	mov	r1, r5
   25c06:	f7fa fe69 	bl	208dc <_ZN18complex_no_dynamic3app17h17dbbffa4ee6a315E>
   25c0a:	7820      	ldrb	r0, [r4, #0]
   25c0c:	2801      	cmp	r0, #1
   25c0e:	d117      	bne.n	25c40 <_start+0x16e8>
   25c10:	9909      	ldr	r1, [sp, #36]	@ 0x24
   25c12:	6e09      	ldr	r1, [r1, #96]	@ 0x60
   25c14:	910b      	str	r1, [sp, #44]	@ 0x2c
   25c16:	e02b      	b.n	25c70 <_start+0x1718>
   25c18:	00001404 	.word	0x00001404
   25c1c:	000013a8 	.word	0x000013a8
   25c20:	000005b8 	.word	0x000005b8
   25c24:	000005fc 	.word	0x000005fc
   25c28:	00000620 	.word	0x00000620
   25c2c:	00000674 	.word	0x00000674
   25c30:	000006c4 	.word	0x000006c4
   25c34:	00000700 	.word	0x00000700
   25c38:	00000728 	.word	0x00000728
   25c3c:	0000073c 	.word	0x0000073c
   25c40:	49f0      	ldr	r1, [pc, #960]	@ (26004 <_start+0x1aac>)
   25c42:	4469      	add	r1, sp
   25c44:	78ca      	ldrb	r2, [r1, #3]
   25c46:	ab0c      	add	r3, sp, #48	@ 0x30
   25c48:	709a      	strb	r2, [r3, #2]
   25c4a:	784a      	ldrb	r2, [r1, #1]
   25c4c:	788c      	ldrb	r4, [r1, #2]
   25c4e:	0224      	lsls	r4, r4, #8
   25c50:	18a2      	adds	r2, r4, r2
   25c52:	801a      	strh	r2, [r3, #0]
   25c54:	3108      	adds	r1, #8
   25c56:	9a09      	ldr	r2, [sp, #36]	@ 0x24
   25c58:	6e12      	ldr	r2, [r2, #96]	@ 0x60
   25c5a:	920b      	str	r2, [sp, #44]	@ 0x2c
   25c5c:	4aea      	ldr	r2, [pc, #936]	@ (26008 <_start+0x1ab0>)
   25c5e:	446a      	add	r2, sp
   25c60:	c918      	ldmia	r1!, {r3, r4}
   25c62:	c218      	stmia	r2!, {r3, r4}
   25c64:	c938      	ldmia	r1!, {r3, r4, r5}
   25c66:	c238      	stmia	r2!, {r3, r4, r5}
   25c68:	880b      	ldrh	r3, [r1, #0]
   25c6a:	8013      	strh	r3, [r2, #0]
   25c6c:	7889      	ldrb	r1, [r1, #2]
   25c6e:	7091      	strb	r1, [r2, #2]
   25c70:	2800      	cmp	r0, #0
   25c72:	d001      	beq.n	25c78 <_start+0x1720>
   25c74:	f7fe fd68 	bl	24748 <_start+0x1f0>
   25c78:	4de4      	ldr	r5, [pc, #912]	@ (2600c <_start+0x1ab4>)
   25c7a:	446d      	add	r5, sp
   25c7c:	990b      	ldr	r1, [sp, #44]	@ 0x2c
   25c7e:	70e9      	strb	r1, [r5, #3]
   25c80:	980c      	ldr	r0, [sp, #48]	@ 0x30
   25c82:	8028      	strh	r0, [r5, #0]
   25c84:	0e08      	lsrs	r0, r1, #24
   25c86:	71a8      	strb	r0, [r5, #6]
   25c88:	0c08      	lsrs	r0, r1, #16
   25c8a:	7168      	strb	r0, [r5, #5]
   25c8c:	0a08      	lsrs	r0, r1, #8
   25c8e:	7128      	strb	r0, [r5, #4]
   25c90:	a80c      	add	r0, sp, #48	@ 0x30
   25c92:	7880      	ldrb	r0, [r0, #2]
   25c94:	70a8      	strb	r0, [r5, #2]
   25c96:	1de8      	adds	r0, r5, #7
   25c98:	49db      	ldr	r1, [pc, #876]	@ (26008 <_start+0x1ab0>)
   25c9a:	4469      	add	r1, sp
   25c9c:	2217      	movs	r2, #23
   25c9e:	f001 ffda 	bl	27c56 <__aeabi_memcpy>
   25ca2:	4cd8      	ldr	r4, [pc, #864]	@ (26004 <_start+0x1aac>)
   25ca4:	446c      	add	r4, sp
   25ca6:	4620      	mov	r0, r4
   25ca8:	4629      	mov	r1, r5
   25caa:	f7fe fadb 	bl	24264 <_ZN18complex_no_dynamic3app17hee08272f079593b0E>
   25cae:	7824      	ldrb	r4, [r4, #0]
   25cb0:	2c01      	cmp	r4, #1
   25cb2:	d103      	bne.n	25cbc <_start+0x1764>
   25cb4:	9809      	ldr	r0, [sp, #36]	@ 0x24
   25cb6:	6e00      	ldr	r0, [r0, #96]	@ 0x60
   25cb8:	900b      	str	r0, [sp, #44]	@ 0x2c
   25cba:	e012      	b.n	25ce2 <_start+0x178a>
   25cbc:	49d1      	ldr	r1, [pc, #836]	@ (26004 <_start+0x1aac>)
   25cbe:	4469      	add	r1, sp
   25cc0:	78c8      	ldrb	r0, [r1, #3]
   25cc2:	aa0c      	add	r2, sp, #48	@ 0x30
   25cc4:	7090      	strb	r0, [r2, #2]
   25cc6:	7848      	ldrb	r0, [r1, #1]
   25cc8:	788b      	ldrb	r3, [r1, #2]
   25cca:	021b      	lsls	r3, r3, #8
   25ccc:	1818      	adds	r0, r3, r0
   25cce:	8010      	strh	r0, [r2, #0]
   25cd0:	9809      	ldr	r0, [sp, #36]	@ 0x24
   25cd2:	6e00      	ldr	r0, [r0, #96]	@ 0x60
   25cd4:	900b      	str	r0, [sp, #44]	@ 0x2c
   25cd6:	3108      	adds	r1, #8
   25cd8:	48cb      	ldr	r0, [pc, #812]	@ (26008 <_start+0x1ab0>)
   25cda:	4468      	add	r0, sp
   25cdc:	224a      	movs	r2, #74	@ 0x4a
   25cde:	f001 fe5a 	bl	27996 <__aeabi_memcpy4>
   25ce2:	2c00      	cmp	r4, #0
   25ce4:	d001      	beq.n	25cea <_start+0x1792>
   25ce6:	f7fe fd2f 	bl	24748 <_start+0x1f0>
   25cea:	4dc9      	ldr	r5, [pc, #804]	@ (26010 <_start+0x1ab8>)
   25cec:	446d      	add	r5, sp
   25cee:	990b      	ldr	r1, [sp, #44]	@ 0x2c
   25cf0:	70e9      	strb	r1, [r5, #3]
   25cf2:	980c      	ldr	r0, [sp, #48]	@ 0x30
   25cf4:	8028      	strh	r0, [r5, #0]
   25cf6:	0e08      	lsrs	r0, r1, #24
   25cf8:	71a8      	strb	r0, [r5, #6]
   25cfa:	0c08      	lsrs	r0, r1, #16
   25cfc:	7168      	strb	r0, [r5, #5]
   25cfe:	0a08      	lsrs	r0, r1, #8
   25d00:	7128      	strb	r0, [r5, #4]
   25d02:	a80c      	add	r0, sp, #48	@ 0x30
   25d04:	7880      	ldrb	r0, [r0, #2]
   25d06:	70a8      	strb	r0, [r5, #2]
   25d08:	1de8      	adds	r0, r5, #7
   25d0a:	49bf      	ldr	r1, [pc, #764]	@ (26008 <_start+0x1ab0>)
   25d0c:	4469      	add	r1, sp
   25d0e:	224a      	movs	r2, #74	@ 0x4a
   25d10:	f001 ffa1 	bl	27c56 <__aeabi_memcpy>
   25d14:	4cbb      	ldr	r4, [pc, #748]	@ (26004 <_start+0x1aac>)
   25d16:	446c      	add	r4, sp
   25d18:	4620      	mov	r0, r4
   25d1a:	4629      	mov	r1, r5
   25d1c:	f7fb f8bc 	bl	20e98 <_ZN18complex_no_dynamic3app17h31b5a833fb4361f3E>
   25d20:	7821      	ldrb	r1, [r4, #0]
   25d22:	2901      	cmp	r1, #1
   25d24:	d103      	bne.n	25d2e <_start+0x17d6>
   25d26:	9809      	ldr	r0, [sp, #36]	@ 0x24
   25d28:	6e00      	ldr	r0, [r0, #96]	@ 0x60
   25d2a:	900b      	str	r0, [sp, #44]	@ 0x2c
   25d2c:	e00f      	b.n	25d4e <_start+0x17f6>
   25d2e:	48b5      	ldr	r0, [pc, #724]	@ (26004 <_start+0x1aac>)
   25d30:	4468      	add	r0, sp
   25d32:	78c2      	ldrb	r2, [r0, #3]
   25d34:	4bb4      	ldr	r3, [pc, #720]	@ (26008 <_start+0x1ab0>)
   25d36:	446b      	add	r3, sp
   25d38:	709a      	strb	r2, [r3, #2]
   25d3a:	7842      	ldrb	r2, [r0, #1]
   25d3c:	7880      	ldrb	r0, [r0, #2]
   25d3e:	0200      	lsls	r0, r0, #8
   25d40:	1880      	adds	r0, r0, r2
   25d42:	8018      	strh	r0, [r3, #0]
   25d44:	9809      	ldr	r0, [sp, #36]	@ 0x24
   25d46:	6e02      	ldr	r2, [r0, #96]	@ 0x60
   25d48:	920b      	str	r2, [sp, #44]	@ 0x2c
   25d4a:	6e42      	ldr	r2, [r0, #100]	@ 0x64
   25d4c:	6e80      	ldr	r0, [r0, #104]	@ 0x68
   25d4e:	2900      	cmp	r1, #0
   25d50:	d001      	beq.n	25d56 <_start+0x17fe>
   25d52:	f7fe fcf9 	bl	24748 <_start+0x1f0>
   25d56:	9907      	ldr	r1, [sp, #28]
   25d58:	1ccb      	adds	r3, r1, #3
   25d5a:	711a      	strb	r2, [r3, #4]
   25d5c:	9d0b      	ldr	r5, [sp, #44]	@ 0x2c
   25d5e:	701d      	strb	r5, [r3, #0]
   25d60:	49ac      	ldr	r1, [pc, #688]	@ (26014 <_start+0x1abc>)
   25d62:	4469      	add	r1, sp
   25d64:	9c09      	ldr	r4, [sp, #36]	@ 0x24
   25d66:	6824      	ldr	r4, [r4, #0]
   25d68:	800c      	strh	r4, [r1, #0]
   25d6a:	7218      	strb	r0, [r3, #8]
   25d6c:	0e14      	lsrs	r4, r2, #24
   25d6e:	71dc      	strb	r4, [r3, #7]
   25d70:	0c14      	lsrs	r4, r2, #16
   25d72:	719c      	strb	r4, [r3, #6]
   25d74:	0a12      	lsrs	r2, r2, #8
   25d76:	715a      	strb	r2, [r3, #5]
   25d78:	0e2a      	lsrs	r2, r5, #24
   25d7a:	70da      	strb	r2, [r3, #3]
   25d7c:	0c2a      	lsrs	r2, r5, #16
   25d7e:	709a      	strb	r2, [r3, #2]
   25d80:	0a2a      	lsrs	r2, r5, #8
   25d82:	705a      	strb	r2, [r3, #1]
   25d84:	4aa0      	ldr	r2, [pc, #640]	@ (26008 <_start+0x1ab0>)
   25d86:	446a      	add	r2, sp
   25d88:	7892      	ldrb	r2, [r2, #2]
   25d8a:	708a      	strb	r2, [r1, #2]
   25d8c:	0e02      	lsrs	r2, r0, #24
   25d8e:	72da      	strb	r2, [r3, #11]
   25d90:	0c02      	lsrs	r2, r0, #16
   25d92:	729a      	strb	r2, [r3, #10]
   25d94:	0a00      	lsrs	r0, r0, #8
   25d96:	7258      	strb	r0, [r3, #9]
   25d98:	4c9a      	ldr	r4, [pc, #616]	@ (26004 <_start+0x1aac>)
   25d9a:	446c      	add	r4, sp
   25d9c:	4620      	mov	r0, r4
   25d9e:	f7fd fbef 	bl	23580 <_ZN18complex_no_dynamic3app17hbbef398eee30a071E>
   25da2:	7820      	ldrb	r0, [r4, #0]
   25da4:	2801      	cmp	r0, #1
   25da6:	d103      	bne.n	25db0 <_start+0x1858>
   25da8:	9909      	ldr	r1, [sp, #36]	@ 0x24
   25daa:	6e09      	ldr	r1, [r1, #96]	@ 0x60
   25dac:	910b      	str	r1, [sp, #44]	@ 0x2c
   25dae:	e01b      	b.n	25de8 <_start+0x1890>
   25db0:	4994      	ldr	r1, [pc, #592]	@ (26004 <_start+0x1aac>)
   25db2:	4469      	add	r1, sp
   25db4:	78ca      	ldrb	r2, [r1, #3]
   25db6:	ab0c      	add	r3, sp, #48	@ 0x30
   25db8:	709a      	strb	r2, [r3, #2]
   25dba:	784a      	ldrb	r2, [r1, #1]
   25dbc:	788c      	ldrb	r4, [r1, #2]
   25dbe:	0224      	lsls	r4, r4, #8
   25dc0:	18a2      	adds	r2, r4, r2
   25dc2:	801a      	strh	r2, [r3, #0]
   25dc4:	3108      	adds	r1, #8
   25dc6:	9a09      	ldr	r2, [sp, #36]	@ 0x24
   25dc8:	6e12      	ldr	r2, [r2, #96]	@ 0x60
   25dca:	920b      	str	r2, [sp, #44]	@ 0x2c
   25dcc:	4a8e      	ldr	r2, [pc, #568]	@ (26008 <_start+0x1ab0>)
   25dce:	446a      	add	r2, sp
   25dd0:	c938      	ldmia	r1!, {r3, r4, r5}
   25dd2:	c238      	stmia	r2!, {r3, r4, r5}
   25dd4:	c978      	ldmia	r1!, {r3, r4, r5, r6}
   25dd6:	c278      	stmia	r2!, {r3, r4, r5, r6}
   25dd8:	c978      	ldmia	r1!, {r3, r4, r5, r6}
   25dda:	c278      	stmia	r2!, {r3, r4, r5, r6}
   25ddc:	c978      	ldmia	r1!, {r3, r4, r5, r6}
   25dde:	c278      	stmia	r2!, {r3, r4, r5, r6}
   25de0:	880b      	ldrh	r3, [r1, #0]
   25de2:	8013      	strh	r3, [r2, #0]
   25de4:	7889      	ldrb	r1, [r1, #2]
   25de6:	7091      	strb	r1, [r2, #2]
   25de8:	2800      	cmp	r0, #0
   25dea:	d001      	beq.n	25df0 <_start+0x1898>
   25dec:	f7fe fcac 	bl	24748 <_start+0x1f0>
   25df0:	4d89      	ldr	r5, [pc, #548]	@ (26018 <_start+0x1ac0>)
   25df2:	446d      	add	r5, sp
   25df4:	990b      	ldr	r1, [sp, #44]	@ 0x2c
   25df6:	70e9      	strb	r1, [r5, #3]
   25df8:	980c      	ldr	r0, [sp, #48]	@ 0x30
   25dfa:	8028      	strh	r0, [r5, #0]
   25dfc:	0e08      	lsrs	r0, r1, #24
   25dfe:	71a8      	strb	r0, [r5, #6]
   25e00:	0c08      	lsrs	r0, r1, #16
   25e02:	7168      	strb	r0, [r5, #5]
   25e04:	0a08      	lsrs	r0, r1, #8
   25e06:	7128      	strb	r0, [r5, #4]
   25e08:	a80c      	add	r0, sp, #48	@ 0x30
   25e0a:	7880      	ldrb	r0, [r0, #2]
   25e0c:	70a8      	strb	r0, [r5, #2]
   25e0e:	1de8      	adds	r0, r5, #7
   25e10:	497d      	ldr	r1, [pc, #500]	@ (26008 <_start+0x1ab0>)
   25e12:	4469      	add	r1, sp
   25e14:	223f      	movs	r2, #63	@ 0x3f
   25e16:	f001 ff1e 	bl	27c56 <__aeabi_memcpy>
   25e1a:	4c7a      	ldr	r4, [pc, #488]	@ (26004 <_start+0x1aac>)
   25e1c:	446c      	add	r4, sp
   25e1e:	4620      	mov	r0, r4
   25e20:	4629      	mov	r1, r5
   25e22:	f7fb fcb7 	bl	21794 <_ZN18complex_no_dynamic3app17h4b47c329b95fc1cfE>
   25e26:	7824      	ldrb	r4, [r4, #0]
   25e28:	2c01      	cmp	r4, #1
   25e2a:	d103      	bne.n	25e34 <_start+0x18dc>
   25e2c:	9809      	ldr	r0, [sp, #36]	@ 0x24
   25e2e:	6e00      	ldr	r0, [r0, #96]	@ 0x60
   25e30:	900b      	str	r0, [sp, #44]	@ 0x2c
   25e32:	e012      	b.n	25e5a <_start+0x1902>
   25e34:	4973      	ldr	r1, [pc, #460]	@ (26004 <_start+0x1aac>)
   25e36:	4469      	add	r1, sp
   25e38:	78c8      	ldrb	r0, [r1, #3]
   25e3a:	aa0c      	add	r2, sp, #48	@ 0x30
   25e3c:	7090      	strb	r0, [r2, #2]
   25e3e:	7848      	ldrb	r0, [r1, #1]
   25e40:	788b      	ldrb	r3, [r1, #2]
   25e42:	021b      	lsls	r3, r3, #8
   25e44:	1818      	adds	r0, r3, r0
   25e46:	8010      	strh	r0, [r2, #0]
   25e48:	9809      	ldr	r0, [sp, #36]	@ 0x24
   25e4a:	6e00      	ldr	r0, [r0, #96]	@ 0x60
   25e4c:	900b      	str	r0, [sp, #44]	@ 0x2c
   25e4e:	3108      	adds	r1, #8
   25e50:	486d      	ldr	r0, [pc, #436]	@ (26008 <_start+0x1ab0>)
   25e52:	4468      	add	r0, sp
   25e54:	224f      	movs	r2, #79	@ 0x4f
   25e56:	f001 fd9e 	bl	27996 <__aeabi_memcpy4>
   25e5a:	2c00      	cmp	r4, #0
   25e5c:	d001      	beq.n	25e62 <_start+0x190a>
   25e5e:	f7fe fc73 	bl	24748 <_start+0x1f0>
   25e62:	4d6e      	ldr	r5, [pc, #440]	@ (2601c <_start+0x1ac4>)
   25e64:	446d      	add	r5, sp
   25e66:	990b      	ldr	r1, [sp, #44]	@ 0x2c
   25e68:	70e9      	strb	r1, [r5, #3]
   25e6a:	980c      	ldr	r0, [sp, #48]	@ 0x30
   25e6c:	8028      	strh	r0, [r5, #0]
   25e6e:	0e08      	lsrs	r0, r1, #24
   25e70:	71a8      	strb	r0, [r5, #6]
   25e72:	0c08      	lsrs	r0, r1, #16
   25e74:	7168      	strb	r0, [r5, #5]
   25e76:	0a08      	lsrs	r0, r1, #8
   25e78:	7128      	strb	r0, [r5, #4]
   25e7a:	a80c      	add	r0, sp, #48	@ 0x30
   25e7c:	7880      	ldrb	r0, [r0, #2]
   25e7e:	70a8      	strb	r0, [r5, #2]
   25e80:	1de8      	adds	r0, r5, #7
   25e82:	4961      	ldr	r1, [pc, #388]	@ (26008 <_start+0x1ab0>)
   25e84:	4469      	add	r1, sp
   25e86:	224f      	movs	r2, #79	@ 0x4f
   25e88:	f001 fee5 	bl	27c56 <__aeabi_memcpy>
   25e8c:	4c5d      	ldr	r4, [pc, #372]	@ (26004 <_start+0x1aac>)
   25e8e:	446c      	add	r4, sp
   25e90:	4620      	mov	r0, r4
   25e92:	4629      	mov	r1, r5
   25e94:	f7fa faf0 	bl	20478 <_ZN18complex_no_dynamic3app17h0ef1a48c4ae6cdcdE>
   25e98:	7824      	ldrb	r4, [r4, #0]
   25e9a:	2c01      	cmp	r4, #1
   25e9c:	d103      	bne.n	25ea6 <_start+0x194e>
   25e9e:	9809      	ldr	r0, [sp, #36]	@ 0x24
   25ea0:	6e00      	ldr	r0, [r0, #96]	@ 0x60
   25ea2:	900b      	str	r0, [sp, #44]	@ 0x2c
   25ea4:	e012      	b.n	25ecc <_start+0x1974>
   25ea6:	4957      	ldr	r1, [pc, #348]	@ (26004 <_start+0x1aac>)
   25ea8:	4469      	add	r1, sp
   25eaa:	78c8      	ldrb	r0, [r1, #3]
   25eac:	aa0c      	add	r2, sp, #48	@ 0x30
   25eae:	7090      	strb	r0, [r2, #2]
   25eb0:	7848      	ldrb	r0, [r1, #1]
   25eb2:	788b      	ldrb	r3, [r1, #2]
   25eb4:	021b      	lsls	r3, r3, #8
   25eb6:	1818      	adds	r0, r3, r0
   25eb8:	8010      	strh	r0, [r2, #0]
   25eba:	9809      	ldr	r0, [sp, #36]	@ 0x24
   25ebc:	6e00      	ldr	r0, [r0, #96]	@ 0x60
   25ebe:	900b      	str	r0, [sp, #44]	@ 0x2c
   25ec0:	3108      	adds	r1, #8
   25ec2:	4851      	ldr	r0, [pc, #324]	@ (26008 <_start+0x1ab0>)
   25ec4:	4468      	add	r0, sp
   25ec6:	2242      	movs	r2, #66	@ 0x42
   25ec8:	f001 fd65 	bl	27996 <__aeabi_memcpy4>
   25ecc:	2c00      	cmp	r4, #0
   25ece:	d001      	beq.n	25ed4 <_start+0x197c>
   25ed0:	f7fe fc3a 	bl	24748 <_start+0x1f0>
   25ed4:	4d52      	ldr	r5, [pc, #328]	@ (26020 <_start+0x1ac8>)
   25ed6:	446d      	add	r5, sp
   25ed8:	990b      	ldr	r1, [sp, #44]	@ 0x2c
   25eda:	70e9      	strb	r1, [r5, #3]
   25edc:	980c      	ldr	r0, [sp, #48]	@ 0x30
   25ede:	8028      	strh	r0, [r5, #0]
   25ee0:	0e08      	lsrs	r0, r1, #24
   25ee2:	71a8      	strb	r0, [r5, #6]
   25ee4:	0c08      	lsrs	r0, r1, #16
   25ee6:	7168      	strb	r0, [r5, #5]
   25ee8:	0a08      	lsrs	r0, r1, #8
   25eea:	7128      	strb	r0, [r5, #4]
   25eec:	a80c      	add	r0, sp, #48	@ 0x30
   25eee:	7880      	ldrb	r0, [r0, #2]
   25ef0:	70a8      	strb	r0, [r5, #2]
   25ef2:	1de8      	adds	r0, r5, #7
   25ef4:	4944      	ldr	r1, [pc, #272]	@ (26008 <_start+0x1ab0>)
   25ef6:	4469      	add	r1, sp
   25ef8:	2242      	movs	r2, #66	@ 0x42
   25efa:	f001 feac 	bl	27c56 <__aeabi_memcpy>
   25efe:	4c41      	ldr	r4, [pc, #260]	@ (26004 <_start+0x1aac>)
   25f00:	446c      	add	r4, sp
   25f02:	4620      	mov	r0, r4
   25f04:	4629      	mov	r1, r5
   25f06:	f7fd f861 	bl	22fcc <_ZN18complex_no_dynamic3app17hab7ec6fbd5b7f26dE>
   25f0a:	7820      	ldrb	r0, [r4, #0]
   25f0c:	2801      	cmp	r0, #1
   25f0e:	d103      	bne.n	25f18 <_start+0x19c0>
   25f10:	9909      	ldr	r1, [sp, #36]	@ 0x24
   25f12:	6e09      	ldr	r1, [r1, #96]	@ 0x60
   25f14:	910b      	str	r1, [sp, #44]	@ 0x2c
   25f16:	e013      	b.n	25f40 <_start+0x19e8>
   25f18:	493a      	ldr	r1, [pc, #232]	@ (26004 <_start+0x1aac>)
   25f1a:	4469      	add	r1, sp
   25f1c:	78ca      	ldrb	r2, [r1, #3]
   25f1e:	ab0c      	add	r3, sp, #48	@ 0x30
   25f20:	709a      	strb	r2, [r3, #2]
   25f22:	784a      	ldrb	r2, [r1, #1]
   25f24:	788c      	ldrb	r4, [r1, #2]
   25f26:	0224      	lsls	r4, r4, #8
   25f28:	18a2      	adds	r2, r4, r2
   25f2a:	801a      	strh	r2, [r3, #0]
   25f2c:	3108      	adds	r1, #8
   25f2e:	9a09      	ldr	r2, [sp, #36]	@ 0x24
   25f30:	6e12      	ldr	r2, [r2, #96]	@ 0x60
   25f32:	920b      	str	r2, [sp, #44]	@ 0x2c
   25f34:	4a34      	ldr	r2, [pc, #208]	@ (26008 <_start+0x1ab0>)
   25f36:	446a      	add	r2, sp
   25f38:	c938      	ldmia	r1!, {r3, r4, r5}
   25f3a:	c238      	stmia	r2!, {r3, r4, r5}
   25f3c:	c978      	ldmia	r1!, {r3, r4, r5, r6}
   25f3e:	c278      	stmia	r2!, {r3, r4, r5, r6}
   25f40:	2800      	cmp	r0, #0
   25f42:	d001      	beq.n	25f48 <_start+0x19f0>
   25f44:	f7fe fc00 	bl	24748 <_start+0x1f0>
   25f48:	4d36      	ldr	r5, [pc, #216]	@ (26024 <_start+0x1acc>)
   25f4a:	446d      	add	r5, sp
   25f4c:	990b      	ldr	r1, [sp, #44]	@ 0x2c
   25f4e:	70e9      	strb	r1, [r5, #3]
   25f50:	980c      	ldr	r0, [sp, #48]	@ 0x30
   25f52:	8028      	strh	r0, [r5, #0]
   25f54:	0e08      	lsrs	r0, r1, #24
   25f56:	71a8      	strb	r0, [r5, #6]
   25f58:	0c08      	lsrs	r0, r1, #16
   25f5a:	7168      	strb	r0, [r5, #5]
   25f5c:	0a08      	lsrs	r0, r1, #8
   25f5e:	7128      	strb	r0, [r5, #4]
   25f60:	a80c      	add	r0, sp, #48	@ 0x30
   25f62:	7880      	ldrb	r0, [r0, #2]
   25f64:	70a8      	strb	r0, [r5, #2]
   25f66:	1de8      	adds	r0, r5, #7
   25f68:	4927      	ldr	r1, [pc, #156]	@ (26008 <_start+0x1ab0>)
   25f6a:	4469      	add	r1, sp
   25f6c:	221c      	movs	r2, #28
   25f6e:	f001 fe72 	bl	27c56 <__aeabi_memcpy>
   25f72:	4c24      	ldr	r4, [pc, #144]	@ (26004 <_start+0x1aac>)
   25f74:	446c      	add	r4, sp
   25f76:	4620      	mov	r0, r4
   25f78:	4629      	mov	r1, r5
   25f7a:	f7fd f883 	bl	23084 <_ZN18complex_no_dynamic3app17had5596a98bc434fdE>
   25f7e:	7820      	ldrb	r0, [r4, #0]
   25f80:	2801      	cmp	r0, #1
   25f82:	d103      	bne.n	25f8c <_start+0x1a34>
   25f84:	9909      	ldr	r1, [sp, #36]	@ 0x24
   25f86:	6e09      	ldr	r1, [r1, #96]	@ 0x60
   25f88:	910b      	str	r1, [sp, #44]	@ 0x2c
   25f8a:	e015      	b.n	25fb8 <_start+0x1a60>
   25f8c:	491d      	ldr	r1, [pc, #116]	@ (26004 <_start+0x1aac>)
   25f8e:	4469      	add	r1, sp
   25f90:	78ca      	ldrb	r2, [r1, #3]
   25f92:	ab0c      	add	r3, sp, #48	@ 0x30
   25f94:	709a      	strb	r2, [r3, #2]
   25f96:	784a      	ldrb	r2, [r1, #1]
   25f98:	788c      	ldrb	r4, [r1, #2]
   25f9a:	0224      	lsls	r4, r4, #8
   25f9c:	18a2      	adds	r2, r4, r2
   25f9e:	801a      	strh	r2, [r3, #0]
   25fa0:	3108      	adds	r1, #8
   25fa2:	9a09      	ldr	r2, [sp, #36]	@ 0x24
   25fa4:	6e12      	ldr	r2, [r2, #96]	@ 0x60
   25fa6:	920b      	str	r2, [sp, #44]	@ 0x2c
   25fa8:	4a17      	ldr	r2, [pc, #92]	@ (26008 <_start+0x1ab0>)
   25faa:	446a      	add	r2, sp
   25fac:	c938      	ldmia	r1!, {r3, r4, r5}
   25fae:	c238      	stmia	r2!, {r3, r4, r5}
   25fb0:	c938      	ldmia	r1!, {r3, r4, r5}
   25fb2:	c238      	stmia	r2!, {r3, r4, r5}
   25fb4:	c938      	ldmia	r1!, {r3, r4, r5}
   25fb6:	c238      	stmia	r2!, {r3, r4, r5}
   25fb8:	2800      	cmp	r0, #0
   25fba:	d001      	beq.n	25fc0 <_start+0x1a68>
   25fbc:	f7fe fbc4 	bl	24748 <_start+0x1f0>
   25fc0:	4d19      	ldr	r5, [pc, #100]	@ (26028 <_start+0x1ad0>)
   25fc2:	446d      	add	r5, sp
   25fc4:	990b      	ldr	r1, [sp, #44]	@ 0x2c
   25fc6:	70e9      	strb	r1, [r5, #3]
   25fc8:	980c      	ldr	r0, [sp, #48]	@ 0x30
   25fca:	8028      	strh	r0, [r5, #0]
   25fcc:	0e08      	lsrs	r0, r1, #24
   25fce:	71a8      	strb	r0, [r5, #6]
   25fd0:	0c08      	lsrs	r0, r1, #16
   25fd2:	7168      	strb	r0, [r5, #5]
   25fd4:	0a08      	lsrs	r0, r1, #8
   25fd6:	7128      	strb	r0, [r5, #4]
   25fd8:	a80c      	add	r0, sp, #48	@ 0x30
   25fda:	7880      	ldrb	r0, [r0, #2]
   25fdc:	70a8      	strb	r0, [r5, #2]
   25fde:	1de8      	adds	r0, r5, #7
   25fe0:	4909      	ldr	r1, [pc, #36]	@ (26008 <_start+0x1ab0>)
   25fe2:	4469      	add	r1, sp
   25fe4:	2224      	movs	r2, #36	@ 0x24
   25fe6:	f001 fe36 	bl	27c56 <__aeabi_memcpy>
   25fea:	4c06      	ldr	r4, [pc, #24]	@ (26004 <_start+0x1aac>)
   25fec:	446c      	add	r4, sp
   25fee:	4620      	mov	r0, r4
   25ff0:	4629      	mov	r1, r5
   25ff2:	f7fc f81b 	bl	2202c <_ZN18complex_no_dynamic3app17h6d03fbdd0fe6f39cE>
   25ff6:	7820      	ldrb	r0, [r4, #0]
   25ff8:	2801      	cmp	r0, #1
   25ffa:	d117      	bne.n	2602c <_start+0x1ad4>
   25ffc:	9909      	ldr	r1, [sp, #36]	@ 0x24
   25ffe:	6e09      	ldr	r1, [r1, #96]	@ 0x60
   26000:	e026      	b.n	26050 <_start+0x1af8>
   26002:	46c0      	nop			@ (mov r8, r8)
   26004:	00001404 	.word	0x00001404
   26008:	000013a8 	.word	0x000013a8
   2600c:	00000768 	.word	0x00000768
   26010:	00000788 	.word	0x00000788
   26014:	000007dc 	.word	0x000007dc
   26018:	000007ec 	.word	0x000007ec
   2601c:	00000834 	.word	0x00000834
   26020:	0000088c 	.word	0x0000088c
   26024:	000008d8 	.word	0x000008d8
   26028:	000008fc 	.word	0x000008fc
   2602c:	49eb      	ldr	r1, [pc, #940]	@ (263dc <_start+0x1e84>)
   2602e:	4469      	add	r1, sp
   26030:	9c09      	ldr	r4, [sp, #36]	@ 0x24
   26032:	6ea2      	ldr	r2, [r4, #104]	@ 0x68
   26034:	808a      	strh	r2, [r1, #4]
   26036:	49ea      	ldr	r1, [pc, #936]	@ (263e0 <_start+0x1e88>)
   26038:	4469      	add	r1, sp
   2603a:	78ca      	ldrb	r2, [r1, #3]
   2603c:	ab0c      	add	r3, sp, #48	@ 0x30
   2603e:	709a      	strb	r2, [r3, #2]
   26040:	784a      	ldrb	r2, [r1, #1]
   26042:	7889      	ldrb	r1, [r1, #2]
   26044:	0209      	lsls	r1, r1, #8
   26046:	1889      	adds	r1, r1, r2
   26048:	8019      	strh	r1, [r3, #0]
   2604a:	6e61      	ldr	r1, [r4, #100]	@ 0x64
   2604c:	6021      	str	r1, [r4, #0]
   2604e:	6e21      	ldr	r1, [r4, #96]	@ 0x60
   26050:	910b      	str	r1, [sp, #44]	@ 0x2c
   26052:	2800      	cmp	r0, #0
   26054:	d001      	beq.n	2605a <_start+0x1b02>
   26056:	f7fe fb77 	bl	24748 <_start+0x1f0>
   2605a:	4de2      	ldr	r5, [pc, #904]	@ (263e4 <_start+0x1e8c>)
   2605c:	446d      	add	r5, sp
   2605e:	990b      	ldr	r1, [sp, #44]	@ 0x2c
   26060:	70e9      	strb	r1, [r5, #3]
   26062:	980c      	ldr	r0, [sp, #48]	@ 0x30
   26064:	8028      	strh	r0, [r5, #0]
   26066:	0e08      	lsrs	r0, r1, #24
   26068:	71a8      	strb	r0, [r5, #6]
   2606a:	0c08      	lsrs	r0, r1, #16
   2606c:	7168      	strb	r0, [r5, #5]
   2606e:	0a08      	lsrs	r0, r1, #8
   26070:	7128      	strb	r0, [r5, #4]
   26072:	a80c      	add	r0, sp, #48	@ 0x30
   26074:	7880      	ldrb	r0, [r0, #2]
   26076:	70a8      	strb	r0, [r5, #2]
   26078:	1de8      	adds	r0, r5, #7
   2607a:	49d8      	ldr	r1, [pc, #864]	@ (263dc <_start+0x1e84>)
   2607c:	4469      	add	r1, sp
   2607e:	2206      	movs	r2, #6
   26080:	f001 fde9 	bl	27c56 <__aeabi_memcpy>
   26084:	4cd6      	ldr	r4, [pc, #856]	@ (263e0 <_start+0x1e88>)
   26086:	446c      	add	r4, sp
   26088:	4620      	mov	r0, r4
   2608a:	4629      	mov	r1, r5
   2608c:	f7fd fee2 	bl	23e54 <_ZN18complex_no_dynamic3app17hdf701b415a6eebbaE>
   26090:	7820      	ldrb	r0, [r4, #0]
   26092:	2801      	cmp	r0, #1
   26094:	d103      	bne.n	2609e <_start+0x1b46>
   26096:	9909      	ldr	r1, [sp, #36]	@ 0x24
   26098:	6e09      	ldr	r1, [r1, #96]	@ 0x60
   2609a:	910b      	str	r1, [sp, #44]	@ 0x2c
   2609c:	e015      	b.n	260ca <_start+0x1b72>
   2609e:	49d0      	ldr	r1, [pc, #832]	@ (263e0 <_start+0x1e88>)
   260a0:	4469      	add	r1, sp
   260a2:	78ca      	ldrb	r2, [r1, #3]
   260a4:	ab0c      	add	r3, sp, #48	@ 0x30
   260a6:	709a      	strb	r2, [r3, #2]
   260a8:	784a      	ldrb	r2, [r1, #1]
   260aa:	788c      	ldrb	r4, [r1, #2]
   260ac:	0224      	lsls	r4, r4, #8
   260ae:	18a2      	adds	r2, r4, r2
   260b0:	801a      	strh	r2, [r3, #0]
   260b2:	3108      	adds	r1, #8
   260b4:	9a09      	ldr	r2, [sp, #36]	@ 0x24
   260b6:	6e12      	ldr	r2, [r2, #96]	@ 0x60
   260b8:	920b      	str	r2, [sp, #44]	@ 0x2c
   260ba:	4ac8      	ldr	r2, [pc, #800]	@ (263dc <_start+0x1e84>)
   260bc:	446a      	add	r2, sp
   260be:	c938      	ldmia	r1!, {r3, r4, r5}
   260c0:	c238      	stmia	r2!, {r3, r4, r5}
   260c2:	c938      	ldmia	r1!, {r3, r4, r5}
   260c4:	c238      	stmia	r2!, {r3, r4, r5}
   260c6:	8809      	ldrh	r1, [r1, #0]
   260c8:	8011      	strh	r1, [r2, #0]
   260ca:	2800      	cmp	r0, #0
   260cc:	d001      	beq.n	260d2 <_start+0x1b7a>
   260ce:	f7fe fb3b 	bl	24748 <_start+0x1f0>
   260d2:	4dc5      	ldr	r5, [pc, #788]	@ (263e8 <_start+0x1e90>)
   260d4:	446d      	add	r5, sp
   260d6:	990b      	ldr	r1, [sp, #44]	@ 0x2c
   260d8:	70e9      	strb	r1, [r5, #3]
   260da:	980c      	ldr	r0, [sp, #48]	@ 0x30
   260dc:	8028      	strh	r0, [r5, #0]
   260de:	0e08      	lsrs	r0, r1, #24
   260e0:	71a8      	strb	r0, [r5, #6]
   260e2:	0c08      	lsrs	r0, r1, #16
   260e4:	7168      	strb	r0, [r5, #5]
   260e6:	0a08      	lsrs	r0, r1, #8
   260e8:	7128      	strb	r0, [r5, #4]
   260ea:	a80c      	add	r0, sp, #48	@ 0x30
   260ec:	7880      	ldrb	r0, [r0, #2]
   260ee:	70a8      	strb	r0, [r5, #2]
   260f0:	1de8      	adds	r0, r5, #7
   260f2:	49ba      	ldr	r1, [pc, #744]	@ (263dc <_start+0x1e84>)
   260f4:	4469      	add	r1, sp
   260f6:	221a      	movs	r2, #26
   260f8:	f001 fdad 	bl	27c56 <__aeabi_memcpy>
   260fc:	4cb8      	ldr	r4, [pc, #736]	@ (263e0 <_start+0x1e88>)
   260fe:	446c      	add	r4, sp
   26100:	4620      	mov	r0, r4
   26102:	4629      	mov	r1, r5
   26104:	f7fc f9b4 	bl	22470 <_ZN18complex_no_dynamic3app17h7ff45d991a9ba3f8E>
   26108:	7824      	ldrb	r4, [r4, #0]
   2610a:	2c01      	cmp	r4, #1
   2610c:	d103      	bne.n	26116 <_start+0x1bbe>
   2610e:	9809      	ldr	r0, [sp, #36]	@ 0x24
   26110:	6e00      	ldr	r0, [r0, #96]	@ 0x60
   26112:	900b      	str	r0, [sp, #44]	@ 0x2c
   26114:	e012      	b.n	2613c <_start+0x1be4>
   26116:	49b2      	ldr	r1, [pc, #712]	@ (263e0 <_start+0x1e88>)
   26118:	4469      	add	r1, sp
   2611a:	78c8      	ldrb	r0, [r1, #3]
   2611c:	aa0c      	add	r2, sp, #48	@ 0x30
   2611e:	7090      	strb	r0, [r2, #2]
   26120:	7848      	ldrb	r0, [r1, #1]
   26122:	788b      	ldrb	r3, [r1, #2]
   26124:	021b      	lsls	r3, r3, #8
   26126:	1818      	adds	r0, r3, r0
   26128:	8010      	strh	r0, [r2, #0]
   2612a:	9809      	ldr	r0, [sp, #36]	@ 0x24
   2612c:	6e00      	ldr	r0, [r0, #96]	@ 0x60
   2612e:	900b      	str	r0, [sp, #44]	@ 0x2c
   26130:	3108      	adds	r1, #8
   26132:	48aa      	ldr	r0, [pc, #680]	@ (263dc <_start+0x1e84>)
   26134:	4468      	add	r0, sp
   26136:	224c      	movs	r2, #76	@ 0x4c
   26138:	f001 fc2d 	bl	27996 <__aeabi_memcpy4>
   2613c:	2c00      	cmp	r4, #0
   2613e:	d001      	beq.n	26144 <_start+0x1bec>
   26140:	f7fe fb02 	bl	24748 <_start+0x1f0>
   26144:	4da9      	ldr	r5, [pc, #676]	@ (263ec <_start+0x1e94>)
   26146:	446d      	add	r5, sp
   26148:	990b      	ldr	r1, [sp, #44]	@ 0x2c
   2614a:	70e9      	strb	r1, [r5, #3]
   2614c:	980c      	ldr	r0, [sp, #48]	@ 0x30
   2614e:	8028      	strh	r0, [r5, #0]
   26150:	0e08      	lsrs	r0, r1, #24
   26152:	71a8      	strb	r0, [r5, #6]
   26154:	0c08      	lsrs	r0, r1, #16
   26156:	7168      	strb	r0, [r5, #5]
   26158:	0a08      	lsrs	r0, r1, #8
   2615a:	7128      	strb	r0, [r5, #4]
   2615c:	a80c      	add	r0, sp, #48	@ 0x30
   2615e:	7880      	ldrb	r0, [r0, #2]
   26160:	70a8      	strb	r0, [r5, #2]
   26162:	1de8      	adds	r0, r5, #7
   26164:	499d      	ldr	r1, [pc, #628]	@ (263dc <_start+0x1e84>)
   26166:	4469      	add	r1, sp
   26168:	224c      	movs	r2, #76	@ 0x4c
   2616a:	f001 fd74 	bl	27c56 <__aeabi_memcpy>
   2616e:	4c9c      	ldr	r4, [pc, #624]	@ (263e0 <_start+0x1e88>)
   26170:	446c      	add	r4, sp
   26172:	4620      	mov	r0, r4
   26174:	4629      	mov	r1, r5
   26176:	f7fb fde9 	bl	21d4c <_ZN18complex_no_dynamic3app17h5d15ea7ef6fb2d59E>
   2617a:	7824      	ldrb	r4, [r4, #0]
   2617c:	2c01      	cmp	r4, #1
   2617e:	d103      	bne.n	26188 <_start+0x1c30>
   26180:	9809      	ldr	r0, [sp, #36]	@ 0x24
   26182:	6e00      	ldr	r0, [r0, #96]	@ 0x60
   26184:	900b      	str	r0, [sp, #44]	@ 0x2c
   26186:	e012      	b.n	261ae <_start+0x1c56>
   26188:	4995      	ldr	r1, [pc, #596]	@ (263e0 <_start+0x1e88>)
   2618a:	4469      	add	r1, sp
   2618c:	78c8      	ldrb	r0, [r1, #3]
   2618e:	aa0c      	add	r2, sp, #48	@ 0x30
   26190:	7090      	strb	r0, [r2, #2]
   26192:	7848      	ldrb	r0, [r1, #1]
   26194:	788b      	ldrb	r3, [r1, #2]
   26196:	021b      	lsls	r3, r3, #8
   26198:	1818      	adds	r0, r3, r0
   2619a:	8010      	strh	r0, [r2, #0]
   2619c:	9809      	ldr	r0, [sp, #36]	@ 0x24
   2619e:	6e00      	ldr	r0, [r0, #96]	@ 0x60
   261a0:	900b      	str	r0, [sp, #44]	@ 0x2c
   261a2:	3108      	adds	r1, #8
   261a4:	488d      	ldr	r0, [pc, #564]	@ (263dc <_start+0x1e84>)
   261a6:	4468      	add	r0, sp
   261a8:	2246      	movs	r2, #70	@ 0x46
   261aa:	f001 fbf4 	bl	27996 <__aeabi_memcpy4>
   261ae:	2c00      	cmp	r4, #0
   261b0:	d001      	beq.n	261b6 <_start+0x1c5e>
   261b2:	f7fe fac9 	bl	24748 <_start+0x1f0>
   261b6:	4d8e      	ldr	r5, [pc, #568]	@ (263f0 <_start+0x1e98>)
   261b8:	446d      	add	r5, sp
   261ba:	990b      	ldr	r1, [sp, #44]	@ 0x2c
   261bc:	70e9      	strb	r1, [r5, #3]
   261be:	980c      	ldr	r0, [sp, #48]	@ 0x30
   261c0:	8028      	strh	r0, [r5, #0]
   261c2:	0e08      	lsrs	r0, r1, #24
   261c4:	71a8      	strb	r0, [r5, #6]
   261c6:	0c08      	lsrs	r0, r1, #16
   261c8:	7168      	strb	r0, [r5, #5]
   261ca:	0a08      	lsrs	r0, r1, #8
   261cc:	7128      	strb	r0, [r5, #4]
   261ce:	a80c      	add	r0, sp, #48	@ 0x30
   261d0:	7880      	ldrb	r0, [r0, #2]
   261d2:	70a8      	strb	r0, [r5, #2]
   261d4:	1de8      	adds	r0, r5, #7
   261d6:	4981      	ldr	r1, [pc, #516]	@ (263dc <_start+0x1e84>)
   261d8:	4469      	add	r1, sp
   261da:	2246      	movs	r2, #70	@ 0x46
   261dc:	f001 fd3b 	bl	27c56 <__aeabi_memcpy>
   261e0:	4c7f      	ldr	r4, [pc, #508]	@ (263e0 <_start+0x1e88>)
   261e2:	446c      	add	r4, sp
   261e4:	4620      	mov	r0, r4
   261e6:	4629      	mov	r1, r5
   261e8:	f7fc fa4e 	bl	22688 <_ZN18complex_no_dynamic3app17h88f3be9008ba137fE>
   261ec:	7820      	ldrb	r0, [r4, #0]
   261ee:	2801      	cmp	r0, #1
   261f0:	d103      	bne.n	261fa <_start+0x1ca2>
   261f2:	9909      	ldr	r1, [sp, #36]	@ 0x24
   261f4:	6e09      	ldr	r1, [r1, #96]	@ 0x60
   261f6:	910b      	str	r1, [sp, #44]	@ 0x2c
   261f8:	e019      	b.n	2622e <_start+0x1cd6>
   261fa:	4979      	ldr	r1, [pc, #484]	@ (263e0 <_start+0x1e88>)
   261fc:	4469      	add	r1, sp
   261fe:	78ca      	ldrb	r2, [r1, #3]
   26200:	ab0c      	add	r3, sp, #48	@ 0x30
   26202:	709a      	strb	r2, [r3, #2]
   26204:	784a      	ldrb	r2, [r1, #1]
   26206:	788c      	ldrb	r4, [r1, #2]
   26208:	0224      	lsls	r4, r4, #8
   2620a:	18a2      	adds	r2, r4, r2
   2620c:	801a      	strh	r2, [r3, #0]
   2620e:	3108      	adds	r1, #8
   26210:	9a09      	ldr	r2, [sp, #36]	@ 0x24
   26212:	6e12      	ldr	r2, [r2, #96]	@ 0x60
   26214:	920b      	str	r2, [sp, #44]	@ 0x2c
   26216:	4a71      	ldr	r2, [pc, #452]	@ (263dc <_start+0x1e84>)
   26218:	446a      	add	r2, sp
   2621a:	c938      	ldmia	r1!, {r3, r4, r5}
   2621c:	c238      	stmia	r2!, {r3, r4, r5}
   2621e:	c938      	ldmia	r1!, {r3, r4, r5}
   26220:	c238      	stmia	r2!, {r3, r4, r5}
   26222:	c938      	ldmia	r1!, {r3, r4, r5}
   26224:	c238      	stmia	r2!, {r3, r4, r5}
   26226:	c978      	ldmia	r1!, {r3, r4, r5, r6}
   26228:	c278      	stmia	r2!, {r3, r4, r5, r6}
   2622a:	7809      	ldrb	r1, [r1, #0]
   2622c:	7011      	strb	r1, [r2, #0]
   2622e:	2800      	cmp	r0, #0
   26230:	d001      	beq.n	26236 <_start+0x1cde>
   26232:	f7fe fa89 	bl	24748 <_start+0x1f0>
   26236:	4d6f      	ldr	r5, [pc, #444]	@ (263f4 <_start+0x1e9c>)
   26238:	446d      	add	r5, sp
   2623a:	990b      	ldr	r1, [sp, #44]	@ 0x2c
   2623c:	70e9      	strb	r1, [r5, #3]
   2623e:	980c      	ldr	r0, [sp, #48]	@ 0x30
   26240:	8028      	strh	r0, [r5, #0]
   26242:	0e08      	lsrs	r0, r1, #24
   26244:	71a8      	strb	r0, [r5, #6]
   26246:	0c08      	lsrs	r0, r1, #16
   26248:	7168      	strb	r0, [r5, #5]
   2624a:	0a08      	lsrs	r0, r1, #8
   2624c:	7128      	strb	r0, [r5, #4]
   2624e:	a80c      	add	r0, sp, #48	@ 0x30
   26250:	7880      	ldrb	r0, [r0, #2]
   26252:	70a8      	strb	r0, [r5, #2]
   26254:	1de8      	adds	r0, r5, #7
   26256:	4961      	ldr	r1, [pc, #388]	@ (263dc <_start+0x1e84>)
   26258:	4469      	add	r1, sp
   2625a:	2235      	movs	r2, #53	@ 0x35
   2625c:	f001 fcfb 	bl	27c56 <__aeabi_memcpy>
   26260:	4c5f      	ldr	r4, [pc, #380]	@ (263e0 <_start+0x1e88>)
   26262:	446c      	add	r4, sp
   26264:	4620      	mov	r0, r4
   26266:	4629      	mov	r1, r5
   26268:	f7fc ff66 	bl	23138 <_ZN18complex_no_dynamic3app17haf3399294a1e702dE>
   2626c:	7820      	ldrb	r0, [r4, #0]
   2626e:	2801      	cmp	r0, #1
   26270:	d103      	bne.n	2627a <_start+0x1d22>
   26272:	9909      	ldr	r1, [sp, #36]	@ 0x24
   26274:	6e09      	ldr	r1, [r1, #96]	@ 0x60
   26276:	910b      	str	r1, [sp, #44]	@ 0x2c
   26278:	e017      	b.n	262aa <_start+0x1d52>
   2627a:	4959      	ldr	r1, [pc, #356]	@ (263e0 <_start+0x1e88>)
   2627c:	4469      	add	r1, sp
   2627e:	78ca      	ldrb	r2, [r1, #3]
   26280:	ab0c      	add	r3, sp, #48	@ 0x30
   26282:	709a      	strb	r2, [r3, #2]
   26284:	784a      	ldrb	r2, [r1, #1]
   26286:	788c      	ldrb	r4, [r1, #2]
   26288:	0224      	lsls	r4, r4, #8
   2628a:	18a2      	adds	r2, r4, r2
   2628c:	801a      	strh	r2, [r3, #0]
   2628e:	3108      	adds	r1, #8
   26290:	9a09      	ldr	r2, [sp, #36]	@ 0x24
   26292:	6e12      	ldr	r2, [r2, #96]	@ 0x60
   26294:	920b      	str	r2, [sp, #44]	@ 0x2c
   26296:	4a51      	ldr	r2, [pc, #324]	@ (263dc <_start+0x1e84>)
   26298:	446a      	add	r2, sp
   2629a:	c978      	ldmia	r1!, {r3, r4, r5, r6}
   2629c:	c278      	stmia	r2!, {r3, r4, r5, r6}
   2629e:	c978      	ldmia	r1!, {r3, r4, r5, r6}
   262a0:	c278      	stmia	r2!, {r3, r4, r5, r6}
   262a2:	c978      	ldmia	r1!, {r3, r4, r5, r6}
   262a4:	c278      	stmia	r2!, {r3, r4, r5, r6}
   262a6:	7809      	ldrb	r1, [r1, #0]
   262a8:	7011      	strb	r1, [r2, #0]
   262aa:	2800      	cmp	r0, #0
   262ac:	d001      	beq.n	262b2 <_start+0x1d5a>
   262ae:	f7fe fa4b 	bl	24748 <_start+0x1f0>
   262b2:	4d51      	ldr	r5, [pc, #324]	@ (263f8 <_start+0x1ea0>)
   262b4:	446d      	add	r5, sp
   262b6:	990b      	ldr	r1, [sp, #44]	@ 0x2c
   262b8:	70e9      	strb	r1, [r5, #3]
   262ba:	980c      	ldr	r0, [sp, #48]	@ 0x30
   262bc:	8028      	strh	r0, [r5, #0]
   262be:	0e08      	lsrs	r0, r1, #24
   262c0:	71a8      	strb	r0, [r5, #6]
   262c2:	0c08      	lsrs	r0, r1, #16
   262c4:	7168      	strb	r0, [r5, #5]
   262c6:	0a08      	lsrs	r0, r1, #8
   262c8:	7128      	strb	r0, [r5, #4]
   262ca:	a80c      	add	r0, sp, #48	@ 0x30
   262cc:	7880      	ldrb	r0, [r0, #2]
   262ce:	70a8      	strb	r0, [r5, #2]
   262d0:	1de8      	adds	r0, r5, #7
   262d2:	4942      	ldr	r1, [pc, #264]	@ (263dc <_start+0x1e84>)
   262d4:	4469      	add	r1, sp
   262d6:	2231      	movs	r2, #49	@ 0x31
   262d8:	f001 fcbd 	bl	27c56 <__aeabi_memcpy>
   262dc:	4c40      	ldr	r4, [pc, #256]	@ (263e0 <_start+0x1e88>)
   262de:	446c      	add	r4, sp
   262e0:	4620      	mov	r0, r4
   262e2:	4629      	mov	r1, r5
   262e4:	f7fa ffaa 	bl	2123c <_ZN18complex_no_dynamic3app17h3a5c0637fb1b8b16E>
   262e8:	7820      	ldrb	r0, [r4, #0]
   262ea:	2801      	cmp	r0, #1
   262ec:	d103      	bne.n	262f6 <_start+0x1d9e>
   262ee:	9909      	ldr	r1, [sp, #36]	@ 0x24
   262f0:	6e09      	ldr	r1, [r1, #96]	@ 0x60
   262f2:	910b      	str	r1, [sp, #44]	@ 0x2c
   262f4:	e013      	b.n	2631e <_start+0x1dc6>
   262f6:	493a      	ldr	r1, [pc, #232]	@ (263e0 <_start+0x1e88>)
   262f8:	4469      	add	r1, sp
   262fa:	78ca      	ldrb	r2, [r1, #3]
   262fc:	ab0c      	add	r3, sp, #48	@ 0x30
   262fe:	709a      	strb	r2, [r3, #2]
   26300:	784a      	ldrb	r2, [r1, #1]
   26302:	788c      	ldrb	r4, [r1, #2]
   26304:	0224      	lsls	r4, r4, #8
   26306:	18a2      	adds	r2, r4, r2
   26308:	801a      	strh	r2, [r3, #0]
   2630a:	3108      	adds	r1, #8
   2630c:	9a09      	ldr	r2, [sp, #36]	@ 0x24
   2630e:	6e12      	ldr	r2, [r2, #96]	@ 0x60
   26310:	920b      	str	r2, [sp, #44]	@ 0x2c
   26312:	4a32      	ldr	r2, [pc, #200]	@ (263dc <_start+0x1e84>)
   26314:	446a      	add	r2, sp
   26316:	c978      	ldmia	r1!, {r3, r4, r5, r6}
   26318:	c278      	stmia	r2!, {r3, r4, r5, r6}
   2631a:	c978      	ldmia	r1!, {r3, r4, r5, r6}
   2631c:	c278      	stmia	r2!, {r3, r4, r5, r6}
   2631e:	2800      	cmp	r0, #0
   26320:	d001      	beq.n	26326 <_start+0x1dce>
   26322:	f7fe fa11 	bl	24748 <_start+0x1f0>
   26326:	4d35      	ldr	r5, [pc, #212]	@ (263fc <_start+0x1ea4>)
   26328:	446d      	add	r5, sp
   2632a:	990b      	ldr	r1, [sp, #44]	@ 0x2c
   2632c:	70e9      	strb	r1, [r5, #3]
   2632e:	980c      	ldr	r0, [sp, #48]	@ 0x30
   26330:	8028      	strh	r0, [r5, #0]
   26332:	0e08      	lsrs	r0, r1, #24
   26334:	71a8      	strb	r0, [r5, #6]
   26336:	0c08      	lsrs	r0, r1, #16
   26338:	7168      	strb	r0, [r5, #5]
   2633a:	0a08      	lsrs	r0, r1, #8
   2633c:	7128      	strb	r0, [r5, #4]
   2633e:	a80c      	add	r0, sp, #48	@ 0x30
   26340:	7880      	ldrb	r0, [r0, #2]
   26342:	70a8      	strb	r0, [r5, #2]
   26344:	1de8      	adds	r0, r5, #7
   26346:	4925      	ldr	r1, [pc, #148]	@ (263dc <_start+0x1e84>)
   26348:	4469      	add	r1, sp
   2634a:	2220      	movs	r2, #32
   2634c:	f001 fc83 	bl	27c56 <__aeabi_memcpy>
   26350:	4c23      	ldr	r4, [pc, #140]	@ (263e0 <_start+0x1e88>)
   26352:	446c      	add	r4, sp
   26354:	4620      	mov	r0, r4
   26356:	4629      	mov	r1, r5
   26358:	f7fa f99e 	bl	20698 <_ZN18complex_no_dynamic3app17h16a6c595eca35e93E>
   2635c:	7824      	ldrb	r4, [r4, #0]
   2635e:	2c01      	cmp	r4, #1
   26360:	d103      	bne.n	2636a <_start+0x1e12>
   26362:	9809      	ldr	r0, [sp, #36]	@ 0x24
   26364:	6e00      	ldr	r0, [r0, #96]	@ 0x60
   26366:	900b      	str	r0, [sp, #44]	@ 0x2c
   26368:	e012      	b.n	26390 <_start+0x1e38>
   2636a:	491d      	ldr	r1, [pc, #116]	@ (263e0 <_start+0x1e88>)
   2636c:	4469      	add	r1, sp
   2636e:	78c8      	ldrb	r0, [r1, #3]
   26370:	aa0c      	add	r2, sp, #48	@ 0x30
   26372:	7090      	strb	r0, [r2, #2]
   26374:	7848      	ldrb	r0, [r1, #1]
   26376:	788b      	ldrb	r3, [r1, #2]
   26378:	021b      	lsls	r3, r3, #8
   2637a:	1818      	adds	r0, r3, r0
   2637c:	8010      	strh	r0, [r2, #0]
   2637e:	9809      	ldr	r0, [sp, #36]	@ 0x24
   26380:	6e00      	ldr	r0, [r0, #96]	@ 0x60
   26382:	900b      	str	r0, [sp, #44]	@ 0x2c
   26384:	3108      	adds	r1, #8
   26386:	4815      	ldr	r0, [pc, #84]	@ (263dc <_start+0x1e84>)
   26388:	4468      	add	r0, sp
   2638a:	224a      	movs	r2, #74	@ 0x4a
   2638c:	f001 fb03 	bl	27996 <__aeabi_memcpy4>
   26390:	2c00      	cmp	r4, #0
   26392:	d001      	beq.n	26398 <_start+0x1e40>
   26394:	f7fe f9d8 	bl	24748 <_start+0x1f0>
   26398:	4d19      	ldr	r5, [pc, #100]	@ (26400 <_start+0x1ea8>)
   2639a:	446d      	add	r5, sp
   2639c:	990b      	ldr	r1, [sp, #44]	@ 0x2c
   2639e:	70e9      	strb	r1, [r5, #3]
   263a0:	980c      	ldr	r0, [sp, #48]	@ 0x30
   263a2:	8028      	strh	r0, [r5, #0]
   263a4:	0e08      	lsrs	r0, r1, #24
   263a6:	71a8      	strb	r0, [r5, #6]
   263a8:	0c08      	lsrs	r0, r1, #16
   263aa:	7168      	strb	r0, [r5, #5]
   263ac:	0a08      	lsrs	r0, r1, #8
   263ae:	7128      	strb	r0, [r5, #4]
   263b0:	a80c      	add	r0, sp, #48	@ 0x30
   263b2:	7880      	ldrb	r0, [r0, #2]
   263b4:	70a8      	strb	r0, [r5, #2]
   263b6:	1de8      	adds	r0, r5, #7
   263b8:	4908      	ldr	r1, [pc, #32]	@ (263dc <_start+0x1e84>)
   263ba:	4469      	add	r1, sp
   263bc:	224a      	movs	r2, #74	@ 0x4a
   263be:	f001 fc4a 	bl	27c56 <__aeabi_memcpy>
   263c2:	4c07      	ldr	r4, [pc, #28]	@ (263e0 <_start+0x1e88>)
   263c4:	446c      	add	r4, sp
   263c6:	4620      	mov	r0, r4
   263c8:	4629      	mov	r1, r5
   263ca:	f7fd fdbb 	bl	23f44 <_ZN18complex_no_dynamic3app17he4df762eefab355eE>
   263ce:	7824      	ldrb	r4, [r4, #0]
   263d0:	2c01      	cmp	r4, #1
   263d2:	d117      	bne.n	26404 <_start+0x1eac>
   263d4:	9809      	ldr	r0, [sp, #36]	@ 0x24
   263d6:	6e00      	ldr	r0, [r0, #96]	@ 0x60
   263d8:	900b      	str	r0, [sp, #44]	@ 0x2c
   263da:	e026      	b.n	2642a <_start+0x1ed2>
   263dc:	000013a8 	.word	0x000013a8
   263e0:	00001404 	.word	0x00001404
   263e4:	00000928 	.word	0x00000928
   263e8:	00000938 	.word	0x00000938
   263ec:	0000095c 	.word	0x0000095c
   263f0:	000009b0 	.word	0x000009b0
   263f4:	00000a00 	.word	0x00000a00
   263f8:	00000a3c 	.word	0x00000a3c
   263fc:	00000a74 	.word	0x00000a74
   26400:	00000a9c 	.word	0x00000a9c
   26404:	49ec      	ldr	r1, [pc, #944]	@ (267b8 <_start+0x2260>)
   26406:	4469      	add	r1, sp
   26408:	78c8      	ldrb	r0, [r1, #3]
   2640a:	aa0c      	add	r2, sp, #48	@ 0x30
   2640c:	7090      	strb	r0, [r2, #2]
   2640e:	7848      	ldrb	r0, [r1, #1]
   26410:	788b      	ldrb	r3, [r1, #2]
   26412:	021b      	lsls	r3, r3, #8
   26414:	1818      	adds	r0, r3, r0
   26416:	8010      	strh	r0, [r2, #0]
   26418:	9809      	ldr	r0, [sp, #36]	@ 0x24
   2641a:	6e00      	ldr	r0, [r0, #96]	@ 0x60
   2641c:	900b      	str	r0, [sp, #44]	@ 0x2c
   2641e:	3108      	adds	r1, #8
   26420:	48e6      	ldr	r0, [pc, #920]	@ (267bc <_start+0x2264>)
   26422:	4468      	add	r0, sp
   26424:	2248      	movs	r2, #72	@ 0x48
   26426:	f001 fab6 	bl	27996 <__aeabi_memcpy4>
   2642a:	2c00      	cmp	r4, #0
   2642c:	d001      	beq.n	26432 <_start+0x1eda>
   2642e:	f7fe f98b 	bl	24748 <_start+0x1f0>
   26432:	4de3      	ldr	r5, [pc, #908]	@ (267c0 <_start+0x2268>)
   26434:	446d      	add	r5, sp
   26436:	990b      	ldr	r1, [sp, #44]	@ 0x2c
   26438:	70e9      	strb	r1, [r5, #3]
   2643a:	980c      	ldr	r0, [sp, #48]	@ 0x30
   2643c:	8028      	strh	r0, [r5, #0]
   2643e:	0e08      	lsrs	r0, r1, #24
   26440:	71a8      	strb	r0, [r5, #6]
   26442:	0c08      	lsrs	r0, r1, #16
   26444:	7168      	strb	r0, [r5, #5]
   26446:	0a08      	lsrs	r0, r1, #8
   26448:	7128      	strb	r0, [r5, #4]
   2644a:	a80c      	add	r0, sp, #48	@ 0x30
   2644c:	7880      	ldrb	r0, [r0, #2]
   2644e:	70a8      	strb	r0, [r5, #2]
   26450:	1de8      	adds	r0, r5, #7
   26452:	49da      	ldr	r1, [pc, #872]	@ (267bc <_start+0x2264>)
   26454:	4469      	add	r1, sp
   26456:	2248      	movs	r2, #72	@ 0x48
   26458:	f001 fbfd 	bl	27c56 <__aeabi_memcpy>
   2645c:	4cd6      	ldr	r4, [pc, #856]	@ (267b8 <_start+0x2260>)
   2645e:	446c      	add	r4, sp
   26460:	4620      	mov	r0, r4
   26462:	4629      	mov	r1, r5
   26464:	f7fd f94a 	bl	236fc <_ZN18complex_no_dynamic3app17hc249c8910ce5263cE>
   26468:	7824      	ldrb	r4, [r4, #0]
   2646a:	2c01      	cmp	r4, #1
   2646c:	d103      	bne.n	26476 <_start+0x1f1e>
   2646e:	9809      	ldr	r0, [sp, #36]	@ 0x24
   26470:	6e00      	ldr	r0, [r0, #96]	@ 0x60
   26472:	900b      	str	r0, [sp, #44]	@ 0x2c
   26474:	e012      	b.n	2649c <_start+0x1f44>
   26476:	49d0      	ldr	r1, [pc, #832]	@ (267b8 <_start+0x2260>)
   26478:	4469      	add	r1, sp
   2647a:	78c8      	ldrb	r0, [r1, #3]
   2647c:	aa0c      	add	r2, sp, #48	@ 0x30
   2647e:	7090      	strb	r0, [r2, #2]
   26480:	7848      	ldrb	r0, [r1, #1]
   26482:	788b      	ldrb	r3, [r1, #2]
   26484:	021b      	lsls	r3, r3, #8
   26486:	1818      	adds	r0, r3, r0
   26488:	8010      	strh	r0, [r2, #0]
   2648a:	9809      	ldr	r0, [sp, #36]	@ 0x24
   2648c:	6e00      	ldr	r0, [r0, #96]	@ 0x60
   2648e:	900b      	str	r0, [sp, #44]	@ 0x2c
   26490:	3108      	adds	r1, #8
   26492:	48ca      	ldr	r0, [pc, #808]	@ (267bc <_start+0x2264>)
   26494:	4468      	add	r0, sp
   26496:	225a      	movs	r2, #90	@ 0x5a
   26498:	f001 fa7d 	bl	27996 <__aeabi_memcpy4>
   2649c:	2c00      	cmp	r4, #0
   2649e:	d001      	beq.n	264a4 <_start+0x1f4c>
   264a0:	f7fe f952 	bl	24748 <_start+0x1f0>
   264a4:	4dc7      	ldr	r5, [pc, #796]	@ (267c4 <_start+0x226c>)
   264a6:	446d      	add	r5, sp
   264a8:	990b      	ldr	r1, [sp, #44]	@ 0x2c
   264aa:	70e9      	strb	r1, [r5, #3]
   264ac:	980c      	ldr	r0, [sp, #48]	@ 0x30
   264ae:	8028      	strh	r0, [r5, #0]
   264b0:	0e08      	lsrs	r0, r1, #24
   264b2:	71a8      	strb	r0, [r5, #6]
   264b4:	0c08      	lsrs	r0, r1, #16
   264b6:	7168      	strb	r0, [r5, #5]
   264b8:	0a08      	lsrs	r0, r1, #8
   264ba:	7128      	strb	r0, [r5, #4]
   264bc:	a80c      	add	r0, sp, #48	@ 0x30
   264be:	7880      	ldrb	r0, [r0, #2]
   264c0:	70a8      	strb	r0, [r5, #2]
   264c2:	1de8      	adds	r0, r5, #7
   264c4:	49bd      	ldr	r1, [pc, #756]	@ (267bc <_start+0x2264>)
   264c6:	4469      	add	r1, sp
   264c8:	225a      	movs	r2, #90	@ 0x5a
   264ca:	f001 fbc4 	bl	27c56 <__aeabi_memcpy>
   264ce:	4cba      	ldr	r4, [pc, #744]	@ (267b8 <_start+0x2260>)
   264d0:	446c      	add	r4, sp
   264d2:	4620      	mov	r0, r4
   264d4:	4629      	mov	r1, r5
   264d6:	f7f9 ff14 	bl	20302 <_ZN18complex_no_dynamic3app17h05ba7569ceff0753E>
   264da:	7820      	ldrb	r0, [r4, #0]
   264dc:	2801      	cmp	r0, #1
   264de:	d103      	bne.n	264e8 <_start+0x1f90>
   264e0:	9909      	ldr	r1, [sp, #36]	@ 0x24
   264e2:	6e09      	ldr	r1, [r1, #96]	@ 0x60
   264e4:	910b      	str	r1, [sp, #44]	@ 0x2c
   264e6:	e017      	b.n	26518 <_start+0x1fc0>
   264e8:	49b3      	ldr	r1, [pc, #716]	@ (267b8 <_start+0x2260>)
   264ea:	4469      	add	r1, sp
   264ec:	78ca      	ldrb	r2, [r1, #3]
   264ee:	ab0c      	add	r3, sp, #48	@ 0x30
   264f0:	709a      	strb	r2, [r3, #2]
   264f2:	784a      	ldrb	r2, [r1, #1]
   264f4:	788c      	ldrb	r4, [r1, #2]
   264f6:	0224      	lsls	r4, r4, #8
   264f8:	18a2      	adds	r2, r4, r2
   264fa:	801a      	strh	r2, [r3, #0]
   264fc:	3108      	adds	r1, #8
   264fe:	9a09      	ldr	r2, [sp, #36]	@ 0x24
   26500:	6e12      	ldr	r2, [r2, #96]	@ 0x60
   26502:	920b      	str	r2, [sp, #44]	@ 0x2c
   26504:	4aad      	ldr	r2, [pc, #692]	@ (267bc <_start+0x2264>)
   26506:	446a      	add	r2, sp
   26508:	c918      	ldmia	r1!, {r3, r4}
   2650a:	c218      	stmia	r2!, {r3, r4}
   2650c:	c938      	ldmia	r1!, {r3, r4, r5}
   2650e:	c238      	stmia	r2!, {r3, r4, r5}
   26510:	880b      	ldrh	r3, [r1, #0]
   26512:	8013      	strh	r3, [r2, #0]
   26514:	7889      	ldrb	r1, [r1, #2]
   26516:	7091      	strb	r1, [r2, #2]
   26518:	2800      	cmp	r0, #0
   2651a:	d001      	beq.n	26520 <_start+0x1fc8>
   2651c:	f7fe f914 	bl	24748 <_start+0x1f0>
   26520:	4da9      	ldr	r5, [pc, #676]	@ (267c8 <_start+0x2270>)
   26522:	446d      	add	r5, sp
   26524:	990b      	ldr	r1, [sp, #44]	@ 0x2c
   26526:	70e9      	strb	r1, [r5, #3]
   26528:	980c      	ldr	r0, [sp, #48]	@ 0x30
   2652a:	8028      	strh	r0, [r5, #0]
   2652c:	0e08      	lsrs	r0, r1, #24
   2652e:	71a8      	strb	r0, [r5, #6]
   26530:	0c08      	lsrs	r0, r1, #16
   26532:	7168      	strb	r0, [r5, #5]
   26534:	0a08      	lsrs	r0, r1, #8
   26536:	7128      	strb	r0, [r5, #4]
   26538:	a80c      	add	r0, sp, #48	@ 0x30
   2653a:	7880      	ldrb	r0, [r0, #2]
   2653c:	70a8      	strb	r0, [r5, #2]
   2653e:	1de8      	adds	r0, r5, #7
   26540:	499e      	ldr	r1, [pc, #632]	@ (267bc <_start+0x2264>)
   26542:	4469      	add	r1, sp
   26544:	2217      	movs	r2, #23
   26546:	f001 fb86 	bl	27c56 <__aeabi_memcpy>
   2654a:	4c9b      	ldr	r4, [pc, #620]	@ (267b8 <_start+0x2260>)
   2654c:	446c      	add	r4, sp
   2654e:	4620      	mov	r0, r4
   26550:	4629      	mov	r1, r5
   26552:	f7fc f94d 	bl	227f0 <_ZN18complex_no_dynamic3app17h92a9a19f1679a797E>
   26556:	7820      	ldrb	r0, [r4, #0]
   26558:	2801      	cmp	r0, #1
   2655a:	d103      	bne.n	26564 <_start+0x200c>
   2655c:	9909      	ldr	r1, [sp, #36]	@ 0x24
   2655e:	6e09      	ldr	r1, [r1, #96]	@ 0x60
   26560:	910b      	str	r1, [sp, #44]	@ 0x2c
   26562:	e015      	b.n	26590 <_start+0x2038>
   26564:	4994      	ldr	r1, [pc, #592]	@ (267b8 <_start+0x2260>)
   26566:	4469      	add	r1, sp
   26568:	78ca      	ldrb	r2, [r1, #3]
   2656a:	ab0c      	add	r3, sp, #48	@ 0x30
   2656c:	709a      	strb	r2, [r3, #2]
   2656e:	784a      	ldrb	r2, [r1, #1]
   26570:	788c      	ldrb	r4, [r1, #2]
   26572:	0224      	lsls	r4, r4, #8
   26574:	18a2      	adds	r2, r4, r2
   26576:	801a      	strh	r2, [r3, #0]
   26578:	3108      	adds	r1, #8
   2657a:	9a09      	ldr	r2, [sp, #36]	@ 0x24
   2657c:	6e12      	ldr	r2, [r2, #96]	@ 0x60
   2657e:	920b      	str	r2, [sp, #44]	@ 0x2c
   26580:	4a8e      	ldr	r2, [pc, #568]	@ (267bc <_start+0x2264>)
   26582:	446a      	add	r2, sp
   26584:	c938      	ldmia	r1!, {r3, r4, r5}
   26586:	c238      	stmia	r2!, {r3, r4, r5}
   26588:	c938      	ldmia	r1!, {r3, r4, r5}
   2658a:	c238      	stmia	r2!, {r3, r4, r5}
   2658c:	8809      	ldrh	r1, [r1, #0]
   2658e:	8011      	strh	r1, [r2, #0]
   26590:	2800      	cmp	r0, #0
   26592:	d001      	beq.n	26598 <_start+0x2040>
   26594:	f7fe f8d8 	bl	24748 <_start+0x1f0>
   26598:	4d8c      	ldr	r5, [pc, #560]	@ (267cc <_start+0x2274>)
   2659a:	446d      	add	r5, sp
   2659c:	990b      	ldr	r1, [sp, #44]	@ 0x2c
   2659e:	70e9      	strb	r1, [r5, #3]
   265a0:	980c      	ldr	r0, [sp, #48]	@ 0x30
   265a2:	8028      	strh	r0, [r5, #0]
   265a4:	0e08      	lsrs	r0, r1, #24
   265a6:	71a8      	strb	r0, [r5, #6]
   265a8:	0c08      	lsrs	r0, r1, #16
   265aa:	7168      	strb	r0, [r5, #5]
   265ac:	0a08      	lsrs	r0, r1, #8
   265ae:	7128      	strb	r0, [r5, #4]
   265b0:	a80c      	add	r0, sp, #48	@ 0x30
   265b2:	7880      	ldrb	r0, [r0, #2]
   265b4:	70a8      	strb	r0, [r5, #2]
   265b6:	1de8      	adds	r0, r5, #7
   265b8:	4980      	ldr	r1, [pc, #512]	@ (267bc <_start+0x2264>)
   265ba:	4469      	add	r1, sp
   265bc:	221a      	movs	r2, #26
   265be:	f001 fb4a 	bl	27c56 <__aeabi_memcpy>
   265c2:	4c7d      	ldr	r4, [pc, #500]	@ (267b8 <_start+0x2260>)
   265c4:	446c      	add	r4, sp
   265c6:	4620      	mov	r0, r4
   265c8:	4629      	mov	r1, r5
   265ca:	f7fc fb91 	bl	22cf0 <_ZN18complex_no_dynamic3app17ha09759f3f37973f7E>
   265ce:	7820      	ldrb	r0, [r4, #0]
   265d0:	2801      	cmp	r0, #1
   265d2:	d103      	bne.n	265dc <_start+0x2084>
   265d4:	9909      	ldr	r1, [sp, #36]	@ 0x24
   265d6:	6e09      	ldr	r1, [r1, #96]	@ 0x60
   265d8:	910b      	str	r1, [sp, #44]	@ 0x2c
   265da:	e017      	b.n	2660c <_start+0x20b4>
   265dc:	4976      	ldr	r1, [pc, #472]	@ (267b8 <_start+0x2260>)
   265de:	4469      	add	r1, sp
   265e0:	78ca      	ldrb	r2, [r1, #3]
   265e2:	ab0c      	add	r3, sp, #48	@ 0x30
   265e4:	709a      	strb	r2, [r3, #2]
   265e6:	784a      	ldrb	r2, [r1, #1]
   265e8:	788c      	ldrb	r4, [r1, #2]
   265ea:	0224      	lsls	r4, r4, #8
   265ec:	18a2      	adds	r2, r4, r2
   265ee:	801a      	strh	r2, [r3, #0]
   265f0:	3108      	adds	r1, #8
   265f2:	9a09      	ldr	r2, [sp, #36]	@ 0x24
   265f4:	6e12      	ldr	r2, [r2, #96]	@ 0x60
   265f6:	920b      	str	r2, [sp, #44]	@ 0x2c
   265f8:	4a70      	ldr	r2, [pc, #448]	@ (267bc <_start+0x2264>)
   265fa:	446a      	add	r2, sp
   265fc:	c978      	ldmia	r1!, {r3, r4, r5, r6}
   265fe:	c278      	stmia	r2!, {r3, r4, r5, r6}
   26600:	c978      	ldmia	r1!, {r3, r4, r5, r6}
   26602:	c278      	stmia	r2!, {r3, r4, r5, r6}
   26604:	880b      	ldrh	r3, [r1, #0]
   26606:	8013      	strh	r3, [r2, #0]
   26608:	7889      	ldrb	r1, [r1, #2]
   2660a:	7091      	strb	r1, [r2, #2]
   2660c:	2800      	cmp	r0, #0
   2660e:	d001      	beq.n	26614 <_start+0x20bc>
   26610:	f7fe f89a 	bl	24748 <_start+0x1f0>
   26614:	4d6e      	ldr	r5, [pc, #440]	@ (267d0 <_start+0x2278>)
   26616:	446d      	add	r5, sp
   26618:	990b      	ldr	r1, [sp, #44]	@ 0x2c
   2661a:	70e9      	strb	r1, [r5, #3]
   2661c:	980c      	ldr	r0, [sp, #48]	@ 0x30
   2661e:	8028      	strh	r0, [r5, #0]
   26620:	0e08      	lsrs	r0, r1, #24
   26622:	71a8      	strb	r0, [r5, #6]
   26624:	0c08      	lsrs	r0, r1, #16
   26626:	7168      	strb	r0, [r5, #5]
   26628:	0a08      	lsrs	r0, r1, #8
   2662a:	7128      	strb	r0, [r5, #4]
   2662c:	a80c      	add	r0, sp, #48	@ 0x30
   2662e:	7880      	ldrb	r0, [r0, #2]
   26630:	70a8      	strb	r0, [r5, #2]
   26632:	1de8      	adds	r0, r5, #7
   26634:	4961      	ldr	r1, [pc, #388]	@ (267bc <_start+0x2264>)
   26636:	4469      	add	r1, sp
   26638:	2223      	movs	r2, #35	@ 0x23
   2663a:	f001 fb0c 	bl	27c56 <__aeabi_memcpy>
   2663e:	4c5e      	ldr	r4, [pc, #376]	@ (267b8 <_start+0x2260>)
   26640:	446c      	add	r4, sp
   26642:	4620      	mov	r0, r4
   26644:	4629      	mov	r1, r5
   26646:	f7fd f915 	bl	23874 <_ZN18complex_no_dynamic3app17hc5c3d3f09f2020a0E>
   2664a:	7824      	ldrb	r4, [r4, #0]
   2664c:	2c01      	cmp	r4, #1
   2664e:	d103      	bne.n	26658 <_start+0x2100>
   26650:	9809      	ldr	r0, [sp, #36]	@ 0x24
   26652:	6e00      	ldr	r0, [r0, #96]	@ 0x60
   26654:	900b      	str	r0, [sp, #44]	@ 0x2c
   26656:	e012      	b.n	2667e <_start+0x2126>
   26658:	4957      	ldr	r1, [pc, #348]	@ (267b8 <_start+0x2260>)
   2665a:	4469      	add	r1, sp
   2665c:	78c8      	ldrb	r0, [r1, #3]
   2665e:	aa0c      	add	r2, sp, #48	@ 0x30
   26660:	7090      	strb	r0, [r2, #2]
   26662:	7848      	ldrb	r0, [r1, #1]
   26664:	788b      	ldrb	r3, [r1, #2]
   26666:	021b      	lsls	r3, r3, #8
   26668:	1818      	adds	r0, r3, r0
   2666a:	8010      	strh	r0, [r2, #0]
   2666c:	9809      	ldr	r0, [sp, #36]	@ 0x24
   2666e:	6e00      	ldr	r0, [r0, #96]	@ 0x60
   26670:	900b      	str	r0, [sp, #44]	@ 0x2c
   26672:	3108      	adds	r1, #8
   26674:	4851      	ldr	r0, [pc, #324]	@ (267bc <_start+0x2264>)
   26676:	4468      	add	r0, sp
   26678:	2252      	movs	r2, #82	@ 0x52
   2667a:	f001 f98c 	bl	27996 <__aeabi_memcpy4>
   2667e:	2c00      	cmp	r4, #0
   26680:	d001      	beq.n	26686 <_start+0x212e>
   26682:	f7fe f861 	bl	24748 <_start+0x1f0>
   26686:	4d53      	ldr	r5, [pc, #332]	@ (267d4 <_start+0x227c>)
   26688:	446d      	add	r5, sp
   2668a:	990b      	ldr	r1, [sp, #44]	@ 0x2c
   2668c:	70e9      	strb	r1, [r5, #3]
   2668e:	980c      	ldr	r0, [sp, #48]	@ 0x30
   26690:	8028      	strh	r0, [r5, #0]
   26692:	0e08      	lsrs	r0, r1, #24
   26694:	71a8      	strb	r0, [r5, #6]
   26696:	0c08      	lsrs	r0, r1, #16
   26698:	7168      	strb	r0, [r5, #5]
   2669a:	0a08      	lsrs	r0, r1, #8
   2669c:	7128      	strb	r0, [r5, #4]
   2669e:	a80c      	add	r0, sp, #48	@ 0x30
   266a0:	7880      	ldrb	r0, [r0, #2]
   266a2:	70a8      	strb	r0, [r5, #2]
   266a4:	1de8      	adds	r0, r5, #7
   266a6:	4945      	ldr	r1, [pc, #276]	@ (267bc <_start+0x2264>)
   266a8:	4469      	add	r1, sp
   266aa:	2252      	movs	r2, #82	@ 0x52
   266ac:	f001 fad3 	bl	27c56 <__aeabi_memcpy>
   266b0:	4c41      	ldr	r4, [pc, #260]	@ (267b8 <_start+0x2260>)
   266b2:	446c      	add	r4, sp
   266b4:	4620      	mov	r0, r4
   266b6:	4629      	mov	r1, r5
   266b8:	f7fa ffb4 	bl	21624 <_ZN18complex_no_dynamic3app17h438ab2128b9ad349E>
   266bc:	7824      	ldrb	r4, [r4, #0]
   266be:	2c01      	cmp	r4, #1
   266c0:	d103      	bne.n	266ca <_start+0x2172>
   266c2:	9809      	ldr	r0, [sp, #36]	@ 0x24
   266c4:	6e00      	ldr	r0, [r0, #96]	@ 0x60
   266c6:	900b      	str	r0, [sp, #44]	@ 0x2c
   266c8:	e012      	b.n	266f0 <_start+0x2198>
   266ca:	493b      	ldr	r1, [pc, #236]	@ (267b8 <_start+0x2260>)
   266cc:	4469      	add	r1, sp
   266ce:	78c8      	ldrb	r0, [r1, #3]
   266d0:	aa0c      	add	r2, sp, #48	@ 0x30
   266d2:	7090      	strb	r0, [r2, #2]
   266d4:	7848      	ldrb	r0, [r1, #1]
   266d6:	788b      	ldrb	r3, [r1, #2]
   266d8:	021b      	lsls	r3, r3, #8
   266da:	1818      	adds	r0, r3, r0
   266dc:	8010      	strh	r0, [r2, #0]
   266de:	9809      	ldr	r0, [sp, #36]	@ 0x24
   266e0:	6e00      	ldr	r0, [r0, #96]	@ 0x60
   266e2:	900b      	str	r0, [sp, #44]	@ 0x2c
   266e4:	3108      	adds	r1, #8
   266e6:	4835      	ldr	r0, [pc, #212]	@ (267bc <_start+0x2264>)
   266e8:	4468      	add	r0, sp
   266ea:	2243      	movs	r2, #67	@ 0x43
   266ec:	f001 f953 	bl	27996 <__aeabi_memcpy4>
   266f0:	2c00      	cmp	r4, #0
   266f2:	d001      	beq.n	266f8 <_start+0x21a0>
   266f4:	f7fe f828 	bl	24748 <_start+0x1f0>
   266f8:	4d37      	ldr	r5, [pc, #220]	@ (267d8 <_start+0x2280>)
   266fa:	446d      	add	r5, sp
   266fc:	990b      	ldr	r1, [sp, #44]	@ 0x2c
   266fe:	70e9      	strb	r1, [r5, #3]
   26700:	980c      	ldr	r0, [sp, #48]	@ 0x30
   26702:	8028      	strh	r0, [r5, #0]
   26704:	0e08      	lsrs	r0, r1, #24
   26706:	71a8      	strb	r0, [r5, #6]
   26708:	0c08      	lsrs	r0, r1, #16
   2670a:	7168      	strb	r0, [r5, #5]
   2670c:	0a08      	lsrs	r0, r1, #8
   2670e:	7128      	strb	r0, [r5, #4]
   26710:	a80c      	add	r0, sp, #48	@ 0x30
   26712:	7880      	ldrb	r0, [r0, #2]
   26714:	70a8      	strb	r0, [r5, #2]
   26716:	1de8      	adds	r0, r5, #7
   26718:	4928      	ldr	r1, [pc, #160]	@ (267bc <_start+0x2264>)
   2671a:	4469      	add	r1, sp
   2671c:	2243      	movs	r2, #67	@ 0x43
   2671e:	f001 fa9a 	bl	27c56 <__aeabi_memcpy>
   26722:	4c25      	ldr	r4, [pc, #148]	@ (267b8 <_start+0x2260>)
   26724:	446c      	add	r4, sp
   26726:	4620      	mov	r0, r4
   26728:	4629      	mov	r1, r5
   2672a:	f7f9 fcdb 	bl	200e4 <_ZN18complex_no_dynamic3app17h006667351cc272c5E>
   2672e:	7820      	ldrb	r0, [r4, #0]
   26730:	2801      	cmp	r0, #1
   26732:	d103      	bne.n	2673c <_start+0x21e4>
   26734:	9909      	ldr	r1, [sp, #36]	@ 0x24
   26736:	6e09      	ldr	r1, [r1, #96]	@ 0x60
   26738:	910b      	str	r1, [sp, #44]	@ 0x2c
   2673a:	e017      	b.n	2676c <_start+0x2214>
   2673c:	491e      	ldr	r1, [pc, #120]	@ (267b8 <_start+0x2260>)
   2673e:	4469      	add	r1, sp
   26740:	78ca      	ldrb	r2, [r1, #3]
   26742:	ab0c      	add	r3, sp, #48	@ 0x30
   26744:	709a      	strb	r2, [r3, #2]
   26746:	784a      	ldrb	r2, [r1, #1]
   26748:	788c      	ldrb	r4, [r1, #2]
   2674a:	0224      	lsls	r4, r4, #8
   2674c:	18a2      	adds	r2, r4, r2
   2674e:	801a      	strh	r2, [r3, #0]
   26750:	3108      	adds	r1, #8
   26752:	9a09      	ldr	r2, [sp, #36]	@ 0x24
   26754:	6e12      	ldr	r2, [r2, #96]	@ 0x60
   26756:	920b      	str	r2, [sp, #44]	@ 0x2c
   26758:	4a18      	ldr	r2, [pc, #96]	@ (267bc <_start+0x2264>)
   2675a:	446a      	add	r2, sp
   2675c:	c938      	ldmia	r1!, {r3, r4, r5}
   2675e:	c238      	stmia	r2!, {r3, r4, r5}
   26760:	c938      	ldmia	r1!, {r3, r4, r5}
   26762:	c238      	stmia	r2!, {r3, r4, r5}
   26764:	c938      	ldmia	r1!, {r3, r4, r5}
   26766:	c238      	stmia	r2!, {r3, r4, r5}
   26768:	8809      	ldrh	r1, [r1, #0]
   2676a:	8011      	strh	r1, [r2, #0]
   2676c:	2800      	cmp	r0, #0
   2676e:	d001      	beq.n	26774 <_start+0x221c>
   26770:	f7fd ffea 	bl	24748 <_start+0x1f0>
   26774:	4d19      	ldr	r5, [pc, #100]	@ (267dc <_start+0x2284>)
   26776:	446d      	add	r5, sp
   26778:	990b      	ldr	r1, [sp, #44]	@ 0x2c
   2677a:	70e9      	strb	r1, [r5, #3]
   2677c:	980c      	ldr	r0, [sp, #48]	@ 0x30
   2677e:	8028      	strh	r0, [r5, #0]
   26780:	0e08      	lsrs	r0, r1, #24
   26782:	71a8      	strb	r0, [r5, #6]
   26784:	0c08      	lsrs	r0, r1, #16
   26786:	7168      	strb	r0, [r5, #5]
   26788:	0a08      	lsrs	r0, r1, #8
   2678a:	7128      	strb	r0, [r5, #4]
   2678c:	a80c      	add	r0, sp, #48	@ 0x30
   2678e:	7880      	ldrb	r0, [r0, #2]
   26790:	70a8      	strb	r0, [r5, #2]
   26792:	1de8      	adds	r0, r5, #7
   26794:	4909      	ldr	r1, [pc, #36]	@ (267bc <_start+0x2264>)
   26796:	4469      	add	r1, sp
   26798:	2226      	movs	r2, #38	@ 0x26
   2679a:	f001 fa5c 	bl	27c56 <__aeabi_memcpy>
   2679e:	4c06      	ldr	r4, [pc, #24]	@ (267b8 <_start+0x2260>)
   267a0:	446c      	add	r4, sp
   267a2:	4620      	mov	r0, r4
   267a4:	4629      	mov	r1, r5
   267a6:	f7fc f8d9 	bl	2295c <_ZN18complex_no_dynamic3app17h99e2db3eeecd8ed9E>
   267aa:	7824      	ldrb	r4, [r4, #0]
   267ac:	2c01      	cmp	r4, #1
   267ae:	d117      	bne.n	267e0 <_start+0x2288>
   267b0:	9809      	ldr	r0, [sp, #36]	@ 0x24
   267b2:	6e00      	ldr	r0, [r0, #96]	@ 0x60
   267b4:	900b      	str	r0, [sp, #44]	@ 0x2c
   267b6:	e026      	b.n	26806 <_start+0x22ae>
   267b8:	00001404 	.word	0x00001404
   267bc:	000013a8 	.word	0x000013a8
   267c0:	00000af0 	.word	0x00000af0
   267c4:	00000b40 	.word	0x00000b40
   267c8:	00000ba4 	.word	0x00000ba4
   267cc:	00000bc4 	.word	0x00000bc4
   267d0:	00000be8 	.word	0x00000be8
   267d4:	00000c14 	.word	0x00000c14
   267d8:	00000c70 	.word	0x00000c70
   267dc:	00000cbc 	.word	0x00000cbc
   267e0:	49f0      	ldr	r1, [pc, #960]	@ (26ba4 <_start+0x264c>)
   267e2:	4469      	add	r1, sp
   267e4:	78c8      	ldrb	r0, [r1, #3]
   267e6:	aa0c      	add	r2, sp, #48	@ 0x30
   267e8:	7090      	strb	r0, [r2, #2]
   267ea:	7848      	ldrb	r0, [r1, #1]
   267ec:	788b      	ldrb	r3, [r1, #2]
   267ee:	021b      	lsls	r3, r3, #8
   267f0:	1818      	adds	r0, r3, r0
   267f2:	8010      	strh	r0, [r2, #0]
   267f4:	9809      	ldr	r0, [sp, #36]	@ 0x24
   267f6:	6e00      	ldr	r0, [r0, #96]	@ 0x60
   267f8:	900b      	str	r0, [sp, #44]	@ 0x2c
   267fa:	3108      	adds	r1, #8
   267fc:	48ea      	ldr	r0, [pc, #936]	@ (26ba8 <_start+0x2650>)
   267fe:	4468      	add	r0, sp
   26800:	224c      	movs	r2, #76	@ 0x4c
   26802:	f001 f8c8 	bl	27996 <__aeabi_memcpy4>
   26806:	2c00      	cmp	r4, #0
   26808:	d001      	beq.n	2680e <_start+0x22b6>
   2680a:	f7fd ff9d 	bl	24748 <_start+0x1f0>
   2680e:	4de7      	ldr	r5, [pc, #924]	@ (26bac <_start+0x2654>)
   26810:	446d      	add	r5, sp
   26812:	990b      	ldr	r1, [sp, #44]	@ 0x2c
   26814:	70e9      	strb	r1, [r5, #3]
   26816:	980c      	ldr	r0, [sp, #48]	@ 0x30
   26818:	8028      	strh	r0, [r5, #0]
   2681a:	0e08      	lsrs	r0, r1, #24
   2681c:	71a8      	strb	r0, [r5, #6]
   2681e:	0c08      	lsrs	r0, r1, #16
   26820:	7168      	strb	r0, [r5, #5]
   26822:	0a08      	lsrs	r0, r1, #8
   26824:	7128      	strb	r0, [r5, #4]
   26826:	a80c      	add	r0, sp, #48	@ 0x30
   26828:	7880      	ldrb	r0, [r0, #2]
   2682a:	70a8      	strb	r0, [r5, #2]
   2682c:	1de8      	adds	r0, r5, #7
   2682e:	49de      	ldr	r1, [pc, #888]	@ (26ba8 <_start+0x2650>)
   26830:	4469      	add	r1, sp
   26832:	224c      	movs	r2, #76	@ 0x4c
   26834:	f001 fa0f 	bl	27c56 <__aeabi_memcpy>
   26838:	4cda      	ldr	r4, [pc, #872]	@ (26ba4 <_start+0x264c>)
   2683a:	446c      	add	r4, sp
   2683c:	4620      	mov	r0, r4
   2683e:	4629      	mov	r1, r5
   26840:	f7fb fd06 	bl	22250 <_ZN18complex_no_dynamic3app17h78ab1949d582ec92E>
   26844:	7820      	ldrb	r0, [r4, #0]
   26846:	2801      	cmp	r0, #1
   26848:	d103      	bne.n	26852 <_start+0x22fa>
   2684a:	9909      	ldr	r1, [sp, #36]	@ 0x24
   2684c:	6e09      	ldr	r1, [r1, #96]	@ 0x60
   2684e:	910b      	str	r1, [sp, #44]	@ 0x2c
   26850:	e019      	b.n	26886 <_start+0x232e>
   26852:	49d4      	ldr	r1, [pc, #848]	@ (26ba4 <_start+0x264c>)
   26854:	4469      	add	r1, sp
   26856:	78ca      	ldrb	r2, [r1, #3]
   26858:	ab0c      	add	r3, sp, #48	@ 0x30
   2685a:	709a      	strb	r2, [r3, #2]
   2685c:	784a      	ldrb	r2, [r1, #1]
   2685e:	788c      	ldrb	r4, [r1, #2]
   26860:	0224      	lsls	r4, r4, #8
   26862:	18a2      	adds	r2, r4, r2
   26864:	801a      	strh	r2, [r3, #0]
   26866:	3108      	adds	r1, #8
   26868:	9a09      	ldr	r2, [sp, #36]	@ 0x24
   2686a:	6e12      	ldr	r2, [r2, #96]	@ 0x60
   2686c:	920b      	str	r2, [sp, #44]	@ 0x2c
   2686e:	4ace      	ldr	r2, [pc, #824]	@ (26ba8 <_start+0x2650>)
   26870:	446a      	add	r2, sp
   26872:	c978      	ldmia	r1!, {r3, r4, r5, r6}
   26874:	c278      	stmia	r2!, {r3, r4, r5, r6}
   26876:	c978      	ldmia	r1!, {r3, r4, r5, r6}
   26878:	c278      	stmia	r2!, {r3, r4, r5, r6}
   2687a:	c978      	ldmia	r1!, {r3, r4, r5, r6}
   2687c:	c278      	stmia	r2!, {r3, r4, r5, r6}
   2687e:	880b      	ldrh	r3, [r1, #0]
   26880:	8013      	strh	r3, [r2, #0]
   26882:	7889      	ldrb	r1, [r1, #2]
   26884:	7091      	strb	r1, [r2, #2]
   26886:	2800      	cmp	r0, #0
   26888:	d001      	beq.n	2688e <_start+0x2336>
   2688a:	f7fd ff5d 	bl	24748 <_start+0x1f0>
   2688e:	4dc8      	ldr	r5, [pc, #800]	@ (26bb0 <_start+0x2658>)
   26890:	446d      	add	r5, sp
   26892:	990b      	ldr	r1, [sp, #44]	@ 0x2c
   26894:	70e9      	strb	r1, [r5, #3]
   26896:	980c      	ldr	r0, [sp, #48]	@ 0x30
   26898:	8028      	strh	r0, [r5, #0]
   2689a:	0e08      	lsrs	r0, r1, #24
   2689c:	71a8      	strb	r0, [r5, #6]
   2689e:	0c08      	lsrs	r0, r1, #16
   268a0:	7168      	strb	r0, [r5, #5]
   268a2:	0a08      	lsrs	r0, r1, #8
   268a4:	7128      	strb	r0, [r5, #4]
   268a6:	a80c      	add	r0, sp, #48	@ 0x30
   268a8:	7880      	ldrb	r0, [r0, #2]
   268aa:	70a8      	strb	r0, [r5, #2]
   268ac:	1de8      	adds	r0, r5, #7
   268ae:	49be      	ldr	r1, [pc, #760]	@ (26ba8 <_start+0x2650>)
   268b0:	4469      	add	r1, sp
   268b2:	2233      	movs	r2, #51	@ 0x33
   268b4:	f001 f9cf 	bl	27c56 <__aeabi_memcpy>
   268b8:	4cba      	ldr	r4, [pc, #744]	@ (26ba4 <_start+0x264c>)
   268ba:	446c      	add	r4, sp
   268bc:	4620      	mov	r0, r4
   268be:	4629      	mov	r1, r5
   268c0:	f7fd f8f4 	bl	23aac <_ZN18complex_no_dynamic3app17hd77a68297416d1dcE>
   268c4:	7824      	ldrb	r4, [r4, #0]
   268c6:	2c01      	cmp	r4, #1
   268c8:	d103      	bne.n	268d2 <_start+0x237a>
   268ca:	9809      	ldr	r0, [sp, #36]	@ 0x24
   268cc:	6e00      	ldr	r0, [r0, #96]	@ 0x60
   268ce:	900b      	str	r0, [sp, #44]	@ 0x2c
   268d0:	e012      	b.n	268f8 <_start+0x23a0>
   268d2:	49b4      	ldr	r1, [pc, #720]	@ (26ba4 <_start+0x264c>)
   268d4:	4469      	add	r1, sp
   268d6:	78c8      	ldrb	r0, [r1, #3]
   268d8:	aa0c      	add	r2, sp, #48	@ 0x30
   268da:	7090      	strb	r0, [r2, #2]
   268dc:	7848      	ldrb	r0, [r1, #1]
   268de:	788b      	ldrb	r3, [r1, #2]
   268e0:	021b      	lsls	r3, r3, #8
   268e2:	1818      	adds	r0, r3, r0
   268e4:	8010      	strh	r0, [r2, #0]
   268e6:	9809      	ldr	r0, [sp, #36]	@ 0x24
   268e8:	6e00      	ldr	r0, [r0, #96]	@ 0x60
   268ea:	900b      	str	r0, [sp, #44]	@ 0x2c
   268ec:	3108      	adds	r1, #8
   268ee:	48ae      	ldr	r0, [pc, #696]	@ (26ba8 <_start+0x2650>)
   268f0:	4468      	add	r0, sp
   268f2:	2256      	movs	r2, #86	@ 0x56
   268f4:	f001 f84f 	bl	27996 <__aeabi_memcpy4>
   268f8:	2c00      	cmp	r4, #0
   268fa:	d001      	beq.n	26900 <_start+0x23a8>
   268fc:	f7fd ff24 	bl	24748 <_start+0x1f0>
   26900:	4dac      	ldr	r5, [pc, #688]	@ (26bb4 <_start+0x265c>)
   26902:	446d      	add	r5, sp
   26904:	990b      	ldr	r1, [sp, #44]	@ 0x2c
   26906:	70e9      	strb	r1, [r5, #3]
   26908:	980c      	ldr	r0, [sp, #48]	@ 0x30
   2690a:	8028      	strh	r0, [r5, #0]
   2690c:	0e08      	lsrs	r0, r1, #24
   2690e:	71a8      	strb	r0, [r5, #6]
   26910:	0c08      	lsrs	r0, r1, #16
   26912:	7168      	strb	r0, [r5, #5]
   26914:	0a08      	lsrs	r0, r1, #8
   26916:	7128      	strb	r0, [r5, #4]
   26918:	a80c      	add	r0, sp, #48	@ 0x30
   2691a:	7880      	ldrb	r0, [r0, #2]
   2691c:	70a8      	strb	r0, [r5, #2]
   2691e:	1de8      	adds	r0, r5, #7
   26920:	49a1      	ldr	r1, [pc, #644]	@ (26ba8 <_start+0x2650>)
   26922:	4469      	add	r1, sp
   26924:	2256      	movs	r2, #86	@ 0x56
   26926:	f001 f996 	bl	27c56 <__aeabi_memcpy>
   2692a:	4c9e      	ldr	r4, [pc, #632]	@ (26ba4 <_start+0x264c>)
   2692c:	446c      	add	r4, sp
   2692e:	4620      	mov	r0, r4
   26930:	4629      	mov	r1, r5
   26932:	f7fa fed5 	bl	216e0 <_ZN18complex_no_dynamic3app17h47fd253a2c874cb2E>
   26936:	7820      	ldrb	r0, [r4, #0]
   26938:	2801      	cmp	r0, #1
   2693a:	d103      	bne.n	26944 <_start+0x23ec>
   2693c:	9909      	ldr	r1, [sp, #36]	@ 0x24
   2693e:	6e09      	ldr	r1, [r1, #96]	@ 0x60
   26940:	910b      	str	r1, [sp, #44]	@ 0x2c
   26942:	e019      	b.n	26978 <_start+0x2420>
   26944:	4997      	ldr	r1, [pc, #604]	@ (26ba4 <_start+0x264c>)
   26946:	4469      	add	r1, sp
   26948:	78ca      	ldrb	r2, [r1, #3]
   2694a:	ab0c      	add	r3, sp, #48	@ 0x30
   2694c:	709a      	strb	r2, [r3, #2]
   2694e:	784a      	ldrb	r2, [r1, #1]
   26950:	788c      	ldrb	r4, [r1, #2]
   26952:	0224      	lsls	r4, r4, #8
   26954:	18a2      	adds	r2, r4, r2
   26956:	801a      	strh	r2, [r3, #0]
   26958:	3108      	adds	r1, #8
   2695a:	9a09      	ldr	r2, [sp, #36]	@ 0x24
   2695c:	6e12      	ldr	r2, [r2, #96]	@ 0x60
   2695e:	920b      	str	r2, [sp, #44]	@ 0x2c
   26960:	4a91      	ldr	r2, [pc, #580]	@ (26ba8 <_start+0x2650>)
   26962:	446a      	add	r2, sp
   26964:	c938      	ldmia	r1!, {r3, r4, r5}
   26966:	c238      	stmia	r2!, {r3, r4, r5}
   26968:	c978      	ldmia	r1!, {r3, r4, r5, r6}
   2696a:	c278      	stmia	r2!, {r3, r4, r5, r6}
   2696c:	c938      	ldmia	r1!, {r3, r4, r5}
   2696e:	c238      	stmia	r2!, {r3, r4, r5}
   26970:	c978      	ldmia	r1!, {r3, r4, r5, r6}
   26972:	c278      	stmia	r2!, {r3, r4, r5, r6}
   26974:	7809      	ldrb	r1, [r1, #0]
   26976:	7011      	strb	r1, [r2, #0]
   26978:	2800      	cmp	r0, #0
   2697a:	d001      	beq.n	26980 <_start+0x2428>
   2697c:	f7fd fee4 	bl	24748 <_start+0x1f0>
   26980:	4d8d      	ldr	r5, [pc, #564]	@ (26bb8 <_start+0x2660>)
   26982:	446d      	add	r5, sp
   26984:	990b      	ldr	r1, [sp, #44]	@ 0x2c
   26986:	70e9      	strb	r1, [r5, #3]
   26988:	980c      	ldr	r0, [sp, #48]	@ 0x30
   2698a:	8028      	strh	r0, [r5, #0]
   2698c:	0e08      	lsrs	r0, r1, #24
   2698e:	71a8      	strb	r0, [r5, #6]
   26990:	0c08      	lsrs	r0, r1, #16
   26992:	7168      	strb	r0, [r5, #5]
   26994:	0a08      	lsrs	r0, r1, #8
   26996:	7128      	strb	r0, [r5, #4]
   26998:	a80c      	add	r0, sp, #48	@ 0x30
   2699a:	7880      	ldrb	r0, [r0, #2]
   2699c:	70a8      	strb	r0, [r5, #2]
   2699e:	1de8      	adds	r0, r5, #7
   269a0:	4981      	ldr	r1, [pc, #516]	@ (26ba8 <_start+0x2650>)
   269a2:	4469      	add	r1, sp
   269a4:	2239      	movs	r2, #57	@ 0x39
   269a6:	f001 f956 	bl	27c56 <__aeabi_memcpy>
   269aa:	4c7e      	ldr	r4, [pc, #504]	@ (26ba4 <_start+0x264c>)
   269ac:	446c      	add	r4, sp
   269ae:	4620      	mov	r0, r4
   269b0:	4629      	mov	r1, r5
   269b2:	f7fb fec3 	bl	2273c <_ZN18complex_no_dynamic3app17h8db17bbe0fa029e6E>
   269b6:	7820      	ldrb	r0, [r4, #0]
   269b8:	2801      	cmp	r0, #1
   269ba:	d103      	bne.n	269c4 <_start+0x246c>
   269bc:	9909      	ldr	r1, [sp, #36]	@ 0x24
   269be:	6e09      	ldr	r1, [r1, #96]	@ 0x60
   269c0:	910b      	str	r1, [sp, #44]	@ 0x2c
   269c2:	e017      	b.n	269f4 <_start+0x249c>
   269c4:	4977      	ldr	r1, [pc, #476]	@ (26ba4 <_start+0x264c>)
   269c6:	4469      	add	r1, sp
   269c8:	78ca      	ldrb	r2, [r1, #3]
   269ca:	ab0c      	add	r3, sp, #48	@ 0x30
   269cc:	709a      	strb	r2, [r3, #2]
   269ce:	784a      	ldrb	r2, [r1, #1]
   269d0:	788c      	ldrb	r4, [r1, #2]
   269d2:	0224      	lsls	r4, r4, #8
   269d4:	18a2      	adds	r2, r4, r2
   269d6:	801a      	strh	r2, [r3, #0]
   269d8:	3108      	adds	r1, #8
   269da:	9a09      	ldr	r2, [sp, #36]	@ 0x24
   269dc:	6e12      	ldr	r2, [r2, #96]	@ 0x60
   269de:	920b      	str	r2, [sp, #44]	@ 0x2c
   269e0:	4a71      	ldr	r2, [pc, #452]	@ (26ba8 <_start+0x2650>)
   269e2:	446a      	add	r2, sp
   269e4:	c938      	ldmia	r1!, {r3, r4, r5}
   269e6:	c238      	stmia	r2!, {r3, r4, r5}
   269e8:	c938      	ldmia	r1!, {r3, r4, r5}
   269ea:	c238      	stmia	r2!, {r3, r4, r5}
   269ec:	c978      	ldmia	r1!, {r3, r4, r5, r6}
   269ee:	c278      	stmia	r2!, {r3, r4, r5, r6}
   269f0:	8809      	ldrh	r1, [r1, #0]
   269f2:	8011      	strh	r1, [r2, #0]
   269f4:	2800      	cmp	r0, #0
   269f6:	d001      	beq.n	269fc <_start+0x24a4>
   269f8:	f7fd fea6 	bl	24748 <_start+0x1f0>
   269fc:	4d6f      	ldr	r5, [pc, #444]	@ (26bbc <_start+0x2664>)
   269fe:	446d      	add	r5, sp
   26a00:	990b      	ldr	r1, [sp, #44]	@ 0x2c
   26a02:	70e9      	strb	r1, [r5, #3]
   26a04:	980c      	ldr	r0, [sp, #48]	@ 0x30
   26a06:	8028      	strh	r0, [r5, #0]
   26a08:	0e08      	lsrs	r0, r1, #24
   26a0a:	71a8      	strb	r0, [r5, #6]
   26a0c:	0c08      	lsrs	r0, r1, #16
   26a0e:	7168      	strb	r0, [r5, #5]
   26a10:	0a08      	lsrs	r0, r1, #8
   26a12:	7128      	strb	r0, [r5, #4]
   26a14:	a80c      	add	r0, sp, #48	@ 0x30
   26a16:	7880      	ldrb	r0, [r0, #2]
   26a18:	70a8      	strb	r0, [r5, #2]
   26a1a:	1de8      	adds	r0, r5, #7
   26a1c:	4962      	ldr	r1, [pc, #392]	@ (26ba8 <_start+0x2650>)
   26a1e:	4469      	add	r1, sp
   26a20:	222a      	movs	r2, #42	@ 0x2a
   26a22:	f001 f918 	bl	27c56 <__aeabi_memcpy>
   26a26:	4c5f      	ldr	r4, [pc, #380]	@ (26ba4 <_start+0x264c>)
   26a28:	446c      	add	r4, sp
   26a2a:	4620      	mov	r0, r4
   26a2c:	4629      	mov	r1, r5
   26a2e:	f7fc f905 	bl	22c3c <_ZN18complex_no_dynamic3app17ha02b539b3eae5805E>
   26a32:	7824      	ldrb	r4, [r4, #0]
   26a34:	2c01      	cmp	r4, #1
   26a36:	d103      	bne.n	26a40 <_start+0x24e8>
   26a38:	9809      	ldr	r0, [sp, #36]	@ 0x24
   26a3a:	6e00      	ldr	r0, [r0, #96]	@ 0x60
   26a3c:	900b      	str	r0, [sp, #44]	@ 0x2c
   26a3e:	e012      	b.n	26a66 <_start+0x250e>
   26a40:	4958      	ldr	r1, [pc, #352]	@ (26ba4 <_start+0x264c>)
   26a42:	4469      	add	r1, sp
   26a44:	78c8      	ldrb	r0, [r1, #3]
   26a46:	aa0c      	add	r2, sp, #48	@ 0x30
   26a48:	7090      	strb	r0, [r2, #2]
   26a4a:	7848      	ldrb	r0, [r1, #1]
   26a4c:	788b      	ldrb	r3, [r1, #2]
   26a4e:	021b      	lsls	r3, r3, #8
   26a50:	1818      	adds	r0, r3, r0
   26a52:	8010      	strh	r0, [r2, #0]
   26a54:	9809      	ldr	r0, [sp, #36]	@ 0x24
   26a56:	6e00      	ldr	r0, [r0, #96]	@ 0x60
   26a58:	900b      	str	r0, [sp, #44]	@ 0x2c
   26a5a:	3108      	adds	r1, #8
   26a5c:	4852      	ldr	r0, [pc, #328]	@ (26ba8 <_start+0x2650>)
   26a5e:	4468      	add	r0, sp
   26a60:	2241      	movs	r2, #65	@ 0x41
   26a62:	f000 ff98 	bl	27996 <__aeabi_memcpy4>
   26a66:	2c00      	cmp	r4, #0
   26a68:	d001      	beq.n	26a6e <_start+0x2516>
   26a6a:	f7fd fe6d 	bl	24748 <_start+0x1f0>
   26a6e:	4d54      	ldr	r5, [pc, #336]	@ (26bc0 <_start+0x2668>)
   26a70:	446d      	add	r5, sp
   26a72:	990b      	ldr	r1, [sp, #44]	@ 0x2c
   26a74:	70e9      	strb	r1, [r5, #3]
   26a76:	980c      	ldr	r0, [sp, #48]	@ 0x30
   26a78:	8028      	strh	r0, [r5, #0]
   26a7a:	0e08      	lsrs	r0, r1, #24
   26a7c:	71a8      	strb	r0, [r5, #6]
   26a7e:	0c08      	lsrs	r0, r1, #16
   26a80:	7168      	strb	r0, [r5, #5]
   26a82:	0a08      	lsrs	r0, r1, #8
   26a84:	7128      	strb	r0, [r5, #4]
   26a86:	a80c      	add	r0, sp, #48	@ 0x30
   26a88:	7880      	ldrb	r0, [r0, #2]
   26a8a:	70a8      	strb	r0, [r5, #2]
   26a8c:	1de8      	adds	r0, r5, #7
   26a8e:	4946      	ldr	r1, [pc, #280]	@ (26ba8 <_start+0x2650>)
   26a90:	4469      	add	r1, sp
   26a92:	2241      	movs	r2, #65	@ 0x41
   26a94:	f001 f8df 	bl	27c56 <__aeabi_memcpy>
   26a98:	4c42      	ldr	r4, [pc, #264]	@ (26ba4 <_start+0x264c>)
   26a9a:	446c      	add	r4, sp
   26a9c:	4620      	mov	r0, r4
   26a9e:	4629      	mov	r1, r5
   26aa0:	f7fa f834 	bl	20b0c <_ZN18complex_no_dynamic3app17h267e9e2df9f434c7E>
   26aa4:	7820      	ldrb	r0, [r4, #0]
   26aa6:	2801      	cmp	r0, #1
   26aa8:	d103      	bne.n	26ab2 <_start+0x255a>
   26aaa:	9909      	ldr	r1, [sp, #36]	@ 0x24
   26aac:	6e09      	ldr	r1, [r1, #96]	@ 0x60
   26aae:	910b      	str	r1, [sp, #44]	@ 0x2c
   26ab0:	e015      	b.n	26ade <_start+0x2586>
   26ab2:	493c      	ldr	r1, [pc, #240]	@ (26ba4 <_start+0x264c>)
   26ab4:	4469      	add	r1, sp
   26ab6:	78ca      	ldrb	r2, [r1, #3]
   26ab8:	ab0c      	add	r3, sp, #48	@ 0x30
   26aba:	709a      	strb	r2, [r3, #2]
   26abc:	784a      	ldrb	r2, [r1, #1]
   26abe:	788c      	ldrb	r4, [r1, #2]
   26ac0:	0224      	lsls	r4, r4, #8
   26ac2:	18a2      	adds	r2, r4, r2
   26ac4:	801a      	strh	r2, [r3, #0]
   26ac6:	3108      	adds	r1, #8
   26ac8:	9a09      	ldr	r2, [sp, #36]	@ 0x24
   26aca:	6e12      	ldr	r2, [r2, #96]	@ 0x60
   26acc:	920b      	str	r2, [sp, #44]	@ 0x2c
   26ace:	4a36      	ldr	r2, [pc, #216]	@ (26ba8 <_start+0x2650>)
   26ad0:	446a      	add	r2, sp
   26ad2:	c978      	ldmia	r1!, {r3, r4, r5, r6}
   26ad4:	c278      	stmia	r2!, {r3, r4, r5, r6}
   26ad6:	c978      	ldmia	r1!, {r3, r4, r5, r6}
   26ad8:	c278      	stmia	r2!, {r3, r4, r5, r6}
   26ada:	8809      	ldrh	r1, [r1, #0]
   26adc:	8011      	strh	r1, [r2, #0]
   26ade:	2800      	cmp	r0, #0
   26ae0:	d001      	beq.n	26ae6 <_start+0x258e>
   26ae2:	f7fd fe31 	bl	24748 <_start+0x1f0>
   26ae6:	4d37      	ldr	r5, [pc, #220]	@ (26bc4 <_start+0x266c>)
   26ae8:	446d      	add	r5, sp
   26aea:	990b      	ldr	r1, [sp, #44]	@ 0x2c
   26aec:	70e9      	strb	r1, [r5, #3]
   26aee:	980c      	ldr	r0, [sp, #48]	@ 0x30
   26af0:	8028      	strh	r0, [r5, #0]
   26af2:	0e08      	lsrs	r0, r1, #24
   26af4:	71a8      	strb	r0, [r5, #6]
   26af6:	0c08      	lsrs	r0, r1, #16
   26af8:	7168      	strb	r0, [r5, #5]
   26afa:	0a08      	lsrs	r0, r1, #8
   26afc:	7128      	strb	r0, [r5, #4]
   26afe:	a80c      	add	r0, sp, #48	@ 0x30
   26b00:	7880      	ldrb	r0, [r0, #2]
   26b02:	70a8      	strb	r0, [r5, #2]
   26b04:	1de8      	adds	r0, r5, #7
   26b06:	4928      	ldr	r1, [pc, #160]	@ (26ba8 <_start+0x2650>)
   26b08:	4469      	add	r1, sp
   26b0a:	2222      	movs	r2, #34	@ 0x22
   26b0c:	f001 f8a3 	bl	27c56 <__aeabi_memcpy>
   26b10:	4c24      	ldr	r4, [pc, #144]	@ (26ba4 <_start+0x264c>)
   26b12:	446c      	add	r4, sp
   26b14:	4620      	mov	r0, r4
   26b16:	4629      	mov	r1, r5
   26b18:	f7fa fb2e 	bl	21178 <_ZN18complex_no_dynamic3app17h38ad2b6f7a1d8b1dE>
   26b1c:	7820      	ldrb	r0, [r4, #0]
   26b1e:	2801      	cmp	r0, #1
   26b20:	d103      	bne.n	26b2a <_start+0x25d2>
   26b22:	9909      	ldr	r1, [sp, #36]	@ 0x24
   26b24:	6e09      	ldr	r1, [r1, #96]	@ 0x60
   26b26:	910b      	str	r1, [sp, #44]	@ 0x2c
   26b28:	e015      	b.n	26b56 <_start+0x25fe>
   26b2a:	491e      	ldr	r1, [pc, #120]	@ (26ba4 <_start+0x264c>)
   26b2c:	4469      	add	r1, sp
   26b2e:	78ca      	ldrb	r2, [r1, #3]
   26b30:	ab0c      	add	r3, sp, #48	@ 0x30
   26b32:	709a      	strb	r2, [r3, #2]
   26b34:	784a      	ldrb	r2, [r1, #1]
   26b36:	788c      	ldrb	r4, [r1, #2]
   26b38:	0224      	lsls	r4, r4, #8
   26b3a:	18a2      	adds	r2, r4, r2
   26b3c:	801a      	strh	r2, [r3, #0]
   26b3e:	3108      	adds	r1, #8
   26b40:	9a09      	ldr	r2, [sp, #36]	@ 0x24
   26b42:	6e12      	ldr	r2, [r2, #96]	@ 0x60
   26b44:	920b      	str	r2, [sp, #44]	@ 0x2c
   26b46:	4a18      	ldr	r2, [pc, #96]	@ (26ba8 <_start+0x2650>)
   26b48:	446a      	add	r2, sp
   26b4a:	c978      	ldmia	r1!, {r3, r4, r5, r6}
   26b4c:	c278      	stmia	r2!, {r3, r4, r5, r6}
   26b4e:	880b      	ldrh	r3, [r1, #0]
   26b50:	8013      	strh	r3, [r2, #0]
   26b52:	7889      	ldrb	r1, [r1, #2]
   26b54:	7091      	strb	r1, [r2, #2]
   26b56:	2800      	cmp	r0, #0
   26b58:	d001      	beq.n	26b5e <_start+0x2606>
   26b5a:	f7fd fdf5 	bl	24748 <_start+0x1f0>
   26b5e:	4d1a      	ldr	r5, [pc, #104]	@ (26bc8 <_start+0x2670>)
   26b60:	446d      	add	r5, sp
   26b62:	990b      	ldr	r1, [sp, #44]	@ 0x2c
   26b64:	70e9      	strb	r1, [r5, #3]
   26b66:	980c      	ldr	r0, [sp, #48]	@ 0x30
   26b68:	8028      	strh	r0, [r5, #0]
   26b6a:	0e08      	lsrs	r0, r1, #24
   26b6c:	71a8      	strb	r0, [r5, #6]
   26b6e:	0c08      	lsrs	r0, r1, #16
   26b70:	7168      	strb	r0, [r5, #5]
   26b72:	0a08      	lsrs	r0, r1, #8
   26b74:	7128      	strb	r0, [r5, #4]
   26b76:	a80c      	add	r0, sp, #48	@ 0x30
   26b78:	7880      	ldrb	r0, [r0, #2]
   26b7a:	70a8      	strb	r0, [r5, #2]
   26b7c:	1de8      	adds	r0, r5, #7
   26b7e:	490a      	ldr	r1, [pc, #40]	@ (26ba8 <_start+0x2650>)
   26b80:	4469      	add	r1, sp
   26b82:	2213      	movs	r2, #19
   26b84:	f001 f867 	bl	27c56 <__aeabi_memcpy>
   26b88:	4c06      	ldr	r4, [pc, #24]	@ (26ba4 <_start+0x264c>)
   26b8a:	446c      	add	r4, sp
   26b8c:	4620      	mov	r0, r4
   26b8e:	4629      	mov	r1, r5
   26b90:	f7fc fece 	bl	23930 <_ZN18complex_no_dynamic3app17hc95df7e38c051d0fE>
   26b94:	7820      	ldrb	r0, [r4, #0]
   26b96:	2801      	cmp	r0, #1
   26b98:	d118      	bne.n	26bcc <_start+0x2674>
   26b9a:	9909      	ldr	r1, [sp, #36]	@ 0x24
   26b9c:	6e09      	ldr	r1, [r1, #96]	@ 0x60
   26b9e:	910b      	str	r1, [sp, #44]	@ 0x2c
   26ba0:	e028      	b.n	26bf4 <_start+0x269c>
   26ba2:	46c0      	nop			@ (mov r8, r8)
   26ba4:	00001404 	.word	0x00001404
   26ba8:	000013a8 	.word	0x000013a8
   26bac:	00000cec 	.word	0x00000cec
   26bb0:	00000d40 	.word	0x00000d40
   26bb4:	00000d7c 	.word	0x00000d7c
   26bb8:	00000ddc 	.word	0x00000ddc
   26bbc:	00000e1c 	.word	0x00000e1c
   26bc0:	00000e50 	.word	0x00000e50
   26bc4:	00000e98 	.word	0x00000e98
   26bc8:	00000ec4 	.word	0x00000ec4
   26bcc:	49f1      	ldr	r1, [pc, #964]	@ (26f94 <_start+0x2a3c>)
   26bce:	4469      	add	r1, sp
   26bd0:	78ca      	ldrb	r2, [r1, #3]
   26bd2:	ab0c      	add	r3, sp, #48	@ 0x30
   26bd4:	709a      	strb	r2, [r3, #2]
   26bd6:	784a      	ldrb	r2, [r1, #1]
   26bd8:	788c      	ldrb	r4, [r1, #2]
   26bda:	0224      	lsls	r4, r4, #8
   26bdc:	18a2      	adds	r2, r4, r2
   26bde:	801a      	strh	r2, [r3, #0]
   26be0:	3108      	adds	r1, #8
   26be2:	9a09      	ldr	r2, [sp, #36]	@ 0x24
   26be4:	6e12      	ldr	r2, [r2, #96]	@ 0x60
   26be6:	920b      	str	r2, [sp, #44]	@ 0x2c
   26be8:	4aeb      	ldr	r2, [pc, #940]	@ (26f98 <_start+0x2a40>)
   26bea:	446a      	add	r2, sp
   26bec:	c918      	ldmia	r1!, {r3, r4}
   26bee:	c218      	stmia	r2!, {r3, r4}
   26bf0:	c938      	ldmia	r1!, {r3, r4, r5}
   26bf2:	c238      	stmia	r2!, {r3, r4, r5}
   26bf4:	2800      	cmp	r0, #0
   26bf6:	d001      	beq.n	26bfc <_start+0x26a4>
   26bf8:	f7fd fda6 	bl	24748 <_start+0x1f0>
   26bfc:	4de7      	ldr	r5, [pc, #924]	@ (26f9c <_start+0x2a44>)
   26bfe:	446d      	add	r5, sp
   26c00:	990b      	ldr	r1, [sp, #44]	@ 0x2c
   26c02:	70e9      	strb	r1, [r5, #3]
   26c04:	980c      	ldr	r0, [sp, #48]	@ 0x30
   26c06:	8028      	strh	r0, [r5, #0]
   26c08:	0e08      	lsrs	r0, r1, #24
   26c0a:	71a8      	strb	r0, [r5, #6]
   26c0c:	0c08      	lsrs	r0, r1, #16
   26c0e:	7168      	strb	r0, [r5, #5]
   26c10:	0a08      	lsrs	r0, r1, #8
   26c12:	7128      	strb	r0, [r5, #4]
   26c14:	a80c      	add	r0, sp, #48	@ 0x30
   26c16:	7880      	ldrb	r0, [r0, #2]
   26c18:	70a8      	strb	r0, [r5, #2]
   26c1a:	1de8      	adds	r0, r5, #7
   26c1c:	49de      	ldr	r1, [pc, #888]	@ (26f98 <_start+0x2a40>)
   26c1e:	4469      	add	r1, sp
   26c20:	2214      	movs	r2, #20
   26c22:	f001 f818 	bl	27c56 <__aeabi_memcpy>
   26c26:	4cdb      	ldr	r4, [pc, #876]	@ (26f94 <_start+0x2a3c>)
   26c28:	446c      	add	r4, sp
   26c2a:	4620      	mov	r0, r4
   26c2c:	4629      	mov	r1, r5
   26c2e:	f7fb fe39 	bl	228a4 <_ZN18complex_no_dynamic3app17h9776aa3695ab8350E>
   26c32:	7820      	ldrb	r0, [r4, #0]
   26c34:	2801      	cmp	r0, #1
   26c36:	d103      	bne.n	26c40 <_start+0x26e8>
   26c38:	9909      	ldr	r1, [sp, #36]	@ 0x24
   26c3a:	6e09      	ldr	r1, [r1, #96]	@ 0x60
   26c3c:	910b      	str	r1, [sp, #44]	@ 0x2c
   26c3e:	e019      	b.n	26c74 <_start+0x271c>
   26c40:	49d4      	ldr	r1, [pc, #848]	@ (26f94 <_start+0x2a3c>)
   26c42:	4469      	add	r1, sp
   26c44:	78ca      	ldrb	r2, [r1, #3]
   26c46:	ab0c      	add	r3, sp, #48	@ 0x30
   26c48:	709a      	strb	r2, [r3, #2]
   26c4a:	784a      	ldrb	r2, [r1, #1]
   26c4c:	788c      	ldrb	r4, [r1, #2]
   26c4e:	0224      	lsls	r4, r4, #8
   26c50:	18a2      	adds	r2, r4, r2
   26c52:	801a      	strh	r2, [r3, #0]
   26c54:	3108      	adds	r1, #8
   26c56:	9a09      	ldr	r2, [sp, #36]	@ 0x24
   26c58:	6e12      	ldr	r2, [r2, #96]	@ 0x60
   26c5a:	920b      	str	r2, [sp, #44]	@ 0x2c
   26c5c:	4ace      	ldr	r2, [pc, #824]	@ (26f98 <_start+0x2a40>)
   26c5e:	446a      	add	r2, sp
   26c60:	c938      	ldmia	r1!, {r3, r4, r5}
   26c62:	c238      	stmia	r2!, {r3, r4, r5}
   26c64:	c978      	ldmia	r1!, {r3, r4, r5, r6}
   26c66:	c278      	stmia	r2!, {r3, r4, r5, r6}
   26c68:	c938      	ldmia	r1!, {r3, r4, r5}
   26c6a:	c238      	stmia	r2!, {r3, r4, r5}
   26c6c:	c978      	ldmia	r1!, {r3, r4, r5, r6}
   26c6e:	c278      	stmia	r2!, {r3, r4, r5, r6}
   26c70:	8809      	ldrh	r1, [r1, #0]
   26c72:	8011      	strh	r1, [r2, #0]
   26c74:	2800      	cmp	r0, #0
   26c76:	d001      	beq.n	26c7c <_start+0x2724>
   26c78:	f7fd fd66 	bl	24748 <_start+0x1f0>
   26c7c:	4dc8      	ldr	r5, [pc, #800]	@ (26fa0 <_start+0x2a48>)
   26c7e:	446d      	add	r5, sp
   26c80:	990b      	ldr	r1, [sp, #44]	@ 0x2c
   26c82:	70e9      	strb	r1, [r5, #3]
   26c84:	980c      	ldr	r0, [sp, #48]	@ 0x30
   26c86:	8028      	strh	r0, [r5, #0]
   26c88:	0e08      	lsrs	r0, r1, #24
   26c8a:	71a8      	strb	r0, [r5, #6]
   26c8c:	0c08      	lsrs	r0, r1, #16
   26c8e:	7168      	strb	r0, [r5, #5]
   26c90:	0a08      	lsrs	r0, r1, #8
   26c92:	7128      	strb	r0, [r5, #4]
   26c94:	a80c      	add	r0, sp, #48	@ 0x30
   26c96:	7880      	ldrb	r0, [r0, #2]
   26c98:	70a8      	strb	r0, [r5, #2]
   26c9a:	1de8      	adds	r0, r5, #7
   26c9c:	49be      	ldr	r1, [pc, #760]	@ (26f98 <_start+0x2a40>)
   26c9e:	4469      	add	r1, sp
   26ca0:	223a      	movs	r2, #58	@ 0x3a
   26ca2:	f000 ffd8 	bl	27c56 <__aeabi_memcpy>
   26ca6:	4cbb      	ldr	r4, [pc, #748]	@ (26f94 <_start+0x2a3c>)
   26ca8:	446c      	add	r4, sp
   26caa:	4620      	mov	r0, r4
   26cac:	4629      	mov	r1, r5
   26cae:	f7fa fe83 	bl	219b8 <_ZN18complex_no_dynamic3app17h5027a9fde69bfaa2E>
   26cb2:	7820      	ldrb	r0, [r4, #0]
   26cb4:	2801      	cmp	r0, #1
   26cb6:	d103      	bne.n	26cc0 <_start+0x2768>
   26cb8:	9909      	ldr	r1, [sp, #36]	@ 0x24
   26cba:	6e09      	ldr	r1, [r1, #96]	@ 0x60
   26cbc:	910b      	str	r1, [sp, #44]	@ 0x2c
   26cbe:	e013      	b.n	26ce8 <_start+0x2790>
   26cc0:	49b4      	ldr	r1, [pc, #720]	@ (26f94 <_start+0x2a3c>)
   26cc2:	4469      	add	r1, sp
   26cc4:	78ca      	ldrb	r2, [r1, #3]
   26cc6:	ab0c      	add	r3, sp, #48	@ 0x30
   26cc8:	709a      	strb	r2, [r3, #2]
   26cca:	784a      	ldrb	r2, [r1, #1]
   26ccc:	788c      	ldrb	r4, [r1, #2]
   26cce:	0224      	lsls	r4, r4, #8
   26cd0:	18a2      	adds	r2, r4, r2
   26cd2:	801a      	strh	r2, [r3, #0]
   26cd4:	3108      	adds	r1, #8
   26cd6:	9a09      	ldr	r2, [sp, #36]	@ 0x24
   26cd8:	6e12      	ldr	r2, [r2, #96]	@ 0x60
   26cda:	920b      	str	r2, [sp, #44]	@ 0x2c
   26cdc:	4aae      	ldr	r2, [pc, #696]	@ (26f98 <_start+0x2a40>)
   26cde:	446a      	add	r2, sp
   26ce0:	c978      	ldmia	r1!, {r3, r4, r5, r6}
   26ce2:	c278      	stmia	r2!, {r3, r4, r5, r6}
   26ce4:	7809      	ldrb	r1, [r1, #0]
   26ce6:	7011      	strb	r1, [r2, #0]
   26ce8:	2800      	cmp	r0, #0
   26cea:	d001      	beq.n	26cf0 <_start+0x2798>
   26cec:	f7fd fd2c 	bl	24748 <_start+0x1f0>
   26cf0:	4dac      	ldr	r5, [pc, #688]	@ (26fa4 <_start+0x2a4c>)
   26cf2:	446d      	add	r5, sp
   26cf4:	990b      	ldr	r1, [sp, #44]	@ 0x2c
   26cf6:	70e9      	strb	r1, [r5, #3]
   26cf8:	980c      	ldr	r0, [sp, #48]	@ 0x30
   26cfa:	8028      	strh	r0, [r5, #0]
   26cfc:	0e08      	lsrs	r0, r1, #24
   26cfe:	71a8      	strb	r0, [r5, #6]
   26d00:	0c08      	lsrs	r0, r1, #16
   26d02:	7168      	strb	r0, [r5, #5]
   26d04:	0a08      	lsrs	r0, r1, #8
   26d06:	7128      	strb	r0, [r5, #4]
   26d08:	a80c      	add	r0, sp, #48	@ 0x30
   26d0a:	7880      	ldrb	r0, [r0, #2]
   26d0c:	70a8      	strb	r0, [r5, #2]
   26d0e:	1de8      	adds	r0, r5, #7
   26d10:	49a1      	ldr	r1, [pc, #644]	@ (26f98 <_start+0x2a40>)
   26d12:	4469      	add	r1, sp
   26d14:	2211      	movs	r2, #17
   26d16:	f000 ff9e 	bl	27c56 <__aeabi_memcpy>
   26d1a:	4c9e      	ldr	r4, [pc, #632]	@ (26f94 <_start+0x2a3c>)
   26d1c:	446c      	add	r4, sp
   26d1e:	4620      	mov	r0, r4
   26d20:	4629      	mov	r1, r5
   26d22:	f7fd fb59 	bl	243d8 <_ZN18complex_no_dynamic3app17hf8c898e1a09c4a92E>
   26d26:	7820      	ldrb	r0, [r4, #0]
   26d28:	2801      	cmp	r0, #1
   26d2a:	d103      	bne.n	26d34 <_start+0x27dc>
   26d2c:	9909      	ldr	r1, [sp, #36]	@ 0x24
   26d2e:	6e09      	ldr	r1, [r1, #96]	@ 0x60
   26d30:	910b      	str	r1, [sp, #44]	@ 0x2c
   26d32:	e017      	b.n	26d64 <_start+0x280c>
   26d34:	4997      	ldr	r1, [pc, #604]	@ (26f94 <_start+0x2a3c>)
   26d36:	4469      	add	r1, sp
   26d38:	78ca      	ldrb	r2, [r1, #3]
   26d3a:	ab0c      	add	r3, sp, #48	@ 0x30
   26d3c:	709a      	strb	r2, [r3, #2]
   26d3e:	784a      	ldrb	r2, [r1, #1]
   26d40:	788c      	ldrb	r4, [r1, #2]
   26d42:	0224      	lsls	r4, r4, #8
   26d44:	18a2      	adds	r2, r4, r2
   26d46:	801a      	strh	r2, [r3, #0]
   26d48:	3108      	adds	r1, #8
   26d4a:	9a09      	ldr	r2, [sp, #36]	@ 0x24
   26d4c:	6e12      	ldr	r2, [r2, #96]	@ 0x60
   26d4e:	920b      	str	r2, [sp, #44]	@ 0x2c
   26d50:	4a91      	ldr	r2, [pc, #580]	@ (26f98 <_start+0x2a40>)
   26d52:	446a      	add	r2, sp
   26d54:	c918      	ldmia	r1!, {r3, r4}
   26d56:	c218      	stmia	r2!, {r3, r4}
   26d58:	c938      	ldmia	r1!, {r3, r4, r5}
   26d5a:	c238      	stmia	r2!, {r3, r4, r5}
   26d5c:	880b      	ldrh	r3, [r1, #0]
   26d5e:	8013      	strh	r3, [r2, #0]
   26d60:	7889      	ldrb	r1, [r1, #2]
   26d62:	7091      	strb	r1, [r2, #2]
   26d64:	2800      	cmp	r0, #0
   26d66:	d001      	beq.n	26d6c <_start+0x2814>
   26d68:	f7fd fcee 	bl	24748 <_start+0x1f0>
   26d6c:	4d8e      	ldr	r5, [pc, #568]	@ (26fa8 <_start+0x2a50>)
   26d6e:	446d      	add	r5, sp
   26d70:	990b      	ldr	r1, [sp, #44]	@ 0x2c
   26d72:	70e9      	strb	r1, [r5, #3]
   26d74:	980c      	ldr	r0, [sp, #48]	@ 0x30
   26d76:	8028      	strh	r0, [r5, #0]
   26d78:	0e08      	lsrs	r0, r1, #24
   26d7a:	71a8      	strb	r0, [r5, #6]
   26d7c:	0c08      	lsrs	r0, r1, #16
   26d7e:	7168      	strb	r0, [r5, #5]
   26d80:	0a08      	lsrs	r0, r1, #8
   26d82:	7128      	strb	r0, [r5, #4]
   26d84:	a80c      	add	r0, sp, #48	@ 0x30
   26d86:	7880      	ldrb	r0, [r0, #2]
   26d88:	70a8      	strb	r0, [r5, #2]
   26d8a:	1de8      	adds	r0, r5, #7
   26d8c:	4982      	ldr	r1, [pc, #520]	@ (26f98 <_start+0x2a40>)
   26d8e:	4469      	add	r1, sp
   26d90:	2217      	movs	r2, #23
   26d92:	f000 ff60 	bl	27c56 <__aeabi_memcpy>
   26d96:	4c7f      	ldr	r4, [pc, #508]	@ (26f94 <_start+0x2a3c>)
   26d98:	446c      	add	r4, sp
   26d9a:	4620      	mov	r0, r4
   26d9c:	4629      	mov	r1, r5
   26d9e:	f7fa fbe7 	bl	21570 <_ZN18complex_no_dynamic3app17h43768a3c5bfbe2d4E>
   26da2:	7820      	ldrb	r0, [r4, #0]
   26da4:	2801      	cmp	r0, #1
   26da6:	d103      	bne.n	26db0 <_start+0x2858>
   26da8:	9909      	ldr	r1, [sp, #36]	@ 0x24
   26daa:	6e09      	ldr	r1, [r1, #96]	@ 0x60
   26dac:	910b      	str	r1, [sp, #44]	@ 0x2c
   26dae:	e019      	b.n	26de4 <_start+0x288c>
   26db0:	4978      	ldr	r1, [pc, #480]	@ (26f94 <_start+0x2a3c>)
   26db2:	4469      	add	r1, sp
   26db4:	78ca      	ldrb	r2, [r1, #3]
   26db6:	ab0c      	add	r3, sp, #48	@ 0x30
   26db8:	709a      	strb	r2, [r3, #2]
   26dba:	784a      	ldrb	r2, [r1, #1]
   26dbc:	788c      	ldrb	r4, [r1, #2]
   26dbe:	0224      	lsls	r4, r4, #8
   26dc0:	18a2      	adds	r2, r4, r2
   26dc2:	801a      	strh	r2, [r3, #0]
   26dc4:	3108      	adds	r1, #8
   26dc6:	9a09      	ldr	r2, [sp, #36]	@ 0x24
   26dc8:	6e12      	ldr	r2, [r2, #96]	@ 0x60
   26dca:	920b      	str	r2, [sp, #44]	@ 0x2c
   26dcc:	4a72      	ldr	r2, [pc, #456]	@ (26f98 <_start+0x2a40>)
   26dce:	446a      	add	r2, sp
   26dd0:	c938      	ldmia	r1!, {r3, r4, r5}
   26dd2:	c238      	stmia	r2!, {r3, r4, r5}
   26dd4:	c938      	ldmia	r1!, {r3, r4, r5}
   26dd6:	c238      	stmia	r2!, {r3, r4, r5}
   26dd8:	c938      	ldmia	r1!, {r3, r4, r5}
   26dda:	c238      	stmia	r2!, {r3, r4, r5}
   26ddc:	c978      	ldmia	r1!, {r3, r4, r5, r6}
   26dde:	c278      	stmia	r2!, {r3, r4, r5, r6}
   26de0:	7809      	ldrb	r1, [r1, #0]
   26de2:	7011      	strb	r1, [r2, #0]
   26de4:	2800      	cmp	r0, #0
   26de6:	d001      	beq.n	26dec <_start+0x2894>
   26de8:	f7fd fcae 	bl	24748 <_start+0x1f0>
   26dec:	4d6f      	ldr	r5, [pc, #444]	@ (26fac <_start+0x2a54>)
   26dee:	446d      	add	r5, sp
   26df0:	990b      	ldr	r1, [sp, #44]	@ 0x2c
   26df2:	70e9      	strb	r1, [r5, #3]
   26df4:	980c      	ldr	r0, [sp, #48]	@ 0x30
   26df6:	8028      	strh	r0, [r5, #0]
   26df8:	0e08      	lsrs	r0, r1, #24
   26dfa:	71a8      	strb	r0, [r5, #6]
   26dfc:	0c08      	lsrs	r0, r1, #16
   26dfe:	7168      	strb	r0, [r5, #5]
   26e00:	0a08      	lsrs	r0, r1, #8
   26e02:	7128      	strb	r0, [r5, #4]
   26e04:	a80c      	add	r0, sp, #48	@ 0x30
   26e06:	7880      	ldrb	r0, [r0, #2]
   26e08:	70a8      	strb	r0, [r5, #2]
   26e0a:	1de8      	adds	r0, r5, #7
   26e0c:	4962      	ldr	r1, [pc, #392]	@ (26f98 <_start+0x2a40>)
   26e0e:	4469      	add	r1, sp
   26e10:	2235      	movs	r2, #53	@ 0x35
   26e12:	f000 ff20 	bl	27c56 <__aeabi_memcpy>
   26e16:	4c5f      	ldr	r4, [pc, #380]	@ (26f94 <_start+0x2a3c>)
   26e18:	446c      	add	r4, sp
   26e1a:	4620      	mov	r0, r4
   26e1c:	4629      	mov	r1, r5
   26e1e:	f7fa ff3b 	bl	21c98 <_ZN18complex_no_dynamic3app17h59323add5a0e6742E>
   26e22:	7820      	ldrb	r0, [r4, #0]
   26e24:	2801      	cmp	r0, #1
   26e26:	d103      	bne.n	26e30 <_start+0x28d8>
   26e28:	9909      	ldr	r1, [sp, #36]	@ 0x24
   26e2a:	6e09      	ldr	r1, [r1, #96]	@ 0x60
   26e2c:	910b      	str	r1, [sp, #44]	@ 0x2c
   26e2e:	e017      	b.n	26e60 <_start+0x2908>
   26e30:	4958      	ldr	r1, [pc, #352]	@ (26f94 <_start+0x2a3c>)
   26e32:	4469      	add	r1, sp
   26e34:	78ca      	ldrb	r2, [r1, #3]
   26e36:	ab0c      	add	r3, sp, #48	@ 0x30
   26e38:	709a      	strb	r2, [r3, #2]
   26e3a:	784a      	ldrb	r2, [r1, #1]
   26e3c:	788c      	ldrb	r4, [r1, #2]
   26e3e:	0224      	lsls	r4, r4, #8
   26e40:	18a2      	adds	r2, r4, r2
   26e42:	801a      	strh	r2, [r3, #0]
   26e44:	3108      	adds	r1, #8
   26e46:	9a09      	ldr	r2, [sp, #36]	@ 0x24
   26e48:	6e12      	ldr	r2, [r2, #96]	@ 0x60
   26e4a:	920b      	str	r2, [sp, #44]	@ 0x2c
   26e4c:	4a52      	ldr	r2, [pc, #328]	@ (26f98 <_start+0x2a40>)
   26e4e:	446a      	add	r2, sp
   26e50:	c938      	ldmia	r1!, {r3, r4, r5}
   26e52:	c238      	stmia	r2!, {r3, r4, r5}
   26e54:	c938      	ldmia	r1!, {r3, r4, r5}
   26e56:	c238      	stmia	r2!, {r3, r4, r5}
   26e58:	c938      	ldmia	r1!, {r3, r4, r5}
   26e5a:	c238      	stmia	r2!, {r3, r4, r5}
   26e5c:	7809      	ldrb	r1, [r1, #0]
   26e5e:	7011      	strb	r1, [r2, #0]
   26e60:	2800      	cmp	r0, #0
   26e62:	d001      	beq.n	26e68 <_start+0x2910>
   26e64:	f7fd fc70 	bl	24748 <_start+0x1f0>
   26e68:	4d51      	ldr	r5, [pc, #324]	@ (26fb0 <_start+0x2a58>)
   26e6a:	446d      	add	r5, sp
   26e6c:	990b      	ldr	r1, [sp, #44]	@ 0x2c
   26e6e:	70e9      	strb	r1, [r5, #3]
   26e70:	980c      	ldr	r0, [sp, #48]	@ 0x30
   26e72:	8028      	strh	r0, [r5, #0]
   26e74:	0e08      	lsrs	r0, r1, #24
   26e76:	71a8      	strb	r0, [r5, #6]
   26e78:	0c08      	lsrs	r0, r1, #16
   26e7a:	7168      	strb	r0, [r5, #5]
   26e7c:	0a08      	lsrs	r0, r1, #8
   26e7e:	7128      	strb	r0, [r5, #4]
   26e80:	a80c      	add	r0, sp, #48	@ 0x30
   26e82:	7880      	ldrb	r0, [r0, #2]
   26e84:	70a8      	strb	r0, [r5, #2]
   26e86:	1de8      	adds	r0, r5, #7
   26e88:	4943      	ldr	r1, [pc, #268]	@ (26f98 <_start+0x2a40>)
   26e8a:	4469      	add	r1, sp
   26e8c:	2225      	movs	r2, #37	@ 0x25
   26e8e:	f000 fee2 	bl	27c56 <__aeabi_memcpy>
   26e92:	4c40      	ldr	r4, [pc, #256]	@ (26f94 <_start+0x2a3c>)
   26e94:	446c      	add	r4, sp
   26e96:	4620      	mov	r0, r4
   26e98:	4629      	mov	r1, r5
   26e9a:	f7fb f925 	bl	220e8 <_ZN18complex_no_dynamic3app17h7246a121b8e6dd83E>
   26e9e:	7820      	ldrb	r0, [r4, #0]
   26ea0:	2801      	cmp	r0, #1
   26ea2:	d103      	bne.n	26eac <_start+0x2954>
   26ea4:	9909      	ldr	r1, [sp, #36]	@ 0x24
   26ea6:	6e09      	ldr	r1, [r1, #96]	@ 0x60
   26ea8:	910b      	str	r1, [sp, #44]	@ 0x2c
   26eaa:	e013      	b.n	26ed4 <_start+0x297c>
   26eac:	4939      	ldr	r1, [pc, #228]	@ (26f94 <_start+0x2a3c>)
   26eae:	4469      	add	r1, sp
   26eb0:	78ca      	ldrb	r2, [r1, #3]
   26eb2:	ab0c      	add	r3, sp, #48	@ 0x30
   26eb4:	709a      	strb	r2, [r3, #2]
   26eb6:	784a      	ldrb	r2, [r1, #1]
   26eb8:	788c      	ldrb	r4, [r1, #2]
   26eba:	0224      	lsls	r4, r4, #8
   26ebc:	18a2      	adds	r2, r4, r2
   26ebe:	801a      	strh	r2, [r3, #0]
   26ec0:	3108      	adds	r1, #8
   26ec2:	9a09      	ldr	r2, [sp, #36]	@ 0x24
   26ec4:	6e12      	ldr	r2, [r2, #96]	@ 0x60
   26ec6:	920b      	str	r2, [sp, #44]	@ 0x2c
   26ec8:	4a33      	ldr	r2, [pc, #204]	@ (26f98 <_start+0x2a40>)
   26eca:	446a      	add	r2, sp
   26ecc:	c978      	ldmia	r1!, {r3, r4, r5, r6}
   26ece:	c278      	stmia	r2!, {r3, r4, r5, r6}
   26ed0:	c978      	ldmia	r1!, {r3, r4, r5, r6}
   26ed2:	c278      	stmia	r2!, {r3, r4, r5, r6}
   26ed4:	2800      	cmp	r0, #0
   26ed6:	d001      	beq.n	26edc <_start+0x2984>
   26ed8:	f7fd fc36 	bl	24748 <_start+0x1f0>
   26edc:	4d35      	ldr	r5, [pc, #212]	@ (26fb4 <_start+0x2a5c>)
   26ede:	446d      	add	r5, sp
   26ee0:	990b      	ldr	r1, [sp, #44]	@ 0x2c
   26ee2:	70e9      	strb	r1, [r5, #3]
   26ee4:	980c      	ldr	r0, [sp, #48]	@ 0x30
   26ee6:	8028      	strh	r0, [r5, #0]
   26ee8:	0e08      	lsrs	r0, r1, #24
   26eea:	71a8      	strb	r0, [r5, #6]
   26eec:	0c08      	lsrs	r0, r1, #16
   26eee:	7168      	strb	r0, [r5, #5]
   26ef0:	0a08      	lsrs	r0, r1, #8
   26ef2:	7128      	strb	r0, [r5, #4]
   26ef4:	a80c      	add	r0, sp, #48	@ 0x30
   26ef6:	7880      	ldrb	r0, [r0, #2]
   26ef8:	70a8      	strb	r0, [r5, #2]
   26efa:	1de8      	adds	r0, r5, #7
   26efc:	4926      	ldr	r1, [pc, #152]	@ (26f98 <_start+0x2a40>)
   26efe:	4469      	add	r1, sp
   26f00:	2220      	movs	r2, #32
   26f02:	f000 fea8 	bl	27c56 <__aeabi_memcpy>
   26f06:	4c23      	ldr	r4, [pc, #140]	@ (26f94 <_start+0x2a3c>)
   26f08:	446c      	add	r4, sp
   26f0a:	4620      	mov	r0, r4
   26f0c:	4629      	mov	r1, r5
   26f0e:	f7f9 ff69 	bl	20de4 <_ZN18complex_no_dynamic3app17h2f14f827b34fe4ceE>
   26f12:	7824      	ldrb	r4, [r4, #0]
   26f14:	2c01      	cmp	r4, #1
   26f16:	d103      	bne.n	26f20 <_start+0x29c8>
   26f18:	9809      	ldr	r0, [sp, #36]	@ 0x24
   26f1a:	6e00      	ldr	r0, [r0, #96]	@ 0x60
   26f1c:	900b      	str	r0, [sp, #44]	@ 0x2c
   26f1e:	e012      	b.n	26f46 <_start+0x29ee>
   26f20:	491c      	ldr	r1, [pc, #112]	@ (26f94 <_start+0x2a3c>)
   26f22:	4469      	add	r1, sp
   26f24:	78c8      	ldrb	r0, [r1, #3]
   26f26:	aa0c      	add	r2, sp, #48	@ 0x30
   26f28:	7090      	strb	r0, [r2, #2]
   26f2a:	7848      	ldrb	r0, [r1, #1]
   26f2c:	788b      	ldrb	r3, [r1, #2]
   26f2e:	021b      	lsls	r3, r3, #8
   26f30:	1818      	adds	r0, r3, r0
   26f32:	8010      	strh	r0, [r2, #0]
   26f34:	9809      	ldr	r0, [sp, #36]	@ 0x24
   26f36:	6e00      	ldr	r0, [r0, #96]	@ 0x60
   26f38:	900b      	str	r0, [sp, #44]	@ 0x2c
   26f3a:	3108      	adds	r1, #8
   26f3c:	4816      	ldr	r0, [pc, #88]	@ (26f98 <_start+0x2a40>)
   26f3e:	4468      	add	r0, sp
   26f40:	2248      	movs	r2, #72	@ 0x48
   26f42:	f000 fd28 	bl	27996 <__aeabi_memcpy4>
   26f46:	2c00      	cmp	r4, #0
   26f48:	d001      	beq.n	26f4e <_start+0x29f6>
   26f4a:	f7fd fbfd 	bl	24748 <_start+0x1f0>
   26f4e:	4d1a      	ldr	r5, [pc, #104]	@ (26fb8 <_start+0x2a60>)
   26f50:	446d      	add	r5, sp
   26f52:	990b      	ldr	r1, [sp, #44]	@ 0x2c
   26f54:	70e9      	strb	r1, [r5, #3]
   26f56:	980c      	ldr	r0, [sp, #48]	@ 0x30
   26f58:	8028      	strh	r0, [r5, #0]
   26f5a:	0e08      	lsrs	r0, r1, #24
   26f5c:	71a8      	strb	r0, [r5, #6]
   26f5e:	0c08      	lsrs	r0, r1, #16
   26f60:	7168      	strb	r0, [r5, #5]
   26f62:	0a08      	lsrs	r0, r1, #8
   26f64:	7128      	strb	r0, [r5, #4]
   26f66:	a80c      	add	r0, sp, #48	@ 0x30
   26f68:	7880      	ldrb	r0, [r0, #2]
   26f6a:	70a8      	strb	r0, [r5, #2]
   26f6c:	1de8      	adds	r0, r5, #7
   26f6e:	490a      	ldr	r1, [pc, #40]	@ (26f98 <_start+0x2a40>)
   26f70:	4469      	add	r1, sp
   26f72:	2248      	movs	r2, #72	@ 0x48
   26f74:	f000 fe6f 	bl	27c56 <__aeabi_memcpy>
   26f78:	4c06      	ldr	r4, [pc, #24]	@ (26f94 <_start+0x2a3c>)
   26f7a:	446c      	add	r4, sp
   26f7c:	4620      	mov	r0, r4
   26f7e:	4629      	mov	r1, r5
   26f80:	f7fa fc62 	bl	21848 <_ZN18complex_no_dynamic3app17h4c316d8546f5e95cE>
   26f84:	7820      	ldrb	r0, [r4, #0]
   26f86:	2801      	cmp	r0, #1
   26f88:	d118      	bne.n	26fbc <_start+0x2a64>
   26f8a:	9909      	ldr	r1, [sp, #36]	@ 0x24
   26f8c:	6e09      	ldr	r1, [r1, #96]	@ 0x60
   26f8e:	910b      	str	r1, [sp, #44]	@ 0x2c
   26f90:	e02c      	b.n	26fec <_start+0x2a94>
   26f92:	46c0      	nop			@ (mov r8, r8)
   26f94:	00001404 	.word	0x00001404
   26f98:	000013a8 	.word	0x000013a8
   26f9c:	00000ee0 	.word	0x00000ee0
   26fa0:	00000efc 	.word	0x00000efc
   26fa4:	00000f40 	.word	0x00000f40
   26fa8:	00000f58 	.word	0x00000f58
   26fac:	00000f78 	.word	0x00000f78
   26fb0:	00000fb4 	.word	0x00000fb4
   26fb4:	00000fe0 	.word	0x00000fe0
   26fb8:	00001008 	.word	0x00001008
   26fbc:	49f1      	ldr	r1, [pc, #964]	@ (27384 <_start+0x2e2c>)
   26fbe:	4469      	add	r1, sp
   26fc0:	78ca      	ldrb	r2, [r1, #3]
   26fc2:	ab0c      	add	r3, sp, #48	@ 0x30
   26fc4:	709a      	strb	r2, [r3, #2]
   26fc6:	784a      	ldrb	r2, [r1, #1]
   26fc8:	788c      	ldrb	r4, [r1, #2]
   26fca:	0224      	lsls	r4, r4, #8
   26fcc:	18a2      	adds	r2, r4, r2
   26fce:	801a      	strh	r2, [r3, #0]
   26fd0:	3108      	adds	r1, #8
   26fd2:	9a09      	ldr	r2, [sp, #36]	@ 0x24
   26fd4:	6e12      	ldr	r2, [r2, #96]	@ 0x60
   26fd6:	920b      	str	r2, [sp, #44]	@ 0x2c
   26fd8:	4aeb      	ldr	r2, [pc, #940]	@ (27388 <_start+0x2e30>)
   26fda:	446a      	add	r2, sp
   26fdc:	c938      	ldmia	r1!, {r3, r4, r5}
   26fde:	c238      	stmia	r2!, {r3, r4, r5}
   26fe0:	c978      	ldmia	r1!, {r3, r4, r5, r6}
   26fe2:	c278      	stmia	r2!, {r3, r4, r5, r6}
   26fe4:	c978      	ldmia	r1!, {r3, r4, r5, r6}
   26fe6:	c278      	stmia	r2!, {r3, r4, r5, r6}
   26fe8:	8809      	ldrh	r1, [r1, #0]
   26fea:	8011      	strh	r1, [r2, #0]
   26fec:	2800      	cmp	r0, #0
   26fee:	d001      	beq.n	26ff4 <_start+0x2a9c>
   26ff0:	f7fd fbaa 	bl	24748 <_start+0x1f0>
   26ff4:	4de5      	ldr	r5, [pc, #916]	@ (2738c <_start+0x2e34>)
   26ff6:	446d      	add	r5, sp
   26ff8:	990b      	ldr	r1, [sp, #44]	@ 0x2c
   26ffa:	70e9      	strb	r1, [r5, #3]
   26ffc:	980c      	ldr	r0, [sp, #48]	@ 0x30
   26ffe:	8028      	strh	r0, [r5, #0]
   27000:	0e08      	lsrs	r0, r1, #24
   27002:	71a8      	strb	r0, [r5, #6]
   27004:	0c08      	lsrs	r0, r1, #16
   27006:	7168      	strb	r0, [r5, #5]
   27008:	0a08      	lsrs	r0, r1, #8
   2700a:	7128      	strb	r0, [r5, #4]
   2700c:	a80c      	add	r0, sp, #48	@ 0x30
   2700e:	7880      	ldrb	r0, [r0, #2]
   27010:	70a8      	strb	r0, [r5, #2]
   27012:	1de8      	adds	r0, r5, #7
   27014:	49dc      	ldr	r1, [pc, #880]	@ (27388 <_start+0x2e30>)
   27016:	4469      	add	r1, sp
   27018:	222e      	movs	r2, #46	@ 0x2e
   2701a:	f000 fe1c 	bl	27c56 <__aeabi_memcpy>
   2701e:	4cd9      	ldr	r4, [pc, #868]	@ (27384 <_start+0x2e2c>)
   27020:	446c      	add	r4, sp
   27022:	4620      	mov	r0, r4
   27024:	4629      	mov	r1, r5
   27026:	f7fd fa39 	bl	2449c <_ZN18complex_no_dynamic3app17hf9f066d1b9a82906E>
   2702a:	7820      	ldrb	r0, [r4, #0]
   2702c:	2801      	cmp	r0, #1
   2702e:	d103      	bne.n	27038 <_start+0x2ae0>
   27030:	9909      	ldr	r1, [sp, #36]	@ 0x24
   27032:	6e09      	ldr	r1, [r1, #96]	@ 0x60
   27034:	910b      	str	r1, [sp, #44]	@ 0x2c
   27036:	e017      	b.n	27068 <_start+0x2b10>
   27038:	49d2      	ldr	r1, [pc, #840]	@ (27384 <_start+0x2e2c>)
   2703a:	4469      	add	r1, sp
   2703c:	78ca      	ldrb	r2, [r1, #3]
   2703e:	ab0c      	add	r3, sp, #48	@ 0x30
   27040:	709a      	strb	r2, [r3, #2]
   27042:	784a      	ldrb	r2, [r1, #1]
   27044:	788c      	ldrb	r4, [r1, #2]
   27046:	0224      	lsls	r4, r4, #8
   27048:	18a2      	adds	r2, r4, r2
   2704a:	801a      	strh	r2, [r3, #0]
   2704c:	3108      	adds	r1, #8
   2704e:	9a09      	ldr	r2, [sp, #36]	@ 0x24
   27050:	6e12      	ldr	r2, [r2, #96]	@ 0x60
   27052:	920b      	str	r2, [sp, #44]	@ 0x2c
   27054:	4acc      	ldr	r2, [pc, #816]	@ (27388 <_start+0x2e30>)
   27056:	446a      	add	r2, sp
   27058:	c938      	ldmia	r1!, {r3, r4, r5}
   2705a:	c238      	stmia	r2!, {r3, r4, r5}
   2705c:	c978      	ldmia	r1!, {r3, r4, r5, r6}
   2705e:	c278      	stmia	r2!, {r3, r4, r5, r6}
   27060:	c938      	ldmia	r1!, {r3, r4, r5}
   27062:	c238      	stmia	r2!, {r3, r4, r5}
   27064:	c978      	ldmia	r1!, {r3, r4, r5, r6}
   27066:	c278      	stmia	r2!, {r3, r4, r5, r6}
   27068:	2800      	cmp	r0, #0
   2706a:	d001      	beq.n	27070 <_start+0x2b18>
   2706c:	f7fd fb6c 	bl	24748 <_start+0x1f0>
   27070:	4dc7      	ldr	r5, [pc, #796]	@ (27390 <_start+0x2e38>)
   27072:	446d      	add	r5, sp
   27074:	990b      	ldr	r1, [sp, #44]	@ 0x2c
   27076:	70e9      	strb	r1, [r5, #3]
   27078:	980c      	ldr	r0, [sp, #48]	@ 0x30
   2707a:	8028      	strh	r0, [r5, #0]
   2707c:	0e08      	lsrs	r0, r1, #24
   2707e:	71a8      	strb	r0, [r5, #6]
   27080:	0c08      	lsrs	r0, r1, #16
   27082:	7168      	strb	r0, [r5, #5]
   27084:	0a08      	lsrs	r0, r1, #8
   27086:	7128      	strb	r0, [r5, #4]
   27088:	a80c      	add	r0, sp, #48	@ 0x30
   2708a:	7880      	ldrb	r0, [r0, #2]
   2708c:	70a8      	strb	r0, [r5, #2]
   2708e:	1de8      	adds	r0, r5, #7
   27090:	49bd      	ldr	r1, [pc, #756]	@ (27388 <_start+0x2e30>)
   27092:	4469      	add	r1, sp
   27094:	2238      	movs	r2, #56	@ 0x38
   27096:	f000 fdde 	bl	27c56 <__aeabi_memcpy>
   2709a:	4cba      	ldr	r4, [pc, #744]	@ (27384 <_start+0x2e2c>)
   2709c:	446c      	add	r4, sp
   2709e:	4620      	mov	r0, r4
   270a0:	4629      	mov	r1, r5
   270a2:	f7fc fe77 	bl	23d94 <_ZN18complex_no_dynamic3app17hdee21525b91731ccE>
   270a6:	7820      	ldrb	r0, [r4, #0]
   270a8:	2801      	cmp	r0, #1
   270aa:	d102      	bne.n	270b2 <_start+0x2b5a>
   270ac:	9909      	ldr	r1, [sp, #36]	@ 0x24
   270ae:	6e09      	ldr	r1, [r1, #96]	@ 0x60
   270b0:	e012      	b.n	270d8 <_start+0x2b80>
   270b2:	49b5      	ldr	r1, [pc, #724]	@ (27388 <_start+0x2e30>)
   270b4:	4469      	add	r1, sp
   270b6:	9c09      	ldr	r4, [sp, #36]	@ 0x24
   270b8:	6ee2      	ldr	r2, [r4, #108]	@ 0x6c
   270ba:	810a      	strh	r2, [r1, #8]
   270bc:	49b1      	ldr	r1, [pc, #708]	@ (27384 <_start+0x2e2c>)
   270be:	4469      	add	r1, sp
   270c0:	78ca      	ldrb	r2, [r1, #3]
   270c2:	ab0c      	add	r3, sp, #48	@ 0x30
   270c4:	709a      	strb	r2, [r3, #2]
   270c6:	784a      	ldrb	r2, [r1, #1]
   270c8:	7889      	ldrb	r1, [r1, #2]
   270ca:	0209      	lsls	r1, r1, #8
   270cc:	1889      	adds	r1, r1, r2
   270ce:	8019      	strh	r1, [r3, #0]
   270d0:	6e61      	ldr	r1, [r4, #100]	@ 0x64
   270d2:	6ea2      	ldr	r2, [r4, #104]	@ 0x68
   270d4:	c406      	stmia	r4!, {r1, r2}
   270d6:	6da1      	ldr	r1, [r4, #88]	@ 0x58
   270d8:	910b      	str	r1, [sp, #44]	@ 0x2c
   270da:	2800      	cmp	r0, #0
   270dc:	d001      	beq.n	270e2 <_start+0x2b8a>
   270de:	f7fd fb33 	bl	24748 <_start+0x1f0>
   270e2:	4dac      	ldr	r5, [pc, #688]	@ (27394 <_start+0x2e3c>)
   270e4:	446d      	add	r5, sp
   270e6:	990b      	ldr	r1, [sp, #44]	@ 0x2c
   270e8:	70e9      	strb	r1, [r5, #3]
   270ea:	980c      	ldr	r0, [sp, #48]	@ 0x30
   270ec:	8028      	strh	r0, [r5, #0]
   270ee:	0e08      	lsrs	r0, r1, #24
   270f0:	71a8      	strb	r0, [r5, #6]
   270f2:	0c08      	lsrs	r0, r1, #16
   270f4:	7168      	strb	r0, [r5, #5]
   270f6:	0a08      	lsrs	r0, r1, #8
   270f8:	7128      	strb	r0, [r5, #4]
   270fa:	a80c      	add	r0, sp, #48	@ 0x30
   270fc:	7880      	ldrb	r0, [r0, #2]
   270fe:	70a8      	strb	r0, [r5, #2]
   27100:	1de8      	adds	r0, r5, #7
   27102:	49a1      	ldr	r1, [pc, #644]	@ (27388 <_start+0x2e30>)
   27104:	4469      	add	r1, sp
   27106:	220a      	movs	r2, #10
   27108:	f000 fda5 	bl	27c56 <__aeabi_memcpy>
   2710c:	4c9d      	ldr	r4, [pc, #628]	@ (27384 <_start+0x2e2c>)
   2710e:	446c      	add	r4, sp
   27110:	4620      	mov	r0, r4
   27112:	4629      	mov	r1, r5
   27114:	f7f9 f89a 	bl	2024c <_ZN18complex_no_dynamic3app17h05b02a760f3b630aE>
   27118:	7820      	ldrb	r0, [r4, #0]
   2711a:	2801      	cmp	r0, #1
   2711c:	d103      	bne.n	27126 <_start+0x2bce>
   2711e:	9909      	ldr	r1, [sp, #36]	@ 0x24
   27120:	6e09      	ldr	r1, [r1, #96]	@ 0x60
   27122:	910b      	str	r1, [sp, #44]	@ 0x2c
   27124:	e017      	b.n	27156 <_start+0x2bfe>
   27126:	4997      	ldr	r1, [pc, #604]	@ (27384 <_start+0x2e2c>)
   27128:	4469      	add	r1, sp
   2712a:	78ca      	ldrb	r2, [r1, #3]
   2712c:	ab0c      	add	r3, sp, #48	@ 0x30
   2712e:	709a      	strb	r2, [r3, #2]
   27130:	784a      	ldrb	r2, [r1, #1]
   27132:	788c      	ldrb	r4, [r1, #2]
   27134:	0224      	lsls	r4, r4, #8
   27136:	18a2      	adds	r2, r4, r2
   27138:	801a      	strh	r2, [r3, #0]
   2713a:	3108      	adds	r1, #8
   2713c:	9a09      	ldr	r2, [sp, #36]	@ 0x24
   2713e:	6e12      	ldr	r2, [r2, #96]	@ 0x60
   27140:	920b      	str	r2, [sp, #44]	@ 0x2c
   27142:	4a91      	ldr	r2, [pc, #580]	@ (27388 <_start+0x2e30>)
   27144:	446a      	add	r2, sp
   27146:	c938      	ldmia	r1!, {r3, r4, r5}
   27148:	c238      	stmia	r2!, {r3, r4, r5}
   2714a:	c978      	ldmia	r1!, {r3, r4, r5, r6}
   2714c:	c278      	stmia	r2!, {r3, r4, r5, r6}
   2714e:	c938      	ldmia	r1!, {r3, r4, r5}
   27150:	c238      	stmia	r2!, {r3, r4, r5}
   27152:	c978      	ldmia	r1!, {r3, r4, r5, r6}
   27154:	c278      	stmia	r2!, {r3, r4, r5, r6}
   27156:	2800      	cmp	r0, #0
   27158:	d001      	beq.n	2715e <_start+0x2c06>
   2715a:	f7fd faf5 	bl	24748 <_start+0x1f0>
   2715e:	4d8e      	ldr	r5, [pc, #568]	@ (27398 <_start+0x2e40>)
   27160:	446d      	add	r5, sp
   27162:	990b      	ldr	r1, [sp, #44]	@ 0x2c
   27164:	70e9      	strb	r1, [r5, #3]
   27166:	980c      	ldr	r0, [sp, #48]	@ 0x30
   27168:	8028      	strh	r0, [r5, #0]
   2716a:	0e08      	lsrs	r0, r1, #24
   2716c:	71a8      	strb	r0, [r5, #6]
   2716e:	0c08      	lsrs	r0, r1, #16
   27170:	7168      	strb	r0, [r5, #5]
   27172:	0a08      	lsrs	r0, r1, #8
   27174:	7128      	strb	r0, [r5, #4]
   27176:	a80c      	add	r0, sp, #48	@ 0x30
   27178:	7880      	ldrb	r0, [r0, #2]
   2717a:	70a8      	strb	r0, [r5, #2]
   2717c:	1de8      	adds	r0, r5, #7
   2717e:	4982      	ldr	r1, [pc, #520]	@ (27388 <_start+0x2e30>)
   27180:	4469      	add	r1, sp
   27182:	2238      	movs	r2, #56	@ 0x38
   27184:	f000 fd67 	bl	27c56 <__aeabi_memcpy>
   27188:	4c7e      	ldr	r4, [pc, #504]	@ (27384 <_start+0x2e2c>)
   2718a:	446c      	add	r4, sp
   2718c:	4620      	mov	r0, r4
   2718e:	4629      	mov	r1, r5
   27190:	f7fc ff32 	bl	23ff8 <_ZN18complex_no_dynamic3app17he9b4bb638deee3abE>
   27194:	7820      	ldrb	r0, [r4, #0]
   27196:	2801      	cmp	r0, #1
   27198:	d103      	bne.n	271a2 <_start+0x2c4a>
   2719a:	9909      	ldr	r1, [sp, #36]	@ 0x24
   2719c:	6e09      	ldr	r1, [r1, #96]	@ 0x60
   2719e:	910b      	str	r1, [sp, #44]	@ 0x2c
   271a0:	e015      	b.n	271ce <_start+0x2c76>
   271a2:	4978      	ldr	r1, [pc, #480]	@ (27384 <_start+0x2e2c>)
   271a4:	4469      	add	r1, sp
   271a6:	78ca      	ldrb	r2, [r1, #3]
   271a8:	ab0c      	add	r3, sp, #48	@ 0x30
   271aa:	709a      	strb	r2, [r3, #2]
   271ac:	784a      	ldrb	r2, [r1, #1]
   271ae:	788c      	ldrb	r4, [r1, #2]
   271b0:	0224      	lsls	r4, r4, #8
   271b2:	18a2      	adds	r2, r4, r2
   271b4:	801a      	strh	r2, [r3, #0]
   271b6:	3108      	adds	r1, #8
   271b8:	9a09      	ldr	r2, [sp, #36]	@ 0x24
   271ba:	6e12      	ldr	r2, [r2, #96]	@ 0x60
   271bc:	920b      	str	r2, [sp, #44]	@ 0x2c
   271be:	4a72      	ldr	r2, [pc, #456]	@ (27388 <_start+0x2e30>)
   271c0:	446a      	add	r2, sp
   271c2:	c918      	ldmia	r1!, {r3, r4}
   271c4:	c218      	stmia	r2!, {r3, r4}
   271c6:	c938      	ldmia	r1!, {r3, r4, r5}
   271c8:	c238      	stmia	r2!, {r3, r4, r5}
   271ca:	7809      	ldrb	r1, [r1, #0]
   271cc:	7011      	strb	r1, [r2, #0]
   271ce:	2800      	cmp	r0, #0
   271d0:	d001      	beq.n	271d6 <_start+0x2c7e>
   271d2:	f7fd fab9 	bl	24748 <_start+0x1f0>
   271d6:	4d71      	ldr	r5, [pc, #452]	@ (2739c <_start+0x2e44>)
   271d8:	446d      	add	r5, sp
   271da:	990b      	ldr	r1, [sp, #44]	@ 0x2c
   271dc:	70e9      	strb	r1, [r5, #3]
   271de:	980c      	ldr	r0, [sp, #48]	@ 0x30
   271e0:	8028      	strh	r0, [r5, #0]
   271e2:	0e08      	lsrs	r0, r1, #24
   271e4:	71a8      	strb	r0, [r5, #6]
   271e6:	0c08      	lsrs	r0, r1, #16
   271e8:	7168      	strb	r0, [r5, #5]
   271ea:	0a08      	lsrs	r0, r1, #8
   271ec:	7128      	strb	r0, [r5, #4]
   271ee:	a80c      	add	r0, sp, #48	@ 0x30
   271f0:	7880      	ldrb	r0, [r0, #2]
   271f2:	70a8      	strb	r0, [r5, #2]
   271f4:	1de8      	adds	r0, r5, #7
   271f6:	4964      	ldr	r1, [pc, #400]	@ (27388 <_start+0x2e30>)
   271f8:	4469      	add	r1, sp
   271fa:	2215      	movs	r2, #21
   271fc:	f000 fd2b 	bl	27c56 <__aeabi_memcpy>
   27200:	4c60      	ldr	r4, [pc, #384]	@ (27384 <_start+0x2e2c>)
   27202:	446c      	add	r4, sp
   27204:	4620      	mov	r0, r4
   27206:	4629      	mov	r1, r5
   27208:	f7fb fc02 	bl	22a10 <_ZN18complex_no_dynamic3app17h9a6faf4f3fe90f09E>
   2720c:	7824      	ldrb	r4, [r4, #0]
   2720e:	2c01      	cmp	r4, #1
   27210:	d103      	bne.n	2721a <_start+0x2cc2>
   27212:	9809      	ldr	r0, [sp, #36]	@ 0x24
   27214:	6e00      	ldr	r0, [r0, #96]	@ 0x60
   27216:	900b      	str	r0, [sp, #44]	@ 0x2c
   27218:	e012      	b.n	27240 <_start+0x2ce8>
   2721a:	495a      	ldr	r1, [pc, #360]	@ (27384 <_start+0x2e2c>)
   2721c:	4469      	add	r1, sp
   2721e:	78c8      	ldrb	r0, [r1, #3]
   27220:	aa0c      	add	r2, sp, #48	@ 0x30
   27222:	7090      	strb	r0, [r2, #2]
   27224:	7848      	ldrb	r0, [r1, #1]
   27226:	788b      	ldrb	r3, [r1, #2]
   27228:	021b      	lsls	r3, r3, #8
   2722a:	1818      	adds	r0, r3, r0
   2722c:	8010      	strh	r0, [r2, #0]
   2722e:	9809      	ldr	r0, [sp, #36]	@ 0x24
   27230:	6e00      	ldr	r0, [r0, #96]	@ 0x60
   27232:	900b      	str	r0, [sp, #44]	@ 0x2c
   27234:	3108      	adds	r1, #8
   27236:	4854      	ldr	r0, [pc, #336]	@ (27388 <_start+0x2e30>)
   27238:	4468      	add	r0, sp
   2723a:	2256      	movs	r2, #86	@ 0x56
   2723c:	f000 fbab 	bl	27996 <__aeabi_memcpy4>
   27240:	2c00      	cmp	r4, #0
   27242:	d001      	beq.n	27248 <_start+0x2cf0>
   27244:	f7fd fa80 	bl	24748 <_start+0x1f0>
   27248:	4d55      	ldr	r5, [pc, #340]	@ (273a0 <_start+0x2e48>)
   2724a:	446d      	add	r5, sp
   2724c:	990b      	ldr	r1, [sp, #44]	@ 0x2c
   2724e:	70e9      	strb	r1, [r5, #3]
   27250:	980c      	ldr	r0, [sp, #48]	@ 0x30
   27252:	8028      	strh	r0, [r5, #0]
   27254:	0e08      	lsrs	r0, r1, #24
   27256:	71a8      	strb	r0, [r5, #6]
   27258:	0c08      	lsrs	r0, r1, #16
   2725a:	7168      	strb	r0, [r5, #5]
   2725c:	0a08      	lsrs	r0, r1, #8
   2725e:	7128      	strb	r0, [r5, #4]
   27260:	a80c      	add	r0, sp, #48	@ 0x30
   27262:	7880      	ldrb	r0, [r0, #2]
   27264:	70a8      	strb	r0, [r5, #2]
   27266:	1de8      	adds	r0, r5, #7
   27268:	4947      	ldr	r1, [pc, #284]	@ (27388 <_start+0x2e30>)
   2726a:	4469      	add	r1, sp
   2726c:	2256      	movs	r2, #86	@ 0x56
   2726e:	f000 fcf2 	bl	27c56 <__aeabi_memcpy>
   27272:	4c44      	ldr	r4, [pc, #272]	@ (27384 <_start+0x2e2c>)
   27274:	446c      	add	r4, sp
   27276:	4620      	mov	r0, r4
   27278:	4629      	mov	r1, r5
   2727a:	f7fb fc23 	bl	22ac4 <_ZN18complex_no_dynamic3app17h9f84577d91cba90fE>
   2727e:	7820      	ldrb	r0, [r4, #0]
   27280:	2801      	cmp	r0, #1
   27282:	d102      	bne.n	2728a <_start+0x2d32>
   27284:	9909      	ldr	r1, [sp, #36]	@ 0x24
   27286:	6e09      	ldr	r1, [r1, #96]	@ 0x60
   27288:	e014      	b.n	272b4 <_start+0x2d5c>
   2728a:	493f      	ldr	r1, [pc, #252]	@ (27388 <_start+0x2e30>)
   2728c:	4469      	add	r1, sp
   2728e:	9d09      	ldr	r5, [sp, #36]	@ 0x24
   27290:	6eea      	ldr	r2, [r5, #108]	@ 0x6c
   27292:	810a      	strh	r2, [r1, #8]
   27294:	4a3b      	ldr	r2, [pc, #236]	@ (27384 <_start+0x2e2c>)
   27296:	446a      	add	r2, sp
   27298:	78d3      	ldrb	r3, [r2, #3]
   2729a:	ac0c      	add	r4, sp, #48	@ 0x30
   2729c:	70a3      	strb	r3, [r4, #2]
   2729e:	7c93      	ldrb	r3, [r2, #18]
   272a0:	728b      	strb	r3, [r1, #10]
   272a2:	7851      	ldrb	r1, [r2, #1]
   272a4:	7892      	ldrb	r2, [r2, #2]
   272a6:	0212      	lsls	r2, r2, #8
   272a8:	1851      	adds	r1, r2, r1
   272aa:	8021      	strh	r1, [r4, #0]
   272ac:	6e69      	ldr	r1, [r5, #100]	@ 0x64
   272ae:	6eaa      	ldr	r2, [r5, #104]	@ 0x68
   272b0:	c506      	stmia	r5!, {r1, r2}
   272b2:	6da9      	ldr	r1, [r5, #88]	@ 0x58
   272b4:	910b      	str	r1, [sp, #44]	@ 0x2c
   272b6:	2800      	cmp	r0, #0
   272b8:	d001      	beq.n	272be <_start+0x2d66>
   272ba:	f7fd fa45 	bl	24748 <_start+0x1f0>
   272be:	4d39      	ldr	r5, [pc, #228]	@ (273a4 <_start+0x2e4c>)
   272c0:	446d      	add	r5, sp
   272c2:	990b      	ldr	r1, [sp, #44]	@ 0x2c
   272c4:	70e9      	strb	r1, [r5, #3]
   272c6:	980c      	ldr	r0, [sp, #48]	@ 0x30
   272c8:	8028      	strh	r0, [r5, #0]
   272ca:	0e08      	lsrs	r0, r1, #24
   272cc:	71a8      	strb	r0, [r5, #6]
   272ce:	0c08      	lsrs	r0, r1, #16
   272d0:	7168      	strb	r0, [r5, #5]
   272d2:	0a08      	lsrs	r0, r1, #8
   272d4:	7128      	strb	r0, [r5, #4]
   272d6:	a80c      	add	r0, sp, #48	@ 0x30
   272d8:	7880      	ldrb	r0, [r0, #2]
   272da:	70a8      	strb	r0, [r5, #2]
   272dc:	1de8      	adds	r0, r5, #7
   272de:	492a      	ldr	r1, [pc, #168]	@ (27388 <_start+0x2e30>)
   272e0:	4469      	add	r1, sp
   272e2:	220b      	movs	r2, #11
   272e4:	f000 fcb7 	bl	27c56 <__aeabi_memcpy>
   272e8:	4c26      	ldr	r4, [pc, #152]	@ (27384 <_start+0x2e2c>)
   272ea:	446c      	add	r4, sp
   272ec:	4620      	mov	r0, r4
   272ee:	4629      	mov	r1, r5
   272f0:	f7f9 fcc0 	bl	20c74 <_ZN18complex_no_dynamic3app17h28aacee0d9e4b28bE>
   272f4:	7820      	ldrb	r0, [r4, #0]
   272f6:	2801      	cmp	r0, #1
   272f8:	d103      	bne.n	27302 <_start+0x2daa>
   272fa:	9909      	ldr	r1, [sp, #36]	@ 0x24
   272fc:	6e09      	ldr	r1, [r1, #96]	@ 0x60
   272fe:	910b      	str	r1, [sp, #44]	@ 0x2c
   27300:	e019      	b.n	27336 <_start+0x2dde>
   27302:	4920      	ldr	r1, [pc, #128]	@ (27384 <_start+0x2e2c>)
   27304:	4469      	add	r1, sp
   27306:	78ca      	ldrb	r2, [r1, #3]
   27308:	ab0c      	add	r3, sp, #48	@ 0x30
   2730a:	709a      	strb	r2, [r3, #2]
   2730c:	784a      	ldrb	r2, [r1, #1]
   2730e:	788c      	ldrb	r4, [r1, #2]
   27310:	0224      	lsls	r4, r4, #8
   27312:	18a2      	adds	r2, r4, r2
   27314:	801a      	strh	r2, [r3, #0]
   27316:	3108      	adds	r1, #8
   27318:	9a09      	ldr	r2, [sp, #36]	@ 0x24
   2731a:	6e12      	ldr	r2, [r2, #96]	@ 0x60
   2731c:	920b      	str	r2, [sp, #44]	@ 0x2c
   2731e:	4a1a      	ldr	r2, [pc, #104]	@ (27388 <_start+0x2e30>)
   27320:	446a      	add	r2, sp
   27322:	c938      	ldmia	r1!, {r3, r4, r5}
   27324:	c238      	stmia	r2!, {r3, r4, r5}
   27326:	c978      	ldmia	r1!, {r3, r4, r5, r6}
   27328:	c278      	stmia	r2!, {r3, r4, r5, r6}
   2732a:	c978      	ldmia	r1!, {r3, r4, r5, r6}
   2732c:	c278      	stmia	r2!, {r3, r4, r5, r6}
   2732e:	c978      	ldmia	r1!, {r3, r4, r5, r6}
   27330:	c278      	stmia	r2!, {r3, r4, r5, r6}
   27332:	7809      	ldrb	r1, [r1, #0]
   27334:	7011      	strb	r1, [r2, #0]
   27336:	2800      	cmp	r0, #0
   27338:	d001      	beq.n	2733e <_start+0x2de6>
   2733a:	f7fd fa05 	bl	24748 <_start+0x1f0>
   2733e:	4d1a      	ldr	r5, [pc, #104]	@ (273a8 <_start+0x2e50>)
   27340:	446d      	add	r5, sp
   27342:	990b      	ldr	r1, [sp, #44]	@ 0x2c
   27344:	70e9      	strb	r1, [r5, #3]
   27346:	980c      	ldr	r0, [sp, #48]	@ 0x30
   27348:	8028      	strh	r0, [r5, #0]
   2734a:	0e08      	lsrs	r0, r1, #24
   2734c:	71a8      	strb	r0, [r5, #6]
   2734e:	0c08      	lsrs	r0, r1, #16
   27350:	7168      	strb	r0, [r5, #5]
   27352:	0a08      	lsrs	r0, r1, #8
   27354:	7128      	strb	r0, [r5, #4]
   27356:	a80c      	add	r0, sp, #48	@ 0x30
   27358:	7880      	ldrb	r0, [r0, #2]
   2735a:	70a8      	strb	r0, [r5, #2]
   2735c:	1de8      	adds	r0, r5, #7
   2735e:	490a      	ldr	r1, [pc, #40]	@ (27388 <_start+0x2e30>)
   27360:	4469      	add	r1, sp
   27362:	223d      	movs	r2, #61	@ 0x3d
   27364:	f000 fc77 	bl	27c56 <__aeabi_memcpy>
   27368:	4c06      	ldr	r4, [pc, #24]	@ (27384 <_start+0x2e2c>)
   2736a:	446c      	add	r4, sp
   2736c:	4620      	mov	r0, r4
   2736e:	4629      	mov	r1, r5
   27370:	f7fb ff98 	bl	232a4 <_ZN18complex_no_dynamic3app17hb52684d514201a8cE>
   27374:	7820      	ldrb	r0, [r4, #0]
   27376:	2801      	cmp	r0, #1
   27378:	d118      	bne.n	273ac <_start+0x2e54>
   2737a:	9909      	ldr	r1, [sp, #36]	@ 0x24
   2737c:	6e09      	ldr	r1, [r1, #96]	@ 0x60
   2737e:	910b      	str	r1, [sp, #44]	@ 0x2c
   27380:	e028      	b.n	273d4 <_start+0x2e7c>
   27382:	46c0      	nop			@ (mov r8, r8)
   27384:	00001404 	.word	0x00001404
   27388:	000013a8 	.word	0x000013a8
   2738c:	00001058 	.word	0x00001058
   27390:	00001090 	.word	0x00001090
   27394:	000010d0 	.word	0x000010d0
   27398:	000010e4 	.word	0x000010e4
   2739c:	00001124 	.word	0x00001124
   273a0:	00001140 	.word	0x00001140
   273a4:	000011a0 	.word	0x000011a0
   273a8:	000011b4 	.word	0x000011b4
   273ac:	49e7      	ldr	r1, [pc, #924]	@ (2774c <_start+0x31f4>)
   273ae:	4469      	add	r1, sp
   273b0:	78ca      	ldrb	r2, [r1, #3]
   273b2:	ab0c      	add	r3, sp, #48	@ 0x30
   273b4:	709a      	strb	r2, [r3, #2]
   273b6:	784a      	ldrb	r2, [r1, #1]
   273b8:	788c      	ldrb	r4, [r1, #2]
   273ba:	0224      	lsls	r4, r4, #8
   273bc:	18a2      	adds	r2, r4, r2
   273be:	801a      	strh	r2, [r3, #0]
   273c0:	3108      	adds	r1, #8
   273c2:	9a09      	ldr	r2, [sp, #36]	@ 0x24
   273c4:	6e12      	ldr	r2, [r2, #96]	@ 0x60
   273c6:	920b      	str	r2, [sp, #44]	@ 0x2c
   273c8:	4ae1      	ldr	r2, [pc, #900]	@ (27750 <_start+0x31f8>)
   273ca:	446a      	add	r2, sp
   273cc:	c938      	ldmia	r1!, {r3, r4, r5}
   273ce:	c238      	stmia	r2!, {r3, r4, r5}
   273d0:	c978      	ldmia	r1!, {r3, r4, r5, r6}
   273d2:	c278      	stmia	r2!, {r3, r4, r5, r6}
   273d4:	2800      	cmp	r0, #0
   273d6:	d001      	beq.n	273dc <_start+0x2e84>
   273d8:	f7fd f9b6 	bl	24748 <_start+0x1f0>
   273dc:	4dfc      	ldr	r5, [pc, #1008]	@ (277d0 <_start+0x3278>)
   273de:	446d      	add	r5, sp
   273e0:	990b      	ldr	r1, [sp, #44]	@ 0x2c
   273e2:	70e9      	strb	r1, [r5, #3]
   273e4:	980c      	ldr	r0, [sp, #48]	@ 0x30
   273e6:	8028      	strh	r0, [r5, #0]
   273e8:	0e08      	lsrs	r0, r1, #24
   273ea:	71a8      	strb	r0, [r5, #6]
   273ec:	0c08      	lsrs	r0, r1, #16
   273ee:	7168      	strb	r0, [r5, #5]
   273f0:	0a08      	lsrs	r0, r1, #8
   273f2:	7128      	strb	r0, [r5, #4]
   273f4:	a80c      	add	r0, sp, #48	@ 0x30
   273f6:	7880      	ldrb	r0, [r0, #2]
   273f8:	70a8      	strb	r0, [r5, #2]
   273fa:	1de8      	adds	r0, r5, #7
   273fc:	49f3      	ldr	r1, [pc, #972]	@ (277cc <_start+0x3274>)
   273fe:	4469      	add	r1, sp
   27400:	221c      	movs	r2, #28
   27402:	f000 fc28 	bl	27c56 <__aeabi_memcpy>
   27406:	4cf0      	ldr	r4, [pc, #960]	@ (277c8 <_start+0x3270>)
   27408:	446c      	add	r4, sp
   2740a:	4620      	mov	r0, r4
   2740c:	4629      	mov	r1, r5
   2740e:	f7f9 fe59 	bl	210c4 <_ZN18complex_no_dynamic3app17h35e90010a7bd4af5E>
   27412:	7820      	ldrb	r0, [r4, #0]
   27414:	2801      	cmp	r0, #1
   27416:	d103      	bne.n	27420 <_start+0x2ec8>
   27418:	9909      	ldr	r1, [sp, #36]	@ 0x24
   2741a:	6e09      	ldr	r1, [r1, #96]	@ 0x60
   2741c:	910b      	str	r1, [sp, #44]	@ 0x2c
   2741e:	e015      	b.n	2744c <_start+0x2ef4>
   27420:	49e9      	ldr	r1, [pc, #932]	@ (277c8 <_start+0x3270>)
   27422:	4469      	add	r1, sp
   27424:	78ca      	ldrb	r2, [r1, #3]
   27426:	ab0c      	add	r3, sp, #48	@ 0x30
   27428:	709a      	strb	r2, [r3, #2]
   2742a:	784a      	ldrb	r2, [r1, #1]
   2742c:	788c      	ldrb	r4, [r1, #2]
   2742e:	0224      	lsls	r4, r4, #8
   27430:	18a2      	adds	r2, r4, r2
   27432:	801a      	strh	r2, [r3, #0]
   27434:	3108      	adds	r1, #8
   27436:	9a09      	ldr	r2, [sp, #36]	@ 0x24
   27438:	6e12      	ldr	r2, [r2, #96]	@ 0x60
   2743a:	920b      	str	r2, [sp, #44]	@ 0x2c
   2743c:	4ae3      	ldr	r2, [pc, #908]	@ (277cc <_start+0x3274>)
   2743e:	446a      	add	r2, sp
   27440:	c938      	ldmia	r1!, {r3, r4, r5}
   27442:	c238      	stmia	r2!, {r3, r4, r5}
   27444:	c978      	ldmia	r1!, {r3, r4, r5, r6}
   27446:	c278      	stmia	r2!, {r3, r4, r5, r6}
   27448:	7809      	ldrb	r1, [r1, #0]
   2744a:	7011      	strb	r1, [r2, #0]
   2744c:	2800      	cmp	r0, #0
   2744e:	d001      	beq.n	27454 <_start+0x2efc>
   27450:	f7fd f97a 	bl	24748 <_start+0x1f0>
   27454:	4ddf      	ldr	r5, [pc, #892]	@ (277d4 <_start+0x327c>)
   27456:	446d      	add	r5, sp
   27458:	990b      	ldr	r1, [sp, #44]	@ 0x2c
   2745a:	70e9      	strb	r1, [r5, #3]
   2745c:	980c      	ldr	r0, [sp, #48]	@ 0x30
   2745e:	8028      	strh	r0, [r5, #0]
   27460:	0e08      	lsrs	r0, r1, #24
   27462:	71a8      	strb	r0, [r5, #6]
   27464:	0c08      	lsrs	r0, r1, #16
   27466:	7168      	strb	r0, [r5, #5]
   27468:	0a08      	lsrs	r0, r1, #8
   2746a:	7128      	strb	r0, [r5, #4]
   2746c:	a80c      	add	r0, sp, #48	@ 0x30
   2746e:	7880      	ldrb	r0, [r0, #2]
   27470:	70a8      	strb	r0, [r5, #2]
   27472:	1de8      	adds	r0, r5, #7
   27474:	49d5      	ldr	r1, [pc, #852]	@ (277cc <_start+0x3274>)
   27476:	4469      	add	r1, sp
   27478:	221d      	movs	r2, #29
   2747a:	f000 fbec 	bl	27c56 <__aeabi_memcpy>
   2747e:	4cd2      	ldr	r4, [pc, #840]	@ (277c8 <_start+0x3270>)
   27480:	446c      	add	r4, sp
   27482:	4620      	mov	r0, r4
   27484:	4629      	mov	r1, r5
   27486:	f7fb ff67 	bl	23358 <_ZN18complex_no_dynamic3app17hb560450d3fa8c6b3E>
   2748a:	7820      	ldrb	r0, [r4, #0]
   2748c:	2801      	cmp	r0, #1
   2748e:	d103      	bne.n	27498 <_start+0x2f40>
   27490:	9909      	ldr	r1, [sp, #36]	@ 0x24
   27492:	6e09      	ldr	r1, [r1, #96]	@ 0x60
   27494:	910b      	str	r1, [sp, #44]	@ 0x2c
   27496:	e015      	b.n	274c4 <_start+0x2f6c>
   27498:	49cb      	ldr	r1, [pc, #812]	@ (277c8 <_start+0x3270>)
   2749a:	4469      	add	r1, sp
   2749c:	78ca      	ldrb	r2, [r1, #3]
   2749e:	ab0c      	add	r3, sp, #48	@ 0x30
   274a0:	709a      	strb	r2, [r3, #2]
   274a2:	784a      	ldrb	r2, [r1, #1]
   274a4:	788c      	ldrb	r4, [r1, #2]
   274a6:	0224      	lsls	r4, r4, #8
   274a8:	18a2      	adds	r2, r4, r2
   274aa:	801a      	strh	r2, [r3, #0]
   274ac:	3108      	adds	r1, #8
   274ae:	9a09      	ldr	r2, [sp, #36]	@ 0x24
   274b0:	6e12      	ldr	r2, [r2, #96]	@ 0x60
   274b2:	920b      	str	r2, [sp, #44]	@ 0x2c
   274b4:	4ac5      	ldr	r2, [pc, #788]	@ (277cc <_start+0x3274>)
   274b6:	446a      	add	r2, sp
   274b8:	c938      	ldmia	r1!, {r3, r4, r5}
   274ba:	c238      	stmia	r2!, {r3, r4, r5}
   274bc:	c938      	ldmia	r1!, {r3, r4, r5}
   274be:	c238      	stmia	r2!, {r3, r4, r5}
   274c0:	c978      	ldmia	r1!, {r3, r4, r5, r6}
   274c2:	c278      	stmia	r2!, {r3, r4, r5, r6}
   274c4:	2800      	cmp	r0, #0
   274c6:	d001      	beq.n	274cc <_start+0x2f74>
   274c8:	f7fd f93e 	bl	24748 <_start+0x1f0>
   274cc:	4dc2      	ldr	r5, [pc, #776]	@ (277d8 <_start+0x3280>)
   274ce:	446d      	add	r5, sp
   274d0:	990b      	ldr	r1, [sp, #44]	@ 0x2c
   274d2:	70e9      	strb	r1, [r5, #3]
   274d4:	980c      	ldr	r0, [sp, #48]	@ 0x30
   274d6:	8028      	strh	r0, [r5, #0]
   274d8:	0e08      	lsrs	r0, r1, #24
   274da:	71a8      	strb	r0, [r5, #6]
   274dc:	0c08      	lsrs	r0, r1, #16
   274de:	7168      	strb	r0, [r5, #5]
   274e0:	0a08      	lsrs	r0, r1, #8
   274e2:	7128      	strb	r0, [r5, #4]
   274e4:	a80c      	add	r0, sp, #48	@ 0x30
   274e6:	7880      	ldrb	r0, [r0, #2]
   274e8:	70a8      	strb	r0, [r5, #2]
   274ea:	1de8      	adds	r0, r5, #7
   274ec:	49fa      	ldr	r1, [pc, #1000]	@ (278d8 <_start+0x3380>)
   274ee:	4469      	add	r1, sp
   274f0:	2228      	movs	r2, #40	@ 0x28
   274f2:	f000 fbb0 	bl	27c56 <__aeabi_memcpy>
   274f6:	4cf7      	ldr	r4, [pc, #988]	@ (278d4 <_start+0x337c>)
   274f8:	446c      	add	r4, sp
   274fa:	4620      	mov	r0, r4
   274fc:	4629      	mov	r1, r5
   274fe:	f7f8 fe4b 	bl	20198 <_ZN18complex_no_dynamic3app17h04f3be59ea28f0a8E>
   27502:	7824      	ldrb	r4, [r4, #0]
   27504:	2c01      	cmp	r4, #1
   27506:	d103      	bne.n	27510 <_start+0x2fb8>
   27508:	9809      	ldr	r0, [sp, #36]	@ 0x24
   2750a:	6e00      	ldr	r0, [r0, #96]	@ 0x60
   2750c:	900b      	str	r0, [sp, #44]	@ 0x2c
   2750e:	e012      	b.n	27536 <_start+0x2fde>
   27510:	49f0      	ldr	r1, [pc, #960]	@ (278d4 <_start+0x337c>)
   27512:	4469      	add	r1, sp
   27514:	78c8      	ldrb	r0, [r1, #3]
   27516:	aa0c      	add	r2, sp, #48	@ 0x30
   27518:	7090      	strb	r0, [r2, #2]
   2751a:	7848      	ldrb	r0, [r1, #1]
   2751c:	788b      	ldrb	r3, [r1, #2]
   2751e:	021b      	lsls	r3, r3, #8
   27520:	1818      	adds	r0, r3, r0
   27522:	8010      	strh	r0, [r2, #0]
   27524:	9809      	ldr	r0, [sp, #36]	@ 0x24
   27526:	6e00      	ldr	r0, [r0, #96]	@ 0x60
   27528:	900b      	str	r0, [sp, #44]	@ 0x2c
   2752a:	3108      	adds	r1, #8
   2752c:	48ea      	ldr	r0, [pc, #936]	@ (278d8 <_start+0x3380>)
   2752e:	4468      	add	r0, sp
   27530:	2257      	movs	r2, #87	@ 0x57
   27532:	f000 fa30 	bl	27996 <__aeabi_memcpy4>
   27536:	2c00      	cmp	r4, #0
   27538:	d001      	beq.n	2753e <_start+0x2fe6>
   2753a:	f7fd f905 	bl	24748 <_start+0x1f0>
   2753e:	4de7      	ldr	r5, [pc, #924]	@ (278dc <_start+0x3384>)
   27540:	446d      	add	r5, sp
   27542:	990b      	ldr	r1, [sp, #44]	@ 0x2c
   27544:	70e9      	strb	r1, [r5, #3]
   27546:	980c      	ldr	r0, [sp, #48]	@ 0x30
   27548:	8028      	strh	r0, [r5, #0]
   2754a:	0e08      	lsrs	r0, r1, #24
   2754c:	71a8      	strb	r0, [r5, #6]
   2754e:	0c08      	lsrs	r0, r1, #16
   27550:	7168      	strb	r0, [r5, #5]
   27552:	0a08      	lsrs	r0, r1, #8
   27554:	7128      	strb	r0, [r5, #4]
   27556:	a80c      	add	r0, sp, #48	@ 0x30
   27558:	7880      	ldrb	r0, [r0, #2]
   2755a:	70a8      	strb	r0, [r5, #2]
   2755c:	1de8      	adds	r0, r5, #7
   2755e:	49de      	ldr	r1, [pc, #888]	@ (278d8 <_start+0x3380>)
   27560:	4469      	add	r1, sp
   27562:	2257      	movs	r2, #87	@ 0x57
   27564:	f000 fb77 	bl	27c56 <__aeabi_memcpy>
   27568:	4cda      	ldr	r4, [pc, #872]	@ (278d4 <_start+0x337c>)
   2756a:	446c      	add	r4, sp
   2756c:	4620      	mov	r0, r4
   2756e:	4629      	mov	r1, r5
   27570:	f7fa fade 	bl	21b30 <_ZN18complex_no_dynamic3app17h547aefc700a3168bE>
   27574:	7824      	ldrb	r4, [r4, #0]
   27576:	2c01      	cmp	r4, #1
   27578:	d103      	bne.n	27582 <_start+0x302a>
   2757a:	9809      	ldr	r0, [sp, #36]	@ 0x24
   2757c:	6e00      	ldr	r0, [r0, #96]	@ 0x60
   2757e:	900b      	str	r0, [sp, #44]	@ 0x2c
   27580:	e012      	b.n	275a8 <_start+0x3050>
   27582:	49d4      	ldr	r1, [pc, #848]	@ (278d4 <_start+0x337c>)
   27584:	4469      	add	r1, sp
   27586:	78c8      	ldrb	r0, [r1, #3]
   27588:	aa0c      	add	r2, sp, #48	@ 0x30
   2758a:	7090      	strb	r0, [r2, #2]
   2758c:	7848      	ldrb	r0, [r1, #1]
   2758e:	788b      	ldrb	r3, [r1, #2]
   27590:	021b      	lsls	r3, r3, #8
   27592:	1818      	adds	r0, r3, r0
   27594:	8010      	strh	r0, [r2, #0]
   27596:	9809      	ldr	r0, [sp, #36]	@ 0x24
   27598:	6e00      	ldr	r0, [r0, #96]	@ 0x60
   2759a:	900b      	str	r0, [sp, #44]	@ 0x2c
   2759c:	3108      	adds	r1, #8
   2759e:	48ce      	ldr	r0, [pc, #824]	@ (278d8 <_start+0x3380>)
   275a0:	4468      	add	r0, sp
   275a2:	224e      	movs	r2, #78	@ 0x4e
   275a4:	f000 f9f7 	bl	27996 <__aeabi_memcpy4>
   275a8:	2c00      	cmp	r4, #0
   275aa:	d001      	beq.n	275b0 <_start+0x3058>
   275ac:	f7fd f8cc 	bl	24748 <_start+0x1f0>
   275b0:	4dcb      	ldr	r5, [pc, #812]	@ (278e0 <_start+0x3388>)
   275b2:	446d      	add	r5, sp
   275b4:	990b      	ldr	r1, [sp, #44]	@ 0x2c
   275b6:	70e9      	strb	r1, [r5, #3]
   275b8:	980c      	ldr	r0, [sp, #48]	@ 0x30
   275ba:	8028      	strh	r0, [r5, #0]
   275bc:	0e08      	lsrs	r0, r1, #24
   275be:	71a8      	strb	r0, [r5, #6]
   275c0:	0c08      	lsrs	r0, r1, #16
   275c2:	7168      	strb	r0, [r5, #5]
   275c4:	0a08      	lsrs	r0, r1, #8
   275c6:	7128      	strb	r0, [r5, #4]
   275c8:	a80c      	add	r0, sp, #48	@ 0x30
   275ca:	7880      	ldrb	r0, [r0, #2]
   275cc:	70a8      	strb	r0, [r5, #2]
   275ce:	1de8      	adds	r0, r5, #7
   275d0:	49c1      	ldr	r1, [pc, #772]	@ (278d8 <_start+0x3380>)
   275d2:	4469      	add	r1, sp
   275d4:	224e      	movs	r2, #78	@ 0x4e
   275d6:	f000 fb3e 	bl	27c56 <__aeabi_memcpy>
   275da:	4cbe      	ldr	r4, [pc, #760]	@ (278d4 <_start+0x337c>)
   275dc:	446c      	add	r4, sp
   275de:	4620      	mov	r0, r4
   275e0:	4629      	mov	r1, r5
   275e2:	f7fc f8e7 	bl	237b4 <_ZN18complex_no_dynamic3app17hc37f6665a1c42a4aE>
   275e6:	7820      	ldrb	r0, [r4, #0]
   275e8:	2801      	cmp	r0, #1
   275ea:	d102      	bne.n	275f2 <_start+0x309a>
   275ec:	9909      	ldr	r1, [sp, #36]	@ 0x24
   275ee:	6e09      	ldr	r1, [r1, #96]	@ 0x60
   275f0:	e012      	b.n	27618 <_start+0x30c0>
   275f2:	49b9      	ldr	r1, [pc, #740]	@ (278d8 <_start+0x3380>)
   275f4:	4469      	add	r1, sp
   275f6:	9c09      	ldr	r4, [sp, #36]	@ 0x24
   275f8:	6ee2      	ldr	r2, [r4, #108]	@ 0x6c
   275fa:	810a      	strh	r2, [r1, #8]
   275fc:	49b5      	ldr	r1, [pc, #724]	@ (278d4 <_start+0x337c>)
   275fe:	4469      	add	r1, sp
   27600:	78ca      	ldrb	r2, [r1, #3]
   27602:	ab0c      	add	r3, sp, #48	@ 0x30
   27604:	709a      	strb	r2, [r3, #2]
   27606:	784a      	ldrb	r2, [r1, #1]
   27608:	7889      	ldrb	r1, [r1, #2]
   2760a:	0209      	lsls	r1, r1, #8
   2760c:	1889      	adds	r1, r1, r2
   2760e:	8019      	strh	r1, [r3, #0]
   27610:	6e61      	ldr	r1, [r4, #100]	@ 0x64
   27612:	6ea2      	ldr	r2, [r4, #104]	@ 0x68
   27614:	c406      	stmia	r4!, {r1, r2}
   27616:	6da1      	ldr	r1, [r4, #88]	@ 0x58
   27618:	910b      	str	r1, [sp, #44]	@ 0x2c
   2761a:	2800      	cmp	r0, #0
   2761c:	d001      	beq.n	27622 <_start+0x30ca>
   2761e:	f7fd f893 	bl	24748 <_start+0x1f0>
   27622:	4db0      	ldr	r5, [pc, #704]	@ (278e4 <_start+0x338c>)
   27624:	446d      	add	r5, sp
   27626:	990b      	ldr	r1, [sp, #44]	@ 0x2c
   27628:	70e9      	strb	r1, [r5, #3]
   2762a:	980c      	ldr	r0, [sp, #48]	@ 0x30
   2762c:	8028      	strh	r0, [r5, #0]
   2762e:	0e08      	lsrs	r0, r1, #24
   27630:	71a8      	strb	r0, [r5, #6]
   27632:	0c08      	lsrs	r0, r1, #16
   27634:	7168      	strb	r0, [r5, #5]
   27636:	0a08      	lsrs	r0, r1, #8
   27638:	7128      	strb	r0, [r5, #4]
   2763a:	a80c      	add	r0, sp, #48	@ 0x30
   2763c:	7880      	ldrb	r0, [r0, #2]
   2763e:	70a8      	strb	r0, [r5, #2]
   27640:	1de8      	adds	r0, r5, #7
   27642:	49a5      	ldr	r1, [pc, #660]	@ (278d8 <_start+0x3380>)
   27644:	4469      	add	r1, sp
   27646:	220a      	movs	r2, #10
   27648:	f000 fb05 	bl	27c56 <__aeabi_memcpy>
   2764c:	4ca1      	ldr	r4, [pc, #644]	@ (278d4 <_start+0x337c>)
   2764e:	446c      	add	r4, sp
   27650:	4620      	mov	r0, r4
   27652:	4629      	mov	r1, r5
   27654:	f7fa fbd4 	bl	21e00 <_ZN18complex_no_dynamic3app17h5f680c0b23dc7332E>
   27658:	7824      	ldrb	r4, [r4, #0]
   2765a:	2c01      	cmp	r4, #1
   2765c:	d103      	bne.n	27666 <_start+0x310e>
   2765e:	9809      	ldr	r0, [sp, #36]	@ 0x24
   27660:	6e00      	ldr	r0, [r0, #96]	@ 0x60
   27662:	900b      	str	r0, [sp, #44]	@ 0x2c
   27664:	e012      	b.n	2768c <_start+0x3134>
   27666:	499b      	ldr	r1, [pc, #620]	@ (278d4 <_start+0x337c>)
   27668:	4469      	add	r1, sp
   2766a:	78c8      	ldrb	r0, [r1, #3]
   2766c:	aa0c      	add	r2, sp, #48	@ 0x30
   2766e:	7090      	strb	r0, [r2, #2]
   27670:	7848      	ldrb	r0, [r1, #1]
   27672:	788b      	ldrb	r3, [r1, #2]
   27674:	021b      	lsls	r3, r3, #8
   27676:	1818      	adds	r0, r3, r0
   27678:	8010      	strh	r0, [r2, #0]
   2767a:	9809      	ldr	r0, [sp, #36]	@ 0x24
   2767c:	6e00      	ldr	r0, [r0, #96]	@ 0x60
   2767e:	900b      	str	r0, [sp, #44]	@ 0x2c
   27680:	3108      	adds	r1, #8
   27682:	4895      	ldr	r0, [pc, #596]	@ (278d8 <_start+0x3380>)
   27684:	4468      	add	r0, sp
   27686:	2249      	movs	r2, #73	@ 0x49
   27688:	f000 f985 	bl	27996 <__aeabi_memcpy4>
   2768c:	2c00      	cmp	r4, #0
   2768e:	d001      	beq.n	27694 <_start+0x313c>
   27690:	f7fd f85a 	bl	24748 <_start+0x1f0>
   27694:	4d94      	ldr	r5, [pc, #592]	@ (278e8 <_start+0x3390>)
   27696:	446d      	add	r5, sp
   27698:	990b      	ldr	r1, [sp, #44]	@ 0x2c
   2769a:	70e9      	strb	r1, [r5, #3]
   2769c:	980c      	ldr	r0, [sp, #48]	@ 0x30
   2769e:	8028      	strh	r0, [r5, #0]
   276a0:	0e08      	lsrs	r0, r1, #24
   276a2:	71a8      	strb	r0, [r5, #6]
   276a4:	0c08      	lsrs	r0, r1, #16
   276a6:	7168      	strb	r0, [r5, #5]
   276a8:	0a08      	lsrs	r0, r1, #8
   276aa:	7128      	strb	r0, [r5, #4]
   276ac:	a80c      	add	r0, sp, #48	@ 0x30
   276ae:	7880      	ldrb	r0, [r0, #2]
   276b0:	70a8      	strb	r0, [r5, #2]
   276b2:	1de8      	adds	r0, r5, #7
   276b4:	4988      	ldr	r1, [pc, #544]	@ (278d8 <_start+0x3380>)
   276b6:	4469      	add	r1, sp
   276b8:	2249      	movs	r2, #73	@ 0x49
   276ba:	f000 facc 	bl	27c56 <__aeabi_memcpy>
   276be:	4c85      	ldr	r4, [pc, #532]	@ (278d4 <_start+0x337c>)
   276c0:	446c      	add	r4, sp
   276c2:	4620      	mov	r0, r4
   276c4:	4629      	mov	r1, r5
   276c6:	f7fb ffb5 	bl	23634 <_ZN18complex_no_dynamic3app17hbf687c4e931730d6E>
   276ca:	7820      	ldrb	r0, [r4, #0]
   276cc:	2801      	cmp	r0, #1
   276ce:	d103      	bne.n	276d8 <_start+0x3180>
   276d0:	9909      	ldr	r1, [sp, #36]	@ 0x24
   276d2:	6e09      	ldr	r1, [r1, #96]	@ 0x60
   276d4:	910b      	str	r1, [sp, #44]	@ 0x2c
   276d6:	e013      	b.n	27700 <_start+0x31a8>
   276d8:	497e      	ldr	r1, [pc, #504]	@ (278d4 <_start+0x337c>)
   276da:	4469      	add	r1, sp
   276dc:	78ca      	ldrb	r2, [r1, #3]
   276de:	ab0c      	add	r3, sp, #48	@ 0x30
   276e0:	709a      	strb	r2, [r3, #2]
   276e2:	784a      	ldrb	r2, [r1, #1]
   276e4:	788c      	ldrb	r4, [r1, #2]
   276e6:	0224      	lsls	r4, r4, #8
   276e8:	18a2      	adds	r2, r4, r2
   276ea:	801a      	strh	r2, [r3, #0]
   276ec:	3108      	adds	r1, #8
   276ee:	9a09      	ldr	r2, [sp, #36]	@ 0x24
   276f0:	6e12      	ldr	r2, [r2, #96]	@ 0x60
   276f2:	920b      	str	r2, [sp, #44]	@ 0x2c
   276f4:	4a78      	ldr	r2, [pc, #480]	@ (278d8 <_start+0x3380>)
   276f6:	446a      	add	r2, sp
   276f8:	c918      	ldmia	r1!, {r3, r4}
   276fa:	c218      	stmia	r2!, {r3, r4}
   276fc:	c938      	ldmia	r1!, {r3, r4, r5}
   276fe:	c238      	stmia	r2!, {r3, r4, r5}
   27700:	2800      	cmp	r0, #0
   27702:	d001      	beq.n	27708 <_start+0x31b0>
   27704:	f7fd f820 	bl	24748 <_start+0x1f0>
   27708:	4d78      	ldr	r5, [pc, #480]	@ (278ec <_start+0x3394>)
   2770a:	446d      	add	r5, sp
   2770c:	990b      	ldr	r1, [sp, #44]	@ 0x2c
   2770e:	70e9      	strb	r1, [r5, #3]
   27710:	980c      	ldr	r0, [sp, #48]	@ 0x30
   27712:	8028      	strh	r0, [r5, #0]
   27714:	0e08      	lsrs	r0, r1, #24
   27716:	71a8      	strb	r0, [r5, #6]
   27718:	0c08      	lsrs	r0, r1, #16
   2771a:	7168      	strb	r0, [r5, #5]
   2771c:	0a08      	lsrs	r0, r1, #8
   2771e:	7128      	strb	r0, [r5, #4]
   27720:	a80c      	add	r0, sp, #48	@ 0x30
   27722:	7880      	ldrb	r0, [r0, #2]
   27724:	70a8      	strb	r0, [r5, #2]
   27726:	1de8      	adds	r0, r5, #7
   27728:	496b      	ldr	r1, [pc, #428]	@ (278d8 <_start+0x3380>)
   2772a:	4469      	add	r1, sp
   2772c:	2214      	movs	r2, #20
   2772e:	f000 fa92 	bl	27c56 <__aeabi_memcpy>
   27732:	4c68      	ldr	r4, [pc, #416]	@ (278d4 <_start+0x337c>)
   27734:	446c      	add	r4, sp
   27736:	4620      	mov	r0, r4
   27738:	4629      	mov	r1, r5
   2773a:	f7fa f8e1 	bl	21900 <_ZN18complex_no_dynamic3app17h4c457cbfd2e4acbaE>
   2773e:	7824      	ldrb	r4, [r4, #0]
   27740:	2c01      	cmp	r4, #1
   27742:	d107      	bne.n	27754 <_start+0x31fc>
   27744:	9809      	ldr	r0, [sp, #36]	@ 0x24
   27746:	6e00      	ldr	r0, [r0, #96]	@ 0x60
   27748:	900b      	str	r0, [sp, #44]	@ 0x2c
   2774a:	e016      	b.n	2777a <_start+0x3222>
   2774c:	00001404 	.word	0x00001404
   27750:	000013a8 	.word	0x000013a8
   27754:	495f      	ldr	r1, [pc, #380]	@ (278d4 <_start+0x337c>)
   27756:	4469      	add	r1, sp
   27758:	78c8      	ldrb	r0, [r1, #3]
   2775a:	aa0c      	add	r2, sp, #48	@ 0x30
   2775c:	7090      	strb	r0, [r2, #2]
   2775e:	7848      	ldrb	r0, [r1, #1]
   27760:	788b      	ldrb	r3, [r1, #2]
   27762:	021b      	lsls	r3, r3, #8
   27764:	1818      	adds	r0, r3, r0
   27766:	8010      	strh	r0, [r2, #0]
   27768:	9809      	ldr	r0, [sp, #36]	@ 0x24
   2776a:	6e00      	ldr	r0, [r0, #96]	@ 0x60
   2776c:	900b      	str	r0, [sp, #44]	@ 0x2c
   2776e:	3108      	adds	r1, #8
   27770:	4859      	ldr	r0, [pc, #356]	@ (278d8 <_start+0x3380>)
   27772:	4468      	add	r0, sp
   27774:	225c      	movs	r2, #92	@ 0x5c
   27776:	f000 f90e 	bl	27996 <__aeabi_memcpy4>
   2777a:	2c00      	cmp	r4, #0
   2777c:	d001      	beq.n	27782 <_start+0x322a>
   2777e:	f7fc ffe3 	bl	24748 <_start+0x1f0>
   27782:	4d5b      	ldr	r5, [pc, #364]	@ (278f0 <_start+0x3398>)
   27784:	446d      	add	r5, sp
   27786:	990b      	ldr	r1, [sp, #44]	@ 0x2c
   27788:	70e9      	strb	r1, [r5, #3]
   2778a:	980c      	ldr	r0, [sp, #48]	@ 0x30
   2778c:	8028      	strh	r0, [r5, #0]
   2778e:	0e08      	lsrs	r0, r1, #24
   27790:	71a8      	strb	r0, [r5, #6]
   27792:	0c08      	lsrs	r0, r1, #16
   27794:	7168      	strb	r0, [r5, #5]
   27796:	0a08      	lsrs	r0, r1, #8
   27798:	7128      	strb	r0, [r5, #4]
   2779a:	a80c      	add	r0, sp, #48	@ 0x30
   2779c:	7880      	ldrb	r0, [r0, #2]
   2779e:	70a8      	strb	r0, [r5, #2]
   277a0:	1de8      	adds	r0, r5, #7
   277a2:	494d      	ldr	r1, [pc, #308]	@ (278d8 <_start+0x3380>)
   277a4:	4469      	add	r1, sp
   277a6:	225c      	movs	r2, #92	@ 0x5c
   277a8:	f000 fa55 	bl	27c56 <__aeabi_memcpy>
   277ac:	4c49      	ldr	r4, [pc, #292]	@ (278d4 <_start+0x337c>)
   277ae:	446c      	add	r4, sp
   277b0:	4620      	mov	r0, r4
   277b2:	4629      	mov	r1, r5
   277b4:	f7f9 fbd0 	bl	20f58 <_ZN18complex_no_dynamic3app17h32f32be7f0d22c78E>
   277b8:	7820      	ldrb	r0, [r4, #0]
   277ba:	2801      	cmp	r0, #1
   277bc:	d10e      	bne.n	277dc <_start+0x3284>
   277be:	9909      	ldr	r1, [sp, #36]	@ 0x24
   277c0:	6e09      	ldr	r1, [r1, #96]	@ 0x60
   277c2:	910b      	str	r1, [sp, #44]	@ 0x2c
   277c4:	e022      	b.n	2780c <_start+0x32b4>
   277c6:	46c0      	nop			@ (mov r8, r8)
   277c8:	00001404 	.word	0x00001404
   277cc:	000013a8 	.word	0x000013a8
   277d0:	000011f8 	.word	0x000011f8
   277d4:	0000121c 	.word	0x0000121c
   277d8:	00001240 	.word	0x00001240
   277dc:	493d      	ldr	r1, [pc, #244]	@ (278d4 <_start+0x337c>)
   277de:	4469      	add	r1, sp
   277e0:	78ca      	ldrb	r2, [r1, #3]
   277e2:	ab0c      	add	r3, sp, #48	@ 0x30
   277e4:	709a      	strb	r2, [r3, #2]
   277e6:	784a      	ldrb	r2, [r1, #1]
   277e8:	788c      	ldrb	r4, [r1, #2]
   277ea:	0224      	lsls	r4, r4, #8
   277ec:	18a2      	adds	r2, r4, r2
   277ee:	801a      	strh	r2, [r3, #0]
   277f0:	3108      	adds	r1, #8
   277f2:	9a09      	ldr	r2, [sp, #36]	@ 0x24
   277f4:	6e12      	ldr	r2, [r2, #96]	@ 0x60
   277f6:	920b      	str	r2, [sp, #44]	@ 0x2c
   277f8:	4a37      	ldr	r2, [pc, #220]	@ (278d8 <_start+0x3380>)
   277fa:	446a      	add	r2, sp
   277fc:	c938      	ldmia	r1!, {r3, r4, r5}
   277fe:	c238      	stmia	r2!, {r3, r4, r5}
   27800:	c938      	ldmia	r1!, {r3, r4, r5}
   27802:	c238      	stmia	r2!, {r3, r4, r5}
   27804:	c938      	ldmia	r1!, {r3, r4, r5}
   27806:	c238      	stmia	r2!, {r3, r4, r5}
   27808:	7809      	ldrb	r1, [r1, #0]
   2780a:	7011      	strb	r1, [r2, #0]
   2780c:	2800      	cmp	r0, #0
   2780e:	d001      	beq.n	27814 <_start+0x32bc>
   27810:	f7fc ff9a 	bl	24748 <_start+0x1f0>
   27814:	4d37      	ldr	r5, [pc, #220]	@ (278f4 <_start+0x339c>)
   27816:	446d      	add	r5, sp
   27818:	990b      	ldr	r1, [sp, #44]	@ 0x2c
   2781a:	70e9      	strb	r1, [r5, #3]
   2781c:	980c      	ldr	r0, [sp, #48]	@ 0x30
   2781e:	8028      	strh	r0, [r5, #0]
   27820:	0e08      	lsrs	r0, r1, #24
   27822:	71a8      	strb	r0, [r5, #6]
   27824:	0c08      	lsrs	r0, r1, #16
   27826:	7168      	strb	r0, [r5, #5]
   27828:	0a08      	lsrs	r0, r1, #8
   2782a:	7128      	strb	r0, [r5, #4]
   2782c:	a80c      	add	r0, sp, #48	@ 0x30
   2782e:	7880      	ldrb	r0, [r0, #2]
   27830:	70a8      	strb	r0, [r5, #2]
   27832:	1de8      	adds	r0, r5, #7
   27834:	4928      	ldr	r1, [pc, #160]	@ (278d8 <_start+0x3380>)
   27836:	4469      	add	r1, sp
   27838:	2225      	movs	r2, #37	@ 0x25
   2783a:	f000 fa0c 	bl	27c56 <__aeabi_memcpy>
   2783e:	4c25      	ldr	r4, [pc, #148]	@ (278d4 <_start+0x337c>)
   27840:	446c      	add	r4, sp
   27842:	4620      	mov	r0, r4
   27844:	4629      	mov	r1, r5
   27846:	f7f9 fdb7 	bl	213b8 <_ZN18complex_no_dynamic3app17h3f3307f93c9b59f5E>
   2784a:	7820      	ldrb	r0, [r4, #0]
   2784c:	2801      	cmp	r0, #1
   2784e:	d103      	bne.n	27858 <_start+0x3300>
   27850:	9909      	ldr	r1, [sp, #36]	@ 0x24
   27852:	6e09      	ldr	r1, [r1, #96]	@ 0x60
   27854:	910b      	str	r1, [sp, #44]	@ 0x2c
   27856:	e017      	b.n	27888 <_start+0x3330>
   27858:	491e      	ldr	r1, [pc, #120]	@ (278d4 <_start+0x337c>)
   2785a:	4469      	add	r1, sp
   2785c:	78ca      	ldrb	r2, [r1, #3]
   2785e:	ab0c      	add	r3, sp, #48	@ 0x30
   27860:	709a      	strb	r2, [r3, #2]
   27862:	784a      	ldrb	r2, [r1, #1]
   27864:	788c      	ldrb	r4, [r1, #2]
   27866:	0224      	lsls	r4, r4, #8
   27868:	18a2      	adds	r2, r4, r2
   2786a:	801a      	strh	r2, [r3, #0]
   2786c:	3108      	adds	r1, #8
   2786e:	9a09      	ldr	r2, [sp, #36]	@ 0x24
   27870:	6e12      	ldr	r2, [r2, #96]	@ 0x60
   27872:	920b      	str	r2, [sp, #44]	@ 0x2c
   27874:	4a18      	ldr	r2, [pc, #96]	@ (278d8 <_start+0x3380>)
   27876:	446a      	add	r2, sp
   27878:	c978      	ldmia	r1!, {r3, r4, r5, r6}
   2787a:	c278      	stmia	r2!, {r3, r4, r5, r6}
   2787c:	c978      	ldmia	r1!, {r3, r4, r5, r6}
   2787e:	c278      	stmia	r2!, {r3, r4, r5, r6}
   27880:	880b      	ldrh	r3, [r1, #0]
   27882:	8013      	strh	r3, [r2, #0]
   27884:	7889      	ldrb	r1, [r1, #2]
   27886:	7091      	strb	r1, [r2, #2]
   27888:	2800      	cmp	r0, #0
   2788a:	d001      	beq.n	27890 <_start+0x3338>
   2788c:	f7fc ff5c 	bl	24748 <_start+0x1f0>
   27890:	4d19      	ldr	r5, [pc, #100]	@ (278f8 <_start+0x33a0>)
   27892:	446d      	add	r5, sp
   27894:	990b      	ldr	r1, [sp, #44]	@ 0x2c
   27896:	70e9      	strb	r1, [r5, #3]
   27898:	980c      	ldr	r0, [sp, #48]	@ 0x30
   2789a:	8028      	strh	r0, [r5, #0]
   2789c:	0e08      	lsrs	r0, r1, #24
   2789e:	71a8      	strb	r0, [r5, #6]
   278a0:	0c08      	lsrs	r0, r1, #16
   278a2:	7168      	strb	r0, [r5, #5]
   278a4:	0a08      	lsrs	r0, r1, #8
   278a6:	7128      	strb	r0, [r5, #4]
   278a8:	a80c      	add	r0, sp, #48	@ 0x30
   278aa:	7880      	ldrb	r0, [r0, #2]
   278ac:	70a8      	strb	r0, [r5, #2]
   278ae:	1de8      	adds	r0, r5, #7
   278b0:	4909      	ldr	r1, [pc, #36]	@ (278d8 <_start+0x3380>)
   278b2:	4469      	add	r1, sp
   278b4:	2223      	movs	r2, #35	@ 0x23
   278b6:	f000 f9ce 	bl	27c56 <__aeabi_memcpy>
   278ba:	4c06      	ldr	r4, [pc, #24]	@ (278d4 <_start+0x337c>)
   278bc:	446c      	add	r4, sp
   278be:	4620      	mov	r0, r4
   278c0:	4629      	mov	r1, r5
   278c2:	f7fb fc95 	bl	231f0 <_ZN18complex_no_dynamic3app17hb249ba7d3e9f4249E>
   278c6:	7820      	ldrb	r0, [r4, #0]
   278c8:	9909      	ldr	r1, [sp, #36]	@ 0x24
   278ca:	6e09      	ldr	r1, [r1, #96]	@ 0x60
   278cc:	910b      	str	r1, [sp, #44]	@ 0x2c
   278ce:	f7fc ff3c 	bl	2474a <_start+0x1f2>
   278d2:	46c0      	nop			@ (mov r8, r8)
   278d4:	00001404 	.word	0x00001404
   278d8:	000013a8 	.word	0x000013a8
   278dc:	00001270 	.word	0x00001270
   278e0:	000012d0 	.word	0x000012d0
   278e4:	00001328 	.word	0x00001328
   278e8:	0000133c 	.word	0x0000133c
   278ec:	0000138c 	.word	0x0000138c
   278f0:	00001468 	.word	0x00001468
   278f4:	000014cc 	.word	0x000014cc
   278f8:	000014f8 	.word	0x000014f8

000278fc <__aeabi_memclr4>:
   278fc:	b5f0      	push	{r4, r5, r6, r7, lr}
   278fe:	af03      	add	r7, sp, #12
   27900:	2904      	cmp	r1, #4
   27902:	d311      	bcc.n	27928 <__aeabi_memclr4+0x2c>
   27904:	1f0c      	subs	r4, r1, #4
   27906:	250c      	movs	r5, #12
   27908:	4025      	ands	r5, r4
   2790a:	2d0c      	cmp	r5, #12
   2790c:	d012      	beq.n	27934 <__aeabi_memclr4+0x38>
   2790e:	2600      	movs	r6, #0
   27910:	4602      	mov	r2, r0
   27912:	c240      	stmia	r2!, {r6}
   27914:	0723      	lsls	r3, r4, #28
   27916:	0f9b      	lsrs	r3, r3, #30
   27918:	4623      	mov	r3, r4
   2791a:	d00d      	beq.n	27938 <__aeabi_memclr4+0x3c>
   2791c:	6046      	str	r6, [r0, #4]
   2791e:	2d04      	cmp	r5, #4
   27920:	d105      	bne.n	2792e <__aeabi_memclr4+0x32>
   27922:	3908      	subs	r1, #8
   27924:	3008      	adds	r0, #8
   27926:	e005      	b.n	27934 <__aeabi_memclr4+0x38>
   27928:	460b      	mov	r3, r1
   2792a:	4602      	mov	r2, r0
   2792c:	e00f      	b.n	2794e <__aeabi_memclr4+0x52>
   2792e:	6086      	str	r6, [r0, #8]
   27930:	390c      	subs	r1, #12
   27932:	300c      	adds	r0, #12
   27934:	4602      	mov	r2, r0
   27936:	460b      	mov	r3, r1
   27938:	2c0c      	cmp	r4, #12
   2793a:	d308      	bcc.n	2794e <__aeabi_memclr4+0x52>
   2793c:	2000      	movs	r0, #0
   2793e:	6010      	str	r0, [r2, #0]
   27940:	6050      	str	r0, [r2, #4]
   27942:	6090      	str	r0, [r2, #8]
   27944:	60d0      	str	r0, [r2, #12]
   27946:	3210      	adds	r2, #16
   27948:	3b10      	subs	r3, #16
   2794a:	2b03      	cmp	r3, #3
   2794c:	d8f6      	bhi.n	2793c <__aeabi_memclr4+0x40>
   2794e:	18d0      	adds	r0, r2, r3
   27950:	4282      	cmp	r2, r0
   27952:	d21a      	bcs.n	2798a <__aeabi_memclr4+0x8e>
   27954:	2403      	movs	r4, #3
   27956:	401c      	ands	r4, r3
   27958:	1e59      	subs	r1, r3, #1
   2795a:	2c00      	cmp	r4, #0
   2795c:	d00b      	beq.n	27976 <__aeabi_memclr4+0x7a>
   2795e:	2300      	movs	r3, #0
   27960:	7013      	strb	r3, [r2, #0]
   27962:	2c01      	cmp	r4, #1
   27964:	d103      	bne.n	2796e <__aeabi_memclr4+0x72>
   27966:	1c52      	adds	r2, r2, #1
   27968:	2903      	cmp	r1, #3
   2796a:	d206      	bcs.n	2797a <__aeabi_memclr4+0x7e>
   2796c:	e00d      	b.n	2798a <__aeabi_memclr4+0x8e>
   2796e:	7053      	strb	r3, [r2, #1]
   27970:	2c02      	cmp	r4, #2
   27972:	d10b      	bne.n	2798c <__aeabi_memclr4+0x90>
   27974:	1c92      	adds	r2, r2, #2
   27976:	2903      	cmp	r1, #3
   27978:	d307      	bcc.n	2798a <__aeabi_memclr4+0x8e>
   2797a:	2100      	movs	r1, #0
   2797c:	70d1      	strb	r1, [r2, #3]
   2797e:	7091      	strb	r1, [r2, #2]
   27980:	7051      	strb	r1, [r2, #1]
   27982:	7011      	strb	r1, [r2, #0]
   27984:	1d12      	adds	r2, r2, #4
   27986:	4282      	cmp	r2, r0
   27988:	d1f7      	bne.n	2797a <__aeabi_memclr4+0x7e>
   2798a:	bdf0      	pop	{r4, r5, r6, r7, pc}
   2798c:	7093      	strb	r3, [r2, #2]
   2798e:	1cd2      	adds	r2, r2, #3
   27990:	2903      	cmp	r1, #3
   27992:	d2f2      	bcs.n	2797a <__aeabi_memclr4+0x7e>
   27994:	e7f9      	b.n	2798a <__aeabi_memclr4+0x8e>

00027996 <__aeabi_memcpy4>:
   27996:	b5f0      	push	{r4, r5, r6, r7, lr}
   27998:	af03      	add	r7, sp, #12
   2799a:	b081      	sub	sp, #4
   2799c:	2a04      	cmp	r2, #4
   2799e:	d32d      	bcc.n	279fc <__aeabi_memcpy4+0x66>
   279a0:	1f13      	subs	r3, r2, #4
   279a2:	250c      	movs	r5, #12
   279a4:	401d      	ands	r5, r3
   279a6:	2d0c      	cmp	r5, #12
   279a8:	d019      	beq.n	279de <__aeabi_memcpy4+0x48>
   279aa:	9200      	str	r2, [sp, #0]
   279ac:	460e      	mov	r6, r1
   279ae:	c904      	ldmia	r1!, {r2}
   279b0:	4604      	mov	r4, r0
   279b2:	c004      	stmia	r0!, {r2}
   279b4:	071a      	lsls	r2, r3, #28
   279b6:	0f92      	lsrs	r2, r2, #30
   279b8:	461a      	mov	r2, r3
   279ba:	d010      	beq.n	279de <__aeabi_memcpy4+0x48>
   279bc:	4631      	mov	r1, r6
   279be:	6872      	ldr	r2, [r6, #4]
   279c0:	6062      	str	r2, [r4, #4]
   279c2:	2d04      	cmp	r5, #4
   279c4:	d104      	bne.n	279d0 <__aeabi_memcpy4+0x3a>
   279c6:	9a00      	ldr	r2, [sp, #0]
   279c8:	3a08      	subs	r2, #8
   279ca:	3108      	adds	r1, #8
   279cc:	3408      	adds	r4, #8
   279ce:	e005      	b.n	279dc <__aeabi_memcpy4+0x46>
   279d0:	688a      	ldr	r2, [r1, #8]
   279d2:	60a2      	str	r2, [r4, #8]
   279d4:	9a00      	ldr	r2, [sp, #0]
   279d6:	3a0c      	subs	r2, #12
   279d8:	310c      	adds	r1, #12
   279da:	340c      	adds	r4, #12
   279dc:	4620      	mov	r0, r4
   279de:	2b0c      	cmp	r3, #12
   279e0:	d30c      	bcc.n	279fc <__aeabi_memcpy4+0x66>
   279e2:	680b      	ldr	r3, [r1, #0]
   279e4:	6003      	str	r3, [r0, #0]
   279e6:	684b      	ldr	r3, [r1, #4]
   279e8:	6043      	str	r3, [r0, #4]
   279ea:	688b      	ldr	r3, [r1, #8]
   279ec:	6083      	str	r3, [r0, #8]
   279ee:	68cb      	ldr	r3, [r1, #12]
   279f0:	60c3      	str	r3, [r0, #12]
   279f2:	3110      	adds	r1, #16
   279f4:	3010      	adds	r0, #16
   279f6:	3a10      	subs	r2, #16
   279f8:	2a03      	cmp	r2, #3
   279fa:	d8f2      	bhi.n	279e2 <__aeabi_memcpy4+0x4c>
   279fc:	f000 f802 	bl	27a04 <_ZN17compiler_builtins3mem6memcpy17h1f9dbb1c3fd18e2fE>
   27a00:	b001      	add	sp, #4
   27a02:	bdf0      	pop	{r4, r5, r6, r7, pc}

00027a04 <_ZN17compiler_builtins3mem6memcpy17h1f9dbb1c3fd18e2fE>:
   27a04:	b5f0      	push	{r4, r5, r6, r7, lr}
   27a06:	af03      	add	r7, sp, #12
   27a08:	b08f      	sub	sp, #60	@ 0x3c
   27a0a:	2a10      	cmp	r2, #16
   27a0c:	d315      	bcc.n	27a3a <_ZN17compiler_builtins3mem6memcpy17h1f9dbb1c3fd18e2fE+0x36>
   27a0e:	920b      	str	r2, [sp, #44]	@ 0x2c
   27a10:	4242      	negs	r2, r0
   27a12:	2303      	movs	r3, #3
   27a14:	9308      	str	r3, [sp, #32]
   27a16:	401a      	ands	r2, r3
   27a18:	1885      	adds	r5, r0, r2
   27a1a:	900a      	str	r0, [sp, #40]	@ 0x28
   27a1c:	42a8      	cmp	r0, r5
   27a1e:	d22a      	bcs.n	27a76 <_ZN17compiler_builtins3mem6memcpy17h1f9dbb1c3fd18e2fE+0x72>
   27a20:	1e54      	subs	r4, r2, #1
   27a22:	2a00      	cmp	r2, #0
   27a24:	980a      	ldr	r0, [sp, #40]	@ 0x28
   27a26:	4606      	mov	r6, r0
   27a28:	460b      	mov	r3, r1
   27a2a:	d016      	beq.n	27a5a <_ZN17compiler_builtins3mem6memcpy17h1f9dbb1c3fd18e2fE+0x56>
   27a2c:	780b      	ldrb	r3, [r1, #0]
   27a2e:	7003      	strb	r3, [r0, #0]
   27a30:	2a01      	cmp	r2, #1
   27a32:	d107      	bne.n	27a44 <_ZN17compiler_builtins3mem6memcpy17h1f9dbb1c3fd18e2fE+0x40>
   27a34:	1c4b      	adds	r3, r1, #1
   27a36:	1c46      	adds	r6, r0, #1
   27a38:	e00f      	b.n	27a5a <_ZN17compiler_builtins3mem6memcpy17h1f9dbb1c3fd18e2fE+0x56>
   27a3a:	4603      	mov	r3, r0
   27a3c:	189c      	adds	r4, r3, r2
   27a3e:	42a3      	cmp	r3, r4
   27a40:	d341      	bcc.n	27ac6 <_ZN17compiler_builtins3mem6memcpy17h1f9dbb1c3fd18e2fE+0xc2>
   27a42:	e062      	b.n	27b0a <_ZN17compiler_builtins3mem6memcpy17h1f9dbb1c3fd18e2fE+0x106>
   27a44:	784b      	ldrb	r3, [r1, #1]
   27a46:	7043      	strb	r3, [r0, #1]
   27a48:	2a02      	cmp	r2, #2
   27a4a:	d102      	bne.n	27a52 <_ZN17compiler_builtins3mem6memcpy17h1f9dbb1c3fd18e2fE+0x4e>
   27a4c:	1c8b      	adds	r3, r1, #2
   27a4e:	1c86      	adds	r6, r0, #2
   27a50:	e003      	b.n	27a5a <_ZN17compiler_builtins3mem6memcpy17h1f9dbb1c3fd18e2fE+0x56>
   27a52:	788b      	ldrb	r3, [r1, #2]
   27a54:	7083      	strb	r3, [r0, #2]
   27a56:	1ccb      	adds	r3, r1, #3
   27a58:	1cc6      	adds	r6, r0, #3
   27a5a:	2c03      	cmp	r4, #3
   27a5c:	d30b      	bcc.n	27a76 <_ZN17compiler_builtins3mem6memcpy17h1f9dbb1c3fd18e2fE+0x72>
   27a5e:	781c      	ldrb	r4, [r3, #0]
   27a60:	7034      	strb	r4, [r6, #0]
   27a62:	785c      	ldrb	r4, [r3, #1]
   27a64:	7074      	strb	r4, [r6, #1]
   27a66:	789c      	ldrb	r4, [r3, #2]
   27a68:	70b4      	strb	r4, [r6, #2]
   27a6a:	78dc      	ldrb	r4, [r3, #3]
   27a6c:	70f4      	strb	r4, [r6, #3]
   27a6e:	1d1b      	adds	r3, r3, #4
   27a70:	1d36      	adds	r6, r6, #4
   27a72:	42ae      	cmp	r6, r5
   27a74:	d1f3      	bne.n	27a5e <_ZN17compiler_builtins3mem6memcpy17h1f9dbb1c3fd18e2fE+0x5a>
   27a76:	980b      	ldr	r0, [sp, #44]	@ 0x2c
   27a78:	1a80      	subs	r0, r0, r2
   27a7a:	900b      	str	r0, [sp, #44]	@ 0x2c
   27a7c:	9c08      	ldr	r4, [sp, #32]
   27a7e:	43a0      	bics	r0, r4
   27a80:	182b      	adds	r3, r5, r0
   27a82:	188e      	adds	r6, r1, r2
   27a84:	9609      	str	r6, [sp, #36]	@ 0x24
   27a86:	4026      	ands	r6, r4
   27a88:	9007      	str	r0, [sp, #28]
   27a8a:	d147      	bne.n	27b1c <_ZN17compiler_builtins3mem6memcpy17h1f9dbb1c3fd18e2fE+0x118>
   27a8c:	429d      	cmp	r5, r3
   27a8e:	9a0b      	ldr	r2, [sp, #44]	@ 0x2c
   27a90:	9e09      	ldr	r6, [sp, #36]	@ 0x24
   27a92:	d211      	bcs.n	27ab8 <_ZN17compiler_builtins3mem6memcpy17h1f9dbb1c3fd18e2fE+0xb4>
   27a94:	4631      	mov	r1, r6
   27a96:	6808      	ldr	r0, [r1, #0]
   27a98:	c501      	stmia	r5!, {r0}
   27a9a:	429d      	cmp	r5, r3
   27a9c:	d20c      	bcs.n	27ab8 <_ZN17compiler_builtins3mem6memcpy17h1f9dbb1c3fd18e2fE+0xb4>
   27a9e:	6848      	ldr	r0, [r1, #4]
   27aa0:	c501      	stmia	r5!, {r0}
   27aa2:	429d      	cmp	r5, r3
   27aa4:	d208      	bcs.n	27ab8 <_ZN17compiler_builtins3mem6memcpy17h1f9dbb1c3fd18e2fE+0xb4>
   27aa6:	6888      	ldr	r0, [r1, #8]
   27aa8:	c501      	stmia	r5!, {r0}
   27aaa:	429d      	cmp	r5, r3
   27aac:	d204      	bcs.n	27ab8 <_ZN17compiler_builtins3mem6memcpy17h1f9dbb1c3fd18e2fE+0xb4>
   27aae:	68c8      	ldr	r0, [r1, #12]
   27ab0:	c501      	stmia	r5!, {r0}
   27ab2:	3110      	adds	r1, #16
   27ab4:	429d      	cmp	r5, r3
   27ab6:	d3ee      	bcc.n	27a96 <_ZN17compiler_builtins3mem6memcpy17h1f9dbb1c3fd18e2fE+0x92>
   27ab8:	4022      	ands	r2, r4
   27aba:	9807      	ldr	r0, [sp, #28]
   27abc:	1831      	adds	r1, r6, r0
   27abe:	980a      	ldr	r0, [sp, #40]	@ 0x28
   27ac0:	189c      	adds	r4, r3, r2
   27ac2:	42a3      	cmp	r3, r4
   27ac4:	d221      	bcs.n	27b0a <_ZN17compiler_builtins3mem6memcpy17h1f9dbb1c3fd18e2fE+0x106>
   27ac6:	2503      	movs	r5, #3
   27ac8:	4015      	ands	r5, r2
   27aca:	1e52      	subs	r2, r2, #1
   27acc:	2d00      	cmp	r5, #0
   27ace:	d00e      	beq.n	27aee <_ZN17compiler_builtins3mem6memcpy17h1f9dbb1c3fd18e2fE+0xea>
   27ad0:	780e      	ldrb	r6, [r1, #0]
   27ad2:	701e      	strb	r6, [r3, #0]
   27ad4:	2d01      	cmp	r5, #1
   27ad6:	d104      	bne.n	27ae2 <_ZN17compiler_builtins3mem6memcpy17h1f9dbb1c3fd18e2fE+0xde>
   27ad8:	1c49      	adds	r1, r1, #1
   27ada:	1c5b      	adds	r3, r3, #1
   27adc:	2a03      	cmp	r2, #3
   27ade:	d208      	bcs.n	27af2 <_ZN17compiler_builtins3mem6memcpy17h1f9dbb1c3fd18e2fE+0xee>
   27ae0:	e013      	b.n	27b0a <_ZN17compiler_builtins3mem6memcpy17h1f9dbb1c3fd18e2fE+0x106>
   27ae2:	784e      	ldrb	r6, [r1, #1]
   27ae4:	705e      	strb	r6, [r3, #1]
   27ae6:	2d02      	cmp	r5, #2
   27ae8:	d111      	bne.n	27b0e <_ZN17compiler_builtins3mem6memcpy17h1f9dbb1c3fd18e2fE+0x10a>
   27aea:	1c89      	adds	r1, r1, #2
   27aec:	1c9b      	adds	r3, r3, #2
   27aee:	2a03      	cmp	r2, #3
   27af0:	d30b      	bcc.n	27b0a <_ZN17compiler_builtins3mem6memcpy17h1f9dbb1c3fd18e2fE+0x106>
   27af2:	780a      	ldrb	r2, [r1, #0]
   27af4:	701a      	strb	r2, [r3, #0]
   27af6:	784a      	ldrb	r2, [r1, #1]
   27af8:	705a      	strb	r2, [r3, #1]
   27afa:	788a      	ldrb	r2, [r1, #2]
   27afc:	709a      	strb	r2, [r3, #2]
   27afe:	78ca      	ldrb	r2, [r1, #3]
   27b00:	70da      	strb	r2, [r3, #3]
   27b02:	1d09      	adds	r1, r1, #4
   27b04:	1d1b      	adds	r3, r3, #4
   27b06:	42a3      	cmp	r3, r4
   27b08:	d1f3      	bne.n	27af2 <_ZN17compiler_builtins3mem6memcpy17h1f9dbb1c3fd18e2fE+0xee>
   27b0a:	b00f      	add	sp, #60	@ 0x3c
   27b0c:	bdf0      	pop	{r4, r5, r6, r7, pc}
   27b0e:	788d      	ldrb	r5, [r1, #2]
   27b10:	709d      	strb	r5, [r3, #2]
   27b12:	1cc9      	adds	r1, r1, #3
   27b14:	1cdb      	adds	r3, r3, #3
   27b16:	2a03      	cmp	r2, #3
   27b18:	d2eb      	bcs.n	27af2 <_ZN17compiler_builtins3mem6memcpy17h1f9dbb1c3fd18e2fE+0xee>
   27b1a:	e7f6      	b.n	27b0a <_ZN17compiler_builtins3mem6memcpy17h1f9dbb1c3fd18e2fE+0x106>
   27b1c:	2400      	movs	r4, #0
   27b1e:	9406      	str	r4, [sp, #24]
   27b20:	940e      	str	r4, [sp, #56]	@ 0x38
   27b22:	ac0e      	add	r4, sp, #56	@ 0x38
   27b24:	19a4      	adds	r4, r4, r6
   27b26:	9405      	str	r4, [sp, #20]
   27b28:	2404      	movs	r4, #4
   27b2a:	1ba4      	subs	r4, r4, r6
   27b2c:	9404      	str	r4, [sp, #16]
   27b2e:	07e4      	lsls	r4, r4, #31
   27b30:	9600      	str	r6, [sp, #0]
   27b32:	d006      	beq.n	27b42 <_ZN17compiler_builtins3mem6memcpy17h1f9dbb1c3fd18e2fE+0x13e>
   27b34:	9c09      	ldr	r4, [sp, #36]	@ 0x24
   27b36:	7824      	ldrb	r4, [r4, #0]
   27b38:	9e05      	ldr	r6, [sp, #20]
   27b3a:	7034      	strb	r4, [r6, #0]
   27b3c:	9e00      	ldr	r6, [sp, #0]
   27b3e:	2401      	movs	r4, #1
   27b40:	9406      	str	r4, [sp, #24]
   27b42:	9c04      	ldr	r4, [sp, #16]
   27b44:	07a4      	lsls	r4, r4, #30
   27b46:	d508      	bpl.n	27b5a <_ZN17compiler_builtins3mem6memcpy17h1f9dbb1c3fd18e2fE+0x156>
   27b48:	9c09      	ldr	r4, [sp, #36]	@ 0x24
   27b4a:	9204      	str	r2, [sp, #16]
   27b4c:	9a06      	ldr	r2, [sp, #24]
   27b4e:	5aa4      	ldrh	r4, [r4, r2]
   27b50:	9e05      	ldr	r6, [sp, #20]
   27b52:	9a06      	ldr	r2, [sp, #24]
   27b54:	52b4      	strh	r4, [r6, r2]
   27b56:	9a04      	ldr	r2, [sp, #16]
   27b58:	9e00      	ldr	r6, [sp, #0]
   27b5a:	00f4      	lsls	r4, r6, #3
   27b5c:	9403      	str	r4, [sp, #12]
   27b5e:	9c0e      	ldr	r4, [sp, #56]	@ 0x38
   27b60:	9406      	str	r4, [sp, #24]
   27b62:	1d2c      	adds	r4, r5, #4
   27b64:	429c      	cmp	r4, r3
   27b66:	d236      	bcs.n	27bd6 <_ZN17compiler_builtins3mem6memcpy17h1f9dbb1c3fd18e2fE+0x1d2>
   27b68:	4274      	negs	r4, r6
   27b6a:	1909      	adds	r1, r1, r4
   27b6c:	9105      	str	r1, [sp, #20]
   27b6e:	9d03      	ldr	r5, [sp, #12]
   27b70:	4269      	negs	r1, r5
   27b72:	2418      	movs	r4, #24
   27b74:	400c      	ands	r4, r1
   27b76:	9402      	str	r4, [sp, #8]
   27b78:	990a      	ldr	r1, [sp, #40]	@ 0x28
   27b7a:	9104      	str	r1, [sp, #16]
   27b7c:	4629      	mov	r1, r5
   27b7e:	9c06      	ldr	r4, [sp, #24]
   27b80:	40cc      	lsrs	r4, r1
   27b82:	9406      	str	r4, [sp, #24]
   27b84:	9905      	ldr	r1, [sp, #20]
   27b86:	1889      	adds	r1, r1, r2
   27b88:	9101      	str	r1, [sp, #4]
   27b8a:	6849      	ldr	r1, [r1, #4]
   27b8c:	460c      	mov	r4, r1
   27b8e:	9d02      	ldr	r5, [sp, #8]
   27b90:	40ac      	lsls	r4, r5
   27b92:	9d06      	ldr	r5, [sp, #24]
   27b94:	432c      	orrs	r4, r5
   27b96:	9d04      	ldr	r5, [sp, #16]
   27b98:	50ac      	str	r4, [r5, r2]
   27b9a:	18ad      	adds	r5, r5, r2
   27b9c:	462c      	mov	r4, r5
   27b9e:	3408      	adds	r4, #8
   27ba0:	429c      	cmp	r4, r3
   27ba2:	d21c      	bcs.n	27bde <_ZN17compiler_builtins3mem6memcpy17h1f9dbb1c3fd18e2fE+0x1da>
   27ba4:	9c03      	ldr	r4, [sp, #12]
   27ba6:	40e1      	lsrs	r1, r4
   27ba8:	9c01      	ldr	r4, [sp, #4]
   27baa:	68a4      	ldr	r4, [r4, #8]
   27bac:	9406      	str	r4, [sp, #24]
   27bae:	9501      	str	r5, [sp, #4]
   27bb0:	9d02      	ldr	r5, [sp, #8]
   27bb2:	40ac      	lsls	r4, r5
   27bb4:	430c      	orrs	r4, r1
   27bb6:	9901      	ldr	r1, [sp, #4]
   27bb8:	604c      	str	r4, [r1, #4]
   27bba:	9904      	ldr	r1, [sp, #16]
   27bbc:	3108      	adds	r1, #8
   27bbe:	9104      	str	r1, [sp, #16]
   27bc0:	188d      	adds	r5, r1, r2
   27bc2:	1d29      	adds	r1, r5, #4
   27bc4:	9c05      	ldr	r4, [sp, #20]
   27bc6:	3408      	adds	r4, #8
   27bc8:	9405      	str	r4, [sp, #20]
   27bca:	4299      	cmp	r1, r3
   27bcc:	9903      	ldr	r1, [sp, #12]
   27bce:	d3d6      	bcc.n	27b7e <_ZN17compiler_builtins3mem6memcpy17h1f9dbb1c3fd18e2fE+0x17a>
   27bd0:	9805      	ldr	r0, [sp, #20]
   27bd2:	1880      	adds	r0, r0, r2
   27bd4:	e001      	b.n	27bda <_ZN17compiler_builtins3mem6memcpy17h1f9dbb1c3fd18e2fE+0x1d6>
   27bd6:	9809      	ldr	r0, [sp, #36]	@ 0x24
   27bd8:	1b80      	subs	r0, r0, r6
   27bda:	9005      	str	r0, [sp, #20]
   27bdc:	e004      	b.n	27be8 <_ZN17compiler_builtins3mem6memcpy17h1f9dbb1c3fd18e2fE+0x1e4>
   27bde:	9801      	ldr	r0, [sp, #4]
   27be0:	1d00      	adds	r0, r0, #4
   27be2:	9005      	str	r0, [sp, #20]
   27be4:	1d2d      	adds	r5, r5, #4
   27be6:	9106      	str	r1, [sp, #24]
   27be8:	a80d      	add	r0, sp, #52	@ 0x34
   27bea:	2100      	movs	r1, #0
   27bec:	9004      	str	r0, [sp, #16]
   27bee:	7001      	strb	r1, [r0, #0]
   27bf0:	a80c      	add	r0, sp, #48	@ 0x30
   27bf2:	7001      	strb	r1, [r0, #0]
   27bf4:	2e01      	cmp	r6, #1
   27bf6:	460e      	mov	r6, r1
   27bf8:	460c      	mov	r4, r1
   27bfa:	9102      	str	r1, [sp, #8]
   27bfc:	9a0b      	ldr	r2, [sp, #44]	@ 0x2c
   27bfe:	d009      	beq.n	27c14 <_ZN17compiler_builtins3mem6memcpy17h1f9dbb1c3fd18e2fE+0x210>
   27c00:	9c05      	ldr	r4, [sp, #20]
   27c02:	7960      	ldrb	r0, [r4, #5]
   27c04:	7926      	ldrb	r6, [r4, #4]
   27c06:	ac0d      	add	r4, sp, #52	@ 0x34
   27c08:	7026      	strb	r6, [r4, #0]
   27c0a:	0204      	lsls	r4, r0, #8
   27c0c:	2002      	movs	r0, #2
   27c0e:	9002      	str	r0, [sp, #8]
   27c10:	a80c      	add	r0, sp, #48	@ 0x30
   27c12:	9004      	str	r0, [sp, #16]
   27c14:	9809      	ldr	r0, [sp, #36]	@ 0x24
   27c16:	07c0      	lsls	r0, r0, #31
   27c18:	d00a      	beq.n	27c30 <_ZN17compiler_builtins3mem6memcpy17h1f9dbb1c3fd18e2fE+0x22c>
   27c1a:	9805      	ldr	r0, [sp, #20]
   27c1c:	1d00      	adds	r0, r0, #4
   27c1e:	9902      	ldr	r1, [sp, #8]
   27c20:	5c40      	ldrb	r0, [r0, r1]
   27c22:	9904      	ldr	r1, [sp, #16]
   27c24:	7008      	strb	r0, [r1, #0]
   27c26:	a80d      	add	r0, sp, #52	@ 0x34
   27c28:	7806      	ldrb	r6, [r0, #0]
   27c2a:	a80c      	add	r0, sp, #48	@ 0x30
   27c2c:	7800      	ldrb	r0, [r0, #0]
   27c2e:	0401      	lsls	r1, r0, #16
   27c30:	9605      	str	r6, [sp, #20]
   27c32:	9803      	ldr	r0, [sp, #12]
   27c34:	4240      	negs	r0, r0
   27c36:	9004      	str	r0, [sp, #16]
   27c38:	2618      	movs	r6, #24
   27c3a:	9804      	ldr	r0, [sp, #16]
   27c3c:	4006      	ands	r6, r0
   27c3e:	430c      	orrs	r4, r1
   27c40:	9905      	ldr	r1, [sp, #20]
   27c42:	430c      	orrs	r4, r1
   27c44:	40b4      	lsls	r4, r6
   27c46:	9906      	ldr	r1, [sp, #24]
   27c48:	9803      	ldr	r0, [sp, #12]
   27c4a:	40c1      	lsrs	r1, r0
   27c4c:	4321      	orrs	r1, r4
   27c4e:	6029      	str	r1, [r5, #0]
   27c50:	9c08      	ldr	r4, [sp, #32]
   27c52:	9e09      	ldr	r6, [sp, #36]	@ 0x24
   27c54:	e730      	b.n	27ab8 <_ZN17compiler_builtins3mem6memcpy17h1f9dbb1c3fd18e2fE+0xb4>

00027c56 <__aeabi_memcpy>:
   27c56:	b580      	push	{r7, lr}
   27c58:	af00      	add	r7, sp, #0
   27c5a:	f7ff fed3 	bl	27a04 <_ZN17compiler_builtins3mem6memcpy17h1f9dbb1c3fd18e2fE>
   27c5e:	bd80      	pop	{r7, pc}
