
target/riscv32imc-unknown-none-elf/opt-s/examples/complex_full_dynamic:     file format elf32-littleriscv

Sections:
Idx Name          Size      VMA       LMA       File off  Algn
  0 .eh_frame     00000060  000100d4  000100d4  000000d4  2**2
                  CONTENTS, ALLOC, LOAD, READONLY, DATA
  1 .text         00009b76  00011134  00011134  00000134  2**1
                  CONTENTS, ALLOC, LOAD, READONLY, CODE
  2 .comment      0000008b  00000000  00000000  00009caa  2**0
                  CONTENTS, READONLY
  3 .riscv.attributes 0000002f  00000000  00000000  00009d35  2**0
                  CONTENTS, READONLY

Disassembly of section .text:

00011134 <_ZN20complex_full_dynamic3app17h0028549baa9262c1E>:
   11134:	7175                	addi	sp,sp,-144
   11136:	c706                	sw	ra,140(sp)
   11138:	c522                	sw	s0,136(sp)
   1113a:	c326                	sw	s1,132(sp)
   1113c:	c14a                	sw	s2,128(sp)
   1113e:	dece                	sw	s3,124(sp)
   11140:	89aa                	mv	s3,a0
   11142:	4409                	li	s0,2
   11144:	00810623          	sb	s0,12(sp)
   11148:	0804                	addi	s1,sp,16
   1114a:	03800613          	li	a2,56
   1114e:	8526                	mv	a0,s1
   11150:	0000a097          	auipc	ra,0xa
   11154:	9b4080e7          	jalr	-1612(ra) # 1ab04 <memcpy>
   11158:	05410913          	addi	s2,sp,84
   1115c:	02700613          	li	a2,39
   11160:	854a                	mv	a0,s2
   11162:	4581                	li	a1,0
   11164:	0000a097          	auipc	ra,0xa
   11168:	934080e7          	jalr	-1740(ra) # 1aa98 <memset>
   1116c:	8626                	mv	a2,s1
   1116e:	04810823          	sb	s0,80(sp)
   11172:	6505                	lui	a0,0x1
   11174:	4491                	li	s1,4
   11176:	4589                	li	a1,2
   11178:	e2b50793          	addi	a5,a0,-469 # e2b <.Lline_table_start1+0xc00>
   1117c:	03800693          	li	a3,56
   11180:	4711                	li	a4,4
   11182:	853e                	mv	a0,a5
   11184:	00000073          	ecall
   11188:	04850363          	beq	a0,s0,111ce <_ZN20complex_full_dynamic3app17h0028549baa9262c1E+0x9a>
   1118c:	853e                	mv	a0,a5
   1118e:	864a                	mv	a2,s2
   11190:	c23e                	sw	a5,4(sp)
   11192:	c422                	sw	s0,8(sp)
   11194:	00910623          	sb	s1,12(sp)
   11198:	44a1                	li	s1,8
   1119a:	480d                	li	a6,3
   1119c:	45a1                	li	a1,8
   1119e:	02700693          	li	a3,39
   111a2:	470d                	li	a4,3
   111a4:	00000073          	ecall
   111a8:	02850363          	beq	a0,s0,111ce <_ZN20complex_full_dynamic3app17h0028549baa9262c1E+0x9a>
   111ac:	c4be                	sw	a5,72(sp)
   111ae:	c6a6                	sw	s1,76(sp)
   111b0:	05010823          	sb	a6,80(sp)
   111b4:	6505                	lui	a0,0x1
   111b6:	4589                	li	a1,2
   111b8:	4621                	li	a2,8
   111ba:	e2b50513          	addi	a0,a0,-469 # e2b <.Lline_table_start1+0xc00>
   111be:	4709                	li	a4,2
   111c0:	07f00793          	li	a5,127
   111c4:	4681                	li	a3,0
   111c6:	00000073          	ecall
   111ca:	02a7e863          	bltu	a5,a0,111fa <_ZN20complex_full_dynamic3app17h0028549baa9262c1E+0xc6>
   111ce:	00b9a223          	sw	a1,4(s3)
   111d2:	4505                	li	a0,1
   111d4:	00a98023          	sb	a0,0(s3)
   111d8:	00a8                	addi	a0,sp,72
   111da:	0000a097          	auipc	ra,0xa
   111de:	8a0080e7          	jalr	-1888(ra) # 1aa7a <_ZN9allow_pin12full_dynamic17unshare_if_shared17hcb7d6c8e9042aa41E>
   111e2:	0048                	addi	a0,sp,4
   111e4:	0000a097          	auipc	ra,0xa
   111e8:	896080e7          	jalr	-1898(ra) # 1aa7a <_ZN9allow_pin12full_dynamic17unshare_if_shared17hcb7d6c8e9042aa41E>
   111ec:	40ba                	lw	ra,140(sp)
   111ee:	442a                	lw	s0,136(sp)
   111f0:	449a                	lw	s1,132(sp)
   111f2:	490a                	lw	s2,128(sp)
   111f4:	59f6                	lw	s3,124(sp)
   111f6:	6149                	addi	sp,sp,144
   111f8:	8082                	ret
   111fa:	0048                	addi	a0,sp,4
   111fc:	0000a097          	auipc	ra,0xa
   11200:	87e080e7          	jalr	-1922(ra) # 1aa7a <_ZN9allow_pin12full_dynamic17unshare_if_shared17hcb7d6c8e9042aa41E>
   11204:	00a8                	addi	a0,sp,72
   11206:	0000a097          	auipc	ra,0xa
   1120a:	874080e7          	jalr	-1932(ra) # 1aa7a <_ZN9allow_pin12full_dynamic17unshare_if_shared17hcb7d6c8e9042aa41E>
   1120e:	00a8                	addi	a0,sp,72
   11210:	0000a097          	auipc	ra,0xa
   11214:	86a080e7          	jalr	-1942(ra) # 1aa7a <_ZN9allow_pin12full_dynamic17unshare_if_shared17hcb7d6c8e9042aa41E>
   11218:	00198513          	addi	a0,s3,1
   1121c:	02700613          	li	a2,39
   11220:	85ca                	mv	a1,s2
   11222:	0000a097          	auipc	ra,0xa
   11226:	8e2080e7          	jalr	-1822(ra) # 1ab04 <memcpy>
   1122a:	4501                	li	a0,0
   1122c:	b765                	j	111d4 <_ZN20complex_full_dynamic3app17h0028549baa9262c1E+0xa0>

0001122e <_ZN20complex_full_dynamic3app17h02785a83f4450333E>:
   1122e:	7135                	addi	sp,sp,-160
   11230:	cf06                	sw	ra,156(sp)
   11232:	cd22                	sw	s0,152(sp)
   11234:	cb26                	sw	s1,148(sp)
   11236:	c94a                	sw	s2,144(sp)
   11238:	c74e                	sw	s3,140(sp)
   1123a:	89aa                	mv	s3,a0
   1123c:	4409                	li	s0,2
   1123e:	00810823          	sb	s0,16(sp)
   11242:	0844                	addi	s1,sp,20
   11244:	4669                	li	a2,26
   11246:	8526                	mv	a0,s1
   11248:	0000a097          	auipc	ra,0xa
   1124c:	8bc080e7          	jalr	-1860(ra) # 1ab04 <memcpy>
   11250:	03c10913          	addi	s2,sp,60
   11254:	05000613          	li	a2,80
   11258:	854a                	mv	a0,s2
   1125a:	4581                	li	a1,0
   1125c:	0000a097          	auipc	ra,0xa
   11260:	83c080e7          	jalr	-1988(ra) # 1aa98 <memset>
   11264:	8626                	mv	a2,s1
   11266:	02810c23          	sb	s0,56(sp)
   1126a:	6505                	lui	a0,0x1
   1126c:	449d                	li	s1,7
   1126e:	4811                	li	a6,4
   11270:	459d                	li	a1,7
   11272:	aee50793          	addi	a5,a0,-1298 # aee <.Lline_table_start1+0x8c3>
   11276:	46e9                	li	a3,26
   11278:	4711                	li	a4,4
   1127a:	853e                	mv	a0,a5
   1127c:	00000073          	ecall
   11280:	04850363          	beq	a0,s0,112c6 <_ZN20complex_full_dynamic3app17h02785a83f4450333E+0x98>
   11284:	853e                	mv	a0,a5
   11286:	864a                	mv	a2,s2
   11288:	c43e                	sw	a5,8(sp)
   1128a:	c626                	sw	s1,12(sp)
   1128c:	01010823          	sb	a6,16(sp)
   11290:	448d                	li	s1,3
   11292:	4591                	li	a1,4
   11294:	05000693          	li	a3,80
   11298:	470d                	li	a4,3
   1129a:	00000073          	ecall
   1129e:	02850463          	beq	a0,s0,112c6 <_ZN20complex_full_dynamic3app17h02785a83f4450333E+0x98>
   112a2:	4511                	li	a0,4
   112a4:	6685                	lui	a3,0x1
   112a6:	459d                	li	a1,7
   112a8:	4611                	li	a2,4
   112aa:	d83e                	sw	a5,48(sp)
   112ac:	da2a                	sw	a0,52(sp)
   112ae:	02910c23          	sb	s1,56(sp)
   112b2:	aee68513          	addi	a0,a3,-1298 # aee <.Lline_table_start1+0x8c3>
   112b6:	4709                	li	a4,2
   112b8:	07f00793          	li	a5,127
   112bc:	4681                	li	a3,0
   112be:	00000073          	ecall
   112c2:	02a7e863          	bltu	a5,a0,112f2 <_ZN20complex_full_dynamic3app17h02785a83f4450333E+0xc4>
   112c6:	00b9a223          	sw	a1,4(s3)
   112ca:	4505                	li	a0,1
   112cc:	00a98023          	sb	a0,0(s3)
   112d0:	1808                	addi	a0,sp,48
   112d2:	00009097          	auipc	ra,0x9
   112d6:	7a8080e7          	jalr	1960(ra) # 1aa7a <_ZN9allow_pin12full_dynamic17unshare_if_shared17hcb7d6c8e9042aa41E>
   112da:	0028                	addi	a0,sp,8
   112dc:	00009097          	auipc	ra,0x9
   112e0:	79e080e7          	jalr	1950(ra) # 1aa7a <_ZN9allow_pin12full_dynamic17unshare_if_shared17hcb7d6c8e9042aa41E>
   112e4:	40fa                	lw	ra,156(sp)
   112e6:	446a                	lw	s0,152(sp)
   112e8:	44da                	lw	s1,148(sp)
   112ea:	494a                	lw	s2,144(sp)
   112ec:	49ba                	lw	s3,140(sp)
   112ee:	610d                	addi	sp,sp,160
   112f0:	8082                	ret
   112f2:	0028                	addi	a0,sp,8
   112f4:	00009097          	auipc	ra,0x9
   112f8:	786080e7          	jalr	1926(ra) # 1aa7a <_ZN9allow_pin12full_dynamic17unshare_if_shared17hcb7d6c8e9042aa41E>
   112fc:	1808                	addi	a0,sp,48
   112fe:	00009097          	auipc	ra,0x9
   11302:	77c080e7          	jalr	1916(ra) # 1aa7a <_ZN9allow_pin12full_dynamic17unshare_if_shared17hcb7d6c8e9042aa41E>
   11306:	1808                	addi	a0,sp,48
   11308:	00009097          	auipc	ra,0x9
   1130c:	772080e7          	jalr	1906(ra) # 1aa7a <_ZN9allow_pin12full_dynamic17unshare_if_shared17hcb7d6c8e9042aa41E>
   11310:	00198513          	addi	a0,s3,1
   11314:	05000613          	li	a2,80
   11318:	85ca                	mv	a1,s2
   1131a:	00009097          	auipc	ra,0x9
   1131e:	7ea080e7          	jalr	2026(ra) # 1ab04 <memcpy>
   11322:	4501                	li	a0,0
   11324:	b765                	j	112cc <_ZN20complex_full_dynamic3app17h02785a83f4450333E+0x9e>

00011326 <_ZN20complex_full_dynamic3app17h0304ed24111fe479E>:
   11326:	7131                	addi	sp,sp,-192
   11328:	df06                	sw	ra,188(sp)
   1132a:	dd22                	sw	s0,184(sp)
   1132c:	db26                	sw	s1,180(sp)
   1132e:	d94a                	sw	s2,176(sp)
   11330:	d74e                	sw	s3,172(sp)
   11332:	89aa                	mv	s3,a0
   11334:	4409                	li	s0,2
   11336:	00810823          	sb	s0,16(sp)
   1133a:	0844                	addi	s1,sp,20
   1133c:	06300613          	li	a2,99
   11340:	8526                	mv	a0,s1
   11342:	00009097          	auipc	ra,0x9
   11346:	7c2080e7          	jalr	1986(ra) # 1ab04 <memcpy>
   1134a:	08410913          	addi	s2,sp,132
   1134e:	02700613          	li	a2,39
   11352:	854a                	mv	a0,s2
   11354:	4581                	li	a1,0
   11356:	00009097          	auipc	ra,0x9
   1135a:	742080e7          	jalr	1858(ra) # 1aa98 <memset>
   1135e:	8626                	mv	a2,s1
   11360:	08810023          	sb	s0,128(sp)
   11364:	6509                	lui	a0,0x2
   11366:	449d                	li	s1,7
   11368:	4811                	li	a6,4
   1136a:	459d                	li	a1,7
   1136c:	e5450793          	addi	a5,a0,-428 # 1e54 <.Lline_table_start1+0x1c29>
   11370:	06300693          	li	a3,99
   11374:	4711                	li	a4,4
   11376:	853e                	mv	a0,a5
   11378:	00000073          	ecall
   1137c:	04850263          	beq	a0,s0,113c0 <_ZN20complex_full_dynamic3app17h0304ed24111fe479E+0x9a>
   11380:	853e                	mv	a0,a5
   11382:	4581                	li	a1,0
   11384:	864a                	mv	a2,s2
   11386:	c43e                	sw	a5,8(sp)
   11388:	c626                	sw	s1,12(sp)
   1138a:	01010823          	sb	a6,16(sp)
   1138e:	448d                	li	s1,3
   11390:	02700693          	li	a3,39
   11394:	470d                	li	a4,3
   11396:	00000073          	ecall
   1139a:	02850363          	beq	a0,s0,113c0 <_ZN20complex_full_dynamic3app17h0304ed24111fe479E+0x9a>
   1139e:	dcbe                	sw	a5,120(sp)
   113a0:	de82                	sw	zero,124(sp)
   113a2:	08910023          	sb	s1,128(sp)
   113a6:	6509                	lui	a0,0x2
   113a8:	459d                	li	a1,7
   113aa:	e5450513          	addi	a0,a0,-428 # 1e54 <.Lline_table_start1+0x1c29>
   113ae:	4709                	li	a4,2
   113b0:	07f00793          	li	a5,127
   113b4:	4601                	li	a2,0
   113b6:	4681                	li	a3,0
   113b8:	00000073          	ecall
   113bc:	02a7e863          	bltu	a5,a0,113ec <_ZN20complex_full_dynamic3app17h0304ed24111fe479E+0xc6>
   113c0:	00b9a223          	sw	a1,4(s3)
   113c4:	4505                	li	a0,1
   113c6:	00a98023          	sb	a0,0(s3)
   113ca:	18a8                	addi	a0,sp,120
   113cc:	00009097          	auipc	ra,0x9
   113d0:	6ae080e7          	jalr	1710(ra) # 1aa7a <_ZN9allow_pin12full_dynamic17unshare_if_shared17hcb7d6c8e9042aa41E>
   113d4:	0028                	addi	a0,sp,8
   113d6:	00009097          	auipc	ra,0x9
   113da:	6a4080e7          	jalr	1700(ra) # 1aa7a <_ZN9allow_pin12full_dynamic17unshare_if_shared17hcb7d6c8e9042aa41E>
   113de:	50fa                	lw	ra,188(sp)
   113e0:	546a                	lw	s0,184(sp)
   113e2:	54da                	lw	s1,180(sp)
   113e4:	594a                	lw	s2,176(sp)
   113e6:	59ba                	lw	s3,172(sp)
   113e8:	6129                	addi	sp,sp,192
   113ea:	8082                	ret
   113ec:	0028                	addi	a0,sp,8
   113ee:	00009097          	auipc	ra,0x9
   113f2:	68c080e7          	jalr	1676(ra) # 1aa7a <_ZN9allow_pin12full_dynamic17unshare_if_shared17hcb7d6c8e9042aa41E>
   113f6:	18a8                	addi	a0,sp,120
   113f8:	00009097          	auipc	ra,0x9
   113fc:	682080e7          	jalr	1666(ra) # 1aa7a <_ZN9allow_pin12full_dynamic17unshare_if_shared17hcb7d6c8e9042aa41E>
   11400:	18a8                	addi	a0,sp,120
   11402:	00009097          	auipc	ra,0x9
   11406:	678080e7          	jalr	1656(ra) # 1aa7a <_ZN9allow_pin12full_dynamic17unshare_if_shared17hcb7d6c8e9042aa41E>
   1140a:	00198513          	addi	a0,s3,1
   1140e:	02700613          	li	a2,39
   11412:	85ca                	mv	a1,s2
   11414:	00009097          	auipc	ra,0x9
   11418:	6f0080e7          	jalr	1776(ra) # 1ab04 <memcpy>
   1141c:	4501                	li	a0,0
   1141e:	b765                	j	113c6 <_ZN20complex_full_dynamic3app17h0304ed24111fe479E+0xa0>

00011420 <_ZN20complex_full_dynamic3app17h04180b68abad7ad9E>:
   11420:	7175                	addi	sp,sp,-144
   11422:	c706                	sw	ra,140(sp)
   11424:	c522                	sw	s0,136(sp)
   11426:	c326                	sw	s1,132(sp)
   11428:	c14a                	sw	s2,128(sp)
   1142a:	dece                	sw	s3,124(sp)
   1142c:	89aa                	mv	s3,a0
   1142e:	4409                	li	s0,2
   11430:	00810423          	sb	s0,8(sp)
   11434:	0064                	addi	s1,sp,12
   11436:	03400613          	li	a2,52
   1143a:	8526                	mv	a0,s1
   1143c:	00009097          	auipc	ra,0x9
   11440:	6c8080e7          	jalr	1736(ra) # 1ab04 <memcpy>
   11444:	04c10913          	addi	s2,sp,76
   11448:	02e00613          	li	a2,46
   1144c:	854a                	mv	a0,s2
   1144e:	4581                	li	a1,0
   11450:	00009097          	auipc	ra,0x9
   11454:	648080e7          	jalr	1608(ra) # 1aa98 <memset>
   11458:	8626                	mv	a2,s1
   1145a:	04810423          	sb	s0,72(sp)
   1145e:	20900493          	li	s1,521
   11462:	4791                	li	a5,4
   11464:	20900513          	li	a0,521
   11468:	4589                	li	a1,2
   1146a:	03400693          	li	a3,52
   1146e:	4711                	li	a4,4
   11470:	00000073          	ecall
   11474:	04850563          	beq	a0,s0,114be <_ZN20complex_full_dynamic3app17h04180b68abad7ad9E+0x9e>
   11478:	864a                	mv	a2,s2
   1147a:	c026                	sw	s1,0(sp)
   1147c:	c222                	sw	s0,4(sp)
   1147e:	00f10423          	sb	a5,8(sp)
   11482:	47a1                	li	a5,8
   11484:	448d                	li	s1,3
   11486:	20900513          	li	a0,521
   1148a:	45a1                	li	a1,8
   1148c:	02e00693          	li	a3,46
   11490:	470d                	li	a4,3
   11492:	00000073          	ecall
   11496:	02850463          	beq	a0,s0,114be <_ZN20complex_full_dynamic3app17h04180b68abad7ad9E+0x9e>
   1149a:	20900693          	li	a3,521
   1149e:	20900513          	li	a0,521
   114a2:	4589                	li	a1,2
   114a4:	4621                	li	a2,8
   114a6:	4709                	li	a4,2
   114a8:	07f00413          	li	s0,127
   114ac:	c0b6                	sw	a3,64(sp)
   114ae:	c2be                	sw	a5,68(sp)
   114b0:	04910423          	sb	s1,72(sp)
   114b4:	4681                	li	a3,0
   114b6:	00000073          	ecall
   114ba:	02a46863          	bltu	s0,a0,114ea <_ZN20complex_full_dynamic3app17h04180b68abad7ad9E+0xca>
   114be:	00b9a223          	sw	a1,4(s3)
   114c2:	4505                	li	a0,1
   114c4:	00a98023          	sb	a0,0(s3)
   114c8:	0088                	addi	a0,sp,64
   114ca:	00009097          	auipc	ra,0x9
   114ce:	5b0080e7          	jalr	1456(ra) # 1aa7a <_ZN9allow_pin12full_dynamic17unshare_if_shared17hcb7d6c8e9042aa41E>
   114d2:	850a                	mv	a0,sp
   114d4:	00009097          	auipc	ra,0x9
   114d8:	5a6080e7          	jalr	1446(ra) # 1aa7a <_ZN9allow_pin12full_dynamic17unshare_if_shared17hcb7d6c8e9042aa41E>
   114dc:	40ba                	lw	ra,140(sp)
   114de:	442a                	lw	s0,136(sp)
   114e0:	449a                	lw	s1,132(sp)
   114e2:	490a                	lw	s2,128(sp)
   114e4:	59f6                	lw	s3,124(sp)
   114e6:	6149                	addi	sp,sp,144
   114e8:	8082                	ret
   114ea:	850a                	mv	a0,sp
   114ec:	00009097          	auipc	ra,0x9
   114f0:	58e080e7          	jalr	1422(ra) # 1aa7a <_ZN9allow_pin12full_dynamic17unshare_if_shared17hcb7d6c8e9042aa41E>
   114f4:	0088                	addi	a0,sp,64
   114f6:	00009097          	auipc	ra,0x9
   114fa:	584080e7          	jalr	1412(ra) # 1aa7a <_ZN9allow_pin12full_dynamic17unshare_if_shared17hcb7d6c8e9042aa41E>
   114fe:	0088                	addi	a0,sp,64
   11500:	00009097          	auipc	ra,0x9
   11504:	57a080e7          	jalr	1402(ra) # 1aa7a <_ZN9allow_pin12full_dynamic17unshare_if_shared17hcb7d6c8e9042aa41E>
   11508:	00198513          	addi	a0,s3,1
   1150c:	02e00613          	li	a2,46
   11510:	85ca                	mv	a1,s2
   11512:	00009097          	auipc	ra,0x9
   11516:	5f2080e7          	jalr	1522(ra) # 1ab04 <memcpy>
   1151a:	4501                	li	a0,0
   1151c:	b765                	j	114c4 <_ZN20complex_full_dynamic3app17h04180b68abad7ad9E+0xa4>

0001151e <_ZN20complex_full_dynamic3app17h074cbf0a578ee20dE>:
   1151e:	7131                	addi	sp,sp,-192
   11520:	df06                	sw	ra,188(sp)
   11522:	dd22                	sw	s0,184(sp)
   11524:	db26                	sw	s1,180(sp)
   11526:	d94a                	sw	s2,176(sp)
   11528:	d74e                	sw	s3,172(sp)
   1152a:	89aa                	mv	s3,a0
   1152c:	4409                	li	s0,2
   1152e:	00810623          	sb	s0,12(sp)
   11532:	0804                	addi	s1,sp,16
   11534:	02f00613          	li	a2,47
   11538:	8526                	mv	a0,s1
   1153a:	00009097          	auipc	ra,0x9
   1153e:	5ca080e7          	jalr	1482(ra) # 1ab04 <memcpy>
   11542:	04c10913          	addi	s2,sp,76
   11546:	05e00613          	li	a2,94
   1154a:	854a                	mv	a0,s2
   1154c:	4581                	li	a1,0
   1154e:	00009097          	auipc	ra,0x9
   11552:	54a080e7          	jalr	1354(ra) # 1aa98 <memset>
   11556:	8626                	mv	a2,s1
   11558:	04810423          	sb	s0,72(sp)
   1155c:	22b00793          	li	a5,555
   11560:	4495                	li	s1,5
   11562:	4811                	li	a6,4
   11564:	22b00513          	li	a0,555
   11568:	4595                	li	a1,5
   1156a:	02f00693          	li	a3,47
   1156e:	4711                	li	a4,4
   11570:	00000073          	ecall
   11574:	04850563          	beq	a0,s0,115be <_ZN20complex_full_dynamic3app17h074cbf0a578ee20dE+0xa0>
   11578:	864a                	mv	a2,s2
   1157a:	c23e                	sw	a5,4(sp)
   1157c:	c426                	sw	s1,8(sp)
   1157e:	01010623          	sb	a6,12(sp)
   11582:	478d                	li	a5,3
   11584:	22b00513          	li	a0,555
   11588:	4589                	li	a1,2
   1158a:	05e00693          	li	a3,94
   1158e:	470d                	li	a4,3
   11590:	00000073          	ecall
   11594:	02850563          	beq	a0,s0,115be <_ZN20complex_full_dynamic3app17h074cbf0a578ee20dE+0xa0>
   11598:	22b00693          	li	a3,555
   1159c:	4489                	li	s1,2
   1159e:	22b00513          	li	a0,555
   115a2:	4595                	li	a1,5
   115a4:	4609                	li	a2,2
   115a6:	4709                	li	a4,2
   115a8:	07f00413          	li	s0,127
   115ac:	c0b6                	sw	a3,64(sp)
   115ae:	c2a6                	sw	s1,68(sp)
   115b0:	04f10423          	sb	a5,72(sp)
   115b4:	4681                	li	a3,0
   115b6:	00000073          	ecall
   115ba:	02a46863          	bltu	s0,a0,115ea <_ZN20complex_full_dynamic3app17h074cbf0a578ee20dE+0xcc>
   115be:	00b9a223          	sw	a1,4(s3)
   115c2:	4505                	li	a0,1
   115c4:	00a98023          	sb	a0,0(s3)
   115c8:	0088                	addi	a0,sp,64
   115ca:	00009097          	auipc	ra,0x9
   115ce:	4b0080e7          	jalr	1200(ra) # 1aa7a <_ZN9allow_pin12full_dynamic17unshare_if_shared17hcb7d6c8e9042aa41E>
   115d2:	0048                	addi	a0,sp,4
   115d4:	00009097          	auipc	ra,0x9
   115d8:	4a6080e7          	jalr	1190(ra) # 1aa7a <_ZN9allow_pin12full_dynamic17unshare_if_shared17hcb7d6c8e9042aa41E>
   115dc:	50fa                	lw	ra,188(sp)
   115de:	546a                	lw	s0,184(sp)
   115e0:	54da                	lw	s1,180(sp)
   115e2:	594a                	lw	s2,176(sp)
   115e4:	59ba                	lw	s3,172(sp)
   115e6:	6129                	addi	sp,sp,192
   115e8:	8082                	ret
   115ea:	0048                	addi	a0,sp,4
   115ec:	00009097          	auipc	ra,0x9
   115f0:	48e080e7          	jalr	1166(ra) # 1aa7a <_ZN9allow_pin12full_dynamic17unshare_if_shared17hcb7d6c8e9042aa41E>
   115f4:	0088                	addi	a0,sp,64
   115f6:	00009097          	auipc	ra,0x9
   115fa:	484080e7          	jalr	1156(ra) # 1aa7a <_ZN9allow_pin12full_dynamic17unshare_if_shared17hcb7d6c8e9042aa41E>
   115fe:	0088                	addi	a0,sp,64
   11600:	00009097          	auipc	ra,0x9
   11604:	47a080e7          	jalr	1146(ra) # 1aa7a <_ZN9allow_pin12full_dynamic17unshare_if_shared17hcb7d6c8e9042aa41E>
   11608:	00198513          	addi	a0,s3,1
   1160c:	05e00613          	li	a2,94
   11610:	85ca                	mv	a1,s2
   11612:	00009097          	auipc	ra,0x9
   11616:	4f2080e7          	jalr	1266(ra) # 1ab04 <memcpy>
   1161a:	4501                	li	a0,0
   1161c:	b765                	j	115c4 <_ZN20complex_full_dynamic3app17h074cbf0a578ee20dE+0xa6>

0001161e <_ZN20complex_full_dynamic3app17h081f1f3690615ad3E>:
   1161e:	7119                	addi	sp,sp,-128
   11620:	de86                	sw	ra,124(sp)
   11622:	dca2                	sw	s0,120(sp)
   11624:	daa6                	sw	s1,116(sp)
   11626:	d8ca                	sw	s2,112(sp)
   11628:	d6ce                	sw	s3,108(sp)
   1162a:	89aa                	mv	s3,a0
   1162c:	4409                	li	s0,2
   1162e:	00810a23          	sb	s0,20(sp)
   11632:	0824                	addi	s1,sp,24
   11634:	02900613          	li	a2,41
   11638:	8526                	mv	a0,s1
   1163a:	00009097          	auipc	ra,0x9
   1163e:	4ca080e7          	jalr	1226(ra) # 1ab04 <memcpy>
   11642:	05010913          	addi	s2,sp,80
   11646:	4669                	li	a2,26
   11648:	854a                	mv	a0,s2
   1164a:	4581                	li	a1,0
   1164c:	00009097          	auipc	ra,0x9
   11650:	44c080e7          	jalr	1100(ra) # 1aa98 <memset>
   11654:	8626                	mv	a2,s1
   11656:	04810623          	sb	s0,76(sp)
   1165a:	6509                	lui	a0,0x2
   1165c:	4495                	li	s1,5
   1165e:	4811                	li	a6,4
   11660:	4595                	li	a1,5
   11662:	04850793          	addi	a5,a0,72 # 2048 <.Lline_table_start1+0x1e1d>
   11666:	02900693          	li	a3,41
   1166a:	4711                	li	a4,4
   1166c:	853e                	mv	a0,a5
   1166e:	00000073          	ecall
   11672:	04850163          	beq	a0,s0,116b4 <_ZN20complex_full_dynamic3app17h081f1f3690615ad3E+0x96>
   11676:	853e                	mv	a0,a5
   11678:	864a                	mv	a2,s2
   1167a:	c63e                	sw	a5,12(sp)
   1167c:	c826                	sw	s1,16(sp)
   1167e:	01010a23          	sb	a6,20(sp)
   11682:	448d                	li	s1,3
   11684:	458d                	li	a1,3
   11686:	46e9                	li	a3,26
   11688:	470d                	li	a4,3
   1168a:	00000073          	ecall
   1168e:	02850363          	beq	a0,s0,116b4 <_ZN20complex_full_dynamic3app17h081f1f3690615ad3E+0x96>
   11692:	c2be                	sw	a5,68(sp)
   11694:	c4a6                	sw	s1,72(sp)
   11696:	04910623          	sb	s1,76(sp)
   1169a:	6509                	lui	a0,0x2
   1169c:	4595                	li	a1,5
   1169e:	460d                	li	a2,3
   116a0:	04850513          	addi	a0,a0,72 # 2048 <.Lline_table_start1+0x1e1d>
   116a4:	4709                	li	a4,2
   116a6:	07f00793          	li	a5,127
   116aa:	4681                	li	a3,0
   116ac:	00000073          	ecall
   116b0:	02a7e863          	bltu	a5,a0,116e0 <_ZN20complex_full_dynamic3app17h081f1f3690615ad3E+0xc2>
   116b4:	00b9a223          	sw	a1,4(s3)
   116b8:	4505                	li	a0,1
   116ba:	00a98023          	sb	a0,0(s3)
   116be:	00c8                	addi	a0,sp,68
   116c0:	00009097          	auipc	ra,0x9
   116c4:	3ba080e7          	jalr	954(ra) # 1aa7a <_ZN9allow_pin12full_dynamic17unshare_if_shared17hcb7d6c8e9042aa41E>
   116c8:	0068                	addi	a0,sp,12
   116ca:	00009097          	auipc	ra,0x9
   116ce:	3b0080e7          	jalr	944(ra) # 1aa7a <_ZN9allow_pin12full_dynamic17unshare_if_shared17hcb7d6c8e9042aa41E>
   116d2:	50f6                	lw	ra,124(sp)
   116d4:	5466                	lw	s0,120(sp)
   116d6:	54d6                	lw	s1,116(sp)
   116d8:	5946                	lw	s2,112(sp)
   116da:	59b6                	lw	s3,108(sp)
   116dc:	6109                	addi	sp,sp,128
   116de:	8082                	ret
   116e0:	0068                	addi	a0,sp,12
   116e2:	00009097          	auipc	ra,0x9
   116e6:	398080e7          	jalr	920(ra) # 1aa7a <_ZN9allow_pin12full_dynamic17unshare_if_shared17hcb7d6c8e9042aa41E>
   116ea:	00c8                	addi	a0,sp,68
   116ec:	00009097          	auipc	ra,0x9
   116f0:	38e080e7          	jalr	910(ra) # 1aa7a <_ZN9allow_pin12full_dynamic17unshare_if_shared17hcb7d6c8e9042aa41E>
   116f4:	00c8                	addi	a0,sp,68
   116f6:	00009097          	auipc	ra,0x9
   116fa:	384080e7          	jalr	900(ra) # 1aa7a <_ZN9allow_pin12full_dynamic17unshare_if_shared17hcb7d6c8e9042aa41E>
   116fe:	00198513          	addi	a0,s3,1
   11702:	4669                	li	a2,26
   11704:	85ca                	mv	a1,s2
   11706:	00009097          	auipc	ra,0x9
   1170a:	3fe080e7          	jalr	1022(ra) # 1ab04 <memcpy>
   1170e:	4501                	li	a0,0
   11710:	b76d                	j	116ba <_ZN20complex_full_dynamic3app17h081f1f3690615ad3E+0x9c>

00011712 <_ZN20complex_full_dynamic3app17h0f6fbdf52f91755cE>:
   11712:	7135                	addi	sp,sp,-160
   11714:	cf06                	sw	ra,156(sp)
   11716:	cd22                	sw	s0,152(sp)
   11718:	cb26                	sw	s1,148(sp)
   1171a:	c94a                	sw	s2,144(sp)
   1171c:	c74e                	sw	s3,140(sp)
   1171e:	89aa                	mv	s3,a0
   11720:	4409                	li	s0,2
   11722:	00810823          	sb	s0,16(sp)
   11726:	0844                	addi	s1,sp,20
   11728:	05000613          	li	a2,80
   1172c:	8526                	mv	a0,s1
   1172e:	00009097          	auipc	ra,0x9
   11732:	3d6080e7          	jalr	982(ra) # 1ab04 <memcpy>
   11736:	07010913          	addi	s2,sp,112
   1173a:	466d                	li	a2,27
   1173c:	854a                	mv	a0,s2
   1173e:	4581                	li	a1,0
   11740:	00009097          	auipc	ra,0x9
   11744:	358080e7          	jalr	856(ra) # 1aa98 <memset>
   11748:	8626                	mv	a2,s1
   1174a:	06810623          	sb	s0,108(sp)
   1174e:	3d900793          	li	a5,985
   11752:	4485                	li	s1,1
   11754:	4811                	li	a6,4
   11756:	3d900513          	li	a0,985
   1175a:	4585                	li	a1,1
   1175c:	05000693          	li	a3,80
   11760:	4711                	li	a4,4
   11762:	00000073          	ecall
   11766:	04850463          	beq	a0,s0,117ae <_ZN20complex_full_dynamic3app17h0f6fbdf52f91755cE+0x9c>
   1176a:	864a                	mv	a2,s2
   1176c:	c43e                	sw	a5,8(sp)
   1176e:	c626                	sw	s1,12(sp)
   11770:	01010823          	sb	a6,16(sp)
   11774:	478d                	li	a5,3
   11776:	3d900513          	li	a0,985
   1177a:	4589                	li	a1,2
   1177c:	46ed                	li	a3,27
   1177e:	470d                	li	a4,3
   11780:	00000073          	ecall
   11784:	02850563          	beq	a0,s0,117ae <_ZN20complex_full_dynamic3app17h0f6fbdf52f91755cE+0x9c>
   11788:	3d900693          	li	a3,985
   1178c:	4489                	li	s1,2
   1178e:	3d900513          	li	a0,985
   11792:	4585                	li	a1,1
   11794:	4609                	li	a2,2
   11796:	4709                	li	a4,2
   11798:	07f00413          	li	s0,127
   1179c:	d2b6                	sw	a3,100(sp)
   1179e:	d4a6                	sw	s1,104(sp)
   117a0:	06f10623          	sb	a5,108(sp)
   117a4:	4681                	li	a3,0
   117a6:	00000073          	ecall
   117aa:	02a46863          	bltu	s0,a0,117da <_ZN20complex_full_dynamic3app17h0f6fbdf52f91755cE+0xc8>
   117ae:	00b9a223          	sw	a1,4(s3)
   117b2:	4505                	li	a0,1
   117b4:	00a98023          	sb	a0,0(s3)
   117b8:	10c8                	addi	a0,sp,100
   117ba:	00009097          	auipc	ra,0x9
   117be:	2c0080e7          	jalr	704(ra) # 1aa7a <_ZN9allow_pin12full_dynamic17unshare_if_shared17hcb7d6c8e9042aa41E>
   117c2:	0028                	addi	a0,sp,8
   117c4:	00009097          	auipc	ra,0x9
   117c8:	2b6080e7          	jalr	694(ra) # 1aa7a <_ZN9allow_pin12full_dynamic17unshare_if_shared17hcb7d6c8e9042aa41E>
   117cc:	40fa                	lw	ra,156(sp)
   117ce:	446a                	lw	s0,152(sp)
   117d0:	44da                	lw	s1,148(sp)
   117d2:	494a                	lw	s2,144(sp)
   117d4:	49ba                	lw	s3,140(sp)
   117d6:	610d                	addi	sp,sp,160
   117d8:	8082                	ret
   117da:	0028                	addi	a0,sp,8
   117dc:	00009097          	auipc	ra,0x9
   117e0:	29e080e7          	jalr	670(ra) # 1aa7a <_ZN9allow_pin12full_dynamic17unshare_if_shared17hcb7d6c8e9042aa41E>
   117e4:	10c8                	addi	a0,sp,100
   117e6:	00009097          	auipc	ra,0x9
   117ea:	294080e7          	jalr	660(ra) # 1aa7a <_ZN9allow_pin12full_dynamic17unshare_if_shared17hcb7d6c8e9042aa41E>
   117ee:	10c8                	addi	a0,sp,100
   117f0:	00009097          	auipc	ra,0x9
   117f4:	28a080e7          	jalr	650(ra) # 1aa7a <_ZN9allow_pin12full_dynamic17unshare_if_shared17hcb7d6c8e9042aa41E>
   117f8:	00198513          	addi	a0,s3,1
   117fc:	466d                	li	a2,27
   117fe:	85ca                	mv	a1,s2
   11800:	00009097          	auipc	ra,0x9
   11804:	304080e7          	jalr	772(ra) # 1ab04 <memcpy>
   11808:	4501                	li	a0,0
   1180a:	b76d                	j	117b4 <_ZN20complex_full_dynamic3app17h0f6fbdf52f91755cE+0xa2>

0001180c <_ZN20complex_full_dynamic3app17h110e9918984e1a01E>:
   1180c:	7119                	addi	sp,sp,-128
   1180e:	de86                	sw	ra,124(sp)
   11810:	dca2                	sw	s0,120(sp)
   11812:	daa6                	sw	s1,116(sp)
   11814:	d8ca                	sw	s2,112(sp)
   11816:	d6ce                	sw	s3,108(sp)
   11818:	89aa                	mv	s3,a0
   1181a:	4409                	li	s0,2
   1181c:	00810a23          	sb	s0,20(sp)
   11820:	0824                	addi	s1,sp,24
   11822:	03600613          	li	a2,54
   11826:	8526                	mv	a0,s1
   11828:	00009097          	auipc	ra,0x9
   1182c:	2dc080e7          	jalr	732(ra) # 1ab04 <memcpy>
   11830:	05c10913          	addi	s2,sp,92
   11834:	463d                	li	a2,15
   11836:	854a                	mv	a0,s2
   11838:	4581                	li	a1,0
   1183a:	00009097          	auipc	ra,0x9
   1183e:	25e080e7          	jalr	606(ra) # 1aa98 <memset>
   11842:	8626                	mv	a2,s1
   11844:	04810c23          	sb	s0,88(sp)
   11848:	65300793          	li	a5,1619
   1184c:	4495                	li	s1,5
   1184e:	4811                	li	a6,4
   11850:	65300513          	li	a0,1619
   11854:	4595                	li	a1,5
   11856:	03600693          	li	a3,54
   1185a:	4711                	li	a4,4
   1185c:	00000073          	ecall
   11860:	04850363          	beq	a0,s0,118a6 <_ZN20complex_full_dynamic3app17h110e9918984e1a01E+0x9a>
   11864:	864a                	mv	a2,s2
   11866:	c63e                	sw	a5,12(sp)
   11868:	c826                	sw	s1,16(sp)
   1186a:	01010a23          	sb	a6,20(sp)
   1186e:	478d                	li	a5,3
   11870:	65300513          	li	a0,1619
   11874:	458d                	li	a1,3
   11876:	46bd                	li	a3,15
   11878:	470d                	li	a4,3
   1187a:	00000073          	ecall
   1187e:	02850463          	beq	a0,s0,118a6 <_ZN20complex_full_dynamic3app17h110e9918984e1a01E+0x9a>
   11882:	65300693          	li	a3,1619
   11886:	65300513          	li	a0,1619
   1188a:	4595                	li	a1,5
   1188c:	460d                	li	a2,3
   1188e:	4709                	li	a4,2
   11890:	07f00493          	li	s1,127
   11894:	c8b6                	sw	a3,80(sp)
   11896:	cabe                	sw	a5,84(sp)
   11898:	04f10c23          	sb	a5,88(sp)
   1189c:	4681                	li	a3,0
   1189e:	00000073          	ecall
   118a2:	02a4e863          	bltu	s1,a0,118d2 <_ZN20complex_full_dynamic3app17h110e9918984e1a01E+0xc6>
   118a6:	00b9a223          	sw	a1,4(s3)
   118aa:	4505                	li	a0,1
   118ac:	00a98023          	sb	a0,0(s3)
   118b0:	0888                	addi	a0,sp,80
   118b2:	00009097          	auipc	ra,0x9
   118b6:	1c8080e7          	jalr	456(ra) # 1aa7a <_ZN9allow_pin12full_dynamic17unshare_if_shared17hcb7d6c8e9042aa41E>
   118ba:	0068                	addi	a0,sp,12
   118bc:	00009097          	auipc	ra,0x9
   118c0:	1be080e7          	jalr	446(ra) # 1aa7a <_ZN9allow_pin12full_dynamic17unshare_if_shared17hcb7d6c8e9042aa41E>
   118c4:	50f6                	lw	ra,124(sp)
   118c6:	5466                	lw	s0,120(sp)
   118c8:	54d6                	lw	s1,116(sp)
   118ca:	5946                	lw	s2,112(sp)
   118cc:	59b6                	lw	s3,108(sp)
   118ce:	6109                	addi	sp,sp,128
   118d0:	8082                	ret
   118d2:	0068                	addi	a0,sp,12
   118d4:	00009097          	auipc	ra,0x9
   118d8:	1a6080e7          	jalr	422(ra) # 1aa7a <_ZN9allow_pin12full_dynamic17unshare_if_shared17hcb7d6c8e9042aa41E>
   118dc:	0888                	addi	a0,sp,80
   118de:	00009097          	auipc	ra,0x9
   118e2:	19c080e7          	jalr	412(ra) # 1aa7a <_ZN9allow_pin12full_dynamic17unshare_if_shared17hcb7d6c8e9042aa41E>
   118e6:	0888                	addi	a0,sp,80
   118e8:	00009097          	auipc	ra,0x9
   118ec:	192080e7          	jalr	402(ra) # 1aa7a <_ZN9allow_pin12full_dynamic17unshare_if_shared17hcb7d6c8e9042aa41E>
   118f0:	00198513          	addi	a0,s3,1
   118f4:	463d                	li	a2,15
   118f6:	85ca                	mv	a1,s2
   118f8:	00009097          	auipc	ra,0x9
   118fc:	20c080e7          	jalr	524(ra) # 1ab04 <memcpy>
   11900:	4501                	li	a0,0
   11902:	b76d                	j	118ac <_ZN20complex_full_dynamic3app17h110e9918984e1a01E+0xa0>

00011904 <_ZN20complex_full_dynamic3app17h1167c6fabc995130E>:
   11904:	7159                	addi	sp,sp,-112
   11906:	d686                	sw	ra,108(sp)
   11908:	d4a2                	sw	s0,104(sp)
   1190a:	d2a6                	sw	s1,100(sp)
   1190c:	d0ca                	sw	s2,96(sp)
   1190e:	cece                	sw	s3,92(sp)
   11910:	89aa                	mv	s3,a0
   11912:	4409                	li	s0,2
   11914:	00810a23          	sb	s0,20(sp)
   11918:	0824                	addi	s1,sp,24
   1191a:	4669                	li	a2,26
   1191c:	8526                	mv	a0,s1
   1191e:	00009097          	auipc	ra,0x9
   11922:	1e6080e7          	jalr	486(ra) # 1ab04 <memcpy>
   11926:	04010913          	addi	s2,sp,64
   1192a:	466d                	li	a2,27
   1192c:	854a                	mv	a0,s2
   1192e:	4581                	li	a1,0
   11930:	00009097          	auipc	ra,0x9
   11934:	168080e7          	jalr	360(ra) # 1aa98 <memset>
   11938:	8626                	mv	a2,s1
   1193a:	02810e23          	sb	s0,60(sp)
   1193e:	6509                	lui	a0,0x2
   11940:	4495                	li	s1,5
   11942:	4811                	li	a6,4
   11944:	4595                	li	a1,5
   11946:	cce50793          	addi	a5,a0,-818 # 1cce <.Lline_table_start1+0x1aa3>
   1194a:	46e9                	li	a3,26
   1194c:	4711                	li	a4,4
   1194e:	853e                	mv	a0,a5
   11950:	00000073          	ecall
   11954:	04850263          	beq	a0,s0,11998 <_ZN20complex_full_dynamic3app17h1167c6fabc995130E+0x94>
   11958:	853e                	mv	a0,a5
   1195a:	864a                	mv	a2,s2
   1195c:	c63e                	sw	a5,12(sp)
   1195e:	c826                	sw	s1,16(sp)
   11960:	01010a23          	sb	a6,20(sp)
   11964:	448d                	li	s1,3
   11966:	4589                	li	a1,2
   11968:	46ed                	li	a3,27
   1196a:	470d                	li	a4,3
   1196c:	00000073          	ecall
   11970:	02850463          	beq	a0,s0,11998 <_ZN20complex_full_dynamic3app17h1167c6fabc995130E+0x94>
   11974:	4509                	li	a0,2
   11976:	6689                	lui	a3,0x2
   11978:	4595                	li	a1,5
   1197a:	4609                	li	a2,2
   1197c:	da3e                	sw	a5,52(sp)
   1197e:	dc2a                	sw	a0,56(sp)
   11980:	02910e23          	sb	s1,60(sp)
   11984:	cce68513          	addi	a0,a3,-818 # 1cce <.Lline_table_start1+0x1aa3>
   11988:	4709                	li	a4,2
   1198a:	07f00793          	li	a5,127
   1198e:	4681                	li	a3,0
   11990:	00000073          	ecall
   11994:	02a7e863          	bltu	a5,a0,119c4 <_ZN20complex_full_dynamic3app17h1167c6fabc995130E+0xc0>
   11998:	00b9a223          	sw	a1,4(s3)
   1199c:	4505                	li	a0,1
   1199e:	00a98023          	sb	a0,0(s3)
   119a2:	1848                	addi	a0,sp,52
   119a4:	00009097          	auipc	ra,0x9
   119a8:	0d6080e7          	jalr	214(ra) # 1aa7a <_ZN9allow_pin12full_dynamic17unshare_if_shared17hcb7d6c8e9042aa41E>
   119ac:	0068                	addi	a0,sp,12
   119ae:	00009097          	auipc	ra,0x9
   119b2:	0cc080e7          	jalr	204(ra) # 1aa7a <_ZN9allow_pin12full_dynamic17unshare_if_shared17hcb7d6c8e9042aa41E>
   119b6:	50b6                	lw	ra,108(sp)
   119b8:	5426                	lw	s0,104(sp)
   119ba:	5496                	lw	s1,100(sp)
   119bc:	5906                	lw	s2,96(sp)
   119be:	49f6                	lw	s3,92(sp)
   119c0:	6165                	addi	sp,sp,112
   119c2:	8082                	ret
   119c4:	0068                	addi	a0,sp,12
   119c6:	00009097          	auipc	ra,0x9
   119ca:	0b4080e7          	jalr	180(ra) # 1aa7a <_ZN9allow_pin12full_dynamic17unshare_if_shared17hcb7d6c8e9042aa41E>
   119ce:	1848                	addi	a0,sp,52
   119d0:	00009097          	auipc	ra,0x9
   119d4:	0aa080e7          	jalr	170(ra) # 1aa7a <_ZN9allow_pin12full_dynamic17unshare_if_shared17hcb7d6c8e9042aa41E>
   119d8:	1848                	addi	a0,sp,52
   119da:	00009097          	auipc	ra,0x9
   119de:	0a0080e7          	jalr	160(ra) # 1aa7a <_ZN9allow_pin12full_dynamic17unshare_if_shared17hcb7d6c8e9042aa41E>
   119e2:	00198513          	addi	a0,s3,1
   119e6:	466d                	li	a2,27
   119e8:	85ca                	mv	a1,s2
   119ea:	00009097          	auipc	ra,0x9
   119ee:	11a080e7          	jalr	282(ra) # 1ab04 <memcpy>
   119f2:	4501                	li	a0,0
   119f4:	b76d                	j	1199e <_ZN20complex_full_dynamic3app17h1167c6fabc995130E+0x9a>

000119f6 <_ZN20complex_full_dynamic3app17h132155fcfeab53caE>:
   119f6:	7155                	addi	sp,sp,-208
   119f8:	c786                	sw	ra,204(sp)
   119fa:	c5a2                	sw	s0,200(sp)
   119fc:	c3a6                	sw	s1,196(sp)
   119fe:	c1ca                	sw	s2,192(sp)
   11a00:	df4e                	sw	s3,188(sp)
   11a02:	89aa                	mv	s3,a0
   11a04:	4409                	li	s0,2
   11a06:	00810623          	sb	s0,12(sp)
   11a0a:	0804                	addi	s1,sp,16
   11a0c:	05d00613          	li	a2,93
   11a10:	8526                	mv	a0,s1
   11a12:	00009097          	auipc	ra,0x9
   11a16:	0f2080e7          	jalr	242(ra) # 1ab04 <memcpy>
   11a1a:	07c10913          	addi	s2,sp,124
   11a1e:	04000613          	li	a2,64
   11a22:	854a                	mv	a0,s2
   11a24:	4581                	li	a1,0
   11a26:	00009097          	auipc	ra,0x9
   11a2a:	072080e7          	jalr	114(ra) # 1aa98 <memset>
   11a2e:	8626                	mv	a2,s1
   11a30:	06810c23          	sb	s0,120(sp)
   11a34:	6505                	lui	a0,0x1
   11a36:	44a1                	li	s1,8
   11a38:	4811                	li	a6,4
   11a3a:	45a1                	li	a1,8
   11a3c:	02850793          	addi	a5,a0,40 # 1028 <.Lline_table_start1+0xdfd>
   11a40:	05d00693          	li	a3,93
   11a44:	4711                	li	a4,4
   11a46:	853e                	mv	a0,a5
   11a48:	00000073          	ecall
   11a4c:	04850363          	beq	a0,s0,11a92 <_ZN20complex_full_dynamic3app17h132155fcfeab53caE+0x9c>
   11a50:	853e                	mv	a0,a5
   11a52:	864a                	mv	a2,s2
   11a54:	c23e                	sw	a5,4(sp)
   11a56:	c426                	sw	s1,8(sp)
   11a58:	01010623          	sb	a6,12(sp)
   11a5c:	448d                	li	s1,3
   11a5e:	4591                	li	a1,4
   11a60:	04000693          	li	a3,64
   11a64:	470d                	li	a4,3
   11a66:	00000073          	ecall
   11a6a:	02850463          	beq	a0,s0,11a92 <_ZN20complex_full_dynamic3app17h132155fcfeab53caE+0x9c>
   11a6e:	4511                	li	a0,4
   11a70:	6685                	lui	a3,0x1
   11a72:	45a1                	li	a1,8
   11a74:	4611                	li	a2,4
   11a76:	d8be                	sw	a5,112(sp)
   11a78:	daaa                	sw	a0,116(sp)
   11a7a:	06910c23          	sb	s1,120(sp)
   11a7e:	02868513          	addi	a0,a3,40 # 1028 <.Lline_table_start1+0xdfd>
   11a82:	4709                	li	a4,2
   11a84:	07f00793          	li	a5,127
   11a88:	4681                	li	a3,0
   11a8a:	00000073          	ecall
   11a8e:	02a7e863          	bltu	a5,a0,11abe <_ZN20complex_full_dynamic3app17h132155fcfeab53caE+0xc8>
   11a92:	00b9a223          	sw	a1,4(s3)
   11a96:	4505                	li	a0,1
   11a98:	00a98023          	sb	a0,0(s3)
   11a9c:	1888                	addi	a0,sp,112
   11a9e:	00009097          	auipc	ra,0x9
   11aa2:	fdc080e7          	jalr	-36(ra) # 1aa7a <_ZN9allow_pin12full_dynamic17unshare_if_shared17hcb7d6c8e9042aa41E>
   11aa6:	0048                	addi	a0,sp,4
   11aa8:	00009097          	auipc	ra,0x9
   11aac:	fd2080e7          	jalr	-46(ra) # 1aa7a <_ZN9allow_pin12full_dynamic17unshare_if_shared17hcb7d6c8e9042aa41E>
   11ab0:	40be                	lw	ra,204(sp)
   11ab2:	442e                	lw	s0,200(sp)
   11ab4:	449e                	lw	s1,196(sp)
   11ab6:	490e                	lw	s2,192(sp)
   11ab8:	59fa                	lw	s3,188(sp)
   11aba:	6169                	addi	sp,sp,208
   11abc:	8082                	ret
   11abe:	0048                	addi	a0,sp,4
   11ac0:	00009097          	auipc	ra,0x9
   11ac4:	fba080e7          	jalr	-70(ra) # 1aa7a <_ZN9allow_pin12full_dynamic17unshare_if_shared17hcb7d6c8e9042aa41E>
   11ac8:	1888                	addi	a0,sp,112
   11aca:	00009097          	auipc	ra,0x9
   11ace:	fb0080e7          	jalr	-80(ra) # 1aa7a <_ZN9allow_pin12full_dynamic17unshare_if_shared17hcb7d6c8e9042aa41E>
   11ad2:	1888                	addi	a0,sp,112
   11ad4:	00009097          	auipc	ra,0x9
   11ad8:	fa6080e7          	jalr	-90(ra) # 1aa7a <_ZN9allow_pin12full_dynamic17unshare_if_shared17hcb7d6c8e9042aa41E>
   11adc:	00198513          	addi	a0,s3,1
   11ae0:	04000613          	li	a2,64
   11ae4:	85ca                	mv	a1,s2
   11ae6:	00009097          	auipc	ra,0x9
   11aea:	01e080e7          	jalr	30(ra) # 1ab04 <memcpy>
   11aee:	4501                	li	a0,0
   11af0:	b765                	j	11a98 <_ZN20complex_full_dynamic3app17h132155fcfeab53caE+0xa2>

00011af2 <_ZN20complex_full_dynamic3app17h169b7bb9a5abf5e7E>:
   11af2:	7131                	addi	sp,sp,-192
   11af4:	df06                	sw	ra,188(sp)
   11af6:	dd22                	sw	s0,184(sp)
   11af8:	db26                	sw	s1,180(sp)
   11afa:	d94a                	sw	s2,176(sp)
   11afc:	d74e                	sw	s3,172(sp)
   11afe:	89aa                	mv	s3,a0
   11b00:	4409                	li	s0,2
   11b02:	00810a23          	sb	s0,20(sp)
   11b06:	0824                	addi	s1,sp,24
   11b08:	04f00613          	li	a2,79
   11b0c:	8526                	mv	a0,s1
   11b0e:	00009097          	auipc	ra,0x9
   11b12:	ff6080e7          	jalr	-10(ra) # 1ab04 <memcpy>
   11b16:	07410913          	addi	s2,sp,116
   11b1a:	03500613          	li	a2,53
   11b1e:	854a                	mv	a0,s2
   11b20:	4581                	li	a1,0
   11b22:	00009097          	auipc	ra,0x9
   11b26:	f76080e7          	jalr	-138(ra) # 1aa98 <memset>
   11b2a:	8626                	mv	a2,s1
   11b2c:	06810823          	sb	s0,112(sp)
   11b30:	6505                	lui	a0,0x1
   11b32:	449d                	li	s1,7
   11b34:	4811                	li	a6,4
   11b36:	459d                	li	a1,7
   11b38:	6d750793          	addi	a5,a0,1751 # 16d7 <.Lline_table_start1+0x14ac>
   11b3c:	04f00693          	li	a3,79
   11b40:	4711                	li	a4,4
   11b42:	853e                	mv	a0,a5
   11b44:	00000073          	ecall
   11b48:	04850363          	beq	a0,s0,11b8e <_ZN20complex_full_dynamic3app17h169b7bb9a5abf5e7E+0x9c>
   11b4c:	853e                	mv	a0,a5
   11b4e:	864a                	mv	a2,s2
   11b50:	c63e                	sw	a5,12(sp)
   11b52:	c826                	sw	s1,16(sp)
   11b54:	01010a23          	sb	a6,20(sp)
   11b58:	4485                	li	s1,1
   11b5a:	480d                	li	a6,3
   11b5c:	4585                	li	a1,1
   11b5e:	03500693          	li	a3,53
   11b62:	470d                	li	a4,3
   11b64:	00000073          	ecall
   11b68:	02850363          	beq	a0,s0,11b8e <_ZN20complex_full_dynamic3app17h169b7bb9a5abf5e7E+0x9c>
   11b6c:	d4be                	sw	a5,104(sp)
   11b6e:	d6a6                	sw	s1,108(sp)
   11b70:	07010823          	sb	a6,112(sp)
   11b74:	6505                	lui	a0,0x1
   11b76:	459d                	li	a1,7
   11b78:	4605                	li	a2,1
   11b7a:	6d750513          	addi	a0,a0,1751 # 16d7 <.Lline_table_start1+0x14ac>
   11b7e:	4709                	li	a4,2
   11b80:	07f00793          	li	a5,127
   11b84:	4681                	li	a3,0
   11b86:	00000073          	ecall
   11b8a:	02a7e863          	bltu	a5,a0,11bba <_ZN20complex_full_dynamic3app17h169b7bb9a5abf5e7E+0xc8>
   11b8e:	00b9a223          	sw	a1,4(s3)
   11b92:	4505                	li	a0,1
   11b94:	00a98023          	sb	a0,0(s3)
   11b98:	10a8                	addi	a0,sp,104
   11b9a:	00009097          	auipc	ra,0x9
   11b9e:	ee0080e7          	jalr	-288(ra) # 1aa7a <_ZN9allow_pin12full_dynamic17unshare_if_shared17hcb7d6c8e9042aa41E>
   11ba2:	0068                	addi	a0,sp,12
   11ba4:	00009097          	auipc	ra,0x9
   11ba8:	ed6080e7          	jalr	-298(ra) # 1aa7a <_ZN9allow_pin12full_dynamic17unshare_if_shared17hcb7d6c8e9042aa41E>
   11bac:	50fa                	lw	ra,188(sp)
   11bae:	546a                	lw	s0,184(sp)
   11bb0:	54da                	lw	s1,180(sp)
   11bb2:	594a                	lw	s2,176(sp)
   11bb4:	59ba                	lw	s3,172(sp)
   11bb6:	6129                	addi	sp,sp,192
   11bb8:	8082                	ret
   11bba:	0068                	addi	a0,sp,12
   11bbc:	00009097          	auipc	ra,0x9
   11bc0:	ebe080e7          	jalr	-322(ra) # 1aa7a <_ZN9allow_pin12full_dynamic17unshare_if_shared17hcb7d6c8e9042aa41E>
   11bc4:	10a8                	addi	a0,sp,104
   11bc6:	00009097          	auipc	ra,0x9
   11bca:	eb4080e7          	jalr	-332(ra) # 1aa7a <_ZN9allow_pin12full_dynamic17unshare_if_shared17hcb7d6c8e9042aa41E>
   11bce:	10a8                	addi	a0,sp,104
   11bd0:	00009097          	auipc	ra,0x9
   11bd4:	eaa080e7          	jalr	-342(ra) # 1aa7a <_ZN9allow_pin12full_dynamic17unshare_if_shared17hcb7d6c8e9042aa41E>
   11bd8:	00198513          	addi	a0,s3,1
   11bdc:	03500613          	li	a2,53
   11be0:	85ca                	mv	a1,s2
   11be2:	00009097          	auipc	ra,0x9
   11be6:	f22080e7          	jalr	-222(ra) # 1ab04 <memcpy>
   11bea:	4501                	li	a0,0
   11bec:	b765                	j	11b94 <_ZN20complex_full_dynamic3app17h169b7bb9a5abf5e7E+0xa2>

00011bee <_ZN20complex_full_dynamic3app17h1d1c859a3852f99fE>:
   11bee:	7119                	addi	sp,sp,-128
   11bf0:	de86                	sw	ra,124(sp)
   11bf2:	dca2                	sw	s0,120(sp)
   11bf4:	daa6                	sw	s1,116(sp)
   11bf6:	d8ca                	sw	s2,112(sp)
   11bf8:	d6ce                	sw	s3,108(sp)
   11bfa:	89aa                	mv	s3,a0
   11bfc:	4409                	li	s0,2
   11bfe:	00810423          	sb	s0,8(sp)
   11c02:	0064                	addi	s1,sp,12
   11c04:	02c00613          	li	a2,44
   11c08:	8526                	mv	a0,s1
   11c0a:	00009097          	auipc	ra,0x9
   11c0e:	efa080e7          	jalr	-262(ra) # 1ab04 <memcpy>
   11c12:	04410913          	addi	s2,sp,68
   11c16:	02500613          	li	a2,37
   11c1a:	854a                	mv	a0,s2
   11c1c:	4581                	li	a1,0
   11c1e:	00009097          	auipc	ra,0x9
   11c22:	e7a080e7          	jalr	-390(ra) # 1aa98 <memset>
   11c26:	8626                	mv	a2,s1
   11c28:	04810023          	sb	s0,64(sp)
   11c2c:	77f00793          	li	a5,1919
   11c30:	448d                	li	s1,3
   11c32:	4811                	li	a6,4
   11c34:	77f00513          	li	a0,1919
   11c38:	458d                	li	a1,3
   11c3a:	02c00693          	li	a3,44
   11c3e:	4711                	li	a4,4
   11c40:	00000073          	ecall
   11c44:	04850463          	beq	a0,s0,11c8c <_ZN20complex_full_dynamic3app17h1d1c859a3852f99fE+0x9e>
   11c48:	c03e                	sw	a5,0(sp)
   11c4a:	c226                	sw	s1,4(sp)
   11c4c:	01010423          	sb	a6,8(sp)
   11c50:	77f00513          	li	a0,1919
   11c54:	02500693          	li	a3,37
   11c58:	470d                	li	a4,3
   11c5a:	4581                	li	a1,0
   11c5c:	864a                	mv	a2,s2
   11c5e:	00000073          	ecall
   11c62:	02850563          	beq	a0,s0,11c8c <_ZN20complex_full_dynamic3app17h1d1c859a3852f99fE+0x9e>
   11c66:	77f00613          	li	a2,1919
   11c6a:	468d                	li	a3,3
   11c6c:	77f00513          	li	a0,1919
   11c70:	458d                	li	a1,3
   11c72:	4709                	li	a4,2
   11c74:	07f00793          	li	a5,127
   11c78:	dc32                	sw	a2,56(sp)
   11c7a:	de02                	sw	zero,60(sp)
   11c7c:	04d10023          	sb	a3,64(sp)
   11c80:	4601                	li	a2,0
   11c82:	4681                	li	a3,0
   11c84:	00000073          	ecall
   11c88:	02a7e863          	bltu	a5,a0,11cb8 <_ZN20complex_full_dynamic3app17h1d1c859a3852f99fE+0xca>
   11c8c:	00b9a223          	sw	a1,4(s3)
   11c90:	4505                	li	a0,1
   11c92:	00a98023          	sb	a0,0(s3)
   11c96:	1828                	addi	a0,sp,56
   11c98:	00009097          	auipc	ra,0x9
   11c9c:	de2080e7          	jalr	-542(ra) # 1aa7a <_ZN9allow_pin12full_dynamic17unshare_if_shared17hcb7d6c8e9042aa41E>
   11ca0:	850a                	mv	a0,sp
   11ca2:	00009097          	auipc	ra,0x9
   11ca6:	dd8080e7          	jalr	-552(ra) # 1aa7a <_ZN9allow_pin12full_dynamic17unshare_if_shared17hcb7d6c8e9042aa41E>
   11caa:	50f6                	lw	ra,124(sp)
   11cac:	5466                	lw	s0,120(sp)
   11cae:	54d6                	lw	s1,116(sp)
   11cb0:	5946                	lw	s2,112(sp)
   11cb2:	59b6                	lw	s3,108(sp)
   11cb4:	6109                	addi	sp,sp,128
   11cb6:	8082                	ret
   11cb8:	850a                	mv	a0,sp
   11cba:	00009097          	auipc	ra,0x9
   11cbe:	dc0080e7          	jalr	-576(ra) # 1aa7a <_ZN9allow_pin12full_dynamic17unshare_if_shared17hcb7d6c8e9042aa41E>
   11cc2:	1828                	addi	a0,sp,56
   11cc4:	00009097          	auipc	ra,0x9
   11cc8:	db6080e7          	jalr	-586(ra) # 1aa7a <_ZN9allow_pin12full_dynamic17unshare_if_shared17hcb7d6c8e9042aa41E>
   11ccc:	1828                	addi	a0,sp,56
   11cce:	00009097          	auipc	ra,0x9
   11cd2:	dac080e7          	jalr	-596(ra) # 1aa7a <_ZN9allow_pin12full_dynamic17unshare_if_shared17hcb7d6c8e9042aa41E>
   11cd6:	00198513          	addi	a0,s3,1
   11cda:	02500613          	li	a2,37
   11cde:	85ca                	mv	a1,s2
   11ce0:	00009097          	auipc	ra,0x9
   11ce4:	e24080e7          	jalr	-476(ra) # 1ab04 <memcpy>
   11ce8:	4501                	li	a0,0
   11cea:	b765                	j	11c92 <_ZN20complex_full_dynamic3app17h1d1c859a3852f99fE+0xa4>

00011cec <_ZN20complex_full_dynamic3app17h1e5f8d7c58c4059fE>:
   11cec:	7119                	addi	sp,sp,-128
   11cee:	de86                	sw	ra,124(sp)
   11cf0:	dca2                	sw	s0,120(sp)
   11cf2:	daa6                	sw	s1,116(sp)
   11cf4:	d8ca                	sw	s2,112(sp)
   11cf6:	d6ce                	sw	s3,108(sp)
   11cf8:	89aa                	mv	s3,a0
   11cfa:	4409                	li	s0,2
   11cfc:	00810623          	sb	s0,12(sp)
   11d00:	0804                	addi	s1,sp,16
   11d02:	02300613          	li	a2,35
   11d06:	8526                	mv	a0,s1
   11d08:	00009097          	auipc	ra,0x9
   11d0c:	dfc080e7          	jalr	-516(ra) # 1ab04 <memcpy>
   11d10:	04010913          	addi	s2,sp,64
   11d14:	02b00613          	li	a2,43
   11d18:	854a                	mv	a0,s2
   11d1a:	4581                	li	a1,0
   11d1c:	00009097          	auipc	ra,0x9
   11d20:	d7c080e7          	jalr	-644(ra) # 1aa98 <memset>
   11d24:	8626                	mv	a2,s1
   11d26:	02810e23          	sb	s0,60(sp)
   11d2a:	6505                	lui	a0,0x1
   11d2c:	4491                	li	s1,4
   11d2e:	4589                	li	a1,2
   11d30:	d5d50793          	addi	a5,a0,-675 # d5d <.Lline_table_start1+0xb32>
   11d34:	02300693          	li	a3,35
   11d38:	4711                	li	a4,4
   11d3a:	853e                	mv	a0,a5
   11d3c:	00000073          	ecall
   11d40:	04850263          	beq	a0,s0,11d84 <_ZN20complex_full_dynamic3app17h1e5f8d7c58c4059fE+0x98>
   11d44:	853e                	mv	a0,a5
   11d46:	4581                	li	a1,0
   11d48:	864a                	mv	a2,s2
   11d4a:	c23e                	sw	a5,4(sp)
   11d4c:	c422                	sw	s0,8(sp)
   11d4e:	00910623          	sb	s1,12(sp)
   11d52:	448d                	li	s1,3
   11d54:	02b00693          	li	a3,43
   11d58:	470d                	li	a4,3
   11d5a:	00000073          	ecall
   11d5e:	02850363          	beq	a0,s0,11d84 <_ZN20complex_full_dynamic3app17h1e5f8d7c58c4059fE+0x98>
   11d62:	da3e                	sw	a5,52(sp)
   11d64:	dc02                	sw	zero,56(sp)
   11d66:	02910e23          	sb	s1,60(sp)
   11d6a:	6505                	lui	a0,0x1
   11d6c:	4589                	li	a1,2
   11d6e:	d5d50513          	addi	a0,a0,-675 # d5d <.Lline_table_start1+0xb32>
   11d72:	4709                	li	a4,2
   11d74:	07f00793          	li	a5,127
   11d78:	4601                	li	a2,0
   11d7a:	4681                	li	a3,0
   11d7c:	00000073          	ecall
   11d80:	02a7e863          	bltu	a5,a0,11db0 <_ZN20complex_full_dynamic3app17h1e5f8d7c58c4059fE+0xc4>
   11d84:	00b9a223          	sw	a1,4(s3)
   11d88:	4505                	li	a0,1
   11d8a:	00a98023          	sb	a0,0(s3)
   11d8e:	1848                	addi	a0,sp,52
   11d90:	00009097          	auipc	ra,0x9
   11d94:	cea080e7          	jalr	-790(ra) # 1aa7a <_ZN9allow_pin12full_dynamic17unshare_if_shared17hcb7d6c8e9042aa41E>
   11d98:	0048                	addi	a0,sp,4
   11d9a:	00009097          	auipc	ra,0x9
   11d9e:	ce0080e7          	jalr	-800(ra) # 1aa7a <_ZN9allow_pin12full_dynamic17unshare_if_shared17hcb7d6c8e9042aa41E>
   11da2:	50f6                	lw	ra,124(sp)
   11da4:	5466                	lw	s0,120(sp)
   11da6:	54d6                	lw	s1,116(sp)
   11da8:	5946                	lw	s2,112(sp)
   11daa:	59b6                	lw	s3,108(sp)
   11dac:	6109                	addi	sp,sp,128
   11dae:	8082                	ret
   11db0:	0048                	addi	a0,sp,4
   11db2:	00009097          	auipc	ra,0x9
   11db6:	cc8080e7          	jalr	-824(ra) # 1aa7a <_ZN9allow_pin12full_dynamic17unshare_if_shared17hcb7d6c8e9042aa41E>
   11dba:	1848                	addi	a0,sp,52
   11dbc:	00009097          	auipc	ra,0x9
   11dc0:	cbe080e7          	jalr	-834(ra) # 1aa7a <_ZN9allow_pin12full_dynamic17unshare_if_shared17hcb7d6c8e9042aa41E>
   11dc4:	1848                	addi	a0,sp,52
   11dc6:	00009097          	auipc	ra,0x9
   11dca:	cb4080e7          	jalr	-844(ra) # 1aa7a <_ZN9allow_pin12full_dynamic17unshare_if_shared17hcb7d6c8e9042aa41E>
   11dce:	00198513          	addi	a0,s3,1
   11dd2:	02b00613          	li	a2,43
   11dd6:	85ca                	mv	a1,s2
   11dd8:	00009097          	auipc	ra,0x9
   11ddc:	d2c080e7          	jalr	-724(ra) # 1ab04 <memcpy>
   11de0:	4501                	li	a0,0
   11de2:	b765                	j	11d8a <_ZN20complex_full_dynamic3app17h1e5f8d7c58c4059fE+0x9e>

00011de4 <_ZN20complex_full_dynamic3app17h1fb9c5331959c8ccE>:
   11de4:	7159                	addi	sp,sp,-112
   11de6:	d686                	sw	ra,108(sp)
   11de8:	d4a2                	sw	s0,104(sp)
   11dea:	d2a6                	sw	s1,100(sp)
   11dec:	d0ca                	sw	s2,96(sp)
   11dee:	cece                	sw	s3,92(sp)
   11df0:	892a                	mv	s2,a0
   11df2:	4409                	li	s0,2
   11df4:	00810423          	sb	s0,8(sp)
   11df8:	0064                	addi	s1,sp,12
   11dfa:	03200613          	li	a2,50
   11dfe:	8526                	mv	a0,s1
   11e00:	00009097          	auipc	ra,0x9
   11e04:	d04080e7          	jalr	-764(ra) # 1ab04 <memcpy>
   11e08:	8626                	mv	a2,s1
   11e0a:	cc82                	sw	zero,88(sp)
   11e0c:	04810423          	sb	s0,72(sp)
   11e10:	c682                	sw	zero,76(sp)
   11e12:	c882                	sw	zero,80(sp)
   11e14:	ca82                	sw	zero,84(sp)
   11e16:	6509                	lui	a0,0x2
   11e18:	4491                	li	s1,4
   11e1a:	4591                	li	a1,4
   11e1c:	9d650793          	addi	a5,a0,-1578 # 19d6 <.Lline_table_start1+0x17ab>
   11e20:	03200693          	li	a3,50
   11e24:	4711                	li	a4,4
   11e26:	853e                	mv	a0,a5
   11e28:	00000073          	ecall
   11e2c:	04850463          	beq	a0,s0,11e74 <_ZN20complex_full_dynamic3app17h1fb9c5331959c8ccE+0x90>
   11e30:	853e                	mv	a0,a5
   11e32:	04c10993          	addi	s3,sp,76
   11e36:	c03e                	sw	a5,0(sp)
   11e38:	c226                	sw	s1,4(sp)
   11e3a:	00910423          	sb	s1,8(sp)
   11e3e:	44a5                	li	s1,9
   11e40:	480d                	li	a6,3
   11e42:	45a5                	li	a1,9
   11e44:	46c1                	li	a3,16
   11e46:	470d                	li	a4,3
   11e48:	864e                	mv	a2,s3
   11e4a:	00000073          	ecall
   11e4e:	02850363          	beq	a0,s0,11e74 <_ZN20complex_full_dynamic3app17h1fb9c5331959c8ccE+0x90>
   11e52:	c0be                	sw	a5,64(sp)
   11e54:	c2a6                	sw	s1,68(sp)
   11e56:	05010423          	sb	a6,72(sp)
   11e5a:	6509                	lui	a0,0x2
   11e5c:	4591                	li	a1,4
   11e5e:	4625                	li	a2,9
   11e60:	9d650513          	addi	a0,a0,-1578 # 19d6 <.Lline_table_start1+0x17ab>
   11e64:	4709                	li	a4,2
   11e66:	07f00793          	li	a5,127
   11e6a:	4681                	li	a3,0
   11e6c:	00000073          	ecall
   11e70:	02a7e863          	bltu	a5,a0,11ea0 <_ZN20complex_full_dynamic3app17h1fb9c5331959c8ccE+0xbc>
   11e74:	00b92223          	sw	a1,4(s2)
   11e78:	4505                	li	a0,1
   11e7a:	00a90023          	sb	a0,0(s2)
   11e7e:	0088                	addi	a0,sp,64
   11e80:	00009097          	auipc	ra,0x9
   11e84:	bfa080e7          	jalr	-1030(ra) # 1aa7a <_ZN9allow_pin12full_dynamic17unshare_if_shared17hcb7d6c8e9042aa41E>
   11e88:	850a                	mv	a0,sp
   11e8a:	00009097          	auipc	ra,0x9
   11e8e:	bf0080e7          	jalr	-1040(ra) # 1aa7a <_ZN9allow_pin12full_dynamic17unshare_if_shared17hcb7d6c8e9042aa41E>
   11e92:	50b6                	lw	ra,108(sp)
   11e94:	5426                	lw	s0,104(sp)
   11e96:	5496                	lw	s1,100(sp)
   11e98:	5906                	lw	s2,96(sp)
   11e9a:	49f6                	lw	s3,92(sp)
   11e9c:	6165                	addi	sp,sp,112
   11e9e:	8082                	ret
   11ea0:	850a                	mv	a0,sp
   11ea2:	00009097          	auipc	ra,0x9
   11ea6:	bd8080e7          	jalr	-1064(ra) # 1aa7a <_ZN9allow_pin12full_dynamic17unshare_if_shared17hcb7d6c8e9042aa41E>
   11eaa:	0088                	addi	a0,sp,64
   11eac:	00009097          	auipc	ra,0x9
   11eb0:	bce080e7          	jalr	-1074(ra) # 1aa7a <_ZN9allow_pin12full_dynamic17unshare_if_shared17hcb7d6c8e9042aa41E>
   11eb4:	0088                	addi	a0,sp,64
   11eb6:	00009097          	auipc	ra,0x9
   11eba:	bc4080e7          	jalr	-1084(ra) # 1aa7a <_ZN9allow_pin12full_dynamic17unshare_if_shared17hcb7d6c8e9042aa41E>
   11ebe:	00190513          	addi	a0,s2,1
   11ec2:	4641                	li	a2,16
   11ec4:	85ce                	mv	a1,s3
   11ec6:	00009097          	auipc	ra,0x9
   11eca:	c3e080e7          	jalr	-962(ra) # 1ab04 <memcpy>
   11ece:	4501                	li	a0,0
   11ed0:	b76d                	j	11e7a <_ZN20complex_full_dynamic3app17h1fb9c5331959c8ccE+0x96>

00011ed2 <_ZN20complex_full_dynamic3app17h20a83e6e1c70c3eaE>:
   11ed2:	7131                	addi	sp,sp,-192
   11ed4:	df06                	sw	ra,188(sp)
   11ed6:	dd22                	sw	s0,184(sp)
   11ed8:	db26                	sw	s1,180(sp)
   11eda:	d94a                	sw	s2,176(sp)
   11edc:	d74e                	sw	s3,172(sp)
   11ede:	89aa                	mv	s3,a0
   11ee0:	4409                	li	s0,2
   11ee2:	00810823          	sb	s0,16(sp)
   11ee6:	0844                	addi	s1,sp,20
   11ee8:	05500613          	li	a2,85
   11eec:	8526                	mv	a0,s1
   11eee:	00009097          	auipc	ra,0x9
   11ef2:	c16080e7          	jalr	-1002(ra) # 1ab04 <memcpy>
   11ef6:	07810913          	addi	s2,sp,120
   11efa:	03200613          	li	a2,50
   11efe:	854a                	mv	a0,s2
   11f00:	4581                	li	a1,0
   11f02:	00009097          	auipc	ra,0x9
   11f06:	b96080e7          	jalr	-1130(ra) # 1aa98 <memset>
   11f0a:	8626                	mv	a2,s1
   11f0c:	06810a23          	sb	s0,116(sp)
   11f10:	6509                	lui	a0,0x2
   11f12:	44a1                	li	s1,8
   11f14:	4811                	li	a6,4
   11f16:	45a1                	li	a1,8
   11f18:	09550793          	addi	a5,a0,149 # 2095 <.Lline_table_start1+0x1e6a>
   11f1c:	05500693          	li	a3,85
   11f20:	4711                	li	a4,4
   11f22:	853e                	mv	a0,a5
   11f24:	00000073          	ecall
   11f28:	04850363          	beq	a0,s0,11f6e <_ZN20complex_full_dynamic3app17h20a83e6e1c70c3eaE+0x9c>
   11f2c:	853e                	mv	a0,a5
   11f2e:	864a                	mv	a2,s2
   11f30:	c43e                	sw	a5,8(sp)
   11f32:	c626                	sw	s1,12(sp)
   11f34:	01010823          	sb	a6,16(sp)
   11f38:	448d                	li	s1,3
   11f3a:	45a1                	li	a1,8
   11f3c:	03200693          	li	a3,50
   11f40:	470d                	li	a4,3
   11f42:	00000073          	ecall
   11f46:	02850463          	beq	a0,s0,11f6e <_ZN20complex_full_dynamic3app17h20a83e6e1c70c3eaE+0x9c>
   11f4a:	4521                	li	a0,8
   11f4c:	6689                	lui	a3,0x2
   11f4e:	45a1                	li	a1,8
   11f50:	4621                	li	a2,8
   11f52:	d6be                	sw	a5,108(sp)
   11f54:	d8aa                	sw	a0,112(sp)
   11f56:	06910a23          	sb	s1,116(sp)
   11f5a:	09568513          	addi	a0,a3,149 # 2095 <.Lline_table_start1+0x1e6a>
   11f5e:	4709                	li	a4,2
   11f60:	07f00793          	li	a5,127
   11f64:	4681                	li	a3,0
   11f66:	00000073          	ecall
   11f6a:	02a7e863          	bltu	a5,a0,11f9a <_ZN20complex_full_dynamic3app17h20a83e6e1c70c3eaE+0xc8>
   11f6e:	00b9a223          	sw	a1,4(s3)
   11f72:	4505                	li	a0,1
   11f74:	00a98023          	sb	a0,0(s3)
   11f78:	10e8                	addi	a0,sp,108
   11f7a:	00009097          	auipc	ra,0x9
   11f7e:	b00080e7          	jalr	-1280(ra) # 1aa7a <_ZN9allow_pin12full_dynamic17unshare_if_shared17hcb7d6c8e9042aa41E>
   11f82:	0028                	addi	a0,sp,8
   11f84:	00009097          	auipc	ra,0x9
   11f88:	af6080e7          	jalr	-1290(ra) # 1aa7a <_ZN9allow_pin12full_dynamic17unshare_if_shared17hcb7d6c8e9042aa41E>
   11f8c:	50fa                	lw	ra,188(sp)
   11f8e:	546a                	lw	s0,184(sp)
   11f90:	54da                	lw	s1,180(sp)
   11f92:	594a                	lw	s2,176(sp)
   11f94:	59ba                	lw	s3,172(sp)
   11f96:	6129                	addi	sp,sp,192
   11f98:	8082                	ret
   11f9a:	0028                	addi	a0,sp,8
   11f9c:	00009097          	auipc	ra,0x9
   11fa0:	ade080e7          	jalr	-1314(ra) # 1aa7a <_ZN9allow_pin12full_dynamic17unshare_if_shared17hcb7d6c8e9042aa41E>
   11fa4:	10e8                	addi	a0,sp,108
   11fa6:	00009097          	auipc	ra,0x9
   11faa:	ad4080e7          	jalr	-1324(ra) # 1aa7a <_ZN9allow_pin12full_dynamic17unshare_if_shared17hcb7d6c8e9042aa41E>
   11fae:	10e8                	addi	a0,sp,108
   11fb0:	00009097          	auipc	ra,0x9
   11fb4:	aca080e7          	jalr	-1334(ra) # 1aa7a <_ZN9allow_pin12full_dynamic17unshare_if_shared17hcb7d6c8e9042aa41E>
   11fb8:	00198513          	addi	a0,s3,1
   11fbc:	03200613          	li	a2,50
   11fc0:	85ca                	mv	a1,s2
   11fc2:	00009097          	auipc	ra,0x9
   11fc6:	b42080e7          	jalr	-1214(ra) # 1ab04 <memcpy>
   11fca:	4501                	li	a0,0
   11fcc:	b765                	j	11f74 <_ZN20complex_full_dynamic3app17h20a83e6e1c70c3eaE+0xa2>

00011fce <_ZN20complex_full_dynamic3app17h217e8cca0daf41a4E>:
   11fce:	7119                	addi	sp,sp,-128
   11fd0:	de86                	sw	ra,124(sp)
   11fd2:	dca2                	sw	s0,120(sp)
   11fd4:	daa6                	sw	s1,116(sp)
   11fd6:	d8ca                	sw	s2,112(sp)
   11fd8:	d6ce                	sw	s3,108(sp)
   11fda:	89aa                	mv	s3,a0
   11fdc:	4409                	li	s0,2
   11fde:	00810423          	sb	s0,8(sp)
   11fe2:	0064                	addi	s1,sp,12
   11fe4:	4645                	li	a2,17
   11fe6:	8526                	mv	a0,s1
   11fe8:	00009097          	auipc	ra,0x9
   11fec:	b1c080e7          	jalr	-1252(ra) # 1ab04 <memcpy>
   11ff0:	02c10913          	addi	s2,sp,44
   11ff4:	03f00613          	li	a2,63
   11ff8:	854a                	mv	a0,s2
   11ffa:	4581                	li	a1,0
   11ffc:	00009097          	auipc	ra,0x9
   12000:	a9c080e7          	jalr	-1380(ra) # 1aa98 <memset>
   12004:	8626                	mv	a2,s1
   12006:	02810423          	sb	s0,40(sp)
   1200a:	6505                	lui	a0,0x1
   1200c:	449d                	li	s1,7
   1200e:	4811                	li	a6,4
   12010:	459d                	li	a1,7
   12012:	cb050793          	addi	a5,a0,-848 # cb0 <.Lline_table_start1+0xa85>
   12016:	46c5                	li	a3,17
   12018:	4711                	li	a4,4
   1201a:	853e                	mv	a0,a5
   1201c:	00000073          	ecall
   12020:	04850363          	beq	a0,s0,12066 <_ZN20complex_full_dynamic3app17h217e8cca0daf41a4E+0x98>
   12024:	853e                	mv	a0,a5
   12026:	864a                	mv	a2,s2
   12028:	c03e                	sw	a5,0(sp)
   1202a:	c226                	sw	s1,4(sp)
   1202c:	01010423          	sb	a6,8(sp)
   12030:	448d                	li	s1,3
   12032:	4591                	li	a1,4
   12034:	03f00693          	li	a3,63
   12038:	470d                	li	a4,3
   1203a:	00000073          	ecall
   1203e:	02850463          	beq	a0,s0,12066 <_ZN20complex_full_dynamic3app17h217e8cca0daf41a4E+0x98>
   12042:	4511                	li	a0,4
   12044:	6685                	lui	a3,0x1
   12046:	459d                	li	a1,7
   12048:	4611                	li	a2,4
   1204a:	d03e                	sw	a5,32(sp)
   1204c:	d22a                	sw	a0,36(sp)
   1204e:	02910423          	sb	s1,40(sp)
   12052:	cb068513          	addi	a0,a3,-848 # cb0 <.Lline_table_start1+0xa85>
   12056:	4709                	li	a4,2
   12058:	07f00793          	li	a5,127
   1205c:	4681                	li	a3,0
   1205e:	00000073          	ecall
   12062:	02a7e863          	bltu	a5,a0,12092 <_ZN20complex_full_dynamic3app17h217e8cca0daf41a4E+0xc4>
   12066:	00b9a223          	sw	a1,4(s3)
   1206a:	4505                	li	a0,1
   1206c:	00a98023          	sb	a0,0(s3)
   12070:	1008                	addi	a0,sp,32
   12072:	00009097          	auipc	ra,0x9
   12076:	a08080e7          	jalr	-1528(ra) # 1aa7a <_ZN9allow_pin12full_dynamic17unshare_if_shared17hcb7d6c8e9042aa41E>
   1207a:	850a                	mv	a0,sp
   1207c:	00009097          	auipc	ra,0x9
   12080:	9fe080e7          	jalr	-1538(ra) # 1aa7a <_ZN9allow_pin12full_dynamic17unshare_if_shared17hcb7d6c8e9042aa41E>
   12084:	50f6                	lw	ra,124(sp)
   12086:	5466                	lw	s0,120(sp)
   12088:	54d6                	lw	s1,116(sp)
   1208a:	5946                	lw	s2,112(sp)
   1208c:	59b6                	lw	s3,108(sp)
   1208e:	6109                	addi	sp,sp,128
   12090:	8082                	ret
   12092:	850a                	mv	a0,sp
   12094:	00009097          	auipc	ra,0x9
   12098:	9e6080e7          	jalr	-1562(ra) # 1aa7a <_ZN9allow_pin12full_dynamic17unshare_if_shared17hcb7d6c8e9042aa41E>
   1209c:	1008                	addi	a0,sp,32
   1209e:	00009097          	auipc	ra,0x9
   120a2:	9dc080e7          	jalr	-1572(ra) # 1aa7a <_ZN9allow_pin12full_dynamic17unshare_if_shared17hcb7d6c8e9042aa41E>
   120a6:	1008                	addi	a0,sp,32
   120a8:	00009097          	auipc	ra,0x9
   120ac:	9d2080e7          	jalr	-1582(ra) # 1aa7a <_ZN9allow_pin12full_dynamic17unshare_if_shared17hcb7d6c8e9042aa41E>
   120b0:	00198513          	addi	a0,s3,1
   120b4:	03f00613          	li	a2,63
   120b8:	85ca                	mv	a1,s2
   120ba:	00009097          	auipc	ra,0x9
   120be:	a4a080e7          	jalr	-1462(ra) # 1ab04 <memcpy>
   120c2:	4501                	li	a0,0
   120c4:	b765                	j	1206c <_ZN20complex_full_dynamic3app17h217e8cca0daf41a4E+0x9e>

000120c6 <_ZN20complex_full_dynamic3app17h24fcf14fafba8056E>:
   120c6:	7175                	addi	sp,sp,-144
   120c8:	c706                	sw	ra,140(sp)
   120ca:	c522                	sw	s0,136(sp)
   120cc:	c326                	sw	s1,132(sp)
   120ce:	c14a                	sw	s2,128(sp)
   120d0:	dece                	sw	s3,124(sp)
   120d2:	89aa                	mv	s3,a0
   120d4:	4409                	li	s0,2
   120d6:	00810a23          	sb	s0,20(sp)
   120da:	0824                	addi	s1,sp,24
   120dc:	4649                	li	a2,18
   120de:	8526                	mv	a0,s1
   120e0:	00009097          	auipc	ra,0x9
   120e4:	a24080e7          	jalr	-1500(ra) # 1ab04 <memcpy>
   120e8:	03810913          	addi	s2,sp,56
   120ec:	04400613          	li	a2,68
   120f0:	854a                	mv	a0,s2
   120f2:	4581                	li	a1,0
   120f4:	00009097          	auipc	ra,0x9
   120f8:	9a4080e7          	jalr	-1628(ra) # 1aa98 <memset>
   120fc:	8626                	mv	a2,s1
   120fe:	02810a23          	sb	s0,52(sp)
   12102:	6509                	lui	a0,0x2
   12104:	4491                	li	s1,4
   12106:	4589                	li	a1,2
   12108:	43250793          	addi	a5,a0,1074 # 2432 <.Lline_table_start1+0x2207>
   1210c:	46c9                	li	a3,18
   1210e:	4711                	li	a4,4
   12110:	853e                	mv	a0,a5
   12112:	00000073          	ecall
   12116:	04850363          	beq	a0,s0,1215c <_ZN20complex_full_dynamic3app17h24fcf14fafba8056E+0x96>
   1211a:	853e                	mv	a0,a5
   1211c:	864a                	mv	a2,s2
   1211e:	c63e                	sw	a5,12(sp)
   12120:	c822                	sw	s0,16(sp)
   12122:	00910a23          	sb	s1,20(sp)
   12126:	44a5                	li	s1,9
   12128:	480d                	li	a6,3
   1212a:	45a5                	li	a1,9
   1212c:	04400693          	li	a3,68
   12130:	470d                	li	a4,3
   12132:	00000073          	ecall
   12136:	02850363          	beq	a0,s0,1215c <_ZN20complex_full_dynamic3app17h24fcf14fafba8056E+0x96>
   1213a:	d63e                	sw	a5,44(sp)
   1213c:	d826                	sw	s1,48(sp)
   1213e:	03010a23          	sb	a6,52(sp)
   12142:	6509                	lui	a0,0x2
   12144:	4589                	li	a1,2
   12146:	4625                	li	a2,9
   12148:	43250513          	addi	a0,a0,1074 # 2432 <.Lline_table_start1+0x2207>
   1214c:	4709                	li	a4,2
   1214e:	07f00793          	li	a5,127
   12152:	4681                	li	a3,0
   12154:	00000073          	ecall
   12158:	02a7e863          	bltu	a5,a0,12188 <_ZN20complex_full_dynamic3app17h24fcf14fafba8056E+0xc2>
   1215c:	00b9a223          	sw	a1,4(s3)
   12160:	4505                	li	a0,1
   12162:	00a98023          	sb	a0,0(s3)
   12166:	1068                	addi	a0,sp,44
   12168:	00009097          	auipc	ra,0x9
   1216c:	912080e7          	jalr	-1774(ra) # 1aa7a <_ZN9allow_pin12full_dynamic17unshare_if_shared17hcb7d6c8e9042aa41E>
   12170:	0068                	addi	a0,sp,12
   12172:	00009097          	auipc	ra,0x9
   12176:	908080e7          	jalr	-1784(ra) # 1aa7a <_ZN9allow_pin12full_dynamic17unshare_if_shared17hcb7d6c8e9042aa41E>
   1217a:	40ba                	lw	ra,140(sp)
   1217c:	442a                	lw	s0,136(sp)
   1217e:	449a                	lw	s1,132(sp)
   12180:	490a                	lw	s2,128(sp)
   12182:	59f6                	lw	s3,124(sp)
   12184:	6149                	addi	sp,sp,144
   12186:	8082                	ret
   12188:	0068                	addi	a0,sp,12
   1218a:	00009097          	auipc	ra,0x9
   1218e:	8f0080e7          	jalr	-1808(ra) # 1aa7a <_ZN9allow_pin12full_dynamic17unshare_if_shared17hcb7d6c8e9042aa41E>
   12192:	1068                	addi	a0,sp,44
   12194:	00009097          	auipc	ra,0x9
   12198:	8e6080e7          	jalr	-1818(ra) # 1aa7a <_ZN9allow_pin12full_dynamic17unshare_if_shared17hcb7d6c8e9042aa41E>
   1219c:	1068                	addi	a0,sp,44
   1219e:	00009097          	auipc	ra,0x9
   121a2:	8dc080e7          	jalr	-1828(ra) # 1aa7a <_ZN9allow_pin12full_dynamic17unshare_if_shared17hcb7d6c8e9042aa41E>
   121a6:	00198513          	addi	a0,s3,1
   121aa:	04400613          	li	a2,68
   121ae:	85ca                	mv	a1,s2
   121b0:	00009097          	auipc	ra,0x9
   121b4:	954080e7          	jalr	-1708(ra) # 1ab04 <memcpy>
   121b8:	4501                	li	a0,0
   121ba:	b765                	j	12162 <_ZN20complex_full_dynamic3app17h24fcf14fafba8056E+0x9c>

000121bc <_ZN20complex_full_dynamic3app17h2626371ef7b3e6f2E>:
   121bc:	7135                	addi	sp,sp,-160
   121be:	cf06                	sw	ra,156(sp)
   121c0:	cd22                	sw	s0,152(sp)
   121c2:	cb26                	sw	s1,148(sp)
   121c4:	c94a                	sw	s2,144(sp)
   121c6:	c74e                	sw	s3,140(sp)
   121c8:	89aa                	mv	s3,a0
   121ca:	4409                	li	s0,2
   121cc:	00810a23          	sb	s0,20(sp)
   121d0:	0824                	addi	s1,sp,24
   121d2:	04400613          	li	a2,68
   121d6:	8526                	mv	a0,s1
   121d8:	00009097          	auipc	ra,0x9
   121dc:	92c080e7          	jalr	-1748(ra) # 1ab04 <memcpy>
   121e0:	06810913          	addi	s2,sp,104
   121e4:	02300613          	li	a2,35
   121e8:	854a                	mv	a0,s2
   121ea:	4581                	li	a1,0
   121ec:	00009097          	auipc	ra,0x9
   121f0:	8ac080e7          	jalr	-1876(ra) # 1aa98 <memset>
   121f4:	8626                	mv	a2,s1
   121f6:	06810223          	sb	s0,100(sp)
   121fa:	6505                	lui	a0,0x1
   121fc:	4499                	li	s1,6
   121fe:	4811                	li	a6,4
   12200:	4599                	li	a1,6
   12202:	9bf50793          	addi	a5,a0,-1601 # 9bf <.Lline_table_start1+0x794>
   12206:	04400693          	li	a3,68
   1220a:	4711                	li	a4,4
   1220c:	853e                	mv	a0,a5
   1220e:	00000073          	ecall
   12212:	04850263          	beq	a0,s0,12256 <_ZN20complex_full_dynamic3app17h2626371ef7b3e6f2E+0x9a>
   12216:	853e                	mv	a0,a5
   12218:	864a                	mv	a2,s2
   1221a:	c63e                	sw	a5,12(sp)
   1221c:	c826                	sw	s1,16(sp)
   1221e:	01010a23          	sb	a6,20(sp)
   12222:	448d                	li	s1,3
   12224:	458d                	li	a1,3
   12226:	02300693          	li	a3,35
   1222a:	470d                	li	a4,3
   1222c:	00000073          	ecall
   12230:	02850363          	beq	a0,s0,12256 <_ZN20complex_full_dynamic3app17h2626371ef7b3e6f2E+0x9a>
   12234:	cebe                	sw	a5,92(sp)
   12236:	d0a6                	sw	s1,96(sp)
   12238:	06910223          	sb	s1,100(sp)
   1223c:	6505                	lui	a0,0x1
   1223e:	4599                	li	a1,6
   12240:	460d                	li	a2,3
   12242:	9bf50513          	addi	a0,a0,-1601 # 9bf <.Lline_table_start1+0x794>
   12246:	4709                	li	a4,2
   12248:	07f00793          	li	a5,127
   1224c:	4681                	li	a3,0
   1224e:	00000073          	ecall
   12252:	02a7e863          	bltu	a5,a0,12282 <_ZN20complex_full_dynamic3app17h2626371ef7b3e6f2E+0xc6>
   12256:	00b9a223          	sw	a1,4(s3)
   1225a:	4505                	li	a0,1
   1225c:	00a98023          	sb	a0,0(s3)
   12260:	08e8                	addi	a0,sp,92
   12262:	00009097          	auipc	ra,0x9
   12266:	818080e7          	jalr	-2024(ra) # 1aa7a <_ZN9allow_pin12full_dynamic17unshare_if_shared17hcb7d6c8e9042aa41E>
   1226a:	0068                	addi	a0,sp,12
   1226c:	00009097          	auipc	ra,0x9
   12270:	80e080e7          	jalr	-2034(ra) # 1aa7a <_ZN9allow_pin12full_dynamic17unshare_if_shared17hcb7d6c8e9042aa41E>
   12274:	40fa                	lw	ra,156(sp)
   12276:	446a                	lw	s0,152(sp)
   12278:	44da                	lw	s1,148(sp)
   1227a:	494a                	lw	s2,144(sp)
   1227c:	49ba                	lw	s3,140(sp)
   1227e:	610d                	addi	sp,sp,160
   12280:	8082                	ret
   12282:	0068                	addi	a0,sp,12
   12284:	00008097          	auipc	ra,0x8
   12288:	7f6080e7          	jalr	2038(ra) # 1aa7a <_ZN9allow_pin12full_dynamic17unshare_if_shared17hcb7d6c8e9042aa41E>
   1228c:	08e8                	addi	a0,sp,92
   1228e:	00008097          	auipc	ra,0x8
   12292:	7ec080e7          	jalr	2028(ra) # 1aa7a <_ZN9allow_pin12full_dynamic17unshare_if_shared17hcb7d6c8e9042aa41E>
   12296:	08e8                	addi	a0,sp,92
   12298:	00008097          	auipc	ra,0x8
   1229c:	7e2080e7          	jalr	2018(ra) # 1aa7a <_ZN9allow_pin12full_dynamic17unshare_if_shared17hcb7d6c8e9042aa41E>
   122a0:	00198513          	addi	a0,s3,1
   122a4:	02300613          	li	a2,35
   122a8:	85ca                	mv	a1,s2
   122aa:	00009097          	auipc	ra,0x9
   122ae:	85a080e7          	jalr	-1958(ra) # 1ab04 <memcpy>
   122b2:	4501                	li	a0,0
   122b4:	b765                	j	1225c <_ZN20complex_full_dynamic3app17h2626371ef7b3e6f2E+0xa0>

000122b6 <_ZN20complex_full_dynamic3app17h2a412a8f58b30e46E>:
   122b6:	7159                	addi	sp,sp,-112
   122b8:	d686                	sw	ra,108(sp)
   122ba:	d4a2                	sw	s0,104(sp)
   122bc:	d2a6                	sw	s1,100(sp)
   122be:	d0ca                	sw	s2,96(sp)
   122c0:	cece                	sw	s3,92(sp)
   122c2:	89aa                	mv	s3,a0
   122c4:	4409                	li	s0,2
   122c6:	00810a23          	sb	s0,20(sp)
   122ca:	0824                	addi	s1,sp,24
   122cc:	463d                	li	a2,15
   122ce:	8526                	mv	a0,s1
   122d0:	00009097          	auipc	ra,0x9
   122d4:	834080e7          	jalr	-1996(ra) # 1ab04 <memcpy>
   122d8:	03410913          	addi	s2,sp,52
   122dc:	02500613          	li	a2,37
   122e0:	854a                	mv	a0,s2
   122e2:	4581                	li	a1,0
   122e4:	00008097          	auipc	ra,0x8
   122e8:	7b4080e7          	jalr	1972(ra) # 1aa98 <memset>
   122ec:	8626                	mv	a2,s1
   122ee:	02810823          	sb	s0,48(sp)
   122f2:	0a200793          	li	a5,162
   122f6:	44a1                	li	s1,8
   122f8:	4811                	li	a6,4
   122fa:	0a200513          	li	a0,162
   122fe:	45a1                	li	a1,8
   12300:	46bd                	li	a3,15
   12302:	4711                	li	a4,4
   12304:	00000073          	ecall
   12308:	04850463          	beq	a0,s0,12350 <_ZN20complex_full_dynamic3app17h2a412a8f58b30e46E+0x9a>
   1230c:	4581                	li	a1,0
   1230e:	864a                	mv	a2,s2
   12310:	c63e                	sw	a5,12(sp)
   12312:	c826                	sw	s1,16(sp)
   12314:	01010a23          	sb	a6,20(sp)
   12318:	478d                	li	a5,3
   1231a:	0a200513          	li	a0,162
   1231e:	02500693          	li	a3,37
   12322:	470d                	li	a4,3
   12324:	00000073          	ecall
   12328:	02850463          	beq	a0,s0,12350 <_ZN20complex_full_dynamic3app17h2a412a8f58b30e46E+0x9a>
   1232c:	0a200613          	li	a2,162
   12330:	0a200513          	li	a0,162
   12334:	45a1                	li	a1,8
   12336:	4709                	li	a4,2
   12338:	07f00493          	li	s1,127
   1233c:	d432                	sw	a2,40(sp)
   1233e:	d602                	sw	zero,44(sp)
   12340:	02f10823          	sb	a5,48(sp)
   12344:	4601                	li	a2,0
   12346:	4681                	li	a3,0
   12348:	00000073          	ecall
   1234c:	02a4e863          	bltu	s1,a0,1237c <_ZN20complex_full_dynamic3app17h2a412a8f58b30e46E+0xc6>
   12350:	00b9a223          	sw	a1,4(s3)
   12354:	4505                	li	a0,1
   12356:	00a98023          	sb	a0,0(s3)
   1235a:	1028                	addi	a0,sp,40
   1235c:	00008097          	auipc	ra,0x8
   12360:	71e080e7          	jalr	1822(ra) # 1aa7a <_ZN9allow_pin12full_dynamic17unshare_if_shared17hcb7d6c8e9042aa41E>
   12364:	0068                	addi	a0,sp,12
   12366:	00008097          	auipc	ra,0x8
   1236a:	714080e7          	jalr	1812(ra) # 1aa7a <_ZN9allow_pin12full_dynamic17unshare_if_shared17hcb7d6c8e9042aa41E>
   1236e:	50b6                	lw	ra,108(sp)
   12370:	5426                	lw	s0,104(sp)
   12372:	5496                	lw	s1,100(sp)
   12374:	5906                	lw	s2,96(sp)
   12376:	49f6                	lw	s3,92(sp)
   12378:	6165                	addi	sp,sp,112
   1237a:	8082                	ret
   1237c:	0068                	addi	a0,sp,12
   1237e:	00008097          	auipc	ra,0x8
   12382:	6fc080e7          	jalr	1788(ra) # 1aa7a <_ZN9allow_pin12full_dynamic17unshare_if_shared17hcb7d6c8e9042aa41E>
   12386:	1028                	addi	a0,sp,40
   12388:	00008097          	auipc	ra,0x8
   1238c:	6f2080e7          	jalr	1778(ra) # 1aa7a <_ZN9allow_pin12full_dynamic17unshare_if_shared17hcb7d6c8e9042aa41E>
   12390:	1028                	addi	a0,sp,40
   12392:	00008097          	auipc	ra,0x8
   12396:	6e8080e7          	jalr	1768(ra) # 1aa7a <_ZN9allow_pin12full_dynamic17unshare_if_shared17hcb7d6c8e9042aa41E>
   1239a:	00198513          	addi	a0,s3,1
   1239e:	02500613          	li	a2,37
   123a2:	85ca                	mv	a1,s2
   123a4:	00008097          	auipc	ra,0x8
   123a8:	760080e7          	jalr	1888(ra) # 1ab04 <memcpy>
   123ac:	4501                	li	a0,0
   123ae:	b765                	j	12356 <_ZN20complex_full_dynamic3app17h2a412a8f58b30e46E+0xa0>

000123b0 <_ZN20complex_full_dynamic3app17h2ebe7e36e1cd9100E>:
   123b0:	7159                	addi	sp,sp,-112
   123b2:	d686                	sw	ra,108(sp)
   123b4:	d4a2                	sw	s0,104(sp)
   123b6:	d2a6                	sw	s1,100(sp)
   123b8:	d0ca                	sw	s2,96(sp)
   123ba:	cece                	sw	s3,92(sp)
   123bc:	89aa                	mv	s3,a0
   123be:	4409                	li	s0,2
   123c0:	00810623          	sb	s0,12(sp)
   123c4:	0804                	addi	s1,sp,16
   123c6:	02500613          	li	a2,37
   123ca:	8526                	mv	a0,s1
   123cc:	00008097          	auipc	ra,0x8
   123d0:	738080e7          	jalr	1848(ra) # 1ab04 <memcpy>
   123d4:	04410913          	addi	s2,sp,68
   123d8:	4661                	li	a2,24
   123da:	854a                	mv	a0,s2
   123dc:	4581                	li	a1,0
   123de:	00008097          	auipc	ra,0x8
   123e2:	6ba080e7          	jalr	1722(ra) # 1aa98 <memset>
   123e6:	8626                	mv	a2,s1
   123e8:	04810023          	sb	s0,64(sp)
   123ec:	6505                	lui	a0,0x1
   123ee:	44a5                	li	s1,9
   123f0:	4811                	li	a6,4
   123f2:	45a5                	li	a1,9
   123f4:	a7050793          	addi	a5,a0,-1424 # a70 <.Lline_table_start1+0x845>
   123f8:	02500693          	li	a3,37
   123fc:	4711                	li	a4,4
   123fe:	853e                	mv	a0,a5
   12400:	00000073          	ecall
   12404:	04850263          	beq	a0,s0,12448 <_ZN20complex_full_dynamic3app17h2ebe7e36e1cd9100E+0x98>
   12408:	853e                	mv	a0,a5
   1240a:	864a                	mv	a2,s2
   1240c:	c23e                	sw	a5,4(sp)
   1240e:	c426                	sw	s1,8(sp)
   12410:	01010623          	sb	a6,12(sp)
   12414:	44a1                	li	s1,8
   12416:	480d                	li	a6,3
   12418:	45a1                	li	a1,8
   1241a:	46e1                	li	a3,24
   1241c:	470d                	li	a4,3
   1241e:	00000073          	ecall
   12422:	02850363          	beq	a0,s0,12448 <_ZN20complex_full_dynamic3app17h2ebe7e36e1cd9100E+0x98>
   12426:	dc3e                	sw	a5,56(sp)
   12428:	de26                	sw	s1,60(sp)
   1242a:	05010023          	sb	a6,64(sp)
   1242e:	6505                	lui	a0,0x1
   12430:	45a5                	li	a1,9
   12432:	4621                	li	a2,8
   12434:	a7050513          	addi	a0,a0,-1424 # a70 <.Lline_table_start1+0x845>
   12438:	4709                	li	a4,2
   1243a:	07f00793          	li	a5,127
   1243e:	4681                	li	a3,0
   12440:	00000073          	ecall
   12444:	02a7e863          	bltu	a5,a0,12474 <_ZN20complex_full_dynamic3app17h2ebe7e36e1cd9100E+0xc4>
   12448:	00b9a223          	sw	a1,4(s3)
   1244c:	4505                	li	a0,1
   1244e:	00a98023          	sb	a0,0(s3)
   12452:	1828                	addi	a0,sp,56
   12454:	00008097          	auipc	ra,0x8
   12458:	626080e7          	jalr	1574(ra) # 1aa7a <_ZN9allow_pin12full_dynamic17unshare_if_shared17hcb7d6c8e9042aa41E>
   1245c:	0048                	addi	a0,sp,4
   1245e:	00008097          	auipc	ra,0x8
   12462:	61c080e7          	jalr	1564(ra) # 1aa7a <_ZN9allow_pin12full_dynamic17unshare_if_shared17hcb7d6c8e9042aa41E>
   12466:	50b6                	lw	ra,108(sp)
   12468:	5426                	lw	s0,104(sp)
   1246a:	5496                	lw	s1,100(sp)
   1246c:	5906                	lw	s2,96(sp)
   1246e:	49f6                	lw	s3,92(sp)
   12470:	6165                	addi	sp,sp,112
   12472:	8082                	ret
   12474:	0048                	addi	a0,sp,4
   12476:	00008097          	auipc	ra,0x8
   1247a:	604080e7          	jalr	1540(ra) # 1aa7a <_ZN9allow_pin12full_dynamic17unshare_if_shared17hcb7d6c8e9042aa41E>
   1247e:	1828                	addi	a0,sp,56
   12480:	00008097          	auipc	ra,0x8
   12484:	5fa080e7          	jalr	1530(ra) # 1aa7a <_ZN9allow_pin12full_dynamic17unshare_if_shared17hcb7d6c8e9042aa41E>
   12488:	1828                	addi	a0,sp,56
   1248a:	00008097          	auipc	ra,0x8
   1248e:	5f0080e7          	jalr	1520(ra) # 1aa7a <_ZN9allow_pin12full_dynamic17unshare_if_shared17hcb7d6c8e9042aa41E>
   12492:	00198513          	addi	a0,s3,1
   12496:	4661                	li	a2,24
   12498:	85ca                	mv	a1,s2
   1249a:	00008097          	auipc	ra,0x8
   1249e:	66a080e7          	jalr	1642(ra) # 1ab04 <memcpy>
   124a2:	4501                	li	a0,0
   124a4:	b76d                	j	1244e <_ZN20complex_full_dynamic3app17h2ebe7e36e1cd9100E+0x9e>

000124a6 <_ZN20complex_full_dynamic3app17h322c2b2f146072b1E>:
   124a6:	7159                	addi	sp,sp,-112
   124a8:	d686                	sw	ra,108(sp)
   124aa:	d4a2                	sw	s0,104(sp)
   124ac:	d2a6                	sw	s1,100(sp)
   124ae:	d0ca                	sw	s2,96(sp)
   124b0:	cece                	sw	s3,92(sp)
   124b2:	892a                	mv	s2,a0
   124b4:	4409                	li	s0,2
   124b6:	00810823          	sb	s0,16(sp)
   124ba:	0844                	addi	s1,sp,20
   124bc:	02b00613          	li	a2,43
   124c0:	8526                	mv	a0,s1
   124c2:	00008097          	auipc	ra,0x8
   124c6:	642080e7          	jalr	1602(ra) # 1ab04 <memcpy>
   124ca:	8626                	mv	a2,s1
   124cc:	04010c23          	sb	zero,88(sp)
   124d0:	04810423          	sb	s0,72(sp)
   124d4:	c682                	sw	zero,76(sp)
   124d6:	c882                	sw	zero,80(sp)
   124d8:	ca82                	sw	zero,84(sp)
   124da:	6505                	lui	a0,0x1
   124dc:	4499                	li	s1,6
   124de:	4811                	li	a6,4
   124e0:	4599                	li	a1,6
   124e2:	46550793          	addi	a5,a0,1125 # 1465 <.Lline_table_start1+0x123a>
   124e6:	02b00693          	li	a3,43
   124ea:	4711                	li	a4,4
   124ec:	853e                	mv	a0,a5
   124ee:	00000073          	ecall
   124f2:	04850363          	beq	a0,s0,12538 <_ZN20complex_full_dynamic3app17h322c2b2f146072b1E+0x92>
   124f6:	853e                	mv	a0,a5
   124f8:	4581                	li	a1,0
   124fa:	04c10993          	addi	s3,sp,76
   124fe:	c43e                	sw	a5,8(sp)
   12500:	c626                	sw	s1,12(sp)
   12502:	01010823          	sb	a6,16(sp)
   12506:	448d                	li	s1,3
   12508:	46b5                	li	a3,13
   1250a:	470d                	li	a4,3
   1250c:	864e                	mv	a2,s3
   1250e:	00000073          	ecall
   12512:	02850363          	beq	a0,s0,12538 <_ZN20complex_full_dynamic3app17h322c2b2f146072b1E+0x92>
   12516:	c0be                	sw	a5,64(sp)
   12518:	c282                	sw	zero,68(sp)
   1251a:	04910423          	sb	s1,72(sp)
   1251e:	6505                	lui	a0,0x1
   12520:	4599                	li	a1,6
   12522:	46550513          	addi	a0,a0,1125 # 1465 <.Lline_table_start1+0x123a>
   12526:	4709                	li	a4,2
   12528:	07f00793          	li	a5,127
   1252c:	4601                	li	a2,0
   1252e:	4681                	li	a3,0
   12530:	00000073          	ecall
   12534:	02a7e863          	bltu	a5,a0,12564 <_ZN20complex_full_dynamic3app17h322c2b2f146072b1E+0xbe>
   12538:	00b92223          	sw	a1,4(s2)
   1253c:	4505                	li	a0,1
   1253e:	00a90023          	sb	a0,0(s2)
   12542:	0088                	addi	a0,sp,64
   12544:	00008097          	auipc	ra,0x8
   12548:	536080e7          	jalr	1334(ra) # 1aa7a <_ZN9allow_pin12full_dynamic17unshare_if_shared17hcb7d6c8e9042aa41E>
   1254c:	0028                	addi	a0,sp,8
   1254e:	00008097          	auipc	ra,0x8
   12552:	52c080e7          	jalr	1324(ra) # 1aa7a <_ZN9allow_pin12full_dynamic17unshare_if_shared17hcb7d6c8e9042aa41E>
   12556:	50b6                	lw	ra,108(sp)
   12558:	5426                	lw	s0,104(sp)
   1255a:	5496                	lw	s1,100(sp)
   1255c:	5906                	lw	s2,96(sp)
   1255e:	49f6                	lw	s3,92(sp)
   12560:	6165                	addi	sp,sp,112
   12562:	8082                	ret
   12564:	0028                	addi	a0,sp,8
   12566:	00008097          	auipc	ra,0x8
   1256a:	514080e7          	jalr	1300(ra) # 1aa7a <_ZN9allow_pin12full_dynamic17unshare_if_shared17hcb7d6c8e9042aa41E>
   1256e:	0088                	addi	a0,sp,64
   12570:	00008097          	auipc	ra,0x8
   12574:	50a080e7          	jalr	1290(ra) # 1aa7a <_ZN9allow_pin12full_dynamic17unshare_if_shared17hcb7d6c8e9042aa41E>
   12578:	0088                	addi	a0,sp,64
   1257a:	00008097          	auipc	ra,0x8
   1257e:	500080e7          	jalr	1280(ra) # 1aa7a <_ZN9allow_pin12full_dynamic17unshare_if_shared17hcb7d6c8e9042aa41E>
   12582:	00190513          	addi	a0,s2,1
   12586:	4635                	li	a2,13
   12588:	85ce                	mv	a1,s3
   1258a:	00008097          	auipc	ra,0x8
   1258e:	57a080e7          	jalr	1402(ra) # 1ab04 <memcpy>
   12592:	4501                	li	a0,0
   12594:	b76d                	j	1253e <_ZN20complex_full_dynamic3app17h322c2b2f146072b1E+0x98>

00012596 <_ZN20complex_full_dynamic3app17h3281e6d75ffb287aE>:
   12596:	7155                	addi	sp,sp,-208
   12598:	c786                	sw	ra,204(sp)
   1259a:	c5a2                	sw	s0,200(sp)
   1259c:	c3a6                	sw	s1,196(sp)
   1259e:	c1ca                	sw	s2,192(sp)
   125a0:	df4e                	sw	s3,188(sp)
   125a2:	89aa                	mv	s3,a0
   125a4:	4409                	li	s0,2
   125a6:	00810423          	sb	s0,8(sp)
   125aa:	0064                	addi	s1,sp,12
   125ac:	05100613          	li	a2,81
   125b0:	8526                	mv	a0,s1
   125b2:	00008097          	auipc	ra,0x8
   125b6:	552080e7          	jalr	1362(ra) # 1ab04 <memcpy>
   125ba:	06c10913          	addi	s2,sp,108
   125be:	04f00613          	li	a2,79
   125c2:	854a                	mv	a0,s2
   125c4:	4581                	li	a1,0
   125c6:	00008097          	auipc	ra,0x8
   125ca:	4d2080e7          	jalr	1234(ra) # 1aa98 <memset>
   125ce:	8626                	mv	a2,s1
   125d0:	06810423          	sb	s0,104(sp)
   125d4:	6505                	lui	a0,0x1
   125d6:	4491                	li	s1,4
   125d8:	4589                	li	a1,2
   125da:	e1650793          	addi	a5,a0,-490 # e16 <.Lline_table_start1+0xbeb>
   125de:	05100693          	li	a3,81
   125e2:	4711                	li	a4,4
   125e4:	853e                	mv	a0,a5
   125e6:	00000073          	ecall
   125ea:	04850363          	beq	a0,s0,12630 <_ZN20complex_full_dynamic3app17h3281e6d75ffb287aE+0x9a>
   125ee:	853e                	mv	a0,a5
   125f0:	864a                	mv	a2,s2
   125f2:	c03e                	sw	a5,0(sp)
   125f4:	c222                	sw	s0,4(sp)
   125f6:	00910423          	sb	s1,8(sp)
   125fa:	448d                	li	s1,3
   125fc:	4591                	li	a1,4
   125fe:	04f00693          	li	a3,79
   12602:	470d                	li	a4,3
   12604:	00000073          	ecall
   12608:	02850463          	beq	a0,s0,12630 <_ZN20complex_full_dynamic3app17h3281e6d75ffb287aE+0x9a>
   1260c:	4511                	li	a0,4
   1260e:	6685                	lui	a3,0x1
   12610:	4589                	li	a1,2
   12612:	4611                	li	a2,4
   12614:	d0be                	sw	a5,96(sp)
   12616:	d2aa                	sw	a0,100(sp)
   12618:	06910423          	sb	s1,104(sp)
   1261c:	e1668513          	addi	a0,a3,-490 # e16 <.Lline_table_start1+0xbeb>
   12620:	4709                	li	a4,2
   12622:	07f00793          	li	a5,127
   12626:	4681                	li	a3,0
   12628:	00000073          	ecall
   1262c:	02a7e863          	bltu	a5,a0,1265c <_ZN20complex_full_dynamic3app17h3281e6d75ffb287aE+0xc6>
   12630:	00b9a223          	sw	a1,4(s3)
   12634:	4505                	li	a0,1
   12636:	00a98023          	sb	a0,0(s3)
   1263a:	1088                	addi	a0,sp,96
   1263c:	00008097          	auipc	ra,0x8
   12640:	43e080e7          	jalr	1086(ra) # 1aa7a <_ZN9allow_pin12full_dynamic17unshare_if_shared17hcb7d6c8e9042aa41E>
   12644:	850a                	mv	a0,sp
   12646:	00008097          	auipc	ra,0x8
   1264a:	434080e7          	jalr	1076(ra) # 1aa7a <_ZN9allow_pin12full_dynamic17unshare_if_shared17hcb7d6c8e9042aa41E>
   1264e:	40be                	lw	ra,204(sp)
   12650:	442e                	lw	s0,200(sp)
   12652:	449e                	lw	s1,196(sp)
   12654:	490e                	lw	s2,192(sp)
   12656:	59fa                	lw	s3,188(sp)
   12658:	6169                	addi	sp,sp,208
   1265a:	8082                	ret
   1265c:	850a                	mv	a0,sp
   1265e:	00008097          	auipc	ra,0x8
   12662:	41c080e7          	jalr	1052(ra) # 1aa7a <_ZN9allow_pin12full_dynamic17unshare_if_shared17hcb7d6c8e9042aa41E>
   12666:	1088                	addi	a0,sp,96
   12668:	00008097          	auipc	ra,0x8
   1266c:	412080e7          	jalr	1042(ra) # 1aa7a <_ZN9allow_pin12full_dynamic17unshare_if_shared17hcb7d6c8e9042aa41E>
   12670:	1088                	addi	a0,sp,96
   12672:	00008097          	auipc	ra,0x8
   12676:	408080e7          	jalr	1032(ra) # 1aa7a <_ZN9allow_pin12full_dynamic17unshare_if_shared17hcb7d6c8e9042aa41E>
   1267a:	00198513          	addi	a0,s3,1
   1267e:	04f00613          	li	a2,79
   12682:	85ca                	mv	a1,s2
   12684:	00008097          	auipc	ra,0x8
   12688:	480080e7          	jalr	1152(ra) # 1ab04 <memcpy>
   1268c:	4501                	li	a0,0
   1268e:	b765                	j	12636 <_ZN20complex_full_dynamic3app17h3281e6d75ffb287aE+0xa0>

00012690 <_ZN20complex_full_dynamic3app17h34b7bfed0771d228E>:
   12690:	7135                	addi	sp,sp,-160
   12692:	cf06                	sw	ra,156(sp)
   12694:	cd22                	sw	s0,152(sp)
   12696:	cb26                	sw	s1,148(sp)
   12698:	c94a                	sw	s2,144(sp)
   1269a:	c74e                	sw	s3,140(sp)
   1269c:	89aa                	mv	s3,a0
   1269e:	4409                	li	s0,2
   126a0:	00810423          	sb	s0,8(sp)
   126a4:	0064                	addi	s1,sp,12
   126a6:	04000613          	li	a2,64
   126aa:	8526                	mv	a0,s1
   126ac:	00008097          	auipc	ra,0x8
   126b0:	458080e7          	jalr	1112(ra) # 1ab04 <memcpy>
   126b4:	05810913          	addi	s2,sp,88
   126b8:	03100613          	li	a2,49
   126bc:	854a                	mv	a0,s2
   126be:	4581                	li	a1,0
   126c0:	00008097          	auipc	ra,0x8
   126c4:	3d8080e7          	jalr	984(ra) # 1aa98 <memset>
   126c8:	8626                	mv	a2,s1
   126ca:	04810a23          	sb	s0,84(sp)
   126ce:	6505                	lui	a0,0x1
   126d0:	44a1                	li	s1,8
   126d2:	4811                	li	a6,4
   126d4:	45a1                	li	a1,8
   126d6:	fce50793          	addi	a5,a0,-50 # fce <.Lline_table_start1+0xda3>
   126da:	04000693          	li	a3,64
   126de:	4711                	li	a4,4
   126e0:	853e                	mv	a0,a5
   126e2:	00000073          	ecall
   126e6:	04850363          	beq	a0,s0,1272c <_ZN20complex_full_dynamic3app17h34b7bfed0771d228E+0x9c>
   126ea:	853e                	mv	a0,a5
   126ec:	864a                	mv	a2,s2
   126ee:	c03e                	sw	a5,0(sp)
   126f0:	c226                	sw	s1,4(sp)
   126f2:	01010423          	sb	a6,8(sp)
   126f6:	4495                	li	s1,5
   126f8:	480d                	li	a6,3
   126fa:	4595                	li	a1,5
   126fc:	03100693          	li	a3,49
   12700:	470d                	li	a4,3
   12702:	00000073          	ecall
   12706:	02850363          	beq	a0,s0,1272c <_ZN20complex_full_dynamic3app17h34b7bfed0771d228E+0x9c>
   1270a:	c6be                	sw	a5,76(sp)
   1270c:	c8a6                	sw	s1,80(sp)
   1270e:	05010a23          	sb	a6,84(sp)
   12712:	6505                	lui	a0,0x1
   12714:	45a1                	li	a1,8
   12716:	4615                	li	a2,5
   12718:	fce50513          	addi	a0,a0,-50 # fce <.Lline_table_start1+0xda3>
   1271c:	4709                	li	a4,2
   1271e:	07f00793          	li	a5,127
   12722:	4681                	li	a3,0
   12724:	00000073          	ecall
   12728:	02a7e863          	bltu	a5,a0,12758 <_ZN20complex_full_dynamic3app17h34b7bfed0771d228E+0xc8>
   1272c:	00b9a223          	sw	a1,4(s3)
   12730:	4505                	li	a0,1
   12732:	00a98023          	sb	a0,0(s3)
   12736:	00e8                	addi	a0,sp,76
   12738:	00008097          	auipc	ra,0x8
   1273c:	342080e7          	jalr	834(ra) # 1aa7a <_ZN9allow_pin12full_dynamic17unshare_if_shared17hcb7d6c8e9042aa41E>
   12740:	850a                	mv	a0,sp
   12742:	00008097          	auipc	ra,0x8
   12746:	338080e7          	jalr	824(ra) # 1aa7a <_ZN9allow_pin12full_dynamic17unshare_if_shared17hcb7d6c8e9042aa41E>
   1274a:	40fa                	lw	ra,156(sp)
   1274c:	446a                	lw	s0,152(sp)
   1274e:	44da                	lw	s1,148(sp)
   12750:	494a                	lw	s2,144(sp)
   12752:	49ba                	lw	s3,140(sp)
   12754:	610d                	addi	sp,sp,160
   12756:	8082                	ret
   12758:	850a                	mv	a0,sp
   1275a:	00008097          	auipc	ra,0x8
   1275e:	320080e7          	jalr	800(ra) # 1aa7a <_ZN9allow_pin12full_dynamic17unshare_if_shared17hcb7d6c8e9042aa41E>
   12762:	00e8                	addi	a0,sp,76
   12764:	00008097          	auipc	ra,0x8
   12768:	316080e7          	jalr	790(ra) # 1aa7a <_ZN9allow_pin12full_dynamic17unshare_if_shared17hcb7d6c8e9042aa41E>
   1276c:	00e8                	addi	a0,sp,76
   1276e:	00008097          	auipc	ra,0x8
   12772:	30c080e7          	jalr	780(ra) # 1aa7a <_ZN9allow_pin12full_dynamic17unshare_if_shared17hcb7d6c8e9042aa41E>
   12776:	00198513          	addi	a0,s3,1
   1277a:	03100613          	li	a2,49
   1277e:	85ca                	mv	a1,s2
   12780:	00008097          	auipc	ra,0x8
   12784:	384080e7          	jalr	900(ra) # 1ab04 <memcpy>
   12788:	4501                	li	a0,0
   1278a:	b765                	j	12732 <_ZN20complex_full_dynamic3app17h34b7bfed0771d228E+0xa2>

0001278c <_ZN20complex_full_dynamic3app17h34ceccc6fa5097a3E>:
   1278c:	7135                	addi	sp,sp,-160
   1278e:	cf06                	sw	ra,156(sp)
   12790:	cd22                	sw	s0,152(sp)
   12792:	cb26                	sw	s1,148(sp)
   12794:	c94a                	sw	s2,144(sp)
   12796:	c74e                	sw	s3,140(sp)
   12798:	89aa                	mv	s3,a0
   1279a:	4409                	li	s0,2
   1279c:	00810823          	sb	s0,16(sp)
   127a0:	0844                	addi	s1,sp,20
   127a2:	464d                	li	a2,19
   127a4:	8526                	mv	a0,s1
   127a6:	00008097          	auipc	ra,0x8
   127aa:	35e080e7          	jalr	862(ra) # 1ab04 <memcpy>
   127ae:	03410913          	addi	s2,sp,52
   127b2:	05500613          	li	a2,85
   127b6:	854a                	mv	a0,s2
   127b8:	4581                	li	a1,0
   127ba:	00008097          	auipc	ra,0x8
   127be:	2de080e7          	jalr	734(ra) # 1aa98 <memset>
   127c2:	8626                	mv	a2,s1
   127c4:	02810823          	sb	s0,48(sp)
   127c8:	32e00793          	li	a5,814
   127cc:	44a5                	li	s1,9
   127ce:	4811                	li	a6,4
   127d0:	32e00513          	li	a0,814
   127d4:	45a5                	li	a1,9
   127d6:	46cd                	li	a3,19
   127d8:	4711                	li	a4,4
   127da:	00000073          	ecall
   127de:	04850563          	beq	a0,s0,12828 <_ZN20complex_full_dynamic3app17h34ceccc6fa5097a3E+0x9c>
   127e2:	864a                	mv	a2,s2
   127e4:	c43e                	sw	a5,8(sp)
   127e6:	c626                	sw	s1,12(sp)
   127e8:	01010823          	sb	a6,16(sp)
   127ec:	479d                	li	a5,7
   127ee:	448d                	li	s1,3
   127f0:	32e00513          	li	a0,814
   127f4:	459d                	li	a1,7
   127f6:	05500693          	li	a3,85
   127fa:	470d                	li	a4,3
   127fc:	00000073          	ecall
   12800:	02850463          	beq	a0,s0,12828 <_ZN20complex_full_dynamic3app17h34ceccc6fa5097a3E+0x9c>
   12804:	32e00693          	li	a3,814
   12808:	32e00513          	li	a0,814
   1280c:	45a5                	li	a1,9
   1280e:	461d                	li	a2,7
   12810:	4709                	li	a4,2
   12812:	07f00413          	li	s0,127
   12816:	d436                	sw	a3,40(sp)
   12818:	d63e                	sw	a5,44(sp)
   1281a:	02910823          	sb	s1,48(sp)
   1281e:	4681                	li	a3,0
   12820:	00000073          	ecall
   12824:	02a46863          	bltu	s0,a0,12854 <_ZN20complex_full_dynamic3app17h34ceccc6fa5097a3E+0xc8>
   12828:	00b9a223          	sw	a1,4(s3)
   1282c:	4505                	li	a0,1
   1282e:	00a98023          	sb	a0,0(s3)
   12832:	1028                	addi	a0,sp,40
   12834:	00008097          	auipc	ra,0x8
   12838:	246080e7          	jalr	582(ra) # 1aa7a <_ZN9allow_pin12full_dynamic17unshare_if_shared17hcb7d6c8e9042aa41E>
   1283c:	0028                	addi	a0,sp,8
   1283e:	00008097          	auipc	ra,0x8
   12842:	23c080e7          	jalr	572(ra) # 1aa7a <_ZN9allow_pin12full_dynamic17unshare_if_shared17hcb7d6c8e9042aa41E>
   12846:	40fa                	lw	ra,156(sp)
   12848:	446a                	lw	s0,152(sp)
   1284a:	44da                	lw	s1,148(sp)
   1284c:	494a                	lw	s2,144(sp)
   1284e:	49ba                	lw	s3,140(sp)
   12850:	610d                	addi	sp,sp,160
   12852:	8082                	ret
   12854:	0028                	addi	a0,sp,8
   12856:	00008097          	auipc	ra,0x8
   1285a:	224080e7          	jalr	548(ra) # 1aa7a <_ZN9allow_pin12full_dynamic17unshare_if_shared17hcb7d6c8e9042aa41E>
   1285e:	1028                	addi	a0,sp,40
   12860:	00008097          	auipc	ra,0x8
   12864:	21a080e7          	jalr	538(ra) # 1aa7a <_ZN9allow_pin12full_dynamic17unshare_if_shared17hcb7d6c8e9042aa41E>
   12868:	1028                	addi	a0,sp,40
   1286a:	00008097          	auipc	ra,0x8
   1286e:	210080e7          	jalr	528(ra) # 1aa7a <_ZN9allow_pin12full_dynamic17unshare_if_shared17hcb7d6c8e9042aa41E>
   12872:	00198513          	addi	a0,s3,1
   12876:	05500613          	li	a2,85
   1287a:	85ca                	mv	a1,s2
   1287c:	00008097          	auipc	ra,0x8
   12880:	288080e7          	jalr	648(ra) # 1ab04 <memcpy>
   12884:	4501                	li	a0,0
   12886:	b765                	j	1282e <_ZN20complex_full_dynamic3app17h34ceccc6fa5097a3E+0xa2>

00012888 <_ZN20complex_full_dynamic3app17h360419df2e685674E>:
   12888:	7171                	addi	sp,sp,-176
   1288a:	d706                	sw	ra,172(sp)
   1288c:	d522                	sw	s0,168(sp)
   1288e:	d326                	sw	s1,164(sp)
   12890:	d14a                	sw	s2,160(sp)
   12892:	cf4e                	sw	s3,156(sp)
   12894:	89aa                	mv	s3,a0
   12896:	4409                	li	s0,2
   12898:	00810423          	sb	s0,8(sp)
   1289c:	0064                	addi	s1,sp,12
   1289e:	02d00613          	li	a2,45
   128a2:	8526                	mv	a0,s1
   128a4:	00008097          	auipc	ra,0x8
   128a8:	260080e7          	jalr	608(ra) # 1ab04 <memcpy>
   128ac:	04810913          	addi	s2,sp,72
   128b0:	05300613          	li	a2,83
   128b4:	854a                	mv	a0,s2
   128b6:	4581                	li	a1,0
   128b8:	00008097          	auipc	ra,0x8
   128bc:	1e0080e7          	jalr	480(ra) # 1aa98 <memset>
   128c0:	8626                	mv	a2,s1
   128c2:	04810223          	sb	s0,68(sp)
   128c6:	6505                	lui	a0,0x1
   128c8:	4491                	li	s1,4
   128ca:	4589                	li	a1,2
   128cc:	ec350793          	addi	a5,a0,-317 # ec3 <.Lline_table_start1+0xc98>
   128d0:	02d00693          	li	a3,45
   128d4:	4711                	li	a4,4
   128d6:	853e                	mv	a0,a5
   128d8:	00000073          	ecall
   128dc:	04850363          	beq	a0,s0,12922 <_ZN20complex_full_dynamic3app17h360419df2e685674E+0x9a>
   128e0:	853e                	mv	a0,a5
   128e2:	864a                	mv	a2,s2
   128e4:	c03e                	sw	a5,0(sp)
   128e6:	c222                	sw	s0,4(sp)
   128e8:	00910423          	sb	s1,8(sp)
   128ec:	449d                	li	s1,7
   128ee:	480d                	li	a6,3
   128f0:	459d                	li	a1,7
   128f2:	05300693          	li	a3,83
   128f6:	470d                	li	a4,3
   128f8:	00000073          	ecall
   128fc:	02850363          	beq	a0,s0,12922 <_ZN20complex_full_dynamic3app17h360419df2e685674E+0x9a>
   12900:	de3e                	sw	a5,60(sp)
   12902:	c0a6                	sw	s1,64(sp)
   12904:	05010223          	sb	a6,68(sp)
   12908:	6505                	lui	a0,0x1
   1290a:	4589                	li	a1,2
   1290c:	461d                	li	a2,7
   1290e:	ec350513          	addi	a0,a0,-317 # ec3 <.Lline_table_start1+0xc98>
   12912:	4709                	li	a4,2
   12914:	07f00793          	li	a5,127
   12918:	4681                	li	a3,0
   1291a:	00000073          	ecall
   1291e:	02a7e863          	bltu	a5,a0,1294e <_ZN20complex_full_dynamic3app17h360419df2e685674E+0xc6>
   12922:	00b9a223          	sw	a1,4(s3)
   12926:	4505                	li	a0,1
   12928:	00a98023          	sb	a0,0(s3)
   1292c:	1868                	addi	a0,sp,60
   1292e:	00008097          	auipc	ra,0x8
   12932:	14c080e7          	jalr	332(ra) # 1aa7a <_ZN9allow_pin12full_dynamic17unshare_if_shared17hcb7d6c8e9042aa41E>
   12936:	850a                	mv	a0,sp
   12938:	00008097          	auipc	ra,0x8
   1293c:	142080e7          	jalr	322(ra) # 1aa7a <_ZN9allow_pin12full_dynamic17unshare_if_shared17hcb7d6c8e9042aa41E>
   12940:	50ba                	lw	ra,172(sp)
   12942:	542a                	lw	s0,168(sp)
   12944:	549a                	lw	s1,164(sp)
   12946:	590a                	lw	s2,160(sp)
   12948:	49fa                	lw	s3,156(sp)
   1294a:	614d                	addi	sp,sp,176
   1294c:	8082                	ret
   1294e:	850a                	mv	a0,sp
   12950:	00008097          	auipc	ra,0x8
   12954:	12a080e7          	jalr	298(ra) # 1aa7a <_ZN9allow_pin12full_dynamic17unshare_if_shared17hcb7d6c8e9042aa41E>
   12958:	1868                	addi	a0,sp,60
   1295a:	00008097          	auipc	ra,0x8
   1295e:	120080e7          	jalr	288(ra) # 1aa7a <_ZN9allow_pin12full_dynamic17unshare_if_shared17hcb7d6c8e9042aa41E>
   12962:	1868                	addi	a0,sp,60
   12964:	00008097          	auipc	ra,0x8
   12968:	116080e7          	jalr	278(ra) # 1aa7a <_ZN9allow_pin12full_dynamic17unshare_if_shared17hcb7d6c8e9042aa41E>
   1296c:	00198513          	addi	a0,s3,1
   12970:	05300613          	li	a2,83
   12974:	85ca                	mv	a1,s2
   12976:	00008097          	auipc	ra,0x8
   1297a:	18e080e7          	jalr	398(ra) # 1ab04 <memcpy>
   1297e:	4501                	li	a0,0
   12980:	b765                	j	12928 <_ZN20complex_full_dynamic3app17h360419df2e685674E+0xa0>

00012982 <_ZN20complex_full_dynamic3app17h373ec9782e631a79E>:
   12982:	7159                	addi	sp,sp,-112
   12984:	d686                	sw	ra,108(sp)
   12986:	d4a2                	sw	s0,104(sp)
   12988:	d2a6                	sw	s1,100(sp)
   1298a:	d0ca                	sw	s2,96(sp)
   1298c:	cece                	sw	s3,92(sp)
   1298e:	89aa                	mv	s3,a0
   12990:	4409                	li	s0,2
   12992:	00810823          	sb	s0,16(sp)
   12996:	0844                	addi	s1,sp,20
   12998:	02700613          	li	a2,39
   1299c:	8526                	mv	a0,s1
   1299e:	00008097          	auipc	ra,0x8
   129a2:	166080e7          	jalr	358(ra) # 1ab04 <memcpy>
   129a6:	04810913          	addi	s2,sp,72
   129aa:	4651                	li	a2,20
   129ac:	854a                	mv	a0,s2
   129ae:	4581                	li	a1,0
   129b0:	00008097          	auipc	ra,0x8
   129b4:	0e8080e7          	jalr	232(ra) # 1aa98 <memset>
   129b8:	8626                	mv	a2,s1
   129ba:	04810223          	sb	s0,68(sp)
   129be:	6509                	lui	a0,0x2
   129c0:	4499                	li	s1,6
   129c2:	4811                	li	a6,4
   129c4:	4599                	li	a1,6
   129c6:	2c950793          	addi	a5,a0,713 # 22c9 <.Lline_table_start1+0x209e>
   129ca:	02700693          	li	a3,39
   129ce:	4711                	li	a4,4
   129d0:	853e                	mv	a0,a5
   129d2:	00000073          	ecall
   129d6:	04850263          	beq	a0,s0,12a1a <_ZN20complex_full_dynamic3app17h373ec9782e631a79E+0x98>
   129da:	853e                	mv	a0,a5
   129dc:	864a                	mv	a2,s2
   129de:	c43e                	sw	a5,8(sp)
   129e0:	c626                	sw	s1,12(sp)
   129e2:	01010823          	sb	a6,16(sp)
   129e6:	4495                	li	s1,5
   129e8:	480d                	li	a6,3
   129ea:	4595                	li	a1,5
   129ec:	46d1                	li	a3,20
   129ee:	470d                	li	a4,3
   129f0:	00000073          	ecall
   129f4:	02850363          	beq	a0,s0,12a1a <_ZN20complex_full_dynamic3app17h373ec9782e631a79E+0x98>
   129f8:	de3e                	sw	a5,60(sp)
   129fa:	c0a6                	sw	s1,64(sp)
   129fc:	05010223          	sb	a6,68(sp)
   12a00:	6509                	lui	a0,0x2
   12a02:	4599                	li	a1,6
   12a04:	4615                	li	a2,5
   12a06:	2c950513          	addi	a0,a0,713 # 22c9 <.Lline_table_start1+0x209e>
   12a0a:	4709                	li	a4,2
   12a0c:	07f00793          	li	a5,127
   12a10:	4681                	li	a3,0
   12a12:	00000073          	ecall
   12a16:	02a7e863          	bltu	a5,a0,12a46 <_ZN20complex_full_dynamic3app17h373ec9782e631a79E+0xc4>
   12a1a:	00b9a223          	sw	a1,4(s3)
   12a1e:	4505                	li	a0,1
   12a20:	00a98023          	sb	a0,0(s3)
   12a24:	1868                	addi	a0,sp,60
   12a26:	00008097          	auipc	ra,0x8
   12a2a:	054080e7          	jalr	84(ra) # 1aa7a <_ZN9allow_pin12full_dynamic17unshare_if_shared17hcb7d6c8e9042aa41E>
   12a2e:	0028                	addi	a0,sp,8
   12a30:	00008097          	auipc	ra,0x8
   12a34:	04a080e7          	jalr	74(ra) # 1aa7a <_ZN9allow_pin12full_dynamic17unshare_if_shared17hcb7d6c8e9042aa41E>
   12a38:	50b6                	lw	ra,108(sp)
   12a3a:	5426                	lw	s0,104(sp)
   12a3c:	5496                	lw	s1,100(sp)
   12a3e:	5906                	lw	s2,96(sp)
   12a40:	49f6                	lw	s3,92(sp)
   12a42:	6165                	addi	sp,sp,112
   12a44:	8082                	ret
   12a46:	0028                	addi	a0,sp,8
   12a48:	00008097          	auipc	ra,0x8
   12a4c:	032080e7          	jalr	50(ra) # 1aa7a <_ZN9allow_pin12full_dynamic17unshare_if_shared17hcb7d6c8e9042aa41E>
   12a50:	1868                	addi	a0,sp,60
   12a52:	00008097          	auipc	ra,0x8
   12a56:	028080e7          	jalr	40(ra) # 1aa7a <_ZN9allow_pin12full_dynamic17unshare_if_shared17hcb7d6c8e9042aa41E>
   12a5a:	1868                	addi	a0,sp,60
   12a5c:	00008097          	auipc	ra,0x8
   12a60:	01e080e7          	jalr	30(ra) # 1aa7a <_ZN9allow_pin12full_dynamic17unshare_if_shared17hcb7d6c8e9042aa41E>
   12a64:	00198513          	addi	a0,s3,1
   12a68:	4651                	li	a2,20
   12a6a:	85ca                	mv	a1,s2
   12a6c:	00008097          	auipc	ra,0x8
   12a70:	098080e7          	jalr	152(ra) # 1ab04 <memcpy>
   12a74:	4501                	li	a0,0
   12a76:	b76d                	j	12a20 <_ZN20complex_full_dynamic3app17h373ec9782e631a79E+0x9e>

00012a78 <_ZN20complex_full_dynamic3app17h3ea82ff5fa2b4556E>:
   12a78:	7171                	addi	sp,sp,-176
   12a7a:	d706                	sw	ra,172(sp)
   12a7c:	d522                	sw	s0,168(sp)
   12a7e:	d326                	sw	s1,164(sp)
   12a80:	d14a                	sw	s2,160(sp)
   12a82:	cf4e                	sw	s3,156(sp)
   12a84:	89aa                	mv	s3,a0
   12a86:	4409                	li	s0,2
   12a88:	00810a23          	sb	s0,20(sp)
   12a8c:	0824                	addi	s1,sp,24
   12a8e:	03500613          	li	a2,53
   12a92:	8526                	mv	a0,s1
   12a94:	00008097          	auipc	ra,0x8
   12a98:	070080e7          	jalr	112(ra) # 1ab04 <memcpy>
   12a9c:	05c10913          	addi	s2,sp,92
   12aa0:	03f00613          	li	a2,63
   12aa4:	854a                	mv	a0,s2
   12aa6:	4581                	li	a1,0
   12aa8:	00008097          	auipc	ra,0x8
   12aac:	ff0080e7          	jalr	-16(ra) # 1aa98 <memset>
   12ab0:	4581                	li	a1,0
   12ab2:	8626                	mv	a2,s1
   12ab4:	04810c23          	sb	s0,88(sp)
   12ab8:	6505                	lui	a0,0x1
   12aba:	4491                	li	s1,4
   12abc:	e5750793          	addi	a5,a0,-425 # e57 <.Lline_table_start1+0xc2c>
   12ac0:	03500693          	li	a3,53
   12ac4:	4711                	li	a4,4
   12ac6:	853e                	mv	a0,a5
   12ac8:	00000073          	ecall
   12acc:	04850263          	beq	a0,s0,12b10 <_ZN20complex_full_dynamic3app17h3ea82ff5fa2b4556E+0x98>
   12ad0:	853e                	mv	a0,a5
   12ad2:	864a                	mv	a2,s2
   12ad4:	c63e                	sw	a5,12(sp)
   12ad6:	c802                	sw	zero,16(sp)
   12ad8:	00910a23          	sb	s1,20(sp)
   12adc:	448d                	li	s1,3
   12ade:	458d                	li	a1,3
   12ae0:	03f00693          	li	a3,63
   12ae4:	470d                	li	a4,3
   12ae6:	00000073          	ecall
   12aea:	02850363          	beq	a0,s0,12b10 <_ZN20complex_full_dynamic3app17h3ea82ff5fa2b4556E+0x98>
   12aee:	c8be                	sw	a5,80(sp)
   12af0:	caa6                	sw	s1,84(sp)
   12af2:	04910c23          	sb	s1,88(sp)
   12af6:	6505                	lui	a0,0x1
   12af8:	460d                	li	a2,3
   12afa:	e5750513          	addi	a0,a0,-425 # e57 <.Lline_table_start1+0xc2c>
   12afe:	4709                	li	a4,2
   12b00:	07f00793          	li	a5,127
   12b04:	4581                	li	a1,0
   12b06:	4681                	li	a3,0
   12b08:	00000073          	ecall
   12b0c:	02a7e863          	bltu	a5,a0,12b3c <_ZN20complex_full_dynamic3app17h3ea82ff5fa2b4556E+0xc4>
   12b10:	00b9a223          	sw	a1,4(s3)
   12b14:	4505                	li	a0,1
   12b16:	00a98023          	sb	a0,0(s3)
   12b1a:	0888                	addi	a0,sp,80
   12b1c:	00008097          	auipc	ra,0x8
   12b20:	f5e080e7          	jalr	-162(ra) # 1aa7a <_ZN9allow_pin12full_dynamic17unshare_if_shared17hcb7d6c8e9042aa41E>
   12b24:	0068                	addi	a0,sp,12
   12b26:	00008097          	auipc	ra,0x8
   12b2a:	f54080e7          	jalr	-172(ra) # 1aa7a <_ZN9allow_pin12full_dynamic17unshare_if_shared17hcb7d6c8e9042aa41E>
   12b2e:	50ba                	lw	ra,172(sp)
   12b30:	542a                	lw	s0,168(sp)
   12b32:	549a                	lw	s1,164(sp)
   12b34:	590a                	lw	s2,160(sp)
   12b36:	49fa                	lw	s3,156(sp)
   12b38:	614d                	addi	sp,sp,176
   12b3a:	8082                	ret
   12b3c:	0068                	addi	a0,sp,12
   12b3e:	00008097          	auipc	ra,0x8
   12b42:	f3c080e7          	jalr	-196(ra) # 1aa7a <_ZN9allow_pin12full_dynamic17unshare_if_shared17hcb7d6c8e9042aa41E>
   12b46:	0888                	addi	a0,sp,80
   12b48:	00008097          	auipc	ra,0x8
   12b4c:	f32080e7          	jalr	-206(ra) # 1aa7a <_ZN9allow_pin12full_dynamic17unshare_if_shared17hcb7d6c8e9042aa41E>
   12b50:	0888                	addi	a0,sp,80
   12b52:	00008097          	auipc	ra,0x8
   12b56:	f28080e7          	jalr	-216(ra) # 1aa7a <_ZN9allow_pin12full_dynamic17unshare_if_shared17hcb7d6c8e9042aa41E>
   12b5a:	00198513          	addi	a0,s3,1
   12b5e:	03f00613          	li	a2,63
   12b62:	85ca                	mv	a1,s2
   12b64:	00008097          	auipc	ra,0x8
   12b68:	fa0080e7          	jalr	-96(ra) # 1ab04 <memcpy>
   12b6c:	4501                	li	a0,0
   12b6e:	b765                	j	12b16 <_ZN20complex_full_dynamic3app17h3ea82ff5fa2b4556E+0x9e>

00012b70 <_ZN20complex_full_dynamic3app17h41c0715f01450bc8E>:
   12b70:	7171                	addi	sp,sp,-176
   12b72:	d706                	sw	ra,172(sp)
   12b74:	d522                	sw	s0,168(sp)
   12b76:	d326                	sw	s1,164(sp)
   12b78:	d14a                	sw	s2,160(sp)
   12b7a:	cf4e                	sw	s3,156(sp)
   12b7c:	89aa                	mv	s3,a0
   12b7e:	4409                	li	s0,2
   12b80:	00810a23          	sb	s0,20(sp)
   12b84:	0824                	addi	s1,sp,24
   12b86:	02700613          	li	a2,39
   12b8a:	8526                	mv	a0,s1
   12b8c:	00008097          	auipc	ra,0x8
   12b90:	f78080e7          	jalr	-136(ra) # 1ab04 <memcpy>
   12b94:	04c10913          	addi	s2,sp,76
   12b98:	04f00613          	li	a2,79
   12b9c:	854a                	mv	a0,s2
   12b9e:	4581                	li	a1,0
   12ba0:	00008097          	auipc	ra,0x8
   12ba4:	ef8080e7          	jalr	-264(ra) # 1aa98 <memset>
   12ba8:	8626                	mv	a2,s1
   12baa:	04810423          	sb	s0,72(sp)
   12bae:	6505                	lui	a0,0x1
   12bb0:	44a5                	li	s1,9
   12bb2:	4811                	li	a6,4
   12bb4:	45a5                	li	a1,9
   12bb6:	b4c50793          	addi	a5,a0,-1204 # b4c <.Lline_table_start1+0x921>
   12bba:	02700693          	li	a3,39
   12bbe:	4711                	li	a4,4
   12bc0:	853e                	mv	a0,a5
   12bc2:	00000073          	ecall
   12bc6:	04850263          	beq	a0,s0,12c0a <_ZN20complex_full_dynamic3app17h41c0715f01450bc8E+0x9a>
   12bca:	853e                	mv	a0,a5
   12bcc:	4581                	li	a1,0
   12bce:	864a                	mv	a2,s2
   12bd0:	c63e                	sw	a5,12(sp)
   12bd2:	c826                	sw	s1,16(sp)
   12bd4:	01010a23          	sb	a6,20(sp)
   12bd8:	448d                	li	s1,3
   12bda:	04f00693          	li	a3,79
   12bde:	470d                	li	a4,3
   12be0:	00000073          	ecall
   12be4:	02850363          	beq	a0,s0,12c0a <_ZN20complex_full_dynamic3app17h41c0715f01450bc8E+0x9a>
   12be8:	c0be                	sw	a5,64(sp)
   12bea:	c282                	sw	zero,68(sp)
   12bec:	04910423          	sb	s1,72(sp)
   12bf0:	6505                	lui	a0,0x1
   12bf2:	45a5                	li	a1,9
   12bf4:	b4c50513          	addi	a0,a0,-1204 # b4c <.Lline_table_start1+0x921>
   12bf8:	4709                	li	a4,2
   12bfa:	07f00793          	li	a5,127
   12bfe:	4601                	li	a2,0
   12c00:	4681                	li	a3,0
   12c02:	00000073          	ecall
   12c06:	02a7e863          	bltu	a5,a0,12c36 <_ZN20complex_full_dynamic3app17h41c0715f01450bc8E+0xc6>
   12c0a:	00b9a223          	sw	a1,4(s3)
   12c0e:	4505                	li	a0,1
   12c10:	00a98023          	sb	a0,0(s3)
   12c14:	0088                	addi	a0,sp,64
   12c16:	00008097          	auipc	ra,0x8
   12c1a:	e64080e7          	jalr	-412(ra) # 1aa7a <_ZN9allow_pin12full_dynamic17unshare_if_shared17hcb7d6c8e9042aa41E>
   12c1e:	0068                	addi	a0,sp,12
   12c20:	00008097          	auipc	ra,0x8
   12c24:	e5a080e7          	jalr	-422(ra) # 1aa7a <_ZN9allow_pin12full_dynamic17unshare_if_shared17hcb7d6c8e9042aa41E>
   12c28:	50ba                	lw	ra,172(sp)
   12c2a:	542a                	lw	s0,168(sp)
   12c2c:	549a                	lw	s1,164(sp)
   12c2e:	590a                	lw	s2,160(sp)
   12c30:	49fa                	lw	s3,156(sp)
   12c32:	614d                	addi	sp,sp,176
   12c34:	8082                	ret
   12c36:	0068                	addi	a0,sp,12
   12c38:	00008097          	auipc	ra,0x8
   12c3c:	e42080e7          	jalr	-446(ra) # 1aa7a <_ZN9allow_pin12full_dynamic17unshare_if_shared17hcb7d6c8e9042aa41E>
   12c40:	0088                	addi	a0,sp,64
   12c42:	00008097          	auipc	ra,0x8
   12c46:	e38080e7          	jalr	-456(ra) # 1aa7a <_ZN9allow_pin12full_dynamic17unshare_if_shared17hcb7d6c8e9042aa41E>
   12c4a:	0088                	addi	a0,sp,64
   12c4c:	00008097          	auipc	ra,0x8
   12c50:	e2e080e7          	jalr	-466(ra) # 1aa7a <_ZN9allow_pin12full_dynamic17unshare_if_shared17hcb7d6c8e9042aa41E>
   12c54:	00198513          	addi	a0,s3,1
   12c58:	04f00613          	li	a2,79
   12c5c:	85ca                	mv	a1,s2
   12c5e:	00008097          	auipc	ra,0x8
   12c62:	ea6080e7          	jalr	-346(ra) # 1ab04 <memcpy>
   12c66:	4501                	li	a0,0
   12c68:	b765                	j	12c10 <_ZN20complex_full_dynamic3app17h41c0715f01450bc8E+0xa0>

00012c6a <_ZN20complex_full_dynamic3app17h49ef72ea277420f4E>:
   12c6a:	7175                	addi	sp,sp,-144
   12c6c:	c706                	sw	ra,140(sp)
   12c6e:	c522                	sw	s0,136(sp)
   12c70:	c326                	sw	s1,132(sp)
   12c72:	c14a                	sw	s2,128(sp)
   12c74:	dece                	sw	s3,124(sp)
   12c76:	89aa                	mv	s3,a0
   12c78:	4409                	li	s0,2
   12c7a:	00810423          	sb	s0,8(sp)
   12c7e:	0064                	addi	s1,sp,12
   12c80:	4645                	li	a2,17
   12c82:	8526                	mv	a0,s1
   12c84:	00008097          	auipc	ra,0x8
   12c88:	e80080e7          	jalr	-384(ra) # 1ab04 <memcpy>
   12c8c:	02c10913          	addi	s2,sp,44
   12c90:	05000613          	li	a2,80
   12c94:	854a                	mv	a0,s2
   12c96:	4581                	li	a1,0
   12c98:	00008097          	auipc	ra,0x8
   12c9c:	e00080e7          	jalr	-512(ra) # 1aa98 <memset>
   12ca0:	8626                	mv	a2,s1
   12ca2:	02810423          	sb	s0,40(sp)
   12ca6:	6509                	lui	a0,0x2
   12ca8:	4499                	li	s1,6
   12caa:	4811                	li	a6,4
   12cac:	4599                	li	a1,6
   12cae:	aa950793          	addi	a5,a0,-1367 # 1aa9 <.Lline_table_start1+0x187e>
   12cb2:	46c5                	li	a3,17
   12cb4:	4711                	li	a4,4
   12cb6:	853e                	mv	a0,a5
   12cb8:	00000073          	ecall
   12cbc:	04850363          	beq	a0,s0,12d02 <_ZN20complex_full_dynamic3app17h49ef72ea277420f4E+0x98>
   12cc0:	853e                	mv	a0,a5
   12cc2:	864a                	mv	a2,s2
   12cc4:	c03e                	sw	a5,0(sp)
   12cc6:	c226                	sw	s1,4(sp)
   12cc8:	01010423          	sb	a6,8(sp)
   12ccc:	4495                	li	s1,5
   12cce:	480d                	li	a6,3
   12cd0:	4595                	li	a1,5
   12cd2:	05000693          	li	a3,80
   12cd6:	470d                	li	a4,3
   12cd8:	00000073          	ecall
   12cdc:	02850363          	beq	a0,s0,12d02 <_ZN20complex_full_dynamic3app17h49ef72ea277420f4E+0x98>
   12ce0:	d03e                	sw	a5,32(sp)
   12ce2:	d226                	sw	s1,36(sp)
   12ce4:	03010423          	sb	a6,40(sp)
   12ce8:	6509                	lui	a0,0x2
   12cea:	4599                	li	a1,6
   12cec:	4615                	li	a2,5
   12cee:	aa950513          	addi	a0,a0,-1367 # 1aa9 <.Lline_table_start1+0x187e>
   12cf2:	4709                	li	a4,2
   12cf4:	07f00793          	li	a5,127
   12cf8:	4681                	li	a3,0
   12cfa:	00000073          	ecall
   12cfe:	02a7e863          	bltu	a5,a0,12d2e <_ZN20complex_full_dynamic3app17h49ef72ea277420f4E+0xc4>
   12d02:	00b9a223          	sw	a1,4(s3)
   12d06:	4505                	li	a0,1
   12d08:	00a98023          	sb	a0,0(s3)
   12d0c:	1008                	addi	a0,sp,32
   12d0e:	00008097          	auipc	ra,0x8
   12d12:	d6c080e7          	jalr	-660(ra) # 1aa7a <_ZN9allow_pin12full_dynamic17unshare_if_shared17hcb7d6c8e9042aa41E>
   12d16:	850a                	mv	a0,sp
   12d18:	00008097          	auipc	ra,0x8
   12d1c:	d62080e7          	jalr	-670(ra) # 1aa7a <_ZN9allow_pin12full_dynamic17unshare_if_shared17hcb7d6c8e9042aa41E>
   12d20:	40ba                	lw	ra,140(sp)
   12d22:	442a                	lw	s0,136(sp)
   12d24:	449a                	lw	s1,132(sp)
   12d26:	490a                	lw	s2,128(sp)
   12d28:	59f6                	lw	s3,124(sp)
   12d2a:	6149                	addi	sp,sp,144
   12d2c:	8082                	ret
   12d2e:	850a                	mv	a0,sp
   12d30:	00008097          	auipc	ra,0x8
   12d34:	d4a080e7          	jalr	-694(ra) # 1aa7a <_ZN9allow_pin12full_dynamic17unshare_if_shared17hcb7d6c8e9042aa41E>
   12d38:	1008                	addi	a0,sp,32
   12d3a:	00008097          	auipc	ra,0x8
   12d3e:	d40080e7          	jalr	-704(ra) # 1aa7a <_ZN9allow_pin12full_dynamic17unshare_if_shared17hcb7d6c8e9042aa41E>
   12d42:	1008                	addi	a0,sp,32
   12d44:	00008097          	auipc	ra,0x8
   12d48:	d36080e7          	jalr	-714(ra) # 1aa7a <_ZN9allow_pin12full_dynamic17unshare_if_shared17hcb7d6c8e9042aa41E>
   12d4c:	00198513          	addi	a0,s3,1
   12d50:	05000613          	li	a2,80
   12d54:	85ca                	mv	a1,s2
   12d56:	00008097          	auipc	ra,0x8
   12d5a:	dae080e7          	jalr	-594(ra) # 1ab04 <memcpy>
   12d5e:	4501                	li	a0,0
   12d60:	b765                	j	12d08 <_ZN20complex_full_dynamic3app17h49ef72ea277420f4E+0x9e>

00012d62 <_ZN20complex_full_dynamic3app17h4c5d6066f1f72c1dE>:
   12d62:	7135                	addi	sp,sp,-160
   12d64:	cf06                	sw	ra,156(sp)
   12d66:	cd22                	sw	s0,152(sp)
   12d68:	cb26                	sw	s1,148(sp)
   12d6a:	c94a                	sw	s2,144(sp)
   12d6c:	c74e                	sw	s3,140(sp)
   12d6e:	89aa                	mv	s3,a0
   12d70:	4409                	li	s0,2
   12d72:	00810a23          	sb	s0,20(sp)
   12d76:	0824                	addi	s1,sp,24
   12d78:	04100613          	li	a2,65
   12d7c:	8526                	mv	a0,s1
   12d7e:	00008097          	auipc	ra,0x8
   12d82:	d86080e7          	jalr	-634(ra) # 1ab04 <memcpy>
   12d86:	06810913          	addi	s2,sp,104
   12d8a:	02200613          	li	a2,34
   12d8e:	854a                	mv	a0,s2
   12d90:	4581                	li	a1,0
   12d92:	00008097          	auipc	ra,0x8
   12d96:	d06080e7          	jalr	-762(ra) # 1aa98 <memset>
   12d9a:	8626                	mv	a2,s1
   12d9c:	06810223          	sb	s0,100(sp)
   12da0:	6509                	lui	a0,0x2
   12da2:	4485                	li	s1,1
   12da4:	4811                	li	a6,4
   12da6:	4585                	li	a1,1
   12da8:	47c50793          	addi	a5,a0,1148 # 247c <.Lline_table_start1+0x2251>
   12dac:	04100693          	li	a3,65
   12db0:	4711                	li	a4,4
   12db2:	853e                	mv	a0,a5
   12db4:	00000073          	ecall
   12db8:	04850263          	beq	a0,s0,12dfc <_ZN20complex_full_dynamic3app17h4c5d6066f1f72c1dE+0x9a>
   12dbc:	853e                	mv	a0,a5
   12dbe:	4581                	li	a1,0
   12dc0:	864a                	mv	a2,s2
   12dc2:	c63e                	sw	a5,12(sp)
   12dc4:	c826                	sw	s1,16(sp)
   12dc6:	01010a23          	sb	a6,20(sp)
   12dca:	448d                	li	s1,3
   12dcc:	02200693          	li	a3,34
   12dd0:	470d                	li	a4,3
   12dd2:	00000073          	ecall
   12dd6:	02850363          	beq	a0,s0,12dfc <_ZN20complex_full_dynamic3app17h4c5d6066f1f72c1dE+0x9a>
   12dda:	cebe                	sw	a5,92(sp)
   12ddc:	d082                	sw	zero,96(sp)
   12dde:	06910223          	sb	s1,100(sp)
   12de2:	6509                	lui	a0,0x2
   12de4:	4585                	li	a1,1
   12de6:	47c50513          	addi	a0,a0,1148 # 247c <.Lline_table_start1+0x2251>
   12dea:	4709                	li	a4,2
   12dec:	07f00793          	li	a5,127
   12df0:	4601                	li	a2,0
   12df2:	4681                	li	a3,0
   12df4:	00000073          	ecall
   12df8:	02a7e863          	bltu	a5,a0,12e28 <_ZN20complex_full_dynamic3app17h4c5d6066f1f72c1dE+0xc6>
   12dfc:	00b9a223          	sw	a1,4(s3)
   12e00:	4505                	li	a0,1
   12e02:	00a98023          	sb	a0,0(s3)
   12e06:	08e8                	addi	a0,sp,92
   12e08:	00008097          	auipc	ra,0x8
   12e0c:	c72080e7          	jalr	-910(ra) # 1aa7a <_ZN9allow_pin12full_dynamic17unshare_if_shared17hcb7d6c8e9042aa41E>
   12e10:	0068                	addi	a0,sp,12
   12e12:	00008097          	auipc	ra,0x8
   12e16:	c68080e7          	jalr	-920(ra) # 1aa7a <_ZN9allow_pin12full_dynamic17unshare_if_shared17hcb7d6c8e9042aa41E>
   12e1a:	40fa                	lw	ra,156(sp)
   12e1c:	446a                	lw	s0,152(sp)
   12e1e:	44da                	lw	s1,148(sp)
   12e20:	494a                	lw	s2,144(sp)
   12e22:	49ba                	lw	s3,140(sp)
   12e24:	610d                	addi	sp,sp,160
   12e26:	8082                	ret
   12e28:	0068                	addi	a0,sp,12
   12e2a:	00008097          	auipc	ra,0x8
   12e2e:	c50080e7          	jalr	-944(ra) # 1aa7a <_ZN9allow_pin12full_dynamic17unshare_if_shared17hcb7d6c8e9042aa41E>
   12e32:	08e8                	addi	a0,sp,92
   12e34:	00008097          	auipc	ra,0x8
   12e38:	c46080e7          	jalr	-954(ra) # 1aa7a <_ZN9allow_pin12full_dynamic17unshare_if_shared17hcb7d6c8e9042aa41E>
   12e3c:	08e8                	addi	a0,sp,92
   12e3e:	00008097          	auipc	ra,0x8
   12e42:	c3c080e7          	jalr	-964(ra) # 1aa7a <_ZN9allow_pin12full_dynamic17unshare_if_shared17hcb7d6c8e9042aa41E>
   12e46:	00198513          	addi	a0,s3,1
   12e4a:	02200613          	li	a2,34
   12e4e:	85ca                	mv	a1,s2
   12e50:	00008097          	auipc	ra,0x8
   12e54:	cb4080e7          	jalr	-844(ra) # 1ab04 <memcpy>
   12e58:	4501                	li	a0,0
   12e5a:	b765                	j	12e02 <_ZN20complex_full_dynamic3app17h4c5d6066f1f72c1dE+0xa0>

00012e5c <_ZN20complex_full_dynamic3app17h4fb66bd441759f26E>:
   12e5c:	7119                	addi	sp,sp,-128
   12e5e:	de86                	sw	ra,124(sp)
   12e60:	dca2                	sw	s0,120(sp)
   12e62:	daa6                	sw	s1,116(sp)
   12e64:	d8ca                	sw	s2,112(sp)
   12e66:	d6ce                	sw	s3,108(sp)
   12e68:	89aa                	mv	s3,a0
   12e6a:	4409                	li	s0,2
   12e6c:	00810623          	sb	s0,12(sp)
   12e70:	0804                	addi	s1,sp,16
   12e72:	03400613          	li	a2,52
   12e76:	8526                	mv	a0,s1
   12e78:	00008097          	auipc	ra,0x8
   12e7c:	c8c080e7          	jalr	-884(ra) # 1ab04 <memcpy>
   12e80:	05010913          	addi	s2,sp,80
   12e84:	4669                	li	a2,26
   12e86:	854a                	mv	a0,s2
   12e88:	4581                	li	a1,0
   12e8a:	00008097          	auipc	ra,0x8
   12e8e:	c0e080e7          	jalr	-1010(ra) # 1aa98 <memset>
   12e92:	4581                	li	a1,0
   12e94:	8626                	mv	a2,s1
   12e96:	04810623          	sb	s0,76(sp)
   12e9a:	6505                	lui	a0,0x1
   12e9c:	4491                	li	s1,4
   12e9e:	2cc50793          	addi	a5,a0,716 # 12cc <.Lline_table_start1+0x10a1>
   12ea2:	03400693          	li	a3,52
   12ea6:	4711                	li	a4,4
   12ea8:	853e                	mv	a0,a5
   12eaa:	00000073          	ecall
   12eae:	04850263          	beq	a0,s0,12ef2 <_ZN20complex_full_dynamic3app17h4fb66bd441759f26E+0x96>
   12eb2:	853e                	mv	a0,a5
   12eb4:	864a                	mv	a2,s2
   12eb6:	c23e                	sw	a5,4(sp)
   12eb8:	c402                	sw	zero,8(sp)
   12eba:	00910623          	sb	s1,12(sp)
   12ebe:	4495                	li	s1,5
   12ec0:	480d                	li	a6,3
   12ec2:	4595                	li	a1,5
   12ec4:	46e9                	li	a3,26
   12ec6:	470d                	li	a4,3
   12ec8:	00000073          	ecall
   12ecc:	02850363          	beq	a0,s0,12ef2 <_ZN20complex_full_dynamic3app17h4fb66bd441759f26E+0x96>
   12ed0:	c2be                	sw	a5,68(sp)
   12ed2:	c4a6                	sw	s1,72(sp)
   12ed4:	05010623          	sb	a6,76(sp)
   12ed8:	6505                	lui	a0,0x1
   12eda:	4615                	li	a2,5
   12edc:	2cc50513          	addi	a0,a0,716 # 12cc <.Lline_table_start1+0x10a1>
   12ee0:	4709                	li	a4,2
   12ee2:	07f00793          	li	a5,127
   12ee6:	4581                	li	a1,0
   12ee8:	4681                	li	a3,0
   12eea:	00000073          	ecall
   12eee:	02a7e863          	bltu	a5,a0,12f1e <_ZN20complex_full_dynamic3app17h4fb66bd441759f26E+0xc2>
   12ef2:	00b9a223          	sw	a1,4(s3)
   12ef6:	4505                	li	a0,1
   12ef8:	00a98023          	sb	a0,0(s3)
   12efc:	00c8                	addi	a0,sp,68
   12efe:	00008097          	auipc	ra,0x8
   12f02:	b7c080e7          	jalr	-1156(ra) # 1aa7a <_ZN9allow_pin12full_dynamic17unshare_if_shared17hcb7d6c8e9042aa41E>
   12f06:	0048                	addi	a0,sp,4
   12f08:	00008097          	auipc	ra,0x8
   12f0c:	b72080e7          	jalr	-1166(ra) # 1aa7a <_ZN9allow_pin12full_dynamic17unshare_if_shared17hcb7d6c8e9042aa41E>
   12f10:	50f6                	lw	ra,124(sp)
   12f12:	5466                	lw	s0,120(sp)
   12f14:	54d6                	lw	s1,116(sp)
   12f16:	5946                	lw	s2,112(sp)
   12f18:	59b6                	lw	s3,108(sp)
   12f1a:	6109                	addi	sp,sp,128
   12f1c:	8082                	ret
   12f1e:	0048                	addi	a0,sp,4
   12f20:	00008097          	auipc	ra,0x8
   12f24:	b5a080e7          	jalr	-1190(ra) # 1aa7a <_ZN9allow_pin12full_dynamic17unshare_if_shared17hcb7d6c8e9042aa41E>
   12f28:	00c8                	addi	a0,sp,68
   12f2a:	00008097          	auipc	ra,0x8
   12f2e:	b50080e7          	jalr	-1200(ra) # 1aa7a <_ZN9allow_pin12full_dynamic17unshare_if_shared17hcb7d6c8e9042aa41E>
   12f32:	00c8                	addi	a0,sp,68
   12f34:	00008097          	auipc	ra,0x8
   12f38:	b46080e7          	jalr	-1210(ra) # 1aa7a <_ZN9allow_pin12full_dynamic17unshare_if_shared17hcb7d6c8e9042aa41E>
   12f3c:	00198513          	addi	a0,s3,1
   12f40:	4669                	li	a2,26
   12f42:	85ca                	mv	a1,s2
   12f44:	00008097          	auipc	ra,0x8
   12f48:	bc0080e7          	jalr	-1088(ra) # 1ab04 <memcpy>
   12f4c:	4501                	li	a0,0
   12f4e:	b76d                	j	12ef8 <_ZN20complex_full_dynamic3app17h4fb66bd441759f26E+0x9c>

00012f50 <_ZN20complex_full_dynamic3app17h53ac7203f67850dcE>:
   12f50:	7135                	addi	sp,sp,-160
   12f52:	cf06                	sw	ra,156(sp)
   12f54:	cd22                	sw	s0,152(sp)
   12f56:	cb26                	sw	s1,148(sp)
   12f58:	c94a                	sw	s2,144(sp)
   12f5a:	c74e                	sw	s3,140(sp)
   12f5c:	89aa                	mv	s3,a0
   12f5e:	4409                	li	s0,2
   12f60:	00810823          	sb	s0,16(sp)
   12f64:	0844                	addi	s1,sp,20
   12f66:	05500613          	li	a2,85
   12f6a:	8526                	mv	a0,s1
   12f6c:	00008097          	auipc	ra,0x8
   12f70:	b98080e7          	jalr	-1128(ra) # 1ab04 <memcpy>
   12f74:	07810913          	addi	s2,sp,120
   12f78:	4645                	li	a2,17
   12f7a:	854a                	mv	a0,s2
   12f7c:	4581                	li	a1,0
   12f7e:	00008097          	auipc	ra,0x8
   12f82:	b1a080e7          	jalr	-1254(ra) # 1aa98 <memset>
   12f86:	8626                	mv	a2,s1
   12f88:	06810a23          	sb	s0,116(sp)
   12f8c:	6505                	lui	a0,0x1
   12f8e:	4491                	li	s1,4
   12f90:	4589                	li	a1,2
   12f92:	c8950793          	addi	a5,a0,-887 # c89 <.Lline_table_start1+0xa5e>
   12f96:	05500693          	li	a3,85
   12f9a:	4711                	li	a4,4
   12f9c:	853e                	mv	a0,a5
   12f9e:	00000073          	ecall
   12fa2:	04850263          	beq	a0,s0,12fe6 <_ZN20complex_full_dynamic3app17h53ac7203f67850dcE+0x96>
   12fa6:	853e                	mv	a0,a5
   12fa8:	864a                	mv	a2,s2
   12faa:	c43e                	sw	a5,8(sp)
   12fac:	c622                	sw	s0,12(sp)
   12fae:	00910823          	sb	s1,16(sp)
   12fb2:	448d                	li	s1,3
   12fb4:	4589                	li	a1,2
   12fb6:	46c5                	li	a3,17
   12fb8:	470d                	li	a4,3
   12fba:	00000073          	ecall
   12fbe:	02850463          	beq	a0,s0,12fe6 <_ZN20complex_full_dynamic3app17h53ac7203f67850dcE+0x96>
   12fc2:	4509                	li	a0,2
   12fc4:	6685                	lui	a3,0x1
   12fc6:	4589                	li	a1,2
   12fc8:	4609                	li	a2,2
   12fca:	d6be                	sw	a5,108(sp)
   12fcc:	d8aa                	sw	a0,112(sp)
   12fce:	06910a23          	sb	s1,116(sp)
   12fd2:	c8968513          	addi	a0,a3,-887 # c89 <.Lline_table_start1+0xa5e>
   12fd6:	4709                	li	a4,2
   12fd8:	07f00793          	li	a5,127
   12fdc:	4681                	li	a3,0
   12fde:	00000073          	ecall
   12fe2:	02a7e863          	bltu	a5,a0,13012 <_ZN20complex_full_dynamic3app17h53ac7203f67850dcE+0xc2>
   12fe6:	00b9a223          	sw	a1,4(s3)
   12fea:	4505                	li	a0,1
   12fec:	00a98023          	sb	a0,0(s3)
   12ff0:	10e8                	addi	a0,sp,108
   12ff2:	00008097          	auipc	ra,0x8
   12ff6:	a88080e7          	jalr	-1400(ra) # 1aa7a <_ZN9allow_pin12full_dynamic17unshare_if_shared17hcb7d6c8e9042aa41E>
   12ffa:	0028                	addi	a0,sp,8
   12ffc:	00008097          	auipc	ra,0x8
   13000:	a7e080e7          	jalr	-1410(ra) # 1aa7a <_ZN9allow_pin12full_dynamic17unshare_if_shared17hcb7d6c8e9042aa41E>
   13004:	40fa                	lw	ra,156(sp)
   13006:	446a                	lw	s0,152(sp)
   13008:	44da                	lw	s1,148(sp)
   1300a:	494a                	lw	s2,144(sp)
   1300c:	49ba                	lw	s3,140(sp)
   1300e:	610d                	addi	sp,sp,160
   13010:	8082                	ret
   13012:	0028                	addi	a0,sp,8
   13014:	00008097          	auipc	ra,0x8
   13018:	a66080e7          	jalr	-1434(ra) # 1aa7a <_ZN9allow_pin12full_dynamic17unshare_if_shared17hcb7d6c8e9042aa41E>
   1301c:	10e8                	addi	a0,sp,108
   1301e:	00008097          	auipc	ra,0x8
   13022:	a5c080e7          	jalr	-1444(ra) # 1aa7a <_ZN9allow_pin12full_dynamic17unshare_if_shared17hcb7d6c8e9042aa41E>
   13026:	10e8                	addi	a0,sp,108
   13028:	00008097          	auipc	ra,0x8
   1302c:	a52080e7          	jalr	-1454(ra) # 1aa7a <_ZN9allow_pin12full_dynamic17unshare_if_shared17hcb7d6c8e9042aa41E>
   13030:	00198513          	addi	a0,s3,1
   13034:	4645                	li	a2,17
   13036:	85ca                	mv	a1,s2
   13038:	00008097          	auipc	ra,0x8
   1303c:	acc080e7          	jalr	-1332(ra) # 1ab04 <memcpy>
   13040:	4501                	li	a0,0
   13042:	b76d                	j	12fec <_ZN20complex_full_dynamic3app17h53ac7203f67850dcE+0x9c>

00013044 <_ZN20complex_full_dynamic3app17h54cffc4a72a57dcdE>:
   13044:	7115                	addi	sp,sp,-224
   13046:	cf86                	sw	ra,220(sp)
   13048:	cda2                	sw	s0,216(sp)
   1304a:	cba6                	sw	s1,212(sp)
   1304c:	c9ca                	sw	s2,208(sp)
   1304e:	c7ce                	sw	s3,204(sp)
   13050:	89aa                	mv	s3,a0
   13052:	4409                	li	s0,2
   13054:	00810423          	sb	s0,8(sp)
   13058:	0064                	addi	s1,sp,12
   1305a:	04f00613          	li	a2,79
   1305e:	8526                	mv	a0,s1
   13060:	00008097          	auipc	ra,0x8
   13064:	aa4080e7          	jalr	-1372(ra) # 1ab04 <memcpy>
   13068:	06810913          	addi	s2,sp,104
   1306c:	06100613          	li	a2,97
   13070:	854a                	mv	a0,s2
   13072:	4581                	li	a1,0
   13074:	00008097          	auipc	ra,0x8
   13078:	a24080e7          	jalr	-1500(ra) # 1aa98 <memset>
   1307c:	8626                	mv	a2,s1
   1307e:	06810223          	sb	s0,100(sp)
   13082:	1b600493          	li	s1,438
   13086:	4791                	li	a5,4
   13088:	1b600513          	li	a0,438
   1308c:	4589                	li	a1,2
   1308e:	04f00693          	li	a3,79
   13092:	4711                	li	a4,4
   13094:	00000073          	ecall
   13098:	04850563          	beq	a0,s0,130e2 <_ZN20complex_full_dynamic3app17h54cffc4a72a57dcdE+0x9e>
   1309c:	864a                	mv	a2,s2
   1309e:	c026                	sw	s1,0(sp)
   130a0:	c222                	sw	s0,4(sp)
   130a2:	00f10423          	sb	a5,8(sp)
   130a6:	47a1                	li	a5,8
   130a8:	448d                	li	s1,3
   130aa:	1b600513          	li	a0,438
   130ae:	45a1                	li	a1,8
   130b0:	06100693          	li	a3,97
   130b4:	470d                	li	a4,3
   130b6:	00000073          	ecall
   130ba:	02850463          	beq	a0,s0,130e2 <_ZN20complex_full_dynamic3app17h54cffc4a72a57dcdE+0x9e>
   130be:	1b600693          	li	a3,438
   130c2:	1b600513          	li	a0,438
   130c6:	4589                	li	a1,2
   130c8:	4621                	li	a2,8
   130ca:	4709                	li	a4,2
   130cc:	07f00413          	li	s0,127
   130d0:	ceb6                	sw	a3,92(sp)
   130d2:	d0be                	sw	a5,96(sp)
   130d4:	06910223          	sb	s1,100(sp)
   130d8:	4681                	li	a3,0
   130da:	00000073          	ecall
   130de:	02a46863          	bltu	s0,a0,1310e <_ZN20complex_full_dynamic3app17h54cffc4a72a57dcdE+0xca>
   130e2:	00b9a223          	sw	a1,4(s3)
   130e6:	4505                	li	a0,1
   130e8:	00a98023          	sb	a0,0(s3)
   130ec:	08e8                	addi	a0,sp,92
   130ee:	00008097          	auipc	ra,0x8
   130f2:	98c080e7          	jalr	-1652(ra) # 1aa7a <_ZN9allow_pin12full_dynamic17unshare_if_shared17hcb7d6c8e9042aa41E>
   130f6:	850a                	mv	a0,sp
   130f8:	00008097          	auipc	ra,0x8
   130fc:	982080e7          	jalr	-1662(ra) # 1aa7a <_ZN9allow_pin12full_dynamic17unshare_if_shared17hcb7d6c8e9042aa41E>
   13100:	40fe                	lw	ra,220(sp)
   13102:	446e                	lw	s0,216(sp)
   13104:	44de                	lw	s1,212(sp)
   13106:	494e                	lw	s2,208(sp)
   13108:	49be                	lw	s3,204(sp)
   1310a:	612d                	addi	sp,sp,224
   1310c:	8082                	ret
   1310e:	850a                	mv	a0,sp
   13110:	00008097          	auipc	ra,0x8
   13114:	96a080e7          	jalr	-1686(ra) # 1aa7a <_ZN9allow_pin12full_dynamic17unshare_if_shared17hcb7d6c8e9042aa41E>
   13118:	08e8                	addi	a0,sp,92
   1311a:	00008097          	auipc	ra,0x8
   1311e:	960080e7          	jalr	-1696(ra) # 1aa7a <_ZN9allow_pin12full_dynamic17unshare_if_shared17hcb7d6c8e9042aa41E>
   13122:	08e8                	addi	a0,sp,92
   13124:	00008097          	auipc	ra,0x8
   13128:	956080e7          	jalr	-1706(ra) # 1aa7a <_ZN9allow_pin12full_dynamic17unshare_if_shared17hcb7d6c8e9042aa41E>
   1312c:	00198513          	addi	a0,s3,1
   13130:	06100613          	li	a2,97
   13134:	85ca                	mv	a1,s2
   13136:	00008097          	auipc	ra,0x8
   1313a:	9ce080e7          	jalr	-1586(ra) # 1ab04 <memcpy>
   1313e:	4501                	li	a0,0
   13140:	b765                	j	130e8 <_ZN20complex_full_dynamic3app17h54cffc4a72a57dcdE+0xa4>

00013142 <_ZN20complex_full_dynamic3app17h555c9611af221266E>:
   13142:	7135                	addi	sp,sp,-160
   13144:	cf06                	sw	ra,156(sp)
   13146:	cd22                	sw	s0,152(sp)
   13148:	cb26                	sw	s1,148(sp)
   1314a:	c94a                	sw	s2,144(sp)
   1314c:	c74e                	sw	s3,140(sp)
   1314e:	89aa                	mv	s3,a0
   13150:	4409                	li	s0,2
   13152:	00810423          	sb	s0,8(sp)
   13156:	0064                	addi	s1,sp,12
   13158:	4679                	li	a2,30
   1315a:	8526                	mv	a0,s1
   1315c:	00008097          	auipc	ra,0x8
   13160:	9a8080e7          	jalr	-1624(ra) # 1ab04 <memcpy>
   13164:	03810913          	addi	s2,sp,56
   13168:	05100613          	li	a2,81
   1316c:	854a                	mv	a0,s2
   1316e:	4581                	li	a1,0
   13170:	00008097          	auipc	ra,0x8
   13174:	928080e7          	jalr	-1752(ra) # 1aa98 <memset>
   13178:	8626                	mv	a2,s1
   1317a:	02810a23          	sb	s0,52(sp)
   1317e:	6509                	lui	a0,0x2
   13180:	4491                	li	s1,4
   13182:	4589                	li	a1,2
   13184:	96b50793          	addi	a5,a0,-1685 # 196b <.Lline_table_start1+0x1740>
   13188:	46f9                	li	a3,30
   1318a:	4711                	li	a4,4
   1318c:	853e                	mv	a0,a5
   1318e:	00000073          	ecall
   13192:	04850263          	beq	a0,s0,131d6 <_ZN20complex_full_dynamic3app17h555c9611af221266E+0x94>
   13196:	853e                	mv	a0,a5
   13198:	4581                	li	a1,0
   1319a:	864a                	mv	a2,s2
   1319c:	c03e                	sw	a5,0(sp)
   1319e:	c222                	sw	s0,4(sp)
   131a0:	00910423          	sb	s1,8(sp)
   131a4:	448d                	li	s1,3
   131a6:	05100693          	li	a3,81
   131aa:	470d                	li	a4,3
   131ac:	00000073          	ecall
   131b0:	02850363          	beq	a0,s0,131d6 <_ZN20complex_full_dynamic3app17h555c9611af221266E+0x94>
   131b4:	d63e                	sw	a5,44(sp)
   131b6:	d802                	sw	zero,48(sp)
   131b8:	02910a23          	sb	s1,52(sp)
   131bc:	6509                	lui	a0,0x2
   131be:	4589                	li	a1,2
   131c0:	96b50513          	addi	a0,a0,-1685 # 196b <.Lline_table_start1+0x1740>
   131c4:	4709                	li	a4,2
   131c6:	07f00793          	li	a5,127
   131ca:	4601                	li	a2,0
   131cc:	4681                	li	a3,0
   131ce:	00000073          	ecall
   131d2:	02a7e863          	bltu	a5,a0,13202 <_ZN20complex_full_dynamic3app17h555c9611af221266E+0xc0>
   131d6:	00b9a223          	sw	a1,4(s3)
   131da:	4505                	li	a0,1
   131dc:	00a98023          	sb	a0,0(s3)
   131e0:	1068                	addi	a0,sp,44
   131e2:	00008097          	auipc	ra,0x8
   131e6:	898080e7          	jalr	-1896(ra) # 1aa7a <_ZN9allow_pin12full_dynamic17unshare_if_shared17hcb7d6c8e9042aa41E>
   131ea:	850a                	mv	a0,sp
   131ec:	00008097          	auipc	ra,0x8
   131f0:	88e080e7          	jalr	-1906(ra) # 1aa7a <_ZN9allow_pin12full_dynamic17unshare_if_shared17hcb7d6c8e9042aa41E>
   131f4:	40fa                	lw	ra,156(sp)
   131f6:	446a                	lw	s0,152(sp)
   131f8:	44da                	lw	s1,148(sp)
   131fa:	494a                	lw	s2,144(sp)
   131fc:	49ba                	lw	s3,140(sp)
   131fe:	610d                	addi	sp,sp,160
   13200:	8082                	ret
   13202:	850a                	mv	a0,sp
   13204:	00008097          	auipc	ra,0x8
   13208:	876080e7          	jalr	-1930(ra) # 1aa7a <_ZN9allow_pin12full_dynamic17unshare_if_shared17hcb7d6c8e9042aa41E>
   1320c:	1068                	addi	a0,sp,44
   1320e:	00008097          	auipc	ra,0x8
   13212:	86c080e7          	jalr	-1940(ra) # 1aa7a <_ZN9allow_pin12full_dynamic17unshare_if_shared17hcb7d6c8e9042aa41E>
   13216:	1068                	addi	a0,sp,44
   13218:	00008097          	auipc	ra,0x8
   1321c:	862080e7          	jalr	-1950(ra) # 1aa7a <_ZN9allow_pin12full_dynamic17unshare_if_shared17hcb7d6c8e9042aa41E>
   13220:	00198513          	addi	a0,s3,1
   13224:	05100613          	li	a2,81
   13228:	85ca                	mv	a1,s2
   1322a:	00008097          	auipc	ra,0x8
   1322e:	8da080e7          	jalr	-1830(ra) # 1ab04 <memcpy>
   13232:	4501                	li	a0,0
   13234:	b765                	j	131dc <_ZN20complex_full_dynamic3app17h555c9611af221266E+0x9a>

00013236 <_ZN20complex_full_dynamic3app17h5ae6cdd00e1c470fE>:
   13236:	7159                	addi	sp,sp,-112
   13238:	d686                	sw	ra,108(sp)
   1323a:	d4a2                	sw	s0,104(sp)
   1323c:	d2a6                	sw	s1,100(sp)
   1323e:	d0ca                	sw	s2,96(sp)
   13240:	cece                	sw	s3,92(sp)
   13242:	89aa                	mv	s3,a0
   13244:	4409                	li	s0,2
   13246:	00810a23          	sb	s0,20(sp)
   1324a:	0824                	addi	s1,sp,24
   1324c:	4661                	li	a2,24
   1324e:	8526                	mv	a0,s1
   13250:	00008097          	auipc	ra,0x8
   13254:	8b4080e7          	jalr	-1868(ra) # 1ab04 <memcpy>
   13258:	03c10913          	addi	s2,sp,60
   1325c:	4679                	li	a2,30
   1325e:	854a                	mv	a0,s2
   13260:	4581                	li	a1,0
   13262:	00008097          	auipc	ra,0x8
   13266:	836080e7          	jalr	-1994(ra) # 1aa98 <memset>
   1326a:	8626                	mv	a2,s1
   1326c:	02810c23          	sb	s0,56(sp)
   13270:	6505                	lui	a0,0x1
   13272:	44a5                	li	s1,9
   13274:	4811                	li	a6,4
   13276:	45a5                	li	a1,9
   13278:	cbb50793          	addi	a5,a0,-837 # cbb <.Lline_table_start1+0xa90>
   1327c:	46e1                	li	a3,24
   1327e:	4711                	li	a4,4
   13280:	853e                	mv	a0,a5
   13282:	00000073          	ecall
   13286:	04850263          	beq	a0,s0,132ca <_ZN20complex_full_dynamic3app17h5ae6cdd00e1c470fE+0x94>
   1328a:	853e                	mv	a0,a5
   1328c:	864a                	mv	a2,s2
   1328e:	c63e                	sw	a5,12(sp)
   13290:	c826                	sw	s1,16(sp)
   13292:	01010a23          	sb	a6,20(sp)
   13296:	4495                	li	s1,5
   13298:	480d                	li	a6,3
   1329a:	4595                	li	a1,5
   1329c:	46f9                	li	a3,30
   1329e:	470d                	li	a4,3
   132a0:	00000073          	ecall
   132a4:	02850363          	beq	a0,s0,132ca <_ZN20complex_full_dynamic3app17h5ae6cdd00e1c470fE+0x94>
   132a8:	d83e                	sw	a5,48(sp)
   132aa:	da26                	sw	s1,52(sp)
   132ac:	03010c23          	sb	a6,56(sp)
   132b0:	6505                	lui	a0,0x1
   132b2:	45a5                	li	a1,9
   132b4:	4615                	li	a2,5
   132b6:	cbb50513          	addi	a0,a0,-837 # cbb <.Lline_table_start1+0xa90>
   132ba:	4709                	li	a4,2
   132bc:	07f00793          	li	a5,127
   132c0:	4681                	li	a3,0
   132c2:	00000073          	ecall
   132c6:	02a7e863          	bltu	a5,a0,132f6 <_ZN20complex_full_dynamic3app17h5ae6cdd00e1c470fE+0xc0>
   132ca:	00b9a223          	sw	a1,4(s3)
   132ce:	4505                	li	a0,1
   132d0:	00a98023          	sb	a0,0(s3)
   132d4:	1808                	addi	a0,sp,48
   132d6:	00007097          	auipc	ra,0x7
   132da:	7a4080e7          	jalr	1956(ra) # 1aa7a <_ZN9allow_pin12full_dynamic17unshare_if_shared17hcb7d6c8e9042aa41E>
   132de:	0068                	addi	a0,sp,12
   132e0:	00007097          	auipc	ra,0x7
   132e4:	79a080e7          	jalr	1946(ra) # 1aa7a <_ZN9allow_pin12full_dynamic17unshare_if_shared17hcb7d6c8e9042aa41E>
   132e8:	50b6                	lw	ra,108(sp)
   132ea:	5426                	lw	s0,104(sp)
   132ec:	5496                	lw	s1,100(sp)
   132ee:	5906                	lw	s2,96(sp)
   132f0:	49f6                	lw	s3,92(sp)
   132f2:	6165                	addi	sp,sp,112
   132f4:	8082                	ret
   132f6:	0068                	addi	a0,sp,12
   132f8:	00007097          	auipc	ra,0x7
   132fc:	782080e7          	jalr	1922(ra) # 1aa7a <_ZN9allow_pin12full_dynamic17unshare_if_shared17hcb7d6c8e9042aa41E>
   13300:	1808                	addi	a0,sp,48
   13302:	00007097          	auipc	ra,0x7
   13306:	778080e7          	jalr	1912(ra) # 1aa7a <_ZN9allow_pin12full_dynamic17unshare_if_shared17hcb7d6c8e9042aa41E>
   1330a:	1808                	addi	a0,sp,48
   1330c:	00007097          	auipc	ra,0x7
   13310:	76e080e7          	jalr	1902(ra) # 1aa7a <_ZN9allow_pin12full_dynamic17unshare_if_shared17hcb7d6c8e9042aa41E>
   13314:	00198513          	addi	a0,s3,1
   13318:	4679                	li	a2,30
   1331a:	85ca                	mv	a1,s2
   1331c:	00007097          	auipc	ra,0x7
   13320:	7e8080e7          	jalr	2024(ra) # 1ab04 <memcpy>
   13324:	4501                	li	a0,0
   13326:	b76d                	j	132d0 <_ZN20complex_full_dynamic3app17h5ae6cdd00e1c470fE+0x9a>

00013328 <_ZN20complex_full_dynamic3app17h5be40c835ca2c2d4E>:
   13328:	7119                	addi	sp,sp,-128
   1332a:	de86                	sw	ra,124(sp)
   1332c:	dca2                	sw	s0,120(sp)
   1332e:	daa6                	sw	s1,116(sp)
   13330:	d8ca                	sw	s2,112(sp)
   13332:	d6ce                	sw	s3,108(sp)
   13334:	89aa                	mv	s3,a0
   13336:	4409                	li	s0,2
   13338:	00810a23          	sb	s0,20(sp)
   1333c:	0824                	addi	s1,sp,24
   1333e:	02700613          	li	a2,39
   13342:	8526                	mv	a0,s1
   13344:	00007097          	auipc	ra,0x7
   13348:	7c0080e7          	jalr	1984(ra) # 1ab04 <memcpy>
   1334c:	04c10913          	addi	s2,sp,76
   13350:	4679                	li	a2,30
   13352:	854a                	mv	a0,s2
   13354:	4581                	li	a1,0
   13356:	00007097          	auipc	ra,0x7
   1335a:	742080e7          	jalr	1858(ra) # 1aa98 <memset>
   1335e:	8626                	mv	a2,s1
   13360:	04810423          	sb	s0,72(sp)
   13364:	6505                	lui	a0,0x1
   13366:	448d                	li	s1,3
   13368:	4811                	li	a6,4
   1336a:	458d                	li	a1,3
   1336c:	0e250793          	addi	a5,a0,226 # 10e2 <.Lline_table_start1+0xeb7>
   13370:	02700693          	li	a3,39
   13374:	4711                	li	a4,4
   13376:	853e                	mv	a0,a5
   13378:	00000073          	ecall
   1337c:	04850163          	beq	a0,s0,133be <_ZN20complex_full_dynamic3app17h5be40c835ca2c2d4E+0x96>
   13380:	c63e                	sw	a5,12(sp)
   13382:	c826                	sw	s1,16(sp)
   13384:	01010a23          	sb	a6,20(sp)
   13388:	458d                	li	a1,3
   1338a:	46f9                	li	a3,30
   1338c:	470d                	li	a4,3
   1338e:	853e                	mv	a0,a5
   13390:	864a                	mv	a2,s2
   13392:	00000073          	ecall
   13396:	02850463          	beq	a0,s0,133be <_ZN20complex_full_dynamic3app17h5be40c835ca2c2d4E+0x96>
   1339a:	450d                	li	a0,3
   1339c:	6685                	lui	a3,0x1
   1339e:	458d                	li	a1,3
   133a0:	460d                	li	a2,3
   133a2:	c0be                	sw	a5,64(sp)
   133a4:	c2aa                	sw	a0,68(sp)
   133a6:	04a10423          	sb	a0,72(sp)
   133aa:	0e268513          	addi	a0,a3,226 # 10e2 <.Lline_table_start1+0xeb7>
   133ae:	4709                	li	a4,2
   133b0:	07f00793          	li	a5,127
   133b4:	4681                	li	a3,0
   133b6:	00000073          	ecall
   133ba:	02a7e863          	bltu	a5,a0,133ea <_ZN20complex_full_dynamic3app17h5be40c835ca2c2d4E+0xc2>
   133be:	00b9a223          	sw	a1,4(s3)
   133c2:	4505                	li	a0,1
   133c4:	00a98023          	sb	a0,0(s3)
   133c8:	0088                	addi	a0,sp,64
   133ca:	00007097          	auipc	ra,0x7
   133ce:	6b0080e7          	jalr	1712(ra) # 1aa7a <_ZN9allow_pin12full_dynamic17unshare_if_shared17hcb7d6c8e9042aa41E>
   133d2:	0068                	addi	a0,sp,12
   133d4:	00007097          	auipc	ra,0x7
   133d8:	6a6080e7          	jalr	1702(ra) # 1aa7a <_ZN9allow_pin12full_dynamic17unshare_if_shared17hcb7d6c8e9042aa41E>
   133dc:	50f6                	lw	ra,124(sp)
   133de:	5466                	lw	s0,120(sp)
   133e0:	54d6                	lw	s1,116(sp)
   133e2:	5946                	lw	s2,112(sp)
   133e4:	59b6                	lw	s3,108(sp)
   133e6:	6109                	addi	sp,sp,128
   133e8:	8082                	ret
   133ea:	0068                	addi	a0,sp,12
   133ec:	00007097          	auipc	ra,0x7
   133f0:	68e080e7          	jalr	1678(ra) # 1aa7a <_ZN9allow_pin12full_dynamic17unshare_if_shared17hcb7d6c8e9042aa41E>
   133f4:	0088                	addi	a0,sp,64
   133f6:	00007097          	auipc	ra,0x7
   133fa:	684080e7          	jalr	1668(ra) # 1aa7a <_ZN9allow_pin12full_dynamic17unshare_if_shared17hcb7d6c8e9042aa41E>
   133fe:	0088                	addi	a0,sp,64
   13400:	00007097          	auipc	ra,0x7
   13404:	67a080e7          	jalr	1658(ra) # 1aa7a <_ZN9allow_pin12full_dynamic17unshare_if_shared17hcb7d6c8e9042aa41E>
   13408:	00198513          	addi	a0,s3,1
   1340c:	4679                	li	a2,30
   1340e:	85ca                	mv	a1,s2
   13410:	00007097          	auipc	ra,0x7
   13414:	6f4080e7          	jalr	1780(ra) # 1ab04 <memcpy>
   13418:	4501                	li	a0,0
   1341a:	b76d                	j	133c4 <_ZN20complex_full_dynamic3app17h5be40c835ca2c2d4E+0x9c>

0001341c <_ZN20complex_full_dynamic3app17h5de7f2ca5175c4fdE>:
   1341c:	7175                	addi	sp,sp,-144
   1341e:	c706                	sw	ra,140(sp)
   13420:	c522                	sw	s0,136(sp)
   13422:	c326                	sw	s1,132(sp)
   13424:	c14a                	sw	s2,128(sp)
   13426:	dece                	sw	s3,124(sp)
   13428:	89aa                	mv	s3,a0
   1342a:	4409                	li	s0,2
   1342c:	00810823          	sb	s0,16(sp)
   13430:	0844                	addi	s1,sp,20
   13432:	03f00613          	li	a2,63
   13436:	8526                	mv	a0,s1
   13438:	00007097          	auipc	ra,0x7
   1343c:	6cc080e7          	jalr	1740(ra) # 1ab04 <memcpy>
   13440:	06010913          	addi	s2,sp,96
   13444:	4671                	li	a2,28
   13446:	854a                	mv	a0,s2
   13448:	4581                	li	a1,0
   1344a:	00007097          	auipc	ra,0x7
   1344e:	64e080e7          	jalr	1614(ra) # 1aa98 <memset>
   13452:	8626                	mv	a2,s1
   13454:	04810e23          	sb	s0,92(sp)
   13458:	6505                	lui	a0,0x1
   1345a:	4495                	li	s1,5
   1345c:	4811                	li	a6,4
   1345e:	4595                	li	a1,5
   13460:	69450793          	addi	a5,a0,1684 # 1694 <.Lline_table_start1+0x1469>
   13464:	03f00693          	li	a3,63
   13468:	4711                	li	a4,4
   1346a:	853e                	mv	a0,a5
   1346c:	00000073          	ecall
   13470:	04850263          	beq	a0,s0,134b4 <_ZN20complex_full_dynamic3app17h5de7f2ca5175c4fdE+0x98>
   13474:	853e                	mv	a0,a5
   13476:	864a                	mv	a2,s2
   13478:	c43e                	sw	a5,8(sp)
   1347a:	c626                	sw	s1,12(sp)
   1347c:	01010823          	sb	a6,16(sp)
   13480:	44a5                	li	s1,9
   13482:	480d                	li	a6,3
   13484:	45a5                	li	a1,9
   13486:	46f1                	li	a3,28
   13488:	470d                	li	a4,3
   1348a:	00000073          	ecall
   1348e:	02850363          	beq	a0,s0,134b4 <_ZN20complex_full_dynamic3app17h5de7f2ca5175c4fdE+0x98>
   13492:	cabe                	sw	a5,84(sp)
   13494:	cca6                	sw	s1,88(sp)
   13496:	05010e23          	sb	a6,92(sp)
   1349a:	6505                	lui	a0,0x1
   1349c:	4595                	li	a1,5
   1349e:	4625                	li	a2,9
   134a0:	69450513          	addi	a0,a0,1684 # 1694 <.Lline_table_start1+0x1469>
   134a4:	4709                	li	a4,2
   134a6:	07f00793          	li	a5,127
   134aa:	4681                	li	a3,0
   134ac:	00000073          	ecall
   134b0:	02a7e863          	bltu	a5,a0,134e0 <_ZN20complex_full_dynamic3app17h5de7f2ca5175c4fdE+0xc4>
   134b4:	00b9a223          	sw	a1,4(s3)
   134b8:	4505                	li	a0,1
   134ba:	00a98023          	sb	a0,0(s3)
   134be:	08c8                	addi	a0,sp,84
   134c0:	00007097          	auipc	ra,0x7
   134c4:	5ba080e7          	jalr	1466(ra) # 1aa7a <_ZN9allow_pin12full_dynamic17unshare_if_shared17hcb7d6c8e9042aa41E>
   134c8:	0028                	addi	a0,sp,8
   134ca:	00007097          	auipc	ra,0x7
   134ce:	5b0080e7          	jalr	1456(ra) # 1aa7a <_ZN9allow_pin12full_dynamic17unshare_if_shared17hcb7d6c8e9042aa41E>
   134d2:	40ba                	lw	ra,140(sp)
   134d4:	442a                	lw	s0,136(sp)
   134d6:	449a                	lw	s1,132(sp)
   134d8:	490a                	lw	s2,128(sp)
   134da:	59f6                	lw	s3,124(sp)
   134dc:	6149                	addi	sp,sp,144
   134de:	8082                	ret
   134e0:	0028                	addi	a0,sp,8
   134e2:	00007097          	auipc	ra,0x7
   134e6:	598080e7          	jalr	1432(ra) # 1aa7a <_ZN9allow_pin12full_dynamic17unshare_if_shared17hcb7d6c8e9042aa41E>
   134ea:	08c8                	addi	a0,sp,84
   134ec:	00007097          	auipc	ra,0x7
   134f0:	58e080e7          	jalr	1422(ra) # 1aa7a <_ZN9allow_pin12full_dynamic17unshare_if_shared17hcb7d6c8e9042aa41E>
   134f4:	08c8                	addi	a0,sp,84
   134f6:	00007097          	auipc	ra,0x7
   134fa:	584080e7          	jalr	1412(ra) # 1aa7a <_ZN9allow_pin12full_dynamic17unshare_if_shared17hcb7d6c8e9042aa41E>
   134fe:	00198513          	addi	a0,s3,1
   13502:	4671                	li	a2,28
   13504:	85ca                	mv	a1,s2
   13506:	00007097          	auipc	ra,0x7
   1350a:	5fe080e7          	jalr	1534(ra) # 1ab04 <memcpy>
   1350e:	4501                	li	a0,0
   13510:	b76d                	j	134ba <_ZN20complex_full_dynamic3app17h5de7f2ca5175c4fdE+0x9e>

00013512 <_ZN20complex_full_dynamic3app17h60071af0087d6432E>:
   13512:	7119                	addi	sp,sp,-128
   13514:	de86                	sw	ra,124(sp)
   13516:	dca2                	sw	s0,120(sp)
   13518:	daa6                	sw	s1,116(sp)
   1351a:	d8ca                	sw	s2,112(sp)
   1351c:	d6ce                	sw	s3,108(sp)
   1351e:	89aa                	mv	s3,a0
   13520:	4409                	li	s0,2
   13522:	00810423          	sb	s0,8(sp)
   13526:	0064                	addi	s1,sp,12
   13528:	02c00613          	li	a2,44
   1352c:	8526                	mv	a0,s1
   1352e:	00007097          	auipc	ra,0x7
   13532:	5d6080e7          	jalr	1494(ra) # 1ab04 <memcpy>
   13536:	04410913          	addi	s2,sp,68
   1353a:	02700613          	li	a2,39
   1353e:	854a                	mv	a0,s2
   13540:	4581                	li	a1,0
   13542:	00007097          	auipc	ra,0x7
   13546:	556080e7          	jalr	1366(ra) # 1aa98 <memset>
   1354a:	8626                	mv	a2,s1
   1354c:	04810023          	sb	s0,64(sp)
   13550:	6505                	lui	a0,0x1
   13552:	4491                	li	s1,4
   13554:	4591                	li	a1,4
   13556:	1b550793          	addi	a5,a0,437 # 11b5 <.Lline_table_start1+0xf8a>
   1355a:	02c00693          	li	a3,44
   1355e:	4711                	li	a4,4
   13560:	853e                	mv	a0,a5
   13562:	00000073          	ecall
   13566:	04850263          	beq	a0,s0,135aa <_ZN20complex_full_dynamic3app17h60071af0087d6432E+0x98>
   1356a:	853e                	mv	a0,a5
   1356c:	864a                	mv	a2,s2
   1356e:	c03e                	sw	a5,0(sp)
   13570:	c226                	sw	s1,4(sp)
   13572:	00910423          	sb	s1,8(sp)
   13576:	448d                	li	s1,3
   13578:	458d                	li	a1,3
   1357a:	02700693          	li	a3,39
   1357e:	470d                	li	a4,3
   13580:	00000073          	ecall
   13584:	02850363          	beq	a0,s0,135aa <_ZN20complex_full_dynamic3app17h60071af0087d6432E+0x98>
   13588:	dc3e                	sw	a5,56(sp)
   1358a:	de26                	sw	s1,60(sp)
   1358c:	04910023          	sb	s1,64(sp)
   13590:	6505                	lui	a0,0x1
   13592:	4591                	li	a1,4
   13594:	460d                	li	a2,3
   13596:	1b550513          	addi	a0,a0,437 # 11b5 <.Lline_table_start1+0xf8a>
   1359a:	4709                	li	a4,2
   1359c:	07f00793          	li	a5,127
   135a0:	4681                	li	a3,0
   135a2:	00000073          	ecall
   135a6:	02a7e863          	bltu	a5,a0,135d6 <_ZN20complex_full_dynamic3app17h60071af0087d6432E+0xc4>
   135aa:	00b9a223          	sw	a1,4(s3)
   135ae:	4505                	li	a0,1
   135b0:	00a98023          	sb	a0,0(s3)
   135b4:	1828                	addi	a0,sp,56
   135b6:	00007097          	auipc	ra,0x7
   135ba:	4c4080e7          	jalr	1220(ra) # 1aa7a <_ZN9allow_pin12full_dynamic17unshare_if_shared17hcb7d6c8e9042aa41E>
   135be:	850a                	mv	a0,sp
   135c0:	00007097          	auipc	ra,0x7
   135c4:	4ba080e7          	jalr	1210(ra) # 1aa7a <_ZN9allow_pin12full_dynamic17unshare_if_shared17hcb7d6c8e9042aa41E>
   135c8:	50f6                	lw	ra,124(sp)
   135ca:	5466                	lw	s0,120(sp)
   135cc:	54d6                	lw	s1,116(sp)
   135ce:	5946                	lw	s2,112(sp)
   135d0:	59b6                	lw	s3,108(sp)
   135d2:	6109                	addi	sp,sp,128
   135d4:	8082                	ret
   135d6:	850a                	mv	a0,sp
   135d8:	00007097          	auipc	ra,0x7
   135dc:	4a2080e7          	jalr	1186(ra) # 1aa7a <_ZN9allow_pin12full_dynamic17unshare_if_shared17hcb7d6c8e9042aa41E>
   135e0:	1828                	addi	a0,sp,56
   135e2:	00007097          	auipc	ra,0x7
   135e6:	498080e7          	jalr	1176(ra) # 1aa7a <_ZN9allow_pin12full_dynamic17unshare_if_shared17hcb7d6c8e9042aa41E>
   135ea:	1828                	addi	a0,sp,56
   135ec:	00007097          	auipc	ra,0x7
   135f0:	48e080e7          	jalr	1166(ra) # 1aa7a <_ZN9allow_pin12full_dynamic17unshare_if_shared17hcb7d6c8e9042aa41E>
   135f4:	00198513          	addi	a0,s3,1
   135f8:	02700613          	li	a2,39
   135fc:	85ca                	mv	a1,s2
   135fe:	00007097          	auipc	ra,0x7
   13602:	506080e7          	jalr	1286(ra) # 1ab04 <memcpy>
   13606:	4501                	li	a0,0
   13608:	b765                	j	135b0 <_ZN20complex_full_dynamic3app17h60071af0087d6432E+0x9e>

0001360a <_ZN20complex_full_dynamic3app17h609cbabca1cfe1faE>:
   1360a:	7119                	addi	sp,sp,-128
   1360c:	de86                	sw	ra,124(sp)
   1360e:	dca2                	sw	s0,120(sp)
   13610:	daa6                	sw	s1,116(sp)
   13612:	d8ca                	sw	s2,112(sp)
   13614:	d6ce                	sw	s3,108(sp)
   13616:	89aa                	mv	s3,a0
   13618:	4409                	li	s0,2
   1361a:	00810423          	sb	s0,8(sp)
   1361e:	0064                	addi	s1,sp,12
   13620:	02a00613          	li	a2,42
   13624:	8526                	mv	a0,s1
   13626:	00007097          	auipc	ra,0x7
   1362a:	4de080e7          	jalr	1246(ra) # 1ab04 <memcpy>
   1362e:	04410913          	addi	s2,sp,68
   13632:	02800613          	li	a2,40
   13636:	854a                	mv	a0,s2
   13638:	4581                	li	a1,0
   1363a:	00007097          	auipc	ra,0x7
   1363e:	45e080e7          	jalr	1118(ra) # 1aa98 <memset>
   13642:	8626                	mv	a2,s1
   13644:	04810023          	sb	s0,64(sp)
   13648:	6509                	lui	a0,0x2
   1364a:	4491                	li	s1,4
   1364c:	4591                	li	a1,4
   1364e:	efa50793          	addi	a5,a0,-262 # 1efa <.Lline_table_start1+0x1ccf>
   13652:	02a00693          	li	a3,42
   13656:	4711                	li	a4,4
   13658:	853e                	mv	a0,a5
   1365a:	00000073          	ecall
   1365e:	04850363          	beq	a0,s0,136a4 <_ZN20complex_full_dynamic3app17h609cbabca1cfe1faE+0x9a>
   13662:	853e                	mv	a0,a5
   13664:	864a                	mv	a2,s2
   13666:	c03e                	sw	a5,0(sp)
   13668:	c226                	sw	s1,4(sp)
   1366a:	00910423          	sb	s1,8(sp)
   1366e:	44a1                	li	s1,8
   13670:	480d                	li	a6,3
   13672:	45a1                	li	a1,8
   13674:	02800693          	li	a3,40
   13678:	470d                	li	a4,3
   1367a:	00000073          	ecall
   1367e:	02850363          	beq	a0,s0,136a4 <_ZN20complex_full_dynamic3app17h609cbabca1cfe1faE+0x9a>
   13682:	dc3e                	sw	a5,56(sp)
   13684:	de26                	sw	s1,60(sp)
   13686:	05010023          	sb	a6,64(sp)
   1368a:	6509                	lui	a0,0x2
   1368c:	4591                	li	a1,4
   1368e:	4621                	li	a2,8
   13690:	efa50513          	addi	a0,a0,-262 # 1efa <.Lline_table_start1+0x1ccf>
   13694:	4709                	li	a4,2
   13696:	07f00793          	li	a5,127
   1369a:	4681                	li	a3,0
   1369c:	00000073          	ecall
   136a0:	02a7e863          	bltu	a5,a0,136d0 <_ZN20complex_full_dynamic3app17h609cbabca1cfe1faE+0xc6>
   136a4:	00b9a223          	sw	a1,4(s3)
   136a8:	4505                	li	a0,1
   136aa:	00a98023          	sb	a0,0(s3)
   136ae:	1828                	addi	a0,sp,56
   136b0:	00007097          	auipc	ra,0x7
   136b4:	3ca080e7          	jalr	970(ra) # 1aa7a <_ZN9allow_pin12full_dynamic17unshare_if_shared17hcb7d6c8e9042aa41E>
   136b8:	850a                	mv	a0,sp
   136ba:	00007097          	auipc	ra,0x7
   136be:	3c0080e7          	jalr	960(ra) # 1aa7a <_ZN9allow_pin12full_dynamic17unshare_if_shared17hcb7d6c8e9042aa41E>
   136c2:	50f6                	lw	ra,124(sp)
   136c4:	5466                	lw	s0,120(sp)
   136c6:	54d6                	lw	s1,116(sp)
   136c8:	5946                	lw	s2,112(sp)
   136ca:	59b6                	lw	s3,108(sp)
   136cc:	6109                	addi	sp,sp,128
   136ce:	8082                	ret
   136d0:	850a                	mv	a0,sp
   136d2:	00007097          	auipc	ra,0x7
   136d6:	3a8080e7          	jalr	936(ra) # 1aa7a <_ZN9allow_pin12full_dynamic17unshare_if_shared17hcb7d6c8e9042aa41E>
   136da:	1828                	addi	a0,sp,56
   136dc:	00007097          	auipc	ra,0x7
   136e0:	39e080e7          	jalr	926(ra) # 1aa7a <_ZN9allow_pin12full_dynamic17unshare_if_shared17hcb7d6c8e9042aa41E>
   136e4:	1828                	addi	a0,sp,56
   136e6:	00007097          	auipc	ra,0x7
   136ea:	394080e7          	jalr	916(ra) # 1aa7a <_ZN9allow_pin12full_dynamic17unshare_if_shared17hcb7d6c8e9042aa41E>
   136ee:	00198513          	addi	a0,s3,1
   136f2:	02800613          	li	a2,40
   136f6:	85ca                	mv	a1,s2
   136f8:	00007097          	auipc	ra,0x7
   136fc:	40c080e7          	jalr	1036(ra) # 1ab04 <memcpy>
   13700:	4501                	li	a0,0
   13702:	b765                	j	136aa <_ZN20complex_full_dynamic3app17h609cbabca1cfe1faE+0xa0>

00013704 <_ZN20complex_full_dynamic3app17h6164c643d8ca5795E>:
   13704:	7119                	addi	sp,sp,-128
   13706:	de86                	sw	ra,124(sp)
   13708:	dca2                	sw	s0,120(sp)
   1370a:	daa6                	sw	s1,116(sp)
   1370c:	d8ca                	sw	s2,112(sp)
   1370e:	d6ce                	sw	s3,108(sp)
   13710:	89aa                	mv	s3,a0
   13712:	4409                	li	s0,2
   13714:	00810623          	sb	s0,12(sp)
   13718:	0804                	addi	s1,sp,16
   1371a:	02100613          	li	a2,33
   1371e:	8526                	mv	a0,s1
   13720:	00007097          	auipc	ra,0x7
   13724:	3e4080e7          	jalr	996(ra) # 1ab04 <memcpy>
   13728:	04010913          	addi	s2,sp,64
   1372c:	02a00613          	li	a2,42
   13730:	854a                	mv	a0,s2
   13732:	4581                	li	a1,0
   13734:	00007097          	auipc	ra,0x7
   13738:	364080e7          	jalr	868(ra) # 1aa98 <memset>
   1373c:	8626                	mv	a2,s1
   1373e:	02810e23          	sb	s0,60(sp)
   13742:	6505                	lui	a0,0x1
   13744:	4485                	li	s1,1
   13746:	4811                	li	a6,4
   13748:	4585                	li	a1,1
   1374a:	5f350793          	addi	a5,a0,1523 # 15f3 <.Lline_table_start1+0x13c8>
   1374e:	02100693          	li	a3,33
   13752:	4711                	li	a4,4
   13754:	853e                	mv	a0,a5
   13756:	00000073          	ecall
   1375a:	04850263          	beq	a0,s0,1379e <_ZN20complex_full_dynamic3app17h6164c643d8ca5795E+0x9a>
   1375e:	853e                	mv	a0,a5
   13760:	864a                	mv	a2,s2
   13762:	c23e                	sw	a5,4(sp)
   13764:	c426                	sw	s1,8(sp)
   13766:	01010623          	sb	a6,12(sp)
   1376a:	448d                	li	s1,3
   1376c:	458d                	li	a1,3
   1376e:	02a00693          	li	a3,42
   13772:	470d                	li	a4,3
   13774:	00000073          	ecall
   13778:	02850363          	beq	a0,s0,1379e <_ZN20complex_full_dynamic3app17h6164c643d8ca5795E+0x9a>
   1377c:	da3e                	sw	a5,52(sp)
   1377e:	dc26                	sw	s1,56(sp)
   13780:	02910e23          	sb	s1,60(sp)
   13784:	6505                	lui	a0,0x1
   13786:	4585                	li	a1,1
   13788:	460d                	li	a2,3
   1378a:	5f350513          	addi	a0,a0,1523 # 15f3 <.Lline_table_start1+0x13c8>
   1378e:	4709                	li	a4,2
   13790:	07f00793          	li	a5,127
   13794:	4681                	li	a3,0
   13796:	00000073          	ecall
   1379a:	02a7e863          	bltu	a5,a0,137ca <_ZN20complex_full_dynamic3app17h6164c643d8ca5795E+0xc6>
   1379e:	00b9a223          	sw	a1,4(s3)
   137a2:	4505                	li	a0,1
   137a4:	00a98023          	sb	a0,0(s3)
   137a8:	1848                	addi	a0,sp,52
   137aa:	00007097          	auipc	ra,0x7
   137ae:	2d0080e7          	jalr	720(ra) # 1aa7a <_ZN9allow_pin12full_dynamic17unshare_if_shared17hcb7d6c8e9042aa41E>
   137b2:	0048                	addi	a0,sp,4
   137b4:	00007097          	auipc	ra,0x7
   137b8:	2c6080e7          	jalr	710(ra) # 1aa7a <_ZN9allow_pin12full_dynamic17unshare_if_shared17hcb7d6c8e9042aa41E>
   137bc:	50f6                	lw	ra,124(sp)
   137be:	5466                	lw	s0,120(sp)
   137c0:	54d6                	lw	s1,116(sp)
   137c2:	5946                	lw	s2,112(sp)
   137c4:	59b6                	lw	s3,108(sp)
   137c6:	6109                	addi	sp,sp,128
   137c8:	8082                	ret
   137ca:	0048                	addi	a0,sp,4
   137cc:	00007097          	auipc	ra,0x7
   137d0:	2ae080e7          	jalr	686(ra) # 1aa7a <_ZN9allow_pin12full_dynamic17unshare_if_shared17hcb7d6c8e9042aa41E>
   137d4:	1848                	addi	a0,sp,52
   137d6:	00007097          	auipc	ra,0x7
   137da:	2a4080e7          	jalr	676(ra) # 1aa7a <_ZN9allow_pin12full_dynamic17unshare_if_shared17hcb7d6c8e9042aa41E>
   137de:	1848                	addi	a0,sp,52
   137e0:	00007097          	auipc	ra,0x7
   137e4:	29a080e7          	jalr	666(ra) # 1aa7a <_ZN9allow_pin12full_dynamic17unshare_if_shared17hcb7d6c8e9042aa41E>
   137e8:	00198513          	addi	a0,s3,1
   137ec:	02a00613          	li	a2,42
   137f0:	85ca                	mv	a1,s2
   137f2:	00007097          	auipc	ra,0x7
   137f6:	312080e7          	jalr	786(ra) # 1ab04 <memcpy>
   137fa:	4501                	li	a0,0
   137fc:	b765                	j	137a4 <_ZN20complex_full_dynamic3app17h6164c643d8ca5795E+0xa0>

000137fe <_ZN20complex_full_dynamic3app17h620fb3c81a52751fE>:
   137fe:	7171                	addi	sp,sp,-176
   13800:	d706                	sw	ra,172(sp)
   13802:	d522                	sw	s0,168(sp)
   13804:	d326                	sw	s1,164(sp)
   13806:	d14a                	sw	s2,160(sp)
   13808:	cf4e                	sw	s3,156(sp)
   1380a:	89aa                	mv	s3,a0
   1380c:	4409                	li	s0,2
   1380e:	00810a23          	sb	s0,20(sp)
   13812:	0824                	addi	s1,sp,24
   13814:	03200613          	li	a2,50
   13818:	8526                	mv	a0,s1
   1381a:	00007097          	auipc	ra,0x7
   1381e:	2ea080e7          	jalr	746(ra) # 1ab04 <memcpy>
   13822:	05810913          	addi	s2,sp,88
   13826:	04100613          	li	a2,65
   1382a:	854a                	mv	a0,s2
   1382c:	4581                	li	a1,0
   1382e:	00007097          	auipc	ra,0x7
   13832:	26a080e7          	jalr	618(ra) # 1aa98 <memset>
   13836:	8626                	mv	a2,s1
   13838:	04810a23          	sb	s0,84(sp)
   1383c:	6505                	lui	a0,0x1
   1383e:	449d                	li	s1,7
   13840:	4811                	li	a6,4
   13842:	459d                	li	a1,7
   13844:	91d50793          	addi	a5,a0,-1763 # 91d <.Lline_table_start1+0x6f2>
   13848:	03200693          	li	a3,50
   1384c:	4711                	li	a4,4
   1384e:	853e                	mv	a0,a5
   13850:	00000073          	ecall
   13854:	04850363          	beq	a0,s0,1389a <_ZN20complex_full_dynamic3app17h620fb3c81a52751fE+0x9c>
   13858:	853e                	mv	a0,a5
   1385a:	864a                	mv	a2,s2
   1385c:	c63e                	sw	a5,12(sp)
   1385e:	c826                	sw	s1,16(sp)
   13860:	01010a23          	sb	a6,20(sp)
   13864:	4495                	li	s1,5
   13866:	480d                	li	a6,3
   13868:	4595                	li	a1,5
   1386a:	04100693          	li	a3,65
   1386e:	470d                	li	a4,3
   13870:	00000073          	ecall
   13874:	02850363          	beq	a0,s0,1389a <_ZN20complex_full_dynamic3app17h620fb3c81a52751fE+0x9c>
   13878:	c6be                	sw	a5,76(sp)
   1387a:	c8a6                	sw	s1,80(sp)
   1387c:	05010a23          	sb	a6,84(sp)
   13880:	6505                	lui	a0,0x1
   13882:	459d                	li	a1,7
   13884:	4615                	li	a2,5
   13886:	91d50513          	addi	a0,a0,-1763 # 91d <.Lline_table_start1+0x6f2>
   1388a:	4709                	li	a4,2
   1388c:	07f00793          	li	a5,127
   13890:	4681                	li	a3,0
   13892:	00000073          	ecall
   13896:	02a7e863          	bltu	a5,a0,138c6 <_ZN20complex_full_dynamic3app17h620fb3c81a52751fE+0xc8>
   1389a:	00b9a223          	sw	a1,4(s3)
   1389e:	4505                	li	a0,1
   138a0:	00a98023          	sb	a0,0(s3)
   138a4:	00e8                	addi	a0,sp,76
   138a6:	00007097          	auipc	ra,0x7
   138aa:	1d4080e7          	jalr	468(ra) # 1aa7a <_ZN9allow_pin12full_dynamic17unshare_if_shared17hcb7d6c8e9042aa41E>
   138ae:	0068                	addi	a0,sp,12
   138b0:	00007097          	auipc	ra,0x7
   138b4:	1ca080e7          	jalr	458(ra) # 1aa7a <_ZN9allow_pin12full_dynamic17unshare_if_shared17hcb7d6c8e9042aa41E>
   138b8:	50ba                	lw	ra,172(sp)
   138ba:	542a                	lw	s0,168(sp)
   138bc:	549a                	lw	s1,164(sp)
   138be:	590a                	lw	s2,160(sp)
   138c0:	49fa                	lw	s3,156(sp)
   138c2:	614d                	addi	sp,sp,176
   138c4:	8082                	ret
   138c6:	0068                	addi	a0,sp,12
   138c8:	00007097          	auipc	ra,0x7
   138cc:	1b2080e7          	jalr	434(ra) # 1aa7a <_ZN9allow_pin12full_dynamic17unshare_if_shared17hcb7d6c8e9042aa41E>
   138d0:	00e8                	addi	a0,sp,76
   138d2:	00007097          	auipc	ra,0x7
   138d6:	1a8080e7          	jalr	424(ra) # 1aa7a <_ZN9allow_pin12full_dynamic17unshare_if_shared17hcb7d6c8e9042aa41E>
   138da:	00e8                	addi	a0,sp,76
   138dc:	00007097          	auipc	ra,0x7
   138e0:	19e080e7          	jalr	414(ra) # 1aa7a <_ZN9allow_pin12full_dynamic17unshare_if_shared17hcb7d6c8e9042aa41E>
   138e4:	00198513          	addi	a0,s3,1
   138e8:	04100613          	li	a2,65
   138ec:	85ca                	mv	a1,s2
   138ee:	00007097          	auipc	ra,0x7
   138f2:	216080e7          	jalr	534(ra) # 1ab04 <memcpy>
   138f6:	4501                	li	a0,0
   138f8:	b765                	j	138a0 <_ZN20complex_full_dynamic3app17h620fb3c81a52751fE+0xa2>

000138fa <_ZN20complex_full_dynamic3app17h6ab6b5e9a5fecc87E>:
   138fa:	7135                	addi	sp,sp,-160
   138fc:	cf06                	sw	ra,156(sp)
   138fe:	cd22                	sw	s0,152(sp)
   13900:	cb26                	sw	s1,148(sp)
   13902:	c94a                	sw	s2,144(sp)
   13904:	c74e                	sw	s3,140(sp)
   13906:	89aa                	mv	s3,a0
   13908:	4409                	li	s0,2
   1390a:	00810a23          	sb	s0,20(sp)
   1390e:	0824                	addi	s1,sp,24
   13910:	02e00613          	li	a2,46
   13914:	8526                	mv	a0,s1
   13916:	00007097          	auipc	ra,0x7
   1391a:	1ee080e7          	jalr	494(ra) # 1ab04 <memcpy>
   1391e:	05410913          	addi	s2,sp,84
   13922:	03800613          	li	a2,56
   13926:	854a                	mv	a0,s2
   13928:	4581                	li	a1,0
   1392a:	00007097          	auipc	ra,0x7
   1392e:	16e080e7          	jalr	366(ra) # 1aa98 <memset>
   13932:	8626                	mv	a2,s1
   13934:	04810823          	sb	s0,80(sp)
   13938:	6505                	lui	a0,0x1
   1393a:	44a5                	li	s1,9
   1393c:	4811                	li	a6,4
   1393e:	45a5                	li	a1,9
   13940:	a9d50793          	addi	a5,a0,-1379 # a9d <.Lline_table_start1+0x872>
   13944:	02e00693          	li	a3,46
   13948:	4711                	li	a4,4
   1394a:	853e                	mv	a0,a5
   1394c:	00000073          	ecall
   13950:	04850363          	beq	a0,s0,13996 <_ZN20complex_full_dynamic3app17h6ab6b5e9a5fecc87E+0x9c>
   13954:	853e                	mv	a0,a5
   13956:	864a                	mv	a2,s2
   13958:	c63e                	sw	a5,12(sp)
   1395a:	c826                	sw	s1,16(sp)
   1395c:	01010a23          	sb	a6,20(sp)
   13960:	448d                	li	s1,3
   13962:	45a5                	li	a1,9
   13964:	03800693          	li	a3,56
   13968:	470d                	li	a4,3
   1396a:	00000073          	ecall
   1396e:	02850463          	beq	a0,s0,13996 <_ZN20complex_full_dynamic3app17h6ab6b5e9a5fecc87E+0x9c>
   13972:	4525                	li	a0,9
   13974:	6685                	lui	a3,0x1
   13976:	45a5                	li	a1,9
   13978:	4625                	li	a2,9
   1397a:	c4be                	sw	a5,72(sp)
   1397c:	c6aa                	sw	a0,76(sp)
   1397e:	04910823          	sb	s1,80(sp)
   13982:	a9d68513          	addi	a0,a3,-1379 # a9d <.Lline_table_start1+0x872>
   13986:	4709                	li	a4,2
   13988:	07f00793          	li	a5,127
   1398c:	4681                	li	a3,0
   1398e:	00000073          	ecall
   13992:	02a7e863          	bltu	a5,a0,139c2 <_ZN20complex_full_dynamic3app17h6ab6b5e9a5fecc87E+0xc8>
   13996:	00b9a223          	sw	a1,4(s3)
   1399a:	4505                	li	a0,1
   1399c:	00a98023          	sb	a0,0(s3)
   139a0:	00a8                	addi	a0,sp,72
   139a2:	00007097          	auipc	ra,0x7
   139a6:	0d8080e7          	jalr	216(ra) # 1aa7a <_ZN9allow_pin12full_dynamic17unshare_if_shared17hcb7d6c8e9042aa41E>
   139aa:	0068                	addi	a0,sp,12
   139ac:	00007097          	auipc	ra,0x7
   139b0:	0ce080e7          	jalr	206(ra) # 1aa7a <_ZN9allow_pin12full_dynamic17unshare_if_shared17hcb7d6c8e9042aa41E>
   139b4:	40fa                	lw	ra,156(sp)
   139b6:	446a                	lw	s0,152(sp)
   139b8:	44da                	lw	s1,148(sp)
   139ba:	494a                	lw	s2,144(sp)
   139bc:	49ba                	lw	s3,140(sp)
   139be:	610d                	addi	sp,sp,160
   139c0:	8082                	ret
   139c2:	0068                	addi	a0,sp,12
   139c4:	00007097          	auipc	ra,0x7
   139c8:	0b6080e7          	jalr	182(ra) # 1aa7a <_ZN9allow_pin12full_dynamic17unshare_if_shared17hcb7d6c8e9042aa41E>
   139cc:	00a8                	addi	a0,sp,72
   139ce:	00007097          	auipc	ra,0x7
   139d2:	0ac080e7          	jalr	172(ra) # 1aa7a <_ZN9allow_pin12full_dynamic17unshare_if_shared17hcb7d6c8e9042aa41E>
   139d6:	00a8                	addi	a0,sp,72
   139d8:	00007097          	auipc	ra,0x7
   139dc:	0a2080e7          	jalr	162(ra) # 1aa7a <_ZN9allow_pin12full_dynamic17unshare_if_shared17hcb7d6c8e9042aa41E>
   139e0:	00198513          	addi	a0,s3,1
   139e4:	03800613          	li	a2,56
   139e8:	85ca                	mv	a1,s2
   139ea:	00007097          	auipc	ra,0x7
   139ee:	11a080e7          	jalr	282(ra) # 1ab04 <memcpy>
   139f2:	4501                	li	a0,0
   139f4:	b765                	j	1399c <_ZN20complex_full_dynamic3app17h6ab6b5e9a5fecc87E+0xa2>

000139f6 <_ZN20complex_full_dynamic3app17h738a2e2e3518471dE>:
   139f6:	7135                	addi	sp,sp,-160
   139f8:	cf06                	sw	ra,156(sp)
   139fa:	cd22                	sw	s0,152(sp)
   139fc:	cb26                	sw	s1,148(sp)
   139fe:	c94a                	sw	s2,144(sp)
   13a00:	c74e                	sw	s3,140(sp)
   13a02:	89aa                	mv	s3,a0
   13a04:	4409                	li	s0,2
   13a06:	00810423          	sb	s0,8(sp)
   13a0a:	0064                	addi	s1,sp,12
   13a0c:	05d00613          	li	a2,93
   13a10:	8526                	mv	a0,s1
   13a12:	00007097          	auipc	ra,0x7
   13a16:	0f2080e7          	jalr	242(ra) # 1ab04 <memcpy>
   13a1a:	07810913          	addi	s2,sp,120
   13a1e:	4649                	li	a2,18
   13a20:	854a                	mv	a0,s2
   13a22:	4581                	li	a1,0
   13a24:	00007097          	auipc	ra,0x7
   13a28:	074080e7          	jalr	116(ra) # 1aa98 <memset>
   13a2c:	4581                	li	a1,0
   13a2e:	8626                	mv	a2,s1
   13a30:	06810a23          	sb	s0,116(sp)
   13a34:	6505                	lui	a0,0x1
   13a36:	4491                	li	s1,4
   13a38:	5f150793          	addi	a5,a0,1521 # 15f1 <.Lline_table_start1+0x13c6>
   13a3c:	05d00693          	li	a3,93
   13a40:	4711                	li	a4,4
   13a42:	853e                	mv	a0,a5
   13a44:	00000073          	ecall
   13a48:	04850263          	beq	a0,s0,13a8c <_ZN20complex_full_dynamic3app17h738a2e2e3518471dE+0x96>
   13a4c:	853e                	mv	a0,a5
   13a4e:	864a                	mv	a2,s2
   13a50:	c03e                	sw	a5,0(sp)
   13a52:	c202                	sw	zero,4(sp)
   13a54:	00910423          	sb	s1,8(sp)
   13a58:	448d                	li	s1,3
   13a5a:	4589                	li	a1,2
   13a5c:	46c9                	li	a3,18
   13a5e:	470d                	li	a4,3
   13a60:	00000073          	ecall
   13a64:	02850463          	beq	a0,s0,13a8c <_ZN20complex_full_dynamic3app17h738a2e2e3518471dE+0x96>
   13a68:	4509                	li	a0,2
   13a6a:	6585                	lui	a1,0x1
   13a6c:	4609                	li	a2,2
   13a6e:	d6be                	sw	a5,108(sp)
   13a70:	d8aa                	sw	a0,112(sp)
   13a72:	06910a23          	sb	s1,116(sp)
   13a76:	5f158513          	addi	a0,a1,1521 # 15f1 <.Lline_table_start1+0x13c6>
   13a7a:	4709                	li	a4,2
   13a7c:	07f00793          	li	a5,127
   13a80:	4581                	li	a1,0
   13a82:	4681                	li	a3,0
   13a84:	00000073          	ecall
   13a88:	02a7e863          	bltu	a5,a0,13ab8 <_ZN20complex_full_dynamic3app17h738a2e2e3518471dE+0xc2>
   13a8c:	00b9a223          	sw	a1,4(s3)
   13a90:	4505                	li	a0,1
   13a92:	00a98023          	sb	a0,0(s3)
   13a96:	10e8                	addi	a0,sp,108
   13a98:	00007097          	auipc	ra,0x7
   13a9c:	fe2080e7          	jalr	-30(ra) # 1aa7a <_ZN9allow_pin12full_dynamic17unshare_if_shared17hcb7d6c8e9042aa41E>
   13aa0:	850a                	mv	a0,sp
   13aa2:	00007097          	auipc	ra,0x7
   13aa6:	fd8080e7          	jalr	-40(ra) # 1aa7a <_ZN9allow_pin12full_dynamic17unshare_if_shared17hcb7d6c8e9042aa41E>
   13aaa:	40fa                	lw	ra,156(sp)
   13aac:	446a                	lw	s0,152(sp)
   13aae:	44da                	lw	s1,148(sp)
   13ab0:	494a                	lw	s2,144(sp)
   13ab2:	49ba                	lw	s3,140(sp)
   13ab4:	610d                	addi	sp,sp,160
   13ab6:	8082                	ret
   13ab8:	850a                	mv	a0,sp
   13aba:	00007097          	auipc	ra,0x7
   13abe:	fc0080e7          	jalr	-64(ra) # 1aa7a <_ZN9allow_pin12full_dynamic17unshare_if_shared17hcb7d6c8e9042aa41E>
   13ac2:	10e8                	addi	a0,sp,108
   13ac4:	00007097          	auipc	ra,0x7
   13ac8:	fb6080e7          	jalr	-74(ra) # 1aa7a <_ZN9allow_pin12full_dynamic17unshare_if_shared17hcb7d6c8e9042aa41E>
   13acc:	10e8                	addi	a0,sp,108
   13ace:	00007097          	auipc	ra,0x7
   13ad2:	fac080e7          	jalr	-84(ra) # 1aa7a <_ZN9allow_pin12full_dynamic17unshare_if_shared17hcb7d6c8e9042aa41E>
   13ad6:	00198513          	addi	a0,s3,1
   13ada:	4649                	li	a2,18
   13adc:	85ca                	mv	a1,s2
   13ade:	00007097          	auipc	ra,0x7
   13ae2:	026080e7          	jalr	38(ra) # 1ab04 <memcpy>
   13ae6:	4501                	li	a0,0
   13ae8:	b76d                	j	13a92 <_ZN20complex_full_dynamic3app17h738a2e2e3518471dE+0x9c>

00013aea <_ZN20complex_full_dynamic3app17h772d43797ba93062E>:
   13aea:	7131                	addi	sp,sp,-192
   13aec:	df06                	sw	ra,188(sp)
   13aee:	dd22                	sw	s0,184(sp)
   13af0:	db26                	sw	s1,180(sp)
   13af2:	d94a                	sw	s2,176(sp)
   13af4:	d74e                	sw	s3,172(sp)
   13af6:	89aa                	mv	s3,a0
   13af8:	4409                	li	s0,2
   13afa:	00810823          	sb	s0,16(sp)
   13afe:	0844                	addi	s1,sp,20
   13b00:	05000613          	li	a2,80
   13b04:	8526                	mv	a0,s1
   13b06:	00007097          	auipc	ra,0x7
   13b0a:	ffe080e7          	jalr	-2(ra) # 1ab04 <memcpy>
   13b0e:	07010913          	addi	s2,sp,112
   13b12:	03c00613          	li	a2,60
   13b16:	854a                	mv	a0,s2
   13b18:	4581                	li	a1,0
   13b1a:	00007097          	auipc	ra,0x7
   13b1e:	f7e080e7          	jalr	-130(ra) # 1aa98 <memset>
   13b22:	8626                	mv	a2,s1
   13b24:	06810623          	sb	s0,108(sp)
   13b28:	6505                	lui	a0,0x1
   13b2a:	448d                	li	s1,3
   13b2c:	4811                	li	a6,4
   13b2e:	458d                	li	a1,3
   13b30:	d7a50793          	addi	a5,a0,-646 # d7a <.Lline_table_start1+0xb4f>
   13b34:	05000693          	li	a3,80
   13b38:	4711                	li	a4,4
   13b3a:	853e                	mv	a0,a5
   13b3c:	00000073          	ecall
   13b40:	04850363          	beq	a0,s0,13b86 <_ZN20complex_full_dynamic3app17h772d43797ba93062E+0x9c>
   13b44:	853e                	mv	a0,a5
   13b46:	864a                	mv	a2,s2
   13b48:	c43e                	sw	a5,8(sp)
   13b4a:	c626                	sw	s1,12(sp)
   13b4c:	01010823          	sb	a6,16(sp)
   13b50:	44a5                	li	s1,9
   13b52:	45a5                	li	a1,9
   13b54:	03c00693          	li	a3,60
   13b58:	470d                	li	a4,3
   13b5a:	00000073          	ecall
   13b5e:	02850463          	beq	a0,s0,13b86 <_ZN20complex_full_dynamic3app17h772d43797ba93062E+0x9c>
   13b62:	450d                	li	a0,3
   13b64:	6685                	lui	a3,0x1
   13b66:	458d                	li	a1,3
   13b68:	4625                	li	a2,9
   13b6a:	d2be                	sw	a5,100(sp)
   13b6c:	d4a6                	sw	s1,104(sp)
   13b6e:	06a10623          	sb	a0,108(sp)
   13b72:	d7a68513          	addi	a0,a3,-646 # d7a <.Lline_table_start1+0xb4f>
   13b76:	4709                	li	a4,2
   13b78:	07f00793          	li	a5,127
   13b7c:	4681                	li	a3,0
   13b7e:	00000073          	ecall
   13b82:	02a7e863          	bltu	a5,a0,13bb2 <_ZN20complex_full_dynamic3app17h772d43797ba93062E+0xc8>
   13b86:	00b9a223          	sw	a1,4(s3)
   13b8a:	4505                	li	a0,1
   13b8c:	00a98023          	sb	a0,0(s3)
   13b90:	10c8                	addi	a0,sp,100
   13b92:	00007097          	auipc	ra,0x7
   13b96:	ee8080e7          	jalr	-280(ra) # 1aa7a <_ZN9allow_pin12full_dynamic17unshare_if_shared17hcb7d6c8e9042aa41E>
   13b9a:	0028                	addi	a0,sp,8
   13b9c:	00007097          	auipc	ra,0x7
   13ba0:	ede080e7          	jalr	-290(ra) # 1aa7a <_ZN9allow_pin12full_dynamic17unshare_if_shared17hcb7d6c8e9042aa41E>
   13ba4:	50fa                	lw	ra,188(sp)
   13ba6:	546a                	lw	s0,184(sp)
   13ba8:	54da                	lw	s1,180(sp)
   13baa:	594a                	lw	s2,176(sp)
   13bac:	59ba                	lw	s3,172(sp)
   13bae:	6129                	addi	sp,sp,192
   13bb0:	8082                	ret
   13bb2:	0028                	addi	a0,sp,8
   13bb4:	00007097          	auipc	ra,0x7
   13bb8:	ec6080e7          	jalr	-314(ra) # 1aa7a <_ZN9allow_pin12full_dynamic17unshare_if_shared17hcb7d6c8e9042aa41E>
   13bbc:	10c8                	addi	a0,sp,100
   13bbe:	00007097          	auipc	ra,0x7
   13bc2:	ebc080e7          	jalr	-324(ra) # 1aa7a <_ZN9allow_pin12full_dynamic17unshare_if_shared17hcb7d6c8e9042aa41E>
   13bc6:	10c8                	addi	a0,sp,100
   13bc8:	00007097          	auipc	ra,0x7
   13bcc:	eb2080e7          	jalr	-334(ra) # 1aa7a <_ZN9allow_pin12full_dynamic17unshare_if_shared17hcb7d6c8e9042aa41E>
   13bd0:	00198513          	addi	a0,s3,1
   13bd4:	03c00613          	li	a2,60
   13bd8:	85ca                	mv	a1,s2
   13bda:	00007097          	auipc	ra,0x7
   13bde:	f2a080e7          	jalr	-214(ra) # 1ab04 <memcpy>
   13be2:	4501                	li	a0,0
   13be4:	b765                	j	13b8c <_ZN20complex_full_dynamic3app17h772d43797ba93062E+0xa2>

00013be6 <_ZN20complex_full_dynamic3app17h77a3783f93b10908E>:
   13be6:	7135                	addi	sp,sp,-160
   13be8:	cf06                	sw	ra,156(sp)
   13bea:	cd22                	sw	s0,152(sp)
   13bec:	cb26                	sw	s1,148(sp)
   13bee:	c94a                	sw	s2,144(sp)
   13bf0:	c74e                	sw	s3,140(sp)
   13bf2:	89aa                	mv	s3,a0
   13bf4:	4409                	li	s0,2
   13bf6:	00810623          	sb	s0,12(sp)
   13bfa:	0804                	addi	s1,sp,16
   13bfc:	04900613          	li	a2,73
   13c00:	8526                	mv	a0,s1
   13c02:	00007097          	auipc	ra,0x7
   13c06:	f02080e7          	jalr	-254(ra) # 1ab04 <memcpy>
   13c0a:	06810913          	addi	s2,sp,104
   13c0e:	02300613          	li	a2,35
   13c12:	854a                	mv	a0,s2
   13c14:	4581                	li	a1,0
   13c16:	00007097          	auipc	ra,0x7
   13c1a:	e82080e7          	jalr	-382(ra) # 1aa98 <memset>
   13c1e:	8626                	mv	a2,s1
   13c20:	06810223          	sb	s0,100(sp)
   13c24:	6505                	lui	a0,0x1
   13c26:	449d                	li	s1,7
   13c28:	4811                	li	a6,4
   13c2a:	459d                	li	a1,7
   13c2c:	55150793          	addi	a5,a0,1361 # 1551 <.Lline_table_start1+0x1326>
   13c30:	04900693          	li	a3,73
   13c34:	4711                	li	a4,4
   13c36:	853e                	mv	a0,a5
   13c38:	00000073          	ecall
   13c3c:	04850363          	beq	a0,s0,13c82 <_ZN20complex_full_dynamic3app17h77a3783f93b10908E+0x9c>
   13c40:	853e                	mv	a0,a5
   13c42:	864a                	mv	a2,s2
   13c44:	c23e                	sw	a5,4(sp)
   13c46:	c426                	sw	s1,8(sp)
   13c48:	01010623          	sb	a6,12(sp)
   13c4c:	4485                	li	s1,1
   13c4e:	480d                	li	a6,3
   13c50:	4585                	li	a1,1
   13c52:	02300693          	li	a3,35
   13c56:	470d                	li	a4,3
   13c58:	00000073          	ecall
   13c5c:	02850363          	beq	a0,s0,13c82 <_ZN20complex_full_dynamic3app17h77a3783f93b10908E+0x9c>
   13c60:	cebe                	sw	a5,92(sp)
   13c62:	d0a6                	sw	s1,96(sp)
   13c64:	07010223          	sb	a6,100(sp)
   13c68:	6505                	lui	a0,0x1
   13c6a:	459d                	li	a1,7
   13c6c:	4605                	li	a2,1
   13c6e:	55150513          	addi	a0,a0,1361 # 1551 <.Lline_table_start1+0x1326>
   13c72:	4709                	li	a4,2
   13c74:	07f00793          	li	a5,127
   13c78:	4681                	li	a3,0
   13c7a:	00000073          	ecall
   13c7e:	02a7e863          	bltu	a5,a0,13cae <_ZN20complex_full_dynamic3app17h77a3783f93b10908E+0xc8>
   13c82:	00b9a223          	sw	a1,4(s3)
   13c86:	4505                	li	a0,1
   13c88:	00a98023          	sb	a0,0(s3)
   13c8c:	08e8                	addi	a0,sp,92
   13c8e:	00007097          	auipc	ra,0x7
   13c92:	dec080e7          	jalr	-532(ra) # 1aa7a <_ZN9allow_pin12full_dynamic17unshare_if_shared17hcb7d6c8e9042aa41E>
   13c96:	0048                	addi	a0,sp,4
   13c98:	00007097          	auipc	ra,0x7
   13c9c:	de2080e7          	jalr	-542(ra) # 1aa7a <_ZN9allow_pin12full_dynamic17unshare_if_shared17hcb7d6c8e9042aa41E>
   13ca0:	40fa                	lw	ra,156(sp)
   13ca2:	446a                	lw	s0,152(sp)
   13ca4:	44da                	lw	s1,148(sp)
   13ca6:	494a                	lw	s2,144(sp)
   13ca8:	49ba                	lw	s3,140(sp)
   13caa:	610d                	addi	sp,sp,160
   13cac:	8082                	ret
   13cae:	0048                	addi	a0,sp,4
   13cb0:	00007097          	auipc	ra,0x7
   13cb4:	dca080e7          	jalr	-566(ra) # 1aa7a <_ZN9allow_pin12full_dynamic17unshare_if_shared17hcb7d6c8e9042aa41E>
   13cb8:	08e8                	addi	a0,sp,92
   13cba:	00007097          	auipc	ra,0x7
   13cbe:	dc0080e7          	jalr	-576(ra) # 1aa7a <_ZN9allow_pin12full_dynamic17unshare_if_shared17hcb7d6c8e9042aa41E>
   13cc2:	08e8                	addi	a0,sp,92
   13cc4:	00007097          	auipc	ra,0x7
   13cc8:	db6080e7          	jalr	-586(ra) # 1aa7a <_ZN9allow_pin12full_dynamic17unshare_if_shared17hcb7d6c8e9042aa41E>
   13ccc:	00198513          	addi	a0,s3,1
   13cd0:	02300613          	li	a2,35
   13cd4:	85ca                	mv	a1,s2
   13cd6:	00007097          	auipc	ra,0x7
   13cda:	e2e080e7          	jalr	-466(ra) # 1ab04 <memcpy>
   13cde:	4501                	li	a0,0
   13ce0:	b765                	j	13c88 <_ZN20complex_full_dynamic3app17h77a3783f93b10908E+0xa2>

00013ce2 <_ZN20complex_full_dynamic3app17h7bcc7e5ba883c9ffE>:
   13ce2:	7115                	addi	sp,sp,-224
   13ce4:	cf86                	sw	ra,220(sp)
   13ce6:	cda2                	sw	s0,216(sp)
   13ce8:	cba6                	sw	s1,212(sp)
   13cea:	c9ca                	sw	s2,208(sp)
   13cec:	c7ce                	sw	s3,204(sp)
   13cee:	89aa                	mv	s3,a0
   13cf0:	4409                	li	s0,2
   13cf2:	00810a23          	sb	s0,20(sp)
   13cf6:	0824                	addi	s1,sp,24
   13cf8:	05900613          	li	a2,89
   13cfc:	8526                	mv	a0,s1
   13cfe:	00007097          	auipc	ra,0x7
   13d02:	e06080e7          	jalr	-506(ra) # 1ab04 <memcpy>
   13d06:	08010913          	addi	s2,sp,128
   13d0a:	04a00613          	li	a2,74
   13d0e:	854a                	mv	a0,s2
   13d10:	4581                	li	a1,0
   13d12:	00007097          	auipc	ra,0x7
   13d16:	d86080e7          	jalr	-634(ra) # 1aa98 <memset>
   13d1a:	4581                	li	a1,0
   13d1c:	8626                	mv	a2,s1
   13d1e:	06810e23          	sb	s0,124(sp)
   13d22:	6505                	lui	a0,0x1
   13d24:	4491                	li	s1,4
   13d26:	48450793          	addi	a5,a0,1156 # 1484 <.Lline_table_start1+0x1259>
   13d2a:	05900693          	li	a3,89
   13d2e:	4711                	li	a4,4
   13d30:	853e                	mv	a0,a5
   13d32:	00000073          	ecall
   13d36:	04850363          	beq	a0,s0,13d7c <_ZN20complex_full_dynamic3app17h7bcc7e5ba883c9ffE+0x9a>
   13d3a:	853e                	mv	a0,a5
   13d3c:	864a                	mv	a2,s2
   13d3e:	c63e                	sw	a5,12(sp)
   13d40:	c802                	sw	zero,16(sp)
   13d42:	00910a23          	sb	s1,20(sp)
   13d46:	448d                	li	s1,3
   13d48:	4591                	li	a1,4
   13d4a:	04a00693          	li	a3,74
   13d4e:	470d                	li	a4,3
   13d50:	00000073          	ecall
   13d54:	02850463          	beq	a0,s0,13d7c <_ZN20complex_full_dynamic3app17h7bcc7e5ba883c9ffE+0x9a>
   13d58:	4511                	li	a0,4
   13d5a:	6585                	lui	a1,0x1
   13d5c:	4611                	li	a2,4
   13d5e:	dabe                	sw	a5,116(sp)
   13d60:	dcaa                	sw	a0,120(sp)
   13d62:	06910e23          	sb	s1,124(sp)
   13d66:	48458513          	addi	a0,a1,1156 # 1484 <.Lline_table_start1+0x1259>
   13d6a:	4709                	li	a4,2
   13d6c:	07f00793          	li	a5,127
   13d70:	4581                	li	a1,0
   13d72:	4681                	li	a3,0
   13d74:	00000073          	ecall
   13d78:	02a7e863          	bltu	a5,a0,13da8 <_ZN20complex_full_dynamic3app17h7bcc7e5ba883c9ffE+0xc6>
   13d7c:	00b9a223          	sw	a1,4(s3)
   13d80:	4505                	li	a0,1
   13d82:	00a98023          	sb	a0,0(s3)
   13d86:	18c8                	addi	a0,sp,116
   13d88:	00007097          	auipc	ra,0x7
   13d8c:	cf2080e7          	jalr	-782(ra) # 1aa7a <_ZN9allow_pin12full_dynamic17unshare_if_shared17hcb7d6c8e9042aa41E>
   13d90:	0068                	addi	a0,sp,12
   13d92:	00007097          	auipc	ra,0x7
   13d96:	ce8080e7          	jalr	-792(ra) # 1aa7a <_ZN9allow_pin12full_dynamic17unshare_if_shared17hcb7d6c8e9042aa41E>
   13d9a:	40fe                	lw	ra,220(sp)
   13d9c:	446e                	lw	s0,216(sp)
   13d9e:	44de                	lw	s1,212(sp)
   13da0:	494e                	lw	s2,208(sp)
   13da2:	49be                	lw	s3,204(sp)
   13da4:	612d                	addi	sp,sp,224
   13da6:	8082                	ret
   13da8:	0068                	addi	a0,sp,12
   13daa:	00007097          	auipc	ra,0x7
   13dae:	cd0080e7          	jalr	-816(ra) # 1aa7a <_ZN9allow_pin12full_dynamic17unshare_if_shared17hcb7d6c8e9042aa41E>
   13db2:	18c8                	addi	a0,sp,116
   13db4:	00007097          	auipc	ra,0x7
   13db8:	cc6080e7          	jalr	-826(ra) # 1aa7a <_ZN9allow_pin12full_dynamic17unshare_if_shared17hcb7d6c8e9042aa41E>
   13dbc:	18c8                	addi	a0,sp,116
   13dbe:	00007097          	auipc	ra,0x7
   13dc2:	cbc080e7          	jalr	-836(ra) # 1aa7a <_ZN9allow_pin12full_dynamic17unshare_if_shared17hcb7d6c8e9042aa41E>
   13dc6:	00198513          	addi	a0,s3,1
   13dca:	04a00613          	li	a2,74
   13dce:	85ca                	mv	a1,s2
   13dd0:	00007097          	auipc	ra,0x7
   13dd4:	d34080e7          	jalr	-716(ra) # 1ab04 <memcpy>
   13dd8:	4501                	li	a0,0
   13dda:	b765                	j	13d82 <_ZN20complex_full_dynamic3app17h7bcc7e5ba883c9ffE+0xa0>

00013ddc <_ZN20complex_full_dynamic3app17h7c9b996ac20cc9eaE>:
   13ddc:	7135                	addi	sp,sp,-160
   13dde:	cf06                	sw	ra,156(sp)
   13de0:	cd22                	sw	s0,152(sp)
   13de2:	cb26                	sw	s1,148(sp)
   13de4:	c94a                	sw	s2,144(sp)
   13de6:	c74e                	sw	s3,140(sp)
   13de8:	89aa                	mv	s3,a0
   13dea:	4409                	li	s0,2
   13dec:	00810623          	sb	s0,12(sp)
   13df0:	0804                	addi	s1,sp,16
   13df2:	03c00613          	li	a2,60
   13df6:	8526                	mv	a0,s1
   13df8:	00007097          	auipc	ra,0x7
   13dfc:	d0c080e7          	jalr	-756(ra) # 1ab04 <memcpy>
   13e00:	05810913          	addi	s2,sp,88
   13e04:	03200613          	li	a2,50
   13e08:	854a                	mv	a0,s2
   13e0a:	4581                	li	a1,0
   13e0c:	00007097          	auipc	ra,0x7
   13e10:	c8c080e7          	jalr	-884(ra) # 1aa98 <memset>
   13e14:	8626                	mv	a2,s1
   13e16:	04810a23          	sb	s0,84(sp)
   13e1a:	6509                	lui	a0,0x2
   13e1c:	4499                	li	s1,6
   13e1e:	4811                	li	a6,4
   13e20:	4599                	li	a1,6
   13e22:	b1e50793          	addi	a5,a0,-1250 # 1b1e <.Lline_table_start1+0x18f3>
   13e26:	03c00693          	li	a3,60
   13e2a:	4711                	li	a4,4
   13e2c:	853e                	mv	a0,a5
   13e2e:	00000073          	ecall
   13e32:	04850363          	beq	a0,s0,13e78 <_ZN20complex_full_dynamic3app17h7c9b996ac20cc9eaE+0x9c>
   13e36:	853e                	mv	a0,a5
   13e38:	864a                	mv	a2,s2
   13e3a:	c23e                	sw	a5,4(sp)
   13e3c:	c426                	sw	s1,8(sp)
   13e3e:	01010623          	sb	a6,12(sp)
   13e42:	44a1                	li	s1,8
   13e44:	480d                	li	a6,3
   13e46:	45a1                	li	a1,8
   13e48:	03200693          	li	a3,50
   13e4c:	470d                	li	a4,3
   13e4e:	00000073          	ecall
   13e52:	02850363          	beq	a0,s0,13e78 <_ZN20complex_full_dynamic3app17h7c9b996ac20cc9eaE+0x9c>
   13e56:	c6be                	sw	a5,76(sp)
   13e58:	c8a6                	sw	s1,80(sp)
   13e5a:	05010a23          	sb	a6,84(sp)
   13e5e:	6509                	lui	a0,0x2
   13e60:	4599                	li	a1,6
   13e62:	4621                	li	a2,8
   13e64:	b1e50513          	addi	a0,a0,-1250 # 1b1e <.Lline_table_start1+0x18f3>
   13e68:	4709                	li	a4,2
   13e6a:	07f00793          	li	a5,127
   13e6e:	4681                	li	a3,0
   13e70:	00000073          	ecall
   13e74:	02a7e863          	bltu	a5,a0,13ea4 <_ZN20complex_full_dynamic3app17h7c9b996ac20cc9eaE+0xc8>
   13e78:	00b9a223          	sw	a1,4(s3)
   13e7c:	4505                	li	a0,1
   13e7e:	00a98023          	sb	a0,0(s3)
   13e82:	00e8                	addi	a0,sp,76
   13e84:	00007097          	auipc	ra,0x7
   13e88:	bf6080e7          	jalr	-1034(ra) # 1aa7a <_ZN9allow_pin12full_dynamic17unshare_if_shared17hcb7d6c8e9042aa41E>
   13e8c:	0048                	addi	a0,sp,4
   13e8e:	00007097          	auipc	ra,0x7
   13e92:	bec080e7          	jalr	-1044(ra) # 1aa7a <_ZN9allow_pin12full_dynamic17unshare_if_shared17hcb7d6c8e9042aa41E>
   13e96:	40fa                	lw	ra,156(sp)
   13e98:	446a                	lw	s0,152(sp)
   13e9a:	44da                	lw	s1,148(sp)
   13e9c:	494a                	lw	s2,144(sp)
   13e9e:	49ba                	lw	s3,140(sp)
   13ea0:	610d                	addi	sp,sp,160
   13ea2:	8082                	ret
   13ea4:	0048                	addi	a0,sp,4
   13ea6:	00007097          	auipc	ra,0x7
   13eaa:	bd4080e7          	jalr	-1068(ra) # 1aa7a <_ZN9allow_pin12full_dynamic17unshare_if_shared17hcb7d6c8e9042aa41E>
   13eae:	00e8                	addi	a0,sp,76
   13eb0:	00007097          	auipc	ra,0x7
   13eb4:	bca080e7          	jalr	-1078(ra) # 1aa7a <_ZN9allow_pin12full_dynamic17unshare_if_shared17hcb7d6c8e9042aa41E>
   13eb8:	00e8                	addi	a0,sp,76
   13eba:	00007097          	auipc	ra,0x7
   13ebe:	bc0080e7          	jalr	-1088(ra) # 1aa7a <_ZN9allow_pin12full_dynamic17unshare_if_shared17hcb7d6c8e9042aa41E>
   13ec2:	00198513          	addi	a0,s3,1
   13ec6:	03200613          	li	a2,50
   13eca:	85ca                	mv	a1,s2
   13ecc:	00007097          	auipc	ra,0x7
   13ed0:	c38080e7          	jalr	-968(ra) # 1ab04 <memcpy>
   13ed4:	4501                	li	a0,0
   13ed6:	b765                	j	13e7e <_ZN20complex_full_dynamic3app17h7c9b996ac20cc9eaE+0xa2>

00013ed8 <_ZN20complex_full_dynamic3app17h7d6af46f7da52687E>:
   13ed8:	7175                	addi	sp,sp,-144
   13eda:	c706                	sw	ra,140(sp)
   13edc:	c522                	sw	s0,136(sp)
   13ede:	c326                	sw	s1,132(sp)
   13ee0:	c14a                	sw	s2,128(sp)
   13ee2:	dece                	sw	s3,124(sp)
   13ee4:	89aa                	mv	s3,a0
   13ee6:	4409                	li	s0,2
   13ee8:	00810a23          	sb	s0,20(sp)
   13eec:	0824                	addi	s1,sp,24
   13eee:	4639                	li	a2,14
   13ef0:	8526                	mv	a0,s1
   13ef2:	00007097          	auipc	ra,0x7
   13ef6:	c12080e7          	jalr	-1006(ra) # 1ab04 <memcpy>
   13efa:	03410913          	addi	s2,sp,52
   13efe:	04800613          	li	a2,72
   13f02:	854a                	mv	a0,s2
   13f04:	4581                	li	a1,0
   13f06:	00007097          	auipc	ra,0x7
   13f0a:	b92080e7          	jalr	-1134(ra) # 1aa98 <memset>
   13f0e:	8626                	mv	a2,s1
   13f10:	02810823          	sb	s0,48(sp)
   13f14:	6505                	lui	a0,0x1
   13f16:	448d                	li	s1,3
   13f18:	4811                	li	a6,4
   13f1a:	458d                	li	a1,3
   13f1c:	2d150793          	addi	a5,a0,721 # 12d1 <.Lline_table_start1+0x10a6>
   13f20:	46b9                	li	a3,14
   13f22:	4711                	li	a4,4
   13f24:	853e                	mv	a0,a5
   13f26:	00000073          	ecall
   13f2a:	04850363          	beq	a0,s0,13f70 <_ZN20complex_full_dynamic3app17h7d6af46f7da52687E+0x98>
   13f2e:	853e                	mv	a0,a5
   13f30:	864a                	mv	a2,s2
   13f32:	c63e                	sw	a5,12(sp)
   13f34:	c826                	sw	s1,16(sp)
   13f36:	01010a23          	sb	a6,20(sp)
   13f3a:	44a1                	li	s1,8
   13f3c:	45a1                	li	a1,8
   13f3e:	04800693          	li	a3,72
   13f42:	470d                	li	a4,3
   13f44:	00000073          	ecall
   13f48:	02850463          	beq	a0,s0,13f70 <_ZN20complex_full_dynamic3app17h7d6af46f7da52687E+0x98>
   13f4c:	450d                	li	a0,3
   13f4e:	6685                	lui	a3,0x1
   13f50:	458d                	li	a1,3
   13f52:	4621                	li	a2,8
   13f54:	d43e                	sw	a5,40(sp)
   13f56:	d626                	sw	s1,44(sp)
   13f58:	02a10823          	sb	a0,48(sp)
   13f5c:	2d168513          	addi	a0,a3,721 # 12d1 <.Lline_table_start1+0x10a6>
   13f60:	4709                	li	a4,2
   13f62:	07f00793          	li	a5,127
   13f66:	4681                	li	a3,0
   13f68:	00000073          	ecall
   13f6c:	02a7e863          	bltu	a5,a0,13f9c <_ZN20complex_full_dynamic3app17h7d6af46f7da52687E+0xc4>
   13f70:	00b9a223          	sw	a1,4(s3)
   13f74:	4505                	li	a0,1
   13f76:	00a98023          	sb	a0,0(s3)
   13f7a:	1028                	addi	a0,sp,40
   13f7c:	00007097          	auipc	ra,0x7
   13f80:	afe080e7          	jalr	-1282(ra) # 1aa7a <_ZN9allow_pin12full_dynamic17unshare_if_shared17hcb7d6c8e9042aa41E>
   13f84:	0068                	addi	a0,sp,12
   13f86:	00007097          	auipc	ra,0x7
   13f8a:	af4080e7          	jalr	-1292(ra) # 1aa7a <_ZN9allow_pin12full_dynamic17unshare_if_shared17hcb7d6c8e9042aa41E>
   13f8e:	40ba                	lw	ra,140(sp)
   13f90:	442a                	lw	s0,136(sp)
   13f92:	449a                	lw	s1,132(sp)
   13f94:	490a                	lw	s2,128(sp)
   13f96:	59f6                	lw	s3,124(sp)
   13f98:	6149                	addi	sp,sp,144
   13f9a:	8082                	ret
   13f9c:	0068                	addi	a0,sp,12
   13f9e:	00007097          	auipc	ra,0x7
   13fa2:	adc080e7          	jalr	-1316(ra) # 1aa7a <_ZN9allow_pin12full_dynamic17unshare_if_shared17hcb7d6c8e9042aa41E>
   13fa6:	1028                	addi	a0,sp,40
   13fa8:	00007097          	auipc	ra,0x7
   13fac:	ad2080e7          	jalr	-1326(ra) # 1aa7a <_ZN9allow_pin12full_dynamic17unshare_if_shared17hcb7d6c8e9042aa41E>
   13fb0:	1028                	addi	a0,sp,40
   13fb2:	00007097          	auipc	ra,0x7
   13fb6:	ac8080e7          	jalr	-1336(ra) # 1aa7a <_ZN9allow_pin12full_dynamic17unshare_if_shared17hcb7d6c8e9042aa41E>
   13fba:	00198513          	addi	a0,s3,1
   13fbe:	04800613          	li	a2,72
   13fc2:	85ca                	mv	a1,s2
   13fc4:	00007097          	auipc	ra,0x7
   13fc8:	b40080e7          	jalr	-1216(ra) # 1ab04 <memcpy>
   13fcc:	4501                	li	a0,0
   13fce:	b765                	j	13f76 <_ZN20complex_full_dynamic3app17h7d6af46f7da52687E+0x9e>

00013fd0 <_ZN20complex_full_dynamic3app17h7da6cf7ba106af06E>:
   13fd0:	7175                	addi	sp,sp,-144
   13fd2:	c706                	sw	ra,140(sp)
   13fd4:	c522                	sw	s0,136(sp)
   13fd6:	c326                	sw	s1,132(sp)
   13fd8:	c14a                	sw	s2,128(sp)
   13fda:	dece                	sw	s3,124(sp)
   13fdc:	89aa                	mv	s3,a0
   13fde:	4409                	li	s0,2
   13fe0:	00810a23          	sb	s0,20(sp)
   13fe4:	0824                	addi	s1,sp,24
   13fe6:	02c00613          	li	a2,44
   13fea:	8526                	mv	a0,s1
   13fec:	00007097          	auipc	ra,0x7
   13ff0:	b18080e7          	jalr	-1256(ra) # 1ab04 <memcpy>
   13ff4:	05010913          	addi	s2,sp,80
   13ff8:	02a00613          	li	a2,42
   13ffc:	854a                	mv	a0,s2
   13ffe:	4581                	li	a1,0
   14000:	00007097          	auipc	ra,0x7
   14004:	a98080e7          	jalr	-1384(ra) # 1aa98 <memset>
   14008:	8626                	mv	a2,s1
   1400a:	04810623          	sb	s0,76(sp)
   1400e:	6509                	lui	a0,0x2
   14010:	448d                	li	s1,3
   14012:	4811                	li	a6,4
   14014:	458d                	li	a1,3
   14016:	4f050793          	addi	a5,a0,1264 # 24f0 <.Lline_table_start1+0x22c5>
   1401a:	02c00693          	li	a3,44
   1401e:	4711                	li	a4,4
   14020:	853e                	mv	a0,a5
   14022:	00000073          	ecall
   14026:	04850263          	beq	a0,s0,1406a <_ZN20complex_full_dynamic3app17h7da6cf7ba106af06E+0x9a>
   1402a:	c63e                	sw	a5,12(sp)
   1402c:	c826                	sw	s1,16(sp)
   1402e:	01010a23          	sb	a6,20(sp)
   14032:	02a00693          	li	a3,42
   14036:	470d                	li	a4,3
   14038:	853e                	mv	a0,a5
   1403a:	4581                	li	a1,0
   1403c:	864a                	mv	a2,s2
   1403e:	00000073          	ecall
   14042:	02850463          	beq	a0,s0,1406a <_ZN20complex_full_dynamic3app17h7da6cf7ba106af06E+0x9a>
   14046:	450d                	li	a0,3
   14048:	6609                	lui	a2,0x2
   1404a:	458d                	li	a1,3
   1404c:	c2be                	sw	a5,68(sp)
   1404e:	c482                	sw	zero,72(sp)
   14050:	04a10623          	sb	a0,76(sp)
   14054:	4f060513          	addi	a0,a2,1264 # 24f0 <.Lline_table_start1+0x22c5>
   14058:	4709                	li	a4,2
   1405a:	07f00793          	li	a5,127
   1405e:	4601                	li	a2,0
   14060:	4681                	li	a3,0
   14062:	00000073          	ecall
   14066:	02a7e863          	bltu	a5,a0,14096 <_ZN20complex_full_dynamic3app17h7da6cf7ba106af06E+0xc6>
   1406a:	00b9a223          	sw	a1,4(s3)
   1406e:	4505                	li	a0,1
   14070:	00a98023          	sb	a0,0(s3)
   14074:	00c8                	addi	a0,sp,68
   14076:	00007097          	auipc	ra,0x7
   1407a:	a04080e7          	jalr	-1532(ra) # 1aa7a <_ZN9allow_pin12full_dynamic17unshare_if_shared17hcb7d6c8e9042aa41E>
   1407e:	0068                	addi	a0,sp,12
   14080:	00007097          	auipc	ra,0x7
   14084:	9fa080e7          	jalr	-1542(ra) # 1aa7a <_ZN9allow_pin12full_dynamic17unshare_if_shared17hcb7d6c8e9042aa41E>
   14088:	40ba                	lw	ra,140(sp)
   1408a:	442a                	lw	s0,136(sp)
   1408c:	449a                	lw	s1,132(sp)
   1408e:	490a                	lw	s2,128(sp)
   14090:	59f6                	lw	s3,124(sp)
   14092:	6149                	addi	sp,sp,144
   14094:	8082                	ret
   14096:	0068                	addi	a0,sp,12
   14098:	00007097          	auipc	ra,0x7
   1409c:	9e2080e7          	jalr	-1566(ra) # 1aa7a <_ZN9allow_pin12full_dynamic17unshare_if_shared17hcb7d6c8e9042aa41E>
   140a0:	00c8                	addi	a0,sp,68
   140a2:	00007097          	auipc	ra,0x7
   140a6:	9d8080e7          	jalr	-1576(ra) # 1aa7a <_ZN9allow_pin12full_dynamic17unshare_if_shared17hcb7d6c8e9042aa41E>
   140aa:	00c8                	addi	a0,sp,68
   140ac:	00007097          	auipc	ra,0x7
   140b0:	9ce080e7          	jalr	-1586(ra) # 1aa7a <_ZN9allow_pin12full_dynamic17unshare_if_shared17hcb7d6c8e9042aa41E>
   140b4:	00198513          	addi	a0,s3,1
   140b8:	02a00613          	li	a2,42
   140bc:	85ca                	mv	a1,s2
   140be:	00007097          	auipc	ra,0x7
   140c2:	a46080e7          	jalr	-1466(ra) # 1ab04 <memcpy>
   140c6:	4501                	li	a0,0
   140c8:	b765                	j	14070 <_ZN20complex_full_dynamic3app17h7da6cf7ba106af06E+0xa0>

000140ca <_ZN20complex_full_dynamic3app17h7dfbff8a6797d398E>:
   140ca:	7135                	addi	sp,sp,-160
   140cc:	cf06                	sw	ra,156(sp)
   140ce:	cd22                	sw	s0,152(sp)
   140d0:	cb26                	sw	s1,148(sp)
   140d2:	c94a                	sw	s2,144(sp)
   140d4:	c74e                	sw	s3,140(sp)
   140d6:	89aa                	mv	s3,a0
   140d8:	4409                	li	s0,2
   140da:	00810a23          	sb	s0,20(sp)
   140de:	0824                	addi	s1,sp,24
   140e0:	03c00613          	li	a2,60
   140e4:	8526                	mv	a0,s1
   140e6:	00007097          	auipc	ra,0x7
   140ea:	a1e080e7          	jalr	-1506(ra) # 1ab04 <memcpy>
   140ee:	06010913          	addi	s2,sp,96
   140f2:	02c00613          	li	a2,44
   140f6:	854a                	mv	a0,s2
   140f8:	4581                	li	a1,0
   140fa:	00007097          	auipc	ra,0x7
   140fe:	99e080e7          	jalr	-1634(ra) # 1aa98 <memset>
   14102:	8626                	mv	a2,s1
   14104:	04810e23          	sb	s0,92(sp)
   14108:	6509                	lui	a0,0x2
   1410a:	4495                	li	s1,5
   1410c:	4811                	li	a6,4
   1410e:	4595                	li	a1,5
   14110:	eac50793          	addi	a5,a0,-340 # 1eac <.Lline_table_start1+0x1c81>
   14114:	03c00693          	li	a3,60
   14118:	4711                	li	a4,4
   1411a:	853e                	mv	a0,a5
   1411c:	00000073          	ecall
   14120:	04850363          	beq	a0,s0,14166 <_ZN20complex_full_dynamic3app17h7dfbff8a6797d398E+0x9c>
   14124:	853e                	mv	a0,a5
   14126:	864a                	mv	a2,s2
   14128:	c63e                	sw	a5,12(sp)
   1412a:	c826                	sw	s1,16(sp)
   1412c:	01010a23          	sb	a6,20(sp)
   14130:	449d                	li	s1,7
   14132:	480d                	li	a6,3
   14134:	459d                	li	a1,7
   14136:	02c00693          	li	a3,44
   1413a:	470d                	li	a4,3
   1413c:	00000073          	ecall
   14140:	02850363          	beq	a0,s0,14166 <_ZN20complex_full_dynamic3app17h7dfbff8a6797d398E+0x9c>
   14144:	cabe                	sw	a5,84(sp)
   14146:	cca6                	sw	s1,88(sp)
   14148:	05010e23          	sb	a6,92(sp)
   1414c:	6509                	lui	a0,0x2
   1414e:	4595                	li	a1,5
   14150:	461d                	li	a2,7
   14152:	eac50513          	addi	a0,a0,-340 # 1eac <.Lline_table_start1+0x1c81>
   14156:	4709                	li	a4,2
   14158:	07f00793          	li	a5,127
   1415c:	4681                	li	a3,0
   1415e:	00000073          	ecall
   14162:	02a7e863          	bltu	a5,a0,14192 <_ZN20complex_full_dynamic3app17h7dfbff8a6797d398E+0xc8>
   14166:	00b9a223          	sw	a1,4(s3)
   1416a:	4505                	li	a0,1
   1416c:	00a98023          	sb	a0,0(s3)
   14170:	08c8                	addi	a0,sp,84
   14172:	00007097          	auipc	ra,0x7
   14176:	908080e7          	jalr	-1784(ra) # 1aa7a <_ZN9allow_pin12full_dynamic17unshare_if_shared17hcb7d6c8e9042aa41E>
   1417a:	0068                	addi	a0,sp,12
   1417c:	00007097          	auipc	ra,0x7
   14180:	8fe080e7          	jalr	-1794(ra) # 1aa7a <_ZN9allow_pin12full_dynamic17unshare_if_shared17hcb7d6c8e9042aa41E>
   14184:	40fa                	lw	ra,156(sp)
   14186:	446a                	lw	s0,152(sp)
   14188:	44da                	lw	s1,148(sp)
   1418a:	494a                	lw	s2,144(sp)
   1418c:	49ba                	lw	s3,140(sp)
   1418e:	610d                	addi	sp,sp,160
   14190:	8082                	ret
   14192:	0068                	addi	a0,sp,12
   14194:	00007097          	auipc	ra,0x7
   14198:	8e6080e7          	jalr	-1818(ra) # 1aa7a <_ZN9allow_pin12full_dynamic17unshare_if_shared17hcb7d6c8e9042aa41E>
   1419c:	08c8                	addi	a0,sp,84
   1419e:	00007097          	auipc	ra,0x7
   141a2:	8dc080e7          	jalr	-1828(ra) # 1aa7a <_ZN9allow_pin12full_dynamic17unshare_if_shared17hcb7d6c8e9042aa41E>
   141a6:	08c8                	addi	a0,sp,84
   141a8:	00007097          	auipc	ra,0x7
   141ac:	8d2080e7          	jalr	-1838(ra) # 1aa7a <_ZN9allow_pin12full_dynamic17unshare_if_shared17hcb7d6c8e9042aa41E>
   141b0:	00198513          	addi	a0,s3,1
   141b4:	02c00613          	li	a2,44
   141b8:	85ca                	mv	a1,s2
   141ba:	00007097          	auipc	ra,0x7
   141be:	94a080e7          	jalr	-1718(ra) # 1ab04 <memcpy>
   141c2:	4501                	li	a0,0
   141c4:	b765                	j	1416c <_ZN20complex_full_dynamic3app17h7dfbff8a6797d398E+0xa2>

000141c6 <_ZN20complex_full_dynamic3app17h7ef3e9fa1adf1084E>:
   141c6:	7119                	addi	sp,sp,-128
   141c8:	de86                	sw	ra,124(sp)
   141ca:	dca2                	sw	s0,120(sp)
   141cc:	daa6                	sw	s1,116(sp)
   141ce:	d8ca                	sw	s2,112(sp)
   141d0:	d6ce                	sw	s3,108(sp)
   141d2:	89aa                	mv	s3,a0
   141d4:	4409                	li	s0,2
   141d6:	00810a23          	sb	s0,20(sp)
   141da:	0824                	addi	s1,sp,24
   141dc:	02300613          	li	a2,35
   141e0:	8526                	mv	a0,s1
   141e2:	00007097          	auipc	ra,0x7
   141e6:	922080e7          	jalr	-1758(ra) # 1ab04 <memcpy>
   141ea:	04810913          	addi	s2,sp,72
   141ee:	02400613          	li	a2,36
   141f2:	854a                	mv	a0,s2
   141f4:	4581                	li	a1,0
   141f6:	00007097          	auipc	ra,0x7
   141fa:	8a2080e7          	jalr	-1886(ra) # 1aa98 <memset>
   141fe:	8626                	mv	a2,s1
   14200:	04810223          	sb	s0,68(sp)
   14204:	6509                	lui	a0,0x2
   14206:	4491                	li	s1,4
   14208:	4591                	li	a1,4
   1420a:	bd650793          	addi	a5,a0,-1066 # 1bd6 <.Lline_table_start1+0x19ab>
   1420e:	02300693          	li	a3,35
   14212:	4711                	li	a4,4
   14214:	853e                	mv	a0,a5
   14216:	00000073          	ecall
   1421a:	04850363          	beq	a0,s0,14260 <_ZN20complex_full_dynamic3app17h7ef3e9fa1adf1084E+0x9a>
   1421e:	853e                	mv	a0,a5
   14220:	864a                	mv	a2,s2
   14222:	c63e                	sw	a5,12(sp)
   14224:	c826                	sw	s1,16(sp)
   14226:	00910a23          	sb	s1,20(sp)
   1422a:	44a1                	li	s1,8
   1422c:	480d                	li	a6,3
   1422e:	45a1                	li	a1,8
   14230:	02400693          	li	a3,36
   14234:	470d                	li	a4,3
   14236:	00000073          	ecall
   1423a:	02850363          	beq	a0,s0,14260 <_ZN20complex_full_dynamic3app17h7ef3e9fa1adf1084E+0x9a>
   1423e:	de3e                	sw	a5,60(sp)
   14240:	c0a6                	sw	s1,64(sp)
   14242:	05010223          	sb	a6,68(sp)
   14246:	6509                	lui	a0,0x2
   14248:	4591                	li	a1,4
   1424a:	4621                	li	a2,8
   1424c:	bd650513          	addi	a0,a0,-1066 # 1bd6 <.Lline_table_start1+0x19ab>
   14250:	4709                	li	a4,2
   14252:	07f00793          	li	a5,127
   14256:	4681                	li	a3,0
   14258:	00000073          	ecall
   1425c:	02a7e863          	bltu	a5,a0,1428c <_ZN20complex_full_dynamic3app17h7ef3e9fa1adf1084E+0xc6>
   14260:	00b9a223          	sw	a1,4(s3)
   14264:	4505                	li	a0,1
   14266:	00a98023          	sb	a0,0(s3)
   1426a:	1868                	addi	a0,sp,60
   1426c:	00007097          	auipc	ra,0x7
   14270:	80e080e7          	jalr	-2034(ra) # 1aa7a <_ZN9allow_pin12full_dynamic17unshare_if_shared17hcb7d6c8e9042aa41E>
   14274:	0068                	addi	a0,sp,12
   14276:	00007097          	auipc	ra,0x7
   1427a:	804080e7          	jalr	-2044(ra) # 1aa7a <_ZN9allow_pin12full_dynamic17unshare_if_shared17hcb7d6c8e9042aa41E>
   1427e:	50f6                	lw	ra,124(sp)
   14280:	5466                	lw	s0,120(sp)
   14282:	54d6                	lw	s1,116(sp)
   14284:	5946                	lw	s2,112(sp)
   14286:	59b6                	lw	s3,108(sp)
   14288:	6109                	addi	sp,sp,128
   1428a:	8082                	ret
   1428c:	0068                	addi	a0,sp,12
   1428e:	00006097          	auipc	ra,0x6
   14292:	7ec080e7          	jalr	2028(ra) # 1aa7a <_ZN9allow_pin12full_dynamic17unshare_if_shared17hcb7d6c8e9042aa41E>
   14296:	1868                	addi	a0,sp,60
   14298:	00006097          	auipc	ra,0x6
   1429c:	7e2080e7          	jalr	2018(ra) # 1aa7a <_ZN9allow_pin12full_dynamic17unshare_if_shared17hcb7d6c8e9042aa41E>
   142a0:	1868                	addi	a0,sp,60
   142a2:	00006097          	auipc	ra,0x6
   142a6:	7d8080e7          	jalr	2008(ra) # 1aa7a <_ZN9allow_pin12full_dynamic17unshare_if_shared17hcb7d6c8e9042aa41E>
   142aa:	00198513          	addi	a0,s3,1
   142ae:	02400613          	li	a2,36
   142b2:	85ca                	mv	a1,s2
   142b4:	00007097          	auipc	ra,0x7
   142b8:	850080e7          	jalr	-1968(ra) # 1ab04 <memcpy>
   142bc:	4501                	li	a0,0
   142be:	b765                	j	14266 <_ZN20complex_full_dynamic3app17h7ef3e9fa1adf1084E+0xa0>

000142c0 <_ZN20complex_full_dynamic3app17h7ef4cde519d142e4E>:
   142c0:	7119                	addi	sp,sp,-128
   142c2:	de86                	sw	ra,124(sp)
   142c4:	dca2                	sw	s0,120(sp)
   142c6:	daa6                	sw	s1,116(sp)
   142c8:	d8ca                	sw	s2,112(sp)
   142ca:	d6ce                	sw	s3,108(sp)
   142cc:	89aa                	mv	s3,a0
   142ce:	4409                	li	s0,2
   142d0:	00810823          	sb	s0,16(sp)
   142d4:	0844                	addi	s1,sp,20
   142d6:	02b00613          	li	a2,43
   142da:	8526                	mv	a0,s1
   142dc:	00007097          	auipc	ra,0x7
   142e0:	828080e7          	jalr	-2008(ra) # 1ab04 <memcpy>
   142e4:	04c10913          	addi	s2,sp,76
   142e8:	4679                	li	a2,30
   142ea:	854a                	mv	a0,s2
   142ec:	4581                	li	a1,0
   142ee:	00006097          	auipc	ra,0x6
   142f2:	7aa080e7          	jalr	1962(ra) # 1aa98 <memset>
   142f6:	8626                	mv	a2,s1
   142f8:	04810423          	sb	s0,72(sp)
   142fc:	7e300793          	li	a5,2019
   14300:	449d                	li	s1,7
   14302:	4811                	li	a6,4
   14304:	7e300513          	li	a0,2019
   14308:	459d                	li	a1,7
   1430a:	02b00693          	li	a3,43
   1430e:	4711                	li	a4,4
   14310:	00000073          	ecall
   14314:	04850463          	beq	a0,s0,1435c <_ZN20complex_full_dynamic3app17h7ef4cde519d142e4E+0x9c>
   14318:	864a                	mv	a2,s2
   1431a:	c43e                	sw	a5,8(sp)
   1431c:	c626                	sw	s1,12(sp)
   1431e:	01010823          	sb	a6,16(sp)
   14322:	47a1                	li	a5,8
   14324:	448d                	li	s1,3
   14326:	7e300513          	li	a0,2019
   1432a:	45a1                	li	a1,8
   1432c:	46f9                	li	a3,30
   1432e:	470d                	li	a4,3
   14330:	00000073          	ecall
   14334:	02850463          	beq	a0,s0,1435c <_ZN20complex_full_dynamic3app17h7ef4cde519d142e4E+0x9c>
   14338:	7e300693          	li	a3,2019
   1433c:	7e300513          	li	a0,2019
   14340:	459d                	li	a1,7
   14342:	4621                	li	a2,8
   14344:	4709                	li	a4,2
   14346:	07f00413          	li	s0,127
   1434a:	c0b6                	sw	a3,64(sp)
   1434c:	c2be                	sw	a5,68(sp)
   1434e:	04910423          	sb	s1,72(sp)
   14352:	4681                	li	a3,0
   14354:	00000073          	ecall
   14358:	02a46863          	bltu	s0,a0,14388 <_ZN20complex_full_dynamic3app17h7ef4cde519d142e4E+0xc8>
   1435c:	00b9a223          	sw	a1,4(s3)
   14360:	4505                	li	a0,1
   14362:	00a98023          	sb	a0,0(s3)
   14366:	0088                	addi	a0,sp,64
   14368:	00006097          	auipc	ra,0x6
   1436c:	712080e7          	jalr	1810(ra) # 1aa7a <_ZN9allow_pin12full_dynamic17unshare_if_shared17hcb7d6c8e9042aa41E>
   14370:	0028                	addi	a0,sp,8
   14372:	00006097          	auipc	ra,0x6
   14376:	708080e7          	jalr	1800(ra) # 1aa7a <_ZN9allow_pin12full_dynamic17unshare_if_shared17hcb7d6c8e9042aa41E>
   1437a:	50f6                	lw	ra,124(sp)
   1437c:	5466                	lw	s0,120(sp)
   1437e:	54d6                	lw	s1,116(sp)
   14380:	5946                	lw	s2,112(sp)
   14382:	59b6                	lw	s3,108(sp)
   14384:	6109                	addi	sp,sp,128
   14386:	8082                	ret
   14388:	0028                	addi	a0,sp,8
   1438a:	00006097          	auipc	ra,0x6
   1438e:	6f0080e7          	jalr	1776(ra) # 1aa7a <_ZN9allow_pin12full_dynamic17unshare_if_shared17hcb7d6c8e9042aa41E>
   14392:	0088                	addi	a0,sp,64
   14394:	00006097          	auipc	ra,0x6
   14398:	6e6080e7          	jalr	1766(ra) # 1aa7a <_ZN9allow_pin12full_dynamic17unshare_if_shared17hcb7d6c8e9042aa41E>
   1439c:	0088                	addi	a0,sp,64
   1439e:	00006097          	auipc	ra,0x6
   143a2:	6dc080e7          	jalr	1756(ra) # 1aa7a <_ZN9allow_pin12full_dynamic17unshare_if_shared17hcb7d6c8e9042aa41E>
   143a6:	00198513          	addi	a0,s3,1
   143aa:	4679                	li	a2,30
   143ac:	85ca                	mv	a1,s2
   143ae:	00006097          	auipc	ra,0x6
   143b2:	756080e7          	jalr	1878(ra) # 1ab04 <memcpy>
   143b6:	4501                	li	a0,0
   143b8:	b76d                	j	14362 <_ZN20complex_full_dynamic3app17h7ef4cde519d142e4E+0xa2>

000143ba <_ZN20complex_full_dynamic3app17h7f65068f855a2c78E>:
   143ba:	7171                	addi	sp,sp,-176
   143bc:	d706                	sw	ra,172(sp)
   143be:	d522                	sw	s0,168(sp)
   143c0:	d326                	sw	s1,164(sp)
   143c2:	d14a                	sw	s2,160(sp)
   143c4:	cf4e                	sw	s3,156(sp)
   143c6:	89aa                	mv	s3,a0
   143c8:	4409                	li	s0,2
   143ca:	00810623          	sb	s0,12(sp)
   143ce:	0804                	addi	s1,sp,16
   143d0:	466d                	li	a2,27
   143d2:	8526                	mv	a0,s1
   143d4:	00006097          	auipc	ra,0x6
   143d8:	730080e7          	jalr	1840(ra) # 1ab04 <memcpy>
   143dc:	03810913          	addi	s2,sp,56
   143e0:	06300613          	li	a2,99
   143e4:	854a                	mv	a0,s2
   143e6:	4581                	li	a1,0
   143e8:	00006097          	auipc	ra,0x6
   143ec:	6b0080e7          	jalr	1712(ra) # 1aa98 <memset>
   143f0:	8626                	mv	a2,s1
   143f2:	02810a23          	sb	s0,52(sp)
   143f6:	6509                	lui	a0,0x2
   143f8:	448d                	li	s1,3
   143fa:	4811                	li	a6,4
   143fc:	458d                	li	a1,3
   143fe:	54850793          	addi	a5,a0,1352 # 2548 <.Lline_table_start1+0x231d>
   14402:	46ed                	li	a3,27
   14404:	4711                	li	a4,4
   14406:	853e                	mv	a0,a5
   14408:	00000073          	ecall
   1440c:	04850263          	beq	a0,s0,14450 <_ZN20complex_full_dynamic3app17h7f65068f855a2c78E+0x96>
   14410:	c23e                	sw	a5,4(sp)
   14412:	c426                	sw	s1,8(sp)
   14414:	01010623          	sb	a6,12(sp)
   14418:	458d                	li	a1,3
   1441a:	06300693          	li	a3,99
   1441e:	470d                	li	a4,3
   14420:	853e                	mv	a0,a5
   14422:	864a                	mv	a2,s2
   14424:	00000073          	ecall
   14428:	02850463          	beq	a0,s0,14450 <_ZN20complex_full_dynamic3app17h7f65068f855a2c78E+0x96>
   1442c:	450d                	li	a0,3
   1442e:	6689                	lui	a3,0x2
   14430:	458d                	li	a1,3
   14432:	460d                	li	a2,3
   14434:	d63e                	sw	a5,44(sp)
   14436:	d82a                	sw	a0,48(sp)
   14438:	02a10a23          	sb	a0,52(sp)
   1443c:	54868513          	addi	a0,a3,1352 # 2548 <.Lline_table_start1+0x231d>
   14440:	4709                	li	a4,2
   14442:	07f00793          	li	a5,127
   14446:	4681                	li	a3,0
   14448:	00000073          	ecall
   1444c:	02a7e863          	bltu	a5,a0,1447c <_ZN20complex_full_dynamic3app17h7f65068f855a2c78E+0xc2>
   14450:	00b9a223          	sw	a1,4(s3)
   14454:	4505                	li	a0,1
   14456:	00a98023          	sb	a0,0(s3)
   1445a:	1068                	addi	a0,sp,44
   1445c:	00006097          	auipc	ra,0x6
   14460:	61e080e7          	jalr	1566(ra) # 1aa7a <_ZN9allow_pin12full_dynamic17unshare_if_shared17hcb7d6c8e9042aa41E>
   14464:	0048                	addi	a0,sp,4
   14466:	00006097          	auipc	ra,0x6
   1446a:	614080e7          	jalr	1556(ra) # 1aa7a <_ZN9allow_pin12full_dynamic17unshare_if_shared17hcb7d6c8e9042aa41E>
   1446e:	50ba                	lw	ra,172(sp)
   14470:	542a                	lw	s0,168(sp)
   14472:	549a                	lw	s1,164(sp)
   14474:	590a                	lw	s2,160(sp)
   14476:	49fa                	lw	s3,156(sp)
   14478:	614d                	addi	sp,sp,176
   1447a:	8082                	ret
   1447c:	0048                	addi	a0,sp,4
   1447e:	00006097          	auipc	ra,0x6
   14482:	5fc080e7          	jalr	1532(ra) # 1aa7a <_ZN9allow_pin12full_dynamic17unshare_if_shared17hcb7d6c8e9042aa41E>
   14486:	1068                	addi	a0,sp,44
   14488:	00006097          	auipc	ra,0x6
   1448c:	5f2080e7          	jalr	1522(ra) # 1aa7a <_ZN9allow_pin12full_dynamic17unshare_if_shared17hcb7d6c8e9042aa41E>
   14490:	1068                	addi	a0,sp,44
   14492:	00006097          	auipc	ra,0x6
   14496:	5e8080e7          	jalr	1512(ra) # 1aa7a <_ZN9allow_pin12full_dynamic17unshare_if_shared17hcb7d6c8e9042aa41E>
   1449a:	00198513          	addi	a0,s3,1
   1449e:	06300613          	li	a2,99
   144a2:	85ca                	mv	a1,s2
   144a4:	00006097          	auipc	ra,0x6
   144a8:	660080e7          	jalr	1632(ra) # 1ab04 <memcpy>
   144ac:	4501                	li	a0,0
   144ae:	b765                	j	14456 <_ZN20complex_full_dynamic3app17h7f65068f855a2c78E+0x9c>

000144b0 <_ZN20complex_full_dynamic3app17h8010728e547742aeE>:
   144b0:	7119                	addi	sp,sp,-128
   144b2:	de86                	sw	ra,124(sp)
   144b4:	dca2                	sw	s0,120(sp)
   144b6:	daa6                	sw	s1,116(sp)
   144b8:	d8ca                	sw	s2,112(sp)
   144ba:	d6ce                	sw	s3,108(sp)
   144bc:	89aa                	mv	s3,a0
   144be:	4409                	li	s0,2
   144c0:	00810423          	sb	s0,8(sp)
   144c4:	0064                	addi	s1,sp,12
   144c6:	02500613          	li	a2,37
   144ca:	8526                	mv	a0,s1
   144cc:	00006097          	auipc	ra,0x6
   144d0:	638080e7          	jalr	1592(ra) # 1ab04 <memcpy>
   144d4:	04010913          	addi	s2,sp,64
   144d8:	02a00613          	li	a2,42
   144dc:	854a                	mv	a0,s2
   144de:	4581                	li	a1,0
   144e0:	00006097          	auipc	ra,0x6
   144e4:	5b8080e7          	jalr	1464(ra) # 1aa98 <memset>
   144e8:	4581                	li	a1,0
   144ea:	8626                	mv	a2,s1
   144ec:	02810e23          	sb	s0,60(sp)
   144f0:	6505                	lui	a0,0x1
   144f2:	4491                	li	s1,4
   144f4:	93c50793          	addi	a5,a0,-1732 # 93c <.Lline_table_start1+0x711>
   144f8:	02500693          	li	a3,37
   144fc:	4711                	li	a4,4
   144fe:	853e                	mv	a0,a5
   14500:	00000073          	ecall
   14504:	04850263          	beq	a0,s0,14548 <_ZN20complex_full_dynamic3app17h8010728e547742aeE+0x98>
   14508:	853e                	mv	a0,a5
   1450a:	864a                	mv	a2,s2
   1450c:	c03e                	sw	a5,0(sp)
   1450e:	c202                	sw	zero,4(sp)
   14510:	00910423          	sb	s1,8(sp)
   14514:	448d                	li	s1,3
   14516:	458d                	li	a1,3
   14518:	02a00693          	li	a3,42
   1451c:	470d                	li	a4,3
   1451e:	00000073          	ecall
   14522:	02850363          	beq	a0,s0,14548 <_ZN20complex_full_dynamic3app17h8010728e547742aeE+0x98>
   14526:	da3e                	sw	a5,52(sp)
   14528:	dc26                	sw	s1,56(sp)
   1452a:	02910e23          	sb	s1,60(sp)
   1452e:	6505                	lui	a0,0x1
   14530:	460d                	li	a2,3
   14532:	93c50513          	addi	a0,a0,-1732 # 93c <.Lline_table_start1+0x711>
   14536:	4709                	li	a4,2
   14538:	07f00793          	li	a5,127
   1453c:	4581                	li	a1,0
   1453e:	4681                	li	a3,0
   14540:	00000073          	ecall
   14544:	02a7e863          	bltu	a5,a0,14574 <_ZN20complex_full_dynamic3app17h8010728e547742aeE+0xc4>
   14548:	00b9a223          	sw	a1,4(s3)
   1454c:	4505                	li	a0,1
   1454e:	00a98023          	sb	a0,0(s3)
   14552:	1848                	addi	a0,sp,52
   14554:	00006097          	auipc	ra,0x6
   14558:	526080e7          	jalr	1318(ra) # 1aa7a <_ZN9allow_pin12full_dynamic17unshare_if_shared17hcb7d6c8e9042aa41E>
   1455c:	850a                	mv	a0,sp
   1455e:	00006097          	auipc	ra,0x6
   14562:	51c080e7          	jalr	1308(ra) # 1aa7a <_ZN9allow_pin12full_dynamic17unshare_if_shared17hcb7d6c8e9042aa41E>
   14566:	50f6                	lw	ra,124(sp)
   14568:	5466                	lw	s0,120(sp)
   1456a:	54d6                	lw	s1,116(sp)
   1456c:	5946                	lw	s2,112(sp)
   1456e:	59b6                	lw	s3,108(sp)
   14570:	6109                	addi	sp,sp,128
   14572:	8082                	ret
   14574:	850a                	mv	a0,sp
   14576:	00006097          	auipc	ra,0x6
   1457a:	504080e7          	jalr	1284(ra) # 1aa7a <_ZN9allow_pin12full_dynamic17unshare_if_shared17hcb7d6c8e9042aa41E>
   1457e:	1848                	addi	a0,sp,52
   14580:	00006097          	auipc	ra,0x6
   14584:	4fa080e7          	jalr	1274(ra) # 1aa7a <_ZN9allow_pin12full_dynamic17unshare_if_shared17hcb7d6c8e9042aa41E>
   14588:	1848                	addi	a0,sp,52
   1458a:	00006097          	auipc	ra,0x6
   1458e:	4f0080e7          	jalr	1264(ra) # 1aa7a <_ZN9allow_pin12full_dynamic17unshare_if_shared17hcb7d6c8e9042aa41E>
   14592:	00198513          	addi	a0,s3,1
   14596:	02a00613          	li	a2,42
   1459a:	85ca                	mv	a1,s2
   1459c:	00006097          	auipc	ra,0x6
   145a0:	568080e7          	jalr	1384(ra) # 1ab04 <memcpy>
   145a4:	4501                	li	a0,0
   145a6:	b765                	j	1454e <_ZN20complex_full_dynamic3app17h8010728e547742aeE+0x9e>

000145a8 <_ZN20complex_full_dynamic3app17h81f16480efc01d6cE>:
   145a8:	7135                	addi	sp,sp,-160
   145aa:	cf06                	sw	ra,156(sp)
   145ac:	cd22                	sw	s0,152(sp)
   145ae:	cb26                	sw	s1,148(sp)
   145b0:	c94a                	sw	s2,144(sp)
   145b2:	c74e                	sw	s3,140(sp)
   145b4:	89aa                	mv	s3,a0
   145b6:	4409                	li	s0,2
   145b8:	00810823          	sb	s0,16(sp)
   145bc:	0844                	addi	s1,sp,20
   145be:	03600613          	li	a2,54
   145c2:	8526                	mv	a0,s1
   145c4:	00006097          	auipc	ra,0x6
   145c8:	540080e7          	jalr	1344(ra) # 1ab04 <memcpy>
   145cc:	05810913          	addi	s2,sp,88
   145d0:	03400613          	li	a2,52
   145d4:	854a                	mv	a0,s2
   145d6:	4581                	li	a1,0
   145d8:	00006097          	auipc	ra,0x6
   145dc:	4c0080e7          	jalr	1216(ra) # 1aa98 <memset>
   145e0:	8626                	mv	a2,s1
   145e2:	04810a23          	sb	s0,84(sp)
   145e6:	6509                	lui	a0,0x2
   145e8:	4491                	li	s1,4
   145ea:	4591                	li	a1,4
   145ec:	3c650793          	addi	a5,a0,966 # 23c6 <.Lline_table_start1+0x219b>
   145f0:	03600693          	li	a3,54
   145f4:	4711                	li	a4,4
   145f6:	853e                	mv	a0,a5
   145f8:	00000073          	ecall
   145fc:	04850363          	beq	a0,s0,14642 <_ZN20complex_full_dynamic3app17h81f16480efc01d6cE+0x9a>
   14600:	853e                	mv	a0,a5
   14602:	864a                	mv	a2,s2
   14604:	c43e                	sw	a5,8(sp)
   14606:	c626                	sw	s1,12(sp)
   14608:	00910823          	sb	s1,16(sp)
   1460c:	448d                	li	s1,3
   1460e:	4589                	li	a1,2
   14610:	03400693          	li	a3,52
   14614:	470d                	li	a4,3
   14616:	00000073          	ecall
   1461a:	02850463          	beq	a0,s0,14642 <_ZN20complex_full_dynamic3app17h81f16480efc01d6cE+0x9a>
   1461e:	4509                	li	a0,2
   14620:	6689                	lui	a3,0x2
   14622:	4591                	li	a1,4
   14624:	4609                	li	a2,2
   14626:	c6be                	sw	a5,76(sp)
   14628:	c8aa                	sw	a0,80(sp)
   1462a:	04910a23          	sb	s1,84(sp)
   1462e:	3c668513          	addi	a0,a3,966 # 23c6 <.Lline_table_start1+0x219b>
   14632:	4709                	li	a4,2
   14634:	07f00793          	li	a5,127
   14638:	4681                	li	a3,0
   1463a:	00000073          	ecall
   1463e:	02a7e863          	bltu	a5,a0,1466e <_ZN20complex_full_dynamic3app17h81f16480efc01d6cE+0xc6>
   14642:	00b9a223          	sw	a1,4(s3)
   14646:	4505                	li	a0,1
   14648:	00a98023          	sb	a0,0(s3)
   1464c:	00e8                	addi	a0,sp,76
   1464e:	00006097          	auipc	ra,0x6
   14652:	42c080e7          	jalr	1068(ra) # 1aa7a <_ZN9allow_pin12full_dynamic17unshare_if_shared17hcb7d6c8e9042aa41E>
   14656:	0028                	addi	a0,sp,8
   14658:	00006097          	auipc	ra,0x6
   1465c:	422080e7          	jalr	1058(ra) # 1aa7a <_ZN9allow_pin12full_dynamic17unshare_if_shared17hcb7d6c8e9042aa41E>
   14660:	40fa                	lw	ra,156(sp)
   14662:	446a                	lw	s0,152(sp)
   14664:	44da                	lw	s1,148(sp)
   14666:	494a                	lw	s2,144(sp)
   14668:	49ba                	lw	s3,140(sp)
   1466a:	610d                	addi	sp,sp,160
   1466c:	8082                	ret
   1466e:	0028                	addi	a0,sp,8
   14670:	00006097          	auipc	ra,0x6
   14674:	40a080e7          	jalr	1034(ra) # 1aa7a <_ZN9allow_pin12full_dynamic17unshare_if_shared17hcb7d6c8e9042aa41E>
   14678:	00e8                	addi	a0,sp,76
   1467a:	00006097          	auipc	ra,0x6
   1467e:	400080e7          	jalr	1024(ra) # 1aa7a <_ZN9allow_pin12full_dynamic17unshare_if_shared17hcb7d6c8e9042aa41E>
   14682:	00e8                	addi	a0,sp,76
   14684:	00006097          	auipc	ra,0x6
   14688:	3f6080e7          	jalr	1014(ra) # 1aa7a <_ZN9allow_pin12full_dynamic17unshare_if_shared17hcb7d6c8e9042aa41E>
   1468c:	00198513          	addi	a0,s3,1
   14690:	03400613          	li	a2,52
   14694:	85ca                	mv	a1,s2
   14696:	00006097          	auipc	ra,0x6
   1469a:	46e080e7          	jalr	1134(ra) # 1ab04 <memcpy>
   1469e:	4501                	li	a0,0
   146a0:	b765                	j	14648 <_ZN20complex_full_dynamic3app17h81f16480efc01d6cE+0xa0>

000146a2 <_ZN20complex_full_dynamic3app17h868b31d437ce461eE>:
   146a2:	7135                	addi	sp,sp,-160
   146a4:	cf06                	sw	ra,156(sp)
   146a6:	cd22                	sw	s0,152(sp)
   146a8:	cb26                	sw	s1,148(sp)
   146aa:	c94a                	sw	s2,144(sp)
   146ac:	c74e                	sw	s3,140(sp)
   146ae:	89aa                	mv	s3,a0
   146b0:	4409                	li	s0,2
   146b2:	00810423          	sb	s0,8(sp)
   146b6:	0064                	addi	s1,sp,12
   146b8:	04800613          	li	a2,72
   146bc:	8526                	mv	a0,s1
   146be:	00006097          	auipc	ra,0x6
   146c2:	446080e7          	jalr	1094(ra) # 1ab04 <memcpy>
   146c6:	06010913          	addi	s2,sp,96
   146ca:	02900613          	li	a2,41
   146ce:	854a                	mv	a0,s2
   146d0:	4581                	li	a1,0
   146d2:	00006097          	auipc	ra,0x6
   146d6:	3c6080e7          	jalr	966(ra) # 1aa98 <memset>
   146da:	8626                	mv	a2,s1
   146dc:	04810e23          	sb	s0,92(sp)
   146e0:	6509                	lui	a0,0x2
   146e2:	448d                	li	s1,3
   146e4:	4811                	li	a6,4
   146e6:	458d                	li	a1,3
   146e8:	6a450793          	addi	a5,a0,1700 # 26a4 <.Lline_table_start1+0x2479>
   146ec:	04800693          	li	a3,72
   146f0:	4711                	li	a4,4
   146f2:	853e                	mv	a0,a5
   146f4:	00000073          	ecall
   146f8:	04850363          	beq	a0,s0,1473e <_ZN20complex_full_dynamic3app17h868b31d437ce461eE+0x9c>
   146fc:	c03e                	sw	a5,0(sp)
   146fe:	c226                	sw	s1,4(sp)
   14700:	01010423          	sb	a6,8(sp)
   14704:	4591                	li	a1,4
   14706:	02900693          	li	a3,41
   1470a:	470d                	li	a4,3
   1470c:	853e                	mv	a0,a5
   1470e:	864a                	mv	a2,s2
   14710:	00000073          	ecall
   14714:	02850563          	beq	a0,s0,1473e <_ZN20complex_full_dynamic3app17h868b31d437ce461eE+0x9c>
   14718:	4511                	li	a0,4
   1471a:	468d                	li	a3,3
   1471c:	6709                	lui	a4,0x2
   1471e:	458d                	li	a1,3
   14720:	4611                	li	a2,4
   14722:	cabe                	sw	a5,84(sp)
   14724:	ccaa                	sw	a0,88(sp)
   14726:	04d10e23          	sb	a3,92(sp)
   1472a:	6a470513          	addi	a0,a4,1700 # 26a4 <.Lline_table_start1+0x2479>
   1472e:	4709                	li	a4,2
   14730:	07f00793          	li	a5,127
   14734:	4681                	li	a3,0
   14736:	00000073          	ecall
   1473a:	02a7e863          	bltu	a5,a0,1476a <_ZN20complex_full_dynamic3app17h868b31d437ce461eE+0xc8>
   1473e:	00b9a223          	sw	a1,4(s3)
   14742:	4505                	li	a0,1
   14744:	00a98023          	sb	a0,0(s3)
   14748:	08c8                	addi	a0,sp,84
   1474a:	00006097          	auipc	ra,0x6
   1474e:	330080e7          	jalr	816(ra) # 1aa7a <_ZN9allow_pin12full_dynamic17unshare_if_shared17hcb7d6c8e9042aa41E>
   14752:	850a                	mv	a0,sp
   14754:	00006097          	auipc	ra,0x6
   14758:	326080e7          	jalr	806(ra) # 1aa7a <_ZN9allow_pin12full_dynamic17unshare_if_shared17hcb7d6c8e9042aa41E>
   1475c:	40fa                	lw	ra,156(sp)
   1475e:	446a                	lw	s0,152(sp)
   14760:	44da                	lw	s1,148(sp)
   14762:	494a                	lw	s2,144(sp)
   14764:	49ba                	lw	s3,140(sp)
   14766:	610d                	addi	sp,sp,160
   14768:	8082                	ret
   1476a:	850a                	mv	a0,sp
   1476c:	00006097          	auipc	ra,0x6
   14770:	30e080e7          	jalr	782(ra) # 1aa7a <_ZN9allow_pin12full_dynamic17unshare_if_shared17hcb7d6c8e9042aa41E>
   14774:	08c8                	addi	a0,sp,84
   14776:	00006097          	auipc	ra,0x6
   1477a:	304080e7          	jalr	772(ra) # 1aa7a <_ZN9allow_pin12full_dynamic17unshare_if_shared17hcb7d6c8e9042aa41E>
   1477e:	08c8                	addi	a0,sp,84
   14780:	00006097          	auipc	ra,0x6
   14784:	2fa080e7          	jalr	762(ra) # 1aa7a <_ZN9allow_pin12full_dynamic17unshare_if_shared17hcb7d6c8e9042aa41E>
   14788:	00198513          	addi	a0,s3,1
   1478c:	02900613          	li	a2,41
   14790:	85ca                	mv	a1,s2
   14792:	00006097          	auipc	ra,0x6
   14796:	372080e7          	jalr	882(ra) # 1ab04 <memcpy>
   1479a:	4501                	li	a0,0
   1479c:	b765                	j	14744 <_ZN20complex_full_dynamic3app17h868b31d437ce461eE+0xa2>

0001479e <_ZN20complex_full_dynamic3app17h8bb8cb896ccb7baaE>:
   1479e:	7175                	addi	sp,sp,-144
   147a0:	c706                	sw	ra,140(sp)
   147a2:	c522                	sw	s0,136(sp)
   147a4:	c326                	sw	s1,132(sp)
   147a6:	c14a                	sw	s2,128(sp)
   147a8:	dece                	sw	s3,124(sp)
   147aa:	89aa                	mv	s3,a0
   147ac:	4409                	li	s0,2
   147ae:	00810a23          	sb	s0,20(sp)
   147b2:	0824                	addi	s1,sp,24
   147b4:	04800613          	li	a2,72
   147b8:	8526                	mv	a0,s1
   147ba:	00006097          	auipc	ra,0x6
   147be:	34a080e7          	jalr	842(ra) # 1ab04 <memcpy>
   147c2:	06c10913          	addi	s2,sp,108
   147c6:	463d                	li	a2,15
   147c8:	854a                	mv	a0,s2
   147ca:	4581                	li	a1,0
   147cc:	00006097          	auipc	ra,0x6
   147d0:	2cc080e7          	jalr	716(ra) # 1aa98 <memset>
   147d4:	8626                	mv	a2,s1
   147d6:	06810423          	sb	s0,104(sp)
   147da:	6505                	lui	a0,0x1
   147dc:	44a1                	li	s1,8
   147de:	4811                	li	a6,4
   147e0:	45a1                	li	a1,8
   147e2:	11d50793          	addi	a5,a0,285 # 111d <.Lline_table_start1+0xef2>
   147e6:	04800693          	li	a3,72
   147ea:	4711                	li	a4,4
   147ec:	853e                	mv	a0,a5
   147ee:	00000073          	ecall
   147f2:	04850263          	beq	a0,s0,14836 <_ZN20complex_full_dynamic3app17h8bb8cb896ccb7baaE+0x98>
   147f6:	853e                	mv	a0,a5
   147f8:	864a                	mv	a2,s2
   147fa:	c63e                	sw	a5,12(sp)
   147fc:	c826                	sw	s1,16(sp)
   147fe:	01010a23          	sb	a6,20(sp)
   14802:	44a5                	li	s1,9
   14804:	480d                	li	a6,3
   14806:	45a5                	li	a1,9
   14808:	46bd                	li	a3,15
   1480a:	470d                	li	a4,3
   1480c:	00000073          	ecall
   14810:	02850363          	beq	a0,s0,14836 <_ZN20complex_full_dynamic3app17h8bb8cb896ccb7baaE+0x98>
   14814:	d0be                	sw	a5,96(sp)
   14816:	d2a6                	sw	s1,100(sp)
   14818:	07010423          	sb	a6,104(sp)
   1481c:	6505                	lui	a0,0x1
   1481e:	45a1                	li	a1,8
   14820:	4625                	li	a2,9
   14822:	11d50513          	addi	a0,a0,285 # 111d <.Lline_table_start1+0xef2>
   14826:	4709                	li	a4,2
   14828:	07f00793          	li	a5,127
   1482c:	4681                	li	a3,0
   1482e:	00000073          	ecall
   14832:	02a7e863          	bltu	a5,a0,14862 <_ZN20complex_full_dynamic3app17h8bb8cb896ccb7baaE+0xc4>
   14836:	00b9a223          	sw	a1,4(s3)
   1483a:	4505                	li	a0,1
   1483c:	00a98023          	sb	a0,0(s3)
   14840:	1088                	addi	a0,sp,96
   14842:	00006097          	auipc	ra,0x6
   14846:	238080e7          	jalr	568(ra) # 1aa7a <_ZN9allow_pin12full_dynamic17unshare_if_shared17hcb7d6c8e9042aa41E>
   1484a:	0068                	addi	a0,sp,12
   1484c:	00006097          	auipc	ra,0x6
   14850:	22e080e7          	jalr	558(ra) # 1aa7a <_ZN9allow_pin12full_dynamic17unshare_if_shared17hcb7d6c8e9042aa41E>
   14854:	40ba                	lw	ra,140(sp)
   14856:	442a                	lw	s0,136(sp)
   14858:	449a                	lw	s1,132(sp)
   1485a:	490a                	lw	s2,128(sp)
   1485c:	59f6                	lw	s3,124(sp)
   1485e:	6149                	addi	sp,sp,144
   14860:	8082                	ret
   14862:	0068                	addi	a0,sp,12
   14864:	00006097          	auipc	ra,0x6
   14868:	216080e7          	jalr	534(ra) # 1aa7a <_ZN9allow_pin12full_dynamic17unshare_if_shared17hcb7d6c8e9042aa41E>
   1486c:	1088                	addi	a0,sp,96
   1486e:	00006097          	auipc	ra,0x6
   14872:	20c080e7          	jalr	524(ra) # 1aa7a <_ZN9allow_pin12full_dynamic17unshare_if_shared17hcb7d6c8e9042aa41E>
   14876:	1088                	addi	a0,sp,96
   14878:	00006097          	auipc	ra,0x6
   1487c:	202080e7          	jalr	514(ra) # 1aa7a <_ZN9allow_pin12full_dynamic17unshare_if_shared17hcb7d6c8e9042aa41E>
   14880:	00198513          	addi	a0,s3,1
   14884:	463d                	li	a2,15
   14886:	85ca                	mv	a1,s2
   14888:	00006097          	auipc	ra,0x6
   1488c:	27c080e7          	jalr	636(ra) # 1ab04 <memcpy>
   14890:	4501                	li	a0,0
   14892:	b76d                	j	1483c <_ZN20complex_full_dynamic3app17h8bb8cb896ccb7baaE+0x9e>

00014894 <_ZN20complex_full_dynamic3app17h93e6048a1827f079E>:
   14894:	7171                	addi	sp,sp,-176
   14896:	d706                	sw	ra,172(sp)
   14898:	d522                	sw	s0,168(sp)
   1489a:	d326                	sw	s1,164(sp)
   1489c:	d14a                	sw	s2,160(sp)
   1489e:	cf4e                	sw	s3,156(sp)
   148a0:	89aa                	mv	s3,a0
   148a2:	4409                	li	s0,2
   148a4:	00810823          	sb	s0,16(sp)
   148a8:	0844                	addi	s1,sp,20
   148aa:	4671                	li	a2,28
   148ac:	8526                	mv	a0,s1
   148ae:	00006097          	auipc	ra,0x6
   148b2:	256080e7          	jalr	598(ra) # 1ab04 <memcpy>
   148b6:	03c10913          	addi	s2,sp,60
   148ba:	05d00613          	li	a2,93
   148be:	854a                	mv	a0,s2
   148c0:	4581                	li	a1,0
   148c2:	00006097          	auipc	ra,0x6
   148c6:	1d6080e7          	jalr	470(ra) # 1aa98 <memset>
   148ca:	8626                	mv	a2,s1
   148cc:	02810c23          	sb	s0,56(sp)
   148d0:	6505                	lui	a0,0x1
   148d2:	44a1                	li	s1,8
   148d4:	4811                	li	a6,4
   148d6:	45a1                	li	a1,8
   148d8:	c3e50793          	addi	a5,a0,-962 # c3e <.Lline_table_start1+0xa13>
   148dc:	46f1                	li	a3,28
   148de:	4711                	li	a4,4
   148e0:	853e                	mv	a0,a5
   148e2:	00000073          	ecall
   148e6:	04850363          	beq	a0,s0,1492c <_ZN20complex_full_dynamic3app17h93e6048a1827f079E+0x98>
   148ea:	853e                	mv	a0,a5
   148ec:	864a                	mv	a2,s2
   148ee:	c43e                	sw	a5,8(sp)
   148f0:	c626                	sw	s1,12(sp)
   148f2:	01010823          	sb	a6,16(sp)
   148f6:	4495                	li	s1,5
   148f8:	480d                	li	a6,3
   148fa:	4595                	li	a1,5
   148fc:	05d00693          	li	a3,93
   14900:	470d                	li	a4,3
   14902:	00000073          	ecall
   14906:	02850363          	beq	a0,s0,1492c <_ZN20complex_full_dynamic3app17h93e6048a1827f079E+0x98>
   1490a:	d83e                	sw	a5,48(sp)
   1490c:	da26                	sw	s1,52(sp)
   1490e:	03010c23          	sb	a6,56(sp)
   14912:	6505                	lui	a0,0x1
   14914:	45a1                	li	a1,8
   14916:	4615                	li	a2,5
   14918:	c3e50513          	addi	a0,a0,-962 # c3e <.Lline_table_start1+0xa13>
   1491c:	4709                	li	a4,2
   1491e:	07f00793          	li	a5,127
   14922:	4681                	li	a3,0
   14924:	00000073          	ecall
   14928:	02a7e863          	bltu	a5,a0,14958 <_ZN20complex_full_dynamic3app17h93e6048a1827f079E+0xc4>
   1492c:	00b9a223          	sw	a1,4(s3)
   14930:	4505                	li	a0,1
   14932:	00a98023          	sb	a0,0(s3)
   14936:	1808                	addi	a0,sp,48
   14938:	00006097          	auipc	ra,0x6
   1493c:	142080e7          	jalr	322(ra) # 1aa7a <_ZN9allow_pin12full_dynamic17unshare_if_shared17hcb7d6c8e9042aa41E>
   14940:	0028                	addi	a0,sp,8
   14942:	00006097          	auipc	ra,0x6
   14946:	138080e7          	jalr	312(ra) # 1aa7a <_ZN9allow_pin12full_dynamic17unshare_if_shared17hcb7d6c8e9042aa41E>
   1494a:	50ba                	lw	ra,172(sp)
   1494c:	542a                	lw	s0,168(sp)
   1494e:	549a                	lw	s1,164(sp)
   14950:	590a                	lw	s2,160(sp)
   14952:	49fa                	lw	s3,156(sp)
   14954:	614d                	addi	sp,sp,176
   14956:	8082                	ret
   14958:	0028                	addi	a0,sp,8
   1495a:	00006097          	auipc	ra,0x6
   1495e:	120080e7          	jalr	288(ra) # 1aa7a <_ZN9allow_pin12full_dynamic17unshare_if_shared17hcb7d6c8e9042aa41E>
   14962:	1808                	addi	a0,sp,48
   14964:	00006097          	auipc	ra,0x6
   14968:	116080e7          	jalr	278(ra) # 1aa7a <_ZN9allow_pin12full_dynamic17unshare_if_shared17hcb7d6c8e9042aa41E>
   1496c:	1808                	addi	a0,sp,48
   1496e:	00006097          	auipc	ra,0x6
   14972:	10c080e7          	jalr	268(ra) # 1aa7a <_ZN9allow_pin12full_dynamic17unshare_if_shared17hcb7d6c8e9042aa41E>
   14976:	00198513          	addi	a0,s3,1
   1497a:	05d00613          	li	a2,93
   1497e:	85ca                	mv	a1,s2
   14980:	00006097          	auipc	ra,0x6
   14984:	184080e7          	jalr	388(ra) # 1ab04 <memcpy>
   14988:	4501                	li	a0,0
   1498a:	b765                	j	14932 <_ZN20complex_full_dynamic3app17h93e6048a1827f079E+0x9e>

0001498c <_ZN20complex_full_dynamic3app17h95824f748cf3b619E>:
   1498c:	7171                	addi	sp,sp,-176
   1498e:	d706                	sw	ra,172(sp)
   14990:	d522                	sw	s0,168(sp)
   14992:	d326                	sw	s1,164(sp)
   14994:	d14a                	sw	s2,160(sp)
   14996:	cf4e                	sw	s3,156(sp)
   14998:	89aa                	mv	s3,a0
   1499a:	4409                	li	s0,2
   1499c:	00810823          	sb	s0,16(sp)
   149a0:	0844                	addi	s1,sp,20
   149a2:	03100613          	li	a2,49
   149a6:	8526                	mv	a0,s1
   149a8:	00006097          	auipc	ra,0x6
   149ac:	15c080e7          	jalr	348(ra) # 1ab04 <memcpy>
   149b0:	05410913          	addi	s2,sp,84
   149b4:	04800613          	li	a2,72
   149b8:	854a                	mv	a0,s2
   149ba:	4581                	li	a1,0
   149bc:	00006097          	auipc	ra,0x6
   149c0:	0dc080e7          	jalr	220(ra) # 1aa98 <memset>
   149c4:	8626                	mv	a2,s1
   149c6:	04810823          	sb	s0,80(sp)
   149ca:	6509                	lui	a0,0x2
   149cc:	4491                	li	s1,4
   149ce:	4591                	li	a1,4
   149d0:	80e50793          	addi	a5,a0,-2034 # 180e <.Lline_table_start1+0x15e3>
   149d4:	03100693          	li	a3,49
   149d8:	4711                	li	a4,4
   149da:	853e                	mv	a0,a5
   149dc:	00000073          	ecall
   149e0:	04850263          	beq	a0,s0,14a24 <_ZN20complex_full_dynamic3app17h95824f748cf3b619E+0x98>
   149e4:	853e                	mv	a0,a5
   149e6:	864a                	mv	a2,s2
   149e8:	c43e                	sw	a5,8(sp)
   149ea:	c626                	sw	s1,12(sp)
   149ec:	00910823          	sb	s1,16(sp)
   149f0:	448d                	li	s1,3
   149f2:	458d                	li	a1,3
   149f4:	04800693          	li	a3,72
   149f8:	470d                	li	a4,3
   149fa:	00000073          	ecall
   149fe:	02850363          	beq	a0,s0,14a24 <_ZN20complex_full_dynamic3app17h95824f748cf3b619E+0x98>
   14a02:	c4be                	sw	a5,72(sp)
   14a04:	c6a6                	sw	s1,76(sp)
   14a06:	04910823          	sb	s1,80(sp)
   14a0a:	6509                	lui	a0,0x2
   14a0c:	4591                	li	a1,4
   14a0e:	460d                	li	a2,3
   14a10:	80e50513          	addi	a0,a0,-2034 # 180e <.Lline_table_start1+0x15e3>
   14a14:	4709                	li	a4,2
   14a16:	07f00793          	li	a5,127
   14a1a:	4681                	li	a3,0
   14a1c:	00000073          	ecall
   14a20:	02a7e863          	bltu	a5,a0,14a50 <_ZN20complex_full_dynamic3app17h95824f748cf3b619E+0xc4>
   14a24:	00b9a223          	sw	a1,4(s3)
   14a28:	4505                	li	a0,1
   14a2a:	00a98023          	sb	a0,0(s3)
   14a2e:	00a8                	addi	a0,sp,72
   14a30:	00006097          	auipc	ra,0x6
   14a34:	04a080e7          	jalr	74(ra) # 1aa7a <_ZN9allow_pin12full_dynamic17unshare_if_shared17hcb7d6c8e9042aa41E>
   14a38:	0028                	addi	a0,sp,8
   14a3a:	00006097          	auipc	ra,0x6
   14a3e:	040080e7          	jalr	64(ra) # 1aa7a <_ZN9allow_pin12full_dynamic17unshare_if_shared17hcb7d6c8e9042aa41E>
   14a42:	50ba                	lw	ra,172(sp)
   14a44:	542a                	lw	s0,168(sp)
   14a46:	549a                	lw	s1,164(sp)
   14a48:	590a                	lw	s2,160(sp)
   14a4a:	49fa                	lw	s3,156(sp)
   14a4c:	614d                	addi	sp,sp,176
   14a4e:	8082                	ret
   14a50:	0028                	addi	a0,sp,8
   14a52:	00006097          	auipc	ra,0x6
   14a56:	028080e7          	jalr	40(ra) # 1aa7a <_ZN9allow_pin12full_dynamic17unshare_if_shared17hcb7d6c8e9042aa41E>
   14a5a:	00a8                	addi	a0,sp,72
   14a5c:	00006097          	auipc	ra,0x6
   14a60:	01e080e7          	jalr	30(ra) # 1aa7a <_ZN9allow_pin12full_dynamic17unshare_if_shared17hcb7d6c8e9042aa41E>
   14a64:	00a8                	addi	a0,sp,72
   14a66:	00006097          	auipc	ra,0x6
   14a6a:	014080e7          	jalr	20(ra) # 1aa7a <_ZN9allow_pin12full_dynamic17unshare_if_shared17hcb7d6c8e9042aa41E>
   14a6e:	00198513          	addi	a0,s3,1
   14a72:	04800613          	li	a2,72
   14a76:	85ca                	mv	a1,s2
   14a78:	00006097          	auipc	ra,0x6
   14a7c:	08c080e7          	jalr	140(ra) # 1ab04 <memcpy>
   14a80:	4501                	li	a0,0
   14a82:	b765                	j	14a2a <_ZN20complex_full_dynamic3app17h95824f748cf3b619E+0x9e>

00014a84 <_ZN20complex_full_dynamic3app17h95d4581d17b121d7E>:
   14a84:	7175                	addi	sp,sp,-144
   14a86:	c706                	sw	ra,140(sp)
   14a88:	c522                	sw	s0,136(sp)
   14a8a:	c326                	sw	s1,132(sp)
   14a8c:	c14a                	sw	s2,128(sp)
   14a8e:	dece                	sw	s3,124(sp)
   14a90:	89aa                	mv	s3,a0
   14a92:	4409                	li	s0,2
   14a94:	00810a23          	sb	s0,20(sp)
   14a98:	0824                	addi	s1,sp,24
   14a9a:	463d                	li	a2,15
   14a9c:	8526                	mv	a0,s1
   14a9e:	00006097          	auipc	ra,0x6
   14aa2:	066080e7          	jalr	102(ra) # 1ab04 <memcpy>
   14aa6:	03410913          	addi	s2,sp,52
   14aaa:	04600613          	li	a2,70
   14aae:	854a                	mv	a0,s2
   14ab0:	4581                	li	a1,0
   14ab2:	00006097          	auipc	ra,0x6
   14ab6:	fe6080e7          	jalr	-26(ra) # 1aa98 <memset>
   14aba:	8626                	mv	a2,s1
   14abc:	02810823          	sb	s0,48(sp)
   14ac0:	6509                	lui	a0,0x2
   14ac2:	44a5                	li	s1,9
   14ac4:	4811                	li	a6,4
   14ac6:	45a5                	li	a1,9
   14ac8:	d7e50793          	addi	a5,a0,-642 # 1d7e <.Lline_table_start1+0x1b53>
   14acc:	46bd                	li	a3,15
   14ace:	4711                	li	a4,4
   14ad0:	853e                	mv	a0,a5
   14ad2:	00000073          	ecall
   14ad6:	04850363          	beq	a0,s0,14b1c <_ZN20complex_full_dynamic3app17h95d4581d17b121d7E+0x98>
   14ada:	853e                	mv	a0,a5
   14adc:	864a                	mv	a2,s2
   14ade:	c63e                	sw	a5,12(sp)
   14ae0:	c826                	sw	s1,16(sp)
   14ae2:	01010a23          	sb	a6,20(sp)
   14ae6:	448d                	li	s1,3
   14ae8:	4589                	li	a1,2
   14aea:	04600693          	li	a3,70
   14aee:	470d                	li	a4,3
   14af0:	00000073          	ecall
   14af4:	02850463          	beq	a0,s0,14b1c <_ZN20complex_full_dynamic3app17h95d4581d17b121d7E+0x98>
   14af8:	4509                	li	a0,2
   14afa:	6689                	lui	a3,0x2
   14afc:	45a5                	li	a1,9
   14afe:	4609                	li	a2,2
   14b00:	d43e                	sw	a5,40(sp)
   14b02:	d62a                	sw	a0,44(sp)
   14b04:	02910823          	sb	s1,48(sp)
   14b08:	d7e68513          	addi	a0,a3,-642 # 1d7e <.Lline_table_start1+0x1b53>
   14b0c:	4709                	li	a4,2
   14b0e:	07f00793          	li	a5,127
   14b12:	4681                	li	a3,0
   14b14:	00000073          	ecall
   14b18:	02a7e863          	bltu	a5,a0,14b48 <_ZN20complex_full_dynamic3app17h95d4581d17b121d7E+0xc4>
   14b1c:	00b9a223          	sw	a1,4(s3)
   14b20:	4505                	li	a0,1
   14b22:	00a98023          	sb	a0,0(s3)
   14b26:	1028                	addi	a0,sp,40
   14b28:	00006097          	auipc	ra,0x6
   14b2c:	f52080e7          	jalr	-174(ra) # 1aa7a <_ZN9allow_pin12full_dynamic17unshare_if_shared17hcb7d6c8e9042aa41E>
   14b30:	0068                	addi	a0,sp,12
   14b32:	00006097          	auipc	ra,0x6
   14b36:	f48080e7          	jalr	-184(ra) # 1aa7a <_ZN9allow_pin12full_dynamic17unshare_if_shared17hcb7d6c8e9042aa41E>
   14b3a:	40ba                	lw	ra,140(sp)
   14b3c:	442a                	lw	s0,136(sp)
   14b3e:	449a                	lw	s1,132(sp)
   14b40:	490a                	lw	s2,128(sp)
   14b42:	59f6                	lw	s3,124(sp)
   14b44:	6149                	addi	sp,sp,144
   14b46:	8082                	ret
   14b48:	0068                	addi	a0,sp,12
   14b4a:	00006097          	auipc	ra,0x6
   14b4e:	f30080e7          	jalr	-208(ra) # 1aa7a <_ZN9allow_pin12full_dynamic17unshare_if_shared17hcb7d6c8e9042aa41E>
   14b52:	1028                	addi	a0,sp,40
   14b54:	00006097          	auipc	ra,0x6
   14b58:	f26080e7          	jalr	-218(ra) # 1aa7a <_ZN9allow_pin12full_dynamic17unshare_if_shared17hcb7d6c8e9042aa41E>
   14b5c:	1028                	addi	a0,sp,40
   14b5e:	00006097          	auipc	ra,0x6
   14b62:	f1c080e7          	jalr	-228(ra) # 1aa7a <_ZN9allow_pin12full_dynamic17unshare_if_shared17hcb7d6c8e9042aa41E>
   14b66:	00198513          	addi	a0,s3,1
   14b6a:	04600613          	li	a2,70
   14b6e:	85ca                	mv	a1,s2
   14b70:	00006097          	auipc	ra,0x6
   14b74:	f94080e7          	jalr	-108(ra) # 1ab04 <memcpy>
   14b78:	4501                	li	a0,0
   14b7a:	b765                	j	14b22 <_ZN20complex_full_dynamic3app17h95d4581d17b121d7E+0x9e>

00014b7c <_ZN20complex_full_dynamic3app17h9841921359ce7dceE>:
   14b7c:	7131                	addi	sp,sp,-192
   14b7e:	df06                	sw	ra,188(sp)
   14b80:	dd22                	sw	s0,184(sp)
   14b82:	db26                	sw	s1,180(sp)
   14b84:	d94a                	sw	s2,176(sp)
   14b86:	d74e                	sw	s3,172(sp)
   14b88:	89aa                	mv	s3,a0
   14b8a:	4409                	li	s0,2
   14b8c:	00810a23          	sb	s0,20(sp)
   14b90:	0824                	addi	s1,sp,24
   14b92:	02a00613          	li	a2,42
   14b96:	8526                	mv	a0,s1
   14b98:	00006097          	auipc	ra,0x6
   14b9c:	f6c080e7          	jalr	-148(ra) # 1ab04 <memcpy>
   14ba0:	05010913          	addi	s2,sp,80
   14ba4:	05900613          	li	a2,89
   14ba8:	854a                	mv	a0,s2
   14baa:	4581                	li	a1,0
   14bac:	00006097          	auipc	ra,0x6
   14bb0:	eec080e7          	jalr	-276(ra) # 1aa98 <memset>
   14bb4:	8626                	mv	a2,s1
   14bb6:	04810623          	sb	s0,76(sp)
   14bba:	6505                	lui	a0,0x1
   14bbc:	4485                	li	s1,1
   14bbe:	4811                	li	a6,4
   14bc0:	4585                	li	a1,1
   14bc2:	ed250793          	addi	a5,a0,-302 # ed2 <.Lline_table_start1+0xca7>
   14bc6:	02a00693          	li	a3,42
   14bca:	4711                	li	a4,4
   14bcc:	853e                	mv	a0,a5
   14bce:	00000073          	ecall
   14bd2:	04850263          	beq	a0,s0,14c16 <_ZN20complex_full_dynamic3app17h9841921359ce7dceE+0x9a>
   14bd6:	853e                	mv	a0,a5
   14bd8:	864a                	mv	a2,s2
   14bda:	c63e                	sw	a5,12(sp)
   14bdc:	c826                	sw	s1,16(sp)
   14bde:	01010a23          	sb	a6,20(sp)
   14be2:	448d                	li	s1,3
   14be4:	458d                	li	a1,3
   14be6:	05900693          	li	a3,89
   14bea:	470d                	li	a4,3
   14bec:	00000073          	ecall
   14bf0:	02850363          	beq	a0,s0,14c16 <_ZN20complex_full_dynamic3app17h9841921359ce7dceE+0x9a>
   14bf4:	c2be                	sw	a5,68(sp)
   14bf6:	c4a6                	sw	s1,72(sp)
   14bf8:	04910623          	sb	s1,76(sp)
   14bfc:	6505                	lui	a0,0x1
   14bfe:	4585                	li	a1,1
   14c00:	460d                	li	a2,3
   14c02:	ed250513          	addi	a0,a0,-302 # ed2 <.Lline_table_start1+0xca7>
   14c06:	4709                	li	a4,2
   14c08:	07f00793          	li	a5,127
   14c0c:	4681                	li	a3,0
   14c0e:	00000073          	ecall
   14c12:	02a7e863          	bltu	a5,a0,14c42 <_ZN20complex_full_dynamic3app17h9841921359ce7dceE+0xc6>
   14c16:	00b9a223          	sw	a1,4(s3)
   14c1a:	4505                	li	a0,1
   14c1c:	00a98023          	sb	a0,0(s3)
   14c20:	00c8                	addi	a0,sp,68
   14c22:	00006097          	auipc	ra,0x6
   14c26:	e58080e7          	jalr	-424(ra) # 1aa7a <_ZN9allow_pin12full_dynamic17unshare_if_shared17hcb7d6c8e9042aa41E>
   14c2a:	0068                	addi	a0,sp,12
   14c2c:	00006097          	auipc	ra,0x6
   14c30:	e4e080e7          	jalr	-434(ra) # 1aa7a <_ZN9allow_pin12full_dynamic17unshare_if_shared17hcb7d6c8e9042aa41E>
   14c34:	50fa                	lw	ra,188(sp)
   14c36:	546a                	lw	s0,184(sp)
   14c38:	54da                	lw	s1,180(sp)
   14c3a:	594a                	lw	s2,176(sp)
   14c3c:	59ba                	lw	s3,172(sp)
   14c3e:	6129                	addi	sp,sp,192
   14c40:	8082                	ret
   14c42:	0068                	addi	a0,sp,12
   14c44:	00006097          	auipc	ra,0x6
   14c48:	e36080e7          	jalr	-458(ra) # 1aa7a <_ZN9allow_pin12full_dynamic17unshare_if_shared17hcb7d6c8e9042aa41E>
   14c4c:	00c8                	addi	a0,sp,68
   14c4e:	00006097          	auipc	ra,0x6
   14c52:	e2c080e7          	jalr	-468(ra) # 1aa7a <_ZN9allow_pin12full_dynamic17unshare_if_shared17hcb7d6c8e9042aa41E>
   14c56:	00c8                	addi	a0,sp,68
   14c58:	00006097          	auipc	ra,0x6
   14c5c:	e22080e7          	jalr	-478(ra) # 1aa7a <_ZN9allow_pin12full_dynamic17unshare_if_shared17hcb7d6c8e9042aa41E>
   14c60:	00198513          	addi	a0,s3,1
   14c64:	05900613          	li	a2,89
   14c68:	85ca                	mv	a1,s2
   14c6a:	00006097          	auipc	ra,0x6
   14c6e:	e9a080e7          	jalr	-358(ra) # 1ab04 <memcpy>
   14c72:	4501                	li	a0,0
   14c74:	b765                	j	14c1c <_ZN20complex_full_dynamic3app17h9841921359ce7dceE+0xa0>

00014c76 <_ZN20complex_full_dynamic3app17h9856ff4dfb449418E>:
   14c76:	7159                	addi	sp,sp,-112
   14c78:	d686                	sw	ra,108(sp)
   14c7a:	d4a2                	sw	s0,104(sp)
   14c7c:	d2a6                	sw	s1,100(sp)
   14c7e:	d0ca                	sw	s2,96(sp)
   14c80:	cece                	sw	s3,92(sp)
   14c82:	89aa                	mv	s3,a0
   14c84:	4409                	li	s0,2
   14c86:	00810423          	sb	s0,8(sp)
   14c8a:	0064                	addi	s1,sp,12
   14c8c:	4679                	li	a2,30
   14c8e:	8526                	mv	a0,s1
   14c90:	00006097          	auipc	ra,0x6
   14c94:	e74080e7          	jalr	-396(ra) # 1ab04 <memcpy>
   14c98:	03810913          	addi	s2,sp,56
   14c9c:	02100613          	li	a2,33
   14ca0:	854a                	mv	a0,s2
   14ca2:	4581                	li	a1,0
   14ca4:	00006097          	auipc	ra,0x6
   14ca8:	df4080e7          	jalr	-524(ra) # 1aa98 <memset>
   14cac:	8626                	mv	a2,s1
   14cae:	02810a23          	sb	s0,52(sp)
   14cb2:	6509                	lui	a0,0x2
   14cb4:	4499                	li	s1,6
   14cb6:	4811                	li	a6,4
   14cb8:	4599                	li	a1,6
   14cba:	9b550793          	addi	a5,a0,-1611 # 19b5 <.Lline_table_start1+0x178a>
   14cbe:	46f9                	li	a3,30
   14cc0:	4711                	li	a4,4
   14cc2:	853e                	mv	a0,a5
   14cc4:	00000073          	ecall
   14cc8:	04850363          	beq	a0,s0,14d0e <_ZN20complex_full_dynamic3app17h9856ff4dfb449418E+0x98>
   14ccc:	853e                	mv	a0,a5
   14cce:	864a                	mv	a2,s2
   14cd0:	c03e                	sw	a5,0(sp)
   14cd2:	c226                	sw	s1,4(sp)
   14cd4:	01010423          	sb	a6,8(sp)
   14cd8:	44a5                	li	s1,9
   14cda:	480d                	li	a6,3
   14cdc:	45a5                	li	a1,9
   14cde:	02100693          	li	a3,33
   14ce2:	470d                	li	a4,3
   14ce4:	00000073          	ecall
   14ce8:	02850363          	beq	a0,s0,14d0e <_ZN20complex_full_dynamic3app17h9856ff4dfb449418E+0x98>
   14cec:	d63e                	sw	a5,44(sp)
   14cee:	d826                	sw	s1,48(sp)
   14cf0:	03010a23          	sb	a6,52(sp)
   14cf4:	6509                	lui	a0,0x2
   14cf6:	4599                	li	a1,6
   14cf8:	4625                	li	a2,9
   14cfa:	9b550513          	addi	a0,a0,-1611 # 19b5 <.Lline_table_start1+0x178a>
   14cfe:	4709                	li	a4,2
   14d00:	07f00793          	li	a5,127
   14d04:	4681                	li	a3,0
   14d06:	00000073          	ecall
   14d0a:	02a7e863          	bltu	a5,a0,14d3a <_ZN20complex_full_dynamic3app17h9856ff4dfb449418E+0xc4>
   14d0e:	00b9a223          	sw	a1,4(s3)
   14d12:	4505                	li	a0,1
   14d14:	00a98023          	sb	a0,0(s3)
   14d18:	1068                	addi	a0,sp,44
   14d1a:	00006097          	auipc	ra,0x6
   14d1e:	d60080e7          	jalr	-672(ra) # 1aa7a <_ZN9allow_pin12full_dynamic17unshare_if_shared17hcb7d6c8e9042aa41E>
   14d22:	850a                	mv	a0,sp
   14d24:	00006097          	auipc	ra,0x6
   14d28:	d56080e7          	jalr	-682(ra) # 1aa7a <_ZN9allow_pin12full_dynamic17unshare_if_shared17hcb7d6c8e9042aa41E>
   14d2c:	50b6                	lw	ra,108(sp)
   14d2e:	5426                	lw	s0,104(sp)
   14d30:	5496                	lw	s1,100(sp)
   14d32:	5906                	lw	s2,96(sp)
   14d34:	49f6                	lw	s3,92(sp)
   14d36:	6165                	addi	sp,sp,112
   14d38:	8082                	ret
   14d3a:	850a                	mv	a0,sp
   14d3c:	00006097          	auipc	ra,0x6
   14d40:	d3e080e7          	jalr	-706(ra) # 1aa7a <_ZN9allow_pin12full_dynamic17unshare_if_shared17hcb7d6c8e9042aa41E>
   14d44:	1068                	addi	a0,sp,44
   14d46:	00006097          	auipc	ra,0x6
   14d4a:	d34080e7          	jalr	-716(ra) # 1aa7a <_ZN9allow_pin12full_dynamic17unshare_if_shared17hcb7d6c8e9042aa41E>
   14d4e:	1068                	addi	a0,sp,44
   14d50:	00006097          	auipc	ra,0x6
   14d54:	d2a080e7          	jalr	-726(ra) # 1aa7a <_ZN9allow_pin12full_dynamic17unshare_if_shared17hcb7d6c8e9042aa41E>
   14d58:	00198513          	addi	a0,s3,1
   14d5c:	02100613          	li	a2,33
   14d60:	85ca                	mv	a1,s2
   14d62:	00006097          	auipc	ra,0x6
   14d66:	da2080e7          	jalr	-606(ra) # 1ab04 <memcpy>
   14d6a:	4501                	li	a0,0
   14d6c:	b765                	j	14d14 <_ZN20complex_full_dynamic3app17h9856ff4dfb449418E+0x9e>

00014d6e <_ZN20complex_full_dynamic3app17h997e10750d6c0511E>:
   14d6e:	7131                	addi	sp,sp,-192
   14d70:	df06                	sw	ra,188(sp)
   14d72:	dd22                	sw	s0,184(sp)
   14d74:	db26                	sw	s1,180(sp)
   14d76:	d94a                	sw	s2,176(sp)
   14d78:	d74e                	sw	s3,172(sp)
   14d7a:	89aa                	mv	s3,a0
   14d7c:	4409                	li	s0,2
   14d7e:	00810623          	sb	s0,12(sp)
   14d82:	0804                	addi	s1,sp,16
   14d84:	06300613          	li	a2,99
   14d88:	8526                	mv	a0,s1
   14d8a:	00006097          	auipc	ra,0x6
   14d8e:	d7a080e7          	jalr	-646(ra) # 1ab04 <memcpy>
   14d92:	08010913          	addi	s2,sp,128
   14d96:	02c00613          	li	a2,44
   14d9a:	854a                	mv	a0,s2
   14d9c:	4581                	li	a1,0
   14d9e:	00006097          	auipc	ra,0x6
   14da2:	cfa080e7          	jalr	-774(ra) # 1aa98 <memset>
   14da6:	8626                	mv	a2,s1
   14da8:	06810e23          	sb	s0,124(sp)
   14dac:	47e1                	li	a5,24
   14dae:	4495                	li	s1,5
   14db0:	4811                	li	a6,4
   14db2:	4561                	li	a0,24
   14db4:	4595                	li	a1,5
   14db6:	06300693          	li	a3,99
   14dba:	4711                	li	a4,4
   14dbc:	00000073          	ecall
   14dc0:	04850163          	beq	a0,s0,14e02 <_ZN20complex_full_dynamic3app17h997e10750d6c0511E+0x94>
   14dc4:	864a                	mv	a2,s2
   14dc6:	c23e                	sw	a5,4(sp)
   14dc8:	c426                	sw	s1,8(sp)
   14dca:	01010623          	sb	a6,12(sp)
   14dce:	478d                	li	a5,3
   14dd0:	4561                	li	a0,24
   14dd2:	458d                	li	a1,3
   14dd4:	02c00693          	li	a3,44
   14dd8:	470d                	li	a4,3
   14dda:	00000073          	ecall
   14dde:	02850263          	beq	a0,s0,14e02 <_ZN20complex_full_dynamic3app17h997e10750d6c0511E+0x94>
   14de2:	46e1                	li	a3,24
   14de4:	4561                	li	a0,24
   14de6:	4595                	li	a1,5
   14de8:	460d                	li	a2,3
   14dea:	4709                	li	a4,2
   14dec:	07f00493          	li	s1,127
   14df0:	dab6                	sw	a3,116(sp)
   14df2:	dcbe                	sw	a5,120(sp)
   14df4:	06f10e23          	sb	a5,124(sp)
   14df8:	4681                	li	a3,0
   14dfa:	00000073          	ecall
   14dfe:	02a4e863          	bltu	s1,a0,14e2e <_ZN20complex_full_dynamic3app17h997e10750d6c0511E+0xc0>
   14e02:	00b9a223          	sw	a1,4(s3)
   14e06:	4505                	li	a0,1
   14e08:	00a98023          	sb	a0,0(s3)
   14e0c:	18c8                	addi	a0,sp,116
   14e0e:	00006097          	auipc	ra,0x6
   14e12:	c6c080e7          	jalr	-916(ra) # 1aa7a <_ZN9allow_pin12full_dynamic17unshare_if_shared17hcb7d6c8e9042aa41E>
   14e16:	0048                	addi	a0,sp,4
   14e18:	00006097          	auipc	ra,0x6
   14e1c:	c62080e7          	jalr	-926(ra) # 1aa7a <_ZN9allow_pin12full_dynamic17unshare_if_shared17hcb7d6c8e9042aa41E>
   14e20:	50fa                	lw	ra,188(sp)
   14e22:	546a                	lw	s0,184(sp)
   14e24:	54da                	lw	s1,180(sp)
   14e26:	594a                	lw	s2,176(sp)
   14e28:	59ba                	lw	s3,172(sp)
   14e2a:	6129                	addi	sp,sp,192
   14e2c:	8082                	ret
   14e2e:	0048                	addi	a0,sp,4
   14e30:	00006097          	auipc	ra,0x6
   14e34:	c4a080e7          	jalr	-950(ra) # 1aa7a <_ZN9allow_pin12full_dynamic17unshare_if_shared17hcb7d6c8e9042aa41E>
   14e38:	18c8                	addi	a0,sp,116
   14e3a:	00006097          	auipc	ra,0x6
   14e3e:	c40080e7          	jalr	-960(ra) # 1aa7a <_ZN9allow_pin12full_dynamic17unshare_if_shared17hcb7d6c8e9042aa41E>
   14e42:	18c8                	addi	a0,sp,116
   14e44:	00006097          	auipc	ra,0x6
   14e48:	c36080e7          	jalr	-970(ra) # 1aa7a <_ZN9allow_pin12full_dynamic17unshare_if_shared17hcb7d6c8e9042aa41E>
   14e4c:	00198513          	addi	a0,s3,1
   14e50:	02c00613          	li	a2,44
   14e54:	85ca                	mv	a1,s2
   14e56:	00006097          	auipc	ra,0x6
   14e5a:	cae080e7          	jalr	-850(ra) # 1ab04 <memcpy>
   14e5e:	4501                	li	a0,0
   14e60:	b765                	j	14e08 <_ZN20complex_full_dynamic3app17h997e10750d6c0511E+0x9a>

00014e62 <_ZN20complex_full_dynamic3app17ha64e6d480426f8bbE>:
   14e62:	7131                	addi	sp,sp,-192
   14e64:	df06                	sw	ra,188(sp)
   14e66:	dd22                	sw	s0,184(sp)
   14e68:	db26                	sw	s1,180(sp)
   14e6a:	d94a                	sw	s2,176(sp)
   14e6c:	d74e                	sw	s3,172(sp)
   14e6e:	89aa                	mv	s3,a0
   14e70:	4409                	li	s0,2
   14e72:	00810823          	sb	s0,16(sp)
   14e76:	0844                	addi	s1,sp,20
   14e78:	04f00613          	li	a2,79
   14e7c:	8526                	mv	a0,s1
   14e7e:	00006097          	auipc	ra,0x6
   14e82:	c86080e7          	jalr	-890(ra) # 1ab04 <memcpy>
   14e86:	07010913          	addi	s2,sp,112
   14e8a:	03b00613          	li	a2,59
   14e8e:	854a                	mv	a0,s2
   14e90:	4581                	li	a1,0
   14e92:	00006097          	auipc	ra,0x6
   14e96:	c06080e7          	jalr	-1018(ra) # 1aa98 <memset>
   14e9a:	8626                	mv	a2,s1
   14e9c:	06810623          	sb	s0,108(sp)
   14ea0:	6505                	lui	a0,0x1
   14ea2:	44a1                	li	s1,8
   14ea4:	4811                	li	a6,4
   14ea6:	45a1                	li	a1,8
   14ea8:	a0650793          	addi	a5,a0,-1530 # a06 <.Lline_table_start1+0x7db>
   14eac:	04f00693          	li	a3,79
   14eb0:	4711                	li	a4,4
   14eb2:	853e                	mv	a0,a5
   14eb4:	00000073          	ecall
   14eb8:	04850363          	beq	a0,s0,14efe <_ZN20complex_full_dynamic3app17ha64e6d480426f8bbE+0x9c>
   14ebc:	853e                	mv	a0,a5
   14ebe:	864a                	mv	a2,s2
   14ec0:	c43e                	sw	a5,8(sp)
   14ec2:	c626                	sw	s1,12(sp)
   14ec4:	01010823          	sb	a6,16(sp)
   14ec8:	4495                	li	s1,5
   14eca:	480d                	li	a6,3
   14ecc:	4595                	li	a1,5
   14ece:	03b00693          	li	a3,59
   14ed2:	470d                	li	a4,3
   14ed4:	00000073          	ecall
   14ed8:	02850363          	beq	a0,s0,14efe <_ZN20complex_full_dynamic3app17ha64e6d480426f8bbE+0x9c>
   14edc:	d2be                	sw	a5,100(sp)
   14ede:	d4a6                	sw	s1,104(sp)
   14ee0:	07010623          	sb	a6,108(sp)
   14ee4:	6505                	lui	a0,0x1
   14ee6:	45a1                	li	a1,8
   14ee8:	4615                	li	a2,5
   14eea:	a0650513          	addi	a0,a0,-1530 # a06 <.Lline_table_start1+0x7db>
   14eee:	4709                	li	a4,2
   14ef0:	07f00793          	li	a5,127
   14ef4:	4681                	li	a3,0
   14ef6:	00000073          	ecall
   14efa:	02a7e863          	bltu	a5,a0,14f2a <_ZN20complex_full_dynamic3app17ha64e6d480426f8bbE+0xc8>
   14efe:	00b9a223          	sw	a1,4(s3)
   14f02:	4505                	li	a0,1
   14f04:	00a98023          	sb	a0,0(s3)
   14f08:	10c8                	addi	a0,sp,100
   14f0a:	00006097          	auipc	ra,0x6
   14f0e:	b70080e7          	jalr	-1168(ra) # 1aa7a <_ZN9allow_pin12full_dynamic17unshare_if_shared17hcb7d6c8e9042aa41E>
   14f12:	0028                	addi	a0,sp,8
   14f14:	00006097          	auipc	ra,0x6
   14f18:	b66080e7          	jalr	-1178(ra) # 1aa7a <_ZN9allow_pin12full_dynamic17unshare_if_shared17hcb7d6c8e9042aa41E>
   14f1c:	50fa                	lw	ra,188(sp)
   14f1e:	546a                	lw	s0,184(sp)
   14f20:	54da                	lw	s1,180(sp)
   14f22:	594a                	lw	s2,176(sp)
   14f24:	59ba                	lw	s3,172(sp)
   14f26:	6129                	addi	sp,sp,192
   14f28:	8082                	ret
   14f2a:	0028                	addi	a0,sp,8
   14f2c:	00006097          	auipc	ra,0x6
   14f30:	b4e080e7          	jalr	-1202(ra) # 1aa7a <_ZN9allow_pin12full_dynamic17unshare_if_shared17hcb7d6c8e9042aa41E>
   14f34:	10c8                	addi	a0,sp,100
   14f36:	00006097          	auipc	ra,0x6
   14f3a:	b44080e7          	jalr	-1212(ra) # 1aa7a <_ZN9allow_pin12full_dynamic17unshare_if_shared17hcb7d6c8e9042aa41E>
   14f3e:	10c8                	addi	a0,sp,100
   14f40:	00006097          	auipc	ra,0x6
   14f44:	b3a080e7          	jalr	-1222(ra) # 1aa7a <_ZN9allow_pin12full_dynamic17unshare_if_shared17hcb7d6c8e9042aa41E>
   14f48:	00198513          	addi	a0,s3,1
   14f4c:	03b00613          	li	a2,59
   14f50:	85ca                	mv	a1,s2
   14f52:	00006097          	auipc	ra,0x6
   14f56:	bb2080e7          	jalr	-1102(ra) # 1ab04 <memcpy>
   14f5a:	4501                	li	a0,0
   14f5c:	b765                	j	14f04 <_ZN20complex_full_dynamic3app17ha64e6d480426f8bbE+0xa2>

00014f5e <_ZN20complex_full_dynamic3app17ha6662018a611872bE>:
   14f5e:	7171                	addi	sp,sp,-176
   14f60:	d706                	sw	ra,172(sp)
   14f62:	d522                	sw	s0,168(sp)
   14f64:	d326                	sw	s1,164(sp)
   14f66:	d14a                	sw	s2,160(sp)
   14f68:	cf4e                	sw	s3,156(sp)
   14f6a:	89aa                	mv	s3,a0
   14f6c:	4409                	li	s0,2
   14f6e:	00810a23          	sb	s0,20(sp)
   14f72:	0824                	addi	s1,sp,24
   14f74:	02100613          	li	a2,33
   14f78:	8526                	mv	a0,s1
   14f7a:	00006097          	auipc	ra,0x6
   14f7e:	b8a080e7          	jalr	-1142(ra) # 1ab04 <memcpy>
   14f82:	04810913          	addi	s2,sp,72
   14f86:	05300613          	li	a2,83
   14f8a:	854a                	mv	a0,s2
   14f8c:	4581                	li	a1,0
   14f8e:	00006097          	auipc	ra,0x6
   14f92:	b0a080e7          	jalr	-1270(ra) # 1aa98 <memset>
   14f96:	8626                	mv	a2,s1
   14f98:	04810223          	sb	s0,68(sp)
   14f9c:	6509                	lui	a0,0x2
   14f9e:	4491                	li	s1,4
   14fa0:	4589                	li	a1,2
   14fa2:	53e50793          	addi	a5,a0,1342 # 253e <.Lline_table_start1+0x2313>
   14fa6:	02100693          	li	a3,33
   14faa:	4711                	li	a4,4
   14fac:	853e                	mv	a0,a5
   14fae:	00000073          	ecall
   14fb2:	04850363          	beq	a0,s0,14ff8 <_ZN20complex_full_dynamic3app17ha6662018a611872bE+0x9a>
   14fb6:	853e                	mv	a0,a5
   14fb8:	864a                	mv	a2,s2
   14fba:	c63e                	sw	a5,12(sp)
   14fbc:	c822                	sw	s0,16(sp)
   14fbe:	00910a23          	sb	s1,20(sp)
   14fc2:	44a1                	li	s1,8
   14fc4:	480d                	li	a6,3
   14fc6:	45a1                	li	a1,8
   14fc8:	05300693          	li	a3,83
   14fcc:	470d                	li	a4,3
   14fce:	00000073          	ecall
   14fd2:	02850363          	beq	a0,s0,14ff8 <_ZN20complex_full_dynamic3app17ha6662018a611872bE+0x9a>
   14fd6:	de3e                	sw	a5,60(sp)
   14fd8:	c0a6                	sw	s1,64(sp)
   14fda:	05010223          	sb	a6,68(sp)
   14fde:	6509                	lui	a0,0x2
   14fe0:	4589                	li	a1,2
   14fe2:	4621                	li	a2,8
   14fe4:	53e50513          	addi	a0,a0,1342 # 253e <.Lline_table_start1+0x2313>
   14fe8:	4709                	li	a4,2
   14fea:	07f00793          	li	a5,127
   14fee:	4681                	li	a3,0
   14ff0:	00000073          	ecall
   14ff4:	02a7e863          	bltu	a5,a0,15024 <_ZN20complex_full_dynamic3app17ha6662018a611872bE+0xc6>
   14ff8:	00b9a223          	sw	a1,4(s3)
   14ffc:	4505                	li	a0,1
   14ffe:	00a98023          	sb	a0,0(s3)
   15002:	1868                	addi	a0,sp,60
   15004:	00006097          	auipc	ra,0x6
   15008:	a76080e7          	jalr	-1418(ra) # 1aa7a <_ZN9allow_pin12full_dynamic17unshare_if_shared17hcb7d6c8e9042aa41E>
   1500c:	0068                	addi	a0,sp,12
   1500e:	00006097          	auipc	ra,0x6
   15012:	a6c080e7          	jalr	-1428(ra) # 1aa7a <_ZN9allow_pin12full_dynamic17unshare_if_shared17hcb7d6c8e9042aa41E>
   15016:	50ba                	lw	ra,172(sp)
   15018:	542a                	lw	s0,168(sp)
   1501a:	549a                	lw	s1,164(sp)
   1501c:	590a                	lw	s2,160(sp)
   1501e:	49fa                	lw	s3,156(sp)
   15020:	614d                	addi	sp,sp,176
   15022:	8082                	ret
   15024:	0068                	addi	a0,sp,12
   15026:	00006097          	auipc	ra,0x6
   1502a:	a54080e7          	jalr	-1452(ra) # 1aa7a <_ZN9allow_pin12full_dynamic17unshare_if_shared17hcb7d6c8e9042aa41E>
   1502e:	1868                	addi	a0,sp,60
   15030:	00006097          	auipc	ra,0x6
   15034:	a4a080e7          	jalr	-1462(ra) # 1aa7a <_ZN9allow_pin12full_dynamic17unshare_if_shared17hcb7d6c8e9042aa41E>
   15038:	1868                	addi	a0,sp,60
   1503a:	00006097          	auipc	ra,0x6
   1503e:	a40080e7          	jalr	-1472(ra) # 1aa7a <_ZN9allow_pin12full_dynamic17unshare_if_shared17hcb7d6c8e9042aa41E>
   15042:	00198513          	addi	a0,s3,1
   15046:	05300613          	li	a2,83
   1504a:	85ca                	mv	a1,s2
   1504c:	00006097          	auipc	ra,0x6
   15050:	ab8080e7          	jalr	-1352(ra) # 1ab04 <memcpy>
   15054:	4501                	li	a0,0
   15056:	b765                	j	14ffe <_ZN20complex_full_dynamic3app17ha6662018a611872bE+0xa0>

00015058 <_ZN20complex_full_dynamic3app17ha9b02b1dc056b1c6E>:
   15058:	7119                	addi	sp,sp,-128
   1505a:	de86                	sw	ra,124(sp)
   1505c:	dca2                	sw	s0,120(sp)
   1505e:	daa6                	sw	s1,116(sp)
   15060:	d8ca                	sw	s2,112(sp)
   15062:	d6ce                	sw	s3,108(sp)
   15064:	89aa                	mv	s3,a0
   15066:	4409                	li	s0,2
   15068:	00810823          	sb	s0,16(sp)
   1506c:	0844                	addi	s1,sp,20
   1506e:	4679                	li	a2,30
   15070:	8526                	mv	a0,s1
   15072:	00006097          	auipc	ra,0x6
   15076:	a92080e7          	jalr	-1390(ra) # 1ab04 <memcpy>
   1507a:	04010913          	addi	s2,sp,64
   1507e:	02c00613          	li	a2,44
   15082:	854a                	mv	a0,s2
   15084:	4581                	li	a1,0
   15086:	00006097          	auipc	ra,0x6
   1508a:	a12080e7          	jalr	-1518(ra) # 1aa98 <memset>
   1508e:	8626                	mv	a2,s1
   15090:	02810e23          	sb	s0,60(sp)
   15094:	3fb00793          	li	a5,1019
   15098:	449d                	li	s1,7
   1509a:	4811                	li	a6,4
   1509c:	3fb00513          	li	a0,1019
   150a0:	459d                	li	a1,7
   150a2:	46f9                	li	a3,30
   150a4:	4711                	li	a4,4
   150a6:	00000073          	ecall
   150aa:	04850463          	beq	a0,s0,150f2 <_ZN20complex_full_dynamic3app17ha9b02b1dc056b1c6E+0x9a>
   150ae:	4581                	li	a1,0
   150b0:	864a                	mv	a2,s2
   150b2:	c43e                	sw	a5,8(sp)
   150b4:	c626                	sw	s1,12(sp)
   150b6:	01010823          	sb	a6,16(sp)
   150ba:	478d                	li	a5,3
   150bc:	3fb00513          	li	a0,1019
   150c0:	02c00693          	li	a3,44
   150c4:	470d                	li	a4,3
   150c6:	00000073          	ecall
   150ca:	02850463          	beq	a0,s0,150f2 <_ZN20complex_full_dynamic3app17ha9b02b1dc056b1c6E+0x9a>
   150ce:	3fb00613          	li	a2,1019
   150d2:	3fb00513          	li	a0,1019
   150d6:	459d                	li	a1,7
   150d8:	4709                	li	a4,2
   150da:	07f00493          	li	s1,127
   150de:	da32                	sw	a2,52(sp)
   150e0:	dc02                	sw	zero,56(sp)
   150e2:	02f10e23          	sb	a5,60(sp)
   150e6:	4601                	li	a2,0
   150e8:	4681                	li	a3,0
   150ea:	00000073          	ecall
   150ee:	02a4e863          	bltu	s1,a0,1511e <_ZN20complex_full_dynamic3app17ha9b02b1dc056b1c6E+0xc6>
   150f2:	00b9a223          	sw	a1,4(s3)
   150f6:	4505                	li	a0,1
   150f8:	00a98023          	sb	a0,0(s3)
   150fc:	1848                	addi	a0,sp,52
   150fe:	00006097          	auipc	ra,0x6
   15102:	97c080e7          	jalr	-1668(ra) # 1aa7a <_ZN9allow_pin12full_dynamic17unshare_if_shared17hcb7d6c8e9042aa41E>
   15106:	0028                	addi	a0,sp,8
   15108:	00006097          	auipc	ra,0x6
   1510c:	972080e7          	jalr	-1678(ra) # 1aa7a <_ZN9allow_pin12full_dynamic17unshare_if_shared17hcb7d6c8e9042aa41E>
   15110:	50f6                	lw	ra,124(sp)
   15112:	5466                	lw	s0,120(sp)
   15114:	54d6                	lw	s1,116(sp)
   15116:	5946                	lw	s2,112(sp)
   15118:	59b6                	lw	s3,108(sp)
   1511a:	6109                	addi	sp,sp,128
   1511c:	8082                	ret
   1511e:	0028                	addi	a0,sp,8
   15120:	00006097          	auipc	ra,0x6
   15124:	95a080e7          	jalr	-1702(ra) # 1aa7a <_ZN9allow_pin12full_dynamic17unshare_if_shared17hcb7d6c8e9042aa41E>
   15128:	1848                	addi	a0,sp,52
   1512a:	00006097          	auipc	ra,0x6
   1512e:	950080e7          	jalr	-1712(ra) # 1aa7a <_ZN9allow_pin12full_dynamic17unshare_if_shared17hcb7d6c8e9042aa41E>
   15132:	1848                	addi	a0,sp,52
   15134:	00006097          	auipc	ra,0x6
   15138:	946080e7          	jalr	-1722(ra) # 1aa7a <_ZN9allow_pin12full_dynamic17unshare_if_shared17hcb7d6c8e9042aa41E>
   1513c:	00198513          	addi	a0,s3,1
   15140:	02c00613          	li	a2,44
   15144:	85ca                	mv	a1,s2
   15146:	00006097          	auipc	ra,0x6
   1514a:	9be080e7          	jalr	-1602(ra) # 1ab04 <memcpy>
   1514e:	4501                	li	a0,0
   15150:	b765                	j	150f8 <_ZN20complex_full_dynamic3app17ha9b02b1dc056b1c6E+0xa0>

00015152 <_ZN20complex_full_dynamic3app17hb0487b9ff50e1b44E>:
   15152:	7119                	addi	sp,sp,-128
   15154:	de86                	sw	ra,124(sp)
   15156:	dca2                	sw	s0,120(sp)
   15158:	daa6                	sw	s1,116(sp)
   1515a:	d8ca                	sw	s2,112(sp)
   1515c:	d6ce                	sw	s3,108(sp)
   1515e:	89aa                	mv	s3,a0
   15160:	4409                	li	s0,2
   15162:	00810423          	sb	s0,8(sp)
   15166:	0064                	addi	s1,sp,12
   15168:	03f00613          	li	a2,63
   1516c:	8526                	mv	a0,s1
   1516e:	00006097          	auipc	ra,0x6
   15172:	996080e7          	jalr	-1642(ra) # 1ab04 <memcpy>
   15176:	05810913          	addi	s2,sp,88
   1517a:	4645                	li	a2,17
   1517c:	854a                	mv	a0,s2
   1517e:	4581                	li	a1,0
   15180:	00006097          	auipc	ra,0x6
   15184:	918080e7          	jalr	-1768(ra) # 1aa98 <memset>
   15188:	8626                	mv	a2,s1
   1518a:	04810a23          	sb	s0,84(sp)
   1518e:	6505                	lui	a0,0x1
   15190:	4491                	li	s1,4
   15192:	4591                	li	a1,4
   15194:	4d750793          	addi	a5,a0,1239 # 14d7 <.Lline_table_start1+0x12ac>
   15198:	03f00693          	li	a3,63
   1519c:	4711                	li	a4,4
   1519e:	853e                	mv	a0,a5
   151a0:	00000073          	ecall
   151a4:	04850163          	beq	a0,s0,151e6 <_ZN20complex_full_dynamic3app17hb0487b9ff50e1b44E+0x94>
   151a8:	853e                	mv	a0,a5
   151aa:	864a                	mv	a2,s2
   151ac:	c03e                	sw	a5,0(sp)
   151ae:	c226                	sw	s1,4(sp)
   151b0:	00910423          	sb	s1,8(sp)
   151b4:	448d                	li	s1,3
   151b6:	458d                	li	a1,3
   151b8:	46c5                	li	a3,17
   151ba:	470d                	li	a4,3
   151bc:	00000073          	ecall
   151c0:	02850363          	beq	a0,s0,151e6 <_ZN20complex_full_dynamic3app17hb0487b9ff50e1b44E+0x94>
   151c4:	c6be                	sw	a5,76(sp)
   151c6:	c8a6                	sw	s1,80(sp)
   151c8:	04910a23          	sb	s1,84(sp)
   151cc:	6505                	lui	a0,0x1
   151ce:	4591                	li	a1,4
   151d0:	460d                	li	a2,3
   151d2:	4d750513          	addi	a0,a0,1239 # 14d7 <.Lline_table_start1+0x12ac>
   151d6:	4709                	li	a4,2
   151d8:	07f00793          	li	a5,127
   151dc:	4681                	li	a3,0
   151de:	00000073          	ecall
   151e2:	02a7e863          	bltu	a5,a0,15212 <_ZN20complex_full_dynamic3app17hb0487b9ff50e1b44E+0xc0>
   151e6:	00b9a223          	sw	a1,4(s3)
   151ea:	4505                	li	a0,1
   151ec:	00a98023          	sb	a0,0(s3)
   151f0:	00e8                	addi	a0,sp,76
   151f2:	00006097          	auipc	ra,0x6
   151f6:	888080e7          	jalr	-1912(ra) # 1aa7a <_ZN9allow_pin12full_dynamic17unshare_if_shared17hcb7d6c8e9042aa41E>
   151fa:	850a                	mv	a0,sp
   151fc:	00006097          	auipc	ra,0x6
   15200:	87e080e7          	jalr	-1922(ra) # 1aa7a <_ZN9allow_pin12full_dynamic17unshare_if_shared17hcb7d6c8e9042aa41E>
   15204:	50f6                	lw	ra,124(sp)
   15206:	5466                	lw	s0,120(sp)
   15208:	54d6                	lw	s1,116(sp)
   1520a:	5946                	lw	s2,112(sp)
   1520c:	59b6                	lw	s3,108(sp)
   1520e:	6109                	addi	sp,sp,128
   15210:	8082                	ret
   15212:	850a                	mv	a0,sp
   15214:	00006097          	auipc	ra,0x6
   15218:	866080e7          	jalr	-1946(ra) # 1aa7a <_ZN9allow_pin12full_dynamic17unshare_if_shared17hcb7d6c8e9042aa41E>
   1521c:	00e8                	addi	a0,sp,76
   1521e:	00006097          	auipc	ra,0x6
   15222:	85c080e7          	jalr	-1956(ra) # 1aa7a <_ZN9allow_pin12full_dynamic17unshare_if_shared17hcb7d6c8e9042aa41E>
   15226:	00e8                	addi	a0,sp,76
   15228:	00006097          	auipc	ra,0x6
   1522c:	852080e7          	jalr	-1966(ra) # 1aa7a <_ZN9allow_pin12full_dynamic17unshare_if_shared17hcb7d6c8e9042aa41E>
   15230:	00198513          	addi	a0,s3,1
   15234:	4645                	li	a2,17
   15236:	85ca                	mv	a1,s2
   15238:	00006097          	auipc	ra,0x6
   1523c:	8cc080e7          	jalr	-1844(ra) # 1ab04 <memcpy>
   15240:	4501                	li	a0,0
   15242:	b76d                	j	151ec <_ZN20complex_full_dynamic3app17hb0487b9ff50e1b44E+0x9a>

00015244 <_ZN20complex_full_dynamic3app17hb0756f78be30c3d2E>:
   15244:	7171                	addi	sp,sp,-176
   15246:	d706                	sw	ra,172(sp)
   15248:	d522                	sw	s0,168(sp)
   1524a:	d326                	sw	s1,164(sp)
   1524c:	d14a                	sw	s2,160(sp)
   1524e:	cf4e                	sw	s3,156(sp)
   15250:	89aa                	mv	s3,a0
   15252:	4409                	li	s0,2
   15254:	00810a23          	sb	s0,20(sp)
   15258:	0824                	addi	s1,sp,24
   1525a:	02200613          	li	a2,34
   1525e:	8526                	mv	a0,s1
   15260:	00006097          	auipc	ra,0x6
   15264:	8a4080e7          	jalr	-1884(ra) # 1ab04 <memcpy>
   15268:	04810913          	addi	s2,sp,72
   1526c:	05100613          	li	a2,81
   15270:	854a                	mv	a0,s2
   15272:	4581                	li	a1,0
   15274:	00006097          	auipc	ra,0x6
   15278:	824080e7          	jalr	-2012(ra) # 1aa98 <memset>
   1527c:	8626                	mv	a2,s1
   1527e:	04810223          	sb	s0,68(sp)
   15282:	55e00793          	li	a5,1374
   15286:	44a5                	li	s1,9
   15288:	4811                	li	a6,4
   1528a:	55e00513          	li	a0,1374
   1528e:	45a5                	li	a1,9
   15290:	02200693          	li	a3,34
   15294:	4711                	li	a4,4
   15296:	00000073          	ecall
   1529a:	04850563          	beq	a0,s0,152e4 <_ZN20complex_full_dynamic3app17hb0756f78be30c3d2E+0xa0>
   1529e:	864a                	mv	a2,s2
   152a0:	c63e                	sw	a5,12(sp)
   152a2:	c826                	sw	s1,16(sp)
   152a4:	01010a23          	sb	a6,20(sp)
   152a8:	478d                	li	a5,3
   152aa:	55e00513          	li	a0,1374
   152ae:	45a5                	li	a1,9
   152b0:	05100693          	li	a3,81
   152b4:	470d                	li	a4,3
   152b6:	00000073          	ecall
   152ba:	02850563          	beq	a0,s0,152e4 <_ZN20complex_full_dynamic3app17hb0756f78be30c3d2E+0xa0>
   152be:	55e00693          	li	a3,1374
   152c2:	44a5                	li	s1,9
   152c4:	55e00513          	li	a0,1374
   152c8:	45a5                	li	a1,9
   152ca:	4625                	li	a2,9
   152cc:	4709                	li	a4,2
   152ce:	07f00413          	li	s0,127
   152d2:	de36                	sw	a3,60(sp)
   152d4:	c0a6                	sw	s1,64(sp)
   152d6:	04f10223          	sb	a5,68(sp)
   152da:	4681                	li	a3,0
   152dc:	00000073          	ecall
   152e0:	02a46863          	bltu	s0,a0,15310 <_ZN20complex_full_dynamic3app17hb0756f78be30c3d2E+0xcc>
   152e4:	00b9a223          	sw	a1,4(s3)
   152e8:	4505                	li	a0,1
   152ea:	00a98023          	sb	a0,0(s3)
   152ee:	1868                	addi	a0,sp,60
   152f0:	00005097          	auipc	ra,0x5
   152f4:	78a080e7          	jalr	1930(ra) # 1aa7a <_ZN9allow_pin12full_dynamic17unshare_if_shared17hcb7d6c8e9042aa41E>
   152f8:	0068                	addi	a0,sp,12
   152fa:	00005097          	auipc	ra,0x5
   152fe:	780080e7          	jalr	1920(ra) # 1aa7a <_ZN9allow_pin12full_dynamic17unshare_if_shared17hcb7d6c8e9042aa41E>
   15302:	50ba                	lw	ra,172(sp)
   15304:	542a                	lw	s0,168(sp)
   15306:	549a                	lw	s1,164(sp)
   15308:	590a                	lw	s2,160(sp)
   1530a:	49fa                	lw	s3,156(sp)
   1530c:	614d                	addi	sp,sp,176
   1530e:	8082                	ret
   15310:	0068                	addi	a0,sp,12
   15312:	00005097          	auipc	ra,0x5
   15316:	768080e7          	jalr	1896(ra) # 1aa7a <_ZN9allow_pin12full_dynamic17unshare_if_shared17hcb7d6c8e9042aa41E>
   1531a:	1868                	addi	a0,sp,60
   1531c:	00005097          	auipc	ra,0x5
   15320:	75e080e7          	jalr	1886(ra) # 1aa7a <_ZN9allow_pin12full_dynamic17unshare_if_shared17hcb7d6c8e9042aa41E>
   15324:	1868                	addi	a0,sp,60
   15326:	00005097          	auipc	ra,0x5
   1532a:	754080e7          	jalr	1876(ra) # 1aa7a <_ZN9allow_pin12full_dynamic17unshare_if_shared17hcb7d6c8e9042aa41E>
   1532e:	00198513          	addi	a0,s3,1
   15332:	05100613          	li	a2,81
   15336:	85ca                	mv	a1,s2
   15338:	00005097          	auipc	ra,0x5
   1533c:	7cc080e7          	jalr	1996(ra) # 1ab04 <memcpy>
   15340:	4501                	li	a0,0
   15342:	b765                	j	152ea <_ZN20complex_full_dynamic3app17hb0756f78be30c3d2E+0xa6>

00015344 <_ZN20complex_full_dynamic3app17hb1d7d2f038a76b94E>:
   15344:	7175                	addi	sp,sp,-144
   15346:	c706                	sw	ra,140(sp)
   15348:	c522                	sw	s0,136(sp)
   1534a:	c326                	sw	s1,132(sp)
   1534c:	c14a                	sw	s2,128(sp)
   1534e:	dece                	sw	s3,124(sp)
   15350:	89aa                	mv	s3,a0
   15352:	4409                	li	s0,2
   15354:	00810823          	sb	s0,16(sp)
   15358:	0844                	addi	s1,sp,20
   1535a:	04100613          	li	a2,65
   1535e:	8526                	mv	a0,s1
   15360:	00005097          	auipc	ra,0x5
   15364:	7a4080e7          	jalr	1956(ra) # 1ab04 <memcpy>
   15368:	06410913          	addi	s2,sp,100
   1536c:	4661                	li	a2,24
   1536e:	854a                	mv	a0,s2
   15370:	4581                	li	a1,0
   15372:	00005097          	auipc	ra,0x5
   15376:	726080e7          	jalr	1830(ra) # 1aa98 <memset>
   1537a:	8626                	mv	a2,s1
   1537c:	06810023          	sb	s0,96(sp)
   15380:	6509                	lui	a0,0x2
   15382:	4485                	li	s1,1
   15384:	4811                	li	a6,4
   15386:	4585                	li	a1,1
   15388:	15650793          	addi	a5,a0,342 # 2156 <.Lline_table_start1+0x1f2b>
   1538c:	04100693          	li	a3,65
   15390:	4711                	li	a4,4
   15392:	853e                	mv	a0,a5
   15394:	00000073          	ecall
   15398:	04850263          	beq	a0,s0,153dc <_ZN20complex_full_dynamic3app17hb1d7d2f038a76b94E+0x98>
   1539c:	853e                	mv	a0,a5
   1539e:	864a                	mv	a2,s2
   153a0:	c43e                	sw	a5,8(sp)
   153a2:	c626                	sw	s1,12(sp)
   153a4:	01010823          	sb	a6,16(sp)
   153a8:	44a5                	li	s1,9
   153aa:	480d                	li	a6,3
   153ac:	45a5                	li	a1,9
   153ae:	46e1                	li	a3,24
   153b0:	470d                	li	a4,3
   153b2:	00000073          	ecall
   153b6:	02850363          	beq	a0,s0,153dc <_ZN20complex_full_dynamic3app17hb1d7d2f038a76b94E+0x98>
   153ba:	ccbe                	sw	a5,88(sp)
   153bc:	cea6                	sw	s1,92(sp)
   153be:	07010023          	sb	a6,96(sp)
   153c2:	6509                	lui	a0,0x2
   153c4:	4585                	li	a1,1
   153c6:	4625                	li	a2,9
   153c8:	15650513          	addi	a0,a0,342 # 2156 <.Lline_table_start1+0x1f2b>
   153cc:	4709                	li	a4,2
   153ce:	07f00793          	li	a5,127
   153d2:	4681                	li	a3,0
   153d4:	00000073          	ecall
   153d8:	02a7e863          	bltu	a5,a0,15408 <_ZN20complex_full_dynamic3app17hb1d7d2f038a76b94E+0xc4>
   153dc:	00b9a223          	sw	a1,4(s3)
   153e0:	4505                	li	a0,1
   153e2:	00a98023          	sb	a0,0(s3)
   153e6:	08a8                	addi	a0,sp,88
   153e8:	00005097          	auipc	ra,0x5
   153ec:	692080e7          	jalr	1682(ra) # 1aa7a <_ZN9allow_pin12full_dynamic17unshare_if_shared17hcb7d6c8e9042aa41E>
   153f0:	0028                	addi	a0,sp,8
   153f2:	00005097          	auipc	ra,0x5
   153f6:	688080e7          	jalr	1672(ra) # 1aa7a <_ZN9allow_pin12full_dynamic17unshare_if_shared17hcb7d6c8e9042aa41E>
   153fa:	40ba                	lw	ra,140(sp)
   153fc:	442a                	lw	s0,136(sp)
   153fe:	449a                	lw	s1,132(sp)
   15400:	490a                	lw	s2,128(sp)
   15402:	59f6                	lw	s3,124(sp)
   15404:	6149                	addi	sp,sp,144
   15406:	8082                	ret
   15408:	0028                	addi	a0,sp,8
   1540a:	00005097          	auipc	ra,0x5
   1540e:	670080e7          	jalr	1648(ra) # 1aa7a <_ZN9allow_pin12full_dynamic17unshare_if_shared17hcb7d6c8e9042aa41E>
   15412:	08a8                	addi	a0,sp,88
   15414:	00005097          	auipc	ra,0x5
   15418:	666080e7          	jalr	1638(ra) # 1aa7a <_ZN9allow_pin12full_dynamic17unshare_if_shared17hcb7d6c8e9042aa41E>
   1541c:	08a8                	addi	a0,sp,88
   1541e:	00005097          	auipc	ra,0x5
   15422:	65c080e7          	jalr	1628(ra) # 1aa7a <_ZN9allow_pin12full_dynamic17unshare_if_shared17hcb7d6c8e9042aa41E>
   15426:	00198513          	addi	a0,s3,1
   1542a:	4661                	li	a2,24
   1542c:	85ca                	mv	a1,s2
   1542e:	00005097          	auipc	ra,0x5
   15432:	6d6080e7          	jalr	1750(ra) # 1ab04 <memcpy>
   15436:	4501                	li	a0,0
   15438:	b76d                	j	153e2 <_ZN20complex_full_dynamic3app17hb1d7d2f038a76b94E+0x9e>

0001543a <_ZN20complex_full_dynamic3app17hb2449913d96c609dE>:
   1543a:	7175                	addi	sp,sp,-144
   1543c:	c706                	sw	ra,140(sp)
   1543e:	c522                	sw	s0,136(sp)
   15440:	c326                	sw	s1,132(sp)
   15442:	c14a                	sw	s2,128(sp)
   15444:	dece                	sw	s3,124(sp)
   15446:	89aa                	mv	s3,a0
   15448:	4409                	li	s0,2
   1544a:	00810423          	sb	s0,8(sp)
   1544e:	0064                	addi	s1,sp,12
   15450:	03b00613          	li	a2,59
   15454:	8526                	mv	a0,s1
   15456:	00005097          	auipc	ra,0x5
   1545a:	6ae080e7          	jalr	1710(ra) # 1ab04 <memcpy>
   1545e:	05410913          	addi	s2,sp,84
   15462:	02700613          	li	a2,39
   15466:	854a                	mv	a0,s2
   15468:	4581                	li	a1,0
   1546a:	00005097          	auipc	ra,0x5
   1546e:	62e080e7          	jalr	1582(ra) # 1aa98 <memset>
   15472:	8626                	mv	a2,s1
   15474:	04810823          	sb	s0,80(sp)
   15478:	6505                	lui	a0,0x1
   1547a:	4495                	li	s1,5
   1547c:	4811                	li	a6,4
   1547e:	4595                	li	a1,5
   15480:	bd350793          	addi	a5,a0,-1069 # bd3 <.Lline_table_start1+0x9a8>
   15484:	03b00693          	li	a3,59
   15488:	4711                	li	a4,4
   1548a:	853e                	mv	a0,a5
   1548c:	00000073          	ecall
   15490:	04850263          	beq	a0,s0,154d4 <_ZN20complex_full_dynamic3app17hb2449913d96c609dE+0x9a>
   15494:	853e                	mv	a0,a5
   15496:	864a                	mv	a2,s2
   15498:	c03e                	sw	a5,0(sp)
   1549a:	c226                	sw	s1,4(sp)
   1549c:	01010423          	sb	a6,8(sp)
   154a0:	448d                	li	s1,3
   154a2:	458d                	li	a1,3
   154a4:	02700693          	li	a3,39
   154a8:	470d                	li	a4,3
   154aa:	00000073          	ecall
   154ae:	02850363          	beq	a0,s0,154d4 <_ZN20complex_full_dynamic3app17hb2449913d96c609dE+0x9a>
   154b2:	c4be                	sw	a5,72(sp)
   154b4:	c6a6                	sw	s1,76(sp)
   154b6:	04910823          	sb	s1,80(sp)
   154ba:	6505                	lui	a0,0x1
   154bc:	4595                	li	a1,5
   154be:	460d                	li	a2,3
   154c0:	bd350513          	addi	a0,a0,-1069 # bd3 <.Lline_table_start1+0x9a8>
   154c4:	4709                	li	a4,2
   154c6:	07f00793          	li	a5,127
   154ca:	4681                	li	a3,0
   154cc:	00000073          	ecall
   154d0:	02a7e863          	bltu	a5,a0,15500 <_ZN20complex_full_dynamic3app17hb2449913d96c609dE+0xc6>
   154d4:	00b9a223          	sw	a1,4(s3)
   154d8:	4505                	li	a0,1
   154da:	00a98023          	sb	a0,0(s3)
   154de:	00a8                	addi	a0,sp,72
   154e0:	00005097          	auipc	ra,0x5
   154e4:	59a080e7          	jalr	1434(ra) # 1aa7a <_ZN9allow_pin12full_dynamic17unshare_if_shared17hcb7d6c8e9042aa41E>
   154e8:	850a                	mv	a0,sp
   154ea:	00005097          	auipc	ra,0x5
   154ee:	590080e7          	jalr	1424(ra) # 1aa7a <_ZN9allow_pin12full_dynamic17unshare_if_shared17hcb7d6c8e9042aa41E>
   154f2:	40ba                	lw	ra,140(sp)
   154f4:	442a                	lw	s0,136(sp)
   154f6:	449a                	lw	s1,132(sp)
   154f8:	490a                	lw	s2,128(sp)
   154fa:	59f6                	lw	s3,124(sp)
   154fc:	6149                	addi	sp,sp,144
   154fe:	8082                	ret
   15500:	850a                	mv	a0,sp
   15502:	00005097          	auipc	ra,0x5
   15506:	578080e7          	jalr	1400(ra) # 1aa7a <_ZN9allow_pin12full_dynamic17unshare_if_shared17hcb7d6c8e9042aa41E>
   1550a:	00a8                	addi	a0,sp,72
   1550c:	00005097          	auipc	ra,0x5
   15510:	56e080e7          	jalr	1390(ra) # 1aa7a <_ZN9allow_pin12full_dynamic17unshare_if_shared17hcb7d6c8e9042aa41E>
   15514:	00a8                	addi	a0,sp,72
   15516:	00005097          	auipc	ra,0x5
   1551a:	564080e7          	jalr	1380(ra) # 1aa7a <_ZN9allow_pin12full_dynamic17unshare_if_shared17hcb7d6c8e9042aa41E>
   1551e:	00198513          	addi	a0,s3,1
   15522:	02700613          	li	a2,39
   15526:	85ca                	mv	a1,s2
   15528:	00005097          	auipc	ra,0x5
   1552c:	5dc080e7          	jalr	1500(ra) # 1ab04 <memcpy>
   15530:	4501                	li	a0,0
   15532:	b765                	j	154da <_ZN20complex_full_dynamic3app17hb2449913d96c609dE+0xa0>

00015534 <_ZN20complex_full_dynamic3app17hb72973b6530fd759E>:
   15534:	7175                	addi	sp,sp,-144
   15536:	c706                	sw	ra,140(sp)
   15538:	c522                	sw	s0,136(sp)
   1553a:	c326                	sw	s1,132(sp)
   1553c:	c14a                	sw	s2,128(sp)
   1553e:	dece                	sw	s3,124(sp)
   15540:	89aa                	mv	s3,a0
   15542:	4409                	li	s0,2
   15544:	00810623          	sb	s0,12(sp)
   15548:	0804                	addi	s1,sp,16
   1554a:	466d                	li	a2,27
   1554c:	8526                	mv	a0,s1
   1554e:	00005097          	auipc	ra,0x5
   15552:	5b6080e7          	jalr	1462(ra) # 1ab04 <memcpy>
   15556:	03810913          	addi	s2,sp,56
   1555a:	04100613          	li	a2,65
   1555e:	854a                	mv	a0,s2
   15560:	4581                	li	a1,0
   15562:	00005097          	auipc	ra,0x5
   15566:	536080e7          	jalr	1334(ra) # 1aa98 <memset>
   1556a:	8626                	mv	a2,s1
   1556c:	02810a23          	sb	s0,52(sp)
   15570:	14000793          	li	a5,320
   15574:	44a1                	li	s1,8
   15576:	4811                	li	a6,4
   15578:	14000513          	li	a0,320
   1557c:	45a1                	li	a1,8
   1557e:	46ed                	li	a3,27
   15580:	4711                	li	a4,4
   15582:	00000073          	ecall
   15586:	04850563          	beq	a0,s0,155d0 <_ZN20complex_full_dynamic3app17hb72973b6530fd759E+0x9c>
   1558a:	864a                	mv	a2,s2
   1558c:	c23e                	sw	a5,4(sp)
   1558e:	c426                	sw	s1,8(sp)
   15590:	01010623          	sb	a6,12(sp)
   15594:	47a5                	li	a5,9
   15596:	448d                	li	s1,3
   15598:	14000513          	li	a0,320
   1559c:	45a5                	li	a1,9
   1559e:	04100693          	li	a3,65
   155a2:	470d                	li	a4,3
   155a4:	00000073          	ecall
   155a8:	02850463          	beq	a0,s0,155d0 <_ZN20complex_full_dynamic3app17hb72973b6530fd759E+0x9c>
   155ac:	14000693          	li	a3,320
   155b0:	14000513          	li	a0,320
   155b4:	45a1                	li	a1,8
   155b6:	4625                	li	a2,9
   155b8:	4709                	li	a4,2
   155ba:	07f00413          	li	s0,127
   155be:	d636                	sw	a3,44(sp)
   155c0:	d83e                	sw	a5,48(sp)
   155c2:	02910a23          	sb	s1,52(sp)
   155c6:	4681                	li	a3,0
   155c8:	00000073          	ecall
   155cc:	02a46863          	bltu	s0,a0,155fc <_ZN20complex_full_dynamic3app17hb72973b6530fd759E+0xc8>
   155d0:	00b9a223          	sw	a1,4(s3)
   155d4:	4505                	li	a0,1
   155d6:	00a98023          	sb	a0,0(s3)
   155da:	1068                	addi	a0,sp,44
   155dc:	00005097          	auipc	ra,0x5
   155e0:	49e080e7          	jalr	1182(ra) # 1aa7a <_ZN9allow_pin12full_dynamic17unshare_if_shared17hcb7d6c8e9042aa41E>
   155e4:	0048                	addi	a0,sp,4
   155e6:	00005097          	auipc	ra,0x5
   155ea:	494080e7          	jalr	1172(ra) # 1aa7a <_ZN9allow_pin12full_dynamic17unshare_if_shared17hcb7d6c8e9042aa41E>
   155ee:	40ba                	lw	ra,140(sp)
   155f0:	442a                	lw	s0,136(sp)
   155f2:	449a                	lw	s1,132(sp)
   155f4:	490a                	lw	s2,128(sp)
   155f6:	59f6                	lw	s3,124(sp)
   155f8:	6149                	addi	sp,sp,144
   155fa:	8082                	ret
   155fc:	0048                	addi	a0,sp,4
   155fe:	00005097          	auipc	ra,0x5
   15602:	47c080e7          	jalr	1148(ra) # 1aa7a <_ZN9allow_pin12full_dynamic17unshare_if_shared17hcb7d6c8e9042aa41E>
   15606:	1068                	addi	a0,sp,44
   15608:	00005097          	auipc	ra,0x5
   1560c:	472080e7          	jalr	1138(ra) # 1aa7a <_ZN9allow_pin12full_dynamic17unshare_if_shared17hcb7d6c8e9042aa41E>
   15610:	1068                	addi	a0,sp,44
   15612:	00005097          	auipc	ra,0x5
   15616:	468080e7          	jalr	1128(ra) # 1aa7a <_ZN9allow_pin12full_dynamic17unshare_if_shared17hcb7d6c8e9042aa41E>
   1561a:	00198513          	addi	a0,s3,1
   1561e:	04100613          	li	a2,65
   15622:	85ca                	mv	a1,s2
   15624:	00005097          	auipc	ra,0x5
   15628:	4e0080e7          	jalr	1248(ra) # 1ab04 <memcpy>
   1562c:	4501                	li	a0,0
   1562e:	b765                	j	155d6 <_ZN20complex_full_dynamic3app17hb72973b6530fd759E+0xa2>

00015630 <_ZN20complex_full_dynamic3app17hb9163238aada0decE>:
   15630:	715d                	addi	sp,sp,-80
   15632:	c686                	sw	ra,76(sp)
   15634:	c4a2                	sw	s0,72(sp)
   15636:	c2a6                	sw	s1,68(sp)
   15638:	c0ca                	sw	s2,64(sp)
   1563a:	de4e                	sw	s3,60(sp)
   1563c:	89aa                	mv	s3,a0
   1563e:	4409                	li	s0,2
   15640:	00810423          	sb	s0,8(sp)
   15644:	0064                	addi	s1,sp,12
   15646:	463d                	li	a2,15
   15648:	8526                	mv	a0,s1
   1564a:	00005097          	auipc	ra,0x5
   1564e:	4ba080e7          	jalr	1210(ra) # 1ab04 <memcpy>
   15652:	02810913          	addi	s2,sp,40
   15656:	464d                	li	a2,19
   15658:	854a                	mv	a0,s2
   1565a:	4581                	li	a1,0
   1565c:	00005097          	auipc	ra,0x5
   15660:	43c080e7          	jalr	1084(ra) # 1aa98 <memset>
   15664:	8626                	mv	a2,s1
   15666:	02810223          	sb	s0,36(sp)
   1566a:	6509                	lui	a0,0x2
   1566c:	448d                	li	s1,3
   1566e:	4811                	li	a6,4
   15670:	458d                	li	a1,3
   15672:	e4b50793          	addi	a5,a0,-437 # 1e4b <.Lline_table_start1+0x1c20>
   15676:	46bd                	li	a3,15
   15678:	4711                	li	a4,4
   1567a:	853e                	mv	a0,a5
   1567c:	00000073          	ecall
   15680:	04850163          	beq	a0,s0,156c2 <_ZN20complex_full_dynamic3app17hb9163238aada0decE+0x92>
   15684:	c03e                	sw	a5,0(sp)
   15686:	c226                	sw	s1,4(sp)
   15688:	01010423          	sb	a6,8(sp)
   1568c:	46cd                	li	a3,19
   1568e:	470d                	li	a4,3
   15690:	853e                	mv	a0,a5
   15692:	4581                	li	a1,0
   15694:	864a                	mv	a2,s2
   15696:	00000073          	ecall
   1569a:	02850463          	beq	a0,s0,156c2 <_ZN20complex_full_dynamic3app17hb9163238aada0decE+0x92>
   1569e:	450d                	li	a0,3
   156a0:	6609                	lui	a2,0x2
   156a2:	458d                	li	a1,3
   156a4:	ce3e                	sw	a5,28(sp)
   156a6:	d002                	sw	zero,32(sp)
   156a8:	02a10223          	sb	a0,36(sp)
   156ac:	e4b60513          	addi	a0,a2,-437 # 1e4b <.Lline_table_start1+0x1c20>
   156b0:	4709                	li	a4,2
   156b2:	07f00793          	li	a5,127
   156b6:	4601                	li	a2,0
   156b8:	4681                	li	a3,0
   156ba:	00000073          	ecall
   156be:	02a7e863          	bltu	a5,a0,156ee <_ZN20complex_full_dynamic3app17hb9163238aada0decE+0xbe>
   156c2:	00b9a223          	sw	a1,4(s3)
   156c6:	4505                	li	a0,1
   156c8:	00a98023          	sb	a0,0(s3)
   156cc:	0868                	addi	a0,sp,28
   156ce:	00005097          	auipc	ra,0x5
   156d2:	3ac080e7          	jalr	940(ra) # 1aa7a <_ZN9allow_pin12full_dynamic17unshare_if_shared17hcb7d6c8e9042aa41E>
   156d6:	850a                	mv	a0,sp
   156d8:	00005097          	auipc	ra,0x5
   156dc:	3a2080e7          	jalr	930(ra) # 1aa7a <_ZN9allow_pin12full_dynamic17unshare_if_shared17hcb7d6c8e9042aa41E>
   156e0:	40b6                	lw	ra,76(sp)
   156e2:	4426                	lw	s0,72(sp)
   156e4:	4496                	lw	s1,68(sp)
   156e6:	4906                	lw	s2,64(sp)
   156e8:	59f2                	lw	s3,60(sp)
   156ea:	6161                	addi	sp,sp,80
   156ec:	8082                	ret
   156ee:	850a                	mv	a0,sp
   156f0:	00005097          	auipc	ra,0x5
   156f4:	38a080e7          	jalr	906(ra) # 1aa7a <_ZN9allow_pin12full_dynamic17unshare_if_shared17hcb7d6c8e9042aa41E>
   156f8:	0868                	addi	a0,sp,28
   156fa:	00005097          	auipc	ra,0x5
   156fe:	380080e7          	jalr	896(ra) # 1aa7a <_ZN9allow_pin12full_dynamic17unshare_if_shared17hcb7d6c8e9042aa41E>
   15702:	0868                	addi	a0,sp,28
   15704:	00005097          	auipc	ra,0x5
   15708:	376080e7          	jalr	886(ra) # 1aa7a <_ZN9allow_pin12full_dynamic17unshare_if_shared17hcb7d6c8e9042aa41E>
   1570c:	00198513          	addi	a0,s3,1
   15710:	464d                	li	a2,19
   15712:	85ca                	mv	a1,s2
   15714:	00005097          	auipc	ra,0x5
   15718:	3f0080e7          	jalr	1008(ra) # 1ab04 <memcpy>
   1571c:	4501                	li	a0,0
   1571e:	b76d                	j	156c8 <_ZN20complex_full_dynamic3app17hb9163238aada0decE+0x98>

00015720 <_ZN20complex_full_dynamic3app17hbe3b8c25af841956E>:
   15720:	7135                	addi	sp,sp,-160
   15722:	cf06                	sw	ra,156(sp)
   15724:	cd22                	sw	s0,152(sp)
   15726:	cb26                	sw	s1,148(sp)
   15728:	c94a                	sw	s2,144(sp)
   1572a:	c74e                	sw	s3,140(sp)
   1572c:	89aa                	mv	s3,a0
   1572e:	4409                	li	s0,2
   15730:	00810423          	sb	s0,8(sp)
   15734:	0064                	addi	s1,sp,12
   15736:	03c00613          	li	a2,60
   1573a:	8526                	mv	a0,s1
   1573c:	00005097          	auipc	ra,0x5
   15740:	3c8080e7          	jalr	968(ra) # 1ab04 <memcpy>
   15744:	05410913          	addi	s2,sp,84
   15748:	03800613          	li	a2,56
   1574c:	854a                	mv	a0,s2
   1574e:	4581                	li	a1,0
   15750:	00005097          	auipc	ra,0x5
   15754:	348080e7          	jalr	840(ra) # 1aa98 <memset>
   15758:	8626                	mv	a2,s1
   1575a:	04810823          	sb	s0,80(sp)
   1575e:	6509                	lui	a0,0x2
   15760:	448d                	li	s1,3
   15762:	4811                	li	a6,4
   15764:	458d                	li	a1,3
   15766:	d1950793          	addi	a5,a0,-743 # 1d19 <.Lline_table_start1+0x1aee>
   1576a:	03c00693          	li	a3,60
   1576e:	4711                	li	a4,4
   15770:	853e                	mv	a0,a5
   15772:	00000073          	ecall
   15776:	04850263          	beq	a0,s0,157ba <_ZN20complex_full_dynamic3app17hbe3b8c25af841956E+0x9a>
   1577a:	c03e                	sw	a5,0(sp)
   1577c:	c226                	sw	s1,4(sp)
   1577e:	01010423          	sb	a6,8(sp)
   15782:	458d                	li	a1,3
   15784:	03800693          	li	a3,56
   15788:	470d                	li	a4,3
   1578a:	853e                	mv	a0,a5
   1578c:	864a                	mv	a2,s2
   1578e:	00000073          	ecall
   15792:	02850463          	beq	a0,s0,157ba <_ZN20complex_full_dynamic3app17hbe3b8c25af841956E+0x9a>
   15796:	450d                	li	a0,3
   15798:	6689                	lui	a3,0x2
   1579a:	458d                	li	a1,3
   1579c:	460d                	li	a2,3
   1579e:	c4be                	sw	a5,72(sp)
   157a0:	c6aa                	sw	a0,76(sp)
   157a2:	04a10823          	sb	a0,80(sp)
   157a6:	d1968513          	addi	a0,a3,-743 # 1d19 <.Lline_table_start1+0x1aee>
   157aa:	4709                	li	a4,2
   157ac:	07f00793          	li	a5,127
   157b0:	4681                	li	a3,0
   157b2:	00000073          	ecall
   157b6:	02a7e863          	bltu	a5,a0,157e6 <_ZN20complex_full_dynamic3app17hbe3b8c25af841956E+0xc6>
   157ba:	00b9a223          	sw	a1,4(s3)
   157be:	4505                	li	a0,1
   157c0:	00a98023          	sb	a0,0(s3)
   157c4:	00a8                	addi	a0,sp,72
   157c6:	00005097          	auipc	ra,0x5
   157ca:	2b4080e7          	jalr	692(ra) # 1aa7a <_ZN9allow_pin12full_dynamic17unshare_if_shared17hcb7d6c8e9042aa41E>
   157ce:	850a                	mv	a0,sp
   157d0:	00005097          	auipc	ra,0x5
   157d4:	2aa080e7          	jalr	682(ra) # 1aa7a <_ZN9allow_pin12full_dynamic17unshare_if_shared17hcb7d6c8e9042aa41E>
   157d8:	40fa                	lw	ra,156(sp)
   157da:	446a                	lw	s0,152(sp)
   157dc:	44da                	lw	s1,148(sp)
   157de:	494a                	lw	s2,144(sp)
   157e0:	49ba                	lw	s3,140(sp)
   157e2:	610d                	addi	sp,sp,160
   157e4:	8082                	ret
   157e6:	850a                	mv	a0,sp
   157e8:	00005097          	auipc	ra,0x5
   157ec:	292080e7          	jalr	658(ra) # 1aa7a <_ZN9allow_pin12full_dynamic17unshare_if_shared17hcb7d6c8e9042aa41E>
   157f0:	00a8                	addi	a0,sp,72
   157f2:	00005097          	auipc	ra,0x5
   157f6:	288080e7          	jalr	648(ra) # 1aa7a <_ZN9allow_pin12full_dynamic17unshare_if_shared17hcb7d6c8e9042aa41E>
   157fa:	00a8                	addi	a0,sp,72
   157fc:	00005097          	auipc	ra,0x5
   15800:	27e080e7          	jalr	638(ra) # 1aa7a <_ZN9allow_pin12full_dynamic17unshare_if_shared17hcb7d6c8e9042aa41E>
   15804:	00198513          	addi	a0,s3,1
   15808:	03800613          	li	a2,56
   1580c:	85ca                	mv	a1,s2
   1580e:	00005097          	auipc	ra,0x5
   15812:	2f6080e7          	jalr	758(ra) # 1ab04 <memcpy>
   15816:	4501                	li	a0,0
   15818:	b765                	j	157c0 <_ZN20complex_full_dynamic3app17hbe3b8c25af841956E+0xa0>

0001581a <_ZN20complex_full_dynamic3app17hbfaa9ca5d9cbf286E>:
   1581a:	7131                	addi	sp,sp,-192
   1581c:	df06                	sw	ra,188(sp)
   1581e:	dd22                	sw	s0,184(sp)
   15820:	db26                	sw	s1,180(sp)
   15822:	d94a                	sw	s2,176(sp)
   15824:	d74e                	sw	s3,172(sp)
   15826:	89aa                	mv	s3,a0
   15828:	4409                	li	s0,2
   1582a:	00810623          	sb	s0,12(sp)
   1582e:	0804                	addi	s1,sp,16
   15830:	02a00613          	li	a2,42
   15834:	8526                	mv	a0,s1
   15836:	00005097          	auipc	ra,0x5
   1583a:	2ce080e7          	jalr	718(ra) # 1ab04 <memcpy>
   1583e:	04810913          	addi	s2,sp,72
   15842:	06300613          	li	a2,99
   15846:	854a                	mv	a0,s2
   15848:	4581                	li	a1,0
   1584a:	00005097          	auipc	ra,0x5
   1584e:	24e080e7          	jalr	590(ra) # 1aa98 <memset>
   15852:	8626                	mv	a2,s1
   15854:	04810223          	sb	s0,68(sp)
   15858:	6509                	lui	a0,0x2
   1585a:	4491                	li	s1,4
   1585c:	4591                	li	a1,4
   1585e:	c7c50793          	addi	a5,a0,-900 # 1c7c <.Lline_table_start1+0x1a51>
   15862:	02a00693          	li	a3,42
   15866:	4711                	li	a4,4
   15868:	853e                	mv	a0,a5
   1586a:	00000073          	ecall
   1586e:	04850263          	beq	a0,s0,158b2 <_ZN20complex_full_dynamic3app17hbfaa9ca5d9cbf286E+0x98>
   15872:	853e                	mv	a0,a5
   15874:	4581                	li	a1,0
   15876:	864a                	mv	a2,s2
   15878:	c23e                	sw	a5,4(sp)
   1587a:	c426                	sw	s1,8(sp)
   1587c:	00910623          	sb	s1,12(sp)
   15880:	448d                	li	s1,3
   15882:	06300693          	li	a3,99
   15886:	470d                	li	a4,3
   15888:	00000073          	ecall
   1588c:	02850363          	beq	a0,s0,158b2 <_ZN20complex_full_dynamic3app17hbfaa9ca5d9cbf286E+0x98>
   15890:	de3e                	sw	a5,60(sp)
   15892:	c082                	sw	zero,64(sp)
   15894:	04910223          	sb	s1,68(sp)
   15898:	6509                	lui	a0,0x2
   1589a:	4591                	li	a1,4
   1589c:	c7c50513          	addi	a0,a0,-900 # 1c7c <.Lline_table_start1+0x1a51>
   158a0:	4709                	li	a4,2
   158a2:	07f00793          	li	a5,127
   158a6:	4601                	li	a2,0
   158a8:	4681                	li	a3,0
   158aa:	00000073          	ecall
   158ae:	02a7e863          	bltu	a5,a0,158de <_ZN20complex_full_dynamic3app17hbfaa9ca5d9cbf286E+0xc4>
   158b2:	00b9a223          	sw	a1,4(s3)
   158b6:	4505                	li	a0,1
   158b8:	00a98023          	sb	a0,0(s3)
   158bc:	1868                	addi	a0,sp,60
   158be:	00005097          	auipc	ra,0x5
   158c2:	1bc080e7          	jalr	444(ra) # 1aa7a <_ZN9allow_pin12full_dynamic17unshare_if_shared17hcb7d6c8e9042aa41E>
   158c6:	0048                	addi	a0,sp,4
   158c8:	00005097          	auipc	ra,0x5
   158cc:	1b2080e7          	jalr	434(ra) # 1aa7a <_ZN9allow_pin12full_dynamic17unshare_if_shared17hcb7d6c8e9042aa41E>
   158d0:	50fa                	lw	ra,188(sp)
   158d2:	546a                	lw	s0,184(sp)
   158d4:	54da                	lw	s1,180(sp)
   158d6:	594a                	lw	s2,176(sp)
   158d8:	59ba                	lw	s3,172(sp)
   158da:	6129                	addi	sp,sp,192
   158dc:	8082                	ret
   158de:	0048                	addi	a0,sp,4
   158e0:	00005097          	auipc	ra,0x5
   158e4:	19a080e7          	jalr	410(ra) # 1aa7a <_ZN9allow_pin12full_dynamic17unshare_if_shared17hcb7d6c8e9042aa41E>
   158e8:	1868                	addi	a0,sp,60
   158ea:	00005097          	auipc	ra,0x5
   158ee:	190080e7          	jalr	400(ra) # 1aa7a <_ZN9allow_pin12full_dynamic17unshare_if_shared17hcb7d6c8e9042aa41E>
   158f2:	1868                	addi	a0,sp,60
   158f4:	00005097          	auipc	ra,0x5
   158f8:	186080e7          	jalr	390(ra) # 1aa7a <_ZN9allow_pin12full_dynamic17unshare_if_shared17hcb7d6c8e9042aa41E>
   158fc:	00198513          	addi	a0,s3,1
   15900:	06300613          	li	a2,99
   15904:	85ca                	mv	a1,s2
   15906:	00005097          	auipc	ra,0x5
   1590a:	1fe080e7          	jalr	510(ra) # 1ab04 <memcpy>
   1590e:	4501                	li	a0,0
   15910:	b765                	j	158b8 <_ZN20complex_full_dynamic3app17hbfaa9ca5d9cbf286E+0x9e>

00015912 <_ZN20complex_full_dynamic3app17hc274c0f7c7c1ac14E>:
   15912:	7159                	addi	sp,sp,-112
   15914:	d686                	sw	ra,108(sp)
   15916:	d4a2                	sw	s0,104(sp)
   15918:	d2a6                	sw	s1,100(sp)
   1591a:	d0ca                	sw	s2,96(sp)
   1591c:	cece                	sw	s3,92(sp)
   1591e:	89aa                	mv	s3,a0
   15920:	4409                	li	s0,2
   15922:	00810623          	sb	s0,12(sp)
   15926:	0804                	addi	s1,sp,16
   15928:	4651                	li	a2,20
   1592a:	8526                	mv	a0,s1
   1592c:	00005097          	auipc	ra,0x5
   15930:	1d8080e7          	jalr	472(ra) # 1ab04 <memcpy>
   15934:	03010913          	addi	s2,sp,48
   15938:	02b00613          	li	a2,43
   1593c:	854a                	mv	a0,s2
   1593e:	4581                	li	a1,0
   15940:	00005097          	auipc	ra,0x5
   15944:	158080e7          	jalr	344(ra) # 1aa98 <memset>
   15948:	8626                	mv	a2,s1
   1594a:	02810623          	sb	s0,44(sp)
   1594e:	6509                	lui	a0,0x2
   15950:	44a1                	li	s1,8
   15952:	4811                	li	a6,4
   15954:	45a1                	li	a1,8
   15956:	39f50793          	addi	a5,a0,927 # 239f <.Lline_table_start1+0x2174>
   1595a:	46d1                	li	a3,20
   1595c:	4711                	li	a4,4
   1595e:	853e                	mv	a0,a5
   15960:	00000073          	ecall
   15964:	04850363          	beq	a0,s0,159aa <_ZN20complex_full_dynamic3app17hc274c0f7c7c1ac14E+0x98>
   15968:	853e                	mv	a0,a5
   1596a:	864a                	mv	a2,s2
   1596c:	c23e                	sw	a5,4(sp)
   1596e:	c426                	sw	s1,8(sp)
   15970:	01010623          	sb	a6,12(sp)
   15974:	448d                	li	s1,3
   15976:	4591                	li	a1,4
   15978:	02b00693          	li	a3,43
   1597c:	470d                	li	a4,3
   1597e:	00000073          	ecall
   15982:	02850463          	beq	a0,s0,159aa <_ZN20complex_full_dynamic3app17hc274c0f7c7c1ac14E+0x98>
   15986:	4511                	li	a0,4
   15988:	6689                	lui	a3,0x2
   1598a:	45a1                	li	a1,8
   1598c:	4611                	li	a2,4
   1598e:	d23e                	sw	a5,36(sp)
   15990:	d42a                	sw	a0,40(sp)
   15992:	02910623          	sb	s1,44(sp)
   15996:	39f68513          	addi	a0,a3,927 # 239f <.Lline_table_start1+0x2174>
   1599a:	4709                	li	a4,2
   1599c:	07f00793          	li	a5,127
   159a0:	4681                	li	a3,0
   159a2:	00000073          	ecall
   159a6:	02a7e863          	bltu	a5,a0,159d6 <_ZN20complex_full_dynamic3app17hc274c0f7c7c1ac14E+0xc4>
   159aa:	00b9a223          	sw	a1,4(s3)
   159ae:	4505                	li	a0,1
   159b0:	00a98023          	sb	a0,0(s3)
   159b4:	1048                	addi	a0,sp,36
   159b6:	00005097          	auipc	ra,0x5
   159ba:	0c4080e7          	jalr	196(ra) # 1aa7a <_ZN9allow_pin12full_dynamic17unshare_if_shared17hcb7d6c8e9042aa41E>
   159be:	0048                	addi	a0,sp,4
   159c0:	00005097          	auipc	ra,0x5
   159c4:	0ba080e7          	jalr	186(ra) # 1aa7a <_ZN9allow_pin12full_dynamic17unshare_if_shared17hcb7d6c8e9042aa41E>
   159c8:	50b6                	lw	ra,108(sp)
   159ca:	5426                	lw	s0,104(sp)
   159cc:	5496                	lw	s1,100(sp)
   159ce:	5906                	lw	s2,96(sp)
   159d0:	49f6                	lw	s3,92(sp)
   159d2:	6165                	addi	sp,sp,112
   159d4:	8082                	ret
   159d6:	0048                	addi	a0,sp,4
   159d8:	00005097          	auipc	ra,0x5
   159dc:	0a2080e7          	jalr	162(ra) # 1aa7a <_ZN9allow_pin12full_dynamic17unshare_if_shared17hcb7d6c8e9042aa41E>
   159e0:	1048                	addi	a0,sp,36
   159e2:	00005097          	auipc	ra,0x5
   159e6:	098080e7          	jalr	152(ra) # 1aa7a <_ZN9allow_pin12full_dynamic17unshare_if_shared17hcb7d6c8e9042aa41E>
   159ea:	1048                	addi	a0,sp,36
   159ec:	00005097          	auipc	ra,0x5
   159f0:	08e080e7          	jalr	142(ra) # 1aa7a <_ZN9allow_pin12full_dynamic17unshare_if_shared17hcb7d6c8e9042aa41E>
   159f4:	00198513          	addi	a0,s3,1
   159f8:	02b00613          	li	a2,43
   159fc:	85ca                	mv	a1,s2
   159fe:	00005097          	auipc	ra,0x5
   15a02:	106080e7          	jalr	262(ra) # 1ab04 <memcpy>
   15a06:	4501                	li	a0,0
   15a08:	b765                	j	159b0 <_ZN20complex_full_dynamic3app17hc274c0f7c7c1ac14E+0x9e>

00015a0a <_ZN20complex_full_dynamic3app17hc2d1ce2952d2b86aE>:
   15a0a:	7131                	addi	sp,sp,-192
   15a0c:	df06                	sw	ra,188(sp)
   15a0e:	dd22                	sw	s0,184(sp)
   15a10:	db26                	sw	s1,180(sp)
   15a12:	d94a                	sw	s2,176(sp)
   15a14:	d74e                	sw	s3,172(sp)
   15a16:	89aa                	mv	s3,a0
   15a18:	4409                	li	s0,2
   15a1a:	00810623          	sb	s0,12(sp)
   15a1e:	0804                	addi	s1,sp,16
   15a20:	05300613          	li	a2,83
   15a24:	8526                	mv	a0,s1
   15a26:	00005097          	auipc	ra,0x5
   15a2a:	0de080e7          	jalr	222(ra) # 1ab04 <memcpy>
   15a2e:	07010913          	addi	s2,sp,112
   15a32:	03a00613          	li	a2,58
   15a36:	854a                	mv	a0,s2
   15a38:	4581                	li	a1,0
   15a3a:	00005097          	auipc	ra,0x5
   15a3e:	05e080e7          	jalr	94(ra) # 1aa98 <memset>
   15a42:	8626                	mv	a2,s1
   15a44:	06810623          	sb	s0,108(sp)
   15a48:	6509                	lui	a0,0x2
   15a4a:	4499                	li	s1,6
   15a4c:	4811                	li	a6,4
   15a4e:	4599                	li	a1,6
   15a50:	64550793          	addi	a5,a0,1605 # 2645 <.Lline_table_start1+0x241a>
   15a54:	05300693          	li	a3,83
   15a58:	4711                	li	a4,4
   15a5a:	853e                	mv	a0,a5
   15a5c:	00000073          	ecall
   15a60:	04850363          	beq	a0,s0,15aa6 <_ZN20complex_full_dynamic3app17hc2d1ce2952d2b86aE+0x9c>
   15a64:	853e                	mv	a0,a5
   15a66:	864a                	mv	a2,s2
   15a68:	c23e                	sw	a5,4(sp)
   15a6a:	c426                	sw	s1,8(sp)
   15a6c:	01010623          	sb	a6,12(sp)
   15a70:	449d                	li	s1,7
   15a72:	480d                	li	a6,3
   15a74:	459d                	li	a1,7
   15a76:	03a00693          	li	a3,58
   15a7a:	470d                	li	a4,3
   15a7c:	00000073          	ecall
   15a80:	02850363          	beq	a0,s0,15aa6 <_ZN20complex_full_dynamic3app17hc2d1ce2952d2b86aE+0x9c>
   15a84:	d2be                	sw	a5,100(sp)
   15a86:	d4a6                	sw	s1,104(sp)
   15a88:	07010623          	sb	a6,108(sp)
   15a8c:	6509                	lui	a0,0x2
   15a8e:	4599                	li	a1,6
   15a90:	461d                	li	a2,7
   15a92:	64550513          	addi	a0,a0,1605 # 2645 <.Lline_table_start1+0x241a>
   15a96:	4709                	li	a4,2
   15a98:	07f00793          	li	a5,127
   15a9c:	4681                	li	a3,0
   15a9e:	00000073          	ecall
   15aa2:	02a7e863          	bltu	a5,a0,15ad2 <_ZN20complex_full_dynamic3app17hc2d1ce2952d2b86aE+0xc8>
   15aa6:	00b9a223          	sw	a1,4(s3)
   15aaa:	4505                	li	a0,1
   15aac:	00a98023          	sb	a0,0(s3)
   15ab0:	10c8                	addi	a0,sp,100
   15ab2:	00005097          	auipc	ra,0x5
   15ab6:	fc8080e7          	jalr	-56(ra) # 1aa7a <_ZN9allow_pin12full_dynamic17unshare_if_shared17hcb7d6c8e9042aa41E>
   15aba:	0048                	addi	a0,sp,4
   15abc:	00005097          	auipc	ra,0x5
   15ac0:	fbe080e7          	jalr	-66(ra) # 1aa7a <_ZN9allow_pin12full_dynamic17unshare_if_shared17hcb7d6c8e9042aa41E>
   15ac4:	50fa                	lw	ra,188(sp)
   15ac6:	546a                	lw	s0,184(sp)
   15ac8:	54da                	lw	s1,180(sp)
   15aca:	594a                	lw	s2,176(sp)
   15acc:	59ba                	lw	s3,172(sp)
   15ace:	6129                	addi	sp,sp,192
   15ad0:	8082                	ret
   15ad2:	0048                	addi	a0,sp,4
   15ad4:	00005097          	auipc	ra,0x5
   15ad8:	fa6080e7          	jalr	-90(ra) # 1aa7a <_ZN9allow_pin12full_dynamic17unshare_if_shared17hcb7d6c8e9042aa41E>
   15adc:	10c8                	addi	a0,sp,100
   15ade:	00005097          	auipc	ra,0x5
   15ae2:	f9c080e7          	jalr	-100(ra) # 1aa7a <_ZN9allow_pin12full_dynamic17unshare_if_shared17hcb7d6c8e9042aa41E>
   15ae6:	10c8                	addi	a0,sp,100
   15ae8:	00005097          	auipc	ra,0x5
   15aec:	f92080e7          	jalr	-110(ra) # 1aa7a <_ZN9allow_pin12full_dynamic17unshare_if_shared17hcb7d6c8e9042aa41E>
   15af0:	00198513          	addi	a0,s3,1
   15af4:	03a00613          	li	a2,58
   15af8:	85ca                	mv	a1,s2
   15afa:	00005097          	auipc	ra,0x5
   15afe:	00a080e7          	jalr	10(ra) # 1ab04 <memcpy>
   15b02:	4501                	li	a0,0
   15b04:	b765                	j	15aac <_ZN20complex_full_dynamic3app17hc2d1ce2952d2b86aE+0xa2>

00015b06 <_ZN20complex_full_dynamic3app17hd451924d1b888df0E>:
   15b06:	7119                	addi	sp,sp,-128
   15b08:	de86                	sw	ra,124(sp)
   15b0a:	dca2                	sw	s0,120(sp)
   15b0c:	daa6                	sw	s1,116(sp)
   15b0e:	d8ca                	sw	s2,112(sp)
   15b10:	d6ce                	sw	s3,108(sp)
   15b12:	89aa                	mv	s3,a0
   15b14:	4409                	li	s0,2
   15b16:	00810a23          	sb	s0,20(sp)
   15b1a:	0824                	addi	s1,sp,24
   15b1c:	4641                	li	a2,16
   15b1e:	8526                	mv	a0,s1
   15b20:	00005097          	auipc	ra,0x5
   15b24:	fe4080e7          	jalr	-28(ra) # 1ab04 <memcpy>
   15b28:	03410913          	addi	s2,sp,52
   15b2c:	03600613          	li	a2,54
   15b30:	854a                	mv	a0,s2
   15b32:	4581                	li	a1,0
   15b34:	00005097          	auipc	ra,0x5
   15b38:	f64080e7          	jalr	-156(ra) # 1aa98 <memset>
   15b3c:	8626                	mv	a2,s1
   15b3e:	02810823          	sb	s0,48(sp)
   15b42:	6509                	lui	a0,0x2
   15b44:	4485                	li	s1,1
   15b46:	4811                	li	a6,4
   15b48:	4585                	li	a1,1
   15b4a:	98950793          	addi	a5,a0,-1655 # 1989 <.Lline_table_start1+0x175e>
   15b4e:	46c1                	li	a3,16
   15b50:	4711                	li	a4,4
   15b52:	853e                	mv	a0,a5
   15b54:	00000073          	ecall
   15b58:	04850363          	beq	a0,s0,15b9e <_ZN20complex_full_dynamic3app17hd451924d1b888df0E+0x98>
   15b5c:	853e                	mv	a0,a5
   15b5e:	864a                	mv	a2,s2
   15b60:	c63e                	sw	a5,12(sp)
   15b62:	c826                	sw	s1,16(sp)
   15b64:	01010a23          	sb	a6,20(sp)
   15b68:	449d                	li	s1,7
   15b6a:	480d                	li	a6,3
   15b6c:	459d                	li	a1,7
   15b6e:	03600693          	li	a3,54
   15b72:	470d                	li	a4,3
   15b74:	00000073          	ecall
   15b78:	02850363          	beq	a0,s0,15b9e <_ZN20complex_full_dynamic3app17hd451924d1b888df0E+0x98>
   15b7c:	d43e                	sw	a5,40(sp)
   15b7e:	d626                	sw	s1,44(sp)
   15b80:	03010823          	sb	a6,48(sp)
   15b84:	6509                	lui	a0,0x2
   15b86:	4585                	li	a1,1
   15b88:	461d                	li	a2,7
   15b8a:	98950513          	addi	a0,a0,-1655 # 1989 <.Lline_table_start1+0x175e>
   15b8e:	4709                	li	a4,2
   15b90:	07f00793          	li	a5,127
   15b94:	4681                	li	a3,0
   15b96:	00000073          	ecall
   15b9a:	02a7e863          	bltu	a5,a0,15bca <_ZN20complex_full_dynamic3app17hd451924d1b888df0E+0xc4>
   15b9e:	00b9a223          	sw	a1,4(s3)
   15ba2:	4505                	li	a0,1
   15ba4:	00a98023          	sb	a0,0(s3)
   15ba8:	1028                	addi	a0,sp,40
   15baa:	00005097          	auipc	ra,0x5
   15bae:	ed0080e7          	jalr	-304(ra) # 1aa7a <_ZN9allow_pin12full_dynamic17unshare_if_shared17hcb7d6c8e9042aa41E>
   15bb2:	0068                	addi	a0,sp,12
   15bb4:	00005097          	auipc	ra,0x5
   15bb8:	ec6080e7          	jalr	-314(ra) # 1aa7a <_ZN9allow_pin12full_dynamic17unshare_if_shared17hcb7d6c8e9042aa41E>
   15bbc:	50f6                	lw	ra,124(sp)
   15bbe:	5466                	lw	s0,120(sp)
   15bc0:	54d6                	lw	s1,116(sp)
   15bc2:	5946                	lw	s2,112(sp)
   15bc4:	59b6                	lw	s3,108(sp)
   15bc6:	6109                	addi	sp,sp,128
   15bc8:	8082                	ret
   15bca:	0068                	addi	a0,sp,12
   15bcc:	00005097          	auipc	ra,0x5
   15bd0:	eae080e7          	jalr	-338(ra) # 1aa7a <_ZN9allow_pin12full_dynamic17unshare_if_shared17hcb7d6c8e9042aa41E>
   15bd4:	1028                	addi	a0,sp,40
   15bd6:	00005097          	auipc	ra,0x5
   15bda:	ea4080e7          	jalr	-348(ra) # 1aa7a <_ZN9allow_pin12full_dynamic17unshare_if_shared17hcb7d6c8e9042aa41E>
   15bde:	1028                	addi	a0,sp,40
   15be0:	00005097          	auipc	ra,0x5
   15be4:	e9a080e7          	jalr	-358(ra) # 1aa7a <_ZN9allow_pin12full_dynamic17unshare_if_shared17hcb7d6c8e9042aa41E>
   15be8:	00198513          	addi	a0,s3,1
   15bec:	03600613          	li	a2,54
   15bf0:	85ca                	mv	a1,s2
   15bf2:	00005097          	auipc	ra,0x5
   15bf6:	f12080e7          	jalr	-238(ra) # 1ab04 <memcpy>
   15bfa:	4501                	li	a0,0
   15bfc:	b765                	j	15ba4 <_ZN20complex_full_dynamic3app17hd451924d1b888df0E+0x9e>

00015bfe <_ZN20complex_full_dynamic3app17hd7dea2cd30377825E>:
   15bfe:	7135                	addi	sp,sp,-160
   15c00:	cf06                	sw	ra,156(sp)
   15c02:	cd22                	sw	s0,152(sp)
   15c04:	cb26                	sw	s1,148(sp)
   15c06:	c94a                	sw	s2,144(sp)
   15c08:	c74e                	sw	s3,140(sp)
   15c0a:	89aa                	mv	s3,a0
   15c0c:	4409                	li	s0,2
   15c0e:	00810a23          	sb	s0,20(sp)
   15c12:	0824                	addi	s1,sp,24
   15c14:	03200613          	li	a2,50
   15c18:	8526                	mv	a0,s1
   15c1a:	00005097          	auipc	ra,0x5
   15c1e:	eea080e7          	jalr	-278(ra) # 1ab04 <memcpy>
   15c22:	05810913          	addi	s2,sp,88
   15c26:	03200613          	li	a2,50
   15c2a:	854a                	mv	a0,s2
   15c2c:	4581                	li	a1,0
   15c2e:	00005097          	auipc	ra,0x5
   15c32:	e6a080e7          	jalr	-406(ra) # 1aa98 <memset>
   15c36:	8626                	mv	a2,s1
   15c38:	04810a23          	sb	s0,84(sp)
   15c3c:	6509                	lui	a0,0x2
   15c3e:	448d                	li	s1,3
   15c40:	4811                	li	a6,4
   15c42:	458d                	li	a1,3
   15c44:	f0750793          	addi	a5,a0,-249 # 1f07 <.Lline_table_start1+0x1cdc>
   15c48:	03200693          	li	a3,50
   15c4c:	4711                	li	a4,4
   15c4e:	853e                	mv	a0,a5
   15c50:	00000073          	ecall
   15c54:	04850363          	beq	a0,s0,15c9a <_ZN20complex_full_dynamic3app17hd7dea2cd30377825E+0x9c>
   15c58:	853e                	mv	a0,a5
   15c5a:	864a                	mv	a2,s2
   15c5c:	c63e                	sw	a5,12(sp)
   15c5e:	c826                	sw	s1,16(sp)
   15c60:	01010a23          	sb	a6,20(sp)
   15c64:	4485                	li	s1,1
   15c66:	4585                	li	a1,1
   15c68:	03200693          	li	a3,50
   15c6c:	470d                	li	a4,3
   15c6e:	00000073          	ecall
   15c72:	02850463          	beq	a0,s0,15c9a <_ZN20complex_full_dynamic3app17hd7dea2cd30377825E+0x9c>
   15c76:	450d                	li	a0,3
   15c78:	6689                	lui	a3,0x2
   15c7a:	458d                	li	a1,3
   15c7c:	4605                	li	a2,1
   15c7e:	c6be                	sw	a5,76(sp)
   15c80:	c8a6                	sw	s1,80(sp)
   15c82:	04a10a23          	sb	a0,84(sp)
   15c86:	f0768513          	addi	a0,a3,-249 # 1f07 <.Lline_table_start1+0x1cdc>
   15c8a:	4709                	li	a4,2
   15c8c:	07f00793          	li	a5,127
   15c90:	4681                	li	a3,0
   15c92:	00000073          	ecall
   15c96:	02a7e863          	bltu	a5,a0,15cc6 <_ZN20complex_full_dynamic3app17hd7dea2cd30377825E+0xc8>
   15c9a:	00b9a223          	sw	a1,4(s3)
   15c9e:	4505                	li	a0,1
   15ca0:	00a98023          	sb	a0,0(s3)
   15ca4:	00e8                	addi	a0,sp,76
   15ca6:	00005097          	auipc	ra,0x5
   15caa:	dd4080e7          	jalr	-556(ra) # 1aa7a <_ZN9allow_pin12full_dynamic17unshare_if_shared17hcb7d6c8e9042aa41E>
   15cae:	0068                	addi	a0,sp,12
   15cb0:	00005097          	auipc	ra,0x5
   15cb4:	dca080e7          	jalr	-566(ra) # 1aa7a <_ZN9allow_pin12full_dynamic17unshare_if_shared17hcb7d6c8e9042aa41E>
   15cb8:	40fa                	lw	ra,156(sp)
   15cba:	446a                	lw	s0,152(sp)
   15cbc:	44da                	lw	s1,148(sp)
   15cbe:	494a                	lw	s2,144(sp)
   15cc0:	49ba                	lw	s3,140(sp)
   15cc2:	610d                	addi	sp,sp,160
   15cc4:	8082                	ret
   15cc6:	0068                	addi	a0,sp,12
   15cc8:	00005097          	auipc	ra,0x5
   15ccc:	db2080e7          	jalr	-590(ra) # 1aa7a <_ZN9allow_pin12full_dynamic17unshare_if_shared17hcb7d6c8e9042aa41E>
   15cd0:	00e8                	addi	a0,sp,76
   15cd2:	00005097          	auipc	ra,0x5
   15cd6:	da8080e7          	jalr	-600(ra) # 1aa7a <_ZN9allow_pin12full_dynamic17unshare_if_shared17hcb7d6c8e9042aa41E>
   15cda:	00e8                	addi	a0,sp,76
   15cdc:	00005097          	auipc	ra,0x5
   15ce0:	d9e080e7          	jalr	-610(ra) # 1aa7a <_ZN9allow_pin12full_dynamic17unshare_if_shared17hcb7d6c8e9042aa41E>
   15ce4:	00198513          	addi	a0,s3,1
   15ce8:	03200613          	li	a2,50
   15cec:	85ca                	mv	a1,s2
   15cee:	00005097          	auipc	ra,0x5
   15cf2:	e16080e7          	jalr	-490(ra) # 1ab04 <memcpy>
   15cf6:	4501                	li	a0,0
   15cf8:	b765                	j	15ca0 <_ZN20complex_full_dynamic3app17hd7dea2cd30377825E+0xa2>

00015cfa <_ZN20complex_full_dynamic3app17hda4731a1b40c4ee3E>:
   15cfa:	7171                	addi	sp,sp,-176
   15cfc:	d706                	sw	ra,172(sp)
   15cfe:	d522                	sw	s0,168(sp)
   15d00:	d326                	sw	s1,164(sp)
   15d02:	d14a                	sw	s2,160(sp)
   15d04:	cf4e                	sw	s3,156(sp)
   15d06:	89aa                	mv	s3,a0
   15d08:	4409                	li	s0,2
   15d0a:	00810823          	sb	s0,16(sp)
   15d0e:	0844                	addi	s1,sp,20
   15d10:	02700613          	li	a2,39
   15d14:	8526                	mv	a0,s1
   15d16:	00005097          	auipc	ra,0x5
   15d1a:	dee080e7          	jalr	-530(ra) # 1ab04 <memcpy>
   15d1e:	04810913          	addi	s2,sp,72
   15d22:	05100613          	li	a2,81
   15d26:	854a                	mv	a0,s2
   15d28:	4581                	li	a1,0
   15d2a:	00005097          	auipc	ra,0x5
   15d2e:	d6e080e7          	jalr	-658(ra) # 1aa98 <memset>
   15d32:	4581                	li	a1,0
   15d34:	8626                	mv	a2,s1
   15d36:	04810223          	sb	s0,68(sp)
   15d3a:	6505                	lui	a0,0x1
   15d3c:	4491                	li	s1,4
   15d3e:	a3650793          	addi	a5,a0,-1482 # a36 <.Lline_table_start1+0x80b>
   15d42:	02700693          	li	a3,39
   15d46:	4711                	li	a4,4
   15d48:	853e                	mv	a0,a5
   15d4a:	00000073          	ecall
   15d4e:	04850363          	beq	a0,s0,15d94 <_ZN20complex_full_dynamic3app17hda4731a1b40c4ee3E+0x9a>
   15d52:	853e                	mv	a0,a5
   15d54:	864a                	mv	a2,s2
   15d56:	c43e                	sw	a5,8(sp)
   15d58:	c602                	sw	zero,12(sp)
   15d5a:	00910823          	sb	s1,16(sp)
   15d5e:	448d                	li	s1,3
   15d60:	4591                	li	a1,4
   15d62:	05100693          	li	a3,81
   15d66:	470d                	li	a4,3
   15d68:	00000073          	ecall
   15d6c:	02850463          	beq	a0,s0,15d94 <_ZN20complex_full_dynamic3app17hda4731a1b40c4ee3E+0x9a>
   15d70:	4511                	li	a0,4
   15d72:	6585                	lui	a1,0x1
   15d74:	4611                	li	a2,4
   15d76:	de3e                	sw	a5,60(sp)
   15d78:	c0aa                	sw	a0,64(sp)
   15d7a:	04910223          	sb	s1,68(sp)
   15d7e:	a3658513          	addi	a0,a1,-1482 # a36 <.Lline_table_start1+0x80b>
   15d82:	4709                	li	a4,2
   15d84:	07f00793          	li	a5,127
   15d88:	4581                	li	a1,0
   15d8a:	4681                	li	a3,0
   15d8c:	00000073          	ecall
   15d90:	02a7e863          	bltu	a5,a0,15dc0 <_ZN20complex_full_dynamic3app17hda4731a1b40c4ee3E+0xc6>
   15d94:	00b9a223          	sw	a1,4(s3)
   15d98:	4505                	li	a0,1
   15d9a:	00a98023          	sb	a0,0(s3)
   15d9e:	1868                	addi	a0,sp,60
   15da0:	00005097          	auipc	ra,0x5
   15da4:	cda080e7          	jalr	-806(ra) # 1aa7a <_ZN9allow_pin12full_dynamic17unshare_if_shared17hcb7d6c8e9042aa41E>
   15da8:	0028                	addi	a0,sp,8
   15daa:	00005097          	auipc	ra,0x5
   15dae:	cd0080e7          	jalr	-816(ra) # 1aa7a <_ZN9allow_pin12full_dynamic17unshare_if_shared17hcb7d6c8e9042aa41E>
   15db2:	50ba                	lw	ra,172(sp)
   15db4:	542a                	lw	s0,168(sp)
   15db6:	549a                	lw	s1,164(sp)
   15db8:	590a                	lw	s2,160(sp)
   15dba:	49fa                	lw	s3,156(sp)
   15dbc:	614d                	addi	sp,sp,176
   15dbe:	8082                	ret
   15dc0:	0028                	addi	a0,sp,8
   15dc2:	00005097          	auipc	ra,0x5
   15dc6:	cb8080e7          	jalr	-840(ra) # 1aa7a <_ZN9allow_pin12full_dynamic17unshare_if_shared17hcb7d6c8e9042aa41E>
   15dca:	1868                	addi	a0,sp,60
   15dcc:	00005097          	auipc	ra,0x5
   15dd0:	cae080e7          	jalr	-850(ra) # 1aa7a <_ZN9allow_pin12full_dynamic17unshare_if_shared17hcb7d6c8e9042aa41E>
   15dd4:	1868                	addi	a0,sp,60
   15dd6:	00005097          	auipc	ra,0x5
   15dda:	ca4080e7          	jalr	-860(ra) # 1aa7a <_ZN9allow_pin12full_dynamic17unshare_if_shared17hcb7d6c8e9042aa41E>
   15dde:	00198513          	addi	a0,s3,1
   15de2:	05100613          	li	a2,81
   15de6:	85ca                	mv	a1,s2
   15de8:	00005097          	auipc	ra,0x5
   15dec:	d1c080e7          	jalr	-740(ra) # 1ab04 <memcpy>
   15df0:	4501                	li	a0,0
   15df2:	b765                	j	15d9a <_ZN20complex_full_dynamic3app17hda4731a1b40c4ee3E+0xa0>

00015df4 <_ZN20complex_full_dynamic3app17hdb451d42526cf3b7E>:
   15df4:	7175                	addi	sp,sp,-144
   15df6:	c706                	sw	ra,140(sp)
   15df8:	c522                	sw	s0,136(sp)
   15dfa:	c326                	sw	s1,132(sp)
   15dfc:	c14a                	sw	s2,128(sp)
   15dfe:	dece                	sw	s3,124(sp)
   15e00:	89aa                	mv	s3,a0
   15e02:	4409                	li	s0,2
   15e04:	00810423          	sb	s0,8(sp)
   15e08:	0064                	addi	s1,sp,12
   15e0a:	05100613          	li	a2,81
   15e0e:	8526                	mv	a0,s1
   15e10:	00005097          	auipc	ra,0x5
   15e14:	cf4080e7          	jalr	-780(ra) # 1ab04 <memcpy>
   15e18:	06c10913          	addi	s2,sp,108
   15e1c:	463d                	li	a2,15
   15e1e:	854a                	mv	a0,s2
   15e20:	4581                	li	a1,0
   15e22:	00005097          	auipc	ra,0x5
   15e26:	c76080e7          	jalr	-906(ra) # 1aa98 <memset>
   15e2a:	4581                	li	a1,0
   15e2c:	8626                	mv	a2,s1
   15e2e:	06810423          	sb	s0,104(sp)
   15e32:	6505                	lui	a0,0x1
   15e34:	4491                	li	s1,4
   15e36:	3bf50793          	addi	a5,a0,959 # 13bf <.Lline_table_start1+0x1194>
   15e3a:	05100693          	li	a3,81
   15e3e:	4711                	li	a4,4
   15e40:	853e                	mv	a0,a5
   15e42:	00000073          	ecall
   15e46:	04850163          	beq	a0,s0,15e88 <_ZN20complex_full_dynamic3app17hdb451d42526cf3b7E+0x94>
   15e4a:	853e                	mv	a0,a5
   15e4c:	864a                	mv	a2,s2
   15e4e:	c03e                	sw	a5,0(sp)
   15e50:	c202                	sw	zero,4(sp)
   15e52:	00910423          	sb	s1,8(sp)
   15e56:	448d                	li	s1,3
   15e58:	458d                	li	a1,3
   15e5a:	46bd                	li	a3,15
   15e5c:	470d                	li	a4,3
   15e5e:	00000073          	ecall
   15e62:	02850363          	beq	a0,s0,15e88 <_ZN20complex_full_dynamic3app17hdb451d42526cf3b7E+0x94>
   15e66:	d0be                	sw	a5,96(sp)
   15e68:	d2a6                	sw	s1,100(sp)
   15e6a:	06910423          	sb	s1,104(sp)
   15e6e:	6505                	lui	a0,0x1
   15e70:	460d                	li	a2,3
   15e72:	3bf50513          	addi	a0,a0,959 # 13bf <.Lline_table_start1+0x1194>
   15e76:	4709                	li	a4,2
   15e78:	07f00793          	li	a5,127
   15e7c:	4581                	li	a1,0
   15e7e:	4681                	li	a3,0
   15e80:	00000073          	ecall
   15e84:	02a7e863          	bltu	a5,a0,15eb4 <_ZN20complex_full_dynamic3app17hdb451d42526cf3b7E+0xc0>
   15e88:	00b9a223          	sw	a1,4(s3)
   15e8c:	4505                	li	a0,1
   15e8e:	00a98023          	sb	a0,0(s3)
   15e92:	1088                	addi	a0,sp,96
   15e94:	00005097          	auipc	ra,0x5
   15e98:	be6080e7          	jalr	-1050(ra) # 1aa7a <_ZN9allow_pin12full_dynamic17unshare_if_shared17hcb7d6c8e9042aa41E>
   15e9c:	850a                	mv	a0,sp
   15e9e:	00005097          	auipc	ra,0x5
   15ea2:	bdc080e7          	jalr	-1060(ra) # 1aa7a <_ZN9allow_pin12full_dynamic17unshare_if_shared17hcb7d6c8e9042aa41E>
   15ea6:	40ba                	lw	ra,140(sp)
   15ea8:	442a                	lw	s0,136(sp)
   15eaa:	449a                	lw	s1,132(sp)
   15eac:	490a                	lw	s2,128(sp)
   15eae:	59f6                	lw	s3,124(sp)
   15eb0:	6149                	addi	sp,sp,144
   15eb2:	8082                	ret
   15eb4:	850a                	mv	a0,sp
   15eb6:	00005097          	auipc	ra,0x5
   15eba:	bc4080e7          	jalr	-1084(ra) # 1aa7a <_ZN9allow_pin12full_dynamic17unshare_if_shared17hcb7d6c8e9042aa41E>
   15ebe:	1088                	addi	a0,sp,96
   15ec0:	00005097          	auipc	ra,0x5
   15ec4:	bba080e7          	jalr	-1094(ra) # 1aa7a <_ZN9allow_pin12full_dynamic17unshare_if_shared17hcb7d6c8e9042aa41E>
   15ec8:	1088                	addi	a0,sp,96
   15eca:	00005097          	auipc	ra,0x5
   15ece:	bb0080e7          	jalr	-1104(ra) # 1aa7a <_ZN9allow_pin12full_dynamic17unshare_if_shared17hcb7d6c8e9042aa41E>
   15ed2:	00198513          	addi	a0,s3,1
   15ed6:	463d                	li	a2,15
   15ed8:	85ca                	mv	a1,s2
   15eda:	00005097          	auipc	ra,0x5
   15ede:	c2a080e7          	jalr	-982(ra) # 1ab04 <memcpy>
   15ee2:	4501                	li	a0,0
   15ee4:	b76d                	j	15e8e <_ZN20complex_full_dynamic3app17hdb451d42526cf3b7E+0x9a>

00015ee6 <_ZN20complex_full_dynamic3app17he1cf864f9534b9b0E>:
   15ee6:	7155                	addi	sp,sp,-208
   15ee8:	c786                	sw	ra,204(sp)
   15eea:	c5a2                	sw	s0,200(sp)
   15eec:	c3a6                	sw	s1,196(sp)
   15eee:	c1ca                	sw	s2,192(sp)
   15ef0:	df4e                	sw	s3,188(sp)
   15ef2:	89aa                	mv	s3,a0
   15ef4:	4409                	li	s0,2
   15ef6:	00810423          	sb	s0,8(sp)
   15efa:	0064                	addi	s1,sp,12
   15efc:	05100613          	li	a2,81
   15f00:	8526                	mv	a0,s1
   15f02:	00005097          	auipc	ra,0x5
   15f06:	c02080e7          	jalr	-1022(ra) # 1ab04 <memcpy>
   15f0a:	06c10913          	addi	s2,sp,108
   15f0e:	04f00613          	li	a2,79
   15f12:	854a                	mv	a0,s2
   15f14:	4581                	li	a1,0
   15f16:	00005097          	auipc	ra,0x5
   15f1a:	b82080e7          	jalr	-1150(ra) # 1aa98 <memset>
   15f1e:	8626                	mv	a2,s1
   15f20:	06810423          	sb	s0,104(sp)
   15f24:	6509                	lui	a0,0x2
   15f26:	4491                	li	s1,4
   15f28:	4591                	li	a1,4
   15f2a:	0ee50793          	addi	a5,a0,238 # 20ee <.Lline_table_start1+0x1ec3>
   15f2e:	05100693          	li	a3,81
   15f32:	4711                	li	a4,4
   15f34:	853e                	mv	a0,a5
   15f36:	00000073          	ecall
   15f3a:	04850363          	beq	a0,s0,15f80 <_ZN20complex_full_dynamic3app17he1cf864f9534b9b0E+0x9a>
   15f3e:	853e                	mv	a0,a5
   15f40:	864a                	mv	a2,s2
   15f42:	c03e                	sw	a5,0(sp)
   15f44:	c226                	sw	s1,4(sp)
   15f46:	00910423          	sb	s1,8(sp)
   15f4a:	44a5                	li	s1,9
   15f4c:	480d                	li	a6,3
   15f4e:	45a5                	li	a1,9
   15f50:	04f00693          	li	a3,79
   15f54:	470d                	li	a4,3
   15f56:	00000073          	ecall
   15f5a:	02850363          	beq	a0,s0,15f80 <_ZN20complex_full_dynamic3app17he1cf864f9534b9b0E+0x9a>
   15f5e:	d0be                	sw	a5,96(sp)
   15f60:	d2a6                	sw	s1,100(sp)
   15f62:	07010423          	sb	a6,104(sp)
   15f66:	6509                	lui	a0,0x2
   15f68:	4591                	li	a1,4
   15f6a:	4625                	li	a2,9
   15f6c:	0ee50513          	addi	a0,a0,238 # 20ee <.Lline_table_start1+0x1ec3>
   15f70:	4709                	li	a4,2
   15f72:	07f00793          	li	a5,127
   15f76:	4681                	li	a3,0
   15f78:	00000073          	ecall
   15f7c:	02a7e863          	bltu	a5,a0,15fac <_ZN20complex_full_dynamic3app17he1cf864f9534b9b0E+0xc6>
   15f80:	00b9a223          	sw	a1,4(s3)
   15f84:	4505                	li	a0,1
   15f86:	00a98023          	sb	a0,0(s3)
   15f8a:	1088                	addi	a0,sp,96
   15f8c:	00005097          	auipc	ra,0x5
   15f90:	aee080e7          	jalr	-1298(ra) # 1aa7a <_ZN9allow_pin12full_dynamic17unshare_if_shared17hcb7d6c8e9042aa41E>
   15f94:	850a                	mv	a0,sp
   15f96:	00005097          	auipc	ra,0x5
   15f9a:	ae4080e7          	jalr	-1308(ra) # 1aa7a <_ZN9allow_pin12full_dynamic17unshare_if_shared17hcb7d6c8e9042aa41E>
   15f9e:	40be                	lw	ra,204(sp)
   15fa0:	442e                	lw	s0,200(sp)
   15fa2:	449e                	lw	s1,196(sp)
   15fa4:	490e                	lw	s2,192(sp)
   15fa6:	59fa                	lw	s3,188(sp)
   15fa8:	6169                	addi	sp,sp,208
   15faa:	8082                	ret
   15fac:	850a                	mv	a0,sp
   15fae:	00005097          	auipc	ra,0x5
   15fb2:	acc080e7          	jalr	-1332(ra) # 1aa7a <_ZN9allow_pin12full_dynamic17unshare_if_shared17hcb7d6c8e9042aa41E>
   15fb6:	1088                	addi	a0,sp,96
   15fb8:	00005097          	auipc	ra,0x5
   15fbc:	ac2080e7          	jalr	-1342(ra) # 1aa7a <_ZN9allow_pin12full_dynamic17unshare_if_shared17hcb7d6c8e9042aa41E>
   15fc0:	1088                	addi	a0,sp,96
   15fc2:	00005097          	auipc	ra,0x5
   15fc6:	ab8080e7          	jalr	-1352(ra) # 1aa7a <_ZN9allow_pin12full_dynamic17unshare_if_shared17hcb7d6c8e9042aa41E>
   15fca:	00198513          	addi	a0,s3,1
   15fce:	04f00613          	li	a2,79
   15fd2:	85ca                	mv	a1,s2
   15fd4:	00005097          	auipc	ra,0x5
   15fd8:	b30080e7          	jalr	-1232(ra) # 1ab04 <memcpy>
   15fdc:	4501                	li	a0,0
   15fde:	b765                	j	15f86 <_ZN20complex_full_dynamic3app17he1cf864f9534b9b0E+0xa0>

00015fe0 <_ZN20complex_full_dynamic3app17he307b575e700b46dE>:
   15fe0:	7151                	addi	sp,sp,-240
   15fe2:	d786                	sw	ra,236(sp)
   15fe4:	d5a2                	sw	s0,232(sp)
   15fe6:	d3a6                	sw	s1,228(sp)
   15fe8:	d1ca                	sw	s2,224(sp)
   15fea:	cfce                	sw	s3,220(sp)
   15fec:	89aa                	mv	s3,a0
   15fee:	4409                	li	s0,2
   15ff0:	00810a23          	sb	s0,20(sp)
   15ff4:	0824                	addi	s1,sp,24
   15ff6:	05e00613          	li	a2,94
   15ffa:	8526                	mv	a0,s1
   15ffc:	00005097          	auipc	ra,0x5
   16000:	b08080e7          	jalr	-1272(ra) # 1ab04 <memcpy>
   16004:	08410913          	addi	s2,sp,132
   16008:	05500613          	li	a2,85
   1600c:	854a                	mv	a0,s2
   1600e:	4581                	li	a1,0
   16010:	00005097          	auipc	ra,0x5
   16014:	a88080e7          	jalr	-1400(ra) # 1aa98 <memset>
   16018:	8626                	mv	a2,s1
   1601a:	08810023          	sb	s0,128(sp)
   1601e:	6505                	lui	a0,0x1
   16020:	449d                	li	s1,7
   16022:	4811                	li	a6,4
   16024:	459d                	li	a1,7
   16026:	78a50793          	addi	a5,a0,1930 # 178a <.Lline_table_start1+0x155f>
   1602a:	05e00693          	li	a3,94
   1602e:	4711                	li	a4,4
   16030:	853e                	mv	a0,a5
   16032:	00000073          	ecall
   16036:	04850263          	beq	a0,s0,1607a <_ZN20complex_full_dynamic3app17he307b575e700b46dE+0x9a>
   1603a:	853e                	mv	a0,a5
   1603c:	864a                	mv	a2,s2
   1603e:	c63e                	sw	a5,12(sp)
   16040:	c826                	sw	s1,16(sp)
   16042:	01010a23          	sb	a6,20(sp)
   16046:	448d                	li	s1,3
   16048:	458d                	li	a1,3
   1604a:	05500693          	li	a3,85
   1604e:	470d                	li	a4,3
   16050:	00000073          	ecall
   16054:	02850363          	beq	a0,s0,1607a <_ZN20complex_full_dynamic3app17he307b575e700b46dE+0x9a>
   16058:	dcbe                	sw	a5,120(sp)
   1605a:	dea6                	sw	s1,124(sp)
   1605c:	08910023          	sb	s1,128(sp)
   16060:	6505                	lui	a0,0x1
   16062:	459d                	li	a1,7
   16064:	460d                	li	a2,3
   16066:	78a50513          	addi	a0,a0,1930 # 178a <.Lline_table_start1+0x155f>
   1606a:	4709                	li	a4,2
   1606c:	07f00793          	li	a5,127
   16070:	4681                	li	a3,0
   16072:	00000073          	ecall
   16076:	02a7e863          	bltu	a5,a0,160a6 <_ZN20complex_full_dynamic3app17he307b575e700b46dE+0xc6>
   1607a:	00b9a223          	sw	a1,4(s3)
   1607e:	4505                	li	a0,1
   16080:	00a98023          	sb	a0,0(s3)
   16084:	18a8                	addi	a0,sp,120
   16086:	00005097          	auipc	ra,0x5
   1608a:	9f4080e7          	jalr	-1548(ra) # 1aa7a <_ZN9allow_pin12full_dynamic17unshare_if_shared17hcb7d6c8e9042aa41E>
   1608e:	0068                	addi	a0,sp,12
   16090:	00005097          	auipc	ra,0x5
   16094:	9ea080e7          	jalr	-1558(ra) # 1aa7a <_ZN9allow_pin12full_dynamic17unshare_if_shared17hcb7d6c8e9042aa41E>
   16098:	50be                	lw	ra,236(sp)
   1609a:	542e                	lw	s0,232(sp)
   1609c:	549e                	lw	s1,228(sp)
   1609e:	590e                	lw	s2,224(sp)
   160a0:	49fe                	lw	s3,220(sp)
   160a2:	616d                	addi	sp,sp,240
   160a4:	8082                	ret
   160a6:	0068                	addi	a0,sp,12
   160a8:	00005097          	auipc	ra,0x5
   160ac:	9d2080e7          	jalr	-1582(ra) # 1aa7a <_ZN9allow_pin12full_dynamic17unshare_if_shared17hcb7d6c8e9042aa41E>
   160b0:	18a8                	addi	a0,sp,120
   160b2:	00005097          	auipc	ra,0x5
   160b6:	9c8080e7          	jalr	-1592(ra) # 1aa7a <_ZN9allow_pin12full_dynamic17unshare_if_shared17hcb7d6c8e9042aa41E>
   160ba:	18a8                	addi	a0,sp,120
   160bc:	00005097          	auipc	ra,0x5
   160c0:	9be080e7          	jalr	-1602(ra) # 1aa7a <_ZN9allow_pin12full_dynamic17unshare_if_shared17hcb7d6c8e9042aa41E>
   160c4:	00198513          	addi	a0,s3,1
   160c8:	05500613          	li	a2,85
   160cc:	85ca                	mv	a1,s2
   160ce:	00005097          	auipc	ra,0x5
   160d2:	a36080e7          	jalr	-1482(ra) # 1ab04 <memcpy>
   160d6:	4501                	li	a0,0
   160d8:	b765                	j	16080 <_ZN20complex_full_dynamic3app17he307b575e700b46dE+0xa0>

000160da <_ZN20complex_full_dynamic3app17hed80c7ff30127444E>:
   160da:	7135                	addi	sp,sp,-160
   160dc:	cf06                	sw	ra,156(sp)
   160de:	cd22                	sw	s0,152(sp)
   160e0:	cb26                	sw	s1,148(sp)
   160e2:	c94a                	sw	s2,144(sp)
   160e4:	c74e                	sw	s3,140(sp)
   160e6:	89aa                	mv	s3,a0
   160e8:	4409                	li	s0,2
   160ea:	00810823          	sb	s0,16(sp)
   160ee:	0844                	addi	s1,sp,20
   160f0:	03800613          	li	a2,56
   160f4:	8526                	mv	a0,s1
   160f6:	00005097          	auipc	ra,0x5
   160fa:	a0e080e7          	jalr	-1522(ra) # 1ab04 <memcpy>
   160fe:	05810913          	addi	s2,sp,88
   16102:	03400613          	li	a2,52
   16106:	854a                	mv	a0,s2
   16108:	4581                	li	a1,0
   1610a:	00005097          	auipc	ra,0x5
   1610e:	98e080e7          	jalr	-1650(ra) # 1aa98 <memset>
   16112:	8626                	mv	a2,s1
   16114:	04810a23          	sb	s0,84(sp)
   16118:	12e00793          	li	a5,302
   1611c:	44a1                	li	s1,8
   1611e:	4811                	li	a6,4
   16120:	12e00513          	li	a0,302
   16124:	45a1                	li	a1,8
   16126:	03800693          	li	a3,56
   1612a:	4711                	li	a4,4
   1612c:	00000073          	ecall
   16130:	04850463          	beq	a0,s0,16178 <_ZN20complex_full_dynamic3app17hed80c7ff30127444E+0x9e>
   16134:	864a                	mv	a2,s2
   16136:	c43e                	sw	a5,8(sp)
   16138:	c626                	sw	s1,12(sp)
   1613a:	01010823          	sb	a6,16(sp)
   1613e:	478d                	li	a5,3
   16140:	12e00513          	li	a0,302
   16144:	458d                	li	a1,3
   16146:	03400693          	li	a3,52
   1614a:	470d                	li	a4,3
   1614c:	00000073          	ecall
   16150:	02850463          	beq	a0,s0,16178 <_ZN20complex_full_dynamic3app17hed80c7ff30127444E+0x9e>
   16154:	12e00693          	li	a3,302
   16158:	12e00513          	li	a0,302
   1615c:	45a1                	li	a1,8
   1615e:	460d                	li	a2,3
   16160:	4709                	li	a4,2
   16162:	07f00493          	li	s1,127
   16166:	c6b6                	sw	a3,76(sp)
   16168:	c8be                	sw	a5,80(sp)
   1616a:	04f10a23          	sb	a5,84(sp)
   1616e:	4681                	li	a3,0
   16170:	00000073          	ecall
   16174:	02a4e863          	bltu	s1,a0,161a4 <_ZN20complex_full_dynamic3app17hed80c7ff30127444E+0xca>
   16178:	00b9a223          	sw	a1,4(s3)
   1617c:	4505                	li	a0,1
   1617e:	00a98023          	sb	a0,0(s3)
   16182:	00e8                	addi	a0,sp,76
   16184:	00005097          	auipc	ra,0x5
   16188:	8f6080e7          	jalr	-1802(ra) # 1aa7a <_ZN9allow_pin12full_dynamic17unshare_if_shared17hcb7d6c8e9042aa41E>
   1618c:	0028                	addi	a0,sp,8
   1618e:	00005097          	auipc	ra,0x5
   16192:	8ec080e7          	jalr	-1812(ra) # 1aa7a <_ZN9allow_pin12full_dynamic17unshare_if_shared17hcb7d6c8e9042aa41E>
   16196:	40fa                	lw	ra,156(sp)
   16198:	446a                	lw	s0,152(sp)
   1619a:	44da                	lw	s1,148(sp)
   1619c:	494a                	lw	s2,144(sp)
   1619e:	49ba                	lw	s3,140(sp)
   161a0:	610d                	addi	sp,sp,160
   161a2:	8082                	ret
   161a4:	0028                	addi	a0,sp,8
   161a6:	00005097          	auipc	ra,0x5
   161aa:	8d4080e7          	jalr	-1836(ra) # 1aa7a <_ZN9allow_pin12full_dynamic17unshare_if_shared17hcb7d6c8e9042aa41E>
   161ae:	00e8                	addi	a0,sp,76
   161b0:	00005097          	auipc	ra,0x5
   161b4:	8ca080e7          	jalr	-1846(ra) # 1aa7a <_ZN9allow_pin12full_dynamic17unshare_if_shared17hcb7d6c8e9042aa41E>
   161b8:	00e8                	addi	a0,sp,76
   161ba:	00005097          	auipc	ra,0x5
   161be:	8c0080e7          	jalr	-1856(ra) # 1aa7a <_ZN9allow_pin12full_dynamic17unshare_if_shared17hcb7d6c8e9042aa41E>
   161c2:	00198513          	addi	a0,s3,1
   161c6:	03400613          	li	a2,52
   161ca:	85ca                	mv	a1,s2
   161cc:	00005097          	auipc	ra,0x5
   161d0:	938080e7          	jalr	-1736(ra) # 1ab04 <memcpy>
   161d4:	4501                	li	a0,0
   161d6:	b765                	j	1617e <_ZN20complex_full_dynamic3app17hed80c7ff30127444E+0xa4>

000161d8 <_ZN20complex_full_dynamic3app17hf18a00dfc1ebf22fE>:
   161d8:	7155                	addi	sp,sp,-208
   161da:	c786                	sw	ra,204(sp)
   161dc:	c5a2                	sw	s0,200(sp)
   161de:	c3a6                	sw	s1,196(sp)
   161e0:	c1ca                	sw	s2,192(sp)
   161e2:	df4e                	sw	s3,188(sp)
   161e4:	89aa                	mv	s3,a0
   161e6:	4409                	li	s0,2
   161e8:	00810623          	sb	s0,12(sp)
   161ec:	0804                	addi	s1,sp,16
   161ee:	04600613          	li	a2,70
   161f2:	8526                	mv	a0,s1
   161f4:	00005097          	auipc	ra,0x5
   161f8:	910080e7          	jalr	-1776(ra) # 1ab04 <memcpy>
   161fc:	06410913          	addi	s2,sp,100
   16200:	05600613          	li	a2,86
   16204:	854a                	mv	a0,s2
   16206:	4581                	li	a1,0
   16208:	00005097          	auipc	ra,0x5
   1620c:	890080e7          	jalr	-1904(ra) # 1aa98 <memset>
   16210:	8626                	mv	a2,s1
   16212:	06810023          	sb	s0,96(sp)
   16216:	6509                	lui	a0,0x2
   16218:	449d                	li	s1,7
   1621a:	4811                	li	a6,4
   1621c:	459d                	li	a1,7
   1621e:	e5050793          	addi	a5,a0,-432 # 1e50 <.Lline_table_start1+0x1c25>
   16222:	04600693          	li	a3,70
   16226:	4711                	li	a4,4
   16228:	853e                	mv	a0,a5
   1622a:	00000073          	ecall
   1622e:	04850263          	beq	a0,s0,16272 <_ZN20complex_full_dynamic3app17hf18a00dfc1ebf22fE+0x9a>
   16232:	853e                	mv	a0,a5
   16234:	864a                	mv	a2,s2
   16236:	c23e                	sw	a5,4(sp)
   16238:	c426                	sw	s1,8(sp)
   1623a:	01010623          	sb	a6,12(sp)
   1623e:	448d                	li	s1,3
   16240:	458d                	li	a1,3
   16242:	05600693          	li	a3,86
   16246:	470d                	li	a4,3
   16248:	00000073          	ecall
   1624c:	02850363          	beq	a0,s0,16272 <_ZN20complex_full_dynamic3app17hf18a00dfc1ebf22fE+0x9a>
   16250:	ccbe                	sw	a5,88(sp)
   16252:	cea6                	sw	s1,92(sp)
   16254:	06910023          	sb	s1,96(sp)
   16258:	6509                	lui	a0,0x2
   1625a:	459d                	li	a1,7
   1625c:	460d                	li	a2,3
   1625e:	e5050513          	addi	a0,a0,-432 # 1e50 <.Lline_table_start1+0x1c25>
   16262:	4709                	li	a4,2
   16264:	07f00793          	li	a5,127
   16268:	4681                	li	a3,0
   1626a:	00000073          	ecall
   1626e:	02a7e863          	bltu	a5,a0,1629e <_ZN20complex_full_dynamic3app17hf18a00dfc1ebf22fE+0xc6>
   16272:	00b9a223          	sw	a1,4(s3)
   16276:	4505                	li	a0,1
   16278:	00a98023          	sb	a0,0(s3)
   1627c:	08a8                	addi	a0,sp,88
   1627e:	00004097          	auipc	ra,0x4
   16282:	7fc080e7          	jalr	2044(ra) # 1aa7a <_ZN9allow_pin12full_dynamic17unshare_if_shared17hcb7d6c8e9042aa41E>
   16286:	0048                	addi	a0,sp,4
   16288:	00004097          	auipc	ra,0x4
   1628c:	7f2080e7          	jalr	2034(ra) # 1aa7a <_ZN9allow_pin12full_dynamic17unshare_if_shared17hcb7d6c8e9042aa41E>
   16290:	40be                	lw	ra,204(sp)
   16292:	442e                	lw	s0,200(sp)
   16294:	449e                	lw	s1,196(sp)
   16296:	490e                	lw	s2,192(sp)
   16298:	59fa                	lw	s3,188(sp)
   1629a:	6169                	addi	sp,sp,208
   1629c:	8082                	ret
   1629e:	0048                	addi	a0,sp,4
   162a0:	00004097          	auipc	ra,0x4
   162a4:	7da080e7          	jalr	2010(ra) # 1aa7a <_ZN9allow_pin12full_dynamic17unshare_if_shared17hcb7d6c8e9042aa41E>
   162a8:	08a8                	addi	a0,sp,88
   162aa:	00004097          	auipc	ra,0x4
   162ae:	7d0080e7          	jalr	2000(ra) # 1aa7a <_ZN9allow_pin12full_dynamic17unshare_if_shared17hcb7d6c8e9042aa41E>
   162b2:	08a8                	addi	a0,sp,88
   162b4:	00004097          	auipc	ra,0x4
   162b8:	7c6080e7          	jalr	1990(ra) # 1aa7a <_ZN9allow_pin12full_dynamic17unshare_if_shared17hcb7d6c8e9042aa41E>
   162bc:	00198513          	addi	a0,s3,1
   162c0:	05600613          	li	a2,86
   162c4:	85ca                	mv	a1,s2
   162c6:	00005097          	auipc	ra,0x5
   162ca:	83e080e7          	jalr	-1986(ra) # 1ab04 <memcpy>
   162ce:	4501                	li	a0,0
   162d0:	b765                	j	16278 <_ZN20complex_full_dynamic3app17hf18a00dfc1ebf22fE+0xa0>

000162d2 <_ZN20complex_full_dynamic3app17hf20026435fd71c57E>:
   162d2:	7155                	addi	sp,sp,-208
   162d4:	c786                	sw	ra,204(sp)
   162d6:	c5a2                	sw	s0,200(sp)
   162d8:	c3a6                	sw	s1,196(sp)
   162da:	c1ca                	sw	s2,192(sp)
   162dc:	df4e                	sw	s3,188(sp)
   162de:	89aa                	mv	s3,a0
   162e0:	4409                	li	s0,2
   162e2:	00810423          	sb	s0,8(sp)
   162e6:	0064                	addi	s1,sp,12
   162e8:	05600613          	li	a2,86
   162ec:	8526                	mv	a0,s1
   162ee:	00005097          	auipc	ra,0x5
   162f2:	816080e7          	jalr	-2026(ra) # 1ab04 <memcpy>
   162f6:	07010913          	addi	s2,sp,112
   162fa:	04900613          	li	a2,73
   162fe:	854a                	mv	a0,s2
   16300:	4581                	li	a1,0
   16302:	00004097          	auipc	ra,0x4
   16306:	796080e7          	jalr	1942(ra) # 1aa98 <memset>
   1630a:	8626                	mv	a2,s1
   1630c:	06810623          	sb	s0,108(sp)
   16310:	6509                	lui	a0,0x2
   16312:	4499                	li	s1,6
   16314:	4811                	li	a6,4
   16316:	4599                	li	a1,6
   16318:	c6b50793          	addi	a5,a0,-917 # 1c6b <.Lline_table_start1+0x1a40>
   1631c:	05600693          	li	a3,86
   16320:	4711                	li	a4,4
   16322:	853e                	mv	a0,a5
   16324:	00000073          	ecall
   16328:	04850363          	beq	a0,s0,1636e <_ZN20complex_full_dynamic3app17hf20026435fd71c57E+0x9c>
   1632c:	853e                	mv	a0,a5
   1632e:	864a                	mv	a2,s2
   16330:	c03e                	sw	a5,0(sp)
   16332:	c226                	sw	s1,4(sp)
   16334:	01010423          	sb	a6,8(sp)
   16338:	448d                	li	s1,3
   1633a:	4599                	li	a1,6
   1633c:	04900693          	li	a3,73
   16340:	470d                	li	a4,3
   16342:	00000073          	ecall
   16346:	02850463          	beq	a0,s0,1636e <_ZN20complex_full_dynamic3app17hf20026435fd71c57E+0x9c>
   1634a:	4519                	li	a0,6
   1634c:	6689                	lui	a3,0x2
   1634e:	4599                	li	a1,6
   16350:	4619                	li	a2,6
   16352:	d2be                	sw	a5,100(sp)
   16354:	d4aa                	sw	a0,104(sp)
   16356:	06910623          	sb	s1,108(sp)
   1635a:	c6b68513          	addi	a0,a3,-917 # 1c6b <.Lline_table_start1+0x1a40>
   1635e:	4709                	li	a4,2
   16360:	07f00793          	li	a5,127
   16364:	4681                	li	a3,0
   16366:	00000073          	ecall
   1636a:	02a7e863          	bltu	a5,a0,1639a <_ZN20complex_full_dynamic3app17hf20026435fd71c57E+0xc8>
   1636e:	00b9a223          	sw	a1,4(s3)
   16372:	4505                	li	a0,1
   16374:	00a98023          	sb	a0,0(s3)
   16378:	10c8                	addi	a0,sp,100
   1637a:	00004097          	auipc	ra,0x4
   1637e:	700080e7          	jalr	1792(ra) # 1aa7a <_ZN9allow_pin12full_dynamic17unshare_if_shared17hcb7d6c8e9042aa41E>
   16382:	850a                	mv	a0,sp
   16384:	00004097          	auipc	ra,0x4
   16388:	6f6080e7          	jalr	1782(ra) # 1aa7a <_ZN9allow_pin12full_dynamic17unshare_if_shared17hcb7d6c8e9042aa41E>
   1638c:	40be                	lw	ra,204(sp)
   1638e:	442e                	lw	s0,200(sp)
   16390:	449e                	lw	s1,196(sp)
   16392:	490e                	lw	s2,192(sp)
   16394:	59fa                	lw	s3,188(sp)
   16396:	6169                	addi	sp,sp,208
   16398:	8082                	ret
   1639a:	850a                	mv	a0,sp
   1639c:	00004097          	auipc	ra,0x4
   163a0:	6de080e7          	jalr	1758(ra) # 1aa7a <_ZN9allow_pin12full_dynamic17unshare_if_shared17hcb7d6c8e9042aa41E>
   163a4:	10c8                	addi	a0,sp,100
   163a6:	00004097          	auipc	ra,0x4
   163aa:	6d4080e7          	jalr	1748(ra) # 1aa7a <_ZN9allow_pin12full_dynamic17unshare_if_shared17hcb7d6c8e9042aa41E>
   163ae:	10c8                	addi	a0,sp,100
   163b0:	00004097          	auipc	ra,0x4
   163b4:	6ca080e7          	jalr	1738(ra) # 1aa7a <_ZN9allow_pin12full_dynamic17unshare_if_shared17hcb7d6c8e9042aa41E>
   163b8:	00198513          	addi	a0,s3,1
   163bc:	04900613          	li	a2,73
   163c0:	85ca                	mv	a1,s2
   163c2:	00004097          	auipc	ra,0x4
   163c6:	742080e7          	jalr	1858(ra) # 1ab04 <memcpy>
   163ca:	4501                	li	a0,0
   163cc:	b765                	j	16374 <_ZN20complex_full_dynamic3app17hf20026435fd71c57E+0xa2>

000163ce <_ZN20complex_full_dynamic3app17hf20821d23e858b35E>:
   163ce:	7175                	addi	sp,sp,-144
   163d0:	c706                	sw	ra,140(sp)
   163d2:	c522                	sw	s0,136(sp)
   163d4:	c326                	sw	s1,132(sp)
   163d6:	c14a                	sw	s2,128(sp)
   163d8:	dece                	sw	s3,124(sp)
   163da:	89aa                	mv	s3,a0
   163dc:	4409                	li	s0,2
   163de:	00810823          	sb	s0,16(sp)
   163e2:	0844                	addi	s1,sp,20
   163e4:	4679                	li	a2,30
   163e6:	8526                	mv	a0,s1
   163e8:	00004097          	auipc	ra,0x4
   163ec:	71c080e7          	jalr	1820(ra) # 1ab04 <memcpy>
   163f0:	04010913          	addi	s2,sp,64
   163f4:	03c00613          	li	a2,60
   163f8:	854a                	mv	a0,s2
   163fa:	4581                	li	a1,0
   163fc:	00004097          	auipc	ra,0x4
   16400:	69c080e7          	jalr	1692(ra) # 1aa98 <memset>
   16404:	8626                	mv	a2,s1
   16406:	02810e23          	sb	s0,60(sp)
   1640a:	6505                	lui	a0,0x1
   1640c:	4491                	li	s1,4
   1640e:	4589                	li	a1,2
   16410:	b3c50793          	addi	a5,a0,-1220 # b3c <.Lline_table_start1+0x911>
   16414:	46f9                	li	a3,30
   16416:	4711                	li	a4,4
   16418:	853e                	mv	a0,a5
   1641a:	00000073          	ecall
   1641e:	04850263          	beq	a0,s0,16462 <_ZN20complex_full_dynamic3app17hf20821d23e858b35E+0x94>
   16422:	853e                	mv	a0,a5
   16424:	864a                	mv	a2,s2
   16426:	c43e                	sw	a5,8(sp)
   16428:	c622                	sw	s0,12(sp)
   1642a:	00910823          	sb	s1,16(sp)
   1642e:	448d                	li	s1,3
   16430:	458d                	li	a1,3
   16432:	03c00693          	li	a3,60
   16436:	470d                	li	a4,3
   16438:	00000073          	ecall
   1643c:	02850363          	beq	a0,s0,16462 <_ZN20complex_full_dynamic3app17hf20821d23e858b35E+0x94>
   16440:	da3e                	sw	a5,52(sp)
   16442:	dc26                	sw	s1,56(sp)
   16444:	02910e23          	sb	s1,60(sp)
   16448:	6505                	lui	a0,0x1
   1644a:	4589                	li	a1,2
   1644c:	460d                	li	a2,3
   1644e:	b3c50513          	addi	a0,a0,-1220 # b3c <.Lline_table_start1+0x911>
   16452:	4709                	li	a4,2
   16454:	07f00793          	li	a5,127
   16458:	4681                	li	a3,0
   1645a:	00000073          	ecall
   1645e:	02a7e863          	bltu	a5,a0,1648e <_ZN20complex_full_dynamic3app17hf20821d23e858b35E+0xc0>
   16462:	00b9a223          	sw	a1,4(s3)
   16466:	4505                	li	a0,1
   16468:	00a98023          	sb	a0,0(s3)
   1646c:	1848                	addi	a0,sp,52
   1646e:	00004097          	auipc	ra,0x4
   16472:	60c080e7          	jalr	1548(ra) # 1aa7a <_ZN9allow_pin12full_dynamic17unshare_if_shared17hcb7d6c8e9042aa41E>
   16476:	0028                	addi	a0,sp,8
   16478:	00004097          	auipc	ra,0x4
   1647c:	602080e7          	jalr	1538(ra) # 1aa7a <_ZN9allow_pin12full_dynamic17unshare_if_shared17hcb7d6c8e9042aa41E>
   16480:	40ba                	lw	ra,140(sp)
   16482:	442a                	lw	s0,136(sp)
   16484:	449a                	lw	s1,132(sp)
   16486:	490a                	lw	s2,128(sp)
   16488:	59f6                	lw	s3,124(sp)
   1648a:	6149                	addi	sp,sp,144
   1648c:	8082                	ret
   1648e:	0028                	addi	a0,sp,8
   16490:	00004097          	auipc	ra,0x4
   16494:	5ea080e7          	jalr	1514(ra) # 1aa7a <_ZN9allow_pin12full_dynamic17unshare_if_shared17hcb7d6c8e9042aa41E>
   16498:	1848                	addi	a0,sp,52
   1649a:	00004097          	auipc	ra,0x4
   1649e:	5e0080e7          	jalr	1504(ra) # 1aa7a <_ZN9allow_pin12full_dynamic17unshare_if_shared17hcb7d6c8e9042aa41E>
   164a2:	1848                	addi	a0,sp,52
   164a4:	00004097          	auipc	ra,0x4
   164a8:	5d6080e7          	jalr	1494(ra) # 1aa7a <_ZN9allow_pin12full_dynamic17unshare_if_shared17hcb7d6c8e9042aa41E>
   164ac:	00198513          	addi	a0,s3,1
   164b0:	03c00613          	li	a2,60
   164b4:	85ca                	mv	a1,s2
   164b6:	00004097          	auipc	ra,0x4
   164ba:	64e080e7          	jalr	1614(ra) # 1ab04 <memcpy>
   164be:	4501                	li	a0,0
   164c0:	b765                	j	16468 <_ZN20complex_full_dynamic3app17hf20821d23e858b35E+0x9a>

000164c2 <_ZN20complex_full_dynamic3app17hf33c32a8c623dcdfE>:
   164c2:	7171                	addi	sp,sp,-176
   164c4:	d706                	sw	ra,172(sp)
   164c6:	d522                	sw	s0,168(sp)
   164c8:	d326                	sw	s1,164(sp)
   164ca:	d14a                	sw	s2,160(sp)
   164cc:	cf4e                	sw	s3,156(sp)
   164ce:	89aa                	mv	s3,a0
   164d0:	4409                	li	s0,2
   164d2:	00810823          	sb	s0,16(sp)
   164d6:	0844                	addi	s1,sp,20
   164d8:	04a00613          	li	a2,74
   164dc:	8526                	mv	a0,s1
   164de:	00004097          	auipc	ra,0x4
   164e2:	626080e7          	jalr	1574(ra) # 1ab04 <memcpy>
   164e6:	06c10913          	addi	s2,sp,108
   164ea:	02d00613          	li	a2,45
   164ee:	854a                	mv	a0,s2
   164f0:	4581                	li	a1,0
   164f2:	00004097          	auipc	ra,0x4
   164f6:	5a6080e7          	jalr	1446(ra) # 1aa98 <memset>
   164fa:	8626                	mv	a2,s1
   164fc:	06810423          	sb	s0,104(sp)
   16500:	6505                	lui	a0,0x1
   16502:	4491                	li	s1,4
   16504:	4589                	li	a1,2
   16506:	e3d50793          	addi	a5,a0,-451 # e3d <.Lline_table_start1+0xc12>
   1650a:	04a00693          	li	a3,74
   1650e:	4711                	li	a4,4
   16510:	853e                	mv	a0,a5
   16512:	00000073          	ecall
   16516:	04850263          	beq	a0,s0,1655a <_ZN20complex_full_dynamic3app17hf33c32a8c623dcdfE+0x98>
   1651a:	853e                	mv	a0,a5
   1651c:	864a                	mv	a2,s2
   1651e:	c43e                	sw	a5,8(sp)
   16520:	c622                	sw	s0,12(sp)
   16522:	00910823          	sb	s1,16(sp)
   16526:	448d                	li	s1,3
   16528:	458d                	li	a1,3
   1652a:	02d00693          	li	a3,45
   1652e:	470d                	li	a4,3
   16530:	00000073          	ecall
   16534:	02850363          	beq	a0,s0,1655a <_ZN20complex_full_dynamic3app17hf33c32a8c623dcdfE+0x98>
   16538:	d0be                	sw	a5,96(sp)
   1653a:	d2a6                	sw	s1,100(sp)
   1653c:	06910423          	sb	s1,104(sp)
   16540:	6505                	lui	a0,0x1
   16542:	4589                	li	a1,2
   16544:	460d                	li	a2,3
   16546:	e3d50513          	addi	a0,a0,-451 # e3d <.Lline_table_start1+0xc12>
   1654a:	4709                	li	a4,2
   1654c:	07f00793          	li	a5,127
   16550:	4681                	li	a3,0
   16552:	00000073          	ecall
   16556:	02a7e863          	bltu	a5,a0,16586 <_ZN20complex_full_dynamic3app17hf33c32a8c623dcdfE+0xc4>
   1655a:	00b9a223          	sw	a1,4(s3)
   1655e:	4505                	li	a0,1
   16560:	00a98023          	sb	a0,0(s3)
   16564:	1088                	addi	a0,sp,96
   16566:	00004097          	auipc	ra,0x4
   1656a:	514080e7          	jalr	1300(ra) # 1aa7a <_ZN9allow_pin12full_dynamic17unshare_if_shared17hcb7d6c8e9042aa41E>
   1656e:	0028                	addi	a0,sp,8
   16570:	00004097          	auipc	ra,0x4
   16574:	50a080e7          	jalr	1290(ra) # 1aa7a <_ZN9allow_pin12full_dynamic17unshare_if_shared17hcb7d6c8e9042aa41E>
   16578:	50ba                	lw	ra,172(sp)
   1657a:	542a                	lw	s0,168(sp)
   1657c:	549a                	lw	s1,164(sp)
   1657e:	590a                	lw	s2,160(sp)
   16580:	49fa                	lw	s3,156(sp)
   16582:	614d                	addi	sp,sp,176
   16584:	8082                	ret
   16586:	0028                	addi	a0,sp,8
   16588:	00004097          	auipc	ra,0x4
   1658c:	4f2080e7          	jalr	1266(ra) # 1aa7a <_ZN9allow_pin12full_dynamic17unshare_if_shared17hcb7d6c8e9042aa41E>
   16590:	1088                	addi	a0,sp,96
   16592:	00004097          	auipc	ra,0x4
   16596:	4e8080e7          	jalr	1256(ra) # 1aa7a <_ZN9allow_pin12full_dynamic17unshare_if_shared17hcb7d6c8e9042aa41E>
   1659a:	1088                	addi	a0,sp,96
   1659c:	00004097          	auipc	ra,0x4
   165a0:	4de080e7          	jalr	1246(ra) # 1aa7a <_ZN9allow_pin12full_dynamic17unshare_if_shared17hcb7d6c8e9042aa41E>
   165a4:	00198513          	addi	a0,s3,1
   165a8:	02d00613          	li	a2,45
   165ac:	85ca                	mv	a1,s2
   165ae:	00004097          	auipc	ra,0x4
   165b2:	556080e7          	jalr	1366(ra) # 1ab04 <memcpy>
   165b6:	4501                	li	a0,0
   165b8:	b765                	j	16560 <_ZN20complex_full_dynamic3app17hf33c32a8c623dcdfE+0x9e>

000165ba <_ZN20complex_full_dynamic3app17hf5a257cc50e3c323E>:
   165ba:	7119                	addi	sp,sp,-128
   165bc:	de86                	sw	ra,124(sp)
   165be:	dca2                	sw	s0,120(sp)
   165c0:	daa6                	sw	s1,116(sp)
   165c2:	d8ca                	sw	s2,112(sp)
   165c4:	d6ce                	sw	s3,108(sp)
   165c6:	89aa                	mv	s3,a0
   165c8:	4409                	li	s0,2
   165ca:	00810623          	sb	s0,12(sp)
   165ce:	0804                	addi	s1,sp,16
   165d0:	4661                	li	a2,24
   165d2:	8526                	mv	a0,s1
   165d4:	00004097          	auipc	ra,0x4
   165d8:	530080e7          	jalr	1328(ra) # 1ab04 <memcpy>
   165dc:	03410913          	addi	s2,sp,52
   165e0:	03600613          	li	a2,54
   165e4:	854a                	mv	a0,s2
   165e6:	4581                	li	a1,0
   165e8:	00004097          	auipc	ra,0x4
   165ec:	4b0080e7          	jalr	1200(ra) # 1aa98 <memset>
   165f0:	8626                	mv	a2,s1
   165f2:	02810823          	sb	s0,48(sp)
   165f6:	0f300793          	li	a5,243
   165fa:	44a1                	li	s1,8
   165fc:	4811                	li	a6,4
   165fe:	0f300513          	li	a0,243
   16602:	45a1                	li	a1,8
   16604:	46e1                	li	a3,24
   16606:	4711                	li	a4,4
   16608:	00000073          	ecall
   1660c:	04850563          	beq	a0,s0,16656 <_ZN20complex_full_dynamic3app17hf5a257cc50e3c323E+0x9c>
   16610:	864a                	mv	a2,s2
   16612:	c23e                	sw	a5,4(sp)
   16614:	c426                	sw	s1,8(sp)
   16616:	01010623          	sb	a6,12(sp)
   1661a:	478d                	li	a5,3
   1661c:	0f300513          	li	a0,243
   16620:	4591                	li	a1,4
   16622:	03600693          	li	a3,54
   16626:	470d                	li	a4,3
   16628:	00000073          	ecall
   1662c:	02850563          	beq	a0,s0,16656 <_ZN20complex_full_dynamic3app17hf5a257cc50e3c323E+0x9c>
   16630:	0f300693          	li	a3,243
   16634:	4491                	li	s1,4
   16636:	0f300513          	li	a0,243
   1663a:	45a1                	li	a1,8
   1663c:	4611                	li	a2,4
   1663e:	4709                	li	a4,2
   16640:	07f00413          	li	s0,127
   16644:	d436                	sw	a3,40(sp)
   16646:	d626                	sw	s1,44(sp)
   16648:	02f10823          	sb	a5,48(sp)
   1664c:	4681                	li	a3,0
   1664e:	00000073          	ecall
   16652:	02a46863          	bltu	s0,a0,16682 <_ZN20complex_full_dynamic3app17hf5a257cc50e3c323E+0xc8>
   16656:	00b9a223          	sw	a1,4(s3)
   1665a:	4505                	li	a0,1
   1665c:	00a98023          	sb	a0,0(s3)
   16660:	1028                	addi	a0,sp,40
   16662:	00004097          	auipc	ra,0x4
   16666:	418080e7          	jalr	1048(ra) # 1aa7a <_ZN9allow_pin12full_dynamic17unshare_if_shared17hcb7d6c8e9042aa41E>
   1666a:	0048                	addi	a0,sp,4
   1666c:	00004097          	auipc	ra,0x4
   16670:	40e080e7          	jalr	1038(ra) # 1aa7a <_ZN9allow_pin12full_dynamic17unshare_if_shared17hcb7d6c8e9042aa41E>
   16674:	50f6                	lw	ra,124(sp)
   16676:	5466                	lw	s0,120(sp)
   16678:	54d6                	lw	s1,116(sp)
   1667a:	5946                	lw	s2,112(sp)
   1667c:	59b6                	lw	s3,108(sp)
   1667e:	6109                	addi	sp,sp,128
   16680:	8082                	ret
   16682:	0048                	addi	a0,sp,4
   16684:	00004097          	auipc	ra,0x4
   16688:	3f6080e7          	jalr	1014(ra) # 1aa7a <_ZN9allow_pin12full_dynamic17unshare_if_shared17hcb7d6c8e9042aa41E>
   1668c:	1028                	addi	a0,sp,40
   1668e:	00004097          	auipc	ra,0x4
   16692:	3ec080e7          	jalr	1004(ra) # 1aa7a <_ZN9allow_pin12full_dynamic17unshare_if_shared17hcb7d6c8e9042aa41E>
   16696:	1028                	addi	a0,sp,40
   16698:	00004097          	auipc	ra,0x4
   1669c:	3e2080e7          	jalr	994(ra) # 1aa7a <_ZN9allow_pin12full_dynamic17unshare_if_shared17hcb7d6c8e9042aa41E>
   166a0:	00198513          	addi	a0,s3,1
   166a4:	03600613          	li	a2,54
   166a8:	85ca                	mv	a1,s2
   166aa:	00004097          	auipc	ra,0x4
   166ae:	45a080e7          	jalr	1114(ra) # 1ab04 <memcpy>
   166b2:	4501                	li	a0,0
   166b4:	b765                	j	1665c <_ZN20complex_full_dynamic3app17hf5a257cc50e3c323E+0xa2>

000166b6 <_ZN20complex_full_dynamic3app17hf807a84b35059158E>:
   166b6:	7131                	addi	sp,sp,-192
   166b8:	df06                	sw	ra,188(sp)
   166ba:	dd22                	sw	s0,184(sp)
   166bc:	db26                	sw	s1,180(sp)
   166be:	d94a                	sw	s2,176(sp)
   166c0:	d74e                	sw	s3,172(sp)
   166c2:	89aa                	mv	s3,a0
   166c4:	4409                	li	s0,2
   166c6:	00810823          	sb	s0,16(sp)
   166ca:	0844                	addi	s1,sp,20
   166cc:	04d00613          	li	a2,77
   166d0:	8526                	mv	a0,s1
   166d2:	00004097          	auipc	ra,0x4
   166d6:	432080e7          	jalr	1074(ra) # 1ab04 <memcpy>
   166da:	07010913          	addi	s2,sp,112
   166de:	03c00613          	li	a2,60
   166e2:	854a                	mv	a0,s2
   166e4:	4581                	li	a1,0
   166e6:	00004097          	auipc	ra,0x4
   166ea:	3b2080e7          	jalr	946(ra) # 1aa98 <memset>
   166ee:	8626                	mv	a2,s1
   166f0:	06810623          	sb	s0,108(sp)
   166f4:	6509                	lui	a0,0x2
   166f6:	4491                	li	s1,4
   166f8:	4591                	li	a1,4
   166fa:	1ab50793          	addi	a5,a0,427 # 21ab <.Lline_table_start1+0x1f80>
   166fe:	04d00693          	li	a3,77
   16702:	4711                	li	a4,4
   16704:	853e                	mv	a0,a5
   16706:	00000073          	ecall
   1670a:	04850363          	beq	a0,s0,16750 <_ZN20complex_full_dynamic3app17hf807a84b35059158E+0x9a>
   1670e:	853e                	mv	a0,a5
   16710:	864a                	mv	a2,s2
   16712:	c43e                	sw	a5,8(sp)
   16714:	c626                	sw	s1,12(sp)
   16716:	00910823          	sb	s1,16(sp)
   1671a:	44a5                	li	s1,9
   1671c:	480d                	li	a6,3
   1671e:	45a5                	li	a1,9
   16720:	03c00693          	li	a3,60
   16724:	470d                	li	a4,3
   16726:	00000073          	ecall
   1672a:	02850363          	beq	a0,s0,16750 <_ZN20complex_full_dynamic3app17hf807a84b35059158E+0x9a>
   1672e:	d2be                	sw	a5,100(sp)
   16730:	d4a6                	sw	s1,104(sp)
   16732:	07010623          	sb	a6,108(sp)
   16736:	6509                	lui	a0,0x2
   16738:	4591                	li	a1,4
   1673a:	4625                	li	a2,9
   1673c:	1ab50513          	addi	a0,a0,427 # 21ab <.Lline_table_start1+0x1f80>
   16740:	4709                	li	a4,2
   16742:	07f00793          	li	a5,127
   16746:	4681                	li	a3,0
   16748:	00000073          	ecall
   1674c:	02a7e863          	bltu	a5,a0,1677c <_ZN20complex_full_dynamic3app17hf807a84b35059158E+0xc6>
   16750:	00b9a223          	sw	a1,4(s3)
   16754:	4505                	li	a0,1
   16756:	00a98023          	sb	a0,0(s3)
   1675a:	10c8                	addi	a0,sp,100
   1675c:	00004097          	auipc	ra,0x4
   16760:	31e080e7          	jalr	798(ra) # 1aa7a <_ZN9allow_pin12full_dynamic17unshare_if_shared17hcb7d6c8e9042aa41E>
   16764:	0028                	addi	a0,sp,8
   16766:	00004097          	auipc	ra,0x4
   1676a:	314080e7          	jalr	788(ra) # 1aa7a <_ZN9allow_pin12full_dynamic17unshare_if_shared17hcb7d6c8e9042aa41E>
   1676e:	50fa                	lw	ra,188(sp)
   16770:	546a                	lw	s0,184(sp)
   16772:	54da                	lw	s1,180(sp)
   16774:	594a                	lw	s2,176(sp)
   16776:	59ba                	lw	s3,172(sp)
   16778:	6129                	addi	sp,sp,192
   1677a:	8082                	ret
   1677c:	0028                	addi	a0,sp,8
   1677e:	00004097          	auipc	ra,0x4
   16782:	2fc080e7          	jalr	764(ra) # 1aa7a <_ZN9allow_pin12full_dynamic17unshare_if_shared17hcb7d6c8e9042aa41E>
   16786:	10c8                	addi	a0,sp,100
   16788:	00004097          	auipc	ra,0x4
   1678c:	2f2080e7          	jalr	754(ra) # 1aa7a <_ZN9allow_pin12full_dynamic17unshare_if_shared17hcb7d6c8e9042aa41E>
   16790:	10c8                	addi	a0,sp,100
   16792:	00004097          	auipc	ra,0x4
   16796:	2e8080e7          	jalr	744(ra) # 1aa7a <_ZN9allow_pin12full_dynamic17unshare_if_shared17hcb7d6c8e9042aa41E>
   1679a:	00198513          	addi	a0,s3,1
   1679e:	03c00613          	li	a2,60
   167a2:	85ca                	mv	a1,s2
   167a4:	00004097          	auipc	ra,0x4
   167a8:	360080e7          	jalr	864(ra) # 1ab04 <memcpy>
   167ac:	4501                	li	a0,0
   167ae:	b765                	j	16756 <_ZN20complex_full_dynamic3app17hf807a84b35059158E+0xa0>

000167b0 <_ZN20complex_full_dynamic3app17hfa70401655d24ee3E>:
   167b0:	7171                	addi	sp,sp,-176
   167b2:	d706                	sw	ra,172(sp)
   167b4:	d522                	sw	s0,168(sp)
   167b6:	d326                	sw	s1,164(sp)
   167b8:	d14a                	sw	s2,160(sp)
   167ba:	cf4e                	sw	s3,156(sp)
   167bc:	89aa                	mv	s3,a0
   167be:	4409                	li	s0,2
   167c0:	00810423          	sb	s0,8(sp)
   167c4:	0064                	addi	s1,sp,12
   167c6:	06100613          	li	a2,97
   167ca:	8526                	mv	a0,s1
   167cc:	00004097          	auipc	ra,0x4
   167d0:	338080e7          	jalr	824(ra) # 1ab04 <memcpy>
   167d4:	07c10913          	addi	s2,sp,124
   167d8:	4679                	li	a2,30
   167da:	854a                	mv	a0,s2
   167dc:	4581                	li	a1,0
   167de:	00004097          	auipc	ra,0x4
   167e2:	2ba080e7          	jalr	698(ra) # 1aa98 <memset>
   167e6:	8626                	mv	a2,s1
   167e8:	06810c23          	sb	s0,120(sp)
   167ec:	18800493          	li	s1,392
   167f0:	4791                	li	a5,4
   167f2:	18800513          	li	a0,392
   167f6:	4591                	li	a1,4
   167f8:	06100693          	li	a3,97
   167fc:	4711                	li	a4,4
   167fe:	00000073          	ecall
   16802:	04850463          	beq	a0,s0,1684a <_ZN20complex_full_dynamic3app17hfa70401655d24ee3E+0x9a>
   16806:	864a                	mv	a2,s2
   16808:	c026                	sw	s1,0(sp)
   1680a:	c23e                	sw	a5,4(sp)
   1680c:	00f10423          	sb	a5,8(sp)
   16810:	4799                	li	a5,6
   16812:	448d                	li	s1,3
   16814:	18800513          	li	a0,392
   16818:	4599                	li	a1,6
   1681a:	46f9                	li	a3,30
   1681c:	470d                	li	a4,3
   1681e:	00000073          	ecall
   16822:	02850463          	beq	a0,s0,1684a <_ZN20complex_full_dynamic3app17hfa70401655d24ee3E+0x9a>
   16826:	18800693          	li	a3,392
   1682a:	18800513          	li	a0,392
   1682e:	4591                	li	a1,4
   16830:	4619                	li	a2,6
   16832:	4709                	li	a4,2
   16834:	07f00413          	li	s0,127
   16838:	d8b6                	sw	a3,112(sp)
   1683a:	dabe                	sw	a5,116(sp)
   1683c:	06910c23          	sb	s1,120(sp)
   16840:	4681                	li	a3,0
   16842:	00000073          	ecall
   16846:	02a46863          	bltu	s0,a0,16876 <_ZN20complex_full_dynamic3app17hfa70401655d24ee3E+0xc6>
   1684a:	00b9a223          	sw	a1,4(s3)
   1684e:	4505                	li	a0,1
   16850:	00a98023          	sb	a0,0(s3)
   16854:	1888                	addi	a0,sp,112
   16856:	00004097          	auipc	ra,0x4
   1685a:	224080e7          	jalr	548(ra) # 1aa7a <_ZN9allow_pin12full_dynamic17unshare_if_shared17hcb7d6c8e9042aa41E>
   1685e:	850a                	mv	a0,sp
   16860:	00004097          	auipc	ra,0x4
   16864:	21a080e7          	jalr	538(ra) # 1aa7a <_ZN9allow_pin12full_dynamic17unshare_if_shared17hcb7d6c8e9042aa41E>
   16868:	50ba                	lw	ra,172(sp)
   1686a:	542a                	lw	s0,168(sp)
   1686c:	549a                	lw	s1,164(sp)
   1686e:	590a                	lw	s2,160(sp)
   16870:	49fa                	lw	s3,156(sp)
   16872:	614d                	addi	sp,sp,176
   16874:	8082                	ret
   16876:	850a                	mv	a0,sp
   16878:	00004097          	auipc	ra,0x4
   1687c:	202080e7          	jalr	514(ra) # 1aa7a <_ZN9allow_pin12full_dynamic17unshare_if_shared17hcb7d6c8e9042aa41E>
   16880:	1888                	addi	a0,sp,112
   16882:	00004097          	auipc	ra,0x4
   16886:	1f8080e7          	jalr	504(ra) # 1aa7a <_ZN9allow_pin12full_dynamic17unshare_if_shared17hcb7d6c8e9042aa41E>
   1688a:	1888                	addi	a0,sp,112
   1688c:	00004097          	auipc	ra,0x4
   16890:	1ee080e7          	jalr	494(ra) # 1aa7a <_ZN9allow_pin12full_dynamic17unshare_if_shared17hcb7d6c8e9042aa41E>
   16894:	00198513          	addi	a0,s3,1
   16898:	4679                	li	a2,30
   1689a:	85ca                	mv	a1,s2
   1689c:	00004097          	auipc	ra,0x4
   168a0:	268080e7          	jalr	616(ra) # 1ab04 <memcpy>
   168a4:	4501                	li	a0,0
   168a6:	b76d                	j	16850 <_ZN20complex_full_dynamic3app17hfa70401655d24ee3E+0xa0>

000168a8 <_ZN20complex_full_dynamic3app17hfafd6fa4462d42e5E>:
   168a8:	7155                	addi	sp,sp,-208
   168aa:	c786                	sw	ra,204(sp)
   168ac:	c5a2                	sw	s0,200(sp)
   168ae:	c3a6                	sw	s1,196(sp)
   168b0:	c1ca                	sw	s2,192(sp)
   168b2:	df4e                	sw	s3,188(sp)
   168b4:	89aa                	mv	s3,a0
   168b6:	4409                	li	s0,2
   168b8:	00810823          	sb	s0,16(sp)
   168bc:	0844                	addi	s1,sp,20
   168be:	03a00613          	li	a2,58
   168c2:	8526                	mv	a0,s1
   168c4:	00004097          	auipc	ra,0x4
   168c8:	240080e7          	jalr	576(ra) # 1ab04 <memcpy>
   168cc:	05c10913          	addi	s2,sp,92
   168d0:	05d00613          	li	a2,93
   168d4:	854a                	mv	a0,s2
   168d6:	4581                	li	a1,0
   168d8:	00004097          	auipc	ra,0x4
   168dc:	1c0080e7          	jalr	448(ra) # 1aa98 <memset>
   168e0:	4581                	li	a1,0
   168e2:	8626                	mv	a2,s1
   168e4:	04810c23          	sb	s0,88(sp)
   168e8:	6505                	lui	a0,0x1
   168ea:	4491                	li	s1,4
   168ec:	4a450793          	addi	a5,a0,1188 # 14a4 <.Lline_table_start1+0x1279>
   168f0:	03a00693          	li	a3,58
   168f4:	4711                	li	a4,4
   168f6:	853e                	mv	a0,a5
   168f8:	00000073          	ecall
   168fc:	04850363          	beq	a0,s0,16942 <_ZN20complex_full_dynamic3app17hfafd6fa4462d42e5E+0x9a>
   16900:	853e                	mv	a0,a5
   16902:	864a                	mv	a2,s2
   16904:	c43e                	sw	a5,8(sp)
   16906:	c602                	sw	zero,12(sp)
   16908:	00910823          	sb	s1,16(sp)
   1690c:	4495                	li	s1,5
   1690e:	480d                	li	a6,3
   16910:	4595                	li	a1,5
   16912:	05d00693          	li	a3,93
   16916:	470d                	li	a4,3
   16918:	00000073          	ecall
   1691c:	02850363          	beq	a0,s0,16942 <_ZN20complex_full_dynamic3app17hfafd6fa4462d42e5E+0x9a>
   16920:	c8be                	sw	a5,80(sp)
   16922:	caa6                	sw	s1,84(sp)
   16924:	05010c23          	sb	a6,88(sp)
   16928:	6505                	lui	a0,0x1
   1692a:	4615                	li	a2,5
   1692c:	4a450513          	addi	a0,a0,1188 # 14a4 <.Lline_table_start1+0x1279>
   16930:	4709                	li	a4,2
   16932:	07f00793          	li	a5,127
   16936:	4581                	li	a1,0
   16938:	4681                	li	a3,0
   1693a:	00000073          	ecall
   1693e:	02a7e863          	bltu	a5,a0,1696e <_ZN20complex_full_dynamic3app17hfafd6fa4462d42e5E+0xc6>
   16942:	00b9a223          	sw	a1,4(s3)
   16946:	4505                	li	a0,1
   16948:	00a98023          	sb	a0,0(s3)
   1694c:	0888                	addi	a0,sp,80
   1694e:	00004097          	auipc	ra,0x4
   16952:	12c080e7          	jalr	300(ra) # 1aa7a <_ZN9allow_pin12full_dynamic17unshare_if_shared17hcb7d6c8e9042aa41E>
   16956:	0028                	addi	a0,sp,8
   16958:	00004097          	auipc	ra,0x4
   1695c:	122080e7          	jalr	290(ra) # 1aa7a <_ZN9allow_pin12full_dynamic17unshare_if_shared17hcb7d6c8e9042aa41E>
   16960:	40be                	lw	ra,204(sp)
   16962:	442e                	lw	s0,200(sp)
   16964:	449e                	lw	s1,196(sp)
   16966:	490e                	lw	s2,192(sp)
   16968:	59fa                	lw	s3,188(sp)
   1696a:	6169                	addi	sp,sp,208
   1696c:	8082                	ret
   1696e:	0028                	addi	a0,sp,8
   16970:	00004097          	auipc	ra,0x4
   16974:	10a080e7          	jalr	266(ra) # 1aa7a <_ZN9allow_pin12full_dynamic17unshare_if_shared17hcb7d6c8e9042aa41E>
   16978:	0888                	addi	a0,sp,80
   1697a:	00004097          	auipc	ra,0x4
   1697e:	100080e7          	jalr	256(ra) # 1aa7a <_ZN9allow_pin12full_dynamic17unshare_if_shared17hcb7d6c8e9042aa41E>
   16982:	0888                	addi	a0,sp,80
   16984:	00004097          	auipc	ra,0x4
   16988:	0f6080e7          	jalr	246(ra) # 1aa7a <_ZN9allow_pin12full_dynamic17unshare_if_shared17hcb7d6c8e9042aa41E>
   1698c:	00198513          	addi	a0,s3,1
   16990:	05d00613          	li	a2,93
   16994:	85ca                	mv	a1,s2
   16996:	00004097          	auipc	ra,0x4
   1699a:	16e080e7          	jalr	366(ra) # 1ab04 <memcpy>
   1699e:	4501                	li	a0,0
   169a0:	b765                	j	16948 <_ZN20complex_full_dynamic3app17hfafd6fa4462d42e5E+0xa0>

000169a2 <_ZN20complex_full_dynamic3app17hfc16a2b2c929d5e2E>:
   169a2:	7119                	addi	sp,sp,-128
   169a4:	de86                	sw	ra,124(sp)
   169a6:	dca2                	sw	s0,120(sp)
   169a8:	daa6                	sw	s1,116(sp)
   169aa:	d8ca                	sw	s2,112(sp)
   169ac:	d6ce                	sw	s3,108(sp)
   169ae:	89aa                	mv	s3,a0
   169b0:	4409                	li	s0,2
   169b2:	00810423          	sb	s0,8(sp)
   169b6:	0064                	addi	s1,sp,12
   169b8:	02400613          	li	a2,36
   169bc:	8526                	mv	a0,s1
   169be:	00004097          	auipc	ra,0x4
   169c2:	146080e7          	jalr	326(ra) # 1ab04 <memcpy>
   169c6:	03c10913          	addi	s2,sp,60
   169ca:	02f00613          	li	a2,47
   169ce:	854a                	mv	a0,s2
   169d0:	4581                	li	a1,0
   169d2:	00004097          	auipc	ra,0x4
   169d6:	0c6080e7          	jalr	198(ra) # 1aa98 <memset>
   169da:	8626                	mv	a2,s1
   169dc:	02810c23          	sb	s0,56(sp)
   169e0:	6505                	lui	a0,0x1
   169e2:	4499                	li	s1,6
   169e4:	4811                	li	a6,4
   169e6:	4599                	li	a1,6
   169e8:	27350793          	addi	a5,a0,627 # 1273 <.Lline_table_start1+0x1048>
   169ec:	02400693          	li	a3,36
   169f0:	4711                	li	a4,4
   169f2:	853e                	mv	a0,a5
   169f4:	00000073          	ecall
   169f8:	04850363          	beq	a0,s0,16a3e <_ZN20complex_full_dynamic3app17hfc16a2b2c929d5e2E+0x9c>
   169fc:	853e                	mv	a0,a5
   169fe:	864a                	mv	a2,s2
   16a00:	c03e                	sw	a5,0(sp)
   16a02:	c226                	sw	s1,4(sp)
   16a04:	01010423          	sb	a6,8(sp)
   16a08:	44a5                	li	s1,9
   16a0a:	480d                	li	a6,3
   16a0c:	45a5                	li	a1,9
   16a0e:	02f00693          	li	a3,47
   16a12:	470d                	li	a4,3
   16a14:	00000073          	ecall
   16a18:	02850363          	beq	a0,s0,16a3e <_ZN20complex_full_dynamic3app17hfc16a2b2c929d5e2E+0x9c>
   16a1c:	d83e                	sw	a5,48(sp)
   16a1e:	da26                	sw	s1,52(sp)
   16a20:	03010c23          	sb	a6,56(sp)
   16a24:	6505                	lui	a0,0x1
   16a26:	4599                	li	a1,6
   16a28:	4625                	li	a2,9
   16a2a:	27350513          	addi	a0,a0,627 # 1273 <.Lline_table_start1+0x1048>
   16a2e:	4709                	li	a4,2
   16a30:	07f00793          	li	a5,127
   16a34:	4681                	li	a3,0
   16a36:	00000073          	ecall
   16a3a:	02a7e863          	bltu	a5,a0,16a6a <_ZN20complex_full_dynamic3app17hfc16a2b2c929d5e2E+0xc8>
   16a3e:	00b9a223          	sw	a1,4(s3)
   16a42:	4505                	li	a0,1
   16a44:	00a98023          	sb	a0,0(s3)
   16a48:	1808                	addi	a0,sp,48
   16a4a:	00004097          	auipc	ra,0x4
   16a4e:	030080e7          	jalr	48(ra) # 1aa7a <_ZN9allow_pin12full_dynamic17unshare_if_shared17hcb7d6c8e9042aa41E>
   16a52:	850a                	mv	a0,sp
   16a54:	00004097          	auipc	ra,0x4
   16a58:	026080e7          	jalr	38(ra) # 1aa7a <_ZN9allow_pin12full_dynamic17unshare_if_shared17hcb7d6c8e9042aa41E>
   16a5c:	50f6                	lw	ra,124(sp)
   16a5e:	5466                	lw	s0,120(sp)
   16a60:	54d6                	lw	s1,116(sp)
   16a62:	5946                	lw	s2,112(sp)
   16a64:	59b6                	lw	s3,108(sp)
   16a66:	6109                	addi	sp,sp,128
   16a68:	8082                	ret
   16a6a:	850a                	mv	a0,sp
   16a6c:	00004097          	auipc	ra,0x4
   16a70:	00e080e7          	jalr	14(ra) # 1aa7a <_ZN9allow_pin12full_dynamic17unshare_if_shared17hcb7d6c8e9042aa41E>
   16a74:	1808                	addi	a0,sp,48
   16a76:	00004097          	auipc	ra,0x4
   16a7a:	004080e7          	jalr	4(ra) # 1aa7a <_ZN9allow_pin12full_dynamic17unshare_if_shared17hcb7d6c8e9042aa41E>
   16a7e:	1808                	addi	a0,sp,48
   16a80:	00004097          	auipc	ra,0x4
   16a84:	ffa080e7          	jalr	-6(ra) # 1aa7a <_ZN9allow_pin12full_dynamic17unshare_if_shared17hcb7d6c8e9042aa41E>
   16a88:	00198513          	addi	a0,s3,1
   16a8c:	02f00613          	li	a2,47
   16a90:	85ca                	mv	a1,s2
   16a92:	00004097          	auipc	ra,0x4
   16a96:	072080e7          	jalr	114(ra) # 1ab04 <memcpy>
   16a9a:	4501                	li	a0,0
   16a9c:	b765                	j	16a44 <_ZN20complex_full_dynamic3app17hfc16a2b2c929d5e2E+0xa2>

00016a9e <_ZN20complex_full_dynamic3app17hfe0f8b4e849d39a9E>:
   16a9e:	711d                	addi	sp,sp,-96
   16aa0:	ce86                	sw	ra,92(sp)
   16aa2:	cca2                	sw	s0,88(sp)
   16aa4:	caa6                	sw	s1,84(sp)
   16aa6:	c8ca                	sw	s2,80(sp)
   16aa8:	c6ce                	sw	s3,76(sp)
   16aaa:	89aa                	mv	s3,a0
   16aac:	4409                	li	s0,2
   16aae:	00810423          	sb	s0,8(sp)
   16ab2:	0064                	addi	s1,sp,12
   16ab4:	4635                	li	a2,13
   16ab6:	8526                	mv	a0,s1
   16ab8:	00004097          	auipc	ra,0x4
   16abc:	04c080e7          	jalr	76(ra) # 1ab04 <memcpy>
   16ac0:	02810913          	addi	s2,sp,40
   16ac4:	02100613          	li	a2,33
   16ac8:	854a                	mv	a0,s2
   16aca:	4581                	li	a1,0
   16acc:	00004097          	auipc	ra,0x4
   16ad0:	fcc080e7          	jalr	-52(ra) # 1aa98 <memset>
   16ad4:	4581                	li	a1,0
   16ad6:	8626                	mv	a2,s1
   16ad8:	02810223          	sb	s0,36(sp)
   16adc:	6505                	lui	a0,0x1
   16ade:	4491                	li	s1,4
   16ae0:	6b050793          	addi	a5,a0,1712 # 16b0 <.Lline_table_start1+0x1485>
   16ae4:	46b5                	li	a3,13
   16ae6:	4711                	li	a4,4
   16ae8:	853e                	mv	a0,a5
   16aea:	00000073          	ecall
   16aee:	04850263          	beq	a0,s0,16b32 <_ZN20complex_full_dynamic3app17hfe0f8b4e849d39a9E+0x94>
   16af2:	853e                	mv	a0,a5
   16af4:	4581                	li	a1,0
   16af6:	864a                	mv	a2,s2
   16af8:	c03e                	sw	a5,0(sp)
   16afa:	c202                	sw	zero,4(sp)
   16afc:	00910423          	sb	s1,8(sp)
   16b00:	448d                	li	s1,3
   16b02:	02100693          	li	a3,33
   16b06:	470d                	li	a4,3
   16b08:	00000073          	ecall
   16b0c:	02850363          	beq	a0,s0,16b32 <_ZN20complex_full_dynamic3app17hfe0f8b4e849d39a9E+0x94>
   16b10:	ce3e                	sw	a5,28(sp)
   16b12:	d002                	sw	zero,32(sp)
   16b14:	02910223          	sb	s1,36(sp)
   16b18:	6505                	lui	a0,0x1
   16b1a:	6b050513          	addi	a0,a0,1712 # 16b0 <.Lline_table_start1+0x1485>
   16b1e:	4709                	li	a4,2
   16b20:	07f00793          	li	a5,127
   16b24:	4581                	li	a1,0
   16b26:	4601                	li	a2,0
   16b28:	4681                	li	a3,0
   16b2a:	00000073          	ecall
   16b2e:	02a7e863          	bltu	a5,a0,16b5e <_ZN20complex_full_dynamic3app17hfe0f8b4e849d39a9E+0xc0>
   16b32:	00b9a223          	sw	a1,4(s3)
   16b36:	4505                	li	a0,1
   16b38:	00a98023          	sb	a0,0(s3)
   16b3c:	0868                	addi	a0,sp,28
   16b3e:	00004097          	auipc	ra,0x4
   16b42:	f3c080e7          	jalr	-196(ra) # 1aa7a <_ZN9allow_pin12full_dynamic17unshare_if_shared17hcb7d6c8e9042aa41E>
   16b46:	850a                	mv	a0,sp
   16b48:	00004097          	auipc	ra,0x4
   16b4c:	f32080e7          	jalr	-206(ra) # 1aa7a <_ZN9allow_pin12full_dynamic17unshare_if_shared17hcb7d6c8e9042aa41E>
   16b50:	40f6                	lw	ra,92(sp)
   16b52:	4466                	lw	s0,88(sp)
   16b54:	44d6                	lw	s1,84(sp)
   16b56:	4946                	lw	s2,80(sp)
   16b58:	49b6                	lw	s3,76(sp)
   16b5a:	6125                	addi	sp,sp,96
   16b5c:	8082                	ret
   16b5e:	850a                	mv	a0,sp
   16b60:	00004097          	auipc	ra,0x4
   16b64:	f1a080e7          	jalr	-230(ra) # 1aa7a <_ZN9allow_pin12full_dynamic17unshare_if_shared17hcb7d6c8e9042aa41E>
   16b68:	0868                	addi	a0,sp,28
   16b6a:	00004097          	auipc	ra,0x4
   16b6e:	f10080e7          	jalr	-240(ra) # 1aa7a <_ZN9allow_pin12full_dynamic17unshare_if_shared17hcb7d6c8e9042aa41E>
   16b72:	0868                	addi	a0,sp,28
   16b74:	00004097          	auipc	ra,0x4
   16b78:	f06080e7          	jalr	-250(ra) # 1aa7a <_ZN9allow_pin12full_dynamic17unshare_if_shared17hcb7d6c8e9042aa41E>
   16b7c:	00198513          	addi	a0,s3,1
   16b80:	02100613          	li	a2,33
   16b84:	85ca                	mv	a1,s2
   16b86:	00004097          	auipc	ra,0x4
   16b8a:	f7e080e7          	jalr	-130(ra) # 1ab04 <memcpy>
   16b8e:	4501                	li	a0,0
   16b90:	b765                	j	16b38 <_ZN20complex_full_dynamic3app17hfe0f8b4e849d39a9E+0x9a>

00016b92 <_ZN20complex_full_dynamic3app17hff550e2da7d3161bE>:
   16b92:	7155                	addi	sp,sp,-208
   16b94:	c786                	sw	ra,204(sp)
   16b96:	c5a2                	sw	s0,200(sp)
   16b98:	c3a6                	sw	s1,196(sp)
   16b9a:	c1ca                	sw	s2,192(sp)
   16b9c:	df4e                	sw	s3,188(sp)
   16b9e:	89aa                	mv	s3,a0
   16ba0:	4409                	li	s0,2
   16ba2:	00810423          	sb	s0,8(sp)
   16ba6:	0064                	addi	s1,sp,12
   16ba8:	05300613          	li	a2,83
   16bac:	8526                	mv	a0,s1
   16bae:	00004097          	auipc	ra,0x4
   16bb2:	f56080e7          	jalr	-170(ra) # 1ab04 <memcpy>
   16bb6:	06c10913          	addi	s2,sp,108
   16bba:	04d00613          	li	a2,77
   16bbe:	854a                	mv	a0,s2
   16bc0:	4581                	li	a1,0
   16bc2:	00004097          	auipc	ra,0x4
   16bc6:	ed6080e7          	jalr	-298(ra) # 1aa98 <memset>
   16bca:	8626                	mv	a2,s1
   16bcc:	06810423          	sb	s0,104(sp)
   16bd0:	6505                	lui	a0,0x1
   16bd2:	44a5                	li	s1,9
   16bd4:	4811                	li	a6,4
   16bd6:	45a5                	li	a1,9
   16bd8:	6ba50793          	addi	a5,a0,1722 # 16ba <.Lline_table_start1+0x148f>
   16bdc:	05300693          	li	a3,83
   16be0:	4711                	li	a4,4
   16be2:	853e                	mv	a0,a5
   16be4:	00000073          	ecall
   16be8:	04850363          	beq	a0,s0,16c2e <_ZN20complex_full_dynamic3app17hff550e2da7d3161bE+0x9c>
   16bec:	853e                	mv	a0,a5
   16bee:	864a                	mv	a2,s2
   16bf0:	c03e                	sw	a5,0(sp)
   16bf2:	c226                	sw	s1,4(sp)
   16bf4:	01010423          	sb	a6,8(sp)
   16bf8:	448d                	li	s1,3
   16bfa:	4591                	li	a1,4
   16bfc:	04d00693          	li	a3,77
   16c00:	470d                	li	a4,3
   16c02:	00000073          	ecall
   16c06:	02850463          	beq	a0,s0,16c2e <_ZN20complex_full_dynamic3app17hff550e2da7d3161bE+0x9c>
   16c0a:	4511                	li	a0,4
   16c0c:	6685                	lui	a3,0x1
   16c0e:	45a5                	li	a1,9
   16c10:	4611                	li	a2,4
   16c12:	d0be                	sw	a5,96(sp)
   16c14:	d2aa                	sw	a0,100(sp)
   16c16:	06910423          	sb	s1,104(sp)
   16c1a:	6ba68513          	addi	a0,a3,1722 # 16ba <.Lline_table_start1+0x148f>
   16c1e:	4709                	li	a4,2
   16c20:	07f00793          	li	a5,127
   16c24:	4681                	li	a3,0
   16c26:	00000073          	ecall
   16c2a:	02a7e863          	bltu	a5,a0,16c5a <_ZN20complex_full_dynamic3app17hff550e2da7d3161bE+0xc8>
   16c2e:	00b9a223          	sw	a1,4(s3)
   16c32:	4505                	li	a0,1
   16c34:	00a98023          	sb	a0,0(s3)
   16c38:	1088                	addi	a0,sp,96
   16c3a:	00004097          	auipc	ra,0x4
   16c3e:	e40080e7          	jalr	-448(ra) # 1aa7a <_ZN9allow_pin12full_dynamic17unshare_if_shared17hcb7d6c8e9042aa41E>
   16c42:	850a                	mv	a0,sp
   16c44:	00004097          	auipc	ra,0x4
   16c48:	e36080e7          	jalr	-458(ra) # 1aa7a <_ZN9allow_pin12full_dynamic17unshare_if_shared17hcb7d6c8e9042aa41E>
   16c4c:	40be                	lw	ra,204(sp)
   16c4e:	442e                	lw	s0,200(sp)
   16c50:	449e                	lw	s1,196(sp)
   16c52:	490e                	lw	s2,192(sp)
   16c54:	59fa                	lw	s3,188(sp)
   16c56:	6169                	addi	sp,sp,208
   16c58:	8082                	ret
   16c5a:	850a                	mv	a0,sp
   16c5c:	00004097          	auipc	ra,0x4
   16c60:	e1e080e7          	jalr	-482(ra) # 1aa7a <_ZN9allow_pin12full_dynamic17unshare_if_shared17hcb7d6c8e9042aa41E>
   16c64:	1088                	addi	a0,sp,96
   16c66:	00004097          	auipc	ra,0x4
   16c6a:	e14080e7          	jalr	-492(ra) # 1aa7a <_ZN9allow_pin12full_dynamic17unshare_if_shared17hcb7d6c8e9042aa41E>
   16c6e:	1088                	addi	a0,sp,96
   16c70:	00004097          	auipc	ra,0x4
   16c74:	e0a080e7          	jalr	-502(ra) # 1aa7a <_ZN9allow_pin12full_dynamic17unshare_if_shared17hcb7d6c8e9042aa41E>
   16c78:	00198513          	addi	a0,s3,1
   16c7c:	04d00613          	li	a2,77
   16c80:	85ca                	mv	a1,s2
   16c82:	00004097          	auipc	ra,0x4
   16c86:	e82080e7          	jalr	-382(ra) # 1ab04 <memcpy>
   16c8a:	4501                	li	a0,0
   16c8c:	b765                	j	16c34 <_ZN20complex_full_dynamic3app17hff550e2da7d3161bE+0xa2>

00016c8e <_start>:
   16c8e:	81010113          	addi	sp,sp,-2032
   16c92:	7e112623          	sw	ra,2028(sp)
   16c96:	7e812423          	sw	s0,2024(sp)
   16c9a:	7e912223          	sw	s1,2020(sp)
   16c9e:	7f212023          	sw	s2,2016(sp)
   16ca2:	7d312e23          	sw	s3,2012(sp)
   16ca6:	7d412c23          	sw	s4,2008(sp)
   16caa:	7d512a23          	sw	s5,2004(sp)
   16cae:	7d612823          	sw	s6,2000(sp)
   16cb2:	80010113          	addi	sp,sp,-2048
   16cb6:	b3010113          	addi	sp,sp,-1232
   16cba:	7ff10a13          	addi	s4,sp,2047
   16cbe:	795a0a13          	addi	s4,s4,1941
   16cc2:	1080                	addi	s0,sp,96
   16cc4:	02800613          	li	a2,40
   16cc8:	8522                	mv	a0,s0
   16cca:	4581                	li	a1,0
   16ccc:	00004097          	auipc	ra,0x4
   16cd0:	dcc080e7          	jalr	-564(ra) # 1aa98 <memset>
   16cd4:	4489                	li	s1,2
   16cd6:	04910e23          	sb	s1,92(sp)
   16cda:	6505                	lui	a0,0x1
   16cdc:	38c50513          	addi	a0,a0,908 # 138c <.Lline_table_start1+0x1161>
   16ce0:	00a10933          	add	s2,sp,a0
   16ce4:	05100613          	li	a2,81
   16ce8:	854a                	mv	a0,s2
   16cea:	4581                	li	a1,0
   16cec:	00004097          	auipc	ra,0x4
   16cf0:	dac080e7          	jalr	-596(ra) # 1aa98 <memset>
   16cf4:	8622                	mv	a2,s0
   16cf6:	3e9a0a23          	sb	s1,1012(s4)
   16cfa:	6789                	lui	a5,0x2
   16cfc:	4425                	li	s0,9
   16cfe:	4811                	li	a6,4
   16d00:	45a5                	li	a1,9
   16d02:	0799                	addi	a5,a5,6 # 2006 <.Lline_table_start1+0x1ddb>
   16d04:	02800693          	li	a3,40
   16d08:	4711                	li	a4,4
   16d0a:	853e                	mv	a0,a5
   16d0c:	00000073          	ecall
   16d10:	04950763          	beq	a0,s1,16d5e <_start+0xd0>
   16d14:	853e                	mv	a0,a5
   16d16:	864a                	mv	a2,s2
   16d18:	cabe                	sw	a5,84(sp)
   16d1a:	cca2                	sw	s0,88(sp)
   16d1c:	05010e23          	sb	a6,92(sp)
   16d20:	480d                	li	a6,3
   16d22:	45a5                	li	a1,9
   16d24:	05100693          	li	a3,81
   16d28:	470d                	li	a4,3
   16d2a:	00000073          	ecall
   16d2e:	02950863          	beq	a0,s1,16d5e <_start+0xd0>
   16d32:	4525                	li	a0,9
   16d34:	6689                	lui	a3,0x2
   16d36:	45a5                	li	a1,9
   16d38:	4625                	li	a2,9
   16d3a:	3efa2623          	sw	a5,1004(s4)
   16d3e:	3eaa2823          	sw	a0,1008(s4)
   16d42:	3f0a0a23          	sb	a6,1012(s4)
   16d46:	00668513          	addi	a0,a3,6 # 2006 <.Lline_table_start1+0x1ddb>
   16d4a:	4709                	li	a4,2
   16d4c:	07f00793          	li	a5,127
   16d50:	4681                	li	a3,0
   16d52:	00000073          	ecall
   16d56:	00a7f463          	bgeu	a5,a0,16d5e <_start+0xd0>
   16d5a:	1f50306f          	j	1a74e <_start+0x3ac0>
   16d5e:	8b2e                	mv	s6,a1
   16d60:	4485                	li	s1,1
   16d62:	6505                	lui	a0,0x1
   16d64:	38050513          	addi	a0,a0,896 # 1380 <.Lline_table_start1+0x1155>
   16d68:	950a                	add	a0,a0,sp
   16d6a:	00004097          	auipc	ra,0x4
   16d6e:	d10080e7          	jalr	-752(ra) # 1aa7a <_ZN9allow_pin12full_dynamic17unshare_if_shared17hcb7d6c8e9042aa41E>
   16d72:	08c8                	addi	a0,sp,84
   16d74:	00004097          	auipc	ra,0x4
   16d78:	d06080e7          	jalr	-762(ra) # 1aa7a <_ZN9allow_pin12full_dynamic17unshare_if_shared17hcb7d6c8e9042aa41E>
   16d7c:	c099                	beqz	s1,16d82 <_start+0xf4>
   16d7e:	19f0306f          	j	1a71c <_start+0x3a8e>
   16d82:	09411503          	lh	a0,148(sp)
   16d86:	09614583          	lbu	a1,150(sp)
   16d8a:	6605                	lui	a2,0x1
   16d8c:	38c60613          	addi	a2,a2,908 # 138c <.Lline_table_start1+0x1161>
   16d90:	00c10933          	add	s2,sp,a2
   16d94:	3eaa1c23          	sh	a0,1016(s4)
   16d98:	3eba0d23          	sb	a1,1018(s4)
   16d9c:	6505                	lui	a0,0x1
   16d9e:	32450513          	addi	a0,a0,804 # 1324 <.Lline_table_start1+0x10f9>
   16da2:	950a                	add	a0,a0,sp
   16da4:	002c                	addi	a1,sp,8
   16da6:	04a00613          	li	a2,74
   16daa:	00004097          	auipc	ra,0x4
   16dae:	d5a080e7          	jalr	-678(ra) # 1ab04 <memcpy>
   16db2:	6505                	lui	a0,0x1
   16db4:	39350513          	addi	a0,a0,915 # 1393 <.Lline_table_start1+0x1168>
   16db8:	950a                	add	a0,a0,sp
   16dba:	6585                	lui	a1,0x1
   16dbc:	32458593          	addi	a1,a1,804 # 1324 <.Lline_table_start1+0x10f9>
   16dc0:	958a                	add	a1,a1,sp
   16dc2:	04a00613          	li	a2,74
   16dc6:	00004097          	auipc	ra,0x4
   16dca:	d3e080e7          	jalr	-706(ra) # 1ab04 <memcpy>
   16dce:	4489                	li	s1,2
   16dd0:	018b5513          	srli	a0,s6,0x18
   16dd4:	010b5593          	srli	a1,s6,0x10
   16dd8:	3eaa0f23          	sb	a0,1022(s4)
   16ddc:	008b5513          	srli	a0,s6,0x8
   16de0:	3e9a0a23          	sb	s1,1012(s4)
   16de4:	3f6a0da3          	sb	s6,1019(s4)
   16de8:	3eaa0e23          	sb	a0,1020(s4)
   16dec:	3eba0ea3          	sb	a1,1021(s4)
   16df0:	6505                	lui	a0,0x1
   16df2:	33050513          	addi	a0,a0,816 # 1330 <.Lline_table_start1+0x1105>
   16df6:	00a109b3          	add	s3,sp,a0
   16dfa:	04600613          	li	a2,70
   16dfe:	854e                	mv	a0,s3
   16e00:	4581                	li	a1,0
   16e02:	00004097          	auipc	ra,0x4
   16e06:	c96080e7          	jalr	-874(ra) # 1aa98 <memset>
   16e0a:	864a                	mv	a2,s2
   16e0c:	389a0c23          	sb	s1,920(s4)
   16e10:	6409                	lui	s0,0x2
   16e12:	481d                	li	a6,7
   16e14:	4891                	li	a7,4
   16e16:	459d                	li	a1,7
   16e18:	0c440793          	addi	a5,s0,196 # 20c4 <.Lline_table_start1+0x1e99>
   16e1c:	05100693          	li	a3,81
   16e20:	4711                	li	a4,4
   16e22:	853e                	mv	a0,a5
   16e24:	00000073          	ecall
   16e28:	04950b63          	beq	a0,s1,16e7e <_start+0x1f0>
   16e2c:	853e                	mv	a0,a5
   16e2e:	4581                	li	a1,0
   16e30:	864e                	mv	a2,s3
   16e32:	0419                	addi	s0,s0,6
   16e34:	478d                	li	a5,3
   16e36:	04600693          	li	a3,70
   16e3a:	0be40413          	addi	s0,s0,190
   16e3e:	3e8a2623          	sw	s0,1004(s4)
   16e42:	3f0a2823          	sw	a6,1008(s4)
   16e46:	3f1a0a23          	sb	a7,1012(s4)
   16e4a:	470d                	li	a4,3
   16e4c:	00000073          	ecall
   16e50:	02950763          	beq	a0,s1,16e7e <_start+0x1f0>
   16e54:	388a2823          	sw	s0,912(s4)
   16e58:	380a2a23          	sw	zero,916(s4)
   16e5c:	38fa0c23          	sb	a5,920(s4)
   16e60:	6509                	lui	a0,0x2
   16e62:	459d                	li	a1,7
   16e64:	0c450513          	addi	a0,a0,196 # 20c4 <.Lline_table_start1+0x1e99>
   16e68:	4709                	li	a4,2
   16e6a:	07f00793          	li	a5,127
   16e6e:	4601                	li	a2,0
   16e70:	4681                	li	a3,0
   16e72:	00000073          	ecall
   16e76:	00a7f463          	bgeu	a5,a0,16e7e <_start+0x1f0>
   16e7a:	1530306f          	j	1a7cc <_start+0x3b3e>
   16e7e:	8b2e                	mv	s6,a1
   16e80:	4485                	li	s1,1
   16e82:	6505                	lui	a0,0x1
   16e84:	32450513          	addi	a0,a0,804 # 1324 <.Lline_table_start1+0x10f9>
   16e88:	950a                	add	a0,a0,sp
   16e8a:	00004097          	auipc	ra,0x4
   16e8e:	bf0080e7          	jalr	-1040(ra) # 1aa7a <_ZN9allow_pin12full_dynamic17unshare_if_shared17hcb7d6c8e9042aa41E>
   16e92:	6505                	lui	a0,0x1
   16e94:	38050513          	addi	a0,a0,896 # 1380 <.Lline_table_start1+0x1155>
   16e98:	950a                	add	a0,a0,sp
   16e9a:	00004097          	auipc	ra,0x4
   16e9e:	be0080e7          	jalr	-1056(ra) # 1aa7a <_ZN9allow_pin12full_dynamic17unshare_if_shared17hcb7d6c8e9042aa41E>
   16ea2:	c099                	beqz	s1,16ea8 <_start+0x21a>
   16ea4:	0790306f          	j	1a71c <_start+0x3a8e>
   16ea8:	09411503          	lh	a0,148(sp)
   16eac:	09614583          	lbu	a1,150(sp)
   16eb0:	6605                	lui	a2,0x1
   16eb2:	38c60613          	addi	a2,a2,908 # 138c <.Lline_table_start1+0x1161>
   16eb6:	00c10933          	add	s2,sp,a2
   16eba:	3eaa1c23          	sh	a0,1016(s4)
   16ebe:	3eba0d23          	sb	a1,1018(s4)
   16ec2:	0028                	addi	a0,sp,8
   16ec4:	08cc                	addi	a1,sp,84
   16ec6:	03f00613          	li	a2,63
   16eca:	00004097          	auipc	ra,0x4
   16ece:	c3a080e7          	jalr	-966(ra) # 1ab04 <memcpy>
   16ed2:	6505                	lui	a0,0x1
   16ed4:	39350513          	addi	a0,a0,915 # 1393 <.Lline_table_start1+0x1168>
   16ed8:	950a                	add	a0,a0,sp
   16eda:	002c                	addi	a1,sp,8
   16edc:	03f00613          	li	a2,63
   16ee0:	00004097          	auipc	ra,0x4
   16ee4:	c24080e7          	jalr	-988(ra) # 1ab04 <memcpy>
   16ee8:	4489                	li	s1,2
   16eea:	018b5513          	srli	a0,s6,0x18
   16eee:	010b5593          	srli	a1,s6,0x10
   16ef2:	3eaa0f23          	sb	a0,1022(s4)
   16ef6:	008b5513          	srli	a0,s6,0x8
   16efa:	3e9a0a23          	sb	s1,1012(s4)
   16efe:	3f6a0da3          	sb	s6,1019(s4)
   16f02:	3eaa0e23          	sb	a0,1020(s4)
   16f06:	3eba0ea3          	sb	a1,1021(s4)
   16f0a:	4661                	li	a2,24
   16f0c:	854e                	mv	a0,s3
   16f0e:	4581                	li	a1,0
   16f10:	00004097          	auipc	ra,0x4
   16f14:	b88080e7          	jalr	-1144(ra) # 1aa98 <memset>
   16f18:	864a                	mv	a2,s2
   16f1a:	389a0c23          	sb	s1,920(s4)
   16f1e:	6409                	lui	s0,0x2
   16f20:	480d                	li	a6,3
   16f22:	4891                	li	a7,4
   16f24:	458d                	li	a1,3
   16f26:	3cf40793          	addi	a5,s0,975 # 23cf <.Lline_table_start1+0x21a4>
   16f2a:	04600693          	li	a3,70
   16f2e:	4711                	li	a4,4
   16f30:	853e                	mv	a0,a5
   16f32:	00000073          	ecall
   16f36:	04950b63          	beq	a0,s1,16f8c <_start+0x2fe>
   16f3a:	0419                	addi	s0,s0,6
   16f3c:	4589                	li	a1,2
   16f3e:	46e1                	li	a3,24
   16f40:	3c940293          	addi	t0,s0,969
   16f44:	3e5a2623          	sw	t0,1004(s4)
   16f48:	3f0a2823          	sw	a6,1008(s4)
   16f4c:	3f1a0a23          	sb	a7,1012(s4)
   16f50:	470d                	li	a4,3
   16f52:	853e                	mv	a0,a5
   16f54:	864e                	mv	a2,s3
   16f56:	00000073          	ecall
   16f5a:	02950963          	beq	a0,s1,16f8c <_start+0x2fe>
   16f5e:	4509                	li	a0,2
   16f60:	468d                	li	a3,3
   16f62:	6709                	lui	a4,0x2
   16f64:	458d                	li	a1,3
   16f66:	4609                	li	a2,2
   16f68:	385a2823          	sw	t0,912(s4)
   16f6c:	38aa2a23          	sw	a0,916(s4)
   16f70:	38da0c23          	sb	a3,920(s4)
   16f74:	3cf70513          	addi	a0,a4,975 # 23cf <.Lline_table_start1+0x21a4>
   16f78:	4709                	li	a4,2
   16f7a:	07f00793          	li	a5,127
   16f7e:	4681                	li	a3,0
   16f80:	00000073          	ecall
   16f84:	00a7f463          	bgeu	a5,a0,16f8c <_start+0x2fe>
   16f88:	0c90306f          	j	1a850 <_start+0x3bc2>
   16f8c:	8b2e                	mv	s6,a1
   16f8e:	4485                	li	s1,1
   16f90:	6505                	lui	a0,0x1
   16f92:	32450513          	addi	a0,a0,804 # 1324 <.Lline_table_start1+0x10f9>
   16f96:	950a                	add	a0,a0,sp
   16f98:	00004097          	auipc	ra,0x4
   16f9c:	ae2080e7          	jalr	-1310(ra) # 1aa7a <_ZN9allow_pin12full_dynamic17unshare_if_shared17hcb7d6c8e9042aa41E>
   16fa0:	6505                	lui	a0,0x1
   16fa2:	38050513          	addi	a0,a0,896 # 1380 <.Lline_table_start1+0x1155>
   16fa6:	950a                	add	a0,a0,sp
   16fa8:	00004097          	auipc	ra,0x4
   16fac:	ad2080e7          	jalr	-1326(ra) # 1aa7a <_ZN9allow_pin12full_dynamic17unshare_if_shared17hcb7d6c8e9042aa41E>
   16fb0:	c099                	beqz	s1,16fb6 <_start+0x328>
   16fb2:	76a0306f          	j	1a71c <_start+0x3a8e>
   16fb6:	0a811503          	lh	a0,168(sp)
   16fba:	0aa14583          	lbu	a1,170(sp)
   16fbe:	06010a93          	addi	s5,sp,96
   16fc2:	06a11023          	sh	a0,96(sp)
   16fc6:	06b10123          	sb	a1,98(sp)
   16fca:	0028                	addi	a0,sp,8
   16fcc:	094c                	addi	a1,sp,148
   16fce:	4645                	li	a2,17
   16fd0:	00004097          	auipc	ra,0x4
   16fd4:	b34080e7          	jalr	-1228(ra) # 1ab04 <memcpy>
   16fd8:	06710513          	addi	a0,sp,103
   16fdc:	002c                	addi	a1,sp,8
   16fde:	4645                	li	a2,17
   16fe0:	00004097          	auipc	ra,0x4
   16fe4:	b24080e7          	jalr	-1244(ra) # 1ab04 <memcpy>
   16fe8:	4489                	li	s1,2
   16fea:	018b5513          	srli	a0,s6,0x18
   16fee:	010b5593          	srli	a1,s6,0x10
   16ff2:	06a10323          	sb	a0,102(sp)
   16ff6:	008b5513          	srli	a0,s6,0x8
   16ffa:	04910e23          	sb	s1,92(sp)
   16ffe:	076101a3          	sb	s6,99(sp)
   17002:	06a10223          	sb	a0,100(sp)
   17006:	06b102a3          	sb	a1,101(sp)
   1700a:	03600613          	li	a2,54
   1700e:	854a                	mv	a0,s2
   17010:	4581                	li	a1,0
   17012:	00004097          	auipc	ra,0x4
   17016:	a86080e7          	jalr	-1402(ra) # 1aa98 <memset>
   1701a:	4581                	li	a1,0
   1701c:	8656                	mv	a2,s5
   1701e:	3e9a0a23          	sb	s1,1012(s4)
   17022:	21f00413          	li	s0,543
   17026:	4791                	li	a5,4
   17028:	21f00513          	li	a0,543
   1702c:	46e1                	li	a3,24
   1702e:	4711                	li	a4,4
   17030:	00000073          	ecall
   17034:	04950963          	beq	a0,s1,17086 <_start+0x3f8>
   17038:	864a                	mv	a2,s2
   1703a:	caa2                	sw	s0,84(sp)
   1703c:	cc82                	sw	zero,88(sp)
   1703e:	04f10e23          	sb	a5,92(sp)
   17042:	479d                	li	a5,7
   17044:	480d                	li	a6,3
   17046:	21f00513          	li	a0,543
   1704a:	459d                	li	a1,7
   1704c:	03600693          	li	a3,54
   17050:	470d                	li	a4,3
   17052:	00000073          	ecall
   17056:	02950863          	beq	a0,s1,17086 <_start+0x3f8>
   1705a:	21f00593          	li	a1,543
   1705e:	21f00513          	li	a0,543
   17062:	461d                	li	a2,7
   17064:	4709                	li	a4,2
   17066:	07f00493          	li	s1,127
   1706a:	3eba2623          	sw	a1,1004(s4)
   1706e:	3efa2823          	sw	a5,1008(s4)
   17072:	3f0a0a23          	sb	a6,1012(s4)
   17076:	4581                	li	a1,0
   17078:	4681                	li	a3,0
   1707a:	00000073          	ecall
   1707e:	00a4f463          	bgeu	s1,a0,17086 <_start+0x3f8>
   17082:	0510306f          	j	1a8d2 <_start+0x3c44>
   17086:	8b2e                	mv	s6,a1
   17088:	4485                	li	s1,1
   1708a:	6505                	lui	a0,0x1
   1708c:	38050513          	addi	a0,a0,896 # 1380 <.Lline_table_start1+0x1155>
   17090:	950a                	add	a0,a0,sp
   17092:	00004097          	auipc	ra,0x4
   17096:	9e8080e7          	jalr	-1560(ra) # 1aa7a <_ZN9allow_pin12full_dynamic17unshare_if_shared17hcb7d6c8e9042aa41E>
   1709a:	08c8                	addi	a0,sp,84
   1709c:	00004097          	auipc	ra,0x4
   170a0:	9de080e7          	jalr	-1570(ra) # 1aa7a <_ZN9allow_pin12full_dynamic17unshare_if_shared17hcb7d6c8e9042aa41E>
   170a4:	c099                	beqz	s1,170aa <_start+0x41c>
   170a6:	6760306f          	j	1a71c <_start+0x3a8e>
   170aa:	09411503          	lh	a0,148(sp)
   170ae:	09614583          	lbu	a1,150(sp)
   170b2:	6605                	lui	a2,0x1
   170b4:	38c60613          	addi	a2,a2,908 # 138c <.Lline_table_start1+0x1161>
   170b8:	00c10933          	add	s2,sp,a2
   170bc:	3eaa1c23          	sh	a0,1016(s4)
   170c0:	3eba0d23          	sb	a1,1018(s4)
   170c4:	6505                	lui	a0,0x1
   170c6:	32450513          	addi	a0,a0,804 # 1324 <.Lline_table_start1+0x10f9>
   170ca:	950a                	add	a0,a0,sp
   170cc:	002c                	addi	a1,sp,8
   170ce:	02f00613          	li	a2,47
   170d2:	00004097          	auipc	ra,0x4
   170d6:	a32080e7          	jalr	-1486(ra) # 1ab04 <memcpy>
   170da:	6505                	lui	a0,0x1
   170dc:	39350513          	addi	a0,a0,915 # 1393 <.Lline_table_start1+0x1168>
   170e0:	950a                	add	a0,a0,sp
   170e2:	6585                	lui	a1,0x1
   170e4:	32458593          	addi	a1,a1,804 # 1324 <.Lline_table_start1+0x10f9>
   170e8:	958a                	add	a1,a1,sp
   170ea:	02f00613          	li	a2,47
   170ee:	00004097          	auipc	ra,0x4
   170f2:	a16080e7          	jalr	-1514(ra) # 1ab04 <memcpy>
   170f6:	4489                	li	s1,2
   170f8:	018b5513          	srli	a0,s6,0x18
   170fc:	010b5593          	srli	a1,s6,0x10
   17100:	3eaa0f23          	sb	a0,1022(s4)
   17104:	008b5513          	srli	a0,s6,0x8
   17108:	3e9a0a23          	sb	s1,1012(s4)
   1710c:	3f6a0da3          	sb	s6,1019(s4)
   17110:	3eaa0e23          	sb	a0,1020(s4)
   17114:	3eba0ea3          	sb	a1,1021(s4)
   17118:	02500613          	li	a2,37
   1711c:	854e                	mv	a0,s3
   1711e:	4581                	li	a1,0
   17120:	00004097          	auipc	ra,0x4
   17124:	978080e7          	jalr	-1672(ra) # 1aa98 <memset>
   17128:	864a                	mv	a2,s2
   1712a:	389a0c23          	sb	s1,920(s4)
   1712e:	6505                	lui	a0,0x1
   17130:	441d                	li	s0,7
   17132:	4811                	li	a6,4
   17134:	459d                	li	a1,7
   17136:	59750793          	addi	a5,a0,1431 # 1597 <.Lline_table_start1+0x136c>
   1713a:	03600693          	li	a3,54
   1713e:	4711                	li	a4,4
   17140:	853e                	mv	a0,a5
   17142:	00000073          	ecall
   17146:	04950863          	beq	a0,s1,17196 <_start+0x508>
   1714a:	853e                	mv	a0,a5
   1714c:	4581                	li	a1,0
   1714e:	864e                	mv	a2,s3
   17150:	3efa2623          	sw	a5,1004(s4)
   17154:	3e8a2823          	sw	s0,1008(s4)
   17158:	3f0a0a23          	sb	a6,1012(s4)
   1715c:	440d                	li	s0,3
   1715e:	02500693          	li	a3,37
   17162:	470d                	li	a4,3
   17164:	00000073          	ecall
   17168:	02950763          	beq	a0,s1,17196 <_start+0x508>
   1716c:	38fa2823          	sw	a5,912(s4)
   17170:	380a2a23          	sw	zero,916(s4)
   17174:	388a0c23          	sb	s0,920(s4)
   17178:	6505                	lui	a0,0x1
   1717a:	459d                	li	a1,7
   1717c:	59750513          	addi	a0,a0,1431 # 1597 <.Lline_table_start1+0x136c>
   17180:	4709                	li	a4,2
   17182:	07f00793          	li	a5,127
   17186:	4601                	li	a2,0
   17188:	4681                	li	a3,0
   1718a:	00000073          	ecall
   1718e:	00a7f463          	bgeu	a5,a0,17196 <_start+0x508>
   17192:	7be0306f          	j	1a950 <_start+0x3cc2>
   17196:	8b2e                	mv	s6,a1
   17198:	4485                	li	s1,1
   1719a:	6505                	lui	a0,0x1
   1719c:	32450513          	addi	a0,a0,804 # 1324 <.Lline_table_start1+0x10f9>
   171a0:	950a                	add	a0,a0,sp
   171a2:	00004097          	auipc	ra,0x4
   171a6:	8d8080e7          	jalr	-1832(ra) # 1aa7a <_ZN9allow_pin12full_dynamic17unshare_if_shared17hcb7d6c8e9042aa41E>
   171aa:	6505                	lui	a0,0x1
   171ac:	38050513          	addi	a0,a0,896 # 1380 <.Lline_table_start1+0x1155>
   171b0:	950a                	add	a0,a0,sp
   171b2:	00004097          	auipc	ra,0x4
   171b6:	8c8080e7          	jalr	-1848(ra) # 1aa7a <_ZN9allow_pin12full_dynamic17unshare_if_shared17hcb7d6c8e9042aa41E>
   171ba:	c099                	beqz	s1,171c0 <_start+0x532>
   171bc:	5600306f          	j	1a71c <_start+0x3a8e>
   171c0:	09411503          	lh	a0,148(sp)
   171c4:	09614583          	lbu	a1,150(sp)
   171c8:	6605                	lui	a2,0x1
   171ca:	38c60613          	addi	a2,a2,908 # 138c <.Lline_table_start1+0x1161>
   171ce:	00c104b3          	add	s1,sp,a2
   171d2:	3eaa1c23          	sh	a0,1016(s4)
   171d6:	3eba0d23          	sb	a1,1018(s4)
   171da:	0028                	addi	a0,sp,8
   171dc:	08cc                	addi	a1,sp,84
   171de:	4679                	li	a2,30
   171e0:	00004097          	auipc	ra,0x4
   171e4:	924080e7          	jalr	-1756(ra) # 1ab04 <memcpy>
   171e8:	6505                	lui	a0,0x1
   171ea:	39350513          	addi	a0,a0,915 # 1393 <.Lline_table_start1+0x1168>
   171ee:	950a                	add	a0,a0,sp
   171f0:	002c                	addi	a1,sp,8
   171f2:	4679                	li	a2,30
   171f4:	00004097          	auipc	ra,0x4
   171f8:	910080e7          	jalr	-1776(ra) # 1ab04 <memcpy>
   171fc:	8626                	mv	a2,s1
   171fe:	4789                	li	a5,2
   17200:	018b5693          	srli	a3,s6,0x18
   17204:	010b5713          	srli	a4,s6,0x10
   17208:	008b5413          	srli	s0,s6,0x8
   1720c:	3a0a1423          	sh	zero,936(s4)
   17210:	66700493          	li	s1,1639
   17214:	4811                	li	a6,4
   17216:	66700513          	li	a0,1639
   1721a:	4589                	li	a1,2
   1721c:	3eda0f23          	sb	a3,1022(s4)
   17220:	02500693          	li	a3,37
   17224:	3efa0a23          	sb	a5,1012(s4)
   17228:	3f6a0da3          	sb	s6,1019(s4)
   1722c:	3e8a0e23          	sb	s0,1020(s4)
   17230:	3eea0ea3          	sb	a4,1021(s4)
   17234:	38fa0c23          	sb	a5,920(s4)
   17238:	380a2e23          	sw	zero,924(s4)
   1723c:	3a0a2023          	sw	zero,928(s4)
   17240:	3a0a2223          	sw	zero,932(s4)
   17244:	4711                	li	a4,4
   17246:	00000073          	ecall
   1724a:	04f50a63          	beq	a0,a5,1729e <_start+0x610>
   1724e:	864e                	mv	a2,s3
   17250:	3e9a2623          	sw	s1,1004(s4)
   17254:	3efa2823          	sw	a5,1008(s4)
   17258:	3f0a0a23          	sb	a6,1012(s4)
   1725c:	44a1                	li	s1,8
   1725e:	480d                	li	a6,3
   17260:	66700513          	li	a0,1639
   17264:	45a1                	li	a1,8
   17266:	46b9                	li	a3,14
   17268:	470d                	li	a4,3
   1726a:	00000073          	ecall
   1726e:	02f50863          	beq	a0,a5,1729e <_start+0x610>
   17272:	66700693          	li	a3,1639
   17276:	66700513          	li	a0,1639
   1727a:	4589                	li	a1,2
   1727c:	4621                	li	a2,8
   1727e:	4709                	li	a4,2
   17280:	07f00793          	li	a5,127
   17284:	38da2823          	sw	a3,912(s4)
   17288:	389a2a23          	sw	s1,916(s4)
   1728c:	390a0c23          	sb	a6,920(s4)
   17290:	4681                	li	a3,0
   17292:	00000073          	ecall
   17296:	00a7f463          	bgeu	a5,a0,1729e <_start+0x610>
   1729a:	7380306f          	j	1a9d2 <_start+0x3d44>
   1729e:	8b2e                	mv	s6,a1
   172a0:	4485                	li	s1,1
   172a2:	6505                	lui	a0,0x1
   172a4:	32450513          	addi	a0,a0,804 # 1324 <.Lline_table_start1+0x10f9>
   172a8:	950a                	add	a0,a0,sp
   172aa:	00003097          	auipc	ra,0x3
   172ae:	7d0080e7          	jalr	2000(ra) # 1aa7a <_ZN9allow_pin12full_dynamic17unshare_if_shared17hcb7d6c8e9042aa41E>
   172b2:	6505                	lui	a0,0x1
   172b4:	38050513          	addi	a0,a0,896 # 1380 <.Lline_table_start1+0x1155>
   172b8:	950a                	add	a0,a0,sp
   172ba:	00003097          	auipc	ra,0x3
   172be:	7c0080e7          	jalr	1984(ra) # 1aa7a <_ZN9allow_pin12full_dynamic17unshare_if_shared17hcb7d6c8e9042aa41E>
   172c2:	c099                	beqz	s1,172c8 <_start+0x63a>
   172c4:	4580306f          	j	1a71c <_start+0x3a8e>
   172c8:	4556                	lw	a0,84(sp)
   172ca:	05811583          	lh	a1,88(sp)
   172ce:	05a14603          	lbu	a2,90(sp)
   172d2:	018b5693          	srli	a3,s6,0x18
   172d6:	010b5713          	srli	a4,s6,0x10
   172da:	0ae108a3          	sb	a4,177(sp)
   172de:	0ad10923          	sb	a3,178(sp)
   172e2:	09411683          	lh	a3,148(sp)
   172e6:	09614703          	lbu	a4,150(sp)
   172ea:	c42a                	sw	a0,8(sp)
   172ec:	00b11623          	sh	a1,12(sp)
   172f0:	00c10723          	sb	a2,14(sp)
   172f4:	008b5513          	srli	a0,s6,0x8
   172f8:	0ad11623          	sh	a3,172(sp)
   172fc:	0ae10723          	sb	a4,174(sp)
   17300:	0b6107a3          	sb	s6,175(sp)
   17304:	0aa10823          	sb	a0,176(sp)
   17308:	0b310513          	addi	a0,sp,179
   1730c:	002c                	addi	a1,sp,8
   1730e:	461d                	li	a2,7
   17310:	00003097          	auipc	ra,0x3
   17314:	7f4080e7          	jalr	2036(ra) # 1ab04 <memcpy>
   17318:	6505                	lui	a0,0x1
   1731a:	38050513          	addi	a0,a0,896 # 1380 <.Lline_table_start1+0x1155>
   1731e:	950a                	add	a0,a0,sp
   17320:	116c                	addi	a1,sp,172
   17322:	ffffd097          	auipc	ra,0xffffd
   17326:	bb6080e7          	jalr	-1098(ra) # 13ed8 <_ZN20complex_full_dynamic3app17h7d6af46f7da52687E>
   1732a:	3eca4503          	lbu	a0,1004(s4)
   1732e:	c119                	beqz	a0,17334 <_start+0x6a6>
   17330:	3e80306f          	j	1a718 <_start+0x3a8a>
   17334:	3eea4503          	lbu	a0,1006(s4)
   17338:	3eda4583          	lbu	a1,1005(s4)
   1733c:	3efa4603          	lbu	a2,1007(s4)
   17340:	3f0a2403          	lw	s0,1008(s4)
   17344:	0522                	slli	a0,a0,0x8
   17346:	8d4d                	or	a0,a0,a1
   17348:	0aa11d23          	sh	a0,186(sp)
   1734c:	0ac10e23          	sb	a2,188(sp)
   17350:	6505                	lui	a0,0x1
   17352:	38850513          	addi	a0,a0,904 # 1388 <.Lline_table_start1+0x115d>
   17356:	00a105b3          	add	a1,sp,a0
   1735a:	6505                	lui	a0,0x1
   1735c:	32450513          	addi	a0,a0,804 # 1324 <.Lline_table_start1+0x10f9>
   17360:	950a                	add	a0,a0,sp
   17362:	04100613          	li	a2,65
   17366:	00003097          	auipc	ra,0x3
   1736a:	79e080e7          	jalr	1950(ra) # 1ab04 <memcpy>
   1736e:	01845513          	srli	a0,s0,0x18
   17372:	01045593          	srli	a1,s0,0x10
   17376:	00845613          	srli	a2,s0,0x8
   1737a:	0a810ea3          	sb	s0,189(sp)
   1737e:	0ac10f23          	sb	a2,190(sp)
   17382:	0ab10fa3          	sb	a1,191(sp)
   17386:	0ca10023          	sb	a0,192(sp)
   1738a:	0c110513          	addi	a0,sp,193
   1738e:	6585                	lui	a1,0x1
   17390:	32458593          	addi	a1,a1,804 # 1324 <.Lline_table_start1+0x10f9>
   17394:	958a                	add	a1,a1,sp
   17396:	04100613          	li	a2,65
   1739a:	00003097          	auipc	ra,0x3
   1739e:	76a080e7          	jalr	1898(ra) # 1ab04 <memcpy>
   173a2:	6505                	lui	a0,0x1
   173a4:	38050513          	addi	a0,a0,896 # 1380 <.Lline_table_start1+0x1155>
   173a8:	950a                	add	a0,a0,sp
   173aa:	0ba10593          	addi	a1,sp,186
   173ae:	ffffd097          	auipc	ra,0xffffd
   173b2:	3f0080e7          	jalr	1008(ra) # 1479e <_ZN20complex_full_dynamic3app17h8bb8cb896ccb7baaE>
   173b6:	3eca4503          	lbu	a0,1004(s4)
   173ba:	c119                	beqz	a0,173c0 <_start+0x732>
   173bc:	35c0306f          	j	1a718 <_start+0x3a8a>
   173c0:	3eda4503          	lbu	a0,1005(s4)
   173c4:	3eea4583          	lbu	a1,1006(s4)
   173c8:	3efa4803          	lbu	a6,1007(s4)
   173cc:	3f0a2683          	lw	a3,1008(s4)
   173d0:	3f4a2703          	lw	a4,1012(s4)
   173d4:	3f8a2783          	lw	a5,1016(s4)
   173d8:	05a2                	slli	a1,a1,0x8
   173da:	0186d893          	srli	a7,a3,0x18
   173de:	0106d293          	srli	t0,a3,0x10
   173e2:	0187d613          	srli	a2,a5,0x18
   173e6:	0107d493          	srli	s1,a5,0x10
   173ea:	0087d413          	srli	s0,a5,0x8
   173ee:	8d4d                	or	a0,a0,a1
   173f0:	01875593          	srli	a1,a4,0x18
   173f4:	109107a3          	sb	s1,271(sp)
   173f8:	10c10823          	sb	a2,272(sp)
   173fc:	01075613          	srli	a2,a4,0x10
   17400:	10c105a3          	sb	a2,267(sp)
   17404:	10b10623          	sb	a1,268(sp)
   17408:	10f106a3          	sb	a5,269(sp)
   1740c:	10810723          	sb	s0,270(sp)
   17410:	0086d593          	srli	a1,a3,0x8
   17414:	10a11123          	sh	a0,258(sp)
   17418:	11010223          	sb	a6,260(sp)
   1741c:	10d102a3          	sb	a3,261(sp)
   17420:	10b10323          	sb	a1,262(sp)
   17424:	00875513          	srli	a0,a4,0x8
   17428:	105103a3          	sb	t0,263(sp)
   1742c:	11110423          	sb	a7,264(sp)
   17430:	10e104a3          	sb	a4,265(sp)
   17434:	10a10523          	sb	a0,266(sp)
   17438:	6505                	lui	a0,0x1
   1743a:	38050513          	addi	a0,a0,896 # 1380 <.Lline_table_start1+0x1155>
   1743e:	950a                	add	a0,a0,sp
   17440:	10210593          	addi	a1,sp,258
   17444:	ffffb097          	auipc	ra,0xffffb
   17448:	e72080e7          	jalr	-398(ra) # 122b6 <_ZN20complex_full_dynamic3app17h2a412a8f58b30e46E>
   1744c:	3eca4503          	lbu	a0,1004(s4)
   17450:	c119                	beqz	a0,17456 <_start+0x7c8>
   17452:	2c60306f          	j	1a718 <_start+0x3a8a>
   17456:	3eea4503          	lbu	a0,1006(s4)
   1745a:	3eda4583          	lbu	a1,1005(s4)
   1745e:	3efa4603          	lbu	a2,1007(s4)
   17462:	3f0a2403          	lw	s0,1008(s4)
   17466:	0522                	slli	a0,a0,0x8
   17468:	8d4d                	or	a0,a0,a1
   1746a:	10a11923          	sh	a0,274(sp)
   1746e:	10c10a23          	sb	a2,276(sp)
   17472:	6505                	lui	a0,0x1
   17474:	38850513          	addi	a0,a0,904 # 1388 <.Lline_table_start1+0x115d>
   17478:	00a105b3          	add	a1,sp,a0
   1747c:	6505                	lui	a0,0x1
   1747e:	32450513          	addi	a0,a0,804 # 1324 <.Lline_table_start1+0x10f9>
   17482:	950a                	add	a0,a0,sp
   17484:	4679                	li	a2,30
   17486:	00003097          	auipc	ra,0x3
   1748a:	67e080e7          	jalr	1662(ra) # 1ab04 <memcpy>
   1748e:	01845513          	srli	a0,s0,0x18
   17492:	01045593          	srli	a1,s0,0x10
   17496:	00845613          	srli	a2,s0,0x8
   1749a:	10810aa3          	sb	s0,277(sp)
   1749e:	10c10b23          	sb	a2,278(sp)
   174a2:	10b10ba3          	sb	a1,279(sp)
   174a6:	10a10c23          	sb	a0,280(sp)
   174aa:	11910513          	addi	a0,sp,281
   174ae:	6585                	lui	a1,0x1
   174b0:	32458593          	addi	a1,a1,804 # 1324 <.Lline_table_start1+0x10f9>
   174b4:	958a                	add	a1,a1,sp
   174b6:	4679                	li	a2,30
   174b8:	00003097          	auipc	ra,0x3
   174bc:	64c080e7          	jalr	1612(ra) # 1ab04 <memcpy>
   174c0:	6505                	lui	a0,0x1
   174c2:	38050513          	addi	a0,a0,896 # 1380 <.Lline_table_start1+0x1155>
   174c6:	950a                	add	a0,a0,sp
   174c8:	11210593          	addi	a1,sp,274
   174cc:	ffffd097          	auipc	ra,0xffffd
   174d0:	fe4080e7          	jalr	-28(ra) # 144b0 <_ZN20complex_full_dynamic3app17h8010728e547742aeE>
   174d4:	3eca4503          	lbu	a0,1004(s4)
   174d8:	c119                	beqz	a0,174de <_start+0x850>
   174da:	23e0306f          	j	1a718 <_start+0x3a8a>
   174de:	3eea4503          	lbu	a0,1006(s4)
   174e2:	3eda4583          	lbu	a1,1005(s4)
   174e6:	3efa4603          	lbu	a2,1007(s4)
   174ea:	3f0a2403          	lw	s0,1008(s4)
   174ee:	0522                	slli	a0,a0,0x8
   174f0:	8d4d                	or	a0,a0,a1
   174f2:	12a11c23          	sh	a0,312(sp)
   174f6:	12c10d23          	sb	a2,314(sp)
   174fa:	6505                	lui	a0,0x1
   174fc:	38850513          	addi	a0,a0,904 # 1388 <.Lline_table_start1+0x115d>
   17500:	00a105b3          	add	a1,sp,a0
   17504:	6505                	lui	a0,0x1
   17506:	32450513          	addi	a0,a0,804 # 1324 <.Lline_table_start1+0x10f9>
   1750a:	950a                	add	a0,a0,sp
   1750c:	02300613          	li	a2,35
   17510:	00003097          	auipc	ra,0x3
   17514:	5f4080e7          	jalr	1524(ra) # 1ab04 <memcpy>
   17518:	01845513          	srli	a0,s0,0x18
   1751c:	01045593          	srli	a1,s0,0x10
   17520:	00845613          	srli	a2,s0,0x8
   17524:	12810da3          	sb	s0,315(sp)
   17528:	12c10e23          	sb	a2,316(sp)
   1752c:	12b10ea3          	sb	a1,317(sp)
   17530:	12a10f23          	sb	a0,318(sp)
   17534:	13f10513          	addi	a0,sp,319
   17538:	6585                	lui	a1,0x1
   1753a:	32458593          	addi	a1,a1,804 # 1324 <.Lline_table_start1+0x10f9>
   1753e:	958a                	add	a1,a1,sp
   17540:	02300613          	li	a2,35
   17544:	00003097          	auipc	ra,0x3
   17548:	5c0080e7          	jalr	1472(ra) # 1ab04 <memcpy>
   1754c:	6505                	lui	a0,0x1
   1754e:	38050513          	addi	a0,a0,896 # 1380 <.Lline_table_start1+0x1155>
   17552:	950a                	add	a0,a0,sp
   17554:	1a2c                	addi	a1,sp,312
   17556:	ffffe097          	auipc	ra,0xffffe
   1755a:	2c4080e7          	jalr	708(ra) # 1581a <_ZN20complex_full_dynamic3app17hbfaa9ca5d9cbf286E>
   1755e:	3eca4503          	lbu	a0,1004(s4)
   17562:	c119                	beqz	a0,17568 <_start+0x8da>
   17564:	1b40306f          	j	1a718 <_start+0x3a8a>
   17568:	3eea4503          	lbu	a0,1006(s4)
   1756c:	3eda4583          	lbu	a1,1005(s4)
   17570:	3efa4603          	lbu	a2,1007(s4)
   17574:	3f0a2403          	lw	s0,1008(s4)
   17578:	0522                	slli	a0,a0,0x8
   1757a:	8d4d                	or	a0,a0,a1
   1757c:	16a11123          	sh	a0,354(sp)
   17580:	16c10223          	sb	a2,356(sp)
   17584:	6505                	lui	a0,0x1
   17586:	38850513          	addi	a0,a0,904 # 1388 <.Lline_table_start1+0x115d>
   1758a:	00a105b3          	add	a1,sp,a0
   1758e:	6505                	lui	a0,0x1
   17590:	32450513          	addi	a0,a0,804 # 1324 <.Lline_table_start1+0x10f9>
   17594:	950a                	add	a0,a0,sp
   17596:	05c00613          	li	a2,92
   1759a:	00003097          	auipc	ra,0x3
   1759e:	56a080e7          	jalr	1386(ra) # 1ab04 <memcpy>
   175a2:	01845513          	srli	a0,s0,0x18
   175a6:	01045593          	srli	a1,s0,0x10
   175aa:	00845613          	srli	a2,s0,0x8
   175ae:	168102a3          	sb	s0,357(sp)
   175b2:	16c10323          	sb	a2,358(sp)
   175b6:	16b103a3          	sb	a1,359(sp)
   175ba:	16a10423          	sb	a0,360(sp)
   175be:	16910513          	addi	a0,sp,361
   175c2:	6585                	lui	a1,0x1
   175c4:	32458593          	addi	a1,a1,804 # 1324 <.Lline_table_start1+0x10f9>
   175c8:	958a                	add	a1,a1,sp
   175ca:	05c00613          	li	a2,92
   175ce:	00003097          	auipc	ra,0x3
   175d2:	536080e7          	jalr	1334(ra) # 1ab04 <memcpy>
   175d6:	6505                	lui	a0,0x1
   175d8:	38050513          	addi	a0,a0,896 # 1380 <.Lline_table_start1+0x1155>
   175dc:	950a                	add	a0,a0,sp
   175de:	16210593          	addi	a1,sp,354
   175e2:	ffffa097          	auipc	ra,0xffffa
   175e6:	d44080e7          	jalr	-700(ra) # 11326 <_ZN20complex_full_dynamic3app17h0304ed24111fe479E>
   175ea:	3eca4503          	lbu	a0,1004(s4)
   175ee:	c119                	beqz	a0,175f4 <_start+0x966>
   175f0:	1280306f          	j	1a718 <_start+0x3a8a>
   175f4:	3eea4503          	lbu	a0,1006(s4)
   175f8:	3eda4583          	lbu	a1,1005(s4)
   175fc:	3efa4603          	lbu	a2,1007(s4)
   17600:	3f0a2403          	lw	s0,1008(s4)
   17604:	0522                	slli	a0,a0,0x8
   17606:	8d4d                	or	a0,a0,a1
   17608:	1ca11323          	sh	a0,454(sp)
   1760c:	1cc10423          	sb	a2,456(sp)
   17610:	6505                	lui	a0,0x1
   17612:	38850513          	addi	a0,a0,904 # 1388 <.Lline_table_start1+0x115d>
   17616:	00a105b3          	add	a1,sp,a0
   1761a:	6505                	lui	a0,0x1
   1761c:	32450513          	addi	a0,a0,804 # 1324 <.Lline_table_start1+0x10f9>
   17620:	950a                	add	a0,a0,sp
   17622:	02000613          	li	a2,32
   17626:	00003097          	auipc	ra,0x3
   1762a:	4de080e7          	jalr	1246(ra) # 1ab04 <memcpy>
   1762e:	01845513          	srli	a0,s0,0x18
   17632:	01045593          	srli	a1,s0,0x10
   17636:	00845613          	srli	a2,s0,0x8
   1763a:	1c8104a3          	sb	s0,457(sp)
   1763e:	1cc10523          	sb	a2,458(sp)
   17642:	1cb105a3          	sb	a1,459(sp)
   17646:	1ca10623          	sb	a0,460(sp)
   1764a:	1cd10513          	addi	a0,sp,461
   1764e:	6585                	lui	a1,0x1
   17650:	32458593          	addi	a1,a1,804 # 1324 <.Lline_table_start1+0x10f9>
   17654:	958a                	add	a1,a1,sp
   17656:	02000613          	li	a2,32
   1765a:	00003097          	auipc	ra,0x3
   1765e:	4aa080e7          	jalr	1194(ra) # 1ab04 <memcpy>
   17662:	6505                	lui	a0,0x1
   17664:	38050513          	addi	a0,a0,896 # 1380 <.Lline_table_start1+0x1155>
   17668:	950a                	add	a0,a0,sp
   1766a:	1c610593          	addi	a1,sp,454
   1766e:	ffffc097          	auipc	ra,0xffffc
   17672:	cba080e7          	jalr	-838(ra) # 13328 <_ZN20complex_full_dynamic3app17h5be40c835ca2c2d4E>
   17676:	3eca4503          	lbu	a0,1004(s4)
   1767a:	c119                	beqz	a0,17680 <_start+0x9f2>
   1767c:	09c0306f          	j	1a718 <_start+0x3a8a>
   17680:	3eea4503          	lbu	a0,1006(s4)
   17684:	3eda4583          	lbu	a1,1005(s4)
   17688:	3efa4603          	lbu	a2,1007(s4)
   1768c:	3f0a2403          	lw	s0,1008(s4)
   17690:	0522                	slli	a0,a0,0x8
   17692:	8d4d                	or	a0,a0,a1
   17694:	1ea11723          	sh	a0,494(sp)
   17698:	1ec10823          	sb	a2,496(sp)
   1769c:	6505                	lui	a0,0x1
   1769e:	38850513          	addi	a0,a0,904 # 1388 <.Lline_table_start1+0x115d>
   176a2:	00a105b3          	add	a1,sp,a0
   176a6:	6505                	lui	a0,0x1
   176a8:	32450513          	addi	a0,a0,804 # 1324 <.Lline_table_start1+0x10f9>
   176ac:	950a                	add	a0,a0,sp
   176ae:	465d                	li	a2,23
   176b0:	00003097          	auipc	ra,0x3
   176b4:	454080e7          	jalr	1108(ra) # 1ab04 <memcpy>
   176b8:	01845513          	srli	a0,s0,0x18
   176bc:	01045593          	srli	a1,s0,0x10
   176c0:	00845613          	srli	a2,s0,0x8
   176c4:	1e8108a3          	sb	s0,497(sp)
   176c8:	1ec10923          	sb	a2,498(sp)
   176cc:	1eb109a3          	sb	a1,499(sp)
   176d0:	1ea10a23          	sb	a0,500(sp)
   176d4:	1f510513          	addi	a0,sp,501
   176d8:	6585                	lui	a1,0x1
   176da:	32458593          	addi	a1,a1,804 # 1324 <.Lline_table_start1+0x10f9>
   176de:	958a                	add	a1,a1,sp
   176e0:	465d                	li	a2,23
   176e2:	00003097          	auipc	ra,0x3
   176e6:	422080e7          	jalr	1058(ra) # 1ab04 <memcpy>
   176ea:	6505                	lui	a0,0x1
   176ec:	38050513          	addi	a0,a0,896 # 1380 <.Lline_table_start1+0x1155>
   176f0:	950a                	add	a0,a0,sp
   176f2:	1ee10593          	addi	a1,sp,494
   176f6:	ffffe097          	auipc	ra,0xffffe
   176fa:	962080e7          	jalr	-1694(ra) # 15058 <_ZN20complex_full_dynamic3app17ha9b02b1dc056b1c6E>
   176fe:	3eca4503          	lbu	a0,1004(s4)
   17702:	c119                	beqz	a0,17708 <_start+0xa7a>
   17704:	0140306f          	j	1a718 <_start+0x3a8a>
   17708:	3eea4503          	lbu	a0,1006(s4)
   1770c:	3eda4583          	lbu	a1,1005(s4)
   17710:	3efa4603          	lbu	a2,1007(s4)
   17714:	3f0a2403          	lw	s0,1008(s4)
   17718:	0522                	slli	a0,a0,0x8
   1771a:	8d4d                	or	a0,a0,a1
   1771c:	20a11623          	sh	a0,524(sp)
   17720:	20c10723          	sb	a2,526(sp)
   17724:	6505                	lui	a0,0x1
   17726:	38850513          	addi	a0,a0,904 # 1388 <.Lline_table_start1+0x115d>
   1772a:	00a105b3          	add	a1,sp,a0
   1772e:	6505                	lui	a0,0x1
   17730:	32450513          	addi	a0,a0,804 # 1324 <.Lline_table_start1+0x10f9>
   17734:	950a                	add	a0,a0,sp
   17736:	02500613          	li	a2,37
   1773a:	00003097          	auipc	ra,0x3
   1773e:	3ca080e7          	jalr	970(ra) # 1ab04 <memcpy>
   17742:	01845513          	srli	a0,s0,0x18
   17746:	01045593          	srli	a1,s0,0x10
   1774a:	00845613          	srli	a2,s0,0x8
   1774e:	208107a3          	sb	s0,527(sp)
   17752:	20c10823          	sb	a2,528(sp)
   17756:	20b108a3          	sb	a1,529(sp)
   1775a:	20a10923          	sb	a0,530(sp)
   1775e:	21310513          	addi	a0,sp,531
   17762:	6585                	lui	a1,0x1
   17764:	32458593          	addi	a1,a1,804 # 1324 <.Lline_table_start1+0x10f9>
   17768:	958a                	add	a1,a1,sp
   1776a:	02500613          	li	a2,37
   1776e:	00003097          	auipc	ra,0x3
   17772:	396080e7          	jalr	918(ra) # 1ab04 <memcpy>
   17776:	6505                	lui	a0,0x1
   17778:	38050513          	addi	a0,a0,896 # 1380 <.Lline_table_start1+0x1155>
   1777c:	950a                	add	a0,a0,sp
   1777e:	046c                	addi	a1,sp,524
   17780:	ffffa097          	auipc	ra,0xffffa
   17784:	46e080e7          	jalr	1134(ra) # 11bee <_ZN20complex_full_dynamic3app17h1d1c859a3852f99fE>
   17788:	3eca4503          	lbu	a0,1004(s4)
   1778c:	c119                	beqz	a0,17792 <_start+0xb04>
   1778e:	78b0206f          	j	1a718 <_start+0x3a8a>
   17792:	3eea4503          	lbu	a0,1006(s4)
   17796:	3eda4583          	lbu	a1,1005(s4)
   1779a:	3efa4603          	lbu	a2,1007(s4)
   1779e:	3f0a2403          	lw	s0,1008(s4)
   177a2:	0522                	slli	a0,a0,0x8
   177a4:	8d4d                	or	a0,a0,a1
   177a6:	22a11c23          	sh	a0,568(sp)
   177aa:	22c10d23          	sb	a2,570(sp)
   177ae:	6505                	lui	a0,0x1
   177b0:	38850513          	addi	a0,a0,904 # 1388 <.Lline_table_start1+0x115d>
   177b4:	00a105b3          	add	a1,sp,a0
   177b8:	6505                	lui	a0,0x1
   177ba:	32450513          	addi	a0,a0,804 # 1324 <.Lline_table_start1+0x10f9>
   177be:	950a                	add	a0,a0,sp
   177c0:	4679                	li	a2,30
   177c2:	00003097          	auipc	ra,0x3
   177c6:	342080e7          	jalr	834(ra) # 1ab04 <memcpy>
   177ca:	01845513          	srli	a0,s0,0x18
   177ce:	01045593          	srli	a1,s0,0x10
   177d2:	00845613          	srli	a2,s0,0x8
   177d6:	22810da3          	sb	s0,571(sp)
   177da:	22c10e23          	sb	a2,572(sp)
   177de:	22b10ea3          	sb	a1,573(sp)
   177e2:	22a10f23          	sb	a0,574(sp)
   177e6:	23f10513          	addi	a0,sp,575
   177ea:	6585                	lui	a1,0x1
   177ec:	32458593          	addi	a1,a1,804 # 1324 <.Lline_table_start1+0x10f9>
   177f0:	958a                	add	a1,a1,sp
   177f2:	4679                	li	a2,30
   177f4:	00003097          	auipc	ra,0x3
   177f8:	310080e7          	jalr	784(ra) # 1ab04 <memcpy>
   177fc:	6505                	lui	a0,0x1
   177fe:	38050513          	addi	a0,a0,896 # 1380 <.Lline_table_start1+0x1155>
   17802:	950a                	add	a0,a0,sp
   17804:	1c2c                	addi	a1,sp,568
   17806:	ffffb097          	auipc	ra,0xffffb
   1780a:	baa080e7          	jalr	-1110(ra) # 123b0 <_ZN20complex_full_dynamic3app17h2ebe7e36e1cd9100E>
   1780e:	3eca4503          	lbu	a0,1004(s4)
   17812:	c119                	beqz	a0,17818 <_start+0xb8a>
   17814:	7050206f          	j	1a718 <_start+0x3a8a>
   17818:	3eea4503          	lbu	a0,1006(s4)
   1781c:	3eda4583          	lbu	a1,1005(s4)
   17820:	3efa4603          	lbu	a2,1007(s4)
   17824:	3f0a2403          	lw	s0,1008(s4)
   17828:	0522                	slli	a0,a0,0x8
   1782a:	8d4d                	or	a0,a0,a1
   1782c:	24a11f23          	sh	a0,606(sp)
   17830:	26c10023          	sb	a2,608(sp)
   17834:	6505                	lui	a0,0x1
   17836:	38850513          	addi	a0,a0,904 # 1388 <.Lline_table_start1+0x115d>
   1783a:	00a105b3          	add	a1,sp,a0
   1783e:	6505                	lui	a0,0x1
   17840:	32450513          	addi	a0,a0,804 # 1324 <.Lline_table_start1+0x10f9>
   17844:	950a                	add	a0,a0,sp
   17846:	4645                	li	a2,17
   17848:	00003097          	auipc	ra,0x3
   1784c:	2bc080e7          	jalr	700(ra) # 1ab04 <memcpy>
   17850:	01845513          	srli	a0,s0,0x18
   17854:	01045593          	srli	a1,s0,0x10
   17858:	00845613          	srli	a2,s0,0x8
   1785c:	268100a3          	sb	s0,609(sp)
   17860:	26c10123          	sb	a2,610(sp)
   17864:	26b101a3          	sb	a1,611(sp)
   17868:	26a10223          	sb	a0,612(sp)
   1786c:	26510513          	addi	a0,sp,613
   17870:	6585                	lui	a1,0x1
   17872:	32458593          	addi	a1,a1,804 # 1324 <.Lline_table_start1+0x10f9>
   17876:	958a                	add	a1,a1,sp
   17878:	4645                	li	a2,17
   1787a:	00003097          	auipc	ra,0x3
   1787e:	28a080e7          	jalr	650(ra) # 1ab04 <memcpy>
   17882:	6505                	lui	a0,0x1
   17884:	38050513          	addi	a0,a0,896 # 1380 <.Lline_table_start1+0x1155>
   17888:	950a                	add	a0,a0,sp
   1788a:	25e10593          	addi	a1,sp,606
   1788e:	fffff097          	auipc	ra,0xfffff
   17892:	d2c080e7          	jalr	-724(ra) # 165ba <_ZN20complex_full_dynamic3app17hf5a257cc50e3c323E>
   17896:	3eca4503          	lbu	a0,1004(s4)
   1789a:	c119                	beqz	a0,178a0 <_start+0xc12>
   1789c:	67d0206f          	j	1a718 <_start+0x3a8a>
   178a0:	3eea4503          	lbu	a0,1006(s4)
   178a4:	3eda4583          	lbu	a1,1005(s4)
   178a8:	3efa4603          	lbu	a2,1007(s4)
   178ac:	3f0a2403          	lw	s0,1008(s4)
   178b0:	0522                	slli	a0,a0,0x8
   178b2:	8d4d                	or	a0,a0,a1
   178b4:	26a11b23          	sh	a0,630(sp)
   178b8:	26c10c23          	sb	a2,632(sp)
   178bc:	6505                	lui	a0,0x1
   178be:	38850513          	addi	a0,a0,904 # 1388 <.Lline_table_start1+0x115d>
   178c2:	00a105b3          	add	a1,sp,a0
   178c6:	6505                	lui	a0,0x1
   178c8:	32450513          	addi	a0,a0,804 # 1324 <.Lline_table_start1+0x10f9>
   178cc:	950a                	add	a0,a0,sp
   178ce:	02f00613          	li	a2,47
   178d2:	00003097          	auipc	ra,0x3
   178d6:	232080e7          	jalr	562(ra) # 1ab04 <memcpy>
   178da:	01845513          	srli	a0,s0,0x18
   178de:	01045593          	srli	a1,s0,0x10
   178e2:	00845613          	srli	a2,s0,0x8
   178e6:	26810ca3          	sb	s0,633(sp)
   178ea:	26c10d23          	sb	a2,634(sp)
   178ee:	26b10da3          	sb	a1,635(sp)
   178f2:	26a10e23          	sb	a0,636(sp)
   178f6:	27d10513          	addi	a0,sp,637
   178fa:	6585                	lui	a1,0x1
   178fc:	32458593          	addi	a1,a1,804 # 1324 <.Lline_table_start1+0x10f9>
   17900:	958a                	add	a1,a1,sp
   17902:	02f00613          	li	a2,47
   17906:	00003097          	auipc	ra,0x3
   1790a:	1fe080e7          	jalr	510(ra) # 1ab04 <memcpy>
   1790e:	6505                	lui	a0,0x1
   17910:	38050513          	addi	a0,a0,896 # 1380 <.Lline_table_start1+0x1155>
   17914:	950a                	add	a0,a0,sp
   17916:	27610593          	addi	a1,sp,630
   1791a:	ffffd097          	auipc	ra,0xffffd
   1791e:	c8e080e7          	jalr	-882(ra) # 145a8 <_ZN20complex_full_dynamic3app17h81f16480efc01d6cE>
   17922:	3eca4503          	lbu	a0,1004(s4)
   17926:	c119                	beqz	a0,1792c <_start+0xc9e>
   17928:	5f10206f          	j	1a718 <_start+0x3a8a>
   1792c:	3eea4503          	lbu	a0,1006(s4)
   17930:	3eda4583          	lbu	a1,1005(s4)
   17934:	3efa4603          	lbu	a2,1007(s4)
   17938:	3f0a2403          	lw	s0,1008(s4)
   1793c:	0522                	slli	a0,a0,0x8
   1793e:	8d4d                	or	a0,a0,a1
   17940:	2aa11623          	sh	a0,684(sp)
   17944:	2ac10723          	sb	a2,686(sp)
   17948:	6505                	lui	a0,0x1
   1794a:	38850513          	addi	a0,a0,904 # 1388 <.Lline_table_start1+0x115d>
   1794e:	00a105b3          	add	a1,sp,a0
   17952:	6505                	lui	a0,0x1
   17954:	32450513          	addi	a0,a0,804 # 1324 <.Lline_table_start1+0x10f9>
   17958:	950a                	add	a0,a0,sp
   1795a:	02d00613          	li	a2,45
   1795e:	00003097          	auipc	ra,0x3
   17962:	1a6080e7          	jalr	422(ra) # 1ab04 <memcpy>
   17966:	01845513          	srli	a0,s0,0x18
   1796a:	01045593          	srli	a1,s0,0x10
   1796e:	00845613          	srli	a2,s0,0x8
   17972:	2a8107a3          	sb	s0,687(sp)
   17976:	2ac10823          	sb	a2,688(sp)
   1797a:	2ab108a3          	sb	a1,689(sp)
   1797e:	2aa10923          	sb	a0,690(sp)
   17982:	2b310513          	addi	a0,sp,691
   17986:	6585                	lui	a1,0x1
   17988:	32458593          	addi	a1,a1,804 # 1324 <.Lline_table_start1+0x10f9>
   1798c:	958a                	add	a1,a1,sp
   1798e:	02d00613          	li	a2,45
   17992:	00003097          	auipc	ra,0x3
   17996:	172080e7          	jalr	370(ra) # 1ab04 <memcpy>
   1799a:	6505                	lui	a0,0x1
   1799c:	38050513          	addi	a0,a0,896 # 1380 <.Lline_table_start1+0x1155>
   179a0:	950a                	add	a0,a0,sp
   179a2:	156c                	addi	a1,sp,684
   179a4:	ffffa097          	auipc	ra,0xffffa
   179a8:	a7c080e7          	jalr	-1412(ra) # 11420 <_ZN20complex_full_dynamic3app17h04180b68abad7ad9E>
   179ac:	3eca4503          	lbu	a0,1004(s4)
   179b0:	c119                	beqz	a0,179b6 <_start+0xd28>
   179b2:	5670206f          	j	1a718 <_start+0x3a8a>
   179b6:	3eea4503          	lbu	a0,1006(s4)
   179ba:	3eda4583          	lbu	a1,1005(s4)
   179be:	3efa4603          	lbu	a2,1007(s4)
   179c2:	3f0a2403          	lw	s0,1008(s4)
   179c6:	0522                	slli	a0,a0,0x8
   179c8:	8d4d                	or	a0,a0,a1
   179ca:	2ea11023          	sh	a0,736(sp)
   179ce:	2ec10123          	sb	a2,738(sp)
   179d2:	6505                	lui	a0,0x1
   179d4:	38850513          	addi	a0,a0,904 # 1388 <.Lline_table_start1+0x115d>
   179d8:	00a105b3          	add	a1,sp,a0
   179dc:	6505                	lui	a0,0x1
   179de:	32450513          	addi	a0,a0,804 # 1324 <.Lline_table_start1+0x10f9>
   179e2:	950a                	add	a0,a0,sp
   179e4:	02700613          	li	a2,39
   179e8:	00003097          	auipc	ra,0x3
   179ec:	11c080e7          	jalr	284(ra) # 1ab04 <memcpy>
   179f0:	01845513          	srli	a0,s0,0x18
   179f4:	01045593          	srli	a1,s0,0x10
   179f8:	00845613          	srli	a2,s0,0x8
   179fc:	2e8101a3          	sb	s0,739(sp)
   17a00:	2ec10223          	sb	a2,740(sp)
   17a04:	2eb102a3          	sb	a1,741(sp)
   17a08:	2ea10323          	sb	a0,742(sp)
   17a0c:	2e710513          	addi	a0,sp,743
   17a10:	6585                	lui	a1,0x1
   17a12:	32458593          	addi	a1,a1,804 # 1324 <.Lline_table_start1+0x10f9>
   17a16:	958a                	add	a1,a1,sp
   17a18:	02700613          	li	a2,39
   17a1c:	00003097          	auipc	ra,0x3
   17a20:	0e8080e7          	jalr	232(ra) # 1ab04 <memcpy>
   17a24:	6505                	lui	a0,0x1
   17a26:	38050513          	addi	a0,a0,896 # 1380 <.Lline_table_start1+0x1155>
   17a2a:	950a                	add	a0,a0,sp
   17a2c:	158c                	addi	a1,sp,736
   17a2e:	ffffc097          	auipc	ra,0xffffc
   17a32:	ecc080e7          	jalr	-308(ra) # 138fa <_ZN20complex_full_dynamic3app17h6ab6b5e9a5fecc87E>
   17a36:	3eca4503          	lbu	a0,1004(s4)
   17a3a:	c119                	beqz	a0,17a40 <_start+0xdb2>
   17a3c:	4dd0206f          	j	1a718 <_start+0x3a8a>
   17a40:	3eea4503          	lbu	a0,1006(s4)
   17a44:	3eda4583          	lbu	a1,1005(s4)
   17a48:	3efa4603          	lbu	a2,1007(s4)
   17a4c:	3f0a2403          	lw	s0,1008(s4)
   17a50:	0522                	slli	a0,a0,0x8
   17a52:	8d4d                	or	a0,a0,a1
   17a54:	30a11723          	sh	a0,782(sp)
   17a58:	30c10823          	sb	a2,784(sp)
   17a5c:	6505                	lui	a0,0x1
   17a5e:	38850513          	addi	a0,a0,904 # 1388 <.Lline_table_start1+0x115d>
   17a62:	00a105b3          	add	a1,sp,a0
   17a66:	6505                	lui	a0,0x1
   17a68:	32450513          	addi	a0,a0,804 # 1324 <.Lline_table_start1+0x10f9>
   17a6c:	950a                	add	a0,a0,sp
   17a6e:	03100613          	li	a2,49
   17a72:	00003097          	auipc	ra,0x3
   17a76:	092080e7          	jalr	146(ra) # 1ab04 <memcpy>
   17a7a:	01845513          	srli	a0,s0,0x18
   17a7e:	01045593          	srli	a1,s0,0x10
   17a82:	00845613          	srli	a2,s0,0x8
   17a86:	308108a3          	sb	s0,785(sp)
   17a8a:	30c10923          	sb	a2,786(sp)
   17a8e:	30b109a3          	sb	a1,787(sp)
   17a92:	30a10a23          	sb	a0,788(sp)
   17a96:	31510513          	addi	a0,sp,789
   17a9a:	6585                	lui	a1,0x1
   17a9c:	32458593          	addi	a1,a1,804 # 1324 <.Lline_table_start1+0x10f9>
   17aa0:	958a                	add	a1,a1,sp
   17aa2:	03100613          	li	a2,49
   17aa6:	00003097          	auipc	ra,0x3
   17aaa:	05e080e7          	jalr	94(ra) # 1ab04 <memcpy>
   17aae:	6505                	lui	a0,0x1
   17ab0:	38050513          	addi	a0,a0,896 # 1380 <.Lline_table_start1+0x1155>
   17ab4:	950a                	add	a0,a0,sp
   17ab6:	30e10593          	addi	a1,sp,782
   17aba:	ffffe097          	auipc	ra,0xffffe
   17abe:	620080e7          	jalr	1568(ra) # 160da <_ZN20complex_full_dynamic3app17hed80c7ff30127444E>
   17ac2:	3eca4503          	lbu	a0,1004(s4)
   17ac6:	c119                	beqz	a0,17acc <_start+0xe3e>
   17ac8:	4510206f          	j	1a718 <_start+0x3a8a>
   17acc:	3eea4503          	lbu	a0,1006(s4)
   17ad0:	3eda4583          	lbu	a1,1005(s4)
   17ad4:	3efa4603          	lbu	a2,1007(s4)
   17ad8:	3f0a2403          	lw	s0,1008(s4)
   17adc:	0522                	slli	a0,a0,0x8
   17ade:	8d4d                	or	a0,a0,a1
   17ae0:	34a11323          	sh	a0,838(sp)
   17ae4:	34c10423          	sb	a2,840(sp)
   17ae8:	6505                	lui	a0,0x1
   17aea:	38850513          	addi	a0,a0,904 # 1388 <.Lline_table_start1+0x115d>
   17aee:	00a105b3          	add	a1,sp,a0
   17af2:	6505                	lui	a0,0x1
   17af4:	32450513          	addi	a0,a0,804 # 1324 <.Lline_table_start1+0x10f9>
   17af8:	950a                	add	a0,a0,sp
   17afa:	02d00613          	li	a2,45
   17afe:	00003097          	auipc	ra,0x3
   17b02:	006080e7          	jalr	6(ra) # 1ab04 <memcpy>
   17b06:	01845513          	srli	a0,s0,0x18
   17b0a:	01045593          	srli	a1,s0,0x10
   17b0e:	00845613          	srli	a2,s0,0x8
   17b12:	348104a3          	sb	s0,841(sp)
   17b16:	34c10523          	sb	a2,842(sp)
   17b1a:	34b105a3          	sb	a1,843(sp)
   17b1e:	34a10623          	sb	a0,844(sp)
   17b22:	34d10513          	addi	a0,sp,845
   17b26:	6585                	lui	a1,0x1
   17b28:	32458593          	addi	a1,a1,804 # 1324 <.Lline_table_start1+0x10f9>
   17b2c:	958a                	add	a1,a1,sp
   17b2e:	02d00613          	li	a2,45
   17b32:	00003097          	auipc	ra,0x3
   17b36:	fd2080e7          	jalr	-46(ra) # 1ab04 <memcpy>
   17b3a:	6505                	lui	a0,0x1
   17b3c:	38050513          	addi	a0,a0,896 # 1380 <.Lline_table_start1+0x1155>
   17b40:	950a                	add	a0,a0,sp
   17b42:	34610593          	addi	a1,sp,838
   17b46:	ffffb097          	auipc	ra,0xffffb
   17b4a:	316080e7          	jalr	790(ra) # 12e5c <_ZN20complex_full_dynamic3app17h4fb66bd441759f26E>
   17b4e:	3eca4503          	lbu	a0,1004(s4)
   17b52:	c119                	beqz	a0,17b58 <_start+0xeca>
   17b54:	3c50206f          	j	1a718 <_start+0x3a8a>
   17b58:	3eea4503          	lbu	a0,1006(s4)
   17b5c:	3eda4583          	lbu	a1,1005(s4)
   17b60:	3efa4603          	lbu	a2,1007(s4)
   17b64:	3f0a2403          	lw	s0,1008(s4)
   17b68:	0522                	slli	a0,a0,0x8
   17b6a:	8d4d                	or	a0,a0,a1
   17b6c:	36a11d23          	sh	a0,890(sp)
   17b70:	36c10e23          	sb	a2,892(sp)
   17b74:	6505                	lui	a0,0x1
   17b76:	38850513          	addi	a0,a0,904 # 1388 <.Lline_table_start1+0x115d>
   17b7a:	00a105b3          	add	a1,sp,a0
   17b7e:	6505                	lui	a0,0x1
   17b80:	32450513          	addi	a0,a0,804 # 1324 <.Lline_table_start1+0x10f9>
   17b84:	950a                	add	a0,a0,sp
   17b86:	464d                	li	a2,19
   17b88:	00003097          	auipc	ra,0x3
   17b8c:	f7c080e7          	jalr	-132(ra) # 1ab04 <memcpy>
   17b90:	01845513          	srli	a0,s0,0x18
   17b94:	01045593          	srli	a1,s0,0x10
   17b98:	00845613          	srli	a2,s0,0x8
   17b9c:	36810ea3          	sb	s0,893(sp)
   17ba0:	36c10f23          	sb	a2,894(sp)
   17ba4:	36b10fa3          	sb	a1,895(sp)
   17ba8:	38a10023          	sb	a0,896(sp)
   17bac:	38110513          	addi	a0,sp,897
   17bb0:	6585                	lui	a1,0x1
   17bb2:	32458593          	addi	a1,a1,804 # 1324 <.Lline_table_start1+0x10f9>
   17bb6:	958a                	add	a1,a1,sp
   17bb8:	464d                	li	a2,19
   17bba:	00003097          	auipc	ra,0x3
   17bbe:	f4a080e7          	jalr	-182(ra) # 1ab04 <memcpy>
   17bc2:	6505                	lui	a0,0x1
   17bc4:	38050513          	addi	a0,a0,896 # 1380 <.Lline_table_start1+0x1155>
   17bc8:	950a                	add	a0,a0,sp
   17bca:	37a10593          	addi	a1,sp,890
   17bce:	ffff9097          	auipc	ra,0xffff9
   17bd2:	660080e7          	jalr	1632(ra) # 1122e <_ZN20complex_full_dynamic3app17h02785a83f4450333E>
   17bd6:	3eca4503          	lbu	a0,1004(s4)
   17bda:	c119                	beqz	a0,17be0 <_start+0xf52>
   17bdc:	33d0206f          	j	1a718 <_start+0x3a8a>
   17be0:	3eea4503          	lbu	a0,1006(s4)
   17be4:	3eda4583          	lbu	a1,1005(s4)
   17be8:	3efa4603          	lbu	a2,1007(s4)
   17bec:	3f0a2403          	lw	s0,1008(s4)
   17bf0:	0522                	slli	a0,a0,0x8
   17bf2:	8d4d                	or	a0,a0,a1
   17bf4:	38a11a23          	sh	a0,916(sp)
   17bf8:	38c10b23          	sb	a2,918(sp)
   17bfc:	6505                	lui	a0,0x1
   17bfe:	38850513          	addi	a0,a0,904 # 1388 <.Lline_table_start1+0x115d>
   17c02:	00a105b3          	add	a1,sp,a0
   17c06:	6505                	lui	a0,0x1
   17c08:	32450513          	addi	a0,a0,804 # 1324 <.Lline_table_start1+0x10f9>
   17c0c:	950a                	add	a0,a0,sp
   17c0e:	04900613          	li	a2,73
   17c12:	00003097          	auipc	ra,0x3
   17c16:	ef2080e7          	jalr	-270(ra) # 1ab04 <memcpy>
   17c1a:	01845513          	srli	a0,s0,0x18
   17c1e:	01045593          	srli	a1,s0,0x10
   17c22:	00845613          	srli	a2,s0,0x8
   17c26:	38810ba3          	sb	s0,919(sp)
   17c2a:	38c10c23          	sb	a2,920(sp)
   17c2e:	38b10ca3          	sb	a1,921(sp)
   17c32:	38a10d23          	sb	a0,922(sp)
   17c36:	39b10513          	addi	a0,sp,923
   17c3a:	6585                	lui	a1,0x1
   17c3c:	32458593          	addi	a1,a1,804 # 1324 <.Lline_table_start1+0x10f9>
   17c40:	958a                	add	a1,a1,sp
   17c42:	04900613          	li	a2,73
   17c46:	00003097          	auipc	ra,0x3
   17c4a:	ebe080e7          	jalr	-322(ra) # 1ab04 <memcpy>
   17c4e:	6505                	lui	a0,0x1
   17c50:	38050513          	addi	a0,a0,896 # 1380 <.Lline_table_start1+0x1155>
   17c54:	950a                	add	a0,a0,sp
   17c56:	0f4c                	addi	a1,sp,916
   17c58:	ffffc097          	auipc	ra,0xffffc
   17c5c:	e92080e7          	jalr	-366(ra) # 13aea <_ZN20complex_full_dynamic3app17h772d43797ba93062E>
   17c60:	3eca4503          	lbu	a0,1004(s4)
   17c64:	c119                	beqz	a0,17c6a <_start+0xfdc>
   17c66:	2b30206f          	j	1a718 <_start+0x3a8a>
   17c6a:	3eea4503          	lbu	a0,1006(s4)
   17c6e:	3eda4583          	lbu	a1,1005(s4)
   17c72:	3efa4603          	lbu	a2,1007(s4)
   17c76:	3f0a2403          	lw	s0,1008(s4)
   17c7a:	0522                	slli	a0,a0,0x8
   17c7c:	8d4d                	or	a0,a0,a1
   17c7e:	3ea11223          	sh	a0,996(sp)
   17c82:	3ec10323          	sb	a2,998(sp)
   17c86:	6505                	lui	a0,0x1
   17c88:	38850513          	addi	a0,a0,904 # 1388 <.Lline_table_start1+0x115d>
   17c8c:	00a105b3          	add	a1,sp,a0
   17c90:	6505                	lui	a0,0x1
   17c92:	32450513          	addi	a0,a0,804 # 1324 <.Lline_table_start1+0x10f9>
   17c96:	950a                	add	a0,a0,sp
   17c98:	03500613          	li	a2,53
   17c9c:	00003097          	auipc	ra,0x3
   17ca0:	e68080e7          	jalr	-408(ra) # 1ab04 <memcpy>
   17ca4:	01845513          	srli	a0,s0,0x18
   17ca8:	01045593          	srli	a1,s0,0x10
   17cac:	00845613          	srli	a2,s0,0x8
   17cb0:	3e8103a3          	sb	s0,999(sp)
   17cb4:	3ec10423          	sb	a2,1000(sp)
   17cb8:	3eb104a3          	sb	a1,1001(sp)
   17cbc:	3ea10523          	sb	a0,1002(sp)
   17cc0:	3eb10513          	addi	a0,sp,1003
   17cc4:	6585                	lui	a1,0x1
   17cc6:	32458593          	addi	a1,a1,804 # 1324 <.Lline_table_start1+0x10f9>
   17cca:	958a                	add	a1,a1,sp
   17ccc:	03500613          	li	a2,53
   17cd0:	00003097          	auipc	ra,0x3
   17cd4:	e34080e7          	jalr	-460(ra) # 1ab04 <memcpy>
   17cd8:	6505                	lui	a0,0x1
   17cda:	38050513          	addi	a0,a0,896 # 1380 <.Lline_table_start1+0x1155>
   17cde:	950a                	add	a0,a0,sp
   17ce0:	17cc                	addi	a1,sp,996
   17ce2:	ffffc097          	auipc	ra,0xffffc
   17ce6:	0fa080e7          	jalr	250(ra) # 13ddc <_ZN20complex_full_dynamic3app17h7c9b996ac20cc9eaE>
   17cea:	3eca4503          	lbu	a0,1004(s4)
   17cee:	c119                	beqz	a0,17cf4 <_start+0x1066>
   17cf0:	2290206f          	j	1a718 <_start+0x3a8a>
   17cf4:	3eea4503          	lbu	a0,1006(s4)
   17cf8:	3eda4583          	lbu	a1,1005(s4)
   17cfc:	3efa4603          	lbu	a2,1007(s4)
   17d00:	3f0a2403          	lw	s0,1008(s4)
   17d04:	0522                	slli	a0,a0,0x8
   17d06:	8d4d                	or	a0,a0,a1
   17d08:	42a11023          	sh	a0,1056(sp)
   17d0c:	42c10123          	sb	a2,1058(sp)
   17d10:	6505                	lui	a0,0x1
   17d12:	38850513          	addi	a0,a0,904 # 1388 <.Lline_table_start1+0x115d>
   17d16:	00a105b3          	add	a1,sp,a0
   17d1a:	6505                	lui	a0,0x1
   17d1c:	32450513          	addi	a0,a0,804 # 1324 <.Lline_table_start1+0x10f9>
   17d20:	950a                	add	a0,a0,sp
   17d22:	02b00613          	li	a2,43
   17d26:	00003097          	auipc	ra,0x3
   17d2a:	dde080e7          	jalr	-546(ra) # 1ab04 <memcpy>
   17d2e:	01845513          	srli	a0,s0,0x18
   17d32:	01045593          	srli	a1,s0,0x10
   17d36:	00845613          	srli	a2,s0,0x8
   17d3a:	428101a3          	sb	s0,1059(sp)
   17d3e:	42c10223          	sb	a2,1060(sp)
   17d42:	42b102a3          	sb	a1,1061(sp)
   17d46:	42a10323          	sb	a0,1062(sp)
   17d4a:	42710513          	addi	a0,sp,1063
   17d4e:	6585                	lui	a1,0x1
   17d50:	32458593          	addi	a1,a1,804 # 1324 <.Lline_table_start1+0x10f9>
   17d54:	958a                	add	a1,a1,sp
   17d56:	02b00613          	li	a2,43
   17d5a:	00003097          	auipc	ra,0x3
   17d5e:	daa080e7          	jalr	-598(ra) # 1ab04 <memcpy>
   17d62:	6505                	lui	a0,0x1
   17d64:	38050513          	addi	a0,a0,896 # 1380 <.Lline_table_start1+0x1155>
   17d68:	950a                	add	a0,a0,sp
   17d6a:	42010593          	addi	a1,sp,1056
   17d6e:	ffffe097          	auipc	ra,0xffffe
   17d72:	e90080e7          	jalr	-368(ra) # 15bfe <_ZN20complex_full_dynamic3app17hd7dea2cd30377825E>
   17d76:	3eca4503          	lbu	a0,1004(s4)
   17d7a:	c119                	beqz	a0,17d80 <_start+0x10f2>
   17d7c:	19d0206f          	j	1a718 <_start+0x3a8a>
   17d80:	3eea4503          	lbu	a0,1006(s4)
   17d84:	3eda4583          	lbu	a1,1005(s4)
   17d88:	3efa4603          	lbu	a2,1007(s4)
   17d8c:	3f0a2403          	lw	s0,1008(s4)
   17d90:	0522                	slli	a0,a0,0x8
   17d92:	8d4d                	or	a0,a0,a1
   17d94:	44a11923          	sh	a0,1106(sp)
   17d98:	44c10a23          	sb	a2,1108(sp)
   17d9c:	6505                	lui	a0,0x1
   17d9e:	38850513          	addi	a0,a0,904 # 1388 <.Lline_table_start1+0x115d>
   17da2:	00a105b3          	add	a1,sp,a0
   17da6:	6505                	lui	a0,0x1
   17da8:	32450513          	addi	a0,a0,804 # 1324 <.Lline_table_start1+0x10f9>
   17dac:	950a                	add	a0,a0,sp
   17dae:	02b00613          	li	a2,43
   17db2:	00003097          	auipc	ra,0x3
   17db6:	d52080e7          	jalr	-686(ra) # 1ab04 <memcpy>
   17dba:	01845513          	srli	a0,s0,0x18
   17dbe:	01045593          	srli	a1,s0,0x10
   17dc2:	00845613          	srli	a2,s0,0x8
   17dc6:	44810aa3          	sb	s0,1109(sp)
   17dca:	44c10b23          	sb	a2,1110(sp)
   17dce:	44b10ba3          	sb	a1,1111(sp)
   17dd2:	44a10c23          	sb	a0,1112(sp)
   17dd6:	45910513          	addi	a0,sp,1113
   17dda:	6585                	lui	a1,0x1
   17ddc:	32458593          	addi	a1,a1,804 # 1324 <.Lline_table_start1+0x10f9>
   17de0:	958a                	add	a1,a1,sp
   17de2:	02b00613          	li	a2,43
   17de6:	00003097          	auipc	ra,0x3
   17dea:	d1e080e7          	jalr	-738(ra) # 1ab04 <memcpy>
   17dee:	6505                	lui	a0,0x1
   17df0:	38050513          	addi	a0,a0,896 # 1380 <.Lline_table_start1+0x1155>
   17df4:	950a                	add	a0,a0,sp
   17df6:	45210593          	addi	a1,sp,1106
   17dfa:	ffffa097          	auipc	ra,0xffffa
   17dfe:	fea080e7          	jalr	-22(ra) # 11de4 <_ZN20complex_full_dynamic3app17h1fb9c5331959c8ccE>
   17e02:	3eca4503          	lbu	a0,1004(s4)
   17e06:	c119                	beqz	a0,17e0c <_start+0x117e>
   17e08:	1110206f          	j	1a718 <_start+0x3a8a>
   17e0c:	3eda4503          	lbu	a0,1005(s4)
   17e10:	3eea4583          	lbu	a1,1006(s4)
   17e14:	3efa4603          	lbu	a2,1007(s4)
   17e18:	3f0a2683          	lw	a3,1008(s4)
   17e1c:	3f4a2703          	lw	a4,1012(s4)
   17e20:	3f8a2783          	lw	a5,1016(s4)
   17e24:	3fca4483          	lbu	s1,1020(s4)
   17e28:	05a2                	slli	a1,a1,0x8
   17e2a:	38ea2823          	sw	a4,912(s4)
   17e2e:	38fa2a23          	sw	a5,916(s4)
   17e32:	389a0c23          	sb	s1,920(s4)
   17e36:	0186d713          	srli	a4,a3,0x18
   17e3a:	8d4d                	or	a0,a0,a1
   17e3c:	0106d593          	srli	a1,a3,0x10
   17e40:	48b104a3          	sb	a1,1161(sp)
   17e44:	48e10523          	sb	a4,1162(sp)
   17e48:	0086d593          	srli	a1,a3,0x8
   17e4c:	48a11223          	sh	a0,1156(sp)
   17e50:	48c10323          	sb	a2,1158(sp)
   17e54:	48d103a3          	sb	a3,1159(sp)
   17e58:	48b10423          	sb	a1,1160(sp)
   17e5c:	48b10513          	addi	a0,sp,1163
   17e60:	6585                	lui	a1,0x1
   17e62:	32458593          	addi	a1,a1,804 # 1324 <.Lline_table_start1+0x10f9>
   17e66:	958a                	add	a1,a1,sp
   17e68:	4625                	li	a2,9
   17e6a:	00003097          	auipc	ra,0x3
   17e6e:	c9a080e7          	jalr	-870(ra) # 1ab04 <memcpy>
   17e72:	6505                	lui	a0,0x1
   17e74:	38050513          	addi	a0,a0,896 # 1380 <.Lline_table_start1+0x1155>
   17e78:	950a                	add	a0,a0,sp
   17e7a:	48410593          	addi	a1,sp,1156
   17e7e:	ffffe097          	auipc	ra,0xffffe
   17e82:	c88080e7          	jalr	-888(ra) # 15b06 <_ZN20complex_full_dynamic3app17hd451924d1b888df0E>
   17e86:	3eca4503          	lbu	a0,1004(s4)
   17e8a:	c119                	beqz	a0,17e90 <_start+0x1202>
   17e8c:	08d0206f          	j	1a718 <_start+0x3a8a>
   17e90:	3eea4503          	lbu	a0,1006(s4)
   17e94:	3eda4583          	lbu	a1,1005(s4)
   17e98:	3efa4603          	lbu	a2,1007(s4)
   17e9c:	3f0a2403          	lw	s0,1008(s4)
   17ea0:	0522                	slli	a0,a0,0x8
   17ea2:	8d4d                	or	a0,a0,a1
   17ea4:	48a11a23          	sh	a0,1172(sp)
   17ea8:	48c10b23          	sb	a2,1174(sp)
   17eac:	6505                	lui	a0,0x1
   17eae:	38850513          	addi	a0,a0,904 # 1388 <.Lline_table_start1+0x115d>
   17eb2:	00a105b3          	add	a1,sp,a0
   17eb6:	6505                	lui	a0,0x1
   17eb8:	32450513          	addi	a0,a0,804 # 1324 <.Lline_table_start1+0x10f9>
   17ebc:	950a                	add	a0,a0,sp
   17ebe:	02f00613          	li	a2,47
   17ec2:	00003097          	auipc	ra,0x3
   17ec6:	c42080e7          	jalr	-958(ra) # 1ab04 <memcpy>
   17eca:	01845513          	srli	a0,s0,0x18
   17ece:	01045593          	srli	a1,s0,0x10
   17ed2:	00845613          	srli	a2,s0,0x8
   17ed6:	48810ba3          	sb	s0,1175(sp)
   17eda:	48c10c23          	sb	a2,1176(sp)
   17ede:	48b10ca3          	sb	a1,1177(sp)
   17ee2:	48a10d23          	sb	a0,1178(sp)
   17ee6:	49b10513          	addi	a0,sp,1179
   17eea:	6585                	lui	a1,0x1
   17eec:	32458593          	addi	a1,a1,804 # 1324 <.Lline_table_start1+0x10f9>
   17ef0:	958a                	add	a1,a1,sp
   17ef2:	02f00613          	li	a2,47
   17ef6:	00003097          	auipc	ra,0x3
   17efa:	c0e080e7          	jalr	-1010(ra) # 1ab04 <memcpy>
   17efe:	6505                	lui	a0,0x1
   17f00:	38050513          	addi	a0,a0,896 # 1380 <.Lline_table_start1+0x1155>
   17f04:	950a                	add	a0,a0,sp
   17f06:	49410593          	addi	a1,sp,1172
   17f0a:	ffffa097          	auipc	ra,0xffffa
   17f0e:	902080e7          	jalr	-1790(ra) # 1180c <_ZN20complex_full_dynamic3app17h110e9918984e1a01E>
   17f12:	3eca4503          	lbu	a0,1004(s4)
   17f16:	c119                	beqz	a0,17f1c <_start+0x128e>
   17f18:	0010206f          	j	1a718 <_start+0x3a8a>
   17f1c:	3eda4503          	lbu	a0,1005(s4)
   17f20:	3eea4583          	lbu	a1,1006(s4)
   17f24:	3efa4803          	lbu	a6,1007(s4)
   17f28:	3f0a2683          	lw	a3,1008(s4)
   17f2c:	3f4a2703          	lw	a4,1012(s4)
   17f30:	3f8a2783          	lw	a5,1016(s4)
   17f34:	05a2                	slli	a1,a1,0x8
   17f36:	0186d893          	srli	a7,a3,0x18
   17f3a:	0106d293          	srli	t0,a3,0x10
   17f3e:	0187d613          	srli	a2,a5,0x18
   17f42:	0107d493          	srli	s1,a5,0x10
   17f46:	0087d413          	srli	s0,a5,0x8
   17f4a:	8d4d                	or	a0,a0,a1
   17f4c:	01875593          	srli	a1,a4,0x18
   17f50:	4c910ba3          	sb	s1,1239(sp)
   17f54:	4cc10c23          	sb	a2,1240(sp)
   17f58:	01075613          	srli	a2,a4,0x10
   17f5c:	4cc109a3          	sb	a2,1235(sp)
   17f60:	4cb10a23          	sb	a1,1236(sp)
   17f64:	4cf10aa3          	sb	a5,1237(sp)
   17f68:	4c810b23          	sb	s0,1238(sp)
   17f6c:	0086d593          	srli	a1,a3,0x8
   17f70:	4ca11523          	sh	a0,1226(sp)
   17f74:	4d010623          	sb	a6,1228(sp)
   17f78:	4cd106a3          	sb	a3,1229(sp)
   17f7c:	4cb10723          	sb	a1,1230(sp)
   17f80:	00875513          	srli	a0,a4,0x8
   17f84:	4c5107a3          	sb	t0,1231(sp)
   17f88:	4d110823          	sb	a7,1232(sp)
   17f8c:	4ce108a3          	sb	a4,1233(sp)
   17f90:	4ca10923          	sb	a0,1234(sp)
   17f94:	6505                	lui	a0,0x1
   17f96:	38050513          	addi	a0,a0,896 # 1380 <.Lline_table_start1+0x1155>
   17f9a:	950a                	add	a0,a0,sp
   17f9c:	4ca10593          	addi	a1,sp,1226
   17fa0:	ffffd097          	auipc	ra,0xffffd
   17fa4:	690080e7          	jalr	1680(ra) # 15630 <_ZN20complex_full_dynamic3app17hb9163238aada0decE>
   17fa8:	3eca4503          	lbu	a0,1004(s4)
   17fac:	c119                	beqz	a0,17fb2 <_start+0x1324>
   17fae:	76a0206f          	j	1a718 <_start+0x3a8a>
   17fb2:	3eda4503          	lbu	a0,1005(s4)
   17fb6:	3eea4583          	lbu	a1,1006(s4)
   17fba:	3efa4603          	lbu	a2,1007(s4)
   17fbe:	3f0a2683          	lw	a3,1008(s4)
   17fc2:	3f4a2703          	lw	a4,1012(s4)
   17fc6:	3f8a2783          	lw	a5,1016(s4)
   17fca:	3fca2483          	lw	s1,1020(s4)
   17fce:	05a2                	slli	a1,a1,0x8
   17fd0:	38ea2823          	sw	a4,912(s4)
   17fd4:	38fa2a23          	sw	a5,916(s4)
   17fd8:	389a2c23          	sw	s1,920(s4)
   17fdc:	0186d713          	srli	a4,a3,0x18
   17fe0:	8d4d                	or	a0,a0,a1
   17fe2:	0106d593          	srli	a1,a3,0x10
   17fe6:	4cb10fa3          	sb	a1,1247(sp)
   17fea:	4ee10023          	sb	a4,1248(sp)
   17fee:	0086d593          	srli	a1,a3,0x8
   17ff2:	4ca11d23          	sh	a0,1242(sp)
   17ff6:	4cc10e23          	sb	a2,1244(sp)
   17ffa:	4cd10ea3          	sb	a3,1245(sp)
   17ffe:	4cb10f23          	sb	a1,1246(sp)
   18002:	4e110513          	addi	a0,sp,1249
   18006:	6585                	lui	a1,0x1
   18008:	32458593          	addi	a1,a1,804 # 1324 <.Lline_table_start1+0x10f9>
   1800c:	958a                	add	a1,a1,sp
   1800e:	4631                	li	a2,12
   18010:	00003097          	auipc	ra,0x3
   18014:	af4080e7          	jalr	-1292(ra) # 1ab04 <memcpy>
   18018:	6505                	lui	a0,0x1
   1801a:	38050513          	addi	a0,a0,896 # 1380 <.Lline_table_start1+0x1155>
   1801e:	950a                	add	a0,a0,sp
   18020:	4da10593          	addi	a1,sp,1242
   18024:	ffffa097          	auipc	ra,0xffffa
   18028:	768080e7          	jalr	1896(ra) # 1278c <_ZN20complex_full_dynamic3app17h34ceccc6fa5097a3E>
   1802c:	3eca4503          	lbu	a0,1004(s4)
   18030:	c119                	beqz	a0,18036 <_start+0x13a8>
   18032:	6e60206f          	j	1a718 <_start+0x3a8a>
   18036:	3eea4503          	lbu	a0,1006(s4)
   1803a:	3eda4583          	lbu	a1,1005(s4)
   1803e:	3efa4603          	lbu	a2,1007(s4)
   18042:	3f0a2403          	lw	s0,1008(s4)
   18046:	0522                	slli	a0,a0,0x8
   18048:	8d4d                	or	a0,a0,a1
   1804a:	4ea11723          	sh	a0,1262(sp)
   1804e:	4ec10823          	sb	a2,1264(sp)
   18052:	6505                	lui	a0,0x1
   18054:	38850513          	addi	a0,a0,904 # 1388 <.Lline_table_start1+0x115d>
   18058:	00a105b3          	add	a1,sp,a0
   1805c:	6505                	lui	a0,0x1
   1805e:	32450513          	addi	a0,a0,804 # 1324 <.Lline_table_start1+0x10f9>
   18062:	950a                	add	a0,a0,sp
   18064:	04e00613          	li	a2,78
   18068:	00003097          	auipc	ra,0x3
   1806c:	a9c080e7          	jalr	-1380(ra) # 1ab04 <memcpy>
   18070:	01845513          	srli	a0,s0,0x18
   18074:	01045593          	srli	a1,s0,0x10
   18078:	00845613          	srli	a2,s0,0x8
   1807c:	4e8108a3          	sb	s0,1265(sp)
   18080:	4ec10923          	sb	a2,1266(sp)
   18084:	4eb109a3          	sb	a1,1267(sp)
   18088:	4ea10a23          	sb	a0,1268(sp)
   1808c:	4f510513          	addi	a0,sp,1269
   18090:	6585                	lui	a1,0x1
   18092:	32458593          	addi	a1,a1,804 # 1324 <.Lline_table_start1+0x10f9>
   18096:	958a                	add	a1,a1,sp
   18098:	04e00613          	li	a2,78
   1809c:	00003097          	auipc	ra,0x3
   180a0:	a68080e7          	jalr	-1432(ra) # 1ab04 <memcpy>
   180a4:	6505                	lui	a0,0x1
   180a6:	38050513          	addi	a0,a0,896 # 1380 <.Lline_table_start1+0x1155>
   180aa:	950a                	add	a0,a0,sp
   180ac:	4ee10593          	addi	a1,sp,1262
   180b0:	ffffa097          	auipc	ra,0xffffa
   180b4:	e22080e7          	jalr	-478(ra) # 11ed2 <_ZN20complex_full_dynamic3app17h20a83e6e1c70c3eaE>
   180b8:	3eca4503          	lbu	a0,1004(s4)
   180bc:	c119                	beqz	a0,180c2 <_start+0x1434>
   180be:	65a0206f          	j	1a718 <_start+0x3a8a>
   180c2:	3eea4503          	lbu	a0,1006(s4)
   180c6:	3eda4583          	lbu	a1,1005(s4)
   180ca:	3efa4603          	lbu	a2,1007(s4)
   180ce:	3f0a2403          	lw	s0,1008(s4)
   180d2:	0522                	slli	a0,a0,0x8
   180d4:	8d4d                	or	a0,a0,a1
   180d6:	54a11223          	sh	a0,1348(sp)
   180da:	54c10323          	sb	a2,1350(sp)
   180de:	6505                	lui	a0,0x1
   180e0:	38850513          	addi	a0,a0,904 # 1388 <.Lline_table_start1+0x115d>
   180e4:	00a105b3          	add	a1,sp,a0
   180e8:	6505                	lui	a0,0x1
   180ea:	32450513          	addi	a0,a0,804 # 1324 <.Lline_table_start1+0x10f9>
   180ee:	950a                	add	a0,a0,sp
   180f0:	02b00613          	li	a2,43
   180f4:	00003097          	auipc	ra,0x3
   180f8:	a10080e7          	jalr	-1520(ra) # 1ab04 <memcpy>
   180fc:	01845513          	srli	a0,s0,0x18
   18100:	01045593          	srli	a1,s0,0x10
   18104:	00845613          	srli	a2,s0,0x8
   18108:	548103a3          	sb	s0,1351(sp)
   1810c:	54c10423          	sb	a2,1352(sp)
   18110:	54b104a3          	sb	a1,1353(sp)
   18114:	54a10523          	sb	a0,1354(sp)
   18118:	54b10513          	addi	a0,sp,1355
   1811c:	6585                	lui	a1,0x1
   1811e:	32458593          	addi	a1,a1,804 # 1324 <.Lline_table_start1+0x10f9>
   18122:	958a                	add	a1,a1,sp
   18124:	02b00613          	li	a2,43
   18128:	00003097          	auipc	ra,0x3
   1812c:	9dc080e7          	jalr	-1572(ra) # 1ab04 <memcpy>
   18130:	6505                	lui	a0,0x1
   18132:	38050513          	addi	a0,a0,896 # 1380 <.Lline_table_start1+0x1155>
   18136:	950a                	add	a0,a0,sp
   18138:	54410593          	addi	a1,sp,1348
   1813c:	ffffb097          	auipc	ra,0xffffb
   18140:	6c2080e7          	jalr	1730(ra) # 137fe <_ZN20complex_full_dynamic3app17h620fb3c81a52751fE>
   18144:	3eca4503          	lbu	a0,1004(s4)
   18148:	c119                	beqz	a0,1814e <_start+0x14c0>
   1814a:	5ce0206f          	j	1a718 <_start+0x3a8a>
   1814e:	3eea4503          	lbu	a0,1006(s4)
   18152:	3eda4583          	lbu	a1,1005(s4)
   18156:	3efa4603          	lbu	a2,1007(s4)
   1815a:	3f0a2403          	lw	s0,1008(s4)
   1815e:	0522                	slli	a0,a0,0x8
   18160:	8d4d                	or	a0,a0,a1
   18162:	56a11b23          	sh	a0,1398(sp)
   18166:	56c10c23          	sb	a2,1400(sp)
   1816a:	6505                	lui	a0,0x1
   1816c:	38850513          	addi	a0,a0,904 # 1388 <.Lline_table_start1+0x115d>
   18170:	00a105b3          	add	a1,sp,a0
   18174:	6505                	lui	a0,0x1
   18176:	32450513          	addi	a0,a0,804 # 1324 <.Lline_table_start1+0x10f9>
   1817a:	950a                	add	a0,a0,sp
   1817c:	03a00613          	li	a2,58
   18180:	00003097          	auipc	ra,0x3
   18184:	984080e7          	jalr	-1660(ra) # 1ab04 <memcpy>
   18188:	01845513          	srli	a0,s0,0x18
   1818c:	01045593          	srli	a1,s0,0x10
   18190:	00845613          	srli	a2,s0,0x8
   18194:	56810ca3          	sb	s0,1401(sp)
   18198:	56c10d23          	sb	a2,1402(sp)
   1819c:	56b10da3          	sb	a1,1403(sp)
   181a0:	56a10e23          	sb	a0,1404(sp)
   181a4:	57d10513          	addi	a0,sp,1405
   181a8:	6585                	lui	a1,0x1
   181aa:	32458593          	addi	a1,a1,804 # 1324 <.Lline_table_start1+0x10f9>
   181ae:	958a                	add	a1,a1,sp
   181b0:	03a00613          	li	a2,58
   181b4:	00003097          	auipc	ra,0x3
   181b8:	950080e7          	jalr	-1712(ra) # 1ab04 <memcpy>
   181bc:	6505                	lui	a0,0x1
   181be:	38050513          	addi	a0,a0,896 # 1380 <.Lline_table_start1+0x1155>
   181c2:	950a                	add	a0,a0,sp
   181c4:	57610593          	addi	a1,sp,1398
   181c8:	ffffb097          	auipc	ra,0xffffb
   181cc:	b9a080e7          	jalr	-1126(ra) # 12d62 <_ZN20complex_full_dynamic3app17h4c5d6066f1f72c1dE>
   181d0:	3eca4503          	lbu	a0,1004(s4)
   181d4:	c119                	beqz	a0,181da <_start+0x154c>
   181d6:	5420206f          	j	1a718 <_start+0x3a8a>
   181da:	3eea4503          	lbu	a0,1006(s4)
   181de:	3eda4583          	lbu	a1,1005(s4)
   181e2:	3efa4603          	lbu	a2,1007(s4)
   181e6:	3f0a2403          	lw	s0,1008(s4)
   181ea:	0522                	slli	a0,a0,0x8
   181ec:	8d4d                	or	a0,a0,a1
   181ee:	5aa11c23          	sh	a0,1464(sp)
   181f2:	5ac10d23          	sb	a2,1466(sp)
   181f6:	6505                	lui	a0,0x1
   181f8:	38850513          	addi	a0,a0,904 # 1388 <.Lline_table_start1+0x115d>
   181fc:	00a105b3          	add	a1,sp,a0
   18200:	6505                	lui	a0,0x1
   18202:	32450513          	addi	a0,a0,804 # 1324 <.Lline_table_start1+0x10f9>
   18206:	950a                	add	a0,a0,sp
   18208:	466d                	li	a2,27
   1820a:	00003097          	auipc	ra,0x3
   1820e:	8fa080e7          	jalr	-1798(ra) # 1ab04 <memcpy>
   18212:	01845513          	srli	a0,s0,0x18
   18216:	01045593          	srli	a1,s0,0x10
   1821a:	00845613          	srli	a2,s0,0x8
   1821e:	5a810da3          	sb	s0,1467(sp)
   18222:	5ac10e23          	sb	a2,1468(sp)
   18226:	5ab10ea3          	sb	a1,1469(sp)
   1822a:	5aa10f23          	sb	a0,1470(sp)
   1822e:	5bf10513          	addi	a0,sp,1471
   18232:	6585                	lui	a1,0x1
   18234:	32458593          	addi	a1,a1,804 # 1324 <.Lline_table_start1+0x10f9>
   18238:	958a                	add	a1,a1,sp
   1823a:	466d                	li	a2,27
   1823c:	00003097          	auipc	ra,0x3
   18240:	8c8080e7          	jalr	-1848(ra) # 1ab04 <memcpy>
   18244:	6505                	lui	a0,0x1
   18246:	38050513          	addi	a0,a0,896 # 1380 <.Lline_table_start1+0x1155>
   1824a:	950a                	add	a0,a0,sp
   1824c:	5b810593          	addi	a1,sp,1464
   18250:	ffffd097          	auipc	ra,0xffffd
   18254:	ff4080e7          	jalr	-12(ra) # 15244 <_ZN20complex_full_dynamic3app17hb0756f78be30c3d2E>
   18258:	3eca4503          	lbu	a0,1004(s4)
   1825c:	c119                	beqz	a0,18262 <_start+0x15d4>
   1825e:	4ba0206f          	j	1a718 <_start+0x3a8a>
   18262:	3eea4503          	lbu	a0,1006(s4)
   18266:	3eda4583          	lbu	a1,1005(s4)
   1826a:	3efa4603          	lbu	a2,1007(s4)
   1826e:	3f0a2403          	lw	s0,1008(s4)
   18272:	0522                	slli	a0,a0,0x8
   18274:	8d4d                	or	a0,a0,a1
   18276:	5ca11d23          	sh	a0,1498(sp)
   1827a:	5cc10e23          	sb	a2,1500(sp)
   1827e:	6505                	lui	a0,0x1
   18280:	38850513          	addi	a0,a0,904 # 1388 <.Lline_table_start1+0x115d>
   18284:	00a105b3          	add	a1,sp,a0
   18288:	6505                	lui	a0,0x1
   1828a:	32450513          	addi	a0,a0,804 # 1324 <.Lline_table_start1+0x10f9>
   1828e:	950a                	add	a0,a0,sp
   18290:	04a00613          	li	a2,74
   18294:	00003097          	auipc	ra,0x3
   18298:	870080e7          	jalr	-1936(ra) # 1ab04 <memcpy>
   1829c:	01845513          	srli	a0,s0,0x18
   182a0:	01045593          	srli	a1,s0,0x10
   182a4:	00845613          	srli	a2,s0,0x8
   182a8:	5c810ea3          	sb	s0,1501(sp)
   182ac:	5cc10f23          	sb	a2,1502(sp)
   182b0:	5cb10fa3          	sb	a1,1503(sp)
   182b4:	5ea10023          	sb	a0,1504(sp)
   182b8:	5e110513          	addi	a0,sp,1505
   182bc:	6585                	lui	a1,0x1
   182be:	32458593          	addi	a1,a1,804 # 1324 <.Lline_table_start1+0x10f9>
   182c2:	958a                	add	a1,a1,sp
   182c4:	04a00613          	li	a2,74
   182c8:	00003097          	auipc	ra,0x3
   182cc:	83c080e7          	jalr	-1988(ra) # 1ab04 <memcpy>
   182d0:	6505                	lui	a0,0x1
   182d2:	38050513          	addi	a0,a0,896 # 1380 <.Lline_table_start1+0x1155>
   182d6:	950a                	add	a0,a0,sp
   182d8:	5da10593          	addi	a1,sp,1498
   182dc:	ffffa097          	auipc	ra,0xffffa
   182e0:	2ba080e7          	jalr	698(ra) # 12596 <_ZN20complex_full_dynamic3app17h3281e6d75ffb287aE>
   182e4:	3eca4503          	lbu	a0,1004(s4)
   182e8:	c119                	beqz	a0,182ee <_start+0x1660>
   182ea:	42e0206f          	j	1a718 <_start+0x3a8a>
   182ee:	3eea4503          	lbu	a0,1006(s4)
   182f2:	3eda4583          	lbu	a1,1005(s4)
   182f6:	3efa4603          	lbu	a2,1007(s4)
   182fa:	3f0a2403          	lw	s0,1008(s4)
   182fe:	0522                	slli	a0,a0,0x8
   18300:	8d4d                	or	a0,a0,a1
   18302:	62a11623          	sh	a0,1580(sp)
   18306:	62c10723          	sb	a2,1582(sp)
   1830a:	6505                	lui	a0,0x1
   1830c:	38850513          	addi	a0,a0,904 # 1388 <.Lline_table_start1+0x115d>
   18310:	00a105b3          	add	a1,sp,a0
   18314:	6505                	lui	a0,0x1
   18316:	32450513          	addi	a0,a0,804 # 1324 <.Lline_table_start1+0x10f9>
   1831a:	950a                	add	a0,a0,sp
   1831c:	04800613          	li	a2,72
   18320:	00002097          	auipc	ra,0x2
   18324:	7e4080e7          	jalr	2020(ra) # 1ab04 <memcpy>
   18328:	01845513          	srli	a0,s0,0x18
   1832c:	01045593          	srli	a1,s0,0x10
   18330:	00845613          	srli	a2,s0,0x8
   18334:	628107a3          	sb	s0,1583(sp)
   18338:	62c10823          	sb	a2,1584(sp)
   1833c:	62b108a3          	sb	a1,1585(sp)
   18340:	62a10923          	sb	a0,1586(sp)
   18344:	63310513          	addi	a0,sp,1587
   18348:	6585                	lui	a1,0x1
   1834a:	32458593          	addi	a1,a1,804 # 1324 <.Lline_table_start1+0x10f9>
   1834e:	958a                	add	a1,a1,sp
   18350:	04800613          	li	a2,72
   18354:	00002097          	auipc	ra,0x2
   18358:	7b0080e7          	jalr	1968(ra) # 1ab04 <memcpy>
   1835c:	6505                	lui	a0,0x1
   1835e:	38050513          	addi	a0,a0,896 # 1380 <.Lline_table_start1+0x1155>
   18362:	950a                	add	a0,a0,sp
   18364:	62c10593          	addi	a1,sp,1580
   18368:	ffffd097          	auipc	ra,0xffffd
   1836c:	afa080e7          	jalr	-1286(ra) # 14e62 <_ZN20complex_full_dynamic3app17ha64e6d480426f8bbE>
   18370:	3eca4503          	lbu	a0,1004(s4)
   18374:	c119                	beqz	a0,1837a <_start+0x16ec>
   18376:	3a20206f          	j	1a718 <_start+0x3a8a>
   1837a:	3eea4503          	lbu	a0,1006(s4)
   1837e:	3eda4583          	lbu	a1,1005(s4)
   18382:	3efa4603          	lbu	a2,1007(s4)
   18386:	3f0a2403          	lw	s0,1008(s4)
   1838a:	0522                	slli	a0,a0,0x8
   1838c:	8d4d                	or	a0,a0,a1
   1838e:	66a11e23          	sh	a0,1660(sp)
   18392:	66c10f23          	sb	a2,1662(sp)
   18396:	6505                	lui	a0,0x1
   18398:	38850513          	addi	a0,a0,904 # 1388 <.Lline_table_start1+0x115d>
   1839c:	00a105b3          	add	a1,sp,a0
   183a0:	6505                	lui	a0,0x1
   183a2:	32450513          	addi	a0,a0,804 # 1324 <.Lline_table_start1+0x10f9>
   183a6:	950a                	add	a0,a0,sp
   183a8:	03400613          	li	a2,52
   183ac:	00002097          	auipc	ra,0x2
   183b0:	758080e7          	jalr	1880(ra) # 1ab04 <memcpy>
   183b4:	01845513          	srli	a0,s0,0x18
   183b8:	01045593          	srli	a1,s0,0x10
   183bc:	00845613          	srli	a2,s0,0x8
   183c0:	66810fa3          	sb	s0,1663(sp)
   183c4:	68c10023          	sb	a2,1664(sp)
   183c8:	68b100a3          	sb	a1,1665(sp)
   183cc:	68a10123          	sb	a0,1666(sp)
   183d0:	68310513          	addi	a0,sp,1667
   183d4:	6585                	lui	a1,0x1
   183d6:	32458593          	addi	a1,a1,804 # 1324 <.Lline_table_start1+0x10f9>
   183da:	958a                	add	a1,a1,sp
   183dc:	03400613          	li	a2,52
   183e0:	00002097          	auipc	ra,0x2
   183e4:	724080e7          	jalr	1828(ra) # 1ab04 <memcpy>
   183e8:	6505                	lui	a0,0x1
   183ea:	38050513          	addi	a0,a0,896 # 1380 <.Lline_table_start1+0x1155>
   183ee:	950a                	add	a0,a0,sp
   183f0:	67c10593          	addi	a1,sp,1660
   183f4:	ffffd097          	auipc	ra,0xffffd
   183f8:	046080e7          	jalr	70(ra) # 1543a <_ZN20complex_full_dynamic3app17hb2449913d96c609dE>
   183fc:	3eca4503          	lbu	a0,1004(s4)
   18400:	c119                	beqz	a0,18406 <_start+0x1778>
   18402:	3160206f          	j	1a718 <_start+0x3a8a>
   18406:	3eea4503          	lbu	a0,1006(s4)
   1840a:	3eda4583          	lbu	a1,1005(s4)
   1840e:	3efa4603          	lbu	a2,1007(s4)
   18412:	3f0a2403          	lw	s0,1008(s4)
   18416:	0522                	slli	a0,a0,0x8
   18418:	8d4d                	or	a0,a0,a1
   1841a:	6aa11c23          	sh	a0,1720(sp)
   1841e:	6ac10d23          	sb	a2,1722(sp)
   18422:	6505                	lui	a0,0x1
   18424:	38850513          	addi	a0,a0,904 # 1388 <.Lline_table_start1+0x115d>
   18428:	00a105b3          	add	a1,sp,a0
   1842c:	6505                	lui	a0,0x1
   1842e:	32450513          	addi	a0,a0,804 # 1324 <.Lline_table_start1+0x10f9>
   18432:	950a                	add	a0,a0,sp
   18434:	02000613          	li	a2,32
   18438:	00002097          	auipc	ra,0x2
   1843c:	6cc080e7          	jalr	1740(ra) # 1ab04 <memcpy>
   18440:	01845513          	srli	a0,s0,0x18
   18444:	01045593          	srli	a1,s0,0x10
   18448:	00845613          	srli	a2,s0,0x8
   1844c:	6a810da3          	sb	s0,1723(sp)
   18450:	6ac10e23          	sb	a2,1724(sp)
   18454:	6ab10ea3          	sb	a1,1725(sp)
   18458:	6aa10f23          	sb	a0,1726(sp)
   1845c:	6bf10513          	addi	a0,sp,1727
   18460:	6585                	lui	a1,0x1
   18462:	32458593          	addi	a1,a1,804 # 1324 <.Lline_table_start1+0x10f9>
   18466:	958a                	add	a1,a1,sp
   18468:	02000613          	li	a2,32
   1846c:	00002097          	auipc	ra,0x2
   18470:	698080e7          	jalr	1688(ra) # 1ab04 <memcpy>
   18474:	6505                	lui	a0,0x1
   18476:	38050513          	addi	a0,a0,896 # 1380 <.Lline_table_start1+0x1155>
   1847a:	950a                	add	a0,a0,sp
   1847c:	6b810593          	addi	a1,sp,1720
   18480:	ffffa097          	auipc	ra,0xffffa
   18484:	502080e7          	jalr	1282(ra) # 12982 <_ZN20complex_full_dynamic3app17h373ec9782e631a79E>
   18488:	3eca4503          	lbu	a0,1004(s4)
   1848c:	c119                	beqz	a0,18492 <_start+0x1804>
   1848e:	28a0206f          	j	1a718 <_start+0x3a8a>
   18492:	3eda4503          	lbu	a0,1005(s4)
   18496:	3eea4583          	lbu	a1,1006(s4)
   1849a:	3efa4603          	lbu	a2,1007(s4)
   1849e:	3f0a2683          	lw	a3,1008(s4)
   184a2:	3f4a2703          	lw	a4,1012(s4)
   184a6:	3f8a2783          	lw	a5,1016(s4)
   184aa:	3fca2483          	lw	s1,1020(s4)
   184ae:	400a4403          	lbu	s0,1024(s4)
   184b2:	05a2                	slli	a1,a1,0x8
   184b4:	38ea2823          	sw	a4,912(s4)
   184b8:	38fa2a23          	sw	a5,916(s4)
   184bc:	389a2c23          	sw	s1,920(s4)
   184c0:	388a0e23          	sb	s0,924(s4)
   184c4:	0186d713          	srli	a4,a3,0x18
   184c8:	8d4d                	or	a0,a0,a1
   184ca:	0106d593          	srli	a1,a3,0x10
   184ce:	6eb102a3          	sb	a1,1765(sp)
   184d2:	6ee10323          	sb	a4,1766(sp)
   184d6:	0086d593          	srli	a1,a3,0x8
   184da:	6ea11023          	sh	a0,1760(sp)
   184de:	6ec10123          	sb	a2,1762(sp)
   184e2:	6ed101a3          	sb	a3,1763(sp)
   184e6:	6eb10223          	sb	a1,1764(sp)
   184ea:	6e710513          	addi	a0,sp,1767
   184ee:	6585                	lui	a1,0x1
   184f0:	32458593          	addi	a1,a1,804 # 1324 <.Lline_table_start1+0x10f9>
   184f4:	958a                	add	a1,a1,sp
   184f6:	4635                	li	a2,13
   184f8:	00002097          	auipc	ra,0x2
   184fc:	60c080e7          	jalr	1548(ra) # 1ab04 <memcpy>
   18500:	6505                	lui	a0,0x1
   18502:	38050513          	addi	a0,a0,896 # 1380 <.Lline_table_start1+0x1155>
   18506:	950a                	add	a0,a0,sp
   18508:	6e010593          	addi	a1,sp,1760
   1850c:	ffffd097          	auipc	ra,0xffffd
   18510:	406080e7          	jalr	1030(ra) # 15912 <_ZN20complex_full_dynamic3app17hc274c0f7c7c1ac14E>
   18514:	3eca4503          	lbu	a0,1004(s4)
   18518:	c119                	beqz	a0,1851e <_start+0x1890>
   1851a:	1fe0206f          	j	1a718 <_start+0x3a8a>
   1851e:	3eea4503          	lbu	a0,1006(s4)
   18522:	3eda4583          	lbu	a1,1005(s4)
   18526:	3efa4603          	lbu	a2,1007(s4)
   1852a:	3f0a2403          	lw	s0,1008(s4)
   1852e:	0522                	slli	a0,a0,0x8
   18530:	8d4d                	or	a0,a0,a1
   18532:	6ea11a23          	sh	a0,1780(sp)
   18536:	6ec10b23          	sb	a2,1782(sp)
   1853a:	6505                	lui	a0,0x1
   1853c:	38850513          	addi	a0,a0,904 # 1388 <.Lline_table_start1+0x115d>
   18540:	00a105b3          	add	a1,sp,a0
   18544:	6505                	lui	a0,0x1
   18546:	32450513          	addi	a0,a0,804 # 1324 <.Lline_table_start1+0x10f9>
   1854a:	950a                	add	a0,a0,sp
   1854c:	02400613          	li	a2,36
   18550:	00002097          	auipc	ra,0x2
   18554:	5b4080e7          	jalr	1460(ra) # 1ab04 <memcpy>
   18558:	01845513          	srli	a0,s0,0x18
   1855c:	01045593          	srli	a1,s0,0x10
   18560:	00845613          	srli	a2,s0,0x8
   18564:	6e810ba3          	sb	s0,1783(sp)
   18568:	6ec10c23          	sb	a2,1784(sp)
   1856c:	6eb10ca3          	sb	a1,1785(sp)
   18570:	6ea10d23          	sb	a0,1786(sp)
   18574:	6fb10513          	addi	a0,sp,1787
   18578:	6585                	lui	a1,0x1
   1857a:	32458593          	addi	a1,a1,804 # 1324 <.Lline_table_start1+0x10f9>
   1857e:	958a                	add	a1,a1,sp
   18580:	02400613          	li	a2,36
   18584:	00002097          	auipc	ra,0x2
   18588:	580080e7          	jalr	1408(ra) # 1ab04 <memcpy>
   1858c:	6505                	lui	a0,0x1
   1858e:	38050513          	addi	a0,a0,896 # 1380 <.Lline_table_start1+0x1155>
   18592:	950a                	add	a0,a0,sp
   18594:	6f410593          	addi	a1,sp,1780
   18598:	ffffc097          	auipc	ra,0xffffc
   1859c:	d28080e7          	jalr	-728(ra) # 142c0 <_ZN20complex_full_dynamic3app17h7ef4cde519d142e4E>
   185a0:	3eca4503          	lbu	a0,1004(s4)
   185a4:	c119                	beqz	a0,185aa <_start+0x191c>
   185a6:	1720206f          	j	1a718 <_start+0x3a8a>
   185aa:	3eea4503          	lbu	a0,1006(s4)
   185ae:	3eda4583          	lbu	a1,1005(s4)
   185b2:	3efa4603          	lbu	a2,1007(s4)
   185b6:	3f0a2403          	lw	s0,1008(s4)
   185ba:	0522                	slli	a0,a0,0x8
   185bc:	8d4d                	or	a0,a0,a1
   185be:	72a11023          	sh	a0,1824(sp)
   185c2:	72c10123          	sb	a2,1826(sp)
   185c6:	6505                	lui	a0,0x1
   185c8:	38850513          	addi	a0,a0,904 # 1388 <.Lline_table_start1+0x115d>
   185cc:	00a105b3          	add	a1,sp,a0
   185d0:	6505                	lui	a0,0x1
   185d2:	32450513          	addi	a0,a0,804 # 1324 <.Lline_table_start1+0x10f9>
   185d6:	950a                	add	a0,a0,sp
   185d8:	465d                	li	a2,23
   185da:	00002097          	auipc	ra,0x2
   185de:	52a080e7          	jalr	1322(ra) # 1ab04 <memcpy>
   185e2:	01845513          	srli	a0,s0,0x18
   185e6:	01045593          	srli	a1,s0,0x10
   185ea:	00845613          	srli	a2,s0,0x8
   185ee:	728101a3          	sb	s0,1827(sp)
   185f2:	72c10223          	sb	a2,1828(sp)
   185f6:	72b102a3          	sb	a1,1829(sp)
   185fa:	72a10323          	sb	a0,1830(sp)
   185fe:	72710513          	addi	a0,sp,1831
   18602:	6585                	lui	a1,0x1
   18604:	32458593          	addi	a1,a1,804 # 1324 <.Lline_table_start1+0x10f9>
   18608:	958a                	add	a1,a1,sp
   1860a:	465d                	li	a2,23
   1860c:	00002097          	auipc	ra,0x2
   18610:	4f8080e7          	jalr	1272(ra) # 1ab04 <memcpy>
   18614:	6505                	lui	a0,0x1
   18616:	38050513          	addi	a0,a0,896 # 1380 <.Lline_table_start1+0x1155>
   1861a:	950a                	add	a0,a0,sp
   1861c:	72010593          	addi	a1,sp,1824
   18620:	ffffb097          	auipc	ra,0xffffb
   18624:	b22080e7          	jalr	-1246(ra) # 13142 <_ZN20complex_full_dynamic3app17h555c9611af221266E>
   18628:	3eca4503          	lbu	a0,1004(s4)
   1862c:	c119                	beqz	a0,18632 <_start+0x19a4>
   1862e:	0ea0206f          	j	1a718 <_start+0x3a8a>
   18632:	3eea4503          	lbu	a0,1006(s4)
   18636:	3eda4583          	lbu	a1,1005(s4)
   1863a:	3efa4603          	lbu	a2,1007(s4)
   1863e:	3f0a2403          	lw	s0,1008(s4)
   18642:	0522                	slli	a0,a0,0x8
   18644:	8d4d                	or	a0,a0,a1
   18646:	72a11f23          	sh	a0,1854(sp)
   1864a:	74c10023          	sb	a2,1856(sp)
   1864e:	6505                	lui	a0,0x1
   18650:	38850513          	addi	a0,a0,904 # 1388 <.Lline_table_start1+0x115d>
   18654:	00a105b3          	add	a1,sp,a0
   18658:	6505                	lui	a0,0x1
   1865a:	32450513          	addi	a0,a0,804 # 1324 <.Lline_table_start1+0x10f9>
   1865e:	950a                	add	a0,a0,sp
   18660:	04a00613          	li	a2,74
   18664:	00002097          	auipc	ra,0x2
   18668:	4a0080e7          	jalr	1184(ra) # 1ab04 <memcpy>
   1866c:	01845513          	srli	a0,s0,0x18
   18670:	01045593          	srli	a1,s0,0x10
   18674:	00845613          	srli	a2,s0,0x8
   18678:	748100a3          	sb	s0,1857(sp)
   1867c:	74c10123          	sb	a2,1858(sp)
   18680:	74b101a3          	sb	a1,1859(sp)
   18684:	74a10223          	sb	a0,1860(sp)
   18688:	74510513          	addi	a0,sp,1861
   1868c:	6585                	lui	a1,0x1
   1868e:	32458593          	addi	a1,a1,804 # 1324 <.Lline_table_start1+0x10f9>
   18692:	958a                	add	a1,a1,sp
   18694:	04a00613          	li	a2,74
   18698:	00002097          	auipc	ra,0x2
   1869c:	46c080e7          	jalr	1132(ra) # 1ab04 <memcpy>
   186a0:	6505                	lui	a0,0x1
   186a2:	38050513          	addi	a0,a0,896 # 1380 <.Lline_table_start1+0x1155>
   186a6:	950a                	add	a0,a0,sp
   186a8:	73e10593          	addi	a1,sp,1854
   186ac:	ffffd097          	auipc	ra,0xffffd
   186b0:	748080e7          	jalr	1864(ra) # 15df4 <_ZN20complex_full_dynamic3app17hdb451d42526cf3b7E>
   186b4:	3eca4503          	lbu	a0,1004(s4)
   186b8:	c119                	beqz	a0,186be <_start+0x1a30>
   186ba:	05e0206f          	j	1a718 <_start+0x3a8a>
   186be:	79210913          	addi	s2,sp,1938
   186c2:	3eda4503          	lbu	a0,1005(s4)
   186c6:	3eea4583          	lbu	a1,1006(s4)
   186ca:	3efa4803          	lbu	a6,1007(s4)
   186ce:	3f0a2683          	lw	a3,1008(s4)
   186d2:	3f4a2703          	lw	a4,1012(s4)
   186d6:	3f8a2783          	lw	a5,1016(s4)
   186da:	05a2                	slli	a1,a1,0x8
   186dc:	0186d893          	srli	a7,a3,0x18
   186e0:	0106d293          	srli	t0,a3,0x10
   186e4:	0187d613          	srli	a2,a5,0x18
   186e8:	0107d493          	srli	s1,a5,0x10
   186ec:	0087d413          	srli	s0,a5,0x8
   186f0:	8d4d                	or	a0,a0,a1
   186f2:	01875593          	srli	a1,a4,0x18
   186f6:	009905a3          	sb	s1,11(s2)
   186fa:	00c90623          	sb	a2,12(s2)
   186fe:	01075613          	srli	a2,a4,0x10
   18702:	00c903a3          	sb	a2,7(s2)
   18706:	00b90423          	sb	a1,8(s2)
   1870a:	00f904a3          	sb	a5,9(s2)
   1870e:	00890523          	sb	s0,10(s2)
   18712:	0086d593          	srli	a1,a3,0x8
   18716:	fea91f23          	sh	a0,-2(s2)
   1871a:	01090023          	sb	a6,0(s2)
   1871e:	00d900a3          	sb	a3,1(s2)
   18722:	00b90123          	sb	a1,2(s2)
   18726:	00875513          	srli	a0,a4,0x8
   1872a:	005901a3          	sb	t0,3(s2)
   1872e:	01190223          	sb	a7,4(s2)
   18732:	00e902a3          	sb	a4,5(s2)
   18736:	00a90323          	sb	a0,6(s2)
   1873a:	6505                	lui	a0,0x1
   1873c:	38050513          	addi	a0,a0,896 # 1380 <.Lline_table_start1+0x1155>
   18740:	950a                	add	a0,a0,sp
   18742:	79010593          	addi	a1,sp,1936
   18746:	ffffc097          	auipc	ra,0xffffc
   1874a:	33e080e7          	jalr	830(ra) # 14a84 <_ZN20complex_full_dynamic3app17h95d4581d17b121d7E>
   1874e:	3eca4503          	lbu	a0,1004(s4)
   18752:	c119                	beqz	a0,18758 <_start+0x1aca>
   18754:	7c50106f          	j	1a718 <_start+0x3a8a>
   18758:	3eea4503          	lbu	a0,1006(s4)
   1875c:	3eda4583          	lbu	a1,1005(s4)
   18760:	3efa4603          	lbu	a2,1007(s4)
   18764:	3f0a2403          	lw	s0,1008(s4)
   18768:	0522                	slli	a0,a0,0x8
   1876a:	8d4d                	or	a0,a0,a1
   1876c:	00a91723          	sh	a0,14(s2)
   18770:	00c90823          	sb	a2,16(s2)
   18774:	6505                	lui	a0,0x1
   18776:	38850513          	addi	a0,a0,904 # 1388 <.Lline_table_start1+0x115d>
   1877a:	00a105b3          	add	a1,sp,a0
   1877e:	6505                	lui	a0,0x1
   18780:	32450513          	addi	a0,a0,804 # 1324 <.Lline_table_start1+0x10f9>
   18784:	950a                	add	a0,a0,sp
   18786:	03f00613          	li	a2,63
   1878a:	00002097          	auipc	ra,0x2
   1878e:	37a080e7          	jalr	890(ra) # 1ab04 <memcpy>
   18792:	01845513          	srli	a0,s0,0x18
   18796:	01045593          	srli	a1,s0,0x10
   1879a:	00845613          	srli	a2,s0,0x8
   1879e:	008908a3          	sb	s0,17(s2)
   187a2:	00c90923          	sb	a2,18(s2)
   187a6:	00b909a3          	sb	a1,19(s2)
   187aa:	00a90a23          	sb	a0,20(s2)
   187ae:	7a710513          	addi	a0,sp,1959
   187b2:	6585                	lui	a1,0x1
   187b4:	32458593          	addi	a1,a1,804 # 1324 <.Lline_table_start1+0x10f9>
   187b8:	958a                	add	a1,a1,sp
   187ba:	03f00613          	li	a2,63
   187be:	00002097          	auipc	ra,0x2
   187c2:	346080e7          	jalr	838(ra) # 1ab04 <memcpy>
   187c6:	6505                	lui	a0,0x1
   187c8:	38050513          	addi	a0,a0,896 # 1380 <.Lline_table_start1+0x1155>
   187cc:	950a                	add	a0,a0,sp
   187ce:	7a010593          	addi	a1,sp,1952
   187d2:	ffffe097          	auipc	ra,0xffffe
   187d6:	a06080e7          	jalr	-1530(ra) # 161d8 <_ZN20complex_full_dynamic3app17hf18a00dfc1ebf22fE>
   187da:	3eca4503          	lbu	a0,1004(s4)
   187de:	c119                	beqz	a0,187e4 <_start+0x1b56>
   187e0:	7390106f          	j	1a718 <_start+0x3a8a>
   187e4:	3eea4503          	lbu	a0,1006(s4)
   187e8:	3eda4583          	lbu	a1,1005(s4)
   187ec:	3efa4603          	lbu	a2,1007(s4)
   187f0:	3f0a2403          	lw	s0,1008(s4)
   187f4:	0522                	slli	a0,a0,0x8
   187f6:	8d4d                	or	a0,a0,a1
   187f8:	04a91a23          	sh	a0,84(s2)
   187fc:	04c90b23          	sb	a2,86(s2)
   18800:	6505                	lui	a0,0x1
   18802:	38850513          	addi	a0,a0,904 # 1388 <.Lline_table_start1+0x115d>
   18806:	00a105b3          	add	a1,sp,a0
   1880a:	6505                	lui	a0,0x1
   1880c:	32450513          	addi	a0,a0,804 # 1324 <.Lline_table_start1+0x10f9>
   18810:	950a                	add	a0,a0,sp
   18812:	04f00613          	li	a2,79
   18816:	00002097          	auipc	ra,0x2
   1881a:	2ee080e7          	jalr	750(ra) # 1ab04 <memcpy>
   1881e:	01845513          	srli	a0,s0,0x18
   18822:	01045593          	srli	a1,s0,0x10
   18826:	00845613          	srli	a2,s0,0x8
   1882a:	04890ba3          	sb	s0,87(s2)
   1882e:	04c90c23          	sb	a2,88(s2)
   18832:	04b90ca3          	sb	a1,89(s2)
   18836:	04a90d23          	sb	a0,90(s2)
   1883a:	7ed10513          	addi	a0,sp,2029
   1883e:	6585                	lui	a1,0x1
   18840:	32458593          	addi	a1,a1,804 # 1324 <.Lline_table_start1+0x10f9>
   18844:	958a                	add	a1,a1,sp
   18846:	04f00613          	li	a2,79
   1884a:	00002097          	auipc	ra,0x2
   1884e:	2ba080e7          	jalr	698(ra) # 1ab04 <memcpy>
   18852:	6505                	lui	a0,0x1
   18854:	38050513          	addi	a0,a0,896 # 1380 <.Lline_table_start1+0x1155>
   18858:	950a                	add	a0,a0,sp
   1885a:	7e610593          	addi	a1,sp,2022
   1885e:	ffffe097          	auipc	ra,0xffffe
   18862:	a74080e7          	jalr	-1420(ra) # 162d2 <_ZN20complex_full_dynamic3app17hf20026435fd71c57E>
   18866:	3eca4503          	lbu	a0,1004(s4)
   1886a:	c119                	beqz	a0,18870 <_start+0x1be2>
   1886c:	6ad0106f          	j	1a718 <_start+0x3a8a>
   18870:	3eea4503          	lbu	a0,1006(s4)
   18874:	3eda4583          	lbu	a1,1005(s4)
   18878:	3efa4603          	lbu	a2,1007(s4)
   1887c:	3f0a2403          	lw	s0,1008(s4)
   18880:	0522                	slli	a0,a0,0x8
   18882:	8d4d                	or	a0,a0,a1
   18884:	0aa91523          	sh	a0,170(s2)
   18888:	0ac90623          	sb	a2,172(s2)
   1888c:	6505                	lui	a0,0x1
   1888e:	38850513          	addi	a0,a0,904 # 1388 <.Lline_table_start1+0x115d>
   18892:	00a105b3          	add	a1,sp,a0
   18896:	6505                	lui	a0,0x1
   18898:	32450513          	addi	a0,a0,804 # 1324 <.Lline_table_start1+0x10f9>
   1889c:	950a                	add	a0,a0,sp
   1889e:	04200613          	li	a2,66
   188a2:	00002097          	auipc	ra,0x2
   188a6:	262080e7          	jalr	610(ra) # 1ab04 <memcpy>
   188aa:	01845513          	srli	a0,s0,0x18
   188ae:	01045593          	srli	a1,s0,0x10
   188b2:	00845613          	srli	a2,s0,0x8
   188b6:	0a8906a3          	sb	s0,173(s2)
   188ba:	0ac90723          	sb	a2,174(s2)
   188be:	0ab907a3          	sb	a1,175(s2)
   188c2:	0aa90823          	sb	a0,176(s2)
   188c6:	7ff10513          	addi	a0,sp,2047
   188ca:	04450513          	addi	a0,a0,68
   188ce:	6585                	lui	a1,0x1
   188d0:	32458593          	addi	a1,a1,804 # 1324 <.Lline_table_start1+0x10f9>
   188d4:	958a                	add	a1,a1,sp
   188d6:	04200613          	li	a2,66
   188da:	00002097          	auipc	ra,0x2
   188de:	22a080e7          	jalr	554(ra) # 1ab04 <memcpy>
   188e2:	6505                	lui	a0,0x1
   188e4:	38050513          	addi	a0,a0,896 # 1380 <.Lline_table_start1+0x1155>
   188e8:	950a                	add	a0,a0,sp
   188ea:	7ff10593          	addi	a1,sp,2047
   188ee:	03d58593          	addi	a1,a1,61
   188f2:	ffffb097          	auipc	ra,0xffffb
   188f6:	2f4080e7          	jalr	756(ra) # 13be6 <_ZN20complex_full_dynamic3app17h77a3783f93b10908E>
   188fa:	3eca4503          	lbu	a0,1004(s4)
   188fe:	c119                	beqz	a0,18904 <_start+0x1c76>
   18900:	6190106f          	j	1a718 <_start+0x3a8a>
   18904:	3eea4503          	lbu	a0,1006(s4)
   18908:	3eda4583          	lbu	a1,1005(s4)
   1890c:	3efa4603          	lbu	a2,1007(s4)
   18910:	3f0a2403          	lw	s0,1008(s4)
   18914:	0522                	slli	a0,a0,0x8
   18916:	8d4d                	or	a0,a0,a1
   18918:	0ea91a23          	sh	a0,244(s2)
   1891c:	0ec90b23          	sb	a2,246(s2)
   18920:	6505                	lui	a0,0x1
   18922:	38850513          	addi	a0,a0,904 # 1388 <.Lline_table_start1+0x115d>
   18926:	00a105b3          	add	a1,sp,a0
   1892a:	6505                	lui	a0,0x1
   1892c:	32450513          	addi	a0,a0,804 # 1324 <.Lline_table_start1+0x10f9>
   18930:	950a                	add	a0,a0,sp
   18932:	4671                	li	a2,28
   18934:	00002097          	auipc	ra,0x2
   18938:	1d0080e7          	jalr	464(ra) # 1ab04 <memcpy>
   1893c:	01845513          	srli	a0,s0,0x18
   18940:	01045593          	srli	a1,s0,0x10
   18944:	00845613          	srli	a2,s0,0x8
   18948:	0e890ba3          	sb	s0,247(s2)
   1894c:	0ec90c23          	sb	a2,248(s2)
   18950:	0eb90ca3          	sb	a1,249(s2)
   18954:	0ea90d23          	sb	a0,250(s2)
   18958:	7ff10513          	addi	a0,sp,2047
   1895c:	08e50513          	addi	a0,a0,142
   18960:	6585                	lui	a1,0x1
   18962:	32458593          	addi	a1,a1,804 # 1324 <.Lline_table_start1+0x10f9>
   18966:	958a                	add	a1,a1,sp
   18968:	4671                	li	a2,28
   1896a:	00002097          	auipc	ra,0x2
   1896e:	19a080e7          	jalr	410(ra) # 1ab04 <memcpy>
   18972:	6505                	lui	a0,0x1
   18974:	38050513          	addi	a0,a0,896 # 1380 <.Lline_table_start1+0x1155>
   18978:	950a                	add	a0,a0,sp
   1897a:	7ff10593          	addi	a1,sp,2047
   1897e:	08758593          	addi	a1,a1,135
   18982:	ffff9097          	auipc	ra,0xffff9
   18986:	36a080e7          	jalr	874(ra) # 11cec <_ZN20complex_full_dynamic3app17h1e5f8d7c58c4059fE>
   1898a:	3eca4503          	lbu	a0,1004(s4)
   1898e:	c119                	beqz	a0,18994 <_start+0x1d06>
   18990:	5890106f          	j	1a718 <_start+0x3a8a>
   18994:	3eea4503          	lbu	a0,1006(s4)
   18998:	3eda4583          	lbu	a1,1005(s4)
   1899c:	3efa4603          	lbu	a2,1007(s4)
   189a0:	3f0a2403          	lw	s0,1008(s4)
   189a4:	0522                	slli	a0,a0,0x8
   189a6:	8d4d                	or	a0,a0,a1
   189a8:	10a91c23          	sh	a0,280(s2)
   189ac:	10c90d23          	sb	a2,282(s2)
   189b0:	6505                	lui	a0,0x1
   189b2:	38850513          	addi	a0,a0,904 # 1388 <.Lline_table_start1+0x115d>
   189b6:	00a105b3          	add	a1,sp,a0
   189ba:	6505                	lui	a0,0x1
   189bc:	32450513          	addi	a0,a0,804 # 1324 <.Lline_table_start1+0x10f9>
   189c0:	950a                	add	a0,a0,sp
   189c2:	02400613          	li	a2,36
   189c6:	00002097          	auipc	ra,0x2
   189ca:	13e080e7          	jalr	318(ra) # 1ab04 <memcpy>
   189ce:	01845513          	srli	a0,s0,0x18
   189d2:	01045593          	srli	a1,s0,0x10
   189d6:	00845613          	srli	a2,s0,0x8
   189da:	10890da3          	sb	s0,283(s2)
   189de:	10c90e23          	sb	a2,284(s2)
   189e2:	10b90ea3          	sb	a1,285(s2)
   189e6:	10a90f23          	sb	a0,286(s2)
   189ea:	7ff10513          	addi	a0,sp,2047
   189ee:	0b250513          	addi	a0,a0,178
   189f2:	6585                	lui	a1,0x1
   189f4:	32458593          	addi	a1,a1,804 # 1324 <.Lline_table_start1+0x10f9>
   189f8:	958a                	add	a1,a1,sp
   189fa:	02400613          	li	a2,36
   189fe:	00002097          	auipc	ra,0x2
   18a02:	106080e7          	jalr	262(ra) # 1ab04 <memcpy>
   18a06:	6505                	lui	a0,0x1
   18a08:	38050513          	addi	a0,a0,896 # 1380 <.Lline_table_start1+0x1155>
   18a0c:	950a                	add	a0,a0,sp
   18a0e:	7ff10593          	addi	a1,sp,2047
   18a12:	0ab58593          	addi	a1,a1,171
   18a16:	ffffa097          	auipc	ra,0xffffa
   18a1a:	a90080e7          	jalr	-1392(ra) # 124a6 <_ZN20complex_full_dynamic3app17h322c2b2f146072b1E>
   18a1e:	3eca4503          	lbu	a0,1004(s4)
   18a22:	c119                	beqz	a0,18a28 <_start+0x1d9a>
   18a24:	4f50106f          	j	1a718 <_start+0x3a8a>
   18a28:	3eda4503          	lbu	a0,1005(s4)
   18a2c:	3eea4583          	lbu	a1,1006(s4)
   18a30:	3f4a2603          	lw	a2,1012(s4)
   18a34:	3f8a1683          	lh	a3,1016(s4)
   18a38:	3efa4703          	lbu	a4,1007(s4)
   18a3c:	3f0a2783          	lw	a5,1008(s4)
   18a40:	05a2                	slli	a1,a1,0x8
   18a42:	38ca2823          	sw	a2,912(s4)
   18a46:	38da1a23          	sh	a3,916(s4)
   18a4a:	0187d613          	srli	a2,a5,0x18
   18a4e:	8d4d                	or	a0,a0,a1
   18a50:	0107d593          	srli	a1,a5,0x10
   18a54:	14b904a3          	sb	a1,329(s2)
   18a58:	14c90523          	sb	a2,330(s2)
   18a5c:	0087d593          	srli	a1,a5,0x8
   18a60:	14a91223          	sh	a0,324(s2)
   18a64:	14e90323          	sb	a4,326(s2)
   18a68:	14f903a3          	sb	a5,327(s2)
   18a6c:	14b90423          	sb	a1,328(s2)
   18a70:	7ff10513          	addi	a0,sp,2047
   18a74:	0de50513          	addi	a0,a0,222
   18a78:	6585                	lui	a1,0x1
   18a7a:	32458593          	addi	a1,a1,804 # 1324 <.Lline_table_start1+0x10f9>
   18a7e:	958a                	add	a1,a1,sp
   18a80:	4619                	li	a2,6
   18a82:	00002097          	auipc	ra,0x2
   18a86:	082080e7          	jalr	130(ra) # 1ab04 <memcpy>
   18a8a:	6505                	lui	a0,0x1
   18a8c:	38050513          	addi	a0,a0,896 # 1380 <.Lline_table_start1+0x1155>
   18a90:	950a                	add	a0,a0,sp
   18a92:	7ff10593          	addi	a1,sp,2047
   18a96:	0d758593          	addi	a1,a1,215
   18a9a:	ffffe097          	auipc	ra,0xffffe
   18a9e:	004080e7          	jalr	4(ra) # 16a9e <_ZN20complex_full_dynamic3app17hfe0f8b4e849d39a9E>
   18aa2:	3eca4503          	lbu	a0,1004(s4)
   18aa6:	c119                	beqz	a0,18aac <_start+0x1e1e>
   18aa8:	4710106f          	j	1a718 <_start+0x3a8a>
   18aac:	3eea4503          	lbu	a0,1006(s4)
   18ab0:	3eda4583          	lbu	a1,1005(s4)
   18ab4:	3efa4603          	lbu	a2,1007(s4)
   18ab8:	3f0a2403          	lw	s0,1008(s4)
   18abc:	0522                	slli	a0,a0,0x8
   18abe:	8d4d                	or	a0,a0,a1
   18ac0:	14a91923          	sh	a0,338(s2)
   18ac4:	14c90a23          	sb	a2,340(s2)
   18ac8:	6505                	lui	a0,0x1
   18aca:	38850513          	addi	a0,a0,904 # 1388 <.Lline_table_start1+0x115d>
   18ace:	00a105b3          	add	a1,sp,a0
   18ad2:	6505                	lui	a0,0x1
   18ad4:	32450513          	addi	a0,a0,804 # 1324 <.Lline_table_start1+0x10f9>
   18ad8:	950a                	add	a0,a0,sp
   18ada:	4669                	li	a2,26
   18adc:	00002097          	auipc	ra,0x2
   18ae0:	028080e7          	jalr	40(ra) # 1ab04 <memcpy>
   18ae4:	01845513          	srli	a0,s0,0x18
   18ae8:	01045593          	srli	a1,s0,0x10
   18aec:	00845613          	srli	a2,s0,0x8
   18af0:	14890aa3          	sb	s0,341(s2)
   18af4:	14c90b23          	sb	a2,342(s2)
   18af8:	14b90ba3          	sb	a1,343(s2)
   18afc:	14a90c23          	sb	a0,344(s2)
   18b00:	7ff10513          	addi	a0,sp,2047
   18b04:	0ec50513          	addi	a0,a0,236
   18b08:	6585                	lui	a1,0x1
   18b0a:	32458593          	addi	a1,a1,804 # 1324 <.Lline_table_start1+0x10f9>
   18b0e:	958a                	add	a1,a1,sp
   18b10:	4669                	li	a2,26
   18b12:	00002097          	auipc	ra,0x2
   18b16:	ff2080e7          	jalr	-14(ra) # 1ab04 <memcpy>
   18b1a:	6505                	lui	a0,0x1
   18b1c:	38050513          	addi	a0,a0,896 # 1380 <.Lline_table_start1+0x1155>
   18b20:	950a                	add	a0,a0,sp
   18b22:	7ff10593          	addi	a1,sp,2047
   18b26:	0e558593          	addi	a1,a1,229
   18b2a:	ffffc097          	auipc	ra,0xffffc
   18b2e:	434080e7          	jalr	1076(ra) # 14f5e <_ZN20complex_full_dynamic3app17ha6662018a611872bE>
   18b32:	3eca4503          	lbu	a0,1004(s4)
   18b36:	c119                	beqz	a0,18b3c <_start+0x1eae>
   18b38:	3e10106f          	j	1a718 <_start+0x3a8a>
   18b3c:	3eea4503          	lbu	a0,1006(s4)
   18b40:	3eda4583          	lbu	a1,1005(s4)
   18b44:	3efa4603          	lbu	a2,1007(s4)
   18b48:	3f0a2403          	lw	s0,1008(s4)
   18b4c:	0522                	slli	a0,a0,0x8
   18b4e:	8d4d                	or	a0,a0,a1
   18b50:	16a91a23          	sh	a0,372(s2)
   18b54:	16c90b23          	sb	a2,374(s2)
   18b58:	6505                	lui	a0,0x1
   18b5a:	38850513          	addi	a0,a0,904 # 1388 <.Lline_table_start1+0x115d>
   18b5e:	00a105b3          	add	a1,sp,a0
   18b62:	6505                	lui	a0,0x1
   18b64:	32450513          	addi	a0,a0,804 # 1324 <.Lline_table_start1+0x10f9>
   18b68:	950a                	add	a0,a0,sp
   18b6a:	04c00613          	li	a2,76
   18b6e:	00002097          	auipc	ra,0x2
   18b72:	f96080e7          	jalr	-106(ra) # 1ab04 <memcpy>
   18b76:	01845513          	srli	a0,s0,0x18
   18b7a:	01045593          	srli	a1,s0,0x10
   18b7e:	00845613          	srli	a2,s0,0x8
   18b82:	16890ba3          	sb	s0,375(s2)
   18b86:	16c90c23          	sb	a2,376(s2)
   18b8a:	16b90ca3          	sb	a1,377(s2)
   18b8e:	16a90d23          	sb	a0,378(s2)
   18b92:	7ff10513          	addi	a0,sp,2047
   18b96:	10e50513          	addi	a0,a0,270
   18b9a:	6585                	lui	a1,0x1
   18b9c:	32458593          	addi	a1,a1,804 # 1324 <.Lline_table_start1+0x10f9>
   18ba0:	958a                	add	a1,a1,sp
   18ba2:	04c00613          	li	a2,76
   18ba6:	00002097          	auipc	ra,0x2
   18baa:	f5e080e7          	jalr	-162(ra) # 1ab04 <memcpy>
   18bae:	6505                	lui	a0,0x1
   18bb0:	38050513          	addi	a0,a0,896 # 1380 <.Lline_table_start1+0x1155>
   18bb4:	950a                	add	a0,a0,sp
   18bb6:	7ff10593          	addi	a1,sp,2047
   18bba:	10758593          	addi	a1,a1,263
   18bbe:	ffffe097          	auipc	ra,0xffffe
   18bc2:	fd4080e7          	jalr	-44(ra) # 16b92 <_ZN20complex_full_dynamic3app17hff550e2da7d3161bE>
   18bc6:	3eca4503          	lbu	a0,1004(s4)
   18bca:	c119                	beqz	a0,18bd0 <_start+0x1f42>
   18bcc:	34d0106f          	j	1a718 <_start+0x3a8a>
   18bd0:	3eea4503          	lbu	a0,1006(s4)
   18bd4:	3eda4583          	lbu	a1,1005(s4)
   18bd8:	3efa4603          	lbu	a2,1007(s4)
   18bdc:	3f0a2403          	lw	s0,1008(s4)
   18be0:	0522                	slli	a0,a0,0x8
   18be2:	8d4d                	or	a0,a0,a1
   18be4:	1ca91423          	sh	a0,456(s2)
   18be8:	1cc90523          	sb	a2,458(s2)
   18bec:	6505                	lui	a0,0x1
   18bee:	38850513          	addi	a0,a0,904 # 1388 <.Lline_table_start1+0x115d>
   18bf2:	00a105b3          	add	a1,sp,a0
   18bf6:	6505                	lui	a0,0x1
   18bf8:	32450513          	addi	a0,a0,804 # 1324 <.Lline_table_start1+0x10f9>
   18bfc:	950a                	add	a0,a0,sp
   18bfe:	04600613          	li	a2,70
   18c02:	00002097          	auipc	ra,0x2
   18c06:	f02080e7          	jalr	-254(ra) # 1ab04 <memcpy>
   18c0a:	01845513          	srli	a0,s0,0x18
   18c0e:	01045593          	srli	a1,s0,0x10
   18c12:	00845613          	srli	a2,s0,0x8
   18c16:	1c8905a3          	sb	s0,459(s2)
   18c1a:	1cc90623          	sb	a2,460(s2)
   18c1e:	1cb906a3          	sb	a1,461(s2)
   18c22:	1ca90723          	sb	a0,462(s2)
   18c26:	7ff10513          	addi	a0,sp,2047
   18c2a:	16250513          	addi	a0,a0,354
   18c2e:	6585                	lui	a1,0x1
   18c30:	32458593          	addi	a1,a1,804 # 1324 <.Lline_table_start1+0x10f9>
   18c34:	958a                	add	a1,a1,sp
   18c36:	04600613          	li	a2,70
   18c3a:	00002097          	auipc	ra,0x2
   18c3e:	eca080e7          	jalr	-310(ra) # 1ab04 <memcpy>
   18c42:	6505                	lui	a0,0x1
   18c44:	38050513          	addi	a0,a0,896 # 1380 <.Lline_table_start1+0x1155>
   18c48:	950a                	add	a0,a0,sp
   18c4a:	7ff10593          	addi	a1,sp,2047
   18c4e:	15b58593          	addi	a1,a1,347
   18c52:	ffffe097          	auipc	ra,0xffffe
   18c56:	a64080e7          	jalr	-1436(ra) # 166b6 <_ZN20complex_full_dynamic3app17hf807a84b35059158E>
   18c5a:	3eca4503          	lbu	a0,1004(s4)
   18c5e:	c119                	beqz	a0,18c64 <_start+0x1fd6>
   18c60:	2b90106f          	j	1a718 <_start+0x3a8a>
   18c64:	3eea4503          	lbu	a0,1006(s4)
   18c68:	3eda4583          	lbu	a1,1005(s4)
   18c6c:	3efa4603          	lbu	a2,1007(s4)
   18c70:	3f0a2403          	lw	s0,1008(s4)
   18c74:	0522                	slli	a0,a0,0x8
   18c76:	8d4d                	or	a0,a0,a1
   18c78:	20a91b23          	sh	a0,534(s2)
   18c7c:	20c90c23          	sb	a2,536(s2)
   18c80:	6505                	lui	a0,0x1
   18c82:	38850513          	addi	a0,a0,904 # 1388 <.Lline_table_start1+0x115d>
   18c86:	00a105b3          	add	a1,sp,a0
   18c8a:	6505                	lui	a0,0x1
   18c8c:	32450513          	addi	a0,a0,804 # 1324 <.Lline_table_start1+0x10f9>
   18c90:	950a                	add	a0,a0,sp
   18c92:	03500613          	li	a2,53
   18c96:	00002097          	auipc	ra,0x2
   18c9a:	e6e080e7          	jalr	-402(ra) # 1ab04 <memcpy>
   18c9e:	01845513          	srli	a0,s0,0x18
   18ca2:	01045593          	srli	a1,s0,0x10
   18ca6:	00845613          	srli	a2,s0,0x8
   18caa:	20890ca3          	sb	s0,537(s2)
   18cae:	20c90d23          	sb	a2,538(s2)
   18cb2:	20b90da3          	sb	a1,539(s2)
   18cb6:	20a90e23          	sb	a0,540(s2)
   18cba:	7ff10513          	addi	a0,sp,2047
   18cbe:	1b050513          	addi	a0,a0,432
   18cc2:	6585                	lui	a1,0x1
   18cc4:	32458593          	addi	a1,a1,804 # 1324 <.Lline_table_start1+0x10f9>
   18cc8:	958a                	add	a1,a1,sp
   18cca:	03500613          	li	a2,53
   18cce:	00002097          	auipc	ra,0x2
   18cd2:	e36080e7          	jalr	-458(ra) # 1ab04 <memcpy>
   18cd6:	6505                	lui	a0,0x1
   18cd8:	38050513          	addi	a0,a0,896 # 1380 <.Lline_table_start1+0x1155>
   18cdc:	950a                	add	a0,a0,sp
   18cde:	7ff10593          	addi	a1,sp,2047
   18ce2:	1a958593          	addi	a1,a1,425
   18ce6:	ffffd097          	auipc	ra,0xffffd
   18cea:	a3a080e7          	jalr	-1478(ra) # 15720 <_ZN20complex_full_dynamic3app17hbe3b8c25af841956E>
   18cee:	3eca4503          	lbu	a0,1004(s4)
   18cf2:	c119                	beqz	a0,18cf8 <_start+0x206a>
   18cf4:	2250106f          	j	1a718 <_start+0x3a8a>
   18cf8:	3eea4503          	lbu	a0,1006(s4)
   18cfc:	3eda4583          	lbu	a1,1005(s4)
   18d00:	3efa4603          	lbu	a2,1007(s4)
   18d04:	3f0a2403          	lw	s0,1008(s4)
   18d08:	0522                	slli	a0,a0,0x8
   18d0a:	8d4d                	or	a0,a0,a1
   18d0c:	24a91923          	sh	a0,594(s2)
   18d10:	24c90a23          	sb	a2,596(s2)
   18d14:	6505                	lui	a0,0x1
   18d16:	38850513          	addi	a0,a0,904 # 1388 <.Lline_table_start1+0x115d>
   18d1a:	00a105b3          	add	a1,sp,a0
   18d1e:	6505                	lui	a0,0x1
   18d20:	32450513          	addi	a0,a0,804 # 1324 <.Lline_table_start1+0x10f9>
   18d24:	950a                	add	a0,a0,sp
   18d26:	03100613          	li	a2,49
   18d2a:	00002097          	auipc	ra,0x2
   18d2e:	dda080e7          	jalr	-550(ra) # 1ab04 <memcpy>
   18d32:	01845513          	srli	a0,s0,0x18
   18d36:	01045593          	srli	a1,s0,0x10
   18d3a:	00845613          	srli	a2,s0,0x8
   18d3e:	24890aa3          	sb	s0,597(s2)
   18d42:	24c90b23          	sb	a2,598(s2)
   18d46:	24b90ba3          	sb	a1,599(s2)
   18d4a:	24a90c23          	sb	a0,600(s2)
   18d4e:	7ff10513          	addi	a0,sp,2047
   18d52:	1ec50513          	addi	a0,a0,492
   18d56:	6585                	lui	a1,0x1
   18d58:	32458593          	addi	a1,a1,804 # 1324 <.Lline_table_start1+0x10f9>
   18d5c:	958a                	add	a1,a1,sp
   18d5e:	03100613          	li	a2,49
   18d62:	00002097          	auipc	ra,0x2
   18d66:	da2080e7          	jalr	-606(ra) # 1ab04 <memcpy>
   18d6a:	6505                	lui	a0,0x1
   18d6c:	38050513          	addi	a0,a0,896 # 1380 <.Lline_table_start1+0x1155>
   18d70:	950a                	add	a0,a0,sp
   18d72:	7ff10593          	addi	a1,sp,2047
   18d76:	1e558593          	addi	a1,a1,485
   18d7a:	ffff8097          	auipc	ra,0xffff8
   18d7e:	3ba080e7          	jalr	954(ra) # 11134 <_ZN20complex_full_dynamic3app17h0028549baa9262c1E>
   18d82:	3eca4503          	lbu	a0,1004(s4)
   18d86:	c119                	beqz	a0,18d8c <_start+0x20fe>
   18d88:	1910106f          	j	1a718 <_start+0x3a8a>
   18d8c:	3eea4503          	lbu	a0,1006(s4)
   18d90:	3eda4583          	lbu	a1,1005(s4)
   18d94:	3efa4603          	lbu	a2,1007(s4)
   18d98:	3f0a2403          	lw	s0,1008(s4)
   18d9c:	0522                	slli	a0,a0,0x8
   18d9e:	8d4d                	or	a0,a0,a1
   18da0:	28a91523          	sh	a0,650(s2)
   18da4:	28c90623          	sb	a2,652(s2)
   18da8:	6505                	lui	a0,0x1
   18daa:	38850513          	addi	a0,a0,904 # 1388 <.Lline_table_start1+0x115d>
   18dae:	00a105b3          	add	a1,sp,a0
   18db2:	6505                	lui	a0,0x1
   18db4:	32450513          	addi	a0,a0,804 # 1324 <.Lline_table_start1+0x10f9>
   18db8:	950a                	add	a0,a0,sp
   18dba:	02000613          	li	a2,32
   18dbe:	00002097          	auipc	ra,0x2
   18dc2:	d46080e7          	jalr	-698(ra) # 1ab04 <memcpy>
   18dc6:	01845513          	srli	a0,s0,0x18
   18dca:	01045593          	srli	a1,s0,0x10
   18dce:	00845613          	srli	a2,s0,0x8
   18dd2:	288906a3          	sb	s0,653(s2)
   18dd6:	28c90723          	sb	a2,654(s2)
   18dda:	28b907a3          	sb	a1,655(s2)
   18dde:	28a90823          	sb	a0,656(s2)
   18de2:	7ff10513          	addi	a0,sp,2047
   18de6:	22450513          	addi	a0,a0,548
   18dea:	6585                	lui	a1,0x1
   18dec:	32458593          	addi	a1,a1,804 # 1324 <.Lline_table_start1+0x10f9>
   18df0:	958a                	add	a1,a1,sp
   18df2:	02000613          	li	a2,32
   18df6:	00002097          	auipc	ra,0x2
   18dfa:	d0e080e7          	jalr	-754(ra) # 1ab04 <memcpy>
   18dfe:	6505                	lui	a0,0x1
   18e00:	38050513          	addi	a0,a0,896 # 1380 <.Lline_table_start1+0x1155>
   18e04:	950a                	add	a0,a0,sp
   18e06:	7ff10593          	addi	a1,sp,2047
   18e0a:	21d58593          	addi	a1,a1,541
   18e0e:	ffffd097          	auipc	ra,0xffffd
   18e12:	eec080e7          	jalr	-276(ra) # 15cfa <_ZN20complex_full_dynamic3app17hda4731a1b40c4ee3E>
   18e16:	3eca4503          	lbu	a0,1004(s4)
   18e1a:	c119                	beqz	a0,18e20 <_start+0x2192>
   18e1c:	0fd0106f          	j	1a718 <_start+0x3a8a>
   18e20:	3eea4503          	lbu	a0,1006(s4)
   18e24:	3eda4583          	lbu	a1,1005(s4)
   18e28:	3efa4603          	lbu	a2,1007(s4)
   18e2c:	3f0a2403          	lw	s0,1008(s4)
   18e30:	0522                	slli	a0,a0,0x8
   18e32:	8d4d                	or	a0,a0,a1
   18e34:	2aa91923          	sh	a0,690(s2)
   18e38:	2ac90a23          	sb	a2,692(s2)
   18e3c:	6505                	lui	a0,0x1
   18e3e:	38850513          	addi	a0,a0,904 # 1388 <.Lline_table_start1+0x115d>
   18e42:	00a105b3          	add	a1,sp,a0
   18e46:	6505                	lui	a0,0x1
   18e48:	32450513          	addi	a0,a0,804 # 1324 <.Lline_table_start1+0x10f9>
   18e4c:	950a                	add	a0,a0,sp
   18e4e:	04a00613          	li	a2,74
   18e52:	00002097          	auipc	ra,0x2
   18e56:	cb2080e7          	jalr	-846(ra) # 1ab04 <memcpy>
   18e5a:	01845513          	srli	a0,s0,0x18
   18e5e:	01045593          	srli	a1,s0,0x10
   18e62:	00845613          	srli	a2,s0,0x8
   18e66:	2a890aa3          	sb	s0,693(s2)
   18e6a:	2ac90b23          	sb	a2,694(s2)
   18e6e:	2ab90ba3          	sb	a1,695(s2)
   18e72:	2aa90c23          	sb	a0,696(s2)
   18e76:	7ff10513          	addi	a0,sp,2047
   18e7a:	24c50513          	addi	a0,a0,588
   18e7e:	6585                	lui	a1,0x1
   18e80:	32458593          	addi	a1,a1,804 # 1324 <.Lline_table_start1+0x10f9>
   18e84:	958a                	add	a1,a1,sp
   18e86:	04a00613          	li	a2,74
   18e8a:	00002097          	auipc	ra,0x2
   18e8e:	c7a080e7          	jalr	-902(ra) # 1ab04 <memcpy>
   18e92:	6505                	lui	a0,0x1
   18e94:	38050513          	addi	a0,a0,896 # 1380 <.Lline_table_start1+0x1155>
   18e98:	950a                	add	a0,a0,sp
   18e9a:	7ff10593          	addi	a1,sp,2047
   18e9e:	24558593          	addi	a1,a1,581
   18ea2:	ffffd097          	auipc	ra,0xffffd
   18ea6:	044080e7          	jalr	68(ra) # 15ee6 <_ZN20complex_full_dynamic3app17he1cf864f9534b9b0E>
   18eaa:	3eca4503          	lbu	a0,1004(s4)
   18eae:	c119                	beqz	a0,18eb4 <_start+0x2226>
   18eb0:	0690106f          	j	1a718 <_start+0x3a8a>
   18eb4:	3eea4503          	lbu	a0,1006(s4)
   18eb8:	3eda4583          	lbu	a1,1005(s4)
   18ebc:	3efa4603          	lbu	a2,1007(s4)
   18ec0:	3f0a2403          	lw	s0,1008(s4)
   18ec4:	0522                	slli	a0,a0,0x8
   18ec6:	8d4d                	or	a0,a0,a1
   18ec8:	30a91223          	sh	a0,772(s2)
   18ecc:	30c90323          	sb	a2,774(s2)
   18ed0:	6505                	lui	a0,0x1
   18ed2:	38850513          	addi	a0,a0,904 # 1388 <.Lline_table_start1+0x115d>
   18ed6:	00a105b3          	add	a1,sp,a0
   18eda:	6505                	lui	a0,0x1
   18edc:	32450513          	addi	a0,a0,804 # 1324 <.Lline_table_start1+0x10f9>
   18ee0:	950a                	add	a0,a0,sp
   18ee2:	04800613          	li	a2,72
   18ee6:	00002097          	auipc	ra,0x2
   18eea:	c1e080e7          	jalr	-994(ra) # 1ab04 <memcpy>
   18eee:	01845513          	srli	a0,s0,0x18
   18ef2:	01045593          	srli	a1,s0,0x10
   18ef6:	00845613          	srli	a2,s0,0x8
   18efa:	308903a3          	sb	s0,775(s2)
   18efe:	30c90423          	sb	a2,776(s2)
   18f02:	30b904a3          	sb	a1,777(s2)
   18f06:	30a90523          	sb	a0,778(s2)
   18f0a:	7ff10513          	addi	a0,sp,2047
   18f0e:	29e50513          	addi	a0,a0,670
   18f12:	6585                	lui	a1,0x1
   18f14:	32458593          	addi	a1,a1,804 # 1324 <.Lline_table_start1+0x10f9>
   18f18:	958a                	add	a1,a1,sp
   18f1a:	04800613          	li	a2,72
   18f1e:	00002097          	auipc	ra,0x2
   18f22:	be6080e7          	jalr	-1050(ra) # 1ab04 <memcpy>
   18f26:	6505                	lui	a0,0x1
   18f28:	38050513          	addi	a0,a0,896 # 1380 <.Lline_table_start1+0x1155>
   18f2c:	950a                	add	a0,a0,sp
   18f2e:	7ff10593          	addi	a1,sp,2047
   18f32:	29758593          	addi	a1,a1,663
   18f36:	ffffa097          	auipc	ra,0xffffa
   18f3a:	10e080e7          	jalr	270(ra) # 13044 <_ZN20complex_full_dynamic3app17h54cffc4a72a57dcdE>
   18f3e:	3eca4503          	lbu	a0,1004(s4)
   18f42:	c119                	beqz	a0,18f48 <_start+0x22ba>
   18f44:	7d40106f          	j	1a718 <_start+0x3a8a>
   18f48:	3eea4503          	lbu	a0,1006(s4)
   18f4c:	3eda4583          	lbu	a1,1005(s4)
   18f50:	3efa4603          	lbu	a2,1007(s4)
   18f54:	3f0a2403          	lw	s0,1008(s4)
   18f58:	0522                	slli	a0,a0,0x8
   18f5a:	8d4d                	or	a0,a0,a1
   18f5c:	34a91a23          	sh	a0,852(s2)
   18f60:	34c90b23          	sb	a2,854(s2)
   18f64:	6505                	lui	a0,0x1
   18f66:	38850513          	addi	a0,a0,904 # 1388 <.Lline_table_start1+0x115d>
   18f6a:	00a105b3          	add	a1,sp,a0
   18f6e:	6505                	lui	a0,0x1
   18f70:	32450513          	addi	a0,a0,804 # 1324 <.Lline_table_start1+0x10f9>
   18f74:	950a                	add	a0,a0,sp
   18f76:	05a00613          	li	a2,90
   18f7a:	00002097          	auipc	ra,0x2
   18f7e:	b8a080e7          	jalr	-1142(ra) # 1ab04 <memcpy>
   18f82:	01845513          	srli	a0,s0,0x18
   18f86:	01045593          	srli	a1,s0,0x10
   18f8a:	00845613          	srli	a2,s0,0x8
   18f8e:	34890ba3          	sb	s0,855(s2)
   18f92:	34c90c23          	sb	a2,856(s2)
   18f96:	34b90ca3          	sb	a1,857(s2)
   18f9a:	34a90d23          	sb	a0,858(s2)
   18f9e:	7ff10513          	addi	a0,sp,2047
   18fa2:	2ee50513          	addi	a0,a0,750
   18fa6:	6585                	lui	a1,0x1
   18fa8:	32458593          	addi	a1,a1,804 # 1324 <.Lline_table_start1+0x10f9>
   18fac:	958a                	add	a1,a1,sp
   18fae:	05a00613          	li	a2,90
   18fb2:	00002097          	auipc	ra,0x2
   18fb6:	b52080e7          	jalr	-1198(ra) # 1ab04 <memcpy>
   18fba:	6505                	lui	a0,0x1
   18fbc:	38050513          	addi	a0,a0,896 # 1380 <.Lline_table_start1+0x1155>
   18fc0:	950a                	add	a0,a0,sp
   18fc2:	7ff10593          	addi	a1,sp,2047
   18fc6:	2e758593          	addi	a1,a1,743
   18fca:	ffffd097          	auipc	ra,0xffffd
   18fce:	7e6080e7          	jalr	2022(ra) # 167b0 <_ZN20complex_full_dynamic3app17hfa70401655d24ee3E>
   18fd2:	3eca4503          	lbu	a0,1004(s4)
   18fd6:	c119                	beqz	a0,18fdc <_start+0x234e>
   18fd8:	7400106f          	j	1a718 <_start+0x3a8a>
   18fdc:	3eea4503          	lbu	a0,1006(s4)
   18fe0:	3eda4583          	lbu	a1,1005(s4)
   18fe4:	3efa4603          	lbu	a2,1007(s4)
   18fe8:	3f0a2403          	lw	s0,1008(s4)
   18fec:	0522                	slli	a0,a0,0x8
   18fee:	8d4d                	or	a0,a0,a1
   18ff0:	3aa91b23          	sh	a0,950(s2)
   18ff4:	3ac90c23          	sb	a2,952(s2)
   18ff8:	6505                	lui	a0,0x1
   18ffa:	38850513          	addi	a0,a0,904 # 1388 <.Lline_table_start1+0x115d>
   18ffe:	00a105b3          	add	a1,sp,a0
   19002:	6505                	lui	a0,0x1
   19004:	32450513          	addi	a0,a0,804 # 1324 <.Lline_table_start1+0x10f9>
   19008:	950a                	add	a0,a0,sp
   1900a:	465d                	li	a2,23
   1900c:	00002097          	auipc	ra,0x2
   19010:	af8080e7          	jalr	-1288(ra) # 1ab04 <memcpy>
   19014:	01845513          	srli	a0,s0,0x18
   19018:	01045593          	srli	a1,s0,0x10
   1901c:	00845613          	srli	a2,s0,0x8
   19020:	3a890ca3          	sb	s0,953(s2)
   19024:	3ac90d23          	sb	a2,954(s2)
   19028:	3ab90da3          	sb	a1,955(s2)
   1902c:	3aa90e23          	sb	a0,956(s2)
   19030:	7ff10513          	addi	a0,sp,2047
   19034:	35050513          	addi	a0,a0,848
   19038:	6585                	lui	a1,0x1
   1903a:	32458593          	addi	a1,a1,804 # 1324 <.Lline_table_start1+0x10f9>
   1903e:	958a                	add	a1,a1,sp
   19040:	465d                	li	a2,23
   19042:	00002097          	auipc	ra,0x2
   19046:	ac2080e7          	jalr	-1342(ra) # 1ab04 <memcpy>
   1904a:	6505                	lui	a0,0x1
   1904c:	38050513          	addi	a0,a0,896 # 1380 <.Lline_table_start1+0x1155>
   19050:	950a                	add	a0,a0,sp
   19052:	7ff10593          	addi	a1,sp,2047
   19056:	34958593          	addi	a1,a1,841
   1905a:	ffffc097          	auipc	ra,0xffffc
   1905e:	c1c080e7          	jalr	-996(ra) # 14c76 <_ZN20complex_full_dynamic3app17h9856ff4dfb449418E>
   19062:	3eca4503          	lbu	a0,1004(s4)
   19066:	c119                	beqz	a0,1906c <_start+0x23de>
   19068:	6b00106f          	j	1a718 <_start+0x3a8a>
   1906c:	3eea4503          	lbu	a0,1006(s4)
   19070:	3eda4583          	lbu	a1,1005(s4)
   19074:	3efa4603          	lbu	a2,1007(s4)
   19078:	3f0a2403          	lw	s0,1008(s4)
   1907c:	0522                	slli	a0,a0,0x8
   1907e:	8d4d                	or	a0,a0,a1
   19080:	3ca91a23          	sh	a0,980(s2)
   19084:	3cc90b23          	sb	a2,982(s2)
   19088:	6505                	lui	a0,0x1
   1908a:	38850513          	addi	a0,a0,904 # 1388 <.Lline_table_start1+0x115d>
   1908e:	00a105b3          	add	a1,sp,a0
   19092:	6505                	lui	a0,0x1
   19094:	32450513          	addi	a0,a0,804 # 1324 <.Lline_table_start1+0x10f9>
   19098:	950a                	add	a0,a0,sp
   1909a:	4669                	li	a2,26
   1909c:	00002097          	auipc	ra,0x2
   190a0:	a68080e7          	jalr	-1432(ra) # 1ab04 <memcpy>
   190a4:	01845513          	srli	a0,s0,0x18
   190a8:	01045593          	srli	a1,s0,0x10
   190ac:	00845613          	srli	a2,s0,0x8
   190b0:	3c890ba3          	sb	s0,983(s2)
   190b4:	3cc90c23          	sb	a2,984(s2)
   190b8:	3cb90ca3          	sb	a1,985(s2)
   190bc:	3ca90d23          	sb	a0,986(s2)
   190c0:	7ff10513          	addi	a0,sp,2047
   190c4:	36e50513          	addi	a0,a0,878
   190c8:	6585                	lui	a1,0x1
   190ca:	32458593          	addi	a1,a1,804 # 1324 <.Lline_table_start1+0x10f9>
   190ce:	958a                	add	a1,a1,sp
   190d0:	4669                	li	a2,26
   190d2:	00002097          	auipc	ra,0x2
   190d6:	a32080e7          	jalr	-1486(ra) # 1ab04 <memcpy>
   190da:	6505                	lui	a0,0x1
   190dc:	38050513          	addi	a0,a0,896 # 1380 <.Lline_table_start1+0x1155>
   190e0:	950a                	add	a0,a0,sp
   190e2:	7ff10593          	addi	a1,sp,2047
   190e6:	36758593          	addi	a1,a1,871
   190ea:	ffffa097          	auipc	ra,0xffffa
   190ee:	61a080e7          	jalr	1562(ra) # 13704 <_ZN20complex_full_dynamic3app17h6164c643d8ca5795E>
   190f2:	3eca4503          	lbu	a0,1004(s4)
   190f6:	c119                	beqz	a0,190fc <_start+0x246e>
   190f8:	6200106f          	j	1a718 <_start+0x3a8a>
   190fc:	3eea4503          	lbu	a0,1006(s4)
   19100:	3eda4583          	lbu	a1,1005(s4)
   19104:	3efa4603          	lbu	a2,1007(s4)
   19108:	3f0a2403          	lw	s0,1008(s4)
   1910c:	0522                	slli	a0,a0,0x8
   1910e:	8d4d                	or	a0,a0,a1
   19110:	3ea91b23          	sh	a0,1014(s2)
   19114:	3ec90c23          	sb	a2,1016(s2)
   19118:	6505                	lui	a0,0x1
   1911a:	38850513          	addi	a0,a0,904 # 1388 <.Lline_table_start1+0x115d>
   1911e:	00a105b3          	add	a1,sp,a0
   19122:	6505                	lui	a0,0x1
   19124:	32450513          	addi	a0,a0,804 # 1324 <.Lline_table_start1+0x10f9>
   19128:	950a                	add	a0,a0,sp
   1912a:	02300613          	li	a2,35
   1912e:	00002097          	auipc	ra,0x2
   19132:	9d6080e7          	jalr	-1578(ra) # 1ab04 <memcpy>
   19136:	01845513          	srli	a0,s0,0x18
   1913a:	01045593          	srli	a1,s0,0x10
   1913e:	00845613          	srli	a2,s0,0x8
   19142:	3e890ca3          	sb	s0,1017(s2)
   19146:	3ec90d23          	sb	a2,1018(s2)
   1914a:	3eb90da3          	sb	a1,1019(s2)
   1914e:	3ea90e23          	sb	a0,1020(s2)
   19152:	7ff10513          	addi	a0,sp,2047
   19156:	39050513          	addi	a0,a0,912
   1915a:	6585                	lui	a1,0x1
   1915c:	32458593          	addi	a1,a1,804 # 1324 <.Lline_table_start1+0x10f9>
   19160:	958a                	add	a1,a1,sp
   19162:	02300613          	li	a2,35
   19166:	00002097          	auipc	ra,0x2
   1916a:	99e080e7          	jalr	-1634(ra) # 1ab04 <memcpy>
   1916e:	6505                	lui	a0,0x1
   19170:	38050513          	addi	a0,a0,896 # 1380 <.Lline_table_start1+0x1155>
   19174:	950a                	add	a0,a0,sp
   19176:	7ff10593          	addi	a1,sp,2047
   1917a:	38958593          	addi	a1,a1,905
   1917e:	ffffc097          	auipc	ra,0xffffc
   19182:	9fe080e7          	jalr	-1538(ra) # 14b7c <_ZN20complex_full_dynamic3app17h9841921359ce7dceE>
   19186:	3eca4503          	lbu	a0,1004(s4)
   1918a:	c119                	beqz	a0,19190 <_start+0x2502>
   1918c:	58c0106f          	j	1a718 <_start+0x3a8a>
   19190:	3eea4503          	lbu	a0,1006(s4)
   19194:	3eda4583          	lbu	a1,1005(s4)
   19198:	3efa4603          	lbu	a2,1007(s4)
   1919c:	3f0a2403          	lw	s0,1008(s4)
   191a0:	0522                	slli	a0,a0,0x8
   191a2:	8d4d                	or	a0,a0,a1
   191a4:	42a91023          	sh	a0,1056(s2)
   191a8:	42c90123          	sb	a2,1058(s2)
   191ac:	6505                	lui	a0,0x1
   191ae:	38850513          	addi	a0,a0,904 # 1388 <.Lline_table_start1+0x115d>
   191b2:	00a105b3          	add	a1,sp,a0
   191b6:	6505                	lui	a0,0x1
   191b8:	32450513          	addi	a0,a0,804 # 1324 <.Lline_table_start1+0x10f9>
   191bc:	950a                	add	a0,a0,sp
   191be:	05200613          	li	a2,82
   191c2:	00002097          	auipc	ra,0x2
   191c6:	942080e7          	jalr	-1726(ra) # 1ab04 <memcpy>
   191ca:	01845513          	srli	a0,s0,0x18
   191ce:	01045593          	srli	a1,s0,0x10
   191d2:	00845613          	srli	a2,s0,0x8
   191d6:	428901a3          	sb	s0,1059(s2)
   191da:	42c90223          	sb	a2,1060(s2)
   191de:	42b902a3          	sb	a1,1061(s2)
   191e2:	42a90323          	sb	a0,1062(s2)
   191e6:	7ff10513          	addi	a0,sp,2047
   191ea:	3ba50513          	addi	a0,a0,954
   191ee:	6585                	lui	a1,0x1
   191f0:	32458593          	addi	a1,a1,804 # 1324 <.Lline_table_start1+0x10f9>
   191f4:	958a                	add	a1,a1,sp
   191f6:	05200613          	li	a2,82
   191fa:	00002097          	auipc	ra,0x2
   191fe:	90a080e7          	jalr	-1782(ra) # 1ab04 <memcpy>
   19202:	6505                	lui	a0,0x1
   19204:	38050513          	addi	a0,a0,896 # 1380 <.Lline_table_start1+0x1155>
   19208:	950a                	add	a0,a0,sp
   1920a:	7ff10593          	addi	a1,sp,2047
   1920e:	3b358593          	addi	a1,a1,947
   19212:	ffffb097          	auipc	ra,0xffffb
   19216:	ad0080e7          	jalr	-1328(ra) # 13ce2 <_ZN20complex_full_dynamic3app17h7bcc7e5ba883c9ffE>
   1921a:	3eca4503          	lbu	a0,1004(s4)
   1921e:	c119                	beqz	a0,19224 <_start+0x2596>
   19220:	4f80106f          	j	1a718 <_start+0x3a8a>
   19224:	3eea4503          	lbu	a0,1006(s4)
   19228:	3eda4583          	lbu	a1,1005(s4)
   1922c:	3efa4603          	lbu	a2,1007(s4)
   19230:	3f0a2403          	lw	s0,1008(s4)
   19234:	0522                	slli	a0,a0,0x8
   19236:	8d4d                	or	a0,a0,a1
   19238:	46a91d23          	sh	a0,1146(s2)
   1923c:	46c90e23          	sb	a2,1148(s2)
   19240:	6505                	lui	a0,0x1
   19242:	38850513          	addi	a0,a0,904 # 1388 <.Lline_table_start1+0x115d>
   19246:	00a105b3          	add	a1,sp,a0
   1924a:	6505                	lui	a0,0x1
   1924c:	32450513          	addi	a0,a0,804 # 1324 <.Lline_table_start1+0x10f9>
   19250:	950a                	add	a0,a0,sp
   19252:	04300613          	li	a2,67
   19256:	00002097          	auipc	ra,0x2
   1925a:	8ae080e7          	jalr	-1874(ra) # 1ab04 <memcpy>
   1925e:	01845513          	srli	a0,s0,0x18
   19262:	01045593          	srli	a1,s0,0x10
   19266:	00845613          	srli	a2,s0,0x8
   1926a:	46890ea3          	sb	s0,1149(s2)
   1926e:	46c90f23          	sb	a2,1150(s2)
   19272:	46b90fa3          	sb	a1,1151(s2)
   19276:	48a90023          	sb	a0,1152(s2)
   1927a:	7ff10513          	addi	a0,sp,2047
   1927e:	41450513          	addi	a0,a0,1044
   19282:	6585                	lui	a1,0x1
   19284:	32458593          	addi	a1,a1,804 # 1324 <.Lline_table_start1+0x10f9>
   19288:	958a                	add	a1,a1,sp
   1928a:	04300613          	li	a2,67
   1928e:	00002097          	auipc	ra,0x2
   19292:	876080e7          	jalr	-1930(ra) # 1ab04 <memcpy>
   19296:	6505                	lui	a0,0x1
   19298:	38050513          	addi	a0,a0,896 # 1380 <.Lline_table_start1+0x1155>
   1929c:	950a                	add	a0,a0,sp
   1929e:	7ff10593          	addi	a1,sp,2047
   192a2:	40d58593          	addi	a1,a1,1037
   192a6:	ffffd097          	auipc	ra,0xffffd
   192aa:	21c080e7          	jalr	540(ra) # 164c2 <_ZN20complex_full_dynamic3app17hf33c32a8c623dcdfE>
   192ae:	3eca4503          	lbu	a0,1004(s4)
   192b2:	c119                	beqz	a0,192b8 <_start+0x262a>
   192b4:	4640106f          	j	1a718 <_start+0x3a8a>
   192b8:	3eea4503          	lbu	a0,1006(s4)
   192bc:	3eda4583          	lbu	a1,1005(s4)
   192c0:	3efa4603          	lbu	a2,1007(s4)
   192c4:	3f0a2403          	lw	s0,1008(s4)
   192c8:	0522                	slli	a0,a0,0x8
   192ca:	8d4d                	or	a0,a0,a1
   192cc:	4ca91223          	sh	a0,1220(s2)
   192d0:	4cc90323          	sb	a2,1222(s2)
   192d4:	6505                	lui	a0,0x1
   192d6:	38850513          	addi	a0,a0,904 # 1388 <.Lline_table_start1+0x115d>
   192da:	00a105b3          	add	a1,sp,a0
   192de:	6505                	lui	a0,0x1
   192e0:	32450513          	addi	a0,a0,804 # 1324 <.Lline_table_start1+0x10f9>
   192e4:	950a                	add	a0,a0,sp
   192e6:	02600613          	li	a2,38
   192ea:	00002097          	auipc	ra,0x2
   192ee:	81a080e7          	jalr	-2022(ra) # 1ab04 <memcpy>
   192f2:	01845513          	srli	a0,s0,0x18
   192f6:	01045593          	srli	a1,s0,0x10
   192fa:	00845613          	srli	a2,s0,0x8
   192fe:	4c8903a3          	sb	s0,1223(s2)
   19302:	4cc90423          	sb	a2,1224(s2)
   19306:	4cb904a3          	sb	a1,1225(s2)
   1930a:	4ca90523          	sb	a0,1226(s2)
   1930e:	7ff10513          	addi	a0,sp,2047
   19312:	45e50513          	addi	a0,a0,1118
   19316:	6585                	lui	a1,0x1
   19318:	32458593          	addi	a1,a1,804 # 1324 <.Lline_table_start1+0x10f9>
   1931c:	958a                	add	a1,a1,sp
   1931e:	02600613          	li	a2,38
   19322:	00001097          	auipc	ra,0x1
   19326:	7e2080e7          	jalr	2018(ra) # 1ab04 <memcpy>
   1932a:	6505                	lui	a0,0x1
   1932c:	38050513          	addi	a0,a0,896 # 1380 <.Lline_table_start1+0x1155>
   19330:	950a                	add	a0,a0,sp
   19332:	7ff10593          	addi	a1,sp,2047
   19336:	45758593          	addi	a1,a1,1111
   1933a:	ffff9097          	auipc	ra,0xffff9
   1933e:	54e080e7          	jalr	1358(ra) # 12888 <_ZN20complex_full_dynamic3app17h360419df2e685674E>
   19342:	3eca4503          	lbu	a0,1004(s4)
   19346:	c119                	beqz	a0,1934c <_start+0x26be>
   19348:	3d00106f          	j	1a718 <_start+0x3a8a>
   1934c:	3eea4503          	lbu	a0,1006(s4)
   19350:	3eda4583          	lbu	a1,1005(s4)
   19354:	3efa4603          	lbu	a2,1007(s4)
   19358:	3f0a2403          	lw	s0,1008(s4)
   1935c:	0522                	slli	a0,a0,0x8
   1935e:	8d4d                	or	a0,a0,a1
   19360:	4ea91923          	sh	a0,1266(s2)
   19364:	4ec90a23          	sb	a2,1268(s2)
   19368:	6505                	lui	a0,0x1
   1936a:	38850513          	addi	a0,a0,904 # 1388 <.Lline_table_start1+0x115d>
   1936e:	00a105b3          	add	a1,sp,a0
   19372:	6505                	lui	a0,0x1
   19374:	32450513          	addi	a0,a0,804 # 1324 <.Lline_table_start1+0x10f9>
   19378:	950a                	add	a0,a0,sp
   1937a:	04c00613          	li	a2,76
   1937e:	00001097          	auipc	ra,0x1
   19382:	786080e7          	jalr	1926(ra) # 1ab04 <memcpy>
   19386:	01845513          	srli	a0,s0,0x18
   1938a:	01045593          	srli	a1,s0,0x10
   1938e:	00845613          	srli	a2,s0,0x8
   19392:	4e890aa3          	sb	s0,1269(s2)
   19396:	4ec90b23          	sb	a2,1270(s2)
   1939a:	4eb90ba3          	sb	a1,1271(s2)
   1939e:	4ea90c23          	sb	a0,1272(s2)
   193a2:	7ff10513          	addi	a0,sp,2047
   193a6:	48c50513          	addi	a0,a0,1164
   193aa:	6585                	lui	a1,0x1
   193ac:	32458593          	addi	a1,a1,804 # 1324 <.Lline_table_start1+0x10f9>
   193b0:	958a                	add	a1,a1,sp
   193b2:	04c00613          	li	a2,76
   193b6:	00001097          	auipc	ra,0x1
   193ba:	74e080e7          	jalr	1870(ra) # 1ab04 <memcpy>
   193be:	6505                	lui	a0,0x1
   193c0:	38050513          	addi	a0,a0,896 # 1380 <.Lline_table_start1+0x1155>
   193c4:	950a                	add	a0,a0,sp
   193c6:	7ff10593          	addi	a1,sp,2047
   193ca:	48558593          	addi	a1,a1,1157
   193ce:	ffffc097          	auipc	ra,0xffffc
   193d2:	63c080e7          	jalr	1596(ra) # 15a0a <_ZN20complex_full_dynamic3app17hc2d1ce2952d2b86aE>
   193d6:	3eca4503          	lbu	a0,1004(s4)
   193da:	c119                	beqz	a0,193e0 <_start+0x2752>
   193dc:	33c0106f          	j	1a718 <_start+0x3a8a>
   193e0:	3eea4503          	lbu	a0,1006(s4)
   193e4:	3eda4583          	lbu	a1,1005(s4)
   193e8:	3efa4603          	lbu	a2,1007(s4)
   193ec:	3f0a2403          	lw	s0,1008(s4)
   193f0:	0522                	slli	a0,a0,0x8
   193f2:	8d4d                	or	a0,a0,a1
   193f4:	54a91323          	sh	a0,1350(s2)
   193f8:	54c90423          	sb	a2,1352(s2)
   193fc:	6505                	lui	a0,0x1
   193fe:	38850513          	addi	a0,a0,904 # 1388 <.Lline_table_start1+0x115d>
   19402:	00a105b3          	add	a1,sp,a0
   19406:	6505                	lui	a0,0x1
   19408:	32450513          	addi	a0,a0,804 # 1324 <.Lline_table_start1+0x10f9>
   1940c:	950a                	add	a0,a0,sp
   1940e:	03300613          	li	a2,51
   19412:	00001097          	auipc	ra,0x1
   19416:	6f2080e7          	jalr	1778(ra) # 1ab04 <memcpy>
   1941a:	01845513          	srli	a0,s0,0x18
   1941e:	01045593          	srli	a1,s0,0x10
   19422:	00845613          	srli	a2,s0,0x8
   19426:	548904a3          	sb	s0,1353(s2)
   1942a:	54c90523          	sb	a2,1354(s2)
   1942e:	54b905a3          	sb	a1,1355(s2)
   19432:	54a90623          	sb	a0,1356(s2)
   19436:	7ff10513          	addi	a0,sp,2047
   1943a:	4e050513          	addi	a0,a0,1248
   1943e:	6585                	lui	a1,0x1
   19440:	32458593          	addi	a1,a1,804 # 1324 <.Lline_table_start1+0x10f9>
   19444:	958a                	add	a1,a1,sp
   19446:	03300613          	li	a2,51
   1944a:	00001097          	auipc	ra,0x1
   1944e:	6ba080e7          	jalr	1722(ra) # 1ab04 <memcpy>
   19452:	6505                	lui	a0,0x1
   19454:	38050513          	addi	a0,a0,896 # 1380 <.Lline_table_start1+0x1155>
   19458:	950a                	add	a0,a0,sp
   1945a:	7ff10593          	addi	a1,sp,2047
   1945e:	4d958593          	addi	a1,a1,1241
   19462:	ffffd097          	auipc	ra,0xffffd
   19466:	446080e7          	jalr	1094(ra) # 168a8 <_ZN20complex_full_dynamic3app17hfafd6fa4462d42e5E>
   1946a:	3eca4503          	lbu	a0,1004(s4)
   1946e:	c119                	beqz	a0,19474 <_start+0x27e6>
   19470:	2a80106f          	j	1a718 <_start+0x3a8a>
   19474:	3eea4503          	lbu	a0,1006(s4)
   19478:	3eda4583          	lbu	a1,1005(s4)
   1947c:	3efa4603          	lbu	a2,1007(s4)
   19480:	3f0a2403          	lw	s0,1008(s4)
   19484:	0522                	slli	a0,a0,0x8
   19486:	8d4d                	or	a0,a0,a1
   19488:	58a91023          	sh	a0,1408(s2)
   1948c:	58c90123          	sb	a2,1410(s2)
   19490:	6505                	lui	a0,0x1
   19492:	38850513          	addi	a0,a0,904 # 1388 <.Lline_table_start1+0x115d>
   19496:	00a105b3          	add	a1,sp,a0
   1949a:	6505                	lui	a0,0x1
   1949c:	32450513          	addi	a0,a0,804 # 1324 <.Lline_table_start1+0x10f9>
   194a0:	950a                	add	a0,a0,sp
   194a2:	05600613          	li	a2,86
   194a6:	00001097          	auipc	ra,0x1
   194aa:	65e080e7          	jalr	1630(ra) # 1ab04 <memcpy>
   194ae:	01845513          	srli	a0,s0,0x18
   194b2:	01045593          	srli	a1,s0,0x10
   194b6:	00845613          	srli	a2,s0,0x8
   194ba:	588901a3          	sb	s0,1411(s2)
   194be:	58c90223          	sb	a2,1412(s2)
   194c2:	58b902a3          	sb	a1,1413(s2)
   194c6:	58a90323          	sb	a0,1414(s2)
   194ca:	7ff10513          	addi	a0,sp,2047
   194ce:	51a50513          	addi	a0,a0,1306
   194d2:	6585                	lui	a1,0x1
   194d4:	32458593          	addi	a1,a1,804 # 1324 <.Lline_table_start1+0x10f9>
   194d8:	958a                	add	a1,a1,sp
   194da:	05600613          	li	a2,86
   194de:	00001097          	auipc	ra,0x1
   194e2:	626080e7          	jalr	1574(ra) # 1ab04 <memcpy>
   194e6:	6505                	lui	a0,0x1
   194e8:	38050513          	addi	a0,a0,896 # 1380 <.Lline_table_start1+0x1155>
   194ec:	950a                	add	a0,a0,sp
   194ee:	7ff10593          	addi	a1,sp,2047
   194f2:	51358593          	addi	a1,a1,1299
   194f6:	ffff8097          	auipc	ra,0xffff8
   194fa:	500080e7          	jalr	1280(ra) # 119f6 <_ZN20complex_full_dynamic3app17h132155fcfeab53caE>
   194fe:	3eca4503          	lbu	a0,1004(s4)
   19502:	c119                	beqz	a0,19508 <_start+0x287a>
   19504:	2140106f          	j	1a718 <_start+0x3a8a>
   19508:	3eea4503          	lbu	a0,1006(s4)
   1950c:	3eda4583          	lbu	a1,1005(s4)
   19510:	3efa4603          	lbu	a2,1007(s4)
   19514:	3f0a2403          	lw	s0,1008(s4)
   19518:	0522                	slli	a0,a0,0x8
   1951a:	8d4d                	or	a0,a0,a1
   1951c:	5ca91f23          	sh	a0,1502(s2)
   19520:	5ec90023          	sb	a2,1504(s2)
   19524:	6505                	lui	a0,0x1
   19526:	38850513          	addi	a0,a0,904 # 1388 <.Lline_table_start1+0x115d>
   1952a:	00a105b3          	add	a1,sp,a0
   1952e:	6505                	lui	a0,0x1
   19530:	32450513          	addi	a0,a0,804 # 1324 <.Lline_table_start1+0x10f9>
   19534:	950a                	add	a0,a0,sp
   19536:	03900613          	li	a2,57
   1953a:	00001097          	auipc	ra,0x1
   1953e:	5ca080e7          	jalr	1482(ra) # 1ab04 <memcpy>
   19542:	01845513          	srli	a0,s0,0x18
   19546:	01045593          	srli	a1,s0,0x10
   1954a:	00845613          	srli	a2,s0,0x8
   1954e:	5e8900a3          	sb	s0,1505(s2)
   19552:	5ec90123          	sb	a2,1506(s2)
   19556:	5eb901a3          	sb	a1,1507(s2)
   1955a:	5ea90223          	sb	a0,1508(s2)
   1955e:	7ff10513          	addi	a0,sp,2047
   19562:	57850513          	addi	a0,a0,1400
   19566:	6585                	lui	a1,0x1
   19568:	32458593          	addi	a1,a1,804 # 1324 <.Lline_table_start1+0x10f9>
   1956c:	958a                	add	a1,a1,sp
   1956e:	03900613          	li	a2,57
   19572:	00001097          	auipc	ra,0x1
   19576:	592080e7          	jalr	1426(ra) # 1ab04 <memcpy>
   1957a:	6505                	lui	a0,0x1
   1957c:	38050513          	addi	a0,a0,896 # 1380 <.Lline_table_start1+0x1155>
   19580:	950a                	add	a0,a0,sp
   19582:	7ff10593          	addi	a1,sp,2047
   19586:	57158593          	addi	a1,a1,1393
   1958a:	ffff9097          	auipc	ra,0xffff9
   1958e:	106080e7          	jalr	262(ra) # 12690 <_ZN20complex_full_dynamic3app17h34b7bfed0771d228E>
   19592:	3eca4503          	lbu	a0,1004(s4)
   19596:	c119                	beqz	a0,1959c <_start+0x290e>
   19598:	1800106f          	j	1a718 <_start+0x3a8a>
   1959c:	3eea4503          	lbu	a0,1006(s4)
   195a0:	3eda4583          	lbu	a1,1005(s4)
   195a4:	3efa4603          	lbu	a2,1007(s4)
   195a8:	3f0a2403          	lw	s0,1008(s4)
   195ac:	0522                	slli	a0,a0,0x8
   195ae:	8d4d                	or	a0,a0,a1
   195b0:	60a91f23          	sh	a0,1566(s2)
   195b4:	62c90023          	sb	a2,1568(s2)
   195b8:	6505                	lui	a0,0x1
   195ba:	38850513          	addi	a0,a0,904 # 1388 <.Lline_table_start1+0x115d>
   195be:	00a105b3          	add	a1,sp,a0
   195c2:	6505                	lui	a0,0x1
   195c4:	32450513          	addi	a0,a0,804 # 1324 <.Lline_table_start1+0x10f9>
   195c8:	950a                	add	a0,a0,sp
   195ca:	02a00613          	li	a2,42
   195ce:	00001097          	auipc	ra,0x1
   195d2:	536080e7          	jalr	1334(ra) # 1ab04 <memcpy>
   195d6:	01845513          	srli	a0,s0,0x18
   195da:	01045593          	srli	a1,s0,0x10
   195de:	00845613          	srli	a2,s0,0x8
   195e2:	628900a3          	sb	s0,1569(s2)
   195e6:	62c90123          	sb	a2,1570(s2)
   195ea:	62b901a3          	sb	a1,1571(s2)
   195ee:	62a90223          	sb	a0,1572(s2)
   195f2:	7ff10513          	addi	a0,sp,2047
   195f6:	5b850513          	addi	a0,a0,1464
   195fa:	6585                	lui	a1,0x1
   195fc:	32458593          	addi	a1,a1,804 # 1324 <.Lline_table_start1+0x10f9>
   19600:	958a                	add	a1,a1,sp
   19602:	02a00613          	li	a2,42
   19606:	00001097          	auipc	ra,0x1
   1960a:	4fe080e7          	jalr	1278(ra) # 1ab04 <memcpy>
   1960e:	6505                	lui	a0,0x1
   19610:	38050513          	addi	a0,a0,896 # 1380 <.Lline_table_start1+0x1155>
   19614:	950a                	add	a0,a0,sp
   19616:	7ff10593          	addi	a1,sp,2047
   1961a:	5b158593          	addi	a1,a1,1457
   1961e:	ffffb097          	auipc	ra,0xffffb
   19622:	36e080e7          	jalr	878(ra) # 1498c <_ZN20complex_full_dynamic3app17h95824f748cf3b619E>
   19626:	3eca4503          	lbu	a0,1004(s4)
   1962a:	c119                	beqz	a0,19630 <_start+0x29a2>
   1962c:	0ec0106f          	j	1a718 <_start+0x3a8a>
   19630:	3eea4503          	lbu	a0,1006(s4)
   19634:	3eda4583          	lbu	a1,1005(s4)
   19638:	3efa4603          	lbu	a2,1007(s4)
   1963c:	3f0a2403          	lw	s0,1008(s4)
   19640:	0522                	slli	a0,a0,0x8
   19642:	8d4d                	or	a0,a0,a1
   19644:	64a91823          	sh	a0,1616(s2)
   19648:	64c90923          	sb	a2,1618(s2)
   1964c:	6505                	lui	a0,0x1
   1964e:	38850513          	addi	a0,a0,904 # 1388 <.Lline_table_start1+0x115d>
   19652:	00a105b3          	add	a1,sp,a0
   19656:	6505                	lui	a0,0x1
   19658:	32450513          	addi	a0,a0,804 # 1324 <.Lline_table_start1+0x10f9>
   1965c:	950a                	add	a0,a0,sp
   1965e:	04100613          	li	a2,65
   19662:	00001097          	auipc	ra,0x1
   19666:	4a2080e7          	jalr	1186(ra) # 1ab04 <memcpy>
   1966a:	01845513          	srli	a0,s0,0x18
   1966e:	01045593          	srli	a1,s0,0x10
   19672:	00845613          	srli	a2,s0,0x8
   19676:	648909a3          	sb	s0,1619(s2)
   1967a:	64c90a23          	sb	a2,1620(s2)
   1967e:	64b90aa3          	sb	a1,1621(s2)
   19682:	64a90b23          	sb	a0,1622(s2)
   19686:	7ff10513          	addi	a0,sp,2047
   1968a:	5ea50513          	addi	a0,a0,1514
   1968e:	6585                	lui	a1,0x1
   19690:	32458593          	addi	a1,a1,804 # 1324 <.Lline_table_start1+0x10f9>
   19694:	958a                	add	a1,a1,sp
   19696:	04100613          	li	a2,65
   1969a:	00001097          	auipc	ra,0x1
   1969e:	46a080e7          	jalr	1130(ra) # 1ab04 <memcpy>
   196a2:	6505                	lui	a0,0x1
   196a4:	38050513          	addi	a0,a0,896 # 1380 <.Lline_table_start1+0x1155>
   196a8:	950a                	add	a0,a0,sp
   196aa:	7ff10593          	addi	a1,sp,2047
   196ae:	5e358593          	addi	a1,a1,1507
   196b2:	ffffb097          	auipc	ra,0xffffb
   196b6:	ff0080e7          	jalr	-16(ra) # 146a2 <_ZN20complex_full_dynamic3app17h868b31d437ce461eE>
   196ba:	3eca4503          	lbu	a0,1004(s4)
   196be:	c119                	beqz	a0,196c4 <_start+0x2a36>
   196c0:	0580106f          	j	1a718 <_start+0x3a8a>
   196c4:	3eea4503          	lbu	a0,1006(s4)
   196c8:	3eda4583          	lbu	a1,1005(s4)
   196cc:	3efa4603          	lbu	a2,1007(s4)
   196d0:	3f0a2403          	lw	s0,1008(s4)
   196d4:	0522                	slli	a0,a0,0x8
   196d6:	8d4d                	or	a0,a0,a1
   196d8:	68a91c23          	sh	a0,1688(s2)
   196dc:	68c90d23          	sb	a2,1690(s2)
   196e0:	6505                	lui	a0,0x1
   196e2:	38850513          	addi	a0,a0,904 # 1388 <.Lline_table_start1+0x115d>
   196e6:	00a105b3          	add	a1,sp,a0
   196ea:	6505                	lui	a0,0x1
   196ec:	32450513          	addi	a0,a0,804 # 1324 <.Lline_table_start1+0x10f9>
   196f0:	950a                	add	a0,a0,sp
   196f2:	02200613          	li	a2,34
   196f6:	00001097          	auipc	ra,0x1
   196fa:	40e080e7          	jalr	1038(ra) # 1ab04 <memcpy>
   196fe:	01845513          	srli	a0,s0,0x18
   19702:	01045593          	srli	a1,s0,0x10
   19706:	00845613          	srli	a2,s0,0x8
   1970a:	68890da3          	sb	s0,1691(s2)
   1970e:	68c90e23          	sb	a2,1692(s2)
   19712:	68b90ea3          	sb	a1,1693(s2)
   19716:	68a90f23          	sb	a0,1694(s2)
   1971a:	7ff10513          	addi	a0,sp,2047
   1971e:	63250513          	addi	a0,a0,1586
   19722:	6585                	lui	a1,0x1
   19724:	32458593          	addi	a1,a1,804 # 1324 <.Lline_table_start1+0x10f9>
   19728:	958a                	add	a1,a1,sp
   1972a:	02200613          	li	a2,34
   1972e:	00001097          	auipc	ra,0x1
   19732:	3d6080e7          	jalr	982(ra) # 1ab04 <memcpy>
   19736:	6505                	lui	a0,0x1
   19738:	38050513          	addi	a0,a0,896 # 1380 <.Lline_table_start1+0x1155>
   1973c:	950a                	add	a0,a0,sp
   1973e:	7ff10593          	addi	a1,sp,2047
   19742:	62b58593          	addi	a1,a1,1579
   19746:	ffff8097          	auipc	ra,0xffff8
   1974a:	ed8080e7          	jalr	-296(ra) # 1161e <_ZN20complex_full_dynamic3app17h081f1f3690615ad3E>
   1974e:	3eca4503          	lbu	a0,1004(s4)
   19752:	7c0513e3          	bnez	a0,1a718 <_start+0x3a8a>
   19756:	3eea4503          	lbu	a0,1006(s4)
   1975a:	3eda4583          	lbu	a1,1005(s4)
   1975e:	3efa4603          	lbu	a2,1007(s4)
   19762:	3f0a2403          	lw	s0,1008(s4)
   19766:	0522                	slli	a0,a0,0x8
   19768:	8d4d                	or	a0,a0,a1
   1976a:	6ca91123          	sh	a0,1730(s2)
   1976e:	6cc90223          	sb	a2,1732(s2)
   19772:	6505                	lui	a0,0x1
   19774:	38850513          	addi	a0,a0,904 # 1388 <.Lline_table_start1+0x115d>
   19778:	00a105b3          	add	a1,sp,a0
   1977c:	6505                	lui	a0,0x1
   1977e:	32450513          	addi	a0,a0,804 # 1324 <.Lline_table_start1+0x10f9>
   19782:	950a                	add	a0,a0,sp
   19784:	464d                	li	a2,19
   19786:	00001097          	auipc	ra,0x1
   1978a:	37e080e7          	jalr	894(ra) # 1ab04 <memcpy>
   1978e:	01845513          	srli	a0,s0,0x18
   19792:	01045593          	srli	a1,s0,0x10
   19796:	00845613          	srli	a2,s0,0x8
   1979a:	6c8902a3          	sb	s0,1733(s2)
   1979e:	6cc90323          	sb	a2,1734(s2)
   197a2:	6cb903a3          	sb	a1,1735(s2)
   197a6:	6ca90423          	sb	a0,1736(s2)
   197aa:	7ff10513          	addi	a0,sp,2047
   197ae:	65c50513          	addi	a0,a0,1628
   197b2:	6585                	lui	a1,0x1
   197b4:	32458593          	addi	a1,a1,804 # 1324 <.Lline_table_start1+0x10f9>
   197b8:	958a                	add	a1,a1,sp
   197ba:	464d                	li	a2,19
   197bc:	00001097          	auipc	ra,0x1
   197c0:	348080e7          	jalr	840(ra) # 1ab04 <memcpy>
   197c4:	6505                	lui	a0,0x1
   197c6:	38050513          	addi	a0,a0,896 # 1380 <.Lline_table_start1+0x1155>
   197ca:	950a                	add	a0,a0,sp
   197cc:	7ff10593          	addi	a1,sp,2047
   197d0:	65558593          	addi	a1,a1,1621
   197d4:	ffff8097          	auipc	ra,0xffff8
   197d8:	130080e7          	jalr	304(ra) # 11904 <_ZN20complex_full_dynamic3app17h1167c6fabc995130E>
   197dc:	3eca4503          	lbu	a0,1004(s4)
   197e0:	72051ce3          	bnez	a0,1a718 <_start+0x3a8a>
   197e4:	3eea4503          	lbu	a0,1006(s4)
   197e8:	3eda4583          	lbu	a1,1005(s4)
   197ec:	3efa4603          	lbu	a2,1007(s4)
   197f0:	3f0a2403          	lw	s0,1008(s4)
   197f4:	0522                	slli	a0,a0,0x8
   197f6:	8d4d                	or	a0,a0,a1
   197f8:	6ca91e23          	sh	a0,1756(s2)
   197fc:	6cc90f23          	sb	a2,1758(s2)
   19800:	6505                	lui	a0,0x1
   19802:	38850513          	addi	a0,a0,904 # 1388 <.Lline_table_start1+0x115d>
   19806:	00a105b3          	add	a1,sp,a0
   1980a:	6505                	lui	a0,0x1
   1980c:	32450513          	addi	a0,a0,804 # 1324 <.Lline_table_start1+0x10f9>
   19810:	950a                	add	a0,a0,sp
   19812:	4651                	li	a2,20
   19814:	00001097          	auipc	ra,0x1
   19818:	2f0080e7          	jalr	752(ra) # 1ab04 <memcpy>
   1981c:	01845513          	srli	a0,s0,0x18
   19820:	01045593          	srli	a1,s0,0x10
   19824:	00845613          	srli	a2,s0,0x8
   19828:	6c890fa3          	sb	s0,1759(s2)
   1982c:	6ec90023          	sb	a2,1760(s2)
   19830:	6eb900a3          	sb	a1,1761(s2)
   19834:	6ea90123          	sb	a0,1762(s2)
   19838:	7ff10513          	addi	a0,sp,2047
   1983c:	67650513          	addi	a0,a0,1654
   19840:	6585                	lui	a1,0x1
   19842:	32458593          	addi	a1,a1,804 # 1324 <.Lline_table_start1+0x10f9>
   19846:	958a                	add	a1,a1,sp
   19848:	4651                	li	a2,20
   1984a:	00001097          	auipc	ra,0x1
   1984e:	2ba080e7          	jalr	698(ra) # 1ab04 <memcpy>
   19852:	6505                	lui	a0,0x1
   19854:	38050513          	addi	a0,a0,896 # 1380 <.Lline_table_start1+0x1155>
   19858:	950a                	add	a0,a0,sp
   1985a:	7ff10593          	addi	a1,sp,2047
   1985e:	66f58593          	addi	a1,a1,1647
   19862:	ffffc097          	auipc	ra,0xffffc
   19866:	cd2080e7          	jalr	-814(ra) # 15534 <_ZN20complex_full_dynamic3app17hb72973b6530fd759E>
   1986a:	3eca4503          	lbu	a0,1004(s4)
   1986e:	6a0515e3          	bnez	a0,1a718 <_start+0x3a8a>
   19872:	3eea4503          	lbu	a0,1006(s4)
   19876:	3eda4583          	lbu	a1,1005(s4)
   1987a:	3efa4603          	lbu	a2,1007(s4)
   1987e:	3f0a2403          	lw	s0,1008(s4)
   19882:	0522                	slli	a0,a0,0x8
   19884:	8d4d                	or	a0,a0,a1
   19886:	6ea91c23          	sh	a0,1784(s2)
   1988a:	6ec90d23          	sb	a2,1786(s2)
   1988e:	6505                	lui	a0,0x1
   19890:	38850513          	addi	a0,a0,904 # 1388 <.Lline_table_start1+0x115d>
   19894:	00a105b3          	add	a1,sp,a0
   19898:	6505                	lui	a0,0x1
   1989a:	32450513          	addi	a0,a0,804 # 1324 <.Lline_table_start1+0x10f9>
   1989e:	950a                	add	a0,a0,sp
   198a0:	03a00613          	li	a2,58
   198a4:	00001097          	auipc	ra,0x1
   198a8:	260080e7          	jalr	608(ra) # 1ab04 <memcpy>
   198ac:	01845513          	srli	a0,s0,0x18
   198b0:	01045593          	srli	a1,s0,0x10
   198b4:	00845613          	srli	a2,s0,0x8
   198b8:	6e890da3          	sb	s0,1787(s2)
   198bc:	6ec90e23          	sb	a2,1788(s2)
   198c0:	6eb90ea3          	sb	a1,1789(s2)
   198c4:	6ea90f23          	sb	a0,1790(s2)
   198c8:	7ff10513          	addi	a0,sp,2047
   198cc:	69250513          	addi	a0,a0,1682
   198d0:	6585                	lui	a1,0x1
   198d2:	32458593          	addi	a1,a1,804 # 1324 <.Lline_table_start1+0x10f9>
   198d6:	958a                	add	a1,a1,sp
   198d8:	03a00613          	li	a2,58
   198dc:	00001097          	auipc	ra,0x1
   198e0:	228080e7          	jalr	552(ra) # 1ab04 <memcpy>
   198e4:	6505                	lui	a0,0x1
   198e6:	38050513          	addi	a0,a0,896 # 1380 <.Lline_table_start1+0x1155>
   198ea:	950a                	add	a0,a0,sp
   198ec:	7ff10593          	addi	a1,sp,2047
   198f0:	68b58593          	addi	a1,a1,1675
   198f4:	ffffc097          	auipc	ra,0xffffc
   198f8:	a50080e7          	jalr	-1456(ra) # 15344 <_ZN20complex_full_dynamic3app17hb1d7d2f038a76b94E>
   198fc:	3eca4503          	lbu	a0,1004(s4)
   19900:	60051ce3          	bnez	a0,1a718 <_start+0x3a8a>
   19904:	3eea4503          	lbu	a0,1006(s4)
   19908:	3eda4583          	lbu	a1,1005(s4)
   1990c:	3efa4603          	lbu	a2,1007(s4)
   19910:	3f0a2403          	lw	s0,1008(s4)
   19914:	0522                	slli	a0,a0,0x8
   19916:	8d4d                	or	a0,a0,a1
   19918:	72a91d23          	sh	a0,1850(s2)
   1991c:	72c90e23          	sb	a2,1852(s2)
   19920:	6505                	lui	a0,0x1
   19922:	38850513          	addi	a0,a0,904 # 1388 <.Lline_table_start1+0x115d>
   19926:	00a105b3          	add	a1,sp,a0
   1992a:	6505                	lui	a0,0x1
   1992c:	32450513          	addi	a0,a0,804 # 1324 <.Lline_table_start1+0x10f9>
   19930:	950a                	add	a0,a0,sp
   19932:	4645                	li	a2,17
   19934:	00001097          	auipc	ra,0x1
   19938:	1d0080e7          	jalr	464(ra) # 1ab04 <memcpy>
   1993c:	01845513          	srli	a0,s0,0x18
   19940:	01045593          	srli	a1,s0,0x10
   19944:	00845613          	srli	a2,s0,0x8
   19948:	72890ea3          	sb	s0,1853(s2)
   1994c:	72c90f23          	sb	a2,1854(s2)
   19950:	72b90fa3          	sb	a1,1855(s2)
   19954:	74a90023          	sb	a0,1856(s2)
   19958:	7ff10513          	addi	a0,sp,2047
   1995c:	6d450513          	addi	a0,a0,1748
   19960:	6585                	lui	a1,0x1
   19962:	32458593          	addi	a1,a1,804 # 1324 <.Lline_table_start1+0x10f9>
   19966:	958a                	add	a1,a1,sp
   19968:	4645                	li	a2,17
   1996a:	00001097          	auipc	ra,0x1
   1996e:	19a080e7          	jalr	410(ra) # 1ab04 <memcpy>
   19972:	6505                	lui	a0,0x1
   19974:	38050513          	addi	a0,a0,896 # 1380 <.Lline_table_start1+0x1155>
   19978:	950a                	add	a0,a0,sp
   1997a:	7ff10593          	addi	a1,sp,2047
   1997e:	6cd58593          	addi	a1,a1,1741
   19982:	ffffa097          	auipc	ra,0xffffa
   19986:	8b4080e7          	jalr	-1868(ra) # 13236 <_ZN20complex_full_dynamic3app17h5ae6cdd00e1c470fE>
   1998a:	3eca4503          	lbu	a0,1004(s4)
   1998e:	580515e3          	bnez	a0,1a718 <_start+0x3a8a>
   19992:	3eea4503          	lbu	a0,1006(s4)
   19996:	3eda4583          	lbu	a1,1005(s4)
   1999a:	3efa4603          	lbu	a2,1007(s4)
   1999e:	3f0a2403          	lw	s0,1008(s4)
   199a2:	0522                	slli	a0,a0,0x8
   199a4:	8d4d                	or	a0,a0,a1
   199a6:	74a91923          	sh	a0,1874(s2)
   199aa:	74c90a23          	sb	a2,1876(s2)
   199ae:	6505                	lui	a0,0x1
   199b0:	38850513          	addi	a0,a0,904 # 1388 <.Lline_table_start1+0x115d>
   199b4:	00a105b3          	add	a1,sp,a0
   199b8:	6505                	lui	a0,0x1
   199ba:	32450513          	addi	a0,a0,804 # 1324 <.Lline_table_start1+0x10f9>
   199be:	950a                	add	a0,a0,sp
   199c0:	465d                	li	a2,23
   199c2:	00001097          	auipc	ra,0x1
   199c6:	142080e7          	jalr	322(ra) # 1ab04 <memcpy>
   199ca:	01845513          	srli	a0,s0,0x18
   199ce:	01045593          	srli	a1,s0,0x10
   199d2:	00845613          	srli	a2,s0,0x8
   199d6:	74890aa3          	sb	s0,1877(s2)
   199da:	74c90b23          	sb	a2,1878(s2)
   199de:	74b90ba3          	sb	a1,1879(s2)
   199e2:	74a90c23          	sb	a0,1880(s2)
   199e6:	7ff10513          	addi	a0,sp,2047
   199ea:	6ec50513          	addi	a0,a0,1772
   199ee:	6585                	lui	a1,0x1
   199f0:	32458593          	addi	a1,a1,804 # 1324 <.Lline_table_start1+0x10f9>
   199f4:	958a                	add	a1,a1,sp
   199f6:	465d                	li	a2,23
   199f8:	00001097          	auipc	ra,0x1
   199fc:	10c080e7          	jalr	268(ra) # 1ab04 <memcpy>
   19a00:	6505                	lui	a0,0x1
   19a02:	38050513          	addi	a0,a0,896 # 1380 <.Lline_table_start1+0x1155>
   19a06:	950a                	add	a0,a0,sp
   19a08:	7ff10593          	addi	a1,sp,2047
   19a0c:	6e558593          	addi	a1,a1,1765
   19a10:	ffffd097          	auipc	ra,0xffffd
   19a14:	9be080e7          	jalr	-1602(ra) # 163ce <_ZN20complex_full_dynamic3app17hf20821d23e858b35E>
   19a18:	3eca4503          	lbu	a0,1004(s4)
   19a1c:	4e051ee3          	bnez	a0,1a718 <_start+0x3a8a>
   19a20:	3eea4503          	lbu	a0,1006(s4)
   19a24:	3eda4583          	lbu	a1,1005(s4)
   19a28:	3efa4603          	lbu	a2,1007(s4)
   19a2c:	3f0a2403          	lw	s0,1008(s4)
   19a30:	0522                	slli	a0,a0,0x8
   19a32:	8d4d                	or	a0,a0,a1
   19a34:	76a91823          	sh	a0,1904(s2)
   19a38:	76c90923          	sb	a2,1906(s2)
   19a3c:	6505                	lui	a0,0x1
   19a3e:	38850513          	addi	a0,a0,904 # 1388 <.Lline_table_start1+0x115d>
   19a42:	00a105b3          	add	a1,sp,a0
   19a46:	6505                	lui	a0,0x1
   19a48:	32450513          	addi	a0,a0,804 # 1324 <.Lline_table_start1+0x10f9>
   19a4c:	950a                	add	a0,a0,sp
   19a4e:	03500613          	li	a2,53
   19a52:	00001097          	auipc	ra,0x1
   19a56:	0b2080e7          	jalr	178(ra) # 1ab04 <memcpy>
   19a5a:	01845513          	srli	a0,s0,0x18
   19a5e:	01045593          	srli	a1,s0,0x10
   19a62:	00845613          	srli	a2,s0,0x8
   19a66:	768909a3          	sb	s0,1907(s2)
   19a6a:	76c90a23          	sb	a2,1908(s2)
   19a6e:	76b90aa3          	sb	a1,1909(s2)
   19a72:	76a90b23          	sb	a0,1910(s2)
   19a76:	7ff10513          	addi	a0,sp,2047
   19a7a:	70a50513          	addi	a0,a0,1802
   19a7e:	6585                	lui	a1,0x1
   19a80:	32458593          	addi	a1,a1,804 # 1324 <.Lline_table_start1+0x10f9>
   19a84:	958a                	add	a1,a1,sp
   19a86:	03500613          	li	a2,53
   19a8a:	00001097          	auipc	ra,0x1
   19a8e:	07a080e7          	jalr	122(ra) # 1ab04 <memcpy>
   19a92:	6505                	lui	a0,0x1
   19a94:	38050513          	addi	a0,a0,896 # 1380 <.Lline_table_start1+0x1155>
   19a98:	950a                	add	a0,a0,sp
   19a9a:	7ff10593          	addi	a1,sp,2047
   19a9e:	70358593          	addi	a1,a1,1795
   19aa2:	ffffa097          	auipc	ra,0xffffa
   19aa6:	628080e7          	jalr	1576(ra) # 140ca <_ZN20complex_full_dynamic3app17h7dfbff8a6797d398E>
   19aaa:	3eca4503          	lbu	a0,1004(s4)
   19aae:	460515e3          	bnez	a0,1a718 <_start+0x3a8a>
   19ab2:	3eea4503          	lbu	a0,1006(s4)
   19ab6:	3eda4583          	lbu	a1,1005(s4)
   19aba:	3efa4603          	lbu	a2,1007(s4)
   19abe:	3f0a2403          	lw	s0,1008(s4)
   19ac2:	0522                	slli	a0,a0,0x8
   19ac4:	8d4d                	or	a0,a0,a1
   19ac6:	7aa91623          	sh	a0,1964(s2)
   19aca:	7ac90723          	sb	a2,1966(s2)
   19ace:	6505                	lui	a0,0x1
   19ad0:	38850513          	addi	a0,a0,904 # 1388 <.Lline_table_start1+0x115d>
   19ad4:	00a105b3          	add	a1,sp,a0
   19ad8:	6505                	lui	a0,0x1
   19ada:	32450513          	addi	a0,a0,804 # 1324 <.Lline_table_start1+0x10f9>
   19ade:	950a                	add	a0,a0,sp
   19ae0:	02500613          	li	a2,37
   19ae4:	00001097          	auipc	ra,0x1
   19ae8:	020080e7          	jalr	32(ra) # 1ab04 <memcpy>
   19aec:	01845513          	srli	a0,s0,0x18
   19af0:	01045593          	srli	a1,s0,0x10
   19af4:	00845613          	srli	a2,s0,0x8
   19af8:	7a8907a3          	sb	s0,1967(s2)
   19afc:	7ac90823          	sb	a2,1968(s2)
   19b00:	7ab908a3          	sb	a1,1969(s2)
   19b04:	7aa90923          	sb	a0,1970(s2)
   19b08:	7ff10513          	addi	a0,sp,2047
   19b0c:	74650513          	addi	a0,a0,1862
   19b10:	6585                	lui	a1,0x1
   19b12:	32458593          	addi	a1,a1,804 # 1324 <.Lline_table_start1+0x10f9>
   19b16:	958a                	add	a1,a1,sp
   19b18:	02500613          	li	a2,37
   19b1c:	00001097          	auipc	ra,0x1
   19b20:	fe8080e7          	jalr	-24(ra) # 1ab04 <memcpy>
   19b24:	6505                	lui	a0,0x1
   19b26:	38050513          	addi	a0,a0,896 # 1380 <.Lline_table_start1+0x1155>
   19b2a:	950a                	add	a0,a0,sp
   19b2c:	7ff10593          	addi	a1,sp,2047
   19b30:	73f58593          	addi	a1,a1,1855
   19b34:	ffffa097          	auipc	ra,0xffffa
   19b38:	9de080e7          	jalr	-1570(ra) # 13512 <_ZN20complex_full_dynamic3app17h60071af0087d6432E>
   19b3c:	3eca4503          	lbu	a0,1004(s4)
   19b40:	3c051ce3          	bnez	a0,1a718 <_start+0x3a8a>
   19b44:	3eea4503          	lbu	a0,1006(s4)
   19b48:	3eda4583          	lbu	a1,1005(s4)
   19b4c:	3efa4603          	lbu	a2,1007(s4)
   19b50:	3f0a2403          	lw	s0,1008(s4)
   19b54:	0522                	slli	a0,a0,0x8
   19b56:	8d4d                	or	a0,a0,a1
   19b58:	7ca91c23          	sh	a0,2008(s2)
   19b5c:	7cc90d23          	sb	a2,2010(s2)
   19b60:	6505                	lui	a0,0x1
   19b62:	38850513          	addi	a0,a0,904 # 1388 <.Lline_table_start1+0x115d>
   19b66:	00a105b3          	add	a1,sp,a0
   19b6a:	6505                	lui	a0,0x1
   19b6c:	32450513          	addi	a0,a0,804 # 1324 <.Lline_table_start1+0x10f9>
   19b70:	950a                	add	a0,a0,sp
   19b72:	02000613          	li	a2,32
   19b76:	00001097          	auipc	ra,0x1
   19b7a:	f8e080e7          	jalr	-114(ra) # 1ab04 <memcpy>
   19b7e:	01845513          	srli	a0,s0,0x18
   19b82:	01045593          	srli	a1,s0,0x10
   19b86:	00845613          	srli	a2,s0,0x8
   19b8a:	7c890da3          	sb	s0,2011(s2)
   19b8e:	7cc90e23          	sb	a2,2012(s2)
   19b92:	7cb90ea3          	sb	a1,2013(s2)
   19b96:	7ca90f23          	sb	a0,2014(s2)
   19b9a:	7ff10513          	addi	a0,sp,2047
   19b9e:	77250513          	addi	a0,a0,1906
   19ba2:	6585                	lui	a1,0x1
   19ba4:	32458593          	addi	a1,a1,804 # 1324 <.Lline_table_start1+0x10f9>
   19ba8:	958a                	add	a1,a1,sp
   19baa:	02000613          	li	a2,32
   19bae:	00001097          	auipc	ra,0x1
   19bb2:	f56080e7          	jalr	-170(ra) # 1ab04 <memcpy>
   19bb6:	6505                	lui	a0,0x1
   19bb8:	38050513          	addi	a0,a0,896 # 1380 <.Lline_table_start1+0x1155>
   19bbc:	950a                	add	a0,a0,sp
   19bbe:	7ff10593          	addi	a1,sp,2047
   19bc2:	76b58593          	addi	a1,a1,1899
   19bc6:	ffff9097          	auipc	ra,0xffff9
   19bca:	faa080e7          	jalr	-86(ra) # 12b70 <_ZN20complex_full_dynamic3app17h41c0715f01450bc8E>
   19bce:	3eca4503          	lbu	a0,1004(s4)
   19bd2:	340513e3          	bnez	a0,1a718 <_start+0x3a8a>
   19bd6:	3eea4503          	lbu	a0,1006(s4)
   19bda:	3eda4583          	lbu	a1,1005(s4)
   19bde:	3efa4603          	lbu	a2,1007(s4)
   19be2:	3f0a2403          	lw	s0,1008(s4)
   19be6:	0522                	slli	a0,a0,0x8
   19be8:	8d4d                	or	a0,a0,a1
   19bea:	feaa1f23          	sh	a0,-2(s4)
   19bee:	00ca0023          	sb	a2,0(s4)
   19bf2:	6505                	lui	a0,0x1
   19bf4:	38850513          	addi	a0,a0,904 # 1388 <.Lline_table_start1+0x115d>
   19bf8:	00a105b3          	add	a1,sp,a0
   19bfc:	6505                	lui	a0,0x1
   19bfe:	32450513          	addi	a0,a0,804 # 1324 <.Lline_table_start1+0x10f9>
   19c02:	950a                	add	a0,a0,sp
   19c04:	04800613          	li	a2,72
   19c08:	00001097          	auipc	ra,0x1
   19c0c:	efc080e7          	jalr	-260(ra) # 1ab04 <memcpy>
   19c10:	01845513          	srli	a0,s0,0x18
   19c14:	01045593          	srli	a1,s0,0x10
   19c18:	00845613          	srli	a2,s0,0x8
   19c1c:	008a00a3          	sb	s0,1(s4)
   19c20:	00ca0123          	sb	a2,2(s4)
   19c24:	00ba01a3          	sb	a1,3(s4)
   19c28:	00aa0223          	sb	a0,4(s4)
   19c2c:	7ff10513          	addi	a0,sp,2047
   19c30:	79a50513          	addi	a0,a0,1946
   19c34:	6585                	lui	a1,0x1
   19c36:	32458593          	addi	a1,a1,804 # 1324 <.Lline_table_start1+0x10f9>
   19c3a:	958a                	add	a1,a1,sp
   19c3c:	04800613          	li	a2,72
   19c40:	00001097          	auipc	ra,0x1
   19c44:	ec4080e7          	jalr	-316(ra) # 1ab04 <memcpy>
   19c48:	6505                	lui	a0,0x1
   19c4a:	38050513          	addi	a0,a0,896 # 1380 <.Lline_table_start1+0x1155>
   19c4e:	950a                	add	a0,a0,sp
   19c50:	7ff10593          	addi	a1,sp,2047
   19c54:	79358593          	addi	a1,a1,1939
   19c58:	ffff8097          	auipc	ra,0xffff8
   19c5c:	e9a080e7          	jalr	-358(ra) # 11af2 <_ZN20complex_full_dynamic3app17h169b7bb9a5abf5e7E>
   19c60:	3eca4503          	lbu	a0,1004(s4)
   19c64:	2a051ae3          	bnez	a0,1a718 <_start+0x3a8a>
   19c68:	3eea4503          	lbu	a0,1006(s4)
   19c6c:	3eda4583          	lbu	a1,1005(s4)
   19c70:	3efa4603          	lbu	a2,1007(s4)
   19c74:	3f0a2403          	lw	s0,1008(s4)
   19c78:	0522                	slli	a0,a0,0x8
   19c7a:	8d4d                	or	a0,a0,a1
   19c7c:	04aa1723          	sh	a0,78(s4)
   19c80:	04ca0823          	sb	a2,80(s4)
   19c84:	6505                	lui	a0,0x1
   19c86:	38850513          	addi	a0,a0,904 # 1388 <.Lline_table_start1+0x115d>
   19c8a:	00a105b3          	add	a1,sp,a0
   19c8e:	6505                	lui	a0,0x1
   19c90:	32450513          	addi	a0,a0,804 # 1324 <.Lline_table_start1+0x10f9>
   19c94:	950a                	add	a0,a0,sp
   19c96:	02e00613          	li	a2,46
   19c9a:	00001097          	auipc	ra,0x1
   19c9e:	e6a080e7          	jalr	-406(ra) # 1ab04 <memcpy>
   19ca2:	01845513          	srli	a0,s0,0x18
   19ca6:	01045593          	srli	a1,s0,0x10
   19caa:	00845613          	srli	a2,s0,0x8
   19cae:	048a08a3          	sb	s0,81(s4)
   19cb2:	04ca0923          	sb	a2,82(s4)
   19cb6:	04ba09a3          	sb	a1,83(s4)
   19cba:	04aa0a23          	sb	a0,84(s4)
   19cbe:	7ff10513          	addi	a0,sp,2047
   19cc2:	7ea50513          	addi	a0,a0,2026
   19cc6:	6585                	lui	a1,0x1
   19cc8:	32458593          	addi	a1,a1,804 # 1324 <.Lline_table_start1+0x10f9>
   19ccc:	958a                	add	a1,a1,sp
   19cce:	02e00613          	li	a2,46
   19cd2:	00001097          	auipc	ra,0x1
   19cd6:	e32080e7          	jalr	-462(ra) # 1ab04 <memcpy>
   19cda:	6505                	lui	a0,0x1
   19cdc:	38050513          	addi	a0,a0,896 # 1380 <.Lline_table_start1+0x1155>
   19ce0:	950a                	add	a0,a0,sp
   19ce2:	7ff10593          	addi	a1,sp,2047
   19ce6:	7e358593          	addi	a1,a1,2019
   19cea:	ffff9097          	auipc	ra,0xffff9
   19cee:	d8e080e7          	jalr	-626(ra) # 12a78 <_ZN20complex_full_dynamic3app17h3ea82ff5fa2b4556E>
   19cf2:	3eca4503          	lbu	a0,1004(s4)
   19cf6:	220511e3          	bnez	a0,1a718 <_start+0x3a8a>
   19cfa:	3eea4503          	lbu	a0,1006(s4)
   19cfe:	3eda4583          	lbu	a1,1005(s4)
   19d02:	3efa4603          	lbu	a2,1007(s4)
   19d06:	3f0a2403          	lw	s0,1008(s4)
   19d0a:	0522                	slli	a0,a0,0x8
   19d0c:	8d4d                	or	a0,a0,a1
   19d0e:	08aa1223          	sh	a0,132(s4)
   19d12:	08ca0323          	sb	a2,134(s4)
   19d16:	6505                	lui	a0,0x1
   19d18:	38850513          	addi	a0,a0,904 # 1388 <.Lline_table_start1+0x115d>
   19d1c:	00a105b3          	add	a1,sp,a0
   19d20:	6505                	lui	a0,0x1
   19d22:	32450513          	addi	a0,a0,804 # 1324 <.Lline_table_start1+0x10f9>
   19d26:	950a                	add	a0,a0,sp
   19d28:	03800613          	li	a2,56
   19d2c:	00001097          	auipc	ra,0x1
   19d30:	dd8080e7          	jalr	-552(ra) # 1ab04 <memcpy>
   19d34:	01845513          	srli	a0,s0,0x18
   19d38:	01045593          	srli	a1,s0,0x10
   19d3c:	00845613          	srli	a2,s0,0x8
   19d40:	088a03a3          	sb	s0,135(s4)
   19d44:	08ca0423          	sb	a2,136(s4)
   19d48:	08ba04a3          	sb	a1,137(s4)
   19d4c:	08aa0523          	sb	a0,138(s4)
   19d50:	6505                	lui	a0,0x1
   19d52:	057d                	addi	a0,a0,31 # 101f <.Lline_table_start1+0xdf4>
   19d54:	950a                	add	a0,a0,sp
   19d56:	6585                	lui	a1,0x1
   19d58:	32458593          	addi	a1,a1,804 # 1324 <.Lline_table_start1+0x10f9>
   19d5c:	958a                	add	a1,a1,sp
   19d5e:	03800613          	li	a2,56
   19d62:	00001097          	auipc	ra,0x1
   19d66:	da2080e7          	jalr	-606(ra) # 1ab04 <memcpy>
   19d6a:	6505                	lui	a0,0x1
   19d6c:	38050513          	addi	a0,a0,896 # 1380 <.Lline_table_start1+0x1155>
   19d70:	950a                	add	a0,a0,sp
   19d72:	6585                	lui	a1,0x1
   19d74:	05e1                	addi	a1,a1,24 # 1018 <.Lline_table_start1+0xded>
   19d76:	958a                	add	a1,a1,sp
   19d78:	ffffb097          	auipc	ra,0xffffb
   19d7c:	3da080e7          	jalr	986(ra) # 15152 <_ZN20complex_full_dynamic3app17hb0487b9ff50e1b44E>
   19d80:	3eca4503          	lbu	a0,1004(s4)
   19d84:	18051ae3          	bnez	a0,1a718 <_start+0x3a8a>
   19d88:	3eda4503          	lbu	a0,1005(s4)
   19d8c:	3eea4583          	lbu	a1,1006(s4)
   19d90:	3efa4603          	lbu	a2,1007(s4)
   19d94:	3f0a2683          	lw	a3,1008(s4)
   19d98:	3f4a2703          	lw	a4,1012(s4)
   19d9c:	3f8a2783          	lw	a5,1016(s4)
   19da0:	3fca1483          	lh	s1,1020(s4)
   19da4:	05a2                	slli	a1,a1,0x8
   19da6:	38ea2823          	sw	a4,912(s4)
   19daa:	38fa2a23          	sw	a5,916(s4)
   19dae:	389a1c23          	sh	s1,920(s4)
   19db2:	0186d713          	srli	a4,a3,0x18
   19db6:	8d4d                	or	a0,a0,a1
   19db8:	0106d593          	srli	a1,a3,0x10
   19dbc:	0cba04a3          	sb	a1,201(s4)
   19dc0:	0cea0523          	sb	a4,202(s4)
   19dc4:	0086d593          	srli	a1,a3,0x8
   19dc8:	0caa1223          	sh	a0,196(s4)
   19dcc:	0cca0323          	sb	a2,198(s4)
   19dd0:	0cda03a3          	sb	a3,199(s4)
   19dd4:	0cba0423          	sb	a1,200(s4)
   19dd8:	6505                	lui	a0,0x1
   19dda:	05f50513          	addi	a0,a0,95 # 105f <.Lline_table_start1+0xe34>
   19dde:	950a                	add	a0,a0,sp
   19de0:	6585                	lui	a1,0x1
   19de2:	32458593          	addi	a1,a1,804 # 1324 <.Lline_table_start1+0x10f9>
   19de6:	958a                	add	a1,a1,sp
   19de8:	4629                	li	a2,10
   19dea:	00001097          	auipc	ra,0x1
   19dee:	d1a080e7          	jalr	-742(ra) # 1ab04 <memcpy>
   19df2:	6505                	lui	a0,0x1
   19df4:	38050513          	addi	a0,a0,896 # 1380 <.Lline_table_start1+0x1155>
   19df8:	950a                	add	a0,a0,sp
   19dfa:	6585                	lui	a1,0x1
   19dfc:	05858593          	addi	a1,a1,88 # 1058 <.Lline_table_start1+0xe2d>
   19e00:	958a                	add	a1,a1,sp
   19e02:	ffff8097          	auipc	ra,0xffff8
   19e06:	1cc080e7          	jalr	460(ra) # 11fce <_ZN20complex_full_dynamic3app17h217e8cca0daf41a4E>
   19e0a:	3eca4503          	lbu	a0,1004(s4)
   19e0e:	100515e3          	bnez	a0,1a718 <_start+0x3a8a>
   19e12:	3eea4503          	lbu	a0,1006(s4)
   19e16:	3eda4583          	lbu	a1,1005(s4)
   19e1a:	3efa4603          	lbu	a2,1007(s4)
   19e1e:	3f0a2403          	lw	s0,1008(s4)
   19e22:	0522                	slli	a0,a0,0x8
   19e24:	8d4d                	or	a0,a0,a1
   19e26:	0caa1b23          	sh	a0,214(s4)
   19e2a:	0cca0c23          	sb	a2,216(s4)
   19e2e:	6505                	lui	a0,0x1
   19e30:	38850513          	addi	a0,a0,904 # 1388 <.Lline_table_start1+0x115d>
   19e34:	00a105b3          	add	a1,sp,a0
   19e38:	6505                	lui	a0,0x1
   19e3a:	32450513          	addi	a0,a0,804 # 1324 <.Lline_table_start1+0x10f9>
   19e3e:	950a                	add	a0,a0,sp
   19e40:	03800613          	li	a2,56
   19e44:	00001097          	auipc	ra,0x1
   19e48:	cc0080e7          	jalr	-832(ra) # 1ab04 <memcpy>
   19e4c:	01845513          	srli	a0,s0,0x18
   19e50:	01045593          	srli	a1,s0,0x10
   19e54:	00845613          	srli	a2,s0,0x8
   19e58:	0c8a0ca3          	sb	s0,217(s4)
   19e5c:	0cca0d23          	sb	a2,218(s4)
   19e60:	0cba0da3          	sb	a1,219(s4)
   19e64:	0caa0e23          	sb	a0,220(s4)
   19e68:	6505                	lui	a0,0x1
   19e6a:	07150513          	addi	a0,a0,113 # 1071 <.Lline_table_start1+0xe46>
   19e6e:	950a                	add	a0,a0,sp
   19e70:	6585                	lui	a1,0x1
   19e72:	32458593          	addi	a1,a1,804 # 1324 <.Lline_table_start1+0x10f9>
   19e76:	958a                	add	a1,a1,sp
   19e78:	03800613          	li	a2,56
   19e7c:	00001097          	auipc	ra,0x1
   19e80:	c88080e7          	jalr	-888(ra) # 1ab04 <memcpy>
   19e84:	6505                	lui	a0,0x1
   19e86:	38050513          	addi	a0,a0,896 # 1380 <.Lline_table_start1+0x1155>
   19e8a:	950a                	add	a0,a0,sp
   19e8c:	6585                	lui	a1,0x1
   19e8e:	06a58593          	addi	a1,a1,106 # 106a <.Lline_table_start1+0xe3f>
   19e92:	958a                	add	a1,a1,sp
   19e94:	ffff9097          	auipc	ra,0xffff9
   19e98:	588080e7          	jalr	1416(ra) # 1341c <_ZN20complex_full_dynamic3app17h5de7f2ca5175c4fdE>
   19e9c:	3eca4503          	lbu	a0,1004(s4)
   19ea0:	06051ce3          	bnez	a0,1a718 <_start+0x3a8a>
   19ea4:	3eea4503          	lbu	a0,1006(s4)
   19ea8:	3eda4583          	lbu	a1,1005(s4)
   19eac:	3efa4603          	lbu	a2,1007(s4)
   19eb0:	3f0a2403          	lw	s0,1008(s4)
   19eb4:	0522                	slli	a0,a0,0x8
   19eb6:	8d4d                	or	a0,a0,a1
   19eb8:	10aa1b23          	sh	a0,278(s4)
   19ebc:	10ca0c23          	sb	a2,280(s4)
   19ec0:	6505                	lui	a0,0x1
   19ec2:	38850513          	addi	a0,a0,904 # 1388 <.Lline_table_start1+0x115d>
   19ec6:	00a105b3          	add	a1,sp,a0
   19eca:	6505                	lui	a0,0x1
   19ecc:	32450513          	addi	a0,a0,804 # 1324 <.Lline_table_start1+0x10f9>
   19ed0:	950a                	add	a0,a0,sp
   19ed2:	4655                	li	a2,21
   19ed4:	00001097          	auipc	ra,0x1
   19ed8:	c30080e7          	jalr	-976(ra) # 1ab04 <memcpy>
   19edc:	01845513          	srli	a0,s0,0x18
   19ee0:	01045593          	srli	a1,s0,0x10
   19ee4:	00845613          	srli	a2,s0,0x8
   19ee8:	108a0ca3          	sb	s0,281(s4)
   19eec:	10ca0d23          	sb	a2,282(s4)
   19ef0:	10ba0da3          	sb	a1,283(s4)
   19ef4:	10aa0e23          	sb	a0,284(s4)
   19ef8:	6505                	lui	a0,0x1
   19efa:	0b150513          	addi	a0,a0,177 # 10b1 <.Lline_table_start1+0xe86>
   19efe:	950a                	add	a0,a0,sp
   19f00:	6585                	lui	a1,0x1
   19f02:	32458593          	addi	a1,a1,804 # 1324 <.Lline_table_start1+0x10f9>
   19f06:	958a                	add	a1,a1,sp
   19f08:	4655                	li	a2,21
   19f0a:	00001097          	auipc	ra,0x1
   19f0e:	bfa080e7          	jalr	-1030(ra) # 1ab04 <memcpy>
   19f12:	6505                	lui	a0,0x1
   19f14:	38050513          	addi	a0,a0,896 # 1380 <.Lline_table_start1+0x1155>
   19f18:	950a                	add	a0,a0,sp
   19f1a:	6585                	lui	a1,0x1
   19f1c:	0aa58593          	addi	a1,a1,170 # 10aa <.Lline_table_start1+0xe7f>
   19f20:	958a                	add	a1,a1,sp
   19f22:	ffffb097          	auipc	ra,0xffffb
   19f26:	972080e7          	jalr	-1678(ra) # 14894 <_ZN20complex_full_dynamic3app17h93e6048a1827f079E>
   19f2a:	3eca4503          	lbu	a0,1004(s4)
   19f2e:	7e051563          	bnez	a0,1a718 <_start+0x3a8a>
   19f32:	3eea4503          	lbu	a0,1006(s4)
   19f36:	3eda4583          	lbu	a1,1005(s4)
   19f3a:	3efa4603          	lbu	a2,1007(s4)
   19f3e:	3f0a2403          	lw	s0,1008(s4)
   19f42:	0522                	slli	a0,a0,0x8
   19f44:	8d4d                	or	a0,a0,a1
   19f46:	12aa1923          	sh	a0,306(s4)
   19f4a:	12ca0a23          	sb	a2,308(s4)
   19f4e:	6505                	lui	a0,0x1
   19f50:	38850513          	addi	a0,a0,904 # 1388 <.Lline_table_start1+0x115d>
   19f54:	00a105b3          	add	a1,sp,a0
   19f58:	6505                	lui	a0,0x1
   19f5a:	32450513          	addi	a0,a0,804 # 1324 <.Lline_table_start1+0x10f9>
   19f5e:	950a                	add	a0,a0,sp
   19f60:	05600613          	li	a2,86
   19f64:	00001097          	auipc	ra,0x1
   19f68:	ba0080e7          	jalr	-1120(ra) # 1ab04 <memcpy>
   19f6c:	01845513          	srli	a0,s0,0x18
   19f70:	01045593          	srli	a1,s0,0x10
   19f74:	00845613          	srli	a2,s0,0x8
   19f78:	128a0aa3          	sb	s0,309(s4)
   19f7c:	12ca0b23          	sb	a2,310(s4)
   19f80:	12ba0ba3          	sb	a1,311(s4)
   19f84:	12aa0c23          	sb	a0,312(s4)
   19f88:	6505                	lui	a0,0x1
   19f8a:	0cd50513          	addi	a0,a0,205 # 10cd <.Lline_table_start1+0xea2>
   19f8e:	950a                	add	a0,a0,sp
   19f90:	6585                	lui	a1,0x1
   19f92:	32458593          	addi	a1,a1,804 # 1324 <.Lline_table_start1+0x10f9>
   19f96:	958a                	add	a1,a1,sp
   19f98:	05600613          	li	a2,86
   19f9c:	00001097          	auipc	ra,0x1
   19fa0:	b68080e7          	jalr	-1176(ra) # 1ab04 <memcpy>
   19fa4:	6505                	lui	a0,0x1
   19fa6:	38050513          	addi	a0,a0,896 # 1380 <.Lline_table_start1+0x1155>
   19faa:	950a                	add	a0,a0,sp
   19fac:	6585                	lui	a1,0x1
   19fae:	0c658593          	addi	a1,a1,198 # 10c6 <.Lline_table_start1+0xe9b>
   19fb2:	958a                	add	a1,a1,sp
   19fb4:	ffffa097          	auipc	ra,0xffffa
   19fb8:	a42080e7          	jalr	-1470(ra) # 139f6 <_ZN20complex_full_dynamic3app17h738a2e2e3518471dE>
   19fbc:	3eca4503          	lbu	a0,1004(s4)
   19fc0:	74051c63          	bnez	a0,1a718 <_start+0x3a8a>
   19fc4:	3eda4503          	lbu	a0,1005(s4)
   19fc8:	3eea4583          	lbu	a1,1006(s4)
   19fcc:	3efa4603          	lbu	a2,1007(s4)
   19fd0:	3f0a2683          	lw	a3,1008(s4)
   19fd4:	3f4a2703          	lw	a4,1012(s4)
   19fd8:	3f8a2783          	lw	a5,1016(s4)
   19fdc:	3fca1483          	lh	s1,1020(s4)
   19fe0:	3fea4403          	lbu	s0,1022(s4)
   19fe4:	05a2                	slli	a1,a1,0x8
   19fe6:	38ea2823          	sw	a4,912(s4)
   19fea:	38fa2a23          	sw	a5,916(s4)
   19fee:	389a1c23          	sh	s1,920(s4)
   19ff2:	388a0d23          	sb	s0,922(s4)
   19ff6:	0186d713          	srli	a4,a3,0x18
   19ffa:	8d4d                	or	a0,a0,a1
   19ffc:	0106d593          	srli	a1,a3,0x10
   1a000:	18ba0aa3          	sb	a1,405(s4)
   1a004:	18ea0b23          	sb	a4,406(s4)
   1a008:	0086d593          	srli	a1,a3,0x8
   1a00c:	18aa1823          	sh	a0,400(s4)
   1a010:	18ca0923          	sb	a2,402(s4)
   1a014:	18da09a3          	sb	a3,403(s4)
   1a018:	18ba0a23          	sb	a1,404(s4)
   1a01c:	6505                	lui	a0,0x1
   1a01e:	12b50513          	addi	a0,a0,299 # 112b <.Lline_table_start1+0xf00>
   1a022:	950a                	add	a0,a0,sp
   1a024:	6585                	lui	a1,0x1
   1a026:	32458593          	addi	a1,a1,804 # 1324 <.Lline_table_start1+0x10f9>
   1a02a:	958a                	add	a1,a1,sp
   1a02c:	462d                	li	a2,11
   1a02e:	00001097          	auipc	ra,0x1
   1a032:	ad6080e7          	jalr	-1322(ra) # 1ab04 <memcpy>
   1a036:	6505                	lui	a0,0x1
   1a038:	38050513          	addi	a0,a0,896 # 1380 <.Lline_table_start1+0x1155>
   1a03c:	950a                	add	a0,a0,sp
   1a03e:	6585                	lui	a1,0x1
   1a040:	12458593          	addi	a1,a1,292 # 1124 <.Lline_table_start1+0xef9>
   1a044:	958a                	add	a1,a1,sp
   1a046:	ffff8097          	auipc	ra,0xffff8
   1a04a:	080080e7          	jalr	128(ra) # 120c6 <_ZN20complex_full_dynamic3app17h24fcf14fafba8056E>
   1a04e:	3eca4503          	lbu	a0,1004(s4)
   1a052:	6c051363          	bnez	a0,1a718 <_start+0x3a8a>
   1a056:	3eea4503          	lbu	a0,1006(s4)
   1a05a:	3eda4583          	lbu	a1,1005(s4)
   1a05e:	3efa4603          	lbu	a2,1007(s4)
   1a062:	3f0a2403          	lw	s0,1008(s4)
   1a066:	0522                	slli	a0,a0,0x8
   1a068:	8d4d                	or	a0,a0,a1
   1a06a:	1aaa1123          	sh	a0,418(s4)
   1a06e:	1aca0223          	sb	a2,420(s4)
   1a072:	6505                	lui	a0,0x1
   1a074:	38850513          	addi	a0,a0,904 # 1388 <.Lline_table_start1+0x115d>
   1a078:	00a105b3          	add	a1,sp,a0
   1a07c:	6505                	lui	a0,0x1
   1a07e:	32450513          	addi	a0,a0,804 # 1324 <.Lline_table_start1+0x10f9>
   1a082:	950a                	add	a0,a0,sp
   1a084:	03d00613          	li	a2,61
   1a088:	00001097          	auipc	ra,0x1
   1a08c:	a7c080e7          	jalr	-1412(ra) # 1ab04 <memcpy>
   1a090:	01845513          	srli	a0,s0,0x18
   1a094:	01045593          	srli	a1,s0,0x10
   1a098:	00845613          	srli	a2,s0,0x8
   1a09c:	1a8a02a3          	sb	s0,421(s4)
   1a0a0:	1aca0323          	sb	a2,422(s4)
   1a0a4:	1aba03a3          	sb	a1,423(s4)
   1a0a8:	1aaa0423          	sb	a0,424(s4)
   1a0ac:	6505                	lui	a0,0x1
   1a0ae:	13d50513          	addi	a0,a0,317 # 113d <.Lline_table_start1+0xf12>
   1a0b2:	950a                	add	a0,a0,sp
   1a0b4:	6585                	lui	a1,0x1
   1a0b6:	32458593          	addi	a1,a1,804 # 1324 <.Lline_table_start1+0x10f9>
   1a0ba:	958a                	add	a1,a1,sp
   1a0bc:	03d00613          	li	a2,61
   1a0c0:	00001097          	auipc	ra,0x1
   1a0c4:	a44080e7          	jalr	-1468(ra) # 1ab04 <memcpy>
   1a0c8:	6505                	lui	a0,0x1
   1a0ca:	38050513          	addi	a0,a0,896 # 1380 <.Lline_table_start1+0x1155>
   1a0ce:	950a                	add	a0,a0,sp
   1a0d0:	6585                	lui	a1,0x1
   1a0d2:	13658593          	addi	a1,a1,310 # 1136 <.Lline_table_start1+0xf0b>
   1a0d6:	958a                	add	a1,a1,sp
   1a0d8:	ffff8097          	auipc	ra,0xffff8
   1a0dc:	0e4080e7          	jalr	228(ra) # 121bc <_ZN20complex_full_dynamic3app17h2626371ef7b3e6f2E>
   1a0e0:	3eca4503          	lbu	a0,1004(s4)
   1a0e4:	62051a63          	bnez	a0,1a718 <_start+0x3a8a>
   1a0e8:	3eea4503          	lbu	a0,1006(s4)
   1a0ec:	3eda4583          	lbu	a1,1005(s4)
   1a0f0:	3efa4603          	lbu	a2,1007(s4)
   1a0f4:	3f0a2403          	lw	s0,1008(s4)
   1a0f8:	0522                	slli	a0,a0,0x8
   1a0fa:	8d4d                	or	a0,a0,a1
   1a0fc:	1eaa1323          	sh	a0,486(s4)
   1a100:	1eca0423          	sb	a2,488(s4)
   1a104:	6505                	lui	a0,0x1
   1a106:	38850513          	addi	a0,a0,904 # 1388 <.Lline_table_start1+0x115d>
   1a10a:	00a105b3          	add	a1,sp,a0
   1a10e:	6505                	lui	a0,0x1
   1a110:	32450513          	addi	a0,a0,804 # 1324 <.Lline_table_start1+0x10f9>
   1a114:	950a                	add	a0,a0,sp
   1a116:	4671                	li	a2,28
   1a118:	00001097          	auipc	ra,0x1
   1a11c:	9ec080e7          	jalr	-1556(ra) # 1ab04 <memcpy>
   1a120:	01845513          	srli	a0,s0,0x18
   1a124:	01045593          	srli	a1,s0,0x10
   1a128:	00845613          	srli	a2,s0,0x8
   1a12c:	1e8a04a3          	sb	s0,489(s4)
   1a130:	1eca0523          	sb	a2,490(s4)
   1a134:	1eba05a3          	sb	a1,491(s4)
   1a138:	1eaa0623          	sb	a0,492(s4)
   1a13c:	6505                	lui	a0,0x1
   1a13e:	18150513          	addi	a0,a0,385 # 1181 <.Lline_table_start1+0xf56>
   1a142:	950a                	add	a0,a0,sp
   1a144:	6585                	lui	a1,0x1
   1a146:	32458593          	addi	a1,a1,804 # 1324 <.Lline_table_start1+0x10f9>
   1a14a:	958a                	add	a1,a1,sp
   1a14c:	4671                	li	a2,28
   1a14e:	00001097          	auipc	ra,0x1
   1a152:	9b6080e7          	jalr	-1610(ra) # 1ab04 <memcpy>
   1a156:	6505                	lui	a0,0x1
   1a158:	38050513          	addi	a0,a0,896 # 1380 <.Lline_table_start1+0x1155>
   1a15c:	950a                	add	a0,a0,sp
   1a15e:	6585                	lui	a1,0x1
   1a160:	17a58593          	addi	a1,a1,378 # 117a <.Lline_table_start1+0xf4f>
   1a164:	958a                	add	a1,a1,sp
   1a166:	ffffa097          	auipc	ra,0xffffa
   1a16a:	060080e7          	jalr	96(ra) # 141c6 <_ZN20complex_full_dynamic3app17h7ef3e9fa1adf1084E>
   1a16e:	3eca4503          	lbu	a0,1004(s4)
   1a172:	5a051363          	bnez	a0,1a718 <_start+0x3a8a>
   1a176:	3eea4503          	lbu	a0,1006(s4)
   1a17a:	3eda4583          	lbu	a1,1005(s4)
   1a17e:	3efa4603          	lbu	a2,1007(s4)
   1a182:	3f0a2403          	lw	s0,1008(s4)
   1a186:	0522                	slli	a0,a0,0x8
   1a188:	8d4d                	or	a0,a0,a1
   1a18a:	20aa1523          	sh	a0,522(s4)
   1a18e:	20ca0623          	sb	a2,524(s4)
   1a192:	6505                	lui	a0,0x1
   1a194:	38850513          	addi	a0,a0,904 # 1388 <.Lline_table_start1+0x115d>
   1a198:	00a105b3          	add	a1,sp,a0
   1a19c:	6505                	lui	a0,0x1
   1a19e:	32450513          	addi	a0,a0,804 # 1324 <.Lline_table_start1+0x10f9>
   1a1a2:	950a                	add	a0,a0,sp
   1a1a4:	4675                	li	a2,29
   1a1a6:	00001097          	auipc	ra,0x1
   1a1aa:	95e080e7          	jalr	-1698(ra) # 1ab04 <memcpy>
   1a1ae:	01845513          	srli	a0,s0,0x18
   1a1b2:	01045593          	srli	a1,s0,0x10
   1a1b6:	00845613          	srli	a2,s0,0x8
   1a1ba:	208a06a3          	sb	s0,525(s4)
   1a1be:	20ca0723          	sb	a2,526(s4)
   1a1c2:	20ba07a3          	sb	a1,527(s4)
   1a1c6:	20aa0823          	sb	a0,528(s4)
   1a1ca:	6505                	lui	a0,0x1
   1a1cc:	1a550513          	addi	a0,a0,421 # 11a5 <.Lline_table_start1+0xf7a>
   1a1d0:	950a                	add	a0,a0,sp
   1a1d2:	6585                	lui	a1,0x1
   1a1d4:	32458593          	addi	a1,a1,804 # 1324 <.Lline_table_start1+0x10f9>
   1a1d8:	958a                	add	a1,a1,sp
   1a1da:	4675                	li	a2,29
   1a1dc:	00001097          	auipc	ra,0x1
   1a1e0:	928080e7          	jalr	-1752(ra) # 1ab04 <memcpy>
   1a1e4:	6505                	lui	a0,0x1
   1a1e6:	38050513          	addi	a0,a0,896 # 1380 <.Lline_table_start1+0x1155>
   1a1ea:	950a                	add	a0,a0,sp
   1a1ec:	6585                	lui	a1,0x1
   1a1ee:	19e58593          	addi	a1,a1,414 # 119e <.Lline_table_start1+0xf73>
   1a1f2:	958a                	add	a1,a1,sp
   1a1f4:	ffffc097          	auipc	ra,0xffffc
   1a1f8:	7ae080e7          	jalr	1966(ra) # 169a2 <_ZN20complex_full_dynamic3app17hfc16a2b2c929d5e2E>
   1a1fc:	3eca4503          	lbu	a0,1004(s4)
   1a200:	50051c63          	bnez	a0,1a718 <_start+0x3a8a>
   1a204:	3eea4503          	lbu	a0,1006(s4)
   1a208:	3eda4583          	lbu	a1,1005(s4)
   1a20c:	3efa4603          	lbu	a2,1007(s4)
   1a210:	3f0a2403          	lw	s0,1008(s4)
   1a214:	0522                	slli	a0,a0,0x8
   1a216:	8d4d                	or	a0,a0,a1
   1a218:	22aa1723          	sh	a0,558(s4)
   1a21c:	22ca0823          	sb	a2,560(s4)
   1a220:	6505                	lui	a0,0x1
   1a222:	38850513          	addi	a0,a0,904 # 1388 <.Lline_table_start1+0x115d>
   1a226:	00a105b3          	add	a1,sp,a0
   1a22a:	6505                	lui	a0,0x1
   1a22c:	32450513          	addi	a0,a0,804 # 1324 <.Lline_table_start1+0x10f9>
   1a230:	950a                	add	a0,a0,sp
   1a232:	02800613          	li	a2,40
   1a236:	00001097          	auipc	ra,0x1
   1a23a:	8ce080e7          	jalr	-1842(ra) # 1ab04 <memcpy>
   1a23e:	01845513          	srli	a0,s0,0x18
   1a242:	01045593          	srli	a1,s0,0x10
   1a246:	00845613          	srli	a2,s0,0x8
   1a24a:	228a08a3          	sb	s0,561(s4)
   1a24e:	22ca0923          	sb	a2,562(s4)
   1a252:	22ba09a3          	sb	a1,563(s4)
   1a256:	22aa0a23          	sb	a0,564(s4)
   1a25a:	6505                	lui	a0,0x1
   1a25c:	1c950513          	addi	a0,a0,457 # 11c9 <.Lline_table_start1+0xf9e>
   1a260:	950a                	add	a0,a0,sp
   1a262:	6585                	lui	a1,0x1
   1a264:	32458593          	addi	a1,a1,804 # 1324 <.Lline_table_start1+0x10f9>
   1a268:	958a                	add	a1,a1,sp
   1a26a:	02800613          	li	a2,40
   1a26e:	00001097          	auipc	ra,0x1
   1a272:	896080e7          	jalr	-1898(ra) # 1ab04 <memcpy>
   1a276:	6505                	lui	a0,0x1
   1a278:	38050513          	addi	a0,a0,896 # 1380 <.Lline_table_start1+0x1155>
   1a27c:	950a                	add	a0,a0,sp
   1a27e:	6585                	lui	a1,0x1
   1a280:	1c258593          	addi	a1,a1,450 # 11c2 <.Lline_table_start1+0xf97>
   1a284:	958a                	add	a1,a1,sp
   1a286:	ffff7097          	auipc	ra,0xffff7
   1a28a:	298080e7          	jalr	664(ra) # 1151e <_ZN20complex_full_dynamic3app17h074cbf0a578ee20dE>
   1a28e:	3eca4503          	lbu	a0,1004(s4)
   1a292:	48051363          	bnez	a0,1a718 <_start+0x3a8a>
   1a296:	3eea4503          	lbu	a0,1006(s4)
   1a29a:	3eda4583          	lbu	a1,1005(s4)
   1a29e:	3efa4603          	lbu	a2,1007(s4)
   1a2a2:	3f0a2403          	lw	s0,1008(s4)
   1a2a6:	0522                	slli	a0,a0,0x8
   1a2a8:	8d4d                	or	a0,a0,a1
   1a2aa:	24aa1f23          	sh	a0,606(s4)
   1a2ae:	26ca0023          	sb	a2,608(s4)
   1a2b2:	6505                	lui	a0,0x1
   1a2b4:	38850513          	addi	a0,a0,904 # 1388 <.Lline_table_start1+0x115d>
   1a2b8:	00a105b3          	add	a1,sp,a0
   1a2bc:	6505                	lui	a0,0x1
   1a2be:	32450513          	addi	a0,a0,804 # 1324 <.Lline_table_start1+0x10f9>
   1a2c2:	950a                	add	a0,a0,sp
   1a2c4:	05700613          	li	a2,87
   1a2c8:	00001097          	auipc	ra,0x1
   1a2cc:	83c080e7          	jalr	-1988(ra) # 1ab04 <memcpy>
   1a2d0:	01845513          	srli	a0,s0,0x18
   1a2d4:	01045593          	srli	a1,s0,0x10
   1a2d8:	00845613          	srli	a2,s0,0x8
   1a2dc:	268a00a3          	sb	s0,609(s4)
   1a2e0:	26ca0123          	sb	a2,610(s4)
   1a2e4:	26ba01a3          	sb	a1,611(s4)
   1a2e8:	26aa0223          	sb	a0,612(s4)
   1a2ec:	6505                	lui	a0,0x1
   1a2ee:	1f950513          	addi	a0,a0,505 # 11f9 <.Lline_table_start1+0xfce>
   1a2f2:	950a                	add	a0,a0,sp
   1a2f4:	6585                	lui	a1,0x1
   1a2f6:	32458593          	addi	a1,a1,804 # 1324 <.Lline_table_start1+0x10f9>
   1a2fa:	958a                	add	a1,a1,sp
   1a2fc:	05700613          	li	a2,87
   1a300:	00001097          	auipc	ra,0x1
   1a304:	804080e7          	jalr	-2044(ra) # 1ab04 <memcpy>
   1a308:	6505                	lui	a0,0x1
   1a30a:	38050513          	addi	a0,a0,896 # 1380 <.Lline_table_start1+0x1155>
   1a30e:	950a                	add	a0,a0,sp
   1a310:	6585                	lui	a1,0x1
   1a312:	1f258593          	addi	a1,a1,498 # 11f2 <.Lline_table_start1+0xfc7>
   1a316:	958a                	add	a1,a1,sp
   1a318:	ffffc097          	auipc	ra,0xffffc
   1a31c:	cc8080e7          	jalr	-824(ra) # 15fe0 <_ZN20complex_full_dynamic3app17he307b575e700b46dE>
   1a320:	3eca4503          	lbu	a0,1004(s4)
   1a324:	3e051a63          	bnez	a0,1a718 <_start+0x3a8a>
   1a328:	3eea4503          	lbu	a0,1006(s4)
   1a32c:	3eda4583          	lbu	a1,1005(s4)
   1a330:	3efa4603          	lbu	a2,1007(s4)
   1a334:	3f0a2403          	lw	s0,1008(s4)
   1a338:	0522                	slli	a0,a0,0x8
   1a33a:	8d4d                	or	a0,a0,a1
   1a33c:	2aaa1e23          	sh	a0,700(s4)
   1a340:	2aca0f23          	sb	a2,702(s4)
   1a344:	6505                	lui	a0,0x1
   1a346:	38850513          	addi	a0,a0,904 # 1388 <.Lline_table_start1+0x115d>
   1a34a:	00a105b3          	add	a1,sp,a0
   1a34e:	6505                	lui	a0,0x1
   1a350:	32450513          	addi	a0,a0,804 # 1324 <.Lline_table_start1+0x10f9>
   1a354:	950a                	add	a0,a0,sp
   1a356:	04e00613          	li	a2,78
   1a35a:	00000097          	auipc	ra,0x0
   1a35e:	7aa080e7          	jalr	1962(ra) # 1ab04 <memcpy>
   1a362:	01845513          	srli	a0,s0,0x18
   1a366:	01045593          	srli	a1,s0,0x10
   1a36a:	00845613          	srli	a2,s0,0x8
   1a36e:	2a8a0fa3          	sb	s0,703(s4)
   1a372:	2cca0023          	sb	a2,704(s4)
   1a376:	2cba00a3          	sb	a1,705(s4)
   1a37a:	2caa0123          	sb	a0,706(s4)
   1a37e:	6505                	lui	a0,0x1
   1a380:	25750513          	addi	a0,a0,599 # 1257 <.Lline_table_start1+0x102c>
   1a384:	950a                	add	a0,a0,sp
   1a386:	6585                	lui	a1,0x1
   1a388:	32458593          	addi	a1,a1,804 # 1324 <.Lline_table_start1+0x10f9>
   1a38c:	958a                	add	a1,a1,sp
   1a38e:	04e00613          	li	a2,78
   1a392:	00000097          	auipc	ra,0x0
   1a396:	772080e7          	jalr	1906(ra) # 1ab04 <memcpy>
   1a39a:	6505                	lui	a0,0x1
   1a39c:	38050513          	addi	a0,a0,896 # 1380 <.Lline_table_start1+0x1155>
   1a3a0:	950a                	add	a0,a0,sp
   1a3a2:	6585                	lui	a1,0x1
   1a3a4:	25058593          	addi	a1,a1,592 # 1250 <.Lline_table_start1+0x1025>
   1a3a8:	958a                	add	a1,a1,sp
   1a3aa:	ffff9097          	auipc	ra,0xffff9
   1a3ae:	ba6080e7          	jalr	-1114(ra) # 12f50 <_ZN20complex_full_dynamic3app17h53ac7203f67850dcE>
   1a3b2:	3eca4503          	lbu	a0,1004(s4)
   1a3b6:	36051163          	bnez	a0,1a718 <_start+0x3a8a>
   1a3ba:	3eda4503          	lbu	a0,1005(s4)
   1a3be:	3eea4583          	lbu	a1,1006(s4)
   1a3c2:	3efa4603          	lbu	a2,1007(s4)
   1a3c6:	3f0a2683          	lw	a3,1008(s4)
   1a3ca:	3f4a2703          	lw	a4,1012(s4)
   1a3ce:	3f8a2783          	lw	a5,1016(s4)
   1a3d2:	3fca1483          	lh	s1,1020(s4)
   1a3d6:	05a2                	slli	a1,a1,0x8
   1a3d8:	38ea2823          	sw	a4,912(s4)
   1a3dc:	38fa2a23          	sw	a5,916(s4)
   1a3e0:	389a1c23          	sh	s1,920(s4)
   1a3e4:	0186d713          	srli	a4,a3,0x18
   1a3e8:	8d4d                	or	a0,a0,a1
   1a3ea:	0106d593          	srli	a1,a3,0x10
   1a3ee:	30ba0ba3          	sb	a1,791(s4)
   1a3f2:	30ea0c23          	sb	a4,792(s4)
   1a3f6:	0086d593          	srli	a1,a3,0x8
   1a3fa:	30aa1923          	sh	a0,786(s4)
   1a3fe:	30ca0a23          	sb	a2,788(s4)
   1a402:	30da0aa3          	sb	a3,789(s4)
   1a406:	30ba0b23          	sb	a1,790(s4)
   1a40a:	6505                	lui	a0,0x1
   1a40c:	2ad50513          	addi	a0,a0,685 # 12ad <.Lline_table_start1+0x1082>
   1a410:	950a                	add	a0,a0,sp
   1a412:	6585                	lui	a1,0x1
   1a414:	32458593          	addi	a1,a1,804 # 1324 <.Lline_table_start1+0x10f9>
   1a418:	958a                	add	a1,a1,sp
   1a41a:	4629                	li	a2,10
   1a41c:	00000097          	auipc	ra,0x0
   1a420:	6e8080e7          	jalr	1768(ra) # 1ab04 <memcpy>
   1a424:	6505                	lui	a0,0x1
   1a426:	38050513          	addi	a0,a0,896 # 1380 <.Lline_table_start1+0x1155>
   1a42a:	950a                	add	a0,a0,sp
   1a42c:	6585                	lui	a1,0x1
   1a42e:	2a658593          	addi	a1,a1,678 # 12a6 <.Lline_table_start1+0x107b>
   1a432:	958a                	add	a1,a1,sp
   1a434:	ffff9097          	auipc	ra,0xffff9
   1a438:	836080e7          	jalr	-1994(ra) # 12c6a <_ZN20complex_full_dynamic3app17h49ef72ea277420f4E>
   1a43c:	3eca4503          	lbu	a0,1004(s4)
   1a440:	2c051c63          	bnez	a0,1a718 <_start+0x3a8a>
   1a444:	3eea4503          	lbu	a0,1006(s4)
   1a448:	3eda4583          	lbu	a1,1005(s4)
   1a44c:	3efa4603          	lbu	a2,1007(s4)
   1a450:	3f0a2403          	lw	s0,1008(s4)
   1a454:	0522                	slli	a0,a0,0x8
   1a456:	8d4d                	or	a0,a0,a1
   1a458:	32aa1223          	sh	a0,804(s4)
   1a45c:	32ca0323          	sb	a2,806(s4)
   1a460:	6505                	lui	a0,0x1
   1a462:	38850513          	addi	a0,a0,904 # 1388 <.Lline_table_start1+0x115d>
   1a466:	00a105b3          	add	a1,sp,a0
   1a46a:	6505                	lui	a0,0x1
   1a46c:	32450513          	addi	a0,a0,804 # 1324 <.Lline_table_start1+0x10f9>
   1a470:	950a                	add	a0,a0,sp
   1a472:	04900613          	li	a2,73
   1a476:	00000097          	auipc	ra,0x0
   1a47a:	68e080e7          	jalr	1678(ra) # 1ab04 <memcpy>
   1a47e:	01845513          	srli	a0,s0,0x18
   1a482:	01045593          	srli	a1,s0,0x10
   1a486:	00845613          	srli	a2,s0,0x8
   1a48a:	328a03a3          	sb	s0,807(s4)
   1a48e:	32ca0423          	sb	a2,808(s4)
   1a492:	32ba04a3          	sb	a1,809(s4)
   1a496:	32aa0523          	sb	a0,810(s4)
   1a49a:	6505                	lui	a0,0x1
   1a49c:	2bf50513          	addi	a0,a0,703 # 12bf <.Lline_table_start1+0x1094>
   1a4a0:	950a                	add	a0,a0,sp
   1a4a2:	6585                	lui	a1,0x1
   1a4a4:	32458593          	addi	a1,a1,804 # 1324 <.Lline_table_start1+0x10f9>
   1a4a8:	958a                	add	a1,a1,sp
   1a4aa:	04900613          	li	a2,73
   1a4ae:	00000097          	auipc	ra,0x0
   1a4b2:	656080e7          	jalr	1622(ra) # 1ab04 <memcpy>
   1a4b6:	6505                	lui	a0,0x1
   1a4b8:	38050513          	addi	a0,a0,896 # 1380 <.Lline_table_start1+0x1155>
   1a4bc:	950a                	add	a0,a0,sp
   1a4be:	6585                	lui	a1,0x1
   1a4c0:	2b858593          	addi	a1,a1,696 # 12b8 <.Lline_table_start1+0x108d>
   1a4c4:	958a                	add	a1,a1,sp
   1a4c6:	ffff7097          	auipc	ra,0xffff7
   1a4ca:	24c080e7          	jalr	588(ra) # 11712 <_ZN20complex_full_dynamic3app17h0f6fbdf52f91755cE>
   1a4ce:	3eca4503          	lbu	a0,1004(s4)
   1a4d2:	24051363          	bnez	a0,1a718 <_start+0x3a8a>
   1a4d6:	3eea4503          	lbu	a0,1006(s4)
   1a4da:	3eda4583          	lbu	a1,1005(s4)
   1a4de:	3efa4603          	lbu	a2,1007(s4)
   1a4e2:	3f0a2403          	lw	s0,1008(s4)
   1a4e6:	0522                	slli	a0,a0,0x8
   1a4e8:	8d4d                	or	a0,a0,a1
   1a4ea:	36aa1a23          	sh	a0,884(s4)
   1a4ee:	36ca0b23          	sb	a2,886(s4)
   1a4f2:	6505                	lui	a0,0x1
   1a4f4:	38850513          	addi	a0,a0,904 # 1388 <.Lline_table_start1+0x115d>
   1a4f8:	00a105b3          	add	a1,sp,a0
   1a4fc:	6505                	lui	a0,0x1
   1a4fe:	32450513          	addi	a0,a0,804 # 1324 <.Lline_table_start1+0x10f9>
   1a502:	950a                	add	a0,a0,sp
   1a504:	4651                	li	a2,20
   1a506:	00000097          	auipc	ra,0x0
   1a50a:	5fe080e7          	jalr	1534(ra) # 1ab04 <memcpy>
   1a50e:	01845513          	srli	a0,s0,0x18
   1a512:	01045593          	srli	a1,s0,0x10
   1a516:	00845613          	srli	a2,s0,0x8
   1a51a:	368a0ba3          	sb	s0,887(s4)
   1a51e:	36ca0c23          	sb	a2,888(s4)
   1a522:	36ba0ca3          	sb	a1,889(s4)
   1a526:	36aa0d23          	sb	a0,890(s4)
   1a52a:	6505                	lui	a0,0x1
   1a52c:	30f50513          	addi	a0,a0,783 # 130f <.Lline_table_start1+0x10e4>
   1a530:	950a                	add	a0,a0,sp
   1a532:	6585                	lui	a1,0x1
   1a534:	32458593          	addi	a1,a1,804 # 1324 <.Lline_table_start1+0x10f9>
   1a538:	958a                	add	a1,a1,sp
   1a53a:	4651                	li	a2,20
   1a53c:	00000097          	auipc	ra,0x0
   1a540:	5c8080e7          	jalr	1480(ra) # 1ab04 <memcpy>
   1a544:	6505                	lui	a0,0x1
   1a546:	38050513          	addi	a0,a0,896 # 1380 <.Lline_table_start1+0x1155>
   1a54a:	950a                	add	a0,a0,sp
   1a54c:	6585                	lui	a1,0x1
   1a54e:	30858593          	addi	a1,a1,776 # 1308 <.Lline_table_start1+0x10dd>
   1a552:	958a                	add	a1,a1,sp
   1a554:	ffffa097          	auipc	ra,0xffffa
   1a558:	e66080e7          	jalr	-410(ra) # 143ba <_ZN20complex_full_dynamic3app17h7f65068f855a2c78E>
   1a55c:	3eca4503          	lbu	a0,1004(s4)
   1a560:	1a051c63          	bnez	a0,1a718 <_start+0x3a8a>
   1a564:	3eea4503          	lbu	a0,1006(s4)
   1a568:	3eda4583          	lbu	a1,1005(s4)
   1a56c:	3efa4603          	lbu	a2,1007(s4)
   1a570:	3f0a2403          	lw	s0,1008(s4)
   1a574:	0522                	slli	a0,a0,0x8
   1a576:	8d4d                	or	a0,a0,a1
   1a578:	44aa1923          	sh	a0,1106(s4)
   1a57c:	44ca0a23          	sb	a2,1108(s4)
   1a580:	6505                	lui	a0,0x1
   1a582:	38850513          	addi	a0,a0,904 # 1388 <.Lline_table_start1+0x115d>
   1a586:	00a105b3          	add	a1,sp,a0
   1a58a:	6505                	lui	a0,0x1
   1a58c:	32450513          	addi	a0,a0,804 # 1324 <.Lline_table_start1+0x10f9>
   1a590:	950a                	add	a0,a0,sp
   1a592:	05c00613          	li	a2,92
   1a596:	00000097          	auipc	ra,0x0
   1a59a:	56e080e7          	jalr	1390(ra) # 1ab04 <memcpy>
   1a59e:	01845513          	srli	a0,s0,0x18
   1a5a2:	01045593          	srli	a1,s0,0x10
   1a5a6:	00845613          	srli	a2,s0,0x8
   1a5aa:	448a0aa3          	sb	s0,1109(s4)
   1a5ae:	44ca0b23          	sb	a2,1110(s4)
   1a5b2:	44ba0ba3          	sb	a1,1111(s4)
   1a5b6:	44aa0c23          	sb	a0,1112(s4)
   1a5ba:	6505                	lui	a0,0x1
   1a5bc:	3ed50513          	addi	a0,a0,1005 # 13ed <.Lline_table_start1+0x11c2>
   1a5c0:	950a                	add	a0,a0,sp
   1a5c2:	6585                	lui	a1,0x1
   1a5c4:	32458593          	addi	a1,a1,804 # 1324 <.Lline_table_start1+0x10f9>
   1a5c8:	958a                	add	a1,a1,sp
   1a5ca:	05c00613          	li	a2,92
   1a5ce:	00000097          	auipc	ra,0x0
   1a5d2:	536080e7          	jalr	1334(ra) # 1ab04 <memcpy>
   1a5d6:	6505                	lui	a0,0x1
   1a5d8:	38050513          	addi	a0,a0,896 # 1380 <.Lline_table_start1+0x1155>
   1a5dc:	950a                	add	a0,a0,sp
   1a5de:	6585                	lui	a1,0x1
   1a5e0:	3e658593          	addi	a1,a1,998 # 13e6 <.Lline_table_start1+0x11bb>
   1a5e4:	958a                	add	a1,a1,sp
   1a5e6:	ffffa097          	auipc	ra,0xffffa
   1a5ea:	788080e7          	jalr	1928(ra) # 14d6e <_ZN20complex_full_dynamic3app17h997e10750d6c0511E>
   1a5ee:	3eca4503          	lbu	a0,1004(s4)
   1a5f2:	12051363          	bnez	a0,1a718 <_start+0x3a8a>
   1a5f6:	3eea4503          	lbu	a0,1006(s4)
   1a5fa:	3eda4583          	lbu	a1,1005(s4)
   1a5fe:	3efa4603          	lbu	a2,1007(s4)
   1a602:	3f0a2403          	lw	s0,1008(s4)
   1a606:	0522                	slli	a0,a0,0x8
   1a608:	8d4d                	or	a0,a0,a1
   1a60a:	4aaa1b23          	sh	a0,1206(s4)
   1a60e:	4aca0c23          	sb	a2,1208(s4)
   1a612:	6505                	lui	a0,0x1
   1a614:	38850513          	addi	a0,a0,904 # 1388 <.Lline_table_start1+0x115d>
   1a618:	00a105b3          	add	a1,sp,a0
   1a61c:	6505                	lui	a0,0x1
   1a61e:	32450513          	addi	a0,a0,804 # 1324 <.Lline_table_start1+0x10f9>
   1a622:	950a                	add	a0,a0,sp
   1a624:	02500613          	li	a2,37
   1a628:	00000097          	auipc	ra,0x0
   1a62c:	4dc080e7          	jalr	1244(ra) # 1ab04 <memcpy>
   1a630:	01845513          	srli	a0,s0,0x18
   1a634:	01045593          	srli	a1,s0,0x10
   1a638:	00845613          	srli	a2,s0,0x8
   1a63c:	4a8a0ca3          	sb	s0,1209(s4)
   1a640:	4aca0d23          	sb	a2,1210(s4)
   1a644:	4aba0da3          	sb	a1,1211(s4)
   1a648:	4aaa0e23          	sb	a0,1212(s4)
   1a64c:	6505                	lui	a0,0x1
   1a64e:	45150513          	addi	a0,a0,1105 # 1451 <.Lline_table_start1+0x1226>
   1a652:	950a                	add	a0,a0,sp
   1a654:	6585                	lui	a1,0x1
   1a656:	32458593          	addi	a1,a1,804 # 1324 <.Lline_table_start1+0x10f9>
   1a65a:	958a                	add	a1,a1,sp
   1a65c:	02500613          	li	a2,37
   1a660:	00000097          	auipc	ra,0x0
   1a664:	4a4080e7          	jalr	1188(ra) # 1ab04 <memcpy>
   1a668:	6505                	lui	a0,0x1
   1a66a:	38050513          	addi	a0,a0,896 # 1380 <.Lline_table_start1+0x1155>
   1a66e:	950a                	add	a0,a0,sp
   1a670:	6585                	lui	a1,0x1
   1a672:	44a58593          	addi	a1,a1,1098 # 144a <.Lline_table_start1+0x121f>
   1a676:	958a                	add	a1,a1,sp
   1a678:	ffffa097          	auipc	ra,0xffffa
   1a67c:	958080e7          	jalr	-1704(ra) # 13fd0 <_ZN20complex_full_dynamic3app17h7da6cf7ba106af06E>
   1a680:	3eca4503          	lbu	a0,1004(s4)
   1a684:	e951                	bnez	a0,1a718 <_start+0x3a8a>
   1a686:	3eea4503          	lbu	a0,1006(s4)
   1a68a:	3eda4583          	lbu	a1,1005(s4)
   1a68e:	3efa4603          	lbu	a2,1007(s4)
   1a692:	3f0a2403          	lw	s0,1008(s4)
   1a696:	0522                	slli	a0,a0,0x8
   1a698:	8d4d                	or	a0,a0,a1
   1a69a:	4eaa1123          	sh	a0,1250(s4)
   1a69e:	4eca0223          	sb	a2,1252(s4)
   1a6a2:	6505                	lui	a0,0x1
   1a6a4:	38850513          	addi	a0,a0,904 # 1388 <.Lline_table_start1+0x115d>
   1a6a8:	00a105b3          	add	a1,sp,a0
   1a6ac:	6505                	lui	a0,0x1
   1a6ae:	32450513          	addi	a0,a0,804 # 1324 <.Lline_table_start1+0x10f9>
   1a6b2:	950a                	add	a0,a0,sp
   1a6b4:	02300613          	li	a2,35
   1a6b8:	00000097          	auipc	ra,0x0
   1a6bc:	44c080e7          	jalr	1100(ra) # 1ab04 <memcpy>
   1a6c0:	01845513          	srli	a0,s0,0x18
   1a6c4:	01045593          	srli	a1,s0,0x10
   1a6c8:	00845613          	srli	a2,s0,0x8
   1a6cc:	4e8a02a3          	sb	s0,1253(s4)
   1a6d0:	4eca0323          	sb	a2,1254(s4)
   1a6d4:	4eba03a3          	sb	a1,1255(s4)
   1a6d8:	4eaa0423          	sb	a0,1256(s4)
   1a6dc:	6505                	lui	a0,0x1
   1a6de:	47d50513          	addi	a0,a0,1149 # 147d <.Lline_table_start1+0x1252>
   1a6e2:	950a                	add	a0,a0,sp
   1a6e4:	6585                	lui	a1,0x1
   1a6e6:	32458593          	addi	a1,a1,804 # 1324 <.Lline_table_start1+0x10f9>
   1a6ea:	958a                	add	a1,a1,sp
   1a6ec:	02300613          	li	a2,35
   1a6f0:	00000097          	auipc	ra,0x0
   1a6f4:	414080e7          	jalr	1044(ra) # 1ab04 <memcpy>
   1a6f8:	6505                	lui	a0,0x1
   1a6fa:	38050513          	addi	a0,a0,896 # 1380 <.Lline_table_start1+0x1155>
   1a6fe:	950a                	add	a0,a0,sp
   1a700:	6585                	lui	a1,0x1
   1a702:	47658593          	addi	a1,a1,1142 # 1476 <.Lline_table_start1+0x124b>
   1a706:	958a                	add	a1,a1,sp
   1a708:	ffff9097          	auipc	ra,0xffff9
   1a70c:	f02080e7          	jalr	-254(ra) # 1360a <_ZN20complex_full_dynamic3app17h609cbabca1cfe1faE>
   1a710:	3eca4503          	lbu	a0,1004(s4)
   1a714:	36050263          	beqz	a0,1aa78 <_start+0x3dea>
   1a718:	3f0a2b03          	lw	s6,1008(s4)
   1a71c:	4505                	li	a0,1
   1a71e:	85da                	mv	a1,s6
   1a720:	7f010113          	addi	sp,sp,2032
   1a724:	4e010113          	addi	sp,sp,1248
   1a728:	7ec12083          	lw	ra,2028(sp)
   1a72c:	7e812403          	lw	s0,2024(sp)
   1a730:	7e412483          	lw	s1,2020(sp)
   1a734:	7e012903          	lw	s2,2016(sp)
   1a738:	7dc12983          	lw	s3,2012(sp)
   1a73c:	7d812a03          	lw	s4,2008(sp)
   1a740:	7d412a83          	lw	s5,2004(sp)
   1a744:	7d012b03          	lw	s6,2000(sp)
   1a748:	7f010113          	addi	sp,sp,2032
   1a74c:	8082                	ret
   1a74e:	08c8                	addi	a0,sp,84
   1a750:	00000097          	auipc	ra,0x0
   1a754:	32a080e7          	jalr	810(ra) # 1aa7a <_ZN9allow_pin12full_dynamic17unshare_if_shared17hcb7d6c8e9042aa41E>
   1a758:	6505                	lui	a0,0x1
   1a75a:	38050513          	addi	a0,a0,896 # 1380 <.Lline_table_start1+0x1155>
   1a75e:	950a                	add	a0,a0,sp
   1a760:	00000097          	auipc	ra,0x0
   1a764:	31a080e7          	jalr	794(ra) # 1aa7a <_ZN9allow_pin12full_dynamic17unshare_if_shared17hcb7d6c8e9042aa41E>
   1a768:	6505                	lui	a0,0x1
   1a76a:	38050513          	addi	a0,a0,896 # 1380 <.Lline_table_start1+0x1155>
   1a76e:	950a                	add	a0,a0,sp
   1a770:	00000097          	auipc	ra,0x0
   1a774:	30a080e7          	jalr	778(ra) # 1aa7a <_ZN9allow_pin12full_dynamic17unshare_if_shared17hcb7d6c8e9042aa41E>
   1a778:	00194503          	lbu	a0,1(s2)
   1a77c:	00094583          	lbu	a1,0(s2)
   1a780:	00294603          	lbu	a2,2(s2)
   1a784:	0522                	slli	a0,a0,0x8
   1a786:	3fba4683          	lbu	a3,1019(s4)
   1a78a:	3fca4703          	lbu	a4,1020(s4)
   1a78e:	8d4d                	or	a0,a0,a1
   1a790:	3fda4583          	lbu	a1,1021(s4)
   1a794:	3fea4783          	lbu	a5,1022(s4)
   1a798:	0722                	slli	a4,a4,0x8
   1a79a:	8ed9                	or	a3,a3,a4
   1a79c:	05c2                	slli	a1,a1,0x10
   1a79e:	07e2                	slli	a5,a5,0x18
   1a7a0:	8ddd                	or	a1,a1,a5
   1a7a2:	08a11a23          	sh	a0,148(sp)
   1a7a6:	08c10b23          	sb	a2,150(sp)
   1a7aa:	00d5eb33          	or	s6,a1,a3
   1a7ae:	6505                	lui	a0,0x1
   1a7b0:	39350513          	addi	a0,a0,915 # 1393 <.Lline_table_start1+0x1168>
   1a7b4:	00a105b3          	add	a1,sp,a0
   1a7b8:	0028                	addi	a0,sp,8
   1a7ba:	04a00613          	li	a2,74
   1a7be:	00000097          	auipc	ra,0x0
   1a7c2:	346080e7          	jalr	838(ra) # 1ab04 <memcpy>
   1a7c6:	4481                	li	s1,0
   1a7c8:	d9afc06f          	j	16d62 <_start+0xd4>
   1a7cc:	6505                	lui	a0,0x1
   1a7ce:	38050513          	addi	a0,a0,896 # 1380 <.Lline_table_start1+0x1155>
   1a7d2:	950a                	add	a0,a0,sp
   1a7d4:	00000097          	auipc	ra,0x0
   1a7d8:	2a6080e7          	jalr	678(ra) # 1aa7a <_ZN9allow_pin12full_dynamic17unshare_if_shared17hcb7d6c8e9042aa41E>
   1a7dc:	6505                	lui	a0,0x1
   1a7de:	32450513          	addi	a0,a0,804 # 1324 <.Lline_table_start1+0x10f9>
   1a7e2:	950a                	add	a0,a0,sp
   1a7e4:	00000097          	auipc	ra,0x0
   1a7e8:	296080e7          	jalr	662(ra) # 1aa7a <_ZN9allow_pin12full_dynamic17unshare_if_shared17hcb7d6c8e9042aa41E>
   1a7ec:	6505                	lui	a0,0x1
   1a7ee:	32450513          	addi	a0,a0,804 # 1324 <.Lline_table_start1+0x10f9>
   1a7f2:	950a                	add	a0,a0,sp
   1a7f4:	00000097          	auipc	ra,0x0
   1a7f8:	286080e7          	jalr	646(ra) # 1aa7a <_ZN9allow_pin12full_dynamic17unshare_if_shared17hcb7d6c8e9042aa41E>
   1a7fc:	0019c503          	lbu	a0,1(s3)
   1a800:	0009c583          	lbu	a1,0(s3)
   1a804:	0029c603          	lbu	a2,2(s3)
   1a808:	0522                	slli	a0,a0,0x8
   1a80a:	39fa4683          	lbu	a3,927(s4)
   1a80e:	3a0a4703          	lbu	a4,928(s4)
   1a812:	8d4d                	or	a0,a0,a1
   1a814:	3a1a4583          	lbu	a1,929(s4)
   1a818:	3a2a4783          	lbu	a5,930(s4)
   1a81c:	0722                	slli	a4,a4,0x8
   1a81e:	8ed9                	or	a3,a3,a4
   1a820:	05c2                	slli	a1,a1,0x10
   1a822:	07e2                	slli	a5,a5,0x18
   1a824:	8ddd                	or	a1,a1,a5
   1a826:	08a11a23          	sh	a0,148(sp)
   1a82a:	08c10b23          	sb	a2,150(sp)
   1a82e:	00d5eb33          	or	s6,a1,a3
   1a832:	6505                	lui	a0,0x1
   1a834:	33750513          	addi	a0,a0,823 # 1337 <.Lline_table_start1+0x110c>
   1a838:	00a105b3          	add	a1,sp,a0
   1a83c:	08c8                	addi	a0,sp,84
   1a83e:	03f00613          	li	a2,63
   1a842:	00000097          	auipc	ra,0x0
   1a846:	2c2080e7          	jalr	706(ra) # 1ab04 <memcpy>
   1a84a:	4481                	li	s1,0
   1a84c:	e36fc06f          	j	16e82 <_start+0x1f4>
   1a850:	6505                	lui	a0,0x1
   1a852:	38050513          	addi	a0,a0,896 # 1380 <.Lline_table_start1+0x1155>
   1a856:	950a                	add	a0,a0,sp
   1a858:	00000097          	auipc	ra,0x0
   1a85c:	222080e7          	jalr	546(ra) # 1aa7a <_ZN9allow_pin12full_dynamic17unshare_if_shared17hcb7d6c8e9042aa41E>
   1a860:	6505                	lui	a0,0x1
   1a862:	32450513          	addi	a0,a0,804 # 1324 <.Lline_table_start1+0x10f9>
   1a866:	950a                	add	a0,a0,sp
   1a868:	00000097          	auipc	ra,0x0
   1a86c:	212080e7          	jalr	530(ra) # 1aa7a <_ZN9allow_pin12full_dynamic17unshare_if_shared17hcb7d6c8e9042aa41E>
   1a870:	6505                	lui	a0,0x1
   1a872:	32450513          	addi	a0,a0,804 # 1324 <.Lline_table_start1+0x10f9>
   1a876:	950a                	add	a0,a0,sp
   1a878:	00000097          	auipc	ra,0x0
   1a87c:	202080e7          	jalr	514(ra) # 1aa7a <_ZN9allow_pin12full_dynamic17unshare_if_shared17hcb7d6c8e9042aa41E>
   1a880:	0019c503          	lbu	a0,1(s3)
   1a884:	0009c583          	lbu	a1,0(s3)
   1a888:	0029c603          	lbu	a2,2(s3)
   1a88c:	0522                	slli	a0,a0,0x8
   1a88e:	39fa4683          	lbu	a3,927(s4)
   1a892:	3a0a4703          	lbu	a4,928(s4)
   1a896:	8d4d                	or	a0,a0,a1
   1a898:	3a1a4583          	lbu	a1,929(s4)
   1a89c:	3a2a4783          	lbu	a5,930(s4)
   1a8a0:	0722                	slli	a4,a4,0x8
   1a8a2:	8ed9                	or	a3,a3,a4
   1a8a4:	05c2                	slli	a1,a1,0x10
   1a8a6:	07e2                	slli	a5,a5,0x18
   1a8a8:	8ddd                	or	a1,a1,a5
   1a8aa:	0aa11423          	sh	a0,168(sp)
   1a8ae:	0ac10523          	sb	a2,170(sp)
   1a8b2:	00d5eb33          	or	s6,a1,a3
   1a8b6:	6505                	lui	a0,0x1
   1a8b8:	33750513          	addi	a0,a0,823 # 1337 <.Lline_table_start1+0x110c>
   1a8bc:	00a105b3          	add	a1,sp,a0
   1a8c0:	0948                	addi	a0,sp,148
   1a8c2:	4645                	li	a2,17
   1a8c4:	00000097          	auipc	ra,0x0
   1a8c8:	240080e7          	jalr	576(ra) # 1ab04 <memcpy>
   1a8cc:	4481                	li	s1,0
   1a8ce:	ec2fc06f          	j	16f90 <_start+0x302>
   1a8d2:	08c8                	addi	a0,sp,84
   1a8d4:	00000097          	auipc	ra,0x0
   1a8d8:	1a6080e7          	jalr	422(ra) # 1aa7a <_ZN9allow_pin12full_dynamic17unshare_if_shared17hcb7d6c8e9042aa41E>
   1a8dc:	6505                	lui	a0,0x1
   1a8de:	38050513          	addi	a0,a0,896 # 1380 <.Lline_table_start1+0x1155>
   1a8e2:	950a                	add	a0,a0,sp
   1a8e4:	00000097          	auipc	ra,0x0
   1a8e8:	196080e7          	jalr	406(ra) # 1aa7a <_ZN9allow_pin12full_dynamic17unshare_if_shared17hcb7d6c8e9042aa41E>
   1a8ec:	6505                	lui	a0,0x1
   1a8ee:	38050513          	addi	a0,a0,896 # 1380 <.Lline_table_start1+0x1155>
   1a8f2:	950a                	add	a0,a0,sp
   1a8f4:	00000097          	auipc	ra,0x0
   1a8f8:	186080e7          	jalr	390(ra) # 1aa7a <_ZN9allow_pin12full_dynamic17unshare_if_shared17hcb7d6c8e9042aa41E>
   1a8fc:	00194503          	lbu	a0,1(s2)
   1a900:	00094583          	lbu	a1,0(s2)
   1a904:	00294603          	lbu	a2,2(s2)
   1a908:	0522                	slli	a0,a0,0x8
   1a90a:	3fba4683          	lbu	a3,1019(s4)
   1a90e:	3fca4703          	lbu	a4,1020(s4)
   1a912:	8d4d                	or	a0,a0,a1
   1a914:	3fda4583          	lbu	a1,1021(s4)
   1a918:	3fea4783          	lbu	a5,1022(s4)
   1a91c:	0722                	slli	a4,a4,0x8
   1a91e:	8ed9                	or	a3,a3,a4
   1a920:	05c2                	slli	a1,a1,0x10
   1a922:	07e2                	slli	a5,a5,0x18
   1a924:	8ddd                	or	a1,a1,a5
   1a926:	08a11a23          	sh	a0,148(sp)
   1a92a:	08c10b23          	sb	a2,150(sp)
   1a92e:	00d5eb33          	or	s6,a1,a3
   1a932:	6505                	lui	a0,0x1
   1a934:	39350513          	addi	a0,a0,915 # 1393 <.Lline_table_start1+0x1168>
   1a938:	00a105b3          	add	a1,sp,a0
   1a93c:	0028                	addi	a0,sp,8
   1a93e:	02f00613          	li	a2,47
   1a942:	00000097          	auipc	ra,0x0
   1a946:	1c2080e7          	jalr	450(ra) # 1ab04 <memcpy>
   1a94a:	4481                	li	s1,0
   1a94c:	f3efc06f          	j	1708a <_start+0x3fc>
   1a950:	6505                	lui	a0,0x1
   1a952:	38050513          	addi	a0,a0,896 # 1380 <.Lline_table_start1+0x1155>
   1a956:	950a                	add	a0,a0,sp
   1a958:	00000097          	auipc	ra,0x0
   1a95c:	122080e7          	jalr	290(ra) # 1aa7a <_ZN9allow_pin12full_dynamic17unshare_if_shared17hcb7d6c8e9042aa41E>
   1a960:	6505                	lui	a0,0x1
   1a962:	32450513          	addi	a0,a0,804 # 1324 <.Lline_table_start1+0x10f9>
   1a966:	950a                	add	a0,a0,sp
   1a968:	00000097          	auipc	ra,0x0
   1a96c:	112080e7          	jalr	274(ra) # 1aa7a <_ZN9allow_pin12full_dynamic17unshare_if_shared17hcb7d6c8e9042aa41E>
   1a970:	6505                	lui	a0,0x1
   1a972:	32450513          	addi	a0,a0,804 # 1324 <.Lline_table_start1+0x10f9>
   1a976:	950a                	add	a0,a0,sp
   1a978:	00000097          	auipc	ra,0x0
   1a97c:	102080e7          	jalr	258(ra) # 1aa7a <_ZN9allow_pin12full_dynamic17unshare_if_shared17hcb7d6c8e9042aa41E>
   1a980:	0019c503          	lbu	a0,1(s3)
   1a984:	0009c583          	lbu	a1,0(s3)
   1a988:	0029c603          	lbu	a2,2(s3)
   1a98c:	0522                	slli	a0,a0,0x8
   1a98e:	39fa4683          	lbu	a3,927(s4)
   1a992:	3a0a4703          	lbu	a4,928(s4)
   1a996:	8d4d                	or	a0,a0,a1
   1a998:	3a1a4583          	lbu	a1,929(s4)
   1a99c:	3a2a4783          	lbu	a5,930(s4)
   1a9a0:	0722                	slli	a4,a4,0x8
   1a9a2:	8ed9                	or	a3,a3,a4
   1a9a4:	05c2                	slli	a1,a1,0x10
   1a9a6:	07e2                	slli	a5,a5,0x18
   1a9a8:	8ddd                	or	a1,a1,a5
   1a9aa:	08a11a23          	sh	a0,148(sp)
   1a9ae:	08c10b23          	sb	a2,150(sp)
   1a9b2:	00d5eb33          	or	s6,a1,a3
   1a9b6:	6505                	lui	a0,0x1
   1a9b8:	33750513          	addi	a0,a0,823 # 1337 <.Lline_table_start1+0x110c>
   1a9bc:	00a105b3          	add	a1,sp,a0
   1a9c0:	08c8                	addi	a0,sp,84
   1a9c2:	4679                	li	a2,30
   1a9c4:	00000097          	auipc	ra,0x0
   1a9c8:	140080e7          	jalr	320(ra) # 1ab04 <memcpy>
   1a9cc:	4481                	li	s1,0
   1a9ce:	fccfc06f          	j	1719a <_start+0x50c>
   1a9d2:	6505                	lui	a0,0x1
   1a9d4:	38050513          	addi	a0,a0,896 # 1380 <.Lline_table_start1+0x1155>
   1a9d8:	950a                	add	a0,a0,sp
   1a9da:	00000097          	auipc	ra,0x0
   1a9de:	0a0080e7          	jalr	160(ra) # 1aa7a <_ZN9allow_pin12full_dynamic17unshare_if_shared17hcb7d6c8e9042aa41E>
   1a9e2:	6505                	lui	a0,0x1
   1a9e4:	32450513          	addi	a0,a0,804 # 1324 <.Lline_table_start1+0x10f9>
   1a9e8:	950a                	add	a0,a0,sp
   1a9ea:	00000097          	auipc	ra,0x0
   1a9ee:	090080e7          	jalr	144(ra) # 1aa7a <_ZN9allow_pin12full_dynamic17unshare_if_shared17hcb7d6c8e9042aa41E>
   1a9f2:	6505                	lui	a0,0x1
   1a9f4:	32450513          	addi	a0,a0,804 # 1324 <.Lline_table_start1+0x10f9>
   1a9f8:	950a                	add	a0,a0,sp
   1a9fa:	00000097          	auipc	ra,0x0
   1a9fe:	080080e7          	jalr	128(ra) # 1aa7a <_ZN9allow_pin12full_dynamic17unshare_if_shared17hcb7d6c8e9042aa41E>
   1aa02:	4481                	li	s1,0
   1aa04:	0009c883          	lbu	a7,0(s3)
   1aa08:	0019c583          	lbu	a1,1(s3)
   1aa0c:	0029c803          	lbu	a6,2(s3)
   1aa10:	39fa4683          	lbu	a3,927(s4)
   1aa14:	3a0a4703          	lbu	a4,928(s4)
   1aa18:	3a1a4783          	lbu	a5,929(s4)
   1aa1c:	3a2a4403          	lbu	s0,930(s4)
   1aa20:	3a7a4603          	lbu	a2,935(s4)
   1aa24:	3a8a4503          	lbu	a0,936(s4)
   1aa28:	3a9a4283          	lbu	t0,937(s4)
   1aa2c:	05a2                	slli	a1,a1,0x8
   1aa2e:	0722                	slli	a4,a4,0x8
   1aa30:	07c2                	slli	a5,a5,0x10
   1aa32:	0462                	slli	s0,s0,0x18
   1aa34:	0522                	slli	a0,a0,0x8
   1aa36:	0115e5b3          	or	a1,a1,a7
   1aa3a:	00d768b3          	or	a7,a4,a3
   1aa3e:	8fc1                	or	a5,a5,s0
   1aa40:	3a3a4703          	lbu	a4,931(s4)
   1aa44:	3a4a4403          	lbu	s0,932(s4)
   1aa48:	8d51                	or	a0,a0,a2
   1aa4a:	3a5a4603          	lbu	a2,933(s4)
   1aa4e:	3a6a4683          	lbu	a3,934(s4)
   1aa52:	0422                	slli	s0,s0,0x8
   1aa54:	8f41                	or	a4,a4,s0
   1aa56:	0642                	slli	a2,a2,0x10
   1aa58:	06e2                	slli	a3,a3,0x18
   1aa5a:	8e55                	or	a2,a2,a3
   1aa5c:	08b11a23          	sh	a1,148(sp)
   1aa60:	09010b23          	sb	a6,150(sp)
   1aa64:	0117eb33          	or	s6,a5,a7
   1aa68:	8e59                	or	a2,a2,a4
   1aa6a:	cab2                	sw	a2,84(sp)
   1aa6c:	04a11c23          	sh	a0,88(sp)
   1aa70:	04510d23          	sb	t0,90(sp)
   1aa74:	82ffc06f          	j	172a2 <_start+0x614>
   1aa78:	b15d                	j	1a71e <_start+0x3a90>

0001aa7a <_ZN9allow_pin12full_dynamic17unshare_if_shared17hcb7d6c8e9042aa41E>:
   1aa7a:	00854703          	lbu	a4,8(a0)
   1aa7e:	4809                	li	a6,2
   1aa80:	01070b63          	beq	a4,a6,1aa96 <_ZN9allow_pin12full_dynamic17unshare_if_shared17hcb7d6c8e9042aa41E+0x1c>
   1aa84:	87aa                	mv	a5,a0
   1aa86:	4108                	lw	a0,0(a0)
   1aa88:	43cc                	lw	a1,4(a5)
   1aa8a:	4601                	li	a2,0
   1aa8c:	4681                	li	a3,0
   1aa8e:	00000073          	ecall
   1aa92:	01078423          	sb	a6,8(a5)
   1aa96:	8082                	ret

0001aa98 <memset>:
   1aa98:	46c1                	li	a3,16
   1aa9a:	04d66f63          	bltu	a2,a3,1aaf8 <memset+0x60>
   1aa9e:	40a006b3          	neg	a3,a0
   1aaa2:	0036f813          	andi	a6,a3,3
   1aaa6:	01050733          	add	a4,a0,a6
   1aaaa:	00e57963          	bgeu	a0,a4,1aabc <memset+0x24>
   1aaae:	87c2                	mv	a5,a6
   1aab0:	86aa                	mv	a3,a0
   1aab2:	00b68023          	sb	a1,0(a3)
   1aab6:	17fd                	addi	a5,a5,-1
   1aab8:	0685                	addi	a3,a3,1
   1aaba:	ffe5                	bnez	a5,1aab2 <memset+0x1a>
   1aabc:	41060633          	sub	a2,a2,a6
   1aac0:	ffc67693          	andi	a3,a2,-4
   1aac4:	96ba                	add	a3,a3,a4
   1aac6:	00d77e63          	bgeu	a4,a3,1aae2 <memset+0x4a>
   1aaca:	0ff5f813          	zext.b	a6,a1
   1aace:	010107b7          	lui	a5,0x1010
   1aad2:	10178793          	addi	a5,a5,257 # 1010101 <_ZN17compiler_builtins3mem6memcpy17h90d0c987d2ef5a79E+0xff55f5>
   1aad6:	02f807b3          	mul	a5,a6,a5
   1aada:	c31c                	sw	a5,0(a4)
   1aadc:	0711                	addi	a4,a4,4
   1aade:	fed76ee3          	bltu	a4,a3,1aada <memset+0x42>
   1aae2:	8a0d                	andi	a2,a2,3
   1aae4:	00c68733          	add	a4,a3,a2
   1aae8:	00e6f763          	bgeu	a3,a4,1aaf6 <memset+0x5e>
   1aaec:	00b68023          	sb	a1,0(a3)
   1aaf0:	167d                	addi	a2,a2,-1
   1aaf2:	0685                	addi	a3,a3,1
   1aaf4:	fe65                	bnez	a2,1aaec <memset+0x54>
   1aaf6:	8082                	ret
   1aaf8:	86aa                	mv	a3,a0
   1aafa:	00c50733          	add	a4,a0,a2
   1aafe:	fee567e3          	bltu	a0,a4,1aaec <memset+0x54>
   1ab02:	bfd5                	j	1aaf6 <memset+0x5e>

0001ab04 <memcpy>:
   1ab04:	00000317          	auipc	t1,0x0
   1ab08:	00830067          	jr	8(t1) # 1ab0c <_ZN17compiler_builtins3mem6memcpy17h90d0c987d2ef5a79E>

0001ab0c <_ZN17compiler_builtins3mem6memcpy17h90d0c987d2ef5a79E>:
   1ab0c:	1141                	addi	sp,sp,-16
   1ab0e:	c622                	sw	s0,12(sp)
   1ab10:	46c1                	li	a3,16
   1ab12:	06d66363          	bltu	a2,a3,1ab78 <_ZN17compiler_builtins3mem6memcpy17h90d0c987d2ef5a79E+0x6c>
   1ab16:	40a006b3          	neg	a3,a0
   1ab1a:	0036f813          	andi	a6,a3,3
   1ab1e:	01050fb3          	add	t6,a0,a6
   1ab22:	01f57d63          	bgeu	a0,t6,1ab3c <_ZN17compiler_builtins3mem6memcpy17h90d0c987d2ef5a79E+0x30>
   1ab26:	8742                	mv	a4,a6
   1ab28:	86aa                	mv	a3,a0
   1ab2a:	87ae                	mv	a5,a1
   1ab2c:	0007c883          	lbu	a7,0(a5)
   1ab30:	177d                	addi	a4,a4,-1
   1ab32:	01168023          	sb	a7,0(a3)
   1ab36:	0685                	addi	a3,a3,1
   1ab38:	0785                	addi	a5,a5,1
   1ab3a:	fb6d                	bnez	a4,1ab2c <_ZN17compiler_builtins3mem6memcpy17h90d0c987d2ef5a79E+0x20>
   1ab3c:	01058433          	add	s0,a1,a6
   1ab40:	410608b3          	sub	a7,a2,a6
   1ab44:	ffc8f713          	andi	a4,a7,-4
   1ab48:	00347613          	andi	a2,s0,3
   1ab4c:	00ef86b3          	add	a3,t6,a4
   1ab50:	e621                	bnez	a2,1ab98 <_ZN17compiler_builtins3mem6memcpy17h90d0c987d2ef5a79E+0x8c>
   1ab52:	00dffa63          	bgeu	t6,a3,1ab66 <_ZN17compiler_builtins3mem6memcpy17h90d0c987d2ef5a79E+0x5a>
   1ab56:	8622                	mv	a2,s0
   1ab58:	421c                	lw	a5,0(a2)
   1ab5a:	00ffa023          	sw	a5,0(t6)
   1ab5e:	0f91                	addi	t6,t6,4
   1ab60:	0611                	addi	a2,a2,4
   1ab62:	fedfebe3          	bltu	t6,a3,1ab58 <_ZN17compiler_builtins3mem6memcpy17h90d0c987d2ef5a79E+0x4c>
   1ab66:	00e405b3          	add	a1,s0,a4
   1ab6a:	0038f613          	andi	a2,a7,3
   1ab6e:	00c68733          	add	a4,a3,a2
   1ab72:	00e6e863          	bltu	a3,a4,1ab82 <_ZN17compiler_builtins3mem6memcpy17h90d0c987d2ef5a79E+0x76>
   1ab76:	a831                	j	1ab92 <_ZN17compiler_builtins3mem6memcpy17h90d0c987d2ef5a79E+0x86>
   1ab78:	86aa                	mv	a3,a0
   1ab7a:	00c50733          	add	a4,a0,a2
   1ab7e:	00e57a63          	bgeu	a0,a4,1ab92 <_ZN17compiler_builtins3mem6memcpy17h90d0c987d2ef5a79E+0x86>
   1ab82:	0005c703          	lbu	a4,0(a1)
   1ab86:	167d                	addi	a2,a2,-1
   1ab88:	00e68023          	sb	a4,0(a3)
   1ab8c:	0685                	addi	a3,a3,1
   1ab8e:	0585                	addi	a1,a1,1
   1ab90:	fa6d                	bnez	a2,1ab82 <_ZN17compiler_builtins3mem6memcpy17h90d0c987d2ef5a79E+0x76>
   1ab92:	4432                	lw	s0,12(sp)
   1ab94:	0141                	addi	sp,sp,16
   1ab96:	8082                	ret
   1ab98:	4801                	li	a6,0
   1ab9a:	4791                	li	a5,4
   1ab9c:	c402                	sw	zero,8(sp)
   1ab9e:	40c783b3          	sub	t2,a5,a2
   1aba2:	00810293          	addi	t0,sp,8
   1aba6:	0013f313          	andi	t1,t2,1
   1abaa:	00c2e2b3          	or	t0,t0,a2
   1abae:	04031763          	bnez	t1,1abfc <_ZN17compiler_builtins3mem6memcpy17h90d0c987d2ef5a79E+0xf0>
   1abb2:	0023f793          	andi	a5,t2,2
   1abb6:	ebb9                	bnez	a5,1ac0c <_ZN17compiler_builtins3mem6memcpy17h90d0c987d2ef5a79E+0x100>
   1abb8:	4ea2                	lw	t4,8(sp)
   1abba:	00361813          	slli	a6,a2,0x3
   1abbe:	004f8793          	addi	a5,t6,4
   1abc2:	40c40f33          	sub	t5,s0,a2
   1abc6:	06d7f363          	bgeu	a5,a3,1ac2c <_ZN17compiler_builtins3mem6memcpy17h90d0c987d2ef5a79E+0x120>
   1abca:	410007b3          	neg	a5,a6
   1abce:	0187fe13          	andi	t3,a5,24
   1abd2:	004f2283          	lw	t0,4(t5)
   1abd6:	004f0393          	addi	t2,t5,4
   1abda:	010ed5b3          	srl	a1,t4,a6
   1abde:	004f8313          	addi	t1,t6,4
   1abe2:	01c297b3          	sll	a5,t0,t3
   1abe6:	8ddd                	or	a1,a1,a5
   1abe8:	008f8793          	addi	a5,t6,8
   1abec:	00bfa023          	sw	a1,0(t6)
   1abf0:	8f9a                	mv	t6,t1
   1abf2:	8f1e                	mv	t5,t2
   1abf4:	8e96                	mv	t4,t0
   1abf6:	fcd7eee3          	bltu	a5,a3,1abd2 <_ZN17compiler_builtins3mem6memcpy17h90d0c987d2ef5a79E+0xc6>
   1abfa:	a825                	j	1ac32 <_ZN17compiler_builtins3mem6memcpy17h90d0c987d2ef5a79E+0x126>
   1abfc:	00044783          	lbu	a5,0(s0)
   1ac00:	00f28023          	sb	a5,0(t0)
   1ac04:	4805                	li	a6,1
   1ac06:	0023f793          	andi	a5,t2,2
   1ac0a:	d7dd                	beqz	a5,1abb8 <_ZN17compiler_builtins3mem6memcpy17h90d0c987d2ef5a79E+0xac>
   1ac0c:	010407b3          	add	a5,s0,a6
   1ac10:	00079783          	lh	a5,0(a5)
   1ac14:	9816                	add	a6,a6,t0
   1ac16:	00f81023          	sh	a5,0(a6)
   1ac1a:	4ea2                	lw	t4,8(sp)
   1ac1c:	00361813          	slli	a6,a2,0x3
   1ac20:	004f8793          	addi	a5,t6,4
   1ac24:	40c40f33          	sub	t5,s0,a2
   1ac28:	fad7e1e3          	bltu	a5,a3,1abca <_ZN17compiler_builtins3mem6memcpy17h90d0c987d2ef5a79E+0xbe>
   1ac2c:	82f6                	mv	t0,t4
   1ac2e:	83fa                	mv	t2,t5
   1ac30:	837e                	mv	t1,t6
   1ac32:	00010223          	sb	zero,4(sp)
   1ac36:	4785                	li	a5,1
   1ac38:	00010123          	sb	zero,2(sp)
   1ac3c:	00f61763          	bne	a2,a5,1ac4a <_ZN17compiler_builtins3mem6memcpy17h90d0c987d2ef5a79E+0x13e>
   1ac40:	4781                	li	a5,0
   1ac42:	4e01                	li	t3,0
   1ac44:	4e81                	li	t4,0
   1ac46:	0050                	addi	a2,sp,4
   1ac48:	a819                	j	1ac5e <_ZN17compiler_builtins3mem6memcpy17h90d0c987d2ef5a79E+0x152>
   1ac4a:	0043c783          	lbu	a5,4(t2)
   1ac4e:	0053ce03          	lbu	t3,5(t2)
   1ac52:	4e89                	li	t4,2
   1ac54:	00f10223          	sb	a5,4(sp)
   1ac58:	0e22                	slli	t3,t3,0x8
   1ac5a:	00210613          	addi	a2,sp,2
   1ac5e:	00147593          	andi	a1,s0,1
   1ac62:	e199                	bnez	a1,1ac68 <_ZN17compiler_builtins3mem6memcpy17h90d0c987d2ef5a79E+0x15c>
   1ac64:	4601                	li	a2,0
   1ac66:	a821                	j	1ac7e <_ZN17compiler_builtins3mem6memcpy17h90d0c987d2ef5a79E+0x172>
   1ac68:	0391                	addi	t2,t2,4
   1ac6a:	93f6                	add	t2,t2,t4
   1ac6c:	0003c583          	lbu	a1,0(t2)
   1ac70:	00b60023          	sb	a1,0(a2)
   1ac74:	00214603          	lbu	a2,2(sp)
   1ac78:	00414783          	lbu	a5,4(sp)
   1ac7c:	0642                	slli	a2,a2,0x10
   1ac7e:	8e5d                	or	a2,a2,a5
   1ac80:	0102d5b3          	srl	a1,t0,a6
   1ac84:	410007b3          	neg	a5,a6
   1ac88:	00ce6633          	or	a2,t3,a2
   1ac8c:	8be1                	andi	a5,a5,24
   1ac8e:	00f61633          	sll	a2,a2,a5
   1ac92:	8dd1                	or	a1,a1,a2
   1ac94:	00b32023          	sw	a1,0(t1)
   1ac98:	00e405b3          	add	a1,s0,a4
   1ac9c:	0038f613          	andi	a2,a7,3
   1aca0:	00c68733          	add	a4,a3,a2
   1aca4:	ece6efe3          	bltu	a3,a4,1ab82 <_ZN17compiler_builtins3mem6memcpy17h90d0c987d2ef5a79E+0x76>
   1aca8:	b5ed                	j	1ab92 <_ZN17compiler_builtins3mem6memcpy17h90d0c987d2ef5a79E+0x86>
