
target/riscv32imc-unknown-none-elf/opt-1/examples/complex_dynamic_type:     file format elf32-littleriscv

Sections:
Idx Name          Size      VMA       LMA       File off  Algn
  0 .rodata       00000b60  000100d4  000100d4  000000d4  2**0
                  CONTENTS, ALLOC, LOAD, READONLY, DATA
  1 .eh_frame     00000060  00010c34  00010c34  00000c34  2**2
                  CONTENTS, ALLOC, LOAD, READONLY, DATA
  2 .text         0000e12e  00011c94  00011c94  00000c94  2**1
                  CONTENTS, ALLOC, LOAD, READONLY, CODE
  3 .comment      0000008b  00000000  00000000  0000edc2  2**0
                  CONTENTS, READONLY
  4 .riscv.attributes 0000002f  00000000  00000000  0000ee4d  2**0
                  CONTENTS, READONLY

Disassembly of section .text:

00011c94 <_ZN20complex_dynamic_type3app17h0386ea202605651fE>:
   11c94:	715d                	addi	sp,sp,-80
   11c96:	c686                	sw	ra,76(sp)
   11c98:	c4a2                	sw	s0,72(sp)
   11c9a:	c2a6                	sw	s1,68(sp)
   11c9c:	c0ca                	sw	s2,64(sp)
   11c9e:	de4e                	sw	s3,60(sp)
   11ca0:	892a                	mv	s2,a0
   11ca2:	4489                	li	s1,2
   11ca4:	00910123          	sb	s1,2(sp)
   11ca8:	00310413          	addi	s0,sp,3
   11cac:	02b00613          	li	a2,43
   11cb0:	8522                	mv	a0,s0
   11cb2:	0000e097          	auipc	ra,0xe
   11cb6:	f6a080e7          	jalr	-150(ra) # 1fc1c <memcpy>
   11cba:	02f10993          	addi	s3,sp,47
   11cbe:	4635                	li	a2,13
   11cc0:	854e                	mv	a0,s3
   11cc2:	4581                	li	a1,0
   11cc4:	0000e097          	auipc	ra,0xe
   11cc8:	eec080e7          	jalr	-276(ra) # 1fbb0 <memset>
   11ccc:	8622                	mv	a2,s0
   11cce:	02910723          	sb	s1,46(sp)
   11cd2:	6505                	lui	a0,0x1
   11cd4:	4791                	li	a5,4
   11cd6:	4599                	li	a1,6
   11cd8:	46550513          	addi	a0,a0,1125 # 1465 <.Lline_table_start1+0x123a>
   11cdc:	02b00693          	li	a3,43
   11ce0:	4711                	li	a4,4
   11ce2:	00000073          	ecall
   11ce6:	00950463          	beq	a0,s1,11cee <_ZN20complex_dynamic_type3app17h0386ea202605651fE+0x5a>
   11cea:	00f10123          	sb	a5,2(sp)
   11cee:	4609                	li	a2,2
   11cf0:	00c51463          	bne	a0,a2,11cf8 <_ZN20complex_dynamic_type3app17h0386ea202605651fE+0x64>
   11cf4:	4785                	li	a5,1
   11cf6:	a851                	j	11d8a <_ZN20complex_dynamic_type3app17h0386ea202605651fE+0xf6>
   11cf8:	02e14503          	lbu	a0,46(sp)
   11cfc:	4785                	li	a5,1
   11cfe:	02c51263          	bne	a0,a2,11d22 <_ZN20complex_dynamic_type3app17h0386ea202605651fE+0x8e>
   11d02:	4581                	li	a1,0
   11d04:	864e                	mv	a2,s3
   11d06:	6505                	lui	a0,0x1
   11d08:	46b5                	li	a3,13
   11d0a:	470d                	li	a4,3
   11d0c:	46550513          	addi	a0,a0,1125 # 1465 <.Lline_table_start1+0x123a>
   11d10:	4489                	li	s1,2
   11d12:	00000073          	ecall
   11d16:	460d                	li	a2,3
   11d18:	00951963          	bne	a0,s1,11d2a <_ZN20complex_dynamic_type3app17h0386ea202605651fE+0x96>
   11d1c:	4505                	li	a0,1
   11d1e:	c911                	beqz	a0,11d32 <_ZN20complex_dynamic_type3app17h0386ea202605651fE+0x9e>
   11d20:	a0ad                	j	11d8a <_ZN20complex_dynamic_type3app17h0386ea202605651fE+0xf6>
   11d22:	458d                	li	a1,3
   11d24:	4505                	li	a0,1
   11d26:	c511                	beqz	a0,11d32 <_ZN20complex_dynamic_type3app17h0386ea202605651fE+0x9e>
   11d28:	a08d                	j	11d8a <_ZN20complex_dynamic_type3app17h0386ea202605651fE+0xf6>
   11d2a:	4501                	li	a0,0
   11d2c:	02c10723          	sb	a2,46(sp)
   11d30:	ed29                	bnez	a0,11d8a <_ZN20complex_dynamic_type3app17h0386ea202605651fE+0xf6>
   11d32:	4601                	li	a2,0
   11d34:	4681                	li	a3,0
   11d36:	6505                	lui	a0,0x1
   11d38:	4599                	li	a1,6
   11d3a:	4709                	li	a4,2
   11d3c:	46550513          	addi	a0,a0,1125 # 1465 <.Lline_table_start1+0x123a>
   11d40:	07f00493          	li	s1,127
   11d44:	00000073          	ecall
   11d48:	4689                	li	a3,2
   11d4a:	04a4f063          	bgeu	s1,a0,11d8a <_ZN20complex_dynamic_type3app17h0386ea202605651fE+0xf6>
   11d4e:	00214603          	lbu	a2,2(sp)
   11d52:	00d60a63          	beq	a2,a3,11d66 <_ZN20complex_dynamic_type3app17h0386ea202605651fE+0xd2>
   11d56:	6505                	lui	a0,0x1
   11d58:	46550513          	addi	a0,a0,1125 # 1465 <.Lline_table_start1+0x123a>
   11d5c:	4599                	li	a1,6
   11d5e:	0000e097          	auipc	ra,0xe
   11d62:	e46080e7          	jalr	-442(ra) # 1fba4 <_ZN9allow_pin12dynamic_type7unshare17h0269127f30dbe29bE>
   11d66:	02e14603          	lbu	a2,46(sp)
   11d6a:	4409                	li	s0,2
   11d6c:	00810123          	sb	s0,2(sp)
   11d70:	00860a63          	beq	a2,s0,11d84 <_ZN20complex_dynamic_type3app17h0386ea202605651fE+0xf0>
   11d74:	6505                	lui	a0,0x1
   11d76:	46550513          	addi	a0,a0,1125 # 1465 <.Lline_table_start1+0x123a>
   11d7a:	4581                	li	a1,0
   11d7c:	0000e097          	auipc	ra,0xe
   11d80:	e28080e7          	jalr	-472(ra) # 1fba4 <_ZN9allow_pin12dynamic_type7unshare17h0269127f30dbe29bE>
   11d84:	4781                	li	a5,0
   11d86:	02810723          	sb	s0,46(sp)
   11d8a:	cb85                	beqz	a5,11dba <_ZN20complex_dynamic_type3app17h0386ea202605651fE+0x126>
   11d8c:	02e14603          	lbu	a2,46(sp)
   11d90:	4505                	li	a0,1
   11d92:	4409                	li	s0,2
   11d94:	00a90023          	sb	a0,0(s2)
   11d98:	00b92223          	sw	a1,4(s2)
   11d9c:	00860a63          	beq	a2,s0,11db0 <_ZN20complex_dynamic_type3app17h0386ea202605651fE+0x11c>
   11da0:	6505                	lui	a0,0x1
   11da2:	46550513          	addi	a0,a0,1125 # 1465 <.Lline_table_start1+0x123a>
   11da6:	4581                	li	a1,0
   11da8:	0000e097          	auipc	ra,0xe
   11dac:	dfc080e7          	jalr	-516(ra) # 1fba4 <_ZN9allow_pin12dynamic_type7unshare17h0269127f30dbe29bE>
   11db0:	00214603          	lbu	a2,2(sp)
   11db4:	04861663          	bne	a2,s0,11e00 <_ZN20complex_dynamic_type3app17h0386ea202605651fE+0x16c>
   11db8:	a8a1                	j	11e10 <_ZN20complex_dynamic_type3app17h0386ea202605651fE+0x17c>
   11dba:	02e14403          	lbu	s0,46(sp)
   11dbe:	4489                	li	s1,2
   11dc0:	00940663          	beq	s0,s1,11dcc <_ZN20complex_dynamic_type3app17h0386ea202605651fE+0x138>
   11dc4:	000119b7          	lui	s3,0x11
   11dc8:	c2798993          	addi	s3,s3,-985 # 10c27 <.Lanon.49c9f8067fe4468184af16d7576940c9.55>
   11dcc:	00190513          	addi	a0,s2,1
   11dd0:	4635                	li	a2,13
   11dd2:	85ce                	mv	a1,s3
   11dd4:	0000e097          	auipc	ra,0xe
   11dd8:	e48080e7          	jalr	-440(ra) # 1fc1c <memcpy>
   11ddc:	00090023          	sb	zero,0(s2)
   11de0:	00940b63          	beq	s0,s1,11df6 <_ZN20complex_dynamic_type3app17h0386ea202605651fE+0x162>
   11de4:	6505                	lui	a0,0x1
   11de6:	46550513          	addi	a0,a0,1125 # 1465 <.Lline_table_start1+0x123a>
   11dea:	4581                	li	a1,0
   11dec:	8622                	mv	a2,s0
   11dee:	0000e097          	auipc	ra,0xe
   11df2:	db6080e7          	jalr	-586(ra) # 1fba4 <_ZN9allow_pin12dynamic_type7unshare17h0269127f30dbe29bE>
   11df6:	00214603          	lbu	a2,2(sp)
   11dfa:	4509                	li	a0,2
   11dfc:	00a60a63          	beq	a2,a0,11e10 <_ZN20complex_dynamic_type3app17h0386ea202605651fE+0x17c>
   11e00:	6505                	lui	a0,0x1
   11e02:	46550513          	addi	a0,a0,1125 # 1465 <.Lline_table_start1+0x123a>
   11e06:	4599                	li	a1,6
   11e08:	0000e097          	auipc	ra,0xe
   11e0c:	d9c080e7          	jalr	-612(ra) # 1fba4 <_ZN9allow_pin12dynamic_type7unshare17h0269127f30dbe29bE>
   11e10:	40b6                	lw	ra,76(sp)
   11e12:	4426                	lw	s0,72(sp)
   11e14:	4496                	lw	s1,68(sp)
   11e16:	4906                	lw	s2,64(sp)
   11e18:	59f2                	lw	s3,60(sp)
   11e1a:	6161                	addi	sp,sp,80
   11e1c:	8082                	ret

00011e1e <_ZN20complex_dynamic_type3app17h062e3cf5a1c33a99E>:
   11e1e:	7175                	addi	sp,sp,-144
   11e20:	c706                	sw	ra,140(sp)
   11e22:	c522                	sw	s0,136(sp)
   11e24:	c326                	sw	s1,132(sp)
   11e26:	c14a                	sw	s2,128(sp)
   11e28:	dece                	sw	s3,124(sp)
   11e2a:	892a                	mv	s2,a0
   11e2c:	4489                	li	s1,2
   11e2e:	00910223          	sb	s1,4(sp)
   11e32:	00510413          	addi	s0,sp,5
   11e36:	02700613          	li	a2,39
   11e3a:	8522                	mv	a0,s0
   11e3c:	0000e097          	auipc	ra,0xe
   11e40:	de0080e7          	jalr	-544(ra) # 1fc1c <memcpy>
   11e44:	02d10993          	addi	s3,sp,45
   11e48:	04f00613          	li	a2,79
   11e4c:	854e                	mv	a0,s3
   11e4e:	4581                	li	a1,0
   11e50:	0000e097          	auipc	ra,0xe
   11e54:	d60080e7          	jalr	-672(ra) # 1fbb0 <memset>
   11e58:	8622                	mv	a2,s0
   11e5a:	02910623          	sb	s1,44(sp)
   11e5e:	6505                	lui	a0,0x1
   11e60:	4791                	li	a5,4
   11e62:	45a5                	li	a1,9
   11e64:	b4c50513          	addi	a0,a0,-1204 # b4c <.Lline_table_start1+0x921>
   11e68:	02700693          	li	a3,39
   11e6c:	4711                	li	a4,4
   11e6e:	00000073          	ecall
   11e72:	00950463          	beq	a0,s1,11e7a <_ZN20complex_dynamic_type3app17h062e3cf5a1c33a99E+0x5c>
   11e76:	00f10223          	sb	a5,4(sp)
   11e7a:	4609                	li	a2,2
   11e7c:	00c51463          	bne	a0,a2,11e84 <_ZN20complex_dynamic_type3app17h062e3cf5a1c33a99E+0x66>
   11e80:	4785                	li	a5,1
   11e82:	a859                	j	11f18 <_ZN20complex_dynamic_type3app17h062e3cf5a1c33a99E+0xfa>
   11e84:	02c14503          	lbu	a0,44(sp)
   11e88:	4785                	li	a5,1
   11e8a:	02c51363          	bne	a0,a2,11eb0 <_ZN20complex_dynamic_type3app17h062e3cf5a1c33a99E+0x92>
   11e8e:	4581                	li	a1,0
   11e90:	864e                	mv	a2,s3
   11e92:	6505                	lui	a0,0x1
   11e94:	04f00693          	li	a3,79
   11e98:	470d                	li	a4,3
   11e9a:	b4c50513          	addi	a0,a0,-1204 # b4c <.Lline_table_start1+0x921>
   11e9e:	4489                	li	s1,2
   11ea0:	00000073          	ecall
   11ea4:	460d                	li	a2,3
   11ea6:	00951963          	bne	a0,s1,11eb8 <_ZN20complex_dynamic_type3app17h062e3cf5a1c33a99E+0x9a>
   11eaa:	4505                	li	a0,1
   11eac:	c911                	beqz	a0,11ec0 <_ZN20complex_dynamic_type3app17h062e3cf5a1c33a99E+0xa2>
   11eae:	a0ad                	j	11f18 <_ZN20complex_dynamic_type3app17h062e3cf5a1c33a99E+0xfa>
   11eb0:	458d                	li	a1,3
   11eb2:	4505                	li	a0,1
   11eb4:	c511                	beqz	a0,11ec0 <_ZN20complex_dynamic_type3app17h062e3cf5a1c33a99E+0xa2>
   11eb6:	a08d                	j	11f18 <_ZN20complex_dynamic_type3app17h062e3cf5a1c33a99E+0xfa>
   11eb8:	4501                	li	a0,0
   11eba:	02c10623          	sb	a2,44(sp)
   11ebe:	ed29                	bnez	a0,11f18 <_ZN20complex_dynamic_type3app17h062e3cf5a1c33a99E+0xfa>
   11ec0:	4601                	li	a2,0
   11ec2:	4681                	li	a3,0
   11ec4:	6505                	lui	a0,0x1
   11ec6:	45a5                	li	a1,9
   11ec8:	4709                	li	a4,2
   11eca:	b4c50513          	addi	a0,a0,-1204 # b4c <.Lline_table_start1+0x921>
   11ece:	07f00493          	li	s1,127
   11ed2:	00000073          	ecall
   11ed6:	4689                	li	a3,2
   11ed8:	04a4f063          	bgeu	s1,a0,11f18 <_ZN20complex_dynamic_type3app17h062e3cf5a1c33a99E+0xfa>
   11edc:	00414603          	lbu	a2,4(sp)
   11ee0:	00d60a63          	beq	a2,a3,11ef4 <_ZN20complex_dynamic_type3app17h062e3cf5a1c33a99E+0xd6>
   11ee4:	6505                	lui	a0,0x1
   11ee6:	b4c50513          	addi	a0,a0,-1204 # b4c <.Lline_table_start1+0x921>
   11eea:	45a5                	li	a1,9
   11eec:	0000e097          	auipc	ra,0xe
   11ef0:	cb8080e7          	jalr	-840(ra) # 1fba4 <_ZN9allow_pin12dynamic_type7unshare17h0269127f30dbe29bE>
   11ef4:	02c14603          	lbu	a2,44(sp)
   11ef8:	4409                	li	s0,2
   11efa:	00810223          	sb	s0,4(sp)
   11efe:	00860a63          	beq	a2,s0,11f12 <_ZN20complex_dynamic_type3app17h062e3cf5a1c33a99E+0xf4>
   11f02:	6505                	lui	a0,0x1
   11f04:	b4c50513          	addi	a0,a0,-1204 # b4c <.Lline_table_start1+0x921>
   11f08:	4581                	li	a1,0
   11f0a:	0000e097          	auipc	ra,0xe
   11f0e:	c9a080e7          	jalr	-870(ra) # 1fba4 <_ZN9allow_pin12dynamic_type7unshare17h0269127f30dbe29bE>
   11f12:	4781                	li	a5,0
   11f14:	02810623          	sb	s0,44(sp)
   11f18:	cb85                	beqz	a5,11f48 <_ZN20complex_dynamic_type3app17h062e3cf5a1c33a99E+0x12a>
   11f1a:	02c14603          	lbu	a2,44(sp)
   11f1e:	4505                	li	a0,1
   11f20:	4409                	li	s0,2
   11f22:	00a90023          	sb	a0,0(s2)
   11f26:	00b92223          	sw	a1,4(s2)
   11f2a:	00860a63          	beq	a2,s0,11f3e <_ZN20complex_dynamic_type3app17h062e3cf5a1c33a99E+0x120>
   11f2e:	6505                	lui	a0,0x1
   11f30:	b4c50513          	addi	a0,a0,-1204 # b4c <.Lline_table_start1+0x921>
   11f34:	4581                	li	a1,0
   11f36:	0000e097          	auipc	ra,0xe
   11f3a:	c6e080e7          	jalr	-914(ra) # 1fba4 <_ZN9allow_pin12dynamic_type7unshare17h0269127f30dbe29bE>
   11f3e:	00414603          	lbu	a2,4(sp)
   11f42:	04861763          	bne	a2,s0,11f90 <_ZN20complex_dynamic_type3app17h062e3cf5a1c33a99E+0x172>
   11f46:	a8a9                	j	11fa0 <_ZN20complex_dynamic_type3app17h062e3cf5a1c33a99E+0x182>
   11f48:	02c14403          	lbu	s0,44(sp)
   11f4c:	4489                	li	s1,2
   11f4e:	00940663          	beq	s0,s1,11f5a <_ZN20complex_dynamic_type3app17h062e3cf5a1c33a99E+0x13c>
   11f52:	000109b7          	lui	s3,0x10
   11f56:	1f798993          	addi	s3,s3,503 # 101f7 <.Lanon.49c9f8067fe4468184af16d7576940c9.4>
   11f5a:	00190513          	addi	a0,s2,1
   11f5e:	04f00613          	li	a2,79
   11f62:	85ce                	mv	a1,s3
   11f64:	0000e097          	auipc	ra,0xe
   11f68:	cb8080e7          	jalr	-840(ra) # 1fc1c <memcpy>
   11f6c:	00090023          	sb	zero,0(s2)
   11f70:	00940b63          	beq	s0,s1,11f86 <_ZN20complex_dynamic_type3app17h062e3cf5a1c33a99E+0x168>
   11f74:	6505                	lui	a0,0x1
   11f76:	b4c50513          	addi	a0,a0,-1204 # b4c <.Lline_table_start1+0x921>
   11f7a:	4581                	li	a1,0
   11f7c:	8622                	mv	a2,s0
   11f7e:	0000e097          	auipc	ra,0xe
   11f82:	c26080e7          	jalr	-986(ra) # 1fba4 <_ZN9allow_pin12dynamic_type7unshare17h0269127f30dbe29bE>
   11f86:	00414603          	lbu	a2,4(sp)
   11f8a:	4509                	li	a0,2
   11f8c:	00a60a63          	beq	a2,a0,11fa0 <_ZN20complex_dynamic_type3app17h062e3cf5a1c33a99E+0x182>
   11f90:	6505                	lui	a0,0x1
   11f92:	b4c50513          	addi	a0,a0,-1204 # b4c <.Lline_table_start1+0x921>
   11f96:	45a5                	li	a1,9
   11f98:	0000e097          	auipc	ra,0xe
   11f9c:	c0c080e7          	jalr	-1012(ra) # 1fba4 <_ZN9allow_pin12dynamic_type7unshare17h0269127f30dbe29bE>
   11fa0:	40ba                	lw	ra,140(sp)
   11fa2:	442a                	lw	s0,136(sp)
   11fa4:	449a                	lw	s1,132(sp)
   11fa6:	490a                	lw	s2,128(sp)
   11fa8:	59f6                	lw	s3,124(sp)
   11faa:	6149                	addi	sp,sp,144
   11fac:	8082                	ret

00011fae <_ZN20complex_dynamic_type3app17h0f2eea568d01b0ccE>:
   11fae:	711d                	addi	sp,sp,-96
   11fb0:	ce86                	sw	ra,92(sp)
   11fb2:	cca2                	sw	s0,88(sp)
   11fb4:	caa6                	sw	s1,84(sp)
   11fb6:	c8ca                	sw	s2,80(sp)
   11fb8:	c6ce                	sw	s3,76(sp)
   11fba:	892a                	mv	s2,a0
   11fbc:	4489                	li	s1,2
   11fbe:	00910223          	sb	s1,4(sp)
   11fc2:	00510413          	addi	s0,sp,5
   11fc6:	4641                	li	a2,16
   11fc8:	8522                	mv	a0,s0
   11fca:	0000e097          	auipc	ra,0xe
   11fce:	c52080e7          	jalr	-942(ra) # 1fc1c <memcpy>
   11fd2:	01610993          	addi	s3,sp,22
   11fd6:	03600613          	li	a2,54
   11fda:	854e                	mv	a0,s3
   11fdc:	4581                	li	a1,0
   11fde:	0000e097          	auipc	ra,0xe
   11fe2:	bd2080e7          	jalr	-1070(ra) # 1fbb0 <memset>
   11fe6:	8622                	mv	a2,s0
   11fe8:	00910aa3          	sb	s1,21(sp)
   11fec:	6509                	lui	a0,0x2
   11fee:	4791                	li	a5,4
   11ff0:	4585                	li	a1,1
   11ff2:	98950513          	addi	a0,a0,-1655 # 1989 <.Lline_table_start1+0x175e>
   11ff6:	46c1                	li	a3,16
   11ff8:	4711                	li	a4,4
   11ffa:	00000073          	ecall
   11ffe:	00950463          	beq	a0,s1,12006 <_ZN20complex_dynamic_type3app17h0f2eea568d01b0ccE+0x58>
   12002:	00f10223          	sb	a5,4(sp)
   12006:	4609                	li	a2,2
   12008:	00c51463          	bne	a0,a2,12010 <_ZN20complex_dynamic_type3app17h0f2eea568d01b0ccE+0x62>
   1200c:	4785                	li	a5,1
   1200e:	a861                	j	120a6 <_ZN20complex_dynamic_type3app17h0f2eea568d01b0ccE+0xf8>
   12010:	01514503          	lbu	a0,21(sp)
   12014:	4785                	li	a5,1
   12016:	02c51363          	bne	a0,a2,1203c <_ZN20complex_dynamic_type3app17h0f2eea568d01b0ccE+0x8e>
   1201a:	864e                	mv	a2,s3
   1201c:	6509                	lui	a0,0x2
   1201e:	459d                	li	a1,7
   12020:	03600693          	li	a3,54
   12024:	470d                	li	a4,3
   12026:	98950513          	addi	a0,a0,-1655 # 1989 <.Lline_table_start1+0x175e>
   1202a:	4489                	li	s1,2
   1202c:	00000073          	ecall
   12030:	460d                	li	a2,3
   12032:	00951963          	bne	a0,s1,12044 <_ZN20complex_dynamic_type3app17h0f2eea568d01b0ccE+0x96>
   12036:	4505                	li	a0,1
   12038:	c911                	beqz	a0,1204c <_ZN20complex_dynamic_type3app17h0f2eea568d01b0ccE+0x9e>
   1203a:	a0b5                	j	120a6 <_ZN20complex_dynamic_type3app17h0f2eea568d01b0ccE+0xf8>
   1203c:	458d                	li	a1,3
   1203e:	4505                	li	a0,1
   12040:	c511                	beqz	a0,1204c <_ZN20complex_dynamic_type3app17h0f2eea568d01b0ccE+0x9e>
   12042:	a095                	j	120a6 <_ZN20complex_dynamic_type3app17h0f2eea568d01b0ccE+0xf8>
   12044:	4501                	li	a0,0
   12046:	00c10aa3          	sb	a2,21(sp)
   1204a:	ed31                	bnez	a0,120a6 <_ZN20complex_dynamic_type3app17h0f2eea568d01b0ccE+0xf8>
   1204c:	4681                	li	a3,0
   1204e:	6509                	lui	a0,0x2
   12050:	4785                	li	a5,1
   12052:	4585                	li	a1,1
   12054:	461d                	li	a2,7
   12056:	4709                	li	a4,2
   12058:	98950513          	addi	a0,a0,-1655 # 1989 <.Lline_table_start1+0x175e>
   1205c:	07f00493          	li	s1,127
   12060:	00000073          	ecall
   12064:	4689                	li	a3,2
   12066:	04a4f063          	bgeu	s1,a0,120a6 <_ZN20complex_dynamic_type3app17h0f2eea568d01b0ccE+0xf8>
   1206a:	00414603          	lbu	a2,4(sp)
   1206e:	00d60a63          	beq	a2,a3,12082 <_ZN20complex_dynamic_type3app17h0f2eea568d01b0ccE+0xd4>
   12072:	6509                	lui	a0,0x2
   12074:	98950513          	addi	a0,a0,-1655 # 1989 <.Lline_table_start1+0x175e>
   12078:	4585                	li	a1,1
   1207a:	0000e097          	auipc	ra,0xe
   1207e:	b2a080e7          	jalr	-1238(ra) # 1fba4 <_ZN9allow_pin12dynamic_type7unshare17h0269127f30dbe29bE>
   12082:	01514603          	lbu	a2,21(sp)
   12086:	4409                	li	s0,2
   12088:	00810223          	sb	s0,4(sp)
   1208c:	00860a63          	beq	a2,s0,120a0 <_ZN20complex_dynamic_type3app17h0f2eea568d01b0ccE+0xf2>
   12090:	6509                	lui	a0,0x2
   12092:	98950513          	addi	a0,a0,-1655 # 1989 <.Lline_table_start1+0x175e>
   12096:	459d                	li	a1,7
   12098:	0000e097          	auipc	ra,0xe
   1209c:	b0c080e7          	jalr	-1268(ra) # 1fba4 <_ZN9allow_pin12dynamic_type7unshare17h0269127f30dbe29bE>
   120a0:	4781                	li	a5,0
   120a2:	00810aa3          	sb	s0,21(sp)
   120a6:	cb85                	beqz	a5,120d6 <_ZN20complex_dynamic_type3app17h0f2eea568d01b0ccE+0x128>
   120a8:	01514603          	lbu	a2,21(sp)
   120ac:	4505                	li	a0,1
   120ae:	4409                	li	s0,2
   120b0:	00a90023          	sb	a0,0(s2)
   120b4:	00b92223          	sw	a1,4(s2)
   120b8:	00860a63          	beq	a2,s0,120cc <_ZN20complex_dynamic_type3app17h0f2eea568d01b0ccE+0x11e>
   120bc:	6509                	lui	a0,0x2
   120be:	98950513          	addi	a0,a0,-1655 # 1989 <.Lline_table_start1+0x175e>
   120c2:	459d                	li	a1,7
   120c4:	0000e097          	auipc	ra,0xe
   120c8:	ae0080e7          	jalr	-1312(ra) # 1fba4 <_ZN9allow_pin12dynamic_type7unshare17h0269127f30dbe29bE>
   120cc:	00414603          	lbu	a2,4(sp)
   120d0:	04861763          	bne	a2,s0,1211e <_ZN20complex_dynamic_type3app17h0f2eea568d01b0ccE+0x170>
   120d4:	a8a9                	j	1212e <_ZN20complex_dynamic_type3app17h0f2eea568d01b0ccE+0x180>
   120d6:	01514403          	lbu	s0,21(sp)
   120da:	4489                	li	s1,2
   120dc:	00940663          	beq	s0,s1,120e8 <_ZN20complex_dynamic_type3app17h0f2eea568d01b0ccE+0x13a>
   120e0:	000109b7          	lui	s3,0x10
   120e4:	73498993          	addi	s3,s3,1844 # 10734 <.Lanon.49c9f8067fe4468184af16d7576940c9.32>
   120e8:	00190513          	addi	a0,s2,1
   120ec:	03600613          	li	a2,54
   120f0:	85ce                	mv	a1,s3
   120f2:	0000e097          	auipc	ra,0xe
   120f6:	b2a080e7          	jalr	-1238(ra) # 1fc1c <memcpy>
   120fa:	00090023          	sb	zero,0(s2)
   120fe:	00940b63          	beq	s0,s1,12114 <_ZN20complex_dynamic_type3app17h0f2eea568d01b0ccE+0x166>
   12102:	6509                	lui	a0,0x2
   12104:	98950513          	addi	a0,a0,-1655 # 1989 <.Lline_table_start1+0x175e>
   12108:	459d                	li	a1,7
   1210a:	8622                	mv	a2,s0
   1210c:	0000e097          	auipc	ra,0xe
   12110:	a98080e7          	jalr	-1384(ra) # 1fba4 <_ZN9allow_pin12dynamic_type7unshare17h0269127f30dbe29bE>
   12114:	00414603          	lbu	a2,4(sp)
   12118:	4509                	li	a0,2
   1211a:	00a60a63          	beq	a2,a0,1212e <_ZN20complex_dynamic_type3app17h0f2eea568d01b0ccE+0x180>
   1211e:	6509                	lui	a0,0x2
   12120:	98950513          	addi	a0,a0,-1655 # 1989 <.Lline_table_start1+0x175e>
   12124:	4585                	li	a1,1
   12126:	0000e097          	auipc	ra,0xe
   1212a:	a7e080e7          	jalr	-1410(ra) # 1fba4 <_ZN9allow_pin12dynamic_type7unshare17h0269127f30dbe29bE>
   1212e:	40f6                	lw	ra,92(sp)
   12130:	4466                	lw	s0,88(sp)
   12132:	44d6                	lw	s1,84(sp)
   12134:	4946                	lw	s2,80(sp)
   12136:	49b6                	lw	s3,76(sp)
   12138:	6125                	addi	sp,sp,96
   1213a:	8082                	ret

0001213c <_ZN20complex_dynamic_type3app17h122f120480140dcaE>:
   1213c:	7175                	addi	sp,sp,-144
   1213e:	c706                	sw	ra,140(sp)
   12140:	c522                	sw	s0,136(sp)
   12142:	c326                	sw	s1,132(sp)
   12144:	c14a                	sw	s2,128(sp)
   12146:	dece                	sw	s3,124(sp)
   12148:	892a                	mv	s2,a0
   1214a:	4489                	li	s1,2
   1214c:	00910623          	sb	s1,12(sp)
   12150:	00d10413          	addi	s0,sp,13
   12154:	03c00613          	li	a2,60
   12158:	8522                	mv	a0,s0
   1215a:	0000e097          	auipc	ra,0xe
   1215e:	ac2080e7          	jalr	-1342(ra) # 1fc1c <memcpy>
   12162:	04a10993          	addi	s3,sp,74
   12166:	03200613          	li	a2,50
   1216a:	854e                	mv	a0,s3
   1216c:	4581                	li	a1,0
   1216e:	0000e097          	auipc	ra,0xe
   12172:	a42080e7          	jalr	-1470(ra) # 1fbb0 <memset>
   12176:	8622                	mv	a2,s0
   12178:	049104a3          	sb	s1,73(sp)
   1217c:	6509                	lui	a0,0x2
   1217e:	4791                	li	a5,4
   12180:	4599                	li	a1,6
   12182:	b1e50513          	addi	a0,a0,-1250 # 1b1e <.Lline_table_start1+0x18f3>
   12186:	03c00693          	li	a3,60
   1218a:	4711                	li	a4,4
   1218c:	00000073          	ecall
   12190:	00950463          	beq	a0,s1,12198 <_ZN20complex_dynamic_type3app17h122f120480140dcaE+0x5c>
   12194:	00f10623          	sb	a5,12(sp)
   12198:	4609                	li	a2,2
   1219a:	00c51463          	bne	a0,a2,121a2 <_ZN20complex_dynamic_type3app17h122f120480140dcaE+0x66>
   1219e:	4785                	li	a5,1
   121a0:	a859                	j	12236 <_ZN20complex_dynamic_type3app17h122f120480140dcaE+0xfa>
   121a2:	04914503          	lbu	a0,73(sp)
   121a6:	4785                	li	a5,1
   121a8:	02c51363          	bne	a0,a2,121ce <_ZN20complex_dynamic_type3app17h122f120480140dcaE+0x92>
   121ac:	864e                	mv	a2,s3
   121ae:	6509                	lui	a0,0x2
   121b0:	45a1                	li	a1,8
   121b2:	03200693          	li	a3,50
   121b6:	470d                	li	a4,3
   121b8:	b1e50513          	addi	a0,a0,-1250 # 1b1e <.Lline_table_start1+0x18f3>
   121bc:	4489                	li	s1,2
   121be:	00000073          	ecall
   121c2:	460d                	li	a2,3
   121c4:	00951963          	bne	a0,s1,121d6 <_ZN20complex_dynamic_type3app17h122f120480140dcaE+0x9a>
   121c8:	4505                	li	a0,1
   121ca:	c911                	beqz	a0,121de <_ZN20complex_dynamic_type3app17h122f120480140dcaE+0xa2>
   121cc:	a0ad                	j	12236 <_ZN20complex_dynamic_type3app17h122f120480140dcaE+0xfa>
   121ce:	458d                	li	a1,3
   121d0:	4505                	li	a0,1
   121d2:	c511                	beqz	a0,121de <_ZN20complex_dynamic_type3app17h122f120480140dcaE+0xa2>
   121d4:	a08d                	j	12236 <_ZN20complex_dynamic_type3app17h122f120480140dcaE+0xfa>
   121d6:	4501                	li	a0,0
   121d8:	04c104a3          	sb	a2,73(sp)
   121dc:	ed29                	bnez	a0,12236 <_ZN20complex_dynamic_type3app17h122f120480140dcaE+0xfa>
   121de:	4681                	li	a3,0
   121e0:	6509                	lui	a0,0x2
   121e2:	4599                	li	a1,6
   121e4:	4621                	li	a2,8
   121e6:	4709                	li	a4,2
   121e8:	b1e50513          	addi	a0,a0,-1250 # 1b1e <.Lline_table_start1+0x18f3>
   121ec:	07f00493          	li	s1,127
   121f0:	00000073          	ecall
   121f4:	4689                	li	a3,2
   121f6:	04a4f063          	bgeu	s1,a0,12236 <_ZN20complex_dynamic_type3app17h122f120480140dcaE+0xfa>
   121fa:	00c14603          	lbu	a2,12(sp)
   121fe:	00d60a63          	beq	a2,a3,12212 <_ZN20complex_dynamic_type3app17h122f120480140dcaE+0xd6>
   12202:	6509                	lui	a0,0x2
   12204:	b1e50513          	addi	a0,a0,-1250 # 1b1e <.Lline_table_start1+0x18f3>
   12208:	4599                	li	a1,6
   1220a:	0000e097          	auipc	ra,0xe
   1220e:	99a080e7          	jalr	-1638(ra) # 1fba4 <_ZN9allow_pin12dynamic_type7unshare17h0269127f30dbe29bE>
   12212:	04914603          	lbu	a2,73(sp)
   12216:	4409                	li	s0,2
   12218:	00810623          	sb	s0,12(sp)
   1221c:	00860a63          	beq	a2,s0,12230 <_ZN20complex_dynamic_type3app17h122f120480140dcaE+0xf4>
   12220:	6509                	lui	a0,0x2
   12222:	b1e50513          	addi	a0,a0,-1250 # 1b1e <.Lline_table_start1+0x18f3>
   12226:	45a1                	li	a1,8
   12228:	0000e097          	auipc	ra,0xe
   1222c:	97c080e7          	jalr	-1668(ra) # 1fba4 <_ZN9allow_pin12dynamic_type7unshare17h0269127f30dbe29bE>
   12230:	4781                	li	a5,0
   12232:	048104a3          	sb	s0,73(sp)
   12236:	cb85                	beqz	a5,12266 <_ZN20complex_dynamic_type3app17h122f120480140dcaE+0x12a>
   12238:	04914603          	lbu	a2,73(sp)
   1223c:	4505                	li	a0,1
   1223e:	4409                	li	s0,2
   12240:	00a90023          	sb	a0,0(s2)
   12244:	00b92223          	sw	a1,4(s2)
   12248:	00860a63          	beq	a2,s0,1225c <_ZN20complex_dynamic_type3app17h122f120480140dcaE+0x120>
   1224c:	6509                	lui	a0,0x2
   1224e:	b1e50513          	addi	a0,a0,-1250 # 1b1e <.Lline_table_start1+0x18f3>
   12252:	45a1                	li	a1,8
   12254:	0000e097          	auipc	ra,0xe
   12258:	950080e7          	jalr	-1712(ra) # 1fba4 <_ZN9allow_pin12dynamic_type7unshare17h0269127f30dbe29bE>
   1225c:	00c14603          	lbu	a2,12(sp)
   12260:	04861763          	bne	a2,s0,122ae <_ZN20complex_dynamic_type3app17h122f120480140dcaE+0x172>
   12264:	a8a9                	j	122be <_ZN20complex_dynamic_type3app17h122f120480140dcaE+0x182>
   12266:	04914403          	lbu	s0,73(sp)
   1226a:	4489                	li	s1,2
   1226c:	00940663          	beq	s0,s1,12278 <_ZN20complex_dynamic_type3app17h122f120480140dcaE+0x13c>
   12270:	000119b7          	lui	s3,0x11
   12274:	83398993          	addi	s3,s3,-1997 # 10833 <.Lanon.49c9f8067fe4468184af16d7576940c9.37>
   12278:	00190513          	addi	a0,s2,1
   1227c:	03200613          	li	a2,50
   12280:	85ce                	mv	a1,s3
   12282:	0000e097          	auipc	ra,0xe
   12286:	99a080e7          	jalr	-1638(ra) # 1fc1c <memcpy>
   1228a:	00090023          	sb	zero,0(s2)
   1228e:	00940b63          	beq	s0,s1,122a4 <_ZN20complex_dynamic_type3app17h122f120480140dcaE+0x168>
   12292:	6509                	lui	a0,0x2
   12294:	b1e50513          	addi	a0,a0,-1250 # 1b1e <.Lline_table_start1+0x18f3>
   12298:	45a1                	li	a1,8
   1229a:	8622                	mv	a2,s0
   1229c:	0000e097          	auipc	ra,0xe
   122a0:	908080e7          	jalr	-1784(ra) # 1fba4 <_ZN9allow_pin12dynamic_type7unshare17h0269127f30dbe29bE>
   122a4:	00c14603          	lbu	a2,12(sp)
   122a8:	4509                	li	a0,2
   122aa:	00a60a63          	beq	a2,a0,122be <_ZN20complex_dynamic_type3app17h122f120480140dcaE+0x182>
   122ae:	6509                	lui	a0,0x2
   122b0:	b1e50513          	addi	a0,a0,-1250 # 1b1e <.Lline_table_start1+0x18f3>
   122b4:	4599                	li	a1,6
   122b6:	0000e097          	auipc	ra,0xe
   122ba:	8ee080e7          	jalr	-1810(ra) # 1fba4 <_ZN9allow_pin12dynamic_type7unshare17h0269127f30dbe29bE>
   122be:	40ba                	lw	ra,140(sp)
   122c0:	442a                	lw	s0,136(sp)
   122c2:	449a                	lw	s1,132(sp)
   122c4:	490a                	lw	s2,128(sp)
   122c6:	59f6                	lw	s3,124(sp)
   122c8:	6149                	addi	sp,sp,144
   122ca:	8082                	ret

000122cc <_ZN20complex_dynamic_type3app17h12a492b07c131471E>:
   122cc:	7135                	addi	sp,sp,-160
   122ce:	cf06                	sw	ra,156(sp)
   122d0:	cd22                	sw	s0,152(sp)
   122d2:	cb26                	sw	s1,148(sp)
   122d4:	c94a                	sw	s2,144(sp)
   122d6:	c74e                	sw	s3,140(sp)
   122d8:	892a                	mv	s2,a0
   122da:	4489                	li	s1,2
   122dc:	00910323          	sb	s1,6(sp)
   122e0:	00710413          	addi	s0,sp,7
   122e4:	04f00613          	li	a2,79
   122e8:	8522                	mv	a0,s0
   122ea:	0000e097          	auipc	ra,0xe
   122ee:	932080e7          	jalr	-1742(ra) # 1fc1c <memcpy>
   122f2:	05710993          	addi	s3,sp,87
   122f6:	03500613          	li	a2,53
   122fa:	854e                	mv	a0,s3
   122fc:	4581                	li	a1,0
   122fe:	0000e097          	auipc	ra,0xe
   12302:	8b2080e7          	jalr	-1870(ra) # 1fbb0 <memset>
   12306:	8622                	mv	a2,s0
   12308:	04910b23          	sb	s1,86(sp)
   1230c:	6505                	lui	a0,0x1
   1230e:	4791                	li	a5,4
   12310:	459d                	li	a1,7
   12312:	6d750513          	addi	a0,a0,1751 # 16d7 <.Lline_table_start1+0x14ac>
   12316:	04f00693          	li	a3,79
   1231a:	4711                	li	a4,4
   1231c:	00000073          	ecall
   12320:	00950463          	beq	a0,s1,12328 <_ZN20complex_dynamic_type3app17h12a492b07c131471E+0x5c>
   12324:	00f10323          	sb	a5,6(sp)
   12328:	4609                	li	a2,2
   1232a:	00c51463          	bne	a0,a2,12332 <_ZN20complex_dynamic_type3app17h12a492b07c131471E+0x66>
   1232e:	4785                	li	a5,1
   12330:	a849                	j	123c2 <_ZN20complex_dynamic_type3app17h12a492b07c131471E+0xf6>
   12332:	05614503          	lbu	a0,86(sp)
   12336:	4785                	li	a5,1
   12338:	02c51563          	bne	a0,a2,12362 <_ZN20complex_dynamic_type3app17h12a492b07c131471E+0x96>
   1233c:	864e                	mv	a2,s3
   1233e:	6505                	lui	a0,0x1
   12340:	4405                	li	s0,1
   12342:	4585                	li	a1,1
   12344:	03500693          	li	a3,53
   12348:	470d                	li	a4,3
   1234a:	6d750513          	addi	a0,a0,1751 # 16d7 <.Lline_table_start1+0x14ac>
   1234e:	4489                	li	s1,2
   12350:	00000073          	ecall
   12354:	460d                	li	a2,3
   12356:	00950863          	beq	a0,s1,12366 <_ZN20complex_dynamic_type3app17h12a492b07c131471E+0x9a>
   1235a:	4401                	li	s0,0
   1235c:	04c10b23          	sb	a2,86(sp)
   12360:	a019                	j	12366 <_ZN20complex_dynamic_type3app17h12a492b07c131471E+0x9a>
   12362:	458d                	li	a1,3
   12364:	4405                	li	s0,1
   12366:	ec31                	bnez	s0,123c2 <_ZN20complex_dynamic_type3app17h12a492b07c131471E+0xf6>
   12368:	4681                	li	a3,0
   1236a:	6505                	lui	a0,0x1
   1236c:	4785                	li	a5,1
   1236e:	459d                	li	a1,7
   12370:	4605                	li	a2,1
   12372:	4709                	li	a4,2
   12374:	6d750513          	addi	a0,a0,1751 # 16d7 <.Lline_table_start1+0x14ac>
   12378:	07f00493          	li	s1,127
   1237c:	00000073          	ecall
   12380:	4689                	li	a3,2
   12382:	04a4f063          	bgeu	s1,a0,123c2 <_ZN20complex_dynamic_type3app17h12a492b07c131471E+0xf6>
   12386:	00614603          	lbu	a2,6(sp)
   1238a:	00d60a63          	beq	a2,a3,1239e <_ZN20complex_dynamic_type3app17h12a492b07c131471E+0xd2>
   1238e:	6505                	lui	a0,0x1
   12390:	6d750513          	addi	a0,a0,1751 # 16d7 <.Lline_table_start1+0x14ac>
   12394:	459d                	li	a1,7
   12396:	0000e097          	auipc	ra,0xe
   1239a:	80e080e7          	jalr	-2034(ra) # 1fba4 <_ZN9allow_pin12dynamic_type7unshare17h0269127f30dbe29bE>
   1239e:	05614603          	lbu	a2,86(sp)
   123a2:	4409                	li	s0,2
   123a4:	00810323          	sb	s0,6(sp)
   123a8:	00860a63          	beq	a2,s0,123bc <_ZN20complex_dynamic_type3app17h12a492b07c131471E+0xf0>
   123ac:	6505                	lui	a0,0x1
   123ae:	6d750513          	addi	a0,a0,1751 # 16d7 <.Lline_table_start1+0x14ac>
   123b2:	4585                	li	a1,1
   123b4:	0000d097          	auipc	ra,0xd
   123b8:	7f0080e7          	jalr	2032(ra) # 1fba4 <_ZN9allow_pin12dynamic_type7unshare17h0269127f30dbe29bE>
   123bc:	4781                	li	a5,0
   123be:	04810b23          	sb	s0,86(sp)
   123c2:	cb85                	beqz	a5,123f2 <_ZN20complex_dynamic_type3app17h12a492b07c131471E+0x126>
   123c4:	05614603          	lbu	a2,86(sp)
   123c8:	4505                	li	a0,1
   123ca:	4409                	li	s0,2
   123cc:	00a90023          	sb	a0,0(s2)
   123d0:	00b92223          	sw	a1,4(s2)
   123d4:	00860a63          	beq	a2,s0,123e8 <_ZN20complex_dynamic_type3app17h12a492b07c131471E+0x11c>
   123d8:	6505                	lui	a0,0x1
   123da:	6d750513          	addi	a0,a0,1751 # 16d7 <.Lline_table_start1+0x14ac>
   123de:	4585                	li	a1,1
   123e0:	0000d097          	auipc	ra,0xd
   123e4:	7c4080e7          	jalr	1988(ra) # 1fba4 <_ZN9allow_pin12dynamic_type7unshare17h0269127f30dbe29bE>
   123e8:	00614603          	lbu	a2,6(sp)
   123ec:	04861763          	bne	a2,s0,1243a <_ZN20complex_dynamic_type3app17h12a492b07c131471E+0x16e>
   123f0:	a8a9                	j	1244a <_ZN20complex_dynamic_type3app17h12a492b07c131471E+0x17e>
   123f2:	05614403          	lbu	s0,86(sp)
   123f6:	4489                	li	s1,2
   123f8:	00940663          	beq	s0,s1,12404 <_ZN20complex_dynamic_type3app17h12a492b07c131471E+0x138>
   123fc:	000109b7          	lui	s3,0x10
   12400:	58898993          	addi	s3,s3,1416 # 10588 <.Lanon.49c9f8067fe4468184af16d7576940c9.23>
   12404:	00190513          	addi	a0,s2,1
   12408:	03500613          	li	a2,53
   1240c:	85ce                	mv	a1,s3
   1240e:	0000e097          	auipc	ra,0xe
   12412:	80e080e7          	jalr	-2034(ra) # 1fc1c <memcpy>
   12416:	00090023          	sb	zero,0(s2)
   1241a:	00940b63          	beq	s0,s1,12430 <_ZN20complex_dynamic_type3app17h12a492b07c131471E+0x164>
   1241e:	6505                	lui	a0,0x1
   12420:	6d750513          	addi	a0,a0,1751 # 16d7 <.Lline_table_start1+0x14ac>
   12424:	4585                	li	a1,1
   12426:	8622                	mv	a2,s0
   12428:	0000d097          	auipc	ra,0xd
   1242c:	77c080e7          	jalr	1916(ra) # 1fba4 <_ZN9allow_pin12dynamic_type7unshare17h0269127f30dbe29bE>
   12430:	00614603          	lbu	a2,6(sp)
   12434:	4509                	li	a0,2
   12436:	00a60a63          	beq	a2,a0,1244a <_ZN20complex_dynamic_type3app17h12a492b07c131471E+0x17e>
   1243a:	6505                	lui	a0,0x1
   1243c:	6d750513          	addi	a0,a0,1751 # 16d7 <.Lline_table_start1+0x14ac>
   12440:	459d                	li	a1,7
   12442:	0000d097          	auipc	ra,0xd
   12446:	762080e7          	jalr	1890(ra) # 1fba4 <_ZN9allow_pin12dynamic_type7unshare17h0269127f30dbe29bE>
   1244a:	40fa                	lw	ra,156(sp)
   1244c:	446a                	lw	s0,152(sp)
   1244e:	44da                	lw	s1,148(sp)
   12450:	494a                	lw	s2,144(sp)
   12452:	49ba                	lw	s3,140(sp)
   12454:	610d                	addi	sp,sp,160
   12456:	8082                	ret

00012458 <_ZN20complex_dynamic_type3app17h17256c19f532f10aE>:
   12458:	7175                	addi	sp,sp,-144
   1245a:	c706                	sw	ra,140(sp)
   1245c:	c522                	sw	s0,136(sp)
   1245e:	c326                	sw	s1,132(sp)
   12460:	c14a                	sw	s2,128(sp)
   12462:	dece                	sw	s3,124(sp)
   12464:	892a                	mv	s2,a0
   12466:	4489                	li	s1,2
   12468:	009103a3          	sb	s1,7(sp)
   1246c:	0020                	addi	s0,sp,8
   1246e:	03200613          	li	a2,50
   12472:	8522                	mv	a0,s0
   12474:	0000d097          	auipc	ra,0xd
   12478:	7a8080e7          	jalr	1960(ra) # 1fc1c <memcpy>
   1247c:	03b10993          	addi	s3,sp,59
   12480:	04100613          	li	a2,65
   12484:	854e                	mv	a0,s3
   12486:	4581                	li	a1,0
   12488:	0000d097          	auipc	ra,0xd
   1248c:	728080e7          	jalr	1832(ra) # 1fbb0 <memset>
   12490:	8622                	mv	a2,s0
   12492:	02910d23          	sb	s1,58(sp)
   12496:	6505                	lui	a0,0x1
   12498:	4791                	li	a5,4
   1249a:	459d                	li	a1,7
   1249c:	91d50513          	addi	a0,a0,-1763 # 91d <.Lline_table_start1+0x6f2>
   124a0:	03200693          	li	a3,50
   124a4:	4711                	li	a4,4
   124a6:	00000073          	ecall
   124aa:	00950463          	beq	a0,s1,124b2 <_ZN20complex_dynamic_type3app17h17256c19f532f10aE+0x5a>
   124ae:	00f103a3          	sb	a5,7(sp)
   124b2:	4609                	li	a2,2
   124b4:	00c51463          	bne	a0,a2,124bc <_ZN20complex_dynamic_type3app17h17256c19f532f10aE+0x64>
   124b8:	4785                	li	a5,1
   124ba:	a859                	j	12550 <_ZN20complex_dynamic_type3app17h17256c19f532f10aE+0xf8>
   124bc:	03a14503          	lbu	a0,58(sp)
   124c0:	4785                	li	a5,1
   124c2:	02c51363          	bne	a0,a2,124e8 <_ZN20complex_dynamic_type3app17h17256c19f532f10aE+0x90>
   124c6:	864e                	mv	a2,s3
   124c8:	6505                	lui	a0,0x1
   124ca:	4595                	li	a1,5
   124cc:	04100693          	li	a3,65
   124d0:	470d                	li	a4,3
   124d2:	91d50513          	addi	a0,a0,-1763 # 91d <.Lline_table_start1+0x6f2>
   124d6:	4489                	li	s1,2
   124d8:	00000073          	ecall
   124dc:	460d                	li	a2,3
   124de:	00951963          	bne	a0,s1,124f0 <_ZN20complex_dynamic_type3app17h17256c19f532f10aE+0x98>
   124e2:	4505                	li	a0,1
   124e4:	c911                	beqz	a0,124f8 <_ZN20complex_dynamic_type3app17h17256c19f532f10aE+0xa0>
   124e6:	a0ad                	j	12550 <_ZN20complex_dynamic_type3app17h17256c19f532f10aE+0xf8>
   124e8:	458d                	li	a1,3
   124ea:	4505                	li	a0,1
   124ec:	c511                	beqz	a0,124f8 <_ZN20complex_dynamic_type3app17h17256c19f532f10aE+0xa0>
   124ee:	a08d                	j	12550 <_ZN20complex_dynamic_type3app17h17256c19f532f10aE+0xf8>
   124f0:	4501                	li	a0,0
   124f2:	02c10d23          	sb	a2,58(sp)
   124f6:	ed29                	bnez	a0,12550 <_ZN20complex_dynamic_type3app17h17256c19f532f10aE+0xf8>
   124f8:	4681                	li	a3,0
   124fa:	6505                	lui	a0,0x1
   124fc:	459d                	li	a1,7
   124fe:	4615                	li	a2,5
   12500:	4709                	li	a4,2
   12502:	91d50513          	addi	a0,a0,-1763 # 91d <.Lline_table_start1+0x6f2>
   12506:	07f00493          	li	s1,127
   1250a:	00000073          	ecall
   1250e:	4689                	li	a3,2
   12510:	04a4f063          	bgeu	s1,a0,12550 <_ZN20complex_dynamic_type3app17h17256c19f532f10aE+0xf8>
   12514:	00714603          	lbu	a2,7(sp)
   12518:	00d60a63          	beq	a2,a3,1252c <_ZN20complex_dynamic_type3app17h17256c19f532f10aE+0xd4>
   1251c:	6505                	lui	a0,0x1
   1251e:	91d50513          	addi	a0,a0,-1763 # 91d <.Lline_table_start1+0x6f2>
   12522:	459d                	li	a1,7
   12524:	0000d097          	auipc	ra,0xd
   12528:	680080e7          	jalr	1664(ra) # 1fba4 <_ZN9allow_pin12dynamic_type7unshare17h0269127f30dbe29bE>
   1252c:	03a14603          	lbu	a2,58(sp)
   12530:	4409                	li	s0,2
   12532:	008103a3          	sb	s0,7(sp)
   12536:	00860a63          	beq	a2,s0,1254a <_ZN20complex_dynamic_type3app17h17256c19f532f10aE+0xf2>
   1253a:	6505                	lui	a0,0x1
   1253c:	91d50513          	addi	a0,a0,-1763 # 91d <.Lline_table_start1+0x6f2>
   12540:	4595                	li	a1,5
   12542:	0000d097          	auipc	ra,0xd
   12546:	662080e7          	jalr	1634(ra) # 1fba4 <_ZN9allow_pin12dynamic_type7unshare17h0269127f30dbe29bE>
   1254a:	4781                	li	a5,0
   1254c:	02810d23          	sb	s0,58(sp)
   12550:	cb85                	beqz	a5,12580 <_ZN20complex_dynamic_type3app17h17256c19f532f10aE+0x128>
   12552:	03a14603          	lbu	a2,58(sp)
   12556:	4505                	li	a0,1
   12558:	4409                	li	s0,2
   1255a:	00a90023          	sb	a0,0(s2)
   1255e:	00b92223          	sw	a1,4(s2)
   12562:	00860a63          	beq	a2,s0,12576 <_ZN20complex_dynamic_type3app17h17256c19f532f10aE+0x11e>
   12566:	6505                	lui	a0,0x1
   12568:	91d50513          	addi	a0,a0,-1763 # 91d <.Lline_table_start1+0x6f2>
   1256c:	4595                	li	a1,5
   1256e:	0000d097          	auipc	ra,0xd
   12572:	636080e7          	jalr	1590(ra) # 1fba4 <_ZN9allow_pin12dynamic_type7unshare17h0269127f30dbe29bE>
   12576:	00714603          	lbu	a2,7(sp)
   1257a:	04861763          	bne	a2,s0,125c8 <_ZN20complex_dynamic_type3app17h17256c19f532f10aE+0x170>
   1257e:	a8a9                	j	125d8 <_ZN20complex_dynamic_type3app17h17256c19f532f10aE+0x180>
   12580:	03a14403          	lbu	s0,58(sp)
   12584:	4489                	li	s1,2
   12586:	00940663          	beq	s0,s1,12592 <_ZN20complex_dynamic_type3app17h17256c19f532f10aE+0x13a>
   1258a:	000109b7          	lui	s3,0x10
   1258e:	34b98993          	addi	s3,s3,843 # 1034b <.Lanon.49c9f8067fe4468184af16d7576940c9.10>
   12592:	00190513          	addi	a0,s2,1
   12596:	04100613          	li	a2,65
   1259a:	85ce                	mv	a1,s3
   1259c:	0000d097          	auipc	ra,0xd
   125a0:	680080e7          	jalr	1664(ra) # 1fc1c <memcpy>
   125a4:	00090023          	sb	zero,0(s2)
   125a8:	00940b63          	beq	s0,s1,125be <_ZN20complex_dynamic_type3app17h17256c19f532f10aE+0x166>
   125ac:	6505                	lui	a0,0x1
   125ae:	91d50513          	addi	a0,a0,-1763 # 91d <.Lline_table_start1+0x6f2>
   125b2:	4595                	li	a1,5
   125b4:	8622                	mv	a2,s0
   125b6:	0000d097          	auipc	ra,0xd
   125ba:	5ee080e7          	jalr	1518(ra) # 1fba4 <_ZN9allow_pin12dynamic_type7unshare17h0269127f30dbe29bE>
   125be:	00714603          	lbu	a2,7(sp)
   125c2:	4509                	li	a0,2
   125c4:	00a60a63          	beq	a2,a0,125d8 <_ZN20complex_dynamic_type3app17h17256c19f532f10aE+0x180>
   125c8:	6505                	lui	a0,0x1
   125ca:	91d50513          	addi	a0,a0,-1763 # 91d <.Lline_table_start1+0x6f2>
   125ce:	459d                	li	a1,7
   125d0:	0000d097          	auipc	ra,0xd
   125d4:	5d4080e7          	jalr	1492(ra) # 1fba4 <_ZN9allow_pin12dynamic_type7unshare17h0269127f30dbe29bE>
   125d8:	40ba                	lw	ra,140(sp)
   125da:	442a                	lw	s0,136(sp)
   125dc:	449a                	lw	s1,132(sp)
   125de:	490a                	lw	s2,128(sp)
   125e0:	59f6                	lw	s3,124(sp)
   125e2:	6149                	addi	sp,sp,144
   125e4:	8082                	ret

000125e6 <_ZN20complex_dynamic_type3app17h194ccfd0b48d032aE>:
   125e6:	7175                	addi	sp,sp,-144
   125e8:	c706                	sw	ra,140(sp)
   125ea:	c522                	sw	s0,136(sp)
   125ec:	c326                	sw	s1,132(sp)
   125ee:	c14a                	sw	s2,128(sp)
   125f0:	dece                	sw	s3,124(sp)
   125f2:	892a                	mv	s2,a0
   125f4:	4489                	li	s1,2
   125f6:	009104a3          	sb	s1,9(sp)
   125fa:	00a10413          	addi	s0,sp,10
   125fe:	04800613          	li	a2,72
   12602:	8522                	mv	a0,s0
   12604:	0000d097          	auipc	ra,0xd
   12608:	618080e7          	jalr	1560(ra) # 1fc1c <memcpy>
   1260c:	05310993          	addi	s3,sp,83
   12610:	02900613          	li	a2,41
   12614:	854e                	mv	a0,s3
   12616:	4581                	li	a1,0
   12618:	0000d097          	auipc	ra,0xd
   1261c:	598080e7          	jalr	1432(ra) # 1fbb0 <memset>
   12620:	8622                	mv	a2,s0
   12622:	04910923          	sb	s1,82(sp)
   12626:	6509                	lui	a0,0x2
   12628:	4791                	li	a5,4
   1262a:	458d                	li	a1,3
   1262c:	6a450513          	addi	a0,a0,1700 # 26a4 <.Lline_table_start1+0x2479>
   12630:	04800693          	li	a3,72
   12634:	4711                	li	a4,4
   12636:	00000073          	ecall
   1263a:	00950463          	beq	a0,s1,12642 <_ZN20complex_dynamic_type3app17h194ccfd0b48d032aE+0x5c>
   1263e:	00f104a3          	sb	a5,9(sp)
   12642:	4609                	li	a2,2
   12644:	00c51463          	bne	a0,a2,1264c <_ZN20complex_dynamic_type3app17h194ccfd0b48d032aE+0x66>
   12648:	4785                	li	a5,1
   1264a:	a859                	j	126e0 <_ZN20complex_dynamic_type3app17h194ccfd0b48d032aE+0xfa>
   1264c:	05214503          	lbu	a0,82(sp)
   12650:	4785                	li	a5,1
   12652:	02c51363          	bne	a0,a2,12678 <_ZN20complex_dynamic_type3app17h194ccfd0b48d032aE+0x92>
   12656:	864e                	mv	a2,s3
   12658:	6509                	lui	a0,0x2
   1265a:	4591                	li	a1,4
   1265c:	02900693          	li	a3,41
   12660:	470d                	li	a4,3
   12662:	6a450513          	addi	a0,a0,1700 # 26a4 <.Lline_table_start1+0x2479>
   12666:	4489                	li	s1,2
   12668:	00000073          	ecall
   1266c:	460d                	li	a2,3
   1266e:	00951963          	bne	a0,s1,12680 <_ZN20complex_dynamic_type3app17h194ccfd0b48d032aE+0x9a>
   12672:	4505                	li	a0,1
   12674:	c911                	beqz	a0,12688 <_ZN20complex_dynamic_type3app17h194ccfd0b48d032aE+0xa2>
   12676:	a0ad                	j	126e0 <_ZN20complex_dynamic_type3app17h194ccfd0b48d032aE+0xfa>
   12678:	458d                	li	a1,3
   1267a:	4505                	li	a0,1
   1267c:	c511                	beqz	a0,12688 <_ZN20complex_dynamic_type3app17h194ccfd0b48d032aE+0xa2>
   1267e:	a08d                	j	126e0 <_ZN20complex_dynamic_type3app17h194ccfd0b48d032aE+0xfa>
   12680:	4501                	li	a0,0
   12682:	04c10923          	sb	a2,82(sp)
   12686:	ed29                	bnez	a0,126e0 <_ZN20complex_dynamic_type3app17h194ccfd0b48d032aE+0xfa>
   12688:	4681                	li	a3,0
   1268a:	6509                	lui	a0,0x2
   1268c:	458d                	li	a1,3
   1268e:	4611                	li	a2,4
   12690:	4709                	li	a4,2
   12692:	6a450513          	addi	a0,a0,1700 # 26a4 <.Lline_table_start1+0x2479>
   12696:	07f00493          	li	s1,127
   1269a:	00000073          	ecall
   1269e:	4689                	li	a3,2
   126a0:	04a4f063          	bgeu	s1,a0,126e0 <_ZN20complex_dynamic_type3app17h194ccfd0b48d032aE+0xfa>
   126a4:	00914603          	lbu	a2,9(sp)
   126a8:	00d60a63          	beq	a2,a3,126bc <_ZN20complex_dynamic_type3app17h194ccfd0b48d032aE+0xd6>
   126ac:	6509                	lui	a0,0x2
   126ae:	6a450513          	addi	a0,a0,1700 # 26a4 <.Lline_table_start1+0x2479>
   126b2:	458d                	li	a1,3
   126b4:	0000d097          	auipc	ra,0xd
   126b8:	4f0080e7          	jalr	1264(ra) # 1fba4 <_ZN9allow_pin12dynamic_type7unshare17h0269127f30dbe29bE>
   126bc:	05214603          	lbu	a2,82(sp)
   126c0:	4409                	li	s0,2
   126c2:	008104a3          	sb	s0,9(sp)
   126c6:	00860a63          	beq	a2,s0,126da <_ZN20complex_dynamic_type3app17h194ccfd0b48d032aE+0xf4>
   126ca:	6509                	lui	a0,0x2
   126cc:	6a450513          	addi	a0,a0,1700 # 26a4 <.Lline_table_start1+0x2479>
   126d0:	4591                	li	a1,4
   126d2:	0000d097          	auipc	ra,0xd
   126d6:	4d2080e7          	jalr	1234(ra) # 1fba4 <_ZN9allow_pin12dynamic_type7unshare17h0269127f30dbe29bE>
   126da:	4781                	li	a5,0
   126dc:	04810923          	sb	s0,82(sp)
   126e0:	cb85                	beqz	a5,12710 <_ZN20complex_dynamic_type3app17h194ccfd0b48d032aE+0x12a>
   126e2:	05214603          	lbu	a2,82(sp)
   126e6:	4505                	li	a0,1
   126e8:	4409                	li	s0,2
   126ea:	00a90023          	sb	a0,0(s2)
   126ee:	00b92223          	sw	a1,4(s2)
   126f2:	00860a63          	beq	a2,s0,12706 <_ZN20complex_dynamic_type3app17h194ccfd0b48d032aE+0x120>
   126f6:	6509                	lui	a0,0x2
   126f8:	6a450513          	addi	a0,a0,1700 # 26a4 <.Lline_table_start1+0x2479>
   126fc:	4591                	li	a1,4
   126fe:	0000d097          	auipc	ra,0xd
   12702:	4a6080e7          	jalr	1190(ra) # 1fba4 <_ZN9allow_pin12dynamic_type7unshare17h0269127f30dbe29bE>
   12706:	00914603          	lbu	a2,9(sp)
   1270a:	04861763          	bne	a2,s0,12758 <_ZN20complex_dynamic_type3app17h194ccfd0b48d032aE+0x172>
   1270e:	a8a9                	j	12768 <_ZN20complex_dynamic_type3app17h194ccfd0b48d032aE+0x182>
   12710:	05214403          	lbu	s0,82(sp)
   12714:	4489                	li	s1,2
   12716:	00940663          	beq	s0,s1,12722 <_ZN20complex_dynamic_type3app17h194ccfd0b48d032aE+0x13c>
   1271a:	000119b7          	lui	s3,0x11
   1271e:	a5d98993          	addi	s3,s3,-1443 # 10a5d <.Lanon.49c9f8067fe4468184af16d7576940c9.47>
   12722:	00190513          	addi	a0,s2,1
   12726:	02900613          	li	a2,41
   1272a:	85ce                	mv	a1,s3
   1272c:	0000d097          	auipc	ra,0xd
   12730:	4f0080e7          	jalr	1264(ra) # 1fc1c <memcpy>
   12734:	00090023          	sb	zero,0(s2)
   12738:	00940b63          	beq	s0,s1,1274e <_ZN20complex_dynamic_type3app17h194ccfd0b48d032aE+0x168>
   1273c:	6509                	lui	a0,0x2
   1273e:	6a450513          	addi	a0,a0,1700 # 26a4 <.Lline_table_start1+0x2479>
   12742:	4591                	li	a1,4
   12744:	8622                	mv	a2,s0
   12746:	0000d097          	auipc	ra,0xd
   1274a:	45e080e7          	jalr	1118(ra) # 1fba4 <_ZN9allow_pin12dynamic_type7unshare17h0269127f30dbe29bE>
   1274e:	00914603          	lbu	a2,9(sp)
   12752:	4509                	li	a0,2
   12754:	00a60a63          	beq	a2,a0,12768 <_ZN20complex_dynamic_type3app17h194ccfd0b48d032aE+0x182>
   12758:	6509                	lui	a0,0x2
   1275a:	6a450513          	addi	a0,a0,1700 # 26a4 <.Lline_table_start1+0x2479>
   1275e:	458d                	li	a1,3
   12760:	0000d097          	auipc	ra,0xd
   12764:	444080e7          	jalr	1092(ra) # 1fba4 <_ZN9allow_pin12dynamic_type7unshare17h0269127f30dbe29bE>
   12768:	40ba                	lw	ra,140(sp)
   1276a:	442a                	lw	s0,136(sp)
   1276c:	449a                	lw	s1,132(sp)
   1276e:	490a                	lw	s2,128(sp)
   12770:	59f6                	lw	s3,124(sp)
   12772:	6149                	addi	sp,sp,144
   12774:	8082                	ret

00012776 <_ZN20complex_dynamic_type3app17h1c87817902cc03b7E>:
   12776:	7175                	addi	sp,sp,-144
   12778:	c706                	sw	ra,140(sp)
   1277a:	c522                	sw	s0,136(sp)
   1277c:	c326                	sw	s1,132(sp)
   1277e:	c14a                	sw	s2,128(sp)
   12780:	dece                	sw	s3,124(sp)
   12782:	892a                	mv	s2,a0
   12784:	4489                	li	s1,2
   12786:	009103a3          	sb	s1,7(sp)
   1278a:	0020                	addi	s0,sp,8
   1278c:	02200613          	li	a2,34
   12790:	8522                	mv	a0,s0
   12792:	0000d097          	auipc	ra,0xd
   12796:	48a080e7          	jalr	1162(ra) # 1fc1c <memcpy>
   1279a:	02b10993          	addi	s3,sp,43
   1279e:	05100613          	li	a2,81
   127a2:	854e                	mv	a0,s3
   127a4:	4581                	li	a1,0
   127a6:	0000d097          	auipc	ra,0xd
   127aa:	40a080e7          	jalr	1034(ra) # 1fbb0 <memset>
   127ae:	8622                	mv	a2,s0
   127b0:	02910523          	sb	s1,42(sp)
   127b4:	4791                	li	a5,4
   127b6:	55e00513          	li	a0,1374
   127ba:	45a5                	li	a1,9
   127bc:	02200693          	li	a3,34
   127c0:	4711                	li	a4,4
   127c2:	00000073          	ecall
   127c6:	00950463          	beq	a0,s1,127ce <_ZN20complex_dynamic_type3app17h1c87817902cc03b7E+0x58>
   127ca:	00f103a3          	sb	a5,7(sp)
   127ce:	4609                	li	a2,2
   127d0:	00c51463          	bne	a0,a2,127d8 <_ZN20complex_dynamic_type3app17h1c87817902cc03b7E+0x62>
   127d4:	4785                	li	a5,1
   127d6:	a079                	j	12864 <_ZN20complex_dynamic_type3app17h1c87817902cc03b7E+0xee>
   127d8:	02a14503          	lbu	a0,42(sp)
   127dc:	4785                	li	a5,1
   127de:	02c51263          	bne	a0,a2,12802 <_ZN20complex_dynamic_type3app17h1c87817902cc03b7E+0x8c>
   127e2:	864e                	mv	a2,s3
   127e4:	55e00513          	li	a0,1374
   127e8:	45a5                	li	a1,9
   127ea:	05100693          	li	a3,81
   127ee:	470d                	li	a4,3
   127f0:	4489                	li	s1,2
   127f2:	00000073          	ecall
   127f6:	460d                	li	a2,3
   127f8:	00951963          	bne	a0,s1,1280a <_ZN20complex_dynamic_type3app17h1c87817902cc03b7E+0x94>
   127fc:	4505                	li	a0,1
   127fe:	c911                	beqz	a0,12812 <_ZN20complex_dynamic_type3app17h1c87817902cc03b7E+0x9c>
   12800:	a095                	j	12864 <_ZN20complex_dynamic_type3app17h1c87817902cc03b7E+0xee>
   12802:	458d                	li	a1,3
   12804:	4505                	li	a0,1
   12806:	c511                	beqz	a0,12812 <_ZN20complex_dynamic_type3app17h1c87817902cc03b7E+0x9c>
   12808:	a8b1                	j	12864 <_ZN20complex_dynamic_type3app17h1c87817902cc03b7E+0xee>
   1280a:	4501                	li	a0,0
   1280c:	02c10523          	sb	a2,42(sp)
   12810:	e931                	bnez	a0,12864 <_ZN20complex_dynamic_type3app17h1c87817902cc03b7E+0xee>
   12812:	4681                	li	a3,0
   12814:	55e00513          	li	a0,1374
   12818:	45a5                	li	a1,9
   1281a:	4625                	li	a2,9
   1281c:	4709                	li	a4,2
   1281e:	07f00493          	li	s1,127
   12822:	00000073          	ecall
   12826:	4689                	li	a3,2
   12828:	02a4fe63          	bgeu	s1,a0,12864 <_ZN20complex_dynamic_type3app17h1c87817902cc03b7E+0xee>
   1282c:	00714603          	lbu	a2,7(sp)
   12830:	00d60963          	beq	a2,a3,12842 <_ZN20complex_dynamic_type3app17h1c87817902cc03b7E+0xcc>
   12834:	55e00513          	li	a0,1374
   12838:	45a5                	li	a1,9
   1283a:	0000d097          	auipc	ra,0xd
   1283e:	36a080e7          	jalr	874(ra) # 1fba4 <_ZN9allow_pin12dynamic_type7unshare17h0269127f30dbe29bE>
   12842:	02a14603          	lbu	a2,42(sp)
   12846:	4409                	li	s0,2
   12848:	008103a3          	sb	s0,7(sp)
   1284c:	00860963          	beq	a2,s0,1285e <_ZN20complex_dynamic_type3app17h1c87817902cc03b7E+0xe8>
   12850:	55e00513          	li	a0,1374
   12854:	45a5                	li	a1,9
   12856:	0000d097          	auipc	ra,0xd
   1285a:	34e080e7          	jalr	846(ra) # 1fba4 <_ZN9allow_pin12dynamic_type7unshare17h0269127f30dbe29bE>
   1285e:	4781                	li	a5,0
   12860:	02810523          	sb	s0,42(sp)
   12864:	c79d                	beqz	a5,12892 <_ZN20complex_dynamic_type3app17h1c87817902cc03b7E+0x11c>
   12866:	02a14603          	lbu	a2,42(sp)
   1286a:	4505                	li	a0,1
   1286c:	4409                	li	s0,2
   1286e:	00a90023          	sb	a0,0(s2)
   12872:	00b92223          	sw	a1,4(s2)
   12876:	00860963          	beq	a2,s0,12888 <_ZN20complex_dynamic_type3app17h1c87817902cc03b7E+0x112>
   1287a:	55e00513          	li	a0,1374
   1287e:	45a5                	li	a1,9
   12880:	0000d097          	auipc	ra,0xd
   12884:	324080e7          	jalr	804(ra) # 1fba4 <_ZN9allow_pin12dynamic_type7unshare17h0269127f30dbe29bE>
   12888:	00714603          	lbu	a2,7(sp)
   1288c:	04861663          	bne	a2,s0,128d8 <_ZN20complex_dynamic_type3app17h1c87817902cc03b7E+0x162>
   12890:	a899                	j	128e6 <_ZN20complex_dynamic_type3app17h1c87817902cc03b7E+0x170>
   12892:	02a14403          	lbu	s0,42(sp)
   12896:	4489                	li	s1,2
   12898:	00940663          	beq	s0,s1,128a4 <_ZN20complex_dynamic_type3app17h1c87817902cc03b7E+0x12e>
   1289c:	000109b7          	lui	s3,0x10
   128a0:	13798993          	addi	s3,s3,311 # 10137 <.Lanon.49c9f8067fe4468184af16d7576940c9.1>
   128a4:	00190513          	addi	a0,s2,1
   128a8:	05100613          	li	a2,81
   128ac:	85ce                	mv	a1,s3
   128ae:	0000d097          	auipc	ra,0xd
   128b2:	36e080e7          	jalr	878(ra) # 1fc1c <memcpy>
   128b6:	00090023          	sb	zero,0(s2)
   128ba:	00940a63          	beq	s0,s1,128ce <_ZN20complex_dynamic_type3app17h1c87817902cc03b7E+0x158>
   128be:	55e00513          	li	a0,1374
   128c2:	45a5                	li	a1,9
   128c4:	8622                	mv	a2,s0
   128c6:	0000d097          	auipc	ra,0xd
   128ca:	2de080e7          	jalr	734(ra) # 1fba4 <_ZN9allow_pin12dynamic_type7unshare17h0269127f30dbe29bE>
   128ce:	00714603          	lbu	a2,7(sp)
   128d2:	4509                	li	a0,2
   128d4:	00a60963          	beq	a2,a0,128e6 <_ZN20complex_dynamic_type3app17h1c87817902cc03b7E+0x170>
   128d8:	55e00513          	li	a0,1374
   128dc:	45a5                	li	a1,9
   128de:	0000d097          	auipc	ra,0xd
   128e2:	2c6080e7          	jalr	710(ra) # 1fba4 <_ZN9allow_pin12dynamic_type7unshare17h0269127f30dbe29bE>
   128e6:	40ba                	lw	ra,140(sp)
   128e8:	442a                	lw	s0,136(sp)
   128ea:	449a                	lw	s1,132(sp)
   128ec:	490a                	lw	s2,128(sp)
   128ee:	59f6                	lw	s3,124(sp)
   128f0:	6149                	addi	sp,sp,144
   128f2:	8082                	ret

000128f4 <_ZN20complex_dynamic_type3app17h24476a96fb1d7eebE>:
   128f4:	7155                	addi	sp,sp,-208
   128f6:	c786                	sw	ra,204(sp)
   128f8:	c5a2                	sw	s0,200(sp)
   128fa:	c3a6                	sw	s1,196(sp)
   128fc:	c1ca                	sw	s2,192(sp)
   128fe:	df4e                	sw	s3,188(sp)
   12900:	892a                	mv	s2,a0
   12902:	4489                	li	s1,2
   12904:	00910523          	sb	s1,10(sp)
   12908:	00b10413          	addi	s0,sp,11
   1290c:	04f00613          	li	a2,79
   12910:	8522                	mv	a0,s0
   12912:	0000d097          	auipc	ra,0xd
   12916:	30a080e7          	jalr	778(ra) # 1fc1c <memcpy>
   1291a:	05b10993          	addi	s3,sp,91
   1291e:	06100613          	li	a2,97
   12922:	854e                	mv	a0,s3
   12924:	4581                	li	a1,0
   12926:	0000d097          	auipc	ra,0xd
   1292a:	28a080e7          	jalr	650(ra) # 1fbb0 <memset>
   1292e:	8622                	mv	a2,s0
   12930:	04910d23          	sb	s1,90(sp)
   12934:	4791                	li	a5,4
   12936:	1b600513          	li	a0,438
   1293a:	4589                	li	a1,2
   1293c:	04f00693          	li	a3,79
   12940:	4711                	li	a4,4
   12942:	00000073          	ecall
   12946:	00950463          	beq	a0,s1,1294e <_ZN20complex_dynamic_type3app17h24476a96fb1d7eebE+0x5a>
   1294a:	00f10523          	sb	a5,10(sp)
   1294e:	4609                	li	a2,2
   12950:	00c51463          	bne	a0,a2,12958 <_ZN20complex_dynamic_type3app17h24476a96fb1d7eebE+0x64>
   12954:	4785                	li	a5,1
   12956:	a079                	j	129e4 <_ZN20complex_dynamic_type3app17h24476a96fb1d7eebE+0xf0>
   12958:	05a14503          	lbu	a0,90(sp)
   1295c:	4785                	li	a5,1
   1295e:	02c51263          	bne	a0,a2,12982 <_ZN20complex_dynamic_type3app17h24476a96fb1d7eebE+0x8e>
   12962:	864e                	mv	a2,s3
   12964:	1b600513          	li	a0,438
   12968:	45a1                	li	a1,8
   1296a:	06100693          	li	a3,97
   1296e:	470d                	li	a4,3
   12970:	4489                	li	s1,2
   12972:	00000073          	ecall
   12976:	460d                	li	a2,3
   12978:	00951963          	bne	a0,s1,1298a <_ZN20complex_dynamic_type3app17h24476a96fb1d7eebE+0x96>
   1297c:	4505                	li	a0,1
   1297e:	c911                	beqz	a0,12992 <_ZN20complex_dynamic_type3app17h24476a96fb1d7eebE+0x9e>
   12980:	a095                	j	129e4 <_ZN20complex_dynamic_type3app17h24476a96fb1d7eebE+0xf0>
   12982:	458d                	li	a1,3
   12984:	4505                	li	a0,1
   12986:	c511                	beqz	a0,12992 <_ZN20complex_dynamic_type3app17h24476a96fb1d7eebE+0x9e>
   12988:	a8b1                	j	129e4 <_ZN20complex_dynamic_type3app17h24476a96fb1d7eebE+0xf0>
   1298a:	4501                	li	a0,0
   1298c:	04c10d23          	sb	a2,90(sp)
   12990:	e931                	bnez	a0,129e4 <_ZN20complex_dynamic_type3app17h24476a96fb1d7eebE+0xf0>
   12992:	4681                	li	a3,0
   12994:	1b600513          	li	a0,438
   12998:	4589                	li	a1,2
   1299a:	4621                	li	a2,8
   1299c:	4709                	li	a4,2
   1299e:	07f00493          	li	s1,127
   129a2:	00000073          	ecall
   129a6:	4689                	li	a3,2
   129a8:	02a4fe63          	bgeu	s1,a0,129e4 <_ZN20complex_dynamic_type3app17h24476a96fb1d7eebE+0xf0>
   129ac:	00a14603          	lbu	a2,10(sp)
   129b0:	00d60963          	beq	a2,a3,129c2 <_ZN20complex_dynamic_type3app17h24476a96fb1d7eebE+0xce>
   129b4:	1b600513          	li	a0,438
   129b8:	4589                	li	a1,2
   129ba:	0000d097          	auipc	ra,0xd
   129be:	1ea080e7          	jalr	490(ra) # 1fba4 <_ZN9allow_pin12dynamic_type7unshare17h0269127f30dbe29bE>
   129c2:	05a14603          	lbu	a2,90(sp)
   129c6:	4409                	li	s0,2
   129c8:	00810523          	sb	s0,10(sp)
   129cc:	00860963          	beq	a2,s0,129de <_ZN20complex_dynamic_type3app17h24476a96fb1d7eebE+0xea>
   129d0:	1b600513          	li	a0,438
   129d4:	45a1                	li	a1,8
   129d6:	0000d097          	auipc	ra,0xd
   129da:	1ce080e7          	jalr	462(ra) # 1fba4 <_ZN9allow_pin12dynamic_type7unshare17h0269127f30dbe29bE>
   129de:	4781                	li	a5,0
   129e0:	04810d23          	sb	s0,90(sp)
   129e4:	c79d                	beqz	a5,12a12 <_ZN20complex_dynamic_type3app17h24476a96fb1d7eebE+0x11e>
   129e6:	05a14603          	lbu	a2,90(sp)
   129ea:	4505                	li	a0,1
   129ec:	4409                	li	s0,2
   129ee:	00a90023          	sb	a0,0(s2)
   129f2:	00b92223          	sw	a1,4(s2)
   129f6:	00860963          	beq	a2,s0,12a08 <_ZN20complex_dynamic_type3app17h24476a96fb1d7eebE+0x114>
   129fa:	1b600513          	li	a0,438
   129fe:	45a1                	li	a1,8
   12a00:	0000d097          	auipc	ra,0xd
   12a04:	1a4080e7          	jalr	420(ra) # 1fba4 <_ZN9allow_pin12dynamic_type7unshare17h0269127f30dbe29bE>
   12a08:	00a14603          	lbu	a2,10(sp)
   12a0c:	04861663          	bne	a2,s0,12a58 <_ZN20complex_dynamic_type3app17h24476a96fb1d7eebE+0x164>
   12a10:	a899                	j	12a66 <_ZN20complex_dynamic_type3app17h24476a96fb1d7eebE+0x172>
   12a12:	05a14403          	lbu	s0,90(sp)
   12a16:	4489                	li	s1,2
   12a18:	00940663          	beq	s0,s1,12a24 <_ZN20complex_dynamic_type3app17h24476a96fb1d7eebE+0x130>
   12a1c:	000119b7          	lui	s3,0x11
   12a20:	9a698993          	addi	s3,s3,-1626 # 109a6 <.Lanon.49c9f8067fe4468184af16d7576940c9.45>
   12a24:	00190513          	addi	a0,s2,1
   12a28:	06100613          	li	a2,97
   12a2c:	85ce                	mv	a1,s3
   12a2e:	0000d097          	auipc	ra,0xd
   12a32:	1ee080e7          	jalr	494(ra) # 1fc1c <memcpy>
   12a36:	00090023          	sb	zero,0(s2)
   12a3a:	00940a63          	beq	s0,s1,12a4e <_ZN20complex_dynamic_type3app17h24476a96fb1d7eebE+0x15a>
   12a3e:	1b600513          	li	a0,438
   12a42:	45a1                	li	a1,8
   12a44:	8622                	mv	a2,s0
   12a46:	0000d097          	auipc	ra,0xd
   12a4a:	15e080e7          	jalr	350(ra) # 1fba4 <_ZN9allow_pin12dynamic_type7unshare17h0269127f30dbe29bE>
   12a4e:	00a14603          	lbu	a2,10(sp)
   12a52:	4509                	li	a0,2
   12a54:	00a60963          	beq	a2,a0,12a66 <_ZN20complex_dynamic_type3app17h24476a96fb1d7eebE+0x172>
   12a58:	1b600513          	li	a0,438
   12a5c:	4589                	li	a1,2
   12a5e:	0000d097          	auipc	ra,0xd
   12a62:	146080e7          	jalr	326(ra) # 1fba4 <_ZN9allow_pin12dynamic_type7unshare17h0269127f30dbe29bE>
   12a66:	40be                	lw	ra,204(sp)
   12a68:	442e                	lw	s0,200(sp)
   12a6a:	449e                	lw	s1,196(sp)
   12a6c:	490e                	lw	s2,192(sp)
   12a6e:	59fa                	lw	s3,188(sp)
   12a70:	6169                	addi	sp,sp,208
   12a72:	8082                	ret

00012a74 <_ZN20complex_dynamic_type3app17h29579d30cd49565fE>:
   12a74:	7131                	addi	sp,sp,-192
   12a76:	df06                	sw	ra,188(sp)
   12a78:	dd22                	sw	s0,184(sp)
   12a7a:	db26                	sw	s1,180(sp)
   12a7c:	d94a                	sw	s2,176(sp)
   12a7e:	d74e                	sw	s3,172(sp)
   12a80:	892a                	mv	s2,a0
   12a82:	4489                	li	s1,2
   12a84:	00910523          	sb	s1,10(sp)
   12a88:	00b10413          	addi	s0,sp,11
   12a8c:	05100613          	li	a2,81
   12a90:	8522                	mv	a0,s0
   12a92:	0000d097          	auipc	ra,0xd
   12a96:	18a080e7          	jalr	394(ra) # 1fc1c <memcpy>
   12a9a:	05d10993          	addi	s3,sp,93
   12a9e:	04f00613          	li	a2,79
   12aa2:	854e                	mv	a0,s3
   12aa4:	4581                	li	a1,0
   12aa6:	0000d097          	auipc	ra,0xd
   12aaa:	10a080e7          	jalr	266(ra) # 1fbb0 <memset>
   12aae:	8622                	mv	a2,s0
   12ab0:	04910e23          	sb	s1,92(sp)
   12ab4:	6505                	lui	a0,0x1
   12ab6:	4791                	li	a5,4
   12ab8:	4589                	li	a1,2
   12aba:	e1650513          	addi	a0,a0,-490 # e16 <.Lline_table_start1+0xbeb>
   12abe:	05100693          	li	a3,81
   12ac2:	4711                	li	a4,4
   12ac4:	00000073          	ecall
   12ac8:	00950463          	beq	a0,s1,12ad0 <_ZN20complex_dynamic_type3app17h29579d30cd49565fE+0x5c>
   12acc:	00f10523          	sb	a5,10(sp)
   12ad0:	4609                	li	a2,2
   12ad2:	00c51463          	bne	a0,a2,12ada <_ZN20complex_dynamic_type3app17h29579d30cd49565fE+0x66>
   12ad6:	4785                	li	a5,1
   12ad8:	a859                	j	12b6e <_ZN20complex_dynamic_type3app17h29579d30cd49565fE+0xfa>
   12ada:	05c14503          	lbu	a0,92(sp)
   12ade:	4785                	li	a5,1
   12ae0:	02c51363          	bne	a0,a2,12b06 <_ZN20complex_dynamic_type3app17h29579d30cd49565fE+0x92>
   12ae4:	864e                	mv	a2,s3
   12ae6:	6505                	lui	a0,0x1
   12ae8:	4591                	li	a1,4
   12aea:	04f00693          	li	a3,79
   12aee:	470d                	li	a4,3
   12af0:	e1650513          	addi	a0,a0,-490 # e16 <.Lline_table_start1+0xbeb>
   12af4:	4489                	li	s1,2
   12af6:	00000073          	ecall
   12afa:	460d                	li	a2,3
   12afc:	00951963          	bne	a0,s1,12b0e <_ZN20complex_dynamic_type3app17h29579d30cd49565fE+0x9a>
   12b00:	4505                	li	a0,1
   12b02:	c911                	beqz	a0,12b16 <_ZN20complex_dynamic_type3app17h29579d30cd49565fE+0xa2>
   12b04:	a0ad                	j	12b6e <_ZN20complex_dynamic_type3app17h29579d30cd49565fE+0xfa>
   12b06:	458d                	li	a1,3
   12b08:	4505                	li	a0,1
   12b0a:	c511                	beqz	a0,12b16 <_ZN20complex_dynamic_type3app17h29579d30cd49565fE+0xa2>
   12b0c:	a08d                	j	12b6e <_ZN20complex_dynamic_type3app17h29579d30cd49565fE+0xfa>
   12b0e:	4501                	li	a0,0
   12b10:	04c10e23          	sb	a2,92(sp)
   12b14:	ed29                	bnez	a0,12b6e <_ZN20complex_dynamic_type3app17h29579d30cd49565fE+0xfa>
   12b16:	4681                	li	a3,0
   12b18:	6505                	lui	a0,0x1
   12b1a:	4589                	li	a1,2
   12b1c:	4611                	li	a2,4
   12b1e:	4709                	li	a4,2
   12b20:	e1650513          	addi	a0,a0,-490 # e16 <.Lline_table_start1+0xbeb>
   12b24:	07f00493          	li	s1,127
   12b28:	00000073          	ecall
   12b2c:	4689                	li	a3,2
   12b2e:	04a4f063          	bgeu	s1,a0,12b6e <_ZN20complex_dynamic_type3app17h29579d30cd49565fE+0xfa>
   12b32:	00a14603          	lbu	a2,10(sp)
   12b36:	00d60a63          	beq	a2,a3,12b4a <_ZN20complex_dynamic_type3app17h29579d30cd49565fE+0xd6>
   12b3a:	6505                	lui	a0,0x1
   12b3c:	e1650513          	addi	a0,a0,-490 # e16 <.Lline_table_start1+0xbeb>
   12b40:	4589                	li	a1,2
   12b42:	0000d097          	auipc	ra,0xd
   12b46:	062080e7          	jalr	98(ra) # 1fba4 <_ZN9allow_pin12dynamic_type7unshare17h0269127f30dbe29bE>
   12b4a:	05c14603          	lbu	a2,92(sp)
   12b4e:	4409                	li	s0,2
   12b50:	00810523          	sb	s0,10(sp)
   12b54:	00860a63          	beq	a2,s0,12b68 <_ZN20complex_dynamic_type3app17h29579d30cd49565fE+0xf4>
   12b58:	6505                	lui	a0,0x1
   12b5a:	e1650513          	addi	a0,a0,-490 # e16 <.Lline_table_start1+0xbeb>
   12b5e:	4591                	li	a1,4
   12b60:	0000d097          	auipc	ra,0xd
   12b64:	044080e7          	jalr	68(ra) # 1fba4 <_ZN9allow_pin12dynamic_type7unshare17h0269127f30dbe29bE>
   12b68:	4781                	li	a5,0
   12b6a:	04810e23          	sb	s0,92(sp)
   12b6e:	cb85                	beqz	a5,12b9e <_ZN20complex_dynamic_type3app17h29579d30cd49565fE+0x12a>
   12b70:	05c14603          	lbu	a2,92(sp)
   12b74:	4505                	li	a0,1
   12b76:	4409                	li	s0,2
   12b78:	00a90023          	sb	a0,0(s2)
   12b7c:	00b92223          	sw	a1,4(s2)
   12b80:	00860a63          	beq	a2,s0,12b94 <_ZN20complex_dynamic_type3app17h29579d30cd49565fE+0x120>
   12b84:	6505                	lui	a0,0x1
   12b86:	e1650513          	addi	a0,a0,-490 # e16 <.Lline_table_start1+0xbeb>
   12b8a:	4591                	li	a1,4
   12b8c:	0000d097          	auipc	ra,0xd
   12b90:	018080e7          	jalr	24(ra) # 1fba4 <_ZN9allow_pin12dynamic_type7unshare17h0269127f30dbe29bE>
   12b94:	00a14603          	lbu	a2,10(sp)
   12b98:	04861763          	bne	a2,s0,12be6 <_ZN20complex_dynamic_type3app17h29579d30cd49565fE+0x172>
   12b9c:	a8a9                	j	12bf6 <_ZN20complex_dynamic_type3app17h29579d30cd49565fE+0x182>
   12b9e:	05c14403          	lbu	s0,92(sp)
   12ba2:	4489                	li	s1,2
   12ba4:	00940663          	beq	s0,s1,12bb0 <_ZN20complex_dynamic_type3app17h29579d30cd49565fE+0x13c>
   12ba8:	000109b7          	lui	s3,0x10
   12bac:	1f798993          	addi	s3,s3,503 # 101f7 <.Lanon.49c9f8067fe4468184af16d7576940c9.4>
   12bb0:	00190513          	addi	a0,s2,1
   12bb4:	04f00613          	li	a2,79
   12bb8:	85ce                	mv	a1,s3
   12bba:	0000d097          	auipc	ra,0xd
   12bbe:	062080e7          	jalr	98(ra) # 1fc1c <memcpy>
   12bc2:	00090023          	sb	zero,0(s2)
   12bc6:	00940b63          	beq	s0,s1,12bdc <_ZN20complex_dynamic_type3app17h29579d30cd49565fE+0x168>
   12bca:	6505                	lui	a0,0x1
   12bcc:	e1650513          	addi	a0,a0,-490 # e16 <.Lline_table_start1+0xbeb>
   12bd0:	4591                	li	a1,4
   12bd2:	8622                	mv	a2,s0
   12bd4:	0000d097          	auipc	ra,0xd
   12bd8:	fd0080e7          	jalr	-48(ra) # 1fba4 <_ZN9allow_pin12dynamic_type7unshare17h0269127f30dbe29bE>
   12bdc:	00a14603          	lbu	a2,10(sp)
   12be0:	4509                	li	a0,2
   12be2:	00a60a63          	beq	a2,a0,12bf6 <_ZN20complex_dynamic_type3app17h29579d30cd49565fE+0x182>
   12be6:	6505                	lui	a0,0x1
   12be8:	e1650513          	addi	a0,a0,-490 # e16 <.Lline_table_start1+0xbeb>
   12bec:	4589                	li	a1,2
   12bee:	0000d097          	auipc	ra,0xd
   12bf2:	fb6080e7          	jalr	-74(ra) # 1fba4 <_ZN9allow_pin12dynamic_type7unshare17h0269127f30dbe29bE>
   12bf6:	50fa                	lw	ra,188(sp)
   12bf8:	546a                	lw	s0,184(sp)
   12bfa:	54da                	lw	s1,180(sp)
   12bfc:	594a                	lw	s2,176(sp)
   12bfe:	59ba                	lw	s3,172(sp)
   12c00:	6129                	addi	sp,sp,192
   12c02:	8082                	ret

00012c04 <_ZN20complex_dynamic_type3app17h2ff365ea898607aaE>:
   12c04:	711d                	addi	sp,sp,-96
   12c06:	ce86                	sw	ra,92(sp)
   12c08:	cca2                	sw	s0,88(sp)
   12c0a:	caa6                	sw	s1,84(sp)
   12c0c:	c8ca                	sw	s2,80(sp)
   12c0e:	c6ce                	sw	s3,76(sp)
   12c10:	892a                	mv	s2,a0
   12c12:	4489                	li	s1,2
   12c14:	009105a3          	sb	s1,11(sp)
   12c18:	0060                	addi	s0,sp,12
   12c1a:	4679                	li	a2,30
   12c1c:	8522                	mv	a0,s0
   12c1e:	0000d097          	auipc	ra,0xd
   12c22:	ffe080e7          	jalr	-2(ra) # 1fc1c <memcpy>
   12c26:	02b10993          	addi	s3,sp,43
   12c2a:	02100613          	li	a2,33
   12c2e:	854e                	mv	a0,s3
   12c30:	4581                	li	a1,0
   12c32:	0000d097          	auipc	ra,0xd
   12c36:	f7e080e7          	jalr	-130(ra) # 1fbb0 <memset>
   12c3a:	8622                	mv	a2,s0
   12c3c:	02910523          	sb	s1,42(sp)
   12c40:	6509                	lui	a0,0x2
   12c42:	4791                	li	a5,4
   12c44:	4599                	li	a1,6
   12c46:	9b550513          	addi	a0,a0,-1611 # 19b5 <.Lline_table_start1+0x178a>
   12c4a:	46f9                	li	a3,30
   12c4c:	4711                	li	a4,4
   12c4e:	00000073          	ecall
   12c52:	00950463          	beq	a0,s1,12c5a <_ZN20complex_dynamic_type3app17h2ff365ea898607aaE+0x56>
   12c56:	00f105a3          	sb	a5,11(sp)
   12c5a:	4609                	li	a2,2
   12c5c:	00c51463          	bne	a0,a2,12c64 <_ZN20complex_dynamic_type3app17h2ff365ea898607aaE+0x60>
   12c60:	4785                	li	a5,1
   12c62:	a859                	j	12cf8 <_ZN20complex_dynamic_type3app17h2ff365ea898607aaE+0xf4>
   12c64:	02a14503          	lbu	a0,42(sp)
   12c68:	4785                	li	a5,1
   12c6a:	02c51363          	bne	a0,a2,12c90 <_ZN20complex_dynamic_type3app17h2ff365ea898607aaE+0x8c>
   12c6e:	864e                	mv	a2,s3
   12c70:	6509                	lui	a0,0x2
   12c72:	45a5                	li	a1,9
   12c74:	02100693          	li	a3,33
   12c78:	470d                	li	a4,3
   12c7a:	9b550513          	addi	a0,a0,-1611 # 19b5 <.Lline_table_start1+0x178a>
   12c7e:	4489                	li	s1,2
   12c80:	00000073          	ecall
   12c84:	460d                	li	a2,3
   12c86:	00951963          	bne	a0,s1,12c98 <_ZN20complex_dynamic_type3app17h2ff365ea898607aaE+0x94>
   12c8a:	4505                	li	a0,1
   12c8c:	c911                	beqz	a0,12ca0 <_ZN20complex_dynamic_type3app17h2ff365ea898607aaE+0x9c>
   12c8e:	a0ad                	j	12cf8 <_ZN20complex_dynamic_type3app17h2ff365ea898607aaE+0xf4>
   12c90:	458d                	li	a1,3
   12c92:	4505                	li	a0,1
   12c94:	c511                	beqz	a0,12ca0 <_ZN20complex_dynamic_type3app17h2ff365ea898607aaE+0x9c>
   12c96:	a08d                	j	12cf8 <_ZN20complex_dynamic_type3app17h2ff365ea898607aaE+0xf4>
   12c98:	4501                	li	a0,0
   12c9a:	02c10523          	sb	a2,42(sp)
   12c9e:	ed29                	bnez	a0,12cf8 <_ZN20complex_dynamic_type3app17h2ff365ea898607aaE+0xf4>
   12ca0:	4681                	li	a3,0
   12ca2:	6509                	lui	a0,0x2
   12ca4:	4599                	li	a1,6
   12ca6:	4625                	li	a2,9
   12ca8:	4709                	li	a4,2
   12caa:	9b550513          	addi	a0,a0,-1611 # 19b5 <.Lline_table_start1+0x178a>
   12cae:	07f00493          	li	s1,127
   12cb2:	00000073          	ecall
   12cb6:	4689                	li	a3,2
   12cb8:	04a4f063          	bgeu	s1,a0,12cf8 <_ZN20complex_dynamic_type3app17h2ff365ea898607aaE+0xf4>
   12cbc:	00b14603          	lbu	a2,11(sp)
   12cc0:	00d60a63          	beq	a2,a3,12cd4 <_ZN20complex_dynamic_type3app17h2ff365ea898607aaE+0xd0>
   12cc4:	6509                	lui	a0,0x2
   12cc6:	9b550513          	addi	a0,a0,-1611 # 19b5 <.Lline_table_start1+0x178a>
   12cca:	4599                	li	a1,6
   12ccc:	0000d097          	auipc	ra,0xd
   12cd0:	ed8080e7          	jalr	-296(ra) # 1fba4 <_ZN9allow_pin12dynamic_type7unshare17h0269127f30dbe29bE>
   12cd4:	02a14603          	lbu	a2,42(sp)
   12cd8:	4409                	li	s0,2
   12cda:	008105a3          	sb	s0,11(sp)
   12cde:	00860a63          	beq	a2,s0,12cf2 <_ZN20complex_dynamic_type3app17h2ff365ea898607aaE+0xee>
   12ce2:	6509                	lui	a0,0x2
   12ce4:	9b550513          	addi	a0,a0,-1611 # 19b5 <.Lline_table_start1+0x178a>
   12ce8:	45a5                	li	a1,9
   12cea:	0000d097          	auipc	ra,0xd
   12cee:	eba080e7          	jalr	-326(ra) # 1fba4 <_ZN9allow_pin12dynamic_type7unshare17h0269127f30dbe29bE>
   12cf2:	4781                	li	a5,0
   12cf4:	02810523          	sb	s0,42(sp)
   12cf8:	cb85                	beqz	a5,12d28 <_ZN20complex_dynamic_type3app17h2ff365ea898607aaE+0x124>
   12cfa:	02a14603          	lbu	a2,42(sp)
   12cfe:	4505                	li	a0,1
   12d00:	4409                	li	s0,2
   12d02:	00a90023          	sb	a0,0(s2)
   12d06:	00b92223          	sw	a1,4(s2)
   12d0a:	00860a63          	beq	a2,s0,12d1e <_ZN20complex_dynamic_type3app17h2ff365ea898607aaE+0x11a>
   12d0e:	6509                	lui	a0,0x2
   12d10:	9b550513          	addi	a0,a0,-1611 # 19b5 <.Lline_table_start1+0x178a>
   12d14:	45a5                	li	a1,9
   12d16:	0000d097          	auipc	ra,0xd
   12d1a:	e8e080e7          	jalr	-370(ra) # 1fba4 <_ZN9allow_pin12dynamic_type7unshare17h0269127f30dbe29bE>
   12d1e:	00b14603          	lbu	a2,11(sp)
   12d22:	04861763          	bne	a2,s0,12d70 <_ZN20complex_dynamic_type3app17h2ff365ea898607aaE+0x16c>
   12d26:	a8a9                	j	12d80 <_ZN20complex_dynamic_type3app17h2ff365ea898607aaE+0x17c>
   12d28:	02a14403          	lbu	s0,42(sp)
   12d2c:	4489                	li	s1,2
   12d2e:	00940663          	beq	s0,s1,12d3a <_ZN20complex_dynamic_type3app17h2ff365ea898607aaE+0x136>
   12d32:	000109b7          	lui	s3,0x10
   12d36:	62d98993          	addi	s3,s3,1581 # 1062d <.Lanon.49c9f8067fe4468184af16d7576940c9.27>
   12d3a:	00190513          	addi	a0,s2,1
   12d3e:	02100613          	li	a2,33
   12d42:	85ce                	mv	a1,s3
   12d44:	0000d097          	auipc	ra,0xd
   12d48:	ed8080e7          	jalr	-296(ra) # 1fc1c <memcpy>
   12d4c:	00090023          	sb	zero,0(s2)
   12d50:	00940b63          	beq	s0,s1,12d66 <_ZN20complex_dynamic_type3app17h2ff365ea898607aaE+0x162>
   12d54:	6509                	lui	a0,0x2
   12d56:	9b550513          	addi	a0,a0,-1611 # 19b5 <.Lline_table_start1+0x178a>
   12d5a:	45a5                	li	a1,9
   12d5c:	8622                	mv	a2,s0
   12d5e:	0000d097          	auipc	ra,0xd
   12d62:	e46080e7          	jalr	-442(ra) # 1fba4 <_ZN9allow_pin12dynamic_type7unshare17h0269127f30dbe29bE>
   12d66:	00b14603          	lbu	a2,11(sp)
   12d6a:	4509                	li	a0,2
   12d6c:	00a60a63          	beq	a2,a0,12d80 <_ZN20complex_dynamic_type3app17h2ff365ea898607aaE+0x17c>
   12d70:	6509                	lui	a0,0x2
   12d72:	9b550513          	addi	a0,a0,-1611 # 19b5 <.Lline_table_start1+0x178a>
   12d76:	4599                	li	a1,6
   12d78:	0000d097          	auipc	ra,0xd
   12d7c:	e2c080e7          	jalr	-468(ra) # 1fba4 <_ZN9allow_pin12dynamic_type7unshare17h0269127f30dbe29bE>
   12d80:	40f6                	lw	ra,92(sp)
   12d82:	4466                	lw	s0,88(sp)
   12d84:	44d6                	lw	s1,84(sp)
   12d86:	4946                	lw	s2,80(sp)
   12d88:	49b6                	lw	s3,76(sp)
   12d8a:	6125                	addi	sp,sp,96
   12d8c:	8082                	ret

00012d8e <_ZN20complex_dynamic_type3app17h2ff48b89a2acaad5E>:
   12d8e:	7119                	addi	sp,sp,-128
   12d90:	de86                	sw	ra,124(sp)
   12d92:	dca2                	sw	s0,120(sp)
   12d94:	daa6                	sw	s1,116(sp)
   12d96:	d8ca                	sw	s2,112(sp)
   12d98:	d6ce                	sw	s3,108(sp)
   12d9a:	892a                	mv	s2,a0
   12d9c:	4489                	li	s1,2
   12d9e:	009103a3          	sb	s1,7(sp)
   12da2:	0020                	addi	s0,sp,8
   12da4:	04100613          	li	a2,65
   12da8:	8522                	mv	a0,s0
   12daa:	0000d097          	auipc	ra,0xd
   12dae:	e72080e7          	jalr	-398(ra) # 1fc1c <memcpy>
   12db2:	04a10993          	addi	s3,sp,74
   12db6:	02200613          	li	a2,34
   12dba:	854e                	mv	a0,s3
   12dbc:	4581                	li	a1,0
   12dbe:	0000d097          	auipc	ra,0xd
   12dc2:	df2080e7          	jalr	-526(ra) # 1fbb0 <memset>
   12dc6:	8622                	mv	a2,s0
   12dc8:	049104a3          	sb	s1,73(sp)
   12dcc:	6509                	lui	a0,0x2
   12dce:	4791                	li	a5,4
   12dd0:	4585                	li	a1,1
   12dd2:	47c50513          	addi	a0,a0,1148 # 247c <.Lline_table_start1+0x2251>
   12dd6:	04100693          	li	a3,65
   12dda:	4711                	li	a4,4
   12ddc:	00000073          	ecall
   12de0:	00950463          	beq	a0,s1,12de8 <_ZN20complex_dynamic_type3app17h2ff48b89a2acaad5E+0x5a>
   12de4:	00f103a3          	sb	a5,7(sp)
   12de8:	4609                	li	a2,2
   12dea:	00c51463          	bne	a0,a2,12df2 <_ZN20complex_dynamic_type3app17h2ff48b89a2acaad5E+0x64>
   12dee:	4785                	li	a5,1
   12df0:	a861                	j	12e88 <_ZN20complex_dynamic_type3app17h2ff48b89a2acaad5E+0xfa>
   12df2:	04914503          	lbu	a0,73(sp)
   12df6:	4785                	li	a5,1
   12df8:	02c51363          	bne	a0,a2,12e1e <_ZN20complex_dynamic_type3app17h2ff48b89a2acaad5E+0x90>
   12dfc:	4581                	li	a1,0
   12dfe:	864e                	mv	a2,s3
   12e00:	6509                	lui	a0,0x2
   12e02:	02200693          	li	a3,34
   12e06:	470d                	li	a4,3
   12e08:	47c50513          	addi	a0,a0,1148 # 247c <.Lline_table_start1+0x2251>
   12e0c:	4489                	li	s1,2
   12e0e:	00000073          	ecall
   12e12:	460d                	li	a2,3
   12e14:	00951963          	bne	a0,s1,12e26 <_ZN20complex_dynamic_type3app17h2ff48b89a2acaad5E+0x98>
   12e18:	4505                	li	a0,1
   12e1a:	c911                	beqz	a0,12e2e <_ZN20complex_dynamic_type3app17h2ff48b89a2acaad5E+0xa0>
   12e1c:	a0b5                	j	12e88 <_ZN20complex_dynamic_type3app17h2ff48b89a2acaad5E+0xfa>
   12e1e:	458d                	li	a1,3
   12e20:	4505                	li	a0,1
   12e22:	c511                	beqz	a0,12e2e <_ZN20complex_dynamic_type3app17h2ff48b89a2acaad5E+0xa0>
   12e24:	a095                	j	12e88 <_ZN20complex_dynamic_type3app17h2ff48b89a2acaad5E+0xfa>
   12e26:	4501                	li	a0,0
   12e28:	04c104a3          	sb	a2,73(sp)
   12e2c:	ed31                	bnez	a0,12e88 <_ZN20complex_dynamic_type3app17h2ff48b89a2acaad5E+0xfa>
   12e2e:	4601                	li	a2,0
   12e30:	4681                	li	a3,0
   12e32:	6509                	lui	a0,0x2
   12e34:	4785                	li	a5,1
   12e36:	4585                	li	a1,1
   12e38:	4709                	li	a4,2
   12e3a:	47c50513          	addi	a0,a0,1148 # 247c <.Lline_table_start1+0x2251>
   12e3e:	07f00493          	li	s1,127
   12e42:	00000073          	ecall
   12e46:	4689                	li	a3,2
   12e48:	04a4f063          	bgeu	s1,a0,12e88 <_ZN20complex_dynamic_type3app17h2ff48b89a2acaad5E+0xfa>
   12e4c:	00714603          	lbu	a2,7(sp)
   12e50:	00d60a63          	beq	a2,a3,12e64 <_ZN20complex_dynamic_type3app17h2ff48b89a2acaad5E+0xd6>
   12e54:	6509                	lui	a0,0x2
   12e56:	47c50513          	addi	a0,a0,1148 # 247c <.Lline_table_start1+0x2251>
   12e5a:	4585                	li	a1,1
   12e5c:	0000d097          	auipc	ra,0xd
   12e60:	d48080e7          	jalr	-696(ra) # 1fba4 <_ZN9allow_pin12dynamic_type7unshare17h0269127f30dbe29bE>
   12e64:	04914603          	lbu	a2,73(sp)
   12e68:	4409                	li	s0,2
   12e6a:	008103a3          	sb	s0,7(sp)
   12e6e:	00860a63          	beq	a2,s0,12e82 <_ZN20complex_dynamic_type3app17h2ff48b89a2acaad5E+0xf4>
   12e72:	6509                	lui	a0,0x2
   12e74:	47c50513          	addi	a0,a0,1148 # 247c <.Lline_table_start1+0x2251>
   12e78:	4581                	li	a1,0
   12e7a:	0000d097          	auipc	ra,0xd
   12e7e:	d2a080e7          	jalr	-726(ra) # 1fba4 <_ZN9allow_pin12dynamic_type7unshare17h0269127f30dbe29bE>
   12e82:	4781                	li	a5,0
   12e84:	048104a3          	sb	s0,73(sp)
   12e88:	cb85                	beqz	a5,12eb8 <_ZN20complex_dynamic_type3app17h2ff48b89a2acaad5E+0x12a>
   12e8a:	04914603          	lbu	a2,73(sp)
   12e8e:	4505                	li	a0,1
   12e90:	4409                	li	s0,2
   12e92:	00a90023          	sb	a0,0(s2)
   12e96:	00b92223          	sw	a1,4(s2)
   12e9a:	00860a63          	beq	a2,s0,12eae <_ZN20complex_dynamic_type3app17h2ff48b89a2acaad5E+0x120>
   12e9e:	6509                	lui	a0,0x2
   12ea0:	47c50513          	addi	a0,a0,1148 # 247c <.Lline_table_start1+0x2251>
   12ea4:	4581                	li	a1,0
   12ea6:	0000d097          	auipc	ra,0xd
   12eaa:	cfe080e7          	jalr	-770(ra) # 1fba4 <_ZN9allow_pin12dynamic_type7unshare17h0269127f30dbe29bE>
   12eae:	00714603          	lbu	a2,7(sp)
   12eb2:	04861763          	bne	a2,s0,12f00 <_ZN20complex_dynamic_type3app17h2ff48b89a2acaad5E+0x172>
   12eb6:	a8a9                	j	12f10 <_ZN20complex_dynamic_type3app17h2ff48b89a2acaad5E+0x182>
   12eb8:	04914403          	lbu	s0,73(sp)
   12ebc:	4489                	li	s1,2
   12ebe:	00940663          	beq	s0,s1,12eca <_ZN20complex_dynamic_type3app17h2ff48b89a2acaad5E+0x13c>
   12ec2:	000109b7          	lui	s3,0x10
   12ec6:	53298993          	addi	s3,s3,1330 # 10532 <.Lanon.49c9f8067fe4468184af16d7576940c9.21>
   12eca:	00190513          	addi	a0,s2,1
   12ece:	02200613          	li	a2,34
   12ed2:	85ce                	mv	a1,s3
   12ed4:	0000d097          	auipc	ra,0xd
   12ed8:	d48080e7          	jalr	-696(ra) # 1fc1c <memcpy>
   12edc:	00090023          	sb	zero,0(s2)
   12ee0:	00940b63          	beq	s0,s1,12ef6 <_ZN20complex_dynamic_type3app17h2ff48b89a2acaad5E+0x168>
   12ee4:	6509                	lui	a0,0x2
   12ee6:	47c50513          	addi	a0,a0,1148 # 247c <.Lline_table_start1+0x2251>
   12eea:	4581                	li	a1,0
   12eec:	8622                	mv	a2,s0
   12eee:	0000d097          	auipc	ra,0xd
   12ef2:	cb6080e7          	jalr	-842(ra) # 1fba4 <_ZN9allow_pin12dynamic_type7unshare17h0269127f30dbe29bE>
   12ef6:	00714603          	lbu	a2,7(sp)
   12efa:	4509                	li	a0,2
   12efc:	00a60a63          	beq	a2,a0,12f10 <_ZN20complex_dynamic_type3app17h2ff48b89a2acaad5E+0x182>
   12f00:	6509                	lui	a0,0x2
   12f02:	47c50513          	addi	a0,a0,1148 # 247c <.Lline_table_start1+0x2251>
   12f06:	4585                	li	a1,1
   12f08:	0000d097          	auipc	ra,0xd
   12f0c:	c9c080e7          	jalr	-868(ra) # 1fba4 <_ZN9allow_pin12dynamic_type7unshare17h0269127f30dbe29bE>
   12f10:	50f6                	lw	ra,124(sp)
   12f12:	5466                	lw	s0,120(sp)
   12f14:	54d6                	lw	s1,116(sp)
   12f16:	5946                	lw	s2,112(sp)
   12f18:	59b6                	lw	s3,108(sp)
   12f1a:	6109                	addi	sp,sp,128
   12f1c:	8082                	ret

00012f1e <_ZN20complex_dynamic_type3app17h34d421da248e70b9E>:
   12f1e:	7171                	addi	sp,sp,-176
   12f20:	d706                	sw	ra,172(sp)
   12f22:	d522                	sw	s0,168(sp)
   12f24:	d326                	sw	s1,164(sp)
   12f26:	d14a                	sw	s2,160(sp)
   12f28:	cf4e                	sw	s3,156(sp)
   12f2a:	892a                	mv	s2,a0
   12f2c:	4489                	li	s1,2
   12f2e:	00910723          	sb	s1,14(sp)
   12f32:	00f10413          	addi	s0,sp,15
   12f36:	05000613          	li	a2,80
   12f3a:	8522                	mv	a0,s0
   12f3c:	0000d097          	auipc	ra,0xd
   12f40:	ce0080e7          	jalr	-800(ra) # 1fc1c <memcpy>
   12f44:	06010993          	addi	s3,sp,96
   12f48:	03c00613          	li	a2,60
   12f4c:	854e                	mv	a0,s3
   12f4e:	4581                	li	a1,0
   12f50:	0000d097          	auipc	ra,0xd
   12f54:	c60080e7          	jalr	-928(ra) # 1fbb0 <memset>
   12f58:	8622                	mv	a2,s0
   12f5a:	04910fa3          	sb	s1,95(sp)
   12f5e:	6505                	lui	a0,0x1
   12f60:	4791                	li	a5,4
   12f62:	458d                	li	a1,3
   12f64:	d7a50513          	addi	a0,a0,-646 # d7a <.Lline_table_start1+0xb4f>
   12f68:	05000693          	li	a3,80
   12f6c:	4711                	li	a4,4
   12f6e:	00000073          	ecall
   12f72:	00950463          	beq	a0,s1,12f7a <_ZN20complex_dynamic_type3app17h34d421da248e70b9E+0x5c>
   12f76:	00f10723          	sb	a5,14(sp)
   12f7a:	4609                	li	a2,2
   12f7c:	00c51463          	bne	a0,a2,12f84 <_ZN20complex_dynamic_type3app17h34d421da248e70b9E+0x66>
   12f80:	4785                	li	a5,1
   12f82:	a859                	j	13018 <_ZN20complex_dynamic_type3app17h34d421da248e70b9E+0xfa>
   12f84:	05f14503          	lbu	a0,95(sp)
   12f88:	4785                	li	a5,1
   12f8a:	02c51363          	bne	a0,a2,12fb0 <_ZN20complex_dynamic_type3app17h34d421da248e70b9E+0x92>
   12f8e:	864e                	mv	a2,s3
   12f90:	6505                	lui	a0,0x1
   12f92:	45a5                	li	a1,9
   12f94:	03c00693          	li	a3,60
   12f98:	470d                	li	a4,3
   12f9a:	d7a50513          	addi	a0,a0,-646 # d7a <.Lline_table_start1+0xb4f>
   12f9e:	4489                	li	s1,2
   12fa0:	00000073          	ecall
   12fa4:	460d                	li	a2,3
   12fa6:	00951963          	bne	a0,s1,12fb8 <_ZN20complex_dynamic_type3app17h34d421da248e70b9E+0x9a>
   12faa:	4505                	li	a0,1
   12fac:	c911                	beqz	a0,12fc0 <_ZN20complex_dynamic_type3app17h34d421da248e70b9E+0xa2>
   12fae:	a0ad                	j	13018 <_ZN20complex_dynamic_type3app17h34d421da248e70b9E+0xfa>
   12fb0:	458d                	li	a1,3
   12fb2:	4505                	li	a0,1
   12fb4:	c511                	beqz	a0,12fc0 <_ZN20complex_dynamic_type3app17h34d421da248e70b9E+0xa2>
   12fb6:	a08d                	j	13018 <_ZN20complex_dynamic_type3app17h34d421da248e70b9E+0xfa>
   12fb8:	4501                	li	a0,0
   12fba:	04c10fa3          	sb	a2,95(sp)
   12fbe:	ed29                	bnez	a0,13018 <_ZN20complex_dynamic_type3app17h34d421da248e70b9E+0xfa>
   12fc0:	4681                	li	a3,0
   12fc2:	6505                	lui	a0,0x1
   12fc4:	458d                	li	a1,3
   12fc6:	4625                	li	a2,9
   12fc8:	4709                	li	a4,2
   12fca:	d7a50513          	addi	a0,a0,-646 # d7a <.Lline_table_start1+0xb4f>
   12fce:	07f00493          	li	s1,127
   12fd2:	00000073          	ecall
   12fd6:	4689                	li	a3,2
   12fd8:	04a4f063          	bgeu	s1,a0,13018 <_ZN20complex_dynamic_type3app17h34d421da248e70b9E+0xfa>
   12fdc:	00e14603          	lbu	a2,14(sp)
   12fe0:	00d60a63          	beq	a2,a3,12ff4 <_ZN20complex_dynamic_type3app17h34d421da248e70b9E+0xd6>
   12fe4:	6505                	lui	a0,0x1
   12fe6:	d7a50513          	addi	a0,a0,-646 # d7a <.Lline_table_start1+0xb4f>
   12fea:	458d                	li	a1,3
   12fec:	0000d097          	auipc	ra,0xd
   12ff0:	bb8080e7          	jalr	-1096(ra) # 1fba4 <_ZN9allow_pin12dynamic_type7unshare17h0269127f30dbe29bE>
   12ff4:	05f14603          	lbu	a2,95(sp)
   12ff8:	4409                	li	s0,2
   12ffa:	00810723          	sb	s0,14(sp)
   12ffe:	00860a63          	beq	a2,s0,13012 <_ZN20complex_dynamic_type3app17h34d421da248e70b9E+0xf4>
   13002:	6505                	lui	a0,0x1
   13004:	d7a50513          	addi	a0,a0,-646 # d7a <.Lline_table_start1+0xb4f>
   13008:	45a5                	li	a1,9
   1300a:	0000d097          	auipc	ra,0xd
   1300e:	b9a080e7          	jalr	-1126(ra) # 1fba4 <_ZN9allow_pin12dynamic_type7unshare17h0269127f30dbe29bE>
   13012:	4781                	li	a5,0
   13014:	04810fa3          	sb	s0,95(sp)
   13018:	cb85                	beqz	a5,13048 <_ZN20complex_dynamic_type3app17h34d421da248e70b9E+0x12a>
   1301a:	05f14603          	lbu	a2,95(sp)
   1301e:	4505                	li	a0,1
   13020:	4409                	li	s0,2
   13022:	00a90023          	sb	a0,0(s2)
   13026:	00b92223          	sw	a1,4(s2)
   1302a:	00860a63          	beq	a2,s0,1303e <_ZN20complex_dynamic_type3app17h34d421da248e70b9E+0x120>
   1302e:	6505                	lui	a0,0x1
   13030:	d7a50513          	addi	a0,a0,-646 # d7a <.Lline_table_start1+0xb4f>
   13034:	45a5                	li	a1,9
   13036:	0000d097          	auipc	ra,0xd
   1303a:	b6e080e7          	jalr	-1170(ra) # 1fba4 <_ZN9allow_pin12dynamic_type7unshare17h0269127f30dbe29bE>
   1303e:	00e14603          	lbu	a2,14(sp)
   13042:	04861763          	bne	a2,s0,13090 <_ZN20complex_dynamic_type3app17h34d421da248e70b9E+0x172>
   13046:	a8a9                	j	130a0 <_ZN20complex_dynamic_type3app17h34d421da248e70b9E+0x182>
   13048:	05f14403          	lbu	s0,95(sp)
   1304c:	4489                	li	s1,2
   1304e:	00940663          	beq	s0,s1,1305a <_ZN20complex_dynamic_type3app17h34d421da248e70b9E+0x13c>
   13052:	000109b7          	lui	s3,0x10
   13056:	64e98993          	addi	s3,s3,1614 # 1064e <.Lanon.49c9f8067fe4468184af16d7576940c9.28>
   1305a:	00190513          	addi	a0,s2,1
   1305e:	03c00613          	li	a2,60
   13062:	85ce                	mv	a1,s3
   13064:	0000d097          	auipc	ra,0xd
   13068:	bb8080e7          	jalr	-1096(ra) # 1fc1c <memcpy>
   1306c:	00090023          	sb	zero,0(s2)
   13070:	00940b63          	beq	s0,s1,13086 <_ZN20complex_dynamic_type3app17h34d421da248e70b9E+0x168>
   13074:	6505                	lui	a0,0x1
   13076:	d7a50513          	addi	a0,a0,-646 # d7a <.Lline_table_start1+0xb4f>
   1307a:	45a5                	li	a1,9
   1307c:	8622                	mv	a2,s0
   1307e:	0000d097          	auipc	ra,0xd
   13082:	b26080e7          	jalr	-1242(ra) # 1fba4 <_ZN9allow_pin12dynamic_type7unshare17h0269127f30dbe29bE>
   13086:	00e14603          	lbu	a2,14(sp)
   1308a:	4509                	li	a0,2
   1308c:	00a60a63          	beq	a2,a0,130a0 <_ZN20complex_dynamic_type3app17h34d421da248e70b9E+0x182>
   13090:	6505                	lui	a0,0x1
   13092:	d7a50513          	addi	a0,a0,-646 # d7a <.Lline_table_start1+0xb4f>
   13096:	458d                	li	a1,3
   13098:	0000d097          	auipc	ra,0xd
   1309c:	b0c080e7          	jalr	-1268(ra) # 1fba4 <_ZN9allow_pin12dynamic_type7unshare17h0269127f30dbe29bE>
   130a0:	50ba                	lw	ra,172(sp)
   130a2:	542a                	lw	s0,168(sp)
   130a4:	549a                	lw	s1,164(sp)
   130a6:	590a                	lw	s2,160(sp)
   130a8:	49fa                	lw	s3,156(sp)
   130aa:	614d                	addi	sp,sp,176
   130ac:	8082                	ret

000130ae <_ZN20complex_dynamic_type3app17h3882064ffd5f7a01E>:
   130ae:	7119                	addi	sp,sp,-128
   130b0:	de86                	sw	ra,124(sp)
   130b2:	dca2                	sw	s0,120(sp)
   130b4:	daa6                	sw	s1,116(sp)
   130b6:	d8ca                	sw	s2,112(sp)
   130b8:	d6ce                	sw	s3,108(sp)
   130ba:	892a                	mv	s2,a0
   130bc:	4489                	li	s1,2
   130be:	00910123          	sb	s1,2(sp)
   130c2:	00310413          	addi	s0,sp,3
   130c6:	03c00613          	li	a2,60
   130ca:	8522                	mv	a0,s0
   130cc:	0000d097          	auipc	ra,0xd
   130d0:	b50080e7          	jalr	-1200(ra) # 1fc1c <memcpy>
   130d4:	04010993          	addi	s3,sp,64
   130d8:	02c00613          	li	a2,44
   130dc:	854e                	mv	a0,s3
   130de:	4581                	li	a1,0
   130e0:	0000d097          	auipc	ra,0xd
   130e4:	ad0080e7          	jalr	-1328(ra) # 1fbb0 <memset>
   130e8:	8622                	mv	a2,s0
   130ea:	02910fa3          	sb	s1,63(sp)
   130ee:	6509                	lui	a0,0x2
   130f0:	4791                	li	a5,4
   130f2:	4595                	li	a1,5
   130f4:	eac50513          	addi	a0,a0,-340 # 1eac <.Lline_table_start1+0x1c81>
   130f8:	03c00693          	li	a3,60
   130fc:	4711                	li	a4,4
   130fe:	00000073          	ecall
   13102:	00950463          	beq	a0,s1,1310a <_ZN20complex_dynamic_type3app17h3882064ffd5f7a01E+0x5c>
   13106:	00f10123          	sb	a5,2(sp)
   1310a:	4609                	li	a2,2
   1310c:	00c51463          	bne	a0,a2,13114 <_ZN20complex_dynamic_type3app17h3882064ffd5f7a01E+0x66>
   13110:	4785                	li	a5,1
   13112:	a859                	j	131a8 <_ZN20complex_dynamic_type3app17h3882064ffd5f7a01E+0xfa>
   13114:	03f14503          	lbu	a0,63(sp)
   13118:	4785                	li	a5,1
   1311a:	02c51363          	bne	a0,a2,13140 <_ZN20complex_dynamic_type3app17h3882064ffd5f7a01E+0x92>
   1311e:	864e                	mv	a2,s3
   13120:	6509                	lui	a0,0x2
   13122:	459d                	li	a1,7
   13124:	02c00693          	li	a3,44
   13128:	470d                	li	a4,3
   1312a:	eac50513          	addi	a0,a0,-340 # 1eac <.Lline_table_start1+0x1c81>
   1312e:	4489                	li	s1,2
   13130:	00000073          	ecall
   13134:	460d                	li	a2,3
   13136:	00951963          	bne	a0,s1,13148 <_ZN20complex_dynamic_type3app17h3882064ffd5f7a01E+0x9a>
   1313a:	4505                	li	a0,1
   1313c:	c911                	beqz	a0,13150 <_ZN20complex_dynamic_type3app17h3882064ffd5f7a01E+0xa2>
   1313e:	a0ad                	j	131a8 <_ZN20complex_dynamic_type3app17h3882064ffd5f7a01E+0xfa>
   13140:	458d                	li	a1,3
   13142:	4505                	li	a0,1
   13144:	c511                	beqz	a0,13150 <_ZN20complex_dynamic_type3app17h3882064ffd5f7a01E+0xa2>
   13146:	a08d                	j	131a8 <_ZN20complex_dynamic_type3app17h3882064ffd5f7a01E+0xfa>
   13148:	4501                	li	a0,0
   1314a:	02c10fa3          	sb	a2,63(sp)
   1314e:	ed29                	bnez	a0,131a8 <_ZN20complex_dynamic_type3app17h3882064ffd5f7a01E+0xfa>
   13150:	4681                	li	a3,0
   13152:	6509                	lui	a0,0x2
   13154:	4595                	li	a1,5
   13156:	461d                	li	a2,7
   13158:	4709                	li	a4,2
   1315a:	eac50513          	addi	a0,a0,-340 # 1eac <.Lline_table_start1+0x1c81>
   1315e:	07f00493          	li	s1,127
   13162:	00000073          	ecall
   13166:	4689                	li	a3,2
   13168:	04a4f063          	bgeu	s1,a0,131a8 <_ZN20complex_dynamic_type3app17h3882064ffd5f7a01E+0xfa>
   1316c:	00214603          	lbu	a2,2(sp)
   13170:	00d60a63          	beq	a2,a3,13184 <_ZN20complex_dynamic_type3app17h3882064ffd5f7a01E+0xd6>
   13174:	6509                	lui	a0,0x2
   13176:	eac50513          	addi	a0,a0,-340 # 1eac <.Lline_table_start1+0x1c81>
   1317a:	4595                	li	a1,5
   1317c:	0000d097          	auipc	ra,0xd
   13180:	a28080e7          	jalr	-1496(ra) # 1fba4 <_ZN9allow_pin12dynamic_type7unshare17h0269127f30dbe29bE>
   13184:	03f14603          	lbu	a2,63(sp)
   13188:	4409                	li	s0,2
   1318a:	00810123          	sb	s0,2(sp)
   1318e:	00860a63          	beq	a2,s0,131a2 <_ZN20complex_dynamic_type3app17h3882064ffd5f7a01E+0xf4>
   13192:	6509                	lui	a0,0x2
   13194:	eac50513          	addi	a0,a0,-340 # 1eac <.Lline_table_start1+0x1c81>
   13198:	459d                	li	a1,7
   1319a:	0000d097          	auipc	ra,0xd
   1319e:	a0a080e7          	jalr	-1526(ra) # 1fba4 <_ZN9allow_pin12dynamic_type7unshare17h0269127f30dbe29bE>
   131a2:	4781                	li	a5,0
   131a4:	02810fa3          	sb	s0,63(sp)
   131a8:	cb85                	beqz	a5,131d8 <_ZN20complex_dynamic_type3app17h3882064ffd5f7a01E+0x12a>
   131aa:	03f14603          	lbu	a2,63(sp)
   131ae:	4505                	li	a0,1
   131b0:	4409                	li	s0,2
   131b2:	00a90023          	sb	a0,0(s2)
   131b6:	00b92223          	sw	a1,4(s2)
   131ba:	00860a63          	beq	a2,s0,131ce <_ZN20complex_dynamic_type3app17h3882064ffd5f7a01E+0x120>
   131be:	6509                	lui	a0,0x2
   131c0:	eac50513          	addi	a0,a0,-340 # 1eac <.Lline_table_start1+0x1c81>
   131c4:	459d                	li	a1,7
   131c6:	0000d097          	auipc	ra,0xd
   131ca:	9de080e7          	jalr	-1570(ra) # 1fba4 <_ZN9allow_pin12dynamic_type7unshare17h0269127f30dbe29bE>
   131ce:	00214603          	lbu	a2,2(sp)
   131d2:	04861763          	bne	a2,s0,13220 <_ZN20complex_dynamic_type3app17h3882064ffd5f7a01E+0x172>
   131d6:	a8a9                	j	13230 <_ZN20complex_dynamic_type3app17h3882064ffd5f7a01E+0x182>
   131d8:	03f14403          	lbu	s0,63(sp)
   131dc:	4489                	li	s1,2
   131de:	00940663          	beq	s0,s1,131ea <_ZN20complex_dynamic_type3app17h3882064ffd5f7a01E+0x13c>
   131e2:	000109b7          	lui	s3,0x10
   131e6:	40998993          	addi	s3,s3,1033 # 10409 <.Lanon.49c9f8067fe4468184af16d7576940c9.14>
   131ea:	00190513          	addi	a0,s2,1
   131ee:	02c00613          	li	a2,44
   131f2:	85ce                	mv	a1,s3
   131f4:	0000d097          	auipc	ra,0xd
   131f8:	a28080e7          	jalr	-1496(ra) # 1fc1c <memcpy>
   131fc:	00090023          	sb	zero,0(s2)
   13200:	00940b63          	beq	s0,s1,13216 <_ZN20complex_dynamic_type3app17h3882064ffd5f7a01E+0x168>
   13204:	6509                	lui	a0,0x2
   13206:	eac50513          	addi	a0,a0,-340 # 1eac <.Lline_table_start1+0x1c81>
   1320a:	459d                	li	a1,7
   1320c:	8622                	mv	a2,s0
   1320e:	0000d097          	auipc	ra,0xd
   13212:	996080e7          	jalr	-1642(ra) # 1fba4 <_ZN9allow_pin12dynamic_type7unshare17h0269127f30dbe29bE>
   13216:	00214603          	lbu	a2,2(sp)
   1321a:	4509                	li	a0,2
   1321c:	00a60a63          	beq	a2,a0,13230 <_ZN20complex_dynamic_type3app17h3882064ffd5f7a01E+0x182>
   13220:	6509                	lui	a0,0x2
   13222:	eac50513          	addi	a0,a0,-340 # 1eac <.Lline_table_start1+0x1c81>
   13226:	4595                	li	a1,5
   13228:	0000d097          	auipc	ra,0xd
   1322c:	97c080e7          	jalr	-1668(ra) # 1fba4 <_ZN9allow_pin12dynamic_type7unshare17h0269127f30dbe29bE>
   13230:	50f6                	lw	ra,124(sp)
   13232:	5466                	lw	s0,120(sp)
   13234:	54d6                	lw	s1,116(sp)
   13236:	5946                	lw	s2,112(sp)
   13238:	59b6                	lw	s3,108(sp)
   1323a:	6109                	addi	sp,sp,128
   1323c:	8082                	ret

0001323e <_ZN20complex_dynamic_type3app17h3c011bb6a0fefca6E>:
   1323e:	711d                	addi	sp,sp,-96
   13240:	ce86                	sw	ra,92(sp)
   13242:	cca2                	sw	s0,88(sp)
   13244:	caa6                	sw	s1,84(sp)
   13246:	c8ca                	sw	s2,80(sp)
   13248:	c6ce                	sw	s3,76(sp)
   1324a:	892a                	mv	s2,a0
   1324c:	4489                	li	s1,2
   1324e:	009105a3          	sb	s1,11(sp)
   13252:	0060                	addi	s0,sp,12
   13254:	4651                	li	a2,20
   13256:	8522                	mv	a0,s0
   13258:	0000d097          	auipc	ra,0xd
   1325c:	9c4080e7          	jalr	-1596(ra) # 1fc1c <memcpy>
   13260:	02110993          	addi	s3,sp,33
   13264:	02b00613          	li	a2,43
   13268:	854e                	mv	a0,s3
   1326a:	4581                	li	a1,0
   1326c:	0000d097          	auipc	ra,0xd
   13270:	944080e7          	jalr	-1724(ra) # 1fbb0 <memset>
   13274:	8622                	mv	a2,s0
   13276:	02910023          	sb	s1,32(sp)
   1327a:	6509                	lui	a0,0x2
   1327c:	4791                	li	a5,4
   1327e:	45a1                	li	a1,8
   13280:	39f50513          	addi	a0,a0,927 # 239f <.Lline_table_start1+0x2174>
   13284:	46d1                	li	a3,20
   13286:	4711                	li	a4,4
   13288:	00000073          	ecall
   1328c:	00950463          	beq	a0,s1,13294 <_ZN20complex_dynamic_type3app17h3c011bb6a0fefca6E+0x56>
   13290:	00f105a3          	sb	a5,11(sp)
   13294:	4609                	li	a2,2
   13296:	00c51463          	bne	a0,a2,1329e <_ZN20complex_dynamic_type3app17h3c011bb6a0fefca6E+0x60>
   1329a:	4785                	li	a5,1
   1329c:	a859                	j	13332 <_ZN20complex_dynamic_type3app17h3c011bb6a0fefca6E+0xf4>
   1329e:	02014503          	lbu	a0,32(sp)
   132a2:	4785                	li	a5,1
   132a4:	02c51363          	bne	a0,a2,132ca <_ZN20complex_dynamic_type3app17h3c011bb6a0fefca6E+0x8c>
   132a8:	864e                	mv	a2,s3
   132aa:	6509                	lui	a0,0x2
   132ac:	4591                	li	a1,4
   132ae:	02b00693          	li	a3,43
   132b2:	470d                	li	a4,3
   132b4:	39f50513          	addi	a0,a0,927 # 239f <.Lline_table_start1+0x2174>
   132b8:	4489                	li	s1,2
   132ba:	00000073          	ecall
   132be:	460d                	li	a2,3
   132c0:	00951963          	bne	a0,s1,132d2 <_ZN20complex_dynamic_type3app17h3c011bb6a0fefca6E+0x94>
   132c4:	4505                	li	a0,1
   132c6:	c911                	beqz	a0,132da <_ZN20complex_dynamic_type3app17h3c011bb6a0fefca6E+0x9c>
   132c8:	a0ad                	j	13332 <_ZN20complex_dynamic_type3app17h3c011bb6a0fefca6E+0xf4>
   132ca:	458d                	li	a1,3
   132cc:	4505                	li	a0,1
   132ce:	c511                	beqz	a0,132da <_ZN20complex_dynamic_type3app17h3c011bb6a0fefca6E+0x9c>
   132d0:	a08d                	j	13332 <_ZN20complex_dynamic_type3app17h3c011bb6a0fefca6E+0xf4>
   132d2:	4501                	li	a0,0
   132d4:	02c10023          	sb	a2,32(sp)
   132d8:	ed29                	bnez	a0,13332 <_ZN20complex_dynamic_type3app17h3c011bb6a0fefca6E+0xf4>
   132da:	4681                	li	a3,0
   132dc:	6509                	lui	a0,0x2
   132de:	45a1                	li	a1,8
   132e0:	4611                	li	a2,4
   132e2:	4709                	li	a4,2
   132e4:	39f50513          	addi	a0,a0,927 # 239f <.Lline_table_start1+0x2174>
   132e8:	07f00493          	li	s1,127
   132ec:	00000073          	ecall
   132f0:	4689                	li	a3,2
   132f2:	04a4f063          	bgeu	s1,a0,13332 <_ZN20complex_dynamic_type3app17h3c011bb6a0fefca6E+0xf4>
   132f6:	00b14603          	lbu	a2,11(sp)
   132fa:	00d60a63          	beq	a2,a3,1330e <_ZN20complex_dynamic_type3app17h3c011bb6a0fefca6E+0xd0>
   132fe:	6509                	lui	a0,0x2
   13300:	39f50513          	addi	a0,a0,927 # 239f <.Lline_table_start1+0x2174>
   13304:	45a1                	li	a1,8
   13306:	0000d097          	auipc	ra,0xd
   1330a:	89e080e7          	jalr	-1890(ra) # 1fba4 <_ZN9allow_pin12dynamic_type7unshare17h0269127f30dbe29bE>
   1330e:	02014603          	lbu	a2,32(sp)
   13312:	4409                	li	s0,2
   13314:	008105a3          	sb	s0,11(sp)
   13318:	00860a63          	beq	a2,s0,1332c <_ZN20complex_dynamic_type3app17h3c011bb6a0fefca6E+0xee>
   1331c:	6509                	lui	a0,0x2
   1331e:	39f50513          	addi	a0,a0,927 # 239f <.Lline_table_start1+0x2174>
   13322:	4591                	li	a1,4
   13324:	0000d097          	auipc	ra,0xd
   13328:	880080e7          	jalr	-1920(ra) # 1fba4 <_ZN9allow_pin12dynamic_type7unshare17h0269127f30dbe29bE>
   1332c:	4781                	li	a5,0
   1332e:	02810023          	sb	s0,32(sp)
   13332:	cb85                	beqz	a5,13362 <_ZN20complex_dynamic_type3app17h3c011bb6a0fefca6E+0x124>
   13334:	02014603          	lbu	a2,32(sp)
   13338:	4505                	li	a0,1
   1333a:	4409                	li	s0,2
   1333c:	00a90023          	sb	a0,0(s2)
   13340:	00b92223          	sw	a1,4(s2)
   13344:	00860a63          	beq	a2,s0,13358 <_ZN20complex_dynamic_type3app17h3c011bb6a0fefca6E+0x11a>
   13348:	6509                	lui	a0,0x2
   1334a:	39f50513          	addi	a0,a0,927 # 239f <.Lline_table_start1+0x2174>
   1334e:	4591                	li	a1,4
   13350:	0000d097          	auipc	ra,0xd
   13354:	854080e7          	jalr	-1964(ra) # 1fba4 <_ZN9allow_pin12dynamic_type7unshare17h0269127f30dbe29bE>
   13358:	00b14603          	lbu	a2,11(sp)
   1335c:	04861763          	bne	a2,s0,133aa <_ZN20complex_dynamic_type3app17h3c011bb6a0fefca6E+0x16c>
   13360:	a8a9                	j	133ba <_ZN20complex_dynamic_type3app17h3c011bb6a0fefca6E+0x17c>
   13362:	02014403          	lbu	s0,32(sp)
   13366:	4489                	li	s1,2
   13368:	00940663          	beq	s0,s1,13374 <_ZN20complex_dynamic_type3app17h3c011bb6a0fefca6E+0x136>
   1336c:	000119b7          	lui	s3,0x11
   13370:	b9e98993          	addi	s3,s3,-1122 # 10b9e <.Lanon.49c9f8067fe4468184af16d7576940c9.52>
   13374:	00190513          	addi	a0,s2,1
   13378:	02b00613          	li	a2,43
   1337c:	85ce                	mv	a1,s3
   1337e:	0000d097          	auipc	ra,0xd
   13382:	89e080e7          	jalr	-1890(ra) # 1fc1c <memcpy>
   13386:	00090023          	sb	zero,0(s2)
   1338a:	00940b63          	beq	s0,s1,133a0 <_ZN20complex_dynamic_type3app17h3c011bb6a0fefca6E+0x162>
   1338e:	6509                	lui	a0,0x2
   13390:	39f50513          	addi	a0,a0,927 # 239f <.Lline_table_start1+0x2174>
   13394:	4591                	li	a1,4
   13396:	8622                	mv	a2,s0
   13398:	0000d097          	auipc	ra,0xd
   1339c:	80c080e7          	jalr	-2036(ra) # 1fba4 <_ZN9allow_pin12dynamic_type7unshare17h0269127f30dbe29bE>
   133a0:	00b14603          	lbu	a2,11(sp)
   133a4:	4509                	li	a0,2
   133a6:	00a60a63          	beq	a2,a0,133ba <_ZN20complex_dynamic_type3app17h3c011bb6a0fefca6E+0x17c>
   133aa:	6509                	lui	a0,0x2
   133ac:	39f50513          	addi	a0,a0,927 # 239f <.Lline_table_start1+0x2174>
   133b0:	45a1                	li	a1,8
   133b2:	0000c097          	auipc	ra,0xc
   133b6:	7f2080e7          	jalr	2034(ra) # 1fba4 <_ZN9allow_pin12dynamic_type7unshare17h0269127f30dbe29bE>
   133ba:	40f6                	lw	ra,92(sp)
   133bc:	4466                	lw	s0,88(sp)
   133be:	44d6                	lw	s1,84(sp)
   133c0:	4946                	lw	s2,80(sp)
   133c2:	49b6                	lw	s3,76(sp)
   133c4:	6125                	addi	sp,sp,96
   133c6:	8082                	ret

000133c8 <_ZN20complex_dynamic_type3app17h412c4def733f867dE>:
   133c8:	7119                	addi	sp,sp,-128
   133ca:	de86                	sw	ra,124(sp)
   133cc:	dca2                	sw	s0,120(sp)
   133ce:	daa6                	sw	s1,116(sp)
   133d0:	d8ca                	sw	s2,112(sp)
   133d2:	d6ce                	sw	s3,108(sp)
   133d4:	892a                	mv	s2,a0
   133d6:	4489                	li	s1,2
   133d8:	009107a3          	sb	s1,15(sp)
   133dc:	0800                	addi	s0,sp,16
   133de:	03f00613          	li	a2,63
   133e2:	8522                	mv	a0,s0
   133e4:	0000d097          	auipc	ra,0xd
   133e8:	838080e7          	jalr	-1992(ra) # 1fc1c <memcpy>
   133ec:	05010993          	addi	s3,sp,80
   133f0:	4671                	li	a2,28
   133f2:	854e                	mv	a0,s3
   133f4:	4581                	li	a1,0
   133f6:	0000c097          	auipc	ra,0xc
   133fa:	7ba080e7          	jalr	1978(ra) # 1fbb0 <memset>
   133fe:	8622                	mv	a2,s0
   13400:	049107a3          	sb	s1,79(sp)
   13404:	6505                	lui	a0,0x1
   13406:	4791                	li	a5,4
   13408:	4595                	li	a1,5
   1340a:	69450513          	addi	a0,a0,1684 # 1694 <.Lline_table_start1+0x1469>
   1340e:	03f00693          	li	a3,63
   13412:	4711                	li	a4,4
   13414:	00000073          	ecall
   13418:	00950463          	beq	a0,s1,13420 <_ZN20complex_dynamic_type3app17h412c4def733f867dE+0x58>
   1341c:	00f107a3          	sb	a5,15(sp)
   13420:	4609                	li	a2,2
   13422:	00c51463          	bne	a0,a2,1342a <_ZN20complex_dynamic_type3app17h412c4def733f867dE+0x62>
   13426:	4785                	li	a5,1
   13428:	a851                	j	134bc <_ZN20complex_dynamic_type3app17h412c4def733f867dE+0xf4>
   1342a:	04f14503          	lbu	a0,79(sp)
   1342e:	4785                	li	a5,1
   13430:	02c51263          	bne	a0,a2,13454 <_ZN20complex_dynamic_type3app17h412c4def733f867dE+0x8c>
   13434:	864e                	mv	a2,s3
   13436:	6505                	lui	a0,0x1
   13438:	45a5                	li	a1,9
   1343a:	46f1                	li	a3,28
   1343c:	470d                	li	a4,3
   1343e:	69450513          	addi	a0,a0,1684 # 1694 <.Lline_table_start1+0x1469>
   13442:	4489                	li	s1,2
   13444:	00000073          	ecall
   13448:	460d                	li	a2,3
   1344a:	00951963          	bne	a0,s1,1345c <_ZN20complex_dynamic_type3app17h412c4def733f867dE+0x94>
   1344e:	4505                	li	a0,1
   13450:	c911                	beqz	a0,13464 <_ZN20complex_dynamic_type3app17h412c4def733f867dE+0x9c>
   13452:	a0ad                	j	134bc <_ZN20complex_dynamic_type3app17h412c4def733f867dE+0xf4>
   13454:	458d                	li	a1,3
   13456:	4505                	li	a0,1
   13458:	c511                	beqz	a0,13464 <_ZN20complex_dynamic_type3app17h412c4def733f867dE+0x9c>
   1345a:	a08d                	j	134bc <_ZN20complex_dynamic_type3app17h412c4def733f867dE+0xf4>
   1345c:	4501                	li	a0,0
   1345e:	04c107a3          	sb	a2,79(sp)
   13462:	ed29                	bnez	a0,134bc <_ZN20complex_dynamic_type3app17h412c4def733f867dE+0xf4>
   13464:	4681                	li	a3,0
   13466:	6505                	lui	a0,0x1
   13468:	4595                	li	a1,5
   1346a:	4625                	li	a2,9
   1346c:	4709                	li	a4,2
   1346e:	69450513          	addi	a0,a0,1684 # 1694 <.Lline_table_start1+0x1469>
   13472:	07f00493          	li	s1,127
   13476:	00000073          	ecall
   1347a:	4689                	li	a3,2
   1347c:	04a4f063          	bgeu	s1,a0,134bc <_ZN20complex_dynamic_type3app17h412c4def733f867dE+0xf4>
   13480:	00f14603          	lbu	a2,15(sp)
   13484:	00d60a63          	beq	a2,a3,13498 <_ZN20complex_dynamic_type3app17h412c4def733f867dE+0xd0>
   13488:	6505                	lui	a0,0x1
   1348a:	69450513          	addi	a0,a0,1684 # 1694 <.Lline_table_start1+0x1469>
   1348e:	4595                	li	a1,5
   13490:	0000c097          	auipc	ra,0xc
   13494:	714080e7          	jalr	1812(ra) # 1fba4 <_ZN9allow_pin12dynamic_type7unshare17h0269127f30dbe29bE>
   13498:	04f14603          	lbu	a2,79(sp)
   1349c:	4409                	li	s0,2
   1349e:	008107a3          	sb	s0,15(sp)
   134a2:	00860a63          	beq	a2,s0,134b6 <_ZN20complex_dynamic_type3app17h412c4def733f867dE+0xee>
   134a6:	6505                	lui	a0,0x1
   134a8:	69450513          	addi	a0,a0,1684 # 1694 <.Lline_table_start1+0x1469>
   134ac:	45a5                	li	a1,9
   134ae:	0000c097          	auipc	ra,0xc
   134b2:	6f6080e7          	jalr	1782(ra) # 1fba4 <_ZN9allow_pin12dynamic_type7unshare17h0269127f30dbe29bE>
   134b6:	4781                	li	a5,0
   134b8:	048107a3          	sb	s0,79(sp)
   134bc:	cb85                	beqz	a5,134ec <_ZN20complex_dynamic_type3app17h412c4def733f867dE+0x124>
   134be:	04f14603          	lbu	a2,79(sp)
   134c2:	4505                	li	a0,1
   134c4:	4409                	li	s0,2
   134c6:	00a90023          	sb	a0,0(s2)
   134ca:	00b92223          	sw	a1,4(s2)
   134ce:	00860a63          	beq	a2,s0,134e2 <_ZN20complex_dynamic_type3app17h412c4def733f867dE+0x11a>
   134d2:	6505                	lui	a0,0x1
   134d4:	69450513          	addi	a0,a0,1684 # 1694 <.Lline_table_start1+0x1469>
   134d8:	45a5                	li	a1,9
   134da:	0000c097          	auipc	ra,0xc
   134de:	6ca080e7          	jalr	1738(ra) # 1fba4 <_ZN9allow_pin12dynamic_type7unshare17h0269127f30dbe29bE>
   134e2:	00f14603          	lbu	a2,15(sp)
   134e6:	04861663          	bne	a2,s0,13532 <_ZN20complex_dynamic_type3app17h412c4def733f867dE+0x16a>
   134ea:	a8a1                	j	13542 <_ZN20complex_dynamic_type3app17h412c4def733f867dE+0x17a>
   134ec:	04f14403          	lbu	s0,79(sp)
   134f0:	4489                	li	s1,2
   134f2:	00940663          	beq	s0,s1,134fe <_ZN20complex_dynamic_type3app17h412c4def733f867dE+0x136>
   134f6:	000109b7          	lui	s3,0x10
   134fa:	47998993          	addi	s3,s3,1145 # 10479 <.Lanon.49c9f8067fe4468184af16d7576940c9.16>
   134fe:	00190513          	addi	a0,s2,1
   13502:	4671                	li	a2,28
   13504:	85ce                	mv	a1,s3
   13506:	0000c097          	auipc	ra,0xc
   1350a:	716080e7          	jalr	1814(ra) # 1fc1c <memcpy>
   1350e:	00090023          	sb	zero,0(s2)
   13512:	00940b63          	beq	s0,s1,13528 <_ZN20complex_dynamic_type3app17h412c4def733f867dE+0x160>
   13516:	6505                	lui	a0,0x1
   13518:	69450513          	addi	a0,a0,1684 # 1694 <.Lline_table_start1+0x1469>
   1351c:	45a5                	li	a1,9
   1351e:	8622                	mv	a2,s0
   13520:	0000c097          	auipc	ra,0xc
   13524:	684080e7          	jalr	1668(ra) # 1fba4 <_ZN9allow_pin12dynamic_type7unshare17h0269127f30dbe29bE>
   13528:	00f14603          	lbu	a2,15(sp)
   1352c:	4509                	li	a0,2
   1352e:	00a60a63          	beq	a2,a0,13542 <_ZN20complex_dynamic_type3app17h412c4def733f867dE+0x17a>
   13532:	6505                	lui	a0,0x1
   13534:	69450513          	addi	a0,a0,1684 # 1694 <.Lline_table_start1+0x1469>
   13538:	4595                	li	a1,5
   1353a:	0000c097          	auipc	ra,0xc
   1353e:	66a080e7          	jalr	1642(ra) # 1fba4 <_ZN9allow_pin12dynamic_type7unshare17h0269127f30dbe29bE>
   13542:	50f6                	lw	ra,124(sp)
   13544:	5466                	lw	s0,120(sp)
   13546:	54d6                	lw	s1,116(sp)
   13548:	5946                	lw	s2,112(sp)
   1354a:	59b6                	lw	s3,108(sp)
   1354c:	6109                	addi	sp,sp,128
   1354e:	8082                	ret

00013550 <_ZN20complex_dynamic_type3app17h417cb03cf89d2c4bE>:
   13550:	7119                	addi	sp,sp,-128
   13552:	de86                	sw	ra,124(sp)
   13554:	dca2                	sw	s0,120(sp)
   13556:	daa6                	sw	s1,116(sp)
   13558:	d8ca                	sw	s2,112(sp)
   1355a:	d6ce                	sw	s3,108(sp)
   1355c:	892a                	mv	s2,a0
   1355e:	4489                	li	s1,2
   13560:	00910223          	sb	s1,4(sp)
   13564:	00510413          	addi	s0,sp,5
   13568:	05500613          	li	a2,85
   1356c:	8522                	mv	a0,s0
   1356e:	0000c097          	auipc	ra,0xc
   13572:	6ae080e7          	jalr	1710(ra) # 1fc1c <memcpy>
   13576:	05b10993          	addi	s3,sp,91
   1357a:	4645                	li	a2,17
   1357c:	854e                	mv	a0,s3
   1357e:	4581                	li	a1,0
   13580:	0000c097          	auipc	ra,0xc
   13584:	630080e7          	jalr	1584(ra) # 1fbb0 <memset>
   13588:	8622                	mv	a2,s0
   1358a:	04910d23          	sb	s1,90(sp)
   1358e:	6505                	lui	a0,0x1
   13590:	4791                	li	a5,4
   13592:	4589                	li	a1,2
   13594:	c8950513          	addi	a0,a0,-887 # c89 <.Lline_table_start1+0xa5e>
   13598:	05500693          	li	a3,85
   1359c:	4711                	li	a4,4
   1359e:	00000073          	ecall
   135a2:	00950463          	beq	a0,s1,135aa <_ZN20complex_dynamic_type3app17h417cb03cf89d2c4bE+0x5a>
   135a6:	00f10223          	sb	a5,4(sp)
   135aa:	4609                	li	a2,2
   135ac:	00c51463          	bne	a0,a2,135b4 <_ZN20complex_dynamic_type3app17h417cb03cf89d2c4bE+0x64>
   135b0:	4785                	li	a5,1
   135b2:	a851                	j	13646 <_ZN20complex_dynamic_type3app17h417cb03cf89d2c4bE+0xf6>
   135b4:	05a14503          	lbu	a0,90(sp)
   135b8:	4785                	li	a5,1
   135ba:	02c51263          	bne	a0,a2,135de <_ZN20complex_dynamic_type3app17h417cb03cf89d2c4bE+0x8e>
   135be:	864e                	mv	a2,s3
   135c0:	6505                	lui	a0,0x1
   135c2:	4409                	li	s0,2
   135c4:	448d                	li	s1,3
   135c6:	4589                	li	a1,2
   135c8:	c8950513          	addi	a0,a0,-887 # c89 <.Lline_table_start1+0xa5e>
   135cc:	46c5                	li	a3,17
   135ce:	470d                	li	a4,3
   135d0:	00000073          	ecall
   135d4:	00851963          	bne	a0,s0,135e6 <_ZN20complex_dynamic_type3app17h417cb03cf89d2c4bE+0x96>
   135d8:	4505                	li	a0,1
   135da:	c911                	beqz	a0,135ee <_ZN20complex_dynamic_type3app17h417cb03cf89d2c4bE+0x9e>
   135dc:	a0ad                	j	13646 <_ZN20complex_dynamic_type3app17h417cb03cf89d2c4bE+0xf6>
   135de:	458d                	li	a1,3
   135e0:	4505                	li	a0,1
   135e2:	c511                	beqz	a0,135ee <_ZN20complex_dynamic_type3app17h417cb03cf89d2c4bE+0x9e>
   135e4:	a08d                	j	13646 <_ZN20complex_dynamic_type3app17h417cb03cf89d2c4bE+0xf6>
   135e6:	4501                	li	a0,0
   135e8:	04910d23          	sb	s1,90(sp)
   135ec:	ed29                	bnez	a0,13646 <_ZN20complex_dynamic_type3app17h417cb03cf89d2c4bE+0xf6>
   135ee:	4681                	li	a3,0
   135f0:	6505                	lui	a0,0x1
   135f2:	4589                	li	a1,2
   135f4:	4609                	li	a2,2
   135f6:	4709                	li	a4,2
   135f8:	c8950513          	addi	a0,a0,-887 # c89 <.Lline_table_start1+0xa5e>
   135fc:	07f00493          	li	s1,127
   13600:	00000073          	ecall
   13604:	4689                	li	a3,2
   13606:	04a4f063          	bgeu	s1,a0,13646 <_ZN20complex_dynamic_type3app17h417cb03cf89d2c4bE+0xf6>
   1360a:	00414603          	lbu	a2,4(sp)
   1360e:	00d60a63          	beq	a2,a3,13622 <_ZN20complex_dynamic_type3app17h417cb03cf89d2c4bE+0xd2>
   13612:	6505                	lui	a0,0x1
   13614:	c8950513          	addi	a0,a0,-887 # c89 <.Lline_table_start1+0xa5e>
   13618:	4589                	li	a1,2
   1361a:	0000c097          	auipc	ra,0xc
   1361e:	58a080e7          	jalr	1418(ra) # 1fba4 <_ZN9allow_pin12dynamic_type7unshare17h0269127f30dbe29bE>
   13622:	05a14603          	lbu	a2,90(sp)
   13626:	4409                	li	s0,2
   13628:	00810223          	sb	s0,4(sp)
   1362c:	00860a63          	beq	a2,s0,13640 <_ZN20complex_dynamic_type3app17h417cb03cf89d2c4bE+0xf0>
   13630:	6505                	lui	a0,0x1
   13632:	c8950513          	addi	a0,a0,-887 # c89 <.Lline_table_start1+0xa5e>
   13636:	4589                	li	a1,2
   13638:	0000c097          	auipc	ra,0xc
   1363c:	56c080e7          	jalr	1388(ra) # 1fba4 <_ZN9allow_pin12dynamic_type7unshare17h0269127f30dbe29bE>
   13640:	4781                	li	a5,0
   13642:	04810d23          	sb	s0,90(sp)
   13646:	cb85                	beqz	a5,13676 <_ZN20complex_dynamic_type3app17h417cb03cf89d2c4bE+0x126>
   13648:	05a14603          	lbu	a2,90(sp)
   1364c:	4505                	li	a0,1
   1364e:	4409                	li	s0,2
   13650:	00a90023          	sb	a0,0(s2)
   13654:	00b92223          	sw	a1,4(s2)
   13658:	00860a63          	beq	a2,s0,1366c <_ZN20complex_dynamic_type3app17h417cb03cf89d2c4bE+0x11c>
   1365c:	6505                	lui	a0,0x1
   1365e:	c8950513          	addi	a0,a0,-887 # c89 <.Lline_table_start1+0xa5e>
   13662:	4589                	li	a1,2
   13664:	0000c097          	auipc	ra,0xc
   13668:	540080e7          	jalr	1344(ra) # 1fba4 <_ZN9allow_pin12dynamic_type7unshare17h0269127f30dbe29bE>
   1366c:	00414603          	lbu	a2,4(sp)
   13670:	04861663          	bne	a2,s0,136bc <_ZN20complex_dynamic_type3app17h417cb03cf89d2c4bE+0x16c>
   13674:	a8a1                	j	136cc <_ZN20complex_dynamic_type3app17h417cb03cf89d2c4bE+0x17c>
   13676:	05a14403          	lbu	s0,90(sp)
   1367a:	4489                	li	s1,2
   1367c:	00940663          	beq	s0,s1,13688 <_ZN20complex_dynamic_type3app17h417cb03cf89d2c4bE+0x138>
   13680:	000109b7          	lui	s3,0x10
   13684:	49598993          	addi	s3,s3,1173 # 10495 <.Lanon.49c9f8067fe4468184af16d7576940c9.17>
   13688:	00190513          	addi	a0,s2,1
   1368c:	4645                	li	a2,17
   1368e:	85ce                	mv	a1,s3
   13690:	0000c097          	auipc	ra,0xc
   13694:	58c080e7          	jalr	1420(ra) # 1fc1c <memcpy>
   13698:	00090023          	sb	zero,0(s2)
   1369c:	00940b63          	beq	s0,s1,136b2 <_ZN20complex_dynamic_type3app17h417cb03cf89d2c4bE+0x162>
   136a0:	6505                	lui	a0,0x1
   136a2:	c8950513          	addi	a0,a0,-887 # c89 <.Lline_table_start1+0xa5e>
   136a6:	4589                	li	a1,2
   136a8:	8622                	mv	a2,s0
   136aa:	0000c097          	auipc	ra,0xc
   136ae:	4fa080e7          	jalr	1274(ra) # 1fba4 <_ZN9allow_pin12dynamic_type7unshare17h0269127f30dbe29bE>
   136b2:	00414603          	lbu	a2,4(sp)
   136b6:	4509                	li	a0,2
   136b8:	00a60a63          	beq	a2,a0,136cc <_ZN20complex_dynamic_type3app17h417cb03cf89d2c4bE+0x17c>
   136bc:	6505                	lui	a0,0x1
   136be:	c8950513          	addi	a0,a0,-887 # c89 <.Lline_table_start1+0xa5e>
   136c2:	4589                	li	a1,2
   136c4:	0000c097          	auipc	ra,0xc
   136c8:	4e0080e7          	jalr	1248(ra) # 1fba4 <_ZN9allow_pin12dynamic_type7unshare17h0269127f30dbe29bE>
   136cc:	50f6                	lw	ra,124(sp)
   136ce:	5466                	lw	s0,120(sp)
   136d0:	54d6                	lw	s1,116(sp)
   136d2:	5946                	lw	s2,112(sp)
   136d4:	59b6                	lw	s3,108(sp)
   136d6:	6109                	addi	sp,sp,128
   136d8:	8082                	ret

000136da <_ZN20complex_dynamic_type3app17h45c54ec4166a907aE>:
   136da:	711d                	addi	sp,sp,-96
   136dc:	ce86                	sw	ra,92(sp)
   136de:	cca2                	sw	s0,88(sp)
   136e0:	caa6                	sw	s1,84(sp)
   136e2:	c8ca                	sw	s2,80(sp)
   136e4:	c6ce                	sw	s3,76(sp)
   136e6:	892a                	mv	s2,a0
   136e8:	4489                	li	s1,2
   136ea:	009100a3          	sb	s1,1(sp)
   136ee:	00210413          	addi	s0,sp,2
   136f2:	02b00613          	li	a2,43
   136f6:	8522                	mv	a0,s0
   136f8:	0000c097          	auipc	ra,0xc
   136fc:	524080e7          	jalr	1316(ra) # 1fc1c <memcpy>
   13700:	02e10993          	addi	s3,sp,46
   13704:	4679                	li	a2,30
   13706:	854e                	mv	a0,s3
   13708:	4581                	li	a1,0
   1370a:	0000c097          	auipc	ra,0xc
   1370e:	4a6080e7          	jalr	1190(ra) # 1fbb0 <memset>
   13712:	8622                	mv	a2,s0
   13714:	029106a3          	sb	s1,45(sp)
   13718:	4791                	li	a5,4
   1371a:	7e300513          	li	a0,2019
   1371e:	459d                	li	a1,7
   13720:	02b00693          	li	a3,43
   13724:	4711                	li	a4,4
   13726:	00000073          	ecall
   1372a:	00950463          	beq	a0,s1,13732 <_ZN20complex_dynamic_type3app17h45c54ec4166a907aE+0x58>
   1372e:	00f100a3          	sb	a5,1(sp)
   13732:	4609                	li	a2,2
   13734:	00c51463          	bne	a0,a2,1373c <_ZN20complex_dynamic_type3app17h45c54ec4166a907aE+0x62>
   13738:	4785                	li	a5,1
   1373a:	a071                	j	137c6 <_ZN20complex_dynamic_type3app17h45c54ec4166a907aE+0xec>
   1373c:	02d14503          	lbu	a0,45(sp)
   13740:	4785                	li	a5,1
   13742:	02c51163          	bne	a0,a2,13764 <_ZN20complex_dynamic_type3app17h45c54ec4166a907aE+0x8a>
   13746:	864e                	mv	a2,s3
   13748:	7e300513          	li	a0,2019
   1374c:	45a1                	li	a1,8
   1374e:	46f9                	li	a3,30
   13750:	470d                	li	a4,3
   13752:	4489                	li	s1,2
   13754:	00000073          	ecall
   13758:	460d                	li	a2,3
   1375a:	00951963          	bne	a0,s1,1376c <_ZN20complex_dynamic_type3app17h45c54ec4166a907aE+0x92>
   1375e:	4505                	li	a0,1
   13760:	c911                	beqz	a0,13774 <_ZN20complex_dynamic_type3app17h45c54ec4166a907aE+0x9a>
   13762:	a095                	j	137c6 <_ZN20complex_dynamic_type3app17h45c54ec4166a907aE+0xec>
   13764:	458d                	li	a1,3
   13766:	4505                	li	a0,1
   13768:	c511                	beqz	a0,13774 <_ZN20complex_dynamic_type3app17h45c54ec4166a907aE+0x9a>
   1376a:	a8b1                	j	137c6 <_ZN20complex_dynamic_type3app17h45c54ec4166a907aE+0xec>
   1376c:	4501                	li	a0,0
   1376e:	02c106a3          	sb	a2,45(sp)
   13772:	e931                	bnez	a0,137c6 <_ZN20complex_dynamic_type3app17h45c54ec4166a907aE+0xec>
   13774:	4681                	li	a3,0
   13776:	7e300513          	li	a0,2019
   1377a:	459d                	li	a1,7
   1377c:	4621                	li	a2,8
   1377e:	4709                	li	a4,2
   13780:	07f00493          	li	s1,127
   13784:	00000073          	ecall
   13788:	4689                	li	a3,2
   1378a:	02a4fe63          	bgeu	s1,a0,137c6 <_ZN20complex_dynamic_type3app17h45c54ec4166a907aE+0xec>
   1378e:	00114603          	lbu	a2,1(sp)
   13792:	00d60963          	beq	a2,a3,137a4 <_ZN20complex_dynamic_type3app17h45c54ec4166a907aE+0xca>
   13796:	7e300513          	li	a0,2019
   1379a:	459d                	li	a1,7
   1379c:	0000c097          	auipc	ra,0xc
   137a0:	408080e7          	jalr	1032(ra) # 1fba4 <_ZN9allow_pin12dynamic_type7unshare17h0269127f30dbe29bE>
   137a4:	02d14603          	lbu	a2,45(sp)
   137a8:	4409                	li	s0,2
   137aa:	008100a3          	sb	s0,1(sp)
   137ae:	00860963          	beq	a2,s0,137c0 <_ZN20complex_dynamic_type3app17h45c54ec4166a907aE+0xe6>
   137b2:	7e300513          	li	a0,2019
   137b6:	45a1                	li	a1,8
   137b8:	0000c097          	auipc	ra,0xc
   137bc:	3ec080e7          	jalr	1004(ra) # 1fba4 <_ZN9allow_pin12dynamic_type7unshare17h0269127f30dbe29bE>
   137c0:	4781                	li	a5,0
   137c2:	028106a3          	sb	s0,45(sp)
   137c6:	c79d                	beqz	a5,137f4 <_ZN20complex_dynamic_type3app17h45c54ec4166a907aE+0x11a>
   137c8:	02d14603          	lbu	a2,45(sp)
   137cc:	4505                	li	a0,1
   137ce:	4409                	li	s0,2
   137d0:	00a90023          	sb	a0,0(s2)
   137d4:	00b92223          	sw	a1,4(s2)
   137d8:	00860963          	beq	a2,s0,137ea <_ZN20complex_dynamic_type3app17h45c54ec4166a907aE+0x110>
   137dc:	7e300513          	li	a0,2019
   137e0:	45a1                	li	a1,8
   137e2:	0000c097          	auipc	ra,0xc
   137e6:	3c2080e7          	jalr	962(ra) # 1fba4 <_ZN9allow_pin12dynamic_type7unshare17h0269127f30dbe29bE>
   137ea:	00114603          	lbu	a2,1(sp)
   137ee:	04861563          	bne	a2,s0,13838 <_ZN20complex_dynamic_type3app17h45c54ec4166a907aE+0x15e>
   137f2:	a891                	j	13846 <_ZN20complex_dynamic_type3app17h45c54ec4166a907aE+0x16c>
   137f4:	02d14403          	lbu	s0,45(sp)
   137f8:	4489                	li	s1,2
   137fa:	00940663          	beq	s0,s1,13806 <_ZN20complex_dynamic_type3app17h45c54ec4166a907aE+0x12c>
   137fe:	000109b7          	lui	s3,0x10
   13802:	5bd98993          	addi	s3,s3,1469 # 105bd <.Lanon.49c9f8067fe4468184af16d7576940c9.24>
   13806:	00190513          	addi	a0,s2,1
   1380a:	4679                	li	a2,30
   1380c:	85ce                	mv	a1,s3
   1380e:	0000c097          	auipc	ra,0xc
   13812:	40e080e7          	jalr	1038(ra) # 1fc1c <memcpy>
   13816:	00090023          	sb	zero,0(s2)
   1381a:	00940a63          	beq	s0,s1,1382e <_ZN20complex_dynamic_type3app17h45c54ec4166a907aE+0x154>
   1381e:	7e300513          	li	a0,2019
   13822:	45a1                	li	a1,8
   13824:	8622                	mv	a2,s0
   13826:	0000c097          	auipc	ra,0xc
   1382a:	37e080e7          	jalr	894(ra) # 1fba4 <_ZN9allow_pin12dynamic_type7unshare17h0269127f30dbe29bE>
   1382e:	00114603          	lbu	a2,1(sp)
   13832:	4509                	li	a0,2
   13834:	00a60963          	beq	a2,a0,13846 <_ZN20complex_dynamic_type3app17h45c54ec4166a907aE+0x16c>
   13838:	7e300513          	li	a0,2019
   1383c:	459d                	li	a1,7
   1383e:	0000c097          	auipc	ra,0xc
   13842:	366080e7          	jalr	870(ra) # 1fba4 <_ZN9allow_pin12dynamic_type7unshare17h0269127f30dbe29bE>
   13846:	40f6                	lw	ra,92(sp)
   13848:	4466                	lw	s0,88(sp)
   1384a:	44d6                	lw	s1,84(sp)
   1384c:	4946                	lw	s2,80(sp)
   1384e:	49b6                	lw	s3,76(sp)
   13850:	6125                	addi	sp,sp,96
   13852:	8082                	ret

00013854 <_ZN20complex_dynamic_type3app17h4901abfe0471fe4eE>:
   13854:	7159                	addi	sp,sp,-112
   13856:	d686                	sw	ra,108(sp)
   13858:	d4a2                	sw	s0,104(sp)
   1385a:	d2a6                	sw	s1,100(sp)
   1385c:	d0ca                	sw	s2,96(sp)
   1385e:	cece                	sw	s3,92(sp)
   13860:	892a                	mv	s2,a0
   13862:	4489                	li	s1,2
   13864:	00910623          	sb	s1,12(sp)
   13868:	00d10413          	addi	s0,sp,13
   1386c:	03400613          	li	a2,52
   13870:	8522                	mv	a0,s0
   13872:	0000c097          	auipc	ra,0xc
   13876:	3aa080e7          	jalr	938(ra) # 1fc1c <memcpy>
   1387a:	04210993          	addi	s3,sp,66
   1387e:	4669                	li	a2,26
   13880:	854e                	mv	a0,s3
   13882:	4581                	li	a1,0
   13884:	0000c097          	auipc	ra,0xc
   13888:	32c080e7          	jalr	812(ra) # 1fbb0 <memset>
   1388c:	4581                	li	a1,0
   1388e:	8622                	mv	a2,s0
   13890:	049100a3          	sb	s1,65(sp)
   13894:	6505                	lui	a0,0x1
   13896:	4791                	li	a5,4
   13898:	2cc50513          	addi	a0,a0,716 # 12cc <.Lline_table_start1+0x10a1>
   1389c:	03400693          	li	a3,52
   138a0:	4711                	li	a4,4
   138a2:	00000073          	ecall
   138a6:	00950463          	beq	a0,s1,138ae <_ZN20complex_dynamic_type3app17h4901abfe0471fe4eE+0x5a>
   138aa:	00f10623          	sb	a5,12(sp)
   138ae:	4609                	li	a2,2
   138b0:	00c51463          	bne	a0,a2,138b8 <_ZN20complex_dynamic_type3app17h4901abfe0471fe4eE+0x64>
   138b4:	4785                	li	a5,1
   138b6:	a851                	j	1394a <_ZN20complex_dynamic_type3app17h4901abfe0471fe4eE+0xf6>
   138b8:	04114503          	lbu	a0,65(sp)
   138bc:	4785                	li	a5,1
   138be:	02c51263          	bne	a0,a2,138e2 <_ZN20complex_dynamic_type3app17h4901abfe0471fe4eE+0x8e>
   138c2:	864e                	mv	a2,s3
   138c4:	6505                	lui	a0,0x1
   138c6:	4595                	li	a1,5
   138c8:	46e9                	li	a3,26
   138ca:	470d                	li	a4,3
   138cc:	2cc50513          	addi	a0,a0,716 # 12cc <.Lline_table_start1+0x10a1>
   138d0:	4489                	li	s1,2
   138d2:	00000073          	ecall
   138d6:	460d                	li	a2,3
   138d8:	00951963          	bne	a0,s1,138ea <_ZN20complex_dynamic_type3app17h4901abfe0471fe4eE+0x96>
   138dc:	4505                	li	a0,1
   138de:	c911                	beqz	a0,138f2 <_ZN20complex_dynamic_type3app17h4901abfe0471fe4eE+0x9e>
   138e0:	a0ad                	j	1394a <_ZN20complex_dynamic_type3app17h4901abfe0471fe4eE+0xf6>
   138e2:	458d                	li	a1,3
   138e4:	4505                	li	a0,1
   138e6:	c511                	beqz	a0,138f2 <_ZN20complex_dynamic_type3app17h4901abfe0471fe4eE+0x9e>
   138e8:	a08d                	j	1394a <_ZN20complex_dynamic_type3app17h4901abfe0471fe4eE+0xf6>
   138ea:	4501                	li	a0,0
   138ec:	04c100a3          	sb	a2,65(sp)
   138f0:	ed29                	bnez	a0,1394a <_ZN20complex_dynamic_type3app17h4901abfe0471fe4eE+0xf6>
   138f2:	4581                	li	a1,0
   138f4:	4681                	li	a3,0
   138f6:	6505                	lui	a0,0x1
   138f8:	4615                	li	a2,5
   138fa:	4709                	li	a4,2
   138fc:	2cc50513          	addi	a0,a0,716 # 12cc <.Lline_table_start1+0x10a1>
   13900:	07f00493          	li	s1,127
   13904:	00000073          	ecall
   13908:	4689                	li	a3,2
   1390a:	04a4f063          	bgeu	s1,a0,1394a <_ZN20complex_dynamic_type3app17h4901abfe0471fe4eE+0xf6>
   1390e:	00c14603          	lbu	a2,12(sp)
   13912:	00d60a63          	beq	a2,a3,13926 <_ZN20complex_dynamic_type3app17h4901abfe0471fe4eE+0xd2>
   13916:	6505                	lui	a0,0x1
   13918:	2cc50513          	addi	a0,a0,716 # 12cc <.Lline_table_start1+0x10a1>
   1391c:	4581                	li	a1,0
   1391e:	0000c097          	auipc	ra,0xc
   13922:	286080e7          	jalr	646(ra) # 1fba4 <_ZN9allow_pin12dynamic_type7unshare17h0269127f30dbe29bE>
   13926:	04114603          	lbu	a2,65(sp)
   1392a:	4409                	li	s0,2
   1392c:	00810623          	sb	s0,12(sp)
   13930:	00860a63          	beq	a2,s0,13944 <_ZN20complex_dynamic_type3app17h4901abfe0471fe4eE+0xf0>
   13934:	6505                	lui	a0,0x1
   13936:	2cc50513          	addi	a0,a0,716 # 12cc <.Lline_table_start1+0x10a1>
   1393a:	4595                	li	a1,5
   1393c:	0000c097          	auipc	ra,0xc
   13940:	268080e7          	jalr	616(ra) # 1fba4 <_ZN9allow_pin12dynamic_type7unshare17h0269127f30dbe29bE>
   13944:	4781                	li	a5,0
   13946:	048100a3          	sb	s0,65(sp)
   1394a:	cb85                	beqz	a5,1397a <_ZN20complex_dynamic_type3app17h4901abfe0471fe4eE+0x126>
   1394c:	04114603          	lbu	a2,65(sp)
   13950:	4505                	li	a0,1
   13952:	4409                	li	s0,2
   13954:	00a90023          	sb	a0,0(s2)
   13958:	00b92223          	sw	a1,4(s2)
   1395c:	00860a63          	beq	a2,s0,13970 <_ZN20complex_dynamic_type3app17h4901abfe0471fe4eE+0x11c>
   13960:	6505                	lui	a0,0x1
   13962:	2cc50513          	addi	a0,a0,716 # 12cc <.Lline_table_start1+0x10a1>
   13966:	4595                	li	a1,5
   13968:	0000c097          	auipc	ra,0xc
   1396c:	23c080e7          	jalr	572(ra) # 1fba4 <_ZN9allow_pin12dynamic_type7unshare17h0269127f30dbe29bE>
   13970:	00c14603          	lbu	a2,12(sp)
   13974:	04861663          	bne	a2,s0,139c0 <_ZN20complex_dynamic_type3app17h4901abfe0471fe4eE+0x16c>
   13978:	a8a1                	j	139d0 <_ZN20complex_dynamic_type3app17h4901abfe0471fe4eE+0x17c>
   1397a:	04114403          	lbu	s0,65(sp)
   1397e:	4489                	li	s1,2
   13980:	00940663          	beq	s0,s1,1398c <_ZN20complex_dynamic_type3app17h4901abfe0471fe4eE+0x138>
   13984:	000109b7          	lui	s3,0x10
   13988:	33198993          	addi	s3,s3,817 # 10331 <.Lanon.49c9f8067fe4468184af16d7576940c9.9>
   1398c:	00190513          	addi	a0,s2,1
   13990:	4669                	li	a2,26
   13992:	85ce                	mv	a1,s3
   13994:	0000c097          	auipc	ra,0xc
   13998:	288080e7          	jalr	648(ra) # 1fc1c <memcpy>
   1399c:	00090023          	sb	zero,0(s2)
   139a0:	00940b63          	beq	s0,s1,139b6 <_ZN20complex_dynamic_type3app17h4901abfe0471fe4eE+0x162>
   139a4:	6505                	lui	a0,0x1
   139a6:	2cc50513          	addi	a0,a0,716 # 12cc <.Lline_table_start1+0x10a1>
   139aa:	4595                	li	a1,5
   139ac:	8622                	mv	a2,s0
   139ae:	0000c097          	auipc	ra,0xc
   139b2:	1f6080e7          	jalr	502(ra) # 1fba4 <_ZN9allow_pin12dynamic_type7unshare17h0269127f30dbe29bE>
   139b6:	00c14603          	lbu	a2,12(sp)
   139ba:	4509                	li	a0,2
   139bc:	00a60a63          	beq	a2,a0,139d0 <_ZN20complex_dynamic_type3app17h4901abfe0471fe4eE+0x17c>
   139c0:	6505                	lui	a0,0x1
   139c2:	2cc50513          	addi	a0,a0,716 # 12cc <.Lline_table_start1+0x10a1>
   139c6:	4581                	li	a1,0
   139c8:	0000c097          	auipc	ra,0xc
   139cc:	1dc080e7          	jalr	476(ra) # 1fba4 <_ZN9allow_pin12dynamic_type7unshare17h0269127f30dbe29bE>
   139d0:	50b6                	lw	ra,108(sp)
   139d2:	5426                	lw	s0,104(sp)
   139d4:	5496                	lw	s1,100(sp)
   139d6:	5906                	lw	s2,96(sp)
   139d8:	49f6                	lw	s3,92(sp)
   139da:	6165                	addi	sp,sp,112
   139dc:	8082                	ret

000139de <_ZN20complex_dynamic_type3app17h49ef83d193b05856E>:
   139de:	715d                	addi	sp,sp,-80
   139e0:	c686                	sw	ra,76(sp)
   139e2:	c4a2                	sw	s0,72(sp)
   139e4:	c2a6                	sw	s1,68(sp)
   139e6:	c0ca                	sw	s2,64(sp)
   139e8:	de4e                	sw	s3,60(sp)
   139ea:	892a                	mv	s2,a0
   139ec:	4489                	li	s1,2
   139ee:	009102a3          	sb	s1,5(sp)
   139f2:	00610413          	addi	s0,sp,6
   139f6:	4669                	li	a2,26
   139f8:	8522                	mv	a0,s0
   139fa:	0000c097          	auipc	ra,0xc
   139fe:	222080e7          	jalr	546(ra) # 1fc1c <memcpy>
   13a02:	02110993          	addi	s3,sp,33
   13a06:	466d                	li	a2,27
   13a08:	854e                	mv	a0,s3
   13a0a:	4581                	li	a1,0
   13a0c:	0000c097          	auipc	ra,0xc
   13a10:	1a4080e7          	jalr	420(ra) # 1fbb0 <memset>
   13a14:	8622                	mv	a2,s0
   13a16:	02910023          	sb	s1,32(sp)
   13a1a:	6509                	lui	a0,0x2
   13a1c:	4791                	li	a5,4
   13a1e:	4595                	li	a1,5
   13a20:	cce50513          	addi	a0,a0,-818 # 1cce <.Lline_table_start1+0x1aa3>
   13a24:	46e9                	li	a3,26
   13a26:	4711                	li	a4,4
   13a28:	00000073          	ecall
   13a2c:	00950463          	beq	a0,s1,13a34 <_ZN20complex_dynamic_type3app17h49ef83d193b05856E+0x56>
   13a30:	00f102a3          	sb	a5,5(sp)
   13a34:	4609                	li	a2,2
   13a36:	00c51463          	bne	a0,a2,13a3e <_ZN20complex_dynamic_type3app17h49ef83d193b05856E+0x60>
   13a3a:	4785                	li	a5,1
   13a3c:	a851                	j	13ad0 <_ZN20complex_dynamic_type3app17h49ef83d193b05856E+0xf2>
   13a3e:	02014503          	lbu	a0,32(sp)
   13a42:	4785                	li	a5,1
   13a44:	02c51263          	bne	a0,a2,13a68 <_ZN20complex_dynamic_type3app17h49ef83d193b05856E+0x8a>
   13a48:	864e                	mv	a2,s3
   13a4a:	6509                	lui	a0,0x2
   13a4c:	4409                	li	s0,2
   13a4e:	448d                	li	s1,3
   13a50:	4589                	li	a1,2
   13a52:	cce50513          	addi	a0,a0,-818 # 1cce <.Lline_table_start1+0x1aa3>
   13a56:	46ed                	li	a3,27
   13a58:	470d                	li	a4,3
   13a5a:	00000073          	ecall
   13a5e:	00851963          	bne	a0,s0,13a70 <_ZN20complex_dynamic_type3app17h49ef83d193b05856E+0x92>
   13a62:	4505                	li	a0,1
   13a64:	c911                	beqz	a0,13a78 <_ZN20complex_dynamic_type3app17h49ef83d193b05856E+0x9a>
   13a66:	a0ad                	j	13ad0 <_ZN20complex_dynamic_type3app17h49ef83d193b05856E+0xf2>
   13a68:	458d                	li	a1,3
   13a6a:	4505                	li	a0,1
   13a6c:	c511                	beqz	a0,13a78 <_ZN20complex_dynamic_type3app17h49ef83d193b05856E+0x9a>
   13a6e:	a08d                	j	13ad0 <_ZN20complex_dynamic_type3app17h49ef83d193b05856E+0xf2>
   13a70:	4501                	li	a0,0
   13a72:	02910023          	sb	s1,32(sp)
   13a76:	ed29                	bnez	a0,13ad0 <_ZN20complex_dynamic_type3app17h49ef83d193b05856E+0xf2>
   13a78:	4681                	li	a3,0
   13a7a:	6509                	lui	a0,0x2
   13a7c:	4595                	li	a1,5
   13a7e:	4609                	li	a2,2
   13a80:	4709                	li	a4,2
   13a82:	cce50513          	addi	a0,a0,-818 # 1cce <.Lline_table_start1+0x1aa3>
   13a86:	07f00493          	li	s1,127
   13a8a:	00000073          	ecall
   13a8e:	4689                	li	a3,2
   13a90:	04a4f063          	bgeu	s1,a0,13ad0 <_ZN20complex_dynamic_type3app17h49ef83d193b05856E+0xf2>
   13a94:	00514603          	lbu	a2,5(sp)
   13a98:	00d60a63          	beq	a2,a3,13aac <_ZN20complex_dynamic_type3app17h49ef83d193b05856E+0xce>
   13a9c:	6509                	lui	a0,0x2
   13a9e:	cce50513          	addi	a0,a0,-818 # 1cce <.Lline_table_start1+0x1aa3>
   13aa2:	4595                	li	a1,5
   13aa4:	0000c097          	auipc	ra,0xc
   13aa8:	100080e7          	jalr	256(ra) # 1fba4 <_ZN9allow_pin12dynamic_type7unshare17h0269127f30dbe29bE>
   13aac:	02014603          	lbu	a2,32(sp)
   13ab0:	4409                	li	s0,2
   13ab2:	008102a3          	sb	s0,5(sp)
   13ab6:	00860a63          	beq	a2,s0,13aca <_ZN20complex_dynamic_type3app17h49ef83d193b05856E+0xec>
   13aba:	6509                	lui	a0,0x2
   13abc:	cce50513          	addi	a0,a0,-818 # 1cce <.Lline_table_start1+0x1aa3>
   13ac0:	4589                	li	a1,2
   13ac2:	0000c097          	auipc	ra,0xc
   13ac6:	0e2080e7          	jalr	226(ra) # 1fba4 <_ZN9allow_pin12dynamic_type7unshare17h0269127f30dbe29bE>
   13aca:	4781                	li	a5,0
   13acc:	02810023          	sb	s0,32(sp)
   13ad0:	cb85                	beqz	a5,13b00 <_ZN20complex_dynamic_type3app17h49ef83d193b05856E+0x122>
   13ad2:	02014603          	lbu	a2,32(sp)
   13ad6:	4505                	li	a0,1
   13ad8:	4409                	li	s0,2
   13ada:	00a90023          	sb	a0,0(s2)
   13ade:	00b92223          	sw	a1,4(s2)
   13ae2:	00860a63          	beq	a2,s0,13af6 <_ZN20complex_dynamic_type3app17h49ef83d193b05856E+0x118>
   13ae6:	6509                	lui	a0,0x2
   13ae8:	cce50513          	addi	a0,a0,-818 # 1cce <.Lline_table_start1+0x1aa3>
   13aec:	4589                	li	a1,2
   13aee:	0000c097          	auipc	ra,0xc
   13af2:	0b6080e7          	jalr	182(ra) # 1fba4 <_ZN9allow_pin12dynamic_type7unshare17h0269127f30dbe29bE>
   13af6:	00514603          	lbu	a2,5(sp)
   13afa:	04861663          	bne	a2,s0,13b46 <_ZN20complex_dynamic_type3app17h49ef83d193b05856E+0x168>
   13afe:	a8a1                	j	13b56 <_ZN20complex_dynamic_type3app17h49ef83d193b05856E+0x178>
   13b00:	02014403          	lbu	s0,32(sp)
   13b04:	4489                	li	s1,2
   13b06:	00940663          	beq	s0,s1,13b12 <_ZN20complex_dynamic_type3app17h49ef83d193b05856E+0x134>
   13b0a:	000119b7          	lui	s3,0x11
   13b0e:	98b98993          	addi	s3,s3,-1653 # 1098b <.Lanon.49c9f8067fe4468184af16d7576940c9.44>
   13b12:	00190513          	addi	a0,s2,1
   13b16:	466d                	li	a2,27
   13b18:	85ce                	mv	a1,s3
   13b1a:	0000c097          	auipc	ra,0xc
   13b1e:	102080e7          	jalr	258(ra) # 1fc1c <memcpy>
   13b22:	00090023          	sb	zero,0(s2)
   13b26:	00940b63          	beq	s0,s1,13b3c <_ZN20complex_dynamic_type3app17h49ef83d193b05856E+0x15e>
   13b2a:	6509                	lui	a0,0x2
   13b2c:	cce50513          	addi	a0,a0,-818 # 1cce <.Lline_table_start1+0x1aa3>
   13b30:	4589                	li	a1,2
   13b32:	8622                	mv	a2,s0
   13b34:	0000c097          	auipc	ra,0xc
   13b38:	070080e7          	jalr	112(ra) # 1fba4 <_ZN9allow_pin12dynamic_type7unshare17h0269127f30dbe29bE>
   13b3c:	00514603          	lbu	a2,5(sp)
   13b40:	4509                	li	a0,2
   13b42:	00a60a63          	beq	a2,a0,13b56 <_ZN20complex_dynamic_type3app17h49ef83d193b05856E+0x178>
   13b46:	6509                	lui	a0,0x2
   13b48:	cce50513          	addi	a0,a0,-818 # 1cce <.Lline_table_start1+0x1aa3>
   13b4c:	4595                	li	a1,5
   13b4e:	0000c097          	auipc	ra,0xc
   13b52:	056080e7          	jalr	86(ra) # 1fba4 <_ZN9allow_pin12dynamic_type7unshare17h0269127f30dbe29bE>
   13b56:	40b6                	lw	ra,76(sp)
   13b58:	4426                	lw	s0,72(sp)
   13b5a:	4496                	lw	s1,68(sp)
   13b5c:	4906                	lw	s2,64(sp)
   13b5e:	59f2                	lw	s3,60(sp)
   13b60:	6161                	addi	sp,sp,80
   13b62:	8082                	ret

00013b64 <_ZN20complex_dynamic_type3app17h49f7ca6ee13bd021E>:
   13b64:	7119                	addi	sp,sp,-128
   13b66:	de86                	sw	ra,124(sp)
   13b68:	dca2                	sw	s0,120(sp)
   13b6a:	daa6                	sw	s1,116(sp)
   13b6c:	d8ca                	sw	s2,112(sp)
   13b6e:	d6ce                	sw	s3,108(sp)
   13b70:	892a                	mv	s2,a0
   13b72:	4489                	li	s1,2
   13b74:	00910223          	sb	s1,4(sp)
   13b78:	00510413          	addi	s0,sp,5
   13b7c:	02e00613          	li	a2,46
   13b80:	8522                	mv	a0,s0
   13b82:	0000c097          	auipc	ra,0xc
   13b86:	09a080e7          	jalr	154(ra) # 1fc1c <memcpy>
   13b8a:	03410993          	addi	s3,sp,52
   13b8e:	03800613          	li	a2,56
   13b92:	854e                	mv	a0,s3
   13b94:	4581                	li	a1,0
   13b96:	0000c097          	auipc	ra,0xc
   13b9a:	01a080e7          	jalr	26(ra) # 1fbb0 <memset>
   13b9e:	8622                	mv	a2,s0
   13ba0:	029109a3          	sb	s1,51(sp)
   13ba4:	6505                	lui	a0,0x1
   13ba6:	4791                	li	a5,4
   13ba8:	45a5                	li	a1,9
   13baa:	a9d50513          	addi	a0,a0,-1379 # a9d <.Lline_table_start1+0x872>
   13bae:	02e00693          	li	a3,46
   13bb2:	4711                	li	a4,4
   13bb4:	00000073          	ecall
   13bb8:	00950463          	beq	a0,s1,13bc0 <_ZN20complex_dynamic_type3app17h49f7ca6ee13bd021E+0x5c>
   13bbc:	00f10223          	sb	a5,4(sp)
   13bc0:	4609                	li	a2,2
   13bc2:	00c51463          	bne	a0,a2,13bca <_ZN20complex_dynamic_type3app17h49f7ca6ee13bd021E+0x66>
   13bc6:	4785                	li	a5,1
   13bc8:	a859                	j	13c5e <_ZN20complex_dynamic_type3app17h49f7ca6ee13bd021E+0xfa>
   13bca:	03314503          	lbu	a0,51(sp)
   13bce:	4785                	li	a5,1
   13bd0:	02c51363          	bne	a0,a2,13bf6 <_ZN20complex_dynamic_type3app17h49f7ca6ee13bd021E+0x92>
   13bd4:	864e                	mv	a2,s3
   13bd6:	6505                	lui	a0,0x1
   13bd8:	45a5                	li	a1,9
   13bda:	03800693          	li	a3,56
   13bde:	470d                	li	a4,3
   13be0:	a9d50513          	addi	a0,a0,-1379 # a9d <.Lline_table_start1+0x872>
   13be4:	4489                	li	s1,2
   13be6:	00000073          	ecall
   13bea:	460d                	li	a2,3
   13bec:	00951963          	bne	a0,s1,13bfe <_ZN20complex_dynamic_type3app17h49f7ca6ee13bd021E+0x9a>
   13bf0:	4505                	li	a0,1
   13bf2:	c911                	beqz	a0,13c06 <_ZN20complex_dynamic_type3app17h49f7ca6ee13bd021E+0xa2>
   13bf4:	a0ad                	j	13c5e <_ZN20complex_dynamic_type3app17h49f7ca6ee13bd021E+0xfa>
   13bf6:	458d                	li	a1,3
   13bf8:	4505                	li	a0,1
   13bfa:	c511                	beqz	a0,13c06 <_ZN20complex_dynamic_type3app17h49f7ca6ee13bd021E+0xa2>
   13bfc:	a08d                	j	13c5e <_ZN20complex_dynamic_type3app17h49f7ca6ee13bd021E+0xfa>
   13bfe:	4501                	li	a0,0
   13c00:	02c109a3          	sb	a2,51(sp)
   13c04:	ed29                	bnez	a0,13c5e <_ZN20complex_dynamic_type3app17h49f7ca6ee13bd021E+0xfa>
   13c06:	4681                	li	a3,0
   13c08:	6505                	lui	a0,0x1
   13c0a:	45a5                	li	a1,9
   13c0c:	4625                	li	a2,9
   13c0e:	4709                	li	a4,2
   13c10:	a9d50513          	addi	a0,a0,-1379 # a9d <.Lline_table_start1+0x872>
   13c14:	07f00493          	li	s1,127
   13c18:	00000073          	ecall
   13c1c:	4689                	li	a3,2
   13c1e:	04a4f063          	bgeu	s1,a0,13c5e <_ZN20complex_dynamic_type3app17h49f7ca6ee13bd021E+0xfa>
   13c22:	00414603          	lbu	a2,4(sp)
   13c26:	00d60a63          	beq	a2,a3,13c3a <_ZN20complex_dynamic_type3app17h49f7ca6ee13bd021E+0xd6>
   13c2a:	6505                	lui	a0,0x1
   13c2c:	a9d50513          	addi	a0,a0,-1379 # a9d <.Lline_table_start1+0x872>
   13c30:	45a5                	li	a1,9
   13c32:	0000c097          	auipc	ra,0xc
   13c36:	f72080e7          	jalr	-142(ra) # 1fba4 <_ZN9allow_pin12dynamic_type7unshare17h0269127f30dbe29bE>
   13c3a:	03314603          	lbu	a2,51(sp)
   13c3e:	4409                	li	s0,2
   13c40:	00810223          	sb	s0,4(sp)
   13c44:	00860a63          	beq	a2,s0,13c58 <_ZN20complex_dynamic_type3app17h49f7ca6ee13bd021E+0xf4>
   13c48:	6505                	lui	a0,0x1
   13c4a:	a9d50513          	addi	a0,a0,-1379 # a9d <.Lline_table_start1+0x872>
   13c4e:	45a5                	li	a1,9
   13c50:	0000c097          	auipc	ra,0xc
   13c54:	f54080e7          	jalr	-172(ra) # 1fba4 <_ZN9allow_pin12dynamic_type7unshare17h0269127f30dbe29bE>
   13c58:	4781                	li	a5,0
   13c5a:	028109a3          	sb	s0,51(sp)
   13c5e:	cb85                	beqz	a5,13c8e <_ZN20complex_dynamic_type3app17h49f7ca6ee13bd021E+0x12a>
   13c60:	03314603          	lbu	a2,51(sp)
   13c64:	4505                	li	a0,1
   13c66:	4409                	li	s0,2
   13c68:	00a90023          	sb	a0,0(s2)
   13c6c:	00b92223          	sw	a1,4(s2)
   13c70:	00860a63          	beq	a2,s0,13c84 <_ZN20complex_dynamic_type3app17h49f7ca6ee13bd021E+0x120>
   13c74:	6505                	lui	a0,0x1
   13c76:	a9d50513          	addi	a0,a0,-1379 # a9d <.Lline_table_start1+0x872>
   13c7a:	45a5                	li	a1,9
   13c7c:	0000c097          	auipc	ra,0xc
   13c80:	f28080e7          	jalr	-216(ra) # 1fba4 <_ZN9allow_pin12dynamic_type7unshare17h0269127f30dbe29bE>
   13c84:	00414603          	lbu	a2,4(sp)
   13c88:	04861763          	bne	a2,s0,13cd6 <_ZN20complex_dynamic_type3app17h49f7ca6ee13bd021E+0x172>
   13c8c:	a8a9                	j	13ce6 <_ZN20complex_dynamic_type3app17h49f7ca6ee13bd021E+0x182>
   13c8e:	03314403          	lbu	s0,51(sp)
   13c92:	4489                	li	s1,2
   13c94:	00940663          	beq	s0,s1,13ca0 <_ZN20complex_dynamic_type3app17h49f7ca6ee13bd021E+0x13c>
   13c98:	000109b7          	lui	s3,0x10
   13c9c:	7a298993          	addi	s3,s3,1954 # 107a2 <.Lanon.49c9f8067fe4468184af16d7576940c9.35>
   13ca0:	00190513          	addi	a0,s2,1
   13ca4:	03800613          	li	a2,56
   13ca8:	85ce                	mv	a1,s3
   13caa:	0000c097          	auipc	ra,0xc
   13cae:	f72080e7          	jalr	-142(ra) # 1fc1c <memcpy>
   13cb2:	00090023          	sb	zero,0(s2)
   13cb6:	00940b63          	beq	s0,s1,13ccc <_ZN20complex_dynamic_type3app17h49f7ca6ee13bd021E+0x168>
   13cba:	6505                	lui	a0,0x1
   13cbc:	a9d50513          	addi	a0,a0,-1379 # a9d <.Lline_table_start1+0x872>
   13cc0:	45a5                	li	a1,9
   13cc2:	8622                	mv	a2,s0
   13cc4:	0000c097          	auipc	ra,0xc
   13cc8:	ee0080e7          	jalr	-288(ra) # 1fba4 <_ZN9allow_pin12dynamic_type7unshare17h0269127f30dbe29bE>
   13ccc:	00414603          	lbu	a2,4(sp)
   13cd0:	4509                	li	a0,2
   13cd2:	00a60a63          	beq	a2,a0,13ce6 <_ZN20complex_dynamic_type3app17h49f7ca6ee13bd021E+0x182>
   13cd6:	6505                	lui	a0,0x1
   13cd8:	a9d50513          	addi	a0,a0,-1379 # a9d <.Lline_table_start1+0x872>
   13cdc:	45a5                	li	a1,9
   13cde:	0000c097          	auipc	ra,0xc
   13ce2:	ec6080e7          	jalr	-314(ra) # 1fba4 <_ZN9allow_pin12dynamic_type7unshare17h0269127f30dbe29bE>
   13ce6:	50f6                	lw	ra,124(sp)
   13ce8:	5466                	lw	s0,120(sp)
   13cea:	54d6                	lw	s1,116(sp)
   13cec:	5946                	lw	s2,112(sp)
   13cee:	59b6                	lw	s3,108(sp)
   13cf0:	6109                	addi	sp,sp,128
   13cf2:	8082                	ret

00013cf4 <_ZN20complex_dynamic_type3app17h4c4bbc7a23dd73c5E>:
   13cf4:	7171                	addi	sp,sp,-176
   13cf6:	d706                	sw	ra,172(sp)
   13cf8:	d522                	sw	s0,168(sp)
   13cfa:	d326                	sw	s1,164(sp)
   13cfc:	d14a                	sw	s2,160(sp)
   13cfe:	cf4e                	sw	s3,156(sp)
   13d00:	892a                	mv	s2,a0
   13d02:	4489                	li	s1,2
   13d04:	009105a3          	sb	s1,11(sp)
   13d08:	0060                	addi	s0,sp,12
   13d0a:	06300613          	li	a2,99
   13d0e:	8522                	mv	a0,s0
   13d10:	0000c097          	auipc	ra,0xc
   13d14:	f0c080e7          	jalr	-244(ra) # 1fc1c <memcpy>
   13d18:	07010993          	addi	s3,sp,112
   13d1c:	02c00613          	li	a2,44
   13d20:	854e                	mv	a0,s3
   13d22:	4581                	li	a1,0
   13d24:	0000c097          	auipc	ra,0xc
   13d28:	e8c080e7          	jalr	-372(ra) # 1fbb0 <memset>
   13d2c:	8622                	mv	a2,s0
   13d2e:	069107a3          	sb	s1,111(sp)
   13d32:	4791                	li	a5,4
   13d34:	4561                	li	a0,24
   13d36:	4595                	li	a1,5
   13d38:	06300693          	li	a3,99
   13d3c:	4711                	li	a4,4
   13d3e:	00000073          	ecall
   13d42:	00950463          	beq	a0,s1,13d4a <_ZN20complex_dynamic_type3app17h4c4bbc7a23dd73c5E+0x56>
   13d46:	00f105a3          	sb	a5,11(sp)
   13d4a:	4609                	li	a2,2
   13d4c:	00c51463          	bne	a0,a2,13d54 <_ZN20complex_dynamic_type3app17h4c4bbc7a23dd73c5E+0x60>
   13d50:	4785                	li	a5,1
   13d52:	a059                	j	13dd8 <_ZN20complex_dynamic_type3app17h4c4bbc7a23dd73c5E+0xe4>
   13d54:	06f14503          	lbu	a0,111(sp)
   13d58:	4785                	li	a5,1
   13d5a:	02c51163          	bne	a0,a2,13d7c <_ZN20complex_dynamic_type3app17h4c4bbc7a23dd73c5E+0x88>
   13d5e:	864e                	mv	a2,s3
   13d60:	4561                	li	a0,24
   13d62:	458d                	li	a1,3
   13d64:	02c00693          	li	a3,44
   13d68:	470d                	li	a4,3
   13d6a:	4489                	li	s1,2
   13d6c:	00000073          	ecall
   13d70:	460d                	li	a2,3
   13d72:	00951963          	bne	a0,s1,13d84 <_ZN20complex_dynamic_type3app17h4c4bbc7a23dd73c5E+0x90>
   13d76:	4505                	li	a0,1
   13d78:	c911                	beqz	a0,13d8c <_ZN20complex_dynamic_type3app17h4c4bbc7a23dd73c5E+0x98>
   13d7a:	a8b9                	j	13dd8 <_ZN20complex_dynamic_type3app17h4c4bbc7a23dd73c5E+0xe4>
   13d7c:	458d                	li	a1,3
   13d7e:	4505                	li	a0,1
   13d80:	c511                	beqz	a0,13d8c <_ZN20complex_dynamic_type3app17h4c4bbc7a23dd73c5E+0x98>
   13d82:	a899                	j	13dd8 <_ZN20complex_dynamic_type3app17h4c4bbc7a23dd73c5E+0xe4>
   13d84:	4501                	li	a0,0
   13d86:	06c107a3          	sb	a2,111(sp)
   13d8a:	e539                	bnez	a0,13dd8 <_ZN20complex_dynamic_type3app17h4c4bbc7a23dd73c5E+0xe4>
   13d8c:	4681                	li	a3,0
   13d8e:	4561                	li	a0,24
   13d90:	4595                	li	a1,5
   13d92:	460d                	li	a2,3
   13d94:	4709                	li	a4,2
   13d96:	07f00493          	li	s1,127
   13d9a:	00000073          	ecall
   13d9e:	4689                	li	a3,2
   13da0:	02a4fc63          	bgeu	s1,a0,13dd8 <_ZN20complex_dynamic_type3app17h4c4bbc7a23dd73c5E+0xe4>
   13da4:	00b14603          	lbu	a2,11(sp)
   13da8:	00d60863          	beq	a2,a3,13db8 <_ZN20complex_dynamic_type3app17h4c4bbc7a23dd73c5E+0xc4>
   13dac:	4561                	li	a0,24
   13dae:	4595                	li	a1,5
   13db0:	0000c097          	auipc	ra,0xc
   13db4:	df4080e7          	jalr	-524(ra) # 1fba4 <_ZN9allow_pin12dynamic_type7unshare17h0269127f30dbe29bE>
   13db8:	06f14603          	lbu	a2,111(sp)
   13dbc:	4409                	li	s0,2
   13dbe:	008105a3          	sb	s0,11(sp)
   13dc2:	00860863          	beq	a2,s0,13dd2 <_ZN20complex_dynamic_type3app17h4c4bbc7a23dd73c5E+0xde>
   13dc6:	4561                	li	a0,24
   13dc8:	458d                	li	a1,3
   13dca:	0000c097          	auipc	ra,0xc
   13dce:	dda080e7          	jalr	-550(ra) # 1fba4 <_ZN9allow_pin12dynamic_type7unshare17h0269127f30dbe29bE>
   13dd2:	4781                	li	a5,0
   13dd4:	068107a3          	sb	s0,111(sp)
   13dd8:	c795                	beqz	a5,13e04 <_ZN20complex_dynamic_type3app17h4c4bbc7a23dd73c5E+0x110>
   13dda:	06f14603          	lbu	a2,111(sp)
   13dde:	4505                	li	a0,1
   13de0:	4409                	li	s0,2
   13de2:	00a90023          	sb	a0,0(s2)
   13de6:	00b92223          	sw	a1,4(s2)
   13dea:	00860863          	beq	a2,s0,13dfa <_ZN20complex_dynamic_type3app17h4c4bbc7a23dd73c5E+0x106>
   13dee:	4561                	li	a0,24
   13df0:	458d                	li	a1,3
   13df2:	0000c097          	auipc	ra,0xc
   13df6:	db2080e7          	jalr	-590(ra) # 1fba4 <_ZN9allow_pin12dynamic_type7unshare17h0269127f30dbe29bE>
   13dfa:	00b14603          	lbu	a2,11(sp)
   13dfe:	04861563          	bne	a2,s0,13e48 <_ZN20complex_dynamic_type3app17h4c4bbc7a23dd73c5E+0x154>
   13e02:	a889                	j	13e54 <_ZN20complex_dynamic_type3app17h4c4bbc7a23dd73c5E+0x160>
   13e04:	06f14403          	lbu	s0,111(sp)
   13e08:	4489                	li	s1,2
   13e0a:	00940663          	beq	s0,s1,13e16 <_ZN20complex_dynamic_type3app17h4c4bbc7a23dd73c5E+0x122>
   13e0e:	000109b7          	lui	s3,0x10
   13e12:	40998993          	addi	s3,s3,1033 # 10409 <.Lanon.49c9f8067fe4468184af16d7576940c9.14>
   13e16:	00190513          	addi	a0,s2,1
   13e1a:	02c00613          	li	a2,44
   13e1e:	85ce                	mv	a1,s3
   13e20:	0000c097          	auipc	ra,0xc
   13e24:	dfc080e7          	jalr	-516(ra) # 1fc1c <memcpy>
   13e28:	00090023          	sb	zero,0(s2)
   13e2c:	00940963          	beq	s0,s1,13e3e <_ZN20complex_dynamic_type3app17h4c4bbc7a23dd73c5E+0x14a>
   13e30:	4561                	li	a0,24
   13e32:	458d                	li	a1,3
   13e34:	8622                	mv	a2,s0
   13e36:	0000c097          	auipc	ra,0xc
   13e3a:	d6e080e7          	jalr	-658(ra) # 1fba4 <_ZN9allow_pin12dynamic_type7unshare17h0269127f30dbe29bE>
   13e3e:	00b14603          	lbu	a2,11(sp)
   13e42:	4509                	li	a0,2
   13e44:	00a60863          	beq	a2,a0,13e54 <_ZN20complex_dynamic_type3app17h4c4bbc7a23dd73c5E+0x160>
   13e48:	4561                	li	a0,24
   13e4a:	4595                	li	a1,5
   13e4c:	0000c097          	auipc	ra,0xc
   13e50:	d58080e7          	jalr	-680(ra) # 1fba4 <_ZN9allow_pin12dynamic_type7unshare17h0269127f30dbe29bE>
   13e54:	50ba                	lw	ra,172(sp)
   13e56:	542a                	lw	s0,168(sp)
   13e58:	549a                	lw	s1,164(sp)
   13e5a:	590a                	lw	s2,160(sp)
   13e5c:	49fa                	lw	s3,156(sp)
   13e5e:	614d                	addi	sp,sp,176
   13e60:	8082                	ret

00013e62 <_ZN20complex_dynamic_type3app17h4dbd0f1f207487eaE>:
   13e62:	7139                	addi	sp,sp,-64
   13e64:	de06                	sw	ra,60(sp)
   13e66:	dc22                	sw	s0,56(sp)
   13e68:	da26                	sw	s1,52(sp)
   13e6a:	d84a                	sw	s2,48(sp)
   13e6c:	d64e                	sw	s3,44(sp)
   13e6e:	892a                	mv	s2,a0
   13e70:	4489                	li	s1,2
   13e72:	00910423          	sb	s1,8(sp)
   13e76:	00910413          	addi	s0,sp,9
   13e7a:	463d                	li	a2,15
   13e7c:	8522                	mv	a0,s0
   13e7e:	0000c097          	auipc	ra,0xc
   13e82:	d9e080e7          	jalr	-610(ra) # 1fc1c <memcpy>
   13e86:	01910993          	addi	s3,sp,25
   13e8a:	464d                	li	a2,19
   13e8c:	854e                	mv	a0,s3
   13e8e:	4581                	li	a1,0
   13e90:	0000c097          	auipc	ra,0xc
   13e94:	d20080e7          	jalr	-736(ra) # 1fbb0 <memset>
   13e98:	8622                	mv	a2,s0
   13e9a:	00910c23          	sb	s1,24(sp)
   13e9e:	6509                	lui	a0,0x2
   13ea0:	4791                	li	a5,4
   13ea2:	458d                	li	a1,3
   13ea4:	e4b50513          	addi	a0,a0,-437 # 1e4b <.Lline_table_start1+0x1c20>
   13ea8:	46bd                	li	a3,15
   13eaa:	4711                	li	a4,4
   13eac:	00000073          	ecall
   13eb0:	00950463          	beq	a0,s1,13eb8 <_ZN20complex_dynamic_type3app17h4dbd0f1f207487eaE+0x56>
   13eb4:	00f10423          	sb	a5,8(sp)
   13eb8:	4609                	li	a2,2
   13eba:	00c51463          	bne	a0,a2,13ec2 <_ZN20complex_dynamic_type3app17h4dbd0f1f207487eaE+0x60>
   13ebe:	4785                	li	a5,1
   13ec0:	a851                	j	13f54 <_ZN20complex_dynamic_type3app17h4dbd0f1f207487eaE+0xf2>
   13ec2:	01814503          	lbu	a0,24(sp)
   13ec6:	4785                	li	a5,1
   13ec8:	02c51263          	bne	a0,a2,13eec <_ZN20complex_dynamic_type3app17h4dbd0f1f207487eaE+0x8a>
   13ecc:	4581                	li	a1,0
   13ece:	864e                	mv	a2,s3
   13ed0:	6509                	lui	a0,0x2
   13ed2:	46cd                	li	a3,19
   13ed4:	470d                	li	a4,3
   13ed6:	e4b50513          	addi	a0,a0,-437 # 1e4b <.Lline_table_start1+0x1c20>
   13eda:	4489                	li	s1,2
   13edc:	00000073          	ecall
   13ee0:	460d                	li	a2,3
   13ee2:	00951963          	bne	a0,s1,13ef4 <_ZN20complex_dynamic_type3app17h4dbd0f1f207487eaE+0x92>
   13ee6:	4505                	li	a0,1
   13ee8:	c911                	beqz	a0,13efc <_ZN20complex_dynamic_type3app17h4dbd0f1f207487eaE+0x9a>
   13eea:	a0ad                	j	13f54 <_ZN20complex_dynamic_type3app17h4dbd0f1f207487eaE+0xf2>
   13eec:	458d                	li	a1,3
   13eee:	4505                	li	a0,1
   13ef0:	c511                	beqz	a0,13efc <_ZN20complex_dynamic_type3app17h4dbd0f1f207487eaE+0x9a>
   13ef2:	a08d                	j	13f54 <_ZN20complex_dynamic_type3app17h4dbd0f1f207487eaE+0xf2>
   13ef4:	4501                	li	a0,0
   13ef6:	00c10c23          	sb	a2,24(sp)
   13efa:	ed29                	bnez	a0,13f54 <_ZN20complex_dynamic_type3app17h4dbd0f1f207487eaE+0xf2>
   13efc:	4601                	li	a2,0
   13efe:	4681                	li	a3,0
   13f00:	6509                	lui	a0,0x2
   13f02:	458d                	li	a1,3
   13f04:	4709                	li	a4,2
   13f06:	e4b50513          	addi	a0,a0,-437 # 1e4b <.Lline_table_start1+0x1c20>
   13f0a:	07f00493          	li	s1,127
   13f0e:	00000073          	ecall
   13f12:	4689                	li	a3,2
   13f14:	04a4f063          	bgeu	s1,a0,13f54 <_ZN20complex_dynamic_type3app17h4dbd0f1f207487eaE+0xf2>
   13f18:	00814603          	lbu	a2,8(sp)
   13f1c:	00d60a63          	beq	a2,a3,13f30 <_ZN20complex_dynamic_type3app17h4dbd0f1f207487eaE+0xce>
   13f20:	6509                	lui	a0,0x2
   13f22:	e4b50513          	addi	a0,a0,-437 # 1e4b <.Lline_table_start1+0x1c20>
   13f26:	458d                	li	a1,3
   13f28:	0000c097          	auipc	ra,0xc
   13f2c:	c7c080e7          	jalr	-900(ra) # 1fba4 <_ZN9allow_pin12dynamic_type7unshare17h0269127f30dbe29bE>
   13f30:	01814603          	lbu	a2,24(sp)
   13f34:	4409                	li	s0,2
   13f36:	00810423          	sb	s0,8(sp)
   13f3a:	00860a63          	beq	a2,s0,13f4e <_ZN20complex_dynamic_type3app17h4dbd0f1f207487eaE+0xec>
   13f3e:	6509                	lui	a0,0x2
   13f40:	e4b50513          	addi	a0,a0,-437 # 1e4b <.Lline_table_start1+0x1c20>
   13f44:	4581                	li	a1,0
   13f46:	0000c097          	auipc	ra,0xc
   13f4a:	c5e080e7          	jalr	-930(ra) # 1fba4 <_ZN9allow_pin12dynamic_type7unshare17h0269127f30dbe29bE>
   13f4e:	4781                	li	a5,0
   13f50:	00810c23          	sb	s0,24(sp)
   13f54:	cb85                	beqz	a5,13f84 <_ZN20complex_dynamic_type3app17h4dbd0f1f207487eaE+0x122>
   13f56:	01814603          	lbu	a2,24(sp)
   13f5a:	4505                	li	a0,1
   13f5c:	4409                	li	s0,2
   13f5e:	00a90023          	sb	a0,0(s2)
   13f62:	00b92223          	sw	a1,4(s2)
   13f66:	00860a63          	beq	a2,s0,13f7a <_ZN20complex_dynamic_type3app17h4dbd0f1f207487eaE+0x118>
   13f6a:	6509                	lui	a0,0x2
   13f6c:	e4b50513          	addi	a0,a0,-437 # 1e4b <.Lline_table_start1+0x1c20>
   13f70:	4581                	li	a1,0
   13f72:	0000c097          	auipc	ra,0xc
   13f76:	c32080e7          	jalr	-974(ra) # 1fba4 <_ZN9allow_pin12dynamic_type7unshare17h0269127f30dbe29bE>
   13f7a:	00814603          	lbu	a2,8(sp)
   13f7e:	04861663          	bne	a2,s0,13fca <_ZN20complex_dynamic_type3app17h4dbd0f1f207487eaE+0x168>
   13f82:	a8a1                	j	13fda <_ZN20complex_dynamic_type3app17h4dbd0f1f207487eaE+0x178>
   13f84:	01814403          	lbu	s0,24(sp)
   13f88:	4489                	li	s1,2
   13f8a:	00940663          	beq	s0,s1,13f96 <_ZN20complex_dynamic_type3app17h4dbd0f1f207487eaE+0x134>
   13f8e:	000109b7          	lui	s3,0x10
   13f92:	76a98993          	addi	s3,s3,1898 # 1076a <.Lanon.49c9f8067fe4468184af16d7576940c9.33>
   13f96:	00190513          	addi	a0,s2,1
   13f9a:	464d                	li	a2,19
   13f9c:	85ce                	mv	a1,s3
   13f9e:	0000c097          	auipc	ra,0xc
   13fa2:	c7e080e7          	jalr	-898(ra) # 1fc1c <memcpy>
   13fa6:	00090023          	sb	zero,0(s2)
   13faa:	00940b63          	beq	s0,s1,13fc0 <_ZN20complex_dynamic_type3app17h4dbd0f1f207487eaE+0x15e>
   13fae:	6509                	lui	a0,0x2
   13fb0:	e4b50513          	addi	a0,a0,-437 # 1e4b <.Lline_table_start1+0x1c20>
   13fb4:	4581                	li	a1,0
   13fb6:	8622                	mv	a2,s0
   13fb8:	0000c097          	auipc	ra,0xc
   13fbc:	bec080e7          	jalr	-1044(ra) # 1fba4 <_ZN9allow_pin12dynamic_type7unshare17h0269127f30dbe29bE>
   13fc0:	00814603          	lbu	a2,8(sp)
   13fc4:	4509                	li	a0,2
   13fc6:	00a60a63          	beq	a2,a0,13fda <_ZN20complex_dynamic_type3app17h4dbd0f1f207487eaE+0x178>
   13fca:	6509                	lui	a0,0x2
   13fcc:	e4b50513          	addi	a0,a0,-437 # 1e4b <.Lline_table_start1+0x1c20>
   13fd0:	458d                	li	a1,3
   13fd2:	0000c097          	auipc	ra,0xc
   13fd6:	bd2080e7          	jalr	-1070(ra) # 1fba4 <_ZN9allow_pin12dynamic_type7unshare17h0269127f30dbe29bE>
   13fda:	50f2                	lw	ra,60(sp)
   13fdc:	5462                	lw	s0,56(sp)
   13fde:	54d2                	lw	s1,52(sp)
   13fe0:	5942                	lw	s2,48(sp)
   13fe2:	59b2                	lw	s3,44(sp)
   13fe4:	6121                	addi	sp,sp,64
   13fe6:	8082                	ret

00013fe8 <_ZN20complex_dynamic_type3app17h4e44b31b166d4d06E>:
   13fe8:	7159                	addi	sp,sp,-112
   13fea:	d686                	sw	ra,108(sp)
   13fec:	d4a2                	sw	s0,104(sp)
   13fee:	d2a6                	sw	s1,100(sp)
   13ff0:	d0ca                	sw	s2,96(sp)
   13ff2:	cece                	sw	s3,92(sp)
   13ff4:	892a                	mv	s2,a0
   13ff6:	4489                	li	s1,2
   13ff8:	00910223          	sb	s1,4(sp)
   13ffc:	00510413          	addi	s0,sp,5
   14000:	4639                	li	a2,14
   14002:	8522                	mv	a0,s0
   14004:	0000c097          	auipc	ra,0xc
   14008:	c18080e7          	jalr	-1000(ra) # 1fc1c <memcpy>
   1400c:	01410993          	addi	s3,sp,20
   14010:	04800613          	li	a2,72
   14014:	854e                	mv	a0,s3
   14016:	4581                	li	a1,0
   14018:	0000c097          	auipc	ra,0xc
   1401c:	b98080e7          	jalr	-1128(ra) # 1fbb0 <memset>
   14020:	8622                	mv	a2,s0
   14022:	009109a3          	sb	s1,19(sp)
   14026:	6505                	lui	a0,0x1
   14028:	4791                	li	a5,4
   1402a:	458d                	li	a1,3
   1402c:	2d150513          	addi	a0,a0,721 # 12d1 <.Lline_table_start1+0x10a6>
   14030:	46b9                	li	a3,14
   14032:	4711                	li	a4,4
   14034:	00000073          	ecall
   14038:	00950463          	beq	a0,s1,14040 <_ZN20complex_dynamic_type3app17h4e44b31b166d4d06E+0x58>
   1403c:	00f10223          	sb	a5,4(sp)
   14040:	4609                	li	a2,2
   14042:	00c51463          	bne	a0,a2,1404a <_ZN20complex_dynamic_type3app17h4e44b31b166d4d06E+0x62>
   14046:	4785                	li	a5,1
   14048:	a859                	j	140de <_ZN20complex_dynamic_type3app17h4e44b31b166d4d06E+0xf6>
   1404a:	01314503          	lbu	a0,19(sp)
   1404e:	4785                	li	a5,1
   14050:	02c51363          	bne	a0,a2,14076 <_ZN20complex_dynamic_type3app17h4e44b31b166d4d06E+0x8e>
   14054:	864e                	mv	a2,s3
   14056:	6505                	lui	a0,0x1
   14058:	45a1                	li	a1,8
   1405a:	04800693          	li	a3,72
   1405e:	470d                	li	a4,3
   14060:	2d150513          	addi	a0,a0,721 # 12d1 <.Lline_table_start1+0x10a6>
   14064:	4489                	li	s1,2
   14066:	00000073          	ecall
   1406a:	460d                	li	a2,3
   1406c:	00951963          	bne	a0,s1,1407e <_ZN20complex_dynamic_type3app17h4e44b31b166d4d06E+0x96>
   14070:	4505                	li	a0,1
   14072:	c911                	beqz	a0,14086 <_ZN20complex_dynamic_type3app17h4e44b31b166d4d06E+0x9e>
   14074:	a0ad                	j	140de <_ZN20complex_dynamic_type3app17h4e44b31b166d4d06E+0xf6>
   14076:	458d                	li	a1,3
   14078:	4505                	li	a0,1
   1407a:	c511                	beqz	a0,14086 <_ZN20complex_dynamic_type3app17h4e44b31b166d4d06E+0x9e>
   1407c:	a08d                	j	140de <_ZN20complex_dynamic_type3app17h4e44b31b166d4d06E+0xf6>
   1407e:	4501                	li	a0,0
   14080:	00c109a3          	sb	a2,19(sp)
   14084:	ed29                	bnez	a0,140de <_ZN20complex_dynamic_type3app17h4e44b31b166d4d06E+0xf6>
   14086:	4681                	li	a3,0
   14088:	6505                	lui	a0,0x1
   1408a:	458d                	li	a1,3
   1408c:	4621                	li	a2,8
   1408e:	4709                	li	a4,2
   14090:	2d150513          	addi	a0,a0,721 # 12d1 <.Lline_table_start1+0x10a6>
   14094:	07f00493          	li	s1,127
   14098:	00000073          	ecall
   1409c:	4689                	li	a3,2
   1409e:	04a4f063          	bgeu	s1,a0,140de <_ZN20complex_dynamic_type3app17h4e44b31b166d4d06E+0xf6>
   140a2:	00414603          	lbu	a2,4(sp)
   140a6:	00d60a63          	beq	a2,a3,140ba <_ZN20complex_dynamic_type3app17h4e44b31b166d4d06E+0xd2>
   140aa:	6505                	lui	a0,0x1
   140ac:	2d150513          	addi	a0,a0,721 # 12d1 <.Lline_table_start1+0x10a6>
   140b0:	458d                	li	a1,3
   140b2:	0000c097          	auipc	ra,0xc
   140b6:	af2080e7          	jalr	-1294(ra) # 1fba4 <_ZN9allow_pin12dynamic_type7unshare17h0269127f30dbe29bE>
   140ba:	01314603          	lbu	a2,19(sp)
   140be:	4409                	li	s0,2
   140c0:	00810223          	sb	s0,4(sp)
   140c4:	00860a63          	beq	a2,s0,140d8 <_ZN20complex_dynamic_type3app17h4e44b31b166d4d06E+0xf0>
   140c8:	6505                	lui	a0,0x1
   140ca:	2d150513          	addi	a0,a0,721 # 12d1 <.Lline_table_start1+0x10a6>
   140ce:	45a1                	li	a1,8
   140d0:	0000c097          	auipc	ra,0xc
   140d4:	ad4080e7          	jalr	-1324(ra) # 1fba4 <_ZN9allow_pin12dynamic_type7unshare17h0269127f30dbe29bE>
   140d8:	4781                	li	a5,0
   140da:	008109a3          	sb	s0,19(sp)
   140de:	cb85                	beqz	a5,1410e <_ZN20complex_dynamic_type3app17h4e44b31b166d4d06E+0x126>
   140e0:	01314603          	lbu	a2,19(sp)
   140e4:	4505                	li	a0,1
   140e6:	4409                	li	s0,2
   140e8:	00a90023          	sb	a0,0(s2)
   140ec:	00b92223          	sw	a1,4(s2)
   140f0:	00860a63          	beq	a2,s0,14104 <_ZN20complex_dynamic_type3app17h4e44b31b166d4d06E+0x11c>
   140f4:	6505                	lui	a0,0x1
   140f6:	2d150513          	addi	a0,a0,721 # 12d1 <.Lline_table_start1+0x10a6>
   140fa:	45a1                	li	a1,8
   140fc:	0000c097          	auipc	ra,0xc
   14100:	aa8080e7          	jalr	-1368(ra) # 1fba4 <_ZN9allow_pin12dynamic_type7unshare17h0269127f30dbe29bE>
   14104:	00414603          	lbu	a2,4(sp)
   14108:	04861763          	bne	a2,s0,14156 <_ZN20complex_dynamic_type3app17h4e44b31b166d4d06E+0x16e>
   1410c:	a8a9                	j	14166 <_ZN20complex_dynamic_type3app17h4e44b31b166d4d06E+0x17e>
   1410e:	01314403          	lbu	s0,19(sp)
   14112:	4489                	li	s1,2
   14114:	00940663          	beq	s0,s1,14120 <_ZN20complex_dynamic_type3app17h4e44b31b166d4d06E+0x138>
   14118:	000119b7          	lui	s3,0x11
   1411c:	87998993          	addi	s3,s3,-1927 # 10879 <.Lanon.49c9f8067fe4468184af16d7576940c9.39>
   14120:	00190513          	addi	a0,s2,1
   14124:	04800613          	li	a2,72
   14128:	85ce                	mv	a1,s3
   1412a:	0000c097          	auipc	ra,0xc
   1412e:	af2080e7          	jalr	-1294(ra) # 1fc1c <memcpy>
   14132:	00090023          	sb	zero,0(s2)
   14136:	00940b63          	beq	s0,s1,1414c <_ZN20complex_dynamic_type3app17h4e44b31b166d4d06E+0x164>
   1413a:	6505                	lui	a0,0x1
   1413c:	2d150513          	addi	a0,a0,721 # 12d1 <.Lline_table_start1+0x10a6>
   14140:	45a1                	li	a1,8
   14142:	8622                	mv	a2,s0
   14144:	0000c097          	auipc	ra,0xc
   14148:	a60080e7          	jalr	-1440(ra) # 1fba4 <_ZN9allow_pin12dynamic_type7unshare17h0269127f30dbe29bE>
   1414c:	00414603          	lbu	a2,4(sp)
   14150:	4509                	li	a0,2
   14152:	00a60a63          	beq	a2,a0,14166 <_ZN20complex_dynamic_type3app17h4e44b31b166d4d06E+0x17e>
   14156:	6505                	lui	a0,0x1
   14158:	2d150513          	addi	a0,a0,721 # 12d1 <.Lline_table_start1+0x10a6>
   1415c:	458d                	li	a1,3
   1415e:	0000c097          	auipc	ra,0xc
   14162:	a46080e7          	jalr	-1466(ra) # 1fba4 <_ZN9allow_pin12dynamic_type7unshare17h0269127f30dbe29bE>
   14166:	50b6                	lw	ra,108(sp)
   14168:	5426                	lw	s0,104(sp)
   1416a:	5496                	lw	s1,100(sp)
   1416c:	5906                	lw	s2,96(sp)
   1416e:	49f6                	lw	s3,92(sp)
   14170:	6165                	addi	sp,sp,112
   14172:	8082                	ret

00014174 <_ZN20complex_dynamic_type3app17h4f2f0b7f4209157bE>:
   14174:	7131                	addi	sp,sp,-192
   14176:	df06                	sw	ra,188(sp)
   14178:	dd22                	sw	s0,184(sp)
   1417a:	db26                	sw	s1,180(sp)
   1417c:	d94a                	sw	s2,176(sp)
   1417e:	d74e                	sw	s3,172(sp)
   14180:	892a                	mv	s2,a0
   14182:	4489                	li	s1,2
   14184:	00910523          	sb	s1,10(sp)
   14188:	00b10413          	addi	s0,sp,11
   1418c:	05100613          	li	a2,81
   14190:	8522                	mv	a0,s0
   14192:	0000c097          	auipc	ra,0xc
   14196:	a8a080e7          	jalr	-1398(ra) # 1fc1c <memcpy>
   1419a:	05d10993          	addi	s3,sp,93
   1419e:	04f00613          	li	a2,79
   141a2:	854e                	mv	a0,s3
   141a4:	4581                	li	a1,0
   141a6:	0000c097          	auipc	ra,0xc
   141aa:	a0a080e7          	jalr	-1526(ra) # 1fbb0 <memset>
   141ae:	8622                	mv	a2,s0
   141b0:	04910e23          	sb	s1,92(sp)
   141b4:	6509                	lui	a0,0x2
   141b6:	4791                	li	a5,4
   141b8:	4591                	li	a1,4
   141ba:	0ee50513          	addi	a0,a0,238 # 20ee <.Lline_table_start1+0x1ec3>
   141be:	05100693          	li	a3,81
   141c2:	4711                	li	a4,4
   141c4:	00000073          	ecall
   141c8:	00950463          	beq	a0,s1,141d0 <_ZN20complex_dynamic_type3app17h4f2f0b7f4209157bE+0x5c>
   141cc:	00f10523          	sb	a5,10(sp)
   141d0:	4609                	li	a2,2
   141d2:	00c51463          	bne	a0,a2,141da <_ZN20complex_dynamic_type3app17h4f2f0b7f4209157bE+0x66>
   141d6:	4785                	li	a5,1
   141d8:	a859                	j	1426e <_ZN20complex_dynamic_type3app17h4f2f0b7f4209157bE+0xfa>
   141da:	05c14503          	lbu	a0,92(sp)
   141de:	4785                	li	a5,1
   141e0:	02c51363          	bne	a0,a2,14206 <_ZN20complex_dynamic_type3app17h4f2f0b7f4209157bE+0x92>
   141e4:	864e                	mv	a2,s3
   141e6:	6509                	lui	a0,0x2
   141e8:	45a5                	li	a1,9
   141ea:	04f00693          	li	a3,79
   141ee:	470d                	li	a4,3
   141f0:	0ee50513          	addi	a0,a0,238 # 20ee <.Lline_table_start1+0x1ec3>
   141f4:	4489                	li	s1,2
   141f6:	00000073          	ecall
   141fa:	460d                	li	a2,3
   141fc:	00951963          	bne	a0,s1,1420e <_ZN20complex_dynamic_type3app17h4f2f0b7f4209157bE+0x9a>
   14200:	4505                	li	a0,1
   14202:	c911                	beqz	a0,14216 <_ZN20complex_dynamic_type3app17h4f2f0b7f4209157bE+0xa2>
   14204:	a0ad                	j	1426e <_ZN20complex_dynamic_type3app17h4f2f0b7f4209157bE+0xfa>
   14206:	458d                	li	a1,3
   14208:	4505                	li	a0,1
   1420a:	c511                	beqz	a0,14216 <_ZN20complex_dynamic_type3app17h4f2f0b7f4209157bE+0xa2>
   1420c:	a08d                	j	1426e <_ZN20complex_dynamic_type3app17h4f2f0b7f4209157bE+0xfa>
   1420e:	4501                	li	a0,0
   14210:	04c10e23          	sb	a2,92(sp)
   14214:	ed29                	bnez	a0,1426e <_ZN20complex_dynamic_type3app17h4f2f0b7f4209157bE+0xfa>
   14216:	4681                	li	a3,0
   14218:	6509                	lui	a0,0x2
   1421a:	4591                	li	a1,4
   1421c:	4625                	li	a2,9
   1421e:	4709                	li	a4,2
   14220:	0ee50513          	addi	a0,a0,238 # 20ee <.Lline_table_start1+0x1ec3>
   14224:	07f00493          	li	s1,127
   14228:	00000073          	ecall
   1422c:	4689                	li	a3,2
   1422e:	04a4f063          	bgeu	s1,a0,1426e <_ZN20complex_dynamic_type3app17h4f2f0b7f4209157bE+0xfa>
   14232:	00a14603          	lbu	a2,10(sp)
   14236:	00d60a63          	beq	a2,a3,1424a <_ZN20complex_dynamic_type3app17h4f2f0b7f4209157bE+0xd6>
   1423a:	6509                	lui	a0,0x2
   1423c:	0ee50513          	addi	a0,a0,238 # 20ee <.Lline_table_start1+0x1ec3>
   14240:	4591                	li	a1,4
   14242:	0000c097          	auipc	ra,0xc
   14246:	962080e7          	jalr	-1694(ra) # 1fba4 <_ZN9allow_pin12dynamic_type7unshare17h0269127f30dbe29bE>
   1424a:	05c14603          	lbu	a2,92(sp)
   1424e:	4409                	li	s0,2
   14250:	00810523          	sb	s0,10(sp)
   14254:	00860a63          	beq	a2,s0,14268 <_ZN20complex_dynamic_type3app17h4f2f0b7f4209157bE+0xf4>
   14258:	6509                	lui	a0,0x2
   1425a:	0ee50513          	addi	a0,a0,238 # 20ee <.Lline_table_start1+0x1ec3>
   1425e:	45a5                	li	a1,9
   14260:	0000c097          	auipc	ra,0xc
   14264:	944080e7          	jalr	-1724(ra) # 1fba4 <_ZN9allow_pin12dynamic_type7unshare17h0269127f30dbe29bE>
   14268:	4781                	li	a5,0
   1426a:	04810e23          	sb	s0,92(sp)
   1426e:	cb85                	beqz	a5,1429e <_ZN20complex_dynamic_type3app17h4f2f0b7f4209157bE+0x12a>
   14270:	05c14603          	lbu	a2,92(sp)
   14274:	4505                	li	a0,1
   14276:	4409                	li	s0,2
   14278:	00a90023          	sb	a0,0(s2)
   1427c:	00b92223          	sw	a1,4(s2)
   14280:	00860a63          	beq	a2,s0,14294 <_ZN20complex_dynamic_type3app17h4f2f0b7f4209157bE+0x120>
   14284:	6509                	lui	a0,0x2
   14286:	0ee50513          	addi	a0,a0,238 # 20ee <.Lline_table_start1+0x1ec3>
   1428a:	45a5                	li	a1,9
   1428c:	0000c097          	auipc	ra,0xc
   14290:	918080e7          	jalr	-1768(ra) # 1fba4 <_ZN9allow_pin12dynamic_type7unshare17h0269127f30dbe29bE>
   14294:	00a14603          	lbu	a2,10(sp)
   14298:	04861763          	bne	a2,s0,142e6 <_ZN20complex_dynamic_type3app17h4f2f0b7f4209157bE+0x172>
   1429c:	a8a9                	j	142f6 <_ZN20complex_dynamic_type3app17h4f2f0b7f4209157bE+0x182>
   1429e:	05c14403          	lbu	s0,92(sp)
   142a2:	4489                	li	s1,2
   142a4:	00940663          	beq	s0,s1,142b0 <_ZN20complex_dynamic_type3app17h4f2f0b7f4209157bE+0x13c>
   142a8:	000109b7          	lui	s3,0x10
   142ac:	1f798993          	addi	s3,s3,503 # 101f7 <.Lanon.49c9f8067fe4468184af16d7576940c9.4>
   142b0:	00190513          	addi	a0,s2,1
   142b4:	04f00613          	li	a2,79
   142b8:	85ce                	mv	a1,s3
   142ba:	0000c097          	auipc	ra,0xc
   142be:	962080e7          	jalr	-1694(ra) # 1fc1c <memcpy>
   142c2:	00090023          	sb	zero,0(s2)
   142c6:	00940b63          	beq	s0,s1,142dc <_ZN20complex_dynamic_type3app17h4f2f0b7f4209157bE+0x168>
   142ca:	6509                	lui	a0,0x2
   142cc:	0ee50513          	addi	a0,a0,238 # 20ee <.Lline_table_start1+0x1ec3>
   142d0:	45a5                	li	a1,9
   142d2:	8622                	mv	a2,s0
   142d4:	0000c097          	auipc	ra,0xc
   142d8:	8d0080e7          	jalr	-1840(ra) # 1fba4 <_ZN9allow_pin12dynamic_type7unshare17h0269127f30dbe29bE>
   142dc:	00a14603          	lbu	a2,10(sp)
   142e0:	4509                	li	a0,2
   142e2:	00a60a63          	beq	a2,a0,142f6 <_ZN20complex_dynamic_type3app17h4f2f0b7f4209157bE+0x182>
   142e6:	6509                	lui	a0,0x2
   142e8:	0ee50513          	addi	a0,a0,238 # 20ee <.Lline_table_start1+0x1ec3>
   142ec:	4591                	li	a1,4
   142ee:	0000c097          	auipc	ra,0xc
   142f2:	8b6080e7          	jalr	-1866(ra) # 1fba4 <_ZN9allow_pin12dynamic_type7unshare17h0269127f30dbe29bE>
   142f6:	50fa                	lw	ra,188(sp)
   142f8:	546a                	lw	s0,184(sp)
   142fa:	54da                	lw	s1,180(sp)
   142fc:	594a                	lw	s2,176(sp)
   142fe:	59ba                	lw	s3,172(sp)
   14300:	6129                	addi	sp,sp,192
   14302:	8082                	ret

00014304 <_ZN20complex_dynamic_type3app17h522e7adbf3e0047fE>:
   14304:	7171                	addi	sp,sp,-176
   14306:	d706                	sw	ra,172(sp)
   14308:	d522                	sw	s0,168(sp)
   1430a:	d326                	sw	s1,164(sp)
   1430c:	d14a                	sw	s2,160(sp)
   1430e:	cf4e                	sw	s3,156(sp)
   14310:	892a                	mv	s2,a0
   14312:	4489                	li	s1,2
   14314:	009101a3          	sb	s1,3(sp)
   14318:	0040                	addi	s0,sp,4
   1431a:	03a00613          	li	a2,58
   1431e:	8522                	mv	a0,s0
   14320:	0000c097          	auipc	ra,0xc
   14324:	8fc080e7          	jalr	-1796(ra) # 1fc1c <memcpy>
   14328:	03f10993          	addi	s3,sp,63
   1432c:	05d00613          	li	a2,93
   14330:	854e                	mv	a0,s3
   14332:	4581                	li	a1,0
   14334:	0000c097          	auipc	ra,0xc
   14338:	87c080e7          	jalr	-1924(ra) # 1fbb0 <memset>
   1433c:	4581                	li	a1,0
   1433e:	8622                	mv	a2,s0
   14340:	02910f23          	sb	s1,62(sp)
   14344:	6505                	lui	a0,0x1
   14346:	4791                	li	a5,4
   14348:	4a450513          	addi	a0,a0,1188 # 14a4 <.Lline_table_start1+0x1279>
   1434c:	03a00693          	li	a3,58
   14350:	4711                	li	a4,4
   14352:	00000073          	ecall
   14356:	00950463          	beq	a0,s1,1435e <_ZN20complex_dynamic_type3app17h522e7adbf3e0047fE+0x5a>
   1435a:	00f101a3          	sb	a5,3(sp)
   1435e:	4609                	li	a2,2
   14360:	00c51463          	bne	a0,a2,14368 <_ZN20complex_dynamic_type3app17h522e7adbf3e0047fE+0x64>
   14364:	4785                	li	a5,1
   14366:	a859                	j	143fc <_ZN20complex_dynamic_type3app17h522e7adbf3e0047fE+0xf8>
   14368:	03e14503          	lbu	a0,62(sp)
   1436c:	4785                	li	a5,1
   1436e:	02c51363          	bne	a0,a2,14394 <_ZN20complex_dynamic_type3app17h522e7adbf3e0047fE+0x90>
   14372:	864e                	mv	a2,s3
   14374:	6505                	lui	a0,0x1
   14376:	4595                	li	a1,5
   14378:	05d00693          	li	a3,93
   1437c:	470d                	li	a4,3
   1437e:	4a450513          	addi	a0,a0,1188 # 14a4 <.Lline_table_start1+0x1279>
   14382:	4489                	li	s1,2
   14384:	00000073          	ecall
   14388:	460d                	li	a2,3
   1438a:	00951963          	bne	a0,s1,1439c <_ZN20complex_dynamic_type3app17h522e7adbf3e0047fE+0x98>
   1438e:	4505                	li	a0,1
   14390:	c911                	beqz	a0,143a4 <_ZN20complex_dynamic_type3app17h522e7adbf3e0047fE+0xa0>
   14392:	a0ad                	j	143fc <_ZN20complex_dynamic_type3app17h522e7adbf3e0047fE+0xf8>
   14394:	458d                	li	a1,3
   14396:	4505                	li	a0,1
   14398:	c511                	beqz	a0,143a4 <_ZN20complex_dynamic_type3app17h522e7adbf3e0047fE+0xa0>
   1439a:	a08d                	j	143fc <_ZN20complex_dynamic_type3app17h522e7adbf3e0047fE+0xf8>
   1439c:	4501                	li	a0,0
   1439e:	02c10f23          	sb	a2,62(sp)
   143a2:	ed29                	bnez	a0,143fc <_ZN20complex_dynamic_type3app17h522e7adbf3e0047fE+0xf8>
   143a4:	4581                	li	a1,0
   143a6:	4681                	li	a3,0
   143a8:	6505                	lui	a0,0x1
   143aa:	4615                	li	a2,5
   143ac:	4709                	li	a4,2
   143ae:	4a450513          	addi	a0,a0,1188 # 14a4 <.Lline_table_start1+0x1279>
   143b2:	07f00493          	li	s1,127
   143b6:	00000073          	ecall
   143ba:	4689                	li	a3,2
   143bc:	04a4f063          	bgeu	s1,a0,143fc <_ZN20complex_dynamic_type3app17h522e7adbf3e0047fE+0xf8>
   143c0:	00314603          	lbu	a2,3(sp)
   143c4:	00d60a63          	beq	a2,a3,143d8 <_ZN20complex_dynamic_type3app17h522e7adbf3e0047fE+0xd4>
   143c8:	6505                	lui	a0,0x1
   143ca:	4a450513          	addi	a0,a0,1188 # 14a4 <.Lline_table_start1+0x1279>
   143ce:	4581                	li	a1,0
   143d0:	0000b097          	auipc	ra,0xb
   143d4:	7d4080e7          	jalr	2004(ra) # 1fba4 <_ZN9allow_pin12dynamic_type7unshare17h0269127f30dbe29bE>
   143d8:	03e14603          	lbu	a2,62(sp)
   143dc:	4409                	li	s0,2
   143de:	008101a3          	sb	s0,3(sp)
   143e2:	00860a63          	beq	a2,s0,143f6 <_ZN20complex_dynamic_type3app17h522e7adbf3e0047fE+0xf2>
   143e6:	6505                	lui	a0,0x1
   143e8:	4a450513          	addi	a0,a0,1188 # 14a4 <.Lline_table_start1+0x1279>
   143ec:	4595                	li	a1,5
   143ee:	0000b097          	auipc	ra,0xb
   143f2:	7b6080e7          	jalr	1974(ra) # 1fba4 <_ZN9allow_pin12dynamic_type7unshare17h0269127f30dbe29bE>
   143f6:	4781                	li	a5,0
   143f8:	02810f23          	sb	s0,62(sp)
   143fc:	cb85                	beqz	a5,1442c <_ZN20complex_dynamic_type3app17h522e7adbf3e0047fE+0x128>
   143fe:	03e14603          	lbu	a2,62(sp)
   14402:	4505                	li	a0,1
   14404:	4409                	li	s0,2
   14406:	00a90023          	sb	a0,0(s2)
   1440a:	00b92223          	sw	a1,4(s2)
   1440e:	00860a63          	beq	a2,s0,14422 <_ZN20complex_dynamic_type3app17h522e7adbf3e0047fE+0x11e>
   14412:	6505                	lui	a0,0x1
   14414:	4a450513          	addi	a0,a0,1188 # 14a4 <.Lline_table_start1+0x1279>
   14418:	4595                	li	a1,5
   1441a:	0000b097          	auipc	ra,0xb
   1441e:	78a080e7          	jalr	1930(ra) # 1fba4 <_ZN9allow_pin12dynamic_type7unshare17h0269127f30dbe29bE>
   14422:	00314603          	lbu	a2,3(sp)
   14426:	04861763          	bne	a2,s0,14474 <_ZN20complex_dynamic_type3app17h522e7adbf3e0047fE+0x170>
   1442a:	a8a9                	j	14484 <_ZN20complex_dynamic_type3app17h522e7adbf3e0047fE+0x180>
   1442c:	03e14403          	lbu	s0,62(sp)
   14430:	4489                	li	s1,2
   14432:	00940663          	beq	s0,s1,1443e <_ZN20complex_dynamic_type3app17h522e7adbf3e0047fE+0x13a>
   14436:	000109b7          	lui	s3,0x10
   1443a:	18898993          	addi	s3,s3,392 # 10188 <.Lanon.49c9f8067fe4468184af16d7576940c9.2>
   1443e:	00190513          	addi	a0,s2,1
   14442:	05d00613          	li	a2,93
   14446:	85ce                	mv	a1,s3
   14448:	0000b097          	auipc	ra,0xb
   1444c:	7d4080e7          	jalr	2004(ra) # 1fc1c <memcpy>
   14450:	00090023          	sb	zero,0(s2)
   14454:	00940b63          	beq	s0,s1,1446a <_ZN20complex_dynamic_type3app17h522e7adbf3e0047fE+0x166>
   14458:	6505                	lui	a0,0x1
   1445a:	4a450513          	addi	a0,a0,1188 # 14a4 <.Lline_table_start1+0x1279>
   1445e:	4595                	li	a1,5
   14460:	8622                	mv	a2,s0
   14462:	0000b097          	auipc	ra,0xb
   14466:	742080e7          	jalr	1858(ra) # 1fba4 <_ZN9allow_pin12dynamic_type7unshare17h0269127f30dbe29bE>
   1446a:	00314603          	lbu	a2,3(sp)
   1446e:	4509                	li	a0,2
   14470:	00a60a63          	beq	a2,a0,14484 <_ZN20complex_dynamic_type3app17h522e7adbf3e0047fE+0x180>
   14474:	6505                	lui	a0,0x1
   14476:	4a450513          	addi	a0,a0,1188 # 14a4 <.Lline_table_start1+0x1279>
   1447a:	4581                	li	a1,0
   1447c:	0000b097          	auipc	ra,0xb
   14480:	728080e7          	jalr	1832(ra) # 1fba4 <_ZN9allow_pin12dynamic_type7unshare17h0269127f30dbe29bE>
   14484:	50ba                	lw	ra,172(sp)
   14486:	542a                	lw	s0,168(sp)
   14488:	549a                	lw	s1,164(sp)
   1448a:	590a                	lw	s2,160(sp)
   1448c:	49fa                	lw	s3,156(sp)
   1448e:	614d                	addi	sp,sp,176
   14490:	8082                	ret

00014492 <_ZN20complex_dynamic_type3app17h53ddd24431c4817eE>:
   14492:	715d                	addi	sp,sp,-80
   14494:	c686                	sw	ra,76(sp)
   14496:	c4a2                	sw	s0,72(sp)
   14498:	c2a6                	sw	s1,68(sp)
   1449a:	c0ca                	sw	s2,64(sp)
   1449c:	de4e                	sw	s3,60(sp)
   1449e:	892a                	mv	s2,a0
   144a0:	4489                	li	s1,2
   144a2:	00910623          	sb	s1,12(sp)
   144a6:	00d10413          	addi	s0,sp,13
   144aa:	4635                	li	a2,13
   144ac:	8522                	mv	a0,s0
   144ae:	0000b097          	auipc	ra,0xb
   144b2:	76e080e7          	jalr	1902(ra) # 1fc1c <memcpy>
   144b6:	01b10993          	addi	s3,sp,27
   144ba:	02100613          	li	a2,33
   144be:	854e                	mv	a0,s3
   144c0:	4581                	li	a1,0
   144c2:	0000b097          	auipc	ra,0xb
   144c6:	6ee080e7          	jalr	1774(ra) # 1fbb0 <memset>
   144ca:	4581                	li	a1,0
   144cc:	8622                	mv	a2,s0
   144ce:	00910d23          	sb	s1,26(sp)
   144d2:	6505                	lui	a0,0x1
   144d4:	4791                	li	a5,4
   144d6:	6b050513          	addi	a0,a0,1712 # 16b0 <.Lline_table_start1+0x1485>
   144da:	46b5                	li	a3,13
   144dc:	4711                	li	a4,4
   144de:	00000073          	ecall
   144e2:	00950463          	beq	a0,s1,144ea <_ZN20complex_dynamic_type3app17h53ddd24431c4817eE+0x58>
   144e6:	00f10623          	sb	a5,12(sp)
   144ea:	4609                	li	a2,2
   144ec:	00c51463          	bne	a0,a2,144f4 <_ZN20complex_dynamic_type3app17h53ddd24431c4817eE+0x62>
   144f0:	4785                	li	a5,1
   144f2:	a859                	j	14588 <_ZN20complex_dynamic_type3app17h53ddd24431c4817eE+0xf6>
   144f4:	01a14503          	lbu	a0,26(sp)
   144f8:	4785                	li	a5,1
   144fa:	02c51363          	bne	a0,a2,14520 <_ZN20complex_dynamic_type3app17h53ddd24431c4817eE+0x8e>
   144fe:	4581                	li	a1,0
   14500:	864e                	mv	a2,s3
   14502:	6505                	lui	a0,0x1
   14504:	02100693          	li	a3,33
   14508:	470d                	li	a4,3
   1450a:	6b050513          	addi	a0,a0,1712 # 16b0 <.Lline_table_start1+0x1485>
   1450e:	4489                	li	s1,2
   14510:	00000073          	ecall
   14514:	460d                	li	a2,3
   14516:	00951963          	bne	a0,s1,14528 <_ZN20complex_dynamic_type3app17h53ddd24431c4817eE+0x96>
   1451a:	4505                	li	a0,1
   1451c:	c911                	beqz	a0,14530 <_ZN20complex_dynamic_type3app17h53ddd24431c4817eE+0x9e>
   1451e:	a0ad                	j	14588 <_ZN20complex_dynamic_type3app17h53ddd24431c4817eE+0xf6>
   14520:	458d                	li	a1,3
   14522:	4505                	li	a0,1
   14524:	c511                	beqz	a0,14530 <_ZN20complex_dynamic_type3app17h53ddd24431c4817eE+0x9e>
   14526:	a08d                	j	14588 <_ZN20complex_dynamic_type3app17h53ddd24431c4817eE+0xf6>
   14528:	4501                	li	a0,0
   1452a:	00c10d23          	sb	a2,26(sp)
   1452e:	ed29                	bnez	a0,14588 <_ZN20complex_dynamic_type3app17h53ddd24431c4817eE+0xf6>
   14530:	4581                	li	a1,0
   14532:	4601                	li	a2,0
   14534:	4681                	li	a3,0
   14536:	6505                	lui	a0,0x1
   14538:	4709                	li	a4,2
   1453a:	6b050513          	addi	a0,a0,1712 # 16b0 <.Lline_table_start1+0x1485>
   1453e:	07f00493          	li	s1,127
   14542:	00000073          	ecall
   14546:	4689                	li	a3,2
   14548:	04a4f063          	bgeu	s1,a0,14588 <_ZN20complex_dynamic_type3app17h53ddd24431c4817eE+0xf6>
   1454c:	00c14603          	lbu	a2,12(sp)
   14550:	00d60a63          	beq	a2,a3,14564 <_ZN20complex_dynamic_type3app17h53ddd24431c4817eE+0xd2>
   14554:	6505                	lui	a0,0x1
   14556:	6b050513          	addi	a0,a0,1712 # 16b0 <.Lline_table_start1+0x1485>
   1455a:	4581                	li	a1,0
   1455c:	0000b097          	auipc	ra,0xb
   14560:	648080e7          	jalr	1608(ra) # 1fba4 <_ZN9allow_pin12dynamic_type7unshare17h0269127f30dbe29bE>
   14564:	01a14603          	lbu	a2,26(sp)
   14568:	4409                	li	s0,2
   1456a:	00810623          	sb	s0,12(sp)
   1456e:	00860a63          	beq	a2,s0,14582 <_ZN20complex_dynamic_type3app17h53ddd24431c4817eE+0xf0>
   14572:	6505                	lui	a0,0x1
   14574:	6b050513          	addi	a0,a0,1712 # 16b0 <.Lline_table_start1+0x1485>
   14578:	4581                	li	a1,0
   1457a:	0000b097          	auipc	ra,0xb
   1457e:	62a080e7          	jalr	1578(ra) # 1fba4 <_ZN9allow_pin12dynamic_type7unshare17h0269127f30dbe29bE>
   14582:	4781                	li	a5,0
   14584:	00810d23          	sb	s0,26(sp)
   14588:	cb85                	beqz	a5,145b8 <_ZN20complex_dynamic_type3app17h53ddd24431c4817eE+0x126>
   1458a:	01a14603          	lbu	a2,26(sp)
   1458e:	4505                	li	a0,1
   14590:	4409                	li	s0,2
   14592:	00a90023          	sb	a0,0(s2)
   14596:	00b92223          	sw	a1,4(s2)
   1459a:	00860a63          	beq	a2,s0,145ae <_ZN20complex_dynamic_type3app17h53ddd24431c4817eE+0x11c>
   1459e:	6505                	lui	a0,0x1
   145a0:	6b050513          	addi	a0,a0,1712 # 16b0 <.Lline_table_start1+0x1485>
   145a4:	4581                	li	a1,0
   145a6:	0000b097          	auipc	ra,0xb
   145aa:	5fe080e7          	jalr	1534(ra) # 1fba4 <_ZN9allow_pin12dynamic_type7unshare17h0269127f30dbe29bE>
   145ae:	00c14603          	lbu	a2,12(sp)
   145b2:	04861763          	bne	a2,s0,14600 <_ZN20complex_dynamic_type3app17h53ddd24431c4817eE+0x16e>
   145b6:	a8a9                	j	14610 <_ZN20complex_dynamic_type3app17h53ddd24431c4817eE+0x17e>
   145b8:	01a14403          	lbu	s0,26(sp)
   145bc:	4489                	li	s1,2
   145be:	00940663          	beq	s0,s1,145ca <_ZN20complex_dynamic_type3app17h53ddd24431c4817eE+0x138>
   145c2:	000109b7          	lui	s3,0x10
   145c6:	62d98993          	addi	s3,s3,1581 # 1062d <.Lanon.49c9f8067fe4468184af16d7576940c9.27>
   145ca:	00190513          	addi	a0,s2,1
   145ce:	02100613          	li	a2,33
   145d2:	85ce                	mv	a1,s3
   145d4:	0000b097          	auipc	ra,0xb
   145d8:	648080e7          	jalr	1608(ra) # 1fc1c <memcpy>
   145dc:	00090023          	sb	zero,0(s2)
   145e0:	00940b63          	beq	s0,s1,145f6 <_ZN20complex_dynamic_type3app17h53ddd24431c4817eE+0x164>
   145e4:	6505                	lui	a0,0x1
   145e6:	6b050513          	addi	a0,a0,1712 # 16b0 <.Lline_table_start1+0x1485>
   145ea:	4581                	li	a1,0
   145ec:	8622                	mv	a2,s0
   145ee:	0000b097          	auipc	ra,0xb
   145f2:	5b6080e7          	jalr	1462(ra) # 1fba4 <_ZN9allow_pin12dynamic_type7unshare17h0269127f30dbe29bE>
   145f6:	00c14603          	lbu	a2,12(sp)
   145fa:	4509                	li	a0,2
   145fc:	00a60a63          	beq	a2,a0,14610 <_ZN20complex_dynamic_type3app17h53ddd24431c4817eE+0x17e>
   14600:	6505                	lui	a0,0x1
   14602:	6b050513          	addi	a0,a0,1712 # 16b0 <.Lline_table_start1+0x1485>
   14606:	4581                	li	a1,0
   14608:	0000b097          	auipc	ra,0xb
   1460c:	59c080e7          	jalr	1436(ra) # 1fba4 <_ZN9allow_pin12dynamic_type7unshare17h0269127f30dbe29bE>
   14610:	40b6                	lw	ra,76(sp)
   14612:	4426                	lw	s0,72(sp)
   14614:	4496                	lw	s1,68(sp)
   14616:	4906                	lw	s2,64(sp)
   14618:	59f2                	lw	s3,60(sp)
   1461a:	6161                	addi	sp,sp,80
   1461c:	8082                	ret

0001461e <_ZN20complex_dynamic_type3app17h5cd6708296fd38baE>:
   1461e:	7119                	addi	sp,sp,-128
   14620:	de86                	sw	ra,124(sp)
   14622:	dca2                	sw	s0,120(sp)
   14624:	daa6                	sw	s1,116(sp)
   14626:	d8ca                	sw	s2,112(sp)
   14628:	d6ce                	sw	s3,108(sp)
   1462a:	892a                	mv	s2,a0
   1462c:	4489                	li	s1,2
   1462e:	009101a3          	sb	s1,3(sp)
   14632:	0040                	addi	s0,sp,4
   14634:	04400613          	li	a2,68
   14638:	8522                	mv	a0,s0
   1463a:	0000b097          	auipc	ra,0xb
   1463e:	5e2080e7          	jalr	1506(ra) # 1fc1c <memcpy>
   14642:	04910993          	addi	s3,sp,73
   14646:	02300613          	li	a2,35
   1464a:	854e                	mv	a0,s3
   1464c:	4581                	li	a1,0
   1464e:	0000b097          	auipc	ra,0xb
   14652:	562080e7          	jalr	1378(ra) # 1fbb0 <memset>
   14656:	8622                	mv	a2,s0
   14658:	04910423          	sb	s1,72(sp)
   1465c:	6505                	lui	a0,0x1
   1465e:	4791                	li	a5,4
   14660:	4599                	li	a1,6
   14662:	9bf50513          	addi	a0,a0,-1601 # 9bf <.Lline_table_start1+0x794>
   14666:	04400693          	li	a3,68
   1466a:	4711                	li	a4,4
   1466c:	00000073          	ecall
   14670:	00950463          	beq	a0,s1,14678 <_ZN20complex_dynamic_type3app17h5cd6708296fd38baE+0x5a>
   14674:	00f101a3          	sb	a5,3(sp)
   14678:	4609                	li	a2,2
   1467a:	00c51463          	bne	a0,a2,14682 <_ZN20complex_dynamic_type3app17h5cd6708296fd38baE+0x64>
   1467e:	4785                	li	a5,1
   14680:	a859                	j	14716 <_ZN20complex_dynamic_type3app17h5cd6708296fd38baE+0xf8>
   14682:	04814503          	lbu	a0,72(sp)
   14686:	4785                	li	a5,1
   14688:	02c51363          	bne	a0,a2,146ae <_ZN20complex_dynamic_type3app17h5cd6708296fd38baE+0x90>
   1468c:	864e                	mv	a2,s3
   1468e:	6505                	lui	a0,0x1
   14690:	458d                	li	a1,3
   14692:	02300693          	li	a3,35
   14696:	470d                	li	a4,3
   14698:	9bf50513          	addi	a0,a0,-1601 # 9bf <.Lline_table_start1+0x794>
   1469c:	4489                	li	s1,2
   1469e:	00000073          	ecall
   146a2:	460d                	li	a2,3
   146a4:	00951963          	bne	a0,s1,146b6 <_ZN20complex_dynamic_type3app17h5cd6708296fd38baE+0x98>
   146a8:	4505                	li	a0,1
   146aa:	c911                	beqz	a0,146be <_ZN20complex_dynamic_type3app17h5cd6708296fd38baE+0xa0>
   146ac:	a0ad                	j	14716 <_ZN20complex_dynamic_type3app17h5cd6708296fd38baE+0xf8>
   146ae:	458d                	li	a1,3
   146b0:	4505                	li	a0,1
   146b2:	c511                	beqz	a0,146be <_ZN20complex_dynamic_type3app17h5cd6708296fd38baE+0xa0>
   146b4:	a08d                	j	14716 <_ZN20complex_dynamic_type3app17h5cd6708296fd38baE+0xf8>
   146b6:	4501                	li	a0,0
   146b8:	04c10423          	sb	a2,72(sp)
   146bc:	ed29                	bnez	a0,14716 <_ZN20complex_dynamic_type3app17h5cd6708296fd38baE+0xf8>
   146be:	4681                	li	a3,0
   146c0:	6505                	lui	a0,0x1
   146c2:	4599                	li	a1,6
   146c4:	460d                	li	a2,3
   146c6:	4709                	li	a4,2
   146c8:	9bf50513          	addi	a0,a0,-1601 # 9bf <.Lline_table_start1+0x794>
   146cc:	07f00493          	li	s1,127
   146d0:	00000073          	ecall
   146d4:	4689                	li	a3,2
   146d6:	04a4f063          	bgeu	s1,a0,14716 <_ZN20complex_dynamic_type3app17h5cd6708296fd38baE+0xf8>
   146da:	00314603          	lbu	a2,3(sp)
   146de:	00d60a63          	beq	a2,a3,146f2 <_ZN20complex_dynamic_type3app17h5cd6708296fd38baE+0xd4>
   146e2:	6505                	lui	a0,0x1
   146e4:	9bf50513          	addi	a0,a0,-1601 # 9bf <.Lline_table_start1+0x794>
   146e8:	4599                	li	a1,6
   146ea:	0000b097          	auipc	ra,0xb
   146ee:	4ba080e7          	jalr	1210(ra) # 1fba4 <_ZN9allow_pin12dynamic_type7unshare17h0269127f30dbe29bE>
   146f2:	04814603          	lbu	a2,72(sp)
   146f6:	4409                	li	s0,2
   146f8:	008101a3          	sb	s0,3(sp)
   146fc:	00860a63          	beq	a2,s0,14710 <_ZN20complex_dynamic_type3app17h5cd6708296fd38baE+0xf2>
   14700:	6505                	lui	a0,0x1
   14702:	9bf50513          	addi	a0,a0,-1601 # 9bf <.Lline_table_start1+0x794>
   14706:	458d                	li	a1,3
   14708:	0000b097          	auipc	ra,0xb
   1470c:	49c080e7          	jalr	1180(ra) # 1fba4 <_ZN9allow_pin12dynamic_type7unshare17h0269127f30dbe29bE>
   14710:	4781                	li	a5,0
   14712:	04810423          	sb	s0,72(sp)
   14716:	cb85                	beqz	a5,14746 <_ZN20complex_dynamic_type3app17h5cd6708296fd38baE+0x128>
   14718:	04814603          	lbu	a2,72(sp)
   1471c:	4505                	li	a0,1
   1471e:	4409                	li	s0,2
   14720:	00a90023          	sb	a0,0(s2)
   14724:	00b92223          	sw	a1,4(s2)
   14728:	00860a63          	beq	a2,s0,1473c <_ZN20complex_dynamic_type3app17h5cd6708296fd38baE+0x11e>
   1472c:	6505                	lui	a0,0x1
   1472e:	9bf50513          	addi	a0,a0,-1601 # 9bf <.Lline_table_start1+0x794>
   14732:	458d                	li	a1,3
   14734:	0000b097          	auipc	ra,0xb
   14738:	470080e7          	jalr	1136(ra) # 1fba4 <_ZN9allow_pin12dynamic_type7unshare17h0269127f30dbe29bE>
   1473c:	00314603          	lbu	a2,3(sp)
   14740:	04861763          	bne	a2,s0,1478e <_ZN20complex_dynamic_type3app17h5cd6708296fd38baE+0x170>
   14744:	a8a9                	j	1479e <_ZN20complex_dynamic_type3app17h5cd6708296fd38baE+0x180>
   14746:	04814403          	lbu	s0,72(sp)
   1474a:	4489                	li	s1,2
   1474c:	00940663          	beq	s0,s1,14758 <_ZN20complex_dynamic_type3app17h5cd6708296fd38baE+0x13a>
   14750:	000109b7          	lui	s3,0x10
   14754:	5db98993          	addi	s3,s3,1499 # 105db <.Lanon.49c9f8067fe4468184af16d7576940c9.25>
   14758:	00190513          	addi	a0,s2,1
   1475c:	02300613          	li	a2,35
   14760:	85ce                	mv	a1,s3
   14762:	0000b097          	auipc	ra,0xb
   14766:	4ba080e7          	jalr	1210(ra) # 1fc1c <memcpy>
   1476a:	00090023          	sb	zero,0(s2)
   1476e:	00940b63          	beq	s0,s1,14784 <_ZN20complex_dynamic_type3app17h5cd6708296fd38baE+0x166>
   14772:	6505                	lui	a0,0x1
   14774:	9bf50513          	addi	a0,a0,-1601 # 9bf <.Lline_table_start1+0x794>
   14778:	458d                	li	a1,3
   1477a:	8622                	mv	a2,s0
   1477c:	0000b097          	auipc	ra,0xb
   14780:	428080e7          	jalr	1064(ra) # 1fba4 <_ZN9allow_pin12dynamic_type7unshare17h0269127f30dbe29bE>
   14784:	00314603          	lbu	a2,3(sp)
   14788:	4509                	li	a0,2
   1478a:	00a60a63          	beq	a2,a0,1479e <_ZN20complex_dynamic_type3app17h5cd6708296fd38baE+0x180>
   1478e:	6505                	lui	a0,0x1
   14790:	9bf50513          	addi	a0,a0,-1601 # 9bf <.Lline_table_start1+0x794>
   14794:	4599                	li	a1,6
   14796:	0000b097          	auipc	ra,0xb
   1479a:	40e080e7          	jalr	1038(ra) # 1fba4 <_ZN9allow_pin12dynamic_type7unshare17h0269127f30dbe29bE>
   1479e:	50f6                	lw	ra,124(sp)
   147a0:	5466                	lw	s0,120(sp)
   147a2:	54d6                	lw	s1,116(sp)
   147a4:	5946                	lw	s2,112(sp)
   147a6:	59b6                	lw	s3,108(sp)
   147a8:	6109                	addi	sp,sp,128
   147aa:	8082                	ret

000147ac <_ZN20complex_dynamic_type3app17h5d6bba6438f73f36E>:
   147ac:	7119                	addi	sp,sp,-128
   147ae:	de86                	sw	ra,124(sp)
   147b0:	dca2                	sw	s0,120(sp)
   147b2:	daa6                	sw	s1,116(sp)
   147b4:	d8ca                	sw	s2,112(sp)
   147b6:	d6ce                	sw	s3,108(sp)
   147b8:	892a                	mv	s2,a0
   147ba:	4489                	li	s1,2
   147bc:	009104a3          	sb	s1,9(sp)
   147c0:	00a10413          	addi	s0,sp,10
   147c4:	4645                	li	a2,17
   147c6:	8522                	mv	a0,s0
   147c8:	0000b097          	auipc	ra,0xb
   147cc:	454080e7          	jalr	1108(ra) # 1fc1c <memcpy>
   147d0:	01c10993          	addi	s3,sp,28
   147d4:	05000613          	li	a2,80
   147d8:	854e                	mv	a0,s3
   147da:	4581                	li	a1,0
   147dc:	0000b097          	auipc	ra,0xb
   147e0:	3d4080e7          	jalr	980(ra) # 1fbb0 <memset>
   147e4:	8622                	mv	a2,s0
   147e6:	00910da3          	sb	s1,27(sp)
   147ea:	6509                	lui	a0,0x2
   147ec:	4791                	li	a5,4
   147ee:	4599                	li	a1,6
   147f0:	aa950513          	addi	a0,a0,-1367 # 1aa9 <.Lline_table_start1+0x187e>
   147f4:	46c5                	li	a3,17
   147f6:	4711                	li	a4,4
   147f8:	00000073          	ecall
   147fc:	00950463          	beq	a0,s1,14804 <_ZN20complex_dynamic_type3app17h5d6bba6438f73f36E+0x58>
   14800:	00f104a3          	sb	a5,9(sp)
   14804:	4609                	li	a2,2
   14806:	00c51463          	bne	a0,a2,1480e <_ZN20complex_dynamic_type3app17h5d6bba6438f73f36E+0x62>
   1480a:	4785                	li	a5,1
   1480c:	a859                	j	148a2 <_ZN20complex_dynamic_type3app17h5d6bba6438f73f36E+0xf6>
   1480e:	01b14503          	lbu	a0,27(sp)
   14812:	4785                	li	a5,1
   14814:	02c51363          	bne	a0,a2,1483a <_ZN20complex_dynamic_type3app17h5d6bba6438f73f36E+0x8e>
   14818:	864e                	mv	a2,s3
   1481a:	6509                	lui	a0,0x2
   1481c:	4595                	li	a1,5
   1481e:	05000693          	li	a3,80
   14822:	470d                	li	a4,3
   14824:	aa950513          	addi	a0,a0,-1367 # 1aa9 <.Lline_table_start1+0x187e>
   14828:	4489                	li	s1,2
   1482a:	00000073          	ecall
   1482e:	460d                	li	a2,3
   14830:	00951963          	bne	a0,s1,14842 <_ZN20complex_dynamic_type3app17h5d6bba6438f73f36E+0x96>
   14834:	4505                	li	a0,1
   14836:	c911                	beqz	a0,1484a <_ZN20complex_dynamic_type3app17h5d6bba6438f73f36E+0x9e>
   14838:	a0ad                	j	148a2 <_ZN20complex_dynamic_type3app17h5d6bba6438f73f36E+0xf6>
   1483a:	458d                	li	a1,3
   1483c:	4505                	li	a0,1
   1483e:	c511                	beqz	a0,1484a <_ZN20complex_dynamic_type3app17h5d6bba6438f73f36E+0x9e>
   14840:	a08d                	j	148a2 <_ZN20complex_dynamic_type3app17h5d6bba6438f73f36E+0xf6>
   14842:	4501                	li	a0,0
   14844:	00c10da3          	sb	a2,27(sp)
   14848:	ed29                	bnez	a0,148a2 <_ZN20complex_dynamic_type3app17h5d6bba6438f73f36E+0xf6>
   1484a:	4681                	li	a3,0
   1484c:	6509                	lui	a0,0x2
   1484e:	4599                	li	a1,6
   14850:	4615                	li	a2,5
   14852:	4709                	li	a4,2
   14854:	aa950513          	addi	a0,a0,-1367 # 1aa9 <.Lline_table_start1+0x187e>
   14858:	07f00493          	li	s1,127
   1485c:	00000073          	ecall
   14860:	4689                	li	a3,2
   14862:	04a4f063          	bgeu	s1,a0,148a2 <_ZN20complex_dynamic_type3app17h5d6bba6438f73f36E+0xf6>
   14866:	00914603          	lbu	a2,9(sp)
   1486a:	00d60a63          	beq	a2,a3,1487e <_ZN20complex_dynamic_type3app17h5d6bba6438f73f36E+0xd2>
   1486e:	6509                	lui	a0,0x2
   14870:	aa950513          	addi	a0,a0,-1367 # 1aa9 <.Lline_table_start1+0x187e>
   14874:	4599                	li	a1,6
   14876:	0000b097          	auipc	ra,0xb
   1487a:	32e080e7          	jalr	814(ra) # 1fba4 <_ZN9allow_pin12dynamic_type7unshare17h0269127f30dbe29bE>
   1487e:	01b14603          	lbu	a2,27(sp)
   14882:	4409                	li	s0,2
   14884:	008104a3          	sb	s0,9(sp)
   14888:	00860a63          	beq	a2,s0,1489c <_ZN20complex_dynamic_type3app17h5d6bba6438f73f36E+0xf0>
   1488c:	6509                	lui	a0,0x2
   1488e:	aa950513          	addi	a0,a0,-1367 # 1aa9 <.Lline_table_start1+0x187e>
   14892:	4595                	li	a1,5
   14894:	0000b097          	auipc	ra,0xb
   14898:	310080e7          	jalr	784(ra) # 1fba4 <_ZN9allow_pin12dynamic_type7unshare17h0269127f30dbe29bE>
   1489c:	4781                	li	a5,0
   1489e:	00810da3          	sb	s0,27(sp)
   148a2:	cb85                	beqz	a5,148d2 <_ZN20complex_dynamic_type3app17h5d6bba6438f73f36E+0x126>
   148a4:	01b14603          	lbu	a2,27(sp)
   148a8:	4505                	li	a0,1
   148aa:	4409                	li	s0,2
   148ac:	00a90023          	sb	a0,0(s2)
   148b0:	00b92223          	sw	a1,4(s2)
   148b4:	00860a63          	beq	a2,s0,148c8 <_ZN20complex_dynamic_type3app17h5d6bba6438f73f36E+0x11c>
   148b8:	6509                	lui	a0,0x2
   148ba:	aa950513          	addi	a0,a0,-1367 # 1aa9 <.Lline_table_start1+0x187e>
   148be:	4595                	li	a1,5
   148c0:	0000b097          	auipc	ra,0xb
   148c4:	2e4080e7          	jalr	740(ra) # 1fba4 <_ZN9allow_pin12dynamic_type7unshare17h0269127f30dbe29bE>
   148c8:	00914603          	lbu	a2,9(sp)
   148cc:	04861763          	bne	a2,s0,1491a <_ZN20complex_dynamic_type3app17h5d6bba6438f73f36E+0x16e>
   148d0:	a8a9                	j	1492a <_ZN20complex_dynamic_type3app17h5d6bba6438f73f36E+0x17e>
   148d2:	01b14403          	lbu	s0,27(sp)
   148d6:	4489                	li	s1,2
   148d8:	00940663          	beq	s0,s1,148e4 <_ZN20complex_dynamic_type3app17h5d6bba6438f73f36E+0x138>
   148dc:	000109b7          	lui	s3,0x10
   148e0:	29098993          	addi	s3,s3,656 # 10290 <.Lanon.49c9f8067fe4468184af16d7576940c9.6>
   148e4:	00190513          	addi	a0,s2,1
   148e8:	05000613          	li	a2,80
   148ec:	85ce                	mv	a1,s3
   148ee:	0000b097          	auipc	ra,0xb
   148f2:	32e080e7          	jalr	814(ra) # 1fc1c <memcpy>
   148f6:	00090023          	sb	zero,0(s2)
   148fa:	00940b63          	beq	s0,s1,14910 <_ZN20complex_dynamic_type3app17h5d6bba6438f73f36E+0x164>
   148fe:	6509                	lui	a0,0x2
   14900:	aa950513          	addi	a0,a0,-1367 # 1aa9 <.Lline_table_start1+0x187e>
   14904:	4595                	li	a1,5
   14906:	8622                	mv	a2,s0
   14908:	0000b097          	auipc	ra,0xb
   1490c:	29c080e7          	jalr	668(ra) # 1fba4 <_ZN9allow_pin12dynamic_type7unshare17h0269127f30dbe29bE>
   14910:	00914603          	lbu	a2,9(sp)
   14914:	4509                	li	a0,2
   14916:	00a60a63          	beq	a2,a0,1492a <_ZN20complex_dynamic_type3app17h5d6bba6438f73f36E+0x17e>
   1491a:	6509                	lui	a0,0x2
   1491c:	aa950513          	addi	a0,a0,-1367 # 1aa9 <.Lline_table_start1+0x187e>
   14920:	4599                	li	a1,6
   14922:	0000b097          	auipc	ra,0xb
   14926:	282080e7          	jalr	642(ra) # 1fba4 <_ZN9allow_pin12dynamic_type7unshare17h0269127f30dbe29bE>
   1492a:	50f6                	lw	ra,124(sp)
   1492c:	5466                	lw	s0,120(sp)
   1492e:	54d6                	lw	s1,116(sp)
   14930:	5946                	lw	s2,112(sp)
   14932:	59b6                	lw	s3,108(sp)
   14934:	6109                	addi	sp,sp,128
   14936:	8082                	ret

00014938 <_ZN20complex_dynamic_type3app17h5dd806ef33d10e54E>:
   14938:	7175                	addi	sp,sp,-144
   1493a:	c706                	sw	ra,140(sp)
   1493c:	c522                	sw	s0,136(sp)
   1493e:	c326                	sw	s1,132(sp)
   14940:	c14a                	sw	s2,128(sp)
   14942:	dece                	sw	s3,124(sp)
   14944:	892a                	mv	s2,a0
   14946:	4489                	li	s1,2
   14948:	00910323          	sb	s1,6(sp)
   1494c:	00710413          	addi	s0,sp,7
   14950:	03500613          	li	a2,53
   14954:	8522                	mv	a0,s0
   14956:	0000b097          	auipc	ra,0xb
   1495a:	2c6080e7          	jalr	710(ra) # 1fc1c <memcpy>
   1495e:	03d10993          	addi	s3,sp,61
   14962:	03f00613          	li	a2,63
   14966:	854e                	mv	a0,s3
   14968:	4581                	li	a1,0
   1496a:	0000b097          	auipc	ra,0xb
   1496e:	246080e7          	jalr	582(ra) # 1fbb0 <memset>
   14972:	4581                	li	a1,0
   14974:	8622                	mv	a2,s0
   14976:	02910e23          	sb	s1,60(sp)
   1497a:	6505                	lui	a0,0x1
   1497c:	4791                	li	a5,4
   1497e:	e5750513          	addi	a0,a0,-425 # e57 <.Lline_table_start1+0xc2c>
   14982:	03500693          	li	a3,53
   14986:	4711                	li	a4,4
   14988:	00000073          	ecall
   1498c:	00950463          	beq	a0,s1,14994 <_ZN20complex_dynamic_type3app17h5dd806ef33d10e54E+0x5c>
   14990:	00f10323          	sb	a5,6(sp)
   14994:	4609                	li	a2,2
   14996:	00c51463          	bne	a0,a2,1499e <_ZN20complex_dynamic_type3app17h5dd806ef33d10e54E+0x66>
   1499a:	4785                	li	a5,1
   1499c:	a859                	j	14a32 <_ZN20complex_dynamic_type3app17h5dd806ef33d10e54E+0xfa>
   1499e:	03c14503          	lbu	a0,60(sp)
   149a2:	4785                	li	a5,1
   149a4:	02c51363          	bne	a0,a2,149ca <_ZN20complex_dynamic_type3app17h5dd806ef33d10e54E+0x92>
   149a8:	864e                	mv	a2,s3
   149aa:	6505                	lui	a0,0x1
   149ac:	458d                	li	a1,3
   149ae:	03f00693          	li	a3,63
   149b2:	470d                	li	a4,3
   149b4:	e5750513          	addi	a0,a0,-425 # e57 <.Lline_table_start1+0xc2c>
   149b8:	4489                	li	s1,2
   149ba:	00000073          	ecall
   149be:	460d                	li	a2,3
   149c0:	00951963          	bne	a0,s1,149d2 <_ZN20complex_dynamic_type3app17h5dd806ef33d10e54E+0x9a>
   149c4:	4505                	li	a0,1
   149c6:	c911                	beqz	a0,149da <_ZN20complex_dynamic_type3app17h5dd806ef33d10e54E+0xa2>
   149c8:	a0ad                	j	14a32 <_ZN20complex_dynamic_type3app17h5dd806ef33d10e54E+0xfa>
   149ca:	458d                	li	a1,3
   149cc:	4505                	li	a0,1
   149ce:	c511                	beqz	a0,149da <_ZN20complex_dynamic_type3app17h5dd806ef33d10e54E+0xa2>
   149d0:	a08d                	j	14a32 <_ZN20complex_dynamic_type3app17h5dd806ef33d10e54E+0xfa>
   149d2:	4501                	li	a0,0
   149d4:	02c10e23          	sb	a2,60(sp)
   149d8:	ed29                	bnez	a0,14a32 <_ZN20complex_dynamic_type3app17h5dd806ef33d10e54E+0xfa>
   149da:	4581                	li	a1,0
   149dc:	4681                	li	a3,0
   149de:	6505                	lui	a0,0x1
   149e0:	460d                	li	a2,3
   149e2:	4709                	li	a4,2
   149e4:	e5750513          	addi	a0,a0,-425 # e57 <.Lline_table_start1+0xc2c>
   149e8:	07f00493          	li	s1,127
   149ec:	00000073          	ecall
   149f0:	4689                	li	a3,2
   149f2:	04a4f063          	bgeu	s1,a0,14a32 <_ZN20complex_dynamic_type3app17h5dd806ef33d10e54E+0xfa>
   149f6:	00614603          	lbu	a2,6(sp)
   149fa:	00d60a63          	beq	a2,a3,14a0e <_ZN20complex_dynamic_type3app17h5dd806ef33d10e54E+0xd6>
   149fe:	6505                	lui	a0,0x1
   14a00:	e5750513          	addi	a0,a0,-425 # e57 <.Lline_table_start1+0xc2c>
   14a04:	4581                	li	a1,0
   14a06:	0000b097          	auipc	ra,0xb
   14a0a:	19e080e7          	jalr	414(ra) # 1fba4 <_ZN9allow_pin12dynamic_type7unshare17h0269127f30dbe29bE>
   14a0e:	03c14603          	lbu	a2,60(sp)
   14a12:	4409                	li	s0,2
   14a14:	00810323          	sb	s0,6(sp)
   14a18:	00860a63          	beq	a2,s0,14a2c <_ZN20complex_dynamic_type3app17h5dd806ef33d10e54E+0xf4>
   14a1c:	6505                	lui	a0,0x1
   14a1e:	e5750513          	addi	a0,a0,-425 # e57 <.Lline_table_start1+0xc2c>
   14a22:	458d                	li	a1,3
   14a24:	0000b097          	auipc	ra,0xb
   14a28:	180080e7          	jalr	384(ra) # 1fba4 <_ZN9allow_pin12dynamic_type7unshare17h0269127f30dbe29bE>
   14a2c:	4781                	li	a5,0
   14a2e:	02810e23          	sb	s0,60(sp)
   14a32:	cb85                	beqz	a5,14a62 <_ZN20complex_dynamic_type3app17h5dd806ef33d10e54E+0x12a>
   14a34:	03c14603          	lbu	a2,60(sp)
   14a38:	4505                	li	a0,1
   14a3a:	4409                	li	s0,2
   14a3c:	00a90023          	sb	a0,0(s2)
   14a40:	00b92223          	sw	a1,4(s2)
   14a44:	00860a63          	beq	a2,s0,14a58 <_ZN20complex_dynamic_type3app17h5dd806ef33d10e54E+0x120>
   14a48:	6505                	lui	a0,0x1
   14a4a:	e5750513          	addi	a0,a0,-425 # e57 <.Lline_table_start1+0xc2c>
   14a4e:	458d                	li	a1,3
   14a50:	0000b097          	auipc	ra,0xb
   14a54:	154080e7          	jalr	340(ra) # 1fba4 <_ZN9allow_pin12dynamic_type7unshare17h0269127f30dbe29bE>
   14a58:	00614603          	lbu	a2,6(sp)
   14a5c:	04861763          	bne	a2,s0,14aaa <_ZN20complex_dynamic_type3app17h5dd806ef33d10e54E+0x172>
   14a60:	a8a9                	j	14aba <_ZN20complex_dynamic_type3app17h5dd806ef33d10e54E+0x182>
   14a62:	03c14403          	lbu	s0,60(sp)
   14a66:	4489                	li	s1,2
   14a68:	00940663          	beq	s0,s1,14a74 <_ZN20complex_dynamic_type3app17h5dd806ef33d10e54E+0x13c>
   14a6c:	000119b7          	lui	s3,0x11
   14a70:	91198993          	addi	s3,s3,-1775 # 10911 <.Lanon.49c9f8067fe4468184af16d7576940c9.42>
   14a74:	00190513          	addi	a0,s2,1
   14a78:	03f00613          	li	a2,63
   14a7c:	85ce                	mv	a1,s3
   14a7e:	0000b097          	auipc	ra,0xb
   14a82:	19e080e7          	jalr	414(ra) # 1fc1c <memcpy>
   14a86:	00090023          	sb	zero,0(s2)
   14a8a:	00940b63          	beq	s0,s1,14aa0 <_ZN20complex_dynamic_type3app17h5dd806ef33d10e54E+0x168>
   14a8e:	6505                	lui	a0,0x1
   14a90:	e5750513          	addi	a0,a0,-425 # e57 <.Lline_table_start1+0xc2c>
   14a94:	458d                	li	a1,3
   14a96:	8622                	mv	a2,s0
   14a98:	0000b097          	auipc	ra,0xb
   14a9c:	10c080e7          	jalr	268(ra) # 1fba4 <_ZN9allow_pin12dynamic_type7unshare17h0269127f30dbe29bE>
   14aa0:	00614603          	lbu	a2,6(sp)
   14aa4:	4509                	li	a0,2
   14aa6:	00a60a63          	beq	a2,a0,14aba <_ZN20complex_dynamic_type3app17h5dd806ef33d10e54E+0x182>
   14aaa:	6505                	lui	a0,0x1
   14aac:	e5750513          	addi	a0,a0,-425 # e57 <.Lline_table_start1+0xc2c>
   14ab0:	4581                	li	a1,0
   14ab2:	0000b097          	auipc	ra,0xb
   14ab6:	0f2080e7          	jalr	242(ra) # 1fba4 <_ZN9allow_pin12dynamic_type7unshare17h0269127f30dbe29bE>
   14aba:	40ba                	lw	ra,140(sp)
   14abc:	442a                	lw	s0,136(sp)
   14abe:	449a                	lw	s1,132(sp)
   14ac0:	490a                	lw	s2,128(sp)
   14ac2:	59f6                	lw	s3,124(sp)
   14ac4:	6149                	addi	sp,sp,144
   14ac6:	8082                	ret

00014ac8 <_ZN20complex_dynamic_type3app17h61934c063e5c2c08E>:
   14ac8:	7131                	addi	sp,sp,-192
   14aca:	df06                	sw	ra,188(sp)
   14acc:	dd22                	sw	s0,184(sp)
   14ace:	db26                	sw	s1,180(sp)
   14ad0:	d94a                	sw	s2,176(sp)
   14ad2:	d74e                	sw	s3,172(sp)
   14ad4:	892a                	mv	s2,a0
   14ad6:	4489                	li	s1,2
   14ad8:	009105a3          	sb	s1,11(sp)
   14adc:	0060                	addi	s0,sp,12
   14ade:	05600613          	li	a2,86
   14ae2:	8522                	mv	a0,s0
   14ae4:	0000b097          	auipc	ra,0xb
   14ae8:	138080e7          	jalr	312(ra) # 1fc1c <memcpy>
   14aec:	06310993          	addi	s3,sp,99
   14af0:	04900613          	li	a2,73
   14af4:	854e                	mv	a0,s3
   14af6:	4581                	li	a1,0
   14af8:	0000b097          	auipc	ra,0xb
   14afc:	0b8080e7          	jalr	184(ra) # 1fbb0 <memset>
   14b00:	8622                	mv	a2,s0
   14b02:	06910123          	sb	s1,98(sp)
   14b06:	6509                	lui	a0,0x2
   14b08:	4791                	li	a5,4
   14b0a:	4599                	li	a1,6
   14b0c:	c6b50513          	addi	a0,a0,-917 # 1c6b <.Lline_table_start1+0x1a40>
   14b10:	05600693          	li	a3,86
   14b14:	4711                	li	a4,4
   14b16:	00000073          	ecall
   14b1a:	00950463          	beq	a0,s1,14b22 <_ZN20complex_dynamic_type3app17h61934c063e5c2c08E+0x5a>
   14b1e:	00f105a3          	sb	a5,11(sp)
   14b22:	4609                	li	a2,2
   14b24:	00c51463          	bne	a0,a2,14b2c <_ZN20complex_dynamic_type3app17h61934c063e5c2c08E+0x64>
   14b28:	4785                	li	a5,1
   14b2a:	a859                	j	14bc0 <_ZN20complex_dynamic_type3app17h61934c063e5c2c08E+0xf8>
   14b2c:	06214503          	lbu	a0,98(sp)
   14b30:	4785                	li	a5,1
   14b32:	02c51363          	bne	a0,a2,14b58 <_ZN20complex_dynamic_type3app17h61934c063e5c2c08E+0x90>
   14b36:	864e                	mv	a2,s3
   14b38:	6509                	lui	a0,0x2
   14b3a:	4599                	li	a1,6
   14b3c:	04900693          	li	a3,73
   14b40:	470d                	li	a4,3
   14b42:	c6b50513          	addi	a0,a0,-917 # 1c6b <.Lline_table_start1+0x1a40>
   14b46:	4489                	li	s1,2
   14b48:	00000073          	ecall
   14b4c:	460d                	li	a2,3
   14b4e:	00951963          	bne	a0,s1,14b60 <_ZN20complex_dynamic_type3app17h61934c063e5c2c08E+0x98>
   14b52:	4505                	li	a0,1
   14b54:	c911                	beqz	a0,14b68 <_ZN20complex_dynamic_type3app17h61934c063e5c2c08E+0xa0>
   14b56:	a0ad                	j	14bc0 <_ZN20complex_dynamic_type3app17h61934c063e5c2c08E+0xf8>
   14b58:	458d                	li	a1,3
   14b5a:	4505                	li	a0,1
   14b5c:	c511                	beqz	a0,14b68 <_ZN20complex_dynamic_type3app17h61934c063e5c2c08E+0xa0>
   14b5e:	a08d                	j	14bc0 <_ZN20complex_dynamic_type3app17h61934c063e5c2c08E+0xf8>
   14b60:	4501                	li	a0,0
   14b62:	06c10123          	sb	a2,98(sp)
   14b66:	ed29                	bnez	a0,14bc0 <_ZN20complex_dynamic_type3app17h61934c063e5c2c08E+0xf8>
   14b68:	4681                	li	a3,0
   14b6a:	6509                	lui	a0,0x2
   14b6c:	4599                	li	a1,6
   14b6e:	4619                	li	a2,6
   14b70:	4709                	li	a4,2
   14b72:	c6b50513          	addi	a0,a0,-917 # 1c6b <.Lline_table_start1+0x1a40>
   14b76:	07f00493          	li	s1,127
   14b7a:	00000073          	ecall
   14b7e:	4689                	li	a3,2
   14b80:	04a4f063          	bgeu	s1,a0,14bc0 <_ZN20complex_dynamic_type3app17h61934c063e5c2c08E+0xf8>
   14b84:	00b14603          	lbu	a2,11(sp)
   14b88:	00d60a63          	beq	a2,a3,14b9c <_ZN20complex_dynamic_type3app17h61934c063e5c2c08E+0xd4>
   14b8c:	6509                	lui	a0,0x2
   14b8e:	c6b50513          	addi	a0,a0,-917 # 1c6b <.Lline_table_start1+0x1a40>
   14b92:	4599                	li	a1,6
   14b94:	0000b097          	auipc	ra,0xb
   14b98:	010080e7          	jalr	16(ra) # 1fba4 <_ZN9allow_pin12dynamic_type7unshare17h0269127f30dbe29bE>
   14b9c:	06214603          	lbu	a2,98(sp)
   14ba0:	4409                	li	s0,2
   14ba2:	008105a3          	sb	s0,11(sp)
   14ba6:	00860a63          	beq	a2,s0,14bba <_ZN20complex_dynamic_type3app17h61934c063e5c2c08E+0xf2>
   14baa:	6509                	lui	a0,0x2
   14bac:	c6b50513          	addi	a0,a0,-917 # 1c6b <.Lline_table_start1+0x1a40>
   14bb0:	4599                	li	a1,6
   14bb2:	0000b097          	auipc	ra,0xb
   14bb6:	ff2080e7          	jalr	-14(ra) # 1fba4 <_ZN9allow_pin12dynamic_type7unshare17h0269127f30dbe29bE>
   14bba:	4781                	li	a5,0
   14bbc:	06810123          	sb	s0,98(sp)
   14bc0:	cb85                	beqz	a5,14bf0 <_ZN20complex_dynamic_type3app17h61934c063e5c2c08E+0x128>
   14bc2:	06214603          	lbu	a2,98(sp)
   14bc6:	4505                	li	a0,1
   14bc8:	4409                	li	s0,2
   14bca:	00a90023          	sb	a0,0(s2)
   14bce:	00b92223          	sw	a1,4(s2)
   14bd2:	00860a63          	beq	a2,s0,14be6 <_ZN20complex_dynamic_type3app17h61934c063e5c2c08E+0x11e>
   14bd6:	6509                	lui	a0,0x2
   14bd8:	c6b50513          	addi	a0,a0,-917 # 1c6b <.Lline_table_start1+0x1a40>
   14bdc:	4599                	li	a1,6
   14bde:	0000b097          	auipc	ra,0xb
   14be2:	fc6080e7          	jalr	-58(ra) # 1fba4 <_ZN9allow_pin12dynamic_type7unshare17h0269127f30dbe29bE>
   14be6:	00b14603          	lbu	a2,11(sp)
   14bea:	04861763          	bne	a2,s0,14c38 <_ZN20complex_dynamic_type3app17h61934c063e5c2c08E+0x170>
   14bee:	a8a9                	j	14c48 <_ZN20complex_dynamic_type3app17h61934c063e5c2c08E+0x180>
   14bf0:	06214403          	lbu	s0,98(sp)
   14bf4:	4489                	li	s1,2
   14bf6:	00940663          	beq	s0,s1,14c02 <_ZN20complex_dynamic_type3app17h61934c063e5c2c08E+0x13a>
   14bfa:	000109b7          	lui	s3,0x10
   14bfe:	6dd98993          	addi	s3,s3,1757 # 106dd <.Lanon.49c9f8067fe4468184af16d7576940c9.30>
   14c02:	00190513          	addi	a0,s2,1
   14c06:	04900613          	li	a2,73
   14c0a:	85ce                	mv	a1,s3
   14c0c:	0000b097          	auipc	ra,0xb
   14c10:	010080e7          	jalr	16(ra) # 1fc1c <memcpy>
   14c14:	00090023          	sb	zero,0(s2)
   14c18:	00940b63          	beq	s0,s1,14c2e <_ZN20complex_dynamic_type3app17h61934c063e5c2c08E+0x166>
   14c1c:	6509                	lui	a0,0x2
   14c1e:	c6b50513          	addi	a0,a0,-917 # 1c6b <.Lline_table_start1+0x1a40>
   14c22:	4599                	li	a1,6
   14c24:	8622                	mv	a2,s0
   14c26:	0000b097          	auipc	ra,0xb
   14c2a:	f7e080e7          	jalr	-130(ra) # 1fba4 <_ZN9allow_pin12dynamic_type7unshare17h0269127f30dbe29bE>
   14c2e:	00b14603          	lbu	a2,11(sp)
   14c32:	4509                	li	a0,2
   14c34:	00a60a63          	beq	a2,a0,14c48 <_ZN20complex_dynamic_type3app17h61934c063e5c2c08E+0x180>
   14c38:	6509                	lui	a0,0x2
   14c3a:	c6b50513          	addi	a0,a0,-917 # 1c6b <.Lline_table_start1+0x1a40>
   14c3e:	4599                	li	a1,6
   14c40:	0000b097          	auipc	ra,0xb
   14c44:	f64080e7          	jalr	-156(ra) # 1fba4 <_ZN9allow_pin12dynamic_type7unshare17h0269127f30dbe29bE>
   14c48:	50fa                	lw	ra,188(sp)
   14c4a:	546a                	lw	s0,184(sp)
   14c4c:	54da                	lw	s1,180(sp)
   14c4e:	594a                	lw	s2,176(sp)
   14c50:	59ba                	lw	s3,172(sp)
   14c52:	6129                	addi	sp,sp,192
   14c54:	8082                	ret

00014c56 <_ZN20complex_dynamic_type3app17h65df588b6d03fec5E>:
   14c56:	7159                	addi	sp,sp,-112
   14c58:	d686                	sw	ra,108(sp)
   14c5a:	d4a2                	sw	s0,104(sp)
   14c5c:	d2a6                	sw	s1,100(sp)
   14c5e:	d0ca                	sw	s2,96(sp)
   14c60:	cece                	sw	s3,92(sp)
   14c62:	892a                	mv	s2,a0
   14c64:	4489                	li	s1,2
   14c66:	00910523          	sb	s1,10(sp)
   14c6a:	00b10413          	addi	s0,sp,11
   14c6e:	03f00613          	li	a2,63
   14c72:	8522                	mv	a0,s0
   14c74:	0000b097          	auipc	ra,0xb
   14c78:	fa8080e7          	jalr	-88(ra) # 1fc1c <memcpy>
   14c7c:	04b10993          	addi	s3,sp,75
   14c80:	4645                	li	a2,17
   14c82:	854e                	mv	a0,s3
   14c84:	4581                	li	a1,0
   14c86:	0000b097          	auipc	ra,0xb
   14c8a:	f2a080e7          	jalr	-214(ra) # 1fbb0 <memset>
   14c8e:	8622                	mv	a2,s0
   14c90:	04910523          	sb	s1,74(sp)
   14c94:	6505                	lui	a0,0x1
   14c96:	4791                	li	a5,4
   14c98:	4591                	li	a1,4
   14c9a:	4d750513          	addi	a0,a0,1239 # 14d7 <.Lline_table_start1+0x12ac>
   14c9e:	03f00693          	li	a3,63
   14ca2:	4711                	li	a4,4
   14ca4:	00000073          	ecall
   14ca8:	00950463          	beq	a0,s1,14cb0 <_ZN20complex_dynamic_type3app17h65df588b6d03fec5E+0x5a>
   14cac:	00f10523          	sb	a5,10(sp)
   14cb0:	4609                	li	a2,2
   14cb2:	00c51463          	bne	a0,a2,14cba <_ZN20complex_dynamic_type3app17h65df588b6d03fec5E+0x64>
   14cb6:	4785                	li	a5,1
   14cb8:	a851                	j	14d4c <_ZN20complex_dynamic_type3app17h65df588b6d03fec5E+0xf6>
   14cba:	04a14503          	lbu	a0,74(sp)
   14cbe:	4785                	li	a5,1
   14cc0:	02c51263          	bne	a0,a2,14ce4 <_ZN20complex_dynamic_type3app17h65df588b6d03fec5E+0x8e>
   14cc4:	864e                	mv	a2,s3
   14cc6:	6505                	lui	a0,0x1
   14cc8:	458d                	li	a1,3
   14cca:	46c5                	li	a3,17
   14ccc:	470d                	li	a4,3
   14cce:	4d750513          	addi	a0,a0,1239 # 14d7 <.Lline_table_start1+0x12ac>
   14cd2:	4489                	li	s1,2
   14cd4:	00000073          	ecall
   14cd8:	460d                	li	a2,3
   14cda:	00951963          	bne	a0,s1,14cec <_ZN20complex_dynamic_type3app17h65df588b6d03fec5E+0x96>
   14cde:	4505                	li	a0,1
   14ce0:	c911                	beqz	a0,14cf4 <_ZN20complex_dynamic_type3app17h65df588b6d03fec5E+0x9e>
   14ce2:	a0ad                	j	14d4c <_ZN20complex_dynamic_type3app17h65df588b6d03fec5E+0xf6>
   14ce4:	458d                	li	a1,3
   14ce6:	4505                	li	a0,1
   14ce8:	c511                	beqz	a0,14cf4 <_ZN20complex_dynamic_type3app17h65df588b6d03fec5E+0x9e>
   14cea:	a08d                	j	14d4c <_ZN20complex_dynamic_type3app17h65df588b6d03fec5E+0xf6>
   14cec:	4501                	li	a0,0
   14cee:	04c10523          	sb	a2,74(sp)
   14cf2:	ed29                	bnez	a0,14d4c <_ZN20complex_dynamic_type3app17h65df588b6d03fec5E+0xf6>
   14cf4:	4681                	li	a3,0
   14cf6:	6505                	lui	a0,0x1
   14cf8:	4591                	li	a1,4
   14cfa:	460d                	li	a2,3
   14cfc:	4709                	li	a4,2
   14cfe:	4d750513          	addi	a0,a0,1239 # 14d7 <.Lline_table_start1+0x12ac>
   14d02:	07f00493          	li	s1,127
   14d06:	00000073          	ecall
   14d0a:	4689                	li	a3,2
   14d0c:	04a4f063          	bgeu	s1,a0,14d4c <_ZN20complex_dynamic_type3app17h65df588b6d03fec5E+0xf6>
   14d10:	00a14603          	lbu	a2,10(sp)
   14d14:	00d60a63          	beq	a2,a3,14d28 <_ZN20complex_dynamic_type3app17h65df588b6d03fec5E+0xd2>
   14d18:	6505                	lui	a0,0x1
   14d1a:	4d750513          	addi	a0,a0,1239 # 14d7 <.Lline_table_start1+0x12ac>
   14d1e:	4591                	li	a1,4
   14d20:	0000b097          	auipc	ra,0xb
   14d24:	e84080e7          	jalr	-380(ra) # 1fba4 <_ZN9allow_pin12dynamic_type7unshare17h0269127f30dbe29bE>
   14d28:	04a14603          	lbu	a2,74(sp)
   14d2c:	4409                	li	s0,2
   14d2e:	00810523          	sb	s0,10(sp)
   14d32:	00860a63          	beq	a2,s0,14d46 <_ZN20complex_dynamic_type3app17h65df588b6d03fec5E+0xf0>
   14d36:	6505                	lui	a0,0x1
   14d38:	4d750513          	addi	a0,a0,1239 # 14d7 <.Lline_table_start1+0x12ac>
   14d3c:	458d                	li	a1,3
   14d3e:	0000b097          	auipc	ra,0xb
   14d42:	e66080e7          	jalr	-410(ra) # 1fba4 <_ZN9allow_pin12dynamic_type7unshare17h0269127f30dbe29bE>
   14d46:	4781                	li	a5,0
   14d48:	04810523          	sb	s0,74(sp)
   14d4c:	cb85                	beqz	a5,14d7c <_ZN20complex_dynamic_type3app17h65df588b6d03fec5E+0x126>
   14d4e:	04a14603          	lbu	a2,74(sp)
   14d52:	4505                	li	a0,1
   14d54:	4409                	li	s0,2
   14d56:	00a90023          	sb	a0,0(s2)
   14d5a:	00b92223          	sw	a1,4(s2)
   14d5e:	00860a63          	beq	a2,s0,14d72 <_ZN20complex_dynamic_type3app17h65df588b6d03fec5E+0x11c>
   14d62:	6505                	lui	a0,0x1
   14d64:	4d750513          	addi	a0,a0,1239 # 14d7 <.Lline_table_start1+0x12ac>
   14d68:	458d                	li	a1,3
   14d6a:	0000b097          	auipc	ra,0xb
   14d6e:	e3a080e7          	jalr	-454(ra) # 1fba4 <_ZN9allow_pin12dynamic_type7unshare17h0269127f30dbe29bE>
   14d72:	00a14603          	lbu	a2,10(sp)
   14d76:	04861663          	bne	a2,s0,14dc2 <_ZN20complex_dynamic_type3app17h65df588b6d03fec5E+0x16c>
   14d7a:	a8a1                	j	14dd2 <_ZN20complex_dynamic_type3app17h65df588b6d03fec5E+0x17c>
   14d7c:	04a14403          	lbu	s0,74(sp)
   14d80:	4489                	li	s1,2
   14d82:	00940663          	beq	s0,s1,14d8e <_ZN20complex_dynamic_type3app17h65df588b6d03fec5E+0x138>
   14d86:	000109b7          	lui	s3,0x10
   14d8a:	49598993          	addi	s3,s3,1173 # 10495 <.Lanon.49c9f8067fe4468184af16d7576940c9.17>
   14d8e:	00190513          	addi	a0,s2,1
   14d92:	4645                	li	a2,17
   14d94:	85ce                	mv	a1,s3
   14d96:	0000b097          	auipc	ra,0xb
   14d9a:	e86080e7          	jalr	-378(ra) # 1fc1c <memcpy>
   14d9e:	00090023          	sb	zero,0(s2)
   14da2:	00940b63          	beq	s0,s1,14db8 <_ZN20complex_dynamic_type3app17h65df588b6d03fec5E+0x162>
   14da6:	6505                	lui	a0,0x1
   14da8:	4d750513          	addi	a0,a0,1239 # 14d7 <.Lline_table_start1+0x12ac>
   14dac:	458d                	li	a1,3
   14dae:	8622                	mv	a2,s0
   14db0:	0000b097          	auipc	ra,0xb
   14db4:	df4080e7          	jalr	-524(ra) # 1fba4 <_ZN9allow_pin12dynamic_type7unshare17h0269127f30dbe29bE>
   14db8:	00a14603          	lbu	a2,10(sp)
   14dbc:	4509                	li	a0,2
   14dbe:	00a60a63          	beq	a2,a0,14dd2 <_ZN20complex_dynamic_type3app17h65df588b6d03fec5E+0x17c>
   14dc2:	6505                	lui	a0,0x1
   14dc4:	4d750513          	addi	a0,a0,1239 # 14d7 <.Lline_table_start1+0x12ac>
   14dc8:	4591                	li	a1,4
   14dca:	0000b097          	auipc	ra,0xb
   14dce:	dda080e7          	jalr	-550(ra) # 1fba4 <_ZN9allow_pin12dynamic_type7unshare17h0269127f30dbe29bE>
   14dd2:	50b6                	lw	ra,108(sp)
   14dd4:	5426                	lw	s0,104(sp)
   14dd6:	5496                	lw	s1,100(sp)
   14dd8:	5906                	lw	s2,96(sp)
   14dda:	49f6                	lw	s3,92(sp)
   14ddc:	6165                	addi	sp,sp,112
   14dde:	8082                	ret

00014de0 <_ZN20complex_dynamic_type3app17h67de3ad01a43063aE>:
   14de0:	7159                	addi	sp,sp,-112
   14de2:	d686                	sw	ra,108(sp)
   14de4:	d4a2                	sw	s0,104(sp)
   14de6:	d2a6                	sw	s1,100(sp)
   14de8:	d0ca                	sw	s2,96(sp)
   14dea:	cece                	sw	s3,92(sp)
   14dec:	892a                	mv	s2,a0
   14dee:	4489                	li	s1,2
   14df0:	009104a3          	sb	s1,9(sp)
   14df4:	00a10413          	addi	s0,sp,10
   14df8:	02c00613          	li	a2,44
   14dfc:	8522                	mv	a0,s0
   14dfe:	0000b097          	auipc	ra,0xb
   14e02:	e1e080e7          	jalr	-482(ra) # 1fc1c <memcpy>
   14e06:	03710993          	addi	s3,sp,55
   14e0a:	02500613          	li	a2,37
   14e0e:	854e                	mv	a0,s3
   14e10:	4581                	li	a1,0
   14e12:	0000b097          	auipc	ra,0xb
   14e16:	d9e080e7          	jalr	-610(ra) # 1fbb0 <memset>
   14e1a:	8622                	mv	a2,s0
   14e1c:	02910b23          	sb	s1,54(sp)
   14e20:	4791                	li	a5,4
   14e22:	77f00513          	li	a0,1919
   14e26:	458d                	li	a1,3
   14e28:	02c00693          	li	a3,44
   14e2c:	4711                	li	a4,4
   14e2e:	00000073          	ecall
   14e32:	00950463          	beq	a0,s1,14e3a <_ZN20complex_dynamic_type3app17h67de3ad01a43063aE+0x5a>
   14e36:	00f104a3          	sb	a5,9(sp)
   14e3a:	4609                	li	a2,2
   14e3c:	00c51463          	bne	a0,a2,14e44 <_ZN20complex_dynamic_type3app17h67de3ad01a43063aE+0x64>
   14e40:	4785                	li	a5,1
   14e42:	a079                	j	14ed0 <_ZN20complex_dynamic_type3app17h67de3ad01a43063aE+0xf0>
   14e44:	03614503          	lbu	a0,54(sp)
   14e48:	4785                	li	a5,1
   14e4a:	02c51263          	bne	a0,a2,14e6e <_ZN20complex_dynamic_type3app17h67de3ad01a43063aE+0x8e>
   14e4e:	4581                	li	a1,0
   14e50:	864e                	mv	a2,s3
   14e52:	77f00513          	li	a0,1919
   14e56:	02500693          	li	a3,37
   14e5a:	470d                	li	a4,3
   14e5c:	4489                	li	s1,2
   14e5e:	00000073          	ecall
   14e62:	460d                	li	a2,3
   14e64:	00951963          	bne	a0,s1,14e76 <_ZN20complex_dynamic_type3app17h67de3ad01a43063aE+0x96>
   14e68:	4505                	li	a0,1
   14e6a:	c911                	beqz	a0,14e7e <_ZN20complex_dynamic_type3app17h67de3ad01a43063aE+0x9e>
   14e6c:	a095                	j	14ed0 <_ZN20complex_dynamic_type3app17h67de3ad01a43063aE+0xf0>
   14e6e:	458d                	li	a1,3
   14e70:	4505                	li	a0,1
   14e72:	c511                	beqz	a0,14e7e <_ZN20complex_dynamic_type3app17h67de3ad01a43063aE+0x9e>
   14e74:	a8b1                	j	14ed0 <_ZN20complex_dynamic_type3app17h67de3ad01a43063aE+0xf0>
   14e76:	4501                	li	a0,0
   14e78:	02c10b23          	sb	a2,54(sp)
   14e7c:	e931                	bnez	a0,14ed0 <_ZN20complex_dynamic_type3app17h67de3ad01a43063aE+0xf0>
   14e7e:	4601                	li	a2,0
   14e80:	4681                	li	a3,0
   14e82:	77f00513          	li	a0,1919
   14e86:	458d                	li	a1,3
   14e88:	4709                	li	a4,2
   14e8a:	07f00493          	li	s1,127
   14e8e:	00000073          	ecall
   14e92:	4689                	li	a3,2
   14e94:	02a4fe63          	bgeu	s1,a0,14ed0 <_ZN20complex_dynamic_type3app17h67de3ad01a43063aE+0xf0>
   14e98:	00914603          	lbu	a2,9(sp)
   14e9c:	00d60963          	beq	a2,a3,14eae <_ZN20complex_dynamic_type3app17h67de3ad01a43063aE+0xce>
   14ea0:	77f00513          	li	a0,1919
   14ea4:	458d                	li	a1,3
   14ea6:	0000b097          	auipc	ra,0xb
   14eaa:	cfe080e7          	jalr	-770(ra) # 1fba4 <_ZN9allow_pin12dynamic_type7unshare17h0269127f30dbe29bE>
   14eae:	03614603          	lbu	a2,54(sp)
   14eb2:	4409                	li	s0,2
   14eb4:	008104a3          	sb	s0,9(sp)
   14eb8:	00860963          	beq	a2,s0,14eca <_ZN20complex_dynamic_type3app17h67de3ad01a43063aE+0xea>
   14ebc:	77f00513          	li	a0,1919
   14ec0:	4581                	li	a1,0
   14ec2:	0000b097          	auipc	ra,0xb
   14ec6:	ce2080e7          	jalr	-798(ra) # 1fba4 <_ZN9allow_pin12dynamic_type7unshare17h0269127f30dbe29bE>
   14eca:	4781                	li	a5,0
   14ecc:	02810b23          	sb	s0,54(sp)
   14ed0:	c79d                	beqz	a5,14efe <_ZN20complex_dynamic_type3app17h67de3ad01a43063aE+0x11e>
   14ed2:	03614603          	lbu	a2,54(sp)
   14ed6:	4505                	li	a0,1
   14ed8:	4409                	li	s0,2
   14eda:	00a90023          	sb	a0,0(s2)
   14ede:	00b92223          	sw	a1,4(s2)
   14ee2:	00860963          	beq	a2,s0,14ef4 <_ZN20complex_dynamic_type3app17h67de3ad01a43063aE+0x114>
   14ee6:	77f00513          	li	a0,1919
   14eea:	4581                	li	a1,0
   14eec:	0000b097          	auipc	ra,0xb
   14ef0:	cb8080e7          	jalr	-840(ra) # 1fba4 <_ZN9allow_pin12dynamic_type7unshare17h0269127f30dbe29bE>
   14ef4:	00914603          	lbu	a2,9(sp)
   14ef8:	04861663          	bne	a2,s0,14f44 <_ZN20complex_dynamic_type3app17h67de3ad01a43063aE+0x164>
   14efc:	a899                	j	14f52 <_ZN20complex_dynamic_type3app17h67de3ad01a43063aE+0x172>
   14efe:	03614403          	lbu	s0,54(sp)
   14f02:	4489                	li	s1,2
   14f04:	00940663          	beq	s0,s1,14f10 <_ZN20complex_dynamic_type3app17h67de3ad01a43063aE+0x130>
   14f08:	000109b7          	lui	s3,0x10
   14f0c:	77d98993          	addi	s3,s3,1917 # 1077d <.Lanon.49c9f8067fe4468184af16d7576940c9.34>
   14f10:	00190513          	addi	a0,s2,1
   14f14:	02500613          	li	a2,37
   14f18:	85ce                	mv	a1,s3
   14f1a:	0000b097          	auipc	ra,0xb
   14f1e:	d02080e7          	jalr	-766(ra) # 1fc1c <memcpy>
   14f22:	00090023          	sb	zero,0(s2)
   14f26:	00940a63          	beq	s0,s1,14f3a <_ZN20complex_dynamic_type3app17h67de3ad01a43063aE+0x15a>
   14f2a:	77f00513          	li	a0,1919
   14f2e:	4581                	li	a1,0
   14f30:	8622                	mv	a2,s0
   14f32:	0000b097          	auipc	ra,0xb
   14f36:	c72080e7          	jalr	-910(ra) # 1fba4 <_ZN9allow_pin12dynamic_type7unshare17h0269127f30dbe29bE>
   14f3a:	00914603          	lbu	a2,9(sp)
   14f3e:	4509                	li	a0,2
   14f40:	00a60963          	beq	a2,a0,14f52 <_ZN20complex_dynamic_type3app17h67de3ad01a43063aE+0x172>
   14f44:	77f00513          	li	a0,1919
   14f48:	458d                	li	a1,3
   14f4a:	0000b097          	auipc	ra,0xb
   14f4e:	c5a080e7          	jalr	-934(ra) # 1fba4 <_ZN9allow_pin12dynamic_type7unshare17h0269127f30dbe29bE>
   14f52:	50b6                	lw	ra,108(sp)
   14f54:	5426                	lw	s0,104(sp)
   14f56:	5496                	lw	s1,100(sp)
   14f58:	5906                	lw	s2,96(sp)
   14f5a:	49f6                	lw	s3,92(sp)
   14f5c:	6165                	addi	sp,sp,112
   14f5e:	8082                	ret

00014f60 <_ZN20complex_dynamic_type3app17h67fac538334e5766E>:
   14f60:	7135                	addi	sp,sp,-160
   14f62:	cf06                	sw	ra,156(sp)
   14f64:	cd22                	sw	s0,152(sp)
   14f66:	cb26                	sw	s1,148(sp)
   14f68:	c94a                	sw	s2,144(sp)
   14f6a:	c74e                	sw	s3,140(sp)
   14f6c:	892a                	mv	s2,a0
   14f6e:	4489                	li	s1,2
   14f70:	009101a3          	sb	s1,3(sp)
   14f74:	0040                	addi	s0,sp,4
   14f76:	05500613          	li	a2,85
   14f7a:	8522                	mv	a0,s0
   14f7c:	0000b097          	auipc	ra,0xb
   14f80:	ca0080e7          	jalr	-864(ra) # 1fc1c <memcpy>
   14f84:	05a10993          	addi	s3,sp,90
   14f88:	03200613          	li	a2,50
   14f8c:	854e                	mv	a0,s3
   14f8e:	4581                	li	a1,0
   14f90:	0000b097          	auipc	ra,0xb
   14f94:	c20080e7          	jalr	-992(ra) # 1fbb0 <memset>
   14f98:	8622                	mv	a2,s0
   14f9a:	04910ca3          	sb	s1,89(sp)
   14f9e:	6509                	lui	a0,0x2
   14fa0:	4791                	li	a5,4
   14fa2:	45a1                	li	a1,8
   14fa4:	09550513          	addi	a0,a0,149 # 2095 <.Lline_table_start1+0x1e6a>
   14fa8:	05500693          	li	a3,85
   14fac:	4711                	li	a4,4
   14fae:	00000073          	ecall
   14fb2:	00950463          	beq	a0,s1,14fba <_ZN20complex_dynamic_type3app17h67fac538334e5766E+0x5a>
   14fb6:	00f101a3          	sb	a5,3(sp)
   14fba:	4609                	li	a2,2
   14fbc:	00c51463          	bne	a0,a2,14fc4 <_ZN20complex_dynamic_type3app17h67fac538334e5766E+0x64>
   14fc0:	4785                	li	a5,1
   14fc2:	a859                	j	15058 <_ZN20complex_dynamic_type3app17h67fac538334e5766E+0xf8>
   14fc4:	05914503          	lbu	a0,89(sp)
   14fc8:	4785                	li	a5,1
   14fca:	02c51363          	bne	a0,a2,14ff0 <_ZN20complex_dynamic_type3app17h67fac538334e5766E+0x90>
   14fce:	864e                	mv	a2,s3
   14fd0:	6509                	lui	a0,0x2
   14fd2:	45a1                	li	a1,8
   14fd4:	03200693          	li	a3,50
   14fd8:	470d                	li	a4,3
   14fda:	09550513          	addi	a0,a0,149 # 2095 <.Lline_table_start1+0x1e6a>
   14fde:	4489                	li	s1,2
   14fe0:	00000073          	ecall
   14fe4:	460d                	li	a2,3
   14fe6:	00951963          	bne	a0,s1,14ff8 <_ZN20complex_dynamic_type3app17h67fac538334e5766E+0x98>
   14fea:	4505                	li	a0,1
   14fec:	c911                	beqz	a0,15000 <_ZN20complex_dynamic_type3app17h67fac538334e5766E+0xa0>
   14fee:	a0ad                	j	15058 <_ZN20complex_dynamic_type3app17h67fac538334e5766E+0xf8>
   14ff0:	458d                	li	a1,3
   14ff2:	4505                	li	a0,1
   14ff4:	c511                	beqz	a0,15000 <_ZN20complex_dynamic_type3app17h67fac538334e5766E+0xa0>
   14ff6:	a08d                	j	15058 <_ZN20complex_dynamic_type3app17h67fac538334e5766E+0xf8>
   14ff8:	4501                	li	a0,0
   14ffa:	04c10ca3          	sb	a2,89(sp)
   14ffe:	ed29                	bnez	a0,15058 <_ZN20complex_dynamic_type3app17h67fac538334e5766E+0xf8>
   15000:	4681                	li	a3,0
   15002:	6509                	lui	a0,0x2
   15004:	45a1                	li	a1,8
   15006:	4621                	li	a2,8
   15008:	4709                	li	a4,2
   1500a:	09550513          	addi	a0,a0,149 # 2095 <.Lline_table_start1+0x1e6a>
   1500e:	07f00493          	li	s1,127
   15012:	00000073          	ecall
   15016:	4689                	li	a3,2
   15018:	04a4f063          	bgeu	s1,a0,15058 <_ZN20complex_dynamic_type3app17h67fac538334e5766E+0xf8>
   1501c:	00314603          	lbu	a2,3(sp)
   15020:	00d60a63          	beq	a2,a3,15034 <_ZN20complex_dynamic_type3app17h67fac538334e5766E+0xd4>
   15024:	6509                	lui	a0,0x2
   15026:	09550513          	addi	a0,a0,149 # 2095 <.Lline_table_start1+0x1e6a>
   1502a:	45a1                	li	a1,8
   1502c:	0000b097          	auipc	ra,0xb
   15030:	b78080e7          	jalr	-1160(ra) # 1fba4 <_ZN9allow_pin12dynamic_type7unshare17h0269127f30dbe29bE>
   15034:	05914603          	lbu	a2,89(sp)
   15038:	4409                	li	s0,2
   1503a:	008101a3          	sb	s0,3(sp)
   1503e:	00860a63          	beq	a2,s0,15052 <_ZN20complex_dynamic_type3app17h67fac538334e5766E+0xf2>
   15042:	6509                	lui	a0,0x2
   15044:	09550513          	addi	a0,a0,149 # 2095 <.Lline_table_start1+0x1e6a>
   15048:	45a1                	li	a1,8
   1504a:	0000b097          	auipc	ra,0xb
   1504e:	b5a080e7          	jalr	-1190(ra) # 1fba4 <_ZN9allow_pin12dynamic_type7unshare17h0269127f30dbe29bE>
   15052:	4781                	li	a5,0
   15054:	04810ca3          	sb	s0,89(sp)
   15058:	cb85                	beqz	a5,15088 <_ZN20complex_dynamic_type3app17h67fac538334e5766E+0x128>
   1505a:	05914603          	lbu	a2,89(sp)
   1505e:	4505                	li	a0,1
   15060:	4409                	li	s0,2
   15062:	00a90023          	sb	a0,0(s2)
   15066:	00b92223          	sw	a1,4(s2)
   1506a:	00860a63          	beq	a2,s0,1507e <_ZN20complex_dynamic_type3app17h67fac538334e5766E+0x11e>
   1506e:	6509                	lui	a0,0x2
   15070:	09550513          	addi	a0,a0,149 # 2095 <.Lline_table_start1+0x1e6a>
   15074:	45a1                	li	a1,8
   15076:	0000b097          	auipc	ra,0xb
   1507a:	b2e080e7          	jalr	-1234(ra) # 1fba4 <_ZN9allow_pin12dynamic_type7unshare17h0269127f30dbe29bE>
   1507e:	00314603          	lbu	a2,3(sp)
   15082:	04861763          	bne	a2,s0,150d0 <_ZN20complex_dynamic_type3app17h67fac538334e5766E+0x170>
   15086:	a8a9                	j	150e0 <_ZN20complex_dynamic_type3app17h67fac538334e5766E+0x180>
   15088:	05914403          	lbu	s0,89(sp)
   1508c:	4489                	li	s1,2
   1508e:	00940663          	beq	s0,s1,1509a <_ZN20complex_dynamic_type3app17h67fac538334e5766E+0x13a>
   15092:	000119b7          	lui	s3,0x11
   15096:	83398993          	addi	s3,s3,-1997 # 10833 <.Lanon.49c9f8067fe4468184af16d7576940c9.37>
   1509a:	00190513          	addi	a0,s2,1
   1509e:	03200613          	li	a2,50
   150a2:	85ce                	mv	a1,s3
   150a4:	0000b097          	auipc	ra,0xb
   150a8:	b78080e7          	jalr	-1160(ra) # 1fc1c <memcpy>
   150ac:	00090023          	sb	zero,0(s2)
   150b0:	00940b63          	beq	s0,s1,150c6 <_ZN20complex_dynamic_type3app17h67fac538334e5766E+0x166>
   150b4:	6509                	lui	a0,0x2
   150b6:	09550513          	addi	a0,a0,149 # 2095 <.Lline_table_start1+0x1e6a>
   150ba:	45a1                	li	a1,8
   150bc:	8622                	mv	a2,s0
   150be:	0000b097          	auipc	ra,0xb
   150c2:	ae6080e7          	jalr	-1306(ra) # 1fba4 <_ZN9allow_pin12dynamic_type7unshare17h0269127f30dbe29bE>
   150c6:	00314603          	lbu	a2,3(sp)
   150ca:	4509                	li	a0,2
   150cc:	00a60a63          	beq	a2,a0,150e0 <_ZN20complex_dynamic_type3app17h67fac538334e5766E+0x180>
   150d0:	6509                	lui	a0,0x2
   150d2:	09550513          	addi	a0,a0,149 # 2095 <.Lline_table_start1+0x1e6a>
   150d6:	45a1                	li	a1,8
   150d8:	0000b097          	auipc	ra,0xb
   150dc:	acc080e7          	jalr	-1332(ra) # 1fba4 <_ZN9allow_pin12dynamic_type7unshare17h0269127f30dbe29bE>
   150e0:	40fa                	lw	ra,156(sp)
   150e2:	446a                	lw	s0,152(sp)
   150e4:	44da                	lw	s1,148(sp)
   150e6:	494a                	lw	s2,144(sp)
   150e8:	49ba                	lw	s3,140(sp)
   150ea:	610d                	addi	sp,sp,160
   150ec:	8082                	ret

000150ee <_ZN20complex_dynamic_type3app17h69af5f1ff569be53E>:
   150ee:	7119                	addi	sp,sp,-128
   150f0:	de86                	sw	ra,124(sp)
   150f2:	dca2                	sw	s0,120(sp)
   150f4:	daa6                	sw	s1,116(sp)
   150f6:	d8ca                	sw	s2,112(sp)
   150f8:	d6ce                	sw	s3,108(sp)
   150fa:	892a                	mv	s2,a0
   150fc:	4489                	li	s1,2
   150fe:	009105a3          	sb	s1,11(sp)
   15102:	0060                	addi	s0,sp,12
   15104:	03800613          	li	a2,56
   15108:	8522                	mv	a0,s0
   1510a:	0000b097          	auipc	ra,0xb
   1510e:	b12080e7          	jalr	-1262(ra) # 1fc1c <memcpy>
   15112:	04510993          	addi	s3,sp,69
   15116:	02700613          	li	a2,39
   1511a:	854e                	mv	a0,s3
   1511c:	4581                	li	a1,0
   1511e:	0000b097          	auipc	ra,0xb
   15122:	a92080e7          	jalr	-1390(ra) # 1fbb0 <memset>
   15126:	8622                	mv	a2,s0
   15128:	04910223          	sb	s1,68(sp)
   1512c:	6505                	lui	a0,0x1
   1512e:	4791                	li	a5,4
   15130:	4589                	li	a1,2
   15132:	e2b50513          	addi	a0,a0,-469 # e2b <.Lline_table_start1+0xc00>
   15136:	03800693          	li	a3,56
   1513a:	4711                	li	a4,4
   1513c:	00000073          	ecall
   15140:	00950463          	beq	a0,s1,15148 <_ZN20complex_dynamic_type3app17h69af5f1ff569be53E+0x5a>
   15144:	00f105a3          	sb	a5,11(sp)
   15148:	4609                	li	a2,2
   1514a:	00c51463          	bne	a0,a2,15152 <_ZN20complex_dynamic_type3app17h69af5f1ff569be53E+0x64>
   1514e:	4785                	li	a5,1
   15150:	a859                	j	151e6 <_ZN20complex_dynamic_type3app17h69af5f1ff569be53E+0xf8>
   15152:	04414503          	lbu	a0,68(sp)
   15156:	4785                	li	a5,1
   15158:	02c51363          	bne	a0,a2,1517e <_ZN20complex_dynamic_type3app17h69af5f1ff569be53E+0x90>
   1515c:	864e                	mv	a2,s3
   1515e:	6505                	lui	a0,0x1
   15160:	45a1                	li	a1,8
   15162:	02700693          	li	a3,39
   15166:	470d                	li	a4,3
   15168:	e2b50513          	addi	a0,a0,-469 # e2b <.Lline_table_start1+0xc00>
   1516c:	4489                	li	s1,2
   1516e:	00000073          	ecall
   15172:	460d                	li	a2,3
   15174:	00951963          	bne	a0,s1,15186 <_ZN20complex_dynamic_type3app17h69af5f1ff569be53E+0x98>
   15178:	4505                	li	a0,1
   1517a:	c911                	beqz	a0,1518e <_ZN20complex_dynamic_type3app17h69af5f1ff569be53E+0xa0>
   1517c:	a0ad                	j	151e6 <_ZN20complex_dynamic_type3app17h69af5f1ff569be53E+0xf8>
   1517e:	458d                	li	a1,3
   15180:	4505                	li	a0,1
   15182:	c511                	beqz	a0,1518e <_ZN20complex_dynamic_type3app17h69af5f1ff569be53E+0xa0>
   15184:	a08d                	j	151e6 <_ZN20complex_dynamic_type3app17h69af5f1ff569be53E+0xf8>
   15186:	4501                	li	a0,0
   15188:	04c10223          	sb	a2,68(sp)
   1518c:	ed29                	bnez	a0,151e6 <_ZN20complex_dynamic_type3app17h69af5f1ff569be53E+0xf8>
   1518e:	4681                	li	a3,0
   15190:	6505                	lui	a0,0x1
   15192:	4589                	li	a1,2
   15194:	4621                	li	a2,8
   15196:	4709                	li	a4,2
   15198:	e2b50513          	addi	a0,a0,-469 # e2b <.Lline_table_start1+0xc00>
   1519c:	07f00493          	li	s1,127
   151a0:	00000073          	ecall
   151a4:	4689                	li	a3,2
   151a6:	04a4f063          	bgeu	s1,a0,151e6 <_ZN20complex_dynamic_type3app17h69af5f1ff569be53E+0xf8>
   151aa:	00b14603          	lbu	a2,11(sp)
   151ae:	00d60a63          	beq	a2,a3,151c2 <_ZN20complex_dynamic_type3app17h69af5f1ff569be53E+0xd4>
   151b2:	6505                	lui	a0,0x1
   151b4:	e2b50513          	addi	a0,a0,-469 # e2b <.Lline_table_start1+0xc00>
   151b8:	4589                	li	a1,2
   151ba:	0000b097          	auipc	ra,0xb
   151be:	9ea080e7          	jalr	-1558(ra) # 1fba4 <_ZN9allow_pin12dynamic_type7unshare17h0269127f30dbe29bE>
   151c2:	04414603          	lbu	a2,68(sp)
   151c6:	4409                	li	s0,2
   151c8:	008105a3          	sb	s0,11(sp)
   151cc:	00860a63          	beq	a2,s0,151e0 <_ZN20complex_dynamic_type3app17h69af5f1ff569be53E+0xf2>
   151d0:	6505                	lui	a0,0x1
   151d2:	e2b50513          	addi	a0,a0,-469 # e2b <.Lline_table_start1+0xc00>
   151d6:	45a1                	li	a1,8
   151d8:	0000b097          	auipc	ra,0xb
   151dc:	9cc080e7          	jalr	-1588(ra) # 1fba4 <_ZN9allow_pin12dynamic_type7unshare17h0269127f30dbe29bE>
   151e0:	4781                	li	a5,0
   151e2:	04810223          	sb	s0,68(sp)
   151e6:	cb85                	beqz	a5,15216 <_ZN20complex_dynamic_type3app17h69af5f1ff569be53E+0x128>
   151e8:	04414603          	lbu	a2,68(sp)
   151ec:	4505                	li	a0,1
   151ee:	4409                	li	s0,2
   151f0:	00a90023          	sb	a0,0(s2)
   151f4:	00b92223          	sw	a1,4(s2)
   151f8:	00860a63          	beq	a2,s0,1520c <_ZN20complex_dynamic_type3app17h69af5f1ff569be53E+0x11e>
   151fc:	6505                	lui	a0,0x1
   151fe:	e2b50513          	addi	a0,a0,-469 # e2b <.Lline_table_start1+0xc00>
   15202:	45a1                	li	a1,8
   15204:	0000b097          	auipc	ra,0xb
   15208:	9a0080e7          	jalr	-1632(ra) # 1fba4 <_ZN9allow_pin12dynamic_type7unshare17h0269127f30dbe29bE>
   1520c:	00b14603          	lbu	a2,11(sp)
   15210:	04861763          	bne	a2,s0,1525e <_ZN20complex_dynamic_type3app17h69af5f1ff569be53E+0x170>
   15214:	a8a9                	j	1526e <_ZN20complex_dynamic_type3app17h69af5f1ff569be53E+0x180>
   15216:	04414403          	lbu	s0,68(sp)
   1521a:	4489                	li	s1,2
   1521c:	00940663          	beq	s0,s1,15228 <_ZN20complex_dynamic_type3app17h69af5f1ff569be53E+0x13a>
   15220:	000109b7          	lui	s3,0x10
   15224:	30a98993          	addi	s3,s3,778 # 1030a <.Lanon.49c9f8067fe4468184af16d7576940c9.8>
   15228:	00190513          	addi	a0,s2,1
   1522c:	02700613          	li	a2,39
   15230:	85ce                	mv	a1,s3
   15232:	0000b097          	auipc	ra,0xb
   15236:	9ea080e7          	jalr	-1558(ra) # 1fc1c <memcpy>
   1523a:	00090023          	sb	zero,0(s2)
   1523e:	00940b63          	beq	s0,s1,15254 <_ZN20complex_dynamic_type3app17h69af5f1ff569be53E+0x166>
   15242:	6505                	lui	a0,0x1
   15244:	e2b50513          	addi	a0,a0,-469 # e2b <.Lline_table_start1+0xc00>
   15248:	45a1                	li	a1,8
   1524a:	8622                	mv	a2,s0
   1524c:	0000b097          	auipc	ra,0xb
   15250:	958080e7          	jalr	-1704(ra) # 1fba4 <_ZN9allow_pin12dynamic_type7unshare17h0269127f30dbe29bE>
   15254:	00b14603          	lbu	a2,11(sp)
   15258:	4509                	li	a0,2
   1525a:	00a60a63          	beq	a2,a0,1526e <_ZN20complex_dynamic_type3app17h69af5f1ff569be53E+0x180>
   1525e:	6505                	lui	a0,0x1
   15260:	e2b50513          	addi	a0,a0,-469 # e2b <.Lline_table_start1+0xc00>
   15264:	4589                	li	a1,2
   15266:	0000b097          	auipc	ra,0xb
   1526a:	93e080e7          	jalr	-1730(ra) # 1fba4 <_ZN9allow_pin12dynamic_type7unshare17h0269127f30dbe29bE>
   1526e:	50f6                	lw	ra,124(sp)
   15270:	5466                	lw	s0,120(sp)
   15272:	54d6                	lw	s1,116(sp)
   15274:	5946                	lw	s2,112(sp)
   15276:	59b6                	lw	s3,108(sp)
   15278:	6109                	addi	sp,sp,128
   1527a:	8082                	ret

0001527c <_ZN20complex_dynamic_type3app17h6a5c8a4b737b2618E>:
   1527c:	7175                	addi	sp,sp,-144
   1527e:	c706                	sw	ra,140(sp)
   15280:	c522                	sw	s0,136(sp)
   15282:	c326                	sw	s1,132(sp)
   15284:	c14a                	sw	s2,128(sp)
   15286:	dece                	sw	s3,124(sp)
   15288:	892a                	mv	s2,a0
   1528a:	4489                	li	s1,2
   1528c:	00910723          	sb	s1,14(sp)
   15290:	00f10413          	addi	s0,sp,15
   15294:	04900613          	li	a2,73
   15298:	8522                	mv	a0,s0
   1529a:	0000b097          	auipc	ra,0xb
   1529e:	982080e7          	jalr	-1662(ra) # 1fc1c <memcpy>
   152a2:	05910993          	addi	s3,sp,89
   152a6:	02300613          	li	a2,35
   152aa:	854e                	mv	a0,s3
   152ac:	4581                	li	a1,0
   152ae:	0000b097          	auipc	ra,0xb
   152b2:	902080e7          	jalr	-1790(ra) # 1fbb0 <memset>
   152b6:	8622                	mv	a2,s0
   152b8:	04910c23          	sb	s1,88(sp)
   152bc:	6505                	lui	a0,0x1
   152be:	4791                	li	a5,4
   152c0:	459d                	li	a1,7
   152c2:	55150513          	addi	a0,a0,1361 # 1551 <.Lline_table_start1+0x1326>
   152c6:	04900693          	li	a3,73
   152ca:	4711                	li	a4,4
   152cc:	00000073          	ecall
   152d0:	00950463          	beq	a0,s1,152d8 <_ZN20complex_dynamic_type3app17h6a5c8a4b737b2618E+0x5c>
   152d4:	00f10723          	sb	a5,14(sp)
   152d8:	4609                	li	a2,2
   152da:	00c51463          	bne	a0,a2,152e2 <_ZN20complex_dynamic_type3app17h6a5c8a4b737b2618E+0x66>
   152de:	4785                	li	a5,1
   152e0:	a849                	j	15372 <_ZN20complex_dynamic_type3app17h6a5c8a4b737b2618E+0xf6>
   152e2:	05814503          	lbu	a0,88(sp)
   152e6:	4785                	li	a5,1
   152e8:	02c51563          	bne	a0,a2,15312 <_ZN20complex_dynamic_type3app17h6a5c8a4b737b2618E+0x96>
   152ec:	864e                	mv	a2,s3
   152ee:	6505                	lui	a0,0x1
   152f0:	4405                	li	s0,1
   152f2:	4585                	li	a1,1
   152f4:	02300693          	li	a3,35
   152f8:	470d                	li	a4,3
   152fa:	55150513          	addi	a0,a0,1361 # 1551 <.Lline_table_start1+0x1326>
   152fe:	4489                	li	s1,2
   15300:	00000073          	ecall
   15304:	460d                	li	a2,3
   15306:	00950863          	beq	a0,s1,15316 <_ZN20complex_dynamic_type3app17h6a5c8a4b737b2618E+0x9a>
   1530a:	4401                	li	s0,0
   1530c:	04c10c23          	sb	a2,88(sp)
   15310:	a019                	j	15316 <_ZN20complex_dynamic_type3app17h6a5c8a4b737b2618E+0x9a>
   15312:	458d                	li	a1,3
   15314:	4405                	li	s0,1
   15316:	ec31                	bnez	s0,15372 <_ZN20complex_dynamic_type3app17h6a5c8a4b737b2618E+0xf6>
   15318:	4681                	li	a3,0
   1531a:	6505                	lui	a0,0x1
   1531c:	4785                	li	a5,1
   1531e:	459d                	li	a1,7
   15320:	4605                	li	a2,1
   15322:	4709                	li	a4,2
   15324:	55150513          	addi	a0,a0,1361 # 1551 <.Lline_table_start1+0x1326>
   15328:	07f00493          	li	s1,127
   1532c:	00000073          	ecall
   15330:	4689                	li	a3,2
   15332:	04a4f063          	bgeu	s1,a0,15372 <_ZN20complex_dynamic_type3app17h6a5c8a4b737b2618E+0xf6>
   15336:	00e14603          	lbu	a2,14(sp)
   1533a:	00d60a63          	beq	a2,a3,1534e <_ZN20complex_dynamic_type3app17h6a5c8a4b737b2618E+0xd2>
   1533e:	6505                	lui	a0,0x1
   15340:	55150513          	addi	a0,a0,1361 # 1551 <.Lline_table_start1+0x1326>
   15344:	459d                	li	a1,7
   15346:	0000b097          	auipc	ra,0xb
   1534a:	85e080e7          	jalr	-1954(ra) # 1fba4 <_ZN9allow_pin12dynamic_type7unshare17h0269127f30dbe29bE>
   1534e:	05814603          	lbu	a2,88(sp)
   15352:	4409                	li	s0,2
   15354:	00810723          	sb	s0,14(sp)
   15358:	00860a63          	beq	a2,s0,1536c <_ZN20complex_dynamic_type3app17h6a5c8a4b737b2618E+0xf0>
   1535c:	6505                	lui	a0,0x1
   1535e:	55150513          	addi	a0,a0,1361 # 1551 <.Lline_table_start1+0x1326>
   15362:	4585                	li	a1,1
   15364:	0000b097          	auipc	ra,0xb
   15368:	840080e7          	jalr	-1984(ra) # 1fba4 <_ZN9allow_pin12dynamic_type7unshare17h0269127f30dbe29bE>
   1536c:	4781                	li	a5,0
   1536e:	04810c23          	sb	s0,88(sp)
   15372:	cb85                	beqz	a5,153a2 <_ZN20complex_dynamic_type3app17h6a5c8a4b737b2618E+0x126>
   15374:	05814603          	lbu	a2,88(sp)
   15378:	4505                	li	a0,1
   1537a:	4409                	li	s0,2
   1537c:	00a90023          	sb	a0,0(s2)
   15380:	00b92223          	sw	a1,4(s2)
   15384:	00860a63          	beq	a2,s0,15398 <_ZN20complex_dynamic_type3app17h6a5c8a4b737b2618E+0x11c>
   15388:	6505                	lui	a0,0x1
   1538a:	55150513          	addi	a0,a0,1361 # 1551 <.Lline_table_start1+0x1326>
   1538e:	4585                	li	a1,1
   15390:	0000b097          	auipc	ra,0xb
   15394:	814080e7          	jalr	-2028(ra) # 1fba4 <_ZN9allow_pin12dynamic_type7unshare17h0269127f30dbe29bE>
   15398:	00e14603          	lbu	a2,14(sp)
   1539c:	04861763          	bne	a2,s0,153ea <_ZN20complex_dynamic_type3app17h6a5c8a4b737b2618E+0x16e>
   153a0:	a8a9                	j	153fa <_ZN20complex_dynamic_type3app17h6a5c8a4b737b2618E+0x17e>
   153a2:	05814403          	lbu	s0,88(sp)
   153a6:	4489                	li	s1,2
   153a8:	00940663          	beq	s0,s1,153b4 <_ZN20complex_dynamic_type3app17h6a5c8a4b737b2618E+0x138>
   153ac:	000109b7          	lui	s3,0x10
   153b0:	5db98993          	addi	s3,s3,1499 # 105db <.Lanon.49c9f8067fe4468184af16d7576940c9.25>
   153b4:	00190513          	addi	a0,s2,1
   153b8:	02300613          	li	a2,35
   153bc:	85ce                	mv	a1,s3
   153be:	0000b097          	auipc	ra,0xb
   153c2:	85e080e7          	jalr	-1954(ra) # 1fc1c <memcpy>
   153c6:	00090023          	sb	zero,0(s2)
   153ca:	00940b63          	beq	s0,s1,153e0 <_ZN20complex_dynamic_type3app17h6a5c8a4b737b2618E+0x164>
   153ce:	6505                	lui	a0,0x1
   153d0:	55150513          	addi	a0,a0,1361 # 1551 <.Lline_table_start1+0x1326>
   153d4:	4585                	li	a1,1
   153d6:	8622                	mv	a2,s0
   153d8:	0000a097          	auipc	ra,0xa
   153dc:	7cc080e7          	jalr	1996(ra) # 1fba4 <_ZN9allow_pin12dynamic_type7unshare17h0269127f30dbe29bE>
   153e0:	00e14603          	lbu	a2,14(sp)
   153e4:	4509                	li	a0,2
   153e6:	00a60a63          	beq	a2,a0,153fa <_ZN20complex_dynamic_type3app17h6a5c8a4b737b2618E+0x17e>
   153ea:	6505                	lui	a0,0x1
   153ec:	55150513          	addi	a0,a0,1361 # 1551 <.Lline_table_start1+0x1326>
   153f0:	459d                	li	a1,7
   153f2:	0000a097          	auipc	ra,0xa
   153f6:	7b2080e7          	jalr	1970(ra) # 1fba4 <_ZN9allow_pin12dynamic_type7unshare17h0269127f30dbe29bE>
   153fa:	40ba                	lw	ra,140(sp)
   153fc:	442a                	lw	s0,136(sp)
   153fe:	449a                	lw	s1,132(sp)
   15400:	490a                	lw	s2,128(sp)
   15402:	59f6                	lw	s3,124(sp)
   15404:	6149                	addi	sp,sp,144
   15406:	8082                	ret

00015408 <_ZN20complex_dynamic_type3app17h6ce48b793c44cd50E>:
   15408:	7119                	addi	sp,sp,-128
   1540a:	de86                	sw	ra,124(sp)
   1540c:	dca2                	sw	s0,120(sp)
   1540e:	daa6                	sw	s1,116(sp)
   15410:	d8ca                	sw	s2,112(sp)
   15412:	d6ce                	sw	s3,108(sp)
   15414:	892a                	mv	s2,a0
   15416:	4489                	li	s1,2
   15418:	00910523          	sb	s1,10(sp)
   1541c:	00b10413          	addi	s0,sp,11
   15420:	05100613          	li	a2,81
   15424:	8522                	mv	a0,s0
   15426:	0000a097          	auipc	ra,0xa
   1542a:	7f6080e7          	jalr	2038(ra) # 1fc1c <memcpy>
   1542e:	05d10993          	addi	s3,sp,93
   15432:	463d                	li	a2,15
   15434:	854e                	mv	a0,s3
   15436:	4581                	li	a1,0
   15438:	0000a097          	auipc	ra,0xa
   1543c:	778080e7          	jalr	1912(ra) # 1fbb0 <memset>
   15440:	4581                	li	a1,0
   15442:	8622                	mv	a2,s0
   15444:	04910e23          	sb	s1,92(sp)
   15448:	6505                	lui	a0,0x1
   1544a:	4791                	li	a5,4
   1544c:	3bf50513          	addi	a0,a0,959 # 13bf <.Lline_table_start1+0x1194>
   15450:	05100693          	li	a3,81
   15454:	4711                	li	a4,4
   15456:	00000073          	ecall
   1545a:	00950463          	beq	a0,s1,15462 <_ZN20complex_dynamic_type3app17h6ce48b793c44cd50E+0x5a>
   1545e:	00f10523          	sb	a5,10(sp)
   15462:	4609                	li	a2,2
   15464:	00c51463          	bne	a0,a2,1546c <_ZN20complex_dynamic_type3app17h6ce48b793c44cd50E+0x64>
   15468:	4785                	li	a5,1
   1546a:	a851                	j	154fe <_ZN20complex_dynamic_type3app17h6ce48b793c44cd50E+0xf6>
   1546c:	05c14503          	lbu	a0,92(sp)
   15470:	4785                	li	a5,1
   15472:	02c51263          	bne	a0,a2,15496 <_ZN20complex_dynamic_type3app17h6ce48b793c44cd50E+0x8e>
   15476:	864e                	mv	a2,s3
   15478:	6505                	lui	a0,0x1
   1547a:	458d                	li	a1,3
   1547c:	46bd                	li	a3,15
   1547e:	470d                	li	a4,3
   15480:	3bf50513          	addi	a0,a0,959 # 13bf <.Lline_table_start1+0x1194>
   15484:	4489                	li	s1,2
   15486:	00000073          	ecall
   1548a:	460d                	li	a2,3
   1548c:	00951963          	bne	a0,s1,1549e <_ZN20complex_dynamic_type3app17h6ce48b793c44cd50E+0x96>
   15490:	4505                	li	a0,1
   15492:	c911                	beqz	a0,154a6 <_ZN20complex_dynamic_type3app17h6ce48b793c44cd50E+0x9e>
   15494:	a0ad                	j	154fe <_ZN20complex_dynamic_type3app17h6ce48b793c44cd50E+0xf6>
   15496:	458d                	li	a1,3
   15498:	4505                	li	a0,1
   1549a:	c511                	beqz	a0,154a6 <_ZN20complex_dynamic_type3app17h6ce48b793c44cd50E+0x9e>
   1549c:	a08d                	j	154fe <_ZN20complex_dynamic_type3app17h6ce48b793c44cd50E+0xf6>
   1549e:	4501                	li	a0,0
   154a0:	04c10e23          	sb	a2,92(sp)
   154a4:	ed29                	bnez	a0,154fe <_ZN20complex_dynamic_type3app17h6ce48b793c44cd50E+0xf6>
   154a6:	4581                	li	a1,0
   154a8:	4681                	li	a3,0
   154aa:	6505                	lui	a0,0x1
   154ac:	460d                	li	a2,3
   154ae:	4709                	li	a4,2
   154b0:	3bf50513          	addi	a0,a0,959 # 13bf <.Lline_table_start1+0x1194>
   154b4:	07f00493          	li	s1,127
   154b8:	00000073          	ecall
   154bc:	4689                	li	a3,2
   154be:	04a4f063          	bgeu	s1,a0,154fe <_ZN20complex_dynamic_type3app17h6ce48b793c44cd50E+0xf6>
   154c2:	00a14603          	lbu	a2,10(sp)
   154c6:	00d60a63          	beq	a2,a3,154da <_ZN20complex_dynamic_type3app17h6ce48b793c44cd50E+0xd2>
   154ca:	6505                	lui	a0,0x1
   154cc:	3bf50513          	addi	a0,a0,959 # 13bf <.Lline_table_start1+0x1194>
   154d0:	4581                	li	a1,0
   154d2:	0000a097          	auipc	ra,0xa
   154d6:	6d2080e7          	jalr	1746(ra) # 1fba4 <_ZN9allow_pin12dynamic_type7unshare17h0269127f30dbe29bE>
   154da:	05c14603          	lbu	a2,92(sp)
   154de:	4409                	li	s0,2
   154e0:	00810523          	sb	s0,10(sp)
   154e4:	00860a63          	beq	a2,s0,154f8 <_ZN20complex_dynamic_type3app17h6ce48b793c44cd50E+0xf0>
   154e8:	6505                	lui	a0,0x1
   154ea:	3bf50513          	addi	a0,a0,959 # 13bf <.Lline_table_start1+0x1194>
   154ee:	458d                	li	a1,3
   154f0:	0000a097          	auipc	ra,0xa
   154f4:	6b4080e7          	jalr	1716(ra) # 1fba4 <_ZN9allow_pin12dynamic_type7unshare17h0269127f30dbe29bE>
   154f8:	4781                	li	a5,0
   154fa:	04810e23          	sb	s0,92(sp)
   154fe:	cb85                	beqz	a5,1552e <_ZN20complex_dynamic_type3app17h6ce48b793c44cd50E+0x126>
   15500:	05c14603          	lbu	a2,92(sp)
   15504:	4505                	li	a0,1
   15506:	4409                	li	s0,2
   15508:	00a90023          	sb	a0,0(s2)
   1550c:	00b92223          	sw	a1,4(s2)
   15510:	00860a63          	beq	a2,s0,15524 <_ZN20complex_dynamic_type3app17h6ce48b793c44cd50E+0x11c>
   15514:	6505                	lui	a0,0x1
   15516:	3bf50513          	addi	a0,a0,959 # 13bf <.Lline_table_start1+0x1194>
   1551a:	458d                	li	a1,3
   1551c:	0000a097          	auipc	ra,0xa
   15520:	688080e7          	jalr	1672(ra) # 1fba4 <_ZN9allow_pin12dynamic_type7unshare17h0269127f30dbe29bE>
   15524:	00a14603          	lbu	a2,10(sp)
   15528:	04861663          	bne	a2,s0,15574 <_ZN20complex_dynamic_type3app17h6ce48b793c44cd50E+0x16c>
   1552c:	a8a1                	j	15584 <_ZN20complex_dynamic_type3app17h6ce48b793c44cd50E+0x17c>
   1552e:	05c14403          	lbu	s0,92(sp)
   15532:	4489                	li	s1,2
   15534:	00940663          	beq	s0,s1,15540 <_ZN20complex_dynamic_type3app17h6ce48b793c44cd50E+0x138>
   15538:	000109b7          	lui	s3,0x10
   1553c:	38c98993          	addi	s3,s3,908 # 1038c <.Lanon.49c9f8067fe4468184af16d7576940c9.11>
   15540:	00190513          	addi	a0,s2,1
   15544:	463d                	li	a2,15
   15546:	85ce                	mv	a1,s3
   15548:	0000a097          	auipc	ra,0xa
   1554c:	6d4080e7          	jalr	1748(ra) # 1fc1c <memcpy>
   15550:	00090023          	sb	zero,0(s2)
   15554:	00940b63          	beq	s0,s1,1556a <_ZN20complex_dynamic_type3app17h6ce48b793c44cd50E+0x162>
   15558:	6505                	lui	a0,0x1
   1555a:	3bf50513          	addi	a0,a0,959 # 13bf <.Lline_table_start1+0x1194>
   1555e:	458d                	li	a1,3
   15560:	8622                	mv	a2,s0
   15562:	0000a097          	auipc	ra,0xa
   15566:	642080e7          	jalr	1602(ra) # 1fba4 <_ZN9allow_pin12dynamic_type7unshare17h0269127f30dbe29bE>
   1556a:	00a14603          	lbu	a2,10(sp)
   1556e:	4509                	li	a0,2
   15570:	00a60a63          	beq	a2,a0,15584 <_ZN20complex_dynamic_type3app17h6ce48b793c44cd50E+0x17c>
   15574:	6505                	lui	a0,0x1
   15576:	3bf50513          	addi	a0,a0,959 # 13bf <.Lline_table_start1+0x1194>
   1557a:	4581                	li	a1,0
   1557c:	0000a097          	auipc	ra,0xa
   15580:	628080e7          	jalr	1576(ra) # 1fba4 <_ZN9allow_pin12dynamic_type7unshare17h0269127f30dbe29bE>
   15584:	50f6                	lw	ra,124(sp)
   15586:	5466                	lw	s0,120(sp)
   15588:	54d6                	lw	s1,116(sp)
   1558a:	5946                	lw	s2,112(sp)
   1558c:	59b6                	lw	s3,108(sp)
   1558e:	6109                	addi	sp,sp,128
   15590:	8082                	ret

00015592 <_ZN20complex_dynamic_type3app17h6e6aa260c3d2248fE>:
   15592:	7159                	addi	sp,sp,-112
   15594:	d686                	sw	ra,108(sp)
   15596:	d4a2                	sw	s0,104(sp)
   15598:	d2a6                	sw	s1,100(sp)
   1559a:	d0ca                	sw	s2,96(sp)
   1559c:	cece                	sw	s3,92(sp)
   1559e:	892a                	mv	s2,a0
   155a0:	4489                	li	s1,2
   155a2:	00910523          	sb	s1,10(sp)
   155a6:	00b10413          	addi	s0,sp,11
   155aa:	4645                	li	a2,17
   155ac:	8522                	mv	a0,s0
   155ae:	0000a097          	auipc	ra,0xa
   155b2:	66e080e7          	jalr	1646(ra) # 1fc1c <memcpy>
   155b6:	01d10993          	addi	s3,sp,29
   155ba:	03f00613          	li	a2,63
   155be:	854e                	mv	a0,s3
   155c0:	4581                	li	a1,0
   155c2:	0000a097          	auipc	ra,0xa
   155c6:	5ee080e7          	jalr	1518(ra) # 1fbb0 <memset>
   155ca:	8622                	mv	a2,s0
   155cc:	00910e23          	sb	s1,28(sp)
   155d0:	6505                	lui	a0,0x1
   155d2:	4791                	li	a5,4
   155d4:	459d                	li	a1,7
   155d6:	cb050513          	addi	a0,a0,-848 # cb0 <.Lline_table_start1+0xa85>
   155da:	46c5                	li	a3,17
   155dc:	4711                	li	a4,4
   155de:	00000073          	ecall
   155e2:	00950463          	beq	a0,s1,155ea <_ZN20complex_dynamic_type3app17h6e6aa260c3d2248fE+0x58>
   155e6:	00f10523          	sb	a5,10(sp)
   155ea:	4609                	li	a2,2
   155ec:	00c51463          	bne	a0,a2,155f4 <_ZN20complex_dynamic_type3app17h6e6aa260c3d2248fE+0x62>
   155f0:	4785                	li	a5,1
   155f2:	a859                	j	15688 <_ZN20complex_dynamic_type3app17h6e6aa260c3d2248fE+0xf6>
   155f4:	01c14503          	lbu	a0,28(sp)
   155f8:	4785                	li	a5,1
   155fa:	02c51363          	bne	a0,a2,15620 <_ZN20complex_dynamic_type3app17h6e6aa260c3d2248fE+0x8e>
   155fe:	864e                	mv	a2,s3
   15600:	6505                	lui	a0,0x1
   15602:	4591                	li	a1,4
   15604:	03f00693          	li	a3,63
   15608:	470d                	li	a4,3
   1560a:	cb050513          	addi	a0,a0,-848 # cb0 <.Lline_table_start1+0xa85>
   1560e:	4489                	li	s1,2
   15610:	00000073          	ecall
   15614:	460d                	li	a2,3
   15616:	00951963          	bne	a0,s1,15628 <_ZN20complex_dynamic_type3app17h6e6aa260c3d2248fE+0x96>
   1561a:	4505                	li	a0,1
   1561c:	c911                	beqz	a0,15630 <_ZN20complex_dynamic_type3app17h6e6aa260c3d2248fE+0x9e>
   1561e:	a0ad                	j	15688 <_ZN20complex_dynamic_type3app17h6e6aa260c3d2248fE+0xf6>
   15620:	458d                	li	a1,3
   15622:	4505                	li	a0,1
   15624:	c511                	beqz	a0,15630 <_ZN20complex_dynamic_type3app17h6e6aa260c3d2248fE+0x9e>
   15626:	a08d                	j	15688 <_ZN20complex_dynamic_type3app17h6e6aa260c3d2248fE+0xf6>
   15628:	4501                	li	a0,0
   1562a:	00c10e23          	sb	a2,28(sp)
   1562e:	ed29                	bnez	a0,15688 <_ZN20complex_dynamic_type3app17h6e6aa260c3d2248fE+0xf6>
   15630:	4681                	li	a3,0
   15632:	6505                	lui	a0,0x1
   15634:	459d                	li	a1,7
   15636:	4611                	li	a2,4
   15638:	4709                	li	a4,2
   1563a:	cb050513          	addi	a0,a0,-848 # cb0 <.Lline_table_start1+0xa85>
   1563e:	07f00493          	li	s1,127
   15642:	00000073          	ecall
   15646:	4689                	li	a3,2
   15648:	04a4f063          	bgeu	s1,a0,15688 <_ZN20complex_dynamic_type3app17h6e6aa260c3d2248fE+0xf6>
   1564c:	00a14603          	lbu	a2,10(sp)
   15650:	00d60a63          	beq	a2,a3,15664 <_ZN20complex_dynamic_type3app17h6e6aa260c3d2248fE+0xd2>
   15654:	6505                	lui	a0,0x1
   15656:	cb050513          	addi	a0,a0,-848 # cb0 <.Lline_table_start1+0xa85>
   1565a:	459d                	li	a1,7
   1565c:	0000a097          	auipc	ra,0xa
   15660:	548080e7          	jalr	1352(ra) # 1fba4 <_ZN9allow_pin12dynamic_type7unshare17h0269127f30dbe29bE>
   15664:	01c14603          	lbu	a2,28(sp)
   15668:	4409                	li	s0,2
   1566a:	00810523          	sb	s0,10(sp)
   1566e:	00860a63          	beq	a2,s0,15682 <_ZN20complex_dynamic_type3app17h6e6aa260c3d2248fE+0xf0>
   15672:	6505                	lui	a0,0x1
   15674:	cb050513          	addi	a0,a0,-848 # cb0 <.Lline_table_start1+0xa85>
   15678:	4591                	li	a1,4
   1567a:	0000a097          	auipc	ra,0xa
   1567e:	52a080e7          	jalr	1322(ra) # 1fba4 <_ZN9allow_pin12dynamic_type7unshare17h0269127f30dbe29bE>
   15682:	4781                	li	a5,0
   15684:	00810e23          	sb	s0,28(sp)
   15688:	cb85                	beqz	a5,156b8 <_ZN20complex_dynamic_type3app17h6e6aa260c3d2248fE+0x126>
   1568a:	01c14603          	lbu	a2,28(sp)
   1568e:	4505                	li	a0,1
   15690:	4409                	li	s0,2
   15692:	00a90023          	sb	a0,0(s2)
   15696:	00b92223          	sw	a1,4(s2)
   1569a:	00860a63          	beq	a2,s0,156ae <_ZN20complex_dynamic_type3app17h6e6aa260c3d2248fE+0x11c>
   1569e:	6505                	lui	a0,0x1
   156a0:	cb050513          	addi	a0,a0,-848 # cb0 <.Lline_table_start1+0xa85>
   156a4:	4591                	li	a1,4
   156a6:	0000a097          	auipc	ra,0xa
   156aa:	4fe080e7          	jalr	1278(ra) # 1fba4 <_ZN9allow_pin12dynamic_type7unshare17h0269127f30dbe29bE>
   156ae:	00a14603          	lbu	a2,10(sp)
   156b2:	04861763          	bne	a2,s0,15700 <_ZN20complex_dynamic_type3app17h6e6aa260c3d2248fE+0x16e>
   156b6:	a8a9                	j	15710 <_ZN20complex_dynamic_type3app17h6e6aa260c3d2248fE+0x17e>
   156b8:	01c14403          	lbu	s0,28(sp)
   156bc:	4489                	li	s1,2
   156be:	00940663          	beq	s0,s1,156ca <_ZN20complex_dynamic_type3app17h6e6aa260c3d2248fE+0x138>
   156c2:	000119b7          	lui	s3,0x11
   156c6:	91198993          	addi	s3,s3,-1775 # 10911 <.Lanon.49c9f8067fe4468184af16d7576940c9.42>
   156ca:	00190513          	addi	a0,s2,1
   156ce:	03f00613          	li	a2,63
   156d2:	85ce                	mv	a1,s3
   156d4:	0000a097          	auipc	ra,0xa
   156d8:	548080e7          	jalr	1352(ra) # 1fc1c <memcpy>
   156dc:	00090023          	sb	zero,0(s2)
   156e0:	00940b63          	beq	s0,s1,156f6 <_ZN20complex_dynamic_type3app17h6e6aa260c3d2248fE+0x164>
   156e4:	6505                	lui	a0,0x1
   156e6:	cb050513          	addi	a0,a0,-848 # cb0 <.Lline_table_start1+0xa85>
   156ea:	4591                	li	a1,4
   156ec:	8622                	mv	a2,s0
   156ee:	0000a097          	auipc	ra,0xa
   156f2:	4b6080e7          	jalr	1206(ra) # 1fba4 <_ZN9allow_pin12dynamic_type7unshare17h0269127f30dbe29bE>
   156f6:	00a14603          	lbu	a2,10(sp)
   156fa:	4509                	li	a0,2
   156fc:	00a60a63          	beq	a2,a0,15710 <_ZN20complex_dynamic_type3app17h6e6aa260c3d2248fE+0x17e>
   15700:	6505                	lui	a0,0x1
   15702:	cb050513          	addi	a0,a0,-848 # cb0 <.Lline_table_start1+0xa85>
   15706:	459d                	li	a1,7
   15708:	0000a097          	auipc	ra,0xa
   1570c:	49c080e7          	jalr	1180(ra) # 1fba4 <_ZN9allow_pin12dynamic_type7unshare17h0269127f30dbe29bE>
   15710:	50b6                	lw	ra,108(sp)
   15712:	5426                	lw	s0,104(sp)
   15714:	5496                	lw	s1,100(sp)
   15716:	5906                	lw	s2,96(sp)
   15718:	49f6                	lw	s3,92(sp)
   1571a:	6165                	addi	sp,sp,112
   1571c:	8082                	ret

0001571e <_ZN20complex_dynamic_type3app17h6ea379873402d979E>:
   1571e:	7159                	addi	sp,sp,-112
   15720:	d686                	sw	ra,108(sp)
   15722:	d4a2                	sw	s0,104(sp)
   15724:	d2a6                	sw	s1,100(sp)
   15726:	d0ca                	sw	s2,96(sp)
   15728:	cece                	sw	s3,92(sp)
   1572a:	892a                	mv	s2,a0
   1572c:	4489                	li	s1,2
   1572e:	00910623          	sb	s1,12(sp)
   15732:	00d10413          	addi	s0,sp,13
   15736:	02300613          	li	a2,35
   1573a:	8522                	mv	a0,s0
   1573c:	0000a097          	auipc	ra,0xa
   15740:	4e0080e7          	jalr	1248(ra) # 1fc1c <memcpy>
   15744:	03110993          	addi	s3,sp,49
   15748:	02b00613          	li	a2,43
   1574c:	854e                	mv	a0,s3
   1574e:	4581                	li	a1,0
   15750:	0000a097          	auipc	ra,0xa
   15754:	460080e7          	jalr	1120(ra) # 1fbb0 <memset>
   15758:	8622                	mv	a2,s0
   1575a:	02910823          	sb	s1,48(sp)
   1575e:	6505                	lui	a0,0x1
   15760:	4791                	li	a5,4
   15762:	4589                	li	a1,2
   15764:	d5d50513          	addi	a0,a0,-675 # d5d <.Lline_table_start1+0xb32>
   15768:	02300693          	li	a3,35
   1576c:	4711                	li	a4,4
   1576e:	00000073          	ecall
   15772:	00950463          	beq	a0,s1,1577a <_ZN20complex_dynamic_type3app17h6ea379873402d979E+0x5c>
   15776:	00f10623          	sb	a5,12(sp)
   1577a:	4609                	li	a2,2
   1577c:	00c51463          	bne	a0,a2,15784 <_ZN20complex_dynamic_type3app17h6ea379873402d979E+0x66>
   15780:	4785                	li	a5,1
   15782:	a859                	j	15818 <_ZN20complex_dynamic_type3app17h6ea379873402d979E+0xfa>
   15784:	03014503          	lbu	a0,48(sp)
   15788:	4785                	li	a5,1
   1578a:	02c51363          	bne	a0,a2,157b0 <_ZN20complex_dynamic_type3app17h6ea379873402d979E+0x92>
   1578e:	4581                	li	a1,0
   15790:	864e                	mv	a2,s3
   15792:	6505                	lui	a0,0x1
   15794:	02b00693          	li	a3,43
   15798:	470d                	li	a4,3
   1579a:	d5d50513          	addi	a0,a0,-675 # d5d <.Lline_table_start1+0xb32>
   1579e:	4489                	li	s1,2
   157a0:	00000073          	ecall
   157a4:	460d                	li	a2,3
   157a6:	00951963          	bne	a0,s1,157b8 <_ZN20complex_dynamic_type3app17h6ea379873402d979E+0x9a>
   157aa:	4505                	li	a0,1
   157ac:	c911                	beqz	a0,157c0 <_ZN20complex_dynamic_type3app17h6ea379873402d979E+0xa2>
   157ae:	a0ad                	j	15818 <_ZN20complex_dynamic_type3app17h6ea379873402d979E+0xfa>
   157b0:	458d                	li	a1,3
   157b2:	4505                	li	a0,1
   157b4:	c511                	beqz	a0,157c0 <_ZN20complex_dynamic_type3app17h6ea379873402d979E+0xa2>
   157b6:	a08d                	j	15818 <_ZN20complex_dynamic_type3app17h6ea379873402d979E+0xfa>
   157b8:	4501                	li	a0,0
   157ba:	02c10823          	sb	a2,48(sp)
   157be:	ed29                	bnez	a0,15818 <_ZN20complex_dynamic_type3app17h6ea379873402d979E+0xfa>
   157c0:	4601                	li	a2,0
   157c2:	4681                	li	a3,0
   157c4:	6505                	lui	a0,0x1
   157c6:	4589                	li	a1,2
   157c8:	4709                	li	a4,2
   157ca:	d5d50513          	addi	a0,a0,-675 # d5d <.Lline_table_start1+0xb32>
   157ce:	07f00493          	li	s1,127
   157d2:	00000073          	ecall
   157d6:	4689                	li	a3,2
   157d8:	04a4f063          	bgeu	s1,a0,15818 <_ZN20complex_dynamic_type3app17h6ea379873402d979E+0xfa>
   157dc:	00c14603          	lbu	a2,12(sp)
   157e0:	00d60a63          	beq	a2,a3,157f4 <_ZN20complex_dynamic_type3app17h6ea379873402d979E+0xd6>
   157e4:	6505                	lui	a0,0x1
   157e6:	d5d50513          	addi	a0,a0,-675 # d5d <.Lline_table_start1+0xb32>
   157ea:	4589                	li	a1,2
   157ec:	0000a097          	auipc	ra,0xa
   157f0:	3b8080e7          	jalr	952(ra) # 1fba4 <_ZN9allow_pin12dynamic_type7unshare17h0269127f30dbe29bE>
   157f4:	03014603          	lbu	a2,48(sp)
   157f8:	4409                	li	s0,2
   157fa:	00810623          	sb	s0,12(sp)
   157fe:	00860a63          	beq	a2,s0,15812 <_ZN20complex_dynamic_type3app17h6ea379873402d979E+0xf4>
   15802:	6505                	lui	a0,0x1
   15804:	d5d50513          	addi	a0,a0,-675 # d5d <.Lline_table_start1+0xb32>
   15808:	4581                	li	a1,0
   1580a:	0000a097          	auipc	ra,0xa
   1580e:	39a080e7          	jalr	922(ra) # 1fba4 <_ZN9allow_pin12dynamic_type7unshare17h0269127f30dbe29bE>
   15812:	4781                	li	a5,0
   15814:	02810823          	sb	s0,48(sp)
   15818:	cb85                	beqz	a5,15848 <_ZN20complex_dynamic_type3app17h6ea379873402d979E+0x12a>
   1581a:	03014603          	lbu	a2,48(sp)
   1581e:	4505                	li	a0,1
   15820:	4409                	li	s0,2
   15822:	00a90023          	sb	a0,0(s2)
   15826:	00b92223          	sw	a1,4(s2)
   1582a:	00860a63          	beq	a2,s0,1583e <_ZN20complex_dynamic_type3app17h6ea379873402d979E+0x120>
   1582e:	6505                	lui	a0,0x1
   15830:	d5d50513          	addi	a0,a0,-675 # d5d <.Lline_table_start1+0xb32>
   15834:	4581                	li	a1,0
   15836:	0000a097          	auipc	ra,0xa
   1583a:	36e080e7          	jalr	878(ra) # 1fba4 <_ZN9allow_pin12dynamic_type7unshare17h0269127f30dbe29bE>
   1583e:	00c14603          	lbu	a2,12(sp)
   15842:	04861763          	bne	a2,s0,15890 <_ZN20complex_dynamic_type3app17h6ea379873402d979E+0x172>
   15846:	a8a9                	j	158a0 <_ZN20complex_dynamic_type3app17h6ea379873402d979E+0x182>
   15848:	03014403          	lbu	s0,48(sp)
   1584c:	4489                	li	s1,2
   1584e:	00940663          	beq	s0,s1,1585a <_ZN20complex_dynamic_type3app17h6ea379873402d979E+0x13c>
   15852:	000119b7          	lui	s3,0x11
   15856:	b9e98993          	addi	s3,s3,-1122 # 10b9e <.Lanon.49c9f8067fe4468184af16d7576940c9.52>
   1585a:	00190513          	addi	a0,s2,1
   1585e:	02b00613          	li	a2,43
   15862:	85ce                	mv	a1,s3
   15864:	0000a097          	auipc	ra,0xa
   15868:	3b8080e7          	jalr	952(ra) # 1fc1c <memcpy>
   1586c:	00090023          	sb	zero,0(s2)
   15870:	00940b63          	beq	s0,s1,15886 <_ZN20complex_dynamic_type3app17h6ea379873402d979E+0x168>
   15874:	6505                	lui	a0,0x1
   15876:	d5d50513          	addi	a0,a0,-675 # d5d <.Lline_table_start1+0xb32>
   1587a:	4581                	li	a1,0
   1587c:	8622                	mv	a2,s0
   1587e:	0000a097          	auipc	ra,0xa
   15882:	326080e7          	jalr	806(ra) # 1fba4 <_ZN9allow_pin12dynamic_type7unshare17h0269127f30dbe29bE>
   15886:	00c14603          	lbu	a2,12(sp)
   1588a:	4509                	li	a0,2
   1588c:	00a60a63          	beq	a2,a0,158a0 <_ZN20complex_dynamic_type3app17h6ea379873402d979E+0x182>
   15890:	6505                	lui	a0,0x1
   15892:	d5d50513          	addi	a0,a0,-675 # d5d <.Lline_table_start1+0xb32>
   15896:	4589                	li	a1,2
   15898:	0000a097          	auipc	ra,0xa
   1589c:	30c080e7          	jalr	780(ra) # 1fba4 <_ZN9allow_pin12dynamic_type7unshare17h0269127f30dbe29bE>
   158a0:	50b6                	lw	ra,108(sp)
   158a2:	5426                	lw	s0,104(sp)
   158a4:	5496                	lw	s1,100(sp)
   158a6:	5906                	lw	s2,96(sp)
   158a8:	49f6                	lw	s3,92(sp)
   158aa:	6165                	addi	sp,sp,112
   158ac:	8082                	ret

000158ae <_ZN20complex_dynamic_type3app17h70dd799ccd7bd9b7E>:
   158ae:	711d                	addi	sp,sp,-96
   158b0:	ce86                	sw	ra,92(sp)
   158b2:	cca2                	sw	s0,88(sp)
   158b4:	caa6                	sw	s1,84(sp)
   158b6:	c8ca                	sw	s2,80(sp)
   158b8:	c6ce                	sw	s3,76(sp)
   158ba:	892a                	mv	s2,a0
   158bc:	4489                	li	s1,2
   158be:	009106a3          	sb	s1,13(sp)
   158c2:	00e10413          	addi	s0,sp,14
   158c6:	02500613          	li	a2,37
   158ca:	8522                	mv	a0,s0
   158cc:	0000a097          	auipc	ra,0xa
   158d0:	350080e7          	jalr	848(ra) # 1fc1c <memcpy>
   158d4:	03410993          	addi	s3,sp,52
   158d8:	4661                	li	a2,24
   158da:	854e                	mv	a0,s3
   158dc:	4581                	li	a1,0
   158de:	0000a097          	auipc	ra,0xa
   158e2:	2d2080e7          	jalr	722(ra) # 1fbb0 <memset>
   158e6:	8622                	mv	a2,s0
   158e8:	029109a3          	sb	s1,51(sp)
   158ec:	6505                	lui	a0,0x1
   158ee:	4791                	li	a5,4
   158f0:	45a5                	li	a1,9
   158f2:	a7050513          	addi	a0,a0,-1424 # a70 <.Lline_table_start1+0x845>
   158f6:	02500693          	li	a3,37
   158fa:	4711                	li	a4,4
   158fc:	00000073          	ecall
   15900:	00950463          	beq	a0,s1,15908 <_ZN20complex_dynamic_type3app17h70dd799ccd7bd9b7E+0x5a>
   15904:	00f106a3          	sb	a5,13(sp)
   15908:	4609                	li	a2,2
   1590a:	00c51463          	bne	a0,a2,15912 <_ZN20complex_dynamic_type3app17h70dd799ccd7bd9b7E+0x64>
   1590e:	4785                	li	a5,1
   15910:	a851                	j	159a4 <_ZN20complex_dynamic_type3app17h70dd799ccd7bd9b7E+0xf6>
   15912:	03314503          	lbu	a0,51(sp)
   15916:	4785                	li	a5,1
   15918:	02c51263          	bne	a0,a2,1593c <_ZN20complex_dynamic_type3app17h70dd799ccd7bd9b7E+0x8e>
   1591c:	864e                	mv	a2,s3
   1591e:	6505                	lui	a0,0x1
   15920:	45a1                	li	a1,8
   15922:	46e1                	li	a3,24
   15924:	470d                	li	a4,3
   15926:	a7050513          	addi	a0,a0,-1424 # a70 <.Lline_table_start1+0x845>
   1592a:	4489                	li	s1,2
   1592c:	00000073          	ecall
   15930:	460d                	li	a2,3
   15932:	00951963          	bne	a0,s1,15944 <_ZN20complex_dynamic_type3app17h70dd799ccd7bd9b7E+0x96>
   15936:	4505                	li	a0,1
   15938:	c911                	beqz	a0,1594c <_ZN20complex_dynamic_type3app17h70dd799ccd7bd9b7E+0x9e>
   1593a:	a0ad                	j	159a4 <_ZN20complex_dynamic_type3app17h70dd799ccd7bd9b7E+0xf6>
   1593c:	458d                	li	a1,3
   1593e:	4505                	li	a0,1
   15940:	c511                	beqz	a0,1594c <_ZN20complex_dynamic_type3app17h70dd799ccd7bd9b7E+0x9e>
   15942:	a08d                	j	159a4 <_ZN20complex_dynamic_type3app17h70dd799ccd7bd9b7E+0xf6>
   15944:	4501                	li	a0,0
   15946:	02c109a3          	sb	a2,51(sp)
   1594a:	ed29                	bnez	a0,159a4 <_ZN20complex_dynamic_type3app17h70dd799ccd7bd9b7E+0xf6>
   1594c:	4681                	li	a3,0
   1594e:	6505                	lui	a0,0x1
   15950:	45a5                	li	a1,9
   15952:	4621                	li	a2,8
   15954:	4709                	li	a4,2
   15956:	a7050513          	addi	a0,a0,-1424 # a70 <.Lline_table_start1+0x845>
   1595a:	07f00493          	li	s1,127
   1595e:	00000073          	ecall
   15962:	4689                	li	a3,2
   15964:	04a4f063          	bgeu	s1,a0,159a4 <_ZN20complex_dynamic_type3app17h70dd799ccd7bd9b7E+0xf6>
   15968:	00d14603          	lbu	a2,13(sp)
   1596c:	00d60a63          	beq	a2,a3,15980 <_ZN20complex_dynamic_type3app17h70dd799ccd7bd9b7E+0xd2>
   15970:	6505                	lui	a0,0x1
   15972:	a7050513          	addi	a0,a0,-1424 # a70 <.Lline_table_start1+0x845>
   15976:	45a5                	li	a1,9
   15978:	0000a097          	auipc	ra,0xa
   1597c:	22c080e7          	jalr	556(ra) # 1fba4 <_ZN9allow_pin12dynamic_type7unshare17h0269127f30dbe29bE>
   15980:	03314603          	lbu	a2,51(sp)
   15984:	4409                	li	s0,2
   15986:	008106a3          	sb	s0,13(sp)
   1598a:	00860a63          	beq	a2,s0,1599e <_ZN20complex_dynamic_type3app17h70dd799ccd7bd9b7E+0xf0>
   1598e:	6505                	lui	a0,0x1
   15990:	a7050513          	addi	a0,a0,-1424 # a70 <.Lline_table_start1+0x845>
   15994:	45a1                	li	a1,8
   15996:	0000a097          	auipc	ra,0xa
   1599a:	20e080e7          	jalr	526(ra) # 1fba4 <_ZN9allow_pin12dynamic_type7unshare17h0269127f30dbe29bE>
   1599e:	4781                	li	a5,0
   159a0:	028109a3          	sb	s0,51(sp)
   159a4:	cb85                	beqz	a5,159d4 <_ZN20complex_dynamic_type3app17h70dd799ccd7bd9b7E+0x126>
   159a6:	03314603          	lbu	a2,51(sp)
   159aa:	4505                	li	a0,1
   159ac:	4409                	li	s0,2
   159ae:	00a90023          	sb	a0,0(s2)
   159b2:	00b92223          	sw	a1,4(s2)
   159b6:	00860a63          	beq	a2,s0,159ca <_ZN20complex_dynamic_type3app17h70dd799ccd7bd9b7E+0x11c>
   159ba:	6505                	lui	a0,0x1
   159bc:	a7050513          	addi	a0,a0,-1424 # a70 <.Lline_table_start1+0x845>
   159c0:	45a1                	li	a1,8
   159c2:	0000a097          	auipc	ra,0xa
   159c6:	1e2080e7          	jalr	482(ra) # 1fba4 <_ZN9allow_pin12dynamic_type7unshare17h0269127f30dbe29bE>
   159ca:	00d14603          	lbu	a2,13(sp)
   159ce:	04861663          	bne	a2,s0,15a1a <_ZN20complex_dynamic_type3app17h70dd799ccd7bd9b7E+0x16c>
   159d2:	a8a1                	j	15a2a <_ZN20complex_dynamic_type3app17h70dd799ccd7bd9b7E+0x17c>
   159d4:	03314403          	lbu	s0,51(sp)
   159d8:	4489                	li	s1,2
   159da:	00940663          	beq	s0,s1,159e6 <_ZN20complex_dynamic_type3app17h70dd799ccd7bd9b7E+0x138>
   159de:	000119b7          	lui	s3,0x11
   159e2:	ae498993          	addi	s3,s3,-1308 # 10ae4 <.Lanon.49c9f8067fe4468184af16d7576940c9.49>
   159e6:	00190513          	addi	a0,s2,1
   159ea:	4661                	li	a2,24
   159ec:	85ce                	mv	a1,s3
   159ee:	0000a097          	auipc	ra,0xa
   159f2:	22e080e7          	jalr	558(ra) # 1fc1c <memcpy>
   159f6:	00090023          	sb	zero,0(s2)
   159fa:	00940b63          	beq	s0,s1,15a10 <_ZN20complex_dynamic_type3app17h70dd799ccd7bd9b7E+0x162>
   159fe:	6505                	lui	a0,0x1
   15a00:	a7050513          	addi	a0,a0,-1424 # a70 <.Lline_table_start1+0x845>
   15a04:	45a1                	li	a1,8
   15a06:	8622                	mv	a2,s0
   15a08:	0000a097          	auipc	ra,0xa
   15a0c:	19c080e7          	jalr	412(ra) # 1fba4 <_ZN9allow_pin12dynamic_type7unshare17h0269127f30dbe29bE>
   15a10:	00d14603          	lbu	a2,13(sp)
   15a14:	4509                	li	a0,2
   15a16:	00a60a63          	beq	a2,a0,15a2a <_ZN20complex_dynamic_type3app17h70dd799ccd7bd9b7E+0x17c>
   15a1a:	6505                	lui	a0,0x1
   15a1c:	a7050513          	addi	a0,a0,-1424 # a70 <.Lline_table_start1+0x845>
   15a20:	45a5                	li	a1,9
   15a22:	0000a097          	auipc	ra,0xa
   15a26:	182080e7          	jalr	386(ra) # 1fba4 <_ZN9allow_pin12dynamic_type7unshare17h0269127f30dbe29bE>
   15a2a:	40f6                	lw	ra,92(sp)
   15a2c:	4466                	lw	s0,88(sp)
   15a2e:	44d6                	lw	s1,84(sp)
   15a30:	4946                	lw	s2,80(sp)
   15a32:	49b6                	lw	s3,76(sp)
   15a34:	6125                	addi	sp,sp,96
   15a36:	8082                	ret

00015a38 <_ZN20complex_dynamic_type3app17h7277047ffd7643b6E>:
   15a38:	7171                	addi	sp,sp,-176
   15a3a:	d706                	sw	ra,172(sp)
   15a3c:	d522                	sw	s0,168(sp)
   15a3e:	d326                	sw	s1,164(sp)
   15a40:	d14a                	sw	s2,160(sp)
   15a42:	cf4e                	sw	s3,156(sp)
   15a44:	892a                	mv	s2,a0
   15a46:	4489                	li	s1,2
   15a48:	009106a3          	sb	s1,13(sp)
   15a4c:	00e10413          	addi	s0,sp,14
   15a50:	05300613          	li	a2,83
   15a54:	8522                	mv	a0,s0
   15a56:	0000a097          	auipc	ra,0xa
   15a5a:	1c6080e7          	jalr	454(ra) # 1fc1c <memcpy>
   15a5e:	06210993          	addi	s3,sp,98
   15a62:	03a00613          	li	a2,58
   15a66:	854e                	mv	a0,s3
   15a68:	4581                	li	a1,0
   15a6a:	0000a097          	auipc	ra,0xa
   15a6e:	146080e7          	jalr	326(ra) # 1fbb0 <memset>
   15a72:	8622                	mv	a2,s0
   15a74:	069100a3          	sb	s1,97(sp)
   15a78:	6509                	lui	a0,0x2
   15a7a:	4791                	li	a5,4
   15a7c:	4599                	li	a1,6
   15a7e:	64550513          	addi	a0,a0,1605 # 2645 <.Lline_table_start1+0x241a>
   15a82:	05300693          	li	a3,83
   15a86:	4711                	li	a4,4
   15a88:	00000073          	ecall
   15a8c:	00950463          	beq	a0,s1,15a94 <_ZN20complex_dynamic_type3app17h7277047ffd7643b6E+0x5c>
   15a90:	00f106a3          	sb	a5,13(sp)
   15a94:	4609                	li	a2,2
   15a96:	00c51463          	bne	a0,a2,15a9e <_ZN20complex_dynamic_type3app17h7277047ffd7643b6E+0x66>
   15a9a:	4785                	li	a5,1
   15a9c:	a859                	j	15b32 <_ZN20complex_dynamic_type3app17h7277047ffd7643b6E+0xfa>
   15a9e:	06114503          	lbu	a0,97(sp)
   15aa2:	4785                	li	a5,1
   15aa4:	02c51363          	bne	a0,a2,15aca <_ZN20complex_dynamic_type3app17h7277047ffd7643b6E+0x92>
   15aa8:	864e                	mv	a2,s3
   15aaa:	6509                	lui	a0,0x2
   15aac:	459d                	li	a1,7
   15aae:	03a00693          	li	a3,58
   15ab2:	470d                	li	a4,3
   15ab4:	64550513          	addi	a0,a0,1605 # 2645 <.Lline_table_start1+0x241a>
   15ab8:	4489                	li	s1,2
   15aba:	00000073          	ecall
   15abe:	460d                	li	a2,3
   15ac0:	00951963          	bne	a0,s1,15ad2 <_ZN20complex_dynamic_type3app17h7277047ffd7643b6E+0x9a>
   15ac4:	4505                	li	a0,1
   15ac6:	c911                	beqz	a0,15ada <_ZN20complex_dynamic_type3app17h7277047ffd7643b6E+0xa2>
   15ac8:	a0ad                	j	15b32 <_ZN20complex_dynamic_type3app17h7277047ffd7643b6E+0xfa>
   15aca:	458d                	li	a1,3
   15acc:	4505                	li	a0,1
   15ace:	c511                	beqz	a0,15ada <_ZN20complex_dynamic_type3app17h7277047ffd7643b6E+0xa2>
   15ad0:	a08d                	j	15b32 <_ZN20complex_dynamic_type3app17h7277047ffd7643b6E+0xfa>
   15ad2:	4501                	li	a0,0
   15ad4:	06c100a3          	sb	a2,97(sp)
   15ad8:	ed29                	bnez	a0,15b32 <_ZN20complex_dynamic_type3app17h7277047ffd7643b6E+0xfa>
   15ada:	4681                	li	a3,0
   15adc:	6509                	lui	a0,0x2
   15ade:	4599                	li	a1,6
   15ae0:	461d                	li	a2,7
   15ae2:	4709                	li	a4,2
   15ae4:	64550513          	addi	a0,a0,1605 # 2645 <.Lline_table_start1+0x241a>
   15ae8:	07f00493          	li	s1,127
   15aec:	00000073          	ecall
   15af0:	4689                	li	a3,2
   15af2:	04a4f063          	bgeu	s1,a0,15b32 <_ZN20complex_dynamic_type3app17h7277047ffd7643b6E+0xfa>
   15af6:	00d14603          	lbu	a2,13(sp)
   15afa:	00d60a63          	beq	a2,a3,15b0e <_ZN20complex_dynamic_type3app17h7277047ffd7643b6E+0xd6>
   15afe:	6509                	lui	a0,0x2
   15b00:	64550513          	addi	a0,a0,1605 # 2645 <.Lline_table_start1+0x241a>
   15b04:	4599                	li	a1,6
   15b06:	0000a097          	auipc	ra,0xa
   15b0a:	09e080e7          	jalr	158(ra) # 1fba4 <_ZN9allow_pin12dynamic_type7unshare17h0269127f30dbe29bE>
   15b0e:	06114603          	lbu	a2,97(sp)
   15b12:	4409                	li	s0,2
   15b14:	008106a3          	sb	s0,13(sp)
   15b18:	00860a63          	beq	a2,s0,15b2c <_ZN20complex_dynamic_type3app17h7277047ffd7643b6E+0xf4>
   15b1c:	6509                	lui	a0,0x2
   15b1e:	64550513          	addi	a0,a0,1605 # 2645 <.Lline_table_start1+0x241a>
   15b22:	459d                	li	a1,7
   15b24:	0000a097          	auipc	ra,0xa
   15b28:	080080e7          	jalr	128(ra) # 1fba4 <_ZN9allow_pin12dynamic_type7unshare17h0269127f30dbe29bE>
   15b2c:	4781                	li	a5,0
   15b2e:	068100a3          	sb	s0,97(sp)
   15b32:	cb85                	beqz	a5,15b62 <_ZN20complex_dynamic_type3app17h7277047ffd7643b6E+0x12a>
   15b34:	06114603          	lbu	a2,97(sp)
   15b38:	4505                	li	a0,1
   15b3a:	4409                	li	s0,2
   15b3c:	00a90023          	sb	a0,0(s2)
   15b40:	00b92223          	sw	a1,4(s2)
   15b44:	00860a63          	beq	a2,s0,15b58 <_ZN20complex_dynamic_type3app17h7277047ffd7643b6E+0x120>
   15b48:	6509                	lui	a0,0x2
   15b4a:	64550513          	addi	a0,a0,1605 # 2645 <.Lline_table_start1+0x241a>
   15b4e:	459d                	li	a1,7
   15b50:	0000a097          	auipc	ra,0xa
   15b54:	054080e7          	jalr	84(ra) # 1fba4 <_ZN9allow_pin12dynamic_type7unshare17h0269127f30dbe29bE>
   15b58:	00d14603          	lbu	a2,13(sp)
   15b5c:	04861763          	bne	a2,s0,15baa <_ZN20complex_dynamic_type3app17h7277047ffd7643b6E+0x172>
   15b60:	a8a9                	j	15bba <_ZN20complex_dynamic_type3app17h7277047ffd7643b6E+0x182>
   15b62:	06114403          	lbu	s0,97(sp)
   15b66:	4489                	li	s1,2
   15b68:	00940663          	beq	s0,s1,15b74 <_ZN20complex_dynamic_type3app17h7277047ffd7643b6E+0x13c>
   15b6c:	000119b7          	lui	s3,0x11
   15b70:	bed98993          	addi	s3,s3,-1043 # 10bed <.Lanon.49c9f8067fe4468184af16d7576940c9.54>
   15b74:	00190513          	addi	a0,s2,1
   15b78:	03a00613          	li	a2,58
   15b7c:	85ce                	mv	a1,s3
   15b7e:	0000a097          	auipc	ra,0xa
   15b82:	09e080e7          	jalr	158(ra) # 1fc1c <memcpy>
   15b86:	00090023          	sb	zero,0(s2)
   15b8a:	00940b63          	beq	s0,s1,15ba0 <_ZN20complex_dynamic_type3app17h7277047ffd7643b6E+0x168>
   15b8e:	6509                	lui	a0,0x2
   15b90:	64550513          	addi	a0,a0,1605 # 2645 <.Lline_table_start1+0x241a>
   15b94:	459d                	li	a1,7
   15b96:	8622                	mv	a2,s0
   15b98:	0000a097          	auipc	ra,0xa
   15b9c:	00c080e7          	jalr	12(ra) # 1fba4 <_ZN9allow_pin12dynamic_type7unshare17h0269127f30dbe29bE>
   15ba0:	00d14603          	lbu	a2,13(sp)
   15ba4:	4509                	li	a0,2
   15ba6:	00a60a63          	beq	a2,a0,15bba <_ZN20complex_dynamic_type3app17h7277047ffd7643b6E+0x182>
   15baa:	6509                	lui	a0,0x2
   15bac:	64550513          	addi	a0,a0,1605 # 2645 <.Lline_table_start1+0x241a>
   15bb0:	4599                	li	a1,6
   15bb2:	0000a097          	auipc	ra,0xa
   15bb6:	ff2080e7          	jalr	-14(ra) # 1fba4 <_ZN9allow_pin12dynamic_type7unshare17h0269127f30dbe29bE>
   15bba:	50ba                	lw	ra,172(sp)
   15bbc:	542a                	lw	s0,168(sp)
   15bbe:	549a                	lw	s1,164(sp)
   15bc0:	590a                	lw	s2,160(sp)
   15bc2:	49fa                	lw	s3,156(sp)
   15bc4:	614d                	addi	sp,sp,176
   15bc6:	8082                	ret

00015bc8 <_ZN20complex_dynamic_type3app17h732dd4946435e05fE>:
   15bc8:	7175                	addi	sp,sp,-144
   15bca:	c706                	sw	ra,140(sp)
   15bcc:	c522                	sw	s0,136(sp)
   15bce:	c326                	sw	s1,132(sp)
   15bd0:	c14a                	sw	s2,128(sp)
   15bd2:	dece                	sw	s3,124(sp)
   15bd4:	892a                	mv	s2,a0
   15bd6:	4489                	li	s1,2
   15bd8:	009100a3          	sb	s1,1(sp)
   15bdc:	00210413          	addi	s0,sp,2
   15be0:	03100613          	li	a2,49
   15be4:	8522                	mv	a0,s0
   15be6:	0000a097          	auipc	ra,0xa
   15bea:	036080e7          	jalr	54(ra) # 1fc1c <memcpy>
   15bee:	03410993          	addi	s3,sp,52
   15bf2:	04800613          	li	a2,72
   15bf6:	854e                	mv	a0,s3
   15bf8:	4581                	li	a1,0
   15bfa:	0000a097          	auipc	ra,0xa
   15bfe:	fb6080e7          	jalr	-74(ra) # 1fbb0 <memset>
   15c02:	8622                	mv	a2,s0
   15c04:	029109a3          	sb	s1,51(sp)
   15c08:	6509                	lui	a0,0x2
   15c0a:	4791                	li	a5,4
   15c0c:	4591                	li	a1,4
   15c0e:	80e50513          	addi	a0,a0,-2034 # 180e <.Lline_table_start1+0x15e3>
   15c12:	03100693          	li	a3,49
   15c16:	4711                	li	a4,4
   15c18:	00000073          	ecall
   15c1c:	00950463          	beq	a0,s1,15c24 <_ZN20complex_dynamic_type3app17h732dd4946435e05fE+0x5c>
   15c20:	00f100a3          	sb	a5,1(sp)
   15c24:	4609                	li	a2,2
   15c26:	00c51463          	bne	a0,a2,15c2e <_ZN20complex_dynamic_type3app17h732dd4946435e05fE+0x66>
   15c2a:	4785                	li	a5,1
   15c2c:	a859                	j	15cc2 <_ZN20complex_dynamic_type3app17h732dd4946435e05fE+0xfa>
   15c2e:	03314503          	lbu	a0,51(sp)
   15c32:	4785                	li	a5,1
   15c34:	02c51363          	bne	a0,a2,15c5a <_ZN20complex_dynamic_type3app17h732dd4946435e05fE+0x92>
   15c38:	864e                	mv	a2,s3
   15c3a:	6509                	lui	a0,0x2
   15c3c:	458d                	li	a1,3
   15c3e:	04800693          	li	a3,72
   15c42:	470d                	li	a4,3
   15c44:	80e50513          	addi	a0,a0,-2034 # 180e <.Lline_table_start1+0x15e3>
   15c48:	4489                	li	s1,2
   15c4a:	00000073          	ecall
   15c4e:	460d                	li	a2,3
   15c50:	00951963          	bne	a0,s1,15c62 <_ZN20complex_dynamic_type3app17h732dd4946435e05fE+0x9a>
   15c54:	4505                	li	a0,1
   15c56:	c911                	beqz	a0,15c6a <_ZN20complex_dynamic_type3app17h732dd4946435e05fE+0xa2>
   15c58:	a0ad                	j	15cc2 <_ZN20complex_dynamic_type3app17h732dd4946435e05fE+0xfa>
   15c5a:	458d                	li	a1,3
   15c5c:	4505                	li	a0,1
   15c5e:	c511                	beqz	a0,15c6a <_ZN20complex_dynamic_type3app17h732dd4946435e05fE+0xa2>
   15c60:	a08d                	j	15cc2 <_ZN20complex_dynamic_type3app17h732dd4946435e05fE+0xfa>
   15c62:	4501                	li	a0,0
   15c64:	02c109a3          	sb	a2,51(sp)
   15c68:	ed29                	bnez	a0,15cc2 <_ZN20complex_dynamic_type3app17h732dd4946435e05fE+0xfa>
   15c6a:	4681                	li	a3,0
   15c6c:	6509                	lui	a0,0x2
   15c6e:	4591                	li	a1,4
   15c70:	460d                	li	a2,3
   15c72:	4709                	li	a4,2
   15c74:	80e50513          	addi	a0,a0,-2034 # 180e <.Lline_table_start1+0x15e3>
   15c78:	07f00493          	li	s1,127
   15c7c:	00000073          	ecall
   15c80:	4689                	li	a3,2
   15c82:	04a4f063          	bgeu	s1,a0,15cc2 <_ZN20complex_dynamic_type3app17h732dd4946435e05fE+0xfa>
   15c86:	00114603          	lbu	a2,1(sp)
   15c8a:	00d60a63          	beq	a2,a3,15c9e <_ZN20complex_dynamic_type3app17h732dd4946435e05fE+0xd6>
   15c8e:	6509                	lui	a0,0x2
   15c90:	80e50513          	addi	a0,a0,-2034 # 180e <.Lline_table_start1+0x15e3>
   15c94:	4591                	li	a1,4
   15c96:	0000a097          	auipc	ra,0xa
   15c9a:	f0e080e7          	jalr	-242(ra) # 1fba4 <_ZN9allow_pin12dynamic_type7unshare17h0269127f30dbe29bE>
   15c9e:	03314603          	lbu	a2,51(sp)
   15ca2:	4409                	li	s0,2
   15ca4:	008100a3          	sb	s0,1(sp)
   15ca8:	00860a63          	beq	a2,s0,15cbc <_ZN20complex_dynamic_type3app17h732dd4946435e05fE+0xf4>
   15cac:	6509                	lui	a0,0x2
   15cae:	80e50513          	addi	a0,a0,-2034 # 180e <.Lline_table_start1+0x15e3>
   15cb2:	458d                	li	a1,3
   15cb4:	0000a097          	auipc	ra,0xa
   15cb8:	ef0080e7          	jalr	-272(ra) # 1fba4 <_ZN9allow_pin12dynamic_type7unshare17h0269127f30dbe29bE>
   15cbc:	4781                	li	a5,0
   15cbe:	028109a3          	sb	s0,51(sp)
   15cc2:	cb85                	beqz	a5,15cf2 <_ZN20complex_dynamic_type3app17h732dd4946435e05fE+0x12a>
   15cc4:	03314603          	lbu	a2,51(sp)
   15cc8:	4505                	li	a0,1
   15cca:	4409                	li	s0,2
   15ccc:	00a90023          	sb	a0,0(s2)
   15cd0:	00b92223          	sw	a1,4(s2)
   15cd4:	00860a63          	beq	a2,s0,15ce8 <_ZN20complex_dynamic_type3app17h732dd4946435e05fE+0x120>
   15cd8:	6509                	lui	a0,0x2
   15cda:	80e50513          	addi	a0,a0,-2034 # 180e <.Lline_table_start1+0x15e3>
   15cde:	458d                	li	a1,3
   15ce0:	0000a097          	auipc	ra,0xa
   15ce4:	ec4080e7          	jalr	-316(ra) # 1fba4 <_ZN9allow_pin12dynamic_type7unshare17h0269127f30dbe29bE>
   15ce8:	00114603          	lbu	a2,1(sp)
   15cec:	04861763          	bne	a2,s0,15d3a <_ZN20complex_dynamic_type3app17h732dd4946435e05fE+0x172>
   15cf0:	a8a9                	j	15d4a <_ZN20complex_dynamic_type3app17h732dd4946435e05fE+0x182>
   15cf2:	03314403          	lbu	s0,51(sp)
   15cf6:	4489                	li	s1,2
   15cf8:	00940663          	beq	s0,s1,15d04 <_ZN20complex_dynamic_type3app17h732dd4946435e05fE+0x13c>
   15cfc:	000119b7          	lui	s3,0x11
   15d00:	87998993          	addi	s3,s3,-1927 # 10879 <.Lanon.49c9f8067fe4468184af16d7576940c9.39>
   15d04:	00190513          	addi	a0,s2,1
   15d08:	04800613          	li	a2,72
   15d0c:	85ce                	mv	a1,s3
   15d0e:	0000a097          	auipc	ra,0xa
   15d12:	f0e080e7          	jalr	-242(ra) # 1fc1c <memcpy>
   15d16:	00090023          	sb	zero,0(s2)
   15d1a:	00940b63          	beq	s0,s1,15d30 <_ZN20complex_dynamic_type3app17h732dd4946435e05fE+0x168>
   15d1e:	6509                	lui	a0,0x2
   15d20:	80e50513          	addi	a0,a0,-2034 # 180e <.Lline_table_start1+0x15e3>
   15d24:	458d                	li	a1,3
   15d26:	8622                	mv	a2,s0
   15d28:	0000a097          	auipc	ra,0xa
   15d2c:	e7c080e7          	jalr	-388(ra) # 1fba4 <_ZN9allow_pin12dynamic_type7unshare17h0269127f30dbe29bE>
   15d30:	00114603          	lbu	a2,1(sp)
   15d34:	4509                	li	a0,2
   15d36:	00a60a63          	beq	a2,a0,15d4a <_ZN20complex_dynamic_type3app17h732dd4946435e05fE+0x182>
   15d3a:	6509                	lui	a0,0x2
   15d3c:	80e50513          	addi	a0,a0,-2034 # 180e <.Lline_table_start1+0x15e3>
   15d40:	4591                	li	a1,4
   15d42:	0000a097          	auipc	ra,0xa
   15d46:	e62080e7          	jalr	-414(ra) # 1fba4 <_ZN9allow_pin12dynamic_type7unshare17h0269127f30dbe29bE>
   15d4a:	40ba                	lw	ra,140(sp)
   15d4c:	442a                	lw	s0,136(sp)
   15d4e:	449a                	lw	s1,132(sp)
   15d50:	490a                	lw	s2,128(sp)
   15d52:	59f6                	lw	s3,124(sp)
   15d54:	6149                	addi	sp,sp,144
   15d56:	8082                	ret

00015d58 <_ZN20complex_dynamic_type3app17h774a18fa961c968aE>:
   15d58:	7175                	addi	sp,sp,-144
   15d5a:	c706                	sw	ra,140(sp)
   15d5c:	c522                	sw	s0,136(sp)
   15d5e:	c326                	sw	s1,132(sp)
   15d60:	c14a                	sw	s2,128(sp)
   15d62:	dece                	sw	s3,124(sp)
   15d64:	892a                	mv	s2,a0
   15d66:	4489                	li	s1,2
   15d68:	00910723          	sb	s1,14(sp)
   15d6c:	00f10413          	addi	s0,sp,15
   15d70:	03800613          	li	a2,56
   15d74:	8522                	mv	a0,s0
   15d76:	0000a097          	auipc	ra,0xa
   15d7a:	ea6080e7          	jalr	-346(ra) # 1fc1c <memcpy>
   15d7e:	04810993          	addi	s3,sp,72
   15d82:	03400613          	li	a2,52
   15d86:	854e                	mv	a0,s3
   15d88:	4581                	li	a1,0
   15d8a:	0000a097          	auipc	ra,0xa
   15d8e:	e26080e7          	jalr	-474(ra) # 1fbb0 <memset>
   15d92:	8622                	mv	a2,s0
   15d94:	049103a3          	sb	s1,71(sp)
   15d98:	4791                	li	a5,4
   15d9a:	12e00513          	li	a0,302
   15d9e:	45a1                	li	a1,8
   15da0:	03800693          	li	a3,56
   15da4:	4711                	li	a4,4
   15da6:	00000073          	ecall
   15daa:	00950463          	beq	a0,s1,15db2 <_ZN20complex_dynamic_type3app17h774a18fa961c968aE+0x5a>
   15dae:	00f10723          	sb	a5,14(sp)
   15db2:	4609                	li	a2,2
   15db4:	00c51463          	bne	a0,a2,15dbc <_ZN20complex_dynamic_type3app17h774a18fa961c968aE+0x64>
   15db8:	4785                	li	a5,1
   15dba:	a079                	j	15e48 <_ZN20complex_dynamic_type3app17h774a18fa961c968aE+0xf0>
   15dbc:	04714503          	lbu	a0,71(sp)
   15dc0:	4785                	li	a5,1
   15dc2:	02c51263          	bne	a0,a2,15de6 <_ZN20complex_dynamic_type3app17h774a18fa961c968aE+0x8e>
   15dc6:	864e                	mv	a2,s3
   15dc8:	12e00513          	li	a0,302
   15dcc:	458d                	li	a1,3
   15dce:	03400693          	li	a3,52
   15dd2:	470d                	li	a4,3
   15dd4:	4489                	li	s1,2
   15dd6:	00000073          	ecall
   15dda:	460d                	li	a2,3
   15ddc:	00951963          	bne	a0,s1,15dee <_ZN20complex_dynamic_type3app17h774a18fa961c968aE+0x96>
   15de0:	4505                	li	a0,1
   15de2:	c911                	beqz	a0,15df6 <_ZN20complex_dynamic_type3app17h774a18fa961c968aE+0x9e>
   15de4:	a095                	j	15e48 <_ZN20complex_dynamic_type3app17h774a18fa961c968aE+0xf0>
   15de6:	458d                	li	a1,3
   15de8:	4505                	li	a0,1
   15dea:	c511                	beqz	a0,15df6 <_ZN20complex_dynamic_type3app17h774a18fa961c968aE+0x9e>
   15dec:	a8b1                	j	15e48 <_ZN20complex_dynamic_type3app17h774a18fa961c968aE+0xf0>
   15dee:	4501                	li	a0,0
   15df0:	04c103a3          	sb	a2,71(sp)
   15df4:	e931                	bnez	a0,15e48 <_ZN20complex_dynamic_type3app17h774a18fa961c968aE+0xf0>
   15df6:	4681                	li	a3,0
   15df8:	12e00513          	li	a0,302
   15dfc:	45a1                	li	a1,8
   15dfe:	460d                	li	a2,3
   15e00:	4709                	li	a4,2
   15e02:	07f00493          	li	s1,127
   15e06:	00000073          	ecall
   15e0a:	4689                	li	a3,2
   15e0c:	02a4fe63          	bgeu	s1,a0,15e48 <_ZN20complex_dynamic_type3app17h774a18fa961c968aE+0xf0>
   15e10:	00e14603          	lbu	a2,14(sp)
   15e14:	00d60963          	beq	a2,a3,15e26 <_ZN20complex_dynamic_type3app17h774a18fa961c968aE+0xce>
   15e18:	12e00513          	li	a0,302
   15e1c:	45a1                	li	a1,8
   15e1e:	0000a097          	auipc	ra,0xa
   15e22:	d86080e7          	jalr	-634(ra) # 1fba4 <_ZN9allow_pin12dynamic_type7unshare17h0269127f30dbe29bE>
   15e26:	04714603          	lbu	a2,71(sp)
   15e2a:	4409                	li	s0,2
   15e2c:	00810723          	sb	s0,14(sp)
   15e30:	00860963          	beq	a2,s0,15e42 <_ZN20complex_dynamic_type3app17h774a18fa961c968aE+0xea>
   15e34:	12e00513          	li	a0,302
   15e38:	458d                	li	a1,3
   15e3a:	0000a097          	auipc	ra,0xa
   15e3e:	d6a080e7          	jalr	-662(ra) # 1fba4 <_ZN9allow_pin12dynamic_type7unshare17h0269127f30dbe29bE>
   15e42:	4781                	li	a5,0
   15e44:	048103a3          	sb	s0,71(sp)
   15e48:	c79d                	beqz	a5,15e76 <_ZN20complex_dynamic_type3app17h774a18fa961c968aE+0x11e>
   15e4a:	04714603          	lbu	a2,71(sp)
   15e4e:	4505                	li	a0,1
   15e50:	4409                	li	s0,2
   15e52:	00a90023          	sb	a0,0(s2)
   15e56:	00b92223          	sw	a1,4(s2)
   15e5a:	00860963          	beq	a2,s0,15e6c <_ZN20complex_dynamic_type3app17h774a18fa961c968aE+0x114>
   15e5e:	12e00513          	li	a0,302
   15e62:	458d                	li	a1,3
   15e64:	0000a097          	auipc	ra,0xa
   15e68:	d40080e7          	jalr	-704(ra) # 1fba4 <_ZN9allow_pin12dynamic_type7unshare17h0269127f30dbe29bE>
   15e6c:	00e14603          	lbu	a2,14(sp)
   15e70:	04861663          	bne	a2,s0,15ebc <_ZN20complex_dynamic_type3app17h774a18fa961c968aE+0x164>
   15e74:	a899                	j	15eca <_ZN20complex_dynamic_type3app17h774a18fa961c968aE+0x172>
   15e76:	04714403          	lbu	s0,71(sp)
   15e7a:	4489                	li	s1,2
   15e7c:	00940663          	beq	s0,s1,15e88 <_ZN20complex_dynamic_type3app17h774a18fa961c968aE+0x130>
   15e80:	000109b7          	lui	s3,0x10
   15e84:	55498993          	addi	s3,s3,1364 # 10554 <.Lanon.49c9f8067fe4468184af16d7576940c9.22>
   15e88:	00190513          	addi	a0,s2,1
   15e8c:	03400613          	li	a2,52
   15e90:	85ce                	mv	a1,s3
   15e92:	0000a097          	auipc	ra,0xa
   15e96:	d8a080e7          	jalr	-630(ra) # 1fc1c <memcpy>
   15e9a:	00090023          	sb	zero,0(s2)
   15e9e:	00940a63          	beq	s0,s1,15eb2 <_ZN20complex_dynamic_type3app17h774a18fa961c968aE+0x15a>
   15ea2:	12e00513          	li	a0,302
   15ea6:	458d                	li	a1,3
   15ea8:	8622                	mv	a2,s0
   15eaa:	0000a097          	auipc	ra,0xa
   15eae:	cfa080e7          	jalr	-774(ra) # 1fba4 <_ZN9allow_pin12dynamic_type7unshare17h0269127f30dbe29bE>
   15eb2:	00e14603          	lbu	a2,14(sp)
   15eb6:	4509                	li	a0,2
   15eb8:	00a60963          	beq	a2,a0,15eca <_ZN20complex_dynamic_type3app17h774a18fa961c968aE+0x172>
   15ebc:	12e00513          	li	a0,302
   15ec0:	45a1                	li	a1,8
   15ec2:	0000a097          	auipc	ra,0xa
   15ec6:	ce2080e7          	jalr	-798(ra) # 1fba4 <_ZN9allow_pin12dynamic_type7unshare17h0269127f30dbe29bE>
   15eca:	40ba                	lw	ra,140(sp)
   15ecc:	442a                	lw	s0,136(sp)
   15ece:	449a                	lw	s1,132(sp)
   15ed0:	490a                	lw	s2,128(sp)
   15ed2:	59f6                	lw	s3,124(sp)
   15ed4:	6149                	addi	sp,sp,144
   15ed6:	8082                	ret

00015ed8 <_ZN20complex_dynamic_type3app17h779d9caed8dda505E>:
   15ed8:	7175                	addi	sp,sp,-144
   15eda:	c706                	sw	ra,140(sp)
   15edc:	c522                	sw	s0,136(sp)
   15ede:	c326                	sw	s1,132(sp)
   15ee0:	c14a                	sw	s2,128(sp)
   15ee2:	dece                	sw	s3,124(sp)
   15ee4:	892a                	mv	s2,a0
   15ee6:	4489                	li	s1,2
   15ee8:	009101a3          	sb	s1,3(sp)
   15eec:	0040                	addi	s0,sp,4
   15eee:	04a00613          	li	a2,74
   15ef2:	8522                	mv	a0,s0
   15ef4:	0000a097          	auipc	ra,0xa
   15ef8:	d28080e7          	jalr	-728(ra) # 1fc1c <memcpy>
   15efc:	04f10993          	addi	s3,sp,79
   15f00:	02d00613          	li	a2,45
   15f04:	854e                	mv	a0,s3
   15f06:	4581                	li	a1,0
   15f08:	0000a097          	auipc	ra,0xa
   15f0c:	ca8080e7          	jalr	-856(ra) # 1fbb0 <memset>
   15f10:	8622                	mv	a2,s0
   15f12:	04910723          	sb	s1,78(sp)
   15f16:	6505                	lui	a0,0x1
   15f18:	4791                	li	a5,4
   15f1a:	4589                	li	a1,2
   15f1c:	e3d50513          	addi	a0,a0,-451 # e3d <.Lline_table_start1+0xc12>
   15f20:	04a00693          	li	a3,74
   15f24:	4711                	li	a4,4
   15f26:	00000073          	ecall
   15f2a:	00950463          	beq	a0,s1,15f32 <_ZN20complex_dynamic_type3app17h779d9caed8dda505E+0x5a>
   15f2e:	00f101a3          	sb	a5,3(sp)
   15f32:	4609                	li	a2,2
   15f34:	00c51463          	bne	a0,a2,15f3c <_ZN20complex_dynamic_type3app17h779d9caed8dda505E+0x64>
   15f38:	4785                	li	a5,1
   15f3a:	a859                	j	15fd0 <_ZN20complex_dynamic_type3app17h779d9caed8dda505E+0xf8>
   15f3c:	04e14503          	lbu	a0,78(sp)
   15f40:	4785                	li	a5,1
   15f42:	02c51363          	bne	a0,a2,15f68 <_ZN20complex_dynamic_type3app17h779d9caed8dda505E+0x90>
   15f46:	864e                	mv	a2,s3
   15f48:	6505                	lui	a0,0x1
   15f4a:	458d                	li	a1,3
   15f4c:	02d00693          	li	a3,45
   15f50:	470d                	li	a4,3
   15f52:	e3d50513          	addi	a0,a0,-451 # e3d <.Lline_table_start1+0xc12>
   15f56:	4489                	li	s1,2
   15f58:	00000073          	ecall
   15f5c:	460d                	li	a2,3
   15f5e:	00951963          	bne	a0,s1,15f70 <_ZN20complex_dynamic_type3app17h779d9caed8dda505E+0x98>
   15f62:	4505                	li	a0,1
   15f64:	c911                	beqz	a0,15f78 <_ZN20complex_dynamic_type3app17h779d9caed8dda505E+0xa0>
   15f66:	a0ad                	j	15fd0 <_ZN20complex_dynamic_type3app17h779d9caed8dda505E+0xf8>
   15f68:	458d                	li	a1,3
   15f6a:	4505                	li	a0,1
   15f6c:	c511                	beqz	a0,15f78 <_ZN20complex_dynamic_type3app17h779d9caed8dda505E+0xa0>
   15f6e:	a08d                	j	15fd0 <_ZN20complex_dynamic_type3app17h779d9caed8dda505E+0xf8>
   15f70:	4501                	li	a0,0
   15f72:	04c10723          	sb	a2,78(sp)
   15f76:	ed29                	bnez	a0,15fd0 <_ZN20complex_dynamic_type3app17h779d9caed8dda505E+0xf8>
   15f78:	4681                	li	a3,0
   15f7a:	6505                	lui	a0,0x1
   15f7c:	4589                	li	a1,2
   15f7e:	460d                	li	a2,3
   15f80:	4709                	li	a4,2
   15f82:	e3d50513          	addi	a0,a0,-451 # e3d <.Lline_table_start1+0xc12>
   15f86:	07f00493          	li	s1,127
   15f8a:	00000073          	ecall
   15f8e:	4689                	li	a3,2
   15f90:	04a4f063          	bgeu	s1,a0,15fd0 <_ZN20complex_dynamic_type3app17h779d9caed8dda505E+0xf8>
   15f94:	00314603          	lbu	a2,3(sp)
   15f98:	00d60a63          	beq	a2,a3,15fac <_ZN20complex_dynamic_type3app17h779d9caed8dda505E+0xd4>
   15f9c:	6505                	lui	a0,0x1
   15f9e:	e3d50513          	addi	a0,a0,-451 # e3d <.Lline_table_start1+0xc12>
   15fa2:	4589                	li	a1,2
   15fa4:	0000a097          	auipc	ra,0xa
   15fa8:	c00080e7          	jalr	-1024(ra) # 1fba4 <_ZN9allow_pin12dynamic_type7unshare17h0269127f30dbe29bE>
   15fac:	04e14603          	lbu	a2,78(sp)
   15fb0:	4409                	li	s0,2
   15fb2:	008101a3          	sb	s0,3(sp)
   15fb6:	00860a63          	beq	a2,s0,15fca <_ZN20complex_dynamic_type3app17h779d9caed8dda505E+0xf2>
   15fba:	6505                	lui	a0,0x1
   15fbc:	e3d50513          	addi	a0,a0,-451 # e3d <.Lline_table_start1+0xc12>
   15fc0:	458d                	li	a1,3
   15fc2:	0000a097          	auipc	ra,0xa
   15fc6:	be2080e7          	jalr	-1054(ra) # 1fba4 <_ZN9allow_pin12dynamic_type7unshare17h0269127f30dbe29bE>
   15fca:	4781                	li	a5,0
   15fcc:	04810723          	sb	s0,78(sp)
   15fd0:	cb85                	beqz	a5,16000 <_ZN20complex_dynamic_type3app17h779d9caed8dda505E+0x128>
   15fd2:	04e14603          	lbu	a2,78(sp)
   15fd6:	4505                	li	a0,1
   15fd8:	4409                	li	s0,2
   15fda:	00a90023          	sb	a0,0(s2)
   15fde:	00b92223          	sw	a1,4(s2)
   15fe2:	00860a63          	beq	a2,s0,15ff6 <_ZN20complex_dynamic_type3app17h779d9caed8dda505E+0x11e>
   15fe6:	6505                	lui	a0,0x1
   15fe8:	e3d50513          	addi	a0,a0,-451 # e3d <.Lline_table_start1+0xc12>
   15fec:	458d                	li	a1,3
   15fee:	0000a097          	auipc	ra,0xa
   15ff2:	bb6080e7          	jalr	-1098(ra) # 1fba4 <_ZN9allow_pin12dynamic_type7unshare17h0269127f30dbe29bE>
   15ff6:	00314603          	lbu	a2,3(sp)
   15ffa:	04861763          	bne	a2,s0,16048 <_ZN20complex_dynamic_type3app17h779d9caed8dda505E+0x170>
   15ffe:	a8a9                	j	16058 <_ZN20complex_dynamic_type3app17h779d9caed8dda505E+0x180>
   16000:	04e14403          	lbu	s0,78(sp)
   16004:	4489                	li	s1,2
   16006:	00940663          	beq	s0,s1,16012 <_ZN20complex_dynamic_type3app17h779d9caed8dda505E+0x13a>
   1600a:	000109b7          	lui	s3,0x10
   1600e:	4a698993          	addi	s3,s3,1190 # 104a6 <.Lanon.49c9f8067fe4468184af16d7576940c9.18>
   16012:	00190513          	addi	a0,s2,1
   16016:	02d00613          	li	a2,45
   1601a:	85ce                	mv	a1,s3
   1601c:	0000a097          	auipc	ra,0xa
   16020:	c00080e7          	jalr	-1024(ra) # 1fc1c <memcpy>
   16024:	00090023          	sb	zero,0(s2)
   16028:	00940b63          	beq	s0,s1,1603e <_ZN20complex_dynamic_type3app17h779d9caed8dda505E+0x166>
   1602c:	6505                	lui	a0,0x1
   1602e:	e3d50513          	addi	a0,a0,-451 # e3d <.Lline_table_start1+0xc12>
   16032:	458d                	li	a1,3
   16034:	8622                	mv	a2,s0
   16036:	0000a097          	auipc	ra,0xa
   1603a:	b6e080e7          	jalr	-1170(ra) # 1fba4 <_ZN9allow_pin12dynamic_type7unshare17h0269127f30dbe29bE>
   1603e:	00314603          	lbu	a2,3(sp)
   16042:	4509                	li	a0,2
   16044:	00a60a63          	beq	a2,a0,16058 <_ZN20complex_dynamic_type3app17h779d9caed8dda505E+0x180>
   16048:	6505                	lui	a0,0x1
   1604a:	e3d50513          	addi	a0,a0,-451 # e3d <.Lline_table_start1+0xc12>
   1604e:	4589                	li	a1,2
   16050:	0000a097          	auipc	ra,0xa
   16054:	b54080e7          	jalr	-1196(ra) # 1fba4 <_ZN9allow_pin12dynamic_type7unshare17h0269127f30dbe29bE>
   16058:	40ba                	lw	ra,140(sp)
   1605a:	442a                	lw	s0,136(sp)
   1605c:	449a                	lw	s1,132(sp)
   1605e:	490a                	lw	s2,128(sp)
   16060:	59f6                	lw	s3,124(sp)
   16062:	6149                	addi	sp,sp,144
   16064:	8082                	ret

00016066 <_ZN20complex_dynamic_type3app17h78e5f48c39462759E>:
   16066:	7131                	addi	sp,sp,-192
   16068:	df06                	sw	ra,188(sp)
   1606a:	dd22                	sw	s0,184(sp)
   1606c:	db26                	sw	s1,180(sp)
   1606e:	d94a                	sw	s2,176(sp)
   16070:	d74e                	sw	s3,172(sp)
   16072:	892a                	mv	s2,a0
   16074:	4489                	li	s1,2
   16076:	009103a3          	sb	s1,7(sp)
   1607a:	0020                	addi	s0,sp,8
   1607c:	05900613          	li	a2,89
   16080:	8522                	mv	a0,s0
   16082:	0000a097          	auipc	ra,0xa
   16086:	b9a080e7          	jalr	-1126(ra) # 1fc1c <memcpy>
   1608a:	06210993          	addi	s3,sp,98
   1608e:	04a00613          	li	a2,74
   16092:	854e                	mv	a0,s3
   16094:	4581                	li	a1,0
   16096:	0000a097          	auipc	ra,0xa
   1609a:	b1a080e7          	jalr	-1254(ra) # 1fbb0 <memset>
   1609e:	4581                	li	a1,0
   160a0:	8622                	mv	a2,s0
   160a2:	069100a3          	sb	s1,97(sp)
   160a6:	6505                	lui	a0,0x1
   160a8:	4791                	li	a5,4
   160aa:	48450513          	addi	a0,a0,1156 # 1484 <.Lline_table_start1+0x1259>
   160ae:	05900693          	li	a3,89
   160b2:	4711                	li	a4,4
   160b4:	00000073          	ecall
   160b8:	00950463          	beq	a0,s1,160c0 <_ZN20complex_dynamic_type3app17h78e5f48c39462759E+0x5a>
   160bc:	00f103a3          	sb	a5,7(sp)
   160c0:	4609                	li	a2,2
   160c2:	00c51463          	bne	a0,a2,160ca <_ZN20complex_dynamic_type3app17h78e5f48c39462759E+0x64>
   160c6:	4785                	li	a5,1
   160c8:	a859                	j	1615e <_ZN20complex_dynamic_type3app17h78e5f48c39462759E+0xf8>
   160ca:	06114503          	lbu	a0,97(sp)
   160ce:	4785                	li	a5,1
   160d0:	02c51363          	bne	a0,a2,160f6 <_ZN20complex_dynamic_type3app17h78e5f48c39462759E+0x90>
   160d4:	864e                	mv	a2,s3
   160d6:	6505                	lui	a0,0x1
   160d8:	4591                	li	a1,4
   160da:	04a00693          	li	a3,74
   160de:	470d                	li	a4,3
   160e0:	48450513          	addi	a0,a0,1156 # 1484 <.Lline_table_start1+0x1259>
   160e4:	4489                	li	s1,2
   160e6:	00000073          	ecall
   160ea:	460d                	li	a2,3
   160ec:	00951963          	bne	a0,s1,160fe <_ZN20complex_dynamic_type3app17h78e5f48c39462759E+0x98>
   160f0:	4505                	li	a0,1
   160f2:	c911                	beqz	a0,16106 <_ZN20complex_dynamic_type3app17h78e5f48c39462759E+0xa0>
   160f4:	a0ad                	j	1615e <_ZN20complex_dynamic_type3app17h78e5f48c39462759E+0xf8>
   160f6:	458d                	li	a1,3
   160f8:	4505                	li	a0,1
   160fa:	c511                	beqz	a0,16106 <_ZN20complex_dynamic_type3app17h78e5f48c39462759E+0xa0>
   160fc:	a08d                	j	1615e <_ZN20complex_dynamic_type3app17h78e5f48c39462759E+0xf8>
   160fe:	4501                	li	a0,0
   16100:	06c100a3          	sb	a2,97(sp)
   16104:	ed29                	bnez	a0,1615e <_ZN20complex_dynamic_type3app17h78e5f48c39462759E+0xf8>
   16106:	4581                	li	a1,0
   16108:	4681                	li	a3,0
   1610a:	6505                	lui	a0,0x1
   1610c:	4611                	li	a2,4
   1610e:	4709                	li	a4,2
   16110:	48450513          	addi	a0,a0,1156 # 1484 <.Lline_table_start1+0x1259>
   16114:	07f00493          	li	s1,127
   16118:	00000073          	ecall
   1611c:	4689                	li	a3,2
   1611e:	04a4f063          	bgeu	s1,a0,1615e <_ZN20complex_dynamic_type3app17h78e5f48c39462759E+0xf8>
   16122:	00714603          	lbu	a2,7(sp)
   16126:	00d60a63          	beq	a2,a3,1613a <_ZN20complex_dynamic_type3app17h78e5f48c39462759E+0xd4>
   1612a:	6505                	lui	a0,0x1
   1612c:	48450513          	addi	a0,a0,1156 # 1484 <.Lline_table_start1+0x1259>
   16130:	4581                	li	a1,0
   16132:	0000a097          	auipc	ra,0xa
   16136:	a72080e7          	jalr	-1422(ra) # 1fba4 <_ZN9allow_pin12dynamic_type7unshare17h0269127f30dbe29bE>
   1613a:	06114603          	lbu	a2,97(sp)
   1613e:	4409                	li	s0,2
   16140:	008103a3          	sb	s0,7(sp)
   16144:	00860a63          	beq	a2,s0,16158 <_ZN20complex_dynamic_type3app17h78e5f48c39462759E+0xf2>
   16148:	6505                	lui	a0,0x1
   1614a:	48450513          	addi	a0,a0,1156 # 1484 <.Lline_table_start1+0x1259>
   1614e:	4591                	li	a1,4
   16150:	0000a097          	auipc	ra,0xa
   16154:	a54080e7          	jalr	-1452(ra) # 1fba4 <_ZN9allow_pin12dynamic_type7unshare17h0269127f30dbe29bE>
   16158:	4781                	li	a5,0
   1615a:	068100a3          	sb	s0,97(sp)
   1615e:	cb85                	beqz	a5,1618e <_ZN20complex_dynamic_type3app17h78e5f48c39462759E+0x128>
   16160:	06114603          	lbu	a2,97(sp)
   16164:	4505                	li	a0,1
   16166:	4409                	li	s0,2
   16168:	00a90023          	sb	a0,0(s2)
   1616c:	00b92223          	sw	a1,4(s2)
   16170:	00860a63          	beq	a2,s0,16184 <_ZN20complex_dynamic_type3app17h78e5f48c39462759E+0x11e>
   16174:	6505                	lui	a0,0x1
   16176:	48450513          	addi	a0,a0,1156 # 1484 <.Lline_table_start1+0x1259>
   1617a:	4591                	li	a1,4
   1617c:	0000a097          	auipc	ra,0xa
   16180:	a28080e7          	jalr	-1496(ra) # 1fba4 <_ZN9allow_pin12dynamic_type7unshare17h0269127f30dbe29bE>
   16184:	00714603          	lbu	a2,7(sp)
   16188:	04861763          	bne	a2,s0,161d6 <_ZN20complex_dynamic_type3app17h78e5f48c39462759E+0x170>
   1618c:	a8a9                	j	161e6 <_ZN20complex_dynamic_type3app17h78e5f48c39462759E+0x180>
   1618e:	06114403          	lbu	s0,97(sp)
   16192:	4489                	li	s1,2
   16194:	00940663          	beq	s0,s1,161a0 <_ZN20complex_dynamic_type3app17h78e5f48c39462759E+0x13a>
   16198:	000109b7          	lui	s3,0x10
   1619c:	24698993          	addi	s3,s3,582 # 10246 <.Lanon.49c9f8067fe4468184af16d7576940c9.5>
   161a0:	00190513          	addi	a0,s2,1
   161a4:	04a00613          	li	a2,74
   161a8:	85ce                	mv	a1,s3
   161aa:	0000a097          	auipc	ra,0xa
   161ae:	a72080e7          	jalr	-1422(ra) # 1fc1c <memcpy>
   161b2:	00090023          	sb	zero,0(s2)
   161b6:	00940b63          	beq	s0,s1,161cc <_ZN20complex_dynamic_type3app17h78e5f48c39462759E+0x166>
   161ba:	6505                	lui	a0,0x1
   161bc:	48450513          	addi	a0,a0,1156 # 1484 <.Lline_table_start1+0x1259>
   161c0:	4591                	li	a1,4
   161c2:	8622                	mv	a2,s0
   161c4:	0000a097          	auipc	ra,0xa
   161c8:	9e0080e7          	jalr	-1568(ra) # 1fba4 <_ZN9allow_pin12dynamic_type7unshare17h0269127f30dbe29bE>
   161cc:	00714603          	lbu	a2,7(sp)
   161d0:	4509                	li	a0,2
   161d2:	00a60a63          	beq	a2,a0,161e6 <_ZN20complex_dynamic_type3app17h78e5f48c39462759E+0x180>
   161d6:	6505                	lui	a0,0x1
   161d8:	48450513          	addi	a0,a0,1156 # 1484 <.Lline_table_start1+0x1259>
   161dc:	4581                	li	a1,0
   161de:	0000a097          	auipc	ra,0xa
   161e2:	9c6080e7          	jalr	-1594(ra) # 1fba4 <_ZN9allow_pin12dynamic_type7unshare17h0269127f30dbe29bE>
   161e6:	50fa                	lw	ra,188(sp)
   161e8:	546a                	lw	s0,184(sp)
   161ea:	54da                	lw	s1,180(sp)
   161ec:	594a                	lw	s2,176(sp)
   161ee:	59ba                	lw	s3,172(sp)
   161f0:	6129                	addi	sp,sp,192
   161f2:	8082                	ret

000161f4 <_ZN20complex_dynamic_type3app17h7a0fbf01524e338aE>:
   161f4:	7119                	addi	sp,sp,-128
   161f6:	de86                	sw	ra,124(sp)
   161f8:	dca2                	sw	s0,120(sp)
   161fa:	daa6                	sw	s1,116(sp)
   161fc:	d8ca                	sw	s2,112(sp)
   161fe:	d6ce                	sw	s3,108(sp)
   16200:	892a                	mv	s2,a0
   16202:	4489                	li	s1,2
   16204:	00910723          	sb	s1,14(sp)
   16208:	00f10413          	addi	s0,sp,15
   1620c:	466d                	li	a2,27
   1620e:	8522                	mv	a0,s0
   16210:	0000a097          	auipc	ra,0xa
   16214:	a0c080e7          	jalr	-1524(ra) # 1fc1c <memcpy>
   16218:	02b10993          	addi	s3,sp,43
   1621c:	04100613          	li	a2,65
   16220:	854e                	mv	a0,s3
   16222:	4581                	li	a1,0
   16224:	0000a097          	auipc	ra,0xa
   16228:	98c080e7          	jalr	-1652(ra) # 1fbb0 <memset>
   1622c:	8622                	mv	a2,s0
   1622e:	02910523          	sb	s1,42(sp)
   16232:	4791                	li	a5,4
   16234:	14000513          	li	a0,320
   16238:	45a1                	li	a1,8
   1623a:	46ed                	li	a3,27
   1623c:	4711                	li	a4,4
   1623e:	00000073          	ecall
   16242:	00950463          	beq	a0,s1,1624a <_ZN20complex_dynamic_type3app17h7a0fbf01524e338aE+0x56>
   16246:	00f10723          	sb	a5,14(sp)
   1624a:	4609                	li	a2,2
   1624c:	00c51463          	bne	a0,a2,16254 <_ZN20complex_dynamic_type3app17h7a0fbf01524e338aE+0x60>
   16250:	4785                	li	a5,1
   16252:	a079                	j	162e0 <_ZN20complex_dynamic_type3app17h7a0fbf01524e338aE+0xec>
   16254:	02a14503          	lbu	a0,42(sp)
   16258:	4785                	li	a5,1
   1625a:	02c51263          	bne	a0,a2,1627e <_ZN20complex_dynamic_type3app17h7a0fbf01524e338aE+0x8a>
   1625e:	864e                	mv	a2,s3
   16260:	14000513          	li	a0,320
   16264:	45a5                	li	a1,9
   16266:	04100693          	li	a3,65
   1626a:	470d                	li	a4,3
   1626c:	4489                	li	s1,2
   1626e:	00000073          	ecall
   16272:	460d                	li	a2,3
   16274:	00951963          	bne	a0,s1,16286 <_ZN20complex_dynamic_type3app17h7a0fbf01524e338aE+0x92>
   16278:	4505                	li	a0,1
   1627a:	c911                	beqz	a0,1628e <_ZN20complex_dynamic_type3app17h7a0fbf01524e338aE+0x9a>
   1627c:	a095                	j	162e0 <_ZN20complex_dynamic_type3app17h7a0fbf01524e338aE+0xec>
   1627e:	458d                	li	a1,3
   16280:	4505                	li	a0,1
   16282:	c511                	beqz	a0,1628e <_ZN20complex_dynamic_type3app17h7a0fbf01524e338aE+0x9a>
   16284:	a8b1                	j	162e0 <_ZN20complex_dynamic_type3app17h7a0fbf01524e338aE+0xec>
   16286:	4501                	li	a0,0
   16288:	02c10523          	sb	a2,42(sp)
   1628c:	e931                	bnez	a0,162e0 <_ZN20complex_dynamic_type3app17h7a0fbf01524e338aE+0xec>
   1628e:	4681                	li	a3,0
   16290:	14000513          	li	a0,320
   16294:	45a1                	li	a1,8
   16296:	4625                	li	a2,9
   16298:	4709                	li	a4,2
   1629a:	07f00493          	li	s1,127
   1629e:	00000073          	ecall
   162a2:	4689                	li	a3,2
   162a4:	02a4fe63          	bgeu	s1,a0,162e0 <_ZN20complex_dynamic_type3app17h7a0fbf01524e338aE+0xec>
   162a8:	00e14603          	lbu	a2,14(sp)
   162ac:	00d60963          	beq	a2,a3,162be <_ZN20complex_dynamic_type3app17h7a0fbf01524e338aE+0xca>
   162b0:	14000513          	li	a0,320
   162b4:	45a1                	li	a1,8
   162b6:	0000a097          	auipc	ra,0xa
   162ba:	8ee080e7          	jalr	-1810(ra) # 1fba4 <_ZN9allow_pin12dynamic_type7unshare17h0269127f30dbe29bE>
   162be:	02a14603          	lbu	a2,42(sp)
   162c2:	4409                	li	s0,2
   162c4:	00810723          	sb	s0,14(sp)
   162c8:	00860963          	beq	a2,s0,162da <_ZN20complex_dynamic_type3app17h7a0fbf01524e338aE+0xe6>
   162cc:	14000513          	li	a0,320
   162d0:	45a5                	li	a1,9
   162d2:	0000a097          	auipc	ra,0xa
   162d6:	8d2080e7          	jalr	-1838(ra) # 1fba4 <_ZN9allow_pin12dynamic_type7unshare17h0269127f30dbe29bE>
   162da:	4781                	li	a5,0
   162dc:	02810523          	sb	s0,42(sp)
   162e0:	c79d                	beqz	a5,1630e <_ZN20complex_dynamic_type3app17h7a0fbf01524e338aE+0x11a>
   162e2:	02a14603          	lbu	a2,42(sp)
   162e6:	4505                	li	a0,1
   162e8:	4409                	li	s0,2
   162ea:	00a90023          	sb	a0,0(s2)
   162ee:	00b92223          	sw	a1,4(s2)
   162f2:	00860963          	beq	a2,s0,16304 <_ZN20complex_dynamic_type3app17h7a0fbf01524e338aE+0x110>
   162f6:	14000513          	li	a0,320
   162fa:	45a5                	li	a1,9
   162fc:	0000a097          	auipc	ra,0xa
   16300:	8a8080e7          	jalr	-1880(ra) # 1fba4 <_ZN9allow_pin12dynamic_type7unshare17h0269127f30dbe29bE>
   16304:	00e14603          	lbu	a2,14(sp)
   16308:	04861663          	bne	a2,s0,16354 <_ZN20complex_dynamic_type3app17h7a0fbf01524e338aE+0x160>
   1630c:	a899                	j	16362 <_ZN20complex_dynamic_type3app17h7a0fbf01524e338aE+0x16e>
   1630e:	02a14403          	lbu	s0,42(sp)
   16312:	4489                	li	s1,2
   16314:	00940663          	beq	s0,s1,16320 <_ZN20complex_dynamic_type3app17h7a0fbf01524e338aE+0x12c>
   16318:	000109b7          	lui	s3,0x10
   1631c:	34b98993          	addi	s3,s3,843 # 1034b <.Lanon.49c9f8067fe4468184af16d7576940c9.10>
   16320:	00190513          	addi	a0,s2,1
   16324:	04100613          	li	a2,65
   16328:	85ce                	mv	a1,s3
   1632a:	0000a097          	auipc	ra,0xa
   1632e:	8f2080e7          	jalr	-1806(ra) # 1fc1c <memcpy>
   16332:	00090023          	sb	zero,0(s2)
   16336:	00940a63          	beq	s0,s1,1634a <_ZN20complex_dynamic_type3app17h7a0fbf01524e338aE+0x156>
   1633a:	14000513          	li	a0,320
   1633e:	45a5                	li	a1,9
   16340:	8622                	mv	a2,s0
   16342:	0000a097          	auipc	ra,0xa
   16346:	862080e7          	jalr	-1950(ra) # 1fba4 <_ZN9allow_pin12dynamic_type7unshare17h0269127f30dbe29bE>
   1634a:	00e14603          	lbu	a2,14(sp)
   1634e:	4509                	li	a0,2
   16350:	00a60963          	beq	a2,a0,16362 <_ZN20complex_dynamic_type3app17h7a0fbf01524e338aE+0x16e>
   16354:	14000513          	li	a0,320
   16358:	45a1                	li	a1,8
   1635a:	0000a097          	auipc	ra,0xa
   1635e:	84a080e7          	jalr	-1974(ra) # 1fba4 <_ZN9allow_pin12dynamic_type7unshare17h0269127f30dbe29bE>
   16362:	50f6                	lw	ra,124(sp)
   16364:	5466                	lw	s0,120(sp)
   16366:	54d6                	lw	s1,116(sp)
   16368:	5946                	lw	s2,112(sp)
   1636a:	59b6                	lw	s3,108(sp)
   1636c:	6109                	addi	sp,sp,128
   1636e:	8082                	ret

00016370 <_ZN20complex_dynamic_type3app17h7ab41c90f7791fc1E>:
   16370:	7135                	addi	sp,sp,-160
   16372:	cf06                	sw	ra,156(sp)
   16374:	cd22                	sw	s0,152(sp)
   16376:	cb26                	sw	s1,148(sp)
   16378:	c94a                	sw	s2,144(sp)
   1637a:	c74e                	sw	s3,140(sp)
   1637c:	892a                	mv	s2,a0
   1637e:	4489                	li	s1,2
   16380:	00910023          	sb	s1,0(sp)
   16384:	00110413          	addi	s0,sp,1
   16388:	04f00613          	li	a2,79
   1638c:	8522                	mv	a0,s0
   1638e:	0000a097          	auipc	ra,0xa
   16392:	88e080e7          	jalr	-1906(ra) # 1fc1c <memcpy>
   16396:	05110993          	addi	s3,sp,81
   1639a:	03b00613          	li	a2,59
   1639e:	854e                	mv	a0,s3
   163a0:	4581                	li	a1,0
   163a2:	0000a097          	auipc	ra,0xa
   163a6:	80e080e7          	jalr	-2034(ra) # 1fbb0 <memset>
   163aa:	8622                	mv	a2,s0
   163ac:	04910823          	sb	s1,80(sp)
   163b0:	6505                	lui	a0,0x1
   163b2:	4791                	li	a5,4
   163b4:	45a1                	li	a1,8
   163b6:	a0650513          	addi	a0,a0,-1530 # a06 <.Lline_table_start1+0x7db>
   163ba:	04f00693          	li	a3,79
   163be:	4711                	li	a4,4
   163c0:	00000073          	ecall
   163c4:	00950463          	beq	a0,s1,163cc <_ZN20complex_dynamic_type3app17h7ab41c90f7791fc1E+0x5c>
   163c8:	00f10023          	sb	a5,0(sp)
   163cc:	4609                	li	a2,2
   163ce:	00c51463          	bne	a0,a2,163d6 <_ZN20complex_dynamic_type3app17h7ab41c90f7791fc1E+0x66>
   163d2:	4785                	li	a5,1
   163d4:	a859                	j	1646a <_ZN20complex_dynamic_type3app17h7ab41c90f7791fc1E+0xfa>
   163d6:	05014503          	lbu	a0,80(sp)
   163da:	4785                	li	a5,1
   163dc:	02c51363          	bne	a0,a2,16402 <_ZN20complex_dynamic_type3app17h7ab41c90f7791fc1E+0x92>
   163e0:	864e                	mv	a2,s3
   163e2:	6505                	lui	a0,0x1
   163e4:	4595                	li	a1,5
   163e6:	03b00693          	li	a3,59
   163ea:	470d                	li	a4,3
   163ec:	a0650513          	addi	a0,a0,-1530 # a06 <.Lline_table_start1+0x7db>
   163f0:	4489                	li	s1,2
   163f2:	00000073          	ecall
   163f6:	460d                	li	a2,3
   163f8:	00951963          	bne	a0,s1,1640a <_ZN20complex_dynamic_type3app17h7ab41c90f7791fc1E+0x9a>
   163fc:	4505                	li	a0,1
   163fe:	c911                	beqz	a0,16412 <_ZN20complex_dynamic_type3app17h7ab41c90f7791fc1E+0xa2>
   16400:	a0ad                	j	1646a <_ZN20complex_dynamic_type3app17h7ab41c90f7791fc1E+0xfa>
   16402:	458d                	li	a1,3
   16404:	4505                	li	a0,1
   16406:	c511                	beqz	a0,16412 <_ZN20complex_dynamic_type3app17h7ab41c90f7791fc1E+0xa2>
   16408:	a08d                	j	1646a <_ZN20complex_dynamic_type3app17h7ab41c90f7791fc1E+0xfa>
   1640a:	4501                	li	a0,0
   1640c:	04c10823          	sb	a2,80(sp)
   16410:	ed29                	bnez	a0,1646a <_ZN20complex_dynamic_type3app17h7ab41c90f7791fc1E+0xfa>
   16412:	4681                	li	a3,0
   16414:	6505                	lui	a0,0x1
   16416:	45a1                	li	a1,8
   16418:	4615                	li	a2,5
   1641a:	4709                	li	a4,2
   1641c:	a0650513          	addi	a0,a0,-1530 # a06 <.Lline_table_start1+0x7db>
   16420:	07f00493          	li	s1,127
   16424:	00000073          	ecall
   16428:	4689                	li	a3,2
   1642a:	04a4f063          	bgeu	s1,a0,1646a <_ZN20complex_dynamic_type3app17h7ab41c90f7791fc1E+0xfa>
   1642e:	00014603          	lbu	a2,0(sp)
   16432:	00d60a63          	beq	a2,a3,16446 <_ZN20complex_dynamic_type3app17h7ab41c90f7791fc1E+0xd6>
   16436:	6505                	lui	a0,0x1
   16438:	a0650513          	addi	a0,a0,-1530 # a06 <.Lline_table_start1+0x7db>
   1643c:	45a1                	li	a1,8
   1643e:	00009097          	auipc	ra,0x9
   16442:	766080e7          	jalr	1894(ra) # 1fba4 <_ZN9allow_pin12dynamic_type7unshare17h0269127f30dbe29bE>
   16446:	05014603          	lbu	a2,80(sp)
   1644a:	4409                	li	s0,2
   1644c:	00810023          	sb	s0,0(sp)
   16450:	00860a63          	beq	a2,s0,16464 <_ZN20complex_dynamic_type3app17h7ab41c90f7791fc1E+0xf4>
   16454:	6505                	lui	a0,0x1
   16456:	a0650513          	addi	a0,a0,-1530 # a06 <.Lline_table_start1+0x7db>
   1645a:	4595                	li	a1,5
   1645c:	00009097          	auipc	ra,0x9
   16460:	748080e7          	jalr	1864(ra) # 1fba4 <_ZN9allow_pin12dynamic_type7unshare17h0269127f30dbe29bE>
   16464:	4781                	li	a5,0
   16466:	04810823          	sb	s0,80(sp)
   1646a:	cb85                	beqz	a5,1649a <_ZN20complex_dynamic_type3app17h7ab41c90f7791fc1E+0x12a>
   1646c:	05014603          	lbu	a2,80(sp)
   16470:	4505                	li	a0,1
   16472:	4409                	li	s0,2
   16474:	00a90023          	sb	a0,0(s2)
   16478:	00b92223          	sw	a1,4(s2)
   1647c:	00860a63          	beq	a2,s0,16490 <_ZN20complex_dynamic_type3app17h7ab41c90f7791fc1E+0x120>
   16480:	6505                	lui	a0,0x1
   16482:	a0650513          	addi	a0,a0,-1530 # a06 <.Lline_table_start1+0x7db>
   16486:	4595                	li	a1,5
   16488:	00009097          	auipc	ra,0x9
   1648c:	71c080e7          	jalr	1820(ra) # 1fba4 <_ZN9allow_pin12dynamic_type7unshare17h0269127f30dbe29bE>
   16490:	00014603          	lbu	a2,0(sp)
   16494:	04861763          	bne	a2,s0,164e2 <_ZN20complex_dynamic_type3app17h7ab41c90f7791fc1E+0x172>
   16498:	a8a9                	j	164f2 <_ZN20complex_dynamic_type3app17h7ab41c90f7791fc1E+0x182>
   1649a:	05014403          	lbu	s0,80(sp)
   1649e:	4489                	li	s1,2
   164a0:	00940663          	beq	s0,s1,164ac <_ZN20complex_dynamic_type3app17h7ab41c90f7791fc1E+0x13c>
   164a4:	000119b7          	lui	s3,0x11
   164a8:	95098993          	addi	s3,s3,-1712 # 10950 <.Lanon.49c9f8067fe4468184af16d7576940c9.43>
   164ac:	00190513          	addi	a0,s2,1
   164b0:	03b00613          	li	a2,59
   164b4:	85ce                	mv	a1,s3
   164b6:	00009097          	auipc	ra,0x9
   164ba:	766080e7          	jalr	1894(ra) # 1fc1c <memcpy>
   164be:	00090023          	sb	zero,0(s2)
   164c2:	00940b63          	beq	s0,s1,164d8 <_ZN20complex_dynamic_type3app17h7ab41c90f7791fc1E+0x168>
   164c6:	6505                	lui	a0,0x1
   164c8:	a0650513          	addi	a0,a0,-1530 # a06 <.Lline_table_start1+0x7db>
   164cc:	4595                	li	a1,5
   164ce:	8622                	mv	a2,s0
   164d0:	00009097          	auipc	ra,0x9
   164d4:	6d4080e7          	jalr	1748(ra) # 1fba4 <_ZN9allow_pin12dynamic_type7unshare17h0269127f30dbe29bE>
   164d8:	00014603          	lbu	a2,0(sp)
   164dc:	4509                	li	a0,2
   164de:	00a60a63          	beq	a2,a0,164f2 <_ZN20complex_dynamic_type3app17h7ab41c90f7791fc1E+0x182>
   164e2:	6505                	lui	a0,0x1
   164e4:	a0650513          	addi	a0,a0,-1530 # a06 <.Lline_table_start1+0x7db>
   164e8:	45a1                	li	a1,8
   164ea:	00009097          	auipc	ra,0x9
   164ee:	6ba080e7          	jalr	1722(ra) # 1fba4 <_ZN9allow_pin12dynamic_type7unshare17h0269127f30dbe29bE>
   164f2:	40fa                	lw	ra,156(sp)
   164f4:	446a                	lw	s0,152(sp)
   164f6:	44da                	lw	s1,148(sp)
   164f8:	494a                	lw	s2,144(sp)
   164fa:	49ba                	lw	s3,140(sp)
   164fc:	610d                	addi	sp,sp,160
   164fe:	8082                	ret

00016500 <_ZN20complex_dynamic_type3app17h7ab43be01c126e9aE>:
   16500:	7131                	addi	sp,sp,-192
   16502:	df06                	sw	ra,188(sp)
   16504:	dd22                	sw	s0,184(sp)
   16506:	db26                	sw	s1,180(sp)
   16508:	d94a                	sw	s2,176(sp)
   1650a:	d74e                	sw	s3,172(sp)
   1650c:	892a                	mv	s2,a0
   1650e:	4489                	li	s1,2
   16510:	00910723          	sb	s1,14(sp)
   16514:	00f10413          	addi	s0,sp,15
   16518:	04600613          	li	a2,70
   1651c:	8522                	mv	a0,s0
   1651e:	00009097          	auipc	ra,0x9
   16522:	6fe080e7          	jalr	1790(ra) # 1fc1c <memcpy>
   16526:	05610993          	addi	s3,sp,86
   1652a:	05600613          	li	a2,86
   1652e:	854e                	mv	a0,s3
   16530:	4581                	li	a1,0
   16532:	00009097          	auipc	ra,0x9
   16536:	67e080e7          	jalr	1662(ra) # 1fbb0 <memset>
   1653a:	8622                	mv	a2,s0
   1653c:	04910aa3          	sb	s1,85(sp)
   16540:	6509                	lui	a0,0x2
   16542:	4791                	li	a5,4
   16544:	459d                	li	a1,7
   16546:	e5050513          	addi	a0,a0,-432 # 1e50 <.Lline_table_start1+0x1c25>
   1654a:	04600693          	li	a3,70
   1654e:	4711                	li	a4,4
   16550:	00000073          	ecall
   16554:	00950463          	beq	a0,s1,1655c <_ZN20complex_dynamic_type3app17h7ab43be01c126e9aE+0x5c>
   16558:	00f10723          	sb	a5,14(sp)
   1655c:	4609                	li	a2,2
   1655e:	00c51463          	bne	a0,a2,16566 <_ZN20complex_dynamic_type3app17h7ab43be01c126e9aE+0x66>
   16562:	4785                	li	a5,1
   16564:	a859                	j	165fa <_ZN20complex_dynamic_type3app17h7ab43be01c126e9aE+0xfa>
   16566:	05514503          	lbu	a0,85(sp)
   1656a:	4785                	li	a5,1
   1656c:	02c51363          	bne	a0,a2,16592 <_ZN20complex_dynamic_type3app17h7ab43be01c126e9aE+0x92>
   16570:	864e                	mv	a2,s3
   16572:	6509                	lui	a0,0x2
   16574:	458d                	li	a1,3
   16576:	05600693          	li	a3,86
   1657a:	470d                	li	a4,3
   1657c:	e5050513          	addi	a0,a0,-432 # 1e50 <.Lline_table_start1+0x1c25>
   16580:	4489                	li	s1,2
   16582:	00000073          	ecall
   16586:	460d                	li	a2,3
   16588:	00951963          	bne	a0,s1,1659a <_ZN20complex_dynamic_type3app17h7ab43be01c126e9aE+0x9a>
   1658c:	4505                	li	a0,1
   1658e:	c911                	beqz	a0,165a2 <_ZN20complex_dynamic_type3app17h7ab43be01c126e9aE+0xa2>
   16590:	a0ad                	j	165fa <_ZN20complex_dynamic_type3app17h7ab43be01c126e9aE+0xfa>
   16592:	458d                	li	a1,3
   16594:	4505                	li	a0,1
   16596:	c511                	beqz	a0,165a2 <_ZN20complex_dynamic_type3app17h7ab43be01c126e9aE+0xa2>
   16598:	a08d                	j	165fa <_ZN20complex_dynamic_type3app17h7ab43be01c126e9aE+0xfa>
   1659a:	4501                	li	a0,0
   1659c:	04c10aa3          	sb	a2,85(sp)
   165a0:	ed29                	bnez	a0,165fa <_ZN20complex_dynamic_type3app17h7ab43be01c126e9aE+0xfa>
   165a2:	4681                	li	a3,0
   165a4:	6509                	lui	a0,0x2
   165a6:	459d                	li	a1,7
   165a8:	460d                	li	a2,3
   165aa:	4709                	li	a4,2
   165ac:	e5050513          	addi	a0,a0,-432 # 1e50 <.Lline_table_start1+0x1c25>
   165b0:	07f00493          	li	s1,127
   165b4:	00000073          	ecall
   165b8:	4689                	li	a3,2
   165ba:	04a4f063          	bgeu	s1,a0,165fa <_ZN20complex_dynamic_type3app17h7ab43be01c126e9aE+0xfa>
   165be:	00e14603          	lbu	a2,14(sp)
   165c2:	00d60a63          	beq	a2,a3,165d6 <_ZN20complex_dynamic_type3app17h7ab43be01c126e9aE+0xd6>
   165c6:	6509                	lui	a0,0x2
   165c8:	e5050513          	addi	a0,a0,-432 # 1e50 <.Lline_table_start1+0x1c25>
   165cc:	459d                	li	a1,7
   165ce:	00009097          	auipc	ra,0x9
   165d2:	5d6080e7          	jalr	1494(ra) # 1fba4 <_ZN9allow_pin12dynamic_type7unshare17h0269127f30dbe29bE>
   165d6:	05514603          	lbu	a2,85(sp)
   165da:	4409                	li	s0,2
   165dc:	00810723          	sb	s0,14(sp)
   165e0:	00860a63          	beq	a2,s0,165f4 <_ZN20complex_dynamic_type3app17h7ab43be01c126e9aE+0xf4>
   165e4:	6509                	lui	a0,0x2
   165e6:	e5050513          	addi	a0,a0,-432 # 1e50 <.Lline_table_start1+0x1c25>
   165ea:	458d                	li	a1,3
   165ec:	00009097          	auipc	ra,0x9
   165f0:	5b8080e7          	jalr	1464(ra) # 1fba4 <_ZN9allow_pin12dynamic_type7unshare17h0269127f30dbe29bE>
   165f4:	4781                	li	a5,0
   165f6:	04810aa3          	sb	s0,85(sp)
   165fa:	cb85                	beqz	a5,1662a <_ZN20complex_dynamic_type3app17h7ab43be01c126e9aE+0x12a>
   165fc:	05514603          	lbu	a2,85(sp)
   16600:	4505                	li	a0,1
   16602:	4409                	li	s0,2
   16604:	00a90023          	sb	a0,0(s2)
   16608:	00b92223          	sw	a1,4(s2)
   1660c:	00860a63          	beq	a2,s0,16620 <_ZN20complex_dynamic_type3app17h7ab43be01c126e9aE+0x120>
   16610:	6509                	lui	a0,0x2
   16612:	e5050513          	addi	a0,a0,-432 # 1e50 <.Lline_table_start1+0x1c25>
   16616:	458d                	li	a1,3
   16618:	00009097          	auipc	ra,0x9
   1661c:	58c080e7          	jalr	1420(ra) # 1fba4 <_ZN9allow_pin12dynamic_type7unshare17h0269127f30dbe29bE>
   16620:	00e14603          	lbu	a2,14(sp)
   16624:	04861763          	bne	a2,s0,16672 <_ZN20complex_dynamic_type3app17h7ab43be01c126e9aE+0x172>
   16628:	a8a9                	j	16682 <_ZN20complex_dynamic_type3app17h7ab43be01c126e9aE+0x182>
   1662a:	05514403          	lbu	s0,85(sp)
   1662e:	4489                	li	s1,2
   16630:	00940663          	beq	s0,s1,1663c <_ZN20complex_dynamic_type3app17h7ab43be01c126e9aE+0x13c>
   16634:	000119b7          	lui	s3,0x11
   16638:	a0798993          	addi	s3,s3,-1529 # 10a07 <.Lanon.49c9f8067fe4468184af16d7576940c9.46>
   1663c:	00190513          	addi	a0,s2,1
   16640:	05600613          	li	a2,86
   16644:	85ce                	mv	a1,s3
   16646:	00009097          	auipc	ra,0x9
   1664a:	5d6080e7          	jalr	1494(ra) # 1fc1c <memcpy>
   1664e:	00090023          	sb	zero,0(s2)
   16652:	00940b63          	beq	s0,s1,16668 <_ZN20complex_dynamic_type3app17h7ab43be01c126e9aE+0x168>
   16656:	6509                	lui	a0,0x2
   16658:	e5050513          	addi	a0,a0,-432 # 1e50 <.Lline_table_start1+0x1c25>
   1665c:	458d                	li	a1,3
   1665e:	8622                	mv	a2,s0
   16660:	00009097          	auipc	ra,0x9
   16664:	544080e7          	jalr	1348(ra) # 1fba4 <_ZN9allow_pin12dynamic_type7unshare17h0269127f30dbe29bE>
   16668:	00e14603          	lbu	a2,14(sp)
   1666c:	4509                	li	a0,2
   1666e:	00a60a63          	beq	a2,a0,16682 <_ZN20complex_dynamic_type3app17h7ab43be01c126e9aE+0x182>
   16672:	6509                	lui	a0,0x2
   16674:	e5050513          	addi	a0,a0,-432 # 1e50 <.Lline_table_start1+0x1c25>
   16678:	459d                	li	a1,7
   1667a:	00009097          	auipc	ra,0x9
   1667e:	52a080e7          	jalr	1322(ra) # 1fba4 <_ZN9allow_pin12dynamic_type7unshare17h0269127f30dbe29bE>
   16682:	50fa                	lw	ra,188(sp)
   16684:	546a                	lw	s0,184(sp)
   16686:	54da                	lw	s1,180(sp)
   16688:	594a                	lw	s2,176(sp)
   1668a:	59ba                	lw	s3,172(sp)
   1668c:	6129                	addi	sp,sp,192
   1668e:	8082                	ret

00016690 <_ZN20complex_dynamic_type3app17h810bfadc8622f196E>:
   16690:	7131                	addi	sp,sp,-192
   16692:	df06                	sw	ra,188(sp)
   16694:	dd22                	sw	s0,184(sp)
   16696:	db26                	sw	s1,180(sp)
   16698:	d94a                	sw	s2,176(sp)
   1669a:	d74e                	sw	s3,172(sp)
   1669c:	892a                	mv	s2,a0
   1669e:	4489                	li	s1,2
   166a0:	00910523          	sb	s1,10(sp)
   166a4:	00b10413          	addi	s0,sp,11
   166a8:	05300613          	li	a2,83
   166ac:	8522                	mv	a0,s0
   166ae:	00009097          	auipc	ra,0x9
   166b2:	56e080e7          	jalr	1390(ra) # 1fc1c <memcpy>
   166b6:	05f10993          	addi	s3,sp,95
   166ba:	04d00613          	li	a2,77
   166be:	854e                	mv	a0,s3
   166c0:	4581                	li	a1,0
   166c2:	00009097          	auipc	ra,0x9
   166c6:	4ee080e7          	jalr	1262(ra) # 1fbb0 <memset>
   166ca:	8622                	mv	a2,s0
   166cc:	04910f23          	sb	s1,94(sp)
   166d0:	6505                	lui	a0,0x1
   166d2:	4791                	li	a5,4
   166d4:	45a5                	li	a1,9
   166d6:	6ba50513          	addi	a0,a0,1722 # 16ba <.Lline_table_start1+0x148f>
   166da:	05300693          	li	a3,83
   166de:	4711                	li	a4,4
   166e0:	00000073          	ecall
   166e4:	00950463          	beq	a0,s1,166ec <_ZN20complex_dynamic_type3app17h810bfadc8622f196E+0x5c>
   166e8:	00f10523          	sb	a5,10(sp)
   166ec:	4609                	li	a2,2
   166ee:	00c51463          	bne	a0,a2,166f6 <_ZN20complex_dynamic_type3app17h810bfadc8622f196E+0x66>
   166f2:	4785                	li	a5,1
   166f4:	a859                	j	1678a <_ZN20complex_dynamic_type3app17h810bfadc8622f196E+0xfa>
   166f6:	05e14503          	lbu	a0,94(sp)
   166fa:	4785                	li	a5,1
   166fc:	02c51363          	bne	a0,a2,16722 <_ZN20complex_dynamic_type3app17h810bfadc8622f196E+0x92>
   16700:	864e                	mv	a2,s3
   16702:	6505                	lui	a0,0x1
   16704:	4591                	li	a1,4
   16706:	04d00693          	li	a3,77
   1670a:	470d                	li	a4,3
   1670c:	6ba50513          	addi	a0,a0,1722 # 16ba <.Lline_table_start1+0x148f>
   16710:	4489                	li	s1,2
   16712:	00000073          	ecall
   16716:	460d                	li	a2,3
   16718:	00951963          	bne	a0,s1,1672a <_ZN20complex_dynamic_type3app17h810bfadc8622f196E+0x9a>
   1671c:	4505                	li	a0,1
   1671e:	c911                	beqz	a0,16732 <_ZN20complex_dynamic_type3app17h810bfadc8622f196E+0xa2>
   16720:	a0ad                	j	1678a <_ZN20complex_dynamic_type3app17h810bfadc8622f196E+0xfa>
   16722:	458d                	li	a1,3
   16724:	4505                	li	a0,1
   16726:	c511                	beqz	a0,16732 <_ZN20complex_dynamic_type3app17h810bfadc8622f196E+0xa2>
   16728:	a08d                	j	1678a <_ZN20complex_dynamic_type3app17h810bfadc8622f196E+0xfa>
   1672a:	4501                	li	a0,0
   1672c:	04c10f23          	sb	a2,94(sp)
   16730:	ed29                	bnez	a0,1678a <_ZN20complex_dynamic_type3app17h810bfadc8622f196E+0xfa>
   16732:	4681                	li	a3,0
   16734:	6505                	lui	a0,0x1
   16736:	45a5                	li	a1,9
   16738:	4611                	li	a2,4
   1673a:	4709                	li	a4,2
   1673c:	6ba50513          	addi	a0,a0,1722 # 16ba <.Lline_table_start1+0x148f>
   16740:	07f00493          	li	s1,127
   16744:	00000073          	ecall
   16748:	4689                	li	a3,2
   1674a:	04a4f063          	bgeu	s1,a0,1678a <_ZN20complex_dynamic_type3app17h810bfadc8622f196E+0xfa>
   1674e:	00a14603          	lbu	a2,10(sp)
   16752:	00d60a63          	beq	a2,a3,16766 <_ZN20complex_dynamic_type3app17h810bfadc8622f196E+0xd6>
   16756:	6505                	lui	a0,0x1
   16758:	6ba50513          	addi	a0,a0,1722 # 16ba <.Lline_table_start1+0x148f>
   1675c:	45a5                	li	a1,9
   1675e:	00009097          	auipc	ra,0x9
   16762:	446080e7          	jalr	1094(ra) # 1fba4 <_ZN9allow_pin12dynamic_type7unshare17h0269127f30dbe29bE>
   16766:	05e14603          	lbu	a2,94(sp)
   1676a:	4409                	li	s0,2
   1676c:	00810523          	sb	s0,10(sp)
   16770:	00860a63          	beq	a2,s0,16784 <_ZN20complex_dynamic_type3app17h810bfadc8622f196E+0xf4>
   16774:	6505                	lui	a0,0x1
   16776:	6ba50513          	addi	a0,a0,1722 # 16ba <.Lline_table_start1+0x148f>
   1677a:	4591                	li	a1,4
   1677c:	00009097          	auipc	ra,0x9
   16780:	428080e7          	jalr	1064(ra) # 1fba4 <_ZN9allow_pin12dynamic_type7unshare17h0269127f30dbe29bE>
   16784:	4781                	li	a5,0
   16786:	04810f23          	sb	s0,94(sp)
   1678a:	cb85                	beqz	a5,167ba <_ZN20complex_dynamic_type3app17h810bfadc8622f196E+0x12a>
   1678c:	05e14603          	lbu	a2,94(sp)
   16790:	4505                	li	a0,1
   16792:	4409                	li	s0,2
   16794:	00a90023          	sb	a0,0(s2)
   16798:	00b92223          	sw	a1,4(s2)
   1679c:	00860a63          	beq	a2,s0,167b0 <_ZN20complex_dynamic_type3app17h810bfadc8622f196E+0x120>
   167a0:	6505                	lui	a0,0x1
   167a2:	6ba50513          	addi	a0,a0,1722 # 16ba <.Lline_table_start1+0x148f>
   167a6:	4591                	li	a1,4
   167a8:	00009097          	auipc	ra,0x9
   167ac:	3fc080e7          	jalr	1020(ra) # 1fba4 <_ZN9allow_pin12dynamic_type7unshare17h0269127f30dbe29bE>
   167b0:	00a14603          	lbu	a2,10(sp)
   167b4:	04861763          	bne	a2,s0,16802 <_ZN20complex_dynamic_type3app17h810bfadc8622f196E+0x172>
   167b8:	a8a9                	j	16812 <_ZN20complex_dynamic_type3app17h810bfadc8622f196E+0x182>
   167ba:	05e14403          	lbu	s0,94(sp)
   167be:	4489                	li	s1,2
   167c0:	00940663          	beq	s0,s1,167cc <_ZN20complex_dynamic_type3app17h810bfadc8622f196E+0x13c>
   167c4:	000119b7          	lui	s3,0x11
   167c8:	b5198993          	addi	s3,s3,-1199 # 10b51 <.Lanon.49c9f8067fe4468184af16d7576940c9.51>
   167cc:	00190513          	addi	a0,s2,1
   167d0:	04d00613          	li	a2,77
   167d4:	85ce                	mv	a1,s3
   167d6:	00009097          	auipc	ra,0x9
   167da:	446080e7          	jalr	1094(ra) # 1fc1c <memcpy>
   167de:	00090023          	sb	zero,0(s2)
   167e2:	00940b63          	beq	s0,s1,167f8 <_ZN20complex_dynamic_type3app17h810bfadc8622f196E+0x168>
   167e6:	6505                	lui	a0,0x1
   167e8:	6ba50513          	addi	a0,a0,1722 # 16ba <.Lline_table_start1+0x148f>
   167ec:	4591                	li	a1,4
   167ee:	8622                	mv	a2,s0
   167f0:	00009097          	auipc	ra,0x9
   167f4:	3b4080e7          	jalr	948(ra) # 1fba4 <_ZN9allow_pin12dynamic_type7unshare17h0269127f30dbe29bE>
   167f8:	00a14603          	lbu	a2,10(sp)
   167fc:	4509                	li	a0,2
   167fe:	00a60a63          	beq	a2,a0,16812 <_ZN20complex_dynamic_type3app17h810bfadc8622f196E+0x182>
   16802:	6505                	lui	a0,0x1
   16804:	6ba50513          	addi	a0,a0,1722 # 16ba <.Lline_table_start1+0x148f>
   16808:	45a5                	li	a1,9
   1680a:	00009097          	auipc	ra,0x9
   1680e:	39a080e7          	jalr	922(ra) # 1fba4 <_ZN9allow_pin12dynamic_type7unshare17h0269127f30dbe29bE>
   16812:	50fa                	lw	ra,188(sp)
   16814:	546a                	lw	s0,184(sp)
   16816:	54da                	lw	s1,180(sp)
   16818:	594a                	lw	s2,176(sp)
   1681a:	59ba                	lw	s3,172(sp)
   1681c:	6129                	addi	sp,sp,192
   1681e:	8082                	ret

00016820 <_ZN20complex_dynamic_type3app17h8434967020eac213E>:
   16820:	7159                	addi	sp,sp,-112
   16822:	d686                	sw	ra,108(sp)
   16824:	d4a2                	sw	s0,104(sp)
   16826:	d2a6                	sw	s1,100(sp)
   16828:	d0ca                	sw	s2,96(sp)
   1682a:	cece                	sw	s3,92(sp)
   1682c:	892a                	mv	s2,a0
   1682e:	4489                	li	s1,2
   16830:	009107a3          	sb	s1,15(sp)
   16834:	0800                	addi	s0,sp,16
   16836:	02100613          	li	a2,33
   1683a:	8522                	mv	a0,s0
   1683c:	00009097          	auipc	ra,0x9
   16840:	3e0080e7          	jalr	992(ra) # 1fc1c <memcpy>
   16844:	03210993          	addi	s3,sp,50
   16848:	02a00613          	li	a2,42
   1684c:	854e                	mv	a0,s3
   1684e:	4581                	li	a1,0
   16850:	00009097          	auipc	ra,0x9
   16854:	360080e7          	jalr	864(ra) # 1fbb0 <memset>
   16858:	8622                	mv	a2,s0
   1685a:	029108a3          	sb	s1,49(sp)
   1685e:	6505                	lui	a0,0x1
   16860:	4791                	li	a5,4
   16862:	4585                	li	a1,1
   16864:	5f350513          	addi	a0,a0,1523 # 15f3 <.Lline_table_start1+0x13c8>
   16868:	02100693          	li	a3,33
   1686c:	4711                	li	a4,4
   1686e:	00000073          	ecall
   16872:	00950463          	beq	a0,s1,1687a <_ZN20complex_dynamic_type3app17h8434967020eac213E+0x5a>
   16876:	00f107a3          	sb	a5,15(sp)
   1687a:	4609                	li	a2,2
   1687c:	00c51463          	bne	a0,a2,16884 <_ZN20complex_dynamic_type3app17h8434967020eac213E+0x64>
   16880:	4785                	li	a5,1
   16882:	a861                	j	1691a <_ZN20complex_dynamic_type3app17h8434967020eac213E+0xfa>
   16884:	03114503          	lbu	a0,49(sp)
   16888:	4785                	li	a5,1
   1688a:	02c51363          	bne	a0,a2,168b0 <_ZN20complex_dynamic_type3app17h8434967020eac213E+0x90>
   1688e:	864e                	mv	a2,s3
   16890:	6505                	lui	a0,0x1
   16892:	458d                	li	a1,3
   16894:	02a00693          	li	a3,42
   16898:	470d                	li	a4,3
   1689a:	5f350513          	addi	a0,a0,1523 # 15f3 <.Lline_table_start1+0x13c8>
   1689e:	4489                	li	s1,2
   168a0:	00000073          	ecall
   168a4:	460d                	li	a2,3
   168a6:	00951963          	bne	a0,s1,168b8 <_ZN20complex_dynamic_type3app17h8434967020eac213E+0x98>
   168aa:	4505                	li	a0,1
   168ac:	c911                	beqz	a0,168c0 <_ZN20complex_dynamic_type3app17h8434967020eac213E+0xa0>
   168ae:	a0b5                	j	1691a <_ZN20complex_dynamic_type3app17h8434967020eac213E+0xfa>
   168b0:	458d                	li	a1,3
   168b2:	4505                	li	a0,1
   168b4:	c511                	beqz	a0,168c0 <_ZN20complex_dynamic_type3app17h8434967020eac213E+0xa0>
   168b6:	a095                	j	1691a <_ZN20complex_dynamic_type3app17h8434967020eac213E+0xfa>
   168b8:	4501                	li	a0,0
   168ba:	02c108a3          	sb	a2,49(sp)
   168be:	ed31                	bnez	a0,1691a <_ZN20complex_dynamic_type3app17h8434967020eac213E+0xfa>
   168c0:	4681                	li	a3,0
   168c2:	6505                	lui	a0,0x1
   168c4:	4785                	li	a5,1
   168c6:	4585                	li	a1,1
   168c8:	460d                	li	a2,3
   168ca:	4709                	li	a4,2
   168cc:	5f350513          	addi	a0,a0,1523 # 15f3 <.Lline_table_start1+0x13c8>
   168d0:	07f00493          	li	s1,127
   168d4:	00000073          	ecall
   168d8:	4689                	li	a3,2
   168da:	04a4f063          	bgeu	s1,a0,1691a <_ZN20complex_dynamic_type3app17h8434967020eac213E+0xfa>
   168de:	00f14603          	lbu	a2,15(sp)
   168e2:	00d60a63          	beq	a2,a3,168f6 <_ZN20complex_dynamic_type3app17h8434967020eac213E+0xd6>
   168e6:	6505                	lui	a0,0x1
   168e8:	5f350513          	addi	a0,a0,1523 # 15f3 <.Lline_table_start1+0x13c8>
   168ec:	4585                	li	a1,1
   168ee:	00009097          	auipc	ra,0x9
   168f2:	2b6080e7          	jalr	694(ra) # 1fba4 <_ZN9allow_pin12dynamic_type7unshare17h0269127f30dbe29bE>
   168f6:	03114603          	lbu	a2,49(sp)
   168fa:	4409                	li	s0,2
   168fc:	008107a3          	sb	s0,15(sp)
   16900:	00860a63          	beq	a2,s0,16914 <_ZN20complex_dynamic_type3app17h8434967020eac213E+0xf4>
   16904:	6505                	lui	a0,0x1
   16906:	5f350513          	addi	a0,a0,1523 # 15f3 <.Lline_table_start1+0x13c8>
   1690a:	458d                	li	a1,3
   1690c:	00009097          	auipc	ra,0x9
   16910:	298080e7          	jalr	664(ra) # 1fba4 <_ZN9allow_pin12dynamic_type7unshare17h0269127f30dbe29bE>
   16914:	4781                	li	a5,0
   16916:	028108a3          	sb	s0,49(sp)
   1691a:	cb85                	beqz	a5,1694a <_ZN20complex_dynamic_type3app17h8434967020eac213E+0x12a>
   1691c:	03114603          	lbu	a2,49(sp)
   16920:	4505                	li	a0,1
   16922:	4409                	li	s0,2
   16924:	00a90023          	sb	a0,0(s2)
   16928:	00b92223          	sw	a1,4(s2)
   1692c:	00860a63          	beq	a2,s0,16940 <_ZN20complex_dynamic_type3app17h8434967020eac213E+0x120>
   16930:	6505                	lui	a0,0x1
   16932:	5f350513          	addi	a0,a0,1523 # 15f3 <.Lline_table_start1+0x13c8>
   16936:	458d                	li	a1,3
   16938:	00009097          	auipc	ra,0x9
   1693c:	26c080e7          	jalr	620(ra) # 1fba4 <_ZN9allow_pin12dynamic_type7unshare17h0269127f30dbe29bE>
   16940:	00f14603          	lbu	a2,15(sp)
   16944:	04861763          	bne	a2,s0,16992 <_ZN20complex_dynamic_type3app17h8434967020eac213E+0x172>
   16948:	a8a9                	j	169a2 <_ZN20complex_dynamic_type3app17h8434967020eac213E+0x182>
   1694a:	03114403          	lbu	s0,49(sp)
   1694e:	4489                	li	s1,2
   16950:	00940663          	beq	s0,s1,1695c <_ZN20complex_dynamic_type3app17h8434967020eac213E+0x13c>
   16954:	000109b7          	lui	s3,0x10
   16958:	2e098993          	addi	s3,s3,736 # 102e0 <.Lanon.49c9f8067fe4468184af16d7576940c9.7>
   1695c:	00190513          	addi	a0,s2,1
   16960:	02a00613          	li	a2,42
   16964:	85ce                	mv	a1,s3
   16966:	00009097          	auipc	ra,0x9
   1696a:	2b6080e7          	jalr	694(ra) # 1fc1c <memcpy>
   1696e:	00090023          	sb	zero,0(s2)
   16972:	00940b63          	beq	s0,s1,16988 <_ZN20complex_dynamic_type3app17h8434967020eac213E+0x168>
   16976:	6505                	lui	a0,0x1
   16978:	5f350513          	addi	a0,a0,1523 # 15f3 <.Lline_table_start1+0x13c8>
   1697c:	458d                	li	a1,3
   1697e:	8622                	mv	a2,s0
   16980:	00009097          	auipc	ra,0x9
   16984:	224080e7          	jalr	548(ra) # 1fba4 <_ZN9allow_pin12dynamic_type7unshare17h0269127f30dbe29bE>
   16988:	00f14603          	lbu	a2,15(sp)
   1698c:	4509                	li	a0,2
   1698e:	00a60a63          	beq	a2,a0,169a2 <_ZN20complex_dynamic_type3app17h8434967020eac213E+0x182>
   16992:	6505                	lui	a0,0x1
   16994:	5f350513          	addi	a0,a0,1523 # 15f3 <.Lline_table_start1+0x13c8>
   16998:	4585                	li	a1,1
   1699a:	00009097          	auipc	ra,0x9
   1699e:	20a080e7          	jalr	522(ra) # 1fba4 <_ZN9allow_pin12dynamic_type7unshare17h0269127f30dbe29bE>
   169a2:	50b6                	lw	ra,108(sp)
   169a4:	5426                	lw	s0,104(sp)
   169a6:	5496                	lw	s1,100(sp)
   169a8:	5906                	lw	s2,96(sp)
   169aa:	49f6                	lw	s3,92(sp)
   169ac:	6165                	addi	sp,sp,112
   169ae:	8082                	ret

000169b0 <_ZN20complex_dynamic_type3app17h862dc8eede2c18dcE>:
   169b0:	7159                	addi	sp,sp,-112
   169b2:	d686                	sw	ra,108(sp)
   169b4:	d4a2                	sw	s0,104(sp)
   169b6:	d2a6                	sw	s1,100(sp)
   169b8:	d0ca                	sw	s2,96(sp)
   169ba:	cece                	sw	s3,92(sp)
   169bc:	892a                	mv	s2,a0
   169be:	4489                	li	s1,2
   169c0:	00910623          	sb	s1,12(sp)
   169c4:	00d10413          	addi	s0,sp,13
   169c8:	4661                	li	a2,24
   169ca:	8522                	mv	a0,s0
   169cc:	00009097          	auipc	ra,0x9
   169d0:	250080e7          	jalr	592(ra) # 1fc1c <memcpy>
   169d4:	02610993          	addi	s3,sp,38
   169d8:	03600613          	li	a2,54
   169dc:	854e                	mv	a0,s3
   169de:	4581                	li	a1,0
   169e0:	00009097          	auipc	ra,0x9
   169e4:	1d0080e7          	jalr	464(ra) # 1fbb0 <memset>
   169e8:	8622                	mv	a2,s0
   169ea:	029102a3          	sb	s1,37(sp)
   169ee:	4791                	li	a5,4
   169f0:	0f300513          	li	a0,243
   169f4:	45a1                	li	a1,8
   169f6:	46e1                	li	a3,24
   169f8:	4711                	li	a4,4
   169fa:	00000073          	ecall
   169fe:	00950463          	beq	a0,s1,16a06 <_ZN20complex_dynamic_type3app17h862dc8eede2c18dcE+0x56>
   16a02:	00f10623          	sb	a5,12(sp)
   16a06:	4609                	li	a2,2
   16a08:	00c51463          	bne	a0,a2,16a10 <_ZN20complex_dynamic_type3app17h862dc8eede2c18dcE+0x60>
   16a0c:	4785                	li	a5,1
   16a0e:	a079                	j	16a9c <_ZN20complex_dynamic_type3app17h862dc8eede2c18dcE+0xec>
   16a10:	02514503          	lbu	a0,37(sp)
   16a14:	4785                	li	a5,1
   16a16:	02c51263          	bne	a0,a2,16a3a <_ZN20complex_dynamic_type3app17h862dc8eede2c18dcE+0x8a>
   16a1a:	864e                	mv	a2,s3
   16a1c:	0f300513          	li	a0,243
   16a20:	4591                	li	a1,4
   16a22:	03600693          	li	a3,54
   16a26:	470d                	li	a4,3
   16a28:	4489                	li	s1,2
   16a2a:	00000073          	ecall
   16a2e:	460d                	li	a2,3
   16a30:	00951963          	bne	a0,s1,16a42 <_ZN20complex_dynamic_type3app17h862dc8eede2c18dcE+0x92>
   16a34:	4505                	li	a0,1
   16a36:	c911                	beqz	a0,16a4a <_ZN20complex_dynamic_type3app17h862dc8eede2c18dcE+0x9a>
   16a38:	a095                	j	16a9c <_ZN20complex_dynamic_type3app17h862dc8eede2c18dcE+0xec>
   16a3a:	458d                	li	a1,3
   16a3c:	4505                	li	a0,1
   16a3e:	c511                	beqz	a0,16a4a <_ZN20complex_dynamic_type3app17h862dc8eede2c18dcE+0x9a>
   16a40:	a8b1                	j	16a9c <_ZN20complex_dynamic_type3app17h862dc8eede2c18dcE+0xec>
   16a42:	4501                	li	a0,0
   16a44:	02c102a3          	sb	a2,37(sp)
   16a48:	e931                	bnez	a0,16a9c <_ZN20complex_dynamic_type3app17h862dc8eede2c18dcE+0xec>
   16a4a:	4681                	li	a3,0
   16a4c:	0f300513          	li	a0,243
   16a50:	45a1                	li	a1,8
   16a52:	4611                	li	a2,4
   16a54:	4709                	li	a4,2
   16a56:	07f00493          	li	s1,127
   16a5a:	00000073          	ecall
   16a5e:	4689                	li	a3,2
   16a60:	02a4fe63          	bgeu	s1,a0,16a9c <_ZN20complex_dynamic_type3app17h862dc8eede2c18dcE+0xec>
   16a64:	00c14603          	lbu	a2,12(sp)
   16a68:	00d60963          	beq	a2,a3,16a7a <_ZN20complex_dynamic_type3app17h862dc8eede2c18dcE+0xca>
   16a6c:	0f300513          	li	a0,243
   16a70:	45a1                	li	a1,8
   16a72:	00009097          	auipc	ra,0x9
   16a76:	132080e7          	jalr	306(ra) # 1fba4 <_ZN9allow_pin12dynamic_type7unshare17h0269127f30dbe29bE>
   16a7a:	02514603          	lbu	a2,37(sp)
   16a7e:	4409                	li	s0,2
   16a80:	00810623          	sb	s0,12(sp)
   16a84:	00860963          	beq	a2,s0,16a96 <_ZN20complex_dynamic_type3app17h862dc8eede2c18dcE+0xe6>
   16a88:	0f300513          	li	a0,243
   16a8c:	4591                	li	a1,4
   16a8e:	00009097          	auipc	ra,0x9
   16a92:	116080e7          	jalr	278(ra) # 1fba4 <_ZN9allow_pin12dynamic_type7unshare17h0269127f30dbe29bE>
   16a96:	4781                	li	a5,0
   16a98:	028102a3          	sb	s0,37(sp)
   16a9c:	c79d                	beqz	a5,16aca <_ZN20complex_dynamic_type3app17h862dc8eede2c18dcE+0x11a>
   16a9e:	02514603          	lbu	a2,37(sp)
   16aa2:	4505                	li	a0,1
   16aa4:	4409                	li	s0,2
   16aa6:	00a90023          	sb	a0,0(s2)
   16aaa:	00b92223          	sw	a1,4(s2)
   16aae:	00860963          	beq	a2,s0,16ac0 <_ZN20complex_dynamic_type3app17h862dc8eede2c18dcE+0x110>
   16ab2:	0f300513          	li	a0,243
   16ab6:	4591                	li	a1,4
   16ab8:	00009097          	auipc	ra,0x9
   16abc:	0ec080e7          	jalr	236(ra) # 1fba4 <_ZN9allow_pin12dynamic_type7unshare17h0269127f30dbe29bE>
   16ac0:	00c14603          	lbu	a2,12(sp)
   16ac4:	04861663          	bne	a2,s0,16b10 <_ZN20complex_dynamic_type3app17h862dc8eede2c18dcE+0x160>
   16ac8:	a899                	j	16b1e <_ZN20complex_dynamic_type3app17h862dc8eede2c18dcE+0x16e>
   16aca:	02514403          	lbu	s0,37(sp)
   16ace:	4489                	li	s1,2
   16ad0:	00940663          	beq	s0,s1,16adc <_ZN20complex_dynamic_type3app17h862dc8eede2c18dcE+0x12c>
   16ad4:	000109b7          	lui	s3,0x10
   16ad8:	73498993          	addi	s3,s3,1844 # 10734 <.Lanon.49c9f8067fe4468184af16d7576940c9.32>
   16adc:	00190513          	addi	a0,s2,1
   16ae0:	03600613          	li	a2,54
   16ae4:	85ce                	mv	a1,s3
   16ae6:	00009097          	auipc	ra,0x9
   16aea:	136080e7          	jalr	310(ra) # 1fc1c <memcpy>
   16aee:	00090023          	sb	zero,0(s2)
   16af2:	00940a63          	beq	s0,s1,16b06 <_ZN20complex_dynamic_type3app17h862dc8eede2c18dcE+0x156>
   16af6:	0f300513          	li	a0,243
   16afa:	4591                	li	a1,4
   16afc:	8622                	mv	a2,s0
   16afe:	00009097          	auipc	ra,0x9
   16b02:	0a6080e7          	jalr	166(ra) # 1fba4 <_ZN9allow_pin12dynamic_type7unshare17h0269127f30dbe29bE>
   16b06:	00c14603          	lbu	a2,12(sp)
   16b0a:	4509                	li	a0,2
   16b0c:	00a60963          	beq	a2,a0,16b1e <_ZN20complex_dynamic_type3app17h862dc8eede2c18dcE+0x16e>
   16b10:	0f300513          	li	a0,243
   16b14:	45a1                	li	a1,8
   16b16:	00009097          	auipc	ra,0x9
   16b1a:	08e080e7          	jalr	142(ra) # 1fba4 <_ZN9allow_pin12dynamic_type7unshare17h0269127f30dbe29bE>
   16b1e:	50b6                	lw	ra,108(sp)
   16b20:	5426                	lw	s0,104(sp)
   16b22:	5496                	lw	s1,100(sp)
   16b24:	5906                	lw	s2,96(sp)
   16b26:	49f6                	lw	s3,92(sp)
   16b28:	6165                	addi	sp,sp,112
   16b2a:	8082                	ret

00016b2c <_ZN20complex_dynamic_type3app17h8657d3d593b19dc0E>:
   16b2c:	7155                	addi	sp,sp,-208
   16b2e:	c786                	sw	ra,204(sp)
   16b30:	c5a2                	sw	s0,200(sp)
   16b32:	c3a6                	sw	s1,196(sp)
   16b34:	c1ca                	sw	s2,192(sp)
   16b36:	df4e                	sw	s3,188(sp)
   16b38:	892a                	mv	s2,a0
   16b3a:	4489                	li	s1,2
   16b3c:	009103a3          	sb	s1,7(sp)
   16b40:	0020                	addi	s0,sp,8
   16b42:	05e00613          	li	a2,94
   16b46:	8522                	mv	a0,s0
   16b48:	00009097          	auipc	ra,0x9
   16b4c:	0d4080e7          	jalr	212(ra) # 1fc1c <memcpy>
   16b50:	06710993          	addi	s3,sp,103
   16b54:	05500613          	li	a2,85
   16b58:	854e                	mv	a0,s3
   16b5a:	4581                	li	a1,0
   16b5c:	00009097          	auipc	ra,0x9
   16b60:	054080e7          	jalr	84(ra) # 1fbb0 <memset>
   16b64:	8622                	mv	a2,s0
   16b66:	06910323          	sb	s1,102(sp)
   16b6a:	6505                	lui	a0,0x1
   16b6c:	4791                	li	a5,4
   16b6e:	459d                	li	a1,7
   16b70:	78a50513          	addi	a0,a0,1930 # 178a <.Lline_table_start1+0x155f>
   16b74:	05e00693          	li	a3,94
   16b78:	4711                	li	a4,4
   16b7a:	00000073          	ecall
   16b7e:	00950463          	beq	a0,s1,16b86 <_ZN20complex_dynamic_type3app17h8657d3d593b19dc0E+0x5a>
   16b82:	00f103a3          	sb	a5,7(sp)
   16b86:	4609                	li	a2,2
   16b88:	00c51463          	bne	a0,a2,16b90 <_ZN20complex_dynamic_type3app17h8657d3d593b19dc0E+0x64>
   16b8c:	4785                	li	a5,1
   16b8e:	a859                	j	16c24 <_ZN20complex_dynamic_type3app17h8657d3d593b19dc0E+0xf8>
   16b90:	06614503          	lbu	a0,102(sp)
   16b94:	4785                	li	a5,1
   16b96:	02c51363          	bne	a0,a2,16bbc <_ZN20complex_dynamic_type3app17h8657d3d593b19dc0E+0x90>
   16b9a:	864e                	mv	a2,s3
   16b9c:	6505                	lui	a0,0x1
   16b9e:	458d                	li	a1,3
   16ba0:	05500693          	li	a3,85
   16ba4:	470d                	li	a4,3
   16ba6:	78a50513          	addi	a0,a0,1930 # 178a <.Lline_table_start1+0x155f>
   16baa:	4489                	li	s1,2
   16bac:	00000073          	ecall
   16bb0:	460d                	li	a2,3
   16bb2:	00951963          	bne	a0,s1,16bc4 <_ZN20complex_dynamic_type3app17h8657d3d593b19dc0E+0x98>
   16bb6:	4505                	li	a0,1
   16bb8:	c911                	beqz	a0,16bcc <_ZN20complex_dynamic_type3app17h8657d3d593b19dc0E+0xa0>
   16bba:	a0ad                	j	16c24 <_ZN20complex_dynamic_type3app17h8657d3d593b19dc0E+0xf8>
   16bbc:	458d                	li	a1,3
   16bbe:	4505                	li	a0,1
   16bc0:	c511                	beqz	a0,16bcc <_ZN20complex_dynamic_type3app17h8657d3d593b19dc0E+0xa0>
   16bc2:	a08d                	j	16c24 <_ZN20complex_dynamic_type3app17h8657d3d593b19dc0E+0xf8>
   16bc4:	4501                	li	a0,0
   16bc6:	06c10323          	sb	a2,102(sp)
   16bca:	ed29                	bnez	a0,16c24 <_ZN20complex_dynamic_type3app17h8657d3d593b19dc0E+0xf8>
   16bcc:	4681                	li	a3,0
   16bce:	6505                	lui	a0,0x1
   16bd0:	459d                	li	a1,7
   16bd2:	460d                	li	a2,3
   16bd4:	4709                	li	a4,2
   16bd6:	78a50513          	addi	a0,a0,1930 # 178a <.Lline_table_start1+0x155f>
   16bda:	07f00493          	li	s1,127
   16bde:	00000073          	ecall
   16be2:	4689                	li	a3,2
   16be4:	04a4f063          	bgeu	s1,a0,16c24 <_ZN20complex_dynamic_type3app17h8657d3d593b19dc0E+0xf8>
   16be8:	00714603          	lbu	a2,7(sp)
   16bec:	00d60a63          	beq	a2,a3,16c00 <_ZN20complex_dynamic_type3app17h8657d3d593b19dc0E+0xd4>
   16bf0:	6505                	lui	a0,0x1
   16bf2:	78a50513          	addi	a0,a0,1930 # 178a <.Lline_table_start1+0x155f>
   16bf6:	459d                	li	a1,7
   16bf8:	00009097          	auipc	ra,0x9
   16bfc:	fac080e7          	jalr	-84(ra) # 1fba4 <_ZN9allow_pin12dynamic_type7unshare17h0269127f30dbe29bE>
   16c00:	06614603          	lbu	a2,102(sp)
   16c04:	4409                	li	s0,2
   16c06:	008103a3          	sb	s0,7(sp)
   16c0a:	00860a63          	beq	a2,s0,16c1e <_ZN20complex_dynamic_type3app17h8657d3d593b19dc0E+0xf2>
   16c0e:	6505                	lui	a0,0x1
   16c10:	78a50513          	addi	a0,a0,1930 # 178a <.Lline_table_start1+0x155f>
   16c14:	458d                	li	a1,3
   16c16:	00009097          	auipc	ra,0x9
   16c1a:	f8e080e7          	jalr	-114(ra) # 1fba4 <_ZN9allow_pin12dynamic_type7unshare17h0269127f30dbe29bE>
   16c1e:	4781                	li	a5,0
   16c20:	06810323          	sb	s0,102(sp)
   16c24:	cb85                	beqz	a5,16c54 <_ZN20complex_dynamic_type3app17h8657d3d593b19dc0E+0x128>
   16c26:	06614603          	lbu	a2,102(sp)
   16c2a:	4505                	li	a0,1
   16c2c:	4409                	li	s0,2
   16c2e:	00a90023          	sb	a0,0(s2)
   16c32:	00b92223          	sw	a1,4(s2)
   16c36:	00860a63          	beq	a2,s0,16c4a <_ZN20complex_dynamic_type3app17h8657d3d593b19dc0E+0x11e>
   16c3a:	6505                	lui	a0,0x1
   16c3c:	78a50513          	addi	a0,a0,1930 # 178a <.Lline_table_start1+0x155f>
   16c40:	458d                	li	a1,3
   16c42:	00009097          	auipc	ra,0x9
   16c46:	f62080e7          	jalr	-158(ra) # 1fba4 <_ZN9allow_pin12dynamic_type7unshare17h0269127f30dbe29bE>
   16c4a:	00714603          	lbu	a2,7(sp)
   16c4e:	04861763          	bne	a2,s0,16c9c <_ZN20complex_dynamic_type3app17h8657d3d593b19dc0E+0x170>
   16c52:	a8a9                	j	16cac <_ZN20complex_dynamic_type3app17h8657d3d593b19dc0E+0x180>
   16c54:	06614403          	lbu	s0,102(sp)
   16c58:	4489                	li	s1,2
   16c5a:	00940663          	beq	s0,s1,16c66 <_ZN20complex_dynamic_type3app17h8657d3d593b19dc0E+0x13a>
   16c5e:	000119b7          	lui	s3,0x11
   16c62:	afc98993          	addi	s3,s3,-1284 # 10afc <.Lanon.49c9f8067fe4468184af16d7576940c9.50>
   16c66:	00190513          	addi	a0,s2,1
   16c6a:	05500613          	li	a2,85
   16c6e:	85ce                	mv	a1,s3
   16c70:	00009097          	auipc	ra,0x9
   16c74:	fac080e7          	jalr	-84(ra) # 1fc1c <memcpy>
   16c78:	00090023          	sb	zero,0(s2)
   16c7c:	00940b63          	beq	s0,s1,16c92 <_ZN20complex_dynamic_type3app17h8657d3d593b19dc0E+0x166>
   16c80:	6505                	lui	a0,0x1
   16c82:	78a50513          	addi	a0,a0,1930 # 178a <.Lline_table_start1+0x155f>
   16c86:	458d                	li	a1,3
   16c88:	8622                	mv	a2,s0
   16c8a:	00009097          	auipc	ra,0x9
   16c8e:	f1a080e7          	jalr	-230(ra) # 1fba4 <_ZN9allow_pin12dynamic_type7unshare17h0269127f30dbe29bE>
   16c92:	00714603          	lbu	a2,7(sp)
   16c96:	4509                	li	a0,2
   16c98:	00a60a63          	beq	a2,a0,16cac <_ZN20complex_dynamic_type3app17h8657d3d593b19dc0E+0x180>
   16c9c:	6505                	lui	a0,0x1
   16c9e:	78a50513          	addi	a0,a0,1930 # 178a <.Lline_table_start1+0x155f>
   16ca2:	459d                	li	a1,7
   16ca4:	00009097          	auipc	ra,0x9
   16ca8:	f00080e7          	jalr	-256(ra) # 1fba4 <_ZN9allow_pin12dynamic_type7unshare17h0269127f30dbe29bE>
   16cac:	40be                	lw	ra,204(sp)
   16cae:	442e                	lw	s0,200(sp)
   16cb0:	449e                	lw	s1,196(sp)
   16cb2:	490e                	lw	s2,192(sp)
   16cb4:	59fa                	lw	s3,188(sp)
   16cb6:	6169                	addi	sp,sp,208
   16cb8:	8082                	ret

00016cba <_ZN20complex_dynamic_type3app17h870beff4df60bb04E>:
   16cba:	715d                	addi	sp,sp,-80
   16cbc:	c686                	sw	ra,76(sp)
   16cbe:	c4a2                	sw	s0,72(sp)
   16cc0:	c2a6                	sw	s1,68(sp)
   16cc2:	c0ca                	sw	s2,64(sp)
   16cc4:	de4e                	sw	s3,60(sp)
   16cc6:	892a                	mv	s2,a0
   16cc8:	4489                	li	s1,2
   16cca:	00910323          	sb	s1,6(sp)
   16cce:	00710413          	addi	s0,sp,7
   16cd2:	463d                	li	a2,15
   16cd4:	8522                	mv	a0,s0
   16cd6:	00009097          	auipc	ra,0x9
   16cda:	f46080e7          	jalr	-186(ra) # 1fc1c <memcpy>
   16cde:	01710993          	addi	s3,sp,23
   16ce2:	02500613          	li	a2,37
   16ce6:	854e                	mv	a0,s3
   16ce8:	4581                	li	a1,0
   16cea:	00009097          	auipc	ra,0x9
   16cee:	ec6080e7          	jalr	-314(ra) # 1fbb0 <memset>
   16cf2:	8622                	mv	a2,s0
   16cf4:	00910b23          	sb	s1,22(sp)
   16cf8:	4791                	li	a5,4
   16cfa:	0a200513          	li	a0,162
   16cfe:	45a1                	li	a1,8
   16d00:	46bd                	li	a3,15
   16d02:	4711                	li	a4,4
   16d04:	00000073          	ecall
   16d08:	00950463          	beq	a0,s1,16d10 <_ZN20complex_dynamic_type3app17h870beff4df60bb04E+0x56>
   16d0c:	00f10323          	sb	a5,6(sp)
   16d10:	4609                	li	a2,2
   16d12:	00c51463          	bne	a0,a2,16d1a <_ZN20complex_dynamic_type3app17h870beff4df60bb04E+0x60>
   16d16:	4785                	li	a5,1
   16d18:	a079                	j	16da6 <_ZN20complex_dynamic_type3app17h870beff4df60bb04E+0xec>
   16d1a:	01614503          	lbu	a0,22(sp)
   16d1e:	4785                	li	a5,1
   16d20:	02c51263          	bne	a0,a2,16d44 <_ZN20complex_dynamic_type3app17h870beff4df60bb04E+0x8a>
   16d24:	4581                	li	a1,0
   16d26:	864e                	mv	a2,s3
   16d28:	0a200513          	li	a0,162
   16d2c:	02500693          	li	a3,37
   16d30:	470d                	li	a4,3
   16d32:	4489                	li	s1,2
   16d34:	00000073          	ecall
   16d38:	460d                	li	a2,3
   16d3a:	00951963          	bne	a0,s1,16d4c <_ZN20complex_dynamic_type3app17h870beff4df60bb04E+0x92>
   16d3e:	4505                	li	a0,1
   16d40:	c911                	beqz	a0,16d54 <_ZN20complex_dynamic_type3app17h870beff4df60bb04E+0x9a>
   16d42:	a095                	j	16da6 <_ZN20complex_dynamic_type3app17h870beff4df60bb04E+0xec>
   16d44:	458d                	li	a1,3
   16d46:	4505                	li	a0,1
   16d48:	c511                	beqz	a0,16d54 <_ZN20complex_dynamic_type3app17h870beff4df60bb04E+0x9a>
   16d4a:	a8b1                	j	16da6 <_ZN20complex_dynamic_type3app17h870beff4df60bb04E+0xec>
   16d4c:	4501                	li	a0,0
   16d4e:	00c10b23          	sb	a2,22(sp)
   16d52:	e931                	bnez	a0,16da6 <_ZN20complex_dynamic_type3app17h870beff4df60bb04E+0xec>
   16d54:	4601                	li	a2,0
   16d56:	4681                	li	a3,0
   16d58:	0a200513          	li	a0,162
   16d5c:	45a1                	li	a1,8
   16d5e:	4709                	li	a4,2
   16d60:	07f00493          	li	s1,127
   16d64:	00000073          	ecall
   16d68:	4689                	li	a3,2
   16d6a:	02a4fe63          	bgeu	s1,a0,16da6 <_ZN20complex_dynamic_type3app17h870beff4df60bb04E+0xec>
   16d6e:	00614603          	lbu	a2,6(sp)
   16d72:	00d60963          	beq	a2,a3,16d84 <_ZN20complex_dynamic_type3app17h870beff4df60bb04E+0xca>
   16d76:	0a200513          	li	a0,162
   16d7a:	45a1                	li	a1,8
   16d7c:	00009097          	auipc	ra,0x9
   16d80:	e28080e7          	jalr	-472(ra) # 1fba4 <_ZN9allow_pin12dynamic_type7unshare17h0269127f30dbe29bE>
   16d84:	01614603          	lbu	a2,22(sp)
   16d88:	4409                	li	s0,2
   16d8a:	00810323          	sb	s0,6(sp)
   16d8e:	00860963          	beq	a2,s0,16da0 <_ZN20complex_dynamic_type3app17h870beff4df60bb04E+0xe6>
   16d92:	0a200513          	li	a0,162
   16d96:	4581                	li	a1,0
   16d98:	00009097          	auipc	ra,0x9
   16d9c:	e0c080e7          	jalr	-500(ra) # 1fba4 <_ZN9allow_pin12dynamic_type7unshare17h0269127f30dbe29bE>
   16da0:	4781                	li	a5,0
   16da2:	00810b23          	sb	s0,22(sp)
   16da6:	c79d                	beqz	a5,16dd4 <_ZN20complex_dynamic_type3app17h870beff4df60bb04E+0x11a>
   16da8:	01614603          	lbu	a2,22(sp)
   16dac:	4505                	li	a0,1
   16dae:	4409                	li	s0,2
   16db0:	00a90023          	sb	a0,0(s2)
   16db4:	00b92223          	sw	a1,4(s2)
   16db8:	00860963          	beq	a2,s0,16dca <_ZN20complex_dynamic_type3app17h870beff4df60bb04E+0x110>
   16dbc:	0a200513          	li	a0,162
   16dc0:	4581                	li	a1,0
   16dc2:	00009097          	auipc	ra,0x9
   16dc6:	de2080e7          	jalr	-542(ra) # 1fba4 <_ZN9allow_pin12dynamic_type7unshare17h0269127f30dbe29bE>
   16dca:	00614603          	lbu	a2,6(sp)
   16dce:	04861663          	bne	a2,s0,16e1a <_ZN20complex_dynamic_type3app17h870beff4df60bb04E+0x160>
   16dd2:	a899                	j	16e28 <_ZN20complex_dynamic_type3app17h870beff4df60bb04E+0x16e>
   16dd4:	01614403          	lbu	s0,22(sp)
   16dd8:	4489                	li	s1,2
   16dda:	00940663          	beq	s0,s1,16de6 <_ZN20complex_dynamic_type3app17h870beff4df60bb04E+0x12c>
   16dde:	000109b7          	lui	s3,0x10
   16de2:	77d98993          	addi	s3,s3,1917 # 1077d <.Lanon.49c9f8067fe4468184af16d7576940c9.34>
   16de6:	00190513          	addi	a0,s2,1
   16dea:	02500613          	li	a2,37
   16dee:	85ce                	mv	a1,s3
   16df0:	00009097          	auipc	ra,0x9
   16df4:	e2c080e7          	jalr	-468(ra) # 1fc1c <memcpy>
   16df8:	00090023          	sb	zero,0(s2)
   16dfc:	00940a63          	beq	s0,s1,16e10 <_ZN20complex_dynamic_type3app17h870beff4df60bb04E+0x156>
   16e00:	0a200513          	li	a0,162
   16e04:	4581                	li	a1,0
   16e06:	8622                	mv	a2,s0
   16e08:	00009097          	auipc	ra,0x9
   16e0c:	d9c080e7          	jalr	-612(ra) # 1fba4 <_ZN9allow_pin12dynamic_type7unshare17h0269127f30dbe29bE>
   16e10:	00614603          	lbu	a2,6(sp)
   16e14:	4509                	li	a0,2
   16e16:	00a60963          	beq	a2,a0,16e28 <_ZN20complex_dynamic_type3app17h870beff4df60bb04E+0x16e>
   16e1a:	0a200513          	li	a0,162
   16e1e:	45a1                	li	a1,8
   16e20:	00009097          	auipc	ra,0x9
   16e24:	d84080e7          	jalr	-636(ra) # 1fba4 <_ZN9allow_pin12dynamic_type7unshare17h0269127f30dbe29bE>
   16e28:	40b6                	lw	ra,76(sp)
   16e2a:	4426                	lw	s0,72(sp)
   16e2c:	4496                	lw	s1,68(sp)
   16e2e:	4906                	lw	s2,64(sp)
   16e30:	59f2                	lw	s3,60(sp)
   16e32:	6161                	addi	sp,sp,80
   16e34:	8082                	ret

00016e36 <_ZN20complex_dynamic_type3app17h8d91a790e550a87cE>:
   16e36:	715d                	addi	sp,sp,-80
   16e38:	c686                	sw	ra,76(sp)
   16e3a:	c4a2                	sw	s0,72(sp)
   16e3c:	c2a6                	sw	s1,68(sp)
   16e3e:	c0ca                	sw	s2,64(sp)
   16e40:	de4e                	sw	s3,60(sp)
   16e42:	892a                	mv	s2,a0
   16e44:	4489                	li	s1,2
   16e46:	00910223          	sb	s1,4(sp)
   16e4a:	00510413          	addi	s0,sp,5
   16e4e:	4661                	li	a2,24
   16e50:	8522                	mv	a0,s0
   16e52:	00009097          	auipc	ra,0x9
   16e56:	dca080e7          	jalr	-566(ra) # 1fc1c <memcpy>
   16e5a:	01e10993          	addi	s3,sp,30
   16e5e:	4679                	li	a2,30
   16e60:	854e                	mv	a0,s3
   16e62:	4581                	li	a1,0
   16e64:	00009097          	auipc	ra,0x9
   16e68:	d4c080e7          	jalr	-692(ra) # 1fbb0 <memset>
   16e6c:	8622                	mv	a2,s0
   16e6e:	00910ea3          	sb	s1,29(sp)
   16e72:	6505                	lui	a0,0x1
   16e74:	4791                	li	a5,4
   16e76:	45a5                	li	a1,9
   16e78:	cbb50513          	addi	a0,a0,-837 # cbb <.Lline_table_start1+0xa90>
   16e7c:	46e1                	li	a3,24
   16e7e:	4711                	li	a4,4
   16e80:	00000073          	ecall
   16e84:	00950463          	beq	a0,s1,16e8c <_ZN20complex_dynamic_type3app17h8d91a790e550a87cE+0x56>
   16e88:	00f10223          	sb	a5,4(sp)
   16e8c:	4609                	li	a2,2
   16e8e:	00c51463          	bne	a0,a2,16e96 <_ZN20complex_dynamic_type3app17h8d91a790e550a87cE+0x60>
   16e92:	4785                	li	a5,1
   16e94:	a851                	j	16f28 <_ZN20complex_dynamic_type3app17h8d91a790e550a87cE+0xf2>
   16e96:	01d14503          	lbu	a0,29(sp)
   16e9a:	4785                	li	a5,1
   16e9c:	02c51263          	bne	a0,a2,16ec0 <_ZN20complex_dynamic_type3app17h8d91a790e550a87cE+0x8a>
   16ea0:	864e                	mv	a2,s3
   16ea2:	6505                	lui	a0,0x1
   16ea4:	4595                	li	a1,5
   16ea6:	46f9                	li	a3,30
   16ea8:	470d                	li	a4,3
   16eaa:	cbb50513          	addi	a0,a0,-837 # cbb <.Lline_table_start1+0xa90>
   16eae:	4489                	li	s1,2
   16eb0:	00000073          	ecall
   16eb4:	460d                	li	a2,3
   16eb6:	00951963          	bne	a0,s1,16ec8 <_ZN20complex_dynamic_type3app17h8d91a790e550a87cE+0x92>
   16eba:	4505                	li	a0,1
   16ebc:	c911                	beqz	a0,16ed0 <_ZN20complex_dynamic_type3app17h8d91a790e550a87cE+0x9a>
   16ebe:	a0ad                	j	16f28 <_ZN20complex_dynamic_type3app17h8d91a790e550a87cE+0xf2>
   16ec0:	458d                	li	a1,3
   16ec2:	4505                	li	a0,1
   16ec4:	c511                	beqz	a0,16ed0 <_ZN20complex_dynamic_type3app17h8d91a790e550a87cE+0x9a>
   16ec6:	a08d                	j	16f28 <_ZN20complex_dynamic_type3app17h8d91a790e550a87cE+0xf2>
   16ec8:	4501                	li	a0,0
   16eca:	00c10ea3          	sb	a2,29(sp)
   16ece:	ed29                	bnez	a0,16f28 <_ZN20complex_dynamic_type3app17h8d91a790e550a87cE+0xf2>
   16ed0:	4681                	li	a3,0
   16ed2:	6505                	lui	a0,0x1
   16ed4:	45a5                	li	a1,9
   16ed6:	4615                	li	a2,5
   16ed8:	4709                	li	a4,2
   16eda:	cbb50513          	addi	a0,a0,-837 # cbb <.Lline_table_start1+0xa90>
   16ede:	07f00493          	li	s1,127
   16ee2:	00000073          	ecall
   16ee6:	4689                	li	a3,2
   16ee8:	04a4f063          	bgeu	s1,a0,16f28 <_ZN20complex_dynamic_type3app17h8d91a790e550a87cE+0xf2>
   16eec:	00414603          	lbu	a2,4(sp)
   16ef0:	00d60a63          	beq	a2,a3,16f04 <_ZN20complex_dynamic_type3app17h8d91a790e550a87cE+0xce>
   16ef4:	6505                	lui	a0,0x1
   16ef6:	cbb50513          	addi	a0,a0,-837 # cbb <.Lline_table_start1+0xa90>
   16efa:	45a5                	li	a1,9
   16efc:	00009097          	auipc	ra,0x9
   16f00:	ca8080e7          	jalr	-856(ra) # 1fba4 <_ZN9allow_pin12dynamic_type7unshare17h0269127f30dbe29bE>
   16f04:	01d14603          	lbu	a2,29(sp)
   16f08:	4409                	li	s0,2
   16f0a:	00810223          	sb	s0,4(sp)
   16f0e:	00860a63          	beq	a2,s0,16f22 <_ZN20complex_dynamic_type3app17h8d91a790e550a87cE+0xec>
   16f12:	6505                	lui	a0,0x1
   16f14:	cbb50513          	addi	a0,a0,-837 # cbb <.Lline_table_start1+0xa90>
   16f18:	4595                	li	a1,5
   16f1a:	00009097          	auipc	ra,0x9
   16f1e:	c8a080e7          	jalr	-886(ra) # 1fba4 <_ZN9allow_pin12dynamic_type7unshare17h0269127f30dbe29bE>
   16f22:	4781                	li	a5,0
   16f24:	00810ea3          	sb	s0,29(sp)
   16f28:	cb85                	beqz	a5,16f58 <_ZN20complex_dynamic_type3app17h8d91a790e550a87cE+0x122>
   16f2a:	01d14603          	lbu	a2,29(sp)
   16f2e:	4505                	li	a0,1
   16f30:	4409                	li	s0,2
   16f32:	00a90023          	sb	a0,0(s2)
   16f36:	00b92223          	sw	a1,4(s2)
   16f3a:	00860a63          	beq	a2,s0,16f4e <_ZN20complex_dynamic_type3app17h8d91a790e550a87cE+0x118>
   16f3e:	6505                	lui	a0,0x1
   16f40:	cbb50513          	addi	a0,a0,-837 # cbb <.Lline_table_start1+0xa90>
   16f44:	4595                	li	a1,5
   16f46:	00009097          	auipc	ra,0x9
   16f4a:	c5e080e7          	jalr	-930(ra) # 1fba4 <_ZN9allow_pin12dynamic_type7unshare17h0269127f30dbe29bE>
   16f4e:	00414603          	lbu	a2,4(sp)
   16f52:	04861663          	bne	a2,s0,16f9e <_ZN20complex_dynamic_type3app17h8d91a790e550a87cE+0x168>
   16f56:	a8a1                	j	16fae <_ZN20complex_dynamic_type3app17h8d91a790e550a87cE+0x178>
   16f58:	01d14403          	lbu	s0,29(sp)
   16f5c:	4489                	li	s1,2
   16f5e:	00940663          	beq	s0,s1,16f6a <_ZN20complex_dynamic_type3app17h8d91a790e550a87cE+0x134>
   16f62:	000109b7          	lui	s3,0x10
   16f66:	5bd98993          	addi	s3,s3,1469 # 105bd <.Lanon.49c9f8067fe4468184af16d7576940c9.24>
   16f6a:	00190513          	addi	a0,s2,1
   16f6e:	4679                	li	a2,30
   16f70:	85ce                	mv	a1,s3
   16f72:	00009097          	auipc	ra,0x9
   16f76:	caa080e7          	jalr	-854(ra) # 1fc1c <memcpy>
   16f7a:	00090023          	sb	zero,0(s2)
   16f7e:	00940b63          	beq	s0,s1,16f94 <_ZN20complex_dynamic_type3app17h8d91a790e550a87cE+0x15e>
   16f82:	6505                	lui	a0,0x1
   16f84:	cbb50513          	addi	a0,a0,-837 # cbb <.Lline_table_start1+0xa90>
   16f88:	4595                	li	a1,5
   16f8a:	8622                	mv	a2,s0
   16f8c:	00009097          	auipc	ra,0x9
   16f90:	c18080e7          	jalr	-1000(ra) # 1fba4 <_ZN9allow_pin12dynamic_type7unshare17h0269127f30dbe29bE>
   16f94:	00414603          	lbu	a2,4(sp)
   16f98:	4509                	li	a0,2
   16f9a:	00a60a63          	beq	a2,a0,16fae <_ZN20complex_dynamic_type3app17h8d91a790e550a87cE+0x178>
   16f9e:	6505                	lui	a0,0x1
   16fa0:	cbb50513          	addi	a0,a0,-837 # cbb <.Lline_table_start1+0xa90>
   16fa4:	45a5                	li	a1,9
   16fa6:	00009097          	auipc	ra,0x9
   16faa:	bfe080e7          	jalr	-1026(ra) # 1fba4 <_ZN9allow_pin12dynamic_type7unshare17h0269127f30dbe29bE>
   16fae:	40b6                	lw	ra,76(sp)
   16fb0:	4426                	lw	s0,72(sp)
   16fb2:	4496                	lw	s1,68(sp)
   16fb4:	4906                	lw	s2,64(sp)
   16fb6:	59f2                	lw	s3,60(sp)
   16fb8:	6161                	addi	sp,sp,80
   16fba:	8082                	ret

00016fbc <_ZN20complex_dynamic_type3app17h93668936b9d8f256E>:
   16fbc:	7175                	addi	sp,sp,-144
   16fbe:	c706                	sw	ra,140(sp)
   16fc0:	c522                	sw	s0,136(sp)
   16fc2:	c326                	sw	s1,132(sp)
   16fc4:	c14a                	sw	s2,128(sp)
   16fc6:	dece                	sw	s3,124(sp)
   16fc8:	892a                	mv	s2,a0
   16fca:	4489                	li	s1,2
   16fcc:	009107a3          	sb	s1,15(sp)
   16fd0:	0800                	addi	s0,sp,16
   16fd2:	05000613          	li	a2,80
   16fd6:	8522                	mv	a0,s0
   16fd8:	00009097          	auipc	ra,0x9
   16fdc:	c44080e7          	jalr	-956(ra) # 1fc1c <memcpy>
   16fe0:	06110993          	addi	s3,sp,97
   16fe4:	466d                	li	a2,27
   16fe6:	854e                	mv	a0,s3
   16fe8:	4581                	li	a1,0
   16fea:	00009097          	auipc	ra,0x9
   16fee:	bc6080e7          	jalr	-1082(ra) # 1fbb0 <memset>
   16ff2:	8622                	mv	a2,s0
   16ff4:	06910023          	sb	s1,96(sp)
   16ff8:	4791                	li	a5,4
   16ffa:	3d900513          	li	a0,985
   16ffe:	4585                	li	a1,1
   17000:	05000693          	li	a3,80
   17004:	4711                	li	a4,4
   17006:	00000073          	ecall
   1700a:	00950463          	beq	a0,s1,17012 <_ZN20complex_dynamic_type3app17h93668936b9d8f256E+0x56>
   1700e:	00f107a3          	sb	a5,15(sp)
   17012:	4609                	li	a2,2
   17014:	00c51463          	bne	a0,a2,1701c <_ZN20complex_dynamic_type3app17h93668936b9d8f256E+0x60>
   17018:	4785                	li	a5,1
   1701a:	a079                	j	170a8 <_ZN20complex_dynamic_type3app17h93668936b9d8f256E+0xec>
   1701c:	06014503          	lbu	a0,96(sp)
   17020:	4785                	li	a5,1
   17022:	02c51163          	bne	a0,a2,17044 <_ZN20complex_dynamic_type3app17h93668936b9d8f256E+0x88>
   17026:	864e                	mv	a2,s3
   17028:	4409                	li	s0,2
   1702a:	448d                	li	s1,3
   1702c:	3d900513          	li	a0,985
   17030:	4589                	li	a1,2
   17032:	46ed                	li	a3,27
   17034:	470d                	li	a4,3
   17036:	00000073          	ecall
   1703a:	00851963          	bne	a0,s0,1704c <_ZN20complex_dynamic_type3app17h93668936b9d8f256E+0x90>
   1703e:	4505                	li	a0,1
   17040:	c911                	beqz	a0,17054 <_ZN20complex_dynamic_type3app17h93668936b9d8f256E+0x98>
   17042:	a09d                	j	170a8 <_ZN20complex_dynamic_type3app17h93668936b9d8f256E+0xec>
   17044:	458d                	li	a1,3
   17046:	4505                	li	a0,1
   17048:	c511                	beqz	a0,17054 <_ZN20complex_dynamic_type3app17h93668936b9d8f256E+0x98>
   1704a:	a8b9                	j	170a8 <_ZN20complex_dynamic_type3app17h93668936b9d8f256E+0xec>
   1704c:	4501                	li	a0,0
   1704e:	06910023          	sb	s1,96(sp)
   17052:	e939                	bnez	a0,170a8 <_ZN20complex_dynamic_type3app17h93668936b9d8f256E+0xec>
   17054:	4681                	li	a3,0
   17056:	4785                	li	a5,1
   17058:	3d900513          	li	a0,985
   1705c:	4585                	li	a1,1
   1705e:	4609                	li	a2,2
   17060:	4709                	li	a4,2
   17062:	07f00493          	li	s1,127
   17066:	00000073          	ecall
   1706a:	4689                	li	a3,2
   1706c:	02a4fe63          	bgeu	s1,a0,170a8 <_ZN20complex_dynamic_type3app17h93668936b9d8f256E+0xec>
   17070:	00f14603          	lbu	a2,15(sp)
   17074:	00d60963          	beq	a2,a3,17086 <_ZN20complex_dynamic_type3app17h93668936b9d8f256E+0xca>
   17078:	3d900513          	li	a0,985
   1707c:	4585                	li	a1,1
   1707e:	00009097          	auipc	ra,0x9
   17082:	b26080e7          	jalr	-1242(ra) # 1fba4 <_ZN9allow_pin12dynamic_type7unshare17h0269127f30dbe29bE>
   17086:	06014603          	lbu	a2,96(sp)
   1708a:	4409                	li	s0,2
   1708c:	008107a3          	sb	s0,15(sp)
   17090:	00860963          	beq	a2,s0,170a2 <_ZN20complex_dynamic_type3app17h93668936b9d8f256E+0xe6>
   17094:	3d900513          	li	a0,985
   17098:	4589                	li	a1,2
   1709a:	00009097          	auipc	ra,0x9
   1709e:	b0a080e7          	jalr	-1270(ra) # 1fba4 <_ZN9allow_pin12dynamic_type7unshare17h0269127f30dbe29bE>
   170a2:	4781                	li	a5,0
   170a4:	06810023          	sb	s0,96(sp)
   170a8:	c79d                	beqz	a5,170d6 <_ZN20complex_dynamic_type3app17h93668936b9d8f256E+0x11a>
   170aa:	06014603          	lbu	a2,96(sp)
   170ae:	4505                	li	a0,1
   170b0:	4409                	li	s0,2
   170b2:	00a90023          	sb	a0,0(s2)
   170b6:	00b92223          	sw	a1,4(s2)
   170ba:	00860963          	beq	a2,s0,170cc <_ZN20complex_dynamic_type3app17h93668936b9d8f256E+0x110>
   170be:	3d900513          	li	a0,985
   170c2:	4589                	li	a1,2
   170c4:	00009097          	auipc	ra,0x9
   170c8:	ae0080e7          	jalr	-1312(ra) # 1fba4 <_ZN9allow_pin12dynamic_type7unshare17h0269127f30dbe29bE>
   170cc:	00f14603          	lbu	a2,15(sp)
   170d0:	04861563          	bne	a2,s0,1711a <_ZN20complex_dynamic_type3app17h93668936b9d8f256E+0x15e>
   170d4:	a891                	j	17128 <_ZN20complex_dynamic_type3app17h93668936b9d8f256E+0x16c>
   170d6:	06014403          	lbu	s0,96(sp)
   170da:	4489                	li	s1,2
   170dc:	00940663          	beq	s0,s1,170e8 <_ZN20complex_dynamic_type3app17h93668936b9d8f256E+0x12c>
   170e0:	000119b7          	lui	s3,0x11
   170e4:	98b98993          	addi	s3,s3,-1653 # 1098b <.Lanon.49c9f8067fe4468184af16d7576940c9.44>
   170e8:	00190513          	addi	a0,s2,1
   170ec:	466d                	li	a2,27
   170ee:	85ce                	mv	a1,s3
   170f0:	00009097          	auipc	ra,0x9
   170f4:	b2c080e7          	jalr	-1236(ra) # 1fc1c <memcpy>
   170f8:	00090023          	sb	zero,0(s2)
   170fc:	00940a63          	beq	s0,s1,17110 <_ZN20complex_dynamic_type3app17h93668936b9d8f256E+0x154>
   17100:	3d900513          	li	a0,985
   17104:	4589                	li	a1,2
   17106:	8622                	mv	a2,s0
   17108:	00009097          	auipc	ra,0x9
   1710c:	a9c080e7          	jalr	-1380(ra) # 1fba4 <_ZN9allow_pin12dynamic_type7unshare17h0269127f30dbe29bE>
   17110:	00f14603          	lbu	a2,15(sp)
   17114:	4509                	li	a0,2
   17116:	00a60963          	beq	a2,a0,17128 <_ZN20complex_dynamic_type3app17h93668936b9d8f256E+0x16c>
   1711a:	3d900513          	li	a0,985
   1711e:	4585                	li	a1,1
   17120:	00009097          	auipc	ra,0x9
   17124:	a84080e7          	jalr	-1404(ra) # 1fba4 <_ZN9allow_pin12dynamic_type7unshare17h0269127f30dbe29bE>
   17128:	40ba                	lw	ra,140(sp)
   1712a:	442a                	lw	s0,136(sp)
   1712c:	449a                	lw	s1,132(sp)
   1712e:	490a                	lw	s2,128(sp)
   17130:	59f6                	lw	s3,124(sp)
   17132:	6149                	addi	sp,sp,144
   17134:	8082                	ret

00017136 <_ZN20complex_dynamic_type3app17h93b5d97147597dc3E>:
   17136:	7175                	addi	sp,sp,-144
   17138:	c706                	sw	ra,140(sp)
   1713a:	c522                	sw	s0,136(sp)
   1713c:	c326                	sw	s1,132(sp)
   1713e:	c14a                	sw	s2,128(sp)
   17140:	dece                	sw	s3,124(sp)
   17142:	892a                	mv	s2,a0
   17144:	4489                	li	s1,2
   17146:	00910323          	sb	s1,6(sp)
   1714a:	00710413          	addi	s0,sp,7
   1714e:	03c00613          	li	a2,60
   17152:	8522                	mv	a0,s0
   17154:	00009097          	auipc	ra,0x9
   17158:	ac8080e7          	jalr	-1336(ra) # 1fc1c <memcpy>
   1715c:	04410993          	addi	s3,sp,68
   17160:	03800613          	li	a2,56
   17164:	854e                	mv	a0,s3
   17166:	4581                	li	a1,0
   17168:	00009097          	auipc	ra,0x9
   1716c:	a48080e7          	jalr	-1464(ra) # 1fbb0 <memset>
   17170:	8622                	mv	a2,s0
   17172:	049101a3          	sb	s1,67(sp)
   17176:	6509                	lui	a0,0x2
   17178:	4791                	li	a5,4
   1717a:	458d                	li	a1,3
   1717c:	d1950513          	addi	a0,a0,-743 # 1d19 <.Lline_table_start1+0x1aee>
   17180:	03c00693          	li	a3,60
   17184:	4711                	li	a4,4
   17186:	00000073          	ecall
   1718a:	00950463          	beq	a0,s1,17192 <_ZN20complex_dynamic_type3app17h93b5d97147597dc3E+0x5c>
   1718e:	00f10323          	sb	a5,6(sp)
   17192:	4609                	li	a2,2
   17194:	00c51463          	bne	a0,a2,1719c <_ZN20complex_dynamic_type3app17h93b5d97147597dc3E+0x66>
   17198:	4785                	li	a5,1
   1719a:	a859                	j	17230 <_ZN20complex_dynamic_type3app17h93b5d97147597dc3E+0xfa>
   1719c:	04314503          	lbu	a0,67(sp)
   171a0:	4785                	li	a5,1
   171a2:	02c51363          	bne	a0,a2,171c8 <_ZN20complex_dynamic_type3app17h93b5d97147597dc3E+0x92>
   171a6:	864e                	mv	a2,s3
   171a8:	6509                	lui	a0,0x2
   171aa:	458d                	li	a1,3
   171ac:	03800693          	li	a3,56
   171b0:	470d                	li	a4,3
   171b2:	d1950513          	addi	a0,a0,-743 # 1d19 <.Lline_table_start1+0x1aee>
   171b6:	4489                	li	s1,2
   171b8:	00000073          	ecall
   171bc:	460d                	li	a2,3
   171be:	00951963          	bne	a0,s1,171d0 <_ZN20complex_dynamic_type3app17h93b5d97147597dc3E+0x9a>
   171c2:	4505                	li	a0,1
   171c4:	c911                	beqz	a0,171d8 <_ZN20complex_dynamic_type3app17h93b5d97147597dc3E+0xa2>
   171c6:	a0ad                	j	17230 <_ZN20complex_dynamic_type3app17h93b5d97147597dc3E+0xfa>
   171c8:	458d                	li	a1,3
   171ca:	4505                	li	a0,1
   171cc:	c511                	beqz	a0,171d8 <_ZN20complex_dynamic_type3app17h93b5d97147597dc3E+0xa2>
   171ce:	a08d                	j	17230 <_ZN20complex_dynamic_type3app17h93b5d97147597dc3E+0xfa>
   171d0:	4501                	li	a0,0
   171d2:	04c101a3          	sb	a2,67(sp)
   171d6:	ed29                	bnez	a0,17230 <_ZN20complex_dynamic_type3app17h93b5d97147597dc3E+0xfa>
   171d8:	4681                	li	a3,0
   171da:	6509                	lui	a0,0x2
   171dc:	458d                	li	a1,3
   171de:	460d                	li	a2,3
   171e0:	4709                	li	a4,2
   171e2:	d1950513          	addi	a0,a0,-743 # 1d19 <.Lline_table_start1+0x1aee>
   171e6:	07f00493          	li	s1,127
   171ea:	00000073          	ecall
   171ee:	4689                	li	a3,2
   171f0:	04a4f063          	bgeu	s1,a0,17230 <_ZN20complex_dynamic_type3app17h93b5d97147597dc3E+0xfa>
   171f4:	00614603          	lbu	a2,6(sp)
   171f8:	00d60a63          	beq	a2,a3,1720c <_ZN20complex_dynamic_type3app17h93b5d97147597dc3E+0xd6>
   171fc:	6509                	lui	a0,0x2
   171fe:	d1950513          	addi	a0,a0,-743 # 1d19 <.Lline_table_start1+0x1aee>
   17202:	458d                	li	a1,3
   17204:	00009097          	auipc	ra,0x9
   17208:	9a0080e7          	jalr	-1632(ra) # 1fba4 <_ZN9allow_pin12dynamic_type7unshare17h0269127f30dbe29bE>
   1720c:	04314603          	lbu	a2,67(sp)
   17210:	4409                	li	s0,2
   17212:	00810323          	sb	s0,6(sp)
   17216:	00860a63          	beq	a2,s0,1722a <_ZN20complex_dynamic_type3app17h93b5d97147597dc3E+0xf4>
   1721a:	6509                	lui	a0,0x2
   1721c:	d1950513          	addi	a0,a0,-743 # 1d19 <.Lline_table_start1+0x1aee>
   17220:	458d                	li	a1,3
   17222:	00009097          	auipc	ra,0x9
   17226:	982080e7          	jalr	-1662(ra) # 1fba4 <_ZN9allow_pin12dynamic_type7unshare17h0269127f30dbe29bE>
   1722a:	4781                	li	a5,0
   1722c:	048101a3          	sb	s0,67(sp)
   17230:	cb85                	beqz	a5,17260 <_ZN20complex_dynamic_type3app17h93b5d97147597dc3E+0x12a>
   17232:	04314603          	lbu	a2,67(sp)
   17236:	4505                	li	a0,1
   17238:	4409                	li	s0,2
   1723a:	00a90023          	sb	a0,0(s2)
   1723e:	00b92223          	sw	a1,4(s2)
   17242:	00860a63          	beq	a2,s0,17256 <_ZN20complex_dynamic_type3app17h93b5d97147597dc3E+0x120>
   17246:	6509                	lui	a0,0x2
   17248:	d1950513          	addi	a0,a0,-743 # 1d19 <.Lline_table_start1+0x1aee>
   1724c:	458d                	li	a1,3
   1724e:	00009097          	auipc	ra,0x9
   17252:	956080e7          	jalr	-1706(ra) # 1fba4 <_ZN9allow_pin12dynamic_type7unshare17h0269127f30dbe29bE>
   17256:	00614603          	lbu	a2,6(sp)
   1725a:	04861763          	bne	a2,s0,172a8 <_ZN20complex_dynamic_type3app17h93b5d97147597dc3E+0x172>
   1725e:	a8a9                	j	172b8 <_ZN20complex_dynamic_type3app17h93b5d97147597dc3E+0x182>
   17260:	04314403          	lbu	s0,67(sp)
   17264:	4489                	li	s1,2
   17266:	00940663          	beq	s0,s1,17272 <_ZN20complex_dynamic_type3app17h93b5d97147597dc3E+0x13c>
   1726a:	000109b7          	lui	s3,0x10
   1726e:	7a298993          	addi	s3,s3,1954 # 107a2 <.Lanon.49c9f8067fe4468184af16d7576940c9.35>
   17272:	00190513          	addi	a0,s2,1
   17276:	03800613          	li	a2,56
   1727a:	85ce                	mv	a1,s3
   1727c:	00009097          	auipc	ra,0x9
   17280:	9a0080e7          	jalr	-1632(ra) # 1fc1c <memcpy>
   17284:	00090023          	sb	zero,0(s2)
   17288:	00940b63          	beq	s0,s1,1729e <_ZN20complex_dynamic_type3app17h93b5d97147597dc3E+0x168>
   1728c:	6509                	lui	a0,0x2
   1728e:	d1950513          	addi	a0,a0,-743 # 1d19 <.Lline_table_start1+0x1aee>
   17292:	458d                	li	a1,3
   17294:	8622                	mv	a2,s0
   17296:	00009097          	auipc	ra,0x9
   1729a:	90e080e7          	jalr	-1778(ra) # 1fba4 <_ZN9allow_pin12dynamic_type7unshare17h0269127f30dbe29bE>
   1729e:	00614603          	lbu	a2,6(sp)
   172a2:	4509                	li	a0,2
   172a4:	00a60a63          	beq	a2,a0,172b8 <_ZN20complex_dynamic_type3app17h93b5d97147597dc3E+0x182>
   172a8:	6509                	lui	a0,0x2
   172aa:	d1950513          	addi	a0,a0,-743 # 1d19 <.Lline_table_start1+0x1aee>
   172ae:	458d                	li	a1,3
   172b0:	00009097          	auipc	ra,0x9
   172b4:	8f4080e7          	jalr	-1804(ra) # 1fba4 <_ZN9allow_pin12dynamic_type7unshare17h0269127f30dbe29bE>
   172b8:	40ba                	lw	ra,140(sp)
   172ba:	442a                	lw	s0,136(sp)
   172bc:	449a                	lw	s1,132(sp)
   172be:	490a                	lw	s2,128(sp)
   172c0:	59f6                	lw	s3,124(sp)
   172c2:	6149                	addi	sp,sp,144
   172c4:	8082                	ret

000172c6 <_ZN20complex_dynamic_type3app17h98cc6d739ac25ba1E>:
   172c6:	711d                	addi	sp,sp,-96
   172c8:	ce86                	sw	ra,92(sp)
   172ca:	cca2                	sw	s0,88(sp)
   172cc:	caa6                	sw	s1,84(sp)
   172ce:	c8ca                	sw	s2,80(sp)
   172d0:	c6ce                	sw	s3,76(sp)
   172d2:	892a                	mv	s2,a0
   172d4:	4489                	li	s1,2
   172d6:	00910423          	sb	s1,8(sp)
   172da:	00910413          	addi	s0,sp,9
   172de:	03200613          	li	a2,50
   172e2:	8522                	mv	a0,s0
   172e4:	00009097          	auipc	ra,0x9
   172e8:	938080e7          	jalr	-1736(ra) # 1fc1c <memcpy>
   172ec:	03c10993          	addi	s3,sp,60
   172f0:	4641                	li	a2,16
   172f2:	854e                	mv	a0,s3
   172f4:	4581                	li	a1,0
   172f6:	00009097          	auipc	ra,0x9
   172fa:	8ba080e7          	jalr	-1862(ra) # 1fbb0 <memset>
   172fe:	8622                	mv	a2,s0
   17300:	02910da3          	sb	s1,59(sp)
   17304:	6509                	lui	a0,0x2
   17306:	4791                	li	a5,4
   17308:	4591                	li	a1,4
   1730a:	9d650513          	addi	a0,a0,-1578 # 19d6 <.Lline_table_start1+0x17ab>
   1730e:	03200693          	li	a3,50
   17312:	4711                	li	a4,4
   17314:	00000073          	ecall
   17318:	00950463          	beq	a0,s1,17320 <_ZN20complex_dynamic_type3app17h98cc6d739ac25ba1E+0x5a>
   1731c:	00f10423          	sb	a5,8(sp)
   17320:	4609                	li	a2,2
   17322:	00c51463          	bne	a0,a2,1732a <_ZN20complex_dynamic_type3app17h98cc6d739ac25ba1E+0x64>
   17326:	4785                	li	a5,1
   17328:	a851                	j	173bc <_ZN20complex_dynamic_type3app17h98cc6d739ac25ba1E+0xf6>
   1732a:	03b14503          	lbu	a0,59(sp)
   1732e:	4785                	li	a5,1
   17330:	02c51263          	bne	a0,a2,17354 <_ZN20complex_dynamic_type3app17h98cc6d739ac25ba1E+0x8e>
   17334:	864e                	mv	a2,s3
   17336:	6509                	lui	a0,0x2
   17338:	45a5                	li	a1,9
   1733a:	46c1                	li	a3,16
   1733c:	470d                	li	a4,3
   1733e:	9d650513          	addi	a0,a0,-1578 # 19d6 <.Lline_table_start1+0x17ab>
   17342:	4489                	li	s1,2
   17344:	00000073          	ecall
   17348:	460d                	li	a2,3
   1734a:	00951963          	bne	a0,s1,1735c <_ZN20complex_dynamic_type3app17h98cc6d739ac25ba1E+0x96>
   1734e:	4505                	li	a0,1
   17350:	c911                	beqz	a0,17364 <_ZN20complex_dynamic_type3app17h98cc6d739ac25ba1E+0x9e>
   17352:	a0ad                	j	173bc <_ZN20complex_dynamic_type3app17h98cc6d739ac25ba1E+0xf6>
   17354:	458d                	li	a1,3
   17356:	4505                	li	a0,1
   17358:	c511                	beqz	a0,17364 <_ZN20complex_dynamic_type3app17h98cc6d739ac25ba1E+0x9e>
   1735a:	a08d                	j	173bc <_ZN20complex_dynamic_type3app17h98cc6d739ac25ba1E+0xf6>
   1735c:	4501                	li	a0,0
   1735e:	02c10da3          	sb	a2,59(sp)
   17362:	ed29                	bnez	a0,173bc <_ZN20complex_dynamic_type3app17h98cc6d739ac25ba1E+0xf6>
   17364:	4681                	li	a3,0
   17366:	6509                	lui	a0,0x2
   17368:	4591                	li	a1,4
   1736a:	4625                	li	a2,9
   1736c:	4709                	li	a4,2
   1736e:	9d650513          	addi	a0,a0,-1578 # 19d6 <.Lline_table_start1+0x17ab>
   17372:	07f00493          	li	s1,127
   17376:	00000073          	ecall
   1737a:	4689                	li	a3,2
   1737c:	04a4f063          	bgeu	s1,a0,173bc <_ZN20complex_dynamic_type3app17h98cc6d739ac25ba1E+0xf6>
   17380:	00814603          	lbu	a2,8(sp)
   17384:	00d60a63          	beq	a2,a3,17398 <_ZN20complex_dynamic_type3app17h98cc6d739ac25ba1E+0xd2>
   17388:	6509                	lui	a0,0x2
   1738a:	9d650513          	addi	a0,a0,-1578 # 19d6 <.Lline_table_start1+0x17ab>
   1738e:	4591                	li	a1,4
   17390:	00009097          	auipc	ra,0x9
   17394:	814080e7          	jalr	-2028(ra) # 1fba4 <_ZN9allow_pin12dynamic_type7unshare17h0269127f30dbe29bE>
   17398:	03b14603          	lbu	a2,59(sp)
   1739c:	4409                	li	s0,2
   1739e:	00810423          	sb	s0,8(sp)
   173a2:	00860a63          	beq	a2,s0,173b6 <_ZN20complex_dynamic_type3app17h98cc6d739ac25ba1E+0xf0>
   173a6:	6509                	lui	a0,0x2
   173a8:	9d650513          	addi	a0,a0,-1578 # 19d6 <.Lline_table_start1+0x17ab>
   173ac:	45a5                	li	a1,9
   173ae:	00008097          	auipc	ra,0x8
   173b2:	7f6080e7          	jalr	2038(ra) # 1fba4 <_ZN9allow_pin12dynamic_type7unshare17h0269127f30dbe29bE>
   173b6:	4781                	li	a5,0
   173b8:	02810da3          	sb	s0,59(sp)
   173bc:	cb85                	beqz	a5,173ec <_ZN20complex_dynamic_type3app17h98cc6d739ac25ba1E+0x126>
   173be:	03b14603          	lbu	a2,59(sp)
   173c2:	4505                	li	a0,1
   173c4:	4409                	li	s0,2
   173c6:	00a90023          	sb	a0,0(s2)
   173ca:	00b92223          	sw	a1,4(s2)
   173ce:	00860a63          	beq	a2,s0,173e2 <_ZN20complex_dynamic_type3app17h98cc6d739ac25ba1E+0x11c>
   173d2:	6509                	lui	a0,0x2
   173d4:	9d650513          	addi	a0,a0,-1578 # 19d6 <.Lline_table_start1+0x17ab>
   173d8:	45a5                	li	a1,9
   173da:	00008097          	auipc	ra,0x8
   173de:	7ca080e7          	jalr	1994(ra) # 1fba4 <_ZN9allow_pin12dynamic_type7unshare17h0269127f30dbe29bE>
   173e2:	00814603          	lbu	a2,8(sp)
   173e6:	04861663          	bne	a2,s0,17432 <_ZN20complex_dynamic_type3app17h98cc6d739ac25ba1E+0x16c>
   173ea:	a8a1                	j	17442 <_ZN20complex_dynamic_type3app17h98cc6d739ac25ba1E+0x17c>
   173ec:	03b14403          	lbu	s0,59(sp)
   173f0:	4489                	li	s1,2
   173f2:	00940663          	beq	s0,s1,173fe <_ZN20complex_dynamic_type3app17h98cc6d739ac25ba1E+0x138>
   173f6:	000119b7          	lui	s3,0x11
   173fa:	8c198993          	addi	s3,s3,-1855 # 108c1 <.Lanon.49c9f8067fe4468184af16d7576940c9.39+0x48>
   173fe:	00190513          	addi	a0,s2,1
   17402:	4641                	li	a2,16
   17404:	85ce                	mv	a1,s3
   17406:	00009097          	auipc	ra,0x9
   1740a:	816080e7          	jalr	-2026(ra) # 1fc1c <memcpy>
   1740e:	00090023          	sb	zero,0(s2)
   17412:	00940b63          	beq	s0,s1,17428 <_ZN20complex_dynamic_type3app17h98cc6d739ac25ba1E+0x162>
   17416:	6509                	lui	a0,0x2
   17418:	9d650513          	addi	a0,a0,-1578 # 19d6 <.Lline_table_start1+0x17ab>
   1741c:	45a5                	li	a1,9
   1741e:	8622                	mv	a2,s0
   17420:	00008097          	auipc	ra,0x8
   17424:	784080e7          	jalr	1924(ra) # 1fba4 <_ZN9allow_pin12dynamic_type7unshare17h0269127f30dbe29bE>
   17428:	00814603          	lbu	a2,8(sp)
   1742c:	4509                	li	a0,2
   1742e:	00a60a63          	beq	a2,a0,17442 <_ZN20complex_dynamic_type3app17h98cc6d739ac25ba1E+0x17c>
   17432:	6509                	lui	a0,0x2
   17434:	9d650513          	addi	a0,a0,-1578 # 19d6 <.Lline_table_start1+0x17ab>
   17438:	4591                	li	a1,4
   1743a:	00008097          	auipc	ra,0x8
   1743e:	76a080e7          	jalr	1898(ra) # 1fba4 <_ZN9allow_pin12dynamic_type7unshare17h0269127f30dbe29bE>
   17442:	40f6                	lw	ra,92(sp)
   17444:	4466                	lw	s0,88(sp)
   17446:	44d6                	lw	s1,84(sp)
   17448:	4946                	lw	s2,80(sp)
   1744a:	49b6                	lw	s3,76(sp)
   1744c:	6125                	addi	sp,sp,96
   1744e:	8082                	ret

00017450 <_ZN20complex_dynamic_type3app17h9b2331a48536270dE>:
   17450:	7135                	addi	sp,sp,-160
   17452:	cf06                	sw	ra,156(sp)
   17454:	cd22                	sw	s0,152(sp)
   17456:	cb26                	sw	s1,148(sp)
   17458:	c94a                	sw	s2,144(sp)
   1745a:	c74e                	sw	s3,140(sp)
   1745c:	892a                	mv	s2,a0
   1745e:	4489                	li	s1,2
   17460:	009100a3          	sb	s1,1(sp)
   17464:	00210413          	addi	s0,sp,2
   17468:	04d00613          	li	a2,77
   1746c:	8522                	mv	a0,s0
   1746e:	00008097          	auipc	ra,0x8
   17472:	7ae080e7          	jalr	1966(ra) # 1fc1c <memcpy>
   17476:	05010993          	addi	s3,sp,80
   1747a:	03c00613          	li	a2,60
   1747e:	854e                	mv	a0,s3
   17480:	4581                	li	a1,0
   17482:	00008097          	auipc	ra,0x8
   17486:	72e080e7          	jalr	1838(ra) # 1fbb0 <memset>
   1748a:	8622                	mv	a2,s0
   1748c:	049107a3          	sb	s1,79(sp)
   17490:	6509                	lui	a0,0x2
   17492:	4791                	li	a5,4
   17494:	4591                	li	a1,4
   17496:	1ab50513          	addi	a0,a0,427 # 21ab <.Lline_table_start1+0x1f80>
   1749a:	04d00693          	li	a3,77
   1749e:	4711                	li	a4,4
   174a0:	00000073          	ecall
   174a4:	00950463          	beq	a0,s1,174ac <_ZN20complex_dynamic_type3app17h9b2331a48536270dE+0x5c>
   174a8:	00f100a3          	sb	a5,1(sp)
   174ac:	4609                	li	a2,2
   174ae:	00c51463          	bne	a0,a2,174b6 <_ZN20complex_dynamic_type3app17h9b2331a48536270dE+0x66>
   174b2:	4785                	li	a5,1
   174b4:	a859                	j	1754a <_ZN20complex_dynamic_type3app17h9b2331a48536270dE+0xfa>
   174b6:	04f14503          	lbu	a0,79(sp)
   174ba:	4785                	li	a5,1
   174bc:	02c51363          	bne	a0,a2,174e2 <_ZN20complex_dynamic_type3app17h9b2331a48536270dE+0x92>
   174c0:	864e                	mv	a2,s3
   174c2:	6509                	lui	a0,0x2
   174c4:	45a5                	li	a1,9
   174c6:	03c00693          	li	a3,60
   174ca:	470d                	li	a4,3
   174cc:	1ab50513          	addi	a0,a0,427 # 21ab <.Lline_table_start1+0x1f80>
   174d0:	4489                	li	s1,2
   174d2:	00000073          	ecall
   174d6:	460d                	li	a2,3
   174d8:	00951963          	bne	a0,s1,174ea <_ZN20complex_dynamic_type3app17h9b2331a48536270dE+0x9a>
   174dc:	4505                	li	a0,1
   174de:	c911                	beqz	a0,174f2 <_ZN20complex_dynamic_type3app17h9b2331a48536270dE+0xa2>
   174e0:	a0ad                	j	1754a <_ZN20complex_dynamic_type3app17h9b2331a48536270dE+0xfa>
   174e2:	458d                	li	a1,3
   174e4:	4505                	li	a0,1
   174e6:	c511                	beqz	a0,174f2 <_ZN20complex_dynamic_type3app17h9b2331a48536270dE+0xa2>
   174e8:	a08d                	j	1754a <_ZN20complex_dynamic_type3app17h9b2331a48536270dE+0xfa>
   174ea:	4501                	li	a0,0
   174ec:	04c107a3          	sb	a2,79(sp)
   174f0:	ed29                	bnez	a0,1754a <_ZN20complex_dynamic_type3app17h9b2331a48536270dE+0xfa>
   174f2:	4681                	li	a3,0
   174f4:	6509                	lui	a0,0x2
   174f6:	4591                	li	a1,4
   174f8:	4625                	li	a2,9
   174fa:	4709                	li	a4,2
   174fc:	1ab50513          	addi	a0,a0,427 # 21ab <.Lline_table_start1+0x1f80>
   17500:	07f00493          	li	s1,127
   17504:	00000073          	ecall
   17508:	4689                	li	a3,2
   1750a:	04a4f063          	bgeu	s1,a0,1754a <_ZN20complex_dynamic_type3app17h9b2331a48536270dE+0xfa>
   1750e:	00114603          	lbu	a2,1(sp)
   17512:	00d60a63          	beq	a2,a3,17526 <_ZN20complex_dynamic_type3app17h9b2331a48536270dE+0xd6>
   17516:	6509                	lui	a0,0x2
   17518:	1ab50513          	addi	a0,a0,427 # 21ab <.Lline_table_start1+0x1f80>
   1751c:	4591                	li	a1,4
   1751e:	00008097          	auipc	ra,0x8
   17522:	686080e7          	jalr	1670(ra) # 1fba4 <_ZN9allow_pin12dynamic_type7unshare17h0269127f30dbe29bE>
   17526:	04f14603          	lbu	a2,79(sp)
   1752a:	4409                	li	s0,2
   1752c:	008100a3          	sb	s0,1(sp)
   17530:	00860a63          	beq	a2,s0,17544 <_ZN20complex_dynamic_type3app17h9b2331a48536270dE+0xf4>
   17534:	6509                	lui	a0,0x2
   17536:	1ab50513          	addi	a0,a0,427 # 21ab <.Lline_table_start1+0x1f80>
   1753a:	45a5                	li	a1,9
   1753c:	00008097          	auipc	ra,0x8
   17540:	668080e7          	jalr	1640(ra) # 1fba4 <_ZN9allow_pin12dynamic_type7unshare17h0269127f30dbe29bE>
   17544:	4781                	li	a5,0
   17546:	048107a3          	sb	s0,79(sp)
   1754a:	cb85                	beqz	a5,1757a <_ZN20complex_dynamic_type3app17h9b2331a48536270dE+0x12a>
   1754c:	04f14603          	lbu	a2,79(sp)
   17550:	4505                	li	a0,1
   17552:	4409                	li	s0,2
   17554:	00a90023          	sb	a0,0(s2)
   17558:	00b92223          	sw	a1,4(s2)
   1755c:	00860a63          	beq	a2,s0,17570 <_ZN20complex_dynamic_type3app17h9b2331a48536270dE+0x120>
   17560:	6509                	lui	a0,0x2
   17562:	1ab50513          	addi	a0,a0,427 # 21ab <.Lline_table_start1+0x1f80>
   17566:	45a5                	li	a1,9
   17568:	00008097          	auipc	ra,0x8
   1756c:	63c080e7          	jalr	1596(ra) # 1fba4 <_ZN9allow_pin12dynamic_type7unshare17h0269127f30dbe29bE>
   17570:	00114603          	lbu	a2,1(sp)
   17574:	04861763          	bne	a2,s0,175c2 <_ZN20complex_dynamic_type3app17h9b2331a48536270dE+0x172>
   17578:	a8a9                	j	175d2 <_ZN20complex_dynamic_type3app17h9b2331a48536270dE+0x182>
   1757a:	04f14403          	lbu	s0,79(sp)
   1757e:	4489                	li	s1,2
   17580:	00940663          	beq	s0,s1,1758c <_ZN20complex_dynamic_type3app17h9b2331a48536270dE+0x13c>
   17584:	000109b7          	lui	s3,0x10
   17588:	64e98993          	addi	s3,s3,1614 # 1064e <.Lanon.49c9f8067fe4468184af16d7576940c9.28>
   1758c:	00190513          	addi	a0,s2,1
   17590:	03c00613          	li	a2,60
   17594:	85ce                	mv	a1,s3
   17596:	00008097          	auipc	ra,0x8
   1759a:	686080e7          	jalr	1670(ra) # 1fc1c <memcpy>
   1759e:	00090023          	sb	zero,0(s2)
   175a2:	00940b63          	beq	s0,s1,175b8 <_ZN20complex_dynamic_type3app17h9b2331a48536270dE+0x168>
   175a6:	6509                	lui	a0,0x2
   175a8:	1ab50513          	addi	a0,a0,427 # 21ab <.Lline_table_start1+0x1f80>
   175ac:	45a5                	li	a1,9
   175ae:	8622                	mv	a2,s0
   175b0:	00008097          	auipc	ra,0x8
   175b4:	5f4080e7          	jalr	1524(ra) # 1fba4 <_ZN9allow_pin12dynamic_type7unshare17h0269127f30dbe29bE>
   175b8:	00114603          	lbu	a2,1(sp)
   175bc:	4509                	li	a0,2
   175be:	00a60a63          	beq	a2,a0,175d2 <_ZN20complex_dynamic_type3app17h9b2331a48536270dE+0x182>
   175c2:	6509                	lui	a0,0x2
   175c4:	1ab50513          	addi	a0,a0,427 # 21ab <.Lline_table_start1+0x1f80>
   175c8:	4591                	li	a1,4
   175ca:	00008097          	auipc	ra,0x8
   175ce:	5da080e7          	jalr	1498(ra) # 1fba4 <_ZN9allow_pin12dynamic_type7unshare17h0269127f30dbe29bE>
   175d2:	40fa                	lw	ra,156(sp)
   175d4:	446a                	lw	s0,152(sp)
   175d6:	44da                	lw	s1,148(sp)
   175d8:	494a                	lw	s2,144(sp)
   175da:	49ba                	lw	s3,140(sp)
   175dc:	610d                	addi	sp,sp,160
   175de:	8082                	ret

000175e0 <_ZN20complex_dynamic_type3app17h9f95253d8286929fE>:
   175e0:	711d                	addi	sp,sp,-96
   175e2:	ce86                	sw	ra,92(sp)
   175e4:	cca2                	sw	s0,88(sp)
   175e6:	caa6                	sw	s1,84(sp)
   175e8:	c8ca                	sw	s2,80(sp)
   175ea:	c6ce                	sw	s3,76(sp)
   175ec:	892a                	mv	s2,a0
   175ee:	4489                	li	s1,2
   175f0:	009107a3          	sb	s1,15(sp)
   175f4:	0800                	addi	s0,sp,16
   175f6:	02700613          	li	a2,39
   175fa:	8522                	mv	a0,s0
   175fc:	00008097          	auipc	ra,0x8
   17600:	620080e7          	jalr	1568(ra) # 1fc1c <memcpy>
   17604:	03810993          	addi	s3,sp,56
   17608:	4651                	li	a2,20
   1760a:	854e                	mv	a0,s3
   1760c:	4581                	li	a1,0
   1760e:	00008097          	auipc	ra,0x8
   17612:	5a2080e7          	jalr	1442(ra) # 1fbb0 <memset>
   17616:	8622                	mv	a2,s0
   17618:	02910ba3          	sb	s1,55(sp)
   1761c:	6509                	lui	a0,0x2
   1761e:	4791                	li	a5,4
   17620:	4599                	li	a1,6
   17622:	2c950513          	addi	a0,a0,713 # 22c9 <.Lline_table_start1+0x209e>
   17626:	02700693          	li	a3,39
   1762a:	4711                	li	a4,4
   1762c:	00000073          	ecall
   17630:	00950463          	beq	a0,s1,17638 <_ZN20complex_dynamic_type3app17h9f95253d8286929fE+0x58>
   17634:	00f107a3          	sb	a5,15(sp)
   17638:	4609                	li	a2,2
   1763a:	00c51463          	bne	a0,a2,17642 <_ZN20complex_dynamic_type3app17h9f95253d8286929fE+0x62>
   1763e:	4785                	li	a5,1
   17640:	a851                	j	176d4 <_ZN20complex_dynamic_type3app17h9f95253d8286929fE+0xf4>
   17642:	03714503          	lbu	a0,55(sp)
   17646:	4785                	li	a5,1
   17648:	02c51263          	bne	a0,a2,1766c <_ZN20complex_dynamic_type3app17h9f95253d8286929fE+0x8c>
   1764c:	864e                	mv	a2,s3
   1764e:	6509                	lui	a0,0x2
   17650:	4595                	li	a1,5
   17652:	46d1                	li	a3,20
   17654:	470d                	li	a4,3
   17656:	2c950513          	addi	a0,a0,713 # 22c9 <.Lline_table_start1+0x209e>
   1765a:	4489                	li	s1,2
   1765c:	00000073          	ecall
   17660:	460d                	li	a2,3
   17662:	00951963          	bne	a0,s1,17674 <_ZN20complex_dynamic_type3app17h9f95253d8286929fE+0x94>
   17666:	4505                	li	a0,1
   17668:	c911                	beqz	a0,1767c <_ZN20complex_dynamic_type3app17h9f95253d8286929fE+0x9c>
   1766a:	a0ad                	j	176d4 <_ZN20complex_dynamic_type3app17h9f95253d8286929fE+0xf4>
   1766c:	458d                	li	a1,3
   1766e:	4505                	li	a0,1
   17670:	c511                	beqz	a0,1767c <_ZN20complex_dynamic_type3app17h9f95253d8286929fE+0x9c>
   17672:	a08d                	j	176d4 <_ZN20complex_dynamic_type3app17h9f95253d8286929fE+0xf4>
   17674:	4501                	li	a0,0
   17676:	02c10ba3          	sb	a2,55(sp)
   1767a:	ed29                	bnez	a0,176d4 <_ZN20complex_dynamic_type3app17h9f95253d8286929fE+0xf4>
   1767c:	4681                	li	a3,0
   1767e:	6509                	lui	a0,0x2
   17680:	4599                	li	a1,6
   17682:	4615                	li	a2,5
   17684:	4709                	li	a4,2
   17686:	2c950513          	addi	a0,a0,713 # 22c9 <.Lline_table_start1+0x209e>
   1768a:	07f00493          	li	s1,127
   1768e:	00000073          	ecall
   17692:	4689                	li	a3,2
   17694:	04a4f063          	bgeu	s1,a0,176d4 <_ZN20complex_dynamic_type3app17h9f95253d8286929fE+0xf4>
   17698:	00f14603          	lbu	a2,15(sp)
   1769c:	00d60a63          	beq	a2,a3,176b0 <_ZN20complex_dynamic_type3app17h9f95253d8286929fE+0xd0>
   176a0:	6509                	lui	a0,0x2
   176a2:	2c950513          	addi	a0,a0,713 # 22c9 <.Lline_table_start1+0x209e>
   176a6:	4599                	li	a1,6
   176a8:	00008097          	auipc	ra,0x8
   176ac:	4fc080e7          	jalr	1276(ra) # 1fba4 <_ZN9allow_pin12dynamic_type7unshare17h0269127f30dbe29bE>
   176b0:	03714603          	lbu	a2,55(sp)
   176b4:	4409                	li	s0,2
   176b6:	008107a3          	sb	s0,15(sp)
   176ba:	00860a63          	beq	a2,s0,176ce <_ZN20complex_dynamic_type3app17h9f95253d8286929fE+0xee>
   176be:	6509                	lui	a0,0x2
   176c0:	2c950513          	addi	a0,a0,713 # 22c9 <.Lline_table_start1+0x209e>
   176c4:	4595                	li	a1,5
   176c6:	00008097          	auipc	ra,0x8
   176ca:	4de080e7          	jalr	1246(ra) # 1fba4 <_ZN9allow_pin12dynamic_type7unshare17h0269127f30dbe29bE>
   176ce:	4781                	li	a5,0
   176d0:	02810ba3          	sb	s0,55(sp)
   176d4:	cb85                	beqz	a5,17704 <_ZN20complex_dynamic_type3app17h9f95253d8286929fE+0x124>
   176d6:	03714603          	lbu	a2,55(sp)
   176da:	4505                	li	a0,1
   176dc:	4409                	li	s0,2
   176de:	00a90023          	sb	a0,0(s2)
   176e2:	00b92223          	sw	a1,4(s2)
   176e6:	00860a63          	beq	a2,s0,176fa <_ZN20complex_dynamic_type3app17h9f95253d8286929fE+0x11a>
   176ea:	6509                	lui	a0,0x2
   176ec:	2c950513          	addi	a0,a0,713 # 22c9 <.Lline_table_start1+0x209e>
   176f0:	4595                	li	a1,5
   176f2:	00008097          	auipc	ra,0x8
   176f6:	4b2080e7          	jalr	1202(ra) # 1fba4 <_ZN9allow_pin12dynamic_type7unshare17h0269127f30dbe29bE>
   176fa:	00f14603          	lbu	a2,15(sp)
   176fe:	04861663          	bne	a2,s0,1774a <_ZN20complex_dynamic_type3app17h9f95253d8286929fE+0x16a>
   17702:	a8a1                	j	1775a <_ZN20complex_dynamic_type3app17h9f95253d8286929fE+0x17a>
   17704:	03714403          	lbu	s0,55(sp)
   17708:	4489                	li	s1,2
   1770a:	00940663          	beq	s0,s1,17716 <_ZN20complex_dynamic_type3app17h9f95253d8286929fE+0x136>
   1770e:	000119b7          	lui	s3,0x11
   17712:	86598993          	addi	s3,s3,-1947 # 10865 <.Lanon.49c9f8067fe4468184af16d7576940c9.38>
   17716:	00190513          	addi	a0,s2,1
   1771a:	4651                	li	a2,20
   1771c:	85ce                	mv	a1,s3
   1771e:	00008097          	auipc	ra,0x8
   17722:	4fe080e7          	jalr	1278(ra) # 1fc1c <memcpy>
   17726:	00090023          	sb	zero,0(s2)
   1772a:	00940b63          	beq	s0,s1,17740 <_ZN20complex_dynamic_type3app17h9f95253d8286929fE+0x160>
   1772e:	6509                	lui	a0,0x2
   17730:	2c950513          	addi	a0,a0,713 # 22c9 <.Lline_table_start1+0x209e>
   17734:	4595                	li	a1,5
   17736:	8622                	mv	a2,s0
   17738:	00008097          	auipc	ra,0x8
   1773c:	46c080e7          	jalr	1132(ra) # 1fba4 <_ZN9allow_pin12dynamic_type7unshare17h0269127f30dbe29bE>
   17740:	00f14603          	lbu	a2,15(sp)
   17744:	4509                	li	a0,2
   17746:	00a60a63          	beq	a2,a0,1775a <_ZN20complex_dynamic_type3app17h9f95253d8286929fE+0x17a>
   1774a:	6509                	lui	a0,0x2
   1774c:	2c950513          	addi	a0,a0,713 # 22c9 <.Lline_table_start1+0x209e>
   17750:	4599                	li	a1,6
   17752:	00008097          	auipc	ra,0x8
   17756:	452080e7          	jalr	1106(ra) # 1fba4 <_ZN9allow_pin12dynamic_type7unshare17h0269127f30dbe29bE>
   1775a:	40f6                	lw	ra,92(sp)
   1775c:	4466                	lw	s0,88(sp)
   1775e:	44d6                	lw	s1,84(sp)
   17760:	4946                	lw	s2,80(sp)
   17762:	49b6                	lw	s3,76(sp)
   17764:	6125                	addi	sp,sp,96
   17766:	8082                	ret

00017768 <_ZN20complex_dynamic_type3app17ha23fcd66fcf62993E>:
   17768:	7159                	addi	sp,sp,-112
   1776a:	d686                	sw	ra,108(sp)
   1776c:	d4a2                	sw	s0,104(sp)
   1776e:	d2a6                	sw	s1,100(sp)
   17770:	d0ca                	sw	s2,96(sp)
   17772:	cece                	sw	s3,92(sp)
   17774:	892a                	mv	s2,a0
   17776:	4489                	li	s1,2
   17778:	00910223          	sb	s1,4(sp)
   1777c:	00510413          	addi	s0,sp,5
   17780:	02c00613          	li	a2,44
   17784:	8522                	mv	a0,s0
   17786:	00008097          	auipc	ra,0x8
   1778a:	496080e7          	jalr	1174(ra) # 1fc1c <memcpy>
   1778e:	03210993          	addi	s3,sp,50
   17792:	02a00613          	li	a2,42
   17796:	854e                	mv	a0,s3
   17798:	4581                	li	a1,0
   1779a:	00008097          	auipc	ra,0x8
   1779e:	416080e7          	jalr	1046(ra) # 1fbb0 <memset>
   177a2:	8622                	mv	a2,s0
   177a4:	029108a3          	sb	s1,49(sp)
   177a8:	6509                	lui	a0,0x2
   177aa:	4791                	li	a5,4
   177ac:	458d                	li	a1,3
   177ae:	4f050513          	addi	a0,a0,1264 # 24f0 <.Lline_table_start1+0x22c5>
   177b2:	02c00693          	li	a3,44
   177b6:	4711                	li	a4,4
   177b8:	00000073          	ecall
   177bc:	00950463          	beq	a0,s1,177c4 <_ZN20complex_dynamic_type3app17ha23fcd66fcf62993E+0x5c>
   177c0:	00f10223          	sb	a5,4(sp)
   177c4:	4609                	li	a2,2
   177c6:	00c51463          	bne	a0,a2,177ce <_ZN20complex_dynamic_type3app17ha23fcd66fcf62993E+0x66>
   177ca:	4785                	li	a5,1
   177cc:	a859                	j	17862 <_ZN20complex_dynamic_type3app17ha23fcd66fcf62993E+0xfa>
   177ce:	03114503          	lbu	a0,49(sp)
   177d2:	4785                	li	a5,1
   177d4:	02c51363          	bne	a0,a2,177fa <_ZN20complex_dynamic_type3app17ha23fcd66fcf62993E+0x92>
   177d8:	4581                	li	a1,0
   177da:	864e                	mv	a2,s3
   177dc:	6509                	lui	a0,0x2
   177de:	02a00693          	li	a3,42
   177e2:	470d                	li	a4,3
   177e4:	4f050513          	addi	a0,a0,1264 # 24f0 <.Lline_table_start1+0x22c5>
   177e8:	4489                	li	s1,2
   177ea:	00000073          	ecall
   177ee:	460d                	li	a2,3
   177f0:	00951963          	bne	a0,s1,17802 <_ZN20complex_dynamic_type3app17ha23fcd66fcf62993E+0x9a>
   177f4:	4505                	li	a0,1
   177f6:	c911                	beqz	a0,1780a <_ZN20complex_dynamic_type3app17ha23fcd66fcf62993E+0xa2>
   177f8:	a0ad                	j	17862 <_ZN20complex_dynamic_type3app17ha23fcd66fcf62993E+0xfa>
   177fa:	458d                	li	a1,3
   177fc:	4505                	li	a0,1
   177fe:	c511                	beqz	a0,1780a <_ZN20complex_dynamic_type3app17ha23fcd66fcf62993E+0xa2>
   17800:	a08d                	j	17862 <_ZN20complex_dynamic_type3app17ha23fcd66fcf62993E+0xfa>
   17802:	4501                	li	a0,0
   17804:	02c108a3          	sb	a2,49(sp)
   17808:	ed29                	bnez	a0,17862 <_ZN20complex_dynamic_type3app17ha23fcd66fcf62993E+0xfa>
   1780a:	4601                	li	a2,0
   1780c:	4681                	li	a3,0
   1780e:	6509                	lui	a0,0x2
   17810:	458d                	li	a1,3
   17812:	4709                	li	a4,2
   17814:	4f050513          	addi	a0,a0,1264 # 24f0 <.Lline_table_start1+0x22c5>
   17818:	07f00493          	li	s1,127
   1781c:	00000073          	ecall
   17820:	4689                	li	a3,2
   17822:	04a4f063          	bgeu	s1,a0,17862 <_ZN20complex_dynamic_type3app17ha23fcd66fcf62993E+0xfa>
   17826:	00414603          	lbu	a2,4(sp)
   1782a:	00d60a63          	beq	a2,a3,1783e <_ZN20complex_dynamic_type3app17ha23fcd66fcf62993E+0xd6>
   1782e:	6509                	lui	a0,0x2
   17830:	4f050513          	addi	a0,a0,1264 # 24f0 <.Lline_table_start1+0x22c5>
   17834:	458d                	li	a1,3
   17836:	00008097          	auipc	ra,0x8
   1783a:	36e080e7          	jalr	878(ra) # 1fba4 <_ZN9allow_pin12dynamic_type7unshare17h0269127f30dbe29bE>
   1783e:	03114603          	lbu	a2,49(sp)
   17842:	4409                	li	s0,2
   17844:	00810223          	sb	s0,4(sp)
   17848:	00860a63          	beq	a2,s0,1785c <_ZN20complex_dynamic_type3app17ha23fcd66fcf62993E+0xf4>
   1784c:	6509                	lui	a0,0x2
   1784e:	4f050513          	addi	a0,a0,1264 # 24f0 <.Lline_table_start1+0x22c5>
   17852:	4581                	li	a1,0
   17854:	00008097          	auipc	ra,0x8
   17858:	350080e7          	jalr	848(ra) # 1fba4 <_ZN9allow_pin12dynamic_type7unshare17h0269127f30dbe29bE>
   1785c:	4781                	li	a5,0
   1785e:	028108a3          	sb	s0,49(sp)
   17862:	cb85                	beqz	a5,17892 <_ZN20complex_dynamic_type3app17ha23fcd66fcf62993E+0x12a>
   17864:	03114603          	lbu	a2,49(sp)
   17868:	4505                	li	a0,1
   1786a:	4409                	li	s0,2
   1786c:	00a90023          	sb	a0,0(s2)
   17870:	00b92223          	sw	a1,4(s2)
   17874:	00860a63          	beq	a2,s0,17888 <_ZN20complex_dynamic_type3app17ha23fcd66fcf62993E+0x120>
   17878:	6509                	lui	a0,0x2
   1787a:	4f050513          	addi	a0,a0,1264 # 24f0 <.Lline_table_start1+0x22c5>
   1787e:	4581                	li	a1,0
   17880:	00008097          	auipc	ra,0x8
   17884:	324080e7          	jalr	804(ra) # 1fba4 <_ZN9allow_pin12dynamic_type7unshare17h0269127f30dbe29bE>
   17888:	00414603          	lbu	a2,4(sp)
   1788c:	04861763          	bne	a2,s0,178da <_ZN20complex_dynamic_type3app17ha23fcd66fcf62993E+0x172>
   17890:	a8a9                	j	178ea <_ZN20complex_dynamic_type3app17ha23fcd66fcf62993E+0x182>
   17892:	03114403          	lbu	s0,49(sp)
   17896:	4489                	li	s1,2
   17898:	00940663          	beq	s0,s1,178a4 <_ZN20complex_dynamic_type3app17ha23fcd66fcf62993E+0x13c>
   1789c:	000109b7          	lui	s3,0x10
   178a0:	2e098993          	addi	s3,s3,736 # 102e0 <.Lanon.49c9f8067fe4468184af16d7576940c9.7>
   178a4:	00190513          	addi	a0,s2,1
   178a8:	02a00613          	li	a2,42
   178ac:	85ce                	mv	a1,s3
   178ae:	00008097          	auipc	ra,0x8
   178b2:	36e080e7          	jalr	878(ra) # 1fc1c <memcpy>
   178b6:	00090023          	sb	zero,0(s2)
   178ba:	00940b63          	beq	s0,s1,178d0 <_ZN20complex_dynamic_type3app17ha23fcd66fcf62993E+0x168>
   178be:	6509                	lui	a0,0x2
   178c0:	4f050513          	addi	a0,a0,1264 # 24f0 <.Lline_table_start1+0x22c5>
   178c4:	4581                	li	a1,0
   178c6:	8622                	mv	a2,s0
   178c8:	00008097          	auipc	ra,0x8
   178cc:	2dc080e7          	jalr	732(ra) # 1fba4 <_ZN9allow_pin12dynamic_type7unshare17h0269127f30dbe29bE>
   178d0:	00414603          	lbu	a2,4(sp)
   178d4:	4509                	li	a0,2
   178d6:	00a60a63          	beq	a2,a0,178ea <_ZN20complex_dynamic_type3app17ha23fcd66fcf62993E+0x182>
   178da:	6509                	lui	a0,0x2
   178dc:	4f050513          	addi	a0,a0,1264 # 24f0 <.Lline_table_start1+0x22c5>
   178e0:	458d                	li	a1,3
   178e2:	00008097          	auipc	ra,0x8
   178e6:	2c2080e7          	jalr	706(ra) # 1fba4 <_ZN9allow_pin12dynamic_type7unshare17h0269127f30dbe29bE>
   178ea:	50b6                	lw	ra,108(sp)
   178ec:	5426                	lw	s0,104(sp)
   178ee:	5496                	lw	s1,100(sp)
   178f0:	5906                	lw	s2,96(sp)
   178f2:	49f6                	lw	s3,92(sp)
   178f4:	6165                	addi	sp,sp,112
   178f6:	8082                	ret

000178f8 <_ZN20complex_dynamic_type3app17ha24e9420b5753c3fE>:
   178f8:	7159                	addi	sp,sp,-112
   178fa:	d686                	sw	ra,108(sp)
   178fc:	d4a2                	sw	s0,104(sp)
   178fe:	d2a6                	sw	s1,100(sp)
   17900:	d0ca                	sw	s2,96(sp)
   17902:	cece                	sw	s3,92(sp)
   17904:	892a                	mv	s2,a0
   17906:	4489                	li	s1,2
   17908:	00910423          	sb	s1,8(sp)
   1790c:	00910413          	addi	s0,sp,9
   17910:	02a00613          	li	a2,42
   17914:	8522                	mv	a0,s0
   17916:	00008097          	auipc	ra,0x8
   1791a:	306080e7          	jalr	774(ra) # 1fc1c <memcpy>
   1791e:	03410993          	addi	s3,sp,52
   17922:	02800613          	li	a2,40
   17926:	854e                	mv	a0,s3
   17928:	4581                	li	a1,0
   1792a:	00008097          	auipc	ra,0x8
   1792e:	286080e7          	jalr	646(ra) # 1fbb0 <memset>
   17932:	8622                	mv	a2,s0
   17934:	029109a3          	sb	s1,51(sp)
   17938:	6509                	lui	a0,0x2
   1793a:	4791                	li	a5,4
   1793c:	4591                	li	a1,4
   1793e:	efa50513          	addi	a0,a0,-262 # 1efa <.Lline_table_start1+0x1ccf>
   17942:	02a00693          	li	a3,42
   17946:	4711                	li	a4,4
   17948:	00000073          	ecall
   1794c:	00950463          	beq	a0,s1,17954 <_ZN20complex_dynamic_type3app17ha24e9420b5753c3fE+0x5c>
   17950:	00f10423          	sb	a5,8(sp)
   17954:	4609                	li	a2,2
   17956:	00c51463          	bne	a0,a2,1795e <_ZN20complex_dynamic_type3app17ha24e9420b5753c3fE+0x66>
   1795a:	4785                	li	a5,1
   1795c:	a859                	j	179f2 <_ZN20complex_dynamic_type3app17ha24e9420b5753c3fE+0xfa>
   1795e:	03314503          	lbu	a0,51(sp)
   17962:	4785                	li	a5,1
   17964:	02c51363          	bne	a0,a2,1798a <_ZN20complex_dynamic_type3app17ha24e9420b5753c3fE+0x92>
   17968:	864e                	mv	a2,s3
   1796a:	6509                	lui	a0,0x2
   1796c:	45a1                	li	a1,8
   1796e:	02800693          	li	a3,40
   17972:	470d                	li	a4,3
   17974:	efa50513          	addi	a0,a0,-262 # 1efa <.Lline_table_start1+0x1ccf>
   17978:	4489                	li	s1,2
   1797a:	00000073          	ecall
   1797e:	460d                	li	a2,3
   17980:	00951963          	bne	a0,s1,17992 <_ZN20complex_dynamic_type3app17ha24e9420b5753c3fE+0x9a>
   17984:	4505                	li	a0,1
   17986:	c911                	beqz	a0,1799a <_ZN20complex_dynamic_type3app17ha24e9420b5753c3fE+0xa2>
   17988:	a0ad                	j	179f2 <_ZN20complex_dynamic_type3app17ha24e9420b5753c3fE+0xfa>
   1798a:	458d                	li	a1,3
   1798c:	4505                	li	a0,1
   1798e:	c511                	beqz	a0,1799a <_ZN20complex_dynamic_type3app17ha24e9420b5753c3fE+0xa2>
   17990:	a08d                	j	179f2 <_ZN20complex_dynamic_type3app17ha24e9420b5753c3fE+0xfa>
   17992:	4501                	li	a0,0
   17994:	02c109a3          	sb	a2,51(sp)
   17998:	ed29                	bnez	a0,179f2 <_ZN20complex_dynamic_type3app17ha24e9420b5753c3fE+0xfa>
   1799a:	4681                	li	a3,0
   1799c:	6509                	lui	a0,0x2
   1799e:	4591                	li	a1,4
   179a0:	4621                	li	a2,8
   179a2:	4709                	li	a4,2
   179a4:	efa50513          	addi	a0,a0,-262 # 1efa <.Lline_table_start1+0x1ccf>
   179a8:	07f00493          	li	s1,127
   179ac:	00000073          	ecall
   179b0:	4689                	li	a3,2
   179b2:	04a4f063          	bgeu	s1,a0,179f2 <_ZN20complex_dynamic_type3app17ha24e9420b5753c3fE+0xfa>
   179b6:	00814603          	lbu	a2,8(sp)
   179ba:	00d60a63          	beq	a2,a3,179ce <_ZN20complex_dynamic_type3app17ha24e9420b5753c3fE+0xd6>
   179be:	6509                	lui	a0,0x2
   179c0:	efa50513          	addi	a0,a0,-262 # 1efa <.Lline_table_start1+0x1ccf>
   179c4:	4591                	li	a1,4
   179c6:	00008097          	auipc	ra,0x8
   179ca:	1de080e7          	jalr	478(ra) # 1fba4 <_ZN9allow_pin12dynamic_type7unshare17h0269127f30dbe29bE>
   179ce:	03314603          	lbu	a2,51(sp)
   179d2:	4409                	li	s0,2
   179d4:	00810423          	sb	s0,8(sp)
   179d8:	00860a63          	beq	a2,s0,179ec <_ZN20complex_dynamic_type3app17ha24e9420b5753c3fE+0xf4>
   179dc:	6509                	lui	a0,0x2
   179de:	efa50513          	addi	a0,a0,-262 # 1efa <.Lline_table_start1+0x1ccf>
   179e2:	45a1                	li	a1,8
   179e4:	00008097          	auipc	ra,0x8
   179e8:	1c0080e7          	jalr	448(ra) # 1fba4 <_ZN9allow_pin12dynamic_type7unshare17h0269127f30dbe29bE>
   179ec:	4781                	li	a5,0
   179ee:	028109a3          	sb	s0,51(sp)
   179f2:	cb85                	beqz	a5,17a22 <_ZN20complex_dynamic_type3app17ha24e9420b5753c3fE+0x12a>
   179f4:	03314603          	lbu	a2,51(sp)
   179f8:	4505                	li	a0,1
   179fa:	4409                	li	s0,2
   179fc:	00a90023          	sb	a0,0(s2)
   17a00:	00b92223          	sw	a1,4(s2)
   17a04:	00860a63          	beq	a2,s0,17a18 <_ZN20complex_dynamic_type3app17ha24e9420b5753c3fE+0x120>
   17a08:	6509                	lui	a0,0x2
   17a0a:	efa50513          	addi	a0,a0,-262 # 1efa <.Lline_table_start1+0x1ccf>
   17a0e:	45a1                	li	a1,8
   17a10:	00008097          	auipc	ra,0x8
   17a14:	194080e7          	jalr	404(ra) # 1fba4 <_ZN9allow_pin12dynamic_type7unshare17h0269127f30dbe29bE>
   17a18:	00814603          	lbu	a2,8(sp)
   17a1c:	04861763          	bne	a2,s0,17a6a <_ZN20complex_dynamic_type3app17ha24e9420b5753c3fE+0x172>
   17a20:	a8a9                	j	17a7a <_ZN20complex_dynamic_type3app17ha24e9420b5753c3fE+0x182>
   17a22:	03314403          	lbu	s0,51(sp)
   17a26:	4489                	li	s1,2
   17a28:	00940663          	beq	s0,s1,17a34 <_ZN20complex_dynamic_type3app17ha24e9420b5753c3fE+0x13c>
   17a2c:	000109b7          	lui	s3,0x10
   17a30:	3e198993          	addi	s3,s3,993 # 103e1 <.Lanon.49c9f8067fe4468184af16d7576940c9.13>
   17a34:	00190513          	addi	a0,s2,1
   17a38:	02800613          	li	a2,40
   17a3c:	85ce                	mv	a1,s3
   17a3e:	00008097          	auipc	ra,0x8
   17a42:	1de080e7          	jalr	478(ra) # 1fc1c <memcpy>
   17a46:	00090023          	sb	zero,0(s2)
   17a4a:	00940b63          	beq	s0,s1,17a60 <_ZN20complex_dynamic_type3app17ha24e9420b5753c3fE+0x168>
   17a4e:	6509                	lui	a0,0x2
   17a50:	efa50513          	addi	a0,a0,-262 # 1efa <.Lline_table_start1+0x1ccf>
   17a54:	45a1                	li	a1,8
   17a56:	8622                	mv	a2,s0
   17a58:	00008097          	auipc	ra,0x8
   17a5c:	14c080e7          	jalr	332(ra) # 1fba4 <_ZN9allow_pin12dynamic_type7unshare17h0269127f30dbe29bE>
   17a60:	00814603          	lbu	a2,8(sp)
   17a64:	4509                	li	a0,2
   17a66:	00a60a63          	beq	a2,a0,17a7a <_ZN20complex_dynamic_type3app17ha24e9420b5753c3fE+0x182>
   17a6a:	6509                	lui	a0,0x2
   17a6c:	efa50513          	addi	a0,a0,-262 # 1efa <.Lline_table_start1+0x1ccf>
   17a70:	4591                	li	a1,4
   17a72:	00008097          	auipc	ra,0x8
   17a76:	132080e7          	jalr	306(ra) # 1fba4 <_ZN9allow_pin12dynamic_type7unshare17h0269127f30dbe29bE>
   17a7a:	50b6                	lw	ra,108(sp)
   17a7c:	5426                	lw	s0,104(sp)
   17a7e:	5496                	lw	s1,100(sp)
   17a80:	5906                	lw	s2,96(sp)
   17a82:	49f6                	lw	s3,92(sp)
   17a84:	6165                	addi	sp,sp,112
   17a86:	8082                	ret

00017a88 <_ZN20complex_dynamic_type3app17ha56582c005293d59E>:
   17a88:	7175                	addi	sp,sp,-144
   17a8a:	c706                	sw	ra,140(sp)
   17a8c:	c522                	sw	s0,136(sp)
   17a8e:	c326                	sw	s1,132(sp)
   17a90:	c14a                	sw	s2,128(sp)
   17a92:	dece                	sw	s3,124(sp)
   17a94:	892a                	mv	s2,a0
   17a96:	4489                	li	s1,2
   17a98:	00910323          	sb	s1,6(sp)
   17a9c:	00710413          	addi	s0,sp,7
   17aa0:	02100613          	li	a2,33
   17aa4:	8522                	mv	a0,s0
   17aa6:	00008097          	auipc	ra,0x8
   17aaa:	176080e7          	jalr	374(ra) # 1fc1c <memcpy>
   17aae:	02910993          	addi	s3,sp,41
   17ab2:	05300613          	li	a2,83
   17ab6:	854e                	mv	a0,s3
   17ab8:	4581                	li	a1,0
   17aba:	00008097          	auipc	ra,0x8
   17abe:	0f6080e7          	jalr	246(ra) # 1fbb0 <memset>
   17ac2:	8622                	mv	a2,s0
   17ac4:	02910423          	sb	s1,40(sp)
   17ac8:	6509                	lui	a0,0x2
   17aca:	4791                	li	a5,4
   17acc:	4589                	li	a1,2
   17ace:	53e50513          	addi	a0,a0,1342 # 253e <.Lline_table_start1+0x2313>
   17ad2:	02100693          	li	a3,33
   17ad6:	4711                	li	a4,4
   17ad8:	00000073          	ecall
   17adc:	00950463          	beq	a0,s1,17ae4 <_ZN20complex_dynamic_type3app17ha56582c005293d59E+0x5c>
   17ae0:	00f10323          	sb	a5,6(sp)
   17ae4:	4609                	li	a2,2
   17ae6:	00c51463          	bne	a0,a2,17aee <_ZN20complex_dynamic_type3app17ha56582c005293d59E+0x66>
   17aea:	4785                	li	a5,1
   17aec:	a859                	j	17b82 <_ZN20complex_dynamic_type3app17ha56582c005293d59E+0xfa>
   17aee:	02814503          	lbu	a0,40(sp)
   17af2:	4785                	li	a5,1
   17af4:	02c51363          	bne	a0,a2,17b1a <_ZN20complex_dynamic_type3app17ha56582c005293d59E+0x92>
   17af8:	864e                	mv	a2,s3
   17afa:	6509                	lui	a0,0x2
   17afc:	45a1                	li	a1,8
   17afe:	05300693          	li	a3,83
   17b02:	470d                	li	a4,3
   17b04:	53e50513          	addi	a0,a0,1342 # 253e <.Lline_table_start1+0x2313>
   17b08:	4489                	li	s1,2
   17b0a:	00000073          	ecall
   17b0e:	460d                	li	a2,3
   17b10:	00951963          	bne	a0,s1,17b22 <_ZN20complex_dynamic_type3app17ha56582c005293d59E+0x9a>
   17b14:	4505                	li	a0,1
   17b16:	c911                	beqz	a0,17b2a <_ZN20complex_dynamic_type3app17ha56582c005293d59E+0xa2>
   17b18:	a0ad                	j	17b82 <_ZN20complex_dynamic_type3app17ha56582c005293d59E+0xfa>
   17b1a:	458d                	li	a1,3
   17b1c:	4505                	li	a0,1
   17b1e:	c511                	beqz	a0,17b2a <_ZN20complex_dynamic_type3app17ha56582c005293d59E+0xa2>
   17b20:	a08d                	j	17b82 <_ZN20complex_dynamic_type3app17ha56582c005293d59E+0xfa>
   17b22:	4501                	li	a0,0
   17b24:	02c10423          	sb	a2,40(sp)
   17b28:	ed29                	bnez	a0,17b82 <_ZN20complex_dynamic_type3app17ha56582c005293d59E+0xfa>
   17b2a:	4681                	li	a3,0
   17b2c:	6509                	lui	a0,0x2
   17b2e:	4589                	li	a1,2
   17b30:	4621                	li	a2,8
   17b32:	4709                	li	a4,2
   17b34:	53e50513          	addi	a0,a0,1342 # 253e <.Lline_table_start1+0x2313>
   17b38:	07f00493          	li	s1,127
   17b3c:	00000073          	ecall
   17b40:	4689                	li	a3,2
   17b42:	04a4f063          	bgeu	s1,a0,17b82 <_ZN20complex_dynamic_type3app17ha56582c005293d59E+0xfa>
   17b46:	00614603          	lbu	a2,6(sp)
   17b4a:	00d60a63          	beq	a2,a3,17b5e <_ZN20complex_dynamic_type3app17ha56582c005293d59E+0xd6>
   17b4e:	6509                	lui	a0,0x2
   17b50:	53e50513          	addi	a0,a0,1342 # 253e <.Lline_table_start1+0x2313>
   17b54:	4589                	li	a1,2
   17b56:	00008097          	auipc	ra,0x8
   17b5a:	04e080e7          	jalr	78(ra) # 1fba4 <_ZN9allow_pin12dynamic_type7unshare17h0269127f30dbe29bE>
   17b5e:	02814603          	lbu	a2,40(sp)
   17b62:	4409                	li	s0,2
   17b64:	00810323          	sb	s0,6(sp)
   17b68:	00860a63          	beq	a2,s0,17b7c <_ZN20complex_dynamic_type3app17ha56582c005293d59E+0xf4>
   17b6c:	6509                	lui	a0,0x2
   17b6e:	53e50513          	addi	a0,a0,1342 # 253e <.Lline_table_start1+0x2313>
   17b72:	45a1                	li	a1,8
   17b74:	00008097          	auipc	ra,0x8
   17b78:	030080e7          	jalr	48(ra) # 1fba4 <_ZN9allow_pin12dynamic_type7unshare17h0269127f30dbe29bE>
   17b7c:	4781                	li	a5,0
   17b7e:	02810423          	sb	s0,40(sp)
   17b82:	cb85                	beqz	a5,17bb2 <_ZN20complex_dynamic_type3app17ha56582c005293d59E+0x12a>
   17b84:	02814603          	lbu	a2,40(sp)
   17b88:	4505                	li	a0,1
   17b8a:	4409                	li	s0,2
   17b8c:	00a90023          	sb	a0,0(s2)
   17b90:	00b92223          	sw	a1,4(s2)
   17b94:	00860a63          	beq	a2,s0,17ba8 <_ZN20complex_dynamic_type3app17ha56582c005293d59E+0x120>
   17b98:	6509                	lui	a0,0x2
   17b9a:	53e50513          	addi	a0,a0,1342 # 253e <.Lline_table_start1+0x2313>
   17b9e:	45a1                	li	a1,8
   17ba0:	00008097          	auipc	ra,0x8
   17ba4:	004080e7          	jalr	4(ra) # 1fba4 <_ZN9allow_pin12dynamic_type7unshare17h0269127f30dbe29bE>
   17ba8:	00614603          	lbu	a2,6(sp)
   17bac:	04861763          	bne	a2,s0,17bfa <_ZN20complex_dynamic_type3app17ha56582c005293d59E+0x172>
   17bb0:	a8a9                	j	17c0a <_ZN20complex_dynamic_type3app17ha56582c005293d59E+0x182>
   17bb2:	02814403          	lbu	s0,40(sp)
   17bb6:	4489                	li	s1,2
   17bb8:	00940663          	beq	s0,s1,17bc4 <_ZN20complex_dynamic_type3app17ha56582c005293d59E+0x13c>
   17bbc:	000109b7          	lui	s3,0x10
   17bc0:	68a98993          	addi	s3,s3,1674 # 1068a <.Lanon.49c9f8067fe4468184af16d7576940c9.29>
   17bc4:	00190513          	addi	a0,s2,1
   17bc8:	05300613          	li	a2,83
   17bcc:	85ce                	mv	a1,s3
   17bce:	00008097          	auipc	ra,0x8
   17bd2:	04e080e7          	jalr	78(ra) # 1fc1c <memcpy>
   17bd6:	00090023          	sb	zero,0(s2)
   17bda:	00940b63          	beq	s0,s1,17bf0 <_ZN20complex_dynamic_type3app17ha56582c005293d59E+0x168>
   17bde:	6509                	lui	a0,0x2
   17be0:	53e50513          	addi	a0,a0,1342 # 253e <.Lline_table_start1+0x2313>
   17be4:	45a1                	li	a1,8
   17be6:	8622                	mv	a2,s0
   17be8:	00008097          	auipc	ra,0x8
   17bec:	fbc080e7          	jalr	-68(ra) # 1fba4 <_ZN9allow_pin12dynamic_type7unshare17h0269127f30dbe29bE>
   17bf0:	00614603          	lbu	a2,6(sp)
   17bf4:	4509                	li	a0,2
   17bf6:	00a60a63          	beq	a2,a0,17c0a <_ZN20complex_dynamic_type3app17ha56582c005293d59E+0x182>
   17bfa:	6509                	lui	a0,0x2
   17bfc:	53e50513          	addi	a0,a0,1342 # 253e <.Lline_table_start1+0x2313>
   17c00:	4589                	li	a1,2
   17c02:	00008097          	auipc	ra,0x8
   17c06:	fa2080e7          	jalr	-94(ra) # 1fba4 <_ZN9allow_pin12dynamic_type7unshare17h0269127f30dbe29bE>
   17c0a:	40ba                	lw	ra,140(sp)
   17c0c:	442a                	lw	s0,136(sp)
   17c0e:	449a                	lw	s1,132(sp)
   17c10:	490a                	lw	s2,128(sp)
   17c12:	59f6                	lw	s3,124(sp)
   17c14:	6149                	addi	sp,sp,144
   17c16:	8082                	ret

00017c18 <_ZN20complex_dynamic_type3app17ha8697add7f51f2f2E>:
   17c18:	7135                	addi	sp,sp,-160
   17c1a:	cf06                	sw	ra,156(sp)
   17c1c:	cd22                	sw	s0,152(sp)
   17c1e:	cb26                	sw	s1,148(sp)
   17c20:	c94a                	sw	s2,144(sp)
   17c22:	c74e                	sw	s3,140(sp)
   17c24:	892a                	mv	s2,a0
   17c26:	4489                	li	s1,2
   17c28:	00910523          	sb	s1,10(sp)
   17c2c:	00b10413          	addi	s0,sp,11
   17c30:	02d00613          	li	a2,45
   17c34:	8522                	mv	a0,s0
   17c36:	00008097          	auipc	ra,0x8
   17c3a:	fe6080e7          	jalr	-26(ra) # 1fc1c <memcpy>
   17c3e:	03910993          	addi	s3,sp,57
   17c42:	05300613          	li	a2,83
   17c46:	854e                	mv	a0,s3
   17c48:	4581                	li	a1,0
   17c4a:	00008097          	auipc	ra,0x8
   17c4e:	f66080e7          	jalr	-154(ra) # 1fbb0 <memset>
   17c52:	8622                	mv	a2,s0
   17c54:	02910c23          	sb	s1,56(sp)
   17c58:	6505                	lui	a0,0x1
   17c5a:	4791                	li	a5,4
   17c5c:	4589                	li	a1,2
   17c5e:	ec350513          	addi	a0,a0,-317 # ec3 <.Lline_table_start1+0xc98>
   17c62:	02d00693          	li	a3,45
   17c66:	4711                	li	a4,4
   17c68:	00000073          	ecall
   17c6c:	00950463          	beq	a0,s1,17c74 <_ZN20complex_dynamic_type3app17ha8697add7f51f2f2E+0x5c>
   17c70:	00f10523          	sb	a5,10(sp)
   17c74:	4609                	li	a2,2
   17c76:	00c51463          	bne	a0,a2,17c7e <_ZN20complex_dynamic_type3app17ha8697add7f51f2f2E+0x66>
   17c7a:	4785                	li	a5,1
   17c7c:	a859                	j	17d12 <_ZN20complex_dynamic_type3app17ha8697add7f51f2f2E+0xfa>
   17c7e:	03814503          	lbu	a0,56(sp)
   17c82:	4785                	li	a5,1
   17c84:	02c51363          	bne	a0,a2,17caa <_ZN20complex_dynamic_type3app17ha8697add7f51f2f2E+0x92>
   17c88:	864e                	mv	a2,s3
   17c8a:	6505                	lui	a0,0x1
   17c8c:	459d                	li	a1,7
   17c8e:	05300693          	li	a3,83
   17c92:	470d                	li	a4,3
   17c94:	ec350513          	addi	a0,a0,-317 # ec3 <.Lline_table_start1+0xc98>
   17c98:	4489                	li	s1,2
   17c9a:	00000073          	ecall
   17c9e:	460d                	li	a2,3
   17ca0:	00951963          	bne	a0,s1,17cb2 <_ZN20complex_dynamic_type3app17ha8697add7f51f2f2E+0x9a>
   17ca4:	4505                	li	a0,1
   17ca6:	c911                	beqz	a0,17cba <_ZN20complex_dynamic_type3app17ha8697add7f51f2f2E+0xa2>
   17ca8:	a0ad                	j	17d12 <_ZN20complex_dynamic_type3app17ha8697add7f51f2f2E+0xfa>
   17caa:	458d                	li	a1,3
   17cac:	4505                	li	a0,1
   17cae:	c511                	beqz	a0,17cba <_ZN20complex_dynamic_type3app17ha8697add7f51f2f2E+0xa2>
   17cb0:	a08d                	j	17d12 <_ZN20complex_dynamic_type3app17ha8697add7f51f2f2E+0xfa>
   17cb2:	4501                	li	a0,0
   17cb4:	02c10c23          	sb	a2,56(sp)
   17cb8:	ed29                	bnez	a0,17d12 <_ZN20complex_dynamic_type3app17ha8697add7f51f2f2E+0xfa>
   17cba:	4681                	li	a3,0
   17cbc:	6505                	lui	a0,0x1
   17cbe:	4589                	li	a1,2
   17cc0:	461d                	li	a2,7
   17cc2:	4709                	li	a4,2
   17cc4:	ec350513          	addi	a0,a0,-317 # ec3 <.Lline_table_start1+0xc98>
   17cc8:	07f00493          	li	s1,127
   17ccc:	00000073          	ecall
   17cd0:	4689                	li	a3,2
   17cd2:	04a4f063          	bgeu	s1,a0,17d12 <_ZN20complex_dynamic_type3app17ha8697add7f51f2f2E+0xfa>
   17cd6:	00a14603          	lbu	a2,10(sp)
   17cda:	00d60a63          	beq	a2,a3,17cee <_ZN20complex_dynamic_type3app17ha8697add7f51f2f2E+0xd6>
   17cde:	6505                	lui	a0,0x1
   17ce0:	ec350513          	addi	a0,a0,-317 # ec3 <.Lline_table_start1+0xc98>
   17ce4:	4589                	li	a1,2
   17ce6:	00008097          	auipc	ra,0x8
   17cea:	ebe080e7          	jalr	-322(ra) # 1fba4 <_ZN9allow_pin12dynamic_type7unshare17h0269127f30dbe29bE>
   17cee:	03814603          	lbu	a2,56(sp)
   17cf2:	4409                	li	s0,2
   17cf4:	00810523          	sb	s0,10(sp)
   17cf8:	00860a63          	beq	a2,s0,17d0c <_ZN20complex_dynamic_type3app17ha8697add7f51f2f2E+0xf4>
   17cfc:	6505                	lui	a0,0x1
   17cfe:	ec350513          	addi	a0,a0,-317 # ec3 <.Lline_table_start1+0xc98>
   17d02:	459d                	li	a1,7
   17d04:	00008097          	auipc	ra,0x8
   17d08:	ea0080e7          	jalr	-352(ra) # 1fba4 <_ZN9allow_pin12dynamic_type7unshare17h0269127f30dbe29bE>
   17d0c:	4781                	li	a5,0
   17d0e:	02810c23          	sb	s0,56(sp)
   17d12:	cb85                	beqz	a5,17d42 <_ZN20complex_dynamic_type3app17ha8697add7f51f2f2E+0x12a>
   17d14:	03814603          	lbu	a2,56(sp)
   17d18:	4505                	li	a0,1
   17d1a:	4409                	li	s0,2
   17d1c:	00a90023          	sb	a0,0(s2)
   17d20:	00b92223          	sw	a1,4(s2)
   17d24:	00860a63          	beq	a2,s0,17d38 <_ZN20complex_dynamic_type3app17ha8697add7f51f2f2E+0x120>
   17d28:	6505                	lui	a0,0x1
   17d2a:	ec350513          	addi	a0,a0,-317 # ec3 <.Lline_table_start1+0xc98>
   17d2e:	459d                	li	a1,7
   17d30:	00008097          	auipc	ra,0x8
   17d34:	e74080e7          	jalr	-396(ra) # 1fba4 <_ZN9allow_pin12dynamic_type7unshare17h0269127f30dbe29bE>
   17d38:	00a14603          	lbu	a2,10(sp)
   17d3c:	04861763          	bne	a2,s0,17d8a <_ZN20complex_dynamic_type3app17ha8697add7f51f2f2E+0x172>
   17d40:	a8a9                	j	17d9a <_ZN20complex_dynamic_type3app17ha8697add7f51f2f2E+0x182>
   17d42:	03814403          	lbu	s0,56(sp)
   17d46:	4489                	li	s1,2
   17d48:	00940663          	beq	s0,s1,17d54 <_ZN20complex_dynamic_type3app17ha8697add7f51f2f2E+0x13c>
   17d4c:	000109b7          	lui	s3,0x10
   17d50:	68a98993          	addi	s3,s3,1674 # 1068a <.Lanon.49c9f8067fe4468184af16d7576940c9.29>
   17d54:	00190513          	addi	a0,s2,1
   17d58:	05300613          	li	a2,83
   17d5c:	85ce                	mv	a1,s3
   17d5e:	00008097          	auipc	ra,0x8
   17d62:	ebe080e7          	jalr	-322(ra) # 1fc1c <memcpy>
   17d66:	00090023          	sb	zero,0(s2)
   17d6a:	00940b63          	beq	s0,s1,17d80 <_ZN20complex_dynamic_type3app17ha8697add7f51f2f2E+0x168>
   17d6e:	6505                	lui	a0,0x1
   17d70:	ec350513          	addi	a0,a0,-317 # ec3 <.Lline_table_start1+0xc98>
   17d74:	459d                	li	a1,7
   17d76:	8622                	mv	a2,s0
   17d78:	00008097          	auipc	ra,0x8
   17d7c:	e2c080e7          	jalr	-468(ra) # 1fba4 <_ZN9allow_pin12dynamic_type7unshare17h0269127f30dbe29bE>
   17d80:	00a14603          	lbu	a2,10(sp)
   17d84:	4509                	li	a0,2
   17d86:	00a60a63          	beq	a2,a0,17d9a <_ZN20complex_dynamic_type3app17ha8697add7f51f2f2E+0x182>
   17d8a:	6505                	lui	a0,0x1
   17d8c:	ec350513          	addi	a0,a0,-317 # ec3 <.Lline_table_start1+0xc98>
   17d90:	4589                	li	a1,2
   17d92:	00008097          	auipc	ra,0x8
   17d96:	e12080e7          	jalr	-494(ra) # 1fba4 <_ZN9allow_pin12dynamic_type7unshare17h0269127f30dbe29bE>
   17d9a:	40fa                	lw	ra,156(sp)
   17d9c:	446a                	lw	s0,152(sp)
   17d9e:	44da                	lw	s1,148(sp)
   17da0:	494a                	lw	s2,144(sp)
   17da2:	49ba                	lw	s3,140(sp)
   17da4:	610d                	addi	sp,sp,160
   17da6:	8082                	ret

00017da8 <_ZN20complex_dynamic_type3app17ha8ae1c2dd0c6405dE>:
   17da8:	7119                	addi	sp,sp,-128
   17daa:	de86                	sw	ra,124(sp)
   17dac:	dca2                	sw	s0,120(sp)
   17dae:	daa6                	sw	s1,116(sp)
   17db0:	d8ca                	sw	s2,112(sp)
   17db2:	d6ce                	sw	s3,108(sp)
   17db4:	892a                	mv	s2,a0
   17db6:	4489                	li	s1,2
   17db8:	00910323          	sb	s1,6(sp)
   17dbc:	00710413          	addi	s0,sp,7
   17dc0:	03200613          	li	a2,50
   17dc4:	8522                	mv	a0,s0
   17dc6:	00008097          	auipc	ra,0x8
   17dca:	e56080e7          	jalr	-426(ra) # 1fc1c <memcpy>
   17dce:	03a10993          	addi	s3,sp,58
   17dd2:	03200613          	li	a2,50
   17dd6:	854e                	mv	a0,s3
   17dd8:	4581                	li	a1,0
   17dda:	00008097          	auipc	ra,0x8
   17dde:	dd6080e7          	jalr	-554(ra) # 1fbb0 <memset>
   17de2:	8622                	mv	a2,s0
   17de4:	02910ca3          	sb	s1,57(sp)
   17de8:	6509                	lui	a0,0x2
   17dea:	4791                	li	a5,4
   17dec:	458d                	li	a1,3
   17dee:	f0750513          	addi	a0,a0,-249 # 1f07 <.Lline_table_start1+0x1cdc>
   17df2:	03200693          	li	a3,50
   17df6:	4711                	li	a4,4
   17df8:	00000073          	ecall
   17dfc:	00950463          	beq	a0,s1,17e04 <_ZN20complex_dynamic_type3app17ha8ae1c2dd0c6405dE+0x5c>
   17e00:	00f10323          	sb	a5,6(sp)
   17e04:	4609                	li	a2,2
   17e06:	00c51463          	bne	a0,a2,17e0e <_ZN20complex_dynamic_type3app17ha8ae1c2dd0c6405dE+0x66>
   17e0a:	4785                	li	a5,1
   17e0c:	a849                	j	17e9e <_ZN20complex_dynamic_type3app17ha8ae1c2dd0c6405dE+0xf6>
   17e0e:	03914503          	lbu	a0,57(sp)
   17e12:	4785                	li	a5,1
   17e14:	02c51563          	bne	a0,a2,17e3e <_ZN20complex_dynamic_type3app17ha8ae1c2dd0c6405dE+0x96>
   17e18:	864e                	mv	a2,s3
   17e1a:	6509                	lui	a0,0x2
   17e1c:	4405                	li	s0,1
   17e1e:	4585                	li	a1,1
   17e20:	03200693          	li	a3,50
   17e24:	470d                	li	a4,3
   17e26:	f0750513          	addi	a0,a0,-249 # 1f07 <.Lline_table_start1+0x1cdc>
   17e2a:	4489                	li	s1,2
   17e2c:	00000073          	ecall
   17e30:	460d                	li	a2,3
   17e32:	00950863          	beq	a0,s1,17e42 <_ZN20complex_dynamic_type3app17ha8ae1c2dd0c6405dE+0x9a>
   17e36:	4401                	li	s0,0
   17e38:	02c10ca3          	sb	a2,57(sp)
   17e3c:	a019                	j	17e42 <_ZN20complex_dynamic_type3app17ha8ae1c2dd0c6405dE+0x9a>
   17e3e:	458d                	li	a1,3
   17e40:	4405                	li	s0,1
   17e42:	ec31                	bnez	s0,17e9e <_ZN20complex_dynamic_type3app17ha8ae1c2dd0c6405dE+0xf6>
   17e44:	4681                	li	a3,0
   17e46:	6509                	lui	a0,0x2
   17e48:	4785                	li	a5,1
   17e4a:	458d                	li	a1,3
   17e4c:	4605                	li	a2,1
   17e4e:	4709                	li	a4,2
   17e50:	f0750513          	addi	a0,a0,-249 # 1f07 <.Lline_table_start1+0x1cdc>
   17e54:	07f00493          	li	s1,127
   17e58:	00000073          	ecall
   17e5c:	4689                	li	a3,2
   17e5e:	04a4f063          	bgeu	s1,a0,17e9e <_ZN20complex_dynamic_type3app17ha8ae1c2dd0c6405dE+0xf6>
   17e62:	00614603          	lbu	a2,6(sp)
   17e66:	00d60a63          	beq	a2,a3,17e7a <_ZN20complex_dynamic_type3app17ha8ae1c2dd0c6405dE+0xd2>
   17e6a:	6509                	lui	a0,0x2
   17e6c:	f0750513          	addi	a0,a0,-249 # 1f07 <.Lline_table_start1+0x1cdc>
   17e70:	458d                	li	a1,3
   17e72:	00008097          	auipc	ra,0x8
   17e76:	d32080e7          	jalr	-718(ra) # 1fba4 <_ZN9allow_pin12dynamic_type7unshare17h0269127f30dbe29bE>
   17e7a:	03914603          	lbu	a2,57(sp)
   17e7e:	4409                	li	s0,2
   17e80:	00810323          	sb	s0,6(sp)
   17e84:	00860a63          	beq	a2,s0,17e98 <_ZN20complex_dynamic_type3app17ha8ae1c2dd0c6405dE+0xf0>
   17e88:	6509                	lui	a0,0x2
   17e8a:	f0750513          	addi	a0,a0,-249 # 1f07 <.Lline_table_start1+0x1cdc>
   17e8e:	4585                	li	a1,1
   17e90:	00008097          	auipc	ra,0x8
   17e94:	d14080e7          	jalr	-748(ra) # 1fba4 <_ZN9allow_pin12dynamic_type7unshare17h0269127f30dbe29bE>
   17e98:	4781                	li	a5,0
   17e9a:	02810ca3          	sb	s0,57(sp)
   17e9e:	cb85                	beqz	a5,17ece <_ZN20complex_dynamic_type3app17ha8ae1c2dd0c6405dE+0x126>
   17ea0:	03914603          	lbu	a2,57(sp)
   17ea4:	4505                	li	a0,1
   17ea6:	4409                	li	s0,2
   17ea8:	00a90023          	sb	a0,0(s2)
   17eac:	00b92223          	sw	a1,4(s2)
   17eb0:	00860a63          	beq	a2,s0,17ec4 <_ZN20complex_dynamic_type3app17ha8ae1c2dd0c6405dE+0x11c>
   17eb4:	6509                	lui	a0,0x2
   17eb6:	f0750513          	addi	a0,a0,-249 # 1f07 <.Lline_table_start1+0x1cdc>
   17eba:	4585                	li	a1,1
   17ebc:	00008097          	auipc	ra,0x8
   17ec0:	ce8080e7          	jalr	-792(ra) # 1fba4 <_ZN9allow_pin12dynamic_type7unshare17h0269127f30dbe29bE>
   17ec4:	00614603          	lbu	a2,6(sp)
   17ec8:	04861763          	bne	a2,s0,17f16 <_ZN20complex_dynamic_type3app17ha8ae1c2dd0c6405dE+0x16e>
   17ecc:	a8a9                	j	17f26 <_ZN20complex_dynamic_type3app17ha8ae1c2dd0c6405dE+0x17e>
   17ece:	03914403          	lbu	s0,57(sp)
   17ed2:	4489                	li	s1,2
   17ed4:	00940663          	beq	s0,s1,17ee0 <_ZN20complex_dynamic_type3app17ha8ae1c2dd0c6405dE+0x138>
   17ed8:	000119b7          	lui	s3,0x11
   17edc:	83398993          	addi	s3,s3,-1997 # 10833 <.Lanon.49c9f8067fe4468184af16d7576940c9.37>
   17ee0:	00190513          	addi	a0,s2,1
   17ee4:	03200613          	li	a2,50
   17ee8:	85ce                	mv	a1,s3
   17eea:	00008097          	auipc	ra,0x8
   17eee:	d32080e7          	jalr	-718(ra) # 1fc1c <memcpy>
   17ef2:	00090023          	sb	zero,0(s2)
   17ef6:	00940b63          	beq	s0,s1,17f0c <_ZN20complex_dynamic_type3app17ha8ae1c2dd0c6405dE+0x164>
   17efa:	6509                	lui	a0,0x2
   17efc:	f0750513          	addi	a0,a0,-249 # 1f07 <.Lline_table_start1+0x1cdc>
   17f00:	4585                	li	a1,1
   17f02:	8622                	mv	a2,s0
   17f04:	00008097          	auipc	ra,0x8
   17f08:	ca0080e7          	jalr	-864(ra) # 1fba4 <_ZN9allow_pin12dynamic_type7unshare17h0269127f30dbe29bE>
   17f0c:	00614603          	lbu	a2,6(sp)
   17f10:	4509                	li	a0,2
   17f12:	00a60a63          	beq	a2,a0,17f26 <_ZN20complex_dynamic_type3app17ha8ae1c2dd0c6405dE+0x17e>
   17f16:	6509                	lui	a0,0x2
   17f18:	f0750513          	addi	a0,a0,-249 # 1f07 <.Lline_table_start1+0x1cdc>
   17f1c:	458d                	li	a1,3
   17f1e:	00008097          	auipc	ra,0x8
   17f22:	c86080e7          	jalr	-890(ra) # 1fba4 <_ZN9allow_pin12dynamic_type7unshare17h0269127f30dbe29bE>
   17f26:	50f6                	lw	ra,124(sp)
   17f28:	5466                	lw	s0,120(sp)
   17f2a:	54d6                	lw	s1,116(sp)
   17f2c:	5946                	lw	s2,112(sp)
   17f2e:	59b6                	lw	s3,108(sp)
   17f30:	6109                	addi	sp,sp,128
   17f32:	8082                	ret

00017f34 <_ZN20complex_dynamic_type3app17ha8df31ef18018e32E>:
   17f34:	7159                	addi	sp,sp,-112
   17f36:	d686                	sw	ra,108(sp)
   17f38:	d4a2                	sw	s0,104(sp)
   17f3a:	d2a6                	sw	s1,100(sp)
   17f3c:	d0ca                	sw	s2,96(sp)
   17f3e:	cece                	sw	s3,92(sp)
   17f40:	892a                	mv	s2,a0
   17f42:	4489                	li	s1,2
   17f44:	009103a3          	sb	s1,7(sp)
   17f48:	0020                	addi	s0,sp,8
   17f4a:	02c00613          	li	a2,44
   17f4e:	8522                	mv	a0,s0
   17f50:	00008097          	auipc	ra,0x8
   17f54:	ccc080e7          	jalr	-820(ra) # 1fc1c <memcpy>
   17f58:	03510993          	addi	s3,sp,53
   17f5c:	02700613          	li	a2,39
   17f60:	854e                	mv	a0,s3
   17f62:	4581                	li	a1,0
   17f64:	00008097          	auipc	ra,0x8
   17f68:	c4c080e7          	jalr	-948(ra) # 1fbb0 <memset>
   17f6c:	8622                	mv	a2,s0
   17f6e:	02910a23          	sb	s1,52(sp)
   17f72:	6505                	lui	a0,0x1
   17f74:	4791                	li	a5,4
   17f76:	4591                	li	a1,4
   17f78:	1b550513          	addi	a0,a0,437 # 11b5 <.Lline_table_start1+0xf8a>
   17f7c:	02c00693          	li	a3,44
   17f80:	4711                	li	a4,4
   17f82:	00000073          	ecall
   17f86:	00950463          	beq	a0,s1,17f8e <_ZN20complex_dynamic_type3app17ha8df31ef18018e32E+0x5a>
   17f8a:	00f103a3          	sb	a5,7(sp)
   17f8e:	4609                	li	a2,2
   17f90:	00c51463          	bne	a0,a2,17f98 <_ZN20complex_dynamic_type3app17ha8df31ef18018e32E+0x64>
   17f94:	4785                	li	a5,1
   17f96:	a859                	j	1802c <_ZN20complex_dynamic_type3app17ha8df31ef18018e32E+0xf8>
   17f98:	03414503          	lbu	a0,52(sp)
   17f9c:	4785                	li	a5,1
   17f9e:	02c51363          	bne	a0,a2,17fc4 <_ZN20complex_dynamic_type3app17ha8df31ef18018e32E+0x90>
   17fa2:	864e                	mv	a2,s3
   17fa4:	6505                	lui	a0,0x1
   17fa6:	458d                	li	a1,3
   17fa8:	02700693          	li	a3,39
   17fac:	470d                	li	a4,3
   17fae:	1b550513          	addi	a0,a0,437 # 11b5 <.Lline_table_start1+0xf8a>
   17fb2:	4489                	li	s1,2
   17fb4:	00000073          	ecall
   17fb8:	460d                	li	a2,3
   17fba:	00951963          	bne	a0,s1,17fcc <_ZN20complex_dynamic_type3app17ha8df31ef18018e32E+0x98>
   17fbe:	4505                	li	a0,1
   17fc0:	c911                	beqz	a0,17fd4 <_ZN20complex_dynamic_type3app17ha8df31ef18018e32E+0xa0>
   17fc2:	a0ad                	j	1802c <_ZN20complex_dynamic_type3app17ha8df31ef18018e32E+0xf8>
   17fc4:	458d                	li	a1,3
   17fc6:	4505                	li	a0,1
   17fc8:	c511                	beqz	a0,17fd4 <_ZN20complex_dynamic_type3app17ha8df31ef18018e32E+0xa0>
   17fca:	a08d                	j	1802c <_ZN20complex_dynamic_type3app17ha8df31ef18018e32E+0xf8>
   17fcc:	4501                	li	a0,0
   17fce:	02c10a23          	sb	a2,52(sp)
   17fd2:	ed29                	bnez	a0,1802c <_ZN20complex_dynamic_type3app17ha8df31ef18018e32E+0xf8>
   17fd4:	4681                	li	a3,0
   17fd6:	6505                	lui	a0,0x1
   17fd8:	4591                	li	a1,4
   17fda:	460d                	li	a2,3
   17fdc:	4709                	li	a4,2
   17fde:	1b550513          	addi	a0,a0,437 # 11b5 <.Lline_table_start1+0xf8a>
   17fe2:	07f00493          	li	s1,127
   17fe6:	00000073          	ecall
   17fea:	4689                	li	a3,2
   17fec:	04a4f063          	bgeu	s1,a0,1802c <_ZN20complex_dynamic_type3app17ha8df31ef18018e32E+0xf8>
   17ff0:	00714603          	lbu	a2,7(sp)
   17ff4:	00d60a63          	beq	a2,a3,18008 <_ZN20complex_dynamic_type3app17ha8df31ef18018e32E+0xd4>
   17ff8:	6505                	lui	a0,0x1
   17ffa:	1b550513          	addi	a0,a0,437 # 11b5 <.Lline_table_start1+0xf8a>
   17ffe:	4591                	li	a1,4
   18000:	00008097          	auipc	ra,0x8
   18004:	ba4080e7          	jalr	-1116(ra) # 1fba4 <_ZN9allow_pin12dynamic_type7unshare17h0269127f30dbe29bE>
   18008:	03414603          	lbu	a2,52(sp)
   1800c:	4409                	li	s0,2
   1800e:	008103a3          	sb	s0,7(sp)
   18012:	00860a63          	beq	a2,s0,18026 <_ZN20complex_dynamic_type3app17ha8df31ef18018e32E+0xf2>
   18016:	6505                	lui	a0,0x1
   18018:	1b550513          	addi	a0,a0,437 # 11b5 <.Lline_table_start1+0xf8a>
   1801c:	458d                	li	a1,3
   1801e:	00008097          	auipc	ra,0x8
   18022:	b86080e7          	jalr	-1146(ra) # 1fba4 <_ZN9allow_pin12dynamic_type7unshare17h0269127f30dbe29bE>
   18026:	4781                	li	a5,0
   18028:	02810a23          	sb	s0,52(sp)
   1802c:	cb85                	beqz	a5,1805c <_ZN20complex_dynamic_type3app17ha8df31ef18018e32E+0x128>
   1802e:	03414603          	lbu	a2,52(sp)
   18032:	4505                	li	a0,1
   18034:	4409                	li	s0,2
   18036:	00a90023          	sb	a0,0(s2)
   1803a:	00b92223          	sw	a1,4(s2)
   1803e:	00860a63          	beq	a2,s0,18052 <_ZN20complex_dynamic_type3app17ha8df31ef18018e32E+0x11e>
   18042:	6505                	lui	a0,0x1
   18044:	1b550513          	addi	a0,a0,437 # 11b5 <.Lline_table_start1+0xf8a>
   18048:	458d                	li	a1,3
   1804a:	00008097          	auipc	ra,0x8
   1804e:	b5a080e7          	jalr	-1190(ra) # 1fba4 <_ZN9allow_pin12dynamic_type7unshare17h0269127f30dbe29bE>
   18052:	00714603          	lbu	a2,7(sp)
   18056:	04861763          	bne	a2,s0,180a4 <_ZN20complex_dynamic_type3app17ha8df31ef18018e32E+0x170>
   1805a:	a8a9                	j	180b4 <_ZN20complex_dynamic_type3app17ha8df31ef18018e32E+0x180>
   1805c:	03414403          	lbu	s0,52(sp)
   18060:	4489                	li	s1,2
   18062:	00940663          	beq	s0,s1,1806e <_ZN20complex_dynamic_type3app17ha8df31ef18018e32E+0x13a>
   18066:	000109b7          	lui	s3,0x10
   1806a:	30a98993          	addi	s3,s3,778 # 1030a <.Lanon.49c9f8067fe4468184af16d7576940c9.8>
   1806e:	00190513          	addi	a0,s2,1
   18072:	02700613          	li	a2,39
   18076:	85ce                	mv	a1,s3
   18078:	00008097          	auipc	ra,0x8
   1807c:	ba4080e7          	jalr	-1116(ra) # 1fc1c <memcpy>
   18080:	00090023          	sb	zero,0(s2)
   18084:	00940b63          	beq	s0,s1,1809a <_ZN20complex_dynamic_type3app17ha8df31ef18018e32E+0x166>
   18088:	6505                	lui	a0,0x1
   1808a:	1b550513          	addi	a0,a0,437 # 11b5 <.Lline_table_start1+0xf8a>
   1808e:	458d                	li	a1,3
   18090:	8622                	mv	a2,s0
   18092:	00008097          	auipc	ra,0x8
   18096:	b12080e7          	jalr	-1262(ra) # 1fba4 <_ZN9allow_pin12dynamic_type7unshare17h0269127f30dbe29bE>
   1809a:	00714603          	lbu	a2,7(sp)
   1809e:	4509                	li	a0,2
   180a0:	00a60a63          	beq	a2,a0,180b4 <_ZN20complex_dynamic_type3app17ha8df31ef18018e32E+0x180>
   180a4:	6505                	lui	a0,0x1
   180a6:	1b550513          	addi	a0,a0,437 # 11b5 <.Lline_table_start1+0xf8a>
   180aa:	4591                	li	a1,4
   180ac:	00008097          	auipc	ra,0x8
   180b0:	af8080e7          	jalr	-1288(ra) # 1fba4 <_ZN9allow_pin12dynamic_type7unshare17h0269127f30dbe29bE>
   180b4:	50b6                	lw	ra,108(sp)
   180b6:	5426                	lw	s0,104(sp)
   180b8:	5496                	lw	s1,100(sp)
   180ba:	5906                	lw	s2,96(sp)
   180bc:	49f6                	lw	s3,92(sp)
   180be:	6165                	addi	sp,sp,112
   180c0:	8082                	ret

000180c2 <_ZN20complex_dynamic_type3app17hb10967cb3e94610fE>:
   180c2:	7135                	addi	sp,sp,-160
   180c4:	cf06                	sw	ra,156(sp)
   180c6:	cd22                	sw	s0,152(sp)
   180c8:	cb26                	sw	s1,148(sp)
   180ca:	c94a                	sw	s2,144(sp)
   180cc:	c74e                	sw	s3,140(sp)
   180ce:	892a                	mv	s2,a0
   180d0:	4489                	li	s1,2
   180d2:	00910023          	sb	s1,0(sp)
   180d6:	00110413          	addi	s0,sp,1
   180da:	06300613          	li	a2,99
   180de:	8522                	mv	a0,s0
   180e0:	00008097          	auipc	ra,0x8
   180e4:	b3c080e7          	jalr	-1220(ra) # 1fc1c <memcpy>
   180e8:	06510993          	addi	s3,sp,101
   180ec:	02700613          	li	a2,39
   180f0:	854e                	mv	a0,s3
   180f2:	4581                	li	a1,0
   180f4:	00008097          	auipc	ra,0x8
   180f8:	abc080e7          	jalr	-1348(ra) # 1fbb0 <memset>
   180fc:	8622                	mv	a2,s0
   180fe:	06910223          	sb	s1,100(sp)
   18102:	6509                	lui	a0,0x2
   18104:	4791                	li	a5,4
   18106:	459d                	li	a1,7
   18108:	e5450513          	addi	a0,a0,-428 # 1e54 <.Lline_table_start1+0x1c29>
   1810c:	06300693          	li	a3,99
   18110:	4711                	li	a4,4
   18112:	00000073          	ecall
   18116:	00950463          	beq	a0,s1,1811e <_ZN20complex_dynamic_type3app17hb10967cb3e94610fE+0x5c>
   1811a:	00f10023          	sb	a5,0(sp)
   1811e:	4609                	li	a2,2
   18120:	00c51463          	bne	a0,a2,18128 <_ZN20complex_dynamic_type3app17hb10967cb3e94610fE+0x66>
   18124:	4785                	li	a5,1
   18126:	a859                	j	181bc <_ZN20complex_dynamic_type3app17hb10967cb3e94610fE+0xfa>
   18128:	06414503          	lbu	a0,100(sp)
   1812c:	4785                	li	a5,1
   1812e:	02c51363          	bne	a0,a2,18154 <_ZN20complex_dynamic_type3app17hb10967cb3e94610fE+0x92>
   18132:	4581                	li	a1,0
   18134:	864e                	mv	a2,s3
   18136:	6509                	lui	a0,0x2
   18138:	02700693          	li	a3,39
   1813c:	470d                	li	a4,3
   1813e:	e5450513          	addi	a0,a0,-428 # 1e54 <.Lline_table_start1+0x1c29>
   18142:	4489                	li	s1,2
   18144:	00000073          	ecall
   18148:	460d                	li	a2,3
   1814a:	00951963          	bne	a0,s1,1815c <_ZN20complex_dynamic_type3app17hb10967cb3e94610fE+0x9a>
   1814e:	4505                	li	a0,1
   18150:	c911                	beqz	a0,18164 <_ZN20complex_dynamic_type3app17hb10967cb3e94610fE+0xa2>
   18152:	a0ad                	j	181bc <_ZN20complex_dynamic_type3app17hb10967cb3e94610fE+0xfa>
   18154:	458d                	li	a1,3
   18156:	4505                	li	a0,1
   18158:	c511                	beqz	a0,18164 <_ZN20complex_dynamic_type3app17hb10967cb3e94610fE+0xa2>
   1815a:	a08d                	j	181bc <_ZN20complex_dynamic_type3app17hb10967cb3e94610fE+0xfa>
   1815c:	4501                	li	a0,0
   1815e:	06c10223          	sb	a2,100(sp)
   18162:	ed29                	bnez	a0,181bc <_ZN20complex_dynamic_type3app17hb10967cb3e94610fE+0xfa>
   18164:	4601                	li	a2,0
   18166:	4681                	li	a3,0
   18168:	6509                	lui	a0,0x2
   1816a:	459d                	li	a1,7
   1816c:	4709                	li	a4,2
   1816e:	e5450513          	addi	a0,a0,-428 # 1e54 <.Lline_table_start1+0x1c29>
   18172:	07f00493          	li	s1,127
   18176:	00000073          	ecall
   1817a:	4689                	li	a3,2
   1817c:	04a4f063          	bgeu	s1,a0,181bc <_ZN20complex_dynamic_type3app17hb10967cb3e94610fE+0xfa>
   18180:	00014603          	lbu	a2,0(sp)
   18184:	00d60a63          	beq	a2,a3,18198 <_ZN20complex_dynamic_type3app17hb10967cb3e94610fE+0xd6>
   18188:	6509                	lui	a0,0x2
   1818a:	e5450513          	addi	a0,a0,-428 # 1e54 <.Lline_table_start1+0x1c29>
   1818e:	459d                	li	a1,7
   18190:	00008097          	auipc	ra,0x8
   18194:	a14080e7          	jalr	-1516(ra) # 1fba4 <_ZN9allow_pin12dynamic_type7unshare17h0269127f30dbe29bE>
   18198:	06414603          	lbu	a2,100(sp)
   1819c:	4409                	li	s0,2
   1819e:	00810023          	sb	s0,0(sp)
   181a2:	00860a63          	beq	a2,s0,181b6 <_ZN20complex_dynamic_type3app17hb10967cb3e94610fE+0xf4>
   181a6:	6509                	lui	a0,0x2
   181a8:	e5450513          	addi	a0,a0,-428 # 1e54 <.Lline_table_start1+0x1c29>
   181ac:	4581                	li	a1,0
   181ae:	00008097          	auipc	ra,0x8
   181b2:	9f6080e7          	jalr	-1546(ra) # 1fba4 <_ZN9allow_pin12dynamic_type7unshare17h0269127f30dbe29bE>
   181b6:	4781                	li	a5,0
   181b8:	06810223          	sb	s0,100(sp)
   181bc:	cb85                	beqz	a5,181ec <_ZN20complex_dynamic_type3app17hb10967cb3e94610fE+0x12a>
   181be:	06414603          	lbu	a2,100(sp)
   181c2:	4505                	li	a0,1
   181c4:	4409                	li	s0,2
   181c6:	00a90023          	sb	a0,0(s2)
   181ca:	00b92223          	sw	a1,4(s2)
   181ce:	00860a63          	beq	a2,s0,181e2 <_ZN20complex_dynamic_type3app17hb10967cb3e94610fE+0x120>
   181d2:	6509                	lui	a0,0x2
   181d4:	e5450513          	addi	a0,a0,-428 # 1e54 <.Lline_table_start1+0x1c29>
   181d8:	4581                	li	a1,0
   181da:	00008097          	auipc	ra,0x8
   181de:	9ca080e7          	jalr	-1590(ra) # 1fba4 <_ZN9allow_pin12dynamic_type7unshare17h0269127f30dbe29bE>
   181e2:	00014603          	lbu	a2,0(sp)
   181e6:	04861763          	bne	a2,s0,18234 <_ZN20complex_dynamic_type3app17hb10967cb3e94610fE+0x172>
   181ea:	a8a9                	j	18244 <_ZN20complex_dynamic_type3app17hb10967cb3e94610fE+0x182>
   181ec:	06414403          	lbu	s0,100(sp)
   181f0:	4489                	li	s1,2
   181f2:	00940663          	beq	s0,s1,181fe <_ZN20complex_dynamic_type3app17hb10967cb3e94610fE+0x13c>
   181f6:	000109b7          	lui	s3,0x10
   181fa:	30a98993          	addi	s3,s3,778 # 1030a <.Lanon.49c9f8067fe4468184af16d7576940c9.8>
   181fe:	00190513          	addi	a0,s2,1
   18202:	02700613          	li	a2,39
   18206:	85ce                	mv	a1,s3
   18208:	00008097          	auipc	ra,0x8
   1820c:	a14080e7          	jalr	-1516(ra) # 1fc1c <memcpy>
   18210:	00090023          	sb	zero,0(s2)
   18214:	00940b63          	beq	s0,s1,1822a <_ZN20complex_dynamic_type3app17hb10967cb3e94610fE+0x168>
   18218:	6509                	lui	a0,0x2
   1821a:	e5450513          	addi	a0,a0,-428 # 1e54 <.Lline_table_start1+0x1c29>
   1821e:	4581                	li	a1,0
   18220:	8622                	mv	a2,s0
   18222:	00008097          	auipc	ra,0x8
   18226:	982080e7          	jalr	-1662(ra) # 1fba4 <_ZN9allow_pin12dynamic_type7unshare17h0269127f30dbe29bE>
   1822a:	00014603          	lbu	a2,0(sp)
   1822e:	4509                	li	a0,2
   18230:	00a60a63          	beq	a2,a0,18244 <_ZN20complex_dynamic_type3app17hb10967cb3e94610fE+0x182>
   18234:	6509                	lui	a0,0x2
   18236:	e5450513          	addi	a0,a0,-428 # 1e54 <.Lline_table_start1+0x1c29>
   1823a:	459d                	li	a1,7
   1823c:	00008097          	auipc	ra,0x8
   18240:	968080e7          	jalr	-1688(ra) # 1fba4 <_ZN9allow_pin12dynamic_type7unshare17h0269127f30dbe29bE>
   18244:	40fa                	lw	ra,156(sp)
   18246:	446a                	lw	s0,152(sp)
   18248:	44da                	lw	s1,148(sp)
   1824a:	494a                	lw	s2,144(sp)
   1824c:	49ba                	lw	s3,140(sp)
   1824e:	610d                	addi	sp,sp,160
   18250:	8082                	ret

00018252 <_ZN20complex_dynamic_type3app17hb4fae434c053e601E>:
   18252:	7159                	addi	sp,sp,-112
   18254:	d686                	sw	ra,108(sp)
   18256:	d4a2                	sw	s0,104(sp)
   18258:	d2a6                	sw	s1,100(sp)
   1825a:	d0ca                	sw	s2,96(sp)
   1825c:	cece                	sw	s3,92(sp)
   1825e:	892a                	mv	s2,a0
   18260:	4489                	li	s1,2
   18262:	009103a3          	sb	s1,7(sp)
   18266:	0020                	addi	s0,sp,8
   18268:	02400613          	li	a2,36
   1826c:	8522                	mv	a0,s0
   1826e:	00008097          	auipc	ra,0x8
   18272:	9ae080e7          	jalr	-1618(ra) # 1fc1c <memcpy>
   18276:	02d10993          	addi	s3,sp,45
   1827a:	02f00613          	li	a2,47
   1827e:	854e                	mv	a0,s3
   18280:	4581                	li	a1,0
   18282:	00008097          	auipc	ra,0x8
   18286:	92e080e7          	jalr	-1746(ra) # 1fbb0 <memset>
   1828a:	8622                	mv	a2,s0
   1828c:	02910623          	sb	s1,44(sp)
   18290:	6505                	lui	a0,0x1
   18292:	4791                	li	a5,4
   18294:	4599                	li	a1,6
   18296:	27350513          	addi	a0,a0,627 # 1273 <.Lline_table_start1+0x1048>
   1829a:	02400693          	li	a3,36
   1829e:	4711                	li	a4,4
   182a0:	00000073          	ecall
   182a4:	00950463          	beq	a0,s1,182ac <_ZN20complex_dynamic_type3app17hb4fae434c053e601E+0x5a>
   182a8:	00f103a3          	sb	a5,7(sp)
   182ac:	4609                	li	a2,2
   182ae:	00c51463          	bne	a0,a2,182b6 <_ZN20complex_dynamic_type3app17hb4fae434c053e601E+0x64>
   182b2:	4785                	li	a5,1
   182b4:	a859                	j	1834a <_ZN20complex_dynamic_type3app17hb4fae434c053e601E+0xf8>
   182b6:	02c14503          	lbu	a0,44(sp)
   182ba:	4785                	li	a5,1
   182bc:	02c51363          	bne	a0,a2,182e2 <_ZN20complex_dynamic_type3app17hb4fae434c053e601E+0x90>
   182c0:	864e                	mv	a2,s3
   182c2:	6505                	lui	a0,0x1
   182c4:	45a5                	li	a1,9
   182c6:	02f00693          	li	a3,47
   182ca:	470d                	li	a4,3
   182cc:	27350513          	addi	a0,a0,627 # 1273 <.Lline_table_start1+0x1048>
   182d0:	4489                	li	s1,2
   182d2:	00000073          	ecall
   182d6:	460d                	li	a2,3
   182d8:	00951963          	bne	a0,s1,182ea <_ZN20complex_dynamic_type3app17hb4fae434c053e601E+0x98>
   182dc:	4505                	li	a0,1
   182de:	c911                	beqz	a0,182f2 <_ZN20complex_dynamic_type3app17hb4fae434c053e601E+0xa0>
   182e0:	a0ad                	j	1834a <_ZN20complex_dynamic_type3app17hb4fae434c053e601E+0xf8>
   182e2:	458d                	li	a1,3
   182e4:	4505                	li	a0,1
   182e6:	c511                	beqz	a0,182f2 <_ZN20complex_dynamic_type3app17hb4fae434c053e601E+0xa0>
   182e8:	a08d                	j	1834a <_ZN20complex_dynamic_type3app17hb4fae434c053e601E+0xf8>
   182ea:	4501                	li	a0,0
   182ec:	02c10623          	sb	a2,44(sp)
   182f0:	ed29                	bnez	a0,1834a <_ZN20complex_dynamic_type3app17hb4fae434c053e601E+0xf8>
   182f2:	4681                	li	a3,0
   182f4:	6505                	lui	a0,0x1
   182f6:	4599                	li	a1,6
   182f8:	4625                	li	a2,9
   182fa:	4709                	li	a4,2
   182fc:	27350513          	addi	a0,a0,627 # 1273 <.Lline_table_start1+0x1048>
   18300:	07f00493          	li	s1,127
   18304:	00000073          	ecall
   18308:	4689                	li	a3,2
   1830a:	04a4f063          	bgeu	s1,a0,1834a <_ZN20complex_dynamic_type3app17hb4fae434c053e601E+0xf8>
   1830e:	00714603          	lbu	a2,7(sp)
   18312:	00d60a63          	beq	a2,a3,18326 <_ZN20complex_dynamic_type3app17hb4fae434c053e601E+0xd4>
   18316:	6505                	lui	a0,0x1
   18318:	27350513          	addi	a0,a0,627 # 1273 <.Lline_table_start1+0x1048>
   1831c:	4599                	li	a1,6
   1831e:	00008097          	auipc	ra,0x8
   18322:	886080e7          	jalr	-1914(ra) # 1fba4 <_ZN9allow_pin12dynamic_type7unshare17h0269127f30dbe29bE>
   18326:	02c14603          	lbu	a2,44(sp)
   1832a:	4409                	li	s0,2
   1832c:	008103a3          	sb	s0,7(sp)
   18330:	00860a63          	beq	a2,s0,18344 <_ZN20complex_dynamic_type3app17hb4fae434c053e601E+0xf2>
   18334:	6505                	lui	a0,0x1
   18336:	27350513          	addi	a0,a0,627 # 1273 <.Lline_table_start1+0x1048>
   1833a:	45a5                	li	a1,9
   1833c:	00008097          	auipc	ra,0x8
   18340:	868080e7          	jalr	-1944(ra) # 1fba4 <_ZN9allow_pin12dynamic_type7unshare17h0269127f30dbe29bE>
   18344:	4781                	li	a5,0
   18346:	02810623          	sb	s0,44(sp)
   1834a:	cb85                	beqz	a5,1837a <_ZN20complex_dynamic_type3app17hb4fae434c053e601E+0x128>
   1834c:	02c14603          	lbu	a2,44(sp)
   18350:	4505                	li	a0,1
   18352:	4409                	li	s0,2
   18354:	00a90023          	sb	a0,0(s2)
   18358:	00b92223          	sw	a1,4(s2)
   1835c:	00860a63          	beq	a2,s0,18370 <_ZN20complex_dynamic_type3app17hb4fae434c053e601E+0x11e>
   18360:	6505                	lui	a0,0x1
   18362:	27350513          	addi	a0,a0,627 # 1273 <.Lline_table_start1+0x1048>
   18366:	45a5                	li	a1,9
   18368:	00008097          	auipc	ra,0x8
   1836c:	83c080e7          	jalr	-1988(ra) # 1fba4 <_ZN9allow_pin12dynamic_type7unshare17h0269127f30dbe29bE>
   18370:	00714603          	lbu	a2,7(sp)
   18374:	04861763          	bne	a2,s0,183c2 <_ZN20complex_dynamic_type3app17hb4fae434c053e601E+0x170>
   18378:	a8a9                	j	183d2 <_ZN20complex_dynamic_type3app17hb4fae434c053e601E+0x180>
   1837a:	02c14403          	lbu	s0,44(sp)
   1837e:	4489                	li	s1,2
   18380:	00940663          	beq	s0,s1,1838c <_ZN20complex_dynamic_type3app17hb4fae434c053e601E+0x13a>
   18384:	000109b7          	lui	s3,0x10
   18388:	5fe98993          	addi	s3,s3,1534 # 105fe <.Lanon.49c9f8067fe4468184af16d7576940c9.26>
   1838c:	00190513          	addi	a0,s2,1
   18390:	02f00613          	li	a2,47
   18394:	85ce                	mv	a1,s3
   18396:	00008097          	auipc	ra,0x8
   1839a:	886080e7          	jalr	-1914(ra) # 1fc1c <memcpy>
   1839e:	00090023          	sb	zero,0(s2)
   183a2:	00940b63          	beq	s0,s1,183b8 <_ZN20complex_dynamic_type3app17hb4fae434c053e601E+0x166>
   183a6:	6505                	lui	a0,0x1
   183a8:	27350513          	addi	a0,a0,627 # 1273 <.Lline_table_start1+0x1048>
   183ac:	45a5                	li	a1,9
   183ae:	8622                	mv	a2,s0
   183b0:	00007097          	auipc	ra,0x7
   183b4:	7f4080e7          	jalr	2036(ra) # 1fba4 <_ZN9allow_pin12dynamic_type7unshare17h0269127f30dbe29bE>
   183b8:	00714603          	lbu	a2,7(sp)
   183bc:	4509                	li	a0,2
   183be:	00a60a63          	beq	a2,a0,183d2 <_ZN20complex_dynamic_type3app17hb4fae434c053e601E+0x180>
   183c2:	6505                	lui	a0,0x1
   183c4:	27350513          	addi	a0,a0,627 # 1273 <.Lline_table_start1+0x1048>
   183c8:	4599                	li	a1,6
   183ca:	00007097          	auipc	ra,0x7
   183ce:	7da080e7          	jalr	2010(ra) # 1fba4 <_ZN9allow_pin12dynamic_type7unshare17h0269127f30dbe29bE>
   183d2:	50b6                	lw	ra,108(sp)
   183d4:	5426                	lw	s0,104(sp)
   183d6:	5496                	lw	s1,100(sp)
   183d8:	5906                	lw	s2,96(sp)
   183da:	49f6                	lw	s3,92(sp)
   183dc:	6165                	addi	sp,sp,112
   183de:	8082                	ret

000183e0 <_ZN20complex_dynamic_type3app17hb6283a5bbf7eb829E>:
   183e0:	7159                	addi	sp,sp,-112
   183e2:	d686                	sw	ra,108(sp)
   183e4:	d4a2                	sw	s0,104(sp)
   183e6:	d2a6                	sw	s1,100(sp)
   183e8:	d0ca                	sw	s2,96(sp)
   183ea:	cece                	sw	s3,92(sp)
   183ec:	892a                	mv	s2,a0
   183ee:	4489                	li	s1,2
   183f0:	009101a3          	sb	s1,3(sp)
   183f4:	0040                	addi	s0,sp,4
   183f6:	04800613          	li	a2,72
   183fa:	8522                	mv	a0,s0
   183fc:	00008097          	auipc	ra,0x8
   18400:	820080e7          	jalr	-2016(ra) # 1fc1c <memcpy>
   18404:	04d10993          	addi	s3,sp,77
   18408:	463d                	li	a2,15
   1840a:	854e                	mv	a0,s3
   1840c:	4581                	li	a1,0
   1840e:	00007097          	auipc	ra,0x7
   18412:	7a2080e7          	jalr	1954(ra) # 1fbb0 <memset>
   18416:	8622                	mv	a2,s0
   18418:	04910623          	sb	s1,76(sp)
   1841c:	6505                	lui	a0,0x1
   1841e:	4791                	li	a5,4
   18420:	45a1                	li	a1,8
   18422:	11d50513          	addi	a0,a0,285 # 111d <.Lline_table_start1+0xef2>
   18426:	04800693          	li	a3,72
   1842a:	4711                	li	a4,4
   1842c:	00000073          	ecall
   18430:	00950463          	beq	a0,s1,18438 <_ZN20complex_dynamic_type3app17hb6283a5bbf7eb829E+0x58>
   18434:	00f101a3          	sb	a5,3(sp)
   18438:	4609                	li	a2,2
   1843a:	00c51463          	bne	a0,a2,18442 <_ZN20complex_dynamic_type3app17hb6283a5bbf7eb829E+0x62>
   1843e:	4785                	li	a5,1
   18440:	a851                	j	184d4 <_ZN20complex_dynamic_type3app17hb6283a5bbf7eb829E+0xf4>
   18442:	04c14503          	lbu	a0,76(sp)
   18446:	4785                	li	a5,1
   18448:	02c51263          	bne	a0,a2,1846c <_ZN20complex_dynamic_type3app17hb6283a5bbf7eb829E+0x8c>
   1844c:	864e                	mv	a2,s3
   1844e:	6505                	lui	a0,0x1
   18450:	45a5                	li	a1,9
   18452:	46bd                	li	a3,15
   18454:	470d                	li	a4,3
   18456:	11d50513          	addi	a0,a0,285 # 111d <.Lline_table_start1+0xef2>
   1845a:	4489                	li	s1,2
   1845c:	00000073          	ecall
   18460:	460d                	li	a2,3
   18462:	00951963          	bne	a0,s1,18474 <_ZN20complex_dynamic_type3app17hb6283a5bbf7eb829E+0x94>
   18466:	4505                	li	a0,1
   18468:	c911                	beqz	a0,1847c <_ZN20complex_dynamic_type3app17hb6283a5bbf7eb829E+0x9c>
   1846a:	a0ad                	j	184d4 <_ZN20complex_dynamic_type3app17hb6283a5bbf7eb829E+0xf4>
   1846c:	458d                	li	a1,3
   1846e:	4505                	li	a0,1
   18470:	c511                	beqz	a0,1847c <_ZN20complex_dynamic_type3app17hb6283a5bbf7eb829E+0x9c>
   18472:	a08d                	j	184d4 <_ZN20complex_dynamic_type3app17hb6283a5bbf7eb829E+0xf4>
   18474:	4501                	li	a0,0
   18476:	04c10623          	sb	a2,76(sp)
   1847a:	ed29                	bnez	a0,184d4 <_ZN20complex_dynamic_type3app17hb6283a5bbf7eb829E+0xf4>
   1847c:	4681                	li	a3,0
   1847e:	6505                	lui	a0,0x1
   18480:	45a1                	li	a1,8
   18482:	4625                	li	a2,9
   18484:	4709                	li	a4,2
   18486:	11d50513          	addi	a0,a0,285 # 111d <.Lline_table_start1+0xef2>
   1848a:	07f00493          	li	s1,127
   1848e:	00000073          	ecall
   18492:	4689                	li	a3,2
   18494:	04a4f063          	bgeu	s1,a0,184d4 <_ZN20complex_dynamic_type3app17hb6283a5bbf7eb829E+0xf4>
   18498:	00314603          	lbu	a2,3(sp)
   1849c:	00d60a63          	beq	a2,a3,184b0 <_ZN20complex_dynamic_type3app17hb6283a5bbf7eb829E+0xd0>
   184a0:	6505                	lui	a0,0x1
   184a2:	11d50513          	addi	a0,a0,285 # 111d <.Lline_table_start1+0xef2>
   184a6:	45a1                	li	a1,8
   184a8:	00007097          	auipc	ra,0x7
   184ac:	6fc080e7          	jalr	1788(ra) # 1fba4 <_ZN9allow_pin12dynamic_type7unshare17h0269127f30dbe29bE>
   184b0:	04c14603          	lbu	a2,76(sp)
   184b4:	4409                	li	s0,2
   184b6:	008101a3          	sb	s0,3(sp)
   184ba:	00860a63          	beq	a2,s0,184ce <_ZN20complex_dynamic_type3app17hb6283a5bbf7eb829E+0xee>
   184be:	6505                	lui	a0,0x1
   184c0:	11d50513          	addi	a0,a0,285 # 111d <.Lline_table_start1+0xef2>
   184c4:	45a5                	li	a1,9
   184c6:	00007097          	auipc	ra,0x7
   184ca:	6de080e7          	jalr	1758(ra) # 1fba4 <_ZN9allow_pin12dynamic_type7unshare17h0269127f30dbe29bE>
   184ce:	4781                	li	a5,0
   184d0:	04810623          	sb	s0,76(sp)
   184d4:	cb85                	beqz	a5,18504 <_ZN20complex_dynamic_type3app17hb6283a5bbf7eb829E+0x124>
   184d6:	04c14603          	lbu	a2,76(sp)
   184da:	4505                	li	a0,1
   184dc:	4409                	li	s0,2
   184de:	00a90023          	sb	a0,0(s2)
   184e2:	00b92223          	sw	a1,4(s2)
   184e6:	00860a63          	beq	a2,s0,184fa <_ZN20complex_dynamic_type3app17hb6283a5bbf7eb829E+0x11a>
   184ea:	6505                	lui	a0,0x1
   184ec:	11d50513          	addi	a0,a0,285 # 111d <.Lline_table_start1+0xef2>
   184f0:	45a5                	li	a1,9
   184f2:	00007097          	auipc	ra,0x7
   184f6:	6b2080e7          	jalr	1714(ra) # 1fba4 <_ZN9allow_pin12dynamic_type7unshare17h0269127f30dbe29bE>
   184fa:	00314603          	lbu	a2,3(sp)
   184fe:	04861663          	bne	a2,s0,1854a <_ZN20complex_dynamic_type3app17hb6283a5bbf7eb829E+0x16a>
   18502:	a8a1                	j	1855a <_ZN20complex_dynamic_type3app17hb6283a5bbf7eb829E+0x17a>
   18504:	04c14403          	lbu	s0,76(sp)
   18508:	4489                	li	s1,2
   1850a:	00940663          	beq	s0,s1,18516 <_ZN20complex_dynamic_type3app17hb6283a5bbf7eb829E+0x136>
   1850e:	000109b7          	lui	s3,0x10
   18512:	38c98993          	addi	s3,s3,908 # 1038c <.Lanon.49c9f8067fe4468184af16d7576940c9.11>
   18516:	00190513          	addi	a0,s2,1
   1851a:	463d                	li	a2,15
   1851c:	85ce                	mv	a1,s3
   1851e:	00007097          	auipc	ra,0x7
   18522:	6fe080e7          	jalr	1790(ra) # 1fc1c <memcpy>
   18526:	00090023          	sb	zero,0(s2)
   1852a:	00940b63          	beq	s0,s1,18540 <_ZN20complex_dynamic_type3app17hb6283a5bbf7eb829E+0x160>
   1852e:	6505                	lui	a0,0x1
   18530:	11d50513          	addi	a0,a0,285 # 111d <.Lline_table_start1+0xef2>
   18534:	45a5                	li	a1,9
   18536:	8622                	mv	a2,s0
   18538:	00007097          	auipc	ra,0x7
   1853c:	66c080e7          	jalr	1644(ra) # 1fba4 <_ZN9allow_pin12dynamic_type7unshare17h0269127f30dbe29bE>
   18540:	00314603          	lbu	a2,3(sp)
   18544:	4509                	li	a0,2
   18546:	00a60a63          	beq	a2,a0,1855a <_ZN20complex_dynamic_type3app17hb6283a5bbf7eb829E+0x17a>
   1854a:	6505                	lui	a0,0x1
   1854c:	11d50513          	addi	a0,a0,285 # 111d <.Lline_table_start1+0xef2>
   18550:	45a1                	li	a1,8
   18552:	00007097          	auipc	ra,0x7
   18556:	652080e7          	jalr	1618(ra) # 1fba4 <_ZN9allow_pin12dynamic_type7unshare17h0269127f30dbe29bE>
   1855a:	50b6                	lw	ra,108(sp)
   1855c:	5426                	lw	s0,104(sp)
   1855e:	5496                	lw	s1,100(sp)
   18560:	5906                	lw	s2,96(sp)
   18562:	49f6                	lw	s3,92(sp)
   18564:	6165                	addi	sp,sp,112
   18566:	8082                	ret

00018568 <_ZN20complex_dynamic_type3app17hb85b2d1db81cc407E>:
   18568:	7159                	addi	sp,sp,-112
   1856a:	d686                	sw	ra,108(sp)
   1856c:	d4a2                	sw	s0,104(sp)
   1856e:	d2a6                	sw	s1,100(sp)
   18570:	d0ca                	sw	s2,96(sp)
   18572:	cece                	sw	s3,92(sp)
   18574:	892a                	mv	s2,a0
   18576:	4489                	li	s1,2
   18578:	00910223          	sb	s1,4(sp)
   1857c:	00510413          	addi	s0,sp,5
   18580:	4649                	li	a2,18
   18582:	8522                	mv	a0,s0
   18584:	00007097          	auipc	ra,0x7
   18588:	698080e7          	jalr	1688(ra) # 1fc1c <memcpy>
   1858c:	01810993          	addi	s3,sp,24
   18590:	04400613          	li	a2,68
   18594:	854e                	mv	a0,s3
   18596:	4581                	li	a1,0
   18598:	00007097          	auipc	ra,0x7
   1859c:	618080e7          	jalr	1560(ra) # 1fbb0 <memset>
   185a0:	8622                	mv	a2,s0
   185a2:	00910ba3          	sb	s1,23(sp)
   185a6:	6509                	lui	a0,0x2
   185a8:	4791                	li	a5,4
   185aa:	4589                	li	a1,2
   185ac:	43250513          	addi	a0,a0,1074 # 2432 <.Lline_table_start1+0x2207>
   185b0:	46c9                	li	a3,18
   185b2:	4711                	li	a4,4
   185b4:	00000073          	ecall
   185b8:	00950463          	beq	a0,s1,185c0 <_ZN20complex_dynamic_type3app17hb85b2d1db81cc407E+0x58>
   185bc:	00f10223          	sb	a5,4(sp)
   185c0:	4609                	li	a2,2
   185c2:	00c51463          	bne	a0,a2,185ca <_ZN20complex_dynamic_type3app17hb85b2d1db81cc407E+0x62>
   185c6:	4785                	li	a5,1
   185c8:	a859                	j	1865e <_ZN20complex_dynamic_type3app17hb85b2d1db81cc407E+0xf6>
   185ca:	01714503          	lbu	a0,23(sp)
   185ce:	4785                	li	a5,1
   185d0:	02c51363          	bne	a0,a2,185f6 <_ZN20complex_dynamic_type3app17hb85b2d1db81cc407E+0x8e>
   185d4:	864e                	mv	a2,s3
   185d6:	6509                	lui	a0,0x2
   185d8:	45a5                	li	a1,9
   185da:	04400693          	li	a3,68
   185de:	470d                	li	a4,3
   185e0:	43250513          	addi	a0,a0,1074 # 2432 <.Lline_table_start1+0x2207>
   185e4:	4489                	li	s1,2
   185e6:	00000073          	ecall
   185ea:	460d                	li	a2,3
   185ec:	00951963          	bne	a0,s1,185fe <_ZN20complex_dynamic_type3app17hb85b2d1db81cc407E+0x96>
   185f0:	4505                	li	a0,1
   185f2:	c911                	beqz	a0,18606 <_ZN20complex_dynamic_type3app17hb85b2d1db81cc407E+0x9e>
   185f4:	a0ad                	j	1865e <_ZN20complex_dynamic_type3app17hb85b2d1db81cc407E+0xf6>
   185f6:	458d                	li	a1,3
   185f8:	4505                	li	a0,1
   185fa:	c511                	beqz	a0,18606 <_ZN20complex_dynamic_type3app17hb85b2d1db81cc407E+0x9e>
   185fc:	a08d                	j	1865e <_ZN20complex_dynamic_type3app17hb85b2d1db81cc407E+0xf6>
   185fe:	4501                	li	a0,0
   18600:	00c10ba3          	sb	a2,23(sp)
   18604:	ed29                	bnez	a0,1865e <_ZN20complex_dynamic_type3app17hb85b2d1db81cc407E+0xf6>
   18606:	4681                	li	a3,0
   18608:	6509                	lui	a0,0x2
   1860a:	4589                	li	a1,2
   1860c:	4625                	li	a2,9
   1860e:	4709                	li	a4,2
   18610:	43250513          	addi	a0,a0,1074 # 2432 <.Lline_table_start1+0x2207>
   18614:	07f00493          	li	s1,127
   18618:	00000073          	ecall
   1861c:	4689                	li	a3,2
   1861e:	04a4f063          	bgeu	s1,a0,1865e <_ZN20complex_dynamic_type3app17hb85b2d1db81cc407E+0xf6>
   18622:	00414603          	lbu	a2,4(sp)
   18626:	00d60a63          	beq	a2,a3,1863a <_ZN20complex_dynamic_type3app17hb85b2d1db81cc407E+0xd2>
   1862a:	6509                	lui	a0,0x2
   1862c:	43250513          	addi	a0,a0,1074 # 2432 <.Lline_table_start1+0x2207>
   18630:	4589                	li	a1,2
   18632:	00007097          	auipc	ra,0x7
   18636:	572080e7          	jalr	1394(ra) # 1fba4 <_ZN9allow_pin12dynamic_type7unshare17h0269127f30dbe29bE>
   1863a:	01714603          	lbu	a2,23(sp)
   1863e:	4409                	li	s0,2
   18640:	00810223          	sb	s0,4(sp)
   18644:	00860a63          	beq	a2,s0,18658 <_ZN20complex_dynamic_type3app17hb85b2d1db81cc407E+0xf0>
   18648:	6509                	lui	a0,0x2
   1864a:	43250513          	addi	a0,a0,1074 # 2432 <.Lline_table_start1+0x2207>
   1864e:	45a5                	li	a1,9
   18650:	00007097          	auipc	ra,0x7
   18654:	554080e7          	jalr	1364(ra) # 1fba4 <_ZN9allow_pin12dynamic_type7unshare17h0269127f30dbe29bE>
   18658:	4781                	li	a5,0
   1865a:	00810ba3          	sb	s0,23(sp)
   1865e:	cb85                	beqz	a5,1868e <_ZN20complex_dynamic_type3app17hb85b2d1db81cc407E+0x126>
   18660:	01714603          	lbu	a2,23(sp)
   18664:	4505                	li	a0,1
   18666:	4409                	li	s0,2
   18668:	00a90023          	sb	a0,0(s2)
   1866c:	00b92223          	sw	a1,4(s2)
   18670:	00860a63          	beq	a2,s0,18684 <_ZN20complex_dynamic_type3app17hb85b2d1db81cc407E+0x11c>
   18674:	6509                	lui	a0,0x2
   18676:	43250513          	addi	a0,a0,1074 # 2432 <.Lline_table_start1+0x2207>
   1867a:	45a5                	li	a1,9
   1867c:	00007097          	auipc	ra,0x7
   18680:	528080e7          	jalr	1320(ra) # 1fba4 <_ZN9allow_pin12dynamic_type7unshare17h0269127f30dbe29bE>
   18684:	00414603          	lbu	a2,4(sp)
   18688:	04861763          	bne	a2,s0,186d6 <_ZN20complex_dynamic_type3app17hb85b2d1db81cc407E+0x16e>
   1868c:	a8a9                	j	186e6 <_ZN20complex_dynamic_type3app17hb85b2d1db81cc407E+0x17e>
   1868e:	01714403          	lbu	s0,23(sp)
   18692:	4489                	li	s1,2
   18694:	00940663          	beq	s0,s1,186a0 <_ZN20complex_dynamic_type3app17hb85b2d1db81cc407E+0x138>
   18698:	000109b7          	lui	s3,0x10
   1869c:	43598993          	addi	s3,s3,1077 # 10435 <.Lanon.49c9f8067fe4468184af16d7576940c9.15>
   186a0:	00190513          	addi	a0,s2,1
   186a4:	04400613          	li	a2,68
   186a8:	85ce                	mv	a1,s3
   186aa:	00007097          	auipc	ra,0x7
   186ae:	572080e7          	jalr	1394(ra) # 1fc1c <memcpy>
   186b2:	00090023          	sb	zero,0(s2)
   186b6:	00940b63          	beq	s0,s1,186cc <_ZN20complex_dynamic_type3app17hb85b2d1db81cc407E+0x164>
   186ba:	6509                	lui	a0,0x2
   186bc:	43250513          	addi	a0,a0,1074 # 2432 <.Lline_table_start1+0x2207>
   186c0:	45a5                	li	a1,9
   186c2:	8622                	mv	a2,s0
   186c4:	00007097          	auipc	ra,0x7
   186c8:	4e0080e7          	jalr	1248(ra) # 1fba4 <_ZN9allow_pin12dynamic_type7unshare17h0269127f30dbe29bE>
   186cc:	00414603          	lbu	a2,4(sp)
   186d0:	4509                	li	a0,2
   186d2:	00a60a63          	beq	a2,a0,186e6 <_ZN20complex_dynamic_type3app17hb85b2d1db81cc407E+0x17e>
   186d6:	6509                	lui	a0,0x2
   186d8:	43250513          	addi	a0,a0,1074 # 2432 <.Lline_table_start1+0x2207>
   186dc:	4589                	li	a1,2
   186de:	00007097          	auipc	ra,0x7
   186e2:	4c6080e7          	jalr	1222(ra) # 1fba4 <_ZN9allow_pin12dynamic_type7unshare17h0269127f30dbe29bE>
   186e6:	50b6                	lw	ra,108(sp)
   186e8:	5426                	lw	s0,104(sp)
   186ea:	5496                	lw	s1,100(sp)
   186ec:	5906                	lw	s2,96(sp)
   186ee:	49f6                	lw	s3,92(sp)
   186f0:	6165                	addi	sp,sp,112
   186f2:	8082                	ret

000186f4 <_ZN20complex_dynamic_type3app17hb996a9ad7e02c73dE>:
   186f4:	711d                	addi	sp,sp,-96
   186f6:	ce86                	sw	ra,92(sp)
   186f8:	cca2                	sw	s0,88(sp)
   186fa:	caa6                	sw	s1,84(sp)
   186fc:	c8ca                	sw	s2,80(sp)
   186fe:	c6ce                	sw	s3,76(sp)
   18700:	892a                	mv	s2,a0
   18702:	4489                	li	s1,2
   18704:	009101a3          	sb	s1,3(sp)
   18708:	0040                	addi	s0,sp,4
   1870a:	02300613          	li	a2,35
   1870e:	8522                	mv	a0,s0
   18710:	00007097          	auipc	ra,0x7
   18714:	50c080e7          	jalr	1292(ra) # 1fc1c <memcpy>
   18718:	02810993          	addi	s3,sp,40
   1871c:	02400613          	li	a2,36
   18720:	854e                	mv	a0,s3
   18722:	4581                	li	a1,0
   18724:	00007097          	auipc	ra,0x7
   18728:	48c080e7          	jalr	1164(ra) # 1fbb0 <memset>
   1872c:	8622                	mv	a2,s0
   1872e:	029103a3          	sb	s1,39(sp)
   18732:	6509                	lui	a0,0x2
   18734:	4791                	li	a5,4
   18736:	4591                	li	a1,4
   18738:	bd650513          	addi	a0,a0,-1066 # 1bd6 <.Lline_table_start1+0x19ab>
   1873c:	02300693          	li	a3,35
   18740:	4711                	li	a4,4
   18742:	00000073          	ecall
   18746:	00950463          	beq	a0,s1,1874e <_ZN20complex_dynamic_type3app17hb996a9ad7e02c73dE+0x5a>
   1874a:	00f101a3          	sb	a5,3(sp)
   1874e:	4609                	li	a2,2
   18750:	00c51463          	bne	a0,a2,18758 <_ZN20complex_dynamic_type3app17hb996a9ad7e02c73dE+0x64>
   18754:	4785                	li	a5,1
   18756:	a859                	j	187ec <_ZN20complex_dynamic_type3app17hb996a9ad7e02c73dE+0xf8>
   18758:	02714503          	lbu	a0,39(sp)
   1875c:	4785                	li	a5,1
   1875e:	02c51363          	bne	a0,a2,18784 <_ZN20complex_dynamic_type3app17hb996a9ad7e02c73dE+0x90>
   18762:	864e                	mv	a2,s3
   18764:	6509                	lui	a0,0x2
   18766:	45a1                	li	a1,8
   18768:	02400693          	li	a3,36
   1876c:	470d                	li	a4,3
   1876e:	bd650513          	addi	a0,a0,-1066 # 1bd6 <.Lline_table_start1+0x19ab>
   18772:	4489                	li	s1,2
   18774:	00000073          	ecall
   18778:	460d                	li	a2,3
   1877a:	00951963          	bne	a0,s1,1878c <_ZN20complex_dynamic_type3app17hb996a9ad7e02c73dE+0x98>
   1877e:	4505                	li	a0,1
   18780:	c911                	beqz	a0,18794 <_ZN20complex_dynamic_type3app17hb996a9ad7e02c73dE+0xa0>
   18782:	a0ad                	j	187ec <_ZN20complex_dynamic_type3app17hb996a9ad7e02c73dE+0xf8>
   18784:	458d                	li	a1,3
   18786:	4505                	li	a0,1
   18788:	c511                	beqz	a0,18794 <_ZN20complex_dynamic_type3app17hb996a9ad7e02c73dE+0xa0>
   1878a:	a08d                	j	187ec <_ZN20complex_dynamic_type3app17hb996a9ad7e02c73dE+0xf8>
   1878c:	4501                	li	a0,0
   1878e:	02c103a3          	sb	a2,39(sp)
   18792:	ed29                	bnez	a0,187ec <_ZN20complex_dynamic_type3app17hb996a9ad7e02c73dE+0xf8>
   18794:	4681                	li	a3,0
   18796:	6509                	lui	a0,0x2
   18798:	4591                	li	a1,4
   1879a:	4621                	li	a2,8
   1879c:	4709                	li	a4,2
   1879e:	bd650513          	addi	a0,a0,-1066 # 1bd6 <.Lline_table_start1+0x19ab>
   187a2:	07f00493          	li	s1,127
   187a6:	00000073          	ecall
   187aa:	4689                	li	a3,2
   187ac:	04a4f063          	bgeu	s1,a0,187ec <_ZN20complex_dynamic_type3app17hb996a9ad7e02c73dE+0xf8>
   187b0:	00314603          	lbu	a2,3(sp)
   187b4:	00d60a63          	beq	a2,a3,187c8 <_ZN20complex_dynamic_type3app17hb996a9ad7e02c73dE+0xd4>
   187b8:	6509                	lui	a0,0x2
   187ba:	bd650513          	addi	a0,a0,-1066 # 1bd6 <.Lline_table_start1+0x19ab>
   187be:	4591                	li	a1,4
   187c0:	00007097          	auipc	ra,0x7
   187c4:	3e4080e7          	jalr	996(ra) # 1fba4 <_ZN9allow_pin12dynamic_type7unshare17h0269127f30dbe29bE>
   187c8:	02714603          	lbu	a2,39(sp)
   187cc:	4409                	li	s0,2
   187ce:	008101a3          	sb	s0,3(sp)
   187d2:	00860a63          	beq	a2,s0,187e6 <_ZN20complex_dynamic_type3app17hb996a9ad7e02c73dE+0xf2>
   187d6:	6509                	lui	a0,0x2
   187d8:	bd650513          	addi	a0,a0,-1066 # 1bd6 <.Lline_table_start1+0x19ab>
   187dc:	45a1                	li	a1,8
   187de:	00007097          	auipc	ra,0x7
   187e2:	3c6080e7          	jalr	966(ra) # 1fba4 <_ZN9allow_pin12dynamic_type7unshare17h0269127f30dbe29bE>
   187e6:	4781                	li	a5,0
   187e8:	028103a3          	sb	s0,39(sp)
   187ec:	cb85                	beqz	a5,1881c <_ZN20complex_dynamic_type3app17hb996a9ad7e02c73dE+0x128>
   187ee:	02714603          	lbu	a2,39(sp)
   187f2:	4505                	li	a0,1
   187f4:	4409                	li	s0,2
   187f6:	00a90023          	sb	a0,0(s2)
   187fa:	00b92223          	sw	a1,4(s2)
   187fe:	00860a63          	beq	a2,s0,18812 <_ZN20complex_dynamic_type3app17hb996a9ad7e02c73dE+0x11e>
   18802:	6509                	lui	a0,0x2
   18804:	bd650513          	addi	a0,a0,-1066 # 1bd6 <.Lline_table_start1+0x19ab>
   18808:	45a1                	li	a1,8
   1880a:	00007097          	auipc	ra,0x7
   1880e:	39a080e7          	jalr	922(ra) # 1fba4 <_ZN9allow_pin12dynamic_type7unshare17h0269127f30dbe29bE>
   18812:	00314603          	lbu	a2,3(sp)
   18816:	04861763          	bne	a2,s0,18864 <_ZN20complex_dynamic_type3app17hb996a9ad7e02c73dE+0x170>
   1881a:	a8a9                	j	18874 <_ZN20complex_dynamic_type3app17hb996a9ad7e02c73dE+0x180>
   1881c:	02714403          	lbu	s0,39(sp)
   18820:	4489                	li	s1,2
   18822:	00940663          	beq	s0,s1,1882e <_ZN20complex_dynamic_type3app17hb996a9ad7e02c73dE+0x13a>
   18826:	000119b7          	lui	s3,0x11
   1882a:	bc998993          	addi	s3,s3,-1079 # 10bc9 <.Lanon.49c9f8067fe4468184af16d7576940c9.53>
   1882e:	00190513          	addi	a0,s2,1
   18832:	02400613          	li	a2,36
   18836:	85ce                	mv	a1,s3
   18838:	00007097          	auipc	ra,0x7
   1883c:	3e4080e7          	jalr	996(ra) # 1fc1c <memcpy>
   18840:	00090023          	sb	zero,0(s2)
   18844:	00940b63          	beq	s0,s1,1885a <_ZN20complex_dynamic_type3app17hb996a9ad7e02c73dE+0x166>
   18848:	6509                	lui	a0,0x2
   1884a:	bd650513          	addi	a0,a0,-1066 # 1bd6 <.Lline_table_start1+0x19ab>
   1884e:	45a1                	li	a1,8
   18850:	8622                	mv	a2,s0
   18852:	00007097          	auipc	ra,0x7
   18856:	352080e7          	jalr	850(ra) # 1fba4 <_ZN9allow_pin12dynamic_type7unshare17h0269127f30dbe29bE>
   1885a:	00314603          	lbu	a2,3(sp)
   1885e:	4509                	li	a0,2
   18860:	00a60a63          	beq	a2,a0,18874 <_ZN20complex_dynamic_type3app17hb996a9ad7e02c73dE+0x180>
   18864:	6509                	lui	a0,0x2
   18866:	bd650513          	addi	a0,a0,-1066 # 1bd6 <.Lline_table_start1+0x19ab>
   1886a:	4591                	li	a1,4
   1886c:	00007097          	auipc	ra,0x7
   18870:	338080e7          	jalr	824(ra) # 1fba4 <_ZN9allow_pin12dynamic_type7unshare17h0269127f30dbe29bE>
   18874:	40f6                	lw	ra,92(sp)
   18876:	4466                	lw	s0,88(sp)
   18878:	44d6                	lw	s1,84(sp)
   1887a:	4946                	lw	s2,80(sp)
   1887c:	49b6                	lw	s3,76(sp)
   1887e:	6125                	addi	sp,sp,96
   18880:	8082                	ret

00018882 <_ZN20complex_dynamic_type3app17hbcb377f292bbcb54E>:
   18882:	7171                	addi	sp,sp,-176
   18884:	d706                	sw	ra,172(sp)
   18886:	d522                	sw	s0,168(sp)
   18888:	d326                	sw	s1,164(sp)
   1888a:	d14a                	sw	s2,160(sp)
   1888c:	cf4e                	sw	s3,156(sp)
   1888e:	892a                	mv	s2,a0
   18890:	4489                	li	s1,2
   18892:	009106a3          	sb	s1,13(sp)
   18896:	00e10413          	addi	s0,sp,14
   1889a:	02a00613          	li	a2,42
   1889e:	8522                	mv	a0,s0
   188a0:	00007097          	auipc	ra,0x7
   188a4:	37c080e7          	jalr	892(ra) # 1fc1c <memcpy>
   188a8:	03910993          	addi	s3,sp,57
   188ac:	06300613          	li	a2,99
   188b0:	854e                	mv	a0,s3
   188b2:	4581                	li	a1,0
   188b4:	00007097          	auipc	ra,0x7
   188b8:	2fc080e7          	jalr	764(ra) # 1fbb0 <memset>
   188bc:	8622                	mv	a2,s0
   188be:	02910c23          	sb	s1,56(sp)
   188c2:	6509                	lui	a0,0x2
   188c4:	4791                	li	a5,4
   188c6:	4591                	li	a1,4
   188c8:	c7c50513          	addi	a0,a0,-900 # 1c7c <.Lline_table_start1+0x1a51>
   188cc:	02a00693          	li	a3,42
   188d0:	4711                	li	a4,4
   188d2:	00000073          	ecall
   188d6:	00950463          	beq	a0,s1,188de <_ZN20complex_dynamic_type3app17hbcb377f292bbcb54E+0x5c>
   188da:	00f106a3          	sb	a5,13(sp)
   188de:	4609                	li	a2,2
   188e0:	00c51463          	bne	a0,a2,188e8 <_ZN20complex_dynamic_type3app17hbcb377f292bbcb54E+0x66>
   188e4:	4785                	li	a5,1
   188e6:	a859                	j	1897c <_ZN20complex_dynamic_type3app17hbcb377f292bbcb54E+0xfa>
   188e8:	03814503          	lbu	a0,56(sp)
   188ec:	4785                	li	a5,1
   188ee:	02c51363          	bne	a0,a2,18914 <_ZN20complex_dynamic_type3app17hbcb377f292bbcb54E+0x92>
   188f2:	4581                	li	a1,0
   188f4:	864e                	mv	a2,s3
   188f6:	6509                	lui	a0,0x2
   188f8:	06300693          	li	a3,99
   188fc:	470d                	li	a4,3
   188fe:	c7c50513          	addi	a0,a0,-900 # 1c7c <.Lline_table_start1+0x1a51>
   18902:	4489                	li	s1,2
   18904:	00000073          	ecall
   18908:	460d                	li	a2,3
   1890a:	00951963          	bne	a0,s1,1891c <_ZN20complex_dynamic_type3app17hbcb377f292bbcb54E+0x9a>
   1890e:	4505                	li	a0,1
   18910:	c911                	beqz	a0,18924 <_ZN20complex_dynamic_type3app17hbcb377f292bbcb54E+0xa2>
   18912:	a0ad                	j	1897c <_ZN20complex_dynamic_type3app17hbcb377f292bbcb54E+0xfa>
   18914:	458d                	li	a1,3
   18916:	4505                	li	a0,1
   18918:	c511                	beqz	a0,18924 <_ZN20complex_dynamic_type3app17hbcb377f292bbcb54E+0xa2>
   1891a:	a08d                	j	1897c <_ZN20complex_dynamic_type3app17hbcb377f292bbcb54E+0xfa>
   1891c:	4501                	li	a0,0
   1891e:	02c10c23          	sb	a2,56(sp)
   18922:	ed29                	bnez	a0,1897c <_ZN20complex_dynamic_type3app17hbcb377f292bbcb54E+0xfa>
   18924:	4601                	li	a2,0
   18926:	4681                	li	a3,0
   18928:	6509                	lui	a0,0x2
   1892a:	4591                	li	a1,4
   1892c:	4709                	li	a4,2
   1892e:	c7c50513          	addi	a0,a0,-900 # 1c7c <.Lline_table_start1+0x1a51>
   18932:	07f00493          	li	s1,127
   18936:	00000073          	ecall
   1893a:	4689                	li	a3,2
   1893c:	04a4f063          	bgeu	s1,a0,1897c <_ZN20complex_dynamic_type3app17hbcb377f292bbcb54E+0xfa>
   18940:	00d14603          	lbu	a2,13(sp)
   18944:	00d60a63          	beq	a2,a3,18958 <_ZN20complex_dynamic_type3app17hbcb377f292bbcb54E+0xd6>
   18948:	6509                	lui	a0,0x2
   1894a:	c7c50513          	addi	a0,a0,-900 # 1c7c <.Lline_table_start1+0x1a51>
   1894e:	4591                	li	a1,4
   18950:	00007097          	auipc	ra,0x7
   18954:	254080e7          	jalr	596(ra) # 1fba4 <_ZN9allow_pin12dynamic_type7unshare17h0269127f30dbe29bE>
   18958:	03814603          	lbu	a2,56(sp)
   1895c:	4409                	li	s0,2
   1895e:	008106a3          	sb	s0,13(sp)
   18962:	00860a63          	beq	a2,s0,18976 <_ZN20complex_dynamic_type3app17hbcb377f292bbcb54E+0xf4>
   18966:	6509                	lui	a0,0x2
   18968:	c7c50513          	addi	a0,a0,-900 # 1c7c <.Lline_table_start1+0x1a51>
   1896c:	4581                	li	a1,0
   1896e:	00007097          	auipc	ra,0x7
   18972:	236080e7          	jalr	566(ra) # 1fba4 <_ZN9allow_pin12dynamic_type7unshare17h0269127f30dbe29bE>
   18976:	4781                	li	a5,0
   18978:	02810c23          	sb	s0,56(sp)
   1897c:	cb85                	beqz	a5,189ac <_ZN20complex_dynamic_type3app17hbcb377f292bbcb54E+0x12a>
   1897e:	03814603          	lbu	a2,56(sp)
   18982:	4505                	li	a0,1
   18984:	4409                	li	s0,2
   18986:	00a90023          	sb	a0,0(s2)
   1898a:	00b92223          	sw	a1,4(s2)
   1898e:	00860a63          	beq	a2,s0,189a2 <_ZN20complex_dynamic_type3app17hbcb377f292bbcb54E+0x120>
   18992:	6509                	lui	a0,0x2
   18994:	c7c50513          	addi	a0,a0,-900 # 1c7c <.Lline_table_start1+0x1a51>
   18998:	4581                	li	a1,0
   1899a:	00007097          	auipc	ra,0x7
   1899e:	20a080e7          	jalr	522(ra) # 1fba4 <_ZN9allow_pin12dynamic_type7unshare17h0269127f30dbe29bE>
   189a2:	00d14603          	lbu	a2,13(sp)
   189a6:	04861763          	bne	a2,s0,189f4 <_ZN20complex_dynamic_type3app17hbcb377f292bbcb54E+0x172>
   189aa:	a8a9                	j	18a04 <_ZN20complex_dynamic_type3app17hbcb377f292bbcb54E+0x182>
   189ac:	03814403          	lbu	s0,56(sp)
   189b0:	4489                	li	s1,2
   189b2:	00940663          	beq	s0,s1,189be <_ZN20complex_dynamic_type3app17hbcb377f292bbcb54E+0x13c>
   189b6:	000109b7          	lui	s3,0x10
   189ba:	0d498993          	addi	s3,s3,212 # 100d4 <.Lanon.49c9f8067fe4468184af16d7576940c9.0>
   189be:	00190513          	addi	a0,s2,1
   189c2:	06300613          	li	a2,99
   189c6:	85ce                	mv	a1,s3
   189c8:	00007097          	auipc	ra,0x7
   189cc:	254080e7          	jalr	596(ra) # 1fc1c <memcpy>
   189d0:	00090023          	sb	zero,0(s2)
   189d4:	00940b63          	beq	s0,s1,189ea <_ZN20complex_dynamic_type3app17hbcb377f292bbcb54E+0x168>
   189d8:	6509                	lui	a0,0x2
   189da:	c7c50513          	addi	a0,a0,-900 # 1c7c <.Lline_table_start1+0x1a51>
   189de:	4581                	li	a1,0
   189e0:	8622                	mv	a2,s0
   189e2:	00007097          	auipc	ra,0x7
   189e6:	1c2080e7          	jalr	450(ra) # 1fba4 <_ZN9allow_pin12dynamic_type7unshare17h0269127f30dbe29bE>
   189ea:	00d14603          	lbu	a2,13(sp)
   189ee:	4509                	li	a0,2
   189f0:	00a60a63          	beq	a2,a0,18a04 <_ZN20complex_dynamic_type3app17hbcb377f292bbcb54E+0x182>
   189f4:	6509                	lui	a0,0x2
   189f6:	c7c50513          	addi	a0,a0,-900 # 1c7c <.Lline_table_start1+0x1a51>
   189fa:	4591                	li	a1,4
   189fc:	00007097          	auipc	ra,0x7
   18a00:	1a8080e7          	jalr	424(ra) # 1fba4 <_ZN9allow_pin12dynamic_type7unshare17h0269127f30dbe29bE>
   18a04:	50ba                	lw	ra,172(sp)
   18a06:	542a                	lw	s0,168(sp)
   18a08:	549a                	lw	s1,164(sp)
   18a0a:	590a                	lw	s2,160(sp)
   18a0c:	49fa                	lw	s3,156(sp)
   18a0e:	614d                	addi	sp,sp,176
   18a10:	8082                	ret

00018a12 <_ZN20complex_dynamic_type3app17hc7d9de4582114ddfE>:
   18a12:	7159                	addi	sp,sp,-112
   18a14:	d686                	sw	ra,108(sp)
   18a16:	d4a2                	sw	s0,104(sp)
   18a18:	d2a6                	sw	s1,100(sp)
   18a1a:	d0ca                	sw	s2,96(sp)
   18a1c:	cece                	sw	s3,92(sp)
   18a1e:	892a                	mv	s2,a0
   18a20:	4489                	li	s1,2
   18a22:	009100a3          	sb	s1,1(sp)
   18a26:	00210413          	addi	s0,sp,2
   18a2a:	04100613          	li	a2,65
   18a2e:	8522                	mv	a0,s0
   18a30:	00007097          	auipc	ra,0x7
   18a34:	1ec080e7          	jalr	492(ra) # 1fc1c <memcpy>
   18a38:	04410993          	addi	s3,sp,68
   18a3c:	4661                	li	a2,24
   18a3e:	854e                	mv	a0,s3
   18a40:	4581                	li	a1,0
   18a42:	00007097          	auipc	ra,0x7
   18a46:	16e080e7          	jalr	366(ra) # 1fbb0 <memset>
   18a4a:	8622                	mv	a2,s0
   18a4c:	049101a3          	sb	s1,67(sp)
   18a50:	6509                	lui	a0,0x2
   18a52:	4791                	li	a5,4
   18a54:	4585                	li	a1,1
   18a56:	15650513          	addi	a0,a0,342 # 2156 <.Lline_table_start1+0x1f2b>
   18a5a:	04100693          	li	a3,65
   18a5e:	4711                	li	a4,4
   18a60:	00000073          	ecall
   18a64:	00950463          	beq	a0,s1,18a6c <_ZN20complex_dynamic_type3app17hc7d9de4582114ddfE+0x5a>
   18a68:	00f100a3          	sb	a5,1(sp)
   18a6c:	4609                	li	a2,2
   18a6e:	00c51463          	bne	a0,a2,18a76 <_ZN20complex_dynamic_type3app17hc7d9de4582114ddfE+0x64>
   18a72:	4785                	li	a5,1
   18a74:	a859                	j	18b0a <_ZN20complex_dynamic_type3app17hc7d9de4582114ddfE+0xf8>
   18a76:	04314503          	lbu	a0,67(sp)
   18a7a:	4785                	li	a5,1
   18a7c:	02c51263          	bne	a0,a2,18aa0 <_ZN20complex_dynamic_type3app17hc7d9de4582114ddfE+0x8e>
   18a80:	864e                	mv	a2,s3
   18a82:	6509                	lui	a0,0x2
   18a84:	45a5                	li	a1,9
   18a86:	46e1                	li	a3,24
   18a88:	470d                	li	a4,3
   18a8a:	15650513          	addi	a0,a0,342 # 2156 <.Lline_table_start1+0x1f2b>
   18a8e:	4489                	li	s1,2
   18a90:	00000073          	ecall
   18a94:	460d                	li	a2,3
   18a96:	00951963          	bne	a0,s1,18aa8 <_ZN20complex_dynamic_type3app17hc7d9de4582114ddfE+0x96>
   18a9a:	4505                	li	a0,1
   18a9c:	c911                	beqz	a0,18ab0 <_ZN20complex_dynamic_type3app17hc7d9de4582114ddfE+0x9e>
   18a9e:	a0b5                	j	18b0a <_ZN20complex_dynamic_type3app17hc7d9de4582114ddfE+0xf8>
   18aa0:	458d                	li	a1,3
   18aa2:	4505                	li	a0,1
   18aa4:	c511                	beqz	a0,18ab0 <_ZN20complex_dynamic_type3app17hc7d9de4582114ddfE+0x9e>
   18aa6:	a095                	j	18b0a <_ZN20complex_dynamic_type3app17hc7d9de4582114ddfE+0xf8>
   18aa8:	4501                	li	a0,0
   18aaa:	04c101a3          	sb	a2,67(sp)
   18aae:	ed31                	bnez	a0,18b0a <_ZN20complex_dynamic_type3app17hc7d9de4582114ddfE+0xf8>
   18ab0:	4681                	li	a3,0
   18ab2:	6509                	lui	a0,0x2
   18ab4:	4785                	li	a5,1
   18ab6:	4585                	li	a1,1
   18ab8:	4625                	li	a2,9
   18aba:	4709                	li	a4,2
   18abc:	15650513          	addi	a0,a0,342 # 2156 <.Lline_table_start1+0x1f2b>
   18ac0:	07f00493          	li	s1,127
   18ac4:	00000073          	ecall
   18ac8:	4689                	li	a3,2
   18aca:	04a4f063          	bgeu	s1,a0,18b0a <_ZN20complex_dynamic_type3app17hc7d9de4582114ddfE+0xf8>
   18ace:	00114603          	lbu	a2,1(sp)
   18ad2:	00d60a63          	beq	a2,a3,18ae6 <_ZN20complex_dynamic_type3app17hc7d9de4582114ddfE+0xd4>
   18ad6:	6509                	lui	a0,0x2
   18ad8:	15650513          	addi	a0,a0,342 # 2156 <.Lline_table_start1+0x1f2b>
   18adc:	4585                	li	a1,1
   18ade:	00007097          	auipc	ra,0x7
   18ae2:	0c6080e7          	jalr	198(ra) # 1fba4 <_ZN9allow_pin12dynamic_type7unshare17h0269127f30dbe29bE>
   18ae6:	04314603          	lbu	a2,67(sp)
   18aea:	4409                	li	s0,2
   18aec:	008100a3          	sb	s0,1(sp)
   18af0:	00860a63          	beq	a2,s0,18b04 <_ZN20complex_dynamic_type3app17hc7d9de4582114ddfE+0xf2>
   18af4:	6509                	lui	a0,0x2
   18af6:	15650513          	addi	a0,a0,342 # 2156 <.Lline_table_start1+0x1f2b>
   18afa:	45a5                	li	a1,9
   18afc:	00007097          	auipc	ra,0x7
   18b00:	0a8080e7          	jalr	168(ra) # 1fba4 <_ZN9allow_pin12dynamic_type7unshare17h0269127f30dbe29bE>
   18b04:	4781                	li	a5,0
   18b06:	048101a3          	sb	s0,67(sp)
   18b0a:	cb85                	beqz	a5,18b3a <_ZN20complex_dynamic_type3app17hc7d9de4582114ddfE+0x128>
   18b0c:	04314603          	lbu	a2,67(sp)
   18b10:	4505                	li	a0,1
   18b12:	4409                	li	s0,2
   18b14:	00a90023          	sb	a0,0(s2)
   18b18:	00b92223          	sw	a1,4(s2)
   18b1c:	00860a63          	beq	a2,s0,18b30 <_ZN20complex_dynamic_type3app17hc7d9de4582114ddfE+0x11e>
   18b20:	6509                	lui	a0,0x2
   18b22:	15650513          	addi	a0,a0,342 # 2156 <.Lline_table_start1+0x1f2b>
   18b26:	45a5                	li	a1,9
   18b28:	00007097          	auipc	ra,0x7
   18b2c:	07c080e7          	jalr	124(ra) # 1fba4 <_ZN9allow_pin12dynamic_type7unshare17h0269127f30dbe29bE>
   18b30:	00114603          	lbu	a2,1(sp)
   18b34:	04861663          	bne	a2,s0,18b80 <_ZN20complex_dynamic_type3app17hc7d9de4582114ddfE+0x16e>
   18b38:	a8a1                	j	18b90 <_ZN20complex_dynamic_type3app17hc7d9de4582114ddfE+0x17e>
   18b3a:	04314403          	lbu	s0,67(sp)
   18b3e:	4489                	li	s1,2
   18b40:	00940663          	beq	s0,s1,18b4c <_ZN20complex_dynamic_type3app17hc7d9de4582114ddfE+0x13a>
   18b44:	000119b7          	lui	s3,0x11
   18b48:	ae498993          	addi	s3,s3,-1308 # 10ae4 <.Lanon.49c9f8067fe4468184af16d7576940c9.49>
   18b4c:	00190513          	addi	a0,s2,1
   18b50:	4661                	li	a2,24
   18b52:	85ce                	mv	a1,s3
   18b54:	00007097          	auipc	ra,0x7
   18b58:	0c8080e7          	jalr	200(ra) # 1fc1c <memcpy>
   18b5c:	00090023          	sb	zero,0(s2)
   18b60:	00940b63          	beq	s0,s1,18b76 <_ZN20complex_dynamic_type3app17hc7d9de4582114ddfE+0x164>
   18b64:	6509                	lui	a0,0x2
   18b66:	15650513          	addi	a0,a0,342 # 2156 <.Lline_table_start1+0x1f2b>
   18b6a:	45a5                	li	a1,9
   18b6c:	8622                	mv	a2,s0
   18b6e:	00007097          	auipc	ra,0x7
   18b72:	036080e7          	jalr	54(ra) # 1fba4 <_ZN9allow_pin12dynamic_type7unshare17h0269127f30dbe29bE>
   18b76:	00114603          	lbu	a2,1(sp)
   18b7a:	4509                	li	a0,2
   18b7c:	00a60a63          	beq	a2,a0,18b90 <_ZN20complex_dynamic_type3app17hc7d9de4582114ddfE+0x17e>
   18b80:	6509                	lui	a0,0x2
   18b82:	15650513          	addi	a0,a0,342 # 2156 <.Lline_table_start1+0x1f2b>
   18b86:	4585                	li	a1,1
   18b88:	00007097          	auipc	ra,0x7
   18b8c:	01c080e7          	jalr	28(ra) # 1fba4 <_ZN9allow_pin12dynamic_type7unshare17h0269127f30dbe29bE>
   18b90:	50b6                	lw	ra,108(sp)
   18b92:	5426                	lw	s0,104(sp)
   18b94:	5496                	lw	s1,100(sp)
   18b96:	5906                	lw	s2,96(sp)
   18b98:	49f6                	lw	s3,92(sp)
   18b9a:	6165                	addi	sp,sp,112
   18b9c:	8082                	ret

00018b9e <_ZN20complex_dynamic_type3app17hc8cb1c64ff44d610E>:
   18b9e:	7175                	addi	sp,sp,-144
   18ba0:	c706                	sw	ra,140(sp)
   18ba2:	c522                	sw	s0,136(sp)
   18ba4:	c326                	sw	s1,132(sp)
   18ba6:	c14a                	sw	s2,128(sp)
   18ba8:	dece                	sw	s3,124(sp)
   18baa:	892a                	mv	s2,a0
   18bac:	4489                	li	s1,2
   18bae:	009105a3          	sb	s1,11(sp)
   18bb2:	0060                	addi	s0,sp,12
   18bb4:	4679                	li	a2,30
   18bb6:	8522                	mv	a0,s0
   18bb8:	00007097          	auipc	ra,0x7
   18bbc:	064080e7          	jalr	100(ra) # 1fc1c <memcpy>
   18bc0:	02b10993          	addi	s3,sp,43
   18bc4:	05100613          	li	a2,81
   18bc8:	854e                	mv	a0,s3
   18bca:	4581                	li	a1,0
   18bcc:	00007097          	auipc	ra,0x7
   18bd0:	fe4080e7          	jalr	-28(ra) # 1fbb0 <memset>
   18bd4:	8622                	mv	a2,s0
   18bd6:	02910523          	sb	s1,42(sp)
   18bda:	6509                	lui	a0,0x2
   18bdc:	4791                	li	a5,4
   18bde:	4589                	li	a1,2
   18be0:	96b50513          	addi	a0,a0,-1685 # 196b <.Lline_table_start1+0x1740>
   18be4:	46f9                	li	a3,30
   18be6:	4711                	li	a4,4
   18be8:	00000073          	ecall
   18bec:	00950463          	beq	a0,s1,18bf4 <_ZN20complex_dynamic_type3app17hc8cb1c64ff44d610E+0x56>
   18bf0:	00f105a3          	sb	a5,11(sp)
   18bf4:	4609                	li	a2,2
   18bf6:	00c51463          	bne	a0,a2,18bfe <_ZN20complex_dynamic_type3app17hc8cb1c64ff44d610E+0x60>
   18bfa:	4785                	li	a5,1
   18bfc:	a859                	j	18c92 <_ZN20complex_dynamic_type3app17hc8cb1c64ff44d610E+0xf4>
   18bfe:	02a14503          	lbu	a0,42(sp)
   18c02:	4785                	li	a5,1
   18c04:	02c51363          	bne	a0,a2,18c2a <_ZN20complex_dynamic_type3app17hc8cb1c64ff44d610E+0x8c>
   18c08:	4581                	li	a1,0
   18c0a:	864e                	mv	a2,s3
   18c0c:	6509                	lui	a0,0x2
   18c0e:	05100693          	li	a3,81
   18c12:	470d                	li	a4,3
   18c14:	96b50513          	addi	a0,a0,-1685 # 196b <.Lline_table_start1+0x1740>
   18c18:	4489                	li	s1,2
   18c1a:	00000073          	ecall
   18c1e:	460d                	li	a2,3
   18c20:	00951963          	bne	a0,s1,18c32 <_ZN20complex_dynamic_type3app17hc8cb1c64ff44d610E+0x94>
   18c24:	4505                	li	a0,1
   18c26:	c911                	beqz	a0,18c3a <_ZN20complex_dynamic_type3app17hc8cb1c64ff44d610E+0x9c>
   18c28:	a0ad                	j	18c92 <_ZN20complex_dynamic_type3app17hc8cb1c64ff44d610E+0xf4>
   18c2a:	458d                	li	a1,3
   18c2c:	4505                	li	a0,1
   18c2e:	c511                	beqz	a0,18c3a <_ZN20complex_dynamic_type3app17hc8cb1c64ff44d610E+0x9c>
   18c30:	a08d                	j	18c92 <_ZN20complex_dynamic_type3app17hc8cb1c64ff44d610E+0xf4>
   18c32:	4501                	li	a0,0
   18c34:	02c10523          	sb	a2,42(sp)
   18c38:	ed29                	bnez	a0,18c92 <_ZN20complex_dynamic_type3app17hc8cb1c64ff44d610E+0xf4>
   18c3a:	4601                	li	a2,0
   18c3c:	4681                	li	a3,0
   18c3e:	6509                	lui	a0,0x2
   18c40:	4589                	li	a1,2
   18c42:	4709                	li	a4,2
   18c44:	96b50513          	addi	a0,a0,-1685 # 196b <.Lline_table_start1+0x1740>
   18c48:	07f00493          	li	s1,127
   18c4c:	00000073          	ecall
   18c50:	4689                	li	a3,2
   18c52:	04a4f063          	bgeu	s1,a0,18c92 <_ZN20complex_dynamic_type3app17hc8cb1c64ff44d610E+0xf4>
   18c56:	00b14603          	lbu	a2,11(sp)
   18c5a:	00d60a63          	beq	a2,a3,18c6e <_ZN20complex_dynamic_type3app17hc8cb1c64ff44d610E+0xd0>
   18c5e:	6509                	lui	a0,0x2
   18c60:	96b50513          	addi	a0,a0,-1685 # 196b <.Lline_table_start1+0x1740>
   18c64:	4589                	li	a1,2
   18c66:	00007097          	auipc	ra,0x7
   18c6a:	f3e080e7          	jalr	-194(ra) # 1fba4 <_ZN9allow_pin12dynamic_type7unshare17h0269127f30dbe29bE>
   18c6e:	02a14603          	lbu	a2,42(sp)
   18c72:	4409                	li	s0,2
   18c74:	008105a3          	sb	s0,11(sp)
   18c78:	00860a63          	beq	a2,s0,18c8c <_ZN20complex_dynamic_type3app17hc8cb1c64ff44d610E+0xee>
   18c7c:	6509                	lui	a0,0x2
   18c7e:	96b50513          	addi	a0,a0,-1685 # 196b <.Lline_table_start1+0x1740>
   18c82:	4581                	li	a1,0
   18c84:	00007097          	auipc	ra,0x7
   18c88:	f20080e7          	jalr	-224(ra) # 1fba4 <_ZN9allow_pin12dynamic_type7unshare17h0269127f30dbe29bE>
   18c8c:	4781                	li	a5,0
   18c8e:	02810523          	sb	s0,42(sp)
   18c92:	cb85                	beqz	a5,18cc2 <_ZN20complex_dynamic_type3app17hc8cb1c64ff44d610E+0x124>
   18c94:	02a14603          	lbu	a2,42(sp)
   18c98:	4505                	li	a0,1
   18c9a:	4409                	li	s0,2
   18c9c:	00a90023          	sb	a0,0(s2)
   18ca0:	00b92223          	sw	a1,4(s2)
   18ca4:	00860a63          	beq	a2,s0,18cb8 <_ZN20complex_dynamic_type3app17hc8cb1c64ff44d610E+0x11a>
   18ca8:	6509                	lui	a0,0x2
   18caa:	96b50513          	addi	a0,a0,-1685 # 196b <.Lline_table_start1+0x1740>
   18cae:	4581                	li	a1,0
   18cb0:	00007097          	auipc	ra,0x7
   18cb4:	ef4080e7          	jalr	-268(ra) # 1fba4 <_ZN9allow_pin12dynamic_type7unshare17h0269127f30dbe29bE>
   18cb8:	00b14603          	lbu	a2,11(sp)
   18cbc:	04861763          	bne	a2,s0,18d0a <_ZN20complex_dynamic_type3app17hc8cb1c64ff44d610E+0x16c>
   18cc0:	a8a9                	j	18d1a <_ZN20complex_dynamic_type3app17hc8cb1c64ff44d610E+0x17c>
   18cc2:	02a14403          	lbu	s0,42(sp)
   18cc6:	4489                	li	s1,2
   18cc8:	00940663          	beq	s0,s1,18cd4 <_ZN20complex_dynamic_type3app17hc8cb1c64ff44d610E+0x136>
   18ccc:	000109b7          	lui	s3,0x10
   18cd0:	13798993          	addi	s3,s3,311 # 10137 <.Lanon.49c9f8067fe4468184af16d7576940c9.1>
   18cd4:	00190513          	addi	a0,s2,1
   18cd8:	05100613          	li	a2,81
   18cdc:	85ce                	mv	a1,s3
   18cde:	00007097          	auipc	ra,0x7
   18ce2:	f3e080e7          	jalr	-194(ra) # 1fc1c <memcpy>
   18ce6:	00090023          	sb	zero,0(s2)
   18cea:	00940b63          	beq	s0,s1,18d00 <_ZN20complex_dynamic_type3app17hc8cb1c64ff44d610E+0x162>
   18cee:	6509                	lui	a0,0x2
   18cf0:	96b50513          	addi	a0,a0,-1685 # 196b <.Lline_table_start1+0x1740>
   18cf4:	4581                	li	a1,0
   18cf6:	8622                	mv	a2,s0
   18cf8:	00007097          	auipc	ra,0x7
   18cfc:	eac080e7          	jalr	-340(ra) # 1fba4 <_ZN9allow_pin12dynamic_type7unshare17h0269127f30dbe29bE>
   18d00:	00b14603          	lbu	a2,11(sp)
   18d04:	4509                	li	a0,2
   18d06:	00a60a63          	beq	a2,a0,18d1a <_ZN20complex_dynamic_type3app17hc8cb1c64ff44d610E+0x17c>
   18d0a:	6509                	lui	a0,0x2
   18d0c:	96b50513          	addi	a0,a0,-1685 # 196b <.Lline_table_start1+0x1740>
   18d10:	4589                	li	a1,2
   18d12:	00007097          	auipc	ra,0x7
   18d16:	e92080e7          	jalr	-366(ra) # 1fba4 <_ZN9allow_pin12dynamic_type7unshare17h0269127f30dbe29bE>
   18d1a:	40ba                	lw	ra,140(sp)
   18d1c:	442a                	lw	s0,136(sp)
   18d1e:	449a                	lw	s1,132(sp)
   18d20:	490a                	lw	s2,128(sp)
   18d22:	59f6                	lw	s3,124(sp)
   18d24:	6149                	addi	sp,sp,144
   18d26:	8082                	ret

00018d28 <_ZN20complex_dynamic_type3app17hcdf0e7eab20a34d8E>:
   18d28:	7175                	addi	sp,sp,-144
   18d2a:	c706                	sw	ra,140(sp)
   18d2c:	c522                	sw	s0,136(sp)
   18d2e:	c326                	sw	s1,132(sp)
   18d30:	c14a                	sw	s2,128(sp)
   18d32:	dece                	sw	s3,124(sp)
   18d34:	892a                	mv	s2,a0
   18d36:	4489                	li	s1,2
   18d38:	009104a3          	sb	s1,9(sp)
   18d3c:	00a10413          	addi	s0,sp,10
   18d40:	04000613          	li	a2,64
   18d44:	8522                	mv	a0,s0
   18d46:	00007097          	auipc	ra,0x7
   18d4a:	ed6080e7          	jalr	-298(ra) # 1fc1c <memcpy>
   18d4e:	04b10993          	addi	s3,sp,75
   18d52:	03100613          	li	a2,49
   18d56:	854e                	mv	a0,s3
   18d58:	4581                	li	a1,0
   18d5a:	00007097          	auipc	ra,0x7
   18d5e:	e56080e7          	jalr	-426(ra) # 1fbb0 <memset>
   18d62:	8622                	mv	a2,s0
   18d64:	04910523          	sb	s1,74(sp)
   18d68:	6505                	lui	a0,0x1
   18d6a:	4791                	li	a5,4
   18d6c:	45a1                	li	a1,8
   18d6e:	fce50513          	addi	a0,a0,-50 # fce <.Lline_table_start1+0xda3>
   18d72:	04000693          	li	a3,64
   18d76:	4711                	li	a4,4
   18d78:	00000073          	ecall
   18d7c:	00950463          	beq	a0,s1,18d84 <_ZN20complex_dynamic_type3app17hcdf0e7eab20a34d8E+0x5c>
   18d80:	00f104a3          	sb	a5,9(sp)
   18d84:	4609                	li	a2,2
   18d86:	00c51463          	bne	a0,a2,18d8e <_ZN20complex_dynamic_type3app17hcdf0e7eab20a34d8E+0x66>
   18d8a:	4785                	li	a5,1
   18d8c:	a859                	j	18e22 <_ZN20complex_dynamic_type3app17hcdf0e7eab20a34d8E+0xfa>
   18d8e:	04a14503          	lbu	a0,74(sp)
   18d92:	4785                	li	a5,1
   18d94:	02c51363          	bne	a0,a2,18dba <_ZN20complex_dynamic_type3app17hcdf0e7eab20a34d8E+0x92>
   18d98:	864e                	mv	a2,s3
   18d9a:	6505                	lui	a0,0x1
   18d9c:	4595                	li	a1,5
   18d9e:	03100693          	li	a3,49
   18da2:	470d                	li	a4,3
   18da4:	fce50513          	addi	a0,a0,-50 # fce <.Lline_table_start1+0xda3>
   18da8:	4489                	li	s1,2
   18daa:	00000073          	ecall
   18dae:	460d                	li	a2,3
   18db0:	00951963          	bne	a0,s1,18dc2 <_ZN20complex_dynamic_type3app17hcdf0e7eab20a34d8E+0x9a>
   18db4:	4505                	li	a0,1
   18db6:	c911                	beqz	a0,18dca <_ZN20complex_dynamic_type3app17hcdf0e7eab20a34d8E+0xa2>
   18db8:	a0ad                	j	18e22 <_ZN20complex_dynamic_type3app17hcdf0e7eab20a34d8E+0xfa>
   18dba:	458d                	li	a1,3
   18dbc:	4505                	li	a0,1
   18dbe:	c511                	beqz	a0,18dca <_ZN20complex_dynamic_type3app17hcdf0e7eab20a34d8E+0xa2>
   18dc0:	a08d                	j	18e22 <_ZN20complex_dynamic_type3app17hcdf0e7eab20a34d8E+0xfa>
   18dc2:	4501                	li	a0,0
   18dc4:	04c10523          	sb	a2,74(sp)
   18dc8:	ed29                	bnez	a0,18e22 <_ZN20complex_dynamic_type3app17hcdf0e7eab20a34d8E+0xfa>
   18dca:	4681                	li	a3,0
   18dcc:	6505                	lui	a0,0x1
   18dce:	45a1                	li	a1,8
   18dd0:	4615                	li	a2,5
   18dd2:	4709                	li	a4,2
   18dd4:	fce50513          	addi	a0,a0,-50 # fce <.Lline_table_start1+0xda3>
   18dd8:	07f00493          	li	s1,127
   18ddc:	00000073          	ecall
   18de0:	4689                	li	a3,2
   18de2:	04a4f063          	bgeu	s1,a0,18e22 <_ZN20complex_dynamic_type3app17hcdf0e7eab20a34d8E+0xfa>
   18de6:	00914603          	lbu	a2,9(sp)
   18dea:	00d60a63          	beq	a2,a3,18dfe <_ZN20complex_dynamic_type3app17hcdf0e7eab20a34d8E+0xd6>
   18dee:	6505                	lui	a0,0x1
   18df0:	fce50513          	addi	a0,a0,-50 # fce <.Lline_table_start1+0xda3>
   18df4:	45a1                	li	a1,8
   18df6:	00007097          	auipc	ra,0x7
   18dfa:	dae080e7          	jalr	-594(ra) # 1fba4 <_ZN9allow_pin12dynamic_type7unshare17h0269127f30dbe29bE>
   18dfe:	04a14603          	lbu	a2,74(sp)
   18e02:	4409                	li	s0,2
   18e04:	008104a3          	sb	s0,9(sp)
   18e08:	00860a63          	beq	a2,s0,18e1c <_ZN20complex_dynamic_type3app17hcdf0e7eab20a34d8E+0xf4>
   18e0c:	6505                	lui	a0,0x1
   18e0e:	fce50513          	addi	a0,a0,-50 # fce <.Lline_table_start1+0xda3>
   18e12:	4595                	li	a1,5
   18e14:	00007097          	auipc	ra,0x7
   18e18:	d90080e7          	jalr	-624(ra) # 1fba4 <_ZN9allow_pin12dynamic_type7unshare17h0269127f30dbe29bE>
   18e1c:	4781                	li	a5,0
   18e1e:	04810523          	sb	s0,74(sp)
   18e22:	cb85                	beqz	a5,18e52 <_ZN20complex_dynamic_type3app17hcdf0e7eab20a34d8E+0x12a>
   18e24:	04a14603          	lbu	a2,74(sp)
   18e28:	4505                	li	a0,1
   18e2a:	4409                	li	s0,2
   18e2c:	00a90023          	sb	a0,0(s2)
   18e30:	00b92223          	sw	a1,4(s2)
   18e34:	00860a63          	beq	a2,s0,18e48 <_ZN20complex_dynamic_type3app17hcdf0e7eab20a34d8E+0x120>
   18e38:	6505                	lui	a0,0x1
   18e3a:	fce50513          	addi	a0,a0,-50 # fce <.Lline_table_start1+0xda3>
   18e3e:	4595                	li	a1,5
   18e40:	00007097          	auipc	ra,0x7
   18e44:	d64080e7          	jalr	-668(ra) # 1fba4 <_ZN9allow_pin12dynamic_type7unshare17h0269127f30dbe29bE>
   18e48:	00914603          	lbu	a2,9(sp)
   18e4c:	04861763          	bne	a2,s0,18e9a <_ZN20complex_dynamic_type3app17hcdf0e7eab20a34d8E+0x172>
   18e50:	a8a9                	j	18eaa <_ZN20complex_dynamic_type3app17hcdf0e7eab20a34d8E+0x182>
   18e52:	04a14403          	lbu	s0,74(sp)
   18e56:	4489                	li	s1,2
   18e58:	00940663          	beq	s0,s1,18e64 <_ZN20complex_dynamic_type3app17hcdf0e7eab20a34d8E+0x13c>
   18e5c:	000109b7          	lui	s3,0x10
   18e60:	50198993          	addi	s3,s3,1281 # 10501 <.Lanon.49c9f8067fe4468184af16d7576940c9.20>
   18e64:	00190513          	addi	a0,s2,1
   18e68:	03100613          	li	a2,49
   18e6c:	85ce                	mv	a1,s3
   18e6e:	00007097          	auipc	ra,0x7
   18e72:	dae080e7          	jalr	-594(ra) # 1fc1c <memcpy>
   18e76:	00090023          	sb	zero,0(s2)
   18e7a:	00940b63          	beq	s0,s1,18e90 <_ZN20complex_dynamic_type3app17hcdf0e7eab20a34d8E+0x168>
   18e7e:	6505                	lui	a0,0x1
   18e80:	fce50513          	addi	a0,a0,-50 # fce <.Lline_table_start1+0xda3>
   18e84:	4595                	li	a1,5
   18e86:	8622                	mv	a2,s0
   18e88:	00007097          	auipc	ra,0x7
   18e8c:	d1c080e7          	jalr	-740(ra) # 1fba4 <_ZN9allow_pin12dynamic_type7unshare17h0269127f30dbe29bE>
   18e90:	00914603          	lbu	a2,9(sp)
   18e94:	4509                	li	a0,2
   18e96:	00a60a63          	beq	a2,a0,18eaa <_ZN20complex_dynamic_type3app17hcdf0e7eab20a34d8E+0x182>
   18e9a:	6505                	lui	a0,0x1
   18e9c:	fce50513          	addi	a0,a0,-50 # fce <.Lline_table_start1+0xda3>
   18ea0:	45a1                	li	a1,8
   18ea2:	00007097          	auipc	ra,0x7
   18ea6:	d02080e7          	jalr	-766(ra) # 1fba4 <_ZN9allow_pin12dynamic_type7unshare17h0269127f30dbe29bE>
   18eaa:	40ba                	lw	ra,140(sp)
   18eac:	442a                	lw	s0,136(sp)
   18eae:	449a                	lw	s1,132(sp)
   18eb0:	490a                	lw	s2,128(sp)
   18eb2:	59f6                	lw	s3,124(sp)
   18eb4:	6149                	addi	sp,sp,144
   18eb6:	8082                	ret

00018eb8 <_ZN20complex_dynamic_type3app17hcff9d58412fb6c41E>:
   18eb8:	7119                	addi	sp,sp,-128
   18eba:	de86                	sw	ra,124(sp)
   18ebc:	dca2                	sw	s0,120(sp)
   18ebe:	daa6                	sw	s1,116(sp)
   18ec0:	d8ca                	sw	s2,112(sp)
   18ec2:	d6ce                	sw	s3,108(sp)
   18ec4:	892a                	mv	s2,a0
   18ec6:	4489                	li	s1,2
   18ec8:	00910423          	sb	s1,8(sp)
   18ecc:	00910413          	addi	s0,sp,9
   18ed0:	03400613          	li	a2,52
   18ed4:	8522                	mv	a0,s0
   18ed6:	00007097          	auipc	ra,0x7
   18eda:	d46080e7          	jalr	-698(ra) # 1fc1c <memcpy>
   18ede:	03e10993          	addi	s3,sp,62
   18ee2:	02e00613          	li	a2,46
   18ee6:	854e                	mv	a0,s3
   18ee8:	4581                	li	a1,0
   18eea:	00007097          	auipc	ra,0x7
   18eee:	cc6080e7          	jalr	-826(ra) # 1fbb0 <memset>
   18ef2:	8622                	mv	a2,s0
   18ef4:	02910ea3          	sb	s1,61(sp)
   18ef8:	4791                	li	a5,4
   18efa:	20900513          	li	a0,521
   18efe:	4589                	li	a1,2
   18f00:	03400693          	li	a3,52
   18f04:	4711                	li	a4,4
   18f06:	00000073          	ecall
   18f0a:	00950463          	beq	a0,s1,18f12 <_ZN20complex_dynamic_type3app17hcff9d58412fb6c41E+0x5a>
   18f0e:	00f10423          	sb	a5,8(sp)
   18f12:	4609                	li	a2,2
   18f14:	00c51463          	bne	a0,a2,18f1c <_ZN20complex_dynamic_type3app17hcff9d58412fb6c41E+0x64>
   18f18:	4785                	li	a5,1
   18f1a:	a079                	j	18fa8 <_ZN20complex_dynamic_type3app17hcff9d58412fb6c41E+0xf0>
   18f1c:	03d14503          	lbu	a0,61(sp)
   18f20:	4785                	li	a5,1
   18f22:	02c51263          	bne	a0,a2,18f46 <_ZN20complex_dynamic_type3app17hcff9d58412fb6c41E+0x8e>
   18f26:	864e                	mv	a2,s3
   18f28:	20900513          	li	a0,521
   18f2c:	45a1                	li	a1,8
   18f2e:	02e00693          	li	a3,46
   18f32:	470d                	li	a4,3
   18f34:	4489                	li	s1,2
   18f36:	00000073          	ecall
   18f3a:	460d                	li	a2,3
   18f3c:	00951963          	bne	a0,s1,18f4e <_ZN20complex_dynamic_type3app17hcff9d58412fb6c41E+0x96>
   18f40:	4505                	li	a0,1
   18f42:	c911                	beqz	a0,18f56 <_ZN20complex_dynamic_type3app17hcff9d58412fb6c41E+0x9e>
   18f44:	a095                	j	18fa8 <_ZN20complex_dynamic_type3app17hcff9d58412fb6c41E+0xf0>
   18f46:	458d                	li	a1,3
   18f48:	4505                	li	a0,1
   18f4a:	c511                	beqz	a0,18f56 <_ZN20complex_dynamic_type3app17hcff9d58412fb6c41E+0x9e>
   18f4c:	a8b1                	j	18fa8 <_ZN20complex_dynamic_type3app17hcff9d58412fb6c41E+0xf0>
   18f4e:	4501                	li	a0,0
   18f50:	02c10ea3          	sb	a2,61(sp)
   18f54:	e931                	bnez	a0,18fa8 <_ZN20complex_dynamic_type3app17hcff9d58412fb6c41E+0xf0>
   18f56:	4681                	li	a3,0
   18f58:	20900513          	li	a0,521
   18f5c:	4589                	li	a1,2
   18f5e:	4621                	li	a2,8
   18f60:	4709                	li	a4,2
   18f62:	07f00493          	li	s1,127
   18f66:	00000073          	ecall
   18f6a:	4689                	li	a3,2
   18f6c:	02a4fe63          	bgeu	s1,a0,18fa8 <_ZN20complex_dynamic_type3app17hcff9d58412fb6c41E+0xf0>
   18f70:	00814603          	lbu	a2,8(sp)
   18f74:	00d60963          	beq	a2,a3,18f86 <_ZN20complex_dynamic_type3app17hcff9d58412fb6c41E+0xce>
   18f78:	20900513          	li	a0,521
   18f7c:	4589                	li	a1,2
   18f7e:	00007097          	auipc	ra,0x7
   18f82:	c26080e7          	jalr	-986(ra) # 1fba4 <_ZN9allow_pin12dynamic_type7unshare17h0269127f30dbe29bE>
   18f86:	03d14603          	lbu	a2,61(sp)
   18f8a:	4409                	li	s0,2
   18f8c:	00810423          	sb	s0,8(sp)
   18f90:	00860963          	beq	a2,s0,18fa2 <_ZN20complex_dynamic_type3app17hcff9d58412fb6c41E+0xea>
   18f94:	20900513          	li	a0,521
   18f98:	45a1                	li	a1,8
   18f9a:	00007097          	auipc	ra,0x7
   18f9e:	c0a080e7          	jalr	-1014(ra) # 1fba4 <_ZN9allow_pin12dynamic_type7unshare17h0269127f30dbe29bE>
   18fa2:	4781                	li	a5,0
   18fa4:	02810ea3          	sb	s0,61(sp)
   18fa8:	c79d                	beqz	a5,18fd6 <_ZN20complex_dynamic_type3app17hcff9d58412fb6c41E+0x11e>
   18faa:	03d14603          	lbu	a2,61(sp)
   18fae:	4505                	li	a0,1
   18fb0:	4409                	li	s0,2
   18fb2:	00a90023          	sb	a0,0(s2)
   18fb6:	00b92223          	sw	a1,4(s2)
   18fba:	00860963          	beq	a2,s0,18fcc <_ZN20complex_dynamic_type3app17hcff9d58412fb6c41E+0x114>
   18fbe:	20900513          	li	a0,521
   18fc2:	45a1                	li	a1,8
   18fc4:	00007097          	auipc	ra,0x7
   18fc8:	be0080e7          	jalr	-1056(ra) # 1fba4 <_ZN9allow_pin12dynamic_type7unshare17h0269127f30dbe29bE>
   18fcc:	00814603          	lbu	a2,8(sp)
   18fd0:	04861663          	bne	a2,s0,1901c <_ZN20complex_dynamic_type3app17hcff9d58412fb6c41E+0x164>
   18fd4:	a899                	j	1902a <_ZN20complex_dynamic_type3app17hcff9d58412fb6c41E+0x172>
   18fd6:	03d14403          	lbu	s0,61(sp)
   18fda:	4489                	li	s1,2
   18fdc:	00940663          	beq	s0,s1,18fe8 <_ZN20complex_dynamic_type3app17hcff9d58412fb6c41E+0x130>
   18fe0:	000109b7          	lui	s3,0x10
   18fe4:	4d398993          	addi	s3,s3,1235 # 104d3 <.Lanon.49c9f8067fe4468184af16d7576940c9.19>
   18fe8:	00190513          	addi	a0,s2,1
   18fec:	02e00613          	li	a2,46
   18ff0:	85ce                	mv	a1,s3
   18ff2:	00007097          	auipc	ra,0x7
   18ff6:	c2a080e7          	jalr	-982(ra) # 1fc1c <memcpy>
   18ffa:	00090023          	sb	zero,0(s2)
   18ffe:	00940a63          	beq	s0,s1,19012 <_ZN20complex_dynamic_type3app17hcff9d58412fb6c41E+0x15a>
   19002:	20900513          	li	a0,521
   19006:	45a1                	li	a1,8
   19008:	8622                	mv	a2,s0
   1900a:	00007097          	auipc	ra,0x7
   1900e:	b9a080e7          	jalr	-1126(ra) # 1fba4 <_ZN9allow_pin12dynamic_type7unshare17h0269127f30dbe29bE>
   19012:	00814603          	lbu	a2,8(sp)
   19016:	4509                	li	a0,2
   19018:	00a60963          	beq	a2,a0,1902a <_ZN20complex_dynamic_type3app17hcff9d58412fb6c41E+0x172>
   1901c:	20900513          	li	a0,521
   19020:	4589                	li	a1,2
   19022:	00007097          	auipc	ra,0x7
   19026:	b82080e7          	jalr	-1150(ra) # 1fba4 <_ZN9allow_pin12dynamic_type7unshare17h0269127f30dbe29bE>
   1902a:	50f6                	lw	ra,124(sp)
   1902c:	5466                	lw	s0,120(sp)
   1902e:	54d6                	lw	s1,116(sp)
   19030:	5946                	lw	s2,112(sp)
   19032:	59b6                	lw	s3,108(sp)
   19034:	6109                	addi	sp,sp,128
   19036:	8082                	ret

00019038 <_ZN20complex_dynamic_type3app17hd589f26351275291E>:
   19038:	7159                	addi	sp,sp,-112
   1903a:	d686                	sw	ra,108(sp)
   1903c:	d4a2                	sw	s0,104(sp)
   1903e:	d2a6                	sw	s1,100(sp)
   19040:	d0ca                	sw	s2,96(sp)
   19042:	cece                	sw	s3,92(sp)
   19044:	892a                	mv	s2,a0
   19046:	4489                	li	s1,2
   19048:	009102a3          	sb	s1,5(sp)
   1904c:	00610413          	addi	s0,sp,6
   19050:	463d                	li	a2,15
   19052:	8522                	mv	a0,s0
   19054:	00007097          	auipc	ra,0x7
   19058:	bc8080e7          	jalr	-1080(ra) # 1fc1c <memcpy>
   1905c:	01610993          	addi	s3,sp,22
   19060:	04600613          	li	a2,70
   19064:	854e                	mv	a0,s3
   19066:	4581                	li	a1,0
   19068:	00007097          	auipc	ra,0x7
   1906c:	b48080e7          	jalr	-1208(ra) # 1fbb0 <memset>
   19070:	8622                	mv	a2,s0
   19072:	00910aa3          	sb	s1,21(sp)
   19076:	6509                	lui	a0,0x2
   19078:	4791                	li	a5,4
   1907a:	45a5                	li	a1,9
   1907c:	d7e50513          	addi	a0,a0,-642 # 1d7e <.Lline_table_start1+0x1b53>
   19080:	46bd                	li	a3,15
   19082:	4711                	li	a4,4
   19084:	00000073          	ecall
   19088:	00950463          	beq	a0,s1,19090 <_ZN20complex_dynamic_type3app17hd589f26351275291E+0x58>
   1908c:	00f102a3          	sb	a5,5(sp)
   19090:	4609                	li	a2,2
   19092:	00c51463          	bne	a0,a2,1909a <_ZN20complex_dynamic_type3app17hd589f26351275291E+0x62>
   19096:	4785                	li	a5,1
   19098:	a859                	j	1912e <_ZN20complex_dynamic_type3app17hd589f26351275291E+0xf6>
   1909a:	01514503          	lbu	a0,21(sp)
   1909e:	4785                	li	a5,1
   190a0:	02c51363          	bne	a0,a2,190c6 <_ZN20complex_dynamic_type3app17hd589f26351275291E+0x8e>
   190a4:	864e                	mv	a2,s3
   190a6:	6509                	lui	a0,0x2
   190a8:	4409                	li	s0,2
   190aa:	448d                	li	s1,3
   190ac:	4589                	li	a1,2
   190ae:	d7e50513          	addi	a0,a0,-642 # 1d7e <.Lline_table_start1+0x1b53>
   190b2:	04600693          	li	a3,70
   190b6:	470d                	li	a4,3
   190b8:	00000073          	ecall
   190bc:	00851963          	bne	a0,s0,190ce <_ZN20complex_dynamic_type3app17hd589f26351275291E+0x96>
   190c0:	4505                	li	a0,1
   190c2:	c911                	beqz	a0,190d6 <_ZN20complex_dynamic_type3app17hd589f26351275291E+0x9e>
   190c4:	a0ad                	j	1912e <_ZN20complex_dynamic_type3app17hd589f26351275291E+0xf6>
   190c6:	458d                	li	a1,3
   190c8:	4505                	li	a0,1
   190ca:	c511                	beqz	a0,190d6 <_ZN20complex_dynamic_type3app17hd589f26351275291E+0x9e>
   190cc:	a08d                	j	1912e <_ZN20complex_dynamic_type3app17hd589f26351275291E+0xf6>
   190ce:	4501                	li	a0,0
   190d0:	00910aa3          	sb	s1,21(sp)
   190d4:	ed29                	bnez	a0,1912e <_ZN20complex_dynamic_type3app17hd589f26351275291E+0xf6>
   190d6:	4681                	li	a3,0
   190d8:	6509                	lui	a0,0x2
   190da:	45a5                	li	a1,9
   190dc:	4609                	li	a2,2
   190de:	4709                	li	a4,2
   190e0:	d7e50513          	addi	a0,a0,-642 # 1d7e <.Lline_table_start1+0x1b53>
   190e4:	07f00493          	li	s1,127
   190e8:	00000073          	ecall
   190ec:	4689                	li	a3,2
   190ee:	04a4f063          	bgeu	s1,a0,1912e <_ZN20complex_dynamic_type3app17hd589f26351275291E+0xf6>
   190f2:	00514603          	lbu	a2,5(sp)
   190f6:	00d60a63          	beq	a2,a3,1910a <_ZN20complex_dynamic_type3app17hd589f26351275291E+0xd2>
   190fa:	6509                	lui	a0,0x2
   190fc:	d7e50513          	addi	a0,a0,-642 # 1d7e <.Lline_table_start1+0x1b53>
   19100:	45a5                	li	a1,9
   19102:	00007097          	auipc	ra,0x7
   19106:	aa2080e7          	jalr	-1374(ra) # 1fba4 <_ZN9allow_pin12dynamic_type7unshare17h0269127f30dbe29bE>
   1910a:	01514603          	lbu	a2,21(sp)
   1910e:	4409                	li	s0,2
   19110:	008102a3          	sb	s0,5(sp)
   19114:	00860a63          	beq	a2,s0,19128 <_ZN20complex_dynamic_type3app17hd589f26351275291E+0xf0>
   19118:	6509                	lui	a0,0x2
   1911a:	d7e50513          	addi	a0,a0,-642 # 1d7e <.Lline_table_start1+0x1b53>
   1911e:	4589                	li	a1,2
   19120:	00007097          	auipc	ra,0x7
   19124:	a84080e7          	jalr	-1404(ra) # 1fba4 <_ZN9allow_pin12dynamic_type7unshare17h0269127f30dbe29bE>
   19128:	4781                	li	a5,0
   1912a:	00810aa3          	sb	s0,21(sp)
   1912e:	cb85                	beqz	a5,1915e <_ZN20complex_dynamic_type3app17hd589f26351275291E+0x126>
   19130:	01514603          	lbu	a2,21(sp)
   19134:	4505                	li	a0,1
   19136:	4409                	li	s0,2
   19138:	00a90023          	sb	a0,0(s2)
   1913c:	00b92223          	sw	a1,4(s2)
   19140:	00860a63          	beq	a2,s0,19154 <_ZN20complex_dynamic_type3app17hd589f26351275291E+0x11c>
   19144:	6509                	lui	a0,0x2
   19146:	d7e50513          	addi	a0,a0,-642 # 1d7e <.Lline_table_start1+0x1b53>
   1914a:	4589                	li	a1,2
   1914c:	00007097          	auipc	ra,0x7
   19150:	a58080e7          	jalr	-1448(ra) # 1fba4 <_ZN9allow_pin12dynamic_type7unshare17h0269127f30dbe29bE>
   19154:	00514603          	lbu	a2,5(sp)
   19158:	04861763          	bne	a2,s0,191a6 <_ZN20complex_dynamic_type3app17hd589f26351275291E+0x16e>
   1915c:	a8a9                	j	191b6 <_ZN20complex_dynamic_type3app17hd589f26351275291E+0x17e>
   1915e:	01514403          	lbu	s0,21(sp)
   19162:	4489                	li	s1,2
   19164:	00940663          	beq	s0,s1,19170 <_ZN20complex_dynamic_type3app17hd589f26351275291E+0x138>
   19168:	000109b7          	lui	s3,0x10
   1916c:	39b98993          	addi	s3,s3,923 # 1039b <.Lanon.49c9f8067fe4468184af16d7576940c9.12>
   19170:	00190513          	addi	a0,s2,1
   19174:	04600613          	li	a2,70
   19178:	85ce                	mv	a1,s3
   1917a:	00007097          	auipc	ra,0x7
   1917e:	aa2080e7          	jalr	-1374(ra) # 1fc1c <memcpy>
   19182:	00090023          	sb	zero,0(s2)
   19186:	00940b63          	beq	s0,s1,1919c <_ZN20complex_dynamic_type3app17hd589f26351275291E+0x164>
   1918a:	6509                	lui	a0,0x2
   1918c:	d7e50513          	addi	a0,a0,-642 # 1d7e <.Lline_table_start1+0x1b53>
   19190:	4589                	li	a1,2
   19192:	8622                	mv	a2,s0
   19194:	00007097          	auipc	ra,0x7
   19198:	a10080e7          	jalr	-1520(ra) # 1fba4 <_ZN9allow_pin12dynamic_type7unshare17h0269127f30dbe29bE>
   1919c:	00514603          	lbu	a2,5(sp)
   191a0:	4509                	li	a0,2
   191a2:	00a60a63          	beq	a2,a0,191b6 <_ZN20complex_dynamic_type3app17hd589f26351275291E+0x17e>
   191a6:	6509                	lui	a0,0x2
   191a8:	d7e50513          	addi	a0,a0,-642 # 1d7e <.Lline_table_start1+0x1b53>
   191ac:	45a5                	li	a1,9
   191ae:	00007097          	auipc	ra,0x7
   191b2:	9f6080e7          	jalr	-1546(ra) # 1fba4 <_ZN9allow_pin12dynamic_type7unshare17h0269127f30dbe29bE>
   191b6:	50b6                	lw	ra,108(sp)
   191b8:	5426                	lw	s0,104(sp)
   191ba:	5496                	lw	s1,100(sp)
   191bc:	5906                	lw	s2,96(sp)
   191be:	49f6                	lw	s3,92(sp)
   191c0:	6165                	addi	sp,sp,112
   191c2:	8082                	ret

000191c4 <_ZN20complex_dynamic_type3app17hd5a352a7858226d9E>:
   191c4:	7131                	addi	sp,sp,-192
   191c6:	df06                	sw	ra,188(sp)
   191c8:	dd22                	sw	s0,184(sp)
   191ca:	db26                	sw	s1,180(sp)
   191cc:	d94a                	sw	s2,176(sp)
   191ce:	d74e                	sw	s3,172(sp)
   191d0:	892a                	mv	s2,a0
   191d2:	4489                	li	s1,2
   191d4:	009106a3          	sb	s1,13(sp)
   191d8:	00e10413          	addi	s0,sp,14
   191dc:	05d00613          	li	a2,93
   191e0:	8522                	mv	a0,s0
   191e2:	00007097          	auipc	ra,0x7
   191e6:	a3a080e7          	jalr	-1478(ra) # 1fc1c <memcpy>
   191ea:	06c10993          	addi	s3,sp,108
   191ee:	04000613          	li	a2,64
   191f2:	854e                	mv	a0,s3
   191f4:	4581                	li	a1,0
   191f6:	00007097          	auipc	ra,0x7
   191fa:	9ba080e7          	jalr	-1606(ra) # 1fbb0 <memset>
   191fe:	8622                	mv	a2,s0
   19200:	069105a3          	sb	s1,107(sp)
   19204:	6505                	lui	a0,0x1
   19206:	4791                	li	a5,4
   19208:	45a1                	li	a1,8
   1920a:	02850513          	addi	a0,a0,40 # 1028 <.Lline_table_start1+0xdfd>
   1920e:	05d00693          	li	a3,93
   19212:	4711                	li	a4,4
   19214:	00000073          	ecall
   19218:	00950463          	beq	a0,s1,19220 <_ZN20complex_dynamic_type3app17hd5a352a7858226d9E+0x5c>
   1921c:	00f106a3          	sb	a5,13(sp)
   19220:	4609                	li	a2,2
   19222:	00c51463          	bne	a0,a2,1922a <_ZN20complex_dynamic_type3app17hd5a352a7858226d9E+0x66>
   19226:	4785                	li	a5,1
   19228:	a859                	j	192be <_ZN20complex_dynamic_type3app17hd5a352a7858226d9E+0xfa>
   1922a:	06b14503          	lbu	a0,107(sp)
   1922e:	4785                	li	a5,1
   19230:	02c51363          	bne	a0,a2,19256 <_ZN20complex_dynamic_type3app17hd5a352a7858226d9E+0x92>
   19234:	864e                	mv	a2,s3
   19236:	6505                	lui	a0,0x1
   19238:	4591                	li	a1,4
   1923a:	04000693          	li	a3,64
   1923e:	470d                	li	a4,3
   19240:	02850513          	addi	a0,a0,40 # 1028 <.Lline_table_start1+0xdfd>
   19244:	4489                	li	s1,2
   19246:	00000073          	ecall
   1924a:	460d                	li	a2,3
   1924c:	00951963          	bne	a0,s1,1925e <_ZN20complex_dynamic_type3app17hd5a352a7858226d9E+0x9a>
   19250:	4505                	li	a0,1
   19252:	c911                	beqz	a0,19266 <_ZN20complex_dynamic_type3app17hd5a352a7858226d9E+0xa2>
   19254:	a0ad                	j	192be <_ZN20complex_dynamic_type3app17hd5a352a7858226d9E+0xfa>
   19256:	458d                	li	a1,3
   19258:	4505                	li	a0,1
   1925a:	c511                	beqz	a0,19266 <_ZN20complex_dynamic_type3app17hd5a352a7858226d9E+0xa2>
   1925c:	a08d                	j	192be <_ZN20complex_dynamic_type3app17hd5a352a7858226d9E+0xfa>
   1925e:	4501                	li	a0,0
   19260:	06c105a3          	sb	a2,107(sp)
   19264:	ed29                	bnez	a0,192be <_ZN20complex_dynamic_type3app17hd5a352a7858226d9E+0xfa>
   19266:	4681                	li	a3,0
   19268:	6505                	lui	a0,0x1
   1926a:	45a1                	li	a1,8
   1926c:	4611                	li	a2,4
   1926e:	4709                	li	a4,2
   19270:	02850513          	addi	a0,a0,40 # 1028 <.Lline_table_start1+0xdfd>
   19274:	07f00493          	li	s1,127
   19278:	00000073          	ecall
   1927c:	4689                	li	a3,2
   1927e:	04a4f063          	bgeu	s1,a0,192be <_ZN20complex_dynamic_type3app17hd5a352a7858226d9E+0xfa>
   19282:	00d14603          	lbu	a2,13(sp)
   19286:	00d60a63          	beq	a2,a3,1929a <_ZN20complex_dynamic_type3app17hd5a352a7858226d9E+0xd6>
   1928a:	6505                	lui	a0,0x1
   1928c:	02850513          	addi	a0,a0,40 # 1028 <.Lline_table_start1+0xdfd>
   19290:	45a1                	li	a1,8
   19292:	00007097          	auipc	ra,0x7
   19296:	912080e7          	jalr	-1774(ra) # 1fba4 <_ZN9allow_pin12dynamic_type7unshare17h0269127f30dbe29bE>
   1929a:	06b14603          	lbu	a2,107(sp)
   1929e:	4409                	li	s0,2
   192a0:	008106a3          	sb	s0,13(sp)
   192a4:	00860a63          	beq	a2,s0,192b8 <_ZN20complex_dynamic_type3app17hd5a352a7858226d9E+0xf4>
   192a8:	6505                	lui	a0,0x1
   192aa:	02850513          	addi	a0,a0,40 # 1028 <.Lline_table_start1+0xdfd>
   192ae:	4591                	li	a1,4
   192b0:	00007097          	auipc	ra,0x7
   192b4:	8f4080e7          	jalr	-1804(ra) # 1fba4 <_ZN9allow_pin12dynamic_type7unshare17h0269127f30dbe29bE>
   192b8:	4781                	li	a5,0
   192ba:	068105a3          	sb	s0,107(sp)
   192be:	cb85                	beqz	a5,192ee <_ZN20complex_dynamic_type3app17hd5a352a7858226d9E+0x12a>
   192c0:	06b14603          	lbu	a2,107(sp)
   192c4:	4505                	li	a0,1
   192c6:	4409                	li	s0,2
   192c8:	00a90023          	sb	a0,0(s2)
   192cc:	00b92223          	sw	a1,4(s2)
   192d0:	00860a63          	beq	a2,s0,192e4 <_ZN20complex_dynamic_type3app17hd5a352a7858226d9E+0x120>
   192d4:	6505                	lui	a0,0x1
   192d6:	02850513          	addi	a0,a0,40 # 1028 <.Lline_table_start1+0xdfd>
   192da:	4591                	li	a1,4
   192dc:	00007097          	auipc	ra,0x7
   192e0:	8c8080e7          	jalr	-1848(ra) # 1fba4 <_ZN9allow_pin12dynamic_type7unshare17h0269127f30dbe29bE>
   192e4:	00d14603          	lbu	a2,13(sp)
   192e8:	04861763          	bne	a2,s0,19336 <_ZN20complex_dynamic_type3app17hd5a352a7858226d9E+0x172>
   192ec:	a8a9                	j	19346 <_ZN20complex_dynamic_type3app17hd5a352a7858226d9E+0x182>
   192ee:	06b14403          	lbu	s0,107(sp)
   192f2:	4489                	li	s1,2
   192f4:	00940663          	beq	s0,s1,19300 <_ZN20complex_dynamic_type3app17hd5a352a7858226d9E+0x13c>
   192f8:	000119b7          	lui	s3,0x11
   192fc:	8d198993          	addi	s3,s3,-1839 # 108d1 <.Lanon.49c9f8067fe4468184af16d7576940c9.41>
   19300:	00190513          	addi	a0,s2,1
   19304:	04000613          	li	a2,64
   19308:	85ce                	mv	a1,s3
   1930a:	00007097          	auipc	ra,0x7
   1930e:	912080e7          	jalr	-1774(ra) # 1fc1c <memcpy>
   19312:	00090023          	sb	zero,0(s2)
   19316:	00940b63          	beq	s0,s1,1932c <_ZN20complex_dynamic_type3app17hd5a352a7858226d9E+0x168>
   1931a:	6505                	lui	a0,0x1
   1931c:	02850513          	addi	a0,a0,40 # 1028 <.Lline_table_start1+0xdfd>
   19320:	4591                	li	a1,4
   19322:	8622                	mv	a2,s0
   19324:	00007097          	auipc	ra,0x7
   19328:	880080e7          	jalr	-1920(ra) # 1fba4 <_ZN9allow_pin12dynamic_type7unshare17h0269127f30dbe29bE>
   1932c:	00d14603          	lbu	a2,13(sp)
   19330:	4509                	li	a0,2
   19332:	00a60a63          	beq	a2,a0,19346 <_ZN20complex_dynamic_type3app17hd5a352a7858226d9E+0x182>
   19336:	6505                	lui	a0,0x1
   19338:	02850513          	addi	a0,a0,40 # 1028 <.Lline_table_start1+0xdfd>
   1933c:	45a1                	li	a1,8
   1933e:	00007097          	auipc	ra,0x7
   19342:	866080e7          	jalr	-1946(ra) # 1fba4 <_ZN9allow_pin12dynamic_type7unshare17h0269127f30dbe29bE>
   19346:	50fa                	lw	ra,188(sp)
   19348:	546a                	lw	s0,184(sp)
   1934a:	54da                	lw	s1,180(sp)
   1934c:	594a                	lw	s2,176(sp)
   1934e:	59ba                	lw	s3,172(sp)
   19350:	6129                	addi	sp,sp,192
   19352:	8082                	ret

00019354 <_ZN20complex_dynamic_type3app17hde5321f5d6d8d477E>:
   19354:	7119                	addi	sp,sp,-128
   19356:	de86                	sw	ra,124(sp)
   19358:	dca2                	sw	s0,120(sp)
   1935a:	daa6                	sw	s1,116(sp)
   1935c:	d8ca                	sw	s2,112(sp)
   1935e:	d6ce                	sw	s3,108(sp)
   19360:	892a                	mv	s2,a0
   19362:	4489                	li	s1,2
   19364:	00910123          	sb	s1,2(sp)
   19368:	00310413          	addi	s0,sp,3
   1936c:	464d                	li	a2,19
   1936e:	8522                	mv	a0,s0
   19370:	00007097          	auipc	ra,0x7
   19374:	8ac080e7          	jalr	-1876(ra) # 1fc1c <memcpy>
   19378:	01710993          	addi	s3,sp,23
   1937c:	05500613          	li	a2,85
   19380:	854e                	mv	a0,s3
   19382:	4581                	li	a1,0
   19384:	00007097          	auipc	ra,0x7
   19388:	82c080e7          	jalr	-2004(ra) # 1fbb0 <memset>
   1938c:	8622                	mv	a2,s0
   1938e:	00910b23          	sb	s1,22(sp)
   19392:	4791                	li	a5,4
   19394:	32e00513          	li	a0,814
   19398:	45a5                	li	a1,9
   1939a:	46cd                	li	a3,19
   1939c:	4711                	li	a4,4
   1939e:	00000073          	ecall
   193a2:	00950463          	beq	a0,s1,193aa <_ZN20complex_dynamic_type3app17hde5321f5d6d8d477E+0x56>
   193a6:	00f10123          	sb	a5,2(sp)
   193aa:	4609                	li	a2,2
   193ac:	00c51463          	bne	a0,a2,193b4 <_ZN20complex_dynamic_type3app17hde5321f5d6d8d477E+0x60>
   193b0:	4785                	li	a5,1
   193b2:	a079                	j	19440 <_ZN20complex_dynamic_type3app17hde5321f5d6d8d477E+0xec>
   193b4:	01614503          	lbu	a0,22(sp)
   193b8:	4785                	li	a5,1
   193ba:	02c51263          	bne	a0,a2,193de <_ZN20complex_dynamic_type3app17hde5321f5d6d8d477E+0x8a>
   193be:	864e                	mv	a2,s3
   193c0:	32e00513          	li	a0,814
   193c4:	459d                	li	a1,7
   193c6:	05500693          	li	a3,85
   193ca:	470d                	li	a4,3
   193cc:	4489                	li	s1,2
   193ce:	00000073          	ecall
   193d2:	460d                	li	a2,3
   193d4:	00951963          	bne	a0,s1,193e6 <_ZN20complex_dynamic_type3app17hde5321f5d6d8d477E+0x92>
   193d8:	4505                	li	a0,1
   193da:	c911                	beqz	a0,193ee <_ZN20complex_dynamic_type3app17hde5321f5d6d8d477E+0x9a>
   193dc:	a095                	j	19440 <_ZN20complex_dynamic_type3app17hde5321f5d6d8d477E+0xec>
   193de:	458d                	li	a1,3
   193e0:	4505                	li	a0,1
   193e2:	c511                	beqz	a0,193ee <_ZN20complex_dynamic_type3app17hde5321f5d6d8d477E+0x9a>
   193e4:	a8b1                	j	19440 <_ZN20complex_dynamic_type3app17hde5321f5d6d8d477E+0xec>
   193e6:	4501                	li	a0,0
   193e8:	00c10b23          	sb	a2,22(sp)
   193ec:	e931                	bnez	a0,19440 <_ZN20complex_dynamic_type3app17hde5321f5d6d8d477E+0xec>
   193ee:	4681                	li	a3,0
   193f0:	32e00513          	li	a0,814
   193f4:	45a5                	li	a1,9
   193f6:	461d                	li	a2,7
   193f8:	4709                	li	a4,2
   193fa:	07f00493          	li	s1,127
   193fe:	00000073          	ecall
   19402:	4689                	li	a3,2
   19404:	02a4fe63          	bgeu	s1,a0,19440 <_ZN20complex_dynamic_type3app17hde5321f5d6d8d477E+0xec>
   19408:	00214603          	lbu	a2,2(sp)
   1940c:	00d60963          	beq	a2,a3,1941e <_ZN20complex_dynamic_type3app17hde5321f5d6d8d477E+0xca>
   19410:	32e00513          	li	a0,814
   19414:	45a5                	li	a1,9
   19416:	00006097          	auipc	ra,0x6
   1941a:	78e080e7          	jalr	1934(ra) # 1fba4 <_ZN9allow_pin12dynamic_type7unshare17h0269127f30dbe29bE>
   1941e:	01614603          	lbu	a2,22(sp)
   19422:	4409                	li	s0,2
   19424:	00810123          	sb	s0,2(sp)
   19428:	00860963          	beq	a2,s0,1943a <_ZN20complex_dynamic_type3app17hde5321f5d6d8d477E+0xe6>
   1942c:	32e00513          	li	a0,814
   19430:	459d                	li	a1,7
   19432:	00006097          	auipc	ra,0x6
   19436:	772080e7          	jalr	1906(ra) # 1fba4 <_ZN9allow_pin12dynamic_type7unshare17h0269127f30dbe29bE>
   1943a:	4781                	li	a5,0
   1943c:	00810b23          	sb	s0,22(sp)
   19440:	c79d                	beqz	a5,1946e <_ZN20complex_dynamic_type3app17hde5321f5d6d8d477E+0x11a>
   19442:	01614603          	lbu	a2,22(sp)
   19446:	4505                	li	a0,1
   19448:	4409                	li	s0,2
   1944a:	00a90023          	sb	a0,0(s2)
   1944e:	00b92223          	sw	a1,4(s2)
   19452:	00860963          	beq	a2,s0,19464 <_ZN20complex_dynamic_type3app17hde5321f5d6d8d477E+0x110>
   19456:	32e00513          	li	a0,814
   1945a:	459d                	li	a1,7
   1945c:	00006097          	auipc	ra,0x6
   19460:	748080e7          	jalr	1864(ra) # 1fba4 <_ZN9allow_pin12dynamic_type7unshare17h0269127f30dbe29bE>
   19464:	00214603          	lbu	a2,2(sp)
   19468:	04861663          	bne	a2,s0,194b4 <_ZN20complex_dynamic_type3app17hde5321f5d6d8d477E+0x160>
   1946c:	a899                	j	194c2 <_ZN20complex_dynamic_type3app17hde5321f5d6d8d477E+0x16e>
   1946e:	01614403          	lbu	s0,22(sp)
   19472:	4489                	li	s1,2
   19474:	00940663          	beq	s0,s1,19480 <_ZN20complex_dynamic_type3app17hde5321f5d6d8d477E+0x12c>
   19478:	000119b7          	lui	s3,0x11
   1947c:	afc98993          	addi	s3,s3,-1284 # 10afc <.Lanon.49c9f8067fe4468184af16d7576940c9.50>
   19480:	00190513          	addi	a0,s2,1
   19484:	05500613          	li	a2,85
   19488:	85ce                	mv	a1,s3
   1948a:	00006097          	auipc	ra,0x6
   1948e:	792080e7          	jalr	1938(ra) # 1fc1c <memcpy>
   19492:	00090023          	sb	zero,0(s2)
   19496:	00940a63          	beq	s0,s1,194aa <_ZN20complex_dynamic_type3app17hde5321f5d6d8d477E+0x156>
   1949a:	32e00513          	li	a0,814
   1949e:	459d                	li	a1,7
   194a0:	8622                	mv	a2,s0
   194a2:	00006097          	auipc	ra,0x6
   194a6:	702080e7          	jalr	1794(ra) # 1fba4 <_ZN9allow_pin12dynamic_type7unshare17h0269127f30dbe29bE>
   194aa:	00214603          	lbu	a2,2(sp)
   194ae:	4509                	li	a0,2
   194b0:	00a60963          	beq	a2,a0,194c2 <_ZN20complex_dynamic_type3app17hde5321f5d6d8d477E+0x16e>
   194b4:	32e00513          	li	a0,814
   194b8:	45a5                	li	a1,9
   194ba:	00006097          	auipc	ra,0x6
   194be:	6ea080e7          	jalr	1770(ra) # 1fba4 <_ZN9allow_pin12dynamic_type7unshare17h0269127f30dbe29bE>
   194c2:	50f6                	lw	ra,124(sp)
   194c4:	5466                	lw	s0,120(sp)
   194c6:	54d6                	lw	s1,116(sp)
   194c8:	5946                	lw	s2,112(sp)
   194ca:	59b6                	lw	s3,108(sp)
   194cc:	6109                	addi	sp,sp,128
   194ce:	8082                	ret

000194d0 <_ZN20complex_dynamic_type3app17he04e8cd70986542dE>:
   194d0:	7119                	addi	sp,sp,-128
   194d2:	de86                	sw	ra,124(sp)
   194d4:	dca2                	sw	s0,120(sp)
   194d6:	daa6                	sw	s1,116(sp)
   194d8:	d8ca                	sw	s2,112(sp)
   194da:	d6ce                	sw	s3,108(sp)
   194dc:	892a                	mv	s2,a0
   194de:	4489                	li	s1,2
   194e0:	00910023          	sb	s1,0(sp)
   194e4:	00110413          	addi	s0,sp,1
   194e8:	03600613          	li	a2,54
   194ec:	8522                	mv	a0,s0
   194ee:	00006097          	auipc	ra,0x6
   194f2:	72e080e7          	jalr	1838(ra) # 1fc1c <memcpy>
   194f6:	03810993          	addi	s3,sp,56
   194fa:	03400613          	li	a2,52
   194fe:	854e                	mv	a0,s3
   19500:	4581                	li	a1,0
   19502:	00006097          	auipc	ra,0x6
   19506:	6ae080e7          	jalr	1710(ra) # 1fbb0 <memset>
   1950a:	8622                	mv	a2,s0
   1950c:	02910ba3          	sb	s1,55(sp)
   19510:	6509                	lui	a0,0x2
   19512:	4791                	li	a5,4
   19514:	4591                	li	a1,4
   19516:	3c650513          	addi	a0,a0,966 # 23c6 <.Lline_table_start1+0x219b>
   1951a:	03600693          	li	a3,54
   1951e:	4711                	li	a4,4
   19520:	00000073          	ecall
   19524:	00950463          	beq	a0,s1,1952c <_ZN20complex_dynamic_type3app17he04e8cd70986542dE+0x5c>
   19528:	00f10023          	sb	a5,0(sp)
   1952c:	4609                	li	a2,2
   1952e:	00c51463          	bne	a0,a2,19536 <_ZN20complex_dynamic_type3app17he04e8cd70986542dE+0x66>
   19532:	4785                	li	a5,1
   19534:	a859                	j	195ca <_ZN20complex_dynamic_type3app17he04e8cd70986542dE+0xfa>
   19536:	03714503          	lbu	a0,55(sp)
   1953a:	4785                	li	a5,1
   1953c:	02c51363          	bne	a0,a2,19562 <_ZN20complex_dynamic_type3app17he04e8cd70986542dE+0x92>
   19540:	864e                	mv	a2,s3
   19542:	6509                	lui	a0,0x2
   19544:	4409                	li	s0,2
   19546:	448d                	li	s1,3
   19548:	4589                	li	a1,2
   1954a:	3c650513          	addi	a0,a0,966 # 23c6 <.Lline_table_start1+0x219b>
   1954e:	03400693          	li	a3,52
   19552:	470d                	li	a4,3
   19554:	00000073          	ecall
   19558:	00851963          	bne	a0,s0,1956a <_ZN20complex_dynamic_type3app17he04e8cd70986542dE+0x9a>
   1955c:	4505                	li	a0,1
   1955e:	c911                	beqz	a0,19572 <_ZN20complex_dynamic_type3app17he04e8cd70986542dE+0xa2>
   19560:	a0ad                	j	195ca <_ZN20complex_dynamic_type3app17he04e8cd70986542dE+0xfa>
   19562:	458d                	li	a1,3
   19564:	4505                	li	a0,1
   19566:	c511                	beqz	a0,19572 <_ZN20complex_dynamic_type3app17he04e8cd70986542dE+0xa2>
   19568:	a08d                	j	195ca <_ZN20complex_dynamic_type3app17he04e8cd70986542dE+0xfa>
   1956a:	4501                	li	a0,0
   1956c:	02910ba3          	sb	s1,55(sp)
   19570:	ed29                	bnez	a0,195ca <_ZN20complex_dynamic_type3app17he04e8cd70986542dE+0xfa>
   19572:	4681                	li	a3,0
   19574:	6509                	lui	a0,0x2
   19576:	4591                	li	a1,4
   19578:	4609                	li	a2,2
   1957a:	4709                	li	a4,2
   1957c:	3c650513          	addi	a0,a0,966 # 23c6 <.Lline_table_start1+0x219b>
   19580:	07f00493          	li	s1,127
   19584:	00000073          	ecall
   19588:	4689                	li	a3,2
   1958a:	04a4f063          	bgeu	s1,a0,195ca <_ZN20complex_dynamic_type3app17he04e8cd70986542dE+0xfa>
   1958e:	00014603          	lbu	a2,0(sp)
   19592:	00d60a63          	beq	a2,a3,195a6 <_ZN20complex_dynamic_type3app17he04e8cd70986542dE+0xd6>
   19596:	6509                	lui	a0,0x2
   19598:	3c650513          	addi	a0,a0,966 # 23c6 <.Lline_table_start1+0x219b>
   1959c:	4591                	li	a1,4
   1959e:	00006097          	auipc	ra,0x6
   195a2:	606080e7          	jalr	1542(ra) # 1fba4 <_ZN9allow_pin12dynamic_type7unshare17h0269127f30dbe29bE>
   195a6:	03714603          	lbu	a2,55(sp)
   195aa:	4409                	li	s0,2
   195ac:	00810023          	sb	s0,0(sp)
   195b0:	00860a63          	beq	a2,s0,195c4 <_ZN20complex_dynamic_type3app17he04e8cd70986542dE+0xf4>
   195b4:	6509                	lui	a0,0x2
   195b6:	3c650513          	addi	a0,a0,966 # 23c6 <.Lline_table_start1+0x219b>
   195ba:	4589                	li	a1,2
   195bc:	00006097          	auipc	ra,0x6
   195c0:	5e8080e7          	jalr	1512(ra) # 1fba4 <_ZN9allow_pin12dynamic_type7unshare17h0269127f30dbe29bE>
   195c4:	4781                	li	a5,0
   195c6:	02810ba3          	sb	s0,55(sp)
   195ca:	cb85                	beqz	a5,195fa <_ZN20complex_dynamic_type3app17he04e8cd70986542dE+0x12a>
   195cc:	03714603          	lbu	a2,55(sp)
   195d0:	4505                	li	a0,1
   195d2:	4409                	li	s0,2
   195d4:	00a90023          	sb	a0,0(s2)
   195d8:	00b92223          	sw	a1,4(s2)
   195dc:	00860a63          	beq	a2,s0,195f0 <_ZN20complex_dynamic_type3app17he04e8cd70986542dE+0x120>
   195e0:	6509                	lui	a0,0x2
   195e2:	3c650513          	addi	a0,a0,966 # 23c6 <.Lline_table_start1+0x219b>
   195e6:	4589                	li	a1,2
   195e8:	00006097          	auipc	ra,0x6
   195ec:	5bc080e7          	jalr	1468(ra) # 1fba4 <_ZN9allow_pin12dynamic_type7unshare17h0269127f30dbe29bE>
   195f0:	00014603          	lbu	a2,0(sp)
   195f4:	04861763          	bne	a2,s0,19642 <_ZN20complex_dynamic_type3app17he04e8cd70986542dE+0x172>
   195f8:	a8a9                	j	19652 <_ZN20complex_dynamic_type3app17he04e8cd70986542dE+0x182>
   195fa:	03714403          	lbu	s0,55(sp)
   195fe:	4489                	li	s1,2
   19600:	00940663          	beq	s0,s1,1960c <_ZN20complex_dynamic_type3app17he04e8cd70986542dE+0x13c>
   19604:	000109b7          	lui	s3,0x10
   19608:	55498993          	addi	s3,s3,1364 # 10554 <.Lanon.49c9f8067fe4468184af16d7576940c9.22>
   1960c:	00190513          	addi	a0,s2,1
   19610:	03400613          	li	a2,52
   19614:	85ce                	mv	a1,s3
   19616:	00006097          	auipc	ra,0x6
   1961a:	606080e7          	jalr	1542(ra) # 1fc1c <memcpy>
   1961e:	00090023          	sb	zero,0(s2)
   19622:	00940b63          	beq	s0,s1,19638 <_ZN20complex_dynamic_type3app17he04e8cd70986542dE+0x168>
   19626:	6509                	lui	a0,0x2
   19628:	3c650513          	addi	a0,a0,966 # 23c6 <.Lline_table_start1+0x219b>
   1962c:	4589                	li	a1,2
   1962e:	8622                	mv	a2,s0
   19630:	00006097          	auipc	ra,0x6
   19634:	574080e7          	jalr	1396(ra) # 1fba4 <_ZN9allow_pin12dynamic_type7unshare17h0269127f30dbe29bE>
   19638:	00014603          	lbu	a2,0(sp)
   1963c:	4509                	li	a0,2
   1963e:	00a60a63          	beq	a2,a0,19652 <_ZN20complex_dynamic_type3app17he04e8cd70986542dE+0x182>
   19642:	6509                	lui	a0,0x2
   19644:	3c650513          	addi	a0,a0,966 # 23c6 <.Lline_table_start1+0x219b>
   19648:	4591                	li	a1,4
   1964a:	00006097          	auipc	ra,0x6
   1964e:	55a080e7          	jalr	1370(ra) # 1fba4 <_ZN9allow_pin12dynamic_type7unshare17h0269127f30dbe29bE>
   19652:	50f6                	lw	ra,124(sp)
   19654:	5466                	lw	s0,120(sp)
   19656:	54d6                	lw	s1,116(sp)
   19658:	5946                	lw	s2,112(sp)
   1965a:	59b6                	lw	s3,108(sp)
   1965c:	6109                	addi	sp,sp,128
   1965e:	8082                	ret

00019660 <_ZN20complex_dynamic_type3app17he0fce27ffcbdfa06E>:
   19660:	711d                	addi	sp,sp,-96
   19662:	ce86                	sw	ra,92(sp)
   19664:	cca2                	sw	s0,88(sp)
   19666:	caa6                	sw	s1,84(sp)
   19668:	c8ca                	sw	s2,80(sp)
   1966a:	c6ce                	sw	s3,76(sp)
   1966c:	892a                	mv	s2,a0
   1966e:	4489                	li	s1,2
   19670:	009103a3          	sb	s1,7(sp)
   19674:	0020                	addi	s0,sp,8
   19676:	02900613          	li	a2,41
   1967a:	8522                	mv	a0,s0
   1967c:	00006097          	auipc	ra,0x6
   19680:	5a0080e7          	jalr	1440(ra) # 1fc1c <memcpy>
   19684:	03210993          	addi	s3,sp,50
   19688:	4669                	li	a2,26
   1968a:	854e                	mv	a0,s3
   1968c:	4581                	li	a1,0
   1968e:	00006097          	auipc	ra,0x6
   19692:	522080e7          	jalr	1314(ra) # 1fbb0 <memset>
   19696:	8622                	mv	a2,s0
   19698:	029108a3          	sb	s1,49(sp)
   1969c:	6509                	lui	a0,0x2
   1969e:	4791                	li	a5,4
   196a0:	4595                	li	a1,5
   196a2:	04850513          	addi	a0,a0,72 # 2048 <.Lline_table_start1+0x1e1d>
   196a6:	02900693          	li	a3,41
   196aa:	4711                	li	a4,4
   196ac:	00000073          	ecall
   196b0:	00950463          	beq	a0,s1,196b8 <_ZN20complex_dynamic_type3app17he0fce27ffcbdfa06E+0x58>
   196b4:	00f103a3          	sb	a5,7(sp)
   196b8:	4609                	li	a2,2
   196ba:	00c51463          	bne	a0,a2,196c2 <_ZN20complex_dynamic_type3app17he0fce27ffcbdfa06E+0x62>
   196be:	4785                	li	a5,1
   196c0:	a851                	j	19754 <_ZN20complex_dynamic_type3app17he0fce27ffcbdfa06E+0xf4>
   196c2:	03114503          	lbu	a0,49(sp)
   196c6:	4785                	li	a5,1
   196c8:	02c51263          	bne	a0,a2,196ec <_ZN20complex_dynamic_type3app17he0fce27ffcbdfa06E+0x8c>
   196cc:	864e                	mv	a2,s3
   196ce:	6509                	lui	a0,0x2
   196d0:	458d                	li	a1,3
   196d2:	46e9                	li	a3,26
   196d4:	470d                	li	a4,3
   196d6:	04850513          	addi	a0,a0,72 # 2048 <.Lline_table_start1+0x1e1d>
   196da:	4489                	li	s1,2
   196dc:	00000073          	ecall
   196e0:	460d                	li	a2,3
   196e2:	00951963          	bne	a0,s1,196f4 <_ZN20complex_dynamic_type3app17he0fce27ffcbdfa06E+0x94>
   196e6:	4505                	li	a0,1
   196e8:	c911                	beqz	a0,196fc <_ZN20complex_dynamic_type3app17he0fce27ffcbdfa06E+0x9c>
   196ea:	a0ad                	j	19754 <_ZN20complex_dynamic_type3app17he0fce27ffcbdfa06E+0xf4>
   196ec:	458d                	li	a1,3
   196ee:	4505                	li	a0,1
   196f0:	c511                	beqz	a0,196fc <_ZN20complex_dynamic_type3app17he0fce27ffcbdfa06E+0x9c>
   196f2:	a08d                	j	19754 <_ZN20complex_dynamic_type3app17he0fce27ffcbdfa06E+0xf4>
   196f4:	4501                	li	a0,0
   196f6:	02c108a3          	sb	a2,49(sp)
   196fa:	ed29                	bnez	a0,19754 <_ZN20complex_dynamic_type3app17he0fce27ffcbdfa06E+0xf4>
   196fc:	4681                	li	a3,0
   196fe:	6509                	lui	a0,0x2
   19700:	4595                	li	a1,5
   19702:	460d                	li	a2,3
   19704:	4709                	li	a4,2
   19706:	04850513          	addi	a0,a0,72 # 2048 <.Lline_table_start1+0x1e1d>
   1970a:	07f00493          	li	s1,127
   1970e:	00000073          	ecall
   19712:	4689                	li	a3,2
   19714:	04a4f063          	bgeu	s1,a0,19754 <_ZN20complex_dynamic_type3app17he0fce27ffcbdfa06E+0xf4>
   19718:	00714603          	lbu	a2,7(sp)
   1971c:	00d60a63          	beq	a2,a3,19730 <_ZN20complex_dynamic_type3app17he0fce27ffcbdfa06E+0xd0>
   19720:	6509                	lui	a0,0x2
   19722:	04850513          	addi	a0,a0,72 # 2048 <.Lline_table_start1+0x1e1d>
   19726:	4595                	li	a1,5
   19728:	00006097          	auipc	ra,0x6
   1972c:	47c080e7          	jalr	1148(ra) # 1fba4 <_ZN9allow_pin12dynamic_type7unshare17h0269127f30dbe29bE>
   19730:	03114603          	lbu	a2,49(sp)
   19734:	4409                	li	s0,2
   19736:	008103a3          	sb	s0,7(sp)
   1973a:	00860a63          	beq	a2,s0,1974e <_ZN20complex_dynamic_type3app17he0fce27ffcbdfa06E+0xee>
   1973e:	6509                	lui	a0,0x2
   19740:	04850513          	addi	a0,a0,72 # 2048 <.Lline_table_start1+0x1e1d>
   19744:	458d                	li	a1,3
   19746:	00006097          	auipc	ra,0x6
   1974a:	45e080e7          	jalr	1118(ra) # 1fba4 <_ZN9allow_pin12dynamic_type7unshare17h0269127f30dbe29bE>
   1974e:	4781                	li	a5,0
   19750:	028108a3          	sb	s0,49(sp)
   19754:	cb85                	beqz	a5,19784 <_ZN20complex_dynamic_type3app17he0fce27ffcbdfa06E+0x124>
   19756:	03114603          	lbu	a2,49(sp)
   1975a:	4505                	li	a0,1
   1975c:	4409                	li	s0,2
   1975e:	00a90023          	sb	a0,0(s2)
   19762:	00b92223          	sw	a1,4(s2)
   19766:	00860a63          	beq	a2,s0,1977a <_ZN20complex_dynamic_type3app17he0fce27ffcbdfa06E+0x11a>
   1976a:	6509                	lui	a0,0x2
   1976c:	04850513          	addi	a0,a0,72 # 2048 <.Lline_table_start1+0x1e1d>
   19770:	458d                	li	a1,3
   19772:	00006097          	auipc	ra,0x6
   19776:	432080e7          	jalr	1074(ra) # 1fba4 <_ZN9allow_pin12dynamic_type7unshare17h0269127f30dbe29bE>
   1977a:	00714603          	lbu	a2,7(sp)
   1977e:	04861663          	bne	a2,s0,197ca <_ZN20complex_dynamic_type3app17he0fce27ffcbdfa06E+0x16a>
   19782:	a8a1                	j	197da <_ZN20complex_dynamic_type3app17he0fce27ffcbdfa06E+0x17a>
   19784:	03114403          	lbu	s0,49(sp)
   19788:	4489                	li	s1,2
   1978a:	00940663          	beq	s0,s1,19796 <_ZN20complex_dynamic_type3app17he0fce27ffcbdfa06E+0x136>
   1978e:	000109b7          	lui	s3,0x10
   19792:	33198993          	addi	s3,s3,817 # 10331 <.Lanon.49c9f8067fe4468184af16d7576940c9.9>
   19796:	00190513          	addi	a0,s2,1
   1979a:	4669                	li	a2,26
   1979c:	85ce                	mv	a1,s3
   1979e:	00006097          	auipc	ra,0x6
   197a2:	47e080e7          	jalr	1150(ra) # 1fc1c <memcpy>
   197a6:	00090023          	sb	zero,0(s2)
   197aa:	00940b63          	beq	s0,s1,197c0 <_ZN20complex_dynamic_type3app17he0fce27ffcbdfa06E+0x160>
   197ae:	6509                	lui	a0,0x2
   197b0:	04850513          	addi	a0,a0,72 # 2048 <.Lline_table_start1+0x1e1d>
   197b4:	458d                	li	a1,3
   197b6:	8622                	mv	a2,s0
   197b8:	00006097          	auipc	ra,0x6
   197bc:	3ec080e7          	jalr	1004(ra) # 1fba4 <_ZN9allow_pin12dynamic_type7unshare17h0269127f30dbe29bE>
   197c0:	00714603          	lbu	a2,7(sp)
   197c4:	4509                	li	a0,2
   197c6:	00a60a63          	beq	a2,a0,197da <_ZN20complex_dynamic_type3app17he0fce27ffcbdfa06E+0x17a>
   197ca:	6509                	lui	a0,0x2
   197cc:	04850513          	addi	a0,a0,72 # 2048 <.Lline_table_start1+0x1e1d>
   197d0:	4595                	li	a1,5
   197d2:	00006097          	auipc	ra,0x6
   197d6:	3d2080e7          	jalr	978(ra) # 1fba4 <_ZN9allow_pin12dynamic_type7unshare17h0269127f30dbe29bE>
   197da:	40f6                	lw	ra,92(sp)
   197dc:	4466                	lw	s0,88(sp)
   197de:	44d6                	lw	s1,84(sp)
   197e0:	4946                	lw	s2,80(sp)
   197e2:	49b6                	lw	s3,76(sp)
   197e4:	6125                	addi	sp,sp,96
   197e6:	8082                	ret

000197e8 <_ZN20complex_dynamic_type3app17he12e656b52cbfabeE>:
   197e8:	7135                	addi	sp,sp,-160
   197ea:	cf06                	sw	ra,156(sp)
   197ec:	cd22                	sw	s0,152(sp)
   197ee:	cb26                	sw	s1,148(sp)
   197f0:	c94a                	sw	s2,144(sp)
   197f2:	c74e                	sw	s3,140(sp)
   197f4:	892a                	mv	s2,a0
   197f6:	4489                	li	s1,2
   197f8:	00910623          	sb	s1,12(sp)
   197fc:	00d10413          	addi	s0,sp,13
   19800:	466d                	li	a2,27
   19802:	8522                	mv	a0,s0
   19804:	00006097          	auipc	ra,0x6
   19808:	418080e7          	jalr	1048(ra) # 1fc1c <memcpy>
   1980c:	02910993          	addi	s3,sp,41
   19810:	06300613          	li	a2,99
   19814:	854e                	mv	a0,s3
   19816:	4581                	li	a1,0
   19818:	00006097          	auipc	ra,0x6
   1981c:	398080e7          	jalr	920(ra) # 1fbb0 <memset>
   19820:	8622                	mv	a2,s0
   19822:	02910423          	sb	s1,40(sp)
   19826:	6509                	lui	a0,0x2
   19828:	4791                	li	a5,4
   1982a:	458d                	li	a1,3
   1982c:	54850513          	addi	a0,a0,1352 # 2548 <.Lline_table_start1+0x231d>
   19830:	46ed                	li	a3,27
   19832:	4711                	li	a4,4
   19834:	00000073          	ecall
   19838:	00950463          	beq	a0,s1,19840 <_ZN20complex_dynamic_type3app17he12e656b52cbfabeE+0x58>
   1983c:	00f10623          	sb	a5,12(sp)
   19840:	4609                	li	a2,2
   19842:	00c51463          	bne	a0,a2,1984a <_ZN20complex_dynamic_type3app17he12e656b52cbfabeE+0x62>
   19846:	4785                	li	a5,1
   19848:	a859                	j	198de <_ZN20complex_dynamic_type3app17he12e656b52cbfabeE+0xf6>
   1984a:	02814503          	lbu	a0,40(sp)
   1984e:	4785                	li	a5,1
   19850:	02c51363          	bne	a0,a2,19876 <_ZN20complex_dynamic_type3app17he12e656b52cbfabeE+0x8e>
   19854:	864e                	mv	a2,s3
   19856:	6509                	lui	a0,0x2
   19858:	458d                	li	a1,3
   1985a:	06300693          	li	a3,99
   1985e:	470d                	li	a4,3
   19860:	54850513          	addi	a0,a0,1352 # 2548 <.Lline_table_start1+0x231d>
   19864:	4489                	li	s1,2
   19866:	00000073          	ecall
   1986a:	460d                	li	a2,3
   1986c:	00951963          	bne	a0,s1,1987e <_ZN20complex_dynamic_type3app17he12e656b52cbfabeE+0x96>
   19870:	4505                	li	a0,1
   19872:	c911                	beqz	a0,19886 <_ZN20complex_dynamic_type3app17he12e656b52cbfabeE+0x9e>
   19874:	a0ad                	j	198de <_ZN20complex_dynamic_type3app17he12e656b52cbfabeE+0xf6>
   19876:	458d                	li	a1,3
   19878:	4505                	li	a0,1
   1987a:	c511                	beqz	a0,19886 <_ZN20complex_dynamic_type3app17he12e656b52cbfabeE+0x9e>
   1987c:	a08d                	j	198de <_ZN20complex_dynamic_type3app17he12e656b52cbfabeE+0xf6>
   1987e:	4501                	li	a0,0
   19880:	02c10423          	sb	a2,40(sp)
   19884:	ed29                	bnez	a0,198de <_ZN20complex_dynamic_type3app17he12e656b52cbfabeE+0xf6>
   19886:	4681                	li	a3,0
   19888:	6509                	lui	a0,0x2
   1988a:	458d                	li	a1,3
   1988c:	460d                	li	a2,3
   1988e:	4709                	li	a4,2
   19890:	54850513          	addi	a0,a0,1352 # 2548 <.Lline_table_start1+0x231d>
   19894:	07f00493          	li	s1,127
   19898:	00000073          	ecall
   1989c:	4689                	li	a3,2
   1989e:	04a4f063          	bgeu	s1,a0,198de <_ZN20complex_dynamic_type3app17he12e656b52cbfabeE+0xf6>
   198a2:	00c14603          	lbu	a2,12(sp)
   198a6:	00d60a63          	beq	a2,a3,198ba <_ZN20complex_dynamic_type3app17he12e656b52cbfabeE+0xd2>
   198aa:	6509                	lui	a0,0x2
   198ac:	54850513          	addi	a0,a0,1352 # 2548 <.Lline_table_start1+0x231d>
   198b0:	458d                	li	a1,3
   198b2:	00006097          	auipc	ra,0x6
   198b6:	2f2080e7          	jalr	754(ra) # 1fba4 <_ZN9allow_pin12dynamic_type7unshare17h0269127f30dbe29bE>
   198ba:	02814603          	lbu	a2,40(sp)
   198be:	4409                	li	s0,2
   198c0:	00810623          	sb	s0,12(sp)
   198c4:	00860a63          	beq	a2,s0,198d8 <_ZN20complex_dynamic_type3app17he12e656b52cbfabeE+0xf0>
   198c8:	6509                	lui	a0,0x2
   198ca:	54850513          	addi	a0,a0,1352 # 2548 <.Lline_table_start1+0x231d>
   198ce:	458d                	li	a1,3
   198d0:	00006097          	auipc	ra,0x6
   198d4:	2d4080e7          	jalr	724(ra) # 1fba4 <_ZN9allow_pin12dynamic_type7unshare17h0269127f30dbe29bE>
   198d8:	4781                	li	a5,0
   198da:	02810423          	sb	s0,40(sp)
   198de:	cb85                	beqz	a5,1990e <_ZN20complex_dynamic_type3app17he12e656b52cbfabeE+0x126>
   198e0:	02814603          	lbu	a2,40(sp)
   198e4:	4505                	li	a0,1
   198e6:	4409                	li	s0,2
   198e8:	00a90023          	sb	a0,0(s2)
   198ec:	00b92223          	sw	a1,4(s2)
   198f0:	00860a63          	beq	a2,s0,19904 <_ZN20complex_dynamic_type3app17he12e656b52cbfabeE+0x11c>
   198f4:	6509                	lui	a0,0x2
   198f6:	54850513          	addi	a0,a0,1352 # 2548 <.Lline_table_start1+0x231d>
   198fa:	458d                	li	a1,3
   198fc:	00006097          	auipc	ra,0x6
   19900:	2a8080e7          	jalr	680(ra) # 1fba4 <_ZN9allow_pin12dynamic_type7unshare17h0269127f30dbe29bE>
   19904:	00c14603          	lbu	a2,12(sp)
   19908:	04861763          	bne	a2,s0,19956 <_ZN20complex_dynamic_type3app17he12e656b52cbfabeE+0x16e>
   1990c:	a8a9                	j	19966 <_ZN20complex_dynamic_type3app17he12e656b52cbfabeE+0x17e>
   1990e:	02814403          	lbu	s0,40(sp)
   19912:	4489                	li	s1,2
   19914:	00940663          	beq	s0,s1,19920 <_ZN20complex_dynamic_type3app17he12e656b52cbfabeE+0x138>
   19918:	000109b7          	lui	s3,0x10
   1991c:	0d498993          	addi	s3,s3,212 # 100d4 <.Lanon.49c9f8067fe4468184af16d7576940c9.0>
   19920:	00190513          	addi	a0,s2,1
   19924:	06300613          	li	a2,99
   19928:	85ce                	mv	a1,s3
   1992a:	00006097          	auipc	ra,0x6
   1992e:	2f2080e7          	jalr	754(ra) # 1fc1c <memcpy>
   19932:	00090023          	sb	zero,0(s2)
   19936:	00940b63          	beq	s0,s1,1994c <_ZN20complex_dynamic_type3app17he12e656b52cbfabeE+0x164>
   1993a:	6509                	lui	a0,0x2
   1993c:	54850513          	addi	a0,a0,1352 # 2548 <.Lline_table_start1+0x231d>
   19940:	458d                	li	a1,3
   19942:	8622                	mv	a2,s0
   19944:	00006097          	auipc	ra,0x6
   19948:	260080e7          	jalr	608(ra) # 1fba4 <_ZN9allow_pin12dynamic_type7unshare17h0269127f30dbe29bE>
   1994c:	00c14603          	lbu	a2,12(sp)
   19950:	4509                	li	a0,2
   19952:	00a60a63          	beq	a2,a0,19966 <_ZN20complex_dynamic_type3app17he12e656b52cbfabeE+0x17e>
   19956:	6509                	lui	a0,0x2
   19958:	54850513          	addi	a0,a0,1352 # 2548 <.Lline_table_start1+0x231d>
   1995c:	458d                	li	a1,3
   1995e:	00006097          	auipc	ra,0x6
   19962:	246080e7          	jalr	582(ra) # 1fba4 <_ZN9allow_pin12dynamic_type7unshare17h0269127f30dbe29bE>
   19966:	40fa                	lw	ra,156(sp)
   19968:	446a                	lw	s0,152(sp)
   1996a:	44da                	lw	s1,148(sp)
   1996c:	494a                	lw	s2,144(sp)
   1996e:	49ba                	lw	s3,140(sp)
   19970:	610d                	addi	sp,sp,160
   19972:	8082                	ret

00019974 <_ZN20complex_dynamic_type3app17he3e5c7e87a5879efE>:
   19974:	7135                	addi	sp,sp,-160
   19976:	cf06                	sw	ra,156(sp)
   19978:	cd22                	sw	s0,152(sp)
   1997a:	cb26                	sw	s1,148(sp)
   1997c:	c94a                	sw	s2,144(sp)
   1997e:	c74e                	sw	s3,140(sp)
   19980:	892a                	mv	s2,a0
   19982:	4489                	li	s1,2
   19984:	009105a3          	sb	s1,11(sp)
   19988:	0060                	addi	s0,sp,12
   1998a:	06100613          	li	a2,97
   1998e:	8522                	mv	a0,s0
   19990:	00006097          	auipc	ra,0x6
   19994:	28c080e7          	jalr	652(ra) # 1fc1c <memcpy>
   19998:	06e10993          	addi	s3,sp,110
   1999c:	4679                	li	a2,30
   1999e:	854e                	mv	a0,s3
   199a0:	4581                	li	a1,0
   199a2:	00006097          	auipc	ra,0x6
   199a6:	20e080e7          	jalr	526(ra) # 1fbb0 <memset>
   199aa:	8622                	mv	a2,s0
   199ac:	069106a3          	sb	s1,109(sp)
   199b0:	4791                	li	a5,4
   199b2:	18800513          	li	a0,392
   199b6:	4591                	li	a1,4
   199b8:	06100693          	li	a3,97
   199bc:	4711                	li	a4,4
   199be:	00000073          	ecall
   199c2:	00950463          	beq	a0,s1,199ca <_ZN20complex_dynamic_type3app17he3e5c7e87a5879efE+0x56>
   199c6:	00f105a3          	sb	a5,11(sp)
   199ca:	4609                	li	a2,2
   199cc:	00c51463          	bne	a0,a2,199d4 <_ZN20complex_dynamic_type3app17he3e5c7e87a5879efE+0x60>
   199d0:	4785                	li	a5,1
   199d2:	a071                	j	19a5e <_ZN20complex_dynamic_type3app17he3e5c7e87a5879efE+0xea>
   199d4:	06d14503          	lbu	a0,109(sp)
   199d8:	4785                	li	a5,1
   199da:	02c51163          	bne	a0,a2,199fc <_ZN20complex_dynamic_type3app17he3e5c7e87a5879efE+0x88>
   199de:	864e                	mv	a2,s3
   199e0:	18800513          	li	a0,392
   199e4:	4599                	li	a1,6
   199e6:	46f9                	li	a3,30
   199e8:	470d                	li	a4,3
   199ea:	4489                	li	s1,2
   199ec:	00000073          	ecall
   199f0:	460d                	li	a2,3
   199f2:	00951963          	bne	a0,s1,19a04 <_ZN20complex_dynamic_type3app17he3e5c7e87a5879efE+0x90>
   199f6:	4505                	li	a0,1
   199f8:	c911                	beqz	a0,19a0c <_ZN20complex_dynamic_type3app17he3e5c7e87a5879efE+0x98>
   199fa:	a095                	j	19a5e <_ZN20complex_dynamic_type3app17he3e5c7e87a5879efE+0xea>
   199fc:	458d                	li	a1,3
   199fe:	4505                	li	a0,1
   19a00:	c511                	beqz	a0,19a0c <_ZN20complex_dynamic_type3app17he3e5c7e87a5879efE+0x98>
   19a02:	a8b1                	j	19a5e <_ZN20complex_dynamic_type3app17he3e5c7e87a5879efE+0xea>
   19a04:	4501                	li	a0,0
   19a06:	06c106a3          	sb	a2,109(sp)
   19a0a:	e931                	bnez	a0,19a5e <_ZN20complex_dynamic_type3app17he3e5c7e87a5879efE+0xea>
   19a0c:	4681                	li	a3,0
   19a0e:	18800513          	li	a0,392
   19a12:	4591                	li	a1,4
   19a14:	4619                	li	a2,6
   19a16:	4709                	li	a4,2
   19a18:	07f00493          	li	s1,127
   19a1c:	00000073          	ecall
   19a20:	4689                	li	a3,2
   19a22:	02a4fe63          	bgeu	s1,a0,19a5e <_ZN20complex_dynamic_type3app17he3e5c7e87a5879efE+0xea>
   19a26:	00b14603          	lbu	a2,11(sp)
   19a2a:	00d60963          	beq	a2,a3,19a3c <_ZN20complex_dynamic_type3app17he3e5c7e87a5879efE+0xc8>
   19a2e:	18800513          	li	a0,392
   19a32:	4591                	li	a1,4
   19a34:	00006097          	auipc	ra,0x6
   19a38:	170080e7          	jalr	368(ra) # 1fba4 <_ZN9allow_pin12dynamic_type7unshare17h0269127f30dbe29bE>
   19a3c:	06d14603          	lbu	a2,109(sp)
   19a40:	4409                	li	s0,2
   19a42:	008105a3          	sb	s0,11(sp)
   19a46:	00860963          	beq	a2,s0,19a58 <_ZN20complex_dynamic_type3app17he3e5c7e87a5879efE+0xe4>
   19a4a:	18800513          	li	a0,392
   19a4e:	4599                	li	a1,6
   19a50:	00006097          	auipc	ra,0x6
   19a54:	154080e7          	jalr	340(ra) # 1fba4 <_ZN9allow_pin12dynamic_type7unshare17h0269127f30dbe29bE>
   19a58:	4781                	li	a5,0
   19a5a:	068106a3          	sb	s0,109(sp)
   19a5e:	c79d                	beqz	a5,19a8c <_ZN20complex_dynamic_type3app17he3e5c7e87a5879efE+0x118>
   19a60:	06d14603          	lbu	a2,109(sp)
   19a64:	4505                	li	a0,1
   19a66:	4409                	li	s0,2
   19a68:	00a90023          	sb	a0,0(s2)
   19a6c:	00b92223          	sw	a1,4(s2)
   19a70:	00860963          	beq	a2,s0,19a82 <_ZN20complex_dynamic_type3app17he3e5c7e87a5879efE+0x10e>
   19a74:	18800513          	li	a0,392
   19a78:	4599                	li	a1,6
   19a7a:	00006097          	auipc	ra,0x6
   19a7e:	12a080e7          	jalr	298(ra) # 1fba4 <_ZN9allow_pin12dynamic_type7unshare17h0269127f30dbe29bE>
   19a82:	00b14603          	lbu	a2,11(sp)
   19a86:	04861563          	bne	a2,s0,19ad0 <_ZN20complex_dynamic_type3app17he3e5c7e87a5879efE+0x15c>
   19a8a:	a891                	j	19ade <_ZN20complex_dynamic_type3app17he3e5c7e87a5879efE+0x16a>
   19a8c:	06d14403          	lbu	s0,109(sp)
   19a90:	4489                	li	s1,2
   19a92:	00940663          	beq	s0,s1,19a9e <_ZN20complex_dynamic_type3app17he3e5c7e87a5879efE+0x12a>
   19a96:	000109b7          	lui	s3,0x10
   19a9a:	5bd98993          	addi	s3,s3,1469 # 105bd <.Lanon.49c9f8067fe4468184af16d7576940c9.24>
   19a9e:	00190513          	addi	a0,s2,1
   19aa2:	4679                	li	a2,30
   19aa4:	85ce                	mv	a1,s3
   19aa6:	00006097          	auipc	ra,0x6
   19aaa:	176080e7          	jalr	374(ra) # 1fc1c <memcpy>
   19aae:	00090023          	sb	zero,0(s2)
   19ab2:	00940a63          	beq	s0,s1,19ac6 <_ZN20complex_dynamic_type3app17he3e5c7e87a5879efE+0x152>
   19ab6:	18800513          	li	a0,392
   19aba:	4599                	li	a1,6
   19abc:	8622                	mv	a2,s0
   19abe:	00006097          	auipc	ra,0x6
   19ac2:	0e6080e7          	jalr	230(ra) # 1fba4 <_ZN9allow_pin12dynamic_type7unshare17h0269127f30dbe29bE>
   19ac6:	00b14603          	lbu	a2,11(sp)
   19aca:	4509                	li	a0,2
   19acc:	00a60963          	beq	a2,a0,19ade <_ZN20complex_dynamic_type3app17he3e5c7e87a5879efE+0x16a>
   19ad0:	18800513          	li	a0,392
   19ad4:	4591                	li	a1,4
   19ad6:	00006097          	auipc	ra,0x6
   19ada:	0ce080e7          	jalr	206(ra) # 1fba4 <_ZN9allow_pin12dynamic_type7unshare17h0269127f30dbe29bE>
   19ade:	40fa                	lw	ra,156(sp)
   19ae0:	446a                	lw	s0,152(sp)
   19ae2:	44da                	lw	s1,148(sp)
   19ae4:	494a                	lw	s2,144(sp)
   19ae6:	49ba                	lw	s3,140(sp)
   19ae8:	610d                	addi	sp,sp,160
   19aea:	8082                	ret

00019aec <_ZN20complex_dynamic_type3app17he6b12960d77f82daE>:
   19aec:	7175                	addi	sp,sp,-144
   19aee:	c706                	sw	ra,140(sp)
   19af0:	c522                	sw	s0,136(sp)
   19af2:	c326                	sw	s1,132(sp)
   19af4:	c14a                	sw	s2,128(sp)
   19af6:	dece                	sw	s3,124(sp)
   19af8:	892a                	mv	s2,a0
   19afa:	4489                	li	s1,2
   19afc:	00910123          	sb	s1,2(sp)
   19b00:	00310413          	addi	s0,sp,3
   19b04:	02700613          	li	a2,39
   19b08:	8522                	mv	a0,s0
   19b0a:	00006097          	auipc	ra,0x6
   19b0e:	112080e7          	jalr	274(ra) # 1fc1c <memcpy>
   19b12:	02b10993          	addi	s3,sp,43
   19b16:	05100613          	li	a2,81
   19b1a:	854e                	mv	a0,s3
   19b1c:	4581                	li	a1,0
   19b1e:	00006097          	auipc	ra,0x6
   19b22:	092080e7          	jalr	146(ra) # 1fbb0 <memset>
   19b26:	4581                	li	a1,0
   19b28:	8622                	mv	a2,s0
   19b2a:	02910523          	sb	s1,42(sp)
   19b2e:	6505                	lui	a0,0x1
   19b30:	4791                	li	a5,4
   19b32:	a3650513          	addi	a0,a0,-1482 # a36 <.Lline_table_start1+0x80b>
   19b36:	02700693          	li	a3,39
   19b3a:	4711                	li	a4,4
   19b3c:	00000073          	ecall
   19b40:	00950463          	beq	a0,s1,19b48 <_ZN20complex_dynamic_type3app17he6b12960d77f82daE+0x5c>
   19b44:	00f10123          	sb	a5,2(sp)
   19b48:	4609                	li	a2,2
   19b4a:	00c51463          	bne	a0,a2,19b52 <_ZN20complex_dynamic_type3app17he6b12960d77f82daE+0x66>
   19b4e:	4785                	li	a5,1
   19b50:	a859                	j	19be6 <_ZN20complex_dynamic_type3app17he6b12960d77f82daE+0xfa>
   19b52:	02a14503          	lbu	a0,42(sp)
   19b56:	4785                	li	a5,1
   19b58:	02c51363          	bne	a0,a2,19b7e <_ZN20complex_dynamic_type3app17he6b12960d77f82daE+0x92>
   19b5c:	864e                	mv	a2,s3
   19b5e:	6505                	lui	a0,0x1
   19b60:	4591                	li	a1,4
   19b62:	05100693          	li	a3,81
   19b66:	470d                	li	a4,3
   19b68:	a3650513          	addi	a0,a0,-1482 # a36 <.Lline_table_start1+0x80b>
   19b6c:	4489                	li	s1,2
   19b6e:	00000073          	ecall
   19b72:	460d                	li	a2,3
   19b74:	00951963          	bne	a0,s1,19b86 <_ZN20complex_dynamic_type3app17he6b12960d77f82daE+0x9a>
   19b78:	4505                	li	a0,1
   19b7a:	c911                	beqz	a0,19b8e <_ZN20complex_dynamic_type3app17he6b12960d77f82daE+0xa2>
   19b7c:	a0ad                	j	19be6 <_ZN20complex_dynamic_type3app17he6b12960d77f82daE+0xfa>
   19b7e:	458d                	li	a1,3
   19b80:	4505                	li	a0,1
   19b82:	c511                	beqz	a0,19b8e <_ZN20complex_dynamic_type3app17he6b12960d77f82daE+0xa2>
   19b84:	a08d                	j	19be6 <_ZN20complex_dynamic_type3app17he6b12960d77f82daE+0xfa>
   19b86:	4501                	li	a0,0
   19b88:	02c10523          	sb	a2,42(sp)
   19b8c:	ed29                	bnez	a0,19be6 <_ZN20complex_dynamic_type3app17he6b12960d77f82daE+0xfa>
   19b8e:	4581                	li	a1,0
   19b90:	4681                	li	a3,0
   19b92:	6505                	lui	a0,0x1
   19b94:	4611                	li	a2,4
   19b96:	4709                	li	a4,2
   19b98:	a3650513          	addi	a0,a0,-1482 # a36 <.Lline_table_start1+0x80b>
   19b9c:	07f00493          	li	s1,127
   19ba0:	00000073          	ecall
   19ba4:	4689                	li	a3,2
   19ba6:	04a4f063          	bgeu	s1,a0,19be6 <_ZN20complex_dynamic_type3app17he6b12960d77f82daE+0xfa>
   19baa:	00214603          	lbu	a2,2(sp)
   19bae:	00d60a63          	beq	a2,a3,19bc2 <_ZN20complex_dynamic_type3app17he6b12960d77f82daE+0xd6>
   19bb2:	6505                	lui	a0,0x1
   19bb4:	a3650513          	addi	a0,a0,-1482 # a36 <.Lline_table_start1+0x80b>
   19bb8:	4581                	li	a1,0
   19bba:	00006097          	auipc	ra,0x6
   19bbe:	fea080e7          	jalr	-22(ra) # 1fba4 <_ZN9allow_pin12dynamic_type7unshare17h0269127f30dbe29bE>
   19bc2:	02a14603          	lbu	a2,42(sp)
   19bc6:	4409                	li	s0,2
   19bc8:	00810123          	sb	s0,2(sp)
   19bcc:	00860a63          	beq	a2,s0,19be0 <_ZN20complex_dynamic_type3app17he6b12960d77f82daE+0xf4>
   19bd0:	6505                	lui	a0,0x1
   19bd2:	a3650513          	addi	a0,a0,-1482 # a36 <.Lline_table_start1+0x80b>
   19bd6:	4591                	li	a1,4
   19bd8:	00006097          	auipc	ra,0x6
   19bdc:	fcc080e7          	jalr	-52(ra) # 1fba4 <_ZN9allow_pin12dynamic_type7unshare17h0269127f30dbe29bE>
   19be0:	4781                	li	a5,0
   19be2:	02810523          	sb	s0,42(sp)
   19be6:	cb85                	beqz	a5,19c16 <_ZN20complex_dynamic_type3app17he6b12960d77f82daE+0x12a>
   19be8:	02a14603          	lbu	a2,42(sp)
   19bec:	4505                	li	a0,1
   19bee:	4409                	li	s0,2
   19bf0:	00a90023          	sb	a0,0(s2)
   19bf4:	00b92223          	sw	a1,4(s2)
   19bf8:	00860a63          	beq	a2,s0,19c0c <_ZN20complex_dynamic_type3app17he6b12960d77f82daE+0x120>
   19bfc:	6505                	lui	a0,0x1
   19bfe:	a3650513          	addi	a0,a0,-1482 # a36 <.Lline_table_start1+0x80b>
   19c02:	4591                	li	a1,4
   19c04:	00006097          	auipc	ra,0x6
   19c08:	fa0080e7          	jalr	-96(ra) # 1fba4 <_ZN9allow_pin12dynamic_type7unshare17h0269127f30dbe29bE>
   19c0c:	00214603          	lbu	a2,2(sp)
   19c10:	04861763          	bne	a2,s0,19c5e <_ZN20complex_dynamic_type3app17he6b12960d77f82daE+0x172>
   19c14:	a8a9                	j	19c6e <_ZN20complex_dynamic_type3app17he6b12960d77f82daE+0x182>
   19c16:	02a14403          	lbu	s0,42(sp)
   19c1a:	4489                	li	s1,2
   19c1c:	00940663          	beq	s0,s1,19c28 <_ZN20complex_dynamic_type3app17he6b12960d77f82daE+0x13c>
   19c20:	000109b7          	lui	s3,0x10
   19c24:	13798993          	addi	s3,s3,311 # 10137 <.Lanon.49c9f8067fe4468184af16d7576940c9.1>
   19c28:	00190513          	addi	a0,s2,1
   19c2c:	05100613          	li	a2,81
   19c30:	85ce                	mv	a1,s3
   19c32:	00006097          	auipc	ra,0x6
   19c36:	fea080e7          	jalr	-22(ra) # 1fc1c <memcpy>
   19c3a:	00090023          	sb	zero,0(s2)
   19c3e:	00940b63          	beq	s0,s1,19c54 <_ZN20complex_dynamic_type3app17he6b12960d77f82daE+0x168>
   19c42:	6505                	lui	a0,0x1
   19c44:	a3650513          	addi	a0,a0,-1482 # a36 <.Lline_table_start1+0x80b>
   19c48:	4591                	li	a1,4
   19c4a:	8622                	mv	a2,s0
   19c4c:	00006097          	auipc	ra,0x6
   19c50:	f58080e7          	jalr	-168(ra) # 1fba4 <_ZN9allow_pin12dynamic_type7unshare17h0269127f30dbe29bE>
   19c54:	00214603          	lbu	a2,2(sp)
   19c58:	4509                	li	a0,2
   19c5a:	00a60a63          	beq	a2,a0,19c6e <_ZN20complex_dynamic_type3app17he6b12960d77f82daE+0x182>
   19c5e:	6505                	lui	a0,0x1
   19c60:	a3650513          	addi	a0,a0,-1482 # a36 <.Lline_table_start1+0x80b>
   19c64:	4581                	li	a1,0
   19c66:	00006097          	auipc	ra,0x6
   19c6a:	f3e080e7          	jalr	-194(ra) # 1fba4 <_ZN9allow_pin12dynamic_type7unshare17h0269127f30dbe29bE>
   19c6e:	40ba                	lw	ra,140(sp)
   19c70:	442a                	lw	s0,136(sp)
   19c72:	449a                	lw	s1,132(sp)
   19c74:	490a                	lw	s2,128(sp)
   19c76:	59f6                	lw	s3,124(sp)
   19c78:	6149                	addi	sp,sp,144
   19c7a:	8082                	ret

00019c7c <_ZN20complex_dynamic_type3app17he7d99f2c7ce51736E>:
   19c7c:	7175                	addi	sp,sp,-144
   19c7e:	c706                	sw	ra,140(sp)
   19c80:	c522                	sw	s0,136(sp)
   19c82:	c326                	sw	s1,132(sp)
   19c84:	c14a                	sw	s2,128(sp)
   19c86:	dece                	sw	s3,124(sp)
   19c88:	892a                	mv	s2,a0
   19c8a:	4489                	li	s1,2
   19c8c:	009100a3          	sb	s1,1(sp)
   19c90:	00210413          	addi	s0,sp,2
   19c94:	4671                	li	a2,28
   19c96:	8522                	mv	a0,s0
   19c98:	00006097          	auipc	ra,0x6
   19c9c:	f84080e7          	jalr	-124(ra) # 1fc1c <memcpy>
   19ca0:	01f10993          	addi	s3,sp,31
   19ca4:	05d00613          	li	a2,93
   19ca8:	854e                	mv	a0,s3
   19caa:	4581                	li	a1,0
   19cac:	00006097          	auipc	ra,0x6
   19cb0:	f04080e7          	jalr	-252(ra) # 1fbb0 <memset>
   19cb4:	8622                	mv	a2,s0
   19cb6:	00910f23          	sb	s1,30(sp)
   19cba:	6505                	lui	a0,0x1
   19cbc:	4791                	li	a5,4
   19cbe:	45a1                	li	a1,8
   19cc0:	c3e50513          	addi	a0,a0,-962 # c3e <.Lline_table_start1+0xa13>
   19cc4:	46f1                	li	a3,28
   19cc6:	4711                	li	a4,4
   19cc8:	00000073          	ecall
   19ccc:	00950463          	beq	a0,s1,19cd4 <_ZN20complex_dynamic_type3app17he7d99f2c7ce51736E+0x58>
   19cd0:	00f100a3          	sb	a5,1(sp)
   19cd4:	4609                	li	a2,2
   19cd6:	00c51463          	bne	a0,a2,19cde <_ZN20complex_dynamic_type3app17he7d99f2c7ce51736E+0x62>
   19cda:	4785                	li	a5,1
   19cdc:	a859                	j	19d72 <_ZN20complex_dynamic_type3app17he7d99f2c7ce51736E+0xf6>
   19cde:	01e14503          	lbu	a0,30(sp)
   19ce2:	4785                	li	a5,1
   19ce4:	02c51363          	bne	a0,a2,19d0a <_ZN20complex_dynamic_type3app17he7d99f2c7ce51736E+0x8e>
   19ce8:	864e                	mv	a2,s3
   19cea:	6505                	lui	a0,0x1
   19cec:	4595                	li	a1,5
   19cee:	05d00693          	li	a3,93
   19cf2:	470d                	li	a4,3
   19cf4:	c3e50513          	addi	a0,a0,-962 # c3e <.Lline_table_start1+0xa13>
   19cf8:	4489                	li	s1,2
   19cfa:	00000073          	ecall
   19cfe:	460d                	li	a2,3
   19d00:	00951963          	bne	a0,s1,19d12 <_ZN20complex_dynamic_type3app17he7d99f2c7ce51736E+0x96>
   19d04:	4505                	li	a0,1
   19d06:	c911                	beqz	a0,19d1a <_ZN20complex_dynamic_type3app17he7d99f2c7ce51736E+0x9e>
   19d08:	a0ad                	j	19d72 <_ZN20complex_dynamic_type3app17he7d99f2c7ce51736E+0xf6>
   19d0a:	458d                	li	a1,3
   19d0c:	4505                	li	a0,1
   19d0e:	c511                	beqz	a0,19d1a <_ZN20complex_dynamic_type3app17he7d99f2c7ce51736E+0x9e>
   19d10:	a08d                	j	19d72 <_ZN20complex_dynamic_type3app17he7d99f2c7ce51736E+0xf6>
   19d12:	4501                	li	a0,0
   19d14:	00c10f23          	sb	a2,30(sp)
   19d18:	ed29                	bnez	a0,19d72 <_ZN20complex_dynamic_type3app17he7d99f2c7ce51736E+0xf6>
   19d1a:	4681                	li	a3,0
   19d1c:	6505                	lui	a0,0x1
   19d1e:	45a1                	li	a1,8
   19d20:	4615                	li	a2,5
   19d22:	4709                	li	a4,2
   19d24:	c3e50513          	addi	a0,a0,-962 # c3e <.Lline_table_start1+0xa13>
   19d28:	07f00493          	li	s1,127
   19d2c:	00000073          	ecall
   19d30:	4689                	li	a3,2
   19d32:	04a4f063          	bgeu	s1,a0,19d72 <_ZN20complex_dynamic_type3app17he7d99f2c7ce51736E+0xf6>
   19d36:	00114603          	lbu	a2,1(sp)
   19d3a:	00d60a63          	beq	a2,a3,19d4e <_ZN20complex_dynamic_type3app17he7d99f2c7ce51736E+0xd2>
   19d3e:	6505                	lui	a0,0x1
   19d40:	c3e50513          	addi	a0,a0,-962 # c3e <.Lline_table_start1+0xa13>
   19d44:	45a1                	li	a1,8
   19d46:	00006097          	auipc	ra,0x6
   19d4a:	e5e080e7          	jalr	-418(ra) # 1fba4 <_ZN9allow_pin12dynamic_type7unshare17h0269127f30dbe29bE>
   19d4e:	01e14603          	lbu	a2,30(sp)
   19d52:	4409                	li	s0,2
   19d54:	008100a3          	sb	s0,1(sp)
   19d58:	00860a63          	beq	a2,s0,19d6c <_ZN20complex_dynamic_type3app17he7d99f2c7ce51736E+0xf0>
   19d5c:	6505                	lui	a0,0x1
   19d5e:	c3e50513          	addi	a0,a0,-962 # c3e <.Lline_table_start1+0xa13>
   19d62:	4595                	li	a1,5
   19d64:	00006097          	auipc	ra,0x6
   19d68:	e40080e7          	jalr	-448(ra) # 1fba4 <_ZN9allow_pin12dynamic_type7unshare17h0269127f30dbe29bE>
   19d6c:	4781                	li	a5,0
   19d6e:	00810f23          	sb	s0,30(sp)
   19d72:	cb85                	beqz	a5,19da2 <_ZN20complex_dynamic_type3app17he7d99f2c7ce51736E+0x126>
   19d74:	01e14603          	lbu	a2,30(sp)
   19d78:	4505                	li	a0,1
   19d7a:	4409                	li	s0,2
   19d7c:	00a90023          	sb	a0,0(s2)
   19d80:	00b92223          	sw	a1,4(s2)
   19d84:	00860a63          	beq	a2,s0,19d98 <_ZN20complex_dynamic_type3app17he7d99f2c7ce51736E+0x11c>
   19d88:	6505                	lui	a0,0x1
   19d8a:	c3e50513          	addi	a0,a0,-962 # c3e <.Lline_table_start1+0xa13>
   19d8e:	4595                	li	a1,5
   19d90:	00006097          	auipc	ra,0x6
   19d94:	e14080e7          	jalr	-492(ra) # 1fba4 <_ZN9allow_pin12dynamic_type7unshare17h0269127f30dbe29bE>
   19d98:	00114603          	lbu	a2,1(sp)
   19d9c:	04861763          	bne	a2,s0,19dea <_ZN20complex_dynamic_type3app17he7d99f2c7ce51736E+0x16e>
   19da0:	a8a9                	j	19dfa <_ZN20complex_dynamic_type3app17he7d99f2c7ce51736E+0x17e>
   19da2:	01e14403          	lbu	s0,30(sp)
   19da6:	4489                	li	s1,2
   19da8:	00940663          	beq	s0,s1,19db4 <_ZN20complex_dynamic_type3app17he7d99f2c7ce51736E+0x138>
   19dac:	000109b7          	lui	s3,0x10
   19db0:	18898993          	addi	s3,s3,392 # 10188 <.Lanon.49c9f8067fe4468184af16d7576940c9.2>
   19db4:	00190513          	addi	a0,s2,1
   19db8:	05d00613          	li	a2,93
   19dbc:	85ce                	mv	a1,s3
   19dbe:	00006097          	auipc	ra,0x6
   19dc2:	e5e080e7          	jalr	-418(ra) # 1fc1c <memcpy>
   19dc6:	00090023          	sb	zero,0(s2)
   19dca:	00940b63          	beq	s0,s1,19de0 <_ZN20complex_dynamic_type3app17he7d99f2c7ce51736E+0x164>
   19dce:	6505                	lui	a0,0x1
   19dd0:	c3e50513          	addi	a0,a0,-962 # c3e <.Lline_table_start1+0xa13>
   19dd4:	4595                	li	a1,5
   19dd6:	8622                	mv	a2,s0
   19dd8:	00006097          	auipc	ra,0x6
   19ddc:	dcc080e7          	jalr	-564(ra) # 1fba4 <_ZN9allow_pin12dynamic_type7unshare17h0269127f30dbe29bE>
   19de0:	00114603          	lbu	a2,1(sp)
   19de4:	4509                	li	a0,2
   19de6:	00a60a63          	beq	a2,a0,19dfa <_ZN20complex_dynamic_type3app17he7d99f2c7ce51736E+0x17e>
   19dea:	6505                	lui	a0,0x1
   19dec:	c3e50513          	addi	a0,a0,-962 # c3e <.Lline_table_start1+0xa13>
   19df0:	45a1                	li	a1,8
   19df2:	00006097          	auipc	ra,0x6
   19df6:	db2080e7          	jalr	-590(ra) # 1fba4 <_ZN9allow_pin12dynamic_type7unshare17h0269127f30dbe29bE>
   19dfa:	40ba                	lw	ra,140(sp)
   19dfc:	442a                	lw	s0,136(sp)
   19dfe:	449a                	lw	s1,132(sp)
   19e00:	490a                	lw	s2,128(sp)
   19e02:	59f6                	lw	s3,124(sp)
   19e04:	6149                	addi	sp,sp,144
   19e06:	8082                	ret

00019e08 <_ZN20complex_dynamic_type3app17heef5f1fae590e463E>:
   19e08:	711d                	addi	sp,sp,-96
   19e0a:	ce86                	sw	ra,92(sp)
   19e0c:	cca2                	sw	s0,88(sp)
   19e0e:	caa6                	sw	s1,84(sp)
   19e10:	c8ca                	sw	s2,80(sp)
   19e12:	c6ce                	sw	s3,76(sp)
   19e14:	892a                	mv	s2,a0
   19e16:	4489                	li	s1,2
   19e18:	009102a3          	sb	s1,5(sp)
   19e1c:	00610413          	addi	s0,sp,6
   19e20:	02700613          	li	a2,39
   19e24:	8522                	mv	a0,s0
   19e26:	00006097          	auipc	ra,0x6
   19e2a:	df6080e7          	jalr	-522(ra) # 1fc1c <memcpy>
   19e2e:	02e10993          	addi	s3,sp,46
   19e32:	4679                	li	a2,30
   19e34:	854e                	mv	a0,s3
   19e36:	4581                	li	a1,0
   19e38:	00006097          	auipc	ra,0x6
   19e3c:	d78080e7          	jalr	-648(ra) # 1fbb0 <memset>
   19e40:	8622                	mv	a2,s0
   19e42:	029106a3          	sb	s1,45(sp)
   19e46:	6505                	lui	a0,0x1
   19e48:	4791                	li	a5,4
   19e4a:	458d                	li	a1,3
   19e4c:	0e250513          	addi	a0,a0,226 # 10e2 <.Lline_table_start1+0xeb7>
   19e50:	02700693          	li	a3,39
   19e54:	4711                	li	a4,4
   19e56:	00000073          	ecall
   19e5a:	00950463          	beq	a0,s1,19e62 <_ZN20complex_dynamic_type3app17heef5f1fae590e463E+0x5a>
   19e5e:	00f102a3          	sb	a5,5(sp)
   19e62:	4609                	li	a2,2
   19e64:	00c51463          	bne	a0,a2,19e6c <_ZN20complex_dynamic_type3app17heef5f1fae590e463E+0x64>
   19e68:	4785                	li	a5,1
   19e6a:	a851                	j	19efe <_ZN20complex_dynamic_type3app17heef5f1fae590e463E+0xf6>
   19e6c:	02d14503          	lbu	a0,45(sp)
   19e70:	4785                	li	a5,1
   19e72:	02c51263          	bne	a0,a2,19e96 <_ZN20complex_dynamic_type3app17heef5f1fae590e463E+0x8e>
   19e76:	864e                	mv	a2,s3
   19e78:	6505                	lui	a0,0x1
   19e7a:	458d                	li	a1,3
   19e7c:	46f9                	li	a3,30
   19e7e:	470d                	li	a4,3
   19e80:	0e250513          	addi	a0,a0,226 # 10e2 <.Lline_table_start1+0xeb7>
   19e84:	4489                	li	s1,2
   19e86:	00000073          	ecall
   19e8a:	460d                	li	a2,3
   19e8c:	00951963          	bne	a0,s1,19e9e <_ZN20complex_dynamic_type3app17heef5f1fae590e463E+0x96>
   19e90:	4505                	li	a0,1
   19e92:	c911                	beqz	a0,19ea6 <_ZN20complex_dynamic_type3app17heef5f1fae590e463E+0x9e>
   19e94:	a0ad                	j	19efe <_ZN20complex_dynamic_type3app17heef5f1fae590e463E+0xf6>
   19e96:	458d                	li	a1,3
   19e98:	4505                	li	a0,1
   19e9a:	c511                	beqz	a0,19ea6 <_ZN20complex_dynamic_type3app17heef5f1fae590e463E+0x9e>
   19e9c:	a08d                	j	19efe <_ZN20complex_dynamic_type3app17heef5f1fae590e463E+0xf6>
   19e9e:	4501                	li	a0,0
   19ea0:	02c106a3          	sb	a2,45(sp)
   19ea4:	ed29                	bnez	a0,19efe <_ZN20complex_dynamic_type3app17heef5f1fae590e463E+0xf6>
   19ea6:	4681                	li	a3,0
   19ea8:	6505                	lui	a0,0x1
   19eaa:	458d                	li	a1,3
   19eac:	460d                	li	a2,3
   19eae:	4709                	li	a4,2
   19eb0:	0e250513          	addi	a0,a0,226 # 10e2 <.Lline_table_start1+0xeb7>
   19eb4:	07f00493          	li	s1,127
   19eb8:	00000073          	ecall
   19ebc:	4689                	li	a3,2
   19ebe:	04a4f063          	bgeu	s1,a0,19efe <_ZN20complex_dynamic_type3app17heef5f1fae590e463E+0xf6>
   19ec2:	00514603          	lbu	a2,5(sp)
   19ec6:	00d60a63          	beq	a2,a3,19eda <_ZN20complex_dynamic_type3app17heef5f1fae590e463E+0xd2>
   19eca:	6505                	lui	a0,0x1
   19ecc:	0e250513          	addi	a0,a0,226 # 10e2 <.Lline_table_start1+0xeb7>
   19ed0:	458d                	li	a1,3
   19ed2:	00006097          	auipc	ra,0x6
   19ed6:	cd2080e7          	jalr	-814(ra) # 1fba4 <_ZN9allow_pin12dynamic_type7unshare17h0269127f30dbe29bE>
   19eda:	02d14603          	lbu	a2,45(sp)
   19ede:	4409                	li	s0,2
   19ee0:	008102a3          	sb	s0,5(sp)
   19ee4:	00860a63          	beq	a2,s0,19ef8 <_ZN20complex_dynamic_type3app17heef5f1fae590e463E+0xf0>
   19ee8:	6505                	lui	a0,0x1
   19eea:	0e250513          	addi	a0,a0,226 # 10e2 <.Lline_table_start1+0xeb7>
   19eee:	458d                	li	a1,3
   19ef0:	00006097          	auipc	ra,0x6
   19ef4:	cb4080e7          	jalr	-844(ra) # 1fba4 <_ZN9allow_pin12dynamic_type7unshare17h0269127f30dbe29bE>
   19ef8:	4781                	li	a5,0
   19efa:	028106a3          	sb	s0,45(sp)
   19efe:	cb85                	beqz	a5,19f2e <_ZN20complex_dynamic_type3app17heef5f1fae590e463E+0x126>
   19f00:	02d14603          	lbu	a2,45(sp)
   19f04:	4505                	li	a0,1
   19f06:	4409                	li	s0,2
   19f08:	00a90023          	sb	a0,0(s2)
   19f0c:	00b92223          	sw	a1,4(s2)
   19f10:	00860a63          	beq	a2,s0,19f24 <_ZN20complex_dynamic_type3app17heef5f1fae590e463E+0x11c>
   19f14:	6505                	lui	a0,0x1
   19f16:	0e250513          	addi	a0,a0,226 # 10e2 <.Lline_table_start1+0xeb7>
   19f1a:	458d                	li	a1,3
   19f1c:	00006097          	auipc	ra,0x6
   19f20:	c88080e7          	jalr	-888(ra) # 1fba4 <_ZN9allow_pin12dynamic_type7unshare17h0269127f30dbe29bE>
   19f24:	00514603          	lbu	a2,5(sp)
   19f28:	04861663          	bne	a2,s0,19f74 <_ZN20complex_dynamic_type3app17heef5f1fae590e463E+0x16c>
   19f2c:	a8a1                	j	19f84 <_ZN20complex_dynamic_type3app17heef5f1fae590e463E+0x17c>
   19f2e:	02d14403          	lbu	s0,45(sp)
   19f32:	4489                	li	s1,2
   19f34:	00940663          	beq	s0,s1,19f40 <_ZN20complex_dynamic_type3app17heef5f1fae590e463E+0x138>
   19f38:	000109b7          	lui	s3,0x10
   19f3c:	5bd98993          	addi	s3,s3,1469 # 105bd <.Lanon.49c9f8067fe4468184af16d7576940c9.24>
   19f40:	00190513          	addi	a0,s2,1
   19f44:	4679                	li	a2,30
   19f46:	85ce                	mv	a1,s3
   19f48:	00006097          	auipc	ra,0x6
   19f4c:	cd4080e7          	jalr	-812(ra) # 1fc1c <memcpy>
   19f50:	00090023          	sb	zero,0(s2)
   19f54:	00940b63          	beq	s0,s1,19f6a <_ZN20complex_dynamic_type3app17heef5f1fae590e463E+0x162>
   19f58:	6505                	lui	a0,0x1
   19f5a:	0e250513          	addi	a0,a0,226 # 10e2 <.Lline_table_start1+0xeb7>
   19f5e:	458d                	li	a1,3
   19f60:	8622                	mv	a2,s0
   19f62:	00006097          	auipc	ra,0x6
   19f66:	c42080e7          	jalr	-958(ra) # 1fba4 <_ZN9allow_pin12dynamic_type7unshare17h0269127f30dbe29bE>
   19f6a:	00514603          	lbu	a2,5(sp)
   19f6e:	4509                	li	a0,2
   19f70:	00a60a63          	beq	a2,a0,19f84 <_ZN20complex_dynamic_type3app17heef5f1fae590e463E+0x17c>
   19f74:	6505                	lui	a0,0x1
   19f76:	0e250513          	addi	a0,a0,226 # 10e2 <.Lline_table_start1+0xeb7>
   19f7a:	458d                	li	a1,3
   19f7c:	00006097          	auipc	ra,0x6
   19f80:	c28080e7          	jalr	-984(ra) # 1fba4 <_ZN9allow_pin12dynamic_type7unshare17h0269127f30dbe29bE>
   19f84:	40f6                	lw	ra,92(sp)
   19f86:	4466                	lw	s0,88(sp)
   19f88:	44d6                	lw	s1,84(sp)
   19f8a:	4946                	lw	s2,80(sp)
   19f8c:	49b6                	lw	s3,76(sp)
   19f8e:	6125                	addi	sp,sp,96
   19f90:	8082                	ret

00019f92 <_ZN20complex_dynamic_type3app17hef2d001f9d087fe1E>:
   19f92:	7159                	addi	sp,sp,-112
   19f94:	d686                	sw	ra,108(sp)
   19f96:	d4a2                	sw	s0,104(sp)
   19f98:	d2a6                	sw	s1,100(sp)
   19f9a:	d0ca                	sw	s2,96(sp)
   19f9c:	cece                	sw	s3,92(sp)
   19f9e:	892a                	mv	s2,a0
   19fa0:	4489                	li	s1,2
   19fa2:	009105a3          	sb	s1,11(sp)
   19fa6:	0060                	addi	s0,sp,12
   19fa8:	02500613          	li	a2,37
   19fac:	8522                	mv	a0,s0
   19fae:	00006097          	auipc	ra,0x6
   19fb2:	c6e080e7          	jalr	-914(ra) # 1fc1c <memcpy>
   19fb6:	03210993          	addi	s3,sp,50
   19fba:	02a00613          	li	a2,42
   19fbe:	854e                	mv	a0,s3
   19fc0:	4581                	li	a1,0
   19fc2:	00006097          	auipc	ra,0x6
   19fc6:	bee080e7          	jalr	-1042(ra) # 1fbb0 <memset>
   19fca:	4581                	li	a1,0
   19fcc:	8622                	mv	a2,s0
   19fce:	029108a3          	sb	s1,49(sp)
   19fd2:	6505                	lui	a0,0x1
   19fd4:	4791                	li	a5,4
   19fd6:	93c50513          	addi	a0,a0,-1732 # 93c <.Lline_table_start1+0x711>
   19fda:	02500693          	li	a3,37
   19fde:	4711                	li	a4,4
   19fe0:	00000073          	ecall
   19fe4:	00950463          	beq	a0,s1,19fec <_ZN20complex_dynamic_type3app17hef2d001f9d087fe1E+0x5a>
   19fe8:	00f105a3          	sb	a5,11(sp)
   19fec:	4609                	li	a2,2
   19fee:	00c51463          	bne	a0,a2,19ff6 <_ZN20complex_dynamic_type3app17hef2d001f9d087fe1E+0x64>
   19ff2:	4785                	li	a5,1
   19ff4:	a859                	j	1a08a <_ZN20complex_dynamic_type3app17hef2d001f9d087fe1E+0xf8>
   19ff6:	03114503          	lbu	a0,49(sp)
   19ffa:	4785                	li	a5,1
   19ffc:	02c51363          	bne	a0,a2,1a022 <_ZN20complex_dynamic_type3app17hef2d001f9d087fe1E+0x90>
   1a000:	864e                	mv	a2,s3
   1a002:	6505                	lui	a0,0x1
   1a004:	458d                	li	a1,3
   1a006:	02a00693          	li	a3,42
   1a00a:	470d                	li	a4,3
   1a00c:	93c50513          	addi	a0,a0,-1732 # 93c <.Lline_table_start1+0x711>
   1a010:	4489                	li	s1,2
   1a012:	00000073          	ecall
   1a016:	460d                	li	a2,3
   1a018:	00951963          	bne	a0,s1,1a02a <_ZN20complex_dynamic_type3app17hef2d001f9d087fe1E+0x98>
   1a01c:	4505                	li	a0,1
   1a01e:	c911                	beqz	a0,1a032 <_ZN20complex_dynamic_type3app17hef2d001f9d087fe1E+0xa0>
   1a020:	a0ad                	j	1a08a <_ZN20complex_dynamic_type3app17hef2d001f9d087fe1E+0xf8>
   1a022:	458d                	li	a1,3
   1a024:	4505                	li	a0,1
   1a026:	c511                	beqz	a0,1a032 <_ZN20complex_dynamic_type3app17hef2d001f9d087fe1E+0xa0>
   1a028:	a08d                	j	1a08a <_ZN20complex_dynamic_type3app17hef2d001f9d087fe1E+0xf8>
   1a02a:	4501                	li	a0,0
   1a02c:	02c108a3          	sb	a2,49(sp)
   1a030:	ed29                	bnez	a0,1a08a <_ZN20complex_dynamic_type3app17hef2d001f9d087fe1E+0xf8>
   1a032:	4581                	li	a1,0
   1a034:	4681                	li	a3,0
   1a036:	6505                	lui	a0,0x1
   1a038:	460d                	li	a2,3
   1a03a:	4709                	li	a4,2
   1a03c:	93c50513          	addi	a0,a0,-1732 # 93c <.Lline_table_start1+0x711>
   1a040:	07f00493          	li	s1,127
   1a044:	00000073          	ecall
   1a048:	4689                	li	a3,2
   1a04a:	04a4f063          	bgeu	s1,a0,1a08a <_ZN20complex_dynamic_type3app17hef2d001f9d087fe1E+0xf8>
   1a04e:	00b14603          	lbu	a2,11(sp)
   1a052:	00d60a63          	beq	a2,a3,1a066 <_ZN20complex_dynamic_type3app17hef2d001f9d087fe1E+0xd4>
   1a056:	6505                	lui	a0,0x1
   1a058:	93c50513          	addi	a0,a0,-1732 # 93c <.Lline_table_start1+0x711>
   1a05c:	4581                	li	a1,0
   1a05e:	00006097          	auipc	ra,0x6
   1a062:	b46080e7          	jalr	-1210(ra) # 1fba4 <_ZN9allow_pin12dynamic_type7unshare17h0269127f30dbe29bE>
   1a066:	03114603          	lbu	a2,49(sp)
   1a06a:	4409                	li	s0,2
   1a06c:	008105a3          	sb	s0,11(sp)
   1a070:	00860a63          	beq	a2,s0,1a084 <_ZN20complex_dynamic_type3app17hef2d001f9d087fe1E+0xf2>
   1a074:	6505                	lui	a0,0x1
   1a076:	93c50513          	addi	a0,a0,-1732 # 93c <.Lline_table_start1+0x711>
   1a07a:	458d                	li	a1,3
   1a07c:	00006097          	auipc	ra,0x6
   1a080:	b28080e7          	jalr	-1240(ra) # 1fba4 <_ZN9allow_pin12dynamic_type7unshare17h0269127f30dbe29bE>
   1a084:	4781                	li	a5,0
   1a086:	028108a3          	sb	s0,49(sp)
   1a08a:	cb85                	beqz	a5,1a0ba <_ZN20complex_dynamic_type3app17hef2d001f9d087fe1E+0x128>
   1a08c:	03114603          	lbu	a2,49(sp)
   1a090:	4505                	li	a0,1
   1a092:	4409                	li	s0,2
   1a094:	00a90023          	sb	a0,0(s2)
   1a098:	00b92223          	sw	a1,4(s2)
   1a09c:	00860a63          	beq	a2,s0,1a0b0 <_ZN20complex_dynamic_type3app17hef2d001f9d087fe1E+0x11e>
   1a0a0:	6505                	lui	a0,0x1
   1a0a2:	93c50513          	addi	a0,a0,-1732 # 93c <.Lline_table_start1+0x711>
   1a0a6:	458d                	li	a1,3
   1a0a8:	00006097          	auipc	ra,0x6
   1a0ac:	afc080e7          	jalr	-1284(ra) # 1fba4 <_ZN9allow_pin12dynamic_type7unshare17h0269127f30dbe29bE>
   1a0b0:	00b14603          	lbu	a2,11(sp)
   1a0b4:	04861763          	bne	a2,s0,1a102 <_ZN20complex_dynamic_type3app17hef2d001f9d087fe1E+0x170>
   1a0b8:	a8a9                	j	1a112 <_ZN20complex_dynamic_type3app17hef2d001f9d087fe1E+0x180>
   1a0ba:	03114403          	lbu	s0,49(sp)
   1a0be:	4489                	li	s1,2
   1a0c0:	00940663          	beq	s0,s1,1a0cc <_ZN20complex_dynamic_type3app17hef2d001f9d087fe1E+0x13a>
   1a0c4:	000109b7          	lui	s3,0x10
   1a0c8:	2e098993          	addi	s3,s3,736 # 102e0 <.Lanon.49c9f8067fe4468184af16d7576940c9.7>
   1a0cc:	00190513          	addi	a0,s2,1
   1a0d0:	02a00613          	li	a2,42
   1a0d4:	85ce                	mv	a1,s3
   1a0d6:	00006097          	auipc	ra,0x6
   1a0da:	b46080e7          	jalr	-1210(ra) # 1fc1c <memcpy>
   1a0de:	00090023          	sb	zero,0(s2)
   1a0e2:	00940b63          	beq	s0,s1,1a0f8 <_ZN20complex_dynamic_type3app17hef2d001f9d087fe1E+0x166>
   1a0e6:	6505                	lui	a0,0x1
   1a0e8:	93c50513          	addi	a0,a0,-1732 # 93c <.Lline_table_start1+0x711>
   1a0ec:	458d                	li	a1,3
   1a0ee:	8622                	mv	a2,s0
   1a0f0:	00006097          	auipc	ra,0x6
   1a0f4:	ab4080e7          	jalr	-1356(ra) # 1fba4 <_ZN9allow_pin12dynamic_type7unshare17h0269127f30dbe29bE>
   1a0f8:	00b14603          	lbu	a2,11(sp)
   1a0fc:	4509                	li	a0,2
   1a0fe:	00a60a63          	beq	a2,a0,1a112 <_ZN20complex_dynamic_type3app17hef2d001f9d087fe1E+0x180>
   1a102:	6505                	lui	a0,0x1
   1a104:	93c50513          	addi	a0,a0,-1732 # 93c <.Lline_table_start1+0x711>
   1a108:	4581                	li	a1,0
   1a10a:	00006097          	auipc	ra,0x6
   1a10e:	a9a080e7          	jalr	-1382(ra) # 1fba4 <_ZN9allow_pin12dynamic_type7unshare17h0269127f30dbe29bE>
   1a112:	50b6                	lw	ra,108(sp)
   1a114:	5426                	lw	s0,104(sp)
   1a116:	5496                	lw	s1,100(sp)
   1a118:	5906                	lw	s2,96(sp)
   1a11a:	49f6                	lw	s3,92(sp)
   1a11c:	6165                	addi	sp,sp,112
   1a11e:	8082                	ret

0001a120 <_ZN20complex_dynamic_type3app17hef47f8710b177e8eE>:
   1a120:	7119                	addi	sp,sp,-128
   1a122:	de86                	sw	ra,124(sp)
   1a124:	dca2                	sw	s0,120(sp)
   1a126:	daa6                	sw	s1,116(sp)
   1a128:	d8ca                	sw	s2,112(sp)
   1a12a:	d6ce                	sw	s3,108(sp)
   1a12c:	892a                	mv	s2,a0
   1a12e:	4489                	li	s1,2
   1a130:	00910023          	sb	s1,0(sp)
   1a134:	00110413          	addi	s0,sp,1
   1a138:	4669                	li	a2,26
   1a13a:	8522                	mv	a0,s0
   1a13c:	00006097          	auipc	ra,0x6
   1a140:	ae0080e7          	jalr	-1312(ra) # 1fc1c <memcpy>
   1a144:	01c10993          	addi	s3,sp,28
   1a148:	05000613          	li	a2,80
   1a14c:	854e                	mv	a0,s3
   1a14e:	4581                	li	a1,0
   1a150:	00006097          	auipc	ra,0x6
   1a154:	a60080e7          	jalr	-1440(ra) # 1fbb0 <memset>
   1a158:	8622                	mv	a2,s0
   1a15a:	00910da3          	sb	s1,27(sp)
   1a15e:	6505                	lui	a0,0x1
   1a160:	4791                	li	a5,4
   1a162:	459d                	li	a1,7
   1a164:	aee50513          	addi	a0,a0,-1298 # aee <.Lline_table_start1+0x8c3>
   1a168:	46e9                	li	a3,26
   1a16a:	4711                	li	a4,4
   1a16c:	00000073          	ecall
   1a170:	00950463          	beq	a0,s1,1a178 <_ZN20complex_dynamic_type3app17hef47f8710b177e8eE+0x58>
   1a174:	00f10023          	sb	a5,0(sp)
   1a178:	4609                	li	a2,2
   1a17a:	00c51463          	bne	a0,a2,1a182 <_ZN20complex_dynamic_type3app17hef47f8710b177e8eE+0x62>
   1a17e:	4785                	li	a5,1
   1a180:	a859                	j	1a216 <_ZN20complex_dynamic_type3app17hef47f8710b177e8eE+0xf6>
   1a182:	01b14503          	lbu	a0,27(sp)
   1a186:	4785                	li	a5,1
   1a188:	02c51363          	bne	a0,a2,1a1ae <_ZN20complex_dynamic_type3app17hef47f8710b177e8eE+0x8e>
   1a18c:	864e                	mv	a2,s3
   1a18e:	6505                	lui	a0,0x1
   1a190:	4591                	li	a1,4
   1a192:	05000693          	li	a3,80
   1a196:	470d                	li	a4,3
   1a198:	aee50513          	addi	a0,a0,-1298 # aee <.Lline_table_start1+0x8c3>
   1a19c:	4489                	li	s1,2
   1a19e:	00000073          	ecall
   1a1a2:	460d                	li	a2,3
   1a1a4:	00951963          	bne	a0,s1,1a1b6 <_ZN20complex_dynamic_type3app17hef47f8710b177e8eE+0x96>
   1a1a8:	4505                	li	a0,1
   1a1aa:	c911                	beqz	a0,1a1be <_ZN20complex_dynamic_type3app17hef47f8710b177e8eE+0x9e>
   1a1ac:	a0ad                	j	1a216 <_ZN20complex_dynamic_type3app17hef47f8710b177e8eE+0xf6>
   1a1ae:	458d                	li	a1,3
   1a1b0:	4505                	li	a0,1
   1a1b2:	c511                	beqz	a0,1a1be <_ZN20complex_dynamic_type3app17hef47f8710b177e8eE+0x9e>
   1a1b4:	a08d                	j	1a216 <_ZN20complex_dynamic_type3app17hef47f8710b177e8eE+0xf6>
   1a1b6:	4501                	li	a0,0
   1a1b8:	00c10da3          	sb	a2,27(sp)
   1a1bc:	ed29                	bnez	a0,1a216 <_ZN20complex_dynamic_type3app17hef47f8710b177e8eE+0xf6>
   1a1be:	4681                	li	a3,0
   1a1c0:	6505                	lui	a0,0x1
   1a1c2:	459d                	li	a1,7
   1a1c4:	4611                	li	a2,4
   1a1c6:	4709                	li	a4,2
   1a1c8:	aee50513          	addi	a0,a0,-1298 # aee <.Lline_table_start1+0x8c3>
   1a1cc:	07f00493          	li	s1,127
   1a1d0:	00000073          	ecall
   1a1d4:	4689                	li	a3,2
   1a1d6:	04a4f063          	bgeu	s1,a0,1a216 <_ZN20complex_dynamic_type3app17hef47f8710b177e8eE+0xf6>
   1a1da:	00014603          	lbu	a2,0(sp)
   1a1de:	00d60a63          	beq	a2,a3,1a1f2 <_ZN20complex_dynamic_type3app17hef47f8710b177e8eE+0xd2>
   1a1e2:	6505                	lui	a0,0x1
   1a1e4:	aee50513          	addi	a0,a0,-1298 # aee <.Lline_table_start1+0x8c3>
   1a1e8:	459d                	li	a1,7
   1a1ea:	00006097          	auipc	ra,0x6
   1a1ee:	9ba080e7          	jalr	-1606(ra) # 1fba4 <_ZN9allow_pin12dynamic_type7unshare17h0269127f30dbe29bE>
   1a1f2:	01b14603          	lbu	a2,27(sp)
   1a1f6:	4409                	li	s0,2
   1a1f8:	00810023          	sb	s0,0(sp)
   1a1fc:	00860a63          	beq	a2,s0,1a210 <_ZN20complex_dynamic_type3app17hef47f8710b177e8eE+0xf0>
   1a200:	6505                	lui	a0,0x1
   1a202:	aee50513          	addi	a0,a0,-1298 # aee <.Lline_table_start1+0x8c3>
   1a206:	4591                	li	a1,4
   1a208:	00006097          	auipc	ra,0x6
   1a20c:	99c080e7          	jalr	-1636(ra) # 1fba4 <_ZN9allow_pin12dynamic_type7unshare17h0269127f30dbe29bE>
   1a210:	4781                	li	a5,0
   1a212:	00810da3          	sb	s0,27(sp)
   1a216:	cb85                	beqz	a5,1a246 <_ZN20complex_dynamic_type3app17hef47f8710b177e8eE+0x126>
   1a218:	01b14603          	lbu	a2,27(sp)
   1a21c:	4505                	li	a0,1
   1a21e:	4409                	li	s0,2
   1a220:	00a90023          	sb	a0,0(s2)
   1a224:	00b92223          	sw	a1,4(s2)
   1a228:	00860a63          	beq	a2,s0,1a23c <_ZN20complex_dynamic_type3app17hef47f8710b177e8eE+0x11c>
   1a22c:	6505                	lui	a0,0x1
   1a22e:	aee50513          	addi	a0,a0,-1298 # aee <.Lline_table_start1+0x8c3>
   1a232:	4591                	li	a1,4
   1a234:	00006097          	auipc	ra,0x6
   1a238:	970080e7          	jalr	-1680(ra) # 1fba4 <_ZN9allow_pin12dynamic_type7unshare17h0269127f30dbe29bE>
   1a23c:	00014603          	lbu	a2,0(sp)
   1a240:	04861763          	bne	a2,s0,1a28e <_ZN20complex_dynamic_type3app17hef47f8710b177e8eE+0x16e>
   1a244:	a8a9                	j	1a29e <_ZN20complex_dynamic_type3app17hef47f8710b177e8eE+0x17e>
   1a246:	01b14403          	lbu	s0,27(sp)
   1a24a:	4489                	li	s1,2
   1a24c:	00940663          	beq	s0,s1,1a258 <_ZN20complex_dynamic_type3app17hef47f8710b177e8eE+0x138>
   1a250:	000109b7          	lui	s3,0x10
   1a254:	29098993          	addi	s3,s3,656 # 10290 <.Lanon.49c9f8067fe4468184af16d7576940c9.6>
   1a258:	00190513          	addi	a0,s2,1
   1a25c:	05000613          	li	a2,80
   1a260:	85ce                	mv	a1,s3
   1a262:	00006097          	auipc	ra,0x6
   1a266:	9ba080e7          	jalr	-1606(ra) # 1fc1c <memcpy>
   1a26a:	00090023          	sb	zero,0(s2)
   1a26e:	00940b63          	beq	s0,s1,1a284 <_ZN20complex_dynamic_type3app17hef47f8710b177e8eE+0x164>
   1a272:	6505                	lui	a0,0x1
   1a274:	aee50513          	addi	a0,a0,-1298 # aee <.Lline_table_start1+0x8c3>
   1a278:	4591                	li	a1,4
   1a27a:	8622                	mv	a2,s0
   1a27c:	00006097          	auipc	ra,0x6
   1a280:	928080e7          	jalr	-1752(ra) # 1fba4 <_ZN9allow_pin12dynamic_type7unshare17h0269127f30dbe29bE>
   1a284:	00014603          	lbu	a2,0(sp)
   1a288:	4509                	li	a0,2
   1a28a:	00a60a63          	beq	a2,a0,1a29e <_ZN20complex_dynamic_type3app17hef47f8710b177e8eE+0x17e>
   1a28e:	6505                	lui	a0,0x1
   1a290:	aee50513          	addi	a0,a0,-1298 # aee <.Lline_table_start1+0x8c3>
   1a294:	459d                	li	a1,7
   1a296:	00006097          	auipc	ra,0x6
   1a29a:	90e080e7          	jalr	-1778(ra) # 1fba4 <_ZN9allow_pin12dynamic_type7unshare17h0269127f30dbe29bE>
   1a29e:	50f6                	lw	ra,124(sp)
   1a2a0:	5466                	lw	s0,120(sp)
   1a2a2:	54d6                	lw	s1,116(sp)
   1a2a4:	5946                	lw	s2,112(sp)
   1a2a6:	59b6                	lw	s3,108(sp)
   1a2a8:	6109                	addi	sp,sp,128
   1a2aa:	8082                	ret

0001a2ac <_ZN20complex_dynamic_type3app17hf5621bf945da5164E>:
   1a2ac:	7135                	addi	sp,sp,-160
   1a2ae:	cf06                	sw	ra,156(sp)
   1a2b0:	cd22                	sw	s0,152(sp)
   1a2b2:	cb26                	sw	s1,148(sp)
   1a2b4:	c94a                	sw	s2,144(sp)
   1a2b6:	c74e                	sw	s3,140(sp)
   1a2b8:	892a                	mv	s2,a0
   1a2ba:	4489                	li	s1,2
   1a2bc:	009103a3          	sb	s1,7(sp)
   1a2c0:	0020                	addi	s0,sp,8
   1a2c2:	02a00613          	li	a2,42
   1a2c6:	8522                	mv	a0,s0
   1a2c8:	00006097          	auipc	ra,0x6
   1a2cc:	954080e7          	jalr	-1708(ra) # 1fc1c <memcpy>
   1a2d0:	03310993          	addi	s3,sp,51
   1a2d4:	05900613          	li	a2,89
   1a2d8:	854e                	mv	a0,s3
   1a2da:	4581                	li	a1,0
   1a2dc:	00006097          	auipc	ra,0x6
   1a2e0:	8d4080e7          	jalr	-1836(ra) # 1fbb0 <memset>
   1a2e4:	8622                	mv	a2,s0
   1a2e6:	02910923          	sb	s1,50(sp)
   1a2ea:	6505                	lui	a0,0x1
   1a2ec:	4791                	li	a5,4
   1a2ee:	4585                	li	a1,1
   1a2f0:	ed250513          	addi	a0,a0,-302 # ed2 <.Lline_table_start1+0xca7>
   1a2f4:	02a00693          	li	a3,42
   1a2f8:	4711                	li	a4,4
   1a2fa:	00000073          	ecall
   1a2fe:	00950463          	beq	a0,s1,1a306 <_ZN20complex_dynamic_type3app17hf5621bf945da5164E+0x5a>
   1a302:	00f103a3          	sb	a5,7(sp)
   1a306:	4609                	li	a2,2
   1a308:	00c51463          	bne	a0,a2,1a310 <_ZN20complex_dynamic_type3app17hf5621bf945da5164E+0x64>
   1a30c:	4785                	li	a5,1
   1a30e:	a861                	j	1a3a6 <_ZN20complex_dynamic_type3app17hf5621bf945da5164E+0xfa>
   1a310:	03214503          	lbu	a0,50(sp)
   1a314:	4785                	li	a5,1
   1a316:	02c51363          	bne	a0,a2,1a33c <_ZN20complex_dynamic_type3app17hf5621bf945da5164E+0x90>
   1a31a:	864e                	mv	a2,s3
   1a31c:	6505                	lui	a0,0x1
   1a31e:	458d                	li	a1,3
   1a320:	05900693          	li	a3,89
   1a324:	470d                	li	a4,3
   1a326:	ed250513          	addi	a0,a0,-302 # ed2 <.Lline_table_start1+0xca7>
   1a32a:	4489                	li	s1,2
   1a32c:	00000073          	ecall
   1a330:	460d                	li	a2,3
   1a332:	00951963          	bne	a0,s1,1a344 <_ZN20complex_dynamic_type3app17hf5621bf945da5164E+0x98>
   1a336:	4505                	li	a0,1
   1a338:	c911                	beqz	a0,1a34c <_ZN20complex_dynamic_type3app17hf5621bf945da5164E+0xa0>
   1a33a:	a0b5                	j	1a3a6 <_ZN20complex_dynamic_type3app17hf5621bf945da5164E+0xfa>
   1a33c:	458d                	li	a1,3
   1a33e:	4505                	li	a0,1
   1a340:	c511                	beqz	a0,1a34c <_ZN20complex_dynamic_type3app17hf5621bf945da5164E+0xa0>
   1a342:	a095                	j	1a3a6 <_ZN20complex_dynamic_type3app17hf5621bf945da5164E+0xfa>
   1a344:	4501                	li	a0,0
   1a346:	02c10923          	sb	a2,50(sp)
   1a34a:	ed31                	bnez	a0,1a3a6 <_ZN20complex_dynamic_type3app17hf5621bf945da5164E+0xfa>
   1a34c:	4681                	li	a3,0
   1a34e:	6505                	lui	a0,0x1
   1a350:	4785                	li	a5,1
   1a352:	4585                	li	a1,1
   1a354:	460d                	li	a2,3
   1a356:	4709                	li	a4,2
   1a358:	ed250513          	addi	a0,a0,-302 # ed2 <.Lline_table_start1+0xca7>
   1a35c:	07f00493          	li	s1,127
   1a360:	00000073          	ecall
   1a364:	4689                	li	a3,2
   1a366:	04a4f063          	bgeu	s1,a0,1a3a6 <_ZN20complex_dynamic_type3app17hf5621bf945da5164E+0xfa>
   1a36a:	00714603          	lbu	a2,7(sp)
   1a36e:	00d60a63          	beq	a2,a3,1a382 <_ZN20complex_dynamic_type3app17hf5621bf945da5164E+0xd6>
   1a372:	6505                	lui	a0,0x1
   1a374:	ed250513          	addi	a0,a0,-302 # ed2 <.Lline_table_start1+0xca7>
   1a378:	4585                	li	a1,1
   1a37a:	00006097          	auipc	ra,0x6
   1a37e:	82a080e7          	jalr	-2006(ra) # 1fba4 <_ZN9allow_pin12dynamic_type7unshare17h0269127f30dbe29bE>
   1a382:	03214603          	lbu	a2,50(sp)
   1a386:	4409                	li	s0,2
   1a388:	008103a3          	sb	s0,7(sp)
   1a38c:	00860a63          	beq	a2,s0,1a3a0 <_ZN20complex_dynamic_type3app17hf5621bf945da5164E+0xf4>
   1a390:	6505                	lui	a0,0x1
   1a392:	ed250513          	addi	a0,a0,-302 # ed2 <.Lline_table_start1+0xca7>
   1a396:	458d                	li	a1,3
   1a398:	00006097          	auipc	ra,0x6
   1a39c:	80c080e7          	jalr	-2036(ra) # 1fba4 <_ZN9allow_pin12dynamic_type7unshare17h0269127f30dbe29bE>
   1a3a0:	4781                	li	a5,0
   1a3a2:	02810923          	sb	s0,50(sp)
   1a3a6:	cb85                	beqz	a5,1a3d6 <_ZN20complex_dynamic_type3app17hf5621bf945da5164E+0x12a>
   1a3a8:	03214603          	lbu	a2,50(sp)
   1a3ac:	4505                	li	a0,1
   1a3ae:	4409                	li	s0,2
   1a3b0:	00a90023          	sb	a0,0(s2)
   1a3b4:	00b92223          	sw	a1,4(s2)
   1a3b8:	00860a63          	beq	a2,s0,1a3cc <_ZN20complex_dynamic_type3app17hf5621bf945da5164E+0x120>
   1a3bc:	6505                	lui	a0,0x1
   1a3be:	ed250513          	addi	a0,a0,-302 # ed2 <.Lline_table_start1+0xca7>
   1a3c2:	458d                	li	a1,3
   1a3c4:	00005097          	auipc	ra,0x5
   1a3c8:	7e0080e7          	jalr	2016(ra) # 1fba4 <_ZN9allow_pin12dynamic_type7unshare17h0269127f30dbe29bE>
   1a3cc:	00714603          	lbu	a2,7(sp)
   1a3d0:	04861763          	bne	a2,s0,1a41e <_ZN20complex_dynamic_type3app17hf5621bf945da5164E+0x172>
   1a3d4:	a8a9                	j	1a42e <_ZN20complex_dynamic_type3app17hf5621bf945da5164E+0x182>
   1a3d6:	03214403          	lbu	s0,50(sp)
   1a3da:	4489                	li	s1,2
   1a3dc:	00940663          	beq	s0,s1,1a3e8 <_ZN20complex_dynamic_type3app17hf5621bf945da5164E+0x13c>
   1a3e0:	000109b7          	lui	s3,0x10
   1a3e4:	7da98993          	addi	s3,s3,2010 # 107da <.Lanon.49c9f8067fe4468184af16d7576940c9.36>
   1a3e8:	00190513          	addi	a0,s2,1
   1a3ec:	05900613          	li	a2,89
   1a3f0:	85ce                	mv	a1,s3
   1a3f2:	00006097          	auipc	ra,0x6
   1a3f6:	82a080e7          	jalr	-2006(ra) # 1fc1c <memcpy>
   1a3fa:	00090023          	sb	zero,0(s2)
   1a3fe:	00940b63          	beq	s0,s1,1a414 <_ZN20complex_dynamic_type3app17hf5621bf945da5164E+0x168>
   1a402:	6505                	lui	a0,0x1
   1a404:	ed250513          	addi	a0,a0,-302 # ed2 <.Lline_table_start1+0xca7>
   1a408:	458d                	li	a1,3
   1a40a:	8622                	mv	a2,s0
   1a40c:	00005097          	auipc	ra,0x5
   1a410:	798080e7          	jalr	1944(ra) # 1fba4 <_ZN9allow_pin12dynamic_type7unshare17h0269127f30dbe29bE>
   1a414:	00714603          	lbu	a2,7(sp)
   1a418:	4509                	li	a0,2
   1a41a:	00a60a63          	beq	a2,a0,1a42e <_ZN20complex_dynamic_type3app17hf5621bf945da5164E+0x182>
   1a41e:	6505                	lui	a0,0x1
   1a420:	ed250513          	addi	a0,a0,-302 # ed2 <.Lline_table_start1+0xca7>
   1a424:	4585                	li	a1,1
   1a426:	00005097          	auipc	ra,0x5
   1a42a:	77e080e7          	jalr	1918(ra) # 1fba4 <_ZN9allow_pin12dynamic_type7unshare17h0269127f30dbe29bE>
   1a42e:	40fa                	lw	ra,156(sp)
   1a430:	446a                	lw	s0,152(sp)
   1a432:	44da                	lw	s1,148(sp)
   1a434:	494a                	lw	s2,144(sp)
   1a436:	49ba                	lw	s3,140(sp)
   1a438:	610d                	addi	sp,sp,160
   1a43a:	8082                	ret

0001a43c <_ZN20complex_dynamic_type3app17hf66f83c851f9706cE>:
   1a43c:	7119                	addi	sp,sp,-128
   1a43e:	de86                	sw	ra,124(sp)
   1a440:	dca2                	sw	s0,120(sp)
   1a442:	daa6                	sw	s1,116(sp)
   1a444:	d8ca                	sw	s2,112(sp)
   1a446:	d6ce                	sw	s3,108(sp)
   1a448:	892a                	mv	s2,a0
   1a44a:	4489                	li	s1,2
   1a44c:	00910423          	sb	s1,8(sp)
   1a450:	00910413          	addi	s0,sp,9
   1a454:	03b00613          	li	a2,59
   1a458:	8522                	mv	a0,s0
   1a45a:	00005097          	auipc	ra,0x5
   1a45e:	7c2080e7          	jalr	1986(ra) # 1fc1c <memcpy>
   1a462:	04510993          	addi	s3,sp,69
   1a466:	02700613          	li	a2,39
   1a46a:	854e                	mv	a0,s3
   1a46c:	4581                	li	a1,0
   1a46e:	00005097          	auipc	ra,0x5
   1a472:	742080e7          	jalr	1858(ra) # 1fbb0 <memset>
   1a476:	8622                	mv	a2,s0
   1a478:	04910223          	sb	s1,68(sp)
   1a47c:	6505                	lui	a0,0x1
   1a47e:	4791                	li	a5,4
   1a480:	4595                	li	a1,5
   1a482:	bd350513          	addi	a0,a0,-1069 # bd3 <.Lline_table_start1+0x9a8>
   1a486:	03b00693          	li	a3,59
   1a48a:	4711                	li	a4,4
   1a48c:	00000073          	ecall
   1a490:	00950463          	beq	a0,s1,1a498 <_ZN20complex_dynamic_type3app17hf66f83c851f9706cE+0x5c>
   1a494:	00f10423          	sb	a5,8(sp)
   1a498:	4609                	li	a2,2
   1a49a:	00c51463          	bne	a0,a2,1a4a2 <_ZN20complex_dynamic_type3app17hf66f83c851f9706cE+0x66>
   1a49e:	4785                	li	a5,1
   1a4a0:	a859                	j	1a536 <_ZN20complex_dynamic_type3app17hf66f83c851f9706cE+0xfa>
   1a4a2:	04414503          	lbu	a0,68(sp)
   1a4a6:	4785                	li	a5,1
   1a4a8:	02c51363          	bne	a0,a2,1a4ce <_ZN20complex_dynamic_type3app17hf66f83c851f9706cE+0x92>
   1a4ac:	864e                	mv	a2,s3
   1a4ae:	6505                	lui	a0,0x1
   1a4b0:	458d                	li	a1,3
   1a4b2:	02700693          	li	a3,39
   1a4b6:	470d                	li	a4,3
   1a4b8:	bd350513          	addi	a0,a0,-1069 # bd3 <.Lline_table_start1+0x9a8>
   1a4bc:	4489                	li	s1,2
   1a4be:	00000073          	ecall
   1a4c2:	460d                	li	a2,3
   1a4c4:	00951963          	bne	a0,s1,1a4d6 <_ZN20complex_dynamic_type3app17hf66f83c851f9706cE+0x9a>
   1a4c8:	4505                	li	a0,1
   1a4ca:	c911                	beqz	a0,1a4de <_ZN20complex_dynamic_type3app17hf66f83c851f9706cE+0xa2>
   1a4cc:	a0ad                	j	1a536 <_ZN20complex_dynamic_type3app17hf66f83c851f9706cE+0xfa>
   1a4ce:	458d                	li	a1,3
   1a4d0:	4505                	li	a0,1
   1a4d2:	c511                	beqz	a0,1a4de <_ZN20complex_dynamic_type3app17hf66f83c851f9706cE+0xa2>
   1a4d4:	a08d                	j	1a536 <_ZN20complex_dynamic_type3app17hf66f83c851f9706cE+0xfa>
   1a4d6:	4501                	li	a0,0
   1a4d8:	04c10223          	sb	a2,68(sp)
   1a4dc:	ed29                	bnez	a0,1a536 <_ZN20complex_dynamic_type3app17hf66f83c851f9706cE+0xfa>
   1a4de:	4681                	li	a3,0
   1a4e0:	6505                	lui	a0,0x1
   1a4e2:	4595                	li	a1,5
   1a4e4:	460d                	li	a2,3
   1a4e6:	4709                	li	a4,2
   1a4e8:	bd350513          	addi	a0,a0,-1069 # bd3 <.Lline_table_start1+0x9a8>
   1a4ec:	07f00493          	li	s1,127
   1a4f0:	00000073          	ecall
   1a4f4:	4689                	li	a3,2
   1a4f6:	04a4f063          	bgeu	s1,a0,1a536 <_ZN20complex_dynamic_type3app17hf66f83c851f9706cE+0xfa>
   1a4fa:	00814603          	lbu	a2,8(sp)
   1a4fe:	00d60a63          	beq	a2,a3,1a512 <_ZN20complex_dynamic_type3app17hf66f83c851f9706cE+0xd6>
   1a502:	6505                	lui	a0,0x1
   1a504:	bd350513          	addi	a0,a0,-1069 # bd3 <.Lline_table_start1+0x9a8>
   1a508:	4595                	li	a1,5
   1a50a:	00005097          	auipc	ra,0x5
   1a50e:	69a080e7          	jalr	1690(ra) # 1fba4 <_ZN9allow_pin12dynamic_type7unshare17h0269127f30dbe29bE>
   1a512:	04414603          	lbu	a2,68(sp)
   1a516:	4409                	li	s0,2
   1a518:	00810423          	sb	s0,8(sp)
   1a51c:	00860a63          	beq	a2,s0,1a530 <_ZN20complex_dynamic_type3app17hf66f83c851f9706cE+0xf4>
   1a520:	6505                	lui	a0,0x1
   1a522:	bd350513          	addi	a0,a0,-1069 # bd3 <.Lline_table_start1+0x9a8>
   1a526:	458d                	li	a1,3
   1a528:	00005097          	auipc	ra,0x5
   1a52c:	67c080e7          	jalr	1660(ra) # 1fba4 <_ZN9allow_pin12dynamic_type7unshare17h0269127f30dbe29bE>
   1a530:	4781                	li	a5,0
   1a532:	04810223          	sb	s0,68(sp)
   1a536:	cb85                	beqz	a5,1a566 <_ZN20complex_dynamic_type3app17hf66f83c851f9706cE+0x12a>
   1a538:	04414603          	lbu	a2,68(sp)
   1a53c:	4505                	li	a0,1
   1a53e:	4409                	li	s0,2
   1a540:	00a90023          	sb	a0,0(s2)
   1a544:	00b92223          	sw	a1,4(s2)
   1a548:	00860a63          	beq	a2,s0,1a55c <_ZN20complex_dynamic_type3app17hf66f83c851f9706cE+0x120>
   1a54c:	6505                	lui	a0,0x1
   1a54e:	bd350513          	addi	a0,a0,-1069 # bd3 <.Lline_table_start1+0x9a8>
   1a552:	458d                	li	a1,3
   1a554:	00005097          	auipc	ra,0x5
   1a558:	650080e7          	jalr	1616(ra) # 1fba4 <_ZN9allow_pin12dynamic_type7unshare17h0269127f30dbe29bE>
   1a55c:	00814603          	lbu	a2,8(sp)
   1a560:	04861763          	bne	a2,s0,1a5ae <_ZN20complex_dynamic_type3app17hf66f83c851f9706cE+0x172>
   1a564:	a8a9                	j	1a5be <_ZN20complex_dynamic_type3app17hf66f83c851f9706cE+0x182>
   1a566:	04414403          	lbu	s0,68(sp)
   1a56a:	4489                	li	s1,2
   1a56c:	00940663          	beq	s0,s1,1a578 <_ZN20complex_dynamic_type3app17hf66f83c851f9706cE+0x13c>
   1a570:	000109b7          	lui	s3,0x10
   1a574:	30a98993          	addi	s3,s3,778 # 1030a <.Lanon.49c9f8067fe4468184af16d7576940c9.8>
   1a578:	00190513          	addi	a0,s2,1
   1a57c:	02700613          	li	a2,39
   1a580:	85ce                	mv	a1,s3
   1a582:	00005097          	auipc	ra,0x5
   1a586:	69a080e7          	jalr	1690(ra) # 1fc1c <memcpy>
   1a58a:	00090023          	sb	zero,0(s2)
   1a58e:	00940b63          	beq	s0,s1,1a5a4 <_ZN20complex_dynamic_type3app17hf66f83c851f9706cE+0x168>
   1a592:	6505                	lui	a0,0x1
   1a594:	bd350513          	addi	a0,a0,-1069 # bd3 <.Lline_table_start1+0x9a8>
   1a598:	458d                	li	a1,3
   1a59a:	8622                	mv	a2,s0
   1a59c:	00005097          	auipc	ra,0x5
   1a5a0:	608080e7          	jalr	1544(ra) # 1fba4 <_ZN9allow_pin12dynamic_type7unshare17h0269127f30dbe29bE>
   1a5a4:	00814603          	lbu	a2,8(sp)
   1a5a8:	4509                	li	a0,2
   1a5aa:	00a60a63          	beq	a2,a0,1a5be <_ZN20complex_dynamic_type3app17hf66f83c851f9706cE+0x182>
   1a5ae:	6505                	lui	a0,0x1
   1a5b0:	bd350513          	addi	a0,a0,-1069 # bd3 <.Lline_table_start1+0x9a8>
   1a5b4:	4595                	li	a1,5
   1a5b6:	00005097          	auipc	ra,0x5
   1a5ba:	5ee080e7          	jalr	1518(ra) # 1fba4 <_ZN9allow_pin12dynamic_type7unshare17h0269127f30dbe29bE>
   1a5be:	50f6                	lw	ra,124(sp)
   1a5c0:	5466                	lw	s0,120(sp)
   1a5c2:	54d6                	lw	s1,116(sp)
   1a5c4:	5946                	lw	s2,112(sp)
   1a5c6:	59b6                	lw	s3,108(sp)
   1a5c8:	6109                	addi	sp,sp,128
   1a5ca:	8082                	ret

0001a5cc <_ZN20complex_dynamic_type3app17hf6cf9870029b5d8aE>:
   1a5cc:	7175                	addi	sp,sp,-144
   1a5ce:	c706                	sw	ra,140(sp)
   1a5d0:	c522                	sw	s0,136(sp)
   1a5d2:	c326                	sw	s1,132(sp)
   1a5d4:	c14a                	sw	s2,128(sp)
   1a5d6:	dece                	sw	s3,124(sp)
   1a5d8:	892a                	mv	s2,a0
   1a5da:	4489                	li	s1,2
   1a5dc:	009105a3          	sb	s1,11(sp)
   1a5e0:	0060                	addi	s0,sp,12
   1a5e2:	05d00613          	li	a2,93
   1a5e6:	8522                	mv	a0,s0
   1a5e8:	00005097          	auipc	ra,0x5
   1a5ec:	634080e7          	jalr	1588(ra) # 1fc1c <memcpy>
   1a5f0:	06a10993          	addi	s3,sp,106
   1a5f4:	4649                	li	a2,18
   1a5f6:	854e                	mv	a0,s3
   1a5f8:	4581                	li	a1,0
   1a5fa:	00005097          	auipc	ra,0x5
   1a5fe:	5b6080e7          	jalr	1462(ra) # 1fbb0 <memset>
   1a602:	4581                	li	a1,0
   1a604:	8622                	mv	a2,s0
   1a606:	069104a3          	sb	s1,105(sp)
   1a60a:	6505                	lui	a0,0x1
   1a60c:	4791                	li	a5,4
   1a60e:	5f150513          	addi	a0,a0,1521 # 15f1 <.Lline_table_start1+0x13c6>
   1a612:	05d00693          	li	a3,93
   1a616:	4711                	li	a4,4
   1a618:	00000073          	ecall
   1a61c:	00950463          	beq	a0,s1,1a624 <_ZN20complex_dynamic_type3app17hf6cf9870029b5d8aE+0x58>
   1a620:	00f105a3          	sb	a5,11(sp)
   1a624:	4609                	li	a2,2
   1a626:	00c51463          	bne	a0,a2,1a62e <_ZN20complex_dynamic_type3app17hf6cf9870029b5d8aE+0x62>
   1a62a:	4785                	li	a5,1
   1a62c:	a851                	j	1a6c0 <_ZN20complex_dynamic_type3app17hf6cf9870029b5d8aE+0xf4>
   1a62e:	06914503          	lbu	a0,105(sp)
   1a632:	4785                	li	a5,1
   1a634:	02c51263          	bne	a0,a2,1a658 <_ZN20complex_dynamic_type3app17hf6cf9870029b5d8aE+0x8c>
   1a638:	864e                	mv	a2,s3
   1a63a:	6505                	lui	a0,0x1
   1a63c:	4409                	li	s0,2
   1a63e:	448d                	li	s1,3
   1a640:	4589                	li	a1,2
   1a642:	5f150513          	addi	a0,a0,1521 # 15f1 <.Lline_table_start1+0x13c6>
   1a646:	46c9                	li	a3,18
   1a648:	470d                	li	a4,3
   1a64a:	00000073          	ecall
   1a64e:	00851963          	bne	a0,s0,1a660 <_ZN20complex_dynamic_type3app17hf6cf9870029b5d8aE+0x94>
   1a652:	4505                	li	a0,1
   1a654:	c911                	beqz	a0,1a668 <_ZN20complex_dynamic_type3app17hf6cf9870029b5d8aE+0x9c>
   1a656:	a0ad                	j	1a6c0 <_ZN20complex_dynamic_type3app17hf6cf9870029b5d8aE+0xf4>
   1a658:	458d                	li	a1,3
   1a65a:	4505                	li	a0,1
   1a65c:	c511                	beqz	a0,1a668 <_ZN20complex_dynamic_type3app17hf6cf9870029b5d8aE+0x9c>
   1a65e:	a08d                	j	1a6c0 <_ZN20complex_dynamic_type3app17hf6cf9870029b5d8aE+0xf4>
   1a660:	4501                	li	a0,0
   1a662:	069104a3          	sb	s1,105(sp)
   1a666:	ed29                	bnez	a0,1a6c0 <_ZN20complex_dynamic_type3app17hf6cf9870029b5d8aE+0xf4>
   1a668:	4581                	li	a1,0
   1a66a:	4681                	li	a3,0
   1a66c:	6505                	lui	a0,0x1
   1a66e:	4609                	li	a2,2
   1a670:	4709                	li	a4,2
   1a672:	5f150513          	addi	a0,a0,1521 # 15f1 <.Lline_table_start1+0x13c6>
   1a676:	07f00493          	li	s1,127
   1a67a:	00000073          	ecall
   1a67e:	4689                	li	a3,2
   1a680:	04a4f063          	bgeu	s1,a0,1a6c0 <_ZN20complex_dynamic_type3app17hf6cf9870029b5d8aE+0xf4>
   1a684:	00b14603          	lbu	a2,11(sp)
   1a688:	00d60a63          	beq	a2,a3,1a69c <_ZN20complex_dynamic_type3app17hf6cf9870029b5d8aE+0xd0>
   1a68c:	6505                	lui	a0,0x1
   1a68e:	5f150513          	addi	a0,a0,1521 # 15f1 <.Lline_table_start1+0x13c6>
   1a692:	4581                	li	a1,0
   1a694:	00005097          	auipc	ra,0x5
   1a698:	510080e7          	jalr	1296(ra) # 1fba4 <_ZN9allow_pin12dynamic_type7unshare17h0269127f30dbe29bE>
   1a69c:	06914603          	lbu	a2,105(sp)
   1a6a0:	4409                	li	s0,2
   1a6a2:	008105a3          	sb	s0,11(sp)
   1a6a6:	00860a63          	beq	a2,s0,1a6ba <_ZN20complex_dynamic_type3app17hf6cf9870029b5d8aE+0xee>
   1a6aa:	6505                	lui	a0,0x1
   1a6ac:	5f150513          	addi	a0,a0,1521 # 15f1 <.Lline_table_start1+0x13c6>
   1a6b0:	4589                	li	a1,2
   1a6b2:	00005097          	auipc	ra,0x5
   1a6b6:	4f2080e7          	jalr	1266(ra) # 1fba4 <_ZN9allow_pin12dynamic_type7unshare17h0269127f30dbe29bE>
   1a6ba:	4781                	li	a5,0
   1a6bc:	068104a3          	sb	s0,105(sp)
   1a6c0:	cb85                	beqz	a5,1a6f0 <_ZN20complex_dynamic_type3app17hf6cf9870029b5d8aE+0x124>
   1a6c2:	06914603          	lbu	a2,105(sp)
   1a6c6:	4505                	li	a0,1
   1a6c8:	4409                	li	s0,2
   1a6ca:	00a90023          	sb	a0,0(s2)
   1a6ce:	00b92223          	sw	a1,4(s2)
   1a6d2:	00860a63          	beq	a2,s0,1a6e6 <_ZN20complex_dynamic_type3app17hf6cf9870029b5d8aE+0x11a>
   1a6d6:	6505                	lui	a0,0x1
   1a6d8:	5f150513          	addi	a0,a0,1521 # 15f1 <.Lline_table_start1+0x13c6>
   1a6dc:	4589                	li	a1,2
   1a6de:	00005097          	auipc	ra,0x5
   1a6e2:	4c6080e7          	jalr	1222(ra) # 1fba4 <_ZN9allow_pin12dynamic_type7unshare17h0269127f30dbe29bE>
   1a6e6:	00b14603          	lbu	a2,11(sp)
   1a6ea:	04861663          	bne	a2,s0,1a736 <_ZN20complex_dynamic_type3app17hf6cf9870029b5d8aE+0x16a>
   1a6ee:	a8a1                	j	1a746 <_ZN20complex_dynamic_type3app17hf6cf9870029b5d8aE+0x17a>
   1a6f0:	06914403          	lbu	s0,105(sp)
   1a6f4:	4489                	li	s1,2
   1a6f6:	00940663          	beq	s0,s1,1a702 <_ZN20complex_dynamic_type3app17hf6cf9870029b5d8aE+0x136>
   1a6fa:	000109b7          	lui	s3,0x10
   1a6fe:	1e598993          	addi	s3,s3,485 # 101e5 <.Lanon.49c9f8067fe4468184af16d7576940c9.3>
   1a702:	00190513          	addi	a0,s2,1
   1a706:	4649                	li	a2,18
   1a708:	85ce                	mv	a1,s3
   1a70a:	00005097          	auipc	ra,0x5
   1a70e:	512080e7          	jalr	1298(ra) # 1fc1c <memcpy>
   1a712:	00090023          	sb	zero,0(s2)
   1a716:	00940b63          	beq	s0,s1,1a72c <_ZN20complex_dynamic_type3app17hf6cf9870029b5d8aE+0x160>
   1a71a:	6505                	lui	a0,0x1
   1a71c:	5f150513          	addi	a0,a0,1521 # 15f1 <.Lline_table_start1+0x13c6>
   1a720:	4589                	li	a1,2
   1a722:	8622                	mv	a2,s0
   1a724:	00005097          	auipc	ra,0x5
   1a728:	480080e7          	jalr	1152(ra) # 1fba4 <_ZN9allow_pin12dynamic_type7unshare17h0269127f30dbe29bE>
   1a72c:	00b14603          	lbu	a2,11(sp)
   1a730:	4509                	li	a0,2
   1a732:	00a60a63          	beq	a2,a0,1a746 <_ZN20complex_dynamic_type3app17hf6cf9870029b5d8aE+0x17a>
   1a736:	6505                	lui	a0,0x1
   1a738:	5f150513          	addi	a0,a0,1521 # 15f1 <.Lline_table_start1+0x13c6>
   1a73c:	4581                	li	a1,0
   1a73e:	00005097          	auipc	ra,0x5
   1a742:	466080e7          	jalr	1126(ra) # 1fba4 <_ZN9allow_pin12dynamic_type7unshare17h0269127f30dbe29bE>
   1a746:	40ba                	lw	ra,140(sp)
   1a748:	442a                	lw	s0,136(sp)
   1a74a:	449a                	lw	s1,132(sp)
   1a74c:	490a                	lw	s2,128(sp)
   1a74e:	59f6                	lw	s3,124(sp)
   1a750:	6149                	addi	sp,sp,144
   1a752:	8082                	ret

0001a754 <_ZN20complex_dynamic_type3app17hf7f0c86aed5d5cb4E>:
   1a754:	711d                	addi	sp,sp,-96
   1a756:	ce86                	sw	ra,92(sp)
   1a758:	cca2                	sw	s0,88(sp)
   1a75a:	caa6                	sw	s1,84(sp)
   1a75c:	c8ca                	sw	s2,80(sp)
   1a75e:	c6ce                	sw	s3,76(sp)
   1a760:	892a                	mv	s2,a0
   1a762:	4489                	li	s1,2
   1a764:	00910023          	sb	s1,0(sp)
   1a768:	00110413          	addi	s0,sp,1
   1a76c:	4679                	li	a2,30
   1a76e:	8522                	mv	a0,s0
   1a770:	00005097          	auipc	ra,0x5
   1a774:	4ac080e7          	jalr	1196(ra) # 1fc1c <memcpy>
   1a778:	02010993          	addi	s3,sp,32
   1a77c:	02c00613          	li	a2,44
   1a780:	854e                	mv	a0,s3
   1a782:	4581                	li	a1,0
   1a784:	00005097          	auipc	ra,0x5
   1a788:	42c080e7          	jalr	1068(ra) # 1fbb0 <memset>
   1a78c:	8622                	mv	a2,s0
   1a78e:	00910fa3          	sb	s1,31(sp)
   1a792:	4791                	li	a5,4
   1a794:	3fb00513          	li	a0,1019
   1a798:	459d                	li	a1,7
   1a79a:	46f9                	li	a3,30
   1a79c:	4711                	li	a4,4
   1a79e:	00000073          	ecall
   1a7a2:	00950463          	beq	a0,s1,1a7aa <_ZN20complex_dynamic_type3app17hf7f0c86aed5d5cb4E+0x56>
   1a7a6:	00f10023          	sb	a5,0(sp)
   1a7aa:	4609                	li	a2,2
   1a7ac:	00c51463          	bne	a0,a2,1a7b4 <_ZN20complex_dynamic_type3app17hf7f0c86aed5d5cb4E+0x60>
   1a7b0:	4785                	li	a5,1
   1a7b2:	a079                	j	1a840 <_ZN20complex_dynamic_type3app17hf7f0c86aed5d5cb4E+0xec>
   1a7b4:	01f14503          	lbu	a0,31(sp)
   1a7b8:	4785                	li	a5,1
   1a7ba:	02c51263          	bne	a0,a2,1a7de <_ZN20complex_dynamic_type3app17hf7f0c86aed5d5cb4E+0x8a>
   1a7be:	4581                	li	a1,0
   1a7c0:	864e                	mv	a2,s3
   1a7c2:	3fb00513          	li	a0,1019
   1a7c6:	02c00693          	li	a3,44
   1a7ca:	470d                	li	a4,3
   1a7cc:	4489                	li	s1,2
   1a7ce:	00000073          	ecall
   1a7d2:	460d                	li	a2,3
   1a7d4:	00951963          	bne	a0,s1,1a7e6 <_ZN20complex_dynamic_type3app17hf7f0c86aed5d5cb4E+0x92>
   1a7d8:	4505                	li	a0,1
   1a7da:	c911                	beqz	a0,1a7ee <_ZN20complex_dynamic_type3app17hf7f0c86aed5d5cb4E+0x9a>
   1a7dc:	a095                	j	1a840 <_ZN20complex_dynamic_type3app17hf7f0c86aed5d5cb4E+0xec>
   1a7de:	458d                	li	a1,3
   1a7e0:	4505                	li	a0,1
   1a7e2:	c511                	beqz	a0,1a7ee <_ZN20complex_dynamic_type3app17hf7f0c86aed5d5cb4E+0x9a>
   1a7e4:	a8b1                	j	1a840 <_ZN20complex_dynamic_type3app17hf7f0c86aed5d5cb4E+0xec>
   1a7e6:	4501                	li	a0,0
   1a7e8:	00c10fa3          	sb	a2,31(sp)
   1a7ec:	e931                	bnez	a0,1a840 <_ZN20complex_dynamic_type3app17hf7f0c86aed5d5cb4E+0xec>
   1a7ee:	4601                	li	a2,0
   1a7f0:	4681                	li	a3,0
   1a7f2:	3fb00513          	li	a0,1019
   1a7f6:	459d                	li	a1,7
   1a7f8:	4709                	li	a4,2
   1a7fa:	07f00493          	li	s1,127
   1a7fe:	00000073          	ecall
   1a802:	4689                	li	a3,2
   1a804:	02a4fe63          	bgeu	s1,a0,1a840 <_ZN20complex_dynamic_type3app17hf7f0c86aed5d5cb4E+0xec>
   1a808:	00014603          	lbu	a2,0(sp)
   1a80c:	00d60963          	beq	a2,a3,1a81e <_ZN20complex_dynamic_type3app17hf7f0c86aed5d5cb4E+0xca>
   1a810:	3fb00513          	li	a0,1019
   1a814:	459d                	li	a1,7
   1a816:	00005097          	auipc	ra,0x5
   1a81a:	38e080e7          	jalr	910(ra) # 1fba4 <_ZN9allow_pin12dynamic_type7unshare17h0269127f30dbe29bE>
   1a81e:	01f14603          	lbu	a2,31(sp)
   1a822:	4409                	li	s0,2
   1a824:	00810023          	sb	s0,0(sp)
   1a828:	00860963          	beq	a2,s0,1a83a <_ZN20complex_dynamic_type3app17hf7f0c86aed5d5cb4E+0xe6>
   1a82c:	3fb00513          	li	a0,1019
   1a830:	4581                	li	a1,0
   1a832:	00005097          	auipc	ra,0x5
   1a836:	372080e7          	jalr	882(ra) # 1fba4 <_ZN9allow_pin12dynamic_type7unshare17h0269127f30dbe29bE>
   1a83a:	4781                	li	a5,0
   1a83c:	00810fa3          	sb	s0,31(sp)
   1a840:	c79d                	beqz	a5,1a86e <_ZN20complex_dynamic_type3app17hf7f0c86aed5d5cb4E+0x11a>
   1a842:	01f14603          	lbu	a2,31(sp)
   1a846:	4505                	li	a0,1
   1a848:	4409                	li	s0,2
   1a84a:	00a90023          	sb	a0,0(s2)
   1a84e:	00b92223          	sw	a1,4(s2)
   1a852:	00860963          	beq	a2,s0,1a864 <_ZN20complex_dynamic_type3app17hf7f0c86aed5d5cb4E+0x110>
   1a856:	3fb00513          	li	a0,1019
   1a85a:	4581                	li	a1,0
   1a85c:	00005097          	auipc	ra,0x5
   1a860:	348080e7          	jalr	840(ra) # 1fba4 <_ZN9allow_pin12dynamic_type7unshare17h0269127f30dbe29bE>
   1a864:	00014603          	lbu	a2,0(sp)
   1a868:	04861663          	bne	a2,s0,1a8b4 <_ZN20complex_dynamic_type3app17hf7f0c86aed5d5cb4E+0x160>
   1a86c:	a899                	j	1a8c2 <_ZN20complex_dynamic_type3app17hf7f0c86aed5d5cb4E+0x16e>
   1a86e:	01f14403          	lbu	s0,31(sp)
   1a872:	4489                	li	s1,2
   1a874:	00940663          	beq	s0,s1,1a880 <_ZN20complex_dynamic_type3app17hf7f0c86aed5d5cb4E+0x12c>
   1a878:	000109b7          	lui	s3,0x10
   1a87c:	40998993          	addi	s3,s3,1033 # 10409 <.Lanon.49c9f8067fe4468184af16d7576940c9.14>
   1a880:	00190513          	addi	a0,s2,1
   1a884:	02c00613          	li	a2,44
   1a888:	85ce                	mv	a1,s3
   1a88a:	00005097          	auipc	ra,0x5
   1a88e:	392080e7          	jalr	914(ra) # 1fc1c <memcpy>
   1a892:	00090023          	sb	zero,0(s2)
   1a896:	00940a63          	beq	s0,s1,1a8aa <_ZN20complex_dynamic_type3app17hf7f0c86aed5d5cb4E+0x156>
   1a89a:	3fb00513          	li	a0,1019
   1a89e:	4581                	li	a1,0
   1a8a0:	8622                	mv	a2,s0
   1a8a2:	00005097          	auipc	ra,0x5
   1a8a6:	302080e7          	jalr	770(ra) # 1fba4 <_ZN9allow_pin12dynamic_type7unshare17h0269127f30dbe29bE>
   1a8aa:	00014603          	lbu	a2,0(sp)
   1a8ae:	4509                	li	a0,2
   1a8b0:	00a60963          	beq	a2,a0,1a8c2 <_ZN20complex_dynamic_type3app17hf7f0c86aed5d5cb4E+0x16e>
   1a8b4:	3fb00513          	li	a0,1019
   1a8b8:	459d                	li	a1,7
   1a8ba:	00005097          	auipc	ra,0x5
   1a8be:	2ea080e7          	jalr	746(ra) # 1fba4 <_ZN9allow_pin12dynamic_type7unshare17h0269127f30dbe29bE>
   1a8c2:	40f6                	lw	ra,92(sp)
   1a8c4:	4466                	lw	s0,88(sp)
   1a8c6:	44d6                	lw	s1,84(sp)
   1a8c8:	4946                	lw	s2,80(sp)
   1a8ca:	49b6                	lw	s3,76(sp)
   1a8cc:	6125                	addi	sp,sp,96
   1a8ce:	8082                	ret

0001a8d0 <_ZN20complex_dynamic_type3app17hfc3cd98966d6cb49E>:
   1a8d0:	711d                	addi	sp,sp,-96
   1a8d2:	ce86                	sw	ra,92(sp)
   1a8d4:	cca2                	sw	s0,88(sp)
   1a8d6:	caa6                	sw	s1,84(sp)
   1a8d8:	c8ca                	sw	s2,80(sp)
   1a8da:	c6ce                	sw	s3,76(sp)
   1a8dc:	892a                	mv	s2,a0
   1a8de:	4489                	li	s1,2
   1a8e0:	009102a3          	sb	s1,5(sp)
   1a8e4:	00610413          	addi	s0,sp,6
   1a8e8:	03600613          	li	a2,54
   1a8ec:	8522                	mv	a0,s0
   1a8ee:	00005097          	auipc	ra,0x5
   1a8f2:	32e080e7          	jalr	814(ra) # 1fc1c <memcpy>
   1a8f6:	03d10993          	addi	s3,sp,61
   1a8fa:	463d                	li	a2,15
   1a8fc:	854e                	mv	a0,s3
   1a8fe:	4581                	li	a1,0
   1a900:	00005097          	auipc	ra,0x5
   1a904:	2b0080e7          	jalr	688(ra) # 1fbb0 <memset>
   1a908:	8622                	mv	a2,s0
   1a90a:	02910e23          	sb	s1,60(sp)
   1a90e:	4791                	li	a5,4
   1a910:	65300513          	li	a0,1619
   1a914:	4595                	li	a1,5
   1a916:	03600693          	li	a3,54
   1a91a:	4711                	li	a4,4
   1a91c:	00000073          	ecall
   1a920:	00950463          	beq	a0,s1,1a928 <_ZN20complex_dynamic_type3app17hfc3cd98966d6cb49E+0x58>
   1a924:	00f102a3          	sb	a5,5(sp)
   1a928:	4609                	li	a2,2
   1a92a:	00c51463          	bne	a0,a2,1a932 <_ZN20complex_dynamic_type3app17hfc3cd98966d6cb49E+0x62>
   1a92e:	4785                	li	a5,1
   1a930:	a071                	j	1a9bc <_ZN20complex_dynamic_type3app17hfc3cd98966d6cb49E+0xec>
   1a932:	03c14503          	lbu	a0,60(sp)
   1a936:	4785                	li	a5,1
   1a938:	02c51163          	bne	a0,a2,1a95a <_ZN20complex_dynamic_type3app17hfc3cd98966d6cb49E+0x8a>
   1a93c:	864e                	mv	a2,s3
   1a93e:	65300513          	li	a0,1619
   1a942:	458d                	li	a1,3
   1a944:	46bd                	li	a3,15
   1a946:	470d                	li	a4,3
   1a948:	4489                	li	s1,2
   1a94a:	00000073          	ecall
   1a94e:	460d                	li	a2,3
   1a950:	00951963          	bne	a0,s1,1a962 <_ZN20complex_dynamic_type3app17hfc3cd98966d6cb49E+0x92>
   1a954:	4505                	li	a0,1
   1a956:	c911                	beqz	a0,1a96a <_ZN20complex_dynamic_type3app17hfc3cd98966d6cb49E+0x9a>
   1a958:	a095                	j	1a9bc <_ZN20complex_dynamic_type3app17hfc3cd98966d6cb49E+0xec>
   1a95a:	458d                	li	a1,3
   1a95c:	4505                	li	a0,1
   1a95e:	c511                	beqz	a0,1a96a <_ZN20complex_dynamic_type3app17hfc3cd98966d6cb49E+0x9a>
   1a960:	a8b1                	j	1a9bc <_ZN20complex_dynamic_type3app17hfc3cd98966d6cb49E+0xec>
   1a962:	4501                	li	a0,0
   1a964:	02c10e23          	sb	a2,60(sp)
   1a968:	e931                	bnez	a0,1a9bc <_ZN20complex_dynamic_type3app17hfc3cd98966d6cb49E+0xec>
   1a96a:	4681                	li	a3,0
   1a96c:	65300513          	li	a0,1619
   1a970:	4595                	li	a1,5
   1a972:	460d                	li	a2,3
   1a974:	4709                	li	a4,2
   1a976:	07f00493          	li	s1,127
   1a97a:	00000073          	ecall
   1a97e:	4689                	li	a3,2
   1a980:	02a4fe63          	bgeu	s1,a0,1a9bc <_ZN20complex_dynamic_type3app17hfc3cd98966d6cb49E+0xec>
   1a984:	00514603          	lbu	a2,5(sp)
   1a988:	00d60963          	beq	a2,a3,1a99a <_ZN20complex_dynamic_type3app17hfc3cd98966d6cb49E+0xca>
   1a98c:	65300513          	li	a0,1619
   1a990:	4595                	li	a1,5
   1a992:	00005097          	auipc	ra,0x5
   1a996:	212080e7          	jalr	530(ra) # 1fba4 <_ZN9allow_pin12dynamic_type7unshare17h0269127f30dbe29bE>
   1a99a:	03c14603          	lbu	a2,60(sp)
   1a99e:	4409                	li	s0,2
   1a9a0:	008102a3          	sb	s0,5(sp)
   1a9a4:	00860963          	beq	a2,s0,1a9b6 <_ZN20complex_dynamic_type3app17hfc3cd98966d6cb49E+0xe6>
   1a9a8:	65300513          	li	a0,1619
   1a9ac:	458d                	li	a1,3
   1a9ae:	00005097          	auipc	ra,0x5
   1a9b2:	1f6080e7          	jalr	502(ra) # 1fba4 <_ZN9allow_pin12dynamic_type7unshare17h0269127f30dbe29bE>
   1a9b6:	4781                	li	a5,0
   1a9b8:	02810e23          	sb	s0,60(sp)
   1a9bc:	c79d                	beqz	a5,1a9ea <_ZN20complex_dynamic_type3app17hfc3cd98966d6cb49E+0x11a>
   1a9be:	03c14603          	lbu	a2,60(sp)
   1a9c2:	4505                	li	a0,1
   1a9c4:	4409                	li	s0,2
   1a9c6:	00a90023          	sb	a0,0(s2)
   1a9ca:	00b92223          	sw	a1,4(s2)
   1a9ce:	00860963          	beq	a2,s0,1a9e0 <_ZN20complex_dynamic_type3app17hfc3cd98966d6cb49E+0x110>
   1a9d2:	65300513          	li	a0,1619
   1a9d6:	458d                	li	a1,3
   1a9d8:	00005097          	auipc	ra,0x5
   1a9dc:	1cc080e7          	jalr	460(ra) # 1fba4 <_ZN9allow_pin12dynamic_type7unshare17h0269127f30dbe29bE>
   1a9e0:	00514603          	lbu	a2,5(sp)
   1a9e4:	04861563          	bne	a2,s0,1aa2e <_ZN20complex_dynamic_type3app17hfc3cd98966d6cb49E+0x15e>
   1a9e8:	a891                	j	1aa3c <_ZN20complex_dynamic_type3app17hfc3cd98966d6cb49E+0x16c>
   1a9ea:	03c14403          	lbu	s0,60(sp)
   1a9ee:	4489                	li	s1,2
   1a9f0:	00940663          	beq	s0,s1,1a9fc <_ZN20complex_dynamic_type3app17hfc3cd98966d6cb49E+0x12c>
   1a9f4:	000109b7          	lui	s3,0x10
   1a9f8:	38c98993          	addi	s3,s3,908 # 1038c <.Lanon.49c9f8067fe4468184af16d7576940c9.11>
   1a9fc:	00190513          	addi	a0,s2,1
   1aa00:	463d                	li	a2,15
   1aa02:	85ce                	mv	a1,s3
   1aa04:	00005097          	auipc	ra,0x5
   1aa08:	218080e7          	jalr	536(ra) # 1fc1c <memcpy>
   1aa0c:	00090023          	sb	zero,0(s2)
   1aa10:	00940a63          	beq	s0,s1,1aa24 <_ZN20complex_dynamic_type3app17hfc3cd98966d6cb49E+0x154>
   1aa14:	65300513          	li	a0,1619
   1aa18:	458d                	li	a1,3
   1aa1a:	8622                	mv	a2,s0
   1aa1c:	00005097          	auipc	ra,0x5
   1aa20:	188080e7          	jalr	392(ra) # 1fba4 <_ZN9allow_pin12dynamic_type7unshare17h0269127f30dbe29bE>
   1aa24:	00514603          	lbu	a2,5(sp)
   1aa28:	4509                	li	a0,2
   1aa2a:	00a60963          	beq	a2,a0,1aa3c <_ZN20complex_dynamic_type3app17hfc3cd98966d6cb49E+0x16c>
   1aa2e:	65300513          	li	a0,1619
   1aa32:	4595                	li	a1,5
   1aa34:	00005097          	auipc	ra,0x5
   1aa38:	170080e7          	jalr	368(ra) # 1fba4 <_ZN9allow_pin12dynamic_type7unshare17h0269127f30dbe29bE>
   1aa3c:	40f6                	lw	ra,92(sp)
   1aa3e:	4466                	lw	s0,88(sp)
   1aa40:	44d6                	lw	s1,84(sp)
   1aa42:	4946                	lw	s2,80(sp)
   1aa44:	49b6                	lw	s3,76(sp)
   1aa46:	6125                	addi	sp,sp,96
   1aa48:	8082                	ret

0001aa4a <_ZN20complex_dynamic_type3app17hfd2c3f0b7e68a9dcE>:
   1aa4a:	7171                	addi	sp,sp,-176
   1aa4c:	d706                	sw	ra,172(sp)
   1aa4e:	d522                	sw	s0,168(sp)
   1aa50:	d326                	sw	s1,164(sp)
   1aa52:	d14a                	sw	s2,160(sp)
   1aa54:	cf4e                	sw	s3,156(sp)
   1aa56:	892a                	mv	s2,a0
   1aa58:	4489                	li	s1,2
   1aa5a:	009106a3          	sb	s1,13(sp)
   1aa5e:	00e10413          	addi	s0,sp,14
   1aa62:	02f00613          	li	a2,47
   1aa66:	8522                	mv	a0,s0
   1aa68:	00005097          	auipc	ra,0x5
   1aa6c:	1b4080e7          	jalr	436(ra) # 1fc1c <memcpy>
   1aa70:	03e10993          	addi	s3,sp,62
   1aa74:	05e00613          	li	a2,94
   1aa78:	854e                	mv	a0,s3
   1aa7a:	4581                	li	a1,0
   1aa7c:	00005097          	auipc	ra,0x5
   1aa80:	134080e7          	jalr	308(ra) # 1fbb0 <memset>
   1aa84:	8622                	mv	a2,s0
   1aa86:	02910ea3          	sb	s1,61(sp)
   1aa8a:	4791                	li	a5,4
   1aa8c:	22b00513          	li	a0,555
   1aa90:	4595                	li	a1,5
   1aa92:	02f00693          	li	a3,47
   1aa96:	4711                	li	a4,4
   1aa98:	00000073          	ecall
   1aa9c:	00950463          	beq	a0,s1,1aaa4 <_ZN20complex_dynamic_type3app17hfd2c3f0b7e68a9dcE+0x5a>
   1aaa0:	00f106a3          	sb	a5,13(sp)
   1aaa4:	4609                	li	a2,2
   1aaa6:	00c51463          	bne	a0,a2,1aaae <_ZN20complex_dynamic_type3app17hfd2c3f0b7e68a9dcE+0x64>
   1aaaa:	4785                	li	a5,1
   1aaac:	a079                	j	1ab3a <_ZN20complex_dynamic_type3app17hfd2c3f0b7e68a9dcE+0xf0>
   1aaae:	03d14503          	lbu	a0,61(sp)
   1aab2:	4785                	li	a5,1
   1aab4:	02c51263          	bne	a0,a2,1aad8 <_ZN20complex_dynamic_type3app17hfd2c3f0b7e68a9dcE+0x8e>
   1aab8:	864e                	mv	a2,s3
   1aaba:	4409                	li	s0,2
   1aabc:	448d                	li	s1,3
   1aabe:	22b00513          	li	a0,555
   1aac2:	4589                	li	a1,2
   1aac4:	05e00693          	li	a3,94
   1aac8:	470d                	li	a4,3
   1aaca:	00000073          	ecall
   1aace:	00851963          	bne	a0,s0,1aae0 <_ZN20complex_dynamic_type3app17hfd2c3f0b7e68a9dcE+0x96>
   1aad2:	4505                	li	a0,1
   1aad4:	c911                	beqz	a0,1aae8 <_ZN20complex_dynamic_type3app17hfd2c3f0b7e68a9dcE+0x9e>
   1aad6:	a095                	j	1ab3a <_ZN20complex_dynamic_type3app17hfd2c3f0b7e68a9dcE+0xf0>
   1aad8:	458d                	li	a1,3
   1aada:	4505                	li	a0,1
   1aadc:	c511                	beqz	a0,1aae8 <_ZN20complex_dynamic_type3app17hfd2c3f0b7e68a9dcE+0x9e>
   1aade:	a8b1                	j	1ab3a <_ZN20complex_dynamic_type3app17hfd2c3f0b7e68a9dcE+0xf0>
   1aae0:	4501                	li	a0,0
   1aae2:	02910ea3          	sb	s1,61(sp)
   1aae6:	e931                	bnez	a0,1ab3a <_ZN20complex_dynamic_type3app17hfd2c3f0b7e68a9dcE+0xf0>
   1aae8:	4681                	li	a3,0
   1aaea:	22b00513          	li	a0,555
   1aaee:	4595                	li	a1,5
   1aaf0:	4609                	li	a2,2
   1aaf2:	4709                	li	a4,2
   1aaf4:	07f00493          	li	s1,127
   1aaf8:	00000073          	ecall
   1aafc:	4689                	li	a3,2
   1aafe:	02a4fe63          	bgeu	s1,a0,1ab3a <_ZN20complex_dynamic_type3app17hfd2c3f0b7e68a9dcE+0xf0>
   1ab02:	00d14603          	lbu	a2,13(sp)
   1ab06:	00d60963          	beq	a2,a3,1ab18 <_ZN20complex_dynamic_type3app17hfd2c3f0b7e68a9dcE+0xce>
   1ab0a:	22b00513          	li	a0,555
   1ab0e:	4595                	li	a1,5
   1ab10:	00005097          	auipc	ra,0x5
   1ab14:	094080e7          	jalr	148(ra) # 1fba4 <_ZN9allow_pin12dynamic_type7unshare17h0269127f30dbe29bE>
   1ab18:	03d14603          	lbu	a2,61(sp)
   1ab1c:	4409                	li	s0,2
   1ab1e:	008106a3          	sb	s0,13(sp)
   1ab22:	00860963          	beq	a2,s0,1ab34 <_ZN20complex_dynamic_type3app17hfd2c3f0b7e68a9dcE+0xea>
   1ab26:	22b00513          	li	a0,555
   1ab2a:	4589                	li	a1,2
   1ab2c:	00005097          	auipc	ra,0x5
   1ab30:	078080e7          	jalr	120(ra) # 1fba4 <_ZN9allow_pin12dynamic_type7unshare17h0269127f30dbe29bE>
   1ab34:	4781                	li	a5,0
   1ab36:	02810ea3          	sb	s0,61(sp)
   1ab3a:	c79d                	beqz	a5,1ab68 <_ZN20complex_dynamic_type3app17hfd2c3f0b7e68a9dcE+0x11e>
   1ab3c:	03d14603          	lbu	a2,61(sp)
   1ab40:	4505                	li	a0,1
   1ab42:	4409                	li	s0,2
   1ab44:	00a90023          	sb	a0,0(s2)
   1ab48:	00b92223          	sw	a1,4(s2)
   1ab4c:	00860963          	beq	a2,s0,1ab5e <_ZN20complex_dynamic_type3app17hfd2c3f0b7e68a9dcE+0x114>
   1ab50:	22b00513          	li	a0,555
   1ab54:	4589                	li	a1,2
   1ab56:	00005097          	auipc	ra,0x5
   1ab5a:	04e080e7          	jalr	78(ra) # 1fba4 <_ZN9allow_pin12dynamic_type7unshare17h0269127f30dbe29bE>
   1ab5e:	00d14603          	lbu	a2,13(sp)
   1ab62:	04861663          	bne	a2,s0,1abae <_ZN20complex_dynamic_type3app17hfd2c3f0b7e68a9dcE+0x164>
   1ab66:	a899                	j	1abbc <_ZN20complex_dynamic_type3app17hfd2c3f0b7e68a9dcE+0x172>
   1ab68:	03d14403          	lbu	s0,61(sp)
   1ab6c:	4489                	li	s1,2
   1ab6e:	00940663          	beq	s0,s1,1ab7a <_ZN20complex_dynamic_type3app17hfd2c3f0b7e68a9dcE+0x130>
   1ab72:	000119b7          	lui	s3,0x11
   1ab76:	a8698993          	addi	s3,s3,-1402 # 10a86 <.Lanon.49c9f8067fe4468184af16d7576940c9.48>
   1ab7a:	00190513          	addi	a0,s2,1
   1ab7e:	05e00613          	li	a2,94
   1ab82:	85ce                	mv	a1,s3
   1ab84:	00005097          	auipc	ra,0x5
   1ab88:	098080e7          	jalr	152(ra) # 1fc1c <memcpy>
   1ab8c:	00090023          	sb	zero,0(s2)
   1ab90:	00940a63          	beq	s0,s1,1aba4 <_ZN20complex_dynamic_type3app17hfd2c3f0b7e68a9dcE+0x15a>
   1ab94:	22b00513          	li	a0,555
   1ab98:	4589                	li	a1,2
   1ab9a:	8622                	mv	a2,s0
   1ab9c:	00005097          	auipc	ra,0x5
   1aba0:	008080e7          	jalr	8(ra) # 1fba4 <_ZN9allow_pin12dynamic_type7unshare17h0269127f30dbe29bE>
   1aba4:	00d14603          	lbu	a2,13(sp)
   1aba8:	4509                	li	a0,2
   1abaa:	00a60963          	beq	a2,a0,1abbc <_ZN20complex_dynamic_type3app17hfd2c3f0b7e68a9dcE+0x172>
   1abae:	22b00513          	li	a0,555
   1abb2:	4595                	li	a1,5
   1abb4:	00005097          	auipc	ra,0x5
   1abb8:	ff0080e7          	jalr	-16(ra) # 1fba4 <_ZN9allow_pin12dynamic_type7unshare17h0269127f30dbe29bE>
   1abbc:	50ba                	lw	ra,172(sp)
   1abbe:	542a                	lw	s0,168(sp)
   1abc0:	549a                	lw	s1,164(sp)
   1abc2:	590a                	lw	s2,160(sp)
   1abc4:	49fa                	lw	s3,156(sp)
   1abc6:	614d                	addi	sp,sp,176
   1abc8:	8082                	ret

0001abca <_ZN20complex_dynamic_type3app17hfda90893ceb3cbb6E>:
   1abca:	7159                	addi	sp,sp,-112
   1abcc:	d686                	sw	ra,108(sp)
   1abce:	d4a2                	sw	s0,104(sp)
   1abd0:	d2a6                	sw	s1,100(sp)
   1abd2:	d0ca                	sw	s2,96(sp)
   1abd4:	cece                	sw	s3,92(sp)
   1abd6:	892a                	mv	s2,a0
   1abd8:	4489                	li	s1,2
   1abda:	00910023          	sb	s1,0(sp)
   1abde:	00110413          	addi	s0,sp,1
   1abe2:	4679                	li	a2,30
   1abe4:	8522                	mv	a0,s0
   1abe6:	00005097          	auipc	ra,0x5
   1abea:	036080e7          	jalr	54(ra) # 1fc1c <memcpy>
   1abee:	02010993          	addi	s3,sp,32
   1abf2:	03c00613          	li	a2,60
   1abf6:	854e                	mv	a0,s3
   1abf8:	4581                	li	a1,0
   1abfa:	00005097          	auipc	ra,0x5
   1abfe:	fb6080e7          	jalr	-74(ra) # 1fbb0 <memset>
   1ac02:	8622                	mv	a2,s0
   1ac04:	00910fa3          	sb	s1,31(sp)
   1ac08:	6505                	lui	a0,0x1
   1ac0a:	4791                	li	a5,4
   1ac0c:	4589                	li	a1,2
   1ac0e:	b3c50513          	addi	a0,a0,-1220 # b3c <.Lline_table_start1+0x911>
   1ac12:	46f9                	li	a3,30
   1ac14:	4711                	li	a4,4
   1ac16:	00000073          	ecall
   1ac1a:	00950463          	beq	a0,s1,1ac22 <_ZN20complex_dynamic_type3app17hfda90893ceb3cbb6E+0x58>
   1ac1e:	00f10023          	sb	a5,0(sp)
   1ac22:	4609                	li	a2,2
   1ac24:	00c51463          	bne	a0,a2,1ac2c <_ZN20complex_dynamic_type3app17hfda90893ceb3cbb6E+0x62>
   1ac28:	4785                	li	a5,1
   1ac2a:	a859                	j	1acc0 <_ZN20complex_dynamic_type3app17hfda90893ceb3cbb6E+0xf6>
   1ac2c:	01f14503          	lbu	a0,31(sp)
   1ac30:	4785                	li	a5,1
   1ac32:	02c51363          	bne	a0,a2,1ac58 <_ZN20complex_dynamic_type3app17hfda90893ceb3cbb6E+0x8e>
   1ac36:	864e                	mv	a2,s3
   1ac38:	6505                	lui	a0,0x1
   1ac3a:	458d                	li	a1,3
   1ac3c:	03c00693          	li	a3,60
   1ac40:	470d                	li	a4,3
   1ac42:	b3c50513          	addi	a0,a0,-1220 # b3c <.Lline_table_start1+0x911>
   1ac46:	4489                	li	s1,2
   1ac48:	00000073          	ecall
   1ac4c:	460d                	li	a2,3
   1ac4e:	00951963          	bne	a0,s1,1ac60 <_ZN20complex_dynamic_type3app17hfda90893ceb3cbb6E+0x96>
   1ac52:	4505                	li	a0,1
   1ac54:	c911                	beqz	a0,1ac68 <_ZN20complex_dynamic_type3app17hfda90893ceb3cbb6E+0x9e>
   1ac56:	a0ad                	j	1acc0 <_ZN20complex_dynamic_type3app17hfda90893ceb3cbb6E+0xf6>
   1ac58:	458d                	li	a1,3
   1ac5a:	4505                	li	a0,1
   1ac5c:	c511                	beqz	a0,1ac68 <_ZN20complex_dynamic_type3app17hfda90893ceb3cbb6E+0x9e>
   1ac5e:	a08d                	j	1acc0 <_ZN20complex_dynamic_type3app17hfda90893ceb3cbb6E+0xf6>
   1ac60:	4501                	li	a0,0
   1ac62:	00c10fa3          	sb	a2,31(sp)
   1ac66:	ed29                	bnez	a0,1acc0 <_ZN20complex_dynamic_type3app17hfda90893ceb3cbb6E+0xf6>
   1ac68:	4681                	li	a3,0
   1ac6a:	6505                	lui	a0,0x1
   1ac6c:	4589                	li	a1,2
   1ac6e:	460d                	li	a2,3
   1ac70:	4709                	li	a4,2
   1ac72:	b3c50513          	addi	a0,a0,-1220 # b3c <.Lline_table_start1+0x911>
   1ac76:	07f00493          	li	s1,127
   1ac7a:	00000073          	ecall
   1ac7e:	4689                	li	a3,2
   1ac80:	04a4f063          	bgeu	s1,a0,1acc0 <_ZN20complex_dynamic_type3app17hfda90893ceb3cbb6E+0xf6>
   1ac84:	00014603          	lbu	a2,0(sp)
   1ac88:	00d60a63          	beq	a2,a3,1ac9c <_ZN20complex_dynamic_type3app17hfda90893ceb3cbb6E+0xd2>
   1ac8c:	6505                	lui	a0,0x1
   1ac8e:	b3c50513          	addi	a0,a0,-1220 # b3c <.Lline_table_start1+0x911>
   1ac92:	4589                	li	a1,2
   1ac94:	00005097          	auipc	ra,0x5
   1ac98:	f10080e7          	jalr	-240(ra) # 1fba4 <_ZN9allow_pin12dynamic_type7unshare17h0269127f30dbe29bE>
   1ac9c:	01f14603          	lbu	a2,31(sp)
   1aca0:	4409                	li	s0,2
   1aca2:	00810023          	sb	s0,0(sp)
   1aca6:	00860a63          	beq	a2,s0,1acba <_ZN20complex_dynamic_type3app17hfda90893ceb3cbb6E+0xf0>
   1acaa:	6505                	lui	a0,0x1
   1acac:	b3c50513          	addi	a0,a0,-1220 # b3c <.Lline_table_start1+0x911>
   1acb0:	458d                	li	a1,3
   1acb2:	00005097          	auipc	ra,0x5
   1acb6:	ef2080e7          	jalr	-270(ra) # 1fba4 <_ZN9allow_pin12dynamic_type7unshare17h0269127f30dbe29bE>
   1acba:	4781                	li	a5,0
   1acbc:	00810fa3          	sb	s0,31(sp)
   1acc0:	cb85                	beqz	a5,1acf0 <_ZN20complex_dynamic_type3app17hfda90893ceb3cbb6E+0x126>
   1acc2:	01f14603          	lbu	a2,31(sp)
   1acc6:	4505                	li	a0,1
   1acc8:	4409                	li	s0,2
   1acca:	00a90023          	sb	a0,0(s2)
   1acce:	00b92223          	sw	a1,4(s2)
   1acd2:	00860a63          	beq	a2,s0,1ace6 <_ZN20complex_dynamic_type3app17hfda90893ceb3cbb6E+0x11c>
   1acd6:	6505                	lui	a0,0x1
   1acd8:	b3c50513          	addi	a0,a0,-1220 # b3c <.Lline_table_start1+0x911>
   1acdc:	458d                	li	a1,3
   1acde:	00005097          	auipc	ra,0x5
   1ace2:	ec6080e7          	jalr	-314(ra) # 1fba4 <_ZN9allow_pin12dynamic_type7unshare17h0269127f30dbe29bE>
   1ace6:	00014603          	lbu	a2,0(sp)
   1acea:	04861763          	bne	a2,s0,1ad38 <_ZN20complex_dynamic_type3app17hfda90893ceb3cbb6E+0x16e>
   1acee:	a8a9                	j	1ad48 <_ZN20complex_dynamic_type3app17hfda90893ceb3cbb6E+0x17e>
   1acf0:	01f14403          	lbu	s0,31(sp)
   1acf4:	4489                	li	s1,2
   1acf6:	00940663          	beq	s0,s1,1ad02 <_ZN20complex_dynamic_type3app17hfda90893ceb3cbb6E+0x138>
   1acfa:	000109b7          	lui	s3,0x10
   1acfe:	64e98993          	addi	s3,s3,1614 # 1064e <.Lanon.49c9f8067fe4468184af16d7576940c9.28>
   1ad02:	00190513          	addi	a0,s2,1
   1ad06:	03c00613          	li	a2,60
   1ad0a:	85ce                	mv	a1,s3
   1ad0c:	00005097          	auipc	ra,0x5
   1ad10:	f10080e7          	jalr	-240(ra) # 1fc1c <memcpy>
   1ad14:	00090023          	sb	zero,0(s2)
   1ad18:	00940b63          	beq	s0,s1,1ad2e <_ZN20complex_dynamic_type3app17hfda90893ceb3cbb6E+0x164>
   1ad1c:	6505                	lui	a0,0x1
   1ad1e:	b3c50513          	addi	a0,a0,-1220 # b3c <.Lline_table_start1+0x911>
   1ad22:	458d                	li	a1,3
   1ad24:	8622                	mv	a2,s0
   1ad26:	00005097          	auipc	ra,0x5
   1ad2a:	e7e080e7          	jalr	-386(ra) # 1fba4 <_ZN9allow_pin12dynamic_type7unshare17h0269127f30dbe29bE>
   1ad2e:	00014603          	lbu	a2,0(sp)
   1ad32:	4509                	li	a0,2
   1ad34:	00a60a63          	beq	a2,a0,1ad48 <_ZN20complex_dynamic_type3app17hfda90893ceb3cbb6E+0x17e>
   1ad38:	6505                	lui	a0,0x1
   1ad3a:	b3c50513          	addi	a0,a0,-1220 # b3c <.Lline_table_start1+0x911>
   1ad3e:	4589                	li	a1,2
   1ad40:	00005097          	auipc	ra,0x5
   1ad44:	e64080e7          	jalr	-412(ra) # 1fba4 <_ZN9allow_pin12dynamic_type7unshare17h0269127f30dbe29bE>
   1ad48:	50b6                	lw	ra,108(sp)
   1ad4a:	5426                	lw	s0,104(sp)
   1ad4c:	5496                	lw	s1,100(sp)
   1ad4e:	5906                	lw	s2,96(sp)
   1ad50:	49f6                	lw	s3,92(sp)
   1ad52:	6165                	addi	sp,sp,112
   1ad54:	8082                	ret

0001ad56 <_start>:
   1ad56:	81010113          	addi	sp,sp,-2032
   1ad5a:	7e112623          	sw	ra,2028(sp)
   1ad5e:	7e812423          	sw	s0,2024(sp)
   1ad62:	7e912223          	sw	s1,2020(sp)
   1ad66:	7f212023          	sw	s2,2016(sp)
   1ad6a:	7d312e23          	sw	s3,2012(sp)
   1ad6e:	7d412c23          	sw	s4,2008(sp)
   1ad72:	7d512a23          	sw	s5,2004(sp)
   1ad76:	7d612823          	sw	s6,2000(sp)
   1ad7a:	7d712623          	sw	s7,1996(sp)
   1ad7e:	7d812423          	sw	s8,1992(sp)
   1ad82:	7d912223          	sw	s9,1988(sp)
   1ad86:	7da12023          	sw	s10,1984(sp)
   1ad8a:	80010113          	addi	sp,sp,-2048
   1ad8e:	b2010113          	addi	sp,sp,-1248
   1ad92:	7ff10a93          	addi	s5,sp,2047
   1ad96:	795a8a93          	addi	s5,s5,1941
   1ad9a:	05510413          	addi	s0,sp,85
   1ad9e:	02800613          	li	a2,40
   1ada2:	8522                	mv	a0,s0
   1ada4:	4581                	li	a1,0
   1ada6:	00005097          	auipc	ra,0x5
   1adaa:	e0a080e7          	jalr	-502(ra) # 1fbb0 <memset>
   1adae:	4489                	li	s1,2
   1adb0:	04910a23          	sb	s1,84(sp)
   1adb4:	6505                	lui	a0,0x1
   1adb6:	38150513          	addi	a0,a0,897 # 1381 <.Lline_table_start1+0x1156>
   1adba:	00a10b33          	add	s6,sp,a0
   1adbe:	05100613          	li	a2,81
   1adc2:	855a                	mv	a0,s6
   1adc4:	4581                	li	a1,0
   1adc6:	00005097          	auipc	ra,0x5
   1adca:	dea080e7          	jalr	-534(ra) # 1fbb0 <memset>
   1adce:	8622                	mv	a2,s0
   1add0:	3e9a8623          	sb	s1,1004(s5)
   1add4:	6509                	lui	a0,0x2
   1add6:	4791                	li	a5,4
   1add8:	45a5                	li	a1,9
   1adda:	0519                	addi	a0,a0,6 # 2006 <.Lline_table_start1+0x1ddb>
   1addc:	02800693          	li	a3,40
   1ade0:	4711                	li	a4,4
   1ade2:	00000073          	ecall
   1ade6:	02951d63          	bne	a0,s1,1ae20 <_start+0xca>
   1adea:	8a2e                	mv	s4,a1
   1adec:	4589                	li	a1,2
   1adee:	02b50e63          	beq	a0,a1,1ae2a <_start+0xd4>
   1adf2:	3ecac503          	lbu	a0,1004(s5)
   1adf6:	4905                	li	s2,1
   1adf8:	0ab51963          	bne	a0,a1,1aeaa <_start+0x154>
   1adfc:	865a                	mv	a2,s6
   1adfe:	6509                	lui	a0,0x2
   1ae00:	45a5                	li	a1,9
   1ae02:	05100693          	li	a3,81
   1ae06:	470d                	li	a4,3
   1ae08:	0519                	addi	a0,a0,6 # 2006 <.Lline_table_start1+0x1ddb>
   1ae0a:	4789                	li	a5,2
   1ae0c:	00000073          	ecall
   1ae10:	8a2e                	mv	s4,a1
   1ae12:	458d                	li	a1,3
   1ae14:	26f51363          	bne	a0,a5,1b07a <_start+0x324>
   1ae18:	4505                	li	a0,1
   1ae1a:	26050563          	beqz	a0,1b084 <_start+0x32e>
   1ae1e:	a039                	j	1ae2c <_start+0xd6>
   1ae20:	04f10a23          	sb	a5,84(sp)
   1ae24:	4589                	li	a1,2
   1ae26:	fcb516e3          	bne	a0,a1,1adf2 <_start+0x9c>
   1ae2a:	4905                	li	s2,1
   1ae2c:	3ecac403          	lbu	s0,1004(s5)
   1ae30:	02090263          	beqz	s2,1ae54 <_start+0xfe>
   1ae34:	4489                	li	s1,2
   1ae36:	00940a63          	beq	s0,s1,1ae4a <_start+0xf4>
   1ae3a:	6509                	lui	a0,0x2
   1ae3c:	0519                	addi	a0,a0,6 # 2006 <.Lline_table_start1+0x1ddb>
   1ae3e:	45a5                	li	a1,9
   1ae40:	8622                	mv	a2,s0
   1ae42:	00005097          	auipc	ra,0x5
   1ae46:	d62080e7          	jalr	-670(ra) # 1fba4 <_ZN9allow_pin12dynamic_type7unshare17h0269127f30dbe29bE>
   1ae4a:	05414603          	lbu	a2,84(sp)
   1ae4e:	0a961263          	bne	a2,s1,1aef2 <_start+0x19c>
   1ae52:	a07d                	j	1af00 <_start+0x1aa>
   1ae54:	ffe40893          	addi	a7,s0,-2
   1ae58:	4989                	li	s3,2
   1ae5a:	00010837          	lui	a6,0x10
   1ae5e:	13780813          	addi	a6,a6,311 # 10137 <.Lanon.49c9f8067fe4468184af16d7576940c9.1>
   1ae62:	01340363          	beq	s0,s3,1ae68 <_start+0x112>
   1ae66:	8b42                	mv	s6,a6
   1ae68:	001b4603          	lbu	a2,1(s6)
   1ae6c:	000b4683          	lbu	a3,0(s6)
   1ae70:	002b4703          	lbu	a4,2(s6)
   1ae74:	0622                	slli	a2,a2,0x8
   1ae76:	3f0ac783          	lbu	a5,1008(s5)
   1ae7a:	3f1ac483          	lbu	s1,1009(s5)
   1ae7e:	8ed1                	or	a3,a3,a2
   1ae80:	3f2ac583          	lbu	a1,1010(s5)
   1ae84:	3f3ac503          	lbu	a0,1011(s5)
   1ae88:	00849613          	slli	a2,s1,0x8
   1ae8c:	8e5d                	or	a2,a2,a5
   1ae8e:	08d11a23          	sh	a3,148(sp)
   1ae92:	08e10b23          	sb	a4,150(sp)
   1ae96:	011034b3          	snez	s1,a7
   1ae9a:	05c2                	slli	a1,a1,0x10
   1ae9c:	0562                	slli	a0,a0,0x18
   1ae9e:	8d4d                	or	a0,a0,a1
   1aea0:	01340a63          	beq	s0,s3,1aeb4 <_start+0x15e>
   1aea4:	00780593          	addi	a1,a6,7
   1aea8:	a811                	j	1aebc <_start+0x166>
   1aeaa:	4a0d                	li	s4,3
   1aeac:	4505                	li	a0,1
   1aeae:	1c050b63          	beqz	a0,1b084 <_start+0x32e>
   1aeb2:	bfad                	j	1ae2c <_start+0xd6>
   1aeb4:	6585                	lui	a1,0x1
   1aeb6:	38858593          	addi	a1,a1,904 # 1388 <.Lline_table_start1+0x115d>
   1aeba:	958a                	add	a1,a1,sp
   1aebc:	00c56a33          	or	s4,a0,a2
   1aec0:	14fd                	addi	s1,s1,-1
   1aec2:	0028                	addi	a0,sp,8
   1aec4:	04a00613          	li	a2,74
   1aec8:	00005097          	auipc	ra,0x5
   1aecc:	d54080e7          	jalr	-684(ra) # 1fc1c <memcpy>
   1aed0:	01340a63          	beq	s0,s3,1aee4 <_start+0x18e>
   1aed4:	6509                	lui	a0,0x2
   1aed6:	0519                	addi	a0,a0,6 # 2006 <.Lline_table_start1+0x1ddb>
   1aed8:	45a5                	li	a1,9
   1aeda:	8622                	mv	a2,s0
   1aedc:	00005097          	auipc	ra,0x5
   1aee0:	cc8080e7          	jalr	-824(ra) # 1fba4 <_ZN9allow_pin12dynamic_type7unshare17h0269127f30dbe29bE>
   1aee4:	05414603          	lbu	a2,84(sp)
   1aee8:	4509                	li	a0,2
   1aeea:	0144fa33          	and	s4,s1,s4
   1aeee:	00a60963          	beq	a2,a0,1af00 <_start+0x1aa>
   1aef2:	6509                	lui	a0,0x2
   1aef4:	0519                	addi	a0,a0,6 # 2006 <.Lline_table_start1+0x1ddb>
   1aef6:	45a5                	li	a1,9
   1aef8:	00005097          	auipc	ra,0x5
   1aefc:	cac080e7          	jalr	-852(ra) # 1fba4 <_ZN9allow_pin12dynamic_type7unshare17h0269127f30dbe29bE>
   1af00:	00090463          	beqz	s2,1af08 <_start+0x1b2>
   1af04:	3f50406f          	j	1faf8 <_start+0x4da2>
   1af08:	09414503          	lbu	a0,148(sp)
   1af0c:	09514583          	lbu	a1,149(sp)
   1af10:	09614603          	lbu	a2,150(sp)
   1af14:	6685                	lui	a3,0x1
   1af16:	38168693          	addi	a3,a3,897 # 1381 <.Lline_table_start1+0x1156>
   1af1a:	00d10933          	add	s2,sp,a3
   1af1e:	3eaa86a3          	sb	a0,1005(s5)
   1af22:	3eba8723          	sb	a1,1006(s5)
   1af26:	3eca87a3          	sb	a2,1007(s5)
   1af2a:	6505                	lui	a0,0x1
   1af2c:	32450513          	addi	a0,a0,804 # 1324 <.Lline_table_start1+0x10f9>
   1af30:	950a                	add	a0,a0,sp
   1af32:	002c                	addi	a1,sp,8
   1af34:	04a00613          	li	a2,74
   1af38:	00005097          	auipc	ra,0x5
   1af3c:	ce4080e7          	jalr	-796(ra) # 1fc1c <memcpy>
   1af40:	6505                	lui	a0,0x1
   1af42:	38850513          	addi	a0,a0,904 # 1388 <.Lline_table_start1+0x115d>
   1af46:	950a                	add	a0,a0,sp
   1af48:	6585                	lui	a1,0x1
   1af4a:	32458593          	addi	a1,a1,804 # 1324 <.Lline_table_start1+0x10f9>
   1af4e:	958a                	add	a1,a1,sp
   1af50:	04a00613          	li	a2,74
   1af54:	00005097          	auipc	ra,0x5
   1af58:	cc8080e7          	jalr	-824(ra) # 1fc1c <memcpy>
   1af5c:	4409                	li	s0,2
   1af5e:	018a5513          	srli	a0,s4,0x18
   1af62:	010a5593          	srli	a1,s4,0x10
   1af66:	3eaa89a3          	sb	a0,1011(s5)
   1af6a:	008a5513          	srli	a0,s4,0x8
   1af6e:	3e8a8623          	sb	s0,1004(s5)
   1af72:	3f4a8823          	sb	s4,1008(s5)
   1af76:	3eaa88a3          	sb	a0,1009(s5)
   1af7a:	3eba8923          	sb	a1,1010(s5)
   1af7e:	6505                	lui	a0,0x1
   1af80:	32550513          	addi	a0,a0,805 # 1325 <.Lline_table_start1+0x10fa>
   1af84:	00a104b3          	add	s1,sp,a0
   1af88:	04600613          	li	a2,70
   1af8c:	8526                	mv	a0,s1
   1af8e:	4581                	li	a1,0
   1af90:	00005097          	auipc	ra,0x5
   1af94:	c20080e7          	jalr	-992(ra) # 1fbb0 <memset>
   1af98:	864a                	mv	a2,s2
   1af9a:	388a8823          	sb	s0,912(s5)
   1af9e:	6509                	lui	a0,0x2
   1afa0:	4791                	li	a5,4
   1afa2:	459d                	li	a1,7
   1afa4:	0c450513          	addi	a0,a0,196 # 20c4 <.Lline_table_start1+0x1e99>
   1afa8:	05100693          	li	a3,81
   1afac:	4711                	li	a4,4
   1afae:	00000073          	ecall
   1afb2:	02851e63          	bne	a0,s0,1afee <_start+0x298>
   1afb6:	8a2e                	mv	s4,a1
   1afb8:	4589                	li	a1,2
   1afba:	02b50f63          	beq	a0,a1,1aff8 <_start+0x2a2>
   1afbe:	390ac503          	lbu	a0,912(s5)
   1afc2:	4905                	li	s2,1
   1afc4:	10b51b63          	bne	a0,a1,1b0da <_start+0x384>
   1afc8:	4581                	li	a1,0
   1afca:	8626                	mv	a2,s1
   1afcc:	6509                	lui	a0,0x2
   1afce:	04600693          	li	a3,70
   1afd2:	470d                	li	a4,3
   1afd4:	0c450513          	addi	a0,a0,196 # 20c4 <.Lline_table_start1+0x1e99>
   1afd8:	4789                	li	a5,2
   1afda:	00000073          	ecall
   1afde:	8a2e                	mv	s4,a1
   1afe0:	458d                	li	a1,3
   1afe2:	2cf51063          	bne	a0,a5,1b2a2 <_start+0x54c>
   1afe6:	4505                	li	a0,1
   1afe8:	2c050263          	beqz	a0,1b2ac <_start+0x556>
   1afec:	a039                	j	1affa <_start+0x2a4>
   1afee:	3efa8623          	sb	a5,1004(s5)
   1aff2:	4589                	li	a1,2
   1aff4:	fcb515e3          	bne	a0,a1,1afbe <_start+0x268>
   1aff8:	4905                	li	s2,1
   1affa:	390ac403          	lbu	s0,912(s5)
   1affe:	02090363          	beqz	s2,1b024 <_start+0x2ce>
   1b002:	4489                	li	s1,2
   1b004:	00940b63          	beq	s0,s1,1b01a <_start+0x2c4>
   1b008:	6509                	lui	a0,0x2
   1b00a:	0c450513          	addi	a0,a0,196 # 20c4 <.Lline_table_start1+0x1e99>
   1b00e:	4581                	li	a1,0
   1b010:	8622                	mv	a2,s0
   1b012:	00005097          	auipc	ra,0x5
   1b016:	b92080e7          	jalr	-1134(ra) # 1fba4 <_ZN9allow_pin12dynamic_type7unshare17h0269127f30dbe29bE>
   1b01a:	3ecac603          	lbu	a2,1004(s5)
   1b01e:	10961363          	bne	a2,s1,1b124 <_start+0x3ce>
   1b022:	aa09                	j	1b134 <_start+0x3de>
   1b024:	ffe40893          	addi	a7,s0,-2
   1b028:	4989                	li	s3,2
   1b02a:	00010837          	lui	a6,0x10
   1b02e:	39b80813          	addi	a6,a6,923 # 1039b <.Lanon.49c9f8067fe4468184af16d7576940c9.12>
   1b032:	01340363          	beq	s0,s3,1b038 <_start+0x2e2>
   1b036:	84c2                	mv	s1,a6
   1b038:	0014c603          	lbu	a2,1(s1)
   1b03c:	0004c683          	lbu	a3,0(s1)
   1b040:	0024c703          	lbu	a4,2(s1)
   1b044:	0622                	slli	a2,a2,0x8
   1b046:	394ac783          	lbu	a5,916(s5)
   1b04a:	395ac483          	lbu	s1,917(s5)
   1b04e:	8ed1                	or	a3,a3,a2
   1b050:	396ac583          	lbu	a1,918(s5)
   1b054:	397ac503          	lbu	a0,919(s5)
   1b058:	00849613          	slli	a2,s1,0x8
   1b05c:	8e5d                	or	a2,a2,a5
   1b05e:	08d11a23          	sh	a3,148(sp)
   1b062:	08e10b23          	sb	a4,150(sp)
   1b066:	011034b3          	snez	s1,a7
   1b06a:	05c2                	slli	a1,a1,0x10
   1b06c:	0562                	slli	a0,a0,0x18
   1b06e:	8d4d                	or	a0,a0,a1
   1b070:	07340a63          	beq	s0,s3,1b0e4 <_start+0x38e>
   1b074:	00780593          	addi	a1,a6,7
   1b078:	a895                	j	1b0ec <_start+0x396>
   1b07a:	4501                	li	a0,0
   1b07c:	3eba8623          	sb	a1,1004(s5)
   1b080:	da0516e3          	bnez	a0,1ae2c <_start+0xd6>
   1b084:	4681                	li	a3,0
   1b086:	6509                	lui	a0,0x2
   1b088:	45a5                	li	a1,9
   1b08a:	4625                	li	a2,9
   1b08c:	4709                	li	a4,2
   1b08e:	0519                	addi	a0,a0,6 # 2006 <.Lline_table_start1+0x1ddb>
   1b090:	07f00793          	li	a5,127
   1b094:	00000073          	ecall
   1b098:	8a2e                	mv	s4,a1
   1b09a:	4589                	li	a1,2
   1b09c:	d8a7f8e3          	bgeu	a5,a0,1ae2c <_start+0xd6>
   1b0a0:	05414603          	lbu	a2,84(sp)
   1b0a4:	00b60963          	beq	a2,a1,1b0b6 <_start+0x360>
   1b0a8:	6509                	lui	a0,0x2
   1b0aa:	0519                	addi	a0,a0,6 # 2006 <.Lline_table_start1+0x1ddb>
   1b0ac:	45a5                	li	a1,9
   1b0ae:	00005097          	auipc	ra,0x5
   1b0b2:	af6080e7          	jalr	-1290(ra) # 1fba4 <_ZN9allow_pin12dynamic_type7unshare17h0269127f30dbe29bE>
   1b0b6:	3ecac603          	lbu	a2,1004(s5)
   1b0ba:	4409                	li	s0,2
   1b0bc:	04810a23          	sb	s0,84(sp)
   1b0c0:	00860963          	beq	a2,s0,1b0d2 <_start+0x37c>
   1b0c4:	6509                	lui	a0,0x2
   1b0c6:	0519                	addi	a0,a0,6 # 2006 <.Lline_table_start1+0x1ddb>
   1b0c8:	45a5                	li	a1,9
   1b0ca:	00005097          	auipc	ra,0x5
   1b0ce:	ada080e7          	jalr	-1318(ra) # 1fba4 <_ZN9allow_pin12dynamic_type7unshare17h0269127f30dbe29bE>
   1b0d2:	4901                	li	s2,0
   1b0d4:	3e8a8623          	sb	s0,1004(s5)
   1b0d8:	bb91                	j	1ae2c <_start+0xd6>
   1b0da:	4a0d                	li	s4,3
   1b0dc:	4505                	li	a0,1
   1b0de:	1c050763          	beqz	a0,1b2ac <_start+0x556>
   1b0e2:	bf21                	j	1affa <_start+0x2a4>
   1b0e4:	6585                	lui	a1,0x1
   1b0e6:	32c58593          	addi	a1,a1,812 # 132c <.Lline_table_start1+0x1101>
   1b0ea:	958a                	add	a1,a1,sp
   1b0ec:	00c56a33          	or	s4,a0,a2
   1b0f0:	14fd                	addi	s1,s1,-1
   1b0f2:	08c8                	addi	a0,sp,84
   1b0f4:	03f00613          	li	a2,63
   1b0f8:	00005097          	auipc	ra,0x5
   1b0fc:	b24080e7          	jalr	-1244(ra) # 1fc1c <memcpy>
   1b100:	01340b63          	beq	s0,s3,1b116 <_start+0x3c0>
   1b104:	6509                	lui	a0,0x2
   1b106:	0c450513          	addi	a0,a0,196 # 20c4 <.Lline_table_start1+0x1e99>
   1b10a:	4581                	li	a1,0
   1b10c:	8622                	mv	a2,s0
   1b10e:	00005097          	auipc	ra,0x5
   1b112:	a96080e7          	jalr	-1386(ra) # 1fba4 <_ZN9allow_pin12dynamic_type7unshare17h0269127f30dbe29bE>
   1b116:	3ecac603          	lbu	a2,1004(s5)
   1b11a:	4509                	li	a0,2
   1b11c:	0144fa33          	and	s4,s1,s4
   1b120:	00a60a63          	beq	a2,a0,1b134 <_start+0x3de>
   1b124:	6509                	lui	a0,0x2
   1b126:	0c450513          	addi	a0,a0,196 # 20c4 <.Lline_table_start1+0x1e99>
   1b12a:	459d                	li	a1,7
   1b12c:	00005097          	auipc	ra,0x5
   1b130:	a78080e7          	jalr	-1416(ra) # 1fba4 <_ZN9allow_pin12dynamic_type7unshare17h0269127f30dbe29bE>
   1b134:	00090463          	beqz	s2,1b13c <_start+0x3e6>
   1b138:	1c10406f          	j	1faf8 <_start+0x4da2>
   1b13c:	09414503          	lbu	a0,148(sp)
   1b140:	09514583          	lbu	a1,149(sp)
   1b144:	09614603          	lbu	a2,150(sp)
   1b148:	6685                	lui	a3,0x1
   1b14a:	38168693          	addi	a3,a3,897 # 1381 <.Lline_table_start1+0x1156>
   1b14e:	00d109b3          	add	s3,sp,a3
   1b152:	3eaa86a3          	sb	a0,1005(s5)
   1b156:	3eba8723          	sb	a1,1006(s5)
   1b15a:	3eca87a3          	sb	a2,1007(s5)
   1b15e:	0028                	addi	a0,sp,8
   1b160:	08cc                	addi	a1,sp,84
   1b162:	03f00613          	li	a2,63
   1b166:	00005097          	auipc	ra,0x5
   1b16a:	ab6080e7          	jalr	-1354(ra) # 1fc1c <memcpy>
   1b16e:	6505                	lui	a0,0x1
   1b170:	38850513          	addi	a0,a0,904 # 1388 <.Lline_table_start1+0x115d>
   1b174:	00a10933          	add	s2,sp,a0
   1b178:	002c                	addi	a1,sp,8
   1b17a:	03f00613          	li	a2,63
   1b17e:	854a                	mv	a0,s2
   1b180:	00005097          	auipc	ra,0x5
   1b184:	a9c080e7          	jalr	-1380(ra) # 1fc1c <memcpy>
   1b188:	4409                	li	s0,2
   1b18a:	018a5513          	srli	a0,s4,0x18
   1b18e:	010a5593          	srli	a1,s4,0x10
   1b192:	3eaa89a3          	sb	a0,1011(s5)
   1b196:	008a5513          	srli	a0,s4,0x8
   1b19a:	3e8a8623          	sb	s0,1004(s5)
   1b19e:	3f4a8823          	sb	s4,1008(s5)
   1b1a2:	3eaa88a3          	sb	a0,1009(s5)
   1b1a6:	3eba8923          	sb	a1,1010(s5)
   1b1aa:	6505                	lui	a0,0x1
   1b1ac:	32550513          	addi	a0,a0,805 # 1325 <.Lline_table_start1+0x10fa>
   1b1b0:	00a104b3          	add	s1,sp,a0
   1b1b4:	4661                	li	a2,24
   1b1b6:	8526                	mv	a0,s1
   1b1b8:	4581                	li	a1,0
   1b1ba:	00005097          	auipc	ra,0x5
   1b1be:	9f6080e7          	jalr	-1546(ra) # 1fbb0 <memset>
   1b1c2:	864e                	mv	a2,s3
   1b1c4:	388a8823          	sb	s0,912(s5)
   1b1c8:	6509                	lui	a0,0x2
   1b1ca:	4791                	li	a5,4
   1b1cc:	458d                	li	a1,3
   1b1ce:	3cf50513          	addi	a0,a0,975 # 23cf <.Lline_table_start1+0x21a4>
   1b1d2:	04600693          	li	a3,70
   1b1d6:	4711                	li	a4,4
   1b1d8:	00000073          	ecall
   1b1dc:	02851d63          	bne	a0,s0,1b216 <_start+0x4c0>
   1b1e0:	8a2e                	mv	s4,a1
   1b1e2:	4589                	li	a1,2
   1b1e4:	02b50e63          	beq	a0,a1,1b220 <_start+0x4ca>
   1b1e8:	390ac503          	lbu	a0,912(s5)
   1b1ec:	4b05                	li	s6,1
   1b1ee:	10b51d63          	bne	a0,a1,1b308 <_start+0x5b2>
   1b1f2:	8626                	mv	a2,s1
   1b1f4:	6509                	lui	a0,0x2
   1b1f6:	4789                	li	a5,2
   1b1f8:	480d                	li	a6,3
   1b1fa:	4589                	li	a1,2
   1b1fc:	3cf50513          	addi	a0,a0,975 # 23cf <.Lline_table_start1+0x21a4>
   1b200:	46e1                	li	a3,24
   1b202:	470d                	li	a4,3
   1b204:	00000073          	ecall
   1b208:	44f51f63          	bne	a0,a5,1b666 <_start+0x910>
   1b20c:	8a2e                	mv	s4,a1
   1b20e:	4505                	li	a0,1
   1b210:	46050063          	beqz	a0,1b670 <_start+0x91a>
   1b214:	a039                	j	1b222 <_start+0x4cc>
   1b216:	3efa8623          	sb	a5,1004(s5)
   1b21a:	4589                	li	a1,2
   1b21c:	fcb516e3          	bne	a0,a1,1b1e8 <_start+0x492>
   1b220:	4b05                	li	s6,1
   1b222:	390ac603          	lbu	a2,912(s5)
   1b226:	020b0263          	beqz	s6,1b24a <_start+0x4f4>
   1b22a:	4489                	li	s1,2
   1b22c:	00960a63          	beq	a2,s1,1b240 <_start+0x4ea>
   1b230:	6509                	lui	a0,0x2
   1b232:	3cf50513          	addi	a0,a0,975 # 23cf <.Lline_table_start1+0x21a4>
   1b236:	4589                	li	a1,2
   1b238:	00005097          	auipc	ra,0x5
   1b23c:	96c080e7          	jalr	-1684(ra) # 1fba4 <_ZN9allow_pin12dynamic_type7unshare17h0269127f30dbe29bE>
   1b240:	3ecac603          	lbu	a2,1004(s5)
   1b244:	18961763          	bne	a2,s1,1b3d2 <_start+0x67c>
   1b248:	aa69                	j	1b3e2 <_start+0x68c>
   1b24a:	ffe60293          	addi	t0,a2,-2
   1b24e:	4809                	li	a6,2
   1b250:	000118b7          	lui	a7,0x11
   1b254:	ae488893          	addi	a7,a7,-1308 # 10ae4 <.Lanon.49c9f8067fe4468184af16d7576940c9.49>
   1b258:	01060363          	beq	a2,a6,1b25e <_start+0x508>
   1b25c:	84c6                	mv	s1,a7
   1b25e:	0014c703          	lbu	a4,1(s1)
   1b262:	0004c783          	lbu	a5,0(s1)
   1b266:	0024c483          	lbu	s1,2(s1)
   1b26a:	0722                	slli	a4,a4,0x8
   1b26c:	394ac503          	lbu	a0,916(s5)
   1b270:	395ac683          	lbu	a3,917(s5)
   1b274:	8fd9                	or	a5,a5,a4
   1b276:	396ac403          	lbu	s0,918(s5)
   1b27a:	397ac583          	lbu	a1,919(s5)
   1b27e:	06a2                	slli	a3,a3,0x8
   1b280:	00a6e733          	or	a4,a3,a0
   1b284:	0af11423          	sh	a5,168(sp)
   1b288:	0a910523          	sb	s1,170(sp)
   1b28c:	005032b3          	snez	t0,t0
   1b290:	0442                	slli	s0,s0,0x10
   1b292:	05e2                	slli	a1,a1,0x18
   1b294:	0085e7b3          	or	a5,a1,s0
   1b298:	07060d63          	beq	a2,a6,1b312 <_start+0x5bc>
   1b29c:	00788693          	addi	a3,a7,7
   1b2a0:	a8b5                	j	1b31c <_start+0x5c6>
   1b2a2:	4501                	li	a0,0
   1b2a4:	38ba8823          	sb	a1,912(s5)
   1b2a8:	d40519e3          	bnez	a0,1affa <_start+0x2a4>
   1b2ac:	4601                	li	a2,0
   1b2ae:	4681                	li	a3,0
   1b2b0:	6509                	lui	a0,0x2
   1b2b2:	459d                	li	a1,7
   1b2b4:	4709                	li	a4,2
   1b2b6:	0c450513          	addi	a0,a0,196 # 20c4 <.Lline_table_start1+0x1e99>
   1b2ba:	07f00793          	li	a5,127
   1b2be:	00000073          	ecall
   1b2c2:	8a2e                	mv	s4,a1
   1b2c4:	4589                	li	a1,2
   1b2c6:	d2a7fae3          	bgeu	a5,a0,1affa <_start+0x2a4>
   1b2ca:	3ecac603          	lbu	a2,1004(s5)
   1b2ce:	00b60a63          	beq	a2,a1,1b2e2 <_start+0x58c>
   1b2d2:	6509                	lui	a0,0x2
   1b2d4:	0c450513          	addi	a0,a0,196 # 20c4 <.Lline_table_start1+0x1e99>
   1b2d8:	459d                	li	a1,7
   1b2da:	00005097          	auipc	ra,0x5
   1b2de:	8ca080e7          	jalr	-1846(ra) # 1fba4 <_ZN9allow_pin12dynamic_type7unshare17h0269127f30dbe29bE>
   1b2e2:	390ac603          	lbu	a2,912(s5)
   1b2e6:	4409                	li	s0,2
   1b2e8:	3e8a8623          	sb	s0,1004(s5)
   1b2ec:	00860a63          	beq	a2,s0,1b300 <_start+0x5aa>
   1b2f0:	6509                	lui	a0,0x2
   1b2f2:	0c450513          	addi	a0,a0,196 # 20c4 <.Lline_table_start1+0x1e99>
   1b2f6:	4581                	li	a1,0
   1b2f8:	00005097          	auipc	ra,0x5
   1b2fc:	8ac080e7          	jalr	-1876(ra) # 1fba4 <_ZN9allow_pin12dynamic_type7unshare17h0269127f30dbe29bE>
   1b300:	4901                	li	s2,0
   1b302:	388a8823          	sb	s0,912(s5)
   1b306:	b9d5                	j	1affa <_start+0x2a4>
   1b308:	4a0d                	li	s4,3
   1b30a:	4505                	li	a0,1
   1b30c:	36050263          	beqz	a0,1b670 <_start+0x91a>
   1b310:	bf09                	j	1b222 <_start+0x4cc>
   1b312:	6505                	lui	a0,0x1
   1b314:	32c50513          	addi	a0,a0,812 # 132c <.Lline_table_start1+0x1101>
   1b318:	00a106b3          	add	a3,sp,a0
   1b31c:	00e7ea33          	or	s4,a5,a4
   1b320:	0106c503          	lbu	a0,16(a3)
   1b324:	0006c883          	lbu	a7,0(a3)
   1b328:	0016c703          	lbu	a4,1(a3)
   1b32c:	0026c783          	lbu	a5,2(a3)
   1b330:	0036c403          	lbu	s0,3(a3)
   1b334:	0046c483          	lbu	s1,4(a3)
   1b338:	0056c583          	lbu	a1,5(a3)
   1b33c:	0066c303          	lbu	t1,6(a3)
   1b340:	0076c383          	lbu	t2,7(a3)
   1b344:	0aa10223          	sb	a0,164(sp)
   1b348:	0722                	slli	a4,a4,0x8
   1b34a:	07c2                	slli	a5,a5,0x10
   1b34c:	0462                	slli	s0,s0,0x18
   1b34e:	05a2                	slli	a1,a1,0x8
   1b350:	011768b3          	or	a7,a4,a7
   1b354:	00f46eb3          	or	t4,s0,a5
   1b358:	0095ee33          	or	t3,a1,s1
   1b35c:	0086c703          	lbu	a4,8(a3)
   1b360:	0096c483          	lbu	s1,9(a3)
   1b364:	00a6c403          	lbu	s0,10(a3)
   1b368:	00b6c503          	lbu	a0,11(a3)
   1b36c:	0342                	slli	t1,t1,0x10
   1b36e:	03e2                	slli	t2,t2,0x18
   1b370:	04a2                	slli	s1,s1,0x8
   1b372:	0442                	slli	s0,s0,0x10
   1b374:	0562                	slli	a0,a0,0x18
   1b376:	0063e5b3          	or	a1,t2,t1
   1b37a:	8f45                	or	a4,a4,s1
   1b37c:	00c6c483          	lbu	s1,12(a3)
   1b380:	00d6c783          	lbu	a5,13(a3)
   1b384:	8d41                	or	a0,a0,s0
   1b386:	00e6c403          	lbu	s0,14(a3)
   1b38a:	00f6c683          	lbu	a3,15(a3)
   1b38e:	07a2                	slli	a5,a5,0x8
   1b390:	8fc5                	or	a5,a5,s1
   1b392:	0442                	slli	s0,s0,0x10
   1b394:	06e2                	slli	a3,a3,0x18
   1b396:	8ec1                	or	a3,a3,s0
   1b398:	011ee433          	or	s0,t4,a7
   1b39c:	01c5e5b3          	or	a1,a1,t3
   1b3a0:	8d59                	or	a0,a0,a4
   1b3a2:	8edd                	or	a3,a3,a5
   1b3a4:	fff28493          	addi	s1,t0,-1
   1b3a8:	cb22                	sw	s0,148(sp)
   1b3aa:	cd2e                	sw	a1,152(sp)
   1b3ac:	cf2a                	sw	a0,156(sp)
   1b3ae:	d136                	sw	a3,160(sp)
   1b3b0:	01060a63          	beq	a2,a6,1b3c4 <_start+0x66e>
   1b3b4:	6509                	lui	a0,0x2
   1b3b6:	3cf50513          	addi	a0,a0,975 # 23cf <.Lline_table_start1+0x21a4>
   1b3ba:	4589                	li	a1,2
   1b3bc:	00004097          	auipc	ra,0x4
   1b3c0:	7e8080e7          	jalr	2024(ra) # 1fba4 <_ZN9allow_pin12dynamic_type7unshare17h0269127f30dbe29bE>
   1b3c4:	3ecac603          	lbu	a2,1004(s5)
   1b3c8:	4509                	li	a0,2
   1b3ca:	0144fa33          	and	s4,s1,s4
   1b3ce:	00a60a63          	beq	a2,a0,1b3e2 <_start+0x68c>
   1b3d2:	6509                	lui	a0,0x2
   1b3d4:	3cf50513          	addi	a0,a0,975 # 23cf <.Lline_table_start1+0x21a4>
   1b3d8:	458d                	li	a1,3
   1b3da:	00004097          	auipc	ra,0x4
   1b3de:	7ca080e7          	jalr	1994(ra) # 1fba4 <_ZN9allow_pin12dynamic_type7unshare17h0269127f30dbe29bE>
   1b3e2:	000b0463          	beqz	s6,1b3ea <_start+0x694>
   1b3e6:	7120406f          	j	1faf8 <_start+0x4da2>
   1b3ea:	0a814503          	lbu	a0,168(sp)
   1b3ee:	0a914583          	lbu	a1,169(sp)
   1b3f2:	0aa14603          	lbu	a2,170(sp)
   1b3f6:	46da                	lw	a3,148(sp)
   1b3f8:	476a                	lw	a4,152(sp)
   1b3fa:	47fa                	lw	a5,156(sp)
   1b3fc:	548a                	lw	s1,160(sp)
   1b3fe:	04a10aa3          	sb	a0,85(sp)
   1b402:	04b10b23          	sb	a1,86(sp)
   1b406:	04c10ba3          	sb	a2,87(sp)
   1b40a:	0a414503          	lbu	a0,164(sp)
   1b40e:	c436                	sw	a3,8(sp)
   1b410:	c63a                	sw	a4,12(sp)
   1b412:	c83e                	sw	a5,16(sp)
   1b414:	ca26                	sw	s1,20(sp)
   1b416:	05510413          	addi	s0,sp,85
   1b41a:	00a10c23          	sb	a0,24(sp)
   1b41e:	08e8                	addi	a0,sp,92
   1b420:	002c                	addi	a1,sp,8
   1b422:	4645                	li	a2,17
   1b424:	00004097          	auipc	ra,0x4
   1b428:	7f8080e7          	jalr	2040(ra) # 1fc1c <memcpy>
   1b42c:	4489                	li	s1,2
   1b42e:	018a5513          	srli	a0,s4,0x18
   1b432:	010a5593          	srli	a1,s4,0x10
   1b436:	04a10da3          	sb	a0,91(sp)
   1b43a:	008a5513          	srli	a0,s4,0x8
   1b43e:	04910a23          	sb	s1,84(sp)
   1b442:	05410c23          	sb	s4,88(sp)
   1b446:	04a10ca3          	sb	a0,89(sp)
   1b44a:	04b10d23          	sb	a1,90(sp)
   1b44e:	03600613          	li	a2,54
   1b452:	854e                	mv	a0,s3
   1b454:	4581                	li	a1,0
   1b456:	00004097          	auipc	ra,0x4
   1b45a:	75a080e7          	jalr	1882(ra) # 1fbb0 <memset>
   1b45e:	4581                	li	a1,0
   1b460:	8622                	mv	a2,s0
   1b462:	3e9a8623          	sb	s1,1004(s5)
   1b466:	4791                	li	a5,4
   1b468:	21f00513          	li	a0,543
   1b46c:	46e1                	li	a3,24
   1b46e:	4711                	li	a4,4
   1b470:	00000073          	ecall
   1b474:	02951d63          	bne	a0,s1,1b4ae <_start+0x758>
   1b478:	8a2e                	mv	s4,a1
   1b47a:	4589                	li	a1,2
   1b47c:	02b50e63          	beq	a0,a1,1b4b8 <_start+0x762>
   1b480:	3ecac503          	lbu	a0,1004(s5)
   1b484:	4b05                	li	s6,1
   1b486:	24b51363          	bne	a0,a1,1b6cc <_start+0x976>
   1b48a:	864e                	mv	a2,s3
   1b48c:	21f00513          	li	a0,543
   1b490:	459d                	li	a1,7
   1b492:	03600693          	li	a3,54
   1b496:	470d                	li	a4,3
   1b498:	4789                	li	a5,2
   1b49a:	00000073          	ecall
   1b49e:	8a2e                	mv	s4,a1
   1b4a0:	458d                	li	a1,3
   1b4a2:	24f51063          	bne	a0,a5,1b6e2 <_start+0x98c>
   1b4a6:	4505                	li	a0,1
   1b4a8:	24050263          	beqz	a0,1b6ec <_start+0x996>
   1b4ac:	a039                	j	1b4ba <_start+0x764>
   1b4ae:	04f10a23          	sb	a5,84(sp)
   1b4b2:	4589                	li	a1,2
   1b4b4:	fcb516e3          	bne	a0,a1,1b480 <_start+0x72a>
   1b4b8:	4b05                	li	s6,1
   1b4ba:	3ecac403          	lbu	s0,1004(s5)
   1b4be:	020b0263          	beqz	s6,1b4e2 <_start+0x78c>
   1b4c2:	4489                	li	s1,2
   1b4c4:	00940a63          	beq	s0,s1,1b4d8 <_start+0x782>
   1b4c8:	21f00513          	li	a0,543
   1b4cc:	459d                	li	a1,7
   1b4ce:	8622                	mv	a2,s0
   1b4d0:	00004097          	auipc	ra,0x4
   1b4d4:	6d4080e7          	jalr	1748(ra) # 1fba4 <_ZN9allow_pin12dynamic_type7unshare17h0269127f30dbe29bE>
   1b4d8:	05414603          	lbu	a2,84(sp)
   1b4dc:	08961963          	bne	a2,s1,1b56e <_start+0x818>
   1b4e0:	a871                	j	1b57c <_start+0x826>
   1b4e2:	ffe40893          	addi	a7,s0,-2
   1b4e6:	4a09                	li	s4,2
   1b4e8:	00010837          	lui	a6,0x10
   1b4ec:	73480813          	addi	a6,a6,1844 # 10734 <.Lanon.49c9f8067fe4468184af16d7576940c9.32>
   1b4f0:	01440363          	beq	s0,s4,1b4f6 <_start+0x7a0>
   1b4f4:	89c2                	mv	s3,a6
   1b4f6:	0019c603          	lbu	a2,1(s3)
   1b4fa:	0009c683          	lbu	a3,0(s3)
   1b4fe:	0029c703          	lbu	a4,2(s3)
   1b502:	0622                	slli	a2,a2,0x8
   1b504:	3f0ac783          	lbu	a5,1008(s5)
   1b508:	3f1ac483          	lbu	s1,1009(s5)
   1b50c:	8ed1                	or	a3,a3,a2
   1b50e:	3f2ac503          	lbu	a0,1010(s5)
   1b512:	3f3ac583          	lbu	a1,1011(s5)
   1b516:	00849613          	slli	a2,s1,0x8
   1b51a:	8e5d                	or	a2,a2,a5
   1b51c:	08d11a23          	sh	a3,148(sp)
   1b520:	08e10b23          	sb	a4,150(sp)
   1b524:	011034b3          	snez	s1,a7
   1b528:	0542                	slli	a0,a0,0x10
   1b52a:	05e2                	slli	a1,a1,0x18
   1b52c:	8dc9                	or	a1,a1,a0
   1b52e:	01440463          	beq	s0,s4,1b536 <_start+0x7e0>
   1b532:	00780913          	addi	s2,a6,7
   1b536:	00c5e9b3          	or	s3,a1,a2
   1b53a:	14fd                	addi	s1,s1,-1
   1b53c:	0028                	addi	a0,sp,8
   1b53e:	02f00613          	li	a2,47
   1b542:	85ca                	mv	a1,s2
   1b544:	00004097          	auipc	ra,0x4
   1b548:	6d8080e7          	jalr	1752(ra) # 1fc1c <memcpy>
   1b54c:	01440a63          	beq	s0,s4,1b560 <_start+0x80a>
   1b550:	21f00513          	li	a0,543
   1b554:	459d                	li	a1,7
   1b556:	8622                	mv	a2,s0
   1b558:	00004097          	auipc	ra,0x4
   1b55c:	64c080e7          	jalr	1612(ra) # 1fba4 <_ZN9allow_pin12dynamic_type7unshare17h0269127f30dbe29bE>
   1b560:	05414603          	lbu	a2,84(sp)
   1b564:	4509                	li	a0,2
   1b566:	0134fa33          	and	s4,s1,s3
   1b56a:	00a60963          	beq	a2,a0,1b57c <_start+0x826>
   1b56e:	21f00513          	li	a0,543
   1b572:	4581                	li	a1,0
   1b574:	00004097          	auipc	ra,0x4
   1b578:	630080e7          	jalr	1584(ra) # 1fba4 <_ZN9allow_pin12dynamic_type7unshare17h0269127f30dbe29bE>
   1b57c:	000b0463          	beqz	s6,1b584 <_start+0x82e>
   1b580:	5780406f          	j	1faf8 <_start+0x4da2>
   1b584:	09414503          	lbu	a0,148(sp)
   1b588:	09514583          	lbu	a1,149(sp)
   1b58c:	09614603          	lbu	a2,150(sp)
   1b590:	6685                	lui	a3,0x1
   1b592:	38168693          	addi	a3,a3,897 # 1381 <.Lline_table_start1+0x1156>
   1b596:	00d10933          	add	s2,sp,a3
   1b59a:	3eaa86a3          	sb	a0,1005(s5)
   1b59e:	3eba8723          	sb	a1,1006(s5)
   1b5a2:	3eca87a3          	sb	a2,1007(s5)
   1b5a6:	6505                	lui	a0,0x1
   1b5a8:	32450513          	addi	a0,a0,804 # 1324 <.Lline_table_start1+0x10f9>
   1b5ac:	950a                	add	a0,a0,sp
   1b5ae:	002c                	addi	a1,sp,8
   1b5b0:	02f00613          	li	a2,47
   1b5b4:	00004097          	auipc	ra,0x4
   1b5b8:	668080e7          	jalr	1640(ra) # 1fc1c <memcpy>
   1b5bc:	6505                	lui	a0,0x1
   1b5be:	38850513          	addi	a0,a0,904 # 1388 <.Lline_table_start1+0x115d>
   1b5c2:	950a                	add	a0,a0,sp
   1b5c4:	6585                	lui	a1,0x1
   1b5c6:	32458593          	addi	a1,a1,804 # 1324 <.Lline_table_start1+0x10f9>
   1b5ca:	958a                	add	a1,a1,sp
   1b5cc:	02f00613          	li	a2,47
   1b5d0:	00004097          	auipc	ra,0x4
   1b5d4:	64c080e7          	jalr	1612(ra) # 1fc1c <memcpy>
   1b5d8:	4409                	li	s0,2
   1b5da:	018a5513          	srli	a0,s4,0x18
   1b5de:	010a5593          	srli	a1,s4,0x10
   1b5e2:	3eaa89a3          	sb	a0,1011(s5)
   1b5e6:	008a5513          	srli	a0,s4,0x8
   1b5ea:	3e8a8623          	sb	s0,1004(s5)
   1b5ee:	3f4a8823          	sb	s4,1008(s5)
   1b5f2:	3eaa88a3          	sb	a0,1009(s5)
   1b5f6:	3eba8923          	sb	a1,1010(s5)
   1b5fa:	6505                	lui	a0,0x1
   1b5fc:	32550513          	addi	a0,a0,805 # 1325 <.Lline_table_start1+0x10fa>
   1b600:	00a104b3          	add	s1,sp,a0
   1b604:	02500613          	li	a2,37
   1b608:	8526                	mv	a0,s1
   1b60a:	4581                	li	a1,0
   1b60c:	00004097          	auipc	ra,0x4
   1b610:	5a4080e7          	jalr	1444(ra) # 1fbb0 <memset>
   1b614:	864a                	mv	a2,s2
   1b616:	388a8823          	sb	s0,912(s5)
   1b61a:	6505                	lui	a0,0x1
   1b61c:	4791                	li	a5,4
   1b61e:	459d                	li	a1,7
   1b620:	59750513          	addi	a0,a0,1431 # 1597 <.Lline_table_start1+0x136c>
   1b624:	03600693          	li	a3,54
   1b628:	4711                	li	a4,4
   1b62a:	00000073          	ecall
   1b62e:	0a851363          	bne	a0,s0,1b6d4 <_start+0x97e>
   1b632:	8a2e                	mv	s4,a1
   1b634:	4589                	li	a1,2
   1b636:	0ab50463          	beq	a0,a1,1b6de <_start+0x988>
   1b63a:	390ac503          	lbu	a0,912(s5)
   1b63e:	4985                	li	s3,1
   1b640:	10b51163          	bne	a0,a1,1b742 <_start+0x9ec>
   1b644:	4581                	li	a1,0
   1b646:	8626                	mv	a2,s1
   1b648:	6505                	lui	a0,0x1
   1b64a:	02500693          	li	a3,37
   1b64e:	470d                	li	a4,3
   1b650:	59750513          	addi	a0,a0,1431 # 1597 <.Lline_table_start1+0x136c>
   1b654:	4789                	li	a5,2
   1b656:	00000073          	ecall
   1b65a:	8a2e                	mv	s4,a1
   1b65c:	458d                	li	a1,3
   1b65e:	0ef51563          	bne	a0,a5,1b748 <_start+0x9f2>
   1b662:	4505                	li	a0,1
   1b664:	a0ed                	j	1b74e <_start+0x9f8>
   1b666:	4501                	li	a0,0
   1b668:	390a8823          	sb	a6,912(s5)
   1b66c:	ba051be3          	bnez	a0,1b222 <_start+0x4cc>
   1b670:	4681                	li	a3,0
   1b672:	6509                	lui	a0,0x2
   1b674:	458d                	li	a1,3
   1b676:	4609                	li	a2,2
   1b678:	4709                	li	a4,2
   1b67a:	3cf50513          	addi	a0,a0,975 # 23cf <.Lline_table_start1+0x21a4>
   1b67e:	07f00793          	li	a5,127
   1b682:	00000073          	ecall
   1b686:	8a2e                	mv	s4,a1
   1b688:	4589                	li	a1,2
   1b68a:	b8a7fce3          	bgeu	a5,a0,1b222 <_start+0x4cc>
   1b68e:	3ecac603          	lbu	a2,1004(s5)
   1b692:	00b60a63          	beq	a2,a1,1b6a6 <_start+0x950>
   1b696:	6509                	lui	a0,0x2
   1b698:	3cf50513          	addi	a0,a0,975 # 23cf <.Lline_table_start1+0x21a4>
   1b69c:	458d                	li	a1,3
   1b69e:	00004097          	auipc	ra,0x4
   1b6a2:	506080e7          	jalr	1286(ra) # 1fba4 <_ZN9allow_pin12dynamic_type7unshare17h0269127f30dbe29bE>
   1b6a6:	390ac603          	lbu	a2,912(s5)
   1b6aa:	4a09                	li	s4,2
   1b6ac:	3f4a8623          	sb	s4,1004(s5)
   1b6b0:	01460a63          	beq	a2,s4,1b6c4 <_start+0x96e>
   1b6b4:	6509                	lui	a0,0x2
   1b6b6:	3cf50513          	addi	a0,a0,975 # 23cf <.Lline_table_start1+0x21a4>
   1b6ba:	4589                	li	a1,2
   1b6bc:	00004097          	auipc	ra,0x4
   1b6c0:	4e8080e7          	jalr	1256(ra) # 1fba4 <_ZN9allow_pin12dynamic_type7unshare17h0269127f30dbe29bE>
   1b6c4:	4b01                	li	s6,0
   1b6c6:	394a8823          	sb	s4,912(s5)
   1b6ca:	bea1                	j	1b222 <_start+0x4cc>
   1b6cc:	4a0d                	li	s4,3
   1b6ce:	4505                	li	a0,1
   1b6d0:	cd11                	beqz	a0,1b6ec <_start+0x996>
   1b6d2:	b3e5                	j	1b4ba <_start+0x764>
   1b6d4:	3efa8623          	sb	a5,1004(s5)
   1b6d8:	4589                	li	a1,2
   1b6da:	f6b510e3          	bne	a0,a1,1b63a <_start+0x8e4>
   1b6de:	4985                	li	s3,1
   1b6e0:	a0e9                	j	1b7aa <_start+0xa54>
   1b6e2:	4501                	li	a0,0
   1b6e4:	3eba8623          	sb	a1,1004(s5)
   1b6e8:	dc0519e3          	bnez	a0,1b4ba <_start+0x764>
   1b6ec:	4581                	li	a1,0
   1b6ee:	4681                	li	a3,0
   1b6f0:	21f00513          	li	a0,543
   1b6f4:	461d                	li	a2,7
   1b6f6:	4709                	li	a4,2
   1b6f8:	07f00793          	li	a5,127
   1b6fc:	00000073          	ecall
   1b700:	8a2e                	mv	s4,a1
   1b702:	4589                	li	a1,2
   1b704:	daa7fbe3          	bgeu	a5,a0,1b4ba <_start+0x764>
   1b708:	05414603          	lbu	a2,84(sp)
   1b70c:	00b60963          	beq	a2,a1,1b71e <_start+0x9c8>
   1b710:	21f00513          	li	a0,543
   1b714:	4581                	li	a1,0
   1b716:	00004097          	auipc	ra,0x4
   1b71a:	48e080e7          	jalr	1166(ra) # 1fba4 <_ZN9allow_pin12dynamic_type7unshare17h0269127f30dbe29bE>
   1b71e:	3ecac603          	lbu	a2,1004(s5)
   1b722:	4409                	li	s0,2
   1b724:	04810a23          	sb	s0,84(sp)
   1b728:	00860963          	beq	a2,s0,1b73a <_start+0x9e4>
   1b72c:	21f00513          	li	a0,543
   1b730:	459d                	li	a1,7
   1b732:	00004097          	auipc	ra,0x4
   1b736:	472080e7          	jalr	1138(ra) # 1fba4 <_ZN9allow_pin12dynamic_type7unshare17h0269127f30dbe29bE>
   1b73a:	4b01                	li	s6,0
   1b73c:	3e8a8623          	sb	s0,1004(s5)
   1b740:	bbad                	j	1b4ba <_start+0x764>
   1b742:	4a0d                	li	s4,3
   1b744:	4505                	li	a0,1
   1b746:	a021                	j	1b74e <_start+0x9f8>
   1b748:	4501                	li	a0,0
   1b74a:	38ba8823          	sb	a1,912(s5)
   1b74e:	ed31                	bnez	a0,1b7aa <_start+0xa54>
   1b750:	4601                	li	a2,0
   1b752:	4681                	li	a3,0
   1b754:	6505                	lui	a0,0x1
   1b756:	459d                	li	a1,7
   1b758:	4709                	li	a4,2
   1b75a:	59750513          	addi	a0,a0,1431 # 1597 <.Lline_table_start1+0x136c>
   1b75e:	07f00793          	li	a5,127
   1b762:	00000073          	ecall
   1b766:	8a2e                	mv	s4,a1
   1b768:	4589                	li	a1,2
   1b76a:	04a7f063          	bgeu	a5,a0,1b7aa <_start+0xa54>
   1b76e:	3ecac603          	lbu	a2,1004(s5)
   1b772:	00b60a63          	beq	a2,a1,1b786 <_start+0xa30>
   1b776:	6505                	lui	a0,0x1
   1b778:	59750513          	addi	a0,a0,1431 # 1597 <.Lline_table_start1+0x136c>
   1b77c:	459d                	li	a1,7
   1b77e:	00004097          	auipc	ra,0x4
   1b782:	426080e7          	jalr	1062(ra) # 1fba4 <_ZN9allow_pin12dynamic_type7unshare17h0269127f30dbe29bE>
   1b786:	390ac603          	lbu	a2,912(s5)
   1b78a:	4409                	li	s0,2
   1b78c:	3e8a8623          	sb	s0,1004(s5)
   1b790:	00860a63          	beq	a2,s0,1b7a4 <_start+0xa4e>
   1b794:	6505                	lui	a0,0x1
   1b796:	59750513          	addi	a0,a0,1431 # 1597 <.Lline_table_start1+0x136c>
   1b79a:	4581                	li	a1,0
   1b79c:	00004097          	auipc	ra,0x4
   1b7a0:	408080e7          	jalr	1032(ra) # 1fba4 <_ZN9allow_pin12dynamic_type7unshare17h0269127f30dbe29bE>
   1b7a4:	4981                	li	s3,0
   1b7a6:	388a8823          	sb	s0,912(s5)
   1b7aa:	390ac603          	lbu	a2,912(s5)
   1b7ae:	02098263          	beqz	s3,1b7d2 <_start+0xa7c>
   1b7b2:	4409                	li	s0,2
   1b7b4:	00860a63          	beq	a2,s0,1b7c8 <_start+0xa72>
   1b7b8:	6505                	lui	a0,0x1
   1b7ba:	59750513          	addi	a0,a0,1431 # 1597 <.Lline_table_start1+0x136c>
   1b7be:	4581                	li	a1,0
   1b7c0:	00004097          	auipc	ra,0x4
   1b7c4:	3e4080e7          	jalr	996(ra) # 1fba4 <_ZN9allow_pin12dynamic_type7unshare17h0269127f30dbe29bE>
   1b7c8:	3ecac603          	lbu	a2,1004(s5)
   1b7cc:	18861b63          	bne	a2,s0,1b962 <_start+0xc0c>
   1b7d0:	a24d                	j	1b972 <_start+0xc1c>
   1b7d2:	ffe60893          	addi	a7,a2,-2
   1b7d6:	4809                	li	a6,2
   1b7d8:	000102b7          	lui	t0,0x10
   1b7dc:	77d28293          	addi	t0,t0,1917 # 1077d <.Lanon.49c9f8067fe4468184af16d7576940c9.34>
   1b7e0:	01060363          	beq	a2,a6,1b7e6 <_start+0xa90>
   1b7e4:	8496                	mv	s1,t0
   1b7e6:	0014c583          	lbu	a1,1(s1)
   1b7ea:	0004c703          	lbu	a4,0(s1)
   1b7ee:	0024c783          	lbu	a5,2(s1)
   1b7f2:	05a2                	slli	a1,a1,0x8
   1b7f4:	394ac483          	lbu	s1,916(s5)
   1b7f8:	395ac403          	lbu	s0,917(s5)
   1b7fc:	8f4d                	or	a4,a4,a1
   1b7fe:	396ac683          	lbu	a3,918(s5)
   1b802:	397ac503          	lbu	a0,919(s5)
   1b806:	00841593          	slli	a1,s0,0x8
   1b80a:	8dc5                	or	a1,a1,s1
   1b80c:	08e11a23          	sh	a4,148(sp)
   1b810:	08f10b23          	sb	a5,150(sp)
   1b814:	011038b3          	snez	a7,a7
   1b818:	06c2                	slli	a3,a3,0x10
   1b81a:	0562                	slli	a0,a0,0x18
   1b81c:	8d55                	or	a0,a0,a3
   1b81e:	01060563          	beq	a2,a6,1b828 <_start+0xad2>
   1b822:	00728693          	addi	a3,t0,7
   1b826:	a029                	j	1b830 <_start+0xada>
   1b828:	6685                	lui	a3,0x1
   1b82a:	32c68693          	addi	a3,a3,812 # 132c <.Lline_table_start1+0x1101>
   1b82e:	968a                	add	a3,a3,sp
   1b830:	00b56933          	or	s2,a0,a1
   1b834:	01c6ce03          	lbu	t3,28(a3)
   1b838:	01d6cf03          	lbu	t5,29(a3)
   1b83c:	0006c783          	lbu	a5,0(a3)
   1b840:	0016c703          	lbu	a4,1(a3)
   1b844:	0026c303          	lbu	t1,2(a3)
   1b848:	0036c383          	lbu	t2,3(a3)
   1b84c:	0046c283          	lbu	t0,4(a3)
   1b850:	0056ce83          	lbu	t4,5(a3)
   1b854:	0066cb83          	lbu	s7,6(a3)
   1b858:	0076c503          	lbu	a0,7(a3)
   1b85c:	0086c483          	lbu	s1,8(a3)
   1b860:	0096c583          	lbu	a1,9(a3)
   1b864:	00a6cf83          	lbu	t6,10(a3)
   1b868:	00b6ca03          	lbu	s4,11(a3)
   1b86c:	0f22                	slli	t5,t5,0x8
   1b86e:	0722                	slli	a4,a4,0x8
   1b870:	01cf6e33          	or	t3,t5,t3
   1b874:	00f76f33          	or	t5,a4,a5
   1b878:	00c6cb03          	lbu	s6,12(a3)
   1b87c:	00d6cc03          	lbu	s8,13(a3)
   1b880:	00e6c783          	lbu	a5,14(a3)
   1b884:	00f6c403          	lbu	s0,15(a3)
   1b888:	0342                	slli	t1,t1,0x10
   1b88a:	03e2                	slli	t2,t2,0x18
   1b88c:	0ea2                	slli	t4,t4,0x8
   1b88e:	0bc2                	slli	s7,s7,0x10
   1b890:	0562                	slli	a0,a0,0x18
   1b892:	05a2                	slli	a1,a1,0x8
   1b894:	0063e333          	or	t1,t2,t1
   1b898:	005ee2b3          	or	t0,t4,t0
   1b89c:	017563b3          	or	t2,a0,s7
   1b8a0:	0095eeb3          	or	t4,a1,s1
   1b8a4:	0106c583          	lbu	a1,16(a3)
   1b8a8:	0116c503          	lbu	a0,17(a3)
   1b8ac:	0126c483          	lbu	s1,18(a3)
   1b8b0:	0136c703          	lbu	a4,19(a3)
   1b8b4:	0fc2                	slli	t6,t6,0x10
   1b8b6:	0a62                	slli	s4,s4,0x18
   1b8b8:	0c22                	slli	s8,s8,0x8
   1b8ba:	07c2                	slli	a5,a5,0x10
   1b8bc:	0462                	slli	s0,s0,0x18
   1b8be:	0522                	slli	a0,a0,0x8
   1b8c0:	01fa6fb3          	or	t6,s4,t6
   1b8c4:	016c6a33          	or	s4,s8,s6
   1b8c8:	00f46bb3          	or	s7,s0,a5
   1b8cc:	00b56b33          	or	s6,a0,a1
   1b8d0:	0146c583          	lbu	a1,20(a3)
   1b8d4:	0156c403          	lbu	s0,21(a3)
   1b8d8:	0166c503          	lbu	a0,22(a3)
   1b8dc:	0176c783          	lbu	a5,23(a3)
   1b8e0:	04c2                	slli	s1,s1,0x10
   1b8e2:	0762                	slli	a4,a4,0x18
   1b8e4:	0422                	slli	s0,s0,0x8
   1b8e6:	0542                	slli	a0,a0,0x10
   1b8e8:	07e2                	slli	a5,a5,0x18
   1b8ea:	00976cb3          	or	s9,a4,s1
   1b8ee:	00b46c33          	or	s8,s0,a1
   1b8f2:	0186c403          	lbu	s0,24(a3)
   1b8f6:	0196c483          	lbu	s1,25(a3)
   1b8fa:	00a7ed33          	or	s10,a5,a0
   1b8fe:	01a6c783          	lbu	a5,26(a3)
   1b902:	01b6c683          	lbu	a3,27(a3)
   1b906:	04a2                	slli	s1,s1,0x8
   1b908:	8c45                	or	s0,s0,s1
   1b90a:	07c2                	slli	a5,a5,0x10
   1b90c:	06e2                	slli	a3,a3,0x18
   1b90e:	8edd                	or	a3,a3,a5
   1b910:	01e367b3          	or	a5,t1,t5
   1b914:	0053e4b3          	or	s1,t2,t0
   1b918:	01dfe2b3          	or	t0,t6,t4
   1b91c:	014be733          	or	a4,s7,s4
   1b920:	016ce533          	or	a0,s9,s6
   1b924:	018d65b3          	or	a1,s10,s8
   1b928:	8ec1                	or	a3,a3,s0
   1b92a:	d2aa                	sw	a0,100(sp)
   1b92c:	d4ae                	sw	a1,104(sp)
   1b92e:	d6b6                	sw	a3,108(sp)
   1b930:	07c11823          	sh	t3,112(sp)
   1b934:	fff88413          	addi	s0,a7,-1
   1b938:	cabe                	sw	a5,84(sp)
   1b93a:	cca6                	sw	s1,88(sp)
   1b93c:	ce96                	sw	t0,92(sp)
   1b93e:	d0ba                	sw	a4,96(sp)
   1b940:	01060a63          	beq	a2,a6,1b954 <_start+0xbfe>
   1b944:	6505                	lui	a0,0x1
   1b946:	59750513          	addi	a0,a0,1431 # 1597 <.Lline_table_start1+0x136c>
   1b94a:	4581                	li	a1,0
   1b94c:	00004097          	auipc	ra,0x4
   1b950:	258080e7          	jalr	600(ra) # 1fba4 <_ZN9allow_pin12dynamic_type7unshare17h0269127f30dbe29bE>
   1b954:	3ecac603          	lbu	a2,1004(s5)
   1b958:	4509                	li	a0,2
   1b95a:	01247a33          	and	s4,s0,s2
   1b95e:	00a60a63          	beq	a2,a0,1b972 <_start+0xc1c>
   1b962:	6505                	lui	a0,0x1
   1b964:	59750513          	addi	a0,a0,1431 # 1597 <.Lline_table_start1+0x136c>
   1b968:	459d                	li	a1,7
   1b96a:	00004097          	auipc	ra,0x4
   1b96e:	23a080e7          	jalr	570(ra) # 1fba4 <_ZN9allow_pin12dynamic_type7unshare17h0269127f30dbe29bE>
   1b972:	00098463          	beqz	s3,1b97a <_start+0xc24>
   1b976:	1820406f          	j	1faf8 <_start+0x4da2>
   1b97a:	09414503          	lbu	a0,148(sp)
   1b97e:	09514583          	lbu	a1,149(sp)
   1b982:	09614603          	lbu	a2,150(sp)
   1b986:	6685                	lui	a3,0x1
   1b988:	38168693          	addi	a3,a3,897 # 1381 <.Lline_table_start1+0x1156>
   1b98c:	00d10933          	add	s2,sp,a3
   1b990:	3eaa86a3          	sb	a0,1005(s5)
   1b994:	3eba8723          	sb	a1,1006(s5)
   1b998:	3eca87a3          	sb	a2,1007(s5)
   1b99c:	4556                	lw	a0,84(sp)
   1b99e:	45e6                	lw	a1,88(sp)
   1b9a0:	4676                	lw	a2,92(sp)
   1b9a2:	5686                	lw	a3,96(sp)
   1b9a4:	c42a                	sw	a0,8(sp)
   1b9a6:	c62e                	sw	a1,12(sp)
   1b9a8:	c832                	sw	a2,16(sp)
   1b9aa:	ca36                	sw	a3,20(sp)
   1b9ac:	5516                	lw	a0,100(sp)
   1b9ae:	55a6                	lw	a1,104(sp)
   1b9b0:	5636                	lw	a2,108(sp)
   1b9b2:	07011683          	lh	a3,112(sp)
   1b9b6:	cc2a                	sw	a0,24(sp)
   1b9b8:	ce2e                	sw	a1,28(sp)
   1b9ba:	d032                	sw	a2,32(sp)
   1b9bc:	02d11223          	sh	a3,36(sp)
   1b9c0:	6505                	lui	a0,0x1
   1b9c2:	38850513          	addi	a0,a0,904 # 1388 <.Lline_table_start1+0x115d>
   1b9c6:	950a                	add	a0,a0,sp
   1b9c8:	002c                	addi	a1,sp,8
   1b9ca:	4679                	li	a2,30
   1b9cc:	00004097          	auipc	ra,0x4
   1b9d0:	250080e7          	jalr	592(ra) # 1fc1c <memcpy>
   1b9d4:	4409                	li	s0,2
   1b9d6:	018a5513          	srli	a0,s4,0x18
   1b9da:	010a5593          	srli	a1,s4,0x10
   1b9de:	3eaa89a3          	sb	a0,1011(s5)
   1b9e2:	008a5513          	srli	a0,s4,0x8
   1b9e6:	3e8a8623          	sb	s0,1004(s5)
   1b9ea:	3f4a8823          	sb	s4,1008(s5)
   1b9ee:	3eaa88a3          	sb	a0,1009(s5)
   1b9f2:	3eba8923          	sb	a1,1010(s5)
   1b9f6:	6505                	lui	a0,0x1
   1b9f8:	32550513          	addi	a0,a0,805 # 1325 <.Lline_table_start1+0x10fa>
   1b9fc:	00a104b3          	add	s1,sp,a0
   1ba00:	4639                	li	a2,14
   1ba02:	8526                	mv	a0,s1
   1ba04:	4581                	li	a1,0
   1ba06:	00004097          	auipc	ra,0x4
   1ba0a:	1aa080e7          	jalr	426(ra) # 1fbb0 <memset>
   1ba0e:	864a                	mv	a2,s2
   1ba10:	388a8823          	sb	s0,912(s5)
   1ba14:	4791                	li	a5,4
   1ba16:	66700513          	li	a0,1639
   1ba1a:	4589                	li	a1,2
   1ba1c:	02500693          	li	a3,37
   1ba20:	4711                	li	a4,4
   1ba22:	00000073          	ecall
   1ba26:	00851463          	bne	a0,s0,1ba2e <_start+0xcd8>
   1ba2a:	8a2e                	mv	s4,a1
   1ba2c:	a019                	j	1ba32 <_start+0xcdc>
   1ba2e:	3efa8623          	sb	a5,1004(s5)
   1ba32:	4589                	li	a1,2
   1ba34:	00b51463          	bne	a0,a1,1ba3c <_start+0xce6>
   1ba38:	4905                	li	s2,1
   1ba3a:	a071                	j	1bac6 <_start+0xd70>
   1ba3c:	390ac503          	lbu	a0,912(s5)
   1ba40:	4905                	li	s2,1
   1ba42:	02b51163          	bne	a0,a1,1ba64 <_start+0xd0e>
   1ba46:	8626                	mv	a2,s1
   1ba48:	66700513          	li	a0,1639
   1ba4c:	45a1                	li	a1,8
   1ba4e:	46b9                	li	a3,14
   1ba50:	470d                	li	a4,3
   1ba52:	4789                	li	a5,2
   1ba54:	00000073          	ecall
   1ba58:	8a2e                	mv	s4,a1
   1ba5a:	458d                	li	a1,3
   1ba5c:	00f51763          	bne	a0,a5,1ba6a <_start+0xd14>
   1ba60:	4505                	li	a0,1
   1ba62:	a039                	j	1ba70 <_start+0xd1a>
   1ba64:	4a0d                	li	s4,3
   1ba66:	4505                	li	a0,1
   1ba68:	a021                	j	1ba70 <_start+0xd1a>
   1ba6a:	4501                	li	a0,0
   1ba6c:	38ba8823          	sb	a1,912(s5)
   1ba70:	e939                	bnez	a0,1bac6 <_start+0xd70>
   1ba72:	4681                	li	a3,0
   1ba74:	66700513          	li	a0,1639
   1ba78:	4589                	li	a1,2
   1ba7a:	4621                	li	a2,8
   1ba7c:	4709                	li	a4,2
   1ba7e:	07f00793          	li	a5,127
   1ba82:	00000073          	ecall
   1ba86:	8a2e                	mv	s4,a1
   1ba88:	4589                	li	a1,2
   1ba8a:	02a7fe63          	bgeu	a5,a0,1bac6 <_start+0xd70>
   1ba8e:	3ecac603          	lbu	a2,1004(s5)
   1ba92:	00b60963          	beq	a2,a1,1baa4 <_start+0xd4e>
   1ba96:	66700513          	li	a0,1639
   1ba9a:	4589                	li	a1,2
   1ba9c:	00004097          	auipc	ra,0x4
   1baa0:	108080e7          	jalr	264(ra) # 1fba4 <_ZN9allow_pin12dynamic_type7unshare17h0269127f30dbe29bE>
   1baa4:	390ac603          	lbu	a2,912(s5)
   1baa8:	4409                	li	s0,2
   1baaa:	3e8a8623          	sb	s0,1004(s5)
   1baae:	00860963          	beq	a2,s0,1bac0 <_start+0xd6a>
   1bab2:	66700513          	li	a0,1639
   1bab6:	45a1                	li	a1,8
   1bab8:	00004097          	auipc	ra,0x4
   1babc:	0ec080e7          	jalr	236(ra) # 1fba4 <_ZN9allow_pin12dynamic_type7unshare17h0269127f30dbe29bE>
   1bac0:	4901                	li	s2,0
   1bac2:	388a8823          	sb	s0,912(s5)
   1bac6:	390ac603          	lbu	a2,912(s5)
   1baca:	02090163          	beqz	s2,1baec <_start+0xd96>
   1bace:	4409                	li	s0,2
   1bad0:	00860963          	beq	a2,s0,1bae2 <_start+0xd8c>
   1bad4:	66700513          	li	a0,1639
   1bad8:	45a1                	li	a1,8
   1bada:	00004097          	auipc	ra,0x4
   1bade:	0ca080e7          	jalr	202(ra) # 1fba4 <_ZN9allow_pin12dynamic_type7unshare17h0269127f30dbe29bE>
   1bae2:	3ecac603          	lbu	a2,1004(s5)
   1bae6:	0c861263          	bne	a2,s0,1bbaa <_start+0xe54>
   1baea:	a0f9                	j	1bbb8 <_start+0xe62>
   1baec:	ffe60293          	addi	t0,a2,-2
   1baf0:	4889                	li	a7,2
   1baf2:	00010837          	lui	a6,0x10
   1baf6:	72680813          	addi	a6,a6,1830 # 10726 <.Lanon.49c9f8067fe4468184af16d7576940c9.31>
   1bafa:	01160363          	beq	a2,a7,1bb00 <_start+0xdaa>
   1bafe:	84c2                	mv	s1,a6
   1bb00:	0014c703          	lbu	a4,1(s1)
   1bb04:	0004c783          	lbu	a5,0(s1)
   1bb08:	0024c483          	lbu	s1,2(s1)
   1bb0c:	0722                	slli	a4,a4,0x8
   1bb0e:	394ac403          	lbu	s0,916(s5)
   1bb12:	395ac683          	lbu	a3,917(s5)
   1bb16:	8fd9                	or	a5,a5,a4
   1bb18:	396ac503          	lbu	a0,918(s5)
   1bb1c:	397ac583          	lbu	a1,919(s5)
   1bb20:	06a2                	slli	a3,a3,0x8
   1bb22:	0086e733          	or	a4,a3,s0
   1bb26:	08f11a23          	sh	a5,148(sp)
   1bb2a:	08910b23          	sb	s1,150(sp)
   1bb2e:	005032b3          	snez	t0,t0
   1bb32:	0542                	slli	a0,a0,0x10
   1bb34:	05e2                	slli	a1,a1,0x18
   1bb36:	00a5e4b3          	or	s1,a1,a0
   1bb3a:	01160563          	beq	a2,a7,1bb44 <_start+0xdee>
   1bb3e:	00780693          	addi	a3,a6,7
   1bb42:	a031                	j	1bb4e <_start+0xdf8>
   1bb44:	6505                	lui	a0,0x1
   1bb46:	32c50513          	addi	a0,a0,812 # 132c <.Lline_table_start1+0x1101>
   1bb4a:	00a106b3          	add	a3,sp,a0
   1bb4e:	0056c503          	lbu	a0,5(a3)
   1bb52:	0046c583          	lbu	a1,4(a3)
   1bb56:	8cd9                	or	s1,s1,a4
   1bb58:	0066c703          	lbu	a4,6(a3)
   1bb5c:	0522                	slli	a0,a0,0x8
   1bb5e:	0006c783          	lbu	a5,0(a3)
   1bb62:	0016c403          	lbu	s0,1(a3)
   1bb66:	8d4d                	or	a0,a0,a1
   1bb68:	0026c583          	lbu	a1,2(a3)
   1bb6c:	0036c683          	lbu	a3,3(a3)
   1bb70:	0422                	slli	s0,s0,0x8
   1bb72:	8fc1                	or	a5,a5,s0
   1bb74:	05c2                	slli	a1,a1,0x10
   1bb76:	06e2                	slli	a3,a3,0x18
   1bb78:	8dd5                	or	a1,a1,a3
   1bb7a:	8ddd                	or	a1,a1,a5
   1bb7c:	fff28413          	addi	s0,t0,-1
   1bb80:	caae                	sw	a1,84(sp)
   1bb82:	04a11c23          	sh	a0,88(sp)
   1bb86:	04e10d23          	sb	a4,90(sp)
   1bb8a:	01160963          	beq	a2,a7,1bb9c <_start+0xe46>
   1bb8e:	66700513          	li	a0,1639
   1bb92:	45a1                	li	a1,8
   1bb94:	00004097          	auipc	ra,0x4
   1bb98:	010080e7          	jalr	16(ra) # 1fba4 <_ZN9allow_pin12dynamic_type7unshare17h0269127f30dbe29bE>
   1bb9c:	3ecac603          	lbu	a2,1004(s5)
   1bba0:	4509                	li	a0,2
   1bba2:	00947a33          	and	s4,s0,s1
   1bba6:	00a60963          	beq	a2,a0,1bbb8 <_start+0xe62>
   1bbaa:	66700513          	li	a0,1639
   1bbae:	4589                	li	a1,2
   1bbb0:	00004097          	auipc	ra,0x4
   1bbb4:	ff4080e7          	jalr	-12(ra) # 1fba4 <_ZN9allow_pin12dynamic_type7unshare17h0269127f30dbe29bE>
   1bbb8:	00090463          	beqz	s2,1bbc0 <_start+0xe6a>
   1bbbc:	73d0306f          	j	1faf8 <_start+0x4da2>
   1bbc0:	09411503          	lh	a0,148(sp)
   1bbc4:	09614583          	lbu	a1,150(sp)
   1bbc8:	4656                	lw	a2,84(sp)
   1bbca:	05811683          	lh	a3,88(sp)
   1bbce:	05a14703          	lbu	a4,90(sp)
   1bbd2:	018a5793          	srli	a5,s4,0x18
   1bbd6:	010a5493          	srli	s1,s4,0x10
   1bbda:	c432                	sw	a2,8(sp)
   1bbdc:	00d11623          	sh	a3,12(sp)
   1bbe0:	008a5693          	srli	a3,s4,0x8
   1bbe4:	0aa11623          	sh	a0,172(sp)
   1bbe8:	0ab10723          	sb	a1,174(sp)
   1bbec:	0b4107a3          	sb	s4,175(sp)
   1bbf0:	0ad10823          	sb	a3,176(sp)
   1bbf4:	0ae10ca3          	sb	a4,185(sp)
   1bbf8:	00914503          	lbu	a0,9(sp)
   1bbfc:	00a14583          	lbu	a1,10(sp)
   1bc00:	00b14683          	lbu	a3,11(sp)
   1bc04:	00c14703          	lbu	a4,12(sp)
   1bc08:	0a9108a3          	sb	s1,177(sp)
   1bc0c:	0af10923          	sb	a5,178(sp)
   1bc10:	0ac109a3          	sb	a2,179(sp)
   1bc14:	0aa10a23          	sb	a0,180(sp)
   1bc18:	00d14503          	lbu	a0,13(sp)
   1bc1c:	0ab10aa3          	sb	a1,181(sp)
   1bc20:	0ad10b23          	sb	a3,182(sp)
   1bc24:	0ae10ba3          	sb	a4,183(sp)
   1bc28:	0aa10c23          	sb	a0,184(sp)
   1bc2c:	6505                	lui	a0,0x1
   1bc2e:	38050513          	addi	a0,a0,896 # 1380 <.Lline_table_start1+0x1155>
   1bc32:	950a                	add	a0,a0,sp
   1bc34:	116c                	addi	a1,sp,172
   1bc36:	ffff8097          	auipc	ra,0xffff8
   1bc3a:	3b2080e7          	jalr	946(ra) # 13fe8 <_ZN20complex_dynamic_type3app17h4e44b31b166d4d06E>
   1bc3e:	3ecac403          	lbu	s0,1004(s5)
   1bc42:	c401                	beqz	s0,1bc4a <_start+0xef4>
   1bc44:	3f0aaa03          	lw	s4,1008(s5)
   1bc48:	a835                	j	1bc84 <_start+0xf2e>
   1bc4a:	3eeac503          	lbu	a0,1006(s5)
   1bc4e:	3edac583          	lbu	a1,1005(s5)
   1bc52:	3efac603          	lbu	a2,1007(s5)
   1bc56:	3f0aaa03          	lw	s4,1008(s5)
   1bc5a:	0522                	slli	a0,a0,0x8
   1bc5c:	8d4d                	or	a0,a0,a1
   1bc5e:	00a11423          	sh	a0,8(sp)
   1bc62:	00c10523          	sb	a2,10(sp)
   1bc66:	6505                	lui	a0,0x1
   1bc68:	38850513          	addi	a0,a0,904 # 1388 <.Lline_table_start1+0x115d>
   1bc6c:	00a105b3          	add	a1,sp,a0
   1bc70:	6505                	lui	a0,0x1
   1bc72:	32450513          	addi	a0,a0,804 # 1324 <.Lline_table_start1+0x10f9>
   1bc76:	950a                	add	a0,a0,sp
   1bc78:	04100613          	li	a2,65
   1bc7c:	00004097          	auipc	ra,0x4
   1bc80:	fa0080e7          	jalr	-96(ra) # 1fc1c <memcpy>
   1bc84:	c019                	beqz	s0,1bc8a <_start+0xf34>
   1bc86:	6730306f          	j	1faf8 <_start+0x4da2>
   1bc8a:	00811503          	lh	a0,8(sp)
   1bc8e:	00a14583          	lbu	a1,10(sp)
   1bc92:	018a5613          	srli	a2,s4,0x18
   1bc96:	010a5693          	srli	a3,s4,0x10
   1bc9a:	0ad10fa3          	sb	a3,191(sp)
   1bc9e:	0cc10023          	sb	a2,192(sp)
   1bca2:	008a5613          	srli	a2,s4,0x8
   1bca6:	0aa11d23          	sh	a0,186(sp)
   1bcaa:	0ab10e23          	sb	a1,188(sp)
   1bcae:	0b410ea3          	sb	s4,189(sp)
   1bcb2:	0ac10f23          	sb	a2,190(sp)
   1bcb6:	0c110513          	addi	a0,sp,193
   1bcba:	6585                	lui	a1,0x1
   1bcbc:	32458593          	addi	a1,a1,804 # 1324 <.Lline_table_start1+0x10f9>
   1bcc0:	958a                	add	a1,a1,sp
   1bcc2:	04100613          	li	a2,65
   1bcc6:	00004097          	auipc	ra,0x4
   1bcca:	f56080e7          	jalr	-170(ra) # 1fc1c <memcpy>
   1bcce:	6505                	lui	a0,0x1
   1bcd0:	38050513          	addi	a0,a0,896 # 1380 <.Lline_table_start1+0x1155>
   1bcd4:	950a                	add	a0,a0,sp
   1bcd6:	0ba10593          	addi	a1,sp,186
   1bcda:	ffffc097          	auipc	ra,0xffffc
   1bcde:	706080e7          	jalr	1798(ra) # 183e0 <_ZN20complex_dynamic_type3app17hb6283a5bbf7eb829E>
   1bce2:	3ecac603          	lbu	a2,1004(s5)
   1bce6:	c601                	beqz	a2,1bcee <_start+0xf98>
   1bce8:	3f0aaa03          	lw	s4,1008(s5)
   1bcec:	a01d                	j	1bd12 <_start+0xfbc>
   1bcee:	3edac683          	lbu	a3,1005(s5)
   1bcf2:	3eeac703          	lbu	a4,1006(s5)
   1bcf6:	3efac783          	lbu	a5,1007(s5)
   1bcfa:	3f0aaa03          	lw	s4,1008(s5)
   1bcfe:	3f4aa583          	lw	a1,1012(s5)
   1bd02:	3f8aa503          	lw	a0,1016(s5)
   1bd06:	0722                	slli	a4,a4,0x8
   1bd08:	8ed9                	or	a3,a3,a4
   1bd0a:	38da9823          	sh	a3,912(s5)
   1bd0e:	38fa8923          	sb	a5,914(s5)
   1bd12:	c219                	beqz	a2,1bd18 <_start+0xfc2>
   1bd14:	5e50306f          	j	1faf8 <_start+0x4da2>
   1bd18:	390a9803          	lh	a6,912(s5)
   1bd1c:	392ac683          	lbu	a3,914(s5)
   1bd20:	018a5713          	srli	a4,s4,0x18
   1bd24:	010a5793          	srli	a5,s4,0x10
   1bd28:	008a5493          	srli	s1,s4,0x8
   1bd2c:	0085d413          	srli	s0,a1,0x8
   1bd30:	01855613          	srli	a2,a0,0x18
   1bd34:	10f103a3          	sb	a5,263(sp)
   1bd38:	10e10423          	sb	a4,264(sp)
   1bd3c:	10b104a3          	sb	a1,265(sp)
   1bd40:	10810523          	sb	s0,266(sp)
   1bd44:	01055713          	srli	a4,a0,0x10
   1bd48:	10e107a3          	sb	a4,271(sp)
   1bd4c:	10c10823          	sb	a2,272(sp)
   1bd50:	0185d613          	srli	a2,a1,0x18
   1bd54:	81c1                	srli	a1,a1,0x10
   1bd56:	11011123          	sh	a6,258(sp)
   1bd5a:	10d10223          	sb	a3,260(sp)
   1bd5e:	114102a3          	sb	s4,261(sp)
   1bd62:	10910323          	sb	s1,262(sp)
   1bd66:	00855693          	srli	a3,a0,0x8
   1bd6a:	10b105a3          	sb	a1,267(sp)
   1bd6e:	10c10623          	sb	a2,268(sp)
   1bd72:	10a106a3          	sb	a0,269(sp)
   1bd76:	10d10723          	sb	a3,270(sp)
   1bd7a:	6505                	lui	a0,0x1
   1bd7c:	38050513          	addi	a0,a0,896 # 1380 <.Lline_table_start1+0x1155>
   1bd80:	950a                	add	a0,a0,sp
   1bd82:	10210593          	addi	a1,sp,258
   1bd86:	ffffb097          	auipc	ra,0xffffb
   1bd8a:	f34080e7          	jalr	-204(ra) # 16cba <_ZN20complex_dynamic_type3app17h870beff4df60bb04E>
   1bd8e:	3ecac503          	lbu	a0,1004(s5)
   1bd92:	c501                	beqz	a0,1bd9a <_start+0x1044>
   1bd94:	3f0aaa03          	lw	s4,1008(s5)
   1bd98:	a8b9                	j	1bdf6 <_start+0x10a0>
   1bd9a:	3edac583          	lbu	a1,1005(s5)
   1bd9e:	3eeac603          	lbu	a2,1006(s5)
   1bda2:	3efac683          	lbu	a3,1007(s5)
   1bda6:	3f0aaa03          	lw	s4,1008(s5)
   1bdaa:	3f4aa703          	lw	a4,1012(s5)
   1bdae:	3f8aa783          	lw	a5,1016(s5)
   1bdb2:	3fcaa483          	lw	s1,1020(s5)
   1bdb6:	400aa403          	lw	s0,1024(s5)
   1bdba:	0622                	slli	a2,a2,0x8
   1bdbc:	38eaa823          	sw	a4,912(s5)
   1bdc0:	38faaa23          	sw	a5,916(s5)
   1bdc4:	389aac23          	sw	s1,920(s5)
   1bdc8:	388aae23          	sw	s0,924(s5)
   1bdcc:	8dd1                	or	a1,a1,a2
   1bdce:	00b11423          	sh	a1,8(sp)
   1bdd2:	00d10523          	sb	a3,10(sp)
   1bdd6:	404aa583          	lw	a1,1028(s5)
   1bdda:	408aa603          	lw	a2,1032(s5)
   1bdde:	40caa683          	lw	a3,1036(s5)
   1bde2:	410a9703          	lh	a4,1040(s5)
   1bde6:	3abaa023          	sw	a1,928(s5)
   1bdea:	3acaa223          	sw	a2,932(s5)
   1bdee:	3adaa423          	sw	a3,936(s5)
   1bdf2:	3aea9623          	sh	a4,940(s5)
   1bdf6:	c119                	beqz	a0,1bdfc <_start+0x10a6>
   1bdf8:	5010306f          	j	1faf8 <_start+0x4da2>
   1bdfc:	00811503          	lh	a0,8(sp)
   1be00:	00a14583          	lbu	a1,10(sp)
   1be04:	018a5613          	srli	a2,s4,0x18
   1be08:	010a5693          	srli	a3,s4,0x10
   1be0c:	10d10ba3          	sb	a3,279(sp)
   1be10:	10c10c23          	sb	a2,280(sp)
   1be14:	008a5613          	srli	a2,s4,0x8
   1be18:	10a11923          	sh	a0,274(sp)
   1be1c:	10b10a23          	sb	a1,276(sp)
   1be20:	11410aa3          	sb	s4,277(sp)
   1be24:	10c10b23          	sb	a2,278(sp)
   1be28:	11910513          	addi	a0,sp,281
   1be2c:	6585                	lui	a1,0x1
   1be2e:	32458593          	addi	a1,a1,804 # 1324 <.Lline_table_start1+0x10f9>
   1be32:	958a                	add	a1,a1,sp
   1be34:	4679                	li	a2,30
   1be36:	00004097          	auipc	ra,0x4
   1be3a:	de6080e7          	jalr	-538(ra) # 1fc1c <memcpy>
   1be3e:	6505                	lui	a0,0x1
   1be40:	38050513          	addi	a0,a0,896 # 1380 <.Lline_table_start1+0x1155>
   1be44:	950a                	add	a0,a0,sp
   1be46:	11210593          	addi	a1,sp,274
   1be4a:	ffffe097          	auipc	ra,0xffffe
   1be4e:	148080e7          	jalr	328(ra) # 19f92 <_ZN20complex_dynamic_type3app17hef2d001f9d087fe1E>
   1be52:	3ecac403          	lbu	s0,1004(s5)
   1be56:	c401                	beqz	s0,1be5e <_start+0x1108>
   1be58:	3f0aaa03          	lw	s4,1008(s5)
   1be5c:	a835                	j	1be98 <_start+0x1142>
   1be5e:	3eeac503          	lbu	a0,1006(s5)
   1be62:	3edac583          	lbu	a1,1005(s5)
   1be66:	3efac603          	lbu	a2,1007(s5)
   1be6a:	3f0aaa03          	lw	s4,1008(s5)
   1be6e:	0522                	slli	a0,a0,0x8
   1be70:	8d4d                	or	a0,a0,a1
   1be72:	00a11423          	sh	a0,8(sp)
   1be76:	00c10523          	sb	a2,10(sp)
   1be7a:	6505                	lui	a0,0x1
   1be7c:	38850513          	addi	a0,a0,904 # 1388 <.Lline_table_start1+0x115d>
   1be80:	00a105b3          	add	a1,sp,a0
   1be84:	6505                	lui	a0,0x1
   1be86:	32450513          	addi	a0,a0,804 # 1324 <.Lline_table_start1+0x10f9>
   1be8a:	950a                	add	a0,a0,sp
   1be8c:	02300613          	li	a2,35
   1be90:	00004097          	auipc	ra,0x4
   1be94:	d8c080e7          	jalr	-628(ra) # 1fc1c <memcpy>
   1be98:	c019                	beqz	s0,1be9e <_start+0x1148>
   1be9a:	45f0306f          	j	1faf8 <_start+0x4da2>
   1be9e:	00811503          	lh	a0,8(sp)
   1bea2:	00a14583          	lbu	a1,10(sp)
   1bea6:	018a5613          	srli	a2,s4,0x18
   1beaa:	010a5693          	srli	a3,s4,0x10
   1beae:	12d10ea3          	sb	a3,317(sp)
   1beb2:	12c10f23          	sb	a2,318(sp)
   1beb6:	008a5613          	srli	a2,s4,0x8
   1beba:	12a11c23          	sh	a0,312(sp)
   1bebe:	12b10d23          	sb	a1,314(sp)
   1bec2:	13410da3          	sb	s4,315(sp)
   1bec6:	12c10e23          	sb	a2,316(sp)
   1beca:	13f10513          	addi	a0,sp,319
   1bece:	6585                	lui	a1,0x1
   1bed0:	32458593          	addi	a1,a1,804 # 1324 <.Lline_table_start1+0x10f9>
   1bed4:	958a                	add	a1,a1,sp
   1bed6:	02300613          	li	a2,35
   1beda:	00004097          	auipc	ra,0x4
   1bede:	d42080e7          	jalr	-702(ra) # 1fc1c <memcpy>
   1bee2:	6505                	lui	a0,0x1
   1bee4:	38050513          	addi	a0,a0,896 # 1380 <.Lline_table_start1+0x1155>
   1bee8:	950a                	add	a0,a0,sp
   1beea:	1a2c                	addi	a1,sp,312
   1beec:	ffffd097          	auipc	ra,0xffffd
   1bef0:	996080e7          	jalr	-1642(ra) # 18882 <_ZN20complex_dynamic_type3app17hbcb377f292bbcb54E>
   1bef4:	3ecac403          	lbu	s0,1004(s5)
   1bef8:	c401                	beqz	s0,1bf00 <_start+0x11aa>
   1befa:	3f0aaa03          	lw	s4,1008(s5)
   1befe:	a835                	j	1bf3a <_start+0x11e4>
   1bf00:	3eeac503          	lbu	a0,1006(s5)
   1bf04:	3edac583          	lbu	a1,1005(s5)
   1bf08:	3efac603          	lbu	a2,1007(s5)
   1bf0c:	3f0aaa03          	lw	s4,1008(s5)
   1bf10:	0522                	slli	a0,a0,0x8
   1bf12:	8d4d                	or	a0,a0,a1
   1bf14:	00a11423          	sh	a0,8(sp)
   1bf18:	00c10523          	sb	a2,10(sp)
   1bf1c:	6505                	lui	a0,0x1
   1bf1e:	38850513          	addi	a0,a0,904 # 1388 <.Lline_table_start1+0x115d>
   1bf22:	00a105b3          	add	a1,sp,a0
   1bf26:	6505                	lui	a0,0x1
   1bf28:	32450513          	addi	a0,a0,804 # 1324 <.Lline_table_start1+0x10f9>
   1bf2c:	950a                	add	a0,a0,sp
   1bf2e:	05c00613          	li	a2,92
   1bf32:	00004097          	auipc	ra,0x4
   1bf36:	cea080e7          	jalr	-790(ra) # 1fc1c <memcpy>
   1bf3a:	c019                	beqz	s0,1bf40 <_start+0x11ea>
   1bf3c:	3bd0306f          	j	1faf8 <_start+0x4da2>
   1bf40:	00811503          	lh	a0,8(sp)
   1bf44:	00a14583          	lbu	a1,10(sp)
   1bf48:	018a5613          	srli	a2,s4,0x18
   1bf4c:	010a5693          	srli	a3,s4,0x10
   1bf50:	16d103a3          	sb	a3,359(sp)
   1bf54:	16c10423          	sb	a2,360(sp)
   1bf58:	008a5613          	srli	a2,s4,0x8
   1bf5c:	16a11123          	sh	a0,354(sp)
   1bf60:	16b10223          	sb	a1,356(sp)
   1bf64:	174102a3          	sb	s4,357(sp)
   1bf68:	16c10323          	sb	a2,358(sp)
   1bf6c:	16910513          	addi	a0,sp,361
   1bf70:	6585                	lui	a1,0x1
   1bf72:	32458593          	addi	a1,a1,804 # 1324 <.Lline_table_start1+0x10f9>
   1bf76:	958a                	add	a1,a1,sp
   1bf78:	05c00613          	li	a2,92
   1bf7c:	00004097          	auipc	ra,0x4
   1bf80:	ca0080e7          	jalr	-864(ra) # 1fc1c <memcpy>
   1bf84:	6505                	lui	a0,0x1
   1bf86:	38050513          	addi	a0,a0,896 # 1380 <.Lline_table_start1+0x1155>
   1bf8a:	950a                	add	a0,a0,sp
   1bf8c:	16210593          	addi	a1,sp,354
   1bf90:	ffffc097          	auipc	ra,0xffffc
   1bf94:	132080e7          	jalr	306(ra) # 180c2 <_ZN20complex_dynamic_type3app17hb10967cb3e94610fE>
   1bf98:	3ecac503          	lbu	a0,1004(s5)
   1bf9c:	c501                	beqz	a0,1bfa4 <_start+0x124e>
   1bf9e:	3f0aaa03          	lw	s4,1008(s5)
   1bfa2:	a8b9                	j	1c000 <_start+0x12aa>
   1bfa4:	3edac583          	lbu	a1,1005(s5)
   1bfa8:	3eeac603          	lbu	a2,1006(s5)
   1bfac:	3efac683          	lbu	a3,1007(s5)
   1bfb0:	3f0aaa03          	lw	s4,1008(s5)
   1bfb4:	3f4aa703          	lw	a4,1012(s5)
   1bfb8:	3f8aa783          	lw	a5,1016(s5)
   1bfbc:	3fcaa483          	lw	s1,1020(s5)
   1bfc0:	400aa403          	lw	s0,1024(s5)
   1bfc4:	0622                	slli	a2,a2,0x8
   1bfc6:	38eaa823          	sw	a4,912(s5)
   1bfca:	38faaa23          	sw	a5,916(s5)
   1bfce:	389aac23          	sw	s1,920(s5)
   1bfd2:	388aae23          	sw	s0,924(s5)
   1bfd6:	8dd1                	or	a1,a1,a2
   1bfd8:	00b11423          	sh	a1,8(sp)
   1bfdc:	00d10523          	sb	a3,10(sp)
   1bfe0:	404aa583          	lw	a1,1028(s5)
   1bfe4:	408aa603          	lw	a2,1032(s5)
   1bfe8:	40caa683          	lw	a3,1036(s5)
   1bfec:	410aa703          	lw	a4,1040(s5)
   1bff0:	3abaa023          	sw	a1,928(s5)
   1bff4:	3acaa223          	sw	a2,932(s5)
   1bff8:	3adaa423          	sw	a3,936(s5)
   1bffc:	3aeaa623          	sw	a4,940(s5)
   1c000:	c119                	beqz	a0,1c006 <_start+0x12b0>
   1c002:	2f70306f          	j	1faf8 <_start+0x4da2>
   1c006:	00811503          	lh	a0,8(sp)
   1c00a:	00a14583          	lbu	a1,10(sp)
   1c00e:	018a5613          	srli	a2,s4,0x18
   1c012:	010a5693          	srli	a3,s4,0x10
   1c016:	1cd105a3          	sb	a3,459(sp)
   1c01a:	1cc10623          	sb	a2,460(sp)
   1c01e:	008a5613          	srli	a2,s4,0x8
   1c022:	1ca11323          	sh	a0,454(sp)
   1c026:	1cb10423          	sb	a1,456(sp)
   1c02a:	1d4104a3          	sb	s4,457(sp)
   1c02e:	1cc10523          	sb	a2,458(sp)
   1c032:	1cd10513          	addi	a0,sp,461
   1c036:	6585                	lui	a1,0x1
   1c038:	32458593          	addi	a1,a1,804 # 1324 <.Lline_table_start1+0x10f9>
   1c03c:	958a                	add	a1,a1,sp
   1c03e:	02000613          	li	a2,32
   1c042:	00004097          	auipc	ra,0x4
   1c046:	bda080e7          	jalr	-1062(ra) # 1fc1c <memcpy>
   1c04a:	6505                	lui	a0,0x1
   1c04c:	38050513          	addi	a0,a0,896 # 1380 <.Lline_table_start1+0x1155>
   1c050:	950a                	add	a0,a0,sp
   1c052:	1c610593          	addi	a1,sp,454
   1c056:	ffffe097          	auipc	ra,0xffffe
   1c05a:	db2080e7          	jalr	-590(ra) # 19e08 <_ZN20complex_dynamic_type3app17heef5f1fae590e463E>
   1c05e:	3ecac503          	lbu	a0,1004(s5)
   1c062:	c501                	beqz	a0,1c06a <_start+0x1314>
   1c064:	3f0aaa03          	lw	s4,1008(s5)
   1c068:	a899                	j	1c0be <_start+0x1368>
   1c06a:	3edac583          	lbu	a1,1005(s5)
   1c06e:	3eeac603          	lbu	a2,1006(s5)
   1c072:	3efac683          	lbu	a3,1007(s5)
   1c076:	3f0aaa03          	lw	s4,1008(s5)
   1c07a:	3f4aa703          	lw	a4,1012(s5)
   1c07e:	3f8aa783          	lw	a5,1016(s5)
   1c082:	3fcaa483          	lw	s1,1020(s5)
   1c086:	400aa403          	lw	s0,1024(s5)
   1c08a:	0622                	slli	a2,a2,0x8
   1c08c:	38eaa823          	sw	a4,912(s5)
   1c090:	38faaa23          	sw	a5,916(s5)
   1c094:	389aac23          	sw	s1,920(s5)
   1c098:	388aae23          	sw	s0,924(s5)
   1c09c:	8dd1                	or	a1,a1,a2
   1c09e:	404aa603          	lw	a2,1028(s5)
   1c0a2:	408a9703          	lh	a4,1032(s5)
   1c0a6:	40aac783          	lbu	a5,1034(s5)
   1c0aa:	00b11423          	sh	a1,8(sp)
   1c0ae:	00d10523          	sb	a3,10(sp)
   1c0b2:	3acaa023          	sw	a2,928(s5)
   1c0b6:	3aea9223          	sh	a4,932(s5)
   1c0ba:	3afa8323          	sb	a5,934(s5)
   1c0be:	c119                	beqz	a0,1c0c4 <_start+0x136e>
   1c0c0:	2390306f          	j	1faf8 <_start+0x4da2>
   1c0c4:	00811503          	lh	a0,8(sp)
   1c0c8:	00a14583          	lbu	a1,10(sp)
   1c0cc:	018a5613          	srli	a2,s4,0x18
   1c0d0:	010a5693          	srli	a3,s4,0x10
   1c0d4:	1ed109a3          	sb	a3,499(sp)
   1c0d8:	1ec10a23          	sb	a2,500(sp)
   1c0dc:	008a5613          	srli	a2,s4,0x8
   1c0e0:	1ea11723          	sh	a0,494(sp)
   1c0e4:	1eb10823          	sb	a1,496(sp)
   1c0e8:	1f4108a3          	sb	s4,497(sp)
   1c0ec:	1ec10923          	sb	a2,498(sp)
   1c0f0:	1f510513          	addi	a0,sp,501
   1c0f4:	6585                	lui	a1,0x1
   1c0f6:	32458593          	addi	a1,a1,804 # 1324 <.Lline_table_start1+0x10f9>
   1c0fa:	958a                	add	a1,a1,sp
   1c0fc:	465d                	li	a2,23
   1c0fe:	00004097          	auipc	ra,0x4
   1c102:	b1e080e7          	jalr	-1250(ra) # 1fc1c <memcpy>
   1c106:	6505                	lui	a0,0x1
   1c108:	38050513          	addi	a0,a0,896 # 1380 <.Lline_table_start1+0x1155>
   1c10c:	950a                	add	a0,a0,sp
   1c10e:	1ee10593          	addi	a1,sp,494
   1c112:	ffffe097          	auipc	ra,0xffffe
   1c116:	642080e7          	jalr	1602(ra) # 1a754 <_ZN20complex_dynamic_type3app17hf7f0c86aed5d5cb4E>
   1c11a:	3ecac403          	lbu	s0,1004(s5)
   1c11e:	c401                	beqz	s0,1c126 <_start+0x13d0>
   1c120:	3f0aaa03          	lw	s4,1008(s5)
   1c124:	a835                	j	1c160 <_start+0x140a>
   1c126:	3eeac503          	lbu	a0,1006(s5)
   1c12a:	3edac583          	lbu	a1,1005(s5)
   1c12e:	3efac603          	lbu	a2,1007(s5)
   1c132:	3f0aaa03          	lw	s4,1008(s5)
   1c136:	0522                	slli	a0,a0,0x8
   1c138:	8d4d                	or	a0,a0,a1
   1c13a:	00a11423          	sh	a0,8(sp)
   1c13e:	00c10523          	sb	a2,10(sp)
   1c142:	6505                	lui	a0,0x1
   1c144:	38850513          	addi	a0,a0,904 # 1388 <.Lline_table_start1+0x115d>
   1c148:	00a105b3          	add	a1,sp,a0
   1c14c:	6505                	lui	a0,0x1
   1c14e:	32450513          	addi	a0,a0,804 # 1324 <.Lline_table_start1+0x10f9>
   1c152:	950a                	add	a0,a0,sp
   1c154:	02500613          	li	a2,37
   1c158:	00004097          	auipc	ra,0x4
   1c15c:	ac4080e7          	jalr	-1340(ra) # 1fc1c <memcpy>
   1c160:	c019                	beqz	s0,1c166 <_start+0x1410>
   1c162:	1970306f          	j	1faf8 <_start+0x4da2>
   1c166:	00811503          	lh	a0,8(sp)
   1c16a:	00a14583          	lbu	a1,10(sp)
   1c16e:	018a5613          	srli	a2,s4,0x18
   1c172:	010a5693          	srli	a3,s4,0x10
   1c176:	20d108a3          	sb	a3,529(sp)
   1c17a:	20c10923          	sb	a2,530(sp)
   1c17e:	008a5613          	srli	a2,s4,0x8
   1c182:	20a11623          	sh	a0,524(sp)
   1c186:	20b10723          	sb	a1,526(sp)
   1c18a:	214107a3          	sb	s4,527(sp)
   1c18e:	20c10823          	sb	a2,528(sp)
   1c192:	21310513          	addi	a0,sp,531
   1c196:	6585                	lui	a1,0x1
   1c198:	32458593          	addi	a1,a1,804 # 1324 <.Lline_table_start1+0x10f9>
   1c19c:	958a                	add	a1,a1,sp
   1c19e:	02500613          	li	a2,37
   1c1a2:	00004097          	auipc	ra,0x4
   1c1a6:	a7a080e7          	jalr	-1414(ra) # 1fc1c <memcpy>
   1c1aa:	6505                	lui	a0,0x1
   1c1ac:	38050513          	addi	a0,a0,896 # 1380 <.Lline_table_start1+0x1155>
   1c1b0:	950a                	add	a0,a0,sp
   1c1b2:	046c                	addi	a1,sp,524
   1c1b4:	ffff9097          	auipc	ra,0xffff9
   1c1b8:	c2c080e7          	jalr	-980(ra) # 14de0 <_ZN20complex_dynamic_type3app17h67de3ad01a43063aE>
   1c1bc:	3ecac503          	lbu	a0,1004(s5)
   1c1c0:	c501                	beqz	a0,1c1c8 <_start+0x1472>
   1c1c2:	3f0aaa03          	lw	s4,1008(s5)
   1c1c6:	a8b9                	j	1c224 <_start+0x14ce>
   1c1c8:	3edac583          	lbu	a1,1005(s5)
   1c1cc:	3eeac603          	lbu	a2,1006(s5)
   1c1d0:	3efac683          	lbu	a3,1007(s5)
   1c1d4:	3f0aaa03          	lw	s4,1008(s5)
   1c1d8:	3f4aa703          	lw	a4,1012(s5)
   1c1dc:	3f8aa783          	lw	a5,1016(s5)
   1c1e0:	3fcaa483          	lw	s1,1020(s5)
   1c1e4:	400aa403          	lw	s0,1024(s5)
   1c1e8:	0622                	slli	a2,a2,0x8
   1c1ea:	38eaa823          	sw	a4,912(s5)
   1c1ee:	38faaa23          	sw	a5,916(s5)
   1c1f2:	389aac23          	sw	s1,920(s5)
   1c1f6:	388aae23          	sw	s0,924(s5)
   1c1fa:	8dd1                	or	a1,a1,a2
   1c1fc:	00b11423          	sh	a1,8(sp)
   1c200:	00d10523          	sb	a3,10(sp)
   1c204:	404aa583          	lw	a1,1028(s5)
   1c208:	408aa603          	lw	a2,1032(s5)
   1c20c:	40caa683          	lw	a3,1036(s5)
   1c210:	410a9703          	lh	a4,1040(s5)
   1c214:	3abaa023          	sw	a1,928(s5)
   1c218:	3acaa223          	sw	a2,932(s5)
   1c21c:	3adaa423          	sw	a3,936(s5)
   1c220:	3aea9623          	sh	a4,940(s5)
   1c224:	c119                	beqz	a0,1c22a <_start+0x14d4>
   1c226:	0d30306f          	j	1faf8 <_start+0x4da2>
   1c22a:	00811503          	lh	a0,8(sp)
   1c22e:	00a14583          	lbu	a1,10(sp)
   1c232:	018a5613          	srli	a2,s4,0x18
   1c236:	010a5693          	srli	a3,s4,0x10
   1c23a:	22d10ea3          	sb	a3,573(sp)
   1c23e:	22c10f23          	sb	a2,574(sp)
   1c242:	008a5613          	srli	a2,s4,0x8
   1c246:	22a11c23          	sh	a0,568(sp)
   1c24a:	22b10d23          	sb	a1,570(sp)
   1c24e:	23410da3          	sb	s4,571(sp)
   1c252:	22c10e23          	sb	a2,572(sp)
   1c256:	23f10513          	addi	a0,sp,575
   1c25a:	6585                	lui	a1,0x1
   1c25c:	32458593          	addi	a1,a1,804 # 1324 <.Lline_table_start1+0x10f9>
   1c260:	958a                	add	a1,a1,sp
   1c262:	4679                	li	a2,30
   1c264:	00004097          	auipc	ra,0x4
   1c268:	9b8080e7          	jalr	-1608(ra) # 1fc1c <memcpy>
   1c26c:	6505                	lui	a0,0x1
   1c26e:	38050513          	addi	a0,a0,896 # 1380 <.Lline_table_start1+0x1155>
   1c272:	950a                	add	a0,a0,sp
   1c274:	1c2c                	addi	a1,sp,568
   1c276:	ffff9097          	auipc	ra,0xffff9
   1c27a:	638080e7          	jalr	1592(ra) # 158ae <_ZN20complex_dynamic_type3app17h70dd799ccd7bd9b7E>
   1c27e:	3ecac503          	lbu	a0,1004(s5)
   1c282:	c501                	beqz	a0,1c28a <_start+0x1534>
   1c284:	3f0aaa03          	lw	s4,1008(s5)
   1c288:	a099                	j	1c2ce <_start+0x1578>
   1c28a:	3edac583          	lbu	a1,1005(s5)
   1c28e:	3eeac603          	lbu	a2,1006(s5)
   1c292:	3efac683          	lbu	a3,1007(s5)
   1c296:	3f0aaa03          	lw	s4,1008(s5)
   1c29a:	3f4aa703          	lw	a4,1012(s5)
   1c29e:	3f8aa783          	lw	a5,1016(s5)
   1c2a2:	3fcaa483          	lw	s1,1020(s5)
   1c2a6:	400aa403          	lw	s0,1024(s5)
   1c2aa:	38eaa823          	sw	a4,912(s5)
   1c2ae:	38faaa23          	sw	a5,916(s5)
   1c2b2:	389aac23          	sw	s1,920(s5)
   1c2b6:	388aae23          	sw	s0,924(s5)
   1c2ba:	404ac703          	lbu	a4,1028(s5)
   1c2be:	0622                	slli	a2,a2,0x8
   1c2c0:	8dd1                	or	a1,a1,a2
   1c2c2:	00b11423          	sh	a1,8(sp)
   1c2c6:	00d10523          	sb	a3,10(sp)
   1c2ca:	3aea8023          	sb	a4,928(s5)
   1c2ce:	c119                	beqz	a0,1c2d4 <_start+0x157e>
   1c2d0:	0290306f          	j	1faf8 <_start+0x4da2>
   1c2d4:	00811503          	lh	a0,8(sp)
   1c2d8:	00a14583          	lbu	a1,10(sp)
   1c2dc:	018a5613          	srli	a2,s4,0x18
   1c2e0:	010a5693          	srli	a3,s4,0x10
   1c2e4:	26d101a3          	sb	a3,611(sp)
   1c2e8:	26c10223          	sb	a2,612(sp)
   1c2ec:	008a5613          	srli	a2,s4,0x8
   1c2f0:	24a11f23          	sh	a0,606(sp)
   1c2f4:	26b10023          	sb	a1,608(sp)
   1c2f8:	274100a3          	sb	s4,609(sp)
   1c2fc:	26c10123          	sb	a2,610(sp)
   1c300:	26510513          	addi	a0,sp,613
   1c304:	6585                	lui	a1,0x1
   1c306:	32458593          	addi	a1,a1,804 # 1324 <.Lline_table_start1+0x10f9>
   1c30a:	958a                	add	a1,a1,sp
   1c30c:	4645                	li	a2,17
   1c30e:	00004097          	auipc	ra,0x4
   1c312:	90e080e7          	jalr	-1778(ra) # 1fc1c <memcpy>
   1c316:	6505                	lui	a0,0x1
   1c318:	38050513          	addi	a0,a0,896 # 1380 <.Lline_table_start1+0x1155>
   1c31c:	950a                	add	a0,a0,sp
   1c31e:	25e10593          	addi	a1,sp,606
   1c322:	ffffa097          	auipc	ra,0xffffa
   1c326:	68e080e7          	jalr	1678(ra) # 169b0 <_ZN20complex_dynamic_type3app17h862dc8eede2c18dcE>
   1c32a:	3ecac403          	lbu	s0,1004(s5)
   1c32e:	c401                	beqz	s0,1c336 <_start+0x15e0>
   1c330:	3f0aaa03          	lw	s4,1008(s5)
   1c334:	a835                	j	1c370 <_start+0x161a>
   1c336:	3eeac503          	lbu	a0,1006(s5)
   1c33a:	3edac583          	lbu	a1,1005(s5)
   1c33e:	3efac603          	lbu	a2,1007(s5)
   1c342:	3f0aaa03          	lw	s4,1008(s5)
   1c346:	0522                	slli	a0,a0,0x8
   1c348:	8d4d                	or	a0,a0,a1
   1c34a:	00a11423          	sh	a0,8(sp)
   1c34e:	00c10523          	sb	a2,10(sp)
   1c352:	6505                	lui	a0,0x1
   1c354:	38850513          	addi	a0,a0,904 # 1388 <.Lline_table_start1+0x115d>
   1c358:	00a105b3          	add	a1,sp,a0
   1c35c:	6505                	lui	a0,0x1
   1c35e:	32450513          	addi	a0,a0,804 # 1324 <.Lline_table_start1+0x10f9>
   1c362:	950a                	add	a0,a0,sp
   1c364:	02f00613          	li	a2,47
   1c368:	00004097          	auipc	ra,0x4
   1c36c:	8b4080e7          	jalr	-1868(ra) # 1fc1c <memcpy>
   1c370:	c019                	beqz	s0,1c376 <_start+0x1620>
   1c372:	7860306f          	j	1faf8 <_start+0x4da2>
   1c376:	00811503          	lh	a0,8(sp)
   1c37a:	00a14583          	lbu	a1,10(sp)
   1c37e:	018a5613          	srli	a2,s4,0x18
   1c382:	010a5693          	srli	a3,s4,0x10
   1c386:	26d10da3          	sb	a3,635(sp)
   1c38a:	26c10e23          	sb	a2,636(sp)
   1c38e:	008a5613          	srli	a2,s4,0x8
   1c392:	26a11b23          	sh	a0,630(sp)
   1c396:	26b10c23          	sb	a1,632(sp)
   1c39a:	27410ca3          	sb	s4,633(sp)
   1c39e:	26c10d23          	sb	a2,634(sp)
   1c3a2:	27d10513          	addi	a0,sp,637
   1c3a6:	6585                	lui	a1,0x1
   1c3a8:	32458593          	addi	a1,a1,804 # 1324 <.Lline_table_start1+0x10f9>
   1c3ac:	958a                	add	a1,a1,sp
   1c3ae:	02f00613          	li	a2,47
   1c3b2:	00004097          	auipc	ra,0x4
   1c3b6:	86a080e7          	jalr	-1942(ra) # 1fc1c <memcpy>
   1c3ba:	6505                	lui	a0,0x1
   1c3bc:	38050513          	addi	a0,a0,896 # 1380 <.Lline_table_start1+0x1155>
   1c3c0:	950a                	add	a0,a0,sp
   1c3c2:	27610593          	addi	a1,sp,630
   1c3c6:	ffffd097          	auipc	ra,0xffffd
   1c3ca:	10a080e7          	jalr	266(ra) # 194d0 <_ZN20complex_dynamic_type3app17he04e8cd70986542dE>
   1c3ce:	3ecac403          	lbu	s0,1004(s5)
   1c3d2:	c401                	beqz	s0,1c3da <_start+0x1684>
   1c3d4:	3f0aaa03          	lw	s4,1008(s5)
   1c3d8:	a835                	j	1c414 <_start+0x16be>
   1c3da:	3eeac503          	lbu	a0,1006(s5)
   1c3de:	3edac583          	lbu	a1,1005(s5)
   1c3e2:	3efac603          	lbu	a2,1007(s5)
   1c3e6:	3f0aaa03          	lw	s4,1008(s5)
   1c3ea:	0522                	slli	a0,a0,0x8
   1c3ec:	8d4d                	or	a0,a0,a1
   1c3ee:	00a11423          	sh	a0,8(sp)
   1c3f2:	00c10523          	sb	a2,10(sp)
   1c3f6:	6505                	lui	a0,0x1
   1c3f8:	38850513          	addi	a0,a0,904 # 1388 <.Lline_table_start1+0x115d>
   1c3fc:	00a105b3          	add	a1,sp,a0
   1c400:	6505                	lui	a0,0x1
   1c402:	32450513          	addi	a0,a0,804 # 1324 <.Lline_table_start1+0x10f9>
   1c406:	950a                	add	a0,a0,sp
   1c408:	02d00613          	li	a2,45
   1c40c:	00004097          	auipc	ra,0x4
   1c410:	810080e7          	jalr	-2032(ra) # 1fc1c <memcpy>
   1c414:	c019                	beqz	s0,1c41a <_start+0x16c4>
   1c416:	6e20306f          	j	1faf8 <_start+0x4da2>
   1c41a:	00811503          	lh	a0,8(sp)
   1c41e:	00a14583          	lbu	a1,10(sp)
   1c422:	018a5613          	srli	a2,s4,0x18
   1c426:	010a5693          	srli	a3,s4,0x10
   1c42a:	2ad108a3          	sb	a3,689(sp)
   1c42e:	2ac10923          	sb	a2,690(sp)
   1c432:	008a5613          	srli	a2,s4,0x8
   1c436:	2aa11623          	sh	a0,684(sp)
   1c43a:	2ab10723          	sb	a1,686(sp)
   1c43e:	2b4107a3          	sb	s4,687(sp)
   1c442:	2ac10823          	sb	a2,688(sp)
   1c446:	2b310513          	addi	a0,sp,691
   1c44a:	6585                	lui	a1,0x1
   1c44c:	32458593          	addi	a1,a1,804 # 1324 <.Lline_table_start1+0x10f9>
   1c450:	958a                	add	a1,a1,sp
   1c452:	02d00613          	li	a2,45
   1c456:	00003097          	auipc	ra,0x3
   1c45a:	7c6080e7          	jalr	1990(ra) # 1fc1c <memcpy>
   1c45e:	6505                	lui	a0,0x1
   1c460:	38050513          	addi	a0,a0,896 # 1380 <.Lline_table_start1+0x1155>
   1c464:	950a                	add	a0,a0,sp
   1c466:	156c                	addi	a1,sp,684
   1c468:	ffffd097          	auipc	ra,0xffffd
   1c46c:	a50080e7          	jalr	-1456(ra) # 18eb8 <_ZN20complex_dynamic_type3app17hcff9d58412fb6c41E>
   1c470:	3ecac403          	lbu	s0,1004(s5)
   1c474:	c401                	beqz	s0,1c47c <_start+0x1726>
   1c476:	3f0aaa03          	lw	s4,1008(s5)
   1c47a:	a835                	j	1c4b6 <_start+0x1760>
   1c47c:	3eeac503          	lbu	a0,1006(s5)
   1c480:	3edac583          	lbu	a1,1005(s5)
   1c484:	3efac603          	lbu	a2,1007(s5)
   1c488:	3f0aaa03          	lw	s4,1008(s5)
   1c48c:	0522                	slli	a0,a0,0x8
   1c48e:	8d4d                	or	a0,a0,a1
   1c490:	00a11423          	sh	a0,8(sp)
   1c494:	00c10523          	sb	a2,10(sp)
   1c498:	6505                	lui	a0,0x1
   1c49a:	38850513          	addi	a0,a0,904 # 1388 <.Lline_table_start1+0x115d>
   1c49e:	00a105b3          	add	a1,sp,a0
   1c4a2:	6505                	lui	a0,0x1
   1c4a4:	32450513          	addi	a0,a0,804 # 1324 <.Lline_table_start1+0x10f9>
   1c4a8:	950a                	add	a0,a0,sp
   1c4aa:	02700613          	li	a2,39
   1c4ae:	00003097          	auipc	ra,0x3
   1c4b2:	76e080e7          	jalr	1902(ra) # 1fc1c <memcpy>
   1c4b6:	c019                	beqz	s0,1c4bc <_start+0x1766>
   1c4b8:	6400306f          	j	1faf8 <_start+0x4da2>
   1c4bc:	00811503          	lh	a0,8(sp)
   1c4c0:	00a14583          	lbu	a1,10(sp)
   1c4c4:	018a5613          	srli	a2,s4,0x18
   1c4c8:	010a5693          	srli	a3,s4,0x10
   1c4cc:	2ed102a3          	sb	a3,741(sp)
   1c4d0:	2ec10323          	sb	a2,742(sp)
   1c4d4:	008a5613          	srli	a2,s4,0x8
   1c4d8:	2ea11023          	sh	a0,736(sp)
   1c4dc:	2eb10123          	sb	a1,738(sp)
   1c4e0:	2f4101a3          	sb	s4,739(sp)
   1c4e4:	2ec10223          	sb	a2,740(sp)
   1c4e8:	2e710513          	addi	a0,sp,743
   1c4ec:	6585                	lui	a1,0x1
   1c4ee:	32458593          	addi	a1,a1,804 # 1324 <.Lline_table_start1+0x10f9>
   1c4f2:	958a                	add	a1,a1,sp
   1c4f4:	02700613          	li	a2,39
   1c4f8:	00003097          	auipc	ra,0x3
   1c4fc:	724080e7          	jalr	1828(ra) # 1fc1c <memcpy>
   1c500:	6505                	lui	a0,0x1
   1c502:	38050513          	addi	a0,a0,896 # 1380 <.Lline_table_start1+0x1155>
   1c506:	950a                	add	a0,a0,sp
   1c508:	158c                	addi	a1,sp,736
   1c50a:	ffff7097          	auipc	ra,0xffff7
   1c50e:	65a080e7          	jalr	1626(ra) # 13b64 <_ZN20complex_dynamic_type3app17h49f7ca6ee13bd021E>
   1c512:	3ecac403          	lbu	s0,1004(s5)
   1c516:	c401                	beqz	s0,1c51e <_start+0x17c8>
   1c518:	3f0aaa03          	lw	s4,1008(s5)
   1c51c:	a835                	j	1c558 <_start+0x1802>
   1c51e:	3eeac503          	lbu	a0,1006(s5)
   1c522:	3edac583          	lbu	a1,1005(s5)
   1c526:	3efac603          	lbu	a2,1007(s5)
   1c52a:	3f0aaa03          	lw	s4,1008(s5)
   1c52e:	0522                	slli	a0,a0,0x8
   1c530:	8d4d                	or	a0,a0,a1
   1c532:	00a11423          	sh	a0,8(sp)
   1c536:	00c10523          	sb	a2,10(sp)
   1c53a:	6505                	lui	a0,0x1
   1c53c:	38850513          	addi	a0,a0,904 # 1388 <.Lline_table_start1+0x115d>
   1c540:	00a105b3          	add	a1,sp,a0
   1c544:	6505                	lui	a0,0x1
   1c546:	32450513          	addi	a0,a0,804 # 1324 <.Lline_table_start1+0x10f9>
   1c54a:	950a                	add	a0,a0,sp
   1c54c:	03100613          	li	a2,49
   1c550:	00003097          	auipc	ra,0x3
   1c554:	6cc080e7          	jalr	1740(ra) # 1fc1c <memcpy>
   1c558:	c019                	beqz	s0,1c55e <_start+0x1808>
   1c55a:	59e0306f          	j	1faf8 <_start+0x4da2>
   1c55e:	00811503          	lh	a0,8(sp)
   1c562:	00a14583          	lbu	a1,10(sp)
   1c566:	018a5613          	srli	a2,s4,0x18
   1c56a:	010a5693          	srli	a3,s4,0x10
   1c56e:	30d109a3          	sb	a3,787(sp)
   1c572:	30c10a23          	sb	a2,788(sp)
   1c576:	008a5613          	srli	a2,s4,0x8
   1c57a:	30a11723          	sh	a0,782(sp)
   1c57e:	30b10823          	sb	a1,784(sp)
   1c582:	314108a3          	sb	s4,785(sp)
   1c586:	30c10923          	sb	a2,786(sp)
   1c58a:	31510513          	addi	a0,sp,789
   1c58e:	6585                	lui	a1,0x1
   1c590:	32458593          	addi	a1,a1,804 # 1324 <.Lline_table_start1+0x10f9>
   1c594:	958a                	add	a1,a1,sp
   1c596:	03100613          	li	a2,49
   1c59a:	00003097          	auipc	ra,0x3
   1c59e:	682080e7          	jalr	1666(ra) # 1fc1c <memcpy>
   1c5a2:	6505                	lui	a0,0x1
   1c5a4:	38050513          	addi	a0,a0,896 # 1380 <.Lline_table_start1+0x1155>
   1c5a8:	950a                	add	a0,a0,sp
   1c5aa:	30e10593          	addi	a1,sp,782
   1c5ae:	ffff9097          	auipc	ra,0xffff9
   1c5b2:	7aa080e7          	jalr	1962(ra) # 15d58 <_ZN20complex_dynamic_type3app17h774a18fa961c968aE>
   1c5b6:	3ecac403          	lbu	s0,1004(s5)
   1c5ba:	c401                	beqz	s0,1c5c2 <_start+0x186c>
   1c5bc:	3f0aaa03          	lw	s4,1008(s5)
   1c5c0:	a835                	j	1c5fc <_start+0x18a6>
   1c5c2:	3eeac503          	lbu	a0,1006(s5)
   1c5c6:	3edac583          	lbu	a1,1005(s5)
   1c5ca:	3efac603          	lbu	a2,1007(s5)
   1c5ce:	3f0aaa03          	lw	s4,1008(s5)
   1c5d2:	0522                	slli	a0,a0,0x8
   1c5d4:	8d4d                	or	a0,a0,a1
   1c5d6:	00a11423          	sh	a0,8(sp)
   1c5da:	00c10523          	sb	a2,10(sp)
   1c5de:	6505                	lui	a0,0x1
   1c5e0:	38850513          	addi	a0,a0,904 # 1388 <.Lline_table_start1+0x115d>
   1c5e4:	00a105b3          	add	a1,sp,a0
   1c5e8:	6505                	lui	a0,0x1
   1c5ea:	32450513          	addi	a0,a0,804 # 1324 <.Lline_table_start1+0x10f9>
   1c5ee:	950a                	add	a0,a0,sp
   1c5f0:	02d00613          	li	a2,45
   1c5f4:	00003097          	auipc	ra,0x3
   1c5f8:	628080e7          	jalr	1576(ra) # 1fc1c <memcpy>
   1c5fc:	c019                	beqz	s0,1c602 <_start+0x18ac>
   1c5fe:	4fa0306f          	j	1faf8 <_start+0x4da2>
   1c602:	00811503          	lh	a0,8(sp)
   1c606:	00a14583          	lbu	a1,10(sp)
   1c60a:	018a5613          	srli	a2,s4,0x18
   1c60e:	010a5693          	srli	a3,s4,0x10
   1c612:	34d105a3          	sb	a3,843(sp)
   1c616:	34c10623          	sb	a2,844(sp)
   1c61a:	008a5613          	srli	a2,s4,0x8
   1c61e:	34a11323          	sh	a0,838(sp)
   1c622:	34b10423          	sb	a1,840(sp)
   1c626:	354104a3          	sb	s4,841(sp)
   1c62a:	34c10523          	sb	a2,842(sp)
   1c62e:	34d10513          	addi	a0,sp,845
   1c632:	6585                	lui	a1,0x1
   1c634:	32458593          	addi	a1,a1,804 # 1324 <.Lline_table_start1+0x10f9>
   1c638:	958a                	add	a1,a1,sp
   1c63a:	02d00613          	li	a2,45
   1c63e:	00003097          	auipc	ra,0x3
   1c642:	5de080e7          	jalr	1502(ra) # 1fc1c <memcpy>
   1c646:	6505                	lui	a0,0x1
   1c648:	38050513          	addi	a0,a0,896 # 1380 <.Lline_table_start1+0x1155>
   1c64c:	950a                	add	a0,a0,sp
   1c64e:	34610593          	addi	a1,sp,838
   1c652:	ffff7097          	auipc	ra,0xffff7
   1c656:	202080e7          	jalr	514(ra) # 13854 <_ZN20complex_dynamic_type3app17h4901abfe0471fe4eE>
   1c65a:	3ecac503          	lbu	a0,1004(s5)
   1c65e:	c501                	beqz	a0,1c666 <_start+0x1910>
   1c660:	3f0aaa03          	lw	s4,1008(s5)
   1c664:	a0b9                	j	1c6b2 <_start+0x195c>
   1c666:	3edac583          	lbu	a1,1005(s5)
   1c66a:	3eeac603          	lbu	a2,1006(s5)
   1c66e:	3efac683          	lbu	a3,1007(s5)
   1c672:	3f0aaa03          	lw	s4,1008(s5)
   1c676:	3f4aa703          	lw	a4,1012(s5)
   1c67a:	3f8aa783          	lw	a5,1016(s5)
   1c67e:	3fcaa483          	lw	s1,1020(s5)
   1c682:	400aa403          	lw	s0,1024(s5)
   1c686:	0622                	slli	a2,a2,0x8
   1c688:	38eaa823          	sw	a4,912(s5)
   1c68c:	38faaa23          	sw	a5,916(s5)
   1c690:	389aac23          	sw	s1,920(s5)
   1c694:	388aae23          	sw	s0,924(s5)
   1c698:	8dd1                	or	a1,a1,a2
   1c69a:	404a9603          	lh	a2,1028(s5)
   1c69e:	406ac703          	lbu	a4,1030(s5)
   1c6a2:	00b11423          	sh	a1,8(sp)
   1c6a6:	00d10523          	sb	a3,10(sp)
   1c6aa:	3aca9023          	sh	a2,928(s5)
   1c6ae:	3aea8123          	sb	a4,930(s5)
   1c6b2:	c119                	beqz	a0,1c6b8 <_start+0x1962>
   1c6b4:	4440306f          	j	1faf8 <_start+0x4da2>
   1c6b8:	00811503          	lh	a0,8(sp)
   1c6bc:	00a14583          	lbu	a1,10(sp)
   1c6c0:	018a5613          	srli	a2,s4,0x18
   1c6c4:	010a5693          	srli	a3,s4,0x10
   1c6c8:	36d10fa3          	sb	a3,895(sp)
   1c6cc:	38c10023          	sb	a2,896(sp)
   1c6d0:	008a5613          	srli	a2,s4,0x8
   1c6d4:	36a11d23          	sh	a0,890(sp)
   1c6d8:	36b10e23          	sb	a1,892(sp)
   1c6dc:	37410ea3          	sb	s4,893(sp)
   1c6e0:	36c10f23          	sb	a2,894(sp)
   1c6e4:	38110513          	addi	a0,sp,897
   1c6e8:	6585                	lui	a1,0x1
   1c6ea:	32458593          	addi	a1,a1,804 # 1324 <.Lline_table_start1+0x10f9>
   1c6ee:	958a                	add	a1,a1,sp
   1c6f0:	464d                	li	a2,19
   1c6f2:	00003097          	auipc	ra,0x3
   1c6f6:	52a080e7          	jalr	1322(ra) # 1fc1c <memcpy>
   1c6fa:	6505                	lui	a0,0x1
   1c6fc:	38050513          	addi	a0,a0,896 # 1380 <.Lline_table_start1+0x1155>
   1c700:	950a                	add	a0,a0,sp
   1c702:	37a10593          	addi	a1,sp,890
   1c706:	ffffe097          	auipc	ra,0xffffe
   1c70a:	a1a080e7          	jalr	-1510(ra) # 1a120 <_ZN20complex_dynamic_type3app17hef47f8710b177e8eE>
   1c70e:	3ecac403          	lbu	s0,1004(s5)
   1c712:	c401                	beqz	s0,1c71a <_start+0x19c4>
   1c714:	3f0aaa03          	lw	s4,1008(s5)
   1c718:	a835                	j	1c754 <_start+0x19fe>
   1c71a:	3eeac503          	lbu	a0,1006(s5)
   1c71e:	3edac583          	lbu	a1,1005(s5)
   1c722:	3efac603          	lbu	a2,1007(s5)
   1c726:	3f0aaa03          	lw	s4,1008(s5)
   1c72a:	0522                	slli	a0,a0,0x8
   1c72c:	8d4d                	or	a0,a0,a1
   1c72e:	00a11423          	sh	a0,8(sp)
   1c732:	00c10523          	sb	a2,10(sp)
   1c736:	6505                	lui	a0,0x1
   1c738:	38850513          	addi	a0,a0,904 # 1388 <.Lline_table_start1+0x115d>
   1c73c:	00a105b3          	add	a1,sp,a0
   1c740:	6505                	lui	a0,0x1
   1c742:	32450513          	addi	a0,a0,804 # 1324 <.Lline_table_start1+0x10f9>
   1c746:	950a                	add	a0,a0,sp
   1c748:	04900613          	li	a2,73
   1c74c:	00003097          	auipc	ra,0x3
   1c750:	4d0080e7          	jalr	1232(ra) # 1fc1c <memcpy>
   1c754:	c019                	beqz	s0,1c75a <_start+0x1a04>
   1c756:	3a20306f          	j	1faf8 <_start+0x4da2>
   1c75a:	00811503          	lh	a0,8(sp)
   1c75e:	00a14583          	lbu	a1,10(sp)
   1c762:	018a5613          	srli	a2,s4,0x18
   1c766:	010a5693          	srli	a3,s4,0x10
   1c76a:	38d10ca3          	sb	a3,921(sp)
   1c76e:	38c10d23          	sb	a2,922(sp)
   1c772:	008a5613          	srli	a2,s4,0x8
   1c776:	38a11a23          	sh	a0,916(sp)
   1c77a:	38b10b23          	sb	a1,918(sp)
   1c77e:	39410ba3          	sb	s4,919(sp)
   1c782:	38c10c23          	sb	a2,920(sp)
   1c786:	39b10513          	addi	a0,sp,923
   1c78a:	6585                	lui	a1,0x1
   1c78c:	32458593          	addi	a1,a1,804 # 1324 <.Lline_table_start1+0x10f9>
   1c790:	958a                	add	a1,a1,sp
   1c792:	04900613          	li	a2,73
   1c796:	00003097          	auipc	ra,0x3
   1c79a:	486080e7          	jalr	1158(ra) # 1fc1c <memcpy>
   1c79e:	6505                	lui	a0,0x1
   1c7a0:	38050513          	addi	a0,a0,896 # 1380 <.Lline_table_start1+0x1155>
   1c7a4:	950a                	add	a0,a0,sp
   1c7a6:	0f4c                	addi	a1,sp,916
   1c7a8:	ffff6097          	auipc	ra,0xffff6
   1c7ac:	776080e7          	jalr	1910(ra) # 12f1e <_ZN20complex_dynamic_type3app17h34d421da248e70b9E>
   1c7b0:	3ecac403          	lbu	s0,1004(s5)
   1c7b4:	c401                	beqz	s0,1c7bc <_start+0x1a66>
   1c7b6:	3f0aaa03          	lw	s4,1008(s5)
   1c7ba:	a835                	j	1c7f6 <_start+0x1aa0>
   1c7bc:	3eeac503          	lbu	a0,1006(s5)
   1c7c0:	3edac583          	lbu	a1,1005(s5)
   1c7c4:	3efac603          	lbu	a2,1007(s5)
   1c7c8:	3f0aaa03          	lw	s4,1008(s5)
   1c7cc:	0522                	slli	a0,a0,0x8
   1c7ce:	8d4d                	or	a0,a0,a1
   1c7d0:	00a11423          	sh	a0,8(sp)
   1c7d4:	00c10523          	sb	a2,10(sp)
   1c7d8:	6505                	lui	a0,0x1
   1c7da:	38850513          	addi	a0,a0,904 # 1388 <.Lline_table_start1+0x115d>
   1c7de:	00a105b3          	add	a1,sp,a0
   1c7e2:	6505                	lui	a0,0x1
   1c7e4:	32450513          	addi	a0,a0,804 # 1324 <.Lline_table_start1+0x10f9>
   1c7e8:	950a                	add	a0,a0,sp
   1c7ea:	03500613          	li	a2,53
   1c7ee:	00003097          	auipc	ra,0x3
   1c7f2:	42e080e7          	jalr	1070(ra) # 1fc1c <memcpy>
   1c7f6:	c019                	beqz	s0,1c7fc <_start+0x1aa6>
   1c7f8:	3000306f          	j	1faf8 <_start+0x4da2>
   1c7fc:	00811503          	lh	a0,8(sp)
   1c800:	00a14583          	lbu	a1,10(sp)
   1c804:	018a5613          	srli	a2,s4,0x18
   1c808:	010a5693          	srli	a3,s4,0x10
   1c80c:	3ed104a3          	sb	a3,1001(sp)
   1c810:	3ec10523          	sb	a2,1002(sp)
   1c814:	008a5613          	srli	a2,s4,0x8
   1c818:	3ea11223          	sh	a0,996(sp)
   1c81c:	3eb10323          	sb	a1,998(sp)
   1c820:	3f4103a3          	sb	s4,999(sp)
   1c824:	3ec10423          	sb	a2,1000(sp)
   1c828:	3eb10513          	addi	a0,sp,1003
   1c82c:	6585                	lui	a1,0x1
   1c82e:	32458593          	addi	a1,a1,804 # 1324 <.Lline_table_start1+0x10f9>
   1c832:	958a                	add	a1,a1,sp
   1c834:	03500613          	li	a2,53
   1c838:	00003097          	auipc	ra,0x3
   1c83c:	3e4080e7          	jalr	996(ra) # 1fc1c <memcpy>
   1c840:	6505                	lui	a0,0x1
   1c842:	38050513          	addi	a0,a0,896 # 1380 <.Lline_table_start1+0x1155>
   1c846:	950a                	add	a0,a0,sp
   1c848:	17cc                	addi	a1,sp,996
   1c84a:	ffff6097          	auipc	ra,0xffff6
   1c84e:	8f2080e7          	jalr	-1806(ra) # 1213c <_ZN20complex_dynamic_type3app17h122f120480140dcaE>
   1c852:	3ecac403          	lbu	s0,1004(s5)
   1c856:	c401                	beqz	s0,1c85e <_start+0x1b08>
   1c858:	3f0aaa03          	lw	s4,1008(s5)
   1c85c:	a835                	j	1c898 <_start+0x1b42>
   1c85e:	3eeac503          	lbu	a0,1006(s5)
   1c862:	3edac583          	lbu	a1,1005(s5)
   1c866:	3efac603          	lbu	a2,1007(s5)
   1c86a:	3f0aaa03          	lw	s4,1008(s5)
   1c86e:	0522                	slli	a0,a0,0x8
   1c870:	8d4d                	or	a0,a0,a1
   1c872:	00a11423          	sh	a0,8(sp)
   1c876:	00c10523          	sb	a2,10(sp)
   1c87a:	6505                	lui	a0,0x1
   1c87c:	38850513          	addi	a0,a0,904 # 1388 <.Lline_table_start1+0x115d>
   1c880:	00a105b3          	add	a1,sp,a0
   1c884:	6505                	lui	a0,0x1
   1c886:	32450513          	addi	a0,a0,804 # 1324 <.Lline_table_start1+0x10f9>
   1c88a:	950a                	add	a0,a0,sp
   1c88c:	02b00613          	li	a2,43
   1c890:	00003097          	auipc	ra,0x3
   1c894:	38c080e7          	jalr	908(ra) # 1fc1c <memcpy>
   1c898:	c019                	beqz	s0,1c89e <_start+0x1b48>
   1c89a:	25e0306f          	j	1faf8 <_start+0x4da2>
   1c89e:	00811503          	lh	a0,8(sp)
   1c8a2:	00a14583          	lbu	a1,10(sp)
   1c8a6:	018a5613          	srli	a2,s4,0x18
   1c8aa:	010a5693          	srli	a3,s4,0x10
   1c8ae:	42d102a3          	sb	a3,1061(sp)
   1c8b2:	42c10323          	sb	a2,1062(sp)
   1c8b6:	008a5613          	srli	a2,s4,0x8
   1c8ba:	42a11023          	sh	a0,1056(sp)
   1c8be:	42b10123          	sb	a1,1058(sp)
   1c8c2:	434101a3          	sb	s4,1059(sp)
   1c8c6:	42c10223          	sb	a2,1060(sp)
   1c8ca:	42710513          	addi	a0,sp,1063
   1c8ce:	6585                	lui	a1,0x1
   1c8d0:	32458593          	addi	a1,a1,804 # 1324 <.Lline_table_start1+0x10f9>
   1c8d4:	958a                	add	a1,a1,sp
   1c8d6:	02b00613          	li	a2,43
   1c8da:	00003097          	auipc	ra,0x3
   1c8de:	342080e7          	jalr	834(ra) # 1fc1c <memcpy>
   1c8e2:	6505                	lui	a0,0x1
   1c8e4:	38050513          	addi	a0,a0,896 # 1380 <.Lline_table_start1+0x1155>
   1c8e8:	950a                	add	a0,a0,sp
   1c8ea:	42010593          	addi	a1,sp,1056
   1c8ee:	ffffb097          	auipc	ra,0xffffb
   1c8f2:	4ba080e7          	jalr	1210(ra) # 17da8 <_ZN20complex_dynamic_type3app17ha8ae1c2dd0c6405dE>
   1c8f6:	3ecac403          	lbu	s0,1004(s5)
   1c8fa:	c401                	beqz	s0,1c902 <_start+0x1bac>
   1c8fc:	3f0aaa03          	lw	s4,1008(s5)
   1c900:	a835                	j	1c93c <_start+0x1be6>
   1c902:	3eeac503          	lbu	a0,1006(s5)
   1c906:	3edac583          	lbu	a1,1005(s5)
   1c90a:	3efac603          	lbu	a2,1007(s5)
   1c90e:	3f0aaa03          	lw	s4,1008(s5)
   1c912:	0522                	slli	a0,a0,0x8
   1c914:	8d4d                	or	a0,a0,a1
   1c916:	00a11423          	sh	a0,8(sp)
   1c91a:	00c10523          	sb	a2,10(sp)
   1c91e:	6505                	lui	a0,0x1
   1c920:	38850513          	addi	a0,a0,904 # 1388 <.Lline_table_start1+0x115d>
   1c924:	00a105b3          	add	a1,sp,a0
   1c928:	6505                	lui	a0,0x1
   1c92a:	32450513          	addi	a0,a0,804 # 1324 <.Lline_table_start1+0x10f9>
   1c92e:	950a                	add	a0,a0,sp
   1c930:	02b00613          	li	a2,43
   1c934:	00003097          	auipc	ra,0x3
   1c938:	2e8080e7          	jalr	744(ra) # 1fc1c <memcpy>
   1c93c:	c019                	beqz	s0,1c942 <_start+0x1bec>
   1c93e:	1ba0306f          	j	1faf8 <_start+0x4da2>
   1c942:	00811503          	lh	a0,8(sp)
   1c946:	00a14583          	lbu	a1,10(sp)
   1c94a:	018a5613          	srli	a2,s4,0x18
   1c94e:	010a5693          	srli	a3,s4,0x10
   1c952:	44d10ba3          	sb	a3,1111(sp)
   1c956:	44c10c23          	sb	a2,1112(sp)
   1c95a:	008a5613          	srli	a2,s4,0x8
   1c95e:	44a11923          	sh	a0,1106(sp)
   1c962:	44b10a23          	sb	a1,1108(sp)
   1c966:	45410aa3          	sb	s4,1109(sp)
   1c96a:	44c10b23          	sb	a2,1110(sp)
   1c96e:	45910513          	addi	a0,sp,1113
   1c972:	6585                	lui	a1,0x1
   1c974:	32458593          	addi	a1,a1,804 # 1324 <.Lline_table_start1+0x10f9>
   1c978:	958a                	add	a1,a1,sp
   1c97a:	02b00613          	li	a2,43
   1c97e:	00003097          	auipc	ra,0x3
   1c982:	29e080e7          	jalr	670(ra) # 1fc1c <memcpy>
   1c986:	6505                	lui	a0,0x1
   1c988:	38050513          	addi	a0,a0,896 # 1380 <.Lline_table_start1+0x1155>
   1c98c:	950a                	add	a0,a0,sp
   1c98e:	45210593          	addi	a1,sp,1106
   1c992:	ffffb097          	auipc	ra,0xffffb
   1c996:	934080e7          	jalr	-1740(ra) # 172c6 <_ZN20complex_dynamic_type3app17h98cc6d739ac25ba1E>
   1c99a:	3ecac503          	lbu	a0,1004(s5)
   1c99e:	c501                	beqz	a0,1c9a6 <_start+0x1c50>
   1c9a0:	3f0aaa03          	lw	s4,1008(s5)
   1c9a4:	a81d                	j	1c9da <_start+0x1c84>
   1c9a6:	3eeac583          	lbu	a1,1006(s5)
   1c9aa:	3edac603          	lbu	a2,1005(s5)
   1c9ae:	3efac683          	lbu	a3,1007(s5)
   1c9b2:	3f0aaa03          	lw	s4,1008(s5)
   1c9b6:	05a2                	slli	a1,a1,0x8
   1c9b8:	8dd1                	or	a1,a1,a2
   1c9ba:	3f4aa603          	lw	a2,1012(s5)
   1c9be:	3f8aa703          	lw	a4,1016(s5)
   1c9c2:	3fcac783          	lbu	a5,1020(s5)
   1c9c6:	00b11423          	sh	a1,8(sp)
   1c9ca:	00d10523          	sb	a3,10(sp)
   1c9ce:	38caa823          	sw	a2,912(s5)
   1c9d2:	38eaaa23          	sw	a4,916(s5)
   1c9d6:	38fa8c23          	sb	a5,920(s5)
   1c9da:	c119                	beqz	a0,1c9e0 <_start+0x1c8a>
   1c9dc:	11c0306f          	j	1faf8 <_start+0x4da2>
   1c9e0:	00811503          	lh	a0,8(sp)
   1c9e4:	00a14583          	lbu	a1,10(sp)
   1c9e8:	018a5613          	srli	a2,s4,0x18
   1c9ec:	010a5693          	srli	a3,s4,0x10
   1c9f0:	48d104a3          	sb	a3,1161(sp)
   1c9f4:	48c10523          	sb	a2,1162(sp)
   1c9f8:	008a5613          	srli	a2,s4,0x8
   1c9fc:	48a11223          	sh	a0,1156(sp)
   1ca00:	48b10323          	sb	a1,1158(sp)
   1ca04:	494103a3          	sb	s4,1159(sp)
   1ca08:	48c10423          	sb	a2,1160(sp)
   1ca0c:	48b10513          	addi	a0,sp,1163
   1ca10:	6585                	lui	a1,0x1
   1ca12:	32458593          	addi	a1,a1,804 # 1324 <.Lline_table_start1+0x10f9>
   1ca16:	958a                	add	a1,a1,sp
   1ca18:	4625                	li	a2,9
   1ca1a:	00003097          	auipc	ra,0x3
   1ca1e:	202080e7          	jalr	514(ra) # 1fc1c <memcpy>
   1ca22:	6505                	lui	a0,0x1
   1ca24:	38050513          	addi	a0,a0,896 # 1380 <.Lline_table_start1+0x1155>
   1ca28:	950a                	add	a0,a0,sp
   1ca2a:	48410593          	addi	a1,sp,1156
   1ca2e:	ffff5097          	auipc	ra,0xffff5
   1ca32:	580080e7          	jalr	1408(ra) # 11fae <_ZN20complex_dynamic_type3app17h0f2eea568d01b0ccE>
   1ca36:	3ecac403          	lbu	s0,1004(s5)
   1ca3a:	c401                	beqz	s0,1ca42 <_start+0x1cec>
   1ca3c:	3f0aaa03          	lw	s4,1008(s5)
   1ca40:	a835                	j	1ca7c <_start+0x1d26>
   1ca42:	3eeac503          	lbu	a0,1006(s5)
   1ca46:	3edac583          	lbu	a1,1005(s5)
   1ca4a:	3efac603          	lbu	a2,1007(s5)
   1ca4e:	3f0aaa03          	lw	s4,1008(s5)
   1ca52:	0522                	slli	a0,a0,0x8
   1ca54:	8d4d                	or	a0,a0,a1
   1ca56:	00a11423          	sh	a0,8(sp)
   1ca5a:	00c10523          	sb	a2,10(sp)
   1ca5e:	6505                	lui	a0,0x1
   1ca60:	38850513          	addi	a0,a0,904 # 1388 <.Lline_table_start1+0x115d>
   1ca64:	00a105b3          	add	a1,sp,a0
   1ca68:	6505                	lui	a0,0x1
   1ca6a:	32450513          	addi	a0,a0,804 # 1324 <.Lline_table_start1+0x10f9>
   1ca6e:	950a                	add	a0,a0,sp
   1ca70:	02f00613          	li	a2,47
   1ca74:	00003097          	auipc	ra,0x3
   1ca78:	1a8080e7          	jalr	424(ra) # 1fc1c <memcpy>
   1ca7c:	c019                	beqz	s0,1ca82 <_start+0x1d2c>
   1ca7e:	07a0306f          	j	1faf8 <_start+0x4da2>
   1ca82:	00811503          	lh	a0,8(sp)
   1ca86:	00a14583          	lbu	a1,10(sp)
   1ca8a:	018a5613          	srli	a2,s4,0x18
   1ca8e:	010a5693          	srli	a3,s4,0x10
   1ca92:	48d10ca3          	sb	a3,1177(sp)
   1ca96:	48c10d23          	sb	a2,1178(sp)
   1ca9a:	008a5613          	srli	a2,s4,0x8
   1ca9e:	48a11a23          	sh	a0,1172(sp)
   1caa2:	48b10b23          	sb	a1,1174(sp)
   1caa6:	49410ba3          	sb	s4,1175(sp)
   1caaa:	48c10c23          	sb	a2,1176(sp)
   1caae:	49b10513          	addi	a0,sp,1179
   1cab2:	6585                	lui	a1,0x1
   1cab4:	32458593          	addi	a1,a1,804 # 1324 <.Lline_table_start1+0x10f9>
   1cab8:	958a                	add	a1,a1,sp
   1caba:	02f00613          	li	a2,47
   1cabe:	00003097          	auipc	ra,0x3
   1cac2:	15e080e7          	jalr	350(ra) # 1fc1c <memcpy>
   1cac6:	6505                	lui	a0,0x1
   1cac8:	38050513          	addi	a0,a0,896 # 1380 <.Lline_table_start1+0x1155>
   1cacc:	950a                	add	a0,a0,sp
   1cace:	49410593          	addi	a1,sp,1172
   1cad2:	ffffe097          	auipc	ra,0xffffe
   1cad6:	dfe080e7          	jalr	-514(ra) # 1a8d0 <_ZN20complex_dynamic_type3app17hfc3cd98966d6cb49E>
   1cada:	3ecac603          	lbu	a2,1004(s5)
   1cade:	c601                	beqz	a2,1cae6 <_start+0x1d90>
   1cae0:	3f0aaa03          	lw	s4,1008(s5)
   1cae4:	a01d                	j	1cb0a <_start+0x1db4>
   1cae6:	3edac683          	lbu	a3,1005(s5)
   1caea:	3eeac703          	lbu	a4,1006(s5)
   1caee:	3efac783          	lbu	a5,1007(s5)
   1caf2:	3f0aaa03          	lw	s4,1008(s5)
   1caf6:	3f4aa583          	lw	a1,1012(s5)
   1cafa:	3f8aa503          	lw	a0,1016(s5)
   1cafe:	0722                	slli	a4,a4,0x8
   1cb00:	8ed9                	or	a3,a3,a4
   1cb02:	38da9823          	sh	a3,912(s5)
   1cb06:	38fa8923          	sb	a5,914(s5)
   1cb0a:	c219                	beqz	a2,1cb10 <_start+0x1dba>
   1cb0c:	7ed0206f          	j	1faf8 <_start+0x4da2>
   1cb10:	390a9803          	lh	a6,912(s5)
   1cb14:	392ac683          	lbu	a3,914(s5)
   1cb18:	018a5713          	srli	a4,s4,0x18
   1cb1c:	010a5793          	srli	a5,s4,0x10
   1cb20:	008a5493          	srli	s1,s4,0x8
   1cb24:	0085d413          	srli	s0,a1,0x8
   1cb28:	01855613          	srli	a2,a0,0x18
   1cb2c:	4cf107a3          	sb	a5,1231(sp)
   1cb30:	4ce10823          	sb	a4,1232(sp)
   1cb34:	4cb108a3          	sb	a1,1233(sp)
   1cb38:	4c810923          	sb	s0,1234(sp)
   1cb3c:	01055713          	srli	a4,a0,0x10
   1cb40:	4ce10ba3          	sb	a4,1239(sp)
   1cb44:	4cc10c23          	sb	a2,1240(sp)
   1cb48:	0185d613          	srli	a2,a1,0x18
   1cb4c:	81c1                	srli	a1,a1,0x10
   1cb4e:	4d011523          	sh	a6,1226(sp)
   1cb52:	4cd10623          	sb	a3,1228(sp)
   1cb56:	4d4106a3          	sb	s4,1229(sp)
   1cb5a:	4c910723          	sb	s1,1230(sp)
   1cb5e:	00855693          	srli	a3,a0,0x8
   1cb62:	4cb109a3          	sb	a1,1235(sp)
   1cb66:	4cc10a23          	sb	a2,1236(sp)
   1cb6a:	4ca10aa3          	sb	a0,1237(sp)
   1cb6e:	4cd10b23          	sb	a3,1238(sp)
   1cb72:	6505                	lui	a0,0x1
   1cb74:	38050513          	addi	a0,a0,896 # 1380 <.Lline_table_start1+0x1155>
   1cb78:	950a                	add	a0,a0,sp
   1cb7a:	4ca10593          	addi	a1,sp,1226
   1cb7e:	ffff7097          	auipc	ra,0xffff7
   1cb82:	2e4080e7          	jalr	740(ra) # 13e62 <_ZN20complex_dynamic_type3app17h4dbd0f1f207487eaE>
   1cb86:	3ecac503          	lbu	a0,1004(s5)
   1cb8a:	c501                	beqz	a0,1cb92 <_start+0x1e3c>
   1cb8c:	3f0aaa03          	lw	s4,1008(s5)
   1cb90:	a81d                	j	1cbc6 <_start+0x1e70>
   1cb92:	3eeac583          	lbu	a1,1006(s5)
   1cb96:	3edac603          	lbu	a2,1005(s5)
   1cb9a:	3efac683          	lbu	a3,1007(s5)
   1cb9e:	3f0aaa03          	lw	s4,1008(s5)
   1cba2:	05a2                	slli	a1,a1,0x8
   1cba4:	8dd1                	or	a1,a1,a2
   1cba6:	3f4aa603          	lw	a2,1012(s5)
   1cbaa:	3f8aa703          	lw	a4,1016(s5)
   1cbae:	3fcaa783          	lw	a5,1020(s5)
   1cbb2:	00b11423          	sh	a1,8(sp)
   1cbb6:	00d10523          	sb	a3,10(sp)
   1cbba:	38caa823          	sw	a2,912(s5)
   1cbbe:	38eaaa23          	sw	a4,916(s5)
   1cbc2:	38faac23          	sw	a5,920(s5)
   1cbc6:	c119                	beqz	a0,1cbcc <_start+0x1e76>
   1cbc8:	7310206f          	j	1faf8 <_start+0x4da2>
   1cbcc:	00811503          	lh	a0,8(sp)
   1cbd0:	00a14583          	lbu	a1,10(sp)
   1cbd4:	018a5613          	srli	a2,s4,0x18
   1cbd8:	010a5693          	srli	a3,s4,0x10
   1cbdc:	4cd10fa3          	sb	a3,1247(sp)
   1cbe0:	4ec10023          	sb	a2,1248(sp)
   1cbe4:	008a5613          	srli	a2,s4,0x8
   1cbe8:	4ca11d23          	sh	a0,1242(sp)
   1cbec:	4cb10e23          	sb	a1,1244(sp)
   1cbf0:	4d410ea3          	sb	s4,1245(sp)
   1cbf4:	4cc10f23          	sb	a2,1246(sp)
   1cbf8:	4e110513          	addi	a0,sp,1249
   1cbfc:	6585                	lui	a1,0x1
   1cbfe:	32458593          	addi	a1,a1,804 # 1324 <.Lline_table_start1+0x10f9>
   1cc02:	958a                	add	a1,a1,sp
   1cc04:	4631                	li	a2,12
   1cc06:	00003097          	auipc	ra,0x3
   1cc0a:	016080e7          	jalr	22(ra) # 1fc1c <memcpy>
   1cc0e:	6505                	lui	a0,0x1
   1cc10:	38050513          	addi	a0,a0,896 # 1380 <.Lline_table_start1+0x1155>
   1cc14:	950a                	add	a0,a0,sp
   1cc16:	4da10593          	addi	a1,sp,1242
   1cc1a:	ffffc097          	auipc	ra,0xffffc
   1cc1e:	73a080e7          	jalr	1850(ra) # 19354 <_ZN20complex_dynamic_type3app17hde5321f5d6d8d477E>
   1cc22:	3ecac403          	lbu	s0,1004(s5)
   1cc26:	c401                	beqz	s0,1cc2e <_start+0x1ed8>
   1cc28:	3f0aaa03          	lw	s4,1008(s5)
   1cc2c:	a835                	j	1cc68 <_start+0x1f12>
   1cc2e:	3eeac503          	lbu	a0,1006(s5)
   1cc32:	3edac583          	lbu	a1,1005(s5)
   1cc36:	3efac603          	lbu	a2,1007(s5)
   1cc3a:	3f0aaa03          	lw	s4,1008(s5)
   1cc3e:	0522                	slli	a0,a0,0x8
   1cc40:	8d4d                	or	a0,a0,a1
   1cc42:	00a11423          	sh	a0,8(sp)
   1cc46:	00c10523          	sb	a2,10(sp)
   1cc4a:	6505                	lui	a0,0x1
   1cc4c:	38850513          	addi	a0,a0,904 # 1388 <.Lline_table_start1+0x115d>
   1cc50:	00a105b3          	add	a1,sp,a0
   1cc54:	6505                	lui	a0,0x1
   1cc56:	32450513          	addi	a0,a0,804 # 1324 <.Lline_table_start1+0x10f9>
   1cc5a:	950a                	add	a0,a0,sp
   1cc5c:	04e00613          	li	a2,78
   1cc60:	00003097          	auipc	ra,0x3
   1cc64:	fbc080e7          	jalr	-68(ra) # 1fc1c <memcpy>
   1cc68:	c019                	beqz	s0,1cc6e <_start+0x1f18>
   1cc6a:	68f0206f          	j	1faf8 <_start+0x4da2>
   1cc6e:	00811503          	lh	a0,8(sp)
   1cc72:	00a14583          	lbu	a1,10(sp)
   1cc76:	018a5613          	srli	a2,s4,0x18
   1cc7a:	010a5693          	srli	a3,s4,0x10
   1cc7e:	4ed109a3          	sb	a3,1267(sp)
   1cc82:	4ec10a23          	sb	a2,1268(sp)
   1cc86:	008a5613          	srli	a2,s4,0x8
   1cc8a:	4ea11723          	sh	a0,1262(sp)
   1cc8e:	4eb10823          	sb	a1,1264(sp)
   1cc92:	4f4108a3          	sb	s4,1265(sp)
   1cc96:	4ec10923          	sb	a2,1266(sp)
   1cc9a:	4f510513          	addi	a0,sp,1269
   1cc9e:	6585                	lui	a1,0x1
   1cca0:	32458593          	addi	a1,a1,804 # 1324 <.Lline_table_start1+0x10f9>
   1cca4:	958a                	add	a1,a1,sp
   1cca6:	04e00613          	li	a2,78
   1ccaa:	00003097          	auipc	ra,0x3
   1ccae:	f72080e7          	jalr	-142(ra) # 1fc1c <memcpy>
   1ccb2:	6505                	lui	a0,0x1
   1ccb4:	38050513          	addi	a0,a0,896 # 1380 <.Lline_table_start1+0x1155>
   1ccb8:	950a                	add	a0,a0,sp
   1ccba:	4ee10593          	addi	a1,sp,1262
   1ccbe:	ffff8097          	auipc	ra,0xffff8
   1ccc2:	2a2080e7          	jalr	674(ra) # 14f60 <_ZN20complex_dynamic_type3app17h67fac538334e5766E>
   1ccc6:	3ecac403          	lbu	s0,1004(s5)
   1ccca:	c401                	beqz	s0,1ccd2 <_start+0x1f7c>
   1cccc:	3f0aaa03          	lw	s4,1008(s5)
   1ccd0:	a835                	j	1cd0c <_start+0x1fb6>
   1ccd2:	3eeac503          	lbu	a0,1006(s5)
   1ccd6:	3edac583          	lbu	a1,1005(s5)
   1ccda:	3efac603          	lbu	a2,1007(s5)
   1ccde:	3f0aaa03          	lw	s4,1008(s5)
   1cce2:	0522                	slli	a0,a0,0x8
   1cce4:	8d4d                	or	a0,a0,a1
   1cce6:	00a11423          	sh	a0,8(sp)
   1ccea:	00c10523          	sb	a2,10(sp)
   1ccee:	6505                	lui	a0,0x1
   1ccf0:	38850513          	addi	a0,a0,904 # 1388 <.Lline_table_start1+0x115d>
   1ccf4:	00a105b3          	add	a1,sp,a0
   1ccf8:	6505                	lui	a0,0x1
   1ccfa:	32450513          	addi	a0,a0,804 # 1324 <.Lline_table_start1+0x10f9>
   1ccfe:	950a                	add	a0,a0,sp
   1cd00:	02b00613          	li	a2,43
   1cd04:	00003097          	auipc	ra,0x3
   1cd08:	f18080e7          	jalr	-232(ra) # 1fc1c <memcpy>
   1cd0c:	c019                	beqz	s0,1cd12 <_start+0x1fbc>
   1cd0e:	5eb0206f          	j	1faf8 <_start+0x4da2>
   1cd12:	00811503          	lh	a0,8(sp)
   1cd16:	00a14583          	lbu	a1,10(sp)
   1cd1a:	018a5613          	srli	a2,s4,0x18
   1cd1e:	010a5693          	srli	a3,s4,0x10
   1cd22:	54d104a3          	sb	a3,1353(sp)
   1cd26:	54c10523          	sb	a2,1354(sp)
   1cd2a:	008a5613          	srli	a2,s4,0x8
   1cd2e:	54a11223          	sh	a0,1348(sp)
   1cd32:	54b10323          	sb	a1,1350(sp)
   1cd36:	554103a3          	sb	s4,1351(sp)
   1cd3a:	54c10423          	sb	a2,1352(sp)
   1cd3e:	54b10513          	addi	a0,sp,1355
   1cd42:	6585                	lui	a1,0x1
   1cd44:	32458593          	addi	a1,a1,804 # 1324 <.Lline_table_start1+0x10f9>
   1cd48:	958a                	add	a1,a1,sp
   1cd4a:	02b00613          	li	a2,43
   1cd4e:	00003097          	auipc	ra,0x3
   1cd52:	ece080e7          	jalr	-306(ra) # 1fc1c <memcpy>
   1cd56:	6505                	lui	a0,0x1
   1cd58:	38050513          	addi	a0,a0,896 # 1380 <.Lline_table_start1+0x1155>
   1cd5c:	950a                	add	a0,a0,sp
   1cd5e:	54410593          	addi	a1,sp,1348
   1cd62:	ffff5097          	auipc	ra,0xffff5
   1cd66:	6f6080e7          	jalr	1782(ra) # 12458 <_ZN20complex_dynamic_type3app17h17256c19f532f10aE>
   1cd6a:	3ecac403          	lbu	s0,1004(s5)
   1cd6e:	c401                	beqz	s0,1cd76 <_start+0x2020>
   1cd70:	3f0aaa03          	lw	s4,1008(s5)
   1cd74:	a835                	j	1cdb0 <_start+0x205a>
   1cd76:	3eeac503          	lbu	a0,1006(s5)
   1cd7a:	3edac583          	lbu	a1,1005(s5)
   1cd7e:	3efac603          	lbu	a2,1007(s5)
   1cd82:	3f0aaa03          	lw	s4,1008(s5)
   1cd86:	0522                	slli	a0,a0,0x8
   1cd88:	8d4d                	or	a0,a0,a1
   1cd8a:	00a11423          	sh	a0,8(sp)
   1cd8e:	00c10523          	sb	a2,10(sp)
   1cd92:	6505                	lui	a0,0x1
   1cd94:	38850513          	addi	a0,a0,904 # 1388 <.Lline_table_start1+0x115d>
   1cd98:	00a105b3          	add	a1,sp,a0
   1cd9c:	6505                	lui	a0,0x1
   1cd9e:	32450513          	addi	a0,a0,804 # 1324 <.Lline_table_start1+0x10f9>
   1cda2:	950a                	add	a0,a0,sp
   1cda4:	03a00613          	li	a2,58
   1cda8:	00003097          	auipc	ra,0x3
   1cdac:	e74080e7          	jalr	-396(ra) # 1fc1c <memcpy>
   1cdb0:	c019                	beqz	s0,1cdb6 <_start+0x2060>
   1cdb2:	5470206f          	j	1faf8 <_start+0x4da2>
   1cdb6:	00811503          	lh	a0,8(sp)
   1cdba:	00a14583          	lbu	a1,10(sp)
   1cdbe:	018a5613          	srli	a2,s4,0x18
   1cdc2:	010a5693          	srli	a3,s4,0x10
   1cdc6:	56d10da3          	sb	a3,1403(sp)
   1cdca:	56c10e23          	sb	a2,1404(sp)
   1cdce:	008a5613          	srli	a2,s4,0x8
   1cdd2:	56a11b23          	sh	a0,1398(sp)
   1cdd6:	56b10c23          	sb	a1,1400(sp)
   1cdda:	57410ca3          	sb	s4,1401(sp)
   1cdde:	56c10d23          	sb	a2,1402(sp)
   1cde2:	57d10513          	addi	a0,sp,1405
   1cde6:	6585                	lui	a1,0x1
   1cde8:	32458593          	addi	a1,a1,804 # 1324 <.Lline_table_start1+0x10f9>
   1cdec:	958a                	add	a1,a1,sp
   1cdee:	03a00613          	li	a2,58
   1cdf2:	00003097          	auipc	ra,0x3
   1cdf6:	e2a080e7          	jalr	-470(ra) # 1fc1c <memcpy>
   1cdfa:	6505                	lui	a0,0x1
   1cdfc:	38050513          	addi	a0,a0,896 # 1380 <.Lline_table_start1+0x1155>
   1ce00:	950a                	add	a0,a0,sp
   1ce02:	57610593          	addi	a1,sp,1398
   1ce06:	ffff6097          	auipc	ra,0xffff6
   1ce0a:	f88080e7          	jalr	-120(ra) # 12d8e <_ZN20complex_dynamic_type3app17h2ff48b89a2acaad5E>
   1ce0e:	3ecac503          	lbu	a0,1004(s5)
   1ce12:	c501                	beqz	a0,1ce1a <_start+0x20c4>
   1ce14:	3f0aaa03          	lw	s4,1008(s5)
   1ce18:	a8b9                	j	1ce76 <_start+0x2120>
   1ce1a:	3edac583          	lbu	a1,1005(s5)
   1ce1e:	3eeac603          	lbu	a2,1006(s5)
   1ce22:	3efac683          	lbu	a3,1007(s5)
   1ce26:	3f0aaa03          	lw	s4,1008(s5)
   1ce2a:	3f4aa703          	lw	a4,1012(s5)
   1ce2e:	3f8aa783          	lw	a5,1016(s5)
   1ce32:	3fcaa483          	lw	s1,1020(s5)
   1ce36:	400aa403          	lw	s0,1024(s5)
   1ce3a:	0622                	slli	a2,a2,0x8
   1ce3c:	38eaa823          	sw	a4,912(s5)
   1ce40:	38faaa23          	sw	a5,916(s5)
   1ce44:	389aac23          	sw	s1,920(s5)
   1ce48:	388aae23          	sw	s0,924(s5)
   1ce4c:	8dd1                	or	a1,a1,a2
   1ce4e:	00b11423          	sh	a1,8(sp)
   1ce52:	00d10523          	sb	a3,10(sp)
   1ce56:	404aa583          	lw	a1,1028(s5)
   1ce5a:	408aa603          	lw	a2,1032(s5)
   1ce5e:	40ca9683          	lh	a3,1036(s5)
   1ce62:	40eac703          	lbu	a4,1038(s5)
   1ce66:	3abaa023          	sw	a1,928(s5)
   1ce6a:	3acaa223          	sw	a2,932(s5)
   1ce6e:	3ada9423          	sh	a3,936(s5)
   1ce72:	3aea8523          	sb	a4,938(s5)
   1ce76:	c119                	beqz	a0,1ce7c <_start+0x2126>
   1ce78:	4810206f          	j	1faf8 <_start+0x4da2>
   1ce7c:	00811503          	lh	a0,8(sp)
   1ce80:	00a14583          	lbu	a1,10(sp)
   1ce84:	018a5613          	srli	a2,s4,0x18
   1ce88:	010a5693          	srli	a3,s4,0x10
   1ce8c:	5ad10ea3          	sb	a3,1469(sp)
   1ce90:	5ac10f23          	sb	a2,1470(sp)
   1ce94:	008a5613          	srli	a2,s4,0x8
   1ce98:	5aa11c23          	sh	a0,1464(sp)
   1ce9c:	5ab10d23          	sb	a1,1466(sp)
   1cea0:	5b410da3          	sb	s4,1467(sp)
   1cea4:	5ac10e23          	sb	a2,1468(sp)
   1cea8:	5bf10513          	addi	a0,sp,1471
   1ceac:	6585                	lui	a1,0x1
   1ceae:	32458593          	addi	a1,a1,804 # 1324 <.Lline_table_start1+0x10f9>
   1ceb2:	958a                	add	a1,a1,sp
   1ceb4:	466d                	li	a2,27
   1ceb6:	00003097          	auipc	ra,0x3
   1ceba:	d66080e7          	jalr	-666(ra) # 1fc1c <memcpy>
   1cebe:	6505                	lui	a0,0x1
   1cec0:	38050513          	addi	a0,a0,896 # 1380 <.Lline_table_start1+0x1155>
   1cec4:	950a                	add	a0,a0,sp
   1cec6:	5b810593          	addi	a1,sp,1464
   1ceca:	ffff6097          	auipc	ra,0xffff6
   1cece:	8ac080e7          	jalr	-1876(ra) # 12776 <_ZN20complex_dynamic_type3app17h1c87817902cc03b7E>
   1ced2:	3ecac403          	lbu	s0,1004(s5)
   1ced6:	c401                	beqz	s0,1cede <_start+0x2188>
   1ced8:	3f0aaa03          	lw	s4,1008(s5)
   1cedc:	a835                	j	1cf18 <_start+0x21c2>
   1cede:	3eeac503          	lbu	a0,1006(s5)
   1cee2:	3edac583          	lbu	a1,1005(s5)
   1cee6:	3efac603          	lbu	a2,1007(s5)
   1ceea:	3f0aaa03          	lw	s4,1008(s5)
   1ceee:	0522                	slli	a0,a0,0x8
   1cef0:	8d4d                	or	a0,a0,a1
   1cef2:	00a11423          	sh	a0,8(sp)
   1cef6:	00c10523          	sb	a2,10(sp)
   1cefa:	6505                	lui	a0,0x1
   1cefc:	38850513          	addi	a0,a0,904 # 1388 <.Lline_table_start1+0x115d>
   1cf00:	00a105b3          	add	a1,sp,a0
   1cf04:	6505                	lui	a0,0x1
   1cf06:	32450513          	addi	a0,a0,804 # 1324 <.Lline_table_start1+0x10f9>
   1cf0a:	950a                	add	a0,a0,sp
   1cf0c:	04a00613          	li	a2,74
   1cf10:	00003097          	auipc	ra,0x3
   1cf14:	d0c080e7          	jalr	-756(ra) # 1fc1c <memcpy>
   1cf18:	c019                	beqz	s0,1cf1e <_start+0x21c8>
   1cf1a:	3df0206f          	j	1faf8 <_start+0x4da2>
   1cf1e:	00811503          	lh	a0,8(sp)
   1cf22:	00a14583          	lbu	a1,10(sp)
   1cf26:	018a5613          	srli	a2,s4,0x18
   1cf2a:	010a5693          	srli	a3,s4,0x10
   1cf2e:	5cd10fa3          	sb	a3,1503(sp)
   1cf32:	5ec10023          	sb	a2,1504(sp)
   1cf36:	008a5613          	srli	a2,s4,0x8
   1cf3a:	5ca11d23          	sh	a0,1498(sp)
   1cf3e:	5cb10e23          	sb	a1,1500(sp)
   1cf42:	5d410ea3          	sb	s4,1501(sp)
   1cf46:	5cc10f23          	sb	a2,1502(sp)
   1cf4a:	5e110513          	addi	a0,sp,1505
   1cf4e:	6585                	lui	a1,0x1
   1cf50:	32458593          	addi	a1,a1,804 # 1324 <.Lline_table_start1+0x10f9>
   1cf54:	958a                	add	a1,a1,sp
   1cf56:	04a00613          	li	a2,74
   1cf5a:	00003097          	auipc	ra,0x3
   1cf5e:	cc2080e7          	jalr	-830(ra) # 1fc1c <memcpy>
   1cf62:	6505                	lui	a0,0x1
   1cf64:	38050513          	addi	a0,a0,896 # 1380 <.Lline_table_start1+0x1155>
   1cf68:	950a                	add	a0,a0,sp
   1cf6a:	5da10593          	addi	a1,sp,1498
   1cf6e:	ffff6097          	auipc	ra,0xffff6
   1cf72:	b06080e7          	jalr	-1274(ra) # 12a74 <_ZN20complex_dynamic_type3app17h29579d30cd49565fE>
   1cf76:	3ecac403          	lbu	s0,1004(s5)
   1cf7a:	c401                	beqz	s0,1cf82 <_start+0x222c>
   1cf7c:	3f0aaa03          	lw	s4,1008(s5)
   1cf80:	a835                	j	1cfbc <_start+0x2266>
   1cf82:	3eeac503          	lbu	a0,1006(s5)
   1cf86:	3edac583          	lbu	a1,1005(s5)
   1cf8a:	3efac603          	lbu	a2,1007(s5)
   1cf8e:	3f0aaa03          	lw	s4,1008(s5)
   1cf92:	0522                	slli	a0,a0,0x8
   1cf94:	8d4d                	or	a0,a0,a1
   1cf96:	00a11423          	sh	a0,8(sp)
   1cf9a:	00c10523          	sb	a2,10(sp)
   1cf9e:	6505                	lui	a0,0x1
   1cfa0:	38850513          	addi	a0,a0,904 # 1388 <.Lline_table_start1+0x115d>
   1cfa4:	00a105b3          	add	a1,sp,a0
   1cfa8:	6505                	lui	a0,0x1
   1cfaa:	32450513          	addi	a0,a0,804 # 1324 <.Lline_table_start1+0x10f9>
   1cfae:	950a                	add	a0,a0,sp
   1cfb0:	04800613          	li	a2,72
   1cfb4:	00003097          	auipc	ra,0x3
   1cfb8:	c68080e7          	jalr	-920(ra) # 1fc1c <memcpy>
   1cfbc:	c019                	beqz	s0,1cfc2 <_start+0x226c>
   1cfbe:	33b0206f          	j	1faf8 <_start+0x4da2>
   1cfc2:	00811503          	lh	a0,8(sp)
   1cfc6:	00a14583          	lbu	a1,10(sp)
   1cfca:	018a5613          	srli	a2,s4,0x18
   1cfce:	010a5693          	srli	a3,s4,0x10
   1cfd2:	62d108a3          	sb	a3,1585(sp)
   1cfd6:	62c10923          	sb	a2,1586(sp)
   1cfda:	008a5613          	srli	a2,s4,0x8
   1cfde:	62a11623          	sh	a0,1580(sp)
   1cfe2:	62b10723          	sb	a1,1582(sp)
   1cfe6:	634107a3          	sb	s4,1583(sp)
   1cfea:	62c10823          	sb	a2,1584(sp)
   1cfee:	63310513          	addi	a0,sp,1587
   1cff2:	6585                	lui	a1,0x1
   1cff4:	32458593          	addi	a1,a1,804 # 1324 <.Lline_table_start1+0x10f9>
   1cff8:	958a                	add	a1,a1,sp
   1cffa:	04800613          	li	a2,72
   1cffe:	00003097          	auipc	ra,0x3
   1d002:	c1e080e7          	jalr	-994(ra) # 1fc1c <memcpy>
   1d006:	6505                	lui	a0,0x1
   1d008:	38050513          	addi	a0,a0,896 # 1380 <.Lline_table_start1+0x1155>
   1d00c:	950a                	add	a0,a0,sp
   1d00e:	62c10593          	addi	a1,sp,1580
   1d012:	ffff9097          	auipc	ra,0xffff9
   1d016:	35e080e7          	jalr	862(ra) # 16370 <_ZN20complex_dynamic_type3app17h7ab41c90f7791fc1E>
   1d01a:	3ecac403          	lbu	s0,1004(s5)
   1d01e:	c401                	beqz	s0,1d026 <_start+0x22d0>
   1d020:	3f0aaa03          	lw	s4,1008(s5)
   1d024:	a835                	j	1d060 <_start+0x230a>
   1d026:	3eeac503          	lbu	a0,1006(s5)
   1d02a:	3edac583          	lbu	a1,1005(s5)
   1d02e:	3efac603          	lbu	a2,1007(s5)
   1d032:	3f0aaa03          	lw	s4,1008(s5)
   1d036:	0522                	slli	a0,a0,0x8
   1d038:	8d4d                	or	a0,a0,a1
   1d03a:	00a11423          	sh	a0,8(sp)
   1d03e:	00c10523          	sb	a2,10(sp)
   1d042:	6505                	lui	a0,0x1
   1d044:	38850513          	addi	a0,a0,904 # 1388 <.Lline_table_start1+0x115d>
   1d048:	00a105b3          	add	a1,sp,a0
   1d04c:	6505                	lui	a0,0x1
   1d04e:	32450513          	addi	a0,a0,804 # 1324 <.Lline_table_start1+0x10f9>
   1d052:	950a                	add	a0,a0,sp
   1d054:	03400613          	li	a2,52
   1d058:	00003097          	auipc	ra,0x3
   1d05c:	bc4080e7          	jalr	-1084(ra) # 1fc1c <memcpy>
   1d060:	c019                	beqz	s0,1d066 <_start+0x2310>
   1d062:	2970206f          	j	1faf8 <_start+0x4da2>
   1d066:	00811503          	lh	a0,8(sp)
   1d06a:	00a14583          	lbu	a1,10(sp)
   1d06e:	018a5613          	srli	a2,s4,0x18
   1d072:	010a5693          	srli	a3,s4,0x10
   1d076:	68d100a3          	sb	a3,1665(sp)
   1d07a:	68c10123          	sb	a2,1666(sp)
   1d07e:	008a5613          	srli	a2,s4,0x8
   1d082:	66a11e23          	sh	a0,1660(sp)
   1d086:	66b10f23          	sb	a1,1662(sp)
   1d08a:	67410fa3          	sb	s4,1663(sp)
   1d08e:	68c10023          	sb	a2,1664(sp)
   1d092:	68310513          	addi	a0,sp,1667
   1d096:	6585                	lui	a1,0x1
   1d098:	32458593          	addi	a1,a1,804 # 1324 <.Lline_table_start1+0x10f9>
   1d09c:	958a                	add	a1,a1,sp
   1d09e:	03400613          	li	a2,52
   1d0a2:	00003097          	auipc	ra,0x3
   1d0a6:	b7a080e7          	jalr	-1158(ra) # 1fc1c <memcpy>
   1d0aa:	6505                	lui	a0,0x1
   1d0ac:	38050513          	addi	a0,a0,896 # 1380 <.Lline_table_start1+0x1155>
   1d0b0:	950a                	add	a0,a0,sp
   1d0b2:	67c10593          	addi	a1,sp,1660
   1d0b6:	ffffd097          	auipc	ra,0xffffd
   1d0ba:	386080e7          	jalr	902(ra) # 1a43c <_ZN20complex_dynamic_type3app17hf66f83c851f9706cE>
   1d0be:	3ecac503          	lbu	a0,1004(s5)
   1d0c2:	c501                	beqz	a0,1d0ca <_start+0x2374>
   1d0c4:	3f0aaa03          	lw	s4,1008(s5)
   1d0c8:	a8b9                	j	1d126 <_start+0x23d0>
   1d0ca:	3edac583          	lbu	a1,1005(s5)
   1d0ce:	3eeac603          	lbu	a2,1006(s5)
   1d0d2:	3efac683          	lbu	a3,1007(s5)
   1d0d6:	3f0aaa03          	lw	s4,1008(s5)
   1d0da:	3f4aa703          	lw	a4,1012(s5)
   1d0de:	3f8aa783          	lw	a5,1016(s5)
   1d0e2:	3fcaa483          	lw	s1,1020(s5)
   1d0e6:	400aa403          	lw	s0,1024(s5)
   1d0ea:	0622                	slli	a2,a2,0x8
   1d0ec:	38eaa823          	sw	a4,912(s5)
   1d0f0:	38faaa23          	sw	a5,916(s5)
   1d0f4:	389aac23          	sw	s1,920(s5)
   1d0f8:	388aae23          	sw	s0,924(s5)
   1d0fc:	8dd1                	or	a1,a1,a2
   1d0fe:	00b11423          	sh	a1,8(sp)
   1d102:	00d10523          	sb	a3,10(sp)
   1d106:	404aa583          	lw	a1,1028(s5)
   1d10a:	408aa603          	lw	a2,1032(s5)
   1d10e:	40caa683          	lw	a3,1036(s5)
   1d112:	410aa703          	lw	a4,1040(s5)
   1d116:	3abaa023          	sw	a1,928(s5)
   1d11a:	3acaa223          	sw	a2,932(s5)
   1d11e:	3adaa423          	sw	a3,936(s5)
   1d122:	3aeaa623          	sw	a4,940(s5)
   1d126:	c119                	beqz	a0,1d12c <_start+0x23d6>
   1d128:	1d10206f          	j	1faf8 <_start+0x4da2>
   1d12c:	00811503          	lh	a0,8(sp)
   1d130:	00a14583          	lbu	a1,10(sp)
   1d134:	018a5613          	srli	a2,s4,0x18
   1d138:	010a5693          	srli	a3,s4,0x10
   1d13c:	6ad10ea3          	sb	a3,1725(sp)
   1d140:	6ac10f23          	sb	a2,1726(sp)
   1d144:	008a5613          	srli	a2,s4,0x8
   1d148:	6aa11c23          	sh	a0,1720(sp)
   1d14c:	6ab10d23          	sb	a1,1722(sp)
   1d150:	6b410da3          	sb	s4,1723(sp)
   1d154:	6ac10e23          	sb	a2,1724(sp)
   1d158:	6bf10513          	addi	a0,sp,1727
   1d15c:	6585                	lui	a1,0x1
   1d15e:	32458593          	addi	a1,a1,804 # 1324 <.Lline_table_start1+0x10f9>
   1d162:	958a                	add	a1,a1,sp
   1d164:	02000613          	li	a2,32
   1d168:	00003097          	auipc	ra,0x3
   1d16c:	ab4080e7          	jalr	-1356(ra) # 1fc1c <memcpy>
   1d170:	6505                	lui	a0,0x1
   1d172:	38050513          	addi	a0,a0,896 # 1380 <.Lline_table_start1+0x1155>
   1d176:	950a                	add	a0,a0,sp
   1d178:	6b810593          	addi	a1,sp,1720
   1d17c:	ffffa097          	auipc	ra,0xffffa
   1d180:	464080e7          	jalr	1124(ra) # 175e0 <_ZN20complex_dynamic_type3app17h9f95253d8286929fE>
   1d184:	3ecac503          	lbu	a0,1004(s5)
   1d188:	c501                	beqz	a0,1d190 <_start+0x243a>
   1d18a:	3f0aaa03          	lw	s4,1008(s5)
   1d18e:	a83d                	j	1d1cc <_start+0x2476>
   1d190:	3eeac583          	lbu	a1,1006(s5)
   1d194:	3edac603          	lbu	a2,1005(s5)
   1d198:	3efac683          	lbu	a3,1007(s5)
   1d19c:	3f0aaa03          	lw	s4,1008(s5)
   1d1a0:	05a2                	slli	a1,a1,0x8
   1d1a2:	8dd1                	or	a1,a1,a2
   1d1a4:	00b11423          	sh	a1,8(sp)
   1d1a8:	00d10523          	sb	a3,10(sp)
   1d1ac:	3f4aa583          	lw	a1,1012(s5)
   1d1b0:	3f8aa603          	lw	a2,1016(s5)
   1d1b4:	3fcaa683          	lw	a3,1020(s5)
   1d1b8:	400ac703          	lbu	a4,1024(s5)
   1d1bc:	38baa823          	sw	a1,912(s5)
   1d1c0:	38caaa23          	sw	a2,916(s5)
   1d1c4:	38daac23          	sw	a3,920(s5)
   1d1c8:	38ea8e23          	sb	a4,924(s5)
   1d1cc:	c119                	beqz	a0,1d1d2 <_start+0x247c>
   1d1ce:	12b0206f          	j	1faf8 <_start+0x4da2>
   1d1d2:	00811503          	lh	a0,8(sp)
   1d1d6:	00a14583          	lbu	a1,10(sp)
   1d1da:	018a5613          	srli	a2,s4,0x18
   1d1de:	010a5693          	srli	a3,s4,0x10
   1d1e2:	6ed102a3          	sb	a3,1765(sp)
   1d1e6:	6ec10323          	sb	a2,1766(sp)
   1d1ea:	008a5613          	srli	a2,s4,0x8
   1d1ee:	6ea11023          	sh	a0,1760(sp)
   1d1f2:	6eb10123          	sb	a1,1762(sp)
   1d1f6:	6f4101a3          	sb	s4,1763(sp)
   1d1fa:	6ec10223          	sb	a2,1764(sp)
   1d1fe:	6e710513          	addi	a0,sp,1767
   1d202:	6585                	lui	a1,0x1
   1d204:	32458593          	addi	a1,a1,804 # 1324 <.Lline_table_start1+0x10f9>
   1d208:	958a                	add	a1,a1,sp
   1d20a:	4635                	li	a2,13
   1d20c:	00003097          	auipc	ra,0x3
   1d210:	a10080e7          	jalr	-1520(ra) # 1fc1c <memcpy>
   1d214:	6505                	lui	a0,0x1
   1d216:	38050513          	addi	a0,a0,896 # 1380 <.Lline_table_start1+0x1155>
   1d21a:	950a                	add	a0,a0,sp
   1d21c:	6e010593          	addi	a1,sp,1760
   1d220:	ffff6097          	auipc	ra,0xffff6
   1d224:	01e080e7          	jalr	30(ra) # 1323e <_ZN20complex_dynamic_type3app17h3c011bb6a0fefca6E>
   1d228:	3ecac403          	lbu	s0,1004(s5)
   1d22c:	c401                	beqz	s0,1d234 <_start+0x24de>
   1d22e:	3f0aaa03          	lw	s4,1008(s5)
   1d232:	a835                	j	1d26e <_start+0x2518>
   1d234:	3eeac503          	lbu	a0,1006(s5)
   1d238:	3edac583          	lbu	a1,1005(s5)
   1d23c:	3efac603          	lbu	a2,1007(s5)
   1d240:	3f0aaa03          	lw	s4,1008(s5)
   1d244:	0522                	slli	a0,a0,0x8
   1d246:	8d4d                	or	a0,a0,a1
   1d248:	00a11423          	sh	a0,8(sp)
   1d24c:	00c10523          	sb	a2,10(sp)
   1d250:	6505                	lui	a0,0x1
   1d252:	38850513          	addi	a0,a0,904 # 1388 <.Lline_table_start1+0x115d>
   1d256:	00a105b3          	add	a1,sp,a0
   1d25a:	6505                	lui	a0,0x1
   1d25c:	32450513          	addi	a0,a0,804 # 1324 <.Lline_table_start1+0x10f9>
   1d260:	950a                	add	a0,a0,sp
   1d262:	02400613          	li	a2,36
   1d266:	00003097          	auipc	ra,0x3
   1d26a:	9b6080e7          	jalr	-1610(ra) # 1fc1c <memcpy>
   1d26e:	c019                	beqz	s0,1d274 <_start+0x251e>
   1d270:	0890206f          	j	1faf8 <_start+0x4da2>
   1d274:	00811503          	lh	a0,8(sp)
   1d278:	00a14583          	lbu	a1,10(sp)
   1d27c:	018a5613          	srli	a2,s4,0x18
   1d280:	010a5693          	srli	a3,s4,0x10
   1d284:	6ed10ca3          	sb	a3,1785(sp)
   1d288:	6ec10d23          	sb	a2,1786(sp)
   1d28c:	008a5613          	srli	a2,s4,0x8
   1d290:	6ea11a23          	sh	a0,1780(sp)
   1d294:	6eb10b23          	sb	a1,1782(sp)
   1d298:	6f410ba3          	sb	s4,1783(sp)
   1d29c:	6ec10c23          	sb	a2,1784(sp)
   1d2a0:	6fb10513          	addi	a0,sp,1787
   1d2a4:	6585                	lui	a1,0x1
   1d2a6:	32458593          	addi	a1,a1,804 # 1324 <.Lline_table_start1+0x10f9>
   1d2aa:	958a                	add	a1,a1,sp
   1d2ac:	02400613          	li	a2,36
   1d2b0:	00003097          	auipc	ra,0x3
   1d2b4:	96c080e7          	jalr	-1684(ra) # 1fc1c <memcpy>
   1d2b8:	6505                	lui	a0,0x1
   1d2ba:	38050513          	addi	a0,a0,896 # 1380 <.Lline_table_start1+0x1155>
   1d2be:	950a                	add	a0,a0,sp
   1d2c0:	6f410593          	addi	a1,sp,1780
   1d2c4:	ffff6097          	auipc	ra,0xffff6
   1d2c8:	416080e7          	jalr	1046(ra) # 136da <_ZN20complex_dynamic_type3app17h45c54ec4166a907aE>
   1d2cc:	3ecac503          	lbu	a0,1004(s5)
   1d2d0:	c501                	beqz	a0,1d2d8 <_start+0x2582>
   1d2d2:	3f0aaa03          	lw	s4,1008(s5)
   1d2d6:	a899                	j	1d32c <_start+0x25d6>
   1d2d8:	3edac583          	lbu	a1,1005(s5)
   1d2dc:	3eeac603          	lbu	a2,1006(s5)
   1d2e0:	3efac683          	lbu	a3,1007(s5)
   1d2e4:	3f0aaa03          	lw	s4,1008(s5)
   1d2e8:	3f4aa703          	lw	a4,1012(s5)
   1d2ec:	3f8aa783          	lw	a5,1016(s5)
   1d2f0:	3fcaa483          	lw	s1,1020(s5)
   1d2f4:	400aa403          	lw	s0,1024(s5)
   1d2f8:	0622                	slli	a2,a2,0x8
   1d2fa:	38eaa823          	sw	a4,912(s5)
   1d2fe:	38faaa23          	sw	a5,916(s5)
   1d302:	389aac23          	sw	s1,920(s5)
   1d306:	388aae23          	sw	s0,924(s5)
   1d30a:	8dd1                	or	a1,a1,a2
   1d30c:	404aa603          	lw	a2,1028(s5)
   1d310:	408a9703          	lh	a4,1032(s5)
   1d314:	40aac783          	lbu	a5,1034(s5)
   1d318:	00b11423          	sh	a1,8(sp)
   1d31c:	00d10523          	sb	a3,10(sp)
   1d320:	3acaa023          	sw	a2,928(s5)
   1d324:	3aea9223          	sh	a4,932(s5)
   1d328:	3afa8323          	sb	a5,934(s5)
   1d32c:	c119                	beqz	a0,1d332 <_start+0x25dc>
   1d32e:	7ca0206f          	j	1faf8 <_start+0x4da2>
   1d332:	00811503          	lh	a0,8(sp)
   1d336:	00a14583          	lbu	a1,10(sp)
   1d33a:	018a5613          	srli	a2,s4,0x18
   1d33e:	010a5693          	srli	a3,s4,0x10
   1d342:	72d102a3          	sb	a3,1829(sp)
   1d346:	72c10323          	sb	a2,1830(sp)
   1d34a:	008a5613          	srli	a2,s4,0x8
   1d34e:	72a11023          	sh	a0,1824(sp)
   1d352:	72b10123          	sb	a1,1826(sp)
   1d356:	734101a3          	sb	s4,1827(sp)
   1d35a:	72c10223          	sb	a2,1828(sp)
   1d35e:	72710513          	addi	a0,sp,1831
   1d362:	6585                	lui	a1,0x1
   1d364:	32458593          	addi	a1,a1,804 # 1324 <.Lline_table_start1+0x10f9>
   1d368:	958a                	add	a1,a1,sp
   1d36a:	465d                	li	a2,23
   1d36c:	00003097          	auipc	ra,0x3
   1d370:	8b0080e7          	jalr	-1872(ra) # 1fc1c <memcpy>
   1d374:	6505                	lui	a0,0x1
   1d376:	38050513          	addi	a0,a0,896 # 1380 <.Lline_table_start1+0x1155>
   1d37a:	950a                	add	a0,a0,sp
   1d37c:	72010593          	addi	a1,sp,1824
   1d380:	ffffc097          	auipc	ra,0xffffc
   1d384:	81e080e7          	jalr	-2018(ra) # 18b9e <_ZN20complex_dynamic_type3app17hc8cb1c64ff44d610E>
   1d388:	3ecac403          	lbu	s0,1004(s5)
   1d38c:	c401                	beqz	s0,1d394 <_start+0x263e>
   1d38e:	3f0aaa03          	lw	s4,1008(s5)
   1d392:	a835                	j	1d3ce <_start+0x2678>
   1d394:	3eeac503          	lbu	a0,1006(s5)
   1d398:	3edac583          	lbu	a1,1005(s5)
   1d39c:	3efac603          	lbu	a2,1007(s5)
   1d3a0:	3f0aaa03          	lw	s4,1008(s5)
   1d3a4:	0522                	slli	a0,a0,0x8
   1d3a6:	8d4d                	or	a0,a0,a1
   1d3a8:	00a11423          	sh	a0,8(sp)
   1d3ac:	00c10523          	sb	a2,10(sp)
   1d3b0:	6505                	lui	a0,0x1
   1d3b2:	38850513          	addi	a0,a0,904 # 1388 <.Lline_table_start1+0x115d>
   1d3b6:	00a105b3          	add	a1,sp,a0
   1d3ba:	6505                	lui	a0,0x1
   1d3bc:	32450513          	addi	a0,a0,804 # 1324 <.Lline_table_start1+0x10f9>
   1d3c0:	950a                	add	a0,a0,sp
   1d3c2:	04a00613          	li	a2,74
   1d3c6:	00003097          	auipc	ra,0x3
   1d3ca:	856080e7          	jalr	-1962(ra) # 1fc1c <memcpy>
   1d3ce:	c019                	beqz	s0,1d3d4 <_start+0x267e>
   1d3d0:	7280206f          	j	1faf8 <_start+0x4da2>
   1d3d4:	00811503          	lh	a0,8(sp)
   1d3d8:	00a14583          	lbu	a1,10(sp)
   1d3dc:	018a5613          	srli	a2,s4,0x18
   1d3e0:	010a5693          	srli	a3,s4,0x10
   1d3e4:	74d101a3          	sb	a3,1859(sp)
   1d3e8:	74c10223          	sb	a2,1860(sp)
   1d3ec:	008a5613          	srli	a2,s4,0x8
   1d3f0:	72a11f23          	sh	a0,1854(sp)
   1d3f4:	74b10023          	sb	a1,1856(sp)
   1d3f8:	754100a3          	sb	s4,1857(sp)
   1d3fc:	74c10123          	sb	a2,1858(sp)
   1d400:	74510513          	addi	a0,sp,1861
   1d404:	6585                	lui	a1,0x1
   1d406:	32458593          	addi	a1,a1,804 # 1324 <.Lline_table_start1+0x10f9>
   1d40a:	958a                	add	a1,a1,sp
   1d40c:	04a00613          	li	a2,74
   1d410:	00003097          	auipc	ra,0x3
   1d414:	80c080e7          	jalr	-2036(ra) # 1fc1c <memcpy>
   1d418:	6505                	lui	a0,0x1
   1d41a:	38050513          	addi	a0,a0,896 # 1380 <.Lline_table_start1+0x1155>
   1d41e:	950a                	add	a0,a0,sp
   1d420:	73e10593          	addi	a1,sp,1854
   1d424:	ffff8097          	auipc	ra,0xffff8
   1d428:	fe4080e7          	jalr	-28(ra) # 15408 <_ZN20complex_dynamic_type3app17h6ce48b793c44cd50E>
   1d42c:	3ecac603          	lbu	a2,1004(s5)
   1d430:	c601                	beqz	a2,1d438 <_start+0x26e2>
   1d432:	3f0aaa03          	lw	s4,1008(s5)
   1d436:	a01d                	j	1d45c <_start+0x2706>
   1d438:	3edac683          	lbu	a3,1005(s5)
   1d43c:	3eeac703          	lbu	a4,1006(s5)
   1d440:	3efac783          	lbu	a5,1007(s5)
   1d444:	3f0aaa03          	lw	s4,1008(s5)
   1d448:	3f4aa583          	lw	a1,1012(s5)
   1d44c:	3f8aa503          	lw	a0,1016(s5)
   1d450:	0722                	slli	a4,a4,0x8
   1d452:	8ed9                	or	a3,a3,a4
   1d454:	38da9823          	sh	a3,912(s5)
   1d458:	38fa8923          	sb	a5,914(s5)
   1d45c:	c219                	beqz	a2,1d462 <_start+0x270c>
   1d45e:	69a0206f          	j	1faf8 <_start+0x4da2>
   1d462:	79210913          	addi	s2,sp,1938
   1d466:	390a9803          	lh	a6,912(s5)
   1d46a:	392ac683          	lbu	a3,914(s5)
   1d46e:	018a5713          	srli	a4,s4,0x18
   1d472:	010a5793          	srli	a5,s4,0x10
   1d476:	008a5493          	srli	s1,s4,0x8
   1d47a:	0085d413          	srli	s0,a1,0x8
   1d47e:	01855613          	srli	a2,a0,0x18
   1d482:	00f901a3          	sb	a5,3(s2)
   1d486:	00e90223          	sb	a4,4(s2)
   1d48a:	00b902a3          	sb	a1,5(s2)
   1d48e:	00890323          	sb	s0,6(s2)
   1d492:	01055713          	srli	a4,a0,0x10
   1d496:	00e905a3          	sb	a4,11(s2)
   1d49a:	00c90623          	sb	a2,12(s2)
   1d49e:	0185d613          	srli	a2,a1,0x18
   1d4a2:	81c1                	srli	a1,a1,0x10
   1d4a4:	ff091f23          	sh	a6,-2(s2)
   1d4a8:	00d90023          	sb	a3,0(s2)
   1d4ac:	014900a3          	sb	s4,1(s2)
   1d4b0:	00990123          	sb	s1,2(s2)
   1d4b4:	00855693          	srli	a3,a0,0x8
   1d4b8:	00b903a3          	sb	a1,7(s2)
   1d4bc:	00c90423          	sb	a2,8(s2)
   1d4c0:	00a904a3          	sb	a0,9(s2)
   1d4c4:	00d90523          	sb	a3,10(s2)
   1d4c8:	6505                	lui	a0,0x1
   1d4ca:	38050513          	addi	a0,a0,896 # 1380 <.Lline_table_start1+0x1155>
   1d4ce:	950a                	add	a0,a0,sp
   1d4d0:	79010593          	addi	a1,sp,1936
   1d4d4:	ffffc097          	auipc	ra,0xffffc
   1d4d8:	b64080e7          	jalr	-1180(ra) # 19038 <_ZN20complex_dynamic_type3app17hd589f26351275291E>
   1d4dc:	3ecac483          	lbu	s1,1004(s5)
   1d4e0:	c481                	beqz	s1,1d4e8 <_start+0x2792>
   1d4e2:	3f0aaa03          	lw	s4,1008(s5)
   1d4e6:	a835                	j	1d522 <_start+0x27cc>
   1d4e8:	3eeac503          	lbu	a0,1006(s5)
   1d4ec:	3edac583          	lbu	a1,1005(s5)
   1d4f0:	3efac603          	lbu	a2,1007(s5)
   1d4f4:	3f0aaa03          	lw	s4,1008(s5)
   1d4f8:	0522                	slli	a0,a0,0x8
   1d4fa:	8d4d                	or	a0,a0,a1
   1d4fc:	00a11423          	sh	a0,8(sp)
   1d500:	00c10523          	sb	a2,10(sp)
   1d504:	6505                	lui	a0,0x1
   1d506:	38850513          	addi	a0,a0,904 # 1388 <.Lline_table_start1+0x115d>
   1d50a:	00a105b3          	add	a1,sp,a0
   1d50e:	6505                	lui	a0,0x1
   1d510:	32450513          	addi	a0,a0,804 # 1324 <.Lline_table_start1+0x10f9>
   1d514:	950a                	add	a0,a0,sp
   1d516:	03f00613          	li	a2,63
   1d51a:	00002097          	auipc	ra,0x2
   1d51e:	702080e7          	jalr	1794(ra) # 1fc1c <memcpy>
   1d522:	c099                	beqz	s1,1d528 <_start+0x27d2>
   1d524:	5d40206f          	j	1faf8 <_start+0x4da2>
   1d528:	00811503          	lh	a0,8(sp)
   1d52c:	00a14583          	lbu	a1,10(sp)
   1d530:	018a5613          	srli	a2,s4,0x18
   1d534:	010a5693          	srli	a3,s4,0x10
   1d538:	00d909a3          	sb	a3,19(s2)
   1d53c:	00c90a23          	sb	a2,20(s2)
   1d540:	008a5613          	srli	a2,s4,0x8
   1d544:	00a91723          	sh	a0,14(s2)
   1d548:	00b90823          	sb	a1,16(s2)
   1d54c:	014908a3          	sb	s4,17(s2)
   1d550:	00c90923          	sb	a2,18(s2)
   1d554:	7a710513          	addi	a0,sp,1959
   1d558:	6585                	lui	a1,0x1
   1d55a:	32458593          	addi	a1,a1,804 # 1324 <.Lline_table_start1+0x10f9>
   1d55e:	958a                	add	a1,a1,sp
   1d560:	03f00613          	li	a2,63
   1d564:	00002097          	auipc	ra,0x2
   1d568:	6b8080e7          	jalr	1720(ra) # 1fc1c <memcpy>
   1d56c:	6505                	lui	a0,0x1
   1d56e:	38050513          	addi	a0,a0,896 # 1380 <.Lline_table_start1+0x1155>
   1d572:	950a                	add	a0,a0,sp
   1d574:	7a010593          	addi	a1,sp,1952
   1d578:	ffff9097          	auipc	ra,0xffff9
   1d57c:	f88080e7          	jalr	-120(ra) # 16500 <_ZN20complex_dynamic_type3app17h7ab43be01c126e9aE>
   1d580:	3ecac483          	lbu	s1,1004(s5)
   1d584:	c481                	beqz	s1,1d58c <_start+0x2836>
   1d586:	3f0aaa03          	lw	s4,1008(s5)
   1d58a:	a835                	j	1d5c6 <_start+0x2870>
   1d58c:	3eeac503          	lbu	a0,1006(s5)
   1d590:	3edac583          	lbu	a1,1005(s5)
   1d594:	3efac603          	lbu	a2,1007(s5)
   1d598:	3f0aaa03          	lw	s4,1008(s5)
   1d59c:	0522                	slli	a0,a0,0x8
   1d59e:	8d4d                	or	a0,a0,a1
   1d5a0:	00a11423          	sh	a0,8(sp)
   1d5a4:	00c10523          	sb	a2,10(sp)
   1d5a8:	6505                	lui	a0,0x1
   1d5aa:	38850513          	addi	a0,a0,904 # 1388 <.Lline_table_start1+0x115d>
   1d5ae:	00a105b3          	add	a1,sp,a0
   1d5b2:	6505                	lui	a0,0x1
   1d5b4:	32450513          	addi	a0,a0,804 # 1324 <.Lline_table_start1+0x10f9>
   1d5b8:	950a                	add	a0,a0,sp
   1d5ba:	04f00613          	li	a2,79
   1d5be:	00002097          	auipc	ra,0x2
   1d5c2:	65e080e7          	jalr	1630(ra) # 1fc1c <memcpy>
   1d5c6:	c099                	beqz	s1,1d5cc <_start+0x2876>
   1d5c8:	5300206f          	j	1faf8 <_start+0x4da2>
   1d5cc:	00811503          	lh	a0,8(sp)
   1d5d0:	00a14583          	lbu	a1,10(sp)
   1d5d4:	018a5613          	srli	a2,s4,0x18
   1d5d8:	010a5693          	srli	a3,s4,0x10
   1d5dc:	04d90ca3          	sb	a3,89(s2)
   1d5e0:	04c90d23          	sb	a2,90(s2)
   1d5e4:	008a5613          	srli	a2,s4,0x8
   1d5e8:	04a91a23          	sh	a0,84(s2)
   1d5ec:	04b90b23          	sb	a1,86(s2)
   1d5f0:	05490ba3          	sb	s4,87(s2)
   1d5f4:	04c90c23          	sb	a2,88(s2)
   1d5f8:	7ed10513          	addi	a0,sp,2029
   1d5fc:	6585                	lui	a1,0x1
   1d5fe:	32458593          	addi	a1,a1,804 # 1324 <.Lline_table_start1+0x10f9>
   1d602:	958a                	add	a1,a1,sp
   1d604:	04f00613          	li	a2,79
   1d608:	00002097          	auipc	ra,0x2
   1d60c:	614080e7          	jalr	1556(ra) # 1fc1c <memcpy>
   1d610:	6505                	lui	a0,0x1
   1d612:	38050513          	addi	a0,a0,896 # 1380 <.Lline_table_start1+0x1155>
   1d616:	950a                	add	a0,a0,sp
   1d618:	7e610593          	addi	a1,sp,2022
   1d61c:	ffff7097          	auipc	ra,0xffff7
   1d620:	4ac080e7          	jalr	1196(ra) # 14ac8 <_ZN20complex_dynamic_type3app17h61934c063e5c2c08E>
   1d624:	3ecac483          	lbu	s1,1004(s5)
   1d628:	c481                	beqz	s1,1d630 <_start+0x28da>
   1d62a:	3f0aaa03          	lw	s4,1008(s5)
   1d62e:	a835                	j	1d66a <_start+0x2914>
   1d630:	3eeac503          	lbu	a0,1006(s5)
   1d634:	3edac583          	lbu	a1,1005(s5)
   1d638:	3efac603          	lbu	a2,1007(s5)
   1d63c:	3f0aaa03          	lw	s4,1008(s5)
   1d640:	0522                	slli	a0,a0,0x8
   1d642:	8d4d                	or	a0,a0,a1
   1d644:	00a11423          	sh	a0,8(sp)
   1d648:	00c10523          	sb	a2,10(sp)
   1d64c:	6505                	lui	a0,0x1
   1d64e:	38850513          	addi	a0,a0,904 # 1388 <.Lline_table_start1+0x115d>
   1d652:	00a105b3          	add	a1,sp,a0
   1d656:	6505                	lui	a0,0x1
   1d658:	32450513          	addi	a0,a0,804 # 1324 <.Lline_table_start1+0x10f9>
   1d65c:	950a                	add	a0,a0,sp
   1d65e:	04200613          	li	a2,66
   1d662:	00002097          	auipc	ra,0x2
   1d666:	5ba080e7          	jalr	1466(ra) # 1fc1c <memcpy>
   1d66a:	c099                	beqz	s1,1d670 <_start+0x291a>
   1d66c:	48c0206f          	j	1faf8 <_start+0x4da2>
   1d670:	00811503          	lh	a0,8(sp)
   1d674:	00a14583          	lbu	a1,10(sp)
   1d678:	018a5613          	srli	a2,s4,0x18
   1d67c:	010a5693          	srli	a3,s4,0x10
   1d680:	0ad907a3          	sb	a3,175(s2)
   1d684:	0ac90823          	sb	a2,176(s2)
   1d688:	008a5613          	srli	a2,s4,0x8
   1d68c:	0aa91523          	sh	a0,170(s2)
   1d690:	0ab90623          	sb	a1,172(s2)
   1d694:	0b4906a3          	sb	s4,173(s2)
   1d698:	0ac90723          	sb	a2,174(s2)
   1d69c:	7ff10513          	addi	a0,sp,2047
   1d6a0:	04450513          	addi	a0,a0,68
   1d6a4:	6585                	lui	a1,0x1
   1d6a6:	32458593          	addi	a1,a1,804 # 1324 <.Lline_table_start1+0x10f9>
   1d6aa:	958a                	add	a1,a1,sp
   1d6ac:	04200613          	li	a2,66
   1d6b0:	00002097          	auipc	ra,0x2
   1d6b4:	56c080e7          	jalr	1388(ra) # 1fc1c <memcpy>
   1d6b8:	6505                	lui	a0,0x1
   1d6ba:	38050513          	addi	a0,a0,896 # 1380 <.Lline_table_start1+0x1155>
   1d6be:	950a                	add	a0,a0,sp
   1d6c0:	7ff10593          	addi	a1,sp,2047
   1d6c4:	03d58593          	addi	a1,a1,61
   1d6c8:	ffff8097          	auipc	ra,0xffff8
   1d6cc:	bb4080e7          	jalr	-1100(ra) # 1527c <_ZN20complex_dynamic_type3app17h6a5c8a4b737b2618E>
   1d6d0:	3ecac503          	lbu	a0,1004(s5)
   1d6d4:	c501                	beqz	a0,1d6dc <_start+0x2986>
   1d6d6:	3f0aaa03          	lw	s4,1008(s5)
   1d6da:	a899                	j	1d730 <_start+0x29da>
   1d6dc:	3edac583          	lbu	a1,1005(s5)
   1d6e0:	3eeac603          	lbu	a2,1006(s5)
   1d6e4:	3efac683          	lbu	a3,1007(s5)
   1d6e8:	3f0aaa03          	lw	s4,1008(s5)
   1d6ec:	3f4aa703          	lw	a4,1012(s5)
   1d6f0:	3f8aa783          	lw	a5,1016(s5)
   1d6f4:	3fcaa483          	lw	s1,1020(s5)
   1d6f8:	400aa403          	lw	s0,1024(s5)
   1d6fc:	0622                	slli	a2,a2,0x8
   1d6fe:	38eaa823          	sw	a4,912(s5)
   1d702:	38faaa23          	sw	a5,916(s5)
   1d706:	389aac23          	sw	s1,920(s5)
   1d70a:	388aae23          	sw	s0,924(s5)
   1d70e:	8dd1                	or	a1,a1,a2
   1d710:	404aa603          	lw	a2,1028(s5)
   1d714:	408aa703          	lw	a4,1032(s5)
   1d718:	40caa783          	lw	a5,1036(s5)
   1d71c:	00b11423          	sh	a1,8(sp)
   1d720:	00d10523          	sb	a3,10(sp)
   1d724:	3acaa023          	sw	a2,928(s5)
   1d728:	3aeaa223          	sw	a4,932(s5)
   1d72c:	3afaa423          	sw	a5,936(s5)
   1d730:	c119                	beqz	a0,1d736 <_start+0x29e0>
   1d732:	3c60206f          	j	1faf8 <_start+0x4da2>
   1d736:	00811503          	lh	a0,8(sp)
   1d73a:	00a14583          	lbu	a1,10(sp)
   1d73e:	018a5613          	srli	a2,s4,0x18
   1d742:	010a5693          	srli	a3,s4,0x10
   1d746:	0ed90ca3          	sb	a3,249(s2)
   1d74a:	0ec90d23          	sb	a2,250(s2)
   1d74e:	008a5613          	srli	a2,s4,0x8
   1d752:	0ea91a23          	sh	a0,244(s2)
   1d756:	0eb90b23          	sb	a1,246(s2)
   1d75a:	0f490ba3          	sb	s4,247(s2)
   1d75e:	0ec90c23          	sb	a2,248(s2)
   1d762:	7ff10513          	addi	a0,sp,2047
   1d766:	08e50513          	addi	a0,a0,142
   1d76a:	6585                	lui	a1,0x1
   1d76c:	32458593          	addi	a1,a1,804 # 1324 <.Lline_table_start1+0x10f9>
   1d770:	958a                	add	a1,a1,sp
   1d772:	4671                	li	a2,28
   1d774:	00002097          	auipc	ra,0x2
   1d778:	4a8080e7          	jalr	1192(ra) # 1fc1c <memcpy>
   1d77c:	6505                	lui	a0,0x1
   1d77e:	38050513          	addi	a0,a0,896 # 1380 <.Lline_table_start1+0x1155>
   1d782:	950a                	add	a0,a0,sp
   1d784:	7ff10593          	addi	a1,sp,2047
   1d788:	08758593          	addi	a1,a1,135
   1d78c:	ffff8097          	auipc	ra,0xffff8
   1d790:	f92080e7          	jalr	-110(ra) # 1571e <_ZN20complex_dynamic_type3app17h6ea379873402d979E>
   1d794:	3ecac483          	lbu	s1,1004(s5)
   1d798:	c481                	beqz	s1,1d7a0 <_start+0x2a4a>
   1d79a:	3f0aaa03          	lw	s4,1008(s5)
   1d79e:	a835                	j	1d7da <_start+0x2a84>
   1d7a0:	3eeac503          	lbu	a0,1006(s5)
   1d7a4:	3edac583          	lbu	a1,1005(s5)
   1d7a8:	3efac603          	lbu	a2,1007(s5)
   1d7ac:	3f0aaa03          	lw	s4,1008(s5)
   1d7b0:	0522                	slli	a0,a0,0x8
   1d7b2:	8d4d                	or	a0,a0,a1
   1d7b4:	00a11423          	sh	a0,8(sp)
   1d7b8:	00c10523          	sb	a2,10(sp)
   1d7bc:	6505                	lui	a0,0x1
   1d7be:	38850513          	addi	a0,a0,904 # 1388 <.Lline_table_start1+0x115d>
   1d7c2:	00a105b3          	add	a1,sp,a0
   1d7c6:	6505                	lui	a0,0x1
   1d7c8:	32450513          	addi	a0,a0,804 # 1324 <.Lline_table_start1+0x10f9>
   1d7cc:	950a                	add	a0,a0,sp
   1d7ce:	02400613          	li	a2,36
   1d7d2:	00002097          	auipc	ra,0x2
   1d7d6:	44a080e7          	jalr	1098(ra) # 1fc1c <memcpy>
   1d7da:	c099                	beqz	s1,1d7e0 <_start+0x2a8a>
   1d7dc:	31c0206f          	j	1faf8 <_start+0x4da2>
   1d7e0:	00811503          	lh	a0,8(sp)
   1d7e4:	00a14583          	lbu	a1,10(sp)
   1d7e8:	018a5613          	srli	a2,s4,0x18
   1d7ec:	010a5693          	srli	a3,s4,0x10
   1d7f0:	10d90ea3          	sb	a3,285(s2)
   1d7f4:	10c90f23          	sb	a2,286(s2)
   1d7f8:	008a5613          	srli	a2,s4,0x8
   1d7fc:	10a91c23          	sh	a0,280(s2)
   1d800:	10b90d23          	sb	a1,282(s2)
   1d804:	11490da3          	sb	s4,283(s2)
   1d808:	10c90e23          	sb	a2,284(s2)
   1d80c:	7ff10513          	addi	a0,sp,2047
   1d810:	0b250513          	addi	a0,a0,178
   1d814:	6585                	lui	a1,0x1
   1d816:	32458593          	addi	a1,a1,804 # 1324 <.Lline_table_start1+0x10f9>
   1d81a:	958a                	add	a1,a1,sp
   1d81c:	02400613          	li	a2,36
   1d820:	00002097          	auipc	ra,0x2
   1d824:	3fc080e7          	jalr	1020(ra) # 1fc1c <memcpy>
   1d828:	6505                	lui	a0,0x1
   1d82a:	38050513          	addi	a0,a0,896 # 1380 <.Lline_table_start1+0x1155>
   1d82e:	950a                	add	a0,a0,sp
   1d830:	7ff10593          	addi	a1,sp,2047
   1d834:	0ab58593          	addi	a1,a1,171
   1d838:	ffff4097          	auipc	ra,0xffff4
   1d83c:	45c080e7          	jalr	1116(ra) # 11c94 <_ZN20complex_dynamic_type3app17h0386ea202605651fE>
   1d840:	3ecac503          	lbu	a0,1004(s5)
   1d844:	c501                	beqz	a0,1d84c <_start+0x2af6>
   1d846:	3f0aaa03          	lw	s4,1008(s5)
   1d84a:	a03d                	j	1d878 <_start+0x2b22>
   1d84c:	3eeac583          	lbu	a1,1006(s5)
   1d850:	3edac603          	lbu	a2,1005(s5)
   1d854:	3efac683          	lbu	a3,1007(s5)
   1d858:	3f0aaa03          	lw	s4,1008(s5)
   1d85c:	05a2                	slli	a1,a1,0x8
   1d85e:	8dd1                	or	a1,a1,a2
   1d860:	3f4aa603          	lw	a2,1012(s5)
   1d864:	3f8a9703          	lh	a4,1016(s5)
   1d868:	00b11423          	sh	a1,8(sp)
   1d86c:	00d10523          	sb	a3,10(sp)
   1d870:	38caa823          	sw	a2,912(s5)
   1d874:	38ea9a23          	sh	a4,916(s5)
   1d878:	c119                	beqz	a0,1d87e <_start+0x2b28>
   1d87a:	27e0206f          	j	1faf8 <_start+0x4da2>
   1d87e:	00811503          	lh	a0,8(sp)
   1d882:	00a14583          	lbu	a1,10(sp)
   1d886:	018a5613          	srli	a2,s4,0x18
   1d88a:	010a5693          	srli	a3,s4,0x10
   1d88e:	008a5713          	srli	a4,s4,0x8
   1d892:	14a91223          	sh	a0,324(s2)
   1d896:	14b90323          	sb	a1,326(s2)
   1d89a:	154903a3          	sb	s4,327(s2)
   1d89e:	14e90423          	sb	a4,328(s2)
   1d8a2:	390ac503          	lbu	a0,912(s5)
   1d8a6:	391ac583          	lbu	a1,913(s5)
   1d8aa:	392ac703          	lbu	a4,914(s5)
   1d8ae:	393ac783          	lbu	a5,915(s5)
   1d8b2:	14d904a3          	sb	a3,329(s2)
   1d8b6:	14c90523          	sb	a2,330(s2)
   1d8ba:	14a905a3          	sb	a0,331(s2)
   1d8be:	14b90623          	sb	a1,332(s2)
   1d8c2:	394ac503          	lbu	a0,916(s5)
   1d8c6:	395ac583          	lbu	a1,917(s5)
   1d8ca:	14e906a3          	sb	a4,333(s2)
   1d8ce:	14f90723          	sb	a5,334(s2)
   1d8d2:	14a907a3          	sb	a0,335(s2)
   1d8d6:	14b90823          	sb	a1,336(s2)
   1d8da:	6505                	lui	a0,0x1
   1d8dc:	38050513          	addi	a0,a0,896 # 1380 <.Lline_table_start1+0x1155>
   1d8e0:	950a                	add	a0,a0,sp
   1d8e2:	7ff10593          	addi	a1,sp,2047
   1d8e6:	0d758593          	addi	a1,a1,215
   1d8ea:	ffff7097          	auipc	ra,0xffff7
   1d8ee:	ba8080e7          	jalr	-1112(ra) # 14492 <_ZN20complex_dynamic_type3app17h53ddd24431c4817eE>
   1d8f2:	3ecac503          	lbu	a0,1004(s5)
   1d8f6:	c501                	beqz	a0,1d8fe <_start+0x2ba8>
   1d8f8:	3f0aaa03          	lw	s4,1008(s5)
   1d8fc:	a899                	j	1d952 <_start+0x2bfc>
   1d8fe:	3edac583          	lbu	a1,1005(s5)
   1d902:	3eeac603          	lbu	a2,1006(s5)
   1d906:	3efac683          	lbu	a3,1007(s5)
   1d90a:	3f0aaa03          	lw	s4,1008(s5)
   1d90e:	3f4aa703          	lw	a4,1012(s5)
   1d912:	3f8aa783          	lw	a5,1016(s5)
   1d916:	3fcaa483          	lw	s1,1020(s5)
   1d91a:	400aa403          	lw	s0,1024(s5)
   1d91e:	0622                	slli	a2,a2,0x8
   1d920:	38eaa823          	sw	a4,912(s5)
   1d924:	38faaa23          	sw	a5,916(s5)
   1d928:	389aac23          	sw	s1,920(s5)
   1d92c:	388aae23          	sw	s0,924(s5)
   1d930:	8dd1                	or	a1,a1,a2
   1d932:	404aa603          	lw	a2,1028(s5)
   1d936:	408aa703          	lw	a4,1032(s5)
   1d93a:	40ca9783          	lh	a5,1036(s5)
   1d93e:	00b11423          	sh	a1,8(sp)
   1d942:	00d10523          	sb	a3,10(sp)
   1d946:	3acaa023          	sw	a2,928(s5)
   1d94a:	3aeaa223          	sw	a4,932(s5)
   1d94e:	3afa9423          	sh	a5,936(s5)
   1d952:	c119                	beqz	a0,1d958 <_start+0x2c02>
   1d954:	1a40206f          	j	1faf8 <_start+0x4da2>
   1d958:	00811503          	lh	a0,8(sp)
   1d95c:	00a14583          	lbu	a1,10(sp)
   1d960:	018a5613          	srli	a2,s4,0x18
   1d964:	010a5693          	srli	a3,s4,0x10
   1d968:	14d90ba3          	sb	a3,343(s2)
   1d96c:	14c90c23          	sb	a2,344(s2)
   1d970:	008a5613          	srli	a2,s4,0x8
   1d974:	14a91923          	sh	a0,338(s2)
   1d978:	14b90a23          	sb	a1,340(s2)
   1d97c:	15490aa3          	sb	s4,341(s2)
   1d980:	14c90b23          	sb	a2,342(s2)
   1d984:	7ff10513          	addi	a0,sp,2047
   1d988:	0ec50513          	addi	a0,a0,236
   1d98c:	6585                	lui	a1,0x1
   1d98e:	32458593          	addi	a1,a1,804 # 1324 <.Lline_table_start1+0x10f9>
   1d992:	958a                	add	a1,a1,sp
   1d994:	4669                	li	a2,26
   1d996:	00002097          	auipc	ra,0x2
   1d99a:	286080e7          	jalr	646(ra) # 1fc1c <memcpy>
   1d99e:	6505                	lui	a0,0x1
   1d9a0:	38050513          	addi	a0,a0,896 # 1380 <.Lline_table_start1+0x1155>
   1d9a4:	950a                	add	a0,a0,sp
   1d9a6:	7ff10593          	addi	a1,sp,2047
   1d9aa:	0e558593          	addi	a1,a1,229
   1d9ae:	ffffa097          	auipc	ra,0xffffa
   1d9b2:	0da080e7          	jalr	218(ra) # 17a88 <_ZN20complex_dynamic_type3app17ha56582c005293d59E>
   1d9b6:	3ecac483          	lbu	s1,1004(s5)
   1d9ba:	c481                	beqz	s1,1d9c2 <_start+0x2c6c>
   1d9bc:	3f0aaa03          	lw	s4,1008(s5)
   1d9c0:	a835                	j	1d9fc <_start+0x2ca6>
   1d9c2:	3eeac503          	lbu	a0,1006(s5)
   1d9c6:	3edac583          	lbu	a1,1005(s5)
   1d9ca:	3efac603          	lbu	a2,1007(s5)
   1d9ce:	3f0aaa03          	lw	s4,1008(s5)
   1d9d2:	0522                	slli	a0,a0,0x8
   1d9d4:	8d4d                	or	a0,a0,a1
   1d9d6:	00a11423          	sh	a0,8(sp)
   1d9da:	00c10523          	sb	a2,10(sp)
   1d9de:	6505                	lui	a0,0x1
   1d9e0:	38850513          	addi	a0,a0,904 # 1388 <.Lline_table_start1+0x115d>
   1d9e4:	00a105b3          	add	a1,sp,a0
   1d9e8:	6505                	lui	a0,0x1
   1d9ea:	32450513          	addi	a0,a0,804 # 1324 <.Lline_table_start1+0x10f9>
   1d9ee:	950a                	add	a0,a0,sp
   1d9f0:	04c00613          	li	a2,76
   1d9f4:	00002097          	auipc	ra,0x2
   1d9f8:	228080e7          	jalr	552(ra) # 1fc1c <memcpy>
   1d9fc:	c099                	beqz	s1,1da02 <_start+0x2cac>
   1d9fe:	0fa0206f          	j	1faf8 <_start+0x4da2>
   1da02:	00811503          	lh	a0,8(sp)
   1da06:	00a14583          	lbu	a1,10(sp)
   1da0a:	018a5613          	srli	a2,s4,0x18
   1da0e:	010a5693          	srli	a3,s4,0x10
   1da12:	16d90ca3          	sb	a3,377(s2)
   1da16:	16c90d23          	sb	a2,378(s2)
   1da1a:	008a5613          	srli	a2,s4,0x8
   1da1e:	16a91a23          	sh	a0,372(s2)
   1da22:	16b90b23          	sb	a1,374(s2)
   1da26:	17490ba3          	sb	s4,375(s2)
   1da2a:	16c90c23          	sb	a2,376(s2)
   1da2e:	7ff10513          	addi	a0,sp,2047
   1da32:	10e50513          	addi	a0,a0,270
   1da36:	6585                	lui	a1,0x1
   1da38:	32458593          	addi	a1,a1,804 # 1324 <.Lline_table_start1+0x10f9>
   1da3c:	958a                	add	a1,a1,sp
   1da3e:	04c00613          	li	a2,76
   1da42:	00002097          	auipc	ra,0x2
   1da46:	1da080e7          	jalr	474(ra) # 1fc1c <memcpy>
   1da4a:	6505                	lui	a0,0x1
   1da4c:	38050513          	addi	a0,a0,896 # 1380 <.Lline_table_start1+0x1155>
   1da50:	950a                	add	a0,a0,sp
   1da52:	7ff10593          	addi	a1,sp,2047
   1da56:	10758593          	addi	a1,a1,263
   1da5a:	ffff9097          	auipc	ra,0xffff9
   1da5e:	c36080e7          	jalr	-970(ra) # 16690 <_ZN20complex_dynamic_type3app17h810bfadc8622f196E>
   1da62:	3ecac483          	lbu	s1,1004(s5)
   1da66:	c481                	beqz	s1,1da6e <_start+0x2d18>
   1da68:	3f0aaa03          	lw	s4,1008(s5)
   1da6c:	a835                	j	1daa8 <_start+0x2d52>
   1da6e:	3eeac503          	lbu	a0,1006(s5)
   1da72:	3edac583          	lbu	a1,1005(s5)
   1da76:	3efac603          	lbu	a2,1007(s5)
   1da7a:	3f0aaa03          	lw	s4,1008(s5)
   1da7e:	0522                	slli	a0,a0,0x8
   1da80:	8d4d                	or	a0,a0,a1
   1da82:	00a11423          	sh	a0,8(sp)
   1da86:	00c10523          	sb	a2,10(sp)
   1da8a:	6505                	lui	a0,0x1
   1da8c:	38850513          	addi	a0,a0,904 # 1388 <.Lline_table_start1+0x115d>
   1da90:	00a105b3          	add	a1,sp,a0
   1da94:	6505                	lui	a0,0x1
   1da96:	32450513          	addi	a0,a0,804 # 1324 <.Lline_table_start1+0x10f9>
   1da9a:	950a                	add	a0,a0,sp
   1da9c:	04600613          	li	a2,70
   1daa0:	00002097          	auipc	ra,0x2
   1daa4:	17c080e7          	jalr	380(ra) # 1fc1c <memcpy>
   1daa8:	c099                	beqz	s1,1daae <_start+0x2d58>
   1daaa:	04e0206f          	j	1faf8 <_start+0x4da2>
   1daae:	00811503          	lh	a0,8(sp)
   1dab2:	00a14583          	lbu	a1,10(sp)
   1dab6:	018a5613          	srli	a2,s4,0x18
   1daba:	010a5693          	srli	a3,s4,0x10
   1dabe:	1cd906a3          	sb	a3,461(s2)
   1dac2:	1cc90723          	sb	a2,462(s2)
   1dac6:	008a5613          	srli	a2,s4,0x8
   1daca:	1ca91423          	sh	a0,456(s2)
   1dace:	1cb90523          	sb	a1,458(s2)
   1dad2:	1d4905a3          	sb	s4,459(s2)
   1dad6:	1cc90623          	sb	a2,460(s2)
   1dada:	7ff10513          	addi	a0,sp,2047
   1dade:	16250513          	addi	a0,a0,354
   1dae2:	6585                	lui	a1,0x1
   1dae4:	32458593          	addi	a1,a1,804 # 1324 <.Lline_table_start1+0x10f9>
   1dae8:	958a                	add	a1,a1,sp
   1daea:	04600613          	li	a2,70
   1daee:	00002097          	auipc	ra,0x2
   1daf2:	12e080e7          	jalr	302(ra) # 1fc1c <memcpy>
   1daf6:	6505                	lui	a0,0x1
   1daf8:	38050513          	addi	a0,a0,896 # 1380 <.Lline_table_start1+0x1155>
   1dafc:	950a                	add	a0,a0,sp
   1dafe:	7ff10593          	addi	a1,sp,2047
   1db02:	15b58593          	addi	a1,a1,347
   1db06:	ffffa097          	auipc	ra,0xffffa
   1db0a:	94a080e7          	jalr	-1718(ra) # 17450 <_ZN20complex_dynamic_type3app17h9b2331a48536270dE>
   1db0e:	3ecac483          	lbu	s1,1004(s5)
   1db12:	c481                	beqz	s1,1db1a <_start+0x2dc4>
   1db14:	3f0aaa03          	lw	s4,1008(s5)
   1db18:	a835                	j	1db54 <_start+0x2dfe>
   1db1a:	3eeac503          	lbu	a0,1006(s5)
   1db1e:	3edac583          	lbu	a1,1005(s5)
   1db22:	3efac603          	lbu	a2,1007(s5)
   1db26:	3f0aaa03          	lw	s4,1008(s5)
   1db2a:	0522                	slli	a0,a0,0x8
   1db2c:	8d4d                	or	a0,a0,a1
   1db2e:	00a11423          	sh	a0,8(sp)
   1db32:	00c10523          	sb	a2,10(sp)
   1db36:	6505                	lui	a0,0x1
   1db38:	38850513          	addi	a0,a0,904 # 1388 <.Lline_table_start1+0x115d>
   1db3c:	00a105b3          	add	a1,sp,a0
   1db40:	6505                	lui	a0,0x1
   1db42:	32450513          	addi	a0,a0,804 # 1324 <.Lline_table_start1+0x10f9>
   1db46:	950a                	add	a0,a0,sp
   1db48:	03500613          	li	a2,53
   1db4c:	00002097          	auipc	ra,0x2
   1db50:	0d0080e7          	jalr	208(ra) # 1fc1c <memcpy>
   1db54:	c099                	beqz	s1,1db5a <_start+0x2e04>
   1db56:	7a30106f          	j	1faf8 <_start+0x4da2>
   1db5a:	00811503          	lh	a0,8(sp)
   1db5e:	00a14583          	lbu	a1,10(sp)
   1db62:	018a5613          	srli	a2,s4,0x18
   1db66:	010a5693          	srli	a3,s4,0x10
   1db6a:	20d90da3          	sb	a3,539(s2)
   1db6e:	20c90e23          	sb	a2,540(s2)
   1db72:	008a5613          	srli	a2,s4,0x8
   1db76:	20a91b23          	sh	a0,534(s2)
   1db7a:	20b90c23          	sb	a1,536(s2)
   1db7e:	21490ca3          	sb	s4,537(s2)
   1db82:	20c90d23          	sb	a2,538(s2)
   1db86:	7ff10513          	addi	a0,sp,2047
   1db8a:	1b050513          	addi	a0,a0,432
   1db8e:	6585                	lui	a1,0x1
   1db90:	32458593          	addi	a1,a1,804 # 1324 <.Lline_table_start1+0x10f9>
   1db94:	958a                	add	a1,a1,sp
   1db96:	03500613          	li	a2,53
   1db9a:	00002097          	auipc	ra,0x2
   1db9e:	082080e7          	jalr	130(ra) # 1fc1c <memcpy>
   1dba2:	6505                	lui	a0,0x1
   1dba4:	38050513          	addi	a0,a0,896 # 1380 <.Lline_table_start1+0x1155>
   1dba8:	950a                	add	a0,a0,sp
   1dbaa:	7ff10593          	addi	a1,sp,2047
   1dbae:	1a958593          	addi	a1,a1,425
   1dbb2:	ffff9097          	auipc	ra,0xffff9
   1dbb6:	584080e7          	jalr	1412(ra) # 17136 <_ZN20complex_dynamic_type3app17h93b5d97147597dc3E>
   1dbba:	3ecac483          	lbu	s1,1004(s5)
   1dbbe:	c481                	beqz	s1,1dbc6 <_start+0x2e70>
   1dbc0:	3f0aaa03          	lw	s4,1008(s5)
   1dbc4:	a835                	j	1dc00 <_start+0x2eaa>
   1dbc6:	3eeac503          	lbu	a0,1006(s5)
   1dbca:	3edac583          	lbu	a1,1005(s5)
   1dbce:	3efac603          	lbu	a2,1007(s5)
   1dbd2:	3f0aaa03          	lw	s4,1008(s5)
   1dbd6:	0522                	slli	a0,a0,0x8
   1dbd8:	8d4d                	or	a0,a0,a1
   1dbda:	00a11423          	sh	a0,8(sp)
   1dbde:	00c10523          	sb	a2,10(sp)
   1dbe2:	6505                	lui	a0,0x1
   1dbe4:	38850513          	addi	a0,a0,904 # 1388 <.Lline_table_start1+0x115d>
   1dbe8:	00a105b3          	add	a1,sp,a0
   1dbec:	6505                	lui	a0,0x1
   1dbee:	32450513          	addi	a0,a0,804 # 1324 <.Lline_table_start1+0x10f9>
   1dbf2:	950a                	add	a0,a0,sp
   1dbf4:	03100613          	li	a2,49
   1dbf8:	00002097          	auipc	ra,0x2
   1dbfc:	024080e7          	jalr	36(ra) # 1fc1c <memcpy>
   1dc00:	c099                	beqz	s1,1dc06 <_start+0x2eb0>
   1dc02:	6f70106f          	j	1faf8 <_start+0x4da2>
   1dc06:	00811503          	lh	a0,8(sp)
   1dc0a:	00a14583          	lbu	a1,10(sp)
   1dc0e:	018a5613          	srli	a2,s4,0x18
   1dc12:	010a5693          	srli	a3,s4,0x10
   1dc16:	24d90ba3          	sb	a3,599(s2)
   1dc1a:	24c90c23          	sb	a2,600(s2)
   1dc1e:	008a5613          	srli	a2,s4,0x8
   1dc22:	24a91923          	sh	a0,594(s2)
   1dc26:	24b90a23          	sb	a1,596(s2)
   1dc2a:	25490aa3          	sb	s4,597(s2)
   1dc2e:	24c90b23          	sb	a2,598(s2)
   1dc32:	7ff10513          	addi	a0,sp,2047
   1dc36:	1ec50513          	addi	a0,a0,492
   1dc3a:	6585                	lui	a1,0x1
   1dc3c:	32458593          	addi	a1,a1,804 # 1324 <.Lline_table_start1+0x10f9>
   1dc40:	958a                	add	a1,a1,sp
   1dc42:	03100613          	li	a2,49
   1dc46:	00002097          	auipc	ra,0x2
   1dc4a:	fd6080e7          	jalr	-42(ra) # 1fc1c <memcpy>
   1dc4e:	6505                	lui	a0,0x1
   1dc50:	38050513          	addi	a0,a0,896 # 1380 <.Lline_table_start1+0x1155>
   1dc54:	950a                	add	a0,a0,sp
   1dc56:	7ff10593          	addi	a1,sp,2047
   1dc5a:	1e558593          	addi	a1,a1,485
   1dc5e:	ffff7097          	auipc	ra,0xffff7
   1dc62:	490080e7          	jalr	1168(ra) # 150ee <_ZN20complex_dynamic_type3app17h69af5f1ff569be53E>
   1dc66:	3ecac503          	lbu	a0,1004(s5)
   1dc6a:	c501                	beqz	a0,1dc72 <_start+0x2f1c>
   1dc6c:	3f0aaa03          	lw	s4,1008(s5)
   1dc70:	a8b9                	j	1dcce <_start+0x2f78>
   1dc72:	3edac583          	lbu	a1,1005(s5)
   1dc76:	3eeac603          	lbu	a2,1006(s5)
   1dc7a:	3efac683          	lbu	a3,1007(s5)
   1dc7e:	3f0aaa03          	lw	s4,1008(s5)
   1dc82:	3f4aa703          	lw	a4,1012(s5)
   1dc86:	3f8aa783          	lw	a5,1016(s5)
   1dc8a:	3fcaa483          	lw	s1,1020(s5)
   1dc8e:	400aa403          	lw	s0,1024(s5)
   1dc92:	0622                	slli	a2,a2,0x8
   1dc94:	38eaa823          	sw	a4,912(s5)
   1dc98:	38faaa23          	sw	a5,916(s5)
   1dc9c:	389aac23          	sw	s1,920(s5)
   1dca0:	388aae23          	sw	s0,924(s5)
   1dca4:	8dd1                	or	a1,a1,a2
   1dca6:	00b11423          	sh	a1,8(sp)
   1dcaa:	00d10523          	sb	a3,10(sp)
   1dcae:	404aa583          	lw	a1,1028(s5)
   1dcb2:	408aa603          	lw	a2,1032(s5)
   1dcb6:	40caa683          	lw	a3,1036(s5)
   1dcba:	410aa703          	lw	a4,1040(s5)
   1dcbe:	3abaa023          	sw	a1,928(s5)
   1dcc2:	3acaa223          	sw	a2,932(s5)
   1dcc6:	3adaa423          	sw	a3,936(s5)
   1dcca:	3aeaa623          	sw	a4,940(s5)
   1dcce:	c119                	beqz	a0,1dcd4 <_start+0x2f7e>
   1dcd0:	6290106f          	j	1faf8 <_start+0x4da2>
   1dcd4:	00811503          	lh	a0,8(sp)
   1dcd8:	00a14583          	lbu	a1,10(sp)
   1dcdc:	018a5613          	srli	a2,s4,0x18
   1dce0:	010a5693          	srli	a3,s4,0x10
   1dce4:	28d907a3          	sb	a3,655(s2)
   1dce8:	28c90823          	sb	a2,656(s2)
   1dcec:	008a5613          	srli	a2,s4,0x8
   1dcf0:	28a91523          	sh	a0,650(s2)
   1dcf4:	28b90623          	sb	a1,652(s2)
   1dcf8:	294906a3          	sb	s4,653(s2)
   1dcfc:	28c90723          	sb	a2,654(s2)
   1dd00:	7ff10513          	addi	a0,sp,2047
   1dd04:	22450513          	addi	a0,a0,548
   1dd08:	6585                	lui	a1,0x1
   1dd0a:	32458593          	addi	a1,a1,804 # 1324 <.Lline_table_start1+0x10f9>
   1dd0e:	958a                	add	a1,a1,sp
   1dd10:	02000613          	li	a2,32
   1dd14:	00002097          	auipc	ra,0x2
   1dd18:	f08080e7          	jalr	-248(ra) # 1fc1c <memcpy>
   1dd1c:	6505                	lui	a0,0x1
   1dd1e:	38050513          	addi	a0,a0,896 # 1380 <.Lline_table_start1+0x1155>
   1dd22:	950a                	add	a0,a0,sp
   1dd24:	7ff10593          	addi	a1,sp,2047
   1dd28:	21d58593          	addi	a1,a1,541
   1dd2c:	ffffc097          	auipc	ra,0xffffc
   1dd30:	dc0080e7          	jalr	-576(ra) # 19aec <_ZN20complex_dynamic_type3app17he6b12960d77f82daE>
   1dd34:	3ecac483          	lbu	s1,1004(s5)
   1dd38:	c481                	beqz	s1,1dd40 <_start+0x2fea>
   1dd3a:	3f0aaa03          	lw	s4,1008(s5)
   1dd3e:	a835                	j	1dd7a <_start+0x3024>
   1dd40:	3eeac503          	lbu	a0,1006(s5)
   1dd44:	3edac583          	lbu	a1,1005(s5)
   1dd48:	3efac603          	lbu	a2,1007(s5)
   1dd4c:	3f0aaa03          	lw	s4,1008(s5)
   1dd50:	0522                	slli	a0,a0,0x8
   1dd52:	8d4d                	or	a0,a0,a1
   1dd54:	00a11423          	sh	a0,8(sp)
   1dd58:	00c10523          	sb	a2,10(sp)
   1dd5c:	6505                	lui	a0,0x1
   1dd5e:	38850513          	addi	a0,a0,904 # 1388 <.Lline_table_start1+0x115d>
   1dd62:	00a105b3          	add	a1,sp,a0
   1dd66:	6505                	lui	a0,0x1
   1dd68:	32450513          	addi	a0,a0,804 # 1324 <.Lline_table_start1+0x10f9>
   1dd6c:	950a                	add	a0,a0,sp
   1dd6e:	04a00613          	li	a2,74
   1dd72:	00002097          	auipc	ra,0x2
   1dd76:	eaa080e7          	jalr	-342(ra) # 1fc1c <memcpy>
   1dd7a:	c099                	beqz	s1,1dd80 <_start+0x302a>
   1dd7c:	57d0106f          	j	1faf8 <_start+0x4da2>
   1dd80:	00811503          	lh	a0,8(sp)
   1dd84:	00a14583          	lbu	a1,10(sp)
   1dd88:	018a5613          	srli	a2,s4,0x18
   1dd8c:	010a5693          	srli	a3,s4,0x10
   1dd90:	2ad90ba3          	sb	a3,695(s2)
   1dd94:	2ac90c23          	sb	a2,696(s2)
   1dd98:	008a5613          	srli	a2,s4,0x8
   1dd9c:	2aa91923          	sh	a0,690(s2)
   1dda0:	2ab90a23          	sb	a1,692(s2)
   1dda4:	2b490aa3          	sb	s4,693(s2)
   1dda8:	2ac90b23          	sb	a2,694(s2)
   1ddac:	7ff10513          	addi	a0,sp,2047
   1ddb0:	24c50513          	addi	a0,a0,588
   1ddb4:	6585                	lui	a1,0x1
   1ddb6:	32458593          	addi	a1,a1,804 # 1324 <.Lline_table_start1+0x10f9>
   1ddba:	958a                	add	a1,a1,sp
   1ddbc:	04a00613          	li	a2,74
   1ddc0:	00002097          	auipc	ra,0x2
   1ddc4:	e5c080e7          	jalr	-420(ra) # 1fc1c <memcpy>
   1ddc8:	6505                	lui	a0,0x1
   1ddca:	38050513          	addi	a0,a0,896 # 1380 <.Lline_table_start1+0x1155>
   1ddce:	950a                	add	a0,a0,sp
   1ddd0:	7ff10593          	addi	a1,sp,2047
   1ddd4:	24558593          	addi	a1,a1,581
   1ddd8:	ffff6097          	auipc	ra,0xffff6
   1dddc:	39c080e7          	jalr	924(ra) # 14174 <_ZN20complex_dynamic_type3app17h4f2f0b7f4209157bE>
   1dde0:	3ecac483          	lbu	s1,1004(s5)
   1dde4:	c481                	beqz	s1,1ddec <_start+0x3096>
   1dde6:	3f0aaa03          	lw	s4,1008(s5)
   1ddea:	a835                	j	1de26 <_start+0x30d0>
   1ddec:	3eeac503          	lbu	a0,1006(s5)
   1ddf0:	3edac583          	lbu	a1,1005(s5)
   1ddf4:	3efac603          	lbu	a2,1007(s5)
   1ddf8:	3f0aaa03          	lw	s4,1008(s5)
   1ddfc:	0522                	slli	a0,a0,0x8
   1ddfe:	8d4d                	or	a0,a0,a1
   1de00:	00a11423          	sh	a0,8(sp)
   1de04:	00c10523          	sb	a2,10(sp)
   1de08:	6505                	lui	a0,0x1
   1de0a:	38850513          	addi	a0,a0,904 # 1388 <.Lline_table_start1+0x115d>
   1de0e:	00a105b3          	add	a1,sp,a0
   1de12:	6505                	lui	a0,0x1
   1de14:	32450513          	addi	a0,a0,804 # 1324 <.Lline_table_start1+0x10f9>
   1de18:	950a                	add	a0,a0,sp
   1de1a:	04800613          	li	a2,72
   1de1e:	00002097          	auipc	ra,0x2
   1de22:	dfe080e7          	jalr	-514(ra) # 1fc1c <memcpy>
   1de26:	c099                	beqz	s1,1de2c <_start+0x30d6>
   1de28:	4d10106f          	j	1faf8 <_start+0x4da2>
   1de2c:	00811503          	lh	a0,8(sp)
   1de30:	00a14583          	lbu	a1,10(sp)
   1de34:	018a5613          	srli	a2,s4,0x18
   1de38:	010a5693          	srli	a3,s4,0x10
   1de3c:	30d904a3          	sb	a3,777(s2)
   1de40:	30c90523          	sb	a2,778(s2)
   1de44:	008a5613          	srli	a2,s4,0x8
   1de48:	30a91223          	sh	a0,772(s2)
   1de4c:	30b90323          	sb	a1,774(s2)
   1de50:	314903a3          	sb	s4,775(s2)
   1de54:	30c90423          	sb	a2,776(s2)
   1de58:	7ff10513          	addi	a0,sp,2047
   1de5c:	29e50513          	addi	a0,a0,670
   1de60:	6585                	lui	a1,0x1
   1de62:	32458593          	addi	a1,a1,804 # 1324 <.Lline_table_start1+0x10f9>
   1de66:	958a                	add	a1,a1,sp
   1de68:	04800613          	li	a2,72
   1de6c:	00002097          	auipc	ra,0x2
   1de70:	db0080e7          	jalr	-592(ra) # 1fc1c <memcpy>
   1de74:	6505                	lui	a0,0x1
   1de76:	38050513          	addi	a0,a0,896 # 1380 <.Lline_table_start1+0x1155>
   1de7a:	950a                	add	a0,a0,sp
   1de7c:	7ff10593          	addi	a1,sp,2047
   1de80:	29758593          	addi	a1,a1,663
   1de84:	ffff5097          	auipc	ra,0xffff5
   1de88:	a70080e7          	jalr	-1424(ra) # 128f4 <_ZN20complex_dynamic_type3app17h24476a96fb1d7eebE>
   1de8c:	3ecac483          	lbu	s1,1004(s5)
   1de90:	c481                	beqz	s1,1de98 <_start+0x3142>
   1de92:	3f0aaa03          	lw	s4,1008(s5)
   1de96:	a835                	j	1ded2 <_start+0x317c>
   1de98:	3eeac503          	lbu	a0,1006(s5)
   1de9c:	3edac583          	lbu	a1,1005(s5)
   1dea0:	3efac603          	lbu	a2,1007(s5)
   1dea4:	3f0aaa03          	lw	s4,1008(s5)
   1dea8:	0522                	slli	a0,a0,0x8
   1deaa:	8d4d                	or	a0,a0,a1
   1deac:	00a11423          	sh	a0,8(sp)
   1deb0:	00c10523          	sb	a2,10(sp)
   1deb4:	6505                	lui	a0,0x1
   1deb6:	38850513          	addi	a0,a0,904 # 1388 <.Lline_table_start1+0x115d>
   1deba:	00a105b3          	add	a1,sp,a0
   1debe:	6505                	lui	a0,0x1
   1dec0:	32450513          	addi	a0,a0,804 # 1324 <.Lline_table_start1+0x10f9>
   1dec4:	950a                	add	a0,a0,sp
   1dec6:	05a00613          	li	a2,90
   1deca:	00002097          	auipc	ra,0x2
   1dece:	d52080e7          	jalr	-686(ra) # 1fc1c <memcpy>
   1ded2:	c099                	beqz	s1,1ded8 <_start+0x3182>
   1ded4:	4250106f          	j	1faf8 <_start+0x4da2>
   1ded8:	00811503          	lh	a0,8(sp)
   1dedc:	00a14583          	lbu	a1,10(sp)
   1dee0:	018a5613          	srli	a2,s4,0x18
   1dee4:	010a5693          	srli	a3,s4,0x10
   1dee8:	34d90ca3          	sb	a3,857(s2)
   1deec:	34c90d23          	sb	a2,858(s2)
   1def0:	008a5613          	srli	a2,s4,0x8
   1def4:	34a91a23          	sh	a0,852(s2)
   1def8:	34b90b23          	sb	a1,854(s2)
   1defc:	35490ba3          	sb	s4,855(s2)
   1df00:	34c90c23          	sb	a2,856(s2)
   1df04:	7ff10513          	addi	a0,sp,2047
   1df08:	2ee50513          	addi	a0,a0,750
   1df0c:	6585                	lui	a1,0x1
   1df0e:	32458593          	addi	a1,a1,804 # 1324 <.Lline_table_start1+0x10f9>
   1df12:	958a                	add	a1,a1,sp
   1df14:	05a00613          	li	a2,90
   1df18:	00002097          	auipc	ra,0x2
   1df1c:	d04080e7          	jalr	-764(ra) # 1fc1c <memcpy>
   1df20:	6505                	lui	a0,0x1
   1df22:	38050513          	addi	a0,a0,896 # 1380 <.Lline_table_start1+0x1155>
   1df26:	950a                	add	a0,a0,sp
   1df28:	7ff10593          	addi	a1,sp,2047
   1df2c:	2e758593          	addi	a1,a1,743
   1df30:	ffffc097          	auipc	ra,0xffffc
   1df34:	a44080e7          	jalr	-1468(ra) # 19974 <_ZN20complex_dynamic_type3app17he3e5c7e87a5879efE>
   1df38:	3ecac503          	lbu	a0,1004(s5)
   1df3c:	c501                	beqz	a0,1df44 <_start+0x31ee>
   1df3e:	3f0aaa03          	lw	s4,1008(s5)
   1df42:	a899                	j	1df98 <_start+0x3242>
   1df44:	3edac583          	lbu	a1,1005(s5)
   1df48:	3eeac603          	lbu	a2,1006(s5)
   1df4c:	3efac683          	lbu	a3,1007(s5)
   1df50:	3f0aaa03          	lw	s4,1008(s5)
   1df54:	3f4aa703          	lw	a4,1012(s5)
   1df58:	3f8aa783          	lw	a5,1016(s5)
   1df5c:	3fcaa483          	lw	s1,1020(s5)
   1df60:	400aa403          	lw	s0,1024(s5)
   1df64:	0622                	slli	a2,a2,0x8
   1df66:	38eaa823          	sw	a4,912(s5)
   1df6a:	38faaa23          	sw	a5,916(s5)
   1df6e:	389aac23          	sw	s1,920(s5)
   1df72:	388aae23          	sw	s0,924(s5)
   1df76:	8dd1                	or	a1,a1,a2
   1df78:	404aa603          	lw	a2,1028(s5)
   1df7c:	408a9703          	lh	a4,1032(s5)
   1df80:	40aac783          	lbu	a5,1034(s5)
   1df84:	00b11423          	sh	a1,8(sp)
   1df88:	00d10523          	sb	a3,10(sp)
   1df8c:	3acaa023          	sw	a2,928(s5)
   1df90:	3aea9223          	sh	a4,932(s5)
   1df94:	3afa8323          	sb	a5,934(s5)
   1df98:	c119                	beqz	a0,1df9e <_start+0x3248>
   1df9a:	35f0106f          	j	1faf8 <_start+0x4da2>
   1df9e:	00811503          	lh	a0,8(sp)
   1dfa2:	00a14583          	lbu	a1,10(sp)
   1dfa6:	018a5613          	srli	a2,s4,0x18
   1dfaa:	010a5693          	srli	a3,s4,0x10
   1dfae:	3ad90da3          	sb	a3,955(s2)
   1dfb2:	3ac90e23          	sb	a2,956(s2)
   1dfb6:	008a5613          	srli	a2,s4,0x8
   1dfba:	3aa91b23          	sh	a0,950(s2)
   1dfbe:	3ab90c23          	sb	a1,952(s2)
   1dfc2:	3b490ca3          	sb	s4,953(s2)
   1dfc6:	3ac90d23          	sb	a2,954(s2)
   1dfca:	7ff10513          	addi	a0,sp,2047
   1dfce:	35050513          	addi	a0,a0,848
   1dfd2:	6585                	lui	a1,0x1
   1dfd4:	32458593          	addi	a1,a1,804 # 1324 <.Lline_table_start1+0x10f9>
   1dfd8:	958a                	add	a1,a1,sp
   1dfda:	465d                	li	a2,23
   1dfdc:	00002097          	auipc	ra,0x2
   1dfe0:	c40080e7          	jalr	-960(ra) # 1fc1c <memcpy>
   1dfe4:	6505                	lui	a0,0x1
   1dfe6:	38050513          	addi	a0,a0,896 # 1380 <.Lline_table_start1+0x1155>
   1dfea:	950a                	add	a0,a0,sp
   1dfec:	7ff10593          	addi	a1,sp,2047
   1dff0:	34958593          	addi	a1,a1,841
   1dff4:	ffff5097          	auipc	ra,0xffff5
   1dff8:	c10080e7          	jalr	-1008(ra) # 12c04 <_ZN20complex_dynamic_type3app17h2ff365ea898607aaE>
   1dffc:	3ecac503          	lbu	a0,1004(s5)
   1e000:	c501                	beqz	a0,1e008 <_start+0x32b2>
   1e002:	3f0aaa03          	lw	s4,1008(s5)
   1e006:	a899                	j	1e05c <_start+0x3306>
   1e008:	3edac583          	lbu	a1,1005(s5)
   1e00c:	3eeac603          	lbu	a2,1006(s5)
   1e010:	3efac683          	lbu	a3,1007(s5)
   1e014:	3f0aaa03          	lw	s4,1008(s5)
   1e018:	3f4aa703          	lw	a4,1012(s5)
   1e01c:	3f8aa783          	lw	a5,1016(s5)
   1e020:	3fcaa483          	lw	s1,1020(s5)
   1e024:	400aa403          	lw	s0,1024(s5)
   1e028:	0622                	slli	a2,a2,0x8
   1e02a:	38eaa823          	sw	a4,912(s5)
   1e02e:	38faaa23          	sw	a5,916(s5)
   1e032:	389aac23          	sw	s1,920(s5)
   1e036:	388aae23          	sw	s0,924(s5)
   1e03a:	8dd1                	or	a1,a1,a2
   1e03c:	404aa603          	lw	a2,1028(s5)
   1e040:	408aa703          	lw	a4,1032(s5)
   1e044:	40ca9783          	lh	a5,1036(s5)
   1e048:	00b11423          	sh	a1,8(sp)
   1e04c:	00d10523          	sb	a3,10(sp)
   1e050:	3acaa023          	sw	a2,928(s5)
   1e054:	3aeaa223          	sw	a4,932(s5)
   1e058:	3afa9423          	sh	a5,936(s5)
   1e05c:	c119                	beqz	a0,1e062 <_start+0x330c>
   1e05e:	29b0106f          	j	1faf8 <_start+0x4da2>
   1e062:	00811503          	lh	a0,8(sp)
   1e066:	00a14583          	lbu	a1,10(sp)
   1e06a:	018a5613          	srli	a2,s4,0x18
   1e06e:	010a5693          	srli	a3,s4,0x10
   1e072:	3cd90ca3          	sb	a3,985(s2)
   1e076:	3cc90d23          	sb	a2,986(s2)
   1e07a:	008a5613          	srli	a2,s4,0x8
   1e07e:	3ca91a23          	sh	a0,980(s2)
   1e082:	3cb90b23          	sb	a1,982(s2)
   1e086:	3d490ba3          	sb	s4,983(s2)
   1e08a:	3cc90c23          	sb	a2,984(s2)
   1e08e:	7ff10513          	addi	a0,sp,2047
   1e092:	36e50513          	addi	a0,a0,878
   1e096:	6585                	lui	a1,0x1
   1e098:	32458593          	addi	a1,a1,804 # 1324 <.Lline_table_start1+0x10f9>
   1e09c:	958a                	add	a1,a1,sp
   1e09e:	4669                	li	a2,26
   1e0a0:	00002097          	auipc	ra,0x2
   1e0a4:	b7c080e7          	jalr	-1156(ra) # 1fc1c <memcpy>
   1e0a8:	6505                	lui	a0,0x1
   1e0aa:	38050513          	addi	a0,a0,896 # 1380 <.Lline_table_start1+0x1155>
   1e0ae:	950a                	add	a0,a0,sp
   1e0b0:	7ff10593          	addi	a1,sp,2047
   1e0b4:	36758593          	addi	a1,a1,871
   1e0b8:	ffff8097          	auipc	ra,0xffff8
   1e0bc:	768080e7          	jalr	1896(ra) # 16820 <_ZN20complex_dynamic_type3app17h8434967020eac213E>
   1e0c0:	3ecac483          	lbu	s1,1004(s5)
   1e0c4:	c481                	beqz	s1,1e0cc <_start+0x3376>
   1e0c6:	3f0aaa03          	lw	s4,1008(s5)
   1e0ca:	a835                	j	1e106 <_start+0x33b0>
   1e0cc:	3eeac503          	lbu	a0,1006(s5)
   1e0d0:	3edac583          	lbu	a1,1005(s5)
   1e0d4:	3efac603          	lbu	a2,1007(s5)
   1e0d8:	3f0aaa03          	lw	s4,1008(s5)
   1e0dc:	0522                	slli	a0,a0,0x8
   1e0de:	8d4d                	or	a0,a0,a1
   1e0e0:	00a11423          	sh	a0,8(sp)
   1e0e4:	00c10523          	sb	a2,10(sp)
   1e0e8:	6505                	lui	a0,0x1
   1e0ea:	38850513          	addi	a0,a0,904 # 1388 <.Lline_table_start1+0x115d>
   1e0ee:	00a105b3          	add	a1,sp,a0
   1e0f2:	6505                	lui	a0,0x1
   1e0f4:	32450513          	addi	a0,a0,804 # 1324 <.Lline_table_start1+0x10f9>
   1e0f8:	950a                	add	a0,a0,sp
   1e0fa:	02300613          	li	a2,35
   1e0fe:	00002097          	auipc	ra,0x2
   1e102:	b1e080e7          	jalr	-1250(ra) # 1fc1c <memcpy>
   1e106:	c099                	beqz	s1,1e10c <_start+0x33b6>
   1e108:	1f10106f          	j	1faf8 <_start+0x4da2>
   1e10c:	00811503          	lh	a0,8(sp)
   1e110:	00a14583          	lbu	a1,10(sp)
   1e114:	018a5613          	srli	a2,s4,0x18
   1e118:	010a5693          	srli	a3,s4,0x10
   1e11c:	3ed90da3          	sb	a3,1019(s2)
   1e120:	3ec90e23          	sb	a2,1020(s2)
   1e124:	008a5613          	srli	a2,s4,0x8
   1e128:	3ea91b23          	sh	a0,1014(s2)
   1e12c:	3eb90c23          	sb	a1,1016(s2)
   1e130:	3f490ca3          	sb	s4,1017(s2)
   1e134:	3ec90d23          	sb	a2,1018(s2)
   1e138:	7ff10513          	addi	a0,sp,2047
   1e13c:	39050513          	addi	a0,a0,912
   1e140:	6585                	lui	a1,0x1
   1e142:	32458593          	addi	a1,a1,804 # 1324 <.Lline_table_start1+0x10f9>
   1e146:	958a                	add	a1,a1,sp
   1e148:	02300613          	li	a2,35
   1e14c:	00002097          	auipc	ra,0x2
   1e150:	ad0080e7          	jalr	-1328(ra) # 1fc1c <memcpy>
   1e154:	6505                	lui	a0,0x1
   1e156:	38050513          	addi	a0,a0,896 # 1380 <.Lline_table_start1+0x1155>
   1e15a:	950a                	add	a0,a0,sp
   1e15c:	7ff10593          	addi	a1,sp,2047
   1e160:	38958593          	addi	a1,a1,905
   1e164:	ffffc097          	auipc	ra,0xffffc
   1e168:	148080e7          	jalr	328(ra) # 1a2ac <_ZN20complex_dynamic_type3app17hf5621bf945da5164E>
   1e16c:	3ecac483          	lbu	s1,1004(s5)
   1e170:	c481                	beqz	s1,1e178 <_start+0x3422>
   1e172:	3f0aaa03          	lw	s4,1008(s5)
   1e176:	a835                	j	1e1b2 <_start+0x345c>
   1e178:	3eeac503          	lbu	a0,1006(s5)
   1e17c:	3edac583          	lbu	a1,1005(s5)
   1e180:	3efac603          	lbu	a2,1007(s5)
   1e184:	3f0aaa03          	lw	s4,1008(s5)
   1e188:	0522                	slli	a0,a0,0x8
   1e18a:	8d4d                	or	a0,a0,a1
   1e18c:	00a11423          	sh	a0,8(sp)
   1e190:	00c10523          	sb	a2,10(sp)
   1e194:	6505                	lui	a0,0x1
   1e196:	38850513          	addi	a0,a0,904 # 1388 <.Lline_table_start1+0x115d>
   1e19a:	00a105b3          	add	a1,sp,a0
   1e19e:	6505                	lui	a0,0x1
   1e1a0:	32450513          	addi	a0,a0,804 # 1324 <.Lline_table_start1+0x10f9>
   1e1a4:	950a                	add	a0,a0,sp
   1e1a6:	05200613          	li	a2,82
   1e1aa:	00002097          	auipc	ra,0x2
   1e1ae:	a72080e7          	jalr	-1422(ra) # 1fc1c <memcpy>
   1e1b2:	c099                	beqz	s1,1e1b8 <_start+0x3462>
   1e1b4:	1450106f          	j	1faf8 <_start+0x4da2>
   1e1b8:	00811503          	lh	a0,8(sp)
   1e1bc:	00a14583          	lbu	a1,10(sp)
   1e1c0:	018a5613          	srli	a2,s4,0x18
   1e1c4:	010a5693          	srli	a3,s4,0x10
   1e1c8:	42d902a3          	sb	a3,1061(s2)
   1e1cc:	42c90323          	sb	a2,1062(s2)
   1e1d0:	008a5613          	srli	a2,s4,0x8
   1e1d4:	42a91023          	sh	a0,1056(s2)
   1e1d8:	42b90123          	sb	a1,1058(s2)
   1e1dc:	434901a3          	sb	s4,1059(s2)
   1e1e0:	42c90223          	sb	a2,1060(s2)
   1e1e4:	7ff10513          	addi	a0,sp,2047
   1e1e8:	3ba50513          	addi	a0,a0,954
   1e1ec:	6585                	lui	a1,0x1
   1e1ee:	32458593          	addi	a1,a1,804 # 1324 <.Lline_table_start1+0x10f9>
   1e1f2:	958a                	add	a1,a1,sp
   1e1f4:	05200613          	li	a2,82
   1e1f8:	00002097          	auipc	ra,0x2
   1e1fc:	a24080e7          	jalr	-1500(ra) # 1fc1c <memcpy>
   1e200:	6505                	lui	a0,0x1
   1e202:	38050513          	addi	a0,a0,896 # 1380 <.Lline_table_start1+0x1155>
   1e206:	950a                	add	a0,a0,sp
   1e208:	7ff10593          	addi	a1,sp,2047
   1e20c:	3b358593          	addi	a1,a1,947
   1e210:	ffff8097          	auipc	ra,0xffff8
   1e214:	e56080e7          	jalr	-426(ra) # 16066 <_ZN20complex_dynamic_type3app17h78e5f48c39462759E>
   1e218:	3ecac483          	lbu	s1,1004(s5)
   1e21c:	c481                	beqz	s1,1e224 <_start+0x34ce>
   1e21e:	3f0aaa03          	lw	s4,1008(s5)
   1e222:	a835                	j	1e25e <_start+0x3508>
   1e224:	3eeac503          	lbu	a0,1006(s5)
   1e228:	3edac583          	lbu	a1,1005(s5)
   1e22c:	3efac603          	lbu	a2,1007(s5)
   1e230:	3f0aaa03          	lw	s4,1008(s5)
   1e234:	0522                	slli	a0,a0,0x8
   1e236:	8d4d                	or	a0,a0,a1
   1e238:	00a11423          	sh	a0,8(sp)
   1e23c:	00c10523          	sb	a2,10(sp)
   1e240:	6505                	lui	a0,0x1
   1e242:	38850513          	addi	a0,a0,904 # 1388 <.Lline_table_start1+0x115d>
   1e246:	00a105b3          	add	a1,sp,a0
   1e24a:	6505                	lui	a0,0x1
   1e24c:	32450513          	addi	a0,a0,804 # 1324 <.Lline_table_start1+0x10f9>
   1e250:	950a                	add	a0,a0,sp
   1e252:	04300613          	li	a2,67
   1e256:	00002097          	auipc	ra,0x2
   1e25a:	9c6080e7          	jalr	-1594(ra) # 1fc1c <memcpy>
   1e25e:	c099                	beqz	s1,1e264 <_start+0x350e>
   1e260:	0990106f          	j	1faf8 <_start+0x4da2>
   1e264:	00811503          	lh	a0,8(sp)
   1e268:	00a14583          	lbu	a1,10(sp)
   1e26c:	018a5613          	srli	a2,s4,0x18
   1e270:	010a5693          	srli	a3,s4,0x10
   1e274:	46d90fa3          	sb	a3,1151(s2)
   1e278:	48c90023          	sb	a2,1152(s2)
   1e27c:	008a5613          	srli	a2,s4,0x8
   1e280:	46a91d23          	sh	a0,1146(s2)
   1e284:	46b90e23          	sb	a1,1148(s2)
   1e288:	47490ea3          	sb	s4,1149(s2)
   1e28c:	46c90f23          	sb	a2,1150(s2)
   1e290:	7ff10513          	addi	a0,sp,2047
   1e294:	41450513          	addi	a0,a0,1044
   1e298:	6585                	lui	a1,0x1
   1e29a:	32458593          	addi	a1,a1,804 # 1324 <.Lline_table_start1+0x10f9>
   1e29e:	958a                	add	a1,a1,sp
   1e2a0:	04300613          	li	a2,67
   1e2a4:	00002097          	auipc	ra,0x2
   1e2a8:	978080e7          	jalr	-1672(ra) # 1fc1c <memcpy>
   1e2ac:	6505                	lui	a0,0x1
   1e2ae:	38050513          	addi	a0,a0,896 # 1380 <.Lline_table_start1+0x1155>
   1e2b2:	950a                	add	a0,a0,sp
   1e2b4:	7ff10593          	addi	a1,sp,2047
   1e2b8:	40d58593          	addi	a1,a1,1037
   1e2bc:	ffff8097          	auipc	ra,0xffff8
   1e2c0:	c1c080e7          	jalr	-996(ra) # 15ed8 <_ZN20complex_dynamic_type3app17h779d9caed8dda505E>
   1e2c4:	3ecac483          	lbu	s1,1004(s5)
   1e2c8:	c481                	beqz	s1,1e2d0 <_start+0x357a>
   1e2ca:	3f0aaa03          	lw	s4,1008(s5)
   1e2ce:	a835                	j	1e30a <_start+0x35b4>
   1e2d0:	3eeac503          	lbu	a0,1006(s5)
   1e2d4:	3edac583          	lbu	a1,1005(s5)
   1e2d8:	3efac603          	lbu	a2,1007(s5)
   1e2dc:	3f0aaa03          	lw	s4,1008(s5)
   1e2e0:	0522                	slli	a0,a0,0x8
   1e2e2:	8d4d                	or	a0,a0,a1
   1e2e4:	00a11423          	sh	a0,8(sp)
   1e2e8:	00c10523          	sb	a2,10(sp)
   1e2ec:	6505                	lui	a0,0x1
   1e2ee:	38850513          	addi	a0,a0,904 # 1388 <.Lline_table_start1+0x115d>
   1e2f2:	00a105b3          	add	a1,sp,a0
   1e2f6:	6505                	lui	a0,0x1
   1e2f8:	32450513          	addi	a0,a0,804 # 1324 <.Lline_table_start1+0x10f9>
   1e2fc:	950a                	add	a0,a0,sp
   1e2fe:	02600613          	li	a2,38
   1e302:	00002097          	auipc	ra,0x2
   1e306:	91a080e7          	jalr	-1766(ra) # 1fc1c <memcpy>
   1e30a:	c099                	beqz	s1,1e310 <_start+0x35ba>
   1e30c:	7ec0106f          	j	1faf8 <_start+0x4da2>
   1e310:	00811503          	lh	a0,8(sp)
   1e314:	00a14583          	lbu	a1,10(sp)
   1e318:	018a5613          	srli	a2,s4,0x18
   1e31c:	010a5693          	srli	a3,s4,0x10
   1e320:	4cd904a3          	sb	a3,1225(s2)
   1e324:	4cc90523          	sb	a2,1226(s2)
   1e328:	008a5613          	srli	a2,s4,0x8
   1e32c:	4ca91223          	sh	a0,1220(s2)
   1e330:	4cb90323          	sb	a1,1222(s2)
   1e334:	4d4903a3          	sb	s4,1223(s2)
   1e338:	4cc90423          	sb	a2,1224(s2)
   1e33c:	7ff10513          	addi	a0,sp,2047
   1e340:	45e50513          	addi	a0,a0,1118
   1e344:	6585                	lui	a1,0x1
   1e346:	32458593          	addi	a1,a1,804 # 1324 <.Lline_table_start1+0x10f9>
   1e34a:	958a                	add	a1,a1,sp
   1e34c:	02600613          	li	a2,38
   1e350:	00002097          	auipc	ra,0x2
   1e354:	8cc080e7          	jalr	-1844(ra) # 1fc1c <memcpy>
   1e358:	6505                	lui	a0,0x1
   1e35a:	38050513          	addi	a0,a0,896 # 1380 <.Lline_table_start1+0x1155>
   1e35e:	950a                	add	a0,a0,sp
   1e360:	7ff10593          	addi	a1,sp,2047
   1e364:	45758593          	addi	a1,a1,1111
   1e368:	ffffa097          	auipc	ra,0xffffa
   1e36c:	8b0080e7          	jalr	-1872(ra) # 17c18 <_ZN20complex_dynamic_type3app17ha8697add7f51f2f2E>
   1e370:	3ecac483          	lbu	s1,1004(s5)
   1e374:	c481                	beqz	s1,1e37c <_start+0x3626>
   1e376:	3f0aaa03          	lw	s4,1008(s5)
   1e37a:	a835                	j	1e3b6 <_start+0x3660>
   1e37c:	3eeac503          	lbu	a0,1006(s5)
   1e380:	3edac583          	lbu	a1,1005(s5)
   1e384:	3efac603          	lbu	a2,1007(s5)
   1e388:	3f0aaa03          	lw	s4,1008(s5)
   1e38c:	0522                	slli	a0,a0,0x8
   1e38e:	8d4d                	or	a0,a0,a1
   1e390:	00a11423          	sh	a0,8(sp)
   1e394:	00c10523          	sb	a2,10(sp)
   1e398:	6505                	lui	a0,0x1
   1e39a:	38850513          	addi	a0,a0,904 # 1388 <.Lline_table_start1+0x115d>
   1e39e:	00a105b3          	add	a1,sp,a0
   1e3a2:	6505                	lui	a0,0x1
   1e3a4:	32450513          	addi	a0,a0,804 # 1324 <.Lline_table_start1+0x10f9>
   1e3a8:	950a                	add	a0,a0,sp
   1e3aa:	04c00613          	li	a2,76
   1e3ae:	00002097          	auipc	ra,0x2
   1e3b2:	86e080e7          	jalr	-1938(ra) # 1fc1c <memcpy>
   1e3b6:	c099                	beqz	s1,1e3bc <_start+0x3666>
   1e3b8:	7400106f          	j	1faf8 <_start+0x4da2>
   1e3bc:	00811503          	lh	a0,8(sp)
   1e3c0:	00a14583          	lbu	a1,10(sp)
   1e3c4:	018a5613          	srli	a2,s4,0x18
   1e3c8:	010a5693          	srli	a3,s4,0x10
   1e3cc:	4ed90ba3          	sb	a3,1271(s2)
   1e3d0:	4ec90c23          	sb	a2,1272(s2)
   1e3d4:	008a5613          	srli	a2,s4,0x8
   1e3d8:	4ea91923          	sh	a0,1266(s2)
   1e3dc:	4eb90a23          	sb	a1,1268(s2)
   1e3e0:	4f490aa3          	sb	s4,1269(s2)
   1e3e4:	4ec90b23          	sb	a2,1270(s2)
   1e3e8:	7ff10513          	addi	a0,sp,2047
   1e3ec:	48c50513          	addi	a0,a0,1164
   1e3f0:	6585                	lui	a1,0x1
   1e3f2:	32458593          	addi	a1,a1,804 # 1324 <.Lline_table_start1+0x10f9>
   1e3f6:	958a                	add	a1,a1,sp
   1e3f8:	04c00613          	li	a2,76
   1e3fc:	00002097          	auipc	ra,0x2
   1e400:	820080e7          	jalr	-2016(ra) # 1fc1c <memcpy>
   1e404:	6505                	lui	a0,0x1
   1e406:	38050513          	addi	a0,a0,896 # 1380 <.Lline_table_start1+0x1155>
   1e40a:	950a                	add	a0,a0,sp
   1e40c:	7ff10593          	addi	a1,sp,2047
   1e410:	48558593          	addi	a1,a1,1157
   1e414:	ffff7097          	auipc	ra,0xffff7
   1e418:	624080e7          	jalr	1572(ra) # 15a38 <_ZN20complex_dynamic_type3app17h7277047ffd7643b6E>
   1e41c:	3ecac483          	lbu	s1,1004(s5)
   1e420:	c481                	beqz	s1,1e428 <_start+0x36d2>
   1e422:	3f0aaa03          	lw	s4,1008(s5)
   1e426:	a835                	j	1e462 <_start+0x370c>
   1e428:	3eeac503          	lbu	a0,1006(s5)
   1e42c:	3edac583          	lbu	a1,1005(s5)
   1e430:	3efac603          	lbu	a2,1007(s5)
   1e434:	3f0aaa03          	lw	s4,1008(s5)
   1e438:	0522                	slli	a0,a0,0x8
   1e43a:	8d4d                	or	a0,a0,a1
   1e43c:	00a11423          	sh	a0,8(sp)
   1e440:	00c10523          	sb	a2,10(sp)
   1e444:	6505                	lui	a0,0x1
   1e446:	38850513          	addi	a0,a0,904 # 1388 <.Lline_table_start1+0x115d>
   1e44a:	00a105b3          	add	a1,sp,a0
   1e44e:	6505                	lui	a0,0x1
   1e450:	32450513          	addi	a0,a0,804 # 1324 <.Lline_table_start1+0x10f9>
   1e454:	950a                	add	a0,a0,sp
   1e456:	03300613          	li	a2,51
   1e45a:	00001097          	auipc	ra,0x1
   1e45e:	7c2080e7          	jalr	1986(ra) # 1fc1c <memcpy>
   1e462:	c099                	beqz	s1,1e468 <_start+0x3712>
   1e464:	6940106f          	j	1faf8 <_start+0x4da2>
   1e468:	00811503          	lh	a0,8(sp)
   1e46c:	00a14583          	lbu	a1,10(sp)
   1e470:	018a5613          	srli	a2,s4,0x18
   1e474:	010a5693          	srli	a3,s4,0x10
   1e478:	54d905a3          	sb	a3,1355(s2)
   1e47c:	54c90623          	sb	a2,1356(s2)
   1e480:	008a5613          	srli	a2,s4,0x8
   1e484:	54a91323          	sh	a0,1350(s2)
   1e488:	54b90423          	sb	a1,1352(s2)
   1e48c:	554904a3          	sb	s4,1353(s2)
   1e490:	54c90523          	sb	a2,1354(s2)
   1e494:	7ff10513          	addi	a0,sp,2047
   1e498:	4e050513          	addi	a0,a0,1248
   1e49c:	6585                	lui	a1,0x1
   1e49e:	32458593          	addi	a1,a1,804 # 1324 <.Lline_table_start1+0x10f9>
   1e4a2:	958a                	add	a1,a1,sp
   1e4a4:	03300613          	li	a2,51
   1e4a8:	00001097          	auipc	ra,0x1
   1e4ac:	774080e7          	jalr	1908(ra) # 1fc1c <memcpy>
   1e4b0:	6505                	lui	a0,0x1
   1e4b2:	38050513          	addi	a0,a0,896 # 1380 <.Lline_table_start1+0x1155>
   1e4b6:	950a                	add	a0,a0,sp
   1e4b8:	7ff10593          	addi	a1,sp,2047
   1e4bc:	4d958593          	addi	a1,a1,1241
   1e4c0:	ffff6097          	auipc	ra,0xffff6
   1e4c4:	e44080e7          	jalr	-444(ra) # 14304 <_ZN20complex_dynamic_type3app17h522e7adbf3e0047fE>
   1e4c8:	3ecac483          	lbu	s1,1004(s5)
   1e4cc:	c481                	beqz	s1,1e4d4 <_start+0x377e>
   1e4ce:	3f0aaa03          	lw	s4,1008(s5)
   1e4d2:	a835                	j	1e50e <_start+0x37b8>
   1e4d4:	3eeac503          	lbu	a0,1006(s5)
   1e4d8:	3edac583          	lbu	a1,1005(s5)
   1e4dc:	3efac603          	lbu	a2,1007(s5)
   1e4e0:	3f0aaa03          	lw	s4,1008(s5)
   1e4e4:	0522                	slli	a0,a0,0x8
   1e4e6:	8d4d                	or	a0,a0,a1
   1e4e8:	00a11423          	sh	a0,8(sp)
   1e4ec:	00c10523          	sb	a2,10(sp)
   1e4f0:	6505                	lui	a0,0x1
   1e4f2:	38850513          	addi	a0,a0,904 # 1388 <.Lline_table_start1+0x115d>
   1e4f6:	00a105b3          	add	a1,sp,a0
   1e4fa:	6505                	lui	a0,0x1
   1e4fc:	32450513          	addi	a0,a0,804 # 1324 <.Lline_table_start1+0x10f9>
   1e500:	950a                	add	a0,a0,sp
   1e502:	05600613          	li	a2,86
   1e506:	00001097          	auipc	ra,0x1
   1e50a:	716080e7          	jalr	1814(ra) # 1fc1c <memcpy>
   1e50e:	c099                	beqz	s1,1e514 <_start+0x37be>
   1e510:	5e80106f          	j	1faf8 <_start+0x4da2>
   1e514:	00811503          	lh	a0,8(sp)
   1e518:	00a14583          	lbu	a1,10(sp)
   1e51c:	018a5613          	srli	a2,s4,0x18
   1e520:	010a5693          	srli	a3,s4,0x10
   1e524:	58d902a3          	sb	a3,1413(s2)
   1e528:	58c90323          	sb	a2,1414(s2)
   1e52c:	008a5613          	srli	a2,s4,0x8
   1e530:	58a91023          	sh	a0,1408(s2)
   1e534:	58b90123          	sb	a1,1410(s2)
   1e538:	594901a3          	sb	s4,1411(s2)
   1e53c:	58c90223          	sb	a2,1412(s2)
   1e540:	7ff10513          	addi	a0,sp,2047
   1e544:	51a50513          	addi	a0,a0,1306
   1e548:	6585                	lui	a1,0x1
   1e54a:	32458593          	addi	a1,a1,804 # 1324 <.Lline_table_start1+0x10f9>
   1e54e:	958a                	add	a1,a1,sp
   1e550:	05600613          	li	a2,86
   1e554:	00001097          	auipc	ra,0x1
   1e558:	6c8080e7          	jalr	1736(ra) # 1fc1c <memcpy>
   1e55c:	6505                	lui	a0,0x1
   1e55e:	38050513          	addi	a0,a0,896 # 1380 <.Lline_table_start1+0x1155>
   1e562:	950a                	add	a0,a0,sp
   1e564:	7ff10593          	addi	a1,sp,2047
   1e568:	51358593          	addi	a1,a1,1299
   1e56c:	ffffb097          	auipc	ra,0xffffb
   1e570:	c58080e7          	jalr	-936(ra) # 191c4 <_ZN20complex_dynamic_type3app17hd5a352a7858226d9E>
   1e574:	3ecac483          	lbu	s1,1004(s5)
   1e578:	c481                	beqz	s1,1e580 <_start+0x382a>
   1e57a:	3f0aaa03          	lw	s4,1008(s5)
   1e57e:	a835                	j	1e5ba <_start+0x3864>
   1e580:	3eeac503          	lbu	a0,1006(s5)
   1e584:	3edac583          	lbu	a1,1005(s5)
   1e588:	3efac603          	lbu	a2,1007(s5)
   1e58c:	3f0aaa03          	lw	s4,1008(s5)
   1e590:	0522                	slli	a0,a0,0x8
   1e592:	8d4d                	or	a0,a0,a1
   1e594:	00a11423          	sh	a0,8(sp)
   1e598:	00c10523          	sb	a2,10(sp)
   1e59c:	6505                	lui	a0,0x1
   1e59e:	38850513          	addi	a0,a0,904 # 1388 <.Lline_table_start1+0x115d>
   1e5a2:	00a105b3          	add	a1,sp,a0
   1e5a6:	6505                	lui	a0,0x1
   1e5a8:	32450513          	addi	a0,a0,804 # 1324 <.Lline_table_start1+0x10f9>
   1e5ac:	950a                	add	a0,a0,sp
   1e5ae:	03900613          	li	a2,57
   1e5b2:	00001097          	auipc	ra,0x1
   1e5b6:	66a080e7          	jalr	1642(ra) # 1fc1c <memcpy>
   1e5ba:	c099                	beqz	s1,1e5c0 <_start+0x386a>
   1e5bc:	53c0106f          	j	1faf8 <_start+0x4da2>
   1e5c0:	00811503          	lh	a0,8(sp)
   1e5c4:	00a14583          	lbu	a1,10(sp)
   1e5c8:	018a5613          	srli	a2,s4,0x18
   1e5cc:	010a5693          	srli	a3,s4,0x10
   1e5d0:	5ed901a3          	sb	a3,1507(s2)
   1e5d4:	5ec90223          	sb	a2,1508(s2)
   1e5d8:	008a5613          	srli	a2,s4,0x8
   1e5dc:	5ca91f23          	sh	a0,1502(s2)
   1e5e0:	5eb90023          	sb	a1,1504(s2)
   1e5e4:	5f4900a3          	sb	s4,1505(s2)
   1e5e8:	5ec90123          	sb	a2,1506(s2)
   1e5ec:	7ff10513          	addi	a0,sp,2047
   1e5f0:	57850513          	addi	a0,a0,1400
   1e5f4:	6585                	lui	a1,0x1
   1e5f6:	32458593          	addi	a1,a1,804 # 1324 <.Lline_table_start1+0x10f9>
   1e5fa:	958a                	add	a1,a1,sp
   1e5fc:	03900613          	li	a2,57
   1e600:	00001097          	auipc	ra,0x1
   1e604:	61c080e7          	jalr	1564(ra) # 1fc1c <memcpy>
   1e608:	6505                	lui	a0,0x1
   1e60a:	38050513          	addi	a0,a0,896 # 1380 <.Lline_table_start1+0x1155>
   1e60e:	950a                	add	a0,a0,sp
   1e610:	7ff10593          	addi	a1,sp,2047
   1e614:	57158593          	addi	a1,a1,1393
   1e618:	ffffa097          	auipc	ra,0xffffa
   1e61c:	710080e7          	jalr	1808(ra) # 18d28 <_ZN20complex_dynamic_type3app17hcdf0e7eab20a34d8E>
   1e620:	3ecac483          	lbu	s1,1004(s5)
   1e624:	c481                	beqz	s1,1e62c <_start+0x38d6>
   1e626:	3f0aaa03          	lw	s4,1008(s5)
   1e62a:	a835                	j	1e666 <_start+0x3910>
   1e62c:	3eeac503          	lbu	a0,1006(s5)
   1e630:	3edac583          	lbu	a1,1005(s5)
   1e634:	3efac603          	lbu	a2,1007(s5)
   1e638:	3f0aaa03          	lw	s4,1008(s5)
   1e63c:	0522                	slli	a0,a0,0x8
   1e63e:	8d4d                	or	a0,a0,a1
   1e640:	00a11423          	sh	a0,8(sp)
   1e644:	00c10523          	sb	a2,10(sp)
   1e648:	6505                	lui	a0,0x1
   1e64a:	38850513          	addi	a0,a0,904 # 1388 <.Lline_table_start1+0x115d>
   1e64e:	00a105b3          	add	a1,sp,a0
   1e652:	6505                	lui	a0,0x1
   1e654:	32450513          	addi	a0,a0,804 # 1324 <.Lline_table_start1+0x10f9>
   1e658:	950a                	add	a0,a0,sp
   1e65a:	02a00613          	li	a2,42
   1e65e:	00001097          	auipc	ra,0x1
   1e662:	5be080e7          	jalr	1470(ra) # 1fc1c <memcpy>
   1e666:	c099                	beqz	s1,1e66c <_start+0x3916>
   1e668:	4900106f          	j	1faf8 <_start+0x4da2>
   1e66c:	00811503          	lh	a0,8(sp)
   1e670:	00a14583          	lbu	a1,10(sp)
   1e674:	018a5613          	srli	a2,s4,0x18
   1e678:	010a5693          	srli	a3,s4,0x10
   1e67c:	62d901a3          	sb	a3,1571(s2)
   1e680:	62c90223          	sb	a2,1572(s2)
   1e684:	008a5613          	srli	a2,s4,0x8
   1e688:	60a91f23          	sh	a0,1566(s2)
   1e68c:	62b90023          	sb	a1,1568(s2)
   1e690:	634900a3          	sb	s4,1569(s2)
   1e694:	62c90123          	sb	a2,1570(s2)
   1e698:	7ff10513          	addi	a0,sp,2047
   1e69c:	5b850513          	addi	a0,a0,1464
   1e6a0:	6585                	lui	a1,0x1
   1e6a2:	32458593          	addi	a1,a1,804 # 1324 <.Lline_table_start1+0x10f9>
   1e6a6:	958a                	add	a1,a1,sp
   1e6a8:	02a00613          	li	a2,42
   1e6ac:	00001097          	auipc	ra,0x1
   1e6b0:	570080e7          	jalr	1392(ra) # 1fc1c <memcpy>
   1e6b4:	6505                	lui	a0,0x1
   1e6b6:	38050513          	addi	a0,a0,896 # 1380 <.Lline_table_start1+0x1155>
   1e6ba:	950a                	add	a0,a0,sp
   1e6bc:	7ff10593          	addi	a1,sp,2047
   1e6c0:	5b158593          	addi	a1,a1,1457
   1e6c4:	ffff7097          	auipc	ra,0xffff7
   1e6c8:	504080e7          	jalr	1284(ra) # 15bc8 <_ZN20complex_dynamic_type3app17h732dd4946435e05fE>
   1e6cc:	3ecac483          	lbu	s1,1004(s5)
   1e6d0:	c481                	beqz	s1,1e6d8 <_start+0x3982>
   1e6d2:	3f0aaa03          	lw	s4,1008(s5)
   1e6d6:	a835                	j	1e712 <_start+0x39bc>
   1e6d8:	3eeac503          	lbu	a0,1006(s5)
   1e6dc:	3edac583          	lbu	a1,1005(s5)
   1e6e0:	3efac603          	lbu	a2,1007(s5)
   1e6e4:	3f0aaa03          	lw	s4,1008(s5)
   1e6e8:	0522                	slli	a0,a0,0x8
   1e6ea:	8d4d                	or	a0,a0,a1
   1e6ec:	00a11423          	sh	a0,8(sp)
   1e6f0:	00c10523          	sb	a2,10(sp)
   1e6f4:	6505                	lui	a0,0x1
   1e6f6:	38850513          	addi	a0,a0,904 # 1388 <.Lline_table_start1+0x115d>
   1e6fa:	00a105b3          	add	a1,sp,a0
   1e6fe:	6505                	lui	a0,0x1
   1e700:	32450513          	addi	a0,a0,804 # 1324 <.Lline_table_start1+0x10f9>
   1e704:	950a                	add	a0,a0,sp
   1e706:	04100613          	li	a2,65
   1e70a:	00001097          	auipc	ra,0x1
   1e70e:	512080e7          	jalr	1298(ra) # 1fc1c <memcpy>
   1e712:	c099                	beqz	s1,1e718 <_start+0x39c2>
   1e714:	3e40106f          	j	1faf8 <_start+0x4da2>
   1e718:	00811503          	lh	a0,8(sp)
   1e71c:	00a14583          	lbu	a1,10(sp)
   1e720:	018a5613          	srli	a2,s4,0x18
   1e724:	010a5693          	srli	a3,s4,0x10
   1e728:	64d90aa3          	sb	a3,1621(s2)
   1e72c:	64c90b23          	sb	a2,1622(s2)
   1e730:	008a5613          	srli	a2,s4,0x8
   1e734:	64a91823          	sh	a0,1616(s2)
   1e738:	64b90923          	sb	a1,1618(s2)
   1e73c:	654909a3          	sb	s4,1619(s2)
   1e740:	64c90a23          	sb	a2,1620(s2)
   1e744:	7ff10513          	addi	a0,sp,2047
   1e748:	5ea50513          	addi	a0,a0,1514
   1e74c:	6585                	lui	a1,0x1
   1e74e:	32458593          	addi	a1,a1,804 # 1324 <.Lline_table_start1+0x10f9>
   1e752:	958a                	add	a1,a1,sp
   1e754:	04100613          	li	a2,65
   1e758:	00001097          	auipc	ra,0x1
   1e75c:	4c4080e7          	jalr	1220(ra) # 1fc1c <memcpy>
   1e760:	6505                	lui	a0,0x1
   1e762:	38050513          	addi	a0,a0,896 # 1380 <.Lline_table_start1+0x1155>
   1e766:	950a                	add	a0,a0,sp
   1e768:	7ff10593          	addi	a1,sp,2047
   1e76c:	5e358593          	addi	a1,a1,1507
   1e770:	ffff4097          	auipc	ra,0xffff4
   1e774:	e76080e7          	jalr	-394(ra) # 125e6 <_ZN20complex_dynamic_type3app17h194ccfd0b48d032aE>
   1e778:	3ecac483          	lbu	s1,1004(s5)
   1e77c:	c481                	beqz	s1,1e784 <_start+0x3a2e>
   1e77e:	3f0aaa03          	lw	s4,1008(s5)
   1e782:	a835                	j	1e7be <_start+0x3a68>
   1e784:	3eeac503          	lbu	a0,1006(s5)
   1e788:	3edac583          	lbu	a1,1005(s5)
   1e78c:	3efac603          	lbu	a2,1007(s5)
   1e790:	3f0aaa03          	lw	s4,1008(s5)
   1e794:	0522                	slli	a0,a0,0x8
   1e796:	8d4d                	or	a0,a0,a1
   1e798:	00a11423          	sh	a0,8(sp)
   1e79c:	00c10523          	sb	a2,10(sp)
   1e7a0:	6505                	lui	a0,0x1
   1e7a2:	38850513          	addi	a0,a0,904 # 1388 <.Lline_table_start1+0x115d>
   1e7a6:	00a105b3          	add	a1,sp,a0
   1e7aa:	6505                	lui	a0,0x1
   1e7ac:	32450513          	addi	a0,a0,804 # 1324 <.Lline_table_start1+0x10f9>
   1e7b0:	950a                	add	a0,a0,sp
   1e7b2:	02200613          	li	a2,34
   1e7b6:	00001097          	auipc	ra,0x1
   1e7ba:	466080e7          	jalr	1126(ra) # 1fc1c <memcpy>
   1e7be:	c099                	beqz	s1,1e7c4 <_start+0x3a6e>
   1e7c0:	3380106f          	j	1faf8 <_start+0x4da2>
   1e7c4:	00811503          	lh	a0,8(sp)
   1e7c8:	00a14583          	lbu	a1,10(sp)
   1e7cc:	018a5613          	srli	a2,s4,0x18
   1e7d0:	010a5693          	srli	a3,s4,0x10
   1e7d4:	68d90ea3          	sb	a3,1693(s2)
   1e7d8:	68c90f23          	sb	a2,1694(s2)
   1e7dc:	008a5613          	srli	a2,s4,0x8
   1e7e0:	68a91c23          	sh	a0,1688(s2)
   1e7e4:	68b90d23          	sb	a1,1690(s2)
   1e7e8:	69490da3          	sb	s4,1691(s2)
   1e7ec:	68c90e23          	sb	a2,1692(s2)
   1e7f0:	7ff10513          	addi	a0,sp,2047
   1e7f4:	63250513          	addi	a0,a0,1586
   1e7f8:	6585                	lui	a1,0x1
   1e7fa:	32458593          	addi	a1,a1,804 # 1324 <.Lline_table_start1+0x10f9>
   1e7fe:	958a                	add	a1,a1,sp
   1e800:	02200613          	li	a2,34
   1e804:	00001097          	auipc	ra,0x1
   1e808:	418080e7          	jalr	1048(ra) # 1fc1c <memcpy>
   1e80c:	6505                	lui	a0,0x1
   1e80e:	38050513          	addi	a0,a0,896 # 1380 <.Lline_table_start1+0x1155>
   1e812:	950a                	add	a0,a0,sp
   1e814:	7ff10593          	addi	a1,sp,2047
   1e818:	62b58593          	addi	a1,a1,1579
   1e81c:	ffffb097          	auipc	ra,0xffffb
   1e820:	e44080e7          	jalr	-444(ra) # 19660 <_ZN20complex_dynamic_type3app17he0fce27ffcbdfa06E>
   1e824:	3ecac503          	lbu	a0,1004(s5)
   1e828:	c501                	beqz	a0,1e830 <_start+0x3ada>
   1e82a:	3f0aaa03          	lw	s4,1008(s5)
   1e82e:	a0b9                	j	1e87c <_start+0x3b26>
   1e830:	3edac583          	lbu	a1,1005(s5)
   1e834:	3eeac603          	lbu	a2,1006(s5)
   1e838:	3efac683          	lbu	a3,1007(s5)
   1e83c:	3f0aaa03          	lw	s4,1008(s5)
   1e840:	3f4aa703          	lw	a4,1012(s5)
   1e844:	3f8aa783          	lw	a5,1016(s5)
   1e848:	3fcaa483          	lw	s1,1020(s5)
   1e84c:	400aa403          	lw	s0,1024(s5)
   1e850:	0622                	slli	a2,a2,0x8
   1e852:	38eaa823          	sw	a4,912(s5)
   1e856:	38faaa23          	sw	a5,916(s5)
   1e85a:	389aac23          	sw	s1,920(s5)
   1e85e:	388aae23          	sw	s0,924(s5)
   1e862:	8dd1                	or	a1,a1,a2
   1e864:	404a9603          	lh	a2,1028(s5)
   1e868:	406ac703          	lbu	a4,1030(s5)
   1e86c:	00b11423          	sh	a1,8(sp)
   1e870:	00d10523          	sb	a3,10(sp)
   1e874:	3aca9023          	sh	a2,928(s5)
   1e878:	3aea8123          	sb	a4,930(s5)
   1e87c:	c119                	beqz	a0,1e882 <_start+0x3b2c>
   1e87e:	27a0106f          	j	1faf8 <_start+0x4da2>
   1e882:	00811503          	lh	a0,8(sp)
   1e886:	00a14583          	lbu	a1,10(sp)
   1e88a:	018a5613          	srli	a2,s4,0x18
   1e88e:	010a5693          	srli	a3,s4,0x10
   1e892:	6cd903a3          	sb	a3,1735(s2)
   1e896:	6cc90423          	sb	a2,1736(s2)
   1e89a:	008a5613          	srli	a2,s4,0x8
   1e89e:	6ca91123          	sh	a0,1730(s2)
   1e8a2:	6cb90223          	sb	a1,1732(s2)
   1e8a6:	6d4902a3          	sb	s4,1733(s2)
   1e8aa:	6cc90323          	sb	a2,1734(s2)
   1e8ae:	7ff10513          	addi	a0,sp,2047
   1e8b2:	65c50513          	addi	a0,a0,1628
   1e8b6:	6585                	lui	a1,0x1
   1e8b8:	32458593          	addi	a1,a1,804 # 1324 <.Lline_table_start1+0x10f9>
   1e8bc:	958a                	add	a1,a1,sp
   1e8be:	464d                	li	a2,19
   1e8c0:	00001097          	auipc	ra,0x1
   1e8c4:	35c080e7          	jalr	860(ra) # 1fc1c <memcpy>
   1e8c8:	6505                	lui	a0,0x1
   1e8ca:	38050513          	addi	a0,a0,896 # 1380 <.Lline_table_start1+0x1155>
   1e8ce:	950a                	add	a0,a0,sp
   1e8d0:	7ff10593          	addi	a1,sp,2047
   1e8d4:	65558593          	addi	a1,a1,1621
   1e8d8:	ffff5097          	auipc	ra,0xffff5
   1e8dc:	106080e7          	jalr	262(ra) # 139de <_ZN20complex_dynamic_type3app17h49ef83d193b05856E>
   1e8e0:	3ecac503          	lbu	a0,1004(s5)
   1e8e4:	c501                	beqz	a0,1e8ec <_start+0x3b96>
   1e8e6:	3f0aaa03          	lw	s4,1008(s5)
   1e8ea:	a099                	j	1e930 <_start+0x3bda>
   1e8ec:	3edac583          	lbu	a1,1005(s5)
   1e8f0:	3eeac603          	lbu	a2,1006(s5)
   1e8f4:	3efac683          	lbu	a3,1007(s5)
   1e8f8:	3f0aaa03          	lw	s4,1008(s5)
   1e8fc:	3f4aa703          	lw	a4,1012(s5)
   1e900:	3f8aa783          	lw	a5,1016(s5)
   1e904:	3fcaa483          	lw	s1,1020(s5)
   1e908:	400aa403          	lw	s0,1024(s5)
   1e90c:	38eaa823          	sw	a4,912(s5)
   1e910:	38faaa23          	sw	a5,916(s5)
   1e914:	389aac23          	sw	s1,920(s5)
   1e918:	388aae23          	sw	s0,924(s5)
   1e91c:	404aa703          	lw	a4,1028(s5)
   1e920:	0622                	slli	a2,a2,0x8
   1e922:	8dd1                	or	a1,a1,a2
   1e924:	00b11423          	sh	a1,8(sp)
   1e928:	00d10523          	sb	a3,10(sp)
   1e92c:	3aeaa023          	sw	a4,928(s5)
   1e930:	c119                	beqz	a0,1e936 <_start+0x3be0>
   1e932:	1c60106f          	j	1faf8 <_start+0x4da2>
   1e936:	00811503          	lh	a0,8(sp)
   1e93a:	00a14583          	lbu	a1,10(sp)
   1e93e:	018a5613          	srli	a2,s4,0x18
   1e942:	010a5693          	srli	a3,s4,0x10
   1e946:	6ed900a3          	sb	a3,1761(s2)
   1e94a:	6ec90123          	sb	a2,1762(s2)
   1e94e:	008a5613          	srli	a2,s4,0x8
   1e952:	6ca91e23          	sh	a0,1756(s2)
   1e956:	6cb90f23          	sb	a1,1758(s2)
   1e95a:	6d490fa3          	sb	s4,1759(s2)
   1e95e:	6ec90023          	sb	a2,1760(s2)
   1e962:	7ff10513          	addi	a0,sp,2047
   1e966:	67650513          	addi	a0,a0,1654
   1e96a:	6585                	lui	a1,0x1
   1e96c:	32458593          	addi	a1,a1,804 # 1324 <.Lline_table_start1+0x10f9>
   1e970:	958a                	add	a1,a1,sp
   1e972:	4651                	li	a2,20
   1e974:	00001097          	auipc	ra,0x1
   1e978:	2a8080e7          	jalr	680(ra) # 1fc1c <memcpy>
   1e97c:	6505                	lui	a0,0x1
   1e97e:	38050513          	addi	a0,a0,896 # 1380 <.Lline_table_start1+0x1155>
   1e982:	950a                	add	a0,a0,sp
   1e984:	7ff10593          	addi	a1,sp,2047
   1e988:	66f58593          	addi	a1,a1,1647
   1e98c:	ffff8097          	auipc	ra,0xffff8
   1e990:	868080e7          	jalr	-1944(ra) # 161f4 <_ZN20complex_dynamic_type3app17h7a0fbf01524e338aE>
   1e994:	3ecac483          	lbu	s1,1004(s5)
   1e998:	c481                	beqz	s1,1e9a0 <_start+0x3c4a>
   1e99a:	3f0aaa03          	lw	s4,1008(s5)
   1e99e:	a835                	j	1e9da <_start+0x3c84>
   1e9a0:	3eeac503          	lbu	a0,1006(s5)
   1e9a4:	3edac583          	lbu	a1,1005(s5)
   1e9a8:	3efac603          	lbu	a2,1007(s5)
   1e9ac:	3f0aaa03          	lw	s4,1008(s5)
   1e9b0:	0522                	slli	a0,a0,0x8
   1e9b2:	8d4d                	or	a0,a0,a1
   1e9b4:	00a11423          	sh	a0,8(sp)
   1e9b8:	00c10523          	sb	a2,10(sp)
   1e9bc:	6505                	lui	a0,0x1
   1e9be:	38850513          	addi	a0,a0,904 # 1388 <.Lline_table_start1+0x115d>
   1e9c2:	00a105b3          	add	a1,sp,a0
   1e9c6:	6505                	lui	a0,0x1
   1e9c8:	32450513          	addi	a0,a0,804 # 1324 <.Lline_table_start1+0x10f9>
   1e9cc:	950a                	add	a0,a0,sp
   1e9ce:	03a00613          	li	a2,58
   1e9d2:	00001097          	auipc	ra,0x1
   1e9d6:	24a080e7          	jalr	586(ra) # 1fc1c <memcpy>
   1e9da:	c099                	beqz	s1,1e9e0 <_start+0x3c8a>
   1e9dc:	11c0106f          	j	1faf8 <_start+0x4da2>
   1e9e0:	00811503          	lh	a0,8(sp)
   1e9e4:	00a14583          	lbu	a1,10(sp)
   1e9e8:	018a5613          	srli	a2,s4,0x18
   1e9ec:	010a5693          	srli	a3,s4,0x10
   1e9f0:	6ed90ea3          	sb	a3,1789(s2)
   1e9f4:	6ec90f23          	sb	a2,1790(s2)
   1e9f8:	008a5613          	srli	a2,s4,0x8
   1e9fc:	6ea91c23          	sh	a0,1784(s2)
   1ea00:	6eb90d23          	sb	a1,1786(s2)
   1ea04:	6f490da3          	sb	s4,1787(s2)
   1ea08:	6ec90e23          	sb	a2,1788(s2)
   1ea0c:	7ff10513          	addi	a0,sp,2047
   1ea10:	69250513          	addi	a0,a0,1682
   1ea14:	6585                	lui	a1,0x1
   1ea16:	32458593          	addi	a1,a1,804 # 1324 <.Lline_table_start1+0x10f9>
   1ea1a:	958a                	add	a1,a1,sp
   1ea1c:	03a00613          	li	a2,58
   1ea20:	00001097          	auipc	ra,0x1
   1ea24:	1fc080e7          	jalr	508(ra) # 1fc1c <memcpy>
   1ea28:	6505                	lui	a0,0x1
   1ea2a:	38050513          	addi	a0,a0,896 # 1380 <.Lline_table_start1+0x1155>
   1ea2e:	950a                	add	a0,a0,sp
   1ea30:	7ff10593          	addi	a1,sp,2047
   1ea34:	68b58593          	addi	a1,a1,1675
   1ea38:	ffffa097          	auipc	ra,0xffffa
   1ea3c:	fda080e7          	jalr	-38(ra) # 18a12 <_ZN20complex_dynamic_type3app17hc7d9de4582114ddfE>
   1ea40:	3ecac503          	lbu	a0,1004(s5)
   1ea44:	c501                	beqz	a0,1ea4c <_start+0x3cf6>
   1ea46:	3f0aaa03          	lw	s4,1008(s5)
   1ea4a:	a099                	j	1ea90 <_start+0x3d3a>
   1ea4c:	3edac583          	lbu	a1,1005(s5)
   1ea50:	3eeac603          	lbu	a2,1006(s5)
   1ea54:	3efac683          	lbu	a3,1007(s5)
   1ea58:	3f0aaa03          	lw	s4,1008(s5)
   1ea5c:	3f4aa703          	lw	a4,1012(s5)
   1ea60:	3f8aa783          	lw	a5,1016(s5)
   1ea64:	3fcaa483          	lw	s1,1020(s5)
   1ea68:	400aa403          	lw	s0,1024(s5)
   1ea6c:	38eaa823          	sw	a4,912(s5)
   1ea70:	38faaa23          	sw	a5,916(s5)
   1ea74:	389aac23          	sw	s1,920(s5)
   1ea78:	388aae23          	sw	s0,924(s5)
   1ea7c:	404ac703          	lbu	a4,1028(s5)
   1ea80:	0622                	slli	a2,a2,0x8
   1ea82:	8dd1                	or	a1,a1,a2
   1ea84:	00b11423          	sh	a1,8(sp)
   1ea88:	00d10523          	sb	a3,10(sp)
   1ea8c:	3aea8023          	sb	a4,928(s5)
   1ea90:	c119                	beqz	a0,1ea96 <_start+0x3d40>
   1ea92:	0660106f          	j	1faf8 <_start+0x4da2>
   1ea96:	00811503          	lh	a0,8(sp)
   1ea9a:	00a14583          	lbu	a1,10(sp)
   1ea9e:	018a5613          	srli	a2,s4,0x18
   1eaa2:	010a5693          	srli	a3,s4,0x10
   1eaa6:	72d90fa3          	sb	a3,1855(s2)
   1eaaa:	74c90023          	sb	a2,1856(s2)
   1eaae:	008a5613          	srli	a2,s4,0x8
   1eab2:	72a91d23          	sh	a0,1850(s2)
   1eab6:	72b90e23          	sb	a1,1852(s2)
   1eaba:	73490ea3          	sb	s4,1853(s2)
   1eabe:	72c90f23          	sb	a2,1854(s2)
   1eac2:	7ff10513          	addi	a0,sp,2047
   1eac6:	6d450513          	addi	a0,a0,1748
   1eaca:	6585                	lui	a1,0x1
   1eacc:	32458593          	addi	a1,a1,804 # 1324 <.Lline_table_start1+0x10f9>
   1ead0:	958a                	add	a1,a1,sp
   1ead2:	4645                	li	a2,17
   1ead4:	00001097          	auipc	ra,0x1
   1ead8:	148080e7          	jalr	328(ra) # 1fc1c <memcpy>
   1eadc:	6505                	lui	a0,0x1
   1eade:	38050513          	addi	a0,a0,896 # 1380 <.Lline_table_start1+0x1155>
   1eae2:	950a                	add	a0,a0,sp
   1eae4:	7ff10593          	addi	a1,sp,2047
   1eae8:	6cd58593          	addi	a1,a1,1741
   1eaec:	ffff8097          	auipc	ra,0xffff8
   1eaf0:	34a080e7          	jalr	842(ra) # 16e36 <_ZN20complex_dynamic_type3app17h8d91a790e550a87cE>
   1eaf4:	3ecac503          	lbu	a0,1004(s5)
   1eaf8:	c501                	beqz	a0,1eb00 <_start+0x3daa>
   1eafa:	3f0aaa03          	lw	s4,1008(s5)
   1eafe:	a899                	j	1eb54 <_start+0x3dfe>
   1eb00:	3edac583          	lbu	a1,1005(s5)
   1eb04:	3eeac603          	lbu	a2,1006(s5)
   1eb08:	3efac683          	lbu	a3,1007(s5)
   1eb0c:	3f0aaa03          	lw	s4,1008(s5)
   1eb10:	3f4aa703          	lw	a4,1012(s5)
   1eb14:	3f8aa783          	lw	a5,1016(s5)
   1eb18:	3fcaa483          	lw	s1,1020(s5)
   1eb1c:	400aa403          	lw	s0,1024(s5)
   1eb20:	0622                	slli	a2,a2,0x8
   1eb22:	38eaa823          	sw	a4,912(s5)
   1eb26:	38faaa23          	sw	a5,916(s5)
   1eb2a:	389aac23          	sw	s1,920(s5)
   1eb2e:	388aae23          	sw	s0,924(s5)
   1eb32:	8dd1                	or	a1,a1,a2
   1eb34:	404aa603          	lw	a2,1028(s5)
   1eb38:	408a9703          	lh	a4,1032(s5)
   1eb3c:	40aac783          	lbu	a5,1034(s5)
   1eb40:	00b11423          	sh	a1,8(sp)
   1eb44:	00d10523          	sb	a3,10(sp)
   1eb48:	3acaa023          	sw	a2,928(s5)
   1eb4c:	3aea9223          	sh	a4,932(s5)
   1eb50:	3afa8323          	sb	a5,934(s5)
   1eb54:	c119                	beqz	a0,1eb5a <_start+0x3e04>
   1eb56:	7a30006f          	j	1faf8 <_start+0x4da2>
   1eb5a:	00811503          	lh	a0,8(sp)
   1eb5e:	00a14583          	lbu	a1,10(sp)
   1eb62:	018a5613          	srli	a2,s4,0x18
   1eb66:	010a5693          	srli	a3,s4,0x10
   1eb6a:	74d90ba3          	sb	a3,1879(s2)
   1eb6e:	74c90c23          	sb	a2,1880(s2)
   1eb72:	008a5613          	srli	a2,s4,0x8
   1eb76:	74a91923          	sh	a0,1874(s2)
   1eb7a:	74b90a23          	sb	a1,1876(s2)
   1eb7e:	75490aa3          	sb	s4,1877(s2)
   1eb82:	74c90b23          	sb	a2,1878(s2)
   1eb86:	7ff10513          	addi	a0,sp,2047
   1eb8a:	6ec50513          	addi	a0,a0,1772
   1eb8e:	6585                	lui	a1,0x1
   1eb90:	32458593          	addi	a1,a1,804 # 1324 <.Lline_table_start1+0x10f9>
   1eb94:	958a                	add	a1,a1,sp
   1eb96:	465d                	li	a2,23
   1eb98:	00001097          	auipc	ra,0x1
   1eb9c:	084080e7          	jalr	132(ra) # 1fc1c <memcpy>
   1eba0:	6505                	lui	a0,0x1
   1eba2:	38050513          	addi	a0,a0,896 # 1380 <.Lline_table_start1+0x1155>
   1eba6:	950a                	add	a0,a0,sp
   1eba8:	7ff10593          	addi	a1,sp,2047
   1ebac:	6e558593          	addi	a1,a1,1765
   1ebb0:	ffffc097          	auipc	ra,0xffffc
   1ebb4:	01a080e7          	jalr	26(ra) # 1abca <_ZN20complex_dynamic_type3app17hfda90893ceb3cbb6E>
   1ebb8:	3ecac483          	lbu	s1,1004(s5)
   1ebbc:	c481                	beqz	s1,1ebc4 <_start+0x3e6e>
   1ebbe:	3f0aaa03          	lw	s4,1008(s5)
   1ebc2:	a835                	j	1ebfe <_start+0x3ea8>
   1ebc4:	3eeac503          	lbu	a0,1006(s5)
   1ebc8:	3edac583          	lbu	a1,1005(s5)
   1ebcc:	3efac603          	lbu	a2,1007(s5)
   1ebd0:	3f0aaa03          	lw	s4,1008(s5)
   1ebd4:	0522                	slli	a0,a0,0x8
   1ebd6:	8d4d                	or	a0,a0,a1
   1ebd8:	00a11423          	sh	a0,8(sp)
   1ebdc:	00c10523          	sb	a2,10(sp)
   1ebe0:	6505                	lui	a0,0x1
   1ebe2:	38850513          	addi	a0,a0,904 # 1388 <.Lline_table_start1+0x115d>
   1ebe6:	00a105b3          	add	a1,sp,a0
   1ebea:	6505                	lui	a0,0x1
   1ebec:	32450513          	addi	a0,a0,804 # 1324 <.Lline_table_start1+0x10f9>
   1ebf0:	950a                	add	a0,a0,sp
   1ebf2:	03500613          	li	a2,53
   1ebf6:	00001097          	auipc	ra,0x1
   1ebfa:	026080e7          	jalr	38(ra) # 1fc1c <memcpy>
   1ebfe:	6e049de3          	bnez	s1,1faf8 <_start+0x4da2>
   1ec02:	00811503          	lh	a0,8(sp)
   1ec06:	00a14583          	lbu	a1,10(sp)
   1ec0a:	018a5613          	srli	a2,s4,0x18
   1ec0e:	010a5693          	srli	a3,s4,0x10
   1ec12:	76d90aa3          	sb	a3,1909(s2)
   1ec16:	76c90b23          	sb	a2,1910(s2)
   1ec1a:	008a5613          	srli	a2,s4,0x8
   1ec1e:	76a91823          	sh	a0,1904(s2)
   1ec22:	76b90923          	sb	a1,1906(s2)
   1ec26:	774909a3          	sb	s4,1907(s2)
   1ec2a:	76c90a23          	sb	a2,1908(s2)
   1ec2e:	7ff10513          	addi	a0,sp,2047
   1ec32:	70a50513          	addi	a0,a0,1802
   1ec36:	6585                	lui	a1,0x1
   1ec38:	32458593          	addi	a1,a1,804 # 1324 <.Lline_table_start1+0x10f9>
   1ec3c:	958a                	add	a1,a1,sp
   1ec3e:	03500613          	li	a2,53
   1ec42:	00001097          	auipc	ra,0x1
   1ec46:	fda080e7          	jalr	-38(ra) # 1fc1c <memcpy>
   1ec4a:	6505                	lui	a0,0x1
   1ec4c:	38050513          	addi	a0,a0,896 # 1380 <.Lline_table_start1+0x1155>
   1ec50:	950a                	add	a0,a0,sp
   1ec52:	7ff10593          	addi	a1,sp,2047
   1ec56:	70358593          	addi	a1,a1,1795
   1ec5a:	ffff4097          	auipc	ra,0xffff4
   1ec5e:	454080e7          	jalr	1108(ra) # 130ae <_ZN20complex_dynamic_type3app17h3882064ffd5f7a01E>
   1ec62:	3ecac483          	lbu	s1,1004(s5)
   1ec66:	c481                	beqz	s1,1ec6e <_start+0x3f18>
   1ec68:	3f0aaa03          	lw	s4,1008(s5)
   1ec6c:	a835                	j	1eca8 <_start+0x3f52>
   1ec6e:	3eeac503          	lbu	a0,1006(s5)
   1ec72:	3edac583          	lbu	a1,1005(s5)
   1ec76:	3efac603          	lbu	a2,1007(s5)
   1ec7a:	3f0aaa03          	lw	s4,1008(s5)
   1ec7e:	0522                	slli	a0,a0,0x8
   1ec80:	8d4d                	or	a0,a0,a1
   1ec82:	00a11423          	sh	a0,8(sp)
   1ec86:	00c10523          	sb	a2,10(sp)
   1ec8a:	6505                	lui	a0,0x1
   1ec8c:	38850513          	addi	a0,a0,904 # 1388 <.Lline_table_start1+0x115d>
   1ec90:	00a105b3          	add	a1,sp,a0
   1ec94:	6505                	lui	a0,0x1
   1ec96:	32450513          	addi	a0,a0,804 # 1324 <.Lline_table_start1+0x10f9>
   1ec9a:	950a                	add	a0,a0,sp
   1ec9c:	02500613          	li	a2,37
   1eca0:	00001097          	auipc	ra,0x1
   1eca4:	f7c080e7          	jalr	-132(ra) # 1fc1c <memcpy>
   1eca8:	640498e3          	bnez	s1,1faf8 <_start+0x4da2>
   1ecac:	00811503          	lh	a0,8(sp)
   1ecb0:	00a14583          	lbu	a1,10(sp)
   1ecb4:	018a5613          	srli	a2,s4,0x18
   1ecb8:	010a5693          	srli	a3,s4,0x10
   1ecbc:	7ad908a3          	sb	a3,1969(s2)
   1ecc0:	7ac90923          	sb	a2,1970(s2)
   1ecc4:	008a5613          	srli	a2,s4,0x8
   1ecc8:	7aa91623          	sh	a0,1964(s2)
   1eccc:	7ab90723          	sb	a1,1966(s2)
   1ecd0:	7b4907a3          	sb	s4,1967(s2)
   1ecd4:	7ac90823          	sb	a2,1968(s2)
   1ecd8:	7ff10513          	addi	a0,sp,2047
   1ecdc:	74650513          	addi	a0,a0,1862
   1ece0:	6585                	lui	a1,0x1
   1ece2:	32458593          	addi	a1,a1,804 # 1324 <.Lline_table_start1+0x10f9>
   1ece6:	958a                	add	a1,a1,sp
   1ece8:	02500613          	li	a2,37
   1ecec:	00001097          	auipc	ra,0x1
   1ecf0:	f30080e7          	jalr	-208(ra) # 1fc1c <memcpy>
   1ecf4:	6505                	lui	a0,0x1
   1ecf6:	38050513          	addi	a0,a0,896 # 1380 <.Lline_table_start1+0x1155>
   1ecfa:	950a                	add	a0,a0,sp
   1ecfc:	7ff10593          	addi	a1,sp,2047
   1ed00:	73f58593          	addi	a1,a1,1855
   1ed04:	ffff9097          	auipc	ra,0xffff9
   1ed08:	230080e7          	jalr	560(ra) # 17f34 <_ZN20complex_dynamic_type3app17ha8df31ef18018e32E>
   1ed0c:	3ecac503          	lbu	a0,1004(s5)
   1ed10:	c501                	beqz	a0,1ed18 <_start+0x3fc2>
   1ed12:	3f0aaa03          	lw	s4,1008(s5)
   1ed16:	a8b9                	j	1ed74 <_start+0x401e>
   1ed18:	3edac583          	lbu	a1,1005(s5)
   1ed1c:	3eeac603          	lbu	a2,1006(s5)
   1ed20:	3efac683          	lbu	a3,1007(s5)
   1ed24:	3f0aaa03          	lw	s4,1008(s5)
   1ed28:	3f4aa703          	lw	a4,1012(s5)
   1ed2c:	3f8aa783          	lw	a5,1016(s5)
   1ed30:	3fcaa483          	lw	s1,1020(s5)
   1ed34:	400aa403          	lw	s0,1024(s5)
   1ed38:	0622                	slli	a2,a2,0x8
   1ed3a:	38eaa823          	sw	a4,912(s5)
   1ed3e:	38faaa23          	sw	a5,916(s5)
   1ed42:	389aac23          	sw	s1,920(s5)
   1ed46:	388aae23          	sw	s0,924(s5)
   1ed4a:	8dd1                	or	a1,a1,a2
   1ed4c:	00b11423          	sh	a1,8(sp)
   1ed50:	00d10523          	sb	a3,10(sp)
   1ed54:	404aa583          	lw	a1,1028(s5)
   1ed58:	408aa603          	lw	a2,1032(s5)
   1ed5c:	40caa683          	lw	a3,1036(s5)
   1ed60:	410aa703          	lw	a4,1040(s5)
   1ed64:	3abaa023          	sw	a1,928(s5)
   1ed68:	3acaa223          	sw	a2,932(s5)
   1ed6c:	3adaa423          	sw	a3,936(s5)
   1ed70:	3aeaa623          	sw	a4,940(s5)
   1ed74:	580512e3          	bnez	a0,1faf8 <_start+0x4da2>
   1ed78:	00811503          	lh	a0,8(sp)
   1ed7c:	00a14583          	lbu	a1,10(sp)
   1ed80:	018a5613          	srli	a2,s4,0x18
   1ed84:	010a5693          	srli	a3,s4,0x10
   1ed88:	7cd90ea3          	sb	a3,2013(s2)
   1ed8c:	7cc90f23          	sb	a2,2014(s2)
   1ed90:	008a5613          	srli	a2,s4,0x8
   1ed94:	7ca91c23          	sh	a0,2008(s2)
   1ed98:	7cb90d23          	sb	a1,2010(s2)
   1ed9c:	7d490da3          	sb	s4,2011(s2)
   1eda0:	7cc90e23          	sb	a2,2012(s2)
   1eda4:	7ff10513          	addi	a0,sp,2047
   1eda8:	77250513          	addi	a0,a0,1906
   1edac:	6585                	lui	a1,0x1
   1edae:	32458593          	addi	a1,a1,804 # 1324 <.Lline_table_start1+0x10f9>
   1edb2:	958a                	add	a1,a1,sp
   1edb4:	02000613          	li	a2,32
   1edb8:	00001097          	auipc	ra,0x1
   1edbc:	e64080e7          	jalr	-412(ra) # 1fc1c <memcpy>
   1edc0:	6505                	lui	a0,0x1
   1edc2:	38050513          	addi	a0,a0,896 # 1380 <.Lline_table_start1+0x1155>
   1edc6:	950a                	add	a0,a0,sp
   1edc8:	7ff10593          	addi	a1,sp,2047
   1edcc:	76b58593          	addi	a1,a1,1899
   1edd0:	ffff3097          	auipc	ra,0xffff3
   1edd4:	04e080e7          	jalr	78(ra) # 11e1e <_ZN20complex_dynamic_type3app17h062e3cf5a1c33a99E>
   1edd8:	3ecac403          	lbu	s0,1004(s5)
   1eddc:	c401                	beqz	s0,1ede4 <_start+0x408e>
   1edde:	3f0aaa03          	lw	s4,1008(s5)
   1ede2:	a835                	j	1ee1e <_start+0x40c8>
   1ede4:	3eeac503          	lbu	a0,1006(s5)
   1ede8:	3edac583          	lbu	a1,1005(s5)
   1edec:	3efac603          	lbu	a2,1007(s5)
   1edf0:	3f0aaa03          	lw	s4,1008(s5)
   1edf4:	0522                	slli	a0,a0,0x8
   1edf6:	8d4d                	or	a0,a0,a1
   1edf8:	00a11423          	sh	a0,8(sp)
   1edfc:	00c10523          	sb	a2,10(sp)
   1ee00:	6505                	lui	a0,0x1
   1ee02:	38850513          	addi	a0,a0,904 # 1388 <.Lline_table_start1+0x115d>
   1ee06:	00a105b3          	add	a1,sp,a0
   1ee0a:	6505                	lui	a0,0x1
   1ee0c:	32450513          	addi	a0,a0,804 # 1324 <.Lline_table_start1+0x10f9>
   1ee10:	950a                	add	a0,a0,sp
   1ee12:	04800613          	li	a2,72
   1ee16:	00001097          	auipc	ra,0x1
   1ee1a:	e06080e7          	jalr	-506(ra) # 1fc1c <memcpy>
   1ee1e:	4c041de3          	bnez	s0,1faf8 <_start+0x4da2>
   1ee22:	00811503          	lh	a0,8(sp)
   1ee26:	00a14583          	lbu	a1,10(sp)
   1ee2a:	018a5613          	srli	a2,s4,0x18
   1ee2e:	010a5693          	srli	a3,s4,0x10
   1ee32:	00da81a3          	sb	a3,3(s5)
   1ee36:	00ca8223          	sb	a2,4(s5)
   1ee3a:	008a5613          	srli	a2,s4,0x8
   1ee3e:	feaa9f23          	sh	a0,-2(s5)
   1ee42:	00ba8023          	sb	a1,0(s5)
   1ee46:	014a80a3          	sb	s4,1(s5)
   1ee4a:	00ca8123          	sb	a2,2(s5)
   1ee4e:	7ff10513          	addi	a0,sp,2047
   1ee52:	79a50513          	addi	a0,a0,1946
   1ee56:	6585                	lui	a1,0x1
   1ee58:	32458593          	addi	a1,a1,804 # 1324 <.Lline_table_start1+0x10f9>
   1ee5c:	958a                	add	a1,a1,sp
   1ee5e:	04800613          	li	a2,72
   1ee62:	00001097          	auipc	ra,0x1
   1ee66:	dba080e7          	jalr	-582(ra) # 1fc1c <memcpy>
   1ee6a:	6505                	lui	a0,0x1
   1ee6c:	38050513          	addi	a0,a0,896 # 1380 <.Lline_table_start1+0x1155>
   1ee70:	950a                	add	a0,a0,sp
   1ee72:	7ff10593          	addi	a1,sp,2047
   1ee76:	79358593          	addi	a1,a1,1939
   1ee7a:	ffff3097          	auipc	ra,0xffff3
   1ee7e:	452080e7          	jalr	1106(ra) # 122cc <_ZN20complex_dynamic_type3app17h12a492b07c131471E>
   1ee82:	3ecac403          	lbu	s0,1004(s5)
   1ee86:	c401                	beqz	s0,1ee8e <_start+0x4138>
   1ee88:	3f0aaa03          	lw	s4,1008(s5)
   1ee8c:	a835                	j	1eec8 <_start+0x4172>
   1ee8e:	3eeac503          	lbu	a0,1006(s5)
   1ee92:	3edac583          	lbu	a1,1005(s5)
   1ee96:	3efac603          	lbu	a2,1007(s5)
   1ee9a:	3f0aaa03          	lw	s4,1008(s5)
   1ee9e:	0522                	slli	a0,a0,0x8
   1eea0:	8d4d                	or	a0,a0,a1
   1eea2:	00a11423          	sh	a0,8(sp)
   1eea6:	00c10523          	sb	a2,10(sp)
   1eeaa:	6505                	lui	a0,0x1
   1eeac:	38850513          	addi	a0,a0,904 # 1388 <.Lline_table_start1+0x115d>
   1eeb0:	00a105b3          	add	a1,sp,a0
   1eeb4:	6505                	lui	a0,0x1
   1eeb6:	32450513          	addi	a0,a0,804 # 1324 <.Lline_table_start1+0x10f9>
   1eeba:	950a                	add	a0,a0,sp
   1eebc:	02e00613          	li	a2,46
   1eec0:	00001097          	auipc	ra,0x1
   1eec4:	d5c080e7          	jalr	-676(ra) # 1fc1c <memcpy>
   1eec8:	420418e3          	bnez	s0,1faf8 <_start+0x4da2>
   1eecc:	00811503          	lh	a0,8(sp)
   1eed0:	00a14583          	lbu	a1,10(sp)
   1eed4:	018a5613          	srli	a2,s4,0x18
   1eed8:	010a5693          	srli	a3,s4,0x10
   1eedc:	04da89a3          	sb	a3,83(s5)
   1eee0:	04ca8a23          	sb	a2,84(s5)
   1eee4:	008a5613          	srli	a2,s4,0x8
   1eee8:	04aa9723          	sh	a0,78(s5)
   1eeec:	04ba8823          	sb	a1,80(s5)
   1eef0:	054a88a3          	sb	s4,81(s5)
   1eef4:	04ca8923          	sb	a2,82(s5)
   1eef8:	7ff10513          	addi	a0,sp,2047
   1eefc:	7ea50513          	addi	a0,a0,2026
   1ef00:	6585                	lui	a1,0x1
   1ef02:	32458593          	addi	a1,a1,804 # 1324 <.Lline_table_start1+0x10f9>
   1ef06:	958a                	add	a1,a1,sp
   1ef08:	02e00613          	li	a2,46
   1ef0c:	00001097          	auipc	ra,0x1
   1ef10:	d10080e7          	jalr	-752(ra) # 1fc1c <memcpy>
   1ef14:	6505                	lui	a0,0x1
   1ef16:	38050513          	addi	a0,a0,896 # 1380 <.Lline_table_start1+0x1155>
   1ef1a:	950a                	add	a0,a0,sp
   1ef1c:	7ff10593          	addi	a1,sp,2047
   1ef20:	7e358593          	addi	a1,a1,2019
   1ef24:	ffff6097          	auipc	ra,0xffff6
   1ef28:	a14080e7          	jalr	-1516(ra) # 14938 <_ZN20complex_dynamic_type3app17h5dd806ef33d10e54E>
   1ef2c:	3ecac403          	lbu	s0,1004(s5)
   1ef30:	c401                	beqz	s0,1ef38 <_start+0x41e2>
   1ef32:	3f0aaa03          	lw	s4,1008(s5)
   1ef36:	a835                	j	1ef72 <_start+0x421c>
   1ef38:	3eeac503          	lbu	a0,1006(s5)
   1ef3c:	3edac583          	lbu	a1,1005(s5)
   1ef40:	3efac603          	lbu	a2,1007(s5)
   1ef44:	3f0aaa03          	lw	s4,1008(s5)
   1ef48:	0522                	slli	a0,a0,0x8
   1ef4a:	8d4d                	or	a0,a0,a1
   1ef4c:	00a11423          	sh	a0,8(sp)
   1ef50:	00c10523          	sb	a2,10(sp)
   1ef54:	6505                	lui	a0,0x1
   1ef56:	38850513          	addi	a0,a0,904 # 1388 <.Lline_table_start1+0x115d>
   1ef5a:	00a105b3          	add	a1,sp,a0
   1ef5e:	6505                	lui	a0,0x1
   1ef60:	32450513          	addi	a0,a0,804 # 1324 <.Lline_table_start1+0x10f9>
   1ef64:	950a                	add	a0,a0,sp
   1ef66:	03800613          	li	a2,56
   1ef6a:	00001097          	auipc	ra,0x1
   1ef6e:	cb2080e7          	jalr	-846(ra) # 1fc1c <memcpy>
   1ef72:	380413e3          	bnez	s0,1faf8 <_start+0x4da2>
   1ef76:	00811503          	lh	a0,8(sp)
   1ef7a:	00a14583          	lbu	a1,10(sp)
   1ef7e:	018a5613          	srli	a2,s4,0x18
   1ef82:	010a5693          	srli	a3,s4,0x10
   1ef86:	08da84a3          	sb	a3,137(s5)
   1ef8a:	08ca8523          	sb	a2,138(s5)
   1ef8e:	008a5613          	srli	a2,s4,0x8
   1ef92:	08aa9223          	sh	a0,132(s5)
   1ef96:	08ba8323          	sb	a1,134(s5)
   1ef9a:	094a83a3          	sb	s4,135(s5)
   1ef9e:	08ca8423          	sb	a2,136(s5)
   1efa2:	6505                	lui	a0,0x1
   1efa4:	057d                	addi	a0,a0,31 # 101f <.Lline_table_start1+0xdf4>
   1efa6:	950a                	add	a0,a0,sp
   1efa8:	6585                	lui	a1,0x1
   1efaa:	32458593          	addi	a1,a1,804 # 1324 <.Lline_table_start1+0x10f9>
   1efae:	958a                	add	a1,a1,sp
   1efb0:	03800613          	li	a2,56
   1efb4:	00001097          	auipc	ra,0x1
   1efb8:	c68080e7          	jalr	-920(ra) # 1fc1c <memcpy>
   1efbc:	6505                	lui	a0,0x1
   1efbe:	38050513          	addi	a0,a0,896 # 1380 <.Lline_table_start1+0x1155>
   1efc2:	950a                	add	a0,a0,sp
   1efc4:	6585                	lui	a1,0x1
   1efc6:	05e1                	addi	a1,a1,24 # 1018 <.Lline_table_start1+0xded>
   1efc8:	958a                	add	a1,a1,sp
   1efca:	ffff6097          	auipc	ra,0xffff6
   1efce:	c8c080e7          	jalr	-884(ra) # 14c56 <_ZN20complex_dynamic_type3app17h65df588b6d03fec5E>
   1efd2:	3ecac503          	lbu	a0,1004(s5)
   1efd6:	c501                	beqz	a0,1efde <_start+0x4288>
   1efd8:	3f0aaa03          	lw	s4,1008(s5)
   1efdc:	a81d                	j	1f012 <_start+0x42bc>
   1efde:	3eeac583          	lbu	a1,1006(s5)
   1efe2:	3edac603          	lbu	a2,1005(s5)
   1efe6:	3efac683          	lbu	a3,1007(s5)
   1efea:	3f0aaa03          	lw	s4,1008(s5)
   1efee:	05a2                	slli	a1,a1,0x8
   1eff0:	8dd1                	or	a1,a1,a2
   1eff2:	3f4aa603          	lw	a2,1012(s5)
   1eff6:	3f8aa703          	lw	a4,1016(s5)
   1effa:	3fca9783          	lh	a5,1020(s5)
   1effe:	00b11423          	sh	a1,8(sp)
   1f002:	00d10523          	sb	a3,10(sp)
   1f006:	38caa823          	sw	a2,912(s5)
   1f00a:	38eaaa23          	sw	a4,916(s5)
   1f00e:	38fa9c23          	sh	a5,920(s5)
   1f012:	2e0513e3          	bnez	a0,1faf8 <_start+0x4da2>
   1f016:	00811503          	lh	a0,8(sp)
   1f01a:	00a14583          	lbu	a1,10(sp)
   1f01e:	018a5613          	srli	a2,s4,0x18
   1f022:	010a5693          	srli	a3,s4,0x10
   1f026:	0cda84a3          	sb	a3,201(s5)
   1f02a:	0cca8523          	sb	a2,202(s5)
   1f02e:	008a5613          	srli	a2,s4,0x8
   1f032:	0caa9223          	sh	a0,196(s5)
   1f036:	0cba8323          	sb	a1,198(s5)
   1f03a:	0d4a83a3          	sb	s4,199(s5)
   1f03e:	0cca8423          	sb	a2,200(s5)
   1f042:	6505                	lui	a0,0x1
   1f044:	05f50513          	addi	a0,a0,95 # 105f <.Lline_table_start1+0xe34>
   1f048:	950a                	add	a0,a0,sp
   1f04a:	6585                	lui	a1,0x1
   1f04c:	32458593          	addi	a1,a1,804 # 1324 <.Lline_table_start1+0x10f9>
   1f050:	958a                	add	a1,a1,sp
   1f052:	4629                	li	a2,10
   1f054:	00001097          	auipc	ra,0x1
   1f058:	bc8080e7          	jalr	-1080(ra) # 1fc1c <memcpy>
   1f05c:	6505                	lui	a0,0x1
   1f05e:	38050513          	addi	a0,a0,896 # 1380 <.Lline_table_start1+0x1155>
   1f062:	950a                	add	a0,a0,sp
   1f064:	6585                	lui	a1,0x1
   1f066:	05858593          	addi	a1,a1,88 # 1058 <.Lline_table_start1+0xe2d>
   1f06a:	958a                	add	a1,a1,sp
   1f06c:	ffff6097          	auipc	ra,0xffff6
   1f070:	526080e7          	jalr	1318(ra) # 15592 <_ZN20complex_dynamic_type3app17h6e6aa260c3d2248fE>
   1f074:	3ecac403          	lbu	s0,1004(s5)
   1f078:	c401                	beqz	s0,1f080 <_start+0x432a>
   1f07a:	3f0aaa03          	lw	s4,1008(s5)
   1f07e:	a835                	j	1f0ba <_start+0x4364>
   1f080:	3eeac503          	lbu	a0,1006(s5)
   1f084:	3edac583          	lbu	a1,1005(s5)
   1f088:	3efac603          	lbu	a2,1007(s5)
   1f08c:	3f0aaa03          	lw	s4,1008(s5)
   1f090:	0522                	slli	a0,a0,0x8
   1f092:	8d4d                	or	a0,a0,a1
   1f094:	00a11423          	sh	a0,8(sp)
   1f098:	00c10523          	sb	a2,10(sp)
   1f09c:	6505                	lui	a0,0x1
   1f09e:	38850513          	addi	a0,a0,904 # 1388 <.Lline_table_start1+0x115d>
   1f0a2:	00a105b3          	add	a1,sp,a0
   1f0a6:	6505                	lui	a0,0x1
   1f0a8:	32450513          	addi	a0,a0,804 # 1324 <.Lline_table_start1+0x10f9>
   1f0ac:	950a                	add	a0,a0,sp
   1f0ae:	03800613          	li	a2,56
   1f0b2:	00001097          	auipc	ra,0x1
   1f0b6:	b6a080e7          	jalr	-1174(ra) # 1fc1c <memcpy>
   1f0ba:	22041fe3          	bnez	s0,1faf8 <_start+0x4da2>
   1f0be:	00811503          	lh	a0,8(sp)
   1f0c2:	00a14583          	lbu	a1,10(sp)
   1f0c6:	018a5613          	srli	a2,s4,0x18
   1f0ca:	010a5693          	srli	a3,s4,0x10
   1f0ce:	0cda8da3          	sb	a3,219(s5)
   1f0d2:	0cca8e23          	sb	a2,220(s5)
   1f0d6:	008a5613          	srli	a2,s4,0x8
   1f0da:	0caa9b23          	sh	a0,214(s5)
   1f0de:	0cba8c23          	sb	a1,216(s5)
   1f0e2:	0d4a8ca3          	sb	s4,217(s5)
   1f0e6:	0cca8d23          	sb	a2,218(s5)
   1f0ea:	6505                	lui	a0,0x1
   1f0ec:	07150513          	addi	a0,a0,113 # 1071 <.Lline_table_start1+0xe46>
   1f0f0:	950a                	add	a0,a0,sp
   1f0f2:	6585                	lui	a1,0x1
   1f0f4:	32458593          	addi	a1,a1,804 # 1324 <.Lline_table_start1+0x10f9>
   1f0f8:	958a                	add	a1,a1,sp
   1f0fa:	03800613          	li	a2,56
   1f0fe:	00001097          	auipc	ra,0x1
   1f102:	b1e080e7          	jalr	-1250(ra) # 1fc1c <memcpy>
   1f106:	6505                	lui	a0,0x1
   1f108:	38050513          	addi	a0,a0,896 # 1380 <.Lline_table_start1+0x1155>
   1f10c:	950a                	add	a0,a0,sp
   1f10e:	6585                	lui	a1,0x1
   1f110:	06a58593          	addi	a1,a1,106 # 106a <.Lline_table_start1+0xe3f>
   1f114:	958a                	add	a1,a1,sp
   1f116:	ffff4097          	auipc	ra,0xffff4
   1f11a:	2b2080e7          	jalr	690(ra) # 133c8 <_ZN20complex_dynamic_type3app17h412c4def733f867dE>
   1f11e:	3ecac503          	lbu	a0,1004(s5)
   1f122:	c501                	beqz	a0,1f12a <_start+0x43d4>
   1f124:	3f0aaa03          	lw	s4,1008(s5)
   1f128:	a0b9                	j	1f176 <_start+0x4420>
   1f12a:	3edac583          	lbu	a1,1005(s5)
   1f12e:	3eeac603          	lbu	a2,1006(s5)
   1f132:	3efac683          	lbu	a3,1007(s5)
   1f136:	3f0aaa03          	lw	s4,1008(s5)
   1f13a:	3f4aa703          	lw	a4,1012(s5)
   1f13e:	3f8aa783          	lw	a5,1016(s5)
   1f142:	3fcaa483          	lw	s1,1020(s5)
   1f146:	400aa403          	lw	s0,1024(s5)
   1f14a:	0622                	slli	a2,a2,0x8
   1f14c:	38eaa823          	sw	a4,912(s5)
   1f150:	38faaa23          	sw	a5,916(s5)
   1f154:	389aac23          	sw	s1,920(s5)
   1f158:	388aae23          	sw	s0,924(s5)
   1f15c:	8dd1                	or	a1,a1,a2
   1f15e:	404aa603          	lw	a2,1028(s5)
   1f162:	408ac703          	lbu	a4,1032(s5)
   1f166:	00b11423          	sh	a1,8(sp)
   1f16a:	00d10523          	sb	a3,10(sp)
   1f16e:	3acaa023          	sw	a2,928(s5)
   1f172:	3aea8223          	sb	a4,932(s5)
   1f176:	180511e3          	bnez	a0,1faf8 <_start+0x4da2>
   1f17a:	00811503          	lh	a0,8(sp)
   1f17e:	00a14583          	lbu	a1,10(sp)
   1f182:	018a5613          	srli	a2,s4,0x18
   1f186:	010a5693          	srli	a3,s4,0x10
   1f18a:	10da8da3          	sb	a3,283(s5)
   1f18e:	10ca8e23          	sb	a2,284(s5)
   1f192:	008a5613          	srli	a2,s4,0x8
   1f196:	10aa9b23          	sh	a0,278(s5)
   1f19a:	10ba8c23          	sb	a1,280(s5)
   1f19e:	114a8ca3          	sb	s4,281(s5)
   1f1a2:	10ca8d23          	sb	a2,282(s5)
   1f1a6:	6505                	lui	a0,0x1
   1f1a8:	0b150513          	addi	a0,a0,177 # 10b1 <.Lline_table_start1+0xe86>
   1f1ac:	950a                	add	a0,a0,sp
   1f1ae:	6585                	lui	a1,0x1
   1f1b0:	32458593          	addi	a1,a1,804 # 1324 <.Lline_table_start1+0x10f9>
   1f1b4:	958a                	add	a1,a1,sp
   1f1b6:	4655                	li	a2,21
   1f1b8:	00001097          	auipc	ra,0x1
   1f1bc:	a64080e7          	jalr	-1436(ra) # 1fc1c <memcpy>
   1f1c0:	6505                	lui	a0,0x1
   1f1c2:	38050513          	addi	a0,a0,896 # 1380 <.Lline_table_start1+0x1155>
   1f1c6:	950a                	add	a0,a0,sp
   1f1c8:	6585                	lui	a1,0x1
   1f1ca:	0aa58593          	addi	a1,a1,170 # 10aa <.Lline_table_start1+0xe7f>
   1f1ce:	958a                	add	a1,a1,sp
   1f1d0:	ffffb097          	auipc	ra,0xffffb
   1f1d4:	aac080e7          	jalr	-1364(ra) # 19c7c <_ZN20complex_dynamic_type3app17he7d99f2c7ce51736E>
   1f1d8:	3ecac403          	lbu	s0,1004(s5)
   1f1dc:	c401                	beqz	s0,1f1e4 <_start+0x448e>
   1f1de:	3f0aaa03          	lw	s4,1008(s5)
   1f1e2:	a835                	j	1f21e <_start+0x44c8>
   1f1e4:	3eeac503          	lbu	a0,1006(s5)
   1f1e8:	3edac583          	lbu	a1,1005(s5)
   1f1ec:	3efac603          	lbu	a2,1007(s5)
   1f1f0:	3f0aaa03          	lw	s4,1008(s5)
   1f1f4:	0522                	slli	a0,a0,0x8
   1f1f6:	8d4d                	or	a0,a0,a1
   1f1f8:	00a11423          	sh	a0,8(sp)
   1f1fc:	00c10523          	sb	a2,10(sp)
   1f200:	6505                	lui	a0,0x1
   1f202:	38850513          	addi	a0,a0,904 # 1388 <.Lline_table_start1+0x115d>
   1f206:	00a105b3          	add	a1,sp,a0
   1f20a:	6505                	lui	a0,0x1
   1f20c:	32450513          	addi	a0,a0,804 # 1324 <.Lline_table_start1+0x10f9>
   1f210:	950a                	add	a0,a0,sp
   1f212:	05600613          	li	a2,86
   1f216:	00001097          	auipc	ra,0x1
   1f21a:	a06080e7          	jalr	-1530(ra) # 1fc1c <memcpy>
   1f21e:	0c041de3          	bnez	s0,1faf8 <_start+0x4da2>
   1f222:	00811503          	lh	a0,8(sp)
   1f226:	00a14583          	lbu	a1,10(sp)
   1f22a:	018a5613          	srli	a2,s4,0x18
   1f22e:	010a5693          	srli	a3,s4,0x10
   1f232:	12da8ba3          	sb	a3,311(s5)
   1f236:	12ca8c23          	sb	a2,312(s5)
   1f23a:	008a5613          	srli	a2,s4,0x8
   1f23e:	12aa9923          	sh	a0,306(s5)
   1f242:	12ba8a23          	sb	a1,308(s5)
   1f246:	134a8aa3          	sb	s4,309(s5)
   1f24a:	12ca8b23          	sb	a2,310(s5)
   1f24e:	6505                	lui	a0,0x1
   1f250:	0cd50513          	addi	a0,a0,205 # 10cd <.Lline_table_start1+0xea2>
   1f254:	950a                	add	a0,a0,sp
   1f256:	6585                	lui	a1,0x1
   1f258:	32458593          	addi	a1,a1,804 # 1324 <.Lline_table_start1+0x10f9>
   1f25c:	958a                	add	a1,a1,sp
   1f25e:	05600613          	li	a2,86
   1f262:	00001097          	auipc	ra,0x1
   1f266:	9ba080e7          	jalr	-1606(ra) # 1fc1c <memcpy>
   1f26a:	6505                	lui	a0,0x1
   1f26c:	38050513          	addi	a0,a0,896 # 1380 <.Lline_table_start1+0x1155>
   1f270:	950a                	add	a0,a0,sp
   1f272:	6585                	lui	a1,0x1
   1f274:	0c658593          	addi	a1,a1,198 # 10c6 <.Lline_table_start1+0xe9b>
   1f278:	958a                	add	a1,a1,sp
   1f27a:	ffffb097          	auipc	ra,0xffffb
   1f27e:	352080e7          	jalr	850(ra) # 1a5cc <_ZN20complex_dynamic_type3app17hf6cf9870029b5d8aE>
   1f282:	3ecac503          	lbu	a0,1004(s5)
   1f286:	c501                	beqz	a0,1f28e <_start+0x4538>
   1f288:	3f0aaa03          	lw	s4,1008(s5)
   1f28c:	a83d                	j	1f2ca <_start+0x4574>
   1f28e:	3eeac583          	lbu	a1,1006(s5)
   1f292:	3edac603          	lbu	a2,1005(s5)
   1f296:	3efac683          	lbu	a3,1007(s5)
   1f29a:	3f0aaa03          	lw	s4,1008(s5)
   1f29e:	05a2                	slli	a1,a1,0x8
   1f2a0:	8dd1                	or	a1,a1,a2
   1f2a2:	00b11423          	sh	a1,8(sp)
   1f2a6:	00d10523          	sb	a3,10(sp)
   1f2aa:	3f4aa583          	lw	a1,1012(s5)
   1f2ae:	3f8aa603          	lw	a2,1016(s5)
   1f2b2:	3fca9683          	lh	a3,1020(s5)
   1f2b6:	3feac703          	lbu	a4,1022(s5)
   1f2ba:	38baa823          	sw	a1,912(s5)
   1f2be:	38caaa23          	sw	a2,916(s5)
   1f2c2:	38da9c23          	sh	a3,920(s5)
   1f2c6:	38ea8d23          	sb	a4,922(s5)
   1f2ca:	020517e3          	bnez	a0,1faf8 <_start+0x4da2>
   1f2ce:	00811503          	lh	a0,8(sp)
   1f2d2:	00a14583          	lbu	a1,10(sp)
   1f2d6:	018a5613          	srli	a2,s4,0x18
   1f2da:	010a5693          	srli	a3,s4,0x10
   1f2de:	18da8aa3          	sb	a3,405(s5)
   1f2e2:	18ca8b23          	sb	a2,406(s5)
   1f2e6:	008a5613          	srli	a2,s4,0x8
   1f2ea:	18aa9823          	sh	a0,400(s5)
   1f2ee:	18ba8923          	sb	a1,402(s5)
   1f2f2:	194a89a3          	sb	s4,403(s5)
   1f2f6:	18ca8a23          	sb	a2,404(s5)
   1f2fa:	6505                	lui	a0,0x1
   1f2fc:	12b50513          	addi	a0,a0,299 # 112b <.Lline_table_start1+0xf00>
   1f300:	950a                	add	a0,a0,sp
   1f302:	6585                	lui	a1,0x1
   1f304:	32458593          	addi	a1,a1,804 # 1324 <.Lline_table_start1+0x10f9>
   1f308:	958a                	add	a1,a1,sp
   1f30a:	462d                	li	a2,11
   1f30c:	00001097          	auipc	ra,0x1
   1f310:	910080e7          	jalr	-1776(ra) # 1fc1c <memcpy>
   1f314:	6505                	lui	a0,0x1
   1f316:	38050513          	addi	a0,a0,896 # 1380 <.Lline_table_start1+0x1155>
   1f31a:	950a                	add	a0,a0,sp
   1f31c:	6585                	lui	a1,0x1
   1f31e:	12458593          	addi	a1,a1,292 # 1124 <.Lline_table_start1+0xef9>
   1f322:	958a                	add	a1,a1,sp
   1f324:	ffff9097          	auipc	ra,0xffff9
   1f328:	244080e7          	jalr	580(ra) # 18568 <_ZN20complex_dynamic_type3app17hb85b2d1db81cc407E>
   1f32c:	3ecac403          	lbu	s0,1004(s5)
   1f330:	c401                	beqz	s0,1f338 <_start+0x45e2>
   1f332:	3f0aaa03          	lw	s4,1008(s5)
   1f336:	a835                	j	1f372 <_start+0x461c>
   1f338:	3eeac503          	lbu	a0,1006(s5)
   1f33c:	3edac583          	lbu	a1,1005(s5)
   1f340:	3efac603          	lbu	a2,1007(s5)
   1f344:	3f0aaa03          	lw	s4,1008(s5)
   1f348:	0522                	slli	a0,a0,0x8
   1f34a:	8d4d                	or	a0,a0,a1
   1f34c:	00a11423          	sh	a0,8(sp)
   1f350:	00c10523          	sb	a2,10(sp)
   1f354:	6505                	lui	a0,0x1
   1f356:	38850513          	addi	a0,a0,904 # 1388 <.Lline_table_start1+0x115d>
   1f35a:	00a105b3          	add	a1,sp,a0
   1f35e:	6505                	lui	a0,0x1
   1f360:	32450513          	addi	a0,a0,804 # 1324 <.Lline_table_start1+0x10f9>
   1f364:	950a                	add	a0,a0,sp
   1f366:	03d00613          	li	a2,61
   1f36a:	00001097          	auipc	ra,0x1
   1f36e:	8b2080e7          	jalr	-1870(ra) # 1fc1c <memcpy>
   1f372:	78041363          	bnez	s0,1faf8 <_start+0x4da2>
   1f376:	00811503          	lh	a0,8(sp)
   1f37a:	00a14583          	lbu	a1,10(sp)
   1f37e:	018a5613          	srli	a2,s4,0x18
   1f382:	010a5693          	srli	a3,s4,0x10
   1f386:	1ada83a3          	sb	a3,423(s5)
   1f38a:	1aca8423          	sb	a2,424(s5)
   1f38e:	008a5613          	srli	a2,s4,0x8
   1f392:	1aaa9123          	sh	a0,418(s5)
   1f396:	1aba8223          	sb	a1,420(s5)
   1f39a:	1b4a82a3          	sb	s4,421(s5)
   1f39e:	1aca8323          	sb	a2,422(s5)
   1f3a2:	6505                	lui	a0,0x1
   1f3a4:	13d50513          	addi	a0,a0,317 # 113d <.Lline_table_start1+0xf12>
   1f3a8:	950a                	add	a0,a0,sp
   1f3aa:	6585                	lui	a1,0x1
   1f3ac:	32458593          	addi	a1,a1,804 # 1324 <.Lline_table_start1+0x10f9>
   1f3b0:	958a                	add	a1,a1,sp
   1f3b2:	03d00613          	li	a2,61
   1f3b6:	00001097          	auipc	ra,0x1
   1f3ba:	866080e7          	jalr	-1946(ra) # 1fc1c <memcpy>
   1f3be:	6505                	lui	a0,0x1
   1f3c0:	38050513          	addi	a0,a0,896 # 1380 <.Lline_table_start1+0x1155>
   1f3c4:	950a                	add	a0,a0,sp
   1f3c6:	6585                	lui	a1,0x1
   1f3c8:	13658593          	addi	a1,a1,310 # 1136 <.Lline_table_start1+0xf0b>
   1f3cc:	958a                	add	a1,a1,sp
   1f3ce:	ffff5097          	auipc	ra,0xffff5
   1f3d2:	250080e7          	jalr	592(ra) # 1461e <_ZN20complex_dynamic_type3app17h5cd6708296fd38baE>
   1f3d6:	3ecac503          	lbu	a0,1004(s5)
   1f3da:	c501                	beqz	a0,1f3e2 <_start+0x468c>
   1f3dc:	3f0aaa03          	lw	s4,1008(s5)
   1f3e0:	a899                	j	1f436 <_start+0x46e0>
   1f3e2:	3edac583          	lbu	a1,1005(s5)
   1f3e6:	3eeac603          	lbu	a2,1006(s5)
   1f3ea:	3efac683          	lbu	a3,1007(s5)
   1f3ee:	3f0aaa03          	lw	s4,1008(s5)
   1f3f2:	3f4aa703          	lw	a4,1012(s5)
   1f3f6:	3f8aa783          	lw	a5,1016(s5)
   1f3fa:	3fcaa483          	lw	s1,1020(s5)
   1f3fe:	400aa403          	lw	s0,1024(s5)
   1f402:	0622                	slli	a2,a2,0x8
   1f404:	38eaa823          	sw	a4,912(s5)
   1f408:	38faaa23          	sw	a5,916(s5)
   1f40c:	389aac23          	sw	s1,920(s5)
   1f410:	388aae23          	sw	s0,924(s5)
   1f414:	8dd1                	or	a1,a1,a2
   1f416:	404aa603          	lw	a2,1028(s5)
   1f41a:	408aa703          	lw	a4,1032(s5)
   1f41e:	40caa783          	lw	a5,1036(s5)
   1f422:	00b11423          	sh	a1,8(sp)
   1f426:	00d10523          	sb	a3,10(sp)
   1f42a:	3acaa023          	sw	a2,928(s5)
   1f42e:	3aeaa223          	sw	a4,932(s5)
   1f432:	3afaa423          	sw	a5,936(s5)
   1f436:	6c051163          	bnez	a0,1faf8 <_start+0x4da2>
   1f43a:	00811503          	lh	a0,8(sp)
   1f43e:	00a14583          	lbu	a1,10(sp)
   1f442:	018a5613          	srli	a2,s4,0x18
   1f446:	010a5693          	srli	a3,s4,0x10
   1f44a:	1eda85a3          	sb	a3,491(s5)
   1f44e:	1eca8623          	sb	a2,492(s5)
   1f452:	008a5613          	srli	a2,s4,0x8
   1f456:	1eaa9323          	sh	a0,486(s5)
   1f45a:	1eba8423          	sb	a1,488(s5)
   1f45e:	1f4a84a3          	sb	s4,489(s5)
   1f462:	1eca8523          	sb	a2,490(s5)
   1f466:	6505                	lui	a0,0x1
   1f468:	18150513          	addi	a0,a0,385 # 1181 <.Lline_table_start1+0xf56>
   1f46c:	950a                	add	a0,a0,sp
   1f46e:	6585                	lui	a1,0x1
   1f470:	32458593          	addi	a1,a1,804 # 1324 <.Lline_table_start1+0x10f9>
   1f474:	958a                	add	a1,a1,sp
   1f476:	4671                	li	a2,28
   1f478:	00000097          	auipc	ra,0x0
   1f47c:	7a4080e7          	jalr	1956(ra) # 1fc1c <memcpy>
   1f480:	6505                	lui	a0,0x1
   1f482:	38050513          	addi	a0,a0,896 # 1380 <.Lline_table_start1+0x1155>
   1f486:	950a                	add	a0,a0,sp
   1f488:	6585                	lui	a1,0x1
   1f48a:	17a58593          	addi	a1,a1,378 # 117a <.Lline_table_start1+0xf4f>
   1f48e:	958a                	add	a1,a1,sp
   1f490:	ffff9097          	auipc	ra,0xffff9
   1f494:	264080e7          	jalr	612(ra) # 186f4 <_ZN20complex_dynamic_type3app17hb996a9ad7e02c73dE>
   1f498:	3ecac503          	lbu	a0,1004(s5)
   1f49c:	c501                	beqz	a0,1f4a4 <_start+0x474e>
   1f49e:	3f0aaa03          	lw	s4,1008(s5)
   1f4a2:	a8b9                	j	1f500 <_start+0x47aa>
   1f4a4:	3edac583          	lbu	a1,1005(s5)
   1f4a8:	3eeac603          	lbu	a2,1006(s5)
   1f4ac:	3efac683          	lbu	a3,1007(s5)
   1f4b0:	3f0aaa03          	lw	s4,1008(s5)
   1f4b4:	3f4aa703          	lw	a4,1012(s5)
   1f4b8:	3f8aa783          	lw	a5,1016(s5)
   1f4bc:	3fcaa483          	lw	s1,1020(s5)
   1f4c0:	400aa403          	lw	s0,1024(s5)
   1f4c4:	0622                	slli	a2,a2,0x8
   1f4c6:	38eaa823          	sw	a4,912(s5)
   1f4ca:	38faaa23          	sw	a5,916(s5)
   1f4ce:	389aac23          	sw	s1,920(s5)
   1f4d2:	388aae23          	sw	s0,924(s5)
   1f4d6:	8dd1                	or	a1,a1,a2
   1f4d8:	00b11423          	sh	a1,8(sp)
   1f4dc:	00d10523          	sb	a3,10(sp)
   1f4e0:	404aa583          	lw	a1,1028(s5)
   1f4e4:	408aa603          	lw	a2,1032(s5)
   1f4e8:	40caa683          	lw	a3,1036(s5)
   1f4ec:	410ac703          	lbu	a4,1040(s5)
   1f4f0:	3abaa023          	sw	a1,928(s5)
   1f4f4:	3acaa223          	sw	a2,932(s5)
   1f4f8:	3adaa423          	sw	a3,936(s5)
   1f4fc:	3aea8623          	sb	a4,940(s5)
   1f500:	5e051c63          	bnez	a0,1faf8 <_start+0x4da2>
   1f504:	00811503          	lh	a0,8(sp)
   1f508:	00a14583          	lbu	a1,10(sp)
   1f50c:	018a5613          	srli	a2,s4,0x18
   1f510:	010a5693          	srli	a3,s4,0x10
   1f514:	20da87a3          	sb	a3,527(s5)
   1f518:	20ca8823          	sb	a2,528(s5)
   1f51c:	008a5613          	srli	a2,s4,0x8
   1f520:	20aa9523          	sh	a0,522(s5)
   1f524:	20ba8623          	sb	a1,524(s5)
   1f528:	214a86a3          	sb	s4,525(s5)
   1f52c:	20ca8723          	sb	a2,526(s5)
   1f530:	6505                	lui	a0,0x1
   1f532:	1a550513          	addi	a0,a0,421 # 11a5 <.Lline_table_start1+0xf7a>
   1f536:	950a                	add	a0,a0,sp
   1f538:	6585                	lui	a1,0x1
   1f53a:	32458593          	addi	a1,a1,804 # 1324 <.Lline_table_start1+0x10f9>
   1f53e:	958a                	add	a1,a1,sp
   1f540:	4675                	li	a2,29
   1f542:	00000097          	auipc	ra,0x0
   1f546:	6da080e7          	jalr	1754(ra) # 1fc1c <memcpy>
   1f54a:	6505                	lui	a0,0x1
   1f54c:	38050513          	addi	a0,a0,896 # 1380 <.Lline_table_start1+0x1155>
   1f550:	950a                	add	a0,a0,sp
   1f552:	6585                	lui	a1,0x1
   1f554:	19e58593          	addi	a1,a1,414 # 119e <.Lline_table_start1+0xf73>
   1f558:	958a                	add	a1,a1,sp
   1f55a:	ffff9097          	auipc	ra,0xffff9
   1f55e:	cf8080e7          	jalr	-776(ra) # 18252 <_ZN20complex_dynamic_type3app17hb4fae434c053e601E>
   1f562:	3ecac403          	lbu	s0,1004(s5)
   1f566:	c401                	beqz	s0,1f56e <_start+0x4818>
   1f568:	3f0aaa03          	lw	s4,1008(s5)
   1f56c:	a835                	j	1f5a8 <_start+0x4852>
   1f56e:	3eeac503          	lbu	a0,1006(s5)
   1f572:	3edac583          	lbu	a1,1005(s5)
   1f576:	3efac603          	lbu	a2,1007(s5)
   1f57a:	3f0aaa03          	lw	s4,1008(s5)
   1f57e:	0522                	slli	a0,a0,0x8
   1f580:	8d4d                	or	a0,a0,a1
   1f582:	00a11423          	sh	a0,8(sp)
   1f586:	00c10523          	sb	a2,10(sp)
   1f58a:	6505                	lui	a0,0x1
   1f58c:	38850513          	addi	a0,a0,904 # 1388 <.Lline_table_start1+0x115d>
   1f590:	00a105b3          	add	a1,sp,a0
   1f594:	6505                	lui	a0,0x1
   1f596:	32450513          	addi	a0,a0,804 # 1324 <.Lline_table_start1+0x10f9>
   1f59a:	950a                	add	a0,a0,sp
   1f59c:	02800613          	li	a2,40
   1f5a0:	00000097          	auipc	ra,0x0
   1f5a4:	67c080e7          	jalr	1660(ra) # 1fc1c <memcpy>
   1f5a8:	54041863          	bnez	s0,1faf8 <_start+0x4da2>
   1f5ac:	00811503          	lh	a0,8(sp)
   1f5b0:	00a14583          	lbu	a1,10(sp)
   1f5b4:	018a5613          	srli	a2,s4,0x18
   1f5b8:	010a5693          	srli	a3,s4,0x10
   1f5bc:	22da89a3          	sb	a3,563(s5)
   1f5c0:	22ca8a23          	sb	a2,564(s5)
   1f5c4:	008a5613          	srli	a2,s4,0x8
   1f5c8:	22aa9723          	sh	a0,558(s5)
   1f5cc:	22ba8823          	sb	a1,560(s5)
   1f5d0:	234a88a3          	sb	s4,561(s5)
   1f5d4:	22ca8923          	sb	a2,562(s5)
   1f5d8:	6505                	lui	a0,0x1
   1f5da:	1c950513          	addi	a0,a0,457 # 11c9 <.Lline_table_start1+0xf9e>
   1f5de:	950a                	add	a0,a0,sp
   1f5e0:	6585                	lui	a1,0x1
   1f5e2:	32458593          	addi	a1,a1,804 # 1324 <.Lline_table_start1+0x10f9>
   1f5e6:	958a                	add	a1,a1,sp
   1f5e8:	02800613          	li	a2,40
   1f5ec:	00000097          	auipc	ra,0x0
   1f5f0:	630080e7          	jalr	1584(ra) # 1fc1c <memcpy>
   1f5f4:	6505                	lui	a0,0x1
   1f5f6:	38050513          	addi	a0,a0,896 # 1380 <.Lline_table_start1+0x1155>
   1f5fa:	950a                	add	a0,a0,sp
   1f5fc:	6585                	lui	a1,0x1
   1f5fe:	1c258593          	addi	a1,a1,450 # 11c2 <.Lline_table_start1+0xf97>
   1f602:	958a                	add	a1,a1,sp
   1f604:	ffffb097          	auipc	ra,0xffffb
   1f608:	446080e7          	jalr	1094(ra) # 1aa4a <_ZN20complex_dynamic_type3app17hfd2c3f0b7e68a9dcE>
   1f60c:	3ecac403          	lbu	s0,1004(s5)
   1f610:	c401                	beqz	s0,1f618 <_start+0x48c2>
   1f612:	3f0aaa03          	lw	s4,1008(s5)
   1f616:	a835                	j	1f652 <_start+0x48fc>
   1f618:	3eeac503          	lbu	a0,1006(s5)
   1f61c:	3edac583          	lbu	a1,1005(s5)
   1f620:	3efac603          	lbu	a2,1007(s5)
   1f624:	3f0aaa03          	lw	s4,1008(s5)
   1f628:	0522                	slli	a0,a0,0x8
   1f62a:	8d4d                	or	a0,a0,a1
   1f62c:	00a11423          	sh	a0,8(sp)
   1f630:	00c10523          	sb	a2,10(sp)
   1f634:	6505                	lui	a0,0x1
   1f636:	38850513          	addi	a0,a0,904 # 1388 <.Lline_table_start1+0x115d>
   1f63a:	00a105b3          	add	a1,sp,a0
   1f63e:	6505                	lui	a0,0x1
   1f640:	32450513          	addi	a0,a0,804 # 1324 <.Lline_table_start1+0x10f9>
   1f644:	950a                	add	a0,a0,sp
   1f646:	05700613          	li	a2,87
   1f64a:	00000097          	auipc	ra,0x0
   1f64e:	5d2080e7          	jalr	1490(ra) # 1fc1c <memcpy>
   1f652:	4a041363          	bnez	s0,1faf8 <_start+0x4da2>
   1f656:	00811503          	lh	a0,8(sp)
   1f65a:	00a14583          	lbu	a1,10(sp)
   1f65e:	018a5613          	srli	a2,s4,0x18
   1f662:	010a5693          	srli	a3,s4,0x10
   1f666:	26da81a3          	sb	a3,611(s5)
   1f66a:	26ca8223          	sb	a2,612(s5)
   1f66e:	008a5613          	srli	a2,s4,0x8
   1f672:	24aa9f23          	sh	a0,606(s5)
   1f676:	26ba8023          	sb	a1,608(s5)
   1f67a:	274a80a3          	sb	s4,609(s5)
   1f67e:	26ca8123          	sb	a2,610(s5)
   1f682:	6505                	lui	a0,0x1
   1f684:	1f950513          	addi	a0,a0,505 # 11f9 <.Lline_table_start1+0xfce>
   1f688:	950a                	add	a0,a0,sp
   1f68a:	6585                	lui	a1,0x1
   1f68c:	32458593          	addi	a1,a1,804 # 1324 <.Lline_table_start1+0x10f9>
   1f690:	958a                	add	a1,a1,sp
   1f692:	05700613          	li	a2,87
   1f696:	00000097          	auipc	ra,0x0
   1f69a:	586080e7          	jalr	1414(ra) # 1fc1c <memcpy>
   1f69e:	6505                	lui	a0,0x1
   1f6a0:	38050513          	addi	a0,a0,896 # 1380 <.Lline_table_start1+0x1155>
   1f6a4:	950a                	add	a0,a0,sp
   1f6a6:	6585                	lui	a1,0x1
   1f6a8:	1f258593          	addi	a1,a1,498 # 11f2 <.Lline_table_start1+0xfc7>
   1f6ac:	958a                	add	a1,a1,sp
   1f6ae:	ffff7097          	auipc	ra,0xffff7
   1f6b2:	47e080e7          	jalr	1150(ra) # 16b2c <_ZN20complex_dynamic_type3app17h8657d3d593b19dc0E>
   1f6b6:	3ecac403          	lbu	s0,1004(s5)
   1f6ba:	c401                	beqz	s0,1f6c2 <_start+0x496c>
   1f6bc:	3f0aaa03          	lw	s4,1008(s5)
   1f6c0:	a835                	j	1f6fc <_start+0x49a6>
   1f6c2:	3eeac503          	lbu	a0,1006(s5)
   1f6c6:	3edac583          	lbu	a1,1005(s5)
   1f6ca:	3efac603          	lbu	a2,1007(s5)
   1f6ce:	3f0aaa03          	lw	s4,1008(s5)
   1f6d2:	0522                	slli	a0,a0,0x8
   1f6d4:	8d4d                	or	a0,a0,a1
   1f6d6:	00a11423          	sh	a0,8(sp)
   1f6da:	00c10523          	sb	a2,10(sp)
   1f6de:	6505                	lui	a0,0x1
   1f6e0:	38850513          	addi	a0,a0,904 # 1388 <.Lline_table_start1+0x115d>
   1f6e4:	00a105b3          	add	a1,sp,a0
   1f6e8:	6505                	lui	a0,0x1
   1f6ea:	32450513          	addi	a0,a0,804 # 1324 <.Lline_table_start1+0x10f9>
   1f6ee:	950a                	add	a0,a0,sp
   1f6f0:	04e00613          	li	a2,78
   1f6f4:	00000097          	auipc	ra,0x0
   1f6f8:	528080e7          	jalr	1320(ra) # 1fc1c <memcpy>
   1f6fc:	3e041e63          	bnez	s0,1faf8 <_start+0x4da2>
   1f700:	00811503          	lh	a0,8(sp)
   1f704:	00a14583          	lbu	a1,10(sp)
   1f708:	018a5613          	srli	a2,s4,0x18
   1f70c:	010a5693          	srli	a3,s4,0x10
   1f710:	2cda80a3          	sb	a3,705(s5)
   1f714:	2cca8123          	sb	a2,706(s5)
   1f718:	008a5613          	srli	a2,s4,0x8
   1f71c:	2aaa9e23          	sh	a0,700(s5)
   1f720:	2aba8f23          	sb	a1,702(s5)
   1f724:	2b4a8fa3          	sb	s4,703(s5)
   1f728:	2cca8023          	sb	a2,704(s5)
   1f72c:	6505                	lui	a0,0x1
   1f72e:	25750513          	addi	a0,a0,599 # 1257 <.Lline_table_start1+0x102c>
   1f732:	950a                	add	a0,a0,sp
   1f734:	6585                	lui	a1,0x1
   1f736:	32458593          	addi	a1,a1,804 # 1324 <.Lline_table_start1+0x10f9>
   1f73a:	958a                	add	a1,a1,sp
   1f73c:	04e00613          	li	a2,78
   1f740:	00000097          	auipc	ra,0x0
   1f744:	4dc080e7          	jalr	1244(ra) # 1fc1c <memcpy>
   1f748:	6505                	lui	a0,0x1
   1f74a:	38050513          	addi	a0,a0,896 # 1380 <.Lline_table_start1+0x1155>
   1f74e:	950a                	add	a0,a0,sp
   1f750:	6585                	lui	a1,0x1
   1f752:	25058593          	addi	a1,a1,592 # 1250 <.Lline_table_start1+0x1025>
   1f756:	958a                	add	a1,a1,sp
   1f758:	ffff4097          	auipc	ra,0xffff4
   1f75c:	df8080e7          	jalr	-520(ra) # 13550 <_ZN20complex_dynamic_type3app17h417cb03cf89d2c4bE>
   1f760:	3ecac503          	lbu	a0,1004(s5)
   1f764:	c501                	beqz	a0,1f76c <_start+0x4a16>
   1f766:	3f0aaa03          	lw	s4,1008(s5)
   1f76a:	a81d                	j	1f7a0 <_start+0x4a4a>
   1f76c:	3eeac583          	lbu	a1,1006(s5)
   1f770:	3edac603          	lbu	a2,1005(s5)
   1f774:	3efac683          	lbu	a3,1007(s5)
   1f778:	3f0aaa03          	lw	s4,1008(s5)
   1f77c:	05a2                	slli	a1,a1,0x8
   1f77e:	8dd1                	or	a1,a1,a2
   1f780:	3f4aa603          	lw	a2,1012(s5)
   1f784:	3f8aa703          	lw	a4,1016(s5)
   1f788:	3fca9783          	lh	a5,1020(s5)
   1f78c:	00b11423          	sh	a1,8(sp)
   1f790:	00d10523          	sb	a3,10(sp)
   1f794:	38caa823          	sw	a2,912(s5)
   1f798:	38eaaa23          	sw	a4,916(s5)
   1f79c:	38fa9c23          	sh	a5,920(s5)
   1f7a0:	34051c63          	bnez	a0,1faf8 <_start+0x4da2>
   1f7a4:	00811503          	lh	a0,8(sp)
   1f7a8:	00a14583          	lbu	a1,10(sp)
   1f7ac:	018a5613          	srli	a2,s4,0x18
   1f7b0:	010a5693          	srli	a3,s4,0x10
   1f7b4:	30da8ba3          	sb	a3,791(s5)
   1f7b8:	30ca8c23          	sb	a2,792(s5)
   1f7bc:	008a5613          	srli	a2,s4,0x8
   1f7c0:	30aa9923          	sh	a0,786(s5)
   1f7c4:	30ba8a23          	sb	a1,788(s5)
   1f7c8:	314a8aa3          	sb	s4,789(s5)
   1f7cc:	30ca8b23          	sb	a2,790(s5)
   1f7d0:	6505                	lui	a0,0x1
   1f7d2:	2ad50513          	addi	a0,a0,685 # 12ad <.Lline_table_start1+0x1082>
   1f7d6:	950a                	add	a0,a0,sp
   1f7d8:	6585                	lui	a1,0x1
   1f7da:	32458593          	addi	a1,a1,804 # 1324 <.Lline_table_start1+0x10f9>
   1f7de:	958a                	add	a1,a1,sp
   1f7e0:	4629                	li	a2,10
   1f7e2:	00000097          	auipc	ra,0x0
   1f7e6:	43a080e7          	jalr	1082(ra) # 1fc1c <memcpy>
   1f7ea:	6505                	lui	a0,0x1
   1f7ec:	38050513          	addi	a0,a0,896 # 1380 <.Lline_table_start1+0x1155>
   1f7f0:	950a                	add	a0,a0,sp
   1f7f2:	6585                	lui	a1,0x1
   1f7f4:	2a658593          	addi	a1,a1,678 # 12a6 <.Lline_table_start1+0x107b>
   1f7f8:	958a                	add	a1,a1,sp
   1f7fa:	ffff5097          	auipc	ra,0xffff5
   1f7fe:	fb2080e7          	jalr	-78(ra) # 147ac <_ZN20complex_dynamic_type3app17h5d6bba6438f73f36E>
   1f802:	3ecac403          	lbu	s0,1004(s5)
   1f806:	c401                	beqz	s0,1f80e <_start+0x4ab8>
   1f808:	3f0aaa03          	lw	s4,1008(s5)
   1f80c:	a835                	j	1f848 <_start+0x4af2>
   1f80e:	3eeac503          	lbu	a0,1006(s5)
   1f812:	3edac583          	lbu	a1,1005(s5)
   1f816:	3efac603          	lbu	a2,1007(s5)
   1f81a:	3f0aaa03          	lw	s4,1008(s5)
   1f81e:	0522                	slli	a0,a0,0x8
   1f820:	8d4d                	or	a0,a0,a1
   1f822:	00a11423          	sh	a0,8(sp)
   1f826:	00c10523          	sb	a2,10(sp)
   1f82a:	6505                	lui	a0,0x1
   1f82c:	38850513          	addi	a0,a0,904 # 1388 <.Lline_table_start1+0x115d>
   1f830:	00a105b3          	add	a1,sp,a0
   1f834:	6505                	lui	a0,0x1
   1f836:	32450513          	addi	a0,a0,804 # 1324 <.Lline_table_start1+0x10f9>
   1f83a:	950a                	add	a0,a0,sp
   1f83c:	04900613          	li	a2,73
   1f840:	00000097          	auipc	ra,0x0
   1f844:	3dc080e7          	jalr	988(ra) # 1fc1c <memcpy>
   1f848:	2a041863          	bnez	s0,1faf8 <_start+0x4da2>
   1f84c:	00811503          	lh	a0,8(sp)
   1f850:	00a14583          	lbu	a1,10(sp)
   1f854:	018a5613          	srli	a2,s4,0x18
   1f858:	010a5693          	srli	a3,s4,0x10
   1f85c:	32da84a3          	sb	a3,809(s5)
   1f860:	32ca8523          	sb	a2,810(s5)
   1f864:	008a5613          	srli	a2,s4,0x8
   1f868:	32aa9223          	sh	a0,804(s5)
   1f86c:	32ba8323          	sb	a1,806(s5)
   1f870:	334a83a3          	sb	s4,807(s5)
   1f874:	32ca8423          	sb	a2,808(s5)
   1f878:	6505                	lui	a0,0x1
   1f87a:	2bf50513          	addi	a0,a0,703 # 12bf <.Lline_table_start1+0x1094>
   1f87e:	950a                	add	a0,a0,sp
   1f880:	6585                	lui	a1,0x1
   1f882:	32458593          	addi	a1,a1,804 # 1324 <.Lline_table_start1+0x10f9>
   1f886:	958a                	add	a1,a1,sp
   1f888:	04900613          	li	a2,73
   1f88c:	00000097          	auipc	ra,0x0
   1f890:	390080e7          	jalr	912(ra) # 1fc1c <memcpy>
   1f894:	6505                	lui	a0,0x1
   1f896:	38050513          	addi	a0,a0,896 # 1380 <.Lline_table_start1+0x1155>
   1f89a:	950a                	add	a0,a0,sp
   1f89c:	6585                	lui	a1,0x1
   1f89e:	2b858593          	addi	a1,a1,696 # 12b8 <.Lline_table_start1+0x108d>
   1f8a2:	958a                	add	a1,a1,sp
   1f8a4:	ffff7097          	auipc	ra,0xffff7
   1f8a8:	718080e7          	jalr	1816(ra) # 16fbc <_ZN20complex_dynamic_type3app17h93668936b9d8f256E>
   1f8ac:	3ecac503          	lbu	a0,1004(s5)
   1f8b0:	c501                	beqz	a0,1f8b8 <_start+0x4b62>
   1f8b2:	3f0aaa03          	lw	s4,1008(s5)
   1f8b6:	a099                	j	1f8fc <_start+0x4ba6>
   1f8b8:	3edac583          	lbu	a1,1005(s5)
   1f8bc:	3eeac603          	lbu	a2,1006(s5)
   1f8c0:	3efac683          	lbu	a3,1007(s5)
   1f8c4:	3f0aaa03          	lw	s4,1008(s5)
   1f8c8:	3f4aa703          	lw	a4,1012(s5)
   1f8cc:	3f8aa783          	lw	a5,1016(s5)
   1f8d0:	3fcaa483          	lw	s1,1020(s5)
   1f8d4:	400aa403          	lw	s0,1024(s5)
   1f8d8:	38eaa823          	sw	a4,912(s5)
   1f8dc:	38faaa23          	sw	a5,916(s5)
   1f8e0:	389aac23          	sw	s1,920(s5)
   1f8e4:	388aae23          	sw	s0,924(s5)
   1f8e8:	404aa703          	lw	a4,1028(s5)
   1f8ec:	0622                	slli	a2,a2,0x8
   1f8ee:	8dd1                	or	a1,a1,a2
   1f8f0:	00b11423          	sh	a1,8(sp)
   1f8f4:	00d10523          	sb	a3,10(sp)
   1f8f8:	3aeaa023          	sw	a4,928(s5)
   1f8fc:	1e051e63          	bnez	a0,1faf8 <_start+0x4da2>
   1f900:	00811503          	lh	a0,8(sp)
   1f904:	00a14583          	lbu	a1,10(sp)
   1f908:	018a5613          	srli	a2,s4,0x18
   1f90c:	010a5693          	srli	a3,s4,0x10
   1f910:	36da8ca3          	sb	a3,889(s5)
   1f914:	36ca8d23          	sb	a2,890(s5)
   1f918:	008a5613          	srli	a2,s4,0x8
   1f91c:	36aa9a23          	sh	a0,884(s5)
   1f920:	36ba8b23          	sb	a1,886(s5)
   1f924:	374a8ba3          	sb	s4,887(s5)
   1f928:	36ca8c23          	sb	a2,888(s5)
   1f92c:	6505                	lui	a0,0x1
   1f92e:	30f50513          	addi	a0,a0,783 # 130f <.Lline_table_start1+0x10e4>
   1f932:	950a                	add	a0,a0,sp
   1f934:	6585                	lui	a1,0x1
   1f936:	32458593          	addi	a1,a1,804 # 1324 <.Lline_table_start1+0x10f9>
   1f93a:	958a                	add	a1,a1,sp
   1f93c:	4651                	li	a2,20
   1f93e:	00000097          	auipc	ra,0x0
   1f942:	2de080e7          	jalr	734(ra) # 1fc1c <memcpy>
   1f946:	6505                	lui	a0,0x1
   1f948:	38050513          	addi	a0,a0,896 # 1380 <.Lline_table_start1+0x1155>
   1f94c:	950a                	add	a0,a0,sp
   1f94e:	6585                	lui	a1,0x1
   1f950:	30858593          	addi	a1,a1,776 # 1308 <.Lline_table_start1+0x10dd>
   1f954:	958a                	add	a1,a1,sp
   1f956:	ffffa097          	auipc	ra,0xffffa
   1f95a:	e92080e7          	jalr	-366(ra) # 197e8 <_ZN20complex_dynamic_type3app17he12e656b52cbfabeE>
   1f95e:	3ecac403          	lbu	s0,1004(s5)
   1f962:	c401                	beqz	s0,1f96a <_start+0x4c14>
   1f964:	3f0aaa03          	lw	s4,1008(s5)
   1f968:	a835                	j	1f9a4 <_start+0x4c4e>
   1f96a:	3eeac503          	lbu	a0,1006(s5)
   1f96e:	3edac583          	lbu	a1,1005(s5)
   1f972:	3efac603          	lbu	a2,1007(s5)
   1f976:	3f0aaa03          	lw	s4,1008(s5)
   1f97a:	0522                	slli	a0,a0,0x8
   1f97c:	8d4d                	or	a0,a0,a1
   1f97e:	00a11423          	sh	a0,8(sp)
   1f982:	00c10523          	sb	a2,10(sp)
   1f986:	6505                	lui	a0,0x1
   1f988:	38850513          	addi	a0,a0,904 # 1388 <.Lline_table_start1+0x115d>
   1f98c:	00a105b3          	add	a1,sp,a0
   1f990:	6505                	lui	a0,0x1
   1f992:	32450513          	addi	a0,a0,804 # 1324 <.Lline_table_start1+0x10f9>
   1f996:	950a                	add	a0,a0,sp
   1f998:	05c00613          	li	a2,92
   1f99c:	00000097          	auipc	ra,0x0
   1f9a0:	280080e7          	jalr	640(ra) # 1fc1c <memcpy>
   1f9a4:	14041a63          	bnez	s0,1faf8 <_start+0x4da2>
   1f9a8:	00811503          	lh	a0,8(sp)
   1f9ac:	00a14583          	lbu	a1,10(sp)
   1f9b0:	018a5613          	srli	a2,s4,0x18
   1f9b4:	010a5693          	srli	a3,s4,0x10
   1f9b8:	44da8ba3          	sb	a3,1111(s5)
   1f9bc:	44ca8c23          	sb	a2,1112(s5)
   1f9c0:	008a5613          	srli	a2,s4,0x8
   1f9c4:	44aa9923          	sh	a0,1106(s5)
   1f9c8:	44ba8a23          	sb	a1,1108(s5)
   1f9cc:	454a8aa3          	sb	s4,1109(s5)
   1f9d0:	44ca8b23          	sb	a2,1110(s5)
   1f9d4:	6505                	lui	a0,0x1
   1f9d6:	3ed50513          	addi	a0,a0,1005 # 13ed <.Lline_table_start1+0x11c2>
   1f9da:	950a                	add	a0,a0,sp
   1f9dc:	6585                	lui	a1,0x1
   1f9de:	32458593          	addi	a1,a1,804 # 1324 <.Lline_table_start1+0x10f9>
   1f9e2:	958a                	add	a1,a1,sp
   1f9e4:	05c00613          	li	a2,92
   1f9e8:	00000097          	auipc	ra,0x0
   1f9ec:	234080e7          	jalr	564(ra) # 1fc1c <memcpy>
   1f9f0:	6505                	lui	a0,0x1
   1f9f2:	38050513          	addi	a0,a0,896 # 1380 <.Lline_table_start1+0x1155>
   1f9f6:	950a                	add	a0,a0,sp
   1f9f8:	6585                	lui	a1,0x1
   1f9fa:	3e658593          	addi	a1,a1,998 # 13e6 <.Lline_table_start1+0x11bb>
   1f9fe:	958a                	add	a1,a1,sp
   1fa00:	ffff4097          	auipc	ra,0xffff4
   1fa04:	2f4080e7          	jalr	756(ra) # 13cf4 <_ZN20complex_dynamic_type3app17h4c4bbc7a23dd73c5E>
   1fa08:	3ecac403          	lbu	s0,1004(s5)
   1fa0c:	c401                	beqz	s0,1fa14 <_start+0x4cbe>
   1fa0e:	3f0aaa03          	lw	s4,1008(s5)
   1fa12:	a835                	j	1fa4e <_start+0x4cf8>
   1fa14:	3eeac503          	lbu	a0,1006(s5)
   1fa18:	3edac583          	lbu	a1,1005(s5)
   1fa1c:	3efac603          	lbu	a2,1007(s5)
   1fa20:	3f0aaa03          	lw	s4,1008(s5)
   1fa24:	0522                	slli	a0,a0,0x8
   1fa26:	8d4d                	or	a0,a0,a1
   1fa28:	00a11423          	sh	a0,8(sp)
   1fa2c:	00c10523          	sb	a2,10(sp)
   1fa30:	6505                	lui	a0,0x1
   1fa32:	38850513          	addi	a0,a0,904 # 1388 <.Lline_table_start1+0x115d>
   1fa36:	00a105b3          	add	a1,sp,a0
   1fa3a:	6505                	lui	a0,0x1
   1fa3c:	32450513          	addi	a0,a0,804 # 1324 <.Lline_table_start1+0x10f9>
   1fa40:	950a                	add	a0,a0,sp
   1fa42:	02500613          	li	a2,37
   1fa46:	00000097          	auipc	ra,0x0
   1fa4a:	1d6080e7          	jalr	470(ra) # 1fc1c <memcpy>
   1fa4e:	e44d                	bnez	s0,1faf8 <_start+0x4da2>
   1fa50:	00811503          	lh	a0,8(sp)
   1fa54:	00a14583          	lbu	a1,10(sp)
   1fa58:	018a5613          	srli	a2,s4,0x18
   1fa5c:	010a5693          	srli	a3,s4,0x10
   1fa60:	4ada8da3          	sb	a3,1211(s5)
   1fa64:	4aca8e23          	sb	a2,1212(s5)
   1fa68:	008a5613          	srli	a2,s4,0x8
   1fa6c:	4aaa9b23          	sh	a0,1206(s5)
   1fa70:	4aba8c23          	sb	a1,1208(s5)
   1fa74:	4b4a8ca3          	sb	s4,1209(s5)
   1fa78:	4aca8d23          	sb	a2,1210(s5)
   1fa7c:	6505                	lui	a0,0x1
   1fa7e:	45150513          	addi	a0,a0,1105 # 1451 <.Lline_table_start1+0x1226>
   1fa82:	950a                	add	a0,a0,sp
   1fa84:	6585                	lui	a1,0x1
   1fa86:	32458593          	addi	a1,a1,804 # 1324 <.Lline_table_start1+0x10f9>
   1fa8a:	958a                	add	a1,a1,sp
   1fa8c:	02500613          	li	a2,37
   1fa90:	00000097          	auipc	ra,0x0
   1fa94:	18c080e7          	jalr	396(ra) # 1fc1c <memcpy>
   1fa98:	6505                	lui	a0,0x1
   1fa9a:	38050513          	addi	a0,a0,896 # 1380 <.Lline_table_start1+0x1155>
   1fa9e:	950a                	add	a0,a0,sp
   1faa0:	6585                	lui	a1,0x1
   1faa2:	44a58593          	addi	a1,a1,1098 # 144a <.Lline_table_start1+0x121f>
   1faa6:	958a                	add	a1,a1,sp
   1faa8:	ffff8097          	auipc	ra,0xffff8
   1faac:	cc0080e7          	jalr	-832(ra) # 17768 <_ZN20complex_dynamic_type3app17ha23fcd66fcf62993E>
   1fab0:	3ecac403          	lbu	s0,1004(s5)
   1fab4:	c401                	beqz	s0,1fabc <_start+0x4d66>
   1fab6:	3f0aaa03          	lw	s4,1008(s5)
   1faba:	a835                	j	1faf6 <_start+0x4da0>
   1fabc:	3eeac503          	lbu	a0,1006(s5)
   1fac0:	3edac583          	lbu	a1,1005(s5)
   1fac4:	3efac603          	lbu	a2,1007(s5)
   1fac8:	3f0aaa03          	lw	s4,1008(s5)
   1facc:	0522                	slli	a0,a0,0x8
   1face:	8d4d                	or	a0,a0,a1
   1fad0:	00a11423          	sh	a0,8(sp)
   1fad4:	00c10523          	sb	a2,10(sp)
   1fad8:	6505                	lui	a0,0x1
   1fada:	38850513          	addi	a0,a0,904 # 1388 <.Lline_table_start1+0x115d>
   1fade:	00a105b3          	add	a1,sp,a0
   1fae2:	6505                	lui	a0,0x1
   1fae4:	32450513          	addi	a0,a0,804 # 1324 <.Lline_table_start1+0x10f9>
   1fae8:	950a                	add	a0,a0,sp
   1faea:	02300613          	li	a2,35
   1faee:	00000097          	auipc	ra,0x0
   1faf2:	12e080e7          	jalr	302(ra) # 1fc1c <memcpy>
   1faf6:	c031                	beqz	s0,1fb3a <_start+0x4de4>
   1faf8:	4505                	li	a0,1
   1fafa:	85d2                	mv	a1,s4
   1fafc:	7f010113          	addi	sp,sp,2032
   1fb00:	4f010113          	addi	sp,sp,1264
   1fb04:	7ec12083          	lw	ra,2028(sp)
   1fb08:	7e812403          	lw	s0,2024(sp)
   1fb0c:	7e412483          	lw	s1,2020(sp)
   1fb10:	7e012903          	lw	s2,2016(sp)
   1fb14:	7dc12983          	lw	s3,2012(sp)
   1fb18:	7d812a03          	lw	s4,2008(sp)
   1fb1c:	7d412a83          	lw	s5,2004(sp)
   1fb20:	7d012b03          	lw	s6,2000(sp)
   1fb24:	7cc12b83          	lw	s7,1996(sp)
   1fb28:	7c812c03          	lw	s8,1992(sp)
   1fb2c:	7c412c83          	lw	s9,1988(sp)
   1fb30:	7c012d03          	lw	s10,1984(sp)
   1fb34:	7f010113          	addi	sp,sp,2032
   1fb38:	8082                	ret
   1fb3a:	00811503          	lh	a0,8(sp)
   1fb3e:	00a14583          	lbu	a1,10(sp)
   1fb42:	018a5613          	srli	a2,s4,0x18
   1fb46:	010a5693          	srli	a3,s4,0x10
   1fb4a:	4eda83a3          	sb	a3,1255(s5)
   1fb4e:	4eca8423          	sb	a2,1256(s5)
   1fb52:	008a5613          	srli	a2,s4,0x8
   1fb56:	4eaa9123          	sh	a0,1250(s5)
   1fb5a:	4eba8223          	sb	a1,1252(s5)
   1fb5e:	4f4a82a3          	sb	s4,1253(s5)
   1fb62:	4eca8323          	sb	a2,1254(s5)
   1fb66:	6505                	lui	a0,0x1
   1fb68:	47d50513          	addi	a0,a0,1149 # 147d <.Lline_table_start1+0x1252>
   1fb6c:	950a                	add	a0,a0,sp
   1fb6e:	6585                	lui	a1,0x1
   1fb70:	32458593          	addi	a1,a1,804 # 1324 <.Lline_table_start1+0x10f9>
   1fb74:	958a                	add	a1,a1,sp
   1fb76:	02300613          	li	a2,35
   1fb7a:	00000097          	auipc	ra,0x0
   1fb7e:	0a2080e7          	jalr	162(ra) # 1fc1c <memcpy>
   1fb82:	6505                	lui	a0,0x1
   1fb84:	38050513          	addi	a0,a0,896 # 1380 <.Lline_table_start1+0x1155>
   1fb88:	950a                	add	a0,a0,sp
   1fb8a:	6585                	lui	a1,0x1
   1fb8c:	47658593          	addi	a1,a1,1142 # 1476 <.Lline_table_start1+0x124b>
   1fb90:	958a                	add	a1,a1,sp
   1fb92:	ffff8097          	auipc	ra,0xffff8
   1fb96:	d66080e7          	jalr	-666(ra) # 178f8 <_ZN20complex_dynamic_type3app17ha24e9420b5753c3fE>
   1fb9a:	3f0aaa03          	lw	s4,1008(s5)
   1fb9e:	3ecac503          	lbu	a0,1004(s5)
   1fba2:	bfa1                	j	1fafa <_start+0x4da4>

0001fba4 <_ZN9allow_pin12dynamic_type7unshare17h0269127f30dbe29bE>:
   1fba4:	8732                	mv	a4,a2
   1fba6:	4601                	li	a2,0
   1fba8:	4681                	li	a3,0
   1fbaa:	00000073          	ecall
   1fbae:	8082                	ret

0001fbb0 <memset>:
   1fbb0:	46c1                	li	a3,16
   1fbb2:	04d66f63          	bltu	a2,a3,1fc10 <memset+0x60>
   1fbb6:	40a006b3          	neg	a3,a0
   1fbba:	0036f813          	andi	a6,a3,3
   1fbbe:	01050733          	add	a4,a0,a6
   1fbc2:	00e57963          	bgeu	a0,a4,1fbd4 <memset+0x24>
   1fbc6:	87c2                	mv	a5,a6
   1fbc8:	86aa                	mv	a3,a0
   1fbca:	00b68023          	sb	a1,0(a3)
   1fbce:	17fd                	addi	a5,a5,-1
   1fbd0:	0685                	addi	a3,a3,1
   1fbd2:	ffe5                	bnez	a5,1fbca <memset+0x1a>
   1fbd4:	41060633          	sub	a2,a2,a6
   1fbd8:	ffc67693          	andi	a3,a2,-4
   1fbdc:	96ba                	add	a3,a3,a4
   1fbde:	00d77e63          	bgeu	a4,a3,1fbfa <memset+0x4a>
   1fbe2:	0ff5f813          	zext.b	a6,a1
   1fbe6:	010107b7          	lui	a5,0x1010
   1fbea:	10178793          	addi	a5,a5,257 # 1010101 <_ZN17compiler_builtins3mem6memcpy17h90d0c987d2ef5a79E+0xff04dd>
   1fbee:	02f807b3          	mul	a5,a6,a5
   1fbf2:	c31c                	sw	a5,0(a4)
   1fbf4:	0711                	addi	a4,a4,4
   1fbf6:	fed76ee3          	bltu	a4,a3,1fbf2 <memset+0x42>
   1fbfa:	8a0d                	andi	a2,a2,3
   1fbfc:	00c68733          	add	a4,a3,a2
   1fc00:	00e6f763          	bgeu	a3,a4,1fc0e <memset+0x5e>
   1fc04:	00b68023          	sb	a1,0(a3)
   1fc08:	167d                	addi	a2,a2,-1
   1fc0a:	0685                	addi	a3,a3,1
   1fc0c:	fe65                	bnez	a2,1fc04 <memset+0x54>
   1fc0e:	8082                	ret
   1fc10:	86aa                	mv	a3,a0
   1fc12:	00c50733          	add	a4,a0,a2
   1fc16:	fee567e3          	bltu	a0,a4,1fc04 <memset+0x54>
   1fc1a:	bfd5                	j	1fc0e <memset+0x5e>

0001fc1c <memcpy>:
   1fc1c:	00000317          	auipc	t1,0x0
   1fc20:	00830067          	jr	8(t1) # 1fc24 <_ZN17compiler_builtins3mem6memcpy17h90d0c987d2ef5a79E>

0001fc24 <_ZN17compiler_builtins3mem6memcpy17h90d0c987d2ef5a79E>:
   1fc24:	1141                	addi	sp,sp,-16
   1fc26:	c622                	sw	s0,12(sp)
   1fc28:	46c1                	li	a3,16
   1fc2a:	06d66363          	bltu	a2,a3,1fc90 <_ZN17compiler_builtins3mem6memcpy17h90d0c987d2ef5a79E+0x6c>
   1fc2e:	40a006b3          	neg	a3,a0
   1fc32:	0036f813          	andi	a6,a3,3
   1fc36:	01050fb3          	add	t6,a0,a6
   1fc3a:	01f57d63          	bgeu	a0,t6,1fc54 <_ZN17compiler_builtins3mem6memcpy17h90d0c987d2ef5a79E+0x30>
   1fc3e:	8742                	mv	a4,a6
   1fc40:	86aa                	mv	a3,a0
   1fc42:	87ae                	mv	a5,a1
   1fc44:	0007c883          	lbu	a7,0(a5)
   1fc48:	177d                	addi	a4,a4,-1
   1fc4a:	01168023          	sb	a7,0(a3)
   1fc4e:	0685                	addi	a3,a3,1
   1fc50:	0785                	addi	a5,a5,1
   1fc52:	fb6d                	bnez	a4,1fc44 <_ZN17compiler_builtins3mem6memcpy17h90d0c987d2ef5a79E+0x20>
   1fc54:	01058433          	add	s0,a1,a6
   1fc58:	410608b3          	sub	a7,a2,a6
   1fc5c:	ffc8f713          	andi	a4,a7,-4
   1fc60:	00347613          	andi	a2,s0,3
   1fc64:	00ef86b3          	add	a3,t6,a4
   1fc68:	e621                	bnez	a2,1fcb0 <_ZN17compiler_builtins3mem6memcpy17h90d0c987d2ef5a79E+0x8c>
   1fc6a:	00dffa63          	bgeu	t6,a3,1fc7e <_ZN17compiler_builtins3mem6memcpy17h90d0c987d2ef5a79E+0x5a>
   1fc6e:	8622                	mv	a2,s0
   1fc70:	421c                	lw	a5,0(a2)
   1fc72:	00ffa023          	sw	a5,0(t6)
   1fc76:	0f91                	addi	t6,t6,4
   1fc78:	0611                	addi	a2,a2,4
   1fc7a:	fedfebe3          	bltu	t6,a3,1fc70 <_ZN17compiler_builtins3mem6memcpy17h90d0c987d2ef5a79E+0x4c>
   1fc7e:	00e405b3          	add	a1,s0,a4
   1fc82:	0038f613          	andi	a2,a7,3
   1fc86:	00c68733          	add	a4,a3,a2
   1fc8a:	00e6e863          	bltu	a3,a4,1fc9a <_ZN17compiler_builtins3mem6memcpy17h90d0c987d2ef5a79E+0x76>
   1fc8e:	a831                	j	1fcaa <_ZN17compiler_builtins3mem6memcpy17h90d0c987d2ef5a79E+0x86>
   1fc90:	86aa                	mv	a3,a0
   1fc92:	00c50733          	add	a4,a0,a2
   1fc96:	00e57a63          	bgeu	a0,a4,1fcaa <_ZN17compiler_builtins3mem6memcpy17h90d0c987d2ef5a79E+0x86>
   1fc9a:	0005c703          	lbu	a4,0(a1)
   1fc9e:	167d                	addi	a2,a2,-1
   1fca0:	00e68023          	sb	a4,0(a3)
   1fca4:	0685                	addi	a3,a3,1
   1fca6:	0585                	addi	a1,a1,1
   1fca8:	fa6d                	bnez	a2,1fc9a <_ZN17compiler_builtins3mem6memcpy17h90d0c987d2ef5a79E+0x76>
   1fcaa:	4432                	lw	s0,12(sp)
   1fcac:	0141                	addi	sp,sp,16
   1fcae:	8082                	ret
   1fcb0:	4801                	li	a6,0
   1fcb2:	4791                	li	a5,4
   1fcb4:	c402                	sw	zero,8(sp)
   1fcb6:	40c783b3          	sub	t2,a5,a2
   1fcba:	00810293          	addi	t0,sp,8
   1fcbe:	0013f313          	andi	t1,t2,1
   1fcc2:	00c2e2b3          	or	t0,t0,a2
   1fcc6:	04031763          	bnez	t1,1fd14 <_ZN17compiler_builtins3mem6memcpy17h90d0c987d2ef5a79E+0xf0>
   1fcca:	0023f793          	andi	a5,t2,2
   1fcce:	ebb9                	bnez	a5,1fd24 <_ZN17compiler_builtins3mem6memcpy17h90d0c987d2ef5a79E+0x100>
   1fcd0:	4ea2                	lw	t4,8(sp)
   1fcd2:	00361813          	slli	a6,a2,0x3
   1fcd6:	004f8793          	addi	a5,t6,4
   1fcda:	40c40f33          	sub	t5,s0,a2
   1fcde:	06d7f363          	bgeu	a5,a3,1fd44 <_ZN17compiler_builtins3mem6memcpy17h90d0c987d2ef5a79E+0x120>
   1fce2:	410007b3          	neg	a5,a6
   1fce6:	0187fe13          	andi	t3,a5,24
   1fcea:	004f2283          	lw	t0,4(t5)
   1fcee:	004f0393          	addi	t2,t5,4
   1fcf2:	010ed5b3          	srl	a1,t4,a6
   1fcf6:	004f8313          	addi	t1,t6,4
   1fcfa:	01c297b3          	sll	a5,t0,t3
   1fcfe:	8ddd                	or	a1,a1,a5
   1fd00:	008f8793          	addi	a5,t6,8
   1fd04:	00bfa023          	sw	a1,0(t6)
   1fd08:	8f9a                	mv	t6,t1
   1fd0a:	8f1e                	mv	t5,t2
   1fd0c:	8e96                	mv	t4,t0
   1fd0e:	fcd7eee3          	bltu	a5,a3,1fcea <_ZN17compiler_builtins3mem6memcpy17h90d0c987d2ef5a79E+0xc6>
   1fd12:	a825                	j	1fd4a <_ZN17compiler_builtins3mem6memcpy17h90d0c987d2ef5a79E+0x126>
   1fd14:	00044783          	lbu	a5,0(s0)
   1fd18:	00f28023          	sb	a5,0(t0)
   1fd1c:	4805                	li	a6,1
   1fd1e:	0023f793          	andi	a5,t2,2
   1fd22:	d7dd                	beqz	a5,1fcd0 <_ZN17compiler_builtins3mem6memcpy17h90d0c987d2ef5a79E+0xac>
   1fd24:	010407b3          	add	a5,s0,a6
   1fd28:	00079783          	lh	a5,0(a5)
   1fd2c:	9816                	add	a6,a6,t0
   1fd2e:	00f81023          	sh	a5,0(a6)
   1fd32:	4ea2                	lw	t4,8(sp)
   1fd34:	00361813          	slli	a6,a2,0x3
   1fd38:	004f8793          	addi	a5,t6,4
   1fd3c:	40c40f33          	sub	t5,s0,a2
   1fd40:	fad7e1e3          	bltu	a5,a3,1fce2 <_ZN17compiler_builtins3mem6memcpy17h90d0c987d2ef5a79E+0xbe>
   1fd44:	82f6                	mv	t0,t4
   1fd46:	83fa                	mv	t2,t5
   1fd48:	837e                	mv	t1,t6
   1fd4a:	00010223          	sb	zero,4(sp)
   1fd4e:	4785                	li	a5,1
   1fd50:	00010123          	sb	zero,2(sp)
   1fd54:	00f61763          	bne	a2,a5,1fd62 <_ZN17compiler_builtins3mem6memcpy17h90d0c987d2ef5a79E+0x13e>
   1fd58:	4781                	li	a5,0
   1fd5a:	4e01                	li	t3,0
   1fd5c:	4e81                	li	t4,0
   1fd5e:	0050                	addi	a2,sp,4
   1fd60:	a819                	j	1fd76 <_ZN17compiler_builtins3mem6memcpy17h90d0c987d2ef5a79E+0x152>
   1fd62:	0043c783          	lbu	a5,4(t2)
   1fd66:	0053ce03          	lbu	t3,5(t2)
   1fd6a:	4e89                	li	t4,2
   1fd6c:	00f10223          	sb	a5,4(sp)
   1fd70:	0e22                	slli	t3,t3,0x8
   1fd72:	00210613          	addi	a2,sp,2
   1fd76:	00147593          	andi	a1,s0,1
   1fd7a:	e199                	bnez	a1,1fd80 <_ZN17compiler_builtins3mem6memcpy17h90d0c987d2ef5a79E+0x15c>
   1fd7c:	4601                	li	a2,0
   1fd7e:	a821                	j	1fd96 <_ZN17compiler_builtins3mem6memcpy17h90d0c987d2ef5a79E+0x172>
   1fd80:	0391                	addi	t2,t2,4
   1fd82:	93f6                	add	t2,t2,t4
   1fd84:	0003c583          	lbu	a1,0(t2)
   1fd88:	00b60023          	sb	a1,0(a2)
   1fd8c:	00214603          	lbu	a2,2(sp)
   1fd90:	00414783          	lbu	a5,4(sp)
   1fd94:	0642                	slli	a2,a2,0x10
   1fd96:	8e5d                	or	a2,a2,a5
   1fd98:	0102d5b3          	srl	a1,t0,a6
   1fd9c:	410007b3          	neg	a5,a6
   1fda0:	00ce6633          	or	a2,t3,a2
   1fda4:	8be1                	andi	a5,a5,24
   1fda6:	00f61633          	sll	a2,a2,a5
   1fdaa:	8dd1                	or	a1,a1,a2
   1fdac:	00b32023          	sw	a1,0(t1)
   1fdb0:	00e405b3          	add	a1,s0,a4
   1fdb4:	0038f613          	andi	a2,a7,3
   1fdb8:	00c68733          	add	a4,a3,a2
   1fdbc:	ece6efe3          	bltu	a3,a4,1fc9a <_ZN17compiler_builtins3mem6memcpy17h90d0c987d2ef5a79E+0x76>
   1fdc0:	b5ed                	j	1fcaa <_ZN17compiler_builtins3mem6memcpy17h90d0c987d2ef5a79E+0x86>
