
target/thumbv6m-none-eabi/opt-s/examples/complex_full_dynamic:     file format elf32-littlearm

Sections:
Idx Name          Size      VMA       LMA       File off  Algn
  0 .ARM.exidx    00000010  000100d4  000100d4  000000d4  2**2
                  CONTENTS, ALLOC, LOAD, READONLY, DATA
  1 .text         00006bc0  000200e4  000200e4  000000e4  2**2
                  CONTENTS, ALLOC, LOAD, READONLY, CODE
  2 .comment      0000008b  00000000  00000000  00006ca4  2**0
                  CONTENTS, READONLY
  3 .ARM.attributes 00000032  00000000  00000000  00006d2f  2**0
                  CONTENTS, READONLY

Disassembly of section .text:

000200e4 <_ZN9allow_pin12full_dynamic15Buffer$LT$B$GT$5allow17hcdfd34cf7b1c64cdE>:
   200e4:	b5f0      	push	{r4, r5, r6, r7, lr}
   200e6:	af03      	add	r7, sp, #12
   200e8:	b082      	sub	sp, #8
   200ea:	9301      	str	r3, [sp, #4]
   200ec:	4606      	mov	r6, r0
   200ee:	7a00      	ldrb	r0, [r0, #8]
   200f0:	2401      	movs	r4, #1
   200f2:	2802      	cmp	r0, #2
   200f4:	d10b      	bne.n	2010e <_ZN9allow_pin12full_dynamic15Buffer$LT$B$GT$5allow17hcdfd34cf7b1c64cdE+0x2a>
   200f6:	4615      	mov	r5, r2
   200f8:	460b      	mov	r3, r1
   200fa:	68b9      	ldr	r1, [r7, #8]
   200fc:	4632      	mov	r2, r6
   200fe:	320c      	adds	r2, #12
   20100:	b2e8      	uxtb	r0, r5
   20102:	2803      	cmp	r0, #3
   20104:	9100      	str	r1, [sp, #0]
   20106:	d104      	bne.n	20112 <_ZN9allow_pin12full_dynamic15Buffer$LT$B$GT$5allow17hcdfd34cf7b1c64cdE+0x2e>
   20108:	9801      	ldr	r0, [sp, #4]
   2010a:	df03      	svc	3
   2010c:	e003      	b.n	20116 <_ZN9allow_pin12full_dynamic15Buffer$LT$B$GT$5allow17hcdfd34cf7b1c64cdE+0x32>
   2010e:	2103      	movs	r1, #3
   20110:	e009      	b.n	20126 <_ZN9allow_pin12full_dynamic15Buffer$LT$B$GT$5allow17hcdfd34cf7b1c64cdE+0x42>
   20112:	9801      	ldr	r0, [sp, #4]
   20114:	df04      	svc	4
   20116:	2802      	cmp	r0, #2
   20118:	d005      	beq.n	20126 <_ZN9allow_pin12full_dynamic15Buffer$LT$B$GT$5allow17hcdfd34cf7b1c64cdE+0x42>
   2011a:	7235      	strb	r5, [r6, #8]
   2011c:	9801      	ldr	r0, [sp, #4]
   2011e:	6030      	str	r0, [r6, #0]
   20120:	9800      	ldr	r0, [sp, #0]
   20122:	6070      	str	r0, [r6, #4]
   20124:	2400      	movs	r4, #0
   20126:	4620      	mov	r0, r4
   20128:	b002      	add	sp, #8
   2012a:	bdf0      	pop	{r4, r5, r6, r7, pc}

0002012c <_ZN20complex_full_dynamic3app17h01a69d11abca0b80E>:
   2012c:	b5f0      	push	{r4, r5, r6, r7, lr}
   2012e:	af03      	add	r7, sp, #12
   20130:	b0ad      	sub	sp, #180	@ 0xb4
   20132:	9003      	str	r0, [sp, #12]
   20134:	ae04      	add	r6, sp, #16
   20136:	2502      	movs	r5, #2
   20138:	7235      	strb	r5, [r6, #8]
   2013a:	4630      	mov	r0, r6
   2013c:	300c      	adds	r0, #12
   2013e:	2255      	movs	r2, #85	@ 0x55
   20140:	9202      	str	r2, [sp, #8]
   20142:	f006 fdaa 	bl	26c9a <__aeabi_memcpy>
   20146:	ac1d      	add	r4, sp, #116	@ 0x74
   20148:	4620      	mov	r0, r4
   2014a:	300c      	adds	r0, #12
   2014c:	2132      	movs	r1, #50	@ 0x32
   2014e:	9001      	str	r0, [sp, #4]
   20150:	f006 fbf6 	bl	26940 <__aeabi_memclr4>
   20154:	7225      	strb	r5, [r4, #8]
   20156:	2508      	movs	r5, #8
   20158:	9500      	str	r5, [sp, #0]
   2015a:	2204      	movs	r2, #4
   2015c:	4c1a      	ldr	r4, [pc, #104]	@ (201c8 <_ZN20complex_full_dynamic3app17h01a69d11abca0b80E+0x9c>)
   2015e:	4630      	mov	r0, r6
   20160:	9902      	ldr	r1, [sp, #8]
   20162:	4623      	mov	r3, r4
   20164:	f7ff ffbe 	bl	200e4 <_ZN9allow_pin12full_dynamic15Buffer$LT$B$GT$5allow17hcdfd34cf7b1c64cdE>
   20168:	07c0      	lsls	r0, r0, #31
   2016a:	d110      	bne.n	2018e <_ZN20complex_full_dynamic3app17h01a69d11abca0b80E+0x62>
   2016c:	9500      	str	r5, [sp, #0]
   2016e:	a81d      	add	r0, sp, #116	@ 0x74
   20170:	2132      	movs	r1, #50	@ 0x32
   20172:	2203      	movs	r2, #3
   20174:	4623      	mov	r3, r4
   20176:	f7ff ffb5 	bl	200e4 <_ZN9allow_pin12full_dynamic15Buffer$LT$B$GT$5allow17hcdfd34cf7b1c64cdE>
   2017a:	07c0      	lsls	r0, r0, #31
   2017c:	d107      	bne.n	2018e <_ZN20complex_full_dynamic3app17h01a69d11abca0b80E+0x62>
   2017e:	4812      	ldr	r0, [pc, #72]	@ (201c8 <_ZN20complex_full_dynamic3app17h01a69d11abca0b80E+0x9c>)
   20180:	2108      	movs	r1, #8
   20182:	2600      	movs	r6, #0
   20184:	460a      	mov	r2, r1
   20186:	4633      	mov	r3, r6
   20188:	df02      	svc	2
   2018a:	287f      	cmp	r0, #127	@ 0x7f
   2018c:	d80b      	bhi.n	201a6 <_ZN20complex_full_dynamic3app17h01a69d11abca0b80E+0x7a>
   2018e:	9c03      	ldr	r4, [sp, #12]
   20190:	6061      	str	r1, [r4, #4]
   20192:	2601      	movs	r6, #1
   20194:	7026      	strb	r6, [r4, #0]
   20196:	a81d      	add	r0, sp, #116	@ 0x74
   20198:	f006 fbbe 	bl	26918 <_ZN9allow_pin12full_dynamic17unshare_if_shared17h2809d14697b066c7E>
   2019c:	a804      	add	r0, sp, #16
   2019e:	f006 fbbb 	bl	26918 <_ZN9allow_pin12full_dynamic17unshare_if_shared17h2809d14697b066c7E>
   201a2:	b02d      	add	sp, #180	@ 0xb4
   201a4:	bdf0      	pop	{r4, r5, r6, r7, pc}
   201a6:	a804      	add	r0, sp, #16
   201a8:	f006 fbb6 	bl	26918 <_ZN9allow_pin12full_dynamic17unshare_if_shared17h2809d14697b066c7E>
   201ac:	ac1d      	add	r4, sp, #116	@ 0x74
   201ae:	4620      	mov	r0, r4
   201b0:	f006 fbb2 	bl	26918 <_ZN9allow_pin12full_dynamic17unshare_if_shared17h2809d14697b066c7E>
   201b4:	4620      	mov	r0, r4
   201b6:	f006 fbaf 	bl	26918 <_ZN9allow_pin12full_dynamic17unshare_if_shared17h2809d14697b066c7E>
   201ba:	9c03      	ldr	r4, [sp, #12]
   201bc:	1c60      	adds	r0, r4, #1
   201be:	2232      	movs	r2, #50	@ 0x32
   201c0:	9901      	ldr	r1, [sp, #4]
   201c2:	f006 fd6a 	bl	26c9a <__aeabi_memcpy>
   201c6:	e7e5      	b.n	20194 <_ZN20complex_full_dynamic3app17h01a69d11abca0b80E+0x68>
   201c8:	00002095 	.word	0x00002095

000201cc <_ZN20complex_full_dynamic3app17h035c07210919b969E>:
   201cc:	b5f0      	push	{r4, r5, r6, r7, lr}
   201ce:	af03      	add	r7, sp, #12
   201d0:	b099      	sub	sp, #100	@ 0x64
   201d2:	9004      	str	r0, [sp, #16]
   201d4:	ae05      	add	r6, sp, #20
   201d6:	2402      	movs	r4, #2
   201d8:	7234      	strb	r4, [r6, #8]
   201da:	4630      	mov	r0, r6
   201dc:	300c      	adds	r0, #12
   201de:	221a      	movs	r2, #26
   201e0:	9203      	str	r2, [sp, #12]
   201e2:	f006 fd5a 	bl	26c9a <__aeabi_memcpy>
   201e6:	ad0f      	add	r5, sp, #60	@ 0x3c
   201e8:	4628      	mov	r0, r5
   201ea:	300c      	adds	r0, #12
   201ec:	211b      	movs	r1, #27
   201ee:	9002      	str	r0, [sp, #8]
   201f0:	f006 fba6 	bl	26940 <__aeabi_memclr4>
   201f4:	722c      	strb	r4, [r5, #8]
   201f6:	2005      	movs	r0, #5
   201f8:	9000      	str	r0, [sp, #0]
   201fa:	2204      	movs	r2, #4
   201fc:	4d1a      	ldr	r5, [pc, #104]	@ (20268 <_ZN20complex_full_dynamic3app17h035c07210919b969E+0x9c>)
   201fe:	4630      	mov	r0, r6
   20200:	9903      	ldr	r1, [sp, #12]
   20202:	462b      	mov	r3, r5
   20204:	f7ff ff6e 	bl	200e4 <_ZN9allow_pin12full_dynamic15Buffer$LT$B$GT$5allow17hcdfd34cf7b1c64cdE>
   20208:	07c0      	lsls	r0, r0, #31
   2020a:	d110      	bne.n	2022e <_ZN20complex_full_dynamic3app17h035c07210919b969E+0x62>
   2020c:	9400      	str	r4, [sp, #0]
   2020e:	a80f      	add	r0, sp, #60	@ 0x3c
   20210:	211b      	movs	r1, #27
   20212:	2203      	movs	r2, #3
   20214:	462b      	mov	r3, r5
   20216:	f7ff ff65 	bl	200e4 <_ZN9allow_pin12full_dynamic15Buffer$LT$B$GT$5allow17hcdfd34cf7b1c64cdE>
   2021a:	07c0      	lsls	r0, r0, #31
   2021c:	d107      	bne.n	2022e <_ZN20complex_full_dynamic3app17h035c07210919b969E+0x62>
   2021e:	4812      	ldr	r0, [pc, #72]	@ (20268 <_ZN20complex_full_dynamic3app17h035c07210919b969E+0x9c>)
   20220:	2105      	movs	r1, #5
   20222:	2202      	movs	r2, #2
   20224:	2600      	movs	r6, #0
   20226:	4633      	mov	r3, r6
   20228:	df02      	svc	2
   2022a:	287f      	cmp	r0, #127	@ 0x7f
   2022c:	d80b      	bhi.n	20246 <_ZN20complex_full_dynamic3app17h035c07210919b969E+0x7a>
   2022e:	9c04      	ldr	r4, [sp, #16]
   20230:	6061      	str	r1, [r4, #4]
   20232:	2601      	movs	r6, #1
   20234:	7026      	strb	r6, [r4, #0]
   20236:	a80f      	add	r0, sp, #60	@ 0x3c
   20238:	f006 fb6e 	bl	26918 <_ZN9allow_pin12full_dynamic17unshare_if_shared17h2809d14697b066c7E>
   2023c:	a805      	add	r0, sp, #20
   2023e:	f006 fb6b 	bl	26918 <_ZN9allow_pin12full_dynamic17unshare_if_shared17h2809d14697b066c7E>
   20242:	b019      	add	sp, #100	@ 0x64
   20244:	bdf0      	pop	{r4, r5, r6, r7, pc}
   20246:	a805      	add	r0, sp, #20
   20248:	f006 fb66 	bl	26918 <_ZN9allow_pin12full_dynamic17unshare_if_shared17h2809d14697b066c7E>
   2024c:	ac0f      	add	r4, sp, #60	@ 0x3c
   2024e:	4620      	mov	r0, r4
   20250:	f006 fb62 	bl	26918 <_ZN9allow_pin12full_dynamic17unshare_if_shared17h2809d14697b066c7E>
   20254:	4620      	mov	r0, r4
   20256:	f006 fb5f 	bl	26918 <_ZN9allow_pin12full_dynamic17unshare_if_shared17h2809d14697b066c7E>
   2025a:	9c04      	ldr	r4, [sp, #16]
   2025c:	1c60      	adds	r0, r4, #1
   2025e:	221b      	movs	r2, #27
   20260:	9902      	ldr	r1, [sp, #8]
   20262:	f006 fd1a 	bl	26c9a <__aeabi_memcpy>
   20266:	e7e5      	b.n	20234 <_ZN20complex_full_dynamic3app17h035c07210919b969E+0x68>
   20268:	00001cce 	.word	0x00001cce

0002026c <_ZN20complex_full_dynamic3app17h0546ba6c86faed5bE>:
   2026c:	b5f0      	push	{r4, r5, r6, r7, lr}
   2026e:	af03      	add	r7, sp, #12
   20270:	b0ad      	sub	sp, #180	@ 0xb4
   20272:	9003      	str	r0, [sp, #12]
   20274:	ae04      	add	r6, sp, #16
   20276:	2502      	movs	r5, #2
   20278:	7235      	strb	r5, [r6, #8]
   2027a:	4630      	mov	r0, r6
   2027c:	300c      	adds	r0, #12
   2027e:	2250      	movs	r2, #80	@ 0x50
   20280:	9202      	str	r2, [sp, #8]
   20282:	f006 fd0a 	bl	26c9a <__aeabi_memcpy>
   20286:	ac1b      	add	r4, sp, #108	@ 0x6c
   20288:	4620      	mov	r0, r4
   2028a:	300c      	adds	r0, #12
   2028c:	213c      	movs	r1, #60	@ 0x3c
   2028e:	9001      	str	r0, [sp, #4]
   20290:	f006 fb56 	bl	26940 <__aeabi_memclr4>
   20294:	7225      	strb	r5, [r4, #8]
   20296:	2003      	movs	r0, #3
   20298:	9000      	str	r0, [sp, #0]
   2029a:	2204      	movs	r2, #4
   2029c:	4c1b      	ldr	r4, [pc, #108]	@ (2030c <_ZN20complex_full_dynamic3app17h0546ba6c86faed5bE+0xa0>)
   2029e:	4630      	mov	r0, r6
   202a0:	9902      	ldr	r1, [sp, #8]
   202a2:	4623      	mov	r3, r4
   202a4:	f7ff ff1e 	bl	200e4 <_ZN9allow_pin12full_dynamic15Buffer$LT$B$GT$5allow17hcdfd34cf7b1c64cdE>
   202a8:	07c0      	lsls	r0, r0, #31
   202aa:	d111      	bne.n	202d0 <_ZN20complex_full_dynamic3app17h0546ba6c86faed5bE+0x64>
   202ac:	2009      	movs	r0, #9
   202ae:	9000      	str	r0, [sp, #0]
   202b0:	a81b      	add	r0, sp, #108	@ 0x6c
   202b2:	213c      	movs	r1, #60	@ 0x3c
   202b4:	2203      	movs	r2, #3
   202b6:	4623      	mov	r3, r4
   202b8:	f7ff ff14 	bl	200e4 <_ZN9allow_pin12full_dynamic15Buffer$LT$B$GT$5allow17hcdfd34cf7b1c64cdE>
   202bc:	07c0      	lsls	r0, r0, #31
   202be:	d107      	bne.n	202d0 <_ZN20complex_full_dynamic3app17h0546ba6c86faed5bE+0x64>
   202c0:	4812      	ldr	r0, [pc, #72]	@ (2030c <_ZN20complex_full_dynamic3app17h0546ba6c86faed5bE+0xa0>)
   202c2:	2103      	movs	r1, #3
   202c4:	2209      	movs	r2, #9
   202c6:	2600      	movs	r6, #0
   202c8:	4633      	mov	r3, r6
   202ca:	df02      	svc	2
   202cc:	287f      	cmp	r0, #127	@ 0x7f
   202ce:	d80b      	bhi.n	202e8 <_ZN20complex_full_dynamic3app17h0546ba6c86faed5bE+0x7c>
   202d0:	9c03      	ldr	r4, [sp, #12]
   202d2:	6061      	str	r1, [r4, #4]
   202d4:	2601      	movs	r6, #1
   202d6:	7026      	strb	r6, [r4, #0]
   202d8:	a81b      	add	r0, sp, #108	@ 0x6c
   202da:	f006 fb1d 	bl	26918 <_ZN9allow_pin12full_dynamic17unshare_if_shared17h2809d14697b066c7E>
   202de:	a804      	add	r0, sp, #16
   202e0:	f006 fb1a 	bl	26918 <_ZN9allow_pin12full_dynamic17unshare_if_shared17h2809d14697b066c7E>
   202e4:	b02d      	add	sp, #180	@ 0xb4
   202e6:	bdf0      	pop	{r4, r5, r6, r7, pc}
   202e8:	a804      	add	r0, sp, #16
   202ea:	f006 fb15 	bl	26918 <_ZN9allow_pin12full_dynamic17unshare_if_shared17h2809d14697b066c7E>
   202ee:	ac1b      	add	r4, sp, #108	@ 0x6c
   202f0:	4620      	mov	r0, r4
   202f2:	f006 fb11 	bl	26918 <_ZN9allow_pin12full_dynamic17unshare_if_shared17h2809d14697b066c7E>
   202f6:	4620      	mov	r0, r4
   202f8:	f006 fb0e 	bl	26918 <_ZN9allow_pin12full_dynamic17unshare_if_shared17h2809d14697b066c7E>
   202fc:	9c03      	ldr	r4, [sp, #12]
   202fe:	1c60      	adds	r0, r4, #1
   20300:	223c      	movs	r2, #60	@ 0x3c
   20302:	9901      	ldr	r1, [sp, #4]
   20304:	f006 fcc9 	bl	26c9a <__aeabi_memcpy>
   20308:	e7e5      	b.n	202d6 <_ZN20complex_full_dynamic3app17h0546ba6c86faed5bE+0x6a>
   2030a:	46c0      	nop			@ (mov r8, r8)
   2030c:	00000d7a 	.word	0x00000d7a

00020310 <_ZN20complex_full_dynamic3app17h0a5b83bc91148a88E>:
   20310:	b5f0      	push	{r4, r5, r6, r7, lr}
   20312:	af03      	add	r7, sp, #12
   20314:	b0a5      	sub	sp, #148	@ 0x94
   20316:	9003      	str	r0, [sp, #12]
   20318:	ae04      	add	r6, sp, #16
   2031a:	2502      	movs	r5, #2
   2031c:	7235      	strb	r5, [r6, #8]
   2031e:	4630      	mov	r0, r6
   20320:	300c      	adds	r0, #12
   20322:	2213      	movs	r2, #19
   20324:	9202      	str	r2, [sp, #8]
   20326:	f006 fcb8 	bl	26c9a <__aeabi_memcpy>
   2032a:	ac0c      	add	r4, sp, #48	@ 0x30
   2032c:	4620      	mov	r0, r4
   2032e:	300c      	adds	r0, #12
   20330:	2155      	movs	r1, #85	@ 0x55
   20332:	9001      	str	r0, [sp, #4]
   20334:	f006 fb04 	bl	26940 <__aeabi_memclr4>
   20338:	7225      	strb	r5, [r4, #8]
   2033a:	2009      	movs	r0, #9
   2033c:	9000      	str	r0, [sp, #0]
   2033e:	2204      	movs	r2, #4
   20340:	4c1b      	ldr	r4, [pc, #108]	@ (203b0 <_ZN20complex_full_dynamic3app17h0a5b83bc91148a88E+0xa0>)
   20342:	4630      	mov	r0, r6
   20344:	9902      	ldr	r1, [sp, #8]
   20346:	4623      	mov	r3, r4
   20348:	f7ff fecc 	bl	200e4 <_ZN9allow_pin12full_dynamic15Buffer$LT$B$GT$5allow17hcdfd34cf7b1c64cdE>
   2034c:	07c0      	lsls	r0, r0, #31
   2034e:	d111      	bne.n	20374 <_ZN20complex_full_dynamic3app17h0a5b83bc91148a88E+0x64>
   20350:	2007      	movs	r0, #7
   20352:	9000      	str	r0, [sp, #0]
   20354:	a80c      	add	r0, sp, #48	@ 0x30
   20356:	2155      	movs	r1, #85	@ 0x55
   20358:	2203      	movs	r2, #3
   2035a:	4623      	mov	r3, r4
   2035c:	f7ff fec2 	bl	200e4 <_ZN9allow_pin12full_dynamic15Buffer$LT$B$GT$5allow17hcdfd34cf7b1c64cdE>
   20360:	07c0      	lsls	r0, r0, #31
   20362:	d107      	bne.n	20374 <_ZN20complex_full_dynamic3app17h0a5b83bc91148a88E+0x64>
   20364:	4812      	ldr	r0, [pc, #72]	@ (203b0 <_ZN20complex_full_dynamic3app17h0a5b83bc91148a88E+0xa0>)
   20366:	2109      	movs	r1, #9
   20368:	2207      	movs	r2, #7
   2036a:	2600      	movs	r6, #0
   2036c:	4633      	mov	r3, r6
   2036e:	df02      	svc	2
   20370:	287f      	cmp	r0, #127	@ 0x7f
   20372:	d80b      	bhi.n	2038c <_ZN20complex_full_dynamic3app17h0a5b83bc91148a88E+0x7c>
   20374:	9c03      	ldr	r4, [sp, #12]
   20376:	6061      	str	r1, [r4, #4]
   20378:	2601      	movs	r6, #1
   2037a:	7026      	strb	r6, [r4, #0]
   2037c:	a80c      	add	r0, sp, #48	@ 0x30
   2037e:	f006 facb 	bl	26918 <_ZN9allow_pin12full_dynamic17unshare_if_shared17h2809d14697b066c7E>
   20382:	a804      	add	r0, sp, #16
   20384:	f006 fac8 	bl	26918 <_ZN9allow_pin12full_dynamic17unshare_if_shared17h2809d14697b066c7E>
   20388:	b025      	add	sp, #148	@ 0x94
   2038a:	bdf0      	pop	{r4, r5, r6, r7, pc}
   2038c:	a804      	add	r0, sp, #16
   2038e:	f006 fac3 	bl	26918 <_ZN9allow_pin12full_dynamic17unshare_if_shared17h2809d14697b066c7E>
   20392:	ac0c      	add	r4, sp, #48	@ 0x30
   20394:	4620      	mov	r0, r4
   20396:	f006 fabf 	bl	26918 <_ZN9allow_pin12full_dynamic17unshare_if_shared17h2809d14697b066c7E>
   2039a:	4620      	mov	r0, r4
   2039c:	f006 fabc 	bl	26918 <_ZN9allow_pin12full_dynamic17unshare_if_shared17h2809d14697b066c7E>
   203a0:	9c03      	ldr	r4, [sp, #12]
   203a2:	1c60      	adds	r0, r4, #1
   203a4:	2255      	movs	r2, #85	@ 0x55
   203a6:	9901      	ldr	r1, [sp, #4]
   203a8:	f006 fc77 	bl	26c9a <__aeabi_memcpy>
   203ac:	e7e5      	b.n	2037a <_ZN20complex_full_dynamic3app17h0a5b83bc91148a88E+0x6a>
   203ae:	46c0      	nop			@ (mov r8, r8)
   203b0:	0000032e 	.word	0x0000032e

000203b4 <_ZN20complex_full_dynamic3app17h0c6fa23cfb67a4a9E>:
   203b4:	b5f0      	push	{r4, r5, r6, r7, lr}
   203b6:	af03      	add	r7, sp, #12
   203b8:	b0a3      	sub	sp, #140	@ 0x8c
   203ba:	9003      	str	r0, [sp, #12]
   203bc:	ae04      	add	r6, sp, #16
   203be:	2502      	movs	r5, #2
   203c0:	7235      	strb	r5, [r6, #8]
   203c2:	4630      	mov	r0, r6
   203c4:	300c      	adds	r0, #12
   203c6:	2211      	movs	r2, #17
   203c8:	9202      	str	r2, [sp, #8]
   203ca:	f006 fc66 	bl	26c9a <__aeabi_memcpy>
   203ce:	ac0c      	add	r4, sp, #48	@ 0x30
   203d0:	4620      	mov	r0, r4
   203d2:	300c      	adds	r0, #12
   203d4:	2150      	movs	r1, #80	@ 0x50
   203d6:	9001      	str	r0, [sp, #4]
   203d8:	f006 fab2 	bl	26940 <__aeabi_memclr4>
   203dc:	7225      	strb	r5, [r4, #8]
   203de:	2006      	movs	r0, #6
   203e0:	9000      	str	r0, [sp, #0]
   203e2:	2204      	movs	r2, #4
   203e4:	4c1b      	ldr	r4, [pc, #108]	@ (20454 <_ZN20complex_full_dynamic3app17h0c6fa23cfb67a4a9E+0xa0>)
   203e6:	4630      	mov	r0, r6
   203e8:	9902      	ldr	r1, [sp, #8]
   203ea:	4623      	mov	r3, r4
   203ec:	f7ff fe7a 	bl	200e4 <_ZN9allow_pin12full_dynamic15Buffer$LT$B$GT$5allow17hcdfd34cf7b1c64cdE>
   203f0:	07c0      	lsls	r0, r0, #31
   203f2:	d111      	bne.n	20418 <_ZN20complex_full_dynamic3app17h0c6fa23cfb67a4a9E+0x64>
   203f4:	2005      	movs	r0, #5
   203f6:	9000      	str	r0, [sp, #0]
   203f8:	a80c      	add	r0, sp, #48	@ 0x30
   203fa:	2150      	movs	r1, #80	@ 0x50
   203fc:	2203      	movs	r2, #3
   203fe:	4623      	mov	r3, r4
   20400:	f7ff fe70 	bl	200e4 <_ZN9allow_pin12full_dynamic15Buffer$LT$B$GT$5allow17hcdfd34cf7b1c64cdE>
   20404:	07c0      	lsls	r0, r0, #31
   20406:	d107      	bne.n	20418 <_ZN20complex_full_dynamic3app17h0c6fa23cfb67a4a9E+0x64>
   20408:	4812      	ldr	r0, [pc, #72]	@ (20454 <_ZN20complex_full_dynamic3app17h0c6fa23cfb67a4a9E+0xa0>)
   2040a:	2106      	movs	r1, #6
   2040c:	2205      	movs	r2, #5
   2040e:	2600      	movs	r6, #0
   20410:	4633      	mov	r3, r6
   20412:	df02      	svc	2
   20414:	287f      	cmp	r0, #127	@ 0x7f
   20416:	d80b      	bhi.n	20430 <_ZN20complex_full_dynamic3app17h0c6fa23cfb67a4a9E+0x7c>
   20418:	9c03      	ldr	r4, [sp, #12]
   2041a:	6061      	str	r1, [r4, #4]
   2041c:	2601      	movs	r6, #1
   2041e:	7026      	strb	r6, [r4, #0]
   20420:	a80c      	add	r0, sp, #48	@ 0x30
   20422:	f006 fa79 	bl	26918 <_ZN9allow_pin12full_dynamic17unshare_if_shared17h2809d14697b066c7E>
   20426:	a804      	add	r0, sp, #16
   20428:	f006 fa76 	bl	26918 <_ZN9allow_pin12full_dynamic17unshare_if_shared17h2809d14697b066c7E>
   2042c:	b023      	add	sp, #140	@ 0x8c
   2042e:	bdf0      	pop	{r4, r5, r6, r7, pc}
   20430:	a804      	add	r0, sp, #16
   20432:	f006 fa71 	bl	26918 <_ZN9allow_pin12full_dynamic17unshare_if_shared17h2809d14697b066c7E>
   20436:	ac0c      	add	r4, sp, #48	@ 0x30
   20438:	4620      	mov	r0, r4
   2043a:	f006 fa6d 	bl	26918 <_ZN9allow_pin12full_dynamic17unshare_if_shared17h2809d14697b066c7E>
   2043e:	4620      	mov	r0, r4
   20440:	f006 fa6a 	bl	26918 <_ZN9allow_pin12full_dynamic17unshare_if_shared17h2809d14697b066c7E>
   20444:	9c03      	ldr	r4, [sp, #12]
   20446:	1c60      	adds	r0, r4, #1
   20448:	2250      	movs	r2, #80	@ 0x50
   2044a:	9901      	ldr	r1, [sp, #4]
   2044c:	f006 fc25 	bl	26c9a <__aeabi_memcpy>
   20450:	e7e5      	b.n	2041e <_ZN20complex_full_dynamic3app17h0c6fa23cfb67a4a9E+0x6a>
   20452:	46c0      	nop			@ (mov r8, r8)
   20454:	00001aa9 	.word	0x00001aa9

00020458 <_ZN20complex_full_dynamic3app17h0dbca14a72e4e891E>:
   20458:	b5f0      	push	{r4, r5, r6, r7, lr}
   2045a:	af03      	add	r7, sp, #12
   2045c:	b09b      	sub	sp, #108	@ 0x6c
   2045e:	9004      	str	r0, [sp, #16]
   20460:	ae05      	add	r6, sp, #20
   20462:	2502      	movs	r5, #2
   20464:	7235      	strb	r5, [r6, #8]
   20466:	4630      	mov	r0, r6
   20468:	300c      	adds	r0, #12
   2046a:	2214      	movs	r2, #20
   2046c:	9203      	str	r2, [sp, #12]
   2046e:	f006 fc14 	bl	26c9a <__aeabi_memcpy>
   20472:	ac0d      	add	r4, sp, #52	@ 0x34
   20474:	4620      	mov	r0, r4
   20476:	300c      	adds	r0, #12
   20478:	212b      	movs	r1, #43	@ 0x2b
   2047a:	9002      	str	r0, [sp, #8]
   2047c:	f006 fa60 	bl	26940 <__aeabi_memclr4>
   20480:	7225      	strb	r5, [r4, #8]
   20482:	2008      	movs	r0, #8
   20484:	9000      	str	r0, [sp, #0]
   20486:	2504      	movs	r5, #4
   20488:	4c1b      	ldr	r4, [pc, #108]	@ (204f8 <_ZN20complex_full_dynamic3app17h0dbca14a72e4e891E+0xa0>)
   2048a:	4630      	mov	r0, r6
   2048c:	9903      	ldr	r1, [sp, #12]
   2048e:	462a      	mov	r2, r5
   20490:	4623      	mov	r3, r4
   20492:	f7ff fe27 	bl	200e4 <_ZN9allow_pin12full_dynamic15Buffer$LT$B$GT$5allow17hcdfd34cf7b1c64cdE>
   20496:	07c0      	lsls	r0, r0, #31
   20498:	d110      	bne.n	204bc <_ZN20complex_full_dynamic3app17h0dbca14a72e4e891E+0x64>
   2049a:	9500      	str	r5, [sp, #0]
   2049c:	a80d      	add	r0, sp, #52	@ 0x34
   2049e:	212b      	movs	r1, #43	@ 0x2b
   204a0:	2203      	movs	r2, #3
   204a2:	4623      	mov	r3, r4
   204a4:	f7ff fe1e 	bl	200e4 <_ZN9allow_pin12full_dynamic15Buffer$LT$B$GT$5allow17hcdfd34cf7b1c64cdE>
   204a8:	07c0      	lsls	r0, r0, #31
   204aa:	d107      	bne.n	204bc <_ZN20complex_full_dynamic3app17h0dbca14a72e4e891E+0x64>
   204ac:	4812      	ldr	r0, [pc, #72]	@ (204f8 <_ZN20complex_full_dynamic3app17h0dbca14a72e4e891E+0xa0>)
   204ae:	2108      	movs	r1, #8
   204b0:	2204      	movs	r2, #4
   204b2:	2600      	movs	r6, #0
   204b4:	4633      	mov	r3, r6
   204b6:	df02      	svc	2
   204b8:	287f      	cmp	r0, #127	@ 0x7f
   204ba:	d80b      	bhi.n	204d4 <_ZN20complex_full_dynamic3app17h0dbca14a72e4e891E+0x7c>
   204bc:	9c04      	ldr	r4, [sp, #16]
   204be:	6061      	str	r1, [r4, #4]
   204c0:	2601      	movs	r6, #1
   204c2:	7026      	strb	r6, [r4, #0]
   204c4:	a80d      	add	r0, sp, #52	@ 0x34
   204c6:	f006 fa27 	bl	26918 <_ZN9allow_pin12full_dynamic17unshare_if_shared17h2809d14697b066c7E>
   204ca:	a805      	add	r0, sp, #20
   204cc:	f006 fa24 	bl	26918 <_ZN9allow_pin12full_dynamic17unshare_if_shared17h2809d14697b066c7E>
   204d0:	b01b      	add	sp, #108	@ 0x6c
   204d2:	bdf0      	pop	{r4, r5, r6, r7, pc}
   204d4:	a805      	add	r0, sp, #20
   204d6:	f006 fa1f 	bl	26918 <_ZN9allow_pin12full_dynamic17unshare_if_shared17h2809d14697b066c7E>
   204da:	ac0d      	add	r4, sp, #52	@ 0x34
   204dc:	4620      	mov	r0, r4
   204de:	f006 fa1b 	bl	26918 <_ZN9allow_pin12full_dynamic17unshare_if_shared17h2809d14697b066c7E>
   204e2:	4620      	mov	r0, r4
   204e4:	f006 fa18 	bl	26918 <_ZN9allow_pin12full_dynamic17unshare_if_shared17h2809d14697b066c7E>
   204e8:	9c04      	ldr	r4, [sp, #16]
   204ea:	1c60      	adds	r0, r4, #1
   204ec:	222b      	movs	r2, #43	@ 0x2b
   204ee:	9902      	ldr	r1, [sp, #8]
   204f0:	f006 fbd3 	bl	26c9a <__aeabi_memcpy>
   204f4:	e7e5      	b.n	204c2 <_ZN20complex_full_dynamic3app17h0dbca14a72e4e891E+0x6a>
   204f6:	46c0      	nop			@ (mov r8, r8)
   204f8:	0000239f 	.word	0x0000239f

000204fc <_ZN20complex_full_dynamic3app17h120c3d05c1f99f00E>:
   204fc:	b5f0      	push	{r4, r5, r6, r7, lr}
   204fe:	af03      	add	r7, sp, #12
   20500:	b0a5      	sub	sp, #148	@ 0x94
   20502:	9004      	str	r0, [sp, #16]
   20504:	ae05      	add	r6, sp, #20
   20506:	2002      	movs	r0, #2
   20508:	9003      	str	r0, [sp, #12]
   2050a:	7230      	strb	r0, [r6, #8]
   2050c:	4630      	mov	r0, r6
   2050e:	300c      	adds	r0, #12
   20510:	2432      	movs	r4, #50	@ 0x32
   20512:	4622      	mov	r2, r4
   20514:	f006 fbc1 	bl	26c9a <__aeabi_memcpy>
   20518:	ad15      	add	r5, sp, #84	@ 0x54
   2051a:	4628      	mov	r0, r5
   2051c:	300c      	adds	r0, #12
   2051e:	9002      	str	r0, [sp, #8]
   20520:	4621      	mov	r1, r4
   20522:	f006 fa0d 	bl	26940 <__aeabi_memclr4>
   20526:	9803      	ldr	r0, [sp, #12]
   20528:	7228      	strb	r0, [r5, #8]
   2052a:	2003      	movs	r0, #3
   2052c:	9000      	str	r0, [sp, #0]
   2052e:	2204      	movs	r2, #4
   20530:	4d1b      	ldr	r5, [pc, #108]	@ (205a0 <_ZN20complex_full_dynamic3app17h120c3d05c1f99f00E+0xa4>)
   20532:	4630      	mov	r0, r6
   20534:	4621      	mov	r1, r4
   20536:	462b      	mov	r3, r5
   20538:	f7ff fdd4 	bl	200e4 <_ZN9allow_pin12full_dynamic15Buffer$LT$B$GT$5allow17hcdfd34cf7b1c64cdE>
   2053c:	07c0      	lsls	r0, r0, #31
   2053e:	d111      	bne.n	20564 <_ZN20complex_full_dynamic3app17h120c3d05c1f99f00E+0x68>
   20540:	2001      	movs	r0, #1
   20542:	9000      	str	r0, [sp, #0]
   20544:	a815      	add	r0, sp, #84	@ 0x54
   20546:	2132      	movs	r1, #50	@ 0x32
   20548:	2203      	movs	r2, #3
   2054a:	462b      	mov	r3, r5
   2054c:	f7ff fdca 	bl	200e4 <_ZN9allow_pin12full_dynamic15Buffer$LT$B$GT$5allow17hcdfd34cf7b1c64cdE>
   20550:	07c0      	lsls	r0, r0, #31
   20552:	d107      	bne.n	20564 <_ZN20complex_full_dynamic3app17h120c3d05c1f99f00E+0x68>
   20554:	4812      	ldr	r0, [pc, #72]	@ (205a0 <_ZN20complex_full_dynamic3app17h120c3d05c1f99f00E+0xa4>)
   20556:	2103      	movs	r1, #3
   20558:	2201      	movs	r2, #1
   2055a:	2600      	movs	r6, #0
   2055c:	4633      	mov	r3, r6
   2055e:	df02      	svc	2
   20560:	287f      	cmp	r0, #127	@ 0x7f
   20562:	d80b      	bhi.n	2057c <_ZN20complex_full_dynamic3app17h120c3d05c1f99f00E+0x80>
   20564:	9c04      	ldr	r4, [sp, #16]
   20566:	6061      	str	r1, [r4, #4]
   20568:	2601      	movs	r6, #1
   2056a:	7026      	strb	r6, [r4, #0]
   2056c:	a815      	add	r0, sp, #84	@ 0x54
   2056e:	f006 f9d3 	bl	26918 <_ZN9allow_pin12full_dynamic17unshare_if_shared17h2809d14697b066c7E>
   20572:	a805      	add	r0, sp, #20
   20574:	f006 f9d0 	bl	26918 <_ZN9allow_pin12full_dynamic17unshare_if_shared17h2809d14697b066c7E>
   20578:	b025      	add	sp, #148	@ 0x94
   2057a:	bdf0      	pop	{r4, r5, r6, r7, pc}
   2057c:	a805      	add	r0, sp, #20
   2057e:	f006 f9cb 	bl	26918 <_ZN9allow_pin12full_dynamic17unshare_if_shared17h2809d14697b066c7E>
   20582:	ac15      	add	r4, sp, #84	@ 0x54
   20584:	4620      	mov	r0, r4
   20586:	f006 f9c7 	bl	26918 <_ZN9allow_pin12full_dynamic17unshare_if_shared17h2809d14697b066c7E>
   2058a:	4620      	mov	r0, r4
   2058c:	f006 f9c4 	bl	26918 <_ZN9allow_pin12full_dynamic17unshare_if_shared17h2809d14697b066c7E>
   20590:	9c04      	ldr	r4, [sp, #16]
   20592:	1c60      	adds	r0, r4, #1
   20594:	2232      	movs	r2, #50	@ 0x32
   20596:	9902      	ldr	r1, [sp, #8]
   20598:	f006 fb7f 	bl	26c9a <__aeabi_memcpy>
   2059c:	e7e5      	b.n	2056a <_ZN20complex_full_dynamic3app17h120c3d05c1f99f00E+0x6e>
   2059e:	46c0      	nop			@ (mov r8, r8)
   205a0:	00001f07 	.word	0x00001f07

000205a4 <_ZN20complex_full_dynamic3app17h1367dccc0132794aE>:
   205a4:	b5f0      	push	{r4, r5, r6, r7, lr}
   205a6:	af03      	add	r7, sp, #12
   205a8:	b0a1      	sub	sp, #132	@ 0x84
   205aa:	9004      	str	r0, [sp, #16]
   205ac:	ae05      	add	r6, sp, #20
   205ae:	2502      	movs	r5, #2
   205b0:	7235      	strb	r5, [r6, #8]
   205b2:	4630      	mov	r0, r6
   205b4:	300c      	adds	r0, #12
   205b6:	220e      	movs	r2, #14
   205b8:	9203      	str	r2, [sp, #12]
   205ba:	f006 fb6e 	bl	26c9a <__aeabi_memcpy>
   205be:	ac0c      	add	r4, sp, #48	@ 0x30
   205c0:	4620      	mov	r0, r4
   205c2:	300c      	adds	r0, #12
   205c4:	2148      	movs	r1, #72	@ 0x48
   205c6:	9002      	str	r0, [sp, #8]
   205c8:	f006 f9ba 	bl	26940 <__aeabi_memclr4>
   205cc:	7225      	strb	r5, [r4, #8]
   205ce:	2003      	movs	r0, #3
   205d0:	9000      	str	r0, [sp, #0]
   205d2:	2204      	movs	r2, #4
   205d4:	4c1b      	ldr	r4, [pc, #108]	@ (20644 <_ZN20complex_full_dynamic3app17h1367dccc0132794aE+0xa0>)
   205d6:	4630      	mov	r0, r6
   205d8:	9903      	ldr	r1, [sp, #12]
   205da:	4623      	mov	r3, r4
   205dc:	f7ff fd82 	bl	200e4 <_ZN9allow_pin12full_dynamic15Buffer$LT$B$GT$5allow17hcdfd34cf7b1c64cdE>
   205e0:	07c0      	lsls	r0, r0, #31
   205e2:	d111      	bne.n	20608 <_ZN20complex_full_dynamic3app17h1367dccc0132794aE+0x64>
   205e4:	2008      	movs	r0, #8
   205e6:	9000      	str	r0, [sp, #0]
   205e8:	a80c      	add	r0, sp, #48	@ 0x30
   205ea:	2148      	movs	r1, #72	@ 0x48
   205ec:	2203      	movs	r2, #3
   205ee:	4623      	mov	r3, r4
   205f0:	f7ff fd78 	bl	200e4 <_ZN9allow_pin12full_dynamic15Buffer$LT$B$GT$5allow17hcdfd34cf7b1c64cdE>
   205f4:	07c0      	lsls	r0, r0, #31
   205f6:	d107      	bne.n	20608 <_ZN20complex_full_dynamic3app17h1367dccc0132794aE+0x64>
   205f8:	4812      	ldr	r0, [pc, #72]	@ (20644 <_ZN20complex_full_dynamic3app17h1367dccc0132794aE+0xa0>)
   205fa:	2103      	movs	r1, #3
   205fc:	2208      	movs	r2, #8
   205fe:	2600      	movs	r6, #0
   20600:	4633      	mov	r3, r6
   20602:	df02      	svc	2
   20604:	287f      	cmp	r0, #127	@ 0x7f
   20606:	d80b      	bhi.n	20620 <_ZN20complex_full_dynamic3app17h1367dccc0132794aE+0x7c>
   20608:	9c04      	ldr	r4, [sp, #16]
   2060a:	6061      	str	r1, [r4, #4]
   2060c:	2601      	movs	r6, #1
   2060e:	7026      	strb	r6, [r4, #0]
   20610:	a80c      	add	r0, sp, #48	@ 0x30
   20612:	f006 f981 	bl	26918 <_ZN9allow_pin12full_dynamic17unshare_if_shared17h2809d14697b066c7E>
   20616:	a805      	add	r0, sp, #20
   20618:	f006 f97e 	bl	26918 <_ZN9allow_pin12full_dynamic17unshare_if_shared17h2809d14697b066c7E>
   2061c:	b021      	add	sp, #132	@ 0x84
   2061e:	bdf0      	pop	{r4, r5, r6, r7, pc}
   20620:	a805      	add	r0, sp, #20
   20622:	f006 f979 	bl	26918 <_ZN9allow_pin12full_dynamic17unshare_if_shared17h2809d14697b066c7E>
   20626:	ac0c      	add	r4, sp, #48	@ 0x30
   20628:	4620      	mov	r0, r4
   2062a:	f006 f975 	bl	26918 <_ZN9allow_pin12full_dynamic17unshare_if_shared17h2809d14697b066c7E>
   2062e:	4620      	mov	r0, r4
   20630:	f006 f972 	bl	26918 <_ZN9allow_pin12full_dynamic17unshare_if_shared17h2809d14697b066c7E>
   20634:	9c04      	ldr	r4, [sp, #16]
   20636:	1c60      	adds	r0, r4, #1
   20638:	2248      	movs	r2, #72	@ 0x48
   2063a:	9902      	ldr	r1, [sp, #8]
   2063c:	f006 fb2d 	bl	26c9a <__aeabi_memcpy>
   20640:	e7e5      	b.n	2060e <_ZN20complex_full_dynamic3app17h1367dccc0132794aE+0x6a>
   20642:	46c0      	nop			@ (mov r8, r8)
   20644:	000012d1 	.word	0x000012d1

00020648 <_ZN20complex_full_dynamic3app17h1381d684240722bdE>:
   20648:	b5f0      	push	{r4, r5, r6, r7, lr}
   2064a:	af03      	add	r7, sp, #12
   2064c:	b0af      	sub	sp, #188	@ 0xbc
   2064e:	9004      	str	r0, [sp, #16]
   20650:	ae05      	add	r6, sp, #20
   20652:	2502      	movs	r5, #2
   20654:	7235      	strb	r5, [r6, #8]
   20656:	4630      	mov	r0, r6
   20658:	300c      	adds	r0, #12
   2065a:	222a      	movs	r2, #42	@ 0x2a
   2065c:	9203      	str	r2, [sp, #12]
   2065e:	f006 fb1c 	bl	26c9a <__aeabi_memcpy>
   20662:	ac13      	add	r4, sp, #76	@ 0x4c
   20664:	4620      	mov	r0, r4
   20666:	300c      	adds	r0, #12
   20668:	2163      	movs	r1, #99	@ 0x63
   2066a:	9002      	str	r0, [sp, #8]
   2066c:	f006 f968 	bl	26940 <__aeabi_memclr4>
   20670:	7225      	strb	r5, [r4, #8]
   20672:	2204      	movs	r2, #4
   20674:	9200      	str	r2, [sp, #0]
   20676:	4c1b      	ldr	r4, [pc, #108]	@ (206e4 <_ZN20complex_full_dynamic3app17h1381d684240722bdE+0x9c>)
   20678:	4630      	mov	r0, r6
   2067a:	9903      	ldr	r1, [sp, #12]
   2067c:	4623      	mov	r3, r4
   2067e:	f7ff fd31 	bl	200e4 <_ZN9allow_pin12full_dynamic15Buffer$LT$B$GT$5allow17hcdfd34cf7b1c64cdE>
   20682:	07c0      	lsls	r0, r0, #31
   20684:	d111      	bne.n	206aa <_ZN20complex_full_dynamic3app17h1381d684240722bdE+0x62>
   20686:	2000      	movs	r0, #0
   20688:	9000      	str	r0, [sp, #0]
   2068a:	a813      	add	r0, sp, #76	@ 0x4c
   2068c:	2163      	movs	r1, #99	@ 0x63
   2068e:	2203      	movs	r2, #3
   20690:	4623      	mov	r3, r4
   20692:	f7ff fd27 	bl	200e4 <_ZN9allow_pin12full_dynamic15Buffer$LT$B$GT$5allow17hcdfd34cf7b1c64cdE>
   20696:	07c0      	lsls	r0, r0, #31
   20698:	d107      	bne.n	206aa <_ZN20complex_full_dynamic3app17h1381d684240722bdE+0x62>
   2069a:	4812      	ldr	r0, [pc, #72]	@ (206e4 <_ZN20complex_full_dynamic3app17h1381d684240722bdE+0x9c>)
   2069c:	2104      	movs	r1, #4
   2069e:	2600      	movs	r6, #0
   206a0:	4632      	mov	r2, r6
   206a2:	4633      	mov	r3, r6
   206a4:	df02      	svc	2
   206a6:	287f      	cmp	r0, #127	@ 0x7f
   206a8:	d80b      	bhi.n	206c2 <_ZN20complex_full_dynamic3app17h1381d684240722bdE+0x7a>
   206aa:	9c04      	ldr	r4, [sp, #16]
   206ac:	6061      	str	r1, [r4, #4]
   206ae:	2601      	movs	r6, #1
   206b0:	7026      	strb	r6, [r4, #0]
   206b2:	a813      	add	r0, sp, #76	@ 0x4c
   206b4:	f006 f930 	bl	26918 <_ZN9allow_pin12full_dynamic17unshare_if_shared17h2809d14697b066c7E>
   206b8:	a805      	add	r0, sp, #20
   206ba:	f006 f92d 	bl	26918 <_ZN9allow_pin12full_dynamic17unshare_if_shared17h2809d14697b066c7E>
   206be:	b02f      	add	sp, #188	@ 0xbc
   206c0:	bdf0      	pop	{r4, r5, r6, r7, pc}
   206c2:	a805      	add	r0, sp, #20
   206c4:	f006 f928 	bl	26918 <_ZN9allow_pin12full_dynamic17unshare_if_shared17h2809d14697b066c7E>
   206c8:	ac13      	add	r4, sp, #76	@ 0x4c
   206ca:	4620      	mov	r0, r4
   206cc:	f006 f924 	bl	26918 <_ZN9allow_pin12full_dynamic17unshare_if_shared17h2809d14697b066c7E>
   206d0:	4620      	mov	r0, r4
   206d2:	f006 f921 	bl	26918 <_ZN9allow_pin12full_dynamic17unshare_if_shared17h2809d14697b066c7E>
   206d6:	9c04      	ldr	r4, [sp, #16]
   206d8:	1c60      	adds	r0, r4, #1
   206da:	2263      	movs	r2, #99	@ 0x63
   206dc:	9902      	ldr	r1, [sp, #8]
   206de:	f006 fadc 	bl	26c9a <__aeabi_memcpy>
   206e2:	e7e5      	b.n	206b0 <_ZN20complex_full_dynamic3app17h1381d684240722bdE+0x68>
   206e4:	00001c7c 	.word	0x00001c7c

000206e8 <_ZN20complex_full_dynamic3app17h1496309b141203a5E>:
   206e8:	b5f0      	push	{r4, r5, r6, r7, lr}
   206ea:	af03      	add	r7, sp, #12
   206ec:	b09d      	sub	sp, #116	@ 0x74
   206ee:	9004      	str	r0, [sp, #16]
   206f0:	ae05      	add	r6, sp, #20
   206f2:	2502      	movs	r5, #2
   206f4:	7235      	strb	r5, [r6, #8]
   206f6:	4630      	mov	r0, r6
   206f8:	300c      	adds	r0, #12
   206fa:	2227      	movs	r2, #39	@ 0x27
   206fc:	9203      	str	r2, [sp, #12]
   206fe:	f006 facc 	bl	26c9a <__aeabi_memcpy>
   20702:	ac12      	add	r4, sp, #72	@ 0x48
   20704:	4620      	mov	r0, r4
   20706:	300c      	adds	r0, #12
   20708:	211e      	movs	r1, #30
   2070a:	9002      	str	r0, [sp, #8]
   2070c:	f006 f918 	bl	26940 <__aeabi_memclr4>
   20710:	7225      	strb	r5, [r4, #8]
   20712:	2503      	movs	r5, #3
   20714:	9500      	str	r5, [sp, #0]
   20716:	2204      	movs	r2, #4
   20718:	4c1a      	ldr	r4, [pc, #104]	@ (20784 <_ZN20complex_full_dynamic3app17h1496309b141203a5E+0x9c>)
   2071a:	4630      	mov	r0, r6
   2071c:	9903      	ldr	r1, [sp, #12]
   2071e:	4623      	mov	r3, r4
   20720:	f7ff fce0 	bl	200e4 <_ZN9allow_pin12full_dynamic15Buffer$LT$B$GT$5allow17hcdfd34cf7b1c64cdE>
   20724:	07c0      	lsls	r0, r0, #31
   20726:	d110      	bne.n	2074a <_ZN20complex_full_dynamic3app17h1496309b141203a5E+0x62>
   20728:	9500      	str	r5, [sp, #0]
   2072a:	a812      	add	r0, sp, #72	@ 0x48
   2072c:	211e      	movs	r1, #30
   2072e:	462a      	mov	r2, r5
   20730:	4623      	mov	r3, r4
   20732:	f7ff fcd7 	bl	200e4 <_ZN9allow_pin12full_dynamic15Buffer$LT$B$GT$5allow17hcdfd34cf7b1c64cdE>
   20736:	07c0      	lsls	r0, r0, #31
   20738:	d107      	bne.n	2074a <_ZN20complex_full_dynamic3app17h1496309b141203a5E+0x62>
   2073a:	4812      	ldr	r0, [pc, #72]	@ (20784 <_ZN20complex_full_dynamic3app17h1496309b141203a5E+0x9c>)
   2073c:	2103      	movs	r1, #3
   2073e:	2600      	movs	r6, #0
   20740:	460a      	mov	r2, r1
   20742:	4633      	mov	r3, r6
   20744:	df02      	svc	2
   20746:	287f      	cmp	r0, #127	@ 0x7f
   20748:	d80b      	bhi.n	20762 <_ZN20complex_full_dynamic3app17h1496309b141203a5E+0x7a>
   2074a:	9c04      	ldr	r4, [sp, #16]
   2074c:	6061      	str	r1, [r4, #4]
   2074e:	2601      	movs	r6, #1
   20750:	7026      	strb	r6, [r4, #0]
   20752:	a812      	add	r0, sp, #72	@ 0x48
   20754:	f006 f8e0 	bl	26918 <_ZN9allow_pin12full_dynamic17unshare_if_shared17h2809d14697b066c7E>
   20758:	a805      	add	r0, sp, #20
   2075a:	f006 f8dd 	bl	26918 <_ZN9allow_pin12full_dynamic17unshare_if_shared17h2809d14697b066c7E>
   2075e:	b01d      	add	sp, #116	@ 0x74
   20760:	bdf0      	pop	{r4, r5, r6, r7, pc}
   20762:	a805      	add	r0, sp, #20
   20764:	f006 f8d8 	bl	26918 <_ZN9allow_pin12full_dynamic17unshare_if_shared17h2809d14697b066c7E>
   20768:	ac12      	add	r4, sp, #72	@ 0x48
   2076a:	4620      	mov	r0, r4
   2076c:	f006 f8d4 	bl	26918 <_ZN9allow_pin12full_dynamic17unshare_if_shared17h2809d14697b066c7E>
   20770:	4620      	mov	r0, r4
   20772:	f006 f8d1 	bl	26918 <_ZN9allow_pin12full_dynamic17unshare_if_shared17h2809d14697b066c7E>
   20776:	9c04      	ldr	r4, [sp, #16]
   20778:	1c60      	adds	r0, r4, #1
   2077a:	221e      	movs	r2, #30
   2077c:	9902      	ldr	r1, [sp, #8]
   2077e:	f006 fa8c 	bl	26c9a <__aeabi_memcpy>
   20782:	e7e5      	b.n	20750 <_ZN20complex_full_dynamic3app17h1496309b141203a5E+0x68>
   20784:	000010e2 	.word	0x000010e2

00020788 <_ZN20complex_full_dynamic3app17h180467ecf986ffe4E>:
   20788:	b5f0      	push	{r4, r5, r6, r7, lr}
   2078a:	af03      	add	r7, sp, #12
   2078c:	b0a3      	sub	sp, #140	@ 0x8c
   2078e:	9003      	str	r0, [sp, #12]
   20790:	ae04      	add	r6, sp, #16
   20792:	2502      	movs	r5, #2
   20794:	7235      	strb	r5, [r6, #8]
   20796:	4630      	mov	r0, r6
   20798:	300c      	adds	r0, #12
   2079a:	223b      	movs	r2, #59	@ 0x3b
   2079c:	9202      	str	r2, [sp, #8]
   2079e:	f006 fa7c 	bl	26c9a <__aeabi_memcpy>
   207a2:	ac16      	add	r4, sp, #88	@ 0x58
   207a4:	4620      	mov	r0, r4
   207a6:	300c      	adds	r0, #12
   207a8:	2127      	movs	r1, #39	@ 0x27
   207aa:	9001      	str	r0, [sp, #4]
   207ac:	f006 f8c8 	bl	26940 <__aeabi_memclr4>
   207b0:	7225      	strb	r5, [r4, #8]
   207b2:	2005      	movs	r0, #5
   207b4:	9000      	str	r0, [sp, #0]
   207b6:	2204      	movs	r2, #4
   207b8:	4c1a      	ldr	r4, [pc, #104]	@ (20824 <_ZN20complex_full_dynamic3app17h180467ecf986ffe4E+0x9c>)
   207ba:	4630      	mov	r0, r6
   207bc:	9902      	ldr	r1, [sp, #8]
   207be:	4623      	mov	r3, r4
   207c0:	f7ff fc90 	bl	200e4 <_ZN9allow_pin12full_dynamic15Buffer$LT$B$GT$5allow17hcdfd34cf7b1c64cdE>
   207c4:	07c0      	lsls	r0, r0, #31
   207c6:	d110      	bne.n	207ea <_ZN20complex_full_dynamic3app17h180467ecf986ffe4E+0x62>
   207c8:	2203      	movs	r2, #3
   207ca:	9200      	str	r2, [sp, #0]
   207cc:	a816      	add	r0, sp, #88	@ 0x58
   207ce:	2127      	movs	r1, #39	@ 0x27
   207d0:	4623      	mov	r3, r4
   207d2:	f7ff fc87 	bl	200e4 <_ZN9allow_pin12full_dynamic15Buffer$LT$B$GT$5allow17hcdfd34cf7b1c64cdE>
   207d6:	07c0      	lsls	r0, r0, #31
   207d8:	d107      	bne.n	207ea <_ZN20complex_full_dynamic3app17h180467ecf986ffe4E+0x62>
   207da:	4812      	ldr	r0, [pc, #72]	@ (20824 <_ZN20complex_full_dynamic3app17h180467ecf986ffe4E+0x9c>)
   207dc:	2105      	movs	r1, #5
   207de:	2203      	movs	r2, #3
   207e0:	2600      	movs	r6, #0
   207e2:	4633      	mov	r3, r6
   207e4:	df02      	svc	2
   207e6:	287f      	cmp	r0, #127	@ 0x7f
   207e8:	d80b      	bhi.n	20802 <_ZN20complex_full_dynamic3app17h180467ecf986ffe4E+0x7a>
   207ea:	9c03      	ldr	r4, [sp, #12]
   207ec:	6061      	str	r1, [r4, #4]
   207ee:	2601      	movs	r6, #1
   207f0:	7026      	strb	r6, [r4, #0]
   207f2:	a816      	add	r0, sp, #88	@ 0x58
   207f4:	f006 f890 	bl	26918 <_ZN9allow_pin12full_dynamic17unshare_if_shared17h2809d14697b066c7E>
   207f8:	a804      	add	r0, sp, #16
   207fa:	f006 f88d 	bl	26918 <_ZN9allow_pin12full_dynamic17unshare_if_shared17h2809d14697b066c7E>
   207fe:	b023      	add	sp, #140	@ 0x8c
   20800:	bdf0      	pop	{r4, r5, r6, r7, pc}
   20802:	a804      	add	r0, sp, #16
   20804:	f006 f888 	bl	26918 <_ZN9allow_pin12full_dynamic17unshare_if_shared17h2809d14697b066c7E>
   20808:	ac16      	add	r4, sp, #88	@ 0x58
   2080a:	4620      	mov	r0, r4
   2080c:	f006 f884 	bl	26918 <_ZN9allow_pin12full_dynamic17unshare_if_shared17h2809d14697b066c7E>
   20810:	4620      	mov	r0, r4
   20812:	f006 f881 	bl	26918 <_ZN9allow_pin12full_dynamic17unshare_if_shared17h2809d14697b066c7E>
   20816:	9c03      	ldr	r4, [sp, #12]
   20818:	1c60      	adds	r0, r4, #1
   2081a:	2227      	movs	r2, #39	@ 0x27
   2081c:	9901      	ldr	r1, [sp, #4]
   2081e:	f006 fa3c 	bl	26c9a <__aeabi_memcpy>
   20822:	e7e5      	b.n	207f0 <_ZN20complex_full_dynamic3app17h180467ecf986ffe4E+0x68>
   20824:	00000bd3 	.word	0x00000bd3

00020828 <_ZN20complex_full_dynamic3app17h18b28b55d47bae11E>:
   20828:	b5f0      	push	{r4, r5, r6, r7, lr}
   2082a:	af03      	add	r7, sp, #12
   2082c:	b099      	sub	sp, #100	@ 0x64
   2082e:	9003      	str	r0, [sp, #12]
   20830:	ae04      	add	r6, sp, #16
   20832:	2502      	movs	r5, #2
   20834:	7235      	strb	r5, [r6, #8]
   20836:	4630      	mov	r0, r6
   20838:	300c      	adds	r0, #12
   2083a:	2227      	movs	r2, #39	@ 0x27
   2083c:	9202      	str	r2, [sp, #8]
   2083e:	f006 fa2c 	bl	26c9a <__aeabi_memcpy>
   20842:	ac11      	add	r4, sp, #68	@ 0x44
   20844:	4620      	mov	r0, r4
   20846:	300c      	adds	r0, #12
   20848:	2114      	movs	r1, #20
   2084a:	9001      	str	r0, [sp, #4]
   2084c:	f006 f878 	bl	26940 <__aeabi_memclr4>
   20850:	7225      	strb	r5, [r4, #8]
   20852:	2006      	movs	r0, #6
   20854:	9000      	str	r0, [sp, #0]
   20856:	2204      	movs	r2, #4
   20858:	4c1b      	ldr	r4, [pc, #108]	@ (208c8 <_ZN20complex_full_dynamic3app17h18b28b55d47bae11E+0xa0>)
   2085a:	4630      	mov	r0, r6
   2085c:	9902      	ldr	r1, [sp, #8]
   2085e:	4623      	mov	r3, r4
   20860:	f7ff fc40 	bl	200e4 <_ZN9allow_pin12full_dynamic15Buffer$LT$B$GT$5allow17hcdfd34cf7b1c64cdE>
   20864:	07c0      	lsls	r0, r0, #31
   20866:	d111      	bne.n	2088c <_ZN20complex_full_dynamic3app17h18b28b55d47bae11E+0x64>
   20868:	2005      	movs	r0, #5
   2086a:	9000      	str	r0, [sp, #0]
   2086c:	a811      	add	r0, sp, #68	@ 0x44
   2086e:	2114      	movs	r1, #20
   20870:	2203      	movs	r2, #3
   20872:	4623      	mov	r3, r4
   20874:	f7ff fc36 	bl	200e4 <_ZN9allow_pin12full_dynamic15Buffer$LT$B$GT$5allow17hcdfd34cf7b1c64cdE>
   20878:	07c0      	lsls	r0, r0, #31
   2087a:	d107      	bne.n	2088c <_ZN20complex_full_dynamic3app17h18b28b55d47bae11E+0x64>
   2087c:	4812      	ldr	r0, [pc, #72]	@ (208c8 <_ZN20complex_full_dynamic3app17h18b28b55d47bae11E+0xa0>)
   2087e:	2106      	movs	r1, #6
   20880:	2205      	movs	r2, #5
   20882:	2600      	movs	r6, #0
   20884:	4633      	mov	r3, r6
   20886:	df02      	svc	2
   20888:	287f      	cmp	r0, #127	@ 0x7f
   2088a:	d80b      	bhi.n	208a4 <_ZN20complex_full_dynamic3app17h18b28b55d47bae11E+0x7c>
   2088c:	9c03      	ldr	r4, [sp, #12]
   2088e:	6061      	str	r1, [r4, #4]
   20890:	2601      	movs	r6, #1
   20892:	7026      	strb	r6, [r4, #0]
   20894:	a811      	add	r0, sp, #68	@ 0x44
   20896:	f006 f83f 	bl	26918 <_ZN9allow_pin12full_dynamic17unshare_if_shared17h2809d14697b066c7E>
   2089a:	a804      	add	r0, sp, #16
   2089c:	f006 f83c 	bl	26918 <_ZN9allow_pin12full_dynamic17unshare_if_shared17h2809d14697b066c7E>
   208a0:	b019      	add	sp, #100	@ 0x64
   208a2:	bdf0      	pop	{r4, r5, r6, r7, pc}
   208a4:	a804      	add	r0, sp, #16
   208a6:	f006 f837 	bl	26918 <_ZN9allow_pin12full_dynamic17unshare_if_shared17h2809d14697b066c7E>
   208aa:	ac11      	add	r4, sp, #68	@ 0x44
   208ac:	4620      	mov	r0, r4
   208ae:	f006 f833 	bl	26918 <_ZN9allow_pin12full_dynamic17unshare_if_shared17h2809d14697b066c7E>
   208b2:	4620      	mov	r0, r4
   208b4:	f006 f830 	bl	26918 <_ZN9allow_pin12full_dynamic17unshare_if_shared17h2809d14697b066c7E>
   208b8:	9c03      	ldr	r4, [sp, #12]
   208ba:	1c60      	adds	r0, r4, #1
   208bc:	2214      	movs	r2, #20
   208be:	9901      	ldr	r1, [sp, #4]
   208c0:	f006 f9eb 	bl	26c9a <__aeabi_memcpy>
   208c4:	e7e5      	b.n	20892 <_ZN20complex_full_dynamic3app17h18b28b55d47bae11E+0x6a>
   208c6:	46c0      	nop			@ (mov r8, r8)
   208c8:	000022c9 	.word	0x000022c9

000208cc <_ZN20complex_full_dynamic3app17h19456355295f4486E>:
   208cc:	b5f0      	push	{r4, r5, r6, r7, lr}
   208ce:	af03      	add	r7, sp, #12
   208d0:	b0ad      	sub	sp, #180	@ 0xb4
   208d2:	9003      	str	r0, [sp, #12]
   208d4:	ae04      	add	r6, sp, #16
   208d6:	2502      	movs	r5, #2
   208d8:	7235      	strb	r5, [r6, #8]
   208da:	4630      	mov	r0, r6
   208dc:	300c      	adds	r0, #12
   208de:	2263      	movs	r2, #99	@ 0x63
   208e0:	9202      	str	r2, [sp, #8]
   208e2:	f006 f9da 	bl	26c9a <__aeabi_memcpy>
   208e6:	ac20      	add	r4, sp, #128	@ 0x80
   208e8:	4620      	mov	r0, r4
   208ea:	300c      	adds	r0, #12
   208ec:	2127      	movs	r1, #39	@ 0x27
   208ee:	9001      	str	r0, [sp, #4]
   208f0:	f006 f826 	bl	26940 <__aeabi_memclr4>
   208f4:	7225      	strb	r5, [r4, #8]
   208f6:	2007      	movs	r0, #7
   208f8:	9000      	str	r0, [sp, #0]
   208fa:	2204      	movs	r2, #4
   208fc:	4c1b      	ldr	r4, [pc, #108]	@ (2096c <_ZN20complex_full_dynamic3app17h19456355295f4486E+0xa0>)
   208fe:	4630      	mov	r0, r6
   20900:	9902      	ldr	r1, [sp, #8]
   20902:	4623      	mov	r3, r4
   20904:	f7ff fbee 	bl	200e4 <_ZN9allow_pin12full_dynamic15Buffer$LT$B$GT$5allow17hcdfd34cf7b1c64cdE>
   20908:	07c0      	lsls	r0, r0, #31
   2090a:	d111      	bne.n	20930 <_ZN20complex_full_dynamic3app17h19456355295f4486E+0x64>
   2090c:	2000      	movs	r0, #0
   2090e:	9000      	str	r0, [sp, #0]
   20910:	a820      	add	r0, sp, #128	@ 0x80
   20912:	2127      	movs	r1, #39	@ 0x27
   20914:	2203      	movs	r2, #3
   20916:	4623      	mov	r3, r4
   20918:	f7ff fbe4 	bl	200e4 <_ZN9allow_pin12full_dynamic15Buffer$LT$B$GT$5allow17hcdfd34cf7b1c64cdE>
   2091c:	07c0      	lsls	r0, r0, #31
   2091e:	d107      	bne.n	20930 <_ZN20complex_full_dynamic3app17h19456355295f4486E+0x64>
   20920:	4812      	ldr	r0, [pc, #72]	@ (2096c <_ZN20complex_full_dynamic3app17h19456355295f4486E+0xa0>)
   20922:	2107      	movs	r1, #7
   20924:	2600      	movs	r6, #0
   20926:	4632      	mov	r2, r6
   20928:	4633      	mov	r3, r6
   2092a:	df02      	svc	2
   2092c:	287f      	cmp	r0, #127	@ 0x7f
   2092e:	d80b      	bhi.n	20948 <_ZN20complex_full_dynamic3app17h19456355295f4486E+0x7c>
   20930:	9c03      	ldr	r4, [sp, #12]
   20932:	6061      	str	r1, [r4, #4]
   20934:	2601      	movs	r6, #1
   20936:	7026      	strb	r6, [r4, #0]
   20938:	a820      	add	r0, sp, #128	@ 0x80
   2093a:	f005 ffed 	bl	26918 <_ZN9allow_pin12full_dynamic17unshare_if_shared17h2809d14697b066c7E>
   2093e:	a804      	add	r0, sp, #16
   20940:	f005 ffea 	bl	26918 <_ZN9allow_pin12full_dynamic17unshare_if_shared17h2809d14697b066c7E>
   20944:	b02d      	add	sp, #180	@ 0xb4
   20946:	bdf0      	pop	{r4, r5, r6, r7, pc}
   20948:	a804      	add	r0, sp, #16
   2094a:	f005 ffe5 	bl	26918 <_ZN9allow_pin12full_dynamic17unshare_if_shared17h2809d14697b066c7E>
   2094e:	ac20      	add	r4, sp, #128	@ 0x80
   20950:	4620      	mov	r0, r4
   20952:	f005 ffe1 	bl	26918 <_ZN9allow_pin12full_dynamic17unshare_if_shared17h2809d14697b066c7E>
   20956:	4620      	mov	r0, r4
   20958:	f005 ffde 	bl	26918 <_ZN9allow_pin12full_dynamic17unshare_if_shared17h2809d14697b066c7E>
   2095c:	9c03      	ldr	r4, [sp, #12]
   2095e:	1c60      	adds	r0, r4, #1
   20960:	2227      	movs	r2, #39	@ 0x27
   20962:	9901      	ldr	r1, [sp, #4]
   20964:	f006 f999 	bl	26c9a <__aeabi_memcpy>
   20968:	e7e5      	b.n	20936 <_ZN20complex_full_dynamic3app17h19456355295f4486E+0x6a>
   2096a:	46c0      	nop			@ (mov r8, r8)
   2096c:	00001e54 	.word	0x00001e54

00020970 <_ZN20complex_full_dynamic3app17h1ae56faff2d6bb44E>:
   20970:	b5f0      	push	{r4, r5, r6, r7, lr}
   20972:	af03      	add	r7, sp, #12
   20974:	b09f      	sub	sp, #124	@ 0x7c
   20976:	9003      	str	r0, [sp, #12]
   20978:	ae04      	add	r6, sp, #16
   2097a:	2502      	movs	r5, #2
   2097c:	7235      	strb	r5, [r6, #8]
   2097e:	4630      	mov	r0, r6
   20980:	300c      	adds	r0, #12
   20982:	222c      	movs	r2, #44	@ 0x2c
   20984:	9202      	str	r2, [sp, #8]
   20986:	f006 f988 	bl	26c9a <__aeabi_memcpy>
   2098a:	ac12      	add	r4, sp, #72	@ 0x48
   2098c:	4620      	mov	r0, r4
   2098e:	300c      	adds	r0, #12
   20990:	2125      	movs	r1, #37	@ 0x25
   20992:	9001      	str	r0, [sp, #4]
   20994:	f005 ffd4 	bl	26940 <__aeabi_memclr4>
   20998:	7225      	strb	r5, [r4, #8]
   2099a:	2003      	movs	r0, #3
   2099c:	9000      	str	r0, [sp, #0]
   2099e:	2204      	movs	r2, #4
   209a0:	4c1b      	ldr	r4, [pc, #108]	@ (20a10 <_ZN20complex_full_dynamic3app17h1ae56faff2d6bb44E+0xa0>)
   209a2:	4630      	mov	r0, r6
   209a4:	9902      	ldr	r1, [sp, #8]
   209a6:	4623      	mov	r3, r4
   209a8:	f7ff fb9c 	bl	200e4 <_ZN9allow_pin12full_dynamic15Buffer$LT$B$GT$5allow17hcdfd34cf7b1c64cdE>
   209ac:	07c0      	lsls	r0, r0, #31
   209ae:	d111      	bne.n	209d4 <_ZN20complex_full_dynamic3app17h1ae56faff2d6bb44E+0x64>
   209b0:	2000      	movs	r0, #0
   209b2:	9000      	str	r0, [sp, #0]
   209b4:	a812      	add	r0, sp, #72	@ 0x48
   209b6:	2125      	movs	r1, #37	@ 0x25
   209b8:	2203      	movs	r2, #3
   209ba:	4623      	mov	r3, r4
   209bc:	f7ff fb92 	bl	200e4 <_ZN9allow_pin12full_dynamic15Buffer$LT$B$GT$5allow17hcdfd34cf7b1c64cdE>
   209c0:	07c0      	lsls	r0, r0, #31
   209c2:	d107      	bne.n	209d4 <_ZN20complex_full_dynamic3app17h1ae56faff2d6bb44E+0x64>
   209c4:	4812      	ldr	r0, [pc, #72]	@ (20a10 <_ZN20complex_full_dynamic3app17h1ae56faff2d6bb44E+0xa0>)
   209c6:	2103      	movs	r1, #3
   209c8:	2600      	movs	r6, #0
   209ca:	4632      	mov	r2, r6
   209cc:	4633      	mov	r3, r6
   209ce:	df02      	svc	2
   209d0:	287f      	cmp	r0, #127	@ 0x7f
   209d2:	d80b      	bhi.n	209ec <_ZN20complex_full_dynamic3app17h1ae56faff2d6bb44E+0x7c>
   209d4:	9c03      	ldr	r4, [sp, #12]
   209d6:	6061      	str	r1, [r4, #4]
   209d8:	2601      	movs	r6, #1
   209da:	7026      	strb	r6, [r4, #0]
   209dc:	a812      	add	r0, sp, #72	@ 0x48
   209de:	f005 ff9b 	bl	26918 <_ZN9allow_pin12full_dynamic17unshare_if_shared17h2809d14697b066c7E>
   209e2:	a804      	add	r0, sp, #16
   209e4:	f005 ff98 	bl	26918 <_ZN9allow_pin12full_dynamic17unshare_if_shared17h2809d14697b066c7E>
   209e8:	b01f      	add	sp, #124	@ 0x7c
   209ea:	bdf0      	pop	{r4, r5, r6, r7, pc}
   209ec:	a804      	add	r0, sp, #16
   209ee:	f005 ff93 	bl	26918 <_ZN9allow_pin12full_dynamic17unshare_if_shared17h2809d14697b066c7E>
   209f2:	ac12      	add	r4, sp, #72	@ 0x48
   209f4:	4620      	mov	r0, r4
   209f6:	f005 ff8f 	bl	26918 <_ZN9allow_pin12full_dynamic17unshare_if_shared17h2809d14697b066c7E>
   209fa:	4620      	mov	r0, r4
   209fc:	f005 ff8c 	bl	26918 <_ZN9allow_pin12full_dynamic17unshare_if_shared17h2809d14697b066c7E>
   20a00:	9c03      	ldr	r4, [sp, #12]
   20a02:	1c60      	adds	r0, r4, #1
   20a04:	2225      	movs	r2, #37	@ 0x25
   20a06:	9901      	ldr	r1, [sp, #4]
   20a08:	f006 f947 	bl	26c9a <__aeabi_memcpy>
   20a0c:	e7e5      	b.n	209da <_ZN20complex_full_dynamic3app17h1ae56faff2d6bb44E+0x6a>
   20a0e:	46c0      	nop			@ (mov r8, r8)
   20a10:	0000077f 	.word	0x0000077f

00020a14 <_ZN20complex_full_dynamic3app17h1ca89fc355751c93E>:
   20a14:	b5f0      	push	{r4, r5, r6, r7, lr}
   20a16:	af03      	add	r7, sp, #12
   20a18:	b0a7      	sub	sp, #156	@ 0x9c
   20a1a:	9003      	str	r0, [sp, #12]
   20a1c:	ae04      	add	r6, sp, #16
   20a1e:	2402      	movs	r4, #2
   20a20:	7234      	strb	r4, [r6, #8]
   20a22:	4630      	mov	r0, r6
   20a24:	300c      	adds	r0, #12
   20a26:	225d      	movs	r2, #93	@ 0x5d
   20a28:	9202      	str	r2, [sp, #8]
   20a2a:	f006 f936 	bl	26c9a <__aeabi_memcpy>
   20a2e:	ad1f      	add	r5, sp, #124	@ 0x7c
   20a30:	4628      	mov	r0, r5
   20a32:	300c      	adds	r0, #12
   20a34:	2112      	movs	r1, #18
   20a36:	9001      	str	r0, [sp, #4]
   20a38:	f005 ff82 	bl	26940 <__aeabi_memclr4>
   20a3c:	722c      	strb	r4, [r5, #8]
   20a3e:	2000      	movs	r0, #0
   20a40:	9000      	str	r0, [sp, #0]
   20a42:	2204      	movs	r2, #4
   20a44:	4d1a      	ldr	r5, [pc, #104]	@ (20ab0 <_ZN20complex_full_dynamic3app17h1ca89fc355751c93E+0x9c>)
   20a46:	4630      	mov	r0, r6
   20a48:	9902      	ldr	r1, [sp, #8]
   20a4a:	462b      	mov	r3, r5
   20a4c:	f7ff fb4a 	bl	200e4 <_ZN9allow_pin12full_dynamic15Buffer$LT$B$GT$5allow17hcdfd34cf7b1c64cdE>
   20a50:	07c0      	lsls	r0, r0, #31
   20a52:	d110      	bne.n	20a76 <_ZN20complex_full_dynamic3app17h1ca89fc355751c93E+0x62>
   20a54:	9400      	str	r4, [sp, #0]
   20a56:	a81f      	add	r0, sp, #124	@ 0x7c
   20a58:	2112      	movs	r1, #18
   20a5a:	2203      	movs	r2, #3
   20a5c:	462b      	mov	r3, r5
   20a5e:	f7ff fb41 	bl	200e4 <_ZN9allow_pin12full_dynamic15Buffer$LT$B$GT$5allow17hcdfd34cf7b1c64cdE>
   20a62:	07c0      	lsls	r0, r0, #31
   20a64:	d107      	bne.n	20a76 <_ZN20complex_full_dynamic3app17h1ca89fc355751c93E+0x62>
   20a66:	4812      	ldr	r0, [pc, #72]	@ (20ab0 <_ZN20complex_full_dynamic3app17h1ca89fc355751c93E+0x9c>)
   20a68:	2202      	movs	r2, #2
   20a6a:	2600      	movs	r6, #0
   20a6c:	4631      	mov	r1, r6
   20a6e:	4633      	mov	r3, r6
   20a70:	df02      	svc	2
   20a72:	287f      	cmp	r0, #127	@ 0x7f
   20a74:	d80b      	bhi.n	20a8e <_ZN20complex_full_dynamic3app17h1ca89fc355751c93E+0x7a>
   20a76:	9c03      	ldr	r4, [sp, #12]
   20a78:	6061      	str	r1, [r4, #4]
   20a7a:	2601      	movs	r6, #1
   20a7c:	7026      	strb	r6, [r4, #0]
   20a7e:	a81f      	add	r0, sp, #124	@ 0x7c
   20a80:	f005 ff4a 	bl	26918 <_ZN9allow_pin12full_dynamic17unshare_if_shared17h2809d14697b066c7E>
   20a84:	a804      	add	r0, sp, #16
   20a86:	f005 ff47 	bl	26918 <_ZN9allow_pin12full_dynamic17unshare_if_shared17h2809d14697b066c7E>
   20a8a:	b027      	add	sp, #156	@ 0x9c
   20a8c:	bdf0      	pop	{r4, r5, r6, r7, pc}
   20a8e:	a804      	add	r0, sp, #16
   20a90:	f005 ff42 	bl	26918 <_ZN9allow_pin12full_dynamic17unshare_if_shared17h2809d14697b066c7E>
   20a94:	ac1f      	add	r4, sp, #124	@ 0x7c
   20a96:	4620      	mov	r0, r4
   20a98:	f005 ff3e 	bl	26918 <_ZN9allow_pin12full_dynamic17unshare_if_shared17h2809d14697b066c7E>
   20a9c:	4620      	mov	r0, r4
   20a9e:	f005 ff3b 	bl	26918 <_ZN9allow_pin12full_dynamic17unshare_if_shared17h2809d14697b066c7E>
   20aa2:	9c03      	ldr	r4, [sp, #12]
   20aa4:	1c60      	adds	r0, r4, #1
   20aa6:	2212      	movs	r2, #18
   20aa8:	9901      	ldr	r1, [sp, #4]
   20aaa:	f006 f8f6 	bl	26c9a <__aeabi_memcpy>
   20aae:	e7e5      	b.n	20a7c <_ZN20complex_full_dynamic3app17h1ca89fc355751c93E+0x68>
   20ab0:	000015f1 	.word	0x000015f1

00020ab4 <_ZN20complex_full_dynamic3app17h1d9d71e0aef7516bE>:
   20ab4:	b5f0      	push	{r4, r5, r6, r7, lr}
   20ab6:	af03      	add	r7, sp, #12
   20ab8:	b099      	sub	sp, #100	@ 0x64
   20aba:	9004      	str	r0, [sp, #16]
   20abc:	ae05      	add	r6, sp, #20
   20abe:	2502      	movs	r5, #2
   20ac0:	7235      	strb	r5, [r6, #8]
   20ac2:	4630      	mov	r0, r6
   20ac4:	300c      	adds	r0, #12
   20ac6:	2218      	movs	r2, #24
   20ac8:	9203      	str	r2, [sp, #12]
   20aca:	f006 f8e6 	bl	26c9a <__aeabi_memcpy>
   20ace:	ac0e      	add	r4, sp, #56	@ 0x38
   20ad0:	4620      	mov	r0, r4
   20ad2:	300c      	adds	r0, #12
   20ad4:	211e      	movs	r1, #30
   20ad6:	9002      	str	r0, [sp, #8]
   20ad8:	f005 ff32 	bl	26940 <__aeabi_memclr4>
   20adc:	7225      	strb	r5, [r4, #8]
   20ade:	2009      	movs	r0, #9
   20ae0:	9000      	str	r0, [sp, #0]
   20ae2:	2204      	movs	r2, #4
   20ae4:	4c1b      	ldr	r4, [pc, #108]	@ (20b54 <_ZN20complex_full_dynamic3app17h1d9d71e0aef7516bE+0xa0>)
   20ae6:	4630      	mov	r0, r6
   20ae8:	9903      	ldr	r1, [sp, #12]
   20aea:	4623      	mov	r3, r4
   20aec:	f7ff fafa 	bl	200e4 <_ZN9allow_pin12full_dynamic15Buffer$LT$B$GT$5allow17hcdfd34cf7b1c64cdE>
   20af0:	07c0      	lsls	r0, r0, #31
   20af2:	d111      	bne.n	20b18 <_ZN20complex_full_dynamic3app17h1d9d71e0aef7516bE+0x64>
   20af4:	2005      	movs	r0, #5
   20af6:	9000      	str	r0, [sp, #0]
   20af8:	a80e      	add	r0, sp, #56	@ 0x38
   20afa:	211e      	movs	r1, #30
   20afc:	2203      	movs	r2, #3
   20afe:	4623      	mov	r3, r4
   20b00:	f7ff faf0 	bl	200e4 <_ZN9allow_pin12full_dynamic15Buffer$LT$B$GT$5allow17hcdfd34cf7b1c64cdE>
   20b04:	07c0      	lsls	r0, r0, #31
   20b06:	d107      	bne.n	20b18 <_ZN20complex_full_dynamic3app17h1d9d71e0aef7516bE+0x64>
   20b08:	4812      	ldr	r0, [pc, #72]	@ (20b54 <_ZN20complex_full_dynamic3app17h1d9d71e0aef7516bE+0xa0>)
   20b0a:	2109      	movs	r1, #9
   20b0c:	2205      	movs	r2, #5
   20b0e:	2600      	movs	r6, #0
   20b10:	4633      	mov	r3, r6
   20b12:	df02      	svc	2
   20b14:	287f      	cmp	r0, #127	@ 0x7f
   20b16:	d80b      	bhi.n	20b30 <_ZN20complex_full_dynamic3app17h1d9d71e0aef7516bE+0x7c>
   20b18:	9c04      	ldr	r4, [sp, #16]
   20b1a:	6061      	str	r1, [r4, #4]
   20b1c:	2601      	movs	r6, #1
   20b1e:	7026      	strb	r6, [r4, #0]
   20b20:	a80e      	add	r0, sp, #56	@ 0x38
   20b22:	f005 fef9 	bl	26918 <_ZN9allow_pin12full_dynamic17unshare_if_shared17h2809d14697b066c7E>
   20b26:	a805      	add	r0, sp, #20
   20b28:	f005 fef6 	bl	26918 <_ZN9allow_pin12full_dynamic17unshare_if_shared17h2809d14697b066c7E>
   20b2c:	b019      	add	sp, #100	@ 0x64
   20b2e:	bdf0      	pop	{r4, r5, r6, r7, pc}
   20b30:	a805      	add	r0, sp, #20
   20b32:	f005 fef1 	bl	26918 <_ZN9allow_pin12full_dynamic17unshare_if_shared17h2809d14697b066c7E>
   20b36:	ac0e      	add	r4, sp, #56	@ 0x38
   20b38:	4620      	mov	r0, r4
   20b3a:	f005 feed 	bl	26918 <_ZN9allow_pin12full_dynamic17unshare_if_shared17h2809d14697b066c7E>
   20b3e:	4620      	mov	r0, r4
   20b40:	f005 feea 	bl	26918 <_ZN9allow_pin12full_dynamic17unshare_if_shared17h2809d14697b066c7E>
   20b44:	9c04      	ldr	r4, [sp, #16]
   20b46:	1c60      	adds	r0, r4, #1
   20b48:	221e      	movs	r2, #30
   20b4a:	9902      	ldr	r1, [sp, #8]
   20b4c:	f006 f8a5 	bl	26c9a <__aeabi_memcpy>
   20b50:	e7e5      	b.n	20b1e <_ZN20complex_full_dynamic3app17h1d9d71e0aef7516bE+0x6a>
   20b52:	46c0      	nop			@ (mov r8, r8)
   20b54:	00000cbb 	.word	0x00000cbb

00020b58 <_ZN20complex_full_dynamic3app17h1ec6e1974530991bE>:
   20b58:	b5f0      	push	{r4, r5, r6, r7, lr}
   20b5a:	af03      	add	r7, sp, #12
   20b5c:	b09f      	sub	sp, #124	@ 0x7c
   20b5e:	9004      	str	r0, [sp, #16]
   20b60:	ae05      	add	r6, sp, #20
   20b62:	2502      	movs	r5, #2
   20b64:	7235      	strb	r5, [r6, #8]
   20b66:	4630      	mov	r0, r6
   20b68:	300c      	adds	r0, #12
   20b6a:	2221      	movs	r2, #33	@ 0x21
   20b6c:	9203      	str	r2, [sp, #12]
   20b6e:	f006 f894 	bl	26c9a <__aeabi_memcpy>
   20b72:	ac11      	add	r4, sp, #68	@ 0x44
   20b74:	4620      	mov	r0, r4
   20b76:	300c      	adds	r0, #12
   20b78:	212a      	movs	r1, #42	@ 0x2a
   20b7a:	9002      	str	r0, [sp, #8]
   20b7c:	f005 fee0 	bl	26940 <__aeabi_memclr4>
   20b80:	7225      	strb	r5, [r4, #8]
   20b82:	2501      	movs	r5, #1
   20b84:	9500      	str	r5, [sp, #0]
   20b86:	2204      	movs	r2, #4
   20b88:	4c1a      	ldr	r4, [pc, #104]	@ (20bf4 <_ZN20complex_full_dynamic3app17h1ec6e1974530991bE+0x9c>)
   20b8a:	4630      	mov	r0, r6
   20b8c:	9903      	ldr	r1, [sp, #12]
   20b8e:	4623      	mov	r3, r4
   20b90:	f7ff faa8 	bl	200e4 <_ZN9allow_pin12full_dynamic15Buffer$LT$B$GT$5allow17hcdfd34cf7b1c64cdE>
   20b94:	07c0      	lsls	r0, r0, #31
   20b96:	d110      	bne.n	20bba <_ZN20complex_full_dynamic3app17h1ec6e1974530991bE+0x62>
   20b98:	2203      	movs	r2, #3
   20b9a:	9200      	str	r2, [sp, #0]
   20b9c:	a811      	add	r0, sp, #68	@ 0x44
   20b9e:	212a      	movs	r1, #42	@ 0x2a
   20ba0:	4623      	mov	r3, r4
   20ba2:	f7ff fa9f 	bl	200e4 <_ZN9allow_pin12full_dynamic15Buffer$LT$B$GT$5allow17hcdfd34cf7b1c64cdE>
   20ba6:	07c0      	lsls	r0, r0, #31
   20ba8:	d107      	bne.n	20bba <_ZN20complex_full_dynamic3app17h1ec6e1974530991bE+0x62>
   20baa:	4812      	ldr	r0, [pc, #72]	@ (20bf4 <_ZN20complex_full_dynamic3app17h1ec6e1974530991bE+0x9c>)
   20bac:	2101      	movs	r1, #1
   20bae:	2203      	movs	r2, #3
   20bb0:	2600      	movs	r6, #0
   20bb2:	4633      	mov	r3, r6
   20bb4:	df02      	svc	2
   20bb6:	287f      	cmp	r0, #127	@ 0x7f
   20bb8:	d80a      	bhi.n	20bd0 <_ZN20complex_full_dynamic3app17h1ec6e1974530991bE+0x78>
   20bba:	9c04      	ldr	r4, [sp, #16]
   20bbc:	6061      	str	r1, [r4, #4]
   20bbe:	7025      	strb	r5, [r4, #0]
   20bc0:	a811      	add	r0, sp, #68	@ 0x44
   20bc2:	f005 fea9 	bl	26918 <_ZN9allow_pin12full_dynamic17unshare_if_shared17h2809d14697b066c7E>
   20bc6:	a805      	add	r0, sp, #20
   20bc8:	f005 fea6 	bl	26918 <_ZN9allow_pin12full_dynamic17unshare_if_shared17h2809d14697b066c7E>
   20bcc:	b01f      	add	sp, #124	@ 0x7c
   20bce:	bdf0      	pop	{r4, r5, r6, r7, pc}
   20bd0:	a805      	add	r0, sp, #20
   20bd2:	f005 fea1 	bl	26918 <_ZN9allow_pin12full_dynamic17unshare_if_shared17h2809d14697b066c7E>
   20bd6:	ac11      	add	r4, sp, #68	@ 0x44
   20bd8:	4620      	mov	r0, r4
   20bda:	f005 fe9d 	bl	26918 <_ZN9allow_pin12full_dynamic17unshare_if_shared17h2809d14697b066c7E>
   20bde:	4620      	mov	r0, r4
   20be0:	f005 fe9a 	bl	26918 <_ZN9allow_pin12full_dynamic17unshare_if_shared17h2809d14697b066c7E>
   20be4:	9c04      	ldr	r4, [sp, #16]
   20be6:	1c60      	adds	r0, r4, #1
   20be8:	222a      	movs	r2, #42	@ 0x2a
   20bea:	9902      	ldr	r1, [sp, #8]
   20bec:	f006 f855 	bl	26c9a <__aeabi_memcpy>
   20bf0:	4635      	mov	r5, r6
   20bf2:	e7e4      	b.n	20bbe <_ZN20complex_full_dynamic3app17h1ec6e1974530991bE+0x66>
   20bf4:	000015f3 	.word	0x000015f3

00020bf8 <_ZN20complex_full_dynamic3app17h1f43cc4ca28be9f4E>:
   20bf8:	b5f0      	push	{r4, r5, r6, r7, lr}
   20bfa:	af03      	add	r7, sp, #12
   20bfc:	b0ad      	sub	sp, #180	@ 0xb4
   20bfe:	9003      	str	r0, [sp, #12]
   20c00:	ae04      	add	r6, sp, #16
   20c02:	2502      	movs	r5, #2
   20c04:	7235      	strb	r5, [r6, #8]
   20c06:	4630      	mov	r0, r6
   20c08:	300c      	adds	r0, #12
   20c0a:	224f      	movs	r2, #79	@ 0x4f
   20c0c:	9202      	str	r2, [sp, #8]
   20c0e:	f006 f844 	bl	26c9a <__aeabi_memcpy>
   20c12:	ac1b      	add	r4, sp, #108	@ 0x6c
   20c14:	4620      	mov	r0, r4
   20c16:	300c      	adds	r0, #12
   20c18:	213b      	movs	r1, #59	@ 0x3b
   20c1a:	9001      	str	r0, [sp, #4]
   20c1c:	f005 fe90 	bl	26940 <__aeabi_memclr4>
   20c20:	7225      	strb	r5, [r4, #8]
   20c22:	2008      	movs	r0, #8
   20c24:	9000      	str	r0, [sp, #0]
   20c26:	2204      	movs	r2, #4
   20c28:	4c1b      	ldr	r4, [pc, #108]	@ (20c98 <_ZN20complex_full_dynamic3app17h1f43cc4ca28be9f4E+0xa0>)
   20c2a:	4630      	mov	r0, r6
   20c2c:	9902      	ldr	r1, [sp, #8]
   20c2e:	4623      	mov	r3, r4
   20c30:	f7ff fa58 	bl	200e4 <_ZN9allow_pin12full_dynamic15Buffer$LT$B$GT$5allow17hcdfd34cf7b1c64cdE>
   20c34:	07c0      	lsls	r0, r0, #31
   20c36:	d111      	bne.n	20c5c <_ZN20complex_full_dynamic3app17h1f43cc4ca28be9f4E+0x64>
   20c38:	2005      	movs	r0, #5
   20c3a:	9000      	str	r0, [sp, #0]
   20c3c:	a81b      	add	r0, sp, #108	@ 0x6c
   20c3e:	213b      	movs	r1, #59	@ 0x3b
   20c40:	2203      	movs	r2, #3
   20c42:	4623      	mov	r3, r4
   20c44:	f7ff fa4e 	bl	200e4 <_ZN9allow_pin12full_dynamic15Buffer$LT$B$GT$5allow17hcdfd34cf7b1c64cdE>
   20c48:	07c0      	lsls	r0, r0, #31
   20c4a:	d107      	bne.n	20c5c <_ZN20complex_full_dynamic3app17h1f43cc4ca28be9f4E+0x64>
   20c4c:	4812      	ldr	r0, [pc, #72]	@ (20c98 <_ZN20complex_full_dynamic3app17h1f43cc4ca28be9f4E+0xa0>)
   20c4e:	2108      	movs	r1, #8
   20c50:	2205      	movs	r2, #5
   20c52:	2600      	movs	r6, #0
   20c54:	4633      	mov	r3, r6
   20c56:	df02      	svc	2
   20c58:	287f      	cmp	r0, #127	@ 0x7f
   20c5a:	d80b      	bhi.n	20c74 <_ZN20complex_full_dynamic3app17h1f43cc4ca28be9f4E+0x7c>
   20c5c:	9c03      	ldr	r4, [sp, #12]
   20c5e:	6061      	str	r1, [r4, #4]
   20c60:	2601      	movs	r6, #1
   20c62:	7026      	strb	r6, [r4, #0]
   20c64:	a81b      	add	r0, sp, #108	@ 0x6c
   20c66:	f005 fe57 	bl	26918 <_ZN9allow_pin12full_dynamic17unshare_if_shared17h2809d14697b066c7E>
   20c6a:	a804      	add	r0, sp, #16
   20c6c:	f005 fe54 	bl	26918 <_ZN9allow_pin12full_dynamic17unshare_if_shared17h2809d14697b066c7E>
   20c70:	b02d      	add	sp, #180	@ 0xb4
   20c72:	bdf0      	pop	{r4, r5, r6, r7, pc}
   20c74:	a804      	add	r0, sp, #16
   20c76:	f005 fe4f 	bl	26918 <_ZN9allow_pin12full_dynamic17unshare_if_shared17h2809d14697b066c7E>
   20c7a:	ac1b      	add	r4, sp, #108	@ 0x6c
   20c7c:	4620      	mov	r0, r4
   20c7e:	f005 fe4b 	bl	26918 <_ZN9allow_pin12full_dynamic17unshare_if_shared17h2809d14697b066c7E>
   20c82:	4620      	mov	r0, r4
   20c84:	f005 fe48 	bl	26918 <_ZN9allow_pin12full_dynamic17unshare_if_shared17h2809d14697b066c7E>
   20c88:	9c03      	ldr	r4, [sp, #12]
   20c8a:	1c60      	adds	r0, r4, #1
   20c8c:	223b      	movs	r2, #59	@ 0x3b
   20c8e:	9901      	ldr	r1, [sp, #4]
   20c90:	f006 f803 	bl	26c9a <__aeabi_memcpy>
   20c94:	e7e5      	b.n	20c62 <_ZN20complex_full_dynamic3app17h1f43cc4ca28be9f4E+0x6a>
   20c96:	46c0      	nop			@ (mov r8, r8)
   20c98:	00000a06 	.word	0x00000a06

00020c9c <_ZN20complex_full_dynamic3app17h289b9c98d6baa3e1E>:
   20c9c:	b5f0      	push	{r4, r5, r6, r7, lr}
   20c9e:	af03      	add	r7, sp, #12
   20ca0:	b09d      	sub	sp, #116	@ 0x74
   20ca2:	9004      	str	r0, [sp, #16]
   20ca4:	ae05      	add	r6, sp, #20
   20ca6:	2502      	movs	r5, #2
   20ca8:	7235      	strb	r5, [r6, #8]
   20caa:	4630      	mov	r0, r6
   20cac:	300c      	adds	r0, #12
   20cae:	2223      	movs	r2, #35	@ 0x23
   20cb0:	9203      	str	r2, [sp, #12]
   20cb2:	f005 fff2 	bl	26c9a <__aeabi_memcpy>
   20cb6:	ac11      	add	r4, sp, #68	@ 0x44
   20cb8:	4620      	mov	r0, r4
   20cba:	300c      	adds	r0, #12
   20cbc:	2124      	movs	r1, #36	@ 0x24
   20cbe:	9002      	str	r0, [sp, #8]
   20cc0:	f005 fe3e 	bl	26940 <__aeabi_memclr4>
   20cc4:	7225      	strb	r5, [r4, #8]
   20cc6:	2204      	movs	r2, #4
   20cc8:	9200      	str	r2, [sp, #0]
   20cca:	4c1b      	ldr	r4, [pc, #108]	@ (20d38 <_ZN20complex_full_dynamic3app17h289b9c98d6baa3e1E+0x9c>)
   20ccc:	4630      	mov	r0, r6
   20cce:	9903      	ldr	r1, [sp, #12]
   20cd0:	4623      	mov	r3, r4
   20cd2:	f7ff fa07 	bl	200e4 <_ZN9allow_pin12full_dynamic15Buffer$LT$B$GT$5allow17hcdfd34cf7b1c64cdE>
   20cd6:	07c0      	lsls	r0, r0, #31
   20cd8:	d111      	bne.n	20cfe <_ZN20complex_full_dynamic3app17h289b9c98d6baa3e1E+0x62>
   20cda:	2008      	movs	r0, #8
   20cdc:	9000      	str	r0, [sp, #0]
   20cde:	a811      	add	r0, sp, #68	@ 0x44
   20ce0:	2124      	movs	r1, #36	@ 0x24
   20ce2:	2203      	movs	r2, #3
   20ce4:	4623      	mov	r3, r4
   20ce6:	f7ff f9fd 	bl	200e4 <_ZN9allow_pin12full_dynamic15Buffer$LT$B$GT$5allow17hcdfd34cf7b1c64cdE>
   20cea:	07c0      	lsls	r0, r0, #31
   20cec:	d107      	bne.n	20cfe <_ZN20complex_full_dynamic3app17h289b9c98d6baa3e1E+0x62>
   20cee:	4812      	ldr	r0, [pc, #72]	@ (20d38 <_ZN20complex_full_dynamic3app17h289b9c98d6baa3e1E+0x9c>)
   20cf0:	2104      	movs	r1, #4
   20cf2:	2208      	movs	r2, #8
   20cf4:	2600      	movs	r6, #0
   20cf6:	4633      	mov	r3, r6
   20cf8:	df02      	svc	2
   20cfa:	287f      	cmp	r0, #127	@ 0x7f
   20cfc:	d80b      	bhi.n	20d16 <_ZN20complex_full_dynamic3app17h289b9c98d6baa3e1E+0x7a>
   20cfe:	9c04      	ldr	r4, [sp, #16]
   20d00:	6061      	str	r1, [r4, #4]
   20d02:	2601      	movs	r6, #1
   20d04:	7026      	strb	r6, [r4, #0]
   20d06:	a811      	add	r0, sp, #68	@ 0x44
   20d08:	f005 fe06 	bl	26918 <_ZN9allow_pin12full_dynamic17unshare_if_shared17h2809d14697b066c7E>
   20d0c:	a805      	add	r0, sp, #20
   20d0e:	f005 fe03 	bl	26918 <_ZN9allow_pin12full_dynamic17unshare_if_shared17h2809d14697b066c7E>
   20d12:	b01d      	add	sp, #116	@ 0x74
   20d14:	bdf0      	pop	{r4, r5, r6, r7, pc}
   20d16:	a805      	add	r0, sp, #20
   20d18:	f005 fdfe 	bl	26918 <_ZN9allow_pin12full_dynamic17unshare_if_shared17h2809d14697b066c7E>
   20d1c:	ac11      	add	r4, sp, #68	@ 0x44
   20d1e:	4620      	mov	r0, r4
   20d20:	f005 fdfa 	bl	26918 <_ZN9allow_pin12full_dynamic17unshare_if_shared17h2809d14697b066c7E>
   20d24:	4620      	mov	r0, r4
   20d26:	f005 fdf7 	bl	26918 <_ZN9allow_pin12full_dynamic17unshare_if_shared17h2809d14697b066c7E>
   20d2a:	9c04      	ldr	r4, [sp, #16]
   20d2c:	1c60      	adds	r0, r4, #1
   20d2e:	2224      	movs	r2, #36	@ 0x24
   20d30:	9902      	ldr	r1, [sp, #8]
   20d32:	f005 ffb2 	bl	26c9a <__aeabi_memcpy>
   20d36:	e7e5      	b.n	20d04 <_ZN20complex_full_dynamic3app17h289b9c98d6baa3e1E+0x68>
   20d38:	00001bd6 	.word	0x00001bd6

00020d3c <_ZN20complex_full_dynamic3app17h2d89f2f80612bd2aE>:
   20d3c:	b5f0      	push	{r4, r5, r6, r7, lr}
   20d3e:	af03      	add	r7, sp, #12
   20d40:	b0b1      	sub	sp, #196	@ 0xc4
   20d42:	9003      	str	r0, [sp, #12]
   20d44:	ae04      	add	r6, sp, #16
   20d46:	2502      	movs	r5, #2
   20d48:	7235      	strb	r5, [r6, #8]
   20d4a:	4630      	mov	r0, r6
   20d4c:	300c      	adds	r0, #12
   20d4e:	223a      	movs	r2, #58	@ 0x3a
   20d50:	9202      	str	r2, [sp, #8]
   20d52:	f005 ffa2 	bl	26c9a <__aeabi_memcpy>
   20d56:	ac16      	add	r4, sp, #88	@ 0x58
   20d58:	4620      	mov	r0, r4
   20d5a:	300c      	adds	r0, #12
   20d5c:	215d      	movs	r1, #93	@ 0x5d
   20d5e:	9001      	str	r0, [sp, #4]
   20d60:	f005 fdee 	bl	26940 <__aeabi_memclr4>
   20d64:	7225      	strb	r5, [r4, #8]
   20d66:	2000      	movs	r0, #0
   20d68:	9000      	str	r0, [sp, #0]
   20d6a:	2204      	movs	r2, #4
   20d6c:	4c1b      	ldr	r4, [pc, #108]	@ (20ddc <_ZN20complex_full_dynamic3app17h2d89f2f80612bd2aE+0xa0>)
   20d6e:	4630      	mov	r0, r6
   20d70:	9902      	ldr	r1, [sp, #8]
   20d72:	4623      	mov	r3, r4
   20d74:	f7ff f9b6 	bl	200e4 <_ZN9allow_pin12full_dynamic15Buffer$LT$B$GT$5allow17hcdfd34cf7b1c64cdE>
   20d78:	07c0      	lsls	r0, r0, #31
   20d7a:	d111      	bne.n	20da0 <_ZN20complex_full_dynamic3app17h2d89f2f80612bd2aE+0x64>
   20d7c:	2005      	movs	r0, #5
   20d7e:	9000      	str	r0, [sp, #0]
   20d80:	a816      	add	r0, sp, #88	@ 0x58
   20d82:	215d      	movs	r1, #93	@ 0x5d
   20d84:	2203      	movs	r2, #3
   20d86:	4623      	mov	r3, r4
   20d88:	f7ff f9ac 	bl	200e4 <_ZN9allow_pin12full_dynamic15Buffer$LT$B$GT$5allow17hcdfd34cf7b1c64cdE>
   20d8c:	07c0      	lsls	r0, r0, #31
   20d8e:	d107      	bne.n	20da0 <_ZN20complex_full_dynamic3app17h2d89f2f80612bd2aE+0x64>
   20d90:	4812      	ldr	r0, [pc, #72]	@ (20ddc <_ZN20complex_full_dynamic3app17h2d89f2f80612bd2aE+0xa0>)
   20d92:	2205      	movs	r2, #5
   20d94:	2600      	movs	r6, #0
   20d96:	4631      	mov	r1, r6
   20d98:	4633      	mov	r3, r6
   20d9a:	df02      	svc	2
   20d9c:	287f      	cmp	r0, #127	@ 0x7f
   20d9e:	d80b      	bhi.n	20db8 <_ZN20complex_full_dynamic3app17h2d89f2f80612bd2aE+0x7c>
   20da0:	9c03      	ldr	r4, [sp, #12]
   20da2:	6061      	str	r1, [r4, #4]
   20da4:	2601      	movs	r6, #1
   20da6:	7026      	strb	r6, [r4, #0]
   20da8:	a816      	add	r0, sp, #88	@ 0x58
   20daa:	f005 fdb5 	bl	26918 <_ZN9allow_pin12full_dynamic17unshare_if_shared17h2809d14697b066c7E>
   20dae:	a804      	add	r0, sp, #16
   20db0:	f005 fdb2 	bl	26918 <_ZN9allow_pin12full_dynamic17unshare_if_shared17h2809d14697b066c7E>
   20db4:	b031      	add	sp, #196	@ 0xc4
   20db6:	bdf0      	pop	{r4, r5, r6, r7, pc}
   20db8:	a804      	add	r0, sp, #16
   20dba:	f005 fdad 	bl	26918 <_ZN9allow_pin12full_dynamic17unshare_if_shared17h2809d14697b066c7E>
   20dbe:	ac16      	add	r4, sp, #88	@ 0x58
   20dc0:	4620      	mov	r0, r4
   20dc2:	f005 fda9 	bl	26918 <_ZN9allow_pin12full_dynamic17unshare_if_shared17h2809d14697b066c7E>
   20dc6:	4620      	mov	r0, r4
   20dc8:	f005 fda6 	bl	26918 <_ZN9allow_pin12full_dynamic17unshare_if_shared17h2809d14697b066c7E>
   20dcc:	9c03      	ldr	r4, [sp, #12]
   20dce:	1c60      	adds	r0, r4, #1
   20dd0:	225d      	movs	r2, #93	@ 0x5d
   20dd2:	9901      	ldr	r1, [sp, #4]
   20dd4:	f005 ff61 	bl	26c9a <__aeabi_memcpy>
   20dd8:	e7e5      	b.n	20da6 <_ZN20complex_full_dynamic3app17h2d89f2f80612bd2aE+0x6a>
   20dda:	46c0      	nop			@ (mov r8, r8)
   20ddc:	000014a4 	.word	0x000014a4

00020de0 <_ZN20complex_full_dynamic3app17h2f636cb730db879eE>:
   20de0:	b5f0      	push	{r4, r5, r6, r7, lr}
   20de2:	af03      	add	r7, sp, #12
   20de4:	b0b9      	sub	sp, #228	@ 0xe4
   20de6:	9004      	str	r0, [sp, #16]
   20de8:	ae05      	add	r6, sp, #20
   20dea:	2502      	movs	r5, #2
   20dec:	7235      	strb	r5, [r6, #8]
   20dee:	4630      	mov	r0, r6
   20df0:	300c      	adds	r0, #12
   20df2:	225e      	movs	r2, #94	@ 0x5e
   20df4:	9203      	str	r2, [sp, #12]
   20df6:	f005 ff50 	bl	26c9a <__aeabi_memcpy>
   20dfa:	ac20      	add	r4, sp, #128	@ 0x80
   20dfc:	4620      	mov	r0, r4
   20dfe:	300c      	adds	r0, #12
   20e00:	2155      	movs	r1, #85	@ 0x55
   20e02:	9002      	str	r0, [sp, #8]
   20e04:	f005 fd9c 	bl	26940 <__aeabi_memclr4>
   20e08:	7225      	strb	r5, [r4, #8]
   20e0a:	2007      	movs	r0, #7
   20e0c:	9000      	str	r0, [sp, #0]
   20e0e:	2204      	movs	r2, #4
   20e10:	4c1a      	ldr	r4, [pc, #104]	@ (20e7c <_ZN20complex_full_dynamic3app17h2f636cb730db879eE+0x9c>)
   20e12:	4630      	mov	r0, r6
   20e14:	9903      	ldr	r1, [sp, #12]
   20e16:	4623      	mov	r3, r4
   20e18:	f7ff f964 	bl	200e4 <_ZN9allow_pin12full_dynamic15Buffer$LT$B$GT$5allow17hcdfd34cf7b1c64cdE>
   20e1c:	07c0      	lsls	r0, r0, #31
   20e1e:	d110      	bne.n	20e42 <_ZN20complex_full_dynamic3app17h2f636cb730db879eE+0x62>
   20e20:	2203      	movs	r2, #3
   20e22:	9200      	str	r2, [sp, #0]
   20e24:	a820      	add	r0, sp, #128	@ 0x80
   20e26:	2155      	movs	r1, #85	@ 0x55
   20e28:	4623      	mov	r3, r4
   20e2a:	f7ff f95b 	bl	200e4 <_ZN9allow_pin12full_dynamic15Buffer$LT$B$GT$5allow17hcdfd34cf7b1c64cdE>
   20e2e:	07c0      	lsls	r0, r0, #31
   20e30:	d107      	bne.n	20e42 <_ZN20complex_full_dynamic3app17h2f636cb730db879eE+0x62>
   20e32:	4812      	ldr	r0, [pc, #72]	@ (20e7c <_ZN20complex_full_dynamic3app17h2f636cb730db879eE+0x9c>)
   20e34:	2107      	movs	r1, #7
   20e36:	2203      	movs	r2, #3
   20e38:	2600      	movs	r6, #0
   20e3a:	4633      	mov	r3, r6
   20e3c:	df02      	svc	2
   20e3e:	287f      	cmp	r0, #127	@ 0x7f
   20e40:	d80b      	bhi.n	20e5a <_ZN20complex_full_dynamic3app17h2f636cb730db879eE+0x7a>
   20e42:	9c04      	ldr	r4, [sp, #16]
   20e44:	6061      	str	r1, [r4, #4]
   20e46:	2601      	movs	r6, #1
   20e48:	7026      	strb	r6, [r4, #0]
   20e4a:	a820      	add	r0, sp, #128	@ 0x80
   20e4c:	f005 fd64 	bl	26918 <_ZN9allow_pin12full_dynamic17unshare_if_shared17h2809d14697b066c7E>
   20e50:	a805      	add	r0, sp, #20
   20e52:	f005 fd61 	bl	26918 <_ZN9allow_pin12full_dynamic17unshare_if_shared17h2809d14697b066c7E>
   20e56:	b039      	add	sp, #228	@ 0xe4
   20e58:	bdf0      	pop	{r4, r5, r6, r7, pc}
   20e5a:	a805      	add	r0, sp, #20
   20e5c:	f005 fd5c 	bl	26918 <_ZN9allow_pin12full_dynamic17unshare_if_shared17h2809d14697b066c7E>
   20e60:	ac20      	add	r4, sp, #128	@ 0x80
   20e62:	4620      	mov	r0, r4
   20e64:	f005 fd58 	bl	26918 <_ZN9allow_pin12full_dynamic17unshare_if_shared17h2809d14697b066c7E>
   20e68:	4620      	mov	r0, r4
   20e6a:	f005 fd55 	bl	26918 <_ZN9allow_pin12full_dynamic17unshare_if_shared17h2809d14697b066c7E>
   20e6e:	9c04      	ldr	r4, [sp, #16]
   20e70:	1c60      	adds	r0, r4, #1
   20e72:	2255      	movs	r2, #85	@ 0x55
   20e74:	9902      	ldr	r1, [sp, #8]
   20e76:	f005 ff10 	bl	26c9a <__aeabi_memcpy>
   20e7a:	e7e5      	b.n	20e48 <_ZN20complex_full_dynamic3app17h2f636cb730db879eE+0x68>
   20e7c:	0000178a 	.word	0x0000178a

00020e80 <_ZN20complex_full_dynamic3app17h3175677975a3eab4E>:
   20e80:	b5f0      	push	{r4, r5, r6, r7, lr}
   20e82:	af03      	add	r7, sp, #12
   20e84:	b0a5      	sub	sp, #148	@ 0x94
   20e86:	9004      	str	r0, [sp, #16]
   20e88:	ae05      	add	r6, sp, #20
   20e8a:	2502      	movs	r5, #2
   20e8c:	7235      	strb	r5, [r6, #8]
   20e8e:	4630      	mov	r0, r6
   20e90:	300c      	adds	r0, #12
   20e92:	2241      	movs	r2, #65	@ 0x41
   20e94:	9203      	str	r2, [sp, #12]
   20e96:	f005 ff00 	bl	26c9a <__aeabi_memcpy>
   20e9a:	ac19      	add	r4, sp, #100	@ 0x64
   20e9c:	4620      	mov	r0, r4
   20e9e:	300c      	adds	r0, #12
   20ea0:	2122      	movs	r1, #34	@ 0x22
   20ea2:	9002      	str	r0, [sp, #8]
   20ea4:	f005 fd4c 	bl	26940 <__aeabi_memclr4>
   20ea8:	7225      	strb	r5, [r4, #8]
   20eaa:	2501      	movs	r5, #1
   20eac:	9500      	str	r5, [sp, #0]
   20eae:	2204      	movs	r2, #4
   20eb0:	4c1b      	ldr	r4, [pc, #108]	@ (20f20 <_ZN20complex_full_dynamic3app17h3175677975a3eab4E+0xa0>)
   20eb2:	4630      	mov	r0, r6
   20eb4:	9903      	ldr	r1, [sp, #12]
   20eb6:	4623      	mov	r3, r4
   20eb8:	f7ff f914 	bl	200e4 <_ZN9allow_pin12full_dynamic15Buffer$LT$B$GT$5allow17hcdfd34cf7b1c64cdE>
   20ebc:	07c0      	lsls	r0, r0, #31
   20ebe:	d111      	bne.n	20ee4 <_ZN20complex_full_dynamic3app17h3175677975a3eab4E+0x64>
   20ec0:	2000      	movs	r0, #0
   20ec2:	9000      	str	r0, [sp, #0]
   20ec4:	a819      	add	r0, sp, #100	@ 0x64
   20ec6:	2122      	movs	r1, #34	@ 0x22
   20ec8:	2203      	movs	r2, #3
   20eca:	4623      	mov	r3, r4
   20ecc:	f7ff f90a 	bl	200e4 <_ZN9allow_pin12full_dynamic15Buffer$LT$B$GT$5allow17hcdfd34cf7b1c64cdE>
   20ed0:	07c0      	lsls	r0, r0, #31
   20ed2:	d107      	bne.n	20ee4 <_ZN20complex_full_dynamic3app17h3175677975a3eab4E+0x64>
   20ed4:	4812      	ldr	r0, [pc, #72]	@ (20f20 <_ZN20complex_full_dynamic3app17h3175677975a3eab4E+0xa0>)
   20ed6:	2101      	movs	r1, #1
   20ed8:	2600      	movs	r6, #0
   20eda:	4632      	mov	r2, r6
   20edc:	4633      	mov	r3, r6
   20ede:	df02      	svc	2
   20ee0:	287f      	cmp	r0, #127	@ 0x7f
   20ee2:	d80a      	bhi.n	20efa <_ZN20complex_full_dynamic3app17h3175677975a3eab4E+0x7a>
   20ee4:	9c04      	ldr	r4, [sp, #16]
   20ee6:	6061      	str	r1, [r4, #4]
   20ee8:	7025      	strb	r5, [r4, #0]
   20eea:	a819      	add	r0, sp, #100	@ 0x64
   20eec:	f005 fd14 	bl	26918 <_ZN9allow_pin12full_dynamic17unshare_if_shared17h2809d14697b066c7E>
   20ef0:	a805      	add	r0, sp, #20
   20ef2:	f005 fd11 	bl	26918 <_ZN9allow_pin12full_dynamic17unshare_if_shared17h2809d14697b066c7E>
   20ef6:	b025      	add	sp, #148	@ 0x94
   20ef8:	bdf0      	pop	{r4, r5, r6, r7, pc}
   20efa:	a805      	add	r0, sp, #20
   20efc:	f005 fd0c 	bl	26918 <_ZN9allow_pin12full_dynamic17unshare_if_shared17h2809d14697b066c7E>
   20f00:	ac19      	add	r4, sp, #100	@ 0x64
   20f02:	4620      	mov	r0, r4
   20f04:	f005 fd08 	bl	26918 <_ZN9allow_pin12full_dynamic17unshare_if_shared17h2809d14697b066c7E>
   20f08:	4620      	mov	r0, r4
   20f0a:	f005 fd05 	bl	26918 <_ZN9allow_pin12full_dynamic17unshare_if_shared17h2809d14697b066c7E>
   20f0e:	9c04      	ldr	r4, [sp, #16]
   20f10:	1c60      	adds	r0, r4, #1
   20f12:	2222      	movs	r2, #34	@ 0x22
   20f14:	9902      	ldr	r1, [sp, #8]
   20f16:	f005 fec0 	bl	26c9a <__aeabi_memcpy>
   20f1a:	4635      	mov	r5, r6
   20f1c:	e7e4      	b.n	20ee8 <_ZN20complex_full_dynamic3app17h3175677975a3eab4E+0x68>
   20f1e:	46c0      	nop			@ (mov r8, r8)
   20f20:	0000247c 	.word	0x0000247c

00020f24 <_ZN20complex_full_dynamic3app17h348425d83b4c727bE>:
   20f24:	b5f0      	push	{r4, r5, r6, r7, lr}
   20f26:	af03      	add	r7, sp, #12
   20f28:	b0a7      	sub	sp, #156	@ 0x9c
   20f2a:	9003      	str	r0, [sp, #12]
   20f2c:	ae04      	add	r6, sp, #16
   20f2e:	2502      	movs	r5, #2
   20f30:	7235      	strb	r5, [r6, #8]
   20f32:	4630      	mov	r0, r6
   20f34:	300c      	adds	r0, #12
   20f36:	2240      	movs	r2, #64	@ 0x40
   20f38:	9202      	str	r2, [sp, #8]
   20f3a:	f005 feae 	bl	26c9a <__aeabi_memcpy>
   20f3e:	ac17      	add	r4, sp, #92	@ 0x5c
   20f40:	4620      	mov	r0, r4
   20f42:	300c      	adds	r0, #12
   20f44:	2131      	movs	r1, #49	@ 0x31
   20f46:	9001      	str	r0, [sp, #4]
   20f48:	f005 fcfa 	bl	26940 <__aeabi_memclr4>
   20f4c:	7225      	strb	r5, [r4, #8]
   20f4e:	2008      	movs	r0, #8
   20f50:	9000      	str	r0, [sp, #0]
   20f52:	2204      	movs	r2, #4
   20f54:	4c1b      	ldr	r4, [pc, #108]	@ (20fc4 <_ZN20complex_full_dynamic3app17h348425d83b4c727bE+0xa0>)
   20f56:	4630      	mov	r0, r6
   20f58:	9902      	ldr	r1, [sp, #8]
   20f5a:	4623      	mov	r3, r4
   20f5c:	f7ff f8c2 	bl	200e4 <_ZN9allow_pin12full_dynamic15Buffer$LT$B$GT$5allow17hcdfd34cf7b1c64cdE>
   20f60:	07c0      	lsls	r0, r0, #31
   20f62:	d111      	bne.n	20f88 <_ZN20complex_full_dynamic3app17h348425d83b4c727bE+0x64>
   20f64:	2005      	movs	r0, #5
   20f66:	9000      	str	r0, [sp, #0]
   20f68:	a817      	add	r0, sp, #92	@ 0x5c
   20f6a:	2131      	movs	r1, #49	@ 0x31
   20f6c:	2203      	movs	r2, #3
   20f6e:	4623      	mov	r3, r4
   20f70:	f7ff f8b8 	bl	200e4 <_ZN9allow_pin12full_dynamic15Buffer$LT$B$GT$5allow17hcdfd34cf7b1c64cdE>
   20f74:	07c0      	lsls	r0, r0, #31
   20f76:	d107      	bne.n	20f88 <_ZN20complex_full_dynamic3app17h348425d83b4c727bE+0x64>
   20f78:	4812      	ldr	r0, [pc, #72]	@ (20fc4 <_ZN20complex_full_dynamic3app17h348425d83b4c727bE+0xa0>)
   20f7a:	2108      	movs	r1, #8
   20f7c:	2205      	movs	r2, #5
   20f7e:	2600      	movs	r6, #0
   20f80:	4633      	mov	r3, r6
   20f82:	df02      	svc	2
   20f84:	287f      	cmp	r0, #127	@ 0x7f
   20f86:	d80b      	bhi.n	20fa0 <_ZN20complex_full_dynamic3app17h348425d83b4c727bE+0x7c>
   20f88:	9c03      	ldr	r4, [sp, #12]
   20f8a:	6061      	str	r1, [r4, #4]
   20f8c:	2601      	movs	r6, #1
   20f8e:	7026      	strb	r6, [r4, #0]
   20f90:	a817      	add	r0, sp, #92	@ 0x5c
   20f92:	f005 fcc1 	bl	26918 <_ZN9allow_pin12full_dynamic17unshare_if_shared17h2809d14697b066c7E>
   20f96:	a804      	add	r0, sp, #16
   20f98:	f005 fcbe 	bl	26918 <_ZN9allow_pin12full_dynamic17unshare_if_shared17h2809d14697b066c7E>
   20f9c:	b027      	add	sp, #156	@ 0x9c
   20f9e:	bdf0      	pop	{r4, r5, r6, r7, pc}
   20fa0:	a804      	add	r0, sp, #16
   20fa2:	f005 fcb9 	bl	26918 <_ZN9allow_pin12full_dynamic17unshare_if_shared17h2809d14697b066c7E>
   20fa6:	ac17      	add	r4, sp, #92	@ 0x5c
   20fa8:	4620      	mov	r0, r4
   20faa:	f005 fcb5 	bl	26918 <_ZN9allow_pin12full_dynamic17unshare_if_shared17h2809d14697b066c7E>
   20fae:	4620      	mov	r0, r4
   20fb0:	f005 fcb2 	bl	26918 <_ZN9allow_pin12full_dynamic17unshare_if_shared17h2809d14697b066c7E>
   20fb4:	9c03      	ldr	r4, [sp, #12]
   20fb6:	1c60      	adds	r0, r4, #1
   20fb8:	2231      	movs	r2, #49	@ 0x31
   20fba:	9901      	ldr	r1, [sp, #4]
   20fbc:	f005 fe6d 	bl	26c9a <__aeabi_memcpy>
   20fc0:	e7e5      	b.n	20f8e <_ZN20complex_full_dynamic3app17h348425d83b4c727bE+0x6a>
   20fc2:	46c0      	nop			@ (mov r8, r8)
   20fc4:	00000fce 	.word	0x00000fce

00020fc8 <_ZN20complex_full_dynamic3app17h34929228a38cd76eE>:
   20fc8:	b5f0      	push	{r4, r5, r6, r7, lr}
   20fca:	af03      	add	r7, sp, #12
   20fcc:	b09f      	sub	sp, #124	@ 0x7c
   20fce:	9003      	str	r0, [sp, #12]
   20fd0:	ae04      	add	r6, sp, #16
   20fd2:	2502      	movs	r5, #2
   20fd4:	7235      	strb	r5, [r6, #8]
   20fd6:	4630      	mov	r0, r6
   20fd8:	300c      	adds	r0, #12
   20fda:	2225      	movs	r2, #37	@ 0x25
   20fdc:	9202      	str	r2, [sp, #8]
   20fde:	f005 fe5c 	bl	26c9a <__aeabi_memcpy>
   20fe2:	ac11      	add	r4, sp, #68	@ 0x44
   20fe4:	4620      	mov	r0, r4
   20fe6:	300c      	adds	r0, #12
   20fe8:	212a      	movs	r1, #42	@ 0x2a
   20fea:	9001      	str	r0, [sp, #4]
   20fec:	f005 fca8 	bl	26940 <__aeabi_memclr4>
   20ff0:	7225      	strb	r5, [r4, #8]
   20ff2:	2000      	movs	r0, #0
   20ff4:	9000      	str	r0, [sp, #0]
   20ff6:	2204      	movs	r2, #4
   20ff8:	4c1a      	ldr	r4, [pc, #104]	@ (21064 <_ZN20complex_full_dynamic3app17h34929228a38cd76eE+0x9c>)
   20ffa:	4630      	mov	r0, r6
   20ffc:	9902      	ldr	r1, [sp, #8]
   20ffe:	4623      	mov	r3, r4
   21000:	f7ff f870 	bl	200e4 <_ZN9allow_pin12full_dynamic15Buffer$LT$B$GT$5allow17hcdfd34cf7b1c64cdE>
   21004:	07c0      	lsls	r0, r0, #31
   21006:	d110      	bne.n	2102a <_ZN20complex_full_dynamic3app17h34929228a38cd76eE+0x62>
   21008:	2203      	movs	r2, #3
   2100a:	9200      	str	r2, [sp, #0]
   2100c:	a811      	add	r0, sp, #68	@ 0x44
   2100e:	212a      	movs	r1, #42	@ 0x2a
   21010:	4623      	mov	r3, r4
   21012:	f7ff f867 	bl	200e4 <_ZN9allow_pin12full_dynamic15Buffer$LT$B$GT$5allow17hcdfd34cf7b1c64cdE>
   21016:	07c0      	lsls	r0, r0, #31
   21018:	d107      	bne.n	2102a <_ZN20complex_full_dynamic3app17h34929228a38cd76eE+0x62>
   2101a:	4812      	ldr	r0, [pc, #72]	@ (21064 <_ZN20complex_full_dynamic3app17h34929228a38cd76eE+0x9c>)
   2101c:	2203      	movs	r2, #3
   2101e:	2600      	movs	r6, #0
   21020:	4631      	mov	r1, r6
   21022:	4633      	mov	r3, r6
   21024:	df02      	svc	2
   21026:	287f      	cmp	r0, #127	@ 0x7f
   21028:	d80b      	bhi.n	21042 <_ZN20complex_full_dynamic3app17h34929228a38cd76eE+0x7a>
   2102a:	9c03      	ldr	r4, [sp, #12]
   2102c:	6061      	str	r1, [r4, #4]
   2102e:	2601      	movs	r6, #1
   21030:	7026      	strb	r6, [r4, #0]
   21032:	a811      	add	r0, sp, #68	@ 0x44
   21034:	f005 fc70 	bl	26918 <_ZN9allow_pin12full_dynamic17unshare_if_shared17h2809d14697b066c7E>
   21038:	a804      	add	r0, sp, #16
   2103a:	f005 fc6d 	bl	26918 <_ZN9allow_pin12full_dynamic17unshare_if_shared17h2809d14697b066c7E>
   2103e:	b01f      	add	sp, #124	@ 0x7c
   21040:	bdf0      	pop	{r4, r5, r6, r7, pc}
   21042:	a804      	add	r0, sp, #16
   21044:	f005 fc68 	bl	26918 <_ZN9allow_pin12full_dynamic17unshare_if_shared17h2809d14697b066c7E>
   21048:	ac11      	add	r4, sp, #68	@ 0x44
   2104a:	4620      	mov	r0, r4
   2104c:	f005 fc64 	bl	26918 <_ZN9allow_pin12full_dynamic17unshare_if_shared17h2809d14697b066c7E>
   21050:	4620      	mov	r0, r4
   21052:	f005 fc61 	bl	26918 <_ZN9allow_pin12full_dynamic17unshare_if_shared17h2809d14697b066c7E>
   21056:	9c03      	ldr	r4, [sp, #12]
   21058:	1c60      	adds	r0, r4, #1
   2105a:	222a      	movs	r2, #42	@ 0x2a
   2105c:	9901      	ldr	r1, [sp, #4]
   2105e:	f005 fe1c 	bl	26c9a <__aeabi_memcpy>
   21062:	e7e5      	b.n	21030 <_ZN20complex_full_dynamic3app17h34929228a38cd76eE+0x68>
   21064:	0000093c 	.word	0x0000093c

00021068 <_ZN20complex_full_dynamic3app17h357d36480e3c5993E>:
   21068:	b5f0      	push	{r4, r5, r6, r7, lr}
   2106a:	af03      	add	r7, sp, #12
   2106c:	b0a9      	sub	sp, #164	@ 0xa4
   2106e:	9003      	str	r0, [sp, #12]
   21070:	ae04      	add	r6, sp, #16
   21072:	2502      	movs	r5, #2
   21074:	7235      	strb	r5, [r6, #8]
   21076:	4630      	mov	r0, r6
   21078:	300c      	adds	r0, #12
   2107a:	2227      	movs	r2, #39	@ 0x27
   2107c:	9202      	str	r2, [sp, #8]
   2107e:	f005 fe0c 	bl	26c9a <__aeabi_memcpy>
   21082:	ac11      	add	r4, sp, #68	@ 0x44
   21084:	4620      	mov	r0, r4
   21086:	300c      	adds	r0, #12
   21088:	2151      	movs	r1, #81	@ 0x51
   2108a:	9001      	str	r0, [sp, #4]
   2108c:	f005 fc58 	bl	26940 <__aeabi_memclr4>
   21090:	7225      	strb	r5, [r4, #8]
   21092:	2000      	movs	r0, #0
   21094:	9000      	str	r0, [sp, #0]
   21096:	2504      	movs	r5, #4
   21098:	4c1b      	ldr	r4, [pc, #108]	@ (21108 <_ZN20complex_full_dynamic3app17h357d36480e3c5993E+0xa0>)
   2109a:	4630      	mov	r0, r6
   2109c:	9902      	ldr	r1, [sp, #8]
   2109e:	462a      	mov	r2, r5
   210a0:	4623      	mov	r3, r4
   210a2:	f7ff f81f 	bl	200e4 <_ZN9allow_pin12full_dynamic15Buffer$LT$B$GT$5allow17hcdfd34cf7b1c64cdE>
   210a6:	07c0      	lsls	r0, r0, #31
   210a8:	d110      	bne.n	210cc <_ZN20complex_full_dynamic3app17h357d36480e3c5993E+0x64>
   210aa:	9500      	str	r5, [sp, #0]
   210ac:	a811      	add	r0, sp, #68	@ 0x44
   210ae:	2151      	movs	r1, #81	@ 0x51
   210b0:	2203      	movs	r2, #3
   210b2:	4623      	mov	r3, r4
   210b4:	f7ff f816 	bl	200e4 <_ZN9allow_pin12full_dynamic15Buffer$LT$B$GT$5allow17hcdfd34cf7b1c64cdE>
   210b8:	07c0      	lsls	r0, r0, #31
   210ba:	d107      	bne.n	210cc <_ZN20complex_full_dynamic3app17h357d36480e3c5993E+0x64>
   210bc:	4812      	ldr	r0, [pc, #72]	@ (21108 <_ZN20complex_full_dynamic3app17h357d36480e3c5993E+0xa0>)
   210be:	2204      	movs	r2, #4
   210c0:	2600      	movs	r6, #0
   210c2:	4631      	mov	r1, r6
   210c4:	4633      	mov	r3, r6
   210c6:	df02      	svc	2
   210c8:	287f      	cmp	r0, #127	@ 0x7f
   210ca:	d80b      	bhi.n	210e4 <_ZN20complex_full_dynamic3app17h357d36480e3c5993E+0x7c>
   210cc:	9c03      	ldr	r4, [sp, #12]
   210ce:	6061      	str	r1, [r4, #4]
   210d0:	2601      	movs	r6, #1
   210d2:	7026      	strb	r6, [r4, #0]
   210d4:	a811      	add	r0, sp, #68	@ 0x44
   210d6:	f005 fc1f 	bl	26918 <_ZN9allow_pin12full_dynamic17unshare_if_shared17h2809d14697b066c7E>
   210da:	a804      	add	r0, sp, #16
   210dc:	f005 fc1c 	bl	26918 <_ZN9allow_pin12full_dynamic17unshare_if_shared17h2809d14697b066c7E>
   210e0:	b029      	add	sp, #164	@ 0xa4
   210e2:	bdf0      	pop	{r4, r5, r6, r7, pc}
   210e4:	a804      	add	r0, sp, #16
   210e6:	f005 fc17 	bl	26918 <_ZN9allow_pin12full_dynamic17unshare_if_shared17h2809d14697b066c7E>
   210ea:	ac11      	add	r4, sp, #68	@ 0x44
   210ec:	4620      	mov	r0, r4
   210ee:	f005 fc13 	bl	26918 <_ZN9allow_pin12full_dynamic17unshare_if_shared17h2809d14697b066c7E>
   210f2:	4620      	mov	r0, r4
   210f4:	f005 fc10 	bl	26918 <_ZN9allow_pin12full_dynamic17unshare_if_shared17h2809d14697b066c7E>
   210f8:	9c03      	ldr	r4, [sp, #12]
   210fa:	1c60      	adds	r0, r4, #1
   210fc:	2251      	movs	r2, #81	@ 0x51
   210fe:	9901      	ldr	r1, [sp, #4]
   21100:	f005 fdcb 	bl	26c9a <__aeabi_memcpy>
   21104:	e7e5      	b.n	210d2 <_ZN20complex_full_dynamic3app17h357d36480e3c5993E+0x6a>
   21106:	46c0      	nop			@ (mov r8, r8)
   21108:	00000a36 	.word	0x00000a36

0002110c <_ZN20complex_full_dynamic3app17h3c714b09d5f49021E>:
   2110c:	b5f0      	push	{r4, r5, r6, r7, lr}
   2110e:	af03      	add	r7, sp, #12
   21110:	b0a9      	sub	sp, #164	@ 0xa4
   21112:	9003      	str	r0, [sp, #12]
   21114:	ae04      	add	r6, sp, #16
   21116:	2502      	movs	r5, #2
   21118:	7235      	strb	r5, [r6, #8]
   2111a:	4630      	mov	r0, r6
   2111c:	300c      	adds	r0, #12
   2111e:	221c      	movs	r2, #28
   21120:	9202      	str	r2, [sp, #8]
   21122:	f005 fdba 	bl	26c9a <__aeabi_memcpy>
   21126:	ac0e      	add	r4, sp, #56	@ 0x38
   21128:	4620      	mov	r0, r4
   2112a:	300c      	adds	r0, #12
   2112c:	215d      	movs	r1, #93	@ 0x5d
   2112e:	9001      	str	r0, [sp, #4]
   21130:	f005 fc06 	bl	26940 <__aeabi_memclr4>
   21134:	7225      	strb	r5, [r4, #8]
   21136:	2008      	movs	r0, #8
   21138:	9000      	str	r0, [sp, #0]
   2113a:	2204      	movs	r2, #4
   2113c:	4c1b      	ldr	r4, [pc, #108]	@ (211ac <_ZN20complex_full_dynamic3app17h3c714b09d5f49021E+0xa0>)
   2113e:	4630      	mov	r0, r6
   21140:	9902      	ldr	r1, [sp, #8]
   21142:	4623      	mov	r3, r4
   21144:	f7fe ffce 	bl	200e4 <_ZN9allow_pin12full_dynamic15Buffer$LT$B$GT$5allow17hcdfd34cf7b1c64cdE>
   21148:	07c0      	lsls	r0, r0, #31
   2114a:	d111      	bne.n	21170 <_ZN20complex_full_dynamic3app17h3c714b09d5f49021E+0x64>
   2114c:	2005      	movs	r0, #5
   2114e:	9000      	str	r0, [sp, #0]
   21150:	a80e      	add	r0, sp, #56	@ 0x38
   21152:	215d      	movs	r1, #93	@ 0x5d
   21154:	2203      	movs	r2, #3
   21156:	4623      	mov	r3, r4
   21158:	f7fe ffc4 	bl	200e4 <_ZN9allow_pin12full_dynamic15Buffer$LT$B$GT$5allow17hcdfd34cf7b1c64cdE>
   2115c:	07c0      	lsls	r0, r0, #31
   2115e:	d107      	bne.n	21170 <_ZN20complex_full_dynamic3app17h3c714b09d5f49021E+0x64>
   21160:	4812      	ldr	r0, [pc, #72]	@ (211ac <_ZN20complex_full_dynamic3app17h3c714b09d5f49021E+0xa0>)
   21162:	2108      	movs	r1, #8
   21164:	2205      	movs	r2, #5
   21166:	2600      	movs	r6, #0
   21168:	4633      	mov	r3, r6
   2116a:	df02      	svc	2
   2116c:	287f      	cmp	r0, #127	@ 0x7f
   2116e:	d80b      	bhi.n	21188 <_ZN20complex_full_dynamic3app17h3c714b09d5f49021E+0x7c>
   21170:	9c03      	ldr	r4, [sp, #12]
   21172:	6061      	str	r1, [r4, #4]
   21174:	2601      	movs	r6, #1
   21176:	7026      	strb	r6, [r4, #0]
   21178:	a80e      	add	r0, sp, #56	@ 0x38
   2117a:	f005 fbcd 	bl	26918 <_ZN9allow_pin12full_dynamic17unshare_if_shared17h2809d14697b066c7E>
   2117e:	a804      	add	r0, sp, #16
   21180:	f005 fbca 	bl	26918 <_ZN9allow_pin12full_dynamic17unshare_if_shared17h2809d14697b066c7E>
   21184:	b029      	add	sp, #164	@ 0xa4
   21186:	bdf0      	pop	{r4, r5, r6, r7, pc}
   21188:	a804      	add	r0, sp, #16
   2118a:	f005 fbc5 	bl	26918 <_ZN9allow_pin12full_dynamic17unshare_if_shared17h2809d14697b066c7E>
   2118e:	ac0e      	add	r4, sp, #56	@ 0x38
   21190:	4620      	mov	r0, r4
   21192:	f005 fbc1 	bl	26918 <_ZN9allow_pin12full_dynamic17unshare_if_shared17h2809d14697b066c7E>
   21196:	4620      	mov	r0, r4
   21198:	f005 fbbe 	bl	26918 <_ZN9allow_pin12full_dynamic17unshare_if_shared17h2809d14697b066c7E>
   2119c:	9c03      	ldr	r4, [sp, #12]
   2119e:	1c60      	adds	r0, r4, #1
   211a0:	225d      	movs	r2, #93	@ 0x5d
   211a2:	9901      	ldr	r1, [sp, #4]
   211a4:	f005 fd79 	bl	26c9a <__aeabi_memcpy>
   211a8:	e7e5      	b.n	21176 <_ZN20complex_full_dynamic3app17h3c714b09d5f49021E+0x6a>
   211aa:	46c0      	nop			@ (mov r8, r8)
   211ac:	00000c3e 	.word	0x00000c3e

000211b0 <_ZN20complex_full_dynamic3app17h3d4b85f4445ab487E>:
   211b0:	b5f0      	push	{r4, r5, r6, r7, lr}
   211b2:	af03      	add	r7, sp, #12
   211b4:	b0af      	sub	sp, #188	@ 0xbc
   211b6:	9004      	str	r0, [sp, #16]
   211b8:	ae05      	add	r6, sp, #20
   211ba:	2502      	movs	r5, #2
   211bc:	7235      	strb	r5, [r6, #8]
   211be:	4630      	mov	r0, r6
   211c0:	300c      	adds	r0, #12
   211c2:	2263      	movs	r2, #99	@ 0x63
   211c4:	9203      	str	r2, [sp, #12]
   211c6:	f005 fd68 	bl	26c9a <__aeabi_memcpy>
   211ca:	ac21      	add	r4, sp, #132	@ 0x84
   211cc:	4620      	mov	r0, r4
   211ce:	300c      	adds	r0, #12
   211d0:	212c      	movs	r1, #44	@ 0x2c
   211d2:	9002      	str	r0, [sp, #8]
   211d4:	f005 fbb4 	bl	26940 <__aeabi_memclr4>
   211d8:	7225      	strb	r5, [r4, #8]
   211da:	2005      	movs	r0, #5
   211dc:	9000      	str	r0, [sp, #0]
   211de:	2204      	movs	r2, #4
   211e0:	2318      	movs	r3, #24
   211e2:	4630      	mov	r0, r6
   211e4:	9903      	ldr	r1, [sp, #12]
   211e6:	f7fe ff7d 	bl	200e4 <_ZN9allow_pin12full_dynamic15Buffer$LT$B$GT$5allow17hcdfd34cf7b1c64cdE>
   211ea:	07c0      	lsls	r0, r0, #31
   211ec:	d110      	bne.n	21210 <_ZN20complex_full_dynamic3app17h3d4b85f4445ab487E+0x60>
   211ee:	2203      	movs	r2, #3
   211f0:	9200      	str	r2, [sp, #0]
   211f2:	a821      	add	r0, sp, #132	@ 0x84
   211f4:	212c      	movs	r1, #44	@ 0x2c
   211f6:	2318      	movs	r3, #24
   211f8:	f7fe ff74 	bl	200e4 <_ZN9allow_pin12full_dynamic15Buffer$LT$B$GT$5allow17hcdfd34cf7b1c64cdE>
   211fc:	07c0      	lsls	r0, r0, #31
   211fe:	d107      	bne.n	21210 <_ZN20complex_full_dynamic3app17h3d4b85f4445ab487E+0x60>
   21200:	2018      	movs	r0, #24
   21202:	2105      	movs	r1, #5
   21204:	2203      	movs	r2, #3
   21206:	2600      	movs	r6, #0
   21208:	4633      	mov	r3, r6
   2120a:	df02      	svc	2
   2120c:	287f      	cmp	r0, #127	@ 0x7f
   2120e:	d80b      	bhi.n	21228 <_ZN20complex_full_dynamic3app17h3d4b85f4445ab487E+0x78>
   21210:	9c04      	ldr	r4, [sp, #16]
   21212:	6061      	str	r1, [r4, #4]
   21214:	2601      	movs	r6, #1
   21216:	7026      	strb	r6, [r4, #0]
   21218:	a821      	add	r0, sp, #132	@ 0x84
   2121a:	f005 fb7d 	bl	26918 <_ZN9allow_pin12full_dynamic17unshare_if_shared17h2809d14697b066c7E>
   2121e:	a805      	add	r0, sp, #20
   21220:	f005 fb7a 	bl	26918 <_ZN9allow_pin12full_dynamic17unshare_if_shared17h2809d14697b066c7E>
   21224:	b02f      	add	sp, #188	@ 0xbc
   21226:	bdf0      	pop	{r4, r5, r6, r7, pc}
   21228:	a805      	add	r0, sp, #20
   2122a:	f005 fb75 	bl	26918 <_ZN9allow_pin12full_dynamic17unshare_if_shared17h2809d14697b066c7E>
   2122e:	ac21      	add	r4, sp, #132	@ 0x84
   21230:	4620      	mov	r0, r4
   21232:	f005 fb71 	bl	26918 <_ZN9allow_pin12full_dynamic17unshare_if_shared17h2809d14697b066c7E>
   21236:	4620      	mov	r0, r4
   21238:	f005 fb6e 	bl	26918 <_ZN9allow_pin12full_dynamic17unshare_if_shared17h2809d14697b066c7E>
   2123c:	9c04      	ldr	r4, [sp, #16]
   2123e:	1c60      	adds	r0, r4, #1
   21240:	222c      	movs	r2, #44	@ 0x2c
   21242:	9902      	ldr	r1, [sp, #8]
   21244:	f005 fd29 	bl	26c9a <__aeabi_memcpy>
   21248:	e7e5      	b.n	21216 <_ZN20complex_full_dynamic3app17h3d4b85f4445ab487E+0x66>

0002124a <_ZN20complex_full_dynamic3app17h3d81318478cde43eE>:
   2124a:	b5f0      	push	{r4, r5, r6, r7, lr}
   2124c:	af03      	add	r7, sp, #12
   2124e:	b0a3      	sub	sp, #140	@ 0x8c
   21250:	9004      	str	r0, [sp, #16]
   21252:	ae05      	add	r6, sp, #20
   21254:	2402      	movs	r4, #2
   21256:	7234      	strb	r4, [r6, #8]
   21258:	4630      	mov	r0, r6
   2125a:	300c      	adds	r0, #12
   2125c:	221b      	movs	r2, #27
   2125e:	9203      	str	r2, [sp, #12]
   21260:	f005 fd1b 	bl	26c9a <__aeabi_memcpy>
   21264:	ad0f      	add	r5, sp, #60	@ 0x3c
   21266:	4628      	mov	r0, r5
   21268:	300c      	adds	r0, #12
   2126a:	2141      	movs	r1, #65	@ 0x41
   2126c:	9002      	str	r0, [sp, #8]
   2126e:	f005 fb67 	bl	26940 <__aeabi_memclr4>
   21272:	722c      	strb	r4, [r5, #8]
   21274:	2008      	movs	r0, #8
   21276:	9000      	str	r0, [sp, #0]
   21278:	2005      	movs	r0, #5
   2127a:	0184      	lsls	r4, r0, #6
   2127c:	2204      	movs	r2, #4
   2127e:	4630      	mov	r0, r6
   21280:	9903      	ldr	r1, [sp, #12]
   21282:	4623      	mov	r3, r4
   21284:	f7fe ff2e 	bl	200e4 <_ZN9allow_pin12full_dynamic15Buffer$LT$B$GT$5allow17hcdfd34cf7b1c64cdE>
   21288:	07c0      	lsls	r0, r0, #31
   2128a:	d111      	bne.n	212b0 <_ZN20complex_full_dynamic3app17h3d81318478cde43eE+0x66>
   2128c:	2009      	movs	r0, #9
   2128e:	9000      	str	r0, [sp, #0]
   21290:	a80f      	add	r0, sp, #60	@ 0x3c
   21292:	2141      	movs	r1, #65	@ 0x41
   21294:	2203      	movs	r2, #3
   21296:	4623      	mov	r3, r4
   21298:	f7fe ff24 	bl	200e4 <_ZN9allow_pin12full_dynamic15Buffer$LT$B$GT$5allow17hcdfd34cf7b1c64cdE>
   2129c:	07c0      	lsls	r0, r0, #31
   2129e:	d107      	bne.n	212b0 <_ZN20complex_full_dynamic3app17h3d81318478cde43eE+0x66>
   212a0:	2108      	movs	r1, #8
   212a2:	2209      	movs	r2, #9
   212a4:	2600      	movs	r6, #0
   212a6:	4620      	mov	r0, r4
   212a8:	4633      	mov	r3, r6
   212aa:	df02      	svc	2
   212ac:	287f      	cmp	r0, #127	@ 0x7f
   212ae:	d80b      	bhi.n	212c8 <_ZN20complex_full_dynamic3app17h3d81318478cde43eE+0x7e>
   212b0:	9c04      	ldr	r4, [sp, #16]
   212b2:	6061      	str	r1, [r4, #4]
   212b4:	2601      	movs	r6, #1
   212b6:	7026      	strb	r6, [r4, #0]
   212b8:	a80f      	add	r0, sp, #60	@ 0x3c
   212ba:	f005 fb2d 	bl	26918 <_ZN9allow_pin12full_dynamic17unshare_if_shared17h2809d14697b066c7E>
   212be:	a805      	add	r0, sp, #20
   212c0:	f005 fb2a 	bl	26918 <_ZN9allow_pin12full_dynamic17unshare_if_shared17h2809d14697b066c7E>
   212c4:	b023      	add	sp, #140	@ 0x8c
   212c6:	bdf0      	pop	{r4, r5, r6, r7, pc}
   212c8:	a805      	add	r0, sp, #20
   212ca:	f005 fb25 	bl	26918 <_ZN9allow_pin12full_dynamic17unshare_if_shared17h2809d14697b066c7E>
   212ce:	ac0f      	add	r4, sp, #60	@ 0x3c
   212d0:	4620      	mov	r0, r4
   212d2:	f005 fb21 	bl	26918 <_ZN9allow_pin12full_dynamic17unshare_if_shared17h2809d14697b066c7E>
   212d6:	4620      	mov	r0, r4
   212d8:	f005 fb1e 	bl	26918 <_ZN9allow_pin12full_dynamic17unshare_if_shared17h2809d14697b066c7E>
   212dc:	9c04      	ldr	r4, [sp, #16]
   212de:	1c60      	adds	r0, r4, #1
   212e0:	2241      	movs	r2, #65	@ 0x41
   212e2:	9902      	ldr	r1, [sp, #8]
   212e4:	f005 fcd9 	bl	26c9a <__aeabi_memcpy>
   212e8:	e7e5      	b.n	212b6 <_ZN20complex_full_dynamic3app17h3d81318478cde43eE+0x6c>
   212ea:	d4d4      	bmi.n	21296 <_ZN20complex_full_dynamic3app17h3d81318478cde43eE+0x4c>

000212ec <_ZN20complex_full_dynamic3app17h3df9a99d78512e9aE>:
   212ec:	b5f0      	push	{r4, r5, r6, r7, lr}
   212ee:	af03      	add	r7, sp, #12
   212f0:	b0a1      	sub	sp, #132	@ 0x84
   212f2:	9004      	str	r0, [sp, #16]
   212f4:	ae05      	add	r6, sp, #20
   212f6:	2502      	movs	r5, #2
   212f8:	7235      	strb	r5, [r6, #8]
   212fa:	4630      	mov	r0, r6
   212fc:	300c      	adds	r0, #12
   212fe:	2212      	movs	r2, #18
   21300:	9203      	str	r2, [sp, #12]
   21302:	f005 fcca 	bl	26c9a <__aeabi_memcpy>
   21306:	ac0d      	add	r4, sp, #52	@ 0x34
   21308:	4620      	mov	r0, r4
   2130a:	300c      	adds	r0, #12
   2130c:	2144      	movs	r1, #68	@ 0x44
   2130e:	9002      	str	r0, [sp, #8]
   21310:	f005 fb16 	bl	26940 <__aeabi_memclr4>
   21314:	7225      	strb	r5, [r4, #8]
   21316:	9500      	str	r5, [sp, #0]
   21318:	2204      	movs	r2, #4
   2131a:	4c1b      	ldr	r4, [pc, #108]	@ (21388 <_ZN20complex_full_dynamic3app17h3df9a99d78512e9aE+0x9c>)
   2131c:	4630      	mov	r0, r6
   2131e:	9903      	ldr	r1, [sp, #12]
   21320:	4623      	mov	r3, r4
   21322:	f7fe fedf 	bl	200e4 <_ZN9allow_pin12full_dynamic15Buffer$LT$B$GT$5allow17hcdfd34cf7b1c64cdE>
   21326:	07c0      	lsls	r0, r0, #31
   21328:	d111      	bne.n	2134e <_ZN20complex_full_dynamic3app17h3df9a99d78512e9aE+0x62>
   2132a:	2009      	movs	r0, #9
   2132c:	9000      	str	r0, [sp, #0]
   2132e:	a80d      	add	r0, sp, #52	@ 0x34
   21330:	2144      	movs	r1, #68	@ 0x44
   21332:	2203      	movs	r2, #3
   21334:	4623      	mov	r3, r4
   21336:	f7fe fed5 	bl	200e4 <_ZN9allow_pin12full_dynamic15Buffer$LT$B$GT$5allow17hcdfd34cf7b1c64cdE>
   2133a:	07c0      	lsls	r0, r0, #31
   2133c:	d107      	bne.n	2134e <_ZN20complex_full_dynamic3app17h3df9a99d78512e9aE+0x62>
   2133e:	4812      	ldr	r0, [pc, #72]	@ (21388 <_ZN20complex_full_dynamic3app17h3df9a99d78512e9aE+0x9c>)
   21340:	2102      	movs	r1, #2
   21342:	2209      	movs	r2, #9
   21344:	2600      	movs	r6, #0
   21346:	4633      	mov	r3, r6
   21348:	df02      	svc	2
   2134a:	287f      	cmp	r0, #127	@ 0x7f
   2134c:	d80b      	bhi.n	21366 <_ZN20complex_full_dynamic3app17h3df9a99d78512e9aE+0x7a>
   2134e:	9c04      	ldr	r4, [sp, #16]
   21350:	6061      	str	r1, [r4, #4]
   21352:	2601      	movs	r6, #1
   21354:	7026      	strb	r6, [r4, #0]
   21356:	a80d      	add	r0, sp, #52	@ 0x34
   21358:	f005 fade 	bl	26918 <_ZN9allow_pin12full_dynamic17unshare_if_shared17h2809d14697b066c7E>
   2135c:	a805      	add	r0, sp, #20
   2135e:	f005 fadb 	bl	26918 <_ZN9allow_pin12full_dynamic17unshare_if_shared17h2809d14697b066c7E>
   21362:	b021      	add	sp, #132	@ 0x84
   21364:	bdf0      	pop	{r4, r5, r6, r7, pc}
   21366:	a805      	add	r0, sp, #20
   21368:	f005 fad6 	bl	26918 <_ZN9allow_pin12full_dynamic17unshare_if_shared17h2809d14697b066c7E>
   2136c:	ac0d      	add	r4, sp, #52	@ 0x34
   2136e:	4620      	mov	r0, r4
   21370:	f005 fad2 	bl	26918 <_ZN9allow_pin12full_dynamic17unshare_if_shared17h2809d14697b066c7E>
   21374:	4620      	mov	r0, r4
   21376:	f005 facf 	bl	26918 <_ZN9allow_pin12full_dynamic17unshare_if_shared17h2809d14697b066c7E>
   2137a:	9c04      	ldr	r4, [sp, #16]
   2137c:	1c60      	adds	r0, r4, #1
   2137e:	2244      	movs	r2, #68	@ 0x44
   21380:	9902      	ldr	r1, [sp, #8]
   21382:	f005 fc8a 	bl	26c9a <__aeabi_memcpy>
   21386:	e7e5      	b.n	21354 <_ZN20complex_full_dynamic3app17h3df9a99d78512e9aE+0x68>
   21388:	00002432 	.word	0x00002432

0002138c <_ZN20complex_full_dynamic3app17h42d8a37fa27da591E>:
   2138c:	b5f0      	push	{r4, r5, r6, r7, lr}
   2138e:	af03      	add	r7, sp, #12
   21390:	b0a1      	sub	sp, #132	@ 0x84
   21392:	9003      	str	r0, [sp, #12]
   21394:	ae04      	add	r6, sp, #16
   21396:	2502      	movs	r5, #2
   21398:	7235      	strb	r5, [r6, #8]
   2139a:	4630      	mov	r0, r6
   2139c:	300c      	adds	r0, #12
   2139e:	2241      	movs	r2, #65	@ 0x41
   213a0:	9202      	str	r2, [sp, #8]
   213a2:	f005 fc7a 	bl	26c9a <__aeabi_memcpy>
   213a6:	ac18      	add	r4, sp, #96	@ 0x60
   213a8:	4620      	mov	r0, r4
   213aa:	300c      	adds	r0, #12
   213ac:	2118      	movs	r1, #24
   213ae:	9001      	str	r0, [sp, #4]
   213b0:	f005 fac6 	bl	26940 <__aeabi_memclr4>
   213b4:	7225      	strb	r5, [r4, #8]
   213b6:	2501      	movs	r5, #1
   213b8:	9500      	str	r5, [sp, #0]
   213ba:	2204      	movs	r2, #4
   213bc:	4c1b      	ldr	r4, [pc, #108]	@ (2142c <_ZN20complex_full_dynamic3app17h42d8a37fa27da591E+0xa0>)
   213be:	4630      	mov	r0, r6
   213c0:	9902      	ldr	r1, [sp, #8]
   213c2:	4623      	mov	r3, r4
   213c4:	f7fe fe8e 	bl	200e4 <_ZN9allow_pin12full_dynamic15Buffer$LT$B$GT$5allow17hcdfd34cf7b1c64cdE>
   213c8:	07c0      	lsls	r0, r0, #31
   213ca:	d111      	bne.n	213f0 <_ZN20complex_full_dynamic3app17h42d8a37fa27da591E+0x64>
   213cc:	2009      	movs	r0, #9
   213ce:	9000      	str	r0, [sp, #0]
   213d0:	a818      	add	r0, sp, #96	@ 0x60
   213d2:	2118      	movs	r1, #24
   213d4:	2203      	movs	r2, #3
   213d6:	4623      	mov	r3, r4
   213d8:	f7fe fe84 	bl	200e4 <_ZN9allow_pin12full_dynamic15Buffer$LT$B$GT$5allow17hcdfd34cf7b1c64cdE>
   213dc:	07c0      	lsls	r0, r0, #31
   213de:	d107      	bne.n	213f0 <_ZN20complex_full_dynamic3app17h42d8a37fa27da591E+0x64>
   213e0:	4812      	ldr	r0, [pc, #72]	@ (2142c <_ZN20complex_full_dynamic3app17h42d8a37fa27da591E+0xa0>)
   213e2:	2101      	movs	r1, #1
   213e4:	2209      	movs	r2, #9
   213e6:	2600      	movs	r6, #0
   213e8:	4633      	mov	r3, r6
   213ea:	df02      	svc	2
   213ec:	287f      	cmp	r0, #127	@ 0x7f
   213ee:	d80a      	bhi.n	21406 <_ZN20complex_full_dynamic3app17h42d8a37fa27da591E+0x7a>
   213f0:	9c03      	ldr	r4, [sp, #12]
   213f2:	6061      	str	r1, [r4, #4]
   213f4:	7025      	strb	r5, [r4, #0]
   213f6:	a818      	add	r0, sp, #96	@ 0x60
   213f8:	f005 fa8e 	bl	26918 <_ZN9allow_pin12full_dynamic17unshare_if_shared17h2809d14697b066c7E>
   213fc:	a804      	add	r0, sp, #16
   213fe:	f005 fa8b 	bl	26918 <_ZN9allow_pin12full_dynamic17unshare_if_shared17h2809d14697b066c7E>
   21402:	b021      	add	sp, #132	@ 0x84
   21404:	bdf0      	pop	{r4, r5, r6, r7, pc}
   21406:	a804      	add	r0, sp, #16
   21408:	f005 fa86 	bl	26918 <_ZN9allow_pin12full_dynamic17unshare_if_shared17h2809d14697b066c7E>
   2140c:	ac18      	add	r4, sp, #96	@ 0x60
   2140e:	4620      	mov	r0, r4
   21410:	f005 fa82 	bl	26918 <_ZN9allow_pin12full_dynamic17unshare_if_shared17h2809d14697b066c7E>
   21414:	4620      	mov	r0, r4
   21416:	f005 fa7f 	bl	26918 <_ZN9allow_pin12full_dynamic17unshare_if_shared17h2809d14697b066c7E>
   2141a:	9c03      	ldr	r4, [sp, #12]
   2141c:	1c60      	adds	r0, r4, #1
   2141e:	2218      	movs	r2, #24
   21420:	9901      	ldr	r1, [sp, #4]
   21422:	f005 fc3a 	bl	26c9a <__aeabi_memcpy>
   21426:	4635      	mov	r5, r6
   21428:	e7e4      	b.n	213f4 <_ZN20complex_full_dynamic3app17h42d8a37fa27da591E+0x68>
   2142a:	46c0      	nop			@ (mov r8, r8)
   2142c:	00002156 	.word	0x00002156

00021430 <_ZN20complex_full_dynamic3app17h45380c33dd8d13e9E>:
   21430:	b5f0      	push	{r4, r5, r6, r7, lr}
   21432:	af03      	add	r7, sp, #12
   21434:	b0af      	sub	sp, #188	@ 0xbc
   21436:	9004      	str	r0, [sp, #16]
   21438:	ae05      	add	r6, sp, #20
   2143a:	2502      	movs	r5, #2
   2143c:	7235      	strb	r5, [r6, #8]
   2143e:	4630      	mov	r0, r6
   21440:	300c      	adds	r0, #12
   21442:	2253      	movs	r2, #83	@ 0x53
   21444:	9203      	str	r2, [sp, #12]
   21446:	f005 fc28 	bl	26c9a <__aeabi_memcpy>
   2144a:	ac1d      	add	r4, sp, #116	@ 0x74
   2144c:	4620      	mov	r0, r4
   2144e:	300c      	adds	r0, #12
   21450:	213a      	movs	r1, #58	@ 0x3a
   21452:	9002      	str	r0, [sp, #8]
   21454:	f005 fa74 	bl	26940 <__aeabi_memclr4>
   21458:	7225      	strb	r5, [r4, #8]
   2145a:	2006      	movs	r0, #6
   2145c:	9000      	str	r0, [sp, #0]
   2145e:	2204      	movs	r2, #4
   21460:	4c1b      	ldr	r4, [pc, #108]	@ (214d0 <_ZN20complex_full_dynamic3app17h45380c33dd8d13e9E+0xa0>)
   21462:	4630      	mov	r0, r6
   21464:	9903      	ldr	r1, [sp, #12]
   21466:	4623      	mov	r3, r4
   21468:	f7fe fe3c 	bl	200e4 <_ZN9allow_pin12full_dynamic15Buffer$LT$B$GT$5allow17hcdfd34cf7b1c64cdE>
   2146c:	07c0      	lsls	r0, r0, #31
   2146e:	d111      	bne.n	21494 <_ZN20complex_full_dynamic3app17h45380c33dd8d13e9E+0x64>
   21470:	2007      	movs	r0, #7
   21472:	9000      	str	r0, [sp, #0]
   21474:	a81d      	add	r0, sp, #116	@ 0x74
   21476:	213a      	movs	r1, #58	@ 0x3a
   21478:	2203      	movs	r2, #3
   2147a:	4623      	mov	r3, r4
   2147c:	f7fe fe32 	bl	200e4 <_ZN9allow_pin12full_dynamic15Buffer$LT$B$GT$5allow17hcdfd34cf7b1c64cdE>
   21480:	07c0      	lsls	r0, r0, #31
   21482:	d107      	bne.n	21494 <_ZN20complex_full_dynamic3app17h45380c33dd8d13e9E+0x64>
   21484:	4812      	ldr	r0, [pc, #72]	@ (214d0 <_ZN20complex_full_dynamic3app17h45380c33dd8d13e9E+0xa0>)
   21486:	2106      	movs	r1, #6
   21488:	2207      	movs	r2, #7
   2148a:	2600      	movs	r6, #0
   2148c:	4633      	mov	r3, r6
   2148e:	df02      	svc	2
   21490:	287f      	cmp	r0, #127	@ 0x7f
   21492:	d80b      	bhi.n	214ac <_ZN20complex_full_dynamic3app17h45380c33dd8d13e9E+0x7c>
   21494:	9c04      	ldr	r4, [sp, #16]
   21496:	6061      	str	r1, [r4, #4]
   21498:	2601      	movs	r6, #1
   2149a:	7026      	strb	r6, [r4, #0]
   2149c:	a81d      	add	r0, sp, #116	@ 0x74
   2149e:	f005 fa3b 	bl	26918 <_ZN9allow_pin12full_dynamic17unshare_if_shared17h2809d14697b066c7E>
   214a2:	a805      	add	r0, sp, #20
   214a4:	f005 fa38 	bl	26918 <_ZN9allow_pin12full_dynamic17unshare_if_shared17h2809d14697b066c7E>
   214a8:	b02f      	add	sp, #188	@ 0xbc
   214aa:	bdf0      	pop	{r4, r5, r6, r7, pc}
   214ac:	a805      	add	r0, sp, #20
   214ae:	f005 fa33 	bl	26918 <_ZN9allow_pin12full_dynamic17unshare_if_shared17h2809d14697b066c7E>
   214b2:	ac1d      	add	r4, sp, #116	@ 0x74
   214b4:	4620      	mov	r0, r4
   214b6:	f005 fa2f 	bl	26918 <_ZN9allow_pin12full_dynamic17unshare_if_shared17h2809d14697b066c7E>
   214ba:	4620      	mov	r0, r4
   214bc:	f005 fa2c 	bl	26918 <_ZN9allow_pin12full_dynamic17unshare_if_shared17h2809d14697b066c7E>
   214c0:	9c04      	ldr	r4, [sp, #16]
   214c2:	1c60      	adds	r0, r4, #1
   214c4:	223a      	movs	r2, #58	@ 0x3a
   214c6:	9902      	ldr	r1, [sp, #8]
   214c8:	f005 fbe7 	bl	26c9a <__aeabi_memcpy>
   214cc:	e7e5      	b.n	2149a <_ZN20complex_full_dynamic3app17h45380c33dd8d13e9E+0x6a>
   214ce:	46c0      	nop			@ (mov r8, r8)
   214d0:	00002645 	.word	0x00002645

000214d4 <_ZN20complex_full_dynamic3app17h49940dbf4a280806E>:
   214d4:	b5f0      	push	{r4, r5, r6, r7, lr}
   214d6:	af03      	add	r7, sp, #12
   214d8:	b0a3      	sub	sp, #140	@ 0x8c
   214da:	9003      	str	r0, [sp, #12]
   214dc:	ae04      	add	r6, sp, #16
   214de:	2502      	movs	r5, #2
   214e0:	7235      	strb	r5, [r6, #8]
   214e2:	4630      	mov	r0, r6
   214e4:	300c      	adds	r0, #12
   214e6:	2234      	movs	r2, #52	@ 0x34
   214e8:	9202      	str	r2, [sp, #8]
   214ea:	f005 fbd6 	bl	26c9a <__aeabi_memcpy>
   214ee:	ac14      	add	r4, sp, #80	@ 0x50
   214f0:	4620      	mov	r0, r4
   214f2:	300c      	adds	r0, #12
   214f4:	212e      	movs	r1, #46	@ 0x2e
   214f6:	9001      	str	r0, [sp, #4]
   214f8:	f005 fa22 	bl	26940 <__aeabi_memclr4>
   214fc:	7225      	strb	r5, [r4, #8]
   214fe:	9500      	str	r5, [sp, #0]
   21500:	2204      	movs	r2, #4
   21502:	4c1b      	ldr	r4, [pc, #108]	@ (21570 <_ZN20complex_full_dynamic3app17h49940dbf4a280806E+0x9c>)
   21504:	4630      	mov	r0, r6
   21506:	9902      	ldr	r1, [sp, #8]
   21508:	4623      	mov	r3, r4
   2150a:	f7fe fdeb 	bl	200e4 <_ZN9allow_pin12full_dynamic15Buffer$LT$B$GT$5allow17hcdfd34cf7b1c64cdE>
   2150e:	07c0      	lsls	r0, r0, #31
   21510:	d111      	bne.n	21536 <_ZN20complex_full_dynamic3app17h49940dbf4a280806E+0x62>
   21512:	2008      	movs	r0, #8
   21514:	9000      	str	r0, [sp, #0]
   21516:	a814      	add	r0, sp, #80	@ 0x50
   21518:	212e      	movs	r1, #46	@ 0x2e
   2151a:	2203      	movs	r2, #3
   2151c:	4623      	mov	r3, r4
   2151e:	f7fe fde1 	bl	200e4 <_ZN9allow_pin12full_dynamic15Buffer$LT$B$GT$5allow17hcdfd34cf7b1c64cdE>
   21522:	07c0      	lsls	r0, r0, #31
   21524:	d107      	bne.n	21536 <_ZN20complex_full_dynamic3app17h49940dbf4a280806E+0x62>
   21526:	4812      	ldr	r0, [pc, #72]	@ (21570 <_ZN20complex_full_dynamic3app17h49940dbf4a280806E+0x9c>)
   21528:	2102      	movs	r1, #2
   2152a:	2208      	movs	r2, #8
   2152c:	2600      	movs	r6, #0
   2152e:	4633      	mov	r3, r6
   21530:	df02      	svc	2
   21532:	287f      	cmp	r0, #127	@ 0x7f
   21534:	d80b      	bhi.n	2154e <_ZN20complex_full_dynamic3app17h49940dbf4a280806E+0x7a>
   21536:	9c03      	ldr	r4, [sp, #12]
   21538:	6061      	str	r1, [r4, #4]
   2153a:	2601      	movs	r6, #1
   2153c:	7026      	strb	r6, [r4, #0]
   2153e:	a814      	add	r0, sp, #80	@ 0x50
   21540:	f005 f9ea 	bl	26918 <_ZN9allow_pin12full_dynamic17unshare_if_shared17h2809d14697b066c7E>
   21544:	a804      	add	r0, sp, #16
   21546:	f005 f9e7 	bl	26918 <_ZN9allow_pin12full_dynamic17unshare_if_shared17h2809d14697b066c7E>
   2154a:	b023      	add	sp, #140	@ 0x8c
   2154c:	bdf0      	pop	{r4, r5, r6, r7, pc}
   2154e:	a804      	add	r0, sp, #16
   21550:	f005 f9e2 	bl	26918 <_ZN9allow_pin12full_dynamic17unshare_if_shared17h2809d14697b066c7E>
   21554:	ac14      	add	r4, sp, #80	@ 0x50
   21556:	4620      	mov	r0, r4
   21558:	f005 f9de 	bl	26918 <_ZN9allow_pin12full_dynamic17unshare_if_shared17h2809d14697b066c7E>
   2155c:	4620      	mov	r0, r4
   2155e:	f005 f9db 	bl	26918 <_ZN9allow_pin12full_dynamic17unshare_if_shared17h2809d14697b066c7E>
   21562:	9c03      	ldr	r4, [sp, #12]
   21564:	1c60      	adds	r0, r4, #1
   21566:	222e      	movs	r2, #46	@ 0x2e
   21568:	9901      	ldr	r1, [sp, #4]
   2156a:	f005 fb96 	bl	26c9a <__aeabi_memcpy>
   2156e:	e7e5      	b.n	2153c <_ZN20complex_full_dynamic3app17h49940dbf4a280806E+0x68>
   21570:	00000209 	.word	0x00000209

00021574 <_ZN20complex_full_dynamic3app17h49a3a72161905dfeE>:
   21574:	b5f0      	push	{r4, r5, r6, r7, lr}
   21576:	af03      	add	r7, sp, #12
   21578:	b09d      	sub	sp, #116	@ 0x74
   2157a:	9004      	str	r0, [sp, #16]
   2157c:	ae05      	add	r6, sp, #20
   2157e:	2502      	movs	r5, #2
   21580:	7235      	strb	r5, [r6, #8]
   21582:	4630      	mov	r0, r6
   21584:	300c      	adds	r0, #12
   21586:	2210      	movs	r2, #16
   21588:	9203      	str	r2, [sp, #12]
   2158a:	f005 fb86 	bl	26c9a <__aeabi_memcpy>
   2158e:	ac0c      	add	r4, sp, #48	@ 0x30
   21590:	4620      	mov	r0, r4
   21592:	300c      	adds	r0, #12
   21594:	2136      	movs	r1, #54	@ 0x36
   21596:	9002      	str	r0, [sp, #8]
   21598:	f005 f9d2 	bl	26940 <__aeabi_memclr4>
   2159c:	7225      	strb	r5, [r4, #8]
   2159e:	2501      	movs	r5, #1
   215a0:	9500      	str	r5, [sp, #0]
   215a2:	2204      	movs	r2, #4
   215a4:	4c1b      	ldr	r4, [pc, #108]	@ (21614 <_ZN20complex_full_dynamic3app17h49a3a72161905dfeE+0xa0>)
   215a6:	4630      	mov	r0, r6
   215a8:	9903      	ldr	r1, [sp, #12]
   215aa:	4623      	mov	r3, r4
   215ac:	f7fe fd9a 	bl	200e4 <_ZN9allow_pin12full_dynamic15Buffer$LT$B$GT$5allow17hcdfd34cf7b1c64cdE>
   215b0:	07c0      	lsls	r0, r0, #31
   215b2:	d111      	bne.n	215d8 <_ZN20complex_full_dynamic3app17h49a3a72161905dfeE+0x64>
   215b4:	2007      	movs	r0, #7
   215b6:	9000      	str	r0, [sp, #0]
   215b8:	a80c      	add	r0, sp, #48	@ 0x30
   215ba:	2136      	movs	r1, #54	@ 0x36
   215bc:	2203      	movs	r2, #3
   215be:	4623      	mov	r3, r4
   215c0:	f7fe fd90 	bl	200e4 <_ZN9allow_pin12full_dynamic15Buffer$LT$B$GT$5allow17hcdfd34cf7b1c64cdE>
   215c4:	07c0      	lsls	r0, r0, #31
   215c6:	d107      	bne.n	215d8 <_ZN20complex_full_dynamic3app17h49a3a72161905dfeE+0x64>
   215c8:	4812      	ldr	r0, [pc, #72]	@ (21614 <_ZN20complex_full_dynamic3app17h49a3a72161905dfeE+0xa0>)
   215ca:	2101      	movs	r1, #1
   215cc:	2207      	movs	r2, #7
   215ce:	2600      	movs	r6, #0
   215d0:	4633      	mov	r3, r6
   215d2:	df02      	svc	2
   215d4:	287f      	cmp	r0, #127	@ 0x7f
   215d6:	d80a      	bhi.n	215ee <_ZN20complex_full_dynamic3app17h49a3a72161905dfeE+0x7a>
   215d8:	9c04      	ldr	r4, [sp, #16]
   215da:	6061      	str	r1, [r4, #4]
   215dc:	7025      	strb	r5, [r4, #0]
   215de:	a80c      	add	r0, sp, #48	@ 0x30
   215e0:	f005 f99a 	bl	26918 <_ZN9allow_pin12full_dynamic17unshare_if_shared17h2809d14697b066c7E>
   215e4:	a805      	add	r0, sp, #20
   215e6:	f005 f997 	bl	26918 <_ZN9allow_pin12full_dynamic17unshare_if_shared17h2809d14697b066c7E>
   215ea:	b01d      	add	sp, #116	@ 0x74
   215ec:	bdf0      	pop	{r4, r5, r6, r7, pc}
   215ee:	a805      	add	r0, sp, #20
   215f0:	f005 f992 	bl	26918 <_ZN9allow_pin12full_dynamic17unshare_if_shared17h2809d14697b066c7E>
   215f4:	ac0c      	add	r4, sp, #48	@ 0x30
   215f6:	4620      	mov	r0, r4
   215f8:	f005 f98e 	bl	26918 <_ZN9allow_pin12full_dynamic17unshare_if_shared17h2809d14697b066c7E>
   215fc:	4620      	mov	r0, r4
   215fe:	f005 f98b 	bl	26918 <_ZN9allow_pin12full_dynamic17unshare_if_shared17h2809d14697b066c7E>
   21602:	9c04      	ldr	r4, [sp, #16]
   21604:	1c60      	adds	r0, r4, #1
   21606:	2236      	movs	r2, #54	@ 0x36
   21608:	9902      	ldr	r1, [sp, #8]
   2160a:	f005 fb46 	bl	26c9a <__aeabi_memcpy>
   2160e:	4635      	mov	r5, r6
   21610:	e7e4      	b.n	215dc <_ZN20complex_full_dynamic3app17h49a3a72161905dfeE+0x68>
   21612:	46c0      	nop			@ (mov r8, r8)
   21614:	00001989 	.word	0x00001989

00021618 <_ZN20complex_full_dynamic3app17h49e19f22dbacd065E>:
   21618:	b5f0      	push	{r4, r5, r6, r7, lr}
   2161a:	af03      	add	r7, sp, #12
   2161c:	b0af      	sub	sp, #188	@ 0xbc
   2161e:	9004      	str	r0, [sp, #16]
   21620:	ae05      	add	r6, sp, #20
   21622:	2402      	movs	r4, #2
   21624:	7234      	strb	r4, [r6, #8]
   21626:	4630      	mov	r0, r6
   21628:	300c      	adds	r0, #12
   2162a:	222f      	movs	r2, #47	@ 0x2f
   2162c:	9203      	str	r2, [sp, #12]
   2162e:	f005 fb34 	bl	26c9a <__aeabi_memcpy>
   21632:	ad14      	add	r5, sp, #80	@ 0x50
   21634:	4628      	mov	r0, r5
   21636:	300c      	adds	r0, #12
   21638:	215e      	movs	r1, #94	@ 0x5e
   2163a:	9002      	str	r0, [sp, #8]
   2163c:	f005 f980 	bl	26940 <__aeabi_memclr4>
   21640:	722c      	strb	r4, [r5, #8]
   21642:	2005      	movs	r0, #5
   21644:	9000      	str	r0, [sp, #0]
   21646:	2204      	movs	r2, #4
   21648:	4d1a      	ldr	r5, [pc, #104]	@ (216b4 <_ZN20complex_full_dynamic3app17h49e19f22dbacd065E+0x9c>)
   2164a:	4630      	mov	r0, r6
   2164c:	9903      	ldr	r1, [sp, #12]
   2164e:	462b      	mov	r3, r5
   21650:	f7fe fd48 	bl	200e4 <_ZN9allow_pin12full_dynamic15Buffer$LT$B$GT$5allow17hcdfd34cf7b1c64cdE>
   21654:	07c0      	lsls	r0, r0, #31
   21656:	d110      	bne.n	2167a <_ZN20complex_full_dynamic3app17h49e19f22dbacd065E+0x62>
   21658:	9400      	str	r4, [sp, #0]
   2165a:	a814      	add	r0, sp, #80	@ 0x50
   2165c:	215e      	movs	r1, #94	@ 0x5e
   2165e:	2203      	movs	r2, #3
   21660:	462b      	mov	r3, r5
   21662:	f7fe fd3f 	bl	200e4 <_ZN9allow_pin12full_dynamic15Buffer$LT$B$GT$5allow17hcdfd34cf7b1c64cdE>
   21666:	07c0      	lsls	r0, r0, #31
   21668:	d107      	bne.n	2167a <_ZN20complex_full_dynamic3app17h49e19f22dbacd065E+0x62>
   2166a:	4812      	ldr	r0, [pc, #72]	@ (216b4 <_ZN20complex_full_dynamic3app17h49e19f22dbacd065E+0x9c>)
   2166c:	2105      	movs	r1, #5
   2166e:	2202      	movs	r2, #2
   21670:	2600      	movs	r6, #0
   21672:	4633      	mov	r3, r6
   21674:	df02      	svc	2
   21676:	287f      	cmp	r0, #127	@ 0x7f
   21678:	d80b      	bhi.n	21692 <_ZN20complex_full_dynamic3app17h49e19f22dbacd065E+0x7a>
   2167a:	9c04      	ldr	r4, [sp, #16]
   2167c:	6061      	str	r1, [r4, #4]
   2167e:	2601      	movs	r6, #1
   21680:	7026      	strb	r6, [r4, #0]
   21682:	a814      	add	r0, sp, #80	@ 0x50
   21684:	f005 f948 	bl	26918 <_ZN9allow_pin12full_dynamic17unshare_if_shared17h2809d14697b066c7E>
   21688:	a805      	add	r0, sp, #20
   2168a:	f005 f945 	bl	26918 <_ZN9allow_pin12full_dynamic17unshare_if_shared17h2809d14697b066c7E>
   2168e:	b02f      	add	sp, #188	@ 0xbc
   21690:	bdf0      	pop	{r4, r5, r6, r7, pc}
   21692:	a805      	add	r0, sp, #20
   21694:	f005 f940 	bl	26918 <_ZN9allow_pin12full_dynamic17unshare_if_shared17h2809d14697b066c7E>
   21698:	ac14      	add	r4, sp, #80	@ 0x50
   2169a:	4620      	mov	r0, r4
   2169c:	f005 f93c 	bl	26918 <_ZN9allow_pin12full_dynamic17unshare_if_shared17h2809d14697b066c7E>
   216a0:	4620      	mov	r0, r4
   216a2:	f005 f939 	bl	26918 <_ZN9allow_pin12full_dynamic17unshare_if_shared17h2809d14697b066c7E>
   216a6:	9c04      	ldr	r4, [sp, #16]
   216a8:	1c60      	adds	r0, r4, #1
   216aa:	225e      	movs	r2, #94	@ 0x5e
   216ac:	9902      	ldr	r1, [sp, #8]
   216ae:	f005 faf4 	bl	26c9a <__aeabi_memcpy>
   216b2:	e7e5      	b.n	21680 <_ZN20complex_full_dynamic3app17h49e19f22dbacd065E+0x68>
   216b4:	0000022b 	.word	0x0000022b

000216b8 <_ZN20complex_full_dynamic3app17h49ee9b92dcc45781E>:
   216b8:	b5f0      	push	{r4, r5, r6, r7, lr}
   216ba:	af03      	add	r7, sp, #12
   216bc:	b0a5      	sub	sp, #148	@ 0x94
   216be:	9003      	str	r0, [sp, #12]
   216c0:	ae04      	add	r6, sp, #16
   216c2:	2402      	movs	r4, #2
   216c4:	7234      	strb	r4, [r6, #8]
   216c6:	4630      	mov	r0, r6
   216c8:	300c      	adds	r0, #12
   216ca:	2236      	movs	r2, #54	@ 0x36
   216cc:	9202      	str	r2, [sp, #8]
   216ce:	f005 fae4 	bl	26c9a <__aeabi_memcpy>
   216d2:	ad15      	add	r5, sp, #84	@ 0x54
   216d4:	4628      	mov	r0, r5
   216d6:	300c      	adds	r0, #12
   216d8:	2134      	movs	r1, #52	@ 0x34
   216da:	9001      	str	r0, [sp, #4]
   216dc:	f005 f930 	bl	26940 <__aeabi_memclr4>
   216e0:	722c      	strb	r4, [r5, #8]
   216e2:	2204      	movs	r2, #4
   216e4:	9200      	str	r2, [sp, #0]
   216e6:	4d1b      	ldr	r5, [pc, #108]	@ (21754 <_ZN20complex_full_dynamic3app17h49ee9b92dcc45781E+0x9c>)
   216e8:	4630      	mov	r0, r6
   216ea:	9902      	ldr	r1, [sp, #8]
   216ec:	462b      	mov	r3, r5
   216ee:	f7fe fcf9 	bl	200e4 <_ZN9allow_pin12full_dynamic15Buffer$LT$B$GT$5allow17hcdfd34cf7b1c64cdE>
   216f2:	07c0      	lsls	r0, r0, #31
   216f4:	d110      	bne.n	21718 <_ZN20complex_full_dynamic3app17h49ee9b92dcc45781E+0x60>
   216f6:	9400      	str	r4, [sp, #0]
   216f8:	a815      	add	r0, sp, #84	@ 0x54
   216fa:	2134      	movs	r1, #52	@ 0x34
   216fc:	2203      	movs	r2, #3
   216fe:	462b      	mov	r3, r5
   21700:	f7fe fcf0 	bl	200e4 <_ZN9allow_pin12full_dynamic15Buffer$LT$B$GT$5allow17hcdfd34cf7b1c64cdE>
   21704:	07c0      	lsls	r0, r0, #31
   21706:	d107      	bne.n	21718 <_ZN20complex_full_dynamic3app17h49ee9b92dcc45781E+0x60>
   21708:	4812      	ldr	r0, [pc, #72]	@ (21754 <_ZN20complex_full_dynamic3app17h49ee9b92dcc45781E+0x9c>)
   2170a:	2104      	movs	r1, #4
   2170c:	2202      	movs	r2, #2
   2170e:	2600      	movs	r6, #0
   21710:	4633      	mov	r3, r6
   21712:	df02      	svc	2
   21714:	287f      	cmp	r0, #127	@ 0x7f
   21716:	d80b      	bhi.n	21730 <_ZN20complex_full_dynamic3app17h49ee9b92dcc45781E+0x78>
   21718:	9c03      	ldr	r4, [sp, #12]
   2171a:	6061      	str	r1, [r4, #4]
   2171c:	2601      	movs	r6, #1
   2171e:	7026      	strb	r6, [r4, #0]
   21720:	a815      	add	r0, sp, #84	@ 0x54
   21722:	f005 f8f9 	bl	26918 <_ZN9allow_pin12full_dynamic17unshare_if_shared17h2809d14697b066c7E>
   21726:	a804      	add	r0, sp, #16
   21728:	f005 f8f6 	bl	26918 <_ZN9allow_pin12full_dynamic17unshare_if_shared17h2809d14697b066c7E>
   2172c:	b025      	add	sp, #148	@ 0x94
   2172e:	bdf0      	pop	{r4, r5, r6, r7, pc}
   21730:	a804      	add	r0, sp, #16
   21732:	f005 f8f1 	bl	26918 <_ZN9allow_pin12full_dynamic17unshare_if_shared17h2809d14697b066c7E>
   21736:	ac15      	add	r4, sp, #84	@ 0x54
   21738:	4620      	mov	r0, r4
   2173a:	f005 f8ed 	bl	26918 <_ZN9allow_pin12full_dynamic17unshare_if_shared17h2809d14697b066c7E>
   2173e:	4620      	mov	r0, r4
   21740:	f005 f8ea 	bl	26918 <_ZN9allow_pin12full_dynamic17unshare_if_shared17h2809d14697b066c7E>
   21744:	9c03      	ldr	r4, [sp, #12]
   21746:	1c60      	adds	r0, r4, #1
   21748:	2234      	movs	r2, #52	@ 0x34
   2174a:	9901      	ldr	r1, [sp, #4]
   2174c:	f005 faa5 	bl	26c9a <__aeabi_memcpy>
   21750:	e7e5      	b.n	2171e <_ZN20complex_full_dynamic3app17h49ee9b92dcc45781E+0x66>
   21752:	46c0      	nop			@ (mov r8, r8)
   21754:	000023c6 	.word	0x000023c6

00021758 <_ZN20complex_full_dynamic3app17h4f7d0324881f9980E>:
   21758:	b5f0      	push	{r4, r5, r6, r7, lr}
   2175a:	af03      	add	r7, sp, #12
   2175c:	b0a1      	sub	sp, #132	@ 0x84
   2175e:	9004      	str	r0, [sp, #16]
   21760:	ae05      	add	r6, sp, #20
   21762:	2502      	movs	r5, #2
   21764:	7235      	strb	r5, [r6, #8]
   21766:	4630      	mov	r0, r6
   21768:	300c      	adds	r0, #12
   2176a:	2248      	movs	r2, #72	@ 0x48
   2176c:	9203      	str	r2, [sp, #12]
   2176e:	f005 fa94 	bl	26c9a <__aeabi_memcpy>
   21772:	ac1a      	add	r4, sp, #104	@ 0x68
   21774:	4620      	mov	r0, r4
   21776:	300c      	adds	r0, #12
   21778:	210f      	movs	r1, #15
   2177a:	9002      	str	r0, [sp, #8]
   2177c:	f005 f8e0 	bl	26940 <__aeabi_memclr4>
   21780:	7225      	strb	r5, [r4, #8]
   21782:	2008      	movs	r0, #8
   21784:	9000      	str	r0, [sp, #0]
   21786:	2204      	movs	r2, #4
   21788:	4c1b      	ldr	r4, [pc, #108]	@ (217f8 <_ZN20complex_full_dynamic3app17h4f7d0324881f9980E+0xa0>)
   2178a:	4630      	mov	r0, r6
   2178c:	9903      	ldr	r1, [sp, #12]
   2178e:	4623      	mov	r3, r4
   21790:	f7fe fca8 	bl	200e4 <_ZN9allow_pin12full_dynamic15Buffer$LT$B$GT$5allow17hcdfd34cf7b1c64cdE>
   21794:	07c0      	lsls	r0, r0, #31
   21796:	d111      	bne.n	217bc <_ZN20complex_full_dynamic3app17h4f7d0324881f9980E+0x64>
   21798:	2009      	movs	r0, #9
   2179a:	9000      	str	r0, [sp, #0]
   2179c:	a81a      	add	r0, sp, #104	@ 0x68
   2179e:	210f      	movs	r1, #15
   217a0:	2203      	movs	r2, #3
   217a2:	4623      	mov	r3, r4
   217a4:	f7fe fc9e 	bl	200e4 <_ZN9allow_pin12full_dynamic15Buffer$LT$B$GT$5allow17hcdfd34cf7b1c64cdE>
   217a8:	07c0      	lsls	r0, r0, #31
   217aa:	d107      	bne.n	217bc <_ZN20complex_full_dynamic3app17h4f7d0324881f9980E+0x64>
   217ac:	4812      	ldr	r0, [pc, #72]	@ (217f8 <_ZN20complex_full_dynamic3app17h4f7d0324881f9980E+0xa0>)
   217ae:	2108      	movs	r1, #8
   217b0:	2209      	movs	r2, #9
   217b2:	2600      	movs	r6, #0
   217b4:	4633      	mov	r3, r6
   217b6:	df02      	svc	2
   217b8:	287f      	cmp	r0, #127	@ 0x7f
   217ba:	d80b      	bhi.n	217d4 <_ZN20complex_full_dynamic3app17h4f7d0324881f9980E+0x7c>
   217bc:	9c04      	ldr	r4, [sp, #16]
   217be:	6061      	str	r1, [r4, #4]
   217c0:	2601      	movs	r6, #1
   217c2:	7026      	strb	r6, [r4, #0]
   217c4:	a81a      	add	r0, sp, #104	@ 0x68
   217c6:	f005 f8a7 	bl	26918 <_ZN9allow_pin12full_dynamic17unshare_if_shared17h2809d14697b066c7E>
   217ca:	a805      	add	r0, sp, #20
   217cc:	f005 f8a4 	bl	26918 <_ZN9allow_pin12full_dynamic17unshare_if_shared17h2809d14697b066c7E>
   217d0:	b021      	add	sp, #132	@ 0x84
   217d2:	bdf0      	pop	{r4, r5, r6, r7, pc}
   217d4:	a805      	add	r0, sp, #20
   217d6:	f005 f89f 	bl	26918 <_ZN9allow_pin12full_dynamic17unshare_if_shared17h2809d14697b066c7E>
   217da:	ac1a      	add	r4, sp, #104	@ 0x68
   217dc:	4620      	mov	r0, r4
   217de:	f005 f89b 	bl	26918 <_ZN9allow_pin12full_dynamic17unshare_if_shared17h2809d14697b066c7E>
   217e2:	4620      	mov	r0, r4
   217e4:	f005 f898 	bl	26918 <_ZN9allow_pin12full_dynamic17unshare_if_shared17h2809d14697b066c7E>
   217e8:	9c04      	ldr	r4, [sp, #16]
   217ea:	1c60      	adds	r0, r4, #1
   217ec:	220f      	movs	r2, #15
   217ee:	9902      	ldr	r1, [sp, #8]
   217f0:	f005 fa53 	bl	26c9a <__aeabi_memcpy>
   217f4:	e7e5      	b.n	217c2 <_ZN20complex_full_dynamic3app17h4f7d0324881f9980E+0x6a>
   217f6:	46c0      	nop			@ (mov r8, r8)
   217f8:	0000111d 	.word	0x0000111d

000217fc <_ZN20complex_full_dynamic3app17h54a9223e1406630dE>:
   217fc:	b5f0      	push	{r4, r5, r6, r7, lr}
   217fe:	af03      	add	r7, sp, #12
   21800:	b0b3      	sub	sp, #204	@ 0xcc
   21802:	9004      	str	r0, [sp, #16]
   21804:	ae05      	add	r6, sp, #20
   21806:	2502      	movs	r5, #2
   21808:	7235      	strb	r5, [r6, #8]
   2180a:	4630      	mov	r0, r6
   2180c:	300c      	adds	r0, #12
   2180e:	2246      	movs	r2, #70	@ 0x46
   21810:	9203      	str	r2, [sp, #12]
   21812:	f005 fa42 	bl	26c9a <__aeabi_memcpy>
   21816:	ac1a      	add	r4, sp, #104	@ 0x68
   21818:	4620      	mov	r0, r4
   2181a:	300c      	adds	r0, #12
   2181c:	2156      	movs	r1, #86	@ 0x56
   2181e:	9002      	str	r0, [sp, #8]
   21820:	f005 f88e 	bl	26940 <__aeabi_memclr4>
   21824:	7225      	strb	r5, [r4, #8]
   21826:	2007      	movs	r0, #7
   21828:	9000      	str	r0, [sp, #0]
   2182a:	2204      	movs	r2, #4
   2182c:	4c1a      	ldr	r4, [pc, #104]	@ (21898 <_ZN20complex_full_dynamic3app17h54a9223e1406630dE+0x9c>)
   2182e:	4630      	mov	r0, r6
   21830:	9903      	ldr	r1, [sp, #12]
   21832:	4623      	mov	r3, r4
   21834:	f7fe fc56 	bl	200e4 <_ZN9allow_pin12full_dynamic15Buffer$LT$B$GT$5allow17hcdfd34cf7b1c64cdE>
   21838:	07c0      	lsls	r0, r0, #31
   2183a:	d110      	bne.n	2185e <_ZN20complex_full_dynamic3app17h54a9223e1406630dE+0x62>
   2183c:	2203      	movs	r2, #3
   2183e:	9200      	str	r2, [sp, #0]
   21840:	a81a      	add	r0, sp, #104	@ 0x68
   21842:	2156      	movs	r1, #86	@ 0x56
   21844:	4623      	mov	r3, r4
   21846:	f7fe fc4d 	bl	200e4 <_ZN9allow_pin12full_dynamic15Buffer$LT$B$GT$5allow17hcdfd34cf7b1c64cdE>
   2184a:	07c0      	lsls	r0, r0, #31
   2184c:	d107      	bne.n	2185e <_ZN20complex_full_dynamic3app17h54a9223e1406630dE+0x62>
   2184e:	4812      	ldr	r0, [pc, #72]	@ (21898 <_ZN20complex_full_dynamic3app17h54a9223e1406630dE+0x9c>)
   21850:	2107      	movs	r1, #7
   21852:	2203      	movs	r2, #3
   21854:	2600      	movs	r6, #0
   21856:	4633      	mov	r3, r6
   21858:	df02      	svc	2
   2185a:	287f      	cmp	r0, #127	@ 0x7f
   2185c:	d80b      	bhi.n	21876 <_ZN20complex_full_dynamic3app17h54a9223e1406630dE+0x7a>
   2185e:	9c04      	ldr	r4, [sp, #16]
   21860:	6061      	str	r1, [r4, #4]
   21862:	2601      	movs	r6, #1
   21864:	7026      	strb	r6, [r4, #0]
   21866:	a81a      	add	r0, sp, #104	@ 0x68
   21868:	f005 f856 	bl	26918 <_ZN9allow_pin12full_dynamic17unshare_if_shared17h2809d14697b066c7E>
   2186c:	a805      	add	r0, sp, #20
   2186e:	f005 f853 	bl	26918 <_ZN9allow_pin12full_dynamic17unshare_if_shared17h2809d14697b066c7E>
   21872:	b033      	add	sp, #204	@ 0xcc
   21874:	bdf0      	pop	{r4, r5, r6, r7, pc}
   21876:	a805      	add	r0, sp, #20
   21878:	f005 f84e 	bl	26918 <_ZN9allow_pin12full_dynamic17unshare_if_shared17h2809d14697b066c7E>
   2187c:	ac1a      	add	r4, sp, #104	@ 0x68
   2187e:	4620      	mov	r0, r4
   21880:	f005 f84a 	bl	26918 <_ZN9allow_pin12full_dynamic17unshare_if_shared17h2809d14697b066c7E>
   21884:	4620      	mov	r0, r4
   21886:	f005 f847 	bl	26918 <_ZN9allow_pin12full_dynamic17unshare_if_shared17h2809d14697b066c7E>
   2188a:	9c04      	ldr	r4, [sp, #16]
   2188c:	1c60      	adds	r0, r4, #1
   2188e:	2256      	movs	r2, #86	@ 0x56
   21890:	9902      	ldr	r1, [sp, #8]
   21892:	f005 fa02 	bl	26c9a <__aeabi_memcpy>
   21896:	e7e5      	b.n	21864 <_ZN20complex_full_dynamic3app17h54a9223e1406630dE+0x68>
   21898:	00001e50 	.word	0x00001e50

0002189c <_ZN20complex_full_dynamic3app17h581710c1246e979bE>:
   2189c:	b5f0      	push	{r4, r5, r6, r7, lr}
   2189e:	af03      	add	r7, sp, #12
   218a0:	b09f      	sub	sp, #124	@ 0x7c
   218a2:	9004      	str	r0, [sp, #16]
   218a4:	ae05      	add	r6, sp, #20
   218a6:	2502      	movs	r5, #2
   218a8:	7235      	strb	r5, [r6, #8]
   218aa:	4630      	mov	r0, r6
   218ac:	300c      	adds	r0, #12
   218ae:	2218      	movs	r2, #24
   218b0:	9203      	str	r2, [sp, #12]
   218b2:	f005 f9f2 	bl	26c9a <__aeabi_memcpy>
   218b6:	ac0e      	add	r4, sp, #56	@ 0x38
   218b8:	4620      	mov	r0, r4
   218ba:	300c      	adds	r0, #12
   218bc:	2136      	movs	r1, #54	@ 0x36
   218be:	9002      	str	r0, [sp, #8]
   218c0:	f005 f83e 	bl	26940 <__aeabi_memclr4>
   218c4:	7225      	strb	r5, [r4, #8]
   218c6:	2008      	movs	r0, #8
   218c8:	9000      	str	r0, [sp, #0]
   218ca:	2504      	movs	r5, #4
   218cc:	23f3      	movs	r3, #243	@ 0xf3
   218ce:	4630      	mov	r0, r6
   218d0:	9903      	ldr	r1, [sp, #12]
   218d2:	462a      	mov	r2, r5
   218d4:	f7fe fc06 	bl	200e4 <_ZN9allow_pin12full_dynamic15Buffer$LT$B$GT$5allow17hcdfd34cf7b1c64cdE>
   218d8:	07c0      	lsls	r0, r0, #31
   218da:	d110      	bne.n	218fe <_ZN20complex_full_dynamic3app17h581710c1246e979bE+0x62>
   218dc:	9500      	str	r5, [sp, #0]
   218de:	a80e      	add	r0, sp, #56	@ 0x38
   218e0:	2136      	movs	r1, #54	@ 0x36
   218e2:	2203      	movs	r2, #3
   218e4:	23f3      	movs	r3, #243	@ 0xf3
   218e6:	f7fe fbfd 	bl	200e4 <_ZN9allow_pin12full_dynamic15Buffer$LT$B$GT$5allow17hcdfd34cf7b1c64cdE>
   218ea:	07c0      	lsls	r0, r0, #31
   218ec:	d107      	bne.n	218fe <_ZN20complex_full_dynamic3app17h581710c1246e979bE+0x62>
   218ee:	20f3      	movs	r0, #243	@ 0xf3
   218f0:	2108      	movs	r1, #8
   218f2:	2204      	movs	r2, #4
   218f4:	2600      	movs	r6, #0
   218f6:	4633      	mov	r3, r6
   218f8:	df02      	svc	2
   218fa:	287f      	cmp	r0, #127	@ 0x7f
   218fc:	d80b      	bhi.n	21916 <_ZN20complex_full_dynamic3app17h581710c1246e979bE+0x7a>
   218fe:	9c04      	ldr	r4, [sp, #16]
   21900:	6061      	str	r1, [r4, #4]
   21902:	2601      	movs	r6, #1
   21904:	7026      	strb	r6, [r4, #0]
   21906:	a80e      	add	r0, sp, #56	@ 0x38
   21908:	f005 f806 	bl	26918 <_ZN9allow_pin12full_dynamic17unshare_if_shared17h2809d14697b066c7E>
   2190c:	a805      	add	r0, sp, #20
   2190e:	f005 f803 	bl	26918 <_ZN9allow_pin12full_dynamic17unshare_if_shared17h2809d14697b066c7E>
   21912:	b01f      	add	sp, #124	@ 0x7c
   21914:	bdf0      	pop	{r4, r5, r6, r7, pc}
   21916:	a805      	add	r0, sp, #20
   21918:	f004 fffe 	bl	26918 <_ZN9allow_pin12full_dynamic17unshare_if_shared17h2809d14697b066c7E>
   2191c:	ac0e      	add	r4, sp, #56	@ 0x38
   2191e:	4620      	mov	r0, r4
   21920:	f004 fffa 	bl	26918 <_ZN9allow_pin12full_dynamic17unshare_if_shared17h2809d14697b066c7E>
   21924:	4620      	mov	r0, r4
   21926:	f004 fff7 	bl	26918 <_ZN9allow_pin12full_dynamic17unshare_if_shared17h2809d14697b066c7E>
   2192a:	9c04      	ldr	r4, [sp, #16]
   2192c:	1c60      	adds	r0, r4, #1
   2192e:	2236      	movs	r2, #54	@ 0x36
   21930:	9902      	ldr	r1, [sp, #8]
   21932:	f005 f9b2 	bl	26c9a <__aeabi_memcpy>
   21936:	e7e5      	b.n	21904 <_ZN20complex_full_dynamic3app17h581710c1246e979bE+0x68>

00021938 <_ZN20complex_full_dynamic3app17h58c0bdb196fd44c4E>:
   21938:	b5f0      	push	{r4, r5, r6, r7, lr}
   2193a:	af03      	add	r7, sp, #12
   2193c:	b09f      	sub	sp, #124	@ 0x7c
   2193e:	9003      	str	r0, [sp, #12]
   21940:	ae04      	add	r6, sp, #16
   21942:	2502      	movs	r5, #2
   21944:	7235      	strb	r5, [r6, #8]
   21946:	4630      	mov	r0, r6
   21948:	300c      	adds	r0, #12
   2194a:	2224      	movs	r2, #36	@ 0x24
   2194c:	9202      	str	r2, [sp, #8]
   2194e:	f005 f9a4 	bl	26c9a <__aeabi_memcpy>
   21952:	ac10      	add	r4, sp, #64	@ 0x40
   21954:	4620      	mov	r0, r4
   21956:	300c      	adds	r0, #12
   21958:	212f      	movs	r1, #47	@ 0x2f
   2195a:	9001      	str	r0, [sp, #4]
   2195c:	f004 fff0 	bl	26940 <__aeabi_memclr4>
   21960:	7225      	strb	r5, [r4, #8]
   21962:	2006      	movs	r0, #6
   21964:	9000      	str	r0, [sp, #0]
   21966:	2204      	movs	r2, #4
   21968:	4c1b      	ldr	r4, [pc, #108]	@ (219d8 <_ZN20complex_full_dynamic3app17h58c0bdb196fd44c4E+0xa0>)
   2196a:	4630      	mov	r0, r6
   2196c:	9902      	ldr	r1, [sp, #8]
   2196e:	4623      	mov	r3, r4
   21970:	f7fe fbb8 	bl	200e4 <_ZN9allow_pin12full_dynamic15Buffer$LT$B$GT$5allow17hcdfd34cf7b1c64cdE>
   21974:	07c0      	lsls	r0, r0, #31
   21976:	d111      	bne.n	2199c <_ZN20complex_full_dynamic3app17h58c0bdb196fd44c4E+0x64>
   21978:	2009      	movs	r0, #9
   2197a:	9000      	str	r0, [sp, #0]
   2197c:	a810      	add	r0, sp, #64	@ 0x40
   2197e:	212f      	movs	r1, #47	@ 0x2f
   21980:	2203      	movs	r2, #3
   21982:	4623      	mov	r3, r4
   21984:	f7fe fbae 	bl	200e4 <_ZN9allow_pin12full_dynamic15Buffer$LT$B$GT$5allow17hcdfd34cf7b1c64cdE>
   21988:	07c0      	lsls	r0, r0, #31
   2198a:	d107      	bne.n	2199c <_ZN20complex_full_dynamic3app17h58c0bdb196fd44c4E+0x64>
   2198c:	4812      	ldr	r0, [pc, #72]	@ (219d8 <_ZN20complex_full_dynamic3app17h58c0bdb196fd44c4E+0xa0>)
   2198e:	2106      	movs	r1, #6
   21990:	2209      	movs	r2, #9
   21992:	2600      	movs	r6, #0
   21994:	4633      	mov	r3, r6
   21996:	df02      	svc	2
   21998:	287f      	cmp	r0, #127	@ 0x7f
   2199a:	d80b      	bhi.n	219b4 <_ZN20complex_full_dynamic3app17h58c0bdb196fd44c4E+0x7c>
   2199c:	9c03      	ldr	r4, [sp, #12]
   2199e:	6061      	str	r1, [r4, #4]
   219a0:	2601      	movs	r6, #1
   219a2:	7026      	strb	r6, [r4, #0]
   219a4:	a810      	add	r0, sp, #64	@ 0x40
   219a6:	f004 ffb7 	bl	26918 <_ZN9allow_pin12full_dynamic17unshare_if_shared17h2809d14697b066c7E>
   219aa:	a804      	add	r0, sp, #16
   219ac:	f004 ffb4 	bl	26918 <_ZN9allow_pin12full_dynamic17unshare_if_shared17h2809d14697b066c7E>
   219b0:	b01f      	add	sp, #124	@ 0x7c
   219b2:	bdf0      	pop	{r4, r5, r6, r7, pc}
   219b4:	a804      	add	r0, sp, #16
   219b6:	f004 ffaf 	bl	26918 <_ZN9allow_pin12full_dynamic17unshare_if_shared17h2809d14697b066c7E>
   219ba:	ac10      	add	r4, sp, #64	@ 0x40
   219bc:	4620      	mov	r0, r4
   219be:	f004 ffab 	bl	26918 <_ZN9allow_pin12full_dynamic17unshare_if_shared17h2809d14697b066c7E>
   219c2:	4620      	mov	r0, r4
   219c4:	f004 ffa8 	bl	26918 <_ZN9allow_pin12full_dynamic17unshare_if_shared17h2809d14697b066c7E>
   219c8:	9c03      	ldr	r4, [sp, #12]
   219ca:	1c60      	adds	r0, r4, #1
   219cc:	222f      	movs	r2, #47	@ 0x2f
   219ce:	9901      	ldr	r1, [sp, #4]
   219d0:	f005 f963 	bl	26c9a <__aeabi_memcpy>
   219d4:	e7e5      	b.n	219a2 <_ZN20complex_full_dynamic3app17h58c0bdb196fd44c4E+0x6a>
   219d6:	46c0      	nop			@ (mov r8, r8)
   219d8:	00001273 	.word	0x00001273

000219dc <_ZN20complex_full_dynamic3app17h5b2a1010a31456b5E>:
   219dc:	b5f0      	push	{r4, r5, r6, r7, lr}
   219de:	af03      	add	r7, sp, #12
   219e0:	b0a7      	sub	sp, #156	@ 0x9c
   219e2:	9004      	str	r0, [sp, #16]
   219e4:	ae05      	add	r6, sp, #20
   219e6:	2502      	movs	r5, #2
   219e8:	7235      	strb	r5, [r6, #8]
   219ea:	4630      	mov	r0, r6
   219ec:	300c      	adds	r0, #12
   219ee:	223c      	movs	r2, #60	@ 0x3c
   219f0:	9203      	str	r2, [sp, #12]
   219f2:	f005 f952 	bl	26c9a <__aeabi_memcpy>
   219f6:	ac17      	add	r4, sp, #92	@ 0x5c
   219f8:	4620      	mov	r0, r4
   219fa:	300c      	adds	r0, #12
   219fc:	2132      	movs	r1, #50	@ 0x32
   219fe:	9002      	str	r0, [sp, #8]
   21a00:	f004 ff9e 	bl	26940 <__aeabi_memclr4>
   21a04:	7225      	strb	r5, [r4, #8]
   21a06:	2006      	movs	r0, #6
   21a08:	9000      	str	r0, [sp, #0]
   21a0a:	2204      	movs	r2, #4
   21a0c:	4c1b      	ldr	r4, [pc, #108]	@ (21a7c <_ZN20complex_full_dynamic3app17h5b2a1010a31456b5E+0xa0>)
   21a0e:	4630      	mov	r0, r6
   21a10:	9903      	ldr	r1, [sp, #12]
   21a12:	4623      	mov	r3, r4
   21a14:	f7fe fb66 	bl	200e4 <_ZN9allow_pin12full_dynamic15Buffer$LT$B$GT$5allow17hcdfd34cf7b1c64cdE>
   21a18:	07c0      	lsls	r0, r0, #31
   21a1a:	d111      	bne.n	21a40 <_ZN20complex_full_dynamic3app17h5b2a1010a31456b5E+0x64>
   21a1c:	2008      	movs	r0, #8
   21a1e:	9000      	str	r0, [sp, #0]
   21a20:	a817      	add	r0, sp, #92	@ 0x5c
   21a22:	2132      	movs	r1, #50	@ 0x32
   21a24:	2203      	movs	r2, #3
   21a26:	4623      	mov	r3, r4
   21a28:	f7fe fb5c 	bl	200e4 <_ZN9allow_pin12full_dynamic15Buffer$LT$B$GT$5allow17hcdfd34cf7b1c64cdE>
   21a2c:	07c0      	lsls	r0, r0, #31
   21a2e:	d107      	bne.n	21a40 <_ZN20complex_full_dynamic3app17h5b2a1010a31456b5E+0x64>
   21a30:	4812      	ldr	r0, [pc, #72]	@ (21a7c <_ZN20complex_full_dynamic3app17h5b2a1010a31456b5E+0xa0>)
   21a32:	2106      	movs	r1, #6
   21a34:	2208      	movs	r2, #8
   21a36:	2600      	movs	r6, #0
   21a38:	4633      	mov	r3, r6
   21a3a:	df02      	svc	2
   21a3c:	287f      	cmp	r0, #127	@ 0x7f
   21a3e:	d80b      	bhi.n	21a58 <_ZN20complex_full_dynamic3app17h5b2a1010a31456b5E+0x7c>
   21a40:	9c04      	ldr	r4, [sp, #16]
   21a42:	6061      	str	r1, [r4, #4]
   21a44:	2601      	movs	r6, #1
   21a46:	7026      	strb	r6, [r4, #0]
   21a48:	a817      	add	r0, sp, #92	@ 0x5c
   21a4a:	f004 ff65 	bl	26918 <_ZN9allow_pin12full_dynamic17unshare_if_shared17h2809d14697b066c7E>
   21a4e:	a805      	add	r0, sp, #20
   21a50:	f004 ff62 	bl	26918 <_ZN9allow_pin12full_dynamic17unshare_if_shared17h2809d14697b066c7E>
   21a54:	b027      	add	sp, #156	@ 0x9c
   21a56:	bdf0      	pop	{r4, r5, r6, r7, pc}
   21a58:	a805      	add	r0, sp, #20
   21a5a:	f004 ff5d 	bl	26918 <_ZN9allow_pin12full_dynamic17unshare_if_shared17h2809d14697b066c7E>
   21a5e:	ac17      	add	r4, sp, #92	@ 0x5c
   21a60:	4620      	mov	r0, r4
   21a62:	f004 ff59 	bl	26918 <_ZN9allow_pin12full_dynamic17unshare_if_shared17h2809d14697b066c7E>
   21a66:	4620      	mov	r0, r4
   21a68:	f004 ff56 	bl	26918 <_ZN9allow_pin12full_dynamic17unshare_if_shared17h2809d14697b066c7E>
   21a6c:	9c04      	ldr	r4, [sp, #16]
   21a6e:	1c60      	adds	r0, r4, #1
   21a70:	2232      	movs	r2, #50	@ 0x32
   21a72:	9902      	ldr	r1, [sp, #8]
   21a74:	f005 f911 	bl	26c9a <__aeabi_memcpy>
   21a78:	e7e5      	b.n	21a46 <_ZN20complex_full_dynamic3app17h5b2a1010a31456b5E+0x6a>
   21a7a:	46c0      	nop			@ (mov r8, r8)
   21a7c:	00001b1e 	.word	0x00001b1e

00021a80 <_ZN20complex_full_dynamic3app17h5d1749a3f24151b8E>:
   21a80:	b5f0      	push	{r4, r5, r6, r7, lr}
   21a82:	af03      	add	r7, sp, #12
   21a84:	b0a5      	sub	sp, #148	@ 0x94
   21a86:	9004      	str	r0, [sp, #16]
   21a88:	ae05      	add	r6, sp, #20
   21a8a:	2502      	movs	r5, #2
   21a8c:	7235      	strb	r5, [r6, #8]
   21a8e:	4630      	mov	r0, r6
   21a90:	300c      	adds	r0, #12
   21a92:	223c      	movs	r2, #60	@ 0x3c
   21a94:	9203      	str	r2, [sp, #12]
   21a96:	f005 f900 	bl	26c9a <__aeabi_memcpy>
   21a9a:	ac17      	add	r4, sp, #92	@ 0x5c
   21a9c:	4620      	mov	r0, r4
   21a9e:	300c      	adds	r0, #12
   21aa0:	212c      	movs	r1, #44	@ 0x2c
   21aa2:	9002      	str	r0, [sp, #8]
   21aa4:	f004 ff4c 	bl	26940 <__aeabi_memclr4>
   21aa8:	7225      	strb	r5, [r4, #8]
   21aaa:	2005      	movs	r0, #5
   21aac:	9000      	str	r0, [sp, #0]
   21aae:	2204      	movs	r2, #4
   21ab0:	4c1b      	ldr	r4, [pc, #108]	@ (21b20 <_ZN20complex_full_dynamic3app17h5d1749a3f24151b8E+0xa0>)
   21ab2:	4630      	mov	r0, r6
   21ab4:	9903      	ldr	r1, [sp, #12]
   21ab6:	4623      	mov	r3, r4
   21ab8:	f7fe fb14 	bl	200e4 <_ZN9allow_pin12full_dynamic15Buffer$LT$B$GT$5allow17hcdfd34cf7b1c64cdE>
   21abc:	07c0      	lsls	r0, r0, #31
   21abe:	d111      	bne.n	21ae4 <_ZN20complex_full_dynamic3app17h5d1749a3f24151b8E+0x64>
   21ac0:	2007      	movs	r0, #7
   21ac2:	9000      	str	r0, [sp, #0]
   21ac4:	a817      	add	r0, sp, #92	@ 0x5c
   21ac6:	212c      	movs	r1, #44	@ 0x2c
   21ac8:	2203      	movs	r2, #3
   21aca:	4623      	mov	r3, r4
   21acc:	f7fe fb0a 	bl	200e4 <_ZN9allow_pin12full_dynamic15Buffer$LT$B$GT$5allow17hcdfd34cf7b1c64cdE>
   21ad0:	07c0      	lsls	r0, r0, #31
   21ad2:	d107      	bne.n	21ae4 <_ZN20complex_full_dynamic3app17h5d1749a3f24151b8E+0x64>
   21ad4:	4812      	ldr	r0, [pc, #72]	@ (21b20 <_ZN20complex_full_dynamic3app17h5d1749a3f24151b8E+0xa0>)
   21ad6:	2105      	movs	r1, #5
   21ad8:	2207      	movs	r2, #7
   21ada:	2600      	movs	r6, #0
   21adc:	4633      	mov	r3, r6
   21ade:	df02      	svc	2
   21ae0:	287f      	cmp	r0, #127	@ 0x7f
   21ae2:	d80b      	bhi.n	21afc <_ZN20complex_full_dynamic3app17h5d1749a3f24151b8E+0x7c>
   21ae4:	9c04      	ldr	r4, [sp, #16]
   21ae6:	6061      	str	r1, [r4, #4]
   21ae8:	2601      	movs	r6, #1
   21aea:	7026      	strb	r6, [r4, #0]
   21aec:	a817      	add	r0, sp, #92	@ 0x5c
   21aee:	f004 ff13 	bl	26918 <_ZN9allow_pin12full_dynamic17unshare_if_shared17h2809d14697b066c7E>
   21af2:	a805      	add	r0, sp, #20
   21af4:	f004 ff10 	bl	26918 <_ZN9allow_pin12full_dynamic17unshare_if_shared17h2809d14697b066c7E>
   21af8:	b025      	add	sp, #148	@ 0x94
   21afa:	bdf0      	pop	{r4, r5, r6, r7, pc}
   21afc:	a805      	add	r0, sp, #20
   21afe:	f004 ff0b 	bl	26918 <_ZN9allow_pin12full_dynamic17unshare_if_shared17h2809d14697b066c7E>
   21b02:	ac17      	add	r4, sp, #92	@ 0x5c
   21b04:	4620      	mov	r0, r4
   21b06:	f004 ff07 	bl	26918 <_ZN9allow_pin12full_dynamic17unshare_if_shared17h2809d14697b066c7E>
   21b0a:	4620      	mov	r0, r4
   21b0c:	f004 ff04 	bl	26918 <_ZN9allow_pin12full_dynamic17unshare_if_shared17h2809d14697b066c7E>
   21b10:	9c04      	ldr	r4, [sp, #16]
   21b12:	1c60      	adds	r0, r4, #1
   21b14:	222c      	movs	r2, #44	@ 0x2c
   21b16:	9902      	ldr	r1, [sp, #8]
   21b18:	f005 f8bf 	bl	26c9a <__aeabi_memcpy>
   21b1c:	e7e5      	b.n	21aea <_ZN20complex_full_dynamic3app17h5d1749a3f24151b8E+0x6a>
   21b1e:	46c0      	nop			@ (mov r8, r8)
   21b20:	00001eac 	.word	0x00001eac

00021b24 <_ZN20complex_full_dynamic3app17h5f59f806c5c47e20E>:
   21b24:	b5f0      	push	{r4, r5, r6, r7, lr}
   21b26:	af03      	add	r7, sp, #12
   21b28:	b0a9      	sub	sp, #164	@ 0xa4
   21b2a:	9004      	str	r0, [sp, #16]
   21b2c:	ae05      	add	r6, sp, #20
   21b2e:	2502      	movs	r5, #2
   21b30:	7235      	strb	r5, [r6, #8]
   21b32:	4630      	mov	r0, r6
   21b34:	300c      	adds	r0, #12
   21b36:	2235      	movs	r2, #53	@ 0x35
   21b38:	9203      	str	r2, [sp, #12]
   21b3a:	f005 f8ae 	bl	26c9a <__aeabi_memcpy>
   21b3e:	ac16      	add	r4, sp, #88	@ 0x58
   21b40:	4620      	mov	r0, r4
   21b42:	300c      	adds	r0, #12
   21b44:	213f      	movs	r1, #63	@ 0x3f
   21b46:	9002      	str	r0, [sp, #8]
   21b48:	f004 fefa 	bl	26940 <__aeabi_memclr4>
   21b4c:	7225      	strb	r5, [r4, #8]
   21b4e:	2000      	movs	r0, #0
   21b50:	9000      	str	r0, [sp, #0]
   21b52:	2204      	movs	r2, #4
   21b54:	4c1a      	ldr	r4, [pc, #104]	@ (21bc0 <_ZN20complex_full_dynamic3app17h5f59f806c5c47e20E+0x9c>)
   21b56:	4630      	mov	r0, r6
   21b58:	9903      	ldr	r1, [sp, #12]
   21b5a:	4623      	mov	r3, r4
   21b5c:	f7fe fac2 	bl	200e4 <_ZN9allow_pin12full_dynamic15Buffer$LT$B$GT$5allow17hcdfd34cf7b1c64cdE>
   21b60:	07c0      	lsls	r0, r0, #31
   21b62:	d110      	bne.n	21b86 <_ZN20complex_full_dynamic3app17h5f59f806c5c47e20E+0x62>
   21b64:	2203      	movs	r2, #3
   21b66:	9200      	str	r2, [sp, #0]
   21b68:	a816      	add	r0, sp, #88	@ 0x58
   21b6a:	213f      	movs	r1, #63	@ 0x3f
   21b6c:	4623      	mov	r3, r4
   21b6e:	f7fe fab9 	bl	200e4 <_ZN9allow_pin12full_dynamic15Buffer$LT$B$GT$5allow17hcdfd34cf7b1c64cdE>
   21b72:	07c0      	lsls	r0, r0, #31
   21b74:	d107      	bne.n	21b86 <_ZN20complex_full_dynamic3app17h5f59f806c5c47e20E+0x62>
   21b76:	4812      	ldr	r0, [pc, #72]	@ (21bc0 <_ZN20complex_full_dynamic3app17h5f59f806c5c47e20E+0x9c>)
   21b78:	2203      	movs	r2, #3
   21b7a:	2600      	movs	r6, #0
   21b7c:	4631      	mov	r1, r6
   21b7e:	4633      	mov	r3, r6
   21b80:	df02      	svc	2
   21b82:	287f      	cmp	r0, #127	@ 0x7f
   21b84:	d80b      	bhi.n	21b9e <_ZN20complex_full_dynamic3app17h5f59f806c5c47e20E+0x7a>
   21b86:	9c04      	ldr	r4, [sp, #16]
   21b88:	6061      	str	r1, [r4, #4]
   21b8a:	2601      	movs	r6, #1
   21b8c:	7026      	strb	r6, [r4, #0]
   21b8e:	a816      	add	r0, sp, #88	@ 0x58
   21b90:	f004 fec2 	bl	26918 <_ZN9allow_pin12full_dynamic17unshare_if_shared17h2809d14697b066c7E>
   21b94:	a805      	add	r0, sp, #20
   21b96:	f004 febf 	bl	26918 <_ZN9allow_pin12full_dynamic17unshare_if_shared17h2809d14697b066c7E>
   21b9a:	b029      	add	sp, #164	@ 0xa4
   21b9c:	bdf0      	pop	{r4, r5, r6, r7, pc}
   21b9e:	a805      	add	r0, sp, #20
   21ba0:	f004 feba 	bl	26918 <_ZN9allow_pin12full_dynamic17unshare_if_shared17h2809d14697b066c7E>
   21ba4:	ac16      	add	r4, sp, #88	@ 0x58
   21ba6:	4620      	mov	r0, r4
   21ba8:	f004 feb6 	bl	26918 <_ZN9allow_pin12full_dynamic17unshare_if_shared17h2809d14697b066c7E>
   21bac:	4620      	mov	r0, r4
   21bae:	f004 feb3 	bl	26918 <_ZN9allow_pin12full_dynamic17unshare_if_shared17h2809d14697b066c7E>
   21bb2:	9c04      	ldr	r4, [sp, #16]
   21bb4:	1c60      	adds	r0, r4, #1
   21bb6:	223f      	movs	r2, #63	@ 0x3f
   21bb8:	9902      	ldr	r1, [sp, #8]
   21bba:	f005 f86e 	bl	26c9a <__aeabi_memcpy>
   21bbe:	e7e5      	b.n	21b8c <_ZN20complex_full_dynamic3app17h5f59f806c5c47e20E+0x68>
   21bc0:	00000e57 	.word	0x00000e57

00021bc4 <_ZN20complex_full_dynamic3app17h6308f73f34261e32E>:
   21bc4:	b5f0      	push	{r4, r5, r6, r7, lr}
   21bc6:	af03      	add	r7, sp, #12
   21bc8:	b0a5      	sub	sp, #148	@ 0x94
   21bca:	9003      	str	r0, [sp, #12]
   21bcc:	ae04      	add	r6, sp, #16
   21bce:	2402      	movs	r4, #2
   21bd0:	7234      	strb	r4, [r6, #8]
   21bd2:	4630      	mov	r0, r6
   21bd4:	300c      	adds	r0, #12
   21bd6:	2238      	movs	r2, #56	@ 0x38
   21bd8:	9202      	str	r2, [sp, #8]
   21bda:	f005 f85e 	bl	26c9a <__aeabi_memcpy>
   21bde:	ad15      	add	r5, sp, #84	@ 0x54
   21be0:	4628      	mov	r0, r5
   21be2:	300c      	adds	r0, #12
   21be4:	2134      	movs	r1, #52	@ 0x34
   21be6:	9001      	str	r0, [sp, #4]
   21be8:	f004 feaa 	bl	26940 <__aeabi_memclr4>
   21bec:	722c      	strb	r4, [r5, #8]
   21bee:	2008      	movs	r0, #8
   21bf0:	9000      	str	r0, [sp, #0]
   21bf2:	2097      	movs	r0, #151	@ 0x97
   21bf4:	0044      	lsls	r4, r0, #1
   21bf6:	2204      	movs	r2, #4
   21bf8:	4630      	mov	r0, r6
   21bfa:	9902      	ldr	r1, [sp, #8]
   21bfc:	4623      	mov	r3, r4
   21bfe:	f7fe fa71 	bl	200e4 <_ZN9allow_pin12full_dynamic15Buffer$LT$B$GT$5allow17hcdfd34cf7b1c64cdE>
   21c02:	07c0      	lsls	r0, r0, #31
   21c04:	d110      	bne.n	21c28 <_ZN20complex_full_dynamic3app17h6308f73f34261e32E+0x64>
   21c06:	2203      	movs	r2, #3
   21c08:	9200      	str	r2, [sp, #0]
   21c0a:	a815      	add	r0, sp, #84	@ 0x54
   21c0c:	2134      	movs	r1, #52	@ 0x34
   21c0e:	4623      	mov	r3, r4
   21c10:	f7fe fa68 	bl	200e4 <_ZN9allow_pin12full_dynamic15Buffer$LT$B$GT$5allow17hcdfd34cf7b1c64cdE>
   21c14:	07c0      	lsls	r0, r0, #31
   21c16:	d107      	bne.n	21c28 <_ZN20complex_full_dynamic3app17h6308f73f34261e32E+0x64>
   21c18:	2108      	movs	r1, #8
   21c1a:	2203      	movs	r2, #3
   21c1c:	2600      	movs	r6, #0
   21c1e:	4620      	mov	r0, r4
   21c20:	4633      	mov	r3, r6
   21c22:	df02      	svc	2
   21c24:	287f      	cmp	r0, #127	@ 0x7f
   21c26:	d80b      	bhi.n	21c40 <_ZN20complex_full_dynamic3app17h6308f73f34261e32E+0x7c>
   21c28:	9c03      	ldr	r4, [sp, #12]
   21c2a:	6061      	str	r1, [r4, #4]
   21c2c:	2601      	movs	r6, #1
   21c2e:	7026      	strb	r6, [r4, #0]
   21c30:	a815      	add	r0, sp, #84	@ 0x54
   21c32:	f004 fe71 	bl	26918 <_ZN9allow_pin12full_dynamic17unshare_if_shared17h2809d14697b066c7E>
   21c36:	a804      	add	r0, sp, #16
   21c38:	f004 fe6e 	bl	26918 <_ZN9allow_pin12full_dynamic17unshare_if_shared17h2809d14697b066c7E>
   21c3c:	b025      	add	sp, #148	@ 0x94
   21c3e:	bdf0      	pop	{r4, r5, r6, r7, pc}
   21c40:	a804      	add	r0, sp, #16
   21c42:	f004 fe69 	bl	26918 <_ZN9allow_pin12full_dynamic17unshare_if_shared17h2809d14697b066c7E>
   21c46:	ac15      	add	r4, sp, #84	@ 0x54
   21c48:	4620      	mov	r0, r4
   21c4a:	f004 fe65 	bl	26918 <_ZN9allow_pin12full_dynamic17unshare_if_shared17h2809d14697b066c7E>
   21c4e:	4620      	mov	r0, r4
   21c50:	f004 fe62 	bl	26918 <_ZN9allow_pin12full_dynamic17unshare_if_shared17h2809d14697b066c7E>
   21c54:	9c03      	ldr	r4, [sp, #12]
   21c56:	1c60      	adds	r0, r4, #1
   21c58:	2234      	movs	r2, #52	@ 0x34
   21c5a:	9901      	ldr	r1, [sp, #4]
   21c5c:	f005 f81d 	bl	26c9a <__aeabi_memcpy>
   21c60:	e7e5      	b.n	21c2e <_ZN20complex_full_dynamic3app17h6308f73f34261e32E+0x6a>
   21c62:	d4d4      	bmi.n	21c0e <_ZN20complex_full_dynamic3app17h6308f73f34261e32E+0x4a>

00021c64 <_ZN20complex_full_dynamic3app17h6b610090bffdadfeE>:
   21c64:	b5f0      	push	{r4, r5, r6, r7, lr}
   21c66:	af03      	add	r7, sp, #12
   21c68:	b0a7      	sub	sp, #156	@ 0x9c
   21c6a:	9005      	str	r0, [sp, #20]
   21c6c:	ae06      	add	r6, sp, #24
   21c6e:	2402      	movs	r4, #2
   21c70:	7234      	strb	r4, [r6, #8]
   21c72:	4630      	mov	r0, r6
   21c74:	300c      	adds	r0, #12
   21c76:	2250      	movs	r2, #80	@ 0x50
   21c78:	9204      	str	r2, [sp, #16]
   21c7a:	f005 f80e 	bl	26c9a <__aeabi_memcpy>
   21c7e:	ad1d      	add	r5, sp, #116	@ 0x74
   21c80:	4628      	mov	r0, r5
   21c82:	300c      	adds	r0, #12
   21c84:	211b      	movs	r1, #27
   21c86:	9002      	str	r0, [sp, #8]
   21c88:	f004 fe5a 	bl	26940 <__aeabi_memclr4>
   21c8c:	9403      	str	r4, [sp, #12]
   21c8e:	722c      	strb	r4, [r5, #8]
   21c90:	2501      	movs	r5, #1
   21c92:	9500      	str	r5, [sp, #0]
   21c94:	2204      	movs	r2, #4
   21c96:	4c1b      	ldr	r4, [pc, #108]	@ (21d04 <_ZN20complex_full_dynamic3app17h6b610090bffdadfeE+0xa0>)
   21c98:	4630      	mov	r0, r6
   21c9a:	9904      	ldr	r1, [sp, #16]
   21c9c:	4623      	mov	r3, r4
   21c9e:	f7fe fa21 	bl	200e4 <_ZN9allow_pin12full_dynamic15Buffer$LT$B$GT$5allow17hcdfd34cf7b1c64cdE>
   21ca2:	07c0      	lsls	r0, r0, #31
   21ca4:	d111      	bne.n	21cca <_ZN20complex_full_dynamic3app17h6b610090bffdadfeE+0x66>
   21ca6:	9803      	ldr	r0, [sp, #12]
   21ca8:	9000      	str	r0, [sp, #0]
   21caa:	a81d      	add	r0, sp, #116	@ 0x74
   21cac:	211b      	movs	r1, #27
   21cae:	2203      	movs	r2, #3
   21cb0:	4623      	mov	r3, r4
   21cb2:	f7fe fa17 	bl	200e4 <_ZN9allow_pin12full_dynamic15Buffer$LT$B$GT$5allow17hcdfd34cf7b1c64cdE>
   21cb6:	07c0      	lsls	r0, r0, #31
   21cb8:	d107      	bne.n	21cca <_ZN20complex_full_dynamic3app17h6b610090bffdadfeE+0x66>
   21cba:	4812      	ldr	r0, [pc, #72]	@ (21d04 <_ZN20complex_full_dynamic3app17h6b610090bffdadfeE+0xa0>)
   21cbc:	2101      	movs	r1, #1
   21cbe:	2202      	movs	r2, #2
   21cc0:	2600      	movs	r6, #0
   21cc2:	4633      	mov	r3, r6
   21cc4:	df02      	svc	2
   21cc6:	287f      	cmp	r0, #127	@ 0x7f
   21cc8:	d80a      	bhi.n	21ce0 <_ZN20complex_full_dynamic3app17h6b610090bffdadfeE+0x7c>
   21cca:	9c05      	ldr	r4, [sp, #20]
   21ccc:	6061      	str	r1, [r4, #4]
   21cce:	7025      	strb	r5, [r4, #0]
   21cd0:	a81d      	add	r0, sp, #116	@ 0x74
   21cd2:	f004 fe21 	bl	26918 <_ZN9allow_pin12full_dynamic17unshare_if_shared17h2809d14697b066c7E>
   21cd6:	a806      	add	r0, sp, #24
   21cd8:	f004 fe1e 	bl	26918 <_ZN9allow_pin12full_dynamic17unshare_if_shared17h2809d14697b066c7E>
   21cdc:	b027      	add	sp, #156	@ 0x9c
   21cde:	bdf0      	pop	{r4, r5, r6, r7, pc}
   21ce0:	a806      	add	r0, sp, #24
   21ce2:	f004 fe19 	bl	26918 <_ZN9allow_pin12full_dynamic17unshare_if_shared17h2809d14697b066c7E>
   21ce6:	ac1d      	add	r4, sp, #116	@ 0x74
   21ce8:	4620      	mov	r0, r4
   21cea:	f004 fe15 	bl	26918 <_ZN9allow_pin12full_dynamic17unshare_if_shared17h2809d14697b066c7E>
   21cee:	4620      	mov	r0, r4
   21cf0:	f004 fe12 	bl	26918 <_ZN9allow_pin12full_dynamic17unshare_if_shared17h2809d14697b066c7E>
   21cf4:	9c05      	ldr	r4, [sp, #20]
   21cf6:	1c60      	adds	r0, r4, #1
   21cf8:	221b      	movs	r2, #27
   21cfa:	9902      	ldr	r1, [sp, #8]
   21cfc:	f004 ffcd 	bl	26c9a <__aeabi_memcpy>
   21d00:	4635      	mov	r5, r6
   21d02:	e7e4      	b.n	21cce <_ZN20complex_full_dynamic3app17h6b610090bffdadfeE+0x6a>
   21d04:	000003d9 	.word	0x000003d9

00021d08 <_ZN20complex_full_dynamic3app17h7403b5eebdfcf08dE>:
   21d08:	b5f0      	push	{r4, r5, r6, r7, lr}
   21d0a:	af03      	add	r7, sp, #12
   21d0c:	b0ad      	sub	sp, #180	@ 0xb4
   21d0e:	9003      	str	r0, [sp, #12]
   21d10:	ae04      	add	r6, sp, #16
   21d12:	2502      	movs	r5, #2
   21d14:	7235      	strb	r5, [r6, #8]
   21d16:	4630      	mov	r0, r6
   21d18:	300c      	adds	r0, #12
   21d1a:	224d      	movs	r2, #77	@ 0x4d
   21d1c:	9202      	str	r2, [sp, #8]
   21d1e:	f004 ffbc 	bl	26c9a <__aeabi_memcpy>
   21d22:	ac1b      	add	r4, sp, #108	@ 0x6c
   21d24:	4620      	mov	r0, r4
   21d26:	300c      	adds	r0, #12
   21d28:	213c      	movs	r1, #60	@ 0x3c
   21d2a:	9001      	str	r0, [sp, #4]
   21d2c:	f004 fe08 	bl	26940 <__aeabi_memclr4>
   21d30:	7225      	strb	r5, [r4, #8]
   21d32:	2204      	movs	r2, #4
   21d34:	9200      	str	r2, [sp, #0]
   21d36:	4c1b      	ldr	r4, [pc, #108]	@ (21da4 <_ZN20complex_full_dynamic3app17h7403b5eebdfcf08dE+0x9c>)
   21d38:	4630      	mov	r0, r6
   21d3a:	9902      	ldr	r1, [sp, #8]
   21d3c:	4623      	mov	r3, r4
   21d3e:	f7fe f9d1 	bl	200e4 <_ZN9allow_pin12full_dynamic15Buffer$LT$B$GT$5allow17hcdfd34cf7b1c64cdE>
   21d42:	07c0      	lsls	r0, r0, #31
   21d44:	d111      	bne.n	21d6a <_ZN20complex_full_dynamic3app17h7403b5eebdfcf08dE+0x62>
   21d46:	2009      	movs	r0, #9
   21d48:	9000      	str	r0, [sp, #0]
   21d4a:	a81b      	add	r0, sp, #108	@ 0x6c
   21d4c:	213c      	movs	r1, #60	@ 0x3c
   21d4e:	2203      	movs	r2, #3
   21d50:	4623      	mov	r3, r4
   21d52:	f7fe f9c7 	bl	200e4 <_ZN9allow_pin12full_dynamic15Buffer$LT$B$GT$5allow17hcdfd34cf7b1c64cdE>
   21d56:	07c0      	lsls	r0, r0, #31
   21d58:	d107      	bne.n	21d6a <_ZN20complex_full_dynamic3app17h7403b5eebdfcf08dE+0x62>
   21d5a:	4812      	ldr	r0, [pc, #72]	@ (21da4 <_ZN20complex_full_dynamic3app17h7403b5eebdfcf08dE+0x9c>)
   21d5c:	2104      	movs	r1, #4
   21d5e:	2209      	movs	r2, #9
   21d60:	2600      	movs	r6, #0
   21d62:	4633      	mov	r3, r6
   21d64:	df02      	svc	2
   21d66:	287f      	cmp	r0, #127	@ 0x7f
   21d68:	d80b      	bhi.n	21d82 <_ZN20complex_full_dynamic3app17h7403b5eebdfcf08dE+0x7a>
   21d6a:	9c03      	ldr	r4, [sp, #12]
   21d6c:	6061      	str	r1, [r4, #4]
   21d6e:	2601      	movs	r6, #1
   21d70:	7026      	strb	r6, [r4, #0]
   21d72:	a81b      	add	r0, sp, #108	@ 0x6c
   21d74:	f004 fdd0 	bl	26918 <_ZN9allow_pin12full_dynamic17unshare_if_shared17h2809d14697b066c7E>
   21d78:	a804      	add	r0, sp, #16
   21d7a:	f004 fdcd 	bl	26918 <_ZN9allow_pin12full_dynamic17unshare_if_shared17h2809d14697b066c7E>
   21d7e:	b02d      	add	sp, #180	@ 0xb4
   21d80:	bdf0      	pop	{r4, r5, r6, r7, pc}
   21d82:	a804      	add	r0, sp, #16
   21d84:	f004 fdc8 	bl	26918 <_ZN9allow_pin12full_dynamic17unshare_if_shared17h2809d14697b066c7E>
   21d88:	ac1b      	add	r4, sp, #108	@ 0x6c
   21d8a:	4620      	mov	r0, r4
   21d8c:	f004 fdc4 	bl	26918 <_ZN9allow_pin12full_dynamic17unshare_if_shared17h2809d14697b066c7E>
   21d90:	4620      	mov	r0, r4
   21d92:	f004 fdc1 	bl	26918 <_ZN9allow_pin12full_dynamic17unshare_if_shared17h2809d14697b066c7E>
   21d96:	9c03      	ldr	r4, [sp, #12]
   21d98:	1c60      	adds	r0, r4, #1
   21d9a:	223c      	movs	r2, #60	@ 0x3c
   21d9c:	9901      	ldr	r1, [sp, #4]
   21d9e:	f004 ff7c 	bl	26c9a <__aeabi_memcpy>
   21da2:	e7e5      	b.n	21d70 <_ZN20complex_full_dynamic3app17h7403b5eebdfcf08dE+0x68>
   21da4:	000021ab 	.word	0x000021ab

00021da8 <_ZN20complex_full_dynamic3app17h7476a939f1f98e14E>:
   21da8:	b5f0      	push	{r4, r5, r6, r7, lr}
   21daa:	af03      	add	r7, sp, #12
   21dac:	b0b5      	sub	sp, #212	@ 0xd4
   21dae:	9004      	str	r0, [sp, #16]
   21db0:	ae05      	add	r6, sp, #20
   21db2:	2502      	movs	r5, #2
   21db4:	7235      	strb	r5, [r6, #8]
   21db6:	4630      	mov	r0, r6
   21db8:	300c      	adds	r0, #12
   21dba:	2259      	movs	r2, #89	@ 0x59
   21dbc:	9203      	str	r2, [sp, #12]
   21dbe:	f004 ff6c 	bl	26c9a <__aeabi_memcpy>
   21dc2:	ac1f      	add	r4, sp, #124	@ 0x7c
   21dc4:	4620      	mov	r0, r4
   21dc6:	300c      	adds	r0, #12
   21dc8:	214a      	movs	r1, #74	@ 0x4a
   21dca:	9002      	str	r0, [sp, #8]
   21dcc:	f004 fdb8 	bl	26940 <__aeabi_memclr4>
   21dd0:	7225      	strb	r5, [r4, #8]
   21dd2:	2000      	movs	r0, #0
   21dd4:	9000      	str	r0, [sp, #0]
   21dd6:	2504      	movs	r5, #4
   21dd8:	4c1b      	ldr	r4, [pc, #108]	@ (21e48 <_ZN20complex_full_dynamic3app17h7476a939f1f98e14E+0xa0>)
   21dda:	4630      	mov	r0, r6
   21ddc:	9903      	ldr	r1, [sp, #12]
   21dde:	462a      	mov	r2, r5
   21de0:	4623      	mov	r3, r4
   21de2:	f7fe f97f 	bl	200e4 <_ZN9allow_pin12full_dynamic15Buffer$LT$B$GT$5allow17hcdfd34cf7b1c64cdE>
   21de6:	07c0      	lsls	r0, r0, #31
   21de8:	d110      	bne.n	21e0c <_ZN20complex_full_dynamic3app17h7476a939f1f98e14E+0x64>
   21dea:	9500      	str	r5, [sp, #0]
   21dec:	a81f      	add	r0, sp, #124	@ 0x7c
   21dee:	214a      	movs	r1, #74	@ 0x4a
   21df0:	2203      	movs	r2, #3
   21df2:	4623      	mov	r3, r4
   21df4:	f7fe f976 	bl	200e4 <_ZN9allow_pin12full_dynamic15Buffer$LT$B$GT$5allow17hcdfd34cf7b1c64cdE>
   21df8:	07c0      	lsls	r0, r0, #31
   21dfa:	d107      	bne.n	21e0c <_ZN20complex_full_dynamic3app17h7476a939f1f98e14E+0x64>
   21dfc:	4812      	ldr	r0, [pc, #72]	@ (21e48 <_ZN20complex_full_dynamic3app17h7476a939f1f98e14E+0xa0>)
   21dfe:	2204      	movs	r2, #4
   21e00:	2600      	movs	r6, #0
   21e02:	4631      	mov	r1, r6
   21e04:	4633      	mov	r3, r6
   21e06:	df02      	svc	2
   21e08:	287f      	cmp	r0, #127	@ 0x7f
   21e0a:	d80b      	bhi.n	21e24 <_ZN20complex_full_dynamic3app17h7476a939f1f98e14E+0x7c>
   21e0c:	9c04      	ldr	r4, [sp, #16]
   21e0e:	6061      	str	r1, [r4, #4]
   21e10:	2601      	movs	r6, #1
   21e12:	7026      	strb	r6, [r4, #0]
   21e14:	a81f      	add	r0, sp, #124	@ 0x7c
   21e16:	f004 fd7f 	bl	26918 <_ZN9allow_pin12full_dynamic17unshare_if_shared17h2809d14697b066c7E>
   21e1a:	a805      	add	r0, sp, #20
   21e1c:	f004 fd7c 	bl	26918 <_ZN9allow_pin12full_dynamic17unshare_if_shared17h2809d14697b066c7E>
   21e20:	b035      	add	sp, #212	@ 0xd4
   21e22:	bdf0      	pop	{r4, r5, r6, r7, pc}
   21e24:	a805      	add	r0, sp, #20
   21e26:	f004 fd77 	bl	26918 <_ZN9allow_pin12full_dynamic17unshare_if_shared17h2809d14697b066c7E>
   21e2a:	ac1f      	add	r4, sp, #124	@ 0x7c
   21e2c:	4620      	mov	r0, r4
   21e2e:	f004 fd73 	bl	26918 <_ZN9allow_pin12full_dynamic17unshare_if_shared17h2809d14697b066c7E>
   21e32:	4620      	mov	r0, r4
   21e34:	f004 fd70 	bl	26918 <_ZN9allow_pin12full_dynamic17unshare_if_shared17h2809d14697b066c7E>
   21e38:	9c04      	ldr	r4, [sp, #16]
   21e3a:	1c60      	adds	r0, r4, #1
   21e3c:	224a      	movs	r2, #74	@ 0x4a
   21e3e:	9902      	ldr	r1, [sp, #8]
   21e40:	f004 ff2b 	bl	26c9a <__aeabi_memcpy>
   21e44:	e7e5      	b.n	21e12 <_ZN20complex_full_dynamic3app17h7476a939f1f98e14E+0x6a>
   21e46:	46c0      	nop			@ (mov r8, r8)
   21e48:	00001484 	.word	0x00001484

00021e4c <_ZN20complex_full_dynamic3app17h78a5548f7f04291bE>:
   21e4c:	b5f0      	push	{r4, r5, r6, r7, lr}
   21e4e:	af03      	add	r7, sp, #12
   21e50:	b0b3      	sub	sp, #204	@ 0xcc
   21e52:	9003      	str	r0, [sp, #12]
   21e54:	ae04      	add	r6, sp, #16
   21e56:	2502      	movs	r5, #2
   21e58:	7235      	strb	r5, [r6, #8]
   21e5a:	4630      	mov	r0, r6
   21e5c:	300c      	adds	r0, #12
   21e5e:	2256      	movs	r2, #86	@ 0x56
   21e60:	9202      	str	r2, [sp, #8]
   21e62:	f004 ff1a 	bl	26c9a <__aeabi_memcpy>
   21e66:	ac1d      	add	r4, sp, #116	@ 0x74
   21e68:	4620      	mov	r0, r4
   21e6a:	300c      	adds	r0, #12
   21e6c:	2149      	movs	r1, #73	@ 0x49
   21e6e:	9001      	str	r0, [sp, #4]
   21e70:	f004 fd66 	bl	26940 <__aeabi_memclr4>
   21e74:	7225      	strb	r5, [r4, #8]
   21e76:	2506      	movs	r5, #6
   21e78:	9500      	str	r5, [sp, #0]
   21e7a:	2204      	movs	r2, #4
   21e7c:	4c1a      	ldr	r4, [pc, #104]	@ (21ee8 <_ZN20complex_full_dynamic3app17h78a5548f7f04291bE+0x9c>)
   21e7e:	4630      	mov	r0, r6
   21e80:	9902      	ldr	r1, [sp, #8]
   21e82:	4623      	mov	r3, r4
   21e84:	f7fe f92e 	bl	200e4 <_ZN9allow_pin12full_dynamic15Buffer$LT$B$GT$5allow17hcdfd34cf7b1c64cdE>
   21e88:	07c0      	lsls	r0, r0, #31
   21e8a:	d110      	bne.n	21eae <_ZN20complex_full_dynamic3app17h78a5548f7f04291bE+0x62>
   21e8c:	9500      	str	r5, [sp, #0]
   21e8e:	a81d      	add	r0, sp, #116	@ 0x74
   21e90:	2149      	movs	r1, #73	@ 0x49
   21e92:	2203      	movs	r2, #3
   21e94:	4623      	mov	r3, r4
   21e96:	f7fe f925 	bl	200e4 <_ZN9allow_pin12full_dynamic15Buffer$LT$B$GT$5allow17hcdfd34cf7b1c64cdE>
   21e9a:	07c0      	lsls	r0, r0, #31
   21e9c:	d107      	bne.n	21eae <_ZN20complex_full_dynamic3app17h78a5548f7f04291bE+0x62>
   21e9e:	4812      	ldr	r0, [pc, #72]	@ (21ee8 <_ZN20complex_full_dynamic3app17h78a5548f7f04291bE+0x9c>)
   21ea0:	2106      	movs	r1, #6
   21ea2:	2600      	movs	r6, #0
   21ea4:	460a      	mov	r2, r1
   21ea6:	4633      	mov	r3, r6
   21ea8:	df02      	svc	2
   21eaa:	287f      	cmp	r0, #127	@ 0x7f
   21eac:	d80b      	bhi.n	21ec6 <_ZN20complex_full_dynamic3app17h78a5548f7f04291bE+0x7a>
   21eae:	9c03      	ldr	r4, [sp, #12]
   21eb0:	6061      	str	r1, [r4, #4]
   21eb2:	2601      	movs	r6, #1
   21eb4:	7026      	strb	r6, [r4, #0]
   21eb6:	a81d      	add	r0, sp, #116	@ 0x74
   21eb8:	f004 fd2e 	bl	26918 <_ZN9allow_pin12full_dynamic17unshare_if_shared17h2809d14697b066c7E>
   21ebc:	a804      	add	r0, sp, #16
   21ebe:	f004 fd2b 	bl	26918 <_ZN9allow_pin12full_dynamic17unshare_if_shared17h2809d14697b066c7E>
   21ec2:	b033      	add	sp, #204	@ 0xcc
   21ec4:	bdf0      	pop	{r4, r5, r6, r7, pc}
   21ec6:	a804      	add	r0, sp, #16
   21ec8:	f004 fd26 	bl	26918 <_ZN9allow_pin12full_dynamic17unshare_if_shared17h2809d14697b066c7E>
   21ecc:	ac1d      	add	r4, sp, #116	@ 0x74
   21ece:	4620      	mov	r0, r4
   21ed0:	f004 fd22 	bl	26918 <_ZN9allow_pin12full_dynamic17unshare_if_shared17h2809d14697b066c7E>
   21ed4:	4620      	mov	r0, r4
   21ed6:	f004 fd1f 	bl	26918 <_ZN9allow_pin12full_dynamic17unshare_if_shared17h2809d14697b066c7E>
   21eda:	9c03      	ldr	r4, [sp, #12]
   21edc:	1c60      	adds	r0, r4, #1
   21ede:	2249      	movs	r2, #73	@ 0x49
   21ee0:	9901      	ldr	r1, [sp, #4]
   21ee2:	f004 feda 	bl	26c9a <__aeabi_memcpy>
   21ee6:	e7e5      	b.n	21eb4 <_ZN20complex_full_dynamic3app17h78a5548f7f04291bE+0x68>
   21ee8:	00001c6b 	.word	0x00001c6b

00021eec <_ZN20complex_full_dynamic3app17h7d5f76646863a4faE>:
   21eec:	b5f0      	push	{r4, r5, r6, r7, lr}
   21eee:	af03      	add	r7, sp, #12
   21ef0:	b09f      	sub	sp, #124	@ 0x7c
   21ef2:	9003      	str	r0, [sp, #12]
   21ef4:	ae04      	add	r6, sp, #16
   21ef6:	2502      	movs	r5, #2
   21ef8:	7235      	strb	r5, [r6, #8]
   21efa:	4630      	mov	r0, r6
   21efc:	300c      	adds	r0, #12
   21efe:	223f      	movs	r2, #63	@ 0x3f
   21f00:	9202      	str	r2, [sp, #8]
   21f02:	f004 feca 	bl	26c9a <__aeabi_memcpy>
   21f06:	ac17      	add	r4, sp, #92	@ 0x5c
   21f08:	4620      	mov	r0, r4
   21f0a:	300c      	adds	r0, #12
   21f0c:	2111      	movs	r1, #17
   21f0e:	9001      	str	r0, [sp, #4]
   21f10:	f004 fd16 	bl	26940 <__aeabi_memclr4>
   21f14:	7225      	strb	r5, [r4, #8]
   21f16:	2204      	movs	r2, #4
   21f18:	9200      	str	r2, [sp, #0]
   21f1a:	4c1b      	ldr	r4, [pc, #108]	@ (21f88 <_ZN20complex_full_dynamic3app17h7d5f76646863a4faE+0x9c>)
   21f1c:	4630      	mov	r0, r6
   21f1e:	9902      	ldr	r1, [sp, #8]
   21f20:	4623      	mov	r3, r4
   21f22:	f7fe f8df 	bl	200e4 <_ZN9allow_pin12full_dynamic15Buffer$LT$B$GT$5allow17hcdfd34cf7b1c64cdE>
   21f26:	07c0      	lsls	r0, r0, #31
   21f28:	d110      	bne.n	21f4c <_ZN20complex_full_dynamic3app17h7d5f76646863a4faE+0x60>
   21f2a:	2203      	movs	r2, #3
   21f2c:	9200      	str	r2, [sp, #0]
   21f2e:	a817      	add	r0, sp, #92	@ 0x5c
   21f30:	2111      	movs	r1, #17
   21f32:	4623      	mov	r3, r4
   21f34:	f7fe f8d6 	bl	200e4 <_ZN9allow_pin12full_dynamic15Buffer$LT$B$GT$5allow17hcdfd34cf7b1c64cdE>
   21f38:	07c0      	lsls	r0, r0, #31
   21f3a:	d107      	bne.n	21f4c <_ZN20complex_full_dynamic3app17h7d5f76646863a4faE+0x60>
   21f3c:	4812      	ldr	r0, [pc, #72]	@ (21f88 <_ZN20complex_full_dynamic3app17h7d5f76646863a4faE+0x9c>)
   21f3e:	2104      	movs	r1, #4
   21f40:	2203      	movs	r2, #3
   21f42:	2600      	movs	r6, #0
   21f44:	4633      	mov	r3, r6
   21f46:	df02      	svc	2
   21f48:	287f      	cmp	r0, #127	@ 0x7f
   21f4a:	d80b      	bhi.n	21f64 <_ZN20complex_full_dynamic3app17h7d5f76646863a4faE+0x78>
   21f4c:	9c03      	ldr	r4, [sp, #12]
   21f4e:	6061      	str	r1, [r4, #4]
   21f50:	2601      	movs	r6, #1
   21f52:	7026      	strb	r6, [r4, #0]
   21f54:	a817      	add	r0, sp, #92	@ 0x5c
   21f56:	f004 fcdf 	bl	26918 <_ZN9allow_pin12full_dynamic17unshare_if_shared17h2809d14697b066c7E>
   21f5a:	a804      	add	r0, sp, #16
   21f5c:	f004 fcdc 	bl	26918 <_ZN9allow_pin12full_dynamic17unshare_if_shared17h2809d14697b066c7E>
   21f60:	b01f      	add	sp, #124	@ 0x7c
   21f62:	bdf0      	pop	{r4, r5, r6, r7, pc}
   21f64:	a804      	add	r0, sp, #16
   21f66:	f004 fcd7 	bl	26918 <_ZN9allow_pin12full_dynamic17unshare_if_shared17h2809d14697b066c7E>
   21f6a:	ac17      	add	r4, sp, #92	@ 0x5c
   21f6c:	4620      	mov	r0, r4
   21f6e:	f004 fcd3 	bl	26918 <_ZN9allow_pin12full_dynamic17unshare_if_shared17h2809d14697b066c7E>
   21f72:	4620      	mov	r0, r4
   21f74:	f004 fcd0 	bl	26918 <_ZN9allow_pin12full_dynamic17unshare_if_shared17h2809d14697b066c7E>
   21f78:	9c03      	ldr	r4, [sp, #12]
   21f7a:	1c60      	adds	r0, r4, #1
   21f7c:	2211      	movs	r2, #17
   21f7e:	9901      	ldr	r1, [sp, #4]
   21f80:	f004 fe8b 	bl	26c9a <__aeabi_memcpy>
   21f84:	e7e5      	b.n	21f52 <_ZN20complex_full_dynamic3app17h7d5f76646863a4faE+0x66>
   21f86:	46c0      	nop			@ (mov r8, r8)
   21f88:	000014d7 	.word	0x000014d7

00021f8c <_ZN20complex_full_dynamic3app17h811706defd8898dcE>:
   21f8c:	b5f0      	push	{r4, r5, r6, r7, lr}
   21f8e:	af03      	add	r7, sp, #12
   21f90:	b0a9      	sub	sp, #164	@ 0xa4
   21f92:	9004      	str	r0, [sp, #16]
   21f94:	ae05      	add	r6, sp, #20
   21f96:	2502      	movs	r5, #2
   21f98:	7235      	strb	r5, [r6, #8]
   21f9a:	4630      	mov	r0, r6
   21f9c:	300c      	adds	r0, #12
   21f9e:	2232      	movs	r2, #50	@ 0x32
   21fa0:	9203      	str	r2, [sp, #12]
   21fa2:	f004 fe7a 	bl	26c9a <__aeabi_memcpy>
   21fa6:	ac15      	add	r4, sp, #84	@ 0x54
   21fa8:	4620      	mov	r0, r4
   21faa:	300c      	adds	r0, #12
   21fac:	2141      	movs	r1, #65	@ 0x41
   21fae:	9002      	str	r0, [sp, #8]
   21fb0:	f004 fcc6 	bl	26940 <__aeabi_memclr4>
   21fb4:	7225      	strb	r5, [r4, #8]
   21fb6:	2007      	movs	r0, #7
   21fb8:	9000      	str	r0, [sp, #0]
   21fba:	2204      	movs	r2, #4
   21fbc:	4c1b      	ldr	r4, [pc, #108]	@ (2202c <_ZN20complex_full_dynamic3app17h811706defd8898dcE+0xa0>)
   21fbe:	4630      	mov	r0, r6
   21fc0:	9903      	ldr	r1, [sp, #12]
   21fc2:	4623      	mov	r3, r4
   21fc4:	f7fe f88e 	bl	200e4 <_ZN9allow_pin12full_dynamic15Buffer$LT$B$GT$5allow17hcdfd34cf7b1c64cdE>
   21fc8:	07c0      	lsls	r0, r0, #31
   21fca:	d111      	bne.n	21ff0 <_ZN20complex_full_dynamic3app17h811706defd8898dcE+0x64>
   21fcc:	2005      	movs	r0, #5
   21fce:	9000      	str	r0, [sp, #0]
   21fd0:	a815      	add	r0, sp, #84	@ 0x54
   21fd2:	2141      	movs	r1, #65	@ 0x41
   21fd4:	2203      	movs	r2, #3
   21fd6:	4623      	mov	r3, r4
   21fd8:	f7fe f884 	bl	200e4 <_ZN9allow_pin12full_dynamic15Buffer$LT$B$GT$5allow17hcdfd34cf7b1c64cdE>
   21fdc:	07c0      	lsls	r0, r0, #31
   21fde:	d107      	bne.n	21ff0 <_ZN20complex_full_dynamic3app17h811706defd8898dcE+0x64>
   21fe0:	4812      	ldr	r0, [pc, #72]	@ (2202c <_ZN20complex_full_dynamic3app17h811706defd8898dcE+0xa0>)
   21fe2:	2107      	movs	r1, #7
   21fe4:	2205      	movs	r2, #5
   21fe6:	2600      	movs	r6, #0
   21fe8:	4633      	mov	r3, r6
   21fea:	df02      	svc	2
   21fec:	287f      	cmp	r0, #127	@ 0x7f
   21fee:	d80b      	bhi.n	22008 <_ZN20complex_full_dynamic3app17h811706defd8898dcE+0x7c>
   21ff0:	9c04      	ldr	r4, [sp, #16]
   21ff2:	6061      	str	r1, [r4, #4]
   21ff4:	2601      	movs	r6, #1
   21ff6:	7026      	strb	r6, [r4, #0]
   21ff8:	a815      	add	r0, sp, #84	@ 0x54
   21ffa:	f004 fc8d 	bl	26918 <_ZN9allow_pin12full_dynamic17unshare_if_shared17h2809d14697b066c7E>
   21ffe:	a805      	add	r0, sp, #20
   22000:	f004 fc8a 	bl	26918 <_ZN9allow_pin12full_dynamic17unshare_if_shared17h2809d14697b066c7E>
   22004:	b029      	add	sp, #164	@ 0xa4
   22006:	bdf0      	pop	{r4, r5, r6, r7, pc}
   22008:	a805      	add	r0, sp, #20
   2200a:	f004 fc85 	bl	26918 <_ZN9allow_pin12full_dynamic17unshare_if_shared17h2809d14697b066c7E>
   2200e:	ac15      	add	r4, sp, #84	@ 0x54
   22010:	4620      	mov	r0, r4
   22012:	f004 fc81 	bl	26918 <_ZN9allow_pin12full_dynamic17unshare_if_shared17h2809d14697b066c7E>
   22016:	4620      	mov	r0, r4
   22018:	f004 fc7e 	bl	26918 <_ZN9allow_pin12full_dynamic17unshare_if_shared17h2809d14697b066c7E>
   2201c:	9c04      	ldr	r4, [sp, #16]
   2201e:	1c60      	adds	r0, r4, #1
   22020:	2241      	movs	r2, #65	@ 0x41
   22022:	9902      	ldr	r1, [sp, #8]
   22024:	f004 fe39 	bl	26c9a <__aeabi_memcpy>
   22028:	e7e5      	b.n	21ff6 <_ZN20complex_full_dynamic3app17h811706defd8898dcE+0x6a>
   2202a:	46c0      	nop			@ (mov r8, r8)
   2202c:	0000091d 	.word	0x0000091d

00022030 <_ZN20complex_full_dynamic3app17h86bdc0a1539d38e1E>:
   22030:	b5f0      	push	{r4, r5, r6, r7, lr}
   22032:	af03      	add	r7, sp, #12
   22034:	b0b7      	sub	sp, #220	@ 0xdc
   22036:	9003      	str	r0, [sp, #12]
   22038:	ae04      	add	r6, sp, #16
   2203a:	2402      	movs	r4, #2
   2203c:	7234      	strb	r4, [r6, #8]
   2203e:	4630      	mov	r0, r6
   22040:	300c      	adds	r0, #12
   22042:	224f      	movs	r2, #79	@ 0x4f
   22044:	9202      	str	r2, [sp, #8]
   22046:	f004 fe28 	bl	26c9a <__aeabi_memcpy>
   2204a:	ad1b      	add	r5, sp, #108	@ 0x6c
   2204c:	4628      	mov	r0, r5
   2204e:	300c      	adds	r0, #12
   22050:	2161      	movs	r1, #97	@ 0x61
   22052:	9001      	str	r0, [sp, #4]
   22054:	f004 fc74 	bl	26940 <__aeabi_memclr4>
   22058:	722c      	strb	r4, [r5, #8]
   2205a:	9400      	str	r4, [sp, #0]
   2205c:	20db      	movs	r0, #219	@ 0xdb
   2205e:	0044      	lsls	r4, r0, #1
   22060:	2204      	movs	r2, #4
   22062:	4630      	mov	r0, r6
   22064:	9902      	ldr	r1, [sp, #8]
   22066:	4623      	mov	r3, r4
   22068:	f7fe f83c 	bl	200e4 <_ZN9allow_pin12full_dynamic15Buffer$LT$B$GT$5allow17hcdfd34cf7b1c64cdE>
   2206c:	07c0      	lsls	r0, r0, #31
   2206e:	d111      	bne.n	22094 <_ZN20complex_full_dynamic3app17h86bdc0a1539d38e1E+0x64>
   22070:	2008      	movs	r0, #8
   22072:	9000      	str	r0, [sp, #0]
   22074:	a81b      	add	r0, sp, #108	@ 0x6c
   22076:	2161      	movs	r1, #97	@ 0x61
   22078:	2203      	movs	r2, #3
   2207a:	4623      	mov	r3, r4
   2207c:	f7fe f832 	bl	200e4 <_ZN9allow_pin12full_dynamic15Buffer$LT$B$GT$5allow17hcdfd34cf7b1c64cdE>
   22080:	07c0      	lsls	r0, r0, #31
   22082:	d107      	bne.n	22094 <_ZN20complex_full_dynamic3app17h86bdc0a1539d38e1E+0x64>
   22084:	2102      	movs	r1, #2
   22086:	2208      	movs	r2, #8
   22088:	2600      	movs	r6, #0
   2208a:	4620      	mov	r0, r4
   2208c:	4633      	mov	r3, r6
   2208e:	df02      	svc	2
   22090:	287f      	cmp	r0, #127	@ 0x7f
   22092:	d80b      	bhi.n	220ac <_ZN20complex_full_dynamic3app17h86bdc0a1539d38e1E+0x7c>
   22094:	9c03      	ldr	r4, [sp, #12]
   22096:	6061      	str	r1, [r4, #4]
   22098:	2601      	movs	r6, #1
   2209a:	7026      	strb	r6, [r4, #0]
   2209c:	a81b      	add	r0, sp, #108	@ 0x6c
   2209e:	f004 fc3b 	bl	26918 <_ZN9allow_pin12full_dynamic17unshare_if_shared17h2809d14697b066c7E>
   220a2:	a804      	add	r0, sp, #16
   220a4:	f004 fc38 	bl	26918 <_ZN9allow_pin12full_dynamic17unshare_if_shared17h2809d14697b066c7E>
   220a8:	b037      	add	sp, #220	@ 0xdc
   220aa:	bdf0      	pop	{r4, r5, r6, r7, pc}
   220ac:	a804      	add	r0, sp, #16
   220ae:	f004 fc33 	bl	26918 <_ZN9allow_pin12full_dynamic17unshare_if_shared17h2809d14697b066c7E>
   220b2:	ac1b      	add	r4, sp, #108	@ 0x6c
   220b4:	4620      	mov	r0, r4
   220b6:	f004 fc2f 	bl	26918 <_ZN9allow_pin12full_dynamic17unshare_if_shared17h2809d14697b066c7E>
   220ba:	4620      	mov	r0, r4
   220bc:	f004 fc2c 	bl	26918 <_ZN9allow_pin12full_dynamic17unshare_if_shared17h2809d14697b066c7E>
   220c0:	9c03      	ldr	r4, [sp, #12]
   220c2:	1c60      	adds	r0, r4, #1
   220c4:	2261      	movs	r2, #97	@ 0x61
   220c6:	9901      	ldr	r1, [sp, #4]
   220c8:	f004 fde7 	bl	26c9a <__aeabi_memcpy>
   220cc:	e7e5      	b.n	2209a <_ZN20complex_full_dynamic3app17h86bdc0a1539d38e1E+0x6a>
   220ce:	d4d4      	bmi.n	2207a <_ZN20complex_full_dynamic3app17h86bdc0a1539d38e1E+0x4a>

000220d0 <_ZN20complex_full_dynamic3app17h89a57767909f7919E>:
   220d0:	b5f0      	push	{r4, r5, r6, r7, lr}
   220d2:	af03      	add	r7, sp, #12
   220d4:	b0a1      	sub	sp, #132	@ 0x84
   220d6:	9004      	str	r0, [sp, #16]
   220d8:	ae05      	add	r6, sp, #20
   220da:	2502      	movs	r5, #2
   220dc:	7235      	strb	r5, [r6, #8]
   220de:	4630      	mov	r0, r6
   220e0:	300c      	adds	r0, #12
   220e2:	222c      	movs	r2, #44	@ 0x2c
   220e4:	9203      	str	r2, [sp, #12]
   220e6:	f004 fdd8 	bl	26c9a <__aeabi_memcpy>
   220ea:	ac13      	add	r4, sp, #76	@ 0x4c
   220ec:	4620      	mov	r0, r4
   220ee:	300c      	adds	r0, #12
   220f0:	212a      	movs	r1, #42	@ 0x2a
   220f2:	9002      	str	r0, [sp, #8]
   220f4:	f004 fc24 	bl	26940 <__aeabi_memclr4>
   220f8:	7225      	strb	r5, [r4, #8]
   220fa:	2003      	movs	r0, #3
   220fc:	9000      	str	r0, [sp, #0]
   220fe:	2204      	movs	r2, #4
   22100:	4c1b      	ldr	r4, [pc, #108]	@ (22170 <_ZN20complex_full_dynamic3app17h89a57767909f7919E+0xa0>)
   22102:	4630      	mov	r0, r6
   22104:	9903      	ldr	r1, [sp, #12]
   22106:	4623      	mov	r3, r4
   22108:	f7fd ffec 	bl	200e4 <_ZN9allow_pin12full_dynamic15Buffer$LT$B$GT$5allow17hcdfd34cf7b1c64cdE>
   2210c:	07c0      	lsls	r0, r0, #31
   2210e:	d111      	bne.n	22134 <_ZN20complex_full_dynamic3app17h89a57767909f7919E+0x64>
   22110:	2000      	movs	r0, #0
   22112:	9000      	str	r0, [sp, #0]
   22114:	a813      	add	r0, sp, #76	@ 0x4c
   22116:	212a      	movs	r1, #42	@ 0x2a
   22118:	2203      	movs	r2, #3
   2211a:	4623      	mov	r3, r4
   2211c:	f7fd ffe2 	bl	200e4 <_ZN9allow_pin12full_dynamic15Buffer$LT$B$GT$5allow17hcdfd34cf7b1c64cdE>
   22120:	07c0      	lsls	r0, r0, #31
   22122:	d107      	bne.n	22134 <_ZN20complex_full_dynamic3app17h89a57767909f7919E+0x64>
   22124:	4812      	ldr	r0, [pc, #72]	@ (22170 <_ZN20complex_full_dynamic3app17h89a57767909f7919E+0xa0>)
   22126:	2103      	movs	r1, #3
   22128:	2600      	movs	r6, #0
   2212a:	4632      	mov	r2, r6
   2212c:	4633      	mov	r3, r6
   2212e:	df02      	svc	2
   22130:	287f      	cmp	r0, #127	@ 0x7f
   22132:	d80b      	bhi.n	2214c <_ZN20complex_full_dynamic3app17h89a57767909f7919E+0x7c>
   22134:	9c04      	ldr	r4, [sp, #16]
   22136:	6061      	str	r1, [r4, #4]
   22138:	2601      	movs	r6, #1
   2213a:	7026      	strb	r6, [r4, #0]
   2213c:	a813      	add	r0, sp, #76	@ 0x4c
   2213e:	f004 fbeb 	bl	26918 <_ZN9allow_pin12full_dynamic17unshare_if_shared17h2809d14697b066c7E>
   22142:	a805      	add	r0, sp, #20
   22144:	f004 fbe8 	bl	26918 <_ZN9allow_pin12full_dynamic17unshare_if_shared17h2809d14697b066c7E>
   22148:	b021      	add	sp, #132	@ 0x84
   2214a:	bdf0      	pop	{r4, r5, r6, r7, pc}
   2214c:	a805      	add	r0, sp, #20
   2214e:	f004 fbe3 	bl	26918 <_ZN9allow_pin12full_dynamic17unshare_if_shared17h2809d14697b066c7E>
   22152:	ac13      	add	r4, sp, #76	@ 0x4c
   22154:	4620      	mov	r0, r4
   22156:	f004 fbdf 	bl	26918 <_ZN9allow_pin12full_dynamic17unshare_if_shared17h2809d14697b066c7E>
   2215a:	4620      	mov	r0, r4
   2215c:	f004 fbdc 	bl	26918 <_ZN9allow_pin12full_dynamic17unshare_if_shared17h2809d14697b066c7E>
   22160:	9c04      	ldr	r4, [sp, #16]
   22162:	1c60      	adds	r0, r4, #1
   22164:	222a      	movs	r2, #42	@ 0x2a
   22166:	9902      	ldr	r1, [sp, #8]
   22168:	f004 fd97 	bl	26c9a <__aeabi_memcpy>
   2216c:	e7e5      	b.n	2213a <_ZN20complex_full_dynamic3app17h89a57767909f7919E+0x6a>
   2216e:	46c0      	nop			@ (mov r8, r8)
   22170:	000024f0 	.word	0x000024f0

00022174 <_ZN20complex_full_dynamic3app17h8d03c3fc62ea41fcE>:
   22174:	b5f0      	push	{r4, r5, r6, r7, lr}
   22176:	af03      	add	r7, sp, #12
   22178:	b0a7      	sub	sp, #156	@ 0x9c
   2217a:	9004      	str	r0, [sp, #16]
   2217c:	ae05      	add	r6, sp, #20
   2217e:	2502      	movs	r5, #2
   22180:	7235      	strb	r5, [r6, #8]
   22182:	4630      	mov	r0, r6
   22184:	300c      	adds	r0, #12
   22186:	2249      	movs	r2, #73	@ 0x49
   22188:	9203      	str	r2, [sp, #12]
   2218a:	f004 fd86 	bl	26c9a <__aeabi_memcpy>
   2218e:	ac1b      	add	r4, sp, #108	@ 0x6c
   22190:	4620      	mov	r0, r4
   22192:	300c      	adds	r0, #12
   22194:	2123      	movs	r1, #35	@ 0x23
   22196:	9002      	str	r0, [sp, #8]
   22198:	f004 fbd2 	bl	26940 <__aeabi_memclr4>
   2219c:	7225      	strb	r5, [r4, #8]
   2219e:	2007      	movs	r0, #7
   221a0:	9000      	str	r0, [sp, #0]
   221a2:	2204      	movs	r2, #4
   221a4:	4c1b      	ldr	r4, [pc, #108]	@ (22214 <_ZN20complex_full_dynamic3app17h8d03c3fc62ea41fcE+0xa0>)
   221a6:	4630      	mov	r0, r6
   221a8:	9903      	ldr	r1, [sp, #12]
   221aa:	4623      	mov	r3, r4
   221ac:	f7fd ff9a 	bl	200e4 <_ZN9allow_pin12full_dynamic15Buffer$LT$B$GT$5allow17hcdfd34cf7b1c64cdE>
   221b0:	07c0      	lsls	r0, r0, #31
   221b2:	d111      	bne.n	221d8 <_ZN20complex_full_dynamic3app17h8d03c3fc62ea41fcE+0x64>
   221b4:	2001      	movs	r0, #1
   221b6:	9000      	str	r0, [sp, #0]
   221b8:	a81b      	add	r0, sp, #108	@ 0x6c
   221ba:	2123      	movs	r1, #35	@ 0x23
   221bc:	2203      	movs	r2, #3
   221be:	4623      	mov	r3, r4
   221c0:	f7fd ff90 	bl	200e4 <_ZN9allow_pin12full_dynamic15Buffer$LT$B$GT$5allow17hcdfd34cf7b1c64cdE>
   221c4:	07c0      	lsls	r0, r0, #31
   221c6:	d107      	bne.n	221d8 <_ZN20complex_full_dynamic3app17h8d03c3fc62ea41fcE+0x64>
   221c8:	4812      	ldr	r0, [pc, #72]	@ (22214 <_ZN20complex_full_dynamic3app17h8d03c3fc62ea41fcE+0xa0>)
   221ca:	2107      	movs	r1, #7
   221cc:	2201      	movs	r2, #1
   221ce:	2600      	movs	r6, #0
   221d0:	4633      	mov	r3, r6
   221d2:	df02      	svc	2
   221d4:	287f      	cmp	r0, #127	@ 0x7f
   221d6:	d80b      	bhi.n	221f0 <_ZN20complex_full_dynamic3app17h8d03c3fc62ea41fcE+0x7c>
   221d8:	9c04      	ldr	r4, [sp, #16]
   221da:	6061      	str	r1, [r4, #4]
   221dc:	2601      	movs	r6, #1
   221de:	7026      	strb	r6, [r4, #0]
   221e0:	a81b      	add	r0, sp, #108	@ 0x6c
   221e2:	f004 fb99 	bl	26918 <_ZN9allow_pin12full_dynamic17unshare_if_shared17h2809d14697b066c7E>
   221e6:	a805      	add	r0, sp, #20
   221e8:	f004 fb96 	bl	26918 <_ZN9allow_pin12full_dynamic17unshare_if_shared17h2809d14697b066c7E>
   221ec:	b027      	add	sp, #156	@ 0x9c
   221ee:	bdf0      	pop	{r4, r5, r6, r7, pc}
   221f0:	a805      	add	r0, sp, #20
   221f2:	f004 fb91 	bl	26918 <_ZN9allow_pin12full_dynamic17unshare_if_shared17h2809d14697b066c7E>
   221f6:	ac1b      	add	r4, sp, #108	@ 0x6c
   221f8:	4620      	mov	r0, r4
   221fa:	f004 fb8d 	bl	26918 <_ZN9allow_pin12full_dynamic17unshare_if_shared17h2809d14697b066c7E>
   221fe:	4620      	mov	r0, r4
   22200:	f004 fb8a 	bl	26918 <_ZN9allow_pin12full_dynamic17unshare_if_shared17h2809d14697b066c7E>
   22204:	9c04      	ldr	r4, [sp, #16]
   22206:	1c60      	adds	r0, r4, #1
   22208:	2223      	movs	r2, #35	@ 0x23
   2220a:	9902      	ldr	r1, [sp, #8]
   2220c:	f004 fd45 	bl	26c9a <__aeabi_memcpy>
   22210:	e7e5      	b.n	221de <_ZN20complex_full_dynamic3app17h8d03c3fc62ea41fcE+0x6a>
   22212:	46c0      	nop			@ (mov r8, r8)
   22214:	00001551 	.word	0x00001551

00022218 <_ZN20complex_full_dynamic3app17h932f88e2ddacd353E>:
   22218:	b5f0      	push	{r4, r5, r6, r7, lr}
   2221a:	af03      	add	r7, sp, #12
   2221c:	b0a5      	sub	sp, #148	@ 0x94
   2221e:	9003      	str	r0, [sp, #12]
   22220:	ae04      	add	r6, sp, #16
   22222:	2502      	movs	r5, #2
   22224:	7235      	strb	r5, [r6, #8]
   22226:	4630      	mov	r0, r6
   22228:	300c      	adds	r0, #12
   2222a:	221a      	movs	r2, #26
   2222c:	9202      	str	r2, [sp, #8]
   2222e:	f004 fd34 	bl	26c9a <__aeabi_memcpy>
   22232:	ac0e      	add	r4, sp, #56	@ 0x38
   22234:	4620      	mov	r0, r4
   22236:	300c      	adds	r0, #12
   22238:	2150      	movs	r1, #80	@ 0x50
   2223a:	9001      	str	r0, [sp, #4]
   2223c:	f004 fb80 	bl	26940 <__aeabi_memclr4>
   22240:	7225      	strb	r5, [r4, #8]
   22242:	2007      	movs	r0, #7
   22244:	9000      	str	r0, [sp, #0]
   22246:	2504      	movs	r5, #4
   22248:	4c1b      	ldr	r4, [pc, #108]	@ (222b8 <_ZN20complex_full_dynamic3app17h932f88e2ddacd353E+0xa0>)
   2224a:	4630      	mov	r0, r6
   2224c:	9902      	ldr	r1, [sp, #8]
   2224e:	462a      	mov	r2, r5
   22250:	4623      	mov	r3, r4
   22252:	f7fd ff47 	bl	200e4 <_ZN9allow_pin12full_dynamic15Buffer$LT$B$GT$5allow17hcdfd34cf7b1c64cdE>
   22256:	07c0      	lsls	r0, r0, #31
   22258:	d110      	bne.n	2227c <_ZN20complex_full_dynamic3app17h932f88e2ddacd353E+0x64>
   2225a:	9500      	str	r5, [sp, #0]
   2225c:	a80e      	add	r0, sp, #56	@ 0x38
   2225e:	2150      	movs	r1, #80	@ 0x50
   22260:	2203      	movs	r2, #3
   22262:	4623      	mov	r3, r4
   22264:	f7fd ff3e 	bl	200e4 <_ZN9allow_pin12full_dynamic15Buffer$LT$B$GT$5allow17hcdfd34cf7b1c64cdE>
   22268:	07c0      	lsls	r0, r0, #31
   2226a:	d107      	bne.n	2227c <_ZN20complex_full_dynamic3app17h932f88e2ddacd353E+0x64>
   2226c:	4812      	ldr	r0, [pc, #72]	@ (222b8 <_ZN20complex_full_dynamic3app17h932f88e2ddacd353E+0xa0>)
   2226e:	2107      	movs	r1, #7
   22270:	2204      	movs	r2, #4
   22272:	2600      	movs	r6, #0
   22274:	4633      	mov	r3, r6
   22276:	df02      	svc	2
   22278:	287f      	cmp	r0, #127	@ 0x7f
   2227a:	d80b      	bhi.n	22294 <_ZN20complex_full_dynamic3app17h932f88e2ddacd353E+0x7c>
   2227c:	9c03      	ldr	r4, [sp, #12]
   2227e:	6061      	str	r1, [r4, #4]
   22280:	2601      	movs	r6, #1
   22282:	7026      	strb	r6, [r4, #0]
   22284:	a80e      	add	r0, sp, #56	@ 0x38
   22286:	f004 fb47 	bl	26918 <_ZN9allow_pin12full_dynamic17unshare_if_shared17h2809d14697b066c7E>
   2228a:	a804      	add	r0, sp, #16
   2228c:	f004 fb44 	bl	26918 <_ZN9allow_pin12full_dynamic17unshare_if_shared17h2809d14697b066c7E>
   22290:	b025      	add	sp, #148	@ 0x94
   22292:	bdf0      	pop	{r4, r5, r6, r7, pc}
   22294:	a804      	add	r0, sp, #16
   22296:	f004 fb3f 	bl	26918 <_ZN9allow_pin12full_dynamic17unshare_if_shared17h2809d14697b066c7E>
   2229a:	ac0e      	add	r4, sp, #56	@ 0x38
   2229c:	4620      	mov	r0, r4
   2229e:	f004 fb3b 	bl	26918 <_ZN9allow_pin12full_dynamic17unshare_if_shared17h2809d14697b066c7E>
   222a2:	4620      	mov	r0, r4
   222a4:	f004 fb38 	bl	26918 <_ZN9allow_pin12full_dynamic17unshare_if_shared17h2809d14697b066c7E>
   222a8:	9c03      	ldr	r4, [sp, #12]
   222aa:	1c60      	adds	r0, r4, #1
   222ac:	2250      	movs	r2, #80	@ 0x50
   222ae:	9901      	ldr	r1, [sp, #4]
   222b0:	f004 fcf3 	bl	26c9a <__aeabi_memcpy>
   222b4:	e7e5      	b.n	22282 <_ZN20complex_full_dynamic3app17h932f88e2ddacd353E+0x6a>
   222b6:	46c0      	nop			@ (mov r8, r8)
   222b8:	00000aee 	.word	0x00000aee

000222bc <_ZN20complex_full_dynamic3app17h96b018634d4db85cE>:
   222bc:	b5f0      	push	{r4, r5, r6, r7, lr}
   222be:	af03      	add	r7, sp, #12
   222c0:	b0a5      	sub	sp, #148	@ 0x94
   222c2:	9004      	str	r0, [sp, #16]
   222c4:	ae05      	add	r6, sp, #20
   222c6:	2502      	movs	r5, #2
   222c8:	7235      	strb	r5, [r6, #8]
   222ca:	4630      	mov	r0, r6
   222cc:	300c      	adds	r0, #12
   222ce:	2244      	movs	r2, #68	@ 0x44
   222d0:	9203      	str	r2, [sp, #12]
   222d2:	f004 fce2 	bl	26c9a <__aeabi_memcpy>
   222d6:	ac19      	add	r4, sp, #100	@ 0x64
   222d8:	4620      	mov	r0, r4
   222da:	300c      	adds	r0, #12
   222dc:	2123      	movs	r1, #35	@ 0x23
   222de:	9002      	str	r0, [sp, #8]
   222e0:	f004 fb2e 	bl	26940 <__aeabi_memclr4>
   222e4:	7225      	strb	r5, [r4, #8]
   222e6:	2006      	movs	r0, #6
   222e8:	9000      	str	r0, [sp, #0]
   222ea:	2204      	movs	r2, #4
   222ec:	4c1a      	ldr	r4, [pc, #104]	@ (22358 <_ZN20complex_full_dynamic3app17h96b018634d4db85cE+0x9c>)
   222ee:	4630      	mov	r0, r6
   222f0:	9903      	ldr	r1, [sp, #12]
   222f2:	4623      	mov	r3, r4
   222f4:	f7fd fef6 	bl	200e4 <_ZN9allow_pin12full_dynamic15Buffer$LT$B$GT$5allow17hcdfd34cf7b1c64cdE>
   222f8:	07c0      	lsls	r0, r0, #31
   222fa:	d110      	bne.n	2231e <_ZN20complex_full_dynamic3app17h96b018634d4db85cE+0x62>
   222fc:	2203      	movs	r2, #3
   222fe:	9200      	str	r2, [sp, #0]
   22300:	a819      	add	r0, sp, #100	@ 0x64
   22302:	2123      	movs	r1, #35	@ 0x23
   22304:	4623      	mov	r3, r4
   22306:	f7fd feed 	bl	200e4 <_ZN9allow_pin12full_dynamic15Buffer$LT$B$GT$5allow17hcdfd34cf7b1c64cdE>
   2230a:	07c0      	lsls	r0, r0, #31
   2230c:	d107      	bne.n	2231e <_ZN20complex_full_dynamic3app17h96b018634d4db85cE+0x62>
   2230e:	4812      	ldr	r0, [pc, #72]	@ (22358 <_ZN20complex_full_dynamic3app17h96b018634d4db85cE+0x9c>)
   22310:	2106      	movs	r1, #6
   22312:	2203      	movs	r2, #3
   22314:	2600      	movs	r6, #0
   22316:	4633      	mov	r3, r6
   22318:	df02      	svc	2
   2231a:	287f      	cmp	r0, #127	@ 0x7f
   2231c:	d80b      	bhi.n	22336 <_ZN20complex_full_dynamic3app17h96b018634d4db85cE+0x7a>
   2231e:	9c04      	ldr	r4, [sp, #16]
   22320:	6061      	str	r1, [r4, #4]
   22322:	2601      	movs	r6, #1
   22324:	7026      	strb	r6, [r4, #0]
   22326:	a819      	add	r0, sp, #100	@ 0x64
   22328:	f004 faf6 	bl	26918 <_ZN9allow_pin12full_dynamic17unshare_if_shared17h2809d14697b066c7E>
   2232c:	a805      	add	r0, sp, #20
   2232e:	f004 faf3 	bl	26918 <_ZN9allow_pin12full_dynamic17unshare_if_shared17h2809d14697b066c7E>
   22332:	b025      	add	sp, #148	@ 0x94
   22334:	bdf0      	pop	{r4, r5, r6, r7, pc}
   22336:	a805      	add	r0, sp, #20
   22338:	f004 faee 	bl	26918 <_ZN9allow_pin12full_dynamic17unshare_if_shared17h2809d14697b066c7E>
   2233c:	ac19      	add	r4, sp, #100	@ 0x64
   2233e:	4620      	mov	r0, r4
   22340:	f004 faea 	bl	26918 <_ZN9allow_pin12full_dynamic17unshare_if_shared17h2809d14697b066c7E>
   22344:	4620      	mov	r0, r4
   22346:	f004 fae7 	bl	26918 <_ZN9allow_pin12full_dynamic17unshare_if_shared17h2809d14697b066c7E>
   2234a:	9c04      	ldr	r4, [sp, #16]
   2234c:	1c60      	adds	r0, r4, #1
   2234e:	2223      	movs	r2, #35	@ 0x23
   22350:	9902      	ldr	r1, [sp, #8]
   22352:	f004 fca2 	bl	26c9a <__aeabi_memcpy>
   22356:	e7e5      	b.n	22324 <_ZN20complex_full_dynamic3app17h96b018634d4db85cE+0x68>
   22358:	000009bf 	.word	0x000009bf

0002235c <_ZN20complex_full_dynamic3app17h9800bf847526293cE>:
   2235c:	b5f0      	push	{r4, r5, r6, r7, lr}
   2235e:	af03      	add	r7, sp, #12
   22360:	b0ad      	sub	sp, #180	@ 0xb4
   22362:	9004      	str	r0, [sp, #16]
   22364:	ae05      	add	r6, sp, #20
   22366:	2502      	movs	r5, #2
   22368:	7235      	strb	r5, [r6, #8]
   2236a:	4630      	mov	r0, r6
   2236c:	300c      	adds	r0, #12
   2236e:	224f      	movs	r2, #79	@ 0x4f
   22370:	9203      	str	r2, [sp, #12]
   22372:	f004 fc92 	bl	26c9a <__aeabi_memcpy>
   22376:	ac1c      	add	r4, sp, #112	@ 0x70
   22378:	4620      	mov	r0, r4
   2237a:	300c      	adds	r0, #12
   2237c:	2135      	movs	r1, #53	@ 0x35
   2237e:	9002      	str	r0, [sp, #8]
   22380:	f004 fade 	bl	26940 <__aeabi_memclr4>
   22384:	7225      	strb	r5, [r4, #8]
   22386:	2007      	movs	r0, #7
   22388:	9000      	str	r0, [sp, #0]
   2238a:	2204      	movs	r2, #4
   2238c:	4c1b      	ldr	r4, [pc, #108]	@ (223fc <_ZN20complex_full_dynamic3app17h9800bf847526293cE+0xa0>)
   2238e:	4630      	mov	r0, r6
   22390:	9903      	ldr	r1, [sp, #12]
   22392:	4623      	mov	r3, r4
   22394:	f7fd fea6 	bl	200e4 <_ZN9allow_pin12full_dynamic15Buffer$LT$B$GT$5allow17hcdfd34cf7b1c64cdE>
   22398:	07c0      	lsls	r0, r0, #31
   2239a:	d111      	bne.n	223c0 <_ZN20complex_full_dynamic3app17h9800bf847526293cE+0x64>
   2239c:	2001      	movs	r0, #1
   2239e:	9000      	str	r0, [sp, #0]
   223a0:	a81c      	add	r0, sp, #112	@ 0x70
   223a2:	2135      	movs	r1, #53	@ 0x35
   223a4:	2203      	movs	r2, #3
   223a6:	4623      	mov	r3, r4
   223a8:	f7fd fe9c 	bl	200e4 <_ZN9allow_pin12full_dynamic15Buffer$LT$B$GT$5allow17hcdfd34cf7b1c64cdE>
   223ac:	07c0      	lsls	r0, r0, #31
   223ae:	d107      	bne.n	223c0 <_ZN20complex_full_dynamic3app17h9800bf847526293cE+0x64>
   223b0:	4812      	ldr	r0, [pc, #72]	@ (223fc <_ZN20complex_full_dynamic3app17h9800bf847526293cE+0xa0>)
   223b2:	2107      	movs	r1, #7
   223b4:	2201      	movs	r2, #1
   223b6:	2600      	movs	r6, #0
   223b8:	4633      	mov	r3, r6
   223ba:	df02      	svc	2
   223bc:	287f      	cmp	r0, #127	@ 0x7f
   223be:	d80b      	bhi.n	223d8 <_ZN20complex_full_dynamic3app17h9800bf847526293cE+0x7c>
   223c0:	9c04      	ldr	r4, [sp, #16]
   223c2:	6061      	str	r1, [r4, #4]
   223c4:	2601      	movs	r6, #1
   223c6:	7026      	strb	r6, [r4, #0]
   223c8:	a81c      	add	r0, sp, #112	@ 0x70
   223ca:	f004 faa5 	bl	26918 <_ZN9allow_pin12full_dynamic17unshare_if_shared17h2809d14697b066c7E>
   223ce:	a805      	add	r0, sp, #20
   223d0:	f004 faa2 	bl	26918 <_ZN9allow_pin12full_dynamic17unshare_if_shared17h2809d14697b066c7E>
   223d4:	b02d      	add	sp, #180	@ 0xb4
   223d6:	bdf0      	pop	{r4, r5, r6, r7, pc}
   223d8:	a805      	add	r0, sp, #20
   223da:	f004 fa9d 	bl	26918 <_ZN9allow_pin12full_dynamic17unshare_if_shared17h2809d14697b066c7E>
   223de:	ac1c      	add	r4, sp, #112	@ 0x70
   223e0:	4620      	mov	r0, r4
   223e2:	f004 fa99 	bl	26918 <_ZN9allow_pin12full_dynamic17unshare_if_shared17h2809d14697b066c7E>
   223e6:	4620      	mov	r0, r4
   223e8:	f004 fa96 	bl	26918 <_ZN9allow_pin12full_dynamic17unshare_if_shared17h2809d14697b066c7E>
   223ec:	9c04      	ldr	r4, [sp, #16]
   223ee:	1c60      	adds	r0, r4, #1
   223f0:	2235      	movs	r2, #53	@ 0x35
   223f2:	9902      	ldr	r1, [sp, #8]
   223f4:	f004 fc51 	bl	26c9a <__aeabi_memcpy>
   223f8:	e7e5      	b.n	223c6 <_ZN20complex_full_dynamic3app17h9800bf847526293cE+0x6a>
   223fa:	46c0      	nop			@ (mov r8, r8)
   223fc:	000016d7 	.word	0x000016d7

00022400 <_ZN20complex_full_dynamic3app17h99baa38c85bc8e53E>:
   22400:	b5f0      	push	{r4, r5, r6, r7, lr}
   22402:	af03      	add	r7, sp, #12
   22404:	b09b      	sub	sp, #108	@ 0x6c
   22406:	9003      	str	r0, [sp, #12]
   22408:	ae04      	add	r6, sp, #16
   2240a:	2402      	movs	r4, #2
   2240c:	7234      	strb	r4, [r6, #8]
   2240e:	4630      	mov	r0, r6
   22410:	300c      	adds	r0, #12
   22412:	2532      	movs	r5, #50	@ 0x32
   22414:	462a      	mov	r2, r5
   22416:	f004 fc40 	bl	26c9a <__aeabi_memcpy>
   2241a:	a814      	add	r0, sp, #80	@ 0x50
   2241c:	9002      	str	r0, [sp, #8]
   2241e:	7204      	strb	r4, [r0, #8]
   22420:	2000      	movs	r0, #0
   22422:	901a      	str	r0, [sp, #104]	@ 0x68
   22424:	9019      	str	r0, [sp, #100]	@ 0x64
   22426:	9018      	str	r0, [sp, #96]	@ 0x60
   22428:	9017      	str	r0, [sp, #92]	@ 0x5c
   2242a:	2204      	movs	r2, #4
   2242c:	9200      	str	r2, [sp, #0]
   2242e:	4c1c      	ldr	r4, [pc, #112]	@ (224a0 <_ZN20complex_full_dynamic3app17h99baa38c85bc8e53E+0xa0>)
   22430:	4630      	mov	r0, r6
   22432:	4629      	mov	r1, r5
   22434:	4623      	mov	r3, r4
   22436:	f7fd fe55 	bl	200e4 <_ZN9allow_pin12full_dynamic15Buffer$LT$B$GT$5allow17hcdfd34cf7b1c64cdE>
   2243a:	07c0      	lsls	r0, r0, #31
   2243c:	d111      	bne.n	22462 <_ZN20complex_full_dynamic3app17h99baa38c85bc8e53E+0x62>
   2243e:	2009      	movs	r0, #9
   22440:	9000      	str	r0, [sp, #0]
   22442:	a814      	add	r0, sp, #80	@ 0x50
   22444:	2110      	movs	r1, #16
   22446:	2203      	movs	r2, #3
   22448:	4623      	mov	r3, r4
   2244a:	f7fd fe4b 	bl	200e4 <_ZN9allow_pin12full_dynamic15Buffer$LT$B$GT$5allow17hcdfd34cf7b1c64cdE>
   2244e:	07c0      	lsls	r0, r0, #31
   22450:	d107      	bne.n	22462 <_ZN20complex_full_dynamic3app17h99baa38c85bc8e53E+0x62>
   22452:	4813      	ldr	r0, [pc, #76]	@ (224a0 <_ZN20complex_full_dynamic3app17h99baa38c85bc8e53E+0xa0>)
   22454:	2104      	movs	r1, #4
   22456:	2209      	movs	r2, #9
   22458:	2600      	movs	r6, #0
   2245a:	4633      	mov	r3, r6
   2245c:	df02      	svc	2
   2245e:	287f      	cmp	r0, #127	@ 0x7f
   22460:	d80b      	bhi.n	2247a <_ZN20complex_full_dynamic3app17h99baa38c85bc8e53E+0x7a>
   22462:	9c03      	ldr	r4, [sp, #12]
   22464:	6061      	str	r1, [r4, #4]
   22466:	2601      	movs	r6, #1
   22468:	7026      	strb	r6, [r4, #0]
   2246a:	a814      	add	r0, sp, #80	@ 0x50
   2246c:	f004 fa54 	bl	26918 <_ZN9allow_pin12full_dynamic17unshare_if_shared17h2809d14697b066c7E>
   22470:	a804      	add	r0, sp, #16
   22472:	f004 fa51 	bl	26918 <_ZN9allow_pin12full_dynamic17unshare_if_shared17h2809d14697b066c7E>
   22476:	b01b      	add	sp, #108	@ 0x6c
   22478:	bdf0      	pop	{r4, r5, r6, r7, pc}
   2247a:	9d02      	ldr	r5, [sp, #8]
   2247c:	350c      	adds	r5, #12
   2247e:	a804      	add	r0, sp, #16
   22480:	f004 fa4a 	bl	26918 <_ZN9allow_pin12full_dynamic17unshare_if_shared17h2809d14697b066c7E>
   22484:	ac14      	add	r4, sp, #80	@ 0x50
   22486:	4620      	mov	r0, r4
   22488:	f004 fa46 	bl	26918 <_ZN9allow_pin12full_dynamic17unshare_if_shared17h2809d14697b066c7E>
   2248c:	4620      	mov	r0, r4
   2248e:	f004 fa43 	bl	26918 <_ZN9allow_pin12full_dynamic17unshare_if_shared17h2809d14697b066c7E>
   22492:	9c03      	ldr	r4, [sp, #12]
   22494:	1c60      	adds	r0, r4, #1
   22496:	2210      	movs	r2, #16
   22498:	4629      	mov	r1, r5
   2249a:	f004 fbfe 	bl	26c9a <__aeabi_memcpy>
   2249e:	e7e3      	b.n	22468 <_ZN20complex_full_dynamic3app17h99baa38c85bc8e53E+0x68>
   224a0:	000019d6 	.word	0x000019d6

000224a4 <_ZN20complex_full_dynamic3app17h9ec2d0bfa7476e2dE>:
   224a4:	b5f0      	push	{r4, r5, r6, r7, lr}
   224a6:	af03      	add	r7, sp, #12
   224a8:	b0a9      	sub	sp, #164	@ 0xa4
   224aa:	9003      	str	r0, [sp, #12]
   224ac:	ae04      	add	r6, sp, #16
   224ae:	2502      	movs	r5, #2
   224b0:	7235      	strb	r5, [r6, #8]
   224b2:	4630      	mov	r0, r6
   224b4:	300c      	adds	r0, #12
   224b6:	224a      	movs	r2, #74	@ 0x4a
   224b8:	9202      	str	r2, [sp, #8]
   224ba:	f004 fbee 	bl	26c9a <__aeabi_memcpy>
   224be:	ac1a      	add	r4, sp, #104	@ 0x68
   224c0:	4620      	mov	r0, r4
   224c2:	300c      	adds	r0, #12
   224c4:	212d      	movs	r1, #45	@ 0x2d
   224c6:	9001      	str	r0, [sp, #4]
   224c8:	f004 fa3a 	bl	26940 <__aeabi_memclr4>
   224cc:	7225      	strb	r5, [r4, #8]
   224ce:	9500      	str	r5, [sp, #0]
   224d0:	2204      	movs	r2, #4
   224d2:	4c1b      	ldr	r4, [pc, #108]	@ (22540 <_ZN20complex_full_dynamic3app17h9ec2d0bfa7476e2dE+0x9c>)
   224d4:	4630      	mov	r0, r6
   224d6:	9902      	ldr	r1, [sp, #8]
   224d8:	4623      	mov	r3, r4
   224da:	f7fd fe03 	bl	200e4 <_ZN9allow_pin12full_dynamic15Buffer$LT$B$GT$5allow17hcdfd34cf7b1c64cdE>
   224de:	07c0      	lsls	r0, r0, #31
   224e0:	d110      	bne.n	22504 <_ZN20complex_full_dynamic3app17h9ec2d0bfa7476e2dE+0x60>
   224e2:	2203      	movs	r2, #3
   224e4:	9200      	str	r2, [sp, #0]
   224e6:	a81a      	add	r0, sp, #104	@ 0x68
   224e8:	212d      	movs	r1, #45	@ 0x2d
   224ea:	4623      	mov	r3, r4
   224ec:	f7fd fdfa 	bl	200e4 <_ZN9allow_pin12full_dynamic15Buffer$LT$B$GT$5allow17hcdfd34cf7b1c64cdE>
   224f0:	07c0      	lsls	r0, r0, #31
   224f2:	d107      	bne.n	22504 <_ZN20complex_full_dynamic3app17h9ec2d0bfa7476e2dE+0x60>
   224f4:	4812      	ldr	r0, [pc, #72]	@ (22540 <_ZN20complex_full_dynamic3app17h9ec2d0bfa7476e2dE+0x9c>)
   224f6:	2102      	movs	r1, #2
   224f8:	2203      	movs	r2, #3
   224fa:	2600      	movs	r6, #0
   224fc:	4633      	mov	r3, r6
   224fe:	df02      	svc	2
   22500:	287f      	cmp	r0, #127	@ 0x7f
   22502:	d80b      	bhi.n	2251c <_ZN20complex_full_dynamic3app17h9ec2d0bfa7476e2dE+0x78>
   22504:	9c03      	ldr	r4, [sp, #12]
   22506:	6061      	str	r1, [r4, #4]
   22508:	2601      	movs	r6, #1
   2250a:	7026      	strb	r6, [r4, #0]
   2250c:	a81a      	add	r0, sp, #104	@ 0x68
   2250e:	f004 fa03 	bl	26918 <_ZN9allow_pin12full_dynamic17unshare_if_shared17h2809d14697b066c7E>
   22512:	a804      	add	r0, sp, #16
   22514:	f004 fa00 	bl	26918 <_ZN9allow_pin12full_dynamic17unshare_if_shared17h2809d14697b066c7E>
   22518:	b029      	add	sp, #164	@ 0xa4
   2251a:	bdf0      	pop	{r4, r5, r6, r7, pc}
   2251c:	a804      	add	r0, sp, #16
   2251e:	f004 f9fb 	bl	26918 <_ZN9allow_pin12full_dynamic17unshare_if_shared17h2809d14697b066c7E>
   22522:	ac1a      	add	r4, sp, #104	@ 0x68
   22524:	4620      	mov	r0, r4
   22526:	f004 f9f7 	bl	26918 <_ZN9allow_pin12full_dynamic17unshare_if_shared17h2809d14697b066c7E>
   2252a:	4620      	mov	r0, r4
   2252c:	f004 f9f4 	bl	26918 <_ZN9allow_pin12full_dynamic17unshare_if_shared17h2809d14697b066c7E>
   22530:	9c03      	ldr	r4, [sp, #12]
   22532:	1c60      	adds	r0, r4, #1
   22534:	222d      	movs	r2, #45	@ 0x2d
   22536:	9901      	ldr	r1, [sp, #4]
   22538:	f004 fbaf 	bl	26c9a <__aeabi_memcpy>
   2253c:	e7e5      	b.n	2250a <_ZN20complex_full_dynamic3app17h9ec2d0bfa7476e2dE+0x66>
   2253e:	46c0      	nop			@ (mov r8, r8)
   22540:	00000e3d 	.word	0x00000e3d

00022544 <_ZN20complex_full_dynamic3app17ha1584cc48e386611E>:
   22544:	b5f0      	push	{r4, r5, r6, r7, lr}
   22546:	af03      	add	r7, sp, #12
   22548:	b09f      	sub	sp, #124	@ 0x7c
   2254a:	9004      	str	r0, [sp, #16]
   2254c:	ae05      	add	r6, sp, #20
   2254e:	2502      	movs	r5, #2
   22550:	7235      	strb	r5, [r6, #8]
   22552:	4630      	mov	r0, r6
   22554:	300c      	adds	r0, #12
   22556:	2234      	movs	r2, #52	@ 0x34
   22558:	9203      	str	r2, [sp, #12]
   2255a:	f004 fb9e 	bl	26c9a <__aeabi_memcpy>
   2255e:	ac15      	add	r4, sp, #84	@ 0x54
   22560:	4620      	mov	r0, r4
   22562:	300c      	adds	r0, #12
   22564:	211a      	movs	r1, #26
   22566:	9002      	str	r0, [sp, #8]
   22568:	f004 f9ea 	bl	26940 <__aeabi_memclr4>
   2256c:	7225      	strb	r5, [r4, #8]
   2256e:	2000      	movs	r0, #0
   22570:	9000      	str	r0, [sp, #0]
   22572:	2204      	movs	r2, #4
   22574:	4c1b      	ldr	r4, [pc, #108]	@ (225e4 <_ZN20complex_full_dynamic3app17ha1584cc48e386611E+0xa0>)
   22576:	4630      	mov	r0, r6
   22578:	9903      	ldr	r1, [sp, #12]
   2257a:	4623      	mov	r3, r4
   2257c:	f7fd fdb2 	bl	200e4 <_ZN9allow_pin12full_dynamic15Buffer$LT$B$GT$5allow17hcdfd34cf7b1c64cdE>
   22580:	07c0      	lsls	r0, r0, #31
   22582:	d111      	bne.n	225a8 <_ZN20complex_full_dynamic3app17ha1584cc48e386611E+0x64>
   22584:	2005      	movs	r0, #5
   22586:	9000      	str	r0, [sp, #0]
   22588:	a815      	add	r0, sp, #84	@ 0x54
   2258a:	211a      	movs	r1, #26
   2258c:	2203      	movs	r2, #3
   2258e:	4623      	mov	r3, r4
   22590:	f7fd fda8 	bl	200e4 <_ZN9allow_pin12full_dynamic15Buffer$LT$B$GT$5allow17hcdfd34cf7b1c64cdE>
   22594:	07c0      	lsls	r0, r0, #31
   22596:	d107      	bne.n	225a8 <_ZN20complex_full_dynamic3app17ha1584cc48e386611E+0x64>
   22598:	4812      	ldr	r0, [pc, #72]	@ (225e4 <_ZN20complex_full_dynamic3app17ha1584cc48e386611E+0xa0>)
   2259a:	2205      	movs	r2, #5
   2259c:	2600      	movs	r6, #0
   2259e:	4631      	mov	r1, r6
   225a0:	4633      	mov	r3, r6
   225a2:	df02      	svc	2
   225a4:	287f      	cmp	r0, #127	@ 0x7f
   225a6:	d80b      	bhi.n	225c0 <_ZN20complex_full_dynamic3app17ha1584cc48e386611E+0x7c>
   225a8:	9c04      	ldr	r4, [sp, #16]
   225aa:	6061      	str	r1, [r4, #4]
   225ac:	2601      	movs	r6, #1
   225ae:	7026      	strb	r6, [r4, #0]
   225b0:	a815      	add	r0, sp, #84	@ 0x54
   225b2:	f004 f9b1 	bl	26918 <_ZN9allow_pin12full_dynamic17unshare_if_shared17h2809d14697b066c7E>
   225b6:	a805      	add	r0, sp, #20
   225b8:	f004 f9ae 	bl	26918 <_ZN9allow_pin12full_dynamic17unshare_if_shared17h2809d14697b066c7E>
   225bc:	b01f      	add	sp, #124	@ 0x7c
   225be:	bdf0      	pop	{r4, r5, r6, r7, pc}
   225c0:	a805      	add	r0, sp, #20
   225c2:	f004 f9a9 	bl	26918 <_ZN9allow_pin12full_dynamic17unshare_if_shared17h2809d14697b066c7E>
   225c6:	ac15      	add	r4, sp, #84	@ 0x54
   225c8:	4620      	mov	r0, r4
   225ca:	f004 f9a5 	bl	26918 <_ZN9allow_pin12full_dynamic17unshare_if_shared17h2809d14697b066c7E>
   225ce:	4620      	mov	r0, r4
   225d0:	f004 f9a2 	bl	26918 <_ZN9allow_pin12full_dynamic17unshare_if_shared17h2809d14697b066c7E>
   225d4:	9c04      	ldr	r4, [sp, #16]
   225d6:	1c60      	adds	r0, r4, #1
   225d8:	221a      	movs	r2, #26
   225da:	9902      	ldr	r1, [sp, #8]
   225dc:	f004 fb5d 	bl	26c9a <__aeabi_memcpy>
   225e0:	e7e5      	b.n	225ae <_ZN20complex_full_dynamic3app17ha1584cc48e386611E+0x6a>
   225e2:	46c0      	nop			@ (mov r8, r8)
   225e4:	000012cc 	.word	0x000012cc

000225e8 <_ZN20complex_full_dynamic3app17ha60ffe2d471c5a31E>:
   225e8:	b5f0      	push	{r4, r5, r6, r7, lr}
   225ea:	af03      	add	r7, sp, #12
   225ec:	b0ad      	sub	sp, #180	@ 0xb4
   225ee:	9004      	str	r0, [sp, #16]
   225f0:	ae05      	add	r6, sp, #20
   225f2:	2502      	movs	r5, #2
   225f4:	7235      	strb	r5, [r6, #8]
   225f6:	4630      	mov	r0, r6
   225f8:	300c      	adds	r0, #12
   225fa:	222a      	movs	r2, #42	@ 0x2a
   225fc:	9203      	str	r2, [sp, #12]
   225fe:	f004 fb4c 	bl	26c9a <__aeabi_memcpy>
   22602:	ac13      	add	r4, sp, #76	@ 0x4c
   22604:	4620      	mov	r0, r4
   22606:	300c      	adds	r0, #12
   22608:	2159      	movs	r1, #89	@ 0x59
   2260a:	9002      	str	r0, [sp, #8]
   2260c:	f004 f998 	bl	26940 <__aeabi_memclr4>
   22610:	7225      	strb	r5, [r4, #8]
   22612:	2501      	movs	r5, #1
   22614:	9500      	str	r5, [sp, #0]
   22616:	2204      	movs	r2, #4
   22618:	4c1a      	ldr	r4, [pc, #104]	@ (22684 <_ZN20complex_full_dynamic3app17ha60ffe2d471c5a31E+0x9c>)
   2261a:	4630      	mov	r0, r6
   2261c:	9903      	ldr	r1, [sp, #12]
   2261e:	4623      	mov	r3, r4
   22620:	f7fd fd60 	bl	200e4 <_ZN9allow_pin12full_dynamic15Buffer$LT$B$GT$5allow17hcdfd34cf7b1c64cdE>
   22624:	07c0      	lsls	r0, r0, #31
   22626:	d110      	bne.n	2264a <_ZN20complex_full_dynamic3app17ha60ffe2d471c5a31E+0x62>
   22628:	2203      	movs	r2, #3
   2262a:	9200      	str	r2, [sp, #0]
   2262c:	a813      	add	r0, sp, #76	@ 0x4c
   2262e:	2159      	movs	r1, #89	@ 0x59
   22630:	4623      	mov	r3, r4
   22632:	f7fd fd57 	bl	200e4 <_ZN9allow_pin12full_dynamic15Buffer$LT$B$GT$5allow17hcdfd34cf7b1c64cdE>
   22636:	07c0      	lsls	r0, r0, #31
   22638:	d107      	bne.n	2264a <_ZN20complex_full_dynamic3app17ha60ffe2d471c5a31E+0x62>
   2263a:	4812      	ldr	r0, [pc, #72]	@ (22684 <_ZN20complex_full_dynamic3app17ha60ffe2d471c5a31E+0x9c>)
   2263c:	2101      	movs	r1, #1
   2263e:	2203      	movs	r2, #3
   22640:	2600      	movs	r6, #0
   22642:	4633      	mov	r3, r6
   22644:	df02      	svc	2
   22646:	287f      	cmp	r0, #127	@ 0x7f
   22648:	d80a      	bhi.n	22660 <_ZN20complex_full_dynamic3app17ha60ffe2d471c5a31E+0x78>
   2264a:	9c04      	ldr	r4, [sp, #16]
   2264c:	6061      	str	r1, [r4, #4]
   2264e:	7025      	strb	r5, [r4, #0]
   22650:	a813      	add	r0, sp, #76	@ 0x4c
   22652:	f004 f961 	bl	26918 <_ZN9allow_pin12full_dynamic17unshare_if_shared17h2809d14697b066c7E>
   22656:	a805      	add	r0, sp, #20
   22658:	f004 f95e 	bl	26918 <_ZN9allow_pin12full_dynamic17unshare_if_shared17h2809d14697b066c7E>
   2265c:	b02d      	add	sp, #180	@ 0xb4
   2265e:	bdf0      	pop	{r4, r5, r6, r7, pc}
   22660:	a805      	add	r0, sp, #20
   22662:	f004 f959 	bl	26918 <_ZN9allow_pin12full_dynamic17unshare_if_shared17h2809d14697b066c7E>
   22666:	ac13      	add	r4, sp, #76	@ 0x4c
   22668:	4620      	mov	r0, r4
   2266a:	f004 f955 	bl	26918 <_ZN9allow_pin12full_dynamic17unshare_if_shared17h2809d14697b066c7E>
   2266e:	4620      	mov	r0, r4
   22670:	f004 f952 	bl	26918 <_ZN9allow_pin12full_dynamic17unshare_if_shared17h2809d14697b066c7E>
   22674:	9c04      	ldr	r4, [sp, #16]
   22676:	1c60      	adds	r0, r4, #1
   22678:	2259      	movs	r2, #89	@ 0x59
   2267a:	9902      	ldr	r1, [sp, #8]
   2267c:	f004 fb0d 	bl	26c9a <__aeabi_memcpy>
   22680:	4635      	mov	r5, r6
   22682:	e7e4      	b.n	2264e <_ZN20complex_full_dynamic3app17ha60ffe2d471c5a31E+0x66>
   22684:	00000ed2 	.word	0x00000ed2

00022688 <_ZN20complex_full_dynamic3app17ha77d01417b317be4E>:
   22688:	b5f0      	push	{r4, r5, r6, r7, lr}
   2268a:	af03      	add	r7, sp, #12
   2268c:	b09d      	sub	sp, #116	@ 0x74
   2268e:	9003      	str	r0, [sp, #12]
   22690:	ae04      	add	r6, sp, #16
   22692:	2502      	movs	r5, #2
   22694:	7235      	strb	r5, [r6, #8]
   22696:	4630      	mov	r0, r6
   22698:	300c      	adds	r0, #12
   2269a:	222b      	movs	r2, #43	@ 0x2b
   2269c:	9202      	str	r2, [sp, #8]
   2269e:	f004 fafc 	bl	26c9a <__aeabi_memcpy>
   226a2:	ac12      	add	r4, sp, #72	@ 0x48
   226a4:	4620      	mov	r0, r4
   226a6:	300c      	adds	r0, #12
   226a8:	211e      	movs	r1, #30
   226aa:	9001      	str	r0, [sp, #4]
   226ac:	f004 f948 	bl	26940 <__aeabi_memclr4>
   226b0:	7225      	strb	r5, [r4, #8]
   226b2:	2007      	movs	r0, #7
   226b4:	9000      	str	r0, [sp, #0]
   226b6:	2204      	movs	r2, #4
   226b8:	4c1b      	ldr	r4, [pc, #108]	@ (22728 <_ZN20complex_full_dynamic3app17ha77d01417b317be4E+0xa0>)
   226ba:	4630      	mov	r0, r6
   226bc:	9902      	ldr	r1, [sp, #8]
   226be:	4623      	mov	r3, r4
   226c0:	f7fd fd10 	bl	200e4 <_ZN9allow_pin12full_dynamic15Buffer$LT$B$GT$5allow17hcdfd34cf7b1c64cdE>
   226c4:	07c0      	lsls	r0, r0, #31
   226c6:	d111      	bne.n	226ec <_ZN20complex_full_dynamic3app17ha77d01417b317be4E+0x64>
   226c8:	2008      	movs	r0, #8
   226ca:	9000      	str	r0, [sp, #0]
   226cc:	a812      	add	r0, sp, #72	@ 0x48
   226ce:	211e      	movs	r1, #30
   226d0:	2203      	movs	r2, #3
   226d2:	4623      	mov	r3, r4
   226d4:	f7fd fd06 	bl	200e4 <_ZN9allow_pin12full_dynamic15Buffer$LT$B$GT$5allow17hcdfd34cf7b1c64cdE>
   226d8:	07c0      	lsls	r0, r0, #31
   226da:	d107      	bne.n	226ec <_ZN20complex_full_dynamic3app17ha77d01417b317be4E+0x64>
   226dc:	4812      	ldr	r0, [pc, #72]	@ (22728 <_ZN20complex_full_dynamic3app17ha77d01417b317be4E+0xa0>)
   226de:	2107      	movs	r1, #7
   226e0:	2208      	movs	r2, #8
   226e2:	2600      	movs	r6, #0
   226e4:	4633      	mov	r3, r6
   226e6:	df02      	svc	2
   226e8:	287f      	cmp	r0, #127	@ 0x7f
   226ea:	d80b      	bhi.n	22704 <_ZN20complex_full_dynamic3app17ha77d01417b317be4E+0x7c>
   226ec:	9c03      	ldr	r4, [sp, #12]
   226ee:	6061      	str	r1, [r4, #4]
   226f0:	2601      	movs	r6, #1
   226f2:	7026      	strb	r6, [r4, #0]
   226f4:	a812      	add	r0, sp, #72	@ 0x48
   226f6:	f004 f90f 	bl	26918 <_ZN9allow_pin12full_dynamic17unshare_if_shared17h2809d14697b066c7E>
   226fa:	a804      	add	r0, sp, #16
   226fc:	f004 f90c 	bl	26918 <_ZN9allow_pin12full_dynamic17unshare_if_shared17h2809d14697b066c7E>
   22700:	b01d      	add	sp, #116	@ 0x74
   22702:	bdf0      	pop	{r4, r5, r6, r7, pc}
   22704:	a804      	add	r0, sp, #16
   22706:	f004 f907 	bl	26918 <_ZN9allow_pin12full_dynamic17unshare_if_shared17h2809d14697b066c7E>
   2270a:	ac12      	add	r4, sp, #72	@ 0x48
   2270c:	4620      	mov	r0, r4
   2270e:	f004 f903 	bl	26918 <_ZN9allow_pin12full_dynamic17unshare_if_shared17h2809d14697b066c7E>
   22712:	4620      	mov	r0, r4
   22714:	f004 f900 	bl	26918 <_ZN9allow_pin12full_dynamic17unshare_if_shared17h2809d14697b066c7E>
   22718:	9c03      	ldr	r4, [sp, #12]
   2271a:	1c60      	adds	r0, r4, #1
   2271c:	221e      	movs	r2, #30
   2271e:	9901      	ldr	r1, [sp, #4]
   22720:	f004 fabb 	bl	26c9a <__aeabi_memcpy>
   22724:	e7e5      	b.n	226f2 <_ZN20complex_full_dynamic3app17ha77d01417b317be4E+0x6a>
   22726:	46c0      	nop			@ (mov r8, r8)
   22728:	000007e3 	.word	0x000007e3

0002272c <_ZN20complex_full_dynamic3app17ha87490d1083ad28dE>:
   2272c:	b5f0      	push	{r4, r5, r6, r7, lr}
   2272e:	af03      	add	r7, sp, #12
   22730:	b09d      	sub	sp, #116	@ 0x74
   22732:	9003      	str	r0, [sp, #12]
   22734:	ae04      	add	r6, sp, #16
   22736:	2502      	movs	r5, #2
   22738:	7235      	strb	r5, [r6, #8]
   2273a:	4630      	mov	r0, r6
   2273c:	300c      	adds	r0, #12
   2273e:	221e      	movs	r2, #30
   22740:	9202      	str	r2, [sp, #8]
   22742:	f004 faaa 	bl	26c9a <__aeabi_memcpy>
   22746:	ac0f      	add	r4, sp, #60	@ 0x3c
   22748:	4620      	mov	r0, r4
   2274a:	300c      	adds	r0, #12
   2274c:	212c      	movs	r1, #44	@ 0x2c
   2274e:	9001      	str	r0, [sp, #4]
   22750:	f004 f8f6 	bl	26940 <__aeabi_memclr4>
   22754:	7225      	strb	r5, [r4, #8]
   22756:	2007      	movs	r0, #7
   22758:	9000      	str	r0, [sp, #0]
   2275a:	2204      	movs	r2, #4
   2275c:	4c1b      	ldr	r4, [pc, #108]	@ (227cc <_ZN20complex_full_dynamic3app17ha87490d1083ad28dE+0xa0>)
   2275e:	4630      	mov	r0, r6
   22760:	9902      	ldr	r1, [sp, #8]
   22762:	4623      	mov	r3, r4
   22764:	f7fd fcbe 	bl	200e4 <_ZN9allow_pin12full_dynamic15Buffer$LT$B$GT$5allow17hcdfd34cf7b1c64cdE>
   22768:	07c0      	lsls	r0, r0, #31
   2276a:	d111      	bne.n	22790 <_ZN20complex_full_dynamic3app17ha87490d1083ad28dE+0x64>
   2276c:	2000      	movs	r0, #0
   2276e:	9000      	str	r0, [sp, #0]
   22770:	a80f      	add	r0, sp, #60	@ 0x3c
   22772:	212c      	movs	r1, #44	@ 0x2c
   22774:	2203      	movs	r2, #3
   22776:	4623      	mov	r3, r4
   22778:	f7fd fcb4 	bl	200e4 <_ZN9allow_pin12full_dynamic15Buffer$LT$B$GT$5allow17hcdfd34cf7b1c64cdE>
   2277c:	07c0      	lsls	r0, r0, #31
   2277e:	d107      	bne.n	22790 <_ZN20complex_full_dynamic3app17ha87490d1083ad28dE+0x64>
   22780:	4812      	ldr	r0, [pc, #72]	@ (227cc <_ZN20complex_full_dynamic3app17ha87490d1083ad28dE+0xa0>)
   22782:	2107      	movs	r1, #7
   22784:	2600      	movs	r6, #0
   22786:	4632      	mov	r2, r6
   22788:	4633      	mov	r3, r6
   2278a:	df02      	svc	2
   2278c:	287f      	cmp	r0, #127	@ 0x7f
   2278e:	d80b      	bhi.n	227a8 <_ZN20complex_full_dynamic3app17ha87490d1083ad28dE+0x7c>
   22790:	9c03      	ldr	r4, [sp, #12]
   22792:	6061      	str	r1, [r4, #4]
   22794:	2601      	movs	r6, #1
   22796:	7026      	strb	r6, [r4, #0]
   22798:	a80f      	add	r0, sp, #60	@ 0x3c
   2279a:	f004 f8bd 	bl	26918 <_ZN9allow_pin12full_dynamic17unshare_if_shared17h2809d14697b066c7E>
   2279e:	a804      	add	r0, sp, #16
   227a0:	f004 f8ba 	bl	26918 <_ZN9allow_pin12full_dynamic17unshare_if_shared17h2809d14697b066c7E>
   227a4:	b01d      	add	sp, #116	@ 0x74
   227a6:	bdf0      	pop	{r4, r5, r6, r7, pc}
   227a8:	a804      	add	r0, sp, #16
   227aa:	f004 f8b5 	bl	26918 <_ZN9allow_pin12full_dynamic17unshare_if_shared17h2809d14697b066c7E>
   227ae:	ac0f      	add	r4, sp, #60	@ 0x3c
   227b0:	4620      	mov	r0, r4
   227b2:	f004 f8b1 	bl	26918 <_ZN9allow_pin12full_dynamic17unshare_if_shared17h2809d14697b066c7E>
   227b6:	4620      	mov	r0, r4
   227b8:	f004 f8ae 	bl	26918 <_ZN9allow_pin12full_dynamic17unshare_if_shared17h2809d14697b066c7E>
   227bc:	9c03      	ldr	r4, [sp, #12]
   227be:	1c60      	adds	r0, r4, #1
   227c0:	222c      	movs	r2, #44	@ 0x2c
   227c2:	9901      	ldr	r1, [sp, #4]
   227c4:	f004 fa69 	bl	26c9a <__aeabi_memcpy>
   227c8:	e7e5      	b.n	22796 <_ZN20complex_full_dynamic3app17ha87490d1083ad28dE+0x6a>
   227ca:	46c0      	nop			@ (mov r8, r8)
   227cc:	000003fb 	.word	0x000003fb

000227d0 <_ZN20complex_full_dynamic3app17haaf6efc0f9c77775E>:
   227d0:	b5f0      	push	{r4, r5, r6, r7, lr}
   227d2:	af03      	add	r7, sp, #12
   227d4:	b0a3      	sub	sp, #140	@ 0x8c
   227d6:	9003      	str	r0, [sp, #12]
   227d8:	ae04      	add	r6, sp, #16
   227da:	2502      	movs	r5, #2
   227dc:	7235      	strb	r5, [r6, #8]
   227de:	4630      	mov	r0, r6
   227e0:	300c      	adds	r0, #12
   227e2:	2251      	movs	r2, #81	@ 0x51
   227e4:	9202      	str	r2, [sp, #8]
   227e6:	f004 fa58 	bl	26c9a <__aeabi_memcpy>
   227ea:	ac1c      	add	r4, sp, #112	@ 0x70
   227ec:	4620      	mov	r0, r4
   227ee:	300c      	adds	r0, #12
   227f0:	210f      	movs	r1, #15
   227f2:	9001      	str	r0, [sp, #4]
   227f4:	f004 f8a4 	bl	26940 <__aeabi_memclr4>
   227f8:	7225      	strb	r5, [r4, #8]
   227fa:	2000      	movs	r0, #0
   227fc:	9000      	str	r0, [sp, #0]
   227fe:	2204      	movs	r2, #4
   22800:	4c1a      	ldr	r4, [pc, #104]	@ (2286c <_ZN20complex_full_dynamic3app17haaf6efc0f9c77775E+0x9c>)
   22802:	4630      	mov	r0, r6
   22804:	9902      	ldr	r1, [sp, #8]
   22806:	4623      	mov	r3, r4
   22808:	f7fd fc6c 	bl	200e4 <_ZN9allow_pin12full_dynamic15Buffer$LT$B$GT$5allow17hcdfd34cf7b1c64cdE>
   2280c:	07c0      	lsls	r0, r0, #31
   2280e:	d110      	bne.n	22832 <_ZN20complex_full_dynamic3app17haaf6efc0f9c77775E+0x62>
   22810:	2203      	movs	r2, #3
   22812:	9200      	str	r2, [sp, #0]
   22814:	a81c      	add	r0, sp, #112	@ 0x70
   22816:	210f      	movs	r1, #15
   22818:	4623      	mov	r3, r4
   2281a:	f7fd fc63 	bl	200e4 <_ZN9allow_pin12full_dynamic15Buffer$LT$B$GT$5allow17hcdfd34cf7b1c64cdE>
   2281e:	07c0      	lsls	r0, r0, #31
   22820:	d107      	bne.n	22832 <_ZN20complex_full_dynamic3app17haaf6efc0f9c77775E+0x62>
   22822:	4812      	ldr	r0, [pc, #72]	@ (2286c <_ZN20complex_full_dynamic3app17haaf6efc0f9c77775E+0x9c>)
   22824:	2203      	movs	r2, #3
   22826:	2600      	movs	r6, #0
   22828:	4631      	mov	r1, r6
   2282a:	4633      	mov	r3, r6
   2282c:	df02      	svc	2
   2282e:	287f      	cmp	r0, #127	@ 0x7f
   22830:	d80b      	bhi.n	2284a <_ZN20complex_full_dynamic3app17haaf6efc0f9c77775E+0x7a>
   22832:	9c03      	ldr	r4, [sp, #12]
   22834:	6061      	str	r1, [r4, #4]
   22836:	2601      	movs	r6, #1
   22838:	7026      	strb	r6, [r4, #0]
   2283a:	a81c      	add	r0, sp, #112	@ 0x70
   2283c:	f004 f86c 	bl	26918 <_ZN9allow_pin12full_dynamic17unshare_if_shared17h2809d14697b066c7E>
   22840:	a804      	add	r0, sp, #16
   22842:	f004 f869 	bl	26918 <_ZN9allow_pin12full_dynamic17unshare_if_shared17h2809d14697b066c7E>
   22846:	b023      	add	sp, #140	@ 0x8c
   22848:	bdf0      	pop	{r4, r5, r6, r7, pc}
   2284a:	a804      	add	r0, sp, #16
   2284c:	f004 f864 	bl	26918 <_ZN9allow_pin12full_dynamic17unshare_if_shared17h2809d14697b066c7E>
   22850:	ac1c      	add	r4, sp, #112	@ 0x70
   22852:	4620      	mov	r0, r4
   22854:	f004 f860 	bl	26918 <_ZN9allow_pin12full_dynamic17unshare_if_shared17h2809d14697b066c7E>
   22858:	4620      	mov	r0, r4
   2285a:	f004 f85d 	bl	26918 <_ZN9allow_pin12full_dynamic17unshare_if_shared17h2809d14697b066c7E>
   2285e:	9c03      	ldr	r4, [sp, #12]
   22860:	1c60      	adds	r0, r4, #1
   22862:	220f      	movs	r2, #15
   22864:	9901      	ldr	r1, [sp, #4]
   22866:	f004 fa18 	bl	26c9a <__aeabi_memcpy>
   2286a:	e7e5      	b.n	22838 <_ZN20complex_full_dynamic3app17haaf6efc0f9c77775E+0x68>
   2286c:	000013bf 	.word	0x000013bf

00022870 <_ZN20complex_full_dynamic3app17hab7149745260cc20E>:
   22870:	b5f0      	push	{r4, r5, r6, r7, lr}
   22872:	af03      	add	r7, sp, #12
   22874:	b0a5      	sub	sp, #148	@ 0x94
   22876:	9004      	str	r0, [sp, #16]
   22878:	ae05      	add	r6, sp, #20
   2287a:	2502      	movs	r5, #2
   2287c:	7235      	strb	r5, [r6, #8]
   2287e:	4630      	mov	r0, r6
   22880:	300c      	adds	r0, #12
   22882:	222e      	movs	r2, #46	@ 0x2e
   22884:	9203      	str	r2, [sp, #12]
   22886:	f004 fa08 	bl	26c9a <__aeabi_memcpy>
   2288a:	ac14      	add	r4, sp, #80	@ 0x50
   2288c:	4620      	mov	r0, r4
   2288e:	300c      	adds	r0, #12
   22890:	2138      	movs	r1, #56	@ 0x38
   22892:	9002      	str	r0, [sp, #8]
   22894:	f004 f854 	bl	26940 <__aeabi_memclr4>
   22898:	7225      	strb	r5, [r4, #8]
   2289a:	2509      	movs	r5, #9
   2289c:	9500      	str	r5, [sp, #0]
   2289e:	2204      	movs	r2, #4
   228a0:	4c1a      	ldr	r4, [pc, #104]	@ (2290c <_ZN20complex_full_dynamic3app17hab7149745260cc20E+0x9c>)
   228a2:	4630      	mov	r0, r6
   228a4:	9903      	ldr	r1, [sp, #12]
   228a6:	4623      	mov	r3, r4
   228a8:	f7fd fc1c 	bl	200e4 <_ZN9allow_pin12full_dynamic15Buffer$LT$B$GT$5allow17hcdfd34cf7b1c64cdE>
   228ac:	07c0      	lsls	r0, r0, #31
   228ae:	d110      	bne.n	228d2 <_ZN20complex_full_dynamic3app17hab7149745260cc20E+0x62>
   228b0:	9500      	str	r5, [sp, #0]
   228b2:	a814      	add	r0, sp, #80	@ 0x50
   228b4:	2138      	movs	r1, #56	@ 0x38
   228b6:	2203      	movs	r2, #3
   228b8:	4623      	mov	r3, r4
   228ba:	f7fd fc13 	bl	200e4 <_ZN9allow_pin12full_dynamic15Buffer$LT$B$GT$5allow17hcdfd34cf7b1c64cdE>
   228be:	07c0      	lsls	r0, r0, #31
   228c0:	d107      	bne.n	228d2 <_ZN20complex_full_dynamic3app17hab7149745260cc20E+0x62>
   228c2:	4812      	ldr	r0, [pc, #72]	@ (2290c <_ZN20complex_full_dynamic3app17hab7149745260cc20E+0x9c>)
   228c4:	2109      	movs	r1, #9
   228c6:	2600      	movs	r6, #0
   228c8:	460a      	mov	r2, r1
   228ca:	4633      	mov	r3, r6
   228cc:	df02      	svc	2
   228ce:	287f      	cmp	r0, #127	@ 0x7f
   228d0:	d80b      	bhi.n	228ea <_ZN20complex_full_dynamic3app17hab7149745260cc20E+0x7a>
   228d2:	9c04      	ldr	r4, [sp, #16]
   228d4:	6061      	str	r1, [r4, #4]
   228d6:	2601      	movs	r6, #1
   228d8:	7026      	strb	r6, [r4, #0]
   228da:	a814      	add	r0, sp, #80	@ 0x50
   228dc:	f004 f81c 	bl	26918 <_ZN9allow_pin12full_dynamic17unshare_if_shared17h2809d14697b066c7E>
   228e0:	a805      	add	r0, sp, #20
   228e2:	f004 f819 	bl	26918 <_ZN9allow_pin12full_dynamic17unshare_if_shared17h2809d14697b066c7E>
   228e6:	b025      	add	sp, #148	@ 0x94
   228e8:	bdf0      	pop	{r4, r5, r6, r7, pc}
   228ea:	a805      	add	r0, sp, #20
   228ec:	f004 f814 	bl	26918 <_ZN9allow_pin12full_dynamic17unshare_if_shared17h2809d14697b066c7E>
   228f0:	ac14      	add	r4, sp, #80	@ 0x50
   228f2:	4620      	mov	r0, r4
   228f4:	f004 f810 	bl	26918 <_ZN9allow_pin12full_dynamic17unshare_if_shared17h2809d14697b066c7E>
   228f8:	4620      	mov	r0, r4
   228fa:	f004 f80d 	bl	26918 <_ZN9allow_pin12full_dynamic17unshare_if_shared17h2809d14697b066c7E>
   228fe:	9c04      	ldr	r4, [sp, #16]
   22900:	1c60      	adds	r0, r4, #1
   22902:	2238      	movs	r2, #56	@ 0x38
   22904:	9902      	ldr	r1, [sp, #8]
   22906:	f004 f9c8 	bl	26c9a <__aeabi_memcpy>
   2290a:	e7e5      	b.n	228d8 <_ZN20complex_full_dynamic3app17hab7149745260cc20E+0x68>
   2290c:	00000a9d 	.word	0x00000a9d

00022910 <_ZN20complex_full_dynamic3app17hae2d2752db8ac2b0E>:
   22910:	b5f0      	push	{r4, r5, r6, r7, lr}
   22912:	af03      	add	r7, sp, #12
   22914:	b0b3      	sub	sp, #204	@ 0xcc
   22916:	9003      	str	r0, [sp, #12]
   22918:	ae04      	add	r6, sp, #16
   2291a:	2502      	movs	r5, #2
   2291c:	7235      	strb	r5, [r6, #8]
   2291e:	4630      	mov	r0, r6
   22920:	300c      	adds	r0, #12
   22922:	2253      	movs	r2, #83	@ 0x53
   22924:	9202      	str	r2, [sp, #8]
   22926:	f004 f9b8 	bl	26c9a <__aeabi_memcpy>
   2292a:	ac1c      	add	r4, sp, #112	@ 0x70
   2292c:	4620      	mov	r0, r4
   2292e:	300c      	adds	r0, #12
   22930:	214d      	movs	r1, #77	@ 0x4d
   22932:	9001      	str	r0, [sp, #4]
   22934:	f004 f804 	bl	26940 <__aeabi_memclr4>
   22938:	7225      	strb	r5, [r4, #8]
   2293a:	2009      	movs	r0, #9
   2293c:	9000      	str	r0, [sp, #0]
   2293e:	2504      	movs	r5, #4
   22940:	4c1b      	ldr	r4, [pc, #108]	@ (229b0 <_ZN20complex_full_dynamic3app17hae2d2752db8ac2b0E+0xa0>)
   22942:	4630      	mov	r0, r6
   22944:	9902      	ldr	r1, [sp, #8]
   22946:	462a      	mov	r2, r5
   22948:	4623      	mov	r3, r4
   2294a:	f7fd fbcb 	bl	200e4 <_ZN9allow_pin12full_dynamic15Buffer$LT$B$GT$5allow17hcdfd34cf7b1c64cdE>
   2294e:	07c0      	lsls	r0, r0, #31
   22950:	d110      	bne.n	22974 <_ZN20complex_full_dynamic3app17hae2d2752db8ac2b0E+0x64>
   22952:	9500      	str	r5, [sp, #0]
   22954:	a81c      	add	r0, sp, #112	@ 0x70
   22956:	214d      	movs	r1, #77	@ 0x4d
   22958:	2203      	movs	r2, #3
   2295a:	4623      	mov	r3, r4
   2295c:	f7fd fbc2 	bl	200e4 <_ZN9allow_pin12full_dynamic15Buffer$LT$B$GT$5allow17hcdfd34cf7b1c64cdE>
   22960:	07c0      	lsls	r0, r0, #31
   22962:	d107      	bne.n	22974 <_ZN20complex_full_dynamic3app17hae2d2752db8ac2b0E+0x64>
   22964:	4812      	ldr	r0, [pc, #72]	@ (229b0 <_ZN20complex_full_dynamic3app17hae2d2752db8ac2b0E+0xa0>)
   22966:	2109      	movs	r1, #9
   22968:	2204      	movs	r2, #4
   2296a:	2600      	movs	r6, #0
   2296c:	4633      	mov	r3, r6
   2296e:	df02      	svc	2
   22970:	287f      	cmp	r0, #127	@ 0x7f
   22972:	d80b      	bhi.n	2298c <_ZN20complex_full_dynamic3app17hae2d2752db8ac2b0E+0x7c>
   22974:	9c03      	ldr	r4, [sp, #12]
   22976:	6061      	str	r1, [r4, #4]
   22978:	2601      	movs	r6, #1
   2297a:	7026      	strb	r6, [r4, #0]
   2297c:	a81c      	add	r0, sp, #112	@ 0x70
   2297e:	f003 ffcb 	bl	26918 <_ZN9allow_pin12full_dynamic17unshare_if_shared17h2809d14697b066c7E>
   22982:	a804      	add	r0, sp, #16
   22984:	f003 ffc8 	bl	26918 <_ZN9allow_pin12full_dynamic17unshare_if_shared17h2809d14697b066c7E>
   22988:	b033      	add	sp, #204	@ 0xcc
   2298a:	bdf0      	pop	{r4, r5, r6, r7, pc}
   2298c:	a804      	add	r0, sp, #16
   2298e:	f003 ffc3 	bl	26918 <_ZN9allow_pin12full_dynamic17unshare_if_shared17h2809d14697b066c7E>
   22992:	ac1c      	add	r4, sp, #112	@ 0x70
   22994:	4620      	mov	r0, r4
   22996:	f003 ffbf 	bl	26918 <_ZN9allow_pin12full_dynamic17unshare_if_shared17h2809d14697b066c7E>
   2299a:	4620      	mov	r0, r4
   2299c:	f003 ffbc 	bl	26918 <_ZN9allow_pin12full_dynamic17unshare_if_shared17h2809d14697b066c7E>
   229a0:	9c03      	ldr	r4, [sp, #12]
   229a2:	1c60      	adds	r0, r4, #1
   229a4:	224d      	movs	r2, #77	@ 0x4d
   229a6:	9901      	ldr	r1, [sp, #4]
   229a8:	f004 f977 	bl	26c9a <__aeabi_memcpy>
   229ac:	e7e5      	b.n	2297a <_ZN20complex_full_dynamic3app17hae2d2752db8ac2b0E+0x6a>
   229ae:	46c0      	nop			@ (mov r8, r8)
   229b0:	000016ba 	.word	0x000016ba

000229b4 <_ZN20complex_full_dynamic3app17hb62ed2e1eae23dd5E>:
   229b4:	b5f0      	push	{r4, r5, r6, r7, lr}
   229b6:	af03      	add	r7, sp, #12
   229b8:	b0a1      	sub	sp, #132	@ 0x84
   229ba:	9004      	str	r0, [sp, #16]
   229bc:	ae05      	add	r6, sp, #20
   229be:	2402      	movs	r4, #2
   229c0:	7234      	strb	r4, [r6, #8]
   229c2:	4630      	mov	r0, r6
   229c4:	300c      	adds	r0, #12
   229c6:	220f      	movs	r2, #15
   229c8:	9203      	str	r2, [sp, #12]
   229ca:	f004 f966 	bl	26c9a <__aeabi_memcpy>
   229ce:	ad0c      	add	r5, sp, #48	@ 0x30
   229d0:	4628      	mov	r0, r5
   229d2:	300c      	adds	r0, #12
   229d4:	2146      	movs	r1, #70	@ 0x46
   229d6:	9002      	str	r0, [sp, #8]
   229d8:	f003 ffb2 	bl	26940 <__aeabi_memclr4>
   229dc:	722c      	strb	r4, [r5, #8]
   229de:	2009      	movs	r0, #9
   229e0:	9000      	str	r0, [sp, #0]
   229e2:	2204      	movs	r2, #4
   229e4:	4d1a      	ldr	r5, [pc, #104]	@ (22a50 <_ZN20complex_full_dynamic3app17hb62ed2e1eae23dd5E+0x9c>)
   229e6:	4630      	mov	r0, r6
   229e8:	9903      	ldr	r1, [sp, #12]
   229ea:	462b      	mov	r3, r5
   229ec:	f7fd fb7a 	bl	200e4 <_ZN9allow_pin12full_dynamic15Buffer$LT$B$GT$5allow17hcdfd34cf7b1c64cdE>
   229f0:	07c0      	lsls	r0, r0, #31
   229f2:	d110      	bne.n	22a16 <_ZN20complex_full_dynamic3app17hb62ed2e1eae23dd5E+0x62>
   229f4:	9400      	str	r4, [sp, #0]
   229f6:	a80c      	add	r0, sp, #48	@ 0x30
   229f8:	2146      	movs	r1, #70	@ 0x46
   229fa:	2203      	movs	r2, #3
   229fc:	462b      	mov	r3, r5
   229fe:	f7fd fb71 	bl	200e4 <_ZN9allow_pin12full_dynamic15Buffer$LT$B$GT$5allow17hcdfd34cf7b1c64cdE>
   22a02:	07c0      	lsls	r0, r0, #31
   22a04:	d107      	bne.n	22a16 <_ZN20complex_full_dynamic3app17hb62ed2e1eae23dd5E+0x62>
   22a06:	4812      	ldr	r0, [pc, #72]	@ (22a50 <_ZN20complex_full_dynamic3app17hb62ed2e1eae23dd5E+0x9c>)
   22a08:	2109      	movs	r1, #9
   22a0a:	2202      	movs	r2, #2
   22a0c:	2600      	movs	r6, #0
   22a0e:	4633      	mov	r3, r6
   22a10:	df02      	svc	2
   22a12:	287f      	cmp	r0, #127	@ 0x7f
   22a14:	d80b      	bhi.n	22a2e <_ZN20complex_full_dynamic3app17hb62ed2e1eae23dd5E+0x7a>
   22a16:	9c04      	ldr	r4, [sp, #16]
   22a18:	6061      	str	r1, [r4, #4]
   22a1a:	2601      	movs	r6, #1
   22a1c:	7026      	strb	r6, [r4, #0]
   22a1e:	a80c      	add	r0, sp, #48	@ 0x30
   22a20:	f003 ff7a 	bl	26918 <_ZN9allow_pin12full_dynamic17unshare_if_shared17h2809d14697b066c7E>
   22a24:	a805      	add	r0, sp, #20
   22a26:	f003 ff77 	bl	26918 <_ZN9allow_pin12full_dynamic17unshare_if_shared17h2809d14697b066c7E>
   22a2a:	b021      	add	sp, #132	@ 0x84
   22a2c:	bdf0      	pop	{r4, r5, r6, r7, pc}
   22a2e:	a805      	add	r0, sp, #20
   22a30:	f003 ff72 	bl	26918 <_ZN9allow_pin12full_dynamic17unshare_if_shared17h2809d14697b066c7E>
   22a34:	ac0c      	add	r4, sp, #48	@ 0x30
   22a36:	4620      	mov	r0, r4
   22a38:	f003 ff6e 	bl	26918 <_ZN9allow_pin12full_dynamic17unshare_if_shared17h2809d14697b066c7E>
   22a3c:	4620      	mov	r0, r4
   22a3e:	f003 ff6b 	bl	26918 <_ZN9allow_pin12full_dynamic17unshare_if_shared17h2809d14697b066c7E>
   22a42:	9c04      	ldr	r4, [sp, #16]
   22a44:	1c60      	adds	r0, r4, #1
   22a46:	2246      	movs	r2, #70	@ 0x46
   22a48:	9902      	ldr	r1, [sp, #8]
   22a4a:	f004 f926 	bl	26c9a <__aeabi_memcpy>
   22a4e:	e7e5      	b.n	22a1c <_ZN20complex_full_dynamic3app17hb62ed2e1eae23dd5E+0x68>
   22a50:	00001d7e 	.word	0x00001d7e

00022a54 <_ZN20complex_full_dynamic3app17hb749aa2bad4d0873E>:
   22a54:	b5f0      	push	{r4, r5, r6, r7, lr}
   22a56:	af03      	add	r7, sp, #12
   22a58:	b097      	sub	sp, #92	@ 0x5c
   22a5a:	9003      	str	r0, [sp, #12]
   22a5c:	ae04      	add	r6, sp, #16
   22a5e:	2502      	movs	r5, #2
   22a60:	7235      	strb	r5, [r6, #8]
   22a62:	4630      	mov	r0, r6
   22a64:	300c      	adds	r0, #12
   22a66:	220d      	movs	r2, #13
   22a68:	9202      	str	r2, [sp, #8]
   22a6a:	f004 f916 	bl	26c9a <__aeabi_memcpy>
   22a6e:	ac0b      	add	r4, sp, #44	@ 0x2c
   22a70:	4620      	mov	r0, r4
   22a72:	300c      	adds	r0, #12
   22a74:	2121      	movs	r1, #33	@ 0x21
   22a76:	9001      	str	r0, [sp, #4]
   22a78:	f003 ff62 	bl	26940 <__aeabi_memclr4>
   22a7c:	7225      	strb	r5, [r4, #8]
   22a7e:	2500      	movs	r5, #0
   22a80:	9500      	str	r5, [sp, #0]
   22a82:	2204      	movs	r2, #4
   22a84:	4c1a      	ldr	r4, [pc, #104]	@ (22af0 <_ZN20complex_full_dynamic3app17hb749aa2bad4d0873E+0x9c>)
   22a86:	4630      	mov	r0, r6
   22a88:	9902      	ldr	r1, [sp, #8]
   22a8a:	4623      	mov	r3, r4
   22a8c:	f7fd fb2a 	bl	200e4 <_ZN9allow_pin12full_dynamic15Buffer$LT$B$GT$5allow17hcdfd34cf7b1c64cdE>
   22a90:	07c0      	lsls	r0, r0, #31
   22a92:	d110      	bne.n	22ab6 <_ZN20complex_full_dynamic3app17hb749aa2bad4d0873E+0x62>
   22a94:	9500      	str	r5, [sp, #0]
   22a96:	a80b      	add	r0, sp, #44	@ 0x2c
   22a98:	2121      	movs	r1, #33	@ 0x21
   22a9a:	2203      	movs	r2, #3
   22a9c:	4623      	mov	r3, r4
   22a9e:	f7fd fb21 	bl	200e4 <_ZN9allow_pin12full_dynamic15Buffer$LT$B$GT$5allow17hcdfd34cf7b1c64cdE>
   22aa2:	07c0      	lsls	r0, r0, #31
   22aa4:	d107      	bne.n	22ab6 <_ZN20complex_full_dynamic3app17hb749aa2bad4d0873E+0x62>
   22aa6:	4812      	ldr	r0, [pc, #72]	@ (22af0 <_ZN20complex_full_dynamic3app17hb749aa2bad4d0873E+0x9c>)
   22aa8:	2600      	movs	r6, #0
   22aaa:	4631      	mov	r1, r6
   22aac:	4632      	mov	r2, r6
   22aae:	4633      	mov	r3, r6
   22ab0:	df02      	svc	2
   22ab2:	287f      	cmp	r0, #127	@ 0x7f
   22ab4:	d80b      	bhi.n	22ace <_ZN20complex_full_dynamic3app17hb749aa2bad4d0873E+0x7a>
   22ab6:	9c03      	ldr	r4, [sp, #12]
   22ab8:	6061      	str	r1, [r4, #4]
   22aba:	2601      	movs	r6, #1
   22abc:	7026      	strb	r6, [r4, #0]
   22abe:	a80b      	add	r0, sp, #44	@ 0x2c
   22ac0:	f003 ff2a 	bl	26918 <_ZN9allow_pin12full_dynamic17unshare_if_shared17h2809d14697b066c7E>
   22ac4:	a804      	add	r0, sp, #16
   22ac6:	f003 ff27 	bl	26918 <_ZN9allow_pin12full_dynamic17unshare_if_shared17h2809d14697b066c7E>
   22aca:	b017      	add	sp, #92	@ 0x5c
   22acc:	bdf0      	pop	{r4, r5, r6, r7, pc}
   22ace:	a804      	add	r0, sp, #16
   22ad0:	f003 ff22 	bl	26918 <_ZN9allow_pin12full_dynamic17unshare_if_shared17h2809d14697b066c7E>
   22ad4:	ac0b      	add	r4, sp, #44	@ 0x2c
   22ad6:	4620      	mov	r0, r4
   22ad8:	f003 ff1e 	bl	26918 <_ZN9allow_pin12full_dynamic17unshare_if_shared17h2809d14697b066c7E>
   22adc:	4620      	mov	r0, r4
   22ade:	f003 ff1b 	bl	26918 <_ZN9allow_pin12full_dynamic17unshare_if_shared17h2809d14697b066c7E>
   22ae2:	9c03      	ldr	r4, [sp, #12]
   22ae4:	1c60      	adds	r0, r4, #1
   22ae6:	2221      	movs	r2, #33	@ 0x21
   22ae8:	9901      	ldr	r1, [sp, #4]
   22aea:	f004 f8d6 	bl	26c9a <__aeabi_memcpy>
   22aee:	e7e5      	b.n	22abc <_ZN20complex_full_dynamic3app17hb749aa2bad4d0873E+0x68>
   22af0:	000016b0 	.word	0x000016b0

00022af4 <_ZN20complex_full_dynamic3app17hbb1d92d9f0667de7E>:
   22af4:	b5f0      	push	{r4, r5, r6, r7, lr}
   22af6:	af03      	add	r7, sp, #12
   22af8:	b099      	sub	sp, #100	@ 0x64
   22afa:	9004      	str	r0, [sp, #16]
   22afc:	ae05      	add	r6, sp, #20
   22afe:	2502      	movs	r5, #2
   22b00:	7235      	strb	r5, [r6, #8]
   22b02:	4630      	mov	r0, r6
   22b04:	300c      	adds	r0, #12
   22b06:	220f      	movs	r2, #15
   22b08:	9203      	str	r2, [sp, #12]
   22b0a:	f004 f8c6 	bl	26c9a <__aeabi_memcpy>
   22b0e:	ac0c      	add	r4, sp, #48	@ 0x30
   22b10:	4620      	mov	r0, r4
   22b12:	300c      	adds	r0, #12
   22b14:	2125      	movs	r1, #37	@ 0x25
   22b16:	9002      	str	r0, [sp, #8]
   22b18:	f003 ff12 	bl	26940 <__aeabi_memclr4>
   22b1c:	7225      	strb	r5, [r4, #8]
   22b1e:	2008      	movs	r0, #8
   22b20:	9000      	str	r0, [sp, #0]
   22b22:	2204      	movs	r2, #4
   22b24:	23a2      	movs	r3, #162	@ 0xa2
   22b26:	4630      	mov	r0, r6
   22b28:	9903      	ldr	r1, [sp, #12]
   22b2a:	f7fd fadb 	bl	200e4 <_ZN9allow_pin12full_dynamic15Buffer$LT$B$GT$5allow17hcdfd34cf7b1c64cdE>
   22b2e:	07c0      	lsls	r0, r0, #31
   22b30:	d111      	bne.n	22b56 <_ZN20complex_full_dynamic3app17hbb1d92d9f0667de7E+0x62>
   22b32:	2000      	movs	r0, #0
   22b34:	9000      	str	r0, [sp, #0]
   22b36:	a80c      	add	r0, sp, #48	@ 0x30
   22b38:	2125      	movs	r1, #37	@ 0x25
   22b3a:	2203      	movs	r2, #3
   22b3c:	23a2      	movs	r3, #162	@ 0xa2
   22b3e:	f7fd fad1 	bl	200e4 <_ZN9allow_pin12full_dynamic15Buffer$LT$B$GT$5allow17hcdfd34cf7b1c64cdE>
   22b42:	07c0      	lsls	r0, r0, #31
   22b44:	d107      	bne.n	22b56 <_ZN20complex_full_dynamic3app17hbb1d92d9f0667de7E+0x62>
   22b46:	20a2      	movs	r0, #162	@ 0xa2
   22b48:	2108      	movs	r1, #8
   22b4a:	2600      	movs	r6, #0
   22b4c:	4632      	mov	r2, r6
   22b4e:	4633      	mov	r3, r6
   22b50:	df02      	svc	2
   22b52:	287f      	cmp	r0, #127	@ 0x7f
   22b54:	d80b      	bhi.n	22b6e <_ZN20complex_full_dynamic3app17hbb1d92d9f0667de7E+0x7a>
   22b56:	9c04      	ldr	r4, [sp, #16]
   22b58:	6061      	str	r1, [r4, #4]
   22b5a:	2601      	movs	r6, #1
   22b5c:	7026      	strb	r6, [r4, #0]
   22b5e:	a80c      	add	r0, sp, #48	@ 0x30
   22b60:	f003 feda 	bl	26918 <_ZN9allow_pin12full_dynamic17unshare_if_shared17h2809d14697b066c7E>
   22b64:	a805      	add	r0, sp, #20
   22b66:	f003 fed7 	bl	26918 <_ZN9allow_pin12full_dynamic17unshare_if_shared17h2809d14697b066c7E>
   22b6a:	b019      	add	sp, #100	@ 0x64
   22b6c:	bdf0      	pop	{r4, r5, r6, r7, pc}
   22b6e:	a805      	add	r0, sp, #20
   22b70:	f003 fed2 	bl	26918 <_ZN9allow_pin12full_dynamic17unshare_if_shared17h2809d14697b066c7E>
   22b74:	ac0c      	add	r4, sp, #48	@ 0x30
   22b76:	4620      	mov	r0, r4
   22b78:	f003 fece 	bl	26918 <_ZN9allow_pin12full_dynamic17unshare_if_shared17h2809d14697b066c7E>
   22b7c:	4620      	mov	r0, r4
   22b7e:	f003 fecb 	bl	26918 <_ZN9allow_pin12full_dynamic17unshare_if_shared17h2809d14697b066c7E>
   22b82:	9c04      	ldr	r4, [sp, #16]
   22b84:	1c60      	adds	r0, r4, #1
   22b86:	2225      	movs	r2, #37	@ 0x25
   22b88:	9902      	ldr	r1, [sp, #8]
   22b8a:	f004 f886 	bl	26c9a <__aeabi_memcpy>
   22b8e:	e7e5      	b.n	22b5c <_ZN20complex_full_dynamic3app17hbb1d92d9f0667de7E+0x68>

00022b90 <_ZN20complex_full_dynamic3app17hc4933b1ae954b624E>:
   22b90:	b5f0      	push	{r4, r5, r6, r7, lr}
   22b92:	af03      	add	r7, sp, #12
   22b94:	b0ab      	sub	sp, #172	@ 0xac
   22b96:	9004      	str	r0, [sp, #16]
   22b98:	ae05      	add	r6, sp, #20
   22b9a:	2502      	movs	r5, #2
   22b9c:	7235      	strb	r5, [r6, #8]
   22b9e:	4630      	mov	r0, r6
   22ba0:	300c      	adds	r0, #12
   22ba2:	221b      	movs	r2, #27
   22ba4:	9203      	str	r2, [sp, #12]
   22ba6:	f004 f878 	bl	26c9a <__aeabi_memcpy>
   22baa:	ac0f      	add	r4, sp, #60	@ 0x3c
   22bac:	4620      	mov	r0, r4
   22bae:	300c      	adds	r0, #12
   22bb0:	2163      	movs	r1, #99	@ 0x63
   22bb2:	9002      	str	r0, [sp, #8]
   22bb4:	f003 fec4 	bl	26940 <__aeabi_memclr4>
   22bb8:	7225      	strb	r5, [r4, #8]
   22bba:	2503      	movs	r5, #3
   22bbc:	9500      	str	r5, [sp, #0]
   22bbe:	2204      	movs	r2, #4
   22bc0:	4c1a      	ldr	r4, [pc, #104]	@ (22c2c <_ZN20complex_full_dynamic3app17hc4933b1ae954b624E+0x9c>)
   22bc2:	4630      	mov	r0, r6
   22bc4:	9903      	ldr	r1, [sp, #12]
   22bc6:	4623      	mov	r3, r4
   22bc8:	f7fd fa8c 	bl	200e4 <_ZN9allow_pin12full_dynamic15Buffer$LT$B$GT$5allow17hcdfd34cf7b1c64cdE>
   22bcc:	07c0      	lsls	r0, r0, #31
   22bce:	d110      	bne.n	22bf2 <_ZN20complex_full_dynamic3app17hc4933b1ae954b624E+0x62>
   22bd0:	9500      	str	r5, [sp, #0]
   22bd2:	a80f      	add	r0, sp, #60	@ 0x3c
   22bd4:	2163      	movs	r1, #99	@ 0x63
   22bd6:	462a      	mov	r2, r5
   22bd8:	4623      	mov	r3, r4
   22bda:	f7fd fa83 	bl	200e4 <_ZN9allow_pin12full_dynamic15Buffer$LT$B$GT$5allow17hcdfd34cf7b1c64cdE>
   22bde:	07c0      	lsls	r0, r0, #31
   22be0:	d107      	bne.n	22bf2 <_ZN20complex_full_dynamic3app17hc4933b1ae954b624E+0x62>
   22be2:	4812      	ldr	r0, [pc, #72]	@ (22c2c <_ZN20complex_full_dynamic3app17hc4933b1ae954b624E+0x9c>)
   22be4:	2103      	movs	r1, #3
   22be6:	2600      	movs	r6, #0
   22be8:	460a      	mov	r2, r1
   22bea:	4633      	mov	r3, r6
   22bec:	df02      	svc	2
   22bee:	287f      	cmp	r0, #127	@ 0x7f
   22bf0:	d80b      	bhi.n	22c0a <_ZN20complex_full_dynamic3app17hc4933b1ae954b624E+0x7a>
   22bf2:	9c04      	ldr	r4, [sp, #16]
   22bf4:	6061      	str	r1, [r4, #4]
   22bf6:	2601      	movs	r6, #1
   22bf8:	7026      	strb	r6, [r4, #0]
   22bfa:	a80f      	add	r0, sp, #60	@ 0x3c
   22bfc:	f003 fe8c 	bl	26918 <_ZN9allow_pin12full_dynamic17unshare_if_shared17h2809d14697b066c7E>
   22c00:	a805      	add	r0, sp, #20
   22c02:	f003 fe89 	bl	26918 <_ZN9allow_pin12full_dynamic17unshare_if_shared17h2809d14697b066c7E>
   22c06:	b02b      	add	sp, #172	@ 0xac
   22c08:	bdf0      	pop	{r4, r5, r6, r7, pc}
   22c0a:	a805      	add	r0, sp, #20
   22c0c:	f003 fe84 	bl	26918 <_ZN9allow_pin12full_dynamic17unshare_if_shared17h2809d14697b066c7E>
   22c10:	ac0f      	add	r4, sp, #60	@ 0x3c
   22c12:	4620      	mov	r0, r4
   22c14:	f003 fe80 	bl	26918 <_ZN9allow_pin12full_dynamic17unshare_if_shared17h2809d14697b066c7E>
   22c18:	4620      	mov	r0, r4
   22c1a:	f003 fe7d 	bl	26918 <_ZN9allow_pin12full_dynamic17unshare_if_shared17h2809d14697b066c7E>
   22c1e:	9c04      	ldr	r4, [sp, #16]
   22c20:	1c60      	adds	r0, r4, #1
   22c22:	2263      	movs	r2, #99	@ 0x63
   22c24:	9902      	ldr	r1, [sp, #8]
   22c26:	f004 f838 	bl	26c9a <__aeabi_memcpy>
   22c2a:	e7e5      	b.n	22bf8 <_ZN20complex_full_dynamic3app17hc4933b1ae954b624E+0x68>
   22c2c:	00002548 	.word	0x00002548

00022c30 <_ZN20complex_full_dynamic3app17hc6ba0b19bc0e433bE>:
   22c30:	b5f0      	push	{r4, r5, r6, r7, lr}
   22c32:	af03      	add	r7, sp, #12
   22c34:	b09b      	sub	sp, #108	@ 0x6c
   22c36:	9004      	str	r0, [sp, #16]
   22c38:	ae05      	add	r6, sp, #20
   22c3a:	2402      	movs	r4, #2
   22c3c:	7234      	strb	r4, [r6, #8]
   22c3e:	4630      	mov	r0, r6
   22c40:	300c      	adds	r0, #12
   22c42:	2225      	movs	r2, #37	@ 0x25
   22c44:	9203      	str	r2, [sp, #12]
   22c46:	f004 f828 	bl	26c9a <__aeabi_memcpy>
   22c4a:	ad12      	add	r5, sp, #72	@ 0x48
   22c4c:	4628      	mov	r0, r5
   22c4e:	300c      	adds	r0, #12
   22c50:	2118      	movs	r1, #24
   22c52:	9002      	str	r0, [sp, #8]
   22c54:	f003 fe74 	bl	26940 <__aeabi_memclr4>
   22c58:	722c      	strb	r4, [r5, #8]
   22c5a:	2009      	movs	r0, #9
   22c5c:	9000      	str	r0, [sp, #0]
   22c5e:	20a7      	movs	r0, #167	@ 0xa7
   22c60:	0104      	lsls	r4, r0, #4
   22c62:	2204      	movs	r2, #4
   22c64:	4630      	mov	r0, r6
   22c66:	9903      	ldr	r1, [sp, #12]
   22c68:	4623      	mov	r3, r4
   22c6a:	f7fd fa3b 	bl	200e4 <_ZN9allow_pin12full_dynamic15Buffer$LT$B$GT$5allow17hcdfd34cf7b1c64cdE>
   22c6e:	07c0      	lsls	r0, r0, #31
   22c70:	d111      	bne.n	22c96 <_ZN20complex_full_dynamic3app17hc6ba0b19bc0e433bE+0x66>
   22c72:	2008      	movs	r0, #8
   22c74:	9000      	str	r0, [sp, #0]
   22c76:	a812      	add	r0, sp, #72	@ 0x48
   22c78:	2118      	movs	r1, #24
   22c7a:	2203      	movs	r2, #3
   22c7c:	4623      	mov	r3, r4
   22c7e:	f7fd fa31 	bl	200e4 <_ZN9allow_pin12full_dynamic15Buffer$LT$B$GT$5allow17hcdfd34cf7b1c64cdE>
   22c82:	07c0      	lsls	r0, r0, #31
   22c84:	d107      	bne.n	22c96 <_ZN20complex_full_dynamic3app17hc6ba0b19bc0e433bE+0x66>
   22c86:	2109      	movs	r1, #9
   22c88:	2208      	movs	r2, #8
   22c8a:	2600      	movs	r6, #0
   22c8c:	4620      	mov	r0, r4
   22c8e:	4633      	mov	r3, r6
   22c90:	df02      	svc	2
   22c92:	287f      	cmp	r0, #127	@ 0x7f
   22c94:	d80b      	bhi.n	22cae <_ZN20complex_full_dynamic3app17hc6ba0b19bc0e433bE+0x7e>
   22c96:	9c04      	ldr	r4, [sp, #16]
   22c98:	6061      	str	r1, [r4, #4]
   22c9a:	2601      	movs	r6, #1
   22c9c:	7026      	strb	r6, [r4, #0]
   22c9e:	a812      	add	r0, sp, #72	@ 0x48
   22ca0:	f003 fe3a 	bl	26918 <_ZN9allow_pin12full_dynamic17unshare_if_shared17h2809d14697b066c7E>
   22ca4:	a805      	add	r0, sp, #20
   22ca6:	f003 fe37 	bl	26918 <_ZN9allow_pin12full_dynamic17unshare_if_shared17h2809d14697b066c7E>
   22caa:	b01b      	add	sp, #108	@ 0x6c
   22cac:	bdf0      	pop	{r4, r5, r6, r7, pc}
   22cae:	a805      	add	r0, sp, #20
   22cb0:	f003 fe32 	bl	26918 <_ZN9allow_pin12full_dynamic17unshare_if_shared17h2809d14697b066c7E>
   22cb4:	ac12      	add	r4, sp, #72	@ 0x48
   22cb6:	4620      	mov	r0, r4
   22cb8:	f003 fe2e 	bl	26918 <_ZN9allow_pin12full_dynamic17unshare_if_shared17h2809d14697b066c7E>
   22cbc:	4620      	mov	r0, r4
   22cbe:	f003 fe2b 	bl	26918 <_ZN9allow_pin12full_dynamic17unshare_if_shared17h2809d14697b066c7E>
   22cc2:	9c04      	ldr	r4, [sp, #16]
   22cc4:	1c60      	adds	r0, r4, #1
   22cc6:	2218      	movs	r2, #24
   22cc8:	9902      	ldr	r1, [sp, #8]
   22cca:	f003 ffe6 	bl	26c9a <__aeabi_memcpy>
   22cce:	e7e5      	b.n	22c9c <_ZN20complex_full_dynamic3app17hc6ba0b19bc0e433bE+0x6c>

00022cd0 <_ZN20complex_full_dynamic3app17hc875765be8231436E>:
   22cd0:	b5f0      	push	{r4, r5, r6, r7, lr}
   22cd2:	af03      	add	r7, sp, #12
   22cd4:	b0a1      	sub	sp, #132	@ 0x84
   22cd6:	9003      	str	r0, [sp, #12]
   22cd8:	ae04      	add	r6, sp, #16
   22cda:	2502      	movs	r5, #2
   22cdc:	7235      	strb	r5, [r6, #8]
   22cde:	4630      	mov	r0, r6
   22ce0:	300c      	adds	r0, #12
   22ce2:	223f      	movs	r2, #63	@ 0x3f
   22ce4:	9202      	str	r2, [sp, #8]
   22ce6:	f003 ffd8 	bl	26c9a <__aeabi_memcpy>
   22cea:	ac17      	add	r4, sp, #92	@ 0x5c
   22cec:	4620      	mov	r0, r4
   22cee:	300c      	adds	r0, #12
   22cf0:	211c      	movs	r1, #28
   22cf2:	9001      	str	r0, [sp, #4]
   22cf4:	f003 fe24 	bl	26940 <__aeabi_memclr4>
   22cf8:	7225      	strb	r5, [r4, #8]
   22cfa:	2005      	movs	r0, #5
   22cfc:	9000      	str	r0, [sp, #0]
   22cfe:	2204      	movs	r2, #4
   22d00:	4c1b      	ldr	r4, [pc, #108]	@ (22d70 <_ZN20complex_full_dynamic3app17hc875765be8231436E+0xa0>)
   22d02:	4630      	mov	r0, r6
   22d04:	9902      	ldr	r1, [sp, #8]
   22d06:	4623      	mov	r3, r4
   22d08:	f7fd f9ec 	bl	200e4 <_ZN9allow_pin12full_dynamic15Buffer$LT$B$GT$5allow17hcdfd34cf7b1c64cdE>
   22d0c:	07c0      	lsls	r0, r0, #31
   22d0e:	d111      	bne.n	22d34 <_ZN20complex_full_dynamic3app17hc875765be8231436E+0x64>
   22d10:	2009      	movs	r0, #9
   22d12:	9000      	str	r0, [sp, #0]
   22d14:	a817      	add	r0, sp, #92	@ 0x5c
   22d16:	211c      	movs	r1, #28
   22d18:	2203      	movs	r2, #3
   22d1a:	4623      	mov	r3, r4
   22d1c:	f7fd f9e2 	bl	200e4 <_ZN9allow_pin12full_dynamic15Buffer$LT$B$GT$5allow17hcdfd34cf7b1c64cdE>
   22d20:	07c0      	lsls	r0, r0, #31
   22d22:	d107      	bne.n	22d34 <_ZN20complex_full_dynamic3app17hc875765be8231436E+0x64>
   22d24:	4812      	ldr	r0, [pc, #72]	@ (22d70 <_ZN20complex_full_dynamic3app17hc875765be8231436E+0xa0>)
   22d26:	2105      	movs	r1, #5
   22d28:	2209      	movs	r2, #9
   22d2a:	2600      	movs	r6, #0
   22d2c:	4633      	mov	r3, r6
   22d2e:	df02      	svc	2
   22d30:	287f      	cmp	r0, #127	@ 0x7f
   22d32:	d80b      	bhi.n	22d4c <_ZN20complex_full_dynamic3app17hc875765be8231436E+0x7c>
   22d34:	9c03      	ldr	r4, [sp, #12]
   22d36:	6061      	str	r1, [r4, #4]
   22d38:	2601      	movs	r6, #1
   22d3a:	7026      	strb	r6, [r4, #0]
   22d3c:	a817      	add	r0, sp, #92	@ 0x5c
   22d3e:	f003 fdeb 	bl	26918 <_ZN9allow_pin12full_dynamic17unshare_if_shared17h2809d14697b066c7E>
   22d42:	a804      	add	r0, sp, #16
   22d44:	f003 fde8 	bl	26918 <_ZN9allow_pin12full_dynamic17unshare_if_shared17h2809d14697b066c7E>
   22d48:	b021      	add	sp, #132	@ 0x84
   22d4a:	bdf0      	pop	{r4, r5, r6, r7, pc}
   22d4c:	a804      	add	r0, sp, #16
   22d4e:	f003 fde3 	bl	26918 <_ZN9allow_pin12full_dynamic17unshare_if_shared17h2809d14697b066c7E>
   22d52:	ac17      	add	r4, sp, #92	@ 0x5c
   22d54:	4620      	mov	r0, r4
   22d56:	f003 fddf 	bl	26918 <_ZN9allow_pin12full_dynamic17unshare_if_shared17h2809d14697b066c7E>
   22d5a:	4620      	mov	r0, r4
   22d5c:	f003 fddc 	bl	26918 <_ZN9allow_pin12full_dynamic17unshare_if_shared17h2809d14697b066c7E>
   22d60:	9c03      	ldr	r4, [sp, #12]
   22d62:	1c60      	adds	r0, r4, #1
   22d64:	221c      	movs	r2, #28
   22d66:	9901      	ldr	r1, [sp, #4]
   22d68:	f003 ff97 	bl	26c9a <__aeabi_memcpy>
   22d6c:	e7e5      	b.n	22d3a <_ZN20complex_full_dynamic3app17hc875765be8231436E+0x6a>
   22d6e:	46c0      	nop			@ (mov r8, r8)
   22d70:	00001694 	.word	0x00001694

00022d74 <_ZN20complex_full_dynamic3app17hcb32fb819f245abfE>:
   22d74:	b5f0      	push	{r4, r5, r6, r7, lr}
   22d76:	af03      	add	r7, sp, #12
   22d78:	b0b3      	sub	sp, #204	@ 0xcc
   22d7a:	9004      	str	r0, [sp, #16]
   22d7c:	ae05      	add	r6, sp, #20
   22d7e:	2502      	movs	r5, #2
   22d80:	7235      	strb	r5, [r6, #8]
   22d82:	4630      	mov	r0, r6
   22d84:	300c      	adds	r0, #12
   22d86:	225d      	movs	r2, #93	@ 0x5d
   22d88:	9203      	str	r2, [sp, #12]
   22d8a:	f003 ff86 	bl	26c9a <__aeabi_memcpy>
   22d8e:	ac20      	add	r4, sp, #128	@ 0x80
   22d90:	4620      	mov	r0, r4
   22d92:	300c      	adds	r0, #12
   22d94:	2140      	movs	r1, #64	@ 0x40
   22d96:	9002      	str	r0, [sp, #8]
   22d98:	f003 fdd2 	bl	26940 <__aeabi_memclr4>
   22d9c:	7225      	strb	r5, [r4, #8]
   22d9e:	2008      	movs	r0, #8
   22da0:	9000      	str	r0, [sp, #0]
   22da2:	2504      	movs	r5, #4
   22da4:	4c1b      	ldr	r4, [pc, #108]	@ (22e14 <_ZN20complex_full_dynamic3app17hcb32fb819f245abfE+0xa0>)
   22da6:	4630      	mov	r0, r6
   22da8:	9903      	ldr	r1, [sp, #12]
   22daa:	462a      	mov	r2, r5
   22dac:	4623      	mov	r3, r4
   22dae:	f7fd f999 	bl	200e4 <_ZN9allow_pin12full_dynamic15Buffer$LT$B$GT$5allow17hcdfd34cf7b1c64cdE>
   22db2:	07c0      	lsls	r0, r0, #31
   22db4:	d110      	bne.n	22dd8 <_ZN20complex_full_dynamic3app17hcb32fb819f245abfE+0x64>
   22db6:	9500      	str	r5, [sp, #0]
   22db8:	a820      	add	r0, sp, #128	@ 0x80
   22dba:	2140      	movs	r1, #64	@ 0x40
   22dbc:	2203      	movs	r2, #3
   22dbe:	4623      	mov	r3, r4
   22dc0:	f7fd f990 	bl	200e4 <_ZN9allow_pin12full_dynamic15Buffer$LT$B$GT$5allow17hcdfd34cf7b1c64cdE>
   22dc4:	07c0      	lsls	r0, r0, #31
   22dc6:	d107      	bne.n	22dd8 <_ZN20complex_full_dynamic3app17hcb32fb819f245abfE+0x64>
   22dc8:	4812      	ldr	r0, [pc, #72]	@ (22e14 <_ZN20complex_full_dynamic3app17hcb32fb819f245abfE+0xa0>)
   22dca:	2108      	movs	r1, #8
   22dcc:	2204      	movs	r2, #4
   22dce:	2600      	movs	r6, #0
   22dd0:	4633      	mov	r3, r6
   22dd2:	df02      	svc	2
   22dd4:	287f      	cmp	r0, #127	@ 0x7f
   22dd6:	d80b      	bhi.n	22df0 <_ZN20complex_full_dynamic3app17hcb32fb819f245abfE+0x7c>
   22dd8:	9c04      	ldr	r4, [sp, #16]
   22dda:	6061      	str	r1, [r4, #4]
   22ddc:	2601      	movs	r6, #1
   22dde:	7026      	strb	r6, [r4, #0]
   22de0:	a820      	add	r0, sp, #128	@ 0x80
   22de2:	f003 fd99 	bl	26918 <_ZN9allow_pin12full_dynamic17unshare_if_shared17h2809d14697b066c7E>
   22de6:	a805      	add	r0, sp, #20
   22de8:	f003 fd96 	bl	26918 <_ZN9allow_pin12full_dynamic17unshare_if_shared17h2809d14697b066c7E>
   22dec:	b033      	add	sp, #204	@ 0xcc
   22dee:	bdf0      	pop	{r4, r5, r6, r7, pc}
   22df0:	a805      	add	r0, sp, #20
   22df2:	f003 fd91 	bl	26918 <_ZN9allow_pin12full_dynamic17unshare_if_shared17h2809d14697b066c7E>
   22df6:	ac20      	add	r4, sp, #128	@ 0x80
   22df8:	4620      	mov	r0, r4
   22dfa:	f003 fd8d 	bl	26918 <_ZN9allow_pin12full_dynamic17unshare_if_shared17h2809d14697b066c7E>
   22dfe:	4620      	mov	r0, r4
   22e00:	f003 fd8a 	bl	26918 <_ZN9allow_pin12full_dynamic17unshare_if_shared17h2809d14697b066c7E>
   22e04:	9c04      	ldr	r4, [sp, #16]
   22e06:	1c60      	adds	r0, r4, #1
   22e08:	2240      	movs	r2, #64	@ 0x40
   22e0a:	9902      	ldr	r1, [sp, #8]
   22e0c:	f003 ff45 	bl	26c9a <__aeabi_memcpy>
   22e10:	e7e5      	b.n	22dde <_ZN20complex_full_dynamic3app17hcb32fb819f245abfE+0x6a>
   22e12:	46c0      	nop			@ (mov r8, r8)
   22e14:	00001028 	.word	0x00001028

00022e18 <_ZN20complex_full_dynamic3app17hcc5c000931408766E>:
   22e18:	b5f0      	push	{r4, r5, r6, r7, lr}
   22e1a:	af03      	add	r7, sp, #12
   22e1c:	b093      	sub	sp, #76	@ 0x4c
   22e1e:	9003      	str	r0, [sp, #12]
   22e20:	ae04      	add	r6, sp, #16
   22e22:	2502      	movs	r5, #2
   22e24:	7235      	strb	r5, [r6, #8]
   22e26:	4630      	mov	r0, r6
   22e28:	300c      	adds	r0, #12
   22e2a:	220f      	movs	r2, #15
   22e2c:	9202      	str	r2, [sp, #8]
   22e2e:	f003 ff34 	bl	26c9a <__aeabi_memcpy>
   22e32:	ac0b      	add	r4, sp, #44	@ 0x2c
   22e34:	4620      	mov	r0, r4
   22e36:	300c      	adds	r0, #12
   22e38:	2113      	movs	r1, #19
   22e3a:	9001      	str	r0, [sp, #4]
   22e3c:	f003 fd80 	bl	26940 <__aeabi_memclr4>
   22e40:	7225      	strb	r5, [r4, #8]
   22e42:	2003      	movs	r0, #3
   22e44:	9000      	str	r0, [sp, #0]
   22e46:	2204      	movs	r2, #4
   22e48:	4c1b      	ldr	r4, [pc, #108]	@ (22eb8 <_ZN20complex_full_dynamic3app17hcc5c000931408766E+0xa0>)
   22e4a:	4630      	mov	r0, r6
   22e4c:	9902      	ldr	r1, [sp, #8]
   22e4e:	4623      	mov	r3, r4
   22e50:	f7fd f948 	bl	200e4 <_ZN9allow_pin12full_dynamic15Buffer$LT$B$GT$5allow17hcdfd34cf7b1c64cdE>
   22e54:	07c0      	lsls	r0, r0, #31
   22e56:	d111      	bne.n	22e7c <_ZN20complex_full_dynamic3app17hcc5c000931408766E+0x64>
   22e58:	2000      	movs	r0, #0
   22e5a:	9000      	str	r0, [sp, #0]
   22e5c:	a80b      	add	r0, sp, #44	@ 0x2c
   22e5e:	2113      	movs	r1, #19
   22e60:	2203      	movs	r2, #3
   22e62:	4623      	mov	r3, r4
   22e64:	f7fd f93e 	bl	200e4 <_ZN9allow_pin12full_dynamic15Buffer$LT$B$GT$5allow17hcdfd34cf7b1c64cdE>
   22e68:	07c0      	lsls	r0, r0, #31
   22e6a:	d107      	bne.n	22e7c <_ZN20complex_full_dynamic3app17hcc5c000931408766E+0x64>
   22e6c:	4812      	ldr	r0, [pc, #72]	@ (22eb8 <_ZN20complex_full_dynamic3app17hcc5c000931408766E+0xa0>)
   22e6e:	2103      	movs	r1, #3
   22e70:	2600      	movs	r6, #0
   22e72:	4632      	mov	r2, r6
   22e74:	4633      	mov	r3, r6
   22e76:	df02      	svc	2
   22e78:	287f      	cmp	r0, #127	@ 0x7f
   22e7a:	d80b      	bhi.n	22e94 <_ZN20complex_full_dynamic3app17hcc5c000931408766E+0x7c>
   22e7c:	9c03      	ldr	r4, [sp, #12]
   22e7e:	6061      	str	r1, [r4, #4]
   22e80:	2601      	movs	r6, #1
   22e82:	7026      	strb	r6, [r4, #0]
   22e84:	a80b      	add	r0, sp, #44	@ 0x2c
   22e86:	f003 fd47 	bl	26918 <_ZN9allow_pin12full_dynamic17unshare_if_shared17h2809d14697b066c7E>
   22e8a:	a804      	add	r0, sp, #16
   22e8c:	f003 fd44 	bl	26918 <_ZN9allow_pin12full_dynamic17unshare_if_shared17h2809d14697b066c7E>
   22e90:	b013      	add	sp, #76	@ 0x4c
   22e92:	bdf0      	pop	{r4, r5, r6, r7, pc}
   22e94:	a804      	add	r0, sp, #16
   22e96:	f003 fd3f 	bl	26918 <_ZN9allow_pin12full_dynamic17unshare_if_shared17h2809d14697b066c7E>
   22e9a:	ac0b      	add	r4, sp, #44	@ 0x2c
   22e9c:	4620      	mov	r0, r4
   22e9e:	f003 fd3b 	bl	26918 <_ZN9allow_pin12full_dynamic17unshare_if_shared17h2809d14697b066c7E>
   22ea2:	4620      	mov	r0, r4
   22ea4:	f003 fd38 	bl	26918 <_ZN9allow_pin12full_dynamic17unshare_if_shared17h2809d14697b066c7E>
   22ea8:	9c03      	ldr	r4, [sp, #12]
   22eaa:	1c60      	adds	r0, r4, #1
   22eac:	2213      	movs	r2, #19
   22eae:	9901      	ldr	r1, [sp, #4]
   22eb0:	f003 fef3 	bl	26c9a <__aeabi_memcpy>
   22eb4:	e7e5      	b.n	22e82 <_ZN20complex_full_dynamic3app17hcc5c000931408766E+0x6a>
   22eb6:	46c0      	nop			@ (mov r8, r8)
   22eb8:	00001e4b 	.word	0x00001e4b

00022ebc <_ZN20complex_full_dynamic3app17hce4a58c933fac4d1E>:
   22ebc:	b5f0      	push	{r4, r5, r6, r7, lr}
   22ebe:	af03      	add	r7, sp, #12
   22ec0:	b0a9      	sub	sp, #164	@ 0xa4
   22ec2:	9003      	str	r0, [sp, #12]
   22ec4:	ae04      	add	r6, sp, #16
   22ec6:	2502      	movs	r5, #2
   22ec8:	7235      	strb	r5, [r6, #8]
   22eca:	4630      	mov	r0, r6
   22ecc:	300c      	adds	r0, #12
   22ece:	2231      	movs	r2, #49	@ 0x31
   22ed0:	9202      	str	r2, [sp, #8]
   22ed2:	f003 fee2 	bl	26c9a <__aeabi_memcpy>
   22ed6:	ac14      	add	r4, sp, #80	@ 0x50
   22ed8:	4620      	mov	r0, r4
   22eda:	300c      	adds	r0, #12
   22edc:	2148      	movs	r1, #72	@ 0x48
   22ede:	9001      	str	r0, [sp, #4]
   22ee0:	f003 fd2e 	bl	26940 <__aeabi_memclr4>
   22ee4:	7225      	strb	r5, [r4, #8]
   22ee6:	2204      	movs	r2, #4
   22ee8:	9200      	str	r2, [sp, #0]
   22eea:	4c1b      	ldr	r4, [pc, #108]	@ (22f58 <_ZN20complex_full_dynamic3app17hce4a58c933fac4d1E+0x9c>)
   22eec:	4630      	mov	r0, r6
   22eee:	9902      	ldr	r1, [sp, #8]
   22ef0:	4623      	mov	r3, r4
   22ef2:	f7fd f8f7 	bl	200e4 <_ZN9allow_pin12full_dynamic15Buffer$LT$B$GT$5allow17hcdfd34cf7b1c64cdE>
   22ef6:	07c0      	lsls	r0, r0, #31
   22ef8:	d110      	bne.n	22f1c <_ZN20complex_full_dynamic3app17hce4a58c933fac4d1E+0x60>
   22efa:	2203      	movs	r2, #3
   22efc:	9200      	str	r2, [sp, #0]
   22efe:	a814      	add	r0, sp, #80	@ 0x50
   22f00:	2148      	movs	r1, #72	@ 0x48
   22f02:	4623      	mov	r3, r4
   22f04:	f7fd f8ee 	bl	200e4 <_ZN9allow_pin12full_dynamic15Buffer$LT$B$GT$5allow17hcdfd34cf7b1c64cdE>
   22f08:	07c0      	lsls	r0, r0, #31
   22f0a:	d107      	bne.n	22f1c <_ZN20complex_full_dynamic3app17hce4a58c933fac4d1E+0x60>
   22f0c:	4812      	ldr	r0, [pc, #72]	@ (22f58 <_ZN20complex_full_dynamic3app17hce4a58c933fac4d1E+0x9c>)
   22f0e:	2104      	movs	r1, #4
   22f10:	2203      	movs	r2, #3
   22f12:	2600      	movs	r6, #0
   22f14:	4633      	mov	r3, r6
   22f16:	df02      	svc	2
   22f18:	287f      	cmp	r0, #127	@ 0x7f
   22f1a:	d80b      	bhi.n	22f34 <_ZN20complex_full_dynamic3app17hce4a58c933fac4d1E+0x78>
   22f1c:	9c03      	ldr	r4, [sp, #12]
   22f1e:	6061      	str	r1, [r4, #4]
   22f20:	2601      	movs	r6, #1
   22f22:	7026      	strb	r6, [r4, #0]
   22f24:	a814      	add	r0, sp, #80	@ 0x50
   22f26:	f003 fcf7 	bl	26918 <_ZN9allow_pin12full_dynamic17unshare_if_shared17h2809d14697b066c7E>
   22f2a:	a804      	add	r0, sp, #16
   22f2c:	f003 fcf4 	bl	26918 <_ZN9allow_pin12full_dynamic17unshare_if_shared17h2809d14697b066c7E>
   22f30:	b029      	add	sp, #164	@ 0xa4
   22f32:	bdf0      	pop	{r4, r5, r6, r7, pc}
   22f34:	a804      	add	r0, sp, #16
   22f36:	f003 fcef 	bl	26918 <_ZN9allow_pin12full_dynamic17unshare_if_shared17h2809d14697b066c7E>
   22f3a:	ac14      	add	r4, sp, #80	@ 0x50
   22f3c:	4620      	mov	r0, r4
   22f3e:	f003 fceb 	bl	26918 <_ZN9allow_pin12full_dynamic17unshare_if_shared17h2809d14697b066c7E>
   22f42:	4620      	mov	r0, r4
   22f44:	f003 fce8 	bl	26918 <_ZN9allow_pin12full_dynamic17unshare_if_shared17h2809d14697b066c7E>
   22f48:	9c03      	ldr	r4, [sp, #12]
   22f4a:	1c60      	adds	r0, r4, #1
   22f4c:	2248      	movs	r2, #72	@ 0x48
   22f4e:	9901      	ldr	r1, [sp, #4]
   22f50:	f003 fea3 	bl	26c9a <__aeabi_memcpy>
   22f54:	e7e5      	b.n	22f22 <_ZN20complex_full_dynamic3app17hce4a58c933fac4d1E+0x66>
   22f56:	46c0      	nop			@ (mov r8, r8)
   22f58:	0000180e 	.word	0x0000180e

00022f5c <_ZN20complex_full_dynamic3app17hd6a11962b568f98dE>:
   22f5c:	b5f0      	push	{r4, r5, r6, r7, lr}
   22f5e:	af03      	add	r7, sp, #12
   22f60:	b0a7      	sub	sp, #156	@ 0x9c
   22f62:	9003      	str	r0, [sp, #12]
   22f64:	ae04      	add	r6, sp, #16
   22f66:	2502      	movs	r5, #2
   22f68:	7235      	strb	r5, [r6, #8]
   22f6a:	4630      	mov	r0, r6
   22f6c:	300c      	adds	r0, #12
   22f6e:	221e      	movs	r2, #30
   22f70:	9202      	str	r2, [sp, #8]
   22f72:	f003 fe92 	bl	26c9a <__aeabi_memcpy>
   22f76:	ac0f      	add	r4, sp, #60	@ 0x3c
   22f78:	4620      	mov	r0, r4
   22f7a:	300c      	adds	r0, #12
   22f7c:	2151      	movs	r1, #81	@ 0x51
   22f7e:	9001      	str	r0, [sp, #4]
   22f80:	f003 fcde 	bl	26940 <__aeabi_memclr4>
   22f84:	7225      	strb	r5, [r4, #8]
   22f86:	9500      	str	r5, [sp, #0]
   22f88:	2204      	movs	r2, #4
   22f8a:	4c1b      	ldr	r4, [pc, #108]	@ (22ff8 <_ZN20complex_full_dynamic3app17hd6a11962b568f98dE+0x9c>)
   22f8c:	4630      	mov	r0, r6
   22f8e:	9902      	ldr	r1, [sp, #8]
   22f90:	4623      	mov	r3, r4
   22f92:	f7fd f8a7 	bl	200e4 <_ZN9allow_pin12full_dynamic15Buffer$LT$B$GT$5allow17hcdfd34cf7b1c64cdE>
   22f96:	07c0      	lsls	r0, r0, #31
   22f98:	d111      	bne.n	22fbe <_ZN20complex_full_dynamic3app17hd6a11962b568f98dE+0x62>
   22f9a:	2000      	movs	r0, #0
   22f9c:	9000      	str	r0, [sp, #0]
   22f9e:	a80f      	add	r0, sp, #60	@ 0x3c
   22fa0:	2151      	movs	r1, #81	@ 0x51
   22fa2:	2203      	movs	r2, #3
   22fa4:	4623      	mov	r3, r4
   22fa6:	f7fd f89d 	bl	200e4 <_ZN9allow_pin12full_dynamic15Buffer$LT$B$GT$5allow17hcdfd34cf7b1c64cdE>
   22faa:	07c0      	lsls	r0, r0, #31
   22fac:	d107      	bne.n	22fbe <_ZN20complex_full_dynamic3app17hd6a11962b568f98dE+0x62>
   22fae:	4812      	ldr	r0, [pc, #72]	@ (22ff8 <_ZN20complex_full_dynamic3app17hd6a11962b568f98dE+0x9c>)
   22fb0:	2102      	movs	r1, #2
   22fb2:	2600      	movs	r6, #0
   22fb4:	4632      	mov	r2, r6
   22fb6:	4633      	mov	r3, r6
   22fb8:	df02      	svc	2
   22fba:	287f      	cmp	r0, #127	@ 0x7f
   22fbc:	d80b      	bhi.n	22fd6 <_ZN20complex_full_dynamic3app17hd6a11962b568f98dE+0x7a>
   22fbe:	9c03      	ldr	r4, [sp, #12]
   22fc0:	6061      	str	r1, [r4, #4]
   22fc2:	2601      	movs	r6, #1
   22fc4:	7026      	strb	r6, [r4, #0]
   22fc6:	a80f      	add	r0, sp, #60	@ 0x3c
   22fc8:	f003 fca6 	bl	26918 <_ZN9allow_pin12full_dynamic17unshare_if_shared17h2809d14697b066c7E>
   22fcc:	a804      	add	r0, sp, #16
   22fce:	f003 fca3 	bl	26918 <_ZN9allow_pin12full_dynamic17unshare_if_shared17h2809d14697b066c7E>
   22fd2:	b027      	add	sp, #156	@ 0x9c
   22fd4:	bdf0      	pop	{r4, r5, r6, r7, pc}
   22fd6:	a804      	add	r0, sp, #16
   22fd8:	f003 fc9e 	bl	26918 <_ZN9allow_pin12full_dynamic17unshare_if_shared17h2809d14697b066c7E>
   22fdc:	ac0f      	add	r4, sp, #60	@ 0x3c
   22fde:	4620      	mov	r0, r4
   22fe0:	f003 fc9a 	bl	26918 <_ZN9allow_pin12full_dynamic17unshare_if_shared17h2809d14697b066c7E>
   22fe4:	4620      	mov	r0, r4
   22fe6:	f003 fc97 	bl	26918 <_ZN9allow_pin12full_dynamic17unshare_if_shared17h2809d14697b066c7E>
   22fea:	9c03      	ldr	r4, [sp, #12]
   22fec:	1c60      	adds	r0, r4, #1
   22fee:	2251      	movs	r2, #81	@ 0x51
   22ff0:	9901      	ldr	r1, [sp, #4]
   22ff2:	f003 fe52 	bl	26c9a <__aeabi_memcpy>
   22ff6:	e7e5      	b.n	22fc4 <_ZN20complex_full_dynamic3app17hd6a11962b568f98dE+0x68>
   22ff8:	0000196b 	.word	0x0000196b

00022ffc <_ZN20complex_full_dynamic3app17hd943d9570bfa28baE>:
   22ffc:	b5f0      	push	{r4, r5, r6, r7, lr}
   22ffe:	af03      	add	r7, sp, #12
   23000:	b09f      	sub	sp, #124	@ 0x7c
   23002:	9004      	str	r0, [sp, #16]
   23004:	ae05      	add	r6, sp, #20
   23006:	2502      	movs	r5, #2
   23008:	7235      	strb	r5, [r6, #8]
   2300a:	4630      	mov	r0, r6
   2300c:	300c      	adds	r0, #12
   2300e:	2223      	movs	r2, #35	@ 0x23
   23010:	9203      	str	r2, [sp, #12]
   23012:	f003 fe42 	bl	26c9a <__aeabi_memcpy>
   23016:	ac11      	add	r4, sp, #68	@ 0x44
   23018:	4620      	mov	r0, r4
   2301a:	300c      	adds	r0, #12
   2301c:	212b      	movs	r1, #43	@ 0x2b
   2301e:	9002      	str	r0, [sp, #8]
   23020:	f003 fc8e 	bl	26940 <__aeabi_memclr4>
   23024:	7225      	strb	r5, [r4, #8]
   23026:	9500      	str	r5, [sp, #0]
   23028:	2204      	movs	r2, #4
   2302a:	4c1b      	ldr	r4, [pc, #108]	@ (23098 <_ZN20complex_full_dynamic3app17hd943d9570bfa28baE+0x9c>)
   2302c:	4630      	mov	r0, r6
   2302e:	9903      	ldr	r1, [sp, #12]
   23030:	4623      	mov	r3, r4
   23032:	f7fd f857 	bl	200e4 <_ZN9allow_pin12full_dynamic15Buffer$LT$B$GT$5allow17hcdfd34cf7b1c64cdE>
   23036:	07c0      	lsls	r0, r0, #31
   23038:	d111      	bne.n	2305e <_ZN20complex_full_dynamic3app17hd943d9570bfa28baE+0x62>
   2303a:	2000      	movs	r0, #0
   2303c:	9000      	str	r0, [sp, #0]
   2303e:	a811      	add	r0, sp, #68	@ 0x44
   23040:	212b      	movs	r1, #43	@ 0x2b
   23042:	2203      	movs	r2, #3
   23044:	4623      	mov	r3, r4
   23046:	f7fd f84d 	bl	200e4 <_ZN9allow_pin12full_dynamic15Buffer$LT$B$GT$5allow17hcdfd34cf7b1c64cdE>
   2304a:	07c0      	lsls	r0, r0, #31
   2304c:	d107      	bne.n	2305e <_ZN20complex_full_dynamic3app17hd943d9570bfa28baE+0x62>
   2304e:	4812      	ldr	r0, [pc, #72]	@ (23098 <_ZN20complex_full_dynamic3app17hd943d9570bfa28baE+0x9c>)
   23050:	2102      	movs	r1, #2
   23052:	2600      	movs	r6, #0
   23054:	4632      	mov	r2, r6
   23056:	4633      	mov	r3, r6
   23058:	df02      	svc	2
   2305a:	287f      	cmp	r0, #127	@ 0x7f
   2305c:	d80b      	bhi.n	23076 <_ZN20complex_full_dynamic3app17hd943d9570bfa28baE+0x7a>
   2305e:	9c04      	ldr	r4, [sp, #16]
   23060:	6061      	str	r1, [r4, #4]
   23062:	2601      	movs	r6, #1
   23064:	7026      	strb	r6, [r4, #0]
   23066:	a811      	add	r0, sp, #68	@ 0x44
   23068:	f003 fc56 	bl	26918 <_ZN9allow_pin12full_dynamic17unshare_if_shared17h2809d14697b066c7E>
   2306c:	a805      	add	r0, sp, #20
   2306e:	f003 fc53 	bl	26918 <_ZN9allow_pin12full_dynamic17unshare_if_shared17h2809d14697b066c7E>
   23072:	b01f      	add	sp, #124	@ 0x7c
   23074:	bdf0      	pop	{r4, r5, r6, r7, pc}
   23076:	a805      	add	r0, sp, #20
   23078:	f003 fc4e 	bl	26918 <_ZN9allow_pin12full_dynamic17unshare_if_shared17h2809d14697b066c7E>
   2307c:	ac11      	add	r4, sp, #68	@ 0x44
   2307e:	4620      	mov	r0, r4
   23080:	f003 fc4a 	bl	26918 <_ZN9allow_pin12full_dynamic17unshare_if_shared17h2809d14697b066c7E>
   23084:	4620      	mov	r0, r4
   23086:	f003 fc47 	bl	26918 <_ZN9allow_pin12full_dynamic17unshare_if_shared17h2809d14697b066c7E>
   2308a:	9c04      	ldr	r4, [sp, #16]
   2308c:	1c60      	adds	r0, r4, #1
   2308e:	222b      	movs	r2, #43	@ 0x2b
   23090:	9902      	ldr	r1, [sp, #8]
   23092:	f003 fe02 	bl	26c9a <__aeabi_memcpy>
   23096:	e7e5      	b.n	23064 <_ZN20complex_full_dynamic3app17hd943d9570bfa28baE+0x68>
   23098:	00000d5d 	.word	0x00000d5d

0002309c <_ZN20complex_full_dynamic3app17hdb77e29d677926f5E>:
   2309c:	b5f0      	push	{r4, r5, r6, r7, lr}
   2309e:	af03      	add	r7, sp, #12
   230a0:	b0a9      	sub	sp, #164	@ 0xa4
   230a2:	9004      	str	r0, [sp, #16]
   230a4:	ae05      	add	r6, sp, #20
   230a6:	2502      	movs	r5, #2
   230a8:	7235      	strb	r5, [r6, #8]
   230aa:	4630      	mov	r0, r6
   230ac:	300c      	adds	r0, #12
   230ae:	2227      	movs	r2, #39	@ 0x27
   230b0:	9203      	str	r2, [sp, #12]
   230b2:	f003 fdf2 	bl	26c9a <__aeabi_memcpy>
   230b6:	ac12      	add	r4, sp, #72	@ 0x48
   230b8:	4620      	mov	r0, r4
   230ba:	300c      	adds	r0, #12
   230bc:	214f      	movs	r1, #79	@ 0x4f
   230be:	9002      	str	r0, [sp, #8]
   230c0:	f003 fc3e 	bl	26940 <__aeabi_memclr4>
   230c4:	7225      	strb	r5, [r4, #8]
   230c6:	2009      	movs	r0, #9
   230c8:	9000      	str	r0, [sp, #0]
   230ca:	2204      	movs	r2, #4
   230cc:	4c1b      	ldr	r4, [pc, #108]	@ (2313c <_ZN20complex_full_dynamic3app17hdb77e29d677926f5E+0xa0>)
   230ce:	4630      	mov	r0, r6
   230d0:	9903      	ldr	r1, [sp, #12]
   230d2:	4623      	mov	r3, r4
   230d4:	f7fd f806 	bl	200e4 <_ZN9allow_pin12full_dynamic15Buffer$LT$B$GT$5allow17hcdfd34cf7b1c64cdE>
   230d8:	07c0      	lsls	r0, r0, #31
   230da:	d111      	bne.n	23100 <_ZN20complex_full_dynamic3app17hdb77e29d677926f5E+0x64>
   230dc:	2000      	movs	r0, #0
   230de:	9000      	str	r0, [sp, #0]
   230e0:	a812      	add	r0, sp, #72	@ 0x48
   230e2:	214f      	movs	r1, #79	@ 0x4f
   230e4:	2203      	movs	r2, #3
   230e6:	4623      	mov	r3, r4
   230e8:	f7fc fffc 	bl	200e4 <_ZN9allow_pin12full_dynamic15Buffer$LT$B$GT$5allow17hcdfd34cf7b1c64cdE>
   230ec:	07c0      	lsls	r0, r0, #31
   230ee:	d107      	bne.n	23100 <_ZN20complex_full_dynamic3app17hdb77e29d677926f5E+0x64>
   230f0:	4812      	ldr	r0, [pc, #72]	@ (2313c <_ZN20complex_full_dynamic3app17hdb77e29d677926f5E+0xa0>)
   230f2:	2109      	movs	r1, #9
   230f4:	2600      	movs	r6, #0
   230f6:	4632      	mov	r2, r6
   230f8:	4633      	mov	r3, r6
   230fa:	df02      	svc	2
   230fc:	287f      	cmp	r0, #127	@ 0x7f
   230fe:	d80b      	bhi.n	23118 <_ZN20complex_full_dynamic3app17hdb77e29d677926f5E+0x7c>
   23100:	9c04      	ldr	r4, [sp, #16]
   23102:	6061      	str	r1, [r4, #4]
   23104:	2601      	movs	r6, #1
   23106:	7026      	strb	r6, [r4, #0]
   23108:	a812      	add	r0, sp, #72	@ 0x48
   2310a:	f003 fc05 	bl	26918 <_ZN9allow_pin12full_dynamic17unshare_if_shared17h2809d14697b066c7E>
   2310e:	a805      	add	r0, sp, #20
   23110:	f003 fc02 	bl	26918 <_ZN9allow_pin12full_dynamic17unshare_if_shared17h2809d14697b066c7E>
   23114:	b029      	add	sp, #164	@ 0xa4
   23116:	bdf0      	pop	{r4, r5, r6, r7, pc}
   23118:	a805      	add	r0, sp, #20
   2311a:	f003 fbfd 	bl	26918 <_ZN9allow_pin12full_dynamic17unshare_if_shared17h2809d14697b066c7E>
   2311e:	ac12      	add	r4, sp, #72	@ 0x48
   23120:	4620      	mov	r0, r4
   23122:	f003 fbf9 	bl	26918 <_ZN9allow_pin12full_dynamic17unshare_if_shared17h2809d14697b066c7E>
   23126:	4620      	mov	r0, r4
   23128:	f003 fbf6 	bl	26918 <_ZN9allow_pin12full_dynamic17unshare_if_shared17h2809d14697b066c7E>
   2312c:	9c04      	ldr	r4, [sp, #16]
   2312e:	1c60      	adds	r0, r4, #1
   23130:	224f      	movs	r2, #79	@ 0x4f
   23132:	9902      	ldr	r1, [sp, #8]
   23134:	f003 fdb1 	bl	26c9a <__aeabi_memcpy>
   23138:	e7e5      	b.n	23106 <_ZN20complex_full_dynamic3app17hdb77e29d677926f5E+0x6a>
   2313a:	46c0      	nop			@ (mov r8, r8)
   2313c:	00000b4c 	.word	0x00000b4c

00023140 <_ZN20complex_full_dynamic3app17hdc660ea9981c9e58E>:
   23140:	b5f0      	push	{r4, r5, r6, r7, lr}
   23142:	af03      	add	r7, sp, #12
   23144:	b0a9      	sub	sp, #164	@ 0xa4
   23146:	9004      	str	r0, [sp, #16]
   23148:	ae05      	add	r6, sp, #20
   2314a:	2502      	movs	r5, #2
   2314c:	7235      	strb	r5, [r6, #8]
   2314e:	4630      	mov	r0, r6
   23150:	300c      	adds	r0, #12
   23152:	2222      	movs	r2, #34	@ 0x22
   23154:	9203      	str	r2, [sp, #12]
   23156:	f003 fda0 	bl	26c9a <__aeabi_memcpy>
   2315a:	ac11      	add	r4, sp, #68	@ 0x44
   2315c:	4620      	mov	r0, r4
   2315e:	300c      	adds	r0, #12
   23160:	2151      	movs	r1, #81	@ 0x51
   23162:	9002      	str	r0, [sp, #8]
   23164:	f003 fbec 	bl	26940 <__aeabi_memclr4>
   23168:	7225      	strb	r5, [r4, #8]
   2316a:	2509      	movs	r5, #9
   2316c:	9500      	str	r5, [sp, #0]
   2316e:	2204      	movs	r2, #4
   23170:	4c1a      	ldr	r4, [pc, #104]	@ (231dc <_ZN20complex_full_dynamic3app17hdc660ea9981c9e58E+0x9c>)
   23172:	4630      	mov	r0, r6
   23174:	9903      	ldr	r1, [sp, #12]
   23176:	4623      	mov	r3, r4
   23178:	f7fc ffb4 	bl	200e4 <_ZN9allow_pin12full_dynamic15Buffer$LT$B$GT$5allow17hcdfd34cf7b1c64cdE>
   2317c:	07c0      	lsls	r0, r0, #31
   2317e:	d110      	bne.n	231a2 <_ZN20complex_full_dynamic3app17hdc660ea9981c9e58E+0x62>
   23180:	9500      	str	r5, [sp, #0]
   23182:	a811      	add	r0, sp, #68	@ 0x44
   23184:	2151      	movs	r1, #81	@ 0x51
   23186:	2203      	movs	r2, #3
   23188:	4623      	mov	r3, r4
   2318a:	f7fc ffab 	bl	200e4 <_ZN9allow_pin12full_dynamic15Buffer$LT$B$GT$5allow17hcdfd34cf7b1c64cdE>
   2318e:	07c0      	lsls	r0, r0, #31
   23190:	d107      	bne.n	231a2 <_ZN20complex_full_dynamic3app17hdc660ea9981c9e58E+0x62>
   23192:	4812      	ldr	r0, [pc, #72]	@ (231dc <_ZN20complex_full_dynamic3app17hdc660ea9981c9e58E+0x9c>)
   23194:	2109      	movs	r1, #9
   23196:	2600      	movs	r6, #0
   23198:	460a      	mov	r2, r1
   2319a:	4633      	mov	r3, r6
   2319c:	df02      	svc	2
   2319e:	287f      	cmp	r0, #127	@ 0x7f
   231a0:	d80b      	bhi.n	231ba <_ZN20complex_full_dynamic3app17hdc660ea9981c9e58E+0x7a>
   231a2:	9c04      	ldr	r4, [sp, #16]
   231a4:	6061      	str	r1, [r4, #4]
   231a6:	2601      	movs	r6, #1
   231a8:	7026      	strb	r6, [r4, #0]
   231aa:	a811      	add	r0, sp, #68	@ 0x44
   231ac:	f003 fbb4 	bl	26918 <_ZN9allow_pin12full_dynamic17unshare_if_shared17h2809d14697b066c7E>
   231b0:	a805      	add	r0, sp, #20
   231b2:	f003 fbb1 	bl	26918 <_ZN9allow_pin12full_dynamic17unshare_if_shared17h2809d14697b066c7E>
   231b6:	b029      	add	sp, #164	@ 0xa4
   231b8:	bdf0      	pop	{r4, r5, r6, r7, pc}
   231ba:	a805      	add	r0, sp, #20
   231bc:	f003 fbac 	bl	26918 <_ZN9allow_pin12full_dynamic17unshare_if_shared17h2809d14697b066c7E>
   231c0:	ac11      	add	r4, sp, #68	@ 0x44
   231c2:	4620      	mov	r0, r4
   231c4:	f003 fba8 	bl	26918 <_ZN9allow_pin12full_dynamic17unshare_if_shared17h2809d14697b066c7E>
   231c8:	4620      	mov	r0, r4
   231ca:	f003 fba5 	bl	26918 <_ZN9allow_pin12full_dynamic17unshare_if_shared17h2809d14697b066c7E>
   231ce:	9c04      	ldr	r4, [sp, #16]
   231d0:	1c60      	adds	r0, r4, #1
   231d2:	2251      	movs	r2, #81	@ 0x51
   231d4:	9902      	ldr	r1, [sp, #8]
   231d6:	f003 fd60 	bl	26c9a <__aeabi_memcpy>
   231da:	e7e5      	b.n	231a8 <_ZN20complex_full_dynamic3app17hdc660ea9981c9e58E+0x68>
   231dc:	0000055e 	.word	0x0000055e

000231e0 <_ZN20complex_full_dynamic3app17hdf4a12e26ae440f7E>:
   231e0:	b5f0      	push	{r4, r5, r6, r7, lr}
   231e2:	af03      	add	r7, sp, #12
   231e4:	b0ab      	sub	sp, #172	@ 0xac
   231e6:	9003      	str	r0, [sp, #12]
   231e8:	ae04      	add	r6, sp, #16
   231ea:	2502      	movs	r5, #2
   231ec:	7235      	strb	r5, [r6, #8]
   231ee:	4630      	mov	r0, r6
   231f0:	300c      	adds	r0, #12
   231f2:	222d      	movs	r2, #45	@ 0x2d
   231f4:	9202      	str	r2, [sp, #8]
   231f6:	f003 fd50 	bl	26c9a <__aeabi_memcpy>
   231fa:	ac13      	add	r4, sp, #76	@ 0x4c
   231fc:	4620      	mov	r0, r4
   231fe:	300c      	adds	r0, #12
   23200:	2153      	movs	r1, #83	@ 0x53
   23202:	9001      	str	r0, [sp, #4]
   23204:	f003 fb9c 	bl	26940 <__aeabi_memclr4>
   23208:	7225      	strb	r5, [r4, #8]
   2320a:	9500      	str	r5, [sp, #0]
   2320c:	2204      	movs	r2, #4
   2320e:	4c1b      	ldr	r4, [pc, #108]	@ (2327c <_ZN20complex_full_dynamic3app17hdf4a12e26ae440f7E+0x9c>)
   23210:	4630      	mov	r0, r6
   23212:	9902      	ldr	r1, [sp, #8]
   23214:	4623      	mov	r3, r4
   23216:	f7fc ff65 	bl	200e4 <_ZN9allow_pin12full_dynamic15Buffer$LT$B$GT$5allow17hcdfd34cf7b1c64cdE>
   2321a:	07c0      	lsls	r0, r0, #31
   2321c:	d111      	bne.n	23242 <_ZN20complex_full_dynamic3app17hdf4a12e26ae440f7E+0x62>
   2321e:	2007      	movs	r0, #7
   23220:	9000      	str	r0, [sp, #0]
   23222:	a813      	add	r0, sp, #76	@ 0x4c
   23224:	2153      	movs	r1, #83	@ 0x53
   23226:	2203      	movs	r2, #3
   23228:	4623      	mov	r3, r4
   2322a:	f7fc ff5b 	bl	200e4 <_ZN9allow_pin12full_dynamic15Buffer$LT$B$GT$5allow17hcdfd34cf7b1c64cdE>
   2322e:	07c0      	lsls	r0, r0, #31
   23230:	d107      	bne.n	23242 <_ZN20complex_full_dynamic3app17hdf4a12e26ae440f7E+0x62>
   23232:	4812      	ldr	r0, [pc, #72]	@ (2327c <_ZN20complex_full_dynamic3app17hdf4a12e26ae440f7E+0x9c>)
   23234:	2102      	movs	r1, #2
   23236:	2207      	movs	r2, #7
   23238:	2600      	movs	r6, #0
   2323a:	4633      	mov	r3, r6
   2323c:	df02      	svc	2
   2323e:	287f      	cmp	r0, #127	@ 0x7f
   23240:	d80b      	bhi.n	2325a <_ZN20complex_full_dynamic3app17hdf4a12e26ae440f7E+0x7a>
   23242:	9c03      	ldr	r4, [sp, #12]
   23244:	6061      	str	r1, [r4, #4]
   23246:	2601      	movs	r6, #1
   23248:	7026      	strb	r6, [r4, #0]
   2324a:	a813      	add	r0, sp, #76	@ 0x4c
   2324c:	f003 fb64 	bl	26918 <_ZN9allow_pin12full_dynamic17unshare_if_shared17h2809d14697b066c7E>
   23250:	a804      	add	r0, sp, #16
   23252:	f003 fb61 	bl	26918 <_ZN9allow_pin12full_dynamic17unshare_if_shared17h2809d14697b066c7E>
   23256:	b02b      	add	sp, #172	@ 0xac
   23258:	bdf0      	pop	{r4, r5, r6, r7, pc}
   2325a:	a804      	add	r0, sp, #16
   2325c:	f003 fb5c 	bl	26918 <_ZN9allow_pin12full_dynamic17unshare_if_shared17h2809d14697b066c7E>
   23260:	ac13      	add	r4, sp, #76	@ 0x4c
   23262:	4620      	mov	r0, r4
   23264:	f003 fb58 	bl	26918 <_ZN9allow_pin12full_dynamic17unshare_if_shared17h2809d14697b066c7E>
   23268:	4620      	mov	r0, r4
   2326a:	f003 fb55 	bl	26918 <_ZN9allow_pin12full_dynamic17unshare_if_shared17h2809d14697b066c7E>
   2326e:	9c03      	ldr	r4, [sp, #12]
   23270:	1c60      	adds	r0, r4, #1
   23272:	2253      	movs	r2, #83	@ 0x53
   23274:	9901      	ldr	r1, [sp, #4]
   23276:	f003 fd10 	bl	26c9a <__aeabi_memcpy>
   2327a:	e7e5      	b.n	23248 <_ZN20complex_full_dynamic3app17hdf4a12e26ae440f7E+0x68>
   2327c:	00000ec3 	.word	0x00000ec3

00023280 <_ZN20complex_full_dynamic3app17hdf74a58a521655bcE>:
   23280:	b5f0      	push	{r4, r5, r6, r7, lr}
   23282:	af03      	add	r7, sp, #12
   23284:	b0b3      	sub	sp, #204	@ 0xcc
   23286:	9003      	str	r0, [sp, #12]
   23288:	ae04      	add	r6, sp, #16
   2328a:	2502      	movs	r5, #2
   2328c:	7235      	strb	r5, [r6, #8]
   2328e:	4630      	mov	r0, r6
   23290:	300c      	adds	r0, #12
   23292:	2251      	movs	r2, #81	@ 0x51
   23294:	9202      	str	r2, [sp, #8]
   23296:	f003 fd00 	bl	26c9a <__aeabi_memcpy>
   2329a:	ac1c      	add	r4, sp, #112	@ 0x70
   2329c:	4620      	mov	r0, r4
   2329e:	300c      	adds	r0, #12
   232a0:	214f      	movs	r1, #79	@ 0x4f
   232a2:	9001      	str	r0, [sp, #4]
   232a4:	f003 fb4c 	bl	26940 <__aeabi_memclr4>
   232a8:	7225      	strb	r5, [r4, #8]
   232aa:	2204      	movs	r2, #4
   232ac:	9200      	str	r2, [sp, #0]
   232ae:	4c1b      	ldr	r4, [pc, #108]	@ (2331c <_ZN20complex_full_dynamic3app17hdf74a58a521655bcE+0x9c>)
   232b0:	4630      	mov	r0, r6
   232b2:	9902      	ldr	r1, [sp, #8]
   232b4:	4623      	mov	r3, r4
   232b6:	f7fc ff15 	bl	200e4 <_ZN9allow_pin12full_dynamic15Buffer$LT$B$GT$5allow17hcdfd34cf7b1c64cdE>
   232ba:	07c0      	lsls	r0, r0, #31
   232bc:	d111      	bne.n	232e2 <_ZN20complex_full_dynamic3app17hdf74a58a521655bcE+0x62>
   232be:	2009      	movs	r0, #9
   232c0:	9000      	str	r0, [sp, #0]
   232c2:	a81c      	add	r0, sp, #112	@ 0x70
   232c4:	214f      	movs	r1, #79	@ 0x4f
   232c6:	2203      	movs	r2, #3
   232c8:	4623      	mov	r3, r4
   232ca:	f7fc ff0b 	bl	200e4 <_ZN9allow_pin12full_dynamic15Buffer$LT$B$GT$5allow17hcdfd34cf7b1c64cdE>
   232ce:	07c0      	lsls	r0, r0, #31
   232d0:	d107      	bne.n	232e2 <_ZN20complex_full_dynamic3app17hdf74a58a521655bcE+0x62>
   232d2:	4812      	ldr	r0, [pc, #72]	@ (2331c <_ZN20complex_full_dynamic3app17hdf74a58a521655bcE+0x9c>)
   232d4:	2104      	movs	r1, #4
   232d6:	2209      	movs	r2, #9
   232d8:	2600      	movs	r6, #0
   232da:	4633      	mov	r3, r6
   232dc:	df02      	svc	2
   232de:	287f      	cmp	r0, #127	@ 0x7f
   232e0:	d80b      	bhi.n	232fa <_ZN20complex_full_dynamic3app17hdf74a58a521655bcE+0x7a>
   232e2:	9c03      	ldr	r4, [sp, #12]
   232e4:	6061      	str	r1, [r4, #4]
   232e6:	2601      	movs	r6, #1
   232e8:	7026      	strb	r6, [r4, #0]
   232ea:	a81c      	add	r0, sp, #112	@ 0x70
   232ec:	f003 fb14 	bl	26918 <_ZN9allow_pin12full_dynamic17unshare_if_shared17h2809d14697b066c7E>
   232f0:	a804      	add	r0, sp, #16
   232f2:	f003 fb11 	bl	26918 <_ZN9allow_pin12full_dynamic17unshare_if_shared17h2809d14697b066c7E>
   232f6:	b033      	add	sp, #204	@ 0xcc
   232f8:	bdf0      	pop	{r4, r5, r6, r7, pc}
   232fa:	a804      	add	r0, sp, #16
   232fc:	f003 fb0c 	bl	26918 <_ZN9allow_pin12full_dynamic17unshare_if_shared17h2809d14697b066c7E>
   23300:	ac1c      	add	r4, sp, #112	@ 0x70
   23302:	4620      	mov	r0, r4
   23304:	f003 fb08 	bl	26918 <_ZN9allow_pin12full_dynamic17unshare_if_shared17h2809d14697b066c7E>
   23308:	4620      	mov	r0, r4
   2330a:	f003 fb05 	bl	26918 <_ZN9allow_pin12full_dynamic17unshare_if_shared17h2809d14697b066c7E>
   2330e:	9c03      	ldr	r4, [sp, #12]
   23310:	1c60      	adds	r0, r4, #1
   23312:	224f      	movs	r2, #79	@ 0x4f
   23314:	9901      	ldr	r1, [sp, #4]
   23316:	f003 fcc0 	bl	26c9a <__aeabi_memcpy>
   2331a:	e7e5      	b.n	232e8 <_ZN20complex_full_dynamic3app17hdf74a58a521655bcE+0x68>
   2331c:	000020ee 	.word	0x000020ee

00023320 <_ZN20complex_full_dynamic3app17he1da223d5d0a9badE>:
   23320:	b5f0      	push	{r4, r5, r6, r7, lr}
   23322:	af03      	add	r7, sp, #12
   23324:	b09f      	sub	sp, #124	@ 0x7c
   23326:	9003      	str	r0, [sp, #12]
   23328:	ae04      	add	r6, sp, #16
   2332a:	2402      	movs	r4, #2
   2332c:	7234      	strb	r4, [r6, #8]
   2332e:	4630      	mov	r0, r6
   23330:	300c      	adds	r0, #12
   23332:	2211      	movs	r2, #17
   23334:	9202      	str	r2, [sp, #8]
   23336:	f003 fcb0 	bl	26c9a <__aeabi_memcpy>
   2333a:	ad0c      	add	r5, sp, #48	@ 0x30
   2333c:	4628      	mov	r0, r5
   2333e:	300c      	adds	r0, #12
   23340:	213f      	movs	r1, #63	@ 0x3f
   23342:	9001      	str	r0, [sp, #4]
   23344:	f003 fafc 	bl	26940 <__aeabi_memclr4>
   23348:	722c      	strb	r4, [r5, #8]
   2334a:	2007      	movs	r0, #7
   2334c:	9000      	str	r0, [sp, #0]
   2334e:	20cb      	movs	r0, #203	@ 0xcb
   23350:	0105      	lsls	r5, r0, #4
   23352:	2404      	movs	r4, #4
   23354:	4630      	mov	r0, r6
   23356:	9902      	ldr	r1, [sp, #8]
   23358:	4622      	mov	r2, r4
   2335a:	462b      	mov	r3, r5
   2335c:	f7fc fec2 	bl	200e4 <_ZN9allow_pin12full_dynamic15Buffer$LT$B$GT$5allow17hcdfd34cf7b1c64cdE>
   23360:	07c0      	lsls	r0, r0, #31
   23362:	d110      	bne.n	23386 <_ZN20complex_full_dynamic3app17he1da223d5d0a9badE+0x66>
   23364:	9400      	str	r4, [sp, #0]
   23366:	a80c      	add	r0, sp, #48	@ 0x30
   23368:	213f      	movs	r1, #63	@ 0x3f
   2336a:	2203      	movs	r2, #3
   2336c:	462b      	mov	r3, r5
   2336e:	f7fc feb9 	bl	200e4 <_ZN9allow_pin12full_dynamic15Buffer$LT$B$GT$5allow17hcdfd34cf7b1c64cdE>
   23372:	07c0      	lsls	r0, r0, #31
   23374:	d107      	bne.n	23386 <_ZN20complex_full_dynamic3app17he1da223d5d0a9badE+0x66>
   23376:	2107      	movs	r1, #7
   23378:	2204      	movs	r2, #4
   2337a:	2600      	movs	r6, #0
   2337c:	4628      	mov	r0, r5
   2337e:	4633      	mov	r3, r6
   23380:	df02      	svc	2
   23382:	287f      	cmp	r0, #127	@ 0x7f
   23384:	d80b      	bhi.n	2339e <_ZN20complex_full_dynamic3app17he1da223d5d0a9badE+0x7e>
   23386:	9c03      	ldr	r4, [sp, #12]
   23388:	6061      	str	r1, [r4, #4]
   2338a:	2601      	movs	r6, #1
   2338c:	7026      	strb	r6, [r4, #0]
   2338e:	a80c      	add	r0, sp, #48	@ 0x30
   23390:	f003 fac2 	bl	26918 <_ZN9allow_pin12full_dynamic17unshare_if_shared17h2809d14697b066c7E>
   23394:	a804      	add	r0, sp, #16
   23396:	f003 fabf 	bl	26918 <_ZN9allow_pin12full_dynamic17unshare_if_shared17h2809d14697b066c7E>
   2339a:	b01f      	add	sp, #124	@ 0x7c
   2339c:	bdf0      	pop	{r4, r5, r6, r7, pc}
   2339e:	a804      	add	r0, sp, #16
   233a0:	f003 faba 	bl	26918 <_ZN9allow_pin12full_dynamic17unshare_if_shared17h2809d14697b066c7E>
   233a4:	ac0c      	add	r4, sp, #48	@ 0x30
   233a6:	4620      	mov	r0, r4
   233a8:	f003 fab6 	bl	26918 <_ZN9allow_pin12full_dynamic17unshare_if_shared17h2809d14697b066c7E>
   233ac:	4620      	mov	r0, r4
   233ae:	f003 fab3 	bl	26918 <_ZN9allow_pin12full_dynamic17unshare_if_shared17h2809d14697b066c7E>
   233b2:	9c03      	ldr	r4, [sp, #12]
   233b4:	1c60      	adds	r0, r4, #1
   233b6:	223f      	movs	r2, #63	@ 0x3f
   233b8:	9901      	ldr	r1, [sp, #4]
   233ba:	f003 fc6e 	bl	26c9a <__aeabi_memcpy>
   233be:	e7e5      	b.n	2338c <_ZN20complex_full_dynamic3app17he1da223d5d0a9badE+0x6c>

000233c0 <_ZN20complex_full_dynamic3app17he697060c4c9c520aE>:
   233c0:	b5f0      	push	{r4, r5, r6, r7, lr}
   233c2:	af03      	add	r7, sp, #12
   233c4:	b0a5      	sub	sp, #148	@ 0x94
   233c6:	9003      	str	r0, [sp, #12]
   233c8:	ae04      	add	r6, sp, #16
   233ca:	2502      	movs	r5, #2
   233cc:	7235      	strb	r5, [r6, #8]
   233ce:	4630      	mov	r0, r6
   233d0:	300c      	adds	r0, #12
   233d2:	2255      	movs	r2, #85	@ 0x55
   233d4:	9202      	str	r2, [sp, #8]
   233d6:	f003 fc60 	bl	26c9a <__aeabi_memcpy>
   233da:	ac1d      	add	r4, sp, #116	@ 0x74
   233dc:	4620      	mov	r0, r4
   233de:	300c      	adds	r0, #12
   233e0:	2111      	movs	r1, #17
   233e2:	9001      	str	r0, [sp, #4]
   233e4:	f003 faac 	bl	26940 <__aeabi_memclr4>
   233e8:	7225      	strb	r5, [r4, #8]
   233ea:	9500      	str	r5, [sp, #0]
   233ec:	2204      	movs	r2, #4
   233ee:	4c1b      	ldr	r4, [pc, #108]	@ (2345c <_ZN20complex_full_dynamic3app17he697060c4c9c520aE+0x9c>)
   233f0:	4630      	mov	r0, r6
   233f2:	9902      	ldr	r1, [sp, #8]
   233f4:	4623      	mov	r3, r4
   233f6:	f7fc fe75 	bl	200e4 <_ZN9allow_pin12full_dynamic15Buffer$LT$B$GT$5allow17hcdfd34cf7b1c64cdE>
   233fa:	07c0      	lsls	r0, r0, #31
   233fc:	d110      	bne.n	23420 <_ZN20complex_full_dynamic3app17he697060c4c9c520aE+0x60>
   233fe:	9500      	str	r5, [sp, #0]
   23400:	a81d      	add	r0, sp, #116	@ 0x74
   23402:	2111      	movs	r1, #17
   23404:	2203      	movs	r2, #3
   23406:	4623      	mov	r3, r4
   23408:	f7fc fe6c 	bl	200e4 <_ZN9allow_pin12full_dynamic15Buffer$LT$B$GT$5allow17hcdfd34cf7b1c64cdE>
   2340c:	07c0      	lsls	r0, r0, #31
   2340e:	d107      	bne.n	23420 <_ZN20complex_full_dynamic3app17he697060c4c9c520aE+0x60>
   23410:	4812      	ldr	r0, [pc, #72]	@ (2345c <_ZN20complex_full_dynamic3app17he697060c4c9c520aE+0x9c>)
   23412:	2102      	movs	r1, #2
   23414:	2600      	movs	r6, #0
   23416:	460a      	mov	r2, r1
   23418:	4633      	mov	r3, r6
   2341a:	df02      	svc	2
   2341c:	287f      	cmp	r0, #127	@ 0x7f
   2341e:	d80b      	bhi.n	23438 <_ZN20complex_full_dynamic3app17he697060c4c9c520aE+0x78>
   23420:	9c03      	ldr	r4, [sp, #12]
   23422:	6061      	str	r1, [r4, #4]
   23424:	2601      	movs	r6, #1
   23426:	7026      	strb	r6, [r4, #0]
   23428:	a81d      	add	r0, sp, #116	@ 0x74
   2342a:	f003 fa75 	bl	26918 <_ZN9allow_pin12full_dynamic17unshare_if_shared17h2809d14697b066c7E>
   2342e:	a804      	add	r0, sp, #16
   23430:	f003 fa72 	bl	26918 <_ZN9allow_pin12full_dynamic17unshare_if_shared17h2809d14697b066c7E>
   23434:	b025      	add	sp, #148	@ 0x94
   23436:	bdf0      	pop	{r4, r5, r6, r7, pc}
   23438:	a804      	add	r0, sp, #16
   2343a:	f003 fa6d 	bl	26918 <_ZN9allow_pin12full_dynamic17unshare_if_shared17h2809d14697b066c7E>
   2343e:	ac1d      	add	r4, sp, #116	@ 0x74
   23440:	4620      	mov	r0, r4
   23442:	f003 fa69 	bl	26918 <_ZN9allow_pin12full_dynamic17unshare_if_shared17h2809d14697b066c7E>
   23446:	4620      	mov	r0, r4
   23448:	f003 fa66 	bl	26918 <_ZN9allow_pin12full_dynamic17unshare_if_shared17h2809d14697b066c7E>
   2344c:	9c03      	ldr	r4, [sp, #12]
   2344e:	1c60      	adds	r0, r4, #1
   23450:	2211      	movs	r2, #17
   23452:	9901      	ldr	r1, [sp, #4]
   23454:	f003 fc21 	bl	26c9a <__aeabi_memcpy>
   23458:	e7e5      	b.n	23426 <_ZN20complex_full_dynamic3app17he697060c4c9c520aE+0x66>
   2345a:	46c0      	nop			@ (mov r8, r8)
   2345c:	00000c89 	.word	0x00000c89

00023460 <_ZN20complex_full_dynamic3app17hea82cedb61a0b421E>:
   23460:	b5f0      	push	{r4, r5, r6, r7, lr}
   23462:	af03      	add	r7, sp, #12
   23464:	b0a7      	sub	sp, #156	@ 0x9c
   23466:	9003      	str	r0, [sp, #12]
   23468:	ae04      	add	r6, sp, #16
   2346a:	2502      	movs	r5, #2
   2346c:	7235      	strb	r5, [r6, #8]
   2346e:	4630      	mov	r0, r6
   23470:	300c      	adds	r0, #12
   23472:	223c      	movs	r2, #60	@ 0x3c
   23474:	9202      	str	r2, [sp, #8]
   23476:	f003 fc10 	bl	26c9a <__aeabi_memcpy>
   2347a:	ac16      	add	r4, sp, #88	@ 0x58
   2347c:	4620      	mov	r0, r4
   2347e:	300c      	adds	r0, #12
   23480:	2138      	movs	r1, #56	@ 0x38
   23482:	9001      	str	r0, [sp, #4]
   23484:	f003 fa5c 	bl	26940 <__aeabi_memclr4>
   23488:	7225      	strb	r5, [r4, #8]
   2348a:	2503      	movs	r5, #3
   2348c:	9500      	str	r5, [sp, #0]
   2348e:	2204      	movs	r2, #4
   23490:	4c1a      	ldr	r4, [pc, #104]	@ (234fc <_ZN20complex_full_dynamic3app17hea82cedb61a0b421E+0x9c>)
   23492:	4630      	mov	r0, r6
   23494:	9902      	ldr	r1, [sp, #8]
   23496:	4623      	mov	r3, r4
   23498:	f7fc fe24 	bl	200e4 <_ZN9allow_pin12full_dynamic15Buffer$LT$B$GT$5allow17hcdfd34cf7b1c64cdE>
   2349c:	07c0      	lsls	r0, r0, #31
   2349e:	d110      	bne.n	234c2 <_ZN20complex_full_dynamic3app17hea82cedb61a0b421E+0x62>
   234a0:	9500      	str	r5, [sp, #0]
   234a2:	a816      	add	r0, sp, #88	@ 0x58
   234a4:	2138      	movs	r1, #56	@ 0x38
   234a6:	462a      	mov	r2, r5
   234a8:	4623      	mov	r3, r4
   234aa:	f7fc fe1b 	bl	200e4 <_ZN9allow_pin12full_dynamic15Buffer$LT$B$GT$5allow17hcdfd34cf7b1c64cdE>
   234ae:	07c0      	lsls	r0, r0, #31
   234b0:	d107      	bne.n	234c2 <_ZN20complex_full_dynamic3app17hea82cedb61a0b421E+0x62>
   234b2:	4812      	ldr	r0, [pc, #72]	@ (234fc <_ZN20complex_full_dynamic3app17hea82cedb61a0b421E+0x9c>)
   234b4:	2103      	movs	r1, #3
   234b6:	2600      	movs	r6, #0
   234b8:	460a      	mov	r2, r1
   234ba:	4633      	mov	r3, r6
   234bc:	df02      	svc	2
   234be:	287f      	cmp	r0, #127	@ 0x7f
   234c0:	d80b      	bhi.n	234da <_ZN20complex_full_dynamic3app17hea82cedb61a0b421E+0x7a>
   234c2:	9c03      	ldr	r4, [sp, #12]
   234c4:	6061      	str	r1, [r4, #4]
   234c6:	2601      	movs	r6, #1
   234c8:	7026      	strb	r6, [r4, #0]
   234ca:	a816      	add	r0, sp, #88	@ 0x58
   234cc:	f003 fa24 	bl	26918 <_ZN9allow_pin12full_dynamic17unshare_if_shared17h2809d14697b066c7E>
   234d0:	a804      	add	r0, sp, #16
   234d2:	f003 fa21 	bl	26918 <_ZN9allow_pin12full_dynamic17unshare_if_shared17h2809d14697b066c7E>
   234d6:	b027      	add	sp, #156	@ 0x9c
   234d8:	bdf0      	pop	{r4, r5, r6, r7, pc}
   234da:	a804      	add	r0, sp, #16
   234dc:	f003 fa1c 	bl	26918 <_ZN9allow_pin12full_dynamic17unshare_if_shared17h2809d14697b066c7E>
   234e0:	ac16      	add	r4, sp, #88	@ 0x58
   234e2:	4620      	mov	r0, r4
   234e4:	f003 fa18 	bl	26918 <_ZN9allow_pin12full_dynamic17unshare_if_shared17h2809d14697b066c7E>
   234e8:	4620      	mov	r0, r4
   234ea:	f003 fa15 	bl	26918 <_ZN9allow_pin12full_dynamic17unshare_if_shared17h2809d14697b066c7E>
   234ee:	9c03      	ldr	r4, [sp, #12]
   234f0:	1c60      	adds	r0, r4, #1
   234f2:	2238      	movs	r2, #56	@ 0x38
   234f4:	9901      	ldr	r1, [sp, #4]
   234f6:	f003 fbd0 	bl	26c9a <__aeabi_memcpy>
   234fa:	e7e5      	b.n	234c8 <_ZN20complex_full_dynamic3app17hea82cedb61a0b421E+0x68>
   234fc:	00001d19 	.word	0x00001d19

00023500 <_ZN20complex_full_dynamic3app17heb7799a221b2e758E>:
   23500:	b5f0      	push	{r4, r5, r6, r7, lr}
   23502:	af03      	add	r7, sp, #12
   23504:	b09f      	sub	sp, #124	@ 0x7c
   23506:	9003      	str	r0, [sp, #12]
   23508:	ae04      	add	r6, sp, #16
   2350a:	2502      	movs	r5, #2
   2350c:	7235      	strb	r5, [r6, #8]
   2350e:	4630      	mov	r0, r6
   23510:	300c      	adds	r0, #12
   23512:	222a      	movs	r2, #42	@ 0x2a
   23514:	9202      	str	r2, [sp, #8]
   23516:	f003 fbc0 	bl	26c9a <__aeabi_memcpy>
   2351a:	ac12      	add	r4, sp, #72	@ 0x48
   2351c:	4620      	mov	r0, r4
   2351e:	300c      	adds	r0, #12
   23520:	2128      	movs	r1, #40	@ 0x28
   23522:	9001      	str	r0, [sp, #4]
   23524:	f003 fa0c 	bl	26940 <__aeabi_memclr4>
   23528:	7225      	strb	r5, [r4, #8]
   2352a:	2204      	movs	r2, #4
   2352c:	9200      	str	r2, [sp, #0]
   2352e:	4c1b      	ldr	r4, [pc, #108]	@ (2359c <_ZN20complex_full_dynamic3app17heb7799a221b2e758E+0x9c>)
   23530:	4630      	mov	r0, r6
   23532:	9902      	ldr	r1, [sp, #8]
   23534:	4623      	mov	r3, r4
   23536:	f7fc fdd5 	bl	200e4 <_ZN9allow_pin12full_dynamic15Buffer$LT$B$GT$5allow17hcdfd34cf7b1c64cdE>
   2353a:	07c0      	lsls	r0, r0, #31
   2353c:	d111      	bne.n	23562 <_ZN20complex_full_dynamic3app17heb7799a221b2e758E+0x62>
   2353e:	2008      	movs	r0, #8
   23540:	9000      	str	r0, [sp, #0]
   23542:	a812      	add	r0, sp, #72	@ 0x48
   23544:	2128      	movs	r1, #40	@ 0x28
   23546:	2203      	movs	r2, #3
   23548:	4623      	mov	r3, r4
   2354a:	f7fc fdcb 	bl	200e4 <_ZN9allow_pin12full_dynamic15Buffer$LT$B$GT$5allow17hcdfd34cf7b1c64cdE>
   2354e:	07c0      	lsls	r0, r0, #31
   23550:	d107      	bne.n	23562 <_ZN20complex_full_dynamic3app17heb7799a221b2e758E+0x62>
   23552:	4812      	ldr	r0, [pc, #72]	@ (2359c <_ZN20complex_full_dynamic3app17heb7799a221b2e758E+0x9c>)
   23554:	2104      	movs	r1, #4
   23556:	2208      	movs	r2, #8
   23558:	2600      	movs	r6, #0
   2355a:	4633      	mov	r3, r6
   2355c:	df02      	svc	2
   2355e:	287f      	cmp	r0, #127	@ 0x7f
   23560:	d80b      	bhi.n	2357a <_ZN20complex_full_dynamic3app17heb7799a221b2e758E+0x7a>
   23562:	9c03      	ldr	r4, [sp, #12]
   23564:	6061      	str	r1, [r4, #4]
   23566:	2601      	movs	r6, #1
   23568:	7026      	strb	r6, [r4, #0]
   2356a:	a812      	add	r0, sp, #72	@ 0x48
   2356c:	f003 f9d4 	bl	26918 <_ZN9allow_pin12full_dynamic17unshare_if_shared17h2809d14697b066c7E>
   23570:	a804      	add	r0, sp, #16
   23572:	f003 f9d1 	bl	26918 <_ZN9allow_pin12full_dynamic17unshare_if_shared17h2809d14697b066c7E>
   23576:	b01f      	add	sp, #124	@ 0x7c
   23578:	bdf0      	pop	{r4, r5, r6, r7, pc}
   2357a:	a804      	add	r0, sp, #16
   2357c:	f003 f9cc 	bl	26918 <_ZN9allow_pin12full_dynamic17unshare_if_shared17h2809d14697b066c7E>
   23580:	ac12      	add	r4, sp, #72	@ 0x48
   23582:	4620      	mov	r0, r4
   23584:	f003 f9c8 	bl	26918 <_ZN9allow_pin12full_dynamic17unshare_if_shared17h2809d14697b066c7E>
   23588:	4620      	mov	r0, r4
   2358a:	f003 f9c5 	bl	26918 <_ZN9allow_pin12full_dynamic17unshare_if_shared17h2809d14697b066c7E>
   2358e:	9c03      	ldr	r4, [sp, #12]
   23590:	1c60      	adds	r0, r4, #1
   23592:	2228      	movs	r2, #40	@ 0x28
   23594:	9901      	ldr	r1, [sp, #4]
   23596:	f003 fb80 	bl	26c9a <__aeabi_memcpy>
   2359a:	e7e5      	b.n	23568 <_ZN20complex_full_dynamic3app17heb7799a221b2e758E+0x68>
   2359c:	00001efa 	.word	0x00001efa

000235a0 <_ZN20complex_full_dynamic3app17hec1d81dec661e80dE>:
   235a0:	b5f0      	push	{r4, r5, r6, r7, lr}
   235a2:	af03      	add	r7, sp, #12
   235a4:	b099      	sub	sp, #100	@ 0x64
   235a6:	9003      	str	r0, [sp, #12]
   235a8:	ae04      	add	r6, sp, #16
   235aa:	2402      	movs	r4, #2
   235ac:	7234      	strb	r4, [r6, #8]
   235ae:	4630      	mov	r0, r6
   235b0:	300c      	adds	r0, #12
   235b2:	222b      	movs	r2, #43	@ 0x2b
   235b4:	9202      	str	r2, [sp, #8]
   235b6:	f003 fb70 	bl	26c9a <__aeabi_memcpy>
   235ba:	a812      	add	r0, sp, #72	@ 0x48
   235bc:	2500      	movs	r5, #0
   235be:	7605      	strb	r5, [r0, #24]
   235c0:	9001      	str	r0, [sp, #4]
   235c2:	7204      	strb	r4, [r0, #8]
   235c4:	9517      	str	r5, [sp, #92]	@ 0x5c
   235c6:	9516      	str	r5, [sp, #88]	@ 0x58
   235c8:	9515      	str	r5, [sp, #84]	@ 0x54
   235ca:	2006      	movs	r0, #6
   235cc:	9000      	str	r0, [sp, #0]
   235ce:	2204      	movs	r2, #4
   235d0:	4c1b      	ldr	r4, [pc, #108]	@ (23640 <_ZN20complex_full_dynamic3app17hec1d81dec661e80dE+0xa0>)
   235d2:	4630      	mov	r0, r6
   235d4:	9902      	ldr	r1, [sp, #8]
   235d6:	4623      	mov	r3, r4
   235d8:	f7fc fd84 	bl	200e4 <_ZN9allow_pin12full_dynamic15Buffer$LT$B$GT$5allow17hcdfd34cf7b1c64cdE>
   235dc:	07c0      	lsls	r0, r0, #31
   235de:	d110      	bne.n	23602 <_ZN20complex_full_dynamic3app17hec1d81dec661e80dE+0x62>
   235e0:	9500      	str	r5, [sp, #0]
   235e2:	a812      	add	r0, sp, #72	@ 0x48
   235e4:	210d      	movs	r1, #13
   235e6:	2203      	movs	r2, #3
   235e8:	4623      	mov	r3, r4
   235ea:	f7fc fd7b 	bl	200e4 <_ZN9allow_pin12full_dynamic15Buffer$LT$B$GT$5allow17hcdfd34cf7b1c64cdE>
   235ee:	07c0      	lsls	r0, r0, #31
   235f0:	d107      	bne.n	23602 <_ZN20complex_full_dynamic3app17hec1d81dec661e80dE+0x62>
   235f2:	4813      	ldr	r0, [pc, #76]	@ (23640 <_ZN20complex_full_dynamic3app17hec1d81dec661e80dE+0xa0>)
   235f4:	2106      	movs	r1, #6
   235f6:	2600      	movs	r6, #0
   235f8:	4632      	mov	r2, r6
   235fa:	4633      	mov	r3, r6
   235fc:	df02      	svc	2
   235fe:	287f      	cmp	r0, #127	@ 0x7f
   23600:	d80b      	bhi.n	2361a <_ZN20complex_full_dynamic3app17hec1d81dec661e80dE+0x7a>
   23602:	9c03      	ldr	r4, [sp, #12]
   23604:	6061      	str	r1, [r4, #4]
   23606:	2601      	movs	r6, #1
   23608:	7026      	strb	r6, [r4, #0]
   2360a:	a812      	add	r0, sp, #72	@ 0x48
   2360c:	f003 f984 	bl	26918 <_ZN9allow_pin12full_dynamic17unshare_if_shared17h2809d14697b066c7E>
   23610:	a804      	add	r0, sp, #16
   23612:	f003 f981 	bl	26918 <_ZN9allow_pin12full_dynamic17unshare_if_shared17h2809d14697b066c7E>
   23616:	b019      	add	sp, #100	@ 0x64
   23618:	bdf0      	pop	{r4, r5, r6, r7, pc}
   2361a:	9d01      	ldr	r5, [sp, #4]
   2361c:	350c      	adds	r5, #12
   2361e:	a804      	add	r0, sp, #16
   23620:	f003 f97a 	bl	26918 <_ZN9allow_pin12full_dynamic17unshare_if_shared17h2809d14697b066c7E>
   23624:	ac12      	add	r4, sp, #72	@ 0x48
   23626:	4620      	mov	r0, r4
   23628:	f003 f976 	bl	26918 <_ZN9allow_pin12full_dynamic17unshare_if_shared17h2809d14697b066c7E>
   2362c:	4620      	mov	r0, r4
   2362e:	f003 f973 	bl	26918 <_ZN9allow_pin12full_dynamic17unshare_if_shared17h2809d14697b066c7E>
   23632:	9c03      	ldr	r4, [sp, #12]
   23634:	1c60      	adds	r0, r4, #1
   23636:	220d      	movs	r2, #13
   23638:	4629      	mov	r1, r5
   2363a:	f003 fb2e 	bl	26c9a <__aeabi_memcpy>
   2363e:	e7e3      	b.n	23608 <_ZN20complex_full_dynamic3app17hec1d81dec661e80dE+0x68>
   23640:	00001465 	.word	0x00001465

00023644 <_ZN20complex_full_dynamic3app17hecfda068f05cade8E>:
   23644:	b5f0      	push	{r4, r5, r6, r7, lr}
   23646:	af03      	add	r7, sp, #12
   23648:	b0b3      	sub	sp, #204	@ 0xcc
   2364a:	9003      	str	r0, [sp, #12]
   2364c:	ae04      	add	r6, sp, #16
   2364e:	2502      	movs	r5, #2
   23650:	7235      	strb	r5, [r6, #8]
   23652:	4630      	mov	r0, r6
   23654:	300c      	adds	r0, #12
   23656:	2251      	movs	r2, #81	@ 0x51
   23658:	9202      	str	r2, [sp, #8]
   2365a:	f003 fb1e 	bl	26c9a <__aeabi_memcpy>
   2365e:	ac1c      	add	r4, sp, #112	@ 0x70
   23660:	4620      	mov	r0, r4
   23662:	300c      	adds	r0, #12
   23664:	214f      	movs	r1, #79	@ 0x4f
   23666:	9001      	str	r0, [sp, #4]
   23668:	f003 f96a 	bl	26940 <__aeabi_memclr4>
   2366c:	7225      	strb	r5, [r4, #8]
   2366e:	9500      	str	r5, [sp, #0]
   23670:	2504      	movs	r5, #4
   23672:	4c1b      	ldr	r4, [pc, #108]	@ (236e0 <_ZN20complex_full_dynamic3app17hecfda068f05cade8E+0x9c>)
   23674:	4630      	mov	r0, r6
   23676:	9902      	ldr	r1, [sp, #8]
   23678:	462a      	mov	r2, r5
   2367a:	4623      	mov	r3, r4
   2367c:	f7fc fd32 	bl	200e4 <_ZN9allow_pin12full_dynamic15Buffer$LT$B$GT$5allow17hcdfd34cf7b1c64cdE>
   23680:	07c0      	lsls	r0, r0, #31
   23682:	d110      	bne.n	236a6 <_ZN20complex_full_dynamic3app17hecfda068f05cade8E+0x62>
   23684:	9500      	str	r5, [sp, #0]
   23686:	a81c      	add	r0, sp, #112	@ 0x70
   23688:	214f      	movs	r1, #79	@ 0x4f
   2368a:	2203      	movs	r2, #3
   2368c:	4623      	mov	r3, r4
   2368e:	f7fc fd29 	bl	200e4 <_ZN9allow_pin12full_dynamic15Buffer$LT$B$GT$5allow17hcdfd34cf7b1c64cdE>
   23692:	07c0      	lsls	r0, r0, #31
   23694:	d107      	bne.n	236a6 <_ZN20complex_full_dynamic3app17hecfda068f05cade8E+0x62>
   23696:	4812      	ldr	r0, [pc, #72]	@ (236e0 <_ZN20complex_full_dynamic3app17hecfda068f05cade8E+0x9c>)
   23698:	2102      	movs	r1, #2
   2369a:	2204      	movs	r2, #4
   2369c:	2600      	movs	r6, #0
   2369e:	4633      	mov	r3, r6
   236a0:	df02      	svc	2
   236a2:	287f      	cmp	r0, #127	@ 0x7f
   236a4:	d80b      	bhi.n	236be <_ZN20complex_full_dynamic3app17hecfda068f05cade8E+0x7a>
   236a6:	9c03      	ldr	r4, [sp, #12]
   236a8:	6061      	str	r1, [r4, #4]
   236aa:	2601      	movs	r6, #1
   236ac:	7026      	strb	r6, [r4, #0]
   236ae:	a81c      	add	r0, sp, #112	@ 0x70
   236b0:	f003 f932 	bl	26918 <_ZN9allow_pin12full_dynamic17unshare_if_shared17h2809d14697b066c7E>
   236b4:	a804      	add	r0, sp, #16
   236b6:	f003 f92f 	bl	26918 <_ZN9allow_pin12full_dynamic17unshare_if_shared17h2809d14697b066c7E>
   236ba:	b033      	add	sp, #204	@ 0xcc
   236bc:	bdf0      	pop	{r4, r5, r6, r7, pc}
   236be:	a804      	add	r0, sp, #16
   236c0:	f003 f92a 	bl	26918 <_ZN9allow_pin12full_dynamic17unshare_if_shared17h2809d14697b066c7E>
   236c4:	ac1c      	add	r4, sp, #112	@ 0x70
   236c6:	4620      	mov	r0, r4
   236c8:	f003 f926 	bl	26918 <_ZN9allow_pin12full_dynamic17unshare_if_shared17h2809d14697b066c7E>
   236cc:	4620      	mov	r0, r4
   236ce:	f003 f923 	bl	26918 <_ZN9allow_pin12full_dynamic17unshare_if_shared17h2809d14697b066c7E>
   236d2:	9c03      	ldr	r4, [sp, #12]
   236d4:	1c60      	adds	r0, r4, #1
   236d6:	224f      	movs	r2, #79	@ 0x4f
   236d8:	9901      	ldr	r1, [sp, #4]
   236da:	f003 fade 	bl	26c9a <__aeabi_memcpy>
   236de:	e7e5      	b.n	236ac <_ZN20complex_full_dynamic3app17hecfda068f05cade8E+0x68>
   236e0:	00000e16 	.word	0x00000e16

000236e4 <_ZN20complex_full_dynamic3app17hed6b4048ac8db5baE>:
   236e4:	b5f0      	push	{r4, r5, r6, r7, lr}
   236e6:	af03      	add	r7, sp, #12
   236e8:	b0ab      	sub	sp, #172	@ 0xac
   236ea:	9003      	str	r0, [sp, #12]
   236ec:	ae04      	add	r6, sp, #16
   236ee:	2402      	movs	r4, #2
   236f0:	7234      	strb	r4, [r6, #8]
   236f2:	4630      	mov	r0, r6
   236f4:	300c      	adds	r0, #12
   236f6:	2261      	movs	r2, #97	@ 0x61
   236f8:	9202      	str	r2, [sp, #8]
   236fa:	f003 face 	bl	26c9a <__aeabi_memcpy>
   236fe:	ad20      	add	r5, sp, #128	@ 0x80
   23700:	4628      	mov	r0, r5
   23702:	300c      	adds	r0, #12
   23704:	211e      	movs	r1, #30
   23706:	9001      	str	r0, [sp, #4]
   23708:	f003 f91a 	bl	26940 <__aeabi_memclr4>
   2370c:	722c      	strb	r4, [r5, #8]
   2370e:	2204      	movs	r2, #4
   23710:	9200      	str	r2, [sp, #0]
   23712:	2031      	movs	r0, #49	@ 0x31
   23714:	00c4      	lsls	r4, r0, #3
   23716:	4630      	mov	r0, r6
   23718:	9902      	ldr	r1, [sp, #8]
   2371a:	4623      	mov	r3, r4
   2371c:	f7fc fce2 	bl	200e4 <_ZN9allow_pin12full_dynamic15Buffer$LT$B$GT$5allow17hcdfd34cf7b1c64cdE>
   23720:	07c0      	lsls	r0, r0, #31
   23722:	d111      	bne.n	23748 <_ZN20complex_full_dynamic3app17hed6b4048ac8db5baE+0x64>
   23724:	2006      	movs	r0, #6
   23726:	9000      	str	r0, [sp, #0]
   23728:	a820      	add	r0, sp, #128	@ 0x80
   2372a:	211e      	movs	r1, #30
   2372c:	2203      	movs	r2, #3
   2372e:	4623      	mov	r3, r4
   23730:	f7fc fcd8 	bl	200e4 <_ZN9allow_pin12full_dynamic15Buffer$LT$B$GT$5allow17hcdfd34cf7b1c64cdE>
   23734:	07c0      	lsls	r0, r0, #31
   23736:	d107      	bne.n	23748 <_ZN20complex_full_dynamic3app17hed6b4048ac8db5baE+0x64>
   23738:	2104      	movs	r1, #4
   2373a:	2206      	movs	r2, #6
   2373c:	2600      	movs	r6, #0
   2373e:	4620      	mov	r0, r4
   23740:	4633      	mov	r3, r6
   23742:	df02      	svc	2
   23744:	287f      	cmp	r0, #127	@ 0x7f
   23746:	d80b      	bhi.n	23760 <_ZN20complex_full_dynamic3app17hed6b4048ac8db5baE+0x7c>
   23748:	9c03      	ldr	r4, [sp, #12]
   2374a:	6061      	str	r1, [r4, #4]
   2374c:	2601      	movs	r6, #1
   2374e:	7026      	strb	r6, [r4, #0]
   23750:	a820      	add	r0, sp, #128	@ 0x80
   23752:	f003 f8e1 	bl	26918 <_ZN9allow_pin12full_dynamic17unshare_if_shared17h2809d14697b066c7E>
   23756:	a804      	add	r0, sp, #16
   23758:	f003 f8de 	bl	26918 <_ZN9allow_pin12full_dynamic17unshare_if_shared17h2809d14697b066c7E>
   2375c:	b02b      	add	sp, #172	@ 0xac
   2375e:	bdf0      	pop	{r4, r5, r6, r7, pc}
   23760:	a804      	add	r0, sp, #16
   23762:	f003 f8d9 	bl	26918 <_ZN9allow_pin12full_dynamic17unshare_if_shared17h2809d14697b066c7E>
   23766:	ac20      	add	r4, sp, #128	@ 0x80
   23768:	4620      	mov	r0, r4
   2376a:	f003 f8d5 	bl	26918 <_ZN9allow_pin12full_dynamic17unshare_if_shared17h2809d14697b066c7E>
   2376e:	4620      	mov	r0, r4
   23770:	f003 f8d2 	bl	26918 <_ZN9allow_pin12full_dynamic17unshare_if_shared17h2809d14697b066c7E>
   23774:	9c03      	ldr	r4, [sp, #12]
   23776:	1c60      	adds	r0, r4, #1
   23778:	221e      	movs	r2, #30
   2377a:	9901      	ldr	r1, [sp, #4]
   2377c:	f003 fa8d 	bl	26c9a <__aeabi_memcpy>
   23780:	e7e5      	b.n	2374e <_ZN20complex_full_dynamic3app17hed6b4048ac8db5baE+0x6a>
   23782:	d4d4      	bmi.n	2372e <_ZN20complex_full_dynamic3app17hed6b4048ac8db5baE+0x4a>

00023784 <_ZN20complex_full_dynamic3app17hf2d5467d08923102E>:
   23784:	b5f0      	push	{r4, r5, r6, r7, lr}
   23786:	af03      	add	r7, sp, #12
   23788:	b0a7      	sub	sp, #156	@ 0x9c
   2378a:	9003      	str	r0, [sp, #12]
   2378c:	ae04      	add	r6, sp, #16
   2378e:	2502      	movs	r5, #2
   23790:	7235      	strb	r5, [r6, #8]
   23792:	4630      	mov	r0, r6
   23794:	300c      	adds	r0, #12
   23796:	2248      	movs	r2, #72	@ 0x48
   23798:	9202      	str	r2, [sp, #8]
   2379a:	f003 fa7e 	bl	26c9a <__aeabi_memcpy>
   2379e:	ac19      	add	r4, sp, #100	@ 0x64
   237a0:	4620      	mov	r0, r4
   237a2:	300c      	adds	r0, #12
   237a4:	2129      	movs	r1, #41	@ 0x29
   237a6:	9001      	str	r0, [sp, #4]
   237a8:	f003 f8ca 	bl	26940 <__aeabi_memclr4>
   237ac:	7225      	strb	r5, [r4, #8]
   237ae:	2003      	movs	r0, #3
   237b0:	9000      	str	r0, [sp, #0]
   237b2:	2504      	movs	r5, #4
   237b4:	4c1b      	ldr	r4, [pc, #108]	@ (23824 <_ZN20complex_full_dynamic3app17hf2d5467d08923102E+0xa0>)
   237b6:	4630      	mov	r0, r6
   237b8:	9902      	ldr	r1, [sp, #8]
   237ba:	462a      	mov	r2, r5
   237bc:	4623      	mov	r3, r4
   237be:	f7fc fc91 	bl	200e4 <_ZN9allow_pin12full_dynamic15Buffer$LT$B$GT$5allow17hcdfd34cf7b1c64cdE>
   237c2:	07c0      	lsls	r0, r0, #31
   237c4:	d110      	bne.n	237e8 <_ZN20complex_full_dynamic3app17hf2d5467d08923102E+0x64>
   237c6:	9500      	str	r5, [sp, #0]
   237c8:	a819      	add	r0, sp, #100	@ 0x64
   237ca:	2129      	movs	r1, #41	@ 0x29
   237cc:	2203      	movs	r2, #3
   237ce:	4623      	mov	r3, r4
   237d0:	f7fc fc88 	bl	200e4 <_ZN9allow_pin12full_dynamic15Buffer$LT$B$GT$5allow17hcdfd34cf7b1c64cdE>
   237d4:	07c0      	lsls	r0, r0, #31
   237d6:	d107      	bne.n	237e8 <_ZN20complex_full_dynamic3app17hf2d5467d08923102E+0x64>
   237d8:	4812      	ldr	r0, [pc, #72]	@ (23824 <_ZN20complex_full_dynamic3app17hf2d5467d08923102E+0xa0>)
   237da:	2103      	movs	r1, #3
   237dc:	2204      	movs	r2, #4
   237de:	2600      	movs	r6, #0
   237e0:	4633      	mov	r3, r6
   237e2:	df02      	svc	2
   237e4:	287f      	cmp	r0, #127	@ 0x7f
   237e6:	d80b      	bhi.n	23800 <_ZN20complex_full_dynamic3app17hf2d5467d08923102E+0x7c>
   237e8:	9c03      	ldr	r4, [sp, #12]
   237ea:	6061      	str	r1, [r4, #4]
   237ec:	2601      	movs	r6, #1
   237ee:	7026      	strb	r6, [r4, #0]
   237f0:	a819      	add	r0, sp, #100	@ 0x64
   237f2:	f003 f891 	bl	26918 <_ZN9allow_pin12full_dynamic17unshare_if_shared17h2809d14697b066c7E>
   237f6:	a804      	add	r0, sp, #16
   237f8:	f003 f88e 	bl	26918 <_ZN9allow_pin12full_dynamic17unshare_if_shared17h2809d14697b066c7E>
   237fc:	b027      	add	sp, #156	@ 0x9c
   237fe:	bdf0      	pop	{r4, r5, r6, r7, pc}
   23800:	a804      	add	r0, sp, #16
   23802:	f003 f889 	bl	26918 <_ZN9allow_pin12full_dynamic17unshare_if_shared17h2809d14697b066c7E>
   23806:	ac19      	add	r4, sp, #100	@ 0x64
   23808:	4620      	mov	r0, r4
   2380a:	f003 f885 	bl	26918 <_ZN9allow_pin12full_dynamic17unshare_if_shared17h2809d14697b066c7E>
   2380e:	4620      	mov	r0, r4
   23810:	f003 f882 	bl	26918 <_ZN9allow_pin12full_dynamic17unshare_if_shared17h2809d14697b066c7E>
   23814:	9c03      	ldr	r4, [sp, #12]
   23816:	1c60      	adds	r0, r4, #1
   23818:	2229      	movs	r2, #41	@ 0x29
   2381a:	9901      	ldr	r1, [sp, #4]
   2381c:	f003 fa3d 	bl	26c9a <__aeabi_memcpy>
   23820:	e7e5      	b.n	237ee <_ZN20complex_full_dynamic3app17hf2d5467d08923102E+0x6a>
   23822:	46c0      	nop			@ (mov r8, r8)
   23824:	000026a4 	.word	0x000026a4

00023828 <_ZN20complex_full_dynamic3app17hf9bd1aae59d48667E>:
   23828:	b5f0      	push	{r4, r5, r6, r7, lr}
   2382a:	af03      	add	r7, sp, #12
   2382c:	b0a1      	sub	sp, #132	@ 0x84
   2382e:	9003      	str	r0, [sp, #12]
   23830:	ae04      	add	r6, sp, #16
   23832:	2502      	movs	r5, #2
   23834:	7235      	strb	r5, [r6, #8]
   23836:	4630      	mov	r0, r6
   23838:	300c      	adds	r0, #12
   2383a:	221e      	movs	r2, #30
   2383c:	9202      	str	r2, [sp, #8]
   2383e:	f003 fa2c 	bl	26c9a <__aeabi_memcpy>
   23842:	ac0f      	add	r4, sp, #60	@ 0x3c
   23844:	4620      	mov	r0, r4
   23846:	300c      	adds	r0, #12
   23848:	213c      	movs	r1, #60	@ 0x3c
   2384a:	9001      	str	r0, [sp, #4]
   2384c:	f003 f878 	bl	26940 <__aeabi_memclr4>
   23850:	7225      	strb	r5, [r4, #8]
   23852:	9500      	str	r5, [sp, #0]
   23854:	2204      	movs	r2, #4
   23856:	4c1b      	ldr	r4, [pc, #108]	@ (238c4 <_ZN20complex_full_dynamic3app17hf9bd1aae59d48667E+0x9c>)
   23858:	4630      	mov	r0, r6
   2385a:	9902      	ldr	r1, [sp, #8]
   2385c:	4623      	mov	r3, r4
   2385e:	f7fc fc41 	bl	200e4 <_ZN9allow_pin12full_dynamic15Buffer$LT$B$GT$5allow17hcdfd34cf7b1c64cdE>
   23862:	07c0      	lsls	r0, r0, #31
   23864:	d110      	bne.n	23888 <_ZN20complex_full_dynamic3app17hf9bd1aae59d48667E+0x60>
   23866:	2203      	movs	r2, #3
   23868:	9200      	str	r2, [sp, #0]
   2386a:	a80f      	add	r0, sp, #60	@ 0x3c
   2386c:	213c      	movs	r1, #60	@ 0x3c
   2386e:	4623      	mov	r3, r4
   23870:	f7fc fc38 	bl	200e4 <_ZN9allow_pin12full_dynamic15Buffer$LT$B$GT$5allow17hcdfd34cf7b1c64cdE>
   23874:	07c0      	lsls	r0, r0, #31
   23876:	d107      	bne.n	23888 <_ZN20complex_full_dynamic3app17hf9bd1aae59d48667E+0x60>
   23878:	4812      	ldr	r0, [pc, #72]	@ (238c4 <_ZN20complex_full_dynamic3app17hf9bd1aae59d48667E+0x9c>)
   2387a:	2102      	movs	r1, #2
   2387c:	2203      	movs	r2, #3
   2387e:	2600      	movs	r6, #0
   23880:	4633      	mov	r3, r6
   23882:	df02      	svc	2
   23884:	287f      	cmp	r0, #127	@ 0x7f
   23886:	d80b      	bhi.n	238a0 <_ZN20complex_full_dynamic3app17hf9bd1aae59d48667E+0x78>
   23888:	9c03      	ldr	r4, [sp, #12]
   2388a:	6061      	str	r1, [r4, #4]
   2388c:	2601      	movs	r6, #1
   2388e:	7026      	strb	r6, [r4, #0]
   23890:	a80f      	add	r0, sp, #60	@ 0x3c
   23892:	f003 f841 	bl	26918 <_ZN9allow_pin12full_dynamic17unshare_if_shared17h2809d14697b066c7E>
   23896:	a804      	add	r0, sp, #16
   23898:	f003 f83e 	bl	26918 <_ZN9allow_pin12full_dynamic17unshare_if_shared17h2809d14697b066c7E>
   2389c:	b021      	add	sp, #132	@ 0x84
   2389e:	bdf0      	pop	{r4, r5, r6, r7, pc}
   238a0:	a804      	add	r0, sp, #16
   238a2:	f003 f839 	bl	26918 <_ZN9allow_pin12full_dynamic17unshare_if_shared17h2809d14697b066c7E>
   238a6:	ac0f      	add	r4, sp, #60	@ 0x3c
   238a8:	4620      	mov	r0, r4
   238aa:	f003 f835 	bl	26918 <_ZN9allow_pin12full_dynamic17unshare_if_shared17h2809d14697b066c7E>
   238ae:	4620      	mov	r0, r4
   238b0:	f003 f832 	bl	26918 <_ZN9allow_pin12full_dynamic17unshare_if_shared17h2809d14697b066c7E>
   238b4:	9c03      	ldr	r4, [sp, #12]
   238b6:	1c60      	adds	r0, r4, #1
   238b8:	223c      	movs	r2, #60	@ 0x3c
   238ba:	9901      	ldr	r1, [sp, #4]
   238bc:	f003 f9ed 	bl	26c9a <__aeabi_memcpy>
   238c0:	e7e5      	b.n	2388e <_ZN20complex_full_dynamic3app17hf9bd1aae59d48667E+0x66>
   238c2:	46c0      	nop			@ (mov r8, r8)
   238c4:	00000b3c 	.word	0x00000b3c

000238c8 <_ZN20complex_full_dynamic3app17hfa4e41ac427ea6f8E>:
   238c8:	b5f0      	push	{r4, r5, r6, r7, lr}
   238ca:	af03      	add	r7, sp, #12
   238cc:	b09b      	sub	sp, #108	@ 0x6c
   238ce:	9003      	str	r0, [sp, #12]
   238d0:	ae04      	add	r6, sp, #16
   238d2:	2502      	movs	r5, #2
   238d4:	7235      	strb	r5, [r6, #8]
   238d6:	4630      	mov	r0, r6
   238d8:	300c      	adds	r0, #12
   238da:	221e      	movs	r2, #30
   238dc:	9202      	str	r2, [sp, #8]
   238de:	f003 f9dc 	bl	26c9a <__aeabi_memcpy>
   238e2:	ac0f      	add	r4, sp, #60	@ 0x3c
   238e4:	4620      	mov	r0, r4
   238e6:	300c      	adds	r0, #12
   238e8:	2121      	movs	r1, #33	@ 0x21
   238ea:	9001      	str	r0, [sp, #4]
   238ec:	f003 f828 	bl	26940 <__aeabi_memclr4>
   238f0:	7225      	strb	r5, [r4, #8]
   238f2:	2006      	movs	r0, #6
   238f4:	9000      	str	r0, [sp, #0]
   238f6:	2204      	movs	r2, #4
   238f8:	4c1b      	ldr	r4, [pc, #108]	@ (23968 <_ZN20complex_full_dynamic3app17hfa4e41ac427ea6f8E+0xa0>)
   238fa:	4630      	mov	r0, r6
   238fc:	9902      	ldr	r1, [sp, #8]
   238fe:	4623      	mov	r3, r4
   23900:	f7fc fbf0 	bl	200e4 <_ZN9allow_pin12full_dynamic15Buffer$LT$B$GT$5allow17hcdfd34cf7b1c64cdE>
   23904:	07c0      	lsls	r0, r0, #31
   23906:	d111      	bne.n	2392c <_ZN20complex_full_dynamic3app17hfa4e41ac427ea6f8E+0x64>
   23908:	2009      	movs	r0, #9
   2390a:	9000      	str	r0, [sp, #0]
   2390c:	a80f      	add	r0, sp, #60	@ 0x3c
   2390e:	2121      	movs	r1, #33	@ 0x21
   23910:	2203      	movs	r2, #3
   23912:	4623      	mov	r3, r4
   23914:	f7fc fbe6 	bl	200e4 <_ZN9allow_pin12full_dynamic15Buffer$LT$B$GT$5allow17hcdfd34cf7b1c64cdE>
   23918:	07c0      	lsls	r0, r0, #31
   2391a:	d107      	bne.n	2392c <_ZN20complex_full_dynamic3app17hfa4e41ac427ea6f8E+0x64>
   2391c:	4812      	ldr	r0, [pc, #72]	@ (23968 <_ZN20complex_full_dynamic3app17hfa4e41ac427ea6f8E+0xa0>)
   2391e:	2106      	movs	r1, #6
   23920:	2209      	movs	r2, #9
   23922:	2600      	movs	r6, #0
   23924:	4633      	mov	r3, r6
   23926:	df02      	svc	2
   23928:	287f      	cmp	r0, #127	@ 0x7f
   2392a:	d80b      	bhi.n	23944 <_ZN20complex_full_dynamic3app17hfa4e41ac427ea6f8E+0x7c>
   2392c:	9c03      	ldr	r4, [sp, #12]
   2392e:	6061      	str	r1, [r4, #4]
   23930:	2601      	movs	r6, #1
   23932:	7026      	strb	r6, [r4, #0]
   23934:	a80f      	add	r0, sp, #60	@ 0x3c
   23936:	f002 ffef 	bl	26918 <_ZN9allow_pin12full_dynamic17unshare_if_shared17h2809d14697b066c7E>
   2393a:	a804      	add	r0, sp, #16
   2393c:	f002 ffec 	bl	26918 <_ZN9allow_pin12full_dynamic17unshare_if_shared17h2809d14697b066c7E>
   23940:	b01b      	add	sp, #108	@ 0x6c
   23942:	bdf0      	pop	{r4, r5, r6, r7, pc}
   23944:	a804      	add	r0, sp, #16
   23946:	f002 ffe7 	bl	26918 <_ZN9allow_pin12full_dynamic17unshare_if_shared17h2809d14697b066c7E>
   2394a:	ac0f      	add	r4, sp, #60	@ 0x3c
   2394c:	4620      	mov	r0, r4
   2394e:	f002 ffe3 	bl	26918 <_ZN9allow_pin12full_dynamic17unshare_if_shared17h2809d14697b066c7E>
   23952:	4620      	mov	r0, r4
   23954:	f002 ffe0 	bl	26918 <_ZN9allow_pin12full_dynamic17unshare_if_shared17h2809d14697b066c7E>
   23958:	9c03      	ldr	r4, [sp, #12]
   2395a:	1c60      	adds	r0, r4, #1
   2395c:	2221      	movs	r2, #33	@ 0x21
   2395e:	9901      	ldr	r1, [sp, #4]
   23960:	f003 f99b 	bl	26c9a <__aeabi_memcpy>
   23964:	e7e5      	b.n	23932 <_ZN20complex_full_dynamic3app17hfa4e41ac427ea6f8E+0x6a>
   23966:	46c0      	nop			@ (mov r8, r8)
   23968:	000019b5 	.word	0x000019b5

0002396c <_ZN20complex_full_dynamic3app17hfa76b94559659bc3E>:
   2396c:	b5f0      	push	{r4, r5, r6, r7, lr}
   2396e:	af03      	add	r7, sp, #12
   23970:	b0a3      	sub	sp, #140	@ 0x8c
   23972:	9004      	str	r0, [sp, #16]
   23974:	ae05      	add	r6, sp, #20
   23976:	2502      	movs	r5, #2
   23978:	7235      	strb	r5, [r6, #8]
   2397a:	4630      	mov	r0, r6
   2397c:	300c      	adds	r0, #12
   2397e:	2238      	movs	r2, #56	@ 0x38
   23980:	9203      	str	r2, [sp, #12]
   23982:	f003 f98a 	bl	26c9a <__aeabi_memcpy>
   23986:	ac16      	add	r4, sp, #88	@ 0x58
   23988:	4620      	mov	r0, r4
   2398a:	300c      	adds	r0, #12
   2398c:	2127      	movs	r1, #39	@ 0x27
   2398e:	9002      	str	r0, [sp, #8]
   23990:	f002 ffd6 	bl	26940 <__aeabi_memclr4>
   23994:	7225      	strb	r5, [r4, #8]
   23996:	9500      	str	r5, [sp, #0]
   23998:	2204      	movs	r2, #4
   2399a:	4c1b      	ldr	r4, [pc, #108]	@ (23a08 <_ZN20complex_full_dynamic3app17hfa76b94559659bc3E+0x9c>)
   2399c:	4630      	mov	r0, r6
   2399e:	9903      	ldr	r1, [sp, #12]
   239a0:	4623      	mov	r3, r4
   239a2:	f7fc fb9f 	bl	200e4 <_ZN9allow_pin12full_dynamic15Buffer$LT$B$GT$5allow17hcdfd34cf7b1c64cdE>
   239a6:	07c0      	lsls	r0, r0, #31
   239a8:	d111      	bne.n	239ce <_ZN20complex_full_dynamic3app17hfa76b94559659bc3E+0x62>
   239aa:	2008      	movs	r0, #8
   239ac:	9000      	str	r0, [sp, #0]
   239ae:	a816      	add	r0, sp, #88	@ 0x58
   239b0:	2127      	movs	r1, #39	@ 0x27
   239b2:	2203      	movs	r2, #3
   239b4:	4623      	mov	r3, r4
   239b6:	f7fc fb95 	bl	200e4 <_ZN9allow_pin12full_dynamic15Buffer$LT$B$GT$5allow17hcdfd34cf7b1c64cdE>
   239ba:	07c0      	lsls	r0, r0, #31
   239bc:	d107      	bne.n	239ce <_ZN20complex_full_dynamic3app17hfa76b94559659bc3E+0x62>
   239be:	4812      	ldr	r0, [pc, #72]	@ (23a08 <_ZN20complex_full_dynamic3app17hfa76b94559659bc3E+0x9c>)
   239c0:	2102      	movs	r1, #2
   239c2:	2208      	movs	r2, #8
   239c4:	2600      	movs	r6, #0
   239c6:	4633      	mov	r3, r6
   239c8:	df02      	svc	2
   239ca:	287f      	cmp	r0, #127	@ 0x7f
   239cc:	d80b      	bhi.n	239e6 <_ZN20complex_full_dynamic3app17hfa76b94559659bc3E+0x7a>
   239ce:	9c04      	ldr	r4, [sp, #16]
   239d0:	6061      	str	r1, [r4, #4]
   239d2:	2601      	movs	r6, #1
   239d4:	7026      	strb	r6, [r4, #0]
   239d6:	a816      	add	r0, sp, #88	@ 0x58
   239d8:	f002 ff9e 	bl	26918 <_ZN9allow_pin12full_dynamic17unshare_if_shared17h2809d14697b066c7E>
   239dc:	a805      	add	r0, sp, #20
   239de:	f002 ff9b 	bl	26918 <_ZN9allow_pin12full_dynamic17unshare_if_shared17h2809d14697b066c7E>
   239e2:	b023      	add	sp, #140	@ 0x8c
   239e4:	bdf0      	pop	{r4, r5, r6, r7, pc}
   239e6:	a805      	add	r0, sp, #20
   239e8:	f002 ff96 	bl	26918 <_ZN9allow_pin12full_dynamic17unshare_if_shared17h2809d14697b066c7E>
   239ec:	ac16      	add	r4, sp, #88	@ 0x58
   239ee:	4620      	mov	r0, r4
   239f0:	f002 ff92 	bl	26918 <_ZN9allow_pin12full_dynamic17unshare_if_shared17h2809d14697b066c7E>
   239f4:	4620      	mov	r0, r4
   239f6:	f002 ff8f 	bl	26918 <_ZN9allow_pin12full_dynamic17unshare_if_shared17h2809d14697b066c7E>
   239fa:	9c04      	ldr	r4, [sp, #16]
   239fc:	1c60      	adds	r0, r4, #1
   239fe:	2227      	movs	r2, #39	@ 0x27
   23a00:	9902      	ldr	r1, [sp, #8]
   23a02:	f003 f94a 	bl	26c9a <__aeabi_memcpy>
   23a06:	e7e5      	b.n	239d4 <_ZN20complex_full_dynamic3app17hfa76b94559659bc3E+0x68>
   23a08:	00000e2b 	.word	0x00000e2b

00023a0c <_ZN20complex_full_dynamic3app17hfac021c0e798bc22E>:
   23a0c:	b5f0      	push	{r4, r5, r6, r7, lr}
   23a0e:	af03      	add	r7, sp, #12
   23a10:	b0a9      	sub	sp, #164	@ 0xa4
   23a12:	9004      	str	r0, [sp, #16]
   23a14:	ae05      	add	r6, sp, #20
   23a16:	2502      	movs	r5, #2
   23a18:	7235      	strb	r5, [r6, #8]
   23a1a:	4630      	mov	r0, r6
   23a1c:	300c      	adds	r0, #12
   23a1e:	2221      	movs	r2, #33	@ 0x21
   23a20:	9203      	str	r2, [sp, #12]
   23a22:	f003 f93a 	bl	26c9a <__aeabi_memcpy>
   23a26:	ac11      	add	r4, sp, #68	@ 0x44
   23a28:	4620      	mov	r0, r4
   23a2a:	300c      	adds	r0, #12
   23a2c:	2153      	movs	r1, #83	@ 0x53
   23a2e:	9002      	str	r0, [sp, #8]
   23a30:	f002 ff86 	bl	26940 <__aeabi_memclr4>
   23a34:	7225      	strb	r5, [r4, #8]
   23a36:	9500      	str	r5, [sp, #0]
   23a38:	2204      	movs	r2, #4
   23a3a:	4c1b      	ldr	r4, [pc, #108]	@ (23aa8 <_ZN20complex_full_dynamic3app17hfac021c0e798bc22E+0x9c>)
   23a3c:	4630      	mov	r0, r6
   23a3e:	9903      	ldr	r1, [sp, #12]
   23a40:	4623      	mov	r3, r4
   23a42:	f7fc fb4f 	bl	200e4 <_ZN9allow_pin12full_dynamic15Buffer$LT$B$GT$5allow17hcdfd34cf7b1c64cdE>
   23a46:	07c0      	lsls	r0, r0, #31
   23a48:	d111      	bne.n	23a6e <_ZN20complex_full_dynamic3app17hfac021c0e798bc22E+0x62>
   23a4a:	2008      	movs	r0, #8
   23a4c:	9000      	str	r0, [sp, #0]
   23a4e:	a811      	add	r0, sp, #68	@ 0x44
   23a50:	2153      	movs	r1, #83	@ 0x53
   23a52:	2203      	movs	r2, #3
   23a54:	4623      	mov	r3, r4
   23a56:	f7fc fb45 	bl	200e4 <_ZN9allow_pin12full_dynamic15Buffer$LT$B$GT$5allow17hcdfd34cf7b1c64cdE>
   23a5a:	07c0      	lsls	r0, r0, #31
   23a5c:	d107      	bne.n	23a6e <_ZN20complex_full_dynamic3app17hfac021c0e798bc22E+0x62>
   23a5e:	4812      	ldr	r0, [pc, #72]	@ (23aa8 <_ZN20complex_full_dynamic3app17hfac021c0e798bc22E+0x9c>)
   23a60:	2102      	movs	r1, #2
   23a62:	2208      	movs	r2, #8
   23a64:	2600      	movs	r6, #0
   23a66:	4633      	mov	r3, r6
   23a68:	df02      	svc	2
   23a6a:	287f      	cmp	r0, #127	@ 0x7f
   23a6c:	d80b      	bhi.n	23a86 <_ZN20complex_full_dynamic3app17hfac021c0e798bc22E+0x7a>
   23a6e:	9c04      	ldr	r4, [sp, #16]
   23a70:	6061      	str	r1, [r4, #4]
   23a72:	2601      	movs	r6, #1
   23a74:	7026      	strb	r6, [r4, #0]
   23a76:	a811      	add	r0, sp, #68	@ 0x44
   23a78:	f002 ff4e 	bl	26918 <_ZN9allow_pin12full_dynamic17unshare_if_shared17h2809d14697b066c7E>
   23a7c:	a805      	add	r0, sp, #20
   23a7e:	f002 ff4b 	bl	26918 <_ZN9allow_pin12full_dynamic17unshare_if_shared17h2809d14697b066c7E>
   23a82:	b029      	add	sp, #164	@ 0xa4
   23a84:	bdf0      	pop	{r4, r5, r6, r7, pc}
   23a86:	a805      	add	r0, sp, #20
   23a88:	f002 ff46 	bl	26918 <_ZN9allow_pin12full_dynamic17unshare_if_shared17h2809d14697b066c7E>
   23a8c:	ac11      	add	r4, sp, #68	@ 0x44
   23a8e:	4620      	mov	r0, r4
   23a90:	f002 ff42 	bl	26918 <_ZN9allow_pin12full_dynamic17unshare_if_shared17h2809d14697b066c7E>
   23a94:	4620      	mov	r0, r4
   23a96:	f002 ff3f 	bl	26918 <_ZN9allow_pin12full_dynamic17unshare_if_shared17h2809d14697b066c7E>
   23a9a:	9c04      	ldr	r4, [sp, #16]
   23a9c:	1c60      	adds	r0, r4, #1
   23a9e:	2253      	movs	r2, #83	@ 0x53
   23aa0:	9902      	ldr	r1, [sp, #8]
   23aa2:	f003 f8fa 	bl	26c9a <__aeabi_memcpy>
   23aa6:	e7e5      	b.n	23a74 <_ZN20complex_full_dynamic3app17hfac021c0e798bc22E+0x68>
   23aa8:	0000253e 	.word	0x0000253e

00023aac <_ZN20complex_full_dynamic3app17hfad256e54a76856aE>:
   23aac:	b5f0      	push	{r4, r5, r6, r7, lr}
   23aae:	af03      	add	r7, sp, #12
   23ab0:	b09f      	sub	sp, #124	@ 0x7c
   23ab2:	9003      	str	r0, [sp, #12]
   23ab4:	ae04      	add	r6, sp, #16
   23ab6:	2502      	movs	r5, #2
   23ab8:	7235      	strb	r5, [r6, #8]
   23aba:	4630      	mov	r0, r6
   23abc:	300c      	adds	r0, #12
   23abe:	222c      	movs	r2, #44	@ 0x2c
   23ac0:	9202      	str	r2, [sp, #8]
   23ac2:	f003 f8ea 	bl	26c9a <__aeabi_memcpy>
   23ac6:	ac12      	add	r4, sp, #72	@ 0x48
   23ac8:	4620      	mov	r0, r4
   23aca:	300c      	adds	r0, #12
   23acc:	2127      	movs	r1, #39	@ 0x27
   23ace:	9001      	str	r0, [sp, #4]
   23ad0:	f002 ff36 	bl	26940 <__aeabi_memclr4>
   23ad4:	7225      	strb	r5, [r4, #8]
   23ad6:	2204      	movs	r2, #4
   23ad8:	9200      	str	r2, [sp, #0]
   23ada:	4c1b      	ldr	r4, [pc, #108]	@ (23b48 <_ZN20complex_full_dynamic3app17hfad256e54a76856aE+0x9c>)
   23adc:	4630      	mov	r0, r6
   23ade:	9902      	ldr	r1, [sp, #8]
   23ae0:	4623      	mov	r3, r4
   23ae2:	f7fc faff 	bl	200e4 <_ZN9allow_pin12full_dynamic15Buffer$LT$B$GT$5allow17hcdfd34cf7b1c64cdE>
   23ae6:	07c0      	lsls	r0, r0, #31
   23ae8:	d110      	bne.n	23b0c <_ZN20complex_full_dynamic3app17hfad256e54a76856aE+0x60>
   23aea:	2203      	movs	r2, #3
   23aec:	9200      	str	r2, [sp, #0]
   23aee:	a812      	add	r0, sp, #72	@ 0x48
   23af0:	2127      	movs	r1, #39	@ 0x27
   23af2:	4623      	mov	r3, r4
   23af4:	f7fc faf6 	bl	200e4 <_ZN9allow_pin12full_dynamic15Buffer$LT$B$GT$5allow17hcdfd34cf7b1c64cdE>
   23af8:	07c0      	lsls	r0, r0, #31
   23afa:	d107      	bne.n	23b0c <_ZN20complex_full_dynamic3app17hfad256e54a76856aE+0x60>
   23afc:	4812      	ldr	r0, [pc, #72]	@ (23b48 <_ZN20complex_full_dynamic3app17hfad256e54a76856aE+0x9c>)
   23afe:	2104      	movs	r1, #4
   23b00:	2203      	movs	r2, #3
   23b02:	2600      	movs	r6, #0
   23b04:	4633      	mov	r3, r6
   23b06:	df02      	svc	2
   23b08:	287f      	cmp	r0, #127	@ 0x7f
   23b0a:	d80b      	bhi.n	23b24 <_ZN20complex_full_dynamic3app17hfad256e54a76856aE+0x78>
   23b0c:	9c03      	ldr	r4, [sp, #12]
   23b0e:	6061      	str	r1, [r4, #4]
   23b10:	2601      	movs	r6, #1
   23b12:	7026      	strb	r6, [r4, #0]
   23b14:	a812      	add	r0, sp, #72	@ 0x48
   23b16:	f002 feff 	bl	26918 <_ZN9allow_pin12full_dynamic17unshare_if_shared17h2809d14697b066c7E>
   23b1a:	a804      	add	r0, sp, #16
   23b1c:	f002 fefc 	bl	26918 <_ZN9allow_pin12full_dynamic17unshare_if_shared17h2809d14697b066c7E>
   23b20:	b01f      	add	sp, #124	@ 0x7c
   23b22:	bdf0      	pop	{r4, r5, r6, r7, pc}
   23b24:	a804      	add	r0, sp, #16
   23b26:	f002 fef7 	bl	26918 <_ZN9allow_pin12full_dynamic17unshare_if_shared17h2809d14697b066c7E>
   23b2a:	ac12      	add	r4, sp, #72	@ 0x48
   23b2c:	4620      	mov	r0, r4
   23b2e:	f002 fef3 	bl	26918 <_ZN9allow_pin12full_dynamic17unshare_if_shared17h2809d14697b066c7E>
   23b32:	4620      	mov	r0, r4
   23b34:	f002 fef0 	bl	26918 <_ZN9allow_pin12full_dynamic17unshare_if_shared17h2809d14697b066c7E>
   23b38:	9c03      	ldr	r4, [sp, #12]
   23b3a:	1c60      	adds	r0, r4, #1
   23b3c:	2227      	movs	r2, #39	@ 0x27
   23b3e:	9901      	ldr	r1, [sp, #4]
   23b40:	f003 f8ab 	bl	26c9a <__aeabi_memcpy>
   23b44:	e7e5      	b.n	23b12 <_ZN20complex_full_dynamic3app17hfad256e54a76856aE+0x66>
   23b46:	46c0      	nop			@ (mov r8, r8)
   23b48:	000011b5 	.word	0x000011b5

00023b4c <_ZN20complex_full_dynamic3app17hfe8ebab24acb90f7E>:
   23b4c:	b5f0      	push	{r4, r5, r6, r7, lr}
   23b4e:	af03      	add	r7, sp, #12
   23b50:	b09d      	sub	sp, #116	@ 0x74
   23b52:	9004      	str	r0, [sp, #16]
   23b54:	ae05      	add	r6, sp, #20
   23b56:	2502      	movs	r5, #2
   23b58:	7235      	strb	r5, [r6, #8]
   23b5a:	4630      	mov	r0, r6
   23b5c:	300c      	adds	r0, #12
   23b5e:	2229      	movs	r2, #41	@ 0x29
   23b60:	9203      	str	r2, [sp, #12]
   23b62:	f003 f89a 	bl	26c9a <__aeabi_memcpy>
   23b66:	ac13      	add	r4, sp, #76	@ 0x4c
   23b68:	4620      	mov	r0, r4
   23b6a:	300c      	adds	r0, #12
   23b6c:	211a      	movs	r1, #26
   23b6e:	9002      	str	r0, [sp, #8]
   23b70:	f002 fee6 	bl	26940 <__aeabi_memclr4>
   23b74:	7225      	strb	r5, [r4, #8]
   23b76:	2005      	movs	r0, #5
   23b78:	9000      	str	r0, [sp, #0]
   23b7a:	2204      	movs	r2, #4
   23b7c:	4c1a      	ldr	r4, [pc, #104]	@ (23be8 <_ZN20complex_full_dynamic3app17hfe8ebab24acb90f7E+0x9c>)
   23b7e:	4630      	mov	r0, r6
   23b80:	9903      	ldr	r1, [sp, #12]
   23b82:	4623      	mov	r3, r4
   23b84:	f7fc faae 	bl	200e4 <_ZN9allow_pin12full_dynamic15Buffer$LT$B$GT$5allow17hcdfd34cf7b1c64cdE>
   23b88:	07c0      	lsls	r0, r0, #31
   23b8a:	d110      	bne.n	23bae <_ZN20complex_full_dynamic3app17hfe8ebab24acb90f7E+0x62>
   23b8c:	2203      	movs	r2, #3
   23b8e:	9200      	str	r2, [sp, #0]
   23b90:	a813      	add	r0, sp, #76	@ 0x4c
   23b92:	211a      	movs	r1, #26
   23b94:	4623      	mov	r3, r4
   23b96:	f7fc faa5 	bl	200e4 <_ZN9allow_pin12full_dynamic15Buffer$LT$B$GT$5allow17hcdfd34cf7b1c64cdE>
   23b9a:	07c0      	lsls	r0, r0, #31
   23b9c:	d107      	bne.n	23bae <_ZN20complex_full_dynamic3app17hfe8ebab24acb90f7E+0x62>
   23b9e:	4812      	ldr	r0, [pc, #72]	@ (23be8 <_ZN20complex_full_dynamic3app17hfe8ebab24acb90f7E+0x9c>)
   23ba0:	2105      	movs	r1, #5
   23ba2:	2203      	movs	r2, #3
   23ba4:	2600      	movs	r6, #0
   23ba6:	4633      	mov	r3, r6
   23ba8:	df02      	svc	2
   23baa:	287f      	cmp	r0, #127	@ 0x7f
   23bac:	d80b      	bhi.n	23bc6 <_ZN20complex_full_dynamic3app17hfe8ebab24acb90f7E+0x7a>
   23bae:	9c04      	ldr	r4, [sp, #16]
   23bb0:	6061      	str	r1, [r4, #4]
   23bb2:	2601      	movs	r6, #1
   23bb4:	7026      	strb	r6, [r4, #0]
   23bb6:	a813      	add	r0, sp, #76	@ 0x4c
   23bb8:	f002 feae 	bl	26918 <_ZN9allow_pin12full_dynamic17unshare_if_shared17h2809d14697b066c7E>
   23bbc:	a805      	add	r0, sp, #20
   23bbe:	f002 feab 	bl	26918 <_ZN9allow_pin12full_dynamic17unshare_if_shared17h2809d14697b066c7E>
   23bc2:	b01d      	add	sp, #116	@ 0x74
   23bc4:	bdf0      	pop	{r4, r5, r6, r7, pc}
   23bc6:	a805      	add	r0, sp, #20
   23bc8:	f002 fea6 	bl	26918 <_ZN9allow_pin12full_dynamic17unshare_if_shared17h2809d14697b066c7E>
   23bcc:	ac13      	add	r4, sp, #76	@ 0x4c
   23bce:	4620      	mov	r0, r4
   23bd0:	f002 fea2 	bl	26918 <_ZN9allow_pin12full_dynamic17unshare_if_shared17h2809d14697b066c7E>
   23bd4:	4620      	mov	r0, r4
   23bd6:	f002 fe9f 	bl	26918 <_ZN9allow_pin12full_dynamic17unshare_if_shared17h2809d14697b066c7E>
   23bda:	9c04      	ldr	r4, [sp, #16]
   23bdc:	1c60      	adds	r0, r4, #1
   23bde:	221a      	movs	r2, #26
   23be0:	9902      	ldr	r1, [sp, #8]
   23be2:	f003 f85a 	bl	26c9a <__aeabi_memcpy>
   23be6:	e7e5      	b.n	23bb4 <_ZN20complex_full_dynamic3app17hfe8ebab24acb90f7E+0x68>
   23be8:	00002048 	.word	0x00002048

00023bec <_ZN20complex_full_dynamic3app17hffc76b390b902cdbE>:
   23bec:	b5f0      	push	{r4, r5, r6, r7, lr}
   23bee:	af03      	add	r7, sp, #12
   23bf0:	b09d      	sub	sp, #116	@ 0x74
   23bf2:	9004      	str	r0, [sp, #16]
   23bf4:	ae05      	add	r6, sp, #20
   23bf6:	2502      	movs	r5, #2
   23bf8:	7235      	strb	r5, [r6, #8]
   23bfa:	4630      	mov	r0, r6
   23bfc:	300c      	adds	r0, #12
   23bfe:	2236      	movs	r2, #54	@ 0x36
   23c00:	9203      	str	r2, [sp, #12]
   23c02:	f003 f84a 	bl	26c9a <__aeabi_memcpy>
   23c06:	ac16      	add	r4, sp, #88	@ 0x58
   23c08:	4620      	mov	r0, r4
   23c0a:	300c      	adds	r0, #12
   23c0c:	210f      	movs	r1, #15
   23c0e:	9002      	str	r0, [sp, #8]
   23c10:	f002 fe96 	bl	26940 <__aeabi_memclr4>
   23c14:	7225      	strb	r5, [r4, #8]
   23c16:	2005      	movs	r0, #5
   23c18:	9000      	str	r0, [sp, #0]
   23c1a:	2204      	movs	r2, #4
   23c1c:	4c1a      	ldr	r4, [pc, #104]	@ (23c88 <_ZN20complex_full_dynamic3app17hffc76b390b902cdbE+0x9c>)
   23c1e:	4630      	mov	r0, r6
   23c20:	9903      	ldr	r1, [sp, #12]
   23c22:	4623      	mov	r3, r4
   23c24:	f7fc fa5e 	bl	200e4 <_ZN9allow_pin12full_dynamic15Buffer$LT$B$GT$5allow17hcdfd34cf7b1c64cdE>
   23c28:	07c0      	lsls	r0, r0, #31
   23c2a:	d110      	bne.n	23c4e <_ZN20complex_full_dynamic3app17hffc76b390b902cdbE+0x62>
   23c2c:	2203      	movs	r2, #3
   23c2e:	9200      	str	r2, [sp, #0]
   23c30:	a816      	add	r0, sp, #88	@ 0x58
   23c32:	210f      	movs	r1, #15
   23c34:	4623      	mov	r3, r4
   23c36:	f7fc fa55 	bl	200e4 <_ZN9allow_pin12full_dynamic15Buffer$LT$B$GT$5allow17hcdfd34cf7b1c64cdE>
   23c3a:	07c0      	lsls	r0, r0, #31
   23c3c:	d107      	bne.n	23c4e <_ZN20complex_full_dynamic3app17hffc76b390b902cdbE+0x62>
   23c3e:	4812      	ldr	r0, [pc, #72]	@ (23c88 <_ZN20complex_full_dynamic3app17hffc76b390b902cdbE+0x9c>)
   23c40:	2105      	movs	r1, #5
   23c42:	2203      	movs	r2, #3
   23c44:	2600      	movs	r6, #0
   23c46:	4633      	mov	r3, r6
   23c48:	df02      	svc	2
   23c4a:	287f      	cmp	r0, #127	@ 0x7f
   23c4c:	d80b      	bhi.n	23c66 <_ZN20complex_full_dynamic3app17hffc76b390b902cdbE+0x7a>
   23c4e:	9c04      	ldr	r4, [sp, #16]
   23c50:	6061      	str	r1, [r4, #4]
   23c52:	2601      	movs	r6, #1
   23c54:	7026      	strb	r6, [r4, #0]
   23c56:	a816      	add	r0, sp, #88	@ 0x58
   23c58:	f002 fe5e 	bl	26918 <_ZN9allow_pin12full_dynamic17unshare_if_shared17h2809d14697b066c7E>
   23c5c:	a805      	add	r0, sp, #20
   23c5e:	f002 fe5b 	bl	26918 <_ZN9allow_pin12full_dynamic17unshare_if_shared17h2809d14697b066c7E>
   23c62:	b01d      	add	sp, #116	@ 0x74
   23c64:	bdf0      	pop	{r4, r5, r6, r7, pc}
   23c66:	a805      	add	r0, sp, #20
   23c68:	f002 fe56 	bl	26918 <_ZN9allow_pin12full_dynamic17unshare_if_shared17h2809d14697b066c7E>
   23c6c:	ac16      	add	r4, sp, #88	@ 0x58
   23c6e:	4620      	mov	r0, r4
   23c70:	f002 fe52 	bl	26918 <_ZN9allow_pin12full_dynamic17unshare_if_shared17h2809d14697b066c7E>
   23c74:	4620      	mov	r0, r4
   23c76:	f002 fe4f 	bl	26918 <_ZN9allow_pin12full_dynamic17unshare_if_shared17h2809d14697b066c7E>
   23c7a:	9c04      	ldr	r4, [sp, #16]
   23c7c:	1c60      	adds	r0, r4, #1
   23c7e:	220f      	movs	r2, #15
   23c80:	9902      	ldr	r1, [sp, #8]
   23c82:	f003 f80a 	bl	26c9a <__aeabi_memcpy>
   23c86:	e7e5      	b.n	23c54 <_ZN20complex_full_dynamic3app17hffc76b390b902cdbE+0x68>
   23c88:	00000653 	.word	0x00000653

00023c8c <_start>:
   23c8c:	b5f0      	push	{r4, r5, r6, r7, lr}
   23c8e:	af03      	add	r7, sp, #12
   23c90:	4e23      	ldr	r6, [pc, #140]	@ (23d20 <_start+0x94>)
   23c92:	44b5      	add	sp, r6
   23c94:	4823      	ldr	r0, [pc, #140]	@ (23d24 <_start+0x98>)
   23c96:	4468      	add	r0, sp
   23c98:	9009      	str	r0, [sp, #36]	@ 0x24
   23c9a:	ad21      	add	r5, sp, #132	@ 0x84
   23c9c:	4628      	mov	r0, r5
   23c9e:	300c      	adds	r0, #12
   23ca0:	2128      	movs	r1, #40	@ 0x28
   23ca2:	910d      	str	r1, [sp, #52]	@ 0x34
   23ca4:	f002 fe4c 	bl	26940 <__aeabi_memclr4>
   23ca8:	2602      	movs	r6, #2
   23caa:	722e      	strb	r6, [r5, #8]
   23cac:	4c1e      	ldr	r4, [pc, #120]	@ (23d28 <_start+0x9c>)
   23cae:	446c      	add	r4, sp
   23cb0:	4620      	mov	r0, r4
   23cb2:	300c      	adds	r0, #12
   23cb4:	2151      	movs	r1, #81	@ 0x51
   23cb6:	900a      	str	r0, [sp, #40]	@ 0x28
   23cb8:	f002 fe42 	bl	26940 <__aeabi_memclr4>
   23cbc:	960b      	str	r6, [sp, #44]	@ 0x2c
   23cbe:	7226      	strb	r6, [r4, #8]
   23cc0:	2409      	movs	r4, #9
   23cc2:	9400      	str	r4, [sp, #0]
   23cc4:	2204      	movs	r2, #4
   23cc6:	4e19      	ldr	r6, [pc, #100]	@ (23d2c <_start+0xa0>)
   23cc8:	4628      	mov	r0, r5
   23cca:	990d      	ldr	r1, [sp, #52]	@ 0x34
   23ccc:	4633      	mov	r3, r6
   23cce:	f7fc fa09 	bl	200e4 <_ZN9allow_pin12full_dynamic15Buffer$LT$B$GT$5allow17hcdfd34cf7b1c64cdE>
   23cd2:	460a      	mov	r2, r1
   23cd4:	07c0      	lsls	r0, r0, #31
   23cd6:	a94d      	add	r1, sp, #308	@ 0x134
   23cd8:	9108      	str	r1, [sp, #32]
   23cda:	4915      	ldr	r1, [pc, #84]	@ (23d30 <_start+0xa4>)
   23cdc:	4469      	add	r1, sp
   23cde:	9106      	str	r1, [sp, #24]
   23ce0:	4914      	ldr	r1, [pc, #80]	@ (23d34 <_start+0xa8>)
   23ce2:	4469      	add	r1, sp
   23ce4:	9107      	str	r1, [sp, #28]
   23ce6:	2501      	movs	r5, #1
   23ce8:	2800      	cmp	r0, #0
   23cea:	950c      	str	r5, [sp, #48]	@ 0x30
   23cec:	d001      	beq.n	23cf2 <_start+0x66>
   23cee:	920d      	str	r2, [sp, #52]	@ 0x34
   23cf0:	e050      	b.n	23d94 <_start+0x108>
   23cf2:	9400      	str	r4, [sp, #0]
   23cf4:	480c      	ldr	r0, [pc, #48]	@ (23d28 <_start+0x9c>)
   23cf6:	4468      	add	r0, sp
   23cf8:	2151      	movs	r1, #81	@ 0x51
   23cfa:	2203      	movs	r2, #3
   23cfc:	4633      	mov	r3, r6
   23cfe:	f7fc f9f1 	bl	200e4 <_ZN9allow_pin12full_dynamic15Buffer$LT$B$GT$5allow17hcdfd34cf7b1c64cdE>
   23d02:	07c0      	lsls	r0, r0, #31
   23d04:	d001      	beq.n	23d0a <_start+0x7e>
   23d06:	910d      	str	r1, [sp, #52]	@ 0x34
   23d08:	e044      	b.n	23d94 <_start+0x108>
   23d0a:	4808      	ldr	r0, [pc, #32]	@ (23d2c <_start+0xa0>)
   23d0c:	2109      	movs	r1, #9
   23d0e:	2500      	movs	r5, #0
   23d10:	460a      	mov	r2, r1
   23d12:	462b      	mov	r3, r5
   23d14:	df02      	svc	2
   23d16:	287f      	cmp	r0, #127	@ 0x7f
   23d18:	d80e      	bhi.n	23d38 <_start+0xac>
   23d1a:	910d      	str	r1, [sp, #52]	@ 0x34
   23d1c:	9d0c      	ldr	r5, [sp, #48]	@ 0x30
   23d1e:	e039      	b.n	23d94 <_start+0x108>
   23d20:	ffffead4 	.word	0xffffead4
   23d24:	000013b0 	.word	0x000013b0
   23d28:	0000140c 	.word	0x0000140c
   23d2c:	00002006 	.word	0x00002006
   23d30:	00000510 	.word	0x00000510
   23d34:	000007e4 	.word	0x000007e4
   23d38:	a821      	add	r0, sp, #132	@ 0x84
   23d3a:	f002 fded 	bl	26918 <_ZN9allow_pin12full_dynamic17unshare_if_shared17h2809d14697b066c7E>
   23d3e:	4e14      	ldr	r6, [pc, #80]	@ (23d90 <_start+0x104>)
   23d40:	446e      	add	r6, sp
   23d42:	4630      	mov	r0, r6
   23d44:	f002 fde8 	bl	26918 <_ZN9allow_pin12full_dynamic17unshare_if_shared17h2809d14697b066c7E>
   23d48:	4630      	mov	r0, r6
   23d4a:	f002 fde5 	bl	26918 <_ZN9allow_pin12full_dynamic17unshare_if_shared17h2809d14697b066c7E>
   23d4e:	9a0a      	ldr	r2, [sp, #40]	@ 0x28
   23d50:	7890      	ldrb	r0, [r2, #2]
   23d52:	a931      	add	r1, sp, #196	@ 0xc4
   23d54:	7088      	strb	r0, [r1, #2]
   23d56:	7810      	ldrb	r0, [r2, #0]
   23d58:	7852      	ldrb	r2, [r2, #1]
   23d5a:	0212      	lsls	r2, r2, #8
   23d5c:	1810      	adds	r0, r2, r0
   23d5e:	8008      	strh	r0, [r1, #0]
   23d60:	7cb0      	ldrb	r0, [r6, #18]
   23d62:	900d      	str	r0, [sp, #52]	@ 0x34
   23d64:	7c70      	ldrb	r0, [r6, #17]
   23d66:	900a      	str	r0, [sp, #40]	@ 0x28
   23d68:	7bf0      	ldrb	r0, [r6, #15]
   23d6a:	9005      	str	r0, [sp, #20]
   23d6c:	7c34      	ldrb	r4, [r6, #16]
   23d6e:	3613      	adds	r6, #19
   23d70:	a80e      	add	r0, sp, #56	@ 0x38
   23d72:	224a      	movs	r2, #74	@ 0x4a
   23d74:	4631      	mov	r1, r6
   23d76:	f002 ff90 	bl	26c9a <__aeabi_memcpy>
   23d7a:	0220      	lsls	r0, r4, #8
   23d7c:	9905      	ldr	r1, [sp, #20]
   23d7e:	1840      	adds	r0, r0, r1
   23d80:	990a      	ldr	r1, [sp, #40]	@ 0x28
   23d82:	0409      	lsls	r1, r1, #16
   23d84:	9a0d      	ldr	r2, [sp, #52]	@ 0x34
   23d86:	0612      	lsls	r2, r2, #24
   23d88:	1851      	adds	r1, r2, r1
   23d8a:	1808      	adds	r0, r1, r0
   23d8c:	900d      	str	r0, [sp, #52]	@ 0x34
   23d8e:	e001      	b.n	23d94 <_start+0x108>
   23d90:	0000140c 	.word	0x0000140c
   23d94:	48f6      	ldr	r0, [pc, #984]	@ (24170 <_start+0x4e4>)
   23d96:	4468      	add	r0, sp
   23d98:	f002 fdbe 	bl	26918 <_ZN9allow_pin12full_dynamic17unshare_if_shared17h2809d14697b066c7E>
   23d9c:	a821      	add	r0, sp, #132	@ 0x84
   23d9e:	f002 fdbb 	bl	26918 <_ZN9allow_pin12full_dynamic17unshare_if_shared17h2809d14697b066c7E>
   23da2:	2d00      	cmp	r5, #0
   23da4:	d000      	beq.n	23da8 <_start+0x11c>
   23da6:	e336      	b.n	24416 <_start+0x78a>
   23da8:	4df1      	ldr	r5, [pc, #964]	@ (24170 <_start+0x4e4>)
   23daa:	446d      	add	r5, sp
   23dac:	4628      	mov	r0, r5
   23dae:	300c      	adds	r0, #12
   23db0:	a931      	add	r1, sp, #196	@ 0xc4
   23db2:	2203      	movs	r2, #3
   23db4:	920a      	str	r2, [sp, #40]	@ 0x28
   23db6:	f002 ff70 	bl	26c9a <__aeabi_memcpy>
   23dba:	4cee      	ldr	r4, [pc, #952]	@ (24174 <_start+0x4e8>)
   23dbc:	446c      	add	r4, sp
   23dbe:	a90e      	add	r1, sp, #56	@ 0x38
   23dc0:	264a      	movs	r6, #74	@ 0x4a
   23dc2:	4620      	mov	r0, r4
   23dc4:	4632      	mov	r2, r6
   23dc6:	f002 fe08 	bl	269da <__aeabi_memcpy4>
   23dca:	4628      	mov	r0, r5
   23dcc:	3013      	adds	r0, #19
   23dce:	4621      	mov	r1, r4
   23dd0:	4632      	mov	r2, r6
   23dd2:	f002 ff62 	bl	26c9a <__aeabi_memcpy>
   23dd6:	990d      	ldr	r1, [sp, #52]	@ 0x34
   23dd8:	0e08      	lsrs	r0, r1, #24
   23dda:	74a8      	strb	r0, [r5, #18]
   23ddc:	0c08      	lsrs	r0, r1, #16
   23dde:	7468      	strb	r0, [r5, #17]
   23de0:	0a08      	lsrs	r0, r1, #8
   23de2:	7428      	strb	r0, [r5, #16]
   23de4:	73e9      	strb	r1, [r5, #15]
   23de6:	9c0b      	ldr	r4, [sp, #44]	@ 0x2c
   23de8:	722c      	strb	r4, [r5, #8]
   23dea:	4ee2      	ldr	r6, [pc, #904]	@ (24174 <_start+0x4e8>)
   23dec:	446e      	add	r6, sp
   23dee:	4630      	mov	r0, r6
   23df0:	300c      	adds	r0, #12
   23df2:	2146      	movs	r1, #70	@ 0x46
   23df4:	900d      	str	r0, [sp, #52]	@ 0x34
   23df6:	f002 fda3 	bl	26940 <__aeabi_memclr4>
   23dfa:	7234      	strb	r4, [r6, #8]
   23dfc:	2407      	movs	r4, #7
   23dfe:	9400      	str	r4, [sp, #0]
   23e00:	4edd      	ldr	r6, [pc, #884]	@ (24178 <_start+0x4ec>)
   23e02:	36be      	adds	r6, #190	@ 0xbe
   23e04:	2151      	movs	r1, #81	@ 0x51
   23e06:	2204      	movs	r2, #4
   23e08:	4628      	mov	r0, r5
   23e0a:	4633      	mov	r3, r6
   23e0c:	f7fc f96a 	bl	200e4 <_ZN9allow_pin12full_dynamic15Buffer$LT$B$GT$5allow17hcdfd34cf7b1c64cdE>
   23e10:	07c0      	lsls	r0, r0, #31
   23e12:	d113      	bne.n	23e3c <_start+0x1b0>
   23e14:	2000      	movs	r0, #0
   23e16:	9000      	str	r0, [sp, #0]
   23e18:	48d6      	ldr	r0, [pc, #856]	@ (24174 <_start+0x4e8>)
   23e1a:	4468      	add	r0, sp
   23e1c:	2146      	movs	r1, #70	@ 0x46
   23e1e:	2203      	movs	r2, #3
   23e20:	4633      	mov	r3, r6
   23e22:	f7fc f95f 	bl	200e4 <_ZN9allow_pin12full_dynamic15Buffer$LT$B$GT$5allow17hcdfd34cf7b1c64cdE>
   23e26:	07c0      	lsls	r0, r0, #31
   23e28:	d108      	bne.n	23e3c <_start+0x1b0>
   23e2a:	48d4      	ldr	r0, [pc, #848]	@ (2417c <_start+0x4f0>)
   23e2c:	2107      	movs	r1, #7
   23e2e:	2500      	movs	r5, #0
   23e30:	462a      	mov	r2, r5
   23e32:	462b      	mov	r3, r5
   23e34:	df02      	svc	2
   23e36:	287f      	cmp	r0, #127	@ 0x7f
   23e38:	d900      	bls.n	23e3c <_start+0x1b0>
   23e3a:	e1af      	b.n	2419c <_start+0x510>
   23e3c:	910d      	str	r1, [sp, #52]	@ 0x34
   23e3e:	9d0c      	ldr	r5, [sp, #48]	@ 0x30
   23e40:	48cc      	ldr	r0, [pc, #816]	@ (24174 <_start+0x4e8>)
   23e42:	4468      	add	r0, sp
   23e44:	f002 fd68 	bl	26918 <_ZN9allow_pin12full_dynamic17unshare_if_shared17h2809d14697b066c7E>
   23e48:	48c9      	ldr	r0, [pc, #804]	@ (24170 <_start+0x4e4>)
   23e4a:	4468      	add	r0, sp
   23e4c:	f002 fd64 	bl	26918 <_ZN9allow_pin12full_dynamic17unshare_if_shared17h2809d14697b066c7E>
   23e50:	2d00      	cmp	r5, #0
   23e52:	d000      	beq.n	23e56 <_start+0x1ca>
   23e54:	e2df      	b.n	24416 <_start+0x78a>
   23e56:	9405      	str	r4, [sp, #20]
   23e58:	48c5      	ldr	r0, [pc, #788]	@ (24170 <_start+0x4e4>)
   23e5a:	4468      	add	r0, sp
   23e5c:	9004      	str	r0, [sp, #16]
   23e5e:	300c      	adds	r0, #12
   23e60:	a931      	add	r1, sp, #196	@ 0xc4
   23e62:	9a0a      	ldr	r2, [sp, #40]	@ 0x28
   23e64:	f002 ff19 	bl	26c9a <__aeabi_memcpy>
   23e68:	a821      	add	r0, sp, #132	@ 0x84
   23e6a:	a90e      	add	r1, sp, #56	@ 0x38
   23e6c:	460a      	mov	r2, r1
   23e6e:	c858      	ldmia	r0!, {r3, r4, r6}
   23e70:	c258      	stmia	r2!, {r3, r4, r6}
   23e72:	c878      	ldmia	r0!, {r3, r4, r5, r6}
   23e74:	c278      	stmia	r2!, {r3, r4, r5, r6}
   23e76:	c878      	ldmia	r0!, {r3, r4, r5, r6}
   23e78:	c278      	stmia	r2!, {r3, r4, r5, r6}
   23e7a:	c878      	ldmia	r0!, {r3, r4, r5, r6}
   23e7c:	c278      	stmia	r2!, {r3, r4, r5, r6}
   23e7e:	8803      	ldrh	r3, [r0, #0]
   23e80:	8013      	strh	r3, [r2, #0]
   23e82:	7880      	ldrb	r0, [r0, #2]
   23e84:	7090      	strb	r0, [r2, #2]
   23e86:	9c04      	ldr	r4, [sp, #16]
   23e88:	4620      	mov	r0, r4
   23e8a:	3013      	adds	r0, #19
   23e8c:	223f      	movs	r2, #63	@ 0x3f
   23e8e:	f002 ff04 	bl	26c9a <__aeabi_memcpy>
   23e92:	990d      	ldr	r1, [sp, #52]	@ 0x34
   23e94:	0e08      	lsrs	r0, r1, #24
   23e96:	74a0      	strb	r0, [r4, #18]
   23e98:	0c08      	lsrs	r0, r1, #16
   23e9a:	7460      	strb	r0, [r4, #17]
   23e9c:	0a08      	lsrs	r0, r1, #8
   23e9e:	7420      	strb	r0, [r4, #16]
   23ea0:	73e1      	strb	r1, [r4, #15]
   23ea2:	9e0b      	ldr	r6, [sp, #44]	@ 0x2c
   23ea4:	7226      	strb	r6, [r4, #8]
   23ea6:	4db3      	ldr	r5, [pc, #716]	@ (24174 <_start+0x4e8>)
   23ea8:	446d      	add	r5, sp
   23eaa:	4628      	mov	r0, r5
   23eac:	300c      	adds	r0, #12
   23eae:	2118      	movs	r1, #24
   23eb0:	900d      	str	r0, [sp, #52]	@ 0x34
   23eb2:	f002 fd45 	bl	26940 <__aeabi_memclr4>
   23eb6:	722e      	strb	r6, [r5, #8]
   23eb8:	4635      	mov	r5, r6
   23eba:	980a      	ldr	r0, [sp, #40]	@ 0x28
   23ebc:	9000      	str	r0, [sp, #0]
   23ebe:	2146      	movs	r1, #70	@ 0x46
   23ec0:	2204      	movs	r2, #4
   23ec2:	4eaf      	ldr	r6, [pc, #700]	@ (24180 <_start+0x4f4>)
   23ec4:	4620      	mov	r0, r4
   23ec6:	4633      	mov	r3, r6
   23ec8:	f7fc f90c 	bl	200e4 <_ZN9allow_pin12full_dynamic15Buffer$LT$B$GT$5allow17hcdfd34cf7b1c64cdE>
   23ecc:	07c0      	lsls	r0, r0, #31
   23ece:	d112      	bne.n	23ef6 <_start+0x26a>
   23ed0:	9500      	str	r5, [sp, #0]
   23ed2:	48a8      	ldr	r0, [pc, #672]	@ (24174 <_start+0x4e8>)
   23ed4:	4468      	add	r0, sp
   23ed6:	2118      	movs	r1, #24
   23ed8:	2203      	movs	r2, #3
   23eda:	4633      	mov	r3, r6
   23edc:	f7fc f902 	bl	200e4 <_ZN9allow_pin12full_dynamic15Buffer$LT$B$GT$5allow17hcdfd34cf7b1c64cdE>
   23ee0:	07c0      	lsls	r0, r0, #31
   23ee2:	d108      	bne.n	23ef6 <_start+0x26a>
   23ee4:	48a6      	ldr	r0, [pc, #664]	@ (24180 <_start+0x4f4>)
   23ee6:	2103      	movs	r1, #3
   23ee8:	2202      	movs	r2, #2
   23eea:	2500      	movs	r5, #0
   23eec:	462b      	mov	r3, r5
   23eee:	df02      	svc	2
   23ef0:	287f      	cmp	r0, #127	@ 0x7f
   23ef2:	d900      	bls.n	23ef6 <_start+0x26a>
   23ef4:	e181      	b.n	241fa <_start+0x56e>
   23ef6:	910d      	str	r1, [sp, #52]	@ 0x34
   23ef8:	9d0c      	ldr	r5, [sp, #48]	@ 0x30
   23efa:	489e      	ldr	r0, [pc, #632]	@ (24174 <_start+0x4e8>)
   23efc:	4468      	add	r0, sp
   23efe:	f002 fd0b 	bl	26918 <_ZN9allow_pin12full_dynamic17unshare_if_shared17h2809d14697b066c7E>
   23f02:	489b      	ldr	r0, [pc, #620]	@ (24170 <_start+0x4e4>)
   23f04:	4468      	add	r0, sp
   23f06:	f002 fd07 	bl	26918 <_ZN9allow_pin12full_dynamic17unshare_if_shared17h2809d14697b066c7E>
   23f0a:	2d00      	cmp	r5, #0
   23f0c:	d000      	beq.n	23f10 <_start+0x284>
   23f0e:	e282      	b.n	24416 <_start+0x78a>
   23f10:	a821      	add	r0, sp, #132	@ 0x84
   23f12:	900a      	str	r0, [sp, #40]	@ 0x28
   23f14:	300c      	adds	r0, #12
   23f16:	a936      	add	r1, sp, #216	@ 0xd8
   23f18:	2203      	movs	r2, #3
   23f1a:	f002 febe 	bl	26c9a <__aeabi_memcpy>
   23f1e:	a831      	add	r0, sp, #196	@ 0xc4
   23f20:	a90e      	add	r1, sp, #56	@ 0x38
   23f22:	460a      	mov	r2, r1
   23f24:	c878      	ldmia	r0!, {r3, r4, r5, r6}
   23f26:	c278      	stmia	r2!, {r3, r4, r5, r6}
   23f28:	7800      	ldrb	r0, [r0, #0]
   23f2a:	7010      	strb	r0, [r2, #0]
   23f2c:	9e0a      	ldr	r6, [sp, #40]	@ 0x28
   23f2e:	4630      	mov	r0, r6
   23f30:	3013      	adds	r0, #19
   23f32:	2211      	movs	r2, #17
   23f34:	f002 feb1 	bl	26c9a <__aeabi_memcpy>
   23f38:	990d      	ldr	r1, [sp, #52]	@ 0x34
   23f3a:	0e08      	lsrs	r0, r1, #24
   23f3c:	74b0      	strb	r0, [r6, #18]
   23f3e:	0c08      	lsrs	r0, r1, #16
   23f40:	7470      	strb	r0, [r6, #17]
   23f42:	0a08      	lsrs	r0, r1, #8
   23f44:	7430      	strb	r0, [r6, #16]
   23f46:	73f1      	strb	r1, [r6, #15]
   23f48:	9d0b      	ldr	r5, [sp, #44]	@ 0x2c
   23f4a:	7235      	strb	r5, [r6, #8]
   23f4c:	4c88      	ldr	r4, [pc, #544]	@ (24170 <_start+0x4e4>)
   23f4e:	446c      	add	r4, sp
   23f50:	4620      	mov	r0, r4
   23f52:	300c      	adds	r0, #12
   23f54:	2136      	movs	r1, #54	@ 0x36
   23f56:	900d      	str	r0, [sp, #52]	@ 0x34
   23f58:	f002 fcf2 	bl	26940 <__aeabi_memclr4>
   23f5c:	7225      	strb	r5, [r4, #8]
   23f5e:	2000      	movs	r0, #0
   23f60:	9004      	str	r0, [sp, #16]
   23f62:	9000      	str	r0, [sp, #0]
   23f64:	2118      	movs	r1, #24
   23f66:	2204      	movs	r2, #4
   23f68:	4c86      	ldr	r4, [pc, #536]	@ (24184 <_start+0x4f8>)
   23f6a:	4630      	mov	r0, r6
   23f6c:	4623      	mov	r3, r4
   23f6e:	f7fc f8b9 	bl	200e4 <_ZN9allow_pin12full_dynamic15Buffer$LT$B$GT$5allow17hcdfd34cf7b1c64cdE>
   23f72:	07c0      	lsls	r0, r0, #31
   23f74:	d113      	bne.n	23f9e <_start+0x312>
   23f76:	9805      	ldr	r0, [sp, #20]
   23f78:	9000      	str	r0, [sp, #0]
   23f7a:	487d      	ldr	r0, [pc, #500]	@ (24170 <_start+0x4e4>)
   23f7c:	4468      	add	r0, sp
   23f7e:	2136      	movs	r1, #54	@ 0x36
   23f80:	2203      	movs	r2, #3
   23f82:	4623      	mov	r3, r4
   23f84:	f7fc f8ae 	bl	200e4 <_ZN9allow_pin12full_dynamic15Buffer$LT$B$GT$5allow17hcdfd34cf7b1c64cdE>
   23f88:	07c0      	lsls	r0, r0, #31
   23f8a:	d108      	bne.n	23f9e <_start+0x312>
   23f8c:	487d      	ldr	r0, [pc, #500]	@ (24184 <_start+0x4f8>)
   23f8e:	2207      	movs	r2, #7
   23f90:	2500      	movs	r5, #0
   23f92:	4629      	mov	r1, r5
   23f94:	462b      	mov	r3, r5
   23f96:	df02      	svc	2
   23f98:	287f      	cmp	r0, #127	@ 0x7f
   23f9a:	d900      	bls.n	23f9e <_start+0x312>
   23f9c:	e15a      	b.n	24254 <_start+0x5c8>
   23f9e:	910d      	str	r1, [sp, #52]	@ 0x34
   23fa0:	9d0c      	ldr	r5, [sp, #48]	@ 0x30
   23fa2:	4873      	ldr	r0, [pc, #460]	@ (24170 <_start+0x4e4>)
   23fa4:	4468      	add	r0, sp
   23fa6:	f002 fcb7 	bl	26918 <_ZN9allow_pin12full_dynamic17unshare_if_shared17h2809d14697b066c7E>
   23faa:	a821      	add	r0, sp, #132	@ 0x84
   23fac:	f002 fcb4 	bl	26918 <_ZN9allow_pin12full_dynamic17unshare_if_shared17h2809d14697b066c7E>
   23fb0:	2d00      	cmp	r5, #0
   23fb2:	d000      	beq.n	23fb6 <_start+0x32a>
   23fb4:	e22f      	b.n	24416 <_start+0x78a>
   23fb6:	486e      	ldr	r0, [pc, #440]	@ (24170 <_start+0x4e4>)
   23fb8:	4468      	add	r0, sp
   23fba:	900a      	str	r0, [sp, #40]	@ 0x28
   23fbc:	300c      	adds	r0, #12
   23fbe:	a931      	add	r1, sp, #196	@ 0xc4
   23fc0:	2203      	movs	r2, #3
   23fc2:	f002 fe6a 	bl	26c9a <__aeabi_memcpy>
   23fc6:	a80e      	add	r0, sp, #56	@ 0x38
   23fc8:	496a      	ldr	r1, [pc, #424]	@ (24174 <_start+0x4e8>)
   23fca:	4469      	add	r1, sp
   23fcc:	460a      	mov	r2, r1
   23fce:	c858      	ldmia	r0!, {r3, r4, r6}
   23fd0:	c258      	stmia	r2!, {r3, r4, r6}
   23fd2:	c878      	ldmia	r0!, {r3, r4, r5, r6}
   23fd4:	c278      	stmia	r2!, {r3, r4, r5, r6}
   23fd6:	c878      	ldmia	r0!, {r3, r4, r5, r6}
   23fd8:	c278      	stmia	r2!, {r3, r4, r5, r6}
   23fda:	8803      	ldrh	r3, [r0, #0]
   23fdc:	8013      	strh	r3, [r2, #0]
   23fde:	7880      	ldrb	r0, [r0, #2]
   23fe0:	7090      	strb	r0, [r2, #2]
   23fe2:	9e0a      	ldr	r6, [sp, #40]	@ 0x28
   23fe4:	4630      	mov	r0, r6
   23fe6:	3013      	adds	r0, #19
   23fe8:	222f      	movs	r2, #47	@ 0x2f
   23fea:	f002 fe56 	bl	26c9a <__aeabi_memcpy>
   23fee:	990d      	ldr	r1, [sp, #52]	@ 0x34
   23ff0:	0e08      	lsrs	r0, r1, #24
   23ff2:	74b0      	strb	r0, [r6, #18]
   23ff4:	0c08      	lsrs	r0, r1, #16
   23ff6:	7470      	strb	r0, [r6, #17]
   23ff8:	0a08      	lsrs	r0, r1, #8
   23ffa:	7430      	strb	r0, [r6, #16]
   23ffc:	73f1      	strb	r1, [r6, #15]
   23ffe:	9d0b      	ldr	r5, [sp, #44]	@ 0x2c
   24000:	7235      	strb	r5, [r6, #8]
   24002:	4c5c      	ldr	r4, [pc, #368]	@ (24174 <_start+0x4e8>)
   24004:	446c      	add	r4, sp
   24006:	4620      	mov	r0, r4
   24008:	300c      	adds	r0, #12
   2400a:	2125      	movs	r1, #37	@ 0x25
   2400c:	900d      	str	r0, [sp, #52]	@ 0x34
   2400e:	f002 fc97 	bl	26940 <__aeabi_memclr4>
   24012:	7225      	strb	r5, [r4, #8]
   24014:	9805      	ldr	r0, [sp, #20]
   24016:	9000      	str	r0, [sp, #0]
   24018:	2136      	movs	r1, #54	@ 0x36
   2401a:	2204      	movs	r2, #4
   2401c:	4c5a      	ldr	r4, [pc, #360]	@ (24188 <_start+0x4fc>)
   2401e:	4630      	mov	r0, r6
   24020:	4623      	mov	r3, r4
   24022:	f7fc f85f 	bl	200e4 <_ZN9allow_pin12full_dynamic15Buffer$LT$B$GT$5allow17hcdfd34cf7b1c64cdE>
   24026:	07c0      	lsls	r0, r0, #31
   24028:	d113      	bne.n	24052 <_start+0x3c6>
   2402a:	9804      	ldr	r0, [sp, #16]
   2402c:	9000      	str	r0, [sp, #0]
   2402e:	4851      	ldr	r0, [pc, #324]	@ (24174 <_start+0x4e8>)
   24030:	4468      	add	r0, sp
   24032:	2125      	movs	r1, #37	@ 0x25
   24034:	2203      	movs	r2, #3
   24036:	4623      	mov	r3, r4
   24038:	f7fc f854 	bl	200e4 <_ZN9allow_pin12full_dynamic15Buffer$LT$B$GT$5allow17hcdfd34cf7b1c64cdE>
   2403c:	07c0      	lsls	r0, r0, #31
   2403e:	d108      	bne.n	24052 <_start+0x3c6>
   24040:	4851      	ldr	r0, [pc, #324]	@ (24188 <_start+0x4fc>)
   24042:	2107      	movs	r1, #7
   24044:	2500      	movs	r5, #0
   24046:	462a      	mov	r2, r5
   24048:	462b      	mov	r3, r5
   2404a:	df02      	svc	2
   2404c:	287f      	cmp	r0, #127	@ 0x7f
   2404e:	d900      	bls.n	24052 <_start+0x3c6>
   24050:	e12c      	b.n	242ac <_start+0x620>
   24052:	910d      	str	r1, [sp, #52]	@ 0x34
   24054:	9d0c      	ldr	r5, [sp, #48]	@ 0x30
   24056:	4847      	ldr	r0, [pc, #284]	@ (24174 <_start+0x4e8>)
   24058:	4468      	add	r0, sp
   2405a:	f002 fc5d 	bl	26918 <_ZN9allow_pin12full_dynamic17unshare_if_shared17h2809d14697b066c7E>
   2405e:	4844      	ldr	r0, [pc, #272]	@ (24170 <_start+0x4e4>)
   24060:	4468      	add	r0, sp
   24062:	f002 fc59 	bl	26918 <_ZN9allow_pin12full_dynamic17unshare_if_shared17h2809d14697b066c7E>
   24066:	2d00      	cmp	r5, #0
   24068:	d000      	beq.n	2406c <_start+0x3e0>
   2406a:	e1d4      	b.n	24416 <_start+0x78a>
   2406c:	4840      	ldr	r0, [pc, #256]	@ (24170 <_start+0x4e4>)
   2406e:	4468      	add	r0, sp
   24070:	900a      	str	r0, [sp, #40]	@ 0x28
   24072:	300c      	adds	r0, #12
   24074:	a931      	add	r1, sp, #196	@ 0xc4
   24076:	2203      	movs	r2, #3
   24078:	f002 fe0f 	bl	26c9a <__aeabi_memcpy>
   2407c:	a821      	add	r0, sp, #132	@ 0x84
   2407e:	a90e      	add	r1, sp, #56	@ 0x38
   24080:	460a      	mov	r2, r1
   24082:	c858      	ldmia	r0!, {r3, r4, r6}
   24084:	c258      	stmia	r2!, {r3, r4, r6}
   24086:	c878      	ldmia	r0!, {r3, r4, r5, r6}
   24088:	c278      	stmia	r2!, {r3, r4, r5, r6}
   2408a:	8800      	ldrh	r0, [r0, #0]
   2408c:	8010      	strh	r0, [r2, #0]
   2408e:	9c0a      	ldr	r4, [sp, #40]	@ 0x28
   24090:	4620      	mov	r0, r4
   24092:	3013      	adds	r0, #19
   24094:	221e      	movs	r2, #30
   24096:	f002 fe00 	bl	26c9a <__aeabi_memcpy>
   2409a:	990d      	ldr	r1, [sp, #52]	@ 0x34
   2409c:	0e08      	lsrs	r0, r1, #24
   2409e:	74a0      	strb	r0, [r4, #18]
   240a0:	0c08      	lsrs	r0, r1, #16
   240a2:	7460      	strb	r0, [r4, #17]
   240a4:	0a08      	lsrs	r0, r1, #8
   240a6:	7420      	strb	r0, [r4, #16]
   240a8:	73e1      	strb	r1, [r4, #15]
   240aa:	990b      	ldr	r1, [sp, #44]	@ 0x2c
   240ac:	7221      	strb	r1, [r4, #8]
   240ae:	4620      	mov	r0, r4
   240b0:	4e30      	ldr	r6, [pc, #192]	@ (24174 <_start+0x4e8>)
   240b2:	446e      	add	r6, sp
   240b4:	9a04      	ldr	r2, [sp, #16]
   240b6:	8332      	strh	r2, [r6, #24]
   240b8:	7231      	strb	r1, [r6, #8]
   240ba:	4b34      	ldr	r3, [pc, #208]	@ (2418c <_start+0x500>)
   240bc:	446b      	add	r3, sp
   240be:	601a      	str	r2, [r3, #0]
   240c0:	4b33      	ldr	r3, [pc, #204]	@ (24190 <_start+0x504>)
   240c2:	446b      	add	r3, sp
   240c4:	601a      	str	r2, [r3, #0]
   240c6:	4b33      	ldr	r3, [pc, #204]	@ (24194 <_start+0x508>)
   240c8:	446b      	add	r3, sp
   240ca:	601a      	str	r2, [r3, #0]
   240cc:	9100      	str	r1, [sp, #0]
   240ce:	2125      	movs	r1, #37	@ 0x25
   240d0:	2204      	movs	r2, #4
   240d2:	4c31      	ldr	r4, [pc, #196]	@ (24198 <_start+0x50c>)
   240d4:	4623      	mov	r3, r4
   240d6:	f7fc f805 	bl	200e4 <_ZN9allow_pin12full_dynamic15Buffer$LT$B$GT$5allow17hcdfd34cf7b1c64cdE>
   240da:	07c0      	lsls	r0, r0, #31
   240dc:	d113      	bne.n	24106 <_start+0x47a>
   240de:	2008      	movs	r0, #8
   240e0:	9000      	str	r0, [sp, #0]
   240e2:	4824      	ldr	r0, [pc, #144]	@ (24174 <_start+0x4e8>)
   240e4:	4468      	add	r0, sp
   240e6:	210e      	movs	r1, #14
   240e8:	2203      	movs	r2, #3
   240ea:	4623      	mov	r3, r4
   240ec:	f7fb fffa 	bl	200e4 <_ZN9allow_pin12full_dynamic15Buffer$LT$B$GT$5allow17hcdfd34cf7b1c64cdE>
   240f0:	07c0      	lsls	r0, r0, #31
   240f2:	d108      	bne.n	24106 <_start+0x47a>
   240f4:	4828      	ldr	r0, [pc, #160]	@ (24198 <_start+0x50c>)
   240f6:	2102      	movs	r1, #2
   240f8:	2208      	movs	r2, #8
   240fa:	2500      	movs	r5, #0
   240fc:	462b      	mov	r3, r5
   240fe:	df02      	svc	2
   24100:	287f      	cmp	r0, #127	@ 0x7f
   24102:	d900      	bls.n	24106 <_start+0x47a>
   24104:	e12a      	b.n	2435c <_start+0x6d0>
   24106:	910d      	str	r1, [sp, #52]	@ 0x34
   24108:	9d0c      	ldr	r5, [sp, #48]	@ 0x30
   2410a:	481a      	ldr	r0, [pc, #104]	@ (24174 <_start+0x4e8>)
   2410c:	4468      	add	r0, sp
   2410e:	f002 fc03 	bl	26918 <_ZN9allow_pin12full_dynamic17unshare_if_shared17h2809d14697b066c7E>
   24112:	4817      	ldr	r0, [pc, #92]	@ (24170 <_start+0x4e4>)
   24114:	4468      	add	r0, sp
   24116:	f002 fbff 	bl	26918 <_ZN9allow_pin12full_dynamic17unshare_if_shared17h2809d14697b066c7E>
   2411a:	2d00      	cmp	r5, #0
   2411c:	9e09      	ldr	r6, [sp, #36]	@ 0x24
   2411e:	d000      	beq.n	24122 <_start+0x496>
   24120:	e179      	b.n	24416 <_start+0x78a>
   24122:	ad37      	add	r5, sp, #220	@ 0xdc
   24124:	9831      	ldr	r0, [sp, #196]	@ 0xc4
   24126:	8028      	strh	r0, [r5, #0]
   24128:	a831      	add	r0, sp, #196	@ 0xc4
   2412a:	7880      	ldrb	r0, [r0, #2]
   2412c:	70a8      	strb	r0, [r5, #2]
   2412e:	a821      	add	r0, sp, #132	@ 0x84
   24130:	a90e      	add	r1, sp, #56	@ 0x38
   24132:	460a      	mov	r2, r1
   24134:	c808      	ldmia	r0!, {r3}
   24136:	c208      	stmia	r2!, {r3}
   24138:	8803      	ldrh	r3, [r0, #0]
   2413a:	8013      	strh	r3, [r2, #0]
   2413c:	7880      	ldrb	r0, [r0, #2]
   2413e:	7090      	strb	r0, [r2, #2]
   24140:	9a0d      	ldr	r2, [sp, #52]	@ 0x34
   24142:	0e10      	lsrs	r0, r2, #24
   24144:	71a8      	strb	r0, [r5, #6]
   24146:	0c10      	lsrs	r0, r2, #16
   24148:	7168      	strb	r0, [r5, #5]
   2414a:	0a10      	lsrs	r0, r2, #8
   2414c:	7128      	strb	r0, [r5, #4]
   2414e:	70ea      	strb	r2, [r5, #3]
   24150:	1de8      	adds	r0, r5, #7
   24152:	2207      	movs	r2, #7
   24154:	f002 fda1 	bl	26c9a <__aeabi_memcpy>
   24158:	4c05      	ldr	r4, [pc, #20]	@ (24170 <_start+0x4e4>)
   2415a:	446c      	add	r4, sp
   2415c:	4620      	mov	r0, r4
   2415e:	4629      	mov	r1, r5
   24160:	f7fc fa20 	bl	205a4 <_ZN20complex_full_dynamic3app17h1367dccc0132794aE>
   24164:	7820      	ldrb	r0, [r4, #0]
   24166:	2801      	cmp	r0, #1
   24168:	d000      	beq.n	2416c <_start+0x4e0>
   2416a:	e0cc      	b.n	24306 <_start+0x67a>
   2416c:	6e30      	ldr	r0, [r6, #96]	@ 0x60
   2416e:	e151      	b.n	24414 <_start+0x788>
   24170:	0000140c 	.word	0x0000140c
   24174:	000013b0 	.word	0x000013b0
   24178:	00002006 	.word	0x00002006
   2417c:	000020c4 	.word	0x000020c4
   24180:	000023cf 	.word	0x000023cf
   24184:	0000021f 	.word	0x0000021f
   24188:	00001597 	.word	0x00001597
   2418c:	000013c4 	.word	0x000013c4
   24190:	000013c0 	.word	0x000013c0
   24194:	000013bc 	.word	0x000013bc
   24198:	00000667 	.word	0x00000667
   2419c:	48a1      	ldr	r0, [pc, #644]	@ (24424 <_start+0x798>)
   2419e:	4468      	add	r0, sp
   241a0:	f002 fbba 	bl	26918 <_ZN9allow_pin12full_dynamic17unshare_if_shared17h2809d14697b066c7E>
   241a4:	4ea0      	ldr	r6, [pc, #640]	@ (24428 <_start+0x79c>)
   241a6:	446e      	add	r6, sp
   241a8:	4630      	mov	r0, r6
   241aa:	f002 fbb5 	bl	26918 <_ZN9allow_pin12full_dynamic17unshare_if_shared17h2809d14697b066c7E>
   241ae:	4630      	mov	r0, r6
   241b0:	f002 fbb2 	bl	26918 <_ZN9allow_pin12full_dynamic17unshare_if_shared17h2809d14697b066c7E>
   241b4:	9a0d      	ldr	r2, [sp, #52]	@ 0x34
   241b6:	7890      	ldrb	r0, [r2, #2]
   241b8:	a931      	add	r1, sp, #196	@ 0xc4
   241ba:	7088      	strb	r0, [r1, #2]
   241bc:	7810      	ldrb	r0, [r2, #0]
   241be:	7852      	ldrb	r2, [r2, #1]
   241c0:	0212      	lsls	r2, r2, #8
   241c2:	1810      	adds	r0, r2, r0
   241c4:	8008      	strh	r0, [r1, #0]
   241c6:	7cb0      	ldrb	r0, [r6, #18]
   241c8:	900d      	str	r0, [sp, #52]	@ 0x34
   241ca:	7c70      	ldrb	r0, [r6, #17]
   241cc:	9004      	str	r0, [sp, #16]
   241ce:	7bf0      	ldrb	r0, [r6, #15]
   241d0:	9003      	str	r0, [sp, #12]
   241d2:	9405      	str	r4, [sp, #20]
   241d4:	7c34      	ldrb	r4, [r6, #16]
   241d6:	3613      	adds	r6, #19
   241d8:	a821      	add	r0, sp, #132	@ 0x84
   241da:	223f      	movs	r2, #63	@ 0x3f
   241dc:	4631      	mov	r1, r6
   241de:	f002 fd5c 	bl	26c9a <__aeabi_memcpy>
   241e2:	0220      	lsls	r0, r4, #8
   241e4:	9c05      	ldr	r4, [sp, #20]
   241e6:	9903      	ldr	r1, [sp, #12]
   241e8:	1840      	adds	r0, r0, r1
   241ea:	9904      	ldr	r1, [sp, #16]
   241ec:	0409      	lsls	r1, r1, #16
   241ee:	9a0d      	ldr	r2, [sp, #52]	@ 0x34
   241f0:	0612      	lsls	r2, r2, #24
   241f2:	1851      	adds	r1, r2, r1
   241f4:	1808      	adds	r0, r1, r0
   241f6:	900d      	str	r0, [sp, #52]	@ 0x34
   241f8:	e622      	b.n	23e40 <_start+0x1b4>
   241fa:	488a      	ldr	r0, [pc, #552]	@ (24424 <_start+0x798>)
   241fc:	4468      	add	r0, sp
   241fe:	f002 fb8b 	bl	26918 <_ZN9allow_pin12full_dynamic17unshare_if_shared17h2809d14697b066c7E>
   24202:	4e89      	ldr	r6, [pc, #548]	@ (24428 <_start+0x79c>)
   24204:	446e      	add	r6, sp
   24206:	4630      	mov	r0, r6
   24208:	f002 fb86 	bl	26918 <_ZN9allow_pin12full_dynamic17unshare_if_shared17h2809d14697b066c7E>
   2420c:	4630      	mov	r0, r6
   2420e:	f002 fb83 	bl	26918 <_ZN9allow_pin12full_dynamic17unshare_if_shared17h2809d14697b066c7E>
   24212:	9a0d      	ldr	r2, [sp, #52]	@ 0x34
   24214:	7890      	ldrb	r0, [r2, #2]
   24216:	a936      	add	r1, sp, #216	@ 0xd8
   24218:	7088      	strb	r0, [r1, #2]
   2421a:	7810      	ldrb	r0, [r2, #0]
   2421c:	7852      	ldrb	r2, [r2, #1]
   2421e:	0212      	lsls	r2, r2, #8
   24220:	1810      	adds	r0, r2, r0
   24222:	8008      	strh	r0, [r1, #0]
   24224:	7cb0      	ldrb	r0, [r6, #18]
   24226:	900d      	str	r0, [sp, #52]	@ 0x34
   24228:	7c70      	ldrb	r0, [r6, #17]
   2422a:	900a      	str	r0, [sp, #40]	@ 0x28
   2422c:	7bf0      	ldrb	r0, [r6, #15]
   2422e:	9004      	str	r0, [sp, #16]
   24230:	7c34      	ldrb	r4, [r6, #16]
   24232:	3613      	adds	r6, #19
   24234:	a831      	add	r0, sp, #196	@ 0xc4
   24236:	2211      	movs	r2, #17
   24238:	4631      	mov	r1, r6
   2423a:	f002 fd2e 	bl	26c9a <__aeabi_memcpy>
   2423e:	0220      	lsls	r0, r4, #8
   24240:	9904      	ldr	r1, [sp, #16]
   24242:	1840      	adds	r0, r0, r1
   24244:	990a      	ldr	r1, [sp, #40]	@ 0x28
   24246:	0409      	lsls	r1, r1, #16
   24248:	9a0d      	ldr	r2, [sp, #52]	@ 0x34
   2424a:	0612      	lsls	r2, r2, #24
   2424c:	1851      	adds	r1, r2, r1
   2424e:	1808      	adds	r0, r1, r0
   24250:	900d      	str	r0, [sp, #52]	@ 0x34
   24252:	e652      	b.n	23efa <_start+0x26e>
   24254:	a821      	add	r0, sp, #132	@ 0x84
   24256:	f002 fb5f 	bl	26918 <_ZN9allow_pin12full_dynamic17unshare_if_shared17h2809d14697b066c7E>
   2425a:	4c72      	ldr	r4, [pc, #456]	@ (24424 <_start+0x798>)
   2425c:	446c      	add	r4, sp
   2425e:	4620      	mov	r0, r4
   24260:	f002 fb5a 	bl	26918 <_ZN9allow_pin12full_dynamic17unshare_if_shared17h2809d14697b066c7E>
   24264:	4620      	mov	r0, r4
   24266:	f002 fb57 	bl	26918 <_ZN9allow_pin12full_dynamic17unshare_if_shared17h2809d14697b066c7E>
   2426a:	9a0d      	ldr	r2, [sp, #52]	@ 0x34
   2426c:	7890      	ldrb	r0, [r2, #2]
   2426e:	a931      	add	r1, sp, #196	@ 0xc4
   24270:	7088      	strb	r0, [r1, #2]
   24272:	7810      	ldrb	r0, [r2, #0]
   24274:	7852      	ldrb	r2, [r2, #1]
   24276:	0212      	lsls	r2, r2, #8
   24278:	1810      	adds	r0, r2, r0
   2427a:	8008      	strh	r0, [r1, #0]
   2427c:	7ca0      	ldrb	r0, [r4, #18]
   2427e:	900d      	str	r0, [sp, #52]	@ 0x34
   24280:	7c60      	ldrb	r0, [r4, #17]
   24282:	900a      	str	r0, [sp, #40]	@ 0x28
   24284:	7be0      	ldrb	r0, [r4, #15]
   24286:	9003      	str	r0, [sp, #12]
   24288:	7c26      	ldrb	r6, [r4, #16]
   2428a:	3413      	adds	r4, #19
   2428c:	a80e      	add	r0, sp, #56	@ 0x38
   2428e:	222f      	movs	r2, #47	@ 0x2f
   24290:	4621      	mov	r1, r4
   24292:	f002 fd02 	bl	26c9a <__aeabi_memcpy>
   24296:	0230      	lsls	r0, r6, #8
   24298:	9903      	ldr	r1, [sp, #12]
   2429a:	1840      	adds	r0, r0, r1
   2429c:	990a      	ldr	r1, [sp, #40]	@ 0x28
   2429e:	0409      	lsls	r1, r1, #16
   242a0:	9a0d      	ldr	r2, [sp, #52]	@ 0x34
   242a2:	0612      	lsls	r2, r2, #24
   242a4:	1851      	adds	r1, r2, r1
   242a6:	1808      	adds	r0, r1, r0
   242a8:	900d      	str	r0, [sp, #52]	@ 0x34
   242aa:	e67a      	b.n	23fa2 <_start+0x316>
   242ac:	485d      	ldr	r0, [pc, #372]	@ (24424 <_start+0x798>)
   242ae:	4468      	add	r0, sp
   242b0:	f002 fb32 	bl	26918 <_ZN9allow_pin12full_dynamic17unshare_if_shared17h2809d14697b066c7E>
   242b4:	4c5c      	ldr	r4, [pc, #368]	@ (24428 <_start+0x79c>)
   242b6:	446c      	add	r4, sp
   242b8:	4620      	mov	r0, r4
   242ba:	f002 fb2d 	bl	26918 <_ZN9allow_pin12full_dynamic17unshare_if_shared17h2809d14697b066c7E>
   242be:	4620      	mov	r0, r4
   242c0:	f002 fb2a 	bl	26918 <_ZN9allow_pin12full_dynamic17unshare_if_shared17h2809d14697b066c7E>
   242c4:	9a0d      	ldr	r2, [sp, #52]	@ 0x34
   242c6:	7890      	ldrb	r0, [r2, #2]
   242c8:	a931      	add	r1, sp, #196	@ 0xc4
   242ca:	7088      	strb	r0, [r1, #2]
   242cc:	7810      	ldrb	r0, [r2, #0]
   242ce:	7852      	ldrb	r2, [r2, #1]
   242d0:	0212      	lsls	r2, r2, #8
   242d2:	1810      	adds	r0, r2, r0
   242d4:	8008      	strh	r0, [r1, #0]
   242d6:	7ca0      	ldrb	r0, [r4, #18]
   242d8:	900d      	str	r0, [sp, #52]	@ 0x34
   242da:	7c60      	ldrb	r0, [r4, #17]
   242dc:	900a      	str	r0, [sp, #40]	@ 0x28
   242de:	7be0      	ldrb	r0, [r4, #15]
   242e0:	9005      	str	r0, [sp, #20]
   242e2:	7c26      	ldrb	r6, [r4, #16]
   242e4:	3413      	adds	r4, #19
   242e6:	a821      	add	r0, sp, #132	@ 0x84
   242e8:	221e      	movs	r2, #30
   242ea:	4621      	mov	r1, r4
   242ec:	f002 fcd5 	bl	26c9a <__aeabi_memcpy>
   242f0:	0230      	lsls	r0, r6, #8
   242f2:	9905      	ldr	r1, [sp, #20]
   242f4:	1840      	adds	r0, r0, r1
   242f6:	990a      	ldr	r1, [sp, #40]	@ 0x28
   242f8:	0409      	lsls	r1, r1, #16
   242fa:	9a0d      	ldr	r2, [sp, #52]	@ 0x34
   242fc:	0612      	lsls	r2, r2, #24
   242fe:	1851      	adds	r1, r2, r1
   24300:	1808      	adds	r0, r1, r0
   24302:	900d      	str	r0, [sp, #52]	@ 0x34
   24304:	e6a7      	b.n	24056 <_start+0x3ca>
   24306:	4947      	ldr	r1, [pc, #284]	@ (24424 <_start+0x798>)
   24308:	4469      	add	r1, sp
   2430a:	78c8      	ldrb	r0, [r1, #3]
   2430c:	ad3b      	add	r5, sp, #236	@ 0xec
   2430e:	70a8      	strb	r0, [r5, #2]
   24310:	7848      	ldrb	r0, [r1, #1]
   24312:	788a      	ldrb	r2, [r1, #2]
   24314:	0212      	lsls	r2, r2, #8
   24316:	1810      	adds	r0, r2, r0
   24318:	8028      	strh	r0, [r5, #0]
   2431a:	6e34      	ldr	r4, [r6, #96]	@ 0x60
   2431c:	3108      	adds	r1, #8
   2431e:	4842      	ldr	r0, [pc, #264]	@ (24428 <_start+0x79c>)
   24320:	4468      	add	r0, sp
   24322:	900d      	str	r0, [sp, #52]	@ 0x34
   24324:	2641      	movs	r6, #65	@ 0x41
   24326:	4632      	mov	r2, r6
   24328:	f002 fb57 	bl	269da <__aeabi_memcpy4>
   2432c:	0e20      	lsrs	r0, r4, #24
   2432e:	71a8      	strb	r0, [r5, #6]
   24330:	0c20      	lsrs	r0, r4, #16
   24332:	7168      	strb	r0, [r5, #5]
   24334:	0a20      	lsrs	r0, r4, #8
   24336:	7128      	strb	r0, [r5, #4]
   24338:	70ec      	strb	r4, [r5, #3]
   2433a:	1de8      	adds	r0, r5, #7
   2433c:	990d      	ldr	r1, [sp, #52]	@ 0x34
   2433e:	4632      	mov	r2, r6
   24340:	f002 fcab 	bl	26c9a <__aeabi_memcpy>
   24344:	4c37      	ldr	r4, [pc, #220]	@ (24424 <_start+0x798>)
   24346:	446c      	add	r4, sp
   24348:	4620      	mov	r0, r4
   2434a:	4629      	mov	r1, r5
   2434c:	f7fd fa04 	bl	21758 <_ZN20complex_full_dynamic3app17h4f7d0324881f9980E>
   24350:	7820      	ldrb	r0, [r4, #0]
   24352:	2801      	cmp	r0, #1
   24354:	d12f      	bne.n	243b6 <_start+0x72a>
   24356:	9809      	ldr	r0, [sp, #36]	@ 0x24
   24358:	6e00      	ldr	r0, [r0, #96]	@ 0x60
   2435a:	e05b      	b.n	24414 <_start+0x788>
   2435c:	360c      	adds	r6, #12
   2435e:	4831      	ldr	r0, [pc, #196]	@ (24424 <_start+0x798>)
   24360:	4468      	add	r0, sp
   24362:	f002 fad9 	bl	26918 <_ZN9allow_pin12full_dynamic17unshare_if_shared17h2809d14697b066c7E>
   24366:	4c30      	ldr	r4, [pc, #192]	@ (24428 <_start+0x79c>)
   24368:	446c      	add	r4, sp
   2436a:	4620      	mov	r0, r4
   2436c:	f002 fad4 	bl	26918 <_ZN9allow_pin12full_dynamic17unshare_if_shared17h2809d14697b066c7E>
   24370:	4620      	mov	r0, r4
   24372:	f002 fad1 	bl	26918 <_ZN9allow_pin12full_dynamic17unshare_if_shared17h2809d14697b066c7E>
   24376:	78b0      	ldrb	r0, [r6, #2]
   24378:	a931      	add	r1, sp, #196	@ 0xc4
   2437a:	7088      	strb	r0, [r1, #2]
   2437c:	7830      	ldrb	r0, [r6, #0]
   2437e:	7872      	ldrb	r2, [r6, #1]
   24380:	0212      	lsls	r2, r2, #8
   24382:	1810      	adds	r0, r2, r0
   24384:	8008      	strh	r0, [r1, #0]
   24386:	7ca0      	ldrb	r0, [r4, #18]
   24388:	900d      	str	r0, [sp, #52]	@ 0x34
   2438a:	7c60      	ldrb	r0, [r4, #17]
   2438c:	900c      	str	r0, [sp, #48]	@ 0x30
   2438e:	7be0      	ldrb	r0, [r4, #15]
   24390:	900b      	str	r0, [sp, #44]	@ 0x2c
   24392:	7c26      	ldrb	r6, [r4, #16]
   24394:	3413      	adds	r4, #19
   24396:	a821      	add	r0, sp, #132	@ 0x84
   24398:	2207      	movs	r2, #7
   2439a:	4621      	mov	r1, r4
   2439c:	f002 fc7d 	bl	26c9a <__aeabi_memcpy>
   243a0:	0230      	lsls	r0, r6, #8
   243a2:	990b      	ldr	r1, [sp, #44]	@ 0x2c
   243a4:	1840      	adds	r0, r0, r1
   243a6:	990c      	ldr	r1, [sp, #48]	@ 0x30
   243a8:	0409      	lsls	r1, r1, #16
   243aa:	9a0d      	ldr	r2, [sp, #52]	@ 0x34
   243ac:	0612      	lsls	r2, r2, #24
   243ae:	1851      	adds	r1, r2, r1
   243b0:	1808      	adds	r0, r1, r0
   243b2:	900d      	str	r0, [sp, #52]	@ 0x34
   243b4:	e6a9      	b.n	2410a <_start+0x47e>
   243b6:	9808      	ldr	r0, [sp, #32]
   243b8:	1cc0      	adds	r0, r0, #3
   243ba:	4a1a      	ldr	r2, [pc, #104]	@ (24424 <_start+0x798>)
   243bc:	446a      	add	r2, sp
   243be:	78d3      	ldrb	r3, [r2, #3]
   243c0:	a94d      	add	r1, sp, #308	@ 0x134
   243c2:	708b      	strb	r3, [r1, #2]
   243c4:	7853      	ldrb	r3, [r2, #1]
   243c6:	7892      	ldrb	r2, [r2, #2]
   243c8:	0212      	lsls	r2, r2, #8
   243ca:	18d2      	adds	r2, r2, r3
   243cc:	800a      	strh	r2, [r1, #0]
   243ce:	9e09      	ldr	r6, [sp, #36]	@ 0x24
   243d0:	4634      	mov	r4, r6
   243d2:	3460      	adds	r4, #96	@ 0x60
   243d4:	cc1c      	ldmia	r4, {r2, r3, r4}
   243d6:	0e25      	lsrs	r5, r4, #24
   243d8:	72c5      	strb	r5, [r0, #11]
   243da:	0c25      	lsrs	r5, r4, #16
   243dc:	7285      	strb	r5, [r0, #10]
   243de:	0a25      	lsrs	r5, r4, #8
   243e0:	7245      	strb	r5, [r0, #9]
   243e2:	7204      	strb	r4, [r0, #8]
   243e4:	0e1c      	lsrs	r4, r3, #24
   243e6:	71c4      	strb	r4, [r0, #7]
   243e8:	0c1c      	lsrs	r4, r3, #16
   243ea:	7184      	strb	r4, [r0, #6]
   243ec:	0a1c      	lsrs	r4, r3, #8
   243ee:	7144      	strb	r4, [r0, #5]
   243f0:	7103      	strb	r3, [r0, #4]
   243f2:	0e13      	lsrs	r3, r2, #24
   243f4:	70c3      	strb	r3, [r0, #3]
   243f6:	0c13      	lsrs	r3, r2, #16
   243f8:	7083      	strb	r3, [r0, #2]
   243fa:	0a13      	lsrs	r3, r2, #8
   243fc:	7043      	strb	r3, [r0, #1]
   243fe:	7002      	strb	r2, [r0, #0]
   24400:	4c08      	ldr	r4, [pc, #32]	@ (24424 <_start+0x798>)
   24402:	446c      	add	r4, sp
   24404:	4620      	mov	r0, r4
   24406:	f7fe fb75 	bl	22af4 <_ZN20complex_full_dynamic3app17hbb1d92d9f0667de7E>
   2440a:	7820      	ldrb	r0, [r4, #0]
   2440c:	2801      	cmp	r0, #1
   2440e:	4633      	mov	r3, r6
   24410:	d10c      	bne.n	2442c <_start+0x7a0>
   24412:	6e18      	ldr	r0, [r3, #96]	@ 0x60
   24414:	900d      	str	r0, [sp, #52]	@ 0x34
   24416:	2001      	movs	r0, #1
   24418:	990d      	ldr	r1, [sp, #52]	@ 0x34
   2441a:	1ffe      	subs	r6, r7, #7
   2441c:	3e05      	subs	r6, #5
   2441e:	46b5      	mov	sp, r6
   24420:	bdf0      	pop	{r4, r5, r6, r7, pc}
   24422:	46c0      	nop			@ (mov r8, r8)
   24424:	0000140c 	.word	0x0000140c
   24428:	000013b0 	.word	0x000013b0
   2442c:	4816      	ldr	r0, [pc, #88]	@ (24488 <_start+0x7fc>)
   2442e:	4468      	add	r0, sp
   24430:	78c1      	ldrb	r1, [r0, #3]
   24432:	ad51      	add	r5, sp, #324	@ 0x144
   24434:	70a9      	strb	r1, [r5, #2]
   24436:	7841      	ldrb	r1, [r0, #1]
   24438:	7882      	ldrb	r2, [r0, #2]
   2443a:	0212      	lsls	r2, r2, #8
   2443c:	1851      	adds	r1, r2, r1
   2443e:	8029      	strh	r1, [r5, #0]
   24440:	3008      	adds	r0, #8
   24442:	6e19      	ldr	r1, [r3, #96]	@ 0x60
   24444:	910c      	str	r1, [sp, #48]	@ 0x30
   24446:	4b11      	ldr	r3, [pc, #68]	@ (2448c <_start+0x800>)
   24448:	446b      	add	r3, sp
   2444a:	930d      	str	r3, [sp, #52]	@ 0x34
   2444c:	c854      	ldmia	r0!, {r2, r4, r6}
   2444e:	c354      	stmia	r3!, {r2, r4, r6}
   24450:	c856      	ldmia	r0!, {r1, r2, r4, r6}
   24452:	c356      	stmia	r3!, {r1, r2, r4, r6}
   24454:	8800      	ldrh	r0, [r0, #0]
   24456:	8018      	strh	r0, [r3, #0]
   24458:	990c      	ldr	r1, [sp, #48]	@ 0x30
   2445a:	0e08      	lsrs	r0, r1, #24
   2445c:	71a8      	strb	r0, [r5, #6]
   2445e:	0c08      	lsrs	r0, r1, #16
   24460:	7168      	strb	r0, [r5, #5]
   24462:	0a08      	lsrs	r0, r1, #8
   24464:	7128      	strb	r0, [r5, #4]
   24466:	70e9      	strb	r1, [r5, #3]
   24468:	1de8      	adds	r0, r5, #7
   2446a:	221e      	movs	r2, #30
   2446c:	990d      	ldr	r1, [sp, #52]	@ 0x34
   2446e:	f002 fc14 	bl	26c9a <__aeabi_memcpy>
   24472:	4c05      	ldr	r4, [pc, #20]	@ (24488 <_start+0x7fc>)
   24474:	446c      	add	r4, sp
   24476:	4620      	mov	r0, r4
   24478:	4629      	mov	r1, r5
   2447a:	f7fc fda5 	bl	20fc8 <_ZN20complex_full_dynamic3app17h34929228a38cd76eE>
   2447e:	7820      	ldrb	r0, [r4, #0]
   24480:	2801      	cmp	r0, #1
   24482:	d105      	bne.n	24490 <_start+0x804>
   24484:	e767      	b.n	24356 <_start+0x6ca>
   24486:	46c0      	nop			@ (mov r8, r8)
   24488:	0000140c 	.word	0x0000140c
   2448c:	000013b0 	.word	0x000013b0
   24490:	4817      	ldr	r0, [pc, #92]	@ (244f0 <_start+0x864>)
   24492:	4468      	add	r0, sp
   24494:	78c1      	ldrb	r1, [r0, #3]
   24496:	ad5b      	add	r5, sp, #364	@ 0x16c
   24498:	70a9      	strb	r1, [r5, #2]
   2449a:	7841      	ldrb	r1, [r0, #1]
   2449c:	7882      	ldrb	r2, [r0, #2]
   2449e:	0212      	lsls	r2, r2, #8
   244a0:	1851      	adds	r1, r2, r1
   244a2:	8029      	strh	r1, [r5, #0]
   244a4:	3008      	adds	r0, #8
   244a6:	9909      	ldr	r1, [sp, #36]	@ 0x24
   244a8:	6e09      	ldr	r1, [r1, #96]	@ 0x60
   244aa:	910c      	str	r1, [sp, #48]	@ 0x30
   244ac:	4b11      	ldr	r3, [pc, #68]	@ (244f4 <_start+0x868>)
   244ae:	446b      	add	r3, sp
   244b0:	930d      	str	r3, [sp, #52]	@ 0x34
   244b2:	c856      	ldmia	r0!, {r1, r2, r4, r6}
   244b4:	c356      	stmia	r3!, {r1, r2, r4, r6}
   244b6:	c856      	ldmia	r0!, {r1, r2, r4, r6}
   244b8:	c356      	stmia	r3!, {r1, r2, r4, r6}
   244ba:	8801      	ldrh	r1, [r0, #0]
   244bc:	8019      	strh	r1, [r3, #0]
   244be:	7880      	ldrb	r0, [r0, #2]
   244c0:	7098      	strb	r0, [r3, #2]
   244c2:	990c      	ldr	r1, [sp, #48]	@ 0x30
   244c4:	0e08      	lsrs	r0, r1, #24
   244c6:	71a8      	strb	r0, [r5, #6]
   244c8:	0c08      	lsrs	r0, r1, #16
   244ca:	7168      	strb	r0, [r5, #5]
   244cc:	0a08      	lsrs	r0, r1, #8
   244ce:	7128      	strb	r0, [r5, #4]
   244d0:	70e9      	strb	r1, [r5, #3]
   244d2:	1de8      	adds	r0, r5, #7
   244d4:	2223      	movs	r2, #35	@ 0x23
   244d6:	990d      	ldr	r1, [sp, #52]	@ 0x34
   244d8:	f002 fbdf 	bl	26c9a <__aeabi_memcpy>
   244dc:	4c04      	ldr	r4, [pc, #16]	@ (244f0 <_start+0x864>)
   244de:	446c      	add	r4, sp
   244e0:	4620      	mov	r0, r4
   244e2:	4629      	mov	r1, r5
   244e4:	f7fc f8b0 	bl	20648 <_ZN20complex_full_dynamic3app17h1381d684240722bdE>
   244e8:	7820      	ldrb	r0, [r4, #0]
   244ea:	2801      	cmp	r0, #1
   244ec:	d104      	bne.n	244f8 <_start+0x86c>
   244ee:	e732      	b.n	24356 <_start+0x6ca>
   244f0:	0000140c 	.word	0x0000140c
   244f4:	000013b0 	.word	0x000013b0
   244f8:	4914      	ldr	r1, [pc, #80]	@ (2454c <_start+0x8c0>)
   244fa:	4469      	add	r1, sp
   244fc:	78c8      	ldrb	r0, [r1, #3]
   244fe:	ad66      	add	r5, sp, #408	@ 0x198
   24500:	70a8      	strb	r0, [r5, #2]
   24502:	7848      	ldrb	r0, [r1, #1]
   24504:	788a      	ldrb	r2, [r1, #2]
   24506:	0212      	lsls	r2, r2, #8
   24508:	1810      	adds	r0, r2, r0
   2450a:	8028      	strh	r0, [r5, #0]
   2450c:	9809      	ldr	r0, [sp, #36]	@ 0x24
   2450e:	6e04      	ldr	r4, [r0, #96]	@ 0x60
   24510:	3108      	adds	r1, #8
   24512:	480f      	ldr	r0, [pc, #60]	@ (24550 <_start+0x8c4>)
   24514:	4468      	add	r0, sp
   24516:	900d      	str	r0, [sp, #52]	@ 0x34
   24518:	265c      	movs	r6, #92	@ 0x5c
   2451a:	4632      	mov	r2, r6
   2451c:	f002 fa5d 	bl	269da <__aeabi_memcpy4>
   24520:	0e20      	lsrs	r0, r4, #24
   24522:	71a8      	strb	r0, [r5, #6]
   24524:	0c20      	lsrs	r0, r4, #16
   24526:	7168      	strb	r0, [r5, #5]
   24528:	0a20      	lsrs	r0, r4, #8
   2452a:	7128      	strb	r0, [r5, #4]
   2452c:	70ec      	strb	r4, [r5, #3]
   2452e:	1de8      	adds	r0, r5, #7
   24530:	990d      	ldr	r1, [sp, #52]	@ 0x34
   24532:	4632      	mov	r2, r6
   24534:	f002 fbb1 	bl	26c9a <__aeabi_memcpy>
   24538:	4c04      	ldr	r4, [pc, #16]	@ (2454c <_start+0x8c0>)
   2453a:	446c      	add	r4, sp
   2453c:	4620      	mov	r0, r4
   2453e:	4629      	mov	r1, r5
   24540:	f7fc f9c4 	bl	208cc <_ZN20complex_full_dynamic3app17h19456355295f4486E>
   24544:	7820      	ldrb	r0, [r4, #0]
   24546:	2801      	cmp	r0, #1
   24548:	d104      	bne.n	24554 <_start+0x8c8>
   2454a:	e704      	b.n	24356 <_start+0x6ca>
   2454c:	0000140c 	.word	0x0000140c
   24550:	000013b0 	.word	0x000013b0
   24554:	4815      	ldr	r0, [pc, #84]	@ (245ac <_start+0x920>)
   24556:	4468      	add	r0, sp
   24558:	78c1      	ldrb	r1, [r0, #3]
   2455a:	ad7f      	add	r5, sp, #508	@ 0x1fc
   2455c:	70a9      	strb	r1, [r5, #2]
   2455e:	7841      	ldrb	r1, [r0, #1]
   24560:	7882      	ldrb	r2, [r0, #2]
   24562:	0212      	lsls	r2, r2, #8
   24564:	1851      	adds	r1, r2, r1
   24566:	8029      	strh	r1, [r5, #0]
   24568:	3008      	adds	r0, #8
   2456a:	9909      	ldr	r1, [sp, #36]	@ 0x24
   2456c:	6e09      	ldr	r1, [r1, #96]	@ 0x60
   2456e:	910c      	str	r1, [sp, #48]	@ 0x30
   24570:	4b0f      	ldr	r3, [pc, #60]	@ (245b0 <_start+0x924>)
   24572:	446b      	add	r3, sp
   24574:	930d      	str	r3, [sp, #52]	@ 0x34
   24576:	c856      	ldmia	r0!, {r1, r2, r4, r6}
   24578:	c356      	stmia	r3!, {r1, r2, r4, r6}
   2457a:	c856      	ldmia	r0!, {r1, r2, r4, r6}
   2457c:	c356      	stmia	r3!, {r1, r2, r4, r6}
   2457e:	990c      	ldr	r1, [sp, #48]	@ 0x30
   24580:	0e08      	lsrs	r0, r1, #24
   24582:	71a8      	strb	r0, [r5, #6]
   24584:	0c08      	lsrs	r0, r1, #16
   24586:	7168      	strb	r0, [r5, #5]
   24588:	0a08      	lsrs	r0, r1, #8
   2458a:	7128      	strb	r0, [r5, #4]
   2458c:	70e9      	strb	r1, [r5, #3]
   2458e:	1de8      	adds	r0, r5, #7
   24590:	2220      	movs	r2, #32
   24592:	990d      	ldr	r1, [sp, #52]	@ 0x34
   24594:	f002 fb81 	bl	26c9a <__aeabi_memcpy>
   24598:	4c04      	ldr	r4, [pc, #16]	@ (245ac <_start+0x920>)
   2459a:	446c      	add	r4, sp
   2459c:	4620      	mov	r0, r4
   2459e:	4629      	mov	r1, r5
   245a0:	f7fc f8a2 	bl	206e8 <_ZN20complex_full_dynamic3app17h1496309b141203a5E>
   245a4:	7820      	ldrb	r0, [r4, #0]
   245a6:	2801      	cmp	r0, #1
   245a8:	d104      	bne.n	245b4 <_start+0x928>
   245aa:	e6d4      	b.n	24356 <_start+0x6ca>
   245ac:	0000140c 	.word	0x0000140c
   245b0:	000013b0 	.word	0x000013b0
   245b4:	4816      	ldr	r0, [pc, #88]	@ (24610 <_start+0x984>)
   245b6:	4468      	add	r0, sp
   245b8:	78c1      	ldrb	r1, [r0, #3]
   245ba:	ad89      	add	r5, sp, #548	@ 0x224
   245bc:	70a9      	strb	r1, [r5, #2]
   245be:	7841      	ldrb	r1, [r0, #1]
   245c0:	7882      	ldrb	r2, [r0, #2]
   245c2:	0212      	lsls	r2, r2, #8
   245c4:	1851      	adds	r1, r2, r1
   245c6:	8029      	strh	r1, [r5, #0]
   245c8:	3008      	adds	r0, #8
   245ca:	9909      	ldr	r1, [sp, #36]	@ 0x24
   245cc:	6e09      	ldr	r1, [r1, #96]	@ 0x60
   245ce:	4b11      	ldr	r3, [pc, #68]	@ (24614 <_start+0x988>)
   245d0:	446b      	add	r3, sp
   245d2:	930d      	str	r3, [sp, #52]	@ 0x34
   245d4:	c850      	ldmia	r0!, {r4, r6}
   245d6:	c350      	stmia	r3!, {r4, r6}
   245d8:	c854      	ldmia	r0!, {r2, r4, r6}
   245da:	c354      	stmia	r3!, {r2, r4, r6}
   245dc:	8802      	ldrh	r2, [r0, #0]
   245de:	801a      	strh	r2, [r3, #0]
   245e0:	7880      	ldrb	r0, [r0, #2]
   245e2:	7098      	strb	r0, [r3, #2]
   245e4:	0e08      	lsrs	r0, r1, #24
   245e6:	71a8      	strb	r0, [r5, #6]
   245e8:	0c08      	lsrs	r0, r1, #16
   245ea:	7168      	strb	r0, [r5, #5]
   245ec:	0a08      	lsrs	r0, r1, #8
   245ee:	7128      	strb	r0, [r5, #4]
   245f0:	70e9      	strb	r1, [r5, #3]
   245f2:	1de8      	adds	r0, r5, #7
   245f4:	2217      	movs	r2, #23
   245f6:	990d      	ldr	r1, [sp, #52]	@ 0x34
   245f8:	f002 fb4f 	bl	26c9a <__aeabi_memcpy>
   245fc:	4c04      	ldr	r4, [pc, #16]	@ (24610 <_start+0x984>)
   245fe:	446c      	add	r4, sp
   24600:	4620      	mov	r0, r4
   24602:	4629      	mov	r1, r5
   24604:	f7fe f892 	bl	2272c <_ZN20complex_full_dynamic3app17ha87490d1083ad28dE>
   24608:	7820      	ldrb	r0, [r4, #0]
   2460a:	2801      	cmp	r0, #1
   2460c:	d104      	bne.n	24618 <_start+0x98c>
   2460e:	e6a2      	b.n	24356 <_start+0x6ca>
   24610:	0000140c 	.word	0x0000140c
   24614:	000013b0 	.word	0x000013b0
   24618:	4816      	ldr	r0, [pc, #88]	@ (24674 <_start+0x9e8>)
   2461a:	4468      	add	r0, sp
   2461c:	78c1      	ldrb	r1, [r0, #3]
   2461e:	ad91      	add	r5, sp, #580	@ 0x244
   24620:	70a9      	strb	r1, [r5, #2]
   24622:	7841      	ldrb	r1, [r0, #1]
   24624:	7882      	ldrb	r2, [r0, #2]
   24626:	0212      	lsls	r2, r2, #8
   24628:	1851      	adds	r1, r2, r1
   2462a:	8029      	strh	r1, [r5, #0]
   2462c:	3008      	adds	r0, #8
   2462e:	9909      	ldr	r1, [sp, #36]	@ 0x24
   24630:	6e09      	ldr	r1, [r1, #96]	@ 0x60
   24632:	4b11      	ldr	r3, [pc, #68]	@ (24678 <_start+0x9ec>)
   24634:	446b      	add	r3, sp
   24636:	930d      	str	r3, [sp, #52]	@ 0x34
   24638:	c854      	ldmia	r0!, {r2, r4, r6}
   2463a:	c354      	stmia	r3!, {r2, r4, r6}
   2463c:	c854      	ldmia	r0!, {r2, r4, r6}
   2463e:	c354      	stmia	r3!, {r2, r4, r6}
   24640:	c854      	ldmia	r0!, {r2, r4, r6}
   24642:	c354      	stmia	r3!, {r2, r4, r6}
   24644:	7800      	ldrb	r0, [r0, #0]
   24646:	7018      	strb	r0, [r3, #0]
   24648:	0e08      	lsrs	r0, r1, #24
   2464a:	71a8      	strb	r0, [r5, #6]
   2464c:	0c08      	lsrs	r0, r1, #16
   2464e:	7168      	strb	r0, [r5, #5]
   24650:	0a08      	lsrs	r0, r1, #8
   24652:	7128      	strb	r0, [r5, #4]
   24654:	70e9      	strb	r1, [r5, #3]
   24656:	1de8      	adds	r0, r5, #7
   24658:	2225      	movs	r2, #37	@ 0x25
   2465a:	990d      	ldr	r1, [sp, #52]	@ 0x34
   2465c:	f002 fb1d 	bl	26c9a <__aeabi_memcpy>
   24660:	4c04      	ldr	r4, [pc, #16]	@ (24674 <_start+0x9e8>)
   24662:	446c      	add	r4, sp
   24664:	4620      	mov	r0, r4
   24666:	4629      	mov	r1, r5
   24668:	f7fc f982 	bl	20970 <_ZN20complex_full_dynamic3app17h1ae56faff2d6bb44E>
   2466c:	7820      	ldrb	r0, [r4, #0]
   2466e:	2801      	cmp	r0, #1
   24670:	d104      	bne.n	2467c <_start+0x9f0>
   24672:	e670      	b.n	24356 <_start+0x6ca>
   24674:	0000140c 	.word	0x0000140c
   24678:	000013b0 	.word	0x000013b0
   2467c:	4816      	ldr	r0, [pc, #88]	@ (246d8 <_start+0xa4c>)
   2467e:	4468      	add	r0, sp
   24680:	78c1      	ldrb	r1, [r0, #3]
   24682:	ad9c      	add	r5, sp, #624	@ 0x270
   24684:	70a9      	strb	r1, [r5, #2]
   24686:	7841      	ldrb	r1, [r0, #1]
   24688:	7882      	ldrb	r2, [r0, #2]
   2468a:	0212      	lsls	r2, r2, #8
   2468c:	1851      	adds	r1, r2, r1
   2468e:	8029      	strh	r1, [r5, #0]
   24690:	3008      	adds	r0, #8
   24692:	9909      	ldr	r1, [sp, #36]	@ 0x24
   24694:	6e09      	ldr	r1, [r1, #96]	@ 0x60
   24696:	910c      	str	r1, [sp, #48]	@ 0x30
   24698:	4b10      	ldr	r3, [pc, #64]	@ (246dc <_start+0xa50>)
   2469a:	446b      	add	r3, sp
   2469c:	930d      	str	r3, [sp, #52]	@ 0x34
   2469e:	c854      	ldmia	r0!, {r2, r4, r6}
   246a0:	c354      	stmia	r3!, {r2, r4, r6}
   246a2:	c856      	ldmia	r0!, {r1, r2, r4, r6}
   246a4:	c356      	stmia	r3!, {r1, r2, r4, r6}
   246a6:	8800      	ldrh	r0, [r0, #0]
   246a8:	8018      	strh	r0, [r3, #0]
   246aa:	990c      	ldr	r1, [sp, #48]	@ 0x30
   246ac:	0e08      	lsrs	r0, r1, #24
   246ae:	71a8      	strb	r0, [r5, #6]
   246b0:	0c08      	lsrs	r0, r1, #16
   246b2:	7168      	strb	r0, [r5, #5]
   246b4:	0a08      	lsrs	r0, r1, #8
   246b6:	7128      	strb	r0, [r5, #4]
   246b8:	70e9      	strb	r1, [r5, #3]
   246ba:	1de8      	adds	r0, r5, #7
   246bc:	221e      	movs	r2, #30
   246be:	990d      	ldr	r1, [sp, #52]	@ 0x34
   246c0:	f002 faeb 	bl	26c9a <__aeabi_memcpy>
   246c4:	4c04      	ldr	r4, [pc, #16]	@ (246d8 <_start+0xa4c>)
   246c6:	446c      	add	r4, sp
   246c8:	4620      	mov	r0, r4
   246ca:	4629      	mov	r1, r5
   246cc:	f7fe fab0 	bl	22c30 <_ZN20complex_full_dynamic3app17hc6ba0b19bc0e433bE>
   246d0:	7820      	ldrb	r0, [r4, #0]
   246d2:	2801      	cmp	r0, #1
   246d4:	d104      	bne.n	246e0 <_start+0xa54>
   246d6:	e63e      	b.n	24356 <_start+0x6ca>
   246d8:	0000140c 	.word	0x0000140c
   246dc:	000013b0 	.word	0x000013b0
   246e0:	4815      	ldr	r0, [pc, #84]	@ (24738 <_start+0xaac>)
   246e2:	4468      	add	r0, sp
   246e4:	78c1      	ldrb	r1, [r0, #3]
   246e6:	ada6      	add	r5, sp, #664	@ 0x298
   246e8:	70a9      	strb	r1, [r5, #2]
   246ea:	7841      	ldrb	r1, [r0, #1]
   246ec:	7882      	ldrb	r2, [r0, #2]
   246ee:	0212      	lsls	r2, r2, #8
   246f0:	1851      	adds	r1, r2, r1
   246f2:	8029      	strh	r1, [r5, #0]
   246f4:	3008      	adds	r0, #8
   246f6:	9909      	ldr	r1, [sp, #36]	@ 0x24
   246f8:	6e09      	ldr	r1, [r1, #96]	@ 0x60
   246fa:	910c      	str	r1, [sp, #48]	@ 0x30
   246fc:	4b0f      	ldr	r3, [pc, #60]	@ (2473c <_start+0xab0>)
   246fe:	446b      	add	r3, sp
   24700:	930d      	str	r3, [sp, #52]	@ 0x34
   24702:	c856      	ldmia	r0!, {r1, r2, r4, r6}
   24704:	c356      	stmia	r3!, {r1, r2, r4, r6}
   24706:	7800      	ldrb	r0, [r0, #0]
   24708:	7018      	strb	r0, [r3, #0]
   2470a:	990c      	ldr	r1, [sp, #48]	@ 0x30
   2470c:	0e08      	lsrs	r0, r1, #24
   2470e:	71a8      	strb	r0, [r5, #6]
   24710:	0c08      	lsrs	r0, r1, #16
   24712:	7168      	strb	r0, [r5, #5]
   24714:	0a08      	lsrs	r0, r1, #8
   24716:	7128      	strb	r0, [r5, #4]
   24718:	70e9      	strb	r1, [r5, #3]
   2471a:	1de8      	adds	r0, r5, #7
   2471c:	2211      	movs	r2, #17
   2471e:	990d      	ldr	r1, [sp, #52]	@ 0x34
   24720:	f002 fabb 	bl	26c9a <__aeabi_memcpy>
   24724:	4c04      	ldr	r4, [pc, #16]	@ (24738 <_start+0xaac>)
   24726:	446c      	add	r4, sp
   24728:	4620      	mov	r0, r4
   2472a:	4629      	mov	r1, r5
   2472c:	f7fd f8b6 	bl	2189c <_ZN20complex_full_dynamic3app17h581710c1246e979bE>
   24730:	7820      	ldrb	r0, [r4, #0]
   24732:	2801      	cmp	r0, #1
   24734:	d104      	bne.n	24740 <_start+0xab4>
   24736:	e60e      	b.n	24356 <_start+0x6ca>
   24738:	0000140c 	.word	0x0000140c
   2473c:	000013b0 	.word	0x000013b0
   24740:	4818      	ldr	r0, [pc, #96]	@ (247a4 <_start+0xb18>)
   24742:	4468      	add	r0, sp
   24744:	78c1      	ldrb	r1, [r0, #3]
   24746:	adac      	add	r5, sp, #688	@ 0x2b0
   24748:	70a9      	strb	r1, [r5, #2]
   2474a:	7841      	ldrb	r1, [r0, #1]
   2474c:	7882      	ldrb	r2, [r0, #2]
   2474e:	0212      	lsls	r2, r2, #8
   24750:	1851      	adds	r1, r2, r1
   24752:	8029      	strh	r1, [r5, #0]
   24754:	3008      	adds	r0, #8
   24756:	9909      	ldr	r1, [sp, #36]	@ 0x24
   24758:	6e09      	ldr	r1, [r1, #96]	@ 0x60
   2475a:	910c      	str	r1, [sp, #48]	@ 0x30
   2475c:	4b12      	ldr	r3, [pc, #72]	@ (247a8 <_start+0xb1c>)
   2475e:	446b      	add	r3, sp
   24760:	930d      	str	r3, [sp, #52]	@ 0x34
   24762:	c854      	ldmia	r0!, {r2, r4, r6}
   24764:	c354      	stmia	r3!, {r2, r4, r6}
   24766:	c856      	ldmia	r0!, {r1, r2, r4, r6}
   24768:	c356      	stmia	r3!, {r1, r2, r4, r6}
   2476a:	c856      	ldmia	r0!, {r1, r2, r4, r6}
   2476c:	c356      	stmia	r3!, {r1, r2, r4, r6}
   2476e:	8801      	ldrh	r1, [r0, #0]
   24770:	8019      	strh	r1, [r3, #0]
   24772:	7880      	ldrb	r0, [r0, #2]
   24774:	7098      	strb	r0, [r3, #2]
   24776:	990c      	ldr	r1, [sp, #48]	@ 0x30
   24778:	0e08      	lsrs	r0, r1, #24
   2477a:	71a8      	strb	r0, [r5, #6]
   2477c:	0c08      	lsrs	r0, r1, #16
   2477e:	7168      	strb	r0, [r5, #5]
   24780:	0a08      	lsrs	r0, r1, #8
   24782:	7128      	strb	r0, [r5, #4]
   24784:	70e9      	strb	r1, [r5, #3]
   24786:	1de8      	adds	r0, r5, #7
   24788:	222f      	movs	r2, #47	@ 0x2f
   2478a:	990d      	ldr	r1, [sp, #52]	@ 0x34
   2478c:	f002 fa85 	bl	26c9a <__aeabi_memcpy>
   24790:	4c04      	ldr	r4, [pc, #16]	@ (247a4 <_start+0xb18>)
   24792:	446c      	add	r4, sp
   24794:	4620      	mov	r0, r4
   24796:	4629      	mov	r1, r5
   24798:	f7fc ff8e 	bl	216b8 <_ZN20complex_full_dynamic3app17h49ee9b92dcc45781E>
   2479c:	7820      	ldrb	r0, [r4, #0]
   2479e:	2801      	cmp	r0, #1
   247a0:	d104      	bne.n	247ac <_start+0xb20>
   247a2:	e5d8      	b.n	24356 <_start+0x6ca>
   247a4:	0000140c 	.word	0x0000140c
   247a8:	000013b0 	.word	0x000013b0
   247ac:	4817      	ldr	r0, [pc, #92]	@ (2480c <_start+0xb80>)
   247ae:	4468      	add	r0, sp
   247b0:	78c1      	ldrb	r1, [r0, #3]
   247b2:	adba      	add	r5, sp, #744	@ 0x2e8
   247b4:	70a9      	strb	r1, [r5, #2]
   247b6:	7841      	ldrb	r1, [r0, #1]
   247b8:	7882      	ldrb	r2, [r0, #2]
   247ba:	0212      	lsls	r2, r2, #8
   247bc:	1851      	adds	r1, r2, r1
   247be:	8029      	strh	r1, [r5, #0]
   247c0:	3008      	adds	r0, #8
   247c2:	9909      	ldr	r1, [sp, #36]	@ 0x24
   247c4:	6e09      	ldr	r1, [r1, #96]	@ 0x60
   247c6:	910c      	str	r1, [sp, #48]	@ 0x30
   247c8:	4b11      	ldr	r3, [pc, #68]	@ (24810 <_start+0xb84>)
   247ca:	446b      	add	r3, sp
   247cc:	930d      	str	r3, [sp, #52]	@ 0x34
   247ce:	c854      	ldmia	r0!, {r2, r4, r6}
   247d0:	c354      	stmia	r3!, {r2, r4, r6}
   247d2:	c856      	ldmia	r0!, {r1, r2, r4, r6}
   247d4:	c356      	stmia	r3!, {r1, r2, r4, r6}
   247d6:	c856      	ldmia	r0!, {r1, r2, r4, r6}
   247d8:	c356      	stmia	r3!, {r1, r2, r4, r6}
   247da:	7800      	ldrb	r0, [r0, #0]
   247dc:	7018      	strb	r0, [r3, #0]
   247de:	990c      	ldr	r1, [sp, #48]	@ 0x30
   247e0:	0e08      	lsrs	r0, r1, #24
   247e2:	71a8      	strb	r0, [r5, #6]
   247e4:	0c08      	lsrs	r0, r1, #16
   247e6:	7168      	strb	r0, [r5, #5]
   247e8:	0a08      	lsrs	r0, r1, #8
   247ea:	7128      	strb	r0, [r5, #4]
   247ec:	70e9      	strb	r1, [r5, #3]
   247ee:	1de8      	adds	r0, r5, #7
   247f0:	222d      	movs	r2, #45	@ 0x2d
   247f2:	990d      	ldr	r1, [sp, #52]	@ 0x34
   247f4:	f002 fa51 	bl	26c9a <__aeabi_memcpy>
   247f8:	4c04      	ldr	r4, [pc, #16]	@ (2480c <_start+0xb80>)
   247fa:	446c      	add	r4, sp
   247fc:	4620      	mov	r0, r4
   247fe:	4629      	mov	r1, r5
   24800:	f7fc fe68 	bl	214d4 <_ZN20complex_full_dynamic3app17h49940dbf4a280806E>
   24804:	7820      	ldrb	r0, [r4, #0]
   24806:	2801      	cmp	r0, #1
   24808:	d104      	bne.n	24814 <_start+0xb88>
   2480a:	e5a4      	b.n	24356 <_start+0x6ca>
   2480c:	0000140c 	.word	0x0000140c
   24810:	000013b0 	.word	0x000013b0
   24814:	4817      	ldr	r0, [pc, #92]	@ (24874 <_start+0xbe8>)
   24816:	4468      	add	r0, sp
   24818:	78c1      	ldrb	r1, [r0, #3]
   2481a:	adc7      	add	r5, sp, #796	@ 0x31c
   2481c:	70a9      	strb	r1, [r5, #2]
   2481e:	7841      	ldrb	r1, [r0, #1]
   24820:	7882      	ldrb	r2, [r0, #2]
   24822:	0212      	lsls	r2, r2, #8
   24824:	1851      	adds	r1, r2, r1
   24826:	8029      	strh	r1, [r5, #0]
   24828:	3008      	adds	r0, #8
   2482a:	9909      	ldr	r1, [sp, #36]	@ 0x24
   2482c:	6e09      	ldr	r1, [r1, #96]	@ 0x60
   2482e:	4b12      	ldr	r3, [pc, #72]	@ (24878 <_start+0xbec>)
   24830:	446b      	add	r3, sp
   24832:	930d      	str	r3, [sp, #52]	@ 0x34
   24834:	c854      	ldmia	r0!, {r2, r4, r6}
   24836:	c354      	stmia	r3!, {r2, r4, r6}
   24838:	c854      	ldmia	r0!, {r2, r4, r6}
   2483a:	c354      	stmia	r3!, {r2, r4, r6}
   2483c:	c854      	ldmia	r0!, {r2, r4, r6}
   2483e:	c354      	stmia	r3!, {r2, r4, r6}
   24840:	8802      	ldrh	r2, [r0, #0]
   24842:	801a      	strh	r2, [r3, #0]
   24844:	7880      	ldrb	r0, [r0, #2]
   24846:	7098      	strb	r0, [r3, #2]
   24848:	0e08      	lsrs	r0, r1, #24
   2484a:	71a8      	strb	r0, [r5, #6]
   2484c:	0c08      	lsrs	r0, r1, #16
   2484e:	7168      	strb	r0, [r5, #5]
   24850:	0a08      	lsrs	r0, r1, #8
   24852:	7128      	strb	r0, [r5, #4]
   24854:	70e9      	strb	r1, [r5, #3]
   24856:	1de8      	adds	r0, r5, #7
   24858:	2227      	movs	r2, #39	@ 0x27
   2485a:	990d      	ldr	r1, [sp, #52]	@ 0x34
   2485c:	f002 fa1d 	bl	26c9a <__aeabi_memcpy>
   24860:	4c04      	ldr	r4, [pc, #16]	@ (24874 <_start+0xbe8>)
   24862:	446c      	add	r4, sp
   24864:	4620      	mov	r0, r4
   24866:	4629      	mov	r1, r5
   24868:	f7fe f802 	bl	22870 <_ZN20complex_full_dynamic3app17hab7149745260cc20E>
   2486c:	7820      	ldrb	r0, [r4, #0]
   2486e:	2801      	cmp	r0, #1
   24870:	d104      	bne.n	2487c <_start+0xbf0>
   24872:	e570      	b.n	24356 <_start+0x6ca>
   24874:	0000140c 	.word	0x0000140c
   24878:	000013b0 	.word	0x000013b0
   2487c:	4817      	ldr	r0, [pc, #92]	@ (248dc <_start+0xc50>)
   2487e:	4468      	add	r0, sp
   24880:	78c1      	ldrb	r1, [r0, #3]
   24882:	add3      	add	r5, sp, #844	@ 0x34c
   24884:	70a9      	strb	r1, [r5, #2]
   24886:	7841      	ldrb	r1, [r0, #1]
   24888:	7882      	ldrb	r2, [r0, #2]
   2488a:	0212      	lsls	r2, r2, #8
   2488c:	1851      	adds	r1, r2, r1
   2488e:	8029      	strh	r1, [r5, #0]
   24890:	3008      	adds	r0, #8
   24892:	9909      	ldr	r1, [sp, #36]	@ 0x24
   24894:	6e09      	ldr	r1, [r1, #96]	@ 0x60
   24896:	910c      	str	r1, [sp, #48]	@ 0x30
   24898:	4b11      	ldr	r3, [pc, #68]	@ (248e0 <_start+0xc54>)
   2489a:	446b      	add	r3, sp
   2489c:	930d      	str	r3, [sp, #52]	@ 0x34
   2489e:	c856      	ldmia	r0!, {r1, r2, r4, r6}
   248a0:	c356      	stmia	r3!, {r1, r2, r4, r6}
   248a2:	c856      	ldmia	r0!, {r1, r2, r4, r6}
   248a4:	c356      	stmia	r3!, {r1, r2, r4, r6}
   248a6:	c856      	ldmia	r0!, {r1, r2, r4, r6}
   248a8:	c356      	stmia	r3!, {r1, r2, r4, r6}
   248aa:	7800      	ldrb	r0, [r0, #0]
   248ac:	7018      	strb	r0, [r3, #0]
   248ae:	990c      	ldr	r1, [sp, #48]	@ 0x30
   248b0:	0e08      	lsrs	r0, r1, #24
   248b2:	71a8      	strb	r0, [r5, #6]
   248b4:	0c08      	lsrs	r0, r1, #16
   248b6:	7168      	strb	r0, [r5, #5]
   248b8:	0a08      	lsrs	r0, r1, #8
   248ba:	7128      	strb	r0, [r5, #4]
   248bc:	70e9      	strb	r1, [r5, #3]
   248be:	1de8      	adds	r0, r5, #7
   248c0:	2231      	movs	r2, #49	@ 0x31
   248c2:	990d      	ldr	r1, [sp, #52]	@ 0x34
   248c4:	f002 f9e9 	bl	26c9a <__aeabi_memcpy>
   248c8:	4c04      	ldr	r4, [pc, #16]	@ (248dc <_start+0xc50>)
   248ca:	446c      	add	r4, sp
   248cc:	4620      	mov	r0, r4
   248ce:	4629      	mov	r1, r5
   248d0:	f7fd f978 	bl	21bc4 <_ZN20complex_full_dynamic3app17h6308f73f34261e32E>
   248d4:	7820      	ldrb	r0, [r4, #0]
   248d6:	2801      	cmp	r0, #1
   248d8:	d104      	bne.n	248e4 <_start+0xc58>
   248da:	e53c      	b.n	24356 <_start+0x6ca>
   248dc:	0000140c 	.word	0x0000140c
   248e0:	000013b0 	.word	0x000013b0
   248e4:	4817      	ldr	r0, [pc, #92]	@ (24944 <_start+0xcb8>)
   248e6:	4468      	add	r0, sp
   248e8:	78c1      	ldrb	r1, [r0, #3]
   248ea:	ade1      	add	r5, sp, #900	@ 0x384
   248ec:	70a9      	strb	r1, [r5, #2]
   248ee:	7841      	ldrb	r1, [r0, #1]
   248f0:	7882      	ldrb	r2, [r0, #2]
   248f2:	0212      	lsls	r2, r2, #8
   248f4:	1851      	adds	r1, r2, r1
   248f6:	8029      	strh	r1, [r5, #0]
   248f8:	3008      	adds	r0, #8
   248fa:	9909      	ldr	r1, [sp, #36]	@ 0x24
   248fc:	6e09      	ldr	r1, [r1, #96]	@ 0x60
   248fe:	910c      	str	r1, [sp, #48]	@ 0x30
   24900:	4b11      	ldr	r3, [pc, #68]	@ (24948 <_start+0xcbc>)
   24902:	446b      	add	r3, sp
   24904:	930d      	str	r3, [sp, #52]	@ 0x34
   24906:	c854      	ldmia	r0!, {r2, r4, r6}
   24908:	c354      	stmia	r3!, {r2, r4, r6}
   2490a:	c856      	ldmia	r0!, {r1, r2, r4, r6}
   2490c:	c356      	stmia	r3!, {r1, r2, r4, r6}
   2490e:	c856      	ldmia	r0!, {r1, r2, r4, r6}
   24910:	c356      	stmia	r3!, {r1, r2, r4, r6}
   24912:	7800      	ldrb	r0, [r0, #0]
   24914:	7018      	strb	r0, [r3, #0]
   24916:	990c      	ldr	r1, [sp, #48]	@ 0x30
   24918:	0e08      	lsrs	r0, r1, #24
   2491a:	71a8      	strb	r0, [r5, #6]
   2491c:	0c08      	lsrs	r0, r1, #16
   2491e:	7168      	strb	r0, [r5, #5]
   24920:	0a08      	lsrs	r0, r1, #8
   24922:	7128      	strb	r0, [r5, #4]
   24924:	70e9      	strb	r1, [r5, #3]
   24926:	1de8      	adds	r0, r5, #7
   24928:	222d      	movs	r2, #45	@ 0x2d
   2492a:	990d      	ldr	r1, [sp, #52]	@ 0x34
   2492c:	f002 f9b5 	bl	26c9a <__aeabi_memcpy>
   24930:	4c04      	ldr	r4, [pc, #16]	@ (24944 <_start+0xcb8>)
   24932:	446c      	add	r4, sp
   24934:	4620      	mov	r0, r4
   24936:	4629      	mov	r1, r5
   24938:	f7fd fe04 	bl	22544 <_ZN20complex_full_dynamic3app17ha1584cc48e386611E>
   2493c:	7820      	ldrb	r0, [r4, #0]
   2493e:	2801      	cmp	r0, #1
   24940:	d104      	bne.n	2494c <_start+0xcc0>
   24942:	e508      	b.n	24356 <_start+0x6ca>
   24944:	0000140c 	.word	0x0000140c
   24948:	000013b0 	.word	0x000013b0
   2494c:	4816      	ldr	r0, [pc, #88]	@ (249a8 <_start+0xd1c>)
   2494e:	4468      	add	r0, sp
   24950:	78c1      	ldrb	r1, [r0, #3]
   24952:	adee      	add	r5, sp, #952	@ 0x3b8
   24954:	70a9      	strb	r1, [r5, #2]
   24956:	7841      	ldrb	r1, [r0, #1]
   24958:	7882      	ldrb	r2, [r0, #2]
   2495a:	0212      	lsls	r2, r2, #8
   2495c:	1851      	adds	r1, r2, r1
   2495e:	8029      	strh	r1, [r5, #0]
   24960:	3008      	adds	r0, #8
   24962:	9909      	ldr	r1, [sp, #36]	@ 0x24
   24964:	6e09      	ldr	r1, [r1, #96]	@ 0x60
   24966:	910c      	str	r1, [sp, #48]	@ 0x30
   24968:	4b10      	ldr	r3, [pc, #64]	@ (249ac <_start+0xd20>)
   2496a:	446b      	add	r3, sp
   2496c:	930d      	str	r3, [sp, #52]	@ 0x34
   2496e:	c856      	ldmia	r0!, {r1, r2, r4, r6}
   24970:	c356      	stmia	r3!, {r1, r2, r4, r6}
   24972:	8801      	ldrh	r1, [r0, #0]
   24974:	8019      	strh	r1, [r3, #0]
   24976:	7880      	ldrb	r0, [r0, #2]
   24978:	7098      	strb	r0, [r3, #2]
   2497a:	990c      	ldr	r1, [sp, #48]	@ 0x30
   2497c:	0e08      	lsrs	r0, r1, #24
   2497e:	71a8      	strb	r0, [r5, #6]
   24980:	0c08      	lsrs	r0, r1, #16
   24982:	7168      	strb	r0, [r5, #5]
   24984:	0a08      	lsrs	r0, r1, #8
   24986:	7128      	strb	r0, [r5, #4]
   24988:	70e9      	strb	r1, [r5, #3]
   2498a:	1de8      	adds	r0, r5, #7
   2498c:	2213      	movs	r2, #19
   2498e:	990d      	ldr	r1, [sp, #52]	@ 0x34
   24990:	f002 f983 	bl	26c9a <__aeabi_memcpy>
   24994:	4c04      	ldr	r4, [pc, #16]	@ (249a8 <_start+0xd1c>)
   24996:	446c      	add	r4, sp
   24998:	4620      	mov	r0, r4
   2499a:	4629      	mov	r1, r5
   2499c:	f7fd fc3c 	bl	22218 <_ZN20complex_full_dynamic3app17h932f88e2ddacd353E>
   249a0:	7820      	ldrb	r0, [r4, #0]
   249a2:	2801      	cmp	r0, #1
   249a4:	d104      	bne.n	249b0 <_start+0xd24>
   249a6:	e4d6      	b.n	24356 <_start+0x6ca>
   249a8:	0000140c 	.word	0x0000140c
   249ac:	000013b0 	.word	0x000013b0
   249b0:	4914      	ldr	r1, [pc, #80]	@ (24a04 <_start+0xd78>)
   249b2:	4469      	add	r1, sp
   249b4:	78c8      	ldrb	r0, [r1, #3]
   249b6:	adf5      	add	r5, sp, #980	@ 0x3d4
   249b8:	70a8      	strb	r0, [r5, #2]
   249ba:	7848      	ldrb	r0, [r1, #1]
   249bc:	788a      	ldrb	r2, [r1, #2]
   249be:	0212      	lsls	r2, r2, #8
   249c0:	1810      	adds	r0, r2, r0
   249c2:	8028      	strh	r0, [r5, #0]
   249c4:	9809      	ldr	r0, [sp, #36]	@ 0x24
   249c6:	6e04      	ldr	r4, [r0, #96]	@ 0x60
   249c8:	3108      	adds	r1, #8
   249ca:	480f      	ldr	r0, [pc, #60]	@ (24a08 <_start+0xd7c>)
   249cc:	4468      	add	r0, sp
   249ce:	900d      	str	r0, [sp, #52]	@ 0x34
   249d0:	2649      	movs	r6, #73	@ 0x49
   249d2:	4632      	mov	r2, r6
   249d4:	f002 f801 	bl	269da <__aeabi_memcpy4>
   249d8:	0e20      	lsrs	r0, r4, #24
   249da:	71a8      	strb	r0, [r5, #6]
   249dc:	0c20      	lsrs	r0, r4, #16
   249de:	7168      	strb	r0, [r5, #5]
   249e0:	0a20      	lsrs	r0, r4, #8
   249e2:	7128      	strb	r0, [r5, #4]
   249e4:	70ec      	strb	r4, [r5, #3]
   249e6:	1de8      	adds	r0, r5, #7
   249e8:	990d      	ldr	r1, [sp, #52]	@ 0x34
   249ea:	4632      	mov	r2, r6
   249ec:	f002 f955 	bl	26c9a <__aeabi_memcpy>
   249f0:	4c04      	ldr	r4, [pc, #16]	@ (24a04 <_start+0xd78>)
   249f2:	446c      	add	r4, sp
   249f4:	4620      	mov	r0, r4
   249f6:	4629      	mov	r1, r5
   249f8:	f7fb fc38 	bl	2026c <_ZN20complex_full_dynamic3app17h0546ba6c86faed5bE>
   249fc:	7820      	ldrb	r0, [r4, #0]
   249fe:	2801      	cmp	r0, #1
   24a00:	d104      	bne.n	24a0c <_start+0xd80>
   24a02:	e4a8      	b.n	24356 <_start+0x6ca>
   24a04:	0000140c 	.word	0x0000140c
   24a08:	000013b0 	.word	0x000013b0
   24a0c:	4819      	ldr	r0, [pc, #100]	@ (24a74 <_start+0xde8>)
   24a0e:	4468      	add	r0, sp
   24a10:	78c1      	ldrb	r1, [r0, #3]
   24a12:	adff      	add	r5, sp, #1020	@ 0x3fc
   24a14:	3528      	adds	r5, #40	@ 0x28
   24a16:	70a9      	strb	r1, [r5, #2]
   24a18:	7841      	ldrb	r1, [r0, #1]
   24a1a:	7882      	ldrb	r2, [r0, #2]
   24a1c:	0212      	lsls	r2, r2, #8
   24a1e:	1851      	adds	r1, r2, r1
   24a20:	8029      	strh	r1, [r5, #0]
   24a22:	3008      	adds	r0, #8
   24a24:	9909      	ldr	r1, [sp, #36]	@ 0x24
   24a26:	6e09      	ldr	r1, [r1, #96]	@ 0x60
   24a28:	910c      	str	r1, [sp, #48]	@ 0x30
   24a2a:	4b13      	ldr	r3, [pc, #76]	@ (24a78 <_start+0xdec>)
   24a2c:	446b      	add	r3, sp
   24a2e:	930d      	str	r3, [sp, #52]	@ 0x34
   24a30:	c854      	ldmia	r0!, {r2, r4, r6}
   24a32:	c354      	stmia	r3!, {r2, r4, r6}
   24a34:	c854      	ldmia	r0!, {r2, r4, r6}
   24a36:	c354      	stmia	r3!, {r2, r4, r6}
   24a38:	c854      	ldmia	r0!, {r2, r4, r6}
   24a3a:	c354      	stmia	r3!, {r2, r4, r6}
   24a3c:	c856      	ldmia	r0!, {r1, r2, r4, r6}
   24a3e:	c356      	stmia	r3!, {r1, r2, r4, r6}
   24a40:	7800      	ldrb	r0, [r0, #0]
   24a42:	7018      	strb	r0, [r3, #0]
   24a44:	990c      	ldr	r1, [sp, #48]	@ 0x30
   24a46:	0e08      	lsrs	r0, r1, #24
   24a48:	71a8      	strb	r0, [r5, #6]
   24a4a:	0c08      	lsrs	r0, r1, #16
   24a4c:	7168      	strb	r0, [r5, #5]
   24a4e:	0a08      	lsrs	r0, r1, #8
   24a50:	7128      	strb	r0, [r5, #4]
   24a52:	70e9      	strb	r1, [r5, #3]
   24a54:	1de8      	adds	r0, r5, #7
   24a56:	2235      	movs	r2, #53	@ 0x35
   24a58:	990d      	ldr	r1, [sp, #52]	@ 0x34
   24a5a:	f002 f91e 	bl	26c9a <__aeabi_memcpy>
   24a5e:	4c05      	ldr	r4, [pc, #20]	@ (24a74 <_start+0xde8>)
   24a60:	446c      	add	r4, sp
   24a62:	4620      	mov	r0, r4
   24a64:	4629      	mov	r1, r5
   24a66:	f7fc ffb9 	bl	219dc <_ZN20complex_full_dynamic3app17h5b2a1010a31456b5E>
   24a6a:	7820      	ldrb	r0, [r4, #0]
   24a6c:	2801      	cmp	r0, #1
   24a6e:	d105      	bne.n	24a7c <_start+0xdf0>
   24a70:	e471      	b.n	24356 <_start+0x6ca>
   24a72:	46c0      	nop			@ (mov r8, r8)
   24a74:	0000140c 	.word	0x0000140c
   24a78:	000013b0 	.word	0x000013b0
   24a7c:	4819      	ldr	r0, [pc, #100]	@ (24ae4 <_start+0xe58>)
   24a7e:	4468      	add	r0, sp
   24a80:	78c1      	ldrb	r1, [r0, #3]
   24a82:	adff      	add	r5, sp, #1020	@ 0x3fc
   24a84:	3564      	adds	r5, #100	@ 0x64
   24a86:	70a9      	strb	r1, [r5, #2]
   24a88:	7841      	ldrb	r1, [r0, #1]
   24a8a:	7882      	ldrb	r2, [r0, #2]
   24a8c:	0212      	lsls	r2, r2, #8
   24a8e:	1851      	adds	r1, r2, r1
   24a90:	8029      	strh	r1, [r5, #0]
   24a92:	3008      	adds	r0, #8
   24a94:	9909      	ldr	r1, [sp, #36]	@ 0x24
   24a96:	6e09      	ldr	r1, [r1, #96]	@ 0x60
   24a98:	910c      	str	r1, [sp, #48]	@ 0x30
   24a9a:	4b13      	ldr	r3, [pc, #76]	@ (24ae8 <_start+0xe5c>)
   24a9c:	446b      	add	r3, sp
   24a9e:	930d      	str	r3, [sp, #52]	@ 0x34
   24aa0:	c854      	ldmia	r0!, {r2, r4, r6}
   24aa2:	c354      	stmia	r3!, {r2, r4, r6}
   24aa4:	c854      	ldmia	r0!, {r2, r4, r6}
   24aa6:	c354      	stmia	r3!, {r2, r4, r6}
   24aa8:	c856      	ldmia	r0!, {r1, r2, r4, r6}
   24aaa:	c356      	stmia	r3!, {r1, r2, r4, r6}
   24aac:	8801      	ldrh	r1, [r0, #0]
   24aae:	8019      	strh	r1, [r3, #0]
   24ab0:	7880      	ldrb	r0, [r0, #2]
   24ab2:	7098      	strb	r0, [r3, #2]
   24ab4:	990c      	ldr	r1, [sp, #48]	@ 0x30
   24ab6:	0e08      	lsrs	r0, r1, #24
   24ab8:	71a8      	strb	r0, [r5, #6]
   24aba:	0c08      	lsrs	r0, r1, #16
   24abc:	7168      	strb	r0, [r5, #5]
   24abe:	0a08      	lsrs	r0, r1, #8
   24ac0:	7128      	strb	r0, [r5, #4]
   24ac2:	70e9      	strb	r1, [r5, #3]
   24ac4:	1de8      	adds	r0, r5, #7
   24ac6:	222b      	movs	r2, #43	@ 0x2b
   24ac8:	990d      	ldr	r1, [sp, #52]	@ 0x34
   24aca:	f002 f8e6 	bl	26c9a <__aeabi_memcpy>
   24ace:	4c05      	ldr	r4, [pc, #20]	@ (24ae4 <_start+0xe58>)
   24ad0:	446c      	add	r4, sp
   24ad2:	4620      	mov	r0, r4
   24ad4:	4629      	mov	r1, r5
   24ad6:	f7fb fd11 	bl	204fc <_ZN20complex_full_dynamic3app17h120c3d05c1f99f00E>
   24ada:	7820      	ldrb	r0, [r4, #0]
   24adc:	2801      	cmp	r0, #1
   24ade:	d105      	bne.n	24aec <_start+0xe60>
   24ae0:	e439      	b.n	24356 <_start+0x6ca>
   24ae2:	46c0      	nop			@ (mov r8, r8)
   24ae4:	0000140c 	.word	0x0000140c
   24ae8:	000013b0 	.word	0x000013b0
   24aec:	4819      	ldr	r0, [pc, #100]	@ (24b54 <_start+0xec8>)
   24aee:	4468      	add	r0, sp
   24af0:	78c1      	ldrb	r1, [r0, #3]
   24af2:	adff      	add	r5, sp, #1020	@ 0x3fc
   24af4:	3598      	adds	r5, #152	@ 0x98
   24af6:	70a9      	strb	r1, [r5, #2]
   24af8:	7841      	ldrb	r1, [r0, #1]
   24afa:	7882      	ldrb	r2, [r0, #2]
   24afc:	0212      	lsls	r2, r2, #8
   24afe:	1851      	adds	r1, r2, r1
   24b00:	8029      	strh	r1, [r5, #0]
   24b02:	3008      	adds	r0, #8
   24b04:	9909      	ldr	r1, [sp, #36]	@ 0x24
   24b06:	6e09      	ldr	r1, [r1, #96]	@ 0x60
   24b08:	910c      	str	r1, [sp, #48]	@ 0x30
   24b0a:	4b13      	ldr	r3, [pc, #76]	@ (24b58 <_start+0xecc>)
   24b0c:	446b      	add	r3, sp
   24b0e:	930d      	str	r3, [sp, #52]	@ 0x34
   24b10:	c854      	ldmia	r0!, {r2, r4, r6}
   24b12:	c354      	stmia	r3!, {r2, r4, r6}
   24b14:	c854      	ldmia	r0!, {r2, r4, r6}
   24b16:	c354      	stmia	r3!, {r2, r4, r6}
   24b18:	c856      	ldmia	r0!, {r1, r2, r4, r6}
   24b1a:	c356      	stmia	r3!, {r1, r2, r4, r6}
   24b1c:	8801      	ldrh	r1, [r0, #0]
   24b1e:	8019      	strh	r1, [r3, #0]
   24b20:	7880      	ldrb	r0, [r0, #2]
   24b22:	7098      	strb	r0, [r3, #2]
   24b24:	990c      	ldr	r1, [sp, #48]	@ 0x30
   24b26:	0e08      	lsrs	r0, r1, #24
   24b28:	71a8      	strb	r0, [r5, #6]
   24b2a:	0c08      	lsrs	r0, r1, #16
   24b2c:	7168      	strb	r0, [r5, #5]
   24b2e:	0a08      	lsrs	r0, r1, #8
   24b30:	7128      	strb	r0, [r5, #4]
   24b32:	70e9      	strb	r1, [r5, #3]
   24b34:	1de8      	adds	r0, r5, #7
   24b36:	222b      	movs	r2, #43	@ 0x2b
   24b38:	990d      	ldr	r1, [sp, #52]	@ 0x34
   24b3a:	f002 f8ae 	bl	26c9a <__aeabi_memcpy>
   24b3e:	4c05      	ldr	r4, [pc, #20]	@ (24b54 <_start+0xec8>)
   24b40:	446c      	add	r4, sp
   24b42:	4620      	mov	r0, r4
   24b44:	4629      	mov	r1, r5
   24b46:	f7fd fc5b 	bl	22400 <_ZN20complex_full_dynamic3app17h99baa38c85bc8e53E>
   24b4a:	7820      	ldrb	r0, [r4, #0]
   24b4c:	2801      	cmp	r0, #1
   24b4e:	d105      	bne.n	24b5c <_start+0xed0>
   24b50:	f7ff fc01 	bl	24356 <_start+0x6ca>
   24b54:	0000140c 	.word	0x0000140c
   24b58:	000013b0 	.word	0x000013b0
   24b5c:	4815      	ldr	r0, [pc, #84]	@ (24bb4 <_start+0xf28>)
   24b5e:	4468      	add	r0, sp
   24b60:	78c1      	ldrb	r1, [r0, #3]
   24b62:	adff      	add	r5, sp, #1020	@ 0x3fc
   24b64:	35cc      	adds	r5, #204	@ 0xcc
   24b66:	70a9      	strb	r1, [r5, #2]
   24b68:	7841      	ldrb	r1, [r0, #1]
   24b6a:	7882      	ldrb	r2, [r0, #2]
   24b6c:	0212      	lsls	r2, r2, #8
   24b6e:	1851      	adds	r1, r2, r1
   24b70:	8029      	strh	r1, [r5, #0]
   24b72:	3008      	adds	r0, #8
   24b74:	9909      	ldr	r1, [sp, #36]	@ 0x24
   24b76:	6e0a      	ldr	r2, [r1, #96]	@ 0x60
   24b78:	490f      	ldr	r1, [pc, #60]	@ (24bb8 <_start+0xf2c>)
   24b7a:	4469      	add	r1, sp
   24b7c:	460b      	mov	r3, r1
   24b7e:	c850      	ldmia	r0!, {r4, r6}
   24b80:	c350      	stmia	r3!, {r4, r6}
   24b82:	7800      	ldrb	r0, [r0, #0]
   24b84:	7018      	strb	r0, [r3, #0]
   24b86:	0e10      	lsrs	r0, r2, #24
   24b88:	71a8      	strb	r0, [r5, #6]
   24b8a:	0c10      	lsrs	r0, r2, #16
   24b8c:	7168      	strb	r0, [r5, #5]
   24b8e:	0a10      	lsrs	r0, r2, #8
   24b90:	7128      	strb	r0, [r5, #4]
   24b92:	70ea      	strb	r2, [r5, #3]
   24b94:	1de8      	adds	r0, r5, #7
   24b96:	2209      	movs	r2, #9
   24b98:	f002 f87f 	bl	26c9a <__aeabi_memcpy>
   24b9c:	4c05      	ldr	r4, [pc, #20]	@ (24bb4 <_start+0xf28>)
   24b9e:	446c      	add	r4, sp
   24ba0:	4620      	mov	r0, r4
   24ba2:	4629      	mov	r1, r5
   24ba4:	f7fc fce6 	bl	21574 <_ZN20complex_full_dynamic3app17h49a3a72161905dfeE>
   24ba8:	7820      	ldrb	r0, [r4, #0]
   24baa:	2801      	cmp	r0, #1
   24bac:	d106      	bne.n	24bbc <_start+0xf30>
   24bae:	f7ff fbd2 	bl	24356 <_start+0x6ca>
   24bb2:	46c0      	nop			@ (mov r8, r8)
   24bb4:	0000140c 	.word	0x0000140c
   24bb8:	000013b0 	.word	0x000013b0
   24bbc:	4819      	ldr	r0, [pc, #100]	@ (24c24 <_start+0xf98>)
   24bbe:	4468      	add	r0, sp
   24bc0:	78c1      	ldrb	r1, [r0, #3]
   24bc2:	adff      	add	r5, sp, #1020	@ 0x3fc
   24bc4:	35dc      	adds	r5, #220	@ 0xdc
   24bc6:	70a9      	strb	r1, [r5, #2]
   24bc8:	7841      	ldrb	r1, [r0, #1]
   24bca:	7882      	ldrb	r2, [r0, #2]
   24bcc:	0212      	lsls	r2, r2, #8
   24bce:	1851      	adds	r1, r2, r1
   24bd0:	8029      	strh	r1, [r5, #0]
   24bd2:	3008      	adds	r0, #8
   24bd4:	9909      	ldr	r1, [sp, #36]	@ 0x24
   24bd6:	6e09      	ldr	r1, [r1, #96]	@ 0x60
   24bd8:	910c      	str	r1, [sp, #48]	@ 0x30
   24bda:	4b13      	ldr	r3, [pc, #76]	@ (24c28 <_start+0xf9c>)
   24bdc:	446b      	add	r3, sp
   24bde:	930d      	str	r3, [sp, #52]	@ 0x34
   24be0:	c854      	ldmia	r0!, {r2, r4, r6}
   24be2:	c354      	stmia	r3!, {r2, r4, r6}
   24be4:	c856      	ldmia	r0!, {r1, r2, r4, r6}
   24be6:	c356      	stmia	r3!, {r1, r2, r4, r6}
   24be8:	c856      	ldmia	r0!, {r1, r2, r4, r6}
   24bea:	c356      	stmia	r3!, {r1, r2, r4, r6}
   24bec:	8801      	ldrh	r1, [r0, #0]
   24bee:	8019      	strh	r1, [r3, #0]
   24bf0:	7880      	ldrb	r0, [r0, #2]
   24bf2:	7098      	strb	r0, [r3, #2]
   24bf4:	990c      	ldr	r1, [sp, #48]	@ 0x30
   24bf6:	0e08      	lsrs	r0, r1, #24
   24bf8:	71a8      	strb	r0, [r5, #6]
   24bfa:	0c08      	lsrs	r0, r1, #16
   24bfc:	7168      	strb	r0, [r5, #5]
   24bfe:	0a08      	lsrs	r0, r1, #8
   24c00:	7128      	strb	r0, [r5, #4]
   24c02:	70e9      	strb	r1, [r5, #3]
   24c04:	1de8      	adds	r0, r5, #7
   24c06:	222f      	movs	r2, #47	@ 0x2f
   24c08:	990d      	ldr	r1, [sp, #52]	@ 0x34
   24c0a:	f002 f846 	bl	26c9a <__aeabi_memcpy>
   24c0e:	4c05      	ldr	r4, [pc, #20]	@ (24c24 <_start+0xf98>)
   24c10:	446c      	add	r4, sp
   24c12:	4620      	mov	r0, r4
   24c14:	4629      	mov	r1, r5
   24c16:	f7fe ffe9 	bl	23bec <_ZN20complex_full_dynamic3app17hffc76b390b902cdbE>
   24c1a:	7820      	ldrb	r0, [r4, #0]
   24c1c:	2801      	cmp	r0, #1
   24c1e:	d105      	bne.n	24c2c <_start+0xfa0>
   24c20:	f7ff fb99 	bl	24356 <_start+0x6ca>
   24c24:	0000140c 	.word	0x0000140c
   24c28:	000013b0 	.word	0x000013b0
   24c2c:	9806      	ldr	r0, [sp, #24]
   24c2e:	1cc0      	adds	r0, r0, #3
   24c30:	4a16      	ldr	r2, [pc, #88]	@ (24c8c <_start+0x1000>)
   24c32:	446a      	add	r2, sp
   24c34:	78d3      	ldrb	r3, [r2, #3]
   24c36:	4916      	ldr	r1, [pc, #88]	@ (24c90 <_start+0x1004>)
   24c38:	4469      	add	r1, sp
   24c3a:	708b      	strb	r3, [r1, #2]
   24c3c:	7853      	ldrb	r3, [r2, #1]
   24c3e:	7892      	ldrb	r2, [r2, #2]
   24c40:	0212      	lsls	r2, r2, #8
   24c42:	18d2      	adds	r2, r2, r3
   24c44:	800a      	strh	r2, [r1, #0]
   24c46:	9c09      	ldr	r4, [sp, #36]	@ 0x24
   24c48:	3460      	adds	r4, #96	@ 0x60
   24c4a:	cc1c      	ldmia	r4, {r2, r3, r4}
   24c4c:	0e25      	lsrs	r5, r4, #24
   24c4e:	72c5      	strb	r5, [r0, #11]
   24c50:	0c25      	lsrs	r5, r4, #16
   24c52:	7285      	strb	r5, [r0, #10]
   24c54:	0a25      	lsrs	r5, r4, #8
   24c56:	7245      	strb	r5, [r0, #9]
   24c58:	7204      	strb	r4, [r0, #8]
   24c5a:	0e1c      	lsrs	r4, r3, #24
   24c5c:	71c4      	strb	r4, [r0, #7]
   24c5e:	0c1c      	lsrs	r4, r3, #16
   24c60:	7184      	strb	r4, [r0, #6]
   24c62:	0a1c      	lsrs	r4, r3, #8
   24c64:	7144      	strb	r4, [r0, #5]
   24c66:	7103      	strb	r3, [r0, #4]
   24c68:	0e13      	lsrs	r3, r2, #24
   24c6a:	70c3      	strb	r3, [r0, #3]
   24c6c:	0c13      	lsrs	r3, r2, #16
   24c6e:	7083      	strb	r3, [r0, #2]
   24c70:	0a13      	lsrs	r3, r2, #8
   24c72:	7043      	strb	r3, [r0, #1]
   24c74:	7002      	strb	r2, [r0, #0]
   24c76:	4c05      	ldr	r4, [pc, #20]	@ (24c8c <_start+0x1000>)
   24c78:	446c      	add	r4, sp
   24c7a:	4620      	mov	r0, r4
   24c7c:	f7fe f8cc 	bl	22e18 <_ZN20complex_full_dynamic3app17hcc5c000931408766E>
   24c80:	7820      	ldrb	r0, [r4, #0]
   24c82:	2801      	cmp	r0, #1
   24c84:	d106      	bne.n	24c94 <_start+0x1008>
   24c86:	f7ff fb66 	bl	24356 <_start+0x6ca>
   24c8a:	46c0      	nop			@ (mov r8, r8)
   24c8c:	0000140c 	.word	0x0000140c
   24c90:	00000510 	.word	0x00000510
   24c94:	4814      	ldr	r0, [pc, #80]	@ (24ce8 <_start+0x105c>)
   24c96:	4468      	add	r0, sp
   24c98:	78c1      	ldrb	r1, [r0, #3]
   24c9a:	4d14      	ldr	r5, [pc, #80]	@ (24cec <_start+0x1060>)
   24c9c:	446d      	add	r5, sp
   24c9e:	70a9      	strb	r1, [r5, #2]
   24ca0:	7841      	ldrb	r1, [r0, #1]
   24ca2:	7882      	ldrb	r2, [r0, #2]
   24ca4:	0212      	lsls	r2, r2, #8
   24ca6:	1851      	adds	r1, r2, r1
   24ca8:	8029      	strh	r1, [r5, #0]
   24caa:	3008      	adds	r0, #8
   24cac:	9909      	ldr	r1, [sp, #36]	@ 0x24
   24cae:	6e09      	ldr	r1, [r1, #96]	@ 0x60
   24cb0:	4b0f      	ldr	r3, [pc, #60]	@ (24cf0 <_start+0x1064>)
   24cb2:	446b      	add	r3, sp
   24cb4:	930d      	str	r3, [sp, #52]	@ 0x34
   24cb6:	c854      	ldmia	r0!, {r2, r4, r6}
   24cb8:	c354      	stmia	r3!, {r2, r4, r6}
   24cba:	0e08      	lsrs	r0, r1, #24
   24cbc:	71a8      	strb	r0, [r5, #6]
   24cbe:	0c08      	lsrs	r0, r1, #16
   24cc0:	7168      	strb	r0, [r5, #5]
   24cc2:	0a08      	lsrs	r0, r1, #8
   24cc4:	7128      	strb	r0, [r5, #4]
   24cc6:	70e9      	strb	r1, [r5, #3]
   24cc8:	1de8      	adds	r0, r5, #7
   24cca:	220c      	movs	r2, #12
   24ccc:	990d      	ldr	r1, [sp, #52]	@ 0x34
   24cce:	f001 ffe4 	bl	26c9a <__aeabi_memcpy>
   24cd2:	4c05      	ldr	r4, [pc, #20]	@ (24ce8 <_start+0x105c>)
   24cd4:	446c      	add	r4, sp
   24cd6:	4620      	mov	r0, r4
   24cd8:	4629      	mov	r1, r5
   24cda:	f7fb fb19 	bl	20310 <_ZN20complex_full_dynamic3app17h0a5b83bc91148a88E>
   24cde:	7820      	ldrb	r0, [r4, #0]
   24ce0:	2801      	cmp	r0, #1
   24ce2:	d107      	bne.n	24cf4 <_start+0x1068>
   24ce4:	f7ff fb37 	bl	24356 <_start+0x6ca>
   24ce8:	0000140c 	.word	0x0000140c
   24cec:	00000520 	.word	0x00000520
   24cf0:	000013b0 	.word	0x000013b0
   24cf4:	4915      	ldr	r1, [pc, #84]	@ (24d4c <_start+0x10c0>)
   24cf6:	4469      	add	r1, sp
   24cf8:	78c8      	ldrb	r0, [r1, #3]
   24cfa:	4d15      	ldr	r5, [pc, #84]	@ (24d50 <_start+0x10c4>)
   24cfc:	446d      	add	r5, sp
   24cfe:	70a8      	strb	r0, [r5, #2]
   24d00:	7848      	ldrb	r0, [r1, #1]
   24d02:	788a      	ldrb	r2, [r1, #2]
   24d04:	0212      	lsls	r2, r2, #8
   24d06:	1810      	adds	r0, r2, r0
   24d08:	8028      	strh	r0, [r5, #0]
   24d0a:	9809      	ldr	r0, [sp, #36]	@ 0x24
   24d0c:	6e04      	ldr	r4, [r0, #96]	@ 0x60
   24d0e:	3108      	adds	r1, #8
   24d10:	4810      	ldr	r0, [pc, #64]	@ (24d54 <_start+0x10c8>)
   24d12:	4468      	add	r0, sp
   24d14:	900d      	str	r0, [sp, #52]	@ 0x34
   24d16:	264e      	movs	r6, #78	@ 0x4e
   24d18:	4632      	mov	r2, r6
   24d1a:	f001 fe5e 	bl	269da <__aeabi_memcpy4>
   24d1e:	0e20      	lsrs	r0, r4, #24
   24d20:	71a8      	strb	r0, [r5, #6]
   24d22:	0c20      	lsrs	r0, r4, #16
   24d24:	7168      	strb	r0, [r5, #5]
   24d26:	0a20      	lsrs	r0, r4, #8
   24d28:	7128      	strb	r0, [r5, #4]
   24d2a:	70ec      	strb	r4, [r5, #3]
   24d2c:	1de8      	adds	r0, r5, #7
   24d2e:	990d      	ldr	r1, [sp, #52]	@ 0x34
   24d30:	4632      	mov	r2, r6
   24d32:	f001 ffb2 	bl	26c9a <__aeabi_memcpy>
   24d36:	4c05      	ldr	r4, [pc, #20]	@ (24d4c <_start+0x10c0>)
   24d38:	446c      	add	r4, sp
   24d3a:	4620      	mov	r0, r4
   24d3c:	4629      	mov	r1, r5
   24d3e:	f7fb f9f5 	bl	2012c <_ZN20complex_full_dynamic3app17h01a69d11abca0b80E>
   24d42:	7820      	ldrb	r0, [r4, #0]
   24d44:	2801      	cmp	r0, #1
   24d46:	d107      	bne.n	24d58 <_start+0x10cc>
   24d48:	f7ff fb05 	bl	24356 <_start+0x6ca>
   24d4c:	0000140c 	.word	0x0000140c
   24d50:	00000534 	.word	0x00000534
   24d54:	000013b0 	.word	0x000013b0
   24d58:	4819      	ldr	r0, [pc, #100]	@ (24dc0 <_start+0x1134>)
   24d5a:	4468      	add	r0, sp
   24d5c:	78c1      	ldrb	r1, [r0, #3]
   24d5e:	4d19      	ldr	r5, [pc, #100]	@ (24dc4 <_start+0x1138>)
   24d60:	446d      	add	r5, sp
   24d62:	70a9      	strb	r1, [r5, #2]
   24d64:	7841      	ldrb	r1, [r0, #1]
   24d66:	7882      	ldrb	r2, [r0, #2]
   24d68:	0212      	lsls	r2, r2, #8
   24d6a:	1851      	adds	r1, r2, r1
   24d6c:	8029      	strh	r1, [r5, #0]
   24d6e:	3008      	adds	r0, #8
   24d70:	9909      	ldr	r1, [sp, #36]	@ 0x24
   24d72:	6e09      	ldr	r1, [r1, #96]	@ 0x60
   24d74:	910c      	str	r1, [sp, #48]	@ 0x30
   24d76:	4b14      	ldr	r3, [pc, #80]	@ (24dc8 <_start+0x113c>)
   24d78:	446b      	add	r3, sp
   24d7a:	930d      	str	r3, [sp, #52]	@ 0x34
   24d7c:	c854      	ldmia	r0!, {r2, r4, r6}
   24d7e:	c354      	stmia	r3!, {r2, r4, r6}
   24d80:	c854      	ldmia	r0!, {r2, r4, r6}
   24d82:	c354      	stmia	r3!, {r2, r4, r6}
   24d84:	c856      	ldmia	r0!, {r1, r2, r4, r6}
   24d86:	c356      	stmia	r3!, {r1, r2, r4, r6}
   24d88:	8801      	ldrh	r1, [r0, #0]
   24d8a:	8019      	strh	r1, [r3, #0]
   24d8c:	7880      	ldrb	r0, [r0, #2]
   24d8e:	7098      	strb	r0, [r3, #2]
   24d90:	990c      	ldr	r1, [sp, #48]	@ 0x30
   24d92:	0e08      	lsrs	r0, r1, #24
   24d94:	71a8      	strb	r0, [r5, #6]
   24d96:	0c08      	lsrs	r0, r1, #16
   24d98:	7168      	strb	r0, [r5, #5]
   24d9a:	0a08      	lsrs	r0, r1, #8
   24d9c:	7128      	strb	r0, [r5, #4]
   24d9e:	70e9      	strb	r1, [r5, #3]
   24da0:	1de8      	adds	r0, r5, #7
   24da2:	222b      	movs	r2, #43	@ 0x2b
   24da4:	990d      	ldr	r1, [sp, #52]	@ 0x34
   24da6:	f001 ff78 	bl	26c9a <__aeabi_memcpy>
   24daa:	4c05      	ldr	r4, [pc, #20]	@ (24dc0 <_start+0x1134>)
   24dac:	446c      	add	r4, sp
   24dae:	4620      	mov	r0, r4
   24db0:	4629      	mov	r1, r5
   24db2:	f7fd f8eb 	bl	21f8c <_ZN20complex_full_dynamic3app17h811706defd8898dcE>
   24db6:	7820      	ldrb	r0, [r4, #0]
   24db8:	2801      	cmp	r0, #1
   24dba:	d107      	bne.n	24dcc <_start+0x1140>
   24dbc:	f7ff facb 	bl	24356 <_start+0x6ca>
   24dc0:	0000140c 	.word	0x0000140c
   24dc4:	0000058c 	.word	0x0000058c
   24dc8:	000013b0 	.word	0x000013b0
   24dcc:	4819      	ldr	r0, [pc, #100]	@ (24e34 <_start+0x11a8>)
   24dce:	4468      	add	r0, sp
   24dd0:	78c1      	ldrb	r1, [r0, #3]
   24dd2:	4d19      	ldr	r5, [pc, #100]	@ (24e38 <_start+0x11ac>)
   24dd4:	446d      	add	r5, sp
   24dd6:	70a9      	strb	r1, [r5, #2]
   24dd8:	7841      	ldrb	r1, [r0, #1]
   24dda:	7882      	ldrb	r2, [r0, #2]
   24ddc:	0212      	lsls	r2, r2, #8
   24dde:	1851      	adds	r1, r2, r1
   24de0:	8029      	strh	r1, [r5, #0]
   24de2:	3008      	adds	r0, #8
   24de4:	9909      	ldr	r1, [sp, #36]	@ 0x24
   24de6:	6e09      	ldr	r1, [r1, #96]	@ 0x60
   24de8:	910c      	str	r1, [sp, #48]	@ 0x30
   24dea:	4b14      	ldr	r3, [pc, #80]	@ (24e3c <_start+0x11b0>)
   24dec:	446b      	add	r3, sp
   24dee:	930d      	str	r3, [sp, #52]	@ 0x34
   24df0:	c854      	ldmia	r0!, {r2, r4, r6}
   24df2:	c354      	stmia	r3!, {r2, r4, r6}
   24df4:	c856      	ldmia	r0!, {r1, r2, r4, r6}
   24df6:	c356      	stmia	r3!, {r1, r2, r4, r6}
   24df8:	c816      	ldmia	r0!, {r1, r2, r4}
   24dfa:	c316      	stmia	r3!, {r1, r2, r4}
   24dfc:	c856      	ldmia	r0!, {r1, r2, r4, r6}
   24dfe:	c356      	stmia	r3!, {r1, r2, r4, r6}
   24e00:	8800      	ldrh	r0, [r0, #0]
   24e02:	8018      	strh	r0, [r3, #0]
   24e04:	990c      	ldr	r1, [sp, #48]	@ 0x30
   24e06:	0e08      	lsrs	r0, r1, #24
   24e08:	71a8      	strb	r0, [r5, #6]
   24e0a:	0c08      	lsrs	r0, r1, #16
   24e0c:	7168      	strb	r0, [r5, #5]
   24e0e:	0a08      	lsrs	r0, r1, #8
   24e10:	7128      	strb	r0, [r5, #4]
   24e12:	70e9      	strb	r1, [r5, #3]
   24e14:	1de8      	adds	r0, r5, #7
   24e16:	223a      	movs	r2, #58	@ 0x3a
   24e18:	990d      	ldr	r1, [sp, #52]	@ 0x34
   24e1a:	f001 ff3e 	bl	26c9a <__aeabi_memcpy>
   24e1e:	4c05      	ldr	r4, [pc, #20]	@ (24e34 <_start+0x11a8>)
   24e20:	446c      	add	r4, sp
   24e22:	4620      	mov	r0, r4
   24e24:	4629      	mov	r1, r5
   24e26:	f7fc f82b 	bl	20e80 <_ZN20complex_full_dynamic3app17h3175677975a3eab4E>
   24e2a:	7820      	ldrb	r0, [r4, #0]
   24e2c:	2801      	cmp	r0, #1
   24e2e:	d107      	bne.n	24e40 <_start+0x11b4>
   24e30:	f7ff fa91 	bl	24356 <_start+0x6ca>
   24e34:	0000140c 	.word	0x0000140c
   24e38:	000005c0 	.word	0x000005c0
   24e3c:	000013b0 	.word	0x000013b0
   24e40:	4817      	ldr	r0, [pc, #92]	@ (24ea0 <_start+0x1214>)
   24e42:	4468      	add	r0, sp
   24e44:	78c1      	ldrb	r1, [r0, #3]
   24e46:	4d17      	ldr	r5, [pc, #92]	@ (24ea4 <_start+0x1218>)
   24e48:	446d      	add	r5, sp
   24e4a:	70a9      	strb	r1, [r5, #2]
   24e4c:	7841      	ldrb	r1, [r0, #1]
   24e4e:	7882      	ldrb	r2, [r0, #2]
   24e50:	0212      	lsls	r2, r2, #8
   24e52:	1851      	adds	r1, r2, r1
   24e54:	8029      	strh	r1, [r5, #0]
   24e56:	3008      	adds	r0, #8
   24e58:	9909      	ldr	r1, [sp, #36]	@ 0x24
   24e5a:	6e09      	ldr	r1, [r1, #96]	@ 0x60
   24e5c:	4b12      	ldr	r3, [pc, #72]	@ (24ea8 <_start+0x121c>)
   24e5e:	446b      	add	r3, sp
   24e60:	930d      	str	r3, [sp, #52]	@ 0x34
   24e62:	c854      	ldmia	r0!, {r2, r4, r6}
   24e64:	c354      	stmia	r3!, {r2, r4, r6}
   24e66:	c854      	ldmia	r0!, {r2, r4, r6}
   24e68:	c354      	stmia	r3!, {r2, r4, r6}
   24e6a:	8802      	ldrh	r2, [r0, #0]
   24e6c:	801a      	strh	r2, [r3, #0]
   24e6e:	7880      	ldrb	r0, [r0, #2]
   24e70:	7098      	strb	r0, [r3, #2]
   24e72:	0e08      	lsrs	r0, r1, #24
   24e74:	71a8      	strb	r0, [r5, #6]
   24e76:	0c08      	lsrs	r0, r1, #16
   24e78:	7168      	strb	r0, [r5, #5]
   24e7a:	0a08      	lsrs	r0, r1, #8
   24e7c:	7128      	strb	r0, [r5, #4]
   24e7e:	70e9      	strb	r1, [r5, #3]
   24e80:	1de8      	adds	r0, r5, #7
   24e82:	221b      	movs	r2, #27
   24e84:	990d      	ldr	r1, [sp, #52]	@ 0x34
   24e86:	f001 ff08 	bl	26c9a <__aeabi_memcpy>
   24e8a:	4c05      	ldr	r4, [pc, #20]	@ (24ea0 <_start+0x1214>)
   24e8c:	446c      	add	r4, sp
   24e8e:	4620      	mov	r0, r4
   24e90:	4629      	mov	r1, r5
   24e92:	f7fe f955 	bl	23140 <_ZN20complex_full_dynamic3app17hdc660ea9981c9e58E>
   24e96:	7820      	ldrb	r0, [r4, #0]
   24e98:	2801      	cmp	r0, #1
   24e9a:	d107      	bne.n	24eac <_start+0x1220>
   24e9c:	f7ff fa5b 	bl	24356 <_start+0x6ca>
   24ea0:	0000140c 	.word	0x0000140c
   24ea4:	00000604 	.word	0x00000604
   24ea8:	000013b0 	.word	0x000013b0
   24eac:	4915      	ldr	r1, [pc, #84]	@ (24f04 <_start+0x1278>)
   24eae:	4469      	add	r1, sp
   24eb0:	78c8      	ldrb	r0, [r1, #3]
   24eb2:	4d15      	ldr	r5, [pc, #84]	@ (24f08 <_start+0x127c>)
   24eb4:	446d      	add	r5, sp
   24eb6:	70a8      	strb	r0, [r5, #2]
   24eb8:	7848      	ldrb	r0, [r1, #1]
   24eba:	788a      	ldrb	r2, [r1, #2]
   24ebc:	0212      	lsls	r2, r2, #8
   24ebe:	1810      	adds	r0, r2, r0
   24ec0:	8028      	strh	r0, [r5, #0]
   24ec2:	9809      	ldr	r0, [sp, #36]	@ 0x24
   24ec4:	6e04      	ldr	r4, [r0, #96]	@ 0x60
   24ec6:	3108      	adds	r1, #8
   24ec8:	4810      	ldr	r0, [pc, #64]	@ (24f0c <_start+0x1280>)
   24eca:	4468      	add	r0, sp
   24ecc:	900d      	str	r0, [sp, #52]	@ 0x34
   24ece:	264a      	movs	r6, #74	@ 0x4a
   24ed0:	4632      	mov	r2, r6
   24ed2:	f001 fd82 	bl	269da <__aeabi_memcpy4>
   24ed6:	0e20      	lsrs	r0, r4, #24
   24ed8:	71a8      	strb	r0, [r5, #6]
   24eda:	0c20      	lsrs	r0, r4, #16
   24edc:	7168      	strb	r0, [r5, #5]
   24ede:	0a20      	lsrs	r0, r4, #8
   24ee0:	7128      	strb	r0, [r5, #4]
   24ee2:	70ec      	strb	r4, [r5, #3]
   24ee4:	1de8      	adds	r0, r5, #7
   24ee6:	990d      	ldr	r1, [sp, #52]	@ 0x34
   24ee8:	4632      	mov	r2, r6
   24eea:	f001 fed6 	bl	26c9a <__aeabi_memcpy>
   24eee:	4c05      	ldr	r4, [pc, #20]	@ (24f04 <_start+0x1278>)
   24ef0:	446c      	add	r4, sp
   24ef2:	4620      	mov	r0, r4
   24ef4:	4629      	mov	r1, r5
   24ef6:	f7fe fba5 	bl	23644 <_ZN20complex_full_dynamic3app17hecfda068f05cade8E>
   24efa:	7820      	ldrb	r0, [r4, #0]
   24efc:	2801      	cmp	r0, #1
   24efe:	d107      	bne.n	24f10 <_start+0x1284>
   24f00:	f7ff fa29 	bl	24356 <_start+0x6ca>
   24f04:	0000140c 	.word	0x0000140c
   24f08:	00000628 	.word	0x00000628
   24f0c:	000013b0 	.word	0x000013b0
   24f10:	4915      	ldr	r1, [pc, #84]	@ (24f68 <_start+0x12dc>)
   24f12:	4469      	add	r1, sp
   24f14:	78c8      	ldrb	r0, [r1, #3]
   24f16:	4d15      	ldr	r5, [pc, #84]	@ (24f6c <_start+0x12e0>)
   24f18:	446d      	add	r5, sp
   24f1a:	70a8      	strb	r0, [r5, #2]
   24f1c:	7848      	ldrb	r0, [r1, #1]
   24f1e:	788a      	ldrb	r2, [r1, #2]
   24f20:	0212      	lsls	r2, r2, #8
   24f22:	1810      	adds	r0, r2, r0
   24f24:	8028      	strh	r0, [r5, #0]
   24f26:	9809      	ldr	r0, [sp, #36]	@ 0x24
   24f28:	6e04      	ldr	r4, [r0, #96]	@ 0x60
   24f2a:	3108      	adds	r1, #8
   24f2c:	4810      	ldr	r0, [pc, #64]	@ (24f70 <_start+0x12e4>)
   24f2e:	4468      	add	r0, sp
   24f30:	900d      	str	r0, [sp, #52]	@ 0x34
   24f32:	2648      	movs	r6, #72	@ 0x48
   24f34:	4632      	mov	r2, r6
   24f36:	f001 fd50 	bl	269da <__aeabi_memcpy4>
   24f3a:	0e20      	lsrs	r0, r4, #24
   24f3c:	71a8      	strb	r0, [r5, #6]
   24f3e:	0c20      	lsrs	r0, r4, #16
   24f40:	7168      	strb	r0, [r5, #5]
   24f42:	0a20      	lsrs	r0, r4, #8
   24f44:	7128      	strb	r0, [r5, #4]
   24f46:	70ec      	strb	r4, [r5, #3]
   24f48:	1de8      	adds	r0, r5, #7
   24f4a:	990d      	ldr	r1, [sp, #52]	@ 0x34
   24f4c:	4632      	mov	r2, r6
   24f4e:	f001 fea4 	bl	26c9a <__aeabi_memcpy>
   24f52:	4c05      	ldr	r4, [pc, #20]	@ (24f68 <_start+0x12dc>)
   24f54:	446c      	add	r4, sp
   24f56:	4620      	mov	r0, r4
   24f58:	4629      	mov	r1, r5
   24f5a:	f7fb fe4d 	bl	20bf8 <_ZN20complex_full_dynamic3app17h1f43cc4ca28be9f4E>
   24f5e:	7820      	ldrb	r0, [r4, #0]
   24f60:	2801      	cmp	r0, #1
   24f62:	d107      	bne.n	24f74 <_start+0x12e8>
   24f64:	f7ff f9f7 	bl	24356 <_start+0x6ca>
   24f68:	0000140c 	.word	0x0000140c
   24f6c:	0000067c 	.word	0x0000067c
   24f70:	000013b0 	.word	0x000013b0
   24f74:	4818      	ldr	r0, [pc, #96]	@ (24fd8 <_start+0x134c>)
   24f76:	4468      	add	r0, sp
   24f78:	78c1      	ldrb	r1, [r0, #3]
   24f7a:	4d18      	ldr	r5, [pc, #96]	@ (24fdc <_start+0x1350>)
   24f7c:	446d      	add	r5, sp
   24f7e:	70a9      	strb	r1, [r5, #2]
   24f80:	7841      	ldrb	r1, [r0, #1]
   24f82:	7882      	ldrb	r2, [r0, #2]
   24f84:	0212      	lsls	r2, r2, #8
   24f86:	1851      	adds	r1, r2, r1
   24f88:	8029      	strh	r1, [r5, #0]
   24f8a:	3008      	adds	r0, #8
   24f8c:	9909      	ldr	r1, [sp, #36]	@ 0x24
   24f8e:	6e09      	ldr	r1, [r1, #96]	@ 0x60
   24f90:	910c      	str	r1, [sp, #48]	@ 0x30
   24f92:	4b13      	ldr	r3, [pc, #76]	@ (24fe0 <_start+0x1354>)
   24f94:	446b      	add	r3, sp
   24f96:	930d      	str	r3, [sp, #52]	@ 0x34
   24f98:	c854      	ldmia	r0!, {r2, r4, r6}
   24f9a:	c354      	stmia	r3!, {r2, r4, r6}
   24f9c:	c854      	ldmia	r0!, {r2, r4, r6}
   24f9e:	c354      	stmia	r3!, {r2, r4, r6}
   24fa0:	c854      	ldmia	r0!, {r2, r4, r6}
   24fa2:	c354      	stmia	r3!, {r2, r4, r6}
   24fa4:	c856      	ldmia	r0!, {r1, r2, r4, r6}
   24fa6:	c356      	stmia	r3!, {r1, r2, r4, r6}
   24fa8:	990c      	ldr	r1, [sp, #48]	@ 0x30
   24faa:	0e08      	lsrs	r0, r1, #24
   24fac:	71a8      	strb	r0, [r5, #6]
   24fae:	0c08      	lsrs	r0, r1, #16
   24fb0:	7168      	strb	r0, [r5, #5]
   24fb2:	0a08      	lsrs	r0, r1, #8
   24fb4:	7128      	strb	r0, [r5, #4]
   24fb6:	70e9      	strb	r1, [r5, #3]
   24fb8:	1de8      	adds	r0, r5, #7
   24fba:	2234      	movs	r2, #52	@ 0x34
   24fbc:	990d      	ldr	r1, [sp, #52]	@ 0x34
   24fbe:	f001 fe6c 	bl	26c9a <__aeabi_memcpy>
   24fc2:	4c05      	ldr	r4, [pc, #20]	@ (24fd8 <_start+0x134c>)
   24fc4:	446c      	add	r4, sp
   24fc6:	4620      	mov	r0, r4
   24fc8:	4629      	mov	r1, r5
   24fca:	f7fb fbdd 	bl	20788 <_ZN20complex_full_dynamic3app17h180467ecf986ffe4E>
   24fce:	7820      	ldrb	r0, [r4, #0]
   24fd0:	2801      	cmp	r0, #1
   24fd2:	d107      	bne.n	24fe4 <_start+0x1358>
   24fd4:	f7ff f9bf 	bl	24356 <_start+0x6ca>
   24fd8:	0000140c 	.word	0x0000140c
   24fdc:	000006cc 	.word	0x000006cc
   24fe0:	000013b0 	.word	0x000013b0
   24fe4:	4816      	ldr	r0, [pc, #88]	@ (25040 <_start+0x13b4>)
   24fe6:	4468      	add	r0, sp
   24fe8:	78c1      	ldrb	r1, [r0, #3]
   24fea:	4d16      	ldr	r5, [pc, #88]	@ (25044 <_start+0x13b8>)
   24fec:	446d      	add	r5, sp
   24fee:	70a9      	strb	r1, [r5, #2]
   24ff0:	7841      	ldrb	r1, [r0, #1]
   24ff2:	7882      	ldrb	r2, [r0, #2]
   24ff4:	0212      	lsls	r2, r2, #8
   24ff6:	1851      	adds	r1, r2, r1
   24ff8:	8029      	strh	r1, [r5, #0]
   24ffa:	3008      	adds	r0, #8
   24ffc:	9909      	ldr	r1, [sp, #36]	@ 0x24
   24ffe:	6e09      	ldr	r1, [r1, #96]	@ 0x60
   25000:	910c      	str	r1, [sp, #48]	@ 0x30
   25002:	4b11      	ldr	r3, [pc, #68]	@ (25048 <_start+0x13bc>)
   25004:	446b      	add	r3, sp
   25006:	930d      	str	r3, [sp, #52]	@ 0x34
   25008:	c856      	ldmia	r0!, {r1, r2, r4, r6}
   2500a:	c356      	stmia	r3!, {r1, r2, r4, r6}
   2500c:	c856      	ldmia	r0!, {r1, r2, r4, r6}
   2500e:	c356      	stmia	r3!, {r1, r2, r4, r6}
   25010:	990c      	ldr	r1, [sp, #48]	@ 0x30
   25012:	0e08      	lsrs	r0, r1, #24
   25014:	71a8      	strb	r0, [r5, #6]
   25016:	0c08      	lsrs	r0, r1, #16
   25018:	7168      	strb	r0, [r5, #5]
   2501a:	0a08      	lsrs	r0, r1, #8
   2501c:	7128      	strb	r0, [r5, #4]
   2501e:	70e9      	strb	r1, [r5, #3]
   25020:	1de8      	adds	r0, r5, #7
   25022:	2220      	movs	r2, #32
   25024:	990d      	ldr	r1, [sp, #52]	@ 0x34
   25026:	f001 fe38 	bl	26c9a <__aeabi_memcpy>
   2502a:	4c05      	ldr	r4, [pc, #20]	@ (25040 <_start+0x13b4>)
   2502c:	446c      	add	r4, sp
   2502e:	4620      	mov	r0, r4
   25030:	4629      	mov	r1, r5
   25032:	f7fb fbf9 	bl	20828 <_ZN20complex_full_dynamic3app17h18b28b55d47bae11E>
   25036:	7820      	ldrb	r0, [r4, #0]
   25038:	2801      	cmp	r0, #1
   2503a:	d107      	bne.n	2504c <_start+0x13c0>
   2503c:	f7ff f98b 	bl	24356 <_start+0x6ca>
   25040:	0000140c 	.word	0x0000140c
   25044:	00000708 	.word	0x00000708
   25048:	000013b0 	.word	0x000013b0
   2504c:	4815      	ldr	r0, [pc, #84]	@ (250a4 <_start+0x1418>)
   2504e:	4468      	add	r0, sp
   25050:	78c1      	ldrb	r1, [r0, #3]
   25052:	4d15      	ldr	r5, [pc, #84]	@ (250a8 <_start+0x141c>)
   25054:	446d      	add	r5, sp
   25056:	70a9      	strb	r1, [r5, #2]
   25058:	7841      	ldrb	r1, [r0, #1]
   2505a:	7882      	ldrb	r2, [r0, #2]
   2505c:	0212      	lsls	r2, r2, #8
   2505e:	1851      	adds	r1, r2, r1
   25060:	8029      	strh	r1, [r5, #0]
   25062:	3008      	adds	r0, #8
   25064:	9909      	ldr	r1, [sp, #36]	@ 0x24
   25066:	6e09      	ldr	r1, [r1, #96]	@ 0x60
   25068:	4b10      	ldr	r3, [pc, #64]	@ (250ac <_start+0x1420>)
   2506a:	446b      	add	r3, sp
   2506c:	930d      	str	r3, [sp, #52]	@ 0x34
   2506e:	c854      	ldmia	r0!, {r2, r4, r6}
   25070:	c354      	stmia	r3!, {r2, r4, r6}
   25072:	7800      	ldrb	r0, [r0, #0]
   25074:	7018      	strb	r0, [r3, #0]
   25076:	0e08      	lsrs	r0, r1, #24
   25078:	71a8      	strb	r0, [r5, #6]
   2507a:	0c08      	lsrs	r0, r1, #16
   2507c:	7168      	strb	r0, [r5, #5]
   2507e:	0a08      	lsrs	r0, r1, #8
   25080:	7128      	strb	r0, [r5, #4]
   25082:	70e9      	strb	r1, [r5, #3]
   25084:	1de8      	adds	r0, r5, #7
   25086:	220d      	movs	r2, #13
   25088:	990d      	ldr	r1, [sp, #52]	@ 0x34
   2508a:	f001 fe06 	bl	26c9a <__aeabi_memcpy>
   2508e:	4c05      	ldr	r4, [pc, #20]	@ (250a4 <_start+0x1418>)
   25090:	446c      	add	r4, sp
   25092:	4620      	mov	r0, r4
   25094:	4629      	mov	r1, r5
   25096:	f7fb f9df 	bl	20458 <_ZN20complex_full_dynamic3app17h0dbca14a72e4e891E>
   2509a:	7820      	ldrb	r0, [r4, #0]
   2509c:	2801      	cmp	r0, #1
   2509e:	d107      	bne.n	250b0 <_start+0x1424>
   250a0:	f7ff f959 	bl	24356 <_start+0x6ca>
   250a4:	0000140c 	.word	0x0000140c
   250a8:	00000730 	.word	0x00000730
   250ac:	000013b0 	.word	0x000013b0
   250b0:	4816      	ldr	r0, [pc, #88]	@ (2510c <_start+0x1480>)
   250b2:	4468      	add	r0, sp
   250b4:	78c1      	ldrb	r1, [r0, #3]
   250b6:	4d16      	ldr	r5, [pc, #88]	@ (25110 <_start+0x1484>)
   250b8:	446d      	add	r5, sp
   250ba:	70a9      	strb	r1, [r5, #2]
   250bc:	7841      	ldrb	r1, [r0, #1]
   250be:	7882      	ldrb	r2, [r0, #2]
   250c0:	0212      	lsls	r2, r2, #8
   250c2:	1851      	adds	r1, r2, r1
   250c4:	8029      	strh	r1, [r5, #0]
   250c6:	3008      	adds	r0, #8
   250c8:	9909      	ldr	r1, [sp, #36]	@ 0x24
   250ca:	6e09      	ldr	r1, [r1, #96]	@ 0x60
   250cc:	4b11      	ldr	r3, [pc, #68]	@ (25114 <_start+0x1488>)
   250ce:	446b      	add	r3, sp
   250d0:	930d      	str	r3, [sp, #52]	@ 0x34
   250d2:	c854      	ldmia	r0!, {r2, r4, r6}
   250d4:	c354      	stmia	r3!, {r2, r4, r6}
   250d6:	c854      	ldmia	r0!, {r2, r4, r6}
   250d8:	c354      	stmia	r3!, {r2, r4, r6}
   250da:	c854      	ldmia	r0!, {r2, r4, r6}
   250dc:	c354      	stmia	r3!, {r2, r4, r6}
   250de:	0e08      	lsrs	r0, r1, #24
   250e0:	71a8      	strb	r0, [r5, #6]
   250e2:	0c08      	lsrs	r0, r1, #16
   250e4:	7168      	strb	r0, [r5, #5]
   250e6:	0a08      	lsrs	r0, r1, #8
   250e8:	7128      	strb	r0, [r5, #4]
   250ea:	70e9      	strb	r1, [r5, #3]
   250ec:	1de8      	adds	r0, r5, #7
   250ee:	2224      	movs	r2, #36	@ 0x24
   250f0:	990d      	ldr	r1, [sp, #52]	@ 0x34
   250f2:	f001 fdd2 	bl	26c9a <__aeabi_memcpy>
   250f6:	4c05      	ldr	r4, [pc, #20]	@ (2510c <_start+0x1480>)
   250f8:	446c      	add	r4, sp
   250fa:	4620      	mov	r0, r4
   250fc:	4629      	mov	r1, r5
   250fe:	f7fd fac3 	bl	22688 <_ZN20complex_full_dynamic3app17ha77d01417b317be4E>
   25102:	7820      	ldrb	r0, [r4, #0]
   25104:	2801      	cmp	r0, #1
   25106:	d107      	bne.n	25118 <_start+0x148c>
   25108:	f7ff f925 	bl	24356 <_start+0x6ca>
   2510c:	0000140c 	.word	0x0000140c
   25110:	00000744 	.word	0x00000744
   25114:	000013b0 	.word	0x000013b0
   25118:	4817      	ldr	r0, [pc, #92]	@ (25178 <_start+0x14ec>)
   2511a:	4468      	add	r0, sp
   2511c:	78c1      	ldrb	r1, [r0, #3]
   2511e:	4d17      	ldr	r5, [pc, #92]	@ (2517c <_start+0x14f0>)
   25120:	446d      	add	r5, sp
   25122:	70a9      	strb	r1, [r5, #2]
   25124:	7841      	ldrb	r1, [r0, #1]
   25126:	7882      	ldrb	r2, [r0, #2]
   25128:	0212      	lsls	r2, r2, #8
   2512a:	1851      	adds	r1, r2, r1
   2512c:	8029      	strh	r1, [r5, #0]
   2512e:	3008      	adds	r0, #8
   25130:	9909      	ldr	r1, [sp, #36]	@ 0x24
   25132:	6e09      	ldr	r1, [r1, #96]	@ 0x60
   25134:	4b12      	ldr	r3, [pc, #72]	@ (25180 <_start+0x14f4>)
   25136:	446b      	add	r3, sp
   25138:	930d      	str	r3, [sp, #52]	@ 0x34
   2513a:	c850      	ldmia	r0!, {r4, r6}
   2513c:	c350      	stmia	r3!, {r4, r6}
   2513e:	c854      	ldmia	r0!, {r2, r4, r6}
   25140:	c354      	stmia	r3!, {r2, r4, r6}
   25142:	8802      	ldrh	r2, [r0, #0]
   25144:	801a      	strh	r2, [r3, #0]
   25146:	7880      	ldrb	r0, [r0, #2]
   25148:	7098      	strb	r0, [r3, #2]
   2514a:	0e08      	lsrs	r0, r1, #24
   2514c:	71a8      	strb	r0, [r5, #6]
   2514e:	0c08      	lsrs	r0, r1, #16
   25150:	7168      	strb	r0, [r5, #5]
   25152:	0a08      	lsrs	r0, r1, #8
   25154:	7128      	strb	r0, [r5, #4]
   25156:	70e9      	strb	r1, [r5, #3]
   25158:	1de8      	adds	r0, r5, #7
   2515a:	2217      	movs	r2, #23
   2515c:	990d      	ldr	r1, [sp, #52]	@ 0x34
   2515e:	f001 fd9c 	bl	26c9a <__aeabi_memcpy>
   25162:	4c05      	ldr	r4, [pc, #20]	@ (25178 <_start+0x14ec>)
   25164:	446c      	add	r4, sp
   25166:	4620      	mov	r0, r4
   25168:	4629      	mov	r1, r5
   2516a:	f7fd fef7 	bl	22f5c <_ZN20complex_full_dynamic3app17hd6a11962b568f98dE>
   2516e:	7820      	ldrb	r0, [r4, #0]
   25170:	2801      	cmp	r0, #1
   25172:	d107      	bne.n	25184 <_start+0x14f8>
   25174:	f7ff f8ef 	bl	24356 <_start+0x6ca>
   25178:	0000140c 	.word	0x0000140c
   2517c:	00000770 	.word	0x00000770
   25180:	000013b0 	.word	0x000013b0
   25184:	4915      	ldr	r1, [pc, #84]	@ (251dc <_start+0x1550>)
   25186:	4469      	add	r1, sp
   25188:	78c8      	ldrb	r0, [r1, #3]
   2518a:	4d15      	ldr	r5, [pc, #84]	@ (251e0 <_start+0x1554>)
   2518c:	446d      	add	r5, sp
   2518e:	70a8      	strb	r0, [r5, #2]
   25190:	7848      	ldrb	r0, [r1, #1]
   25192:	788a      	ldrb	r2, [r1, #2]
   25194:	0212      	lsls	r2, r2, #8
   25196:	1810      	adds	r0, r2, r0
   25198:	8028      	strh	r0, [r5, #0]
   2519a:	9809      	ldr	r0, [sp, #36]	@ 0x24
   2519c:	6e04      	ldr	r4, [r0, #96]	@ 0x60
   2519e:	3108      	adds	r1, #8
   251a0:	4810      	ldr	r0, [pc, #64]	@ (251e4 <_start+0x1558>)
   251a2:	4468      	add	r0, sp
   251a4:	900d      	str	r0, [sp, #52]	@ 0x34
   251a6:	264a      	movs	r6, #74	@ 0x4a
   251a8:	4632      	mov	r2, r6
   251aa:	f001 fc16 	bl	269da <__aeabi_memcpy4>
   251ae:	0e20      	lsrs	r0, r4, #24
   251b0:	71a8      	strb	r0, [r5, #6]
   251b2:	0c20      	lsrs	r0, r4, #16
   251b4:	7168      	strb	r0, [r5, #5]
   251b6:	0a20      	lsrs	r0, r4, #8
   251b8:	7128      	strb	r0, [r5, #4]
   251ba:	70ec      	strb	r4, [r5, #3]
   251bc:	1de8      	adds	r0, r5, #7
   251be:	990d      	ldr	r1, [sp, #52]	@ 0x34
   251c0:	4632      	mov	r2, r6
   251c2:	f001 fd6a 	bl	26c9a <__aeabi_memcpy>
   251c6:	4c05      	ldr	r4, [pc, #20]	@ (251dc <_start+0x1550>)
   251c8:	446c      	add	r4, sp
   251ca:	4620      	mov	r0, r4
   251cc:	4629      	mov	r1, r5
   251ce:	f7fd faff 	bl	227d0 <_ZN20complex_full_dynamic3app17haaf6efc0f9c77775E>
   251d2:	7820      	ldrb	r0, [r4, #0]
   251d4:	2801      	cmp	r0, #1
   251d6:	d107      	bne.n	251e8 <_start+0x155c>
   251d8:	f7ff f8bd 	bl	24356 <_start+0x6ca>
   251dc:	0000140c 	.word	0x0000140c
   251e0:	00000790 	.word	0x00000790
   251e4:	000013b0 	.word	0x000013b0
   251e8:	9807      	ldr	r0, [sp, #28]
   251ea:	1cc0      	adds	r0, r0, #3
   251ec:	4a16      	ldr	r2, [pc, #88]	@ (25248 <_start+0x15bc>)
   251ee:	446a      	add	r2, sp
   251f0:	78d3      	ldrb	r3, [r2, #3]
   251f2:	4916      	ldr	r1, [pc, #88]	@ (2524c <_start+0x15c0>)
   251f4:	4469      	add	r1, sp
   251f6:	708b      	strb	r3, [r1, #2]
   251f8:	7853      	ldrb	r3, [r2, #1]
   251fa:	7892      	ldrb	r2, [r2, #2]
   251fc:	0212      	lsls	r2, r2, #8
   251fe:	18d2      	adds	r2, r2, r3
   25200:	800a      	strh	r2, [r1, #0]
   25202:	9c09      	ldr	r4, [sp, #36]	@ 0x24
   25204:	3460      	adds	r4, #96	@ 0x60
   25206:	cc1c      	ldmia	r4, {r2, r3, r4}
   25208:	0e25      	lsrs	r5, r4, #24
   2520a:	72c5      	strb	r5, [r0, #11]
   2520c:	0c25      	lsrs	r5, r4, #16
   2520e:	7285      	strb	r5, [r0, #10]
   25210:	0a25      	lsrs	r5, r4, #8
   25212:	7245      	strb	r5, [r0, #9]
   25214:	7204      	strb	r4, [r0, #8]
   25216:	0e1c      	lsrs	r4, r3, #24
   25218:	71c4      	strb	r4, [r0, #7]
   2521a:	0c1c      	lsrs	r4, r3, #16
   2521c:	7184      	strb	r4, [r0, #6]
   2521e:	0a1c      	lsrs	r4, r3, #8
   25220:	7144      	strb	r4, [r0, #5]
   25222:	7103      	strb	r3, [r0, #4]
   25224:	0e13      	lsrs	r3, r2, #24
   25226:	70c3      	strb	r3, [r0, #3]
   25228:	0c13      	lsrs	r3, r2, #16
   2522a:	7083      	strb	r3, [r0, #2]
   2522c:	0a13      	lsrs	r3, r2, #8
   2522e:	7043      	strb	r3, [r0, #1]
   25230:	7002      	strb	r2, [r0, #0]
   25232:	4c05      	ldr	r4, [pc, #20]	@ (25248 <_start+0x15bc>)
   25234:	446c      	add	r4, sp
   25236:	4620      	mov	r0, r4
   25238:	f7fd fbbc 	bl	229b4 <_ZN20complex_full_dynamic3app17hb62ed2e1eae23dd5E>
   2523c:	7820      	ldrb	r0, [r4, #0]
   2523e:	2801      	cmp	r0, #1
   25240:	d106      	bne.n	25250 <_start+0x15c4>
   25242:	f7ff f888 	bl	24356 <_start+0x6ca>
   25246:	46c0      	nop			@ (mov r8, r8)
   25248:	0000140c 	.word	0x0000140c
   2524c:	000007e4 	.word	0x000007e4
   25250:	481a      	ldr	r0, [pc, #104]	@ (252bc <_start+0x1630>)
   25252:	4468      	add	r0, sp
   25254:	78c1      	ldrb	r1, [r0, #3]
   25256:	4d1a      	ldr	r5, [pc, #104]	@ (252c0 <_start+0x1634>)
   25258:	446d      	add	r5, sp
   2525a:	70a9      	strb	r1, [r5, #2]
   2525c:	7841      	ldrb	r1, [r0, #1]
   2525e:	7882      	ldrb	r2, [r0, #2]
   25260:	0212      	lsls	r2, r2, #8
   25262:	1851      	adds	r1, r2, r1
   25264:	8029      	strh	r1, [r5, #0]
   25266:	3008      	adds	r0, #8
   25268:	9909      	ldr	r1, [sp, #36]	@ 0x24
   2526a:	6e09      	ldr	r1, [r1, #96]	@ 0x60
   2526c:	910c      	str	r1, [sp, #48]	@ 0x30
   2526e:	4b15      	ldr	r3, [pc, #84]	@ (252c4 <_start+0x1638>)
   25270:	446b      	add	r3, sp
   25272:	930d      	str	r3, [sp, #52]	@ 0x34
   25274:	c854      	ldmia	r0!, {r2, r4, r6}
   25276:	c354      	stmia	r3!, {r2, r4, r6}
   25278:	c856      	ldmia	r0!, {r1, r2, r4, r6}
   2527a:	c356      	stmia	r3!, {r1, r2, r4, r6}
   2527c:	c856      	ldmia	r0!, {r1, r2, r4, r6}
   2527e:	c356      	stmia	r3!, {r1, r2, r4, r6}
   25280:	c856      	ldmia	r0!, {r1, r2, r4, r6}
   25282:	c356      	stmia	r3!, {r1, r2, r4, r6}
   25284:	8801      	ldrh	r1, [r0, #0]
   25286:	8019      	strh	r1, [r3, #0]
   25288:	7880      	ldrb	r0, [r0, #2]
   2528a:	7098      	strb	r0, [r3, #2]
   2528c:	990c      	ldr	r1, [sp, #48]	@ 0x30
   2528e:	0e08      	lsrs	r0, r1, #24
   25290:	71a8      	strb	r0, [r5, #6]
   25292:	0c08      	lsrs	r0, r1, #16
   25294:	7168      	strb	r0, [r5, #5]
   25296:	0a08      	lsrs	r0, r1, #8
   25298:	7128      	strb	r0, [r5, #4]
   2529a:	70e9      	strb	r1, [r5, #3]
   2529c:	1de8      	adds	r0, r5, #7
   2529e:	223f      	movs	r2, #63	@ 0x3f
   252a0:	990d      	ldr	r1, [sp, #52]	@ 0x34
   252a2:	f001 fcfa 	bl	26c9a <__aeabi_memcpy>
   252a6:	4c05      	ldr	r4, [pc, #20]	@ (252bc <_start+0x1630>)
   252a8:	446c      	add	r4, sp
   252aa:	4620      	mov	r0, r4
   252ac:	4629      	mov	r1, r5
   252ae:	f7fc faa5 	bl	217fc <_ZN20complex_full_dynamic3app17h54a9223e1406630dE>
   252b2:	7820      	ldrb	r0, [r4, #0]
   252b4:	2801      	cmp	r0, #1
   252b6:	d107      	bne.n	252c8 <_start+0x163c>
   252b8:	f7ff f84d 	bl	24356 <_start+0x6ca>
   252bc:	0000140c 	.word	0x0000140c
   252c0:	000007f4 	.word	0x000007f4
   252c4:	000013b0 	.word	0x000013b0
   252c8:	4915      	ldr	r1, [pc, #84]	@ (25320 <_start+0x1694>)
   252ca:	4469      	add	r1, sp
   252cc:	78c8      	ldrb	r0, [r1, #3]
   252ce:	4d15      	ldr	r5, [pc, #84]	@ (25324 <_start+0x1698>)
   252d0:	446d      	add	r5, sp
   252d2:	70a8      	strb	r0, [r5, #2]
   252d4:	7848      	ldrb	r0, [r1, #1]
   252d6:	788a      	ldrb	r2, [r1, #2]
   252d8:	0212      	lsls	r2, r2, #8
   252da:	1810      	adds	r0, r2, r0
   252dc:	8028      	strh	r0, [r5, #0]
   252de:	9809      	ldr	r0, [sp, #36]	@ 0x24
   252e0:	6e04      	ldr	r4, [r0, #96]	@ 0x60
   252e2:	3108      	adds	r1, #8
   252e4:	4810      	ldr	r0, [pc, #64]	@ (25328 <_start+0x169c>)
   252e6:	4468      	add	r0, sp
   252e8:	900d      	str	r0, [sp, #52]	@ 0x34
   252ea:	264f      	movs	r6, #79	@ 0x4f
   252ec:	4632      	mov	r2, r6
   252ee:	f001 fb74 	bl	269da <__aeabi_memcpy4>
   252f2:	0e20      	lsrs	r0, r4, #24
   252f4:	71a8      	strb	r0, [r5, #6]
   252f6:	0c20      	lsrs	r0, r4, #16
   252f8:	7168      	strb	r0, [r5, #5]
   252fa:	0a20      	lsrs	r0, r4, #8
   252fc:	7128      	strb	r0, [r5, #4]
   252fe:	70ec      	strb	r4, [r5, #3]
   25300:	1de8      	adds	r0, r5, #7
   25302:	990d      	ldr	r1, [sp, #52]	@ 0x34
   25304:	4632      	mov	r2, r6
   25306:	f001 fcc8 	bl	26c9a <__aeabi_memcpy>
   2530a:	4c05      	ldr	r4, [pc, #20]	@ (25320 <_start+0x1694>)
   2530c:	446c      	add	r4, sp
   2530e:	4620      	mov	r0, r4
   25310:	4629      	mov	r1, r5
   25312:	f7fc fd9b 	bl	21e4c <_ZN20complex_full_dynamic3app17h78a5548f7f04291bE>
   25316:	7820      	ldrb	r0, [r4, #0]
   25318:	2801      	cmp	r0, #1
   2531a:	d107      	bne.n	2532c <_start+0x16a0>
   2531c:	f7ff f81b 	bl	24356 <_start+0x6ca>
   25320:	0000140c 	.word	0x0000140c
   25324:	0000083c 	.word	0x0000083c
   25328:	000013b0 	.word	0x000013b0
   2532c:	4915      	ldr	r1, [pc, #84]	@ (25384 <_start+0x16f8>)
   2532e:	4469      	add	r1, sp
   25330:	78c8      	ldrb	r0, [r1, #3]
   25332:	4d15      	ldr	r5, [pc, #84]	@ (25388 <_start+0x16fc>)
   25334:	446d      	add	r5, sp
   25336:	70a8      	strb	r0, [r5, #2]
   25338:	7848      	ldrb	r0, [r1, #1]
   2533a:	788a      	ldrb	r2, [r1, #2]
   2533c:	0212      	lsls	r2, r2, #8
   2533e:	1810      	adds	r0, r2, r0
   25340:	8028      	strh	r0, [r5, #0]
   25342:	9809      	ldr	r0, [sp, #36]	@ 0x24
   25344:	6e04      	ldr	r4, [r0, #96]	@ 0x60
   25346:	3108      	adds	r1, #8
   25348:	4810      	ldr	r0, [pc, #64]	@ (2538c <_start+0x1700>)
   2534a:	4468      	add	r0, sp
   2534c:	900d      	str	r0, [sp, #52]	@ 0x34
   2534e:	2642      	movs	r6, #66	@ 0x42
   25350:	4632      	mov	r2, r6
   25352:	f001 fb42 	bl	269da <__aeabi_memcpy4>
   25356:	0e20      	lsrs	r0, r4, #24
   25358:	71a8      	strb	r0, [r5, #6]
   2535a:	0c20      	lsrs	r0, r4, #16
   2535c:	7168      	strb	r0, [r5, #5]
   2535e:	0a20      	lsrs	r0, r4, #8
   25360:	7128      	strb	r0, [r5, #4]
   25362:	70ec      	strb	r4, [r5, #3]
   25364:	1de8      	adds	r0, r5, #7
   25366:	990d      	ldr	r1, [sp, #52]	@ 0x34
   25368:	4632      	mov	r2, r6
   2536a:	f001 fc96 	bl	26c9a <__aeabi_memcpy>
   2536e:	4c05      	ldr	r4, [pc, #20]	@ (25384 <_start+0x16f8>)
   25370:	446c      	add	r4, sp
   25372:	4620      	mov	r0, r4
   25374:	4629      	mov	r1, r5
   25376:	f7fc fefd 	bl	22174 <_ZN20complex_full_dynamic3app17h8d03c3fc62ea41fcE>
   2537a:	7820      	ldrb	r0, [r4, #0]
   2537c:	2801      	cmp	r0, #1
   2537e:	d107      	bne.n	25390 <_start+0x1704>
   25380:	f7fe ffe9 	bl	24356 <_start+0x6ca>
   25384:	0000140c 	.word	0x0000140c
   25388:	00000894 	.word	0x00000894
   2538c:	000013b0 	.word	0x000013b0
   25390:	4816      	ldr	r0, [pc, #88]	@ (253ec <_start+0x1760>)
   25392:	4468      	add	r0, sp
   25394:	78c1      	ldrb	r1, [r0, #3]
   25396:	4d16      	ldr	r5, [pc, #88]	@ (253f0 <_start+0x1764>)
   25398:	446d      	add	r5, sp
   2539a:	70a9      	strb	r1, [r5, #2]
   2539c:	7841      	ldrb	r1, [r0, #1]
   2539e:	7882      	ldrb	r2, [r0, #2]
   253a0:	0212      	lsls	r2, r2, #8
   253a2:	1851      	adds	r1, r2, r1
   253a4:	8029      	strh	r1, [r5, #0]
   253a6:	3008      	adds	r0, #8
   253a8:	9909      	ldr	r1, [sp, #36]	@ 0x24
   253aa:	6e09      	ldr	r1, [r1, #96]	@ 0x60
   253ac:	910c      	str	r1, [sp, #48]	@ 0x30
   253ae:	4b11      	ldr	r3, [pc, #68]	@ (253f4 <_start+0x1768>)
   253b0:	446b      	add	r3, sp
   253b2:	930d      	str	r3, [sp, #52]	@ 0x34
   253b4:	c854      	ldmia	r0!, {r2, r4, r6}
   253b6:	c354      	stmia	r3!, {r2, r4, r6}
   253b8:	c856      	ldmia	r0!, {r1, r2, r4, r6}
   253ba:	c356      	stmia	r3!, {r1, r2, r4, r6}
   253bc:	990c      	ldr	r1, [sp, #48]	@ 0x30
   253be:	0e08      	lsrs	r0, r1, #24
   253c0:	71a8      	strb	r0, [r5, #6]
   253c2:	0c08      	lsrs	r0, r1, #16
   253c4:	7168      	strb	r0, [r5, #5]
   253c6:	0a08      	lsrs	r0, r1, #8
   253c8:	7128      	strb	r0, [r5, #4]
   253ca:	70e9      	strb	r1, [r5, #3]
   253cc:	1de8      	adds	r0, r5, #7
   253ce:	221c      	movs	r2, #28
   253d0:	990d      	ldr	r1, [sp, #52]	@ 0x34
   253d2:	f001 fc62 	bl	26c9a <__aeabi_memcpy>
   253d6:	4c05      	ldr	r4, [pc, #20]	@ (253ec <_start+0x1760>)
   253d8:	446c      	add	r4, sp
   253da:	4620      	mov	r0, r4
   253dc:	4629      	mov	r1, r5
   253de:	f7fd fe0d 	bl	22ffc <_ZN20complex_full_dynamic3app17hd943d9570bfa28baE>
   253e2:	7820      	ldrb	r0, [r4, #0]
   253e4:	2801      	cmp	r0, #1
   253e6:	d107      	bne.n	253f8 <_start+0x176c>
   253e8:	f7fe ffb5 	bl	24356 <_start+0x6ca>
   253ec:	0000140c 	.word	0x0000140c
   253f0:	000008e0 	.word	0x000008e0
   253f4:	000013b0 	.word	0x000013b0
   253f8:	4816      	ldr	r0, [pc, #88]	@ (25454 <_start+0x17c8>)
   253fa:	4468      	add	r0, sp
   253fc:	78c1      	ldrb	r1, [r0, #3]
   253fe:	4d16      	ldr	r5, [pc, #88]	@ (25458 <_start+0x17cc>)
   25400:	446d      	add	r5, sp
   25402:	70a9      	strb	r1, [r5, #2]
   25404:	7841      	ldrb	r1, [r0, #1]
   25406:	7882      	ldrb	r2, [r0, #2]
   25408:	0212      	lsls	r2, r2, #8
   2540a:	1851      	adds	r1, r2, r1
   2540c:	8029      	strh	r1, [r5, #0]
   2540e:	3008      	adds	r0, #8
   25410:	9909      	ldr	r1, [sp, #36]	@ 0x24
   25412:	6e09      	ldr	r1, [r1, #96]	@ 0x60
   25414:	4b11      	ldr	r3, [pc, #68]	@ (2545c <_start+0x17d0>)
   25416:	446b      	add	r3, sp
   25418:	930d      	str	r3, [sp, #52]	@ 0x34
   2541a:	c854      	ldmia	r0!, {r2, r4, r6}
   2541c:	c354      	stmia	r3!, {r2, r4, r6}
   2541e:	c854      	ldmia	r0!, {r2, r4, r6}
   25420:	c354      	stmia	r3!, {r2, r4, r6}
   25422:	c854      	ldmia	r0!, {r2, r4, r6}
   25424:	c354      	stmia	r3!, {r2, r4, r6}
   25426:	0e08      	lsrs	r0, r1, #24
   25428:	71a8      	strb	r0, [r5, #6]
   2542a:	0c08      	lsrs	r0, r1, #16
   2542c:	7168      	strb	r0, [r5, #5]
   2542e:	0a08      	lsrs	r0, r1, #8
   25430:	7128      	strb	r0, [r5, #4]
   25432:	70e9      	strb	r1, [r5, #3]
   25434:	1de8      	adds	r0, r5, #7
   25436:	2224      	movs	r2, #36	@ 0x24
   25438:	990d      	ldr	r1, [sp, #52]	@ 0x34
   2543a:	f001 fc2e 	bl	26c9a <__aeabi_memcpy>
   2543e:	4c05      	ldr	r4, [pc, #20]	@ (25454 <_start+0x17c8>)
   25440:	446c      	add	r4, sp
   25442:	4620      	mov	r0, r4
   25444:	4629      	mov	r1, r5
   25446:	f7fe f8ab 	bl	235a0 <_ZN20complex_full_dynamic3app17hec1d81dec661e80dE>
   2544a:	7820      	ldrb	r0, [r4, #0]
   2544c:	2801      	cmp	r0, #1
   2544e:	d107      	bne.n	25460 <_start+0x17d4>
   25450:	f7fe ff81 	bl	24356 <_start+0x6ca>
   25454:	0000140c 	.word	0x0000140c
   25458:	00000904 	.word	0x00000904
   2545c:	000013b0 	.word	0x000013b0
   25460:	4914      	ldr	r1, [pc, #80]	@ (254b4 <_start+0x1828>)
   25462:	4469      	add	r1, sp
   25464:	9b09      	ldr	r3, [sp, #36]	@ 0x24
   25466:	6e98      	ldr	r0, [r3, #104]	@ 0x68
   25468:	8088      	strh	r0, [r1, #4]
   2546a:	4813      	ldr	r0, [pc, #76]	@ (254b8 <_start+0x182c>)
   2546c:	4468      	add	r0, sp
   2546e:	78c2      	ldrb	r2, [r0, #3]
   25470:	4d12      	ldr	r5, [pc, #72]	@ (254bc <_start+0x1830>)
   25472:	446d      	add	r5, sp
   25474:	70aa      	strb	r2, [r5, #2]
   25476:	7842      	ldrb	r2, [r0, #1]
   25478:	7880      	ldrb	r0, [r0, #2]
   2547a:	0200      	lsls	r0, r0, #8
   2547c:	1880      	adds	r0, r0, r2
   2547e:	8028      	strh	r0, [r5, #0]
   25480:	6e18      	ldr	r0, [r3, #96]	@ 0x60
   25482:	70e8      	strb	r0, [r5, #3]
   25484:	0e02      	lsrs	r2, r0, #24
   25486:	71aa      	strb	r2, [r5, #6]
   25488:	0c02      	lsrs	r2, r0, #16
   2548a:	716a      	strb	r2, [r5, #5]
   2548c:	0a00      	lsrs	r0, r0, #8
   2548e:	7128      	strb	r0, [r5, #4]
   25490:	6e58      	ldr	r0, [r3, #100]	@ 0x64
   25492:	6018      	str	r0, [r3, #0]
   25494:	1de8      	adds	r0, r5, #7
   25496:	2206      	movs	r2, #6
   25498:	f001 fbff 	bl	26c9a <__aeabi_memcpy>
   2549c:	4c06      	ldr	r4, [pc, #24]	@ (254b8 <_start+0x182c>)
   2549e:	446c      	add	r4, sp
   254a0:	4620      	mov	r0, r4
   254a2:	4629      	mov	r1, r5
   254a4:	f7fd fad6 	bl	22a54 <_ZN20complex_full_dynamic3app17hb749aa2bad4d0873E>
   254a8:	7820      	ldrb	r0, [r4, #0]
   254aa:	2801      	cmp	r0, #1
   254ac:	d108      	bne.n	254c0 <_start+0x1834>
   254ae:	f7fe ff52 	bl	24356 <_start+0x6ca>
   254b2:	46c0      	nop			@ (mov r8, r8)
   254b4:	000013b0 	.word	0x000013b0
   254b8:	0000140c 	.word	0x0000140c
   254bc:	00000930 	.word	0x00000930
   254c0:	4816      	ldr	r0, [pc, #88]	@ (2551c <_start+0x1890>)
   254c2:	4468      	add	r0, sp
   254c4:	78c1      	ldrb	r1, [r0, #3]
   254c6:	4d16      	ldr	r5, [pc, #88]	@ (25520 <_start+0x1894>)
   254c8:	446d      	add	r5, sp
   254ca:	70a9      	strb	r1, [r5, #2]
   254cc:	7841      	ldrb	r1, [r0, #1]
   254ce:	7882      	ldrb	r2, [r0, #2]
   254d0:	0212      	lsls	r2, r2, #8
   254d2:	1851      	adds	r1, r2, r1
   254d4:	8029      	strh	r1, [r5, #0]
   254d6:	3008      	adds	r0, #8
   254d8:	9909      	ldr	r1, [sp, #36]	@ 0x24
   254da:	6e09      	ldr	r1, [r1, #96]	@ 0x60
   254dc:	4b11      	ldr	r3, [pc, #68]	@ (25524 <_start+0x1898>)
   254de:	446b      	add	r3, sp
   254e0:	930d      	str	r3, [sp, #52]	@ 0x34
   254e2:	c854      	ldmia	r0!, {r2, r4, r6}
   254e4:	c354      	stmia	r3!, {r2, r4, r6}
   254e6:	c854      	ldmia	r0!, {r2, r4, r6}
   254e8:	c354      	stmia	r3!, {r2, r4, r6}
   254ea:	8800      	ldrh	r0, [r0, #0]
   254ec:	8018      	strh	r0, [r3, #0]
   254ee:	0e08      	lsrs	r0, r1, #24
   254f0:	71a8      	strb	r0, [r5, #6]
   254f2:	0c08      	lsrs	r0, r1, #16
   254f4:	7168      	strb	r0, [r5, #5]
   254f6:	0a08      	lsrs	r0, r1, #8
   254f8:	7128      	strb	r0, [r5, #4]
   254fa:	70e9      	strb	r1, [r5, #3]
   254fc:	1de8      	adds	r0, r5, #7
   254fe:	221a      	movs	r2, #26
   25500:	990d      	ldr	r1, [sp, #52]	@ 0x34
   25502:	f001 fbca 	bl	26c9a <__aeabi_memcpy>
   25506:	4c05      	ldr	r4, [pc, #20]	@ (2551c <_start+0x1890>)
   25508:	446c      	add	r4, sp
   2550a:	4620      	mov	r0, r4
   2550c:	4629      	mov	r1, r5
   2550e:	f7fe fa7d 	bl	23a0c <_ZN20complex_full_dynamic3app17hfac021c0e798bc22E>
   25512:	7820      	ldrb	r0, [r4, #0]
   25514:	2801      	cmp	r0, #1
   25516:	d107      	bne.n	25528 <_start+0x189c>
   25518:	f7fe ff1d 	bl	24356 <_start+0x6ca>
   2551c:	0000140c 	.word	0x0000140c
   25520:	00000940 	.word	0x00000940
   25524:	000013b0 	.word	0x000013b0
   25528:	4915      	ldr	r1, [pc, #84]	@ (25580 <_start+0x18f4>)
   2552a:	4469      	add	r1, sp
   2552c:	78c8      	ldrb	r0, [r1, #3]
   2552e:	4d15      	ldr	r5, [pc, #84]	@ (25584 <_start+0x18f8>)
   25530:	446d      	add	r5, sp
   25532:	70a8      	strb	r0, [r5, #2]
   25534:	7848      	ldrb	r0, [r1, #1]
   25536:	788a      	ldrb	r2, [r1, #2]
   25538:	0212      	lsls	r2, r2, #8
   2553a:	1810      	adds	r0, r2, r0
   2553c:	8028      	strh	r0, [r5, #0]
   2553e:	9809      	ldr	r0, [sp, #36]	@ 0x24
   25540:	6e04      	ldr	r4, [r0, #96]	@ 0x60
   25542:	3108      	adds	r1, #8
   25544:	4810      	ldr	r0, [pc, #64]	@ (25588 <_start+0x18fc>)
   25546:	4468      	add	r0, sp
   25548:	900d      	str	r0, [sp, #52]	@ 0x34
   2554a:	264c      	movs	r6, #76	@ 0x4c
   2554c:	4632      	mov	r2, r6
   2554e:	f001 fa44 	bl	269da <__aeabi_memcpy4>
   25552:	0e20      	lsrs	r0, r4, #24
   25554:	71a8      	strb	r0, [r5, #6]
   25556:	0c20      	lsrs	r0, r4, #16
   25558:	7168      	strb	r0, [r5, #5]
   2555a:	0a20      	lsrs	r0, r4, #8
   2555c:	7128      	strb	r0, [r5, #4]
   2555e:	70ec      	strb	r4, [r5, #3]
   25560:	1de8      	adds	r0, r5, #7
   25562:	990d      	ldr	r1, [sp, #52]	@ 0x34
   25564:	4632      	mov	r2, r6
   25566:	f001 fb98 	bl	26c9a <__aeabi_memcpy>
   2556a:	4c05      	ldr	r4, [pc, #20]	@ (25580 <_start+0x18f4>)
   2556c:	446c      	add	r4, sp
   2556e:	4620      	mov	r0, r4
   25570:	4629      	mov	r1, r5
   25572:	f7fd f9cd 	bl	22910 <_ZN20complex_full_dynamic3app17hae2d2752db8ac2b0E>
   25576:	7820      	ldrb	r0, [r4, #0]
   25578:	2801      	cmp	r0, #1
   2557a:	d107      	bne.n	2558c <_start+0x1900>
   2557c:	f7fe feeb 	bl	24356 <_start+0x6ca>
   25580:	0000140c 	.word	0x0000140c
   25584:	00000964 	.word	0x00000964
   25588:	000013b0 	.word	0x000013b0
   2558c:	4915      	ldr	r1, [pc, #84]	@ (255e4 <_start+0x1958>)
   2558e:	4469      	add	r1, sp
   25590:	78c8      	ldrb	r0, [r1, #3]
   25592:	4d15      	ldr	r5, [pc, #84]	@ (255e8 <_start+0x195c>)
   25594:	446d      	add	r5, sp
   25596:	70a8      	strb	r0, [r5, #2]
   25598:	7848      	ldrb	r0, [r1, #1]
   2559a:	788a      	ldrb	r2, [r1, #2]
   2559c:	0212      	lsls	r2, r2, #8
   2559e:	1810      	adds	r0, r2, r0
   255a0:	8028      	strh	r0, [r5, #0]
   255a2:	9809      	ldr	r0, [sp, #36]	@ 0x24
   255a4:	6e04      	ldr	r4, [r0, #96]	@ 0x60
   255a6:	3108      	adds	r1, #8
   255a8:	4810      	ldr	r0, [pc, #64]	@ (255ec <_start+0x1960>)
   255aa:	4468      	add	r0, sp
   255ac:	900d      	str	r0, [sp, #52]	@ 0x34
   255ae:	2646      	movs	r6, #70	@ 0x46
   255b0:	4632      	mov	r2, r6
   255b2:	f001 fa12 	bl	269da <__aeabi_memcpy4>
   255b6:	0e20      	lsrs	r0, r4, #24
   255b8:	71a8      	strb	r0, [r5, #6]
   255ba:	0c20      	lsrs	r0, r4, #16
   255bc:	7168      	strb	r0, [r5, #5]
   255be:	0a20      	lsrs	r0, r4, #8
   255c0:	7128      	strb	r0, [r5, #4]
   255c2:	70ec      	strb	r4, [r5, #3]
   255c4:	1de8      	adds	r0, r5, #7
   255c6:	990d      	ldr	r1, [sp, #52]	@ 0x34
   255c8:	4632      	mov	r2, r6
   255ca:	f001 fb66 	bl	26c9a <__aeabi_memcpy>
   255ce:	4c05      	ldr	r4, [pc, #20]	@ (255e4 <_start+0x1958>)
   255d0:	446c      	add	r4, sp
   255d2:	4620      	mov	r0, r4
   255d4:	4629      	mov	r1, r5
   255d6:	f7fc fb97 	bl	21d08 <_ZN20complex_full_dynamic3app17h7403b5eebdfcf08dE>
   255da:	7820      	ldrb	r0, [r4, #0]
   255dc:	2801      	cmp	r0, #1
   255de:	d107      	bne.n	255f0 <_start+0x1964>
   255e0:	f7fe feb9 	bl	24356 <_start+0x6ca>
   255e4:	0000140c 	.word	0x0000140c
   255e8:	000009b8 	.word	0x000009b8
   255ec:	000013b0 	.word	0x000013b0
   255f0:	4819      	ldr	r0, [pc, #100]	@ (25658 <_start+0x19cc>)
   255f2:	4468      	add	r0, sp
   255f4:	78c1      	ldrb	r1, [r0, #3]
   255f6:	4d19      	ldr	r5, [pc, #100]	@ (2565c <_start+0x19d0>)
   255f8:	446d      	add	r5, sp
   255fa:	70a9      	strb	r1, [r5, #2]
   255fc:	7841      	ldrb	r1, [r0, #1]
   255fe:	7882      	ldrb	r2, [r0, #2]
   25600:	0212      	lsls	r2, r2, #8
   25602:	1851      	adds	r1, r2, r1
   25604:	8029      	strh	r1, [r5, #0]
   25606:	3008      	adds	r0, #8
   25608:	9909      	ldr	r1, [sp, #36]	@ 0x24
   2560a:	6e09      	ldr	r1, [r1, #96]	@ 0x60
   2560c:	910c      	str	r1, [sp, #48]	@ 0x30
   2560e:	4b14      	ldr	r3, [pc, #80]	@ (25660 <_start+0x19d4>)
   25610:	446b      	add	r3, sp
   25612:	930d      	str	r3, [sp, #52]	@ 0x34
   25614:	c854      	ldmia	r0!, {r2, r4, r6}
   25616:	c354      	stmia	r3!, {r2, r4, r6}
   25618:	c854      	ldmia	r0!, {r2, r4, r6}
   2561a:	c354      	stmia	r3!, {r2, r4, r6}
   2561c:	c854      	ldmia	r0!, {r2, r4, r6}
   2561e:	c354      	stmia	r3!, {r2, r4, r6}
   25620:	c856      	ldmia	r0!, {r1, r2, r4, r6}
   25622:	c356      	stmia	r3!, {r1, r2, r4, r6}
   25624:	7800      	ldrb	r0, [r0, #0]
   25626:	7018      	strb	r0, [r3, #0]
   25628:	990c      	ldr	r1, [sp, #48]	@ 0x30
   2562a:	0e08      	lsrs	r0, r1, #24
   2562c:	71a8      	strb	r0, [r5, #6]
   2562e:	0c08      	lsrs	r0, r1, #16
   25630:	7168      	strb	r0, [r5, #5]
   25632:	0a08      	lsrs	r0, r1, #8
   25634:	7128      	strb	r0, [r5, #4]
   25636:	70e9      	strb	r1, [r5, #3]
   25638:	1de8      	adds	r0, r5, #7
   2563a:	2235      	movs	r2, #53	@ 0x35
   2563c:	990d      	ldr	r1, [sp, #52]	@ 0x34
   2563e:	f001 fb2c 	bl	26c9a <__aeabi_memcpy>
   25642:	4c05      	ldr	r4, [pc, #20]	@ (25658 <_start+0x19cc>)
   25644:	446c      	add	r4, sp
   25646:	4620      	mov	r0, r4
   25648:	4629      	mov	r1, r5
   2564a:	f7fd ff09 	bl	23460 <_ZN20complex_full_dynamic3app17hea82cedb61a0b421E>
   2564e:	7820      	ldrb	r0, [r4, #0]
   25650:	2801      	cmp	r0, #1
   25652:	d107      	bne.n	25664 <_start+0x19d8>
   25654:	f7fe fe7f 	bl	24356 <_start+0x6ca>
   25658:	0000140c 	.word	0x0000140c
   2565c:	00000a08 	.word	0x00000a08
   25660:	000013b0 	.word	0x000013b0
   25664:	4818      	ldr	r0, [pc, #96]	@ (256c8 <_start+0x1a3c>)
   25666:	4468      	add	r0, sp
   25668:	78c1      	ldrb	r1, [r0, #3]
   2566a:	4d18      	ldr	r5, [pc, #96]	@ (256cc <_start+0x1a40>)
   2566c:	446d      	add	r5, sp
   2566e:	70a9      	strb	r1, [r5, #2]
   25670:	7841      	ldrb	r1, [r0, #1]
   25672:	7882      	ldrb	r2, [r0, #2]
   25674:	0212      	lsls	r2, r2, #8
   25676:	1851      	adds	r1, r2, r1
   25678:	8029      	strh	r1, [r5, #0]
   2567a:	3008      	adds	r0, #8
   2567c:	9909      	ldr	r1, [sp, #36]	@ 0x24
   2567e:	6e09      	ldr	r1, [r1, #96]	@ 0x60
   25680:	910c      	str	r1, [sp, #48]	@ 0x30
   25682:	4b13      	ldr	r3, [pc, #76]	@ (256d0 <_start+0x1a44>)
   25684:	446b      	add	r3, sp
   25686:	930d      	str	r3, [sp, #52]	@ 0x34
   25688:	c856      	ldmia	r0!, {r1, r2, r4, r6}
   2568a:	c356      	stmia	r3!, {r1, r2, r4, r6}
   2568c:	c856      	ldmia	r0!, {r1, r2, r4, r6}
   2568e:	c356      	stmia	r3!, {r1, r2, r4, r6}
   25690:	c856      	ldmia	r0!, {r1, r2, r4, r6}
   25692:	c356      	stmia	r3!, {r1, r2, r4, r6}
   25694:	7800      	ldrb	r0, [r0, #0]
   25696:	7018      	strb	r0, [r3, #0]
   25698:	990c      	ldr	r1, [sp, #48]	@ 0x30
   2569a:	0e08      	lsrs	r0, r1, #24
   2569c:	71a8      	strb	r0, [r5, #6]
   2569e:	0c08      	lsrs	r0, r1, #16
   256a0:	7168      	strb	r0, [r5, #5]
   256a2:	0a08      	lsrs	r0, r1, #8
   256a4:	7128      	strb	r0, [r5, #4]
   256a6:	70e9      	strb	r1, [r5, #3]
   256a8:	1de8      	adds	r0, r5, #7
   256aa:	2231      	movs	r2, #49	@ 0x31
   256ac:	990d      	ldr	r1, [sp, #52]	@ 0x34
   256ae:	f001 faf4 	bl	26c9a <__aeabi_memcpy>
   256b2:	4c05      	ldr	r4, [pc, #20]	@ (256c8 <_start+0x1a3c>)
   256b4:	446c      	add	r4, sp
   256b6:	4620      	mov	r0, r4
   256b8:	4629      	mov	r1, r5
   256ba:	f7fe f957 	bl	2396c <_ZN20complex_full_dynamic3app17hfa76b94559659bc3E>
   256be:	7820      	ldrb	r0, [r4, #0]
   256c0:	2801      	cmp	r0, #1
   256c2:	d107      	bne.n	256d4 <_start+0x1a48>
   256c4:	f7fe fe47 	bl	24356 <_start+0x6ca>
   256c8:	0000140c 	.word	0x0000140c
   256cc:	00000a44 	.word	0x00000a44
   256d0:	000013b0 	.word	0x000013b0
   256d4:	4816      	ldr	r0, [pc, #88]	@ (25730 <_start+0x1aa4>)
   256d6:	4468      	add	r0, sp
   256d8:	78c1      	ldrb	r1, [r0, #3]
   256da:	4d16      	ldr	r5, [pc, #88]	@ (25734 <_start+0x1aa8>)
   256dc:	446d      	add	r5, sp
   256de:	70a9      	strb	r1, [r5, #2]
   256e0:	7841      	ldrb	r1, [r0, #1]
   256e2:	7882      	ldrb	r2, [r0, #2]
   256e4:	0212      	lsls	r2, r2, #8
   256e6:	1851      	adds	r1, r2, r1
   256e8:	8029      	strh	r1, [r5, #0]
   256ea:	3008      	adds	r0, #8
   256ec:	9909      	ldr	r1, [sp, #36]	@ 0x24
   256ee:	6e09      	ldr	r1, [r1, #96]	@ 0x60
   256f0:	910c      	str	r1, [sp, #48]	@ 0x30
   256f2:	4b11      	ldr	r3, [pc, #68]	@ (25738 <_start+0x1aac>)
   256f4:	446b      	add	r3, sp
   256f6:	930d      	str	r3, [sp, #52]	@ 0x34
   256f8:	c856      	ldmia	r0!, {r1, r2, r4, r6}
   256fa:	c356      	stmia	r3!, {r1, r2, r4, r6}
   256fc:	c856      	ldmia	r0!, {r1, r2, r4, r6}
   256fe:	c356      	stmia	r3!, {r1, r2, r4, r6}
   25700:	990c      	ldr	r1, [sp, #48]	@ 0x30
   25702:	0e08      	lsrs	r0, r1, #24
   25704:	71a8      	strb	r0, [r5, #6]
   25706:	0c08      	lsrs	r0, r1, #16
   25708:	7168      	strb	r0, [r5, #5]
   2570a:	0a08      	lsrs	r0, r1, #8
   2570c:	7128      	strb	r0, [r5, #4]
   2570e:	70e9      	strb	r1, [r5, #3]
   25710:	1de8      	adds	r0, r5, #7
   25712:	2220      	movs	r2, #32
   25714:	990d      	ldr	r1, [sp, #52]	@ 0x34
   25716:	f001 fac0 	bl	26c9a <__aeabi_memcpy>
   2571a:	4c05      	ldr	r4, [pc, #20]	@ (25730 <_start+0x1aa4>)
   2571c:	446c      	add	r4, sp
   2571e:	4620      	mov	r0, r4
   25720:	4629      	mov	r1, r5
   25722:	f7fb fca1 	bl	21068 <_ZN20complex_full_dynamic3app17h357d36480e3c5993E>
   25726:	7820      	ldrb	r0, [r4, #0]
   25728:	2801      	cmp	r0, #1
   2572a:	d107      	bne.n	2573c <_start+0x1ab0>
   2572c:	f7fe fe13 	bl	24356 <_start+0x6ca>
   25730:	0000140c 	.word	0x0000140c
   25734:	00000a7c 	.word	0x00000a7c
   25738:	000013b0 	.word	0x000013b0
   2573c:	4915      	ldr	r1, [pc, #84]	@ (25794 <_start+0x1b08>)
   2573e:	4469      	add	r1, sp
   25740:	78c8      	ldrb	r0, [r1, #3]
   25742:	4d15      	ldr	r5, [pc, #84]	@ (25798 <_start+0x1b0c>)
   25744:	446d      	add	r5, sp
   25746:	70a8      	strb	r0, [r5, #2]
   25748:	7848      	ldrb	r0, [r1, #1]
   2574a:	788a      	ldrb	r2, [r1, #2]
   2574c:	0212      	lsls	r2, r2, #8
   2574e:	1810      	adds	r0, r2, r0
   25750:	8028      	strh	r0, [r5, #0]
   25752:	9809      	ldr	r0, [sp, #36]	@ 0x24
   25754:	6e04      	ldr	r4, [r0, #96]	@ 0x60
   25756:	3108      	adds	r1, #8
   25758:	4810      	ldr	r0, [pc, #64]	@ (2579c <_start+0x1b10>)
   2575a:	4468      	add	r0, sp
   2575c:	900d      	str	r0, [sp, #52]	@ 0x34
   2575e:	264a      	movs	r6, #74	@ 0x4a
   25760:	4632      	mov	r2, r6
   25762:	f001 f93a 	bl	269da <__aeabi_memcpy4>
   25766:	0e20      	lsrs	r0, r4, #24
   25768:	71a8      	strb	r0, [r5, #6]
   2576a:	0c20      	lsrs	r0, r4, #16
   2576c:	7168      	strb	r0, [r5, #5]
   2576e:	0a20      	lsrs	r0, r4, #8
   25770:	7128      	strb	r0, [r5, #4]
   25772:	70ec      	strb	r4, [r5, #3]
   25774:	1de8      	adds	r0, r5, #7
   25776:	990d      	ldr	r1, [sp, #52]	@ 0x34
   25778:	4632      	mov	r2, r6
   2577a:	f001 fa8e 	bl	26c9a <__aeabi_memcpy>
   2577e:	4c05      	ldr	r4, [pc, #20]	@ (25794 <_start+0x1b08>)
   25780:	446c      	add	r4, sp
   25782:	4620      	mov	r0, r4
   25784:	4629      	mov	r1, r5
   25786:	f7fd fd7b 	bl	23280 <_ZN20complex_full_dynamic3app17hdf74a58a521655bcE>
   2578a:	7820      	ldrb	r0, [r4, #0]
   2578c:	2801      	cmp	r0, #1
   2578e:	d107      	bne.n	257a0 <_start+0x1b14>
   25790:	f7fe fde1 	bl	24356 <_start+0x6ca>
   25794:	0000140c 	.word	0x0000140c
   25798:	00000aa4 	.word	0x00000aa4
   2579c:	000013b0 	.word	0x000013b0
   257a0:	4915      	ldr	r1, [pc, #84]	@ (257f8 <_start+0x1b6c>)
   257a2:	4469      	add	r1, sp
   257a4:	78c8      	ldrb	r0, [r1, #3]
   257a6:	4d15      	ldr	r5, [pc, #84]	@ (257fc <_start+0x1b70>)
   257a8:	446d      	add	r5, sp
   257aa:	70a8      	strb	r0, [r5, #2]
   257ac:	7848      	ldrb	r0, [r1, #1]
   257ae:	788a      	ldrb	r2, [r1, #2]
   257b0:	0212      	lsls	r2, r2, #8
   257b2:	1810      	adds	r0, r2, r0
   257b4:	8028      	strh	r0, [r5, #0]
   257b6:	9809      	ldr	r0, [sp, #36]	@ 0x24
   257b8:	6e04      	ldr	r4, [r0, #96]	@ 0x60
   257ba:	3108      	adds	r1, #8
   257bc:	4810      	ldr	r0, [pc, #64]	@ (25800 <_start+0x1b74>)
   257be:	4468      	add	r0, sp
   257c0:	900d      	str	r0, [sp, #52]	@ 0x34
   257c2:	2648      	movs	r6, #72	@ 0x48
   257c4:	4632      	mov	r2, r6
   257c6:	f001 f908 	bl	269da <__aeabi_memcpy4>
   257ca:	0e20      	lsrs	r0, r4, #24
   257cc:	71a8      	strb	r0, [r5, #6]
   257ce:	0c20      	lsrs	r0, r4, #16
   257d0:	7168      	strb	r0, [r5, #5]
   257d2:	0a20      	lsrs	r0, r4, #8
   257d4:	7128      	strb	r0, [r5, #4]
   257d6:	70ec      	strb	r4, [r5, #3]
   257d8:	1de8      	adds	r0, r5, #7
   257da:	990d      	ldr	r1, [sp, #52]	@ 0x34
   257dc:	4632      	mov	r2, r6
   257de:	f001 fa5c 	bl	26c9a <__aeabi_memcpy>
   257e2:	4c05      	ldr	r4, [pc, #20]	@ (257f8 <_start+0x1b6c>)
   257e4:	446c      	add	r4, sp
   257e6:	4620      	mov	r0, r4
   257e8:	4629      	mov	r1, r5
   257ea:	f7fc fc21 	bl	22030 <_ZN20complex_full_dynamic3app17h86bdc0a1539d38e1E>
   257ee:	7820      	ldrb	r0, [r4, #0]
   257f0:	2801      	cmp	r0, #1
   257f2:	d107      	bne.n	25804 <_start+0x1b78>
   257f4:	f7fe fdaf 	bl	24356 <_start+0x6ca>
   257f8:	0000140c 	.word	0x0000140c
   257fc:	00000af8 	.word	0x00000af8
   25800:	000013b0 	.word	0x000013b0
   25804:	4915      	ldr	r1, [pc, #84]	@ (2585c <_start+0x1bd0>)
   25806:	4469      	add	r1, sp
   25808:	78c8      	ldrb	r0, [r1, #3]
   2580a:	4d15      	ldr	r5, [pc, #84]	@ (25860 <_start+0x1bd4>)
   2580c:	446d      	add	r5, sp
   2580e:	70a8      	strb	r0, [r5, #2]
   25810:	7848      	ldrb	r0, [r1, #1]
   25812:	788a      	ldrb	r2, [r1, #2]
   25814:	0212      	lsls	r2, r2, #8
   25816:	1810      	adds	r0, r2, r0
   25818:	8028      	strh	r0, [r5, #0]
   2581a:	9809      	ldr	r0, [sp, #36]	@ 0x24
   2581c:	6e04      	ldr	r4, [r0, #96]	@ 0x60
   2581e:	3108      	adds	r1, #8
   25820:	4810      	ldr	r0, [pc, #64]	@ (25864 <_start+0x1bd8>)
   25822:	4468      	add	r0, sp
   25824:	900d      	str	r0, [sp, #52]	@ 0x34
   25826:	265a      	movs	r6, #90	@ 0x5a
   25828:	4632      	mov	r2, r6
   2582a:	f001 f8d6 	bl	269da <__aeabi_memcpy4>
   2582e:	0e20      	lsrs	r0, r4, #24
   25830:	71a8      	strb	r0, [r5, #6]
   25832:	0c20      	lsrs	r0, r4, #16
   25834:	7168      	strb	r0, [r5, #5]
   25836:	0a20      	lsrs	r0, r4, #8
   25838:	7128      	strb	r0, [r5, #4]
   2583a:	70ec      	strb	r4, [r5, #3]
   2583c:	1de8      	adds	r0, r5, #7
   2583e:	990d      	ldr	r1, [sp, #52]	@ 0x34
   25840:	4632      	mov	r2, r6
   25842:	f001 fa2a 	bl	26c9a <__aeabi_memcpy>
   25846:	4c05      	ldr	r4, [pc, #20]	@ (2585c <_start+0x1bd0>)
   25848:	446c      	add	r4, sp
   2584a:	4620      	mov	r0, r4
   2584c:	4629      	mov	r1, r5
   2584e:	f7fd ff49 	bl	236e4 <_ZN20complex_full_dynamic3app17hed6b4048ac8db5baE>
   25852:	7820      	ldrb	r0, [r4, #0]
   25854:	2801      	cmp	r0, #1
   25856:	d107      	bne.n	25868 <_start+0x1bdc>
   25858:	f7fe fd7d 	bl	24356 <_start+0x6ca>
   2585c:	0000140c 	.word	0x0000140c
   25860:	00000b48 	.word	0x00000b48
   25864:	000013b0 	.word	0x000013b0
   25868:	4817      	ldr	r0, [pc, #92]	@ (258c8 <_start+0x1c3c>)
   2586a:	4468      	add	r0, sp
   2586c:	78c1      	ldrb	r1, [r0, #3]
   2586e:	4d17      	ldr	r5, [pc, #92]	@ (258cc <_start+0x1c40>)
   25870:	446d      	add	r5, sp
   25872:	70a9      	strb	r1, [r5, #2]
   25874:	7841      	ldrb	r1, [r0, #1]
   25876:	7882      	ldrb	r2, [r0, #2]
   25878:	0212      	lsls	r2, r2, #8
   2587a:	1851      	adds	r1, r2, r1
   2587c:	8029      	strh	r1, [r5, #0]
   2587e:	3008      	adds	r0, #8
   25880:	9909      	ldr	r1, [sp, #36]	@ 0x24
   25882:	6e09      	ldr	r1, [r1, #96]	@ 0x60
   25884:	4b12      	ldr	r3, [pc, #72]	@ (258d0 <_start+0x1c44>)
   25886:	446b      	add	r3, sp
   25888:	930d      	str	r3, [sp, #52]	@ 0x34
   2588a:	c850      	ldmia	r0!, {r4, r6}
   2588c:	c350      	stmia	r3!, {r4, r6}
   2588e:	c854      	ldmia	r0!, {r2, r4, r6}
   25890:	c354      	stmia	r3!, {r2, r4, r6}
   25892:	8802      	ldrh	r2, [r0, #0]
   25894:	801a      	strh	r2, [r3, #0]
   25896:	7880      	ldrb	r0, [r0, #2]
   25898:	7098      	strb	r0, [r3, #2]
   2589a:	0e08      	lsrs	r0, r1, #24
   2589c:	71a8      	strb	r0, [r5, #6]
   2589e:	0c08      	lsrs	r0, r1, #16
   258a0:	7168      	strb	r0, [r5, #5]
   258a2:	0a08      	lsrs	r0, r1, #8
   258a4:	7128      	strb	r0, [r5, #4]
   258a6:	70e9      	strb	r1, [r5, #3]
   258a8:	1de8      	adds	r0, r5, #7
   258aa:	2217      	movs	r2, #23
   258ac:	990d      	ldr	r1, [sp, #52]	@ 0x34
   258ae:	f001 f9f4 	bl	26c9a <__aeabi_memcpy>
   258b2:	4c05      	ldr	r4, [pc, #20]	@ (258c8 <_start+0x1c3c>)
   258b4:	446c      	add	r4, sp
   258b6:	4620      	mov	r0, r4
   258b8:	4629      	mov	r1, r5
   258ba:	f7fe f805 	bl	238c8 <_ZN20complex_full_dynamic3app17hfa4e41ac427ea6f8E>
   258be:	7820      	ldrb	r0, [r4, #0]
   258c0:	2801      	cmp	r0, #1
   258c2:	d107      	bne.n	258d4 <_start+0x1c48>
   258c4:	f7fe fd47 	bl	24356 <_start+0x6ca>
   258c8:	0000140c 	.word	0x0000140c
   258cc:	00000bac 	.word	0x00000bac
   258d0:	000013b0 	.word	0x000013b0
   258d4:	4816      	ldr	r0, [pc, #88]	@ (25930 <_start+0x1ca4>)
   258d6:	4468      	add	r0, sp
   258d8:	78c1      	ldrb	r1, [r0, #3]
   258da:	4d16      	ldr	r5, [pc, #88]	@ (25934 <_start+0x1ca8>)
   258dc:	446d      	add	r5, sp
   258de:	70a9      	strb	r1, [r5, #2]
   258e0:	7841      	ldrb	r1, [r0, #1]
   258e2:	7882      	ldrb	r2, [r0, #2]
   258e4:	0212      	lsls	r2, r2, #8
   258e6:	1851      	adds	r1, r2, r1
   258e8:	8029      	strh	r1, [r5, #0]
   258ea:	3008      	adds	r0, #8
   258ec:	9909      	ldr	r1, [sp, #36]	@ 0x24
   258ee:	6e09      	ldr	r1, [r1, #96]	@ 0x60
   258f0:	4b11      	ldr	r3, [pc, #68]	@ (25938 <_start+0x1cac>)
   258f2:	446b      	add	r3, sp
   258f4:	930d      	str	r3, [sp, #52]	@ 0x34
   258f6:	c854      	ldmia	r0!, {r2, r4, r6}
   258f8:	c354      	stmia	r3!, {r2, r4, r6}
   258fa:	c854      	ldmia	r0!, {r2, r4, r6}
   258fc:	c354      	stmia	r3!, {r2, r4, r6}
   258fe:	8800      	ldrh	r0, [r0, #0]
   25900:	8018      	strh	r0, [r3, #0]
   25902:	0e08      	lsrs	r0, r1, #24
   25904:	71a8      	strb	r0, [r5, #6]
   25906:	0c08      	lsrs	r0, r1, #16
   25908:	7168      	strb	r0, [r5, #5]
   2590a:	0a08      	lsrs	r0, r1, #8
   2590c:	7128      	strb	r0, [r5, #4]
   2590e:	70e9      	strb	r1, [r5, #3]
   25910:	1de8      	adds	r0, r5, #7
   25912:	221a      	movs	r2, #26
   25914:	990d      	ldr	r1, [sp, #52]	@ 0x34
   25916:	f001 f9c0 	bl	26c9a <__aeabi_memcpy>
   2591a:	4c05      	ldr	r4, [pc, #20]	@ (25930 <_start+0x1ca4>)
   2591c:	446c      	add	r4, sp
   2591e:	4620      	mov	r0, r4
   25920:	4629      	mov	r1, r5
   25922:	f7fb f919 	bl	20b58 <_ZN20complex_full_dynamic3app17h1ec6e1974530991bE>
   25926:	7820      	ldrb	r0, [r4, #0]
   25928:	2801      	cmp	r0, #1
   2592a:	d107      	bne.n	2593c <_start+0x1cb0>
   2592c:	f7fe fd13 	bl	24356 <_start+0x6ca>
   25930:	0000140c 	.word	0x0000140c
   25934:	00000bcc 	.word	0x00000bcc
   25938:	000013b0 	.word	0x000013b0
   2593c:	4818      	ldr	r0, [pc, #96]	@ (259a0 <_start+0x1d14>)
   2593e:	4468      	add	r0, sp
   25940:	78c1      	ldrb	r1, [r0, #3]
   25942:	4d18      	ldr	r5, [pc, #96]	@ (259a4 <_start+0x1d18>)
   25944:	446d      	add	r5, sp
   25946:	70a9      	strb	r1, [r5, #2]
   25948:	7841      	ldrb	r1, [r0, #1]
   2594a:	7882      	ldrb	r2, [r0, #2]
   2594c:	0212      	lsls	r2, r2, #8
   2594e:	1851      	adds	r1, r2, r1
   25950:	8029      	strh	r1, [r5, #0]
   25952:	3008      	adds	r0, #8
   25954:	9909      	ldr	r1, [sp, #36]	@ 0x24
   25956:	6e09      	ldr	r1, [r1, #96]	@ 0x60
   25958:	910c      	str	r1, [sp, #48]	@ 0x30
   2595a:	4b13      	ldr	r3, [pc, #76]	@ (259a8 <_start+0x1d1c>)
   2595c:	446b      	add	r3, sp
   2595e:	930d      	str	r3, [sp, #52]	@ 0x34
   25960:	c856      	ldmia	r0!, {r1, r2, r4, r6}
   25962:	c356      	stmia	r3!, {r1, r2, r4, r6}
   25964:	c856      	ldmia	r0!, {r1, r2, r4, r6}
   25966:	c356      	stmia	r3!, {r1, r2, r4, r6}
   25968:	8801      	ldrh	r1, [r0, #0]
   2596a:	8019      	strh	r1, [r3, #0]
   2596c:	7880      	ldrb	r0, [r0, #2]
   2596e:	7098      	strb	r0, [r3, #2]
   25970:	990c      	ldr	r1, [sp, #48]	@ 0x30
   25972:	0e08      	lsrs	r0, r1, #24
   25974:	71a8      	strb	r0, [r5, #6]
   25976:	0c08      	lsrs	r0, r1, #16
   25978:	7168      	strb	r0, [r5, #5]
   2597a:	0a08      	lsrs	r0, r1, #8
   2597c:	7128      	strb	r0, [r5, #4]
   2597e:	70e9      	strb	r1, [r5, #3]
   25980:	1de8      	adds	r0, r5, #7
   25982:	2223      	movs	r2, #35	@ 0x23
   25984:	990d      	ldr	r1, [sp, #52]	@ 0x34
   25986:	f001 f988 	bl	26c9a <__aeabi_memcpy>
   2598a:	4c05      	ldr	r4, [pc, #20]	@ (259a0 <_start+0x1d14>)
   2598c:	446c      	add	r4, sp
   2598e:	4620      	mov	r0, r4
   25990:	4629      	mov	r1, r5
   25992:	f7fc fe29 	bl	225e8 <_ZN20complex_full_dynamic3app17ha60ffe2d471c5a31E>
   25996:	7820      	ldrb	r0, [r4, #0]
   25998:	2801      	cmp	r0, #1
   2599a:	d107      	bne.n	259ac <_start+0x1d20>
   2599c:	f7fe fcdb 	bl	24356 <_start+0x6ca>
   259a0:	0000140c 	.word	0x0000140c
   259a4:	00000bf0 	.word	0x00000bf0
   259a8:	000013b0 	.word	0x000013b0
   259ac:	4915      	ldr	r1, [pc, #84]	@ (25a04 <_start+0x1d78>)
   259ae:	4469      	add	r1, sp
   259b0:	78c8      	ldrb	r0, [r1, #3]
   259b2:	4d15      	ldr	r5, [pc, #84]	@ (25a08 <_start+0x1d7c>)
   259b4:	446d      	add	r5, sp
   259b6:	70a8      	strb	r0, [r5, #2]
   259b8:	7848      	ldrb	r0, [r1, #1]
   259ba:	788a      	ldrb	r2, [r1, #2]
   259bc:	0212      	lsls	r2, r2, #8
   259be:	1810      	adds	r0, r2, r0
   259c0:	8028      	strh	r0, [r5, #0]
   259c2:	9809      	ldr	r0, [sp, #36]	@ 0x24
   259c4:	6e04      	ldr	r4, [r0, #96]	@ 0x60
   259c6:	3108      	adds	r1, #8
   259c8:	4810      	ldr	r0, [pc, #64]	@ (25a0c <_start+0x1d80>)
   259ca:	4468      	add	r0, sp
   259cc:	900d      	str	r0, [sp, #52]	@ 0x34
   259ce:	2652      	movs	r6, #82	@ 0x52
   259d0:	4632      	mov	r2, r6
   259d2:	f001 f802 	bl	269da <__aeabi_memcpy4>
   259d6:	0e20      	lsrs	r0, r4, #24
   259d8:	71a8      	strb	r0, [r5, #6]
   259da:	0c20      	lsrs	r0, r4, #16
   259dc:	7168      	strb	r0, [r5, #5]
   259de:	0a20      	lsrs	r0, r4, #8
   259e0:	7128      	strb	r0, [r5, #4]
   259e2:	70ec      	strb	r4, [r5, #3]
   259e4:	1de8      	adds	r0, r5, #7
   259e6:	990d      	ldr	r1, [sp, #52]	@ 0x34
   259e8:	4632      	mov	r2, r6
   259ea:	f001 f956 	bl	26c9a <__aeabi_memcpy>
   259ee:	4c05      	ldr	r4, [pc, #20]	@ (25a04 <_start+0x1d78>)
   259f0:	446c      	add	r4, sp
   259f2:	4620      	mov	r0, r4
   259f4:	4629      	mov	r1, r5
   259f6:	f7fc f9d7 	bl	21da8 <_ZN20complex_full_dynamic3app17h7476a939f1f98e14E>
   259fa:	7820      	ldrb	r0, [r4, #0]
   259fc:	2801      	cmp	r0, #1
   259fe:	d107      	bne.n	25a10 <_start+0x1d84>
   25a00:	f7fe fca9 	bl	24356 <_start+0x6ca>
   25a04:	0000140c 	.word	0x0000140c
   25a08:	00000c1c 	.word	0x00000c1c
   25a0c:	000013b0 	.word	0x000013b0
   25a10:	4915      	ldr	r1, [pc, #84]	@ (25a68 <_start+0x1ddc>)
   25a12:	4469      	add	r1, sp
   25a14:	78c8      	ldrb	r0, [r1, #3]
   25a16:	4d15      	ldr	r5, [pc, #84]	@ (25a6c <_start+0x1de0>)
   25a18:	446d      	add	r5, sp
   25a1a:	70a8      	strb	r0, [r5, #2]
   25a1c:	7848      	ldrb	r0, [r1, #1]
   25a1e:	788a      	ldrb	r2, [r1, #2]
   25a20:	0212      	lsls	r2, r2, #8
   25a22:	1810      	adds	r0, r2, r0
   25a24:	8028      	strh	r0, [r5, #0]
   25a26:	9809      	ldr	r0, [sp, #36]	@ 0x24
   25a28:	6e04      	ldr	r4, [r0, #96]	@ 0x60
   25a2a:	3108      	adds	r1, #8
   25a2c:	4810      	ldr	r0, [pc, #64]	@ (25a70 <_start+0x1de4>)
   25a2e:	4468      	add	r0, sp
   25a30:	900d      	str	r0, [sp, #52]	@ 0x34
   25a32:	2643      	movs	r6, #67	@ 0x43
   25a34:	4632      	mov	r2, r6
   25a36:	f000 ffd0 	bl	269da <__aeabi_memcpy4>
   25a3a:	0e20      	lsrs	r0, r4, #24
   25a3c:	71a8      	strb	r0, [r5, #6]
   25a3e:	0c20      	lsrs	r0, r4, #16
   25a40:	7168      	strb	r0, [r5, #5]
   25a42:	0a20      	lsrs	r0, r4, #8
   25a44:	7128      	strb	r0, [r5, #4]
   25a46:	70ec      	strb	r4, [r5, #3]
   25a48:	1de8      	adds	r0, r5, #7
   25a4a:	990d      	ldr	r1, [sp, #52]	@ 0x34
   25a4c:	4632      	mov	r2, r6
   25a4e:	f001 f924 	bl	26c9a <__aeabi_memcpy>
   25a52:	4c05      	ldr	r4, [pc, #20]	@ (25a68 <_start+0x1ddc>)
   25a54:	446c      	add	r4, sp
   25a56:	4620      	mov	r0, r4
   25a58:	4629      	mov	r1, r5
   25a5a:	f7fc fd23 	bl	224a4 <_ZN20complex_full_dynamic3app17h9ec2d0bfa7476e2dE>
   25a5e:	7820      	ldrb	r0, [r4, #0]
   25a60:	2801      	cmp	r0, #1
   25a62:	d107      	bne.n	25a74 <_start+0x1de8>
   25a64:	f7fe fc77 	bl	24356 <_start+0x6ca>
   25a68:	0000140c 	.word	0x0000140c
   25a6c:	00000c78 	.word	0x00000c78
   25a70:	000013b0 	.word	0x000013b0
   25a74:	4817      	ldr	r0, [pc, #92]	@ (25ad4 <_start+0x1e48>)
   25a76:	4468      	add	r0, sp
   25a78:	78c1      	ldrb	r1, [r0, #3]
   25a7a:	4d17      	ldr	r5, [pc, #92]	@ (25ad8 <_start+0x1e4c>)
   25a7c:	446d      	add	r5, sp
   25a7e:	70a9      	strb	r1, [r5, #2]
   25a80:	7841      	ldrb	r1, [r0, #1]
   25a82:	7882      	ldrb	r2, [r0, #2]
   25a84:	0212      	lsls	r2, r2, #8
   25a86:	1851      	adds	r1, r2, r1
   25a88:	8029      	strh	r1, [r5, #0]
   25a8a:	3008      	adds	r0, #8
   25a8c:	9909      	ldr	r1, [sp, #36]	@ 0x24
   25a8e:	6e09      	ldr	r1, [r1, #96]	@ 0x60
   25a90:	4b12      	ldr	r3, [pc, #72]	@ (25adc <_start+0x1e50>)
   25a92:	446b      	add	r3, sp
   25a94:	930d      	str	r3, [sp, #52]	@ 0x34
   25a96:	c854      	ldmia	r0!, {r2, r4, r6}
   25a98:	c354      	stmia	r3!, {r2, r4, r6}
   25a9a:	c854      	ldmia	r0!, {r2, r4, r6}
   25a9c:	c354      	stmia	r3!, {r2, r4, r6}
   25a9e:	c854      	ldmia	r0!, {r2, r4, r6}
   25aa0:	c354      	stmia	r3!, {r2, r4, r6}
   25aa2:	8800      	ldrh	r0, [r0, #0]
   25aa4:	8018      	strh	r0, [r3, #0]
   25aa6:	0e08      	lsrs	r0, r1, #24
   25aa8:	71a8      	strb	r0, [r5, #6]
   25aaa:	0c08      	lsrs	r0, r1, #16
   25aac:	7168      	strb	r0, [r5, #5]
   25aae:	0a08      	lsrs	r0, r1, #8
   25ab0:	7128      	strb	r0, [r5, #4]
   25ab2:	70e9      	strb	r1, [r5, #3]
   25ab4:	1de8      	adds	r0, r5, #7
   25ab6:	2226      	movs	r2, #38	@ 0x26
   25ab8:	990d      	ldr	r1, [sp, #52]	@ 0x34
   25aba:	f001 f8ee 	bl	26c9a <__aeabi_memcpy>
   25abe:	4c05      	ldr	r4, [pc, #20]	@ (25ad4 <_start+0x1e48>)
   25ac0:	446c      	add	r4, sp
   25ac2:	4620      	mov	r0, r4
   25ac4:	4629      	mov	r1, r5
   25ac6:	f7fd fb8b 	bl	231e0 <_ZN20complex_full_dynamic3app17hdf4a12e26ae440f7E>
   25aca:	7820      	ldrb	r0, [r4, #0]
   25acc:	2801      	cmp	r0, #1
   25ace:	d107      	bne.n	25ae0 <_start+0x1e54>
   25ad0:	f7fe fc41 	bl	24356 <_start+0x6ca>
   25ad4:	0000140c 	.word	0x0000140c
   25ad8:	00000cc4 	.word	0x00000cc4
   25adc:	000013b0 	.word	0x000013b0
   25ae0:	4915      	ldr	r1, [pc, #84]	@ (25b38 <_start+0x1eac>)
   25ae2:	4469      	add	r1, sp
   25ae4:	78c8      	ldrb	r0, [r1, #3]
   25ae6:	4d15      	ldr	r5, [pc, #84]	@ (25b3c <_start+0x1eb0>)
   25ae8:	446d      	add	r5, sp
   25aea:	70a8      	strb	r0, [r5, #2]
   25aec:	7848      	ldrb	r0, [r1, #1]
   25aee:	788a      	ldrb	r2, [r1, #2]
   25af0:	0212      	lsls	r2, r2, #8
   25af2:	1810      	adds	r0, r2, r0
   25af4:	8028      	strh	r0, [r5, #0]
   25af6:	9809      	ldr	r0, [sp, #36]	@ 0x24
   25af8:	6e04      	ldr	r4, [r0, #96]	@ 0x60
   25afa:	3108      	adds	r1, #8
   25afc:	4810      	ldr	r0, [pc, #64]	@ (25b40 <_start+0x1eb4>)
   25afe:	4468      	add	r0, sp
   25b00:	900d      	str	r0, [sp, #52]	@ 0x34
   25b02:	264c      	movs	r6, #76	@ 0x4c
   25b04:	4632      	mov	r2, r6
   25b06:	f000 ff68 	bl	269da <__aeabi_memcpy4>
   25b0a:	0e20      	lsrs	r0, r4, #24
   25b0c:	71a8      	strb	r0, [r5, #6]
   25b0e:	0c20      	lsrs	r0, r4, #16
   25b10:	7168      	strb	r0, [r5, #5]
   25b12:	0a20      	lsrs	r0, r4, #8
   25b14:	7128      	strb	r0, [r5, #4]
   25b16:	70ec      	strb	r4, [r5, #3]
   25b18:	1de8      	adds	r0, r5, #7
   25b1a:	990d      	ldr	r1, [sp, #52]	@ 0x34
   25b1c:	4632      	mov	r2, r6
   25b1e:	f001 f8bc 	bl	26c9a <__aeabi_memcpy>
   25b22:	4c05      	ldr	r4, [pc, #20]	@ (25b38 <_start+0x1eac>)
   25b24:	446c      	add	r4, sp
   25b26:	4620      	mov	r0, r4
   25b28:	4629      	mov	r1, r5
   25b2a:	f7fb fc81 	bl	21430 <_ZN20complex_full_dynamic3app17h45380c33dd8d13e9E>
   25b2e:	7820      	ldrb	r0, [r4, #0]
   25b30:	2801      	cmp	r0, #1
   25b32:	d107      	bne.n	25b44 <_start+0x1eb8>
   25b34:	f7fe fc0f 	bl	24356 <_start+0x6ca>
   25b38:	0000140c 	.word	0x0000140c
   25b3c:	00000cf4 	.word	0x00000cf4
   25b40:	000013b0 	.word	0x000013b0
   25b44:	4819      	ldr	r0, [pc, #100]	@ (25bac <_start+0x1f20>)
   25b46:	4468      	add	r0, sp
   25b48:	78c1      	ldrb	r1, [r0, #3]
   25b4a:	4d19      	ldr	r5, [pc, #100]	@ (25bb0 <_start+0x1f24>)
   25b4c:	446d      	add	r5, sp
   25b4e:	70a9      	strb	r1, [r5, #2]
   25b50:	7841      	ldrb	r1, [r0, #1]
   25b52:	7882      	ldrb	r2, [r0, #2]
   25b54:	0212      	lsls	r2, r2, #8
   25b56:	1851      	adds	r1, r2, r1
   25b58:	8029      	strh	r1, [r5, #0]
   25b5a:	3008      	adds	r0, #8
   25b5c:	9909      	ldr	r1, [sp, #36]	@ 0x24
   25b5e:	6e09      	ldr	r1, [r1, #96]	@ 0x60
   25b60:	910c      	str	r1, [sp, #48]	@ 0x30
   25b62:	4b14      	ldr	r3, [pc, #80]	@ (25bb4 <_start+0x1f28>)
   25b64:	446b      	add	r3, sp
   25b66:	930d      	str	r3, [sp, #52]	@ 0x34
   25b68:	c856      	ldmia	r0!, {r1, r2, r4, r6}
   25b6a:	c356      	stmia	r3!, {r1, r2, r4, r6}
   25b6c:	c856      	ldmia	r0!, {r1, r2, r4, r6}
   25b6e:	c356      	stmia	r3!, {r1, r2, r4, r6}
   25b70:	c856      	ldmia	r0!, {r1, r2, r4, r6}
   25b72:	c356      	stmia	r3!, {r1, r2, r4, r6}
   25b74:	8801      	ldrh	r1, [r0, #0]
   25b76:	8019      	strh	r1, [r3, #0]
   25b78:	7880      	ldrb	r0, [r0, #2]
   25b7a:	7098      	strb	r0, [r3, #2]
   25b7c:	990c      	ldr	r1, [sp, #48]	@ 0x30
   25b7e:	0e08      	lsrs	r0, r1, #24
   25b80:	71a8      	strb	r0, [r5, #6]
   25b82:	0c08      	lsrs	r0, r1, #16
   25b84:	7168      	strb	r0, [r5, #5]
   25b86:	0a08      	lsrs	r0, r1, #8
   25b88:	7128      	strb	r0, [r5, #4]
   25b8a:	70e9      	strb	r1, [r5, #3]
   25b8c:	1de8      	adds	r0, r5, #7
   25b8e:	2233      	movs	r2, #51	@ 0x33
   25b90:	990d      	ldr	r1, [sp, #52]	@ 0x34
   25b92:	f001 f882 	bl	26c9a <__aeabi_memcpy>
   25b96:	4c05      	ldr	r4, [pc, #20]	@ (25bac <_start+0x1f20>)
   25b98:	446c      	add	r4, sp
   25b9a:	4620      	mov	r0, r4
   25b9c:	4629      	mov	r1, r5
   25b9e:	f7fb f8cd 	bl	20d3c <_ZN20complex_full_dynamic3app17h2d89f2f80612bd2aE>
   25ba2:	7820      	ldrb	r0, [r4, #0]
   25ba4:	2801      	cmp	r0, #1
   25ba6:	d107      	bne.n	25bb8 <_start+0x1f2c>
   25ba8:	f7fe fbd5 	bl	24356 <_start+0x6ca>
   25bac:	0000140c 	.word	0x0000140c
   25bb0:	00000d48 	.word	0x00000d48
   25bb4:	000013b0 	.word	0x000013b0
   25bb8:	4915      	ldr	r1, [pc, #84]	@ (25c10 <_start+0x1f84>)
   25bba:	4469      	add	r1, sp
   25bbc:	78c8      	ldrb	r0, [r1, #3]
   25bbe:	4d15      	ldr	r5, [pc, #84]	@ (25c14 <_start+0x1f88>)
   25bc0:	446d      	add	r5, sp
   25bc2:	70a8      	strb	r0, [r5, #2]
   25bc4:	7848      	ldrb	r0, [r1, #1]
   25bc6:	788a      	ldrb	r2, [r1, #2]
   25bc8:	0212      	lsls	r2, r2, #8
   25bca:	1810      	adds	r0, r2, r0
   25bcc:	8028      	strh	r0, [r5, #0]
   25bce:	9809      	ldr	r0, [sp, #36]	@ 0x24
   25bd0:	6e04      	ldr	r4, [r0, #96]	@ 0x60
   25bd2:	3108      	adds	r1, #8
   25bd4:	4810      	ldr	r0, [pc, #64]	@ (25c18 <_start+0x1f8c>)
   25bd6:	4468      	add	r0, sp
   25bd8:	900d      	str	r0, [sp, #52]	@ 0x34
   25bda:	2656      	movs	r6, #86	@ 0x56
   25bdc:	4632      	mov	r2, r6
   25bde:	f000 fefc 	bl	269da <__aeabi_memcpy4>
   25be2:	0e20      	lsrs	r0, r4, #24
   25be4:	71a8      	strb	r0, [r5, #6]
   25be6:	0c20      	lsrs	r0, r4, #16
   25be8:	7168      	strb	r0, [r5, #5]
   25bea:	0a20      	lsrs	r0, r4, #8
   25bec:	7128      	strb	r0, [r5, #4]
   25bee:	70ec      	strb	r4, [r5, #3]
   25bf0:	1de8      	adds	r0, r5, #7
   25bf2:	990d      	ldr	r1, [sp, #52]	@ 0x34
   25bf4:	4632      	mov	r2, r6
   25bf6:	f001 f850 	bl	26c9a <__aeabi_memcpy>
   25bfa:	4c05      	ldr	r4, [pc, #20]	@ (25c10 <_start+0x1f84>)
   25bfc:	446c      	add	r4, sp
   25bfe:	4620      	mov	r0, r4
   25c00:	4629      	mov	r1, r5
   25c02:	f7fd f8b7 	bl	22d74 <_ZN20complex_full_dynamic3app17hcb32fb819f245abfE>
   25c06:	7820      	ldrb	r0, [r4, #0]
   25c08:	2801      	cmp	r0, #1
   25c0a:	d107      	bne.n	25c1c <_start+0x1f90>
   25c0c:	f7fe fba3 	bl	24356 <_start+0x6ca>
   25c10:	0000140c 	.word	0x0000140c
   25c14:	00000d84 	.word	0x00000d84
   25c18:	000013b0 	.word	0x000013b0
   25c1c:	4819      	ldr	r0, [pc, #100]	@ (25c84 <_start+0x1ff8>)
   25c1e:	4468      	add	r0, sp
   25c20:	78c1      	ldrb	r1, [r0, #3]
   25c22:	4d19      	ldr	r5, [pc, #100]	@ (25c88 <_start+0x1ffc>)
   25c24:	446d      	add	r5, sp
   25c26:	70a9      	strb	r1, [r5, #2]
   25c28:	7841      	ldrb	r1, [r0, #1]
   25c2a:	7882      	ldrb	r2, [r0, #2]
   25c2c:	0212      	lsls	r2, r2, #8
   25c2e:	1851      	adds	r1, r2, r1
   25c30:	8029      	strh	r1, [r5, #0]
   25c32:	3008      	adds	r0, #8
   25c34:	9909      	ldr	r1, [sp, #36]	@ 0x24
   25c36:	6e09      	ldr	r1, [r1, #96]	@ 0x60
   25c38:	910c      	str	r1, [sp, #48]	@ 0x30
   25c3a:	4b14      	ldr	r3, [pc, #80]	@ (25c8c <_start+0x2000>)
   25c3c:	446b      	add	r3, sp
   25c3e:	930d      	str	r3, [sp, #52]	@ 0x34
   25c40:	c854      	ldmia	r0!, {r2, r4, r6}
   25c42:	c354      	stmia	r3!, {r2, r4, r6}
   25c44:	c856      	ldmia	r0!, {r1, r2, r4, r6}
   25c46:	c356      	stmia	r3!, {r1, r2, r4, r6}
   25c48:	c816      	ldmia	r0!, {r1, r2, r4}
   25c4a:	c316      	stmia	r3!, {r1, r2, r4}
   25c4c:	c856      	ldmia	r0!, {r1, r2, r4, r6}
   25c4e:	c356      	stmia	r3!, {r1, r2, r4, r6}
   25c50:	7800      	ldrb	r0, [r0, #0]
   25c52:	7018      	strb	r0, [r3, #0]
   25c54:	990c      	ldr	r1, [sp, #48]	@ 0x30
   25c56:	0e08      	lsrs	r0, r1, #24
   25c58:	71a8      	strb	r0, [r5, #6]
   25c5a:	0c08      	lsrs	r0, r1, #16
   25c5c:	7168      	strb	r0, [r5, #5]
   25c5e:	0a08      	lsrs	r0, r1, #8
   25c60:	7128      	strb	r0, [r5, #4]
   25c62:	70e9      	strb	r1, [r5, #3]
   25c64:	1de8      	adds	r0, r5, #7
   25c66:	2239      	movs	r2, #57	@ 0x39
   25c68:	990d      	ldr	r1, [sp, #52]	@ 0x34
   25c6a:	f001 f816 	bl	26c9a <__aeabi_memcpy>
   25c6e:	4c05      	ldr	r4, [pc, #20]	@ (25c84 <_start+0x1ff8>)
   25c70:	446c      	add	r4, sp
   25c72:	4620      	mov	r0, r4
   25c74:	4629      	mov	r1, r5
   25c76:	f7fb f955 	bl	20f24 <_ZN20complex_full_dynamic3app17h348425d83b4c727bE>
   25c7a:	7820      	ldrb	r0, [r4, #0]
   25c7c:	2801      	cmp	r0, #1
   25c7e:	d107      	bne.n	25c90 <_start+0x2004>
   25c80:	f7fe fb69 	bl	24356 <_start+0x6ca>
   25c84:	0000140c 	.word	0x0000140c
   25c88:	00000de4 	.word	0x00000de4
   25c8c:	000013b0 	.word	0x000013b0
   25c90:	4818      	ldr	r0, [pc, #96]	@ (25cf4 <_start+0x2068>)
   25c92:	4468      	add	r0, sp
   25c94:	78c1      	ldrb	r1, [r0, #3]
   25c96:	4d18      	ldr	r5, [pc, #96]	@ (25cf8 <_start+0x206c>)
   25c98:	446d      	add	r5, sp
   25c9a:	70a9      	strb	r1, [r5, #2]
   25c9c:	7841      	ldrb	r1, [r0, #1]
   25c9e:	7882      	ldrb	r2, [r0, #2]
   25ca0:	0212      	lsls	r2, r2, #8
   25ca2:	1851      	adds	r1, r2, r1
   25ca4:	8029      	strh	r1, [r5, #0]
   25ca6:	3008      	adds	r0, #8
   25ca8:	9909      	ldr	r1, [sp, #36]	@ 0x24
   25caa:	6e09      	ldr	r1, [r1, #96]	@ 0x60
   25cac:	910c      	str	r1, [sp, #48]	@ 0x30
   25cae:	4b13      	ldr	r3, [pc, #76]	@ (25cfc <_start+0x2070>)
   25cb0:	446b      	add	r3, sp
   25cb2:	930d      	str	r3, [sp, #52]	@ 0x34
   25cb4:	c854      	ldmia	r0!, {r2, r4, r6}
   25cb6:	c354      	stmia	r3!, {r2, r4, r6}
   25cb8:	c854      	ldmia	r0!, {r2, r4, r6}
   25cba:	c354      	stmia	r3!, {r2, r4, r6}
   25cbc:	c856      	ldmia	r0!, {r1, r2, r4, r6}
   25cbe:	c356      	stmia	r3!, {r1, r2, r4, r6}
   25cc0:	8800      	ldrh	r0, [r0, #0]
   25cc2:	8018      	strh	r0, [r3, #0]
   25cc4:	990c      	ldr	r1, [sp, #48]	@ 0x30
   25cc6:	0e08      	lsrs	r0, r1, #24
   25cc8:	71a8      	strb	r0, [r5, #6]
   25cca:	0c08      	lsrs	r0, r1, #16
   25ccc:	7168      	strb	r0, [r5, #5]
   25cce:	0a08      	lsrs	r0, r1, #8
   25cd0:	7128      	strb	r0, [r5, #4]
   25cd2:	70e9      	strb	r1, [r5, #3]
   25cd4:	1de8      	adds	r0, r5, #7
   25cd6:	222a      	movs	r2, #42	@ 0x2a
   25cd8:	990d      	ldr	r1, [sp, #52]	@ 0x34
   25cda:	f000 ffde 	bl	26c9a <__aeabi_memcpy>
   25cde:	4c05      	ldr	r4, [pc, #20]	@ (25cf4 <_start+0x2068>)
   25ce0:	446c      	add	r4, sp
   25ce2:	4620      	mov	r0, r4
   25ce4:	4629      	mov	r1, r5
   25ce6:	f7fd f8e9 	bl	22ebc <_ZN20complex_full_dynamic3app17hce4a58c933fac4d1E>
   25cea:	7820      	ldrb	r0, [r4, #0]
   25cec:	2801      	cmp	r0, #1
   25cee:	d107      	bne.n	25d00 <_start+0x2074>
   25cf0:	f7fe fb31 	bl	24356 <_start+0x6ca>
   25cf4:	0000140c 	.word	0x0000140c
   25cf8:	00000e24 	.word	0x00000e24
   25cfc:	000013b0 	.word	0x000013b0
   25d00:	4915      	ldr	r1, [pc, #84]	@ (25d58 <_start+0x20cc>)
   25d02:	4469      	add	r1, sp
   25d04:	78c8      	ldrb	r0, [r1, #3]
   25d06:	4d15      	ldr	r5, [pc, #84]	@ (25d5c <_start+0x20d0>)
   25d08:	446d      	add	r5, sp
   25d0a:	70a8      	strb	r0, [r5, #2]
   25d0c:	7848      	ldrb	r0, [r1, #1]
   25d0e:	788a      	ldrb	r2, [r1, #2]
   25d10:	0212      	lsls	r2, r2, #8
   25d12:	1810      	adds	r0, r2, r0
   25d14:	8028      	strh	r0, [r5, #0]
   25d16:	9809      	ldr	r0, [sp, #36]	@ 0x24
   25d18:	6e04      	ldr	r4, [r0, #96]	@ 0x60
   25d1a:	3108      	adds	r1, #8
   25d1c:	4810      	ldr	r0, [pc, #64]	@ (25d60 <_start+0x20d4>)
   25d1e:	4468      	add	r0, sp
   25d20:	900d      	str	r0, [sp, #52]	@ 0x34
   25d22:	2641      	movs	r6, #65	@ 0x41
   25d24:	4632      	mov	r2, r6
   25d26:	f000 fe58 	bl	269da <__aeabi_memcpy4>
   25d2a:	0e20      	lsrs	r0, r4, #24
   25d2c:	71a8      	strb	r0, [r5, #6]
   25d2e:	0c20      	lsrs	r0, r4, #16
   25d30:	7168      	strb	r0, [r5, #5]
   25d32:	0a20      	lsrs	r0, r4, #8
   25d34:	7128      	strb	r0, [r5, #4]
   25d36:	70ec      	strb	r4, [r5, #3]
   25d38:	1de8      	adds	r0, r5, #7
   25d3a:	990d      	ldr	r1, [sp, #52]	@ 0x34
   25d3c:	4632      	mov	r2, r6
   25d3e:	f000 ffac 	bl	26c9a <__aeabi_memcpy>
   25d42:	4c05      	ldr	r4, [pc, #20]	@ (25d58 <_start+0x20cc>)
   25d44:	446c      	add	r4, sp
   25d46:	4620      	mov	r0, r4
   25d48:	4629      	mov	r1, r5
   25d4a:	f7fd fd1b 	bl	23784 <_ZN20complex_full_dynamic3app17hf2d5467d08923102E>
   25d4e:	7820      	ldrb	r0, [r4, #0]
   25d50:	2801      	cmp	r0, #1
   25d52:	d107      	bne.n	25d64 <_start+0x20d8>
   25d54:	f7fe faff 	bl	24356 <_start+0x6ca>
   25d58:	0000140c 	.word	0x0000140c
   25d5c:	00000e58 	.word	0x00000e58
   25d60:	000013b0 	.word	0x000013b0
   25d64:	4817      	ldr	r0, [pc, #92]	@ (25dc4 <_start+0x2138>)
   25d66:	4468      	add	r0, sp
   25d68:	78c1      	ldrb	r1, [r0, #3]
   25d6a:	4d17      	ldr	r5, [pc, #92]	@ (25dc8 <_start+0x213c>)
   25d6c:	446d      	add	r5, sp
   25d6e:	70a9      	strb	r1, [r5, #2]
   25d70:	7841      	ldrb	r1, [r0, #1]
   25d72:	7882      	ldrb	r2, [r0, #2]
   25d74:	0212      	lsls	r2, r2, #8
   25d76:	1851      	adds	r1, r2, r1
   25d78:	8029      	strh	r1, [r5, #0]
   25d7a:	3008      	adds	r0, #8
   25d7c:	9909      	ldr	r1, [sp, #36]	@ 0x24
   25d7e:	6e09      	ldr	r1, [r1, #96]	@ 0x60
   25d80:	910c      	str	r1, [sp, #48]	@ 0x30
   25d82:	4b12      	ldr	r3, [pc, #72]	@ (25dcc <_start+0x2140>)
   25d84:	446b      	add	r3, sp
   25d86:	930d      	str	r3, [sp, #52]	@ 0x34
   25d88:	c856      	ldmia	r0!, {r1, r2, r4, r6}
   25d8a:	c356      	stmia	r3!, {r1, r2, r4, r6}
   25d8c:	c856      	ldmia	r0!, {r1, r2, r4, r6}
   25d8e:	c356      	stmia	r3!, {r1, r2, r4, r6}
   25d90:	8800      	ldrh	r0, [r0, #0]
   25d92:	8018      	strh	r0, [r3, #0]
   25d94:	990c      	ldr	r1, [sp, #48]	@ 0x30
   25d96:	0e08      	lsrs	r0, r1, #24
   25d98:	71a8      	strb	r0, [r5, #6]
   25d9a:	0c08      	lsrs	r0, r1, #16
   25d9c:	7168      	strb	r0, [r5, #5]
   25d9e:	0a08      	lsrs	r0, r1, #8
   25da0:	7128      	strb	r0, [r5, #4]
   25da2:	70e9      	strb	r1, [r5, #3]
   25da4:	1de8      	adds	r0, r5, #7
   25da6:	2222      	movs	r2, #34	@ 0x22
   25da8:	990d      	ldr	r1, [sp, #52]	@ 0x34
   25daa:	f000 ff76 	bl	26c9a <__aeabi_memcpy>
   25dae:	4c05      	ldr	r4, [pc, #20]	@ (25dc4 <_start+0x2138>)
   25db0:	446c      	add	r4, sp
   25db2:	4620      	mov	r0, r4
   25db4:	4629      	mov	r1, r5
   25db6:	f7fd fec9 	bl	23b4c <_ZN20complex_full_dynamic3app17hfe8ebab24acb90f7E>
   25dba:	7820      	ldrb	r0, [r4, #0]
   25dbc:	2801      	cmp	r0, #1
   25dbe:	d107      	bne.n	25dd0 <_start+0x2144>
   25dc0:	f7fe fac9 	bl	24356 <_start+0x6ca>
   25dc4:	0000140c 	.word	0x0000140c
   25dc8:	00000ea0 	.word	0x00000ea0
   25dcc:	000013b0 	.word	0x000013b0
   25dd0:	4817      	ldr	r0, [pc, #92]	@ (25e30 <_start+0x21a4>)
   25dd2:	4468      	add	r0, sp
   25dd4:	78c1      	ldrb	r1, [r0, #3]
   25dd6:	4d17      	ldr	r5, [pc, #92]	@ (25e34 <_start+0x21a8>)
   25dd8:	446d      	add	r5, sp
   25dda:	70a9      	strb	r1, [r5, #2]
   25ddc:	7841      	ldrb	r1, [r0, #1]
   25dde:	7882      	ldrb	r2, [r0, #2]
   25de0:	0212      	lsls	r2, r2, #8
   25de2:	1851      	adds	r1, r2, r1
   25de4:	8029      	strh	r1, [r5, #0]
   25de6:	3008      	adds	r0, #8
   25de8:	9909      	ldr	r1, [sp, #36]	@ 0x24
   25dea:	6e09      	ldr	r1, [r1, #96]	@ 0x60
   25dec:	910c      	str	r1, [sp, #48]	@ 0x30
   25dee:	4b12      	ldr	r3, [pc, #72]	@ (25e38 <_start+0x21ac>)
   25df0:	446b      	add	r3, sp
   25df2:	930d      	str	r3, [sp, #52]	@ 0x34
   25df4:	c856      	ldmia	r0!, {r1, r2, r4, r6}
   25df6:	c356      	stmia	r3!, {r1, r2, r4, r6}
   25df8:	8801      	ldrh	r1, [r0, #0]
   25dfa:	8019      	strh	r1, [r3, #0]
   25dfc:	7880      	ldrb	r0, [r0, #2]
   25dfe:	7098      	strb	r0, [r3, #2]
   25e00:	990c      	ldr	r1, [sp, #48]	@ 0x30
   25e02:	0e08      	lsrs	r0, r1, #24
   25e04:	71a8      	strb	r0, [r5, #6]
   25e06:	0c08      	lsrs	r0, r1, #16
   25e08:	7168      	strb	r0, [r5, #5]
   25e0a:	0a08      	lsrs	r0, r1, #8
   25e0c:	7128      	strb	r0, [r5, #4]
   25e0e:	70e9      	strb	r1, [r5, #3]
   25e10:	1de8      	adds	r0, r5, #7
   25e12:	2213      	movs	r2, #19
   25e14:	990d      	ldr	r1, [sp, #52]	@ 0x34
   25e16:	f000 ff40 	bl	26c9a <__aeabi_memcpy>
   25e1a:	4c05      	ldr	r4, [pc, #20]	@ (25e30 <_start+0x21a4>)
   25e1c:	446c      	add	r4, sp
   25e1e:	4620      	mov	r0, r4
   25e20:	4629      	mov	r1, r5
   25e22:	f7fa f9d3 	bl	201cc <_ZN20complex_full_dynamic3app17h035c07210919b969E>
   25e26:	7820      	ldrb	r0, [r4, #0]
   25e28:	2801      	cmp	r0, #1
   25e2a:	d107      	bne.n	25e3c <_start+0x21b0>
   25e2c:	f7fe fa93 	bl	24356 <_start+0x6ca>
   25e30:	0000140c 	.word	0x0000140c
   25e34:	00000ecc 	.word	0x00000ecc
   25e38:	000013b0 	.word	0x000013b0
   25e3c:	4815      	ldr	r0, [pc, #84]	@ (25e94 <_start+0x2208>)
   25e3e:	4468      	add	r0, sp
   25e40:	78c1      	ldrb	r1, [r0, #3]
   25e42:	4d15      	ldr	r5, [pc, #84]	@ (25e98 <_start+0x220c>)
   25e44:	446d      	add	r5, sp
   25e46:	70a9      	strb	r1, [r5, #2]
   25e48:	7841      	ldrb	r1, [r0, #1]
   25e4a:	7882      	ldrb	r2, [r0, #2]
   25e4c:	0212      	lsls	r2, r2, #8
   25e4e:	1851      	adds	r1, r2, r1
   25e50:	8029      	strh	r1, [r5, #0]
   25e52:	3008      	adds	r0, #8
   25e54:	9909      	ldr	r1, [sp, #36]	@ 0x24
   25e56:	6e09      	ldr	r1, [r1, #96]	@ 0x60
   25e58:	4b10      	ldr	r3, [pc, #64]	@ (25e9c <_start+0x2210>)
   25e5a:	446b      	add	r3, sp
   25e5c:	930d      	str	r3, [sp, #52]	@ 0x34
   25e5e:	c850      	ldmia	r0!, {r4, r6}
   25e60:	c350      	stmia	r3!, {r4, r6}
   25e62:	c854      	ldmia	r0!, {r2, r4, r6}
   25e64:	c354      	stmia	r3!, {r2, r4, r6}
   25e66:	0e08      	lsrs	r0, r1, #24
   25e68:	71a8      	strb	r0, [r5, #6]
   25e6a:	0c08      	lsrs	r0, r1, #16
   25e6c:	7168      	strb	r0, [r5, #5]
   25e6e:	0a08      	lsrs	r0, r1, #8
   25e70:	7128      	strb	r0, [r5, #4]
   25e72:	70e9      	strb	r1, [r5, #3]
   25e74:	1de8      	adds	r0, r5, #7
   25e76:	2214      	movs	r2, #20
   25e78:	990d      	ldr	r1, [sp, #52]	@ 0x34
   25e7a:	f000 ff0e 	bl	26c9a <__aeabi_memcpy>
   25e7e:	4c05      	ldr	r4, [pc, #20]	@ (25e94 <_start+0x2208>)
   25e80:	446c      	add	r4, sp
   25e82:	4620      	mov	r0, r4
   25e84:	4629      	mov	r1, r5
   25e86:	f7fb f9e0 	bl	2124a <_ZN20complex_full_dynamic3app17h3d81318478cde43eE>
   25e8a:	7820      	ldrb	r0, [r4, #0]
   25e8c:	2801      	cmp	r0, #1
   25e8e:	d107      	bne.n	25ea0 <_start+0x2214>
   25e90:	f7fe fa61 	bl	24356 <_start+0x6ca>
   25e94:	0000140c 	.word	0x0000140c
   25e98:	00000ee8 	.word	0x00000ee8
   25e9c:	000013b0 	.word	0x000013b0
   25ea0:	4819      	ldr	r0, [pc, #100]	@ (25f08 <_start+0x227c>)
   25ea2:	4468      	add	r0, sp
   25ea4:	78c1      	ldrb	r1, [r0, #3]
   25ea6:	4d19      	ldr	r5, [pc, #100]	@ (25f0c <_start+0x2280>)
   25ea8:	446d      	add	r5, sp
   25eaa:	70a9      	strb	r1, [r5, #2]
   25eac:	7841      	ldrb	r1, [r0, #1]
   25eae:	7882      	ldrb	r2, [r0, #2]
   25eb0:	0212      	lsls	r2, r2, #8
   25eb2:	1851      	adds	r1, r2, r1
   25eb4:	8029      	strh	r1, [r5, #0]
   25eb6:	3008      	adds	r0, #8
   25eb8:	9909      	ldr	r1, [sp, #36]	@ 0x24
   25eba:	6e09      	ldr	r1, [r1, #96]	@ 0x60
   25ebc:	910c      	str	r1, [sp, #48]	@ 0x30
   25ebe:	4b14      	ldr	r3, [pc, #80]	@ (25f10 <_start+0x2284>)
   25ec0:	446b      	add	r3, sp
   25ec2:	930d      	str	r3, [sp, #52]	@ 0x34
   25ec4:	c854      	ldmia	r0!, {r2, r4, r6}
   25ec6:	c354      	stmia	r3!, {r2, r4, r6}
   25ec8:	c856      	ldmia	r0!, {r1, r2, r4, r6}
   25eca:	c356      	stmia	r3!, {r1, r2, r4, r6}
   25ecc:	c816      	ldmia	r0!, {r1, r2, r4}
   25ece:	c316      	stmia	r3!, {r1, r2, r4}
   25ed0:	c856      	ldmia	r0!, {r1, r2, r4, r6}
   25ed2:	c356      	stmia	r3!, {r1, r2, r4, r6}
   25ed4:	8800      	ldrh	r0, [r0, #0]
   25ed6:	8018      	strh	r0, [r3, #0]
   25ed8:	990c      	ldr	r1, [sp, #48]	@ 0x30
   25eda:	0e08      	lsrs	r0, r1, #24
   25edc:	71a8      	strb	r0, [r5, #6]
   25ede:	0c08      	lsrs	r0, r1, #16
   25ee0:	7168      	strb	r0, [r5, #5]
   25ee2:	0a08      	lsrs	r0, r1, #8
   25ee4:	7128      	strb	r0, [r5, #4]
   25ee6:	70e9      	strb	r1, [r5, #3]
   25ee8:	1de8      	adds	r0, r5, #7
   25eea:	223a      	movs	r2, #58	@ 0x3a
   25eec:	990d      	ldr	r1, [sp, #52]	@ 0x34
   25eee:	f000 fed4 	bl	26c9a <__aeabi_memcpy>
   25ef2:	4c05      	ldr	r4, [pc, #20]	@ (25f08 <_start+0x227c>)
   25ef4:	446c      	add	r4, sp
   25ef6:	4620      	mov	r0, r4
   25ef8:	4629      	mov	r1, r5
   25efa:	f7fb fa47 	bl	2138c <_ZN20complex_full_dynamic3app17h42d8a37fa27da591E>
   25efe:	7820      	ldrb	r0, [r4, #0]
   25f00:	2801      	cmp	r0, #1
   25f02:	d107      	bne.n	25f14 <_start+0x2288>
   25f04:	f7fe fa27 	bl	24356 <_start+0x6ca>
   25f08:	0000140c 	.word	0x0000140c
   25f0c:	00000f04 	.word	0x00000f04
   25f10:	000013b0 	.word	0x000013b0
   25f14:	4816      	ldr	r0, [pc, #88]	@ (25f70 <_start+0x22e4>)
   25f16:	4468      	add	r0, sp
   25f18:	78c1      	ldrb	r1, [r0, #3]
   25f1a:	4d16      	ldr	r5, [pc, #88]	@ (25f74 <_start+0x22e8>)
   25f1c:	446d      	add	r5, sp
   25f1e:	70a9      	strb	r1, [r5, #2]
   25f20:	7841      	ldrb	r1, [r0, #1]
   25f22:	7882      	ldrb	r2, [r0, #2]
   25f24:	0212      	lsls	r2, r2, #8
   25f26:	1851      	adds	r1, r2, r1
   25f28:	8029      	strh	r1, [r5, #0]
   25f2a:	3008      	adds	r0, #8
   25f2c:	9909      	ldr	r1, [sp, #36]	@ 0x24
   25f2e:	6e09      	ldr	r1, [r1, #96]	@ 0x60
   25f30:	910c      	str	r1, [sp, #48]	@ 0x30
   25f32:	4b11      	ldr	r3, [pc, #68]	@ (25f78 <_start+0x22ec>)
   25f34:	446b      	add	r3, sp
   25f36:	930d      	str	r3, [sp, #52]	@ 0x34
   25f38:	c856      	ldmia	r0!, {r1, r2, r4, r6}
   25f3a:	c356      	stmia	r3!, {r1, r2, r4, r6}
   25f3c:	7800      	ldrb	r0, [r0, #0]
   25f3e:	7018      	strb	r0, [r3, #0]
   25f40:	990c      	ldr	r1, [sp, #48]	@ 0x30
   25f42:	0e08      	lsrs	r0, r1, #24
   25f44:	71a8      	strb	r0, [r5, #6]
   25f46:	0c08      	lsrs	r0, r1, #16
   25f48:	7168      	strb	r0, [r5, #5]
   25f4a:	0a08      	lsrs	r0, r1, #8
   25f4c:	7128      	strb	r0, [r5, #4]
   25f4e:	70e9      	strb	r1, [r5, #3]
   25f50:	1de8      	adds	r0, r5, #7
   25f52:	2211      	movs	r2, #17
   25f54:	990d      	ldr	r1, [sp, #52]	@ 0x34
   25f56:	f000 fea0 	bl	26c9a <__aeabi_memcpy>
   25f5a:	4c05      	ldr	r4, [pc, #20]	@ (25f70 <_start+0x22e4>)
   25f5c:	446c      	add	r4, sp
   25f5e:	4620      	mov	r0, r4
   25f60:	4629      	mov	r1, r5
   25f62:	f7fa fda7 	bl	20ab4 <_ZN20complex_full_dynamic3app17h1d9d71e0aef7516bE>
   25f66:	7820      	ldrb	r0, [r4, #0]
   25f68:	2801      	cmp	r0, #1
   25f6a:	d107      	bne.n	25f7c <_start+0x22f0>
   25f6c:	f7fe f9f3 	bl	24356 <_start+0x6ca>
   25f70:	0000140c 	.word	0x0000140c
   25f74:	00000f48 	.word	0x00000f48
   25f78:	000013b0 	.word	0x000013b0
   25f7c:	4817      	ldr	r0, [pc, #92]	@ (25fdc <_start+0x2350>)
   25f7e:	4468      	add	r0, sp
   25f80:	78c1      	ldrb	r1, [r0, #3]
   25f82:	4d17      	ldr	r5, [pc, #92]	@ (25fe0 <_start+0x2354>)
   25f84:	446d      	add	r5, sp
   25f86:	70a9      	strb	r1, [r5, #2]
   25f88:	7841      	ldrb	r1, [r0, #1]
   25f8a:	7882      	ldrb	r2, [r0, #2]
   25f8c:	0212      	lsls	r2, r2, #8
   25f8e:	1851      	adds	r1, r2, r1
   25f90:	8029      	strh	r1, [r5, #0]
   25f92:	3008      	adds	r0, #8
   25f94:	9909      	ldr	r1, [sp, #36]	@ 0x24
   25f96:	6e09      	ldr	r1, [r1, #96]	@ 0x60
   25f98:	4b12      	ldr	r3, [pc, #72]	@ (25fe4 <_start+0x2358>)
   25f9a:	446b      	add	r3, sp
   25f9c:	930d      	str	r3, [sp, #52]	@ 0x34
   25f9e:	c850      	ldmia	r0!, {r4, r6}
   25fa0:	c350      	stmia	r3!, {r4, r6}
   25fa2:	c854      	ldmia	r0!, {r2, r4, r6}
   25fa4:	c354      	stmia	r3!, {r2, r4, r6}
   25fa6:	8802      	ldrh	r2, [r0, #0]
   25fa8:	801a      	strh	r2, [r3, #0]
   25faa:	7880      	ldrb	r0, [r0, #2]
   25fac:	7098      	strb	r0, [r3, #2]
   25fae:	0e08      	lsrs	r0, r1, #24
   25fb0:	71a8      	strb	r0, [r5, #6]
   25fb2:	0c08      	lsrs	r0, r1, #16
   25fb4:	7168      	strb	r0, [r5, #5]
   25fb6:	0a08      	lsrs	r0, r1, #8
   25fb8:	7128      	strb	r0, [r5, #4]
   25fba:	70e9      	strb	r1, [r5, #3]
   25fbc:	1de8      	adds	r0, r5, #7
   25fbe:	2217      	movs	r2, #23
   25fc0:	990d      	ldr	r1, [sp, #52]	@ 0x34
   25fc2:	f000 fe6a 	bl	26c9a <__aeabi_memcpy>
   25fc6:	4c05      	ldr	r4, [pc, #20]	@ (25fdc <_start+0x2350>)
   25fc8:	446c      	add	r4, sp
   25fca:	4620      	mov	r0, r4
   25fcc:	4629      	mov	r1, r5
   25fce:	f7fd fc2b 	bl	23828 <_ZN20complex_full_dynamic3app17hf9bd1aae59d48667E>
   25fd2:	7820      	ldrb	r0, [r4, #0]
   25fd4:	2801      	cmp	r0, #1
   25fd6:	d107      	bne.n	25fe8 <_start+0x235c>
   25fd8:	f7fe f9bd 	bl	24356 <_start+0x6ca>
   25fdc:	0000140c 	.word	0x0000140c
   25fe0:	00000f60 	.word	0x00000f60
   25fe4:	000013b0 	.word	0x000013b0
   25fe8:	4819      	ldr	r0, [pc, #100]	@ (26050 <_start+0x23c4>)
   25fea:	4468      	add	r0, sp
   25fec:	78c1      	ldrb	r1, [r0, #3]
   25fee:	4d19      	ldr	r5, [pc, #100]	@ (26054 <_start+0x23c8>)
   25ff0:	446d      	add	r5, sp
   25ff2:	70a9      	strb	r1, [r5, #2]
   25ff4:	7841      	ldrb	r1, [r0, #1]
   25ff6:	7882      	ldrb	r2, [r0, #2]
   25ff8:	0212      	lsls	r2, r2, #8
   25ffa:	1851      	adds	r1, r2, r1
   25ffc:	8029      	strh	r1, [r5, #0]
   25ffe:	3008      	adds	r0, #8
   26000:	9909      	ldr	r1, [sp, #36]	@ 0x24
   26002:	6e09      	ldr	r1, [r1, #96]	@ 0x60
   26004:	910c      	str	r1, [sp, #48]	@ 0x30
   26006:	4b14      	ldr	r3, [pc, #80]	@ (26058 <_start+0x23cc>)
   26008:	446b      	add	r3, sp
   2600a:	930d      	str	r3, [sp, #52]	@ 0x34
   2600c:	c854      	ldmia	r0!, {r2, r4, r6}
   2600e:	c354      	stmia	r3!, {r2, r4, r6}
   26010:	c854      	ldmia	r0!, {r2, r4, r6}
   26012:	c354      	stmia	r3!, {r2, r4, r6}
   26014:	c854      	ldmia	r0!, {r2, r4, r6}
   26016:	c354      	stmia	r3!, {r2, r4, r6}
   26018:	c856      	ldmia	r0!, {r1, r2, r4, r6}
   2601a:	c356      	stmia	r3!, {r1, r2, r4, r6}
   2601c:	7800      	ldrb	r0, [r0, #0]
   2601e:	7018      	strb	r0, [r3, #0]
   26020:	990c      	ldr	r1, [sp, #48]	@ 0x30
   26022:	0e08      	lsrs	r0, r1, #24
   26024:	71a8      	strb	r0, [r5, #6]
   26026:	0c08      	lsrs	r0, r1, #16
   26028:	7168      	strb	r0, [r5, #5]
   2602a:	0a08      	lsrs	r0, r1, #8
   2602c:	7128      	strb	r0, [r5, #4]
   2602e:	70e9      	strb	r1, [r5, #3]
   26030:	1de8      	adds	r0, r5, #7
   26032:	2235      	movs	r2, #53	@ 0x35
   26034:	990d      	ldr	r1, [sp, #52]	@ 0x34
   26036:	f000 fe30 	bl	26c9a <__aeabi_memcpy>
   2603a:	4c05      	ldr	r4, [pc, #20]	@ (26050 <_start+0x23c4>)
   2603c:	446c      	add	r4, sp
   2603e:	4620      	mov	r0, r4
   26040:	4629      	mov	r1, r5
   26042:	f7fb fd1d 	bl	21a80 <_ZN20complex_full_dynamic3app17h5d1749a3f24151b8E>
   26046:	7820      	ldrb	r0, [r4, #0]
   26048:	2801      	cmp	r0, #1
   2604a:	d107      	bne.n	2605c <_start+0x23d0>
   2604c:	f7fe f983 	bl	24356 <_start+0x6ca>
   26050:	0000140c 	.word	0x0000140c
   26054:	00000f80 	.word	0x00000f80
   26058:	000013b0 	.word	0x000013b0
   2605c:	4817      	ldr	r0, [pc, #92]	@ (260bc <_start+0x2430>)
   2605e:	4468      	add	r0, sp
   26060:	78c1      	ldrb	r1, [r0, #3]
   26062:	4d17      	ldr	r5, [pc, #92]	@ (260c0 <_start+0x2434>)
   26064:	446d      	add	r5, sp
   26066:	70a9      	strb	r1, [r5, #2]
   26068:	7841      	ldrb	r1, [r0, #1]
   2606a:	7882      	ldrb	r2, [r0, #2]
   2606c:	0212      	lsls	r2, r2, #8
   2606e:	1851      	adds	r1, r2, r1
   26070:	8029      	strh	r1, [r5, #0]
   26072:	3008      	adds	r0, #8
   26074:	9909      	ldr	r1, [sp, #36]	@ 0x24
   26076:	6e09      	ldr	r1, [r1, #96]	@ 0x60
   26078:	4b12      	ldr	r3, [pc, #72]	@ (260c4 <_start+0x2438>)
   2607a:	446b      	add	r3, sp
   2607c:	930d      	str	r3, [sp, #52]	@ 0x34
   2607e:	c854      	ldmia	r0!, {r2, r4, r6}
   26080:	c354      	stmia	r3!, {r2, r4, r6}
   26082:	c854      	ldmia	r0!, {r2, r4, r6}
   26084:	c354      	stmia	r3!, {r2, r4, r6}
   26086:	c854      	ldmia	r0!, {r2, r4, r6}
   26088:	c354      	stmia	r3!, {r2, r4, r6}
   2608a:	7800      	ldrb	r0, [r0, #0]
   2608c:	7018      	strb	r0, [r3, #0]
   2608e:	0e08      	lsrs	r0, r1, #24
   26090:	71a8      	strb	r0, [r5, #6]
   26092:	0c08      	lsrs	r0, r1, #16
   26094:	7168      	strb	r0, [r5, #5]
   26096:	0a08      	lsrs	r0, r1, #8
   26098:	7128      	strb	r0, [r5, #4]
   2609a:	70e9      	strb	r1, [r5, #3]
   2609c:	1de8      	adds	r0, r5, #7
   2609e:	2225      	movs	r2, #37	@ 0x25
   260a0:	990d      	ldr	r1, [sp, #52]	@ 0x34
   260a2:	f000 fdfa 	bl	26c9a <__aeabi_memcpy>
   260a6:	4c05      	ldr	r4, [pc, #20]	@ (260bc <_start+0x2430>)
   260a8:	446c      	add	r4, sp
   260aa:	4620      	mov	r0, r4
   260ac:	4629      	mov	r1, r5
   260ae:	f7fd fcfd 	bl	23aac <_ZN20complex_full_dynamic3app17hfad256e54a76856aE>
   260b2:	7820      	ldrb	r0, [r4, #0]
   260b4:	2801      	cmp	r0, #1
   260b6:	d107      	bne.n	260c8 <_start+0x243c>
   260b8:	f7fe f94d 	bl	24356 <_start+0x6ca>
   260bc:	0000140c 	.word	0x0000140c
   260c0:	00000fbc 	.word	0x00000fbc
   260c4:	000013b0 	.word	0x000013b0
   260c8:	4816      	ldr	r0, [pc, #88]	@ (26124 <_start+0x2498>)
   260ca:	4468      	add	r0, sp
   260cc:	78c1      	ldrb	r1, [r0, #3]
   260ce:	4d16      	ldr	r5, [pc, #88]	@ (26128 <_start+0x249c>)
   260d0:	446d      	add	r5, sp
   260d2:	70a9      	strb	r1, [r5, #2]
   260d4:	7841      	ldrb	r1, [r0, #1]
   260d6:	7882      	ldrb	r2, [r0, #2]
   260d8:	0212      	lsls	r2, r2, #8
   260da:	1851      	adds	r1, r2, r1
   260dc:	8029      	strh	r1, [r5, #0]
   260de:	3008      	adds	r0, #8
   260e0:	9909      	ldr	r1, [sp, #36]	@ 0x24
   260e2:	6e09      	ldr	r1, [r1, #96]	@ 0x60
   260e4:	910c      	str	r1, [sp, #48]	@ 0x30
   260e6:	4b11      	ldr	r3, [pc, #68]	@ (2612c <_start+0x24a0>)
   260e8:	446b      	add	r3, sp
   260ea:	930d      	str	r3, [sp, #52]	@ 0x34
   260ec:	c856      	ldmia	r0!, {r1, r2, r4, r6}
   260ee:	c356      	stmia	r3!, {r1, r2, r4, r6}
   260f0:	c856      	ldmia	r0!, {r1, r2, r4, r6}
   260f2:	c356      	stmia	r3!, {r1, r2, r4, r6}
   260f4:	990c      	ldr	r1, [sp, #48]	@ 0x30
   260f6:	0e08      	lsrs	r0, r1, #24
   260f8:	71a8      	strb	r0, [r5, #6]
   260fa:	0c08      	lsrs	r0, r1, #16
   260fc:	7168      	strb	r0, [r5, #5]
   260fe:	0a08      	lsrs	r0, r1, #8
   26100:	7128      	strb	r0, [r5, #4]
   26102:	70e9      	strb	r1, [r5, #3]
   26104:	1de8      	adds	r0, r5, #7
   26106:	2220      	movs	r2, #32
   26108:	990d      	ldr	r1, [sp, #52]	@ 0x34
   2610a:	f000 fdc6 	bl	26c9a <__aeabi_memcpy>
   2610e:	4c05      	ldr	r4, [pc, #20]	@ (26124 <_start+0x2498>)
   26110:	446c      	add	r4, sp
   26112:	4620      	mov	r0, r4
   26114:	4629      	mov	r1, r5
   26116:	f7fc ffc1 	bl	2309c <_ZN20complex_full_dynamic3app17hdb77e29d677926f5E>
   2611a:	7820      	ldrb	r0, [r4, #0]
   2611c:	2801      	cmp	r0, #1
   2611e:	d107      	bne.n	26130 <_start+0x24a4>
   26120:	f7fe f919 	bl	24356 <_start+0x6ca>
   26124:	0000140c 	.word	0x0000140c
   26128:	00000fe8 	.word	0x00000fe8
   2612c:	000013b0 	.word	0x000013b0
   26130:	4915      	ldr	r1, [pc, #84]	@ (26188 <_start+0x24fc>)
   26132:	4469      	add	r1, sp
   26134:	78c8      	ldrb	r0, [r1, #3]
   26136:	4d15      	ldr	r5, [pc, #84]	@ (2618c <_start+0x2500>)
   26138:	446d      	add	r5, sp
   2613a:	70a8      	strb	r0, [r5, #2]
   2613c:	7848      	ldrb	r0, [r1, #1]
   2613e:	788a      	ldrb	r2, [r1, #2]
   26140:	0212      	lsls	r2, r2, #8
   26142:	1810      	adds	r0, r2, r0
   26144:	8028      	strh	r0, [r5, #0]
   26146:	9809      	ldr	r0, [sp, #36]	@ 0x24
   26148:	6e04      	ldr	r4, [r0, #96]	@ 0x60
   2614a:	3108      	adds	r1, #8
   2614c:	4810      	ldr	r0, [pc, #64]	@ (26190 <_start+0x2504>)
   2614e:	4468      	add	r0, sp
   26150:	900d      	str	r0, [sp, #52]	@ 0x34
   26152:	2648      	movs	r6, #72	@ 0x48
   26154:	4632      	mov	r2, r6
   26156:	f000 fc40 	bl	269da <__aeabi_memcpy4>
   2615a:	0e20      	lsrs	r0, r4, #24
   2615c:	71a8      	strb	r0, [r5, #6]
   2615e:	0c20      	lsrs	r0, r4, #16
   26160:	7168      	strb	r0, [r5, #5]
   26162:	0a20      	lsrs	r0, r4, #8
   26164:	7128      	strb	r0, [r5, #4]
   26166:	70ec      	strb	r4, [r5, #3]
   26168:	1de8      	adds	r0, r5, #7
   2616a:	990d      	ldr	r1, [sp, #52]	@ 0x34
   2616c:	4632      	mov	r2, r6
   2616e:	f000 fd94 	bl	26c9a <__aeabi_memcpy>
   26172:	4c05      	ldr	r4, [pc, #20]	@ (26188 <_start+0x24fc>)
   26174:	446c      	add	r4, sp
   26176:	4620      	mov	r0, r4
   26178:	4629      	mov	r1, r5
   2617a:	f7fc f8ef 	bl	2235c <_ZN20complex_full_dynamic3app17h9800bf847526293cE>
   2617e:	7820      	ldrb	r0, [r4, #0]
   26180:	2801      	cmp	r0, #1
   26182:	d107      	bne.n	26194 <_start+0x2508>
   26184:	f7fe f8e7 	bl	24356 <_start+0x6ca>
   26188:	0000140c 	.word	0x0000140c
   2618c:	00001010 	.word	0x00001010
   26190:	000013b0 	.word	0x000013b0
   26194:	4818      	ldr	r0, [pc, #96]	@ (261f8 <_start+0x256c>)
   26196:	4468      	add	r0, sp
   26198:	78c1      	ldrb	r1, [r0, #3]
   2619a:	4d18      	ldr	r5, [pc, #96]	@ (261fc <_start+0x2570>)
   2619c:	446d      	add	r5, sp
   2619e:	70a9      	strb	r1, [r5, #2]
   261a0:	7841      	ldrb	r1, [r0, #1]
   261a2:	7882      	ldrb	r2, [r0, #2]
   261a4:	0212      	lsls	r2, r2, #8
   261a6:	1851      	adds	r1, r2, r1
   261a8:	8029      	strh	r1, [r5, #0]
   261aa:	3008      	adds	r0, #8
   261ac:	9909      	ldr	r1, [sp, #36]	@ 0x24
   261ae:	6e09      	ldr	r1, [r1, #96]	@ 0x60
   261b0:	910c      	str	r1, [sp, #48]	@ 0x30
   261b2:	4b13      	ldr	r3, [pc, #76]	@ (26200 <_start+0x2574>)
   261b4:	446b      	add	r3, sp
   261b6:	930d      	str	r3, [sp, #52]	@ 0x34
   261b8:	c854      	ldmia	r0!, {r2, r4, r6}
   261ba:	c354      	stmia	r3!, {r2, r4, r6}
   261bc:	c856      	ldmia	r0!, {r1, r2, r4, r6}
   261be:	c356      	stmia	r3!, {r1, r2, r4, r6}
   261c0:	c856      	ldmia	r0!, {r1, r2, r4, r6}
   261c2:	c356      	stmia	r3!, {r1, r2, r4, r6}
   261c4:	8800      	ldrh	r0, [r0, #0]
   261c6:	8018      	strh	r0, [r3, #0]
   261c8:	990c      	ldr	r1, [sp, #48]	@ 0x30
   261ca:	0e08      	lsrs	r0, r1, #24
   261cc:	71a8      	strb	r0, [r5, #6]
   261ce:	0c08      	lsrs	r0, r1, #16
   261d0:	7168      	strb	r0, [r5, #5]
   261d2:	0a08      	lsrs	r0, r1, #8
   261d4:	7128      	strb	r0, [r5, #4]
   261d6:	70e9      	strb	r1, [r5, #3]
   261d8:	1de8      	adds	r0, r5, #7
   261da:	222e      	movs	r2, #46	@ 0x2e
   261dc:	990d      	ldr	r1, [sp, #52]	@ 0x34
   261de:	f000 fd5c 	bl	26c9a <__aeabi_memcpy>
   261e2:	4c05      	ldr	r4, [pc, #20]	@ (261f8 <_start+0x256c>)
   261e4:	446c      	add	r4, sp
   261e6:	4620      	mov	r0, r4
   261e8:	4629      	mov	r1, r5
   261ea:	f7fb fc9b 	bl	21b24 <_ZN20complex_full_dynamic3app17h5f59f806c5c47e20E>
   261ee:	7820      	ldrb	r0, [r4, #0]
   261f0:	2801      	cmp	r0, #1
   261f2:	d107      	bne.n	26204 <_start+0x2578>
   261f4:	f7fe f8af 	bl	24356 <_start+0x6ca>
   261f8:	0000140c 	.word	0x0000140c
   261fc:	00001060 	.word	0x00001060
   26200:	000013b0 	.word	0x000013b0
   26204:	4818      	ldr	r0, [pc, #96]	@ (26268 <_start+0x25dc>)
   26206:	4468      	add	r0, sp
   26208:	78c1      	ldrb	r1, [r0, #3]
   2620a:	4d18      	ldr	r5, [pc, #96]	@ (2626c <_start+0x25e0>)
   2620c:	446d      	add	r5, sp
   2620e:	70a9      	strb	r1, [r5, #2]
   26210:	7841      	ldrb	r1, [r0, #1]
   26212:	7882      	ldrb	r2, [r0, #2]
   26214:	0212      	lsls	r2, r2, #8
   26216:	1851      	adds	r1, r2, r1
   26218:	8029      	strh	r1, [r5, #0]
   2621a:	3008      	adds	r0, #8
   2621c:	9909      	ldr	r1, [sp, #36]	@ 0x24
   2621e:	6e09      	ldr	r1, [r1, #96]	@ 0x60
   26220:	910c      	str	r1, [sp, #48]	@ 0x30
   26222:	4b13      	ldr	r3, [pc, #76]	@ (26270 <_start+0x25e4>)
   26224:	446b      	add	r3, sp
   26226:	930d      	str	r3, [sp, #52]	@ 0x34
   26228:	c854      	ldmia	r0!, {r2, r4, r6}
   2622a:	c354      	stmia	r3!, {r2, r4, r6}
   2622c:	c856      	ldmia	r0!, {r1, r2, r4, r6}
   2622e:	c356      	stmia	r3!, {r1, r2, r4, r6}
   26230:	c816      	ldmia	r0!, {r1, r2, r4}
   26232:	c316      	stmia	r3!, {r1, r2, r4}
   26234:	c856      	ldmia	r0!, {r1, r2, r4, r6}
   26236:	c356      	stmia	r3!, {r1, r2, r4, r6}
   26238:	990c      	ldr	r1, [sp, #48]	@ 0x30
   2623a:	0e08      	lsrs	r0, r1, #24
   2623c:	71a8      	strb	r0, [r5, #6]
   2623e:	0c08      	lsrs	r0, r1, #16
   26240:	7168      	strb	r0, [r5, #5]
   26242:	0a08      	lsrs	r0, r1, #8
   26244:	7128      	strb	r0, [r5, #4]
   26246:	70e9      	strb	r1, [r5, #3]
   26248:	1de8      	adds	r0, r5, #7
   2624a:	2238      	movs	r2, #56	@ 0x38
   2624c:	990d      	ldr	r1, [sp, #52]	@ 0x34
   2624e:	f000 fd24 	bl	26c9a <__aeabi_memcpy>
   26252:	4c05      	ldr	r4, [pc, #20]	@ (26268 <_start+0x25dc>)
   26254:	446c      	add	r4, sp
   26256:	4620      	mov	r0, r4
   26258:	4629      	mov	r1, r5
   2625a:	f7fb fe47 	bl	21eec <_ZN20complex_full_dynamic3app17h7d5f76646863a4faE>
   2625e:	7820      	ldrb	r0, [r4, #0]
   26260:	2801      	cmp	r0, #1
   26262:	d107      	bne.n	26274 <_start+0x25e8>
   26264:	f7fe f877 	bl	24356 <_start+0x6ca>
   26268:	0000140c 	.word	0x0000140c
   2626c:	00001098 	.word	0x00001098
   26270:	000013b0 	.word	0x000013b0
   26274:	4815      	ldr	r0, [pc, #84]	@ (262cc <_start+0x2640>)
   26276:	4468      	add	r0, sp
   26278:	78c1      	ldrb	r1, [r0, #3]
   2627a:	4d15      	ldr	r5, [pc, #84]	@ (262d0 <_start+0x2644>)
   2627c:	446d      	add	r5, sp
   2627e:	70a9      	strb	r1, [r5, #2]
   26280:	7841      	ldrb	r1, [r0, #1]
   26282:	7882      	ldrb	r2, [r0, #2]
   26284:	0212      	lsls	r2, r2, #8
   26286:	1851      	adds	r1, r2, r1
   26288:	8029      	strh	r1, [r5, #0]
   2628a:	3008      	adds	r0, #8
   2628c:	9909      	ldr	r1, [sp, #36]	@ 0x24
   2628e:	6e0a      	ldr	r2, [r1, #96]	@ 0x60
   26290:	4910      	ldr	r1, [pc, #64]	@ (262d4 <_start+0x2648>)
   26292:	4469      	add	r1, sp
   26294:	460b      	mov	r3, r1
   26296:	c850      	ldmia	r0!, {r4, r6}
   26298:	c350      	stmia	r3!, {r4, r6}
   2629a:	8800      	ldrh	r0, [r0, #0]
   2629c:	8018      	strh	r0, [r3, #0]
   2629e:	0e10      	lsrs	r0, r2, #24
   262a0:	71a8      	strb	r0, [r5, #6]
   262a2:	0c10      	lsrs	r0, r2, #16
   262a4:	7168      	strb	r0, [r5, #5]
   262a6:	0a10      	lsrs	r0, r2, #8
   262a8:	7128      	strb	r0, [r5, #4]
   262aa:	70ea      	strb	r2, [r5, #3]
   262ac:	1de8      	adds	r0, r5, #7
   262ae:	220a      	movs	r2, #10
   262b0:	f000 fcf3 	bl	26c9a <__aeabi_memcpy>
   262b4:	4c05      	ldr	r4, [pc, #20]	@ (262cc <_start+0x2640>)
   262b6:	446c      	add	r4, sp
   262b8:	4620      	mov	r0, r4
   262ba:	4629      	mov	r1, r5
   262bc:	f7fd f830 	bl	23320 <_ZN20complex_full_dynamic3app17he1da223d5d0a9badE>
   262c0:	7820      	ldrb	r0, [r4, #0]
   262c2:	2801      	cmp	r0, #1
   262c4:	d108      	bne.n	262d8 <_start+0x264c>
   262c6:	f7fe f846 	bl	24356 <_start+0x6ca>
   262ca:	46c0      	nop			@ (mov r8, r8)
   262cc:	0000140c 	.word	0x0000140c
   262d0:	000010d8 	.word	0x000010d8
   262d4:	000013b0 	.word	0x000013b0
   262d8:	4818      	ldr	r0, [pc, #96]	@ (2633c <_start+0x26b0>)
   262da:	4468      	add	r0, sp
   262dc:	78c1      	ldrb	r1, [r0, #3]
   262de:	4d18      	ldr	r5, [pc, #96]	@ (26340 <_start+0x26b4>)
   262e0:	446d      	add	r5, sp
   262e2:	70a9      	strb	r1, [r5, #2]
   262e4:	7841      	ldrb	r1, [r0, #1]
   262e6:	7882      	ldrb	r2, [r0, #2]
   262e8:	0212      	lsls	r2, r2, #8
   262ea:	1851      	adds	r1, r2, r1
   262ec:	8029      	strh	r1, [r5, #0]
   262ee:	3008      	adds	r0, #8
   262f0:	9909      	ldr	r1, [sp, #36]	@ 0x24
   262f2:	6e09      	ldr	r1, [r1, #96]	@ 0x60
   262f4:	910c      	str	r1, [sp, #48]	@ 0x30
   262f6:	4b13      	ldr	r3, [pc, #76]	@ (26344 <_start+0x26b8>)
   262f8:	446b      	add	r3, sp
   262fa:	930d      	str	r3, [sp, #52]	@ 0x34
   262fc:	c854      	ldmia	r0!, {r2, r4, r6}
   262fe:	c354      	stmia	r3!, {r2, r4, r6}
   26300:	c856      	ldmia	r0!, {r1, r2, r4, r6}
   26302:	c356      	stmia	r3!, {r1, r2, r4, r6}
   26304:	c816      	ldmia	r0!, {r1, r2, r4}
   26306:	c316      	stmia	r3!, {r1, r2, r4}
   26308:	c856      	ldmia	r0!, {r1, r2, r4, r6}
   2630a:	c356      	stmia	r3!, {r1, r2, r4, r6}
   2630c:	990c      	ldr	r1, [sp, #48]	@ 0x30
   2630e:	0e08      	lsrs	r0, r1, #24
   26310:	71a8      	strb	r0, [r5, #6]
   26312:	0c08      	lsrs	r0, r1, #16
   26314:	7168      	strb	r0, [r5, #5]
   26316:	0a08      	lsrs	r0, r1, #8
   26318:	7128      	strb	r0, [r5, #4]
   2631a:	70e9      	strb	r1, [r5, #3]
   2631c:	1de8      	adds	r0, r5, #7
   2631e:	2238      	movs	r2, #56	@ 0x38
   26320:	990d      	ldr	r1, [sp, #52]	@ 0x34
   26322:	f000 fcba 	bl	26c9a <__aeabi_memcpy>
   26326:	4c05      	ldr	r4, [pc, #20]	@ (2633c <_start+0x26b0>)
   26328:	446c      	add	r4, sp
   2632a:	4620      	mov	r0, r4
   2632c:	4629      	mov	r1, r5
   2632e:	f7fc fccf 	bl	22cd0 <_ZN20complex_full_dynamic3app17hc875765be8231436E>
   26332:	7820      	ldrb	r0, [r4, #0]
   26334:	2801      	cmp	r0, #1
   26336:	d107      	bne.n	26348 <_start+0x26bc>
   26338:	f7fe f80d 	bl	24356 <_start+0x6ca>
   2633c:	0000140c 	.word	0x0000140c
   26340:	000010ec 	.word	0x000010ec
   26344:	000013b0 	.word	0x000013b0
   26348:	4816      	ldr	r0, [pc, #88]	@ (263a4 <_start+0x2718>)
   2634a:	4468      	add	r0, sp
   2634c:	78c1      	ldrb	r1, [r0, #3]
   2634e:	4d16      	ldr	r5, [pc, #88]	@ (263a8 <_start+0x271c>)
   26350:	446d      	add	r5, sp
   26352:	70a9      	strb	r1, [r5, #2]
   26354:	7841      	ldrb	r1, [r0, #1]
   26356:	7882      	ldrb	r2, [r0, #2]
   26358:	0212      	lsls	r2, r2, #8
   2635a:	1851      	adds	r1, r2, r1
   2635c:	8029      	strh	r1, [r5, #0]
   2635e:	3008      	adds	r0, #8
   26360:	9909      	ldr	r1, [sp, #36]	@ 0x24
   26362:	6e09      	ldr	r1, [r1, #96]	@ 0x60
   26364:	4b11      	ldr	r3, [pc, #68]	@ (263ac <_start+0x2720>)
   26366:	446b      	add	r3, sp
   26368:	930d      	str	r3, [sp, #52]	@ 0x34
   2636a:	c850      	ldmia	r0!, {r4, r6}
   2636c:	c350      	stmia	r3!, {r4, r6}
   2636e:	c854      	ldmia	r0!, {r2, r4, r6}
   26370:	c354      	stmia	r3!, {r2, r4, r6}
   26372:	7800      	ldrb	r0, [r0, #0]
   26374:	7018      	strb	r0, [r3, #0]
   26376:	0e08      	lsrs	r0, r1, #24
   26378:	71a8      	strb	r0, [r5, #6]
   2637a:	0c08      	lsrs	r0, r1, #16
   2637c:	7168      	strb	r0, [r5, #5]
   2637e:	0a08      	lsrs	r0, r1, #8
   26380:	7128      	strb	r0, [r5, #4]
   26382:	70e9      	strb	r1, [r5, #3]
   26384:	1de8      	adds	r0, r5, #7
   26386:	2215      	movs	r2, #21
   26388:	990d      	ldr	r1, [sp, #52]	@ 0x34
   2638a:	f000 fc86 	bl	26c9a <__aeabi_memcpy>
   2638e:	4c05      	ldr	r4, [pc, #20]	@ (263a4 <_start+0x2718>)
   26390:	446c      	add	r4, sp
   26392:	4620      	mov	r0, r4
   26394:	4629      	mov	r1, r5
   26396:	f7fa feb9 	bl	2110c <_ZN20complex_full_dynamic3app17h3c714b09d5f49021E>
   2639a:	7820      	ldrb	r0, [r4, #0]
   2639c:	2801      	cmp	r0, #1
   2639e:	d107      	bne.n	263b0 <_start+0x2724>
   263a0:	f7fd ffd9 	bl	24356 <_start+0x6ca>
   263a4:	0000140c 	.word	0x0000140c
   263a8:	0000112c 	.word	0x0000112c
   263ac:	000013b0 	.word	0x000013b0
   263b0:	4915      	ldr	r1, [pc, #84]	@ (26408 <_start+0x277c>)
   263b2:	4469      	add	r1, sp
   263b4:	78c8      	ldrb	r0, [r1, #3]
   263b6:	4d15      	ldr	r5, [pc, #84]	@ (2640c <_start+0x2780>)
   263b8:	446d      	add	r5, sp
   263ba:	70a8      	strb	r0, [r5, #2]
   263bc:	7848      	ldrb	r0, [r1, #1]
   263be:	788a      	ldrb	r2, [r1, #2]
   263c0:	0212      	lsls	r2, r2, #8
   263c2:	1810      	adds	r0, r2, r0
   263c4:	8028      	strh	r0, [r5, #0]
   263c6:	9809      	ldr	r0, [sp, #36]	@ 0x24
   263c8:	6e04      	ldr	r4, [r0, #96]	@ 0x60
   263ca:	3108      	adds	r1, #8
   263cc:	4810      	ldr	r0, [pc, #64]	@ (26410 <_start+0x2784>)
   263ce:	4468      	add	r0, sp
   263d0:	900d      	str	r0, [sp, #52]	@ 0x34
   263d2:	2656      	movs	r6, #86	@ 0x56
   263d4:	4632      	mov	r2, r6
   263d6:	f000 fb00 	bl	269da <__aeabi_memcpy4>
   263da:	0e20      	lsrs	r0, r4, #24
   263dc:	71a8      	strb	r0, [r5, #6]
   263de:	0c20      	lsrs	r0, r4, #16
   263e0:	7168      	strb	r0, [r5, #5]
   263e2:	0a20      	lsrs	r0, r4, #8
   263e4:	7128      	strb	r0, [r5, #4]
   263e6:	70ec      	strb	r4, [r5, #3]
   263e8:	1de8      	adds	r0, r5, #7
   263ea:	990d      	ldr	r1, [sp, #52]	@ 0x34
   263ec:	4632      	mov	r2, r6
   263ee:	f000 fc54 	bl	26c9a <__aeabi_memcpy>
   263f2:	4c05      	ldr	r4, [pc, #20]	@ (26408 <_start+0x277c>)
   263f4:	446c      	add	r4, sp
   263f6:	4620      	mov	r0, r4
   263f8:	4629      	mov	r1, r5
   263fa:	f7fa fb0b 	bl	20a14 <_ZN20complex_full_dynamic3app17h1ca89fc355751c93E>
   263fe:	7820      	ldrb	r0, [r4, #0]
   26400:	2801      	cmp	r0, #1
   26402:	d107      	bne.n	26414 <_start+0x2788>
   26404:	f7fd ffa7 	bl	24356 <_start+0x6ca>
   26408:	0000140c 	.word	0x0000140c
   2640c:	00001148 	.word	0x00001148
   26410:	000013b0 	.word	0x000013b0
   26414:	4816      	ldr	r0, [pc, #88]	@ (26470 <_start+0x27e4>)
   26416:	4468      	add	r0, sp
   26418:	78c1      	ldrb	r1, [r0, #3]
   2641a:	4d16      	ldr	r5, [pc, #88]	@ (26474 <_start+0x27e8>)
   2641c:	446d      	add	r5, sp
   2641e:	70a9      	strb	r1, [r5, #2]
   26420:	7841      	ldrb	r1, [r0, #1]
   26422:	7882      	ldrb	r2, [r0, #2]
   26424:	0212      	lsls	r2, r2, #8
   26426:	1851      	adds	r1, r2, r1
   26428:	8029      	strh	r1, [r5, #0]
   2642a:	3008      	adds	r0, #8
   2642c:	9909      	ldr	r1, [sp, #36]	@ 0x24
   2642e:	6e0a      	ldr	r2, [r1, #96]	@ 0x60
   26430:	4911      	ldr	r1, [pc, #68]	@ (26478 <_start+0x27ec>)
   26432:	4469      	add	r1, sp
   26434:	460b      	mov	r3, r1
   26436:	c850      	ldmia	r0!, {r4, r6}
   26438:	c350      	stmia	r3!, {r4, r6}
   2643a:	8804      	ldrh	r4, [r0, #0]
   2643c:	801c      	strh	r4, [r3, #0]
   2643e:	7880      	ldrb	r0, [r0, #2]
   26440:	7098      	strb	r0, [r3, #2]
   26442:	0e10      	lsrs	r0, r2, #24
   26444:	71a8      	strb	r0, [r5, #6]
   26446:	0c10      	lsrs	r0, r2, #16
   26448:	7168      	strb	r0, [r5, #5]
   2644a:	0a10      	lsrs	r0, r2, #8
   2644c:	7128      	strb	r0, [r5, #4]
   2644e:	70ea      	strb	r2, [r5, #3]
   26450:	1de8      	adds	r0, r5, #7
   26452:	220b      	movs	r2, #11
   26454:	f000 fc21 	bl	26c9a <__aeabi_memcpy>
   26458:	4c05      	ldr	r4, [pc, #20]	@ (26470 <_start+0x27e4>)
   2645a:	446c      	add	r4, sp
   2645c:	4620      	mov	r0, r4
   2645e:	4629      	mov	r1, r5
   26460:	f7fa ff44 	bl	212ec <_ZN20complex_full_dynamic3app17h3df9a99d78512e9aE>
   26464:	7820      	ldrb	r0, [r4, #0]
   26466:	2801      	cmp	r0, #1
   26468:	d108      	bne.n	2647c <_start+0x27f0>
   2646a:	f7fd ff74 	bl	24356 <_start+0x6ca>
   2646e:	46c0      	nop			@ (mov r8, r8)
   26470:	0000140c 	.word	0x0000140c
   26474:	000011a8 	.word	0x000011a8
   26478:	000013b0 	.word	0x000013b0
   2647c:	4819      	ldr	r0, [pc, #100]	@ (264e4 <_start+0x2858>)
   2647e:	4468      	add	r0, sp
   26480:	78c1      	ldrb	r1, [r0, #3]
   26482:	4d19      	ldr	r5, [pc, #100]	@ (264e8 <_start+0x285c>)
   26484:	446d      	add	r5, sp
   26486:	70a9      	strb	r1, [r5, #2]
   26488:	7841      	ldrb	r1, [r0, #1]
   2648a:	7882      	ldrb	r2, [r0, #2]
   2648c:	0212      	lsls	r2, r2, #8
   2648e:	1851      	adds	r1, r2, r1
   26490:	8029      	strh	r1, [r5, #0]
   26492:	3008      	adds	r0, #8
   26494:	9909      	ldr	r1, [sp, #36]	@ 0x24
   26496:	6e09      	ldr	r1, [r1, #96]	@ 0x60
   26498:	910c      	str	r1, [sp, #48]	@ 0x30
   2649a:	4b14      	ldr	r3, [pc, #80]	@ (264ec <_start+0x2860>)
   2649c:	446b      	add	r3, sp
   2649e:	930d      	str	r3, [sp, #52]	@ 0x34
   264a0:	c854      	ldmia	r0!, {r2, r4, r6}
   264a2:	c354      	stmia	r3!, {r2, r4, r6}
   264a4:	c856      	ldmia	r0!, {r1, r2, r4, r6}
   264a6:	c356      	stmia	r3!, {r1, r2, r4, r6}
   264a8:	c856      	ldmia	r0!, {r1, r2, r4, r6}
   264aa:	c356      	stmia	r3!, {r1, r2, r4, r6}
   264ac:	c856      	ldmia	r0!, {r1, r2, r4, r6}
   264ae:	c356      	stmia	r3!, {r1, r2, r4, r6}
   264b0:	7800      	ldrb	r0, [r0, #0]
   264b2:	7018      	strb	r0, [r3, #0]
   264b4:	990c      	ldr	r1, [sp, #48]	@ 0x30
   264b6:	0e08      	lsrs	r0, r1, #24
   264b8:	71a8      	strb	r0, [r5, #6]
   264ba:	0c08      	lsrs	r0, r1, #16
   264bc:	7168      	strb	r0, [r5, #5]
   264be:	0a08      	lsrs	r0, r1, #8
   264c0:	7128      	strb	r0, [r5, #4]
   264c2:	70e9      	strb	r1, [r5, #3]
   264c4:	1de8      	adds	r0, r5, #7
   264c6:	223d      	movs	r2, #61	@ 0x3d
   264c8:	990d      	ldr	r1, [sp, #52]	@ 0x34
   264ca:	f000 fbe6 	bl	26c9a <__aeabi_memcpy>
   264ce:	4c05      	ldr	r4, [pc, #20]	@ (264e4 <_start+0x2858>)
   264d0:	446c      	add	r4, sp
   264d2:	4620      	mov	r0, r4
   264d4:	4629      	mov	r1, r5
   264d6:	f7fb fef1 	bl	222bc <_ZN20complex_full_dynamic3app17h96b018634d4db85cE>
   264da:	7820      	ldrb	r0, [r4, #0]
   264dc:	2801      	cmp	r0, #1
   264de:	d107      	bne.n	264f0 <_start+0x2864>
   264e0:	f7fd ff39 	bl	24356 <_start+0x6ca>
   264e4:	0000140c 	.word	0x0000140c
   264e8:	000011bc 	.word	0x000011bc
   264ec:	000013b0 	.word	0x000013b0
   264f0:	48fc      	ldr	r0, [pc, #1008]	@ (268e4 <_start+0x2c58>)
   264f2:	4468      	add	r0, sp
   264f4:	78c1      	ldrb	r1, [r0, #3]
   264f6:	4dfd      	ldr	r5, [pc, #1012]	@ (268ec <_start+0x2c60>)
   264f8:	446d      	add	r5, sp
   264fa:	70a9      	strb	r1, [r5, #2]
   264fc:	7841      	ldrb	r1, [r0, #1]
   264fe:	7882      	ldrb	r2, [r0, #2]
   26500:	0212      	lsls	r2, r2, #8
   26502:	1851      	adds	r1, r2, r1
   26504:	8029      	strh	r1, [r5, #0]
   26506:	3008      	adds	r0, #8
   26508:	9909      	ldr	r1, [sp, #36]	@ 0x24
   2650a:	6e09      	ldr	r1, [r1, #96]	@ 0x60
   2650c:	910c      	str	r1, [sp, #48]	@ 0x30
   2650e:	4bf6      	ldr	r3, [pc, #984]	@ (268e8 <_start+0x2c5c>)
   26510:	446b      	add	r3, sp
   26512:	930d      	str	r3, [sp, #52]	@ 0x34
   26514:	c854      	ldmia	r0!, {r2, r4, r6}
   26516:	c354      	stmia	r3!, {r2, r4, r6}
   26518:	c856      	ldmia	r0!, {r1, r2, r4, r6}
   2651a:	c356      	stmia	r3!, {r1, r2, r4, r6}
   2651c:	990c      	ldr	r1, [sp, #48]	@ 0x30
   2651e:	0e08      	lsrs	r0, r1, #24
   26520:	71a8      	strb	r0, [r5, #6]
   26522:	0c08      	lsrs	r0, r1, #16
   26524:	7168      	strb	r0, [r5, #5]
   26526:	0a08      	lsrs	r0, r1, #8
   26528:	7128      	strb	r0, [r5, #4]
   2652a:	70e9      	strb	r1, [r5, #3]
   2652c:	1de8      	adds	r0, r5, #7
   2652e:	221c      	movs	r2, #28
   26530:	990d      	ldr	r1, [sp, #52]	@ 0x34
   26532:	f000 fbb2 	bl	26c9a <__aeabi_memcpy>
   26536:	4ceb      	ldr	r4, [pc, #940]	@ (268e4 <_start+0x2c58>)
   26538:	446c      	add	r4, sp
   2653a:	4620      	mov	r0, r4
   2653c:	4629      	mov	r1, r5
   2653e:	f7fa fbad 	bl	20c9c <_ZN20complex_full_dynamic3app17h289b9c98d6baa3e1E>
   26542:	7820      	ldrb	r0, [r4, #0]
   26544:	2801      	cmp	r0, #1
   26546:	d101      	bne.n	2654c <_start+0x28c0>
   26548:	f7fd ff05 	bl	24356 <_start+0x6ca>
   2654c:	48e5      	ldr	r0, [pc, #916]	@ (268e4 <_start+0x2c58>)
   2654e:	4468      	add	r0, sp
   26550:	78c1      	ldrb	r1, [r0, #3]
   26552:	4de7      	ldr	r5, [pc, #924]	@ (268f0 <_start+0x2c64>)
   26554:	446d      	add	r5, sp
   26556:	70a9      	strb	r1, [r5, #2]
   26558:	7841      	ldrb	r1, [r0, #1]
   2655a:	7882      	ldrb	r2, [r0, #2]
   2655c:	0212      	lsls	r2, r2, #8
   2655e:	1851      	adds	r1, r2, r1
   26560:	8029      	strh	r1, [r5, #0]
   26562:	3008      	adds	r0, #8
   26564:	9909      	ldr	r1, [sp, #36]	@ 0x24
   26566:	6e09      	ldr	r1, [r1, #96]	@ 0x60
   26568:	910c      	str	r1, [sp, #48]	@ 0x30
   2656a:	4bdf      	ldr	r3, [pc, #892]	@ (268e8 <_start+0x2c5c>)
   2656c:	446b      	add	r3, sp
   2656e:	930d      	str	r3, [sp, #52]	@ 0x34
   26570:	c854      	ldmia	r0!, {r2, r4, r6}
   26572:	c354      	stmia	r3!, {r2, r4, r6}
   26574:	c856      	ldmia	r0!, {r1, r2, r4, r6}
   26576:	c356      	stmia	r3!, {r1, r2, r4, r6}
   26578:	7800      	ldrb	r0, [r0, #0]
   2657a:	7018      	strb	r0, [r3, #0]
   2657c:	990c      	ldr	r1, [sp, #48]	@ 0x30
   2657e:	0e08      	lsrs	r0, r1, #24
   26580:	71a8      	strb	r0, [r5, #6]
   26582:	0c08      	lsrs	r0, r1, #16
   26584:	7168      	strb	r0, [r5, #5]
   26586:	0a08      	lsrs	r0, r1, #8
   26588:	7128      	strb	r0, [r5, #4]
   2658a:	70e9      	strb	r1, [r5, #3]
   2658c:	1de8      	adds	r0, r5, #7
   2658e:	221d      	movs	r2, #29
   26590:	990d      	ldr	r1, [sp, #52]	@ 0x34
   26592:	f000 fb82 	bl	26c9a <__aeabi_memcpy>
   26596:	4cd3      	ldr	r4, [pc, #844]	@ (268e4 <_start+0x2c58>)
   26598:	446c      	add	r4, sp
   2659a:	4620      	mov	r0, r4
   2659c:	4629      	mov	r1, r5
   2659e:	f7fb f9cb 	bl	21938 <_ZN20complex_full_dynamic3app17h58c0bdb196fd44c4E>
   265a2:	7820      	ldrb	r0, [r4, #0]
   265a4:	2801      	cmp	r0, #1
   265a6:	d101      	bne.n	265ac <_start+0x2920>
   265a8:	f7fd fed5 	bl	24356 <_start+0x6ca>
   265ac:	48cd      	ldr	r0, [pc, #820]	@ (268e4 <_start+0x2c58>)
   265ae:	4468      	add	r0, sp
   265b0:	78c1      	ldrb	r1, [r0, #3]
   265b2:	4dd0      	ldr	r5, [pc, #832]	@ (268f4 <_start+0x2c68>)
   265b4:	446d      	add	r5, sp
   265b6:	70a9      	strb	r1, [r5, #2]
   265b8:	7841      	ldrb	r1, [r0, #1]
   265ba:	7882      	ldrb	r2, [r0, #2]
   265bc:	0212      	lsls	r2, r2, #8
   265be:	1851      	adds	r1, r2, r1
   265c0:	8029      	strh	r1, [r5, #0]
   265c2:	3008      	adds	r0, #8
   265c4:	9909      	ldr	r1, [sp, #36]	@ 0x24
   265c6:	6e09      	ldr	r1, [r1, #96]	@ 0x60
   265c8:	910c      	str	r1, [sp, #48]	@ 0x30
   265ca:	4bc7      	ldr	r3, [pc, #796]	@ (268e8 <_start+0x2c5c>)
   265cc:	446b      	add	r3, sp
   265ce:	930d      	str	r3, [sp, #52]	@ 0x34
   265d0:	c854      	ldmia	r0!, {r2, r4, r6}
   265d2:	c354      	stmia	r3!, {r2, r4, r6}
   265d4:	c854      	ldmia	r0!, {r2, r4, r6}
   265d6:	c354      	stmia	r3!, {r2, r4, r6}
   265d8:	c856      	ldmia	r0!, {r1, r2, r4, r6}
   265da:	c356      	stmia	r3!, {r1, r2, r4, r6}
   265dc:	990c      	ldr	r1, [sp, #48]	@ 0x30
   265de:	0e08      	lsrs	r0, r1, #24
   265e0:	71a8      	strb	r0, [r5, #6]
   265e2:	0c08      	lsrs	r0, r1, #16
   265e4:	7168      	strb	r0, [r5, #5]
   265e6:	0a08      	lsrs	r0, r1, #8
   265e8:	7128      	strb	r0, [r5, #4]
   265ea:	70e9      	strb	r1, [r5, #3]
   265ec:	1de8      	adds	r0, r5, #7
   265ee:	2228      	movs	r2, #40	@ 0x28
   265f0:	990d      	ldr	r1, [sp, #52]	@ 0x34
   265f2:	f000 fb52 	bl	26c9a <__aeabi_memcpy>
   265f6:	4cbb      	ldr	r4, [pc, #748]	@ (268e4 <_start+0x2c58>)
   265f8:	446c      	add	r4, sp
   265fa:	4620      	mov	r0, r4
   265fc:	4629      	mov	r1, r5
   265fe:	f7fb f80b 	bl	21618 <_ZN20complex_full_dynamic3app17h49e19f22dbacd065E>
   26602:	7820      	ldrb	r0, [r4, #0]
   26604:	2801      	cmp	r0, #1
   26606:	d101      	bne.n	2660c <_start+0x2980>
   26608:	f7fd fea5 	bl	24356 <_start+0x6ca>
   2660c:	49b5      	ldr	r1, [pc, #724]	@ (268e4 <_start+0x2c58>)
   2660e:	4469      	add	r1, sp
   26610:	78c8      	ldrb	r0, [r1, #3]
   26612:	4db9      	ldr	r5, [pc, #740]	@ (268f8 <_start+0x2c6c>)
   26614:	446d      	add	r5, sp
   26616:	70a8      	strb	r0, [r5, #2]
   26618:	7848      	ldrb	r0, [r1, #1]
   2661a:	788a      	ldrb	r2, [r1, #2]
   2661c:	0212      	lsls	r2, r2, #8
   2661e:	1810      	adds	r0, r2, r0
   26620:	8028      	strh	r0, [r5, #0]
   26622:	9809      	ldr	r0, [sp, #36]	@ 0x24
   26624:	6e04      	ldr	r4, [r0, #96]	@ 0x60
   26626:	3108      	adds	r1, #8
   26628:	48af      	ldr	r0, [pc, #700]	@ (268e8 <_start+0x2c5c>)
   2662a:	4468      	add	r0, sp
   2662c:	900d      	str	r0, [sp, #52]	@ 0x34
   2662e:	2657      	movs	r6, #87	@ 0x57
   26630:	4632      	mov	r2, r6
   26632:	f000 f9d2 	bl	269da <__aeabi_memcpy4>
   26636:	0e20      	lsrs	r0, r4, #24
   26638:	71a8      	strb	r0, [r5, #6]
   2663a:	0c20      	lsrs	r0, r4, #16
   2663c:	7168      	strb	r0, [r5, #5]
   2663e:	0a20      	lsrs	r0, r4, #8
   26640:	7128      	strb	r0, [r5, #4]
   26642:	70ec      	strb	r4, [r5, #3]
   26644:	1de8      	adds	r0, r5, #7
   26646:	990d      	ldr	r1, [sp, #52]	@ 0x34
   26648:	4632      	mov	r2, r6
   2664a:	f000 fb26 	bl	26c9a <__aeabi_memcpy>
   2664e:	4ca5      	ldr	r4, [pc, #660]	@ (268e4 <_start+0x2c58>)
   26650:	446c      	add	r4, sp
   26652:	4620      	mov	r0, r4
   26654:	4629      	mov	r1, r5
   26656:	f7fa fbc3 	bl	20de0 <_ZN20complex_full_dynamic3app17h2f636cb730db879eE>
   2665a:	7820      	ldrb	r0, [r4, #0]
   2665c:	2801      	cmp	r0, #1
   2665e:	d101      	bne.n	26664 <_start+0x29d8>
   26660:	f7fd fe79 	bl	24356 <_start+0x6ca>
   26664:	499f      	ldr	r1, [pc, #636]	@ (268e4 <_start+0x2c58>)
   26666:	4469      	add	r1, sp
   26668:	78c8      	ldrb	r0, [r1, #3]
   2666a:	4da4      	ldr	r5, [pc, #656]	@ (268fc <_start+0x2c70>)
   2666c:	446d      	add	r5, sp
   2666e:	70a8      	strb	r0, [r5, #2]
   26670:	7848      	ldrb	r0, [r1, #1]
   26672:	788a      	ldrb	r2, [r1, #2]
   26674:	0212      	lsls	r2, r2, #8
   26676:	1810      	adds	r0, r2, r0
   26678:	8028      	strh	r0, [r5, #0]
   2667a:	9809      	ldr	r0, [sp, #36]	@ 0x24
   2667c:	6e04      	ldr	r4, [r0, #96]	@ 0x60
   2667e:	3108      	adds	r1, #8
   26680:	4899      	ldr	r0, [pc, #612]	@ (268e8 <_start+0x2c5c>)
   26682:	4468      	add	r0, sp
   26684:	900d      	str	r0, [sp, #52]	@ 0x34
   26686:	264e      	movs	r6, #78	@ 0x4e
   26688:	4632      	mov	r2, r6
   2668a:	f000 f9a6 	bl	269da <__aeabi_memcpy4>
   2668e:	0e20      	lsrs	r0, r4, #24
   26690:	71a8      	strb	r0, [r5, #6]
   26692:	0c20      	lsrs	r0, r4, #16
   26694:	7168      	strb	r0, [r5, #5]
   26696:	0a20      	lsrs	r0, r4, #8
   26698:	7128      	strb	r0, [r5, #4]
   2669a:	70ec      	strb	r4, [r5, #3]
   2669c:	1de8      	adds	r0, r5, #7
   2669e:	990d      	ldr	r1, [sp, #52]	@ 0x34
   266a0:	4632      	mov	r2, r6
   266a2:	f000 fafa 	bl	26c9a <__aeabi_memcpy>
   266a6:	4c8f      	ldr	r4, [pc, #572]	@ (268e4 <_start+0x2c58>)
   266a8:	446c      	add	r4, sp
   266aa:	4620      	mov	r0, r4
   266ac:	4629      	mov	r1, r5
   266ae:	f7fc fe87 	bl	233c0 <_ZN20complex_full_dynamic3app17he697060c4c9c520aE>
   266b2:	7820      	ldrb	r0, [r4, #0]
   266b4:	2801      	cmp	r0, #1
   266b6:	d101      	bne.n	266bc <_start+0x2a30>
   266b8:	f7fd fe4d 	bl	24356 <_start+0x6ca>
   266bc:	4889      	ldr	r0, [pc, #548]	@ (268e4 <_start+0x2c58>)
   266be:	4468      	add	r0, sp
   266c0:	78c1      	ldrb	r1, [r0, #3]
   266c2:	4d8f      	ldr	r5, [pc, #572]	@ (26900 <_start+0x2c74>)
   266c4:	446d      	add	r5, sp
   266c6:	70a9      	strb	r1, [r5, #2]
   266c8:	7841      	ldrb	r1, [r0, #1]
   266ca:	7882      	ldrb	r2, [r0, #2]
   266cc:	0212      	lsls	r2, r2, #8
   266ce:	1851      	adds	r1, r2, r1
   266d0:	8029      	strh	r1, [r5, #0]
   266d2:	3008      	adds	r0, #8
   266d4:	9909      	ldr	r1, [sp, #36]	@ 0x24
   266d6:	6e0a      	ldr	r2, [r1, #96]	@ 0x60
   266d8:	4983      	ldr	r1, [pc, #524]	@ (268e8 <_start+0x2c5c>)
   266da:	4469      	add	r1, sp
   266dc:	460b      	mov	r3, r1
   266de:	c850      	ldmia	r0!, {r4, r6}
   266e0:	c350      	stmia	r3!, {r4, r6}
   266e2:	8800      	ldrh	r0, [r0, #0]
   266e4:	8018      	strh	r0, [r3, #0]
   266e6:	0e10      	lsrs	r0, r2, #24
   266e8:	71a8      	strb	r0, [r5, #6]
   266ea:	0c10      	lsrs	r0, r2, #16
   266ec:	7168      	strb	r0, [r5, #5]
   266ee:	0a10      	lsrs	r0, r2, #8
   266f0:	7128      	strb	r0, [r5, #4]
   266f2:	70ea      	strb	r2, [r5, #3]
   266f4:	1de8      	adds	r0, r5, #7
   266f6:	220a      	movs	r2, #10
   266f8:	f000 facf 	bl	26c9a <__aeabi_memcpy>
   266fc:	4c79      	ldr	r4, [pc, #484]	@ (268e4 <_start+0x2c58>)
   266fe:	446c      	add	r4, sp
   26700:	4620      	mov	r0, r4
   26702:	4629      	mov	r1, r5
   26704:	f7f9 fe56 	bl	203b4 <_ZN20complex_full_dynamic3app17h0c6fa23cfb67a4a9E>
   26708:	7820      	ldrb	r0, [r4, #0]
   2670a:	2801      	cmp	r0, #1
   2670c:	d101      	bne.n	26712 <_start+0x2a86>
   2670e:	f7fd fe22 	bl	24356 <_start+0x6ca>
   26712:	4974      	ldr	r1, [pc, #464]	@ (268e4 <_start+0x2c58>)
   26714:	4469      	add	r1, sp
   26716:	78c8      	ldrb	r0, [r1, #3]
   26718:	4d7a      	ldr	r5, [pc, #488]	@ (26904 <_start+0x2c78>)
   2671a:	446d      	add	r5, sp
   2671c:	70a8      	strb	r0, [r5, #2]
   2671e:	7848      	ldrb	r0, [r1, #1]
   26720:	788a      	ldrb	r2, [r1, #2]
   26722:	0212      	lsls	r2, r2, #8
   26724:	1810      	adds	r0, r2, r0
   26726:	8028      	strh	r0, [r5, #0]
   26728:	9809      	ldr	r0, [sp, #36]	@ 0x24
   2672a:	6e04      	ldr	r4, [r0, #96]	@ 0x60
   2672c:	3108      	adds	r1, #8
   2672e:	486e      	ldr	r0, [pc, #440]	@ (268e8 <_start+0x2c5c>)
   26730:	4468      	add	r0, sp
   26732:	900d      	str	r0, [sp, #52]	@ 0x34
   26734:	2649      	movs	r6, #73	@ 0x49
   26736:	4632      	mov	r2, r6
   26738:	f000 f94f 	bl	269da <__aeabi_memcpy4>
   2673c:	0e20      	lsrs	r0, r4, #24
   2673e:	71a8      	strb	r0, [r5, #6]
   26740:	0c20      	lsrs	r0, r4, #16
   26742:	7168      	strb	r0, [r5, #5]
   26744:	0a20      	lsrs	r0, r4, #8
   26746:	7128      	strb	r0, [r5, #4]
   26748:	70ec      	strb	r4, [r5, #3]
   2674a:	1de8      	adds	r0, r5, #7
   2674c:	990d      	ldr	r1, [sp, #52]	@ 0x34
   2674e:	4632      	mov	r2, r6
   26750:	f000 faa3 	bl	26c9a <__aeabi_memcpy>
   26754:	4c63      	ldr	r4, [pc, #396]	@ (268e4 <_start+0x2c58>)
   26756:	446c      	add	r4, sp
   26758:	4620      	mov	r0, r4
   2675a:	4629      	mov	r1, r5
   2675c:	f7fb fa82 	bl	21c64 <_ZN20complex_full_dynamic3app17h6b610090bffdadfeE>
   26760:	7820      	ldrb	r0, [r4, #0]
   26762:	2801      	cmp	r0, #1
   26764:	d101      	bne.n	2676a <_start+0x2ade>
   26766:	f7fd fdf6 	bl	24356 <_start+0x6ca>
   2676a:	485e      	ldr	r0, [pc, #376]	@ (268e4 <_start+0x2c58>)
   2676c:	4468      	add	r0, sp
   2676e:	78c1      	ldrb	r1, [r0, #3]
   26770:	4d65      	ldr	r5, [pc, #404]	@ (26908 <_start+0x2c7c>)
   26772:	446d      	add	r5, sp
   26774:	70a9      	strb	r1, [r5, #2]
   26776:	7841      	ldrb	r1, [r0, #1]
   26778:	7882      	ldrb	r2, [r0, #2]
   2677a:	0212      	lsls	r2, r2, #8
   2677c:	1851      	adds	r1, r2, r1
   2677e:	8029      	strh	r1, [r5, #0]
   26780:	3008      	adds	r0, #8
   26782:	9909      	ldr	r1, [sp, #36]	@ 0x24
   26784:	6e09      	ldr	r1, [r1, #96]	@ 0x60
   26786:	4b58      	ldr	r3, [pc, #352]	@ (268e8 <_start+0x2c5c>)
   26788:	446b      	add	r3, sp
   2678a:	930d      	str	r3, [sp, #52]	@ 0x34
   2678c:	c850      	ldmia	r0!, {r4, r6}
   2678e:	c350      	stmia	r3!, {r4, r6}
   26790:	c854      	ldmia	r0!, {r2, r4, r6}
   26792:	c354      	stmia	r3!, {r2, r4, r6}
   26794:	0e08      	lsrs	r0, r1, #24
   26796:	71a8      	strb	r0, [r5, #6]
   26798:	0c08      	lsrs	r0, r1, #16
   2679a:	7168      	strb	r0, [r5, #5]
   2679c:	0a08      	lsrs	r0, r1, #8
   2679e:	7128      	strb	r0, [r5, #4]
   267a0:	70e9      	strb	r1, [r5, #3]
   267a2:	1de8      	adds	r0, r5, #7
   267a4:	2214      	movs	r2, #20
   267a6:	990d      	ldr	r1, [sp, #52]	@ 0x34
   267a8:	f000 fa77 	bl	26c9a <__aeabi_memcpy>
   267ac:	4c4d      	ldr	r4, [pc, #308]	@ (268e4 <_start+0x2c58>)
   267ae:	446c      	add	r4, sp
   267b0:	4620      	mov	r0, r4
   267b2:	4629      	mov	r1, r5
   267b4:	f7fc f9ec 	bl	22b90 <_ZN20complex_full_dynamic3app17hc4933b1ae954b624E>
   267b8:	7820      	ldrb	r0, [r4, #0]
   267ba:	2801      	cmp	r0, #1
   267bc:	d101      	bne.n	267c2 <_start+0x2b36>
   267be:	f7fd fdca 	bl	24356 <_start+0x6ca>
   267c2:	4948      	ldr	r1, [pc, #288]	@ (268e4 <_start+0x2c58>)
   267c4:	4469      	add	r1, sp
   267c6:	78c8      	ldrb	r0, [r1, #3]
   267c8:	4d50      	ldr	r5, [pc, #320]	@ (2690c <_start+0x2c80>)
   267ca:	446d      	add	r5, sp
   267cc:	70a8      	strb	r0, [r5, #2]
   267ce:	7848      	ldrb	r0, [r1, #1]
   267d0:	788a      	ldrb	r2, [r1, #2]
   267d2:	0212      	lsls	r2, r2, #8
   267d4:	1810      	adds	r0, r2, r0
   267d6:	8028      	strh	r0, [r5, #0]
   267d8:	9809      	ldr	r0, [sp, #36]	@ 0x24
   267da:	6e04      	ldr	r4, [r0, #96]	@ 0x60
   267dc:	3108      	adds	r1, #8
   267de:	4842      	ldr	r0, [pc, #264]	@ (268e8 <_start+0x2c5c>)
   267e0:	4468      	add	r0, sp
   267e2:	900d      	str	r0, [sp, #52]	@ 0x34
   267e4:	265c      	movs	r6, #92	@ 0x5c
   267e6:	4632      	mov	r2, r6
   267e8:	f000 f8f7 	bl	269da <__aeabi_memcpy4>
   267ec:	0e20      	lsrs	r0, r4, #24
   267ee:	71a8      	strb	r0, [r5, #6]
   267f0:	0c20      	lsrs	r0, r4, #16
   267f2:	7168      	strb	r0, [r5, #5]
   267f4:	0a20      	lsrs	r0, r4, #8
   267f6:	7128      	strb	r0, [r5, #4]
   267f8:	70ec      	strb	r4, [r5, #3]
   267fa:	1de8      	adds	r0, r5, #7
   267fc:	990d      	ldr	r1, [sp, #52]	@ 0x34
   267fe:	4632      	mov	r2, r6
   26800:	f000 fa4b 	bl	26c9a <__aeabi_memcpy>
   26804:	4c37      	ldr	r4, [pc, #220]	@ (268e4 <_start+0x2c58>)
   26806:	446c      	add	r4, sp
   26808:	4620      	mov	r0, r4
   2680a:	4629      	mov	r1, r5
   2680c:	f7fa fcd0 	bl	211b0 <_ZN20complex_full_dynamic3app17h3d4b85f4445ab487E>
   26810:	7820      	ldrb	r0, [r4, #0]
   26812:	2801      	cmp	r0, #1
   26814:	d101      	bne.n	2681a <_start+0x2b8e>
   26816:	f7fd fd9e 	bl	24356 <_start+0x6ca>
   2681a:	4832      	ldr	r0, [pc, #200]	@ (268e4 <_start+0x2c58>)
   2681c:	4468      	add	r0, sp
   2681e:	78c1      	ldrb	r1, [r0, #3]
   26820:	4d3b      	ldr	r5, [pc, #236]	@ (26910 <_start+0x2c84>)
   26822:	446d      	add	r5, sp
   26824:	70a9      	strb	r1, [r5, #2]
   26826:	7841      	ldrb	r1, [r0, #1]
   26828:	7882      	ldrb	r2, [r0, #2]
   2682a:	0212      	lsls	r2, r2, #8
   2682c:	1851      	adds	r1, r2, r1
   2682e:	8029      	strh	r1, [r5, #0]
   26830:	3008      	adds	r0, #8
   26832:	9909      	ldr	r1, [sp, #36]	@ 0x24
   26834:	6e09      	ldr	r1, [r1, #96]	@ 0x60
   26836:	4b2c      	ldr	r3, [pc, #176]	@ (268e8 <_start+0x2c5c>)
   26838:	446b      	add	r3, sp
   2683a:	930d      	str	r3, [sp, #52]	@ 0x34
   2683c:	c854      	ldmia	r0!, {r2, r4, r6}
   2683e:	c354      	stmia	r3!, {r2, r4, r6}
   26840:	c854      	ldmia	r0!, {r2, r4, r6}
   26842:	c354      	stmia	r3!, {r2, r4, r6}
   26844:	c854      	ldmia	r0!, {r2, r4, r6}
   26846:	c354      	stmia	r3!, {r2, r4, r6}
   26848:	7800      	ldrb	r0, [r0, #0]
   2684a:	7018      	strb	r0, [r3, #0]
   2684c:	0e08      	lsrs	r0, r1, #24
   2684e:	71a8      	strb	r0, [r5, #6]
   26850:	0c08      	lsrs	r0, r1, #16
   26852:	7168      	strb	r0, [r5, #5]
   26854:	0a08      	lsrs	r0, r1, #8
   26856:	7128      	strb	r0, [r5, #4]
   26858:	70e9      	strb	r1, [r5, #3]
   2685a:	1de8      	adds	r0, r5, #7
   2685c:	2225      	movs	r2, #37	@ 0x25
   2685e:	990d      	ldr	r1, [sp, #52]	@ 0x34
   26860:	f000 fa1b 	bl	26c9a <__aeabi_memcpy>
   26864:	4c1f      	ldr	r4, [pc, #124]	@ (268e4 <_start+0x2c58>)
   26866:	446c      	add	r4, sp
   26868:	4620      	mov	r0, r4
   2686a:	4629      	mov	r1, r5
   2686c:	f7fb fc30 	bl	220d0 <_ZN20complex_full_dynamic3app17h89a57767909f7919E>
   26870:	7820      	ldrb	r0, [r4, #0]
   26872:	2801      	cmp	r0, #1
   26874:	d101      	bne.n	2687a <_start+0x2bee>
   26876:	f7fd fd6e 	bl	24356 <_start+0x6ca>
   2687a:	481a      	ldr	r0, [pc, #104]	@ (268e4 <_start+0x2c58>)
   2687c:	4468      	add	r0, sp
   2687e:	78c1      	ldrb	r1, [r0, #3]
   26880:	4d24      	ldr	r5, [pc, #144]	@ (26914 <_start+0x2c88>)
   26882:	446d      	add	r5, sp
   26884:	70a9      	strb	r1, [r5, #2]
   26886:	7841      	ldrb	r1, [r0, #1]
   26888:	7882      	ldrb	r2, [r0, #2]
   2688a:	0212      	lsls	r2, r2, #8
   2688c:	1851      	adds	r1, r2, r1
   2688e:	8029      	strh	r1, [r5, #0]
   26890:	3008      	adds	r0, #8
   26892:	9909      	ldr	r1, [sp, #36]	@ 0x24
   26894:	6e09      	ldr	r1, [r1, #96]	@ 0x60
   26896:	910c      	str	r1, [sp, #48]	@ 0x30
   26898:	4b13      	ldr	r3, [pc, #76]	@ (268e8 <_start+0x2c5c>)
   2689a:	446b      	add	r3, sp
   2689c:	930d      	str	r3, [sp, #52]	@ 0x34
   2689e:	c856      	ldmia	r0!, {r1, r2, r4, r6}
   268a0:	c356      	stmia	r3!, {r1, r2, r4, r6}
   268a2:	c856      	ldmia	r0!, {r1, r2, r4, r6}
   268a4:	c356      	stmia	r3!, {r1, r2, r4, r6}
   268a6:	8801      	ldrh	r1, [r0, #0]
   268a8:	8019      	strh	r1, [r3, #0]
   268aa:	7880      	ldrb	r0, [r0, #2]
   268ac:	7098      	strb	r0, [r3, #2]
   268ae:	990c      	ldr	r1, [sp, #48]	@ 0x30
   268b0:	0e08      	lsrs	r0, r1, #24
   268b2:	71a8      	strb	r0, [r5, #6]
   268b4:	0c08      	lsrs	r0, r1, #16
   268b6:	7168      	strb	r0, [r5, #5]
   268b8:	0a08      	lsrs	r0, r1, #8
   268ba:	7128      	strb	r0, [r5, #4]
   268bc:	70e9      	strb	r1, [r5, #3]
   268be:	1de8      	adds	r0, r5, #7
   268c0:	2223      	movs	r2, #35	@ 0x23
   268c2:	990d      	ldr	r1, [sp, #52]	@ 0x34
   268c4:	f000 f9e9 	bl	26c9a <__aeabi_memcpy>
   268c8:	4c06      	ldr	r4, [pc, #24]	@ (268e4 <_start+0x2c58>)
   268ca:	446c      	add	r4, sp
   268cc:	4620      	mov	r0, r4
   268ce:	4629      	mov	r1, r5
   268d0:	f7fc fe16 	bl	23500 <_ZN20complex_full_dynamic3app17heb7799a221b2e758E>
   268d4:	7820      	ldrb	r0, [r4, #0]
   268d6:	2801      	cmp	r0, #1
   268d8:	d101      	bne.n	268de <_start+0x2c52>
   268da:	f7fd fd3c 	bl	24356 <_start+0x6ca>
   268de:	9804      	ldr	r0, [sp, #16]
   268e0:	f7fd fd9a 	bl	24418 <_start+0x78c>
   268e4:	0000140c 	.word	0x0000140c
   268e8:	000013b0 	.word	0x000013b0
   268ec:	00001200 	.word	0x00001200
   268f0:	00001224 	.word	0x00001224
   268f4:	00001248 	.word	0x00001248
   268f8:	00001278 	.word	0x00001278
   268fc:	000012d8 	.word	0x000012d8
   26900:	00001330 	.word	0x00001330
   26904:	00001344 	.word	0x00001344
   26908:	00001394 	.word	0x00001394
   2690c:	00001470 	.word	0x00001470
   26910:	000014d4 	.word	0x000014d4
   26914:	00001500 	.word	0x00001500

00026918 <_ZN9allow_pin12full_dynamic17unshare_if_shared17h2809d14697b066c7E>:
   26918:	b5d0      	push	{r4, r6, r7, lr}
   2691a:	af02      	add	r7, sp, #8
   2691c:	7a02      	ldrb	r2, [r0, #8]
   2691e:	2a02      	cmp	r2, #2
   26920:	d00d      	beq.n	2693e <_ZN9allow_pin12full_dynamic17unshare_if_shared17h2809d14697b066c7E+0x26>
   26922:	4604      	mov	r4, r0
   26924:	6800      	ldr	r0, [r0, #0]
   26926:	6861      	ldr	r1, [r4, #4]
   26928:	2a03      	cmp	r2, #3
   2692a:	d103      	bne.n	26934 <_ZN9allow_pin12full_dynamic17unshare_if_shared17h2809d14697b066c7E+0x1c>
   2692c:	2200      	movs	r2, #0
   2692e:	4613      	mov	r3, r2
   26930:	df03      	svc	3
   26932:	e002      	b.n	2693a <_ZN9allow_pin12full_dynamic17unshare_if_shared17h2809d14697b066c7E+0x22>
   26934:	2200      	movs	r2, #0
   26936:	4613      	mov	r3, r2
   26938:	df04      	svc	4
   2693a:	2002      	movs	r0, #2
   2693c:	7220      	strb	r0, [r4, #8]
   2693e:	bdd0      	pop	{r4, r6, r7, pc}

00026940 <__aeabi_memclr4>:
   26940:	b5f0      	push	{r4, r5, r6, r7, lr}
   26942:	af03      	add	r7, sp, #12
   26944:	2904      	cmp	r1, #4
   26946:	d311      	bcc.n	2696c <__aeabi_memclr4+0x2c>
   26948:	1f0c      	subs	r4, r1, #4
   2694a:	250c      	movs	r5, #12
   2694c:	4025      	ands	r5, r4
   2694e:	2d0c      	cmp	r5, #12
   26950:	d012      	beq.n	26978 <__aeabi_memclr4+0x38>
   26952:	2600      	movs	r6, #0
   26954:	4602      	mov	r2, r0
   26956:	c240      	stmia	r2!, {r6}
   26958:	0723      	lsls	r3, r4, #28
   2695a:	0f9b      	lsrs	r3, r3, #30
   2695c:	4623      	mov	r3, r4
   2695e:	d00d      	beq.n	2697c <__aeabi_memclr4+0x3c>
   26960:	6046      	str	r6, [r0, #4]
   26962:	2d04      	cmp	r5, #4
   26964:	d105      	bne.n	26972 <__aeabi_memclr4+0x32>
   26966:	3908      	subs	r1, #8
   26968:	3008      	adds	r0, #8
   2696a:	e005      	b.n	26978 <__aeabi_memclr4+0x38>
   2696c:	460b      	mov	r3, r1
   2696e:	4602      	mov	r2, r0
   26970:	e00f      	b.n	26992 <__aeabi_memclr4+0x52>
   26972:	6086      	str	r6, [r0, #8]
   26974:	390c      	subs	r1, #12
   26976:	300c      	adds	r0, #12
   26978:	4602      	mov	r2, r0
   2697a:	460b      	mov	r3, r1
   2697c:	2c0c      	cmp	r4, #12
   2697e:	d308      	bcc.n	26992 <__aeabi_memclr4+0x52>
   26980:	2000      	movs	r0, #0
   26982:	6010      	str	r0, [r2, #0]
   26984:	6050      	str	r0, [r2, #4]
   26986:	6090      	str	r0, [r2, #8]
   26988:	60d0      	str	r0, [r2, #12]
   2698a:	3210      	adds	r2, #16
   2698c:	3b10      	subs	r3, #16
   2698e:	2b03      	cmp	r3, #3
   26990:	d8f6      	bhi.n	26980 <__aeabi_memclr4+0x40>
   26992:	18d0      	adds	r0, r2, r3
   26994:	4282      	cmp	r2, r0
   26996:	d21a      	bcs.n	269ce <__aeabi_memclr4+0x8e>
   26998:	2403      	movs	r4, #3
   2699a:	401c      	ands	r4, r3
   2699c:	1e59      	subs	r1, r3, #1
   2699e:	2c00      	cmp	r4, #0
   269a0:	d00b      	beq.n	269ba <__aeabi_memclr4+0x7a>
   269a2:	2300      	movs	r3, #0
   269a4:	7013      	strb	r3, [r2, #0]
   269a6:	2c01      	cmp	r4, #1
   269a8:	d103      	bne.n	269b2 <__aeabi_memclr4+0x72>
   269aa:	1c52      	adds	r2, r2, #1
   269ac:	2903      	cmp	r1, #3
   269ae:	d206      	bcs.n	269be <__aeabi_memclr4+0x7e>
   269b0:	e00d      	b.n	269ce <__aeabi_memclr4+0x8e>
   269b2:	7053      	strb	r3, [r2, #1]
   269b4:	2c02      	cmp	r4, #2
   269b6:	d10b      	bne.n	269d0 <__aeabi_memclr4+0x90>
   269b8:	1c92      	adds	r2, r2, #2
   269ba:	2903      	cmp	r1, #3
   269bc:	d307      	bcc.n	269ce <__aeabi_memclr4+0x8e>
   269be:	2100      	movs	r1, #0
   269c0:	70d1      	strb	r1, [r2, #3]
   269c2:	7091      	strb	r1, [r2, #2]
   269c4:	7051      	strb	r1, [r2, #1]
   269c6:	7011      	strb	r1, [r2, #0]
   269c8:	1d12      	adds	r2, r2, #4
   269ca:	4282      	cmp	r2, r0
   269cc:	d1f7      	bne.n	269be <__aeabi_memclr4+0x7e>
   269ce:	bdf0      	pop	{r4, r5, r6, r7, pc}
   269d0:	7093      	strb	r3, [r2, #2]
   269d2:	1cd2      	adds	r2, r2, #3
   269d4:	2903      	cmp	r1, #3
   269d6:	d2f2      	bcs.n	269be <__aeabi_memclr4+0x7e>
   269d8:	e7f9      	b.n	269ce <__aeabi_memclr4+0x8e>

000269da <__aeabi_memcpy4>:
   269da:	b5f0      	push	{r4, r5, r6, r7, lr}
   269dc:	af03      	add	r7, sp, #12
   269de:	b081      	sub	sp, #4
   269e0:	2a04      	cmp	r2, #4
   269e2:	d32d      	bcc.n	26a40 <__aeabi_memcpy4+0x66>
   269e4:	1f13      	subs	r3, r2, #4
   269e6:	250c      	movs	r5, #12
   269e8:	401d      	ands	r5, r3
   269ea:	2d0c      	cmp	r5, #12
   269ec:	d019      	beq.n	26a22 <__aeabi_memcpy4+0x48>
   269ee:	9200      	str	r2, [sp, #0]
   269f0:	460e      	mov	r6, r1
   269f2:	c904      	ldmia	r1!, {r2}
   269f4:	4604      	mov	r4, r0
   269f6:	c004      	stmia	r0!, {r2}
   269f8:	071a      	lsls	r2, r3, #28
   269fa:	0f92      	lsrs	r2, r2, #30
   269fc:	461a      	mov	r2, r3
   269fe:	d010      	beq.n	26a22 <__aeabi_memcpy4+0x48>
   26a00:	4631      	mov	r1, r6
   26a02:	6872      	ldr	r2, [r6, #4]
   26a04:	6062      	str	r2, [r4, #4]
   26a06:	2d04      	cmp	r5, #4
   26a08:	d104      	bne.n	26a14 <__aeabi_memcpy4+0x3a>
   26a0a:	9a00      	ldr	r2, [sp, #0]
   26a0c:	3a08      	subs	r2, #8
   26a0e:	3108      	adds	r1, #8
   26a10:	3408      	adds	r4, #8
   26a12:	e005      	b.n	26a20 <__aeabi_memcpy4+0x46>
   26a14:	688a      	ldr	r2, [r1, #8]
   26a16:	60a2      	str	r2, [r4, #8]
   26a18:	9a00      	ldr	r2, [sp, #0]
   26a1a:	3a0c      	subs	r2, #12
   26a1c:	310c      	adds	r1, #12
   26a1e:	340c      	adds	r4, #12
   26a20:	4620      	mov	r0, r4
   26a22:	2b0c      	cmp	r3, #12
   26a24:	d30c      	bcc.n	26a40 <__aeabi_memcpy4+0x66>
   26a26:	680b      	ldr	r3, [r1, #0]
   26a28:	6003      	str	r3, [r0, #0]
   26a2a:	684b      	ldr	r3, [r1, #4]
   26a2c:	6043      	str	r3, [r0, #4]
   26a2e:	688b      	ldr	r3, [r1, #8]
   26a30:	6083      	str	r3, [r0, #8]
   26a32:	68cb      	ldr	r3, [r1, #12]
   26a34:	60c3      	str	r3, [r0, #12]
   26a36:	3110      	adds	r1, #16
   26a38:	3010      	adds	r0, #16
   26a3a:	3a10      	subs	r2, #16
   26a3c:	2a03      	cmp	r2, #3
   26a3e:	d8f2      	bhi.n	26a26 <__aeabi_memcpy4+0x4c>
   26a40:	f000 f802 	bl	26a48 <_ZN17compiler_builtins3mem6memcpy17h1f9dbb1c3fd18e2fE>
   26a44:	b001      	add	sp, #4
   26a46:	bdf0      	pop	{r4, r5, r6, r7, pc}

00026a48 <_ZN17compiler_builtins3mem6memcpy17h1f9dbb1c3fd18e2fE>:
   26a48:	b5f0      	push	{r4, r5, r6, r7, lr}
   26a4a:	af03      	add	r7, sp, #12
   26a4c:	b08f      	sub	sp, #60	@ 0x3c
   26a4e:	2a10      	cmp	r2, #16
   26a50:	d315      	bcc.n	26a7e <_ZN17compiler_builtins3mem6memcpy17h1f9dbb1c3fd18e2fE+0x36>
   26a52:	920b      	str	r2, [sp, #44]	@ 0x2c
   26a54:	4242      	negs	r2, r0
   26a56:	2303      	movs	r3, #3
   26a58:	9308      	str	r3, [sp, #32]
   26a5a:	401a      	ands	r2, r3
   26a5c:	1885      	adds	r5, r0, r2
   26a5e:	900a      	str	r0, [sp, #40]	@ 0x28
   26a60:	42a8      	cmp	r0, r5
   26a62:	d22a      	bcs.n	26aba <_ZN17compiler_builtins3mem6memcpy17h1f9dbb1c3fd18e2fE+0x72>
   26a64:	1e54      	subs	r4, r2, #1
   26a66:	2a00      	cmp	r2, #0
   26a68:	980a      	ldr	r0, [sp, #40]	@ 0x28
   26a6a:	4606      	mov	r6, r0
   26a6c:	460b      	mov	r3, r1
   26a6e:	d016      	beq.n	26a9e <_ZN17compiler_builtins3mem6memcpy17h1f9dbb1c3fd18e2fE+0x56>
   26a70:	780b      	ldrb	r3, [r1, #0]
   26a72:	7003      	strb	r3, [r0, #0]
   26a74:	2a01      	cmp	r2, #1
   26a76:	d107      	bne.n	26a88 <_ZN17compiler_builtins3mem6memcpy17h1f9dbb1c3fd18e2fE+0x40>
   26a78:	1c4b      	adds	r3, r1, #1
   26a7a:	1c46      	adds	r6, r0, #1
   26a7c:	e00f      	b.n	26a9e <_ZN17compiler_builtins3mem6memcpy17h1f9dbb1c3fd18e2fE+0x56>
   26a7e:	4603      	mov	r3, r0
   26a80:	189c      	adds	r4, r3, r2
   26a82:	42a3      	cmp	r3, r4
   26a84:	d341      	bcc.n	26b0a <_ZN17compiler_builtins3mem6memcpy17h1f9dbb1c3fd18e2fE+0xc2>
   26a86:	e062      	b.n	26b4e <_ZN17compiler_builtins3mem6memcpy17h1f9dbb1c3fd18e2fE+0x106>
   26a88:	784b      	ldrb	r3, [r1, #1]
   26a8a:	7043      	strb	r3, [r0, #1]
   26a8c:	2a02      	cmp	r2, #2
   26a8e:	d102      	bne.n	26a96 <_ZN17compiler_builtins3mem6memcpy17h1f9dbb1c3fd18e2fE+0x4e>
   26a90:	1c8b      	adds	r3, r1, #2
   26a92:	1c86      	adds	r6, r0, #2
   26a94:	e003      	b.n	26a9e <_ZN17compiler_builtins3mem6memcpy17h1f9dbb1c3fd18e2fE+0x56>
   26a96:	788b      	ldrb	r3, [r1, #2]
   26a98:	7083      	strb	r3, [r0, #2]
   26a9a:	1ccb      	adds	r3, r1, #3
   26a9c:	1cc6      	adds	r6, r0, #3
   26a9e:	2c03      	cmp	r4, #3
   26aa0:	d30b      	bcc.n	26aba <_ZN17compiler_builtins3mem6memcpy17h1f9dbb1c3fd18e2fE+0x72>
   26aa2:	781c      	ldrb	r4, [r3, #0]
   26aa4:	7034      	strb	r4, [r6, #0]
   26aa6:	785c      	ldrb	r4, [r3, #1]
   26aa8:	7074      	strb	r4, [r6, #1]
   26aaa:	789c      	ldrb	r4, [r3, #2]
   26aac:	70b4      	strb	r4, [r6, #2]
   26aae:	78dc      	ldrb	r4, [r3, #3]
   26ab0:	70f4      	strb	r4, [r6, #3]
   26ab2:	1d1b      	adds	r3, r3, #4
   26ab4:	1d36      	adds	r6, r6, #4
   26ab6:	42ae      	cmp	r6, r5
   26ab8:	d1f3      	bne.n	26aa2 <_ZN17compiler_builtins3mem6memcpy17h1f9dbb1c3fd18e2fE+0x5a>
   26aba:	980b      	ldr	r0, [sp, #44]	@ 0x2c
   26abc:	1a80      	subs	r0, r0, r2
   26abe:	900b      	str	r0, [sp, #44]	@ 0x2c
   26ac0:	9c08      	ldr	r4, [sp, #32]
   26ac2:	43a0      	bics	r0, r4
   26ac4:	182b      	adds	r3, r5, r0
   26ac6:	188e      	adds	r6, r1, r2
   26ac8:	9609      	str	r6, [sp, #36]	@ 0x24
   26aca:	4026      	ands	r6, r4
   26acc:	9007      	str	r0, [sp, #28]
   26ace:	d147      	bne.n	26b60 <_ZN17compiler_builtins3mem6memcpy17h1f9dbb1c3fd18e2fE+0x118>
   26ad0:	429d      	cmp	r5, r3
   26ad2:	9a0b      	ldr	r2, [sp, #44]	@ 0x2c
   26ad4:	9e09      	ldr	r6, [sp, #36]	@ 0x24
   26ad6:	d211      	bcs.n	26afc <_ZN17compiler_builtins3mem6memcpy17h1f9dbb1c3fd18e2fE+0xb4>
   26ad8:	4631      	mov	r1, r6
   26ada:	6808      	ldr	r0, [r1, #0]
   26adc:	c501      	stmia	r5!, {r0}
   26ade:	429d      	cmp	r5, r3
   26ae0:	d20c      	bcs.n	26afc <_ZN17compiler_builtins3mem6memcpy17h1f9dbb1c3fd18e2fE+0xb4>
   26ae2:	6848      	ldr	r0, [r1, #4]
   26ae4:	c501      	stmia	r5!, {r0}
   26ae6:	429d      	cmp	r5, r3
   26ae8:	d208      	bcs.n	26afc <_ZN17compiler_builtins3mem6memcpy17h1f9dbb1c3fd18e2fE+0xb4>
   26aea:	6888      	ldr	r0, [r1, #8]
   26aec:	c501      	stmia	r5!, {r0}
   26aee:	429d      	cmp	r5, r3
   26af0:	d204      	bcs.n	26afc <_ZN17compiler_builtins3mem6memcpy17h1f9dbb1c3fd18e2fE+0xb4>
   26af2:	68c8      	ldr	r0, [r1, #12]
   26af4:	c501      	stmia	r5!, {r0}
   26af6:	3110      	adds	r1, #16
   26af8:	429d      	cmp	r5, r3
   26afa:	d3ee      	bcc.n	26ada <_ZN17compiler_builtins3mem6memcpy17h1f9dbb1c3fd18e2fE+0x92>
   26afc:	4022      	ands	r2, r4
   26afe:	9807      	ldr	r0, [sp, #28]
   26b00:	1831      	adds	r1, r6, r0
   26b02:	980a      	ldr	r0, [sp, #40]	@ 0x28
   26b04:	189c      	adds	r4, r3, r2
   26b06:	42a3      	cmp	r3, r4
   26b08:	d221      	bcs.n	26b4e <_ZN17compiler_builtins3mem6memcpy17h1f9dbb1c3fd18e2fE+0x106>
   26b0a:	2503      	movs	r5, #3
   26b0c:	4015      	ands	r5, r2
   26b0e:	1e52      	subs	r2, r2, #1
   26b10:	2d00      	cmp	r5, #0
   26b12:	d00e      	beq.n	26b32 <_ZN17compiler_builtins3mem6memcpy17h1f9dbb1c3fd18e2fE+0xea>
   26b14:	780e      	ldrb	r6, [r1, #0]
   26b16:	701e      	strb	r6, [r3, #0]
   26b18:	2d01      	cmp	r5, #1
   26b1a:	d104      	bne.n	26b26 <_ZN17compiler_builtins3mem6memcpy17h1f9dbb1c3fd18e2fE+0xde>
   26b1c:	1c49      	adds	r1, r1, #1
   26b1e:	1c5b      	adds	r3, r3, #1
   26b20:	2a03      	cmp	r2, #3
   26b22:	d208      	bcs.n	26b36 <_ZN17compiler_builtins3mem6memcpy17h1f9dbb1c3fd18e2fE+0xee>
   26b24:	e013      	b.n	26b4e <_ZN17compiler_builtins3mem6memcpy17h1f9dbb1c3fd18e2fE+0x106>
   26b26:	784e      	ldrb	r6, [r1, #1]
   26b28:	705e      	strb	r6, [r3, #1]
   26b2a:	2d02      	cmp	r5, #2
   26b2c:	d111      	bne.n	26b52 <_ZN17compiler_builtins3mem6memcpy17h1f9dbb1c3fd18e2fE+0x10a>
   26b2e:	1c89      	adds	r1, r1, #2
   26b30:	1c9b      	adds	r3, r3, #2
   26b32:	2a03      	cmp	r2, #3
   26b34:	d30b      	bcc.n	26b4e <_ZN17compiler_builtins3mem6memcpy17h1f9dbb1c3fd18e2fE+0x106>
   26b36:	780a      	ldrb	r2, [r1, #0]
   26b38:	701a      	strb	r2, [r3, #0]
   26b3a:	784a      	ldrb	r2, [r1, #1]
   26b3c:	705a      	strb	r2, [r3, #1]
   26b3e:	788a      	ldrb	r2, [r1, #2]
   26b40:	709a      	strb	r2, [r3, #2]
   26b42:	78ca      	ldrb	r2, [r1, #3]
   26b44:	70da      	strb	r2, [r3, #3]
   26b46:	1d09      	adds	r1, r1, #4
   26b48:	1d1b      	adds	r3, r3, #4
   26b4a:	42a3      	cmp	r3, r4
   26b4c:	d1f3      	bne.n	26b36 <_ZN17compiler_builtins3mem6memcpy17h1f9dbb1c3fd18e2fE+0xee>
   26b4e:	b00f      	add	sp, #60	@ 0x3c
   26b50:	bdf0      	pop	{r4, r5, r6, r7, pc}
   26b52:	788d      	ldrb	r5, [r1, #2]
   26b54:	709d      	strb	r5, [r3, #2]
   26b56:	1cc9      	adds	r1, r1, #3
   26b58:	1cdb      	adds	r3, r3, #3
   26b5a:	2a03      	cmp	r2, #3
   26b5c:	d2eb      	bcs.n	26b36 <_ZN17compiler_builtins3mem6memcpy17h1f9dbb1c3fd18e2fE+0xee>
   26b5e:	e7f6      	b.n	26b4e <_ZN17compiler_builtins3mem6memcpy17h1f9dbb1c3fd18e2fE+0x106>
   26b60:	2400      	movs	r4, #0
   26b62:	9406      	str	r4, [sp, #24]
   26b64:	940e      	str	r4, [sp, #56]	@ 0x38
   26b66:	ac0e      	add	r4, sp, #56	@ 0x38
   26b68:	19a4      	adds	r4, r4, r6
   26b6a:	9405      	str	r4, [sp, #20]
   26b6c:	2404      	movs	r4, #4
   26b6e:	1ba4      	subs	r4, r4, r6
   26b70:	9404      	str	r4, [sp, #16]
   26b72:	07e4      	lsls	r4, r4, #31
   26b74:	9600      	str	r6, [sp, #0]
   26b76:	d006      	beq.n	26b86 <_ZN17compiler_builtins3mem6memcpy17h1f9dbb1c3fd18e2fE+0x13e>
   26b78:	9c09      	ldr	r4, [sp, #36]	@ 0x24
   26b7a:	7824      	ldrb	r4, [r4, #0]
   26b7c:	9e05      	ldr	r6, [sp, #20]
   26b7e:	7034      	strb	r4, [r6, #0]
   26b80:	9e00      	ldr	r6, [sp, #0]
   26b82:	2401      	movs	r4, #1
   26b84:	9406      	str	r4, [sp, #24]
   26b86:	9c04      	ldr	r4, [sp, #16]
   26b88:	07a4      	lsls	r4, r4, #30
   26b8a:	d508      	bpl.n	26b9e <_ZN17compiler_builtins3mem6memcpy17h1f9dbb1c3fd18e2fE+0x156>
   26b8c:	9c09      	ldr	r4, [sp, #36]	@ 0x24
   26b8e:	9204      	str	r2, [sp, #16]
   26b90:	9a06      	ldr	r2, [sp, #24]
   26b92:	5aa4      	ldrh	r4, [r4, r2]
   26b94:	9e05      	ldr	r6, [sp, #20]
   26b96:	9a06      	ldr	r2, [sp, #24]
   26b98:	52b4      	strh	r4, [r6, r2]
   26b9a:	9a04      	ldr	r2, [sp, #16]
   26b9c:	9e00      	ldr	r6, [sp, #0]
   26b9e:	00f4      	lsls	r4, r6, #3
   26ba0:	9403      	str	r4, [sp, #12]
   26ba2:	9c0e      	ldr	r4, [sp, #56]	@ 0x38
   26ba4:	9406      	str	r4, [sp, #24]
   26ba6:	1d2c      	adds	r4, r5, #4
   26ba8:	429c      	cmp	r4, r3
   26baa:	d236      	bcs.n	26c1a <_ZN17compiler_builtins3mem6memcpy17h1f9dbb1c3fd18e2fE+0x1d2>
   26bac:	4274      	negs	r4, r6
   26bae:	1909      	adds	r1, r1, r4
   26bb0:	9105      	str	r1, [sp, #20]
   26bb2:	9d03      	ldr	r5, [sp, #12]
   26bb4:	4269      	negs	r1, r5
   26bb6:	2418      	movs	r4, #24
   26bb8:	400c      	ands	r4, r1
   26bba:	9402      	str	r4, [sp, #8]
   26bbc:	990a      	ldr	r1, [sp, #40]	@ 0x28
   26bbe:	9104      	str	r1, [sp, #16]
   26bc0:	4629      	mov	r1, r5
   26bc2:	9c06      	ldr	r4, [sp, #24]
   26bc4:	40cc      	lsrs	r4, r1
   26bc6:	9406      	str	r4, [sp, #24]
   26bc8:	9905      	ldr	r1, [sp, #20]
   26bca:	1889      	adds	r1, r1, r2
   26bcc:	9101      	str	r1, [sp, #4]
   26bce:	6849      	ldr	r1, [r1, #4]
   26bd0:	460c      	mov	r4, r1
   26bd2:	9d02      	ldr	r5, [sp, #8]
   26bd4:	40ac      	lsls	r4, r5
   26bd6:	9d06      	ldr	r5, [sp, #24]
   26bd8:	432c      	orrs	r4, r5
   26bda:	9d04      	ldr	r5, [sp, #16]
   26bdc:	50ac      	str	r4, [r5, r2]
   26bde:	18ad      	adds	r5, r5, r2
   26be0:	462c      	mov	r4, r5
   26be2:	3408      	adds	r4, #8
   26be4:	429c      	cmp	r4, r3
   26be6:	d21c      	bcs.n	26c22 <_ZN17compiler_builtins3mem6memcpy17h1f9dbb1c3fd18e2fE+0x1da>
   26be8:	9c03      	ldr	r4, [sp, #12]
   26bea:	40e1      	lsrs	r1, r4
   26bec:	9c01      	ldr	r4, [sp, #4]
   26bee:	68a4      	ldr	r4, [r4, #8]
   26bf0:	9406      	str	r4, [sp, #24]
   26bf2:	9501      	str	r5, [sp, #4]
   26bf4:	9d02      	ldr	r5, [sp, #8]
   26bf6:	40ac      	lsls	r4, r5
   26bf8:	430c      	orrs	r4, r1
   26bfa:	9901      	ldr	r1, [sp, #4]
   26bfc:	604c      	str	r4, [r1, #4]
   26bfe:	9904      	ldr	r1, [sp, #16]
   26c00:	3108      	adds	r1, #8
   26c02:	9104      	str	r1, [sp, #16]
   26c04:	188d      	adds	r5, r1, r2
   26c06:	1d29      	adds	r1, r5, #4
   26c08:	9c05      	ldr	r4, [sp, #20]
   26c0a:	3408      	adds	r4, #8
   26c0c:	9405      	str	r4, [sp, #20]
   26c0e:	4299      	cmp	r1, r3
   26c10:	9903      	ldr	r1, [sp, #12]
   26c12:	d3d6      	bcc.n	26bc2 <_ZN17compiler_builtins3mem6memcpy17h1f9dbb1c3fd18e2fE+0x17a>
   26c14:	9805      	ldr	r0, [sp, #20]
   26c16:	1880      	adds	r0, r0, r2
   26c18:	e001      	b.n	26c1e <_ZN17compiler_builtins3mem6memcpy17h1f9dbb1c3fd18e2fE+0x1d6>
   26c1a:	9809      	ldr	r0, [sp, #36]	@ 0x24
   26c1c:	1b80      	subs	r0, r0, r6
   26c1e:	9005      	str	r0, [sp, #20]
   26c20:	e004      	b.n	26c2c <_ZN17compiler_builtins3mem6memcpy17h1f9dbb1c3fd18e2fE+0x1e4>
   26c22:	9801      	ldr	r0, [sp, #4]
   26c24:	1d00      	adds	r0, r0, #4
   26c26:	9005      	str	r0, [sp, #20]
   26c28:	1d2d      	adds	r5, r5, #4
   26c2a:	9106      	str	r1, [sp, #24]
   26c2c:	a80d      	add	r0, sp, #52	@ 0x34
   26c2e:	2100      	movs	r1, #0
   26c30:	9004      	str	r0, [sp, #16]
   26c32:	7001      	strb	r1, [r0, #0]
   26c34:	a80c      	add	r0, sp, #48	@ 0x30
   26c36:	7001      	strb	r1, [r0, #0]
   26c38:	2e01      	cmp	r6, #1
   26c3a:	460e      	mov	r6, r1
   26c3c:	460c      	mov	r4, r1
   26c3e:	9102      	str	r1, [sp, #8]
   26c40:	9a0b      	ldr	r2, [sp, #44]	@ 0x2c
   26c42:	d009      	beq.n	26c58 <_ZN17compiler_builtins3mem6memcpy17h1f9dbb1c3fd18e2fE+0x210>
   26c44:	9c05      	ldr	r4, [sp, #20]
   26c46:	7960      	ldrb	r0, [r4, #5]
   26c48:	7926      	ldrb	r6, [r4, #4]
   26c4a:	ac0d      	add	r4, sp, #52	@ 0x34
   26c4c:	7026      	strb	r6, [r4, #0]
   26c4e:	0204      	lsls	r4, r0, #8
   26c50:	2002      	movs	r0, #2
   26c52:	9002      	str	r0, [sp, #8]
   26c54:	a80c      	add	r0, sp, #48	@ 0x30
   26c56:	9004      	str	r0, [sp, #16]
   26c58:	9809      	ldr	r0, [sp, #36]	@ 0x24
   26c5a:	07c0      	lsls	r0, r0, #31
   26c5c:	d00a      	beq.n	26c74 <_ZN17compiler_builtins3mem6memcpy17h1f9dbb1c3fd18e2fE+0x22c>
   26c5e:	9805      	ldr	r0, [sp, #20]
   26c60:	1d00      	adds	r0, r0, #4
   26c62:	9902      	ldr	r1, [sp, #8]
   26c64:	5c40      	ldrb	r0, [r0, r1]
   26c66:	9904      	ldr	r1, [sp, #16]
   26c68:	7008      	strb	r0, [r1, #0]
   26c6a:	a80d      	add	r0, sp, #52	@ 0x34
   26c6c:	7806      	ldrb	r6, [r0, #0]
   26c6e:	a80c      	add	r0, sp, #48	@ 0x30
   26c70:	7800      	ldrb	r0, [r0, #0]
   26c72:	0401      	lsls	r1, r0, #16
   26c74:	9605      	str	r6, [sp, #20]
   26c76:	9803      	ldr	r0, [sp, #12]
   26c78:	4240      	negs	r0, r0
   26c7a:	9004      	str	r0, [sp, #16]
   26c7c:	2618      	movs	r6, #24
   26c7e:	9804      	ldr	r0, [sp, #16]
   26c80:	4006      	ands	r6, r0
   26c82:	430c      	orrs	r4, r1
   26c84:	9905      	ldr	r1, [sp, #20]
   26c86:	430c      	orrs	r4, r1
   26c88:	40b4      	lsls	r4, r6
   26c8a:	9906      	ldr	r1, [sp, #24]
   26c8c:	9803      	ldr	r0, [sp, #12]
   26c8e:	40c1      	lsrs	r1, r0
   26c90:	4321      	orrs	r1, r4
   26c92:	6029      	str	r1, [r5, #0]
   26c94:	9c08      	ldr	r4, [sp, #32]
   26c96:	9e09      	ldr	r6, [sp, #36]	@ 0x24
   26c98:	e730      	b.n	26afc <_ZN17compiler_builtins3mem6memcpy17h1f9dbb1c3fd18e2fE+0xb4>

00026c9a <__aeabi_memcpy>:
   26c9a:	b580      	push	{r7, lr}
   26c9c:	af00      	add	r7, sp, #0
   26c9e:	f7ff fed3 	bl	26a48 <_ZN17compiler_builtins3mem6memcpy17h1f9dbb1c3fd18e2fE>
   26ca2:	bd80      	pop	{r7, pc}
