
target/thumbv6m-none-eabi/opt-2/examples/complex_full_dynamic:     file format elf32-littlearm

Sections:
Idx Name          Size      VMA       LMA       File off  Algn
  0 .ARM.exidx    00000010  000100d4  000100d4  000000d4  2**2
                  CONTENTS, ALLOC, LOAD, READONLY, DATA
  1 .text         000071c0  000200e4  000200e4  000000e4  2**2
                  CONTENTS, ALLOC, LOAD, READONLY, CODE
  2 .comment      00000099  00000000  00000000  000072a4  2**0
                  CONTENTS, READONLY
  3 .ARM.attributes 00000032  00000000  00000000  0000733d  2**0
                  CONTENTS, READONLY

Disassembly of section .text:

000200e4 <_ZN20complex_full_dynamic3app17h07bfe356ab334fdbE>:
   200e4:	b5f0      	push	{r4, r5, r6, r7, lr}
   200e6:	af03      	add	r7, sp, #12
   200e8:	b09d      	sub	sp, #116	@ 0x74
   200ea:	9002      	str	r0, [sp, #8]
   200ec:	ae03      	add	r6, sp, #12
   200ee:	2502      	movs	r5, #2
   200f0:	7235      	strb	r5, [r6, #8]
   200f2:	360c      	adds	r6, #12
   200f4:	2234      	movs	r2, #52	@ 0x34
   200f6:	9201      	str	r2, [sp, #4]
   200f8:	4630      	mov	r0, r6
   200fa:	f007 f8ce 	bl	2729a <__aeabi_memcpy>
   200fe:	a813      	add	r0, sp, #76	@ 0x4c
   20100:	2400      	movs	r4, #0
   20102:	8484      	strh	r4, [r0, #36]	@ 0x24
   20104:	7205      	strb	r5, [r0, #8]
   20106:	4605      	mov	r5, r0
   20108:	941b      	str	r4, [sp, #108]	@ 0x6c
   2010a:	941a      	str	r4, [sp, #104]	@ 0x68
   2010c:	9419      	str	r4, [sp, #100]	@ 0x64
   2010e:	9418      	str	r4, [sp, #96]	@ 0x60
   20110:	9417      	str	r4, [sp, #92]	@ 0x5c
   20112:	9416      	str	r4, [sp, #88]	@ 0x58
   20114:	481f      	ldr	r0, [pc, #124]	@ (20194 <_ZN20complex_full_dynamic3app17h07bfe356ab334fdbE+0xb0>)
   20116:	4621      	mov	r1, r4
   20118:	4632      	mov	r2, r6
   2011a:	9b01      	ldr	r3, [sp, #4]
   2011c:	df04      	svc	4
   2011e:	2802      	cmp	r0, #2
   20120:	d01b      	beq.n	2015a <_ZN20complex_full_dynamic3app17h07bfe356ab334fdbE+0x76>
   20122:	350c      	adds	r5, #12
   20124:	a803      	add	r0, sp, #12
   20126:	2104      	movs	r1, #4
   20128:	7201      	strb	r1, [r0, #8]
   2012a:	9404      	str	r4, [sp, #16]
   2012c:	4e19      	ldr	r6, [pc, #100]	@ (20194 <_ZN20complex_full_dynamic3app17h07bfe356ab334fdbE+0xb0>)
   2012e:	9603      	str	r6, [sp, #12]
   20130:	2405      	movs	r4, #5
   20132:	231a      	movs	r3, #26
   20134:	4630      	mov	r0, r6
   20136:	4621      	mov	r1, r4
   20138:	462a      	mov	r2, r5
   2013a:	df03      	svc	3
   2013c:	2802      	cmp	r0, #2
   2013e:	d00c      	beq.n	2015a <_ZN20complex_full_dynamic3app17h07bfe356ab334fdbE+0x76>
   20140:	a813      	add	r0, sp, #76	@ 0x4c
   20142:	2103      	movs	r1, #3
   20144:	7201      	strb	r1, [r0, #8]
   20146:	9613      	str	r6, [sp, #76]	@ 0x4c
   20148:	9414      	str	r4, [sp, #80]	@ 0x50
   2014a:	4812      	ldr	r0, [pc, #72]	@ (20194 <_ZN20complex_full_dynamic3app17h07bfe356ab334fdbE+0xb0>)
   2014c:	2600      	movs	r6, #0
   2014e:	4631      	mov	r1, r6
   20150:	4622      	mov	r2, r4
   20152:	4633      	mov	r3, r6
   20154:	df02      	svc	2
   20156:	287f      	cmp	r0, #127	@ 0x7f
   20158:	d80b      	bhi.n	20172 <_ZN20complex_full_dynamic3app17h07bfe356ab334fdbE+0x8e>
   2015a:	9c02      	ldr	r4, [sp, #8]
   2015c:	6061      	str	r1, [r4, #4]
   2015e:	2601      	movs	r6, #1
   20160:	7026      	strb	r6, [r4, #0]
   20162:	a813      	add	r0, sp, #76	@ 0x4c
   20164:	f006 fed8 	bl	26f18 <_ZN9allow_pin12full_dynamic17unshare_if_shared17hc1e7d593d40bae1cE>
   20168:	a803      	add	r0, sp, #12
   2016a:	f006 fed5 	bl	26f18 <_ZN9allow_pin12full_dynamic17unshare_if_shared17hc1e7d593d40bae1cE>
   2016e:	b01d      	add	sp, #116	@ 0x74
   20170:	bdf0      	pop	{r4, r5, r6, r7, pc}
   20172:	a803      	add	r0, sp, #12
   20174:	f006 fed0 	bl	26f18 <_ZN9allow_pin12full_dynamic17unshare_if_shared17hc1e7d593d40bae1cE>
   20178:	ac13      	add	r4, sp, #76	@ 0x4c
   2017a:	4620      	mov	r0, r4
   2017c:	f006 fecc 	bl	26f18 <_ZN9allow_pin12full_dynamic17unshare_if_shared17hc1e7d593d40bae1cE>
   20180:	4620      	mov	r0, r4
   20182:	f006 fec9 	bl	26f18 <_ZN9allow_pin12full_dynamic17unshare_if_shared17hc1e7d593d40bae1cE>
   20186:	9c02      	ldr	r4, [sp, #8]
   20188:	1c60      	adds	r0, r4, #1
   2018a:	221a      	movs	r2, #26
   2018c:	4629      	mov	r1, r5
   2018e:	f007 f884 	bl	2729a <__aeabi_memcpy>
   20192:	e7e5      	b.n	20160 <_ZN20complex_full_dynamic3app17h07bfe356ab334fdbE+0x7c>
   20194:	000012cc 	.word	0x000012cc

00020198 <_ZN20complex_full_dynamic3app17h0a4fe3f69e42776fE>:
   20198:	b5f0      	push	{r4, r5, r6, r7, lr}
   2019a:	af03      	add	r7, sp, #12
   2019c:	b09d      	sub	sp, #116	@ 0x74
   2019e:	9002      	str	r0, [sp, #8]
   201a0:	ac03      	add	r4, sp, #12
   201a2:	2002      	movs	r0, #2
   201a4:	9001      	str	r0, [sp, #4]
   201a6:	7220      	strb	r0, [r4, #8]
   201a8:	340c      	adds	r4, #12
   201aa:	2221      	movs	r2, #33	@ 0x21
   201ac:	9200      	str	r2, [sp, #0]
   201ae:	4620      	mov	r0, r4
   201b0:	f007 f873 	bl	2729a <__aeabi_memcpy>
   201b4:	ae0f      	add	r6, sp, #60	@ 0x3c
   201b6:	4635      	mov	r5, r6
   201b8:	350c      	adds	r5, #12
   201ba:	212a      	movs	r1, #42	@ 0x2a
   201bc:	4628      	mov	r0, r5
   201be:	f006 febf 	bl	26f40 <__aeabi_memclr4>
   201c2:	9801      	ldr	r0, [sp, #4]
   201c4:	7230      	strb	r0, [r6, #8]
   201c6:	481f      	ldr	r0, [pc, #124]	@ (20244 <_ZN20complex_full_dynamic3app17h0a4fe3f69e42776fE+0xac>)
   201c8:	2601      	movs	r6, #1
   201ca:	4631      	mov	r1, r6
   201cc:	4622      	mov	r2, r4
   201ce:	9b00      	ldr	r3, [sp, #0]
   201d0:	df04      	svc	4
   201d2:	2802      	cmp	r0, #2
   201d4:	d018      	beq.n	20208 <_ZN20complex_full_dynamic3app17h0a4fe3f69e42776fE+0x70>
   201d6:	a803      	add	r0, sp, #12
   201d8:	2104      	movs	r1, #4
   201da:	7201      	strb	r1, [r0, #8]
   201dc:	9604      	str	r6, [sp, #16]
   201de:	4819      	ldr	r0, [pc, #100]	@ (20244 <_ZN20complex_full_dynamic3app17h0a4fe3f69e42776fE+0xac>)
   201e0:	9003      	str	r0, [sp, #12]
   201e2:	2403      	movs	r4, #3
   201e4:	232a      	movs	r3, #42	@ 0x2a
   201e6:	4621      	mov	r1, r4
   201e8:	462a      	mov	r2, r5
   201ea:	df03      	svc	3
   201ec:	2802      	cmp	r0, #2
   201ee:	d00b      	beq.n	20208 <_ZN20complex_full_dynamic3app17h0a4fe3f69e42776fE+0x70>
   201f0:	a80f      	add	r0, sp, #60	@ 0x3c
   201f2:	7204      	strb	r4, [r0, #8]
   201f4:	9410      	str	r4, [sp, #64]	@ 0x40
   201f6:	4813      	ldr	r0, [pc, #76]	@ (20244 <_ZN20complex_full_dynamic3app17h0a4fe3f69e42776fE+0xac>)
   201f8:	900f      	str	r0, [sp, #60]	@ 0x3c
   201fa:	2101      	movs	r1, #1
   201fc:	2300      	movs	r3, #0
   201fe:	4622      	mov	r2, r4
   20200:	9301      	str	r3, [sp, #4]
   20202:	df02      	svc	2
   20204:	287f      	cmp	r0, #127	@ 0x7f
   20206:	d80a      	bhi.n	2021e <_ZN20complex_full_dynamic3app17h0a4fe3f69e42776fE+0x86>
   20208:	9c02      	ldr	r4, [sp, #8]
   2020a:	6061      	str	r1, [r4, #4]
   2020c:	7026      	strb	r6, [r4, #0]
   2020e:	a80f      	add	r0, sp, #60	@ 0x3c
   20210:	f006 fe82 	bl	26f18 <_ZN9allow_pin12full_dynamic17unshare_if_shared17hc1e7d593d40bae1cE>
   20214:	a803      	add	r0, sp, #12
   20216:	f006 fe7f 	bl	26f18 <_ZN9allow_pin12full_dynamic17unshare_if_shared17hc1e7d593d40bae1cE>
   2021a:	b01d      	add	sp, #116	@ 0x74
   2021c:	bdf0      	pop	{r4, r5, r6, r7, pc}
   2021e:	a803      	add	r0, sp, #12
   20220:	f006 fe7a 	bl	26f18 <_ZN9allow_pin12full_dynamic17unshare_if_shared17hc1e7d593d40bae1cE>
   20224:	ac0f      	add	r4, sp, #60	@ 0x3c
   20226:	4620      	mov	r0, r4
   20228:	f006 fe76 	bl	26f18 <_ZN9allow_pin12full_dynamic17unshare_if_shared17hc1e7d593d40bae1cE>
   2022c:	4620      	mov	r0, r4
   2022e:	f006 fe73 	bl	26f18 <_ZN9allow_pin12full_dynamic17unshare_if_shared17hc1e7d593d40bae1cE>
   20232:	9c02      	ldr	r4, [sp, #8]
   20234:	1c60      	adds	r0, r4, #1
   20236:	222a      	movs	r2, #42	@ 0x2a
   20238:	4629      	mov	r1, r5
   2023a:	f007 f82e 	bl	2729a <__aeabi_memcpy>
   2023e:	9e01      	ldr	r6, [sp, #4]
   20240:	e7e4      	b.n	2020c <_ZN20complex_full_dynamic3app17h0a4fe3f69e42776fE+0x74>
   20242:	46c0      	nop			@ (mov r8, r8)
   20244:	000015f3 	.word	0x000015f3

00020248 <_ZN20complex_full_dynamic3app17h0b4c16d7c21d379eE>:
   20248:	b5f0      	push	{r4, r5, r6, r7, lr}
   2024a:	af03      	add	r7, sp, #12
   2024c:	b0a7      	sub	sp, #156	@ 0x9c
   2024e:	9002      	str	r0, [sp, #8]
   20250:	ae03      	add	r6, sp, #12
   20252:	2002      	movs	r0, #2
   20254:	9001      	str	r0, [sp, #4]
   20256:	7230      	strb	r0, [r6, #8]
   20258:	360c      	adds	r6, #12
   2025a:	2222      	movs	r2, #34	@ 0x22
   2025c:	9200      	str	r2, [sp, #0]
   2025e:	4630      	mov	r0, r6
   20260:	f007 f81b 	bl	2729a <__aeabi_memcpy>
   20264:	ad0f      	add	r5, sp, #60	@ 0x3c
   20266:	462c      	mov	r4, r5
   20268:	340c      	adds	r4, #12
   2026a:	2151      	movs	r1, #81	@ 0x51
   2026c:	4620      	mov	r0, r4
   2026e:	f006 fe67 	bl	26f40 <__aeabi_memclr4>
   20272:	9801      	ldr	r0, [sp, #4]
   20274:	7228      	strb	r0, [r5, #8]
   20276:	4820      	ldr	r0, [pc, #128]	@ (202f8 <_ZN20complex_full_dynamic3app17h0b4c16d7c21d379eE+0xb0>)
   20278:	2509      	movs	r5, #9
   2027a:	4629      	mov	r1, r5
   2027c:	4632      	mov	r2, r6
   2027e:	9b00      	ldr	r3, [sp, #0]
   20280:	df04      	svc	4
   20282:	2802      	cmp	r0, #2
   20284:	d019      	beq.n	202ba <_ZN20complex_full_dynamic3app17h0b4c16d7c21d379eE+0x72>
   20286:	a803      	add	r0, sp, #12
   20288:	2104      	movs	r1, #4
   2028a:	7201      	strb	r1, [r0, #8]
   2028c:	4e1a      	ldr	r6, [pc, #104]	@ (202f8 <_ZN20complex_full_dynamic3app17h0b4c16d7c21d379eE+0xb0>)
   2028e:	9603      	str	r6, [sp, #12]
   20290:	9504      	str	r5, [sp, #16]
   20292:	2351      	movs	r3, #81	@ 0x51
   20294:	4630      	mov	r0, r6
   20296:	4629      	mov	r1, r5
   20298:	4622      	mov	r2, r4
   2029a:	df03      	svc	3
   2029c:	2802      	cmp	r0, #2
   2029e:	d00c      	beq.n	202ba <_ZN20complex_full_dynamic3app17h0b4c16d7c21d379eE+0x72>
   202a0:	a80f      	add	r0, sp, #60	@ 0x3c
   202a2:	2103      	movs	r1, #3
   202a4:	7201      	strb	r1, [r0, #8]
   202a6:	960f      	str	r6, [sp, #60]	@ 0x3c
   202a8:	9510      	str	r5, [sp, #64]	@ 0x40
   202aa:	4813      	ldr	r0, [pc, #76]	@ (202f8 <_ZN20complex_full_dynamic3app17h0b4c16d7c21d379eE+0xb0>)
   202ac:	2600      	movs	r6, #0
   202ae:	4629      	mov	r1, r5
   202b0:	462a      	mov	r2, r5
   202b2:	4633      	mov	r3, r6
   202b4:	df02      	svc	2
   202b6:	287f      	cmp	r0, #127	@ 0x7f
   202b8:	d80b      	bhi.n	202d2 <_ZN20complex_full_dynamic3app17h0b4c16d7c21d379eE+0x8a>
   202ba:	9c02      	ldr	r4, [sp, #8]
   202bc:	6061      	str	r1, [r4, #4]
   202be:	2601      	movs	r6, #1
   202c0:	7026      	strb	r6, [r4, #0]
   202c2:	a80f      	add	r0, sp, #60	@ 0x3c
   202c4:	f006 fe28 	bl	26f18 <_ZN9allow_pin12full_dynamic17unshare_if_shared17hc1e7d593d40bae1cE>
   202c8:	a803      	add	r0, sp, #12
   202ca:	f006 fe25 	bl	26f18 <_ZN9allow_pin12full_dynamic17unshare_if_shared17hc1e7d593d40bae1cE>
   202ce:	b027      	add	sp, #156	@ 0x9c
   202d0:	bdf0      	pop	{r4, r5, r6, r7, pc}
   202d2:	a803      	add	r0, sp, #12
   202d4:	f006 fe20 	bl	26f18 <_ZN9allow_pin12full_dynamic17unshare_if_shared17hc1e7d593d40bae1cE>
   202d8:	4625      	mov	r5, r4
   202da:	ac0f      	add	r4, sp, #60	@ 0x3c
   202dc:	4620      	mov	r0, r4
   202de:	f006 fe1b 	bl	26f18 <_ZN9allow_pin12full_dynamic17unshare_if_shared17hc1e7d593d40bae1cE>
   202e2:	4620      	mov	r0, r4
   202e4:	f006 fe18 	bl	26f18 <_ZN9allow_pin12full_dynamic17unshare_if_shared17hc1e7d593d40bae1cE>
   202e8:	9c02      	ldr	r4, [sp, #8]
   202ea:	1c60      	adds	r0, r4, #1
   202ec:	2251      	movs	r2, #81	@ 0x51
   202ee:	4629      	mov	r1, r5
   202f0:	f006 ffd3 	bl	2729a <__aeabi_memcpy>
   202f4:	e7e4      	b.n	202c0 <_ZN20complex_full_dynamic3app17h0b4c16d7c21d379eE+0x78>
   202f6:	46c0      	nop			@ (mov r8, r8)
   202f8:	0000055e 	.word	0x0000055e

000202fc <_ZN20complex_full_dynamic3app17h0d8cb5b99033d108E>:
   202fc:	b5f0      	push	{r4, r5, r6, r7, lr}
   202fe:	af03      	add	r7, sp, #12
   20300:	b0a1      	sub	sp, #132	@ 0x84
   20302:	9001      	str	r0, [sp, #4]
   20304:	ae02      	add	r6, sp, #8
   20306:	2502      	movs	r5, #2
   20308:	7235      	strb	r5, [r6, #8]
   2030a:	360c      	adds	r6, #12
   2030c:	2251      	movs	r2, #81	@ 0x51
   2030e:	9200      	str	r2, [sp, #0]
   20310:	4630      	mov	r0, r6
   20312:	f006 ffc2 	bl	2729a <__aeabi_memcpy>
   20316:	a81a      	add	r0, sp, #104	@ 0x68
   20318:	2400      	movs	r4, #0
   2031a:	7684      	strb	r4, [r0, #26]
   2031c:	8304      	strh	r4, [r0, #24]
   2031e:	7205      	strb	r5, [r0, #8]
   20320:	4605      	mov	r5, r0
   20322:	941f      	str	r4, [sp, #124]	@ 0x7c
   20324:	941e      	str	r4, [sp, #120]	@ 0x78
   20326:	941d      	str	r4, [sp, #116]	@ 0x74
   20328:	481f      	ldr	r0, [pc, #124]	@ (203a8 <_ZN20complex_full_dynamic3app17h0d8cb5b99033d108E+0xac>)
   2032a:	4621      	mov	r1, r4
   2032c:	4632      	mov	r2, r6
   2032e:	9b00      	ldr	r3, [sp, #0]
   20330:	df04      	svc	4
   20332:	2802      	cmp	r0, #2
   20334:	d01a      	beq.n	2036c <_ZN20complex_full_dynamic3app17h0d8cb5b99033d108E+0x70>
   20336:	350c      	adds	r5, #12
   20338:	a802      	add	r0, sp, #8
   2033a:	2104      	movs	r1, #4
   2033c:	7201      	strb	r1, [r0, #8]
   2033e:	9403      	str	r4, [sp, #12]
   20340:	4e19      	ldr	r6, [pc, #100]	@ (203a8 <_ZN20complex_full_dynamic3app17h0d8cb5b99033d108E+0xac>)
   20342:	9602      	str	r6, [sp, #8]
   20344:	2403      	movs	r4, #3
   20346:	230f      	movs	r3, #15
   20348:	4630      	mov	r0, r6
   2034a:	4621      	mov	r1, r4
   2034c:	462a      	mov	r2, r5
   2034e:	df03      	svc	3
   20350:	2802      	cmp	r0, #2
   20352:	d00b      	beq.n	2036c <_ZN20complex_full_dynamic3app17h0d8cb5b99033d108E+0x70>
   20354:	a81a      	add	r0, sp, #104	@ 0x68
   20356:	7204      	strb	r4, [r0, #8]
   20358:	941b      	str	r4, [sp, #108]	@ 0x6c
   2035a:	961a      	str	r6, [sp, #104]	@ 0x68
   2035c:	4812      	ldr	r0, [pc, #72]	@ (203a8 <_ZN20complex_full_dynamic3app17h0d8cb5b99033d108E+0xac>)
   2035e:	2600      	movs	r6, #0
   20360:	4631      	mov	r1, r6
   20362:	4622      	mov	r2, r4
   20364:	4633      	mov	r3, r6
   20366:	df02      	svc	2
   20368:	287f      	cmp	r0, #127	@ 0x7f
   2036a:	d80b      	bhi.n	20384 <_ZN20complex_full_dynamic3app17h0d8cb5b99033d108E+0x88>
   2036c:	9c01      	ldr	r4, [sp, #4]
   2036e:	6061      	str	r1, [r4, #4]
   20370:	2601      	movs	r6, #1
   20372:	7026      	strb	r6, [r4, #0]
   20374:	a81a      	add	r0, sp, #104	@ 0x68
   20376:	f006 fdcf 	bl	26f18 <_ZN9allow_pin12full_dynamic17unshare_if_shared17hc1e7d593d40bae1cE>
   2037a:	a802      	add	r0, sp, #8
   2037c:	f006 fdcc 	bl	26f18 <_ZN9allow_pin12full_dynamic17unshare_if_shared17hc1e7d593d40bae1cE>
   20380:	b021      	add	sp, #132	@ 0x84
   20382:	bdf0      	pop	{r4, r5, r6, r7, pc}
   20384:	a802      	add	r0, sp, #8
   20386:	f006 fdc7 	bl	26f18 <_ZN9allow_pin12full_dynamic17unshare_if_shared17hc1e7d593d40bae1cE>
   2038a:	ac1a      	add	r4, sp, #104	@ 0x68
   2038c:	4620      	mov	r0, r4
   2038e:	f006 fdc3 	bl	26f18 <_ZN9allow_pin12full_dynamic17unshare_if_shared17hc1e7d593d40bae1cE>
   20392:	4620      	mov	r0, r4
   20394:	f006 fdc0 	bl	26f18 <_ZN9allow_pin12full_dynamic17unshare_if_shared17hc1e7d593d40bae1cE>
   20398:	9c01      	ldr	r4, [sp, #4]
   2039a:	1c60      	adds	r0, r4, #1
   2039c:	220f      	movs	r2, #15
   2039e:	4629      	mov	r1, r5
   203a0:	f006 ff7b 	bl	2729a <__aeabi_memcpy>
   203a4:	e7e5      	b.n	20372 <_ZN20complex_full_dynamic3app17h0d8cb5b99033d108E+0x76>
   203a6:	46c0      	nop			@ (mov r8, r8)
   203a8:	000013bf 	.word	0x000013bf

000203ac <_ZN20complex_full_dynamic3app17h11d3b62c726e9aceE>:
   203ac:	b5f0      	push	{r4, r5, r6, r7, lr}
   203ae:	af03      	add	r7, sp, #12
   203b0:	b09b      	sub	sp, #108	@ 0x6c
   203b2:	9001      	str	r0, [sp, #4]
   203b4:	ac02      	add	r4, sp, #8
   203b6:	2502      	movs	r5, #2
   203b8:	7225      	strb	r5, [r4, #8]
   203ba:	340c      	adds	r4, #12
   203bc:	222b      	movs	r2, #43	@ 0x2b
   203be:	9200      	str	r2, [sp, #0]
   203c0:	4620      	mov	r0, r4
   203c2:	f006 ff6a 	bl	2729a <__aeabi_memcpy>
   203c6:	ae10      	add	r6, sp, #64	@ 0x40
   203c8:	2000      	movs	r0, #0
   203ca:	8530      	strh	r0, [r6, #40]	@ 0x28
   203cc:	7235      	strb	r5, [r6, #8]
   203ce:	9019      	str	r0, [sp, #100]	@ 0x64
   203d0:	9018      	str	r0, [sp, #96]	@ 0x60
   203d2:	9017      	str	r0, [sp, #92]	@ 0x5c
   203d4:	9016      	str	r0, [sp, #88]	@ 0x58
   203d6:	9015      	str	r0, [sp, #84]	@ 0x54
   203d8:	9014      	str	r0, [sp, #80]	@ 0x50
   203da:	9013      	str	r0, [sp, #76]	@ 0x4c
   203dc:	4820      	ldr	r0, [pc, #128]	@ (20460 <_ZN20complex_full_dynamic3app17h11d3b62c726e9aceE+0xb4>)
   203de:	2507      	movs	r5, #7
   203e0:	4629      	mov	r1, r5
   203e2:	4622      	mov	r2, r4
   203e4:	9b00      	ldr	r3, [sp, #0]
   203e6:	df04      	svc	4
   203e8:	2802      	cmp	r0, #2
   203ea:	d01b      	beq.n	20424 <_ZN20complex_full_dynamic3app17h11d3b62c726e9aceE+0x78>
   203ec:	360c      	adds	r6, #12
   203ee:	a802      	add	r0, sp, #8
   203f0:	2104      	movs	r1, #4
   203f2:	7201      	strb	r1, [r0, #8]
   203f4:	9503      	str	r5, [sp, #12]
   203f6:	481a      	ldr	r0, [pc, #104]	@ (20460 <_ZN20complex_full_dynamic3app17h11d3b62c726e9aceE+0xb4>)
   203f8:	9002      	str	r0, [sp, #8]
   203fa:	2408      	movs	r4, #8
   203fc:	231e      	movs	r3, #30
   203fe:	4621      	mov	r1, r4
   20400:	4632      	mov	r2, r6
   20402:	df03      	svc	3
   20404:	2802      	cmp	r0, #2
   20406:	d00d      	beq.n	20424 <_ZN20complex_full_dynamic3app17h11d3b62c726e9aceE+0x78>
   20408:	4635      	mov	r5, r6
   2040a:	a810      	add	r0, sp, #64	@ 0x40
   2040c:	2103      	movs	r1, #3
   2040e:	7201      	strb	r1, [r0, #8]
   20410:	4813      	ldr	r0, [pc, #76]	@ (20460 <_ZN20complex_full_dynamic3app17h11d3b62c726e9aceE+0xb4>)
   20412:	9010      	str	r0, [sp, #64]	@ 0x40
   20414:	9411      	str	r4, [sp, #68]	@ 0x44
   20416:	2107      	movs	r1, #7
   20418:	2600      	movs	r6, #0
   2041a:	4622      	mov	r2, r4
   2041c:	4633      	mov	r3, r6
   2041e:	df02      	svc	2
   20420:	287f      	cmp	r0, #127	@ 0x7f
   20422:	d80b      	bhi.n	2043c <_ZN20complex_full_dynamic3app17h11d3b62c726e9aceE+0x90>
   20424:	9c01      	ldr	r4, [sp, #4]
   20426:	6061      	str	r1, [r4, #4]
   20428:	2601      	movs	r6, #1
   2042a:	7026      	strb	r6, [r4, #0]
   2042c:	a810      	add	r0, sp, #64	@ 0x40
   2042e:	f006 fd73 	bl	26f18 <_ZN9allow_pin12full_dynamic17unshare_if_shared17hc1e7d593d40bae1cE>
   20432:	a802      	add	r0, sp, #8
   20434:	f006 fd70 	bl	26f18 <_ZN9allow_pin12full_dynamic17unshare_if_shared17hc1e7d593d40bae1cE>
   20438:	b01b      	add	sp, #108	@ 0x6c
   2043a:	bdf0      	pop	{r4, r5, r6, r7, pc}
   2043c:	a802      	add	r0, sp, #8
   2043e:	f006 fd6b 	bl	26f18 <_ZN9allow_pin12full_dynamic17unshare_if_shared17hc1e7d593d40bae1cE>
   20442:	ac10      	add	r4, sp, #64	@ 0x40
   20444:	4620      	mov	r0, r4
   20446:	f006 fd67 	bl	26f18 <_ZN9allow_pin12full_dynamic17unshare_if_shared17hc1e7d593d40bae1cE>
   2044a:	4620      	mov	r0, r4
   2044c:	f006 fd64 	bl	26f18 <_ZN9allow_pin12full_dynamic17unshare_if_shared17hc1e7d593d40bae1cE>
   20450:	9c01      	ldr	r4, [sp, #4]
   20452:	1c60      	adds	r0, r4, #1
   20454:	221e      	movs	r2, #30
   20456:	4629      	mov	r1, r5
   20458:	f006 ff1f 	bl	2729a <__aeabi_memcpy>
   2045c:	e7e5      	b.n	2042a <_ZN20complex_full_dynamic3app17h11d3b62c726e9aceE+0x7e>
   2045e:	46c0      	nop			@ (mov r8, r8)
   20460:	000007e3 	.word	0x000007e3

00020464 <_ZN20complex_full_dynamic3app17h1377d6f4837161bcE>:
   20464:	b5f0      	push	{r4, r5, r6, r7, lr}
   20466:	af03      	add	r7, sp, #12
   20468:	b09b      	sub	sp, #108	@ 0x6c
   2046a:	9002      	str	r0, [sp, #8]
   2046c:	ae03      	add	r6, sp, #12
   2046e:	2402      	movs	r4, #2
   20470:	7234      	strb	r4, [r6, #8]
   20472:	360c      	adds	r6, #12
   20474:	2227      	movs	r2, #39	@ 0x27
   20476:	9201      	str	r2, [sp, #4]
   20478:	4630      	mov	r0, r6
   2047a:	f006 ff0e 	bl	2729a <__aeabi_memcpy>
   2047e:	ad10      	add	r5, sp, #64	@ 0x40
   20480:	2000      	movs	r0, #0
   20482:	8528      	strh	r0, [r5, #40]	@ 0x28
   20484:	722c      	strb	r4, [r5, #8]
   20486:	9019      	str	r0, [sp, #100]	@ 0x64
   20488:	9018      	str	r0, [sp, #96]	@ 0x60
   2048a:	9017      	str	r0, [sp, #92]	@ 0x5c
   2048c:	9016      	str	r0, [sp, #88]	@ 0x58
   2048e:	9015      	str	r0, [sp, #84]	@ 0x54
   20490:	9014      	str	r0, [sp, #80]	@ 0x50
   20492:	9013      	str	r0, [sp, #76]	@ 0x4c
   20494:	481f      	ldr	r0, [pc, #124]	@ (20514 <_ZN20complex_full_dynamic3app17h1377d6f4837161bcE+0xb0>)
   20496:	2403      	movs	r4, #3
   20498:	4621      	mov	r1, r4
   2049a:	4632      	mov	r2, r6
   2049c:	9b01      	ldr	r3, [sp, #4]
   2049e:	df04      	svc	4
   204a0:	2802      	cmp	r0, #2
   204a2:	d019      	beq.n	204d8 <_ZN20complex_full_dynamic3app17h1377d6f4837161bcE+0x74>
   204a4:	350c      	adds	r5, #12
   204a6:	a803      	add	r0, sp, #12
   204a8:	2104      	movs	r1, #4
   204aa:	7201      	strb	r1, [r0, #8]
   204ac:	4e19      	ldr	r6, [pc, #100]	@ (20514 <_ZN20complex_full_dynamic3app17h1377d6f4837161bcE+0xb0>)
   204ae:	9603      	str	r6, [sp, #12]
   204b0:	9404      	str	r4, [sp, #16]
   204b2:	231e      	movs	r3, #30
   204b4:	4630      	mov	r0, r6
   204b6:	4621      	mov	r1, r4
   204b8:	462a      	mov	r2, r5
   204ba:	df03      	svc	3
   204bc:	2802      	cmp	r0, #2
   204be:	d00b      	beq.n	204d8 <_ZN20complex_full_dynamic3app17h1377d6f4837161bcE+0x74>
   204c0:	a810      	add	r0, sp, #64	@ 0x40
   204c2:	7204      	strb	r4, [r0, #8]
   204c4:	9411      	str	r4, [sp, #68]	@ 0x44
   204c6:	9610      	str	r6, [sp, #64]	@ 0x40
   204c8:	4812      	ldr	r0, [pc, #72]	@ (20514 <_ZN20complex_full_dynamic3app17h1377d6f4837161bcE+0xb0>)
   204ca:	2600      	movs	r6, #0
   204cc:	4621      	mov	r1, r4
   204ce:	4622      	mov	r2, r4
   204d0:	4633      	mov	r3, r6
   204d2:	df02      	svc	2
   204d4:	287f      	cmp	r0, #127	@ 0x7f
   204d6:	d80b      	bhi.n	204f0 <_ZN20complex_full_dynamic3app17h1377d6f4837161bcE+0x8c>
   204d8:	9c02      	ldr	r4, [sp, #8]
   204da:	6061      	str	r1, [r4, #4]
   204dc:	2601      	movs	r6, #1
   204de:	7026      	strb	r6, [r4, #0]
   204e0:	a810      	add	r0, sp, #64	@ 0x40
   204e2:	f006 fd19 	bl	26f18 <_ZN9allow_pin12full_dynamic17unshare_if_shared17hc1e7d593d40bae1cE>
   204e6:	a803      	add	r0, sp, #12
   204e8:	f006 fd16 	bl	26f18 <_ZN9allow_pin12full_dynamic17unshare_if_shared17hc1e7d593d40bae1cE>
   204ec:	b01b      	add	sp, #108	@ 0x6c
   204ee:	bdf0      	pop	{r4, r5, r6, r7, pc}
   204f0:	a803      	add	r0, sp, #12
   204f2:	f006 fd11 	bl	26f18 <_ZN9allow_pin12full_dynamic17unshare_if_shared17hc1e7d593d40bae1cE>
   204f6:	ac10      	add	r4, sp, #64	@ 0x40
   204f8:	4620      	mov	r0, r4
   204fa:	f006 fd0d 	bl	26f18 <_ZN9allow_pin12full_dynamic17unshare_if_shared17hc1e7d593d40bae1cE>
   204fe:	4620      	mov	r0, r4
   20500:	f006 fd0a 	bl	26f18 <_ZN9allow_pin12full_dynamic17unshare_if_shared17hc1e7d593d40bae1cE>
   20504:	9c02      	ldr	r4, [sp, #8]
   20506:	1c60      	adds	r0, r4, #1
   20508:	221e      	movs	r2, #30
   2050a:	4629      	mov	r1, r5
   2050c:	f006 fec5 	bl	2729a <__aeabi_memcpy>
   20510:	e7e5      	b.n	204de <_ZN20complex_full_dynamic3app17h1377d6f4837161bcE+0x7a>
   20512:	46c0      	nop			@ (mov r8, r8)
   20514:	000010e2 	.word	0x000010e2

00020518 <_ZN20complex_full_dynamic3app17h1999937af032b867E>:
   20518:	b5f0      	push	{r4, r5, r6, r7, lr}
   2051a:	af03      	add	r7, sp, #12
   2051c:	b09d      	sub	sp, #116	@ 0x74
   2051e:	9001      	str	r0, [sp, #4]
   20520:	ac02      	add	r4, sp, #8
   20522:	2502      	movs	r5, #2
   20524:	7225      	strb	r5, [r4, #8]
   20526:	340c      	adds	r4, #12
   20528:	223f      	movs	r2, #63	@ 0x3f
   2052a:	9200      	str	r2, [sp, #0]
   2052c:	4620      	mov	r0, r4
   2052e:	f006 feb4 	bl	2729a <__aeabi_memcpy>
   20532:	ae15      	add	r6, sp, #84	@ 0x54
   20534:	2000      	movs	r0, #0
   20536:	7730      	strb	r0, [r6, #28]
   20538:	7235      	strb	r5, [r6, #8]
   2053a:	901b      	str	r0, [sp, #108]	@ 0x6c
   2053c:	901a      	str	r0, [sp, #104]	@ 0x68
   2053e:	9019      	str	r0, [sp, #100]	@ 0x64
   20540:	9018      	str	r0, [sp, #96]	@ 0x60
   20542:	481f      	ldr	r0, [pc, #124]	@ (205c0 <_ZN20complex_full_dynamic3app17h1999937af032b867E+0xa8>)
   20544:	2504      	movs	r5, #4
   20546:	4629      	mov	r1, r5
   20548:	4622      	mov	r2, r4
   2054a:	9b00      	ldr	r3, [sp, #0]
   2054c:	df04      	svc	4
   2054e:	2802      	cmp	r0, #2
   20550:	d019      	beq.n	20586 <_ZN20complex_full_dynamic3app17h1999937af032b867E+0x6e>
   20552:	360c      	adds	r6, #12
   20554:	a802      	add	r0, sp, #8
   20556:	7205      	strb	r5, [r0, #8]
   20558:	9503      	str	r5, [sp, #12]
   2055a:	4819      	ldr	r0, [pc, #100]	@ (205c0 <_ZN20complex_full_dynamic3app17h1999937af032b867E+0xa8>)
   2055c:	9002      	str	r0, [sp, #8]
   2055e:	2403      	movs	r4, #3
   20560:	2311      	movs	r3, #17
   20562:	4621      	mov	r1, r4
   20564:	4632      	mov	r2, r6
   20566:	df03      	svc	3
   20568:	2802      	cmp	r0, #2
   2056a:	d00c      	beq.n	20586 <_ZN20complex_full_dynamic3app17h1999937af032b867E+0x6e>
   2056c:	4635      	mov	r5, r6
   2056e:	a815      	add	r0, sp, #84	@ 0x54
   20570:	7204      	strb	r4, [r0, #8]
   20572:	9416      	str	r4, [sp, #88]	@ 0x58
   20574:	4812      	ldr	r0, [pc, #72]	@ (205c0 <_ZN20complex_full_dynamic3app17h1999937af032b867E+0xa8>)
   20576:	9015      	str	r0, [sp, #84]	@ 0x54
   20578:	2104      	movs	r1, #4
   2057a:	2600      	movs	r6, #0
   2057c:	4622      	mov	r2, r4
   2057e:	4633      	mov	r3, r6
   20580:	df02      	svc	2
   20582:	287f      	cmp	r0, #127	@ 0x7f
   20584:	d80b      	bhi.n	2059e <_ZN20complex_full_dynamic3app17h1999937af032b867E+0x86>
   20586:	9c01      	ldr	r4, [sp, #4]
   20588:	6061      	str	r1, [r4, #4]
   2058a:	2601      	movs	r6, #1
   2058c:	7026      	strb	r6, [r4, #0]
   2058e:	a815      	add	r0, sp, #84	@ 0x54
   20590:	f006 fcc2 	bl	26f18 <_ZN9allow_pin12full_dynamic17unshare_if_shared17hc1e7d593d40bae1cE>
   20594:	a802      	add	r0, sp, #8
   20596:	f006 fcbf 	bl	26f18 <_ZN9allow_pin12full_dynamic17unshare_if_shared17hc1e7d593d40bae1cE>
   2059a:	b01d      	add	sp, #116	@ 0x74
   2059c:	bdf0      	pop	{r4, r5, r6, r7, pc}
   2059e:	a802      	add	r0, sp, #8
   205a0:	f006 fcba 	bl	26f18 <_ZN9allow_pin12full_dynamic17unshare_if_shared17hc1e7d593d40bae1cE>
   205a4:	ac15      	add	r4, sp, #84	@ 0x54
   205a6:	4620      	mov	r0, r4
   205a8:	f006 fcb6 	bl	26f18 <_ZN9allow_pin12full_dynamic17unshare_if_shared17hc1e7d593d40bae1cE>
   205ac:	4620      	mov	r0, r4
   205ae:	f006 fcb3 	bl	26f18 <_ZN9allow_pin12full_dynamic17unshare_if_shared17hc1e7d593d40bae1cE>
   205b2:	9c01      	ldr	r4, [sp, #4]
   205b4:	1c60      	adds	r0, r4, #1
   205b6:	2211      	movs	r2, #17
   205b8:	4629      	mov	r1, r5
   205ba:	f006 fe6e 	bl	2729a <__aeabi_memcpy>
   205be:	e7e5      	b.n	2058c <_ZN20complex_full_dynamic3app17h1999937af032b867E+0x74>
   205c0:	000014d7 	.word	0x000014d7

000205c4 <_ZN20complex_full_dynamic3app17h1d21334f8ec3045dE>:
   205c4:	b5f0      	push	{r4, r5, r6, r7, lr}
   205c6:	af03      	add	r7, sp, #12
   205c8:	b09f      	sub	sp, #124	@ 0x7c
   205ca:	9002      	str	r0, [sp, #8]
   205cc:	ac03      	add	r4, sp, #12
   205ce:	2502      	movs	r5, #2
   205d0:	7225      	strb	r5, [r4, #8]
   205d2:	340c      	adds	r4, #12
   205d4:	2248      	movs	r2, #72	@ 0x48
   205d6:	9201      	str	r2, [sp, #4]
   205d8:	4620      	mov	r0, r4
   205da:	f006 fe5e 	bl	2729a <__aeabi_memcpy>
   205de:	ae18      	add	r6, sp, #96	@ 0x60
   205e0:	2000      	movs	r0, #0
   205e2:	76b0      	strb	r0, [r6, #26]
   205e4:	8330      	strh	r0, [r6, #24]
   205e6:	7235      	strb	r5, [r6, #8]
   205e8:	901d      	str	r0, [sp, #116]	@ 0x74
   205ea:	901c      	str	r0, [sp, #112]	@ 0x70
   205ec:	901b      	str	r0, [sp, #108]	@ 0x6c
   205ee:	4820      	ldr	r0, [pc, #128]	@ (20670 <_ZN20complex_full_dynamic3app17h1d21334f8ec3045dE+0xac>)
   205f0:	2508      	movs	r5, #8
   205f2:	4629      	mov	r1, r5
   205f4:	4622      	mov	r2, r4
   205f6:	9b01      	ldr	r3, [sp, #4]
   205f8:	df04      	svc	4
   205fa:	2802      	cmp	r0, #2
   205fc:	d01b      	beq.n	20636 <_ZN20complex_full_dynamic3app17h1d21334f8ec3045dE+0x72>
   205fe:	360c      	adds	r6, #12
   20600:	a803      	add	r0, sp, #12
   20602:	2104      	movs	r1, #4
   20604:	7201      	strb	r1, [r0, #8]
   20606:	9504      	str	r5, [sp, #16]
   20608:	4819      	ldr	r0, [pc, #100]	@ (20670 <_ZN20complex_full_dynamic3app17h1d21334f8ec3045dE+0xac>)
   2060a:	9003      	str	r0, [sp, #12]
   2060c:	2409      	movs	r4, #9
   2060e:	230f      	movs	r3, #15
   20610:	4621      	mov	r1, r4
   20612:	4632      	mov	r2, r6
   20614:	df03      	svc	3
   20616:	2802      	cmp	r0, #2
   20618:	d00d      	beq.n	20636 <_ZN20complex_full_dynamic3app17h1d21334f8ec3045dE+0x72>
   2061a:	4635      	mov	r5, r6
   2061c:	a818      	add	r0, sp, #96	@ 0x60
   2061e:	2103      	movs	r1, #3
   20620:	7201      	strb	r1, [r0, #8]
   20622:	4813      	ldr	r0, [pc, #76]	@ (20670 <_ZN20complex_full_dynamic3app17h1d21334f8ec3045dE+0xac>)
   20624:	9018      	str	r0, [sp, #96]	@ 0x60
   20626:	9419      	str	r4, [sp, #100]	@ 0x64
   20628:	2108      	movs	r1, #8
   2062a:	2600      	movs	r6, #0
   2062c:	4622      	mov	r2, r4
   2062e:	4633      	mov	r3, r6
   20630:	df02      	svc	2
   20632:	287f      	cmp	r0, #127	@ 0x7f
   20634:	d80b      	bhi.n	2064e <_ZN20complex_full_dynamic3app17h1d21334f8ec3045dE+0x8a>
   20636:	9c02      	ldr	r4, [sp, #8]
   20638:	6061      	str	r1, [r4, #4]
   2063a:	2601      	movs	r6, #1
   2063c:	7026      	strb	r6, [r4, #0]
   2063e:	a818      	add	r0, sp, #96	@ 0x60
   20640:	f006 fc6a 	bl	26f18 <_ZN9allow_pin12full_dynamic17unshare_if_shared17hc1e7d593d40bae1cE>
   20644:	a803      	add	r0, sp, #12
   20646:	f006 fc67 	bl	26f18 <_ZN9allow_pin12full_dynamic17unshare_if_shared17hc1e7d593d40bae1cE>
   2064a:	b01f      	add	sp, #124	@ 0x7c
   2064c:	bdf0      	pop	{r4, r5, r6, r7, pc}
   2064e:	a803      	add	r0, sp, #12
   20650:	f006 fc62 	bl	26f18 <_ZN9allow_pin12full_dynamic17unshare_if_shared17hc1e7d593d40bae1cE>
   20654:	ac18      	add	r4, sp, #96	@ 0x60
   20656:	4620      	mov	r0, r4
   20658:	f006 fc5e 	bl	26f18 <_ZN9allow_pin12full_dynamic17unshare_if_shared17hc1e7d593d40bae1cE>
   2065c:	4620      	mov	r0, r4
   2065e:	f006 fc5b 	bl	26f18 <_ZN9allow_pin12full_dynamic17unshare_if_shared17hc1e7d593d40bae1cE>
   20662:	9c02      	ldr	r4, [sp, #8]
   20664:	1c60      	adds	r0, r4, #1
   20666:	220f      	movs	r2, #15
   20668:	4629      	mov	r1, r5
   2066a:	f006 fe16 	bl	2729a <__aeabi_memcpy>
   2066e:	e7e5      	b.n	2063c <_ZN20complex_full_dynamic3app17h1d21334f8ec3045dE+0x78>
   20670:	0000111d 	.word	0x0000111d

00020674 <_ZN20complex_full_dynamic3app17h1ea591662889d8e2E>:
   20674:	b5f0      	push	{r4, r5, r6, r7, lr}
   20676:	af03      	add	r7, sp, #12
   20678:	b099      	sub	sp, #100	@ 0x64
   2067a:	9002      	str	r0, [sp, #8]
   2067c:	ac03      	add	r4, sp, #12
   2067e:	2002      	movs	r0, #2
   20680:	9001      	str	r0, [sp, #4]
   20682:	7220      	strb	r0, [r4, #8]
   20684:	340c      	adds	r4, #12
   20686:	2214      	movs	r2, #20
   20688:	9200      	str	r2, [sp, #0]
   2068a:	4620      	mov	r0, r4
   2068c:	f006 fe05 	bl	2729a <__aeabi_memcpy>
   20690:	ae0b      	add	r6, sp, #44	@ 0x2c
   20692:	4635      	mov	r5, r6
   20694:	350c      	adds	r5, #12
   20696:	212b      	movs	r1, #43	@ 0x2b
   20698:	4628      	mov	r0, r5
   2069a:	f006 fc51 	bl	26f40 <__aeabi_memclr4>
   2069e:	9801      	ldr	r0, [sp, #4]
   206a0:	7230      	strb	r0, [r6, #8]
   206a2:	481f      	ldr	r0, [pc, #124]	@ (20720 <_ZN20complex_full_dynamic3app17h1ea591662889d8e2E+0xac>)
   206a4:	2608      	movs	r6, #8
   206a6:	4631      	mov	r1, r6
   206a8:	4622      	mov	r2, r4
   206aa:	9b00      	ldr	r3, [sp, #0]
   206ac:	df04      	svc	4
   206ae:	2802      	cmp	r0, #2
   206b0:	d019      	beq.n	206e6 <_ZN20complex_full_dynamic3app17h1ea591662889d8e2E+0x72>
   206b2:	a803      	add	r0, sp, #12
   206b4:	2404      	movs	r4, #4
   206b6:	7204      	strb	r4, [r0, #8]
   206b8:	9604      	str	r6, [sp, #16]
   206ba:	4e19      	ldr	r6, [pc, #100]	@ (20720 <_ZN20complex_full_dynamic3app17h1ea591662889d8e2E+0xac>)
   206bc:	9603      	str	r6, [sp, #12]
   206be:	232b      	movs	r3, #43	@ 0x2b
   206c0:	4630      	mov	r0, r6
   206c2:	4621      	mov	r1, r4
   206c4:	462a      	mov	r2, r5
   206c6:	df03      	svc	3
   206c8:	2802      	cmp	r0, #2
   206ca:	d00c      	beq.n	206e6 <_ZN20complex_full_dynamic3app17h1ea591662889d8e2E+0x72>
   206cc:	a80b      	add	r0, sp, #44	@ 0x2c
   206ce:	2103      	movs	r1, #3
   206d0:	7201      	strb	r1, [r0, #8]
   206d2:	960b      	str	r6, [sp, #44]	@ 0x2c
   206d4:	940c      	str	r4, [sp, #48]	@ 0x30
   206d6:	4812      	ldr	r0, [pc, #72]	@ (20720 <_ZN20complex_full_dynamic3app17h1ea591662889d8e2E+0xac>)
   206d8:	2108      	movs	r1, #8
   206da:	2600      	movs	r6, #0
   206dc:	4622      	mov	r2, r4
   206de:	4633      	mov	r3, r6
   206e0:	df02      	svc	2
   206e2:	287f      	cmp	r0, #127	@ 0x7f
   206e4:	d80b      	bhi.n	206fe <_ZN20complex_full_dynamic3app17h1ea591662889d8e2E+0x8a>
   206e6:	9c02      	ldr	r4, [sp, #8]
   206e8:	6061      	str	r1, [r4, #4]
   206ea:	2601      	movs	r6, #1
   206ec:	7026      	strb	r6, [r4, #0]
   206ee:	a80b      	add	r0, sp, #44	@ 0x2c
   206f0:	f006 fc12 	bl	26f18 <_ZN9allow_pin12full_dynamic17unshare_if_shared17hc1e7d593d40bae1cE>
   206f4:	a803      	add	r0, sp, #12
   206f6:	f006 fc0f 	bl	26f18 <_ZN9allow_pin12full_dynamic17unshare_if_shared17hc1e7d593d40bae1cE>
   206fa:	b019      	add	sp, #100	@ 0x64
   206fc:	bdf0      	pop	{r4, r5, r6, r7, pc}
   206fe:	a803      	add	r0, sp, #12
   20700:	f006 fc0a 	bl	26f18 <_ZN9allow_pin12full_dynamic17unshare_if_shared17hc1e7d593d40bae1cE>
   20704:	ac0b      	add	r4, sp, #44	@ 0x2c
   20706:	4620      	mov	r0, r4
   20708:	f006 fc06 	bl	26f18 <_ZN9allow_pin12full_dynamic17unshare_if_shared17hc1e7d593d40bae1cE>
   2070c:	4620      	mov	r0, r4
   2070e:	f006 fc03 	bl	26f18 <_ZN9allow_pin12full_dynamic17unshare_if_shared17hc1e7d593d40bae1cE>
   20712:	9c02      	ldr	r4, [sp, #8]
   20714:	1c60      	adds	r0, r4, #1
   20716:	222b      	movs	r2, #43	@ 0x2b
   20718:	4629      	mov	r1, r5
   2071a:	f006 fdbe 	bl	2729a <__aeabi_memcpy>
   2071e:	e7e5      	b.n	206ec <_ZN20complex_full_dynamic3app17h1ea591662889d8e2E+0x78>
   20720:	0000239f 	.word	0x0000239f

00020724 <_ZN20complex_full_dynamic3app17h1eeb73855ce67543E>:
   20724:	b5f0      	push	{r4, r5, r6, r7, lr}
   20726:	af03      	add	r7, sp, #12
   20728:	b0b7      	sub	sp, #220	@ 0xdc
   2072a:	9003      	str	r0, [sp, #12]
   2072c:	ad04      	add	r5, sp, #16
   2072e:	2602      	movs	r6, #2
   20730:	722e      	strb	r6, [r5, #8]
   20732:	350c      	adds	r5, #12
   20734:	224f      	movs	r2, #79	@ 0x4f
   20736:	9202      	str	r2, [sp, #8]
   20738:	4628      	mov	r0, r5
   2073a:	f006 fdae 	bl	2729a <__aeabi_memcpy>
   2073e:	ac1b      	add	r4, sp, #108	@ 0x6c
   20740:	4620      	mov	r0, r4
   20742:	300c      	adds	r0, #12
   20744:	2161      	movs	r1, #97	@ 0x61
   20746:	9001      	str	r0, [sp, #4]
   20748:	f006 fbfa 	bl	26f40 <__aeabi_memclr4>
   2074c:	7226      	strb	r6, [r4, #8]
   2074e:	4634      	mov	r4, r6
   20750:	20db      	movs	r0, #219	@ 0xdb
   20752:	0046      	lsls	r6, r0, #1
   20754:	4630      	mov	r0, r6
   20756:	4621      	mov	r1, r4
   20758:	462a      	mov	r2, r5
   2075a:	9b02      	ldr	r3, [sp, #8]
   2075c:	df04      	svc	4
   2075e:	2802      	cmp	r0, #2
   20760:	d01a      	beq.n	20798 <_ZN20complex_full_dynamic3app17h1eeb73855ce67543E+0x74>
   20762:	a804      	add	r0, sp, #16
   20764:	2104      	movs	r1, #4
   20766:	7201      	strb	r1, [r0, #8]
   20768:	9405      	str	r4, [sp, #20]
   2076a:	9604      	str	r6, [sp, #16]
   2076c:	2508      	movs	r5, #8
   2076e:	2361      	movs	r3, #97	@ 0x61
   20770:	4630      	mov	r0, r6
   20772:	4629      	mov	r1, r5
   20774:	9c01      	ldr	r4, [sp, #4]
   20776:	4622      	mov	r2, r4
   20778:	df03      	svc	3
   2077a:	2802      	cmp	r0, #2
   2077c:	d00c      	beq.n	20798 <_ZN20complex_full_dynamic3app17h1eeb73855ce67543E+0x74>
   2077e:	a81b      	add	r0, sp, #108	@ 0x6c
   20780:	2103      	movs	r1, #3
   20782:	7201      	strb	r1, [r0, #8]
   20784:	961b      	str	r6, [sp, #108]	@ 0x6c
   20786:	951c      	str	r5, [sp, #112]	@ 0x70
   20788:	2102      	movs	r1, #2
   2078a:	4630      	mov	r0, r6
   2078c:	2600      	movs	r6, #0
   2078e:	462a      	mov	r2, r5
   20790:	4633      	mov	r3, r6
   20792:	df02      	svc	2
   20794:	287f      	cmp	r0, #127	@ 0x7f
   20796:	d80b      	bhi.n	207b0 <_ZN20complex_full_dynamic3app17h1eeb73855ce67543E+0x8c>
   20798:	9c03      	ldr	r4, [sp, #12]
   2079a:	6061      	str	r1, [r4, #4]
   2079c:	2601      	movs	r6, #1
   2079e:	7026      	strb	r6, [r4, #0]
   207a0:	a81b      	add	r0, sp, #108	@ 0x6c
   207a2:	f006 fbb9 	bl	26f18 <_ZN9allow_pin12full_dynamic17unshare_if_shared17hc1e7d593d40bae1cE>
   207a6:	a804      	add	r0, sp, #16
   207a8:	f006 fbb6 	bl	26f18 <_ZN9allow_pin12full_dynamic17unshare_if_shared17hc1e7d593d40bae1cE>
   207ac:	b037      	add	sp, #220	@ 0xdc
   207ae:	bdf0      	pop	{r4, r5, r6, r7, pc}
   207b0:	a804      	add	r0, sp, #16
   207b2:	f006 fbb1 	bl	26f18 <_ZN9allow_pin12full_dynamic17unshare_if_shared17hc1e7d593d40bae1cE>
   207b6:	4625      	mov	r5, r4
   207b8:	ac1b      	add	r4, sp, #108	@ 0x6c
   207ba:	4620      	mov	r0, r4
   207bc:	f006 fbac 	bl	26f18 <_ZN9allow_pin12full_dynamic17unshare_if_shared17hc1e7d593d40bae1cE>
   207c0:	4620      	mov	r0, r4
   207c2:	f006 fba9 	bl	26f18 <_ZN9allow_pin12full_dynamic17unshare_if_shared17hc1e7d593d40bae1cE>
   207c6:	9c03      	ldr	r4, [sp, #12]
   207c8:	1c60      	adds	r0, r4, #1
   207ca:	2261      	movs	r2, #97	@ 0x61
   207cc:	4629      	mov	r1, r5
   207ce:	f006 fd64 	bl	2729a <__aeabi_memcpy>
   207d2:	e7e4      	b.n	2079e <_ZN20complex_full_dynamic3app17h1eeb73855ce67543E+0x7a>

000207d4 <_ZN20complex_full_dynamic3app17h1f36716b9cce6f6fE>:
   207d4:	b5f0      	push	{r4, r5, r6, r7, lr}
   207d6:	af03      	add	r7, sp, #12
   207d8:	b09b      	sub	sp, #108	@ 0x6c
   207da:	9003      	str	r0, [sp, #12]
   207dc:	ac04      	add	r4, sp, #16
   207de:	2002      	movs	r0, #2
   207e0:	9002      	str	r0, [sp, #8]
   207e2:	7220      	strb	r0, [r4, #8]
   207e4:	340c      	adds	r4, #12
   207e6:	221e      	movs	r2, #30
   207e8:	9201      	str	r2, [sp, #4]
   207ea:	4620      	mov	r0, r4
   207ec:	f006 fd55 	bl	2729a <__aeabi_memcpy>
   207f0:	ae0f      	add	r6, sp, #60	@ 0x3c
   207f2:	4635      	mov	r5, r6
   207f4:	350c      	adds	r5, #12
   207f6:	2121      	movs	r1, #33	@ 0x21
   207f8:	4628      	mov	r0, r5
   207fa:	f006 fba1 	bl	26f40 <__aeabi_memclr4>
   207fe:	9802      	ldr	r0, [sp, #8]
   20800:	7230      	strb	r0, [r6, #8]
   20802:	4820      	ldr	r0, [pc, #128]	@ (20884 <_ZN20complex_full_dynamic3app17h1f36716b9cce6f6fE+0xb0>)
   20804:	2606      	movs	r6, #6
   20806:	4631      	mov	r1, r6
   20808:	4622      	mov	r2, r4
   2080a:	9b01      	ldr	r3, [sp, #4]
   2080c:	df04      	svc	4
   2080e:	2802      	cmp	r0, #2
   20810:	d01a      	beq.n	20848 <_ZN20complex_full_dynamic3app17h1f36716b9cce6f6fE+0x74>
   20812:	a804      	add	r0, sp, #16
   20814:	2104      	movs	r1, #4
   20816:	7201      	strb	r1, [r0, #8]
   20818:	9605      	str	r6, [sp, #20]
   2081a:	4e1a      	ldr	r6, [pc, #104]	@ (20884 <_ZN20complex_full_dynamic3app17h1f36716b9cce6f6fE+0xb0>)
   2081c:	9604      	str	r6, [sp, #16]
   2081e:	2409      	movs	r4, #9
   20820:	2321      	movs	r3, #33	@ 0x21
   20822:	4630      	mov	r0, r6
   20824:	4621      	mov	r1, r4
   20826:	462a      	mov	r2, r5
   20828:	df03      	svc	3
   2082a:	2802      	cmp	r0, #2
   2082c:	d00c      	beq.n	20848 <_ZN20complex_full_dynamic3app17h1f36716b9cce6f6fE+0x74>
   2082e:	a80f      	add	r0, sp, #60	@ 0x3c
   20830:	2103      	movs	r1, #3
   20832:	7201      	strb	r1, [r0, #8]
   20834:	960f      	str	r6, [sp, #60]	@ 0x3c
   20836:	9410      	str	r4, [sp, #64]	@ 0x40
   20838:	4812      	ldr	r0, [pc, #72]	@ (20884 <_ZN20complex_full_dynamic3app17h1f36716b9cce6f6fE+0xb0>)
   2083a:	2106      	movs	r1, #6
   2083c:	2600      	movs	r6, #0
   2083e:	4622      	mov	r2, r4
   20840:	4633      	mov	r3, r6
   20842:	df02      	svc	2
   20844:	287f      	cmp	r0, #127	@ 0x7f
   20846:	d80b      	bhi.n	20860 <_ZN20complex_full_dynamic3app17h1f36716b9cce6f6fE+0x8c>
   20848:	9c03      	ldr	r4, [sp, #12]
   2084a:	6061      	str	r1, [r4, #4]
   2084c:	2601      	movs	r6, #1
   2084e:	7026      	strb	r6, [r4, #0]
   20850:	a80f      	add	r0, sp, #60	@ 0x3c
   20852:	f006 fb61 	bl	26f18 <_ZN9allow_pin12full_dynamic17unshare_if_shared17hc1e7d593d40bae1cE>
   20856:	a804      	add	r0, sp, #16
   20858:	f006 fb5e 	bl	26f18 <_ZN9allow_pin12full_dynamic17unshare_if_shared17hc1e7d593d40bae1cE>
   2085c:	b01b      	add	sp, #108	@ 0x6c
   2085e:	bdf0      	pop	{r4, r5, r6, r7, pc}
   20860:	a804      	add	r0, sp, #16
   20862:	f006 fb59 	bl	26f18 <_ZN9allow_pin12full_dynamic17unshare_if_shared17hc1e7d593d40bae1cE>
   20866:	ac0f      	add	r4, sp, #60	@ 0x3c
   20868:	4620      	mov	r0, r4
   2086a:	f006 fb55 	bl	26f18 <_ZN9allow_pin12full_dynamic17unshare_if_shared17hc1e7d593d40bae1cE>
   2086e:	4620      	mov	r0, r4
   20870:	f006 fb52 	bl	26f18 <_ZN9allow_pin12full_dynamic17unshare_if_shared17hc1e7d593d40bae1cE>
   20874:	9c03      	ldr	r4, [sp, #12]
   20876:	1c60      	adds	r0, r4, #1
   20878:	2221      	movs	r2, #33	@ 0x21
   2087a:	4629      	mov	r1, r5
   2087c:	f006 fd0d 	bl	2729a <__aeabi_memcpy>
   20880:	e7e5      	b.n	2084e <_ZN20complex_full_dynamic3app17h1f36716b9cce6f6fE+0x7a>
   20882:	46c0      	nop			@ (mov r8, r8)
   20884:	000019b5 	.word	0x000019b5

00020888 <_ZN20complex_full_dynamic3app17h201c47aecfe5f491E>:
   20888:	b5f0      	push	{r4, r5, r6, r7, lr}
   2088a:	af03      	add	r7, sp, #12
   2088c:	b0b3      	sub	sp, #204	@ 0xcc
   2088e:	9003      	str	r0, [sp, #12]
   20890:	ac04      	add	r4, sp, #16
   20892:	2002      	movs	r0, #2
   20894:	9002      	str	r0, [sp, #8]
   20896:	7220      	strb	r0, [r4, #8]
   20898:	340c      	adds	r4, #12
   2089a:	2253      	movs	r2, #83	@ 0x53
   2089c:	9201      	str	r2, [sp, #4]
   2089e:	4620      	mov	r0, r4
   208a0:	f006 fcfb 	bl	2729a <__aeabi_memcpy>
   208a4:	ae1c      	add	r6, sp, #112	@ 0x70
   208a6:	4635      	mov	r5, r6
   208a8:	350c      	adds	r5, #12
   208aa:	214d      	movs	r1, #77	@ 0x4d
   208ac:	4628      	mov	r0, r5
   208ae:	f006 fb47 	bl	26f40 <__aeabi_memclr4>
   208b2:	9802      	ldr	r0, [sp, #8]
   208b4:	7230      	strb	r0, [r6, #8]
   208b6:	481f      	ldr	r0, [pc, #124]	@ (20934 <_ZN20complex_full_dynamic3app17h201c47aecfe5f491E+0xac>)
   208b8:	2609      	movs	r6, #9
   208ba:	4631      	mov	r1, r6
   208bc:	4622      	mov	r2, r4
   208be:	9b01      	ldr	r3, [sp, #4]
   208c0:	df04      	svc	4
   208c2:	2802      	cmp	r0, #2
   208c4:	d019      	beq.n	208fa <_ZN20complex_full_dynamic3app17h201c47aecfe5f491E+0x72>
   208c6:	a804      	add	r0, sp, #16
   208c8:	2404      	movs	r4, #4
   208ca:	7204      	strb	r4, [r0, #8]
   208cc:	9605      	str	r6, [sp, #20]
   208ce:	4e19      	ldr	r6, [pc, #100]	@ (20934 <_ZN20complex_full_dynamic3app17h201c47aecfe5f491E+0xac>)
   208d0:	9604      	str	r6, [sp, #16]
   208d2:	234d      	movs	r3, #77	@ 0x4d
   208d4:	4630      	mov	r0, r6
   208d6:	4621      	mov	r1, r4
   208d8:	462a      	mov	r2, r5
   208da:	df03      	svc	3
   208dc:	2802      	cmp	r0, #2
   208de:	d00c      	beq.n	208fa <_ZN20complex_full_dynamic3app17h201c47aecfe5f491E+0x72>
   208e0:	a81c      	add	r0, sp, #112	@ 0x70
   208e2:	2103      	movs	r1, #3
   208e4:	7201      	strb	r1, [r0, #8]
   208e6:	961c      	str	r6, [sp, #112]	@ 0x70
   208e8:	941d      	str	r4, [sp, #116]	@ 0x74
   208ea:	4812      	ldr	r0, [pc, #72]	@ (20934 <_ZN20complex_full_dynamic3app17h201c47aecfe5f491E+0xac>)
   208ec:	2109      	movs	r1, #9
   208ee:	2600      	movs	r6, #0
   208f0:	4622      	mov	r2, r4
   208f2:	4633      	mov	r3, r6
   208f4:	df02      	svc	2
   208f6:	287f      	cmp	r0, #127	@ 0x7f
   208f8:	d80b      	bhi.n	20912 <_ZN20complex_full_dynamic3app17h201c47aecfe5f491E+0x8a>
   208fa:	9c03      	ldr	r4, [sp, #12]
   208fc:	6061      	str	r1, [r4, #4]
   208fe:	2601      	movs	r6, #1
   20900:	7026      	strb	r6, [r4, #0]
   20902:	a81c      	add	r0, sp, #112	@ 0x70
   20904:	f006 fb08 	bl	26f18 <_ZN9allow_pin12full_dynamic17unshare_if_shared17hc1e7d593d40bae1cE>
   20908:	a804      	add	r0, sp, #16
   2090a:	f006 fb05 	bl	26f18 <_ZN9allow_pin12full_dynamic17unshare_if_shared17hc1e7d593d40bae1cE>
   2090e:	b033      	add	sp, #204	@ 0xcc
   20910:	bdf0      	pop	{r4, r5, r6, r7, pc}
   20912:	a804      	add	r0, sp, #16
   20914:	f006 fb00 	bl	26f18 <_ZN9allow_pin12full_dynamic17unshare_if_shared17hc1e7d593d40bae1cE>
   20918:	ac1c      	add	r4, sp, #112	@ 0x70
   2091a:	4620      	mov	r0, r4
   2091c:	f006 fafc 	bl	26f18 <_ZN9allow_pin12full_dynamic17unshare_if_shared17hc1e7d593d40bae1cE>
   20920:	4620      	mov	r0, r4
   20922:	f006 faf9 	bl	26f18 <_ZN9allow_pin12full_dynamic17unshare_if_shared17hc1e7d593d40bae1cE>
   20926:	9c03      	ldr	r4, [sp, #12]
   20928:	1c60      	adds	r0, r4, #1
   2092a:	224d      	movs	r2, #77	@ 0x4d
   2092c:	4629      	mov	r1, r5
   2092e:	f006 fcb4 	bl	2729a <__aeabi_memcpy>
   20932:	e7e5      	b.n	20900 <_ZN20complex_full_dynamic3app17h201c47aecfe5f491E+0x78>
   20934:	000016ba 	.word	0x000016ba

00020938 <_ZN20complex_full_dynamic3app17h21f588009cce3e74E>:
   20938:	b5f0      	push	{r4, r5, r6, r7, lr}
   2093a:	af03      	add	r7, sp, #12
   2093c:	b09f      	sub	sp, #124	@ 0x7c
   2093e:	9002      	str	r0, [sp, #8]
   20940:	ac03      	add	r4, sp, #12
   20942:	2602      	movs	r6, #2
   20944:	7226      	strb	r6, [r4, #8]
   20946:	340c      	adds	r4, #12
   20948:	2212      	movs	r2, #18
   2094a:	9201      	str	r2, [sp, #4]
   2094c:	4620      	mov	r0, r4
   2094e:	f006 fca4 	bl	2729a <__aeabi_memcpy>
   20952:	ad0b      	add	r5, sp, #44	@ 0x2c
   20954:	4628      	mov	r0, r5
   20956:	300c      	adds	r0, #12
   20958:	2144      	movs	r1, #68	@ 0x44
   2095a:	9000      	str	r0, [sp, #0]
   2095c:	f006 faf0 	bl	26f40 <__aeabi_memclr4>
   20960:	722e      	strb	r6, [r5, #8]
   20962:	4635      	mov	r5, r6
   20964:	4e1f      	ldr	r6, [pc, #124]	@ (209e4 <_ZN20complex_full_dynamic3app17h21f588009cce3e74E+0xac>)
   20966:	4630      	mov	r0, r6
   20968:	4629      	mov	r1, r5
   2096a:	4622      	mov	r2, r4
   2096c:	9b01      	ldr	r3, [sp, #4]
   2096e:	df04      	svc	4
   20970:	2802      	cmp	r0, #2
   20972:	d01a      	beq.n	209aa <_ZN20complex_full_dynamic3app17h21f588009cce3e74E+0x72>
   20974:	a803      	add	r0, sp, #12
   20976:	2104      	movs	r1, #4
   20978:	7201      	strb	r1, [r0, #8]
   2097a:	9504      	str	r5, [sp, #16]
   2097c:	9603      	str	r6, [sp, #12]
   2097e:	2409      	movs	r4, #9
   20980:	2344      	movs	r3, #68	@ 0x44
   20982:	4630      	mov	r0, r6
   20984:	4621      	mov	r1, r4
   20986:	9d00      	ldr	r5, [sp, #0]
   20988:	462a      	mov	r2, r5
   2098a:	df03      	svc	3
   2098c:	2802      	cmp	r0, #2
   2098e:	d00c      	beq.n	209aa <_ZN20complex_full_dynamic3app17h21f588009cce3e74E+0x72>
   20990:	a80b      	add	r0, sp, #44	@ 0x2c
   20992:	2103      	movs	r1, #3
   20994:	7201      	strb	r1, [r0, #8]
   20996:	960b      	str	r6, [sp, #44]	@ 0x2c
   20998:	940c      	str	r4, [sp, #48]	@ 0x30
   2099a:	4812      	ldr	r0, [pc, #72]	@ (209e4 <_ZN20complex_full_dynamic3app17h21f588009cce3e74E+0xac>)
   2099c:	2102      	movs	r1, #2
   2099e:	2600      	movs	r6, #0
   209a0:	4622      	mov	r2, r4
   209a2:	4633      	mov	r3, r6
   209a4:	df02      	svc	2
   209a6:	287f      	cmp	r0, #127	@ 0x7f
   209a8:	d80b      	bhi.n	209c2 <_ZN20complex_full_dynamic3app17h21f588009cce3e74E+0x8a>
   209aa:	9c02      	ldr	r4, [sp, #8]
   209ac:	6061      	str	r1, [r4, #4]
   209ae:	2601      	movs	r6, #1
   209b0:	7026      	strb	r6, [r4, #0]
   209b2:	a80b      	add	r0, sp, #44	@ 0x2c
   209b4:	f006 fab0 	bl	26f18 <_ZN9allow_pin12full_dynamic17unshare_if_shared17hc1e7d593d40bae1cE>
   209b8:	a803      	add	r0, sp, #12
   209ba:	f006 faad 	bl	26f18 <_ZN9allow_pin12full_dynamic17unshare_if_shared17hc1e7d593d40bae1cE>
   209be:	b01f      	add	sp, #124	@ 0x7c
   209c0:	bdf0      	pop	{r4, r5, r6, r7, pc}
   209c2:	a803      	add	r0, sp, #12
   209c4:	f006 faa8 	bl	26f18 <_ZN9allow_pin12full_dynamic17unshare_if_shared17hc1e7d593d40bae1cE>
   209c8:	ac0b      	add	r4, sp, #44	@ 0x2c
   209ca:	4620      	mov	r0, r4
   209cc:	f006 faa4 	bl	26f18 <_ZN9allow_pin12full_dynamic17unshare_if_shared17hc1e7d593d40bae1cE>
   209d0:	4620      	mov	r0, r4
   209d2:	f006 faa1 	bl	26f18 <_ZN9allow_pin12full_dynamic17unshare_if_shared17hc1e7d593d40bae1cE>
   209d6:	9c02      	ldr	r4, [sp, #8]
   209d8:	1c60      	adds	r0, r4, #1
   209da:	2244      	movs	r2, #68	@ 0x44
   209dc:	4629      	mov	r1, r5
   209de:	f006 fc5c 	bl	2729a <__aeabi_memcpy>
   209e2:	e7e5      	b.n	209b0 <_ZN20complex_full_dynamic3app17h21f588009cce3e74E+0x78>
   209e4:	00002432 	.word	0x00002432

000209e8 <_ZN20complex_full_dynamic3app17h25b1b57496a92bc6E>:
   209e8:	b5f0      	push	{r4, r5, r6, r7, lr}
   209ea:	af03      	add	r7, sp, #12
   209ec:	b0ad      	sub	sp, #180	@ 0xb4
   209ee:	9003      	str	r0, [sp, #12]
   209f0:	ae04      	add	r6, sp, #16
   209f2:	2002      	movs	r0, #2
   209f4:	9002      	str	r0, [sp, #8]
   209f6:	7230      	strb	r0, [r6, #8]
   209f8:	360c      	adds	r6, #12
   209fa:	2263      	movs	r2, #99	@ 0x63
   209fc:	9201      	str	r2, [sp, #4]
   209fe:	4630      	mov	r0, r6
   20a00:	f006 fc4b 	bl	2729a <__aeabi_memcpy>
   20a04:	ac20      	add	r4, sp, #128	@ 0x80
   20a06:	4625      	mov	r5, r4
   20a08:	350c      	adds	r5, #12
   20a0a:	2127      	movs	r1, #39	@ 0x27
   20a0c:	4628      	mov	r0, r5
   20a0e:	f006 fa97 	bl	26f40 <__aeabi_memclr4>
   20a12:	9802      	ldr	r0, [sp, #8]
   20a14:	7220      	strb	r0, [r4, #8]
   20a16:	481f      	ldr	r0, [pc, #124]	@ (20a94 <_ZN20complex_full_dynamic3app17h25b1b57496a92bc6E+0xac>)
   20a18:	2407      	movs	r4, #7
   20a1a:	4621      	mov	r1, r4
   20a1c:	4632      	mov	r2, r6
   20a1e:	9b01      	ldr	r3, [sp, #4]
   20a20:	df04      	svc	4
   20a22:	2802      	cmp	r0, #2
   20a24:	d019      	beq.n	20a5a <_ZN20complex_full_dynamic3app17h25b1b57496a92bc6E+0x72>
   20a26:	a804      	add	r0, sp, #16
   20a28:	2104      	movs	r1, #4
   20a2a:	7201      	strb	r1, [r0, #8]
   20a2c:	9405      	str	r4, [sp, #20]
   20a2e:	4c19      	ldr	r4, [pc, #100]	@ (20a94 <_ZN20complex_full_dynamic3app17h25b1b57496a92bc6E+0xac>)
   20a30:	9404      	str	r4, [sp, #16]
   20a32:	2600      	movs	r6, #0
   20a34:	2327      	movs	r3, #39	@ 0x27
   20a36:	4620      	mov	r0, r4
   20a38:	4631      	mov	r1, r6
   20a3a:	462a      	mov	r2, r5
   20a3c:	df03      	svc	3
   20a3e:	2802      	cmp	r0, #2
   20a40:	d00b      	beq.n	20a5a <_ZN20complex_full_dynamic3app17h25b1b57496a92bc6E+0x72>
   20a42:	a820      	add	r0, sp, #128	@ 0x80
   20a44:	2103      	movs	r1, #3
   20a46:	7201      	strb	r1, [r0, #8]
   20a48:	9420      	str	r4, [sp, #128]	@ 0x80
   20a4a:	9621      	str	r6, [sp, #132]	@ 0x84
   20a4c:	4811      	ldr	r0, [pc, #68]	@ (20a94 <_ZN20complex_full_dynamic3app17h25b1b57496a92bc6E+0xac>)
   20a4e:	2107      	movs	r1, #7
   20a50:	4632      	mov	r2, r6
   20a52:	4633      	mov	r3, r6
   20a54:	df02      	svc	2
   20a56:	287f      	cmp	r0, #127	@ 0x7f
   20a58:	d80b      	bhi.n	20a72 <_ZN20complex_full_dynamic3app17h25b1b57496a92bc6E+0x8a>
   20a5a:	9c03      	ldr	r4, [sp, #12]
   20a5c:	6061      	str	r1, [r4, #4]
   20a5e:	2601      	movs	r6, #1
   20a60:	7026      	strb	r6, [r4, #0]
   20a62:	a820      	add	r0, sp, #128	@ 0x80
   20a64:	f006 fa58 	bl	26f18 <_ZN9allow_pin12full_dynamic17unshare_if_shared17hc1e7d593d40bae1cE>
   20a68:	a804      	add	r0, sp, #16
   20a6a:	f006 fa55 	bl	26f18 <_ZN9allow_pin12full_dynamic17unshare_if_shared17hc1e7d593d40bae1cE>
   20a6e:	b02d      	add	sp, #180	@ 0xb4
   20a70:	bdf0      	pop	{r4, r5, r6, r7, pc}
   20a72:	a804      	add	r0, sp, #16
   20a74:	f006 fa50 	bl	26f18 <_ZN9allow_pin12full_dynamic17unshare_if_shared17hc1e7d593d40bae1cE>
   20a78:	ac20      	add	r4, sp, #128	@ 0x80
   20a7a:	4620      	mov	r0, r4
   20a7c:	f006 fa4c 	bl	26f18 <_ZN9allow_pin12full_dynamic17unshare_if_shared17hc1e7d593d40bae1cE>
   20a80:	4620      	mov	r0, r4
   20a82:	f006 fa49 	bl	26f18 <_ZN9allow_pin12full_dynamic17unshare_if_shared17hc1e7d593d40bae1cE>
   20a86:	9c03      	ldr	r4, [sp, #12]
   20a88:	1c60      	adds	r0, r4, #1
   20a8a:	2227      	movs	r2, #39	@ 0x27
   20a8c:	4629      	mov	r1, r5
   20a8e:	f006 fc04 	bl	2729a <__aeabi_memcpy>
   20a92:	e7e5      	b.n	20a60 <_ZN20complex_full_dynamic3app17h25b1b57496a92bc6E+0x78>
   20a94:	00001e54 	.word	0x00001e54

00020a98 <_ZN20complex_full_dynamic3app17h263aa3621af79907E>:
   20a98:	b5f0      	push	{r4, r5, r6, r7, lr}
   20a9a:	af03      	add	r7, sp, #12
   20a9c:	b0ad      	sub	sp, #180	@ 0xb4
   20a9e:	9003      	str	r0, [sp, #12]
   20aa0:	ac04      	add	r4, sp, #16
   20aa2:	2002      	movs	r0, #2
   20aa4:	9002      	str	r0, [sp, #8]
   20aa6:	7220      	strb	r0, [r4, #8]
   20aa8:	340c      	adds	r4, #12
   20aaa:	224f      	movs	r2, #79	@ 0x4f
   20aac:	9201      	str	r2, [sp, #4]
   20aae:	4620      	mov	r0, r4
   20ab0:	f006 fbf3 	bl	2729a <__aeabi_memcpy>
   20ab4:	ae1b      	add	r6, sp, #108	@ 0x6c
   20ab6:	4635      	mov	r5, r6
   20ab8:	350c      	adds	r5, #12
   20aba:	213b      	movs	r1, #59	@ 0x3b
   20abc:	4628      	mov	r0, r5
   20abe:	f006 fa3f 	bl	26f40 <__aeabi_memclr4>
   20ac2:	9802      	ldr	r0, [sp, #8]
   20ac4:	7230      	strb	r0, [r6, #8]
   20ac6:	4820      	ldr	r0, [pc, #128]	@ (20b48 <_ZN20complex_full_dynamic3app17h263aa3621af79907E+0xb0>)
   20ac8:	2608      	movs	r6, #8
   20aca:	4631      	mov	r1, r6
   20acc:	4622      	mov	r2, r4
   20ace:	9b01      	ldr	r3, [sp, #4]
   20ad0:	df04      	svc	4
   20ad2:	2802      	cmp	r0, #2
   20ad4:	d01a      	beq.n	20b0c <_ZN20complex_full_dynamic3app17h263aa3621af79907E+0x74>
   20ad6:	a804      	add	r0, sp, #16
   20ad8:	2104      	movs	r1, #4
   20ada:	7201      	strb	r1, [r0, #8]
   20adc:	9605      	str	r6, [sp, #20]
   20ade:	4e1a      	ldr	r6, [pc, #104]	@ (20b48 <_ZN20complex_full_dynamic3app17h263aa3621af79907E+0xb0>)
   20ae0:	9604      	str	r6, [sp, #16]
   20ae2:	2405      	movs	r4, #5
   20ae4:	233b      	movs	r3, #59	@ 0x3b
   20ae6:	4630      	mov	r0, r6
   20ae8:	4621      	mov	r1, r4
   20aea:	462a      	mov	r2, r5
   20aec:	df03      	svc	3
   20aee:	2802      	cmp	r0, #2
   20af0:	d00c      	beq.n	20b0c <_ZN20complex_full_dynamic3app17h263aa3621af79907E+0x74>
   20af2:	a81b      	add	r0, sp, #108	@ 0x6c
   20af4:	2103      	movs	r1, #3
   20af6:	7201      	strb	r1, [r0, #8]
   20af8:	961b      	str	r6, [sp, #108]	@ 0x6c
   20afa:	941c      	str	r4, [sp, #112]	@ 0x70
   20afc:	4812      	ldr	r0, [pc, #72]	@ (20b48 <_ZN20complex_full_dynamic3app17h263aa3621af79907E+0xb0>)
   20afe:	2108      	movs	r1, #8
   20b00:	2600      	movs	r6, #0
   20b02:	4622      	mov	r2, r4
   20b04:	4633      	mov	r3, r6
   20b06:	df02      	svc	2
   20b08:	287f      	cmp	r0, #127	@ 0x7f
   20b0a:	d80b      	bhi.n	20b24 <_ZN20complex_full_dynamic3app17h263aa3621af79907E+0x8c>
   20b0c:	9c03      	ldr	r4, [sp, #12]
   20b0e:	6061      	str	r1, [r4, #4]
   20b10:	2601      	movs	r6, #1
   20b12:	7026      	strb	r6, [r4, #0]
   20b14:	a81b      	add	r0, sp, #108	@ 0x6c
   20b16:	f006 f9ff 	bl	26f18 <_ZN9allow_pin12full_dynamic17unshare_if_shared17hc1e7d593d40bae1cE>
   20b1a:	a804      	add	r0, sp, #16
   20b1c:	f006 f9fc 	bl	26f18 <_ZN9allow_pin12full_dynamic17unshare_if_shared17hc1e7d593d40bae1cE>
   20b20:	b02d      	add	sp, #180	@ 0xb4
   20b22:	bdf0      	pop	{r4, r5, r6, r7, pc}
   20b24:	a804      	add	r0, sp, #16
   20b26:	f006 f9f7 	bl	26f18 <_ZN9allow_pin12full_dynamic17unshare_if_shared17hc1e7d593d40bae1cE>
   20b2a:	ac1b      	add	r4, sp, #108	@ 0x6c
   20b2c:	4620      	mov	r0, r4
   20b2e:	f006 f9f3 	bl	26f18 <_ZN9allow_pin12full_dynamic17unshare_if_shared17hc1e7d593d40bae1cE>
   20b32:	4620      	mov	r0, r4
   20b34:	f006 f9f0 	bl	26f18 <_ZN9allow_pin12full_dynamic17unshare_if_shared17hc1e7d593d40bae1cE>
   20b38:	9c03      	ldr	r4, [sp, #12]
   20b3a:	1c60      	adds	r0, r4, #1
   20b3c:	223b      	movs	r2, #59	@ 0x3b
   20b3e:	4629      	mov	r1, r5
   20b40:	f006 fbab 	bl	2729a <__aeabi_memcpy>
   20b44:	e7e5      	b.n	20b12 <_ZN20complex_full_dynamic3app17h263aa3621af79907E+0x7a>
   20b46:	46c0      	nop			@ (mov r8, r8)
   20b48:	00000a06 	.word	0x00000a06

00020b4c <_ZN20complex_full_dynamic3app17h2bea75dcd7173f09E>:
   20b4c:	b5f0      	push	{r4, r5, r6, r7, lr}
   20b4e:	af03      	add	r7, sp, #12
   20b50:	b0a7      	sub	sp, #156	@ 0x9c
   20b52:	9003      	str	r0, [sp, #12]
   20b54:	ae04      	add	r6, sp, #16
   20b56:	2002      	movs	r0, #2
   20b58:	9002      	str	r0, [sp, #8]
   20b5a:	7230      	strb	r0, [r6, #8]
   20b5c:	360c      	adds	r6, #12
   20b5e:	2248      	movs	r2, #72	@ 0x48
   20b60:	9201      	str	r2, [sp, #4]
   20b62:	4630      	mov	r0, r6
   20b64:	f006 fb99 	bl	2729a <__aeabi_memcpy>
   20b68:	ad19      	add	r5, sp, #100	@ 0x64
   20b6a:	462c      	mov	r4, r5
   20b6c:	340c      	adds	r4, #12
   20b6e:	2129      	movs	r1, #41	@ 0x29
   20b70:	4620      	mov	r0, r4
   20b72:	f006 f9e5 	bl	26f40 <__aeabi_memclr4>
   20b76:	9802      	ldr	r0, [sp, #8]
   20b78:	7228      	strb	r0, [r5, #8]
   20b7a:	481f      	ldr	r0, [pc, #124]	@ (20bf8 <_ZN20complex_full_dynamic3app17h2bea75dcd7173f09E+0xac>)
   20b7c:	2503      	movs	r5, #3
   20b7e:	4629      	mov	r1, r5
   20b80:	4632      	mov	r2, r6
   20b82:	9b01      	ldr	r3, [sp, #4]
   20b84:	df04      	svc	4
   20b86:	2802      	cmp	r0, #2
   20b88:	d018      	beq.n	20bbc <_ZN20complex_full_dynamic3app17h2bea75dcd7173f09E+0x70>
   20b8a:	a804      	add	r0, sp, #16
   20b8c:	2604      	movs	r6, #4
   20b8e:	7206      	strb	r6, [r0, #8]
   20b90:	9505      	str	r5, [sp, #20]
   20b92:	4819      	ldr	r0, [pc, #100]	@ (20bf8 <_ZN20complex_full_dynamic3app17h2bea75dcd7173f09E+0xac>)
   20b94:	9004      	str	r0, [sp, #16]
   20b96:	2329      	movs	r3, #41	@ 0x29
   20b98:	4631      	mov	r1, r6
   20b9a:	4622      	mov	r2, r4
   20b9c:	df03      	svc	3
   20b9e:	2802      	cmp	r0, #2
   20ba0:	d00c      	beq.n	20bbc <_ZN20complex_full_dynamic3app17h2bea75dcd7173f09E+0x70>
   20ba2:	a819      	add	r0, sp, #100	@ 0x64
   20ba4:	7205      	strb	r5, [r0, #8]
   20ba6:	4814      	ldr	r0, [pc, #80]	@ (20bf8 <_ZN20complex_full_dynamic3app17h2bea75dcd7173f09E+0xac>)
   20ba8:	9019      	str	r0, [sp, #100]	@ 0x64
   20baa:	961a      	str	r6, [sp, #104]	@ 0x68
   20bac:	2200      	movs	r2, #0
   20bae:	4629      	mov	r1, r5
   20bb0:	4615      	mov	r5, r2
   20bb2:	4632      	mov	r2, r6
   20bb4:	462b      	mov	r3, r5
   20bb6:	df02      	svc	2
   20bb8:	287f      	cmp	r0, #127	@ 0x7f
   20bba:	d80b      	bhi.n	20bd4 <_ZN20complex_full_dynamic3app17h2bea75dcd7173f09E+0x88>
   20bbc:	9c03      	ldr	r4, [sp, #12]
   20bbe:	6061      	str	r1, [r4, #4]
   20bc0:	2501      	movs	r5, #1
   20bc2:	7025      	strb	r5, [r4, #0]
   20bc4:	a819      	add	r0, sp, #100	@ 0x64
   20bc6:	f006 f9a7 	bl	26f18 <_ZN9allow_pin12full_dynamic17unshare_if_shared17hc1e7d593d40bae1cE>
   20bca:	a804      	add	r0, sp, #16
   20bcc:	f006 f9a4 	bl	26f18 <_ZN9allow_pin12full_dynamic17unshare_if_shared17hc1e7d593d40bae1cE>
   20bd0:	b027      	add	sp, #156	@ 0x9c
   20bd2:	bdf0      	pop	{r4, r5, r6, r7, pc}
   20bd4:	a804      	add	r0, sp, #16
   20bd6:	f006 f99f 	bl	26f18 <_ZN9allow_pin12full_dynamic17unshare_if_shared17hc1e7d593d40bae1cE>
   20bda:	4626      	mov	r6, r4
   20bdc:	ac19      	add	r4, sp, #100	@ 0x64
   20bde:	4620      	mov	r0, r4
   20be0:	f006 f99a 	bl	26f18 <_ZN9allow_pin12full_dynamic17unshare_if_shared17hc1e7d593d40bae1cE>
   20be4:	4620      	mov	r0, r4
   20be6:	f006 f997 	bl	26f18 <_ZN9allow_pin12full_dynamic17unshare_if_shared17hc1e7d593d40bae1cE>
   20bea:	9c03      	ldr	r4, [sp, #12]
   20bec:	1c60      	adds	r0, r4, #1
   20bee:	2229      	movs	r2, #41	@ 0x29
   20bf0:	4631      	mov	r1, r6
   20bf2:	f006 fb52 	bl	2729a <__aeabi_memcpy>
   20bf6:	e7e4      	b.n	20bc2 <_ZN20complex_full_dynamic3app17h2bea75dcd7173f09E+0x76>
   20bf8:	000026a4 	.word	0x000026a4

00020bfc <_ZN20complex_full_dynamic3app17h2c7c99f5d940402dE>:
   20bfc:	b5f0      	push	{r4, r5, r6, r7, lr}
   20bfe:	af03      	add	r7, sp, #12
   20c00:	b0a7      	sub	sp, #156	@ 0x9c
   20c02:	9002      	str	r0, [sp, #8]
   20c04:	ac03      	add	r4, sp, #12
   20c06:	2002      	movs	r0, #2
   20c08:	9001      	str	r0, [sp, #4]
   20c0a:	7220      	strb	r0, [r4, #8]
   20c0c:	340c      	adds	r4, #12
   20c0e:	2232      	movs	r2, #50	@ 0x32
   20c10:	9200      	str	r2, [sp, #0]
   20c12:	4620      	mov	r0, r4
   20c14:	f006 fb41 	bl	2729a <__aeabi_memcpy>
   20c18:	ae13      	add	r6, sp, #76	@ 0x4c
   20c1a:	4635      	mov	r5, r6
   20c1c:	350c      	adds	r5, #12
   20c1e:	2141      	movs	r1, #65	@ 0x41
   20c20:	4628      	mov	r0, r5
   20c22:	f006 f98d 	bl	26f40 <__aeabi_memclr4>
   20c26:	9801      	ldr	r0, [sp, #4]
   20c28:	7230      	strb	r0, [r6, #8]
   20c2a:	4820      	ldr	r0, [pc, #128]	@ (20cac <_ZN20complex_full_dynamic3app17h2c7c99f5d940402dE+0xb0>)
   20c2c:	2607      	movs	r6, #7
   20c2e:	4631      	mov	r1, r6
   20c30:	4622      	mov	r2, r4
   20c32:	9b00      	ldr	r3, [sp, #0]
   20c34:	df04      	svc	4
   20c36:	2802      	cmp	r0, #2
   20c38:	d01a      	beq.n	20c70 <_ZN20complex_full_dynamic3app17h2c7c99f5d940402dE+0x74>
   20c3a:	a803      	add	r0, sp, #12
   20c3c:	2104      	movs	r1, #4
   20c3e:	7201      	strb	r1, [r0, #8]
   20c40:	9604      	str	r6, [sp, #16]
   20c42:	4e1a      	ldr	r6, [pc, #104]	@ (20cac <_ZN20complex_full_dynamic3app17h2c7c99f5d940402dE+0xb0>)
   20c44:	9603      	str	r6, [sp, #12]
   20c46:	2405      	movs	r4, #5
   20c48:	2341      	movs	r3, #65	@ 0x41
   20c4a:	4630      	mov	r0, r6
   20c4c:	4621      	mov	r1, r4
   20c4e:	462a      	mov	r2, r5
   20c50:	df03      	svc	3
   20c52:	2802      	cmp	r0, #2
   20c54:	d00c      	beq.n	20c70 <_ZN20complex_full_dynamic3app17h2c7c99f5d940402dE+0x74>
   20c56:	a813      	add	r0, sp, #76	@ 0x4c
   20c58:	2103      	movs	r1, #3
   20c5a:	7201      	strb	r1, [r0, #8]
   20c5c:	9613      	str	r6, [sp, #76]	@ 0x4c
   20c5e:	9414      	str	r4, [sp, #80]	@ 0x50
   20c60:	4812      	ldr	r0, [pc, #72]	@ (20cac <_ZN20complex_full_dynamic3app17h2c7c99f5d940402dE+0xb0>)
   20c62:	2107      	movs	r1, #7
   20c64:	2600      	movs	r6, #0
   20c66:	4622      	mov	r2, r4
   20c68:	4633      	mov	r3, r6
   20c6a:	df02      	svc	2
   20c6c:	287f      	cmp	r0, #127	@ 0x7f
   20c6e:	d80b      	bhi.n	20c88 <_ZN20complex_full_dynamic3app17h2c7c99f5d940402dE+0x8c>
   20c70:	9c02      	ldr	r4, [sp, #8]
   20c72:	6061      	str	r1, [r4, #4]
   20c74:	2601      	movs	r6, #1
   20c76:	7026      	strb	r6, [r4, #0]
   20c78:	a813      	add	r0, sp, #76	@ 0x4c
   20c7a:	f006 f94d 	bl	26f18 <_ZN9allow_pin12full_dynamic17unshare_if_shared17hc1e7d593d40bae1cE>
   20c7e:	a803      	add	r0, sp, #12
   20c80:	f006 f94a 	bl	26f18 <_ZN9allow_pin12full_dynamic17unshare_if_shared17hc1e7d593d40bae1cE>
   20c84:	b027      	add	sp, #156	@ 0x9c
   20c86:	bdf0      	pop	{r4, r5, r6, r7, pc}
   20c88:	a803      	add	r0, sp, #12
   20c8a:	f006 f945 	bl	26f18 <_ZN9allow_pin12full_dynamic17unshare_if_shared17hc1e7d593d40bae1cE>
   20c8e:	ac13      	add	r4, sp, #76	@ 0x4c
   20c90:	4620      	mov	r0, r4
   20c92:	f006 f941 	bl	26f18 <_ZN9allow_pin12full_dynamic17unshare_if_shared17hc1e7d593d40bae1cE>
   20c96:	4620      	mov	r0, r4
   20c98:	f006 f93e 	bl	26f18 <_ZN9allow_pin12full_dynamic17unshare_if_shared17hc1e7d593d40bae1cE>
   20c9c:	9c02      	ldr	r4, [sp, #8]
   20c9e:	1c60      	adds	r0, r4, #1
   20ca0:	2241      	movs	r2, #65	@ 0x41
   20ca2:	4629      	mov	r1, r5
   20ca4:	f006 faf9 	bl	2729a <__aeabi_memcpy>
   20ca8:	e7e5      	b.n	20c76 <_ZN20complex_full_dynamic3app17h2c7c99f5d940402dE+0x7a>
   20caa:	46c0      	nop			@ (mov r8, r8)
   20cac:	0000091d 	.word	0x0000091d

00020cb0 <_ZN20complex_full_dynamic3app17h2edf56487f88d202E>:
   20cb0:	b5f0      	push	{r4, r5, r6, r7, lr}
   20cb2:	af03      	add	r7, sp, #12
   20cb4:	b0a9      	sub	sp, #164	@ 0xa4
   20cb6:	9003      	str	r0, [sp, #12]
   20cb8:	ac04      	add	r4, sp, #16
   20cba:	2002      	movs	r0, #2
   20cbc:	9002      	str	r0, [sp, #8]
   20cbe:	7220      	strb	r0, [r4, #8]
   20cc0:	340c      	adds	r4, #12
   20cc2:	2227      	movs	r2, #39	@ 0x27
   20cc4:	9201      	str	r2, [sp, #4]
   20cc6:	4620      	mov	r0, r4
   20cc8:	f006 fae7 	bl	2729a <__aeabi_memcpy>
   20ccc:	ae11      	add	r6, sp, #68	@ 0x44
   20cce:	4635      	mov	r5, r6
   20cd0:	350c      	adds	r5, #12
   20cd2:	2151      	movs	r1, #81	@ 0x51
   20cd4:	4628      	mov	r0, r5
   20cd6:	f006 f933 	bl	26f40 <__aeabi_memclr4>
   20cda:	9802      	ldr	r0, [sp, #8]
   20cdc:	7230      	strb	r0, [r6, #8]
   20cde:	481f      	ldr	r0, [pc, #124]	@ (20d5c <_ZN20complex_full_dynamic3app17h2edf56487f88d202E+0xac>)
   20ce0:	2600      	movs	r6, #0
   20ce2:	4631      	mov	r1, r6
   20ce4:	4622      	mov	r2, r4
   20ce6:	9b01      	ldr	r3, [sp, #4]
   20ce8:	df04      	svc	4
   20cea:	2802      	cmp	r0, #2
   20cec:	d019      	beq.n	20d22 <_ZN20complex_full_dynamic3app17h2edf56487f88d202E+0x72>
   20cee:	a804      	add	r0, sp, #16
   20cf0:	2404      	movs	r4, #4
   20cf2:	7204      	strb	r4, [r0, #8]
   20cf4:	9605      	str	r6, [sp, #20]
   20cf6:	4e19      	ldr	r6, [pc, #100]	@ (20d5c <_ZN20complex_full_dynamic3app17h2edf56487f88d202E+0xac>)
   20cf8:	9604      	str	r6, [sp, #16]
   20cfa:	2351      	movs	r3, #81	@ 0x51
   20cfc:	4630      	mov	r0, r6
   20cfe:	4621      	mov	r1, r4
   20d00:	462a      	mov	r2, r5
   20d02:	df03      	svc	3
   20d04:	2802      	cmp	r0, #2
   20d06:	d00c      	beq.n	20d22 <_ZN20complex_full_dynamic3app17h2edf56487f88d202E+0x72>
   20d08:	a811      	add	r0, sp, #68	@ 0x44
   20d0a:	2103      	movs	r1, #3
   20d0c:	7201      	strb	r1, [r0, #8]
   20d0e:	9611      	str	r6, [sp, #68]	@ 0x44
   20d10:	9412      	str	r4, [sp, #72]	@ 0x48
   20d12:	4812      	ldr	r0, [pc, #72]	@ (20d5c <_ZN20complex_full_dynamic3app17h2edf56487f88d202E+0xac>)
   20d14:	2600      	movs	r6, #0
   20d16:	4631      	mov	r1, r6
   20d18:	4622      	mov	r2, r4
   20d1a:	4633      	mov	r3, r6
   20d1c:	df02      	svc	2
   20d1e:	287f      	cmp	r0, #127	@ 0x7f
   20d20:	d80b      	bhi.n	20d3a <_ZN20complex_full_dynamic3app17h2edf56487f88d202E+0x8a>
   20d22:	9c03      	ldr	r4, [sp, #12]
   20d24:	6061      	str	r1, [r4, #4]
   20d26:	2601      	movs	r6, #1
   20d28:	7026      	strb	r6, [r4, #0]
   20d2a:	a811      	add	r0, sp, #68	@ 0x44
   20d2c:	f006 f8f4 	bl	26f18 <_ZN9allow_pin12full_dynamic17unshare_if_shared17hc1e7d593d40bae1cE>
   20d30:	a804      	add	r0, sp, #16
   20d32:	f006 f8f1 	bl	26f18 <_ZN9allow_pin12full_dynamic17unshare_if_shared17hc1e7d593d40bae1cE>
   20d36:	b029      	add	sp, #164	@ 0xa4
   20d38:	bdf0      	pop	{r4, r5, r6, r7, pc}
   20d3a:	a804      	add	r0, sp, #16
   20d3c:	f006 f8ec 	bl	26f18 <_ZN9allow_pin12full_dynamic17unshare_if_shared17hc1e7d593d40bae1cE>
   20d40:	ac11      	add	r4, sp, #68	@ 0x44
   20d42:	4620      	mov	r0, r4
   20d44:	f006 f8e8 	bl	26f18 <_ZN9allow_pin12full_dynamic17unshare_if_shared17hc1e7d593d40bae1cE>
   20d48:	4620      	mov	r0, r4
   20d4a:	f006 f8e5 	bl	26f18 <_ZN9allow_pin12full_dynamic17unshare_if_shared17hc1e7d593d40bae1cE>
   20d4e:	9c03      	ldr	r4, [sp, #12]
   20d50:	1c60      	adds	r0, r4, #1
   20d52:	2251      	movs	r2, #81	@ 0x51
   20d54:	4629      	mov	r1, r5
   20d56:	f006 faa0 	bl	2729a <__aeabi_memcpy>
   20d5a:	e7e5      	b.n	20d28 <_ZN20complex_full_dynamic3app17h2edf56487f88d202E+0x78>
   20d5c:	00000a36 	.word	0x00000a36

00020d60 <_ZN20complex_full_dynamic3app17h3043ae643e6d7294E>:
   20d60:	b5f0      	push	{r4, r5, r6, r7, lr}
   20d62:	af03      	add	r7, sp, #12
   20d64:	b099      	sub	sp, #100	@ 0x64
   20d66:	9001      	str	r0, [sp, #4]
   20d68:	ac02      	add	r4, sp, #8
   20d6a:	2502      	movs	r5, #2
   20d6c:	7225      	strb	r5, [r4, #8]
   20d6e:	340c      	adds	r4, #12
   20d70:	2632      	movs	r6, #50	@ 0x32
   20d72:	4620      	mov	r0, r4
   20d74:	4632      	mov	r2, r6
   20d76:	f006 fa90 	bl	2729a <__aeabi_memcpy>
   20d7a:	a812      	add	r0, sp, #72	@ 0x48
   20d7c:	9000      	str	r0, [sp, #0]
   20d7e:	7205      	strb	r5, [r0, #8]
   20d80:	2000      	movs	r0, #0
   20d82:	9018      	str	r0, [sp, #96]	@ 0x60
   20d84:	9017      	str	r0, [sp, #92]	@ 0x5c
   20d86:	9016      	str	r0, [sp, #88]	@ 0x58
   20d88:	9015      	str	r0, [sp, #84]	@ 0x54
   20d8a:	4820      	ldr	r0, [pc, #128]	@ (20e0c <_ZN20complex_full_dynamic3app17h3043ae643e6d7294E+0xac>)
   20d8c:	2504      	movs	r5, #4
   20d8e:	4629      	mov	r1, r5
   20d90:	4622      	mov	r2, r4
   20d92:	4633      	mov	r3, r6
   20d94:	df04      	svc	4
   20d96:	2802      	cmp	r0, #2
   20d98:	d01b      	beq.n	20dd2 <_ZN20complex_full_dynamic3app17h3043ae643e6d7294E+0x72>
   20d9a:	9e00      	ldr	r6, [sp, #0]
   20d9c:	360c      	adds	r6, #12
   20d9e:	a802      	add	r0, sp, #8
   20da0:	7205      	strb	r5, [r0, #8]
   20da2:	9503      	str	r5, [sp, #12]
   20da4:	4819      	ldr	r0, [pc, #100]	@ (20e0c <_ZN20complex_full_dynamic3app17h3043ae643e6d7294E+0xac>)
   20da6:	9002      	str	r0, [sp, #8]
   20da8:	2409      	movs	r4, #9
   20daa:	2310      	movs	r3, #16
   20dac:	4621      	mov	r1, r4
   20dae:	4632      	mov	r2, r6
   20db0:	df03      	svc	3
   20db2:	2802      	cmp	r0, #2
   20db4:	d00d      	beq.n	20dd2 <_ZN20complex_full_dynamic3app17h3043ae643e6d7294E+0x72>
   20db6:	4635      	mov	r5, r6
   20db8:	a812      	add	r0, sp, #72	@ 0x48
   20dba:	2103      	movs	r1, #3
   20dbc:	7201      	strb	r1, [r0, #8]
   20dbe:	4813      	ldr	r0, [pc, #76]	@ (20e0c <_ZN20complex_full_dynamic3app17h3043ae643e6d7294E+0xac>)
   20dc0:	9012      	str	r0, [sp, #72]	@ 0x48
   20dc2:	9413      	str	r4, [sp, #76]	@ 0x4c
   20dc4:	2104      	movs	r1, #4
   20dc6:	2600      	movs	r6, #0
   20dc8:	4622      	mov	r2, r4
   20dca:	4633      	mov	r3, r6
   20dcc:	df02      	svc	2
   20dce:	287f      	cmp	r0, #127	@ 0x7f
   20dd0:	d80b      	bhi.n	20dea <_ZN20complex_full_dynamic3app17h3043ae643e6d7294E+0x8a>
   20dd2:	9c01      	ldr	r4, [sp, #4]
   20dd4:	6061      	str	r1, [r4, #4]
   20dd6:	2601      	movs	r6, #1
   20dd8:	7026      	strb	r6, [r4, #0]
   20dda:	a812      	add	r0, sp, #72	@ 0x48
   20ddc:	f006 f89c 	bl	26f18 <_ZN9allow_pin12full_dynamic17unshare_if_shared17hc1e7d593d40bae1cE>
   20de0:	a802      	add	r0, sp, #8
   20de2:	f006 f899 	bl	26f18 <_ZN9allow_pin12full_dynamic17unshare_if_shared17hc1e7d593d40bae1cE>
   20de6:	b019      	add	sp, #100	@ 0x64
   20de8:	bdf0      	pop	{r4, r5, r6, r7, pc}
   20dea:	a802      	add	r0, sp, #8
   20dec:	f006 f894 	bl	26f18 <_ZN9allow_pin12full_dynamic17unshare_if_shared17hc1e7d593d40bae1cE>
   20df0:	ac12      	add	r4, sp, #72	@ 0x48
   20df2:	4620      	mov	r0, r4
   20df4:	f006 f890 	bl	26f18 <_ZN9allow_pin12full_dynamic17unshare_if_shared17hc1e7d593d40bae1cE>
   20df8:	4620      	mov	r0, r4
   20dfa:	f006 f88d 	bl	26f18 <_ZN9allow_pin12full_dynamic17unshare_if_shared17hc1e7d593d40bae1cE>
   20dfe:	9c01      	ldr	r4, [sp, #4]
   20e00:	1c60      	adds	r0, r4, #1
   20e02:	2210      	movs	r2, #16
   20e04:	4629      	mov	r1, r5
   20e06:	f006 fa48 	bl	2729a <__aeabi_memcpy>
   20e0a:	e7e5      	b.n	20dd8 <_ZN20complex_full_dynamic3app17h3043ae643e6d7294E+0x78>
   20e0c:	000019d6 	.word	0x000019d6

00020e10 <_ZN20complex_full_dynamic3app17h30b10c8b529f1ec2E>:
   20e10:	b5f0      	push	{r4, r5, r6, r7, lr}
   20e12:	af03      	add	r7, sp, #12
   20e14:	b0ad      	sub	sp, #180	@ 0xb4
   20e16:	9002      	str	r0, [sp, #8]
   20e18:	ae03      	add	r6, sp, #12
   20e1a:	2002      	movs	r0, #2
   20e1c:	9001      	str	r0, [sp, #4]
   20e1e:	7230      	strb	r0, [r6, #8]
   20e20:	360c      	adds	r6, #12
   20e22:	222a      	movs	r2, #42	@ 0x2a
   20e24:	9200      	str	r2, [sp, #0]
   20e26:	4630      	mov	r0, r6
   20e28:	f006 fa37 	bl	2729a <__aeabi_memcpy>
   20e2c:	ac11      	add	r4, sp, #68	@ 0x44
   20e2e:	4625      	mov	r5, r4
   20e30:	350c      	adds	r5, #12
   20e32:	2163      	movs	r1, #99	@ 0x63
   20e34:	4628      	mov	r0, r5
   20e36:	f006 f883 	bl	26f40 <__aeabi_memclr4>
   20e3a:	9801      	ldr	r0, [sp, #4]
   20e3c:	7220      	strb	r0, [r4, #8]
   20e3e:	481f      	ldr	r0, [pc, #124]	@ (20ebc <_ZN20complex_full_dynamic3app17h30b10c8b529f1ec2E+0xac>)
   20e40:	2404      	movs	r4, #4
   20e42:	4621      	mov	r1, r4
   20e44:	4632      	mov	r2, r6
   20e46:	9b00      	ldr	r3, [sp, #0]
   20e48:	df04      	svc	4
   20e4a:	2802      	cmp	r0, #2
   20e4c:	d018      	beq.n	20e80 <_ZN20complex_full_dynamic3app17h30b10c8b529f1ec2E+0x70>
   20e4e:	a803      	add	r0, sp, #12
   20e50:	7204      	strb	r4, [r0, #8]
   20e52:	9404      	str	r4, [sp, #16]
   20e54:	4c19      	ldr	r4, [pc, #100]	@ (20ebc <_ZN20complex_full_dynamic3app17h30b10c8b529f1ec2E+0xac>)
   20e56:	9403      	str	r4, [sp, #12]
   20e58:	2600      	movs	r6, #0
   20e5a:	2363      	movs	r3, #99	@ 0x63
   20e5c:	4620      	mov	r0, r4
   20e5e:	4631      	mov	r1, r6
   20e60:	462a      	mov	r2, r5
   20e62:	df03      	svc	3
   20e64:	2802      	cmp	r0, #2
   20e66:	d00b      	beq.n	20e80 <_ZN20complex_full_dynamic3app17h30b10c8b529f1ec2E+0x70>
   20e68:	a811      	add	r0, sp, #68	@ 0x44
   20e6a:	2103      	movs	r1, #3
   20e6c:	7201      	strb	r1, [r0, #8]
   20e6e:	9411      	str	r4, [sp, #68]	@ 0x44
   20e70:	9612      	str	r6, [sp, #72]	@ 0x48
   20e72:	4812      	ldr	r0, [pc, #72]	@ (20ebc <_ZN20complex_full_dynamic3app17h30b10c8b529f1ec2E+0xac>)
   20e74:	2104      	movs	r1, #4
   20e76:	4632      	mov	r2, r6
   20e78:	4633      	mov	r3, r6
   20e7a:	df02      	svc	2
   20e7c:	287f      	cmp	r0, #127	@ 0x7f
   20e7e:	d80b      	bhi.n	20e98 <_ZN20complex_full_dynamic3app17h30b10c8b529f1ec2E+0x88>
   20e80:	9c02      	ldr	r4, [sp, #8]
   20e82:	6061      	str	r1, [r4, #4]
   20e84:	2601      	movs	r6, #1
   20e86:	7026      	strb	r6, [r4, #0]
   20e88:	a811      	add	r0, sp, #68	@ 0x44
   20e8a:	f006 f845 	bl	26f18 <_ZN9allow_pin12full_dynamic17unshare_if_shared17hc1e7d593d40bae1cE>
   20e8e:	a803      	add	r0, sp, #12
   20e90:	f006 f842 	bl	26f18 <_ZN9allow_pin12full_dynamic17unshare_if_shared17hc1e7d593d40bae1cE>
   20e94:	b02d      	add	sp, #180	@ 0xb4
   20e96:	bdf0      	pop	{r4, r5, r6, r7, pc}
   20e98:	a803      	add	r0, sp, #12
   20e9a:	f006 f83d 	bl	26f18 <_ZN9allow_pin12full_dynamic17unshare_if_shared17hc1e7d593d40bae1cE>
   20e9e:	ac11      	add	r4, sp, #68	@ 0x44
   20ea0:	4620      	mov	r0, r4
   20ea2:	f006 f839 	bl	26f18 <_ZN9allow_pin12full_dynamic17unshare_if_shared17hc1e7d593d40bae1cE>
   20ea6:	4620      	mov	r0, r4
   20ea8:	f006 f836 	bl	26f18 <_ZN9allow_pin12full_dynamic17unshare_if_shared17hc1e7d593d40bae1cE>
   20eac:	9c02      	ldr	r4, [sp, #8]
   20eae:	1c60      	adds	r0, r4, #1
   20eb0:	2263      	movs	r2, #99	@ 0x63
   20eb2:	4629      	mov	r1, r5
   20eb4:	f006 f9f1 	bl	2729a <__aeabi_memcpy>
   20eb8:	e7e5      	b.n	20e86 <_ZN20complex_full_dynamic3app17h30b10c8b529f1ec2E+0x76>
   20eba:	46c0      	nop			@ (mov r8, r8)
   20ebc:	00001c7c 	.word	0x00001c7c

00020ec0 <_ZN20complex_full_dynamic3app17h327473164530ab28E>:
   20ec0:	b5f0      	push	{r4, r5, r6, r7, lr}
   20ec2:	af03      	add	r7, sp, #12
   20ec4:	b0a3      	sub	sp, #140	@ 0x8c
   20ec6:	9002      	str	r0, [sp, #8]
   20ec8:	ac03      	add	r4, sp, #12
   20eca:	2002      	movs	r0, #2
   20ecc:	9001      	str	r0, [sp, #4]
   20ece:	7220      	strb	r0, [r4, #8]
   20ed0:	340c      	adds	r4, #12
   20ed2:	2241      	movs	r2, #65	@ 0x41
   20ed4:	9200      	str	r2, [sp, #0]
   20ed6:	4620      	mov	r0, r4
   20ed8:	f006 f9df 	bl	2729a <__aeabi_memcpy>
   20edc:	ae17      	add	r6, sp, #92	@ 0x5c
   20ede:	4635      	mov	r5, r6
   20ee0:	350c      	adds	r5, #12
   20ee2:	2122      	movs	r1, #34	@ 0x22
   20ee4:	4628      	mov	r0, r5
   20ee6:	f006 f82b 	bl	26f40 <__aeabi_memclr4>
   20eea:	9801      	ldr	r0, [sp, #4]
   20eec:	7230      	strb	r0, [r6, #8]
   20eee:	481f      	ldr	r0, [pc, #124]	@ (20f6c <_ZN20complex_full_dynamic3app17h327473164530ab28E+0xac>)
   20ef0:	2601      	movs	r6, #1
   20ef2:	4631      	mov	r1, r6
   20ef4:	4622      	mov	r2, r4
   20ef6:	9b00      	ldr	r3, [sp, #0]
   20ef8:	df04      	svc	4
   20efa:	2802      	cmp	r0, #2
   20efc:	d018      	beq.n	20f30 <_ZN20complex_full_dynamic3app17h327473164530ab28E+0x70>
   20efe:	a803      	add	r0, sp, #12
   20f00:	2104      	movs	r1, #4
   20f02:	7201      	strb	r1, [r0, #8]
   20f04:	9604      	str	r6, [sp, #16]
   20f06:	4819      	ldr	r0, [pc, #100]	@ (20f6c <_ZN20complex_full_dynamic3app17h327473164530ab28E+0xac>)
   20f08:	9003      	str	r0, [sp, #12]
   20f0a:	2400      	movs	r4, #0
   20f0c:	2322      	movs	r3, #34	@ 0x22
   20f0e:	4621      	mov	r1, r4
   20f10:	462a      	mov	r2, r5
   20f12:	df03      	svc	3
   20f14:	2802      	cmp	r0, #2
   20f16:	d00b      	beq.n	20f30 <_ZN20complex_full_dynamic3app17h327473164530ab28E+0x70>
   20f18:	a817      	add	r0, sp, #92	@ 0x5c
   20f1a:	2103      	movs	r1, #3
   20f1c:	7201      	strb	r1, [r0, #8]
   20f1e:	4813      	ldr	r0, [pc, #76]	@ (20f6c <_ZN20complex_full_dynamic3app17h327473164530ab28E+0xac>)
   20f20:	9017      	str	r0, [sp, #92]	@ 0x5c
   20f22:	9418      	str	r4, [sp, #96]	@ 0x60
   20f24:	2101      	movs	r1, #1
   20f26:	4622      	mov	r2, r4
   20f28:	4623      	mov	r3, r4
   20f2a:	df02      	svc	2
   20f2c:	287f      	cmp	r0, #127	@ 0x7f
   20f2e:	d80a      	bhi.n	20f46 <_ZN20complex_full_dynamic3app17h327473164530ab28E+0x86>
   20f30:	9c02      	ldr	r4, [sp, #8]
   20f32:	6061      	str	r1, [r4, #4]
   20f34:	7026      	strb	r6, [r4, #0]
   20f36:	a817      	add	r0, sp, #92	@ 0x5c
   20f38:	f005 ffee 	bl	26f18 <_ZN9allow_pin12full_dynamic17unshare_if_shared17hc1e7d593d40bae1cE>
   20f3c:	a803      	add	r0, sp, #12
   20f3e:	f005 ffeb 	bl	26f18 <_ZN9allow_pin12full_dynamic17unshare_if_shared17hc1e7d593d40bae1cE>
   20f42:	b023      	add	sp, #140	@ 0x8c
   20f44:	bdf0      	pop	{r4, r5, r6, r7, pc}
   20f46:	a803      	add	r0, sp, #12
   20f48:	f005 ffe6 	bl	26f18 <_ZN9allow_pin12full_dynamic17unshare_if_shared17hc1e7d593d40bae1cE>
   20f4c:	4626      	mov	r6, r4
   20f4e:	ac17      	add	r4, sp, #92	@ 0x5c
   20f50:	4620      	mov	r0, r4
   20f52:	f005 ffe1 	bl	26f18 <_ZN9allow_pin12full_dynamic17unshare_if_shared17hc1e7d593d40bae1cE>
   20f56:	4620      	mov	r0, r4
   20f58:	f005 ffde 	bl	26f18 <_ZN9allow_pin12full_dynamic17unshare_if_shared17hc1e7d593d40bae1cE>
   20f5c:	9c02      	ldr	r4, [sp, #8]
   20f5e:	1c60      	adds	r0, r4, #1
   20f60:	2222      	movs	r2, #34	@ 0x22
   20f62:	4629      	mov	r1, r5
   20f64:	f006 f999 	bl	2729a <__aeabi_memcpy>
   20f68:	e7e4      	b.n	20f34 <_ZN20complex_full_dynamic3app17h327473164530ab28E+0x74>
   20f6a:	46c0      	nop			@ (mov r8, r8)
   20f6c:	0000247c 	.word	0x0000247c

00020f70 <_ZN20complex_full_dynamic3app17h3e7061a568b231beE>:
   20f70:	b5f0      	push	{r4, r5, r6, r7, lr}
   20f72:	af03      	add	r7, sp, #12
   20f74:	b0b7      	sub	sp, #220	@ 0xdc
   20f76:	9002      	str	r0, [sp, #8]
   20f78:	ac03      	add	r4, sp, #12
   20f7a:	2002      	movs	r0, #2
   20f7c:	9001      	str	r0, [sp, #4]
   20f7e:	7220      	strb	r0, [r4, #8]
   20f80:	340c      	adds	r4, #12
   20f82:	225e      	movs	r2, #94	@ 0x5e
   20f84:	9200      	str	r2, [sp, #0]
   20f86:	4620      	mov	r0, r4
   20f88:	f006 f987 	bl	2729a <__aeabi_memcpy>
   20f8c:	ae1e      	add	r6, sp, #120	@ 0x78
   20f8e:	4635      	mov	r5, r6
   20f90:	350c      	adds	r5, #12
   20f92:	2155      	movs	r1, #85	@ 0x55
   20f94:	4628      	mov	r0, r5
   20f96:	f005 ffd3 	bl	26f40 <__aeabi_memclr4>
   20f9a:	9801      	ldr	r0, [sp, #4]
   20f9c:	7230      	strb	r0, [r6, #8]
   20f9e:	481f      	ldr	r0, [pc, #124]	@ (2101c <_ZN20complex_full_dynamic3app17h3e7061a568b231beE+0xac>)
   20fa0:	2607      	movs	r6, #7
   20fa2:	4631      	mov	r1, r6
   20fa4:	4622      	mov	r2, r4
   20fa6:	9b00      	ldr	r3, [sp, #0]
   20fa8:	df04      	svc	4
   20faa:	2802      	cmp	r0, #2
   20fac:	d019      	beq.n	20fe2 <_ZN20complex_full_dynamic3app17h3e7061a568b231beE+0x72>
   20fae:	a803      	add	r0, sp, #12
   20fb0:	2104      	movs	r1, #4
   20fb2:	7201      	strb	r1, [r0, #8]
   20fb4:	9604      	str	r6, [sp, #16]
   20fb6:	4e19      	ldr	r6, [pc, #100]	@ (2101c <_ZN20complex_full_dynamic3app17h3e7061a568b231beE+0xac>)
   20fb8:	9603      	str	r6, [sp, #12]
   20fba:	2403      	movs	r4, #3
   20fbc:	2355      	movs	r3, #85	@ 0x55
   20fbe:	4630      	mov	r0, r6
   20fc0:	4621      	mov	r1, r4
   20fc2:	462a      	mov	r2, r5
   20fc4:	df03      	svc	3
   20fc6:	2802      	cmp	r0, #2
   20fc8:	d00b      	beq.n	20fe2 <_ZN20complex_full_dynamic3app17h3e7061a568b231beE+0x72>
   20fca:	a81e      	add	r0, sp, #120	@ 0x78
   20fcc:	7204      	strb	r4, [r0, #8]
   20fce:	941f      	str	r4, [sp, #124]	@ 0x7c
   20fd0:	961e      	str	r6, [sp, #120]	@ 0x78
   20fd2:	4812      	ldr	r0, [pc, #72]	@ (2101c <_ZN20complex_full_dynamic3app17h3e7061a568b231beE+0xac>)
   20fd4:	2107      	movs	r1, #7
   20fd6:	2600      	movs	r6, #0
   20fd8:	4622      	mov	r2, r4
   20fda:	4633      	mov	r3, r6
   20fdc:	df02      	svc	2
   20fde:	287f      	cmp	r0, #127	@ 0x7f
   20fe0:	d80b      	bhi.n	20ffa <_ZN20complex_full_dynamic3app17h3e7061a568b231beE+0x8a>
   20fe2:	9c02      	ldr	r4, [sp, #8]
   20fe4:	6061      	str	r1, [r4, #4]
   20fe6:	2601      	movs	r6, #1
   20fe8:	7026      	strb	r6, [r4, #0]
   20fea:	a81e      	add	r0, sp, #120	@ 0x78
   20fec:	f005 ff94 	bl	26f18 <_ZN9allow_pin12full_dynamic17unshare_if_shared17hc1e7d593d40bae1cE>
   20ff0:	a803      	add	r0, sp, #12
   20ff2:	f005 ff91 	bl	26f18 <_ZN9allow_pin12full_dynamic17unshare_if_shared17hc1e7d593d40bae1cE>
   20ff6:	b037      	add	sp, #220	@ 0xdc
   20ff8:	bdf0      	pop	{r4, r5, r6, r7, pc}
   20ffa:	a803      	add	r0, sp, #12
   20ffc:	f005 ff8c 	bl	26f18 <_ZN9allow_pin12full_dynamic17unshare_if_shared17hc1e7d593d40bae1cE>
   21000:	ac1e      	add	r4, sp, #120	@ 0x78
   21002:	4620      	mov	r0, r4
   21004:	f005 ff88 	bl	26f18 <_ZN9allow_pin12full_dynamic17unshare_if_shared17hc1e7d593d40bae1cE>
   21008:	4620      	mov	r0, r4
   2100a:	f005 ff85 	bl	26f18 <_ZN9allow_pin12full_dynamic17unshare_if_shared17hc1e7d593d40bae1cE>
   2100e:	9c02      	ldr	r4, [sp, #8]
   21010:	1c60      	adds	r0, r4, #1
   21012:	2255      	movs	r2, #85	@ 0x55
   21014:	4629      	mov	r1, r5
   21016:	f006 f940 	bl	2729a <__aeabi_memcpy>
   2101a:	e7e5      	b.n	20fe8 <_ZN20complex_full_dynamic3app17h3e7061a568b231beE+0x78>
   2101c:	0000178a 	.word	0x0000178a

00021020 <_ZN20complex_full_dynamic3app17h3f4bee66cb47259dE>:
   21020:	b5f0      	push	{r4, r5, r6, r7, lr}
   21022:	af03      	add	r7, sp, #12
   21024:	b097      	sub	sp, #92	@ 0x5c
   21026:	9001      	str	r0, [sp, #4]
   21028:	ac02      	add	r4, sp, #8
   2102a:	2502      	movs	r5, #2
   2102c:	7225      	strb	r5, [r4, #8]
   2102e:	340c      	adds	r4, #12
   21030:	2627      	movs	r6, #39	@ 0x27
   21032:	4620      	mov	r0, r4
   21034:	4632      	mov	r2, r6
   21036:	f006 f930 	bl	2729a <__aeabi_memcpy>
   2103a:	a80f      	add	r0, sp, #60	@ 0x3c
   2103c:	9000      	str	r0, [sp, #0]
   2103e:	7205      	strb	r5, [r0, #8]
   21040:	2000      	movs	r0, #0
   21042:	9016      	str	r0, [sp, #88]	@ 0x58
   21044:	9015      	str	r0, [sp, #84]	@ 0x54
   21046:	9014      	str	r0, [sp, #80]	@ 0x50
   21048:	9013      	str	r0, [sp, #76]	@ 0x4c
   2104a:	9012      	str	r0, [sp, #72]	@ 0x48
   2104c:	4820      	ldr	r0, [pc, #128]	@ (210d0 <_ZN20complex_full_dynamic3app17h3f4bee66cb47259dE+0xb0>)
   2104e:	2506      	movs	r5, #6
   21050:	4629      	mov	r1, r5
   21052:	4622      	mov	r2, r4
   21054:	4633      	mov	r3, r6
   21056:	df04      	svc	4
   21058:	2802      	cmp	r0, #2
   2105a:	d01c      	beq.n	21096 <_ZN20complex_full_dynamic3app17h3f4bee66cb47259dE+0x76>
   2105c:	9e00      	ldr	r6, [sp, #0]
   2105e:	360c      	adds	r6, #12
   21060:	a802      	add	r0, sp, #8
   21062:	2104      	movs	r1, #4
   21064:	7201      	strb	r1, [r0, #8]
   21066:	9503      	str	r5, [sp, #12]
   21068:	4819      	ldr	r0, [pc, #100]	@ (210d0 <_ZN20complex_full_dynamic3app17h3f4bee66cb47259dE+0xb0>)
   2106a:	9002      	str	r0, [sp, #8]
   2106c:	2405      	movs	r4, #5
   2106e:	2314      	movs	r3, #20
   21070:	4621      	mov	r1, r4
   21072:	4632      	mov	r2, r6
   21074:	df03      	svc	3
   21076:	2802      	cmp	r0, #2
   21078:	d00d      	beq.n	21096 <_ZN20complex_full_dynamic3app17h3f4bee66cb47259dE+0x76>
   2107a:	4635      	mov	r5, r6
   2107c:	a80f      	add	r0, sp, #60	@ 0x3c
   2107e:	2103      	movs	r1, #3
   21080:	7201      	strb	r1, [r0, #8]
   21082:	4813      	ldr	r0, [pc, #76]	@ (210d0 <_ZN20complex_full_dynamic3app17h3f4bee66cb47259dE+0xb0>)
   21084:	900f      	str	r0, [sp, #60]	@ 0x3c
   21086:	9410      	str	r4, [sp, #64]	@ 0x40
   21088:	2106      	movs	r1, #6
   2108a:	2600      	movs	r6, #0
   2108c:	4622      	mov	r2, r4
   2108e:	4633      	mov	r3, r6
   21090:	df02      	svc	2
   21092:	287f      	cmp	r0, #127	@ 0x7f
   21094:	d80b      	bhi.n	210ae <_ZN20complex_full_dynamic3app17h3f4bee66cb47259dE+0x8e>
   21096:	9c01      	ldr	r4, [sp, #4]
   21098:	6061      	str	r1, [r4, #4]
   2109a:	2601      	movs	r6, #1
   2109c:	7026      	strb	r6, [r4, #0]
   2109e:	a80f      	add	r0, sp, #60	@ 0x3c
   210a0:	f005 ff3a 	bl	26f18 <_ZN9allow_pin12full_dynamic17unshare_if_shared17hc1e7d593d40bae1cE>
   210a4:	a802      	add	r0, sp, #8
   210a6:	f005 ff37 	bl	26f18 <_ZN9allow_pin12full_dynamic17unshare_if_shared17hc1e7d593d40bae1cE>
   210aa:	b017      	add	sp, #92	@ 0x5c
   210ac:	bdf0      	pop	{r4, r5, r6, r7, pc}
   210ae:	a802      	add	r0, sp, #8
   210b0:	f005 ff32 	bl	26f18 <_ZN9allow_pin12full_dynamic17unshare_if_shared17hc1e7d593d40bae1cE>
   210b4:	ac0f      	add	r4, sp, #60	@ 0x3c
   210b6:	4620      	mov	r0, r4
   210b8:	f005 ff2e 	bl	26f18 <_ZN9allow_pin12full_dynamic17unshare_if_shared17hc1e7d593d40bae1cE>
   210bc:	4620      	mov	r0, r4
   210be:	f005 ff2b 	bl	26f18 <_ZN9allow_pin12full_dynamic17unshare_if_shared17hc1e7d593d40bae1cE>
   210c2:	9c01      	ldr	r4, [sp, #4]
   210c4:	1c60      	adds	r0, r4, #1
   210c6:	2214      	movs	r2, #20
   210c8:	4629      	mov	r1, r5
   210ca:	f006 f8e6 	bl	2729a <__aeabi_memcpy>
   210ce:	e7e5      	b.n	2109c <_ZN20complex_full_dynamic3app17h3f4bee66cb47259dE+0x7c>
   210d0:	000022c9 	.word	0x000022c9

000210d4 <_ZN20complex_full_dynamic3app17h410ab8580b62cf46E>:
   210d4:	b5f0      	push	{r4, r5, r6, r7, lr}
   210d6:	af03      	add	r7, sp, #12
   210d8:	b09f      	sub	sp, #124	@ 0x7c
   210da:	9001      	str	r0, [sp, #4]
   210dc:	ac02      	add	r4, sp, #8
   210de:	2602      	movs	r6, #2
   210e0:	7226      	strb	r6, [r4, #8]
   210e2:	340c      	adds	r4, #12
   210e4:	2541      	movs	r5, #65	@ 0x41
   210e6:	4620      	mov	r0, r4
   210e8:	462a      	mov	r2, r5
   210ea:	f006 f8d6 	bl	2729a <__aeabi_memcpy>
   210ee:	a816      	add	r0, sp, #88	@ 0x58
   210f0:	9000      	str	r0, [sp, #0]
   210f2:	7206      	strb	r6, [r0, #8]
   210f4:	2000      	movs	r0, #0
   210f6:	901e      	str	r0, [sp, #120]	@ 0x78
   210f8:	901d      	str	r0, [sp, #116]	@ 0x74
   210fa:	901c      	str	r0, [sp, #112]	@ 0x70
   210fc:	901b      	str	r0, [sp, #108]	@ 0x6c
   210fe:	901a      	str	r0, [sp, #104]	@ 0x68
   21100:	9019      	str	r0, [sp, #100]	@ 0x64
   21102:	4820      	ldr	r0, [pc, #128]	@ (21184 <_ZN20complex_full_dynamic3app17h410ab8580b62cf46E+0xb0>)
   21104:	2601      	movs	r6, #1
   21106:	4631      	mov	r1, r6
   21108:	4622      	mov	r2, r4
   2110a:	462b      	mov	r3, r5
   2110c:	df04      	svc	4
   2110e:	2802      	cmp	r0, #2
   21110:	d01b      	beq.n	2114a <_ZN20complex_full_dynamic3app17h410ab8580b62cf46E+0x76>
   21112:	9d00      	ldr	r5, [sp, #0]
   21114:	350c      	adds	r5, #12
   21116:	a802      	add	r0, sp, #8
   21118:	2104      	movs	r1, #4
   2111a:	7201      	strb	r1, [r0, #8]
   2111c:	9603      	str	r6, [sp, #12]
   2111e:	4819      	ldr	r0, [pc, #100]	@ (21184 <_ZN20complex_full_dynamic3app17h410ab8580b62cf46E+0xb0>)
   21120:	9002      	str	r0, [sp, #8]
   21122:	2409      	movs	r4, #9
   21124:	2318      	movs	r3, #24
   21126:	4621      	mov	r1, r4
   21128:	462a      	mov	r2, r5
   2112a:	df03      	svc	3
   2112c:	2802      	cmp	r0, #2
   2112e:	d00c      	beq.n	2114a <_ZN20complex_full_dynamic3app17h410ab8580b62cf46E+0x76>
   21130:	a816      	add	r0, sp, #88	@ 0x58
   21132:	2103      	movs	r1, #3
   21134:	7201      	strb	r1, [r0, #8]
   21136:	4813      	ldr	r0, [pc, #76]	@ (21184 <_ZN20complex_full_dynamic3app17h410ab8580b62cf46E+0xb0>)
   21138:	9016      	str	r0, [sp, #88]	@ 0x58
   2113a:	9417      	str	r4, [sp, #92]	@ 0x5c
   2113c:	2101      	movs	r1, #1
   2113e:	2300      	movs	r3, #0
   21140:	4622      	mov	r2, r4
   21142:	9300      	str	r3, [sp, #0]
   21144:	df02      	svc	2
   21146:	287f      	cmp	r0, #127	@ 0x7f
   21148:	d80a      	bhi.n	21160 <_ZN20complex_full_dynamic3app17h410ab8580b62cf46E+0x8c>
   2114a:	9c01      	ldr	r4, [sp, #4]
   2114c:	6061      	str	r1, [r4, #4]
   2114e:	7026      	strb	r6, [r4, #0]
   21150:	a816      	add	r0, sp, #88	@ 0x58
   21152:	f005 fee1 	bl	26f18 <_ZN9allow_pin12full_dynamic17unshare_if_shared17hc1e7d593d40bae1cE>
   21156:	a802      	add	r0, sp, #8
   21158:	f005 fede 	bl	26f18 <_ZN9allow_pin12full_dynamic17unshare_if_shared17hc1e7d593d40bae1cE>
   2115c:	b01f      	add	sp, #124	@ 0x7c
   2115e:	bdf0      	pop	{r4, r5, r6, r7, pc}
   21160:	a802      	add	r0, sp, #8
   21162:	f005 fed9 	bl	26f18 <_ZN9allow_pin12full_dynamic17unshare_if_shared17hc1e7d593d40bae1cE>
   21166:	ac16      	add	r4, sp, #88	@ 0x58
   21168:	4620      	mov	r0, r4
   2116a:	f005 fed5 	bl	26f18 <_ZN9allow_pin12full_dynamic17unshare_if_shared17hc1e7d593d40bae1cE>
   2116e:	4620      	mov	r0, r4
   21170:	f005 fed2 	bl	26f18 <_ZN9allow_pin12full_dynamic17unshare_if_shared17hc1e7d593d40bae1cE>
   21174:	9c01      	ldr	r4, [sp, #4]
   21176:	1c60      	adds	r0, r4, #1
   21178:	2218      	movs	r2, #24
   2117a:	4629      	mov	r1, r5
   2117c:	f006 f88d 	bl	2729a <__aeabi_memcpy>
   21180:	9e00      	ldr	r6, [sp, #0]
   21182:	e7e4      	b.n	2114e <_ZN20complex_full_dynamic3app17h410ab8580b62cf46E+0x7a>
   21184:	00002156 	.word	0x00002156

00021188 <_ZN20complex_full_dynamic3app17h43ecdc4f6c419785E>:
   21188:	b5f0      	push	{r4, r5, r6, r7, lr}
   2118a:	af03      	add	r7, sp, #12
   2118c:	b09b      	sub	sp, #108	@ 0x6c
   2118e:	9002      	str	r0, [sp, #8]
   21190:	ac03      	add	r4, sp, #12
   21192:	2502      	movs	r5, #2
   21194:	7225      	strb	r5, [r4, #8]
   21196:	340c      	adds	r4, #12
   21198:	2229      	movs	r2, #41	@ 0x29
   2119a:	9201      	str	r2, [sp, #4]
   2119c:	4620      	mov	r0, r4
   2119e:	f006 f87c 	bl	2729a <__aeabi_memcpy>
   211a2:	ae11      	add	r6, sp, #68	@ 0x44
   211a4:	2000      	movs	r0, #0
   211a6:	84b0      	strh	r0, [r6, #36]	@ 0x24
   211a8:	7235      	strb	r5, [r6, #8]
   211aa:	9019      	str	r0, [sp, #100]	@ 0x64
   211ac:	9018      	str	r0, [sp, #96]	@ 0x60
   211ae:	9017      	str	r0, [sp, #92]	@ 0x5c
   211b0:	9016      	str	r0, [sp, #88]	@ 0x58
   211b2:	9015      	str	r0, [sp, #84]	@ 0x54
   211b4:	9014      	str	r0, [sp, #80]	@ 0x50
   211b6:	4820      	ldr	r0, [pc, #128]	@ (21238 <_ZN20complex_full_dynamic3app17h43ecdc4f6c419785E+0xb0>)
   211b8:	2505      	movs	r5, #5
   211ba:	4629      	mov	r1, r5
   211bc:	4622      	mov	r2, r4
   211be:	9b01      	ldr	r3, [sp, #4]
   211c0:	df04      	svc	4
   211c2:	2802      	cmp	r0, #2
   211c4:	d01a      	beq.n	211fc <_ZN20complex_full_dynamic3app17h43ecdc4f6c419785E+0x74>
   211c6:	360c      	adds	r6, #12
   211c8:	a803      	add	r0, sp, #12
   211ca:	2104      	movs	r1, #4
   211cc:	7201      	strb	r1, [r0, #8]
   211ce:	9504      	str	r5, [sp, #16]
   211d0:	4819      	ldr	r0, [pc, #100]	@ (21238 <_ZN20complex_full_dynamic3app17h43ecdc4f6c419785E+0xb0>)
   211d2:	9003      	str	r0, [sp, #12]
   211d4:	2403      	movs	r4, #3
   211d6:	231a      	movs	r3, #26
   211d8:	4621      	mov	r1, r4
   211da:	4632      	mov	r2, r6
   211dc:	df03      	svc	3
   211de:	2802      	cmp	r0, #2
   211e0:	d00c      	beq.n	211fc <_ZN20complex_full_dynamic3app17h43ecdc4f6c419785E+0x74>
   211e2:	4635      	mov	r5, r6
   211e4:	a811      	add	r0, sp, #68	@ 0x44
   211e6:	7204      	strb	r4, [r0, #8]
   211e8:	9412      	str	r4, [sp, #72]	@ 0x48
   211ea:	4813      	ldr	r0, [pc, #76]	@ (21238 <_ZN20complex_full_dynamic3app17h43ecdc4f6c419785E+0xb0>)
   211ec:	9011      	str	r0, [sp, #68]	@ 0x44
   211ee:	2105      	movs	r1, #5
   211f0:	2600      	movs	r6, #0
   211f2:	4622      	mov	r2, r4
   211f4:	4633      	mov	r3, r6
   211f6:	df02      	svc	2
   211f8:	287f      	cmp	r0, #127	@ 0x7f
   211fa:	d80b      	bhi.n	21214 <_ZN20complex_full_dynamic3app17h43ecdc4f6c419785E+0x8c>
   211fc:	9c02      	ldr	r4, [sp, #8]
   211fe:	6061      	str	r1, [r4, #4]
   21200:	2601      	movs	r6, #1
   21202:	7026      	strb	r6, [r4, #0]
   21204:	a811      	add	r0, sp, #68	@ 0x44
   21206:	f005 fe87 	bl	26f18 <_ZN9allow_pin12full_dynamic17unshare_if_shared17hc1e7d593d40bae1cE>
   2120a:	a803      	add	r0, sp, #12
   2120c:	f005 fe84 	bl	26f18 <_ZN9allow_pin12full_dynamic17unshare_if_shared17hc1e7d593d40bae1cE>
   21210:	b01b      	add	sp, #108	@ 0x6c
   21212:	bdf0      	pop	{r4, r5, r6, r7, pc}
   21214:	a803      	add	r0, sp, #12
   21216:	f005 fe7f 	bl	26f18 <_ZN9allow_pin12full_dynamic17unshare_if_shared17hc1e7d593d40bae1cE>
   2121a:	ac11      	add	r4, sp, #68	@ 0x44
   2121c:	4620      	mov	r0, r4
   2121e:	f005 fe7b 	bl	26f18 <_ZN9allow_pin12full_dynamic17unshare_if_shared17hc1e7d593d40bae1cE>
   21222:	4620      	mov	r0, r4
   21224:	f005 fe78 	bl	26f18 <_ZN9allow_pin12full_dynamic17unshare_if_shared17hc1e7d593d40bae1cE>
   21228:	9c02      	ldr	r4, [sp, #8]
   2122a:	1c60      	adds	r0, r4, #1
   2122c:	221a      	movs	r2, #26
   2122e:	4629      	mov	r1, r5
   21230:	f006 f833 	bl	2729a <__aeabi_memcpy>
   21234:	e7e5      	b.n	21202 <_ZN20complex_full_dynamic3app17h43ecdc4f6c419785E+0x7a>
   21236:	46c0      	nop			@ (mov r8, r8)
   21238:	00002048 	.word	0x00002048

0002123c <_ZN20complex_full_dynamic3app17h4c0560b2ab048383E>:
   2123c:	b5f0      	push	{r4, r5, r6, r7, lr}
   2123e:	af03      	add	r7, sp, #12
   21240:	b0b1      	sub	sp, #196	@ 0xc4
   21242:	9002      	str	r0, [sp, #8]
   21244:	ac03      	add	r4, sp, #12
   21246:	2002      	movs	r0, #2
   21248:	9001      	str	r0, [sp, #4]
   2124a:	7220      	strb	r0, [r4, #8]
   2124c:	340c      	adds	r4, #12
   2124e:	2246      	movs	r2, #70	@ 0x46
   21250:	9200      	str	r2, [sp, #0]
   21252:	4620      	mov	r0, r4
   21254:	f006 f821 	bl	2729a <__aeabi_memcpy>
   21258:	ae18      	add	r6, sp, #96	@ 0x60
   2125a:	4635      	mov	r5, r6
   2125c:	350c      	adds	r5, #12
   2125e:	2156      	movs	r1, #86	@ 0x56
   21260:	4628      	mov	r0, r5
   21262:	f005 fe6d 	bl	26f40 <__aeabi_memclr4>
   21266:	9801      	ldr	r0, [sp, #4]
   21268:	7230      	strb	r0, [r6, #8]
   2126a:	481f      	ldr	r0, [pc, #124]	@ (212e8 <_ZN20complex_full_dynamic3app17h4c0560b2ab048383E+0xac>)
   2126c:	2607      	movs	r6, #7
   2126e:	4631      	mov	r1, r6
   21270:	4622      	mov	r2, r4
   21272:	9b00      	ldr	r3, [sp, #0]
   21274:	df04      	svc	4
   21276:	2802      	cmp	r0, #2
   21278:	d019      	beq.n	212ae <_ZN20complex_full_dynamic3app17h4c0560b2ab048383E+0x72>
   2127a:	a803      	add	r0, sp, #12
   2127c:	2104      	movs	r1, #4
   2127e:	7201      	strb	r1, [r0, #8]
   21280:	9604      	str	r6, [sp, #16]
   21282:	4e19      	ldr	r6, [pc, #100]	@ (212e8 <_ZN20complex_full_dynamic3app17h4c0560b2ab048383E+0xac>)
   21284:	9603      	str	r6, [sp, #12]
   21286:	2403      	movs	r4, #3
   21288:	2356      	movs	r3, #86	@ 0x56
   2128a:	4630      	mov	r0, r6
   2128c:	4621      	mov	r1, r4
   2128e:	462a      	mov	r2, r5
   21290:	df03      	svc	3
   21292:	2802      	cmp	r0, #2
   21294:	d00b      	beq.n	212ae <_ZN20complex_full_dynamic3app17h4c0560b2ab048383E+0x72>
   21296:	a818      	add	r0, sp, #96	@ 0x60
   21298:	7204      	strb	r4, [r0, #8]
   2129a:	9419      	str	r4, [sp, #100]	@ 0x64
   2129c:	9618      	str	r6, [sp, #96]	@ 0x60
   2129e:	4812      	ldr	r0, [pc, #72]	@ (212e8 <_ZN20complex_full_dynamic3app17h4c0560b2ab048383E+0xac>)
   212a0:	2107      	movs	r1, #7
   212a2:	2600      	movs	r6, #0
   212a4:	4622      	mov	r2, r4
   212a6:	4633      	mov	r3, r6
   212a8:	df02      	svc	2
   212aa:	287f      	cmp	r0, #127	@ 0x7f
   212ac:	d80b      	bhi.n	212c6 <_ZN20complex_full_dynamic3app17h4c0560b2ab048383E+0x8a>
   212ae:	9c02      	ldr	r4, [sp, #8]
   212b0:	6061      	str	r1, [r4, #4]
   212b2:	2601      	movs	r6, #1
   212b4:	7026      	strb	r6, [r4, #0]
   212b6:	a818      	add	r0, sp, #96	@ 0x60
   212b8:	f005 fe2e 	bl	26f18 <_ZN9allow_pin12full_dynamic17unshare_if_shared17hc1e7d593d40bae1cE>
   212bc:	a803      	add	r0, sp, #12
   212be:	f005 fe2b 	bl	26f18 <_ZN9allow_pin12full_dynamic17unshare_if_shared17hc1e7d593d40bae1cE>
   212c2:	b031      	add	sp, #196	@ 0xc4
   212c4:	bdf0      	pop	{r4, r5, r6, r7, pc}
   212c6:	a803      	add	r0, sp, #12
   212c8:	f005 fe26 	bl	26f18 <_ZN9allow_pin12full_dynamic17unshare_if_shared17hc1e7d593d40bae1cE>
   212cc:	ac18      	add	r4, sp, #96	@ 0x60
   212ce:	4620      	mov	r0, r4
   212d0:	f005 fe22 	bl	26f18 <_ZN9allow_pin12full_dynamic17unshare_if_shared17hc1e7d593d40bae1cE>
   212d4:	4620      	mov	r0, r4
   212d6:	f005 fe1f 	bl	26f18 <_ZN9allow_pin12full_dynamic17unshare_if_shared17hc1e7d593d40bae1cE>
   212da:	9c02      	ldr	r4, [sp, #8]
   212dc:	1c60      	adds	r0, r4, #1
   212de:	2256      	movs	r2, #86	@ 0x56
   212e0:	4629      	mov	r1, r5
   212e2:	f005 ffda 	bl	2729a <__aeabi_memcpy>
   212e6:	e7e5      	b.n	212b4 <_ZN20complex_full_dynamic3app17h4c0560b2ab048383E+0x78>
   212e8:	00001e50 	.word	0x00001e50

000212ec <_ZN20complex_full_dynamic3app17h4e4d8ec8e5e12336E>:
   212ec:	b5f0      	push	{r4, r5, r6, r7, lr}
   212ee:	af03      	add	r7, sp, #12
   212f0:	b0a7      	sub	sp, #156	@ 0x9c
   212f2:	9003      	str	r0, [sp, #12]
   212f4:	ac04      	add	r4, sp, #16
   212f6:	2602      	movs	r6, #2
   212f8:	7226      	strb	r6, [r4, #8]
   212fa:	340c      	adds	r4, #12
   212fc:	221e      	movs	r2, #30
   212fe:	9202      	str	r2, [sp, #8]
   21300:	4620      	mov	r0, r4
   21302:	f005 ffca 	bl	2729a <__aeabi_memcpy>
   21306:	ad0f      	add	r5, sp, #60	@ 0x3c
   21308:	4628      	mov	r0, r5
   2130a:	300c      	adds	r0, #12
   2130c:	2151      	movs	r1, #81	@ 0x51
   2130e:	9001      	str	r0, [sp, #4]
   21310:	f005 fe16 	bl	26f40 <__aeabi_memclr4>
   21314:	722e      	strb	r6, [r5, #8]
   21316:	4635      	mov	r5, r6
   21318:	4e1f      	ldr	r6, [pc, #124]	@ (21398 <_ZN20complex_full_dynamic3app17h4e4d8ec8e5e12336E+0xac>)
   2131a:	4630      	mov	r0, r6
   2131c:	4629      	mov	r1, r5
   2131e:	4622      	mov	r2, r4
   21320:	9b02      	ldr	r3, [sp, #8]
   21322:	df04      	svc	4
   21324:	2802      	cmp	r0, #2
   21326:	d01a      	beq.n	2135e <_ZN20complex_full_dynamic3app17h4e4d8ec8e5e12336E+0x72>
   21328:	a804      	add	r0, sp, #16
   2132a:	2104      	movs	r1, #4
   2132c:	7201      	strb	r1, [r0, #8]
   2132e:	9505      	str	r5, [sp, #20]
   21330:	9604      	str	r6, [sp, #16]
   21332:	2500      	movs	r5, #0
   21334:	2351      	movs	r3, #81	@ 0x51
   21336:	4634      	mov	r4, r6
   21338:	4630      	mov	r0, r6
   2133a:	4629      	mov	r1, r5
   2133c:	9e01      	ldr	r6, [sp, #4]
   2133e:	4632      	mov	r2, r6
   21340:	df03      	svc	3
   21342:	2802      	cmp	r0, #2
   21344:	d00b      	beq.n	2135e <_ZN20complex_full_dynamic3app17h4e4d8ec8e5e12336E+0x72>
   21346:	a80f      	add	r0, sp, #60	@ 0x3c
   21348:	2103      	movs	r1, #3
   2134a:	7201      	strb	r1, [r0, #8]
   2134c:	940f      	str	r4, [sp, #60]	@ 0x3c
   2134e:	9510      	str	r5, [sp, #64]	@ 0x40
   21350:	4811      	ldr	r0, [pc, #68]	@ (21398 <_ZN20complex_full_dynamic3app17h4e4d8ec8e5e12336E+0xac>)
   21352:	2102      	movs	r1, #2
   21354:	462a      	mov	r2, r5
   21356:	462b      	mov	r3, r5
   21358:	df02      	svc	2
   2135a:	287f      	cmp	r0, #127	@ 0x7f
   2135c:	d80b      	bhi.n	21376 <_ZN20complex_full_dynamic3app17h4e4d8ec8e5e12336E+0x8a>
   2135e:	9c03      	ldr	r4, [sp, #12]
   21360:	6061      	str	r1, [r4, #4]
   21362:	2501      	movs	r5, #1
   21364:	7025      	strb	r5, [r4, #0]
   21366:	a80f      	add	r0, sp, #60	@ 0x3c
   21368:	f005 fdd6 	bl	26f18 <_ZN9allow_pin12full_dynamic17unshare_if_shared17hc1e7d593d40bae1cE>
   2136c:	a804      	add	r0, sp, #16
   2136e:	f005 fdd3 	bl	26f18 <_ZN9allow_pin12full_dynamic17unshare_if_shared17hc1e7d593d40bae1cE>
   21372:	b027      	add	sp, #156	@ 0x9c
   21374:	bdf0      	pop	{r4, r5, r6, r7, pc}
   21376:	a804      	add	r0, sp, #16
   21378:	f005 fdce 	bl	26f18 <_ZN9allow_pin12full_dynamic17unshare_if_shared17hc1e7d593d40bae1cE>
   2137c:	ac0f      	add	r4, sp, #60	@ 0x3c
   2137e:	4620      	mov	r0, r4
   21380:	f005 fdca 	bl	26f18 <_ZN9allow_pin12full_dynamic17unshare_if_shared17hc1e7d593d40bae1cE>
   21384:	4620      	mov	r0, r4
   21386:	f005 fdc7 	bl	26f18 <_ZN9allow_pin12full_dynamic17unshare_if_shared17hc1e7d593d40bae1cE>
   2138a:	9c03      	ldr	r4, [sp, #12]
   2138c:	1c60      	adds	r0, r4, #1
   2138e:	2251      	movs	r2, #81	@ 0x51
   21390:	4631      	mov	r1, r6
   21392:	f005 ff82 	bl	2729a <__aeabi_memcpy>
   21396:	e7e5      	b.n	21364 <_ZN20complex_full_dynamic3app17h4e4d8ec8e5e12336E+0x78>
   21398:	0000196b 	.word	0x0000196b

0002139c <_ZN20complex_full_dynamic3app17h52cc7d7c482a4714E>:
   2139c:	b5f0      	push	{r4, r5, r6, r7, lr}
   2139e:	af03      	add	r7, sp, #12
   213a0:	b09f      	sub	sp, #124	@ 0x7c
   213a2:	9003      	str	r0, [sp, #12]
   213a4:	ae04      	add	r6, sp, #16
   213a6:	2002      	movs	r0, #2
   213a8:	9002      	str	r0, [sp, #8]
   213aa:	7230      	strb	r0, [r6, #8]
   213ac:	360c      	adds	r6, #12
   213ae:	222c      	movs	r2, #44	@ 0x2c
   213b0:	9201      	str	r2, [sp, #4]
   213b2:	4630      	mov	r0, r6
   213b4:	f005 ff71 	bl	2729a <__aeabi_memcpy>
   213b8:	ad12      	add	r5, sp, #72	@ 0x48
   213ba:	462c      	mov	r4, r5
   213bc:	340c      	adds	r4, #12
   213be:	2125      	movs	r1, #37	@ 0x25
   213c0:	4620      	mov	r0, r4
   213c2:	f005 fdbd 	bl	26f40 <__aeabi_memclr4>
   213c6:	9802      	ldr	r0, [sp, #8]
   213c8:	7228      	strb	r0, [r5, #8]
   213ca:	481f      	ldr	r0, [pc, #124]	@ (21448 <_ZN20complex_full_dynamic3app17h52cc7d7c482a4714E+0xac>)
   213cc:	2503      	movs	r5, #3
   213ce:	4629      	mov	r1, r5
   213d0:	4632      	mov	r2, r6
   213d2:	9b01      	ldr	r3, [sp, #4]
   213d4:	df04      	svc	4
   213d6:	2802      	cmp	r0, #2
   213d8:	d017      	beq.n	2140a <_ZN20complex_full_dynamic3app17h52cc7d7c482a4714E+0x6e>
   213da:	a804      	add	r0, sp, #16
   213dc:	2104      	movs	r1, #4
   213de:	7201      	strb	r1, [r0, #8]
   213e0:	9505      	str	r5, [sp, #20]
   213e2:	4819      	ldr	r0, [pc, #100]	@ (21448 <_ZN20complex_full_dynamic3app17h52cc7d7c482a4714E+0xac>)
   213e4:	9004      	str	r0, [sp, #16]
   213e6:	2600      	movs	r6, #0
   213e8:	2325      	movs	r3, #37	@ 0x25
   213ea:	4631      	mov	r1, r6
   213ec:	4622      	mov	r2, r4
   213ee:	df03      	svc	3
   213f0:	2802      	cmp	r0, #2
   213f2:	d00a      	beq.n	2140a <_ZN20complex_full_dynamic3app17h52cc7d7c482a4714E+0x6e>
   213f4:	a812      	add	r0, sp, #72	@ 0x48
   213f6:	7205      	strb	r5, [r0, #8]
   213f8:	4813      	ldr	r0, [pc, #76]	@ (21448 <_ZN20complex_full_dynamic3app17h52cc7d7c482a4714E+0xac>)
   213fa:	9012      	str	r0, [sp, #72]	@ 0x48
   213fc:	9613      	str	r6, [sp, #76]	@ 0x4c
   213fe:	4629      	mov	r1, r5
   21400:	4632      	mov	r2, r6
   21402:	4633      	mov	r3, r6
   21404:	df02      	svc	2
   21406:	287f      	cmp	r0, #127	@ 0x7f
   21408:	d80b      	bhi.n	21422 <_ZN20complex_full_dynamic3app17h52cc7d7c482a4714E+0x86>
   2140a:	9c03      	ldr	r4, [sp, #12]
   2140c:	6061      	str	r1, [r4, #4]
   2140e:	2601      	movs	r6, #1
   21410:	7026      	strb	r6, [r4, #0]
   21412:	a812      	add	r0, sp, #72	@ 0x48
   21414:	f005 fd80 	bl	26f18 <_ZN9allow_pin12full_dynamic17unshare_if_shared17hc1e7d593d40bae1cE>
   21418:	a804      	add	r0, sp, #16
   2141a:	f005 fd7d 	bl	26f18 <_ZN9allow_pin12full_dynamic17unshare_if_shared17hc1e7d593d40bae1cE>
   2141e:	b01f      	add	sp, #124	@ 0x7c
   21420:	bdf0      	pop	{r4, r5, r6, r7, pc}
   21422:	a804      	add	r0, sp, #16
   21424:	f005 fd78 	bl	26f18 <_ZN9allow_pin12full_dynamic17unshare_if_shared17hc1e7d593d40bae1cE>
   21428:	4625      	mov	r5, r4
   2142a:	ac12      	add	r4, sp, #72	@ 0x48
   2142c:	4620      	mov	r0, r4
   2142e:	f005 fd73 	bl	26f18 <_ZN9allow_pin12full_dynamic17unshare_if_shared17hc1e7d593d40bae1cE>
   21432:	4620      	mov	r0, r4
   21434:	f005 fd70 	bl	26f18 <_ZN9allow_pin12full_dynamic17unshare_if_shared17hc1e7d593d40bae1cE>
   21438:	9c03      	ldr	r4, [sp, #12]
   2143a:	1c60      	adds	r0, r4, #1
   2143c:	2225      	movs	r2, #37	@ 0x25
   2143e:	4629      	mov	r1, r5
   21440:	f005 ff2b 	bl	2729a <__aeabi_memcpy>
   21444:	e7e4      	b.n	21410 <_ZN20complex_full_dynamic3app17h52cc7d7c482a4714E+0x74>
   21446:	46c0      	nop			@ (mov r8, r8)
   21448:	0000077f 	.word	0x0000077f

0002144c <_ZN20complex_full_dynamic3app17h54b05852fb00cb02E>:
   2144c:	b5f0      	push	{r4, r5, r6, r7, lr}
   2144e:	af03      	add	r7, sp, #12
   21450:	b0a5      	sub	sp, #148	@ 0x94
   21452:	9003      	str	r0, [sp, #12]
   21454:	ac04      	add	r4, sp, #16
   21456:	2002      	movs	r0, #2
   21458:	9002      	str	r0, [sp, #8]
   2145a:	7220      	strb	r0, [r4, #8]
   2145c:	340c      	adds	r4, #12
   2145e:	221a      	movs	r2, #26
   21460:	9201      	str	r2, [sp, #4]
   21462:	4620      	mov	r0, r4
   21464:	f005 ff19 	bl	2729a <__aeabi_memcpy>
   21468:	ae0e      	add	r6, sp, #56	@ 0x38
   2146a:	4635      	mov	r5, r6
   2146c:	350c      	adds	r5, #12
   2146e:	2150      	movs	r1, #80	@ 0x50
   21470:	4628      	mov	r0, r5
   21472:	f005 fd65 	bl	26f40 <__aeabi_memclr4>
   21476:	9802      	ldr	r0, [sp, #8]
   21478:	7230      	strb	r0, [r6, #8]
   2147a:	481f      	ldr	r0, [pc, #124]	@ (214f8 <_ZN20complex_full_dynamic3app17h54b05852fb00cb02E+0xac>)
   2147c:	2607      	movs	r6, #7
   2147e:	4631      	mov	r1, r6
   21480:	4622      	mov	r2, r4
   21482:	9b01      	ldr	r3, [sp, #4]
   21484:	df04      	svc	4
   21486:	2802      	cmp	r0, #2
   21488:	d019      	beq.n	214be <_ZN20complex_full_dynamic3app17h54b05852fb00cb02E+0x72>
   2148a:	a804      	add	r0, sp, #16
   2148c:	2404      	movs	r4, #4
   2148e:	7204      	strb	r4, [r0, #8]
   21490:	9605      	str	r6, [sp, #20]
   21492:	4e19      	ldr	r6, [pc, #100]	@ (214f8 <_ZN20complex_full_dynamic3app17h54b05852fb00cb02E+0xac>)
   21494:	9604      	str	r6, [sp, #16]
   21496:	2350      	movs	r3, #80	@ 0x50
   21498:	4630      	mov	r0, r6
   2149a:	4621      	mov	r1, r4
   2149c:	462a      	mov	r2, r5
   2149e:	df03      	svc	3
   214a0:	2802      	cmp	r0, #2
   214a2:	d00c      	beq.n	214be <_ZN20complex_full_dynamic3app17h54b05852fb00cb02E+0x72>
   214a4:	a80e      	add	r0, sp, #56	@ 0x38
   214a6:	2103      	movs	r1, #3
   214a8:	7201      	strb	r1, [r0, #8]
   214aa:	960e      	str	r6, [sp, #56]	@ 0x38
   214ac:	940f      	str	r4, [sp, #60]	@ 0x3c
   214ae:	4812      	ldr	r0, [pc, #72]	@ (214f8 <_ZN20complex_full_dynamic3app17h54b05852fb00cb02E+0xac>)
   214b0:	2107      	movs	r1, #7
   214b2:	2600      	movs	r6, #0
   214b4:	4622      	mov	r2, r4
   214b6:	4633      	mov	r3, r6
   214b8:	df02      	svc	2
   214ba:	287f      	cmp	r0, #127	@ 0x7f
   214bc:	d80b      	bhi.n	214d6 <_ZN20complex_full_dynamic3app17h54b05852fb00cb02E+0x8a>
   214be:	9c03      	ldr	r4, [sp, #12]
   214c0:	6061      	str	r1, [r4, #4]
   214c2:	2601      	movs	r6, #1
   214c4:	7026      	strb	r6, [r4, #0]
   214c6:	a80e      	add	r0, sp, #56	@ 0x38
   214c8:	f005 fd26 	bl	26f18 <_ZN9allow_pin12full_dynamic17unshare_if_shared17hc1e7d593d40bae1cE>
   214cc:	a804      	add	r0, sp, #16
   214ce:	f005 fd23 	bl	26f18 <_ZN9allow_pin12full_dynamic17unshare_if_shared17hc1e7d593d40bae1cE>
   214d2:	b025      	add	sp, #148	@ 0x94
   214d4:	bdf0      	pop	{r4, r5, r6, r7, pc}
   214d6:	a804      	add	r0, sp, #16
   214d8:	f005 fd1e 	bl	26f18 <_ZN9allow_pin12full_dynamic17unshare_if_shared17hc1e7d593d40bae1cE>
   214dc:	ac0e      	add	r4, sp, #56	@ 0x38
   214de:	4620      	mov	r0, r4
   214e0:	f005 fd1a 	bl	26f18 <_ZN9allow_pin12full_dynamic17unshare_if_shared17hc1e7d593d40bae1cE>
   214e4:	4620      	mov	r0, r4
   214e6:	f005 fd17 	bl	26f18 <_ZN9allow_pin12full_dynamic17unshare_if_shared17hc1e7d593d40bae1cE>
   214ea:	9c03      	ldr	r4, [sp, #12]
   214ec:	1c60      	adds	r0, r4, #1
   214ee:	2250      	movs	r2, #80	@ 0x50
   214f0:	4629      	mov	r1, r5
   214f2:	f005 fed2 	bl	2729a <__aeabi_memcpy>
   214f6:	e7e5      	b.n	214c4 <_ZN20complex_full_dynamic3app17h54b05852fb00cb02E+0x78>
   214f8:	00000aee 	.word	0x00000aee

000214fc <_ZN20complex_full_dynamic3app17h58de64f7484b25b0E>:
   214fc:	b5f0      	push	{r4, r5, r6, r7, lr}
   214fe:	af03      	add	r7, sp, #12
   21500:	b0a9      	sub	sp, #164	@ 0xa4
   21502:	9003      	str	r0, [sp, #12]
   21504:	ac04      	add	r4, sp, #16
   21506:	2602      	movs	r6, #2
   21508:	7226      	strb	r6, [r4, #8]
   2150a:	340c      	adds	r4, #12
   2150c:	224a      	movs	r2, #74	@ 0x4a
   2150e:	9202      	str	r2, [sp, #8]
   21510:	4620      	mov	r0, r4
   21512:	f005 fec2 	bl	2729a <__aeabi_memcpy>
   21516:	ad1a      	add	r5, sp, #104	@ 0x68
   21518:	4628      	mov	r0, r5
   2151a:	300c      	adds	r0, #12
   2151c:	212d      	movs	r1, #45	@ 0x2d
   2151e:	9001      	str	r0, [sp, #4]
   21520:	f005 fd0e 	bl	26f40 <__aeabi_memclr4>
   21524:	722e      	strb	r6, [r5, #8]
   21526:	4635      	mov	r5, r6
   21528:	4e1f      	ldr	r6, [pc, #124]	@ (215a8 <_ZN20complex_full_dynamic3app17h58de64f7484b25b0E+0xac>)
   2152a:	4630      	mov	r0, r6
   2152c:	4629      	mov	r1, r5
   2152e:	4622      	mov	r2, r4
   21530:	9b02      	ldr	r3, [sp, #8]
   21532:	df04      	svc	4
   21534:	2802      	cmp	r0, #2
   21536:	d019      	beq.n	2156c <_ZN20complex_full_dynamic3app17h58de64f7484b25b0E+0x70>
   21538:	a804      	add	r0, sp, #16
   2153a:	2104      	movs	r1, #4
   2153c:	7201      	strb	r1, [r0, #8]
   2153e:	9505      	str	r5, [sp, #20]
   21540:	9604      	str	r6, [sp, #16]
   21542:	2403      	movs	r4, #3
   21544:	232d      	movs	r3, #45	@ 0x2d
   21546:	4630      	mov	r0, r6
   21548:	4621      	mov	r1, r4
   2154a:	9d01      	ldr	r5, [sp, #4]
   2154c:	462a      	mov	r2, r5
   2154e:	df03      	svc	3
   21550:	2802      	cmp	r0, #2
   21552:	d00b      	beq.n	2156c <_ZN20complex_full_dynamic3app17h58de64f7484b25b0E+0x70>
   21554:	a81a      	add	r0, sp, #104	@ 0x68
   21556:	7204      	strb	r4, [r0, #8]
   21558:	941b      	str	r4, [sp, #108]	@ 0x6c
   2155a:	961a      	str	r6, [sp, #104]	@ 0x68
   2155c:	4812      	ldr	r0, [pc, #72]	@ (215a8 <_ZN20complex_full_dynamic3app17h58de64f7484b25b0E+0xac>)
   2155e:	2102      	movs	r1, #2
   21560:	2600      	movs	r6, #0
   21562:	4622      	mov	r2, r4
   21564:	4633      	mov	r3, r6
   21566:	df02      	svc	2
   21568:	287f      	cmp	r0, #127	@ 0x7f
   2156a:	d80b      	bhi.n	21584 <_ZN20complex_full_dynamic3app17h58de64f7484b25b0E+0x88>
   2156c:	9c03      	ldr	r4, [sp, #12]
   2156e:	6061      	str	r1, [r4, #4]
   21570:	2601      	movs	r6, #1
   21572:	7026      	strb	r6, [r4, #0]
   21574:	a81a      	add	r0, sp, #104	@ 0x68
   21576:	f005 fccf 	bl	26f18 <_ZN9allow_pin12full_dynamic17unshare_if_shared17hc1e7d593d40bae1cE>
   2157a:	a804      	add	r0, sp, #16
   2157c:	f005 fccc 	bl	26f18 <_ZN9allow_pin12full_dynamic17unshare_if_shared17hc1e7d593d40bae1cE>
   21580:	b029      	add	sp, #164	@ 0xa4
   21582:	bdf0      	pop	{r4, r5, r6, r7, pc}
   21584:	a804      	add	r0, sp, #16
   21586:	f005 fcc7 	bl	26f18 <_ZN9allow_pin12full_dynamic17unshare_if_shared17hc1e7d593d40bae1cE>
   2158a:	ac1a      	add	r4, sp, #104	@ 0x68
   2158c:	4620      	mov	r0, r4
   2158e:	f005 fcc3 	bl	26f18 <_ZN9allow_pin12full_dynamic17unshare_if_shared17hc1e7d593d40bae1cE>
   21592:	4620      	mov	r0, r4
   21594:	f005 fcc0 	bl	26f18 <_ZN9allow_pin12full_dynamic17unshare_if_shared17hc1e7d593d40bae1cE>
   21598:	9c03      	ldr	r4, [sp, #12]
   2159a:	1c60      	adds	r0, r4, #1
   2159c:	222d      	movs	r2, #45	@ 0x2d
   2159e:	4629      	mov	r1, r5
   215a0:	f005 fe7b 	bl	2729a <__aeabi_memcpy>
   215a4:	e7e5      	b.n	21572 <_ZN20complex_full_dynamic3app17h58de64f7484b25b0E+0x76>
   215a6:	46c0      	nop			@ (mov r8, r8)
   215a8:	00000e3d 	.word	0x00000e3d

000215ac <_ZN20complex_full_dynamic3app17h59b4c90939da7dafE>:
   215ac:	b5f0      	push	{r4, r5, r6, r7, lr}
   215ae:	af03      	add	r7, sp, #12
   215b0:	b09b      	sub	sp, #108	@ 0x6c
   215b2:	9002      	str	r0, [sp, #8]
   215b4:	ac03      	add	r4, sp, #12
   215b6:	2502      	movs	r5, #2
   215b8:	7225      	strb	r5, [r4, #8]
   215ba:	340c      	adds	r4, #12
   215bc:	2236      	movs	r2, #54	@ 0x36
   215be:	9201      	str	r2, [sp, #4]
   215c0:	4620      	mov	r0, r4
   215c2:	f005 fe6a 	bl	2729a <__aeabi_memcpy>
   215c6:	ae14      	add	r6, sp, #80	@ 0x50
   215c8:	2000      	movs	r0, #0
   215ca:	76b0      	strb	r0, [r6, #26]
   215cc:	8330      	strh	r0, [r6, #24]
   215ce:	7235      	strb	r5, [r6, #8]
   215d0:	9019      	str	r0, [sp, #100]	@ 0x64
   215d2:	9018      	str	r0, [sp, #96]	@ 0x60
   215d4:	9017      	str	r0, [sp, #92]	@ 0x5c
   215d6:	4820      	ldr	r0, [pc, #128]	@ (21658 <_ZN20complex_full_dynamic3app17h59b4c90939da7dafE+0xac>)
   215d8:	2505      	movs	r5, #5
   215da:	4629      	mov	r1, r5
   215dc:	4622      	mov	r2, r4
   215de:	9b01      	ldr	r3, [sp, #4]
   215e0:	df04      	svc	4
   215e2:	2802      	cmp	r0, #2
   215e4:	d01a      	beq.n	2161c <_ZN20complex_full_dynamic3app17h59b4c90939da7dafE+0x70>
   215e6:	360c      	adds	r6, #12
   215e8:	a803      	add	r0, sp, #12
   215ea:	2104      	movs	r1, #4
   215ec:	7201      	strb	r1, [r0, #8]
   215ee:	9504      	str	r5, [sp, #16]
   215f0:	4819      	ldr	r0, [pc, #100]	@ (21658 <_ZN20complex_full_dynamic3app17h59b4c90939da7dafE+0xac>)
   215f2:	9003      	str	r0, [sp, #12]
   215f4:	2403      	movs	r4, #3
   215f6:	230f      	movs	r3, #15
   215f8:	4621      	mov	r1, r4
   215fa:	4632      	mov	r2, r6
   215fc:	df03      	svc	3
   215fe:	2802      	cmp	r0, #2
   21600:	d00c      	beq.n	2161c <_ZN20complex_full_dynamic3app17h59b4c90939da7dafE+0x70>
   21602:	4635      	mov	r5, r6
   21604:	a814      	add	r0, sp, #80	@ 0x50
   21606:	7204      	strb	r4, [r0, #8]
   21608:	9415      	str	r4, [sp, #84]	@ 0x54
   2160a:	4813      	ldr	r0, [pc, #76]	@ (21658 <_ZN20complex_full_dynamic3app17h59b4c90939da7dafE+0xac>)
   2160c:	9014      	str	r0, [sp, #80]	@ 0x50
   2160e:	2105      	movs	r1, #5
   21610:	2600      	movs	r6, #0
   21612:	4622      	mov	r2, r4
   21614:	4633      	mov	r3, r6
   21616:	df02      	svc	2
   21618:	287f      	cmp	r0, #127	@ 0x7f
   2161a:	d80b      	bhi.n	21634 <_ZN20complex_full_dynamic3app17h59b4c90939da7dafE+0x88>
   2161c:	9c02      	ldr	r4, [sp, #8]
   2161e:	6061      	str	r1, [r4, #4]
   21620:	2601      	movs	r6, #1
   21622:	7026      	strb	r6, [r4, #0]
   21624:	a814      	add	r0, sp, #80	@ 0x50
   21626:	f005 fc77 	bl	26f18 <_ZN9allow_pin12full_dynamic17unshare_if_shared17hc1e7d593d40bae1cE>
   2162a:	a803      	add	r0, sp, #12
   2162c:	f005 fc74 	bl	26f18 <_ZN9allow_pin12full_dynamic17unshare_if_shared17hc1e7d593d40bae1cE>
   21630:	b01b      	add	sp, #108	@ 0x6c
   21632:	bdf0      	pop	{r4, r5, r6, r7, pc}
   21634:	a803      	add	r0, sp, #12
   21636:	f005 fc6f 	bl	26f18 <_ZN9allow_pin12full_dynamic17unshare_if_shared17hc1e7d593d40bae1cE>
   2163a:	ac14      	add	r4, sp, #80	@ 0x50
   2163c:	4620      	mov	r0, r4
   2163e:	f005 fc6b 	bl	26f18 <_ZN9allow_pin12full_dynamic17unshare_if_shared17hc1e7d593d40bae1cE>
   21642:	4620      	mov	r0, r4
   21644:	f005 fc68 	bl	26f18 <_ZN9allow_pin12full_dynamic17unshare_if_shared17hc1e7d593d40bae1cE>
   21648:	9c02      	ldr	r4, [sp, #8]
   2164a:	1c60      	adds	r0, r4, #1
   2164c:	220f      	movs	r2, #15
   2164e:	4629      	mov	r1, r5
   21650:	f005 fe23 	bl	2729a <__aeabi_memcpy>
   21654:	e7e5      	b.n	21622 <_ZN20complex_full_dynamic3app17h59b4c90939da7dafE+0x76>
   21656:	46c0      	nop			@ (mov r8, r8)
   21658:	00000653 	.word	0x00000653

0002165c <_ZN20complex_full_dynamic3app17h5d31668aeba0256dE>:
   2165c:	b5f0      	push	{r4, r5, r6, r7, lr}
   2165e:	af03      	add	r7, sp, #12
   21660:	b09f      	sub	sp, #124	@ 0x7c
   21662:	9003      	str	r0, [sp, #12]
   21664:	ae04      	add	r6, sp, #16
   21666:	2002      	movs	r0, #2
   21668:	9001      	str	r0, [sp, #4]
   2166a:	7230      	strb	r0, [r6, #8]
   2166c:	360c      	adds	r6, #12
   2166e:	2211      	movs	r2, #17
   21670:	9202      	str	r2, [sp, #8]
   21672:	4630      	mov	r0, r6
   21674:	f005 fe11 	bl	2729a <__aeabi_memcpy>
   21678:	ad0c      	add	r5, sp, #48	@ 0x30
   2167a:	462c      	mov	r4, r5
   2167c:	340c      	adds	r4, #12
   2167e:	213f      	movs	r1, #63	@ 0x3f
   21680:	4620      	mov	r0, r4
   21682:	f005 fc5d 	bl	26f40 <__aeabi_memclr4>
   21686:	9801      	ldr	r0, [sp, #4]
   21688:	7228      	strb	r0, [r5, #8]
   2168a:	20cb      	movs	r0, #203	@ 0xcb
   2168c:	0100      	lsls	r0, r0, #4
   2168e:	2507      	movs	r5, #7
   21690:	9001      	str	r0, [sp, #4]
   21692:	4629      	mov	r1, r5
   21694:	4632      	mov	r2, r6
   21696:	9b02      	ldr	r3, [sp, #8]
   21698:	df04      	svc	4
   2169a:	2802      	cmp	r0, #2
   2169c:	d018      	beq.n	216d0 <_ZN20complex_full_dynamic3app17h5d31668aeba0256dE+0x74>
   2169e:	a804      	add	r0, sp, #16
   216a0:	2604      	movs	r6, #4
   216a2:	7206      	strb	r6, [r0, #8]
   216a4:	9505      	str	r5, [sp, #20]
   216a6:	9801      	ldr	r0, [sp, #4]
   216a8:	9004      	str	r0, [sp, #16]
   216aa:	233f      	movs	r3, #63	@ 0x3f
   216ac:	4631      	mov	r1, r6
   216ae:	4622      	mov	r2, r4
   216b0:	df03      	svc	3
   216b2:	2802      	cmp	r0, #2
   216b4:	d00c      	beq.n	216d0 <_ZN20complex_full_dynamic3app17h5d31668aeba0256dE+0x74>
   216b6:	a80c      	add	r0, sp, #48	@ 0x30
   216b8:	2103      	movs	r1, #3
   216ba:	7201      	strb	r1, [r0, #8]
   216bc:	9801      	ldr	r0, [sp, #4]
   216be:	900c      	str	r0, [sp, #48]	@ 0x30
   216c0:	960d      	str	r6, [sp, #52]	@ 0x34
   216c2:	2107      	movs	r1, #7
   216c4:	2300      	movs	r3, #0
   216c6:	4632      	mov	r2, r6
   216c8:	461e      	mov	r6, r3
   216ca:	df02      	svc	2
   216cc:	287f      	cmp	r0, #127	@ 0x7f
   216ce:	d80b      	bhi.n	216e8 <_ZN20complex_full_dynamic3app17h5d31668aeba0256dE+0x8c>
   216d0:	9c03      	ldr	r4, [sp, #12]
   216d2:	6061      	str	r1, [r4, #4]
   216d4:	2601      	movs	r6, #1
   216d6:	7026      	strb	r6, [r4, #0]
   216d8:	a80c      	add	r0, sp, #48	@ 0x30
   216da:	f005 fc1d 	bl	26f18 <_ZN9allow_pin12full_dynamic17unshare_if_shared17hc1e7d593d40bae1cE>
   216de:	a804      	add	r0, sp, #16
   216e0:	f005 fc1a 	bl	26f18 <_ZN9allow_pin12full_dynamic17unshare_if_shared17hc1e7d593d40bae1cE>
   216e4:	b01f      	add	sp, #124	@ 0x7c
   216e6:	bdf0      	pop	{r4, r5, r6, r7, pc}
   216e8:	4625      	mov	r5, r4
   216ea:	a804      	add	r0, sp, #16
   216ec:	f005 fc14 	bl	26f18 <_ZN9allow_pin12full_dynamic17unshare_if_shared17hc1e7d593d40bae1cE>
   216f0:	ac0c      	add	r4, sp, #48	@ 0x30
   216f2:	4620      	mov	r0, r4
   216f4:	f005 fc10 	bl	26f18 <_ZN9allow_pin12full_dynamic17unshare_if_shared17hc1e7d593d40bae1cE>
   216f8:	4620      	mov	r0, r4
   216fa:	f005 fc0d 	bl	26f18 <_ZN9allow_pin12full_dynamic17unshare_if_shared17hc1e7d593d40bae1cE>
   216fe:	9c03      	ldr	r4, [sp, #12]
   21700:	1c60      	adds	r0, r4, #1
   21702:	223f      	movs	r2, #63	@ 0x3f
   21704:	4629      	mov	r1, r5
   21706:	f005 fdc8 	bl	2729a <__aeabi_memcpy>
   2170a:	e7e4      	b.n	216d6 <_ZN20complex_full_dynamic3app17h5d31668aeba0256dE+0x7a>

0002170c <_ZN20complex_full_dynamic3app17h61414c44488acf88E>:
   2170c:	b5f0      	push	{r4, r5, r6, r7, lr}
   2170e:	af03      	add	r7, sp, #12
   21710:	b09f      	sub	sp, #124	@ 0x7c
   21712:	9003      	str	r0, [sp, #12]
   21714:	ac04      	add	r4, sp, #16
   21716:	2002      	movs	r0, #2
   21718:	9002      	str	r0, [sp, #8]
   2171a:	7220      	strb	r0, [r4, #8]
   2171c:	340c      	adds	r4, #12
   2171e:	222a      	movs	r2, #42	@ 0x2a
   21720:	9201      	str	r2, [sp, #4]
   21722:	4620      	mov	r0, r4
   21724:	f005 fdb9 	bl	2729a <__aeabi_memcpy>
   21728:	ae12      	add	r6, sp, #72	@ 0x48
   2172a:	4635      	mov	r5, r6
   2172c:	350c      	adds	r5, #12
   2172e:	2128      	movs	r1, #40	@ 0x28
   21730:	4628      	mov	r0, r5
   21732:	f005 fc05 	bl	26f40 <__aeabi_memclr4>
   21736:	9802      	ldr	r0, [sp, #8]
   21738:	7230      	strb	r0, [r6, #8]
   2173a:	481f      	ldr	r0, [pc, #124]	@ (217b8 <_ZN20complex_full_dynamic3app17h61414c44488acf88E+0xac>)
   2173c:	2604      	movs	r6, #4
   2173e:	4631      	mov	r1, r6
   21740:	4622      	mov	r2, r4
   21742:	9b01      	ldr	r3, [sp, #4]
   21744:	df04      	svc	4
   21746:	2802      	cmp	r0, #2
   21748:	d019      	beq.n	2177e <_ZN20complex_full_dynamic3app17h61414c44488acf88E+0x72>
   2174a:	a804      	add	r0, sp, #16
   2174c:	7206      	strb	r6, [r0, #8]
   2174e:	9605      	str	r6, [sp, #20]
   21750:	4e19      	ldr	r6, [pc, #100]	@ (217b8 <_ZN20complex_full_dynamic3app17h61414c44488acf88E+0xac>)
   21752:	9604      	str	r6, [sp, #16]
   21754:	2408      	movs	r4, #8
   21756:	2328      	movs	r3, #40	@ 0x28
   21758:	4630      	mov	r0, r6
   2175a:	4621      	mov	r1, r4
   2175c:	462a      	mov	r2, r5
   2175e:	df03      	svc	3
   21760:	2802      	cmp	r0, #2
   21762:	d00c      	beq.n	2177e <_ZN20complex_full_dynamic3app17h61414c44488acf88E+0x72>
   21764:	a812      	add	r0, sp, #72	@ 0x48
   21766:	2103      	movs	r1, #3
   21768:	7201      	strb	r1, [r0, #8]
   2176a:	9612      	str	r6, [sp, #72]	@ 0x48
   2176c:	9413      	str	r4, [sp, #76]	@ 0x4c
   2176e:	4812      	ldr	r0, [pc, #72]	@ (217b8 <_ZN20complex_full_dynamic3app17h61414c44488acf88E+0xac>)
   21770:	2104      	movs	r1, #4
   21772:	2600      	movs	r6, #0
   21774:	4622      	mov	r2, r4
   21776:	4633      	mov	r3, r6
   21778:	df02      	svc	2
   2177a:	287f      	cmp	r0, #127	@ 0x7f
   2177c:	d80b      	bhi.n	21796 <_ZN20complex_full_dynamic3app17h61414c44488acf88E+0x8a>
   2177e:	9c03      	ldr	r4, [sp, #12]
   21780:	6061      	str	r1, [r4, #4]
   21782:	2601      	movs	r6, #1
   21784:	7026      	strb	r6, [r4, #0]
   21786:	a812      	add	r0, sp, #72	@ 0x48
   21788:	f005 fbc6 	bl	26f18 <_ZN9allow_pin12full_dynamic17unshare_if_shared17hc1e7d593d40bae1cE>
   2178c:	a804      	add	r0, sp, #16
   2178e:	f005 fbc3 	bl	26f18 <_ZN9allow_pin12full_dynamic17unshare_if_shared17hc1e7d593d40bae1cE>
   21792:	b01f      	add	sp, #124	@ 0x7c
   21794:	bdf0      	pop	{r4, r5, r6, r7, pc}
   21796:	a804      	add	r0, sp, #16
   21798:	f005 fbbe 	bl	26f18 <_ZN9allow_pin12full_dynamic17unshare_if_shared17hc1e7d593d40bae1cE>
   2179c:	ac12      	add	r4, sp, #72	@ 0x48
   2179e:	4620      	mov	r0, r4
   217a0:	f005 fbba 	bl	26f18 <_ZN9allow_pin12full_dynamic17unshare_if_shared17hc1e7d593d40bae1cE>
   217a4:	4620      	mov	r0, r4
   217a6:	f005 fbb7 	bl	26f18 <_ZN9allow_pin12full_dynamic17unshare_if_shared17hc1e7d593d40bae1cE>
   217aa:	9c03      	ldr	r4, [sp, #12]
   217ac:	1c60      	adds	r0, r4, #1
   217ae:	2228      	movs	r2, #40	@ 0x28
   217b0:	4629      	mov	r1, r5
   217b2:	f005 fd72 	bl	2729a <__aeabi_memcpy>
   217b6:	e7e5      	b.n	21784 <_ZN20complex_full_dynamic3app17h61414c44488acf88E+0x78>
   217b8:	00001efa 	.word	0x00001efa

000217bc <_ZN20complex_full_dynamic3app17h645921fd8ddccc32E>:
   217bc:	b5f0      	push	{r4, r5, r6, r7, lr}
   217be:	af03      	add	r7, sp, #12
   217c0:	b0ad      	sub	sp, #180	@ 0xb4
   217c2:	9003      	str	r0, [sp, #12]
   217c4:	ae04      	add	r6, sp, #16
   217c6:	2002      	movs	r0, #2
   217c8:	9002      	str	r0, [sp, #8]
   217ca:	7230      	strb	r0, [r6, #8]
   217cc:	360c      	adds	r6, #12
   217ce:	2255      	movs	r2, #85	@ 0x55
   217d0:	9201      	str	r2, [sp, #4]
   217d2:	4630      	mov	r0, r6
   217d4:	f005 fd61 	bl	2729a <__aeabi_memcpy>
   217d8:	ad1d      	add	r5, sp, #116	@ 0x74
   217da:	462c      	mov	r4, r5
   217dc:	340c      	adds	r4, #12
   217de:	2132      	movs	r1, #50	@ 0x32
   217e0:	4620      	mov	r0, r4
   217e2:	f005 fbad 	bl	26f40 <__aeabi_memclr4>
   217e6:	9802      	ldr	r0, [sp, #8]
   217e8:	7228      	strb	r0, [r5, #8]
   217ea:	4820      	ldr	r0, [pc, #128]	@ (2186c <_ZN20complex_full_dynamic3app17h645921fd8ddccc32E+0xb0>)
   217ec:	2508      	movs	r5, #8
   217ee:	4629      	mov	r1, r5
   217f0:	4632      	mov	r2, r6
   217f2:	9b01      	ldr	r3, [sp, #4]
   217f4:	df04      	svc	4
   217f6:	2802      	cmp	r0, #2
   217f8:	d019      	beq.n	2182e <_ZN20complex_full_dynamic3app17h645921fd8ddccc32E+0x72>
   217fa:	a804      	add	r0, sp, #16
   217fc:	2104      	movs	r1, #4
   217fe:	7201      	strb	r1, [r0, #8]
   21800:	4e1a      	ldr	r6, [pc, #104]	@ (2186c <_ZN20complex_full_dynamic3app17h645921fd8ddccc32E+0xb0>)
   21802:	9604      	str	r6, [sp, #16]
   21804:	9505      	str	r5, [sp, #20]
   21806:	2332      	movs	r3, #50	@ 0x32
   21808:	4630      	mov	r0, r6
   2180a:	4629      	mov	r1, r5
   2180c:	4622      	mov	r2, r4
   2180e:	df03      	svc	3
   21810:	2802      	cmp	r0, #2
   21812:	d00c      	beq.n	2182e <_ZN20complex_full_dynamic3app17h645921fd8ddccc32E+0x72>
   21814:	a81d      	add	r0, sp, #116	@ 0x74
   21816:	2103      	movs	r1, #3
   21818:	7201      	strb	r1, [r0, #8]
   2181a:	961d      	str	r6, [sp, #116]	@ 0x74
   2181c:	951e      	str	r5, [sp, #120]	@ 0x78
   2181e:	4813      	ldr	r0, [pc, #76]	@ (2186c <_ZN20complex_full_dynamic3app17h645921fd8ddccc32E+0xb0>)
   21820:	2600      	movs	r6, #0
   21822:	4629      	mov	r1, r5
   21824:	462a      	mov	r2, r5
   21826:	4633      	mov	r3, r6
   21828:	df02      	svc	2
   2182a:	287f      	cmp	r0, #127	@ 0x7f
   2182c:	d80b      	bhi.n	21846 <_ZN20complex_full_dynamic3app17h645921fd8ddccc32E+0x8a>
   2182e:	9c03      	ldr	r4, [sp, #12]
   21830:	6061      	str	r1, [r4, #4]
   21832:	2601      	movs	r6, #1
   21834:	7026      	strb	r6, [r4, #0]
   21836:	a81d      	add	r0, sp, #116	@ 0x74
   21838:	f005 fb6e 	bl	26f18 <_ZN9allow_pin12full_dynamic17unshare_if_shared17hc1e7d593d40bae1cE>
   2183c:	a804      	add	r0, sp, #16
   2183e:	f005 fb6b 	bl	26f18 <_ZN9allow_pin12full_dynamic17unshare_if_shared17hc1e7d593d40bae1cE>
   21842:	b02d      	add	sp, #180	@ 0xb4
   21844:	bdf0      	pop	{r4, r5, r6, r7, pc}
   21846:	a804      	add	r0, sp, #16
   21848:	f005 fb66 	bl	26f18 <_ZN9allow_pin12full_dynamic17unshare_if_shared17hc1e7d593d40bae1cE>
   2184c:	4625      	mov	r5, r4
   2184e:	ac1d      	add	r4, sp, #116	@ 0x74
   21850:	4620      	mov	r0, r4
   21852:	f005 fb61 	bl	26f18 <_ZN9allow_pin12full_dynamic17unshare_if_shared17hc1e7d593d40bae1cE>
   21856:	4620      	mov	r0, r4
   21858:	f005 fb5e 	bl	26f18 <_ZN9allow_pin12full_dynamic17unshare_if_shared17hc1e7d593d40bae1cE>
   2185c:	9c03      	ldr	r4, [sp, #12]
   2185e:	1c60      	adds	r0, r4, #1
   21860:	2232      	movs	r2, #50	@ 0x32
   21862:	4629      	mov	r1, r5
   21864:	f005 fd19 	bl	2729a <__aeabi_memcpy>
   21868:	e7e4      	b.n	21834 <_ZN20complex_full_dynamic3app17h645921fd8ddccc32E+0x78>
   2186a:	46c0      	nop			@ (mov r8, r8)
   2186c:	00002095 	.word	0x00002095

00021870 <_ZN20complex_full_dynamic3app17h646dd3bc673c5429E>:
   21870:	b5f0      	push	{r4, r5, r6, r7, lr}
   21872:	af03      	add	r7, sp, #12
   21874:	b0ad      	sub	sp, #180	@ 0xb4
   21876:	9003      	str	r0, [sp, #12]
   21878:	ae04      	add	r6, sp, #16
   2187a:	2002      	movs	r0, #2
   2187c:	9002      	str	r0, [sp, #8]
   2187e:	7230      	strb	r0, [r6, #8]
   21880:	360c      	adds	r6, #12
   21882:	2250      	movs	r2, #80	@ 0x50
   21884:	9201      	str	r2, [sp, #4]
   21886:	4630      	mov	r0, r6
   21888:	f005 fd07 	bl	2729a <__aeabi_memcpy>
   2188c:	ad1b      	add	r5, sp, #108	@ 0x6c
   2188e:	462c      	mov	r4, r5
   21890:	340c      	adds	r4, #12
   21892:	213c      	movs	r1, #60	@ 0x3c
   21894:	4620      	mov	r0, r4
   21896:	f005 fb53 	bl	26f40 <__aeabi_memclr4>
   2189a:	9802      	ldr	r0, [sp, #8]
   2189c:	7228      	strb	r0, [r5, #8]
   2189e:	4820      	ldr	r0, [pc, #128]	@ (21920 <_ZN20complex_full_dynamic3app17h646dd3bc673c5429E+0xb0>)
   218a0:	2503      	movs	r5, #3
   218a2:	4629      	mov	r1, r5
   218a4:	4632      	mov	r2, r6
   218a6:	9b01      	ldr	r3, [sp, #4]
   218a8:	df04      	svc	4
   218aa:	2802      	cmp	r0, #2
   218ac:	d01a      	beq.n	218e4 <_ZN20complex_full_dynamic3app17h646dd3bc673c5429E+0x74>
   218ae:	a804      	add	r0, sp, #16
   218b0:	2104      	movs	r1, #4
   218b2:	7201      	strb	r1, [r0, #8]
   218b4:	9505      	str	r5, [sp, #20]
   218b6:	4e1a      	ldr	r6, [pc, #104]	@ (21920 <_ZN20complex_full_dynamic3app17h646dd3bc673c5429E+0xb0>)
   218b8:	9604      	str	r6, [sp, #16]
   218ba:	2109      	movs	r1, #9
   218bc:	233c      	movs	r3, #60	@ 0x3c
   218be:	4630      	mov	r0, r6
   218c0:	9102      	str	r1, [sp, #8]
   218c2:	4622      	mov	r2, r4
   218c4:	df03      	svc	3
   218c6:	2802      	cmp	r0, #2
   218c8:	d00c      	beq.n	218e4 <_ZN20complex_full_dynamic3app17h646dd3bc673c5429E+0x74>
   218ca:	9401      	str	r4, [sp, #4]
   218cc:	a81b      	add	r0, sp, #108	@ 0x6c
   218ce:	7205      	strb	r5, [r0, #8]
   218d0:	961b      	str	r6, [sp, #108]	@ 0x6c
   218d2:	9a02      	ldr	r2, [sp, #8]
   218d4:	921c      	str	r2, [sp, #112]	@ 0x70
   218d6:	4812      	ldr	r0, [pc, #72]	@ (21920 <_ZN20complex_full_dynamic3app17h646dd3bc673c5429E+0xb0>)
   218d8:	2600      	movs	r6, #0
   218da:	4629      	mov	r1, r5
   218dc:	4633      	mov	r3, r6
   218de:	df02      	svc	2
   218e0:	287f      	cmp	r0, #127	@ 0x7f
   218e2:	d80b      	bhi.n	218fc <_ZN20complex_full_dynamic3app17h646dd3bc673c5429E+0x8c>
   218e4:	9c03      	ldr	r4, [sp, #12]
   218e6:	6061      	str	r1, [r4, #4]
   218e8:	2601      	movs	r6, #1
   218ea:	7026      	strb	r6, [r4, #0]
   218ec:	a81b      	add	r0, sp, #108	@ 0x6c
   218ee:	f005 fb13 	bl	26f18 <_ZN9allow_pin12full_dynamic17unshare_if_shared17hc1e7d593d40bae1cE>
   218f2:	a804      	add	r0, sp, #16
   218f4:	f005 fb10 	bl	26f18 <_ZN9allow_pin12full_dynamic17unshare_if_shared17hc1e7d593d40bae1cE>
   218f8:	b02d      	add	sp, #180	@ 0xb4
   218fa:	bdf0      	pop	{r4, r5, r6, r7, pc}
   218fc:	a804      	add	r0, sp, #16
   218fe:	f005 fb0b 	bl	26f18 <_ZN9allow_pin12full_dynamic17unshare_if_shared17hc1e7d593d40bae1cE>
   21902:	ac1b      	add	r4, sp, #108	@ 0x6c
   21904:	4620      	mov	r0, r4
   21906:	f005 fb07 	bl	26f18 <_ZN9allow_pin12full_dynamic17unshare_if_shared17hc1e7d593d40bae1cE>
   2190a:	4620      	mov	r0, r4
   2190c:	f005 fb04 	bl	26f18 <_ZN9allow_pin12full_dynamic17unshare_if_shared17hc1e7d593d40bae1cE>
   21910:	9c03      	ldr	r4, [sp, #12]
   21912:	1c60      	adds	r0, r4, #1
   21914:	223c      	movs	r2, #60	@ 0x3c
   21916:	9901      	ldr	r1, [sp, #4]
   21918:	f005 fcbf 	bl	2729a <__aeabi_memcpy>
   2191c:	e7e5      	b.n	218ea <_ZN20complex_full_dynamic3app17h646dd3bc673c5429E+0x7a>
   2191e:	46c0      	nop			@ (mov r8, r8)
   21920:	00000d7a 	.word	0x00000d7a

00021924 <_ZN20complex_full_dynamic3app17h65f0d4511f8264c7E>:
   21924:	b5f0      	push	{r4, r5, r6, r7, lr}
   21926:	af03      	add	r7, sp, #12
   21928:	b0a1      	sub	sp, #132	@ 0x84
   2192a:	9002      	str	r0, [sp, #8]
   2192c:	ac03      	add	r4, sp, #12
   2192e:	2602      	movs	r6, #2
   21930:	7226      	strb	r6, [r4, #8]
   21932:	340c      	adds	r4, #12
   21934:	2238      	movs	r2, #56	@ 0x38
   21936:	9201      	str	r2, [sp, #4]
   21938:	4620      	mov	r0, r4
   2193a:	f005 fcae 	bl	2729a <__aeabi_memcpy>
   2193e:	ad14      	add	r5, sp, #80	@ 0x50
   21940:	4628      	mov	r0, r5
   21942:	300c      	adds	r0, #12
   21944:	2127      	movs	r1, #39	@ 0x27
   21946:	9000      	str	r0, [sp, #0]
   21948:	f005 fafa 	bl	26f40 <__aeabi_memclr4>
   2194c:	722e      	strb	r6, [r5, #8]
   2194e:	4635      	mov	r5, r6
   21950:	4e1f      	ldr	r6, [pc, #124]	@ (219d0 <_ZN20complex_full_dynamic3app17h65f0d4511f8264c7E+0xac>)
   21952:	4630      	mov	r0, r6
   21954:	4629      	mov	r1, r5
   21956:	4622      	mov	r2, r4
   21958:	9b01      	ldr	r3, [sp, #4]
   2195a:	df04      	svc	4
   2195c:	2802      	cmp	r0, #2
   2195e:	d01a      	beq.n	21996 <_ZN20complex_full_dynamic3app17h65f0d4511f8264c7E+0x72>
   21960:	a803      	add	r0, sp, #12
   21962:	2104      	movs	r1, #4
   21964:	7201      	strb	r1, [r0, #8]
   21966:	9504      	str	r5, [sp, #16]
   21968:	9603      	str	r6, [sp, #12]
   2196a:	2408      	movs	r4, #8
   2196c:	2327      	movs	r3, #39	@ 0x27
   2196e:	4630      	mov	r0, r6
   21970:	4621      	mov	r1, r4
   21972:	9d00      	ldr	r5, [sp, #0]
   21974:	462a      	mov	r2, r5
   21976:	df03      	svc	3
   21978:	2802      	cmp	r0, #2
   2197a:	d00c      	beq.n	21996 <_ZN20complex_full_dynamic3app17h65f0d4511f8264c7E+0x72>
   2197c:	a814      	add	r0, sp, #80	@ 0x50
   2197e:	2103      	movs	r1, #3
   21980:	7201      	strb	r1, [r0, #8]
   21982:	9614      	str	r6, [sp, #80]	@ 0x50
   21984:	9415      	str	r4, [sp, #84]	@ 0x54
   21986:	4812      	ldr	r0, [pc, #72]	@ (219d0 <_ZN20complex_full_dynamic3app17h65f0d4511f8264c7E+0xac>)
   21988:	2102      	movs	r1, #2
   2198a:	2600      	movs	r6, #0
   2198c:	4622      	mov	r2, r4
   2198e:	4633      	mov	r3, r6
   21990:	df02      	svc	2
   21992:	287f      	cmp	r0, #127	@ 0x7f
   21994:	d80b      	bhi.n	219ae <_ZN20complex_full_dynamic3app17h65f0d4511f8264c7E+0x8a>
   21996:	9c02      	ldr	r4, [sp, #8]
   21998:	6061      	str	r1, [r4, #4]
   2199a:	2601      	movs	r6, #1
   2199c:	7026      	strb	r6, [r4, #0]
   2199e:	a814      	add	r0, sp, #80	@ 0x50
   219a0:	f005 faba 	bl	26f18 <_ZN9allow_pin12full_dynamic17unshare_if_shared17hc1e7d593d40bae1cE>
   219a4:	a803      	add	r0, sp, #12
   219a6:	f005 fab7 	bl	26f18 <_ZN9allow_pin12full_dynamic17unshare_if_shared17hc1e7d593d40bae1cE>
   219aa:	b021      	add	sp, #132	@ 0x84
   219ac:	bdf0      	pop	{r4, r5, r6, r7, pc}
   219ae:	a803      	add	r0, sp, #12
   219b0:	f005 fab2 	bl	26f18 <_ZN9allow_pin12full_dynamic17unshare_if_shared17hc1e7d593d40bae1cE>
   219b4:	ac14      	add	r4, sp, #80	@ 0x50
   219b6:	4620      	mov	r0, r4
   219b8:	f005 faae 	bl	26f18 <_ZN9allow_pin12full_dynamic17unshare_if_shared17hc1e7d593d40bae1cE>
   219bc:	4620      	mov	r0, r4
   219be:	f005 faab 	bl	26f18 <_ZN9allow_pin12full_dynamic17unshare_if_shared17hc1e7d593d40bae1cE>
   219c2:	9c02      	ldr	r4, [sp, #8]
   219c4:	1c60      	adds	r0, r4, #1
   219c6:	2227      	movs	r2, #39	@ 0x27
   219c8:	4629      	mov	r1, r5
   219ca:	f005 fc66 	bl	2729a <__aeabi_memcpy>
   219ce:	e7e5      	b.n	2199c <_ZN20complex_full_dynamic3app17h65f0d4511f8264c7E+0x78>
   219d0:	00000e2b 	.word	0x00000e2b

000219d4 <_ZN20complex_full_dynamic3app17h6a7b8f2eadd0f754E>:
   219d4:	b5f0      	push	{r4, r5, r6, r7, lr}
   219d6:	af03      	add	r7, sp, #12
   219d8:	b0a5      	sub	sp, #148	@ 0x94
   219da:	9002      	str	r0, [sp, #8]
   219dc:	ac03      	add	r4, sp, #12
   219de:	2002      	movs	r0, #2
   219e0:	9001      	str	r0, [sp, #4]
   219e2:	7220      	strb	r0, [r4, #8]
   219e4:	340c      	adds	r4, #12
   219e6:	223c      	movs	r2, #60	@ 0x3c
   219e8:	9200      	str	r2, [sp, #0]
   219ea:	4620      	mov	r0, r4
   219ec:	f005 fc55 	bl	2729a <__aeabi_memcpy>
   219f0:	ae15      	add	r6, sp, #84	@ 0x54
   219f2:	4635      	mov	r5, r6
   219f4:	350c      	adds	r5, #12
   219f6:	2132      	movs	r1, #50	@ 0x32
   219f8:	4628      	mov	r0, r5
   219fa:	f005 faa1 	bl	26f40 <__aeabi_memclr4>
   219fe:	9801      	ldr	r0, [sp, #4]
   21a00:	7230      	strb	r0, [r6, #8]
   21a02:	4820      	ldr	r0, [pc, #128]	@ (21a84 <_ZN20complex_full_dynamic3app17h6a7b8f2eadd0f754E+0xb0>)
   21a04:	2606      	movs	r6, #6
   21a06:	4631      	mov	r1, r6
   21a08:	4622      	mov	r2, r4
   21a0a:	9b00      	ldr	r3, [sp, #0]
   21a0c:	df04      	svc	4
   21a0e:	2802      	cmp	r0, #2
   21a10:	d01a      	beq.n	21a48 <_ZN20complex_full_dynamic3app17h6a7b8f2eadd0f754E+0x74>
   21a12:	a803      	add	r0, sp, #12
   21a14:	2104      	movs	r1, #4
   21a16:	7201      	strb	r1, [r0, #8]
   21a18:	9604      	str	r6, [sp, #16]
   21a1a:	4e1a      	ldr	r6, [pc, #104]	@ (21a84 <_ZN20complex_full_dynamic3app17h6a7b8f2eadd0f754E+0xb0>)
   21a1c:	9603      	str	r6, [sp, #12]
   21a1e:	2408      	movs	r4, #8
   21a20:	2332      	movs	r3, #50	@ 0x32
   21a22:	4630      	mov	r0, r6
   21a24:	4621      	mov	r1, r4
   21a26:	462a      	mov	r2, r5
   21a28:	df03      	svc	3
   21a2a:	2802      	cmp	r0, #2
   21a2c:	d00c      	beq.n	21a48 <_ZN20complex_full_dynamic3app17h6a7b8f2eadd0f754E+0x74>
   21a2e:	a815      	add	r0, sp, #84	@ 0x54
   21a30:	2103      	movs	r1, #3
   21a32:	7201      	strb	r1, [r0, #8]
   21a34:	9615      	str	r6, [sp, #84]	@ 0x54
   21a36:	9416      	str	r4, [sp, #88]	@ 0x58
   21a38:	4812      	ldr	r0, [pc, #72]	@ (21a84 <_ZN20complex_full_dynamic3app17h6a7b8f2eadd0f754E+0xb0>)
   21a3a:	2106      	movs	r1, #6
   21a3c:	2600      	movs	r6, #0
   21a3e:	4622      	mov	r2, r4
   21a40:	4633      	mov	r3, r6
   21a42:	df02      	svc	2
   21a44:	287f      	cmp	r0, #127	@ 0x7f
   21a46:	d80b      	bhi.n	21a60 <_ZN20complex_full_dynamic3app17h6a7b8f2eadd0f754E+0x8c>
   21a48:	9c02      	ldr	r4, [sp, #8]
   21a4a:	6061      	str	r1, [r4, #4]
   21a4c:	2601      	movs	r6, #1
   21a4e:	7026      	strb	r6, [r4, #0]
   21a50:	a815      	add	r0, sp, #84	@ 0x54
   21a52:	f005 fa61 	bl	26f18 <_ZN9allow_pin12full_dynamic17unshare_if_shared17hc1e7d593d40bae1cE>
   21a56:	a803      	add	r0, sp, #12
   21a58:	f005 fa5e 	bl	26f18 <_ZN9allow_pin12full_dynamic17unshare_if_shared17hc1e7d593d40bae1cE>
   21a5c:	b025      	add	sp, #148	@ 0x94
   21a5e:	bdf0      	pop	{r4, r5, r6, r7, pc}
   21a60:	a803      	add	r0, sp, #12
   21a62:	f005 fa59 	bl	26f18 <_ZN9allow_pin12full_dynamic17unshare_if_shared17hc1e7d593d40bae1cE>
   21a66:	ac15      	add	r4, sp, #84	@ 0x54
   21a68:	4620      	mov	r0, r4
   21a6a:	f005 fa55 	bl	26f18 <_ZN9allow_pin12full_dynamic17unshare_if_shared17hc1e7d593d40bae1cE>
   21a6e:	4620      	mov	r0, r4
   21a70:	f005 fa52 	bl	26f18 <_ZN9allow_pin12full_dynamic17unshare_if_shared17hc1e7d593d40bae1cE>
   21a74:	9c02      	ldr	r4, [sp, #8]
   21a76:	1c60      	adds	r0, r4, #1
   21a78:	2232      	movs	r2, #50	@ 0x32
   21a7a:	4629      	mov	r1, r5
   21a7c:	f005 fc0d 	bl	2729a <__aeabi_memcpy>
   21a80:	e7e5      	b.n	21a4e <_ZN20complex_full_dynamic3app17h6a7b8f2eadd0f754E+0x7a>
   21a82:	46c0      	nop			@ (mov r8, r8)
   21a84:	00001b1e 	.word	0x00001b1e

00021a88 <_ZN20complex_full_dynamic3app17h6f47a1eee1a862c3E>:
   21a88:	b5f0      	push	{r4, r5, r6, r7, lr}
   21a8a:	af03      	add	r7, sp, #12
   21a8c:	b09f      	sub	sp, #124	@ 0x7c
   21a8e:	9002      	str	r0, [sp, #8]
   21a90:	ac03      	add	r4, sp, #12
   21a92:	2002      	movs	r0, #2
   21a94:	9001      	str	r0, [sp, #4]
   21a96:	7220      	strb	r0, [r4, #8]
   21a98:	340c      	adds	r4, #12
   21a9a:	220f      	movs	r2, #15
   21a9c:	9200      	str	r2, [sp, #0]
   21a9e:	4620      	mov	r0, r4
   21aa0:	f005 fbfb 	bl	2729a <__aeabi_memcpy>
   21aa4:	ae0a      	add	r6, sp, #40	@ 0x28
   21aa6:	4635      	mov	r5, r6
   21aa8:	350c      	adds	r5, #12
   21aaa:	2146      	movs	r1, #70	@ 0x46
   21aac:	4628      	mov	r0, r5
   21aae:	f005 fa47 	bl	26f40 <__aeabi_memclr4>
   21ab2:	9801      	ldr	r0, [sp, #4]
   21ab4:	7230      	strb	r0, [r6, #8]
   21ab6:	4820      	ldr	r0, [pc, #128]	@ (21b38 <_ZN20complex_full_dynamic3app17h6f47a1eee1a862c3E+0xb0>)
   21ab8:	2609      	movs	r6, #9
   21aba:	4631      	mov	r1, r6
   21abc:	4622      	mov	r2, r4
   21abe:	9b00      	ldr	r3, [sp, #0]
   21ac0:	df04      	svc	4
   21ac2:	2802      	cmp	r0, #2
   21ac4:	d01a      	beq.n	21afc <_ZN20complex_full_dynamic3app17h6f47a1eee1a862c3E+0x74>
   21ac6:	a803      	add	r0, sp, #12
   21ac8:	2104      	movs	r1, #4
   21aca:	7201      	strb	r1, [r0, #8]
   21acc:	9604      	str	r6, [sp, #16]
   21ace:	4e1a      	ldr	r6, [pc, #104]	@ (21b38 <_ZN20complex_full_dynamic3app17h6f47a1eee1a862c3E+0xb0>)
   21ad0:	9603      	str	r6, [sp, #12]
   21ad2:	2402      	movs	r4, #2
   21ad4:	2346      	movs	r3, #70	@ 0x46
   21ad6:	4630      	mov	r0, r6
   21ad8:	4621      	mov	r1, r4
   21ada:	462a      	mov	r2, r5
   21adc:	df03      	svc	3
   21ade:	2802      	cmp	r0, #2
   21ae0:	d00c      	beq.n	21afc <_ZN20complex_full_dynamic3app17h6f47a1eee1a862c3E+0x74>
   21ae2:	a80a      	add	r0, sp, #40	@ 0x28
   21ae4:	2103      	movs	r1, #3
   21ae6:	7201      	strb	r1, [r0, #8]
   21ae8:	960a      	str	r6, [sp, #40]	@ 0x28
   21aea:	940b      	str	r4, [sp, #44]	@ 0x2c
   21aec:	4812      	ldr	r0, [pc, #72]	@ (21b38 <_ZN20complex_full_dynamic3app17h6f47a1eee1a862c3E+0xb0>)
   21aee:	2109      	movs	r1, #9
   21af0:	2600      	movs	r6, #0
   21af2:	4622      	mov	r2, r4
   21af4:	4633      	mov	r3, r6
   21af6:	df02      	svc	2
   21af8:	287f      	cmp	r0, #127	@ 0x7f
   21afa:	d80b      	bhi.n	21b14 <_ZN20complex_full_dynamic3app17h6f47a1eee1a862c3E+0x8c>
   21afc:	9c02      	ldr	r4, [sp, #8]
   21afe:	6061      	str	r1, [r4, #4]
   21b00:	2601      	movs	r6, #1
   21b02:	7026      	strb	r6, [r4, #0]
   21b04:	a80a      	add	r0, sp, #40	@ 0x28
   21b06:	f005 fa07 	bl	26f18 <_ZN9allow_pin12full_dynamic17unshare_if_shared17hc1e7d593d40bae1cE>
   21b0a:	a803      	add	r0, sp, #12
   21b0c:	f005 fa04 	bl	26f18 <_ZN9allow_pin12full_dynamic17unshare_if_shared17hc1e7d593d40bae1cE>
   21b10:	b01f      	add	sp, #124	@ 0x7c
   21b12:	bdf0      	pop	{r4, r5, r6, r7, pc}
   21b14:	a803      	add	r0, sp, #12
   21b16:	f005 f9ff 	bl	26f18 <_ZN9allow_pin12full_dynamic17unshare_if_shared17hc1e7d593d40bae1cE>
   21b1a:	ac0a      	add	r4, sp, #40	@ 0x28
   21b1c:	4620      	mov	r0, r4
   21b1e:	f005 f9fb 	bl	26f18 <_ZN9allow_pin12full_dynamic17unshare_if_shared17hc1e7d593d40bae1cE>
   21b22:	4620      	mov	r0, r4
   21b24:	f005 f9f8 	bl	26f18 <_ZN9allow_pin12full_dynamic17unshare_if_shared17hc1e7d593d40bae1cE>
   21b28:	9c02      	ldr	r4, [sp, #8]
   21b2a:	1c60      	adds	r0, r4, #1
   21b2c:	2246      	movs	r2, #70	@ 0x46
   21b2e:	4629      	mov	r1, r5
   21b30:	f005 fbb3 	bl	2729a <__aeabi_memcpy>
   21b34:	e7e5      	b.n	21b02 <_ZN20complex_full_dynamic3app17h6f47a1eee1a862c3E+0x7a>
   21b36:	46c0      	nop			@ (mov r8, r8)
   21b38:	00001d7e 	.word	0x00001d7e

00021b3c <_ZN20complex_full_dynamic3app17h70ef52414198a98cE>:
   21b3c:	b5f0      	push	{r4, r5, r6, r7, lr}
   21b3e:	af03      	add	r7, sp, #12
   21b40:	b0a3      	sub	sp, #140	@ 0x8c
   21b42:	9002      	str	r0, [sp, #8]
   21b44:	ac03      	add	r4, sp, #12
   21b46:	2002      	movs	r0, #2
   21b48:	9001      	str	r0, [sp, #4]
   21b4a:	7220      	strb	r0, [r4, #8]
   21b4c:	340c      	adds	r4, #12
   21b4e:	2244      	movs	r2, #68	@ 0x44
   21b50:	9200      	str	r2, [sp, #0]
   21b52:	4620      	mov	r0, r4
   21b54:	f005 fba1 	bl	2729a <__aeabi_memcpy>
   21b58:	ae17      	add	r6, sp, #92	@ 0x5c
   21b5a:	4635      	mov	r5, r6
   21b5c:	350c      	adds	r5, #12
   21b5e:	2123      	movs	r1, #35	@ 0x23
   21b60:	4628      	mov	r0, r5
   21b62:	f005 f9ed 	bl	26f40 <__aeabi_memclr4>
   21b66:	9801      	ldr	r0, [sp, #4]
   21b68:	7230      	strb	r0, [r6, #8]
   21b6a:	481f      	ldr	r0, [pc, #124]	@ (21be8 <_ZN20complex_full_dynamic3app17h70ef52414198a98cE+0xac>)
   21b6c:	2606      	movs	r6, #6
   21b6e:	4631      	mov	r1, r6
   21b70:	4622      	mov	r2, r4
   21b72:	9b00      	ldr	r3, [sp, #0]
   21b74:	df04      	svc	4
   21b76:	2802      	cmp	r0, #2
   21b78:	d019      	beq.n	21bae <_ZN20complex_full_dynamic3app17h70ef52414198a98cE+0x72>
   21b7a:	a803      	add	r0, sp, #12
   21b7c:	2104      	movs	r1, #4
   21b7e:	7201      	strb	r1, [r0, #8]
   21b80:	9604      	str	r6, [sp, #16]
   21b82:	4e19      	ldr	r6, [pc, #100]	@ (21be8 <_ZN20complex_full_dynamic3app17h70ef52414198a98cE+0xac>)
   21b84:	9603      	str	r6, [sp, #12]
   21b86:	2403      	movs	r4, #3
   21b88:	2323      	movs	r3, #35	@ 0x23
   21b8a:	4630      	mov	r0, r6
   21b8c:	4621      	mov	r1, r4
   21b8e:	462a      	mov	r2, r5
   21b90:	df03      	svc	3
   21b92:	2802      	cmp	r0, #2
   21b94:	d00b      	beq.n	21bae <_ZN20complex_full_dynamic3app17h70ef52414198a98cE+0x72>
   21b96:	a817      	add	r0, sp, #92	@ 0x5c
   21b98:	7204      	strb	r4, [r0, #8]
   21b9a:	9418      	str	r4, [sp, #96]	@ 0x60
   21b9c:	9617      	str	r6, [sp, #92]	@ 0x5c
   21b9e:	4812      	ldr	r0, [pc, #72]	@ (21be8 <_ZN20complex_full_dynamic3app17h70ef52414198a98cE+0xac>)
   21ba0:	2106      	movs	r1, #6
   21ba2:	2600      	movs	r6, #0
   21ba4:	4622      	mov	r2, r4
   21ba6:	4633      	mov	r3, r6
   21ba8:	df02      	svc	2
   21baa:	287f      	cmp	r0, #127	@ 0x7f
   21bac:	d80b      	bhi.n	21bc6 <_ZN20complex_full_dynamic3app17h70ef52414198a98cE+0x8a>
   21bae:	9c02      	ldr	r4, [sp, #8]
   21bb0:	6061      	str	r1, [r4, #4]
   21bb2:	2601      	movs	r6, #1
   21bb4:	7026      	strb	r6, [r4, #0]
   21bb6:	a817      	add	r0, sp, #92	@ 0x5c
   21bb8:	f005 f9ae 	bl	26f18 <_ZN9allow_pin12full_dynamic17unshare_if_shared17hc1e7d593d40bae1cE>
   21bbc:	a803      	add	r0, sp, #12
   21bbe:	f005 f9ab 	bl	26f18 <_ZN9allow_pin12full_dynamic17unshare_if_shared17hc1e7d593d40bae1cE>
   21bc2:	b023      	add	sp, #140	@ 0x8c
   21bc4:	bdf0      	pop	{r4, r5, r6, r7, pc}
   21bc6:	a803      	add	r0, sp, #12
   21bc8:	f005 f9a6 	bl	26f18 <_ZN9allow_pin12full_dynamic17unshare_if_shared17hc1e7d593d40bae1cE>
   21bcc:	ac17      	add	r4, sp, #92	@ 0x5c
   21bce:	4620      	mov	r0, r4
   21bd0:	f005 f9a2 	bl	26f18 <_ZN9allow_pin12full_dynamic17unshare_if_shared17hc1e7d593d40bae1cE>
   21bd4:	4620      	mov	r0, r4
   21bd6:	f005 f99f 	bl	26f18 <_ZN9allow_pin12full_dynamic17unshare_if_shared17hc1e7d593d40bae1cE>
   21bda:	9c02      	ldr	r4, [sp, #8]
   21bdc:	1c60      	adds	r0, r4, #1
   21bde:	2223      	movs	r2, #35	@ 0x23
   21be0:	4629      	mov	r1, r5
   21be2:	f005 fb5a 	bl	2729a <__aeabi_memcpy>
   21be6:	e7e5      	b.n	21bb4 <_ZN20complex_full_dynamic3app17h70ef52414198a98cE+0x78>
   21be8:	000009bf 	.word	0x000009bf

00021bec <_ZN20complex_full_dynamic3app17h71e2030abaa16f92E>:
   21bec:	b5f0      	push	{r4, r5, r6, r7, lr}
   21bee:	af03      	add	r7, sp, #12
   21bf0:	b097      	sub	sp, #92	@ 0x5c
   21bf2:	9002      	str	r0, [sp, #8]
   21bf4:	ac03      	add	r4, sp, #12
   21bf6:	2602      	movs	r6, #2
   21bf8:	7226      	strb	r6, [r4, #8]
   21bfa:	340c      	adds	r4, #12
   21bfc:	221a      	movs	r2, #26
   21bfe:	9201      	str	r2, [sp, #4]
   21c00:	4620      	mov	r0, r4
   21c02:	f005 fb4a 	bl	2729a <__aeabi_memcpy>
   21c06:	a80d      	add	r0, sp, #52	@ 0x34
   21c08:	4605      	mov	r5, r0
   21c0a:	350c      	adds	r5, #12
   21c0c:	2100      	movs	r1, #0
   21c0e:	76a9      	strb	r1, [r5, #26]
   21c10:	8481      	strh	r1, [r0, #36]	@ 0x24
   21c12:	7206      	strb	r6, [r0, #8]
   21c14:	9115      	str	r1, [sp, #84]	@ 0x54
   21c16:	9114      	str	r1, [sp, #80]	@ 0x50
   21c18:	9113      	str	r1, [sp, #76]	@ 0x4c
   21c1a:	9112      	str	r1, [sp, #72]	@ 0x48
   21c1c:	9111      	str	r1, [sp, #68]	@ 0x44
   21c1e:	9110      	str	r1, [sp, #64]	@ 0x40
   21c20:	481f      	ldr	r0, [pc, #124]	@ (21ca0 <_ZN20complex_full_dynamic3app17h71e2030abaa16f92E+0xb4>)
   21c22:	2605      	movs	r6, #5
   21c24:	4631      	mov	r1, r6
   21c26:	4622      	mov	r2, r4
   21c28:	9b01      	ldr	r3, [sp, #4]
   21c2a:	df04      	svc	4
   21c2c:	2802      	cmp	r0, #2
   21c2e:	d01a      	beq.n	21c66 <_ZN20complex_full_dynamic3app17h71e2030abaa16f92E+0x7a>
   21c30:	a803      	add	r0, sp, #12
   21c32:	2104      	movs	r1, #4
   21c34:	7201      	strb	r1, [r0, #8]
   21c36:	9604      	str	r6, [sp, #16]
   21c38:	4e19      	ldr	r6, [pc, #100]	@ (21ca0 <_ZN20complex_full_dynamic3app17h71e2030abaa16f92E+0xb4>)
   21c3a:	9603      	str	r6, [sp, #12]
   21c3c:	2402      	movs	r4, #2
   21c3e:	231b      	movs	r3, #27
   21c40:	4630      	mov	r0, r6
   21c42:	4621      	mov	r1, r4
   21c44:	462a      	mov	r2, r5
   21c46:	df03      	svc	3
   21c48:	2802      	cmp	r0, #2
   21c4a:	d00c      	beq.n	21c66 <_ZN20complex_full_dynamic3app17h71e2030abaa16f92E+0x7a>
   21c4c:	a80d      	add	r0, sp, #52	@ 0x34
   21c4e:	2103      	movs	r1, #3
   21c50:	7201      	strb	r1, [r0, #8]
   21c52:	960d      	str	r6, [sp, #52]	@ 0x34
   21c54:	940e      	str	r4, [sp, #56]	@ 0x38
   21c56:	4812      	ldr	r0, [pc, #72]	@ (21ca0 <_ZN20complex_full_dynamic3app17h71e2030abaa16f92E+0xb4>)
   21c58:	2105      	movs	r1, #5
   21c5a:	2600      	movs	r6, #0
   21c5c:	4622      	mov	r2, r4
   21c5e:	4633      	mov	r3, r6
   21c60:	df02      	svc	2
   21c62:	287f      	cmp	r0, #127	@ 0x7f
   21c64:	d80b      	bhi.n	21c7e <_ZN20complex_full_dynamic3app17h71e2030abaa16f92E+0x92>
   21c66:	9c02      	ldr	r4, [sp, #8]
   21c68:	6061      	str	r1, [r4, #4]
   21c6a:	2601      	movs	r6, #1
   21c6c:	7026      	strb	r6, [r4, #0]
   21c6e:	a80d      	add	r0, sp, #52	@ 0x34
   21c70:	f005 f952 	bl	26f18 <_ZN9allow_pin12full_dynamic17unshare_if_shared17hc1e7d593d40bae1cE>
   21c74:	a803      	add	r0, sp, #12
   21c76:	f005 f94f 	bl	26f18 <_ZN9allow_pin12full_dynamic17unshare_if_shared17hc1e7d593d40bae1cE>
   21c7a:	b017      	add	sp, #92	@ 0x5c
   21c7c:	bdf0      	pop	{r4, r5, r6, r7, pc}
   21c7e:	a803      	add	r0, sp, #12
   21c80:	f005 f94a 	bl	26f18 <_ZN9allow_pin12full_dynamic17unshare_if_shared17hc1e7d593d40bae1cE>
   21c84:	ac0d      	add	r4, sp, #52	@ 0x34
   21c86:	4620      	mov	r0, r4
   21c88:	f005 f946 	bl	26f18 <_ZN9allow_pin12full_dynamic17unshare_if_shared17hc1e7d593d40bae1cE>
   21c8c:	4620      	mov	r0, r4
   21c8e:	f005 f943 	bl	26f18 <_ZN9allow_pin12full_dynamic17unshare_if_shared17hc1e7d593d40bae1cE>
   21c92:	9c02      	ldr	r4, [sp, #8]
   21c94:	1c60      	adds	r0, r4, #1
   21c96:	221b      	movs	r2, #27
   21c98:	4629      	mov	r1, r5
   21c9a:	f005 fafe 	bl	2729a <__aeabi_memcpy>
   21c9e:	e7e5      	b.n	21c6c <_ZN20complex_full_dynamic3app17h71e2030abaa16f92E+0x80>
   21ca0:	00001cce 	.word	0x00001cce

00021ca4 <_ZN20complex_full_dynamic3app17h74cd4ae15d178461E>:
   21ca4:	b5f0      	push	{r4, r5, r6, r7, lr}
   21ca6:	af03      	add	r7, sp, #12
   21ca8:	b0ab      	sub	sp, #172	@ 0xac
   21caa:	9003      	str	r0, [sp, #12]
   21cac:	ae04      	add	r6, sp, #16
   21cae:	2402      	movs	r4, #2
   21cb0:	7234      	strb	r4, [r6, #8]
   21cb2:	360c      	adds	r6, #12
   21cb4:	2261      	movs	r2, #97	@ 0x61
   21cb6:	9202      	str	r2, [sp, #8]
   21cb8:	4630      	mov	r0, r6
   21cba:	f005 faee 	bl	2729a <__aeabi_memcpy>
   21cbe:	ad20      	add	r5, sp, #128	@ 0x80
   21cc0:	2000      	movs	r0, #0
   21cc2:	8528      	strh	r0, [r5, #40]	@ 0x28
   21cc4:	722c      	strb	r4, [r5, #8]
   21cc6:	9029      	str	r0, [sp, #164]	@ 0xa4
   21cc8:	9028      	str	r0, [sp, #160]	@ 0xa0
   21cca:	9027      	str	r0, [sp, #156]	@ 0x9c
   21ccc:	9026      	str	r0, [sp, #152]	@ 0x98
   21cce:	9025      	str	r0, [sp, #148]	@ 0x94
   21cd0:	9024      	str	r0, [sp, #144]	@ 0x90
   21cd2:	9023      	str	r0, [sp, #140]	@ 0x8c
   21cd4:	2031      	movs	r0, #49	@ 0x31
   21cd6:	00c0      	lsls	r0, r0, #3
   21cd8:	2404      	movs	r4, #4
   21cda:	9001      	str	r0, [sp, #4]
   21cdc:	4621      	mov	r1, r4
   21cde:	4632      	mov	r2, r6
   21ce0:	9b02      	ldr	r3, [sp, #8]
   21ce2:	df04      	svc	4
   21ce4:	2802      	cmp	r0, #2
   21ce6:	d019      	beq.n	21d1c <_ZN20complex_full_dynamic3app17h74cd4ae15d178461E+0x78>
   21ce8:	350c      	adds	r5, #12
   21cea:	a804      	add	r0, sp, #16
   21cec:	7204      	strb	r4, [r0, #8]
   21cee:	9405      	str	r4, [sp, #20]
   21cf0:	9801      	ldr	r0, [sp, #4]
   21cf2:	9004      	str	r0, [sp, #16]
   21cf4:	2406      	movs	r4, #6
   21cf6:	231e      	movs	r3, #30
   21cf8:	4621      	mov	r1, r4
   21cfa:	462a      	mov	r2, r5
   21cfc:	df03      	svc	3
   21cfe:	2802      	cmp	r0, #2
   21d00:	d00c      	beq.n	21d1c <_ZN20complex_full_dynamic3app17h74cd4ae15d178461E+0x78>
   21d02:	a820      	add	r0, sp, #128	@ 0x80
   21d04:	2103      	movs	r1, #3
   21d06:	7201      	strb	r1, [r0, #8]
   21d08:	9801      	ldr	r0, [sp, #4]
   21d0a:	9020      	str	r0, [sp, #128]	@ 0x80
   21d0c:	9421      	str	r4, [sp, #132]	@ 0x84
   21d0e:	2104      	movs	r1, #4
   21d10:	2600      	movs	r6, #0
   21d12:	4622      	mov	r2, r4
   21d14:	4633      	mov	r3, r6
   21d16:	df02      	svc	2
   21d18:	287f      	cmp	r0, #127	@ 0x7f
   21d1a:	d80b      	bhi.n	21d34 <_ZN20complex_full_dynamic3app17h74cd4ae15d178461E+0x90>
   21d1c:	9c03      	ldr	r4, [sp, #12]
   21d1e:	6061      	str	r1, [r4, #4]
   21d20:	2601      	movs	r6, #1
   21d22:	7026      	strb	r6, [r4, #0]
   21d24:	a820      	add	r0, sp, #128	@ 0x80
   21d26:	f005 f8f7 	bl	26f18 <_ZN9allow_pin12full_dynamic17unshare_if_shared17hc1e7d593d40bae1cE>
   21d2a:	a804      	add	r0, sp, #16
   21d2c:	f005 f8f4 	bl	26f18 <_ZN9allow_pin12full_dynamic17unshare_if_shared17hc1e7d593d40bae1cE>
   21d30:	b02b      	add	sp, #172	@ 0xac
   21d32:	bdf0      	pop	{r4, r5, r6, r7, pc}
   21d34:	a804      	add	r0, sp, #16
   21d36:	f005 f8ef 	bl	26f18 <_ZN9allow_pin12full_dynamic17unshare_if_shared17hc1e7d593d40bae1cE>
   21d3a:	ac20      	add	r4, sp, #128	@ 0x80
   21d3c:	4620      	mov	r0, r4
   21d3e:	f005 f8eb 	bl	26f18 <_ZN9allow_pin12full_dynamic17unshare_if_shared17hc1e7d593d40bae1cE>
   21d42:	4620      	mov	r0, r4
   21d44:	f005 f8e8 	bl	26f18 <_ZN9allow_pin12full_dynamic17unshare_if_shared17hc1e7d593d40bae1cE>
   21d48:	9c03      	ldr	r4, [sp, #12]
   21d4a:	1c60      	adds	r0, r4, #1
   21d4c:	221e      	movs	r2, #30
   21d4e:	4629      	mov	r1, r5
   21d50:	f005 faa3 	bl	2729a <__aeabi_memcpy>
   21d54:	e7e5      	b.n	21d22 <_ZN20complex_full_dynamic3app17h74cd4ae15d178461E+0x7e>
   21d56:	d4d4      	bmi.n	21d02 <_ZN20complex_full_dynamic3app17h74cd4ae15d178461E+0x5e>

00021d58 <_ZN20complex_full_dynamic3app17h75f3dd29b0f1adc6E>:
   21d58:	b5f0      	push	{r4, r5, r6, r7, lr}
   21d5a:	af03      	add	r7, sp, #12
   21d5c:	b09f      	sub	sp, #124	@ 0x7c
   21d5e:	9003      	str	r0, [sp, #12]
   21d60:	ac04      	add	r4, sp, #16
   21d62:	2002      	movs	r0, #2
   21d64:	9002      	str	r0, [sp, #8]
   21d66:	7220      	strb	r0, [r4, #8]
   21d68:	340c      	adds	r4, #12
   21d6a:	2224      	movs	r2, #36	@ 0x24
   21d6c:	9201      	str	r2, [sp, #4]
   21d6e:	4620      	mov	r0, r4
   21d70:	f005 fa93 	bl	2729a <__aeabi_memcpy>
   21d74:	ae10      	add	r6, sp, #64	@ 0x40
   21d76:	4635      	mov	r5, r6
   21d78:	350c      	adds	r5, #12
   21d7a:	212f      	movs	r1, #47	@ 0x2f
   21d7c:	4628      	mov	r0, r5
   21d7e:	f005 f8df 	bl	26f40 <__aeabi_memclr4>
   21d82:	9802      	ldr	r0, [sp, #8]
   21d84:	7230      	strb	r0, [r6, #8]
   21d86:	4820      	ldr	r0, [pc, #128]	@ (21e08 <_ZN20complex_full_dynamic3app17h75f3dd29b0f1adc6E+0xb0>)
   21d88:	2606      	movs	r6, #6
   21d8a:	4631      	mov	r1, r6
   21d8c:	4622      	mov	r2, r4
   21d8e:	9b01      	ldr	r3, [sp, #4]
   21d90:	df04      	svc	4
   21d92:	2802      	cmp	r0, #2
   21d94:	d01a      	beq.n	21dcc <_ZN20complex_full_dynamic3app17h75f3dd29b0f1adc6E+0x74>
   21d96:	a804      	add	r0, sp, #16
   21d98:	2104      	movs	r1, #4
   21d9a:	7201      	strb	r1, [r0, #8]
   21d9c:	9605      	str	r6, [sp, #20]
   21d9e:	4e1a      	ldr	r6, [pc, #104]	@ (21e08 <_ZN20complex_full_dynamic3app17h75f3dd29b0f1adc6E+0xb0>)
   21da0:	9604      	str	r6, [sp, #16]
   21da2:	2409      	movs	r4, #9
   21da4:	232f      	movs	r3, #47	@ 0x2f
   21da6:	4630      	mov	r0, r6
   21da8:	4621      	mov	r1, r4
   21daa:	462a      	mov	r2, r5
   21dac:	df03      	svc	3
   21dae:	2802      	cmp	r0, #2
   21db0:	d00c      	beq.n	21dcc <_ZN20complex_full_dynamic3app17h75f3dd29b0f1adc6E+0x74>
   21db2:	a810      	add	r0, sp, #64	@ 0x40
   21db4:	2103      	movs	r1, #3
   21db6:	7201      	strb	r1, [r0, #8]
   21db8:	9610      	str	r6, [sp, #64]	@ 0x40
   21dba:	9411      	str	r4, [sp, #68]	@ 0x44
   21dbc:	4812      	ldr	r0, [pc, #72]	@ (21e08 <_ZN20complex_full_dynamic3app17h75f3dd29b0f1adc6E+0xb0>)
   21dbe:	2106      	movs	r1, #6
   21dc0:	2600      	movs	r6, #0
   21dc2:	4622      	mov	r2, r4
   21dc4:	4633      	mov	r3, r6
   21dc6:	df02      	svc	2
   21dc8:	287f      	cmp	r0, #127	@ 0x7f
   21dca:	d80b      	bhi.n	21de4 <_ZN20complex_full_dynamic3app17h75f3dd29b0f1adc6E+0x8c>
   21dcc:	9c03      	ldr	r4, [sp, #12]
   21dce:	6061      	str	r1, [r4, #4]
   21dd0:	2601      	movs	r6, #1
   21dd2:	7026      	strb	r6, [r4, #0]
   21dd4:	a810      	add	r0, sp, #64	@ 0x40
   21dd6:	f005 f89f 	bl	26f18 <_ZN9allow_pin12full_dynamic17unshare_if_shared17hc1e7d593d40bae1cE>
   21dda:	a804      	add	r0, sp, #16
   21ddc:	f005 f89c 	bl	26f18 <_ZN9allow_pin12full_dynamic17unshare_if_shared17hc1e7d593d40bae1cE>
   21de0:	b01f      	add	sp, #124	@ 0x7c
   21de2:	bdf0      	pop	{r4, r5, r6, r7, pc}
   21de4:	a804      	add	r0, sp, #16
   21de6:	f005 f897 	bl	26f18 <_ZN9allow_pin12full_dynamic17unshare_if_shared17hc1e7d593d40bae1cE>
   21dea:	ac10      	add	r4, sp, #64	@ 0x40
   21dec:	4620      	mov	r0, r4
   21dee:	f005 f893 	bl	26f18 <_ZN9allow_pin12full_dynamic17unshare_if_shared17hc1e7d593d40bae1cE>
   21df2:	4620      	mov	r0, r4
   21df4:	f005 f890 	bl	26f18 <_ZN9allow_pin12full_dynamic17unshare_if_shared17hc1e7d593d40bae1cE>
   21df8:	9c03      	ldr	r4, [sp, #12]
   21dfa:	1c60      	adds	r0, r4, #1
   21dfc:	222f      	movs	r2, #47	@ 0x2f
   21dfe:	4629      	mov	r1, r5
   21e00:	f005 fa4b 	bl	2729a <__aeabi_memcpy>
   21e04:	e7e5      	b.n	21dd2 <_ZN20complex_full_dynamic3app17h75f3dd29b0f1adc6E+0x7a>
   21e06:	46c0      	nop			@ (mov r8, r8)
   21e08:	00001273 	.word	0x00001273

00021e0c <_ZN20complex_full_dynamic3app17h78b526b9c4291207E>:
   21e0c:	b5f0      	push	{r4, r5, r6, r7, lr}
   21e0e:	af03      	add	r7, sp, #12
   21e10:	b0a1      	sub	sp, #132	@ 0x84
   21e12:	9003      	str	r0, [sp, #12]
   21e14:	ac04      	add	r4, sp, #16
   21e16:	2602      	movs	r6, #2
   21e18:	7226      	strb	r6, [r4, #8]
   21e1a:	340c      	adds	r4, #12
   21e1c:	221e      	movs	r2, #30
   21e1e:	9202      	str	r2, [sp, #8]
   21e20:	4620      	mov	r0, r4
   21e22:	f005 fa3a 	bl	2729a <__aeabi_memcpy>
   21e26:	ad0f      	add	r5, sp, #60	@ 0x3c
   21e28:	4628      	mov	r0, r5
   21e2a:	300c      	adds	r0, #12
   21e2c:	213c      	movs	r1, #60	@ 0x3c
   21e2e:	9001      	str	r0, [sp, #4]
   21e30:	f005 f886 	bl	26f40 <__aeabi_memclr4>
   21e34:	722e      	strb	r6, [r5, #8]
   21e36:	4635      	mov	r5, r6
   21e38:	4e1f      	ldr	r6, [pc, #124]	@ (21eb8 <_ZN20complex_full_dynamic3app17h78b526b9c4291207E+0xac>)
   21e3a:	4630      	mov	r0, r6
   21e3c:	4629      	mov	r1, r5
   21e3e:	4622      	mov	r2, r4
   21e40:	9b02      	ldr	r3, [sp, #8]
   21e42:	df04      	svc	4
   21e44:	2802      	cmp	r0, #2
   21e46:	d019      	beq.n	21e7c <_ZN20complex_full_dynamic3app17h78b526b9c4291207E+0x70>
   21e48:	a804      	add	r0, sp, #16
   21e4a:	2104      	movs	r1, #4
   21e4c:	7201      	strb	r1, [r0, #8]
   21e4e:	9505      	str	r5, [sp, #20]
   21e50:	9604      	str	r6, [sp, #16]
   21e52:	2403      	movs	r4, #3
   21e54:	233c      	movs	r3, #60	@ 0x3c
   21e56:	4630      	mov	r0, r6
   21e58:	4621      	mov	r1, r4
   21e5a:	9d01      	ldr	r5, [sp, #4]
   21e5c:	462a      	mov	r2, r5
   21e5e:	df03      	svc	3
   21e60:	2802      	cmp	r0, #2
   21e62:	d00b      	beq.n	21e7c <_ZN20complex_full_dynamic3app17h78b526b9c4291207E+0x70>
   21e64:	a80f      	add	r0, sp, #60	@ 0x3c
   21e66:	7204      	strb	r4, [r0, #8]
   21e68:	9410      	str	r4, [sp, #64]	@ 0x40
   21e6a:	960f      	str	r6, [sp, #60]	@ 0x3c
   21e6c:	4812      	ldr	r0, [pc, #72]	@ (21eb8 <_ZN20complex_full_dynamic3app17h78b526b9c4291207E+0xac>)
   21e6e:	2102      	movs	r1, #2
   21e70:	2600      	movs	r6, #0
   21e72:	4622      	mov	r2, r4
   21e74:	4633      	mov	r3, r6
   21e76:	df02      	svc	2
   21e78:	287f      	cmp	r0, #127	@ 0x7f
   21e7a:	d80b      	bhi.n	21e94 <_ZN20complex_full_dynamic3app17h78b526b9c4291207E+0x88>
   21e7c:	9c03      	ldr	r4, [sp, #12]
   21e7e:	6061      	str	r1, [r4, #4]
   21e80:	2601      	movs	r6, #1
   21e82:	7026      	strb	r6, [r4, #0]
   21e84:	a80f      	add	r0, sp, #60	@ 0x3c
   21e86:	f005 f847 	bl	26f18 <_ZN9allow_pin12full_dynamic17unshare_if_shared17hc1e7d593d40bae1cE>
   21e8a:	a804      	add	r0, sp, #16
   21e8c:	f005 f844 	bl	26f18 <_ZN9allow_pin12full_dynamic17unshare_if_shared17hc1e7d593d40bae1cE>
   21e90:	b021      	add	sp, #132	@ 0x84
   21e92:	bdf0      	pop	{r4, r5, r6, r7, pc}
   21e94:	a804      	add	r0, sp, #16
   21e96:	f005 f83f 	bl	26f18 <_ZN9allow_pin12full_dynamic17unshare_if_shared17hc1e7d593d40bae1cE>
   21e9a:	ac0f      	add	r4, sp, #60	@ 0x3c
   21e9c:	4620      	mov	r0, r4
   21e9e:	f005 f83b 	bl	26f18 <_ZN9allow_pin12full_dynamic17unshare_if_shared17hc1e7d593d40bae1cE>
   21ea2:	4620      	mov	r0, r4
   21ea4:	f005 f838 	bl	26f18 <_ZN9allow_pin12full_dynamic17unshare_if_shared17hc1e7d593d40bae1cE>
   21ea8:	9c03      	ldr	r4, [sp, #12]
   21eaa:	1c60      	adds	r0, r4, #1
   21eac:	223c      	movs	r2, #60	@ 0x3c
   21eae:	4629      	mov	r1, r5
   21eb0:	f005 f9f3 	bl	2729a <__aeabi_memcpy>
   21eb4:	e7e5      	b.n	21e82 <_ZN20complex_full_dynamic3app17h78b526b9c4291207E+0x76>
   21eb6:	46c0      	nop			@ (mov r8, r8)
   21eb8:	00000b3c 	.word	0x00000b3c

00021ebc <_ZN20complex_full_dynamic3app17h7b4786e572bdbf00E>:
   21ebc:	b5f0      	push	{r4, r5, r6, r7, lr}
   21ebe:	af03      	add	r7, sp, #12
   21ec0:	b09f      	sub	sp, #124	@ 0x7c
   21ec2:	9001      	str	r0, [sp, #4]
   21ec4:	ac02      	add	r4, sp, #8
   21ec6:	2502      	movs	r5, #2
   21ec8:	7225      	strb	r5, [r4, #8]
   21eca:	340c      	adds	r4, #12
   21ecc:	263f      	movs	r6, #63	@ 0x3f
   21ece:	4620      	mov	r0, r4
   21ed0:	4632      	mov	r2, r6
   21ed2:	f005 f9e2 	bl	2729a <__aeabi_memcpy>
   21ed6:	a815      	add	r0, sp, #84	@ 0x54
   21ed8:	9000      	str	r0, [sp, #0]
   21eda:	7205      	strb	r5, [r0, #8]
   21edc:	2000      	movs	r0, #0
   21ede:	901e      	str	r0, [sp, #120]	@ 0x78
   21ee0:	901d      	str	r0, [sp, #116]	@ 0x74
   21ee2:	901c      	str	r0, [sp, #112]	@ 0x70
   21ee4:	901b      	str	r0, [sp, #108]	@ 0x6c
   21ee6:	901a      	str	r0, [sp, #104]	@ 0x68
   21ee8:	9019      	str	r0, [sp, #100]	@ 0x64
   21eea:	9018      	str	r0, [sp, #96]	@ 0x60
   21eec:	4820      	ldr	r0, [pc, #128]	@ (21f70 <_ZN20complex_full_dynamic3app17h7b4786e572bdbf00E+0xb4>)
   21eee:	2505      	movs	r5, #5
   21ef0:	4629      	mov	r1, r5
   21ef2:	4622      	mov	r2, r4
   21ef4:	4633      	mov	r3, r6
   21ef6:	df04      	svc	4
   21ef8:	2802      	cmp	r0, #2
   21efa:	d01c      	beq.n	21f36 <_ZN20complex_full_dynamic3app17h7b4786e572bdbf00E+0x7a>
   21efc:	9e00      	ldr	r6, [sp, #0]
   21efe:	360c      	adds	r6, #12
   21f00:	a802      	add	r0, sp, #8
   21f02:	2104      	movs	r1, #4
   21f04:	7201      	strb	r1, [r0, #8]
   21f06:	9503      	str	r5, [sp, #12]
   21f08:	4819      	ldr	r0, [pc, #100]	@ (21f70 <_ZN20complex_full_dynamic3app17h7b4786e572bdbf00E+0xb4>)
   21f0a:	9002      	str	r0, [sp, #8]
   21f0c:	2409      	movs	r4, #9
   21f0e:	231c      	movs	r3, #28
   21f10:	4621      	mov	r1, r4
   21f12:	4632      	mov	r2, r6
   21f14:	df03      	svc	3
   21f16:	2802      	cmp	r0, #2
   21f18:	d00d      	beq.n	21f36 <_ZN20complex_full_dynamic3app17h7b4786e572bdbf00E+0x7a>
   21f1a:	4635      	mov	r5, r6
   21f1c:	a815      	add	r0, sp, #84	@ 0x54
   21f1e:	2103      	movs	r1, #3
   21f20:	7201      	strb	r1, [r0, #8]
   21f22:	4813      	ldr	r0, [pc, #76]	@ (21f70 <_ZN20complex_full_dynamic3app17h7b4786e572bdbf00E+0xb4>)
   21f24:	9015      	str	r0, [sp, #84]	@ 0x54
   21f26:	9416      	str	r4, [sp, #88]	@ 0x58
   21f28:	2105      	movs	r1, #5
   21f2a:	2600      	movs	r6, #0
   21f2c:	4622      	mov	r2, r4
   21f2e:	4633      	mov	r3, r6
   21f30:	df02      	svc	2
   21f32:	287f      	cmp	r0, #127	@ 0x7f
   21f34:	d80b      	bhi.n	21f4e <_ZN20complex_full_dynamic3app17h7b4786e572bdbf00E+0x92>
   21f36:	9c01      	ldr	r4, [sp, #4]
   21f38:	6061      	str	r1, [r4, #4]
   21f3a:	2601      	movs	r6, #1
   21f3c:	7026      	strb	r6, [r4, #0]
   21f3e:	a815      	add	r0, sp, #84	@ 0x54
   21f40:	f004 ffea 	bl	26f18 <_ZN9allow_pin12full_dynamic17unshare_if_shared17hc1e7d593d40bae1cE>
   21f44:	a802      	add	r0, sp, #8
   21f46:	f004 ffe7 	bl	26f18 <_ZN9allow_pin12full_dynamic17unshare_if_shared17hc1e7d593d40bae1cE>
   21f4a:	b01f      	add	sp, #124	@ 0x7c
   21f4c:	bdf0      	pop	{r4, r5, r6, r7, pc}
   21f4e:	a802      	add	r0, sp, #8
   21f50:	f004 ffe2 	bl	26f18 <_ZN9allow_pin12full_dynamic17unshare_if_shared17hc1e7d593d40bae1cE>
   21f54:	ac15      	add	r4, sp, #84	@ 0x54
   21f56:	4620      	mov	r0, r4
   21f58:	f004 ffde 	bl	26f18 <_ZN9allow_pin12full_dynamic17unshare_if_shared17hc1e7d593d40bae1cE>
   21f5c:	4620      	mov	r0, r4
   21f5e:	f004 ffdb 	bl	26f18 <_ZN9allow_pin12full_dynamic17unshare_if_shared17hc1e7d593d40bae1cE>
   21f62:	9c01      	ldr	r4, [sp, #4]
   21f64:	1c60      	adds	r0, r4, #1
   21f66:	221c      	movs	r2, #28
   21f68:	4629      	mov	r1, r5
   21f6a:	f005 f996 	bl	2729a <__aeabi_memcpy>
   21f6e:	e7e5      	b.n	21f3c <_ZN20complex_full_dynamic3app17h7b4786e572bdbf00E+0x80>
   21f70:	00001694 	.word	0x00001694

00021f74 <_ZN20complex_full_dynamic3app17h7feab207cc38593eE>:
   21f74:	b5f0      	push	{r4, r5, r6, r7, lr}
   21f76:	af03      	add	r7, sp, #12
   21f78:	b0a5      	sub	sp, #148	@ 0x94
   21f7a:	9003      	str	r0, [sp, #12]
   21f7c:	ac04      	add	r4, sp, #16
   21f7e:	2502      	movs	r5, #2
   21f80:	7225      	strb	r5, [r4, #8]
   21f82:	340c      	adds	r4, #12
   21f84:	2255      	movs	r2, #85	@ 0x55
   21f86:	9202      	str	r2, [sp, #8]
   21f88:	4620      	mov	r0, r4
   21f8a:	f005 f986 	bl	2729a <__aeabi_memcpy>
   21f8e:	ae1d      	add	r6, sp, #116	@ 0x74
   21f90:	2000      	movs	r0, #0
   21f92:	7730      	strb	r0, [r6, #28]
   21f94:	7235      	strb	r5, [r6, #8]
   21f96:	9023      	str	r0, [sp, #140]	@ 0x8c
   21f98:	9022      	str	r0, [sp, #136]	@ 0x88
   21f9a:	9021      	str	r0, [sp, #132]	@ 0x84
   21f9c:	9020      	str	r0, [sp, #128]	@ 0x80
   21f9e:	4820      	ldr	r0, [pc, #128]	@ (22020 <_ZN20complex_full_dynamic3app17h7feab207cc38593eE+0xac>)
   21fa0:	9501      	str	r5, [sp, #4]
   21fa2:	4629      	mov	r1, r5
   21fa4:	4622      	mov	r2, r4
   21fa6:	9b02      	ldr	r3, [sp, #8]
   21fa8:	df04      	svc	4
   21faa:	2802      	cmp	r0, #2
   21fac:	d01b      	beq.n	21fe6 <_ZN20complex_full_dynamic3app17h7feab207cc38593eE+0x72>
   21fae:	360c      	adds	r6, #12
   21fb0:	a804      	add	r0, sp, #16
   21fb2:	2104      	movs	r1, #4
   21fb4:	7201      	strb	r1, [r0, #8]
   21fb6:	4c1a      	ldr	r4, [pc, #104]	@ (22020 <_ZN20complex_full_dynamic3app17h7feab207cc38593eE+0xac>)
   21fb8:	9404      	str	r4, [sp, #16]
   21fba:	9d01      	ldr	r5, [sp, #4]
   21fbc:	9505      	str	r5, [sp, #20]
   21fbe:	2311      	movs	r3, #17
   21fc0:	4620      	mov	r0, r4
   21fc2:	4629      	mov	r1, r5
   21fc4:	4632      	mov	r2, r6
   21fc6:	df03      	svc	3
   21fc8:	2802      	cmp	r0, #2
   21fca:	d00c      	beq.n	21fe6 <_ZN20complex_full_dynamic3app17h7feab207cc38593eE+0x72>
   21fcc:	a81d      	add	r0, sp, #116	@ 0x74
   21fce:	2103      	movs	r1, #3
   21fd0:	7201      	strb	r1, [r0, #8]
   21fd2:	941d      	str	r4, [sp, #116]	@ 0x74
   21fd4:	951e      	str	r5, [sp, #120]	@ 0x78
   21fd6:	4812      	ldr	r0, [pc, #72]	@ (22020 <_ZN20complex_full_dynamic3app17h7feab207cc38593eE+0xac>)
   21fd8:	2400      	movs	r4, #0
   21fda:	4629      	mov	r1, r5
   21fdc:	462a      	mov	r2, r5
   21fde:	4623      	mov	r3, r4
   21fe0:	df02      	svc	2
   21fe2:	287f      	cmp	r0, #127	@ 0x7f
   21fe4:	d80b      	bhi.n	21ffe <_ZN20complex_full_dynamic3app17h7feab207cc38593eE+0x8a>
   21fe6:	9d03      	ldr	r5, [sp, #12]
   21fe8:	6069      	str	r1, [r5, #4]
   21fea:	2401      	movs	r4, #1
   21fec:	702c      	strb	r4, [r5, #0]
   21fee:	a81d      	add	r0, sp, #116	@ 0x74
   21ff0:	f004 ff92 	bl	26f18 <_ZN9allow_pin12full_dynamic17unshare_if_shared17hc1e7d593d40bae1cE>
   21ff4:	a804      	add	r0, sp, #16
   21ff6:	f004 ff8f 	bl	26f18 <_ZN9allow_pin12full_dynamic17unshare_if_shared17hc1e7d593d40bae1cE>
   21ffa:	b025      	add	sp, #148	@ 0x94
   21ffc:	bdf0      	pop	{r4, r5, r6, r7, pc}
   21ffe:	a804      	add	r0, sp, #16
   22000:	f004 ff8a 	bl	26f18 <_ZN9allow_pin12full_dynamic17unshare_if_shared17hc1e7d593d40bae1cE>
   22004:	ad1d      	add	r5, sp, #116	@ 0x74
   22006:	4628      	mov	r0, r5
   22008:	f004 ff86 	bl	26f18 <_ZN9allow_pin12full_dynamic17unshare_if_shared17hc1e7d593d40bae1cE>
   2200c:	4628      	mov	r0, r5
   2200e:	f004 ff83 	bl	26f18 <_ZN9allow_pin12full_dynamic17unshare_if_shared17hc1e7d593d40bae1cE>
   22012:	9d03      	ldr	r5, [sp, #12]
   22014:	1c68      	adds	r0, r5, #1
   22016:	2211      	movs	r2, #17
   22018:	4631      	mov	r1, r6
   2201a:	f005 f93e 	bl	2729a <__aeabi_memcpy>
   2201e:	e7e5      	b.n	21fec <_ZN20complex_full_dynamic3app17h7feab207cc38593eE+0x78>
   22020:	00000c89 	.word	0x00000c89

00022024 <_ZN20complex_full_dynamic3app17h7ff56a9957702ef8E>:
   22024:	b5f0      	push	{r4, r5, r6, r7, lr}
   22026:	af03      	add	r7, sp, #12
   22028:	b097      	sub	sp, #92	@ 0x5c
   2202a:	9001      	str	r0, [sp, #4]
   2202c:	ae02      	add	r6, sp, #8
   2202e:	2502      	movs	r5, #2
   22030:	7235      	strb	r5, [r6, #8]
   22032:	360c      	adds	r6, #12
   22034:	222b      	movs	r2, #43	@ 0x2b
   22036:	9200      	str	r2, [sp, #0]
   22038:	4630      	mov	r0, r6
   2203a:	f005 f92e 	bl	2729a <__aeabi_memcpy>
   2203e:	ac10      	add	r4, sp, #64	@ 0x40
   22040:	2000      	movs	r0, #0
   22042:	7620      	strb	r0, [r4, #24]
   22044:	7225      	strb	r5, [r4, #8]
   22046:	9015      	str	r0, [sp, #84]	@ 0x54
   22048:	9014      	str	r0, [sp, #80]	@ 0x50
   2204a:	9013      	str	r0, [sp, #76]	@ 0x4c
   2204c:	4820      	ldr	r0, [pc, #128]	@ (220d0 <_ZN20complex_full_dynamic3app17h7ff56a9957702ef8E+0xac>)
   2204e:	2506      	movs	r5, #6
   22050:	4629      	mov	r1, r5
   22052:	4632      	mov	r2, r6
   22054:	9b00      	ldr	r3, [sp, #0]
   22056:	df04      	svc	4
   22058:	2802      	cmp	r0, #2
   2205a:	d01a      	beq.n	22092 <_ZN20complex_full_dynamic3app17h7ff56a9957702ef8E+0x6e>
   2205c:	340c      	adds	r4, #12
   2205e:	a802      	add	r0, sp, #8
   22060:	2104      	movs	r1, #4
   22062:	7201      	strb	r1, [r0, #8]
   22064:	9503      	str	r5, [sp, #12]
   22066:	4d1a      	ldr	r5, [pc, #104]	@ (220d0 <_ZN20complex_full_dynamic3app17h7ff56a9957702ef8E+0xac>)
   22068:	9502      	str	r5, [sp, #8]
   2206a:	2600      	movs	r6, #0
   2206c:	230d      	movs	r3, #13
   2206e:	4628      	mov	r0, r5
   22070:	4631      	mov	r1, r6
   22072:	4622      	mov	r2, r4
   22074:	df03      	svc	3
   22076:	2802      	cmp	r0, #2
   22078:	d00b      	beq.n	22092 <_ZN20complex_full_dynamic3app17h7ff56a9957702ef8E+0x6e>
   2207a:	a810      	add	r0, sp, #64	@ 0x40
   2207c:	2103      	movs	r1, #3
   2207e:	7201      	strb	r1, [r0, #8]
   22080:	9510      	str	r5, [sp, #64]	@ 0x40
   22082:	9611      	str	r6, [sp, #68]	@ 0x44
   22084:	4812      	ldr	r0, [pc, #72]	@ (220d0 <_ZN20complex_full_dynamic3app17h7ff56a9957702ef8E+0xac>)
   22086:	2106      	movs	r1, #6
   22088:	4632      	mov	r2, r6
   2208a:	4633      	mov	r3, r6
   2208c:	df02      	svc	2
   2208e:	287f      	cmp	r0, #127	@ 0x7f
   22090:	d80b      	bhi.n	220aa <_ZN20complex_full_dynamic3app17h7ff56a9957702ef8E+0x86>
   22092:	9c01      	ldr	r4, [sp, #4]
   22094:	6061      	str	r1, [r4, #4]
   22096:	2601      	movs	r6, #1
   22098:	7026      	strb	r6, [r4, #0]
   2209a:	a810      	add	r0, sp, #64	@ 0x40
   2209c:	f004 ff3c 	bl	26f18 <_ZN9allow_pin12full_dynamic17unshare_if_shared17hc1e7d593d40bae1cE>
   220a0:	a802      	add	r0, sp, #8
   220a2:	f004 ff39 	bl	26f18 <_ZN9allow_pin12full_dynamic17unshare_if_shared17hc1e7d593d40bae1cE>
   220a6:	b017      	add	sp, #92	@ 0x5c
   220a8:	bdf0      	pop	{r4, r5, r6, r7, pc}
   220aa:	a802      	add	r0, sp, #8
   220ac:	f004 ff34 	bl	26f18 <_ZN9allow_pin12full_dynamic17unshare_if_shared17hc1e7d593d40bae1cE>
   220b0:	4625      	mov	r5, r4
   220b2:	ac10      	add	r4, sp, #64	@ 0x40
   220b4:	4620      	mov	r0, r4
   220b6:	f004 ff2f 	bl	26f18 <_ZN9allow_pin12full_dynamic17unshare_if_shared17hc1e7d593d40bae1cE>
   220ba:	4620      	mov	r0, r4
   220bc:	f004 ff2c 	bl	26f18 <_ZN9allow_pin12full_dynamic17unshare_if_shared17hc1e7d593d40bae1cE>
   220c0:	9c01      	ldr	r4, [sp, #4]
   220c2:	1c60      	adds	r0, r4, #1
   220c4:	220d      	movs	r2, #13
   220c6:	4629      	mov	r1, r5
   220c8:	f005 f8e7 	bl	2729a <__aeabi_memcpy>
   220cc:	e7e4      	b.n	22098 <_ZN20complex_full_dynamic3app17h7ff56a9957702ef8E+0x74>
   220ce:	46c0      	nop			@ (mov r8, r8)
   220d0:	00001465 	.word	0x00001465

000220d4 <_ZN20complex_full_dynamic3app17h82057d507b32e205E>:
   220d4:	b5f0      	push	{r4, r5, r6, r7, lr}
   220d6:	af03      	add	r7, sp, #12
   220d8:	b0b3      	sub	sp, #204	@ 0xcc
   220da:	9003      	str	r0, [sp, #12]
   220dc:	ac04      	add	r4, sp, #16
   220de:	2602      	movs	r6, #2
   220e0:	7226      	strb	r6, [r4, #8]
   220e2:	340c      	adds	r4, #12
   220e4:	2251      	movs	r2, #81	@ 0x51
   220e6:	9202      	str	r2, [sp, #8]
   220e8:	4620      	mov	r0, r4
   220ea:	f005 f8d6 	bl	2729a <__aeabi_memcpy>
   220ee:	ad1c      	add	r5, sp, #112	@ 0x70
   220f0:	4628      	mov	r0, r5
   220f2:	300c      	adds	r0, #12
   220f4:	214f      	movs	r1, #79	@ 0x4f
   220f6:	9001      	str	r0, [sp, #4]
   220f8:	f004 ff22 	bl	26f40 <__aeabi_memclr4>
   220fc:	722e      	strb	r6, [r5, #8]
   220fe:	4635      	mov	r5, r6
   22100:	4e1f      	ldr	r6, [pc, #124]	@ (22180 <_ZN20complex_full_dynamic3app17h82057d507b32e205E+0xac>)
   22102:	4630      	mov	r0, r6
   22104:	4629      	mov	r1, r5
   22106:	4622      	mov	r2, r4
   22108:	9b02      	ldr	r3, [sp, #8]
   2210a:	df04      	svc	4
   2210c:	2802      	cmp	r0, #2
   2210e:	d019      	beq.n	22144 <_ZN20complex_full_dynamic3app17h82057d507b32e205E+0x70>
   22110:	a804      	add	r0, sp, #16
   22112:	2404      	movs	r4, #4
   22114:	7204      	strb	r4, [r0, #8]
   22116:	9505      	str	r5, [sp, #20]
   22118:	9604      	str	r6, [sp, #16]
   2211a:	234f      	movs	r3, #79	@ 0x4f
   2211c:	4630      	mov	r0, r6
   2211e:	4621      	mov	r1, r4
   22120:	9d01      	ldr	r5, [sp, #4]
   22122:	462a      	mov	r2, r5
   22124:	df03      	svc	3
   22126:	2802      	cmp	r0, #2
   22128:	d00c      	beq.n	22144 <_ZN20complex_full_dynamic3app17h82057d507b32e205E+0x70>
   2212a:	a81c      	add	r0, sp, #112	@ 0x70
   2212c:	2103      	movs	r1, #3
   2212e:	7201      	strb	r1, [r0, #8]
   22130:	961c      	str	r6, [sp, #112]	@ 0x70
   22132:	941d      	str	r4, [sp, #116]	@ 0x74
   22134:	4812      	ldr	r0, [pc, #72]	@ (22180 <_ZN20complex_full_dynamic3app17h82057d507b32e205E+0xac>)
   22136:	2102      	movs	r1, #2
   22138:	2600      	movs	r6, #0
   2213a:	4622      	mov	r2, r4
   2213c:	4633      	mov	r3, r6
   2213e:	df02      	svc	2
   22140:	287f      	cmp	r0, #127	@ 0x7f
   22142:	d80b      	bhi.n	2215c <_ZN20complex_full_dynamic3app17h82057d507b32e205E+0x88>
   22144:	9c03      	ldr	r4, [sp, #12]
   22146:	6061      	str	r1, [r4, #4]
   22148:	2601      	movs	r6, #1
   2214a:	7026      	strb	r6, [r4, #0]
   2214c:	a81c      	add	r0, sp, #112	@ 0x70
   2214e:	f004 fee3 	bl	26f18 <_ZN9allow_pin12full_dynamic17unshare_if_shared17hc1e7d593d40bae1cE>
   22152:	a804      	add	r0, sp, #16
   22154:	f004 fee0 	bl	26f18 <_ZN9allow_pin12full_dynamic17unshare_if_shared17hc1e7d593d40bae1cE>
   22158:	b033      	add	sp, #204	@ 0xcc
   2215a:	bdf0      	pop	{r4, r5, r6, r7, pc}
   2215c:	a804      	add	r0, sp, #16
   2215e:	f004 fedb 	bl	26f18 <_ZN9allow_pin12full_dynamic17unshare_if_shared17hc1e7d593d40bae1cE>
   22162:	ac1c      	add	r4, sp, #112	@ 0x70
   22164:	4620      	mov	r0, r4
   22166:	f004 fed7 	bl	26f18 <_ZN9allow_pin12full_dynamic17unshare_if_shared17hc1e7d593d40bae1cE>
   2216a:	4620      	mov	r0, r4
   2216c:	f004 fed4 	bl	26f18 <_ZN9allow_pin12full_dynamic17unshare_if_shared17hc1e7d593d40bae1cE>
   22170:	9c03      	ldr	r4, [sp, #12]
   22172:	1c60      	adds	r0, r4, #1
   22174:	224f      	movs	r2, #79	@ 0x4f
   22176:	4629      	mov	r1, r5
   22178:	f005 f88f 	bl	2729a <__aeabi_memcpy>
   2217c:	e7e5      	b.n	2214a <_ZN20complex_full_dynamic3app17h82057d507b32e205E+0x76>
   2217e:	46c0      	nop			@ (mov r8, r8)
   22180:	00000e16 	.word	0x00000e16

00022184 <_ZN20complex_full_dynamic3app17h8349c988e1320116E>:
   22184:	b5f0      	push	{r4, r5, r6, r7, lr}
   22186:	af03      	add	r7, sp, #12
   22188:	b09d      	sub	sp, #116	@ 0x74
   2218a:	9002      	str	r0, [sp, #8]
   2218c:	ae03      	add	r6, sp, #12
   2218e:	2002      	movs	r0, #2
   22190:	9001      	str	r0, [sp, #4]
   22192:	7230      	strb	r0, [r6, #8]
   22194:	360c      	adds	r6, #12
   22196:	2218      	movs	r2, #24
   22198:	9200      	str	r2, [sp, #0]
   2219a:	4630      	mov	r0, r6
   2219c:	f005 f87d 	bl	2729a <__aeabi_memcpy>
   221a0:	ad0c      	add	r5, sp, #48	@ 0x30
   221a2:	462c      	mov	r4, r5
   221a4:	340c      	adds	r4, #12
   221a6:	2136      	movs	r1, #54	@ 0x36
   221a8:	4620      	mov	r0, r4
   221aa:	f004 fec9 	bl	26f40 <__aeabi_memclr4>
   221ae:	9801      	ldr	r0, [sp, #4]
   221b0:	7228      	strb	r0, [r5, #8]
   221b2:	20f3      	movs	r0, #243	@ 0xf3
   221b4:	2508      	movs	r5, #8
   221b6:	9001      	str	r0, [sp, #4]
   221b8:	4629      	mov	r1, r5
   221ba:	4632      	mov	r2, r6
   221bc:	9b00      	ldr	r3, [sp, #0]
   221be:	df04      	svc	4
   221c0:	2802      	cmp	r0, #2
   221c2:	d018      	beq.n	221f6 <_ZN20complex_full_dynamic3app17h8349c988e1320116E+0x72>
   221c4:	a803      	add	r0, sp, #12
   221c6:	2604      	movs	r6, #4
   221c8:	7206      	strb	r6, [r0, #8]
   221ca:	9504      	str	r5, [sp, #16]
   221cc:	9801      	ldr	r0, [sp, #4]
   221ce:	9003      	str	r0, [sp, #12]
   221d0:	2336      	movs	r3, #54	@ 0x36
   221d2:	4631      	mov	r1, r6
   221d4:	4622      	mov	r2, r4
   221d6:	df03      	svc	3
   221d8:	2802      	cmp	r0, #2
   221da:	d00c      	beq.n	221f6 <_ZN20complex_full_dynamic3app17h8349c988e1320116E+0x72>
   221dc:	a80c      	add	r0, sp, #48	@ 0x30
   221de:	2103      	movs	r1, #3
   221e0:	7201      	strb	r1, [r0, #8]
   221e2:	960d      	str	r6, [sp, #52]	@ 0x34
   221e4:	9801      	ldr	r0, [sp, #4]
   221e6:	900c      	str	r0, [sp, #48]	@ 0x30
   221e8:	2108      	movs	r1, #8
   221ea:	2300      	movs	r3, #0
   221ec:	4632      	mov	r2, r6
   221ee:	461e      	mov	r6, r3
   221f0:	df02      	svc	2
   221f2:	287f      	cmp	r0, #127	@ 0x7f
   221f4:	d80b      	bhi.n	2220e <_ZN20complex_full_dynamic3app17h8349c988e1320116E+0x8a>
   221f6:	9c02      	ldr	r4, [sp, #8]
   221f8:	6061      	str	r1, [r4, #4]
   221fa:	2601      	movs	r6, #1
   221fc:	7026      	strb	r6, [r4, #0]
   221fe:	a80c      	add	r0, sp, #48	@ 0x30
   22200:	f004 fe8a 	bl	26f18 <_ZN9allow_pin12full_dynamic17unshare_if_shared17hc1e7d593d40bae1cE>
   22204:	a803      	add	r0, sp, #12
   22206:	f004 fe87 	bl	26f18 <_ZN9allow_pin12full_dynamic17unshare_if_shared17hc1e7d593d40bae1cE>
   2220a:	b01d      	add	sp, #116	@ 0x74
   2220c:	bdf0      	pop	{r4, r5, r6, r7, pc}
   2220e:	4625      	mov	r5, r4
   22210:	a803      	add	r0, sp, #12
   22212:	f004 fe81 	bl	26f18 <_ZN9allow_pin12full_dynamic17unshare_if_shared17hc1e7d593d40bae1cE>
   22216:	ac0c      	add	r4, sp, #48	@ 0x30
   22218:	4620      	mov	r0, r4
   2221a:	f004 fe7d 	bl	26f18 <_ZN9allow_pin12full_dynamic17unshare_if_shared17hc1e7d593d40bae1cE>
   2221e:	4620      	mov	r0, r4
   22220:	f004 fe7a 	bl	26f18 <_ZN9allow_pin12full_dynamic17unshare_if_shared17hc1e7d593d40bae1cE>
   22224:	9c02      	ldr	r4, [sp, #8]
   22226:	1c60      	adds	r0, r4, #1
   22228:	2236      	movs	r2, #54	@ 0x36
   2222a:	4629      	mov	r1, r5
   2222c:	f005 f835 	bl	2729a <__aeabi_memcpy>
   22230:	e7e4      	b.n	221fc <_ZN20complex_full_dynamic3app17h8349c988e1320116E+0x78>
   22232:	d4d4      	bmi.n	221de <_ZN20complex_full_dynamic3app17h8349c988e1320116E+0x5a>

00022234 <_ZN20complex_full_dynamic3app17h83d8a691f5913272E>:
   22234:	b5f0      	push	{r4, r5, r6, r7, lr}
   22236:	af03      	add	r7, sp, #12
   22238:	b0a3      	sub	sp, #140	@ 0x8c
   2223a:	9003      	str	r0, [sp, #12]
   2223c:	ac04      	add	r4, sp, #16
   2223e:	2602      	movs	r6, #2
   22240:	7226      	strb	r6, [r4, #8]
   22242:	340c      	adds	r4, #12
   22244:	2234      	movs	r2, #52	@ 0x34
   22246:	9202      	str	r2, [sp, #8]
   22248:	4620      	mov	r0, r4
   2224a:	f005 f826 	bl	2729a <__aeabi_memcpy>
   2224e:	ad14      	add	r5, sp, #80	@ 0x50
   22250:	4628      	mov	r0, r5
   22252:	300c      	adds	r0, #12
   22254:	212e      	movs	r1, #46	@ 0x2e
   22256:	9001      	str	r0, [sp, #4]
   22258:	f004 fe72 	bl	26f40 <__aeabi_memclr4>
   2225c:	722e      	strb	r6, [r5, #8]
   2225e:	4635      	mov	r5, r6
   22260:	4e1f      	ldr	r6, [pc, #124]	@ (222e0 <_ZN20complex_full_dynamic3app17h83d8a691f5913272E+0xac>)
   22262:	4630      	mov	r0, r6
   22264:	4629      	mov	r1, r5
   22266:	4622      	mov	r2, r4
   22268:	9b02      	ldr	r3, [sp, #8]
   2226a:	df04      	svc	4
   2226c:	2802      	cmp	r0, #2
   2226e:	d01a      	beq.n	222a6 <_ZN20complex_full_dynamic3app17h83d8a691f5913272E+0x72>
   22270:	a804      	add	r0, sp, #16
   22272:	2104      	movs	r1, #4
   22274:	7201      	strb	r1, [r0, #8]
   22276:	9505      	str	r5, [sp, #20]
   22278:	9604      	str	r6, [sp, #16]
   2227a:	2408      	movs	r4, #8
   2227c:	232e      	movs	r3, #46	@ 0x2e
   2227e:	4630      	mov	r0, r6
   22280:	4621      	mov	r1, r4
   22282:	9d01      	ldr	r5, [sp, #4]
   22284:	462a      	mov	r2, r5
   22286:	df03      	svc	3
   22288:	2802      	cmp	r0, #2
   2228a:	d00c      	beq.n	222a6 <_ZN20complex_full_dynamic3app17h83d8a691f5913272E+0x72>
   2228c:	a814      	add	r0, sp, #80	@ 0x50
   2228e:	2103      	movs	r1, #3
   22290:	7201      	strb	r1, [r0, #8]
   22292:	9614      	str	r6, [sp, #80]	@ 0x50
   22294:	9415      	str	r4, [sp, #84]	@ 0x54
   22296:	4812      	ldr	r0, [pc, #72]	@ (222e0 <_ZN20complex_full_dynamic3app17h83d8a691f5913272E+0xac>)
   22298:	2102      	movs	r1, #2
   2229a:	2600      	movs	r6, #0
   2229c:	4622      	mov	r2, r4
   2229e:	4633      	mov	r3, r6
   222a0:	df02      	svc	2
   222a2:	287f      	cmp	r0, #127	@ 0x7f
   222a4:	d80b      	bhi.n	222be <_ZN20complex_full_dynamic3app17h83d8a691f5913272E+0x8a>
   222a6:	9c03      	ldr	r4, [sp, #12]
   222a8:	6061      	str	r1, [r4, #4]
   222aa:	2601      	movs	r6, #1
   222ac:	7026      	strb	r6, [r4, #0]
   222ae:	a814      	add	r0, sp, #80	@ 0x50
   222b0:	f004 fe32 	bl	26f18 <_ZN9allow_pin12full_dynamic17unshare_if_shared17hc1e7d593d40bae1cE>
   222b4:	a804      	add	r0, sp, #16
   222b6:	f004 fe2f 	bl	26f18 <_ZN9allow_pin12full_dynamic17unshare_if_shared17hc1e7d593d40bae1cE>
   222ba:	b023      	add	sp, #140	@ 0x8c
   222bc:	bdf0      	pop	{r4, r5, r6, r7, pc}
   222be:	a804      	add	r0, sp, #16
   222c0:	f004 fe2a 	bl	26f18 <_ZN9allow_pin12full_dynamic17unshare_if_shared17hc1e7d593d40bae1cE>
   222c4:	ac14      	add	r4, sp, #80	@ 0x50
   222c6:	4620      	mov	r0, r4
   222c8:	f004 fe26 	bl	26f18 <_ZN9allow_pin12full_dynamic17unshare_if_shared17hc1e7d593d40bae1cE>
   222cc:	4620      	mov	r0, r4
   222ce:	f004 fe23 	bl	26f18 <_ZN9allow_pin12full_dynamic17unshare_if_shared17hc1e7d593d40bae1cE>
   222d2:	9c03      	ldr	r4, [sp, #12]
   222d4:	1c60      	adds	r0, r4, #1
   222d6:	222e      	movs	r2, #46	@ 0x2e
   222d8:	4629      	mov	r1, r5
   222da:	f004 ffde 	bl	2729a <__aeabi_memcpy>
   222de:	e7e5      	b.n	222ac <_ZN20complex_full_dynamic3app17h83d8a691f5913272E+0x78>
   222e0:	00000209 	.word	0x00000209

000222e4 <_ZN20complex_full_dynamic3app17h8493caf3e5bd6c6cE>:
   222e4:	b5f0      	push	{r4, r5, r6, r7, lr}
   222e6:	af03      	add	r7, sp, #12
   222e8:	b0a7      	sub	sp, #156	@ 0x9c
   222ea:	9002      	str	r0, [sp, #8]
   222ec:	ac03      	add	r4, sp, #12
   222ee:	2002      	movs	r0, #2
   222f0:	9001      	str	r0, [sp, #4]
   222f2:	7220      	strb	r0, [r4, #8]
   222f4:	340c      	adds	r4, #12
   222f6:	2235      	movs	r2, #53	@ 0x35
   222f8:	9200      	str	r2, [sp, #0]
   222fa:	4620      	mov	r0, r4
   222fc:	f004 ffcd 	bl	2729a <__aeabi_memcpy>
   22300:	ae14      	add	r6, sp, #80	@ 0x50
   22302:	4635      	mov	r5, r6
   22304:	350c      	adds	r5, #12
   22306:	213f      	movs	r1, #63	@ 0x3f
   22308:	4628      	mov	r0, r5
   2230a:	f004 fe19 	bl	26f40 <__aeabi_memclr4>
   2230e:	9801      	ldr	r0, [sp, #4]
   22310:	7230      	strb	r0, [r6, #8]
   22312:	481f      	ldr	r0, [pc, #124]	@ (22390 <_ZN20complex_full_dynamic3app17h8493caf3e5bd6c6cE+0xac>)
   22314:	2600      	movs	r6, #0
   22316:	4631      	mov	r1, r6
   22318:	4622      	mov	r2, r4
   2231a:	9b00      	ldr	r3, [sp, #0]
   2231c:	df04      	svc	4
   2231e:	2802      	cmp	r0, #2
   22320:	d019      	beq.n	22356 <_ZN20complex_full_dynamic3app17h8493caf3e5bd6c6cE+0x72>
   22322:	a803      	add	r0, sp, #12
   22324:	2104      	movs	r1, #4
   22326:	7201      	strb	r1, [r0, #8]
   22328:	9604      	str	r6, [sp, #16]
   2232a:	4e19      	ldr	r6, [pc, #100]	@ (22390 <_ZN20complex_full_dynamic3app17h8493caf3e5bd6c6cE+0xac>)
   2232c:	9603      	str	r6, [sp, #12]
   2232e:	2403      	movs	r4, #3
   22330:	233f      	movs	r3, #63	@ 0x3f
   22332:	4630      	mov	r0, r6
   22334:	4621      	mov	r1, r4
   22336:	462a      	mov	r2, r5
   22338:	df03      	svc	3
   2233a:	2802      	cmp	r0, #2
   2233c:	d00b      	beq.n	22356 <_ZN20complex_full_dynamic3app17h8493caf3e5bd6c6cE+0x72>
   2233e:	a814      	add	r0, sp, #80	@ 0x50
   22340:	7204      	strb	r4, [r0, #8]
   22342:	9415      	str	r4, [sp, #84]	@ 0x54
   22344:	9614      	str	r6, [sp, #80]	@ 0x50
   22346:	4812      	ldr	r0, [pc, #72]	@ (22390 <_ZN20complex_full_dynamic3app17h8493caf3e5bd6c6cE+0xac>)
   22348:	2600      	movs	r6, #0
   2234a:	4631      	mov	r1, r6
   2234c:	4622      	mov	r2, r4
   2234e:	4633      	mov	r3, r6
   22350:	df02      	svc	2
   22352:	287f      	cmp	r0, #127	@ 0x7f
   22354:	d80b      	bhi.n	2236e <_ZN20complex_full_dynamic3app17h8493caf3e5bd6c6cE+0x8a>
   22356:	9c02      	ldr	r4, [sp, #8]
   22358:	6061      	str	r1, [r4, #4]
   2235a:	2601      	movs	r6, #1
   2235c:	7026      	strb	r6, [r4, #0]
   2235e:	a814      	add	r0, sp, #80	@ 0x50
   22360:	f004 fdda 	bl	26f18 <_ZN9allow_pin12full_dynamic17unshare_if_shared17hc1e7d593d40bae1cE>
   22364:	a803      	add	r0, sp, #12
   22366:	f004 fdd7 	bl	26f18 <_ZN9allow_pin12full_dynamic17unshare_if_shared17hc1e7d593d40bae1cE>
   2236a:	b027      	add	sp, #156	@ 0x9c
   2236c:	bdf0      	pop	{r4, r5, r6, r7, pc}
   2236e:	a803      	add	r0, sp, #12
   22370:	f004 fdd2 	bl	26f18 <_ZN9allow_pin12full_dynamic17unshare_if_shared17hc1e7d593d40bae1cE>
   22374:	ac14      	add	r4, sp, #80	@ 0x50
   22376:	4620      	mov	r0, r4
   22378:	f004 fdce 	bl	26f18 <_ZN9allow_pin12full_dynamic17unshare_if_shared17hc1e7d593d40bae1cE>
   2237c:	4620      	mov	r0, r4
   2237e:	f004 fdcb 	bl	26f18 <_ZN9allow_pin12full_dynamic17unshare_if_shared17hc1e7d593d40bae1cE>
   22382:	9c02      	ldr	r4, [sp, #8]
   22384:	1c60      	adds	r0, r4, #1
   22386:	223f      	movs	r2, #63	@ 0x3f
   22388:	4629      	mov	r1, r5
   2238a:	f004 ff86 	bl	2729a <__aeabi_memcpy>
   2238e:	e7e5      	b.n	2235c <_ZN20complex_full_dynamic3app17h8493caf3e5bd6c6cE+0x78>
   22390:	00000e57 	.word	0x00000e57

00022394 <_ZN20complex_full_dynamic3app17h84c8ec6ec36f002fE>:
   22394:	b5f0      	push	{r4, r5, r6, r7, lr}
   22396:	af03      	add	r7, sp, #12
   22398:	b09f      	sub	sp, #124	@ 0x7c
   2239a:	9003      	str	r0, [sp, #12]
   2239c:	ac04      	add	r4, sp, #16
   2239e:	2002      	movs	r0, #2
   223a0:	9002      	str	r0, [sp, #8]
   223a2:	7220      	strb	r0, [r4, #8]
   223a4:	340c      	adds	r4, #12
   223a6:	2225      	movs	r2, #37	@ 0x25
   223a8:	9201      	str	r2, [sp, #4]
   223aa:	4620      	mov	r0, r4
   223ac:	f004 ff75 	bl	2729a <__aeabi_memcpy>
   223b0:	ae11      	add	r6, sp, #68	@ 0x44
   223b2:	4635      	mov	r5, r6
   223b4:	350c      	adds	r5, #12
   223b6:	212a      	movs	r1, #42	@ 0x2a
   223b8:	4628      	mov	r0, r5
   223ba:	f004 fdc1 	bl	26f40 <__aeabi_memclr4>
   223be:	9802      	ldr	r0, [sp, #8]
   223c0:	7230      	strb	r0, [r6, #8]
   223c2:	481f      	ldr	r0, [pc, #124]	@ (22440 <_ZN20complex_full_dynamic3app17h84c8ec6ec36f002fE+0xac>)
   223c4:	2600      	movs	r6, #0
   223c6:	4631      	mov	r1, r6
   223c8:	4622      	mov	r2, r4
   223ca:	9b01      	ldr	r3, [sp, #4]
   223cc:	df04      	svc	4
   223ce:	2802      	cmp	r0, #2
   223d0:	d019      	beq.n	22406 <_ZN20complex_full_dynamic3app17h84c8ec6ec36f002fE+0x72>
   223d2:	a804      	add	r0, sp, #16
   223d4:	2104      	movs	r1, #4
   223d6:	7201      	strb	r1, [r0, #8]
   223d8:	9605      	str	r6, [sp, #20]
   223da:	4e19      	ldr	r6, [pc, #100]	@ (22440 <_ZN20complex_full_dynamic3app17h84c8ec6ec36f002fE+0xac>)
   223dc:	9604      	str	r6, [sp, #16]
   223de:	2403      	movs	r4, #3
   223e0:	232a      	movs	r3, #42	@ 0x2a
   223e2:	4630      	mov	r0, r6
   223e4:	4621      	mov	r1, r4
   223e6:	462a      	mov	r2, r5
   223e8:	df03      	svc	3
   223ea:	2802      	cmp	r0, #2
   223ec:	d00b      	beq.n	22406 <_ZN20complex_full_dynamic3app17h84c8ec6ec36f002fE+0x72>
   223ee:	a811      	add	r0, sp, #68	@ 0x44
   223f0:	7204      	strb	r4, [r0, #8]
   223f2:	9412      	str	r4, [sp, #72]	@ 0x48
   223f4:	9611      	str	r6, [sp, #68]	@ 0x44
   223f6:	4812      	ldr	r0, [pc, #72]	@ (22440 <_ZN20complex_full_dynamic3app17h84c8ec6ec36f002fE+0xac>)
   223f8:	2600      	movs	r6, #0
   223fa:	4631      	mov	r1, r6
   223fc:	4622      	mov	r2, r4
   223fe:	4633      	mov	r3, r6
   22400:	df02      	svc	2
   22402:	287f      	cmp	r0, #127	@ 0x7f
   22404:	d80b      	bhi.n	2241e <_ZN20complex_full_dynamic3app17h84c8ec6ec36f002fE+0x8a>
   22406:	9c03      	ldr	r4, [sp, #12]
   22408:	6061      	str	r1, [r4, #4]
   2240a:	2601      	movs	r6, #1
   2240c:	7026      	strb	r6, [r4, #0]
   2240e:	a811      	add	r0, sp, #68	@ 0x44
   22410:	f004 fd82 	bl	26f18 <_ZN9allow_pin12full_dynamic17unshare_if_shared17hc1e7d593d40bae1cE>
   22414:	a804      	add	r0, sp, #16
   22416:	f004 fd7f 	bl	26f18 <_ZN9allow_pin12full_dynamic17unshare_if_shared17hc1e7d593d40bae1cE>
   2241a:	b01f      	add	sp, #124	@ 0x7c
   2241c:	bdf0      	pop	{r4, r5, r6, r7, pc}
   2241e:	a804      	add	r0, sp, #16
   22420:	f004 fd7a 	bl	26f18 <_ZN9allow_pin12full_dynamic17unshare_if_shared17hc1e7d593d40bae1cE>
   22424:	ac11      	add	r4, sp, #68	@ 0x44
   22426:	4620      	mov	r0, r4
   22428:	f004 fd76 	bl	26f18 <_ZN9allow_pin12full_dynamic17unshare_if_shared17hc1e7d593d40bae1cE>
   2242c:	4620      	mov	r0, r4
   2242e:	f004 fd73 	bl	26f18 <_ZN9allow_pin12full_dynamic17unshare_if_shared17hc1e7d593d40bae1cE>
   22432:	9c03      	ldr	r4, [sp, #12]
   22434:	1c60      	adds	r0, r4, #1
   22436:	222a      	movs	r2, #42	@ 0x2a
   22438:	4629      	mov	r1, r5
   2243a:	f004 ff2e 	bl	2729a <__aeabi_memcpy>
   2243e:	e7e5      	b.n	2240c <_ZN20complex_full_dynamic3app17h84c8ec6ec36f002fE+0x78>
   22440:	0000093c 	.word	0x0000093c

00022444 <_ZN20complex_full_dynamic3app17h84dcf915e103400fE>:
   22444:	b5f0      	push	{r4, r5, r6, r7, lr}
   22446:	af03      	add	r7, sp, #12
   22448:	b0a7      	sub	sp, #156	@ 0x9c
   2244a:	9002      	str	r0, [sp, #8]
   2244c:	ac03      	add	r4, sp, #12
   2244e:	2602      	movs	r6, #2
   22450:	7226      	strb	r6, [r4, #8]
   22452:	340c      	adds	r4, #12
   22454:	2221      	movs	r2, #33	@ 0x21
   22456:	9201      	str	r2, [sp, #4]
   22458:	4620      	mov	r0, r4
   2245a:	f004 ff1e 	bl	2729a <__aeabi_memcpy>
   2245e:	ad0f      	add	r5, sp, #60	@ 0x3c
   22460:	4628      	mov	r0, r5
   22462:	300c      	adds	r0, #12
   22464:	2153      	movs	r1, #83	@ 0x53
   22466:	9000      	str	r0, [sp, #0]
   22468:	f004 fd6a 	bl	26f40 <__aeabi_memclr4>
   2246c:	722e      	strb	r6, [r5, #8]
   2246e:	4635      	mov	r5, r6
   22470:	4e1f      	ldr	r6, [pc, #124]	@ (224f0 <_ZN20complex_full_dynamic3app17h84dcf915e103400fE+0xac>)
   22472:	4630      	mov	r0, r6
   22474:	4629      	mov	r1, r5
   22476:	4622      	mov	r2, r4
   22478:	9b01      	ldr	r3, [sp, #4]
   2247a:	df04      	svc	4
   2247c:	2802      	cmp	r0, #2
   2247e:	d01a      	beq.n	224b6 <_ZN20complex_full_dynamic3app17h84dcf915e103400fE+0x72>
   22480:	a803      	add	r0, sp, #12
   22482:	2104      	movs	r1, #4
   22484:	7201      	strb	r1, [r0, #8]
   22486:	9504      	str	r5, [sp, #16]
   22488:	9603      	str	r6, [sp, #12]
   2248a:	2408      	movs	r4, #8
   2248c:	2353      	movs	r3, #83	@ 0x53
   2248e:	4630      	mov	r0, r6
   22490:	4621      	mov	r1, r4
   22492:	9d00      	ldr	r5, [sp, #0]
   22494:	462a      	mov	r2, r5
   22496:	df03      	svc	3
   22498:	2802      	cmp	r0, #2
   2249a:	d00c      	beq.n	224b6 <_ZN20complex_full_dynamic3app17h84dcf915e103400fE+0x72>
   2249c:	a80f      	add	r0, sp, #60	@ 0x3c
   2249e:	2103      	movs	r1, #3
   224a0:	7201      	strb	r1, [r0, #8]
   224a2:	960f      	str	r6, [sp, #60]	@ 0x3c
   224a4:	9410      	str	r4, [sp, #64]	@ 0x40
   224a6:	4812      	ldr	r0, [pc, #72]	@ (224f0 <_ZN20complex_full_dynamic3app17h84dcf915e103400fE+0xac>)
   224a8:	2102      	movs	r1, #2
   224aa:	2600      	movs	r6, #0
   224ac:	4622      	mov	r2, r4
   224ae:	4633      	mov	r3, r6
   224b0:	df02      	svc	2
   224b2:	287f      	cmp	r0, #127	@ 0x7f
   224b4:	d80b      	bhi.n	224ce <_ZN20complex_full_dynamic3app17h84dcf915e103400fE+0x8a>
   224b6:	9c02      	ldr	r4, [sp, #8]
   224b8:	6061      	str	r1, [r4, #4]
   224ba:	2601      	movs	r6, #1
   224bc:	7026      	strb	r6, [r4, #0]
   224be:	a80f      	add	r0, sp, #60	@ 0x3c
   224c0:	f004 fd2a 	bl	26f18 <_ZN9allow_pin12full_dynamic17unshare_if_shared17hc1e7d593d40bae1cE>
   224c4:	a803      	add	r0, sp, #12
   224c6:	f004 fd27 	bl	26f18 <_ZN9allow_pin12full_dynamic17unshare_if_shared17hc1e7d593d40bae1cE>
   224ca:	b027      	add	sp, #156	@ 0x9c
   224cc:	bdf0      	pop	{r4, r5, r6, r7, pc}
   224ce:	a803      	add	r0, sp, #12
   224d0:	f004 fd22 	bl	26f18 <_ZN9allow_pin12full_dynamic17unshare_if_shared17hc1e7d593d40bae1cE>
   224d4:	ac0f      	add	r4, sp, #60	@ 0x3c
   224d6:	4620      	mov	r0, r4
   224d8:	f004 fd1e 	bl	26f18 <_ZN9allow_pin12full_dynamic17unshare_if_shared17hc1e7d593d40bae1cE>
   224dc:	4620      	mov	r0, r4
   224de:	f004 fd1b 	bl	26f18 <_ZN9allow_pin12full_dynamic17unshare_if_shared17hc1e7d593d40bae1cE>
   224e2:	9c02      	ldr	r4, [sp, #8]
   224e4:	1c60      	adds	r0, r4, #1
   224e6:	2253      	movs	r2, #83	@ 0x53
   224e8:	4629      	mov	r1, r5
   224ea:	f004 fed6 	bl	2729a <__aeabi_memcpy>
   224ee:	e7e5      	b.n	224bc <_ZN20complex_full_dynamic3app17h84dcf915e103400fE+0x78>
   224f0:	0000253e 	.word	0x0000253e

000224f4 <_ZN20complex_full_dynamic3app17h87a10a645078f0c9E>:
   224f4:	b5f0      	push	{r4, r5, r6, r7, lr}
   224f6:	af03      	add	r7, sp, #12
   224f8:	b0ad      	sub	sp, #180	@ 0xb4
   224fa:	9002      	str	r0, [sp, #8]
   224fc:	ac03      	add	r4, sp, #12
   224fe:	2002      	movs	r0, #2
   22500:	9001      	str	r0, [sp, #4]
   22502:	7220      	strb	r0, [r4, #8]
   22504:	340c      	adds	r4, #12
   22506:	2253      	movs	r2, #83	@ 0x53
   22508:	9200      	str	r2, [sp, #0]
   2250a:	4620      	mov	r0, r4
   2250c:	f004 fec5 	bl	2729a <__aeabi_memcpy>
   22510:	ae1b      	add	r6, sp, #108	@ 0x6c
   22512:	4635      	mov	r5, r6
   22514:	350c      	adds	r5, #12
   22516:	213a      	movs	r1, #58	@ 0x3a
   22518:	4628      	mov	r0, r5
   2251a:	f004 fd11 	bl	26f40 <__aeabi_memclr4>
   2251e:	9801      	ldr	r0, [sp, #4]
   22520:	7230      	strb	r0, [r6, #8]
   22522:	4820      	ldr	r0, [pc, #128]	@ (225a4 <_ZN20complex_full_dynamic3app17h87a10a645078f0c9E+0xb0>)
   22524:	2606      	movs	r6, #6
   22526:	4631      	mov	r1, r6
   22528:	4622      	mov	r2, r4
   2252a:	9b00      	ldr	r3, [sp, #0]
   2252c:	df04      	svc	4
   2252e:	2802      	cmp	r0, #2
   22530:	d01a      	beq.n	22568 <_ZN20complex_full_dynamic3app17h87a10a645078f0c9E+0x74>
   22532:	a803      	add	r0, sp, #12
   22534:	2104      	movs	r1, #4
   22536:	7201      	strb	r1, [r0, #8]
   22538:	9604      	str	r6, [sp, #16]
   2253a:	4e1a      	ldr	r6, [pc, #104]	@ (225a4 <_ZN20complex_full_dynamic3app17h87a10a645078f0c9E+0xb0>)
   2253c:	9603      	str	r6, [sp, #12]
   2253e:	2407      	movs	r4, #7
   22540:	233a      	movs	r3, #58	@ 0x3a
   22542:	4630      	mov	r0, r6
   22544:	4621      	mov	r1, r4
   22546:	462a      	mov	r2, r5
   22548:	df03      	svc	3
   2254a:	2802      	cmp	r0, #2
   2254c:	d00c      	beq.n	22568 <_ZN20complex_full_dynamic3app17h87a10a645078f0c9E+0x74>
   2254e:	a81b      	add	r0, sp, #108	@ 0x6c
   22550:	2103      	movs	r1, #3
   22552:	7201      	strb	r1, [r0, #8]
   22554:	961b      	str	r6, [sp, #108]	@ 0x6c
   22556:	941c      	str	r4, [sp, #112]	@ 0x70
   22558:	4812      	ldr	r0, [pc, #72]	@ (225a4 <_ZN20complex_full_dynamic3app17h87a10a645078f0c9E+0xb0>)
   2255a:	2106      	movs	r1, #6
   2255c:	2600      	movs	r6, #0
   2255e:	4622      	mov	r2, r4
   22560:	4633      	mov	r3, r6
   22562:	df02      	svc	2
   22564:	287f      	cmp	r0, #127	@ 0x7f
   22566:	d80b      	bhi.n	22580 <_ZN20complex_full_dynamic3app17h87a10a645078f0c9E+0x8c>
   22568:	9c02      	ldr	r4, [sp, #8]
   2256a:	6061      	str	r1, [r4, #4]
   2256c:	2601      	movs	r6, #1
   2256e:	7026      	strb	r6, [r4, #0]
   22570:	a81b      	add	r0, sp, #108	@ 0x6c
   22572:	f004 fcd1 	bl	26f18 <_ZN9allow_pin12full_dynamic17unshare_if_shared17hc1e7d593d40bae1cE>
   22576:	a803      	add	r0, sp, #12
   22578:	f004 fcce 	bl	26f18 <_ZN9allow_pin12full_dynamic17unshare_if_shared17hc1e7d593d40bae1cE>
   2257c:	b02d      	add	sp, #180	@ 0xb4
   2257e:	bdf0      	pop	{r4, r5, r6, r7, pc}
   22580:	a803      	add	r0, sp, #12
   22582:	f004 fcc9 	bl	26f18 <_ZN9allow_pin12full_dynamic17unshare_if_shared17hc1e7d593d40bae1cE>
   22586:	ac1b      	add	r4, sp, #108	@ 0x6c
   22588:	4620      	mov	r0, r4
   2258a:	f004 fcc5 	bl	26f18 <_ZN9allow_pin12full_dynamic17unshare_if_shared17hc1e7d593d40bae1cE>
   2258e:	4620      	mov	r0, r4
   22590:	f004 fcc2 	bl	26f18 <_ZN9allow_pin12full_dynamic17unshare_if_shared17hc1e7d593d40bae1cE>
   22594:	9c02      	ldr	r4, [sp, #8]
   22596:	1c60      	adds	r0, r4, #1
   22598:	223a      	movs	r2, #58	@ 0x3a
   2259a:	4629      	mov	r1, r5
   2259c:	f004 fe7d 	bl	2729a <__aeabi_memcpy>
   225a0:	e7e5      	b.n	2256e <_ZN20complex_full_dynamic3app17h87a10a645078f0c9E+0x7a>
   225a2:	46c0      	nop			@ (mov r8, r8)
   225a4:	00002645 	.word	0x00002645

000225a8 <_ZN20complex_full_dynamic3app17h8c8123f0ad30da9dE>:
   225a8:	b5f0      	push	{r4, r5, r6, r7, lr}
   225aa:	af03      	add	r7, sp, #12
   225ac:	b091      	sub	sp, #68	@ 0x44
   225ae:	9001      	str	r0, [sp, #4]
   225b0:	ae02      	add	r6, sp, #8
   225b2:	2502      	movs	r5, #2
   225b4:	7235      	strb	r5, [r6, #8]
   225b6:	360c      	adds	r6, #12
   225b8:	240f      	movs	r4, #15
   225ba:	4630      	mov	r0, r6
   225bc:	4622      	mov	r2, r4
   225be:	f004 fe6c 	bl	2729a <__aeabi_memcpy>
   225c2:	a909      	add	r1, sp, #36	@ 0x24
   225c4:	9100      	str	r1, [sp, #0]
   225c6:	2000      	movs	r0, #0
   225c8:	7788      	strb	r0, [r1, #30]
   225ca:	8388      	strh	r0, [r1, #28]
   225cc:	720d      	strb	r5, [r1, #8]
   225ce:	900f      	str	r0, [sp, #60]	@ 0x3c
   225d0:	900e      	str	r0, [sp, #56]	@ 0x38
   225d2:	900d      	str	r0, [sp, #52]	@ 0x34
   225d4:	900c      	str	r0, [sp, #48]	@ 0x30
   225d6:	4820      	ldr	r0, [pc, #128]	@ (22658 <_ZN20complex_full_dynamic3app17h8c8123f0ad30da9dE+0xb0>)
   225d8:	2103      	movs	r1, #3
   225da:	460d      	mov	r5, r1
   225dc:	4632      	mov	r2, r6
   225de:	4623      	mov	r3, r4
   225e0:	df04      	svc	4
   225e2:	2802      	cmp	r0, #2
   225e4:	d01a      	beq.n	2261c <_ZN20complex_full_dynamic3app17h8c8123f0ad30da9dE+0x74>
   225e6:	9a00      	ldr	r2, [sp, #0]
   225e8:	320c      	adds	r2, #12
   225ea:	a802      	add	r0, sp, #8
   225ec:	2104      	movs	r1, #4
   225ee:	7201      	strb	r1, [r0, #8]
   225f0:	462c      	mov	r4, r5
   225f2:	9503      	str	r5, [sp, #12]
   225f4:	4818      	ldr	r0, [pc, #96]	@ (22658 <_ZN20complex_full_dynamic3app17h8c8123f0ad30da9dE+0xb0>)
   225f6:	9002      	str	r0, [sp, #8]
   225f8:	2600      	movs	r6, #0
   225fa:	2313      	movs	r3, #19
   225fc:	4631      	mov	r1, r6
   225fe:	4615      	mov	r5, r2
   22600:	df03      	svc	3
   22602:	2802      	cmp	r0, #2
   22604:	d00a      	beq.n	2261c <_ZN20complex_full_dynamic3app17h8c8123f0ad30da9dE+0x74>
   22606:	a809      	add	r0, sp, #36	@ 0x24
   22608:	7204      	strb	r4, [r0, #8]
   2260a:	4813      	ldr	r0, [pc, #76]	@ (22658 <_ZN20complex_full_dynamic3app17h8c8123f0ad30da9dE+0xb0>)
   2260c:	9009      	str	r0, [sp, #36]	@ 0x24
   2260e:	960a      	str	r6, [sp, #40]	@ 0x28
   22610:	4621      	mov	r1, r4
   22612:	4632      	mov	r2, r6
   22614:	4633      	mov	r3, r6
   22616:	df02      	svc	2
   22618:	287f      	cmp	r0, #127	@ 0x7f
   2261a:	d80b      	bhi.n	22634 <_ZN20complex_full_dynamic3app17h8c8123f0ad30da9dE+0x8c>
   2261c:	9c01      	ldr	r4, [sp, #4]
   2261e:	6061      	str	r1, [r4, #4]
   22620:	2601      	movs	r6, #1
   22622:	7026      	strb	r6, [r4, #0]
   22624:	a809      	add	r0, sp, #36	@ 0x24
   22626:	f004 fc77 	bl	26f18 <_ZN9allow_pin12full_dynamic17unshare_if_shared17hc1e7d593d40bae1cE>
   2262a:	a802      	add	r0, sp, #8
   2262c:	f004 fc74 	bl	26f18 <_ZN9allow_pin12full_dynamic17unshare_if_shared17hc1e7d593d40bae1cE>
   22630:	b011      	add	sp, #68	@ 0x44
   22632:	bdf0      	pop	{r4, r5, r6, r7, pc}
   22634:	a802      	add	r0, sp, #8
   22636:	f004 fc6f 	bl	26f18 <_ZN9allow_pin12full_dynamic17unshare_if_shared17hc1e7d593d40bae1cE>
   2263a:	ac09      	add	r4, sp, #36	@ 0x24
   2263c:	4620      	mov	r0, r4
   2263e:	f004 fc6b 	bl	26f18 <_ZN9allow_pin12full_dynamic17unshare_if_shared17hc1e7d593d40bae1cE>
   22642:	4620      	mov	r0, r4
   22644:	f004 fc68 	bl	26f18 <_ZN9allow_pin12full_dynamic17unshare_if_shared17hc1e7d593d40bae1cE>
   22648:	9c01      	ldr	r4, [sp, #4]
   2264a:	1c60      	adds	r0, r4, #1
   2264c:	2213      	movs	r2, #19
   2264e:	4629      	mov	r1, r5
   22650:	f004 fe23 	bl	2729a <__aeabi_memcpy>
   22654:	e7e5      	b.n	22622 <_ZN20complex_full_dynamic3app17h8c8123f0ad30da9dE+0x7a>
   22656:	46c0      	nop			@ (mov r8, r8)
   22658:	00001e4b 	.word	0x00001e4b

0002265c <_ZN20complex_full_dynamic3app17h8f135e9bc6dd5bb4E>:
   2265c:	b5f0      	push	{r4, r5, r6, r7, lr}
   2265e:	af03      	add	r7, sp, #12
   22660:	b0a9      	sub	sp, #164	@ 0xa4
   22662:	9003      	str	r0, [sp, #12]
   22664:	ac04      	add	r4, sp, #16
   22666:	2002      	movs	r0, #2
   22668:	9002      	str	r0, [sp, #8]
   2266a:	7220      	strb	r0, [r4, #8]
   2266c:	340c      	adds	r4, #12
   2266e:	221c      	movs	r2, #28
   22670:	9201      	str	r2, [sp, #4]
   22672:	4620      	mov	r0, r4
   22674:	f004 fe11 	bl	2729a <__aeabi_memcpy>
   22678:	ae0e      	add	r6, sp, #56	@ 0x38
   2267a:	4635      	mov	r5, r6
   2267c:	350c      	adds	r5, #12
   2267e:	215d      	movs	r1, #93	@ 0x5d
   22680:	4628      	mov	r0, r5
   22682:	f004 fc5d 	bl	26f40 <__aeabi_memclr4>
   22686:	9802      	ldr	r0, [sp, #8]
   22688:	7230      	strb	r0, [r6, #8]
   2268a:	4820      	ldr	r0, [pc, #128]	@ (2270c <_ZN20complex_full_dynamic3app17h8f135e9bc6dd5bb4E+0xb0>)
   2268c:	2608      	movs	r6, #8
   2268e:	4631      	mov	r1, r6
   22690:	4622      	mov	r2, r4
   22692:	9b01      	ldr	r3, [sp, #4]
   22694:	df04      	svc	4
   22696:	2802      	cmp	r0, #2
   22698:	d01a      	beq.n	226d0 <_ZN20complex_full_dynamic3app17h8f135e9bc6dd5bb4E+0x74>
   2269a:	a804      	add	r0, sp, #16
   2269c:	2104      	movs	r1, #4
   2269e:	7201      	strb	r1, [r0, #8]
   226a0:	9605      	str	r6, [sp, #20]
   226a2:	4e1a      	ldr	r6, [pc, #104]	@ (2270c <_ZN20complex_full_dynamic3app17h8f135e9bc6dd5bb4E+0xb0>)
   226a4:	9604      	str	r6, [sp, #16]
   226a6:	2405      	movs	r4, #5
   226a8:	235d      	movs	r3, #93	@ 0x5d
   226aa:	4630      	mov	r0, r6
   226ac:	4621      	mov	r1, r4
   226ae:	462a      	mov	r2, r5
   226b0:	df03      	svc	3
   226b2:	2802      	cmp	r0, #2
   226b4:	d00c      	beq.n	226d0 <_ZN20complex_full_dynamic3app17h8f135e9bc6dd5bb4E+0x74>
   226b6:	a80e      	add	r0, sp, #56	@ 0x38
   226b8:	2103      	movs	r1, #3
   226ba:	7201      	strb	r1, [r0, #8]
   226bc:	960e      	str	r6, [sp, #56]	@ 0x38
   226be:	940f      	str	r4, [sp, #60]	@ 0x3c
   226c0:	4812      	ldr	r0, [pc, #72]	@ (2270c <_ZN20complex_full_dynamic3app17h8f135e9bc6dd5bb4E+0xb0>)
   226c2:	2108      	movs	r1, #8
   226c4:	2600      	movs	r6, #0
   226c6:	4622      	mov	r2, r4
   226c8:	4633      	mov	r3, r6
   226ca:	df02      	svc	2
   226cc:	287f      	cmp	r0, #127	@ 0x7f
   226ce:	d80b      	bhi.n	226e8 <_ZN20complex_full_dynamic3app17h8f135e9bc6dd5bb4E+0x8c>
   226d0:	9c03      	ldr	r4, [sp, #12]
   226d2:	6061      	str	r1, [r4, #4]
   226d4:	2601      	movs	r6, #1
   226d6:	7026      	strb	r6, [r4, #0]
   226d8:	a80e      	add	r0, sp, #56	@ 0x38
   226da:	f004 fc1d 	bl	26f18 <_ZN9allow_pin12full_dynamic17unshare_if_shared17hc1e7d593d40bae1cE>
   226de:	a804      	add	r0, sp, #16
   226e0:	f004 fc1a 	bl	26f18 <_ZN9allow_pin12full_dynamic17unshare_if_shared17hc1e7d593d40bae1cE>
   226e4:	b029      	add	sp, #164	@ 0xa4
   226e6:	bdf0      	pop	{r4, r5, r6, r7, pc}
   226e8:	a804      	add	r0, sp, #16
   226ea:	f004 fc15 	bl	26f18 <_ZN9allow_pin12full_dynamic17unshare_if_shared17hc1e7d593d40bae1cE>
   226ee:	ac0e      	add	r4, sp, #56	@ 0x38
   226f0:	4620      	mov	r0, r4
   226f2:	f004 fc11 	bl	26f18 <_ZN9allow_pin12full_dynamic17unshare_if_shared17hc1e7d593d40bae1cE>
   226f6:	4620      	mov	r0, r4
   226f8:	f004 fc0e 	bl	26f18 <_ZN9allow_pin12full_dynamic17unshare_if_shared17hc1e7d593d40bae1cE>
   226fc:	9c03      	ldr	r4, [sp, #12]
   226fe:	1c60      	adds	r0, r4, #1
   22700:	225d      	movs	r2, #93	@ 0x5d
   22702:	4629      	mov	r1, r5
   22704:	f004 fdc9 	bl	2729a <__aeabi_memcpy>
   22708:	e7e5      	b.n	226d6 <_ZN20complex_full_dynamic3app17h8f135e9bc6dd5bb4E+0x7a>
   2270a:	46c0      	nop			@ (mov r8, r8)
   2270c:	00000c3e 	.word	0x00000c3e

00022710 <_ZN20complex_full_dynamic3app17h8fd576d5e4a0fac6E>:
   22710:	b5f0      	push	{r4, r5, r6, r7, lr}
   22712:	af03      	add	r7, sp, #12
   22714:	b0a5      	sub	sp, #148	@ 0x94
   22716:	9002      	str	r0, [sp, #8]
   22718:	ac03      	add	r4, sp, #12
   2271a:	2002      	movs	r0, #2
   2271c:	9001      	str	r0, [sp, #4]
   2271e:	7220      	strb	r0, [r4, #8]
   22720:	340c      	adds	r4, #12
   22722:	2249      	movs	r2, #73	@ 0x49
   22724:	9200      	str	r2, [sp, #0]
   22726:	4620      	mov	r0, r4
   22728:	f004 fdb7 	bl	2729a <__aeabi_memcpy>
   2272c:	ae19      	add	r6, sp, #100	@ 0x64
   2272e:	4635      	mov	r5, r6
   22730:	350c      	adds	r5, #12
   22732:	2123      	movs	r1, #35	@ 0x23
   22734:	4628      	mov	r0, r5
   22736:	f004 fc03 	bl	26f40 <__aeabi_memclr4>
   2273a:	9801      	ldr	r0, [sp, #4]
   2273c:	7230      	strb	r0, [r6, #8]
   2273e:	4820      	ldr	r0, [pc, #128]	@ (227c0 <_ZN20complex_full_dynamic3app17h8fd576d5e4a0fac6E+0xb0>)
   22740:	2607      	movs	r6, #7
   22742:	4631      	mov	r1, r6
   22744:	4622      	mov	r2, r4
   22746:	9b00      	ldr	r3, [sp, #0]
   22748:	df04      	svc	4
   2274a:	2802      	cmp	r0, #2
   2274c:	d01a      	beq.n	22784 <_ZN20complex_full_dynamic3app17h8fd576d5e4a0fac6E+0x74>
   2274e:	a803      	add	r0, sp, #12
   22750:	2104      	movs	r1, #4
   22752:	7201      	strb	r1, [r0, #8]
   22754:	9604      	str	r6, [sp, #16]
   22756:	4e1a      	ldr	r6, [pc, #104]	@ (227c0 <_ZN20complex_full_dynamic3app17h8fd576d5e4a0fac6E+0xb0>)
   22758:	9603      	str	r6, [sp, #12]
   2275a:	2401      	movs	r4, #1
   2275c:	2323      	movs	r3, #35	@ 0x23
   2275e:	4630      	mov	r0, r6
   22760:	4621      	mov	r1, r4
   22762:	462a      	mov	r2, r5
   22764:	df03      	svc	3
   22766:	2802      	cmp	r0, #2
   22768:	d00c      	beq.n	22784 <_ZN20complex_full_dynamic3app17h8fd576d5e4a0fac6E+0x74>
   2276a:	a819      	add	r0, sp, #100	@ 0x64
   2276c:	2103      	movs	r1, #3
   2276e:	7201      	strb	r1, [r0, #8]
   22770:	9619      	str	r6, [sp, #100]	@ 0x64
   22772:	941a      	str	r4, [sp, #104]	@ 0x68
   22774:	4812      	ldr	r0, [pc, #72]	@ (227c0 <_ZN20complex_full_dynamic3app17h8fd576d5e4a0fac6E+0xb0>)
   22776:	2107      	movs	r1, #7
   22778:	2600      	movs	r6, #0
   2277a:	4622      	mov	r2, r4
   2277c:	4633      	mov	r3, r6
   2277e:	df02      	svc	2
   22780:	287f      	cmp	r0, #127	@ 0x7f
   22782:	d80b      	bhi.n	2279c <_ZN20complex_full_dynamic3app17h8fd576d5e4a0fac6E+0x8c>
   22784:	9c02      	ldr	r4, [sp, #8]
   22786:	6061      	str	r1, [r4, #4]
   22788:	2601      	movs	r6, #1
   2278a:	7026      	strb	r6, [r4, #0]
   2278c:	a819      	add	r0, sp, #100	@ 0x64
   2278e:	f004 fbc3 	bl	26f18 <_ZN9allow_pin12full_dynamic17unshare_if_shared17hc1e7d593d40bae1cE>
   22792:	a803      	add	r0, sp, #12
   22794:	f004 fbc0 	bl	26f18 <_ZN9allow_pin12full_dynamic17unshare_if_shared17hc1e7d593d40bae1cE>
   22798:	b025      	add	sp, #148	@ 0x94
   2279a:	bdf0      	pop	{r4, r5, r6, r7, pc}
   2279c:	a803      	add	r0, sp, #12
   2279e:	f004 fbbb 	bl	26f18 <_ZN9allow_pin12full_dynamic17unshare_if_shared17hc1e7d593d40bae1cE>
   227a2:	ac19      	add	r4, sp, #100	@ 0x64
   227a4:	4620      	mov	r0, r4
   227a6:	f004 fbb7 	bl	26f18 <_ZN9allow_pin12full_dynamic17unshare_if_shared17hc1e7d593d40bae1cE>
   227aa:	4620      	mov	r0, r4
   227ac:	f004 fbb4 	bl	26f18 <_ZN9allow_pin12full_dynamic17unshare_if_shared17hc1e7d593d40bae1cE>
   227b0:	9c02      	ldr	r4, [sp, #8]
   227b2:	1c60      	adds	r0, r4, #1
   227b4:	2223      	movs	r2, #35	@ 0x23
   227b6:	4629      	mov	r1, r5
   227b8:	f004 fd6f 	bl	2729a <__aeabi_memcpy>
   227bc:	e7e5      	b.n	2278a <_ZN20complex_full_dynamic3app17h8fd576d5e4a0fac6E+0x7a>
   227be:	46c0      	nop			@ (mov r8, r8)
   227c0:	00001551 	.word	0x00001551

000227c4 <_ZN20complex_full_dynamic3app17h95e219c10d454c46E>:
   227c4:	b5f0      	push	{r4, r5, r6, r7, lr}
   227c6:	af03      	add	r7, sp, #12
   227c8:	b0b3      	sub	sp, #204	@ 0xcc
   227ca:	9003      	str	r0, [sp, #12]
   227cc:	ae04      	add	r6, sp, #16
   227ce:	2002      	movs	r0, #2
   227d0:	9002      	str	r0, [sp, #8]
   227d2:	7230      	strb	r0, [r6, #8]
   227d4:	360c      	adds	r6, #12
   227d6:	2256      	movs	r2, #86	@ 0x56
   227d8:	9201      	str	r2, [sp, #4]
   227da:	4630      	mov	r0, r6
   227dc:	f004 fd5d 	bl	2729a <__aeabi_memcpy>
   227e0:	ad1d      	add	r5, sp, #116	@ 0x74
   227e2:	462c      	mov	r4, r5
   227e4:	340c      	adds	r4, #12
   227e6:	2149      	movs	r1, #73	@ 0x49
   227e8:	4620      	mov	r0, r4
   227ea:	f004 fba9 	bl	26f40 <__aeabi_memclr4>
   227ee:	9802      	ldr	r0, [sp, #8]
   227f0:	7228      	strb	r0, [r5, #8]
   227f2:	4820      	ldr	r0, [pc, #128]	@ (22874 <_ZN20complex_full_dynamic3app17h95e219c10d454c46E+0xb0>)
   227f4:	2506      	movs	r5, #6
   227f6:	4629      	mov	r1, r5
   227f8:	4632      	mov	r2, r6
   227fa:	9b01      	ldr	r3, [sp, #4]
   227fc:	df04      	svc	4
   227fe:	2802      	cmp	r0, #2
   22800:	d019      	beq.n	22836 <_ZN20complex_full_dynamic3app17h95e219c10d454c46E+0x72>
   22802:	a804      	add	r0, sp, #16
   22804:	2104      	movs	r1, #4
   22806:	7201      	strb	r1, [r0, #8]
   22808:	4e1a      	ldr	r6, [pc, #104]	@ (22874 <_ZN20complex_full_dynamic3app17h95e219c10d454c46E+0xb0>)
   2280a:	9604      	str	r6, [sp, #16]
   2280c:	9505      	str	r5, [sp, #20]
   2280e:	2349      	movs	r3, #73	@ 0x49
   22810:	4630      	mov	r0, r6
   22812:	4629      	mov	r1, r5
   22814:	4622      	mov	r2, r4
   22816:	df03      	svc	3
   22818:	2802      	cmp	r0, #2
   2281a:	d00c      	beq.n	22836 <_ZN20complex_full_dynamic3app17h95e219c10d454c46E+0x72>
   2281c:	a81d      	add	r0, sp, #116	@ 0x74
   2281e:	2103      	movs	r1, #3
   22820:	7201      	strb	r1, [r0, #8]
   22822:	961d      	str	r6, [sp, #116]	@ 0x74
   22824:	951e      	str	r5, [sp, #120]	@ 0x78
   22826:	4813      	ldr	r0, [pc, #76]	@ (22874 <_ZN20complex_full_dynamic3app17h95e219c10d454c46E+0xb0>)
   22828:	2600      	movs	r6, #0
   2282a:	4629      	mov	r1, r5
   2282c:	462a      	mov	r2, r5
   2282e:	4633      	mov	r3, r6
   22830:	df02      	svc	2
   22832:	287f      	cmp	r0, #127	@ 0x7f
   22834:	d80b      	bhi.n	2284e <_ZN20complex_full_dynamic3app17h95e219c10d454c46E+0x8a>
   22836:	9c03      	ldr	r4, [sp, #12]
   22838:	6061      	str	r1, [r4, #4]
   2283a:	2601      	movs	r6, #1
   2283c:	7026      	strb	r6, [r4, #0]
   2283e:	a81d      	add	r0, sp, #116	@ 0x74
   22840:	f004 fb6a 	bl	26f18 <_ZN9allow_pin12full_dynamic17unshare_if_shared17hc1e7d593d40bae1cE>
   22844:	a804      	add	r0, sp, #16
   22846:	f004 fb67 	bl	26f18 <_ZN9allow_pin12full_dynamic17unshare_if_shared17hc1e7d593d40bae1cE>
   2284a:	b033      	add	sp, #204	@ 0xcc
   2284c:	bdf0      	pop	{r4, r5, r6, r7, pc}
   2284e:	a804      	add	r0, sp, #16
   22850:	f004 fb62 	bl	26f18 <_ZN9allow_pin12full_dynamic17unshare_if_shared17hc1e7d593d40bae1cE>
   22854:	4625      	mov	r5, r4
   22856:	ac1d      	add	r4, sp, #116	@ 0x74
   22858:	4620      	mov	r0, r4
   2285a:	f004 fb5d 	bl	26f18 <_ZN9allow_pin12full_dynamic17unshare_if_shared17hc1e7d593d40bae1cE>
   2285e:	4620      	mov	r0, r4
   22860:	f004 fb5a 	bl	26f18 <_ZN9allow_pin12full_dynamic17unshare_if_shared17hc1e7d593d40bae1cE>
   22864:	9c03      	ldr	r4, [sp, #12]
   22866:	1c60      	adds	r0, r4, #1
   22868:	2249      	movs	r2, #73	@ 0x49
   2286a:	4629      	mov	r1, r5
   2286c:	f004 fd15 	bl	2729a <__aeabi_memcpy>
   22870:	e7e4      	b.n	2283c <_ZN20complex_full_dynamic3app17h95e219c10d454c46E+0x78>
   22872:	46c0      	nop			@ (mov r8, r8)
   22874:	00001c6b 	.word	0x00001c6b

00022878 <_ZN20complex_full_dynamic3app17h97ac16da199a31afE>:
   22878:	b5f0      	push	{r4, r5, r6, r7, lr}
   2287a:	af03      	add	r7, sp, #12
   2287c:	b0a3      	sub	sp, #140	@ 0x8c
   2287e:	9002      	str	r0, [sp, #8]
   22880:	ae03      	add	r6, sp, #12
   22882:	2002      	movs	r0, #2
   22884:	9001      	str	r0, [sp, #4]
   22886:	7230      	strb	r0, [r6, #8]
   22888:	360c      	adds	r6, #12
   2288a:	2532      	movs	r5, #50	@ 0x32
   2288c:	4630      	mov	r0, r6
   2288e:	462a      	mov	r2, r5
   22890:	f004 fd03 	bl	2729a <__aeabi_memcpy>
   22894:	ac13      	add	r4, sp, #76	@ 0x4c
   22896:	4620      	mov	r0, r4
   22898:	300c      	adds	r0, #12
   2289a:	9000      	str	r0, [sp, #0]
   2289c:	4629      	mov	r1, r5
   2289e:	f004 fb4f 	bl	26f40 <__aeabi_memclr4>
   228a2:	9801      	ldr	r0, [sp, #4]
   228a4:	7220      	strb	r0, [r4, #8]
   228a6:	4820      	ldr	r0, [pc, #128]	@ (22928 <_ZN20complex_full_dynamic3app17h97ac16da199a31afE+0xb0>)
   228a8:	2403      	movs	r4, #3
   228aa:	4621      	mov	r1, r4
   228ac:	4632      	mov	r2, r6
   228ae:	462b      	mov	r3, r5
   228b0:	df04      	svc	4
   228b2:	2802      	cmp	r0, #2
   228b4:	d01a      	beq.n	228ec <_ZN20complex_full_dynamic3app17h97ac16da199a31afE+0x74>
   228b6:	a803      	add	r0, sp, #12
   228b8:	2104      	movs	r1, #4
   228ba:	7201      	strb	r1, [r0, #8]
   228bc:	9404      	str	r4, [sp, #16]
   228be:	4e1a      	ldr	r6, [pc, #104]	@ (22928 <_ZN20complex_full_dynamic3app17h97ac16da199a31afE+0xb0>)
   228c0:	9603      	str	r6, [sp, #12]
   228c2:	2101      	movs	r1, #1
   228c4:	2332      	movs	r3, #50	@ 0x32
   228c6:	4630      	mov	r0, r6
   228c8:	9101      	str	r1, [sp, #4]
   228ca:	9d00      	ldr	r5, [sp, #0]
   228cc:	462a      	mov	r2, r5
   228ce:	df03      	svc	3
   228d0:	2802      	cmp	r0, #2
   228d2:	d00b      	beq.n	228ec <_ZN20complex_full_dynamic3app17h97ac16da199a31afE+0x74>
   228d4:	a813      	add	r0, sp, #76	@ 0x4c
   228d6:	7204      	strb	r4, [r0, #8]
   228d8:	9613      	str	r6, [sp, #76]	@ 0x4c
   228da:	9a01      	ldr	r2, [sp, #4]
   228dc:	9214      	str	r2, [sp, #80]	@ 0x50
   228de:	4812      	ldr	r0, [pc, #72]	@ (22928 <_ZN20complex_full_dynamic3app17h97ac16da199a31afE+0xb0>)
   228e0:	2600      	movs	r6, #0
   228e2:	4621      	mov	r1, r4
   228e4:	4633      	mov	r3, r6
   228e6:	df02      	svc	2
   228e8:	287f      	cmp	r0, #127	@ 0x7f
   228ea:	d80b      	bhi.n	22904 <_ZN20complex_full_dynamic3app17h97ac16da199a31afE+0x8c>
   228ec:	9c02      	ldr	r4, [sp, #8]
   228ee:	6061      	str	r1, [r4, #4]
   228f0:	2601      	movs	r6, #1
   228f2:	7026      	strb	r6, [r4, #0]
   228f4:	a813      	add	r0, sp, #76	@ 0x4c
   228f6:	f004 fb0f 	bl	26f18 <_ZN9allow_pin12full_dynamic17unshare_if_shared17hc1e7d593d40bae1cE>
   228fa:	a803      	add	r0, sp, #12
   228fc:	f004 fb0c 	bl	26f18 <_ZN9allow_pin12full_dynamic17unshare_if_shared17hc1e7d593d40bae1cE>
   22900:	b023      	add	sp, #140	@ 0x8c
   22902:	bdf0      	pop	{r4, r5, r6, r7, pc}
   22904:	a803      	add	r0, sp, #12
   22906:	f004 fb07 	bl	26f18 <_ZN9allow_pin12full_dynamic17unshare_if_shared17hc1e7d593d40bae1cE>
   2290a:	ac13      	add	r4, sp, #76	@ 0x4c
   2290c:	4620      	mov	r0, r4
   2290e:	f004 fb03 	bl	26f18 <_ZN9allow_pin12full_dynamic17unshare_if_shared17hc1e7d593d40bae1cE>
   22912:	4620      	mov	r0, r4
   22914:	f004 fb00 	bl	26f18 <_ZN9allow_pin12full_dynamic17unshare_if_shared17hc1e7d593d40bae1cE>
   22918:	9c02      	ldr	r4, [sp, #8]
   2291a:	1c60      	adds	r0, r4, #1
   2291c:	2232      	movs	r2, #50	@ 0x32
   2291e:	4629      	mov	r1, r5
   22920:	f004 fcbb 	bl	2729a <__aeabi_memcpy>
   22924:	e7e5      	b.n	228f2 <_ZN20complex_full_dynamic3app17h97ac16da199a31afE+0x7a>
   22926:	46c0      	nop			@ (mov r8, r8)
   22928:	00001f07 	.word	0x00001f07

0002292c <_ZN20complex_full_dynamic3app17h98ed70b48b81a622E>:
   2292c:	b5f0      	push	{r4, r5, r6, r7, lr}
   2292e:	af03      	add	r7, sp, #12
   22930:	b0ab      	sub	sp, #172	@ 0xac
   22932:	9002      	str	r0, [sp, #8]
   22934:	ac03      	add	r4, sp, #12
   22936:	2002      	movs	r0, #2
   22938:	9001      	str	r0, [sp, #4]
   2293a:	7220      	strb	r0, [r4, #8]
   2293c:	340c      	adds	r4, #12
   2293e:	224f      	movs	r2, #79	@ 0x4f
   22940:	9200      	str	r2, [sp, #0]
   22942:	4620      	mov	r0, r4
   22944:	f004 fca9 	bl	2729a <__aeabi_memcpy>
   22948:	ae1a      	add	r6, sp, #104	@ 0x68
   2294a:	4635      	mov	r5, r6
   2294c:	350c      	adds	r5, #12
   2294e:	2135      	movs	r1, #53	@ 0x35
   22950:	4628      	mov	r0, r5
   22952:	f004 faf5 	bl	26f40 <__aeabi_memclr4>
   22956:	9801      	ldr	r0, [sp, #4]
   22958:	7230      	strb	r0, [r6, #8]
   2295a:	4820      	ldr	r0, [pc, #128]	@ (229dc <_ZN20complex_full_dynamic3app17h98ed70b48b81a622E+0xb0>)
   2295c:	2607      	movs	r6, #7
   2295e:	4631      	mov	r1, r6
   22960:	4622      	mov	r2, r4
   22962:	9b00      	ldr	r3, [sp, #0]
   22964:	df04      	svc	4
   22966:	2802      	cmp	r0, #2
   22968:	d01a      	beq.n	229a0 <_ZN20complex_full_dynamic3app17h98ed70b48b81a622E+0x74>
   2296a:	a803      	add	r0, sp, #12
   2296c:	2104      	movs	r1, #4
   2296e:	7201      	strb	r1, [r0, #8]
   22970:	9604      	str	r6, [sp, #16]
   22972:	4e1a      	ldr	r6, [pc, #104]	@ (229dc <_ZN20complex_full_dynamic3app17h98ed70b48b81a622E+0xb0>)
   22974:	9603      	str	r6, [sp, #12]
   22976:	2401      	movs	r4, #1
   22978:	2335      	movs	r3, #53	@ 0x35
   2297a:	4630      	mov	r0, r6
   2297c:	4621      	mov	r1, r4
   2297e:	462a      	mov	r2, r5
   22980:	df03      	svc	3
   22982:	2802      	cmp	r0, #2
   22984:	d00c      	beq.n	229a0 <_ZN20complex_full_dynamic3app17h98ed70b48b81a622E+0x74>
   22986:	a81a      	add	r0, sp, #104	@ 0x68
   22988:	2103      	movs	r1, #3
   2298a:	7201      	strb	r1, [r0, #8]
   2298c:	961a      	str	r6, [sp, #104]	@ 0x68
   2298e:	941b      	str	r4, [sp, #108]	@ 0x6c
   22990:	4812      	ldr	r0, [pc, #72]	@ (229dc <_ZN20complex_full_dynamic3app17h98ed70b48b81a622E+0xb0>)
   22992:	2107      	movs	r1, #7
   22994:	2600      	movs	r6, #0
   22996:	4622      	mov	r2, r4
   22998:	4633      	mov	r3, r6
   2299a:	df02      	svc	2
   2299c:	287f      	cmp	r0, #127	@ 0x7f
   2299e:	d80b      	bhi.n	229b8 <_ZN20complex_full_dynamic3app17h98ed70b48b81a622E+0x8c>
   229a0:	9c02      	ldr	r4, [sp, #8]
   229a2:	6061      	str	r1, [r4, #4]
   229a4:	2601      	movs	r6, #1
   229a6:	7026      	strb	r6, [r4, #0]
   229a8:	a81a      	add	r0, sp, #104	@ 0x68
   229aa:	f004 fab5 	bl	26f18 <_ZN9allow_pin12full_dynamic17unshare_if_shared17hc1e7d593d40bae1cE>
   229ae:	a803      	add	r0, sp, #12
   229b0:	f004 fab2 	bl	26f18 <_ZN9allow_pin12full_dynamic17unshare_if_shared17hc1e7d593d40bae1cE>
   229b4:	b02b      	add	sp, #172	@ 0xac
   229b6:	bdf0      	pop	{r4, r5, r6, r7, pc}
   229b8:	a803      	add	r0, sp, #12
   229ba:	f004 faad 	bl	26f18 <_ZN9allow_pin12full_dynamic17unshare_if_shared17hc1e7d593d40bae1cE>
   229be:	ac1a      	add	r4, sp, #104	@ 0x68
   229c0:	4620      	mov	r0, r4
   229c2:	f004 faa9 	bl	26f18 <_ZN9allow_pin12full_dynamic17unshare_if_shared17hc1e7d593d40bae1cE>
   229c6:	4620      	mov	r0, r4
   229c8:	f004 faa6 	bl	26f18 <_ZN9allow_pin12full_dynamic17unshare_if_shared17hc1e7d593d40bae1cE>
   229cc:	9c02      	ldr	r4, [sp, #8]
   229ce:	1c60      	adds	r0, r4, #1
   229d0:	2235      	movs	r2, #53	@ 0x35
   229d2:	4629      	mov	r1, r5
   229d4:	f004 fc61 	bl	2729a <__aeabi_memcpy>
   229d8:	e7e5      	b.n	229a6 <_ZN20complex_full_dynamic3app17h98ed70b48b81a622E+0x7a>
   229da:	46c0      	nop			@ (mov r8, r8)
   229dc:	000016d7 	.word	0x000016d7

000229e0 <_ZN20complex_full_dynamic3app17h98eea9e021569d89E>:
   229e0:	b5f0      	push	{r4, r5, r6, r7, lr}
   229e2:	af03      	add	r7, sp, #12
   229e4:	b0a5      	sub	sp, #148	@ 0x94
   229e6:	9003      	str	r0, [sp, #12]
   229e8:	ac04      	add	r4, sp, #16
   229ea:	2002      	movs	r0, #2
   229ec:	9002      	str	r0, [sp, #8]
   229ee:	7220      	strb	r0, [r4, #8]
   229f0:	340c      	adds	r4, #12
   229f2:	2236      	movs	r2, #54	@ 0x36
   229f4:	9201      	str	r2, [sp, #4]
   229f6:	4620      	mov	r0, r4
   229f8:	f004 fc4f 	bl	2729a <__aeabi_memcpy>
   229fc:	ae15      	add	r6, sp, #84	@ 0x54
   229fe:	4635      	mov	r5, r6
   22a00:	350c      	adds	r5, #12
   22a02:	2134      	movs	r1, #52	@ 0x34
   22a04:	4628      	mov	r0, r5
   22a06:	f004 fa9b 	bl	26f40 <__aeabi_memclr4>
   22a0a:	9802      	ldr	r0, [sp, #8]
   22a0c:	7230      	strb	r0, [r6, #8]
   22a0e:	481f      	ldr	r0, [pc, #124]	@ (22a8c <_ZN20complex_full_dynamic3app17h98eea9e021569d89E+0xac>)
   22a10:	2604      	movs	r6, #4
   22a12:	4631      	mov	r1, r6
   22a14:	4622      	mov	r2, r4
   22a16:	9b01      	ldr	r3, [sp, #4]
   22a18:	df04      	svc	4
   22a1a:	2802      	cmp	r0, #2
   22a1c:	d019      	beq.n	22a52 <_ZN20complex_full_dynamic3app17h98eea9e021569d89E+0x72>
   22a1e:	a804      	add	r0, sp, #16
   22a20:	7206      	strb	r6, [r0, #8]
   22a22:	9605      	str	r6, [sp, #20]
   22a24:	4e19      	ldr	r6, [pc, #100]	@ (22a8c <_ZN20complex_full_dynamic3app17h98eea9e021569d89E+0xac>)
   22a26:	9604      	str	r6, [sp, #16]
   22a28:	2402      	movs	r4, #2
   22a2a:	2334      	movs	r3, #52	@ 0x34
   22a2c:	4630      	mov	r0, r6
   22a2e:	4621      	mov	r1, r4
   22a30:	462a      	mov	r2, r5
   22a32:	df03      	svc	3
   22a34:	2802      	cmp	r0, #2
   22a36:	d00c      	beq.n	22a52 <_ZN20complex_full_dynamic3app17h98eea9e021569d89E+0x72>
   22a38:	a815      	add	r0, sp, #84	@ 0x54
   22a3a:	2103      	movs	r1, #3
   22a3c:	7201      	strb	r1, [r0, #8]
   22a3e:	9615      	str	r6, [sp, #84]	@ 0x54
   22a40:	9416      	str	r4, [sp, #88]	@ 0x58
   22a42:	4812      	ldr	r0, [pc, #72]	@ (22a8c <_ZN20complex_full_dynamic3app17h98eea9e021569d89E+0xac>)
   22a44:	2104      	movs	r1, #4
   22a46:	2600      	movs	r6, #0
   22a48:	4622      	mov	r2, r4
   22a4a:	4633      	mov	r3, r6
   22a4c:	df02      	svc	2
   22a4e:	287f      	cmp	r0, #127	@ 0x7f
   22a50:	d80b      	bhi.n	22a6a <_ZN20complex_full_dynamic3app17h98eea9e021569d89E+0x8a>
   22a52:	9c03      	ldr	r4, [sp, #12]
   22a54:	6061      	str	r1, [r4, #4]
   22a56:	2601      	movs	r6, #1
   22a58:	7026      	strb	r6, [r4, #0]
   22a5a:	a815      	add	r0, sp, #84	@ 0x54
   22a5c:	f004 fa5c 	bl	26f18 <_ZN9allow_pin12full_dynamic17unshare_if_shared17hc1e7d593d40bae1cE>
   22a60:	a804      	add	r0, sp, #16
   22a62:	f004 fa59 	bl	26f18 <_ZN9allow_pin12full_dynamic17unshare_if_shared17hc1e7d593d40bae1cE>
   22a66:	b025      	add	sp, #148	@ 0x94
   22a68:	bdf0      	pop	{r4, r5, r6, r7, pc}
   22a6a:	a804      	add	r0, sp, #16
   22a6c:	f004 fa54 	bl	26f18 <_ZN9allow_pin12full_dynamic17unshare_if_shared17hc1e7d593d40bae1cE>
   22a70:	ac15      	add	r4, sp, #84	@ 0x54
   22a72:	4620      	mov	r0, r4
   22a74:	f004 fa50 	bl	26f18 <_ZN9allow_pin12full_dynamic17unshare_if_shared17hc1e7d593d40bae1cE>
   22a78:	4620      	mov	r0, r4
   22a7a:	f004 fa4d 	bl	26f18 <_ZN9allow_pin12full_dynamic17unshare_if_shared17hc1e7d593d40bae1cE>
   22a7e:	9c03      	ldr	r4, [sp, #12]
   22a80:	1c60      	adds	r0, r4, #1
   22a82:	2234      	movs	r2, #52	@ 0x34
   22a84:	4629      	mov	r1, r5
   22a86:	f004 fc08 	bl	2729a <__aeabi_memcpy>
   22a8a:	e7e5      	b.n	22a58 <_ZN20complex_full_dynamic3app17h98eea9e021569d89E+0x78>
   22a8c:	000023c6 	.word	0x000023c6

00022a90 <_ZN20complex_full_dynamic3app17h9b0467a0de049725E>:
   22a90:	b5f0      	push	{r4, r5, r6, r7, lr}
   22a92:	af03      	add	r7, sp, #12
   22a94:	b0b3      	sub	sp, #204	@ 0xcc
   22a96:	9003      	str	r0, [sp, #12]
   22a98:	ac04      	add	r4, sp, #16
   22a9a:	2002      	movs	r0, #2
   22a9c:	9002      	str	r0, [sp, #8]
   22a9e:	7220      	strb	r0, [r4, #8]
   22aa0:	340c      	adds	r4, #12
   22aa2:	2251      	movs	r2, #81	@ 0x51
   22aa4:	9201      	str	r2, [sp, #4]
   22aa6:	4620      	mov	r0, r4
   22aa8:	f004 fbf7 	bl	2729a <__aeabi_memcpy>
   22aac:	ae1c      	add	r6, sp, #112	@ 0x70
   22aae:	4635      	mov	r5, r6
   22ab0:	350c      	adds	r5, #12
   22ab2:	214f      	movs	r1, #79	@ 0x4f
   22ab4:	4628      	mov	r0, r5
   22ab6:	f004 fa43 	bl	26f40 <__aeabi_memclr4>
   22aba:	9802      	ldr	r0, [sp, #8]
   22abc:	7230      	strb	r0, [r6, #8]
   22abe:	481f      	ldr	r0, [pc, #124]	@ (22b3c <_ZN20complex_full_dynamic3app17h9b0467a0de049725E+0xac>)
   22ac0:	2604      	movs	r6, #4
   22ac2:	4631      	mov	r1, r6
   22ac4:	4622      	mov	r2, r4
   22ac6:	9b01      	ldr	r3, [sp, #4]
   22ac8:	df04      	svc	4
   22aca:	2802      	cmp	r0, #2
   22acc:	d019      	beq.n	22b02 <_ZN20complex_full_dynamic3app17h9b0467a0de049725E+0x72>
   22ace:	a804      	add	r0, sp, #16
   22ad0:	7206      	strb	r6, [r0, #8]
   22ad2:	9605      	str	r6, [sp, #20]
   22ad4:	4e19      	ldr	r6, [pc, #100]	@ (22b3c <_ZN20complex_full_dynamic3app17h9b0467a0de049725E+0xac>)
   22ad6:	9604      	str	r6, [sp, #16]
   22ad8:	2409      	movs	r4, #9
   22ada:	234f      	movs	r3, #79	@ 0x4f
   22adc:	4630      	mov	r0, r6
   22ade:	4621      	mov	r1, r4
   22ae0:	462a      	mov	r2, r5
   22ae2:	df03      	svc	3
   22ae4:	2802      	cmp	r0, #2
   22ae6:	d00c      	beq.n	22b02 <_ZN20complex_full_dynamic3app17h9b0467a0de049725E+0x72>
   22ae8:	a81c      	add	r0, sp, #112	@ 0x70
   22aea:	2103      	movs	r1, #3
   22aec:	7201      	strb	r1, [r0, #8]
   22aee:	961c      	str	r6, [sp, #112]	@ 0x70
   22af0:	941d      	str	r4, [sp, #116]	@ 0x74
   22af2:	4812      	ldr	r0, [pc, #72]	@ (22b3c <_ZN20complex_full_dynamic3app17h9b0467a0de049725E+0xac>)
   22af4:	2104      	movs	r1, #4
   22af6:	2600      	movs	r6, #0
   22af8:	4622      	mov	r2, r4
   22afa:	4633      	mov	r3, r6
   22afc:	df02      	svc	2
   22afe:	287f      	cmp	r0, #127	@ 0x7f
   22b00:	d80b      	bhi.n	22b1a <_ZN20complex_full_dynamic3app17h9b0467a0de049725E+0x8a>
   22b02:	9c03      	ldr	r4, [sp, #12]
   22b04:	6061      	str	r1, [r4, #4]
   22b06:	2601      	movs	r6, #1
   22b08:	7026      	strb	r6, [r4, #0]
   22b0a:	a81c      	add	r0, sp, #112	@ 0x70
   22b0c:	f004 fa04 	bl	26f18 <_ZN9allow_pin12full_dynamic17unshare_if_shared17hc1e7d593d40bae1cE>
   22b10:	a804      	add	r0, sp, #16
   22b12:	f004 fa01 	bl	26f18 <_ZN9allow_pin12full_dynamic17unshare_if_shared17hc1e7d593d40bae1cE>
   22b16:	b033      	add	sp, #204	@ 0xcc
   22b18:	bdf0      	pop	{r4, r5, r6, r7, pc}
   22b1a:	a804      	add	r0, sp, #16
   22b1c:	f004 f9fc 	bl	26f18 <_ZN9allow_pin12full_dynamic17unshare_if_shared17hc1e7d593d40bae1cE>
   22b20:	ac1c      	add	r4, sp, #112	@ 0x70
   22b22:	4620      	mov	r0, r4
   22b24:	f004 f9f8 	bl	26f18 <_ZN9allow_pin12full_dynamic17unshare_if_shared17hc1e7d593d40bae1cE>
   22b28:	4620      	mov	r0, r4
   22b2a:	f004 f9f5 	bl	26f18 <_ZN9allow_pin12full_dynamic17unshare_if_shared17hc1e7d593d40bae1cE>
   22b2e:	9c03      	ldr	r4, [sp, #12]
   22b30:	1c60      	adds	r0, r4, #1
   22b32:	224f      	movs	r2, #79	@ 0x4f
   22b34:	4629      	mov	r1, r5
   22b36:	f004 fbb0 	bl	2729a <__aeabi_memcpy>
   22b3a:	e7e5      	b.n	22b08 <_ZN20complex_full_dynamic3app17h9b0467a0de049725E+0x78>
   22b3c:	000020ee 	.word	0x000020ee

00022b40 <_ZN20complex_full_dynamic3app17h9ecc45457ff3189aE>:
   22b40:	b5f0      	push	{r4, r5, r6, r7, lr}
   22b42:	af03      	add	r7, sp, #12
   22b44:	b0a3      	sub	sp, #140	@ 0x8c
   22b46:	9002      	str	r0, [sp, #8]
   22b48:	ae03      	add	r6, sp, #12
   22b4a:	2002      	movs	r0, #2
   22b4c:	9001      	str	r0, [sp, #4]
   22b4e:	7230      	strb	r0, [r6, #8]
   22b50:	360c      	adds	r6, #12
   22b52:	222e      	movs	r2, #46	@ 0x2e
   22b54:	9200      	str	r2, [sp, #0]
   22b56:	4630      	mov	r0, r6
   22b58:	f004 fb9f 	bl	2729a <__aeabi_memcpy>
   22b5c:	ad12      	add	r5, sp, #72	@ 0x48
   22b5e:	462c      	mov	r4, r5
   22b60:	340c      	adds	r4, #12
   22b62:	2138      	movs	r1, #56	@ 0x38
   22b64:	4620      	mov	r0, r4
   22b66:	f004 f9eb 	bl	26f40 <__aeabi_memclr4>
   22b6a:	9801      	ldr	r0, [sp, #4]
   22b6c:	7228      	strb	r0, [r5, #8]
   22b6e:	4820      	ldr	r0, [pc, #128]	@ (22bf0 <_ZN20complex_full_dynamic3app17h9ecc45457ff3189aE+0xb0>)
   22b70:	2509      	movs	r5, #9
   22b72:	4629      	mov	r1, r5
   22b74:	4632      	mov	r2, r6
   22b76:	9b00      	ldr	r3, [sp, #0]
   22b78:	df04      	svc	4
   22b7a:	2802      	cmp	r0, #2
   22b7c:	d019      	beq.n	22bb2 <_ZN20complex_full_dynamic3app17h9ecc45457ff3189aE+0x72>
   22b7e:	a803      	add	r0, sp, #12
   22b80:	2104      	movs	r1, #4
   22b82:	7201      	strb	r1, [r0, #8]
   22b84:	4e1a      	ldr	r6, [pc, #104]	@ (22bf0 <_ZN20complex_full_dynamic3app17h9ecc45457ff3189aE+0xb0>)
   22b86:	9603      	str	r6, [sp, #12]
   22b88:	9504      	str	r5, [sp, #16]
   22b8a:	2338      	movs	r3, #56	@ 0x38
   22b8c:	4630      	mov	r0, r6
   22b8e:	4629      	mov	r1, r5
   22b90:	4622      	mov	r2, r4
   22b92:	df03      	svc	3
   22b94:	2802      	cmp	r0, #2
   22b96:	d00c      	beq.n	22bb2 <_ZN20complex_full_dynamic3app17h9ecc45457ff3189aE+0x72>
   22b98:	a812      	add	r0, sp, #72	@ 0x48
   22b9a:	2103      	movs	r1, #3
   22b9c:	7201      	strb	r1, [r0, #8]
   22b9e:	9612      	str	r6, [sp, #72]	@ 0x48
   22ba0:	9513      	str	r5, [sp, #76]	@ 0x4c
   22ba2:	4813      	ldr	r0, [pc, #76]	@ (22bf0 <_ZN20complex_full_dynamic3app17h9ecc45457ff3189aE+0xb0>)
   22ba4:	2600      	movs	r6, #0
   22ba6:	4629      	mov	r1, r5
   22ba8:	462a      	mov	r2, r5
   22baa:	4633      	mov	r3, r6
   22bac:	df02      	svc	2
   22bae:	287f      	cmp	r0, #127	@ 0x7f
   22bb0:	d80b      	bhi.n	22bca <_ZN20complex_full_dynamic3app17h9ecc45457ff3189aE+0x8a>
   22bb2:	9c02      	ldr	r4, [sp, #8]
   22bb4:	6061      	str	r1, [r4, #4]
   22bb6:	2601      	movs	r6, #1
   22bb8:	7026      	strb	r6, [r4, #0]
   22bba:	a812      	add	r0, sp, #72	@ 0x48
   22bbc:	f004 f9ac 	bl	26f18 <_ZN9allow_pin12full_dynamic17unshare_if_shared17hc1e7d593d40bae1cE>
   22bc0:	a803      	add	r0, sp, #12
   22bc2:	f004 f9a9 	bl	26f18 <_ZN9allow_pin12full_dynamic17unshare_if_shared17hc1e7d593d40bae1cE>
   22bc6:	b023      	add	sp, #140	@ 0x8c
   22bc8:	bdf0      	pop	{r4, r5, r6, r7, pc}
   22bca:	a803      	add	r0, sp, #12
   22bcc:	f004 f9a4 	bl	26f18 <_ZN9allow_pin12full_dynamic17unshare_if_shared17hc1e7d593d40bae1cE>
   22bd0:	4625      	mov	r5, r4
   22bd2:	ac12      	add	r4, sp, #72	@ 0x48
   22bd4:	4620      	mov	r0, r4
   22bd6:	f004 f99f 	bl	26f18 <_ZN9allow_pin12full_dynamic17unshare_if_shared17hc1e7d593d40bae1cE>
   22bda:	4620      	mov	r0, r4
   22bdc:	f004 f99c 	bl	26f18 <_ZN9allow_pin12full_dynamic17unshare_if_shared17hc1e7d593d40bae1cE>
   22be0:	9c02      	ldr	r4, [sp, #8]
   22be2:	1c60      	adds	r0, r4, #1
   22be4:	2238      	movs	r2, #56	@ 0x38
   22be6:	4629      	mov	r1, r5
   22be8:	f004 fb57 	bl	2729a <__aeabi_memcpy>
   22bec:	e7e4      	b.n	22bb8 <_ZN20complex_full_dynamic3app17h9ecc45457ff3189aE+0x78>
   22bee:	46c0      	nop			@ (mov r8, r8)
   22bf0:	00000a9d 	.word	0x00000a9d

00022bf4 <_ZN20complex_full_dynamic3app17h9ed8cc8f6097bb88E>:
   22bf4:	b5f0      	push	{r4, r5, r6, r7, lr}
   22bf6:	af03      	add	r7, sp, #12
   22bf8:	b0a7      	sub	sp, #156	@ 0x9c
   22bfa:	9003      	str	r0, [sp, #12]
   22bfc:	ac04      	add	r4, sp, #16
   22bfe:	2002      	movs	r0, #2
   22c00:	9002      	str	r0, [sp, #8]
   22c02:	7220      	strb	r0, [r4, #8]
   22c04:	340c      	adds	r4, #12
   22c06:	2240      	movs	r2, #64	@ 0x40
   22c08:	9201      	str	r2, [sp, #4]
   22c0a:	4620      	mov	r0, r4
   22c0c:	f004 fb45 	bl	2729a <__aeabi_memcpy>
   22c10:	ae17      	add	r6, sp, #92	@ 0x5c
   22c12:	4635      	mov	r5, r6
   22c14:	350c      	adds	r5, #12
   22c16:	2131      	movs	r1, #49	@ 0x31
   22c18:	4628      	mov	r0, r5
   22c1a:	f004 f991 	bl	26f40 <__aeabi_memclr4>
   22c1e:	9802      	ldr	r0, [sp, #8]
   22c20:	7230      	strb	r0, [r6, #8]
   22c22:	4820      	ldr	r0, [pc, #128]	@ (22ca4 <_ZN20complex_full_dynamic3app17h9ed8cc8f6097bb88E+0xb0>)
   22c24:	2608      	movs	r6, #8
   22c26:	4631      	mov	r1, r6
   22c28:	4622      	mov	r2, r4
   22c2a:	9b01      	ldr	r3, [sp, #4]
   22c2c:	df04      	svc	4
   22c2e:	2802      	cmp	r0, #2
   22c30:	d01a      	beq.n	22c68 <_ZN20complex_full_dynamic3app17h9ed8cc8f6097bb88E+0x74>
   22c32:	a804      	add	r0, sp, #16
   22c34:	2104      	movs	r1, #4
   22c36:	7201      	strb	r1, [r0, #8]
   22c38:	9605      	str	r6, [sp, #20]
   22c3a:	4e1a      	ldr	r6, [pc, #104]	@ (22ca4 <_ZN20complex_full_dynamic3app17h9ed8cc8f6097bb88E+0xb0>)
   22c3c:	9604      	str	r6, [sp, #16]
   22c3e:	2405      	movs	r4, #5
   22c40:	2331      	movs	r3, #49	@ 0x31
   22c42:	4630      	mov	r0, r6
   22c44:	4621      	mov	r1, r4
   22c46:	462a      	mov	r2, r5
   22c48:	df03      	svc	3
   22c4a:	2802      	cmp	r0, #2
   22c4c:	d00c      	beq.n	22c68 <_ZN20complex_full_dynamic3app17h9ed8cc8f6097bb88E+0x74>
   22c4e:	a817      	add	r0, sp, #92	@ 0x5c
   22c50:	2103      	movs	r1, #3
   22c52:	7201      	strb	r1, [r0, #8]
   22c54:	9617      	str	r6, [sp, #92]	@ 0x5c
   22c56:	9418      	str	r4, [sp, #96]	@ 0x60
   22c58:	4812      	ldr	r0, [pc, #72]	@ (22ca4 <_ZN20complex_full_dynamic3app17h9ed8cc8f6097bb88E+0xb0>)
   22c5a:	2108      	movs	r1, #8
   22c5c:	2600      	movs	r6, #0
   22c5e:	4622      	mov	r2, r4
   22c60:	4633      	mov	r3, r6
   22c62:	df02      	svc	2
   22c64:	287f      	cmp	r0, #127	@ 0x7f
   22c66:	d80b      	bhi.n	22c80 <_ZN20complex_full_dynamic3app17h9ed8cc8f6097bb88E+0x8c>
   22c68:	9c03      	ldr	r4, [sp, #12]
   22c6a:	6061      	str	r1, [r4, #4]
   22c6c:	2601      	movs	r6, #1
   22c6e:	7026      	strb	r6, [r4, #0]
   22c70:	a817      	add	r0, sp, #92	@ 0x5c
   22c72:	f004 f951 	bl	26f18 <_ZN9allow_pin12full_dynamic17unshare_if_shared17hc1e7d593d40bae1cE>
   22c76:	a804      	add	r0, sp, #16
   22c78:	f004 f94e 	bl	26f18 <_ZN9allow_pin12full_dynamic17unshare_if_shared17hc1e7d593d40bae1cE>
   22c7c:	b027      	add	sp, #156	@ 0x9c
   22c7e:	bdf0      	pop	{r4, r5, r6, r7, pc}
   22c80:	a804      	add	r0, sp, #16
   22c82:	f004 f949 	bl	26f18 <_ZN9allow_pin12full_dynamic17unshare_if_shared17hc1e7d593d40bae1cE>
   22c86:	ac17      	add	r4, sp, #92	@ 0x5c
   22c88:	4620      	mov	r0, r4
   22c8a:	f004 f945 	bl	26f18 <_ZN9allow_pin12full_dynamic17unshare_if_shared17hc1e7d593d40bae1cE>
   22c8e:	4620      	mov	r0, r4
   22c90:	f004 f942 	bl	26f18 <_ZN9allow_pin12full_dynamic17unshare_if_shared17hc1e7d593d40bae1cE>
   22c94:	9c03      	ldr	r4, [sp, #12]
   22c96:	1c60      	adds	r0, r4, #1
   22c98:	2231      	movs	r2, #49	@ 0x31
   22c9a:	4629      	mov	r1, r5
   22c9c:	f004 fafd 	bl	2729a <__aeabi_memcpy>
   22ca0:	e7e5      	b.n	22c6e <_ZN20complex_full_dynamic3app17h9ed8cc8f6097bb88E+0x7a>
   22ca2:	46c0      	nop			@ (mov r8, r8)
   22ca4:	00000fce 	.word	0x00000fce

00022ca8 <_ZN20complex_full_dynamic3app17h9f49336c2fb8e33aE>:
   22ca8:	b5f0      	push	{r4, r5, r6, r7, lr}
   22caa:	af03      	add	r7, sp, #12
   22cac:	b0ad      	sub	sp, #180	@ 0xb4
   22cae:	9002      	str	r0, [sp, #8]
   22cb0:	ae03      	add	r6, sp, #12
   22cb2:	2002      	movs	r0, #2
   22cb4:	9001      	str	r0, [sp, #4]
   22cb6:	7230      	strb	r0, [r6, #8]
   22cb8:	360c      	adds	r6, #12
   22cba:	2263      	movs	r2, #99	@ 0x63
   22cbc:	9200      	str	r2, [sp, #0]
   22cbe:	4630      	mov	r0, r6
   22cc0:	f004 faeb 	bl	2729a <__aeabi_memcpy>
   22cc4:	ad1f      	add	r5, sp, #124	@ 0x7c
   22cc6:	462c      	mov	r4, r5
   22cc8:	340c      	adds	r4, #12
   22cca:	212c      	movs	r1, #44	@ 0x2c
   22ccc:	4620      	mov	r0, r4
   22cce:	f004 f937 	bl	26f40 <__aeabi_memclr4>
   22cd2:	9801      	ldr	r0, [sp, #4]
   22cd4:	7228      	strb	r0, [r5, #8]
   22cd6:	2018      	movs	r0, #24
   22cd8:	2505      	movs	r5, #5
   22cda:	9001      	str	r0, [sp, #4]
   22cdc:	4629      	mov	r1, r5
   22cde:	4632      	mov	r2, r6
   22ce0:	9b00      	ldr	r3, [sp, #0]
   22ce2:	df04      	svc	4
   22ce4:	2802      	cmp	r0, #2
   22ce6:	d018      	beq.n	22d1a <_ZN20complex_full_dynamic3app17h9f49336c2fb8e33aE+0x72>
   22ce8:	a803      	add	r0, sp, #12
   22cea:	2104      	movs	r1, #4
   22cec:	7201      	strb	r1, [r0, #8]
   22cee:	9504      	str	r5, [sp, #16]
   22cf0:	9801      	ldr	r0, [sp, #4]
   22cf2:	9003      	str	r0, [sp, #12]
   22cf4:	2503      	movs	r5, #3
   22cf6:	232c      	movs	r3, #44	@ 0x2c
   22cf8:	4629      	mov	r1, r5
   22cfa:	4622      	mov	r2, r4
   22cfc:	df03      	svc	3
   22cfe:	2802      	cmp	r0, #2
   22d00:	d00b      	beq.n	22d1a <_ZN20complex_full_dynamic3app17h9f49336c2fb8e33aE+0x72>
   22d02:	a81f      	add	r0, sp, #124	@ 0x7c
   22d04:	7205      	strb	r5, [r0, #8]
   22d06:	9520      	str	r5, [sp, #128]	@ 0x80
   22d08:	9801      	ldr	r0, [sp, #4]
   22d0a:	901f      	str	r0, [sp, #124]	@ 0x7c
   22d0c:	2105      	movs	r1, #5
   22d0e:	2600      	movs	r6, #0
   22d10:	462a      	mov	r2, r5
   22d12:	4633      	mov	r3, r6
   22d14:	df02      	svc	2
   22d16:	287f      	cmp	r0, #127	@ 0x7f
   22d18:	d80b      	bhi.n	22d32 <_ZN20complex_full_dynamic3app17h9f49336c2fb8e33aE+0x8a>
   22d1a:	9c02      	ldr	r4, [sp, #8]
   22d1c:	6061      	str	r1, [r4, #4]
   22d1e:	2601      	movs	r6, #1
   22d20:	7026      	strb	r6, [r4, #0]
   22d22:	a81f      	add	r0, sp, #124	@ 0x7c
   22d24:	f004 f8f8 	bl	26f18 <_ZN9allow_pin12full_dynamic17unshare_if_shared17hc1e7d593d40bae1cE>
   22d28:	a803      	add	r0, sp, #12
   22d2a:	f004 f8f5 	bl	26f18 <_ZN9allow_pin12full_dynamic17unshare_if_shared17hc1e7d593d40bae1cE>
   22d2e:	b02d      	add	sp, #180	@ 0xb4
   22d30:	bdf0      	pop	{r4, r5, r6, r7, pc}
   22d32:	a803      	add	r0, sp, #12
   22d34:	f004 f8f0 	bl	26f18 <_ZN9allow_pin12full_dynamic17unshare_if_shared17hc1e7d593d40bae1cE>
   22d38:	4625      	mov	r5, r4
   22d3a:	ac1f      	add	r4, sp, #124	@ 0x7c
   22d3c:	4620      	mov	r0, r4
   22d3e:	f004 f8eb 	bl	26f18 <_ZN9allow_pin12full_dynamic17unshare_if_shared17hc1e7d593d40bae1cE>
   22d42:	4620      	mov	r0, r4
   22d44:	f004 f8e8 	bl	26f18 <_ZN9allow_pin12full_dynamic17unshare_if_shared17hc1e7d593d40bae1cE>
   22d48:	9c02      	ldr	r4, [sp, #8]
   22d4a:	1c60      	adds	r0, r4, #1
   22d4c:	222c      	movs	r2, #44	@ 0x2c
   22d4e:	4629      	mov	r1, r5
   22d50:	f004 faa3 	bl	2729a <__aeabi_memcpy>
   22d54:	e7e4      	b.n	22d20 <_ZN20complex_full_dynamic3app17h9f49336c2fb8e33aE+0x78>
   22d56:	d4d4      	bmi.n	22d02 <_ZN20complex_full_dynamic3app17h9f49336c2fb8e33aE+0x5a>

00022d58 <_ZN20complex_full_dynamic3app17ha1c93571a5fdb483E>:
   22d58:	b5f0      	push	{r4, r5, r6, r7, lr}
   22d5a:	af03      	add	r7, sp, #12
   22d5c:	b0a3      	sub	sp, #140	@ 0x8c
   22d5e:	9001      	str	r0, [sp, #4]
   22d60:	ac02      	add	r4, sp, #8
   22d62:	2502      	movs	r5, #2
   22d64:	7225      	strb	r5, [r4, #8]
   22d66:	340c      	adds	r4, #12
   22d68:	2250      	movs	r2, #80	@ 0x50
   22d6a:	9200      	str	r2, [sp, #0]
   22d6c:	4620      	mov	r0, r4
   22d6e:	f004 fa94 	bl	2729a <__aeabi_memcpy>
   22d72:	a819      	add	r0, sp, #100	@ 0x64
   22d74:	4606      	mov	r6, r0
   22d76:	360c      	adds	r6, #12
   22d78:	2100      	movs	r1, #0
   22d7a:	76b1      	strb	r1, [r6, #26]
   22d7c:	8481      	strh	r1, [r0, #36]	@ 0x24
   22d7e:	7205      	strb	r5, [r0, #8]
   22d80:	9121      	str	r1, [sp, #132]	@ 0x84
   22d82:	9120      	str	r1, [sp, #128]	@ 0x80
   22d84:	911f      	str	r1, [sp, #124]	@ 0x7c
   22d86:	911e      	str	r1, [sp, #120]	@ 0x78
   22d88:	911d      	str	r1, [sp, #116]	@ 0x74
   22d8a:	911c      	str	r1, [sp, #112]	@ 0x70
   22d8c:	4822      	ldr	r0, [pc, #136]	@ (22e18 <_ZN20complex_full_dynamic3app17ha1c93571a5fdb483E+0xc0>)
   22d8e:	2501      	movs	r5, #1
   22d90:	4629      	mov	r1, r5
   22d92:	4622      	mov	r2, r4
   22d94:	9b00      	ldr	r3, [sp, #0]
   22d96:	df04      	svc	4
   22d98:	2802      	cmp	r0, #2
   22d9a:	d101      	bne.n	22da0 <_ZN20complex_full_dynamic3app17ha1c93571a5fdb483E+0x48>
   22d9c:	462c      	mov	r4, r5
   22d9e:	e00d      	b.n	22dbc <_ZN20complex_full_dynamic3app17ha1c93571a5fdb483E+0x64>
   22da0:	a802      	add	r0, sp, #8
   22da2:	2104      	movs	r1, #4
   22da4:	7201      	strb	r1, [r0, #8]
   22da6:	462c      	mov	r4, r5
   22da8:	9503      	str	r5, [sp, #12]
   22daa:	481b      	ldr	r0, [pc, #108]	@ (22e18 <_ZN20complex_full_dynamic3app17ha1c93571a5fdb483E+0xc0>)
   22dac:	9002      	str	r0, [sp, #8]
   22dae:	2502      	movs	r5, #2
   22db0:	231b      	movs	r3, #27
   22db2:	4629      	mov	r1, r5
   22db4:	4632      	mov	r2, r6
   22db6:	df03      	svc	3
   22db8:	2802      	cmp	r0, #2
   22dba:	d10a      	bne.n	22dd2 <_ZN20complex_full_dynamic3app17ha1c93571a5fdb483E+0x7a>
   22dbc:	9d01      	ldr	r5, [sp, #4]
   22dbe:	6069      	str	r1, [r5, #4]
   22dc0:	702c      	strb	r4, [r5, #0]
   22dc2:	a819      	add	r0, sp, #100	@ 0x64
   22dc4:	f004 f8a8 	bl	26f18 <_ZN9allow_pin12full_dynamic17unshare_if_shared17hc1e7d593d40bae1cE>
   22dc8:	a802      	add	r0, sp, #8
   22dca:	f004 f8a5 	bl	26f18 <_ZN9allow_pin12full_dynamic17unshare_if_shared17hc1e7d593d40bae1cE>
   22dce:	b023      	add	sp, #140	@ 0x8c
   22dd0:	bdf0      	pop	{r4, r5, r6, r7, pc}
   22dd2:	9600      	str	r6, [sp, #0]
   22dd4:	a819      	add	r0, sp, #100	@ 0x64
   22dd6:	2103      	movs	r1, #3
   22dd8:	7201      	strb	r1, [r0, #8]
   22dda:	480f      	ldr	r0, [pc, #60]	@ (22e18 <_ZN20complex_full_dynamic3app17ha1c93571a5fdb483E+0xc0>)
   22ddc:	9019      	str	r0, [sp, #100]	@ 0x64
   22dde:	951a      	str	r5, [sp, #104]	@ 0x68
   22de0:	2101      	movs	r1, #1
   22de2:	2600      	movs	r6, #0
   22de4:	462a      	mov	r2, r5
   22de6:	4633      	mov	r3, r6
   22de8:	df02      	svc	2
   22dea:	287f      	cmp	r0, #127	@ 0x7f
   22dec:	9d01      	ldr	r5, [sp, #4]
   22dee:	d801      	bhi.n	22df4 <_ZN20complex_full_dynamic3app17ha1c93571a5fdb483E+0x9c>
   22df0:	6069      	str	r1, [r5, #4]
   22df2:	e7e5      	b.n	22dc0 <_ZN20complex_full_dynamic3app17ha1c93571a5fdb483E+0x68>
   22df4:	a802      	add	r0, sp, #8
   22df6:	f004 f88f 	bl	26f18 <_ZN9allow_pin12full_dynamic17unshare_if_shared17hc1e7d593d40bae1cE>
   22dfa:	4634      	mov	r4, r6
   22dfc:	ae19      	add	r6, sp, #100	@ 0x64
   22dfe:	4630      	mov	r0, r6
   22e00:	f004 f88a 	bl	26f18 <_ZN9allow_pin12full_dynamic17unshare_if_shared17hc1e7d593d40bae1cE>
   22e04:	4630      	mov	r0, r6
   22e06:	f004 f887 	bl	26f18 <_ZN9allow_pin12full_dynamic17unshare_if_shared17hc1e7d593d40bae1cE>
   22e0a:	1c68      	adds	r0, r5, #1
   22e0c:	221b      	movs	r2, #27
   22e0e:	9900      	ldr	r1, [sp, #0]
   22e10:	f004 fa43 	bl	2729a <__aeabi_memcpy>
   22e14:	e7d4      	b.n	22dc0 <_ZN20complex_full_dynamic3app17ha1c93571a5fdb483E+0x68>
   22e16:	46c0      	nop			@ (mov r8, r8)
   22e18:	000003d9 	.word	0x000003d9

00022e1c <_ZN20complex_full_dynamic3app17ha37387aabe656808E>:
   22e1c:	b5f0      	push	{r4, r5, r6, r7, lr}
   22e1e:	af03      	add	r7, sp, #12
   22e20:	b0a5      	sub	sp, #148	@ 0x94
   22e22:	9003      	str	r0, [sp, #12]
   22e24:	ae04      	add	r6, sp, #16
   22e26:	2002      	movs	r0, #2
   22e28:	9001      	str	r0, [sp, #4]
   22e2a:	7230      	strb	r0, [r6, #8]
   22e2c:	360c      	adds	r6, #12
   22e2e:	2238      	movs	r2, #56	@ 0x38
   22e30:	9202      	str	r2, [sp, #8]
   22e32:	4630      	mov	r0, r6
   22e34:	f004 fa31 	bl	2729a <__aeabi_memcpy>
   22e38:	ad15      	add	r5, sp, #84	@ 0x54
   22e3a:	462c      	mov	r4, r5
   22e3c:	340c      	adds	r4, #12
   22e3e:	2134      	movs	r1, #52	@ 0x34
   22e40:	4620      	mov	r0, r4
   22e42:	f004 f87d 	bl	26f40 <__aeabi_memclr4>
   22e46:	9801      	ldr	r0, [sp, #4]
   22e48:	7228      	strb	r0, [r5, #8]
   22e4a:	2097      	movs	r0, #151	@ 0x97
   22e4c:	0040      	lsls	r0, r0, #1
   22e4e:	2508      	movs	r5, #8
   22e50:	9001      	str	r0, [sp, #4]
   22e52:	4629      	mov	r1, r5
   22e54:	4632      	mov	r2, r6
   22e56:	9b02      	ldr	r3, [sp, #8]
   22e58:	df04      	svc	4
   22e5a:	2802      	cmp	r0, #2
   22e5c:	d018      	beq.n	22e90 <_ZN20complex_full_dynamic3app17ha37387aabe656808E+0x74>
   22e5e:	a804      	add	r0, sp, #16
   22e60:	2104      	movs	r1, #4
   22e62:	7201      	strb	r1, [r0, #8]
   22e64:	9505      	str	r5, [sp, #20]
   22e66:	9801      	ldr	r0, [sp, #4]
   22e68:	9004      	str	r0, [sp, #16]
   22e6a:	2503      	movs	r5, #3
   22e6c:	2334      	movs	r3, #52	@ 0x34
   22e6e:	4629      	mov	r1, r5
   22e70:	4622      	mov	r2, r4
   22e72:	df03      	svc	3
   22e74:	2802      	cmp	r0, #2
   22e76:	d00b      	beq.n	22e90 <_ZN20complex_full_dynamic3app17ha37387aabe656808E+0x74>
   22e78:	a815      	add	r0, sp, #84	@ 0x54
   22e7a:	7205      	strb	r5, [r0, #8]
   22e7c:	9516      	str	r5, [sp, #88]	@ 0x58
   22e7e:	9801      	ldr	r0, [sp, #4]
   22e80:	9015      	str	r0, [sp, #84]	@ 0x54
   22e82:	2108      	movs	r1, #8
   22e84:	2600      	movs	r6, #0
   22e86:	462a      	mov	r2, r5
   22e88:	4633      	mov	r3, r6
   22e8a:	df02      	svc	2
   22e8c:	287f      	cmp	r0, #127	@ 0x7f
   22e8e:	d80b      	bhi.n	22ea8 <_ZN20complex_full_dynamic3app17ha37387aabe656808E+0x8c>
   22e90:	9c03      	ldr	r4, [sp, #12]
   22e92:	6061      	str	r1, [r4, #4]
   22e94:	2601      	movs	r6, #1
   22e96:	7026      	strb	r6, [r4, #0]
   22e98:	a815      	add	r0, sp, #84	@ 0x54
   22e9a:	f004 f83d 	bl	26f18 <_ZN9allow_pin12full_dynamic17unshare_if_shared17hc1e7d593d40bae1cE>
   22e9e:	a804      	add	r0, sp, #16
   22ea0:	f004 f83a 	bl	26f18 <_ZN9allow_pin12full_dynamic17unshare_if_shared17hc1e7d593d40bae1cE>
   22ea4:	b025      	add	sp, #148	@ 0x94
   22ea6:	bdf0      	pop	{r4, r5, r6, r7, pc}
   22ea8:	a804      	add	r0, sp, #16
   22eaa:	f004 f835 	bl	26f18 <_ZN9allow_pin12full_dynamic17unshare_if_shared17hc1e7d593d40bae1cE>
   22eae:	4625      	mov	r5, r4
   22eb0:	ac15      	add	r4, sp, #84	@ 0x54
   22eb2:	4620      	mov	r0, r4
   22eb4:	f004 f830 	bl	26f18 <_ZN9allow_pin12full_dynamic17unshare_if_shared17hc1e7d593d40bae1cE>
   22eb8:	4620      	mov	r0, r4
   22eba:	f004 f82d 	bl	26f18 <_ZN9allow_pin12full_dynamic17unshare_if_shared17hc1e7d593d40bae1cE>
   22ebe:	9c03      	ldr	r4, [sp, #12]
   22ec0:	1c60      	adds	r0, r4, #1
   22ec2:	2234      	movs	r2, #52	@ 0x34
   22ec4:	4629      	mov	r1, r5
   22ec6:	f004 f9e8 	bl	2729a <__aeabi_memcpy>
   22eca:	e7e4      	b.n	22e96 <_ZN20complex_full_dynamic3app17ha37387aabe656808E+0x7a>

00022ecc <_ZN20complex_full_dynamic3app17habba4dc8613e832fE>:
   22ecc:	b5f0      	push	{r4, r5, r6, r7, lr}
   22ece:	af03      	add	r7, sp, #12
   22ed0:	b09b      	sub	sp, #108	@ 0x6c
   22ed2:	9002      	str	r0, [sp, #8]
   22ed4:	ac03      	add	r4, sp, #12
   22ed6:	2002      	movs	r0, #2
   22ed8:	9001      	str	r0, [sp, #4]
   22eda:	7220      	strb	r0, [r4, #8]
   22edc:	340c      	adds	r4, #12
   22ede:	2223      	movs	r2, #35	@ 0x23
   22ee0:	9200      	str	r2, [sp, #0]
   22ee2:	4620      	mov	r0, r4
   22ee4:	f004 f9d9 	bl	2729a <__aeabi_memcpy>
   22ee8:	ae0f      	add	r6, sp, #60	@ 0x3c
   22eea:	4635      	mov	r5, r6
   22eec:	350c      	adds	r5, #12
   22eee:	2124      	movs	r1, #36	@ 0x24
   22ef0:	4628      	mov	r0, r5
   22ef2:	f004 f825 	bl	26f40 <__aeabi_memclr4>
   22ef6:	9801      	ldr	r0, [sp, #4]
   22ef8:	7230      	strb	r0, [r6, #8]
   22efa:	481f      	ldr	r0, [pc, #124]	@ (22f78 <_ZN20complex_full_dynamic3app17habba4dc8613e832fE+0xac>)
   22efc:	2604      	movs	r6, #4
   22efe:	4631      	mov	r1, r6
   22f00:	4622      	mov	r2, r4
   22f02:	9b00      	ldr	r3, [sp, #0]
   22f04:	df04      	svc	4
   22f06:	2802      	cmp	r0, #2
   22f08:	d019      	beq.n	22f3e <_ZN20complex_full_dynamic3app17habba4dc8613e832fE+0x72>
   22f0a:	a803      	add	r0, sp, #12
   22f0c:	7206      	strb	r6, [r0, #8]
   22f0e:	9604      	str	r6, [sp, #16]
   22f10:	4e19      	ldr	r6, [pc, #100]	@ (22f78 <_ZN20complex_full_dynamic3app17habba4dc8613e832fE+0xac>)
   22f12:	9603      	str	r6, [sp, #12]
   22f14:	2408      	movs	r4, #8
   22f16:	2324      	movs	r3, #36	@ 0x24
   22f18:	4630      	mov	r0, r6
   22f1a:	4621      	mov	r1, r4
   22f1c:	462a      	mov	r2, r5
   22f1e:	df03      	svc	3
   22f20:	2802      	cmp	r0, #2
   22f22:	d00c      	beq.n	22f3e <_ZN20complex_full_dynamic3app17habba4dc8613e832fE+0x72>
   22f24:	a80f      	add	r0, sp, #60	@ 0x3c
   22f26:	2103      	movs	r1, #3
   22f28:	7201      	strb	r1, [r0, #8]
   22f2a:	960f      	str	r6, [sp, #60]	@ 0x3c
   22f2c:	9410      	str	r4, [sp, #64]	@ 0x40
   22f2e:	4812      	ldr	r0, [pc, #72]	@ (22f78 <_ZN20complex_full_dynamic3app17habba4dc8613e832fE+0xac>)
   22f30:	2104      	movs	r1, #4
   22f32:	2600      	movs	r6, #0
   22f34:	4622      	mov	r2, r4
   22f36:	4633      	mov	r3, r6
   22f38:	df02      	svc	2
   22f3a:	287f      	cmp	r0, #127	@ 0x7f
   22f3c:	d80b      	bhi.n	22f56 <_ZN20complex_full_dynamic3app17habba4dc8613e832fE+0x8a>
   22f3e:	9c02      	ldr	r4, [sp, #8]
   22f40:	6061      	str	r1, [r4, #4]
   22f42:	2601      	movs	r6, #1
   22f44:	7026      	strb	r6, [r4, #0]
   22f46:	a80f      	add	r0, sp, #60	@ 0x3c
   22f48:	f003 ffe6 	bl	26f18 <_ZN9allow_pin12full_dynamic17unshare_if_shared17hc1e7d593d40bae1cE>
   22f4c:	a803      	add	r0, sp, #12
   22f4e:	f003 ffe3 	bl	26f18 <_ZN9allow_pin12full_dynamic17unshare_if_shared17hc1e7d593d40bae1cE>
   22f52:	b01b      	add	sp, #108	@ 0x6c
   22f54:	bdf0      	pop	{r4, r5, r6, r7, pc}
   22f56:	a803      	add	r0, sp, #12
   22f58:	f003 ffde 	bl	26f18 <_ZN9allow_pin12full_dynamic17unshare_if_shared17hc1e7d593d40bae1cE>
   22f5c:	ac0f      	add	r4, sp, #60	@ 0x3c
   22f5e:	4620      	mov	r0, r4
   22f60:	f003 ffda 	bl	26f18 <_ZN9allow_pin12full_dynamic17unshare_if_shared17hc1e7d593d40bae1cE>
   22f64:	4620      	mov	r0, r4
   22f66:	f003 ffd7 	bl	26f18 <_ZN9allow_pin12full_dynamic17unshare_if_shared17hc1e7d593d40bae1cE>
   22f6a:	9c02      	ldr	r4, [sp, #8]
   22f6c:	1c60      	adds	r0, r4, #1
   22f6e:	2224      	movs	r2, #36	@ 0x24
   22f70:	4629      	mov	r1, r5
   22f72:	f004 f992 	bl	2729a <__aeabi_memcpy>
   22f76:	e7e5      	b.n	22f44 <_ZN20complex_full_dynamic3app17habba4dc8613e832fE+0x78>
   22f78:	00001bd6 	.word	0x00001bd6

00022f7c <_ZN20complex_full_dynamic3app17hb14b343f1a95f1c3E>:
   22f7c:	b5f0      	push	{r4, r5, r6, r7, lr}
   22f7e:	af03      	add	r7, sp, #12
   22f80:	b097      	sub	sp, #92	@ 0x5c
   22f82:	9002      	str	r0, [sp, #8]
   22f84:	ac03      	add	r4, sp, #12
   22f86:	2502      	movs	r5, #2
   22f88:	7225      	strb	r5, [r4, #8]
   22f8a:	340c      	adds	r4, #12
   22f8c:	2218      	movs	r2, #24
   22f8e:	9201      	str	r2, [sp, #4]
   22f90:	4620      	mov	r0, r4
   22f92:	f004 f982 	bl	2729a <__aeabi_memcpy>
   22f96:	ae0c      	add	r6, sp, #48	@ 0x30
   22f98:	2000      	movs	r0, #0
   22f9a:	8530      	strh	r0, [r6, #40]	@ 0x28
   22f9c:	7235      	strb	r5, [r6, #8]
   22f9e:	9015      	str	r0, [sp, #84]	@ 0x54
   22fa0:	9014      	str	r0, [sp, #80]	@ 0x50
   22fa2:	9013      	str	r0, [sp, #76]	@ 0x4c
   22fa4:	9012      	str	r0, [sp, #72]	@ 0x48
   22fa6:	9011      	str	r0, [sp, #68]	@ 0x44
   22fa8:	9010      	str	r0, [sp, #64]	@ 0x40
   22faa:	900f      	str	r0, [sp, #60]	@ 0x3c
   22fac:	4820      	ldr	r0, [pc, #128]	@ (23030 <_ZN20complex_full_dynamic3app17hb14b343f1a95f1c3E+0xb4>)
   22fae:	2509      	movs	r5, #9
   22fb0:	4629      	mov	r1, r5
   22fb2:	4622      	mov	r2, r4
   22fb4:	9b01      	ldr	r3, [sp, #4]
   22fb6:	df04      	svc	4
   22fb8:	2802      	cmp	r0, #2
   22fba:	d01b      	beq.n	22ff4 <_ZN20complex_full_dynamic3app17hb14b343f1a95f1c3E+0x78>
   22fbc:	360c      	adds	r6, #12
   22fbe:	a803      	add	r0, sp, #12
   22fc0:	2104      	movs	r1, #4
   22fc2:	7201      	strb	r1, [r0, #8]
   22fc4:	9504      	str	r5, [sp, #16]
   22fc6:	481a      	ldr	r0, [pc, #104]	@ (23030 <_ZN20complex_full_dynamic3app17hb14b343f1a95f1c3E+0xb4>)
   22fc8:	9003      	str	r0, [sp, #12]
   22fca:	2405      	movs	r4, #5
   22fcc:	231e      	movs	r3, #30
   22fce:	4621      	mov	r1, r4
   22fd0:	4632      	mov	r2, r6
   22fd2:	df03      	svc	3
   22fd4:	2802      	cmp	r0, #2
   22fd6:	d00d      	beq.n	22ff4 <_ZN20complex_full_dynamic3app17hb14b343f1a95f1c3E+0x78>
   22fd8:	4635      	mov	r5, r6
   22fda:	a80c      	add	r0, sp, #48	@ 0x30
   22fdc:	2103      	movs	r1, #3
   22fde:	7201      	strb	r1, [r0, #8]
   22fe0:	4813      	ldr	r0, [pc, #76]	@ (23030 <_ZN20complex_full_dynamic3app17hb14b343f1a95f1c3E+0xb4>)
   22fe2:	900c      	str	r0, [sp, #48]	@ 0x30
   22fe4:	940d      	str	r4, [sp, #52]	@ 0x34
   22fe6:	2109      	movs	r1, #9
   22fe8:	2600      	movs	r6, #0
   22fea:	4622      	mov	r2, r4
   22fec:	4633      	mov	r3, r6
   22fee:	df02      	svc	2
   22ff0:	287f      	cmp	r0, #127	@ 0x7f
   22ff2:	d80b      	bhi.n	2300c <_ZN20complex_full_dynamic3app17hb14b343f1a95f1c3E+0x90>
   22ff4:	9c02      	ldr	r4, [sp, #8]
   22ff6:	6061      	str	r1, [r4, #4]
   22ff8:	2601      	movs	r6, #1
   22ffa:	7026      	strb	r6, [r4, #0]
   22ffc:	a80c      	add	r0, sp, #48	@ 0x30
   22ffe:	f003 ff8b 	bl	26f18 <_ZN9allow_pin12full_dynamic17unshare_if_shared17hc1e7d593d40bae1cE>
   23002:	a803      	add	r0, sp, #12
   23004:	f003 ff88 	bl	26f18 <_ZN9allow_pin12full_dynamic17unshare_if_shared17hc1e7d593d40bae1cE>
   23008:	b017      	add	sp, #92	@ 0x5c
   2300a:	bdf0      	pop	{r4, r5, r6, r7, pc}
   2300c:	a803      	add	r0, sp, #12
   2300e:	f003 ff83 	bl	26f18 <_ZN9allow_pin12full_dynamic17unshare_if_shared17hc1e7d593d40bae1cE>
   23012:	ac0c      	add	r4, sp, #48	@ 0x30
   23014:	4620      	mov	r0, r4
   23016:	f003 ff7f 	bl	26f18 <_ZN9allow_pin12full_dynamic17unshare_if_shared17hc1e7d593d40bae1cE>
   2301a:	4620      	mov	r0, r4
   2301c:	f003 ff7c 	bl	26f18 <_ZN9allow_pin12full_dynamic17unshare_if_shared17hc1e7d593d40bae1cE>
   23020:	9c02      	ldr	r4, [sp, #8]
   23022:	1c60      	adds	r0, r4, #1
   23024:	221e      	movs	r2, #30
   23026:	4629      	mov	r1, r5
   23028:	f004 f937 	bl	2729a <__aeabi_memcpy>
   2302c:	e7e5      	b.n	22ffa <_ZN20complex_full_dynamic3app17hb14b343f1a95f1c3E+0x7e>
   2302e:	46c0      	nop			@ (mov r8, r8)
   23030:	00000cbb 	.word	0x00000cbb

00023034 <_ZN20complex_full_dynamic3app17hb185b873d08548d1E>:
   23034:	b5f0      	push	{r4, r5, r6, r7, lr}
   23036:	af03      	add	r7, sp, #12
   23038:	b09f      	sub	sp, #124	@ 0x7c
   2303a:	9002      	str	r0, [sp, #8]
   2303c:	ae03      	add	r6, sp, #12
   2303e:	2002      	movs	r0, #2
   23040:	9001      	str	r0, [sp, #4]
   23042:	7230      	strb	r0, [r6, #8]
   23044:	360c      	adds	r6, #12
   23046:	220e      	movs	r2, #14
   23048:	9200      	str	r2, [sp, #0]
   2304a:	4630      	mov	r0, r6
   2304c:	f004 f925 	bl	2729a <__aeabi_memcpy>
   23050:	ad0a      	add	r5, sp, #40	@ 0x28
   23052:	462c      	mov	r4, r5
   23054:	340c      	adds	r4, #12
   23056:	2148      	movs	r1, #72	@ 0x48
   23058:	4620      	mov	r0, r4
   2305a:	f003 ff71 	bl	26f40 <__aeabi_memclr4>
   2305e:	9801      	ldr	r0, [sp, #4]
   23060:	7228      	strb	r0, [r5, #8]
   23062:	4820      	ldr	r0, [pc, #128]	@ (230e4 <_ZN20complex_full_dynamic3app17hb185b873d08548d1E+0xb0>)
   23064:	2503      	movs	r5, #3
   23066:	4629      	mov	r1, r5
   23068:	4632      	mov	r2, r6
   2306a:	9b00      	ldr	r3, [sp, #0]
   2306c:	df04      	svc	4
   2306e:	2802      	cmp	r0, #2
   23070:	d01a      	beq.n	230a8 <_ZN20complex_full_dynamic3app17hb185b873d08548d1E+0x74>
   23072:	a803      	add	r0, sp, #12
   23074:	2104      	movs	r1, #4
   23076:	7201      	strb	r1, [r0, #8]
   23078:	9504      	str	r5, [sp, #16]
   2307a:	4e1a      	ldr	r6, [pc, #104]	@ (230e4 <_ZN20complex_full_dynamic3app17hb185b873d08548d1E+0xb0>)
   2307c:	9603      	str	r6, [sp, #12]
   2307e:	2108      	movs	r1, #8
   23080:	2348      	movs	r3, #72	@ 0x48
   23082:	4630      	mov	r0, r6
   23084:	9101      	str	r1, [sp, #4]
   23086:	4622      	mov	r2, r4
   23088:	df03      	svc	3
   2308a:	2802      	cmp	r0, #2
   2308c:	d00c      	beq.n	230a8 <_ZN20complex_full_dynamic3app17hb185b873d08548d1E+0x74>
   2308e:	9400      	str	r4, [sp, #0]
   23090:	a80a      	add	r0, sp, #40	@ 0x28
   23092:	7205      	strb	r5, [r0, #8]
   23094:	960a      	str	r6, [sp, #40]	@ 0x28
   23096:	9a01      	ldr	r2, [sp, #4]
   23098:	920b      	str	r2, [sp, #44]	@ 0x2c
   2309a:	4812      	ldr	r0, [pc, #72]	@ (230e4 <_ZN20complex_full_dynamic3app17hb185b873d08548d1E+0xb0>)
   2309c:	2600      	movs	r6, #0
   2309e:	4629      	mov	r1, r5
   230a0:	4633      	mov	r3, r6
   230a2:	df02      	svc	2
   230a4:	287f      	cmp	r0, #127	@ 0x7f
   230a6:	d80b      	bhi.n	230c0 <_ZN20complex_full_dynamic3app17hb185b873d08548d1E+0x8c>
   230a8:	9c02      	ldr	r4, [sp, #8]
   230aa:	6061      	str	r1, [r4, #4]
   230ac:	2601      	movs	r6, #1
   230ae:	7026      	strb	r6, [r4, #0]
   230b0:	a80a      	add	r0, sp, #40	@ 0x28
   230b2:	f003 ff31 	bl	26f18 <_ZN9allow_pin12full_dynamic17unshare_if_shared17hc1e7d593d40bae1cE>
   230b6:	a803      	add	r0, sp, #12
   230b8:	f003 ff2e 	bl	26f18 <_ZN9allow_pin12full_dynamic17unshare_if_shared17hc1e7d593d40bae1cE>
   230bc:	b01f      	add	sp, #124	@ 0x7c
   230be:	bdf0      	pop	{r4, r5, r6, r7, pc}
   230c0:	a803      	add	r0, sp, #12
   230c2:	f003 ff29 	bl	26f18 <_ZN9allow_pin12full_dynamic17unshare_if_shared17hc1e7d593d40bae1cE>
   230c6:	ac0a      	add	r4, sp, #40	@ 0x28
   230c8:	4620      	mov	r0, r4
   230ca:	f003 ff25 	bl	26f18 <_ZN9allow_pin12full_dynamic17unshare_if_shared17hc1e7d593d40bae1cE>
   230ce:	4620      	mov	r0, r4
   230d0:	f003 ff22 	bl	26f18 <_ZN9allow_pin12full_dynamic17unshare_if_shared17hc1e7d593d40bae1cE>
   230d4:	9c02      	ldr	r4, [sp, #8]
   230d6:	1c60      	adds	r0, r4, #1
   230d8:	2248      	movs	r2, #72	@ 0x48
   230da:	9900      	ldr	r1, [sp, #0]
   230dc:	f004 f8dd 	bl	2729a <__aeabi_memcpy>
   230e0:	e7e5      	b.n	230ae <_ZN20complex_full_dynamic3app17hb185b873d08548d1E+0x7a>
   230e2:	46c0      	nop			@ (mov r8, r8)
   230e4:	000012d1 	.word	0x000012d1

000230e8 <_ZN20complex_full_dynamic3app17hb26bea5adc2cfc68E>:
   230e8:	b5f0      	push	{r4, r5, r6, r7, lr}
   230ea:	af03      	add	r7, sp, #12
   230ec:	b0a9      	sub	sp, #164	@ 0xa4
   230ee:	9002      	str	r0, [sp, #8]
   230f0:	ae03      	add	r6, sp, #12
   230f2:	2002      	movs	r0, #2
   230f4:	9001      	str	r0, [sp, #4]
   230f6:	7230      	strb	r0, [r6, #8]
   230f8:	360c      	adds	r6, #12
   230fa:	221b      	movs	r2, #27
   230fc:	9200      	str	r2, [sp, #0]
   230fe:	4630      	mov	r0, r6
   23100:	f004 f8cb 	bl	2729a <__aeabi_memcpy>
   23104:	ad0d      	add	r5, sp, #52	@ 0x34
   23106:	462c      	mov	r4, r5
   23108:	340c      	adds	r4, #12
   2310a:	2163      	movs	r1, #99	@ 0x63
   2310c:	4620      	mov	r0, r4
   2310e:	f003 ff17 	bl	26f40 <__aeabi_memclr4>
   23112:	9801      	ldr	r0, [sp, #4]
   23114:	7228      	strb	r0, [r5, #8]
   23116:	481f      	ldr	r0, [pc, #124]	@ (23194 <_ZN20complex_full_dynamic3app17hb26bea5adc2cfc68E+0xac>)
   23118:	2503      	movs	r5, #3
   2311a:	4629      	mov	r1, r5
   2311c:	4632      	mov	r2, r6
   2311e:	9b00      	ldr	r3, [sp, #0]
   23120:	df04      	svc	4
   23122:	2802      	cmp	r0, #2
   23124:	d018      	beq.n	23158 <_ZN20complex_full_dynamic3app17hb26bea5adc2cfc68E+0x70>
   23126:	a803      	add	r0, sp, #12
   23128:	2104      	movs	r1, #4
   2312a:	7201      	strb	r1, [r0, #8]
   2312c:	4e19      	ldr	r6, [pc, #100]	@ (23194 <_ZN20complex_full_dynamic3app17hb26bea5adc2cfc68E+0xac>)
   2312e:	9603      	str	r6, [sp, #12]
   23130:	9504      	str	r5, [sp, #16]
   23132:	2363      	movs	r3, #99	@ 0x63
   23134:	4630      	mov	r0, r6
   23136:	4629      	mov	r1, r5
   23138:	4622      	mov	r2, r4
   2313a:	df03      	svc	3
   2313c:	2802      	cmp	r0, #2
   2313e:	d00b      	beq.n	23158 <_ZN20complex_full_dynamic3app17hb26bea5adc2cfc68E+0x70>
   23140:	a80d      	add	r0, sp, #52	@ 0x34
   23142:	7205      	strb	r5, [r0, #8]
   23144:	950e      	str	r5, [sp, #56]	@ 0x38
   23146:	960d      	str	r6, [sp, #52]	@ 0x34
   23148:	4812      	ldr	r0, [pc, #72]	@ (23194 <_ZN20complex_full_dynamic3app17hb26bea5adc2cfc68E+0xac>)
   2314a:	2600      	movs	r6, #0
   2314c:	4629      	mov	r1, r5
   2314e:	462a      	mov	r2, r5
   23150:	4633      	mov	r3, r6
   23152:	df02      	svc	2
   23154:	287f      	cmp	r0, #127	@ 0x7f
   23156:	d80b      	bhi.n	23170 <_ZN20complex_full_dynamic3app17hb26bea5adc2cfc68E+0x88>
   23158:	9c02      	ldr	r4, [sp, #8]
   2315a:	6061      	str	r1, [r4, #4]
   2315c:	2601      	movs	r6, #1
   2315e:	7026      	strb	r6, [r4, #0]
   23160:	a80d      	add	r0, sp, #52	@ 0x34
   23162:	f003 fed9 	bl	26f18 <_ZN9allow_pin12full_dynamic17unshare_if_shared17hc1e7d593d40bae1cE>
   23166:	a803      	add	r0, sp, #12
   23168:	f003 fed6 	bl	26f18 <_ZN9allow_pin12full_dynamic17unshare_if_shared17hc1e7d593d40bae1cE>
   2316c:	b029      	add	sp, #164	@ 0xa4
   2316e:	bdf0      	pop	{r4, r5, r6, r7, pc}
   23170:	a803      	add	r0, sp, #12
   23172:	f003 fed1 	bl	26f18 <_ZN9allow_pin12full_dynamic17unshare_if_shared17hc1e7d593d40bae1cE>
   23176:	4625      	mov	r5, r4
   23178:	ac0d      	add	r4, sp, #52	@ 0x34
   2317a:	4620      	mov	r0, r4
   2317c:	f003 fecc 	bl	26f18 <_ZN9allow_pin12full_dynamic17unshare_if_shared17hc1e7d593d40bae1cE>
   23180:	4620      	mov	r0, r4
   23182:	f003 fec9 	bl	26f18 <_ZN9allow_pin12full_dynamic17unshare_if_shared17hc1e7d593d40bae1cE>
   23186:	9c02      	ldr	r4, [sp, #8]
   23188:	1c60      	adds	r0, r4, #1
   2318a:	2263      	movs	r2, #99	@ 0x63
   2318c:	4629      	mov	r1, r5
   2318e:	f004 f884 	bl	2729a <__aeabi_memcpy>
   23192:	e7e4      	b.n	2315e <_ZN20complex_full_dynamic3app17hb26bea5adc2cfc68E+0x76>
   23194:	00002548 	.word	0x00002548

00023198 <_ZN20complex_full_dynamic3app17hb29be103d92adbaeE>:
   23198:	b5f0      	push	{r4, r5, r6, r7, lr}
   2319a:	af03      	add	r7, sp, #12
   2319c:	b0a1      	sub	sp, #132	@ 0x84
   2319e:	9002      	str	r0, [sp, #8]
   231a0:	ae03      	add	r6, sp, #12
   231a2:	2002      	movs	r0, #2
   231a4:	9000      	str	r0, [sp, #0]
   231a6:	7230      	strb	r0, [r6, #8]
   231a8:	360c      	adds	r6, #12
   231aa:	221b      	movs	r2, #27
   231ac:	9201      	str	r2, [sp, #4]
   231ae:	4630      	mov	r0, r6
   231b0:	f004 f873 	bl	2729a <__aeabi_memcpy>
   231b4:	ad0d      	add	r5, sp, #52	@ 0x34
   231b6:	462c      	mov	r4, r5
   231b8:	340c      	adds	r4, #12
   231ba:	2141      	movs	r1, #65	@ 0x41
   231bc:	4620      	mov	r0, r4
   231be:	f003 febf 	bl	26f40 <__aeabi_memclr4>
   231c2:	9800      	ldr	r0, [sp, #0]
   231c4:	7228      	strb	r0, [r5, #8]
   231c6:	2005      	movs	r0, #5
   231c8:	0180      	lsls	r0, r0, #6
   231ca:	2508      	movs	r5, #8
   231cc:	9000      	str	r0, [sp, #0]
   231ce:	4629      	mov	r1, r5
   231d0:	4632      	mov	r2, r6
   231d2:	9b01      	ldr	r3, [sp, #4]
   231d4:	df04      	svc	4
   231d6:	2802      	cmp	r0, #2
   231d8:	d019      	beq.n	2320e <_ZN20complex_full_dynamic3app17hb29be103d92adbaeE+0x76>
   231da:	a803      	add	r0, sp, #12
   231dc:	2104      	movs	r1, #4
   231de:	7201      	strb	r1, [r0, #8]
   231e0:	9504      	str	r5, [sp, #16]
   231e2:	9800      	ldr	r0, [sp, #0]
   231e4:	9003      	str	r0, [sp, #12]
   231e6:	2509      	movs	r5, #9
   231e8:	2341      	movs	r3, #65	@ 0x41
   231ea:	4629      	mov	r1, r5
   231ec:	4622      	mov	r2, r4
   231ee:	df03      	svc	3
   231f0:	2802      	cmp	r0, #2
   231f2:	d00c      	beq.n	2320e <_ZN20complex_full_dynamic3app17hb29be103d92adbaeE+0x76>
   231f4:	a80d      	add	r0, sp, #52	@ 0x34
   231f6:	2103      	movs	r1, #3
   231f8:	7201      	strb	r1, [r0, #8]
   231fa:	9800      	ldr	r0, [sp, #0]
   231fc:	900d      	str	r0, [sp, #52]	@ 0x34
   231fe:	950e      	str	r5, [sp, #56]	@ 0x38
   23200:	2108      	movs	r1, #8
   23202:	2600      	movs	r6, #0
   23204:	462a      	mov	r2, r5
   23206:	4633      	mov	r3, r6
   23208:	df02      	svc	2
   2320a:	287f      	cmp	r0, #127	@ 0x7f
   2320c:	d80b      	bhi.n	23226 <_ZN20complex_full_dynamic3app17hb29be103d92adbaeE+0x8e>
   2320e:	9c02      	ldr	r4, [sp, #8]
   23210:	6061      	str	r1, [r4, #4]
   23212:	2601      	movs	r6, #1
   23214:	7026      	strb	r6, [r4, #0]
   23216:	a80d      	add	r0, sp, #52	@ 0x34
   23218:	f003 fe7e 	bl	26f18 <_ZN9allow_pin12full_dynamic17unshare_if_shared17hc1e7d593d40bae1cE>
   2321c:	a803      	add	r0, sp, #12
   2321e:	f003 fe7b 	bl	26f18 <_ZN9allow_pin12full_dynamic17unshare_if_shared17hc1e7d593d40bae1cE>
   23222:	b021      	add	sp, #132	@ 0x84
   23224:	bdf0      	pop	{r4, r5, r6, r7, pc}
   23226:	a803      	add	r0, sp, #12
   23228:	f003 fe76 	bl	26f18 <_ZN9allow_pin12full_dynamic17unshare_if_shared17hc1e7d593d40bae1cE>
   2322c:	4625      	mov	r5, r4
   2322e:	ac0d      	add	r4, sp, #52	@ 0x34
   23230:	4620      	mov	r0, r4
   23232:	f003 fe71 	bl	26f18 <_ZN9allow_pin12full_dynamic17unshare_if_shared17hc1e7d593d40bae1cE>
   23236:	4620      	mov	r0, r4
   23238:	f003 fe6e 	bl	26f18 <_ZN9allow_pin12full_dynamic17unshare_if_shared17hc1e7d593d40bae1cE>
   2323c:	9c02      	ldr	r4, [sp, #8]
   2323e:	1c60      	adds	r0, r4, #1
   23240:	2241      	movs	r2, #65	@ 0x41
   23242:	4629      	mov	r1, r5
   23244:	f004 f829 	bl	2729a <__aeabi_memcpy>
   23248:	e7e4      	b.n	23214 <_ZN20complex_full_dynamic3app17hb29be103d92adbaeE+0x7c>
   2324a:	d4d4      	bmi.n	231f6 <_ZN20complex_full_dynamic3app17hb29be103d92adbaeE+0x5e>

0002324c <_ZN20complex_full_dynamic3app17hb6834925ae42d8eeE>:
   2324c:	b5f0      	push	{r4, r5, r6, r7, lr}
   2324e:	af03      	add	r7, sp, #12
   23250:	b0b1      	sub	sp, #196	@ 0xc4
   23252:	9002      	str	r0, [sp, #8]
   23254:	ac03      	add	r4, sp, #12
   23256:	2002      	movs	r0, #2
   23258:	9001      	str	r0, [sp, #4]
   2325a:	7220      	strb	r0, [r4, #8]
   2325c:	340c      	adds	r4, #12
   2325e:	225d      	movs	r2, #93	@ 0x5d
   23260:	9200      	str	r2, [sp, #0]
   23262:	4620      	mov	r0, r4
   23264:	f004 f819 	bl	2729a <__aeabi_memcpy>
   23268:	ae1e      	add	r6, sp, #120	@ 0x78
   2326a:	4635      	mov	r5, r6
   2326c:	350c      	adds	r5, #12
   2326e:	2140      	movs	r1, #64	@ 0x40
   23270:	4628      	mov	r0, r5
   23272:	f003 fe65 	bl	26f40 <__aeabi_memclr4>
   23276:	9801      	ldr	r0, [sp, #4]
   23278:	7230      	strb	r0, [r6, #8]
   2327a:	481f      	ldr	r0, [pc, #124]	@ (232f8 <_ZN20complex_full_dynamic3app17hb6834925ae42d8eeE+0xac>)
   2327c:	2608      	movs	r6, #8
   2327e:	4631      	mov	r1, r6
   23280:	4622      	mov	r2, r4
   23282:	9b00      	ldr	r3, [sp, #0]
   23284:	df04      	svc	4
   23286:	2802      	cmp	r0, #2
   23288:	d019      	beq.n	232be <_ZN20complex_full_dynamic3app17hb6834925ae42d8eeE+0x72>
   2328a:	a803      	add	r0, sp, #12
   2328c:	2404      	movs	r4, #4
   2328e:	7204      	strb	r4, [r0, #8]
   23290:	9604      	str	r6, [sp, #16]
   23292:	4e19      	ldr	r6, [pc, #100]	@ (232f8 <_ZN20complex_full_dynamic3app17hb6834925ae42d8eeE+0xac>)
   23294:	9603      	str	r6, [sp, #12]
   23296:	2340      	movs	r3, #64	@ 0x40
   23298:	4630      	mov	r0, r6
   2329a:	4621      	mov	r1, r4
   2329c:	462a      	mov	r2, r5
   2329e:	df03      	svc	3
   232a0:	2802      	cmp	r0, #2
   232a2:	d00c      	beq.n	232be <_ZN20complex_full_dynamic3app17hb6834925ae42d8eeE+0x72>
   232a4:	a81e      	add	r0, sp, #120	@ 0x78
   232a6:	2103      	movs	r1, #3
   232a8:	7201      	strb	r1, [r0, #8]
   232aa:	961e      	str	r6, [sp, #120]	@ 0x78
   232ac:	941f      	str	r4, [sp, #124]	@ 0x7c
   232ae:	4812      	ldr	r0, [pc, #72]	@ (232f8 <_ZN20complex_full_dynamic3app17hb6834925ae42d8eeE+0xac>)
   232b0:	2108      	movs	r1, #8
   232b2:	2600      	movs	r6, #0
   232b4:	4622      	mov	r2, r4
   232b6:	4633      	mov	r3, r6
   232b8:	df02      	svc	2
   232ba:	287f      	cmp	r0, #127	@ 0x7f
   232bc:	d80b      	bhi.n	232d6 <_ZN20complex_full_dynamic3app17hb6834925ae42d8eeE+0x8a>
   232be:	9c02      	ldr	r4, [sp, #8]
   232c0:	6061      	str	r1, [r4, #4]
   232c2:	2601      	movs	r6, #1
   232c4:	7026      	strb	r6, [r4, #0]
   232c6:	a81e      	add	r0, sp, #120	@ 0x78
   232c8:	f003 fe26 	bl	26f18 <_ZN9allow_pin12full_dynamic17unshare_if_shared17hc1e7d593d40bae1cE>
   232cc:	a803      	add	r0, sp, #12
   232ce:	f003 fe23 	bl	26f18 <_ZN9allow_pin12full_dynamic17unshare_if_shared17hc1e7d593d40bae1cE>
   232d2:	b031      	add	sp, #196	@ 0xc4
   232d4:	bdf0      	pop	{r4, r5, r6, r7, pc}
   232d6:	a803      	add	r0, sp, #12
   232d8:	f003 fe1e 	bl	26f18 <_ZN9allow_pin12full_dynamic17unshare_if_shared17hc1e7d593d40bae1cE>
   232dc:	ac1e      	add	r4, sp, #120	@ 0x78
   232de:	4620      	mov	r0, r4
   232e0:	f003 fe1a 	bl	26f18 <_ZN9allow_pin12full_dynamic17unshare_if_shared17hc1e7d593d40bae1cE>
   232e4:	4620      	mov	r0, r4
   232e6:	f003 fe17 	bl	26f18 <_ZN9allow_pin12full_dynamic17unshare_if_shared17hc1e7d593d40bae1cE>
   232ea:	9c02      	ldr	r4, [sp, #8]
   232ec:	1c60      	adds	r0, r4, #1
   232ee:	2240      	movs	r2, #64	@ 0x40
   232f0:	4629      	mov	r1, r5
   232f2:	f003 ffd2 	bl	2729a <__aeabi_memcpy>
   232f6:	e7e5      	b.n	232c4 <_ZN20complex_full_dynamic3app17hb6834925ae42d8eeE+0x78>
   232f8:	00001028 	.word	0x00001028

000232fc <_ZN20complex_full_dynamic3app17hb996adb604710b2eE>:
   232fc:	b5f0      	push	{r4, r5, r6, r7, lr}
   232fe:	af03      	add	r7, sp, #12
   23300:	b0a3      	sub	sp, #140	@ 0x8c
   23302:	9003      	str	r0, [sp, #12]
   23304:	ac04      	add	r4, sp, #16
   23306:	2002      	movs	r0, #2
   23308:	9002      	str	r0, [sp, #8]
   2330a:	7220      	strb	r0, [r4, #8]
   2330c:	340c      	adds	r4, #12
   2330e:	2211      	movs	r2, #17
   23310:	9201      	str	r2, [sp, #4]
   23312:	4620      	mov	r0, r4
   23314:	f003 ffc1 	bl	2729a <__aeabi_memcpy>
   23318:	ae0c      	add	r6, sp, #48	@ 0x30
   2331a:	4635      	mov	r5, r6
   2331c:	350c      	adds	r5, #12
   2331e:	2150      	movs	r1, #80	@ 0x50
   23320:	4628      	mov	r0, r5
   23322:	f003 fe0d 	bl	26f40 <__aeabi_memclr4>
   23326:	9802      	ldr	r0, [sp, #8]
   23328:	7230      	strb	r0, [r6, #8]
   2332a:	4820      	ldr	r0, [pc, #128]	@ (233ac <_ZN20complex_full_dynamic3app17hb996adb604710b2eE+0xb0>)
   2332c:	2606      	movs	r6, #6
   2332e:	4631      	mov	r1, r6
   23330:	4622      	mov	r2, r4
   23332:	9b01      	ldr	r3, [sp, #4]
   23334:	df04      	svc	4
   23336:	2802      	cmp	r0, #2
   23338:	d01a      	beq.n	23370 <_ZN20complex_full_dynamic3app17hb996adb604710b2eE+0x74>
   2333a:	a804      	add	r0, sp, #16
   2333c:	2104      	movs	r1, #4
   2333e:	7201      	strb	r1, [r0, #8]
   23340:	9605      	str	r6, [sp, #20]
   23342:	4e1a      	ldr	r6, [pc, #104]	@ (233ac <_ZN20complex_full_dynamic3app17hb996adb604710b2eE+0xb0>)
   23344:	9604      	str	r6, [sp, #16]
   23346:	2405      	movs	r4, #5
   23348:	2350      	movs	r3, #80	@ 0x50
   2334a:	4630      	mov	r0, r6
   2334c:	4621      	mov	r1, r4
   2334e:	462a      	mov	r2, r5
   23350:	df03      	svc	3
   23352:	2802      	cmp	r0, #2
   23354:	d00c      	beq.n	23370 <_ZN20complex_full_dynamic3app17hb996adb604710b2eE+0x74>
   23356:	a80c      	add	r0, sp, #48	@ 0x30
   23358:	2103      	movs	r1, #3
   2335a:	7201      	strb	r1, [r0, #8]
   2335c:	960c      	str	r6, [sp, #48]	@ 0x30
   2335e:	940d      	str	r4, [sp, #52]	@ 0x34
   23360:	4812      	ldr	r0, [pc, #72]	@ (233ac <_ZN20complex_full_dynamic3app17hb996adb604710b2eE+0xb0>)
   23362:	2106      	movs	r1, #6
   23364:	2600      	movs	r6, #0
   23366:	4622      	mov	r2, r4
   23368:	4633      	mov	r3, r6
   2336a:	df02      	svc	2
   2336c:	287f      	cmp	r0, #127	@ 0x7f
   2336e:	d80b      	bhi.n	23388 <_ZN20complex_full_dynamic3app17hb996adb604710b2eE+0x8c>
   23370:	9c03      	ldr	r4, [sp, #12]
   23372:	6061      	str	r1, [r4, #4]
   23374:	2601      	movs	r6, #1
   23376:	7026      	strb	r6, [r4, #0]
   23378:	a80c      	add	r0, sp, #48	@ 0x30
   2337a:	f003 fdcd 	bl	26f18 <_ZN9allow_pin12full_dynamic17unshare_if_shared17hc1e7d593d40bae1cE>
   2337e:	a804      	add	r0, sp, #16
   23380:	f003 fdca 	bl	26f18 <_ZN9allow_pin12full_dynamic17unshare_if_shared17hc1e7d593d40bae1cE>
   23384:	b023      	add	sp, #140	@ 0x8c
   23386:	bdf0      	pop	{r4, r5, r6, r7, pc}
   23388:	a804      	add	r0, sp, #16
   2338a:	f003 fdc5 	bl	26f18 <_ZN9allow_pin12full_dynamic17unshare_if_shared17hc1e7d593d40bae1cE>
   2338e:	ac0c      	add	r4, sp, #48	@ 0x30
   23390:	4620      	mov	r0, r4
   23392:	f003 fdc1 	bl	26f18 <_ZN9allow_pin12full_dynamic17unshare_if_shared17hc1e7d593d40bae1cE>
   23396:	4620      	mov	r0, r4
   23398:	f003 fdbe 	bl	26f18 <_ZN9allow_pin12full_dynamic17unshare_if_shared17hc1e7d593d40bae1cE>
   2339c:	9c03      	ldr	r4, [sp, #12]
   2339e:	1c60      	adds	r0, r4, #1
   233a0:	2250      	movs	r2, #80	@ 0x50
   233a2:	4629      	mov	r1, r5
   233a4:	f003 ff79 	bl	2729a <__aeabi_memcpy>
   233a8:	e7e5      	b.n	23376 <_ZN20complex_full_dynamic3app17hb996adb604710b2eE+0x7a>
   233aa:	46c0      	nop			@ (mov r8, r8)
   233ac:	00001aa9 	.word	0x00001aa9

000233b0 <_ZN20complex_full_dynamic3app17hbb177cec8ef91d57E>:
   233b0:	b5f0      	push	{r4, r5, r6, r7, lr}
   233b2:	af03      	add	r7, sp, #12
   233b4:	b09f      	sub	sp, #124	@ 0x7c
   233b6:	9003      	str	r0, [sp, #12]
   233b8:	ac04      	add	r4, sp, #16
   233ba:	2002      	movs	r0, #2
   233bc:	9002      	str	r0, [sp, #8]
   233be:	7220      	strb	r0, [r4, #8]
   233c0:	340c      	adds	r4, #12
   233c2:	222c      	movs	r2, #44	@ 0x2c
   233c4:	9201      	str	r2, [sp, #4]
   233c6:	4620      	mov	r0, r4
   233c8:	f003 ff67 	bl	2729a <__aeabi_memcpy>
   233cc:	ae12      	add	r6, sp, #72	@ 0x48
   233ce:	4635      	mov	r5, r6
   233d0:	350c      	adds	r5, #12
   233d2:	2127      	movs	r1, #39	@ 0x27
   233d4:	4628      	mov	r0, r5
   233d6:	f003 fdb3 	bl	26f40 <__aeabi_memclr4>
   233da:	9802      	ldr	r0, [sp, #8]
   233dc:	7230      	strb	r0, [r6, #8]
   233de:	481f      	ldr	r0, [pc, #124]	@ (2345c <_ZN20complex_full_dynamic3app17hbb177cec8ef91d57E+0xac>)
   233e0:	2604      	movs	r6, #4
   233e2:	4631      	mov	r1, r6
   233e4:	4622      	mov	r2, r4
   233e6:	9b01      	ldr	r3, [sp, #4]
   233e8:	df04      	svc	4
   233ea:	2802      	cmp	r0, #2
   233ec:	d018      	beq.n	23420 <_ZN20complex_full_dynamic3app17hbb177cec8ef91d57E+0x70>
   233ee:	a804      	add	r0, sp, #16
   233f0:	7206      	strb	r6, [r0, #8]
   233f2:	9605      	str	r6, [sp, #20]
   233f4:	4e19      	ldr	r6, [pc, #100]	@ (2345c <_ZN20complex_full_dynamic3app17hbb177cec8ef91d57E+0xac>)
   233f6:	9604      	str	r6, [sp, #16]
   233f8:	2403      	movs	r4, #3
   233fa:	2327      	movs	r3, #39	@ 0x27
   233fc:	4630      	mov	r0, r6
   233fe:	4621      	mov	r1, r4
   23400:	462a      	mov	r2, r5
   23402:	df03      	svc	3
   23404:	2802      	cmp	r0, #2
   23406:	d00b      	beq.n	23420 <_ZN20complex_full_dynamic3app17hbb177cec8ef91d57E+0x70>
   23408:	a812      	add	r0, sp, #72	@ 0x48
   2340a:	7204      	strb	r4, [r0, #8]
   2340c:	9413      	str	r4, [sp, #76]	@ 0x4c
   2340e:	9612      	str	r6, [sp, #72]	@ 0x48
   23410:	4812      	ldr	r0, [pc, #72]	@ (2345c <_ZN20complex_full_dynamic3app17hbb177cec8ef91d57E+0xac>)
   23412:	2104      	movs	r1, #4
   23414:	2600      	movs	r6, #0
   23416:	4622      	mov	r2, r4
   23418:	4633      	mov	r3, r6
   2341a:	df02      	svc	2
   2341c:	287f      	cmp	r0, #127	@ 0x7f
   2341e:	d80b      	bhi.n	23438 <_ZN20complex_full_dynamic3app17hbb177cec8ef91d57E+0x88>
   23420:	9c03      	ldr	r4, [sp, #12]
   23422:	6061      	str	r1, [r4, #4]
   23424:	2601      	movs	r6, #1
   23426:	7026      	strb	r6, [r4, #0]
   23428:	a812      	add	r0, sp, #72	@ 0x48
   2342a:	f003 fd75 	bl	26f18 <_ZN9allow_pin12full_dynamic17unshare_if_shared17hc1e7d593d40bae1cE>
   2342e:	a804      	add	r0, sp, #16
   23430:	f003 fd72 	bl	26f18 <_ZN9allow_pin12full_dynamic17unshare_if_shared17hc1e7d593d40bae1cE>
   23434:	b01f      	add	sp, #124	@ 0x7c
   23436:	bdf0      	pop	{r4, r5, r6, r7, pc}
   23438:	a804      	add	r0, sp, #16
   2343a:	f003 fd6d 	bl	26f18 <_ZN9allow_pin12full_dynamic17unshare_if_shared17hc1e7d593d40bae1cE>
   2343e:	ac12      	add	r4, sp, #72	@ 0x48
   23440:	4620      	mov	r0, r4
   23442:	f003 fd69 	bl	26f18 <_ZN9allow_pin12full_dynamic17unshare_if_shared17hc1e7d593d40bae1cE>
   23446:	4620      	mov	r0, r4
   23448:	f003 fd66 	bl	26f18 <_ZN9allow_pin12full_dynamic17unshare_if_shared17hc1e7d593d40bae1cE>
   2344c:	9c03      	ldr	r4, [sp, #12]
   2344e:	1c60      	adds	r0, r4, #1
   23450:	2227      	movs	r2, #39	@ 0x27
   23452:	4629      	mov	r1, r5
   23454:	f003 ff21 	bl	2729a <__aeabi_memcpy>
   23458:	e7e5      	b.n	23426 <_ZN20complex_full_dynamic3app17hbb177cec8ef91d57E+0x76>
   2345a:	46c0      	nop			@ (mov r8, r8)
   2345c:	000011b5 	.word	0x000011b5

00023460 <_ZN20complex_full_dynamic3app17hc1004e41b437f72cE>:
   23460:	b5f0      	push	{r4, r5, r6, r7, lr}
   23462:	af03      	add	r7, sp, #12
   23464:	b09d      	sub	sp, #116	@ 0x74
   23466:	9002      	str	r0, [sp, #8]
   23468:	ac03      	add	r4, sp, #12
   2346a:	2602      	movs	r6, #2
   2346c:	7226      	strb	r6, [r4, #8]
   2346e:	340c      	adds	r4, #12
   23470:	2223      	movs	r2, #35	@ 0x23
   23472:	9201      	str	r2, [sp, #4]
   23474:	4620      	mov	r0, r4
   23476:	f003 ff10 	bl	2729a <__aeabi_memcpy>
   2347a:	ad0f      	add	r5, sp, #60	@ 0x3c
   2347c:	4628      	mov	r0, r5
   2347e:	300c      	adds	r0, #12
   23480:	212b      	movs	r1, #43	@ 0x2b
   23482:	9000      	str	r0, [sp, #0]
   23484:	f003 fd5c 	bl	26f40 <__aeabi_memclr4>
   23488:	722e      	strb	r6, [r5, #8]
   2348a:	4635      	mov	r5, r6
   2348c:	4e1f      	ldr	r6, [pc, #124]	@ (2350c <_ZN20complex_full_dynamic3app17hc1004e41b437f72cE+0xac>)
   2348e:	4630      	mov	r0, r6
   23490:	4629      	mov	r1, r5
   23492:	4622      	mov	r2, r4
   23494:	9b01      	ldr	r3, [sp, #4]
   23496:	df04      	svc	4
   23498:	2802      	cmp	r0, #2
   2349a:	d01a      	beq.n	234d2 <_ZN20complex_full_dynamic3app17hc1004e41b437f72cE+0x72>
   2349c:	a803      	add	r0, sp, #12
   2349e:	2104      	movs	r1, #4
   234a0:	7201      	strb	r1, [r0, #8]
   234a2:	9504      	str	r5, [sp, #16]
   234a4:	9603      	str	r6, [sp, #12]
   234a6:	2500      	movs	r5, #0
   234a8:	232b      	movs	r3, #43	@ 0x2b
   234aa:	4634      	mov	r4, r6
   234ac:	4630      	mov	r0, r6
   234ae:	4629      	mov	r1, r5
   234b0:	9e00      	ldr	r6, [sp, #0]
   234b2:	4632      	mov	r2, r6
   234b4:	df03      	svc	3
   234b6:	2802      	cmp	r0, #2
   234b8:	d00b      	beq.n	234d2 <_ZN20complex_full_dynamic3app17hc1004e41b437f72cE+0x72>
   234ba:	a80f      	add	r0, sp, #60	@ 0x3c
   234bc:	2103      	movs	r1, #3
   234be:	7201      	strb	r1, [r0, #8]
   234c0:	940f      	str	r4, [sp, #60]	@ 0x3c
   234c2:	9510      	str	r5, [sp, #64]	@ 0x40
   234c4:	4811      	ldr	r0, [pc, #68]	@ (2350c <_ZN20complex_full_dynamic3app17hc1004e41b437f72cE+0xac>)
   234c6:	2102      	movs	r1, #2
   234c8:	462a      	mov	r2, r5
   234ca:	462b      	mov	r3, r5
   234cc:	df02      	svc	2
   234ce:	287f      	cmp	r0, #127	@ 0x7f
   234d0:	d80b      	bhi.n	234ea <_ZN20complex_full_dynamic3app17hc1004e41b437f72cE+0x8a>
   234d2:	9c02      	ldr	r4, [sp, #8]
   234d4:	6061      	str	r1, [r4, #4]
   234d6:	2501      	movs	r5, #1
   234d8:	7025      	strb	r5, [r4, #0]
   234da:	a80f      	add	r0, sp, #60	@ 0x3c
   234dc:	f003 fd1c 	bl	26f18 <_ZN9allow_pin12full_dynamic17unshare_if_shared17hc1e7d593d40bae1cE>
   234e0:	a803      	add	r0, sp, #12
   234e2:	f003 fd19 	bl	26f18 <_ZN9allow_pin12full_dynamic17unshare_if_shared17hc1e7d593d40bae1cE>
   234e6:	b01d      	add	sp, #116	@ 0x74
   234e8:	bdf0      	pop	{r4, r5, r6, r7, pc}
   234ea:	a803      	add	r0, sp, #12
   234ec:	f003 fd14 	bl	26f18 <_ZN9allow_pin12full_dynamic17unshare_if_shared17hc1e7d593d40bae1cE>
   234f0:	ac0f      	add	r4, sp, #60	@ 0x3c
   234f2:	4620      	mov	r0, r4
   234f4:	f003 fd10 	bl	26f18 <_ZN9allow_pin12full_dynamic17unshare_if_shared17hc1e7d593d40bae1cE>
   234f8:	4620      	mov	r0, r4
   234fa:	f003 fd0d 	bl	26f18 <_ZN9allow_pin12full_dynamic17unshare_if_shared17hc1e7d593d40bae1cE>
   234fe:	9c02      	ldr	r4, [sp, #8]
   23500:	1c60      	adds	r0, r4, #1
   23502:	222b      	movs	r2, #43	@ 0x2b
   23504:	4631      	mov	r1, r6
   23506:	f003 fec8 	bl	2729a <__aeabi_memcpy>
   2350a:	e7e5      	b.n	234d8 <_ZN20complex_full_dynamic3app17hc1004e41b437f72cE+0x78>
   2350c:	00000d5d 	.word	0x00000d5d

00023510 <_ZN20complex_full_dynamic3app17hc4ba4c12a7389dceE>:
   23510:	b5f0      	push	{r4, r5, r6, r7, lr}
   23512:	af03      	add	r7, sp, #12
   23514:	b0a5      	sub	sp, #148	@ 0x94
   23516:	9001      	str	r0, [sp, #4]
   23518:	ae02      	add	r6, sp, #8
   2351a:	2502      	movs	r5, #2
   2351c:	7235      	strb	r5, [r6, #8]
   2351e:	360c      	adds	r6, #12
   23520:	225d      	movs	r2, #93	@ 0x5d
   23522:	9200      	str	r2, [sp, #0]
   23524:	4630      	mov	r0, r6
   23526:	f003 feb8 	bl	2729a <__aeabi_memcpy>
   2352a:	a81d      	add	r0, sp, #116	@ 0x74
   2352c:	2400      	movs	r4, #0
   2352e:	8384      	strh	r4, [r0, #28]
   23530:	7205      	strb	r5, [r0, #8]
   23532:	4605      	mov	r5, r0
   23534:	9423      	str	r4, [sp, #140]	@ 0x8c
   23536:	9422      	str	r4, [sp, #136]	@ 0x88
   23538:	9421      	str	r4, [sp, #132]	@ 0x84
   2353a:	9420      	str	r4, [sp, #128]	@ 0x80
   2353c:	481f      	ldr	r0, [pc, #124]	@ (235bc <_ZN20complex_full_dynamic3app17hc4ba4c12a7389dceE+0xac>)
   2353e:	4621      	mov	r1, r4
   23540:	4632      	mov	r2, r6
   23542:	9b00      	ldr	r3, [sp, #0]
   23544:	df04      	svc	4
   23546:	2802      	cmp	r0, #2
   23548:	d01b      	beq.n	23582 <_ZN20complex_full_dynamic3app17hc4ba4c12a7389dceE+0x72>
   2354a:	350c      	adds	r5, #12
   2354c:	a802      	add	r0, sp, #8
   2354e:	2104      	movs	r1, #4
   23550:	7201      	strb	r1, [r0, #8]
   23552:	9403      	str	r4, [sp, #12]
   23554:	4e19      	ldr	r6, [pc, #100]	@ (235bc <_ZN20complex_full_dynamic3app17hc4ba4c12a7389dceE+0xac>)
   23556:	9602      	str	r6, [sp, #8]
   23558:	2402      	movs	r4, #2
   2355a:	2312      	movs	r3, #18
   2355c:	4630      	mov	r0, r6
   2355e:	4621      	mov	r1, r4
   23560:	462a      	mov	r2, r5
   23562:	df03      	svc	3
   23564:	2802      	cmp	r0, #2
   23566:	d00c      	beq.n	23582 <_ZN20complex_full_dynamic3app17hc4ba4c12a7389dceE+0x72>
   23568:	a81d      	add	r0, sp, #116	@ 0x74
   2356a:	2103      	movs	r1, #3
   2356c:	7201      	strb	r1, [r0, #8]
   2356e:	961d      	str	r6, [sp, #116]	@ 0x74
   23570:	941e      	str	r4, [sp, #120]	@ 0x78
   23572:	4812      	ldr	r0, [pc, #72]	@ (235bc <_ZN20complex_full_dynamic3app17hc4ba4c12a7389dceE+0xac>)
   23574:	2600      	movs	r6, #0
   23576:	4631      	mov	r1, r6
   23578:	4622      	mov	r2, r4
   2357a:	4633      	mov	r3, r6
   2357c:	df02      	svc	2
   2357e:	287f      	cmp	r0, #127	@ 0x7f
   23580:	d80b      	bhi.n	2359a <_ZN20complex_full_dynamic3app17hc4ba4c12a7389dceE+0x8a>
   23582:	9c01      	ldr	r4, [sp, #4]
   23584:	6061      	str	r1, [r4, #4]
   23586:	2601      	movs	r6, #1
   23588:	7026      	strb	r6, [r4, #0]
   2358a:	a81d      	add	r0, sp, #116	@ 0x74
   2358c:	f003 fcc4 	bl	26f18 <_ZN9allow_pin12full_dynamic17unshare_if_shared17hc1e7d593d40bae1cE>
   23590:	a802      	add	r0, sp, #8
   23592:	f003 fcc1 	bl	26f18 <_ZN9allow_pin12full_dynamic17unshare_if_shared17hc1e7d593d40bae1cE>
   23596:	b025      	add	sp, #148	@ 0x94
   23598:	bdf0      	pop	{r4, r5, r6, r7, pc}
   2359a:	a802      	add	r0, sp, #8
   2359c:	f003 fcbc 	bl	26f18 <_ZN9allow_pin12full_dynamic17unshare_if_shared17hc1e7d593d40bae1cE>
   235a0:	ac1d      	add	r4, sp, #116	@ 0x74
   235a2:	4620      	mov	r0, r4
   235a4:	f003 fcb8 	bl	26f18 <_ZN9allow_pin12full_dynamic17unshare_if_shared17hc1e7d593d40bae1cE>
   235a8:	4620      	mov	r0, r4
   235aa:	f003 fcb5 	bl	26f18 <_ZN9allow_pin12full_dynamic17unshare_if_shared17hc1e7d593d40bae1cE>
   235ae:	9c01      	ldr	r4, [sp, #4]
   235b0:	1c60      	adds	r0, r4, #1
   235b2:	2212      	movs	r2, #18
   235b4:	4629      	mov	r1, r5
   235b6:	f003 fe70 	bl	2729a <__aeabi_memcpy>
   235ba:	e7e5      	b.n	23588 <_ZN20complex_full_dynamic3app17hc4ba4c12a7389dceE+0x78>
   235bc:	000015f1 	.word	0x000015f1

000235c0 <_ZN20complex_full_dynamic3app17hc60753b66cce155cE>:
   235c0:	b5f0      	push	{r4, r5, r6, r7, lr}
   235c2:	af03      	add	r7, sp, #12
   235c4:	b0ad      	sub	sp, #180	@ 0xb4
   235c6:	9002      	str	r0, [sp, #8]
   235c8:	ac03      	add	r4, sp, #12
   235ca:	2002      	movs	r0, #2
   235cc:	9001      	str	r0, [sp, #4]
   235ce:	7220      	strb	r0, [r4, #8]
   235d0:	340c      	adds	r4, #12
   235d2:	222f      	movs	r2, #47	@ 0x2f
   235d4:	9200      	str	r2, [sp, #0]
   235d6:	4620      	mov	r0, r4
   235d8:	f003 fe5f 	bl	2729a <__aeabi_memcpy>
   235dc:	ae12      	add	r6, sp, #72	@ 0x48
   235de:	4635      	mov	r5, r6
   235e0:	350c      	adds	r5, #12
   235e2:	215e      	movs	r1, #94	@ 0x5e
   235e4:	4628      	mov	r0, r5
   235e6:	f003 fcab 	bl	26f40 <__aeabi_memclr4>
   235ea:	9801      	ldr	r0, [sp, #4]
   235ec:	7230      	strb	r0, [r6, #8]
   235ee:	4820      	ldr	r0, [pc, #128]	@ (23670 <_ZN20complex_full_dynamic3app17hc60753b66cce155cE+0xb0>)
   235f0:	2605      	movs	r6, #5
   235f2:	4631      	mov	r1, r6
   235f4:	4622      	mov	r2, r4
   235f6:	9b00      	ldr	r3, [sp, #0]
   235f8:	df04      	svc	4
   235fa:	2802      	cmp	r0, #2
   235fc:	d01a      	beq.n	23634 <_ZN20complex_full_dynamic3app17hc60753b66cce155cE+0x74>
   235fe:	a803      	add	r0, sp, #12
   23600:	2104      	movs	r1, #4
   23602:	7201      	strb	r1, [r0, #8]
   23604:	9604      	str	r6, [sp, #16]
   23606:	4e1a      	ldr	r6, [pc, #104]	@ (23670 <_ZN20complex_full_dynamic3app17hc60753b66cce155cE+0xb0>)
   23608:	9603      	str	r6, [sp, #12]
   2360a:	2402      	movs	r4, #2
   2360c:	235e      	movs	r3, #94	@ 0x5e
   2360e:	4630      	mov	r0, r6
   23610:	4621      	mov	r1, r4
   23612:	462a      	mov	r2, r5
   23614:	df03      	svc	3
   23616:	2802      	cmp	r0, #2
   23618:	d00c      	beq.n	23634 <_ZN20complex_full_dynamic3app17hc60753b66cce155cE+0x74>
   2361a:	a812      	add	r0, sp, #72	@ 0x48
   2361c:	2103      	movs	r1, #3
   2361e:	7201      	strb	r1, [r0, #8]
   23620:	9612      	str	r6, [sp, #72]	@ 0x48
   23622:	9413      	str	r4, [sp, #76]	@ 0x4c
   23624:	4812      	ldr	r0, [pc, #72]	@ (23670 <_ZN20complex_full_dynamic3app17hc60753b66cce155cE+0xb0>)
   23626:	2105      	movs	r1, #5
   23628:	2600      	movs	r6, #0
   2362a:	4622      	mov	r2, r4
   2362c:	4633      	mov	r3, r6
   2362e:	df02      	svc	2
   23630:	287f      	cmp	r0, #127	@ 0x7f
   23632:	d80b      	bhi.n	2364c <_ZN20complex_full_dynamic3app17hc60753b66cce155cE+0x8c>
   23634:	9c02      	ldr	r4, [sp, #8]
   23636:	6061      	str	r1, [r4, #4]
   23638:	2601      	movs	r6, #1
   2363a:	7026      	strb	r6, [r4, #0]
   2363c:	a812      	add	r0, sp, #72	@ 0x48
   2363e:	f003 fc6b 	bl	26f18 <_ZN9allow_pin12full_dynamic17unshare_if_shared17hc1e7d593d40bae1cE>
   23642:	a803      	add	r0, sp, #12
   23644:	f003 fc68 	bl	26f18 <_ZN9allow_pin12full_dynamic17unshare_if_shared17hc1e7d593d40bae1cE>
   23648:	b02d      	add	sp, #180	@ 0xb4
   2364a:	bdf0      	pop	{r4, r5, r6, r7, pc}
   2364c:	a803      	add	r0, sp, #12
   2364e:	f003 fc63 	bl	26f18 <_ZN9allow_pin12full_dynamic17unshare_if_shared17hc1e7d593d40bae1cE>
   23652:	ac12      	add	r4, sp, #72	@ 0x48
   23654:	4620      	mov	r0, r4
   23656:	f003 fc5f 	bl	26f18 <_ZN9allow_pin12full_dynamic17unshare_if_shared17hc1e7d593d40bae1cE>
   2365a:	4620      	mov	r0, r4
   2365c:	f003 fc5c 	bl	26f18 <_ZN9allow_pin12full_dynamic17unshare_if_shared17hc1e7d593d40bae1cE>
   23660:	9c02      	ldr	r4, [sp, #8]
   23662:	1c60      	adds	r0, r4, #1
   23664:	225e      	movs	r2, #94	@ 0x5e
   23666:	4629      	mov	r1, r5
   23668:	f003 fe17 	bl	2729a <__aeabi_memcpy>
   2366c:	e7e5      	b.n	2363a <_ZN20complex_full_dynamic3app17hc60753b66cce155cE+0x7a>
   2366e:	46c0      	nop			@ (mov r8, r8)
   23670:	0000022b 	.word	0x0000022b

00023674 <_ZN20complex_full_dynamic3app17hca95bbff8d003b51E>:
   23674:	b5f0      	push	{r4, r5, r6, r7, lr}
   23676:	af03      	add	r7, sp, #12
   23678:	b097      	sub	sp, #92	@ 0x5c
   2367a:	9003      	str	r0, [sp, #12]
   2367c:	ac04      	add	r4, sp, #16
   2367e:	2002      	movs	r0, #2
   23680:	9002      	str	r0, [sp, #8]
   23682:	7220      	strb	r0, [r4, #8]
   23684:	340c      	adds	r4, #12
   23686:	220d      	movs	r2, #13
   23688:	9201      	str	r2, [sp, #4]
   2368a:	4620      	mov	r0, r4
   2368c:	f003 fe05 	bl	2729a <__aeabi_memcpy>
   23690:	ae0b      	add	r6, sp, #44	@ 0x2c
   23692:	4635      	mov	r5, r6
   23694:	350c      	adds	r5, #12
   23696:	2121      	movs	r1, #33	@ 0x21
   23698:	4628      	mov	r0, r5
   2369a:	f003 fc51 	bl	26f40 <__aeabi_memclr4>
   2369e:	9802      	ldr	r0, [sp, #8]
   236a0:	7230      	strb	r0, [r6, #8]
   236a2:	481f      	ldr	r0, [pc, #124]	@ (23720 <_ZN20complex_full_dynamic3app17hca95bbff8d003b51E+0xac>)
   236a4:	2600      	movs	r6, #0
   236a6:	4631      	mov	r1, r6
   236a8:	4622      	mov	r2, r4
   236aa:	9b01      	ldr	r3, [sp, #4]
   236ac:	df04      	svc	4
   236ae:	2802      	cmp	r0, #2
   236b0:	d018      	beq.n	236e4 <_ZN20complex_full_dynamic3app17hca95bbff8d003b51E+0x70>
   236b2:	a804      	add	r0, sp, #16
   236b4:	2104      	movs	r1, #4
   236b6:	7201      	strb	r1, [r0, #8]
   236b8:	4c19      	ldr	r4, [pc, #100]	@ (23720 <_ZN20complex_full_dynamic3app17hca95bbff8d003b51E+0xac>)
   236ba:	9404      	str	r4, [sp, #16]
   236bc:	9605      	str	r6, [sp, #20]
   236be:	2321      	movs	r3, #33	@ 0x21
   236c0:	4620      	mov	r0, r4
   236c2:	4631      	mov	r1, r6
   236c4:	462a      	mov	r2, r5
   236c6:	df03      	svc	3
   236c8:	2802      	cmp	r0, #2
   236ca:	d00b      	beq.n	236e4 <_ZN20complex_full_dynamic3app17hca95bbff8d003b51E+0x70>
   236cc:	a80b      	add	r0, sp, #44	@ 0x2c
   236ce:	2103      	movs	r1, #3
   236d0:	7201      	strb	r1, [r0, #8]
   236d2:	940b      	str	r4, [sp, #44]	@ 0x2c
   236d4:	960c      	str	r6, [sp, #48]	@ 0x30
   236d6:	4812      	ldr	r0, [pc, #72]	@ (23720 <_ZN20complex_full_dynamic3app17hca95bbff8d003b51E+0xac>)
   236d8:	4631      	mov	r1, r6
   236da:	4632      	mov	r2, r6
   236dc:	4633      	mov	r3, r6
   236de:	df02      	svc	2
   236e0:	287f      	cmp	r0, #127	@ 0x7f
   236e2:	d80b      	bhi.n	236fc <_ZN20complex_full_dynamic3app17hca95bbff8d003b51E+0x88>
   236e4:	9c03      	ldr	r4, [sp, #12]
   236e6:	6061      	str	r1, [r4, #4]
   236e8:	2601      	movs	r6, #1
   236ea:	7026      	strb	r6, [r4, #0]
   236ec:	a80b      	add	r0, sp, #44	@ 0x2c
   236ee:	f003 fc13 	bl	26f18 <_ZN9allow_pin12full_dynamic17unshare_if_shared17hc1e7d593d40bae1cE>
   236f2:	a804      	add	r0, sp, #16
   236f4:	f003 fc10 	bl	26f18 <_ZN9allow_pin12full_dynamic17unshare_if_shared17hc1e7d593d40bae1cE>
   236f8:	b017      	add	sp, #92	@ 0x5c
   236fa:	bdf0      	pop	{r4, r5, r6, r7, pc}
   236fc:	a804      	add	r0, sp, #16
   236fe:	f003 fc0b 	bl	26f18 <_ZN9allow_pin12full_dynamic17unshare_if_shared17hc1e7d593d40bae1cE>
   23702:	ac0b      	add	r4, sp, #44	@ 0x2c
   23704:	4620      	mov	r0, r4
   23706:	f003 fc07 	bl	26f18 <_ZN9allow_pin12full_dynamic17unshare_if_shared17hc1e7d593d40bae1cE>
   2370a:	4620      	mov	r0, r4
   2370c:	f003 fc04 	bl	26f18 <_ZN9allow_pin12full_dynamic17unshare_if_shared17hc1e7d593d40bae1cE>
   23710:	9c03      	ldr	r4, [sp, #12]
   23712:	1c60      	adds	r0, r4, #1
   23714:	2221      	movs	r2, #33	@ 0x21
   23716:	4629      	mov	r1, r5
   23718:	f003 fdbf 	bl	2729a <__aeabi_memcpy>
   2371c:	e7e5      	b.n	236ea <_ZN20complex_full_dynamic3app17hca95bbff8d003b51E+0x76>
   2371e:	46c0      	nop			@ (mov r8, r8)
   23720:	000016b0 	.word	0x000016b0

00023724 <_ZN20complex_full_dynamic3app17hcfd7e696088c041fE>:
   23724:	b5f0      	push	{r4, r5, r6, r7, lr}
   23726:	af03      	add	r7, sp, #12
   23728:	b09b      	sub	sp, #108	@ 0x6c
   2372a:	9002      	str	r0, [sp, #8]
   2372c:	ac03      	add	r4, sp, #12
   2372e:	2002      	movs	r0, #2
   23730:	9001      	str	r0, [sp, #4]
   23732:	7220      	strb	r0, [r4, #8]
   23734:	340c      	adds	r4, #12
   23736:	2210      	movs	r2, #16
   23738:	9200      	str	r2, [sp, #0]
   2373a:	4620      	mov	r0, r4
   2373c:	f003 fdad 	bl	2729a <__aeabi_memcpy>
   23740:	ae0a      	add	r6, sp, #40	@ 0x28
   23742:	4635      	mov	r5, r6
   23744:	350c      	adds	r5, #12
   23746:	2136      	movs	r1, #54	@ 0x36
   23748:	4628      	mov	r0, r5
   2374a:	f003 fbf9 	bl	26f40 <__aeabi_memclr4>
   2374e:	9801      	ldr	r0, [sp, #4]
   23750:	7230      	strb	r0, [r6, #8]
   23752:	481f      	ldr	r0, [pc, #124]	@ (237d0 <_ZN20complex_full_dynamic3app17hcfd7e696088c041fE+0xac>)
   23754:	2601      	movs	r6, #1
   23756:	4631      	mov	r1, r6
   23758:	4622      	mov	r2, r4
   2375a:	9b00      	ldr	r3, [sp, #0]
   2375c:	df04      	svc	4
   2375e:	2802      	cmp	r0, #2
   23760:	d019      	beq.n	23796 <_ZN20complex_full_dynamic3app17hcfd7e696088c041fE+0x72>
   23762:	a803      	add	r0, sp, #12
   23764:	2104      	movs	r1, #4
   23766:	7201      	strb	r1, [r0, #8]
   23768:	9604      	str	r6, [sp, #16]
   2376a:	4819      	ldr	r0, [pc, #100]	@ (237d0 <_ZN20complex_full_dynamic3app17hcfd7e696088c041fE+0xac>)
   2376c:	9003      	str	r0, [sp, #12]
   2376e:	2407      	movs	r4, #7
   23770:	2336      	movs	r3, #54	@ 0x36
   23772:	4621      	mov	r1, r4
   23774:	462a      	mov	r2, r5
   23776:	df03      	svc	3
   23778:	2802      	cmp	r0, #2
   2377a:	d00c      	beq.n	23796 <_ZN20complex_full_dynamic3app17hcfd7e696088c041fE+0x72>
   2377c:	a80a      	add	r0, sp, #40	@ 0x28
   2377e:	2103      	movs	r1, #3
   23780:	7201      	strb	r1, [r0, #8]
   23782:	4813      	ldr	r0, [pc, #76]	@ (237d0 <_ZN20complex_full_dynamic3app17hcfd7e696088c041fE+0xac>)
   23784:	900a      	str	r0, [sp, #40]	@ 0x28
   23786:	940b      	str	r4, [sp, #44]	@ 0x2c
   23788:	2101      	movs	r1, #1
   2378a:	2300      	movs	r3, #0
   2378c:	4622      	mov	r2, r4
   2378e:	9301      	str	r3, [sp, #4]
   23790:	df02      	svc	2
   23792:	287f      	cmp	r0, #127	@ 0x7f
   23794:	d80a      	bhi.n	237ac <_ZN20complex_full_dynamic3app17hcfd7e696088c041fE+0x88>
   23796:	9c02      	ldr	r4, [sp, #8]
   23798:	6061      	str	r1, [r4, #4]
   2379a:	7026      	strb	r6, [r4, #0]
   2379c:	a80a      	add	r0, sp, #40	@ 0x28
   2379e:	f003 fbbb 	bl	26f18 <_ZN9allow_pin12full_dynamic17unshare_if_shared17hc1e7d593d40bae1cE>
   237a2:	a803      	add	r0, sp, #12
   237a4:	f003 fbb8 	bl	26f18 <_ZN9allow_pin12full_dynamic17unshare_if_shared17hc1e7d593d40bae1cE>
   237a8:	b01b      	add	sp, #108	@ 0x6c
   237aa:	bdf0      	pop	{r4, r5, r6, r7, pc}
   237ac:	a803      	add	r0, sp, #12
   237ae:	f003 fbb3 	bl	26f18 <_ZN9allow_pin12full_dynamic17unshare_if_shared17hc1e7d593d40bae1cE>
   237b2:	ac0a      	add	r4, sp, #40	@ 0x28
   237b4:	4620      	mov	r0, r4
   237b6:	f003 fbaf 	bl	26f18 <_ZN9allow_pin12full_dynamic17unshare_if_shared17hc1e7d593d40bae1cE>
   237ba:	4620      	mov	r0, r4
   237bc:	f003 fbac 	bl	26f18 <_ZN9allow_pin12full_dynamic17unshare_if_shared17hc1e7d593d40bae1cE>
   237c0:	9c02      	ldr	r4, [sp, #8]
   237c2:	1c60      	adds	r0, r4, #1
   237c4:	2236      	movs	r2, #54	@ 0x36
   237c6:	4629      	mov	r1, r5
   237c8:	f003 fd67 	bl	2729a <__aeabi_memcpy>
   237cc:	9e01      	ldr	r6, [sp, #4]
   237ce:	e7e4      	b.n	2379a <_ZN20complex_full_dynamic3app17hcfd7e696088c041fE+0x76>
   237d0:	00001989 	.word	0x00001989

000237d4 <_ZN20complex_full_dynamic3app17hd1ae38c889d59612E>:
   237d4:	b5f0      	push	{r4, r5, r6, r7, lr}
   237d6:	af03      	add	r7, sp, #12
   237d8:	b0ab      	sub	sp, #172	@ 0xac
   237da:	9002      	str	r0, [sp, #8]
   237dc:	ac03      	add	r4, sp, #12
   237de:	2002      	movs	r0, #2
   237e0:	9001      	str	r0, [sp, #4]
   237e2:	7220      	strb	r0, [r4, #8]
   237e4:	340c      	adds	r4, #12
   237e6:	222a      	movs	r2, #42	@ 0x2a
   237e8:	9200      	str	r2, [sp, #0]
   237ea:	4620      	mov	r0, r4
   237ec:	f003 fd55 	bl	2729a <__aeabi_memcpy>
   237f0:	ae11      	add	r6, sp, #68	@ 0x44
   237f2:	4635      	mov	r5, r6
   237f4:	350c      	adds	r5, #12
   237f6:	2159      	movs	r1, #89	@ 0x59
   237f8:	4628      	mov	r0, r5
   237fa:	f003 fba1 	bl	26f40 <__aeabi_memclr4>
   237fe:	9801      	ldr	r0, [sp, #4]
   23800:	7230      	strb	r0, [r6, #8]
   23802:	481f      	ldr	r0, [pc, #124]	@ (23880 <_ZN20complex_full_dynamic3app17hd1ae38c889d59612E+0xac>)
   23804:	2601      	movs	r6, #1
   23806:	4631      	mov	r1, r6
   23808:	4622      	mov	r2, r4
   2380a:	9b00      	ldr	r3, [sp, #0]
   2380c:	df04      	svc	4
   2380e:	2802      	cmp	r0, #2
   23810:	d018      	beq.n	23844 <_ZN20complex_full_dynamic3app17hd1ae38c889d59612E+0x70>
   23812:	a803      	add	r0, sp, #12
   23814:	2104      	movs	r1, #4
   23816:	7201      	strb	r1, [r0, #8]
   23818:	9604      	str	r6, [sp, #16]
   2381a:	4819      	ldr	r0, [pc, #100]	@ (23880 <_ZN20complex_full_dynamic3app17hd1ae38c889d59612E+0xac>)
   2381c:	9003      	str	r0, [sp, #12]
   2381e:	2403      	movs	r4, #3
   23820:	2359      	movs	r3, #89	@ 0x59
   23822:	4621      	mov	r1, r4
   23824:	462a      	mov	r2, r5
   23826:	df03      	svc	3
   23828:	2802      	cmp	r0, #2
   2382a:	d00b      	beq.n	23844 <_ZN20complex_full_dynamic3app17hd1ae38c889d59612E+0x70>
   2382c:	a811      	add	r0, sp, #68	@ 0x44
   2382e:	7204      	strb	r4, [r0, #8]
   23830:	9412      	str	r4, [sp, #72]	@ 0x48
   23832:	4813      	ldr	r0, [pc, #76]	@ (23880 <_ZN20complex_full_dynamic3app17hd1ae38c889d59612E+0xac>)
   23834:	9011      	str	r0, [sp, #68]	@ 0x44
   23836:	2101      	movs	r1, #1
   23838:	2300      	movs	r3, #0
   2383a:	4622      	mov	r2, r4
   2383c:	9301      	str	r3, [sp, #4]
   2383e:	df02      	svc	2
   23840:	287f      	cmp	r0, #127	@ 0x7f
   23842:	d80a      	bhi.n	2385a <_ZN20complex_full_dynamic3app17hd1ae38c889d59612E+0x86>
   23844:	9c02      	ldr	r4, [sp, #8]
   23846:	6061      	str	r1, [r4, #4]
   23848:	7026      	strb	r6, [r4, #0]
   2384a:	a811      	add	r0, sp, #68	@ 0x44
   2384c:	f003 fb64 	bl	26f18 <_ZN9allow_pin12full_dynamic17unshare_if_shared17hc1e7d593d40bae1cE>
   23850:	a803      	add	r0, sp, #12
   23852:	f003 fb61 	bl	26f18 <_ZN9allow_pin12full_dynamic17unshare_if_shared17hc1e7d593d40bae1cE>
   23856:	b02b      	add	sp, #172	@ 0xac
   23858:	bdf0      	pop	{r4, r5, r6, r7, pc}
   2385a:	a803      	add	r0, sp, #12
   2385c:	f003 fb5c 	bl	26f18 <_ZN9allow_pin12full_dynamic17unshare_if_shared17hc1e7d593d40bae1cE>
   23860:	ac11      	add	r4, sp, #68	@ 0x44
   23862:	4620      	mov	r0, r4
   23864:	f003 fb58 	bl	26f18 <_ZN9allow_pin12full_dynamic17unshare_if_shared17hc1e7d593d40bae1cE>
   23868:	4620      	mov	r0, r4
   2386a:	f003 fb55 	bl	26f18 <_ZN9allow_pin12full_dynamic17unshare_if_shared17hc1e7d593d40bae1cE>
   2386e:	9c02      	ldr	r4, [sp, #8]
   23870:	1c60      	adds	r0, r4, #1
   23872:	2259      	movs	r2, #89	@ 0x59
   23874:	4629      	mov	r1, r5
   23876:	f003 fd10 	bl	2729a <__aeabi_memcpy>
   2387a:	9e01      	ldr	r6, [sp, #4]
   2387c:	e7e4      	b.n	23848 <_ZN20complex_full_dynamic3app17hd1ae38c889d59612E+0x74>
   2387e:	46c0      	nop			@ (mov r8, r8)
   23880:	00000ed2 	.word	0x00000ed2

00023884 <_ZN20complex_full_dynamic3app17hd336da60ef872fa0E>:
   23884:	b5f0      	push	{r4, r5, r6, r7, lr}
   23886:	af03      	add	r7, sp, #12
   23888:	b0a9      	sub	sp, #164	@ 0xa4
   2388a:	9003      	str	r0, [sp, #12]
   2388c:	ac04      	add	r4, sp, #16
   2388e:	2002      	movs	r0, #2
   23890:	9002      	str	r0, [sp, #8]
   23892:	7220      	strb	r0, [r4, #8]
   23894:	340c      	adds	r4, #12
   23896:	2231      	movs	r2, #49	@ 0x31
   23898:	9201      	str	r2, [sp, #4]
   2389a:	4620      	mov	r0, r4
   2389c:	f003 fcfd 	bl	2729a <__aeabi_memcpy>
   238a0:	ae14      	add	r6, sp, #80	@ 0x50
   238a2:	4635      	mov	r5, r6
   238a4:	350c      	adds	r5, #12
   238a6:	2148      	movs	r1, #72	@ 0x48
   238a8:	4628      	mov	r0, r5
   238aa:	f003 fb49 	bl	26f40 <__aeabi_memclr4>
   238ae:	9802      	ldr	r0, [sp, #8]
   238b0:	7230      	strb	r0, [r6, #8]
   238b2:	481f      	ldr	r0, [pc, #124]	@ (23930 <_ZN20complex_full_dynamic3app17hd336da60ef872fa0E+0xac>)
   238b4:	2604      	movs	r6, #4
   238b6:	4631      	mov	r1, r6
   238b8:	4622      	mov	r2, r4
   238ba:	9b01      	ldr	r3, [sp, #4]
   238bc:	df04      	svc	4
   238be:	2802      	cmp	r0, #2
   238c0:	d018      	beq.n	238f4 <_ZN20complex_full_dynamic3app17hd336da60ef872fa0E+0x70>
   238c2:	a804      	add	r0, sp, #16
   238c4:	7206      	strb	r6, [r0, #8]
   238c6:	9605      	str	r6, [sp, #20]
   238c8:	4e19      	ldr	r6, [pc, #100]	@ (23930 <_ZN20complex_full_dynamic3app17hd336da60ef872fa0E+0xac>)
   238ca:	9604      	str	r6, [sp, #16]
   238cc:	2403      	movs	r4, #3
   238ce:	2348      	movs	r3, #72	@ 0x48
   238d0:	4630      	mov	r0, r6
   238d2:	4621      	mov	r1, r4
   238d4:	462a      	mov	r2, r5
   238d6:	df03      	svc	3
   238d8:	2802      	cmp	r0, #2
   238da:	d00b      	beq.n	238f4 <_ZN20complex_full_dynamic3app17hd336da60ef872fa0E+0x70>
   238dc:	a814      	add	r0, sp, #80	@ 0x50
   238de:	7204      	strb	r4, [r0, #8]
   238e0:	9415      	str	r4, [sp, #84]	@ 0x54
   238e2:	9614      	str	r6, [sp, #80]	@ 0x50
   238e4:	4812      	ldr	r0, [pc, #72]	@ (23930 <_ZN20complex_full_dynamic3app17hd336da60ef872fa0E+0xac>)
   238e6:	2104      	movs	r1, #4
   238e8:	2600      	movs	r6, #0
   238ea:	4622      	mov	r2, r4
   238ec:	4633      	mov	r3, r6
   238ee:	df02      	svc	2
   238f0:	287f      	cmp	r0, #127	@ 0x7f
   238f2:	d80b      	bhi.n	2390c <_ZN20complex_full_dynamic3app17hd336da60ef872fa0E+0x88>
   238f4:	9c03      	ldr	r4, [sp, #12]
   238f6:	6061      	str	r1, [r4, #4]
   238f8:	2601      	movs	r6, #1
   238fa:	7026      	strb	r6, [r4, #0]
   238fc:	a814      	add	r0, sp, #80	@ 0x50
   238fe:	f003 fb0b 	bl	26f18 <_ZN9allow_pin12full_dynamic17unshare_if_shared17hc1e7d593d40bae1cE>
   23902:	a804      	add	r0, sp, #16
   23904:	f003 fb08 	bl	26f18 <_ZN9allow_pin12full_dynamic17unshare_if_shared17hc1e7d593d40bae1cE>
   23908:	b029      	add	sp, #164	@ 0xa4
   2390a:	bdf0      	pop	{r4, r5, r6, r7, pc}
   2390c:	a804      	add	r0, sp, #16
   2390e:	f003 fb03 	bl	26f18 <_ZN9allow_pin12full_dynamic17unshare_if_shared17hc1e7d593d40bae1cE>
   23912:	ac14      	add	r4, sp, #80	@ 0x50
   23914:	4620      	mov	r0, r4
   23916:	f003 faff 	bl	26f18 <_ZN9allow_pin12full_dynamic17unshare_if_shared17hc1e7d593d40bae1cE>
   2391a:	4620      	mov	r0, r4
   2391c:	f003 fafc 	bl	26f18 <_ZN9allow_pin12full_dynamic17unshare_if_shared17hc1e7d593d40bae1cE>
   23920:	9c03      	ldr	r4, [sp, #12]
   23922:	1c60      	adds	r0, r4, #1
   23924:	2248      	movs	r2, #72	@ 0x48
   23926:	4629      	mov	r1, r5
   23928:	f003 fcb7 	bl	2729a <__aeabi_memcpy>
   2392c:	e7e5      	b.n	238fa <_ZN20complex_full_dynamic3app17hd336da60ef872fa0E+0x76>
   2392e:	46c0      	nop			@ (mov r8, r8)
   23930:	0000180e 	.word	0x0000180e

00023934 <_ZN20complex_full_dynamic3app17hd6afb96a526c6c02E>:
   23934:	b5f0      	push	{r4, r5, r6, r7, lr}
   23936:	af03      	add	r7, sp, #12
   23938:	b09d      	sub	sp, #116	@ 0x74
   2393a:	9003      	str	r0, [sp, #12]
   2393c:	ae04      	add	r6, sp, #16
   2393e:	2002      	movs	r0, #2
   23940:	9002      	str	r0, [sp, #8]
   23942:	7230      	strb	r0, [r6, #8]
   23944:	360c      	adds	r6, #12
   23946:	221e      	movs	r2, #30
   23948:	9201      	str	r2, [sp, #4]
   2394a:	4630      	mov	r0, r6
   2394c:	f003 fca5 	bl	2729a <__aeabi_memcpy>
   23950:	ac0f      	add	r4, sp, #60	@ 0x3c
   23952:	4625      	mov	r5, r4
   23954:	350c      	adds	r5, #12
   23956:	212c      	movs	r1, #44	@ 0x2c
   23958:	4628      	mov	r0, r5
   2395a:	f003 faf1 	bl	26f40 <__aeabi_memclr4>
   2395e:	9802      	ldr	r0, [sp, #8]
   23960:	7220      	strb	r0, [r4, #8]
   23962:	481f      	ldr	r0, [pc, #124]	@ (239e0 <_ZN20complex_full_dynamic3app17hd6afb96a526c6c02E+0xac>)
   23964:	2407      	movs	r4, #7
   23966:	4621      	mov	r1, r4
   23968:	4632      	mov	r2, r6
   2396a:	9b01      	ldr	r3, [sp, #4]
   2396c:	df04      	svc	4
   2396e:	2802      	cmp	r0, #2
   23970:	d019      	beq.n	239a6 <_ZN20complex_full_dynamic3app17hd6afb96a526c6c02E+0x72>
   23972:	a804      	add	r0, sp, #16
   23974:	2104      	movs	r1, #4
   23976:	7201      	strb	r1, [r0, #8]
   23978:	9405      	str	r4, [sp, #20]
   2397a:	4c19      	ldr	r4, [pc, #100]	@ (239e0 <_ZN20complex_full_dynamic3app17hd6afb96a526c6c02E+0xac>)
   2397c:	9404      	str	r4, [sp, #16]
   2397e:	2600      	movs	r6, #0
   23980:	232c      	movs	r3, #44	@ 0x2c
   23982:	4620      	mov	r0, r4
   23984:	4631      	mov	r1, r6
   23986:	462a      	mov	r2, r5
   23988:	df03      	svc	3
   2398a:	2802      	cmp	r0, #2
   2398c:	d00b      	beq.n	239a6 <_ZN20complex_full_dynamic3app17hd6afb96a526c6c02E+0x72>
   2398e:	a80f      	add	r0, sp, #60	@ 0x3c
   23990:	2103      	movs	r1, #3
   23992:	7201      	strb	r1, [r0, #8]
   23994:	940f      	str	r4, [sp, #60]	@ 0x3c
   23996:	9610      	str	r6, [sp, #64]	@ 0x40
   23998:	4811      	ldr	r0, [pc, #68]	@ (239e0 <_ZN20complex_full_dynamic3app17hd6afb96a526c6c02E+0xac>)
   2399a:	2107      	movs	r1, #7
   2399c:	4632      	mov	r2, r6
   2399e:	4633      	mov	r3, r6
   239a0:	df02      	svc	2
   239a2:	287f      	cmp	r0, #127	@ 0x7f
   239a4:	d80b      	bhi.n	239be <_ZN20complex_full_dynamic3app17hd6afb96a526c6c02E+0x8a>
   239a6:	9c03      	ldr	r4, [sp, #12]
   239a8:	6061      	str	r1, [r4, #4]
   239aa:	2601      	movs	r6, #1
   239ac:	7026      	strb	r6, [r4, #0]
   239ae:	a80f      	add	r0, sp, #60	@ 0x3c
   239b0:	f003 fab2 	bl	26f18 <_ZN9allow_pin12full_dynamic17unshare_if_shared17hc1e7d593d40bae1cE>
   239b4:	a804      	add	r0, sp, #16
   239b6:	f003 faaf 	bl	26f18 <_ZN9allow_pin12full_dynamic17unshare_if_shared17hc1e7d593d40bae1cE>
   239ba:	b01d      	add	sp, #116	@ 0x74
   239bc:	bdf0      	pop	{r4, r5, r6, r7, pc}
   239be:	a804      	add	r0, sp, #16
   239c0:	f003 faaa 	bl	26f18 <_ZN9allow_pin12full_dynamic17unshare_if_shared17hc1e7d593d40bae1cE>
   239c4:	ac0f      	add	r4, sp, #60	@ 0x3c
   239c6:	4620      	mov	r0, r4
   239c8:	f003 faa6 	bl	26f18 <_ZN9allow_pin12full_dynamic17unshare_if_shared17hc1e7d593d40bae1cE>
   239cc:	4620      	mov	r0, r4
   239ce:	f003 faa3 	bl	26f18 <_ZN9allow_pin12full_dynamic17unshare_if_shared17hc1e7d593d40bae1cE>
   239d2:	9c03      	ldr	r4, [sp, #12]
   239d4:	1c60      	adds	r0, r4, #1
   239d6:	222c      	movs	r2, #44	@ 0x2c
   239d8:	4629      	mov	r1, r5
   239da:	f003 fc5e 	bl	2729a <__aeabi_memcpy>
   239de:	e7e5      	b.n	239ac <_ZN20complex_full_dynamic3app17hd6afb96a526c6c02E+0x78>
   239e0:	000003fb 	.word	0x000003fb

000239e4 <_ZN20complex_full_dynamic3app17hd7474b93518f03daE>:
   239e4:	b5f0      	push	{r4, r5, r6, r7, lr}
   239e6:	af03      	add	r7, sp, #12
   239e8:	b099      	sub	sp, #100	@ 0x64
   239ea:	9002      	str	r0, [sp, #8]
   239ec:	ac03      	add	r4, sp, #12
   239ee:	2602      	movs	r6, #2
   239f0:	7226      	strb	r6, [r4, #8]
   239f2:	340c      	adds	r4, #12
   239f4:	2525      	movs	r5, #37	@ 0x25
   239f6:	4620      	mov	r0, r4
   239f8:	462a      	mov	r2, r5
   239fa:	f003 fc4e 	bl	2729a <__aeabi_memcpy>
   239fe:	a810      	add	r0, sp, #64	@ 0x40
   23a00:	9001      	str	r0, [sp, #4]
   23a02:	7206      	strb	r6, [r0, #8]
   23a04:	2000      	movs	r0, #0
   23a06:	9018      	str	r0, [sp, #96]	@ 0x60
   23a08:	9017      	str	r0, [sp, #92]	@ 0x5c
   23a0a:	9016      	str	r0, [sp, #88]	@ 0x58
   23a0c:	9015      	str	r0, [sp, #84]	@ 0x54
   23a0e:	9014      	str	r0, [sp, #80]	@ 0x50
   23a10:	9013      	str	r0, [sp, #76]	@ 0x4c
   23a12:	20a7      	movs	r0, #167	@ 0xa7
   23a14:	0100      	lsls	r0, r0, #4
   23a16:	2609      	movs	r6, #9
   23a18:	9000      	str	r0, [sp, #0]
   23a1a:	4631      	mov	r1, r6
   23a1c:	4622      	mov	r2, r4
   23a1e:	462b      	mov	r3, r5
   23a20:	df04      	svc	4
   23a22:	2802      	cmp	r0, #2
   23a24:	d01d      	beq.n	23a62 <_ZN20complex_full_dynamic3app17hd7474b93518f03daE+0x7e>
   23a26:	9c01      	ldr	r4, [sp, #4]
   23a28:	340c      	adds	r4, #12
   23a2a:	a803      	add	r0, sp, #12
   23a2c:	2104      	movs	r1, #4
   23a2e:	7201      	strb	r1, [r0, #8]
   23a30:	9604      	str	r6, [sp, #16]
   23a32:	9d00      	ldr	r5, [sp, #0]
   23a34:	9503      	str	r5, [sp, #12]
   23a36:	2108      	movs	r1, #8
   23a38:	2318      	movs	r3, #24
   23a3a:	4628      	mov	r0, r5
   23a3c:	460e      	mov	r6, r1
   23a3e:	4622      	mov	r2, r4
   23a40:	df03      	svc	3
   23a42:	2802      	cmp	r0, #2
   23a44:	d00d      	beq.n	23a62 <_ZN20complex_full_dynamic3app17hd7474b93518f03daE+0x7e>
   23a46:	9401      	str	r4, [sp, #4]
   23a48:	a810      	add	r0, sp, #64	@ 0x40
   23a4a:	2103      	movs	r1, #3
   23a4c:	7201      	strb	r1, [r0, #8]
   23a4e:	9510      	str	r5, [sp, #64]	@ 0x40
   23a50:	9611      	str	r6, [sp, #68]	@ 0x44
   23a52:	2109      	movs	r1, #9
   23a54:	2400      	movs	r4, #0
   23a56:	4628      	mov	r0, r5
   23a58:	4632      	mov	r2, r6
   23a5a:	4623      	mov	r3, r4
   23a5c:	df02      	svc	2
   23a5e:	287f      	cmp	r0, #127	@ 0x7f
   23a60:	d80b      	bhi.n	23a7a <_ZN20complex_full_dynamic3app17hd7474b93518f03daE+0x96>
   23a62:	9d02      	ldr	r5, [sp, #8]
   23a64:	6069      	str	r1, [r5, #4]
   23a66:	2401      	movs	r4, #1
   23a68:	702c      	strb	r4, [r5, #0]
   23a6a:	a810      	add	r0, sp, #64	@ 0x40
   23a6c:	f003 fa54 	bl	26f18 <_ZN9allow_pin12full_dynamic17unshare_if_shared17hc1e7d593d40bae1cE>
   23a70:	a803      	add	r0, sp, #12
   23a72:	f003 fa51 	bl	26f18 <_ZN9allow_pin12full_dynamic17unshare_if_shared17hc1e7d593d40bae1cE>
   23a76:	b019      	add	sp, #100	@ 0x64
   23a78:	bdf0      	pop	{r4, r5, r6, r7, pc}
   23a7a:	a803      	add	r0, sp, #12
   23a7c:	f003 fa4c 	bl	26f18 <_ZN9allow_pin12full_dynamic17unshare_if_shared17hc1e7d593d40bae1cE>
   23a80:	ad10      	add	r5, sp, #64	@ 0x40
   23a82:	4628      	mov	r0, r5
   23a84:	f003 fa48 	bl	26f18 <_ZN9allow_pin12full_dynamic17unshare_if_shared17hc1e7d593d40bae1cE>
   23a88:	4628      	mov	r0, r5
   23a8a:	f003 fa45 	bl	26f18 <_ZN9allow_pin12full_dynamic17unshare_if_shared17hc1e7d593d40bae1cE>
   23a8e:	9d02      	ldr	r5, [sp, #8]
   23a90:	1c68      	adds	r0, r5, #1
   23a92:	2218      	movs	r2, #24
   23a94:	9901      	ldr	r1, [sp, #4]
   23a96:	f003 fc00 	bl	2729a <__aeabi_memcpy>
   23a9a:	e7e5      	b.n	23a68 <_ZN20complex_full_dynamic3app17hd7474b93518f03daE+0x84>

00023a9c <_ZN20complex_full_dynamic3app17hd9b17272ca915736E>:
   23a9c:	b5f0      	push	{r4, r5, r6, r7, lr}
   23a9e:	af03      	add	r7, sp, #12
   23aa0:	b0b3      	sub	sp, #204	@ 0xcc
   23aa2:	9002      	str	r0, [sp, #8]
   23aa4:	ac03      	add	r4, sp, #12
   23aa6:	2002      	movs	r0, #2
   23aa8:	9001      	str	r0, [sp, #4]
   23aaa:	7220      	strb	r0, [r4, #8]
   23aac:	340c      	adds	r4, #12
   23aae:	2259      	movs	r2, #89	@ 0x59
   23ab0:	9200      	str	r2, [sp, #0]
   23ab2:	4620      	mov	r0, r4
   23ab4:	f003 fbf1 	bl	2729a <__aeabi_memcpy>
   23ab8:	ae1d      	add	r6, sp, #116	@ 0x74
   23aba:	4635      	mov	r5, r6
   23abc:	350c      	adds	r5, #12
   23abe:	214a      	movs	r1, #74	@ 0x4a
   23ac0:	4628      	mov	r0, r5
   23ac2:	f003 fa3d 	bl	26f40 <__aeabi_memclr4>
   23ac6:	9801      	ldr	r0, [sp, #4]
   23ac8:	7230      	strb	r0, [r6, #8]
   23aca:	481f      	ldr	r0, [pc, #124]	@ (23b48 <_ZN20complex_full_dynamic3app17hd9b17272ca915736E+0xac>)
   23acc:	2600      	movs	r6, #0
   23ace:	4631      	mov	r1, r6
   23ad0:	4622      	mov	r2, r4
   23ad2:	9b00      	ldr	r3, [sp, #0]
   23ad4:	df04      	svc	4
   23ad6:	2802      	cmp	r0, #2
   23ad8:	d019      	beq.n	23b0e <_ZN20complex_full_dynamic3app17hd9b17272ca915736E+0x72>
   23ada:	a803      	add	r0, sp, #12
   23adc:	2404      	movs	r4, #4
   23ade:	7204      	strb	r4, [r0, #8]
   23ae0:	9604      	str	r6, [sp, #16]
   23ae2:	4e19      	ldr	r6, [pc, #100]	@ (23b48 <_ZN20complex_full_dynamic3app17hd9b17272ca915736E+0xac>)
   23ae4:	9603      	str	r6, [sp, #12]
   23ae6:	234a      	movs	r3, #74	@ 0x4a
   23ae8:	4630      	mov	r0, r6
   23aea:	4621      	mov	r1, r4
   23aec:	462a      	mov	r2, r5
   23aee:	df03      	svc	3
   23af0:	2802      	cmp	r0, #2
   23af2:	d00c      	beq.n	23b0e <_ZN20complex_full_dynamic3app17hd9b17272ca915736E+0x72>
   23af4:	a81d      	add	r0, sp, #116	@ 0x74
   23af6:	2103      	movs	r1, #3
   23af8:	7201      	strb	r1, [r0, #8]
   23afa:	961d      	str	r6, [sp, #116]	@ 0x74
   23afc:	941e      	str	r4, [sp, #120]	@ 0x78
   23afe:	4812      	ldr	r0, [pc, #72]	@ (23b48 <_ZN20complex_full_dynamic3app17hd9b17272ca915736E+0xac>)
   23b00:	2600      	movs	r6, #0
   23b02:	4631      	mov	r1, r6
   23b04:	4622      	mov	r2, r4
   23b06:	4633      	mov	r3, r6
   23b08:	df02      	svc	2
   23b0a:	287f      	cmp	r0, #127	@ 0x7f
   23b0c:	d80b      	bhi.n	23b26 <_ZN20complex_full_dynamic3app17hd9b17272ca915736E+0x8a>
   23b0e:	9c02      	ldr	r4, [sp, #8]
   23b10:	6061      	str	r1, [r4, #4]
   23b12:	2601      	movs	r6, #1
   23b14:	7026      	strb	r6, [r4, #0]
   23b16:	a81d      	add	r0, sp, #116	@ 0x74
   23b18:	f003 f9fe 	bl	26f18 <_ZN9allow_pin12full_dynamic17unshare_if_shared17hc1e7d593d40bae1cE>
   23b1c:	a803      	add	r0, sp, #12
   23b1e:	f003 f9fb 	bl	26f18 <_ZN9allow_pin12full_dynamic17unshare_if_shared17hc1e7d593d40bae1cE>
   23b22:	b033      	add	sp, #204	@ 0xcc
   23b24:	bdf0      	pop	{r4, r5, r6, r7, pc}
   23b26:	a803      	add	r0, sp, #12
   23b28:	f003 f9f6 	bl	26f18 <_ZN9allow_pin12full_dynamic17unshare_if_shared17hc1e7d593d40bae1cE>
   23b2c:	ac1d      	add	r4, sp, #116	@ 0x74
   23b2e:	4620      	mov	r0, r4
   23b30:	f003 f9f2 	bl	26f18 <_ZN9allow_pin12full_dynamic17unshare_if_shared17hc1e7d593d40bae1cE>
   23b34:	4620      	mov	r0, r4
   23b36:	f003 f9ef 	bl	26f18 <_ZN9allow_pin12full_dynamic17unshare_if_shared17hc1e7d593d40bae1cE>
   23b3a:	9c02      	ldr	r4, [sp, #8]
   23b3c:	1c60      	adds	r0, r4, #1
   23b3e:	224a      	movs	r2, #74	@ 0x4a
   23b40:	4629      	mov	r1, r5
   23b42:	f003 fbaa 	bl	2729a <__aeabi_memcpy>
   23b46:	e7e5      	b.n	23b14 <_ZN20complex_full_dynamic3app17hd9b17272ca915736E+0x78>
   23b48:	00001484 	.word	0x00001484

00023b4c <_ZN20complex_full_dynamic3app17hdcb64908c5dee23fE>:
   23b4c:	b5f0      	push	{r4, r5, r6, r7, lr}
   23b4e:	af03      	add	r7, sp, #12
   23b50:	b0ab      	sub	sp, #172	@ 0xac
   23b52:	9003      	str	r0, [sp, #12]
   23b54:	ac04      	add	r4, sp, #16
   23b56:	2602      	movs	r6, #2
   23b58:	7226      	strb	r6, [r4, #8]
   23b5a:	340c      	adds	r4, #12
   23b5c:	222d      	movs	r2, #45	@ 0x2d
   23b5e:	9202      	str	r2, [sp, #8]
   23b60:	4620      	mov	r0, r4
   23b62:	f003 fb9a 	bl	2729a <__aeabi_memcpy>
   23b66:	ad13      	add	r5, sp, #76	@ 0x4c
   23b68:	4628      	mov	r0, r5
   23b6a:	300c      	adds	r0, #12
   23b6c:	2153      	movs	r1, #83	@ 0x53
   23b6e:	9001      	str	r0, [sp, #4]
   23b70:	f003 f9e6 	bl	26f40 <__aeabi_memclr4>
   23b74:	722e      	strb	r6, [r5, #8]
   23b76:	4635      	mov	r5, r6
   23b78:	4e1f      	ldr	r6, [pc, #124]	@ (23bf8 <_ZN20complex_full_dynamic3app17hdcb64908c5dee23fE+0xac>)
   23b7a:	4630      	mov	r0, r6
   23b7c:	4629      	mov	r1, r5
   23b7e:	4622      	mov	r2, r4
   23b80:	9b02      	ldr	r3, [sp, #8]
   23b82:	df04      	svc	4
   23b84:	2802      	cmp	r0, #2
   23b86:	d01a      	beq.n	23bbe <_ZN20complex_full_dynamic3app17hdcb64908c5dee23fE+0x72>
   23b88:	a804      	add	r0, sp, #16
   23b8a:	2104      	movs	r1, #4
   23b8c:	7201      	strb	r1, [r0, #8]
   23b8e:	9505      	str	r5, [sp, #20]
   23b90:	9604      	str	r6, [sp, #16]
   23b92:	2407      	movs	r4, #7
   23b94:	2353      	movs	r3, #83	@ 0x53
   23b96:	4630      	mov	r0, r6
   23b98:	4621      	mov	r1, r4
   23b9a:	9d01      	ldr	r5, [sp, #4]
   23b9c:	462a      	mov	r2, r5
   23b9e:	df03      	svc	3
   23ba0:	2802      	cmp	r0, #2
   23ba2:	d00c      	beq.n	23bbe <_ZN20complex_full_dynamic3app17hdcb64908c5dee23fE+0x72>
   23ba4:	a813      	add	r0, sp, #76	@ 0x4c
   23ba6:	2103      	movs	r1, #3
   23ba8:	7201      	strb	r1, [r0, #8]
   23baa:	9613      	str	r6, [sp, #76]	@ 0x4c
   23bac:	9414      	str	r4, [sp, #80]	@ 0x50
   23bae:	4812      	ldr	r0, [pc, #72]	@ (23bf8 <_ZN20complex_full_dynamic3app17hdcb64908c5dee23fE+0xac>)
   23bb0:	2102      	movs	r1, #2
   23bb2:	2600      	movs	r6, #0
   23bb4:	4622      	mov	r2, r4
   23bb6:	4633      	mov	r3, r6
   23bb8:	df02      	svc	2
   23bba:	287f      	cmp	r0, #127	@ 0x7f
   23bbc:	d80b      	bhi.n	23bd6 <_ZN20complex_full_dynamic3app17hdcb64908c5dee23fE+0x8a>
   23bbe:	9c03      	ldr	r4, [sp, #12]
   23bc0:	6061      	str	r1, [r4, #4]
   23bc2:	2601      	movs	r6, #1
   23bc4:	7026      	strb	r6, [r4, #0]
   23bc6:	a813      	add	r0, sp, #76	@ 0x4c
   23bc8:	f003 f9a6 	bl	26f18 <_ZN9allow_pin12full_dynamic17unshare_if_shared17hc1e7d593d40bae1cE>
   23bcc:	a804      	add	r0, sp, #16
   23bce:	f003 f9a3 	bl	26f18 <_ZN9allow_pin12full_dynamic17unshare_if_shared17hc1e7d593d40bae1cE>
   23bd2:	b02b      	add	sp, #172	@ 0xac
   23bd4:	bdf0      	pop	{r4, r5, r6, r7, pc}
   23bd6:	a804      	add	r0, sp, #16
   23bd8:	f003 f99e 	bl	26f18 <_ZN9allow_pin12full_dynamic17unshare_if_shared17hc1e7d593d40bae1cE>
   23bdc:	ac13      	add	r4, sp, #76	@ 0x4c
   23bde:	4620      	mov	r0, r4
   23be0:	f003 f99a 	bl	26f18 <_ZN9allow_pin12full_dynamic17unshare_if_shared17hc1e7d593d40bae1cE>
   23be4:	4620      	mov	r0, r4
   23be6:	f003 f997 	bl	26f18 <_ZN9allow_pin12full_dynamic17unshare_if_shared17hc1e7d593d40bae1cE>
   23bea:	9c03      	ldr	r4, [sp, #12]
   23bec:	1c60      	adds	r0, r4, #1
   23bee:	2253      	movs	r2, #83	@ 0x53
   23bf0:	4629      	mov	r1, r5
   23bf2:	f003 fb52 	bl	2729a <__aeabi_memcpy>
   23bf6:	e7e5      	b.n	23bc4 <_ZN20complex_full_dynamic3app17hdcb64908c5dee23fE+0x78>
   23bf8:	00000ec3 	.word	0x00000ec3

00023bfc <_ZN20complex_full_dynamic3app17hdeac81679622e8eeE>:
   23bfc:	b5f0      	push	{r4, r5, r6, r7, lr}
   23bfe:	af03      	add	r7, sp, #12
   23c00:	b0a5      	sub	sp, #148	@ 0x94
   23c02:	9003      	str	r0, [sp, #12]
   23c04:	ac04      	add	r4, sp, #16
   23c06:	2002      	movs	r0, #2
   23c08:	9002      	str	r0, [sp, #8]
   23c0a:	7220      	strb	r0, [r4, #8]
   23c0c:	340c      	adds	r4, #12
   23c0e:	2213      	movs	r2, #19
   23c10:	9201      	str	r2, [sp, #4]
   23c12:	4620      	mov	r0, r4
   23c14:	f003 fb41 	bl	2729a <__aeabi_memcpy>
   23c18:	ae0c      	add	r6, sp, #48	@ 0x30
   23c1a:	4635      	mov	r5, r6
   23c1c:	350c      	adds	r5, #12
   23c1e:	2155      	movs	r1, #85	@ 0x55
   23c20:	4628      	mov	r0, r5
   23c22:	f003 f98d 	bl	26f40 <__aeabi_memclr4>
   23c26:	9802      	ldr	r0, [sp, #8]
   23c28:	7230      	strb	r0, [r6, #8]
   23c2a:	4820      	ldr	r0, [pc, #128]	@ (23cac <_ZN20complex_full_dynamic3app17hdeac81679622e8eeE+0xb0>)
   23c2c:	2609      	movs	r6, #9
   23c2e:	4631      	mov	r1, r6
   23c30:	4622      	mov	r2, r4
   23c32:	9b01      	ldr	r3, [sp, #4]
   23c34:	df04      	svc	4
   23c36:	2802      	cmp	r0, #2
   23c38:	d01a      	beq.n	23c70 <_ZN20complex_full_dynamic3app17hdeac81679622e8eeE+0x74>
   23c3a:	a804      	add	r0, sp, #16
   23c3c:	2104      	movs	r1, #4
   23c3e:	7201      	strb	r1, [r0, #8]
   23c40:	9605      	str	r6, [sp, #20]
   23c42:	4e1a      	ldr	r6, [pc, #104]	@ (23cac <_ZN20complex_full_dynamic3app17hdeac81679622e8eeE+0xb0>)
   23c44:	9604      	str	r6, [sp, #16]
   23c46:	2407      	movs	r4, #7
   23c48:	2355      	movs	r3, #85	@ 0x55
   23c4a:	4630      	mov	r0, r6
   23c4c:	4621      	mov	r1, r4
   23c4e:	462a      	mov	r2, r5
   23c50:	df03      	svc	3
   23c52:	2802      	cmp	r0, #2
   23c54:	d00c      	beq.n	23c70 <_ZN20complex_full_dynamic3app17hdeac81679622e8eeE+0x74>
   23c56:	a80c      	add	r0, sp, #48	@ 0x30
   23c58:	2103      	movs	r1, #3
   23c5a:	7201      	strb	r1, [r0, #8]
   23c5c:	960c      	str	r6, [sp, #48]	@ 0x30
   23c5e:	940d      	str	r4, [sp, #52]	@ 0x34
   23c60:	4812      	ldr	r0, [pc, #72]	@ (23cac <_ZN20complex_full_dynamic3app17hdeac81679622e8eeE+0xb0>)
   23c62:	2109      	movs	r1, #9
   23c64:	2600      	movs	r6, #0
   23c66:	4622      	mov	r2, r4
   23c68:	4633      	mov	r3, r6
   23c6a:	df02      	svc	2
   23c6c:	287f      	cmp	r0, #127	@ 0x7f
   23c6e:	d80b      	bhi.n	23c88 <_ZN20complex_full_dynamic3app17hdeac81679622e8eeE+0x8c>
   23c70:	9c03      	ldr	r4, [sp, #12]
   23c72:	6061      	str	r1, [r4, #4]
   23c74:	2601      	movs	r6, #1
   23c76:	7026      	strb	r6, [r4, #0]
   23c78:	a80c      	add	r0, sp, #48	@ 0x30
   23c7a:	f003 f94d 	bl	26f18 <_ZN9allow_pin12full_dynamic17unshare_if_shared17hc1e7d593d40bae1cE>
   23c7e:	a804      	add	r0, sp, #16
   23c80:	f003 f94a 	bl	26f18 <_ZN9allow_pin12full_dynamic17unshare_if_shared17hc1e7d593d40bae1cE>
   23c84:	b025      	add	sp, #148	@ 0x94
   23c86:	bdf0      	pop	{r4, r5, r6, r7, pc}
   23c88:	a804      	add	r0, sp, #16
   23c8a:	f003 f945 	bl	26f18 <_ZN9allow_pin12full_dynamic17unshare_if_shared17hc1e7d593d40bae1cE>
   23c8e:	ac0c      	add	r4, sp, #48	@ 0x30
   23c90:	4620      	mov	r0, r4
   23c92:	f003 f941 	bl	26f18 <_ZN9allow_pin12full_dynamic17unshare_if_shared17hc1e7d593d40bae1cE>
   23c96:	4620      	mov	r0, r4
   23c98:	f003 f93e 	bl	26f18 <_ZN9allow_pin12full_dynamic17unshare_if_shared17hc1e7d593d40bae1cE>
   23c9c:	9c03      	ldr	r4, [sp, #12]
   23c9e:	1c60      	adds	r0, r4, #1
   23ca0:	2255      	movs	r2, #85	@ 0x55
   23ca2:	4629      	mov	r1, r5
   23ca4:	f003 faf9 	bl	2729a <__aeabi_memcpy>
   23ca8:	e7e5      	b.n	23c76 <_ZN20complex_full_dynamic3app17hdeac81679622e8eeE+0x7a>
   23caa:	46c0      	nop			@ (mov r8, r8)
   23cac:	0000032e 	.word	0x0000032e

00023cb0 <_ZN20complex_full_dynamic3app17he7ab03343c62da64E>:
   23cb0:	b5f0      	push	{r4, r5, r6, r7, lr}
   23cb2:	af03      	add	r7, sp, #12
   23cb4:	b0a7      	sub	sp, #156	@ 0x9c
   23cb6:	9002      	str	r0, [sp, #8]
   23cb8:	ae03      	add	r6, sp, #12
   23cba:	2002      	movs	r0, #2
   23cbc:	9001      	str	r0, [sp, #4]
   23cbe:	7230      	strb	r0, [r6, #8]
   23cc0:	360c      	adds	r6, #12
   23cc2:	2227      	movs	r2, #39	@ 0x27
   23cc4:	9200      	str	r2, [sp, #0]
   23cc6:	4630      	mov	r0, r6
   23cc8:	f003 fae7 	bl	2729a <__aeabi_memcpy>
   23ccc:	ac10      	add	r4, sp, #64	@ 0x40
   23cce:	4625      	mov	r5, r4
   23cd0:	350c      	adds	r5, #12
   23cd2:	214f      	movs	r1, #79	@ 0x4f
   23cd4:	4628      	mov	r0, r5
   23cd6:	f003 f933 	bl	26f40 <__aeabi_memclr4>
   23cda:	9801      	ldr	r0, [sp, #4]
   23cdc:	7220      	strb	r0, [r4, #8]
   23cde:	481f      	ldr	r0, [pc, #124]	@ (23d5c <_ZN20complex_full_dynamic3app17he7ab03343c62da64E+0xac>)
   23ce0:	2409      	movs	r4, #9
   23ce2:	4621      	mov	r1, r4
   23ce4:	4632      	mov	r2, r6
   23ce6:	9b00      	ldr	r3, [sp, #0]
   23ce8:	df04      	svc	4
   23cea:	2802      	cmp	r0, #2
   23cec:	d019      	beq.n	23d22 <_ZN20complex_full_dynamic3app17he7ab03343c62da64E+0x72>
   23cee:	a803      	add	r0, sp, #12
   23cf0:	2104      	movs	r1, #4
   23cf2:	7201      	strb	r1, [r0, #8]
   23cf4:	9404      	str	r4, [sp, #16]
   23cf6:	4c19      	ldr	r4, [pc, #100]	@ (23d5c <_ZN20complex_full_dynamic3app17he7ab03343c62da64E+0xac>)
   23cf8:	9403      	str	r4, [sp, #12]
   23cfa:	2600      	movs	r6, #0
   23cfc:	234f      	movs	r3, #79	@ 0x4f
   23cfe:	4620      	mov	r0, r4
   23d00:	4631      	mov	r1, r6
   23d02:	462a      	mov	r2, r5
   23d04:	df03      	svc	3
   23d06:	2802      	cmp	r0, #2
   23d08:	d00b      	beq.n	23d22 <_ZN20complex_full_dynamic3app17he7ab03343c62da64E+0x72>
   23d0a:	a810      	add	r0, sp, #64	@ 0x40
   23d0c:	2103      	movs	r1, #3
   23d0e:	7201      	strb	r1, [r0, #8]
   23d10:	9410      	str	r4, [sp, #64]	@ 0x40
   23d12:	9611      	str	r6, [sp, #68]	@ 0x44
   23d14:	4811      	ldr	r0, [pc, #68]	@ (23d5c <_ZN20complex_full_dynamic3app17he7ab03343c62da64E+0xac>)
   23d16:	2109      	movs	r1, #9
   23d18:	4632      	mov	r2, r6
   23d1a:	4633      	mov	r3, r6
   23d1c:	df02      	svc	2
   23d1e:	287f      	cmp	r0, #127	@ 0x7f
   23d20:	d80b      	bhi.n	23d3a <_ZN20complex_full_dynamic3app17he7ab03343c62da64E+0x8a>
   23d22:	9c02      	ldr	r4, [sp, #8]
   23d24:	6061      	str	r1, [r4, #4]
   23d26:	2601      	movs	r6, #1
   23d28:	7026      	strb	r6, [r4, #0]
   23d2a:	a810      	add	r0, sp, #64	@ 0x40
   23d2c:	f003 f8f4 	bl	26f18 <_ZN9allow_pin12full_dynamic17unshare_if_shared17hc1e7d593d40bae1cE>
   23d30:	a803      	add	r0, sp, #12
   23d32:	f003 f8f1 	bl	26f18 <_ZN9allow_pin12full_dynamic17unshare_if_shared17hc1e7d593d40bae1cE>
   23d36:	b027      	add	sp, #156	@ 0x9c
   23d38:	bdf0      	pop	{r4, r5, r6, r7, pc}
   23d3a:	a803      	add	r0, sp, #12
   23d3c:	f003 f8ec 	bl	26f18 <_ZN9allow_pin12full_dynamic17unshare_if_shared17hc1e7d593d40bae1cE>
   23d40:	ac10      	add	r4, sp, #64	@ 0x40
   23d42:	4620      	mov	r0, r4
   23d44:	f003 f8e8 	bl	26f18 <_ZN9allow_pin12full_dynamic17unshare_if_shared17hc1e7d593d40bae1cE>
   23d48:	4620      	mov	r0, r4
   23d4a:	f003 f8e5 	bl	26f18 <_ZN9allow_pin12full_dynamic17unshare_if_shared17hc1e7d593d40bae1cE>
   23d4e:	9c02      	ldr	r4, [sp, #8]
   23d50:	1c60      	adds	r0, r4, #1
   23d52:	224f      	movs	r2, #79	@ 0x4f
   23d54:	4629      	mov	r1, r5
   23d56:	f003 faa0 	bl	2729a <__aeabi_memcpy>
   23d5a:	e7e5      	b.n	23d28 <_ZN20complex_full_dynamic3app17he7ab03343c62da64E+0x78>
   23d5c:	00000b4c 	.word	0x00000b4c

00023d60 <_ZN20complex_full_dynamic3app17hed03b19647873296E>:
   23d60:	b5f0      	push	{r4, r5, r6, r7, lr}
   23d62:	af03      	add	r7, sp, #12
   23d64:	b0ad      	sub	sp, #180	@ 0xb4
   23d66:	9003      	str	r0, [sp, #12]
   23d68:	ac04      	add	r4, sp, #16
   23d6a:	2002      	movs	r0, #2
   23d6c:	9002      	str	r0, [sp, #8]
   23d6e:	7220      	strb	r0, [r4, #8]
   23d70:	340c      	adds	r4, #12
   23d72:	224d      	movs	r2, #77	@ 0x4d
   23d74:	9201      	str	r2, [sp, #4]
   23d76:	4620      	mov	r0, r4
   23d78:	f003 fa8f 	bl	2729a <__aeabi_memcpy>
   23d7c:	ae1b      	add	r6, sp, #108	@ 0x6c
   23d7e:	4635      	mov	r5, r6
   23d80:	350c      	adds	r5, #12
   23d82:	213c      	movs	r1, #60	@ 0x3c
   23d84:	4628      	mov	r0, r5
   23d86:	f003 f8db 	bl	26f40 <__aeabi_memclr4>
   23d8a:	9802      	ldr	r0, [sp, #8]
   23d8c:	7230      	strb	r0, [r6, #8]
   23d8e:	481f      	ldr	r0, [pc, #124]	@ (23e0c <_ZN20complex_full_dynamic3app17hed03b19647873296E+0xac>)
   23d90:	2604      	movs	r6, #4
   23d92:	4631      	mov	r1, r6
   23d94:	4622      	mov	r2, r4
   23d96:	9b01      	ldr	r3, [sp, #4]
   23d98:	df04      	svc	4
   23d9a:	2802      	cmp	r0, #2
   23d9c:	d019      	beq.n	23dd2 <_ZN20complex_full_dynamic3app17hed03b19647873296E+0x72>
   23d9e:	a804      	add	r0, sp, #16
   23da0:	7206      	strb	r6, [r0, #8]
   23da2:	9605      	str	r6, [sp, #20]
   23da4:	4e19      	ldr	r6, [pc, #100]	@ (23e0c <_ZN20complex_full_dynamic3app17hed03b19647873296E+0xac>)
   23da6:	9604      	str	r6, [sp, #16]
   23da8:	2409      	movs	r4, #9
   23daa:	233c      	movs	r3, #60	@ 0x3c
   23dac:	4630      	mov	r0, r6
   23dae:	4621      	mov	r1, r4
   23db0:	462a      	mov	r2, r5
   23db2:	df03      	svc	3
   23db4:	2802      	cmp	r0, #2
   23db6:	d00c      	beq.n	23dd2 <_ZN20complex_full_dynamic3app17hed03b19647873296E+0x72>
   23db8:	a81b      	add	r0, sp, #108	@ 0x6c
   23dba:	2103      	movs	r1, #3
   23dbc:	7201      	strb	r1, [r0, #8]
   23dbe:	961b      	str	r6, [sp, #108]	@ 0x6c
   23dc0:	941c      	str	r4, [sp, #112]	@ 0x70
   23dc2:	4812      	ldr	r0, [pc, #72]	@ (23e0c <_ZN20complex_full_dynamic3app17hed03b19647873296E+0xac>)
   23dc4:	2104      	movs	r1, #4
   23dc6:	2600      	movs	r6, #0
   23dc8:	4622      	mov	r2, r4
   23dca:	4633      	mov	r3, r6
   23dcc:	df02      	svc	2
   23dce:	287f      	cmp	r0, #127	@ 0x7f
   23dd0:	d80b      	bhi.n	23dea <_ZN20complex_full_dynamic3app17hed03b19647873296E+0x8a>
   23dd2:	9c03      	ldr	r4, [sp, #12]
   23dd4:	6061      	str	r1, [r4, #4]
   23dd6:	2601      	movs	r6, #1
   23dd8:	7026      	strb	r6, [r4, #0]
   23dda:	a81b      	add	r0, sp, #108	@ 0x6c
   23ddc:	f003 f89c 	bl	26f18 <_ZN9allow_pin12full_dynamic17unshare_if_shared17hc1e7d593d40bae1cE>
   23de0:	a804      	add	r0, sp, #16
   23de2:	f003 f899 	bl	26f18 <_ZN9allow_pin12full_dynamic17unshare_if_shared17hc1e7d593d40bae1cE>
   23de6:	b02d      	add	sp, #180	@ 0xb4
   23de8:	bdf0      	pop	{r4, r5, r6, r7, pc}
   23dea:	a804      	add	r0, sp, #16
   23dec:	f003 f894 	bl	26f18 <_ZN9allow_pin12full_dynamic17unshare_if_shared17hc1e7d593d40bae1cE>
   23df0:	ac1b      	add	r4, sp, #108	@ 0x6c
   23df2:	4620      	mov	r0, r4
   23df4:	f003 f890 	bl	26f18 <_ZN9allow_pin12full_dynamic17unshare_if_shared17hc1e7d593d40bae1cE>
   23df8:	4620      	mov	r0, r4
   23dfa:	f003 f88d 	bl	26f18 <_ZN9allow_pin12full_dynamic17unshare_if_shared17hc1e7d593d40bae1cE>
   23dfe:	9c03      	ldr	r4, [sp, #12]
   23e00:	1c60      	adds	r0, r4, #1
   23e02:	223c      	movs	r2, #60	@ 0x3c
   23e04:	4629      	mov	r1, r5
   23e06:	f003 fa48 	bl	2729a <__aeabi_memcpy>
   23e0a:	e7e5      	b.n	23dd8 <_ZN20complex_full_dynamic3app17hed03b19647873296E+0x78>
   23e0c:	000021ab 	.word	0x000021ab

00023e10 <_ZN20complex_full_dynamic3app17hf0d64dd72376abf6E>:
   23e10:	b5f0      	push	{r4, r5, r6, r7, lr}
   23e12:	af03      	add	r7, sp, #12
   23e14:	b09f      	sub	sp, #124	@ 0x7c
   23e16:	9002      	str	r0, [sp, #8]
   23e18:	ae03      	add	r6, sp, #12
   23e1a:	2002      	movs	r0, #2
   23e1c:	9001      	str	r0, [sp, #4]
   23e1e:	7230      	strb	r0, [r6, #8]
   23e20:	360c      	adds	r6, #12
   23e22:	222c      	movs	r2, #44	@ 0x2c
   23e24:	9200      	str	r2, [sp, #0]
   23e26:	4630      	mov	r0, r6
   23e28:	f003 fa37 	bl	2729a <__aeabi_memcpy>
   23e2c:	ad11      	add	r5, sp, #68	@ 0x44
   23e2e:	462c      	mov	r4, r5
   23e30:	340c      	adds	r4, #12
   23e32:	212a      	movs	r1, #42	@ 0x2a
   23e34:	4620      	mov	r0, r4
   23e36:	f003 f883 	bl	26f40 <__aeabi_memclr4>
   23e3a:	9801      	ldr	r0, [sp, #4]
   23e3c:	7228      	strb	r0, [r5, #8]
   23e3e:	481f      	ldr	r0, [pc, #124]	@ (23ebc <_ZN20complex_full_dynamic3app17hf0d64dd72376abf6E+0xac>)
   23e40:	2503      	movs	r5, #3
   23e42:	4629      	mov	r1, r5
   23e44:	4632      	mov	r2, r6
   23e46:	9b00      	ldr	r3, [sp, #0]
   23e48:	df04      	svc	4
   23e4a:	2802      	cmp	r0, #2
   23e4c:	d017      	beq.n	23e7e <_ZN20complex_full_dynamic3app17hf0d64dd72376abf6E+0x6e>
   23e4e:	a803      	add	r0, sp, #12
   23e50:	2104      	movs	r1, #4
   23e52:	7201      	strb	r1, [r0, #8]
   23e54:	9504      	str	r5, [sp, #16]
   23e56:	4819      	ldr	r0, [pc, #100]	@ (23ebc <_ZN20complex_full_dynamic3app17hf0d64dd72376abf6E+0xac>)
   23e58:	9003      	str	r0, [sp, #12]
   23e5a:	2600      	movs	r6, #0
   23e5c:	232a      	movs	r3, #42	@ 0x2a
   23e5e:	4631      	mov	r1, r6
   23e60:	4622      	mov	r2, r4
   23e62:	df03      	svc	3
   23e64:	2802      	cmp	r0, #2
   23e66:	d00a      	beq.n	23e7e <_ZN20complex_full_dynamic3app17hf0d64dd72376abf6E+0x6e>
   23e68:	a811      	add	r0, sp, #68	@ 0x44
   23e6a:	7205      	strb	r5, [r0, #8]
   23e6c:	4813      	ldr	r0, [pc, #76]	@ (23ebc <_ZN20complex_full_dynamic3app17hf0d64dd72376abf6E+0xac>)
   23e6e:	9011      	str	r0, [sp, #68]	@ 0x44
   23e70:	9612      	str	r6, [sp, #72]	@ 0x48
   23e72:	4629      	mov	r1, r5
   23e74:	4632      	mov	r2, r6
   23e76:	4633      	mov	r3, r6
   23e78:	df02      	svc	2
   23e7a:	287f      	cmp	r0, #127	@ 0x7f
   23e7c:	d80b      	bhi.n	23e96 <_ZN20complex_full_dynamic3app17hf0d64dd72376abf6E+0x86>
   23e7e:	9c02      	ldr	r4, [sp, #8]
   23e80:	6061      	str	r1, [r4, #4]
   23e82:	2601      	movs	r6, #1
   23e84:	7026      	strb	r6, [r4, #0]
   23e86:	a811      	add	r0, sp, #68	@ 0x44
   23e88:	f003 f846 	bl	26f18 <_ZN9allow_pin12full_dynamic17unshare_if_shared17hc1e7d593d40bae1cE>
   23e8c:	a803      	add	r0, sp, #12
   23e8e:	f003 f843 	bl	26f18 <_ZN9allow_pin12full_dynamic17unshare_if_shared17hc1e7d593d40bae1cE>
   23e92:	b01f      	add	sp, #124	@ 0x7c
   23e94:	bdf0      	pop	{r4, r5, r6, r7, pc}
   23e96:	a803      	add	r0, sp, #12
   23e98:	f003 f83e 	bl	26f18 <_ZN9allow_pin12full_dynamic17unshare_if_shared17hc1e7d593d40bae1cE>
   23e9c:	4625      	mov	r5, r4
   23e9e:	ac11      	add	r4, sp, #68	@ 0x44
   23ea0:	4620      	mov	r0, r4
   23ea2:	f003 f839 	bl	26f18 <_ZN9allow_pin12full_dynamic17unshare_if_shared17hc1e7d593d40bae1cE>
   23ea6:	4620      	mov	r0, r4
   23ea8:	f003 f836 	bl	26f18 <_ZN9allow_pin12full_dynamic17unshare_if_shared17hc1e7d593d40bae1cE>
   23eac:	9c02      	ldr	r4, [sp, #8]
   23eae:	1c60      	adds	r0, r4, #1
   23eb0:	222a      	movs	r2, #42	@ 0x2a
   23eb2:	4629      	mov	r1, r5
   23eb4:	f003 f9f1 	bl	2729a <__aeabi_memcpy>
   23eb8:	e7e4      	b.n	23e84 <_ZN20complex_full_dynamic3app17hf0d64dd72376abf6E+0x74>
   23eba:	46c0      	nop			@ (mov r8, r8)
   23ebc:	000024f0 	.word	0x000024f0

00023ec0 <_ZN20complex_full_dynamic3app17hf1820fd3e3d405e9E>:
   23ec0:	b5f0      	push	{r4, r5, r6, r7, lr}
   23ec2:	af03      	add	r7, sp, #12
   23ec4:	b0a7      	sub	sp, #156	@ 0x9c
   23ec6:	9003      	str	r0, [sp, #12]
   23ec8:	ae04      	add	r6, sp, #16
   23eca:	2002      	movs	r0, #2
   23ecc:	9002      	str	r0, [sp, #8]
   23ece:	7230      	strb	r0, [r6, #8]
   23ed0:	360c      	adds	r6, #12
   23ed2:	223c      	movs	r2, #60	@ 0x3c
   23ed4:	9201      	str	r2, [sp, #4]
   23ed6:	4630      	mov	r0, r6
   23ed8:	f003 f9df 	bl	2729a <__aeabi_memcpy>
   23edc:	ad16      	add	r5, sp, #88	@ 0x58
   23ede:	462c      	mov	r4, r5
   23ee0:	340c      	adds	r4, #12
   23ee2:	2138      	movs	r1, #56	@ 0x38
   23ee4:	4620      	mov	r0, r4
   23ee6:	f003 f82b 	bl	26f40 <__aeabi_memclr4>
   23eea:	9802      	ldr	r0, [sp, #8]
   23eec:	7228      	strb	r0, [r5, #8]
   23eee:	481f      	ldr	r0, [pc, #124]	@ (23f6c <_ZN20complex_full_dynamic3app17hf1820fd3e3d405e9E+0xac>)
   23ef0:	2503      	movs	r5, #3
   23ef2:	4629      	mov	r1, r5
   23ef4:	4632      	mov	r2, r6
   23ef6:	9b01      	ldr	r3, [sp, #4]
   23ef8:	df04      	svc	4
   23efa:	2802      	cmp	r0, #2
   23efc:	d018      	beq.n	23f30 <_ZN20complex_full_dynamic3app17hf1820fd3e3d405e9E+0x70>
   23efe:	a804      	add	r0, sp, #16
   23f00:	2104      	movs	r1, #4
   23f02:	7201      	strb	r1, [r0, #8]
   23f04:	4e19      	ldr	r6, [pc, #100]	@ (23f6c <_ZN20complex_full_dynamic3app17hf1820fd3e3d405e9E+0xac>)
   23f06:	9604      	str	r6, [sp, #16]
   23f08:	9505      	str	r5, [sp, #20]
   23f0a:	2338      	movs	r3, #56	@ 0x38
   23f0c:	4630      	mov	r0, r6
   23f0e:	4629      	mov	r1, r5
   23f10:	4622      	mov	r2, r4
   23f12:	df03      	svc	3
   23f14:	2802      	cmp	r0, #2
   23f16:	d00b      	beq.n	23f30 <_ZN20complex_full_dynamic3app17hf1820fd3e3d405e9E+0x70>
   23f18:	a816      	add	r0, sp, #88	@ 0x58
   23f1a:	7205      	strb	r5, [r0, #8]
   23f1c:	9517      	str	r5, [sp, #92]	@ 0x5c
   23f1e:	9616      	str	r6, [sp, #88]	@ 0x58
   23f20:	4812      	ldr	r0, [pc, #72]	@ (23f6c <_ZN20complex_full_dynamic3app17hf1820fd3e3d405e9E+0xac>)
   23f22:	2600      	movs	r6, #0
   23f24:	4629      	mov	r1, r5
   23f26:	462a      	mov	r2, r5
   23f28:	4633      	mov	r3, r6
   23f2a:	df02      	svc	2
   23f2c:	287f      	cmp	r0, #127	@ 0x7f
   23f2e:	d80b      	bhi.n	23f48 <_ZN20complex_full_dynamic3app17hf1820fd3e3d405e9E+0x88>
   23f30:	9c03      	ldr	r4, [sp, #12]
   23f32:	6061      	str	r1, [r4, #4]
   23f34:	2601      	movs	r6, #1
   23f36:	7026      	strb	r6, [r4, #0]
   23f38:	a816      	add	r0, sp, #88	@ 0x58
   23f3a:	f002 ffed 	bl	26f18 <_ZN9allow_pin12full_dynamic17unshare_if_shared17hc1e7d593d40bae1cE>
   23f3e:	a804      	add	r0, sp, #16
   23f40:	f002 ffea 	bl	26f18 <_ZN9allow_pin12full_dynamic17unshare_if_shared17hc1e7d593d40bae1cE>
   23f44:	b027      	add	sp, #156	@ 0x9c
   23f46:	bdf0      	pop	{r4, r5, r6, r7, pc}
   23f48:	a804      	add	r0, sp, #16
   23f4a:	f002 ffe5 	bl	26f18 <_ZN9allow_pin12full_dynamic17unshare_if_shared17hc1e7d593d40bae1cE>
   23f4e:	4625      	mov	r5, r4
   23f50:	ac16      	add	r4, sp, #88	@ 0x58
   23f52:	4620      	mov	r0, r4
   23f54:	f002 ffe0 	bl	26f18 <_ZN9allow_pin12full_dynamic17unshare_if_shared17hc1e7d593d40bae1cE>
   23f58:	4620      	mov	r0, r4
   23f5a:	f002 ffdd 	bl	26f18 <_ZN9allow_pin12full_dynamic17unshare_if_shared17hc1e7d593d40bae1cE>
   23f5e:	9c03      	ldr	r4, [sp, #12]
   23f60:	1c60      	adds	r0, r4, #1
   23f62:	2238      	movs	r2, #56	@ 0x38
   23f64:	4629      	mov	r1, r5
   23f66:	f003 f998 	bl	2729a <__aeabi_memcpy>
   23f6a:	e7e4      	b.n	23f36 <_ZN20complex_full_dynamic3app17hf1820fd3e3d405e9E+0x76>
   23f6c:	00001d19 	.word	0x00001d19

00023f70 <_ZN20complex_full_dynamic3app17hf34641b2565146d0E>:
   23f70:	b5f0      	push	{r4, r5, r6, r7, lr}
   23f72:	af03      	add	r7, sp, #12
   23f74:	b0a3      	sub	sp, #140	@ 0x8c
   23f76:	9002      	str	r0, [sp, #8]
   23f78:	ac03      	add	r4, sp, #12
   23f7a:	2002      	movs	r0, #2
   23f7c:	9001      	str	r0, [sp, #4]
   23f7e:	7220      	strb	r0, [r4, #8]
   23f80:	340c      	adds	r4, #12
   23f82:	223c      	movs	r2, #60	@ 0x3c
   23f84:	9200      	str	r2, [sp, #0]
   23f86:	4620      	mov	r0, r4
   23f88:	f003 f987 	bl	2729a <__aeabi_memcpy>
   23f8c:	ae15      	add	r6, sp, #84	@ 0x54
   23f8e:	4635      	mov	r5, r6
   23f90:	350c      	adds	r5, #12
   23f92:	212c      	movs	r1, #44	@ 0x2c
   23f94:	4628      	mov	r0, r5
   23f96:	f002 ffd3 	bl	26f40 <__aeabi_memclr4>
   23f9a:	9801      	ldr	r0, [sp, #4]
   23f9c:	7230      	strb	r0, [r6, #8]
   23f9e:	4820      	ldr	r0, [pc, #128]	@ (24020 <_ZN20complex_full_dynamic3app17hf34641b2565146d0E+0xb0>)
   23fa0:	2605      	movs	r6, #5
   23fa2:	4631      	mov	r1, r6
   23fa4:	4622      	mov	r2, r4
   23fa6:	9b00      	ldr	r3, [sp, #0]
   23fa8:	df04      	svc	4
   23faa:	2802      	cmp	r0, #2
   23fac:	d01a      	beq.n	23fe4 <_ZN20complex_full_dynamic3app17hf34641b2565146d0E+0x74>
   23fae:	a803      	add	r0, sp, #12
   23fb0:	2104      	movs	r1, #4
   23fb2:	7201      	strb	r1, [r0, #8]
   23fb4:	9604      	str	r6, [sp, #16]
   23fb6:	4e1a      	ldr	r6, [pc, #104]	@ (24020 <_ZN20complex_full_dynamic3app17hf34641b2565146d0E+0xb0>)
   23fb8:	9603      	str	r6, [sp, #12]
   23fba:	2407      	movs	r4, #7
   23fbc:	232c      	movs	r3, #44	@ 0x2c
   23fbe:	4630      	mov	r0, r6
   23fc0:	4621      	mov	r1, r4
   23fc2:	462a      	mov	r2, r5
   23fc4:	df03      	svc	3
   23fc6:	2802      	cmp	r0, #2
   23fc8:	d00c      	beq.n	23fe4 <_ZN20complex_full_dynamic3app17hf34641b2565146d0E+0x74>
   23fca:	a815      	add	r0, sp, #84	@ 0x54
   23fcc:	2103      	movs	r1, #3
   23fce:	7201      	strb	r1, [r0, #8]
   23fd0:	9615      	str	r6, [sp, #84]	@ 0x54
   23fd2:	9416      	str	r4, [sp, #88]	@ 0x58
   23fd4:	4812      	ldr	r0, [pc, #72]	@ (24020 <_ZN20complex_full_dynamic3app17hf34641b2565146d0E+0xb0>)
   23fd6:	2105      	movs	r1, #5
   23fd8:	2600      	movs	r6, #0
   23fda:	4622      	mov	r2, r4
   23fdc:	4633      	mov	r3, r6
   23fde:	df02      	svc	2
   23fe0:	287f      	cmp	r0, #127	@ 0x7f
   23fe2:	d80b      	bhi.n	23ffc <_ZN20complex_full_dynamic3app17hf34641b2565146d0E+0x8c>
   23fe4:	9c02      	ldr	r4, [sp, #8]
   23fe6:	6061      	str	r1, [r4, #4]
   23fe8:	2601      	movs	r6, #1
   23fea:	7026      	strb	r6, [r4, #0]
   23fec:	a815      	add	r0, sp, #84	@ 0x54
   23fee:	f002 ff93 	bl	26f18 <_ZN9allow_pin12full_dynamic17unshare_if_shared17hc1e7d593d40bae1cE>
   23ff2:	a803      	add	r0, sp, #12
   23ff4:	f002 ff90 	bl	26f18 <_ZN9allow_pin12full_dynamic17unshare_if_shared17hc1e7d593d40bae1cE>
   23ff8:	b023      	add	sp, #140	@ 0x8c
   23ffa:	bdf0      	pop	{r4, r5, r6, r7, pc}
   23ffc:	a803      	add	r0, sp, #12
   23ffe:	f002 ff8b 	bl	26f18 <_ZN9allow_pin12full_dynamic17unshare_if_shared17hc1e7d593d40bae1cE>
   24002:	ac15      	add	r4, sp, #84	@ 0x54
   24004:	4620      	mov	r0, r4
   24006:	f002 ff87 	bl	26f18 <_ZN9allow_pin12full_dynamic17unshare_if_shared17hc1e7d593d40bae1cE>
   2400a:	4620      	mov	r0, r4
   2400c:	f002 ff84 	bl	26f18 <_ZN9allow_pin12full_dynamic17unshare_if_shared17hc1e7d593d40bae1cE>
   24010:	9c02      	ldr	r4, [sp, #8]
   24012:	1c60      	adds	r0, r4, #1
   24014:	222c      	movs	r2, #44	@ 0x2c
   24016:	4629      	mov	r1, r5
   24018:	f003 f93f 	bl	2729a <__aeabi_memcpy>
   2401c:	e7e5      	b.n	23fea <_ZN20complex_full_dynamic3app17hf34641b2565146d0E+0x7a>
   2401e:	46c0      	nop			@ (mov r8, r8)
   24020:	00001eac 	.word	0x00001eac

00024024 <_ZN20complex_full_dynamic3app17hf984ffa678b0309aE>:
   24024:	b5f0      	push	{r4, r5, r6, r7, lr}
   24026:	af03      	add	r7, sp, #12
   24028:	b0a3      	sub	sp, #140	@ 0x8c
   2402a:	9003      	str	r0, [sp, #12]
   2402c:	ac04      	add	r4, sp, #16
   2402e:	2002      	movs	r0, #2
   24030:	9002      	str	r0, [sp, #8]
   24032:	7220      	strb	r0, [r4, #8]
   24034:	340c      	adds	r4, #12
   24036:	223b      	movs	r2, #59	@ 0x3b
   24038:	9201      	str	r2, [sp, #4]
   2403a:	4620      	mov	r0, r4
   2403c:	f003 f92d 	bl	2729a <__aeabi_memcpy>
   24040:	ae16      	add	r6, sp, #88	@ 0x58
   24042:	4635      	mov	r5, r6
   24044:	350c      	adds	r5, #12
   24046:	2127      	movs	r1, #39	@ 0x27
   24048:	4628      	mov	r0, r5
   2404a:	f002 ff79 	bl	26f40 <__aeabi_memclr4>
   2404e:	9802      	ldr	r0, [sp, #8]
   24050:	7230      	strb	r0, [r6, #8]
   24052:	481f      	ldr	r0, [pc, #124]	@ (240d0 <_ZN20complex_full_dynamic3app17hf984ffa678b0309aE+0xac>)
   24054:	2605      	movs	r6, #5
   24056:	4631      	mov	r1, r6
   24058:	4622      	mov	r2, r4
   2405a:	9b01      	ldr	r3, [sp, #4]
   2405c:	df04      	svc	4
   2405e:	2802      	cmp	r0, #2
   24060:	d019      	beq.n	24096 <_ZN20complex_full_dynamic3app17hf984ffa678b0309aE+0x72>
   24062:	a804      	add	r0, sp, #16
   24064:	2104      	movs	r1, #4
   24066:	7201      	strb	r1, [r0, #8]
   24068:	9605      	str	r6, [sp, #20]
   2406a:	4e19      	ldr	r6, [pc, #100]	@ (240d0 <_ZN20complex_full_dynamic3app17hf984ffa678b0309aE+0xac>)
   2406c:	9604      	str	r6, [sp, #16]
   2406e:	2403      	movs	r4, #3
   24070:	2327      	movs	r3, #39	@ 0x27
   24072:	4630      	mov	r0, r6
   24074:	4621      	mov	r1, r4
   24076:	462a      	mov	r2, r5
   24078:	df03      	svc	3
   2407a:	2802      	cmp	r0, #2
   2407c:	d00b      	beq.n	24096 <_ZN20complex_full_dynamic3app17hf984ffa678b0309aE+0x72>
   2407e:	a816      	add	r0, sp, #88	@ 0x58
   24080:	7204      	strb	r4, [r0, #8]
   24082:	9417      	str	r4, [sp, #92]	@ 0x5c
   24084:	9616      	str	r6, [sp, #88]	@ 0x58
   24086:	4812      	ldr	r0, [pc, #72]	@ (240d0 <_ZN20complex_full_dynamic3app17hf984ffa678b0309aE+0xac>)
   24088:	2105      	movs	r1, #5
   2408a:	2600      	movs	r6, #0
   2408c:	4622      	mov	r2, r4
   2408e:	4633      	mov	r3, r6
   24090:	df02      	svc	2
   24092:	287f      	cmp	r0, #127	@ 0x7f
   24094:	d80b      	bhi.n	240ae <_ZN20complex_full_dynamic3app17hf984ffa678b0309aE+0x8a>
   24096:	9c03      	ldr	r4, [sp, #12]
   24098:	6061      	str	r1, [r4, #4]
   2409a:	2601      	movs	r6, #1
   2409c:	7026      	strb	r6, [r4, #0]
   2409e:	a816      	add	r0, sp, #88	@ 0x58
   240a0:	f002 ff3a 	bl	26f18 <_ZN9allow_pin12full_dynamic17unshare_if_shared17hc1e7d593d40bae1cE>
   240a4:	a804      	add	r0, sp, #16
   240a6:	f002 ff37 	bl	26f18 <_ZN9allow_pin12full_dynamic17unshare_if_shared17hc1e7d593d40bae1cE>
   240aa:	b023      	add	sp, #140	@ 0x8c
   240ac:	bdf0      	pop	{r4, r5, r6, r7, pc}
   240ae:	a804      	add	r0, sp, #16
   240b0:	f002 ff32 	bl	26f18 <_ZN9allow_pin12full_dynamic17unshare_if_shared17hc1e7d593d40bae1cE>
   240b4:	ac16      	add	r4, sp, #88	@ 0x58
   240b6:	4620      	mov	r0, r4
   240b8:	f002 ff2e 	bl	26f18 <_ZN9allow_pin12full_dynamic17unshare_if_shared17hc1e7d593d40bae1cE>
   240bc:	4620      	mov	r0, r4
   240be:	f002 ff2b 	bl	26f18 <_ZN9allow_pin12full_dynamic17unshare_if_shared17hc1e7d593d40bae1cE>
   240c2:	9c03      	ldr	r4, [sp, #12]
   240c4:	1c60      	adds	r0, r4, #1
   240c6:	2227      	movs	r2, #39	@ 0x27
   240c8:	4629      	mov	r1, r5
   240ca:	f003 f8e6 	bl	2729a <__aeabi_memcpy>
   240ce:	e7e5      	b.n	2409c <_ZN20complex_full_dynamic3app17hf984ffa678b0309aE+0x78>
   240d0:	00000bd3 	.word	0x00000bd3

000240d4 <_ZN20complex_full_dynamic3app17hfca55b653d4f8fe3E>:
   240d4:	b5f0      	push	{r4, r5, r6, r7, lr}
   240d6:	af03      	add	r7, sp, #12
   240d8:	b0b1      	sub	sp, #196	@ 0xc4
   240da:	9003      	str	r0, [sp, #12]
   240dc:	ac04      	add	r4, sp, #16
   240de:	2002      	movs	r0, #2
   240e0:	9002      	str	r0, [sp, #8]
   240e2:	7220      	strb	r0, [r4, #8]
   240e4:	340c      	adds	r4, #12
   240e6:	223a      	movs	r2, #58	@ 0x3a
   240e8:	9201      	str	r2, [sp, #4]
   240ea:	4620      	mov	r0, r4
   240ec:	f003 f8d5 	bl	2729a <__aeabi_memcpy>
   240f0:	ae16      	add	r6, sp, #88	@ 0x58
   240f2:	4635      	mov	r5, r6
   240f4:	350c      	adds	r5, #12
   240f6:	215d      	movs	r1, #93	@ 0x5d
   240f8:	4628      	mov	r0, r5
   240fa:	f002 ff21 	bl	26f40 <__aeabi_memclr4>
   240fe:	9802      	ldr	r0, [sp, #8]
   24100:	7230      	strb	r0, [r6, #8]
   24102:	4820      	ldr	r0, [pc, #128]	@ (24184 <_ZN20complex_full_dynamic3app17hfca55b653d4f8fe3E+0xb0>)
   24104:	2600      	movs	r6, #0
   24106:	4631      	mov	r1, r6
   24108:	4622      	mov	r2, r4
   2410a:	9b01      	ldr	r3, [sp, #4]
   2410c:	df04      	svc	4
   2410e:	2802      	cmp	r0, #2
   24110:	d01a      	beq.n	24148 <_ZN20complex_full_dynamic3app17hfca55b653d4f8fe3E+0x74>
   24112:	a804      	add	r0, sp, #16
   24114:	2104      	movs	r1, #4
   24116:	7201      	strb	r1, [r0, #8]
   24118:	9605      	str	r6, [sp, #20]
   2411a:	4e1a      	ldr	r6, [pc, #104]	@ (24184 <_ZN20complex_full_dynamic3app17hfca55b653d4f8fe3E+0xb0>)
   2411c:	9604      	str	r6, [sp, #16]
   2411e:	2405      	movs	r4, #5
   24120:	235d      	movs	r3, #93	@ 0x5d
   24122:	4630      	mov	r0, r6
   24124:	4621      	mov	r1, r4
   24126:	462a      	mov	r2, r5
   24128:	df03      	svc	3
   2412a:	2802      	cmp	r0, #2
   2412c:	d00c      	beq.n	24148 <_ZN20complex_full_dynamic3app17hfca55b653d4f8fe3E+0x74>
   2412e:	a816      	add	r0, sp, #88	@ 0x58
   24130:	2103      	movs	r1, #3
   24132:	7201      	strb	r1, [r0, #8]
   24134:	9616      	str	r6, [sp, #88]	@ 0x58
   24136:	9417      	str	r4, [sp, #92]	@ 0x5c
   24138:	4812      	ldr	r0, [pc, #72]	@ (24184 <_ZN20complex_full_dynamic3app17hfca55b653d4f8fe3E+0xb0>)
   2413a:	2600      	movs	r6, #0
   2413c:	4631      	mov	r1, r6
   2413e:	4622      	mov	r2, r4
   24140:	4633      	mov	r3, r6
   24142:	df02      	svc	2
   24144:	287f      	cmp	r0, #127	@ 0x7f
   24146:	d80b      	bhi.n	24160 <_ZN20complex_full_dynamic3app17hfca55b653d4f8fe3E+0x8c>
   24148:	9c03      	ldr	r4, [sp, #12]
   2414a:	6061      	str	r1, [r4, #4]
   2414c:	2601      	movs	r6, #1
   2414e:	7026      	strb	r6, [r4, #0]
   24150:	a816      	add	r0, sp, #88	@ 0x58
   24152:	f002 fee1 	bl	26f18 <_ZN9allow_pin12full_dynamic17unshare_if_shared17hc1e7d593d40bae1cE>
   24156:	a804      	add	r0, sp, #16
   24158:	f002 fede 	bl	26f18 <_ZN9allow_pin12full_dynamic17unshare_if_shared17hc1e7d593d40bae1cE>
   2415c:	b031      	add	sp, #196	@ 0xc4
   2415e:	bdf0      	pop	{r4, r5, r6, r7, pc}
   24160:	a804      	add	r0, sp, #16
   24162:	f002 fed9 	bl	26f18 <_ZN9allow_pin12full_dynamic17unshare_if_shared17hc1e7d593d40bae1cE>
   24166:	ac16      	add	r4, sp, #88	@ 0x58
   24168:	4620      	mov	r0, r4
   2416a:	f002 fed5 	bl	26f18 <_ZN9allow_pin12full_dynamic17unshare_if_shared17hc1e7d593d40bae1cE>
   2416e:	4620      	mov	r0, r4
   24170:	f002 fed2 	bl	26f18 <_ZN9allow_pin12full_dynamic17unshare_if_shared17hc1e7d593d40bae1cE>
   24174:	9c03      	ldr	r4, [sp, #12]
   24176:	1c60      	adds	r0, r4, #1
   24178:	225d      	movs	r2, #93	@ 0x5d
   2417a:	4629      	mov	r1, r5
   2417c:	f003 f88d 	bl	2729a <__aeabi_memcpy>
   24180:	e7e5      	b.n	2414e <_ZN20complex_full_dynamic3app17hfca55b653d4f8fe3E+0x7a>
   24182:	46c0      	nop			@ (mov r8, r8)
   24184:	000014a4 	.word	0x000014a4

00024188 <_ZN20complex_full_dynamic3app17hfd664572b034fd0cE>:
   24188:	b5f0      	push	{r4, r5, r6, r7, lr}
   2418a:	af03      	add	r7, sp, #12
   2418c:	b097      	sub	sp, #92	@ 0x5c
   2418e:	9002      	str	r0, [sp, #8]
   24190:	ae03      	add	r6, sp, #12
   24192:	2002      	movs	r0, #2
   24194:	9001      	str	r0, [sp, #4]
   24196:	7230      	strb	r0, [r6, #8]
   24198:	360c      	adds	r6, #12
   2419a:	220f      	movs	r2, #15
   2419c:	9200      	str	r2, [sp, #0]
   2419e:	4630      	mov	r0, r6
   241a0:	f003 f87b 	bl	2729a <__aeabi_memcpy>
   241a4:	ad0a      	add	r5, sp, #40	@ 0x28
   241a6:	462c      	mov	r4, r5
   241a8:	340c      	adds	r4, #12
   241aa:	2125      	movs	r1, #37	@ 0x25
   241ac:	4620      	mov	r0, r4
   241ae:	f002 fec7 	bl	26f40 <__aeabi_memclr4>
   241b2:	9801      	ldr	r0, [sp, #4]
   241b4:	7228      	strb	r0, [r5, #8]
   241b6:	20a2      	movs	r0, #162	@ 0xa2
   241b8:	2508      	movs	r5, #8
   241ba:	9001      	str	r0, [sp, #4]
   241bc:	4629      	mov	r1, r5
   241be:	4632      	mov	r2, r6
   241c0:	9b00      	ldr	r3, [sp, #0]
   241c2:	df04      	svc	4
   241c4:	2802      	cmp	r0, #2
   241c6:	d018      	beq.n	241fa <_ZN20complex_full_dynamic3app17hfd664572b034fd0cE+0x72>
   241c8:	a803      	add	r0, sp, #12
   241ca:	2104      	movs	r1, #4
   241cc:	7201      	strb	r1, [r0, #8]
   241ce:	9504      	str	r5, [sp, #16]
   241d0:	9801      	ldr	r0, [sp, #4]
   241d2:	9003      	str	r0, [sp, #12]
   241d4:	2600      	movs	r6, #0
   241d6:	2325      	movs	r3, #37	@ 0x25
   241d8:	4631      	mov	r1, r6
   241da:	4622      	mov	r2, r4
   241dc:	df03      	svc	3
   241de:	2802      	cmp	r0, #2
   241e0:	d00b      	beq.n	241fa <_ZN20complex_full_dynamic3app17hfd664572b034fd0cE+0x72>
   241e2:	a80a      	add	r0, sp, #40	@ 0x28
   241e4:	2103      	movs	r1, #3
   241e6:	7201      	strb	r1, [r0, #8]
   241e8:	960b      	str	r6, [sp, #44]	@ 0x2c
   241ea:	9801      	ldr	r0, [sp, #4]
   241ec:	900a      	str	r0, [sp, #40]	@ 0x28
   241ee:	2108      	movs	r1, #8
   241f0:	4632      	mov	r2, r6
   241f2:	4633      	mov	r3, r6
   241f4:	df02      	svc	2
   241f6:	287f      	cmp	r0, #127	@ 0x7f
   241f8:	d80b      	bhi.n	24212 <_ZN20complex_full_dynamic3app17hfd664572b034fd0cE+0x8a>
   241fa:	9c02      	ldr	r4, [sp, #8]
   241fc:	6061      	str	r1, [r4, #4]
   241fe:	2601      	movs	r6, #1
   24200:	7026      	strb	r6, [r4, #0]
   24202:	a80a      	add	r0, sp, #40	@ 0x28
   24204:	f002 fe88 	bl	26f18 <_ZN9allow_pin12full_dynamic17unshare_if_shared17hc1e7d593d40bae1cE>
   24208:	a803      	add	r0, sp, #12
   2420a:	f002 fe85 	bl	26f18 <_ZN9allow_pin12full_dynamic17unshare_if_shared17hc1e7d593d40bae1cE>
   2420e:	b017      	add	sp, #92	@ 0x5c
   24210:	bdf0      	pop	{r4, r5, r6, r7, pc}
   24212:	4625      	mov	r5, r4
   24214:	a803      	add	r0, sp, #12
   24216:	f002 fe7f 	bl	26f18 <_ZN9allow_pin12full_dynamic17unshare_if_shared17hc1e7d593d40bae1cE>
   2421a:	ac0a      	add	r4, sp, #40	@ 0x28
   2421c:	4620      	mov	r0, r4
   2421e:	f002 fe7b 	bl	26f18 <_ZN9allow_pin12full_dynamic17unshare_if_shared17hc1e7d593d40bae1cE>
   24222:	4620      	mov	r0, r4
   24224:	f002 fe78 	bl	26f18 <_ZN9allow_pin12full_dynamic17unshare_if_shared17hc1e7d593d40bae1cE>
   24228:	9c02      	ldr	r4, [sp, #8]
   2422a:	1c60      	adds	r0, r4, #1
   2422c:	2225      	movs	r2, #37	@ 0x25
   2422e:	4629      	mov	r1, r5
   24230:	f003 f833 	bl	2729a <__aeabi_memcpy>
   24234:	e7e4      	b.n	24200 <_ZN20complex_full_dynamic3app17hfd664572b034fd0cE+0x78>
   24236:	d4d4      	bmi.n	241e2 <_ZN20complex_full_dynamic3app17hfd664572b034fd0cE+0x5a>

00024238 <_start>:
   24238:	b5f0      	push	{r4, r5, r6, r7, lr}
   2423a:	af03      	add	r7, sp, #12
   2423c:	4e27      	ldr	r6, [pc, #156]	@ (242dc <_start+0xa4>)
   2423e:	44b5      	add	sp, r6
   24240:	4827      	ldr	r0, [pc, #156]	@ (242e0 <_start+0xa8>)
   24242:	4468      	add	r0, sp
   24244:	9008      	str	r0, [sp, #32]
   24246:	ae1f      	add	r6, sp, #124	@ 0x7c
   24248:	4635      	mov	r5, r6
   2424a:	350c      	adds	r5, #12
   2424c:	2128      	movs	r1, #40	@ 0x28
   2424e:	910b      	str	r1, [sp, #44]	@ 0x2c
   24250:	4628      	mov	r0, r5
   24252:	f002 fe75 	bl	26f40 <__aeabi_memclr4>
   24256:	2402      	movs	r4, #2
   24258:	7234      	strb	r4, [r6, #8]
   2425a:	4e22      	ldr	r6, [pc, #136]	@ (242e4 <_start+0xac>)
   2425c:	446e      	add	r6, sp
   2425e:	4630      	mov	r0, r6
   24260:	300c      	adds	r0, #12
   24262:	2151      	movs	r1, #81	@ 0x51
   24264:	9007      	str	r0, [sp, #28]
   24266:	f002 fe6b 	bl	26f40 <__aeabi_memclr4>
   2426a:	940a      	str	r4, [sp, #40]	@ 0x28
   2426c:	7234      	strb	r4, [r6, #8]
   2426e:	4c1e      	ldr	r4, [pc, #120]	@ (242e8 <_start+0xb0>)
   24270:	2609      	movs	r6, #9
   24272:	4620      	mov	r0, r4
   24274:	4631      	mov	r1, r6
   24276:	462a      	mov	r2, r5
   24278:	9b0b      	ldr	r3, [sp, #44]	@ 0x2c
   2427a:	df04      	svc	4
   2427c:	460a      	mov	r2, r1
   2427e:	a94b      	add	r1, sp, #300	@ 0x12c
   24280:	9106      	str	r1, [sp, #24]
   24282:	491a      	ldr	r1, [pc, #104]	@ (242ec <_start+0xb4>)
   24284:	4469      	add	r1, sp
   24286:	9104      	str	r1, [sp, #16]
   24288:	4919      	ldr	r1, [pc, #100]	@ (242f0 <_start+0xb8>)
   2428a:	4469      	add	r1, sp
   2428c:	9105      	str	r1, [sp, #20]
   2428e:	2501      	movs	r5, #1
   24290:	2802      	cmp	r0, #2
   24292:	9509      	str	r5, [sp, #36]	@ 0x24
   24294:	d101      	bne.n	2429a <_start+0x62>
   24296:	920b      	str	r2, [sp, #44]	@ 0x2c
   24298:	e05a      	b.n	24350 <_start+0x118>
   2429a:	a81f      	add	r0, sp, #124	@ 0x7c
   2429c:	2104      	movs	r1, #4
   2429e:	7201      	strb	r1, [r0, #8]
   242a0:	941f      	str	r4, [sp, #124]	@ 0x7c
   242a2:	9620      	str	r6, [sp, #128]	@ 0x80
   242a4:	2351      	movs	r3, #81	@ 0x51
   242a6:	4620      	mov	r0, r4
   242a8:	4631      	mov	r1, r6
   242aa:	9a07      	ldr	r2, [sp, #28]
   242ac:	df03      	svc	3
   242ae:	2802      	cmp	r0, #2
   242b0:	d101      	bne.n	242b6 <_start+0x7e>
   242b2:	910b      	str	r1, [sp, #44]	@ 0x2c
   242b4:	e04c      	b.n	24350 <_start+0x118>
   242b6:	480b      	ldr	r0, [pc, #44]	@ (242e4 <_start+0xac>)
   242b8:	4468      	add	r0, sp
   242ba:	2103      	movs	r1, #3
   242bc:	7201      	strb	r1, [r0, #8]
   242be:	9808      	ldr	r0, [sp, #32]
   242c0:	65c4      	str	r4, [r0, #92]	@ 0x5c
   242c2:	6606      	str	r6, [r0, #96]	@ 0x60
   242c4:	4808      	ldr	r0, [pc, #32]	@ (242e8 <_start+0xb0>)
   242c6:	2500      	movs	r5, #0
   242c8:	4631      	mov	r1, r6
   242ca:	4632      	mov	r2, r6
   242cc:	462b      	mov	r3, r5
   242ce:	df02      	svc	2
   242d0:	287f      	cmp	r0, #127	@ 0x7f
   242d2:	d80f      	bhi.n	242f4 <_start+0xbc>
   242d4:	910b      	str	r1, [sp, #44]	@ 0x2c
   242d6:	9d09      	ldr	r5, [sp, #36]	@ 0x24
   242d8:	e03a      	b.n	24350 <_start+0x118>
   242da:	46c0      	nop			@ (mov r8, r8)
   242dc:	ffffeadc 	.word	0xffffeadc
   242e0:	000013a8 	.word	0x000013a8
   242e4:	00001404 	.word	0x00001404
   242e8:	00002006 	.word	0x00002006
   242ec:	00000508 	.word	0x00000508
   242f0:	000007dc 	.word	0x000007dc
   242f4:	a81f      	add	r0, sp, #124	@ 0x7c
   242f6:	f002 fe0f 	bl	26f18 <_ZN9allow_pin12full_dynamic17unshare_if_shared17hc1e7d593d40bae1cE>
   242fa:	4e14      	ldr	r6, [pc, #80]	@ (2434c <_start+0x114>)
   242fc:	446e      	add	r6, sp
   242fe:	4630      	mov	r0, r6
   24300:	f002 fe0a 	bl	26f18 <_ZN9allow_pin12full_dynamic17unshare_if_shared17hc1e7d593d40bae1cE>
   24304:	4630      	mov	r0, r6
   24306:	f002 fe07 	bl	26f18 <_ZN9allow_pin12full_dynamic17unshare_if_shared17hc1e7d593d40bae1cE>
   2430a:	9a07      	ldr	r2, [sp, #28]
   2430c:	7890      	ldrb	r0, [r2, #2]
   2430e:	a92f      	add	r1, sp, #188	@ 0xbc
   24310:	7088      	strb	r0, [r1, #2]
   24312:	7810      	ldrb	r0, [r2, #0]
   24314:	7852      	ldrb	r2, [r2, #1]
   24316:	0212      	lsls	r2, r2, #8
   24318:	1810      	adds	r0, r2, r0
   2431a:	8008      	strh	r0, [r1, #0]
   2431c:	7cb0      	ldrb	r0, [r6, #18]
   2431e:	900b      	str	r0, [sp, #44]	@ 0x2c
   24320:	7c70      	ldrb	r0, [r6, #17]
   24322:	9007      	str	r0, [sp, #28]
   24324:	7bf0      	ldrb	r0, [r6, #15]
   24326:	9003      	str	r0, [sp, #12]
   24328:	7c34      	ldrb	r4, [r6, #16]
   2432a:	3613      	adds	r6, #19
   2432c:	a80c      	add	r0, sp, #48	@ 0x30
   2432e:	224a      	movs	r2, #74	@ 0x4a
   24330:	4631      	mov	r1, r6
   24332:	f002 ffb2 	bl	2729a <__aeabi_memcpy>
   24336:	0220      	lsls	r0, r4, #8
   24338:	9903      	ldr	r1, [sp, #12]
   2433a:	1840      	adds	r0, r0, r1
   2433c:	9907      	ldr	r1, [sp, #28]
   2433e:	0409      	lsls	r1, r1, #16
   24340:	9a0b      	ldr	r2, [sp, #44]	@ 0x2c
   24342:	0612      	lsls	r2, r2, #24
   24344:	1851      	adds	r1, r2, r1
   24346:	1808      	adds	r0, r1, r0
   24348:	900b      	str	r0, [sp, #44]	@ 0x2c
   2434a:	e001      	b.n	24350 <_start+0x118>
   2434c:	00001404 	.word	0x00001404
   24350:	4804      	ldr	r0, [pc, #16]	@ (24364 <_start+0x12c>)
   24352:	4468      	add	r0, sp
   24354:	f002 fde0 	bl	26f18 <_ZN9allow_pin12full_dynamic17unshare_if_shared17hc1e7d593d40bae1cE>
   24358:	a81f      	add	r0, sp, #124	@ 0x7c
   2435a:	f002 fddd 	bl	26f18 <_ZN9allow_pin12full_dynamic17unshare_if_shared17hc1e7d593d40bae1cE>
   2435e:	2d00      	cmp	r5, #0
   24360:	d002      	beq.n	24368 <_start+0x130>
   24362:	e241      	b.n	247e8 <_start+0x5b0>
   24364:	00001404 	.word	0x00001404
   24368:	4d18      	ldr	r5, [pc, #96]	@ (243cc <_start+0x194>)
   2436a:	446d      	add	r5, sp
   2436c:	982f      	ldr	r0, [sp, #188]	@ 0xbc
   2436e:	81a8      	strh	r0, [r5, #12]
   24370:	a82f      	add	r0, sp, #188	@ 0xbc
   24372:	7880      	ldrb	r0, [r0, #2]
   24374:	73a8      	strb	r0, [r5, #14]
   24376:	4c16      	ldr	r4, [pc, #88]	@ (243d0 <_start+0x198>)
   24378:	446c      	add	r4, sp
   2437a:	a90c      	add	r1, sp, #48	@ 0x30
   2437c:	264a      	movs	r6, #74	@ 0x4a
   2437e:	4620      	mov	r0, r4
   24380:	4632      	mov	r2, r6
   24382:	f002 fe2a 	bl	26fda <__aeabi_memcpy4>
   24386:	4628      	mov	r0, r5
   24388:	3013      	adds	r0, #19
   2438a:	4621      	mov	r1, r4
   2438c:	4632      	mov	r2, r6
   2438e:	f002 ff84 	bl	2729a <__aeabi_memcpy>
   24392:	990b      	ldr	r1, [sp, #44]	@ 0x2c
   24394:	0e08      	lsrs	r0, r1, #24
   24396:	74a8      	strb	r0, [r5, #18]
   24398:	0c08      	lsrs	r0, r1, #16
   2439a:	7468      	strb	r0, [r5, #17]
   2439c:	0a08      	lsrs	r0, r1, #8
   2439e:	7428      	strb	r0, [r5, #16]
   243a0:	73e9      	strb	r1, [r5, #15]
   243a2:	9c0a      	ldr	r4, [sp, #40]	@ 0x28
   243a4:	722c      	strb	r4, [r5, #8]
   243a6:	4e0a      	ldr	r6, [pc, #40]	@ (243d0 <_start+0x198>)
   243a8:	446e      	add	r6, sp
   243aa:	4630      	mov	r0, r6
   243ac:	300c      	adds	r0, #12
   243ae:	2146      	movs	r1, #70	@ 0x46
   243b0:	900b      	str	r0, [sp, #44]	@ 0x2c
   243b2:	f002 fdc5 	bl	26f40 <__aeabi_memclr4>
   243b6:	7234      	strb	r4, [r6, #8]
   243b8:	350c      	adds	r5, #12
   243ba:	4806      	ldr	r0, [pc, #24]	@ (243d4 <_start+0x19c>)
   243bc:	2607      	movs	r6, #7
   243be:	2351      	movs	r3, #81	@ 0x51
   243c0:	4631      	mov	r1, r6
   243c2:	462a      	mov	r2, r5
   243c4:	df04      	svc	4
   243c6:	2802      	cmp	r0, #2
   243c8:	d030      	beq.n	2442c <_start+0x1f4>
   243ca:	e005      	b.n	243d8 <_start+0x1a0>
   243cc:	00001404 	.word	0x00001404
   243d0:	000013a8 	.word	0x000013a8
   243d4:	000020c4 	.word	0x000020c4
   243d8:	4808      	ldr	r0, [pc, #32]	@ (243fc <_start+0x1c4>)
   243da:	4468      	add	r0, sp
   243dc:	2104      	movs	r1, #4
   243de:	7201      	strb	r1, [r0, #8]
   243e0:	4c07      	ldr	r4, [pc, #28]	@ (24400 <_start+0x1c8>)
   243e2:	34be      	adds	r4, #190	@ 0xbe
   243e4:	9d08      	ldr	r5, [sp, #32]
   243e6:	65ec      	str	r4, [r5, #92]	@ 0x5c
   243e8:	662e      	str	r6, [r5, #96]	@ 0x60
   243ea:	4806      	ldr	r0, [pc, #24]	@ (24404 <_start+0x1cc>)
   243ec:	2600      	movs	r6, #0
   243ee:	2346      	movs	r3, #70	@ 0x46
   243f0:	4631      	mov	r1, r6
   243f2:	9a0b      	ldr	r2, [sp, #44]	@ 0x2c
   243f4:	df03      	svc	3
   243f6:	2802      	cmp	r0, #2
   243f8:	d018      	beq.n	2442c <_start+0x1f4>
   243fa:	e005      	b.n	24408 <_start+0x1d0>
   243fc:	00001404 	.word	0x00001404
   24400:	00002006 	.word	0x00002006
   24404:	000020c4 	.word	0x000020c4
   24408:	4806      	ldr	r0, [pc, #24]	@ (24424 <_start+0x1ec>)
   2440a:	4468      	add	r0, sp
   2440c:	2103      	movs	r1, #3
   2440e:	7201      	strb	r1, [r0, #8]
   24410:	c550      	stmia	r5!, {r4, r6}
   24412:	4805      	ldr	r0, [pc, #20]	@ (24428 <_start+0x1f0>)
   24414:	2107      	movs	r1, #7
   24416:	4632      	mov	r2, r6
   24418:	4633      	mov	r3, r6
   2441a:	df02      	svc	2
   2441c:	287f      	cmp	r0, #127	@ 0x7f
   2441e:	d905      	bls.n	2442c <_start+0x1f4>
   24420:	e1f4      	b.n	2480c <_start+0x5d4>
   24422:	46c0      	nop			@ (mov r8, r8)
   24424:	000013a8 	.word	0x000013a8
   24428:	000020c4 	.word	0x000020c4
   2442c:	910b      	str	r1, [sp, #44]	@ 0x2c
   2442e:	9e09      	ldr	r6, [sp, #36]	@ 0x24
   24430:	48f0      	ldr	r0, [pc, #960]	@ (247f4 <_start+0x5bc>)
   24432:	4468      	add	r0, sp
   24434:	f002 fd70 	bl	26f18 <_ZN9allow_pin12full_dynamic17unshare_if_shared17hc1e7d593d40bae1cE>
   24438:	48ef      	ldr	r0, [pc, #956]	@ (247f8 <_start+0x5c0>)
   2443a:	4468      	add	r0, sp
   2443c:	f002 fd6c 	bl	26f18 <_ZN9allow_pin12full_dynamic17unshare_if_shared17hc1e7d593d40bae1cE>
   24440:	2e00      	cmp	r6, #0
   24442:	d000      	beq.n	24446 <_start+0x20e>
   24444:	e1d0      	b.n	247e8 <_start+0x5b0>
   24446:	49ec      	ldr	r1, [pc, #944]	@ (247f8 <_start+0x5c0>)
   24448:	4469      	add	r1, sp
   2444a:	9107      	str	r1, [sp, #28]
   2444c:	982f      	ldr	r0, [sp, #188]	@ 0xbc
   2444e:	8188      	strh	r0, [r1, #12]
   24450:	a82f      	add	r0, sp, #188	@ 0xbc
   24452:	7880      	ldrb	r0, [r0, #2]
   24454:	7388      	strb	r0, [r1, #14]
   24456:	a81f      	add	r0, sp, #124	@ 0x7c
   24458:	a90c      	add	r1, sp, #48	@ 0x30
   2445a:	460a      	mov	r2, r1
   2445c:	c858      	ldmia	r0!, {r3, r4, r6}
   2445e:	c258      	stmia	r2!, {r3, r4, r6}
   24460:	c878      	ldmia	r0!, {r3, r4, r5, r6}
   24462:	c278      	stmia	r2!, {r3, r4, r5, r6}
   24464:	c878      	ldmia	r0!, {r3, r4, r5, r6}
   24466:	c278      	stmia	r2!, {r3, r4, r5, r6}
   24468:	c878      	ldmia	r0!, {r3, r4, r5, r6}
   2446a:	c278      	stmia	r2!, {r3, r4, r5, r6}
   2446c:	8803      	ldrh	r3, [r0, #0]
   2446e:	8013      	strh	r3, [r2, #0]
   24470:	7880      	ldrb	r0, [r0, #2]
   24472:	7090      	strb	r0, [r2, #2]
   24474:	9c07      	ldr	r4, [sp, #28]
   24476:	4620      	mov	r0, r4
   24478:	3013      	adds	r0, #19
   2447a:	223f      	movs	r2, #63	@ 0x3f
   2447c:	f002 ff0d 	bl	2729a <__aeabi_memcpy>
   24480:	990b      	ldr	r1, [sp, #44]	@ 0x2c
   24482:	0e08      	lsrs	r0, r1, #24
   24484:	4622      	mov	r2, r4
   24486:	74a0      	strb	r0, [r4, #18]
   24488:	0c08      	lsrs	r0, r1, #16
   2448a:	7460      	strb	r0, [r4, #17]
   2448c:	0a08      	lsrs	r0, r1, #8
   2448e:	7420      	strb	r0, [r4, #16]
   24490:	73e1      	strb	r1, [r4, #15]
   24492:	980a      	ldr	r0, [sp, #40]	@ 0x28
   24494:	7220      	strb	r0, [r4, #8]
   24496:	4cd7      	ldr	r4, [pc, #860]	@ (247f4 <_start+0x5bc>)
   24498:	446c      	add	r4, sp
   2449a:	7220      	strb	r0, [r4, #8]
   2449c:	2000      	movs	r0, #0
   2449e:	9d08      	ldr	r5, [sp, #32]
   244a0:	60e8      	str	r0, [r5, #12]
   244a2:	6128      	str	r0, [r5, #16]
   244a4:	6168      	str	r0, [r5, #20]
   244a6:	61a8      	str	r0, [r5, #24]
   244a8:	61e8      	str	r0, [r5, #28]
   244aa:	6228      	str	r0, [r5, #32]
   244ac:	320c      	adds	r2, #12
   244ae:	48d3      	ldr	r0, [pc, #844]	@ (247fc <_start+0x5c4>)
   244b0:	2603      	movs	r6, #3
   244b2:	2346      	movs	r3, #70	@ 0x46
   244b4:	4631      	mov	r1, r6
   244b6:	df04      	svc	4
   244b8:	2802      	cmp	r0, #2
   244ba:	9607      	str	r6, [sp, #28]
   244bc:	d01c      	beq.n	244f8 <_start+0x2c0>
   244be:	340c      	adds	r4, #12
   244c0:	48cd      	ldr	r0, [pc, #820]	@ (247f8 <_start+0x5c0>)
   244c2:	4468      	add	r0, sp
   244c4:	2104      	movs	r1, #4
   244c6:	7201      	strb	r1, [r0, #8]
   244c8:	48cc      	ldr	r0, [pc, #816]	@ (247fc <_start+0x5c4>)
   244ca:	65e8      	str	r0, [r5, #92]	@ 0x5c
   244cc:	662e      	str	r6, [r5, #96]	@ 0x60
   244ce:	2502      	movs	r5, #2
   244d0:	2318      	movs	r3, #24
   244d2:	4629      	mov	r1, r5
   244d4:	4622      	mov	r2, r4
   244d6:	df03      	svc	3
   244d8:	2802      	cmp	r0, #2
   244da:	d00d      	beq.n	244f8 <_start+0x2c0>
   244dc:	48c5      	ldr	r0, [pc, #788]	@ (247f4 <_start+0x5bc>)
   244de:	4468      	add	r0, sp
   244e0:	7206      	strb	r6, [r0, #8]
   244e2:	48c6      	ldr	r0, [pc, #792]	@ (247fc <_start+0x5c4>)
   244e4:	9908      	ldr	r1, [sp, #32]
   244e6:	c121      	stmia	r1!, {r0, r5}
   244e8:	2300      	movs	r3, #0
   244ea:	4631      	mov	r1, r6
   244ec:	462a      	mov	r2, r5
   244ee:	9303      	str	r3, [sp, #12]
   244f0:	df02      	svc	2
   244f2:	287f      	cmp	r0, #127	@ 0x7f
   244f4:	d900      	bls.n	244f8 <_start+0x2c0>
   244f6:	e1b6      	b.n	24866 <_start+0x62e>
   244f8:	910b      	str	r1, [sp, #44]	@ 0x2c
   244fa:	9c09      	ldr	r4, [sp, #36]	@ 0x24
   244fc:	48bd      	ldr	r0, [pc, #756]	@ (247f4 <_start+0x5bc>)
   244fe:	4468      	add	r0, sp
   24500:	f002 fd0a 	bl	26f18 <_ZN9allow_pin12full_dynamic17unshare_if_shared17hc1e7d593d40bae1cE>
   24504:	48bc      	ldr	r0, [pc, #752]	@ (247f8 <_start+0x5c0>)
   24506:	4468      	add	r0, sp
   24508:	f002 fd06 	bl	26f18 <_ZN9allow_pin12full_dynamic17unshare_if_shared17hc1e7d593d40bae1cE>
   2450c:	2c00      	cmp	r4, #0
   2450e:	d000      	beq.n	24512 <_start+0x2da>
   24510:	e16a      	b.n	247e8 <_start+0x5b0>
   24512:	ad1f      	add	r5, sp, #124	@ 0x7c
   24514:	9834      	ldr	r0, [sp, #208]	@ 0xd0
   24516:	81a8      	strh	r0, [r5, #12]
   24518:	a834      	add	r0, sp, #208	@ 0xd0
   2451a:	7880      	ldrb	r0, [r0, #2]
   2451c:	73a8      	strb	r0, [r5, #14]
   2451e:	a92f      	add	r1, sp, #188	@ 0xbc
   24520:	aa0c      	add	r2, sp, #48	@ 0x30
   24522:	9203      	str	r2, [sp, #12]
   24524:	c959      	ldmia	r1!, {r0, r3, r4, r6}
   24526:	c259      	stmia	r2!, {r0, r3, r4, r6}
   24528:	7808      	ldrb	r0, [r1, #0]
   2452a:	7010      	strb	r0, [r2, #0]
   2452c:	4628      	mov	r0, r5
   2452e:	3013      	adds	r0, #19
   24530:	2211      	movs	r2, #17
   24532:	9903      	ldr	r1, [sp, #12]
   24534:	f002 feb1 	bl	2729a <__aeabi_memcpy>
   24538:	990b      	ldr	r1, [sp, #44]	@ 0x2c
   2453a:	0e08      	lsrs	r0, r1, #24
   2453c:	74a8      	strb	r0, [r5, #18]
   2453e:	0c08      	lsrs	r0, r1, #16
   24540:	7468      	strb	r0, [r5, #17]
   24542:	0a08      	lsrs	r0, r1, #8
   24544:	7428      	strb	r0, [r5, #16]
   24546:	73e9      	strb	r1, [r5, #15]
   24548:	980a      	ldr	r0, [sp, #40]	@ 0x28
   2454a:	7228      	strb	r0, [r5, #8]
   2454c:	4eaa      	ldr	r6, [pc, #680]	@ (247f8 <_start+0x5c0>)
   2454e:	446e      	add	r6, sp
   24550:	4634      	mov	r4, r6
   24552:	340c      	adds	r4, #12
   24554:	2136      	movs	r1, #54	@ 0x36
   24556:	4620      	mov	r0, r4
   24558:	f002 fcf2 	bl	26f40 <__aeabi_memclr4>
   2455c:	980a      	ldr	r0, [sp, #40]	@ 0x28
   2455e:	7230      	strb	r0, [r6, #8]
   24560:	350c      	adds	r5, #12
   24562:	48a7      	ldr	r0, [pc, #668]	@ (24800 <_start+0x5c8>)
   24564:	2600      	movs	r6, #0
   24566:	2318      	movs	r3, #24
   24568:	4631      	mov	r1, r6
   2456a:	462a      	mov	r2, r5
   2456c:	df04      	svc	4
   2456e:	2802      	cmp	r0, #2
   24570:	9603      	str	r6, [sp, #12]
   24572:	d01e      	beq.n	245b2 <_start+0x37a>
   24574:	a81f      	add	r0, sp, #124	@ 0x7c
   24576:	2104      	movs	r1, #4
   24578:	7201      	strb	r1, [r0, #8]
   2457a:	9620      	str	r6, [sp, #128]	@ 0x80
   2457c:	4ea0      	ldr	r6, [pc, #640]	@ (24800 <_start+0x5c8>)
   2457e:	961f      	str	r6, [sp, #124]	@ 0x7c
   24580:	2507      	movs	r5, #7
   24582:	2336      	movs	r3, #54	@ 0x36
   24584:	4630      	mov	r0, r6
   24586:	4629      	mov	r1, r5
   24588:	940b      	str	r4, [sp, #44]	@ 0x2c
   2458a:	4622      	mov	r2, r4
   2458c:	df03      	svc	3
   2458e:	2802      	cmp	r0, #2
   24590:	d00f      	beq.n	245b2 <_start+0x37a>
   24592:	4899      	ldr	r0, [pc, #612]	@ (247f8 <_start+0x5c0>)
   24594:	4468      	add	r0, sp
   24596:	9907      	ldr	r1, [sp, #28]
   24598:	7201      	strb	r1, [r0, #8]
   2459a:	9808      	ldr	r0, [sp, #32]
   2459c:	65c6      	str	r6, [r0, #92]	@ 0x5c
   2459e:	6605      	str	r5, [r0, #96]	@ 0x60
   245a0:	4897      	ldr	r0, [pc, #604]	@ (24800 <_start+0x5c8>)
   245a2:	2400      	movs	r4, #0
   245a4:	4621      	mov	r1, r4
   245a6:	462a      	mov	r2, r5
   245a8:	4623      	mov	r3, r4
   245aa:	df02      	svc	2
   245ac:	287f      	cmp	r0, #127	@ 0x7f
   245ae:	d900      	bls.n	245b2 <_start+0x37a>
   245b0:	e184      	b.n	248bc <_start+0x684>
   245b2:	910b      	str	r1, [sp, #44]	@ 0x2c
   245b4:	9c09      	ldr	r4, [sp, #36]	@ 0x24
   245b6:	4890      	ldr	r0, [pc, #576]	@ (247f8 <_start+0x5c0>)
   245b8:	4468      	add	r0, sp
   245ba:	f002 fcad 	bl	26f18 <_ZN9allow_pin12full_dynamic17unshare_if_shared17hc1e7d593d40bae1cE>
   245be:	a81f      	add	r0, sp, #124	@ 0x7c
   245c0:	f002 fcaa 	bl	26f18 <_ZN9allow_pin12full_dynamic17unshare_if_shared17hc1e7d593d40bae1cE>
   245c4:	2c00      	cmp	r4, #0
   245c6:	d000      	beq.n	245ca <_start+0x392>
   245c8:	e10e      	b.n	247e8 <_start+0x5b0>
   245ca:	498b      	ldr	r1, [pc, #556]	@ (247f8 <_start+0x5c0>)
   245cc:	4469      	add	r1, sp
   245ce:	9102      	str	r1, [sp, #8]
   245d0:	982f      	ldr	r0, [sp, #188]	@ 0xbc
   245d2:	8188      	strh	r0, [r1, #12]
   245d4:	a82f      	add	r0, sp, #188	@ 0xbc
   245d6:	7880      	ldrb	r0, [r0, #2]
   245d8:	7388      	strb	r0, [r1, #14]
   245da:	a80c      	add	r0, sp, #48	@ 0x30
   245dc:	4985      	ldr	r1, [pc, #532]	@ (247f4 <_start+0x5bc>)
   245de:	4469      	add	r1, sp
   245e0:	460a      	mov	r2, r1
   245e2:	c858      	ldmia	r0!, {r3, r4, r6}
   245e4:	c258      	stmia	r2!, {r3, r4, r6}
   245e6:	c878      	ldmia	r0!, {r3, r4, r5, r6}
   245e8:	c278      	stmia	r2!, {r3, r4, r5, r6}
   245ea:	c878      	ldmia	r0!, {r3, r4, r5, r6}
   245ec:	c278      	stmia	r2!, {r3, r4, r5, r6}
   245ee:	8803      	ldrh	r3, [r0, #0]
   245f0:	8013      	strh	r3, [r2, #0]
   245f2:	7880      	ldrb	r0, [r0, #2]
   245f4:	7090      	strb	r0, [r2, #2]
   245f6:	9c02      	ldr	r4, [sp, #8]
   245f8:	4620      	mov	r0, r4
   245fa:	3013      	adds	r0, #19
   245fc:	222f      	movs	r2, #47	@ 0x2f
   245fe:	f002 fe4c 	bl	2729a <__aeabi_memcpy>
   24602:	990b      	ldr	r1, [sp, #44]	@ 0x2c
   24604:	0e08      	lsrs	r0, r1, #24
   24606:	74a0      	strb	r0, [r4, #18]
   24608:	0c08      	lsrs	r0, r1, #16
   2460a:	7460      	strb	r0, [r4, #17]
   2460c:	0a08      	lsrs	r0, r1, #8
   2460e:	7420      	strb	r0, [r4, #16]
   24610:	73e1      	strb	r1, [r4, #15]
   24612:	9e0a      	ldr	r6, [sp, #40]	@ 0x28
   24614:	7226      	strb	r6, [r4, #8]
   24616:	4d77      	ldr	r5, [pc, #476]	@ (247f4 <_start+0x5bc>)
   24618:	446d      	add	r5, sp
   2461a:	4628      	mov	r0, r5
   2461c:	300c      	adds	r0, #12
   2461e:	2125      	movs	r1, #37	@ 0x25
   24620:	900b      	str	r0, [sp, #44]	@ 0x2c
   24622:	f002 fc8d 	bl	26f40 <__aeabi_memclr4>
   24626:	722e      	strb	r6, [r5, #8]
   24628:	340c      	adds	r4, #12
   2462a:	4876      	ldr	r0, [pc, #472]	@ (24804 <_start+0x5cc>)
   2462c:	2607      	movs	r6, #7
   2462e:	2336      	movs	r3, #54	@ 0x36
   24630:	4631      	mov	r1, r6
   24632:	4622      	mov	r2, r4
   24634:	df04      	svc	4
   24636:	2802      	cmp	r0, #2
   24638:	d01c      	beq.n	24674 <_start+0x43c>
   2463a:	486f      	ldr	r0, [pc, #444]	@ (247f8 <_start+0x5c0>)
   2463c:	4468      	add	r0, sp
   2463e:	2104      	movs	r1, #4
   24640:	7201      	strb	r1, [r0, #8]
   24642:	9d08      	ldr	r5, [sp, #32]
   24644:	486f      	ldr	r0, [pc, #444]	@ (24804 <_start+0x5cc>)
   24646:	65e8      	str	r0, [r5, #92]	@ 0x5c
   24648:	662e      	str	r6, [r5, #96]	@ 0x60
   2464a:	2600      	movs	r6, #0
   2464c:	2325      	movs	r3, #37	@ 0x25
   2464e:	4631      	mov	r1, r6
   24650:	9c0b      	ldr	r4, [sp, #44]	@ 0x2c
   24652:	4622      	mov	r2, r4
   24654:	df03      	svc	3
   24656:	2802      	cmp	r0, #2
   24658:	d00c      	beq.n	24674 <_start+0x43c>
   2465a:	4866      	ldr	r0, [pc, #408]	@ (247f4 <_start+0x5bc>)
   2465c:	4468      	add	r0, sp
   2465e:	9907      	ldr	r1, [sp, #28]
   24660:	7201      	strb	r1, [r0, #8]
   24662:	4868      	ldr	r0, [pc, #416]	@ (24804 <_start+0x5cc>)
   24664:	c541      	stmia	r5!, {r0, r6}
   24666:	2107      	movs	r1, #7
   24668:	4632      	mov	r2, r6
   2466a:	4633      	mov	r3, r6
   2466c:	df02      	svc	2
   2466e:	287f      	cmp	r0, #127	@ 0x7f
   24670:	d900      	bls.n	24674 <_start+0x43c>
   24672:	e14f      	b.n	24914 <_start+0x6dc>
   24674:	910b      	str	r1, [sp, #44]	@ 0x2c
   24676:	9e09      	ldr	r6, [sp, #36]	@ 0x24
   24678:	485e      	ldr	r0, [pc, #376]	@ (247f4 <_start+0x5bc>)
   2467a:	4468      	add	r0, sp
   2467c:	f002 fc4c 	bl	26f18 <_ZN9allow_pin12full_dynamic17unshare_if_shared17hc1e7d593d40bae1cE>
   24680:	485d      	ldr	r0, [pc, #372]	@ (247f8 <_start+0x5c0>)
   24682:	4468      	add	r0, sp
   24684:	f002 fc48 	bl	26f18 <_ZN9allow_pin12full_dynamic17unshare_if_shared17hc1e7d593d40bae1cE>
   24688:	2e00      	cmp	r6, #0
   2468a:	d000      	beq.n	2468e <_start+0x456>
   2468c:	e0ac      	b.n	247e8 <_start+0x5b0>
   2468e:	495a      	ldr	r1, [pc, #360]	@ (247f8 <_start+0x5c0>)
   24690:	4469      	add	r1, sp
   24692:	9102      	str	r1, [sp, #8]
   24694:	982f      	ldr	r0, [sp, #188]	@ 0xbc
   24696:	8188      	strh	r0, [r1, #12]
   24698:	a82f      	add	r0, sp, #188	@ 0xbc
   2469a:	7880      	ldrb	r0, [r0, #2]
   2469c:	7388      	strb	r0, [r1, #14]
   2469e:	a81f      	add	r0, sp, #124	@ 0x7c
   246a0:	a90c      	add	r1, sp, #48	@ 0x30
   246a2:	460a      	mov	r2, r1
   246a4:	c858      	ldmia	r0!, {r3, r4, r6}
   246a6:	c258      	stmia	r2!, {r3, r4, r6}
   246a8:	c878      	ldmia	r0!, {r3, r4, r5, r6}
   246aa:	c278      	stmia	r2!, {r3, r4, r5, r6}
   246ac:	8800      	ldrh	r0, [r0, #0]
   246ae:	8010      	strh	r0, [r2, #0]
   246b0:	9c02      	ldr	r4, [sp, #8]
   246b2:	4620      	mov	r0, r4
   246b4:	3013      	adds	r0, #19
   246b6:	221e      	movs	r2, #30
   246b8:	f002 fdef 	bl	2729a <__aeabi_memcpy>
   246bc:	990b      	ldr	r1, [sp, #44]	@ 0x2c
   246be:	0e08      	lsrs	r0, r1, #24
   246c0:	4622      	mov	r2, r4
   246c2:	74a0      	strb	r0, [r4, #18]
   246c4:	0c08      	lsrs	r0, r1, #16
   246c6:	7460      	strb	r0, [r4, #17]
   246c8:	0a08      	lsrs	r0, r1, #8
   246ca:	7420      	strb	r0, [r4, #16]
   246cc:	73e1      	strb	r1, [r4, #15]
   246ce:	990a      	ldr	r1, [sp, #40]	@ 0x28
   246d0:	7221      	strb	r1, [r4, #8]
   246d2:	4c48      	ldr	r4, [pc, #288]	@ (247f4 <_start+0x5bc>)
   246d4:	446c      	add	r4, sp
   246d6:	9803      	ldr	r0, [sp, #12]
   246d8:	8320      	strh	r0, [r4, #24]
   246da:	7221      	strb	r1, [r4, #8]
   246dc:	9d08      	ldr	r5, [sp, #32]
   246de:	60e8      	str	r0, [r5, #12]
   246e0:	6128      	str	r0, [r5, #16]
   246e2:	6168      	str	r0, [r5, #20]
   246e4:	320c      	adds	r2, #12
   246e6:	4848      	ldr	r0, [pc, #288]	@ (24808 <_start+0x5d0>)
   246e8:	2325      	movs	r3, #37	@ 0x25
   246ea:	460e      	mov	r6, r1
   246ec:	df04      	svc	4
   246ee:	2802      	cmp	r0, #2
   246f0:	d01e      	beq.n	24730 <_start+0x4f8>
   246f2:	340c      	adds	r4, #12
   246f4:	4840      	ldr	r0, [pc, #256]	@ (247f8 <_start+0x5c0>)
   246f6:	4468      	add	r0, sp
   246f8:	2104      	movs	r1, #4
   246fa:	7201      	strb	r1, [r0, #8]
   246fc:	4842      	ldr	r0, [pc, #264]	@ (24808 <_start+0x5d0>)
   246fe:	65e8      	str	r0, [r5, #92]	@ 0x5c
   24700:	662e      	str	r6, [r5, #96]	@ 0x60
   24702:	2508      	movs	r5, #8
   24704:	230e      	movs	r3, #14
   24706:	4629      	mov	r1, r5
   24708:	4622      	mov	r2, r4
   2470a:	df03      	svc	3
   2470c:	2802      	cmp	r0, #2
   2470e:	d00f      	beq.n	24730 <_start+0x4f8>
   24710:	4838      	ldr	r0, [pc, #224]	@ (247f4 <_start+0x5bc>)
   24712:	4468      	add	r0, sp
   24714:	9907      	ldr	r1, [sp, #28]
   24716:	7201      	strb	r1, [r0, #8]
   24718:	9808      	ldr	r0, [sp, #32]
   2471a:	493b      	ldr	r1, [pc, #236]	@ (24808 <_start+0x5d0>)
   2471c:	c022      	stmia	r0!, {r1, r5}
   2471e:	483a      	ldr	r0, [pc, #232]	@ (24808 <_start+0x5d0>)
   24720:	2102      	movs	r1, #2
   24722:	2300      	movs	r3, #0
   24724:	462a      	mov	r2, r5
   24726:	461d      	mov	r5, r3
   24728:	df02      	svc	2
   2472a:	287f      	cmp	r0, #127	@ 0x7f
   2472c:	d900      	bls.n	24730 <_start+0x4f8>
   2472e:	e11d      	b.n	2496c <_start+0x734>
   24730:	910b      	str	r1, [sp, #44]	@ 0x2c
   24732:	9d09      	ldr	r5, [sp, #36]	@ 0x24
   24734:	482f      	ldr	r0, [pc, #188]	@ (247f4 <_start+0x5bc>)
   24736:	4468      	add	r0, sp
   24738:	f002 fbee 	bl	26f18 <_ZN9allow_pin12full_dynamic17unshare_if_shared17hc1e7d593d40bae1cE>
   2473c:	482e      	ldr	r0, [pc, #184]	@ (247f8 <_start+0x5c0>)
   2473e:	4468      	add	r0, sp
   24740:	f002 fbea 	bl	26f18 <_ZN9allow_pin12full_dynamic17unshare_if_shared17hc1e7d593d40bae1cE>
   24744:	2d00      	cmp	r5, #0
   24746:	d14f      	bne.n	247e8 <_start+0x5b0>
   24748:	ac35      	add	r4, sp, #212	@ 0xd4
   2474a:	982f      	ldr	r0, [sp, #188]	@ 0xbc
   2474c:	8020      	strh	r0, [r4, #0]
   2474e:	a90c      	add	r1, sp, #48	@ 0x30
   24750:	9820      	ldr	r0, [sp, #128]	@ 0x80
   24752:	8088      	strh	r0, [r1, #4]
   24754:	a82f      	add	r0, sp, #188	@ 0xbc
   24756:	7880      	ldrb	r0, [r0, #2]
   24758:	70a0      	strb	r0, [r4, #2]
   2475a:	a81f      	add	r0, sp, #124	@ 0x7c
   2475c:	7980      	ldrb	r0, [r0, #6]
   2475e:	7188      	strb	r0, [r1, #6]
   24760:	9a0b      	ldr	r2, [sp, #44]	@ 0x2c
   24762:	70e2      	strb	r2, [r4, #3]
   24764:	0e10      	lsrs	r0, r2, #24
   24766:	71a0      	strb	r0, [r4, #6]
   24768:	0c10      	lsrs	r0, r2, #16
   2476a:	7160      	strb	r0, [r4, #5]
   2476c:	0a10      	lsrs	r0, r2, #8
   2476e:	7120      	strb	r0, [r4, #4]
   24770:	981f      	ldr	r0, [sp, #124]	@ 0x7c
   24772:	900c      	str	r0, [sp, #48]	@ 0x30
   24774:	1de0      	adds	r0, r4, #7
   24776:	2207      	movs	r2, #7
   24778:	f002 fd8f 	bl	2729a <__aeabi_memcpy>
   2477c:	4d1e      	ldr	r5, [pc, #120]	@ (247f8 <_start+0x5c0>)
   2477e:	446d      	add	r5, sp
   24780:	4628      	mov	r0, r5
   24782:	4621      	mov	r1, r4
   24784:	f7fe fc56 	bl	23034 <_ZN20complex_full_dynamic3app17hb185b873d08548d1E>
   24788:	7828      	ldrb	r0, [r5, #0]
   2478a:	2801      	cmp	r0, #1
   2478c:	d029      	beq.n	247e2 <_start+0x5aa>
   2478e:	491a      	ldr	r1, [pc, #104]	@ (247f8 <_start+0x5c0>)
   24790:	4469      	add	r1, sp
   24792:	78c8      	ldrb	r0, [r1, #3]
   24794:	ac39      	add	r4, sp, #228	@ 0xe4
   24796:	70a0      	strb	r0, [r4, #2]
   24798:	7848      	ldrb	r0, [r1, #1]
   2479a:	788a      	ldrb	r2, [r1, #2]
   2479c:	0212      	lsls	r2, r2, #8
   2479e:	1810      	adds	r0, r2, r0
   247a0:	8020      	strh	r0, [r4, #0]
   247a2:	9808      	ldr	r0, [sp, #32]
   247a4:	6e05      	ldr	r5, [r0, #96]	@ 0x60
   247a6:	3108      	adds	r1, #8
   247a8:	4812      	ldr	r0, [pc, #72]	@ (247f4 <_start+0x5bc>)
   247aa:	4468      	add	r0, sp
   247ac:	900b      	str	r0, [sp, #44]	@ 0x2c
   247ae:	2641      	movs	r6, #65	@ 0x41
   247b0:	4632      	mov	r2, r6
   247b2:	f002 fc12 	bl	26fda <__aeabi_memcpy4>
   247b6:	0e28      	lsrs	r0, r5, #24
   247b8:	71a0      	strb	r0, [r4, #6]
   247ba:	0c28      	lsrs	r0, r5, #16
   247bc:	7160      	strb	r0, [r4, #5]
   247be:	0a28      	lsrs	r0, r5, #8
   247c0:	7120      	strb	r0, [r4, #4]
   247c2:	70e5      	strb	r5, [r4, #3]
   247c4:	1de0      	adds	r0, r4, #7
   247c6:	990b      	ldr	r1, [sp, #44]	@ 0x2c
   247c8:	4632      	mov	r2, r6
   247ca:	f002 fd66 	bl	2729a <__aeabi_memcpy>
   247ce:	4d0a      	ldr	r5, [pc, #40]	@ (247f8 <_start+0x5c0>)
   247d0:	446d      	add	r5, sp
   247d2:	4628      	mov	r0, r5
   247d4:	4621      	mov	r1, r4
   247d6:	f7fb fef5 	bl	205c4 <_ZN20complex_full_dynamic3app17h1d21334f8ec3045dE>
   247da:	7828      	ldrb	r0, [r5, #0]
   247dc:	2801      	cmp	r0, #1
   247de:	d000      	beq.n	247e2 <_start+0x5aa>
   247e0:	e0f8      	b.n	249d4 <_start+0x79c>
   247e2:	9808      	ldr	r0, [sp, #32]
   247e4:	6e00      	ldr	r0, [r0, #96]	@ 0x60
   247e6:	900b      	str	r0, [sp, #44]	@ 0x2c
   247e8:	2001      	movs	r0, #1
   247ea:	990b      	ldr	r1, [sp, #44]	@ 0x2c
   247ec:	1ffe      	subs	r6, r7, #7
   247ee:	3e05      	subs	r6, #5
   247f0:	46b5      	mov	sp, r6
   247f2:	bdf0      	pop	{r4, r5, r6, r7, pc}
   247f4:	000013a8 	.word	0x000013a8
   247f8:	00001404 	.word	0x00001404
   247fc:	000023cf 	.word	0x000023cf
   24800:	0000021f 	.word	0x0000021f
   24804:	00001597 	.word	0x00001597
   24808:	00000667 	.word	0x00000667
   2480c:	4889      	ldr	r0, [pc, #548]	@ (24a34 <_start+0x7fc>)
   2480e:	4468      	add	r0, sp
   24810:	f002 fb82 	bl	26f18 <_ZN9allow_pin12full_dynamic17unshare_if_shared17hc1e7d593d40bae1cE>
   24814:	4d88      	ldr	r5, [pc, #544]	@ (24a38 <_start+0x800>)
   24816:	446d      	add	r5, sp
   24818:	4628      	mov	r0, r5
   2481a:	f002 fb7d 	bl	26f18 <_ZN9allow_pin12full_dynamic17unshare_if_shared17hc1e7d593d40bae1cE>
   2481e:	4628      	mov	r0, r5
   24820:	f002 fb7a 	bl	26f18 <_ZN9allow_pin12full_dynamic17unshare_if_shared17hc1e7d593d40bae1cE>
   24824:	9a0b      	ldr	r2, [sp, #44]	@ 0x2c
   24826:	7890      	ldrb	r0, [r2, #2]
   24828:	a92f      	add	r1, sp, #188	@ 0xbc
   2482a:	7088      	strb	r0, [r1, #2]
   2482c:	7810      	ldrb	r0, [r2, #0]
   2482e:	7852      	ldrb	r2, [r2, #1]
   24830:	0212      	lsls	r2, r2, #8
   24832:	1810      	adds	r0, r2, r0
   24834:	8008      	strh	r0, [r1, #0]
   24836:	7ca8      	ldrb	r0, [r5, #18]
   24838:	900b      	str	r0, [sp, #44]	@ 0x2c
   2483a:	7c68      	ldrb	r0, [r5, #17]
   2483c:	9007      	str	r0, [sp, #28]
   2483e:	7be8      	ldrb	r0, [r5, #15]
   24840:	9003      	str	r0, [sp, #12]
   24842:	7c2c      	ldrb	r4, [r5, #16]
   24844:	3513      	adds	r5, #19
   24846:	a81f      	add	r0, sp, #124	@ 0x7c
   24848:	223f      	movs	r2, #63	@ 0x3f
   2484a:	4629      	mov	r1, r5
   2484c:	f002 fd25 	bl	2729a <__aeabi_memcpy>
   24850:	0220      	lsls	r0, r4, #8
   24852:	9903      	ldr	r1, [sp, #12]
   24854:	1840      	adds	r0, r0, r1
   24856:	9907      	ldr	r1, [sp, #28]
   24858:	0409      	lsls	r1, r1, #16
   2485a:	9a0b      	ldr	r2, [sp, #44]	@ 0x2c
   2485c:	0612      	lsls	r2, r2, #24
   2485e:	1851      	adds	r1, r2, r1
   24860:	1808      	adds	r0, r1, r0
   24862:	900b      	str	r0, [sp, #44]	@ 0x2c
   24864:	e5e4      	b.n	24430 <_start+0x1f8>
   24866:	4873      	ldr	r0, [pc, #460]	@ (24a34 <_start+0x7fc>)
   24868:	4468      	add	r0, sp
   2486a:	f002 fb55 	bl	26f18 <_ZN9allow_pin12full_dynamic17unshare_if_shared17hc1e7d593d40bae1cE>
   2486e:	4e72      	ldr	r6, [pc, #456]	@ (24a38 <_start+0x800>)
   24870:	446e      	add	r6, sp
   24872:	4630      	mov	r0, r6
   24874:	f002 fb50 	bl	26f18 <_ZN9allow_pin12full_dynamic17unshare_if_shared17hc1e7d593d40bae1cE>
   24878:	4630      	mov	r0, r6
   2487a:	f002 fb4d 	bl	26f18 <_ZN9allow_pin12full_dynamic17unshare_if_shared17hc1e7d593d40bae1cE>
   2487e:	78a0      	ldrb	r0, [r4, #2]
   24880:	a934      	add	r1, sp, #208	@ 0xd0
   24882:	7088      	strb	r0, [r1, #2]
   24884:	7820      	ldrb	r0, [r4, #0]
   24886:	7862      	ldrb	r2, [r4, #1]
   24888:	0212      	lsls	r2, r2, #8
   2488a:	1810      	adds	r0, r2, r0
   2488c:	8008      	strh	r0, [r1, #0]
   2488e:	7cb0      	ldrb	r0, [r6, #18]
   24890:	900b      	str	r0, [sp, #44]	@ 0x2c
   24892:	7c70      	ldrb	r0, [r6, #17]
   24894:	9002      	str	r0, [sp, #8]
   24896:	7bf4      	ldrb	r4, [r6, #15]
   24898:	7c35      	ldrb	r5, [r6, #16]
   2489a:	3613      	adds	r6, #19
   2489c:	a82f      	add	r0, sp, #188	@ 0xbc
   2489e:	2211      	movs	r2, #17
   248a0:	4631      	mov	r1, r6
   248a2:	f002 fcfa 	bl	2729a <__aeabi_memcpy>
   248a6:	0228      	lsls	r0, r5, #8
   248a8:	1900      	adds	r0, r0, r4
   248aa:	9902      	ldr	r1, [sp, #8]
   248ac:	0409      	lsls	r1, r1, #16
   248ae:	9a0b      	ldr	r2, [sp, #44]	@ 0x2c
   248b0:	0612      	lsls	r2, r2, #24
   248b2:	1851      	adds	r1, r2, r1
   248b4:	1808      	adds	r0, r1, r0
   248b6:	900b      	str	r0, [sp, #44]	@ 0x2c
   248b8:	9c03      	ldr	r4, [sp, #12]
   248ba:	e61f      	b.n	244fc <_start+0x2c4>
   248bc:	a81f      	add	r0, sp, #124	@ 0x7c
   248be:	f002 fb2b 	bl	26f18 <_ZN9allow_pin12full_dynamic17unshare_if_shared17hc1e7d593d40bae1cE>
   248c2:	4d5c      	ldr	r5, [pc, #368]	@ (24a34 <_start+0x7fc>)
   248c4:	446d      	add	r5, sp
   248c6:	4628      	mov	r0, r5
   248c8:	f002 fb26 	bl	26f18 <_ZN9allow_pin12full_dynamic17unshare_if_shared17hc1e7d593d40bae1cE>
   248cc:	4628      	mov	r0, r5
   248ce:	f002 fb23 	bl	26f18 <_ZN9allow_pin12full_dynamic17unshare_if_shared17hc1e7d593d40bae1cE>
   248d2:	9a0b      	ldr	r2, [sp, #44]	@ 0x2c
   248d4:	7890      	ldrb	r0, [r2, #2]
   248d6:	a92f      	add	r1, sp, #188	@ 0xbc
   248d8:	7088      	strb	r0, [r1, #2]
   248da:	7810      	ldrb	r0, [r2, #0]
   248dc:	7852      	ldrb	r2, [r2, #1]
   248de:	0212      	lsls	r2, r2, #8
   248e0:	1810      	adds	r0, r2, r0
   248e2:	8008      	strh	r0, [r1, #0]
   248e4:	7ca8      	ldrb	r0, [r5, #18]
   248e6:	900b      	str	r0, [sp, #44]	@ 0x2c
   248e8:	7c68      	ldrb	r0, [r5, #17]
   248ea:	9002      	str	r0, [sp, #8]
   248ec:	7be8      	ldrb	r0, [r5, #15]
   248ee:	9001      	str	r0, [sp, #4]
   248f0:	7c2e      	ldrb	r6, [r5, #16]
   248f2:	3513      	adds	r5, #19
   248f4:	a80c      	add	r0, sp, #48	@ 0x30
   248f6:	222f      	movs	r2, #47	@ 0x2f
   248f8:	4629      	mov	r1, r5
   248fa:	f002 fcce 	bl	2729a <__aeabi_memcpy>
   248fe:	0230      	lsls	r0, r6, #8
   24900:	9901      	ldr	r1, [sp, #4]
   24902:	1840      	adds	r0, r0, r1
   24904:	9902      	ldr	r1, [sp, #8]
   24906:	0409      	lsls	r1, r1, #16
   24908:	9a0b      	ldr	r2, [sp, #44]	@ 0x2c
   2490a:	0612      	lsls	r2, r2, #24
   2490c:	1851      	adds	r1, r2, r1
   2490e:	1808      	adds	r0, r1, r0
   24910:	900b      	str	r0, [sp, #44]	@ 0x2c
   24912:	e650      	b.n	245b6 <_start+0x37e>
   24914:	4847      	ldr	r0, [pc, #284]	@ (24a34 <_start+0x7fc>)
   24916:	4468      	add	r0, sp
   24918:	f002 fafe 	bl	26f18 <_ZN9allow_pin12full_dynamic17unshare_if_shared17hc1e7d593d40bae1cE>
   2491c:	4d46      	ldr	r5, [pc, #280]	@ (24a38 <_start+0x800>)
   2491e:	446d      	add	r5, sp
   24920:	4628      	mov	r0, r5
   24922:	f002 faf9 	bl	26f18 <_ZN9allow_pin12full_dynamic17unshare_if_shared17hc1e7d593d40bae1cE>
   24926:	4628      	mov	r0, r5
   24928:	f002 faf6 	bl	26f18 <_ZN9allow_pin12full_dynamic17unshare_if_shared17hc1e7d593d40bae1cE>
   2492c:	78a0      	ldrb	r0, [r4, #2]
   2492e:	a92f      	add	r1, sp, #188	@ 0xbc
   24930:	7088      	strb	r0, [r1, #2]
   24932:	7820      	ldrb	r0, [r4, #0]
   24934:	7862      	ldrb	r2, [r4, #1]
   24936:	0212      	lsls	r2, r2, #8
   24938:	1810      	adds	r0, r2, r0
   2493a:	8008      	strh	r0, [r1, #0]
   2493c:	7ca8      	ldrb	r0, [r5, #18]
   2493e:	900b      	str	r0, [sp, #44]	@ 0x2c
   24940:	7c68      	ldrb	r0, [r5, #17]
   24942:	9002      	str	r0, [sp, #8]
   24944:	7be8      	ldrb	r0, [r5, #15]
   24946:	9001      	str	r0, [sp, #4]
   24948:	7c2c      	ldrb	r4, [r5, #16]
   2494a:	3513      	adds	r5, #19
   2494c:	a81f      	add	r0, sp, #124	@ 0x7c
   2494e:	221e      	movs	r2, #30
   24950:	4629      	mov	r1, r5
   24952:	f002 fca2 	bl	2729a <__aeabi_memcpy>
   24956:	0220      	lsls	r0, r4, #8
   24958:	9901      	ldr	r1, [sp, #4]
   2495a:	1840      	adds	r0, r0, r1
   2495c:	9902      	ldr	r1, [sp, #8]
   2495e:	0409      	lsls	r1, r1, #16
   24960:	9a0b      	ldr	r2, [sp, #44]	@ 0x2c
   24962:	0612      	lsls	r2, r2, #24
   24964:	1851      	adds	r1, r2, r1
   24966:	1808      	adds	r0, r1, r0
   24968:	900b      	str	r0, [sp, #44]	@ 0x2c
   2496a:	e685      	b.n	24678 <_start+0x440>
   2496c:	4831      	ldr	r0, [pc, #196]	@ (24a34 <_start+0x7fc>)
   2496e:	4468      	add	r0, sp
   24970:	f002 fad2 	bl	26f18 <_ZN9allow_pin12full_dynamic17unshare_if_shared17hc1e7d593d40bae1cE>
   24974:	4e30      	ldr	r6, [pc, #192]	@ (24a38 <_start+0x800>)
   24976:	446e      	add	r6, sp
   24978:	4630      	mov	r0, r6
   2497a:	f002 facd 	bl	26f18 <_ZN9allow_pin12full_dynamic17unshare_if_shared17hc1e7d593d40bae1cE>
   2497e:	4630      	mov	r0, r6
   24980:	f002 faca 	bl	26f18 <_ZN9allow_pin12full_dynamic17unshare_if_shared17hc1e7d593d40bae1cE>
   24984:	78a0      	ldrb	r0, [r4, #2]
   24986:	a92f      	add	r1, sp, #188	@ 0xbc
   24988:	7088      	strb	r0, [r1, #2]
   2498a:	7e70      	ldrb	r0, [r6, #25]
   2498c:	aa1f      	add	r2, sp, #124	@ 0x7c
   2498e:	7190      	strb	r0, [r2, #6]
   24990:	7820      	ldrb	r0, [r4, #0]
   24992:	7863      	ldrb	r3, [r4, #1]
   24994:	021b      	lsls	r3, r3, #8
   24996:	1818      	adds	r0, r3, r0
   24998:	8008      	strh	r0, [r1, #0]
   2499a:	7df0      	ldrb	r0, [r6, #23]
   2499c:	9908      	ldr	r1, [sp, #32]
   2499e:	6989      	ldr	r1, [r1, #24]
   249a0:	0209      	lsls	r1, r1, #8
   249a2:	1808      	adds	r0, r1, r0
   249a4:	8090      	strh	r0, [r2, #4]
   249a6:	7cf0      	ldrb	r0, [r6, #19]
   249a8:	7d31      	ldrb	r1, [r6, #20]
   249aa:	0209      	lsls	r1, r1, #8
   249ac:	1808      	adds	r0, r1, r0
   249ae:	7d71      	ldrb	r1, [r6, #21]
   249b0:	0409      	lsls	r1, r1, #16
   249b2:	7db2      	ldrb	r2, [r6, #22]
   249b4:	0612      	lsls	r2, r2, #24
   249b6:	1851      	adds	r1, r2, r1
   249b8:	1808      	adds	r0, r1, r0
   249ba:	901f      	str	r0, [sp, #124]	@ 0x7c
   249bc:	7bf0      	ldrb	r0, [r6, #15]
   249be:	7c31      	ldrb	r1, [r6, #16]
   249c0:	0209      	lsls	r1, r1, #8
   249c2:	1808      	adds	r0, r1, r0
   249c4:	7c71      	ldrb	r1, [r6, #17]
   249c6:	0409      	lsls	r1, r1, #16
   249c8:	7cb2      	ldrb	r2, [r6, #18]
   249ca:	0612      	lsls	r2, r2, #24
   249cc:	1851      	adds	r1, r2, r1
   249ce:	1808      	adds	r0, r1, r0
   249d0:	900b      	str	r0, [sp, #44]	@ 0x2c
   249d2:	e6af      	b.n	24734 <_start+0x4fc>
   249d4:	9806      	ldr	r0, [sp, #24]
   249d6:	1cc0      	adds	r0, r0, #3
   249d8:	4a16      	ldr	r2, [pc, #88]	@ (24a34 <_start+0x7fc>)
   249da:	446a      	add	r2, sp
   249dc:	78d3      	ldrb	r3, [r2, #3]
   249de:	a94b      	add	r1, sp, #300	@ 0x12c
   249e0:	708b      	strb	r3, [r1, #2]
   249e2:	7853      	ldrb	r3, [r2, #1]
   249e4:	7892      	ldrb	r2, [r2, #2]
   249e6:	0212      	lsls	r2, r2, #8
   249e8:	18d2      	adds	r2, r2, r3
   249ea:	800a      	strh	r2, [r1, #0]
   249ec:	9e08      	ldr	r6, [sp, #32]
   249ee:	4634      	mov	r4, r6
   249f0:	3460      	adds	r4, #96	@ 0x60
   249f2:	cc1c      	ldmia	r4, {r2, r3, r4}
   249f4:	0e25      	lsrs	r5, r4, #24
   249f6:	72c5      	strb	r5, [r0, #11]
   249f8:	0c25      	lsrs	r5, r4, #16
   249fa:	7285      	strb	r5, [r0, #10]
   249fc:	0a25      	lsrs	r5, r4, #8
   249fe:	7245      	strb	r5, [r0, #9]
   24a00:	7204      	strb	r4, [r0, #8]
   24a02:	0e1c      	lsrs	r4, r3, #24
   24a04:	71c4      	strb	r4, [r0, #7]
   24a06:	0c1c      	lsrs	r4, r3, #16
   24a08:	7184      	strb	r4, [r0, #6]
   24a0a:	0a1c      	lsrs	r4, r3, #8
   24a0c:	7144      	strb	r4, [r0, #5]
   24a0e:	7103      	strb	r3, [r0, #4]
   24a10:	0e13      	lsrs	r3, r2, #24
   24a12:	70c3      	strb	r3, [r0, #3]
   24a14:	0c13      	lsrs	r3, r2, #16
   24a16:	7083      	strb	r3, [r0, #2]
   24a18:	0a13      	lsrs	r3, r2, #8
   24a1a:	7043      	strb	r3, [r0, #1]
   24a1c:	7002      	strb	r2, [r0, #0]
   24a1e:	4c05      	ldr	r4, [pc, #20]	@ (24a34 <_start+0x7fc>)
   24a20:	446c      	add	r4, sp
   24a22:	4620      	mov	r0, r4
   24a24:	f7ff fbb0 	bl	24188 <_ZN20complex_full_dynamic3app17hfd664572b034fd0cE>
   24a28:	7820      	ldrb	r0, [r4, #0]
   24a2a:	2801      	cmp	r0, #1
   24a2c:	d106      	bne.n	24a3c <_start+0x804>
   24a2e:	6e30      	ldr	r0, [r6, #96]	@ 0x60
   24a30:	e6d9      	b.n	247e6 <_start+0x5ae>
   24a32:	46c0      	nop			@ (mov r8, r8)
   24a34:	00001404 	.word	0x00001404
   24a38:	000013a8 	.word	0x000013a8
   24a3c:	4816      	ldr	r0, [pc, #88]	@ (24a98 <_start+0x860>)
   24a3e:	4468      	add	r0, sp
   24a40:	78c1      	ldrb	r1, [r0, #3]
   24a42:	ac4f      	add	r4, sp, #316	@ 0x13c
   24a44:	70a1      	strb	r1, [r4, #2]
   24a46:	7841      	ldrb	r1, [r0, #1]
   24a48:	7882      	ldrb	r2, [r0, #2]
   24a4a:	0212      	lsls	r2, r2, #8
   24a4c:	1851      	adds	r1, r2, r1
   24a4e:	8021      	strh	r1, [r4, #0]
   24a50:	3008      	adds	r0, #8
   24a52:	6e31      	ldr	r1, [r6, #96]	@ 0x60
   24a54:	910a      	str	r1, [sp, #40]	@ 0x28
   24a56:	4b11      	ldr	r3, [pc, #68]	@ (24a9c <_start+0x864>)
   24a58:	446b      	add	r3, sp
   24a5a:	930b      	str	r3, [sp, #44]	@ 0x2c
   24a5c:	c864      	ldmia	r0!, {r2, r5, r6}
   24a5e:	c364      	stmia	r3!, {r2, r5, r6}
   24a60:	c866      	ldmia	r0!, {r1, r2, r5, r6}
   24a62:	c366      	stmia	r3!, {r1, r2, r5, r6}
   24a64:	8800      	ldrh	r0, [r0, #0]
   24a66:	8018      	strh	r0, [r3, #0]
   24a68:	990a      	ldr	r1, [sp, #40]	@ 0x28
   24a6a:	0e08      	lsrs	r0, r1, #24
   24a6c:	71a0      	strb	r0, [r4, #6]
   24a6e:	0c08      	lsrs	r0, r1, #16
   24a70:	7160      	strb	r0, [r4, #5]
   24a72:	0a08      	lsrs	r0, r1, #8
   24a74:	7120      	strb	r0, [r4, #4]
   24a76:	70e1      	strb	r1, [r4, #3]
   24a78:	1de0      	adds	r0, r4, #7
   24a7a:	221e      	movs	r2, #30
   24a7c:	990b      	ldr	r1, [sp, #44]	@ 0x2c
   24a7e:	f002 fc0c 	bl	2729a <__aeabi_memcpy>
   24a82:	4d05      	ldr	r5, [pc, #20]	@ (24a98 <_start+0x860>)
   24a84:	446d      	add	r5, sp
   24a86:	4628      	mov	r0, r5
   24a88:	4621      	mov	r1, r4
   24a8a:	f7fd fc83 	bl	22394 <_ZN20complex_full_dynamic3app17h84c8ec6ec36f002fE>
   24a8e:	7828      	ldrb	r0, [r5, #0]
   24a90:	2801      	cmp	r0, #1
   24a92:	d105      	bne.n	24aa0 <_start+0x868>
   24a94:	e6a5      	b.n	247e2 <_start+0x5aa>
   24a96:	46c0      	nop			@ (mov r8, r8)
   24a98:	00001404 	.word	0x00001404
   24a9c:	000013a8 	.word	0x000013a8
   24aa0:	4817      	ldr	r0, [pc, #92]	@ (24b00 <_start+0x8c8>)
   24aa2:	4468      	add	r0, sp
   24aa4:	78c1      	ldrb	r1, [r0, #3]
   24aa6:	ac59      	add	r4, sp, #356	@ 0x164
   24aa8:	70a1      	strb	r1, [r4, #2]
   24aaa:	7841      	ldrb	r1, [r0, #1]
   24aac:	7882      	ldrb	r2, [r0, #2]
   24aae:	0212      	lsls	r2, r2, #8
   24ab0:	1851      	adds	r1, r2, r1
   24ab2:	8021      	strh	r1, [r4, #0]
   24ab4:	3008      	adds	r0, #8
   24ab6:	9908      	ldr	r1, [sp, #32]
   24ab8:	6e09      	ldr	r1, [r1, #96]	@ 0x60
   24aba:	910a      	str	r1, [sp, #40]	@ 0x28
   24abc:	4b11      	ldr	r3, [pc, #68]	@ (24b04 <_start+0x8cc>)
   24abe:	446b      	add	r3, sp
   24ac0:	930b      	str	r3, [sp, #44]	@ 0x2c
   24ac2:	c866      	ldmia	r0!, {r1, r2, r5, r6}
   24ac4:	c366      	stmia	r3!, {r1, r2, r5, r6}
   24ac6:	c866      	ldmia	r0!, {r1, r2, r5, r6}
   24ac8:	c366      	stmia	r3!, {r1, r2, r5, r6}
   24aca:	8801      	ldrh	r1, [r0, #0]
   24acc:	8019      	strh	r1, [r3, #0]
   24ace:	7880      	ldrb	r0, [r0, #2]
   24ad0:	7098      	strb	r0, [r3, #2]
   24ad2:	990a      	ldr	r1, [sp, #40]	@ 0x28
   24ad4:	0e08      	lsrs	r0, r1, #24
   24ad6:	71a0      	strb	r0, [r4, #6]
   24ad8:	0c08      	lsrs	r0, r1, #16
   24ada:	7160      	strb	r0, [r4, #5]
   24adc:	0a08      	lsrs	r0, r1, #8
   24ade:	7120      	strb	r0, [r4, #4]
   24ae0:	70e1      	strb	r1, [r4, #3]
   24ae2:	1de0      	adds	r0, r4, #7
   24ae4:	2223      	movs	r2, #35	@ 0x23
   24ae6:	990b      	ldr	r1, [sp, #44]	@ 0x2c
   24ae8:	f002 fbd7 	bl	2729a <__aeabi_memcpy>
   24aec:	4d04      	ldr	r5, [pc, #16]	@ (24b00 <_start+0x8c8>)
   24aee:	446d      	add	r5, sp
   24af0:	4628      	mov	r0, r5
   24af2:	4621      	mov	r1, r4
   24af4:	f7fc f98c 	bl	20e10 <_ZN20complex_full_dynamic3app17h30b10c8b529f1ec2E>
   24af8:	7828      	ldrb	r0, [r5, #0]
   24afa:	2801      	cmp	r0, #1
   24afc:	d104      	bne.n	24b08 <_start+0x8d0>
   24afe:	e670      	b.n	247e2 <_start+0x5aa>
   24b00:	00001404 	.word	0x00001404
   24b04:	000013a8 	.word	0x000013a8
   24b08:	4914      	ldr	r1, [pc, #80]	@ (24b5c <_start+0x924>)
   24b0a:	4469      	add	r1, sp
   24b0c:	78c8      	ldrb	r0, [r1, #3]
   24b0e:	ac64      	add	r4, sp, #400	@ 0x190
   24b10:	70a0      	strb	r0, [r4, #2]
   24b12:	7848      	ldrb	r0, [r1, #1]
   24b14:	788a      	ldrb	r2, [r1, #2]
   24b16:	0212      	lsls	r2, r2, #8
   24b18:	1810      	adds	r0, r2, r0
   24b1a:	8020      	strh	r0, [r4, #0]
   24b1c:	9808      	ldr	r0, [sp, #32]
   24b1e:	6e05      	ldr	r5, [r0, #96]	@ 0x60
   24b20:	3108      	adds	r1, #8
   24b22:	480f      	ldr	r0, [pc, #60]	@ (24b60 <_start+0x928>)
   24b24:	4468      	add	r0, sp
   24b26:	900b      	str	r0, [sp, #44]	@ 0x2c
   24b28:	265c      	movs	r6, #92	@ 0x5c
   24b2a:	4632      	mov	r2, r6
   24b2c:	f002 fa55 	bl	26fda <__aeabi_memcpy4>
   24b30:	0e28      	lsrs	r0, r5, #24
   24b32:	71a0      	strb	r0, [r4, #6]
   24b34:	0c28      	lsrs	r0, r5, #16
   24b36:	7160      	strb	r0, [r4, #5]
   24b38:	0a28      	lsrs	r0, r5, #8
   24b3a:	7120      	strb	r0, [r4, #4]
   24b3c:	70e5      	strb	r5, [r4, #3]
   24b3e:	1de0      	adds	r0, r4, #7
   24b40:	990b      	ldr	r1, [sp, #44]	@ 0x2c
   24b42:	4632      	mov	r2, r6
   24b44:	f002 fba9 	bl	2729a <__aeabi_memcpy>
   24b48:	4d04      	ldr	r5, [pc, #16]	@ (24b5c <_start+0x924>)
   24b4a:	446d      	add	r5, sp
   24b4c:	4628      	mov	r0, r5
   24b4e:	4621      	mov	r1, r4
   24b50:	f7fb ff4a 	bl	209e8 <_ZN20complex_full_dynamic3app17h25b1b57496a92bc6E>
   24b54:	7828      	ldrb	r0, [r5, #0]
   24b56:	2801      	cmp	r0, #1
   24b58:	d104      	bne.n	24b64 <_start+0x92c>
   24b5a:	e642      	b.n	247e2 <_start+0x5aa>
   24b5c:	00001404 	.word	0x00001404
   24b60:	000013a8 	.word	0x000013a8
   24b64:	4815      	ldr	r0, [pc, #84]	@ (24bbc <_start+0x984>)
   24b66:	4468      	add	r0, sp
   24b68:	78c1      	ldrb	r1, [r0, #3]
   24b6a:	ac7d      	add	r4, sp, #500	@ 0x1f4
   24b6c:	70a1      	strb	r1, [r4, #2]
   24b6e:	7841      	ldrb	r1, [r0, #1]
   24b70:	7882      	ldrb	r2, [r0, #2]
   24b72:	0212      	lsls	r2, r2, #8
   24b74:	1851      	adds	r1, r2, r1
   24b76:	8021      	strh	r1, [r4, #0]
   24b78:	3008      	adds	r0, #8
   24b7a:	9908      	ldr	r1, [sp, #32]
   24b7c:	6e09      	ldr	r1, [r1, #96]	@ 0x60
   24b7e:	910a      	str	r1, [sp, #40]	@ 0x28
   24b80:	4b0f      	ldr	r3, [pc, #60]	@ (24bc0 <_start+0x988>)
   24b82:	446b      	add	r3, sp
   24b84:	930b      	str	r3, [sp, #44]	@ 0x2c
   24b86:	c866      	ldmia	r0!, {r1, r2, r5, r6}
   24b88:	c366      	stmia	r3!, {r1, r2, r5, r6}
   24b8a:	c866      	ldmia	r0!, {r1, r2, r5, r6}
   24b8c:	c366      	stmia	r3!, {r1, r2, r5, r6}
   24b8e:	990a      	ldr	r1, [sp, #40]	@ 0x28
   24b90:	0e08      	lsrs	r0, r1, #24
   24b92:	71a0      	strb	r0, [r4, #6]
   24b94:	0c08      	lsrs	r0, r1, #16
   24b96:	7160      	strb	r0, [r4, #5]
   24b98:	0a08      	lsrs	r0, r1, #8
   24b9a:	7120      	strb	r0, [r4, #4]
   24b9c:	70e1      	strb	r1, [r4, #3]
   24b9e:	1de0      	adds	r0, r4, #7
   24ba0:	2220      	movs	r2, #32
   24ba2:	990b      	ldr	r1, [sp, #44]	@ 0x2c
   24ba4:	f002 fb79 	bl	2729a <__aeabi_memcpy>
   24ba8:	4d04      	ldr	r5, [pc, #16]	@ (24bbc <_start+0x984>)
   24baa:	446d      	add	r5, sp
   24bac:	4628      	mov	r0, r5
   24bae:	4621      	mov	r1, r4
   24bb0:	f7fb fc58 	bl	20464 <_ZN20complex_full_dynamic3app17h1377d6f4837161bcE>
   24bb4:	7828      	ldrb	r0, [r5, #0]
   24bb6:	2801      	cmp	r0, #1
   24bb8:	d104      	bne.n	24bc4 <_start+0x98c>
   24bba:	e612      	b.n	247e2 <_start+0x5aa>
   24bbc:	00001404 	.word	0x00001404
   24bc0:	000013a8 	.word	0x000013a8
   24bc4:	4816      	ldr	r0, [pc, #88]	@ (24c20 <_start+0x9e8>)
   24bc6:	4468      	add	r0, sp
   24bc8:	78c1      	ldrb	r1, [r0, #3]
   24bca:	ac87      	add	r4, sp, #540	@ 0x21c
   24bcc:	70a1      	strb	r1, [r4, #2]
   24bce:	7841      	ldrb	r1, [r0, #1]
   24bd0:	7882      	ldrb	r2, [r0, #2]
   24bd2:	0212      	lsls	r2, r2, #8
   24bd4:	1851      	adds	r1, r2, r1
   24bd6:	8021      	strh	r1, [r4, #0]
   24bd8:	3008      	adds	r0, #8
   24bda:	9908      	ldr	r1, [sp, #32]
   24bdc:	6e09      	ldr	r1, [r1, #96]	@ 0x60
   24bde:	4b11      	ldr	r3, [pc, #68]	@ (24c24 <_start+0x9ec>)
   24be0:	446b      	add	r3, sp
   24be2:	930b      	str	r3, [sp, #44]	@ 0x2c
   24be4:	c860      	ldmia	r0!, {r5, r6}
   24be6:	c360      	stmia	r3!, {r5, r6}
   24be8:	c864      	ldmia	r0!, {r2, r5, r6}
   24bea:	c364      	stmia	r3!, {r2, r5, r6}
   24bec:	8802      	ldrh	r2, [r0, #0]
   24bee:	801a      	strh	r2, [r3, #0]
   24bf0:	7880      	ldrb	r0, [r0, #2]
   24bf2:	7098      	strb	r0, [r3, #2]
   24bf4:	0e08      	lsrs	r0, r1, #24
   24bf6:	71a0      	strb	r0, [r4, #6]
   24bf8:	0c08      	lsrs	r0, r1, #16
   24bfa:	7160      	strb	r0, [r4, #5]
   24bfc:	0a08      	lsrs	r0, r1, #8
   24bfe:	7120      	strb	r0, [r4, #4]
   24c00:	70e1      	strb	r1, [r4, #3]
   24c02:	1de0      	adds	r0, r4, #7
   24c04:	2217      	movs	r2, #23
   24c06:	990b      	ldr	r1, [sp, #44]	@ 0x2c
   24c08:	f002 fb47 	bl	2729a <__aeabi_memcpy>
   24c0c:	4d04      	ldr	r5, [pc, #16]	@ (24c20 <_start+0x9e8>)
   24c0e:	446d      	add	r5, sp
   24c10:	4628      	mov	r0, r5
   24c12:	4621      	mov	r1, r4
   24c14:	f7fe fe8e 	bl	23934 <_ZN20complex_full_dynamic3app17hd6afb96a526c6c02E>
   24c18:	7828      	ldrb	r0, [r5, #0]
   24c1a:	2801      	cmp	r0, #1
   24c1c:	d104      	bne.n	24c28 <_start+0x9f0>
   24c1e:	e5e0      	b.n	247e2 <_start+0x5aa>
   24c20:	00001404 	.word	0x00001404
   24c24:	000013a8 	.word	0x000013a8
   24c28:	4816      	ldr	r0, [pc, #88]	@ (24c84 <_start+0xa4c>)
   24c2a:	4468      	add	r0, sp
   24c2c:	78c1      	ldrb	r1, [r0, #3]
   24c2e:	ac8f      	add	r4, sp, #572	@ 0x23c
   24c30:	70a1      	strb	r1, [r4, #2]
   24c32:	7841      	ldrb	r1, [r0, #1]
   24c34:	7882      	ldrb	r2, [r0, #2]
   24c36:	0212      	lsls	r2, r2, #8
   24c38:	1851      	adds	r1, r2, r1
   24c3a:	8021      	strh	r1, [r4, #0]
   24c3c:	3008      	adds	r0, #8
   24c3e:	9908      	ldr	r1, [sp, #32]
   24c40:	6e09      	ldr	r1, [r1, #96]	@ 0x60
   24c42:	4b11      	ldr	r3, [pc, #68]	@ (24c88 <_start+0xa50>)
   24c44:	446b      	add	r3, sp
   24c46:	930b      	str	r3, [sp, #44]	@ 0x2c
   24c48:	c864      	ldmia	r0!, {r2, r5, r6}
   24c4a:	c364      	stmia	r3!, {r2, r5, r6}
   24c4c:	c864      	ldmia	r0!, {r2, r5, r6}
   24c4e:	c364      	stmia	r3!, {r2, r5, r6}
   24c50:	c864      	ldmia	r0!, {r2, r5, r6}
   24c52:	c364      	stmia	r3!, {r2, r5, r6}
   24c54:	7800      	ldrb	r0, [r0, #0]
   24c56:	7018      	strb	r0, [r3, #0]
   24c58:	0e08      	lsrs	r0, r1, #24
   24c5a:	71a0      	strb	r0, [r4, #6]
   24c5c:	0c08      	lsrs	r0, r1, #16
   24c5e:	7160      	strb	r0, [r4, #5]
   24c60:	0a08      	lsrs	r0, r1, #8
   24c62:	7120      	strb	r0, [r4, #4]
   24c64:	70e1      	strb	r1, [r4, #3]
   24c66:	1de0      	adds	r0, r4, #7
   24c68:	2225      	movs	r2, #37	@ 0x25
   24c6a:	990b      	ldr	r1, [sp, #44]	@ 0x2c
   24c6c:	f002 fb15 	bl	2729a <__aeabi_memcpy>
   24c70:	4d04      	ldr	r5, [pc, #16]	@ (24c84 <_start+0xa4c>)
   24c72:	446d      	add	r5, sp
   24c74:	4628      	mov	r0, r5
   24c76:	4621      	mov	r1, r4
   24c78:	f7fc fb90 	bl	2139c <_ZN20complex_full_dynamic3app17h52cc7d7c482a4714E>
   24c7c:	7828      	ldrb	r0, [r5, #0]
   24c7e:	2801      	cmp	r0, #1
   24c80:	d104      	bne.n	24c8c <_start+0xa54>
   24c82:	e5ae      	b.n	247e2 <_start+0x5aa>
   24c84:	00001404 	.word	0x00001404
   24c88:	000013a8 	.word	0x000013a8
   24c8c:	4816      	ldr	r0, [pc, #88]	@ (24ce8 <_start+0xab0>)
   24c8e:	4468      	add	r0, sp
   24c90:	78c1      	ldrb	r1, [r0, #3]
   24c92:	ac9a      	add	r4, sp, #616	@ 0x268
   24c94:	70a1      	strb	r1, [r4, #2]
   24c96:	7841      	ldrb	r1, [r0, #1]
   24c98:	7882      	ldrb	r2, [r0, #2]
   24c9a:	0212      	lsls	r2, r2, #8
   24c9c:	1851      	adds	r1, r2, r1
   24c9e:	8021      	strh	r1, [r4, #0]
   24ca0:	3008      	adds	r0, #8
   24ca2:	9908      	ldr	r1, [sp, #32]
   24ca4:	6e09      	ldr	r1, [r1, #96]	@ 0x60
   24ca6:	910a      	str	r1, [sp, #40]	@ 0x28
   24ca8:	4b10      	ldr	r3, [pc, #64]	@ (24cec <_start+0xab4>)
   24caa:	446b      	add	r3, sp
   24cac:	930b      	str	r3, [sp, #44]	@ 0x2c
   24cae:	c864      	ldmia	r0!, {r2, r5, r6}
   24cb0:	c364      	stmia	r3!, {r2, r5, r6}
   24cb2:	c866      	ldmia	r0!, {r1, r2, r5, r6}
   24cb4:	c366      	stmia	r3!, {r1, r2, r5, r6}
   24cb6:	8800      	ldrh	r0, [r0, #0]
   24cb8:	8018      	strh	r0, [r3, #0]
   24cba:	990a      	ldr	r1, [sp, #40]	@ 0x28
   24cbc:	0e08      	lsrs	r0, r1, #24
   24cbe:	71a0      	strb	r0, [r4, #6]
   24cc0:	0c08      	lsrs	r0, r1, #16
   24cc2:	7160      	strb	r0, [r4, #5]
   24cc4:	0a08      	lsrs	r0, r1, #8
   24cc6:	7120      	strb	r0, [r4, #4]
   24cc8:	70e1      	strb	r1, [r4, #3]
   24cca:	1de0      	adds	r0, r4, #7
   24ccc:	221e      	movs	r2, #30
   24cce:	990b      	ldr	r1, [sp, #44]	@ 0x2c
   24cd0:	f002 fae3 	bl	2729a <__aeabi_memcpy>
   24cd4:	4d04      	ldr	r5, [pc, #16]	@ (24ce8 <_start+0xab0>)
   24cd6:	446d      	add	r5, sp
   24cd8:	4628      	mov	r0, r5
   24cda:	4621      	mov	r1, r4
   24cdc:	f7fe fe82 	bl	239e4 <_ZN20complex_full_dynamic3app17hd7474b93518f03daE>
   24ce0:	7828      	ldrb	r0, [r5, #0]
   24ce2:	2801      	cmp	r0, #1
   24ce4:	d104      	bne.n	24cf0 <_start+0xab8>
   24ce6:	e57c      	b.n	247e2 <_start+0x5aa>
   24ce8:	00001404 	.word	0x00001404
   24cec:	000013a8 	.word	0x000013a8
   24cf0:	4815      	ldr	r0, [pc, #84]	@ (24d48 <_start+0xb10>)
   24cf2:	4468      	add	r0, sp
   24cf4:	78c1      	ldrb	r1, [r0, #3]
   24cf6:	aca4      	add	r4, sp, #656	@ 0x290
   24cf8:	70a1      	strb	r1, [r4, #2]
   24cfa:	7841      	ldrb	r1, [r0, #1]
   24cfc:	7882      	ldrb	r2, [r0, #2]
   24cfe:	0212      	lsls	r2, r2, #8
   24d00:	1851      	adds	r1, r2, r1
   24d02:	8021      	strh	r1, [r4, #0]
   24d04:	3008      	adds	r0, #8
   24d06:	9908      	ldr	r1, [sp, #32]
   24d08:	6e09      	ldr	r1, [r1, #96]	@ 0x60
   24d0a:	910a      	str	r1, [sp, #40]	@ 0x28
   24d0c:	4b0f      	ldr	r3, [pc, #60]	@ (24d4c <_start+0xb14>)
   24d0e:	446b      	add	r3, sp
   24d10:	930b      	str	r3, [sp, #44]	@ 0x2c
   24d12:	c866      	ldmia	r0!, {r1, r2, r5, r6}
   24d14:	c366      	stmia	r3!, {r1, r2, r5, r6}
   24d16:	7800      	ldrb	r0, [r0, #0]
   24d18:	7018      	strb	r0, [r3, #0]
   24d1a:	990a      	ldr	r1, [sp, #40]	@ 0x28
   24d1c:	0e08      	lsrs	r0, r1, #24
   24d1e:	71a0      	strb	r0, [r4, #6]
   24d20:	0c08      	lsrs	r0, r1, #16
   24d22:	7160      	strb	r0, [r4, #5]
   24d24:	0a08      	lsrs	r0, r1, #8
   24d26:	7120      	strb	r0, [r4, #4]
   24d28:	70e1      	strb	r1, [r4, #3]
   24d2a:	1de0      	adds	r0, r4, #7
   24d2c:	2211      	movs	r2, #17
   24d2e:	990b      	ldr	r1, [sp, #44]	@ 0x2c
   24d30:	f002 fab3 	bl	2729a <__aeabi_memcpy>
   24d34:	4d04      	ldr	r5, [pc, #16]	@ (24d48 <_start+0xb10>)
   24d36:	446d      	add	r5, sp
   24d38:	4628      	mov	r0, r5
   24d3a:	4621      	mov	r1, r4
   24d3c:	f7fd fa22 	bl	22184 <_ZN20complex_full_dynamic3app17h8349c988e1320116E>
   24d40:	7828      	ldrb	r0, [r5, #0]
   24d42:	2801      	cmp	r0, #1
   24d44:	d104      	bne.n	24d50 <_start+0xb18>
   24d46:	e54c      	b.n	247e2 <_start+0x5aa>
   24d48:	00001404 	.word	0x00001404
   24d4c:	000013a8 	.word	0x000013a8
   24d50:	4818      	ldr	r0, [pc, #96]	@ (24db4 <_start+0xb7c>)
   24d52:	4468      	add	r0, sp
   24d54:	78c1      	ldrb	r1, [r0, #3]
   24d56:	acaa      	add	r4, sp, #680	@ 0x2a8
   24d58:	70a1      	strb	r1, [r4, #2]
   24d5a:	7841      	ldrb	r1, [r0, #1]
   24d5c:	7882      	ldrb	r2, [r0, #2]
   24d5e:	0212      	lsls	r2, r2, #8
   24d60:	1851      	adds	r1, r2, r1
   24d62:	8021      	strh	r1, [r4, #0]
   24d64:	3008      	adds	r0, #8
   24d66:	9908      	ldr	r1, [sp, #32]
   24d68:	6e09      	ldr	r1, [r1, #96]	@ 0x60
   24d6a:	910a      	str	r1, [sp, #40]	@ 0x28
   24d6c:	4b12      	ldr	r3, [pc, #72]	@ (24db8 <_start+0xb80>)
   24d6e:	446b      	add	r3, sp
   24d70:	930b      	str	r3, [sp, #44]	@ 0x2c
   24d72:	c864      	ldmia	r0!, {r2, r5, r6}
   24d74:	c364      	stmia	r3!, {r2, r5, r6}
   24d76:	c866      	ldmia	r0!, {r1, r2, r5, r6}
   24d78:	c366      	stmia	r3!, {r1, r2, r5, r6}
   24d7a:	c866      	ldmia	r0!, {r1, r2, r5, r6}
   24d7c:	c366      	stmia	r3!, {r1, r2, r5, r6}
   24d7e:	8801      	ldrh	r1, [r0, #0]
   24d80:	8019      	strh	r1, [r3, #0]
   24d82:	7880      	ldrb	r0, [r0, #2]
   24d84:	7098      	strb	r0, [r3, #2]
   24d86:	990a      	ldr	r1, [sp, #40]	@ 0x28
   24d88:	0e08      	lsrs	r0, r1, #24
   24d8a:	71a0      	strb	r0, [r4, #6]
   24d8c:	0c08      	lsrs	r0, r1, #16
   24d8e:	7160      	strb	r0, [r4, #5]
   24d90:	0a08      	lsrs	r0, r1, #8
   24d92:	7120      	strb	r0, [r4, #4]
   24d94:	70e1      	strb	r1, [r4, #3]
   24d96:	1de0      	adds	r0, r4, #7
   24d98:	222f      	movs	r2, #47	@ 0x2f
   24d9a:	990b      	ldr	r1, [sp, #44]	@ 0x2c
   24d9c:	f002 fa7d 	bl	2729a <__aeabi_memcpy>
   24da0:	4d04      	ldr	r5, [pc, #16]	@ (24db4 <_start+0xb7c>)
   24da2:	446d      	add	r5, sp
   24da4:	4628      	mov	r0, r5
   24da6:	4621      	mov	r1, r4
   24da8:	f7fd fe1a 	bl	229e0 <_ZN20complex_full_dynamic3app17h98eea9e021569d89E>
   24dac:	7828      	ldrb	r0, [r5, #0]
   24dae:	2801      	cmp	r0, #1
   24db0:	d104      	bne.n	24dbc <_start+0xb84>
   24db2:	e516      	b.n	247e2 <_start+0x5aa>
   24db4:	00001404 	.word	0x00001404
   24db8:	000013a8 	.word	0x000013a8
   24dbc:	4817      	ldr	r0, [pc, #92]	@ (24e1c <_start+0xbe4>)
   24dbe:	4468      	add	r0, sp
   24dc0:	78c1      	ldrb	r1, [r0, #3]
   24dc2:	acb8      	add	r4, sp, #736	@ 0x2e0
   24dc4:	70a1      	strb	r1, [r4, #2]
   24dc6:	7841      	ldrb	r1, [r0, #1]
   24dc8:	7882      	ldrb	r2, [r0, #2]
   24dca:	0212      	lsls	r2, r2, #8
   24dcc:	1851      	adds	r1, r2, r1
   24dce:	8021      	strh	r1, [r4, #0]
   24dd0:	3008      	adds	r0, #8
   24dd2:	9908      	ldr	r1, [sp, #32]
   24dd4:	6e09      	ldr	r1, [r1, #96]	@ 0x60
   24dd6:	910a      	str	r1, [sp, #40]	@ 0x28
   24dd8:	4b11      	ldr	r3, [pc, #68]	@ (24e20 <_start+0xbe8>)
   24dda:	446b      	add	r3, sp
   24ddc:	930b      	str	r3, [sp, #44]	@ 0x2c
   24dde:	c864      	ldmia	r0!, {r2, r5, r6}
   24de0:	c364      	stmia	r3!, {r2, r5, r6}
   24de2:	c866      	ldmia	r0!, {r1, r2, r5, r6}
   24de4:	c366      	stmia	r3!, {r1, r2, r5, r6}
   24de6:	c866      	ldmia	r0!, {r1, r2, r5, r6}
   24de8:	c366      	stmia	r3!, {r1, r2, r5, r6}
   24dea:	7800      	ldrb	r0, [r0, #0]
   24dec:	7018      	strb	r0, [r3, #0]
   24dee:	990a      	ldr	r1, [sp, #40]	@ 0x28
   24df0:	0e08      	lsrs	r0, r1, #24
   24df2:	71a0      	strb	r0, [r4, #6]
   24df4:	0c08      	lsrs	r0, r1, #16
   24df6:	7160      	strb	r0, [r4, #5]
   24df8:	0a08      	lsrs	r0, r1, #8
   24dfa:	7120      	strb	r0, [r4, #4]
   24dfc:	70e1      	strb	r1, [r4, #3]
   24dfe:	1de0      	adds	r0, r4, #7
   24e00:	222d      	movs	r2, #45	@ 0x2d
   24e02:	990b      	ldr	r1, [sp, #44]	@ 0x2c
   24e04:	f002 fa49 	bl	2729a <__aeabi_memcpy>
   24e08:	4d04      	ldr	r5, [pc, #16]	@ (24e1c <_start+0xbe4>)
   24e0a:	446d      	add	r5, sp
   24e0c:	4628      	mov	r0, r5
   24e0e:	4621      	mov	r1, r4
   24e10:	f7fd fa10 	bl	22234 <_ZN20complex_full_dynamic3app17h83d8a691f5913272E>
   24e14:	7828      	ldrb	r0, [r5, #0]
   24e16:	2801      	cmp	r0, #1
   24e18:	d104      	bne.n	24e24 <_start+0xbec>
   24e1a:	e4e2      	b.n	247e2 <_start+0x5aa>
   24e1c:	00001404 	.word	0x00001404
   24e20:	000013a8 	.word	0x000013a8
   24e24:	4817      	ldr	r0, [pc, #92]	@ (24e84 <_start+0xc4c>)
   24e26:	4468      	add	r0, sp
   24e28:	78c1      	ldrb	r1, [r0, #3]
   24e2a:	acc5      	add	r4, sp, #788	@ 0x314
   24e2c:	70a1      	strb	r1, [r4, #2]
   24e2e:	7841      	ldrb	r1, [r0, #1]
   24e30:	7882      	ldrb	r2, [r0, #2]
   24e32:	0212      	lsls	r2, r2, #8
   24e34:	1851      	adds	r1, r2, r1
   24e36:	8021      	strh	r1, [r4, #0]
   24e38:	3008      	adds	r0, #8
   24e3a:	9908      	ldr	r1, [sp, #32]
   24e3c:	6e09      	ldr	r1, [r1, #96]	@ 0x60
   24e3e:	4b12      	ldr	r3, [pc, #72]	@ (24e88 <_start+0xc50>)
   24e40:	446b      	add	r3, sp
   24e42:	930b      	str	r3, [sp, #44]	@ 0x2c
   24e44:	c864      	ldmia	r0!, {r2, r5, r6}
   24e46:	c364      	stmia	r3!, {r2, r5, r6}
   24e48:	c864      	ldmia	r0!, {r2, r5, r6}
   24e4a:	c364      	stmia	r3!, {r2, r5, r6}
   24e4c:	c864      	ldmia	r0!, {r2, r5, r6}
   24e4e:	c364      	stmia	r3!, {r2, r5, r6}
   24e50:	8802      	ldrh	r2, [r0, #0]
   24e52:	801a      	strh	r2, [r3, #0]
   24e54:	7880      	ldrb	r0, [r0, #2]
   24e56:	7098      	strb	r0, [r3, #2]
   24e58:	0e08      	lsrs	r0, r1, #24
   24e5a:	71a0      	strb	r0, [r4, #6]
   24e5c:	0c08      	lsrs	r0, r1, #16
   24e5e:	7160      	strb	r0, [r4, #5]
   24e60:	0a08      	lsrs	r0, r1, #8
   24e62:	7120      	strb	r0, [r4, #4]
   24e64:	70e1      	strb	r1, [r4, #3]
   24e66:	1de0      	adds	r0, r4, #7
   24e68:	2227      	movs	r2, #39	@ 0x27
   24e6a:	990b      	ldr	r1, [sp, #44]	@ 0x2c
   24e6c:	f002 fa15 	bl	2729a <__aeabi_memcpy>
   24e70:	4d04      	ldr	r5, [pc, #16]	@ (24e84 <_start+0xc4c>)
   24e72:	446d      	add	r5, sp
   24e74:	4628      	mov	r0, r5
   24e76:	4621      	mov	r1, r4
   24e78:	f7fd fe62 	bl	22b40 <_ZN20complex_full_dynamic3app17h9ecc45457ff3189aE>
   24e7c:	7828      	ldrb	r0, [r5, #0]
   24e7e:	2801      	cmp	r0, #1
   24e80:	d104      	bne.n	24e8c <_start+0xc54>
   24e82:	e4ae      	b.n	247e2 <_start+0x5aa>
   24e84:	00001404 	.word	0x00001404
   24e88:	000013a8 	.word	0x000013a8
   24e8c:	4817      	ldr	r0, [pc, #92]	@ (24eec <_start+0xcb4>)
   24e8e:	4468      	add	r0, sp
   24e90:	78c1      	ldrb	r1, [r0, #3]
   24e92:	acd1      	add	r4, sp, #836	@ 0x344
   24e94:	70a1      	strb	r1, [r4, #2]
   24e96:	7841      	ldrb	r1, [r0, #1]
   24e98:	7882      	ldrb	r2, [r0, #2]
   24e9a:	0212      	lsls	r2, r2, #8
   24e9c:	1851      	adds	r1, r2, r1
   24e9e:	8021      	strh	r1, [r4, #0]
   24ea0:	3008      	adds	r0, #8
   24ea2:	9908      	ldr	r1, [sp, #32]
   24ea4:	6e09      	ldr	r1, [r1, #96]	@ 0x60
   24ea6:	910a      	str	r1, [sp, #40]	@ 0x28
   24ea8:	4b11      	ldr	r3, [pc, #68]	@ (24ef0 <_start+0xcb8>)
   24eaa:	446b      	add	r3, sp
   24eac:	930b      	str	r3, [sp, #44]	@ 0x2c
   24eae:	c866      	ldmia	r0!, {r1, r2, r5, r6}
   24eb0:	c366      	stmia	r3!, {r1, r2, r5, r6}
   24eb2:	c866      	ldmia	r0!, {r1, r2, r5, r6}
   24eb4:	c366      	stmia	r3!, {r1, r2, r5, r6}
   24eb6:	c866      	ldmia	r0!, {r1, r2, r5, r6}
   24eb8:	c366      	stmia	r3!, {r1, r2, r5, r6}
   24eba:	7800      	ldrb	r0, [r0, #0]
   24ebc:	7018      	strb	r0, [r3, #0]
   24ebe:	990a      	ldr	r1, [sp, #40]	@ 0x28
   24ec0:	0e08      	lsrs	r0, r1, #24
   24ec2:	71a0      	strb	r0, [r4, #6]
   24ec4:	0c08      	lsrs	r0, r1, #16
   24ec6:	7160      	strb	r0, [r4, #5]
   24ec8:	0a08      	lsrs	r0, r1, #8
   24eca:	7120      	strb	r0, [r4, #4]
   24ecc:	70e1      	strb	r1, [r4, #3]
   24ece:	1de0      	adds	r0, r4, #7
   24ed0:	2231      	movs	r2, #49	@ 0x31
   24ed2:	990b      	ldr	r1, [sp, #44]	@ 0x2c
   24ed4:	f002 f9e1 	bl	2729a <__aeabi_memcpy>
   24ed8:	4d04      	ldr	r5, [pc, #16]	@ (24eec <_start+0xcb4>)
   24eda:	446d      	add	r5, sp
   24edc:	4628      	mov	r0, r5
   24ede:	4621      	mov	r1, r4
   24ee0:	f7fd ff9c 	bl	22e1c <_ZN20complex_full_dynamic3app17ha37387aabe656808E>
   24ee4:	7828      	ldrb	r0, [r5, #0]
   24ee6:	2801      	cmp	r0, #1
   24ee8:	d104      	bne.n	24ef4 <_start+0xcbc>
   24eea:	e47a      	b.n	247e2 <_start+0x5aa>
   24eec:	00001404 	.word	0x00001404
   24ef0:	000013a8 	.word	0x000013a8
   24ef4:	4817      	ldr	r0, [pc, #92]	@ (24f54 <_start+0xd1c>)
   24ef6:	4468      	add	r0, sp
   24ef8:	78c1      	ldrb	r1, [r0, #3]
   24efa:	acdf      	add	r4, sp, #892	@ 0x37c
   24efc:	70a1      	strb	r1, [r4, #2]
   24efe:	7841      	ldrb	r1, [r0, #1]
   24f00:	7882      	ldrb	r2, [r0, #2]
   24f02:	0212      	lsls	r2, r2, #8
   24f04:	1851      	adds	r1, r2, r1
   24f06:	8021      	strh	r1, [r4, #0]
   24f08:	3008      	adds	r0, #8
   24f0a:	9908      	ldr	r1, [sp, #32]
   24f0c:	6e09      	ldr	r1, [r1, #96]	@ 0x60
   24f0e:	910a      	str	r1, [sp, #40]	@ 0x28
   24f10:	4b11      	ldr	r3, [pc, #68]	@ (24f58 <_start+0xd20>)
   24f12:	446b      	add	r3, sp
   24f14:	930b      	str	r3, [sp, #44]	@ 0x2c
   24f16:	c864      	ldmia	r0!, {r2, r5, r6}
   24f18:	c364      	stmia	r3!, {r2, r5, r6}
   24f1a:	c866      	ldmia	r0!, {r1, r2, r5, r6}
   24f1c:	c366      	stmia	r3!, {r1, r2, r5, r6}
   24f1e:	c866      	ldmia	r0!, {r1, r2, r5, r6}
   24f20:	c366      	stmia	r3!, {r1, r2, r5, r6}
   24f22:	7800      	ldrb	r0, [r0, #0]
   24f24:	7018      	strb	r0, [r3, #0]
   24f26:	990a      	ldr	r1, [sp, #40]	@ 0x28
   24f28:	0e08      	lsrs	r0, r1, #24
   24f2a:	71a0      	strb	r0, [r4, #6]
   24f2c:	0c08      	lsrs	r0, r1, #16
   24f2e:	7160      	strb	r0, [r4, #5]
   24f30:	0a08      	lsrs	r0, r1, #8
   24f32:	7120      	strb	r0, [r4, #4]
   24f34:	70e1      	strb	r1, [r4, #3]
   24f36:	1de0      	adds	r0, r4, #7
   24f38:	222d      	movs	r2, #45	@ 0x2d
   24f3a:	990b      	ldr	r1, [sp, #44]	@ 0x2c
   24f3c:	f002 f9ad 	bl	2729a <__aeabi_memcpy>
   24f40:	4d04      	ldr	r5, [pc, #16]	@ (24f54 <_start+0xd1c>)
   24f42:	446d      	add	r5, sp
   24f44:	4628      	mov	r0, r5
   24f46:	4621      	mov	r1, r4
   24f48:	f7fb f8cc 	bl	200e4 <_ZN20complex_full_dynamic3app17h07bfe356ab334fdbE>
   24f4c:	7828      	ldrb	r0, [r5, #0]
   24f4e:	2801      	cmp	r0, #1
   24f50:	d104      	bne.n	24f5c <_start+0xd24>
   24f52:	e446      	b.n	247e2 <_start+0x5aa>
   24f54:	00001404 	.word	0x00001404
   24f58:	000013a8 	.word	0x000013a8
   24f5c:	4816      	ldr	r0, [pc, #88]	@ (24fb8 <_start+0xd80>)
   24f5e:	4468      	add	r0, sp
   24f60:	78c1      	ldrb	r1, [r0, #3]
   24f62:	acec      	add	r4, sp, #944	@ 0x3b0
   24f64:	70a1      	strb	r1, [r4, #2]
   24f66:	7841      	ldrb	r1, [r0, #1]
   24f68:	7882      	ldrb	r2, [r0, #2]
   24f6a:	0212      	lsls	r2, r2, #8
   24f6c:	1851      	adds	r1, r2, r1
   24f6e:	8021      	strh	r1, [r4, #0]
   24f70:	3008      	adds	r0, #8
   24f72:	9908      	ldr	r1, [sp, #32]
   24f74:	6e09      	ldr	r1, [r1, #96]	@ 0x60
   24f76:	910a      	str	r1, [sp, #40]	@ 0x28
   24f78:	4b10      	ldr	r3, [pc, #64]	@ (24fbc <_start+0xd84>)
   24f7a:	446b      	add	r3, sp
   24f7c:	930b      	str	r3, [sp, #44]	@ 0x2c
   24f7e:	c866      	ldmia	r0!, {r1, r2, r5, r6}
   24f80:	c366      	stmia	r3!, {r1, r2, r5, r6}
   24f82:	8801      	ldrh	r1, [r0, #0]
   24f84:	8019      	strh	r1, [r3, #0]
   24f86:	7880      	ldrb	r0, [r0, #2]
   24f88:	7098      	strb	r0, [r3, #2]
   24f8a:	990a      	ldr	r1, [sp, #40]	@ 0x28
   24f8c:	0e08      	lsrs	r0, r1, #24
   24f8e:	71a0      	strb	r0, [r4, #6]
   24f90:	0c08      	lsrs	r0, r1, #16
   24f92:	7160      	strb	r0, [r4, #5]
   24f94:	0a08      	lsrs	r0, r1, #8
   24f96:	7120      	strb	r0, [r4, #4]
   24f98:	70e1      	strb	r1, [r4, #3]
   24f9a:	1de0      	adds	r0, r4, #7
   24f9c:	2213      	movs	r2, #19
   24f9e:	990b      	ldr	r1, [sp, #44]	@ 0x2c
   24fa0:	f002 f97b 	bl	2729a <__aeabi_memcpy>
   24fa4:	4d04      	ldr	r5, [pc, #16]	@ (24fb8 <_start+0xd80>)
   24fa6:	446d      	add	r5, sp
   24fa8:	4628      	mov	r0, r5
   24faa:	4621      	mov	r1, r4
   24fac:	f7fc fa4e 	bl	2144c <_ZN20complex_full_dynamic3app17h54b05852fb00cb02E>
   24fb0:	7828      	ldrb	r0, [r5, #0]
   24fb2:	2801      	cmp	r0, #1
   24fb4:	d104      	bne.n	24fc0 <_start+0xd88>
   24fb6:	e414      	b.n	247e2 <_start+0x5aa>
   24fb8:	00001404 	.word	0x00001404
   24fbc:	000013a8 	.word	0x000013a8
   24fc0:	4915      	ldr	r1, [pc, #84]	@ (25018 <_start+0xde0>)
   24fc2:	4469      	add	r1, sp
   24fc4:	78c8      	ldrb	r0, [r1, #3]
   24fc6:	acf3      	add	r4, sp, #972	@ 0x3cc
   24fc8:	70a0      	strb	r0, [r4, #2]
   24fca:	7848      	ldrb	r0, [r1, #1]
   24fcc:	788a      	ldrb	r2, [r1, #2]
   24fce:	0212      	lsls	r2, r2, #8
   24fd0:	1810      	adds	r0, r2, r0
   24fd2:	8020      	strh	r0, [r4, #0]
   24fd4:	9808      	ldr	r0, [sp, #32]
   24fd6:	6e05      	ldr	r5, [r0, #96]	@ 0x60
   24fd8:	3108      	adds	r1, #8
   24fda:	4810      	ldr	r0, [pc, #64]	@ (2501c <_start+0xde4>)
   24fdc:	4468      	add	r0, sp
   24fde:	900b      	str	r0, [sp, #44]	@ 0x2c
   24fe0:	2649      	movs	r6, #73	@ 0x49
   24fe2:	4632      	mov	r2, r6
   24fe4:	f001 fff9 	bl	26fda <__aeabi_memcpy4>
   24fe8:	0e28      	lsrs	r0, r5, #24
   24fea:	71a0      	strb	r0, [r4, #6]
   24fec:	0c28      	lsrs	r0, r5, #16
   24fee:	7160      	strb	r0, [r4, #5]
   24ff0:	0a28      	lsrs	r0, r5, #8
   24ff2:	7120      	strb	r0, [r4, #4]
   24ff4:	70e5      	strb	r5, [r4, #3]
   24ff6:	1de0      	adds	r0, r4, #7
   24ff8:	990b      	ldr	r1, [sp, #44]	@ 0x2c
   24ffa:	4632      	mov	r2, r6
   24ffc:	f002 f94d 	bl	2729a <__aeabi_memcpy>
   25000:	4d05      	ldr	r5, [pc, #20]	@ (25018 <_start+0xde0>)
   25002:	446d      	add	r5, sp
   25004:	4628      	mov	r0, r5
   25006:	4621      	mov	r1, r4
   25008:	f7fc fc32 	bl	21870 <_ZN20complex_full_dynamic3app17h646dd3bc673c5429E>
   2500c:	7828      	ldrb	r0, [r5, #0]
   2500e:	2801      	cmp	r0, #1
   25010:	d106      	bne.n	25020 <_start+0xde8>
   25012:	f7ff fbe6 	bl	247e2 <_start+0x5aa>
   25016:	46c0      	nop			@ (mov r8, r8)
   25018:	00001404 	.word	0x00001404
   2501c:	000013a8 	.word	0x000013a8
   25020:	4819      	ldr	r0, [pc, #100]	@ (25088 <_start+0xe50>)
   25022:	4468      	add	r0, sp
   25024:	78c1      	ldrb	r1, [r0, #3]
   25026:	acff      	add	r4, sp, #1020	@ 0x3fc
   25028:	3420      	adds	r4, #32
   2502a:	70a1      	strb	r1, [r4, #2]
   2502c:	7841      	ldrb	r1, [r0, #1]
   2502e:	7882      	ldrb	r2, [r0, #2]
   25030:	0212      	lsls	r2, r2, #8
   25032:	1851      	adds	r1, r2, r1
   25034:	8021      	strh	r1, [r4, #0]
   25036:	3008      	adds	r0, #8
   25038:	9908      	ldr	r1, [sp, #32]
   2503a:	6e09      	ldr	r1, [r1, #96]	@ 0x60
   2503c:	910a      	str	r1, [sp, #40]	@ 0x28
   2503e:	4b13      	ldr	r3, [pc, #76]	@ (2508c <_start+0xe54>)
   25040:	446b      	add	r3, sp
   25042:	930b      	str	r3, [sp, #44]	@ 0x2c
   25044:	c864      	ldmia	r0!, {r2, r5, r6}
   25046:	c364      	stmia	r3!, {r2, r5, r6}
   25048:	c864      	ldmia	r0!, {r2, r5, r6}
   2504a:	c364      	stmia	r3!, {r2, r5, r6}
   2504c:	c864      	ldmia	r0!, {r2, r5, r6}
   2504e:	c364      	stmia	r3!, {r2, r5, r6}
   25050:	c866      	ldmia	r0!, {r1, r2, r5, r6}
   25052:	c366      	stmia	r3!, {r1, r2, r5, r6}
   25054:	7800      	ldrb	r0, [r0, #0]
   25056:	7018      	strb	r0, [r3, #0]
   25058:	990a      	ldr	r1, [sp, #40]	@ 0x28
   2505a:	0e08      	lsrs	r0, r1, #24
   2505c:	71a0      	strb	r0, [r4, #6]
   2505e:	0c08      	lsrs	r0, r1, #16
   25060:	7160      	strb	r0, [r4, #5]
   25062:	0a08      	lsrs	r0, r1, #8
   25064:	7120      	strb	r0, [r4, #4]
   25066:	70e1      	strb	r1, [r4, #3]
   25068:	1de0      	adds	r0, r4, #7
   2506a:	2235      	movs	r2, #53	@ 0x35
   2506c:	990b      	ldr	r1, [sp, #44]	@ 0x2c
   2506e:	f002 f914 	bl	2729a <__aeabi_memcpy>
   25072:	4d05      	ldr	r5, [pc, #20]	@ (25088 <_start+0xe50>)
   25074:	446d      	add	r5, sp
   25076:	4628      	mov	r0, r5
   25078:	4621      	mov	r1, r4
   2507a:	f7fc fcab 	bl	219d4 <_ZN20complex_full_dynamic3app17h6a7b8f2eadd0f754E>
   2507e:	7828      	ldrb	r0, [r5, #0]
   25080:	2801      	cmp	r0, #1
   25082:	d105      	bne.n	25090 <_start+0xe58>
   25084:	f7ff fbad 	bl	247e2 <_start+0x5aa>
   25088:	00001404 	.word	0x00001404
   2508c:	000013a8 	.word	0x000013a8
   25090:	4819      	ldr	r0, [pc, #100]	@ (250f8 <_start+0xec0>)
   25092:	4468      	add	r0, sp
   25094:	78c1      	ldrb	r1, [r0, #3]
   25096:	acff      	add	r4, sp, #1020	@ 0x3fc
   25098:	345c      	adds	r4, #92	@ 0x5c
   2509a:	70a1      	strb	r1, [r4, #2]
   2509c:	7841      	ldrb	r1, [r0, #1]
   2509e:	7882      	ldrb	r2, [r0, #2]
   250a0:	0212      	lsls	r2, r2, #8
   250a2:	1851      	adds	r1, r2, r1
   250a4:	8021      	strh	r1, [r4, #0]
   250a6:	3008      	adds	r0, #8
   250a8:	9908      	ldr	r1, [sp, #32]
   250aa:	6e09      	ldr	r1, [r1, #96]	@ 0x60
   250ac:	910a      	str	r1, [sp, #40]	@ 0x28
   250ae:	4b13      	ldr	r3, [pc, #76]	@ (250fc <_start+0xec4>)
   250b0:	446b      	add	r3, sp
   250b2:	930b      	str	r3, [sp, #44]	@ 0x2c
   250b4:	c864      	ldmia	r0!, {r2, r5, r6}
   250b6:	c364      	stmia	r3!, {r2, r5, r6}
   250b8:	c864      	ldmia	r0!, {r2, r5, r6}
   250ba:	c364      	stmia	r3!, {r2, r5, r6}
   250bc:	c866      	ldmia	r0!, {r1, r2, r5, r6}
   250be:	c366      	stmia	r3!, {r1, r2, r5, r6}
   250c0:	8801      	ldrh	r1, [r0, #0]
   250c2:	8019      	strh	r1, [r3, #0]
   250c4:	7880      	ldrb	r0, [r0, #2]
   250c6:	7098      	strb	r0, [r3, #2]
   250c8:	990a      	ldr	r1, [sp, #40]	@ 0x28
   250ca:	0e08      	lsrs	r0, r1, #24
   250cc:	71a0      	strb	r0, [r4, #6]
   250ce:	0c08      	lsrs	r0, r1, #16
   250d0:	7160      	strb	r0, [r4, #5]
   250d2:	0a08      	lsrs	r0, r1, #8
   250d4:	7120      	strb	r0, [r4, #4]
   250d6:	70e1      	strb	r1, [r4, #3]
   250d8:	1de0      	adds	r0, r4, #7
   250da:	222b      	movs	r2, #43	@ 0x2b
   250dc:	990b      	ldr	r1, [sp, #44]	@ 0x2c
   250de:	f002 f8dc 	bl	2729a <__aeabi_memcpy>
   250e2:	4d05      	ldr	r5, [pc, #20]	@ (250f8 <_start+0xec0>)
   250e4:	446d      	add	r5, sp
   250e6:	4628      	mov	r0, r5
   250e8:	4621      	mov	r1, r4
   250ea:	f7fd fbc5 	bl	22878 <_ZN20complex_full_dynamic3app17h97ac16da199a31afE>
   250ee:	7828      	ldrb	r0, [r5, #0]
   250f0:	2801      	cmp	r0, #1
   250f2:	d105      	bne.n	25100 <_start+0xec8>
   250f4:	f7ff fb75 	bl	247e2 <_start+0x5aa>
   250f8:	00001404 	.word	0x00001404
   250fc:	000013a8 	.word	0x000013a8
   25100:	4819      	ldr	r0, [pc, #100]	@ (25168 <_start+0xf30>)
   25102:	4468      	add	r0, sp
   25104:	78c1      	ldrb	r1, [r0, #3]
   25106:	acff      	add	r4, sp, #1020	@ 0x3fc
   25108:	3490      	adds	r4, #144	@ 0x90
   2510a:	70a1      	strb	r1, [r4, #2]
   2510c:	7841      	ldrb	r1, [r0, #1]
   2510e:	7882      	ldrb	r2, [r0, #2]
   25110:	0212      	lsls	r2, r2, #8
   25112:	1851      	adds	r1, r2, r1
   25114:	8021      	strh	r1, [r4, #0]
   25116:	3008      	adds	r0, #8
   25118:	9908      	ldr	r1, [sp, #32]
   2511a:	6e09      	ldr	r1, [r1, #96]	@ 0x60
   2511c:	910a      	str	r1, [sp, #40]	@ 0x28
   2511e:	4b13      	ldr	r3, [pc, #76]	@ (2516c <_start+0xf34>)
   25120:	446b      	add	r3, sp
   25122:	930b      	str	r3, [sp, #44]	@ 0x2c
   25124:	c864      	ldmia	r0!, {r2, r5, r6}
   25126:	c364      	stmia	r3!, {r2, r5, r6}
   25128:	c864      	ldmia	r0!, {r2, r5, r6}
   2512a:	c364      	stmia	r3!, {r2, r5, r6}
   2512c:	c866      	ldmia	r0!, {r1, r2, r5, r6}
   2512e:	c366      	stmia	r3!, {r1, r2, r5, r6}
   25130:	8801      	ldrh	r1, [r0, #0]
   25132:	8019      	strh	r1, [r3, #0]
   25134:	7880      	ldrb	r0, [r0, #2]
   25136:	7098      	strb	r0, [r3, #2]
   25138:	990a      	ldr	r1, [sp, #40]	@ 0x28
   2513a:	0e08      	lsrs	r0, r1, #24
   2513c:	71a0      	strb	r0, [r4, #6]
   2513e:	0c08      	lsrs	r0, r1, #16
   25140:	7160      	strb	r0, [r4, #5]
   25142:	0a08      	lsrs	r0, r1, #8
   25144:	7120      	strb	r0, [r4, #4]
   25146:	70e1      	strb	r1, [r4, #3]
   25148:	1de0      	adds	r0, r4, #7
   2514a:	222b      	movs	r2, #43	@ 0x2b
   2514c:	990b      	ldr	r1, [sp, #44]	@ 0x2c
   2514e:	f002 f8a4 	bl	2729a <__aeabi_memcpy>
   25152:	4d05      	ldr	r5, [pc, #20]	@ (25168 <_start+0xf30>)
   25154:	446d      	add	r5, sp
   25156:	4628      	mov	r0, r5
   25158:	4621      	mov	r1, r4
   2515a:	f7fb fe01 	bl	20d60 <_ZN20complex_full_dynamic3app17h3043ae643e6d7294E>
   2515e:	7828      	ldrb	r0, [r5, #0]
   25160:	2801      	cmp	r0, #1
   25162:	d105      	bne.n	25170 <_start+0xf38>
   25164:	f7ff fb3d 	bl	247e2 <_start+0x5aa>
   25168:	00001404 	.word	0x00001404
   2516c:	000013a8 	.word	0x000013a8
   25170:	4914      	ldr	r1, [pc, #80]	@ (251c4 <_start+0xf8c>)
   25172:	4469      	add	r1, sp
   25174:	9b08      	ldr	r3, [sp, #32]
   25176:	6ed8      	ldr	r0, [r3, #108]	@ 0x6c
   25178:	7208      	strb	r0, [r1, #8]
   2517a:	4813      	ldr	r0, [pc, #76]	@ (251c8 <_start+0xf90>)
   2517c:	4468      	add	r0, sp
   2517e:	78c2      	ldrb	r2, [r0, #3]
   25180:	acff      	add	r4, sp, #1020	@ 0x3fc
   25182:	34c4      	adds	r4, #196	@ 0xc4
   25184:	70a2      	strb	r2, [r4, #2]
   25186:	7842      	ldrb	r2, [r0, #1]
   25188:	7880      	ldrb	r0, [r0, #2]
   2518a:	0200      	lsls	r0, r0, #8
   2518c:	1880      	adds	r0, r0, r2
   2518e:	8020      	strh	r0, [r4, #0]
   25190:	6e18      	ldr	r0, [r3, #96]	@ 0x60
   25192:	70e0      	strb	r0, [r4, #3]
   25194:	0e02      	lsrs	r2, r0, #24
   25196:	71a2      	strb	r2, [r4, #6]
   25198:	0c02      	lsrs	r2, r0, #16
   2519a:	7162      	strb	r2, [r4, #5]
   2519c:	0a00      	lsrs	r0, r0, #8
   2519e:	7120      	strb	r0, [r4, #4]
   251a0:	6e58      	ldr	r0, [r3, #100]	@ 0x64
   251a2:	6e9a      	ldr	r2, [r3, #104]	@ 0x68
   251a4:	c305      	stmia	r3!, {r0, r2}
   251a6:	1de0      	adds	r0, r4, #7
   251a8:	2209      	movs	r2, #9
   251aa:	f002 f876 	bl	2729a <__aeabi_memcpy>
   251ae:	4d06      	ldr	r5, [pc, #24]	@ (251c8 <_start+0xf90>)
   251b0:	446d      	add	r5, sp
   251b2:	4628      	mov	r0, r5
   251b4:	4621      	mov	r1, r4
   251b6:	f7fe fab5 	bl	23724 <_ZN20complex_full_dynamic3app17hcfd7e696088c041fE>
   251ba:	7828      	ldrb	r0, [r5, #0]
   251bc:	2801      	cmp	r0, #1
   251be:	d105      	bne.n	251cc <_start+0xf94>
   251c0:	f7ff fb0f 	bl	247e2 <_start+0x5aa>
   251c4:	000013a8 	.word	0x000013a8
   251c8:	00001404 	.word	0x00001404
   251cc:	4819      	ldr	r0, [pc, #100]	@ (25234 <_start+0xffc>)
   251ce:	4468      	add	r0, sp
   251d0:	78c1      	ldrb	r1, [r0, #3]
   251d2:	acff      	add	r4, sp, #1020	@ 0x3fc
   251d4:	34d4      	adds	r4, #212	@ 0xd4
   251d6:	70a1      	strb	r1, [r4, #2]
   251d8:	7841      	ldrb	r1, [r0, #1]
   251da:	7882      	ldrb	r2, [r0, #2]
   251dc:	0212      	lsls	r2, r2, #8
   251de:	1851      	adds	r1, r2, r1
   251e0:	8021      	strh	r1, [r4, #0]
   251e2:	3008      	adds	r0, #8
   251e4:	9908      	ldr	r1, [sp, #32]
   251e6:	6e09      	ldr	r1, [r1, #96]	@ 0x60
   251e8:	910a      	str	r1, [sp, #40]	@ 0x28
   251ea:	4b13      	ldr	r3, [pc, #76]	@ (25238 <_start+0x1000>)
   251ec:	446b      	add	r3, sp
   251ee:	930b      	str	r3, [sp, #44]	@ 0x2c
   251f0:	c864      	ldmia	r0!, {r2, r5, r6}
   251f2:	c364      	stmia	r3!, {r2, r5, r6}
   251f4:	c866      	ldmia	r0!, {r1, r2, r5, r6}
   251f6:	c366      	stmia	r3!, {r1, r2, r5, r6}
   251f8:	c866      	ldmia	r0!, {r1, r2, r5, r6}
   251fa:	c366      	stmia	r3!, {r1, r2, r5, r6}
   251fc:	8801      	ldrh	r1, [r0, #0]
   251fe:	8019      	strh	r1, [r3, #0]
   25200:	7880      	ldrb	r0, [r0, #2]
   25202:	7098      	strb	r0, [r3, #2]
   25204:	990a      	ldr	r1, [sp, #40]	@ 0x28
   25206:	0e08      	lsrs	r0, r1, #24
   25208:	71a0      	strb	r0, [r4, #6]
   2520a:	0c08      	lsrs	r0, r1, #16
   2520c:	7160      	strb	r0, [r4, #5]
   2520e:	0a08      	lsrs	r0, r1, #8
   25210:	7120      	strb	r0, [r4, #4]
   25212:	70e1      	strb	r1, [r4, #3]
   25214:	1de0      	adds	r0, r4, #7
   25216:	222f      	movs	r2, #47	@ 0x2f
   25218:	990b      	ldr	r1, [sp, #44]	@ 0x2c
   2521a:	f002 f83e 	bl	2729a <__aeabi_memcpy>
   2521e:	4d05      	ldr	r5, [pc, #20]	@ (25234 <_start+0xffc>)
   25220:	446d      	add	r5, sp
   25222:	4628      	mov	r0, r5
   25224:	4621      	mov	r1, r4
   25226:	f7fc f9c1 	bl	215ac <_ZN20complex_full_dynamic3app17h59b4c90939da7dafE>
   2522a:	7828      	ldrb	r0, [r5, #0]
   2522c:	2801      	cmp	r0, #1
   2522e:	d105      	bne.n	2523c <_start+0x1004>
   25230:	f7ff fad7 	bl	247e2 <_start+0x5aa>
   25234:	00001404 	.word	0x00001404
   25238:	000013a8 	.word	0x000013a8
   2523c:	9804      	ldr	r0, [sp, #16]
   2523e:	1cc0      	adds	r0, r0, #3
   25240:	4a16      	ldr	r2, [pc, #88]	@ (2529c <_start+0x1064>)
   25242:	446a      	add	r2, sp
   25244:	78d3      	ldrb	r3, [r2, #3]
   25246:	4916      	ldr	r1, [pc, #88]	@ (252a0 <_start+0x1068>)
   25248:	4469      	add	r1, sp
   2524a:	708b      	strb	r3, [r1, #2]
   2524c:	7853      	ldrb	r3, [r2, #1]
   2524e:	7892      	ldrb	r2, [r2, #2]
   25250:	0212      	lsls	r2, r2, #8
   25252:	18d2      	adds	r2, r2, r3
   25254:	800a      	strh	r2, [r1, #0]
   25256:	9c08      	ldr	r4, [sp, #32]
   25258:	3460      	adds	r4, #96	@ 0x60
   2525a:	cc1c      	ldmia	r4, {r2, r3, r4}
   2525c:	0e25      	lsrs	r5, r4, #24
   2525e:	72c5      	strb	r5, [r0, #11]
   25260:	0c25      	lsrs	r5, r4, #16
   25262:	7285      	strb	r5, [r0, #10]
   25264:	0a25      	lsrs	r5, r4, #8
   25266:	7245      	strb	r5, [r0, #9]
   25268:	7204      	strb	r4, [r0, #8]
   2526a:	0e1c      	lsrs	r4, r3, #24
   2526c:	71c4      	strb	r4, [r0, #7]
   2526e:	0c1c      	lsrs	r4, r3, #16
   25270:	7184      	strb	r4, [r0, #6]
   25272:	0a1c      	lsrs	r4, r3, #8
   25274:	7144      	strb	r4, [r0, #5]
   25276:	7103      	strb	r3, [r0, #4]
   25278:	0e13      	lsrs	r3, r2, #24
   2527a:	70c3      	strb	r3, [r0, #3]
   2527c:	0c13      	lsrs	r3, r2, #16
   2527e:	7083      	strb	r3, [r0, #2]
   25280:	0a13      	lsrs	r3, r2, #8
   25282:	7043      	strb	r3, [r0, #1]
   25284:	7002      	strb	r2, [r0, #0]
   25286:	4c05      	ldr	r4, [pc, #20]	@ (2529c <_start+0x1064>)
   25288:	446c      	add	r4, sp
   2528a:	4620      	mov	r0, r4
   2528c:	f7fd f98c 	bl	225a8 <_ZN20complex_full_dynamic3app17h8c8123f0ad30da9dE>
   25290:	7820      	ldrb	r0, [r4, #0]
   25292:	2801      	cmp	r0, #1
   25294:	d106      	bne.n	252a4 <_start+0x106c>
   25296:	f7ff faa4 	bl	247e2 <_start+0x5aa>
   2529a:	46c0      	nop			@ (mov r8, r8)
   2529c:	00001404 	.word	0x00001404
   252a0:	00000508 	.word	0x00000508
   252a4:	4813      	ldr	r0, [pc, #76]	@ (252f4 <_start+0x10bc>)
   252a6:	4468      	add	r0, sp
   252a8:	78c1      	ldrb	r1, [r0, #3]
   252aa:	4c13      	ldr	r4, [pc, #76]	@ (252f8 <_start+0x10c0>)
   252ac:	446c      	add	r4, sp
   252ae:	70a1      	strb	r1, [r4, #2]
   252b0:	7841      	ldrb	r1, [r0, #1]
   252b2:	7880      	ldrb	r0, [r0, #2]
   252b4:	0200      	lsls	r0, r0, #8
   252b6:	1840      	adds	r0, r0, r1
   252b8:	8020      	strh	r0, [r4, #0]
   252ba:	9e08      	ldr	r6, [sp, #32]
   252bc:	4633      	mov	r3, r6
   252be:	3360      	adds	r3, #96	@ 0x60
   252c0:	cb0f      	ldmia	r3, {r0, r1, r2, r3}
   252c2:	70e0      	strb	r0, [r4, #3]
   252c4:	0e05      	lsrs	r5, r0, #24
   252c6:	71a5      	strb	r5, [r4, #6]
   252c8:	0c05      	lsrs	r5, r0, #16
   252ca:	7165      	strb	r5, [r4, #5]
   252cc:	0a00      	lsrs	r0, r0, #8
   252ce:	7120      	strb	r0, [r4, #4]
   252d0:	c60e      	stmia	r6!, {r1, r2, r3}
   252d2:	1de0      	adds	r0, r4, #7
   252d4:	4909      	ldr	r1, [pc, #36]	@ (252fc <_start+0x10c4>)
   252d6:	4469      	add	r1, sp
   252d8:	220c      	movs	r2, #12
   252da:	f001 ffde 	bl	2729a <__aeabi_memcpy>
   252de:	4d05      	ldr	r5, [pc, #20]	@ (252f4 <_start+0x10bc>)
   252e0:	446d      	add	r5, sp
   252e2:	4628      	mov	r0, r5
   252e4:	4621      	mov	r1, r4
   252e6:	f7fe fc89 	bl	23bfc <_ZN20complex_full_dynamic3app17hdeac81679622e8eeE>
   252ea:	7828      	ldrb	r0, [r5, #0]
   252ec:	2801      	cmp	r0, #1
   252ee:	d107      	bne.n	25300 <_start+0x10c8>
   252f0:	f7ff fa77 	bl	247e2 <_start+0x5aa>
   252f4:	00001404 	.word	0x00001404
   252f8:	00000518 	.word	0x00000518
   252fc:	000013a8 	.word	0x000013a8
   25300:	4915      	ldr	r1, [pc, #84]	@ (25358 <_start+0x1120>)
   25302:	4469      	add	r1, sp
   25304:	78c8      	ldrb	r0, [r1, #3]
   25306:	4c15      	ldr	r4, [pc, #84]	@ (2535c <_start+0x1124>)
   25308:	446c      	add	r4, sp
   2530a:	70a0      	strb	r0, [r4, #2]
   2530c:	7848      	ldrb	r0, [r1, #1]
   2530e:	788a      	ldrb	r2, [r1, #2]
   25310:	0212      	lsls	r2, r2, #8
   25312:	1810      	adds	r0, r2, r0
   25314:	8020      	strh	r0, [r4, #0]
   25316:	9808      	ldr	r0, [sp, #32]
   25318:	6e05      	ldr	r5, [r0, #96]	@ 0x60
   2531a:	3108      	adds	r1, #8
   2531c:	4810      	ldr	r0, [pc, #64]	@ (25360 <_start+0x1128>)
   2531e:	4468      	add	r0, sp
   25320:	900b      	str	r0, [sp, #44]	@ 0x2c
   25322:	264e      	movs	r6, #78	@ 0x4e
   25324:	4632      	mov	r2, r6
   25326:	f001 fe58 	bl	26fda <__aeabi_memcpy4>
   2532a:	0e28      	lsrs	r0, r5, #24
   2532c:	71a0      	strb	r0, [r4, #6]
   2532e:	0c28      	lsrs	r0, r5, #16
   25330:	7160      	strb	r0, [r4, #5]
   25332:	0a28      	lsrs	r0, r5, #8
   25334:	7120      	strb	r0, [r4, #4]
   25336:	70e5      	strb	r5, [r4, #3]
   25338:	1de0      	adds	r0, r4, #7
   2533a:	990b      	ldr	r1, [sp, #44]	@ 0x2c
   2533c:	4632      	mov	r2, r6
   2533e:	f001 ffac 	bl	2729a <__aeabi_memcpy>
   25342:	4d05      	ldr	r5, [pc, #20]	@ (25358 <_start+0x1120>)
   25344:	446d      	add	r5, sp
   25346:	4628      	mov	r0, r5
   25348:	4621      	mov	r1, r4
   2534a:	f7fc fa37 	bl	217bc <_ZN20complex_full_dynamic3app17h645921fd8ddccc32E>
   2534e:	7828      	ldrb	r0, [r5, #0]
   25350:	2801      	cmp	r0, #1
   25352:	d107      	bne.n	25364 <_start+0x112c>
   25354:	f7ff fa45 	bl	247e2 <_start+0x5aa>
   25358:	00001404 	.word	0x00001404
   2535c:	0000052c 	.word	0x0000052c
   25360:	000013a8 	.word	0x000013a8
   25364:	4819      	ldr	r0, [pc, #100]	@ (253cc <_start+0x1194>)
   25366:	4468      	add	r0, sp
   25368:	78c1      	ldrb	r1, [r0, #3]
   2536a:	4c19      	ldr	r4, [pc, #100]	@ (253d0 <_start+0x1198>)
   2536c:	446c      	add	r4, sp
   2536e:	70a1      	strb	r1, [r4, #2]
   25370:	7841      	ldrb	r1, [r0, #1]
   25372:	7882      	ldrb	r2, [r0, #2]
   25374:	0212      	lsls	r2, r2, #8
   25376:	1851      	adds	r1, r2, r1
   25378:	8021      	strh	r1, [r4, #0]
   2537a:	3008      	adds	r0, #8
   2537c:	9908      	ldr	r1, [sp, #32]
   2537e:	6e09      	ldr	r1, [r1, #96]	@ 0x60
   25380:	910a      	str	r1, [sp, #40]	@ 0x28
   25382:	4b14      	ldr	r3, [pc, #80]	@ (253d4 <_start+0x119c>)
   25384:	446b      	add	r3, sp
   25386:	930b      	str	r3, [sp, #44]	@ 0x2c
   25388:	c864      	ldmia	r0!, {r2, r5, r6}
   2538a:	c364      	stmia	r3!, {r2, r5, r6}
   2538c:	c864      	ldmia	r0!, {r2, r5, r6}
   2538e:	c364      	stmia	r3!, {r2, r5, r6}
   25390:	c866      	ldmia	r0!, {r1, r2, r5, r6}
   25392:	c366      	stmia	r3!, {r1, r2, r5, r6}
   25394:	8801      	ldrh	r1, [r0, #0]
   25396:	8019      	strh	r1, [r3, #0]
   25398:	7880      	ldrb	r0, [r0, #2]
   2539a:	7098      	strb	r0, [r3, #2]
   2539c:	990a      	ldr	r1, [sp, #40]	@ 0x28
   2539e:	0e08      	lsrs	r0, r1, #24
   253a0:	71a0      	strb	r0, [r4, #6]
   253a2:	0c08      	lsrs	r0, r1, #16
   253a4:	7160      	strb	r0, [r4, #5]
   253a6:	0a08      	lsrs	r0, r1, #8
   253a8:	7120      	strb	r0, [r4, #4]
   253aa:	70e1      	strb	r1, [r4, #3]
   253ac:	1de0      	adds	r0, r4, #7
   253ae:	222b      	movs	r2, #43	@ 0x2b
   253b0:	990b      	ldr	r1, [sp, #44]	@ 0x2c
   253b2:	f001 ff72 	bl	2729a <__aeabi_memcpy>
   253b6:	4d05      	ldr	r5, [pc, #20]	@ (253cc <_start+0x1194>)
   253b8:	446d      	add	r5, sp
   253ba:	4628      	mov	r0, r5
   253bc:	4621      	mov	r1, r4
   253be:	f7fb fc1d 	bl	20bfc <_ZN20complex_full_dynamic3app17h2c7c99f5d940402dE>
   253c2:	7828      	ldrb	r0, [r5, #0]
   253c4:	2801      	cmp	r0, #1
   253c6:	d107      	bne.n	253d8 <_start+0x11a0>
   253c8:	f7ff fa0b 	bl	247e2 <_start+0x5aa>
   253cc:	00001404 	.word	0x00001404
   253d0:	00000584 	.word	0x00000584
   253d4:	000013a8 	.word	0x000013a8
   253d8:	4819      	ldr	r0, [pc, #100]	@ (25440 <_start+0x1208>)
   253da:	4468      	add	r0, sp
   253dc:	78c1      	ldrb	r1, [r0, #3]
   253de:	4c19      	ldr	r4, [pc, #100]	@ (25444 <_start+0x120c>)
   253e0:	446c      	add	r4, sp
   253e2:	70a1      	strb	r1, [r4, #2]
   253e4:	7841      	ldrb	r1, [r0, #1]
   253e6:	7882      	ldrb	r2, [r0, #2]
   253e8:	0212      	lsls	r2, r2, #8
   253ea:	1851      	adds	r1, r2, r1
   253ec:	8021      	strh	r1, [r4, #0]
   253ee:	3008      	adds	r0, #8
   253f0:	9908      	ldr	r1, [sp, #32]
   253f2:	6e09      	ldr	r1, [r1, #96]	@ 0x60
   253f4:	910a      	str	r1, [sp, #40]	@ 0x28
   253f6:	4b14      	ldr	r3, [pc, #80]	@ (25448 <_start+0x1210>)
   253f8:	446b      	add	r3, sp
   253fa:	930b      	str	r3, [sp, #44]	@ 0x2c
   253fc:	c864      	ldmia	r0!, {r2, r5, r6}
   253fe:	c364      	stmia	r3!, {r2, r5, r6}
   25400:	c866      	ldmia	r0!, {r1, r2, r5, r6}
   25402:	c366      	stmia	r3!, {r1, r2, r5, r6}
   25404:	c826      	ldmia	r0!, {r1, r2, r5}
   25406:	c326      	stmia	r3!, {r1, r2, r5}
   25408:	c866      	ldmia	r0!, {r1, r2, r5, r6}
   2540a:	c366      	stmia	r3!, {r1, r2, r5, r6}
   2540c:	8800      	ldrh	r0, [r0, #0]
   2540e:	8018      	strh	r0, [r3, #0]
   25410:	990a      	ldr	r1, [sp, #40]	@ 0x28
   25412:	0e08      	lsrs	r0, r1, #24
   25414:	71a0      	strb	r0, [r4, #6]
   25416:	0c08      	lsrs	r0, r1, #16
   25418:	7160      	strb	r0, [r4, #5]
   2541a:	0a08      	lsrs	r0, r1, #8
   2541c:	7120      	strb	r0, [r4, #4]
   2541e:	70e1      	strb	r1, [r4, #3]
   25420:	1de0      	adds	r0, r4, #7
   25422:	223a      	movs	r2, #58	@ 0x3a
   25424:	990b      	ldr	r1, [sp, #44]	@ 0x2c
   25426:	f001 ff38 	bl	2729a <__aeabi_memcpy>
   2542a:	4d05      	ldr	r5, [pc, #20]	@ (25440 <_start+0x1208>)
   2542c:	446d      	add	r5, sp
   2542e:	4628      	mov	r0, r5
   25430:	4621      	mov	r1, r4
   25432:	f7fb fd45 	bl	20ec0 <_ZN20complex_full_dynamic3app17h327473164530ab28E>
   25436:	7828      	ldrb	r0, [r5, #0]
   25438:	2801      	cmp	r0, #1
   2543a:	d107      	bne.n	2544c <_start+0x1214>
   2543c:	f7ff f9d1 	bl	247e2 <_start+0x5aa>
   25440:	00001404 	.word	0x00001404
   25444:	000005b8 	.word	0x000005b8
   25448:	000013a8 	.word	0x000013a8
   2544c:	4817      	ldr	r0, [pc, #92]	@ (254ac <_start+0x1274>)
   2544e:	4468      	add	r0, sp
   25450:	78c1      	ldrb	r1, [r0, #3]
   25452:	4c17      	ldr	r4, [pc, #92]	@ (254b0 <_start+0x1278>)
   25454:	446c      	add	r4, sp
   25456:	70a1      	strb	r1, [r4, #2]
   25458:	7841      	ldrb	r1, [r0, #1]
   2545a:	7882      	ldrb	r2, [r0, #2]
   2545c:	0212      	lsls	r2, r2, #8
   2545e:	1851      	adds	r1, r2, r1
   25460:	8021      	strh	r1, [r4, #0]
   25462:	3008      	adds	r0, #8
   25464:	9908      	ldr	r1, [sp, #32]
   25466:	6e09      	ldr	r1, [r1, #96]	@ 0x60
   25468:	4b12      	ldr	r3, [pc, #72]	@ (254b4 <_start+0x127c>)
   2546a:	446b      	add	r3, sp
   2546c:	930b      	str	r3, [sp, #44]	@ 0x2c
   2546e:	c864      	ldmia	r0!, {r2, r5, r6}
   25470:	c364      	stmia	r3!, {r2, r5, r6}
   25472:	c864      	ldmia	r0!, {r2, r5, r6}
   25474:	c364      	stmia	r3!, {r2, r5, r6}
   25476:	8802      	ldrh	r2, [r0, #0]
   25478:	801a      	strh	r2, [r3, #0]
   2547a:	7880      	ldrb	r0, [r0, #2]
   2547c:	7098      	strb	r0, [r3, #2]
   2547e:	0e08      	lsrs	r0, r1, #24
   25480:	71a0      	strb	r0, [r4, #6]
   25482:	0c08      	lsrs	r0, r1, #16
   25484:	7160      	strb	r0, [r4, #5]
   25486:	0a08      	lsrs	r0, r1, #8
   25488:	7120      	strb	r0, [r4, #4]
   2548a:	70e1      	strb	r1, [r4, #3]
   2548c:	1de0      	adds	r0, r4, #7
   2548e:	221b      	movs	r2, #27
   25490:	990b      	ldr	r1, [sp, #44]	@ 0x2c
   25492:	f001 ff02 	bl	2729a <__aeabi_memcpy>
   25496:	4d05      	ldr	r5, [pc, #20]	@ (254ac <_start+0x1274>)
   25498:	446d      	add	r5, sp
   2549a:	4628      	mov	r0, r5
   2549c:	4621      	mov	r1, r4
   2549e:	f7fa fed3 	bl	20248 <_ZN20complex_full_dynamic3app17h0b4c16d7c21d379eE>
   254a2:	7828      	ldrb	r0, [r5, #0]
   254a4:	2801      	cmp	r0, #1
   254a6:	d107      	bne.n	254b8 <_start+0x1280>
   254a8:	f7ff f99b 	bl	247e2 <_start+0x5aa>
   254ac:	00001404 	.word	0x00001404
   254b0:	000005fc 	.word	0x000005fc
   254b4:	000013a8 	.word	0x000013a8
   254b8:	4915      	ldr	r1, [pc, #84]	@ (25510 <_start+0x12d8>)
   254ba:	4469      	add	r1, sp
   254bc:	78c8      	ldrb	r0, [r1, #3]
   254be:	4c15      	ldr	r4, [pc, #84]	@ (25514 <_start+0x12dc>)
   254c0:	446c      	add	r4, sp
   254c2:	70a0      	strb	r0, [r4, #2]
   254c4:	7848      	ldrb	r0, [r1, #1]
   254c6:	788a      	ldrb	r2, [r1, #2]
   254c8:	0212      	lsls	r2, r2, #8
   254ca:	1810      	adds	r0, r2, r0
   254cc:	8020      	strh	r0, [r4, #0]
   254ce:	9808      	ldr	r0, [sp, #32]
   254d0:	6e05      	ldr	r5, [r0, #96]	@ 0x60
   254d2:	3108      	adds	r1, #8
   254d4:	4810      	ldr	r0, [pc, #64]	@ (25518 <_start+0x12e0>)
   254d6:	4468      	add	r0, sp
   254d8:	900b      	str	r0, [sp, #44]	@ 0x2c
   254da:	264a      	movs	r6, #74	@ 0x4a
   254dc:	4632      	mov	r2, r6
   254de:	f001 fd7c 	bl	26fda <__aeabi_memcpy4>
   254e2:	0e28      	lsrs	r0, r5, #24
   254e4:	71a0      	strb	r0, [r4, #6]
   254e6:	0c28      	lsrs	r0, r5, #16
   254e8:	7160      	strb	r0, [r4, #5]
   254ea:	0a28      	lsrs	r0, r5, #8
   254ec:	7120      	strb	r0, [r4, #4]
   254ee:	70e5      	strb	r5, [r4, #3]
   254f0:	1de0      	adds	r0, r4, #7
   254f2:	990b      	ldr	r1, [sp, #44]	@ 0x2c
   254f4:	4632      	mov	r2, r6
   254f6:	f001 fed0 	bl	2729a <__aeabi_memcpy>
   254fa:	4d05      	ldr	r5, [pc, #20]	@ (25510 <_start+0x12d8>)
   254fc:	446d      	add	r5, sp
   254fe:	4628      	mov	r0, r5
   25500:	4621      	mov	r1, r4
   25502:	f7fc fde7 	bl	220d4 <_ZN20complex_full_dynamic3app17h82057d507b32e205E>
   25506:	7828      	ldrb	r0, [r5, #0]
   25508:	2801      	cmp	r0, #1
   2550a:	d107      	bne.n	2551c <_start+0x12e4>
   2550c:	f7ff f969 	bl	247e2 <_start+0x5aa>
   25510:	00001404 	.word	0x00001404
   25514:	00000620 	.word	0x00000620
   25518:	000013a8 	.word	0x000013a8
   2551c:	4915      	ldr	r1, [pc, #84]	@ (25574 <_start+0x133c>)
   2551e:	4469      	add	r1, sp
   25520:	78c8      	ldrb	r0, [r1, #3]
   25522:	4c15      	ldr	r4, [pc, #84]	@ (25578 <_start+0x1340>)
   25524:	446c      	add	r4, sp
   25526:	70a0      	strb	r0, [r4, #2]
   25528:	7848      	ldrb	r0, [r1, #1]
   2552a:	788a      	ldrb	r2, [r1, #2]
   2552c:	0212      	lsls	r2, r2, #8
   2552e:	1810      	adds	r0, r2, r0
   25530:	8020      	strh	r0, [r4, #0]
   25532:	9808      	ldr	r0, [sp, #32]
   25534:	6e05      	ldr	r5, [r0, #96]	@ 0x60
   25536:	3108      	adds	r1, #8
   25538:	4810      	ldr	r0, [pc, #64]	@ (2557c <_start+0x1344>)
   2553a:	4468      	add	r0, sp
   2553c:	900b      	str	r0, [sp, #44]	@ 0x2c
   2553e:	2648      	movs	r6, #72	@ 0x48
   25540:	4632      	mov	r2, r6
   25542:	f001 fd4a 	bl	26fda <__aeabi_memcpy4>
   25546:	0e28      	lsrs	r0, r5, #24
   25548:	71a0      	strb	r0, [r4, #6]
   2554a:	0c28      	lsrs	r0, r5, #16
   2554c:	7160      	strb	r0, [r4, #5]
   2554e:	0a28      	lsrs	r0, r5, #8
   25550:	7120      	strb	r0, [r4, #4]
   25552:	70e5      	strb	r5, [r4, #3]
   25554:	1de0      	adds	r0, r4, #7
   25556:	990b      	ldr	r1, [sp, #44]	@ 0x2c
   25558:	4632      	mov	r2, r6
   2555a:	f001 fe9e 	bl	2729a <__aeabi_memcpy>
   2555e:	4d05      	ldr	r5, [pc, #20]	@ (25574 <_start+0x133c>)
   25560:	446d      	add	r5, sp
   25562:	4628      	mov	r0, r5
   25564:	4621      	mov	r1, r4
   25566:	f7fb fa97 	bl	20a98 <_ZN20complex_full_dynamic3app17h263aa3621af79907E>
   2556a:	7828      	ldrb	r0, [r5, #0]
   2556c:	2801      	cmp	r0, #1
   2556e:	d107      	bne.n	25580 <_start+0x1348>
   25570:	f7ff f937 	bl	247e2 <_start+0x5aa>
   25574:	00001404 	.word	0x00001404
   25578:	00000674 	.word	0x00000674
   2557c:	000013a8 	.word	0x000013a8
   25580:	4818      	ldr	r0, [pc, #96]	@ (255e4 <_start+0x13ac>)
   25582:	4468      	add	r0, sp
   25584:	78c1      	ldrb	r1, [r0, #3]
   25586:	4c18      	ldr	r4, [pc, #96]	@ (255e8 <_start+0x13b0>)
   25588:	446c      	add	r4, sp
   2558a:	70a1      	strb	r1, [r4, #2]
   2558c:	7841      	ldrb	r1, [r0, #1]
   2558e:	7882      	ldrb	r2, [r0, #2]
   25590:	0212      	lsls	r2, r2, #8
   25592:	1851      	adds	r1, r2, r1
   25594:	8021      	strh	r1, [r4, #0]
   25596:	3008      	adds	r0, #8
   25598:	9908      	ldr	r1, [sp, #32]
   2559a:	6e09      	ldr	r1, [r1, #96]	@ 0x60
   2559c:	910a      	str	r1, [sp, #40]	@ 0x28
   2559e:	4b13      	ldr	r3, [pc, #76]	@ (255ec <_start+0x13b4>)
   255a0:	446b      	add	r3, sp
   255a2:	930b      	str	r3, [sp, #44]	@ 0x2c
   255a4:	c864      	ldmia	r0!, {r2, r5, r6}
   255a6:	c364      	stmia	r3!, {r2, r5, r6}
   255a8:	c864      	ldmia	r0!, {r2, r5, r6}
   255aa:	c364      	stmia	r3!, {r2, r5, r6}
   255ac:	c864      	ldmia	r0!, {r2, r5, r6}
   255ae:	c364      	stmia	r3!, {r2, r5, r6}
   255b0:	c866      	ldmia	r0!, {r1, r2, r5, r6}
   255b2:	c366      	stmia	r3!, {r1, r2, r5, r6}
   255b4:	990a      	ldr	r1, [sp, #40]	@ 0x28
   255b6:	0e08      	lsrs	r0, r1, #24
   255b8:	71a0      	strb	r0, [r4, #6]
   255ba:	0c08      	lsrs	r0, r1, #16
   255bc:	7160      	strb	r0, [r4, #5]
   255be:	0a08      	lsrs	r0, r1, #8
   255c0:	7120      	strb	r0, [r4, #4]
   255c2:	70e1      	strb	r1, [r4, #3]
   255c4:	1de0      	adds	r0, r4, #7
   255c6:	2234      	movs	r2, #52	@ 0x34
   255c8:	990b      	ldr	r1, [sp, #44]	@ 0x2c
   255ca:	f001 fe66 	bl	2729a <__aeabi_memcpy>
   255ce:	4d05      	ldr	r5, [pc, #20]	@ (255e4 <_start+0x13ac>)
   255d0:	446d      	add	r5, sp
   255d2:	4628      	mov	r0, r5
   255d4:	4621      	mov	r1, r4
   255d6:	f7fe fd25 	bl	24024 <_ZN20complex_full_dynamic3app17hf984ffa678b0309aE>
   255da:	7828      	ldrb	r0, [r5, #0]
   255dc:	2801      	cmp	r0, #1
   255de:	d107      	bne.n	255f0 <_start+0x13b8>
   255e0:	f7ff f8ff 	bl	247e2 <_start+0x5aa>
   255e4:	00001404 	.word	0x00001404
   255e8:	000006c4 	.word	0x000006c4
   255ec:	000013a8 	.word	0x000013a8
   255f0:	4816      	ldr	r0, [pc, #88]	@ (2564c <_start+0x1414>)
   255f2:	4468      	add	r0, sp
   255f4:	78c1      	ldrb	r1, [r0, #3]
   255f6:	4c16      	ldr	r4, [pc, #88]	@ (25650 <_start+0x1418>)
   255f8:	446c      	add	r4, sp
   255fa:	70a1      	strb	r1, [r4, #2]
   255fc:	7841      	ldrb	r1, [r0, #1]
   255fe:	7882      	ldrb	r2, [r0, #2]
   25600:	0212      	lsls	r2, r2, #8
   25602:	1851      	adds	r1, r2, r1
   25604:	8021      	strh	r1, [r4, #0]
   25606:	3008      	adds	r0, #8
   25608:	9908      	ldr	r1, [sp, #32]
   2560a:	6e09      	ldr	r1, [r1, #96]	@ 0x60
   2560c:	910a      	str	r1, [sp, #40]	@ 0x28
   2560e:	4b11      	ldr	r3, [pc, #68]	@ (25654 <_start+0x141c>)
   25610:	446b      	add	r3, sp
   25612:	930b      	str	r3, [sp, #44]	@ 0x2c
   25614:	c866      	ldmia	r0!, {r1, r2, r5, r6}
   25616:	c366      	stmia	r3!, {r1, r2, r5, r6}
   25618:	c866      	ldmia	r0!, {r1, r2, r5, r6}
   2561a:	c366      	stmia	r3!, {r1, r2, r5, r6}
   2561c:	990a      	ldr	r1, [sp, #40]	@ 0x28
   2561e:	0e08      	lsrs	r0, r1, #24
   25620:	71a0      	strb	r0, [r4, #6]
   25622:	0c08      	lsrs	r0, r1, #16
   25624:	7160      	strb	r0, [r4, #5]
   25626:	0a08      	lsrs	r0, r1, #8
   25628:	7120      	strb	r0, [r4, #4]
   2562a:	70e1      	strb	r1, [r4, #3]
   2562c:	1de0      	adds	r0, r4, #7
   2562e:	2220      	movs	r2, #32
   25630:	990b      	ldr	r1, [sp, #44]	@ 0x2c
   25632:	f001 fe32 	bl	2729a <__aeabi_memcpy>
   25636:	4d05      	ldr	r5, [pc, #20]	@ (2564c <_start+0x1414>)
   25638:	446d      	add	r5, sp
   2563a:	4628      	mov	r0, r5
   2563c:	4621      	mov	r1, r4
   2563e:	f7fb fcef 	bl	21020 <_ZN20complex_full_dynamic3app17h3f4bee66cb47259dE>
   25642:	7828      	ldrb	r0, [r5, #0]
   25644:	2801      	cmp	r0, #1
   25646:	d107      	bne.n	25658 <_start+0x1420>
   25648:	f7ff f8cb 	bl	247e2 <_start+0x5aa>
   2564c:	00001404 	.word	0x00001404
   25650:	00000700 	.word	0x00000700
   25654:	000013a8 	.word	0x000013a8
   25658:	4915      	ldr	r1, [pc, #84]	@ (256b0 <_start+0x1478>)
   2565a:	4469      	add	r1, sp
   2565c:	9d08      	ldr	r5, [sp, #32]
   2565e:	6f28      	ldr	r0, [r5, #112]	@ 0x70
   25660:	7308      	strb	r0, [r1, #12]
   25662:	4814      	ldr	r0, [pc, #80]	@ (256b4 <_start+0x147c>)
   25664:	4468      	add	r0, sp
   25666:	78c2      	ldrb	r2, [r0, #3]
   25668:	4c13      	ldr	r4, [pc, #76]	@ (256b8 <_start+0x1480>)
   2566a:	446c      	add	r4, sp
   2566c:	70a2      	strb	r2, [r4, #2]
   2566e:	7842      	ldrb	r2, [r0, #1]
   25670:	7880      	ldrb	r0, [r0, #2]
   25672:	0200      	lsls	r0, r0, #8
   25674:	1880      	adds	r0, r0, r2
   25676:	8020      	strh	r0, [r4, #0]
   25678:	6e28      	ldr	r0, [r5, #96]	@ 0x60
   2567a:	70e0      	strb	r0, [r4, #3]
   2567c:	0e02      	lsrs	r2, r0, #24
   2567e:	71a2      	strb	r2, [r4, #6]
   25680:	0c02      	lsrs	r2, r0, #16
   25682:	7162      	strb	r2, [r4, #5]
   25684:	0a00      	lsrs	r0, r0, #8
   25686:	7120      	strb	r0, [r4, #4]
   25688:	462b      	mov	r3, r5
   2568a:	3364      	adds	r3, #100	@ 0x64
   2568c:	cb0d      	ldmia	r3, {r0, r2, r3}
   2568e:	c50d      	stmia	r5!, {r0, r2, r3}
   25690:	1de0      	adds	r0, r4, #7
   25692:	220d      	movs	r2, #13
   25694:	f001 fe01 	bl	2729a <__aeabi_memcpy>
   25698:	4d06      	ldr	r5, [pc, #24]	@ (256b4 <_start+0x147c>)
   2569a:	446d      	add	r5, sp
   2569c:	4628      	mov	r0, r5
   2569e:	4621      	mov	r1, r4
   256a0:	f7fa ffe8 	bl	20674 <_ZN20complex_full_dynamic3app17h1ea591662889d8e2E>
   256a4:	7828      	ldrb	r0, [r5, #0]
   256a6:	2801      	cmp	r0, #1
   256a8:	d108      	bne.n	256bc <_start+0x1484>
   256aa:	f7ff f89a 	bl	247e2 <_start+0x5aa>
   256ae:	46c0      	nop			@ (mov r8, r8)
   256b0:	000013a8 	.word	0x000013a8
   256b4:	00001404 	.word	0x00001404
   256b8:	00000728 	.word	0x00000728
   256bc:	4816      	ldr	r0, [pc, #88]	@ (25718 <_start+0x14e0>)
   256be:	4468      	add	r0, sp
   256c0:	78c1      	ldrb	r1, [r0, #3]
   256c2:	4c16      	ldr	r4, [pc, #88]	@ (2571c <_start+0x14e4>)
   256c4:	446c      	add	r4, sp
   256c6:	70a1      	strb	r1, [r4, #2]
   256c8:	7841      	ldrb	r1, [r0, #1]
   256ca:	7882      	ldrb	r2, [r0, #2]
   256cc:	0212      	lsls	r2, r2, #8
   256ce:	1851      	adds	r1, r2, r1
   256d0:	8021      	strh	r1, [r4, #0]
   256d2:	3008      	adds	r0, #8
   256d4:	9908      	ldr	r1, [sp, #32]
   256d6:	6e09      	ldr	r1, [r1, #96]	@ 0x60
   256d8:	4b11      	ldr	r3, [pc, #68]	@ (25720 <_start+0x14e8>)
   256da:	446b      	add	r3, sp
   256dc:	930b      	str	r3, [sp, #44]	@ 0x2c
   256de:	c864      	ldmia	r0!, {r2, r5, r6}
   256e0:	c364      	stmia	r3!, {r2, r5, r6}
   256e2:	c864      	ldmia	r0!, {r2, r5, r6}
   256e4:	c364      	stmia	r3!, {r2, r5, r6}
   256e6:	c864      	ldmia	r0!, {r2, r5, r6}
   256e8:	c364      	stmia	r3!, {r2, r5, r6}
   256ea:	0e08      	lsrs	r0, r1, #24
   256ec:	71a0      	strb	r0, [r4, #6]
   256ee:	0c08      	lsrs	r0, r1, #16
   256f0:	7160      	strb	r0, [r4, #5]
   256f2:	0a08      	lsrs	r0, r1, #8
   256f4:	7120      	strb	r0, [r4, #4]
   256f6:	70e1      	strb	r1, [r4, #3]
   256f8:	1de0      	adds	r0, r4, #7
   256fa:	2224      	movs	r2, #36	@ 0x24
   256fc:	990b      	ldr	r1, [sp, #44]	@ 0x2c
   256fe:	f001 fdcc 	bl	2729a <__aeabi_memcpy>
   25702:	4d05      	ldr	r5, [pc, #20]	@ (25718 <_start+0x14e0>)
   25704:	446d      	add	r5, sp
   25706:	4628      	mov	r0, r5
   25708:	4621      	mov	r1, r4
   2570a:	f7fa fe4f 	bl	203ac <_ZN20complex_full_dynamic3app17h11d3b62c726e9aceE>
   2570e:	7828      	ldrb	r0, [r5, #0]
   25710:	2801      	cmp	r0, #1
   25712:	d107      	bne.n	25724 <_start+0x14ec>
   25714:	f7ff f865 	bl	247e2 <_start+0x5aa>
   25718:	00001404 	.word	0x00001404
   2571c:	0000073c 	.word	0x0000073c
   25720:	000013a8 	.word	0x000013a8
   25724:	4817      	ldr	r0, [pc, #92]	@ (25784 <_start+0x154c>)
   25726:	4468      	add	r0, sp
   25728:	78c1      	ldrb	r1, [r0, #3]
   2572a:	4c17      	ldr	r4, [pc, #92]	@ (25788 <_start+0x1550>)
   2572c:	446c      	add	r4, sp
   2572e:	70a1      	strb	r1, [r4, #2]
   25730:	7841      	ldrb	r1, [r0, #1]
   25732:	7882      	ldrb	r2, [r0, #2]
   25734:	0212      	lsls	r2, r2, #8
   25736:	1851      	adds	r1, r2, r1
   25738:	8021      	strh	r1, [r4, #0]
   2573a:	3008      	adds	r0, #8
   2573c:	9908      	ldr	r1, [sp, #32]
   2573e:	6e09      	ldr	r1, [r1, #96]	@ 0x60
   25740:	4b12      	ldr	r3, [pc, #72]	@ (2578c <_start+0x1554>)
   25742:	446b      	add	r3, sp
   25744:	930b      	str	r3, [sp, #44]	@ 0x2c
   25746:	c860      	ldmia	r0!, {r5, r6}
   25748:	c360      	stmia	r3!, {r5, r6}
   2574a:	c864      	ldmia	r0!, {r2, r5, r6}
   2574c:	c364      	stmia	r3!, {r2, r5, r6}
   2574e:	8802      	ldrh	r2, [r0, #0]
   25750:	801a      	strh	r2, [r3, #0]
   25752:	7880      	ldrb	r0, [r0, #2]
   25754:	7098      	strb	r0, [r3, #2]
   25756:	0e08      	lsrs	r0, r1, #24
   25758:	71a0      	strb	r0, [r4, #6]
   2575a:	0c08      	lsrs	r0, r1, #16
   2575c:	7160      	strb	r0, [r4, #5]
   2575e:	0a08      	lsrs	r0, r1, #8
   25760:	7120      	strb	r0, [r4, #4]
   25762:	70e1      	strb	r1, [r4, #3]
   25764:	1de0      	adds	r0, r4, #7
   25766:	2217      	movs	r2, #23
   25768:	990b      	ldr	r1, [sp, #44]	@ 0x2c
   2576a:	f001 fd96 	bl	2729a <__aeabi_memcpy>
   2576e:	4d05      	ldr	r5, [pc, #20]	@ (25784 <_start+0x154c>)
   25770:	446d      	add	r5, sp
   25772:	4628      	mov	r0, r5
   25774:	4621      	mov	r1, r4
   25776:	f7fb fdb9 	bl	212ec <_ZN20complex_full_dynamic3app17h4e4d8ec8e5e12336E>
   2577a:	7828      	ldrb	r0, [r5, #0]
   2577c:	2801      	cmp	r0, #1
   2577e:	d107      	bne.n	25790 <_start+0x1558>
   25780:	f7ff f82f 	bl	247e2 <_start+0x5aa>
   25784:	00001404 	.word	0x00001404
   25788:	00000768 	.word	0x00000768
   2578c:	000013a8 	.word	0x000013a8
   25790:	4915      	ldr	r1, [pc, #84]	@ (257e8 <_start+0x15b0>)
   25792:	4469      	add	r1, sp
   25794:	78c8      	ldrb	r0, [r1, #3]
   25796:	4c15      	ldr	r4, [pc, #84]	@ (257ec <_start+0x15b4>)
   25798:	446c      	add	r4, sp
   2579a:	70a0      	strb	r0, [r4, #2]
   2579c:	7848      	ldrb	r0, [r1, #1]
   2579e:	788a      	ldrb	r2, [r1, #2]
   257a0:	0212      	lsls	r2, r2, #8
   257a2:	1810      	adds	r0, r2, r0
   257a4:	8020      	strh	r0, [r4, #0]
   257a6:	9808      	ldr	r0, [sp, #32]
   257a8:	6e05      	ldr	r5, [r0, #96]	@ 0x60
   257aa:	3108      	adds	r1, #8
   257ac:	4810      	ldr	r0, [pc, #64]	@ (257f0 <_start+0x15b8>)
   257ae:	4468      	add	r0, sp
   257b0:	900b      	str	r0, [sp, #44]	@ 0x2c
   257b2:	264a      	movs	r6, #74	@ 0x4a
   257b4:	4632      	mov	r2, r6
   257b6:	f001 fc10 	bl	26fda <__aeabi_memcpy4>
   257ba:	0e28      	lsrs	r0, r5, #24
   257bc:	71a0      	strb	r0, [r4, #6]
   257be:	0c28      	lsrs	r0, r5, #16
   257c0:	7160      	strb	r0, [r4, #5]
   257c2:	0a28      	lsrs	r0, r5, #8
   257c4:	7120      	strb	r0, [r4, #4]
   257c6:	70e5      	strb	r5, [r4, #3]
   257c8:	1de0      	adds	r0, r4, #7
   257ca:	990b      	ldr	r1, [sp, #44]	@ 0x2c
   257cc:	4632      	mov	r2, r6
   257ce:	f001 fd64 	bl	2729a <__aeabi_memcpy>
   257d2:	4d05      	ldr	r5, [pc, #20]	@ (257e8 <_start+0x15b0>)
   257d4:	446d      	add	r5, sp
   257d6:	4628      	mov	r0, r5
   257d8:	4621      	mov	r1, r4
   257da:	f7fa fd8f 	bl	202fc <_ZN20complex_full_dynamic3app17h0d8cb5b99033d108E>
   257de:	7828      	ldrb	r0, [r5, #0]
   257e0:	2801      	cmp	r0, #1
   257e2:	d107      	bne.n	257f4 <_start+0x15bc>
   257e4:	f7fe fffd 	bl	247e2 <_start+0x5aa>
   257e8:	00001404 	.word	0x00001404
   257ec:	00000788 	.word	0x00000788
   257f0:	000013a8 	.word	0x000013a8
   257f4:	9805      	ldr	r0, [sp, #20]
   257f6:	1cc0      	adds	r0, r0, #3
   257f8:	4a16      	ldr	r2, [pc, #88]	@ (25854 <_start+0x161c>)
   257fa:	446a      	add	r2, sp
   257fc:	78d3      	ldrb	r3, [r2, #3]
   257fe:	4916      	ldr	r1, [pc, #88]	@ (25858 <_start+0x1620>)
   25800:	4469      	add	r1, sp
   25802:	708b      	strb	r3, [r1, #2]
   25804:	7853      	ldrb	r3, [r2, #1]
   25806:	7892      	ldrb	r2, [r2, #2]
   25808:	0212      	lsls	r2, r2, #8
   2580a:	18d2      	adds	r2, r2, r3
   2580c:	800a      	strh	r2, [r1, #0]
   2580e:	9c08      	ldr	r4, [sp, #32]
   25810:	3460      	adds	r4, #96	@ 0x60
   25812:	cc1c      	ldmia	r4, {r2, r3, r4}
   25814:	0e25      	lsrs	r5, r4, #24
   25816:	72c5      	strb	r5, [r0, #11]
   25818:	0c25      	lsrs	r5, r4, #16
   2581a:	7285      	strb	r5, [r0, #10]
   2581c:	0a25      	lsrs	r5, r4, #8
   2581e:	7245      	strb	r5, [r0, #9]
   25820:	7204      	strb	r4, [r0, #8]
   25822:	0e1c      	lsrs	r4, r3, #24
   25824:	71c4      	strb	r4, [r0, #7]
   25826:	0c1c      	lsrs	r4, r3, #16
   25828:	7184      	strb	r4, [r0, #6]
   2582a:	0a1c      	lsrs	r4, r3, #8
   2582c:	7144      	strb	r4, [r0, #5]
   2582e:	7103      	strb	r3, [r0, #4]
   25830:	0e13      	lsrs	r3, r2, #24
   25832:	70c3      	strb	r3, [r0, #3]
   25834:	0c13      	lsrs	r3, r2, #16
   25836:	7083      	strb	r3, [r0, #2]
   25838:	0a13      	lsrs	r3, r2, #8
   2583a:	7043      	strb	r3, [r0, #1]
   2583c:	7002      	strb	r2, [r0, #0]
   2583e:	4c05      	ldr	r4, [pc, #20]	@ (25854 <_start+0x161c>)
   25840:	446c      	add	r4, sp
   25842:	4620      	mov	r0, r4
   25844:	f7fc f920 	bl	21a88 <_ZN20complex_full_dynamic3app17h6f47a1eee1a862c3E>
   25848:	7820      	ldrb	r0, [r4, #0]
   2584a:	2801      	cmp	r0, #1
   2584c:	d106      	bne.n	2585c <_start+0x1624>
   2584e:	f7fe ffc8 	bl	247e2 <_start+0x5aa>
   25852:	46c0      	nop			@ (mov r8, r8)
   25854:	00001404 	.word	0x00001404
   25858:	000007dc 	.word	0x000007dc
   2585c:	481a      	ldr	r0, [pc, #104]	@ (258c8 <_start+0x1690>)
   2585e:	4468      	add	r0, sp
   25860:	78c1      	ldrb	r1, [r0, #3]
   25862:	4c1a      	ldr	r4, [pc, #104]	@ (258cc <_start+0x1694>)
   25864:	446c      	add	r4, sp
   25866:	70a1      	strb	r1, [r4, #2]
   25868:	7841      	ldrb	r1, [r0, #1]
   2586a:	7882      	ldrb	r2, [r0, #2]
   2586c:	0212      	lsls	r2, r2, #8
   2586e:	1851      	adds	r1, r2, r1
   25870:	8021      	strh	r1, [r4, #0]
   25872:	3008      	adds	r0, #8
   25874:	9908      	ldr	r1, [sp, #32]
   25876:	6e09      	ldr	r1, [r1, #96]	@ 0x60
   25878:	910a      	str	r1, [sp, #40]	@ 0x28
   2587a:	4b15      	ldr	r3, [pc, #84]	@ (258d0 <_start+0x1698>)
   2587c:	446b      	add	r3, sp
   2587e:	930b      	str	r3, [sp, #44]	@ 0x2c
   25880:	c864      	ldmia	r0!, {r2, r5, r6}
   25882:	c364      	stmia	r3!, {r2, r5, r6}
   25884:	c866      	ldmia	r0!, {r1, r2, r5, r6}
   25886:	c366      	stmia	r3!, {r1, r2, r5, r6}
   25888:	c866      	ldmia	r0!, {r1, r2, r5, r6}
   2588a:	c366      	stmia	r3!, {r1, r2, r5, r6}
   2588c:	c866      	ldmia	r0!, {r1, r2, r5, r6}
   2588e:	c366      	stmia	r3!, {r1, r2, r5, r6}
   25890:	8801      	ldrh	r1, [r0, #0]
   25892:	8019      	strh	r1, [r3, #0]
   25894:	7880      	ldrb	r0, [r0, #2]
   25896:	7098      	strb	r0, [r3, #2]
   25898:	990a      	ldr	r1, [sp, #40]	@ 0x28
   2589a:	0e08      	lsrs	r0, r1, #24
   2589c:	71a0      	strb	r0, [r4, #6]
   2589e:	0c08      	lsrs	r0, r1, #16
   258a0:	7160      	strb	r0, [r4, #5]
   258a2:	0a08      	lsrs	r0, r1, #8
   258a4:	7120      	strb	r0, [r4, #4]
   258a6:	70e1      	strb	r1, [r4, #3]
   258a8:	1de0      	adds	r0, r4, #7
   258aa:	223f      	movs	r2, #63	@ 0x3f
   258ac:	990b      	ldr	r1, [sp, #44]	@ 0x2c
   258ae:	f001 fcf4 	bl	2729a <__aeabi_memcpy>
   258b2:	4d05      	ldr	r5, [pc, #20]	@ (258c8 <_start+0x1690>)
   258b4:	446d      	add	r5, sp
   258b6:	4628      	mov	r0, r5
   258b8:	4621      	mov	r1, r4
   258ba:	f7fb fcbf 	bl	2123c <_ZN20complex_full_dynamic3app17h4c0560b2ab048383E>
   258be:	7828      	ldrb	r0, [r5, #0]
   258c0:	2801      	cmp	r0, #1
   258c2:	d107      	bne.n	258d4 <_start+0x169c>
   258c4:	f7fe ff8d 	bl	247e2 <_start+0x5aa>
   258c8:	00001404 	.word	0x00001404
   258cc:	000007ec 	.word	0x000007ec
   258d0:	000013a8 	.word	0x000013a8
   258d4:	4915      	ldr	r1, [pc, #84]	@ (2592c <_start+0x16f4>)
   258d6:	4469      	add	r1, sp
   258d8:	78c8      	ldrb	r0, [r1, #3]
   258da:	4c15      	ldr	r4, [pc, #84]	@ (25930 <_start+0x16f8>)
   258dc:	446c      	add	r4, sp
   258de:	70a0      	strb	r0, [r4, #2]
   258e0:	7848      	ldrb	r0, [r1, #1]
   258e2:	788a      	ldrb	r2, [r1, #2]
   258e4:	0212      	lsls	r2, r2, #8
   258e6:	1810      	adds	r0, r2, r0
   258e8:	8020      	strh	r0, [r4, #0]
   258ea:	9808      	ldr	r0, [sp, #32]
   258ec:	6e05      	ldr	r5, [r0, #96]	@ 0x60
   258ee:	3108      	adds	r1, #8
   258f0:	4810      	ldr	r0, [pc, #64]	@ (25934 <_start+0x16fc>)
   258f2:	4468      	add	r0, sp
   258f4:	900b      	str	r0, [sp, #44]	@ 0x2c
   258f6:	264f      	movs	r6, #79	@ 0x4f
   258f8:	4632      	mov	r2, r6
   258fa:	f001 fb6e 	bl	26fda <__aeabi_memcpy4>
   258fe:	0e28      	lsrs	r0, r5, #24
   25900:	71a0      	strb	r0, [r4, #6]
   25902:	0c28      	lsrs	r0, r5, #16
   25904:	7160      	strb	r0, [r4, #5]
   25906:	0a28      	lsrs	r0, r5, #8
   25908:	7120      	strb	r0, [r4, #4]
   2590a:	70e5      	strb	r5, [r4, #3]
   2590c:	1de0      	adds	r0, r4, #7
   2590e:	990b      	ldr	r1, [sp, #44]	@ 0x2c
   25910:	4632      	mov	r2, r6
   25912:	f001 fcc2 	bl	2729a <__aeabi_memcpy>
   25916:	4d05      	ldr	r5, [pc, #20]	@ (2592c <_start+0x16f4>)
   25918:	446d      	add	r5, sp
   2591a:	4628      	mov	r0, r5
   2591c:	4621      	mov	r1, r4
   2591e:	f7fc ff51 	bl	227c4 <_ZN20complex_full_dynamic3app17h95e219c10d454c46E>
   25922:	7828      	ldrb	r0, [r5, #0]
   25924:	2801      	cmp	r0, #1
   25926:	d107      	bne.n	25938 <_start+0x1700>
   25928:	f7fe ff5b 	bl	247e2 <_start+0x5aa>
   2592c:	00001404 	.word	0x00001404
   25930:	00000834 	.word	0x00000834
   25934:	000013a8 	.word	0x000013a8
   25938:	4915      	ldr	r1, [pc, #84]	@ (25990 <_start+0x1758>)
   2593a:	4469      	add	r1, sp
   2593c:	78c8      	ldrb	r0, [r1, #3]
   2593e:	4c15      	ldr	r4, [pc, #84]	@ (25994 <_start+0x175c>)
   25940:	446c      	add	r4, sp
   25942:	70a0      	strb	r0, [r4, #2]
   25944:	7848      	ldrb	r0, [r1, #1]
   25946:	788a      	ldrb	r2, [r1, #2]
   25948:	0212      	lsls	r2, r2, #8
   2594a:	1810      	adds	r0, r2, r0
   2594c:	8020      	strh	r0, [r4, #0]
   2594e:	9808      	ldr	r0, [sp, #32]
   25950:	6e05      	ldr	r5, [r0, #96]	@ 0x60
   25952:	3108      	adds	r1, #8
   25954:	4810      	ldr	r0, [pc, #64]	@ (25998 <_start+0x1760>)
   25956:	4468      	add	r0, sp
   25958:	900b      	str	r0, [sp, #44]	@ 0x2c
   2595a:	2642      	movs	r6, #66	@ 0x42
   2595c:	4632      	mov	r2, r6
   2595e:	f001 fb3c 	bl	26fda <__aeabi_memcpy4>
   25962:	0e28      	lsrs	r0, r5, #24
   25964:	71a0      	strb	r0, [r4, #6]
   25966:	0c28      	lsrs	r0, r5, #16
   25968:	7160      	strb	r0, [r4, #5]
   2596a:	0a28      	lsrs	r0, r5, #8
   2596c:	7120      	strb	r0, [r4, #4]
   2596e:	70e5      	strb	r5, [r4, #3]
   25970:	1de0      	adds	r0, r4, #7
   25972:	990b      	ldr	r1, [sp, #44]	@ 0x2c
   25974:	4632      	mov	r2, r6
   25976:	f001 fc90 	bl	2729a <__aeabi_memcpy>
   2597a:	4d05      	ldr	r5, [pc, #20]	@ (25990 <_start+0x1758>)
   2597c:	446d      	add	r5, sp
   2597e:	4628      	mov	r0, r5
   25980:	4621      	mov	r1, r4
   25982:	f7fc fec5 	bl	22710 <_ZN20complex_full_dynamic3app17h8fd576d5e4a0fac6E>
   25986:	7828      	ldrb	r0, [r5, #0]
   25988:	2801      	cmp	r0, #1
   2598a:	d107      	bne.n	2599c <_start+0x1764>
   2598c:	f7fe ff29 	bl	247e2 <_start+0x5aa>
   25990:	00001404 	.word	0x00001404
   25994:	0000088c 	.word	0x0000088c
   25998:	000013a8 	.word	0x000013a8
   2599c:	4816      	ldr	r0, [pc, #88]	@ (259f8 <_start+0x17c0>)
   2599e:	4468      	add	r0, sp
   259a0:	78c1      	ldrb	r1, [r0, #3]
   259a2:	4c16      	ldr	r4, [pc, #88]	@ (259fc <_start+0x17c4>)
   259a4:	446c      	add	r4, sp
   259a6:	70a1      	strb	r1, [r4, #2]
   259a8:	7841      	ldrb	r1, [r0, #1]
   259aa:	7882      	ldrb	r2, [r0, #2]
   259ac:	0212      	lsls	r2, r2, #8
   259ae:	1851      	adds	r1, r2, r1
   259b0:	8021      	strh	r1, [r4, #0]
   259b2:	3008      	adds	r0, #8
   259b4:	9908      	ldr	r1, [sp, #32]
   259b6:	6e09      	ldr	r1, [r1, #96]	@ 0x60
   259b8:	910a      	str	r1, [sp, #40]	@ 0x28
   259ba:	4b11      	ldr	r3, [pc, #68]	@ (25a00 <_start+0x17c8>)
   259bc:	446b      	add	r3, sp
   259be:	930b      	str	r3, [sp, #44]	@ 0x2c
   259c0:	c864      	ldmia	r0!, {r2, r5, r6}
   259c2:	c364      	stmia	r3!, {r2, r5, r6}
   259c4:	c866      	ldmia	r0!, {r1, r2, r5, r6}
   259c6:	c366      	stmia	r3!, {r1, r2, r5, r6}
   259c8:	990a      	ldr	r1, [sp, #40]	@ 0x28
   259ca:	0e08      	lsrs	r0, r1, #24
   259cc:	71a0      	strb	r0, [r4, #6]
   259ce:	0c08      	lsrs	r0, r1, #16
   259d0:	7160      	strb	r0, [r4, #5]
   259d2:	0a08      	lsrs	r0, r1, #8
   259d4:	7120      	strb	r0, [r4, #4]
   259d6:	70e1      	strb	r1, [r4, #3]
   259d8:	1de0      	adds	r0, r4, #7
   259da:	221c      	movs	r2, #28
   259dc:	990b      	ldr	r1, [sp, #44]	@ 0x2c
   259de:	f001 fc5c 	bl	2729a <__aeabi_memcpy>
   259e2:	4d05      	ldr	r5, [pc, #20]	@ (259f8 <_start+0x17c0>)
   259e4:	446d      	add	r5, sp
   259e6:	4628      	mov	r0, r5
   259e8:	4621      	mov	r1, r4
   259ea:	f7fd fd39 	bl	23460 <_ZN20complex_full_dynamic3app17hc1004e41b437f72cE>
   259ee:	7828      	ldrb	r0, [r5, #0]
   259f0:	2801      	cmp	r0, #1
   259f2:	d107      	bne.n	25a04 <_start+0x17cc>
   259f4:	f7fe fef5 	bl	247e2 <_start+0x5aa>
   259f8:	00001404 	.word	0x00001404
   259fc:	000008d8 	.word	0x000008d8
   25a00:	000013a8 	.word	0x000013a8
   25a04:	4816      	ldr	r0, [pc, #88]	@ (25a60 <_start+0x1828>)
   25a06:	4468      	add	r0, sp
   25a08:	78c1      	ldrb	r1, [r0, #3]
   25a0a:	4c16      	ldr	r4, [pc, #88]	@ (25a64 <_start+0x182c>)
   25a0c:	446c      	add	r4, sp
   25a0e:	70a1      	strb	r1, [r4, #2]
   25a10:	7841      	ldrb	r1, [r0, #1]
   25a12:	7882      	ldrb	r2, [r0, #2]
   25a14:	0212      	lsls	r2, r2, #8
   25a16:	1851      	adds	r1, r2, r1
   25a18:	8021      	strh	r1, [r4, #0]
   25a1a:	3008      	adds	r0, #8
   25a1c:	9908      	ldr	r1, [sp, #32]
   25a1e:	6e09      	ldr	r1, [r1, #96]	@ 0x60
   25a20:	4b11      	ldr	r3, [pc, #68]	@ (25a68 <_start+0x1830>)
   25a22:	446b      	add	r3, sp
   25a24:	930b      	str	r3, [sp, #44]	@ 0x2c
   25a26:	c864      	ldmia	r0!, {r2, r5, r6}
   25a28:	c364      	stmia	r3!, {r2, r5, r6}
   25a2a:	c864      	ldmia	r0!, {r2, r5, r6}
   25a2c:	c364      	stmia	r3!, {r2, r5, r6}
   25a2e:	c864      	ldmia	r0!, {r2, r5, r6}
   25a30:	c364      	stmia	r3!, {r2, r5, r6}
   25a32:	0e08      	lsrs	r0, r1, #24
   25a34:	71a0      	strb	r0, [r4, #6]
   25a36:	0c08      	lsrs	r0, r1, #16
   25a38:	7160      	strb	r0, [r4, #5]
   25a3a:	0a08      	lsrs	r0, r1, #8
   25a3c:	7120      	strb	r0, [r4, #4]
   25a3e:	70e1      	strb	r1, [r4, #3]
   25a40:	1de0      	adds	r0, r4, #7
   25a42:	2224      	movs	r2, #36	@ 0x24
   25a44:	990b      	ldr	r1, [sp, #44]	@ 0x2c
   25a46:	f001 fc28 	bl	2729a <__aeabi_memcpy>
   25a4a:	4d05      	ldr	r5, [pc, #20]	@ (25a60 <_start+0x1828>)
   25a4c:	446d      	add	r5, sp
   25a4e:	4628      	mov	r0, r5
   25a50:	4621      	mov	r1, r4
   25a52:	f7fc fae7 	bl	22024 <_ZN20complex_full_dynamic3app17h7ff56a9957702ef8E>
   25a56:	7828      	ldrb	r0, [r5, #0]
   25a58:	2801      	cmp	r0, #1
   25a5a:	d107      	bne.n	25a6c <_start+0x1834>
   25a5c:	f7fe fec1 	bl	247e2 <_start+0x5aa>
   25a60:	00001404 	.word	0x00001404
   25a64:	000008fc 	.word	0x000008fc
   25a68:	000013a8 	.word	0x000013a8
   25a6c:	4914      	ldr	r1, [pc, #80]	@ (25ac0 <_start+0x1888>)
   25a6e:	4469      	add	r1, sp
   25a70:	9b08      	ldr	r3, [sp, #32]
   25a72:	6e98      	ldr	r0, [r3, #104]	@ 0x68
   25a74:	8088      	strh	r0, [r1, #4]
   25a76:	4813      	ldr	r0, [pc, #76]	@ (25ac4 <_start+0x188c>)
   25a78:	4468      	add	r0, sp
   25a7a:	78c2      	ldrb	r2, [r0, #3]
   25a7c:	4c12      	ldr	r4, [pc, #72]	@ (25ac8 <_start+0x1890>)
   25a7e:	446c      	add	r4, sp
   25a80:	70a2      	strb	r2, [r4, #2]
   25a82:	7842      	ldrb	r2, [r0, #1]
   25a84:	7880      	ldrb	r0, [r0, #2]
   25a86:	0200      	lsls	r0, r0, #8
   25a88:	1880      	adds	r0, r0, r2
   25a8a:	8020      	strh	r0, [r4, #0]
   25a8c:	6e18      	ldr	r0, [r3, #96]	@ 0x60
   25a8e:	70e0      	strb	r0, [r4, #3]
   25a90:	0e02      	lsrs	r2, r0, #24
   25a92:	71a2      	strb	r2, [r4, #6]
   25a94:	0c02      	lsrs	r2, r0, #16
   25a96:	7162      	strb	r2, [r4, #5]
   25a98:	0a00      	lsrs	r0, r0, #8
   25a9a:	7120      	strb	r0, [r4, #4]
   25a9c:	6e58      	ldr	r0, [r3, #100]	@ 0x64
   25a9e:	6018      	str	r0, [r3, #0]
   25aa0:	1de0      	adds	r0, r4, #7
   25aa2:	2206      	movs	r2, #6
   25aa4:	f001 fbf9 	bl	2729a <__aeabi_memcpy>
   25aa8:	4d06      	ldr	r5, [pc, #24]	@ (25ac4 <_start+0x188c>)
   25aaa:	446d      	add	r5, sp
   25aac:	4628      	mov	r0, r5
   25aae:	4621      	mov	r1, r4
   25ab0:	f7fd fde0 	bl	23674 <_ZN20complex_full_dynamic3app17hca95bbff8d003b51E>
   25ab4:	7828      	ldrb	r0, [r5, #0]
   25ab6:	2801      	cmp	r0, #1
   25ab8:	d108      	bne.n	25acc <_start+0x1894>
   25aba:	f7fe fe92 	bl	247e2 <_start+0x5aa>
   25abe:	46c0      	nop			@ (mov r8, r8)
   25ac0:	000013a8 	.word	0x000013a8
   25ac4:	00001404 	.word	0x00001404
   25ac8:	00000928 	.word	0x00000928
   25acc:	4816      	ldr	r0, [pc, #88]	@ (25b28 <_start+0x18f0>)
   25ace:	4468      	add	r0, sp
   25ad0:	78c1      	ldrb	r1, [r0, #3]
   25ad2:	4c16      	ldr	r4, [pc, #88]	@ (25b2c <_start+0x18f4>)
   25ad4:	446c      	add	r4, sp
   25ad6:	70a1      	strb	r1, [r4, #2]
   25ad8:	7841      	ldrb	r1, [r0, #1]
   25ada:	7882      	ldrb	r2, [r0, #2]
   25adc:	0212      	lsls	r2, r2, #8
   25ade:	1851      	adds	r1, r2, r1
   25ae0:	8021      	strh	r1, [r4, #0]
   25ae2:	3008      	adds	r0, #8
   25ae4:	9908      	ldr	r1, [sp, #32]
   25ae6:	6e09      	ldr	r1, [r1, #96]	@ 0x60
   25ae8:	4b11      	ldr	r3, [pc, #68]	@ (25b30 <_start+0x18f8>)
   25aea:	446b      	add	r3, sp
   25aec:	930b      	str	r3, [sp, #44]	@ 0x2c
   25aee:	c864      	ldmia	r0!, {r2, r5, r6}
   25af0:	c364      	stmia	r3!, {r2, r5, r6}
   25af2:	c864      	ldmia	r0!, {r2, r5, r6}
   25af4:	c364      	stmia	r3!, {r2, r5, r6}
   25af6:	8800      	ldrh	r0, [r0, #0]
   25af8:	8018      	strh	r0, [r3, #0]
   25afa:	0e08      	lsrs	r0, r1, #24
   25afc:	71a0      	strb	r0, [r4, #6]
   25afe:	0c08      	lsrs	r0, r1, #16
   25b00:	7160      	strb	r0, [r4, #5]
   25b02:	0a08      	lsrs	r0, r1, #8
   25b04:	7120      	strb	r0, [r4, #4]
   25b06:	70e1      	strb	r1, [r4, #3]
   25b08:	1de0      	adds	r0, r4, #7
   25b0a:	221a      	movs	r2, #26
   25b0c:	990b      	ldr	r1, [sp, #44]	@ 0x2c
   25b0e:	f001 fbc4 	bl	2729a <__aeabi_memcpy>
   25b12:	4d05      	ldr	r5, [pc, #20]	@ (25b28 <_start+0x18f0>)
   25b14:	446d      	add	r5, sp
   25b16:	4628      	mov	r0, r5
   25b18:	4621      	mov	r1, r4
   25b1a:	f7fc fc93 	bl	22444 <_ZN20complex_full_dynamic3app17h84dcf915e103400fE>
   25b1e:	7828      	ldrb	r0, [r5, #0]
   25b20:	2801      	cmp	r0, #1
   25b22:	d107      	bne.n	25b34 <_start+0x18fc>
   25b24:	f7fe fe5d 	bl	247e2 <_start+0x5aa>
   25b28:	00001404 	.word	0x00001404
   25b2c:	00000938 	.word	0x00000938
   25b30:	000013a8 	.word	0x000013a8
   25b34:	4915      	ldr	r1, [pc, #84]	@ (25b8c <_start+0x1954>)
   25b36:	4469      	add	r1, sp
   25b38:	78c8      	ldrb	r0, [r1, #3]
   25b3a:	4c15      	ldr	r4, [pc, #84]	@ (25b90 <_start+0x1958>)
   25b3c:	446c      	add	r4, sp
   25b3e:	70a0      	strb	r0, [r4, #2]
   25b40:	7848      	ldrb	r0, [r1, #1]
   25b42:	788a      	ldrb	r2, [r1, #2]
   25b44:	0212      	lsls	r2, r2, #8
   25b46:	1810      	adds	r0, r2, r0
   25b48:	8020      	strh	r0, [r4, #0]
   25b4a:	9808      	ldr	r0, [sp, #32]
   25b4c:	6e05      	ldr	r5, [r0, #96]	@ 0x60
   25b4e:	3108      	adds	r1, #8
   25b50:	4810      	ldr	r0, [pc, #64]	@ (25b94 <_start+0x195c>)
   25b52:	4468      	add	r0, sp
   25b54:	900b      	str	r0, [sp, #44]	@ 0x2c
   25b56:	264c      	movs	r6, #76	@ 0x4c
   25b58:	4632      	mov	r2, r6
   25b5a:	f001 fa3e 	bl	26fda <__aeabi_memcpy4>
   25b5e:	0e28      	lsrs	r0, r5, #24
   25b60:	71a0      	strb	r0, [r4, #6]
   25b62:	0c28      	lsrs	r0, r5, #16
   25b64:	7160      	strb	r0, [r4, #5]
   25b66:	0a28      	lsrs	r0, r5, #8
   25b68:	7120      	strb	r0, [r4, #4]
   25b6a:	70e5      	strb	r5, [r4, #3]
   25b6c:	1de0      	adds	r0, r4, #7
   25b6e:	990b      	ldr	r1, [sp, #44]	@ 0x2c
   25b70:	4632      	mov	r2, r6
   25b72:	f001 fb92 	bl	2729a <__aeabi_memcpy>
   25b76:	4d05      	ldr	r5, [pc, #20]	@ (25b8c <_start+0x1954>)
   25b78:	446d      	add	r5, sp
   25b7a:	4628      	mov	r0, r5
   25b7c:	4621      	mov	r1, r4
   25b7e:	f7fa fe83 	bl	20888 <_ZN20complex_full_dynamic3app17h201c47aecfe5f491E>
   25b82:	7828      	ldrb	r0, [r5, #0]
   25b84:	2801      	cmp	r0, #1
   25b86:	d107      	bne.n	25b98 <_start+0x1960>
   25b88:	f7fe fe2b 	bl	247e2 <_start+0x5aa>
   25b8c:	00001404 	.word	0x00001404
   25b90:	0000095c 	.word	0x0000095c
   25b94:	000013a8 	.word	0x000013a8
   25b98:	4915      	ldr	r1, [pc, #84]	@ (25bf0 <_start+0x19b8>)
   25b9a:	4469      	add	r1, sp
   25b9c:	78c8      	ldrb	r0, [r1, #3]
   25b9e:	4c15      	ldr	r4, [pc, #84]	@ (25bf4 <_start+0x19bc>)
   25ba0:	446c      	add	r4, sp
   25ba2:	70a0      	strb	r0, [r4, #2]
   25ba4:	7848      	ldrb	r0, [r1, #1]
   25ba6:	788a      	ldrb	r2, [r1, #2]
   25ba8:	0212      	lsls	r2, r2, #8
   25baa:	1810      	adds	r0, r2, r0
   25bac:	8020      	strh	r0, [r4, #0]
   25bae:	9808      	ldr	r0, [sp, #32]
   25bb0:	6e05      	ldr	r5, [r0, #96]	@ 0x60
   25bb2:	3108      	adds	r1, #8
   25bb4:	4810      	ldr	r0, [pc, #64]	@ (25bf8 <_start+0x19c0>)
   25bb6:	4468      	add	r0, sp
   25bb8:	900b      	str	r0, [sp, #44]	@ 0x2c
   25bba:	2646      	movs	r6, #70	@ 0x46
   25bbc:	4632      	mov	r2, r6
   25bbe:	f001 fa0c 	bl	26fda <__aeabi_memcpy4>
   25bc2:	0e28      	lsrs	r0, r5, #24
   25bc4:	71a0      	strb	r0, [r4, #6]
   25bc6:	0c28      	lsrs	r0, r5, #16
   25bc8:	7160      	strb	r0, [r4, #5]
   25bca:	0a28      	lsrs	r0, r5, #8
   25bcc:	7120      	strb	r0, [r4, #4]
   25bce:	70e5      	strb	r5, [r4, #3]
   25bd0:	1de0      	adds	r0, r4, #7
   25bd2:	990b      	ldr	r1, [sp, #44]	@ 0x2c
   25bd4:	4632      	mov	r2, r6
   25bd6:	f001 fb60 	bl	2729a <__aeabi_memcpy>
   25bda:	4d05      	ldr	r5, [pc, #20]	@ (25bf0 <_start+0x19b8>)
   25bdc:	446d      	add	r5, sp
   25bde:	4628      	mov	r0, r5
   25be0:	4621      	mov	r1, r4
   25be2:	f7fe f8bd 	bl	23d60 <_ZN20complex_full_dynamic3app17hed03b19647873296E>
   25be6:	7828      	ldrb	r0, [r5, #0]
   25be8:	2801      	cmp	r0, #1
   25bea:	d107      	bne.n	25bfc <_start+0x19c4>
   25bec:	f7fe fdf9 	bl	247e2 <_start+0x5aa>
   25bf0:	00001404 	.word	0x00001404
   25bf4:	000009b0 	.word	0x000009b0
   25bf8:	000013a8 	.word	0x000013a8
   25bfc:	4819      	ldr	r0, [pc, #100]	@ (25c64 <_start+0x1a2c>)
   25bfe:	4468      	add	r0, sp
   25c00:	78c1      	ldrb	r1, [r0, #3]
   25c02:	4c19      	ldr	r4, [pc, #100]	@ (25c68 <_start+0x1a30>)
   25c04:	446c      	add	r4, sp
   25c06:	70a1      	strb	r1, [r4, #2]
   25c08:	7841      	ldrb	r1, [r0, #1]
   25c0a:	7882      	ldrb	r2, [r0, #2]
   25c0c:	0212      	lsls	r2, r2, #8
   25c0e:	1851      	adds	r1, r2, r1
   25c10:	8021      	strh	r1, [r4, #0]
   25c12:	3008      	adds	r0, #8
   25c14:	9908      	ldr	r1, [sp, #32]
   25c16:	6e09      	ldr	r1, [r1, #96]	@ 0x60
   25c18:	910a      	str	r1, [sp, #40]	@ 0x28
   25c1a:	4b14      	ldr	r3, [pc, #80]	@ (25c6c <_start+0x1a34>)
   25c1c:	446b      	add	r3, sp
   25c1e:	930b      	str	r3, [sp, #44]	@ 0x2c
   25c20:	c864      	ldmia	r0!, {r2, r5, r6}
   25c22:	c364      	stmia	r3!, {r2, r5, r6}
   25c24:	c864      	ldmia	r0!, {r2, r5, r6}
   25c26:	c364      	stmia	r3!, {r2, r5, r6}
   25c28:	c864      	ldmia	r0!, {r2, r5, r6}
   25c2a:	c364      	stmia	r3!, {r2, r5, r6}
   25c2c:	c866      	ldmia	r0!, {r1, r2, r5, r6}
   25c2e:	c366      	stmia	r3!, {r1, r2, r5, r6}
   25c30:	7800      	ldrb	r0, [r0, #0]
   25c32:	7018      	strb	r0, [r3, #0]
   25c34:	990a      	ldr	r1, [sp, #40]	@ 0x28
   25c36:	0e08      	lsrs	r0, r1, #24
   25c38:	71a0      	strb	r0, [r4, #6]
   25c3a:	0c08      	lsrs	r0, r1, #16
   25c3c:	7160      	strb	r0, [r4, #5]
   25c3e:	0a08      	lsrs	r0, r1, #8
   25c40:	7120      	strb	r0, [r4, #4]
   25c42:	70e1      	strb	r1, [r4, #3]
   25c44:	1de0      	adds	r0, r4, #7
   25c46:	2235      	movs	r2, #53	@ 0x35
   25c48:	990b      	ldr	r1, [sp, #44]	@ 0x2c
   25c4a:	f001 fb26 	bl	2729a <__aeabi_memcpy>
   25c4e:	4d05      	ldr	r5, [pc, #20]	@ (25c64 <_start+0x1a2c>)
   25c50:	446d      	add	r5, sp
   25c52:	4628      	mov	r0, r5
   25c54:	4621      	mov	r1, r4
   25c56:	f7fe f933 	bl	23ec0 <_ZN20complex_full_dynamic3app17hf1820fd3e3d405e9E>
   25c5a:	7828      	ldrb	r0, [r5, #0]
   25c5c:	2801      	cmp	r0, #1
   25c5e:	d107      	bne.n	25c70 <_start+0x1a38>
   25c60:	f7fe fdbf 	bl	247e2 <_start+0x5aa>
   25c64:	00001404 	.word	0x00001404
   25c68:	00000a00 	.word	0x00000a00
   25c6c:	000013a8 	.word	0x000013a8
   25c70:	4818      	ldr	r0, [pc, #96]	@ (25cd4 <_start+0x1a9c>)
   25c72:	4468      	add	r0, sp
   25c74:	78c1      	ldrb	r1, [r0, #3]
   25c76:	4c18      	ldr	r4, [pc, #96]	@ (25cd8 <_start+0x1aa0>)
   25c78:	446c      	add	r4, sp
   25c7a:	70a1      	strb	r1, [r4, #2]
   25c7c:	7841      	ldrb	r1, [r0, #1]
   25c7e:	7882      	ldrb	r2, [r0, #2]
   25c80:	0212      	lsls	r2, r2, #8
   25c82:	1851      	adds	r1, r2, r1
   25c84:	8021      	strh	r1, [r4, #0]
   25c86:	3008      	adds	r0, #8
   25c88:	9908      	ldr	r1, [sp, #32]
   25c8a:	6e09      	ldr	r1, [r1, #96]	@ 0x60
   25c8c:	910a      	str	r1, [sp, #40]	@ 0x28
   25c8e:	4b13      	ldr	r3, [pc, #76]	@ (25cdc <_start+0x1aa4>)
   25c90:	446b      	add	r3, sp
   25c92:	930b      	str	r3, [sp, #44]	@ 0x2c
   25c94:	c866      	ldmia	r0!, {r1, r2, r5, r6}
   25c96:	c366      	stmia	r3!, {r1, r2, r5, r6}
   25c98:	c866      	ldmia	r0!, {r1, r2, r5, r6}
   25c9a:	c366      	stmia	r3!, {r1, r2, r5, r6}
   25c9c:	c866      	ldmia	r0!, {r1, r2, r5, r6}
   25c9e:	c366      	stmia	r3!, {r1, r2, r5, r6}
   25ca0:	7800      	ldrb	r0, [r0, #0]
   25ca2:	7018      	strb	r0, [r3, #0]
   25ca4:	990a      	ldr	r1, [sp, #40]	@ 0x28
   25ca6:	0e08      	lsrs	r0, r1, #24
   25ca8:	71a0      	strb	r0, [r4, #6]
   25caa:	0c08      	lsrs	r0, r1, #16
   25cac:	7160      	strb	r0, [r4, #5]
   25cae:	0a08      	lsrs	r0, r1, #8
   25cb0:	7120      	strb	r0, [r4, #4]
   25cb2:	70e1      	strb	r1, [r4, #3]
   25cb4:	1de0      	adds	r0, r4, #7
   25cb6:	2231      	movs	r2, #49	@ 0x31
   25cb8:	990b      	ldr	r1, [sp, #44]	@ 0x2c
   25cba:	f001 faee 	bl	2729a <__aeabi_memcpy>
   25cbe:	4d05      	ldr	r5, [pc, #20]	@ (25cd4 <_start+0x1a9c>)
   25cc0:	446d      	add	r5, sp
   25cc2:	4628      	mov	r0, r5
   25cc4:	4621      	mov	r1, r4
   25cc6:	f7fb fe2d 	bl	21924 <_ZN20complex_full_dynamic3app17h65f0d4511f8264c7E>
   25cca:	7828      	ldrb	r0, [r5, #0]
   25ccc:	2801      	cmp	r0, #1
   25cce:	d107      	bne.n	25ce0 <_start+0x1aa8>
   25cd0:	f7fe fd87 	bl	247e2 <_start+0x5aa>
   25cd4:	00001404 	.word	0x00001404
   25cd8:	00000a3c 	.word	0x00000a3c
   25cdc:	000013a8 	.word	0x000013a8
   25ce0:	4816      	ldr	r0, [pc, #88]	@ (25d3c <_start+0x1b04>)
   25ce2:	4468      	add	r0, sp
   25ce4:	78c1      	ldrb	r1, [r0, #3]
   25ce6:	4c16      	ldr	r4, [pc, #88]	@ (25d40 <_start+0x1b08>)
   25ce8:	446c      	add	r4, sp
   25cea:	70a1      	strb	r1, [r4, #2]
   25cec:	7841      	ldrb	r1, [r0, #1]
   25cee:	7882      	ldrb	r2, [r0, #2]
   25cf0:	0212      	lsls	r2, r2, #8
   25cf2:	1851      	adds	r1, r2, r1
   25cf4:	8021      	strh	r1, [r4, #0]
   25cf6:	3008      	adds	r0, #8
   25cf8:	9908      	ldr	r1, [sp, #32]
   25cfa:	6e09      	ldr	r1, [r1, #96]	@ 0x60
   25cfc:	910a      	str	r1, [sp, #40]	@ 0x28
   25cfe:	4b11      	ldr	r3, [pc, #68]	@ (25d44 <_start+0x1b0c>)
   25d00:	446b      	add	r3, sp
   25d02:	930b      	str	r3, [sp, #44]	@ 0x2c
   25d04:	c866      	ldmia	r0!, {r1, r2, r5, r6}
   25d06:	c366      	stmia	r3!, {r1, r2, r5, r6}
   25d08:	c866      	ldmia	r0!, {r1, r2, r5, r6}
   25d0a:	c366      	stmia	r3!, {r1, r2, r5, r6}
   25d0c:	990a      	ldr	r1, [sp, #40]	@ 0x28
   25d0e:	0e08      	lsrs	r0, r1, #24
   25d10:	71a0      	strb	r0, [r4, #6]
   25d12:	0c08      	lsrs	r0, r1, #16
   25d14:	7160      	strb	r0, [r4, #5]
   25d16:	0a08      	lsrs	r0, r1, #8
   25d18:	7120      	strb	r0, [r4, #4]
   25d1a:	70e1      	strb	r1, [r4, #3]
   25d1c:	1de0      	adds	r0, r4, #7
   25d1e:	2220      	movs	r2, #32
   25d20:	990b      	ldr	r1, [sp, #44]	@ 0x2c
   25d22:	f001 faba 	bl	2729a <__aeabi_memcpy>
   25d26:	4d05      	ldr	r5, [pc, #20]	@ (25d3c <_start+0x1b04>)
   25d28:	446d      	add	r5, sp
   25d2a:	4628      	mov	r0, r5
   25d2c:	4621      	mov	r1, r4
   25d2e:	f7fa ffbf 	bl	20cb0 <_ZN20complex_full_dynamic3app17h2edf56487f88d202E>
   25d32:	7828      	ldrb	r0, [r5, #0]
   25d34:	2801      	cmp	r0, #1
   25d36:	d107      	bne.n	25d48 <_start+0x1b10>
   25d38:	f7fe fd53 	bl	247e2 <_start+0x5aa>
   25d3c:	00001404 	.word	0x00001404
   25d40:	00000a74 	.word	0x00000a74
   25d44:	000013a8 	.word	0x000013a8
   25d48:	4915      	ldr	r1, [pc, #84]	@ (25da0 <_start+0x1b68>)
   25d4a:	4469      	add	r1, sp
   25d4c:	78c8      	ldrb	r0, [r1, #3]
   25d4e:	4c15      	ldr	r4, [pc, #84]	@ (25da4 <_start+0x1b6c>)
   25d50:	446c      	add	r4, sp
   25d52:	70a0      	strb	r0, [r4, #2]
   25d54:	7848      	ldrb	r0, [r1, #1]
   25d56:	788a      	ldrb	r2, [r1, #2]
   25d58:	0212      	lsls	r2, r2, #8
   25d5a:	1810      	adds	r0, r2, r0
   25d5c:	8020      	strh	r0, [r4, #0]
   25d5e:	9808      	ldr	r0, [sp, #32]
   25d60:	6e05      	ldr	r5, [r0, #96]	@ 0x60
   25d62:	3108      	adds	r1, #8
   25d64:	4810      	ldr	r0, [pc, #64]	@ (25da8 <_start+0x1b70>)
   25d66:	4468      	add	r0, sp
   25d68:	900b      	str	r0, [sp, #44]	@ 0x2c
   25d6a:	264a      	movs	r6, #74	@ 0x4a
   25d6c:	4632      	mov	r2, r6
   25d6e:	f001 f934 	bl	26fda <__aeabi_memcpy4>
   25d72:	0e28      	lsrs	r0, r5, #24
   25d74:	71a0      	strb	r0, [r4, #6]
   25d76:	0c28      	lsrs	r0, r5, #16
   25d78:	7160      	strb	r0, [r4, #5]
   25d7a:	0a28      	lsrs	r0, r5, #8
   25d7c:	7120      	strb	r0, [r4, #4]
   25d7e:	70e5      	strb	r5, [r4, #3]
   25d80:	1de0      	adds	r0, r4, #7
   25d82:	990b      	ldr	r1, [sp, #44]	@ 0x2c
   25d84:	4632      	mov	r2, r6
   25d86:	f001 fa88 	bl	2729a <__aeabi_memcpy>
   25d8a:	4d05      	ldr	r5, [pc, #20]	@ (25da0 <_start+0x1b68>)
   25d8c:	446d      	add	r5, sp
   25d8e:	4628      	mov	r0, r5
   25d90:	4621      	mov	r1, r4
   25d92:	f7fc fe7d 	bl	22a90 <_ZN20complex_full_dynamic3app17h9b0467a0de049725E>
   25d96:	7828      	ldrb	r0, [r5, #0]
   25d98:	2801      	cmp	r0, #1
   25d9a:	d107      	bne.n	25dac <_start+0x1b74>
   25d9c:	f7fe fd21 	bl	247e2 <_start+0x5aa>
   25da0:	00001404 	.word	0x00001404
   25da4:	00000a9c 	.word	0x00000a9c
   25da8:	000013a8 	.word	0x000013a8
   25dac:	4915      	ldr	r1, [pc, #84]	@ (25e04 <_start+0x1bcc>)
   25dae:	4469      	add	r1, sp
   25db0:	78c8      	ldrb	r0, [r1, #3]
   25db2:	4c15      	ldr	r4, [pc, #84]	@ (25e08 <_start+0x1bd0>)
   25db4:	446c      	add	r4, sp
   25db6:	70a0      	strb	r0, [r4, #2]
   25db8:	7848      	ldrb	r0, [r1, #1]
   25dba:	788a      	ldrb	r2, [r1, #2]
   25dbc:	0212      	lsls	r2, r2, #8
   25dbe:	1810      	adds	r0, r2, r0
   25dc0:	8020      	strh	r0, [r4, #0]
   25dc2:	9808      	ldr	r0, [sp, #32]
   25dc4:	6e05      	ldr	r5, [r0, #96]	@ 0x60
   25dc6:	3108      	adds	r1, #8
   25dc8:	4810      	ldr	r0, [pc, #64]	@ (25e0c <_start+0x1bd4>)
   25dca:	4468      	add	r0, sp
   25dcc:	900b      	str	r0, [sp, #44]	@ 0x2c
   25dce:	2648      	movs	r6, #72	@ 0x48
   25dd0:	4632      	mov	r2, r6
   25dd2:	f001 f902 	bl	26fda <__aeabi_memcpy4>
   25dd6:	0e28      	lsrs	r0, r5, #24
   25dd8:	71a0      	strb	r0, [r4, #6]
   25dda:	0c28      	lsrs	r0, r5, #16
   25ddc:	7160      	strb	r0, [r4, #5]
   25dde:	0a28      	lsrs	r0, r5, #8
   25de0:	7120      	strb	r0, [r4, #4]
   25de2:	70e5      	strb	r5, [r4, #3]
   25de4:	1de0      	adds	r0, r4, #7
   25de6:	990b      	ldr	r1, [sp, #44]	@ 0x2c
   25de8:	4632      	mov	r2, r6
   25dea:	f001 fa56 	bl	2729a <__aeabi_memcpy>
   25dee:	4d05      	ldr	r5, [pc, #20]	@ (25e04 <_start+0x1bcc>)
   25df0:	446d      	add	r5, sp
   25df2:	4628      	mov	r0, r5
   25df4:	4621      	mov	r1, r4
   25df6:	f7fa fc95 	bl	20724 <_ZN20complex_full_dynamic3app17h1eeb73855ce67543E>
   25dfa:	7828      	ldrb	r0, [r5, #0]
   25dfc:	2801      	cmp	r0, #1
   25dfe:	d107      	bne.n	25e10 <_start+0x1bd8>
   25e00:	f7fe fcef 	bl	247e2 <_start+0x5aa>
   25e04:	00001404 	.word	0x00001404
   25e08:	00000af0 	.word	0x00000af0
   25e0c:	000013a8 	.word	0x000013a8
   25e10:	4915      	ldr	r1, [pc, #84]	@ (25e68 <_start+0x1c30>)
   25e12:	4469      	add	r1, sp
   25e14:	78c8      	ldrb	r0, [r1, #3]
   25e16:	4c15      	ldr	r4, [pc, #84]	@ (25e6c <_start+0x1c34>)
   25e18:	446c      	add	r4, sp
   25e1a:	70a0      	strb	r0, [r4, #2]
   25e1c:	7848      	ldrb	r0, [r1, #1]
   25e1e:	788a      	ldrb	r2, [r1, #2]
   25e20:	0212      	lsls	r2, r2, #8
   25e22:	1810      	adds	r0, r2, r0
   25e24:	8020      	strh	r0, [r4, #0]
   25e26:	9808      	ldr	r0, [sp, #32]
   25e28:	6e05      	ldr	r5, [r0, #96]	@ 0x60
   25e2a:	3108      	adds	r1, #8
   25e2c:	4810      	ldr	r0, [pc, #64]	@ (25e70 <_start+0x1c38>)
   25e2e:	4468      	add	r0, sp
   25e30:	900b      	str	r0, [sp, #44]	@ 0x2c
   25e32:	265a      	movs	r6, #90	@ 0x5a
   25e34:	4632      	mov	r2, r6
   25e36:	f001 f8d0 	bl	26fda <__aeabi_memcpy4>
   25e3a:	0e28      	lsrs	r0, r5, #24
   25e3c:	71a0      	strb	r0, [r4, #6]
   25e3e:	0c28      	lsrs	r0, r5, #16
   25e40:	7160      	strb	r0, [r4, #5]
   25e42:	0a28      	lsrs	r0, r5, #8
   25e44:	7120      	strb	r0, [r4, #4]
   25e46:	70e5      	strb	r5, [r4, #3]
   25e48:	1de0      	adds	r0, r4, #7
   25e4a:	990b      	ldr	r1, [sp, #44]	@ 0x2c
   25e4c:	4632      	mov	r2, r6
   25e4e:	f001 fa24 	bl	2729a <__aeabi_memcpy>
   25e52:	4d05      	ldr	r5, [pc, #20]	@ (25e68 <_start+0x1c30>)
   25e54:	446d      	add	r5, sp
   25e56:	4628      	mov	r0, r5
   25e58:	4621      	mov	r1, r4
   25e5a:	f7fb ff23 	bl	21ca4 <_ZN20complex_full_dynamic3app17h74cd4ae15d178461E>
   25e5e:	7828      	ldrb	r0, [r5, #0]
   25e60:	2801      	cmp	r0, #1
   25e62:	d107      	bne.n	25e74 <_start+0x1c3c>
   25e64:	f7fe fcbd 	bl	247e2 <_start+0x5aa>
   25e68:	00001404 	.word	0x00001404
   25e6c:	00000b40 	.word	0x00000b40
   25e70:	000013a8 	.word	0x000013a8
   25e74:	4817      	ldr	r0, [pc, #92]	@ (25ed4 <_start+0x1c9c>)
   25e76:	4468      	add	r0, sp
   25e78:	78c1      	ldrb	r1, [r0, #3]
   25e7a:	4c17      	ldr	r4, [pc, #92]	@ (25ed8 <_start+0x1ca0>)
   25e7c:	446c      	add	r4, sp
   25e7e:	70a1      	strb	r1, [r4, #2]
   25e80:	7841      	ldrb	r1, [r0, #1]
   25e82:	7882      	ldrb	r2, [r0, #2]
   25e84:	0212      	lsls	r2, r2, #8
   25e86:	1851      	adds	r1, r2, r1
   25e88:	8021      	strh	r1, [r4, #0]
   25e8a:	3008      	adds	r0, #8
   25e8c:	9908      	ldr	r1, [sp, #32]
   25e8e:	6e09      	ldr	r1, [r1, #96]	@ 0x60
   25e90:	4b12      	ldr	r3, [pc, #72]	@ (25edc <_start+0x1ca4>)
   25e92:	446b      	add	r3, sp
   25e94:	930b      	str	r3, [sp, #44]	@ 0x2c
   25e96:	c860      	ldmia	r0!, {r5, r6}
   25e98:	c360      	stmia	r3!, {r5, r6}
   25e9a:	c864      	ldmia	r0!, {r2, r5, r6}
   25e9c:	c364      	stmia	r3!, {r2, r5, r6}
   25e9e:	8802      	ldrh	r2, [r0, #0]
   25ea0:	801a      	strh	r2, [r3, #0]
   25ea2:	7880      	ldrb	r0, [r0, #2]
   25ea4:	7098      	strb	r0, [r3, #2]
   25ea6:	0e08      	lsrs	r0, r1, #24
   25ea8:	71a0      	strb	r0, [r4, #6]
   25eaa:	0c08      	lsrs	r0, r1, #16
   25eac:	7160      	strb	r0, [r4, #5]
   25eae:	0a08      	lsrs	r0, r1, #8
   25eb0:	7120      	strb	r0, [r4, #4]
   25eb2:	70e1      	strb	r1, [r4, #3]
   25eb4:	1de0      	adds	r0, r4, #7
   25eb6:	2217      	movs	r2, #23
   25eb8:	990b      	ldr	r1, [sp, #44]	@ 0x2c
   25eba:	f001 f9ee 	bl	2729a <__aeabi_memcpy>
   25ebe:	4d05      	ldr	r5, [pc, #20]	@ (25ed4 <_start+0x1c9c>)
   25ec0:	446d      	add	r5, sp
   25ec2:	4628      	mov	r0, r5
   25ec4:	4621      	mov	r1, r4
   25ec6:	f7fa fc85 	bl	207d4 <_ZN20complex_full_dynamic3app17h1f36716b9cce6f6fE>
   25eca:	7828      	ldrb	r0, [r5, #0]
   25ecc:	2801      	cmp	r0, #1
   25ece:	d107      	bne.n	25ee0 <_start+0x1ca8>
   25ed0:	f7fe fc87 	bl	247e2 <_start+0x5aa>
   25ed4:	00001404 	.word	0x00001404
   25ed8:	00000ba4 	.word	0x00000ba4
   25edc:	000013a8 	.word	0x000013a8
   25ee0:	4816      	ldr	r0, [pc, #88]	@ (25f3c <_start+0x1d04>)
   25ee2:	4468      	add	r0, sp
   25ee4:	78c1      	ldrb	r1, [r0, #3]
   25ee6:	4c16      	ldr	r4, [pc, #88]	@ (25f40 <_start+0x1d08>)
   25ee8:	446c      	add	r4, sp
   25eea:	70a1      	strb	r1, [r4, #2]
   25eec:	7841      	ldrb	r1, [r0, #1]
   25eee:	7882      	ldrb	r2, [r0, #2]
   25ef0:	0212      	lsls	r2, r2, #8
   25ef2:	1851      	adds	r1, r2, r1
   25ef4:	8021      	strh	r1, [r4, #0]
   25ef6:	3008      	adds	r0, #8
   25ef8:	9908      	ldr	r1, [sp, #32]
   25efa:	6e09      	ldr	r1, [r1, #96]	@ 0x60
   25efc:	4b11      	ldr	r3, [pc, #68]	@ (25f44 <_start+0x1d0c>)
   25efe:	446b      	add	r3, sp
   25f00:	930b      	str	r3, [sp, #44]	@ 0x2c
   25f02:	c864      	ldmia	r0!, {r2, r5, r6}
   25f04:	c364      	stmia	r3!, {r2, r5, r6}
   25f06:	c864      	ldmia	r0!, {r2, r5, r6}
   25f08:	c364      	stmia	r3!, {r2, r5, r6}
   25f0a:	8800      	ldrh	r0, [r0, #0]
   25f0c:	8018      	strh	r0, [r3, #0]
   25f0e:	0e08      	lsrs	r0, r1, #24
   25f10:	71a0      	strb	r0, [r4, #6]
   25f12:	0c08      	lsrs	r0, r1, #16
   25f14:	7160      	strb	r0, [r4, #5]
   25f16:	0a08      	lsrs	r0, r1, #8
   25f18:	7120      	strb	r0, [r4, #4]
   25f1a:	70e1      	strb	r1, [r4, #3]
   25f1c:	1de0      	adds	r0, r4, #7
   25f1e:	221a      	movs	r2, #26
   25f20:	990b      	ldr	r1, [sp, #44]	@ 0x2c
   25f22:	f001 f9ba 	bl	2729a <__aeabi_memcpy>
   25f26:	4d05      	ldr	r5, [pc, #20]	@ (25f3c <_start+0x1d04>)
   25f28:	446d      	add	r5, sp
   25f2a:	4628      	mov	r0, r5
   25f2c:	4621      	mov	r1, r4
   25f2e:	f7fa f933 	bl	20198 <_ZN20complex_full_dynamic3app17h0a4fe3f69e42776fE>
   25f32:	7828      	ldrb	r0, [r5, #0]
   25f34:	2801      	cmp	r0, #1
   25f36:	d107      	bne.n	25f48 <_start+0x1d10>
   25f38:	f7fe fc53 	bl	247e2 <_start+0x5aa>
   25f3c:	00001404 	.word	0x00001404
   25f40:	00000bc4 	.word	0x00000bc4
   25f44:	000013a8 	.word	0x000013a8
   25f48:	4818      	ldr	r0, [pc, #96]	@ (25fac <_start+0x1d74>)
   25f4a:	4468      	add	r0, sp
   25f4c:	78c1      	ldrb	r1, [r0, #3]
   25f4e:	4c18      	ldr	r4, [pc, #96]	@ (25fb0 <_start+0x1d78>)
   25f50:	446c      	add	r4, sp
   25f52:	70a1      	strb	r1, [r4, #2]
   25f54:	7841      	ldrb	r1, [r0, #1]
   25f56:	7882      	ldrb	r2, [r0, #2]
   25f58:	0212      	lsls	r2, r2, #8
   25f5a:	1851      	adds	r1, r2, r1
   25f5c:	8021      	strh	r1, [r4, #0]
   25f5e:	3008      	adds	r0, #8
   25f60:	9908      	ldr	r1, [sp, #32]
   25f62:	6e09      	ldr	r1, [r1, #96]	@ 0x60
   25f64:	910a      	str	r1, [sp, #40]	@ 0x28
   25f66:	4b13      	ldr	r3, [pc, #76]	@ (25fb4 <_start+0x1d7c>)
   25f68:	446b      	add	r3, sp
   25f6a:	930b      	str	r3, [sp, #44]	@ 0x2c
   25f6c:	c866      	ldmia	r0!, {r1, r2, r5, r6}
   25f6e:	c366      	stmia	r3!, {r1, r2, r5, r6}
   25f70:	c866      	ldmia	r0!, {r1, r2, r5, r6}
   25f72:	c366      	stmia	r3!, {r1, r2, r5, r6}
   25f74:	8801      	ldrh	r1, [r0, #0]
   25f76:	8019      	strh	r1, [r3, #0]
   25f78:	7880      	ldrb	r0, [r0, #2]
   25f7a:	7098      	strb	r0, [r3, #2]
   25f7c:	990a      	ldr	r1, [sp, #40]	@ 0x28
   25f7e:	0e08      	lsrs	r0, r1, #24
   25f80:	71a0      	strb	r0, [r4, #6]
   25f82:	0c08      	lsrs	r0, r1, #16
   25f84:	7160      	strb	r0, [r4, #5]
   25f86:	0a08      	lsrs	r0, r1, #8
   25f88:	7120      	strb	r0, [r4, #4]
   25f8a:	70e1      	strb	r1, [r4, #3]
   25f8c:	1de0      	adds	r0, r4, #7
   25f8e:	2223      	movs	r2, #35	@ 0x23
   25f90:	990b      	ldr	r1, [sp, #44]	@ 0x2c
   25f92:	f001 f982 	bl	2729a <__aeabi_memcpy>
   25f96:	4d05      	ldr	r5, [pc, #20]	@ (25fac <_start+0x1d74>)
   25f98:	446d      	add	r5, sp
   25f9a:	4628      	mov	r0, r5
   25f9c:	4621      	mov	r1, r4
   25f9e:	f7fd fc19 	bl	237d4 <_ZN20complex_full_dynamic3app17hd1ae38c889d59612E>
   25fa2:	7828      	ldrb	r0, [r5, #0]
   25fa4:	2801      	cmp	r0, #1
   25fa6:	d107      	bne.n	25fb8 <_start+0x1d80>
   25fa8:	f7fe fc1b 	bl	247e2 <_start+0x5aa>
   25fac:	00001404 	.word	0x00001404
   25fb0:	00000be8 	.word	0x00000be8
   25fb4:	000013a8 	.word	0x000013a8
   25fb8:	4915      	ldr	r1, [pc, #84]	@ (26010 <_start+0x1dd8>)
   25fba:	4469      	add	r1, sp
   25fbc:	78c8      	ldrb	r0, [r1, #3]
   25fbe:	4c15      	ldr	r4, [pc, #84]	@ (26014 <_start+0x1ddc>)
   25fc0:	446c      	add	r4, sp
   25fc2:	70a0      	strb	r0, [r4, #2]
   25fc4:	7848      	ldrb	r0, [r1, #1]
   25fc6:	788a      	ldrb	r2, [r1, #2]
   25fc8:	0212      	lsls	r2, r2, #8
   25fca:	1810      	adds	r0, r2, r0
   25fcc:	8020      	strh	r0, [r4, #0]
   25fce:	9808      	ldr	r0, [sp, #32]
   25fd0:	6e05      	ldr	r5, [r0, #96]	@ 0x60
   25fd2:	3108      	adds	r1, #8
   25fd4:	4810      	ldr	r0, [pc, #64]	@ (26018 <_start+0x1de0>)
   25fd6:	4468      	add	r0, sp
   25fd8:	900b      	str	r0, [sp, #44]	@ 0x2c
   25fda:	2652      	movs	r6, #82	@ 0x52
   25fdc:	4632      	mov	r2, r6
   25fde:	f000 fffc 	bl	26fda <__aeabi_memcpy4>
   25fe2:	0e28      	lsrs	r0, r5, #24
   25fe4:	71a0      	strb	r0, [r4, #6]
   25fe6:	0c28      	lsrs	r0, r5, #16
   25fe8:	7160      	strb	r0, [r4, #5]
   25fea:	0a28      	lsrs	r0, r5, #8
   25fec:	7120      	strb	r0, [r4, #4]
   25fee:	70e5      	strb	r5, [r4, #3]
   25ff0:	1de0      	adds	r0, r4, #7
   25ff2:	990b      	ldr	r1, [sp, #44]	@ 0x2c
   25ff4:	4632      	mov	r2, r6
   25ff6:	f001 f950 	bl	2729a <__aeabi_memcpy>
   25ffa:	4d05      	ldr	r5, [pc, #20]	@ (26010 <_start+0x1dd8>)
   25ffc:	446d      	add	r5, sp
   25ffe:	4628      	mov	r0, r5
   26000:	4621      	mov	r1, r4
   26002:	f7fd fd4b 	bl	23a9c <_ZN20complex_full_dynamic3app17hd9b17272ca915736E>
   26006:	7828      	ldrb	r0, [r5, #0]
   26008:	2801      	cmp	r0, #1
   2600a:	d107      	bne.n	2601c <_start+0x1de4>
   2600c:	f7fe fbe9 	bl	247e2 <_start+0x5aa>
   26010:	00001404 	.word	0x00001404
   26014:	00000c14 	.word	0x00000c14
   26018:	000013a8 	.word	0x000013a8
   2601c:	4915      	ldr	r1, [pc, #84]	@ (26074 <_start+0x1e3c>)
   2601e:	4469      	add	r1, sp
   26020:	78c8      	ldrb	r0, [r1, #3]
   26022:	4c15      	ldr	r4, [pc, #84]	@ (26078 <_start+0x1e40>)
   26024:	446c      	add	r4, sp
   26026:	70a0      	strb	r0, [r4, #2]
   26028:	7848      	ldrb	r0, [r1, #1]
   2602a:	788a      	ldrb	r2, [r1, #2]
   2602c:	0212      	lsls	r2, r2, #8
   2602e:	1810      	adds	r0, r2, r0
   26030:	8020      	strh	r0, [r4, #0]
   26032:	9808      	ldr	r0, [sp, #32]
   26034:	6e05      	ldr	r5, [r0, #96]	@ 0x60
   26036:	3108      	adds	r1, #8
   26038:	4810      	ldr	r0, [pc, #64]	@ (2607c <_start+0x1e44>)
   2603a:	4468      	add	r0, sp
   2603c:	900b      	str	r0, [sp, #44]	@ 0x2c
   2603e:	2643      	movs	r6, #67	@ 0x43
   26040:	4632      	mov	r2, r6
   26042:	f000 ffca 	bl	26fda <__aeabi_memcpy4>
   26046:	0e28      	lsrs	r0, r5, #24
   26048:	71a0      	strb	r0, [r4, #6]
   2604a:	0c28      	lsrs	r0, r5, #16
   2604c:	7160      	strb	r0, [r4, #5]
   2604e:	0a28      	lsrs	r0, r5, #8
   26050:	7120      	strb	r0, [r4, #4]
   26052:	70e5      	strb	r5, [r4, #3]
   26054:	1de0      	adds	r0, r4, #7
   26056:	990b      	ldr	r1, [sp, #44]	@ 0x2c
   26058:	4632      	mov	r2, r6
   2605a:	f001 f91e 	bl	2729a <__aeabi_memcpy>
   2605e:	4d05      	ldr	r5, [pc, #20]	@ (26074 <_start+0x1e3c>)
   26060:	446d      	add	r5, sp
   26062:	4628      	mov	r0, r5
   26064:	4621      	mov	r1, r4
   26066:	f7fb fa49 	bl	214fc <_ZN20complex_full_dynamic3app17h58de64f7484b25b0E>
   2606a:	7828      	ldrb	r0, [r5, #0]
   2606c:	2801      	cmp	r0, #1
   2606e:	d107      	bne.n	26080 <_start+0x1e48>
   26070:	f7fe fbb7 	bl	247e2 <_start+0x5aa>
   26074:	00001404 	.word	0x00001404
   26078:	00000c70 	.word	0x00000c70
   2607c:	000013a8 	.word	0x000013a8
   26080:	4817      	ldr	r0, [pc, #92]	@ (260e0 <_start+0x1ea8>)
   26082:	4468      	add	r0, sp
   26084:	78c1      	ldrb	r1, [r0, #3]
   26086:	4c17      	ldr	r4, [pc, #92]	@ (260e4 <_start+0x1eac>)
   26088:	446c      	add	r4, sp
   2608a:	70a1      	strb	r1, [r4, #2]
   2608c:	7841      	ldrb	r1, [r0, #1]
   2608e:	7882      	ldrb	r2, [r0, #2]
   26090:	0212      	lsls	r2, r2, #8
   26092:	1851      	adds	r1, r2, r1
   26094:	8021      	strh	r1, [r4, #0]
   26096:	3008      	adds	r0, #8
   26098:	9908      	ldr	r1, [sp, #32]
   2609a:	6e09      	ldr	r1, [r1, #96]	@ 0x60
   2609c:	4b12      	ldr	r3, [pc, #72]	@ (260e8 <_start+0x1eb0>)
   2609e:	446b      	add	r3, sp
   260a0:	930b      	str	r3, [sp, #44]	@ 0x2c
   260a2:	c864      	ldmia	r0!, {r2, r5, r6}
   260a4:	c364      	stmia	r3!, {r2, r5, r6}
   260a6:	c864      	ldmia	r0!, {r2, r5, r6}
   260a8:	c364      	stmia	r3!, {r2, r5, r6}
   260aa:	c864      	ldmia	r0!, {r2, r5, r6}
   260ac:	c364      	stmia	r3!, {r2, r5, r6}
   260ae:	8800      	ldrh	r0, [r0, #0]
   260b0:	8018      	strh	r0, [r3, #0]
   260b2:	0e08      	lsrs	r0, r1, #24
   260b4:	71a0      	strb	r0, [r4, #6]
   260b6:	0c08      	lsrs	r0, r1, #16
   260b8:	7160      	strb	r0, [r4, #5]
   260ba:	0a08      	lsrs	r0, r1, #8
   260bc:	7120      	strb	r0, [r4, #4]
   260be:	70e1      	strb	r1, [r4, #3]
   260c0:	1de0      	adds	r0, r4, #7
   260c2:	2226      	movs	r2, #38	@ 0x26
   260c4:	990b      	ldr	r1, [sp, #44]	@ 0x2c
   260c6:	f001 f8e8 	bl	2729a <__aeabi_memcpy>
   260ca:	4d05      	ldr	r5, [pc, #20]	@ (260e0 <_start+0x1ea8>)
   260cc:	446d      	add	r5, sp
   260ce:	4628      	mov	r0, r5
   260d0:	4621      	mov	r1, r4
   260d2:	f7fd fd3b 	bl	23b4c <_ZN20complex_full_dynamic3app17hdcb64908c5dee23fE>
   260d6:	7828      	ldrb	r0, [r5, #0]
   260d8:	2801      	cmp	r0, #1
   260da:	d107      	bne.n	260ec <_start+0x1eb4>
   260dc:	f7fe fb81 	bl	247e2 <_start+0x5aa>
   260e0:	00001404 	.word	0x00001404
   260e4:	00000cbc 	.word	0x00000cbc
   260e8:	000013a8 	.word	0x000013a8
   260ec:	4915      	ldr	r1, [pc, #84]	@ (26144 <_start+0x1f0c>)
   260ee:	4469      	add	r1, sp
   260f0:	78c8      	ldrb	r0, [r1, #3]
   260f2:	4c15      	ldr	r4, [pc, #84]	@ (26148 <_start+0x1f10>)
   260f4:	446c      	add	r4, sp
   260f6:	70a0      	strb	r0, [r4, #2]
   260f8:	7848      	ldrb	r0, [r1, #1]
   260fa:	788a      	ldrb	r2, [r1, #2]
   260fc:	0212      	lsls	r2, r2, #8
   260fe:	1810      	adds	r0, r2, r0
   26100:	8020      	strh	r0, [r4, #0]
   26102:	9808      	ldr	r0, [sp, #32]
   26104:	6e05      	ldr	r5, [r0, #96]	@ 0x60
   26106:	3108      	adds	r1, #8
   26108:	4810      	ldr	r0, [pc, #64]	@ (2614c <_start+0x1f14>)
   2610a:	4468      	add	r0, sp
   2610c:	900b      	str	r0, [sp, #44]	@ 0x2c
   2610e:	264c      	movs	r6, #76	@ 0x4c
   26110:	4632      	mov	r2, r6
   26112:	f000 ff62 	bl	26fda <__aeabi_memcpy4>
   26116:	0e28      	lsrs	r0, r5, #24
   26118:	71a0      	strb	r0, [r4, #6]
   2611a:	0c28      	lsrs	r0, r5, #16
   2611c:	7160      	strb	r0, [r4, #5]
   2611e:	0a28      	lsrs	r0, r5, #8
   26120:	7120      	strb	r0, [r4, #4]
   26122:	70e5      	strb	r5, [r4, #3]
   26124:	1de0      	adds	r0, r4, #7
   26126:	990b      	ldr	r1, [sp, #44]	@ 0x2c
   26128:	4632      	mov	r2, r6
   2612a:	f001 f8b6 	bl	2729a <__aeabi_memcpy>
   2612e:	4d05      	ldr	r5, [pc, #20]	@ (26144 <_start+0x1f0c>)
   26130:	446d      	add	r5, sp
   26132:	4628      	mov	r0, r5
   26134:	4621      	mov	r1, r4
   26136:	f7fc f9dd 	bl	224f4 <_ZN20complex_full_dynamic3app17h87a10a645078f0c9E>
   2613a:	7828      	ldrb	r0, [r5, #0]
   2613c:	2801      	cmp	r0, #1
   2613e:	d107      	bne.n	26150 <_start+0x1f18>
   26140:	f7fe fb4f 	bl	247e2 <_start+0x5aa>
   26144:	00001404 	.word	0x00001404
   26148:	00000cec 	.word	0x00000cec
   2614c:	000013a8 	.word	0x000013a8
   26150:	4819      	ldr	r0, [pc, #100]	@ (261b8 <_start+0x1f80>)
   26152:	4468      	add	r0, sp
   26154:	78c1      	ldrb	r1, [r0, #3]
   26156:	4c19      	ldr	r4, [pc, #100]	@ (261bc <_start+0x1f84>)
   26158:	446c      	add	r4, sp
   2615a:	70a1      	strb	r1, [r4, #2]
   2615c:	7841      	ldrb	r1, [r0, #1]
   2615e:	7882      	ldrb	r2, [r0, #2]
   26160:	0212      	lsls	r2, r2, #8
   26162:	1851      	adds	r1, r2, r1
   26164:	8021      	strh	r1, [r4, #0]
   26166:	3008      	adds	r0, #8
   26168:	9908      	ldr	r1, [sp, #32]
   2616a:	6e09      	ldr	r1, [r1, #96]	@ 0x60
   2616c:	910a      	str	r1, [sp, #40]	@ 0x28
   2616e:	4b14      	ldr	r3, [pc, #80]	@ (261c0 <_start+0x1f88>)
   26170:	446b      	add	r3, sp
   26172:	930b      	str	r3, [sp, #44]	@ 0x2c
   26174:	c866      	ldmia	r0!, {r1, r2, r5, r6}
   26176:	c366      	stmia	r3!, {r1, r2, r5, r6}
   26178:	c866      	ldmia	r0!, {r1, r2, r5, r6}
   2617a:	c366      	stmia	r3!, {r1, r2, r5, r6}
   2617c:	c866      	ldmia	r0!, {r1, r2, r5, r6}
   2617e:	c366      	stmia	r3!, {r1, r2, r5, r6}
   26180:	8801      	ldrh	r1, [r0, #0]
   26182:	8019      	strh	r1, [r3, #0]
   26184:	7880      	ldrb	r0, [r0, #2]
   26186:	7098      	strb	r0, [r3, #2]
   26188:	990a      	ldr	r1, [sp, #40]	@ 0x28
   2618a:	0e08      	lsrs	r0, r1, #24
   2618c:	71a0      	strb	r0, [r4, #6]
   2618e:	0c08      	lsrs	r0, r1, #16
   26190:	7160      	strb	r0, [r4, #5]
   26192:	0a08      	lsrs	r0, r1, #8
   26194:	7120      	strb	r0, [r4, #4]
   26196:	70e1      	strb	r1, [r4, #3]
   26198:	1de0      	adds	r0, r4, #7
   2619a:	2233      	movs	r2, #51	@ 0x33
   2619c:	990b      	ldr	r1, [sp, #44]	@ 0x2c
   2619e:	f001 f87c 	bl	2729a <__aeabi_memcpy>
   261a2:	4d05      	ldr	r5, [pc, #20]	@ (261b8 <_start+0x1f80>)
   261a4:	446d      	add	r5, sp
   261a6:	4628      	mov	r0, r5
   261a8:	4621      	mov	r1, r4
   261aa:	f7fd ff93 	bl	240d4 <_ZN20complex_full_dynamic3app17hfca55b653d4f8fe3E>
   261ae:	7828      	ldrb	r0, [r5, #0]
   261b0:	2801      	cmp	r0, #1
   261b2:	d107      	bne.n	261c4 <_start+0x1f8c>
   261b4:	f7fe fb15 	bl	247e2 <_start+0x5aa>
   261b8:	00001404 	.word	0x00001404
   261bc:	00000d40 	.word	0x00000d40
   261c0:	000013a8 	.word	0x000013a8
   261c4:	4915      	ldr	r1, [pc, #84]	@ (2621c <_start+0x1fe4>)
   261c6:	4469      	add	r1, sp
   261c8:	78c8      	ldrb	r0, [r1, #3]
   261ca:	4c15      	ldr	r4, [pc, #84]	@ (26220 <_start+0x1fe8>)
   261cc:	446c      	add	r4, sp
   261ce:	70a0      	strb	r0, [r4, #2]
   261d0:	7848      	ldrb	r0, [r1, #1]
   261d2:	788a      	ldrb	r2, [r1, #2]
   261d4:	0212      	lsls	r2, r2, #8
   261d6:	1810      	adds	r0, r2, r0
   261d8:	8020      	strh	r0, [r4, #0]
   261da:	9808      	ldr	r0, [sp, #32]
   261dc:	6e05      	ldr	r5, [r0, #96]	@ 0x60
   261de:	3108      	adds	r1, #8
   261e0:	4810      	ldr	r0, [pc, #64]	@ (26224 <_start+0x1fec>)
   261e2:	4468      	add	r0, sp
   261e4:	900b      	str	r0, [sp, #44]	@ 0x2c
   261e6:	2656      	movs	r6, #86	@ 0x56
   261e8:	4632      	mov	r2, r6
   261ea:	f000 fef6 	bl	26fda <__aeabi_memcpy4>
   261ee:	0e28      	lsrs	r0, r5, #24
   261f0:	71a0      	strb	r0, [r4, #6]
   261f2:	0c28      	lsrs	r0, r5, #16
   261f4:	7160      	strb	r0, [r4, #5]
   261f6:	0a28      	lsrs	r0, r5, #8
   261f8:	7120      	strb	r0, [r4, #4]
   261fa:	70e5      	strb	r5, [r4, #3]
   261fc:	1de0      	adds	r0, r4, #7
   261fe:	990b      	ldr	r1, [sp, #44]	@ 0x2c
   26200:	4632      	mov	r2, r6
   26202:	f001 f84a 	bl	2729a <__aeabi_memcpy>
   26206:	4d05      	ldr	r5, [pc, #20]	@ (2621c <_start+0x1fe4>)
   26208:	446d      	add	r5, sp
   2620a:	4628      	mov	r0, r5
   2620c:	4621      	mov	r1, r4
   2620e:	f7fd f81d 	bl	2324c <_ZN20complex_full_dynamic3app17hb6834925ae42d8eeE>
   26212:	7828      	ldrb	r0, [r5, #0]
   26214:	2801      	cmp	r0, #1
   26216:	d107      	bne.n	26228 <_start+0x1ff0>
   26218:	f7fe fae3 	bl	247e2 <_start+0x5aa>
   2621c:	00001404 	.word	0x00001404
   26220:	00000d7c 	.word	0x00000d7c
   26224:	000013a8 	.word	0x000013a8
   26228:	4819      	ldr	r0, [pc, #100]	@ (26290 <_start+0x2058>)
   2622a:	4468      	add	r0, sp
   2622c:	78c1      	ldrb	r1, [r0, #3]
   2622e:	4c19      	ldr	r4, [pc, #100]	@ (26294 <_start+0x205c>)
   26230:	446c      	add	r4, sp
   26232:	70a1      	strb	r1, [r4, #2]
   26234:	7841      	ldrb	r1, [r0, #1]
   26236:	7882      	ldrb	r2, [r0, #2]
   26238:	0212      	lsls	r2, r2, #8
   2623a:	1851      	adds	r1, r2, r1
   2623c:	8021      	strh	r1, [r4, #0]
   2623e:	3008      	adds	r0, #8
   26240:	9908      	ldr	r1, [sp, #32]
   26242:	6e09      	ldr	r1, [r1, #96]	@ 0x60
   26244:	910a      	str	r1, [sp, #40]	@ 0x28
   26246:	4b14      	ldr	r3, [pc, #80]	@ (26298 <_start+0x2060>)
   26248:	446b      	add	r3, sp
   2624a:	930b      	str	r3, [sp, #44]	@ 0x2c
   2624c:	c864      	ldmia	r0!, {r2, r5, r6}
   2624e:	c364      	stmia	r3!, {r2, r5, r6}
   26250:	c866      	ldmia	r0!, {r1, r2, r5, r6}
   26252:	c366      	stmia	r3!, {r1, r2, r5, r6}
   26254:	c826      	ldmia	r0!, {r1, r2, r5}
   26256:	c326      	stmia	r3!, {r1, r2, r5}
   26258:	c866      	ldmia	r0!, {r1, r2, r5, r6}
   2625a:	c366      	stmia	r3!, {r1, r2, r5, r6}
   2625c:	7800      	ldrb	r0, [r0, #0]
   2625e:	7018      	strb	r0, [r3, #0]
   26260:	990a      	ldr	r1, [sp, #40]	@ 0x28
   26262:	0e08      	lsrs	r0, r1, #24
   26264:	71a0      	strb	r0, [r4, #6]
   26266:	0c08      	lsrs	r0, r1, #16
   26268:	7160      	strb	r0, [r4, #5]
   2626a:	0a08      	lsrs	r0, r1, #8
   2626c:	7120      	strb	r0, [r4, #4]
   2626e:	70e1      	strb	r1, [r4, #3]
   26270:	1de0      	adds	r0, r4, #7
   26272:	2239      	movs	r2, #57	@ 0x39
   26274:	990b      	ldr	r1, [sp, #44]	@ 0x2c
   26276:	f001 f810 	bl	2729a <__aeabi_memcpy>
   2627a:	4d05      	ldr	r5, [pc, #20]	@ (26290 <_start+0x2058>)
   2627c:	446d      	add	r5, sp
   2627e:	4628      	mov	r0, r5
   26280:	4621      	mov	r1, r4
   26282:	f7fc fcb7 	bl	22bf4 <_ZN20complex_full_dynamic3app17h9ed8cc8f6097bb88E>
   26286:	7828      	ldrb	r0, [r5, #0]
   26288:	2801      	cmp	r0, #1
   2628a:	d107      	bne.n	2629c <_start+0x2064>
   2628c:	f7fe faa9 	bl	247e2 <_start+0x5aa>
   26290:	00001404 	.word	0x00001404
   26294:	00000ddc 	.word	0x00000ddc
   26298:	000013a8 	.word	0x000013a8
   2629c:	4818      	ldr	r0, [pc, #96]	@ (26300 <_start+0x20c8>)
   2629e:	4468      	add	r0, sp
   262a0:	78c1      	ldrb	r1, [r0, #3]
   262a2:	4c18      	ldr	r4, [pc, #96]	@ (26304 <_start+0x20cc>)
   262a4:	446c      	add	r4, sp
   262a6:	70a1      	strb	r1, [r4, #2]
   262a8:	7841      	ldrb	r1, [r0, #1]
   262aa:	7882      	ldrb	r2, [r0, #2]
   262ac:	0212      	lsls	r2, r2, #8
   262ae:	1851      	adds	r1, r2, r1
   262b0:	8021      	strh	r1, [r4, #0]
   262b2:	3008      	adds	r0, #8
   262b4:	9908      	ldr	r1, [sp, #32]
   262b6:	6e09      	ldr	r1, [r1, #96]	@ 0x60
   262b8:	910a      	str	r1, [sp, #40]	@ 0x28
   262ba:	4b13      	ldr	r3, [pc, #76]	@ (26308 <_start+0x20d0>)
   262bc:	446b      	add	r3, sp
   262be:	930b      	str	r3, [sp, #44]	@ 0x2c
   262c0:	c864      	ldmia	r0!, {r2, r5, r6}
   262c2:	c364      	stmia	r3!, {r2, r5, r6}
   262c4:	c864      	ldmia	r0!, {r2, r5, r6}
   262c6:	c364      	stmia	r3!, {r2, r5, r6}
   262c8:	c866      	ldmia	r0!, {r1, r2, r5, r6}
   262ca:	c366      	stmia	r3!, {r1, r2, r5, r6}
   262cc:	8800      	ldrh	r0, [r0, #0]
   262ce:	8018      	strh	r0, [r3, #0]
   262d0:	990a      	ldr	r1, [sp, #40]	@ 0x28
   262d2:	0e08      	lsrs	r0, r1, #24
   262d4:	71a0      	strb	r0, [r4, #6]
   262d6:	0c08      	lsrs	r0, r1, #16
   262d8:	7160      	strb	r0, [r4, #5]
   262da:	0a08      	lsrs	r0, r1, #8
   262dc:	7120      	strb	r0, [r4, #4]
   262de:	70e1      	strb	r1, [r4, #3]
   262e0:	1de0      	adds	r0, r4, #7
   262e2:	222a      	movs	r2, #42	@ 0x2a
   262e4:	990b      	ldr	r1, [sp, #44]	@ 0x2c
   262e6:	f000 ffd8 	bl	2729a <__aeabi_memcpy>
   262ea:	4d05      	ldr	r5, [pc, #20]	@ (26300 <_start+0x20c8>)
   262ec:	446d      	add	r5, sp
   262ee:	4628      	mov	r0, r5
   262f0:	4621      	mov	r1, r4
   262f2:	f7fd fac7 	bl	23884 <_ZN20complex_full_dynamic3app17hd336da60ef872fa0E>
   262f6:	7828      	ldrb	r0, [r5, #0]
   262f8:	2801      	cmp	r0, #1
   262fa:	d107      	bne.n	2630c <_start+0x20d4>
   262fc:	f7fe fa71 	bl	247e2 <_start+0x5aa>
   26300:	00001404 	.word	0x00001404
   26304:	00000e1c 	.word	0x00000e1c
   26308:	000013a8 	.word	0x000013a8
   2630c:	4915      	ldr	r1, [pc, #84]	@ (26364 <_start+0x212c>)
   2630e:	4469      	add	r1, sp
   26310:	78c8      	ldrb	r0, [r1, #3]
   26312:	4c15      	ldr	r4, [pc, #84]	@ (26368 <_start+0x2130>)
   26314:	446c      	add	r4, sp
   26316:	70a0      	strb	r0, [r4, #2]
   26318:	7848      	ldrb	r0, [r1, #1]
   2631a:	788a      	ldrb	r2, [r1, #2]
   2631c:	0212      	lsls	r2, r2, #8
   2631e:	1810      	adds	r0, r2, r0
   26320:	8020      	strh	r0, [r4, #0]
   26322:	9808      	ldr	r0, [sp, #32]
   26324:	6e05      	ldr	r5, [r0, #96]	@ 0x60
   26326:	3108      	adds	r1, #8
   26328:	4810      	ldr	r0, [pc, #64]	@ (2636c <_start+0x2134>)
   2632a:	4468      	add	r0, sp
   2632c:	900b      	str	r0, [sp, #44]	@ 0x2c
   2632e:	2641      	movs	r6, #65	@ 0x41
   26330:	4632      	mov	r2, r6
   26332:	f000 fe52 	bl	26fda <__aeabi_memcpy4>
   26336:	0e28      	lsrs	r0, r5, #24
   26338:	71a0      	strb	r0, [r4, #6]
   2633a:	0c28      	lsrs	r0, r5, #16
   2633c:	7160      	strb	r0, [r4, #5]
   2633e:	0a28      	lsrs	r0, r5, #8
   26340:	7120      	strb	r0, [r4, #4]
   26342:	70e5      	strb	r5, [r4, #3]
   26344:	1de0      	adds	r0, r4, #7
   26346:	990b      	ldr	r1, [sp, #44]	@ 0x2c
   26348:	4632      	mov	r2, r6
   2634a:	f000 ffa6 	bl	2729a <__aeabi_memcpy>
   2634e:	4d05      	ldr	r5, [pc, #20]	@ (26364 <_start+0x212c>)
   26350:	446d      	add	r5, sp
   26352:	4628      	mov	r0, r5
   26354:	4621      	mov	r1, r4
   26356:	f7fa fbf9 	bl	20b4c <_ZN20complex_full_dynamic3app17h2bea75dcd7173f09E>
   2635a:	7828      	ldrb	r0, [r5, #0]
   2635c:	2801      	cmp	r0, #1
   2635e:	d107      	bne.n	26370 <_start+0x2138>
   26360:	f7fe fa3f 	bl	247e2 <_start+0x5aa>
   26364:	00001404 	.word	0x00001404
   26368:	00000e50 	.word	0x00000e50
   2636c:	000013a8 	.word	0x000013a8
   26370:	4817      	ldr	r0, [pc, #92]	@ (263d0 <_start+0x2198>)
   26372:	4468      	add	r0, sp
   26374:	78c1      	ldrb	r1, [r0, #3]
   26376:	4c17      	ldr	r4, [pc, #92]	@ (263d4 <_start+0x219c>)
   26378:	446c      	add	r4, sp
   2637a:	70a1      	strb	r1, [r4, #2]
   2637c:	7841      	ldrb	r1, [r0, #1]
   2637e:	7882      	ldrb	r2, [r0, #2]
   26380:	0212      	lsls	r2, r2, #8
   26382:	1851      	adds	r1, r2, r1
   26384:	8021      	strh	r1, [r4, #0]
   26386:	3008      	adds	r0, #8
   26388:	9908      	ldr	r1, [sp, #32]
   2638a:	6e09      	ldr	r1, [r1, #96]	@ 0x60
   2638c:	910a      	str	r1, [sp, #40]	@ 0x28
   2638e:	4b12      	ldr	r3, [pc, #72]	@ (263d8 <_start+0x21a0>)
   26390:	446b      	add	r3, sp
   26392:	930b      	str	r3, [sp, #44]	@ 0x2c
   26394:	c866      	ldmia	r0!, {r1, r2, r5, r6}
   26396:	c366      	stmia	r3!, {r1, r2, r5, r6}
   26398:	c866      	ldmia	r0!, {r1, r2, r5, r6}
   2639a:	c366      	stmia	r3!, {r1, r2, r5, r6}
   2639c:	8800      	ldrh	r0, [r0, #0]
   2639e:	8018      	strh	r0, [r3, #0]
   263a0:	990a      	ldr	r1, [sp, #40]	@ 0x28
   263a2:	0e08      	lsrs	r0, r1, #24
   263a4:	71a0      	strb	r0, [r4, #6]
   263a6:	0c08      	lsrs	r0, r1, #16
   263a8:	7160      	strb	r0, [r4, #5]
   263aa:	0a08      	lsrs	r0, r1, #8
   263ac:	7120      	strb	r0, [r4, #4]
   263ae:	70e1      	strb	r1, [r4, #3]
   263b0:	1de0      	adds	r0, r4, #7
   263b2:	2222      	movs	r2, #34	@ 0x22
   263b4:	990b      	ldr	r1, [sp, #44]	@ 0x2c
   263b6:	f000 ff70 	bl	2729a <__aeabi_memcpy>
   263ba:	4d05      	ldr	r5, [pc, #20]	@ (263d0 <_start+0x2198>)
   263bc:	446d      	add	r5, sp
   263be:	4628      	mov	r0, r5
   263c0:	4621      	mov	r1, r4
   263c2:	f7fa fee1 	bl	21188 <_ZN20complex_full_dynamic3app17h43ecdc4f6c419785E>
   263c6:	7828      	ldrb	r0, [r5, #0]
   263c8:	2801      	cmp	r0, #1
   263ca:	d107      	bne.n	263dc <_start+0x21a4>
   263cc:	f7fe fa09 	bl	247e2 <_start+0x5aa>
   263d0:	00001404 	.word	0x00001404
   263d4:	00000e98 	.word	0x00000e98
   263d8:	000013a8 	.word	0x000013a8
   263dc:	4817      	ldr	r0, [pc, #92]	@ (2643c <_start+0x2204>)
   263de:	4468      	add	r0, sp
   263e0:	78c1      	ldrb	r1, [r0, #3]
   263e2:	4c17      	ldr	r4, [pc, #92]	@ (26440 <_start+0x2208>)
   263e4:	446c      	add	r4, sp
   263e6:	70a1      	strb	r1, [r4, #2]
   263e8:	7841      	ldrb	r1, [r0, #1]
   263ea:	7882      	ldrb	r2, [r0, #2]
   263ec:	0212      	lsls	r2, r2, #8
   263ee:	1851      	adds	r1, r2, r1
   263f0:	8021      	strh	r1, [r4, #0]
   263f2:	3008      	adds	r0, #8
   263f4:	9908      	ldr	r1, [sp, #32]
   263f6:	6e09      	ldr	r1, [r1, #96]	@ 0x60
   263f8:	910a      	str	r1, [sp, #40]	@ 0x28
   263fa:	4b12      	ldr	r3, [pc, #72]	@ (26444 <_start+0x220c>)
   263fc:	446b      	add	r3, sp
   263fe:	930b      	str	r3, [sp, #44]	@ 0x2c
   26400:	c866      	ldmia	r0!, {r1, r2, r5, r6}
   26402:	c366      	stmia	r3!, {r1, r2, r5, r6}
   26404:	8801      	ldrh	r1, [r0, #0]
   26406:	8019      	strh	r1, [r3, #0]
   26408:	7880      	ldrb	r0, [r0, #2]
   2640a:	7098      	strb	r0, [r3, #2]
   2640c:	990a      	ldr	r1, [sp, #40]	@ 0x28
   2640e:	0e08      	lsrs	r0, r1, #24
   26410:	71a0      	strb	r0, [r4, #6]
   26412:	0c08      	lsrs	r0, r1, #16
   26414:	7160      	strb	r0, [r4, #5]
   26416:	0a08      	lsrs	r0, r1, #8
   26418:	7120      	strb	r0, [r4, #4]
   2641a:	70e1      	strb	r1, [r4, #3]
   2641c:	1de0      	adds	r0, r4, #7
   2641e:	2213      	movs	r2, #19
   26420:	990b      	ldr	r1, [sp, #44]	@ 0x2c
   26422:	f000 ff3a 	bl	2729a <__aeabi_memcpy>
   26426:	4d05      	ldr	r5, [pc, #20]	@ (2643c <_start+0x2204>)
   26428:	446d      	add	r5, sp
   2642a:	4628      	mov	r0, r5
   2642c:	4621      	mov	r1, r4
   2642e:	f7fb fbdd 	bl	21bec <_ZN20complex_full_dynamic3app17h71e2030abaa16f92E>
   26432:	7828      	ldrb	r0, [r5, #0]
   26434:	2801      	cmp	r0, #1
   26436:	d107      	bne.n	26448 <_start+0x2210>
   26438:	f7fe f9d3 	bl	247e2 <_start+0x5aa>
   2643c:	00001404 	.word	0x00001404
   26440:	00000ec4 	.word	0x00000ec4
   26444:	000013a8 	.word	0x000013a8
   26448:	4815      	ldr	r0, [pc, #84]	@ (264a0 <_start+0x2268>)
   2644a:	4468      	add	r0, sp
   2644c:	78c1      	ldrb	r1, [r0, #3]
   2644e:	4c15      	ldr	r4, [pc, #84]	@ (264a4 <_start+0x226c>)
   26450:	446c      	add	r4, sp
   26452:	70a1      	strb	r1, [r4, #2]
   26454:	7841      	ldrb	r1, [r0, #1]
   26456:	7882      	ldrb	r2, [r0, #2]
   26458:	0212      	lsls	r2, r2, #8
   2645a:	1851      	adds	r1, r2, r1
   2645c:	8021      	strh	r1, [r4, #0]
   2645e:	3008      	adds	r0, #8
   26460:	9908      	ldr	r1, [sp, #32]
   26462:	6e09      	ldr	r1, [r1, #96]	@ 0x60
   26464:	4b10      	ldr	r3, [pc, #64]	@ (264a8 <_start+0x2270>)
   26466:	446b      	add	r3, sp
   26468:	930b      	str	r3, [sp, #44]	@ 0x2c
   2646a:	c860      	ldmia	r0!, {r5, r6}
   2646c:	c360      	stmia	r3!, {r5, r6}
   2646e:	c864      	ldmia	r0!, {r2, r5, r6}
   26470:	c364      	stmia	r3!, {r2, r5, r6}
   26472:	0e08      	lsrs	r0, r1, #24
   26474:	71a0      	strb	r0, [r4, #6]
   26476:	0c08      	lsrs	r0, r1, #16
   26478:	7160      	strb	r0, [r4, #5]
   2647a:	0a08      	lsrs	r0, r1, #8
   2647c:	7120      	strb	r0, [r4, #4]
   2647e:	70e1      	strb	r1, [r4, #3]
   26480:	1de0      	adds	r0, r4, #7
   26482:	2214      	movs	r2, #20
   26484:	990b      	ldr	r1, [sp, #44]	@ 0x2c
   26486:	f000 ff08 	bl	2729a <__aeabi_memcpy>
   2648a:	4d05      	ldr	r5, [pc, #20]	@ (264a0 <_start+0x2268>)
   2648c:	446d      	add	r5, sp
   2648e:	4628      	mov	r0, r5
   26490:	4621      	mov	r1, r4
   26492:	f7fc fe81 	bl	23198 <_ZN20complex_full_dynamic3app17hb29be103d92adbaeE>
   26496:	7828      	ldrb	r0, [r5, #0]
   26498:	2801      	cmp	r0, #1
   2649a:	d107      	bne.n	264ac <_start+0x2274>
   2649c:	f7fe f9a1 	bl	247e2 <_start+0x5aa>
   264a0:	00001404 	.word	0x00001404
   264a4:	00000ee0 	.word	0x00000ee0
   264a8:	000013a8 	.word	0x000013a8
   264ac:	4819      	ldr	r0, [pc, #100]	@ (26514 <_start+0x22dc>)
   264ae:	4468      	add	r0, sp
   264b0:	78c1      	ldrb	r1, [r0, #3]
   264b2:	4c19      	ldr	r4, [pc, #100]	@ (26518 <_start+0x22e0>)
   264b4:	446c      	add	r4, sp
   264b6:	70a1      	strb	r1, [r4, #2]
   264b8:	7841      	ldrb	r1, [r0, #1]
   264ba:	7882      	ldrb	r2, [r0, #2]
   264bc:	0212      	lsls	r2, r2, #8
   264be:	1851      	adds	r1, r2, r1
   264c0:	8021      	strh	r1, [r4, #0]
   264c2:	3008      	adds	r0, #8
   264c4:	9908      	ldr	r1, [sp, #32]
   264c6:	6e09      	ldr	r1, [r1, #96]	@ 0x60
   264c8:	910a      	str	r1, [sp, #40]	@ 0x28
   264ca:	4b14      	ldr	r3, [pc, #80]	@ (2651c <_start+0x22e4>)
   264cc:	446b      	add	r3, sp
   264ce:	930b      	str	r3, [sp, #44]	@ 0x2c
   264d0:	c864      	ldmia	r0!, {r2, r5, r6}
   264d2:	c364      	stmia	r3!, {r2, r5, r6}
   264d4:	c866      	ldmia	r0!, {r1, r2, r5, r6}
   264d6:	c366      	stmia	r3!, {r1, r2, r5, r6}
   264d8:	c826      	ldmia	r0!, {r1, r2, r5}
   264da:	c326      	stmia	r3!, {r1, r2, r5}
   264dc:	c866      	ldmia	r0!, {r1, r2, r5, r6}
   264de:	c366      	stmia	r3!, {r1, r2, r5, r6}
   264e0:	8800      	ldrh	r0, [r0, #0]
   264e2:	8018      	strh	r0, [r3, #0]
   264e4:	990a      	ldr	r1, [sp, #40]	@ 0x28
   264e6:	0e08      	lsrs	r0, r1, #24
   264e8:	71a0      	strb	r0, [r4, #6]
   264ea:	0c08      	lsrs	r0, r1, #16
   264ec:	7160      	strb	r0, [r4, #5]
   264ee:	0a08      	lsrs	r0, r1, #8
   264f0:	7120      	strb	r0, [r4, #4]
   264f2:	70e1      	strb	r1, [r4, #3]
   264f4:	1de0      	adds	r0, r4, #7
   264f6:	223a      	movs	r2, #58	@ 0x3a
   264f8:	990b      	ldr	r1, [sp, #44]	@ 0x2c
   264fa:	f000 fece 	bl	2729a <__aeabi_memcpy>
   264fe:	4d05      	ldr	r5, [pc, #20]	@ (26514 <_start+0x22dc>)
   26500:	446d      	add	r5, sp
   26502:	4628      	mov	r0, r5
   26504:	4621      	mov	r1, r4
   26506:	f7fa fde5 	bl	210d4 <_ZN20complex_full_dynamic3app17h410ab8580b62cf46E>
   2650a:	7828      	ldrb	r0, [r5, #0]
   2650c:	2801      	cmp	r0, #1
   2650e:	d107      	bne.n	26520 <_start+0x22e8>
   26510:	f7fe f967 	bl	247e2 <_start+0x5aa>
   26514:	00001404 	.word	0x00001404
   26518:	00000efc 	.word	0x00000efc
   2651c:	000013a8 	.word	0x000013a8
   26520:	4816      	ldr	r0, [pc, #88]	@ (2657c <_start+0x2344>)
   26522:	4468      	add	r0, sp
   26524:	78c1      	ldrb	r1, [r0, #3]
   26526:	4c16      	ldr	r4, [pc, #88]	@ (26580 <_start+0x2348>)
   26528:	446c      	add	r4, sp
   2652a:	70a1      	strb	r1, [r4, #2]
   2652c:	7841      	ldrb	r1, [r0, #1]
   2652e:	7882      	ldrb	r2, [r0, #2]
   26530:	0212      	lsls	r2, r2, #8
   26532:	1851      	adds	r1, r2, r1
   26534:	8021      	strh	r1, [r4, #0]
   26536:	3008      	adds	r0, #8
   26538:	9908      	ldr	r1, [sp, #32]
   2653a:	6e09      	ldr	r1, [r1, #96]	@ 0x60
   2653c:	910a      	str	r1, [sp, #40]	@ 0x28
   2653e:	4b11      	ldr	r3, [pc, #68]	@ (26584 <_start+0x234c>)
   26540:	446b      	add	r3, sp
   26542:	930b      	str	r3, [sp, #44]	@ 0x2c
   26544:	c866      	ldmia	r0!, {r1, r2, r5, r6}
   26546:	c366      	stmia	r3!, {r1, r2, r5, r6}
   26548:	7800      	ldrb	r0, [r0, #0]
   2654a:	7018      	strb	r0, [r3, #0]
   2654c:	990a      	ldr	r1, [sp, #40]	@ 0x28
   2654e:	0e08      	lsrs	r0, r1, #24
   26550:	71a0      	strb	r0, [r4, #6]
   26552:	0c08      	lsrs	r0, r1, #16
   26554:	7160      	strb	r0, [r4, #5]
   26556:	0a08      	lsrs	r0, r1, #8
   26558:	7120      	strb	r0, [r4, #4]
   2655a:	70e1      	strb	r1, [r4, #3]
   2655c:	1de0      	adds	r0, r4, #7
   2655e:	2211      	movs	r2, #17
   26560:	990b      	ldr	r1, [sp, #44]	@ 0x2c
   26562:	f000 fe9a 	bl	2729a <__aeabi_memcpy>
   26566:	4d05      	ldr	r5, [pc, #20]	@ (2657c <_start+0x2344>)
   26568:	446d      	add	r5, sp
   2656a:	4628      	mov	r0, r5
   2656c:	4621      	mov	r1, r4
   2656e:	f7fc fd05 	bl	22f7c <_ZN20complex_full_dynamic3app17hb14b343f1a95f1c3E>
   26572:	7828      	ldrb	r0, [r5, #0]
   26574:	2801      	cmp	r0, #1
   26576:	d107      	bne.n	26588 <_start+0x2350>
   26578:	f7fe f933 	bl	247e2 <_start+0x5aa>
   2657c:	00001404 	.word	0x00001404
   26580:	00000f40 	.word	0x00000f40
   26584:	000013a8 	.word	0x000013a8
   26588:	4817      	ldr	r0, [pc, #92]	@ (265e8 <_start+0x23b0>)
   2658a:	4468      	add	r0, sp
   2658c:	78c1      	ldrb	r1, [r0, #3]
   2658e:	4c17      	ldr	r4, [pc, #92]	@ (265ec <_start+0x23b4>)
   26590:	446c      	add	r4, sp
   26592:	70a1      	strb	r1, [r4, #2]
   26594:	7841      	ldrb	r1, [r0, #1]
   26596:	7882      	ldrb	r2, [r0, #2]
   26598:	0212      	lsls	r2, r2, #8
   2659a:	1851      	adds	r1, r2, r1
   2659c:	8021      	strh	r1, [r4, #0]
   2659e:	3008      	adds	r0, #8
   265a0:	9908      	ldr	r1, [sp, #32]
   265a2:	6e09      	ldr	r1, [r1, #96]	@ 0x60
   265a4:	4b12      	ldr	r3, [pc, #72]	@ (265f0 <_start+0x23b8>)
   265a6:	446b      	add	r3, sp
   265a8:	930b      	str	r3, [sp, #44]	@ 0x2c
   265aa:	c860      	ldmia	r0!, {r5, r6}
   265ac:	c360      	stmia	r3!, {r5, r6}
   265ae:	c864      	ldmia	r0!, {r2, r5, r6}
   265b0:	c364      	stmia	r3!, {r2, r5, r6}
   265b2:	8802      	ldrh	r2, [r0, #0]
   265b4:	801a      	strh	r2, [r3, #0]
   265b6:	7880      	ldrb	r0, [r0, #2]
   265b8:	7098      	strb	r0, [r3, #2]
   265ba:	0e08      	lsrs	r0, r1, #24
   265bc:	71a0      	strb	r0, [r4, #6]
   265be:	0c08      	lsrs	r0, r1, #16
   265c0:	7160      	strb	r0, [r4, #5]
   265c2:	0a08      	lsrs	r0, r1, #8
   265c4:	7120      	strb	r0, [r4, #4]
   265c6:	70e1      	strb	r1, [r4, #3]
   265c8:	1de0      	adds	r0, r4, #7
   265ca:	2217      	movs	r2, #23
   265cc:	990b      	ldr	r1, [sp, #44]	@ 0x2c
   265ce:	f000 fe64 	bl	2729a <__aeabi_memcpy>
   265d2:	4d05      	ldr	r5, [pc, #20]	@ (265e8 <_start+0x23b0>)
   265d4:	446d      	add	r5, sp
   265d6:	4628      	mov	r0, r5
   265d8:	4621      	mov	r1, r4
   265da:	f7fb fc17 	bl	21e0c <_ZN20complex_full_dynamic3app17h78b526b9c4291207E>
   265de:	7828      	ldrb	r0, [r5, #0]
   265e0:	2801      	cmp	r0, #1
   265e2:	d107      	bne.n	265f4 <_start+0x23bc>
   265e4:	f7fe f8fd 	bl	247e2 <_start+0x5aa>
   265e8:	00001404 	.word	0x00001404
   265ec:	00000f58 	.word	0x00000f58
   265f0:	000013a8 	.word	0x000013a8
   265f4:	4819      	ldr	r0, [pc, #100]	@ (2665c <_start+0x2424>)
   265f6:	4468      	add	r0, sp
   265f8:	78c1      	ldrb	r1, [r0, #3]
   265fa:	4c19      	ldr	r4, [pc, #100]	@ (26660 <_start+0x2428>)
   265fc:	446c      	add	r4, sp
   265fe:	70a1      	strb	r1, [r4, #2]
   26600:	7841      	ldrb	r1, [r0, #1]
   26602:	7882      	ldrb	r2, [r0, #2]
   26604:	0212      	lsls	r2, r2, #8
   26606:	1851      	adds	r1, r2, r1
   26608:	8021      	strh	r1, [r4, #0]
   2660a:	3008      	adds	r0, #8
   2660c:	9908      	ldr	r1, [sp, #32]
   2660e:	6e09      	ldr	r1, [r1, #96]	@ 0x60
   26610:	910a      	str	r1, [sp, #40]	@ 0x28
   26612:	4b14      	ldr	r3, [pc, #80]	@ (26664 <_start+0x242c>)
   26614:	446b      	add	r3, sp
   26616:	930b      	str	r3, [sp, #44]	@ 0x2c
   26618:	c864      	ldmia	r0!, {r2, r5, r6}
   2661a:	c364      	stmia	r3!, {r2, r5, r6}
   2661c:	c864      	ldmia	r0!, {r2, r5, r6}
   2661e:	c364      	stmia	r3!, {r2, r5, r6}
   26620:	c864      	ldmia	r0!, {r2, r5, r6}
   26622:	c364      	stmia	r3!, {r2, r5, r6}
   26624:	c866      	ldmia	r0!, {r1, r2, r5, r6}
   26626:	c366      	stmia	r3!, {r1, r2, r5, r6}
   26628:	7800      	ldrb	r0, [r0, #0]
   2662a:	7018      	strb	r0, [r3, #0]
   2662c:	990a      	ldr	r1, [sp, #40]	@ 0x28
   2662e:	0e08      	lsrs	r0, r1, #24
   26630:	71a0      	strb	r0, [r4, #6]
   26632:	0c08      	lsrs	r0, r1, #16
   26634:	7160      	strb	r0, [r4, #5]
   26636:	0a08      	lsrs	r0, r1, #8
   26638:	7120      	strb	r0, [r4, #4]
   2663a:	70e1      	strb	r1, [r4, #3]
   2663c:	1de0      	adds	r0, r4, #7
   2663e:	2235      	movs	r2, #53	@ 0x35
   26640:	990b      	ldr	r1, [sp, #44]	@ 0x2c
   26642:	f000 fe2a 	bl	2729a <__aeabi_memcpy>
   26646:	4d05      	ldr	r5, [pc, #20]	@ (2665c <_start+0x2424>)
   26648:	446d      	add	r5, sp
   2664a:	4628      	mov	r0, r5
   2664c:	4621      	mov	r1, r4
   2664e:	f7fd fc8f 	bl	23f70 <_ZN20complex_full_dynamic3app17hf34641b2565146d0E>
   26652:	7828      	ldrb	r0, [r5, #0]
   26654:	2801      	cmp	r0, #1
   26656:	d107      	bne.n	26668 <_start+0x2430>
   26658:	f7fe f8c3 	bl	247e2 <_start+0x5aa>
   2665c:	00001404 	.word	0x00001404
   26660:	00000f78 	.word	0x00000f78
   26664:	000013a8 	.word	0x000013a8
   26668:	4817      	ldr	r0, [pc, #92]	@ (266c8 <_start+0x2490>)
   2666a:	4468      	add	r0, sp
   2666c:	78c1      	ldrb	r1, [r0, #3]
   2666e:	4c17      	ldr	r4, [pc, #92]	@ (266cc <_start+0x2494>)
   26670:	446c      	add	r4, sp
   26672:	70a1      	strb	r1, [r4, #2]
   26674:	7841      	ldrb	r1, [r0, #1]
   26676:	7882      	ldrb	r2, [r0, #2]
   26678:	0212      	lsls	r2, r2, #8
   2667a:	1851      	adds	r1, r2, r1
   2667c:	8021      	strh	r1, [r4, #0]
   2667e:	3008      	adds	r0, #8
   26680:	9908      	ldr	r1, [sp, #32]
   26682:	6e09      	ldr	r1, [r1, #96]	@ 0x60
   26684:	4b12      	ldr	r3, [pc, #72]	@ (266d0 <_start+0x2498>)
   26686:	446b      	add	r3, sp
   26688:	930b      	str	r3, [sp, #44]	@ 0x2c
   2668a:	c864      	ldmia	r0!, {r2, r5, r6}
   2668c:	c364      	stmia	r3!, {r2, r5, r6}
   2668e:	c864      	ldmia	r0!, {r2, r5, r6}
   26690:	c364      	stmia	r3!, {r2, r5, r6}
   26692:	c864      	ldmia	r0!, {r2, r5, r6}
   26694:	c364      	stmia	r3!, {r2, r5, r6}
   26696:	7800      	ldrb	r0, [r0, #0]
   26698:	7018      	strb	r0, [r3, #0]
   2669a:	0e08      	lsrs	r0, r1, #24
   2669c:	71a0      	strb	r0, [r4, #6]
   2669e:	0c08      	lsrs	r0, r1, #16
   266a0:	7160      	strb	r0, [r4, #5]
   266a2:	0a08      	lsrs	r0, r1, #8
   266a4:	7120      	strb	r0, [r4, #4]
   266a6:	70e1      	strb	r1, [r4, #3]
   266a8:	1de0      	adds	r0, r4, #7
   266aa:	2225      	movs	r2, #37	@ 0x25
   266ac:	990b      	ldr	r1, [sp, #44]	@ 0x2c
   266ae:	f000 fdf4 	bl	2729a <__aeabi_memcpy>
   266b2:	4d05      	ldr	r5, [pc, #20]	@ (266c8 <_start+0x2490>)
   266b4:	446d      	add	r5, sp
   266b6:	4628      	mov	r0, r5
   266b8:	4621      	mov	r1, r4
   266ba:	f7fc fe79 	bl	233b0 <_ZN20complex_full_dynamic3app17hbb177cec8ef91d57E>
   266be:	7828      	ldrb	r0, [r5, #0]
   266c0:	2801      	cmp	r0, #1
   266c2:	d107      	bne.n	266d4 <_start+0x249c>
   266c4:	f7fe f88d 	bl	247e2 <_start+0x5aa>
   266c8:	00001404 	.word	0x00001404
   266cc:	00000fb4 	.word	0x00000fb4
   266d0:	000013a8 	.word	0x000013a8
   266d4:	4816      	ldr	r0, [pc, #88]	@ (26730 <_start+0x24f8>)
   266d6:	4468      	add	r0, sp
   266d8:	78c1      	ldrb	r1, [r0, #3]
   266da:	4c16      	ldr	r4, [pc, #88]	@ (26734 <_start+0x24fc>)
   266dc:	446c      	add	r4, sp
   266de:	70a1      	strb	r1, [r4, #2]
   266e0:	7841      	ldrb	r1, [r0, #1]
   266e2:	7882      	ldrb	r2, [r0, #2]
   266e4:	0212      	lsls	r2, r2, #8
   266e6:	1851      	adds	r1, r2, r1
   266e8:	8021      	strh	r1, [r4, #0]
   266ea:	3008      	adds	r0, #8
   266ec:	9908      	ldr	r1, [sp, #32]
   266ee:	6e09      	ldr	r1, [r1, #96]	@ 0x60
   266f0:	910a      	str	r1, [sp, #40]	@ 0x28
   266f2:	4b11      	ldr	r3, [pc, #68]	@ (26738 <_start+0x2500>)
   266f4:	446b      	add	r3, sp
   266f6:	930b      	str	r3, [sp, #44]	@ 0x2c
   266f8:	c866      	ldmia	r0!, {r1, r2, r5, r6}
   266fa:	c366      	stmia	r3!, {r1, r2, r5, r6}
   266fc:	c866      	ldmia	r0!, {r1, r2, r5, r6}
   266fe:	c366      	stmia	r3!, {r1, r2, r5, r6}
   26700:	990a      	ldr	r1, [sp, #40]	@ 0x28
   26702:	0e08      	lsrs	r0, r1, #24
   26704:	71a0      	strb	r0, [r4, #6]
   26706:	0c08      	lsrs	r0, r1, #16
   26708:	7160      	strb	r0, [r4, #5]
   2670a:	0a08      	lsrs	r0, r1, #8
   2670c:	7120      	strb	r0, [r4, #4]
   2670e:	70e1      	strb	r1, [r4, #3]
   26710:	1de0      	adds	r0, r4, #7
   26712:	2220      	movs	r2, #32
   26714:	990b      	ldr	r1, [sp, #44]	@ 0x2c
   26716:	f000 fdc0 	bl	2729a <__aeabi_memcpy>
   2671a:	4d05      	ldr	r5, [pc, #20]	@ (26730 <_start+0x24f8>)
   2671c:	446d      	add	r5, sp
   2671e:	4628      	mov	r0, r5
   26720:	4621      	mov	r1, r4
   26722:	f7fd fac5 	bl	23cb0 <_ZN20complex_full_dynamic3app17he7ab03343c62da64E>
   26726:	7828      	ldrb	r0, [r5, #0]
   26728:	2801      	cmp	r0, #1
   2672a:	d107      	bne.n	2673c <_start+0x2504>
   2672c:	f7fe f859 	bl	247e2 <_start+0x5aa>
   26730:	00001404 	.word	0x00001404
   26734:	00000fe0 	.word	0x00000fe0
   26738:	000013a8 	.word	0x000013a8
   2673c:	4915      	ldr	r1, [pc, #84]	@ (26794 <_start+0x255c>)
   2673e:	4469      	add	r1, sp
   26740:	78c8      	ldrb	r0, [r1, #3]
   26742:	4c15      	ldr	r4, [pc, #84]	@ (26798 <_start+0x2560>)
   26744:	446c      	add	r4, sp
   26746:	70a0      	strb	r0, [r4, #2]
   26748:	7848      	ldrb	r0, [r1, #1]
   2674a:	788a      	ldrb	r2, [r1, #2]
   2674c:	0212      	lsls	r2, r2, #8
   2674e:	1810      	adds	r0, r2, r0
   26750:	8020      	strh	r0, [r4, #0]
   26752:	9808      	ldr	r0, [sp, #32]
   26754:	6e05      	ldr	r5, [r0, #96]	@ 0x60
   26756:	3108      	adds	r1, #8
   26758:	4810      	ldr	r0, [pc, #64]	@ (2679c <_start+0x2564>)
   2675a:	4468      	add	r0, sp
   2675c:	900b      	str	r0, [sp, #44]	@ 0x2c
   2675e:	2648      	movs	r6, #72	@ 0x48
   26760:	4632      	mov	r2, r6
   26762:	f000 fc3a 	bl	26fda <__aeabi_memcpy4>
   26766:	0e28      	lsrs	r0, r5, #24
   26768:	71a0      	strb	r0, [r4, #6]
   2676a:	0c28      	lsrs	r0, r5, #16
   2676c:	7160      	strb	r0, [r4, #5]
   2676e:	0a28      	lsrs	r0, r5, #8
   26770:	7120      	strb	r0, [r4, #4]
   26772:	70e5      	strb	r5, [r4, #3]
   26774:	1de0      	adds	r0, r4, #7
   26776:	990b      	ldr	r1, [sp, #44]	@ 0x2c
   26778:	4632      	mov	r2, r6
   2677a:	f000 fd8e 	bl	2729a <__aeabi_memcpy>
   2677e:	4d05      	ldr	r5, [pc, #20]	@ (26794 <_start+0x255c>)
   26780:	446d      	add	r5, sp
   26782:	4628      	mov	r0, r5
   26784:	4621      	mov	r1, r4
   26786:	f7fc f8d1 	bl	2292c <_ZN20complex_full_dynamic3app17h98ed70b48b81a622E>
   2678a:	7828      	ldrb	r0, [r5, #0]
   2678c:	2801      	cmp	r0, #1
   2678e:	d107      	bne.n	267a0 <_start+0x2568>
   26790:	f7fe f827 	bl	247e2 <_start+0x5aa>
   26794:	00001404 	.word	0x00001404
   26798:	00001008 	.word	0x00001008
   2679c:	000013a8 	.word	0x000013a8
   267a0:	4818      	ldr	r0, [pc, #96]	@ (26804 <_start+0x25cc>)
   267a2:	4468      	add	r0, sp
   267a4:	78c1      	ldrb	r1, [r0, #3]
   267a6:	4c18      	ldr	r4, [pc, #96]	@ (26808 <_start+0x25d0>)
   267a8:	446c      	add	r4, sp
   267aa:	70a1      	strb	r1, [r4, #2]
   267ac:	7841      	ldrb	r1, [r0, #1]
   267ae:	7882      	ldrb	r2, [r0, #2]
   267b0:	0212      	lsls	r2, r2, #8
   267b2:	1851      	adds	r1, r2, r1
   267b4:	8021      	strh	r1, [r4, #0]
   267b6:	3008      	adds	r0, #8
   267b8:	9908      	ldr	r1, [sp, #32]
   267ba:	6e09      	ldr	r1, [r1, #96]	@ 0x60
   267bc:	910a      	str	r1, [sp, #40]	@ 0x28
   267be:	4b13      	ldr	r3, [pc, #76]	@ (2680c <_start+0x25d4>)
   267c0:	446b      	add	r3, sp
   267c2:	930b      	str	r3, [sp, #44]	@ 0x2c
   267c4:	c864      	ldmia	r0!, {r2, r5, r6}
   267c6:	c364      	stmia	r3!, {r2, r5, r6}
   267c8:	c866      	ldmia	r0!, {r1, r2, r5, r6}
   267ca:	c366      	stmia	r3!, {r1, r2, r5, r6}
   267cc:	c866      	ldmia	r0!, {r1, r2, r5, r6}
   267ce:	c366      	stmia	r3!, {r1, r2, r5, r6}
   267d0:	8800      	ldrh	r0, [r0, #0]
   267d2:	8018      	strh	r0, [r3, #0]
   267d4:	990a      	ldr	r1, [sp, #40]	@ 0x28
   267d6:	0e08      	lsrs	r0, r1, #24
   267d8:	71a0      	strb	r0, [r4, #6]
   267da:	0c08      	lsrs	r0, r1, #16
   267dc:	7160      	strb	r0, [r4, #5]
   267de:	0a08      	lsrs	r0, r1, #8
   267e0:	7120      	strb	r0, [r4, #4]
   267e2:	70e1      	strb	r1, [r4, #3]
   267e4:	1de0      	adds	r0, r4, #7
   267e6:	222e      	movs	r2, #46	@ 0x2e
   267e8:	990b      	ldr	r1, [sp, #44]	@ 0x2c
   267ea:	f000 fd56 	bl	2729a <__aeabi_memcpy>
   267ee:	4d05      	ldr	r5, [pc, #20]	@ (26804 <_start+0x25cc>)
   267f0:	446d      	add	r5, sp
   267f2:	4628      	mov	r0, r5
   267f4:	4621      	mov	r1, r4
   267f6:	f7fb fd75 	bl	222e4 <_ZN20complex_full_dynamic3app17h8493caf3e5bd6c6cE>
   267fa:	7828      	ldrb	r0, [r5, #0]
   267fc:	2801      	cmp	r0, #1
   267fe:	d107      	bne.n	26810 <_start+0x25d8>
   26800:	f7fd ffef 	bl	247e2 <_start+0x5aa>
   26804:	00001404 	.word	0x00001404
   26808:	00001058 	.word	0x00001058
   2680c:	000013a8 	.word	0x000013a8
   26810:	4818      	ldr	r0, [pc, #96]	@ (26874 <_start+0x263c>)
   26812:	4468      	add	r0, sp
   26814:	78c1      	ldrb	r1, [r0, #3]
   26816:	4c18      	ldr	r4, [pc, #96]	@ (26878 <_start+0x2640>)
   26818:	446c      	add	r4, sp
   2681a:	70a1      	strb	r1, [r4, #2]
   2681c:	7841      	ldrb	r1, [r0, #1]
   2681e:	7882      	ldrb	r2, [r0, #2]
   26820:	0212      	lsls	r2, r2, #8
   26822:	1851      	adds	r1, r2, r1
   26824:	8021      	strh	r1, [r4, #0]
   26826:	3008      	adds	r0, #8
   26828:	9908      	ldr	r1, [sp, #32]
   2682a:	6e09      	ldr	r1, [r1, #96]	@ 0x60
   2682c:	910a      	str	r1, [sp, #40]	@ 0x28
   2682e:	4b13      	ldr	r3, [pc, #76]	@ (2687c <_start+0x2644>)
   26830:	446b      	add	r3, sp
   26832:	930b      	str	r3, [sp, #44]	@ 0x2c
   26834:	c864      	ldmia	r0!, {r2, r5, r6}
   26836:	c364      	stmia	r3!, {r2, r5, r6}
   26838:	c866      	ldmia	r0!, {r1, r2, r5, r6}
   2683a:	c366      	stmia	r3!, {r1, r2, r5, r6}
   2683c:	c826      	ldmia	r0!, {r1, r2, r5}
   2683e:	c326      	stmia	r3!, {r1, r2, r5}
   26840:	c866      	ldmia	r0!, {r1, r2, r5, r6}
   26842:	c366      	stmia	r3!, {r1, r2, r5, r6}
   26844:	990a      	ldr	r1, [sp, #40]	@ 0x28
   26846:	0e08      	lsrs	r0, r1, #24
   26848:	71a0      	strb	r0, [r4, #6]
   2684a:	0c08      	lsrs	r0, r1, #16
   2684c:	7160      	strb	r0, [r4, #5]
   2684e:	0a08      	lsrs	r0, r1, #8
   26850:	7120      	strb	r0, [r4, #4]
   26852:	70e1      	strb	r1, [r4, #3]
   26854:	1de0      	adds	r0, r4, #7
   26856:	2238      	movs	r2, #56	@ 0x38
   26858:	990b      	ldr	r1, [sp, #44]	@ 0x2c
   2685a:	f000 fd1e 	bl	2729a <__aeabi_memcpy>
   2685e:	4d05      	ldr	r5, [pc, #20]	@ (26874 <_start+0x263c>)
   26860:	446d      	add	r5, sp
   26862:	4628      	mov	r0, r5
   26864:	4621      	mov	r1, r4
   26866:	f7f9 fe57 	bl	20518 <_ZN20complex_full_dynamic3app17h1999937af032b867E>
   2686a:	7828      	ldrb	r0, [r5, #0]
   2686c:	2801      	cmp	r0, #1
   2686e:	d107      	bne.n	26880 <_start+0x2648>
   26870:	f7fd ffb7 	bl	247e2 <_start+0x5aa>
   26874:	00001404 	.word	0x00001404
   26878:	00001090 	.word	0x00001090
   2687c:	000013a8 	.word	0x000013a8
   26880:	4914      	ldr	r1, [pc, #80]	@ (268d4 <_start+0x269c>)
   26882:	4469      	add	r1, sp
   26884:	9b08      	ldr	r3, [sp, #32]
   26886:	6ed8      	ldr	r0, [r3, #108]	@ 0x6c
   26888:	8108      	strh	r0, [r1, #8]
   2688a:	4813      	ldr	r0, [pc, #76]	@ (268d8 <_start+0x26a0>)
   2688c:	4468      	add	r0, sp
   2688e:	78c2      	ldrb	r2, [r0, #3]
   26890:	4c12      	ldr	r4, [pc, #72]	@ (268dc <_start+0x26a4>)
   26892:	446c      	add	r4, sp
   26894:	70a2      	strb	r2, [r4, #2]
   26896:	7842      	ldrb	r2, [r0, #1]
   26898:	7880      	ldrb	r0, [r0, #2]
   2689a:	0200      	lsls	r0, r0, #8
   2689c:	1880      	adds	r0, r0, r2
   2689e:	8020      	strh	r0, [r4, #0]
   268a0:	6e18      	ldr	r0, [r3, #96]	@ 0x60
   268a2:	70e0      	strb	r0, [r4, #3]
   268a4:	0e02      	lsrs	r2, r0, #24
   268a6:	71a2      	strb	r2, [r4, #6]
   268a8:	0c02      	lsrs	r2, r0, #16
   268aa:	7162      	strb	r2, [r4, #5]
   268ac:	0a00      	lsrs	r0, r0, #8
   268ae:	7120      	strb	r0, [r4, #4]
   268b0:	6e58      	ldr	r0, [r3, #100]	@ 0x64
   268b2:	6e9a      	ldr	r2, [r3, #104]	@ 0x68
   268b4:	c305      	stmia	r3!, {r0, r2}
   268b6:	1de0      	adds	r0, r4, #7
   268b8:	220a      	movs	r2, #10
   268ba:	f000 fcee 	bl	2729a <__aeabi_memcpy>
   268be:	4d06      	ldr	r5, [pc, #24]	@ (268d8 <_start+0x26a0>)
   268c0:	446d      	add	r5, sp
   268c2:	4628      	mov	r0, r5
   268c4:	4621      	mov	r1, r4
   268c6:	f7fa fec9 	bl	2165c <_ZN20complex_full_dynamic3app17h5d31668aeba0256dE>
   268ca:	7828      	ldrb	r0, [r5, #0]
   268cc:	2801      	cmp	r0, #1
   268ce:	d107      	bne.n	268e0 <_start+0x26a8>
   268d0:	f7fd ff87 	bl	247e2 <_start+0x5aa>
   268d4:	000013a8 	.word	0x000013a8
   268d8:	00001404 	.word	0x00001404
   268dc:	000010d0 	.word	0x000010d0
   268e0:	4818      	ldr	r0, [pc, #96]	@ (26944 <_start+0x270c>)
   268e2:	4468      	add	r0, sp
   268e4:	78c1      	ldrb	r1, [r0, #3]
   268e6:	4c18      	ldr	r4, [pc, #96]	@ (26948 <_start+0x2710>)
   268e8:	446c      	add	r4, sp
   268ea:	70a1      	strb	r1, [r4, #2]
   268ec:	7841      	ldrb	r1, [r0, #1]
   268ee:	7882      	ldrb	r2, [r0, #2]
   268f0:	0212      	lsls	r2, r2, #8
   268f2:	1851      	adds	r1, r2, r1
   268f4:	8021      	strh	r1, [r4, #0]
   268f6:	3008      	adds	r0, #8
   268f8:	9908      	ldr	r1, [sp, #32]
   268fa:	6e09      	ldr	r1, [r1, #96]	@ 0x60
   268fc:	910a      	str	r1, [sp, #40]	@ 0x28
   268fe:	4b13      	ldr	r3, [pc, #76]	@ (2694c <_start+0x2714>)
   26900:	446b      	add	r3, sp
   26902:	930b      	str	r3, [sp, #44]	@ 0x2c
   26904:	c864      	ldmia	r0!, {r2, r5, r6}
   26906:	c364      	stmia	r3!, {r2, r5, r6}
   26908:	c866      	ldmia	r0!, {r1, r2, r5, r6}
   2690a:	c366      	stmia	r3!, {r1, r2, r5, r6}
   2690c:	c826      	ldmia	r0!, {r1, r2, r5}
   2690e:	c326      	stmia	r3!, {r1, r2, r5}
   26910:	c866      	ldmia	r0!, {r1, r2, r5, r6}
   26912:	c366      	stmia	r3!, {r1, r2, r5, r6}
   26914:	990a      	ldr	r1, [sp, #40]	@ 0x28
   26916:	0e08      	lsrs	r0, r1, #24
   26918:	71a0      	strb	r0, [r4, #6]
   2691a:	0c08      	lsrs	r0, r1, #16
   2691c:	7160      	strb	r0, [r4, #5]
   2691e:	0a08      	lsrs	r0, r1, #8
   26920:	7120      	strb	r0, [r4, #4]
   26922:	70e1      	strb	r1, [r4, #3]
   26924:	1de0      	adds	r0, r4, #7
   26926:	2238      	movs	r2, #56	@ 0x38
   26928:	990b      	ldr	r1, [sp, #44]	@ 0x2c
   2692a:	f000 fcb6 	bl	2729a <__aeabi_memcpy>
   2692e:	4d05      	ldr	r5, [pc, #20]	@ (26944 <_start+0x270c>)
   26930:	446d      	add	r5, sp
   26932:	4628      	mov	r0, r5
   26934:	4621      	mov	r1, r4
   26936:	f7fb fac1 	bl	21ebc <_ZN20complex_full_dynamic3app17h7b4786e572bdbf00E>
   2693a:	7828      	ldrb	r0, [r5, #0]
   2693c:	2801      	cmp	r0, #1
   2693e:	d107      	bne.n	26950 <_start+0x2718>
   26940:	f7fd ff4f 	bl	247e2 <_start+0x5aa>
   26944:	00001404 	.word	0x00001404
   26948:	000010e4 	.word	0x000010e4
   2694c:	000013a8 	.word	0x000013a8
   26950:	4816      	ldr	r0, [pc, #88]	@ (269ac <_start+0x2774>)
   26952:	4468      	add	r0, sp
   26954:	78c1      	ldrb	r1, [r0, #3]
   26956:	4c16      	ldr	r4, [pc, #88]	@ (269b0 <_start+0x2778>)
   26958:	446c      	add	r4, sp
   2695a:	70a1      	strb	r1, [r4, #2]
   2695c:	7841      	ldrb	r1, [r0, #1]
   2695e:	7882      	ldrb	r2, [r0, #2]
   26960:	0212      	lsls	r2, r2, #8
   26962:	1851      	adds	r1, r2, r1
   26964:	8021      	strh	r1, [r4, #0]
   26966:	3008      	adds	r0, #8
   26968:	9908      	ldr	r1, [sp, #32]
   2696a:	6e09      	ldr	r1, [r1, #96]	@ 0x60
   2696c:	4b11      	ldr	r3, [pc, #68]	@ (269b4 <_start+0x277c>)
   2696e:	446b      	add	r3, sp
   26970:	930b      	str	r3, [sp, #44]	@ 0x2c
   26972:	c860      	ldmia	r0!, {r5, r6}
   26974:	c360      	stmia	r3!, {r5, r6}
   26976:	c864      	ldmia	r0!, {r2, r5, r6}
   26978:	c364      	stmia	r3!, {r2, r5, r6}
   2697a:	7800      	ldrb	r0, [r0, #0]
   2697c:	7018      	strb	r0, [r3, #0]
   2697e:	0e08      	lsrs	r0, r1, #24
   26980:	71a0      	strb	r0, [r4, #6]
   26982:	0c08      	lsrs	r0, r1, #16
   26984:	7160      	strb	r0, [r4, #5]
   26986:	0a08      	lsrs	r0, r1, #8
   26988:	7120      	strb	r0, [r4, #4]
   2698a:	70e1      	strb	r1, [r4, #3]
   2698c:	1de0      	adds	r0, r4, #7
   2698e:	2215      	movs	r2, #21
   26990:	990b      	ldr	r1, [sp, #44]	@ 0x2c
   26992:	f000 fc82 	bl	2729a <__aeabi_memcpy>
   26996:	4d05      	ldr	r5, [pc, #20]	@ (269ac <_start+0x2774>)
   26998:	446d      	add	r5, sp
   2699a:	4628      	mov	r0, r5
   2699c:	4621      	mov	r1, r4
   2699e:	f7fb fe5d 	bl	2265c <_ZN20complex_full_dynamic3app17h8f135e9bc6dd5bb4E>
   269a2:	7828      	ldrb	r0, [r5, #0]
   269a4:	2801      	cmp	r0, #1
   269a6:	d107      	bne.n	269b8 <_start+0x2780>
   269a8:	f7fd ff1b 	bl	247e2 <_start+0x5aa>
   269ac:	00001404 	.word	0x00001404
   269b0:	00001124 	.word	0x00001124
   269b4:	000013a8 	.word	0x000013a8
   269b8:	4915      	ldr	r1, [pc, #84]	@ (26a10 <_start+0x27d8>)
   269ba:	4469      	add	r1, sp
   269bc:	78c8      	ldrb	r0, [r1, #3]
   269be:	4c15      	ldr	r4, [pc, #84]	@ (26a14 <_start+0x27dc>)
   269c0:	446c      	add	r4, sp
   269c2:	70a0      	strb	r0, [r4, #2]
   269c4:	7848      	ldrb	r0, [r1, #1]
   269c6:	788a      	ldrb	r2, [r1, #2]
   269c8:	0212      	lsls	r2, r2, #8
   269ca:	1810      	adds	r0, r2, r0
   269cc:	8020      	strh	r0, [r4, #0]
   269ce:	9808      	ldr	r0, [sp, #32]
   269d0:	6e05      	ldr	r5, [r0, #96]	@ 0x60
   269d2:	3108      	adds	r1, #8
   269d4:	4810      	ldr	r0, [pc, #64]	@ (26a18 <_start+0x27e0>)
   269d6:	4468      	add	r0, sp
   269d8:	900b      	str	r0, [sp, #44]	@ 0x2c
   269da:	2656      	movs	r6, #86	@ 0x56
   269dc:	4632      	mov	r2, r6
   269de:	f000 fafc 	bl	26fda <__aeabi_memcpy4>
   269e2:	0e28      	lsrs	r0, r5, #24
   269e4:	71a0      	strb	r0, [r4, #6]
   269e6:	0c28      	lsrs	r0, r5, #16
   269e8:	7160      	strb	r0, [r4, #5]
   269ea:	0a28      	lsrs	r0, r5, #8
   269ec:	7120      	strb	r0, [r4, #4]
   269ee:	70e5      	strb	r5, [r4, #3]
   269f0:	1de0      	adds	r0, r4, #7
   269f2:	990b      	ldr	r1, [sp, #44]	@ 0x2c
   269f4:	4632      	mov	r2, r6
   269f6:	f000 fc50 	bl	2729a <__aeabi_memcpy>
   269fa:	4d05      	ldr	r5, [pc, #20]	@ (26a10 <_start+0x27d8>)
   269fc:	446d      	add	r5, sp
   269fe:	4628      	mov	r0, r5
   26a00:	4621      	mov	r1, r4
   26a02:	f7fc fd85 	bl	23510 <_ZN20complex_full_dynamic3app17hc4ba4c12a7389dceE>
   26a06:	7828      	ldrb	r0, [r5, #0]
   26a08:	2801      	cmp	r0, #1
   26a0a:	d107      	bne.n	26a1c <_start+0x27e4>
   26a0c:	f7fd fee9 	bl	247e2 <_start+0x5aa>
   26a10:	00001404 	.word	0x00001404
   26a14:	00001140 	.word	0x00001140
   26a18:	000013a8 	.word	0x000013a8
   26a1c:	4915      	ldr	r1, [pc, #84]	@ (26a74 <_start+0x283c>)
   26a1e:	4469      	add	r1, sp
   26a20:	9b08      	ldr	r3, [sp, #32]
   26a22:	6ed8      	ldr	r0, [r3, #108]	@ 0x6c
   26a24:	8108      	strh	r0, [r1, #8]
   26a26:	4814      	ldr	r0, [pc, #80]	@ (26a78 <_start+0x2840>)
   26a28:	4468      	add	r0, sp
   26a2a:	78c2      	ldrb	r2, [r0, #3]
   26a2c:	4c13      	ldr	r4, [pc, #76]	@ (26a7c <_start+0x2844>)
   26a2e:	446c      	add	r4, sp
   26a30:	70a2      	strb	r2, [r4, #2]
   26a32:	7c82      	ldrb	r2, [r0, #18]
   26a34:	728a      	strb	r2, [r1, #10]
   26a36:	7842      	ldrb	r2, [r0, #1]
   26a38:	7880      	ldrb	r0, [r0, #2]
   26a3a:	0200      	lsls	r0, r0, #8
   26a3c:	1880      	adds	r0, r0, r2
   26a3e:	8020      	strh	r0, [r4, #0]
   26a40:	6e18      	ldr	r0, [r3, #96]	@ 0x60
   26a42:	70e0      	strb	r0, [r4, #3]
   26a44:	0e02      	lsrs	r2, r0, #24
   26a46:	71a2      	strb	r2, [r4, #6]
   26a48:	0c02      	lsrs	r2, r0, #16
   26a4a:	7162      	strb	r2, [r4, #5]
   26a4c:	0a00      	lsrs	r0, r0, #8
   26a4e:	7120      	strb	r0, [r4, #4]
   26a50:	6e58      	ldr	r0, [r3, #100]	@ 0x64
   26a52:	6e9a      	ldr	r2, [r3, #104]	@ 0x68
   26a54:	c305      	stmia	r3!, {r0, r2}
   26a56:	1de0      	adds	r0, r4, #7
   26a58:	220b      	movs	r2, #11
   26a5a:	f000 fc1e 	bl	2729a <__aeabi_memcpy>
   26a5e:	4d06      	ldr	r5, [pc, #24]	@ (26a78 <_start+0x2840>)
   26a60:	446d      	add	r5, sp
   26a62:	4628      	mov	r0, r5
   26a64:	4621      	mov	r1, r4
   26a66:	f7f9 ff67 	bl	20938 <_ZN20complex_full_dynamic3app17h21f588009cce3e74E>
   26a6a:	7828      	ldrb	r0, [r5, #0]
   26a6c:	2801      	cmp	r0, #1
   26a6e:	d107      	bne.n	26a80 <_start+0x2848>
   26a70:	f7fd feb7 	bl	247e2 <_start+0x5aa>
   26a74:	000013a8 	.word	0x000013a8
   26a78:	00001404 	.word	0x00001404
   26a7c:	000011a0 	.word	0x000011a0
   26a80:	4819      	ldr	r0, [pc, #100]	@ (26ae8 <_start+0x28b0>)
   26a82:	4468      	add	r0, sp
   26a84:	78c1      	ldrb	r1, [r0, #3]
   26a86:	4c19      	ldr	r4, [pc, #100]	@ (26aec <_start+0x28b4>)
   26a88:	446c      	add	r4, sp
   26a8a:	70a1      	strb	r1, [r4, #2]
   26a8c:	7841      	ldrb	r1, [r0, #1]
   26a8e:	7882      	ldrb	r2, [r0, #2]
   26a90:	0212      	lsls	r2, r2, #8
   26a92:	1851      	adds	r1, r2, r1
   26a94:	8021      	strh	r1, [r4, #0]
   26a96:	3008      	adds	r0, #8
   26a98:	9908      	ldr	r1, [sp, #32]
   26a9a:	6e09      	ldr	r1, [r1, #96]	@ 0x60
   26a9c:	910a      	str	r1, [sp, #40]	@ 0x28
   26a9e:	4b14      	ldr	r3, [pc, #80]	@ (26af0 <_start+0x28b8>)
   26aa0:	446b      	add	r3, sp
   26aa2:	930b      	str	r3, [sp, #44]	@ 0x2c
   26aa4:	c864      	ldmia	r0!, {r2, r5, r6}
   26aa6:	c364      	stmia	r3!, {r2, r5, r6}
   26aa8:	c866      	ldmia	r0!, {r1, r2, r5, r6}
   26aaa:	c366      	stmia	r3!, {r1, r2, r5, r6}
   26aac:	c866      	ldmia	r0!, {r1, r2, r5, r6}
   26aae:	c366      	stmia	r3!, {r1, r2, r5, r6}
   26ab0:	c866      	ldmia	r0!, {r1, r2, r5, r6}
   26ab2:	c366      	stmia	r3!, {r1, r2, r5, r6}
   26ab4:	7800      	ldrb	r0, [r0, #0]
   26ab6:	7018      	strb	r0, [r3, #0]
   26ab8:	990a      	ldr	r1, [sp, #40]	@ 0x28
   26aba:	0e08      	lsrs	r0, r1, #24
   26abc:	71a0      	strb	r0, [r4, #6]
   26abe:	0c08      	lsrs	r0, r1, #16
   26ac0:	7160      	strb	r0, [r4, #5]
   26ac2:	0a08      	lsrs	r0, r1, #8
   26ac4:	7120      	strb	r0, [r4, #4]
   26ac6:	70e1      	strb	r1, [r4, #3]
   26ac8:	1de0      	adds	r0, r4, #7
   26aca:	223d      	movs	r2, #61	@ 0x3d
   26acc:	990b      	ldr	r1, [sp, #44]	@ 0x2c
   26ace:	f000 fbe4 	bl	2729a <__aeabi_memcpy>
   26ad2:	4d05      	ldr	r5, [pc, #20]	@ (26ae8 <_start+0x28b0>)
   26ad4:	446d      	add	r5, sp
   26ad6:	4628      	mov	r0, r5
   26ad8:	4621      	mov	r1, r4
   26ada:	f7fb f82f 	bl	21b3c <_ZN20complex_full_dynamic3app17h70ef52414198a98cE>
   26ade:	7828      	ldrb	r0, [r5, #0]
   26ae0:	2801      	cmp	r0, #1
   26ae2:	d107      	bne.n	26af4 <_start+0x28bc>
   26ae4:	f7fd fe7d 	bl	247e2 <_start+0x5aa>
   26ae8:	00001404 	.word	0x00001404
   26aec:	000011b4 	.word	0x000011b4
   26af0:	000013a8 	.word	0x000013a8
   26af4:	48fb      	ldr	r0, [pc, #1004]	@ (26ee4 <_start+0x2cac>)
   26af6:	4468      	add	r0, sp
   26af8:	78c1      	ldrb	r1, [r0, #3]
   26afa:	4cfc      	ldr	r4, [pc, #1008]	@ (26eec <_start+0x2cb4>)
   26afc:	446c      	add	r4, sp
   26afe:	70a1      	strb	r1, [r4, #2]
   26b00:	7841      	ldrb	r1, [r0, #1]
   26b02:	7882      	ldrb	r2, [r0, #2]
   26b04:	0212      	lsls	r2, r2, #8
   26b06:	1851      	adds	r1, r2, r1
   26b08:	8021      	strh	r1, [r4, #0]
   26b0a:	3008      	adds	r0, #8
   26b0c:	9908      	ldr	r1, [sp, #32]
   26b0e:	6e09      	ldr	r1, [r1, #96]	@ 0x60
   26b10:	910a      	str	r1, [sp, #40]	@ 0x28
   26b12:	4bf5      	ldr	r3, [pc, #980]	@ (26ee8 <_start+0x2cb0>)
   26b14:	446b      	add	r3, sp
   26b16:	930b      	str	r3, [sp, #44]	@ 0x2c
   26b18:	c864      	ldmia	r0!, {r2, r5, r6}
   26b1a:	c364      	stmia	r3!, {r2, r5, r6}
   26b1c:	c866      	ldmia	r0!, {r1, r2, r5, r6}
   26b1e:	c366      	stmia	r3!, {r1, r2, r5, r6}
   26b20:	990a      	ldr	r1, [sp, #40]	@ 0x28
   26b22:	0e08      	lsrs	r0, r1, #24
   26b24:	71a0      	strb	r0, [r4, #6]
   26b26:	0c08      	lsrs	r0, r1, #16
   26b28:	7160      	strb	r0, [r4, #5]
   26b2a:	0a08      	lsrs	r0, r1, #8
   26b2c:	7120      	strb	r0, [r4, #4]
   26b2e:	70e1      	strb	r1, [r4, #3]
   26b30:	1de0      	adds	r0, r4, #7
   26b32:	221c      	movs	r2, #28
   26b34:	990b      	ldr	r1, [sp, #44]	@ 0x2c
   26b36:	f000 fbb0 	bl	2729a <__aeabi_memcpy>
   26b3a:	4dea      	ldr	r5, [pc, #936]	@ (26ee4 <_start+0x2cac>)
   26b3c:	446d      	add	r5, sp
   26b3e:	4628      	mov	r0, r5
   26b40:	4621      	mov	r1, r4
   26b42:	f7fc f9c3 	bl	22ecc <_ZN20complex_full_dynamic3app17habba4dc8613e832fE>
   26b46:	7828      	ldrb	r0, [r5, #0]
   26b48:	2801      	cmp	r0, #1
   26b4a:	d101      	bne.n	26b50 <_start+0x2918>
   26b4c:	f7fd fe49 	bl	247e2 <_start+0x5aa>
   26b50:	48e4      	ldr	r0, [pc, #912]	@ (26ee4 <_start+0x2cac>)
   26b52:	4468      	add	r0, sp
   26b54:	78c1      	ldrb	r1, [r0, #3]
   26b56:	4ce6      	ldr	r4, [pc, #920]	@ (26ef0 <_start+0x2cb8>)
   26b58:	446c      	add	r4, sp
   26b5a:	70a1      	strb	r1, [r4, #2]
   26b5c:	7841      	ldrb	r1, [r0, #1]
   26b5e:	7882      	ldrb	r2, [r0, #2]
   26b60:	0212      	lsls	r2, r2, #8
   26b62:	1851      	adds	r1, r2, r1
   26b64:	8021      	strh	r1, [r4, #0]
   26b66:	3008      	adds	r0, #8
   26b68:	9908      	ldr	r1, [sp, #32]
   26b6a:	6e09      	ldr	r1, [r1, #96]	@ 0x60
   26b6c:	910a      	str	r1, [sp, #40]	@ 0x28
   26b6e:	4bde      	ldr	r3, [pc, #888]	@ (26ee8 <_start+0x2cb0>)
   26b70:	446b      	add	r3, sp
   26b72:	930b      	str	r3, [sp, #44]	@ 0x2c
   26b74:	c864      	ldmia	r0!, {r2, r5, r6}
   26b76:	c364      	stmia	r3!, {r2, r5, r6}
   26b78:	c866      	ldmia	r0!, {r1, r2, r5, r6}
   26b7a:	c366      	stmia	r3!, {r1, r2, r5, r6}
   26b7c:	7800      	ldrb	r0, [r0, #0]
   26b7e:	7018      	strb	r0, [r3, #0]
   26b80:	990a      	ldr	r1, [sp, #40]	@ 0x28
   26b82:	0e08      	lsrs	r0, r1, #24
   26b84:	71a0      	strb	r0, [r4, #6]
   26b86:	0c08      	lsrs	r0, r1, #16
   26b88:	7160      	strb	r0, [r4, #5]
   26b8a:	0a08      	lsrs	r0, r1, #8
   26b8c:	7120      	strb	r0, [r4, #4]
   26b8e:	70e1      	strb	r1, [r4, #3]
   26b90:	1de0      	adds	r0, r4, #7
   26b92:	221d      	movs	r2, #29
   26b94:	990b      	ldr	r1, [sp, #44]	@ 0x2c
   26b96:	f000 fb80 	bl	2729a <__aeabi_memcpy>
   26b9a:	4dd2      	ldr	r5, [pc, #840]	@ (26ee4 <_start+0x2cac>)
   26b9c:	446d      	add	r5, sp
   26b9e:	4628      	mov	r0, r5
   26ba0:	4621      	mov	r1, r4
   26ba2:	f7fb f8d9 	bl	21d58 <_ZN20complex_full_dynamic3app17h75f3dd29b0f1adc6E>
   26ba6:	7828      	ldrb	r0, [r5, #0]
   26ba8:	2801      	cmp	r0, #1
   26baa:	d101      	bne.n	26bb0 <_start+0x2978>
   26bac:	f7fd fe19 	bl	247e2 <_start+0x5aa>
   26bb0:	48cc      	ldr	r0, [pc, #816]	@ (26ee4 <_start+0x2cac>)
   26bb2:	4468      	add	r0, sp
   26bb4:	78c1      	ldrb	r1, [r0, #3]
   26bb6:	4ccf      	ldr	r4, [pc, #828]	@ (26ef4 <_start+0x2cbc>)
   26bb8:	446c      	add	r4, sp
   26bba:	70a1      	strb	r1, [r4, #2]
   26bbc:	7841      	ldrb	r1, [r0, #1]
   26bbe:	7882      	ldrb	r2, [r0, #2]
   26bc0:	0212      	lsls	r2, r2, #8
   26bc2:	1851      	adds	r1, r2, r1
   26bc4:	8021      	strh	r1, [r4, #0]
   26bc6:	3008      	adds	r0, #8
   26bc8:	9908      	ldr	r1, [sp, #32]
   26bca:	6e09      	ldr	r1, [r1, #96]	@ 0x60
   26bcc:	910a      	str	r1, [sp, #40]	@ 0x28
   26bce:	4bc6      	ldr	r3, [pc, #792]	@ (26ee8 <_start+0x2cb0>)
   26bd0:	446b      	add	r3, sp
   26bd2:	930b      	str	r3, [sp, #44]	@ 0x2c
   26bd4:	c864      	ldmia	r0!, {r2, r5, r6}
   26bd6:	c364      	stmia	r3!, {r2, r5, r6}
   26bd8:	c864      	ldmia	r0!, {r2, r5, r6}
   26bda:	c364      	stmia	r3!, {r2, r5, r6}
   26bdc:	c866      	ldmia	r0!, {r1, r2, r5, r6}
   26bde:	c366      	stmia	r3!, {r1, r2, r5, r6}
   26be0:	990a      	ldr	r1, [sp, #40]	@ 0x28
   26be2:	0e08      	lsrs	r0, r1, #24
   26be4:	71a0      	strb	r0, [r4, #6]
   26be6:	0c08      	lsrs	r0, r1, #16
   26be8:	7160      	strb	r0, [r4, #5]
   26bea:	0a08      	lsrs	r0, r1, #8
   26bec:	7120      	strb	r0, [r4, #4]
   26bee:	70e1      	strb	r1, [r4, #3]
   26bf0:	1de0      	adds	r0, r4, #7
   26bf2:	2228      	movs	r2, #40	@ 0x28
   26bf4:	990b      	ldr	r1, [sp, #44]	@ 0x2c
   26bf6:	f000 fb50 	bl	2729a <__aeabi_memcpy>
   26bfa:	4dba      	ldr	r5, [pc, #744]	@ (26ee4 <_start+0x2cac>)
   26bfc:	446d      	add	r5, sp
   26bfe:	4628      	mov	r0, r5
   26c00:	4621      	mov	r1, r4
   26c02:	f7fc fcdd 	bl	235c0 <_ZN20complex_full_dynamic3app17hc60753b66cce155cE>
   26c06:	7828      	ldrb	r0, [r5, #0]
   26c08:	2801      	cmp	r0, #1
   26c0a:	d101      	bne.n	26c10 <_start+0x29d8>
   26c0c:	f7fd fde9 	bl	247e2 <_start+0x5aa>
   26c10:	49b4      	ldr	r1, [pc, #720]	@ (26ee4 <_start+0x2cac>)
   26c12:	4469      	add	r1, sp
   26c14:	78c8      	ldrb	r0, [r1, #3]
   26c16:	4cb8      	ldr	r4, [pc, #736]	@ (26ef8 <_start+0x2cc0>)
   26c18:	446c      	add	r4, sp
   26c1a:	70a0      	strb	r0, [r4, #2]
   26c1c:	7848      	ldrb	r0, [r1, #1]
   26c1e:	788a      	ldrb	r2, [r1, #2]
   26c20:	0212      	lsls	r2, r2, #8
   26c22:	1810      	adds	r0, r2, r0
   26c24:	8020      	strh	r0, [r4, #0]
   26c26:	9808      	ldr	r0, [sp, #32]
   26c28:	6e05      	ldr	r5, [r0, #96]	@ 0x60
   26c2a:	3108      	adds	r1, #8
   26c2c:	48ae      	ldr	r0, [pc, #696]	@ (26ee8 <_start+0x2cb0>)
   26c2e:	4468      	add	r0, sp
   26c30:	900b      	str	r0, [sp, #44]	@ 0x2c
   26c32:	2657      	movs	r6, #87	@ 0x57
   26c34:	4632      	mov	r2, r6
   26c36:	f000 f9d0 	bl	26fda <__aeabi_memcpy4>
   26c3a:	0e28      	lsrs	r0, r5, #24
   26c3c:	71a0      	strb	r0, [r4, #6]
   26c3e:	0c28      	lsrs	r0, r5, #16
   26c40:	7160      	strb	r0, [r4, #5]
   26c42:	0a28      	lsrs	r0, r5, #8
   26c44:	7120      	strb	r0, [r4, #4]
   26c46:	70e5      	strb	r5, [r4, #3]
   26c48:	1de0      	adds	r0, r4, #7
   26c4a:	990b      	ldr	r1, [sp, #44]	@ 0x2c
   26c4c:	4632      	mov	r2, r6
   26c4e:	f000 fb24 	bl	2729a <__aeabi_memcpy>
   26c52:	4da4      	ldr	r5, [pc, #656]	@ (26ee4 <_start+0x2cac>)
   26c54:	446d      	add	r5, sp
   26c56:	4628      	mov	r0, r5
   26c58:	4621      	mov	r1, r4
   26c5a:	f7fa f989 	bl	20f70 <_ZN20complex_full_dynamic3app17h3e7061a568b231beE>
   26c5e:	7828      	ldrb	r0, [r5, #0]
   26c60:	2801      	cmp	r0, #1
   26c62:	d101      	bne.n	26c68 <_start+0x2a30>
   26c64:	f7fd fdbd 	bl	247e2 <_start+0x5aa>
   26c68:	499e      	ldr	r1, [pc, #632]	@ (26ee4 <_start+0x2cac>)
   26c6a:	4469      	add	r1, sp
   26c6c:	78c8      	ldrb	r0, [r1, #3]
   26c6e:	4ca3      	ldr	r4, [pc, #652]	@ (26efc <_start+0x2cc4>)
   26c70:	446c      	add	r4, sp
   26c72:	70a0      	strb	r0, [r4, #2]
   26c74:	7848      	ldrb	r0, [r1, #1]
   26c76:	788a      	ldrb	r2, [r1, #2]
   26c78:	0212      	lsls	r2, r2, #8
   26c7a:	1810      	adds	r0, r2, r0
   26c7c:	8020      	strh	r0, [r4, #0]
   26c7e:	9808      	ldr	r0, [sp, #32]
   26c80:	6e05      	ldr	r5, [r0, #96]	@ 0x60
   26c82:	3108      	adds	r1, #8
   26c84:	4898      	ldr	r0, [pc, #608]	@ (26ee8 <_start+0x2cb0>)
   26c86:	4468      	add	r0, sp
   26c88:	900b      	str	r0, [sp, #44]	@ 0x2c
   26c8a:	264e      	movs	r6, #78	@ 0x4e
   26c8c:	4632      	mov	r2, r6
   26c8e:	f000 f9a4 	bl	26fda <__aeabi_memcpy4>
   26c92:	0e28      	lsrs	r0, r5, #24
   26c94:	71a0      	strb	r0, [r4, #6]
   26c96:	0c28      	lsrs	r0, r5, #16
   26c98:	7160      	strb	r0, [r4, #5]
   26c9a:	0a28      	lsrs	r0, r5, #8
   26c9c:	7120      	strb	r0, [r4, #4]
   26c9e:	70e5      	strb	r5, [r4, #3]
   26ca0:	1de0      	adds	r0, r4, #7
   26ca2:	990b      	ldr	r1, [sp, #44]	@ 0x2c
   26ca4:	4632      	mov	r2, r6
   26ca6:	f000 faf8 	bl	2729a <__aeabi_memcpy>
   26caa:	4d8e      	ldr	r5, [pc, #568]	@ (26ee4 <_start+0x2cac>)
   26cac:	446d      	add	r5, sp
   26cae:	4628      	mov	r0, r5
   26cb0:	4621      	mov	r1, r4
   26cb2:	f7fb f95f 	bl	21f74 <_ZN20complex_full_dynamic3app17h7feab207cc38593eE>
   26cb6:	7828      	ldrb	r0, [r5, #0]
   26cb8:	2801      	cmp	r0, #1
   26cba:	d101      	bne.n	26cc0 <_start+0x2a88>
   26cbc:	f7fd fd91 	bl	247e2 <_start+0x5aa>
   26cc0:	4989      	ldr	r1, [pc, #548]	@ (26ee8 <_start+0x2cb0>)
   26cc2:	4469      	add	r1, sp
   26cc4:	9b08      	ldr	r3, [sp, #32]
   26cc6:	6ed8      	ldr	r0, [r3, #108]	@ 0x6c
   26cc8:	8108      	strh	r0, [r1, #8]
   26cca:	4886      	ldr	r0, [pc, #536]	@ (26ee4 <_start+0x2cac>)
   26ccc:	4468      	add	r0, sp
   26cce:	78c2      	ldrb	r2, [r0, #3]
   26cd0:	4c8b      	ldr	r4, [pc, #556]	@ (26f00 <_start+0x2cc8>)
   26cd2:	446c      	add	r4, sp
   26cd4:	70a2      	strb	r2, [r4, #2]
   26cd6:	7842      	ldrb	r2, [r0, #1]
   26cd8:	7880      	ldrb	r0, [r0, #2]
   26cda:	0200      	lsls	r0, r0, #8
   26cdc:	1880      	adds	r0, r0, r2
   26cde:	8020      	strh	r0, [r4, #0]
   26ce0:	6e18      	ldr	r0, [r3, #96]	@ 0x60
   26ce2:	70e0      	strb	r0, [r4, #3]
   26ce4:	0e02      	lsrs	r2, r0, #24
   26ce6:	71a2      	strb	r2, [r4, #6]
   26ce8:	0c02      	lsrs	r2, r0, #16
   26cea:	7162      	strb	r2, [r4, #5]
   26cec:	0a00      	lsrs	r0, r0, #8
   26cee:	7120      	strb	r0, [r4, #4]
   26cf0:	6e58      	ldr	r0, [r3, #100]	@ 0x64
   26cf2:	6e9a      	ldr	r2, [r3, #104]	@ 0x68
   26cf4:	c305      	stmia	r3!, {r0, r2}
   26cf6:	1de0      	adds	r0, r4, #7
   26cf8:	220a      	movs	r2, #10
   26cfa:	f000 face 	bl	2729a <__aeabi_memcpy>
   26cfe:	4d79      	ldr	r5, [pc, #484]	@ (26ee4 <_start+0x2cac>)
   26d00:	446d      	add	r5, sp
   26d02:	4628      	mov	r0, r5
   26d04:	4621      	mov	r1, r4
   26d06:	f7fc faf9 	bl	232fc <_ZN20complex_full_dynamic3app17hb996adb604710b2eE>
   26d0a:	7828      	ldrb	r0, [r5, #0]
   26d0c:	2801      	cmp	r0, #1
   26d0e:	d101      	bne.n	26d14 <_start+0x2adc>
   26d10:	f7fd fd67 	bl	247e2 <_start+0x5aa>
   26d14:	4973      	ldr	r1, [pc, #460]	@ (26ee4 <_start+0x2cac>)
   26d16:	4469      	add	r1, sp
   26d18:	78c8      	ldrb	r0, [r1, #3]
   26d1a:	4c7a      	ldr	r4, [pc, #488]	@ (26f04 <_start+0x2ccc>)
   26d1c:	446c      	add	r4, sp
   26d1e:	70a0      	strb	r0, [r4, #2]
   26d20:	7848      	ldrb	r0, [r1, #1]
   26d22:	788a      	ldrb	r2, [r1, #2]
   26d24:	0212      	lsls	r2, r2, #8
   26d26:	1810      	adds	r0, r2, r0
   26d28:	8020      	strh	r0, [r4, #0]
   26d2a:	9808      	ldr	r0, [sp, #32]
   26d2c:	6e05      	ldr	r5, [r0, #96]	@ 0x60
   26d2e:	3108      	adds	r1, #8
   26d30:	486d      	ldr	r0, [pc, #436]	@ (26ee8 <_start+0x2cb0>)
   26d32:	4468      	add	r0, sp
   26d34:	900b      	str	r0, [sp, #44]	@ 0x2c
   26d36:	2649      	movs	r6, #73	@ 0x49
   26d38:	4632      	mov	r2, r6
   26d3a:	f000 f94e 	bl	26fda <__aeabi_memcpy4>
   26d3e:	0e28      	lsrs	r0, r5, #24
   26d40:	71a0      	strb	r0, [r4, #6]
   26d42:	0c28      	lsrs	r0, r5, #16
   26d44:	7160      	strb	r0, [r4, #5]
   26d46:	0a28      	lsrs	r0, r5, #8
   26d48:	7120      	strb	r0, [r4, #4]
   26d4a:	70e5      	strb	r5, [r4, #3]
   26d4c:	1de0      	adds	r0, r4, #7
   26d4e:	990b      	ldr	r1, [sp, #44]	@ 0x2c
   26d50:	4632      	mov	r2, r6
   26d52:	f000 faa2 	bl	2729a <__aeabi_memcpy>
   26d56:	4d63      	ldr	r5, [pc, #396]	@ (26ee4 <_start+0x2cac>)
   26d58:	446d      	add	r5, sp
   26d5a:	4628      	mov	r0, r5
   26d5c:	4621      	mov	r1, r4
   26d5e:	f7fb fffb 	bl	22d58 <_ZN20complex_full_dynamic3app17ha1c93571a5fdb483E>
   26d62:	7828      	ldrb	r0, [r5, #0]
   26d64:	2801      	cmp	r0, #1
   26d66:	d101      	bne.n	26d6c <_start+0x2b34>
   26d68:	f7fd fd3b 	bl	247e2 <_start+0x5aa>
   26d6c:	485d      	ldr	r0, [pc, #372]	@ (26ee4 <_start+0x2cac>)
   26d6e:	4468      	add	r0, sp
   26d70:	78c1      	ldrb	r1, [r0, #3]
   26d72:	4c65      	ldr	r4, [pc, #404]	@ (26f08 <_start+0x2cd0>)
   26d74:	446c      	add	r4, sp
   26d76:	70a1      	strb	r1, [r4, #2]
   26d78:	7841      	ldrb	r1, [r0, #1]
   26d7a:	7882      	ldrb	r2, [r0, #2]
   26d7c:	0212      	lsls	r2, r2, #8
   26d7e:	1851      	adds	r1, r2, r1
   26d80:	8021      	strh	r1, [r4, #0]
   26d82:	3008      	adds	r0, #8
   26d84:	9908      	ldr	r1, [sp, #32]
   26d86:	6e09      	ldr	r1, [r1, #96]	@ 0x60
   26d88:	4b57      	ldr	r3, [pc, #348]	@ (26ee8 <_start+0x2cb0>)
   26d8a:	446b      	add	r3, sp
   26d8c:	930b      	str	r3, [sp, #44]	@ 0x2c
   26d8e:	c860      	ldmia	r0!, {r5, r6}
   26d90:	c360      	stmia	r3!, {r5, r6}
   26d92:	c864      	ldmia	r0!, {r2, r5, r6}
   26d94:	c364      	stmia	r3!, {r2, r5, r6}
   26d96:	0e08      	lsrs	r0, r1, #24
   26d98:	71a0      	strb	r0, [r4, #6]
   26d9a:	0c08      	lsrs	r0, r1, #16
   26d9c:	7160      	strb	r0, [r4, #5]
   26d9e:	0a08      	lsrs	r0, r1, #8
   26da0:	7120      	strb	r0, [r4, #4]
   26da2:	70e1      	strb	r1, [r4, #3]
   26da4:	1de0      	adds	r0, r4, #7
   26da6:	2214      	movs	r2, #20
   26da8:	990b      	ldr	r1, [sp, #44]	@ 0x2c
   26daa:	f000 fa76 	bl	2729a <__aeabi_memcpy>
   26dae:	4d4d      	ldr	r5, [pc, #308]	@ (26ee4 <_start+0x2cac>)
   26db0:	446d      	add	r5, sp
   26db2:	4628      	mov	r0, r5
   26db4:	4621      	mov	r1, r4
   26db6:	f7fc f997 	bl	230e8 <_ZN20complex_full_dynamic3app17hb26bea5adc2cfc68E>
   26dba:	7828      	ldrb	r0, [r5, #0]
   26dbc:	2801      	cmp	r0, #1
   26dbe:	d101      	bne.n	26dc4 <_start+0x2b8c>
   26dc0:	f7fd fd0f 	bl	247e2 <_start+0x5aa>
   26dc4:	4947      	ldr	r1, [pc, #284]	@ (26ee4 <_start+0x2cac>)
   26dc6:	4469      	add	r1, sp
   26dc8:	78c8      	ldrb	r0, [r1, #3]
   26dca:	4c50      	ldr	r4, [pc, #320]	@ (26f0c <_start+0x2cd4>)
   26dcc:	446c      	add	r4, sp
   26dce:	70a0      	strb	r0, [r4, #2]
   26dd0:	7848      	ldrb	r0, [r1, #1]
   26dd2:	788a      	ldrb	r2, [r1, #2]
   26dd4:	0212      	lsls	r2, r2, #8
   26dd6:	1810      	adds	r0, r2, r0
   26dd8:	8020      	strh	r0, [r4, #0]
   26dda:	9808      	ldr	r0, [sp, #32]
   26ddc:	6e05      	ldr	r5, [r0, #96]	@ 0x60
   26dde:	3108      	adds	r1, #8
   26de0:	4841      	ldr	r0, [pc, #260]	@ (26ee8 <_start+0x2cb0>)
   26de2:	4468      	add	r0, sp
   26de4:	900b      	str	r0, [sp, #44]	@ 0x2c
   26de6:	265c      	movs	r6, #92	@ 0x5c
   26de8:	4632      	mov	r2, r6
   26dea:	f000 f8f6 	bl	26fda <__aeabi_memcpy4>
   26dee:	0e28      	lsrs	r0, r5, #24
   26df0:	71a0      	strb	r0, [r4, #6]
   26df2:	0c28      	lsrs	r0, r5, #16
   26df4:	7160      	strb	r0, [r4, #5]
   26df6:	0a28      	lsrs	r0, r5, #8
   26df8:	7120      	strb	r0, [r4, #4]
   26dfa:	70e5      	strb	r5, [r4, #3]
   26dfc:	1de0      	adds	r0, r4, #7
   26dfe:	990b      	ldr	r1, [sp, #44]	@ 0x2c
   26e00:	4632      	mov	r2, r6
   26e02:	f000 fa4a 	bl	2729a <__aeabi_memcpy>
   26e06:	4d37      	ldr	r5, [pc, #220]	@ (26ee4 <_start+0x2cac>)
   26e08:	446d      	add	r5, sp
   26e0a:	4628      	mov	r0, r5
   26e0c:	4621      	mov	r1, r4
   26e0e:	f7fb ff4b 	bl	22ca8 <_ZN20complex_full_dynamic3app17h9f49336c2fb8e33aE>
   26e12:	7828      	ldrb	r0, [r5, #0]
   26e14:	2801      	cmp	r0, #1
   26e16:	d101      	bne.n	26e1c <_start+0x2be4>
   26e18:	f7fd fce3 	bl	247e2 <_start+0x5aa>
   26e1c:	4831      	ldr	r0, [pc, #196]	@ (26ee4 <_start+0x2cac>)
   26e1e:	4468      	add	r0, sp
   26e20:	78c1      	ldrb	r1, [r0, #3]
   26e22:	4c3b      	ldr	r4, [pc, #236]	@ (26f10 <_start+0x2cd8>)
   26e24:	446c      	add	r4, sp
   26e26:	70a1      	strb	r1, [r4, #2]
   26e28:	7841      	ldrb	r1, [r0, #1]
   26e2a:	7882      	ldrb	r2, [r0, #2]
   26e2c:	0212      	lsls	r2, r2, #8
   26e2e:	1851      	adds	r1, r2, r1
   26e30:	8021      	strh	r1, [r4, #0]
   26e32:	3008      	adds	r0, #8
   26e34:	9908      	ldr	r1, [sp, #32]
   26e36:	6e09      	ldr	r1, [r1, #96]	@ 0x60
   26e38:	4b2b      	ldr	r3, [pc, #172]	@ (26ee8 <_start+0x2cb0>)
   26e3a:	446b      	add	r3, sp
   26e3c:	930b      	str	r3, [sp, #44]	@ 0x2c
   26e3e:	c864      	ldmia	r0!, {r2, r5, r6}
   26e40:	c364      	stmia	r3!, {r2, r5, r6}
   26e42:	c864      	ldmia	r0!, {r2, r5, r6}
   26e44:	c364      	stmia	r3!, {r2, r5, r6}
   26e46:	c864      	ldmia	r0!, {r2, r5, r6}
   26e48:	c364      	stmia	r3!, {r2, r5, r6}
   26e4a:	7800      	ldrb	r0, [r0, #0]
   26e4c:	7018      	strb	r0, [r3, #0]
   26e4e:	0e08      	lsrs	r0, r1, #24
   26e50:	71a0      	strb	r0, [r4, #6]
   26e52:	0c08      	lsrs	r0, r1, #16
   26e54:	7160      	strb	r0, [r4, #5]
   26e56:	0a08      	lsrs	r0, r1, #8
   26e58:	7120      	strb	r0, [r4, #4]
   26e5a:	70e1      	strb	r1, [r4, #3]
   26e5c:	1de0      	adds	r0, r4, #7
   26e5e:	2225      	movs	r2, #37	@ 0x25
   26e60:	990b      	ldr	r1, [sp, #44]	@ 0x2c
   26e62:	f000 fa1a 	bl	2729a <__aeabi_memcpy>
   26e66:	4d1f      	ldr	r5, [pc, #124]	@ (26ee4 <_start+0x2cac>)
   26e68:	446d      	add	r5, sp
   26e6a:	4628      	mov	r0, r5
   26e6c:	4621      	mov	r1, r4
   26e6e:	f7fc ffcf 	bl	23e10 <_ZN20complex_full_dynamic3app17hf0d64dd72376abf6E>
   26e72:	7828      	ldrb	r0, [r5, #0]
   26e74:	2801      	cmp	r0, #1
   26e76:	d101      	bne.n	26e7c <_start+0x2c44>
   26e78:	f7fd fcb3 	bl	247e2 <_start+0x5aa>
   26e7c:	4819      	ldr	r0, [pc, #100]	@ (26ee4 <_start+0x2cac>)
   26e7e:	4468      	add	r0, sp
   26e80:	78c1      	ldrb	r1, [r0, #3]
   26e82:	4c24      	ldr	r4, [pc, #144]	@ (26f14 <_start+0x2cdc>)
   26e84:	446c      	add	r4, sp
   26e86:	70a1      	strb	r1, [r4, #2]
   26e88:	7841      	ldrb	r1, [r0, #1]
   26e8a:	7882      	ldrb	r2, [r0, #2]
   26e8c:	0212      	lsls	r2, r2, #8
   26e8e:	1851      	adds	r1, r2, r1
   26e90:	8021      	strh	r1, [r4, #0]
   26e92:	3008      	adds	r0, #8
   26e94:	9908      	ldr	r1, [sp, #32]
   26e96:	6e09      	ldr	r1, [r1, #96]	@ 0x60
   26e98:	910a      	str	r1, [sp, #40]	@ 0x28
   26e9a:	4b13      	ldr	r3, [pc, #76]	@ (26ee8 <_start+0x2cb0>)
   26e9c:	446b      	add	r3, sp
   26e9e:	930b      	str	r3, [sp, #44]	@ 0x2c
   26ea0:	c866      	ldmia	r0!, {r1, r2, r5, r6}
   26ea2:	c366      	stmia	r3!, {r1, r2, r5, r6}
   26ea4:	c866      	ldmia	r0!, {r1, r2, r5, r6}
   26ea6:	c366      	stmia	r3!, {r1, r2, r5, r6}
   26ea8:	8801      	ldrh	r1, [r0, #0]
   26eaa:	8019      	strh	r1, [r3, #0]
   26eac:	7880      	ldrb	r0, [r0, #2]
   26eae:	7098      	strb	r0, [r3, #2]
   26eb0:	990a      	ldr	r1, [sp, #40]	@ 0x28
   26eb2:	0e08      	lsrs	r0, r1, #24
   26eb4:	71a0      	strb	r0, [r4, #6]
   26eb6:	0c08      	lsrs	r0, r1, #16
   26eb8:	7160      	strb	r0, [r4, #5]
   26eba:	0a08      	lsrs	r0, r1, #8
   26ebc:	7120      	strb	r0, [r4, #4]
   26ebe:	70e1      	strb	r1, [r4, #3]
   26ec0:	1de0      	adds	r0, r4, #7
   26ec2:	2223      	movs	r2, #35	@ 0x23
   26ec4:	990b      	ldr	r1, [sp, #44]	@ 0x2c
   26ec6:	f000 f9e8 	bl	2729a <__aeabi_memcpy>
   26eca:	4d06      	ldr	r5, [pc, #24]	@ (26ee4 <_start+0x2cac>)
   26ecc:	446d      	add	r5, sp
   26ece:	4628      	mov	r0, r5
   26ed0:	4621      	mov	r1, r4
   26ed2:	f7fa fc1b 	bl	2170c <_ZN20complex_full_dynamic3app17h61414c44488acf88E>
   26ed6:	7828      	ldrb	r0, [r5, #0]
   26ed8:	9908      	ldr	r1, [sp, #32]
   26eda:	6e09      	ldr	r1, [r1, #96]	@ 0x60
   26edc:	910b      	str	r1, [sp, #44]	@ 0x2c
   26ede:	f7fd fc84 	bl	247ea <_start+0x5b2>
   26ee2:	46c0      	nop			@ (mov r8, r8)
   26ee4:	00001404 	.word	0x00001404
   26ee8:	000013a8 	.word	0x000013a8
   26eec:	000011f8 	.word	0x000011f8
   26ef0:	0000121c 	.word	0x0000121c
   26ef4:	00001240 	.word	0x00001240
   26ef8:	00001270 	.word	0x00001270
   26efc:	000012d0 	.word	0x000012d0
   26f00:	00001328 	.word	0x00001328
   26f04:	0000133c 	.word	0x0000133c
   26f08:	0000138c 	.word	0x0000138c
   26f0c:	00001468 	.word	0x00001468
   26f10:	000014cc 	.word	0x000014cc
   26f14:	000014f8 	.word	0x000014f8

00026f18 <_ZN9allow_pin12full_dynamic17unshare_if_shared17hc1e7d593d40bae1cE>:
   26f18:	b5d0      	push	{r4, r6, r7, lr}
   26f1a:	af02      	add	r7, sp, #8
   26f1c:	7a02      	ldrb	r2, [r0, #8]
   26f1e:	2a02      	cmp	r2, #2
   26f20:	d00d      	beq.n	26f3e <_ZN9allow_pin12full_dynamic17unshare_if_shared17hc1e7d593d40bae1cE+0x26>
   26f22:	4604      	mov	r4, r0
   26f24:	6800      	ldr	r0, [r0, #0]
   26f26:	6861      	ldr	r1, [r4, #4]
   26f28:	2a03      	cmp	r2, #3
   26f2a:	d103      	bne.n	26f34 <_ZN9allow_pin12full_dynamic17unshare_if_shared17hc1e7d593d40bae1cE+0x1c>
   26f2c:	2200      	movs	r2, #0
   26f2e:	4613      	mov	r3, r2
   26f30:	df03      	svc	3
   26f32:	e002      	b.n	26f3a <_ZN9allow_pin12full_dynamic17unshare_if_shared17hc1e7d593d40bae1cE+0x22>
   26f34:	2200      	movs	r2, #0
   26f36:	4613      	mov	r3, r2
   26f38:	df04      	svc	4
   26f3a:	2002      	movs	r0, #2
   26f3c:	7220      	strb	r0, [r4, #8]
   26f3e:	bdd0      	pop	{r4, r6, r7, pc}

00026f40 <__aeabi_memclr4>:
   26f40:	b5f0      	push	{r4, r5, r6, r7, lr}
   26f42:	af03      	add	r7, sp, #12
   26f44:	2904      	cmp	r1, #4
   26f46:	d311      	bcc.n	26f6c <__aeabi_memclr4+0x2c>
   26f48:	1f0c      	subs	r4, r1, #4
   26f4a:	250c      	movs	r5, #12
   26f4c:	4025      	ands	r5, r4
   26f4e:	2d0c      	cmp	r5, #12
   26f50:	d012      	beq.n	26f78 <__aeabi_memclr4+0x38>
   26f52:	2600      	movs	r6, #0
   26f54:	4602      	mov	r2, r0
   26f56:	c240      	stmia	r2!, {r6}
   26f58:	0723      	lsls	r3, r4, #28
   26f5a:	0f9b      	lsrs	r3, r3, #30
   26f5c:	4623      	mov	r3, r4
   26f5e:	d00d      	beq.n	26f7c <__aeabi_memclr4+0x3c>
   26f60:	6046      	str	r6, [r0, #4]
   26f62:	2d04      	cmp	r5, #4
   26f64:	d105      	bne.n	26f72 <__aeabi_memclr4+0x32>
   26f66:	3908      	subs	r1, #8
   26f68:	3008      	adds	r0, #8
   26f6a:	e005      	b.n	26f78 <__aeabi_memclr4+0x38>
   26f6c:	460b      	mov	r3, r1
   26f6e:	4602      	mov	r2, r0
   26f70:	e00f      	b.n	26f92 <__aeabi_memclr4+0x52>
   26f72:	6086      	str	r6, [r0, #8]
   26f74:	390c      	subs	r1, #12
   26f76:	300c      	adds	r0, #12
   26f78:	4602      	mov	r2, r0
   26f7a:	460b      	mov	r3, r1
   26f7c:	2c0c      	cmp	r4, #12
   26f7e:	d308      	bcc.n	26f92 <__aeabi_memclr4+0x52>
   26f80:	2000      	movs	r0, #0
   26f82:	6010      	str	r0, [r2, #0]
   26f84:	6050      	str	r0, [r2, #4]
   26f86:	6090      	str	r0, [r2, #8]
   26f88:	60d0      	str	r0, [r2, #12]
   26f8a:	3210      	adds	r2, #16
   26f8c:	3b10      	subs	r3, #16
   26f8e:	2b03      	cmp	r3, #3
   26f90:	d8f6      	bhi.n	26f80 <__aeabi_memclr4+0x40>
   26f92:	18d0      	adds	r0, r2, r3
   26f94:	4282      	cmp	r2, r0
   26f96:	d21a      	bcs.n	26fce <__aeabi_memclr4+0x8e>
   26f98:	2403      	movs	r4, #3
   26f9a:	401c      	ands	r4, r3
   26f9c:	1e59      	subs	r1, r3, #1
   26f9e:	2c00      	cmp	r4, #0
   26fa0:	d00b      	beq.n	26fba <__aeabi_memclr4+0x7a>
   26fa2:	2300      	movs	r3, #0
   26fa4:	7013      	strb	r3, [r2, #0]
   26fa6:	2c01      	cmp	r4, #1
   26fa8:	d103      	bne.n	26fb2 <__aeabi_memclr4+0x72>
   26faa:	1c52      	adds	r2, r2, #1
   26fac:	2903      	cmp	r1, #3
   26fae:	d206      	bcs.n	26fbe <__aeabi_memclr4+0x7e>
   26fb0:	e00d      	b.n	26fce <__aeabi_memclr4+0x8e>
   26fb2:	7053      	strb	r3, [r2, #1]
   26fb4:	2c02      	cmp	r4, #2
   26fb6:	d10b      	bne.n	26fd0 <__aeabi_memclr4+0x90>
   26fb8:	1c92      	adds	r2, r2, #2
   26fba:	2903      	cmp	r1, #3
   26fbc:	d307      	bcc.n	26fce <__aeabi_memclr4+0x8e>
   26fbe:	2100      	movs	r1, #0
   26fc0:	70d1      	strb	r1, [r2, #3]
   26fc2:	7091      	strb	r1, [r2, #2]
   26fc4:	7051      	strb	r1, [r2, #1]
   26fc6:	7011      	strb	r1, [r2, #0]
   26fc8:	1d12      	adds	r2, r2, #4
   26fca:	4282      	cmp	r2, r0
   26fcc:	d1f7      	bne.n	26fbe <__aeabi_memclr4+0x7e>
   26fce:	bdf0      	pop	{r4, r5, r6, r7, pc}
   26fd0:	7093      	strb	r3, [r2, #2]
   26fd2:	1cd2      	adds	r2, r2, #3
   26fd4:	2903      	cmp	r1, #3
   26fd6:	d2f2      	bcs.n	26fbe <__aeabi_memclr4+0x7e>
   26fd8:	e7f9      	b.n	26fce <__aeabi_memclr4+0x8e>

00026fda <__aeabi_memcpy4>:
   26fda:	b5f0      	push	{r4, r5, r6, r7, lr}
   26fdc:	af03      	add	r7, sp, #12
   26fde:	b081      	sub	sp, #4
   26fe0:	2a04      	cmp	r2, #4
   26fe2:	d32d      	bcc.n	27040 <__aeabi_memcpy4+0x66>
   26fe4:	1f13      	subs	r3, r2, #4
   26fe6:	250c      	movs	r5, #12
   26fe8:	401d      	ands	r5, r3
   26fea:	2d0c      	cmp	r5, #12
   26fec:	d019      	beq.n	27022 <__aeabi_memcpy4+0x48>
   26fee:	9200      	str	r2, [sp, #0]
   26ff0:	460e      	mov	r6, r1
   26ff2:	c904      	ldmia	r1!, {r2}
   26ff4:	4604      	mov	r4, r0
   26ff6:	c004      	stmia	r0!, {r2}
   26ff8:	071a      	lsls	r2, r3, #28
   26ffa:	0f92      	lsrs	r2, r2, #30
   26ffc:	461a      	mov	r2, r3
   26ffe:	d010      	beq.n	27022 <__aeabi_memcpy4+0x48>
   27000:	4631      	mov	r1, r6
   27002:	6872      	ldr	r2, [r6, #4]
   27004:	6062      	str	r2, [r4, #4]
   27006:	2d04      	cmp	r5, #4
   27008:	d104      	bne.n	27014 <__aeabi_memcpy4+0x3a>
   2700a:	9a00      	ldr	r2, [sp, #0]
   2700c:	3a08      	subs	r2, #8
   2700e:	3108      	adds	r1, #8
   27010:	3408      	adds	r4, #8
   27012:	e005      	b.n	27020 <__aeabi_memcpy4+0x46>
   27014:	688a      	ldr	r2, [r1, #8]
   27016:	60a2      	str	r2, [r4, #8]
   27018:	9a00      	ldr	r2, [sp, #0]
   2701a:	3a0c      	subs	r2, #12
   2701c:	310c      	adds	r1, #12
   2701e:	340c      	adds	r4, #12
   27020:	4620      	mov	r0, r4
   27022:	2b0c      	cmp	r3, #12
   27024:	d30c      	bcc.n	27040 <__aeabi_memcpy4+0x66>
   27026:	680b      	ldr	r3, [r1, #0]
   27028:	6003      	str	r3, [r0, #0]
   2702a:	684b      	ldr	r3, [r1, #4]
   2702c:	6043      	str	r3, [r0, #4]
   2702e:	688b      	ldr	r3, [r1, #8]
   27030:	6083      	str	r3, [r0, #8]
   27032:	68cb      	ldr	r3, [r1, #12]
   27034:	60c3      	str	r3, [r0, #12]
   27036:	3110      	adds	r1, #16
   27038:	3010      	adds	r0, #16
   2703a:	3a10      	subs	r2, #16
   2703c:	2a03      	cmp	r2, #3
   2703e:	d8f2      	bhi.n	27026 <__aeabi_memcpy4+0x4c>
   27040:	f000 f802 	bl	27048 <_ZN17compiler_builtins3mem6memcpy17h1f9dbb1c3fd18e2fE>
   27044:	b001      	add	sp, #4
   27046:	bdf0      	pop	{r4, r5, r6, r7, pc}

00027048 <_ZN17compiler_builtins3mem6memcpy17h1f9dbb1c3fd18e2fE>:
   27048:	b5f0      	push	{r4, r5, r6, r7, lr}
   2704a:	af03      	add	r7, sp, #12
   2704c:	b08f      	sub	sp, #60	@ 0x3c
   2704e:	2a10      	cmp	r2, #16
   27050:	d315      	bcc.n	2707e <_ZN17compiler_builtins3mem6memcpy17h1f9dbb1c3fd18e2fE+0x36>
   27052:	920b      	str	r2, [sp, #44]	@ 0x2c
   27054:	4242      	negs	r2, r0
   27056:	2303      	movs	r3, #3
   27058:	9308      	str	r3, [sp, #32]
   2705a:	401a      	ands	r2, r3
   2705c:	1885      	adds	r5, r0, r2
   2705e:	900a      	str	r0, [sp, #40]	@ 0x28
   27060:	42a8      	cmp	r0, r5
   27062:	d22a      	bcs.n	270ba <_ZN17compiler_builtins3mem6memcpy17h1f9dbb1c3fd18e2fE+0x72>
   27064:	1e54      	subs	r4, r2, #1
   27066:	2a00      	cmp	r2, #0
   27068:	980a      	ldr	r0, [sp, #40]	@ 0x28
   2706a:	4606      	mov	r6, r0
   2706c:	460b      	mov	r3, r1
   2706e:	d016      	beq.n	2709e <_ZN17compiler_builtins3mem6memcpy17h1f9dbb1c3fd18e2fE+0x56>
   27070:	780b      	ldrb	r3, [r1, #0]
   27072:	7003      	strb	r3, [r0, #0]
   27074:	2a01      	cmp	r2, #1
   27076:	d107      	bne.n	27088 <_ZN17compiler_builtins3mem6memcpy17h1f9dbb1c3fd18e2fE+0x40>
   27078:	1c4b      	adds	r3, r1, #1
   2707a:	1c46      	adds	r6, r0, #1
   2707c:	e00f      	b.n	2709e <_ZN17compiler_builtins3mem6memcpy17h1f9dbb1c3fd18e2fE+0x56>
   2707e:	4603      	mov	r3, r0
   27080:	189c      	adds	r4, r3, r2
   27082:	42a3      	cmp	r3, r4
   27084:	d341      	bcc.n	2710a <_ZN17compiler_builtins3mem6memcpy17h1f9dbb1c3fd18e2fE+0xc2>
   27086:	e062      	b.n	2714e <_ZN17compiler_builtins3mem6memcpy17h1f9dbb1c3fd18e2fE+0x106>
   27088:	784b      	ldrb	r3, [r1, #1]
   2708a:	7043      	strb	r3, [r0, #1]
   2708c:	2a02      	cmp	r2, #2
   2708e:	d102      	bne.n	27096 <_ZN17compiler_builtins3mem6memcpy17h1f9dbb1c3fd18e2fE+0x4e>
   27090:	1c8b      	adds	r3, r1, #2
   27092:	1c86      	adds	r6, r0, #2
   27094:	e003      	b.n	2709e <_ZN17compiler_builtins3mem6memcpy17h1f9dbb1c3fd18e2fE+0x56>
   27096:	788b      	ldrb	r3, [r1, #2]
   27098:	7083      	strb	r3, [r0, #2]
   2709a:	1ccb      	adds	r3, r1, #3
   2709c:	1cc6      	adds	r6, r0, #3
   2709e:	2c03      	cmp	r4, #3
   270a0:	d30b      	bcc.n	270ba <_ZN17compiler_builtins3mem6memcpy17h1f9dbb1c3fd18e2fE+0x72>
   270a2:	781c      	ldrb	r4, [r3, #0]
   270a4:	7034      	strb	r4, [r6, #0]
   270a6:	785c      	ldrb	r4, [r3, #1]
   270a8:	7074      	strb	r4, [r6, #1]
   270aa:	789c      	ldrb	r4, [r3, #2]
   270ac:	70b4      	strb	r4, [r6, #2]
   270ae:	78dc      	ldrb	r4, [r3, #3]
   270b0:	70f4      	strb	r4, [r6, #3]
   270b2:	1d1b      	adds	r3, r3, #4
   270b4:	1d36      	adds	r6, r6, #4
   270b6:	42ae      	cmp	r6, r5
   270b8:	d1f3      	bne.n	270a2 <_ZN17compiler_builtins3mem6memcpy17h1f9dbb1c3fd18e2fE+0x5a>
   270ba:	980b      	ldr	r0, [sp, #44]	@ 0x2c
   270bc:	1a80      	subs	r0, r0, r2
   270be:	900b      	str	r0, [sp, #44]	@ 0x2c
   270c0:	9c08      	ldr	r4, [sp, #32]
   270c2:	43a0      	bics	r0, r4
   270c4:	182b      	adds	r3, r5, r0
   270c6:	188e      	adds	r6, r1, r2
   270c8:	9609      	str	r6, [sp, #36]	@ 0x24
   270ca:	4026      	ands	r6, r4
   270cc:	9007      	str	r0, [sp, #28]
   270ce:	d147      	bne.n	27160 <_ZN17compiler_builtins3mem6memcpy17h1f9dbb1c3fd18e2fE+0x118>
   270d0:	429d      	cmp	r5, r3
   270d2:	9a0b      	ldr	r2, [sp, #44]	@ 0x2c
   270d4:	9e09      	ldr	r6, [sp, #36]	@ 0x24
   270d6:	d211      	bcs.n	270fc <_ZN17compiler_builtins3mem6memcpy17h1f9dbb1c3fd18e2fE+0xb4>
   270d8:	4631      	mov	r1, r6
   270da:	6808      	ldr	r0, [r1, #0]
   270dc:	c501      	stmia	r5!, {r0}
   270de:	429d      	cmp	r5, r3
   270e0:	d20c      	bcs.n	270fc <_ZN17compiler_builtins3mem6memcpy17h1f9dbb1c3fd18e2fE+0xb4>
   270e2:	6848      	ldr	r0, [r1, #4]
   270e4:	c501      	stmia	r5!, {r0}
   270e6:	429d      	cmp	r5, r3
   270e8:	d208      	bcs.n	270fc <_ZN17compiler_builtins3mem6memcpy17h1f9dbb1c3fd18e2fE+0xb4>
   270ea:	6888      	ldr	r0, [r1, #8]
   270ec:	c501      	stmia	r5!, {r0}
   270ee:	429d      	cmp	r5, r3
   270f0:	d204      	bcs.n	270fc <_ZN17compiler_builtins3mem6memcpy17h1f9dbb1c3fd18e2fE+0xb4>
   270f2:	68c8      	ldr	r0, [r1, #12]
   270f4:	c501      	stmia	r5!, {r0}
   270f6:	3110      	adds	r1, #16
   270f8:	429d      	cmp	r5, r3
   270fa:	d3ee      	bcc.n	270da <_ZN17compiler_builtins3mem6memcpy17h1f9dbb1c3fd18e2fE+0x92>
   270fc:	4022      	ands	r2, r4
   270fe:	9807      	ldr	r0, [sp, #28]
   27100:	1831      	adds	r1, r6, r0
   27102:	980a      	ldr	r0, [sp, #40]	@ 0x28
   27104:	189c      	adds	r4, r3, r2
   27106:	42a3      	cmp	r3, r4
   27108:	d221      	bcs.n	2714e <_ZN17compiler_builtins3mem6memcpy17h1f9dbb1c3fd18e2fE+0x106>
   2710a:	2503      	movs	r5, #3
   2710c:	4015      	ands	r5, r2
   2710e:	1e52      	subs	r2, r2, #1
   27110:	2d00      	cmp	r5, #0
   27112:	d00e      	beq.n	27132 <_ZN17compiler_builtins3mem6memcpy17h1f9dbb1c3fd18e2fE+0xea>
   27114:	780e      	ldrb	r6, [r1, #0]
   27116:	701e      	strb	r6, [r3, #0]
   27118:	2d01      	cmp	r5, #1
   2711a:	d104      	bne.n	27126 <_ZN17compiler_builtins3mem6memcpy17h1f9dbb1c3fd18e2fE+0xde>
   2711c:	1c49      	adds	r1, r1, #1
   2711e:	1c5b      	adds	r3, r3, #1
   27120:	2a03      	cmp	r2, #3
   27122:	d208      	bcs.n	27136 <_ZN17compiler_builtins3mem6memcpy17h1f9dbb1c3fd18e2fE+0xee>
   27124:	e013      	b.n	2714e <_ZN17compiler_builtins3mem6memcpy17h1f9dbb1c3fd18e2fE+0x106>
   27126:	784e      	ldrb	r6, [r1, #1]
   27128:	705e      	strb	r6, [r3, #1]
   2712a:	2d02      	cmp	r5, #2
   2712c:	d111      	bne.n	27152 <_ZN17compiler_builtins3mem6memcpy17h1f9dbb1c3fd18e2fE+0x10a>
   2712e:	1c89      	adds	r1, r1, #2
   27130:	1c9b      	adds	r3, r3, #2
   27132:	2a03      	cmp	r2, #3
   27134:	d30b      	bcc.n	2714e <_ZN17compiler_builtins3mem6memcpy17h1f9dbb1c3fd18e2fE+0x106>
   27136:	780a      	ldrb	r2, [r1, #0]
   27138:	701a      	strb	r2, [r3, #0]
   2713a:	784a      	ldrb	r2, [r1, #1]
   2713c:	705a      	strb	r2, [r3, #1]
   2713e:	788a      	ldrb	r2, [r1, #2]
   27140:	709a      	strb	r2, [r3, #2]
   27142:	78ca      	ldrb	r2, [r1, #3]
   27144:	70da      	strb	r2, [r3, #3]
   27146:	1d09      	adds	r1, r1, #4
   27148:	1d1b      	adds	r3, r3, #4
   2714a:	42a3      	cmp	r3, r4
   2714c:	d1f3      	bne.n	27136 <_ZN17compiler_builtins3mem6memcpy17h1f9dbb1c3fd18e2fE+0xee>
   2714e:	b00f      	add	sp, #60	@ 0x3c
   27150:	bdf0      	pop	{r4, r5, r6, r7, pc}
   27152:	788d      	ldrb	r5, [r1, #2]
   27154:	709d      	strb	r5, [r3, #2]
   27156:	1cc9      	adds	r1, r1, #3
   27158:	1cdb      	adds	r3, r3, #3
   2715a:	2a03      	cmp	r2, #3
   2715c:	d2eb      	bcs.n	27136 <_ZN17compiler_builtins3mem6memcpy17h1f9dbb1c3fd18e2fE+0xee>
   2715e:	e7f6      	b.n	2714e <_ZN17compiler_builtins3mem6memcpy17h1f9dbb1c3fd18e2fE+0x106>
   27160:	2400      	movs	r4, #0
   27162:	9406      	str	r4, [sp, #24]
   27164:	940e      	str	r4, [sp, #56]	@ 0x38
   27166:	ac0e      	add	r4, sp, #56	@ 0x38
   27168:	19a4      	adds	r4, r4, r6
   2716a:	9405      	str	r4, [sp, #20]
   2716c:	2404      	movs	r4, #4
   2716e:	1ba4      	subs	r4, r4, r6
   27170:	9404      	str	r4, [sp, #16]
   27172:	07e4      	lsls	r4, r4, #31
   27174:	9600      	str	r6, [sp, #0]
   27176:	d006      	beq.n	27186 <_ZN17compiler_builtins3mem6memcpy17h1f9dbb1c3fd18e2fE+0x13e>
   27178:	9c09      	ldr	r4, [sp, #36]	@ 0x24
   2717a:	7824      	ldrb	r4, [r4, #0]
   2717c:	9e05      	ldr	r6, [sp, #20]
   2717e:	7034      	strb	r4, [r6, #0]
   27180:	9e00      	ldr	r6, [sp, #0]
   27182:	2401      	movs	r4, #1
   27184:	9406      	str	r4, [sp, #24]
   27186:	9c04      	ldr	r4, [sp, #16]
   27188:	07a4      	lsls	r4, r4, #30
   2718a:	d508      	bpl.n	2719e <_ZN17compiler_builtins3mem6memcpy17h1f9dbb1c3fd18e2fE+0x156>
   2718c:	9c09      	ldr	r4, [sp, #36]	@ 0x24
   2718e:	9204      	str	r2, [sp, #16]
   27190:	9a06      	ldr	r2, [sp, #24]
   27192:	5aa4      	ldrh	r4, [r4, r2]
   27194:	9e05      	ldr	r6, [sp, #20]
   27196:	9a06      	ldr	r2, [sp, #24]
   27198:	52b4      	strh	r4, [r6, r2]
   2719a:	9a04      	ldr	r2, [sp, #16]
   2719c:	9e00      	ldr	r6, [sp, #0]
   2719e:	00f4      	lsls	r4, r6, #3
   271a0:	9403      	str	r4, [sp, #12]
   271a2:	9c0e      	ldr	r4, [sp, #56]	@ 0x38
   271a4:	9406      	str	r4, [sp, #24]
   271a6:	1d2c      	adds	r4, r5, #4
   271a8:	429c      	cmp	r4, r3
   271aa:	d236      	bcs.n	2721a <_ZN17compiler_builtins3mem6memcpy17h1f9dbb1c3fd18e2fE+0x1d2>
   271ac:	4274      	negs	r4, r6
   271ae:	1909      	adds	r1, r1, r4
   271b0:	9105      	str	r1, [sp, #20]
   271b2:	9d03      	ldr	r5, [sp, #12]
   271b4:	4269      	negs	r1, r5
   271b6:	2418      	movs	r4, #24
   271b8:	400c      	ands	r4, r1
   271ba:	9402      	str	r4, [sp, #8]
   271bc:	990a      	ldr	r1, [sp, #40]	@ 0x28
   271be:	9104      	str	r1, [sp, #16]
   271c0:	4629      	mov	r1, r5
   271c2:	9c06      	ldr	r4, [sp, #24]
   271c4:	40cc      	lsrs	r4, r1
   271c6:	9406      	str	r4, [sp, #24]
   271c8:	9905      	ldr	r1, [sp, #20]
   271ca:	1889      	adds	r1, r1, r2
   271cc:	9101      	str	r1, [sp, #4]
   271ce:	6849      	ldr	r1, [r1, #4]
   271d0:	460c      	mov	r4, r1
   271d2:	9d02      	ldr	r5, [sp, #8]
   271d4:	40ac      	lsls	r4, r5
   271d6:	9d06      	ldr	r5, [sp, #24]
   271d8:	432c      	orrs	r4, r5
   271da:	9d04      	ldr	r5, [sp, #16]
   271dc:	50ac      	str	r4, [r5, r2]
   271de:	18ad      	adds	r5, r5, r2
   271e0:	462c      	mov	r4, r5
   271e2:	3408      	adds	r4, #8
   271e4:	429c      	cmp	r4, r3
   271e6:	d21c      	bcs.n	27222 <_ZN17compiler_builtins3mem6memcpy17h1f9dbb1c3fd18e2fE+0x1da>
   271e8:	9c03      	ldr	r4, [sp, #12]
   271ea:	40e1      	lsrs	r1, r4
   271ec:	9c01      	ldr	r4, [sp, #4]
   271ee:	68a4      	ldr	r4, [r4, #8]
   271f0:	9406      	str	r4, [sp, #24]
   271f2:	9501      	str	r5, [sp, #4]
   271f4:	9d02      	ldr	r5, [sp, #8]
   271f6:	40ac      	lsls	r4, r5
   271f8:	430c      	orrs	r4, r1
   271fa:	9901      	ldr	r1, [sp, #4]
   271fc:	604c      	str	r4, [r1, #4]
   271fe:	9904      	ldr	r1, [sp, #16]
   27200:	3108      	adds	r1, #8
   27202:	9104      	str	r1, [sp, #16]
   27204:	188d      	adds	r5, r1, r2
   27206:	1d29      	adds	r1, r5, #4
   27208:	9c05      	ldr	r4, [sp, #20]
   2720a:	3408      	adds	r4, #8
   2720c:	9405      	str	r4, [sp, #20]
   2720e:	4299      	cmp	r1, r3
   27210:	9903      	ldr	r1, [sp, #12]
   27212:	d3d6      	bcc.n	271c2 <_ZN17compiler_builtins3mem6memcpy17h1f9dbb1c3fd18e2fE+0x17a>
   27214:	9805      	ldr	r0, [sp, #20]
   27216:	1880      	adds	r0, r0, r2
   27218:	e001      	b.n	2721e <_ZN17compiler_builtins3mem6memcpy17h1f9dbb1c3fd18e2fE+0x1d6>
   2721a:	9809      	ldr	r0, [sp, #36]	@ 0x24
   2721c:	1b80      	subs	r0, r0, r6
   2721e:	9005      	str	r0, [sp, #20]
   27220:	e004      	b.n	2722c <_ZN17compiler_builtins3mem6memcpy17h1f9dbb1c3fd18e2fE+0x1e4>
   27222:	9801      	ldr	r0, [sp, #4]
   27224:	1d00      	adds	r0, r0, #4
   27226:	9005      	str	r0, [sp, #20]
   27228:	1d2d      	adds	r5, r5, #4
   2722a:	9106      	str	r1, [sp, #24]
   2722c:	a80d      	add	r0, sp, #52	@ 0x34
   2722e:	2100      	movs	r1, #0
   27230:	9004      	str	r0, [sp, #16]
   27232:	7001      	strb	r1, [r0, #0]
   27234:	a80c      	add	r0, sp, #48	@ 0x30
   27236:	7001      	strb	r1, [r0, #0]
   27238:	2e01      	cmp	r6, #1
   2723a:	460e      	mov	r6, r1
   2723c:	460c      	mov	r4, r1
   2723e:	9102      	str	r1, [sp, #8]
   27240:	9a0b      	ldr	r2, [sp, #44]	@ 0x2c
   27242:	d009      	beq.n	27258 <_ZN17compiler_builtins3mem6memcpy17h1f9dbb1c3fd18e2fE+0x210>
   27244:	9c05      	ldr	r4, [sp, #20]
   27246:	7960      	ldrb	r0, [r4, #5]
   27248:	7926      	ldrb	r6, [r4, #4]
   2724a:	ac0d      	add	r4, sp, #52	@ 0x34
   2724c:	7026      	strb	r6, [r4, #0]
   2724e:	0204      	lsls	r4, r0, #8
   27250:	2002      	movs	r0, #2
   27252:	9002      	str	r0, [sp, #8]
   27254:	a80c      	add	r0, sp, #48	@ 0x30
   27256:	9004      	str	r0, [sp, #16]
   27258:	9809      	ldr	r0, [sp, #36]	@ 0x24
   2725a:	07c0      	lsls	r0, r0, #31
   2725c:	d00a      	beq.n	27274 <_ZN17compiler_builtins3mem6memcpy17h1f9dbb1c3fd18e2fE+0x22c>
   2725e:	9805      	ldr	r0, [sp, #20]
   27260:	1d00      	adds	r0, r0, #4
   27262:	9902      	ldr	r1, [sp, #8]
   27264:	5c40      	ldrb	r0, [r0, r1]
   27266:	9904      	ldr	r1, [sp, #16]
   27268:	7008      	strb	r0, [r1, #0]
   2726a:	a80d      	add	r0, sp, #52	@ 0x34
   2726c:	7806      	ldrb	r6, [r0, #0]
   2726e:	a80c      	add	r0, sp, #48	@ 0x30
   27270:	7800      	ldrb	r0, [r0, #0]
   27272:	0401      	lsls	r1, r0, #16
   27274:	9605      	str	r6, [sp, #20]
   27276:	9803      	ldr	r0, [sp, #12]
   27278:	4240      	negs	r0, r0
   2727a:	9004      	str	r0, [sp, #16]
   2727c:	2618      	movs	r6, #24
   2727e:	9804      	ldr	r0, [sp, #16]
   27280:	4006      	ands	r6, r0
   27282:	430c      	orrs	r4, r1
   27284:	9905      	ldr	r1, [sp, #20]
   27286:	430c      	orrs	r4, r1
   27288:	40b4      	lsls	r4, r6
   2728a:	9906      	ldr	r1, [sp, #24]
   2728c:	9803      	ldr	r0, [sp, #12]
   2728e:	40c1      	lsrs	r1, r0
   27290:	4321      	orrs	r1, r4
   27292:	6029      	str	r1, [r5, #0]
   27294:	9c08      	ldr	r4, [sp, #32]
   27296:	9e09      	ldr	r6, [sp, #36]	@ 0x24
   27298:	e730      	b.n	270fc <_ZN17compiler_builtins3mem6memcpy17h1f9dbb1c3fd18e2fE+0xb4>

0002729a <__aeabi_memcpy>:
   2729a:	b580      	push	{r7, lr}
   2729c:	af00      	add	r7, sp, #0
   2729e:	f7ff fed3 	bl	27048 <_ZN17compiler_builtins3mem6memcpy17h1f9dbb1c3fd18e2fE>
   272a2:	bd80      	pop	{r7, pc}
