
target/thumbv6m-none-eabi/opt-s/examples/complex_full_dynamic:     file format elf32-littlearm

Sections:
Idx Name          Size      VMA       LMA       File off  Algn
  0 .ARM.exidx    00000010  000100d4  000100d4  000000d4  2**2
                  CONTENTS, ALLOC, LOAD, READONLY, DATA
  1 .text         00006bbc  000200e4  000200e4  000000e4  2**2
                  CONTENTS, ALLOC, LOAD, READONLY, CODE
  2 .comment      00000099  00000000  00000000  00006ca0  2**0
                  CONTENTS, READONLY
  3 .ARM.attributes 00000032  00000000  00000000  00006d39  2**0
                  CONTENTS, READONLY

Disassembly of section .text:

000200e4 <_ZN9allow_pin12full_dynamic15Buffer$LT$B$GT$5allow17h4466d99fb2bc5668E>:
   200e4:	b5f0      	push	{r4, r5, r6, r7, lr}
   200e6:	af03      	add	r7, sp, #12
   200e8:	b082      	sub	sp, #8
   200ea:	9301      	str	r3, [sp, #4]
   200ec:	4606      	mov	r6, r0
   200ee:	7a00      	ldrb	r0, [r0, #8]
   200f0:	2401      	movs	r4, #1
   200f2:	2802      	cmp	r0, #2
   200f4:	d10b      	bne.n	2010e <_ZN9allow_pin12full_dynamic15Buffer$LT$B$GT$5allow17h4466d99fb2bc5668E+0x2a>
   200f6:	4615      	mov	r5, r2
   200f8:	460b      	mov	r3, r1
   200fa:	68b9      	ldr	r1, [r7, #8]
   200fc:	4632      	mov	r2, r6
   200fe:	320c      	adds	r2, #12
   20100:	b2e8      	uxtb	r0, r5
   20102:	2803      	cmp	r0, #3
   20104:	9100      	str	r1, [sp, #0]
   20106:	d104      	bne.n	20112 <_ZN9allow_pin12full_dynamic15Buffer$LT$B$GT$5allow17h4466d99fb2bc5668E+0x2e>
   20108:	9801      	ldr	r0, [sp, #4]
   2010a:	df03      	svc	3
   2010c:	e003      	b.n	20116 <_ZN9allow_pin12full_dynamic15Buffer$LT$B$GT$5allow17h4466d99fb2bc5668E+0x32>
   2010e:	2103      	movs	r1, #3
   20110:	e009      	b.n	20126 <_ZN9allow_pin12full_dynamic15Buffer$LT$B$GT$5allow17h4466d99fb2bc5668E+0x42>
   20112:	9801      	ldr	r0, [sp, #4]
   20114:	df04      	svc	4
   20116:	2802      	cmp	r0, #2
   20118:	d005      	beq.n	20126 <_ZN9allow_pin12full_dynamic15Buffer$LT$B$GT$5allow17h4466d99fb2bc5668E+0x42>
   2011a:	7235      	strb	r5, [r6, #8]
   2011c:	9801      	ldr	r0, [sp, #4]
   2011e:	6030      	str	r0, [r6, #0]
   20120:	9800      	ldr	r0, [sp, #0]
   20122:	6070      	str	r0, [r6, #4]
   20124:	2400      	movs	r4, #0
   20126:	4620      	mov	r0, r4
   20128:	b002      	add	sp, #8
   2012a:	bdf0      	pop	{r4, r5, r6, r7, pc}

0002012c <_ZN20complex_full_dynamic3app17h0035837018d9dcabE>:
   2012c:	b5f0      	push	{r4, r5, r6, r7, lr}
   2012e:	af03      	add	r7, sp, #12
   20130:	b0a7      	sub	sp, #156	@ 0x9c
   20132:	9003      	str	r0, [sp, #12]
   20134:	ae04      	add	r6, sp, #16
   20136:	2502      	movs	r5, #2
   20138:	7235      	strb	r5, [r6, #8]
   2013a:	4630      	mov	r0, r6
   2013c:	300c      	adds	r0, #12
   2013e:	221e      	movs	r2, #30
   20140:	9202      	str	r2, [sp, #8]
   20142:	f006 fda8 	bl	26c96 <__aeabi_memcpy>
   20146:	ac0f      	add	r4, sp, #60	@ 0x3c
   20148:	4620      	mov	r0, r4
   2014a:	300c      	adds	r0, #12
   2014c:	2151      	movs	r1, #81	@ 0x51
   2014e:	9001      	str	r0, [sp, #4]
   20150:	f006 fbf4 	bl	2693c <__aeabi_memclr4>
   20154:	7225      	strb	r5, [r4, #8]
   20156:	9500      	str	r5, [sp, #0]
   20158:	2204      	movs	r2, #4
   2015a:	4c1b      	ldr	r4, [pc, #108]	@ (201c8 <_ZN20complex_full_dynamic3app17h0035837018d9dcabE+0x9c>)
   2015c:	4630      	mov	r0, r6
   2015e:	9902      	ldr	r1, [sp, #8]
   20160:	4623      	mov	r3, r4
   20162:	f7ff ffbf 	bl	200e4 <_ZN9allow_pin12full_dynamic15Buffer$LT$B$GT$5allow17h4466d99fb2bc5668E>
   20166:	07c0      	lsls	r0, r0, #31
   20168:	d111      	bne.n	2018e <_ZN20complex_full_dynamic3app17h0035837018d9dcabE+0x62>
   2016a:	2000      	movs	r0, #0
   2016c:	9000      	str	r0, [sp, #0]
   2016e:	a80f      	add	r0, sp, #60	@ 0x3c
   20170:	2151      	movs	r1, #81	@ 0x51
   20172:	2203      	movs	r2, #3
   20174:	4623      	mov	r3, r4
   20176:	f7ff ffb5 	bl	200e4 <_ZN9allow_pin12full_dynamic15Buffer$LT$B$GT$5allow17h4466d99fb2bc5668E>
   2017a:	07c0      	lsls	r0, r0, #31
   2017c:	d107      	bne.n	2018e <_ZN20complex_full_dynamic3app17h0035837018d9dcabE+0x62>
   2017e:	4812      	ldr	r0, [pc, #72]	@ (201c8 <_ZN20complex_full_dynamic3app17h0035837018d9dcabE+0x9c>)
   20180:	2102      	movs	r1, #2
   20182:	2600      	movs	r6, #0
   20184:	4632      	mov	r2, r6
   20186:	4633      	mov	r3, r6
   20188:	df02      	svc	2
   2018a:	287f      	cmp	r0, #127	@ 0x7f
   2018c:	d80b      	bhi.n	201a6 <_ZN20complex_full_dynamic3app17h0035837018d9dcabE+0x7a>
   2018e:	9c03      	ldr	r4, [sp, #12]
   20190:	6061      	str	r1, [r4, #4]
   20192:	2601      	movs	r6, #1
   20194:	7026      	strb	r6, [r4, #0]
   20196:	a80f      	add	r0, sp, #60	@ 0x3c
   20198:	f006 fbbc 	bl	26914 <_ZN9allow_pin12full_dynamic17unshare_if_shared17h1c062ce130e7e9d8E>
   2019c:	a804      	add	r0, sp, #16
   2019e:	f006 fbb9 	bl	26914 <_ZN9allow_pin12full_dynamic17unshare_if_shared17h1c062ce130e7e9d8E>
   201a2:	b027      	add	sp, #156	@ 0x9c
   201a4:	bdf0      	pop	{r4, r5, r6, r7, pc}
   201a6:	a804      	add	r0, sp, #16
   201a8:	f006 fbb4 	bl	26914 <_ZN9allow_pin12full_dynamic17unshare_if_shared17h1c062ce130e7e9d8E>
   201ac:	ac0f      	add	r4, sp, #60	@ 0x3c
   201ae:	4620      	mov	r0, r4
   201b0:	f006 fbb0 	bl	26914 <_ZN9allow_pin12full_dynamic17unshare_if_shared17h1c062ce130e7e9d8E>
   201b4:	4620      	mov	r0, r4
   201b6:	f006 fbad 	bl	26914 <_ZN9allow_pin12full_dynamic17unshare_if_shared17h1c062ce130e7e9d8E>
   201ba:	9c03      	ldr	r4, [sp, #12]
   201bc:	1c60      	adds	r0, r4, #1
   201be:	2251      	movs	r2, #81	@ 0x51
   201c0:	9901      	ldr	r1, [sp, #4]
   201c2:	f006 fd68 	bl	26c96 <__aeabi_memcpy>
   201c6:	e7e5      	b.n	20194 <_ZN20complex_full_dynamic3app17h0035837018d9dcabE+0x68>
   201c8:	0000196b 	.word	0x0000196b

000201cc <_ZN20complex_full_dynamic3app17h091bfc13976c8db8E>:
   201cc:	b5f0      	push	{r4, r5, r6, r7, lr}
   201ce:	af03      	add	r7, sp, #12
   201d0:	b0a7      	sub	sp, #156	@ 0x9c
   201d2:	9004      	str	r0, [sp, #16]
   201d4:	ae05      	add	r6, sp, #20
   201d6:	2502      	movs	r5, #2
   201d8:	7235      	strb	r5, [r6, #8]
   201da:	4630      	mov	r0, r6
   201dc:	300c      	adds	r0, #12
   201de:	2249      	movs	r2, #73	@ 0x49
   201e0:	9203      	str	r2, [sp, #12]
   201e2:	f006 fd58 	bl	26c96 <__aeabi_memcpy>
   201e6:	ac1b      	add	r4, sp, #108	@ 0x6c
   201e8:	4620      	mov	r0, r4
   201ea:	300c      	adds	r0, #12
   201ec:	2123      	movs	r1, #35	@ 0x23
   201ee:	9002      	str	r0, [sp, #8]
   201f0:	f006 fba4 	bl	2693c <__aeabi_memclr4>
   201f4:	7225      	strb	r5, [r4, #8]
   201f6:	2007      	movs	r0, #7
   201f8:	9000      	str	r0, [sp, #0]
   201fa:	2204      	movs	r2, #4
   201fc:	4c1b      	ldr	r4, [pc, #108]	@ (2026c <_ZN20complex_full_dynamic3app17h091bfc13976c8db8E+0xa0>)
   201fe:	4630      	mov	r0, r6
   20200:	9903      	ldr	r1, [sp, #12]
   20202:	4623      	mov	r3, r4
   20204:	f7ff ff6e 	bl	200e4 <_ZN9allow_pin12full_dynamic15Buffer$LT$B$GT$5allow17h4466d99fb2bc5668E>
   20208:	07c0      	lsls	r0, r0, #31
   2020a:	d111      	bne.n	20230 <_ZN20complex_full_dynamic3app17h091bfc13976c8db8E+0x64>
   2020c:	2001      	movs	r0, #1
   2020e:	9000      	str	r0, [sp, #0]
   20210:	a81b      	add	r0, sp, #108	@ 0x6c
   20212:	2123      	movs	r1, #35	@ 0x23
   20214:	2203      	movs	r2, #3
   20216:	4623      	mov	r3, r4
   20218:	f7ff ff64 	bl	200e4 <_ZN9allow_pin12full_dynamic15Buffer$LT$B$GT$5allow17h4466d99fb2bc5668E>
   2021c:	07c0      	lsls	r0, r0, #31
   2021e:	d107      	bne.n	20230 <_ZN20complex_full_dynamic3app17h091bfc13976c8db8E+0x64>
   20220:	4812      	ldr	r0, [pc, #72]	@ (2026c <_ZN20complex_full_dynamic3app17h091bfc13976c8db8E+0xa0>)
   20222:	2107      	movs	r1, #7
   20224:	2201      	movs	r2, #1
   20226:	2600      	movs	r6, #0
   20228:	4633      	mov	r3, r6
   2022a:	df02      	svc	2
   2022c:	287f      	cmp	r0, #127	@ 0x7f
   2022e:	d80b      	bhi.n	20248 <_ZN20complex_full_dynamic3app17h091bfc13976c8db8E+0x7c>
   20230:	9c04      	ldr	r4, [sp, #16]
   20232:	6061      	str	r1, [r4, #4]
   20234:	2601      	movs	r6, #1
   20236:	7026      	strb	r6, [r4, #0]
   20238:	a81b      	add	r0, sp, #108	@ 0x6c
   2023a:	f006 fb6b 	bl	26914 <_ZN9allow_pin12full_dynamic17unshare_if_shared17h1c062ce130e7e9d8E>
   2023e:	a805      	add	r0, sp, #20
   20240:	f006 fb68 	bl	26914 <_ZN9allow_pin12full_dynamic17unshare_if_shared17h1c062ce130e7e9d8E>
   20244:	b027      	add	sp, #156	@ 0x9c
   20246:	bdf0      	pop	{r4, r5, r6, r7, pc}
   20248:	a805      	add	r0, sp, #20
   2024a:	f006 fb63 	bl	26914 <_ZN9allow_pin12full_dynamic17unshare_if_shared17h1c062ce130e7e9d8E>
   2024e:	ac1b      	add	r4, sp, #108	@ 0x6c
   20250:	4620      	mov	r0, r4
   20252:	f006 fb5f 	bl	26914 <_ZN9allow_pin12full_dynamic17unshare_if_shared17h1c062ce130e7e9d8E>
   20256:	4620      	mov	r0, r4
   20258:	f006 fb5c 	bl	26914 <_ZN9allow_pin12full_dynamic17unshare_if_shared17h1c062ce130e7e9d8E>
   2025c:	9c04      	ldr	r4, [sp, #16]
   2025e:	1c60      	adds	r0, r4, #1
   20260:	2223      	movs	r2, #35	@ 0x23
   20262:	9902      	ldr	r1, [sp, #8]
   20264:	f006 fd17 	bl	26c96 <__aeabi_memcpy>
   20268:	e7e5      	b.n	20236 <_ZN20complex_full_dynamic3app17h091bfc13976c8db8E+0x6a>
   2026a:	46c0      	nop			@ (mov r8, r8)
   2026c:	00001551 	.word	0x00001551

00020270 <_ZN20complex_full_dynamic3app17h0dcd2a67415bcc80E>:
   20270:	b5f0      	push	{r4, r5, r6, r7, lr}
   20272:	af03      	add	r7, sp, #12
   20274:	b0a1      	sub	sp, #132	@ 0x84
   20276:	9004      	str	r0, [sp, #16]
   20278:	ae05      	add	r6, sp, #20
   2027a:	2502      	movs	r5, #2
   2027c:	7235      	strb	r5, [r6, #8]
   2027e:	4630      	mov	r0, r6
   20280:	300c      	adds	r0, #12
   20282:	2212      	movs	r2, #18
   20284:	9203      	str	r2, [sp, #12]
   20286:	f006 fd06 	bl	26c96 <__aeabi_memcpy>
   2028a:	ac0d      	add	r4, sp, #52	@ 0x34
   2028c:	4620      	mov	r0, r4
   2028e:	300c      	adds	r0, #12
   20290:	2144      	movs	r1, #68	@ 0x44
   20292:	9002      	str	r0, [sp, #8]
   20294:	f006 fb52 	bl	2693c <__aeabi_memclr4>
   20298:	7225      	strb	r5, [r4, #8]
   2029a:	9500      	str	r5, [sp, #0]
   2029c:	2204      	movs	r2, #4
   2029e:	4c1b      	ldr	r4, [pc, #108]	@ (2030c <_ZN20complex_full_dynamic3app17h0dcd2a67415bcc80E+0x9c>)
   202a0:	4630      	mov	r0, r6
   202a2:	9903      	ldr	r1, [sp, #12]
   202a4:	4623      	mov	r3, r4
   202a6:	f7ff ff1d 	bl	200e4 <_ZN9allow_pin12full_dynamic15Buffer$LT$B$GT$5allow17h4466d99fb2bc5668E>
   202aa:	07c0      	lsls	r0, r0, #31
   202ac:	d111      	bne.n	202d2 <_ZN20complex_full_dynamic3app17h0dcd2a67415bcc80E+0x62>
   202ae:	2009      	movs	r0, #9
   202b0:	9000      	str	r0, [sp, #0]
   202b2:	a80d      	add	r0, sp, #52	@ 0x34
   202b4:	2144      	movs	r1, #68	@ 0x44
   202b6:	2203      	movs	r2, #3
   202b8:	4623      	mov	r3, r4
   202ba:	f7ff ff13 	bl	200e4 <_ZN9allow_pin12full_dynamic15Buffer$LT$B$GT$5allow17h4466d99fb2bc5668E>
   202be:	07c0      	lsls	r0, r0, #31
   202c0:	d107      	bne.n	202d2 <_ZN20complex_full_dynamic3app17h0dcd2a67415bcc80E+0x62>
   202c2:	4812      	ldr	r0, [pc, #72]	@ (2030c <_ZN20complex_full_dynamic3app17h0dcd2a67415bcc80E+0x9c>)
   202c4:	2102      	movs	r1, #2
   202c6:	2209      	movs	r2, #9
   202c8:	2600      	movs	r6, #0
   202ca:	4633      	mov	r3, r6
   202cc:	df02      	svc	2
   202ce:	287f      	cmp	r0, #127	@ 0x7f
   202d0:	d80b      	bhi.n	202ea <_ZN20complex_full_dynamic3app17h0dcd2a67415bcc80E+0x7a>
   202d2:	9c04      	ldr	r4, [sp, #16]
   202d4:	6061      	str	r1, [r4, #4]
   202d6:	2601      	movs	r6, #1
   202d8:	7026      	strb	r6, [r4, #0]
   202da:	a80d      	add	r0, sp, #52	@ 0x34
   202dc:	f006 fb1a 	bl	26914 <_ZN9allow_pin12full_dynamic17unshare_if_shared17h1c062ce130e7e9d8E>
   202e0:	a805      	add	r0, sp, #20
   202e2:	f006 fb17 	bl	26914 <_ZN9allow_pin12full_dynamic17unshare_if_shared17h1c062ce130e7e9d8E>
   202e6:	b021      	add	sp, #132	@ 0x84
   202e8:	bdf0      	pop	{r4, r5, r6, r7, pc}
   202ea:	a805      	add	r0, sp, #20
   202ec:	f006 fb12 	bl	26914 <_ZN9allow_pin12full_dynamic17unshare_if_shared17h1c062ce130e7e9d8E>
   202f0:	ac0d      	add	r4, sp, #52	@ 0x34
   202f2:	4620      	mov	r0, r4
   202f4:	f006 fb0e 	bl	26914 <_ZN9allow_pin12full_dynamic17unshare_if_shared17h1c062ce130e7e9d8E>
   202f8:	4620      	mov	r0, r4
   202fa:	f006 fb0b 	bl	26914 <_ZN9allow_pin12full_dynamic17unshare_if_shared17h1c062ce130e7e9d8E>
   202fe:	9c04      	ldr	r4, [sp, #16]
   20300:	1c60      	adds	r0, r4, #1
   20302:	2244      	movs	r2, #68	@ 0x44
   20304:	9902      	ldr	r1, [sp, #8]
   20306:	f006 fcc6 	bl	26c96 <__aeabi_memcpy>
   2030a:	e7e5      	b.n	202d8 <_ZN20complex_full_dynamic3app17h0dcd2a67415bcc80E+0x68>
   2030c:	00002432 	.word	0x00002432

00020310 <_ZN20complex_full_dynamic3app17h1381b5d4e8d6dfd7E>:
   20310:	b5f0      	push	{r4, r5, r6, r7, lr}
   20312:	af03      	add	r7, sp, #12
   20314:	b0a5      	sub	sp, #148	@ 0x94
   20316:	9003      	str	r0, [sp, #12]
   20318:	ae04      	add	r6, sp, #16
   2031a:	2502      	movs	r5, #2
   2031c:	7235      	strb	r5, [r6, #8]
   2031e:	4630      	mov	r0, r6
   20320:	300c      	adds	r0, #12
   20322:	2255      	movs	r2, #85	@ 0x55
   20324:	9202      	str	r2, [sp, #8]
   20326:	f006 fcb6 	bl	26c96 <__aeabi_memcpy>
   2032a:	ac1d      	add	r4, sp, #116	@ 0x74
   2032c:	4620      	mov	r0, r4
   2032e:	300c      	adds	r0, #12
   20330:	2111      	movs	r1, #17
   20332:	9001      	str	r0, [sp, #4]
   20334:	f006 fb02 	bl	2693c <__aeabi_memclr4>
   20338:	7225      	strb	r5, [r4, #8]
   2033a:	9500      	str	r5, [sp, #0]
   2033c:	2204      	movs	r2, #4
   2033e:	4c1b      	ldr	r4, [pc, #108]	@ (203ac <_ZN20complex_full_dynamic3app17h1381b5d4e8d6dfd7E+0x9c>)
   20340:	4630      	mov	r0, r6
   20342:	9902      	ldr	r1, [sp, #8]
   20344:	4623      	mov	r3, r4
   20346:	f7ff fecd 	bl	200e4 <_ZN9allow_pin12full_dynamic15Buffer$LT$B$GT$5allow17h4466d99fb2bc5668E>
   2034a:	07c0      	lsls	r0, r0, #31
   2034c:	d110      	bne.n	20370 <_ZN20complex_full_dynamic3app17h1381b5d4e8d6dfd7E+0x60>
   2034e:	9500      	str	r5, [sp, #0]
   20350:	a81d      	add	r0, sp, #116	@ 0x74
   20352:	2111      	movs	r1, #17
   20354:	2203      	movs	r2, #3
   20356:	4623      	mov	r3, r4
   20358:	f7ff fec4 	bl	200e4 <_ZN9allow_pin12full_dynamic15Buffer$LT$B$GT$5allow17h4466d99fb2bc5668E>
   2035c:	07c0      	lsls	r0, r0, #31
   2035e:	d107      	bne.n	20370 <_ZN20complex_full_dynamic3app17h1381b5d4e8d6dfd7E+0x60>
   20360:	4812      	ldr	r0, [pc, #72]	@ (203ac <_ZN20complex_full_dynamic3app17h1381b5d4e8d6dfd7E+0x9c>)
   20362:	2102      	movs	r1, #2
   20364:	2600      	movs	r6, #0
   20366:	460a      	mov	r2, r1
   20368:	4633      	mov	r3, r6
   2036a:	df02      	svc	2
   2036c:	287f      	cmp	r0, #127	@ 0x7f
   2036e:	d80b      	bhi.n	20388 <_ZN20complex_full_dynamic3app17h1381b5d4e8d6dfd7E+0x78>
   20370:	9c03      	ldr	r4, [sp, #12]
   20372:	6061      	str	r1, [r4, #4]
   20374:	2601      	movs	r6, #1
   20376:	7026      	strb	r6, [r4, #0]
   20378:	a81d      	add	r0, sp, #116	@ 0x74
   2037a:	f006 facb 	bl	26914 <_ZN9allow_pin12full_dynamic17unshare_if_shared17h1c062ce130e7e9d8E>
   2037e:	a804      	add	r0, sp, #16
   20380:	f006 fac8 	bl	26914 <_ZN9allow_pin12full_dynamic17unshare_if_shared17h1c062ce130e7e9d8E>
   20384:	b025      	add	sp, #148	@ 0x94
   20386:	bdf0      	pop	{r4, r5, r6, r7, pc}
   20388:	a804      	add	r0, sp, #16
   2038a:	f006 fac3 	bl	26914 <_ZN9allow_pin12full_dynamic17unshare_if_shared17h1c062ce130e7e9d8E>
   2038e:	ac1d      	add	r4, sp, #116	@ 0x74
   20390:	4620      	mov	r0, r4
   20392:	f006 fabf 	bl	26914 <_ZN9allow_pin12full_dynamic17unshare_if_shared17h1c062ce130e7e9d8E>
   20396:	4620      	mov	r0, r4
   20398:	f006 fabc 	bl	26914 <_ZN9allow_pin12full_dynamic17unshare_if_shared17h1c062ce130e7e9d8E>
   2039c:	9c03      	ldr	r4, [sp, #12]
   2039e:	1c60      	adds	r0, r4, #1
   203a0:	2211      	movs	r2, #17
   203a2:	9901      	ldr	r1, [sp, #4]
   203a4:	f006 fc77 	bl	26c96 <__aeabi_memcpy>
   203a8:	e7e5      	b.n	20376 <_ZN20complex_full_dynamic3app17h1381b5d4e8d6dfd7E+0x66>
   203aa:	46c0      	nop			@ (mov r8, r8)
   203ac:	00000c89 	.word	0x00000c89

000203b0 <_ZN20complex_full_dynamic3app17h16813723491bb467E>:
   203b0:	b5f0      	push	{r4, r5, r6, r7, lr}
   203b2:	af03      	add	r7, sp, #12
   203b4:	b09d      	sub	sp, #116	@ 0x74
   203b6:	9004      	str	r0, [sp, #16]
   203b8:	ae05      	add	r6, sp, #20
   203ba:	2502      	movs	r5, #2
   203bc:	7235      	strb	r5, [r6, #8]
   203be:	4630      	mov	r0, r6
   203c0:	300c      	adds	r0, #12
   203c2:	2223      	movs	r2, #35	@ 0x23
   203c4:	9203      	str	r2, [sp, #12]
   203c6:	f006 fc66 	bl	26c96 <__aeabi_memcpy>
   203ca:	ac11      	add	r4, sp, #68	@ 0x44
   203cc:	4620      	mov	r0, r4
   203ce:	300c      	adds	r0, #12
   203d0:	2124      	movs	r1, #36	@ 0x24
   203d2:	9002      	str	r0, [sp, #8]
   203d4:	f006 fab2 	bl	2693c <__aeabi_memclr4>
   203d8:	7225      	strb	r5, [r4, #8]
   203da:	2204      	movs	r2, #4
   203dc:	9200      	str	r2, [sp, #0]
   203de:	4c1b      	ldr	r4, [pc, #108]	@ (2044c <_ZN20complex_full_dynamic3app17h16813723491bb467E+0x9c>)
   203e0:	4630      	mov	r0, r6
   203e2:	9903      	ldr	r1, [sp, #12]
   203e4:	4623      	mov	r3, r4
   203e6:	f7ff fe7d 	bl	200e4 <_ZN9allow_pin12full_dynamic15Buffer$LT$B$GT$5allow17h4466d99fb2bc5668E>
   203ea:	07c0      	lsls	r0, r0, #31
   203ec:	d111      	bne.n	20412 <_ZN20complex_full_dynamic3app17h16813723491bb467E+0x62>
   203ee:	2008      	movs	r0, #8
   203f0:	9000      	str	r0, [sp, #0]
   203f2:	a811      	add	r0, sp, #68	@ 0x44
   203f4:	2124      	movs	r1, #36	@ 0x24
   203f6:	2203      	movs	r2, #3
   203f8:	4623      	mov	r3, r4
   203fa:	f7ff fe73 	bl	200e4 <_ZN9allow_pin12full_dynamic15Buffer$LT$B$GT$5allow17h4466d99fb2bc5668E>
   203fe:	07c0      	lsls	r0, r0, #31
   20400:	d107      	bne.n	20412 <_ZN20complex_full_dynamic3app17h16813723491bb467E+0x62>
   20402:	4812      	ldr	r0, [pc, #72]	@ (2044c <_ZN20complex_full_dynamic3app17h16813723491bb467E+0x9c>)
   20404:	2104      	movs	r1, #4
   20406:	2208      	movs	r2, #8
   20408:	2600      	movs	r6, #0
   2040a:	4633      	mov	r3, r6
   2040c:	df02      	svc	2
   2040e:	287f      	cmp	r0, #127	@ 0x7f
   20410:	d80b      	bhi.n	2042a <_ZN20complex_full_dynamic3app17h16813723491bb467E+0x7a>
   20412:	9c04      	ldr	r4, [sp, #16]
   20414:	6061      	str	r1, [r4, #4]
   20416:	2601      	movs	r6, #1
   20418:	7026      	strb	r6, [r4, #0]
   2041a:	a811      	add	r0, sp, #68	@ 0x44
   2041c:	f006 fa7a 	bl	26914 <_ZN9allow_pin12full_dynamic17unshare_if_shared17h1c062ce130e7e9d8E>
   20420:	a805      	add	r0, sp, #20
   20422:	f006 fa77 	bl	26914 <_ZN9allow_pin12full_dynamic17unshare_if_shared17h1c062ce130e7e9d8E>
   20426:	b01d      	add	sp, #116	@ 0x74
   20428:	bdf0      	pop	{r4, r5, r6, r7, pc}
   2042a:	a805      	add	r0, sp, #20
   2042c:	f006 fa72 	bl	26914 <_ZN9allow_pin12full_dynamic17unshare_if_shared17h1c062ce130e7e9d8E>
   20430:	ac11      	add	r4, sp, #68	@ 0x44
   20432:	4620      	mov	r0, r4
   20434:	f006 fa6e 	bl	26914 <_ZN9allow_pin12full_dynamic17unshare_if_shared17h1c062ce130e7e9d8E>
   20438:	4620      	mov	r0, r4
   2043a:	f006 fa6b 	bl	26914 <_ZN9allow_pin12full_dynamic17unshare_if_shared17h1c062ce130e7e9d8E>
   2043e:	9c04      	ldr	r4, [sp, #16]
   20440:	1c60      	adds	r0, r4, #1
   20442:	2224      	movs	r2, #36	@ 0x24
   20444:	9902      	ldr	r1, [sp, #8]
   20446:	f006 fc26 	bl	26c96 <__aeabi_memcpy>
   2044a:	e7e5      	b.n	20418 <_ZN20complex_full_dynamic3app17h16813723491bb467E+0x68>
   2044c:	00001bd6 	.word	0x00001bd6

00020450 <_ZN20complex_full_dynamic3app17h1927d9c715ca6e8aE>:
   20450:	b5f0      	push	{r4, r5, r6, r7, lr}
   20452:	af03      	add	r7, sp, #12
   20454:	b0b9      	sub	sp, #228	@ 0xe4
   20456:	9004      	str	r0, [sp, #16]
   20458:	ae05      	add	r6, sp, #20
   2045a:	2502      	movs	r5, #2
   2045c:	7235      	strb	r5, [r6, #8]
   2045e:	4630      	mov	r0, r6
   20460:	300c      	adds	r0, #12
   20462:	225e      	movs	r2, #94	@ 0x5e
   20464:	9203      	str	r2, [sp, #12]
   20466:	f006 fc16 	bl	26c96 <__aeabi_memcpy>
   2046a:	ac20      	add	r4, sp, #128	@ 0x80
   2046c:	4620      	mov	r0, r4
   2046e:	300c      	adds	r0, #12
   20470:	2155      	movs	r1, #85	@ 0x55
   20472:	9002      	str	r0, [sp, #8]
   20474:	f006 fa62 	bl	2693c <__aeabi_memclr4>
   20478:	7225      	strb	r5, [r4, #8]
   2047a:	2007      	movs	r0, #7
   2047c:	9000      	str	r0, [sp, #0]
   2047e:	2204      	movs	r2, #4
   20480:	4c1a      	ldr	r4, [pc, #104]	@ (204ec <_ZN20complex_full_dynamic3app17h1927d9c715ca6e8aE+0x9c>)
   20482:	4630      	mov	r0, r6
   20484:	9903      	ldr	r1, [sp, #12]
   20486:	4623      	mov	r3, r4
   20488:	f7ff fe2c 	bl	200e4 <_ZN9allow_pin12full_dynamic15Buffer$LT$B$GT$5allow17h4466d99fb2bc5668E>
   2048c:	07c0      	lsls	r0, r0, #31
   2048e:	d110      	bne.n	204b2 <_ZN20complex_full_dynamic3app17h1927d9c715ca6e8aE+0x62>
   20490:	2203      	movs	r2, #3
   20492:	9200      	str	r2, [sp, #0]
   20494:	a820      	add	r0, sp, #128	@ 0x80
   20496:	2155      	movs	r1, #85	@ 0x55
   20498:	4623      	mov	r3, r4
   2049a:	f7ff fe23 	bl	200e4 <_ZN9allow_pin12full_dynamic15Buffer$LT$B$GT$5allow17h4466d99fb2bc5668E>
   2049e:	07c0      	lsls	r0, r0, #31
   204a0:	d107      	bne.n	204b2 <_ZN20complex_full_dynamic3app17h1927d9c715ca6e8aE+0x62>
   204a2:	4812      	ldr	r0, [pc, #72]	@ (204ec <_ZN20complex_full_dynamic3app17h1927d9c715ca6e8aE+0x9c>)
   204a4:	2107      	movs	r1, #7
   204a6:	2203      	movs	r2, #3
   204a8:	2600      	movs	r6, #0
   204aa:	4633      	mov	r3, r6
   204ac:	df02      	svc	2
   204ae:	287f      	cmp	r0, #127	@ 0x7f
   204b0:	d80b      	bhi.n	204ca <_ZN20complex_full_dynamic3app17h1927d9c715ca6e8aE+0x7a>
   204b2:	9c04      	ldr	r4, [sp, #16]
   204b4:	6061      	str	r1, [r4, #4]
   204b6:	2601      	movs	r6, #1
   204b8:	7026      	strb	r6, [r4, #0]
   204ba:	a820      	add	r0, sp, #128	@ 0x80
   204bc:	f006 fa2a 	bl	26914 <_ZN9allow_pin12full_dynamic17unshare_if_shared17h1c062ce130e7e9d8E>
   204c0:	a805      	add	r0, sp, #20
   204c2:	f006 fa27 	bl	26914 <_ZN9allow_pin12full_dynamic17unshare_if_shared17h1c062ce130e7e9d8E>
   204c6:	b039      	add	sp, #228	@ 0xe4
   204c8:	bdf0      	pop	{r4, r5, r6, r7, pc}
   204ca:	a805      	add	r0, sp, #20
   204cc:	f006 fa22 	bl	26914 <_ZN9allow_pin12full_dynamic17unshare_if_shared17h1c062ce130e7e9d8E>
   204d0:	ac20      	add	r4, sp, #128	@ 0x80
   204d2:	4620      	mov	r0, r4
   204d4:	f006 fa1e 	bl	26914 <_ZN9allow_pin12full_dynamic17unshare_if_shared17h1c062ce130e7e9d8E>
   204d8:	4620      	mov	r0, r4
   204da:	f006 fa1b 	bl	26914 <_ZN9allow_pin12full_dynamic17unshare_if_shared17h1c062ce130e7e9d8E>
   204de:	9c04      	ldr	r4, [sp, #16]
   204e0:	1c60      	adds	r0, r4, #1
   204e2:	2255      	movs	r2, #85	@ 0x55
   204e4:	9902      	ldr	r1, [sp, #8]
   204e6:	f006 fbd6 	bl	26c96 <__aeabi_memcpy>
   204ea:	e7e5      	b.n	204b8 <_ZN20complex_full_dynamic3app17h1927d9c715ca6e8aE+0x68>
   204ec:	0000178a 	.word	0x0000178a

000204f0 <_ZN20complex_full_dynamic3app17h1d1ab2a04e26685bE>:
   204f0:	b5f0      	push	{r4, r5, r6, r7, lr}
   204f2:	af03      	add	r7, sp, #12
   204f4:	b0b3      	sub	sp, #204	@ 0xcc
   204f6:	9004      	str	r0, [sp, #16]
   204f8:	ae05      	add	r6, sp, #20
   204fa:	2502      	movs	r5, #2
   204fc:	7235      	strb	r5, [r6, #8]
   204fe:	4630      	mov	r0, r6
   20500:	300c      	adds	r0, #12
   20502:	2246      	movs	r2, #70	@ 0x46
   20504:	9203      	str	r2, [sp, #12]
   20506:	f006 fbc6 	bl	26c96 <__aeabi_memcpy>
   2050a:	ac1a      	add	r4, sp, #104	@ 0x68
   2050c:	4620      	mov	r0, r4
   2050e:	300c      	adds	r0, #12
   20510:	2156      	movs	r1, #86	@ 0x56
   20512:	9002      	str	r0, [sp, #8]
   20514:	f006 fa12 	bl	2693c <__aeabi_memclr4>
   20518:	7225      	strb	r5, [r4, #8]
   2051a:	2007      	movs	r0, #7
   2051c:	9000      	str	r0, [sp, #0]
   2051e:	2204      	movs	r2, #4
   20520:	4c1a      	ldr	r4, [pc, #104]	@ (2058c <_ZN20complex_full_dynamic3app17h1d1ab2a04e26685bE+0x9c>)
   20522:	4630      	mov	r0, r6
   20524:	9903      	ldr	r1, [sp, #12]
   20526:	4623      	mov	r3, r4
   20528:	f7ff fddc 	bl	200e4 <_ZN9allow_pin12full_dynamic15Buffer$LT$B$GT$5allow17h4466d99fb2bc5668E>
   2052c:	07c0      	lsls	r0, r0, #31
   2052e:	d110      	bne.n	20552 <_ZN20complex_full_dynamic3app17h1d1ab2a04e26685bE+0x62>
   20530:	2203      	movs	r2, #3
   20532:	9200      	str	r2, [sp, #0]
   20534:	a81a      	add	r0, sp, #104	@ 0x68
   20536:	2156      	movs	r1, #86	@ 0x56
   20538:	4623      	mov	r3, r4
   2053a:	f7ff fdd3 	bl	200e4 <_ZN9allow_pin12full_dynamic15Buffer$LT$B$GT$5allow17h4466d99fb2bc5668E>
   2053e:	07c0      	lsls	r0, r0, #31
   20540:	d107      	bne.n	20552 <_ZN20complex_full_dynamic3app17h1d1ab2a04e26685bE+0x62>
   20542:	4812      	ldr	r0, [pc, #72]	@ (2058c <_ZN20complex_full_dynamic3app17h1d1ab2a04e26685bE+0x9c>)
   20544:	2107      	movs	r1, #7
   20546:	2203      	movs	r2, #3
   20548:	2600      	movs	r6, #0
   2054a:	4633      	mov	r3, r6
   2054c:	df02      	svc	2
   2054e:	287f      	cmp	r0, #127	@ 0x7f
   20550:	d80b      	bhi.n	2056a <_ZN20complex_full_dynamic3app17h1d1ab2a04e26685bE+0x7a>
   20552:	9c04      	ldr	r4, [sp, #16]
   20554:	6061      	str	r1, [r4, #4]
   20556:	2601      	movs	r6, #1
   20558:	7026      	strb	r6, [r4, #0]
   2055a:	a81a      	add	r0, sp, #104	@ 0x68
   2055c:	f006 f9da 	bl	26914 <_ZN9allow_pin12full_dynamic17unshare_if_shared17h1c062ce130e7e9d8E>
   20560:	a805      	add	r0, sp, #20
   20562:	f006 f9d7 	bl	26914 <_ZN9allow_pin12full_dynamic17unshare_if_shared17h1c062ce130e7e9d8E>
   20566:	b033      	add	sp, #204	@ 0xcc
   20568:	bdf0      	pop	{r4, r5, r6, r7, pc}
   2056a:	a805      	add	r0, sp, #20
   2056c:	f006 f9d2 	bl	26914 <_ZN9allow_pin12full_dynamic17unshare_if_shared17h1c062ce130e7e9d8E>
   20570:	ac1a      	add	r4, sp, #104	@ 0x68
   20572:	4620      	mov	r0, r4
   20574:	f006 f9ce 	bl	26914 <_ZN9allow_pin12full_dynamic17unshare_if_shared17h1c062ce130e7e9d8E>
   20578:	4620      	mov	r0, r4
   2057a:	f006 f9cb 	bl	26914 <_ZN9allow_pin12full_dynamic17unshare_if_shared17h1c062ce130e7e9d8E>
   2057e:	9c04      	ldr	r4, [sp, #16]
   20580:	1c60      	adds	r0, r4, #1
   20582:	2256      	movs	r2, #86	@ 0x56
   20584:	9902      	ldr	r1, [sp, #8]
   20586:	f006 fb86 	bl	26c96 <__aeabi_memcpy>
   2058a:	e7e5      	b.n	20558 <_ZN20complex_full_dynamic3app17h1d1ab2a04e26685bE+0x68>
   2058c:	00001e50 	.word	0x00001e50

00020590 <_ZN20complex_full_dynamic3app17h1e88adca357812dbE>:
   20590:	b5f0      	push	{r4, r5, r6, r7, lr}
   20592:	af03      	add	r7, sp, #12
   20594:	b0ad      	sub	sp, #180	@ 0xb4
   20596:	9004      	str	r0, [sp, #16]
   20598:	ae05      	add	r6, sp, #20
   2059a:	2502      	movs	r5, #2
   2059c:	7235      	strb	r5, [r6, #8]
   2059e:	4630      	mov	r0, r6
   205a0:	300c      	adds	r0, #12
   205a2:	224f      	movs	r2, #79	@ 0x4f
   205a4:	9203      	str	r2, [sp, #12]
   205a6:	f006 fb76 	bl	26c96 <__aeabi_memcpy>
   205aa:	ac1c      	add	r4, sp, #112	@ 0x70
   205ac:	4620      	mov	r0, r4
   205ae:	300c      	adds	r0, #12
   205b0:	2135      	movs	r1, #53	@ 0x35
   205b2:	9002      	str	r0, [sp, #8]
   205b4:	f006 f9c2 	bl	2693c <__aeabi_memclr4>
   205b8:	7225      	strb	r5, [r4, #8]
   205ba:	2007      	movs	r0, #7
   205bc:	9000      	str	r0, [sp, #0]
   205be:	2204      	movs	r2, #4
   205c0:	4c1b      	ldr	r4, [pc, #108]	@ (20630 <_ZN20complex_full_dynamic3app17h1e88adca357812dbE+0xa0>)
   205c2:	4630      	mov	r0, r6
   205c4:	9903      	ldr	r1, [sp, #12]
   205c6:	4623      	mov	r3, r4
   205c8:	f7ff fd8c 	bl	200e4 <_ZN9allow_pin12full_dynamic15Buffer$LT$B$GT$5allow17h4466d99fb2bc5668E>
   205cc:	07c0      	lsls	r0, r0, #31
   205ce:	d111      	bne.n	205f4 <_ZN20complex_full_dynamic3app17h1e88adca357812dbE+0x64>
   205d0:	2001      	movs	r0, #1
   205d2:	9000      	str	r0, [sp, #0]
   205d4:	a81c      	add	r0, sp, #112	@ 0x70
   205d6:	2135      	movs	r1, #53	@ 0x35
   205d8:	2203      	movs	r2, #3
   205da:	4623      	mov	r3, r4
   205dc:	f7ff fd82 	bl	200e4 <_ZN9allow_pin12full_dynamic15Buffer$LT$B$GT$5allow17h4466d99fb2bc5668E>
   205e0:	07c0      	lsls	r0, r0, #31
   205e2:	d107      	bne.n	205f4 <_ZN20complex_full_dynamic3app17h1e88adca357812dbE+0x64>
   205e4:	4812      	ldr	r0, [pc, #72]	@ (20630 <_ZN20complex_full_dynamic3app17h1e88adca357812dbE+0xa0>)
   205e6:	2107      	movs	r1, #7
   205e8:	2201      	movs	r2, #1
   205ea:	2600      	movs	r6, #0
   205ec:	4633      	mov	r3, r6
   205ee:	df02      	svc	2
   205f0:	287f      	cmp	r0, #127	@ 0x7f
   205f2:	d80b      	bhi.n	2060c <_ZN20complex_full_dynamic3app17h1e88adca357812dbE+0x7c>
   205f4:	9c04      	ldr	r4, [sp, #16]
   205f6:	6061      	str	r1, [r4, #4]
   205f8:	2601      	movs	r6, #1
   205fa:	7026      	strb	r6, [r4, #0]
   205fc:	a81c      	add	r0, sp, #112	@ 0x70
   205fe:	f006 f989 	bl	26914 <_ZN9allow_pin12full_dynamic17unshare_if_shared17h1c062ce130e7e9d8E>
   20602:	a805      	add	r0, sp, #20
   20604:	f006 f986 	bl	26914 <_ZN9allow_pin12full_dynamic17unshare_if_shared17h1c062ce130e7e9d8E>
   20608:	b02d      	add	sp, #180	@ 0xb4
   2060a:	bdf0      	pop	{r4, r5, r6, r7, pc}
   2060c:	a805      	add	r0, sp, #20
   2060e:	f006 f981 	bl	26914 <_ZN9allow_pin12full_dynamic17unshare_if_shared17h1c062ce130e7e9d8E>
   20612:	ac1c      	add	r4, sp, #112	@ 0x70
   20614:	4620      	mov	r0, r4
   20616:	f006 f97d 	bl	26914 <_ZN9allow_pin12full_dynamic17unshare_if_shared17h1c062ce130e7e9d8E>
   2061a:	4620      	mov	r0, r4
   2061c:	f006 f97a 	bl	26914 <_ZN9allow_pin12full_dynamic17unshare_if_shared17h1c062ce130e7e9d8E>
   20620:	9c04      	ldr	r4, [sp, #16]
   20622:	1c60      	adds	r0, r4, #1
   20624:	2235      	movs	r2, #53	@ 0x35
   20626:	9902      	ldr	r1, [sp, #8]
   20628:	f006 fb35 	bl	26c96 <__aeabi_memcpy>
   2062c:	e7e5      	b.n	205fa <_ZN20complex_full_dynamic3app17h1e88adca357812dbE+0x6a>
   2062e:	46c0      	nop			@ (mov r8, r8)
   20630:	000016d7 	.word	0x000016d7

00020634 <_ZN20complex_full_dynamic3app17h219e9f9621a953caE>:
   20634:	b5f0      	push	{r4, r5, r6, r7, lr}
   20636:	af03      	add	r7, sp, #12
   20638:	b0a1      	sub	sp, #132	@ 0x84
   2063a:	9004      	str	r0, [sp, #16]
   2063c:	ae05      	add	r6, sp, #20
   2063e:	2402      	movs	r4, #2
   20640:	7234      	strb	r4, [r6, #8]
   20642:	4630      	mov	r0, r6
   20644:	300c      	adds	r0, #12
   20646:	220f      	movs	r2, #15
   20648:	9203      	str	r2, [sp, #12]
   2064a:	f006 fb24 	bl	26c96 <__aeabi_memcpy>
   2064e:	ad0c      	add	r5, sp, #48	@ 0x30
   20650:	4628      	mov	r0, r5
   20652:	300c      	adds	r0, #12
   20654:	2146      	movs	r1, #70	@ 0x46
   20656:	9002      	str	r0, [sp, #8]
   20658:	f006 f970 	bl	2693c <__aeabi_memclr4>
   2065c:	722c      	strb	r4, [r5, #8]
   2065e:	2009      	movs	r0, #9
   20660:	9000      	str	r0, [sp, #0]
   20662:	2204      	movs	r2, #4
   20664:	4d1a      	ldr	r5, [pc, #104]	@ (206d0 <_ZN20complex_full_dynamic3app17h219e9f9621a953caE+0x9c>)
   20666:	4630      	mov	r0, r6
   20668:	9903      	ldr	r1, [sp, #12]
   2066a:	462b      	mov	r3, r5
   2066c:	f7ff fd3a 	bl	200e4 <_ZN9allow_pin12full_dynamic15Buffer$LT$B$GT$5allow17h4466d99fb2bc5668E>
   20670:	07c0      	lsls	r0, r0, #31
   20672:	d110      	bne.n	20696 <_ZN20complex_full_dynamic3app17h219e9f9621a953caE+0x62>
   20674:	9400      	str	r4, [sp, #0]
   20676:	a80c      	add	r0, sp, #48	@ 0x30
   20678:	2146      	movs	r1, #70	@ 0x46
   2067a:	2203      	movs	r2, #3
   2067c:	462b      	mov	r3, r5
   2067e:	f7ff fd31 	bl	200e4 <_ZN9allow_pin12full_dynamic15Buffer$LT$B$GT$5allow17h4466d99fb2bc5668E>
   20682:	07c0      	lsls	r0, r0, #31
   20684:	d107      	bne.n	20696 <_ZN20complex_full_dynamic3app17h219e9f9621a953caE+0x62>
   20686:	4812      	ldr	r0, [pc, #72]	@ (206d0 <_ZN20complex_full_dynamic3app17h219e9f9621a953caE+0x9c>)
   20688:	2109      	movs	r1, #9
   2068a:	2202      	movs	r2, #2
   2068c:	2600      	movs	r6, #0
   2068e:	4633      	mov	r3, r6
   20690:	df02      	svc	2
   20692:	287f      	cmp	r0, #127	@ 0x7f
   20694:	d80b      	bhi.n	206ae <_ZN20complex_full_dynamic3app17h219e9f9621a953caE+0x7a>
   20696:	9c04      	ldr	r4, [sp, #16]
   20698:	6061      	str	r1, [r4, #4]
   2069a:	2601      	movs	r6, #1
   2069c:	7026      	strb	r6, [r4, #0]
   2069e:	a80c      	add	r0, sp, #48	@ 0x30
   206a0:	f006 f938 	bl	26914 <_ZN9allow_pin12full_dynamic17unshare_if_shared17h1c062ce130e7e9d8E>
   206a4:	a805      	add	r0, sp, #20
   206a6:	f006 f935 	bl	26914 <_ZN9allow_pin12full_dynamic17unshare_if_shared17h1c062ce130e7e9d8E>
   206aa:	b021      	add	sp, #132	@ 0x84
   206ac:	bdf0      	pop	{r4, r5, r6, r7, pc}
   206ae:	a805      	add	r0, sp, #20
   206b0:	f006 f930 	bl	26914 <_ZN9allow_pin12full_dynamic17unshare_if_shared17h1c062ce130e7e9d8E>
   206b4:	ac0c      	add	r4, sp, #48	@ 0x30
   206b6:	4620      	mov	r0, r4
   206b8:	f006 f92c 	bl	26914 <_ZN9allow_pin12full_dynamic17unshare_if_shared17h1c062ce130e7e9d8E>
   206bc:	4620      	mov	r0, r4
   206be:	f006 f929 	bl	26914 <_ZN9allow_pin12full_dynamic17unshare_if_shared17h1c062ce130e7e9d8E>
   206c2:	9c04      	ldr	r4, [sp, #16]
   206c4:	1c60      	adds	r0, r4, #1
   206c6:	2246      	movs	r2, #70	@ 0x46
   206c8:	9902      	ldr	r1, [sp, #8]
   206ca:	f006 fae4 	bl	26c96 <__aeabi_memcpy>
   206ce:	e7e5      	b.n	2069c <_ZN20complex_full_dynamic3app17h219e9f9621a953caE+0x68>
   206d0:	00001d7e 	.word	0x00001d7e

000206d4 <_ZN20complex_full_dynamic3app17h22a4e59418370badE>:
   206d4:	b5f0      	push	{r4, r5, r6, r7, lr}
   206d6:	af03      	add	r7, sp, #12
   206d8:	b09b      	sub	sp, #108	@ 0x6c
   206da:	9004      	str	r0, [sp, #16]
   206dc:	ae05      	add	r6, sp, #20
   206de:	2502      	movs	r5, #2
   206e0:	7235      	strb	r5, [r6, #8]
   206e2:	4630      	mov	r0, r6
   206e4:	300c      	adds	r0, #12
   206e6:	2214      	movs	r2, #20
   206e8:	9203      	str	r2, [sp, #12]
   206ea:	f006 fad4 	bl	26c96 <__aeabi_memcpy>
   206ee:	ac0d      	add	r4, sp, #52	@ 0x34
   206f0:	4620      	mov	r0, r4
   206f2:	300c      	adds	r0, #12
   206f4:	212b      	movs	r1, #43	@ 0x2b
   206f6:	9002      	str	r0, [sp, #8]
   206f8:	f006 f920 	bl	2693c <__aeabi_memclr4>
   206fc:	7225      	strb	r5, [r4, #8]
   206fe:	2008      	movs	r0, #8
   20700:	9000      	str	r0, [sp, #0]
   20702:	2504      	movs	r5, #4
   20704:	4c1b      	ldr	r4, [pc, #108]	@ (20774 <_ZN20complex_full_dynamic3app17h22a4e59418370badE+0xa0>)
   20706:	4630      	mov	r0, r6
   20708:	9903      	ldr	r1, [sp, #12]
   2070a:	462a      	mov	r2, r5
   2070c:	4623      	mov	r3, r4
   2070e:	f7ff fce9 	bl	200e4 <_ZN9allow_pin12full_dynamic15Buffer$LT$B$GT$5allow17h4466d99fb2bc5668E>
   20712:	07c0      	lsls	r0, r0, #31
   20714:	d110      	bne.n	20738 <_ZN20complex_full_dynamic3app17h22a4e59418370badE+0x64>
   20716:	9500      	str	r5, [sp, #0]
   20718:	a80d      	add	r0, sp, #52	@ 0x34
   2071a:	212b      	movs	r1, #43	@ 0x2b
   2071c:	2203      	movs	r2, #3
   2071e:	4623      	mov	r3, r4
   20720:	f7ff fce0 	bl	200e4 <_ZN9allow_pin12full_dynamic15Buffer$LT$B$GT$5allow17h4466d99fb2bc5668E>
   20724:	07c0      	lsls	r0, r0, #31
   20726:	d107      	bne.n	20738 <_ZN20complex_full_dynamic3app17h22a4e59418370badE+0x64>
   20728:	4812      	ldr	r0, [pc, #72]	@ (20774 <_ZN20complex_full_dynamic3app17h22a4e59418370badE+0xa0>)
   2072a:	2108      	movs	r1, #8
   2072c:	2204      	movs	r2, #4
   2072e:	2600      	movs	r6, #0
   20730:	4633      	mov	r3, r6
   20732:	df02      	svc	2
   20734:	287f      	cmp	r0, #127	@ 0x7f
   20736:	d80b      	bhi.n	20750 <_ZN20complex_full_dynamic3app17h22a4e59418370badE+0x7c>
   20738:	9c04      	ldr	r4, [sp, #16]
   2073a:	6061      	str	r1, [r4, #4]
   2073c:	2601      	movs	r6, #1
   2073e:	7026      	strb	r6, [r4, #0]
   20740:	a80d      	add	r0, sp, #52	@ 0x34
   20742:	f006 f8e7 	bl	26914 <_ZN9allow_pin12full_dynamic17unshare_if_shared17h1c062ce130e7e9d8E>
   20746:	a805      	add	r0, sp, #20
   20748:	f006 f8e4 	bl	26914 <_ZN9allow_pin12full_dynamic17unshare_if_shared17h1c062ce130e7e9d8E>
   2074c:	b01b      	add	sp, #108	@ 0x6c
   2074e:	bdf0      	pop	{r4, r5, r6, r7, pc}
   20750:	a805      	add	r0, sp, #20
   20752:	f006 f8df 	bl	26914 <_ZN9allow_pin12full_dynamic17unshare_if_shared17h1c062ce130e7e9d8E>
   20756:	ac0d      	add	r4, sp, #52	@ 0x34
   20758:	4620      	mov	r0, r4
   2075a:	f006 f8db 	bl	26914 <_ZN9allow_pin12full_dynamic17unshare_if_shared17h1c062ce130e7e9d8E>
   2075e:	4620      	mov	r0, r4
   20760:	f006 f8d8 	bl	26914 <_ZN9allow_pin12full_dynamic17unshare_if_shared17h1c062ce130e7e9d8E>
   20764:	9c04      	ldr	r4, [sp, #16]
   20766:	1c60      	adds	r0, r4, #1
   20768:	222b      	movs	r2, #43	@ 0x2b
   2076a:	9902      	ldr	r1, [sp, #8]
   2076c:	f006 fa93 	bl	26c96 <__aeabi_memcpy>
   20770:	e7e5      	b.n	2073e <_ZN20complex_full_dynamic3app17h22a4e59418370badE+0x6a>
   20772:	46c0      	nop			@ (mov r8, r8)
   20774:	0000239f 	.word	0x0000239f

00020778 <_ZN20complex_full_dynamic3app17h235b30895d87566eE>:
   20778:	b5f0      	push	{r4, r5, r6, r7, lr}
   2077a:	af03      	add	r7, sp, #12
   2077c:	b0a9      	sub	sp, #164	@ 0xa4
   2077e:	9004      	str	r0, [sp, #16]
   20780:	ae05      	add	r6, sp, #20
   20782:	2502      	movs	r5, #2
   20784:	7235      	strb	r5, [r6, #8]
   20786:	4630      	mov	r0, r6
   20788:	300c      	adds	r0, #12
   2078a:	2221      	movs	r2, #33	@ 0x21
   2078c:	9203      	str	r2, [sp, #12]
   2078e:	f006 fa82 	bl	26c96 <__aeabi_memcpy>
   20792:	ac11      	add	r4, sp, #68	@ 0x44
   20794:	4620      	mov	r0, r4
   20796:	300c      	adds	r0, #12
   20798:	2153      	movs	r1, #83	@ 0x53
   2079a:	9002      	str	r0, [sp, #8]
   2079c:	f006 f8ce 	bl	2693c <__aeabi_memclr4>
   207a0:	7225      	strb	r5, [r4, #8]
   207a2:	9500      	str	r5, [sp, #0]
   207a4:	2204      	movs	r2, #4
   207a6:	4c1b      	ldr	r4, [pc, #108]	@ (20814 <_ZN20complex_full_dynamic3app17h235b30895d87566eE+0x9c>)
   207a8:	4630      	mov	r0, r6
   207aa:	9903      	ldr	r1, [sp, #12]
   207ac:	4623      	mov	r3, r4
   207ae:	f7ff fc99 	bl	200e4 <_ZN9allow_pin12full_dynamic15Buffer$LT$B$GT$5allow17h4466d99fb2bc5668E>
   207b2:	07c0      	lsls	r0, r0, #31
   207b4:	d111      	bne.n	207da <_ZN20complex_full_dynamic3app17h235b30895d87566eE+0x62>
   207b6:	2008      	movs	r0, #8
   207b8:	9000      	str	r0, [sp, #0]
   207ba:	a811      	add	r0, sp, #68	@ 0x44
   207bc:	2153      	movs	r1, #83	@ 0x53
   207be:	2203      	movs	r2, #3
   207c0:	4623      	mov	r3, r4
   207c2:	f7ff fc8f 	bl	200e4 <_ZN9allow_pin12full_dynamic15Buffer$LT$B$GT$5allow17h4466d99fb2bc5668E>
   207c6:	07c0      	lsls	r0, r0, #31
   207c8:	d107      	bne.n	207da <_ZN20complex_full_dynamic3app17h235b30895d87566eE+0x62>
   207ca:	4812      	ldr	r0, [pc, #72]	@ (20814 <_ZN20complex_full_dynamic3app17h235b30895d87566eE+0x9c>)
   207cc:	2102      	movs	r1, #2
   207ce:	2208      	movs	r2, #8
   207d0:	2600      	movs	r6, #0
   207d2:	4633      	mov	r3, r6
   207d4:	df02      	svc	2
   207d6:	287f      	cmp	r0, #127	@ 0x7f
   207d8:	d80b      	bhi.n	207f2 <_ZN20complex_full_dynamic3app17h235b30895d87566eE+0x7a>
   207da:	9c04      	ldr	r4, [sp, #16]
   207dc:	6061      	str	r1, [r4, #4]
   207de:	2601      	movs	r6, #1
   207e0:	7026      	strb	r6, [r4, #0]
   207e2:	a811      	add	r0, sp, #68	@ 0x44
   207e4:	f006 f896 	bl	26914 <_ZN9allow_pin12full_dynamic17unshare_if_shared17h1c062ce130e7e9d8E>
   207e8:	a805      	add	r0, sp, #20
   207ea:	f006 f893 	bl	26914 <_ZN9allow_pin12full_dynamic17unshare_if_shared17h1c062ce130e7e9d8E>
   207ee:	b029      	add	sp, #164	@ 0xa4
   207f0:	bdf0      	pop	{r4, r5, r6, r7, pc}
   207f2:	a805      	add	r0, sp, #20
   207f4:	f006 f88e 	bl	26914 <_ZN9allow_pin12full_dynamic17unshare_if_shared17h1c062ce130e7e9d8E>
   207f8:	ac11      	add	r4, sp, #68	@ 0x44
   207fa:	4620      	mov	r0, r4
   207fc:	f006 f88a 	bl	26914 <_ZN9allow_pin12full_dynamic17unshare_if_shared17h1c062ce130e7e9d8E>
   20800:	4620      	mov	r0, r4
   20802:	f006 f887 	bl	26914 <_ZN9allow_pin12full_dynamic17unshare_if_shared17h1c062ce130e7e9d8E>
   20806:	9c04      	ldr	r4, [sp, #16]
   20808:	1c60      	adds	r0, r4, #1
   2080a:	2253      	movs	r2, #83	@ 0x53
   2080c:	9902      	ldr	r1, [sp, #8]
   2080e:	f006 fa42 	bl	26c96 <__aeabi_memcpy>
   20812:	e7e5      	b.n	207e0 <_ZN20complex_full_dynamic3app17h235b30895d87566eE+0x68>
   20814:	0000253e 	.word	0x0000253e

00020818 <_ZN20complex_full_dynamic3app17h2483abc8ba62d28eE>:
   20818:	b5f0      	push	{r4, r5, r6, r7, lr}
   2081a:	af03      	add	r7, sp, #12
   2081c:	b0a5      	sub	sp, #148	@ 0x94
   2081e:	9003      	str	r0, [sp, #12]
   20820:	ae04      	add	r6, sp, #16
   20822:	2502      	movs	r5, #2
   20824:	7235      	strb	r5, [r6, #8]
   20826:	4630      	mov	r0, r6
   20828:	300c      	adds	r0, #12
   2082a:	221a      	movs	r2, #26
   2082c:	9202      	str	r2, [sp, #8]
   2082e:	f006 fa32 	bl	26c96 <__aeabi_memcpy>
   20832:	ac0e      	add	r4, sp, #56	@ 0x38
   20834:	4620      	mov	r0, r4
   20836:	300c      	adds	r0, #12
   20838:	2150      	movs	r1, #80	@ 0x50
   2083a:	9001      	str	r0, [sp, #4]
   2083c:	f006 f87e 	bl	2693c <__aeabi_memclr4>
   20840:	7225      	strb	r5, [r4, #8]
   20842:	2007      	movs	r0, #7
   20844:	9000      	str	r0, [sp, #0]
   20846:	2504      	movs	r5, #4
   20848:	4c1b      	ldr	r4, [pc, #108]	@ (208b8 <_ZN20complex_full_dynamic3app17h2483abc8ba62d28eE+0xa0>)
   2084a:	4630      	mov	r0, r6
   2084c:	9902      	ldr	r1, [sp, #8]
   2084e:	462a      	mov	r2, r5
   20850:	4623      	mov	r3, r4
   20852:	f7ff fc47 	bl	200e4 <_ZN9allow_pin12full_dynamic15Buffer$LT$B$GT$5allow17h4466d99fb2bc5668E>
   20856:	07c0      	lsls	r0, r0, #31
   20858:	d110      	bne.n	2087c <_ZN20complex_full_dynamic3app17h2483abc8ba62d28eE+0x64>
   2085a:	9500      	str	r5, [sp, #0]
   2085c:	a80e      	add	r0, sp, #56	@ 0x38
   2085e:	2150      	movs	r1, #80	@ 0x50
   20860:	2203      	movs	r2, #3
   20862:	4623      	mov	r3, r4
   20864:	f7ff fc3e 	bl	200e4 <_ZN9allow_pin12full_dynamic15Buffer$LT$B$GT$5allow17h4466d99fb2bc5668E>
   20868:	07c0      	lsls	r0, r0, #31
   2086a:	d107      	bne.n	2087c <_ZN20complex_full_dynamic3app17h2483abc8ba62d28eE+0x64>
   2086c:	4812      	ldr	r0, [pc, #72]	@ (208b8 <_ZN20complex_full_dynamic3app17h2483abc8ba62d28eE+0xa0>)
   2086e:	2107      	movs	r1, #7
   20870:	2204      	movs	r2, #4
   20872:	2600      	movs	r6, #0
   20874:	4633      	mov	r3, r6
   20876:	df02      	svc	2
   20878:	287f      	cmp	r0, #127	@ 0x7f
   2087a:	d80b      	bhi.n	20894 <_ZN20complex_full_dynamic3app17h2483abc8ba62d28eE+0x7c>
   2087c:	9c03      	ldr	r4, [sp, #12]
   2087e:	6061      	str	r1, [r4, #4]
   20880:	2601      	movs	r6, #1
   20882:	7026      	strb	r6, [r4, #0]
   20884:	a80e      	add	r0, sp, #56	@ 0x38
   20886:	f006 f845 	bl	26914 <_ZN9allow_pin12full_dynamic17unshare_if_shared17h1c062ce130e7e9d8E>
   2088a:	a804      	add	r0, sp, #16
   2088c:	f006 f842 	bl	26914 <_ZN9allow_pin12full_dynamic17unshare_if_shared17h1c062ce130e7e9d8E>
   20890:	b025      	add	sp, #148	@ 0x94
   20892:	bdf0      	pop	{r4, r5, r6, r7, pc}
   20894:	a804      	add	r0, sp, #16
   20896:	f006 f83d 	bl	26914 <_ZN9allow_pin12full_dynamic17unshare_if_shared17h1c062ce130e7e9d8E>
   2089a:	ac0e      	add	r4, sp, #56	@ 0x38
   2089c:	4620      	mov	r0, r4
   2089e:	f006 f839 	bl	26914 <_ZN9allow_pin12full_dynamic17unshare_if_shared17h1c062ce130e7e9d8E>
   208a2:	4620      	mov	r0, r4
   208a4:	f006 f836 	bl	26914 <_ZN9allow_pin12full_dynamic17unshare_if_shared17h1c062ce130e7e9d8E>
   208a8:	9c03      	ldr	r4, [sp, #12]
   208aa:	1c60      	adds	r0, r4, #1
   208ac:	2250      	movs	r2, #80	@ 0x50
   208ae:	9901      	ldr	r1, [sp, #4]
   208b0:	f006 f9f1 	bl	26c96 <__aeabi_memcpy>
   208b4:	e7e5      	b.n	20882 <_ZN20complex_full_dynamic3app17h2483abc8ba62d28eE+0x6a>
   208b6:	46c0      	nop			@ (mov r8, r8)
   208b8:	00000aee 	.word	0x00000aee

000208bc <_ZN20complex_full_dynamic3app17h24bcc49c5f7140bfE>:
   208bc:	b5f0      	push	{r4, r5, r6, r7, lr}
   208be:	af03      	add	r7, sp, #12
   208c0:	b0a9      	sub	sp, #164	@ 0xa4
   208c2:	9003      	str	r0, [sp, #12]
   208c4:	ae04      	add	r6, sp, #16
   208c6:	2502      	movs	r5, #2
   208c8:	7235      	strb	r5, [r6, #8]
   208ca:	4630      	mov	r0, r6
   208cc:	300c      	adds	r0, #12
   208ce:	224a      	movs	r2, #74	@ 0x4a
   208d0:	9202      	str	r2, [sp, #8]
   208d2:	f006 f9e0 	bl	26c96 <__aeabi_memcpy>
   208d6:	ac1a      	add	r4, sp, #104	@ 0x68
   208d8:	4620      	mov	r0, r4
   208da:	300c      	adds	r0, #12
   208dc:	212d      	movs	r1, #45	@ 0x2d
   208de:	9001      	str	r0, [sp, #4]
   208e0:	f006 f82c 	bl	2693c <__aeabi_memclr4>
   208e4:	7225      	strb	r5, [r4, #8]
   208e6:	9500      	str	r5, [sp, #0]
   208e8:	2204      	movs	r2, #4
   208ea:	4c1b      	ldr	r4, [pc, #108]	@ (20958 <_ZN20complex_full_dynamic3app17h24bcc49c5f7140bfE+0x9c>)
   208ec:	4630      	mov	r0, r6
   208ee:	9902      	ldr	r1, [sp, #8]
   208f0:	4623      	mov	r3, r4
   208f2:	f7ff fbf7 	bl	200e4 <_ZN9allow_pin12full_dynamic15Buffer$LT$B$GT$5allow17h4466d99fb2bc5668E>
   208f6:	07c0      	lsls	r0, r0, #31
   208f8:	d110      	bne.n	2091c <_ZN20complex_full_dynamic3app17h24bcc49c5f7140bfE+0x60>
   208fa:	2203      	movs	r2, #3
   208fc:	9200      	str	r2, [sp, #0]
   208fe:	a81a      	add	r0, sp, #104	@ 0x68
   20900:	212d      	movs	r1, #45	@ 0x2d
   20902:	4623      	mov	r3, r4
   20904:	f7ff fbee 	bl	200e4 <_ZN9allow_pin12full_dynamic15Buffer$LT$B$GT$5allow17h4466d99fb2bc5668E>
   20908:	07c0      	lsls	r0, r0, #31
   2090a:	d107      	bne.n	2091c <_ZN20complex_full_dynamic3app17h24bcc49c5f7140bfE+0x60>
   2090c:	4812      	ldr	r0, [pc, #72]	@ (20958 <_ZN20complex_full_dynamic3app17h24bcc49c5f7140bfE+0x9c>)
   2090e:	2102      	movs	r1, #2
   20910:	2203      	movs	r2, #3
   20912:	2600      	movs	r6, #0
   20914:	4633      	mov	r3, r6
   20916:	df02      	svc	2
   20918:	287f      	cmp	r0, #127	@ 0x7f
   2091a:	d80b      	bhi.n	20934 <_ZN20complex_full_dynamic3app17h24bcc49c5f7140bfE+0x78>
   2091c:	9c03      	ldr	r4, [sp, #12]
   2091e:	6061      	str	r1, [r4, #4]
   20920:	2601      	movs	r6, #1
   20922:	7026      	strb	r6, [r4, #0]
   20924:	a81a      	add	r0, sp, #104	@ 0x68
   20926:	f005 fff5 	bl	26914 <_ZN9allow_pin12full_dynamic17unshare_if_shared17h1c062ce130e7e9d8E>
   2092a:	a804      	add	r0, sp, #16
   2092c:	f005 fff2 	bl	26914 <_ZN9allow_pin12full_dynamic17unshare_if_shared17h1c062ce130e7e9d8E>
   20930:	b029      	add	sp, #164	@ 0xa4
   20932:	bdf0      	pop	{r4, r5, r6, r7, pc}
   20934:	a804      	add	r0, sp, #16
   20936:	f005 ffed 	bl	26914 <_ZN9allow_pin12full_dynamic17unshare_if_shared17h1c062ce130e7e9d8E>
   2093a:	ac1a      	add	r4, sp, #104	@ 0x68
   2093c:	4620      	mov	r0, r4
   2093e:	f005 ffe9 	bl	26914 <_ZN9allow_pin12full_dynamic17unshare_if_shared17h1c062ce130e7e9d8E>
   20942:	4620      	mov	r0, r4
   20944:	f005 ffe6 	bl	26914 <_ZN9allow_pin12full_dynamic17unshare_if_shared17h1c062ce130e7e9d8E>
   20948:	9c03      	ldr	r4, [sp, #12]
   2094a:	1c60      	adds	r0, r4, #1
   2094c:	222d      	movs	r2, #45	@ 0x2d
   2094e:	9901      	ldr	r1, [sp, #4]
   20950:	f006 f9a1 	bl	26c96 <__aeabi_memcpy>
   20954:	e7e5      	b.n	20922 <_ZN20complex_full_dynamic3app17h24bcc49c5f7140bfE+0x66>
   20956:	46c0      	nop			@ (mov r8, r8)
   20958:	00000e3d 	.word	0x00000e3d

0002095c <_ZN20complex_full_dynamic3app17h24d716ba07317615E>:
   2095c:	b5f0      	push	{r4, r5, r6, r7, lr}
   2095e:	af03      	add	r7, sp, #12
   20960:	b0b3      	sub	sp, #204	@ 0xcc
   20962:	9003      	str	r0, [sp, #12]
   20964:	ae04      	add	r6, sp, #16
   20966:	2502      	movs	r5, #2
   20968:	7235      	strb	r5, [r6, #8]
   2096a:	4630      	mov	r0, r6
   2096c:	300c      	adds	r0, #12
   2096e:	2253      	movs	r2, #83	@ 0x53
   20970:	9202      	str	r2, [sp, #8]
   20972:	f006 f990 	bl	26c96 <__aeabi_memcpy>
   20976:	ac1c      	add	r4, sp, #112	@ 0x70
   20978:	4620      	mov	r0, r4
   2097a:	300c      	adds	r0, #12
   2097c:	214d      	movs	r1, #77	@ 0x4d
   2097e:	9001      	str	r0, [sp, #4]
   20980:	f005 ffdc 	bl	2693c <__aeabi_memclr4>
   20984:	7225      	strb	r5, [r4, #8]
   20986:	2009      	movs	r0, #9
   20988:	9000      	str	r0, [sp, #0]
   2098a:	2504      	movs	r5, #4
   2098c:	4c1b      	ldr	r4, [pc, #108]	@ (209fc <_ZN20complex_full_dynamic3app17h24d716ba07317615E+0xa0>)
   2098e:	4630      	mov	r0, r6
   20990:	9902      	ldr	r1, [sp, #8]
   20992:	462a      	mov	r2, r5
   20994:	4623      	mov	r3, r4
   20996:	f7ff fba5 	bl	200e4 <_ZN9allow_pin12full_dynamic15Buffer$LT$B$GT$5allow17h4466d99fb2bc5668E>
   2099a:	07c0      	lsls	r0, r0, #31
   2099c:	d110      	bne.n	209c0 <_ZN20complex_full_dynamic3app17h24d716ba07317615E+0x64>
   2099e:	9500      	str	r5, [sp, #0]
   209a0:	a81c      	add	r0, sp, #112	@ 0x70
   209a2:	214d      	movs	r1, #77	@ 0x4d
   209a4:	2203      	movs	r2, #3
   209a6:	4623      	mov	r3, r4
   209a8:	f7ff fb9c 	bl	200e4 <_ZN9allow_pin12full_dynamic15Buffer$LT$B$GT$5allow17h4466d99fb2bc5668E>
   209ac:	07c0      	lsls	r0, r0, #31
   209ae:	d107      	bne.n	209c0 <_ZN20complex_full_dynamic3app17h24d716ba07317615E+0x64>
   209b0:	4812      	ldr	r0, [pc, #72]	@ (209fc <_ZN20complex_full_dynamic3app17h24d716ba07317615E+0xa0>)
   209b2:	2109      	movs	r1, #9
   209b4:	2204      	movs	r2, #4
   209b6:	2600      	movs	r6, #0
   209b8:	4633      	mov	r3, r6
   209ba:	df02      	svc	2
   209bc:	287f      	cmp	r0, #127	@ 0x7f
   209be:	d80b      	bhi.n	209d8 <_ZN20complex_full_dynamic3app17h24d716ba07317615E+0x7c>
   209c0:	9c03      	ldr	r4, [sp, #12]
   209c2:	6061      	str	r1, [r4, #4]
   209c4:	2601      	movs	r6, #1
   209c6:	7026      	strb	r6, [r4, #0]
   209c8:	a81c      	add	r0, sp, #112	@ 0x70
   209ca:	f005 ffa3 	bl	26914 <_ZN9allow_pin12full_dynamic17unshare_if_shared17h1c062ce130e7e9d8E>
   209ce:	a804      	add	r0, sp, #16
   209d0:	f005 ffa0 	bl	26914 <_ZN9allow_pin12full_dynamic17unshare_if_shared17h1c062ce130e7e9d8E>
   209d4:	b033      	add	sp, #204	@ 0xcc
   209d6:	bdf0      	pop	{r4, r5, r6, r7, pc}
   209d8:	a804      	add	r0, sp, #16
   209da:	f005 ff9b 	bl	26914 <_ZN9allow_pin12full_dynamic17unshare_if_shared17h1c062ce130e7e9d8E>
   209de:	ac1c      	add	r4, sp, #112	@ 0x70
   209e0:	4620      	mov	r0, r4
   209e2:	f005 ff97 	bl	26914 <_ZN9allow_pin12full_dynamic17unshare_if_shared17h1c062ce130e7e9d8E>
   209e6:	4620      	mov	r0, r4
   209e8:	f005 ff94 	bl	26914 <_ZN9allow_pin12full_dynamic17unshare_if_shared17h1c062ce130e7e9d8E>
   209ec:	9c03      	ldr	r4, [sp, #12]
   209ee:	1c60      	adds	r0, r4, #1
   209f0:	224d      	movs	r2, #77	@ 0x4d
   209f2:	9901      	ldr	r1, [sp, #4]
   209f4:	f006 f94f 	bl	26c96 <__aeabi_memcpy>
   209f8:	e7e5      	b.n	209c6 <_ZN20complex_full_dynamic3app17h24d716ba07317615E+0x6a>
   209fa:	46c0      	nop			@ (mov r8, r8)
   209fc:	000016ba 	.word	0x000016ba

00020a00 <_ZN20complex_full_dynamic3app17h258aaefc42dfb0aeE>:
   20a00:	b5f0      	push	{r4, r5, r6, r7, lr}
   20a02:	af03      	add	r7, sp, #12
   20a04:	b0a3      	sub	sp, #140	@ 0x8c
   20a06:	9003      	str	r0, [sp, #12]
   20a08:	ae04      	add	r6, sp, #16
   20a0a:	2502      	movs	r5, #2
   20a0c:	7235      	strb	r5, [r6, #8]
   20a0e:	4630      	mov	r0, r6
   20a10:	300c      	adds	r0, #12
   20a12:	223b      	movs	r2, #59	@ 0x3b
   20a14:	9202      	str	r2, [sp, #8]
   20a16:	f006 f93e 	bl	26c96 <__aeabi_memcpy>
   20a1a:	ac16      	add	r4, sp, #88	@ 0x58
   20a1c:	4620      	mov	r0, r4
   20a1e:	300c      	adds	r0, #12
   20a20:	2127      	movs	r1, #39	@ 0x27
   20a22:	9001      	str	r0, [sp, #4]
   20a24:	f005 ff8a 	bl	2693c <__aeabi_memclr4>
   20a28:	7225      	strb	r5, [r4, #8]
   20a2a:	2005      	movs	r0, #5
   20a2c:	9000      	str	r0, [sp, #0]
   20a2e:	2204      	movs	r2, #4
   20a30:	4c1a      	ldr	r4, [pc, #104]	@ (20a9c <_ZN20complex_full_dynamic3app17h258aaefc42dfb0aeE+0x9c>)
   20a32:	4630      	mov	r0, r6
   20a34:	9902      	ldr	r1, [sp, #8]
   20a36:	4623      	mov	r3, r4
   20a38:	f7ff fb54 	bl	200e4 <_ZN9allow_pin12full_dynamic15Buffer$LT$B$GT$5allow17h4466d99fb2bc5668E>
   20a3c:	07c0      	lsls	r0, r0, #31
   20a3e:	d110      	bne.n	20a62 <_ZN20complex_full_dynamic3app17h258aaefc42dfb0aeE+0x62>
   20a40:	2203      	movs	r2, #3
   20a42:	9200      	str	r2, [sp, #0]
   20a44:	a816      	add	r0, sp, #88	@ 0x58
   20a46:	2127      	movs	r1, #39	@ 0x27
   20a48:	4623      	mov	r3, r4
   20a4a:	f7ff fb4b 	bl	200e4 <_ZN9allow_pin12full_dynamic15Buffer$LT$B$GT$5allow17h4466d99fb2bc5668E>
   20a4e:	07c0      	lsls	r0, r0, #31
   20a50:	d107      	bne.n	20a62 <_ZN20complex_full_dynamic3app17h258aaefc42dfb0aeE+0x62>
   20a52:	4812      	ldr	r0, [pc, #72]	@ (20a9c <_ZN20complex_full_dynamic3app17h258aaefc42dfb0aeE+0x9c>)
   20a54:	2105      	movs	r1, #5
   20a56:	2203      	movs	r2, #3
   20a58:	2600      	movs	r6, #0
   20a5a:	4633      	mov	r3, r6
   20a5c:	df02      	svc	2
   20a5e:	287f      	cmp	r0, #127	@ 0x7f
   20a60:	d80b      	bhi.n	20a7a <_ZN20complex_full_dynamic3app17h258aaefc42dfb0aeE+0x7a>
   20a62:	9c03      	ldr	r4, [sp, #12]
   20a64:	6061      	str	r1, [r4, #4]
   20a66:	2601      	movs	r6, #1
   20a68:	7026      	strb	r6, [r4, #0]
   20a6a:	a816      	add	r0, sp, #88	@ 0x58
   20a6c:	f005 ff52 	bl	26914 <_ZN9allow_pin12full_dynamic17unshare_if_shared17h1c062ce130e7e9d8E>
   20a70:	a804      	add	r0, sp, #16
   20a72:	f005 ff4f 	bl	26914 <_ZN9allow_pin12full_dynamic17unshare_if_shared17h1c062ce130e7e9d8E>
   20a76:	b023      	add	sp, #140	@ 0x8c
   20a78:	bdf0      	pop	{r4, r5, r6, r7, pc}
   20a7a:	a804      	add	r0, sp, #16
   20a7c:	f005 ff4a 	bl	26914 <_ZN9allow_pin12full_dynamic17unshare_if_shared17h1c062ce130e7e9d8E>
   20a80:	ac16      	add	r4, sp, #88	@ 0x58
   20a82:	4620      	mov	r0, r4
   20a84:	f005 ff46 	bl	26914 <_ZN9allow_pin12full_dynamic17unshare_if_shared17h1c062ce130e7e9d8E>
   20a88:	4620      	mov	r0, r4
   20a8a:	f005 ff43 	bl	26914 <_ZN9allow_pin12full_dynamic17unshare_if_shared17h1c062ce130e7e9d8E>
   20a8e:	9c03      	ldr	r4, [sp, #12]
   20a90:	1c60      	adds	r0, r4, #1
   20a92:	2227      	movs	r2, #39	@ 0x27
   20a94:	9901      	ldr	r1, [sp, #4]
   20a96:	f006 f8fe 	bl	26c96 <__aeabi_memcpy>
   20a9a:	e7e5      	b.n	20a68 <_ZN20complex_full_dynamic3app17h258aaefc42dfb0aeE+0x68>
   20a9c:	00000bd3 	.word	0x00000bd3

00020aa0 <_ZN20complex_full_dynamic3app17h26634442635ae112E>:
   20aa0:	b5f0      	push	{r4, r5, r6, r7, lr}
   20aa2:	af03      	add	r7, sp, #12
   20aa4:	b0af      	sub	sp, #188	@ 0xbc
   20aa6:	9004      	str	r0, [sp, #16]
   20aa8:	ae05      	add	r6, sp, #20
   20aaa:	2402      	movs	r4, #2
   20aac:	7234      	strb	r4, [r6, #8]
   20aae:	4630      	mov	r0, r6
   20ab0:	300c      	adds	r0, #12
   20ab2:	222f      	movs	r2, #47	@ 0x2f
   20ab4:	9203      	str	r2, [sp, #12]
   20ab6:	f006 f8ee 	bl	26c96 <__aeabi_memcpy>
   20aba:	ad14      	add	r5, sp, #80	@ 0x50
   20abc:	4628      	mov	r0, r5
   20abe:	300c      	adds	r0, #12
   20ac0:	215e      	movs	r1, #94	@ 0x5e
   20ac2:	9002      	str	r0, [sp, #8]
   20ac4:	f005 ff3a 	bl	2693c <__aeabi_memclr4>
   20ac8:	722c      	strb	r4, [r5, #8]
   20aca:	2005      	movs	r0, #5
   20acc:	9000      	str	r0, [sp, #0]
   20ace:	2204      	movs	r2, #4
   20ad0:	4d1a      	ldr	r5, [pc, #104]	@ (20b3c <_ZN20complex_full_dynamic3app17h26634442635ae112E+0x9c>)
   20ad2:	4630      	mov	r0, r6
   20ad4:	9903      	ldr	r1, [sp, #12]
   20ad6:	462b      	mov	r3, r5
   20ad8:	f7ff fb04 	bl	200e4 <_ZN9allow_pin12full_dynamic15Buffer$LT$B$GT$5allow17h4466d99fb2bc5668E>
   20adc:	07c0      	lsls	r0, r0, #31
   20ade:	d110      	bne.n	20b02 <_ZN20complex_full_dynamic3app17h26634442635ae112E+0x62>
   20ae0:	9400      	str	r4, [sp, #0]
   20ae2:	a814      	add	r0, sp, #80	@ 0x50
   20ae4:	215e      	movs	r1, #94	@ 0x5e
   20ae6:	2203      	movs	r2, #3
   20ae8:	462b      	mov	r3, r5
   20aea:	f7ff fafb 	bl	200e4 <_ZN9allow_pin12full_dynamic15Buffer$LT$B$GT$5allow17h4466d99fb2bc5668E>
   20aee:	07c0      	lsls	r0, r0, #31
   20af0:	d107      	bne.n	20b02 <_ZN20complex_full_dynamic3app17h26634442635ae112E+0x62>
   20af2:	4812      	ldr	r0, [pc, #72]	@ (20b3c <_ZN20complex_full_dynamic3app17h26634442635ae112E+0x9c>)
   20af4:	2105      	movs	r1, #5
   20af6:	2202      	movs	r2, #2
   20af8:	2600      	movs	r6, #0
   20afa:	4633      	mov	r3, r6
   20afc:	df02      	svc	2
   20afe:	287f      	cmp	r0, #127	@ 0x7f
   20b00:	d80b      	bhi.n	20b1a <_ZN20complex_full_dynamic3app17h26634442635ae112E+0x7a>
   20b02:	9c04      	ldr	r4, [sp, #16]
   20b04:	6061      	str	r1, [r4, #4]
   20b06:	2601      	movs	r6, #1
   20b08:	7026      	strb	r6, [r4, #0]
   20b0a:	a814      	add	r0, sp, #80	@ 0x50
   20b0c:	f005 ff02 	bl	26914 <_ZN9allow_pin12full_dynamic17unshare_if_shared17h1c062ce130e7e9d8E>
   20b10:	a805      	add	r0, sp, #20
   20b12:	f005 feff 	bl	26914 <_ZN9allow_pin12full_dynamic17unshare_if_shared17h1c062ce130e7e9d8E>
   20b16:	b02f      	add	sp, #188	@ 0xbc
   20b18:	bdf0      	pop	{r4, r5, r6, r7, pc}
   20b1a:	a805      	add	r0, sp, #20
   20b1c:	f005 fefa 	bl	26914 <_ZN9allow_pin12full_dynamic17unshare_if_shared17h1c062ce130e7e9d8E>
   20b20:	ac14      	add	r4, sp, #80	@ 0x50
   20b22:	4620      	mov	r0, r4
   20b24:	f005 fef6 	bl	26914 <_ZN9allow_pin12full_dynamic17unshare_if_shared17h1c062ce130e7e9d8E>
   20b28:	4620      	mov	r0, r4
   20b2a:	f005 fef3 	bl	26914 <_ZN9allow_pin12full_dynamic17unshare_if_shared17h1c062ce130e7e9d8E>
   20b2e:	9c04      	ldr	r4, [sp, #16]
   20b30:	1c60      	adds	r0, r4, #1
   20b32:	225e      	movs	r2, #94	@ 0x5e
   20b34:	9902      	ldr	r1, [sp, #8]
   20b36:	f006 f8ae 	bl	26c96 <__aeabi_memcpy>
   20b3a:	e7e5      	b.n	20b08 <_ZN20complex_full_dynamic3app17h26634442635ae112E+0x68>
   20b3c:	0000022b 	.word	0x0000022b

00020b40 <_ZN20complex_full_dynamic3app17h2a0a44b0ca89680eE>:
   20b40:	b5f0      	push	{r4, r5, r6, r7, lr}
   20b42:	af03      	add	r7, sp, #12
   20b44:	b0a1      	sub	sp, #132	@ 0x84
   20b46:	9004      	str	r0, [sp, #16]
   20b48:	ae05      	add	r6, sp, #20
   20b4a:	2502      	movs	r5, #2
   20b4c:	7235      	strb	r5, [r6, #8]
   20b4e:	4630      	mov	r0, r6
   20b50:	300c      	adds	r0, #12
   20b52:	220e      	movs	r2, #14
   20b54:	9203      	str	r2, [sp, #12]
   20b56:	f006 f89e 	bl	26c96 <__aeabi_memcpy>
   20b5a:	ac0c      	add	r4, sp, #48	@ 0x30
   20b5c:	4620      	mov	r0, r4
   20b5e:	300c      	adds	r0, #12
   20b60:	2148      	movs	r1, #72	@ 0x48
   20b62:	9002      	str	r0, [sp, #8]
   20b64:	f005 feea 	bl	2693c <__aeabi_memclr4>
   20b68:	7225      	strb	r5, [r4, #8]
   20b6a:	2003      	movs	r0, #3
   20b6c:	9000      	str	r0, [sp, #0]
   20b6e:	2204      	movs	r2, #4
   20b70:	4c1b      	ldr	r4, [pc, #108]	@ (20be0 <_ZN20complex_full_dynamic3app17h2a0a44b0ca89680eE+0xa0>)
   20b72:	4630      	mov	r0, r6
   20b74:	9903      	ldr	r1, [sp, #12]
   20b76:	4623      	mov	r3, r4
   20b78:	f7ff fab4 	bl	200e4 <_ZN9allow_pin12full_dynamic15Buffer$LT$B$GT$5allow17h4466d99fb2bc5668E>
   20b7c:	07c0      	lsls	r0, r0, #31
   20b7e:	d111      	bne.n	20ba4 <_ZN20complex_full_dynamic3app17h2a0a44b0ca89680eE+0x64>
   20b80:	2008      	movs	r0, #8
   20b82:	9000      	str	r0, [sp, #0]
   20b84:	a80c      	add	r0, sp, #48	@ 0x30
   20b86:	2148      	movs	r1, #72	@ 0x48
   20b88:	2203      	movs	r2, #3
   20b8a:	4623      	mov	r3, r4
   20b8c:	f7ff faaa 	bl	200e4 <_ZN9allow_pin12full_dynamic15Buffer$LT$B$GT$5allow17h4466d99fb2bc5668E>
   20b90:	07c0      	lsls	r0, r0, #31
   20b92:	d107      	bne.n	20ba4 <_ZN20complex_full_dynamic3app17h2a0a44b0ca89680eE+0x64>
   20b94:	4812      	ldr	r0, [pc, #72]	@ (20be0 <_ZN20complex_full_dynamic3app17h2a0a44b0ca89680eE+0xa0>)
   20b96:	2103      	movs	r1, #3
   20b98:	2208      	movs	r2, #8
   20b9a:	2600      	movs	r6, #0
   20b9c:	4633      	mov	r3, r6
   20b9e:	df02      	svc	2
   20ba0:	287f      	cmp	r0, #127	@ 0x7f
   20ba2:	d80b      	bhi.n	20bbc <_ZN20complex_full_dynamic3app17h2a0a44b0ca89680eE+0x7c>
   20ba4:	9c04      	ldr	r4, [sp, #16]
   20ba6:	6061      	str	r1, [r4, #4]
   20ba8:	2601      	movs	r6, #1
   20baa:	7026      	strb	r6, [r4, #0]
   20bac:	a80c      	add	r0, sp, #48	@ 0x30
   20bae:	f005 feb1 	bl	26914 <_ZN9allow_pin12full_dynamic17unshare_if_shared17h1c062ce130e7e9d8E>
   20bb2:	a805      	add	r0, sp, #20
   20bb4:	f005 feae 	bl	26914 <_ZN9allow_pin12full_dynamic17unshare_if_shared17h1c062ce130e7e9d8E>
   20bb8:	b021      	add	sp, #132	@ 0x84
   20bba:	bdf0      	pop	{r4, r5, r6, r7, pc}
   20bbc:	a805      	add	r0, sp, #20
   20bbe:	f005 fea9 	bl	26914 <_ZN9allow_pin12full_dynamic17unshare_if_shared17h1c062ce130e7e9d8E>
   20bc2:	ac0c      	add	r4, sp, #48	@ 0x30
   20bc4:	4620      	mov	r0, r4
   20bc6:	f005 fea5 	bl	26914 <_ZN9allow_pin12full_dynamic17unshare_if_shared17h1c062ce130e7e9d8E>
   20bca:	4620      	mov	r0, r4
   20bcc:	f005 fea2 	bl	26914 <_ZN9allow_pin12full_dynamic17unshare_if_shared17h1c062ce130e7e9d8E>
   20bd0:	9c04      	ldr	r4, [sp, #16]
   20bd2:	1c60      	adds	r0, r4, #1
   20bd4:	2248      	movs	r2, #72	@ 0x48
   20bd6:	9902      	ldr	r1, [sp, #8]
   20bd8:	f006 f85d 	bl	26c96 <__aeabi_memcpy>
   20bdc:	e7e5      	b.n	20baa <_ZN20complex_full_dynamic3app17h2a0a44b0ca89680eE+0x6a>
   20bde:	46c0      	nop			@ (mov r8, r8)
   20be0:	000012d1 	.word	0x000012d1

00020be4 <_ZN20complex_full_dynamic3app17h2d31686116964e00E>:
   20be4:	b5f0      	push	{r4, r5, r6, r7, lr}
   20be6:	af03      	add	r7, sp, #12
   20be8:	b09b      	sub	sp, #108	@ 0x6c
   20bea:	9004      	str	r0, [sp, #16]
   20bec:	ae05      	add	r6, sp, #20
   20bee:	2402      	movs	r4, #2
   20bf0:	7234      	strb	r4, [r6, #8]
   20bf2:	4630      	mov	r0, r6
   20bf4:	300c      	adds	r0, #12
   20bf6:	2225      	movs	r2, #37	@ 0x25
   20bf8:	9203      	str	r2, [sp, #12]
   20bfa:	f006 f84c 	bl	26c96 <__aeabi_memcpy>
   20bfe:	ad12      	add	r5, sp, #72	@ 0x48
   20c00:	4628      	mov	r0, r5
   20c02:	300c      	adds	r0, #12
   20c04:	2118      	movs	r1, #24
   20c06:	9002      	str	r0, [sp, #8]
   20c08:	f005 fe98 	bl	2693c <__aeabi_memclr4>
   20c0c:	722c      	strb	r4, [r5, #8]
   20c0e:	2009      	movs	r0, #9
   20c10:	9000      	str	r0, [sp, #0]
   20c12:	20a7      	movs	r0, #167	@ 0xa7
   20c14:	0104      	lsls	r4, r0, #4
   20c16:	2204      	movs	r2, #4
   20c18:	4630      	mov	r0, r6
   20c1a:	9903      	ldr	r1, [sp, #12]
   20c1c:	4623      	mov	r3, r4
   20c1e:	f7ff fa61 	bl	200e4 <_ZN9allow_pin12full_dynamic15Buffer$LT$B$GT$5allow17h4466d99fb2bc5668E>
   20c22:	07c0      	lsls	r0, r0, #31
   20c24:	d111      	bne.n	20c4a <_ZN20complex_full_dynamic3app17h2d31686116964e00E+0x66>
   20c26:	2008      	movs	r0, #8
   20c28:	9000      	str	r0, [sp, #0]
   20c2a:	a812      	add	r0, sp, #72	@ 0x48
   20c2c:	2118      	movs	r1, #24
   20c2e:	2203      	movs	r2, #3
   20c30:	4623      	mov	r3, r4
   20c32:	f7ff fa57 	bl	200e4 <_ZN9allow_pin12full_dynamic15Buffer$LT$B$GT$5allow17h4466d99fb2bc5668E>
   20c36:	07c0      	lsls	r0, r0, #31
   20c38:	d107      	bne.n	20c4a <_ZN20complex_full_dynamic3app17h2d31686116964e00E+0x66>
   20c3a:	2109      	movs	r1, #9
   20c3c:	2208      	movs	r2, #8
   20c3e:	2600      	movs	r6, #0
   20c40:	4620      	mov	r0, r4
   20c42:	4633      	mov	r3, r6
   20c44:	df02      	svc	2
   20c46:	287f      	cmp	r0, #127	@ 0x7f
   20c48:	d80b      	bhi.n	20c62 <_ZN20complex_full_dynamic3app17h2d31686116964e00E+0x7e>
   20c4a:	9c04      	ldr	r4, [sp, #16]
   20c4c:	6061      	str	r1, [r4, #4]
   20c4e:	2601      	movs	r6, #1
   20c50:	7026      	strb	r6, [r4, #0]
   20c52:	a812      	add	r0, sp, #72	@ 0x48
   20c54:	f005 fe5e 	bl	26914 <_ZN9allow_pin12full_dynamic17unshare_if_shared17h1c062ce130e7e9d8E>
   20c58:	a805      	add	r0, sp, #20
   20c5a:	f005 fe5b 	bl	26914 <_ZN9allow_pin12full_dynamic17unshare_if_shared17h1c062ce130e7e9d8E>
   20c5e:	b01b      	add	sp, #108	@ 0x6c
   20c60:	bdf0      	pop	{r4, r5, r6, r7, pc}
   20c62:	a805      	add	r0, sp, #20
   20c64:	f005 fe56 	bl	26914 <_ZN9allow_pin12full_dynamic17unshare_if_shared17h1c062ce130e7e9d8E>
   20c68:	ac12      	add	r4, sp, #72	@ 0x48
   20c6a:	4620      	mov	r0, r4
   20c6c:	f005 fe52 	bl	26914 <_ZN9allow_pin12full_dynamic17unshare_if_shared17h1c062ce130e7e9d8E>
   20c70:	4620      	mov	r0, r4
   20c72:	f005 fe4f 	bl	26914 <_ZN9allow_pin12full_dynamic17unshare_if_shared17h1c062ce130e7e9d8E>
   20c76:	9c04      	ldr	r4, [sp, #16]
   20c78:	1c60      	adds	r0, r4, #1
   20c7a:	2218      	movs	r2, #24
   20c7c:	9902      	ldr	r1, [sp, #8]
   20c7e:	f006 f80a 	bl	26c96 <__aeabi_memcpy>
   20c82:	e7e5      	b.n	20c50 <_ZN20complex_full_dynamic3app17h2d31686116964e00E+0x6c>

00020c84 <_ZN20complex_full_dynamic3app17h2e489fdede7f8364E>:
   20c84:	b5f0      	push	{r4, r5, r6, r7, lr}
   20c86:	af03      	add	r7, sp, #12
   20c88:	b0a5      	sub	sp, #148	@ 0x94
   20c8a:	9004      	str	r0, [sp, #16]
   20c8c:	ae05      	add	r6, sp, #20
   20c8e:	2002      	movs	r0, #2
   20c90:	9003      	str	r0, [sp, #12]
   20c92:	7230      	strb	r0, [r6, #8]
   20c94:	4630      	mov	r0, r6
   20c96:	300c      	adds	r0, #12
   20c98:	2432      	movs	r4, #50	@ 0x32
   20c9a:	4622      	mov	r2, r4
   20c9c:	f005 fffb 	bl	26c96 <__aeabi_memcpy>
   20ca0:	ad15      	add	r5, sp, #84	@ 0x54
   20ca2:	4628      	mov	r0, r5
   20ca4:	300c      	adds	r0, #12
   20ca6:	9002      	str	r0, [sp, #8]
   20ca8:	4621      	mov	r1, r4
   20caa:	f005 fe47 	bl	2693c <__aeabi_memclr4>
   20cae:	9803      	ldr	r0, [sp, #12]
   20cb0:	7228      	strb	r0, [r5, #8]
   20cb2:	2003      	movs	r0, #3
   20cb4:	9000      	str	r0, [sp, #0]
   20cb6:	2204      	movs	r2, #4
   20cb8:	4d1b      	ldr	r5, [pc, #108]	@ (20d28 <_ZN20complex_full_dynamic3app17h2e489fdede7f8364E+0xa4>)
   20cba:	4630      	mov	r0, r6
   20cbc:	4621      	mov	r1, r4
   20cbe:	462b      	mov	r3, r5
   20cc0:	f7ff fa10 	bl	200e4 <_ZN9allow_pin12full_dynamic15Buffer$LT$B$GT$5allow17h4466d99fb2bc5668E>
   20cc4:	07c0      	lsls	r0, r0, #31
   20cc6:	d111      	bne.n	20cec <_ZN20complex_full_dynamic3app17h2e489fdede7f8364E+0x68>
   20cc8:	2001      	movs	r0, #1
   20cca:	9000      	str	r0, [sp, #0]
   20ccc:	a815      	add	r0, sp, #84	@ 0x54
   20cce:	2132      	movs	r1, #50	@ 0x32
   20cd0:	2203      	movs	r2, #3
   20cd2:	462b      	mov	r3, r5
   20cd4:	f7ff fa06 	bl	200e4 <_ZN9allow_pin12full_dynamic15Buffer$LT$B$GT$5allow17h4466d99fb2bc5668E>
   20cd8:	07c0      	lsls	r0, r0, #31
   20cda:	d107      	bne.n	20cec <_ZN20complex_full_dynamic3app17h2e489fdede7f8364E+0x68>
   20cdc:	4812      	ldr	r0, [pc, #72]	@ (20d28 <_ZN20complex_full_dynamic3app17h2e489fdede7f8364E+0xa4>)
   20cde:	2103      	movs	r1, #3
   20ce0:	2201      	movs	r2, #1
   20ce2:	2600      	movs	r6, #0
   20ce4:	4633      	mov	r3, r6
   20ce6:	df02      	svc	2
   20ce8:	287f      	cmp	r0, #127	@ 0x7f
   20cea:	d80b      	bhi.n	20d04 <_ZN20complex_full_dynamic3app17h2e489fdede7f8364E+0x80>
   20cec:	9c04      	ldr	r4, [sp, #16]
   20cee:	6061      	str	r1, [r4, #4]
   20cf0:	2601      	movs	r6, #1
   20cf2:	7026      	strb	r6, [r4, #0]
   20cf4:	a815      	add	r0, sp, #84	@ 0x54
   20cf6:	f005 fe0d 	bl	26914 <_ZN9allow_pin12full_dynamic17unshare_if_shared17h1c062ce130e7e9d8E>
   20cfa:	a805      	add	r0, sp, #20
   20cfc:	f005 fe0a 	bl	26914 <_ZN9allow_pin12full_dynamic17unshare_if_shared17h1c062ce130e7e9d8E>
   20d00:	b025      	add	sp, #148	@ 0x94
   20d02:	bdf0      	pop	{r4, r5, r6, r7, pc}
   20d04:	a805      	add	r0, sp, #20
   20d06:	f005 fe05 	bl	26914 <_ZN9allow_pin12full_dynamic17unshare_if_shared17h1c062ce130e7e9d8E>
   20d0a:	ac15      	add	r4, sp, #84	@ 0x54
   20d0c:	4620      	mov	r0, r4
   20d0e:	f005 fe01 	bl	26914 <_ZN9allow_pin12full_dynamic17unshare_if_shared17h1c062ce130e7e9d8E>
   20d12:	4620      	mov	r0, r4
   20d14:	f005 fdfe 	bl	26914 <_ZN9allow_pin12full_dynamic17unshare_if_shared17h1c062ce130e7e9d8E>
   20d18:	9c04      	ldr	r4, [sp, #16]
   20d1a:	1c60      	adds	r0, r4, #1
   20d1c:	2232      	movs	r2, #50	@ 0x32
   20d1e:	9902      	ldr	r1, [sp, #8]
   20d20:	f005 ffb9 	bl	26c96 <__aeabi_memcpy>
   20d24:	e7e5      	b.n	20cf2 <_ZN20complex_full_dynamic3app17h2e489fdede7f8364E+0x6e>
   20d26:	46c0      	nop			@ (mov r8, r8)
   20d28:	00001f07 	.word	0x00001f07

00020d2c <_ZN20complex_full_dynamic3app17h3180f2e9ac696ecdE>:
   20d2c:	b5f0      	push	{r4, r5, r6, r7, lr}
   20d2e:	af03      	add	r7, sp, #12
   20d30:	b0a1      	sub	sp, #132	@ 0x84
   20d32:	9004      	str	r0, [sp, #16]
   20d34:	ae05      	add	r6, sp, #20
   20d36:	2502      	movs	r5, #2
   20d38:	7235      	strb	r5, [r6, #8]
   20d3a:	4630      	mov	r0, r6
   20d3c:	300c      	adds	r0, #12
   20d3e:	2248      	movs	r2, #72	@ 0x48
   20d40:	9203      	str	r2, [sp, #12]
   20d42:	f005 ffa8 	bl	26c96 <__aeabi_memcpy>
   20d46:	ac1a      	add	r4, sp, #104	@ 0x68
   20d48:	4620      	mov	r0, r4
   20d4a:	300c      	adds	r0, #12
   20d4c:	210f      	movs	r1, #15
   20d4e:	9002      	str	r0, [sp, #8]
   20d50:	f005 fdf4 	bl	2693c <__aeabi_memclr4>
   20d54:	7225      	strb	r5, [r4, #8]
   20d56:	2008      	movs	r0, #8
   20d58:	9000      	str	r0, [sp, #0]
   20d5a:	2204      	movs	r2, #4
   20d5c:	4c1b      	ldr	r4, [pc, #108]	@ (20dcc <_ZN20complex_full_dynamic3app17h3180f2e9ac696ecdE+0xa0>)
   20d5e:	4630      	mov	r0, r6
   20d60:	9903      	ldr	r1, [sp, #12]
   20d62:	4623      	mov	r3, r4
   20d64:	f7ff f9be 	bl	200e4 <_ZN9allow_pin12full_dynamic15Buffer$LT$B$GT$5allow17h4466d99fb2bc5668E>
   20d68:	07c0      	lsls	r0, r0, #31
   20d6a:	d111      	bne.n	20d90 <_ZN20complex_full_dynamic3app17h3180f2e9ac696ecdE+0x64>
   20d6c:	2009      	movs	r0, #9
   20d6e:	9000      	str	r0, [sp, #0]
   20d70:	a81a      	add	r0, sp, #104	@ 0x68
   20d72:	210f      	movs	r1, #15
   20d74:	2203      	movs	r2, #3
   20d76:	4623      	mov	r3, r4
   20d78:	f7ff f9b4 	bl	200e4 <_ZN9allow_pin12full_dynamic15Buffer$LT$B$GT$5allow17h4466d99fb2bc5668E>
   20d7c:	07c0      	lsls	r0, r0, #31
   20d7e:	d107      	bne.n	20d90 <_ZN20complex_full_dynamic3app17h3180f2e9ac696ecdE+0x64>
   20d80:	4812      	ldr	r0, [pc, #72]	@ (20dcc <_ZN20complex_full_dynamic3app17h3180f2e9ac696ecdE+0xa0>)
   20d82:	2108      	movs	r1, #8
   20d84:	2209      	movs	r2, #9
   20d86:	2600      	movs	r6, #0
   20d88:	4633      	mov	r3, r6
   20d8a:	df02      	svc	2
   20d8c:	287f      	cmp	r0, #127	@ 0x7f
   20d8e:	d80b      	bhi.n	20da8 <_ZN20complex_full_dynamic3app17h3180f2e9ac696ecdE+0x7c>
   20d90:	9c04      	ldr	r4, [sp, #16]
   20d92:	6061      	str	r1, [r4, #4]
   20d94:	2601      	movs	r6, #1
   20d96:	7026      	strb	r6, [r4, #0]
   20d98:	a81a      	add	r0, sp, #104	@ 0x68
   20d9a:	f005 fdbb 	bl	26914 <_ZN9allow_pin12full_dynamic17unshare_if_shared17h1c062ce130e7e9d8E>
   20d9e:	a805      	add	r0, sp, #20
   20da0:	f005 fdb8 	bl	26914 <_ZN9allow_pin12full_dynamic17unshare_if_shared17h1c062ce130e7e9d8E>
   20da4:	b021      	add	sp, #132	@ 0x84
   20da6:	bdf0      	pop	{r4, r5, r6, r7, pc}
   20da8:	a805      	add	r0, sp, #20
   20daa:	f005 fdb3 	bl	26914 <_ZN9allow_pin12full_dynamic17unshare_if_shared17h1c062ce130e7e9d8E>
   20dae:	ac1a      	add	r4, sp, #104	@ 0x68
   20db0:	4620      	mov	r0, r4
   20db2:	f005 fdaf 	bl	26914 <_ZN9allow_pin12full_dynamic17unshare_if_shared17h1c062ce130e7e9d8E>
   20db6:	4620      	mov	r0, r4
   20db8:	f005 fdac 	bl	26914 <_ZN9allow_pin12full_dynamic17unshare_if_shared17h1c062ce130e7e9d8E>
   20dbc:	9c04      	ldr	r4, [sp, #16]
   20dbe:	1c60      	adds	r0, r4, #1
   20dc0:	220f      	movs	r2, #15
   20dc2:	9902      	ldr	r1, [sp, #8]
   20dc4:	f005 ff67 	bl	26c96 <__aeabi_memcpy>
   20dc8:	e7e5      	b.n	20d96 <_ZN20complex_full_dynamic3app17h3180f2e9ac696ecdE+0x6a>
   20dca:	46c0      	nop			@ (mov r8, r8)
   20dcc:	0000111d 	.word	0x0000111d

00020dd0 <_ZN20complex_full_dynamic3app17h31fc2e5f6a362edbE>:
   20dd0:	b5f0      	push	{r4, r5, r6, r7, lr}
   20dd2:	af03      	add	r7, sp, #12
   20dd4:	b0ad      	sub	sp, #180	@ 0xb4
   20dd6:	9004      	str	r0, [sp, #16]
   20dd8:	ae05      	add	r6, sp, #20
   20dda:	2502      	movs	r5, #2
   20ddc:	7235      	strb	r5, [r6, #8]
   20dde:	4630      	mov	r0, r6
   20de0:	300c      	adds	r0, #12
   20de2:	222a      	movs	r2, #42	@ 0x2a
   20de4:	9203      	str	r2, [sp, #12]
   20de6:	f005 ff56 	bl	26c96 <__aeabi_memcpy>
   20dea:	ac13      	add	r4, sp, #76	@ 0x4c
   20dec:	4620      	mov	r0, r4
   20dee:	300c      	adds	r0, #12
   20df0:	2159      	movs	r1, #89	@ 0x59
   20df2:	9002      	str	r0, [sp, #8]
   20df4:	f005 fda2 	bl	2693c <__aeabi_memclr4>
   20df8:	7225      	strb	r5, [r4, #8]
   20dfa:	2501      	movs	r5, #1
   20dfc:	9500      	str	r5, [sp, #0]
   20dfe:	2204      	movs	r2, #4
   20e00:	4c1a      	ldr	r4, [pc, #104]	@ (20e6c <_ZN20complex_full_dynamic3app17h31fc2e5f6a362edbE+0x9c>)
   20e02:	4630      	mov	r0, r6
   20e04:	9903      	ldr	r1, [sp, #12]
   20e06:	4623      	mov	r3, r4
   20e08:	f7ff f96c 	bl	200e4 <_ZN9allow_pin12full_dynamic15Buffer$LT$B$GT$5allow17h4466d99fb2bc5668E>
   20e0c:	07c0      	lsls	r0, r0, #31
   20e0e:	d110      	bne.n	20e32 <_ZN20complex_full_dynamic3app17h31fc2e5f6a362edbE+0x62>
   20e10:	2203      	movs	r2, #3
   20e12:	9200      	str	r2, [sp, #0]
   20e14:	a813      	add	r0, sp, #76	@ 0x4c
   20e16:	2159      	movs	r1, #89	@ 0x59
   20e18:	4623      	mov	r3, r4
   20e1a:	f7ff f963 	bl	200e4 <_ZN9allow_pin12full_dynamic15Buffer$LT$B$GT$5allow17h4466d99fb2bc5668E>
   20e1e:	07c0      	lsls	r0, r0, #31
   20e20:	d107      	bne.n	20e32 <_ZN20complex_full_dynamic3app17h31fc2e5f6a362edbE+0x62>
   20e22:	4812      	ldr	r0, [pc, #72]	@ (20e6c <_ZN20complex_full_dynamic3app17h31fc2e5f6a362edbE+0x9c>)
   20e24:	2101      	movs	r1, #1
   20e26:	2203      	movs	r2, #3
   20e28:	2600      	movs	r6, #0
   20e2a:	4633      	mov	r3, r6
   20e2c:	df02      	svc	2
   20e2e:	287f      	cmp	r0, #127	@ 0x7f
   20e30:	d80a      	bhi.n	20e48 <_ZN20complex_full_dynamic3app17h31fc2e5f6a362edbE+0x78>
   20e32:	9c04      	ldr	r4, [sp, #16]
   20e34:	6061      	str	r1, [r4, #4]
   20e36:	7025      	strb	r5, [r4, #0]
   20e38:	a813      	add	r0, sp, #76	@ 0x4c
   20e3a:	f005 fd6b 	bl	26914 <_ZN9allow_pin12full_dynamic17unshare_if_shared17h1c062ce130e7e9d8E>
   20e3e:	a805      	add	r0, sp, #20
   20e40:	f005 fd68 	bl	26914 <_ZN9allow_pin12full_dynamic17unshare_if_shared17h1c062ce130e7e9d8E>
   20e44:	b02d      	add	sp, #180	@ 0xb4
   20e46:	bdf0      	pop	{r4, r5, r6, r7, pc}
   20e48:	a805      	add	r0, sp, #20
   20e4a:	f005 fd63 	bl	26914 <_ZN9allow_pin12full_dynamic17unshare_if_shared17h1c062ce130e7e9d8E>
   20e4e:	ac13      	add	r4, sp, #76	@ 0x4c
   20e50:	4620      	mov	r0, r4
   20e52:	f005 fd5f 	bl	26914 <_ZN9allow_pin12full_dynamic17unshare_if_shared17h1c062ce130e7e9d8E>
   20e56:	4620      	mov	r0, r4
   20e58:	f005 fd5c 	bl	26914 <_ZN9allow_pin12full_dynamic17unshare_if_shared17h1c062ce130e7e9d8E>
   20e5c:	9c04      	ldr	r4, [sp, #16]
   20e5e:	1c60      	adds	r0, r4, #1
   20e60:	2259      	movs	r2, #89	@ 0x59
   20e62:	9902      	ldr	r1, [sp, #8]
   20e64:	f005 ff17 	bl	26c96 <__aeabi_memcpy>
   20e68:	4635      	mov	r5, r6
   20e6a:	e7e4      	b.n	20e36 <_ZN20complex_full_dynamic3app17h31fc2e5f6a362edbE+0x66>
   20e6c:	00000ed2 	.word	0x00000ed2

00020e70 <_ZN20complex_full_dynamic3app17h324c9cdb0daf51a3E>:
   20e70:	b5f0      	push	{r4, r5, r6, r7, lr}
   20e72:	af03      	add	r7, sp, #12
   20e74:	b0af      	sub	sp, #188	@ 0xbc
   20e76:	9004      	str	r0, [sp, #16]
   20e78:	ae05      	add	r6, sp, #20
   20e7a:	2502      	movs	r5, #2
   20e7c:	7235      	strb	r5, [r6, #8]
   20e7e:	4630      	mov	r0, r6
   20e80:	300c      	adds	r0, #12
   20e82:	222a      	movs	r2, #42	@ 0x2a
   20e84:	9203      	str	r2, [sp, #12]
   20e86:	f005 ff06 	bl	26c96 <__aeabi_memcpy>
   20e8a:	ac13      	add	r4, sp, #76	@ 0x4c
   20e8c:	4620      	mov	r0, r4
   20e8e:	300c      	adds	r0, #12
   20e90:	2163      	movs	r1, #99	@ 0x63
   20e92:	9002      	str	r0, [sp, #8]
   20e94:	f005 fd52 	bl	2693c <__aeabi_memclr4>
   20e98:	7225      	strb	r5, [r4, #8]
   20e9a:	2204      	movs	r2, #4
   20e9c:	9200      	str	r2, [sp, #0]
   20e9e:	4c1b      	ldr	r4, [pc, #108]	@ (20f0c <_ZN20complex_full_dynamic3app17h324c9cdb0daf51a3E+0x9c>)
   20ea0:	4630      	mov	r0, r6
   20ea2:	9903      	ldr	r1, [sp, #12]
   20ea4:	4623      	mov	r3, r4
   20ea6:	f7ff f91d 	bl	200e4 <_ZN9allow_pin12full_dynamic15Buffer$LT$B$GT$5allow17h4466d99fb2bc5668E>
   20eaa:	07c0      	lsls	r0, r0, #31
   20eac:	d111      	bne.n	20ed2 <_ZN20complex_full_dynamic3app17h324c9cdb0daf51a3E+0x62>
   20eae:	2000      	movs	r0, #0
   20eb0:	9000      	str	r0, [sp, #0]
   20eb2:	a813      	add	r0, sp, #76	@ 0x4c
   20eb4:	2163      	movs	r1, #99	@ 0x63
   20eb6:	2203      	movs	r2, #3
   20eb8:	4623      	mov	r3, r4
   20eba:	f7ff f913 	bl	200e4 <_ZN9allow_pin12full_dynamic15Buffer$LT$B$GT$5allow17h4466d99fb2bc5668E>
   20ebe:	07c0      	lsls	r0, r0, #31
   20ec0:	d107      	bne.n	20ed2 <_ZN20complex_full_dynamic3app17h324c9cdb0daf51a3E+0x62>
   20ec2:	4812      	ldr	r0, [pc, #72]	@ (20f0c <_ZN20complex_full_dynamic3app17h324c9cdb0daf51a3E+0x9c>)
   20ec4:	2104      	movs	r1, #4
   20ec6:	2600      	movs	r6, #0
   20ec8:	4632      	mov	r2, r6
   20eca:	4633      	mov	r3, r6
   20ecc:	df02      	svc	2
   20ece:	287f      	cmp	r0, #127	@ 0x7f
   20ed0:	d80b      	bhi.n	20eea <_ZN20complex_full_dynamic3app17h324c9cdb0daf51a3E+0x7a>
   20ed2:	9c04      	ldr	r4, [sp, #16]
   20ed4:	6061      	str	r1, [r4, #4]
   20ed6:	2601      	movs	r6, #1
   20ed8:	7026      	strb	r6, [r4, #0]
   20eda:	a813      	add	r0, sp, #76	@ 0x4c
   20edc:	f005 fd1a 	bl	26914 <_ZN9allow_pin12full_dynamic17unshare_if_shared17h1c062ce130e7e9d8E>
   20ee0:	a805      	add	r0, sp, #20
   20ee2:	f005 fd17 	bl	26914 <_ZN9allow_pin12full_dynamic17unshare_if_shared17h1c062ce130e7e9d8E>
   20ee6:	b02f      	add	sp, #188	@ 0xbc
   20ee8:	bdf0      	pop	{r4, r5, r6, r7, pc}
   20eea:	a805      	add	r0, sp, #20
   20eec:	f005 fd12 	bl	26914 <_ZN9allow_pin12full_dynamic17unshare_if_shared17h1c062ce130e7e9d8E>
   20ef0:	ac13      	add	r4, sp, #76	@ 0x4c
   20ef2:	4620      	mov	r0, r4
   20ef4:	f005 fd0e 	bl	26914 <_ZN9allow_pin12full_dynamic17unshare_if_shared17h1c062ce130e7e9d8E>
   20ef8:	4620      	mov	r0, r4
   20efa:	f005 fd0b 	bl	26914 <_ZN9allow_pin12full_dynamic17unshare_if_shared17h1c062ce130e7e9d8E>
   20efe:	9c04      	ldr	r4, [sp, #16]
   20f00:	1c60      	adds	r0, r4, #1
   20f02:	2263      	movs	r2, #99	@ 0x63
   20f04:	9902      	ldr	r1, [sp, #8]
   20f06:	f005 fec6 	bl	26c96 <__aeabi_memcpy>
   20f0a:	e7e5      	b.n	20ed8 <_ZN20complex_full_dynamic3app17h324c9cdb0daf51a3E+0x68>
   20f0c:	00001c7c 	.word	0x00001c7c

00020f10 <_ZN20complex_full_dynamic3app17h34209d0a41b0864aE>:
   20f10:	b5f0      	push	{r4, r5, r6, r7, lr}
   20f12:	af03      	add	r7, sp, #12
   20f14:	b0a1      	sub	sp, #132	@ 0x84
   20f16:	9003      	str	r0, [sp, #12]
   20f18:	ae04      	add	r6, sp, #16
   20f1a:	2502      	movs	r5, #2
   20f1c:	7235      	strb	r5, [r6, #8]
   20f1e:	4630      	mov	r0, r6
   20f20:	300c      	adds	r0, #12
   20f22:	223f      	movs	r2, #63	@ 0x3f
   20f24:	9202      	str	r2, [sp, #8]
   20f26:	f005 feb6 	bl	26c96 <__aeabi_memcpy>
   20f2a:	ac17      	add	r4, sp, #92	@ 0x5c
   20f2c:	4620      	mov	r0, r4
   20f2e:	300c      	adds	r0, #12
   20f30:	211c      	movs	r1, #28
   20f32:	9001      	str	r0, [sp, #4]
   20f34:	f005 fd02 	bl	2693c <__aeabi_memclr4>
   20f38:	7225      	strb	r5, [r4, #8]
   20f3a:	2005      	movs	r0, #5
   20f3c:	9000      	str	r0, [sp, #0]
   20f3e:	2204      	movs	r2, #4
   20f40:	4c1b      	ldr	r4, [pc, #108]	@ (20fb0 <_ZN20complex_full_dynamic3app17h34209d0a41b0864aE+0xa0>)
   20f42:	4630      	mov	r0, r6
   20f44:	9902      	ldr	r1, [sp, #8]
   20f46:	4623      	mov	r3, r4
   20f48:	f7ff f8cc 	bl	200e4 <_ZN9allow_pin12full_dynamic15Buffer$LT$B$GT$5allow17h4466d99fb2bc5668E>
   20f4c:	07c0      	lsls	r0, r0, #31
   20f4e:	d111      	bne.n	20f74 <_ZN20complex_full_dynamic3app17h34209d0a41b0864aE+0x64>
   20f50:	2009      	movs	r0, #9
   20f52:	9000      	str	r0, [sp, #0]
   20f54:	a817      	add	r0, sp, #92	@ 0x5c
   20f56:	211c      	movs	r1, #28
   20f58:	2203      	movs	r2, #3
   20f5a:	4623      	mov	r3, r4
   20f5c:	f7ff f8c2 	bl	200e4 <_ZN9allow_pin12full_dynamic15Buffer$LT$B$GT$5allow17h4466d99fb2bc5668E>
   20f60:	07c0      	lsls	r0, r0, #31
   20f62:	d107      	bne.n	20f74 <_ZN20complex_full_dynamic3app17h34209d0a41b0864aE+0x64>
   20f64:	4812      	ldr	r0, [pc, #72]	@ (20fb0 <_ZN20complex_full_dynamic3app17h34209d0a41b0864aE+0xa0>)
   20f66:	2105      	movs	r1, #5
   20f68:	2209      	movs	r2, #9
   20f6a:	2600      	movs	r6, #0
   20f6c:	4633      	mov	r3, r6
   20f6e:	df02      	svc	2
   20f70:	287f      	cmp	r0, #127	@ 0x7f
   20f72:	d80b      	bhi.n	20f8c <_ZN20complex_full_dynamic3app17h34209d0a41b0864aE+0x7c>
   20f74:	9c03      	ldr	r4, [sp, #12]
   20f76:	6061      	str	r1, [r4, #4]
   20f78:	2601      	movs	r6, #1
   20f7a:	7026      	strb	r6, [r4, #0]
   20f7c:	a817      	add	r0, sp, #92	@ 0x5c
   20f7e:	f005 fcc9 	bl	26914 <_ZN9allow_pin12full_dynamic17unshare_if_shared17h1c062ce130e7e9d8E>
   20f82:	a804      	add	r0, sp, #16
   20f84:	f005 fcc6 	bl	26914 <_ZN9allow_pin12full_dynamic17unshare_if_shared17h1c062ce130e7e9d8E>
   20f88:	b021      	add	sp, #132	@ 0x84
   20f8a:	bdf0      	pop	{r4, r5, r6, r7, pc}
   20f8c:	a804      	add	r0, sp, #16
   20f8e:	f005 fcc1 	bl	26914 <_ZN9allow_pin12full_dynamic17unshare_if_shared17h1c062ce130e7e9d8E>
   20f92:	ac17      	add	r4, sp, #92	@ 0x5c
   20f94:	4620      	mov	r0, r4
   20f96:	f005 fcbd 	bl	26914 <_ZN9allow_pin12full_dynamic17unshare_if_shared17h1c062ce130e7e9d8E>
   20f9a:	4620      	mov	r0, r4
   20f9c:	f005 fcba 	bl	26914 <_ZN9allow_pin12full_dynamic17unshare_if_shared17h1c062ce130e7e9d8E>
   20fa0:	9c03      	ldr	r4, [sp, #12]
   20fa2:	1c60      	adds	r0, r4, #1
   20fa4:	221c      	movs	r2, #28
   20fa6:	9901      	ldr	r1, [sp, #4]
   20fa8:	f005 fe75 	bl	26c96 <__aeabi_memcpy>
   20fac:	e7e5      	b.n	20f7a <_ZN20complex_full_dynamic3app17h34209d0a41b0864aE+0x6a>
   20fae:	46c0      	nop			@ (mov r8, r8)
   20fb0:	00001694 	.word	0x00001694

00020fb4 <_ZN20complex_full_dynamic3app17h38b4ceba410ae5eaE>:
   20fb4:	b5f0      	push	{r4, r5, r6, r7, lr}
   20fb6:	af03      	add	r7, sp, #12
   20fb8:	b09d      	sub	sp, #116	@ 0x74
   20fba:	9003      	str	r0, [sp, #12]
   20fbc:	ae04      	add	r6, sp, #16
   20fbe:	2502      	movs	r5, #2
   20fc0:	7235      	strb	r5, [r6, #8]
   20fc2:	4630      	mov	r0, r6
   20fc4:	300c      	adds	r0, #12
   20fc6:	221e      	movs	r2, #30
   20fc8:	9202      	str	r2, [sp, #8]
   20fca:	f005 fe64 	bl	26c96 <__aeabi_memcpy>
   20fce:	ac0f      	add	r4, sp, #60	@ 0x3c
   20fd0:	4620      	mov	r0, r4
   20fd2:	300c      	adds	r0, #12
   20fd4:	212c      	movs	r1, #44	@ 0x2c
   20fd6:	9001      	str	r0, [sp, #4]
   20fd8:	f005 fcb0 	bl	2693c <__aeabi_memclr4>
   20fdc:	7225      	strb	r5, [r4, #8]
   20fde:	2007      	movs	r0, #7
   20fe0:	9000      	str	r0, [sp, #0]
   20fe2:	2204      	movs	r2, #4
   20fe4:	4c1b      	ldr	r4, [pc, #108]	@ (21054 <_ZN20complex_full_dynamic3app17h38b4ceba410ae5eaE+0xa0>)
   20fe6:	4630      	mov	r0, r6
   20fe8:	9902      	ldr	r1, [sp, #8]
   20fea:	4623      	mov	r3, r4
   20fec:	f7ff f87a 	bl	200e4 <_ZN9allow_pin12full_dynamic15Buffer$LT$B$GT$5allow17h4466d99fb2bc5668E>
   20ff0:	07c0      	lsls	r0, r0, #31
   20ff2:	d111      	bne.n	21018 <_ZN20complex_full_dynamic3app17h38b4ceba410ae5eaE+0x64>
   20ff4:	2000      	movs	r0, #0
   20ff6:	9000      	str	r0, [sp, #0]
   20ff8:	a80f      	add	r0, sp, #60	@ 0x3c
   20ffa:	212c      	movs	r1, #44	@ 0x2c
   20ffc:	2203      	movs	r2, #3
   20ffe:	4623      	mov	r3, r4
   21000:	f7ff f870 	bl	200e4 <_ZN9allow_pin12full_dynamic15Buffer$LT$B$GT$5allow17h4466d99fb2bc5668E>
   21004:	07c0      	lsls	r0, r0, #31
   21006:	d107      	bne.n	21018 <_ZN20complex_full_dynamic3app17h38b4ceba410ae5eaE+0x64>
   21008:	4812      	ldr	r0, [pc, #72]	@ (21054 <_ZN20complex_full_dynamic3app17h38b4ceba410ae5eaE+0xa0>)
   2100a:	2107      	movs	r1, #7
   2100c:	2600      	movs	r6, #0
   2100e:	4632      	mov	r2, r6
   21010:	4633      	mov	r3, r6
   21012:	df02      	svc	2
   21014:	287f      	cmp	r0, #127	@ 0x7f
   21016:	d80b      	bhi.n	21030 <_ZN20complex_full_dynamic3app17h38b4ceba410ae5eaE+0x7c>
   21018:	9c03      	ldr	r4, [sp, #12]
   2101a:	6061      	str	r1, [r4, #4]
   2101c:	2601      	movs	r6, #1
   2101e:	7026      	strb	r6, [r4, #0]
   21020:	a80f      	add	r0, sp, #60	@ 0x3c
   21022:	f005 fc77 	bl	26914 <_ZN9allow_pin12full_dynamic17unshare_if_shared17h1c062ce130e7e9d8E>
   21026:	a804      	add	r0, sp, #16
   21028:	f005 fc74 	bl	26914 <_ZN9allow_pin12full_dynamic17unshare_if_shared17h1c062ce130e7e9d8E>
   2102c:	b01d      	add	sp, #116	@ 0x74
   2102e:	bdf0      	pop	{r4, r5, r6, r7, pc}
   21030:	a804      	add	r0, sp, #16
   21032:	f005 fc6f 	bl	26914 <_ZN9allow_pin12full_dynamic17unshare_if_shared17h1c062ce130e7e9d8E>
   21036:	ac0f      	add	r4, sp, #60	@ 0x3c
   21038:	4620      	mov	r0, r4
   2103a:	f005 fc6b 	bl	26914 <_ZN9allow_pin12full_dynamic17unshare_if_shared17h1c062ce130e7e9d8E>
   2103e:	4620      	mov	r0, r4
   21040:	f005 fc68 	bl	26914 <_ZN9allow_pin12full_dynamic17unshare_if_shared17h1c062ce130e7e9d8E>
   21044:	9c03      	ldr	r4, [sp, #12]
   21046:	1c60      	adds	r0, r4, #1
   21048:	222c      	movs	r2, #44	@ 0x2c
   2104a:	9901      	ldr	r1, [sp, #4]
   2104c:	f005 fe23 	bl	26c96 <__aeabi_memcpy>
   21050:	e7e5      	b.n	2101e <_ZN20complex_full_dynamic3app17h38b4ceba410ae5eaE+0x6a>
   21052:	46c0      	nop			@ (mov r8, r8)
   21054:	000003fb 	.word	0x000003fb

00021058 <_ZN20complex_full_dynamic3app17h39e1b8de4054d928E>:
   21058:	b5f0      	push	{r4, r5, r6, r7, lr}
   2105a:	af03      	add	r7, sp, #12
   2105c:	b09f      	sub	sp, #124	@ 0x7c
   2105e:	9004      	str	r0, [sp, #16]
   21060:	ae05      	add	r6, sp, #20
   21062:	2502      	movs	r5, #2
   21064:	7235      	strb	r5, [r6, #8]
   21066:	4630      	mov	r0, r6
   21068:	300c      	adds	r0, #12
   2106a:	2218      	movs	r2, #24
   2106c:	9203      	str	r2, [sp, #12]
   2106e:	f005 fe12 	bl	26c96 <__aeabi_memcpy>
   21072:	ac0e      	add	r4, sp, #56	@ 0x38
   21074:	4620      	mov	r0, r4
   21076:	300c      	adds	r0, #12
   21078:	2136      	movs	r1, #54	@ 0x36
   2107a:	9002      	str	r0, [sp, #8]
   2107c:	f005 fc5e 	bl	2693c <__aeabi_memclr4>
   21080:	7225      	strb	r5, [r4, #8]
   21082:	2008      	movs	r0, #8
   21084:	9000      	str	r0, [sp, #0]
   21086:	2504      	movs	r5, #4
   21088:	23f3      	movs	r3, #243	@ 0xf3
   2108a:	4630      	mov	r0, r6
   2108c:	9903      	ldr	r1, [sp, #12]
   2108e:	462a      	mov	r2, r5
   21090:	f7ff f828 	bl	200e4 <_ZN9allow_pin12full_dynamic15Buffer$LT$B$GT$5allow17h4466d99fb2bc5668E>
   21094:	07c0      	lsls	r0, r0, #31
   21096:	d110      	bne.n	210ba <_ZN20complex_full_dynamic3app17h39e1b8de4054d928E+0x62>
   21098:	9500      	str	r5, [sp, #0]
   2109a:	a80e      	add	r0, sp, #56	@ 0x38
   2109c:	2136      	movs	r1, #54	@ 0x36
   2109e:	2203      	movs	r2, #3
   210a0:	23f3      	movs	r3, #243	@ 0xf3
   210a2:	f7ff f81f 	bl	200e4 <_ZN9allow_pin12full_dynamic15Buffer$LT$B$GT$5allow17h4466d99fb2bc5668E>
   210a6:	07c0      	lsls	r0, r0, #31
   210a8:	d107      	bne.n	210ba <_ZN20complex_full_dynamic3app17h39e1b8de4054d928E+0x62>
   210aa:	20f3      	movs	r0, #243	@ 0xf3
   210ac:	2108      	movs	r1, #8
   210ae:	2204      	movs	r2, #4
   210b0:	2600      	movs	r6, #0
   210b2:	4633      	mov	r3, r6
   210b4:	df02      	svc	2
   210b6:	287f      	cmp	r0, #127	@ 0x7f
   210b8:	d80b      	bhi.n	210d2 <_ZN20complex_full_dynamic3app17h39e1b8de4054d928E+0x7a>
   210ba:	9c04      	ldr	r4, [sp, #16]
   210bc:	6061      	str	r1, [r4, #4]
   210be:	2601      	movs	r6, #1
   210c0:	7026      	strb	r6, [r4, #0]
   210c2:	a80e      	add	r0, sp, #56	@ 0x38
   210c4:	f005 fc26 	bl	26914 <_ZN9allow_pin12full_dynamic17unshare_if_shared17h1c062ce130e7e9d8E>
   210c8:	a805      	add	r0, sp, #20
   210ca:	f005 fc23 	bl	26914 <_ZN9allow_pin12full_dynamic17unshare_if_shared17h1c062ce130e7e9d8E>
   210ce:	b01f      	add	sp, #124	@ 0x7c
   210d0:	bdf0      	pop	{r4, r5, r6, r7, pc}
   210d2:	a805      	add	r0, sp, #20
   210d4:	f005 fc1e 	bl	26914 <_ZN9allow_pin12full_dynamic17unshare_if_shared17h1c062ce130e7e9d8E>
   210d8:	ac0e      	add	r4, sp, #56	@ 0x38
   210da:	4620      	mov	r0, r4
   210dc:	f005 fc1a 	bl	26914 <_ZN9allow_pin12full_dynamic17unshare_if_shared17h1c062ce130e7e9d8E>
   210e0:	4620      	mov	r0, r4
   210e2:	f005 fc17 	bl	26914 <_ZN9allow_pin12full_dynamic17unshare_if_shared17h1c062ce130e7e9d8E>
   210e6:	9c04      	ldr	r4, [sp, #16]
   210e8:	1c60      	adds	r0, r4, #1
   210ea:	2236      	movs	r2, #54	@ 0x36
   210ec:	9902      	ldr	r1, [sp, #8]
   210ee:	f005 fdd2 	bl	26c96 <__aeabi_memcpy>
   210f2:	e7e5      	b.n	210c0 <_ZN20complex_full_dynamic3app17h39e1b8de4054d928E+0x68>

000210f4 <_ZN20complex_full_dynamic3app17h3a58046f7e8ffc97E>:
   210f4:	b5f0      	push	{r4, r5, r6, r7, lr}
   210f6:	af03      	add	r7, sp, #12
   210f8:	b09f      	sub	sp, #124	@ 0x7c
   210fa:	9004      	str	r0, [sp, #16]
   210fc:	ae05      	add	r6, sp, #20
   210fe:	2502      	movs	r5, #2
   21100:	7235      	strb	r5, [r6, #8]
   21102:	4630      	mov	r0, r6
   21104:	300c      	adds	r0, #12
   21106:	2221      	movs	r2, #33	@ 0x21
   21108:	9203      	str	r2, [sp, #12]
   2110a:	f005 fdc4 	bl	26c96 <__aeabi_memcpy>
   2110e:	ac11      	add	r4, sp, #68	@ 0x44
   21110:	4620      	mov	r0, r4
   21112:	300c      	adds	r0, #12
   21114:	212a      	movs	r1, #42	@ 0x2a
   21116:	9002      	str	r0, [sp, #8]
   21118:	f005 fc10 	bl	2693c <__aeabi_memclr4>
   2111c:	7225      	strb	r5, [r4, #8]
   2111e:	2501      	movs	r5, #1
   21120:	9500      	str	r5, [sp, #0]
   21122:	2204      	movs	r2, #4
   21124:	4c1a      	ldr	r4, [pc, #104]	@ (21190 <_ZN20complex_full_dynamic3app17h3a58046f7e8ffc97E+0x9c>)
   21126:	4630      	mov	r0, r6
   21128:	9903      	ldr	r1, [sp, #12]
   2112a:	4623      	mov	r3, r4
   2112c:	f7fe ffda 	bl	200e4 <_ZN9allow_pin12full_dynamic15Buffer$LT$B$GT$5allow17h4466d99fb2bc5668E>
   21130:	07c0      	lsls	r0, r0, #31
   21132:	d110      	bne.n	21156 <_ZN20complex_full_dynamic3app17h3a58046f7e8ffc97E+0x62>
   21134:	2203      	movs	r2, #3
   21136:	9200      	str	r2, [sp, #0]
   21138:	a811      	add	r0, sp, #68	@ 0x44
   2113a:	212a      	movs	r1, #42	@ 0x2a
   2113c:	4623      	mov	r3, r4
   2113e:	f7fe ffd1 	bl	200e4 <_ZN9allow_pin12full_dynamic15Buffer$LT$B$GT$5allow17h4466d99fb2bc5668E>
   21142:	07c0      	lsls	r0, r0, #31
   21144:	d107      	bne.n	21156 <_ZN20complex_full_dynamic3app17h3a58046f7e8ffc97E+0x62>
   21146:	4812      	ldr	r0, [pc, #72]	@ (21190 <_ZN20complex_full_dynamic3app17h3a58046f7e8ffc97E+0x9c>)
   21148:	2101      	movs	r1, #1
   2114a:	2203      	movs	r2, #3
   2114c:	2600      	movs	r6, #0
   2114e:	4633      	mov	r3, r6
   21150:	df02      	svc	2
   21152:	287f      	cmp	r0, #127	@ 0x7f
   21154:	d80a      	bhi.n	2116c <_ZN20complex_full_dynamic3app17h3a58046f7e8ffc97E+0x78>
   21156:	9c04      	ldr	r4, [sp, #16]
   21158:	6061      	str	r1, [r4, #4]
   2115a:	7025      	strb	r5, [r4, #0]
   2115c:	a811      	add	r0, sp, #68	@ 0x44
   2115e:	f005 fbd9 	bl	26914 <_ZN9allow_pin12full_dynamic17unshare_if_shared17h1c062ce130e7e9d8E>
   21162:	a805      	add	r0, sp, #20
   21164:	f005 fbd6 	bl	26914 <_ZN9allow_pin12full_dynamic17unshare_if_shared17h1c062ce130e7e9d8E>
   21168:	b01f      	add	sp, #124	@ 0x7c
   2116a:	bdf0      	pop	{r4, r5, r6, r7, pc}
   2116c:	a805      	add	r0, sp, #20
   2116e:	f005 fbd1 	bl	26914 <_ZN9allow_pin12full_dynamic17unshare_if_shared17h1c062ce130e7e9d8E>
   21172:	ac11      	add	r4, sp, #68	@ 0x44
   21174:	4620      	mov	r0, r4
   21176:	f005 fbcd 	bl	26914 <_ZN9allow_pin12full_dynamic17unshare_if_shared17h1c062ce130e7e9d8E>
   2117a:	4620      	mov	r0, r4
   2117c:	f005 fbca 	bl	26914 <_ZN9allow_pin12full_dynamic17unshare_if_shared17h1c062ce130e7e9d8E>
   21180:	9c04      	ldr	r4, [sp, #16]
   21182:	1c60      	adds	r0, r4, #1
   21184:	222a      	movs	r2, #42	@ 0x2a
   21186:	9902      	ldr	r1, [sp, #8]
   21188:	f005 fd85 	bl	26c96 <__aeabi_memcpy>
   2118c:	4635      	mov	r5, r6
   2118e:	e7e4      	b.n	2115a <_ZN20complex_full_dynamic3app17h3a58046f7e8ffc97E+0x66>
   21190:	000015f3 	.word	0x000015f3

00021194 <_ZN20complex_full_dynamic3app17h3d44562ac53b8bf1E>:
   21194:	b5f0      	push	{r4, r5, r6, r7, lr}
   21196:	af03      	add	r7, sp, #12
   21198:	b09d      	sub	sp, #116	@ 0x74
   2119a:	9004      	str	r0, [sp, #16]
   2119c:	ae05      	add	r6, sp, #20
   2119e:	2502      	movs	r5, #2
   211a0:	7235      	strb	r5, [r6, #8]
   211a2:	4630      	mov	r0, r6
   211a4:	300c      	adds	r0, #12
   211a6:	2229      	movs	r2, #41	@ 0x29
   211a8:	9203      	str	r2, [sp, #12]
   211aa:	f005 fd74 	bl	26c96 <__aeabi_memcpy>
   211ae:	ac13      	add	r4, sp, #76	@ 0x4c
   211b0:	4620      	mov	r0, r4
   211b2:	300c      	adds	r0, #12
   211b4:	211a      	movs	r1, #26
   211b6:	9002      	str	r0, [sp, #8]
   211b8:	f005 fbc0 	bl	2693c <__aeabi_memclr4>
   211bc:	7225      	strb	r5, [r4, #8]
   211be:	2005      	movs	r0, #5
   211c0:	9000      	str	r0, [sp, #0]
   211c2:	2204      	movs	r2, #4
   211c4:	4c1a      	ldr	r4, [pc, #104]	@ (21230 <_ZN20complex_full_dynamic3app17h3d44562ac53b8bf1E+0x9c>)
   211c6:	4630      	mov	r0, r6
   211c8:	9903      	ldr	r1, [sp, #12]
   211ca:	4623      	mov	r3, r4
   211cc:	f7fe ff8a 	bl	200e4 <_ZN9allow_pin12full_dynamic15Buffer$LT$B$GT$5allow17h4466d99fb2bc5668E>
   211d0:	07c0      	lsls	r0, r0, #31
   211d2:	d110      	bne.n	211f6 <_ZN20complex_full_dynamic3app17h3d44562ac53b8bf1E+0x62>
   211d4:	2203      	movs	r2, #3
   211d6:	9200      	str	r2, [sp, #0]
   211d8:	a813      	add	r0, sp, #76	@ 0x4c
   211da:	211a      	movs	r1, #26
   211dc:	4623      	mov	r3, r4
   211de:	f7fe ff81 	bl	200e4 <_ZN9allow_pin12full_dynamic15Buffer$LT$B$GT$5allow17h4466d99fb2bc5668E>
   211e2:	07c0      	lsls	r0, r0, #31
   211e4:	d107      	bne.n	211f6 <_ZN20complex_full_dynamic3app17h3d44562ac53b8bf1E+0x62>
   211e6:	4812      	ldr	r0, [pc, #72]	@ (21230 <_ZN20complex_full_dynamic3app17h3d44562ac53b8bf1E+0x9c>)
   211e8:	2105      	movs	r1, #5
   211ea:	2203      	movs	r2, #3
   211ec:	2600      	movs	r6, #0
   211ee:	4633      	mov	r3, r6
   211f0:	df02      	svc	2
   211f2:	287f      	cmp	r0, #127	@ 0x7f
   211f4:	d80b      	bhi.n	2120e <_ZN20complex_full_dynamic3app17h3d44562ac53b8bf1E+0x7a>
   211f6:	9c04      	ldr	r4, [sp, #16]
   211f8:	6061      	str	r1, [r4, #4]
   211fa:	2601      	movs	r6, #1
   211fc:	7026      	strb	r6, [r4, #0]
   211fe:	a813      	add	r0, sp, #76	@ 0x4c
   21200:	f005 fb88 	bl	26914 <_ZN9allow_pin12full_dynamic17unshare_if_shared17h1c062ce130e7e9d8E>
   21204:	a805      	add	r0, sp, #20
   21206:	f005 fb85 	bl	26914 <_ZN9allow_pin12full_dynamic17unshare_if_shared17h1c062ce130e7e9d8E>
   2120a:	b01d      	add	sp, #116	@ 0x74
   2120c:	bdf0      	pop	{r4, r5, r6, r7, pc}
   2120e:	a805      	add	r0, sp, #20
   21210:	f005 fb80 	bl	26914 <_ZN9allow_pin12full_dynamic17unshare_if_shared17h1c062ce130e7e9d8E>
   21214:	ac13      	add	r4, sp, #76	@ 0x4c
   21216:	4620      	mov	r0, r4
   21218:	f005 fb7c 	bl	26914 <_ZN9allow_pin12full_dynamic17unshare_if_shared17h1c062ce130e7e9d8E>
   2121c:	4620      	mov	r0, r4
   2121e:	f005 fb79 	bl	26914 <_ZN9allow_pin12full_dynamic17unshare_if_shared17h1c062ce130e7e9d8E>
   21222:	9c04      	ldr	r4, [sp, #16]
   21224:	1c60      	adds	r0, r4, #1
   21226:	221a      	movs	r2, #26
   21228:	9902      	ldr	r1, [sp, #8]
   2122a:	f005 fd34 	bl	26c96 <__aeabi_memcpy>
   2122e:	e7e5      	b.n	211fc <_ZN20complex_full_dynamic3app17h3d44562ac53b8bf1E+0x68>
   21230:	00002048 	.word	0x00002048

00021234 <_ZN20complex_full_dynamic3app17h4482192633648689E>:
   21234:	b5f0      	push	{r4, r5, r6, r7, lr}
   21236:	af03      	add	r7, sp, #12
   21238:	b099      	sub	sp, #100	@ 0x64
   2123a:	9004      	str	r0, [sp, #16]
   2123c:	ae05      	add	r6, sp, #20
   2123e:	2402      	movs	r4, #2
   21240:	7234      	strb	r4, [r6, #8]
   21242:	4630      	mov	r0, r6
   21244:	300c      	adds	r0, #12
   21246:	221a      	movs	r2, #26
   21248:	9203      	str	r2, [sp, #12]
   2124a:	f005 fd24 	bl	26c96 <__aeabi_memcpy>
   2124e:	ad0f      	add	r5, sp, #60	@ 0x3c
   21250:	4628      	mov	r0, r5
   21252:	300c      	adds	r0, #12
   21254:	211b      	movs	r1, #27
   21256:	9002      	str	r0, [sp, #8]
   21258:	f005 fb70 	bl	2693c <__aeabi_memclr4>
   2125c:	722c      	strb	r4, [r5, #8]
   2125e:	2005      	movs	r0, #5
   21260:	9000      	str	r0, [sp, #0]
   21262:	2204      	movs	r2, #4
   21264:	4d1a      	ldr	r5, [pc, #104]	@ (212d0 <_ZN20complex_full_dynamic3app17h4482192633648689E+0x9c>)
   21266:	4630      	mov	r0, r6
   21268:	9903      	ldr	r1, [sp, #12]
   2126a:	462b      	mov	r3, r5
   2126c:	f7fe ff3a 	bl	200e4 <_ZN9allow_pin12full_dynamic15Buffer$LT$B$GT$5allow17h4466d99fb2bc5668E>
   21270:	07c0      	lsls	r0, r0, #31
   21272:	d110      	bne.n	21296 <_ZN20complex_full_dynamic3app17h4482192633648689E+0x62>
   21274:	9400      	str	r4, [sp, #0]
   21276:	a80f      	add	r0, sp, #60	@ 0x3c
   21278:	211b      	movs	r1, #27
   2127a:	2203      	movs	r2, #3
   2127c:	462b      	mov	r3, r5
   2127e:	f7fe ff31 	bl	200e4 <_ZN9allow_pin12full_dynamic15Buffer$LT$B$GT$5allow17h4466d99fb2bc5668E>
   21282:	07c0      	lsls	r0, r0, #31
   21284:	d107      	bne.n	21296 <_ZN20complex_full_dynamic3app17h4482192633648689E+0x62>
   21286:	4812      	ldr	r0, [pc, #72]	@ (212d0 <_ZN20complex_full_dynamic3app17h4482192633648689E+0x9c>)
   21288:	2105      	movs	r1, #5
   2128a:	2202      	movs	r2, #2
   2128c:	2600      	movs	r6, #0
   2128e:	4633      	mov	r3, r6
   21290:	df02      	svc	2
   21292:	287f      	cmp	r0, #127	@ 0x7f
   21294:	d80b      	bhi.n	212ae <_ZN20complex_full_dynamic3app17h4482192633648689E+0x7a>
   21296:	9c04      	ldr	r4, [sp, #16]
   21298:	6061      	str	r1, [r4, #4]
   2129a:	2601      	movs	r6, #1
   2129c:	7026      	strb	r6, [r4, #0]
   2129e:	a80f      	add	r0, sp, #60	@ 0x3c
   212a0:	f005 fb38 	bl	26914 <_ZN9allow_pin12full_dynamic17unshare_if_shared17h1c062ce130e7e9d8E>
   212a4:	a805      	add	r0, sp, #20
   212a6:	f005 fb35 	bl	26914 <_ZN9allow_pin12full_dynamic17unshare_if_shared17h1c062ce130e7e9d8E>
   212aa:	b019      	add	sp, #100	@ 0x64
   212ac:	bdf0      	pop	{r4, r5, r6, r7, pc}
   212ae:	a805      	add	r0, sp, #20
   212b0:	f005 fb30 	bl	26914 <_ZN9allow_pin12full_dynamic17unshare_if_shared17h1c062ce130e7e9d8E>
   212b4:	ac0f      	add	r4, sp, #60	@ 0x3c
   212b6:	4620      	mov	r0, r4
   212b8:	f005 fb2c 	bl	26914 <_ZN9allow_pin12full_dynamic17unshare_if_shared17h1c062ce130e7e9d8E>
   212bc:	4620      	mov	r0, r4
   212be:	f005 fb29 	bl	26914 <_ZN9allow_pin12full_dynamic17unshare_if_shared17h1c062ce130e7e9d8E>
   212c2:	9c04      	ldr	r4, [sp, #16]
   212c4:	1c60      	adds	r0, r4, #1
   212c6:	221b      	movs	r2, #27
   212c8:	9902      	ldr	r1, [sp, #8]
   212ca:	f005 fce4 	bl	26c96 <__aeabi_memcpy>
   212ce:	e7e5      	b.n	2129c <_ZN20complex_full_dynamic3app17h4482192633648689E+0x68>
   212d0:	00001cce 	.word	0x00001cce

000212d4 <_ZN20complex_full_dynamic3app17h4488a6ac8e43d8b4E>:
   212d4:	b5f0      	push	{r4, r5, r6, r7, lr}
   212d6:	af03      	add	r7, sp, #12
   212d8:	b0ad      	sub	sp, #180	@ 0xb4
   212da:	9003      	str	r0, [sp, #12]
   212dc:	ae04      	add	r6, sp, #16
   212de:	2502      	movs	r5, #2
   212e0:	7235      	strb	r5, [r6, #8]
   212e2:	4630      	mov	r0, r6
   212e4:	300c      	adds	r0, #12
   212e6:	2263      	movs	r2, #99	@ 0x63
   212e8:	9202      	str	r2, [sp, #8]
   212ea:	f005 fcd4 	bl	26c96 <__aeabi_memcpy>
   212ee:	ac20      	add	r4, sp, #128	@ 0x80
   212f0:	4620      	mov	r0, r4
   212f2:	300c      	adds	r0, #12
   212f4:	2127      	movs	r1, #39	@ 0x27
   212f6:	9001      	str	r0, [sp, #4]
   212f8:	f005 fb20 	bl	2693c <__aeabi_memclr4>
   212fc:	7225      	strb	r5, [r4, #8]
   212fe:	2007      	movs	r0, #7
   21300:	9000      	str	r0, [sp, #0]
   21302:	2204      	movs	r2, #4
   21304:	4c1b      	ldr	r4, [pc, #108]	@ (21374 <_ZN20complex_full_dynamic3app17h4488a6ac8e43d8b4E+0xa0>)
   21306:	4630      	mov	r0, r6
   21308:	9902      	ldr	r1, [sp, #8]
   2130a:	4623      	mov	r3, r4
   2130c:	f7fe feea 	bl	200e4 <_ZN9allow_pin12full_dynamic15Buffer$LT$B$GT$5allow17h4466d99fb2bc5668E>
   21310:	07c0      	lsls	r0, r0, #31
   21312:	d111      	bne.n	21338 <_ZN20complex_full_dynamic3app17h4488a6ac8e43d8b4E+0x64>
   21314:	2000      	movs	r0, #0
   21316:	9000      	str	r0, [sp, #0]
   21318:	a820      	add	r0, sp, #128	@ 0x80
   2131a:	2127      	movs	r1, #39	@ 0x27
   2131c:	2203      	movs	r2, #3
   2131e:	4623      	mov	r3, r4
   21320:	f7fe fee0 	bl	200e4 <_ZN9allow_pin12full_dynamic15Buffer$LT$B$GT$5allow17h4466d99fb2bc5668E>
   21324:	07c0      	lsls	r0, r0, #31
   21326:	d107      	bne.n	21338 <_ZN20complex_full_dynamic3app17h4488a6ac8e43d8b4E+0x64>
   21328:	4812      	ldr	r0, [pc, #72]	@ (21374 <_ZN20complex_full_dynamic3app17h4488a6ac8e43d8b4E+0xa0>)
   2132a:	2107      	movs	r1, #7
   2132c:	2600      	movs	r6, #0
   2132e:	4632      	mov	r2, r6
   21330:	4633      	mov	r3, r6
   21332:	df02      	svc	2
   21334:	287f      	cmp	r0, #127	@ 0x7f
   21336:	d80b      	bhi.n	21350 <_ZN20complex_full_dynamic3app17h4488a6ac8e43d8b4E+0x7c>
   21338:	9c03      	ldr	r4, [sp, #12]
   2133a:	6061      	str	r1, [r4, #4]
   2133c:	2601      	movs	r6, #1
   2133e:	7026      	strb	r6, [r4, #0]
   21340:	a820      	add	r0, sp, #128	@ 0x80
   21342:	f005 fae7 	bl	26914 <_ZN9allow_pin12full_dynamic17unshare_if_shared17h1c062ce130e7e9d8E>
   21346:	a804      	add	r0, sp, #16
   21348:	f005 fae4 	bl	26914 <_ZN9allow_pin12full_dynamic17unshare_if_shared17h1c062ce130e7e9d8E>
   2134c:	b02d      	add	sp, #180	@ 0xb4
   2134e:	bdf0      	pop	{r4, r5, r6, r7, pc}
   21350:	a804      	add	r0, sp, #16
   21352:	f005 fadf 	bl	26914 <_ZN9allow_pin12full_dynamic17unshare_if_shared17h1c062ce130e7e9d8E>
   21356:	ac20      	add	r4, sp, #128	@ 0x80
   21358:	4620      	mov	r0, r4
   2135a:	f005 fadb 	bl	26914 <_ZN9allow_pin12full_dynamic17unshare_if_shared17h1c062ce130e7e9d8E>
   2135e:	4620      	mov	r0, r4
   21360:	f005 fad8 	bl	26914 <_ZN9allow_pin12full_dynamic17unshare_if_shared17h1c062ce130e7e9d8E>
   21364:	9c03      	ldr	r4, [sp, #12]
   21366:	1c60      	adds	r0, r4, #1
   21368:	2227      	movs	r2, #39	@ 0x27
   2136a:	9901      	ldr	r1, [sp, #4]
   2136c:	f005 fc93 	bl	26c96 <__aeabi_memcpy>
   21370:	e7e5      	b.n	2133e <_ZN20complex_full_dynamic3app17h4488a6ac8e43d8b4E+0x6a>
   21372:	46c0      	nop			@ (mov r8, r8)
   21374:	00001e54 	.word	0x00001e54

00021378 <_ZN20complex_full_dynamic3app17h470ba419047b3f49E>:
   21378:	b5f0      	push	{r4, r5, r6, r7, lr}
   2137a:	af03      	add	r7, sp, #12
   2137c:	b0a3      	sub	sp, #140	@ 0x8c
   2137e:	9003      	str	r0, [sp, #12]
   21380:	ae04      	add	r6, sp, #16
   21382:	2502      	movs	r5, #2
   21384:	7235      	strb	r5, [r6, #8]
   21386:	4630      	mov	r0, r6
   21388:	300c      	adds	r0, #12
   2138a:	2251      	movs	r2, #81	@ 0x51
   2138c:	9202      	str	r2, [sp, #8]
   2138e:	f005 fc82 	bl	26c96 <__aeabi_memcpy>
   21392:	ac1c      	add	r4, sp, #112	@ 0x70
   21394:	4620      	mov	r0, r4
   21396:	300c      	adds	r0, #12
   21398:	210f      	movs	r1, #15
   2139a:	9001      	str	r0, [sp, #4]
   2139c:	f005 face 	bl	2693c <__aeabi_memclr4>
   213a0:	7225      	strb	r5, [r4, #8]
   213a2:	2000      	movs	r0, #0
   213a4:	9000      	str	r0, [sp, #0]
   213a6:	2204      	movs	r2, #4
   213a8:	4c1a      	ldr	r4, [pc, #104]	@ (21414 <_ZN20complex_full_dynamic3app17h470ba419047b3f49E+0x9c>)
   213aa:	4630      	mov	r0, r6
   213ac:	9902      	ldr	r1, [sp, #8]
   213ae:	4623      	mov	r3, r4
   213b0:	f7fe fe98 	bl	200e4 <_ZN9allow_pin12full_dynamic15Buffer$LT$B$GT$5allow17h4466d99fb2bc5668E>
   213b4:	07c0      	lsls	r0, r0, #31
   213b6:	d110      	bne.n	213da <_ZN20complex_full_dynamic3app17h470ba419047b3f49E+0x62>
   213b8:	2203      	movs	r2, #3
   213ba:	9200      	str	r2, [sp, #0]
   213bc:	a81c      	add	r0, sp, #112	@ 0x70
   213be:	210f      	movs	r1, #15
   213c0:	4623      	mov	r3, r4
   213c2:	f7fe fe8f 	bl	200e4 <_ZN9allow_pin12full_dynamic15Buffer$LT$B$GT$5allow17h4466d99fb2bc5668E>
   213c6:	07c0      	lsls	r0, r0, #31
   213c8:	d107      	bne.n	213da <_ZN20complex_full_dynamic3app17h470ba419047b3f49E+0x62>
   213ca:	4812      	ldr	r0, [pc, #72]	@ (21414 <_ZN20complex_full_dynamic3app17h470ba419047b3f49E+0x9c>)
   213cc:	2203      	movs	r2, #3
   213ce:	2600      	movs	r6, #0
   213d0:	4631      	mov	r1, r6
   213d2:	4633      	mov	r3, r6
   213d4:	df02      	svc	2
   213d6:	287f      	cmp	r0, #127	@ 0x7f
   213d8:	d80b      	bhi.n	213f2 <_ZN20complex_full_dynamic3app17h470ba419047b3f49E+0x7a>
   213da:	9c03      	ldr	r4, [sp, #12]
   213dc:	6061      	str	r1, [r4, #4]
   213de:	2601      	movs	r6, #1
   213e0:	7026      	strb	r6, [r4, #0]
   213e2:	a81c      	add	r0, sp, #112	@ 0x70
   213e4:	f005 fa96 	bl	26914 <_ZN9allow_pin12full_dynamic17unshare_if_shared17h1c062ce130e7e9d8E>
   213e8:	a804      	add	r0, sp, #16
   213ea:	f005 fa93 	bl	26914 <_ZN9allow_pin12full_dynamic17unshare_if_shared17h1c062ce130e7e9d8E>
   213ee:	b023      	add	sp, #140	@ 0x8c
   213f0:	bdf0      	pop	{r4, r5, r6, r7, pc}
   213f2:	a804      	add	r0, sp, #16
   213f4:	f005 fa8e 	bl	26914 <_ZN9allow_pin12full_dynamic17unshare_if_shared17h1c062ce130e7e9d8E>
   213f8:	ac1c      	add	r4, sp, #112	@ 0x70
   213fa:	4620      	mov	r0, r4
   213fc:	f005 fa8a 	bl	26914 <_ZN9allow_pin12full_dynamic17unshare_if_shared17h1c062ce130e7e9d8E>
   21400:	4620      	mov	r0, r4
   21402:	f005 fa87 	bl	26914 <_ZN9allow_pin12full_dynamic17unshare_if_shared17h1c062ce130e7e9d8E>
   21406:	9c03      	ldr	r4, [sp, #12]
   21408:	1c60      	adds	r0, r4, #1
   2140a:	220f      	movs	r2, #15
   2140c:	9901      	ldr	r1, [sp, #4]
   2140e:	f005 fc42 	bl	26c96 <__aeabi_memcpy>
   21412:	e7e5      	b.n	213e0 <_ZN20complex_full_dynamic3app17h470ba419047b3f49E+0x68>
   21414:	000013bf 	.word	0x000013bf

00021418 <_ZN20complex_full_dynamic3app17h480abd9b3af78fc7E>:
   21418:	b5f0      	push	{r4, r5, r6, r7, lr}
   2141a:	af03      	add	r7, sp, #12
   2141c:	b0a5      	sub	sp, #148	@ 0x94
   2141e:	9003      	str	r0, [sp, #12]
   21420:	ae04      	add	r6, sp, #16
   21422:	2402      	movs	r4, #2
   21424:	7234      	strb	r4, [r6, #8]
   21426:	4630      	mov	r0, r6
   21428:	300c      	adds	r0, #12
   2142a:	2238      	movs	r2, #56	@ 0x38
   2142c:	9202      	str	r2, [sp, #8]
   2142e:	f005 fc32 	bl	26c96 <__aeabi_memcpy>
   21432:	ad15      	add	r5, sp, #84	@ 0x54
   21434:	4628      	mov	r0, r5
   21436:	300c      	adds	r0, #12
   21438:	2134      	movs	r1, #52	@ 0x34
   2143a:	9001      	str	r0, [sp, #4]
   2143c:	f005 fa7e 	bl	2693c <__aeabi_memclr4>
   21440:	722c      	strb	r4, [r5, #8]
   21442:	2008      	movs	r0, #8
   21444:	9000      	str	r0, [sp, #0]
   21446:	2097      	movs	r0, #151	@ 0x97
   21448:	0044      	lsls	r4, r0, #1
   2144a:	2204      	movs	r2, #4
   2144c:	4630      	mov	r0, r6
   2144e:	9902      	ldr	r1, [sp, #8]
   21450:	4623      	mov	r3, r4
   21452:	f7fe fe47 	bl	200e4 <_ZN9allow_pin12full_dynamic15Buffer$LT$B$GT$5allow17h4466d99fb2bc5668E>
   21456:	07c0      	lsls	r0, r0, #31
   21458:	d110      	bne.n	2147c <_ZN20complex_full_dynamic3app17h480abd9b3af78fc7E+0x64>
   2145a:	2203      	movs	r2, #3
   2145c:	9200      	str	r2, [sp, #0]
   2145e:	a815      	add	r0, sp, #84	@ 0x54
   21460:	2134      	movs	r1, #52	@ 0x34
   21462:	4623      	mov	r3, r4
   21464:	f7fe fe3e 	bl	200e4 <_ZN9allow_pin12full_dynamic15Buffer$LT$B$GT$5allow17h4466d99fb2bc5668E>
   21468:	07c0      	lsls	r0, r0, #31
   2146a:	d107      	bne.n	2147c <_ZN20complex_full_dynamic3app17h480abd9b3af78fc7E+0x64>
   2146c:	2108      	movs	r1, #8
   2146e:	2203      	movs	r2, #3
   21470:	2600      	movs	r6, #0
   21472:	4620      	mov	r0, r4
   21474:	4633      	mov	r3, r6
   21476:	df02      	svc	2
   21478:	287f      	cmp	r0, #127	@ 0x7f
   2147a:	d80b      	bhi.n	21494 <_ZN20complex_full_dynamic3app17h480abd9b3af78fc7E+0x7c>
   2147c:	9c03      	ldr	r4, [sp, #12]
   2147e:	6061      	str	r1, [r4, #4]
   21480:	2601      	movs	r6, #1
   21482:	7026      	strb	r6, [r4, #0]
   21484:	a815      	add	r0, sp, #84	@ 0x54
   21486:	f005 fa45 	bl	26914 <_ZN9allow_pin12full_dynamic17unshare_if_shared17h1c062ce130e7e9d8E>
   2148a:	a804      	add	r0, sp, #16
   2148c:	f005 fa42 	bl	26914 <_ZN9allow_pin12full_dynamic17unshare_if_shared17h1c062ce130e7e9d8E>
   21490:	b025      	add	sp, #148	@ 0x94
   21492:	bdf0      	pop	{r4, r5, r6, r7, pc}
   21494:	a804      	add	r0, sp, #16
   21496:	f005 fa3d 	bl	26914 <_ZN9allow_pin12full_dynamic17unshare_if_shared17h1c062ce130e7e9d8E>
   2149a:	ac15      	add	r4, sp, #84	@ 0x54
   2149c:	4620      	mov	r0, r4
   2149e:	f005 fa39 	bl	26914 <_ZN9allow_pin12full_dynamic17unshare_if_shared17h1c062ce130e7e9d8E>
   214a2:	4620      	mov	r0, r4
   214a4:	f005 fa36 	bl	26914 <_ZN9allow_pin12full_dynamic17unshare_if_shared17h1c062ce130e7e9d8E>
   214a8:	9c03      	ldr	r4, [sp, #12]
   214aa:	1c60      	adds	r0, r4, #1
   214ac:	2234      	movs	r2, #52	@ 0x34
   214ae:	9901      	ldr	r1, [sp, #4]
   214b0:	f005 fbf1 	bl	26c96 <__aeabi_memcpy>
   214b4:	e7e5      	b.n	21482 <_ZN20complex_full_dynamic3app17h480abd9b3af78fc7E+0x6a>

000214b6 <_ZN20complex_full_dynamic3app17h48717cd8cc210bafE>:
   214b6:	b5f0      	push	{r4, r5, r6, r7, lr}
   214b8:	af03      	add	r7, sp, #12
   214ba:	b0b7      	sub	sp, #220	@ 0xdc
   214bc:	9003      	str	r0, [sp, #12]
   214be:	ae04      	add	r6, sp, #16
   214c0:	2402      	movs	r4, #2
   214c2:	7234      	strb	r4, [r6, #8]
   214c4:	4630      	mov	r0, r6
   214c6:	300c      	adds	r0, #12
   214c8:	224f      	movs	r2, #79	@ 0x4f
   214ca:	9202      	str	r2, [sp, #8]
   214cc:	f005 fbe3 	bl	26c96 <__aeabi_memcpy>
   214d0:	ad1b      	add	r5, sp, #108	@ 0x6c
   214d2:	4628      	mov	r0, r5
   214d4:	300c      	adds	r0, #12
   214d6:	2161      	movs	r1, #97	@ 0x61
   214d8:	9001      	str	r0, [sp, #4]
   214da:	f005 fa2f 	bl	2693c <__aeabi_memclr4>
   214de:	722c      	strb	r4, [r5, #8]
   214e0:	9400      	str	r4, [sp, #0]
   214e2:	20db      	movs	r0, #219	@ 0xdb
   214e4:	0044      	lsls	r4, r0, #1
   214e6:	2204      	movs	r2, #4
   214e8:	4630      	mov	r0, r6
   214ea:	9902      	ldr	r1, [sp, #8]
   214ec:	4623      	mov	r3, r4
   214ee:	f7fe fdf9 	bl	200e4 <_ZN9allow_pin12full_dynamic15Buffer$LT$B$GT$5allow17h4466d99fb2bc5668E>
   214f2:	07c0      	lsls	r0, r0, #31
   214f4:	d111      	bne.n	2151a <_ZN20complex_full_dynamic3app17h48717cd8cc210bafE+0x64>
   214f6:	2008      	movs	r0, #8
   214f8:	9000      	str	r0, [sp, #0]
   214fa:	a81b      	add	r0, sp, #108	@ 0x6c
   214fc:	2161      	movs	r1, #97	@ 0x61
   214fe:	2203      	movs	r2, #3
   21500:	4623      	mov	r3, r4
   21502:	f7fe fdef 	bl	200e4 <_ZN9allow_pin12full_dynamic15Buffer$LT$B$GT$5allow17h4466d99fb2bc5668E>
   21506:	07c0      	lsls	r0, r0, #31
   21508:	d107      	bne.n	2151a <_ZN20complex_full_dynamic3app17h48717cd8cc210bafE+0x64>
   2150a:	2102      	movs	r1, #2
   2150c:	2208      	movs	r2, #8
   2150e:	2600      	movs	r6, #0
   21510:	4620      	mov	r0, r4
   21512:	4633      	mov	r3, r6
   21514:	df02      	svc	2
   21516:	287f      	cmp	r0, #127	@ 0x7f
   21518:	d80b      	bhi.n	21532 <_ZN20complex_full_dynamic3app17h48717cd8cc210bafE+0x7c>
   2151a:	9c03      	ldr	r4, [sp, #12]
   2151c:	6061      	str	r1, [r4, #4]
   2151e:	2601      	movs	r6, #1
   21520:	7026      	strb	r6, [r4, #0]
   21522:	a81b      	add	r0, sp, #108	@ 0x6c
   21524:	f005 f9f6 	bl	26914 <_ZN9allow_pin12full_dynamic17unshare_if_shared17h1c062ce130e7e9d8E>
   21528:	a804      	add	r0, sp, #16
   2152a:	f005 f9f3 	bl	26914 <_ZN9allow_pin12full_dynamic17unshare_if_shared17h1c062ce130e7e9d8E>
   2152e:	b037      	add	sp, #220	@ 0xdc
   21530:	bdf0      	pop	{r4, r5, r6, r7, pc}
   21532:	a804      	add	r0, sp, #16
   21534:	f005 f9ee 	bl	26914 <_ZN9allow_pin12full_dynamic17unshare_if_shared17h1c062ce130e7e9d8E>
   21538:	ac1b      	add	r4, sp, #108	@ 0x6c
   2153a:	4620      	mov	r0, r4
   2153c:	f005 f9ea 	bl	26914 <_ZN9allow_pin12full_dynamic17unshare_if_shared17h1c062ce130e7e9d8E>
   21540:	4620      	mov	r0, r4
   21542:	f005 f9e7 	bl	26914 <_ZN9allow_pin12full_dynamic17unshare_if_shared17h1c062ce130e7e9d8E>
   21546:	9c03      	ldr	r4, [sp, #12]
   21548:	1c60      	adds	r0, r4, #1
   2154a:	2261      	movs	r2, #97	@ 0x61
   2154c:	9901      	ldr	r1, [sp, #4]
   2154e:	f005 fba2 	bl	26c96 <__aeabi_memcpy>
   21552:	e7e5      	b.n	21520 <_ZN20complex_full_dynamic3app17h48717cd8cc210bafE+0x6a>

00021554 <_ZN20complex_full_dynamic3app17h4c6d9e6e52c24a59E>:
   21554:	b5f0      	push	{r4, r5, r6, r7, lr}
   21556:	af03      	add	r7, sp, #12
   21558:	b0a9      	sub	sp, #164	@ 0xa4
   2155a:	9004      	str	r0, [sp, #16]
   2155c:	ae05      	add	r6, sp, #20
   2155e:	2502      	movs	r5, #2
   21560:	7235      	strb	r5, [r6, #8]
   21562:	4630      	mov	r0, r6
   21564:	300c      	adds	r0, #12
   21566:	2235      	movs	r2, #53	@ 0x35
   21568:	9203      	str	r2, [sp, #12]
   2156a:	f005 fb94 	bl	26c96 <__aeabi_memcpy>
   2156e:	ac16      	add	r4, sp, #88	@ 0x58
   21570:	4620      	mov	r0, r4
   21572:	300c      	adds	r0, #12
   21574:	213f      	movs	r1, #63	@ 0x3f
   21576:	9002      	str	r0, [sp, #8]
   21578:	f005 f9e0 	bl	2693c <__aeabi_memclr4>
   2157c:	7225      	strb	r5, [r4, #8]
   2157e:	2000      	movs	r0, #0
   21580:	9000      	str	r0, [sp, #0]
   21582:	2204      	movs	r2, #4
   21584:	4c1a      	ldr	r4, [pc, #104]	@ (215f0 <_ZN20complex_full_dynamic3app17h4c6d9e6e52c24a59E+0x9c>)
   21586:	4630      	mov	r0, r6
   21588:	9903      	ldr	r1, [sp, #12]
   2158a:	4623      	mov	r3, r4
   2158c:	f7fe fdaa 	bl	200e4 <_ZN9allow_pin12full_dynamic15Buffer$LT$B$GT$5allow17h4466d99fb2bc5668E>
   21590:	07c0      	lsls	r0, r0, #31
   21592:	d110      	bne.n	215b6 <_ZN20complex_full_dynamic3app17h4c6d9e6e52c24a59E+0x62>
   21594:	2203      	movs	r2, #3
   21596:	9200      	str	r2, [sp, #0]
   21598:	a816      	add	r0, sp, #88	@ 0x58
   2159a:	213f      	movs	r1, #63	@ 0x3f
   2159c:	4623      	mov	r3, r4
   2159e:	f7fe fda1 	bl	200e4 <_ZN9allow_pin12full_dynamic15Buffer$LT$B$GT$5allow17h4466d99fb2bc5668E>
   215a2:	07c0      	lsls	r0, r0, #31
   215a4:	d107      	bne.n	215b6 <_ZN20complex_full_dynamic3app17h4c6d9e6e52c24a59E+0x62>
   215a6:	4812      	ldr	r0, [pc, #72]	@ (215f0 <_ZN20complex_full_dynamic3app17h4c6d9e6e52c24a59E+0x9c>)
   215a8:	2203      	movs	r2, #3
   215aa:	2600      	movs	r6, #0
   215ac:	4631      	mov	r1, r6
   215ae:	4633      	mov	r3, r6
   215b0:	df02      	svc	2
   215b2:	287f      	cmp	r0, #127	@ 0x7f
   215b4:	d80b      	bhi.n	215ce <_ZN20complex_full_dynamic3app17h4c6d9e6e52c24a59E+0x7a>
   215b6:	9c04      	ldr	r4, [sp, #16]
   215b8:	6061      	str	r1, [r4, #4]
   215ba:	2601      	movs	r6, #1
   215bc:	7026      	strb	r6, [r4, #0]
   215be:	a816      	add	r0, sp, #88	@ 0x58
   215c0:	f005 f9a8 	bl	26914 <_ZN9allow_pin12full_dynamic17unshare_if_shared17h1c062ce130e7e9d8E>
   215c4:	a805      	add	r0, sp, #20
   215c6:	f005 f9a5 	bl	26914 <_ZN9allow_pin12full_dynamic17unshare_if_shared17h1c062ce130e7e9d8E>
   215ca:	b029      	add	sp, #164	@ 0xa4
   215cc:	bdf0      	pop	{r4, r5, r6, r7, pc}
   215ce:	a805      	add	r0, sp, #20
   215d0:	f005 f9a0 	bl	26914 <_ZN9allow_pin12full_dynamic17unshare_if_shared17h1c062ce130e7e9d8E>
   215d4:	ac16      	add	r4, sp, #88	@ 0x58
   215d6:	4620      	mov	r0, r4
   215d8:	f005 f99c 	bl	26914 <_ZN9allow_pin12full_dynamic17unshare_if_shared17h1c062ce130e7e9d8E>
   215dc:	4620      	mov	r0, r4
   215de:	f005 f999 	bl	26914 <_ZN9allow_pin12full_dynamic17unshare_if_shared17h1c062ce130e7e9d8E>
   215e2:	9c04      	ldr	r4, [sp, #16]
   215e4:	1c60      	adds	r0, r4, #1
   215e6:	223f      	movs	r2, #63	@ 0x3f
   215e8:	9902      	ldr	r1, [sp, #8]
   215ea:	f005 fb54 	bl	26c96 <__aeabi_memcpy>
   215ee:	e7e5      	b.n	215bc <_ZN20complex_full_dynamic3app17h4c6d9e6e52c24a59E+0x68>
   215f0:	00000e57 	.word	0x00000e57

000215f4 <_ZN20complex_full_dynamic3app17h512df6a51f866caaE>:
   215f4:	b5f0      	push	{r4, r5, r6, r7, lr}
   215f6:	af03      	add	r7, sp, #12
   215f8:	b0af      	sub	sp, #188	@ 0xbc
   215fa:	9004      	str	r0, [sp, #16]
   215fc:	ae05      	add	r6, sp, #20
   215fe:	2502      	movs	r5, #2
   21600:	7235      	strb	r5, [r6, #8]
   21602:	4630      	mov	r0, r6
   21604:	300c      	adds	r0, #12
   21606:	2263      	movs	r2, #99	@ 0x63
   21608:	9203      	str	r2, [sp, #12]
   2160a:	f005 fb44 	bl	26c96 <__aeabi_memcpy>
   2160e:	ac21      	add	r4, sp, #132	@ 0x84
   21610:	4620      	mov	r0, r4
   21612:	300c      	adds	r0, #12
   21614:	212c      	movs	r1, #44	@ 0x2c
   21616:	9002      	str	r0, [sp, #8]
   21618:	f005 f990 	bl	2693c <__aeabi_memclr4>
   2161c:	7225      	strb	r5, [r4, #8]
   2161e:	2005      	movs	r0, #5
   21620:	9000      	str	r0, [sp, #0]
   21622:	2204      	movs	r2, #4
   21624:	2318      	movs	r3, #24
   21626:	4630      	mov	r0, r6
   21628:	9903      	ldr	r1, [sp, #12]
   2162a:	f7fe fd5b 	bl	200e4 <_ZN9allow_pin12full_dynamic15Buffer$LT$B$GT$5allow17h4466d99fb2bc5668E>
   2162e:	07c0      	lsls	r0, r0, #31
   21630:	d110      	bne.n	21654 <_ZN20complex_full_dynamic3app17h512df6a51f866caaE+0x60>
   21632:	2203      	movs	r2, #3
   21634:	9200      	str	r2, [sp, #0]
   21636:	a821      	add	r0, sp, #132	@ 0x84
   21638:	212c      	movs	r1, #44	@ 0x2c
   2163a:	2318      	movs	r3, #24
   2163c:	f7fe fd52 	bl	200e4 <_ZN9allow_pin12full_dynamic15Buffer$LT$B$GT$5allow17h4466d99fb2bc5668E>
   21640:	07c0      	lsls	r0, r0, #31
   21642:	d107      	bne.n	21654 <_ZN20complex_full_dynamic3app17h512df6a51f866caaE+0x60>
   21644:	2018      	movs	r0, #24
   21646:	2105      	movs	r1, #5
   21648:	2203      	movs	r2, #3
   2164a:	2600      	movs	r6, #0
   2164c:	4633      	mov	r3, r6
   2164e:	df02      	svc	2
   21650:	287f      	cmp	r0, #127	@ 0x7f
   21652:	d80b      	bhi.n	2166c <_ZN20complex_full_dynamic3app17h512df6a51f866caaE+0x78>
   21654:	9c04      	ldr	r4, [sp, #16]
   21656:	6061      	str	r1, [r4, #4]
   21658:	2601      	movs	r6, #1
   2165a:	7026      	strb	r6, [r4, #0]
   2165c:	a821      	add	r0, sp, #132	@ 0x84
   2165e:	f005 f959 	bl	26914 <_ZN9allow_pin12full_dynamic17unshare_if_shared17h1c062ce130e7e9d8E>
   21662:	a805      	add	r0, sp, #20
   21664:	f005 f956 	bl	26914 <_ZN9allow_pin12full_dynamic17unshare_if_shared17h1c062ce130e7e9d8E>
   21668:	b02f      	add	sp, #188	@ 0xbc
   2166a:	bdf0      	pop	{r4, r5, r6, r7, pc}
   2166c:	a805      	add	r0, sp, #20
   2166e:	f005 f951 	bl	26914 <_ZN9allow_pin12full_dynamic17unshare_if_shared17h1c062ce130e7e9d8E>
   21672:	ac21      	add	r4, sp, #132	@ 0x84
   21674:	4620      	mov	r0, r4
   21676:	f005 f94d 	bl	26914 <_ZN9allow_pin12full_dynamic17unshare_if_shared17h1c062ce130e7e9d8E>
   2167a:	4620      	mov	r0, r4
   2167c:	f005 f94a 	bl	26914 <_ZN9allow_pin12full_dynamic17unshare_if_shared17h1c062ce130e7e9d8E>
   21680:	9c04      	ldr	r4, [sp, #16]
   21682:	1c60      	adds	r0, r4, #1
   21684:	222c      	movs	r2, #44	@ 0x2c
   21686:	9902      	ldr	r1, [sp, #8]
   21688:	f005 fb05 	bl	26c96 <__aeabi_memcpy>
   2168c:	e7e5      	b.n	2165a <_ZN20complex_full_dynamic3app17h512df6a51f866caaE+0x66>

0002168e <_ZN20complex_full_dynamic3app17h52156a23ae1d6c3bE>:
   2168e:	b5f0      	push	{r4, r5, r6, r7, lr}
   21690:	af03      	add	r7, sp, #12
   21692:	b099      	sub	sp, #100	@ 0x64
   21694:	9004      	str	r0, [sp, #16]
   21696:	ae05      	add	r6, sp, #20
   21698:	2502      	movs	r5, #2
   2169a:	7235      	strb	r5, [r6, #8]
   2169c:	4630      	mov	r0, r6
   2169e:	300c      	adds	r0, #12
   216a0:	220f      	movs	r2, #15
   216a2:	9203      	str	r2, [sp, #12]
   216a4:	f005 faf7 	bl	26c96 <__aeabi_memcpy>
   216a8:	ac0c      	add	r4, sp, #48	@ 0x30
   216aa:	4620      	mov	r0, r4
   216ac:	300c      	adds	r0, #12
   216ae:	2125      	movs	r1, #37	@ 0x25
   216b0:	9002      	str	r0, [sp, #8]
   216b2:	f005 f943 	bl	2693c <__aeabi_memclr4>
   216b6:	7225      	strb	r5, [r4, #8]
   216b8:	2008      	movs	r0, #8
   216ba:	9000      	str	r0, [sp, #0]
   216bc:	2204      	movs	r2, #4
   216be:	23a2      	movs	r3, #162	@ 0xa2
   216c0:	4630      	mov	r0, r6
   216c2:	9903      	ldr	r1, [sp, #12]
   216c4:	f7fe fd0e 	bl	200e4 <_ZN9allow_pin12full_dynamic15Buffer$LT$B$GT$5allow17h4466d99fb2bc5668E>
   216c8:	07c0      	lsls	r0, r0, #31
   216ca:	d111      	bne.n	216f0 <_ZN20complex_full_dynamic3app17h52156a23ae1d6c3bE+0x62>
   216cc:	2000      	movs	r0, #0
   216ce:	9000      	str	r0, [sp, #0]
   216d0:	a80c      	add	r0, sp, #48	@ 0x30
   216d2:	2125      	movs	r1, #37	@ 0x25
   216d4:	2203      	movs	r2, #3
   216d6:	23a2      	movs	r3, #162	@ 0xa2
   216d8:	f7fe fd04 	bl	200e4 <_ZN9allow_pin12full_dynamic15Buffer$LT$B$GT$5allow17h4466d99fb2bc5668E>
   216dc:	07c0      	lsls	r0, r0, #31
   216de:	d107      	bne.n	216f0 <_ZN20complex_full_dynamic3app17h52156a23ae1d6c3bE+0x62>
   216e0:	20a2      	movs	r0, #162	@ 0xa2
   216e2:	2108      	movs	r1, #8
   216e4:	2600      	movs	r6, #0
   216e6:	4632      	mov	r2, r6
   216e8:	4633      	mov	r3, r6
   216ea:	df02      	svc	2
   216ec:	287f      	cmp	r0, #127	@ 0x7f
   216ee:	d80b      	bhi.n	21708 <_ZN20complex_full_dynamic3app17h52156a23ae1d6c3bE+0x7a>
   216f0:	9c04      	ldr	r4, [sp, #16]
   216f2:	6061      	str	r1, [r4, #4]
   216f4:	2601      	movs	r6, #1
   216f6:	7026      	strb	r6, [r4, #0]
   216f8:	a80c      	add	r0, sp, #48	@ 0x30
   216fa:	f005 f90b 	bl	26914 <_ZN9allow_pin12full_dynamic17unshare_if_shared17h1c062ce130e7e9d8E>
   216fe:	a805      	add	r0, sp, #20
   21700:	f005 f908 	bl	26914 <_ZN9allow_pin12full_dynamic17unshare_if_shared17h1c062ce130e7e9d8E>
   21704:	b019      	add	sp, #100	@ 0x64
   21706:	bdf0      	pop	{r4, r5, r6, r7, pc}
   21708:	a805      	add	r0, sp, #20
   2170a:	f005 f903 	bl	26914 <_ZN9allow_pin12full_dynamic17unshare_if_shared17h1c062ce130e7e9d8E>
   2170e:	ac0c      	add	r4, sp, #48	@ 0x30
   21710:	4620      	mov	r0, r4
   21712:	f005 f8ff 	bl	26914 <_ZN9allow_pin12full_dynamic17unshare_if_shared17h1c062ce130e7e9d8E>
   21716:	4620      	mov	r0, r4
   21718:	f005 f8fc 	bl	26914 <_ZN9allow_pin12full_dynamic17unshare_if_shared17h1c062ce130e7e9d8E>
   2171c:	9c04      	ldr	r4, [sp, #16]
   2171e:	1c60      	adds	r0, r4, #1
   21720:	2225      	movs	r2, #37	@ 0x25
   21722:	9902      	ldr	r1, [sp, #8]
   21724:	f005 fab7 	bl	26c96 <__aeabi_memcpy>
   21728:	e7e5      	b.n	216f6 <_ZN20complex_full_dynamic3app17h52156a23ae1d6c3bE+0x68>
   2172a:	d4d4      	bmi.n	216d6 <_ZN20complex_full_dynamic3app17h52156a23ae1d6c3bE+0x48>

0002172c <_ZN20complex_full_dynamic3app17h53e4eaaae4f737abE>:
   2172c:	b5f0      	push	{r4, r5, r6, r7, lr}
   2172e:	af03      	add	r7, sp, #12
   21730:	b0a1      	sub	sp, #132	@ 0x84
   21732:	9004      	str	r0, [sp, #16]
   21734:	ae05      	add	r6, sp, #20
   21736:	2502      	movs	r5, #2
   21738:	7235      	strb	r5, [r6, #8]
   2173a:	4630      	mov	r0, r6
   2173c:	300c      	adds	r0, #12
   2173e:	222c      	movs	r2, #44	@ 0x2c
   21740:	9203      	str	r2, [sp, #12]
   21742:	f005 faa8 	bl	26c96 <__aeabi_memcpy>
   21746:	ac13      	add	r4, sp, #76	@ 0x4c
   21748:	4620      	mov	r0, r4
   2174a:	300c      	adds	r0, #12
   2174c:	212a      	movs	r1, #42	@ 0x2a
   2174e:	9002      	str	r0, [sp, #8]
   21750:	f005 f8f4 	bl	2693c <__aeabi_memclr4>
   21754:	7225      	strb	r5, [r4, #8]
   21756:	2003      	movs	r0, #3
   21758:	9000      	str	r0, [sp, #0]
   2175a:	2204      	movs	r2, #4
   2175c:	4c1b      	ldr	r4, [pc, #108]	@ (217cc <_ZN20complex_full_dynamic3app17h53e4eaaae4f737abE+0xa0>)
   2175e:	4630      	mov	r0, r6
   21760:	9903      	ldr	r1, [sp, #12]
   21762:	4623      	mov	r3, r4
   21764:	f7fe fcbe 	bl	200e4 <_ZN9allow_pin12full_dynamic15Buffer$LT$B$GT$5allow17h4466d99fb2bc5668E>
   21768:	07c0      	lsls	r0, r0, #31
   2176a:	d111      	bne.n	21790 <_ZN20complex_full_dynamic3app17h53e4eaaae4f737abE+0x64>
   2176c:	2000      	movs	r0, #0
   2176e:	9000      	str	r0, [sp, #0]
   21770:	a813      	add	r0, sp, #76	@ 0x4c
   21772:	212a      	movs	r1, #42	@ 0x2a
   21774:	2203      	movs	r2, #3
   21776:	4623      	mov	r3, r4
   21778:	f7fe fcb4 	bl	200e4 <_ZN9allow_pin12full_dynamic15Buffer$LT$B$GT$5allow17h4466d99fb2bc5668E>
   2177c:	07c0      	lsls	r0, r0, #31
   2177e:	d107      	bne.n	21790 <_ZN20complex_full_dynamic3app17h53e4eaaae4f737abE+0x64>
   21780:	4812      	ldr	r0, [pc, #72]	@ (217cc <_ZN20complex_full_dynamic3app17h53e4eaaae4f737abE+0xa0>)
   21782:	2103      	movs	r1, #3
   21784:	2600      	movs	r6, #0
   21786:	4632      	mov	r2, r6
   21788:	4633      	mov	r3, r6
   2178a:	df02      	svc	2
   2178c:	287f      	cmp	r0, #127	@ 0x7f
   2178e:	d80b      	bhi.n	217a8 <_ZN20complex_full_dynamic3app17h53e4eaaae4f737abE+0x7c>
   21790:	9c04      	ldr	r4, [sp, #16]
   21792:	6061      	str	r1, [r4, #4]
   21794:	2601      	movs	r6, #1
   21796:	7026      	strb	r6, [r4, #0]
   21798:	a813      	add	r0, sp, #76	@ 0x4c
   2179a:	f005 f8bb 	bl	26914 <_ZN9allow_pin12full_dynamic17unshare_if_shared17h1c062ce130e7e9d8E>
   2179e:	a805      	add	r0, sp, #20
   217a0:	f005 f8b8 	bl	26914 <_ZN9allow_pin12full_dynamic17unshare_if_shared17h1c062ce130e7e9d8E>
   217a4:	b021      	add	sp, #132	@ 0x84
   217a6:	bdf0      	pop	{r4, r5, r6, r7, pc}
   217a8:	a805      	add	r0, sp, #20
   217aa:	f005 f8b3 	bl	26914 <_ZN9allow_pin12full_dynamic17unshare_if_shared17h1c062ce130e7e9d8E>
   217ae:	ac13      	add	r4, sp, #76	@ 0x4c
   217b0:	4620      	mov	r0, r4
   217b2:	f005 f8af 	bl	26914 <_ZN9allow_pin12full_dynamic17unshare_if_shared17h1c062ce130e7e9d8E>
   217b6:	4620      	mov	r0, r4
   217b8:	f005 f8ac 	bl	26914 <_ZN9allow_pin12full_dynamic17unshare_if_shared17h1c062ce130e7e9d8E>
   217bc:	9c04      	ldr	r4, [sp, #16]
   217be:	1c60      	adds	r0, r4, #1
   217c0:	222a      	movs	r2, #42	@ 0x2a
   217c2:	9902      	ldr	r1, [sp, #8]
   217c4:	f005 fa67 	bl	26c96 <__aeabi_memcpy>
   217c8:	e7e5      	b.n	21796 <_ZN20complex_full_dynamic3app17h53e4eaaae4f737abE+0x6a>
   217ca:	46c0      	nop			@ (mov r8, r8)
   217cc:	000024f0 	.word	0x000024f0

000217d0 <_ZN20complex_full_dynamic3app17h55363c74238db1deE>:
   217d0:	b5f0      	push	{r4, r5, r6, r7, lr}
   217d2:	af03      	add	r7, sp, #12
   217d4:	b0b1      	sub	sp, #196	@ 0xc4
   217d6:	9003      	str	r0, [sp, #12]
   217d8:	ae04      	add	r6, sp, #16
   217da:	2502      	movs	r5, #2
   217dc:	7235      	strb	r5, [r6, #8]
   217de:	4630      	mov	r0, r6
   217e0:	300c      	adds	r0, #12
   217e2:	223a      	movs	r2, #58	@ 0x3a
   217e4:	9202      	str	r2, [sp, #8]
   217e6:	f005 fa56 	bl	26c96 <__aeabi_memcpy>
   217ea:	ac16      	add	r4, sp, #88	@ 0x58
   217ec:	4620      	mov	r0, r4
   217ee:	300c      	adds	r0, #12
   217f0:	215d      	movs	r1, #93	@ 0x5d
   217f2:	9001      	str	r0, [sp, #4]
   217f4:	f005 f8a2 	bl	2693c <__aeabi_memclr4>
   217f8:	7225      	strb	r5, [r4, #8]
   217fa:	2000      	movs	r0, #0
   217fc:	9000      	str	r0, [sp, #0]
   217fe:	2204      	movs	r2, #4
   21800:	4c1b      	ldr	r4, [pc, #108]	@ (21870 <_ZN20complex_full_dynamic3app17h55363c74238db1deE+0xa0>)
   21802:	4630      	mov	r0, r6
   21804:	9902      	ldr	r1, [sp, #8]
   21806:	4623      	mov	r3, r4
   21808:	f7fe fc6c 	bl	200e4 <_ZN9allow_pin12full_dynamic15Buffer$LT$B$GT$5allow17h4466d99fb2bc5668E>
   2180c:	07c0      	lsls	r0, r0, #31
   2180e:	d111      	bne.n	21834 <_ZN20complex_full_dynamic3app17h55363c74238db1deE+0x64>
   21810:	2005      	movs	r0, #5
   21812:	9000      	str	r0, [sp, #0]
   21814:	a816      	add	r0, sp, #88	@ 0x58
   21816:	215d      	movs	r1, #93	@ 0x5d
   21818:	2203      	movs	r2, #3
   2181a:	4623      	mov	r3, r4
   2181c:	f7fe fc62 	bl	200e4 <_ZN9allow_pin12full_dynamic15Buffer$LT$B$GT$5allow17h4466d99fb2bc5668E>
   21820:	07c0      	lsls	r0, r0, #31
   21822:	d107      	bne.n	21834 <_ZN20complex_full_dynamic3app17h55363c74238db1deE+0x64>
   21824:	4812      	ldr	r0, [pc, #72]	@ (21870 <_ZN20complex_full_dynamic3app17h55363c74238db1deE+0xa0>)
   21826:	2205      	movs	r2, #5
   21828:	2600      	movs	r6, #0
   2182a:	4631      	mov	r1, r6
   2182c:	4633      	mov	r3, r6
   2182e:	df02      	svc	2
   21830:	287f      	cmp	r0, #127	@ 0x7f
   21832:	d80b      	bhi.n	2184c <_ZN20complex_full_dynamic3app17h55363c74238db1deE+0x7c>
   21834:	9c03      	ldr	r4, [sp, #12]
   21836:	6061      	str	r1, [r4, #4]
   21838:	2601      	movs	r6, #1
   2183a:	7026      	strb	r6, [r4, #0]
   2183c:	a816      	add	r0, sp, #88	@ 0x58
   2183e:	f005 f869 	bl	26914 <_ZN9allow_pin12full_dynamic17unshare_if_shared17h1c062ce130e7e9d8E>
   21842:	a804      	add	r0, sp, #16
   21844:	f005 f866 	bl	26914 <_ZN9allow_pin12full_dynamic17unshare_if_shared17h1c062ce130e7e9d8E>
   21848:	b031      	add	sp, #196	@ 0xc4
   2184a:	bdf0      	pop	{r4, r5, r6, r7, pc}
   2184c:	a804      	add	r0, sp, #16
   2184e:	f005 f861 	bl	26914 <_ZN9allow_pin12full_dynamic17unshare_if_shared17h1c062ce130e7e9d8E>
   21852:	ac16      	add	r4, sp, #88	@ 0x58
   21854:	4620      	mov	r0, r4
   21856:	f005 f85d 	bl	26914 <_ZN9allow_pin12full_dynamic17unshare_if_shared17h1c062ce130e7e9d8E>
   2185a:	4620      	mov	r0, r4
   2185c:	f005 f85a 	bl	26914 <_ZN9allow_pin12full_dynamic17unshare_if_shared17h1c062ce130e7e9d8E>
   21860:	9c03      	ldr	r4, [sp, #12]
   21862:	1c60      	adds	r0, r4, #1
   21864:	225d      	movs	r2, #93	@ 0x5d
   21866:	9901      	ldr	r1, [sp, #4]
   21868:	f005 fa15 	bl	26c96 <__aeabi_memcpy>
   2186c:	e7e5      	b.n	2183a <_ZN20complex_full_dynamic3app17h55363c74238db1deE+0x6a>
   2186e:	46c0      	nop			@ (mov r8, r8)
   21870:	000014a4 	.word	0x000014a4

00021874 <_ZN20complex_full_dynamic3app17h580ea73202ace18bE>:
   21874:	b5f0      	push	{r4, r5, r6, r7, lr}
   21876:	af03      	add	r7, sp, #12
   21878:	b09d      	sub	sp, #116	@ 0x74
   2187a:	9004      	str	r0, [sp, #16]
   2187c:	ae05      	add	r6, sp, #20
   2187e:	2502      	movs	r5, #2
   21880:	7235      	strb	r5, [r6, #8]
   21882:	4630      	mov	r0, r6
   21884:	300c      	adds	r0, #12
   21886:	2210      	movs	r2, #16
   21888:	9203      	str	r2, [sp, #12]
   2188a:	f005 fa04 	bl	26c96 <__aeabi_memcpy>
   2188e:	ac0c      	add	r4, sp, #48	@ 0x30
   21890:	4620      	mov	r0, r4
   21892:	300c      	adds	r0, #12
   21894:	2136      	movs	r1, #54	@ 0x36
   21896:	9002      	str	r0, [sp, #8]
   21898:	f005 f850 	bl	2693c <__aeabi_memclr4>
   2189c:	7225      	strb	r5, [r4, #8]
   2189e:	2501      	movs	r5, #1
   218a0:	9500      	str	r5, [sp, #0]
   218a2:	2204      	movs	r2, #4
   218a4:	4c1b      	ldr	r4, [pc, #108]	@ (21914 <_ZN20complex_full_dynamic3app17h580ea73202ace18bE+0xa0>)
   218a6:	4630      	mov	r0, r6
   218a8:	9903      	ldr	r1, [sp, #12]
   218aa:	4623      	mov	r3, r4
   218ac:	f7fe fc1a 	bl	200e4 <_ZN9allow_pin12full_dynamic15Buffer$LT$B$GT$5allow17h4466d99fb2bc5668E>
   218b0:	07c0      	lsls	r0, r0, #31
   218b2:	d111      	bne.n	218d8 <_ZN20complex_full_dynamic3app17h580ea73202ace18bE+0x64>
   218b4:	2007      	movs	r0, #7
   218b6:	9000      	str	r0, [sp, #0]
   218b8:	a80c      	add	r0, sp, #48	@ 0x30
   218ba:	2136      	movs	r1, #54	@ 0x36
   218bc:	2203      	movs	r2, #3
   218be:	4623      	mov	r3, r4
   218c0:	f7fe fc10 	bl	200e4 <_ZN9allow_pin12full_dynamic15Buffer$LT$B$GT$5allow17h4466d99fb2bc5668E>
   218c4:	07c0      	lsls	r0, r0, #31
   218c6:	d107      	bne.n	218d8 <_ZN20complex_full_dynamic3app17h580ea73202ace18bE+0x64>
   218c8:	4812      	ldr	r0, [pc, #72]	@ (21914 <_ZN20complex_full_dynamic3app17h580ea73202ace18bE+0xa0>)
   218ca:	2101      	movs	r1, #1
   218cc:	2207      	movs	r2, #7
   218ce:	2600      	movs	r6, #0
   218d0:	4633      	mov	r3, r6
   218d2:	df02      	svc	2
   218d4:	287f      	cmp	r0, #127	@ 0x7f
   218d6:	d80a      	bhi.n	218ee <_ZN20complex_full_dynamic3app17h580ea73202ace18bE+0x7a>
   218d8:	9c04      	ldr	r4, [sp, #16]
   218da:	6061      	str	r1, [r4, #4]
   218dc:	7025      	strb	r5, [r4, #0]
   218de:	a80c      	add	r0, sp, #48	@ 0x30
   218e0:	f005 f818 	bl	26914 <_ZN9allow_pin12full_dynamic17unshare_if_shared17h1c062ce130e7e9d8E>
   218e4:	a805      	add	r0, sp, #20
   218e6:	f005 f815 	bl	26914 <_ZN9allow_pin12full_dynamic17unshare_if_shared17h1c062ce130e7e9d8E>
   218ea:	b01d      	add	sp, #116	@ 0x74
   218ec:	bdf0      	pop	{r4, r5, r6, r7, pc}
   218ee:	a805      	add	r0, sp, #20
   218f0:	f005 f810 	bl	26914 <_ZN9allow_pin12full_dynamic17unshare_if_shared17h1c062ce130e7e9d8E>
   218f4:	ac0c      	add	r4, sp, #48	@ 0x30
   218f6:	4620      	mov	r0, r4
   218f8:	f005 f80c 	bl	26914 <_ZN9allow_pin12full_dynamic17unshare_if_shared17h1c062ce130e7e9d8E>
   218fc:	4620      	mov	r0, r4
   218fe:	f005 f809 	bl	26914 <_ZN9allow_pin12full_dynamic17unshare_if_shared17h1c062ce130e7e9d8E>
   21902:	9c04      	ldr	r4, [sp, #16]
   21904:	1c60      	adds	r0, r4, #1
   21906:	2236      	movs	r2, #54	@ 0x36
   21908:	9902      	ldr	r1, [sp, #8]
   2190a:	f005 f9c4 	bl	26c96 <__aeabi_memcpy>
   2190e:	4635      	mov	r5, r6
   21910:	e7e4      	b.n	218dc <_ZN20complex_full_dynamic3app17h580ea73202ace18bE+0x68>
   21912:	46c0      	nop			@ (mov r8, r8)
   21914:	00001989 	.word	0x00001989

00021918 <_ZN20complex_full_dynamic3app17h5b0abc5e7fb54a21E>:
   21918:	b5f0      	push	{r4, r5, r6, r7, lr}
   2191a:	af03      	add	r7, sp, #12
   2191c:	b09f      	sub	sp, #124	@ 0x7c
   2191e:	9003      	str	r0, [sp, #12]
   21920:	ae04      	add	r6, sp, #16
   21922:	2502      	movs	r5, #2
   21924:	7235      	strb	r5, [r6, #8]
   21926:	4630      	mov	r0, r6
   21928:	300c      	adds	r0, #12
   2192a:	222c      	movs	r2, #44	@ 0x2c
   2192c:	9202      	str	r2, [sp, #8]
   2192e:	f005 f9b2 	bl	26c96 <__aeabi_memcpy>
   21932:	ac12      	add	r4, sp, #72	@ 0x48
   21934:	4620      	mov	r0, r4
   21936:	300c      	adds	r0, #12
   21938:	2125      	movs	r1, #37	@ 0x25
   2193a:	9001      	str	r0, [sp, #4]
   2193c:	f004 fffe 	bl	2693c <__aeabi_memclr4>
   21940:	7225      	strb	r5, [r4, #8]
   21942:	2003      	movs	r0, #3
   21944:	9000      	str	r0, [sp, #0]
   21946:	2204      	movs	r2, #4
   21948:	4c1b      	ldr	r4, [pc, #108]	@ (219b8 <_ZN20complex_full_dynamic3app17h5b0abc5e7fb54a21E+0xa0>)
   2194a:	4630      	mov	r0, r6
   2194c:	9902      	ldr	r1, [sp, #8]
   2194e:	4623      	mov	r3, r4
   21950:	f7fe fbc8 	bl	200e4 <_ZN9allow_pin12full_dynamic15Buffer$LT$B$GT$5allow17h4466d99fb2bc5668E>
   21954:	07c0      	lsls	r0, r0, #31
   21956:	d111      	bne.n	2197c <_ZN20complex_full_dynamic3app17h5b0abc5e7fb54a21E+0x64>
   21958:	2000      	movs	r0, #0
   2195a:	9000      	str	r0, [sp, #0]
   2195c:	a812      	add	r0, sp, #72	@ 0x48
   2195e:	2125      	movs	r1, #37	@ 0x25
   21960:	2203      	movs	r2, #3
   21962:	4623      	mov	r3, r4
   21964:	f7fe fbbe 	bl	200e4 <_ZN9allow_pin12full_dynamic15Buffer$LT$B$GT$5allow17h4466d99fb2bc5668E>
   21968:	07c0      	lsls	r0, r0, #31
   2196a:	d107      	bne.n	2197c <_ZN20complex_full_dynamic3app17h5b0abc5e7fb54a21E+0x64>
   2196c:	4812      	ldr	r0, [pc, #72]	@ (219b8 <_ZN20complex_full_dynamic3app17h5b0abc5e7fb54a21E+0xa0>)
   2196e:	2103      	movs	r1, #3
   21970:	2600      	movs	r6, #0
   21972:	4632      	mov	r2, r6
   21974:	4633      	mov	r3, r6
   21976:	df02      	svc	2
   21978:	287f      	cmp	r0, #127	@ 0x7f
   2197a:	d80b      	bhi.n	21994 <_ZN20complex_full_dynamic3app17h5b0abc5e7fb54a21E+0x7c>
   2197c:	9c03      	ldr	r4, [sp, #12]
   2197e:	6061      	str	r1, [r4, #4]
   21980:	2601      	movs	r6, #1
   21982:	7026      	strb	r6, [r4, #0]
   21984:	a812      	add	r0, sp, #72	@ 0x48
   21986:	f004 ffc5 	bl	26914 <_ZN9allow_pin12full_dynamic17unshare_if_shared17h1c062ce130e7e9d8E>
   2198a:	a804      	add	r0, sp, #16
   2198c:	f004 ffc2 	bl	26914 <_ZN9allow_pin12full_dynamic17unshare_if_shared17h1c062ce130e7e9d8E>
   21990:	b01f      	add	sp, #124	@ 0x7c
   21992:	bdf0      	pop	{r4, r5, r6, r7, pc}
   21994:	a804      	add	r0, sp, #16
   21996:	f004 ffbd 	bl	26914 <_ZN9allow_pin12full_dynamic17unshare_if_shared17h1c062ce130e7e9d8E>
   2199a:	ac12      	add	r4, sp, #72	@ 0x48
   2199c:	4620      	mov	r0, r4
   2199e:	f004 ffb9 	bl	26914 <_ZN9allow_pin12full_dynamic17unshare_if_shared17h1c062ce130e7e9d8E>
   219a2:	4620      	mov	r0, r4
   219a4:	f004 ffb6 	bl	26914 <_ZN9allow_pin12full_dynamic17unshare_if_shared17h1c062ce130e7e9d8E>
   219a8:	9c03      	ldr	r4, [sp, #12]
   219aa:	1c60      	adds	r0, r4, #1
   219ac:	2225      	movs	r2, #37	@ 0x25
   219ae:	9901      	ldr	r1, [sp, #4]
   219b0:	f005 f971 	bl	26c96 <__aeabi_memcpy>
   219b4:	e7e5      	b.n	21982 <_ZN20complex_full_dynamic3app17h5b0abc5e7fb54a21E+0x6a>
   219b6:	46c0      	nop			@ (mov r8, r8)
   219b8:	0000077f 	.word	0x0000077f

000219bc <_ZN20complex_full_dynamic3app17h5b2412d08d08f236E>:
   219bc:	b5f0      	push	{r4, r5, r6, r7, lr}
   219be:	af03      	add	r7, sp, #12
   219c0:	b0a7      	sub	sp, #156	@ 0x9c
   219c2:	9003      	str	r0, [sp, #12]
   219c4:	ae04      	add	r6, sp, #16
   219c6:	2502      	movs	r5, #2
   219c8:	7235      	strb	r5, [r6, #8]
   219ca:	4630      	mov	r0, r6
   219cc:	300c      	adds	r0, #12
   219ce:	2248      	movs	r2, #72	@ 0x48
   219d0:	9202      	str	r2, [sp, #8]
   219d2:	f005 f960 	bl	26c96 <__aeabi_memcpy>
   219d6:	ac19      	add	r4, sp, #100	@ 0x64
   219d8:	4620      	mov	r0, r4
   219da:	300c      	adds	r0, #12
   219dc:	2129      	movs	r1, #41	@ 0x29
   219de:	9001      	str	r0, [sp, #4]
   219e0:	f004 ffac 	bl	2693c <__aeabi_memclr4>
   219e4:	7225      	strb	r5, [r4, #8]
   219e6:	2003      	movs	r0, #3
   219e8:	9000      	str	r0, [sp, #0]
   219ea:	2504      	movs	r5, #4
   219ec:	4c1b      	ldr	r4, [pc, #108]	@ (21a5c <_ZN20complex_full_dynamic3app17h5b2412d08d08f236E+0xa0>)
   219ee:	4630      	mov	r0, r6
   219f0:	9902      	ldr	r1, [sp, #8]
   219f2:	462a      	mov	r2, r5
   219f4:	4623      	mov	r3, r4
   219f6:	f7fe fb75 	bl	200e4 <_ZN9allow_pin12full_dynamic15Buffer$LT$B$GT$5allow17h4466d99fb2bc5668E>
   219fa:	07c0      	lsls	r0, r0, #31
   219fc:	d110      	bne.n	21a20 <_ZN20complex_full_dynamic3app17h5b2412d08d08f236E+0x64>
   219fe:	9500      	str	r5, [sp, #0]
   21a00:	a819      	add	r0, sp, #100	@ 0x64
   21a02:	2129      	movs	r1, #41	@ 0x29
   21a04:	2203      	movs	r2, #3
   21a06:	4623      	mov	r3, r4
   21a08:	f7fe fb6c 	bl	200e4 <_ZN9allow_pin12full_dynamic15Buffer$LT$B$GT$5allow17h4466d99fb2bc5668E>
   21a0c:	07c0      	lsls	r0, r0, #31
   21a0e:	d107      	bne.n	21a20 <_ZN20complex_full_dynamic3app17h5b2412d08d08f236E+0x64>
   21a10:	4812      	ldr	r0, [pc, #72]	@ (21a5c <_ZN20complex_full_dynamic3app17h5b2412d08d08f236E+0xa0>)
   21a12:	2103      	movs	r1, #3
   21a14:	2204      	movs	r2, #4
   21a16:	2600      	movs	r6, #0
   21a18:	4633      	mov	r3, r6
   21a1a:	df02      	svc	2
   21a1c:	287f      	cmp	r0, #127	@ 0x7f
   21a1e:	d80b      	bhi.n	21a38 <_ZN20complex_full_dynamic3app17h5b2412d08d08f236E+0x7c>
   21a20:	9c03      	ldr	r4, [sp, #12]
   21a22:	6061      	str	r1, [r4, #4]
   21a24:	2601      	movs	r6, #1
   21a26:	7026      	strb	r6, [r4, #0]
   21a28:	a819      	add	r0, sp, #100	@ 0x64
   21a2a:	f004 ff73 	bl	26914 <_ZN9allow_pin12full_dynamic17unshare_if_shared17h1c062ce130e7e9d8E>
   21a2e:	a804      	add	r0, sp, #16
   21a30:	f004 ff70 	bl	26914 <_ZN9allow_pin12full_dynamic17unshare_if_shared17h1c062ce130e7e9d8E>
   21a34:	b027      	add	sp, #156	@ 0x9c
   21a36:	bdf0      	pop	{r4, r5, r6, r7, pc}
   21a38:	a804      	add	r0, sp, #16
   21a3a:	f004 ff6b 	bl	26914 <_ZN9allow_pin12full_dynamic17unshare_if_shared17h1c062ce130e7e9d8E>
   21a3e:	ac19      	add	r4, sp, #100	@ 0x64
   21a40:	4620      	mov	r0, r4
   21a42:	f004 ff67 	bl	26914 <_ZN9allow_pin12full_dynamic17unshare_if_shared17h1c062ce130e7e9d8E>
   21a46:	4620      	mov	r0, r4
   21a48:	f004 ff64 	bl	26914 <_ZN9allow_pin12full_dynamic17unshare_if_shared17h1c062ce130e7e9d8E>
   21a4c:	9c03      	ldr	r4, [sp, #12]
   21a4e:	1c60      	adds	r0, r4, #1
   21a50:	2229      	movs	r2, #41	@ 0x29
   21a52:	9901      	ldr	r1, [sp, #4]
   21a54:	f005 f91f 	bl	26c96 <__aeabi_memcpy>
   21a58:	e7e5      	b.n	21a26 <_ZN20complex_full_dynamic3app17h5b2412d08d08f236E+0x6a>
   21a5a:	46c0      	nop			@ (mov r8, r8)
   21a5c:	000026a4 	.word	0x000026a4

00021a60 <_ZN20complex_full_dynamic3app17h6018571d7e8bed56E>:
   21a60:	b5f0      	push	{r4, r5, r6, r7, lr}
   21a62:	af03      	add	r7, sp, #12
   21a64:	b0a7      	sub	sp, #156	@ 0x9c
   21a66:	9003      	str	r0, [sp, #12]
   21a68:	ae04      	add	r6, sp, #16
   21a6a:	2402      	movs	r4, #2
   21a6c:	7234      	strb	r4, [r6, #8]
   21a6e:	4630      	mov	r0, r6
   21a70:	300c      	adds	r0, #12
   21a72:	225d      	movs	r2, #93	@ 0x5d
   21a74:	9202      	str	r2, [sp, #8]
   21a76:	f005 f90e 	bl	26c96 <__aeabi_memcpy>
   21a7a:	ad1f      	add	r5, sp, #124	@ 0x7c
   21a7c:	4628      	mov	r0, r5
   21a7e:	300c      	adds	r0, #12
   21a80:	2112      	movs	r1, #18
   21a82:	9001      	str	r0, [sp, #4]
   21a84:	f004 ff5a 	bl	2693c <__aeabi_memclr4>
   21a88:	722c      	strb	r4, [r5, #8]
   21a8a:	2000      	movs	r0, #0
   21a8c:	9000      	str	r0, [sp, #0]
   21a8e:	2204      	movs	r2, #4
   21a90:	4d1a      	ldr	r5, [pc, #104]	@ (21afc <_ZN20complex_full_dynamic3app17h6018571d7e8bed56E+0x9c>)
   21a92:	4630      	mov	r0, r6
   21a94:	9902      	ldr	r1, [sp, #8]
   21a96:	462b      	mov	r3, r5
   21a98:	f7fe fb24 	bl	200e4 <_ZN9allow_pin12full_dynamic15Buffer$LT$B$GT$5allow17h4466d99fb2bc5668E>
   21a9c:	07c0      	lsls	r0, r0, #31
   21a9e:	d110      	bne.n	21ac2 <_ZN20complex_full_dynamic3app17h6018571d7e8bed56E+0x62>
   21aa0:	9400      	str	r4, [sp, #0]
   21aa2:	a81f      	add	r0, sp, #124	@ 0x7c
   21aa4:	2112      	movs	r1, #18
   21aa6:	2203      	movs	r2, #3
   21aa8:	462b      	mov	r3, r5
   21aaa:	f7fe fb1b 	bl	200e4 <_ZN9allow_pin12full_dynamic15Buffer$LT$B$GT$5allow17h4466d99fb2bc5668E>
   21aae:	07c0      	lsls	r0, r0, #31
   21ab0:	d107      	bne.n	21ac2 <_ZN20complex_full_dynamic3app17h6018571d7e8bed56E+0x62>
   21ab2:	4812      	ldr	r0, [pc, #72]	@ (21afc <_ZN20complex_full_dynamic3app17h6018571d7e8bed56E+0x9c>)
   21ab4:	2202      	movs	r2, #2
   21ab6:	2600      	movs	r6, #0
   21ab8:	4631      	mov	r1, r6
   21aba:	4633      	mov	r3, r6
   21abc:	df02      	svc	2
   21abe:	287f      	cmp	r0, #127	@ 0x7f
   21ac0:	d80b      	bhi.n	21ada <_ZN20complex_full_dynamic3app17h6018571d7e8bed56E+0x7a>
   21ac2:	9c03      	ldr	r4, [sp, #12]
   21ac4:	6061      	str	r1, [r4, #4]
   21ac6:	2601      	movs	r6, #1
   21ac8:	7026      	strb	r6, [r4, #0]
   21aca:	a81f      	add	r0, sp, #124	@ 0x7c
   21acc:	f004 ff22 	bl	26914 <_ZN9allow_pin12full_dynamic17unshare_if_shared17h1c062ce130e7e9d8E>
   21ad0:	a804      	add	r0, sp, #16
   21ad2:	f004 ff1f 	bl	26914 <_ZN9allow_pin12full_dynamic17unshare_if_shared17h1c062ce130e7e9d8E>
   21ad6:	b027      	add	sp, #156	@ 0x9c
   21ad8:	bdf0      	pop	{r4, r5, r6, r7, pc}
   21ada:	a804      	add	r0, sp, #16
   21adc:	f004 ff1a 	bl	26914 <_ZN9allow_pin12full_dynamic17unshare_if_shared17h1c062ce130e7e9d8E>
   21ae0:	ac1f      	add	r4, sp, #124	@ 0x7c
   21ae2:	4620      	mov	r0, r4
   21ae4:	f004 ff16 	bl	26914 <_ZN9allow_pin12full_dynamic17unshare_if_shared17h1c062ce130e7e9d8E>
   21ae8:	4620      	mov	r0, r4
   21aea:	f004 ff13 	bl	26914 <_ZN9allow_pin12full_dynamic17unshare_if_shared17h1c062ce130e7e9d8E>
   21aee:	9c03      	ldr	r4, [sp, #12]
   21af0:	1c60      	adds	r0, r4, #1
   21af2:	2212      	movs	r2, #18
   21af4:	9901      	ldr	r1, [sp, #4]
   21af6:	f005 f8ce 	bl	26c96 <__aeabi_memcpy>
   21afa:	e7e5      	b.n	21ac8 <_ZN20complex_full_dynamic3app17h6018571d7e8bed56E+0x68>
   21afc:	000015f1 	.word	0x000015f1

00021b00 <_ZN20complex_full_dynamic3app17h61c014e65865fb20E>:
   21b00:	b5f0      	push	{r4, r5, r6, r7, lr}
   21b02:	af03      	add	r7, sp, #12
   21b04:	b093      	sub	sp, #76	@ 0x4c
   21b06:	9003      	str	r0, [sp, #12]
   21b08:	ae04      	add	r6, sp, #16
   21b0a:	2502      	movs	r5, #2
   21b0c:	7235      	strb	r5, [r6, #8]
   21b0e:	4630      	mov	r0, r6
   21b10:	300c      	adds	r0, #12
   21b12:	220f      	movs	r2, #15
   21b14:	9202      	str	r2, [sp, #8]
   21b16:	f005 f8be 	bl	26c96 <__aeabi_memcpy>
   21b1a:	ac0b      	add	r4, sp, #44	@ 0x2c
   21b1c:	4620      	mov	r0, r4
   21b1e:	300c      	adds	r0, #12
   21b20:	2113      	movs	r1, #19
   21b22:	9001      	str	r0, [sp, #4]
   21b24:	f004 ff0a 	bl	2693c <__aeabi_memclr4>
   21b28:	7225      	strb	r5, [r4, #8]
   21b2a:	2003      	movs	r0, #3
   21b2c:	9000      	str	r0, [sp, #0]
   21b2e:	2204      	movs	r2, #4
   21b30:	4c1b      	ldr	r4, [pc, #108]	@ (21ba0 <_ZN20complex_full_dynamic3app17h61c014e65865fb20E+0xa0>)
   21b32:	4630      	mov	r0, r6
   21b34:	9902      	ldr	r1, [sp, #8]
   21b36:	4623      	mov	r3, r4
   21b38:	f7fe fad4 	bl	200e4 <_ZN9allow_pin12full_dynamic15Buffer$LT$B$GT$5allow17h4466d99fb2bc5668E>
   21b3c:	07c0      	lsls	r0, r0, #31
   21b3e:	d111      	bne.n	21b64 <_ZN20complex_full_dynamic3app17h61c014e65865fb20E+0x64>
   21b40:	2000      	movs	r0, #0
   21b42:	9000      	str	r0, [sp, #0]
   21b44:	a80b      	add	r0, sp, #44	@ 0x2c
   21b46:	2113      	movs	r1, #19
   21b48:	2203      	movs	r2, #3
   21b4a:	4623      	mov	r3, r4
   21b4c:	f7fe faca 	bl	200e4 <_ZN9allow_pin12full_dynamic15Buffer$LT$B$GT$5allow17h4466d99fb2bc5668E>
   21b50:	07c0      	lsls	r0, r0, #31
   21b52:	d107      	bne.n	21b64 <_ZN20complex_full_dynamic3app17h61c014e65865fb20E+0x64>
   21b54:	4812      	ldr	r0, [pc, #72]	@ (21ba0 <_ZN20complex_full_dynamic3app17h61c014e65865fb20E+0xa0>)
   21b56:	2103      	movs	r1, #3
   21b58:	2600      	movs	r6, #0
   21b5a:	4632      	mov	r2, r6
   21b5c:	4633      	mov	r3, r6
   21b5e:	df02      	svc	2
   21b60:	287f      	cmp	r0, #127	@ 0x7f
   21b62:	d80b      	bhi.n	21b7c <_ZN20complex_full_dynamic3app17h61c014e65865fb20E+0x7c>
   21b64:	9c03      	ldr	r4, [sp, #12]
   21b66:	6061      	str	r1, [r4, #4]
   21b68:	2601      	movs	r6, #1
   21b6a:	7026      	strb	r6, [r4, #0]
   21b6c:	a80b      	add	r0, sp, #44	@ 0x2c
   21b6e:	f004 fed1 	bl	26914 <_ZN9allow_pin12full_dynamic17unshare_if_shared17h1c062ce130e7e9d8E>
   21b72:	a804      	add	r0, sp, #16
   21b74:	f004 fece 	bl	26914 <_ZN9allow_pin12full_dynamic17unshare_if_shared17h1c062ce130e7e9d8E>
   21b78:	b013      	add	sp, #76	@ 0x4c
   21b7a:	bdf0      	pop	{r4, r5, r6, r7, pc}
   21b7c:	a804      	add	r0, sp, #16
   21b7e:	f004 fec9 	bl	26914 <_ZN9allow_pin12full_dynamic17unshare_if_shared17h1c062ce130e7e9d8E>
   21b82:	ac0b      	add	r4, sp, #44	@ 0x2c
   21b84:	4620      	mov	r0, r4
   21b86:	f004 fec5 	bl	26914 <_ZN9allow_pin12full_dynamic17unshare_if_shared17h1c062ce130e7e9d8E>
   21b8a:	4620      	mov	r0, r4
   21b8c:	f004 fec2 	bl	26914 <_ZN9allow_pin12full_dynamic17unshare_if_shared17h1c062ce130e7e9d8E>
   21b90:	9c03      	ldr	r4, [sp, #12]
   21b92:	1c60      	adds	r0, r4, #1
   21b94:	2213      	movs	r2, #19
   21b96:	9901      	ldr	r1, [sp, #4]
   21b98:	f005 f87d 	bl	26c96 <__aeabi_memcpy>
   21b9c:	e7e5      	b.n	21b6a <_ZN20complex_full_dynamic3app17h61c014e65865fb20E+0x6a>
   21b9e:	46c0      	nop			@ (mov r8, r8)
   21ba0:	00001e4b 	.word	0x00001e4b

00021ba4 <_ZN20complex_full_dynamic3app17h65c15d20a6078d4aE>:
   21ba4:	b5f0      	push	{r4, r5, r6, r7, lr}
   21ba6:	af03      	add	r7, sp, #12
   21ba8:	b0a1      	sub	sp, #132	@ 0x84
   21baa:	9003      	str	r0, [sp, #12]
   21bac:	ae04      	add	r6, sp, #16
   21bae:	2502      	movs	r5, #2
   21bb0:	7235      	strb	r5, [r6, #8]
   21bb2:	4630      	mov	r0, r6
   21bb4:	300c      	adds	r0, #12
   21bb6:	2241      	movs	r2, #65	@ 0x41
   21bb8:	9202      	str	r2, [sp, #8]
   21bba:	f005 f86c 	bl	26c96 <__aeabi_memcpy>
   21bbe:	ac18      	add	r4, sp, #96	@ 0x60
   21bc0:	4620      	mov	r0, r4
   21bc2:	300c      	adds	r0, #12
   21bc4:	2118      	movs	r1, #24
   21bc6:	9001      	str	r0, [sp, #4]
   21bc8:	f004 feb8 	bl	2693c <__aeabi_memclr4>
   21bcc:	7225      	strb	r5, [r4, #8]
   21bce:	2501      	movs	r5, #1
   21bd0:	9500      	str	r5, [sp, #0]
   21bd2:	2204      	movs	r2, #4
   21bd4:	4c1b      	ldr	r4, [pc, #108]	@ (21c44 <_ZN20complex_full_dynamic3app17h65c15d20a6078d4aE+0xa0>)
   21bd6:	4630      	mov	r0, r6
   21bd8:	9902      	ldr	r1, [sp, #8]
   21bda:	4623      	mov	r3, r4
   21bdc:	f7fe fa82 	bl	200e4 <_ZN9allow_pin12full_dynamic15Buffer$LT$B$GT$5allow17h4466d99fb2bc5668E>
   21be0:	07c0      	lsls	r0, r0, #31
   21be2:	d111      	bne.n	21c08 <_ZN20complex_full_dynamic3app17h65c15d20a6078d4aE+0x64>
   21be4:	2009      	movs	r0, #9
   21be6:	9000      	str	r0, [sp, #0]
   21be8:	a818      	add	r0, sp, #96	@ 0x60
   21bea:	2118      	movs	r1, #24
   21bec:	2203      	movs	r2, #3
   21bee:	4623      	mov	r3, r4
   21bf0:	f7fe fa78 	bl	200e4 <_ZN9allow_pin12full_dynamic15Buffer$LT$B$GT$5allow17h4466d99fb2bc5668E>
   21bf4:	07c0      	lsls	r0, r0, #31
   21bf6:	d107      	bne.n	21c08 <_ZN20complex_full_dynamic3app17h65c15d20a6078d4aE+0x64>
   21bf8:	4812      	ldr	r0, [pc, #72]	@ (21c44 <_ZN20complex_full_dynamic3app17h65c15d20a6078d4aE+0xa0>)
   21bfa:	2101      	movs	r1, #1
   21bfc:	2209      	movs	r2, #9
   21bfe:	2600      	movs	r6, #0
   21c00:	4633      	mov	r3, r6
   21c02:	df02      	svc	2
   21c04:	287f      	cmp	r0, #127	@ 0x7f
   21c06:	d80a      	bhi.n	21c1e <_ZN20complex_full_dynamic3app17h65c15d20a6078d4aE+0x7a>
   21c08:	9c03      	ldr	r4, [sp, #12]
   21c0a:	6061      	str	r1, [r4, #4]
   21c0c:	7025      	strb	r5, [r4, #0]
   21c0e:	a818      	add	r0, sp, #96	@ 0x60
   21c10:	f004 fe80 	bl	26914 <_ZN9allow_pin12full_dynamic17unshare_if_shared17h1c062ce130e7e9d8E>
   21c14:	a804      	add	r0, sp, #16
   21c16:	f004 fe7d 	bl	26914 <_ZN9allow_pin12full_dynamic17unshare_if_shared17h1c062ce130e7e9d8E>
   21c1a:	b021      	add	sp, #132	@ 0x84
   21c1c:	bdf0      	pop	{r4, r5, r6, r7, pc}
   21c1e:	a804      	add	r0, sp, #16
   21c20:	f004 fe78 	bl	26914 <_ZN9allow_pin12full_dynamic17unshare_if_shared17h1c062ce130e7e9d8E>
   21c24:	ac18      	add	r4, sp, #96	@ 0x60
   21c26:	4620      	mov	r0, r4
   21c28:	f004 fe74 	bl	26914 <_ZN9allow_pin12full_dynamic17unshare_if_shared17h1c062ce130e7e9d8E>
   21c2c:	4620      	mov	r0, r4
   21c2e:	f004 fe71 	bl	26914 <_ZN9allow_pin12full_dynamic17unshare_if_shared17h1c062ce130e7e9d8E>
   21c32:	9c03      	ldr	r4, [sp, #12]
   21c34:	1c60      	adds	r0, r4, #1
   21c36:	2218      	movs	r2, #24
   21c38:	9901      	ldr	r1, [sp, #4]
   21c3a:	f005 f82c 	bl	26c96 <__aeabi_memcpy>
   21c3e:	4635      	mov	r5, r6
   21c40:	e7e4      	b.n	21c0c <_ZN20complex_full_dynamic3app17h65c15d20a6078d4aE+0x68>
   21c42:	46c0      	nop			@ (mov r8, r8)
   21c44:	00002156 	.word	0x00002156

00021c48 <_ZN20complex_full_dynamic3app17h671710099d58bfa7E>:
   21c48:	b5f0      	push	{r4, r5, r6, r7, lr}
   21c4a:	af03      	add	r7, sp, #12
   21c4c:	b0a9      	sub	sp, #164	@ 0xa4
   21c4e:	9003      	str	r0, [sp, #12]
   21c50:	ae04      	add	r6, sp, #16
   21c52:	2502      	movs	r5, #2
   21c54:	7235      	strb	r5, [r6, #8]
   21c56:	4630      	mov	r0, r6
   21c58:	300c      	adds	r0, #12
   21c5a:	2231      	movs	r2, #49	@ 0x31
   21c5c:	9202      	str	r2, [sp, #8]
   21c5e:	f005 f81a 	bl	26c96 <__aeabi_memcpy>
   21c62:	ac14      	add	r4, sp, #80	@ 0x50
   21c64:	4620      	mov	r0, r4
   21c66:	300c      	adds	r0, #12
   21c68:	2148      	movs	r1, #72	@ 0x48
   21c6a:	9001      	str	r0, [sp, #4]
   21c6c:	f004 fe66 	bl	2693c <__aeabi_memclr4>
   21c70:	7225      	strb	r5, [r4, #8]
   21c72:	2204      	movs	r2, #4
   21c74:	9200      	str	r2, [sp, #0]
   21c76:	4c1b      	ldr	r4, [pc, #108]	@ (21ce4 <_ZN20complex_full_dynamic3app17h671710099d58bfa7E+0x9c>)
   21c78:	4630      	mov	r0, r6
   21c7a:	9902      	ldr	r1, [sp, #8]
   21c7c:	4623      	mov	r3, r4
   21c7e:	f7fe fa31 	bl	200e4 <_ZN9allow_pin12full_dynamic15Buffer$LT$B$GT$5allow17h4466d99fb2bc5668E>
   21c82:	07c0      	lsls	r0, r0, #31
   21c84:	d110      	bne.n	21ca8 <_ZN20complex_full_dynamic3app17h671710099d58bfa7E+0x60>
   21c86:	2203      	movs	r2, #3
   21c88:	9200      	str	r2, [sp, #0]
   21c8a:	a814      	add	r0, sp, #80	@ 0x50
   21c8c:	2148      	movs	r1, #72	@ 0x48
   21c8e:	4623      	mov	r3, r4
   21c90:	f7fe fa28 	bl	200e4 <_ZN9allow_pin12full_dynamic15Buffer$LT$B$GT$5allow17h4466d99fb2bc5668E>
   21c94:	07c0      	lsls	r0, r0, #31
   21c96:	d107      	bne.n	21ca8 <_ZN20complex_full_dynamic3app17h671710099d58bfa7E+0x60>
   21c98:	4812      	ldr	r0, [pc, #72]	@ (21ce4 <_ZN20complex_full_dynamic3app17h671710099d58bfa7E+0x9c>)
   21c9a:	2104      	movs	r1, #4
   21c9c:	2203      	movs	r2, #3
   21c9e:	2600      	movs	r6, #0
   21ca0:	4633      	mov	r3, r6
   21ca2:	df02      	svc	2
   21ca4:	287f      	cmp	r0, #127	@ 0x7f
   21ca6:	d80b      	bhi.n	21cc0 <_ZN20complex_full_dynamic3app17h671710099d58bfa7E+0x78>
   21ca8:	9c03      	ldr	r4, [sp, #12]
   21caa:	6061      	str	r1, [r4, #4]
   21cac:	2601      	movs	r6, #1
   21cae:	7026      	strb	r6, [r4, #0]
   21cb0:	a814      	add	r0, sp, #80	@ 0x50
   21cb2:	f004 fe2f 	bl	26914 <_ZN9allow_pin12full_dynamic17unshare_if_shared17h1c062ce130e7e9d8E>
   21cb6:	a804      	add	r0, sp, #16
   21cb8:	f004 fe2c 	bl	26914 <_ZN9allow_pin12full_dynamic17unshare_if_shared17h1c062ce130e7e9d8E>
   21cbc:	b029      	add	sp, #164	@ 0xa4
   21cbe:	bdf0      	pop	{r4, r5, r6, r7, pc}
   21cc0:	a804      	add	r0, sp, #16
   21cc2:	f004 fe27 	bl	26914 <_ZN9allow_pin12full_dynamic17unshare_if_shared17h1c062ce130e7e9d8E>
   21cc6:	ac14      	add	r4, sp, #80	@ 0x50
   21cc8:	4620      	mov	r0, r4
   21cca:	f004 fe23 	bl	26914 <_ZN9allow_pin12full_dynamic17unshare_if_shared17h1c062ce130e7e9d8E>
   21cce:	4620      	mov	r0, r4
   21cd0:	f004 fe20 	bl	26914 <_ZN9allow_pin12full_dynamic17unshare_if_shared17h1c062ce130e7e9d8E>
   21cd4:	9c03      	ldr	r4, [sp, #12]
   21cd6:	1c60      	adds	r0, r4, #1
   21cd8:	2248      	movs	r2, #72	@ 0x48
   21cda:	9901      	ldr	r1, [sp, #4]
   21cdc:	f004 ffdb 	bl	26c96 <__aeabi_memcpy>
   21ce0:	e7e5      	b.n	21cae <_ZN20complex_full_dynamic3app17h671710099d58bfa7E+0x66>
   21ce2:	46c0      	nop			@ (mov r8, r8)
   21ce4:	0000180e 	.word	0x0000180e

00021ce8 <_ZN20complex_full_dynamic3app17h68783f0f9cb75bfaE>:
   21ce8:	b5f0      	push	{r4, r5, r6, r7, lr}
   21cea:	af03      	add	r7, sp, #12
   21cec:	b09b      	sub	sp, #108	@ 0x6c
   21cee:	9003      	str	r0, [sp, #12]
   21cf0:	ae04      	add	r6, sp, #16
   21cf2:	2502      	movs	r5, #2
   21cf4:	7235      	strb	r5, [r6, #8]
   21cf6:	4630      	mov	r0, r6
   21cf8:	300c      	adds	r0, #12
   21cfa:	221e      	movs	r2, #30
   21cfc:	9202      	str	r2, [sp, #8]
   21cfe:	f004 ffca 	bl	26c96 <__aeabi_memcpy>
   21d02:	ac0f      	add	r4, sp, #60	@ 0x3c
   21d04:	4620      	mov	r0, r4
   21d06:	300c      	adds	r0, #12
   21d08:	2121      	movs	r1, #33	@ 0x21
   21d0a:	9001      	str	r0, [sp, #4]
   21d0c:	f004 fe16 	bl	2693c <__aeabi_memclr4>
   21d10:	7225      	strb	r5, [r4, #8]
   21d12:	2006      	movs	r0, #6
   21d14:	9000      	str	r0, [sp, #0]
   21d16:	2204      	movs	r2, #4
   21d18:	4c1b      	ldr	r4, [pc, #108]	@ (21d88 <_ZN20complex_full_dynamic3app17h68783f0f9cb75bfaE+0xa0>)
   21d1a:	4630      	mov	r0, r6
   21d1c:	9902      	ldr	r1, [sp, #8]
   21d1e:	4623      	mov	r3, r4
   21d20:	f7fe f9e0 	bl	200e4 <_ZN9allow_pin12full_dynamic15Buffer$LT$B$GT$5allow17h4466d99fb2bc5668E>
   21d24:	07c0      	lsls	r0, r0, #31
   21d26:	d111      	bne.n	21d4c <_ZN20complex_full_dynamic3app17h68783f0f9cb75bfaE+0x64>
   21d28:	2009      	movs	r0, #9
   21d2a:	9000      	str	r0, [sp, #0]
   21d2c:	a80f      	add	r0, sp, #60	@ 0x3c
   21d2e:	2121      	movs	r1, #33	@ 0x21
   21d30:	2203      	movs	r2, #3
   21d32:	4623      	mov	r3, r4
   21d34:	f7fe f9d6 	bl	200e4 <_ZN9allow_pin12full_dynamic15Buffer$LT$B$GT$5allow17h4466d99fb2bc5668E>
   21d38:	07c0      	lsls	r0, r0, #31
   21d3a:	d107      	bne.n	21d4c <_ZN20complex_full_dynamic3app17h68783f0f9cb75bfaE+0x64>
   21d3c:	4812      	ldr	r0, [pc, #72]	@ (21d88 <_ZN20complex_full_dynamic3app17h68783f0f9cb75bfaE+0xa0>)
   21d3e:	2106      	movs	r1, #6
   21d40:	2209      	movs	r2, #9
   21d42:	2600      	movs	r6, #0
   21d44:	4633      	mov	r3, r6
   21d46:	df02      	svc	2
   21d48:	287f      	cmp	r0, #127	@ 0x7f
   21d4a:	d80b      	bhi.n	21d64 <_ZN20complex_full_dynamic3app17h68783f0f9cb75bfaE+0x7c>
   21d4c:	9c03      	ldr	r4, [sp, #12]
   21d4e:	6061      	str	r1, [r4, #4]
   21d50:	2601      	movs	r6, #1
   21d52:	7026      	strb	r6, [r4, #0]
   21d54:	a80f      	add	r0, sp, #60	@ 0x3c
   21d56:	f004 fddd 	bl	26914 <_ZN9allow_pin12full_dynamic17unshare_if_shared17h1c062ce130e7e9d8E>
   21d5a:	a804      	add	r0, sp, #16
   21d5c:	f004 fdda 	bl	26914 <_ZN9allow_pin12full_dynamic17unshare_if_shared17h1c062ce130e7e9d8E>
   21d60:	b01b      	add	sp, #108	@ 0x6c
   21d62:	bdf0      	pop	{r4, r5, r6, r7, pc}
   21d64:	a804      	add	r0, sp, #16
   21d66:	f004 fdd5 	bl	26914 <_ZN9allow_pin12full_dynamic17unshare_if_shared17h1c062ce130e7e9d8E>
   21d6a:	ac0f      	add	r4, sp, #60	@ 0x3c
   21d6c:	4620      	mov	r0, r4
   21d6e:	f004 fdd1 	bl	26914 <_ZN9allow_pin12full_dynamic17unshare_if_shared17h1c062ce130e7e9d8E>
   21d72:	4620      	mov	r0, r4
   21d74:	f004 fdce 	bl	26914 <_ZN9allow_pin12full_dynamic17unshare_if_shared17h1c062ce130e7e9d8E>
   21d78:	9c03      	ldr	r4, [sp, #12]
   21d7a:	1c60      	adds	r0, r4, #1
   21d7c:	2221      	movs	r2, #33	@ 0x21
   21d7e:	9901      	ldr	r1, [sp, #4]
   21d80:	f004 ff89 	bl	26c96 <__aeabi_memcpy>
   21d84:	e7e5      	b.n	21d52 <_ZN20complex_full_dynamic3app17h68783f0f9cb75bfaE+0x6a>
   21d86:	46c0      	nop			@ (mov r8, r8)
   21d88:	000019b5 	.word	0x000019b5

00021d8c <_ZN20complex_full_dynamic3app17h6a3b105a9ca67b44E>:
   21d8c:	b5f0      	push	{r4, r5, r6, r7, lr}
   21d8e:	af03      	add	r7, sp, #12
   21d90:	b0ad      	sub	sp, #180	@ 0xb4
   21d92:	9003      	str	r0, [sp, #12]
   21d94:	ae04      	add	r6, sp, #16
   21d96:	2502      	movs	r5, #2
   21d98:	7235      	strb	r5, [r6, #8]
   21d9a:	4630      	mov	r0, r6
   21d9c:	300c      	adds	r0, #12
   21d9e:	224f      	movs	r2, #79	@ 0x4f
   21da0:	9202      	str	r2, [sp, #8]
   21da2:	f004 ff78 	bl	26c96 <__aeabi_memcpy>
   21da6:	ac1b      	add	r4, sp, #108	@ 0x6c
   21da8:	4620      	mov	r0, r4
   21daa:	300c      	adds	r0, #12
   21dac:	213b      	movs	r1, #59	@ 0x3b
   21dae:	9001      	str	r0, [sp, #4]
   21db0:	f004 fdc4 	bl	2693c <__aeabi_memclr4>
   21db4:	7225      	strb	r5, [r4, #8]
   21db6:	2008      	movs	r0, #8
   21db8:	9000      	str	r0, [sp, #0]
   21dba:	2204      	movs	r2, #4
   21dbc:	4c1b      	ldr	r4, [pc, #108]	@ (21e2c <_ZN20complex_full_dynamic3app17h6a3b105a9ca67b44E+0xa0>)
   21dbe:	4630      	mov	r0, r6
   21dc0:	9902      	ldr	r1, [sp, #8]
   21dc2:	4623      	mov	r3, r4
   21dc4:	f7fe f98e 	bl	200e4 <_ZN9allow_pin12full_dynamic15Buffer$LT$B$GT$5allow17h4466d99fb2bc5668E>
   21dc8:	07c0      	lsls	r0, r0, #31
   21dca:	d111      	bne.n	21df0 <_ZN20complex_full_dynamic3app17h6a3b105a9ca67b44E+0x64>
   21dcc:	2005      	movs	r0, #5
   21dce:	9000      	str	r0, [sp, #0]
   21dd0:	a81b      	add	r0, sp, #108	@ 0x6c
   21dd2:	213b      	movs	r1, #59	@ 0x3b
   21dd4:	2203      	movs	r2, #3
   21dd6:	4623      	mov	r3, r4
   21dd8:	f7fe f984 	bl	200e4 <_ZN9allow_pin12full_dynamic15Buffer$LT$B$GT$5allow17h4466d99fb2bc5668E>
   21ddc:	07c0      	lsls	r0, r0, #31
   21dde:	d107      	bne.n	21df0 <_ZN20complex_full_dynamic3app17h6a3b105a9ca67b44E+0x64>
   21de0:	4812      	ldr	r0, [pc, #72]	@ (21e2c <_ZN20complex_full_dynamic3app17h6a3b105a9ca67b44E+0xa0>)
   21de2:	2108      	movs	r1, #8
   21de4:	2205      	movs	r2, #5
   21de6:	2600      	movs	r6, #0
   21de8:	4633      	mov	r3, r6
   21dea:	df02      	svc	2
   21dec:	287f      	cmp	r0, #127	@ 0x7f
   21dee:	d80b      	bhi.n	21e08 <_ZN20complex_full_dynamic3app17h6a3b105a9ca67b44E+0x7c>
   21df0:	9c03      	ldr	r4, [sp, #12]
   21df2:	6061      	str	r1, [r4, #4]
   21df4:	2601      	movs	r6, #1
   21df6:	7026      	strb	r6, [r4, #0]
   21df8:	a81b      	add	r0, sp, #108	@ 0x6c
   21dfa:	f004 fd8b 	bl	26914 <_ZN9allow_pin12full_dynamic17unshare_if_shared17h1c062ce130e7e9d8E>
   21dfe:	a804      	add	r0, sp, #16
   21e00:	f004 fd88 	bl	26914 <_ZN9allow_pin12full_dynamic17unshare_if_shared17h1c062ce130e7e9d8E>
   21e04:	b02d      	add	sp, #180	@ 0xb4
   21e06:	bdf0      	pop	{r4, r5, r6, r7, pc}
   21e08:	a804      	add	r0, sp, #16
   21e0a:	f004 fd83 	bl	26914 <_ZN9allow_pin12full_dynamic17unshare_if_shared17h1c062ce130e7e9d8E>
   21e0e:	ac1b      	add	r4, sp, #108	@ 0x6c
   21e10:	4620      	mov	r0, r4
   21e12:	f004 fd7f 	bl	26914 <_ZN9allow_pin12full_dynamic17unshare_if_shared17h1c062ce130e7e9d8E>
   21e16:	4620      	mov	r0, r4
   21e18:	f004 fd7c 	bl	26914 <_ZN9allow_pin12full_dynamic17unshare_if_shared17h1c062ce130e7e9d8E>
   21e1c:	9c03      	ldr	r4, [sp, #12]
   21e1e:	1c60      	adds	r0, r4, #1
   21e20:	223b      	movs	r2, #59	@ 0x3b
   21e22:	9901      	ldr	r1, [sp, #4]
   21e24:	f004 ff37 	bl	26c96 <__aeabi_memcpy>
   21e28:	e7e5      	b.n	21df6 <_ZN20complex_full_dynamic3app17h6a3b105a9ca67b44E+0x6a>
   21e2a:	46c0      	nop			@ (mov r8, r8)
   21e2c:	00000a06 	.word	0x00000a06

00021e30 <_ZN20complex_full_dynamic3app17h715291efaef6a7f7E>:
   21e30:	b5f0      	push	{r4, r5, r6, r7, lr}
   21e32:	af03      	add	r7, sp, #12
   21e34:	b0a9      	sub	sp, #164	@ 0xa4
   21e36:	9004      	str	r0, [sp, #16]
   21e38:	ae05      	add	r6, sp, #20
   21e3a:	2502      	movs	r5, #2
   21e3c:	7235      	strb	r5, [r6, #8]
   21e3e:	4630      	mov	r0, r6
   21e40:	300c      	adds	r0, #12
   21e42:	2227      	movs	r2, #39	@ 0x27
   21e44:	9203      	str	r2, [sp, #12]
   21e46:	f004 ff26 	bl	26c96 <__aeabi_memcpy>
   21e4a:	ac12      	add	r4, sp, #72	@ 0x48
   21e4c:	4620      	mov	r0, r4
   21e4e:	300c      	adds	r0, #12
   21e50:	214f      	movs	r1, #79	@ 0x4f
   21e52:	9002      	str	r0, [sp, #8]
   21e54:	f004 fd72 	bl	2693c <__aeabi_memclr4>
   21e58:	7225      	strb	r5, [r4, #8]
   21e5a:	2009      	movs	r0, #9
   21e5c:	9000      	str	r0, [sp, #0]
   21e5e:	2204      	movs	r2, #4
   21e60:	4c1b      	ldr	r4, [pc, #108]	@ (21ed0 <_ZN20complex_full_dynamic3app17h715291efaef6a7f7E+0xa0>)
   21e62:	4630      	mov	r0, r6
   21e64:	9903      	ldr	r1, [sp, #12]
   21e66:	4623      	mov	r3, r4
   21e68:	f7fe f93c 	bl	200e4 <_ZN9allow_pin12full_dynamic15Buffer$LT$B$GT$5allow17h4466d99fb2bc5668E>
   21e6c:	07c0      	lsls	r0, r0, #31
   21e6e:	d111      	bne.n	21e94 <_ZN20complex_full_dynamic3app17h715291efaef6a7f7E+0x64>
   21e70:	2000      	movs	r0, #0
   21e72:	9000      	str	r0, [sp, #0]
   21e74:	a812      	add	r0, sp, #72	@ 0x48
   21e76:	214f      	movs	r1, #79	@ 0x4f
   21e78:	2203      	movs	r2, #3
   21e7a:	4623      	mov	r3, r4
   21e7c:	f7fe f932 	bl	200e4 <_ZN9allow_pin12full_dynamic15Buffer$LT$B$GT$5allow17h4466d99fb2bc5668E>
   21e80:	07c0      	lsls	r0, r0, #31
   21e82:	d107      	bne.n	21e94 <_ZN20complex_full_dynamic3app17h715291efaef6a7f7E+0x64>
   21e84:	4812      	ldr	r0, [pc, #72]	@ (21ed0 <_ZN20complex_full_dynamic3app17h715291efaef6a7f7E+0xa0>)
   21e86:	2109      	movs	r1, #9
   21e88:	2600      	movs	r6, #0
   21e8a:	4632      	mov	r2, r6
   21e8c:	4633      	mov	r3, r6
   21e8e:	df02      	svc	2
   21e90:	287f      	cmp	r0, #127	@ 0x7f
   21e92:	d80b      	bhi.n	21eac <_ZN20complex_full_dynamic3app17h715291efaef6a7f7E+0x7c>
   21e94:	9c04      	ldr	r4, [sp, #16]
   21e96:	6061      	str	r1, [r4, #4]
   21e98:	2601      	movs	r6, #1
   21e9a:	7026      	strb	r6, [r4, #0]
   21e9c:	a812      	add	r0, sp, #72	@ 0x48
   21e9e:	f004 fd39 	bl	26914 <_ZN9allow_pin12full_dynamic17unshare_if_shared17h1c062ce130e7e9d8E>
   21ea2:	a805      	add	r0, sp, #20
   21ea4:	f004 fd36 	bl	26914 <_ZN9allow_pin12full_dynamic17unshare_if_shared17h1c062ce130e7e9d8E>
   21ea8:	b029      	add	sp, #164	@ 0xa4
   21eaa:	bdf0      	pop	{r4, r5, r6, r7, pc}
   21eac:	a805      	add	r0, sp, #20
   21eae:	f004 fd31 	bl	26914 <_ZN9allow_pin12full_dynamic17unshare_if_shared17h1c062ce130e7e9d8E>
   21eb2:	ac12      	add	r4, sp, #72	@ 0x48
   21eb4:	4620      	mov	r0, r4
   21eb6:	f004 fd2d 	bl	26914 <_ZN9allow_pin12full_dynamic17unshare_if_shared17h1c062ce130e7e9d8E>
   21eba:	4620      	mov	r0, r4
   21ebc:	f004 fd2a 	bl	26914 <_ZN9allow_pin12full_dynamic17unshare_if_shared17h1c062ce130e7e9d8E>
   21ec0:	9c04      	ldr	r4, [sp, #16]
   21ec2:	1c60      	adds	r0, r4, #1
   21ec4:	224f      	movs	r2, #79	@ 0x4f
   21ec6:	9902      	ldr	r1, [sp, #8]
   21ec8:	f004 fee5 	bl	26c96 <__aeabi_memcpy>
   21ecc:	e7e5      	b.n	21e9a <_ZN20complex_full_dynamic3app17h715291efaef6a7f7E+0x6a>
   21ece:	46c0      	nop			@ (mov r8, r8)
   21ed0:	00000b4c 	.word	0x00000b4c

00021ed4 <_ZN20complex_full_dynamic3app17h73261716de86d898E>:
   21ed4:	b5f0      	push	{r4, r5, r6, r7, lr}
   21ed6:	af03      	add	r7, sp, #12
   21ed8:	b099      	sub	sp, #100	@ 0x64
   21eda:	9003      	str	r0, [sp, #12]
   21edc:	ae04      	add	r6, sp, #16
   21ede:	2402      	movs	r4, #2
   21ee0:	7234      	strb	r4, [r6, #8]
   21ee2:	4630      	mov	r0, r6
   21ee4:	300c      	adds	r0, #12
   21ee6:	222b      	movs	r2, #43	@ 0x2b
   21ee8:	9202      	str	r2, [sp, #8]
   21eea:	f004 fed4 	bl	26c96 <__aeabi_memcpy>
   21eee:	a812      	add	r0, sp, #72	@ 0x48
   21ef0:	2500      	movs	r5, #0
   21ef2:	7605      	strb	r5, [r0, #24]
   21ef4:	9001      	str	r0, [sp, #4]
   21ef6:	7204      	strb	r4, [r0, #8]
   21ef8:	9517      	str	r5, [sp, #92]	@ 0x5c
   21efa:	9516      	str	r5, [sp, #88]	@ 0x58
   21efc:	9515      	str	r5, [sp, #84]	@ 0x54
   21efe:	2006      	movs	r0, #6
   21f00:	9000      	str	r0, [sp, #0]
   21f02:	2204      	movs	r2, #4
   21f04:	4c1b      	ldr	r4, [pc, #108]	@ (21f74 <_ZN20complex_full_dynamic3app17h73261716de86d898E+0xa0>)
   21f06:	4630      	mov	r0, r6
   21f08:	9902      	ldr	r1, [sp, #8]
   21f0a:	4623      	mov	r3, r4
   21f0c:	f7fe f8ea 	bl	200e4 <_ZN9allow_pin12full_dynamic15Buffer$LT$B$GT$5allow17h4466d99fb2bc5668E>
   21f10:	07c0      	lsls	r0, r0, #31
   21f12:	d110      	bne.n	21f36 <_ZN20complex_full_dynamic3app17h73261716de86d898E+0x62>
   21f14:	9500      	str	r5, [sp, #0]
   21f16:	a812      	add	r0, sp, #72	@ 0x48
   21f18:	210d      	movs	r1, #13
   21f1a:	2203      	movs	r2, #3
   21f1c:	4623      	mov	r3, r4
   21f1e:	f7fe f8e1 	bl	200e4 <_ZN9allow_pin12full_dynamic15Buffer$LT$B$GT$5allow17h4466d99fb2bc5668E>
   21f22:	07c0      	lsls	r0, r0, #31
   21f24:	d107      	bne.n	21f36 <_ZN20complex_full_dynamic3app17h73261716de86d898E+0x62>
   21f26:	4813      	ldr	r0, [pc, #76]	@ (21f74 <_ZN20complex_full_dynamic3app17h73261716de86d898E+0xa0>)
   21f28:	2106      	movs	r1, #6
   21f2a:	2600      	movs	r6, #0
   21f2c:	4632      	mov	r2, r6
   21f2e:	4633      	mov	r3, r6
   21f30:	df02      	svc	2
   21f32:	287f      	cmp	r0, #127	@ 0x7f
   21f34:	d80b      	bhi.n	21f4e <_ZN20complex_full_dynamic3app17h73261716de86d898E+0x7a>
   21f36:	9c03      	ldr	r4, [sp, #12]
   21f38:	6061      	str	r1, [r4, #4]
   21f3a:	2601      	movs	r6, #1
   21f3c:	7026      	strb	r6, [r4, #0]
   21f3e:	a812      	add	r0, sp, #72	@ 0x48
   21f40:	f004 fce8 	bl	26914 <_ZN9allow_pin12full_dynamic17unshare_if_shared17h1c062ce130e7e9d8E>
   21f44:	a804      	add	r0, sp, #16
   21f46:	f004 fce5 	bl	26914 <_ZN9allow_pin12full_dynamic17unshare_if_shared17h1c062ce130e7e9d8E>
   21f4a:	b019      	add	sp, #100	@ 0x64
   21f4c:	bdf0      	pop	{r4, r5, r6, r7, pc}
   21f4e:	9d01      	ldr	r5, [sp, #4]
   21f50:	350c      	adds	r5, #12
   21f52:	a804      	add	r0, sp, #16
   21f54:	f004 fcde 	bl	26914 <_ZN9allow_pin12full_dynamic17unshare_if_shared17h1c062ce130e7e9d8E>
   21f58:	ac12      	add	r4, sp, #72	@ 0x48
   21f5a:	4620      	mov	r0, r4
   21f5c:	f004 fcda 	bl	26914 <_ZN9allow_pin12full_dynamic17unshare_if_shared17h1c062ce130e7e9d8E>
   21f60:	4620      	mov	r0, r4
   21f62:	f004 fcd7 	bl	26914 <_ZN9allow_pin12full_dynamic17unshare_if_shared17h1c062ce130e7e9d8E>
   21f66:	9c03      	ldr	r4, [sp, #12]
   21f68:	1c60      	adds	r0, r4, #1
   21f6a:	220d      	movs	r2, #13
   21f6c:	4629      	mov	r1, r5
   21f6e:	f004 fe92 	bl	26c96 <__aeabi_memcpy>
   21f72:	e7e3      	b.n	21f3c <_ZN20complex_full_dynamic3app17h73261716de86d898E+0x68>
   21f74:	00001465 	.word	0x00001465

00021f78 <_ZN20complex_full_dynamic3app17h7345240651b2f084E>:
   21f78:	b5f0      	push	{r4, r5, r6, r7, lr}
   21f7a:	af03      	add	r7, sp, #12
   21f7c:	b0a7      	sub	sp, #156	@ 0x9c
   21f7e:	9003      	str	r0, [sp, #12]
   21f80:	ae04      	add	r6, sp, #16
   21f82:	2502      	movs	r5, #2
   21f84:	7235      	strb	r5, [r6, #8]
   21f86:	4630      	mov	r0, r6
   21f88:	300c      	adds	r0, #12
   21f8a:	223c      	movs	r2, #60	@ 0x3c
   21f8c:	9202      	str	r2, [sp, #8]
   21f8e:	f004 fe82 	bl	26c96 <__aeabi_memcpy>
   21f92:	ac16      	add	r4, sp, #88	@ 0x58
   21f94:	4620      	mov	r0, r4
   21f96:	300c      	adds	r0, #12
   21f98:	2138      	movs	r1, #56	@ 0x38
   21f9a:	9001      	str	r0, [sp, #4]
   21f9c:	f004 fcce 	bl	2693c <__aeabi_memclr4>
   21fa0:	7225      	strb	r5, [r4, #8]
   21fa2:	2503      	movs	r5, #3
   21fa4:	9500      	str	r5, [sp, #0]
   21fa6:	2204      	movs	r2, #4
   21fa8:	4c1a      	ldr	r4, [pc, #104]	@ (22014 <_ZN20complex_full_dynamic3app17h7345240651b2f084E+0x9c>)
   21faa:	4630      	mov	r0, r6
   21fac:	9902      	ldr	r1, [sp, #8]
   21fae:	4623      	mov	r3, r4
   21fb0:	f7fe f898 	bl	200e4 <_ZN9allow_pin12full_dynamic15Buffer$LT$B$GT$5allow17h4466d99fb2bc5668E>
   21fb4:	07c0      	lsls	r0, r0, #31
   21fb6:	d110      	bne.n	21fda <_ZN20complex_full_dynamic3app17h7345240651b2f084E+0x62>
   21fb8:	9500      	str	r5, [sp, #0]
   21fba:	a816      	add	r0, sp, #88	@ 0x58
   21fbc:	2138      	movs	r1, #56	@ 0x38
   21fbe:	462a      	mov	r2, r5
   21fc0:	4623      	mov	r3, r4
   21fc2:	f7fe f88f 	bl	200e4 <_ZN9allow_pin12full_dynamic15Buffer$LT$B$GT$5allow17h4466d99fb2bc5668E>
   21fc6:	07c0      	lsls	r0, r0, #31
   21fc8:	d107      	bne.n	21fda <_ZN20complex_full_dynamic3app17h7345240651b2f084E+0x62>
   21fca:	4812      	ldr	r0, [pc, #72]	@ (22014 <_ZN20complex_full_dynamic3app17h7345240651b2f084E+0x9c>)
   21fcc:	2103      	movs	r1, #3
   21fce:	2600      	movs	r6, #0
   21fd0:	460a      	mov	r2, r1
   21fd2:	4633      	mov	r3, r6
   21fd4:	df02      	svc	2
   21fd6:	287f      	cmp	r0, #127	@ 0x7f
   21fd8:	d80b      	bhi.n	21ff2 <_ZN20complex_full_dynamic3app17h7345240651b2f084E+0x7a>
   21fda:	9c03      	ldr	r4, [sp, #12]
   21fdc:	6061      	str	r1, [r4, #4]
   21fde:	2601      	movs	r6, #1
   21fe0:	7026      	strb	r6, [r4, #0]
   21fe2:	a816      	add	r0, sp, #88	@ 0x58
   21fe4:	f004 fc96 	bl	26914 <_ZN9allow_pin12full_dynamic17unshare_if_shared17h1c062ce130e7e9d8E>
   21fe8:	a804      	add	r0, sp, #16
   21fea:	f004 fc93 	bl	26914 <_ZN9allow_pin12full_dynamic17unshare_if_shared17h1c062ce130e7e9d8E>
   21fee:	b027      	add	sp, #156	@ 0x9c
   21ff0:	bdf0      	pop	{r4, r5, r6, r7, pc}
   21ff2:	a804      	add	r0, sp, #16
   21ff4:	f004 fc8e 	bl	26914 <_ZN9allow_pin12full_dynamic17unshare_if_shared17h1c062ce130e7e9d8E>
   21ff8:	ac16      	add	r4, sp, #88	@ 0x58
   21ffa:	4620      	mov	r0, r4
   21ffc:	f004 fc8a 	bl	26914 <_ZN9allow_pin12full_dynamic17unshare_if_shared17h1c062ce130e7e9d8E>
   22000:	4620      	mov	r0, r4
   22002:	f004 fc87 	bl	26914 <_ZN9allow_pin12full_dynamic17unshare_if_shared17h1c062ce130e7e9d8E>
   22006:	9c03      	ldr	r4, [sp, #12]
   22008:	1c60      	adds	r0, r4, #1
   2200a:	2238      	movs	r2, #56	@ 0x38
   2200c:	9901      	ldr	r1, [sp, #4]
   2200e:	f004 fe42 	bl	26c96 <__aeabi_memcpy>
   22012:	e7e5      	b.n	21fe0 <_ZN20complex_full_dynamic3app17h7345240651b2f084E+0x68>
   22014:	00001d19 	.word	0x00001d19

00022018 <_ZN20complex_full_dynamic3app17h763bfa7e3578dfe9E>:
   22018:	b5f0      	push	{r4, r5, r6, r7, lr}
   2201a:	af03      	add	r7, sp, #12
   2201c:	b09d      	sub	sp, #116	@ 0x74
   2201e:	9004      	str	r0, [sp, #16]
   22020:	ae05      	add	r6, sp, #20
   22022:	2502      	movs	r5, #2
   22024:	7235      	strb	r5, [r6, #8]
   22026:	4630      	mov	r0, r6
   22028:	300c      	adds	r0, #12
   2202a:	2227      	movs	r2, #39	@ 0x27
   2202c:	9203      	str	r2, [sp, #12]
   2202e:	f004 fe32 	bl	26c96 <__aeabi_memcpy>
   22032:	ac12      	add	r4, sp, #72	@ 0x48
   22034:	4620      	mov	r0, r4
   22036:	300c      	adds	r0, #12
   22038:	211e      	movs	r1, #30
   2203a:	9002      	str	r0, [sp, #8]
   2203c:	f004 fc7e 	bl	2693c <__aeabi_memclr4>
   22040:	7225      	strb	r5, [r4, #8]
   22042:	2503      	movs	r5, #3
   22044:	9500      	str	r5, [sp, #0]
   22046:	2204      	movs	r2, #4
   22048:	4c1a      	ldr	r4, [pc, #104]	@ (220b4 <_ZN20complex_full_dynamic3app17h763bfa7e3578dfe9E+0x9c>)
   2204a:	4630      	mov	r0, r6
   2204c:	9903      	ldr	r1, [sp, #12]
   2204e:	4623      	mov	r3, r4
   22050:	f7fe f848 	bl	200e4 <_ZN9allow_pin12full_dynamic15Buffer$LT$B$GT$5allow17h4466d99fb2bc5668E>
   22054:	07c0      	lsls	r0, r0, #31
   22056:	d110      	bne.n	2207a <_ZN20complex_full_dynamic3app17h763bfa7e3578dfe9E+0x62>
   22058:	9500      	str	r5, [sp, #0]
   2205a:	a812      	add	r0, sp, #72	@ 0x48
   2205c:	211e      	movs	r1, #30
   2205e:	462a      	mov	r2, r5
   22060:	4623      	mov	r3, r4
   22062:	f7fe f83f 	bl	200e4 <_ZN9allow_pin12full_dynamic15Buffer$LT$B$GT$5allow17h4466d99fb2bc5668E>
   22066:	07c0      	lsls	r0, r0, #31
   22068:	d107      	bne.n	2207a <_ZN20complex_full_dynamic3app17h763bfa7e3578dfe9E+0x62>
   2206a:	4812      	ldr	r0, [pc, #72]	@ (220b4 <_ZN20complex_full_dynamic3app17h763bfa7e3578dfe9E+0x9c>)
   2206c:	2103      	movs	r1, #3
   2206e:	2600      	movs	r6, #0
   22070:	460a      	mov	r2, r1
   22072:	4633      	mov	r3, r6
   22074:	df02      	svc	2
   22076:	287f      	cmp	r0, #127	@ 0x7f
   22078:	d80b      	bhi.n	22092 <_ZN20complex_full_dynamic3app17h763bfa7e3578dfe9E+0x7a>
   2207a:	9c04      	ldr	r4, [sp, #16]
   2207c:	6061      	str	r1, [r4, #4]
   2207e:	2601      	movs	r6, #1
   22080:	7026      	strb	r6, [r4, #0]
   22082:	a812      	add	r0, sp, #72	@ 0x48
   22084:	f004 fc46 	bl	26914 <_ZN9allow_pin12full_dynamic17unshare_if_shared17h1c062ce130e7e9d8E>
   22088:	a805      	add	r0, sp, #20
   2208a:	f004 fc43 	bl	26914 <_ZN9allow_pin12full_dynamic17unshare_if_shared17h1c062ce130e7e9d8E>
   2208e:	b01d      	add	sp, #116	@ 0x74
   22090:	bdf0      	pop	{r4, r5, r6, r7, pc}
   22092:	a805      	add	r0, sp, #20
   22094:	f004 fc3e 	bl	26914 <_ZN9allow_pin12full_dynamic17unshare_if_shared17h1c062ce130e7e9d8E>
   22098:	ac12      	add	r4, sp, #72	@ 0x48
   2209a:	4620      	mov	r0, r4
   2209c:	f004 fc3a 	bl	26914 <_ZN9allow_pin12full_dynamic17unshare_if_shared17h1c062ce130e7e9d8E>
   220a0:	4620      	mov	r0, r4
   220a2:	f004 fc37 	bl	26914 <_ZN9allow_pin12full_dynamic17unshare_if_shared17h1c062ce130e7e9d8E>
   220a6:	9c04      	ldr	r4, [sp, #16]
   220a8:	1c60      	adds	r0, r4, #1
   220aa:	221e      	movs	r2, #30
   220ac:	9902      	ldr	r1, [sp, #8]
   220ae:	f004 fdf2 	bl	26c96 <__aeabi_memcpy>
   220b2:	e7e5      	b.n	22080 <_ZN20complex_full_dynamic3app17h763bfa7e3578dfe9E+0x68>
   220b4:	000010e2 	.word	0x000010e2

000220b8 <_ZN20complex_full_dynamic3app17h76b7c88c03fff67eE>:
   220b8:	b5f0      	push	{r4, r5, r6, r7, lr}
   220ba:	af03      	add	r7, sp, #12
   220bc:	b09f      	sub	sp, #124	@ 0x7c
   220be:	9003      	str	r0, [sp, #12]
   220c0:	ae04      	add	r6, sp, #16
   220c2:	2502      	movs	r5, #2
   220c4:	7235      	strb	r5, [r6, #8]
   220c6:	4630      	mov	r0, r6
   220c8:	300c      	adds	r0, #12
   220ca:	223f      	movs	r2, #63	@ 0x3f
   220cc:	9202      	str	r2, [sp, #8]
   220ce:	f004 fde2 	bl	26c96 <__aeabi_memcpy>
   220d2:	ac17      	add	r4, sp, #92	@ 0x5c
   220d4:	4620      	mov	r0, r4
   220d6:	300c      	adds	r0, #12
   220d8:	2111      	movs	r1, #17
   220da:	9001      	str	r0, [sp, #4]
   220dc:	f004 fc2e 	bl	2693c <__aeabi_memclr4>
   220e0:	7225      	strb	r5, [r4, #8]
   220e2:	2204      	movs	r2, #4
   220e4:	9200      	str	r2, [sp, #0]
   220e6:	4c1b      	ldr	r4, [pc, #108]	@ (22154 <_ZN20complex_full_dynamic3app17h76b7c88c03fff67eE+0x9c>)
   220e8:	4630      	mov	r0, r6
   220ea:	9902      	ldr	r1, [sp, #8]
   220ec:	4623      	mov	r3, r4
   220ee:	f7fd fff9 	bl	200e4 <_ZN9allow_pin12full_dynamic15Buffer$LT$B$GT$5allow17h4466d99fb2bc5668E>
   220f2:	07c0      	lsls	r0, r0, #31
   220f4:	d110      	bne.n	22118 <_ZN20complex_full_dynamic3app17h76b7c88c03fff67eE+0x60>
   220f6:	2203      	movs	r2, #3
   220f8:	9200      	str	r2, [sp, #0]
   220fa:	a817      	add	r0, sp, #92	@ 0x5c
   220fc:	2111      	movs	r1, #17
   220fe:	4623      	mov	r3, r4
   22100:	f7fd fff0 	bl	200e4 <_ZN9allow_pin12full_dynamic15Buffer$LT$B$GT$5allow17h4466d99fb2bc5668E>
   22104:	07c0      	lsls	r0, r0, #31
   22106:	d107      	bne.n	22118 <_ZN20complex_full_dynamic3app17h76b7c88c03fff67eE+0x60>
   22108:	4812      	ldr	r0, [pc, #72]	@ (22154 <_ZN20complex_full_dynamic3app17h76b7c88c03fff67eE+0x9c>)
   2210a:	2104      	movs	r1, #4
   2210c:	2203      	movs	r2, #3
   2210e:	2600      	movs	r6, #0
   22110:	4633      	mov	r3, r6
   22112:	df02      	svc	2
   22114:	287f      	cmp	r0, #127	@ 0x7f
   22116:	d80b      	bhi.n	22130 <_ZN20complex_full_dynamic3app17h76b7c88c03fff67eE+0x78>
   22118:	9c03      	ldr	r4, [sp, #12]
   2211a:	6061      	str	r1, [r4, #4]
   2211c:	2601      	movs	r6, #1
   2211e:	7026      	strb	r6, [r4, #0]
   22120:	a817      	add	r0, sp, #92	@ 0x5c
   22122:	f004 fbf7 	bl	26914 <_ZN9allow_pin12full_dynamic17unshare_if_shared17h1c062ce130e7e9d8E>
   22126:	a804      	add	r0, sp, #16
   22128:	f004 fbf4 	bl	26914 <_ZN9allow_pin12full_dynamic17unshare_if_shared17h1c062ce130e7e9d8E>
   2212c:	b01f      	add	sp, #124	@ 0x7c
   2212e:	bdf0      	pop	{r4, r5, r6, r7, pc}
   22130:	a804      	add	r0, sp, #16
   22132:	f004 fbef 	bl	26914 <_ZN9allow_pin12full_dynamic17unshare_if_shared17h1c062ce130e7e9d8E>
   22136:	ac17      	add	r4, sp, #92	@ 0x5c
   22138:	4620      	mov	r0, r4
   2213a:	f004 fbeb 	bl	26914 <_ZN9allow_pin12full_dynamic17unshare_if_shared17h1c062ce130e7e9d8E>
   2213e:	4620      	mov	r0, r4
   22140:	f004 fbe8 	bl	26914 <_ZN9allow_pin12full_dynamic17unshare_if_shared17h1c062ce130e7e9d8E>
   22144:	9c03      	ldr	r4, [sp, #12]
   22146:	1c60      	adds	r0, r4, #1
   22148:	2211      	movs	r2, #17
   2214a:	9901      	ldr	r1, [sp, #4]
   2214c:	f004 fda3 	bl	26c96 <__aeabi_memcpy>
   22150:	e7e5      	b.n	2211e <_ZN20complex_full_dynamic3app17h76b7c88c03fff67eE+0x66>
   22152:	46c0      	nop			@ (mov r8, r8)
   22154:	000014d7 	.word	0x000014d7

00022158 <_ZN20complex_full_dynamic3app17h76c6dc9053e49d0dE>:
   22158:	b5f0      	push	{r4, r5, r6, r7, lr}
   2215a:	af03      	add	r7, sp, #12
   2215c:	b09d      	sub	sp, #116	@ 0x74
   2215e:	9003      	str	r0, [sp, #12]
   22160:	ae04      	add	r6, sp, #16
   22162:	2502      	movs	r5, #2
   22164:	7235      	strb	r5, [r6, #8]
   22166:	4630      	mov	r0, r6
   22168:	300c      	adds	r0, #12
   2216a:	222b      	movs	r2, #43	@ 0x2b
   2216c:	9202      	str	r2, [sp, #8]
   2216e:	f004 fd92 	bl	26c96 <__aeabi_memcpy>
   22172:	ac12      	add	r4, sp, #72	@ 0x48
   22174:	4620      	mov	r0, r4
   22176:	300c      	adds	r0, #12
   22178:	211e      	movs	r1, #30
   2217a:	9001      	str	r0, [sp, #4]
   2217c:	f004 fbde 	bl	2693c <__aeabi_memclr4>
   22180:	7225      	strb	r5, [r4, #8]
   22182:	2007      	movs	r0, #7
   22184:	9000      	str	r0, [sp, #0]
   22186:	2204      	movs	r2, #4
   22188:	4c1b      	ldr	r4, [pc, #108]	@ (221f8 <_ZN20complex_full_dynamic3app17h76c6dc9053e49d0dE+0xa0>)
   2218a:	4630      	mov	r0, r6
   2218c:	9902      	ldr	r1, [sp, #8]
   2218e:	4623      	mov	r3, r4
   22190:	f7fd ffa8 	bl	200e4 <_ZN9allow_pin12full_dynamic15Buffer$LT$B$GT$5allow17h4466d99fb2bc5668E>
   22194:	07c0      	lsls	r0, r0, #31
   22196:	d111      	bne.n	221bc <_ZN20complex_full_dynamic3app17h76c6dc9053e49d0dE+0x64>
   22198:	2008      	movs	r0, #8
   2219a:	9000      	str	r0, [sp, #0]
   2219c:	a812      	add	r0, sp, #72	@ 0x48
   2219e:	211e      	movs	r1, #30
   221a0:	2203      	movs	r2, #3
   221a2:	4623      	mov	r3, r4
   221a4:	f7fd ff9e 	bl	200e4 <_ZN9allow_pin12full_dynamic15Buffer$LT$B$GT$5allow17h4466d99fb2bc5668E>
   221a8:	07c0      	lsls	r0, r0, #31
   221aa:	d107      	bne.n	221bc <_ZN20complex_full_dynamic3app17h76c6dc9053e49d0dE+0x64>
   221ac:	4812      	ldr	r0, [pc, #72]	@ (221f8 <_ZN20complex_full_dynamic3app17h76c6dc9053e49d0dE+0xa0>)
   221ae:	2107      	movs	r1, #7
   221b0:	2208      	movs	r2, #8
   221b2:	2600      	movs	r6, #0
   221b4:	4633      	mov	r3, r6
   221b6:	df02      	svc	2
   221b8:	287f      	cmp	r0, #127	@ 0x7f
   221ba:	d80b      	bhi.n	221d4 <_ZN20complex_full_dynamic3app17h76c6dc9053e49d0dE+0x7c>
   221bc:	9c03      	ldr	r4, [sp, #12]
   221be:	6061      	str	r1, [r4, #4]
   221c0:	2601      	movs	r6, #1
   221c2:	7026      	strb	r6, [r4, #0]
   221c4:	a812      	add	r0, sp, #72	@ 0x48
   221c6:	f004 fba5 	bl	26914 <_ZN9allow_pin12full_dynamic17unshare_if_shared17h1c062ce130e7e9d8E>
   221ca:	a804      	add	r0, sp, #16
   221cc:	f004 fba2 	bl	26914 <_ZN9allow_pin12full_dynamic17unshare_if_shared17h1c062ce130e7e9d8E>
   221d0:	b01d      	add	sp, #116	@ 0x74
   221d2:	bdf0      	pop	{r4, r5, r6, r7, pc}
   221d4:	a804      	add	r0, sp, #16
   221d6:	f004 fb9d 	bl	26914 <_ZN9allow_pin12full_dynamic17unshare_if_shared17h1c062ce130e7e9d8E>
   221da:	ac12      	add	r4, sp, #72	@ 0x48
   221dc:	4620      	mov	r0, r4
   221de:	f004 fb99 	bl	26914 <_ZN9allow_pin12full_dynamic17unshare_if_shared17h1c062ce130e7e9d8E>
   221e2:	4620      	mov	r0, r4
   221e4:	f004 fb96 	bl	26914 <_ZN9allow_pin12full_dynamic17unshare_if_shared17h1c062ce130e7e9d8E>
   221e8:	9c03      	ldr	r4, [sp, #12]
   221ea:	1c60      	adds	r0, r4, #1
   221ec:	221e      	movs	r2, #30
   221ee:	9901      	ldr	r1, [sp, #4]
   221f0:	f004 fd51 	bl	26c96 <__aeabi_memcpy>
   221f4:	e7e5      	b.n	221c2 <_ZN20complex_full_dynamic3app17h76c6dc9053e49d0dE+0x6a>
   221f6:	46c0      	nop			@ (mov r8, r8)
   221f8:	000007e3 	.word	0x000007e3

000221fc <_ZN20complex_full_dynamic3app17h77575600a9b1813cE>:
   221fc:	b5f0      	push	{r4, r5, r6, r7, lr}
   221fe:	af03      	add	r7, sp, #12
   22200:	b0af      	sub	sp, #188	@ 0xbc
   22202:	9004      	str	r0, [sp, #16]
   22204:	ae05      	add	r6, sp, #20
   22206:	2502      	movs	r5, #2
   22208:	7235      	strb	r5, [r6, #8]
   2220a:	4630      	mov	r0, r6
   2220c:	300c      	adds	r0, #12
   2220e:	2253      	movs	r2, #83	@ 0x53
   22210:	9203      	str	r2, [sp, #12]
   22212:	f004 fd40 	bl	26c96 <__aeabi_memcpy>
   22216:	ac1d      	add	r4, sp, #116	@ 0x74
   22218:	4620      	mov	r0, r4
   2221a:	300c      	adds	r0, #12
   2221c:	213a      	movs	r1, #58	@ 0x3a
   2221e:	9002      	str	r0, [sp, #8]
   22220:	f004 fb8c 	bl	2693c <__aeabi_memclr4>
   22224:	7225      	strb	r5, [r4, #8]
   22226:	2006      	movs	r0, #6
   22228:	9000      	str	r0, [sp, #0]
   2222a:	2204      	movs	r2, #4
   2222c:	4c1b      	ldr	r4, [pc, #108]	@ (2229c <_ZN20complex_full_dynamic3app17h77575600a9b1813cE+0xa0>)
   2222e:	4630      	mov	r0, r6
   22230:	9903      	ldr	r1, [sp, #12]
   22232:	4623      	mov	r3, r4
   22234:	f7fd ff56 	bl	200e4 <_ZN9allow_pin12full_dynamic15Buffer$LT$B$GT$5allow17h4466d99fb2bc5668E>
   22238:	07c0      	lsls	r0, r0, #31
   2223a:	d111      	bne.n	22260 <_ZN20complex_full_dynamic3app17h77575600a9b1813cE+0x64>
   2223c:	2007      	movs	r0, #7
   2223e:	9000      	str	r0, [sp, #0]
   22240:	a81d      	add	r0, sp, #116	@ 0x74
   22242:	213a      	movs	r1, #58	@ 0x3a
   22244:	2203      	movs	r2, #3
   22246:	4623      	mov	r3, r4
   22248:	f7fd ff4c 	bl	200e4 <_ZN9allow_pin12full_dynamic15Buffer$LT$B$GT$5allow17h4466d99fb2bc5668E>
   2224c:	07c0      	lsls	r0, r0, #31
   2224e:	d107      	bne.n	22260 <_ZN20complex_full_dynamic3app17h77575600a9b1813cE+0x64>
   22250:	4812      	ldr	r0, [pc, #72]	@ (2229c <_ZN20complex_full_dynamic3app17h77575600a9b1813cE+0xa0>)
   22252:	2106      	movs	r1, #6
   22254:	2207      	movs	r2, #7
   22256:	2600      	movs	r6, #0
   22258:	4633      	mov	r3, r6
   2225a:	df02      	svc	2
   2225c:	287f      	cmp	r0, #127	@ 0x7f
   2225e:	d80b      	bhi.n	22278 <_ZN20complex_full_dynamic3app17h77575600a9b1813cE+0x7c>
   22260:	9c04      	ldr	r4, [sp, #16]
   22262:	6061      	str	r1, [r4, #4]
   22264:	2601      	movs	r6, #1
   22266:	7026      	strb	r6, [r4, #0]
   22268:	a81d      	add	r0, sp, #116	@ 0x74
   2226a:	f004 fb53 	bl	26914 <_ZN9allow_pin12full_dynamic17unshare_if_shared17h1c062ce130e7e9d8E>
   2226e:	a805      	add	r0, sp, #20
   22270:	f004 fb50 	bl	26914 <_ZN9allow_pin12full_dynamic17unshare_if_shared17h1c062ce130e7e9d8E>
   22274:	b02f      	add	sp, #188	@ 0xbc
   22276:	bdf0      	pop	{r4, r5, r6, r7, pc}
   22278:	a805      	add	r0, sp, #20
   2227a:	f004 fb4b 	bl	26914 <_ZN9allow_pin12full_dynamic17unshare_if_shared17h1c062ce130e7e9d8E>
   2227e:	ac1d      	add	r4, sp, #116	@ 0x74
   22280:	4620      	mov	r0, r4
   22282:	f004 fb47 	bl	26914 <_ZN9allow_pin12full_dynamic17unshare_if_shared17h1c062ce130e7e9d8E>
   22286:	4620      	mov	r0, r4
   22288:	f004 fb44 	bl	26914 <_ZN9allow_pin12full_dynamic17unshare_if_shared17h1c062ce130e7e9d8E>
   2228c:	9c04      	ldr	r4, [sp, #16]
   2228e:	1c60      	adds	r0, r4, #1
   22290:	223a      	movs	r2, #58	@ 0x3a
   22292:	9902      	ldr	r1, [sp, #8]
   22294:	f004 fcff 	bl	26c96 <__aeabi_memcpy>
   22298:	e7e5      	b.n	22266 <_ZN20complex_full_dynamic3app17h77575600a9b1813cE+0x6a>
   2229a:	46c0      	nop			@ (mov r8, r8)
   2229c:	00002645 	.word	0x00002645

000222a0 <_ZN20complex_full_dynamic3app17h7b5084fbd4686958E>:
   222a0:	b5f0      	push	{r4, r5, r6, r7, lr}
   222a2:	af03      	add	r7, sp, #12
   222a4:	b0a3      	sub	sp, #140	@ 0x8c
   222a6:	9004      	str	r0, [sp, #16]
   222a8:	ae05      	add	r6, sp, #20
   222aa:	2402      	movs	r4, #2
   222ac:	7234      	strb	r4, [r6, #8]
   222ae:	4630      	mov	r0, r6
   222b0:	300c      	adds	r0, #12
   222b2:	221b      	movs	r2, #27
   222b4:	9203      	str	r2, [sp, #12]
   222b6:	f004 fcee 	bl	26c96 <__aeabi_memcpy>
   222ba:	ad0f      	add	r5, sp, #60	@ 0x3c
   222bc:	4628      	mov	r0, r5
   222be:	300c      	adds	r0, #12
   222c0:	2141      	movs	r1, #65	@ 0x41
   222c2:	9002      	str	r0, [sp, #8]
   222c4:	f004 fb3a 	bl	2693c <__aeabi_memclr4>
   222c8:	722c      	strb	r4, [r5, #8]
   222ca:	2008      	movs	r0, #8
   222cc:	9000      	str	r0, [sp, #0]
   222ce:	2005      	movs	r0, #5
   222d0:	0184      	lsls	r4, r0, #6
   222d2:	2204      	movs	r2, #4
   222d4:	4630      	mov	r0, r6
   222d6:	9903      	ldr	r1, [sp, #12]
   222d8:	4623      	mov	r3, r4
   222da:	f7fd ff03 	bl	200e4 <_ZN9allow_pin12full_dynamic15Buffer$LT$B$GT$5allow17h4466d99fb2bc5668E>
   222de:	07c0      	lsls	r0, r0, #31
   222e0:	d111      	bne.n	22306 <_ZN20complex_full_dynamic3app17h7b5084fbd4686958E+0x66>
   222e2:	2009      	movs	r0, #9
   222e4:	9000      	str	r0, [sp, #0]
   222e6:	a80f      	add	r0, sp, #60	@ 0x3c
   222e8:	2141      	movs	r1, #65	@ 0x41
   222ea:	2203      	movs	r2, #3
   222ec:	4623      	mov	r3, r4
   222ee:	f7fd fef9 	bl	200e4 <_ZN9allow_pin12full_dynamic15Buffer$LT$B$GT$5allow17h4466d99fb2bc5668E>
   222f2:	07c0      	lsls	r0, r0, #31
   222f4:	d107      	bne.n	22306 <_ZN20complex_full_dynamic3app17h7b5084fbd4686958E+0x66>
   222f6:	2108      	movs	r1, #8
   222f8:	2209      	movs	r2, #9
   222fa:	2600      	movs	r6, #0
   222fc:	4620      	mov	r0, r4
   222fe:	4633      	mov	r3, r6
   22300:	df02      	svc	2
   22302:	287f      	cmp	r0, #127	@ 0x7f
   22304:	d80b      	bhi.n	2231e <_ZN20complex_full_dynamic3app17h7b5084fbd4686958E+0x7e>
   22306:	9c04      	ldr	r4, [sp, #16]
   22308:	6061      	str	r1, [r4, #4]
   2230a:	2601      	movs	r6, #1
   2230c:	7026      	strb	r6, [r4, #0]
   2230e:	a80f      	add	r0, sp, #60	@ 0x3c
   22310:	f004 fb00 	bl	26914 <_ZN9allow_pin12full_dynamic17unshare_if_shared17h1c062ce130e7e9d8E>
   22314:	a805      	add	r0, sp, #20
   22316:	f004 fafd 	bl	26914 <_ZN9allow_pin12full_dynamic17unshare_if_shared17h1c062ce130e7e9d8E>
   2231a:	b023      	add	sp, #140	@ 0x8c
   2231c:	bdf0      	pop	{r4, r5, r6, r7, pc}
   2231e:	a805      	add	r0, sp, #20
   22320:	f004 faf8 	bl	26914 <_ZN9allow_pin12full_dynamic17unshare_if_shared17h1c062ce130e7e9d8E>
   22324:	ac0f      	add	r4, sp, #60	@ 0x3c
   22326:	4620      	mov	r0, r4
   22328:	f004 faf4 	bl	26914 <_ZN9allow_pin12full_dynamic17unshare_if_shared17h1c062ce130e7e9d8E>
   2232c:	4620      	mov	r0, r4
   2232e:	f004 faf1 	bl	26914 <_ZN9allow_pin12full_dynamic17unshare_if_shared17h1c062ce130e7e9d8E>
   22332:	9c04      	ldr	r4, [sp, #16]
   22334:	1c60      	adds	r0, r4, #1
   22336:	2241      	movs	r2, #65	@ 0x41
   22338:	9902      	ldr	r1, [sp, #8]
   2233a:	f004 fcac 	bl	26c96 <__aeabi_memcpy>
   2233e:	e7e5      	b.n	2230c <_ZN20complex_full_dynamic3app17h7b5084fbd4686958E+0x6c>

00022340 <_ZN20complex_full_dynamic3app17h7cca87b5ba539524E>:
   22340:	b5f0      	push	{r4, r5, r6, r7, lr}
   22342:	af03      	add	r7, sp, #12
   22344:	b0a3      	sub	sp, #140	@ 0x8c
   22346:	9003      	str	r0, [sp, #12]
   22348:	ae04      	add	r6, sp, #16
   2234a:	2502      	movs	r5, #2
   2234c:	7235      	strb	r5, [r6, #8]
   2234e:	4630      	mov	r0, r6
   22350:	300c      	adds	r0, #12
   22352:	2211      	movs	r2, #17
   22354:	9202      	str	r2, [sp, #8]
   22356:	f004 fc9e 	bl	26c96 <__aeabi_memcpy>
   2235a:	ac0c      	add	r4, sp, #48	@ 0x30
   2235c:	4620      	mov	r0, r4
   2235e:	300c      	adds	r0, #12
   22360:	2150      	movs	r1, #80	@ 0x50
   22362:	9001      	str	r0, [sp, #4]
   22364:	f004 faea 	bl	2693c <__aeabi_memclr4>
   22368:	7225      	strb	r5, [r4, #8]
   2236a:	2006      	movs	r0, #6
   2236c:	9000      	str	r0, [sp, #0]
   2236e:	2204      	movs	r2, #4
   22370:	4c1b      	ldr	r4, [pc, #108]	@ (223e0 <_ZN20complex_full_dynamic3app17h7cca87b5ba539524E+0xa0>)
   22372:	4630      	mov	r0, r6
   22374:	9902      	ldr	r1, [sp, #8]
   22376:	4623      	mov	r3, r4
   22378:	f7fd feb4 	bl	200e4 <_ZN9allow_pin12full_dynamic15Buffer$LT$B$GT$5allow17h4466d99fb2bc5668E>
   2237c:	07c0      	lsls	r0, r0, #31
   2237e:	d111      	bne.n	223a4 <_ZN20complex_full_dynamic3app17h7cca87b5ba539524E+0x64>
   22380:	2005      	movs	r0, #5
   22382:	9000      	str	r0, [sp, #0]
   22384:	a80c      	add	r0, sp, #48	@ 0x30
   22386:	2150      	movs	r1, #80	@ 0x50
   22388:	2203      	movs	r2, #3
   2238a:	4623      	mov	r3, r4
   2238c:	f7fd feaa 	bl	200e4 <_ZN9allow_pin12full_dynamic15Buffer$LT$B$GT$5allow17h4466d99fb2bc5668E>
   22390:	07c0      	lsls	r0, r0, #31
   22392:	d107      	bne.n	223a4 <_ZN20complex_full_dynamic3app17h7cca87b5ba539524E+0x64>
   22394:	4812      	ldr	r0, [pc, #72]	@ (223e0 <_ZN20complex_full_dynamic3app17h7cca87b5ba539524E+0xa0>)
   22396:	2106      	movs	r1, #6
   22398:	2205      	movs	r2, #5
   2239a:	2600      	movs	r6, #0
   2239c:	4633      	mov	r3, r6
   2239e:	df02      	svc	2
   223a0:	287f      	cmp	r0, #127	@ 0x7f
   223a2:	d80b      	bhi.n	223bc <_ZN20complex_full_dynamic3app17h7cca87b5ba539524E+0x7c>
   223a4:	9c03      	ldr	r4, [sp, #12]
   223a6:	6061      	str	r1, [r4, #4]
   223a8:	2601      	movs	r6, #1
   223aa:	7026      	strb	r6, [r4, #0]
   223ac:	a80c      	add	r0, sp, #48	@ 0x30
   223ae:	f004 fab1 	bl	26914 <_ZN9allow_pin12full_dynamic17unshare_if_shared17h1c062ce130e7e9d8E>
   223b2:	a804      	add	r0, sp, #16
   223b4:	f004 faae 	bl	26914 <_ZN9allow_pin12full_dynamic17unshare_if_shared17h1c062ce130e7e9d8E>
   223b8:	b023      	add	sp, #140	@ 0x8c
   223ba:	bdf0      	pop	{r4, r5, r6, r7, pc}
   223bc:	a804      	add	r0, sp, #16
   223be:	f004 faa9 	bl	26914 <_ZN9allow_pin12full_dynamic17unshare_if_shared17h1c062ce130e7e9d8E>
   223c2:	ac0c      	add	r4, sp, #48	@ 0x30
   223c4:	4620      	mov	r0, r4
   223c6:	f004 faa5 	bl	26914 <_ZN9allow_pin12full_dynamic17unshare_if_shared17h1c062ce130e7e9d8E>
   223ca:	4620      	mov	r0, r4
   223cc:	f004 faa2 	bl	26914 <_ZN9allow_pin12full_dynamic17unshare_if_shared17h1c062ce130e7e9d8E>
   223d0:	9c03      	ldr	r4, [sp, #12]
   223d2:	1c60      	adds	r0, r4, #1
   223d4:	2250      	movs	r2, #80	@ 0x50
   223d6:	9901      	ldr	r1, [sp, #4]
   223d8:	f004 fc5d 	bl	26c96 <__aeabi_memcpy>
   223dc:	e7e5      	b.n	223aa <_ZN20complex_full_dynamic3app17h7cca87b5ba539524E+0x6a>
   223de:	46c0      	nop			@ (mov r8, r8)
   223e0:	00001aa9 	.word	0x00001aa9

000223e4 <_ZN20complex_full_dynamic3app17h7e31ac48a4d2aec0E>:
   223e4:	b5f0      	push	{r4, r5, r6, r7, lr}
   223e6:	af03      	add	r7, sp, #12
   223e8:	b09f      	sub	sp, #124	@ 0x7c
   223ea:	9003      	str	r0, [sp, #12]
   223ec:	ae04      	add	r6, sp, #16
   223ee:	2502      	movs	r5, #2
   223f0:	7235      	strb	r5, [r6, #8]
   223f2:	4630      	mov	r0, r6
   223f4:	300c      	adds	r0, #12
   223f6:	222a      	movs	r2, #42	@ 0x2a
   223f8:	9202      	str	r2, [sp, #8]
   223fa:	f004 fc4c 	bl	26c96 <__aeabi_memcpy>
   223fe:	ac12      	add	r4, sp, #72	@ 0x48
   22400:	4620      	mov	r0, r4
   22402:	300c      	adds	r0, #12
   22404:	2128      	movs	r1, #40	@ 0x28
   22406:	9001      	str	r0, [sp, #4]
   22408:	f004 fa98 	bl	2693c <__aeabi_memclr4>
   2240c:	7225      	strb	r5, [r4, #8]
   2240e:	2204      	movs	r2, #4
   22410:	9200      	str	r2, [sp, #0]
   22412:	4c1b      	ldr	r4, [pc, #108]	@ (22480 <_ZN20complex_full_dynamic3app17h7e31ac48a4d2aec0E+0x9c>)
   22414:	4630      	mov	r0, r6
   22416:	9902      	ldr	r1, [sp, #8]
   22418:	4623      	mov	r3, r4
   2241a:	f7fd fe63 	bl	200e4 <_ZN9allow_pin12full_dynamic15Buffer$LT$B$GT$5allow17h4466d99fb2bc5668E>
   2241e:	07c0      	lsls	r0, r0, #31
   22420:	d111      	bne.n	22446 <_ZN20complex_full_dynamic3app17h7e31ac48a4d2aec0E+0x62>
   22422:	2008      	movs	r0, #8
   22424:	9000      	str	r0, [sp, #0]
   22426:	a812      	add	r0, sp, #72	@ 0x48
   22428:	2128      	movs	r1, #40	@ 0x28
   2242a:	2203      	movs	r2, #3
   2242c:	4623      	mov	r3, r4
   2242e:	f7fd fe59 	bl	200e4 <_ZN9allow_pin12full_dynamic15Buffer$LT$B$GT$5allow17h4466d99fb2bc5668E>
   22432:	07c0      	lsls	r0, r0, #31
   22434:	d107      	bne.n	22446 <_ZN20complex_full_dynamic3app17h7e31ac48a4d2aec0E+0x62>
   22436:	4812      	ldr	r0, [pc, #72]	@ (22480 <_ZN20complex_full_dynamic3app17h7e31ac48a4d2aec0E+0x9c>)
   22438:	2104      	movs	r1, #4
   2243a:	2208      	movs	r2, #8
   2243c:	2600      	movs	r6, #0
   2243e:	4633      	mov	r3, r6
   22440:	df02      	svc	2
   22442:	287f      	cmp	r0, #127	@ 0x7f
   22444:	d80b      	bhi.n	2245e <_ZN20complex_full_dynamic3app17h7e31ac48a4d2aec0E+0x7a>
   22446:	9c03      	ldr	r4, [sp, #12]
   22448:	6061      	str	r1, [r4, #4]
   2244a:	2601      	movs	r6, #1
   2244c:	7026      	strb	r6, [r4, #0]
   2244e:	a812      	add	r0, sp, #72	@ 0x48
   22450:	f004 fa60 	bl	26914 <_ZN9allow_pin12full_dynamic17unshare_if_shared17h1c062ce130e7e9d8E>
   22454:	a804      	add	r0, sp, #16
   22456:	f004 fa5d 	bl	26914 <_ZN9allow_pin12full_dynamic17unshare_if_shared17h1c062ce130e7e9d8E>
   2245a:	b01f      	add	sp, #124	@ 0x7c
   2245c:	bdf0      	pop	{r4, r5, r6, r7, pc}
   2245e:	a804      	add	r0, sp, #16
   22460:	f004 fa58 	bl	26914 <_ZN9allow_pin12full_dynamic17unshare_if_shared17h1c062ce130e7e9d8E>
   22464:	ac12      	add	r4, sp, #72	@ 0x48
   22466:	4620      	mov	r0, r4
   22468:	f004 fa54 	bl	26914 <_ZN9allow_pin12full_dynamic17unshare_if_shared17h1c062ce130e7e9d8E>
   2246c:	4620      	mov	r0, r4
   2246e:	f004 fa51 	bl	26914 <_ZN9allow_pin12full_dynamic17unshare_if_shared17h1c062ce130e7e9d8E>
   22472:	9c03      	ldr	r4, [sp, #12]
   22474:	1c60      	adds	r0, r4, #1
   22476:	2228      	movs	r2, #40	@ 0x28
   22478:	9901      	ldr	r1, [sp, #4]
   2247a:	f004 fc0c 	bl	26c96 <__aeabi_memcpy>
   2247e:	e7e5      	b.n	2244c <_ZN20complex_full_dynamic3app17h7e31ac48a4d2aec0E+0x68>
   22480:	00001efa 	.word	0x00001efa

00022484 <_ZN20complex_full_dynamic3app17h7fc63d0a4afc1f45E>:
   22484:	b5f0      	push	{r4, r5, r6, r7, lr}
   22486:	af03      	add	r7, sp, #12
   22488:	b0ab      	sub	sp, #172	@ 0xac
   2248a:	9003      	str	r0, [sp, #12]
   2248c:	ae04      	add	r6, sp, #16
   2248e:	2502      	movs	r5, #2
   22490:	7235      	strb	r5, [r6, #8]
   22492:	4630      	mov	r0, r6
   22494:	300c      	adds	r0, #12
   22496:	222d      	movs	r2, #45	@ 0x2d
   22498:	9202      	str	r2, [sp, #8]
   2249a:	f004 fbfc 	bl	26c96 <__aeabi_memcpy>
   2249e:	ac13      	add	r4, sp, #76	@ 0x4c
   224a0:	4620      	mov	r0, r4
   224a2:	300c      	adds	r0, #12
   224a4:	2153      	movs	r1, #83	@ 0x53
   224a6:	9001      	str	r0, [sp, #4]
   224a8:	f004 fa48 	bl	2693c <__aeabi_memclr4>
   224ac:	7225      	strb	r5, [r4, #8]
   224ae:	9500      	str	r5, [sp, #0]
   224b0:	2204      	movs	r2, #4
   224b2:	4c1b      	ldr	r4, [pc, #108]	@ (22520 <_ZN20complex_full_dynamic3app17h7fc63d0a4afc1f45E+0x9c>)
   224b4:	4630      	mov	r0, r6
   224b6:	9902      	ldr	r1, [sp, #8]
   224b8:	4623      	mov	r3, r4
   224ba:	f7fd fe13 	bl	200e4 <_ZN9allow_pin12full_dynamic15Buffer$LT$B$GT$5allow17h4466d99fb2bc5668E>
   224be:	07c0      	lsls	r0, r0, #31
   224c0:	d111      	bne.n	224e6 <_ZN20complex_full_dynamic3app17h7fc63d0a4afc1f45E+0x62>
   224c2:	2007      	movs	r0, #7
   224c4:	9000      	str	r0, [sp, #0]
   224c6:	a813      	add	r0, sp, #76	@ 0x4c
   224c8:	2153      	movs	r1, #83	@ 0x53
   224ca:	2203      	movs	r2, #3
   224cc:	4623      	mov	r3, r4
   224ce:	f7fd fe09 	bl	200e4 <_ZN9allow_pin12full_dynamic15Buffer$LT$B$GT$5allow17h4466d99fb2bc5668E>
   224d2:	07c0      	lsls	r0, r0, #31
   224d4:	d107      	bne.n	224e6 <_ZN20complex_full_dynamic3app17h7fc63d0a4afc1f45E+0x62>
   224d6:	4812      	ldr	r0, [pc, #72]	@ (22520 <_ZN20complex_full_dynamic3app17h7fc63d0a4afc1f45E+0x9c>)
   224d8:	2102      	movs	r1, #2
   224da:	2207      	movs	r2, #7
   224dc:	2600      	movs	r6, #0
   224de:	4633      	mov	r3, r6
   224e0:	df02      	svc	2
   224e2:	287f      	cmp	r0, #127	@ 0x7f
   224e4:	d80b      	bhi.n	224fe <_ZN20complex_full_dynamic3app17h7fc63d0a4afc1f45E+0x7a>
   224e6:	9c03      	ldr	r4, [sp, #12]
   224e8:	6061      	str	r1, [r4, #4]
   224ea:	2601      	movs	r6, #1
   224ec:	7026      	strb	r6, [r4, #0]
   224ee:	a813      	add	r0, sp, #76	@ 0x4c
   224f0:	f004 fa10 	bl	26914 <_ZN9allow_pin12full_dynamic17unshare_if_shared17h1c062ce130e7e9d8E>
   224f4:	a804      	add	r0, sp, #16
   224f6:	f004 fa0d 	bl	26914 <_ZN9allow_pin12full_dynamic17unshare_if_shared17h1c062ce130e7e9d8E>
   224fa:	b02b      	add	sp, #172	@ 0xac
   224fc:	bdf0      	pop	{r4, r5, r6, r7, pc}
   224fe:	a804      	add	r0, sp, #16
   22500:	f004 fa08 	bl	26914 <_ZN9allow_pin12full_dynamic17unshare_if_shared17h1c062ce130e7e9d8E>
   22504:	ac13      	add	r4, sp, #76	@ 0x4c
   22506:	4620      	mov	r0, r4
   22508:	f004 fa04 	bl	26914 <_ZN9allow_pin12full_dynamic17unshare_if_shared17h1c062ce130e7e9d8E>
   2250c:	4620      	mov	r0, r4
   2250e:	f004 fa01 	bl	26914 <_ZN9allow_pin12full_dynamic17unshare_if_shared17h1c062ce130e7e9d8E>
   22512:	9c03      	ldr	r4, [sp, #12]
   22514:	1c60      	adds	r0, r4, #1
   22516:	2253      	movs	r2, #83	@ 0x53
   22518:	9901      	ldr	r1, [sp, #4]
   2251a:	f004 fbbc 	bl	26c96 <__aeabi_memcpy>
   2251e:	e7e5      	b.n	224ec <_ZN20complex_full_dynamic3app17h7fc63d0a4afc1f45E+0x68>
   22520:	00000ec3 	.word	0x00000ec3

00022524 <_ZN20complex_full_dynamic3app17h820e056a3835dba7E>:
   22524:	b5f0      	push	{r4, r5, r6, r7, lr}
   22526:	af03      	add	r7, sp, #12
   22528:	b0a5      	sub	sp, #148	@ 0x94
   2252a:	9004      	str	r0, [sp, #16]
   2252c:	ae05      	add	r6, sp, #20
   2252e:	2502      	movs	r5, #2
   22530:	7235      	strb	r5, [r6, #8]
   22532:	4630      	mov	r0, r6
   22534:	300c      	adds	r0, #12
   22536:	2241      	movs	r2, #65	@ 0x41
   22538:	9203      	str	r2, [sp, #12]
   2253a:	f004 fbac 	bl	26c96 <__aeabi_memcpy>
   2253e:	ac19      	add	r4, sp, #100	@ 0x64
   22540:	4620      	mov	r0, r4
   22542:	300c      	adds	r0, #12
   22544:	2122      	movs	r1, #34	@ 0x22
   22546:	9002      	str	r0, [sp, #8]
   22548:	f004 f9f8 	bl	2693c <__aeabi_memclr4>
   2254c:	7225      	strb	r5, [r4, #8]
   2254e:	2501      	movs	r5, #1
   22550:	9500      	str	r5, [sp, #0]
   22552:	2204      	movs	r2, #4
   22554:	4c1b      	ldr	r4, [pc, #108]	@ (225c4 <_ZN20complex_full_dynamic3app17h820e056a3835dba7E+0xa0>)
   22556:	4630      	mov	r0, r6
   22558:	9903      	ldr	r1, [sp, #12]
   2255a:	4623      	mov	r3, r4
   2255c:	f7fd fdc2 	bl	200e4 <_ZN9allow_pin12full_dynamic15Buffer$LT$B$GT$5allow17h4466d99fb2bc5668E>
   22560:	07c0      	lsls	r0, r0, #31
   22562:	d111      	bne.n	22588 <_ZN20complex_full_dynamic3app17h820e056a3835dba7E+0x64>
   22564:	2000      	movs	r0, #0
   22566:	9000      	str	r0, [sp, #0]
   22568:	a819      	add	r0, sp, #100	@ 0x64
   2256a:	2122      	movs	r1, #34	@ 0x22
   2256c:	2203      	movs	r2, #3
   2256e:	4623      	mov	r3, r4
   22570:	f7fd fdb8 	bl	200e4 <_ZN9allow_pin12full_dynamic15Buffer$LT$B$GT$5allow17h4466d99fb2bc5668E>
   22574:	07c0      	lsls	r0, r0, #31
   22576:	d107      	bne.n	22588 <_ZN20complex_full_dynamic3app17h820e056a3835dba7E+0x64>
   22578:	4812      	ldr	r0, [pc, #72]	@ (225c4 <_ZN20complex_full_dynamic3app17h820e056a3835dba7E+0xa0>)
   2257a:	2101      	movs	r1, #1
   2257c:	2600      	movs	r6, #0
   2257e:	4632      	mov	r2, r6
   22580:	4633      	mov	r3, r6
   22582:	df02      	svc	2
   22584:	287f      	cmp	r0, #127	@ 0x7f
   22586:	d80a      	bhi.n	2259e <_ZN20complex_full_dynamic3app17h820e056a3835dba7E+0x7a>
   22588:	9c04      	ldr	r4, [sp, #16]
   2258a:	6061      	str	r1, [r4, #4]
   2258c:	7025      	strb	r5, [r4, #0]
   2258e:	a819      	add	r0, sp, #100	@ 0x64
   22590:	f004 f9c0 	bl	26914 <_ZN9allow_pin12full_dynamic17unshare_if_shared17h1c062ce130e7e9d8E>
   22594:	a805      	add	r0, sp, #20
   22596:	f004 f9bd 	bl	26914 <_ZN9allow_pin12full_dynamic17unshare_if_shared17h1c062ce130e7e9d8E>
   2259a:	b025      	add	sp, #148	@ 0x94
   2259c:	bdf0      	pop	{r4, r5, r6, r7, pc}
   2259e:	a805      	add	r0, sp, #20
   225a0:	f004 f9b8 	bl	26914 <_ZN9allow_pin12full_dynamic17unshare_if_shared17h1c062ce130e7e9d8E>
   225a4:	ac19      	add	r4, sp, #100	@ 0x64
   225a6:	4620      	mov	r0, r4
   225a8:	f004 f9b4 	bl	26914 <_ZN9allow_pin12full_dynamic17unshare_if_shared17h1c062ce130e7e9d8E>
   225ac:	4620      	mov	r0, r4
   225ae:	f004 f9b1 	bl	26914 <_ZN9allow_pin12full_dynamic17unshare_if_shared17h1c062ce130e7e9d8E>
   225b2:	9c04      	ldr	r4, [sp, #16]
   225b4:	1c60      	adds	r0, r4, #1
   225b6:	2222      	movs	r2, #34	@ 0x22
   225b8:	9902      	ldr	r1, [sp, #8]
   225ba:	f004 fb6c 	bl	26c96 <__aeabi_memcpy>
   225be:	4635      	mov	r5, r6
   225c0:	e7e4      	b.n	2258c <_ZN20complex_full_dynamic3app17h820e056a3835dba7E+0x68>
   225c2:	46c0      	nop			@ (mov r8, r8)
   225c4:	0000247c 	.word	0x0000247c

000225c8 <_ZN20complex_full_dynamic3app17h8634bc976da4e826E>:
   225c8:	b5f0      	push	{r4, r5, r6, r7, lr}
   225ca:	af03      	add	r7, sp, #12
   225cc:	b0b3      	sub	sp, #204	@ 0xcc
   225ce:	9003      	str	r0, [sp, #12]
   225d0:	ae04      	add	r6, sp, #16
   225d2:	2502      	movs	r5, #2
   225d4:	7235      	strb	r5, [r6, #8]
   225d6:	4630      	mov	r0, r6
   225d8:	300c      	adds	r0, #12
   225da:	2256      	movs	r2, #86	@ 0x56
   225dc:	9202      	str	r2, [sp, #8]
   225de:	f004 fb5a 	bl	26c96 <__aeabi_memcpy>
   225e2:	ac1d      	add	r4, sp, #116	@ 0x74
   225e4:	4620      	mov	r0, r4
   225e6:	300c      	adds	r0, #12
   225e8:	2149      	movs	r1, #73	@ 0x49
   225ea:	9001      	str	r0, [sp, #4]
   225ec:	f004 f9a6 	bl	2693c <__aeabi_memclr4>
   225f0:	7225      	strb	r5, [r4, #8]
   225f2:	2506      	movs	r5, #6
   225f4:	9500      	str	r5, [sp, #0]
   225f6:	2204      	movs	r2, #4
   225f8:	4c1a      	ldr	r4, [pc, #104]	@ (22664 <_ZN20complex_full_dynamic3app17h8634bc976da4e826E+0x9c>)
   225fa:	4630      	mov	r0, r6
   225fc:	9902      	ldr	r1, [sp, #8]
   225fe:	4623      	mov	r3, r4
   22600:	f7fd fd70 	bl	200e4 <_ZN9allow_pin12full_dynamic15Buffer$LT$B$GT$5allow17h4466d99fb2bc5668E>
   22604:	07c0      	lsls	r0, r0, #31
   22606:	d110      	bne.n	2262a <_ZN20complex_full_dynamic3app17h8634bc976da4e826E+0x62>
   22608:	9500      	str	r5, [sp, #0]
   2260a:	a81d      	add	r0, sp, #116	@ 0x74
   2260c:	2149      	movs	r1, #73	@ 0x49
   2260e:	2203      	movs	r2, #3
   22610:	4623      	mov	r3, r4
   22612:	f7fd fd67 	bl	200e4 <_ZN9allow_pin12full_dynamic15Buffer$LT$B$GT$5allow17h4466d99fb2bc5668E>
   22616:	07c0      	lsls	r0, r0, #31
   22618:	d107      	bne.n	2262a <_ZN20complex_full_dynamic3app17h8634bc976da4e826E+0x62>
   2261a:	4812      	ldr	r0, [pc, #72]	@ (22664 <_ZN20complex_full_dynamic3app17h8634bc976da4e826E+0x9c>)
   2261c:	2106      	movs	r1, #6
   2261e:	2600      	movs	r6, #0
   22620:	460a      	mov	r2, r1
   22622:	4633      	mov	r3, r6
   22624:	df02      	svc	2
   22626:	287f      	cmp	r0, #127	@ 0x7f
   22628:	d80b      	bhi.n	22642 <_ZN20complex_full_dynamic3app17h8634bc976da4e826E+0x7a>
   2262a:	9c03      	ldr	r4, [sp, #12]
   2262c:	6061      	str	r1, [r4, #4]
   2262e:	2601      	movs	r6, #1
   22630:	7026      	strb	r6, [r4, #0]
   22632:	a81d      	add	r0, sp, #116	@ 0x74
   22634:	f004 f96e 	bl	26914 <_ZN9allow_pin12full_dynamic17unshare_if_shared17h1c062ce130e7e9d8E>
   22638:	a804      	add	r0, sp, #16
   2263a:	f004 f96b 	bl	26914 <_ZN9allow_pin12full_dynamic17unshare_if_shared17h1c062ce130e7e9d8E>
   2263e:	b033      	add	sp, #204	@ 0xcc
   22640:	bdf0      	pop	{r4, r5, r6, r7, pc}
   22642:	a804      	add	r0, sp, #16
   22644:	f004 f966 	bl	26914 <_ZN9allow_pin12full_dynamic17unshare_if_shared17h1c062ce130e7e9d8E>
   22648:	ac1d      	add	r4, sp, #116	@ 0x74
   2264a:	4620      	mov	r0, r4
   2264c:	f004 f962 	bl	26914 <_ZN9allow_pin12full_dynamic17unshare_if_shared17h1c062ce130e7e9d8E>
   22650:	4620      	mov	r0, r4
   22652:	f004 f95f 	bl	26914 <_ZN9allow_pin12full_dynamic17unshare_if_shared17h1c062ce130e7e9d8E>
   22656:	9c03      	ldr	r4, [sp, #12]
   22658:	1c60      	adds	r0, r4, #1
   2265a:	2249      	movs	r2, #73	@ 0x49
   2265c:	9901      	ldr	r1, [sp, #4]
   2265e:	f004 fb1a 	bl	26c96 <__aeabi_memcpy>
   22662:	e7e5      	b.n	22630 <_ZN20complex_full_dynamic3app17h8634bc976da4e826E+0x68>
   22664:	00001c6b 	.word	0x00001c6b

00022668 <_ZN20complex_full_dynamic3app17h8a664cffd1caf751E>:
   22668:	b5f0      	push	{r4, r5, r6, r7, lr}
   2266a:	af03      	add	r7, sp, #12
   2266c:	b09b      	sub	sp, #108	@ 0x6c
   2266e:	9003      	str	r0, [sp, #12]
   22670:	ae04      	add	r6, sp, #16
   22672:	2402      	movs	r4, #2
   22674:	7234      	strb	r4, [r6, #8]
   22676:	4630      	mov	r0, r6
   22678:	300c      	adds	r0, #12
   2267a:	2532      	movs	r5, #50	@ 0x32
   2267c:	462a      	mov	r2, r5
   2267e:	f004 fb0a 	bl	26c96 <__aeabi_memcpy>
   22682:	a814      	add	r0, sp, #80	@ 0x50
   22684:	9002      	str	r0, [sp, #8]
   22686:	7204      	strb	r4, [r0, #8]
   22688:	2000      	movs	r0, #0
   2268a:	901a      	str	r0, [sp, #104]	@ 0x68
   2268c:	9019      	str	r0, [sp, #100]	@ 0x64
   2268e:	9018      	str	r0, [sp, #96]	@ 0x60
   22690:	9017      	str	r0, [sp, #92]	@ 0x5c
   22692:	2204      	movs	r2, #4
   22694:	9200      	str	r2, [sp, #0]
   22696:	4c1c      	ldr	r4, [pc, #112]	@ (22708 <_ZN20complex_full_dynamic3app17h8a664cffd1caf751E+0xa0>)
   22698:	4630      	mov	r0, r6
   2269a:	4629      	mov	r1, r5
   2269c:	4623      	mov	r3, r4
   2269e:	f7fd fd21 	bl	200e4 <_ZN9allow_pin12full_dynamic15Buffer$LT$B$GT$5allow17h4466d99fb2bc5668E>
   226a2:	07c0      	lsls	r0, r0, #31
   226a4:	d111      	bne.n	226ca <_ZN20complex_full_dynamic3app17h8a664cffd1caf751E+0x62>
   226a6:	2009      	movs	r0, #9
   226a8:	9000      	str	r0, [sp, #0]
   226aa:	a814      	add	r0, sp, #80	@ 0x50
   226ac:	2110      	movs	r1, #16
   226ae:	2203      	movs	r2, #3
   226b0:	4623      	mov	r3, r4
   226b2:	f7fd fd17 	bl	200e4 <_ZN9allow_pin12full_dynamic15Buffer$LT$B$GT$5allow17h4466d99fb2bc5668E>
   226b6:	07c0      	lsls	r0, r0, #31
   226b8:	d107      	bne.n	226ca <_ZN20complex_full_dynamic3app17h8a664cffd1caf751E+0x62>
   226ba:	4813      	ldr	r0, [pc, #76]	@ (22708 <_ZN20complex_full_dynamic3app17h8a664cffd1caf751E+0xa0>)
   226bc:	2104      	movs	r1, #4
   226be:	2209      	movs	r2, #9
   226c0:	2600      	movs	r6, #0
   226c2:	4633      	mov	r3, r6
   226c4:	df02      	svc	2
   226c6:	287f      	cmp	r0, #127	@ 0x7f
   226c8:	d80b      	bhi.n	226e2 <_ZN20complex_full_dynamic3app17h8a664cffd1caf751E+0x7a>
   226ca:	9c03      	ldr	r4, [sp, #12]
   226cc:	6061      	str	r1, [r4, #4]
   226ce:	2601      	movs	r6, #1
   226d0:	7026      	strb	r6, [r4, #0]
   226d2:	a814      	add	r0, sp, #80	@ 0x50
   226d4:	f004 f91e 	bl	26914 <_ZN9allow_pin12full_dynamic17unshare_if_shared17h1c062ce130e7e9d8E>
   226d8:	a804      	add	r0, sp, #16
   226da:	f004 f91b 	bl	26914 <_ZN9allow_pin12full_dynamic17unshare_if_shared17h1c062ce130e7e9d8E>
   226de:	b01b      	add	sp, #108	@ 0x6c
   226e0:	bdf0      	pop	{r4, r5, r6, r7, pc}
   226e2:	9d02      	ldr	r5, [sp, #8]
   226e4:	350c      	adds	r5, #12
   226e6:	a804      	add	r0, sp, #16
   226e8:	f004 f914 	bl	26914 <_ZN9allow_pin12full_dynamic17unshare_if_shared17h1c062ce130e7e9d8E>
   226ec:	ac14      	add	r4, sp, #80	@ 0x50
   226ee:	4620      	mov	r0, r4
   226f0:	f004 f910 	bl	26914 <_ZN9allow_pin12full_dynamic17unshare_if_shared17h1c062ce130e7e9d8E>
   226f4:	4620      	mov	r0, r4
   226f6:	f004 f90d 	bl	26914 <_ZN9allow_pin12full_dynamic17unshare_if_shared17h1c062ce130e7e9d8E>
   226fa:	9c03      	ldr	r4, [sp, #12]
   226fc:	1c60      	adds	r0, r4, #1
   226fe:	2210      	movs	r2, #16
   22700:	4629      	mov	r1, r5
   22702:	f004 fac8 	bl	26c96 <__aeabi_memcpy>
   22706:	e7e3      	b.n	226d0 <_ZN20complex_full_dynamic3app17h8a664cffd1caf751E+0x68>
   22708:	000019d6 	.word	0x000019d6

0002270c <_ZN20complex_full_dynamic3app17h8a7994b3b246d72dE>:
   2270c:	b5f0      	push	{r4, r5, r6, r7, lr}
   2270e:	af03      	add	r7, sp, #12
   22710:	b0a3      	sub	sp, #140	@ 0x8c
   22712:	9004      	str	r0, [sp, #16]
   22714:	ae05      	add	r6, sp, #20
   22716:	2502      	movs	r5, #2
   22718:	7235      	strb	r5, [r6, #8]
   2271a:	4630      	mov	r0, r6
   2271c:	300c      	adds	r0, #12
   2271e:	2238      	movs	r2, #56	@ 0x38
   22720:	9203      	str	r2, [sp, #12]
   22722:	f004 fab8 	bl	26c96 <__aeabi_memcpy>
   22726:	ac16      	add	r4, sp, #88	@ 0x58
   22728:	4620      	mov	r0, r4
   2272a:	300c      	adds	r0, #12
   2272c:	2127      	movs	r1, #39	@ 0x27
   2272e:	9002      	str	r0, [sp, #8]
   22730:	f004 f904 	bl	2693c <__aeabi_memclr4>
   22734:	7225      	strb	r5, [r4, #8]
   22736:	9500      	str	r5, [sp, #0]
   22738:	2204      	movs	r2, #4
   2273a:	4c1b      	ldr	r4, [pc, #108]	@ (227a8 <_ZN20complex_full_dynamic3app17h8a7994b3b246d72dE+0x9c>)
   2273c:	4630      	mov	r0, r6
   2273e:	9903      	ldr	r1, [sp, #12]
   22740:	4623      	mov	r3, r4
   22742:	f7fd fccf 	bl	200e4 <_ZN9allow_pin12full_dynamic15Buffer$LT$B$GT$5allow17h4466d99fb2bc5668E>
   22746:	07c0      	lsls	r0, r0, #31
   22748:	d111      	bne.n	2276e <_ZN20complex_full_dynamic3app17h8a7994b3b246d72dE+0x62>
   2274a:	2008      	movs	r0, #8
   2274c:	9000      	str	r0, [sp, #0]
   2274e:	a816      	add	r0, sp, #88	@ 0x58
   22750:	2127      	movs	r1, #39	@ 0x27
   22752:	2203      	movs	r2, #3
   22754:	4623      	mov	r3, r4
   22756:	f7fd fcc5 	bl	200e4 <_ZN9allow_pin12full_dynamic15Buffer$LT$B$GT$5allow17h4466d99fb2bc5668E>
   2275a:	07c0      	lsls	r0, r0, #31
   2275c:	d107      	bne.n	2276e <_ZN20complex_full_dynamic3app17h8a7994b3b246d72dE+0x62>
   2275e:	4812      	ldr	r0, [pc, #72]	@ (227a8 <_ZN20complex_full_dynamic3app17h8a7994b3b246d72dE+0x9c>)
   22760:	2102      	movs	r1, #2
   22762:	2208      	movs	r2, #8
   22764:	2600      	movs	r6, #0
   22766:	4633      	mov	r3, r6
   22768:	df02      	svc	2
   2276a:	287f      	cmp	r0, #127	@ 0x7f
   2276c:	d80b      	bhi.n	22786 <_ZN20complex_full_dynamic3app17h8a7994b3b246d72dE+0x7a>
   2276e:	9c04      	ldr	r4, [sp, #16]
   22770:	6061      	str	r1, [r4, #4]
   22772:	2601      	movs	r6, #1
   22774:	7026      	strb	r6, [r4, #0]
   22776:	a816      	add	r0, sp, #88	@ 0x58
   22778:	f004 f8cc 	bl	26914 <_ZN9allow_pin12full_dynamic17unshare_if_shared17h1c062ce130e7e9d8E>
   2277c:	a805      	add	r0, sp, #20
   2277e:	f004 f8c9 	bl	26914 <_ZN9allow_pin12full_dynamic17unshare_if_shared17h1c062ce130e7e9d8E>
   22782:	b023      	add	sp, #140	@ 0x8c
   22784:	bdf0      	pop	{r4, r5, r6, r7, pc}
   22786:	a805      	add	r0, sp, #20
   22788:	f004 f8c4 	bl	26914 <_ZN9allow_pin12full_dynamic17unshare_if_shared17h1c062ce130e7e9d8E>
   2278c:	ac16      	add	r4, sp, #88	@ 0x58
   2278e:	4620      	mov	r0, r4
   22790:	f004 f8c0 	bl	26914 <_ZN9allow_pin12full_dynamic17unshare_if_shared17h1c062ce130e7e9d8E>
   22794:	4620      	mov	r0, r4
   22796:	f004 f8bd 	bl	26914 <_ZN9allow_pin12full_dynamic17unshare_if_shared17h1c062ce130e7e9d8E>
   2279a:	9c04      	ldr	r4, [sp, #16]
   2279c:	1c60      	adds	r0, r4, #1
   2279e:	2227      	movs	r2, #39	@ 0x27
   227a0:	9902      	ldr	r1, [sp, #8]
   227a2:	f004 fa78 	bl	26c96 <__aeabi_memcpy>
   227a6:	e7e5      	b.n	22774 <_ZN20complex_full_dynamic3app17h8a7994b3b246d72dE+0x68>
   227a8:	00000e2b 	.word	0x00000e2b

000227ac <_ZN20complex_full_dynamic3app17h8bc01bacd4822f07E>:
   227ac:	b5f0      	push	{r4, r5, r6, r7, lr}
   227ae:	af03      	add	r7, sp, #12
   227b0:	b0ad      	sub	sp, #180	@ 0xb4
   227b2:	9003      	str	r0, [sp, #12]
   227b4:	ae04      	add	r6, sp, #16
   227b6:	2502      	movs	r5, #2
   227b8:	7235      	strb	r5, [r6, #8]
   227ba:	4630      	mov	r0, r6
   227bc:	300c      	adds	r0, #12
   227be:	224d      	movs	r2, #77	@ 0x4d
   227c0:	9202      	str	r2, [sp, #8]
   227c2:	f004 fa68 	bl	26c96 <__aeabi_memcpy>
   227c6:	ac1b      	add	r4, sp, #108	@ 0x6c
   227c8:	4620      	mov	r0, r4
   227ca:	300c      	adds	r0, #12
   227cc:	213c      	movs	r1, #60	@ 0x3c
   227ce:	9001      	str	r0, [sp, #4]
   227d0:	f004 f8b4 	bl	2693c <__aeabi_memclr4>
   227d4:	7225      	strb	r5, [r4, #8]
   227d6:	2204      	movs	r2, #4
   227d8:	9200      	str	r2, [sp, #0]
   227da:	4c1b      	ldr	r4, [pc, #108]	@ (22848 <_ZN20complex_full_dynamic3app17h8bc01bacd4822f07E+0x9c>)
   227dc:	4630      	mov	r0, r6
   227de:	9902      	ldr	r1, [sp, #8]
   227e0:	4623      	mov	r3, r4
   227e2:	f7fd fc7f 	bl	200e4 <_ZN9allow_pin12full_dynamic15Buffer$LT$B$GT$5allow17h4466d99fb2bc5668E>
   227e6:	07c0      	lsls	r0, r0, #31
   227e8:	d111      	bne.n	2280e <_ZN20complex_full_dynamic3app17h8bc01bacd4822f07E+0x62>
   227ea:	2009      	movs	r0, #9
   227ec:	9000      	str	r0, [sp, #0]
   227ee:	a81b      	add	r0, sp, #108	@ 0x6c
   227f0:	213c      	movs	r1, #60	@ 0x3c
   227f2:	2203      	movs	r2, #3
   227f4:	4623      	mov	r3, r4
   227f6:	f7fd fc75 	bl	200e4 <_ZN9allow_pin12full_dynamic15Buffer$LT$B$GT$5allow17h4466d99fb2bc5668E>
   227fa:	07c0      	lsls	r0, r0, #31
   227fc:	d107      	bne.n	2280e <_ZN20complex_full_dynamic3app17h8bc01bacd4822f07E+0x62>
   227fe:	4812      	ldr	r0, [pc, #72]	@ (22848 <_ZN20complex_full_dynamic3app17h8bc01bacd4822f07E+0x9c>)
   22800:	2104      	movs	r1, #4
   22802:	2209      	movs	r2, #9
   22804:	2600      	movs	r6, #0
   22806:	4633      	mov	r3, r6
   22808:	df02      	svc	2
   2280a:	287f      	cmp	r0, #127	@ 0x7f
   2280c:	d80b      	bhi.n	22826 <_ZN20complex_full_dynamic3app17h8bc01bacd4822f07E+0x7a>
   2280e:	9c03      	ldr	r4, [sp, #12]
   22810:	6061      	str	r1, [r4, #4]
   22812:	2601      	movs	r6, #1
   22814:	7026      	strb	r6, [r4, #0]
   22816:	a81b      	add	r0, sp, #108	@ 0x6c
   22818:	f004 f87c 	bl	26914 <_ZN9allow_pin12full_dynamic17unshare_if_shared17h1c062ce130e7e9d8E>
   2281c:	a804      	add	r0, sp, #16
   2281e:	f004 f879 	bl	26914 <_ZN9allow_pin12full_dynamic17unshare_if_shared17h1c062ce130e7e9d8E>
   22822:	b02d      	add	sp, #180	@ 0xb4
   22824:	bdf0      	pop	{r4, r5, r6, r7, pc}
   22826:	a804      	add	r0, sp, #16
   22828:	f004 f874 	bl	26914 <_ZN9allow_pin12full_dynamic17unshare_if_shared17h1c062ce130e7e9d8E>
   2282c:	ac1b      	add	r4, sp, #108	@ 0x6c
   2282e:	4620      	mov	r0, r4
   22830:	f004 f870 	bl	26914 <_ZN9allow_pin12full_dynamic17unshare_if_shared17h1c062ce130e7e9d8E>
   22834:	4620      	mov	r0, r4
   22836:	f004 f86d 	bl	26914 <_ZN9allow_pin12full_dynamic17unshare_if_shared17h1c062ce130e7e9d8E>
   2283a:	9c03      	ldr	r4, [sp, #12]
   2283c:	1c60      	adds	r0, r4, #1
   2283e:	223c      	movs	r2, #60	@ 0x3c
   22840:	9901      	ldr	r1, [sp, #4]
   22842:	f004 fa28 	bl	26c96 <__aeabi_memcpy>
   22846:	e7e5      	b.n	22814 <_ZN20complex_full_dynamic3app17h8bc01bacd4822f07E+0x68>
   22848:	000021ab 	.word	0x000021ab

0002284c <_ZN20complex_full_dynamic3app17h8fefb2e22ecf48f1E>:
   2284c:	b5f0      	push	{r4, r5, r6, r7, lr}
   2284e:	af03      	add	r7, sp, #12
   22850:	b0a5      	sub	sp, #148	@ 0x94
   22852:	9003      	str	r0, [sp, #12]
   22854:	ae04      	add	r6, sp, #16
   22856:	2402      	movs	r4, #2
   22858:	7234      	strb	r4, [r6, #8]
   2285a:	4630      	mov	r0, r6
   2285c:	300c      	adds	r0, #12
   2285e:	2236      	movs	r2, #54	@ 0x36
   22860:	9202      	str	r2, [sp, #8]
   22862:	f004 fa18 	bl	26c96 <__aeabi_memcpy>
   22866:	ad15      	add	r5, sp, #84	@ 0x54
   22868:	4628      	mov	r0, r5
   2286a:	300c      	adds	r0, #12
   2286c:	2134      	movs	r1, #52	@ 0x34
   2286e:	9001      	str	r0, [sp, #4]
   22870:	f004 f864 	bl	2693c <__aeabi_memclr4>
   22874:	722c      	strb	r4, [r5, #8]
   22876:	2204      	movs	r2, #4
   22878:	9200      	str	r2, [sp, #0]
   2287a:	4d1b      	ldr	r5, [pc, #108]	@ (228e8 <_ZN20complex_full_dynamic3app17h8fefb2e22ecf48f1E+0x9c>)
   2287c:	4630      	mov	r0, r6
   2287e:	9902      	ldr	r1, [sp, #8]
   22880:	462b      	mov	r3, r5
   22882:	f7fd fc2f 	bl	200e4 <_ZN9allow_pin12full_dynamic15Buffer$LT$B$GT$5allow17h4466d99fb2bc5668E>
   22886:	07c0      	lsls	r0, r0, #31
   22888:	d110      	bne.n	228ac <_ZN20complex_full_dynamic3app17h8fefb2e22ecf48f1E+0x60>
   2288a:	9400      	str	r4, [sp, #0]
   2288c:	a815      	add	r0, sp, #84	@ 0x54
   2288e:	2134      	movs	r1, #52	@ 0x34
   22890:	2203      	movs	r2, #3
   22892:	462b      	mov	r3, r5
   22894:	f7fd fc26 	bl	200e4 <_ZN9allow_pin12full_dynamic15Buffer$LT$B$GT$5allow17h4466d99fb2bc5668E>
   22898:	07c0      	lsls	r0, r0, #31
   2289a:	d107      	bne.n	228ac <_ZN20complex_full_dynamic3app17h8fefb2e22ecf48f1E+0x60>
   2289c:	4812      	ldr	r0, [pc, #72]	@ (228e8 <_ZN20complex_full_dynamic3app17h8fefb2e22ecf48f1E+0x9c>)
   2289e:	2104      	movs	r1, #4
   228a0:	2202      	movs	r2, #2
   228a2:	2600      	movs	r6, #0
   228a4:	4633      	mov	r3, r6
   228a6:	df02      	svc	2
   228a8:	287f      	cmp	r0, #127	@ 0x7f
   228aa:	d80b      	bhi.n	228c4 <_ZN20complex_full_dynamic3app17h8fefb2e22ecf48f1E+0x78>
   228ac:	9c03      	ldr	r4, [sp, #12]
   228ae:	6061      	str	r1, [r4, #4]
   228b0:	2601      	movs	r6, #1
   228b2:	7026      	strb	r6, [r4, #0]
   228b4:	a815      	add	r0, sp, #84	@ 0x54
   228b6:	f004 f82d 	bl	26914 <_ZN9allow_pin12full_dynamic17unshare_if_shared17h1c062ce130e7e9d8E>
   228ba:	a804      	add	r0, sp, #16
   228bc:	f004 f82a 	bl	26914 <_ZN9allow_pin12full_dynamic17unshare_if_shared17h1c062ce130e7e9d8E>
   228c0:	b025      	add	sp, #148	@ 0x94
   228c2:	bdf0      	pop	{r4, r5, r6, r7, pc}
   228c4:	a804      	add	r0, sp, #16
   228c6:	f004 f825 	bl	26914 <_ZN9allow_pin12full_dynamic17unshare_if_shared17h1c062ce130e7e9d8E>
   228ca:	ac15      	add	r4, sp, #84	@ 0x54
   228cc:	4620      	mov	r0, r4
   228ce:	f004 f821 	bl	26914 <_ZN9allow_pin12full_dynamic17unshare_if_shared17h1c062ce130e7e9d8E>
   228d2:	4620      	mov	r0, r4
   228d4:	f004 f81e 	bl	26914 <_ZN9allow_pin12full_dynamic17unshare_if_shared17h1c062ce130e7e9d8E>
   228d8:	9c03      	ldr	r4, [sp, #12]
   228da:	1c60      	adds	r0, r4, #1
   228dc:	2234      	movs	r2, #52	@ 0x34
   228de:	9901      	ldr	r1, [sp, #4]
   228e0:	f004 f9d9 	bl	26c96 <__aeabi_memcpy>
   228e4:	e7e5      	b.n	228b2 <_ZN20complex_full_dynamic3app17h8fefb2e22ecf48f1E+0x66>
   228e6:	46c0      	nop			@ (mov r8, r8)
   228e8:	000023c6 	.word	0x000023c6

000228ec <_ZN20complex_full_dynamic3app17h9b67996bb0f0a238E>:
   228ec:	b5f0      	push	{r4, r5, r6, r7, lr}
   228ee:	af03      	add	r7, sp, #12
   228f0:	b0a9      	sub	sp, #164	@ 0xa4
   228f2:	9004      	str	r0, [sp, #16]
   228f4:	ae05      	add	r6, sp, #20
   228f6:	2502      	movs	r5, #2
   228f8:	7235      	strb	r5, [r6, #8]
   228fa:	4630      	mov	r0, r6
   228fc:	300c      	adds	r0, #12
   228fe:	2232      	movs	r2, #50	@ 0x32
   22900:	9203      	str	r2, [sp, #12]
   22902:	f004 f9c8 	bl	26c96 <__aeabi_memcpy>
   22906:	ac15      	add	r4, sp, #84	@ 0x54
   22908:	4620      	mov	r0, r4
   2290a:	300c      	adds	r0, #12
   2290c:	2141      	movs	r1, #65	@ 0x41
   2290e:	9002      	str	r0, [sp, #8]
   22910:	f004 f814 	bl	2693c <__aeabi_memclr4>
   22914:	7225      	strb	r5, [r4, #8]
   22916:	2007      	movs	r0, #7
   22918:	9000      	str	r0, [sp, #0]
   2291a:	2204      	movs	r2, #4
   2291c:	4c1b      	ldr	r4, [pc, #108]	@ (2298c <_ZN20complex_full_dynamic3app17h9b67996bb0f0a238E+0xa0>)
   2291e:	4630      	mov	r0, r6
   22920:	9903      	ldr	r1, [sp, #12]
   22922:	4623      	mov	r3, r4
   22924:	f7fd fbde 	bl	200e4 <_ZN9allow_pin12full_dynamic15Buffer$LT$B$GT$5allow17h4466d99fb2bc5668E>
   22928:	07c0      	lsls	r0, r0, #31
   2292a:	d111      	bne.n	22950 <_ZN20complex_full_dynamic3app17h9b67996bb0f0a238E+0x64>
   2292c:	2005      	movs	r0, #5
   2292e:	9000      	str	r0, [sp, #0]
   22930:	a815      	add	r0, sp, #84	@ 0x54
   22932:	2141      	movs	r1, #65	@ 0x41
   22934:	2203      	movs	r2, #3
   22936:	4623      	mov	r3, r4
   22938:	f7fd fbd4 	bl	200e4 <_ZN9allow_pin12full_dynamic15Buffer$LT$B$GT$5allow17h4466d99fb2bc5668E>
   2293c:	07c0      	lsls	r0, r0, #31
   2293e:	d107      	bne.n	22950 <_ZN20complex_full_dynamic3app17h9b67996bb0f0a238E+0x64>
   22940:	4812      	ldr	r0, [pc, #72]	@ (2298c <_ZN20complex_full_dynamic3app17h9b67996bb0f0a238E+0xa0>)
   22942:	2107      	movs	r1, #7
   22944:	2205      	movs	r2, #5
   22946:	2600      	movs	r6, #0
   22948:	4633      	mov	r3, r6
   2294a:	df02      	svc	2
   2294c:	287f      	cmp	r0, #127	@ 0x7f
   2294e:	d80b      	bhi.n	22968 <_ZN20complex_full_dynamic3app17h9b67996bb0f0a238E+0x7c>
   22950:	9c04      	ldr	r4, [sp, #16]
   22952:	6061      	str	r1, [r4, #4]
   22954:	2601      	movs	r6, #1
   22956:	7026      	strb	r6, [r4, #0]
   22958:	a815      	add	r0, sp, #84	@ 0x54
   2295a:	f003 ffdb 	bl	26914 <_ZN9allow_pin12full_dynamic17unshare_if_shared17h1c062ce130e7e9d8E>
   2295e:	a805      	add	r0, sp, #20
   22960:	f003 ffd8 	bl	26914 <_ZN9allow_pin12full_dynamic17unshare_if_shared17h1c062ce130e7e9d8E>
   22964:	b029      	add	sp, #164	@ 0xa4
   22966:	bdf0      	pop	{r4, r5, r6, r7, pc}
   22968:	a805      	add	r0, sp, #20
   2296a:	f003 ffd3 	bl	26914 <_ZN9allow_pin12full_dynamic17unshare_if_shared17h1c062ce130e7e9d8E>
   2296e:	ac15      	add	r4, sp, #84	@ 0x54
   22970:	4620      	mov	r0, r4
   22972:	f003 ffcf 	bl	26914 <_ZN9allow_pin12full_dynamic17unshare_if_shared17h1c062ce130e7e9d8E>
   22976:	4620      	mov	r0, r4
   22978:	f003 ffcc 	bl	26914 <_ZN9allow_pin12full_dynamic17unshare_if_shared17h1c062ce130e7e9d8E>
   2297c:	9c04      	ldr	r4, [sp, #16]
   2297e:	1c60      	adds	r0, r4, #1
   22980:	2241      	movs	r2, #65	@ 0x41
   22982:	9902      	ldr	r1, [sp, #8]
   22984:	f004 f987 	bl	26c96 <__aeabi_memcpy>
   22988:	e7e5      	b.n	22956 <_ZN20complex_full_dynamic3app17h9b67996bb0f0a238E+0x6a>
   2298a:	46c0      	nop			@ (mov r8, r8)
   2298c:	0000091d 	.word	0x0000091d

00022990 <_ZN20complex_full_dynamic3app17h9bbcd59cec8ed81cE>:
   22990:	b5f0      	push	{r4, r5, r6, r7, lr}
   22992:	af03      	add	r7, sp, #12
   22994:	b09f      	sub	sp, #124	@ 0x7c
   22996:	9003      	str	r0, [sp, #12]
   22998:	ae04      	add	r6, sp, #16
   2299a:	2502      	movs	r5, #2
   2299c:	7235      	strb	r5, [r6, #8]
   2299e:	4630      	mov	r0, r6
   229a0:	300c      	adds	r0, #12
   229a2:	2225      	movs	r2, #37	@ 0x25
   229a4:	9202      	str	r2, [sp, #8]
   229a6:	f004 f976 	bl	26c96 <__aeabi_memcpy>
   229aa:	ac11      	add	r4, sp, #68	@ 0x44
   229ac:	4620      	mov	r0, r4
   229ae:	300c      	adds	r0, #12
   229b0:	212a      	movs	r1, #42	@ 0x2a
   229b2:	9001      	str	r0, [sp, #4]
   229b4:	f003 ffc2 	bl	2693c <__aeabi_memclr4>
   229b8:	7225      	strb	r5, [r4, #8]
   229ba:	2000      	movs	r0, #0
   229bc:	9000      	str	r0, [sp, #0]
   229be:	2204      	movs	r2, #4
   229c0:	4c1a      	ldr	r4, [pc, #104]	@ (22a2c <_ZN20complex_full_dynamic3app17h9bbcd59cec8ed81cE+0x9c>)
   229c2:	4630      	mov	r0, r6
   229c4:	9902      	ldr	r1, [sp, #8]
   229c6:	4623      	mov	r3, r4
   229c8:	f7fd fb8c 	bl	200e4 <_ZN9allow_pin12full_dynamic15Buffer$LT$B$GT$5allow17h4466d99fb2bc5668E>
   229cc:	07c0      	lsls	r0, r0, #31
   229ce:	d110      	bne.n	229f2 <_ZN20complex_full_dynamic3app17h9bbcd59cec8ed81cE+0x62>
   229d0:	2203      	movs	r2, #3
   229d2:	9200      	str	r2, [sp, #0]
   229d4:	a811      	add	r0, sp, #68	@ 0x44
   229d6:	212a      	movs	r1, #42	@ 0x2a
   229d8:	4623      	mov	r3, r4
   229da:	f7fd fb83 	bl	200e4 <_ZN9allow_pin12full_dynamic15Buffer$LT$B$GT$5allow17h4466d99fb2bc5668E>
   229de:	07c0      	lsls	r0, r0, #31
   229e0:	d107      	bne.n	229f2 <_ZN20complex_full_dynamic3app17h9bbcd59cec8ed81cE+0x62>
   229e2:	4812      	ldr	r0, [pc, #72]	@ (22a2c <_ZN20complex_full_dynamic3app17h9bbcd59cec8ed81cE+0x9c>)
   229e4:	2203      	movs	r2, #3
   229e6:	2600      	movs	r6, #0
   229e8:	4631      	mov	r1, r6
   229ea:	4633      	mov	r3, r6
   229ec:	df02      	svc	2
   229ee:	287f      	cmp	r0, #127	@ 0x7f
   229f0:	d80b      	bhi.n	22a0a <_ZN20complex_full_dynamic3app17h9bbcd59cec8ed81cE+0x7a>
   229f2:	9c03      	ldr	r4, [sp, #12]
   229f4:	6061      	str	r1, [r4, #4]
   229f6:	2601      	movs	r6, #1
   229f8:	7026      	strb	r6, [r4, #0]
   229fa:	a811      	add	r0, sp, #68	@ 0x44
   229fc:	f003 ff8a 	bl	26914 <_ZN9allow_pin12full_dynamic17unshare_if_shared17h1c062ce130e7e9d8E>
   22a00:	a804      	add	r0, sp, #16
   22a02:	f003 ff87 	bl	26914 <_ZN9allow_pin12full_dynamic17unshare_if_shared17h1c062ce130e7e9d8E>
   22a06:	b01f      	add	sp, #124	@ 0x7c
   22a08:	bdf0      	pop	{r4, r5, r6, r7, pc}
   22a0a:	a804      	add	r0, sp, #16
   22a0c:	f003 ff82 	bl	26914 <_ZN9allow_pin12full_dynamic17unshare_if_shared17h1c062ce130e7e9d8E>
   22a10:	ac11      	add	r4, sp, #68	@ 0x44
   22a12:	4620      	mov	r0, r4
   22a14:	f003 ff7e 	bl	26914 <_ZN9allow_pin12full_dynamic17unshare_if_shared17h1c062ce130e7e9d8E>
   22a18:	4620      	mov	r0, r4
   22a1a:	f003 ff7b 	bl	26914 <_ZN9allow_pin12full_dynamic17unshare_if_shared17h1c062ce130e7e9d8E>
   22a1e:	9c03      	ldr	r4, [sp, #12]
   22a20:	1c60      	adds	r0, r4, #1
   22a22:	222a      	movs	r2, #42	@ 0x2a
   22a24:	9901      	ldr	r1, [sp, #4]
   22a26:	f004 f936 	bl	26c96 <__aeabi_memcpy>
   22a2a:	e7e5      	b.n	229f8 <_ZN20complex_full_dynamic3app17h9bbcd59cec8ed81cE+0x68>
   22a2c:	0000093c 	.word	0x0000093c

00022a30 <_ZN20complex_full_dynamic3app17h9f1af9e1962e4623E>:
   22a30:	b5f0      	push	{r4, r5, r6, r7, lr}
   22a32:	af03      	add	r7, sp, #12
   22a34:	b0a7      	sub	sp, #156	@ 0x9c
   22a36:	9004      	str	r0, [sp, #16]
   22a38:	ae05      	add	r6, sp, #20
   22a3a:	2502      	movs	r5, #2
   22a3c:	7235      	strb	r5, [r6, #8]
   22a3e:	4630      	mov	r0, r6
   22a40:	300c      	adds	r0, #12
   22a42:	223c      	movs	r2, #60	@ 0x3c
   22a44:	9203      	str	r2, [sp, #12]
   22a46:	f004 f926 	bl	26c96 <__aeabi_memcpy>
   22a4a:	ac17      	add	r4, sp, #92	@ 0x5c
   22a4c:	4620      	mov	r0, r4
   22a4e:	300c      	adds	r0, #12
   22a50:	2132      	movs	r1, #50	@ 0x32
   22a52:	9002      	str	r0, [sp, #8]
   22a54:	f003 ff72 	bl	2693c <__aeabi_memclr4>
   22a58:	7225      	strb	r5, [r4, #8]
   22a5a:	2006      	movs	r0, #6
   22a5c:	9000      	str	r0, [sp, #0]
   22a5e:	2204      	movs	r2, #4
   22a60:	4c1b      	ldr	r4, [pc, #108]	@ (22ad0 <_ZN20complex_full_dynamic3app17h9f1af9e1962e4623E+0xa0>)
   22a62:	4630      	mov	r0, r6
   22a64:	9903      	ldr	r1, [sp, #12]
   22a66:	4623      	mov	r3, r4
   22a68:	f7fd fb3c 	bl	200e4 <_ZN9allow_pin12full_dynamic15Buffer$LT$B$GT$5allow17h4466d99fb2bc5668E>
   22a6c:	07c0      	lsls	r0, r0, #31
   22a6e:	d111      	bne.n	22a94 <_ZN20complex_full_dynamic3app17h9f1af9e1962e4623E+0x64>
   22a70:	2008      	movs	r0, #8
   22a72:	9000      	str	r0, [sp, #0]
   22a74:	a817      	add	r0, sp, #92	@ 0x5c
   22a76:	2132      	movs	r1, #50	@ 0x32
   22a78:	2203      	movs	r2, #3
   22a7a:	4623      	mov	r3, r4
   22a7c:	f7fd fb32 	bl	200e4 <_ZN9allow_pin12full_dynamic15Buffer$LT$B$GT$5allow17h4466d99fb2bc5668E>
   22a80:	07c0      	lsls	r0, r0, #31
   22a82:	d107      	bne.n	22a94 <_ZN20complex_full_dynamic3app17h9f1af9e1962e4623E+0x64>
   22a84:	4812      	ldr	r0, [pc, #72]	@ (22ad0 <_ZN20complex_full_dynamic3app17h9f1af9e1962e4623E+0xa0>)
   22a86:	2106      	movs	r1, #6
   22a88:	2208      	movs	r2, #8
   22a8a:	2600      	movs	r6, #0
   22a8c:	4633      	mov	r3, r6
   22a8e:	df02      	svc	2
   22a90:	287f      	cmp	r0, #127	@ 0x7f
   22a92:	d80b      	bhi.n	22aac <_ZN20complex_full_dynamic3app17h9f1af9e1962e4623E+0x7c>
   22a94:	9c04      	ldr	r4, [sp, #16]
   22a96:	6061      	str	r1, [r4, #4]
   22a98:	2601      	movs	r6, #1
   22a9a:	7026      	strb	r6, [r4, #0]
   22a9c:	a817      	add	r0, sp, #92	@ 0x5c
   22a9e:	f003 ff39 	bl	26914 <_ZN9allow_pin12full_dynamic17unshare_if_shared17h1c062ce130e7e9d8E>
   22aa2:	a805      	add	r0, sp, #20
   22aa4:	f003 ff36 	bl	26914 <_ZN9allow_pin12full_dynamic17unshare_if_shared17h1c062ce130e7e9d8E>
   22aa8:	b027      	add	sp, #156	@ 0x9c
   22aaa:	bdf0      	pop	{r4, r5, r6, r7, pc}
   22aac:	a805      	add	r0, sp, #20
   22aae:	f003 ff31 	bl	26914 <_ZN9allow_pin12full_dynamic17unshare_if_shared17h1c062ce130e7e9d8E>
   22ab2:	ac17      	add	r4, sp, #92	@ 0x5c
   22ab4:	4620      	mov	r0, r4
   22ab6:	f003 ff2d 	bl	26914 <_ZN9allow_pin12full_dynamic17unshare_if_shared17h1c062ce130e7e9d8E>
   22aba:	4620      	mov	r0, r4
   22abc:	f003 ff2a 	bl	26914 <_ZN9allow_pin12full_dynamic17unshare_if_shared17h1c062ce130e7e9d8E>
   22ac0:	9c04      	ldr	r4, [sp, #16]
   22ac2:	1c60      	adds	r0, r4, #1
   22ac4:	2232      	movs	r2, #50	@ 0x32
   22ac6:	9902      	ldr	r1, [sp, #8]
   22ac8:	f004 f8e5 	bl	26c96 <__aeabi_memcpy>
   22acc:	e7e5      	b.n	22a9a <_ZN20complex_full_dynamic3app17h9f1af9e1962e4623E+0x6a>
   22ace:	46c0      	nop			@ (mov r8, r8)
   22ad0:	00001b1e 	.word	0x00001b1e

00022ad4 <_ZN20complex_full_dynamic3app17habc45aee12a39ae3E>:
   22ad4:	b5f0      	push	{r4, r5, r6, r7, lr}
   22ad6:	af03      	add	r7, sp, #12
   22ad8:	b0b3      	sub	sp, #204	@ 0xcc
   22ada:	9003      	str	r0, [sp, #12]
   22adc:	ae04      	add	r6, sp, #16
   22ade:	2502      	movs	r5, #2
   22ae0:	7235      	strb	r5, [r6, #8]
   22ae2:	4630      	mov	r0, r6
   22ae4:	300c      	adds	r0, #12
   22ae6:	2251      	movs	r2, #81	@ 0x51
   22ae8:	9202      	str	r2, [sp, #8]
   22aea:	f004 f8d4 	bl	26c96 <__aeabi_memcpy>
   22aee:	ac1c      	add	r4, sp, #112	@ 0x70
   22af0:	4620      	mov	r0, r4
   22af2:	300c      	adds	r0, #12
   22af4:	214f      	movs	r1, #79	@ 0x4f
   22af6:	9001      	str	r0, [sp, #4]
   22af8:	f003 ff20 	bl	2693c <__aeabi_memclr4>
   22afc:	7225      	strb	r5, [r4, #8]
   22afe:	9500      	str	r5, [sp, #0]
   22b00:	2504      	movs	r5, #4
   22b02:	4c1b      	ldr	r4, [pc, #108]	@ (22b70 <_ZN20complex_full_dynamic3app17habc45aee12a39ae3E+0x9c>)
   22b04:	4630      	mov	r0, r6
   22b06:	9902      	ldr	r1, [sp, #8]
   22b08:	462a      	mov	r2, r5
   22b0a:	4623      	mov	r3, r4
   22b0c:	f7fd faea 	bl	200e4 <_ZN9allow_pin12full_dynamic15Buffer$LT$B$GT$5allow17h4466d99fb2bc5668E>
   22b10:	07c0      	lsls	r0, r0, #31
   22b12:	d110      	bne.n	22b36 <_ZN20complex_full_dynamic3app17habc45aee12a39ae3E+0x62>
   22b14:	9500      	str	r5, [sp, #0]
   22b16:	a81c      	add	r0, sp, #112	@ 0x70
   22b18:	214f      	movs	r1, #79	@ 0x4f
   22b1a:	2203      	movs	r2, #3
   22b1c:	4623      	mov	r3, r4
   22b1e:	f7fd fae1 	bl	200e4 <_ZN9allow_pin12full_dynamic15Buffer$LT$B$GT$5allow17h4466d99fb2bc5668E>
   22b22:	07c0      	lsls	r0, r0, #31
   22b24:	d107      	bne.n	22b36 <_ZN20complex_full_dynamic3app17habc45aee12a39ae3E+0x62>
   22b26:	4812      	ldr	r0, [pc, #72]	@ (22b70 <_ZN20complex_full_dynamic3app17habc45aee12a39ae3E+0x9c>)
   22b28:	2102      	movs	r1, #2
   22b2a:	2204      	movs	r2, #4
   22b2c:	2600      	movs	r6, #0
   22b2e:	4633      	mov	r3, r6
   22b30:	df02      	svc	2
   22b32:	287f      	cmp	r0, #127	@ 0x7f
   22b34:	d80b      	bhi.n	22b4e <_ZN20complex_full_dynamic3app17habc45aee12a39ae3E+0x7a>
   22b36:	9c03      	ldr	r4, [sp, #12]
   22b38:	6061      	str	r1, [r4, #4]
   22b3a:	2601      	movs	r6, #1
   22b3c:	7026      	strb	r6, [r4, #0]
   22b3e:	a81c      	add	r0, sp, #112	@ 0x70
   22b40:	f003 fee8 	bl	26914 <_ZN9allow_pin12full_dynamic17unshare_if_shared17h1c062ce130e7e9d8E>
   22b44:	a804      	add	r0, sp, #16
   22b46:	f003 fee5 	bl	26914 <_ZN9allow_pin12full_dynamic17unshare_if_shared17h1c062ce130e7e9d8E>
   22b4a:	b033      	add	sp, #204	@ 0xcc
   22b4c:	bdf0      	pop	{r4, r5, r6, r7, pc}
   22b4e:	a804      	add	r0, sp, #16
   22b50:	f003 fee0 	bl	26914 <_ZN9allow_pin12full_dynamic17unshare_if_shared17h1c062ce130e7e9d8E>
   22b54:	ac1c      	add	r4, sp, #112	@ 0x70
   22b56:	4620      	mov	r0, r4
   22b58:	f003 fedc 	bl	26914 <_ZN9allow_pin12full_dynamic17unshare_if_shared17h1c062ce130e7e9d8E>
   22b5c:	4620      	mov	r0, r4
   22b5e:	f003 fed9 	bl	26914 <_ZN9allow_pin12full_dynamic17unshare_if_shared17h1c062ce130e7e9d8E>
   22b62:	9c03      	ldr	r4, [sp, #12]
   22b64:	1c60      	adds	r0, r4, #1
   22b66:	224f      	movs	r2, #79	@ 0x4f
   22b68:	9901      	ldr	r1, [sp, #4]
   22b6a:	f004 f894 	bl	26c96 <__aeabi_memcpy>
   22b6e:	e7e5      	b.n	22b3c <_ZN20complex_full_dynamic3app17habc45aee12a39ae3E+0x68>
   22b70:	00000e16 	.word	0x00000e16

00022b74 <_ZN20complex_full_dynamic3app17hadd231cbb8c39924E>:
   22b74:	b5f0      	push	{r4, r5, r6, r7, lr}
   22b76:	af03      	add	r7, sp, #12
   22b78:	b0ad      	sub	sp, #180	@ 0xb4
   22b7a:	9003      	str	r0, [sp, #12]
   22b7c:	ae04      	add	r6, sp, #16
   22b7e:	2502      	movs	r5, #2
   22b80:	7235      	strb	r5, [r6, #8]
   22b82:	4630      	mov	r0, r6
   22b84:	300c      	adds	r0, #12
   22b86:	2250      	movs	r2, #80	@ 0x50
   22b88:	9202      	str	r2, [sp, #8]
   22b8a:	f004 f884 	bl	26c96 <__aeabi_memcpy>
   22b8e:	ac1b      	add	r4, sp, #108	@ 0x6c
   22b90:	4620      	mov	r0, r4
   22b92:	300c      	adds	r0, #12
   22b94:	213c      	movs	r1, #60	@ 0x3c
   22b96:	9001      	str	r0, [sp, #4]
   22b98:	f003 fed0 	bl	2693c <__aeabi_memclr4>
   22b9c:	7225      	strb	r5, [r4, #8]
   22b9e:	2003      	movs	r0, #3
   22ba0:	9000      	str	r0, [sp, #0]
   22ba2:	2204      	movs	r2, #4
   22ba4:	4c1b      	ldr	r4, [pc, #108]	@ (22c14 <_ZN20complex_full_dynamic3app17hadd231cbb8c39924E+0xa0>)
   22ba6:	4630      	mov	r0, r6
   22ba8:	9902      	ldr	r1, [sp, #8]
   22baa:	4623      	mov	r3, r4
   22bac:	f7fd fa9a 	bl	200e4 <_ZN9allow_pin12full_dynamic15Buffer$LT$B$GT$5allow17h4466d99fb2bc5668E>
   22bb0:	07c0      	lsls	r0, r0, #31
   22bb2:	d111      	bne.n	22bd8 <_ZN20complex_full_dynamic3app17hadd231cbb8c39924E+0x64>
   22bb4:	2009      	movs	r0, #9
   22bb6:	9000      	str	r0, [sp, #0]
   22bb8:	a81b      	add	r0, sp, #108	@ 0x6c
   22bba:	213c      	movs	r1, #60	@ 0x3c
   22bbc:	2203      	movs	r2, #3
   22bbe:	4623      	mov	r3, r4
   22bc0:	f7fd fa90 	bl	200e4 <_ZN9allow_pin12full_dynamic15Buffer$LT$B$GT$5allow17h4466d99fb2bc5668E>
   22bc4:	07c0      	lsls	r0, r0, #31
   22bc6:	d107      	bne.n	22bd8 <_ZN20complex_full_dynamic3app17hadd231cbb8c39924E+0x64>
   22bc8:	4812      	ldr	r0, [pc, #72]	@ (22c14 <_ZN20complex_full_dynamic3app17hadd231cbb8c39924E+0xa0>)
   22bca:	2103      	movs	r1, #3
   22bcc:	2209      	movs	r2, #9
   22bce:	2600      	movs	r6, #0
   22bd0:	4633      	mov	r3, r6
   22bd2:	df02      	svc	2
   22bd4:	287f      	cmp	r0, #127	@ 0x7f
   22bd6:	d80b      	bhi.n	22bf0 <_ZN20complex_full_dynamic3app17hadd231cbb8c39924E+0x7c>
   22bd8:	9c03      	ldr	r4, [sp, #12]
   22bda:	6061      	str	r1, [r4, #4]
   22bdc:	2601      	movs	r6, #1
   22bde:	7026      	strb	r6, [r4, #0]
   22be0:	a81b      	add	r0, sp, #108	@ 0x6c
   22be2:	f003 fe97 	bl	26914 <_ZN9allow_pin12full_dynamic17unshare_if_shared17h1c062ce130e7e9d8E>
   22be6:	a804      	add	r0, sp, #16
   22be8:	f003 fe94 	bl	26914 <_ZN9allow_pin12full_dynamic17unshare_if_shared17h1c062ce130e7e9d8E>
   22bec:	b02d      	add	sp, #180	@ 0xb4
   22bee:	bdf0      	pop	{r4, r5, r6, r7, pc}
   22bf0:	a804      	add	r0, sp, #16
   22bf2:	f003 fe8f 	bl	26914 <_ZN9allow_pin12full_dynamic17unshare_if_shared17h1c062ce130e7e9d8E>
   22bf6:	ac1b      	add	r4, sp, #108	@ 0x6c
   22bf8:	4620      	mov	r0, r4
   22bfa:	f003 fe8b 	bl	26914 <_ZN9allow_pin12full_dynamic17unshare_if_shared17h1c062ce130e7e9d8E>
   22bfe:	4620      	mov	r0, r4
   22c00:	f003 fe88 	bl	26914 <_ZN9allow_pin12full_dynamic17unshare_if_shared17h1c062ce130e7e9d8E>
   22c04:	9c03      	ldr	r4, [sp, #12]
   22c06:	1c60      	adds	r0, r4, #1
   22c08:	223c      	movs	r2, #60	@ 0x3c
   22c0a:	9901      	ldr	r1, [sp, #4]
   22c0c:	f004 f843 	bl	26c96 <__aeabi_memcpy>
   22c10:	e7e5      	b.n	22bde <_ZN20complex_full_dynamic3app17hadd231cbb8c39924E+0x6a>
   22c12:	46c0      	nop			@ (mov r8, r8)
   22c14:	00000d7a 	.word	0x00000d7a

00022c18 <_ZN20complex_full_dynamic3app17hb08da5ee74f64565E>:
   22c18:	b5f0      	push	{r4, r5, r6, r7, lr}
   22c1a:	af03      	add	r7, sp, #12
   22c1c:	b0a9      	sub	sp, #164	@ 0xa4
   22c1e:	9004      	str	r0, [sp, #16]
   22c20:	ae05      	add	r6, sp, #20
   22c22:	2502      	movs	r5, #2
   22c24:	7235      	strb	r5, [r6, #8]
   22c26:	4630      	mov	r0, r6
   22c28:	300c      	adds	r0, #12
   22c2a:	2222      	movs	r2, #34	@ 0x22
   22c2c:	9203      	str	r2, [sp, #12]
   22c2e:	f004 f832 	bl	26c96 <__aeabi_memcpy>
   22c32:	ac11      	add	r4, sp, #68	@ 0x44
   22c34:	4620      	mov	r0, r4
   22c36:	300c      	adds	r0, #12
   22c38:	2151      	movs	r1, #81	@ 0x51
   22c3a:	9002      	str	r0, [sp, #8]
   22c3c:	f003 fe7e 	bl	2693c <__aeabi_memclr4>
   22c40:	7225      	strb	r5, [r4, #8]
   22c42:	2509      	movs	r5, #9
   22c44:	9500      	str	r5, [sp, #0]
   22c46:	2204      	movs	r2, #4
   22c48:	4c1a      	ldr	r4, [pc, #104]	@ (22cb4 <_ZN20complex_full_dynamic3app17hb08da5ee74f64565E+0x9c>)
   22c4a:	4630      	mov	r0, r6
   22c4c:	9903      	ldr	r1, [sp, #12]
   22c4e:	4623      	mov	r3, r4
   22c50:	f7fd fa48 	bl	200e4 <_ZN9allow_pin12full_dynamic15Buffer$LT$B$GT$5allow17h4466d99fb2bc5668E>
   22c54:	07c0      	lsls	r0, r0, #31
   22c56:	d110      	bne.n	22c7a <_ZN20complex_full_dynamic3app17hb08da5ee74f64565E+0x62>
   22c58:	9500      	str	r5, [sp, #0]
   22c5a:	a811      	add	r0, sp, #68	@ 0x44
   22c5c:	2151      	movs	r1, #81	@ 0x51
   22c5e:	2203      	movs	r2, #3
   22c60:	4623      	mov	r3, r4
   22c62:	f7fd fa3f 	bl	200e4 <_ZN9allow_pin12full_dynamic15Buffer$LT$B$GT$5allow17h4466d99fb2bc5668E>
   22c66:	07c0      	lsls	r0, r0, #31
   22c68:	d107      	bne.n	22c7a <_ZN20complex_full_dynamic3app17hb08da5ee74f64565E+0x62>
   22c6a:	4812      	ldr	r0, [pc, #72]	@ (22cb4 <_ZN20complex_full_dynamic3app17hb08da5ee74f64565E+0x9c>)
   22c6c:	2109      	movs	r1, #9
   22c6e:	2600      	movs	r6, #0
   22c70:	460a      	mov	r2, r1
   22c72:	4633      	mov	r3, r6
   22c74:	df02      	svc	2
   22c76:	287f      	cmp	r0, #127	@ 0x7f
   22c78:	d80b      	bhi.n	22c92 <_ZN20complex_full_dynamic3app17hb08da5ee74f64565E+0x7a>
   22c7a:	9c04      	ldr	r4, [sp, #16]
   22c7c:	6061      	str	r1, [r4, #4]
   22c7e:	2601      	movs	r6, #1
   22c80:	7026      	strb	r6, [r4, #0]
   22c82:	a811      	add	r0, sp, #68	@ 0x44
   22c84:	f003 fe46 	bl	26914 <_ZN9allow_pin12full_dynamic17unshare_if_shared17h1c062ce130e7e9d8E>
   22c88:	a805      	add	r0, sp, #20
   22c8a:	f003 fe43 	bl	26914 <_ZN9allow_pin12full_dynamic17unshare_if_shared17h1c062ce130e7e9d8E>
   22c8e:	b029      	add	sp, #164	@ 0xa4
   22c90:	bdf0      	pop	{r4, r5, r6, r7, pc}
   22c92:	a805      	add	r0, sp, #20
   22c94:	f003 fe3e 	bl	26914 <_ZN9allow_pin12full_dynamic17unshare_if_shared17h1c062ce130e7e9d8E>
   22c98:	ac11      	add	r4, sp, #68	@ 0x44
   22c9a:	4620      	mov	r0, r4
   22c9c:	f003 fe3a 	bl	26914 <_ZN9allow_pin12full_dynamic17unshare_if_shared17h1c062ce130e7e9d8E>
   22ca0:	4620      	mov	r0, r4
   22ca2:	f003 fe37 	bl	26914 <_ZN9allow_pin12full_dynamic17unshare_if_shared17h1c062ce130e7e9d8E>
   22ca6:	9c04      	ldr	r4, [sp, #16]
   22ca8:	1c60      	adds	r0, r4, #1
   22caa:	2251      	movs	r2, #81	@ 0x51
   22cac:	9902      	ldr	r1, [sp, #8]
   22cae:	f003 fff2 	bl	26c96 <__aeabi_memcpy>
   22cb2:	e7e5      	b.n	22c80 <_ZN20complex_full_dynamic3app17hb08da5ee74f64565E+0x68>
   22cb4:	0000055e 	.word	0x0000055e

00022cb8 <_ZN20complex_full_dynamic3app17hb1e898ea096ee4ecE>:
   22cb8:	b5f0      	push	{r4, r5, r6, r7, lr}
   22cba:	af03      	add	r7, sp, #12
   22cbc:	b0ab      	sub	sp, #172	@ 0xac
   22cbe:	9003      	str	r0, [sp, #12]
   22cc0:	ae04      	add	r6, sp, #16
   22cc2:	2402      	movs	r4, #2
   22cc4:	7234      	strb	r4, [r6, #8]
   22cc6:	4630      	mov	r0, r6
   22cc8:	300c      	adds	r0, #12
   22cca:	2261      	movs	r2, #97	@ 0x61
   22ccc:	9202      	str	r2, [sp, #8]
   22cce:	f003 ffe2 	bl	26c96 <__aeabi_memcpy>
   22cd2:	ad20      	add	r5, sp, #128	@ 0x80
   22cd4:	4628      	mov	r0, r5
   22cd6:	300c      	adds	r0, #12
   22cd8:	211e      	movs	r1, #30
   22cda:	9001      	str	r0, [sp, #4]
   22cdc:	f003 fe2e 	bl	2693c <__aeabi_memclr4>
   22ce0:	722c      	strb	r4, [r5, #8]
   22ce2:	2204      	movs	r2, #4
   22ce4:	9200      	str	r2, [sp, #0]
   22ce6:	2031      	movs	r0, #49	@ 0x31
   22ce8:	00c4      	lsls	r4, r0, #3
   22cea:	4630      	mov	r0, r6
   22cec:	9902      	ldr	r1, [sp, #8]
   22cee:	4623      	mov	r3, r4
   22cf0:	f7fd f9f8 	bl	200e4 <_ZN9allow_pin12full_dynamic15Buffer$LT$B$GT$5allow17h4466d99fb2bc5668E>
   22cf4:	07c0      	lsls	r0, r0, #31
   22cf6:	d111      	bne.n	22d1c <_ZN20complex_full_dynamic3app17hb1e898ea096ee4ecE+0x64>
   22cf8:	2006      	movs	r0, #6
   22cfa:	9000      	str	r0, [sp, #0]
   22cfc:	a820      	add	r0, sp, #128	@ 0x80
   22cfe:	211e      	movs	r1, #30
   22d00:	2203      	movs	r2, #3
   22d02:	4623      	mov	r3, r4
   22d04:	f7fd f9ee 	bl	200e4 <_ZN9allow_pin12full_dynamic15Buffer$LT$B$GT$5allow17h4466d99fb2bc5668E>
   22d08:	07c0      	lsls	r0, r0, #31
   22d0a:	d107      	bne.n	22d1c <_ZN20complex_full_dynamic3app17hb1e898ea096ee4ecE+0x64>
   22d0c:	2104      	movs	r1, #4
   22d0e:	2206      	movs	r2, #6
   22d10:	2600      	movs	r6, #0
   22d12:	4620      	mov	r0, r4
   22d14:	4633      	mov	r3, r6
   22d16:	df02      	svc	2
   22d18:	287f      	cmp	r0, #127	@ 0x7f
   22d1a:	d80b      	bhi.n	22d34 <_ZN20complex_full_dynamic3app17hb1e898ea096ee4ecE+0x7c>
   22d1c:	9c03      	ldr	r4, [sp, #12]
   22d1e:	6061      	str	r1, [r4, #4]
   22d20:	2601      	movs	r6, #1
   22d22:	7026      	strb	r6, [r4, #0]
   22d24:	a820      	add	r0, sp, #128	@ 0x80
   22d26:	f003 fdf5 	bl	26914 <_ZN9allow_pin12full_dynamic17unshare_if_shared17h1c062ce130e7e9d8E>
   22d2a:	a804      	add	r0, sp, #16
   22d2c:	f003 fdf2 	bl	26914 <_ZN9allow_pin12full_dynamic17unshare_if_shared17h1c062ce130e7e9d8E>
   22d30:	b02b      	add	sp, #172	@ 0xac
   22d32:	bdf0      	pop	{r4, r5, r6, r7, pc}
   22d34:	a804      	add	r0, sp, #16
   22d36:	f003 fded 	bl	26914 <_ZN9allow_pin12full_dynamic17unshare_if_shared17h1c062ce130e7e9d8E>
   22d3a:	ac20      	add	r4, sp, #128	@ 0x80
   22d3c:	4620      	mov	r0, r4
   22d3e:	f003 fde9 	bl	26914 <_ZN9allow_pin12full_dynamic17unshare_if_shared17h1c062ce130e7e9d8E>
   22d42:	4620      	mov	r0, r4
   22d44:	f003 fde6 	bl	26914 <_ZN9allow_pin12full_dynamic17unshare_if_shared17h1c062ce130e7e9d8E>
   22d48:	9c03      	ldr	r4, [sp, #12]
   22d4a:	1c60      	adds	r0, r4, #1
   22d4c:	221e      	movs	r2, #30
   22d4e:	9901      	ldr	r1, [sp, #4]
   22d50:	f003 ffa1 	bl	26c96 <__aeabi_memcpy>
   22d54:	e7e5      	b.n	22d22 <_ZN20complex_full_dynamic3app17hb1e898ea096ee4ecE+0x6a>
   22d56:	d4d4      	bmi.n	22d02 <_ZN20complex_full_dynamic3app17hb1e898ea096ee4ecE+0x4a>

00022d58 <_ZN20complex_full_dynamic3app17hb4c4b37f862a3b25E>:
   22d58:	b5f0      	push	{r4, r5, r6, r7, lr}
   22d5a:	af03      	add	r7, sp, #12
   22d5c:	b0ab      	sub	sp, #172	@ 0xac
   22d5e:	9004      	str	r0, [sp, #16]
   22d60:	ae05      	add	r6, sp, #20
   22d62:	2502      	movs	r5, #2
   22d64:	7235      	strb	r5, [r6, #8]
   22d66:	4630      	mov	r0, r6
   22d68:	300c      	adds	r0, #12
   22d6a:	221b      	movs	r2, #27
   22d6c:	9203      	str	r2, [sp, #12]
   22d6e:	f003 ff92 	bl	26c96 <__aeabi_memcpy>
   22d72:	ac0f      	add	r4, sp, #60	@ 0x3c
   22d74:	4620      	mov	r0, r4
   22d76:	300c      	adds	r0, #12
   22d78:	2163      	movs	r1, #99	@ 0x63
   22d7a:	9002      	str	r0, [sp, #8]
   22d7c:	f003 fdde 	bl	2693c <__aeabi_memclr4>
   22d80:	7225      	strb	r5, [r4, #8]
   22d82:	2503      	movs	r5, #3
   22d84:	9500      	str	r5, [sp, #0]
   22d86:	2204      	movs	r2, #4
   22d88:	4c1a      	ldr	r4, [pc, #104]	@ (22df4 <_ZN20complex_full_dynamic3app17hb4c4b37f862a3b25E+0x9c>)
   22d8a:	4630      	mov	r0, r6
   22d8c:	9903      	ldr	r1, [sp, #12]
   22d8e:	4623      	mov	r3, r4
   22d90:	f7fd f9a8 	bl	200e4 <_ZN9allow_pin12full_dynamic15Buffer$LT$B$GT$5allow17h4466d99fb2bc5668E>
   22d94:	07c0      	lsls	r0, r0, #31
   22d96:	d110      	bne.n	22dba <_ZN20complex_full_dynamic3app17hb4c4b37f862a3b25E+0x62>
   22d98:	9500      	str	r5, [sp, #0]
   22d9a:	a80f      	add	r0, sp, #60	@ 0x3c
   22d9c:	2163      	movs	r1, #99	@ 0x63
   22d9e:	462a      	mov	r2, r5
   22da0:	4623      	mov	r3, r4
   22da2:	f7fd f99f 	bl	200e4 <_ZN9allow_pin12full_dynamic15Buffer$LT$B$GT$5allow17h4466d99fb2bc5668E>
   22da6:	07c0      	lsls	r0, r0, #31
   22da8:	d107      	bne.n	22dba <_ZN20complex_full_dynamic3app17hb4c4b37f862a3b25E+0x62>
   22daa:	4812      	ldr	r0, [pc, #72]	@ (22df4 <_ZN20complex_full_dynamic3app17hb4c4b37f862a3b25E+0x9c>)
   22dac:	2103      	movs	r1, #3
   22dae:	2600      	movs	r6, #0
   22db0:	460a      	mov	r2, r1
   22db2:	4633      	mov	r3, r6
   22db4:	df02      	svc	2
   22db6:	287f      	cmp	r0, #127	@ 0x7f
   22db8:	d80b      	bhi.n	22dd2 <_ZN20complex_full_dynamic3app17hb4c4b37f862a3b25E+0x7a>
   22dba:	9c04      	ldr	r4, [sp, #16]
   22dbc:	6061      	str	r1, [r4, #4]
   22dbe:	2601      	movs	r6, #1
   22dc0:	7026      	strb	r6, [r4, #0]
   22dc2:	a80f      	add	r0, sp, #60	@ 0x3c
   22dc4:	f003 fda6 	bl	26914 <_ZN9allow_pin12full_dynamic17unshare_if_shared17h1c062ce130e7e9d8E>
   22dc8:	a805      	add	r0, sp, #20
   22dca:	f003 fda3 	bl	26914 <_ZN9allow_pin12full_dynamic17unshare_if_shared17h1c062ce130e7e9d8E>
   22dce:	b02b      	add	sp, #172	@ 0xac
   22dd0:	bdf0      	pop	{r4, r5, r6, r7, pc}
   22dd2:	a805      	add	r0, sp, #20
   22dd4:	f003 fd9e 	bl	26914 <_ZN9allow_pin12full_dynamic17unshare_if_shared17h1c062ce130e7e9d8E>
   22dd8:	ac0f      	add	r4, sp, #60	@ 0x3c
   22dda:	4620      	mov	r0, r4
   22ddc:	f003 fd9a 	bl	26914 <_ZN9allow_pin12full_dynamic17unshare_if_shared17h1c062ce130e7e9d8E>
   22de0:	4620      	mov	r0, r4
   22de2:	f003 fd97 	bl	26914 <_ZN9allow_pin12full_dynamic17unshare_if_shared17h1c062ce130e7e9d8E>
   22de6:	9c04      	ldr	r4, [sp, #16]
   22de8:	1c60      	adds	r0, r4, #1
   22dea:	2263      	movs	r2, #99	@ 0x63
   22dec:	9902      	ldr	r1, [sp, #8]
   22dee:	f003 ff52 	bl	26c96 <__aeabi_memcpy>
   22df2:	e7e5      	b.n	22dc0 <_ZN20complex_full_dynamic3app17hb4c4b37f862a3b25E+0x68>
   22df4:	00002548 	.word	0x00002548

00022df8 <_ZN20complex_full_dynamic3app17hbc725252ec683df5E>:
   22df8:	b5f0      	push	{r4, r5, r6, r7, lr}
   22dfa:	af03      	add	r7, sp, #12
   22dfc:	b09d      	sub	sp, #116	@ 0x74
   22dfe:	9004      	str	r0, [sp, #16]
   22e00:	ae05      	add	r6, sp, #20
   22e02:	2502      	movs	r5, #2
   22e04:	7235      	strb	r5, [r6, #8]
   22e06:	4630      	mov	r0, r6
   22e08:	300c      	adds	r0, #12
   22e0a:	2236      	movs	r2, #54	@ 0x36
   22e0c:	9203      	str	r2, [sp, #12]
   22e0e:	f003 ff42 	bl	26c96 <__aeabi_memcpy>
   22e12:	ac16      	add	r4, sp, #88	@ 0x58
   22e14:	4620      	mov	r0, r4
   22e16:	300c      	adds	r0, #12
   22e18:	210f      	movs	r1, #15
   22e1a:	9002      	str	r0, [sp, #8]
   22e1c:	f003 fd8e 	bl	2693c <__aeabi_memclr4>
   22e20:	7225      	strb	r5, [r4, #8]
   22e22:	2005      	movs	r0, #5
   22e24:	9000      	str	r0, [sp, #0]
   22e26:	2204      	movs	r2, #4
   22e28:	4c1a      	ldr	r4, [pc, #104]	@ (22e94 <_ZN20complex_full_dynamic3app17hbc725252ec683df5E+0x9c>)
   22e2a:	4630      	mov	r0, r6
   22e2c:	9903      	ldr	r1, [sp, #12]
   22e2e:	4623      	mov	r3, r4
   22e30:	f7fd f958 	bl	200e4 <_ZN9allow_pin12full_dynamic15Buffer$LT$B$GT$5allow17h4466d99fb2bc5668E>
   22e34:	07c0      	lsls	r0, r0, #31
   22e36:	d110      	bne.n	22e5a <_ZN20complex_full_dynamic3app17hbc725252ec683df5E+0x62>
   22e38:	2203      	movs	r2, #3
   22e3a:	9200      	str	r2, [sp, #0]
   22e3c:	a816      	add	r0, sp, #88	@ 0x58
   22e3e:	210f      	movs	r1, #15
   22e40:	4623      	mov	r3, r4
   22e42:	f7fd f94f 	bl	200e4 <_ZN9allow_pin12full_dynamic15Buffer$LT$B$GT$5allow17h4466d99fb2bc5668E>
   22e46:	07c0      	lsls	r0, r0, #31
   22e48:	d107      	bne.n	22e5a <_ZN20complex_full_dynamic3app17hbc725252ec683df5E+0x62>
   22e4a:	4812      	ldr	r0, [pc, #72]	@ (22e94 <_ZN20complex_full_dynamic3app17hbc725252ec683df5E+0x9c>)
   22e4c:	2105      	movs	r1, #5
   22e4e:	2203      	movs	r2, #3
   22e50:	2600      	movs	r6, #0
   22e52:	4633      	mov	r3, r6
   22e54:	df02      	svc	2
   22e56:	287f      	cmp	r0, #127	@ 0x7f
   22e58:	d80b      	bhi.n	22e72 <_ZN20complex_full_dynamic3app17hbc725252ec683df5E+0x7a>
   22e5a:	9c04      	ldr	r4, [sp, #16]
   22e5c:	6061      	str	r1, [r4, #4]
   22e5e:	2601      	movs	r6, #1
   22e60:	7026      	strb	r6, [r4, #0]
   22e62:	a816      	add	r0, sp, #88	@ 0x58
   22e64:	f003 fd56 	bl	26914 <_ZN9allow_pin12full_dynamic17unshare_if_shared17h1c062ce130e7e9d8E>
   22e68:	a805      	add	r0, sp, #20
   22e6a:	f003 fd53 	bl	26914 <_ZN9allow_pin12full_dynamic17unshare_if_shared17h1c062ce130e7e9d8E>
   22e6e:	b01d      	add	sp, #116	@ 0x74
   22e70:	bdf0      	pop	{r4, r5, r6, r7, pc}
   22e72:	a805      	add	r0, sp, #20
   22e74:	f003 fd4e 	bl	26914 <_ZN9allow_pin12full_dynamic17unshare_if_shared17h1c062ce130e7e9d8E>
   22e78:	ac16      	add	r4, sp, #88	@ 0x58
   22e7a:	4620      	mov	r0, r4
   22e7c:	f003 fd4a 	bl	26914 <_ZN9allow_pin12full_dynamic17unshare_if_shared17h1c062ce130e7e9d8E>
   22e80:	4620      	mov	r0, r4
   22e82:	f003 fd47 	bl	26914 <_ZN9allow_pin12full_dynamic17unshare_if_shared17h1c062ce130e7e9d8E>
   22e86:	9c04      	ldr	r4, [sp, #16]
   22e88:	1c60      	adds	r0, r4, #1
   22e8a:	220f      	movs	r2, #15
   22e8c:	9902      	ldr	r1, [sp, #8]
   22e8e:	f003 ff02 	bl	26c96 <__aeabi_memcpy>
   22e92:	e7e5      	b.n	22e60 <_ZN20complex_full_dynamic3app17hbc725252ec683df5E+0x68>
   22e94:	00000653 	.word	0x00000653

00022e98 <_ZN20complex_full_dynamic3app17hbe3defac5283fb14E>:
   22e98:	b5f0      	push	{r4, r5, r6, r7, lr}
   22e9a:	af03      	add	r7, sp, #12
   22e9c:	b0a7      	sub	sp, #156	@ 0x9c
   22e9e:	9005      	str	r0, [sp, #20]
   22ea0:	ae06      	add	r6, sp, #24
   22ea2:	2402      	movs	r4, #2
   22ea4:	7234      	strb	r4, [r6, #8]
   22ea6:	4630      	mov	r0, r6
   22ea8:	300c      	adds	r0, #12
   22eaa:	2250      	movs	r2, #80	@ 0x50
   22eac:	9204      	str	r2, [sp, #16]
   22eae:	f003 fef2 	bl	26c96 <__aeabi_memcpy>
   22eb2:	ad1d      	add	r5, sp, #116	@ 0x74
   22eb4:	4628      	mov	r0, r5
   22eb6:	300c      	adds	r0, #12
   22eb8:	211b      	movs	r1, #27
   22eba:	9002      	str	r0, [sp, #8]
   22ebc:	f003 fd3e 	bl	2693c <__aeabi_memclr4>
   22ec0:	9403      	str	r4, [sp, #12]
   22ec2:	722c      	strb	r4, [r5, #8]
   22ec4:	2501      	movs	r5, #1
   22ec6:	9500      	str	r5, [sp, #0]
   22ec8:	2204      	movs	r2, #4
   22eca:	4c1b      	ldr	r4, [pc, #108]	@ (22f38 <_ZN20complex_full_dynamic3app17hbe3defac5283fb14E+0xa0>)
   22ecc:	4630      	mov	r0, r6
   22ece:	9904      	ldr	r1, [sp, #16]
   22ed0:	4623      	mov	r3, r4
   22ed2:	f7fd f907 	bl	200e4 <_ZN9allow_pin12full_dynamic15Buffer$LT$B$GT$5allow17h4466d99fb2bc5668E>
   22ed6:	07c0      	lsls	r0, r0, #31
   22ed8:	d111      	bne.n	22efe <_ZN20complex_full_dynamic3app17hbe3defac5283fb14E+0x66>
   22eda:	9803      	ldr	r0, [sp, #12]
   22edc:	9000      	str	r0, [sp, #0]
   22ede:	a81d      	add	r0, sp, #116	@ 0x74
   22ee0:	211b      	movs	r1, #27
   22ee2:	2203      	movs	r2, #3
   22ee4:	4623      	mov	r3, r4
   22ee6:	f7fd f8fd 	bl	200e4 <_ZN9allow_pin12full_dynamic15Buffer$LT$B$GT$5allow17h4466d99fb2bc5668E>
   22eea:	07c0      	lsls	r0, r0, #31
   22eec:	d107      	bne.n	22efe <_ZN20complex_full_dynamic3app17hbe3defac5283fb14E+0x66>
   22eee:	4812      	ldr	r0, [pc, #72]	@ (22f38 <_ZN20complex_full_dynamic3app17hbe3defac5283fb14E+0xa0>)
   22ef0:	2101      	movs	r1, #1
   22ef2:	2202      	movs	r2, #2
   22ef4:	2600      	movs	r6, #0
   22ef6:	4633      	mov	r3, r6
   22ef8:	df02      	svc	2
   22efa:	287f      	cmp	r0, #127	@ 0x7f
   22efc:	d80a      	bhi.n	22f14 <_ZN20complex_full_dynamic3app17hbe3defac5283fb14E+0x7c>
   22efe:	9c05      	ldr	r4, [sp, #20]
   22f00:	6061      	str	r1, [r4, #4]
   22f02:	7025      	strb	r5, [r4, #0]
   22f04:	a81d      	add	r0, sp, #116	@ 0x74
   22f06:	f003 fd05 	bl	26914 <_ZN9allow_pin12full_dynamic17unshare_if_shared17h1c062ce130e7e9d8E>
   22f0a:	a806      	add	r0, sp, #24
   22f0c:	f003 fd02 	bl	26914 <_ZN9allow_pin12full_dynamic17unshare_if_shared17h1c062ce130e7e9d8E>
   22f10:	b027      	add	sp, #156	@ 0x9c
   22f12:	bdf0      	pop	{r4, r5, r6, r7, pc}
   22f14:	a806      	add	r0, sp, #24
   22f16:	f003 fcfd 	bl	26914 <_ZN9allow_pin12full_dynamic17unshare_if_shared17h1c062ce130e7e9d8E>
   22f1a:	ac1d      	add	r4, sp, #116	@ 0x74
   22f1c:	4620      	mov	r0, r4
   22f1e:	f003 fcf9 	bl	26914 <_ZN9allow_pin12full_dynamic17unshare_if_shared17h1c062ce130e7e9d8E>
   22f22:	4620      	mov	r0, r4
   22f24:	f003 fcf6 	bl	26914 <_ZN9allow_pin12full_dynamic17unshare_if_shared17h1c062ce130e7e9d8E>
   22f28:	9c05      	ldr	r4, [sp, #20]
   22f2a:	1c60      	adds	r0, r4, #1
   22f2c:	221b      	movs	r2, #27
   22f2e:	9902      	ldr	r1, [sp, #8]
   22f30:	f003 feb1 	bl	26c96 <__aeabi_memcpy>
   22f34:	4635      	mov	r5, r6
   22f36:	e7e4      	b.n	22f02 <_ZN20complex_full_dynamic3app17hbe3defac5283fb14E+0x6a>
   22f38:	000003d9 	.word	0x000003d9

00022f3c <_ZN20complex_full_dynamic3app17hc48617cc7d241585E>:
   22f3c:	b5f0      	push	{r4, r5, r6, r7, lr}
   22f3e:	af03      	add	r7, sp, #12
   22f40:	b0a9      	sub	sp, #164	@ 0xa4
   22f42:	9003      	str	r0, [sp, #12]
   22f44:	ae04      	add	r6, sp, #16
   22f46:	2502      	movs	r5, #2
   22f48:	7235      	strb	r5, [r6, #8]
   22f4a:	4630      	mov	r0, r6
   22f4c:	300c      	adds	r0, #12
   22f4e:	221c      	movs	r2, #28
   22f50:	9202      	str	r2, [sp, #8]
   22f52:	f003 fea0 	bl	26c96 <__aeabi_memcpy>
   22f56:	ac0e      	add	r4, sp, #56	@ 0x38
   22f58:	4620      	mov	r0, r4
   22f5a:	300c      	adds	r0, #12
   22f5c:	215d      	movs	r1, #93	@ 0x5d
   22f5e:	9001      	str	r0, [sp, #4]
   22f60:	f003 fcec 	bl	2693c <__aeabi_memclr4>
   22f64:	7225      	strb	r5, [r4, #8]
   22f66:	2008      	movs	r0, #8
   22f68:	9000      	str	r0, [sp, #0]
   22f6a:	2204      	movs	r2, #4
   22f6c:	4c1b      	ldr	r4, [pc, #108]	@ (22fdc <_ZN20complex_full_dynamic3app17hc48617cc7d241585E+0xa0>)
   22f6e:	4630      	mov	r0, r6
   22f70:	9902      	ldr	r1, [sp, #8]
   22f72:	4623      	mov	r3, r4
   22f74:	f7fd f8b6 	bl	200e4 <_ZN9allow_pin12full_dynamic15Buffer$LT$B$GT$5allow17h4466d99fb2bc5668E>
   22f78:	07c0      	lsls	r0, r0, #31
   22f7a:	d111      	bne.n	22fa0 <_ZN20complex_full_dynamic3app17hc48617cc7d241585E+0x64>
   22f7c:	2005      	movs	r0, #5
   22f7e:	9000      	str	r0, [sp, #0]
   22f80:	a80e      	add	r0, sp, #56	@ 0x38
   22f82:	215d      	movs	r1, #93	@ 0x5d
   22f84:	2203      	movs	r2, #3
   22f86:	4623      	mov	r3, r4
   22f88:	f7fd f8ac 	bl	200e4 <_ZN9allow_pin12full_dynamic15Buffer$LT$B$GT$5allow17h4466d99fb2bc5668E>
   22f8c:	07c0      	lsls	r0, r0, #31
   22f8e:	d107      	bne.n	22fa0 <_ZN20complex_full_dynamic3app17hc48617cc7d241585E+0x64>
   22f90:	4812      	ldr	r0, [pc, #72]	@ (22fdc <_ZN20complex_full_dynamic3app17hc48617cc7d241585E+0xa0>)
   22f92:	2108      	movs	r1, #8
   22f94:	2205      	movs	r2, #5
   22f96:	2600      	movs	r6, #0
   22f98:	4633      	mov	r3, r6
   22f9a:	df02      	svc	2
   22f9c:	287f      	cmp	r0, #127	@ 0x7f
   22f9e:	d80b      	bhi.n	22fb8 <_ZN20complex_full_dynamic3app17hc48617cc7d241585E+0x7c>
   22fa0:	9c03      	ldr	r4, [sp, #12]
   22fa2:	6061      	str	r1, [r4, #4]
   22fa4:	2601      	movs	r6, #1
   22fa6:	7026      	strb	r6, [r4, #0]
   22fa8:	a80e      	add	r0, sp, #56	@ 0x38
   22faa:	f003 fcb3 	bl	26914 <_ZN9allow_pin12full_dynamic17unshare_if_shared17h1c062ce130e7e9d8E>
   22fae:	a804      	add	r0, sp, #16
   22fb0:	f003 fcb0 	bl	26914 <_ZN9allow_pin12full_dynamic17unshare_if_shared17h1c062ce130e7e9d8E>
   22fb4:	b029      	add	sp, #164	@ 0xa4
   22fb6:	bdf0      	pop	{r4, r5, r6, r7, pc}
   22fb8:	a804      	add	r0, sp, #16
   22fba:	f003 fcab 	bl	26914 <_ZN9allow_pin12full_dynamic17unshare_if_shared17h1c062ce130e7e9d8E>
   22fbe:	ac0e      	add	r4, sp, #56	@ 0x38
   22fc0:	4620      	mov	r0, r4
   22fc2:	f003 fca7 	bl	26914 <_ZN9allow_pin12full_dynamic17unshare_if_shared17h1c062ce130e7e9d8E>
   22fc6:	4620      	mov	r0, r4
   22fc8:	f003 fca4 	bl	26914 <_ZN9allow_pin12full_dynamic17unshare_if_shared17h1c062ce130e7e9d8E>
   22fcc:	9c03      	ldr	r4, [sp, #12]
   22fce:	1c60      	adds	r0, r4, #1
   22fd0:	225d      	movs	r2, #93	@ 0x5d
   22fd2:	9901      	ldr	r1, [sp, #4]
   22fd4:	f003 fe5f 	bl	26c96 <__aeabi_memcpy>
   22fd8:	e7e5      	b.n	22fa6 <_ZN20complex_full_dynamic3app17hc48617cc7d241585E+0x6a>
   22fda:	46c0      	nop			@ (mov r8, r8)
   22fdc:	00000c3e 	.word	0x00000c3e

00022fe0 <_ZN20complex_full_dynamic3app17hc6f4002819f8203cE>:
   22fe0:	b5f0      	push	{r4, r5, r6, r7, lr}
   22fe2:	af03      	add	r7, sp, #12
   22fe4:	b09f      	sub	sp, #124	@ 0x7c
   22fe6:	9004      	str	r0, [sp, #16]
   22fe8:	ae05      	add	r6, sp, #20
   22fea:	2502      	movs	r5, #2
   22fec:	7235      	strb	r5, [r6, #8]
   22fee:	4630      	mov	r0, r6
   22ff0:	300c      	adds	r0, #12
   22ff2:	2223      	movs	r2, #35	@ 0x23
   22ff4:	9203      	str	r2, [sp, #12]
   22ff6:	f003 fe4e 	bl	26c96 <__aeabi_memcpy>
   22ffa:	ac11      	add	r4, sp, #68	@ 0x44
   22ffc:	4620      	mov	r0, r4
   22ffe:	300c      	adds	r0, #12
   23000:	212b      	movs	r1, #43	@ 0x2b
   23002:	9002      	str	r0, [sp, #8]
   23004:	f003 fc9a 	bl	2693c <__aeabi_memclr4>
   23008:	7225      	strb	r5, [r4, #8]
   2300a:	9500      	str	r5, [sp, #0]
   2300c:	2204      	movs	r2, #4
   2300e:	4c1b      	ldr	r4, [pc, #108]	@ (2307c <_ZN20complex_full_dynamic3app17hc6f4002819f8203cE+0x9c>)
   23010:	4630      	mov	r0, r6
   23012:	9903      	ldr	r1, [sp, #12]
   23014:	4623      	mov	r3, r4
   23016:	f7fd f865 	bl	200e4 <_ZN9allow_pin12full_dynamic15Buffer$LT$B$GT$5allow17h4466d99fb2bc5668E>
   2301a:	07c0      	lsls	r0, r0, #31
   2301c:	d111      	bne.n	23042 <_ZN20complex_full_dynamic3app17hc6f4002819f8203cE+0x62>
   2301e:	2000      	movs	r0, #0
   23020:	9000      	str	r0, [sp, #0]
   23022:	a811      	add	r0, sp, #68	@ 0x44
   23024:	212b      	movs	r1, #43	@ 0x2b
   23026:	2203      	movs	r2, #3
   23028:	4623      	mov	r3, r4
   2302a:	f7fd f85b 	bl	200e4 <_ZN9allow_pin12full_dynamic15Buffer$LT$B$GT$5allow17h4466d99fb2bc5668E>
   2302e:	07c0      	lsls	r0, r0, #31
   23030:	d107      	bne.n	23042 <_ZN20complex_full_dynamic3app17hc6f4002819f8203cE+0x62>
   23032:	4812      	ldr	r0, [pc, #72]	@ (2307c <_ZN20complex_full_dynamic3app17hc6f4002819f8203cE+0x9c>)
   23034:	2102      	movs	r1, #2
   23036:	2600      	movs	r6, #0
   23038:	4632      	mov	r2, r6
   2303a:	4633      	mov	r3, r6
   2303c:	df02      	svc	2
   2303e:	287f      	cmp	r0, #127	@ 0x7f
   23040:	d80b      	bhi.n	2305a <_ZN20complex_full_dynamic3app17hc6f4002819f8203cE+0x7a>
   23042:	9c04      	ldr	r4, [sp, #16]
   23044:	6061      	str	r1, [r4, #4]
   23046:	2601      	movs	r6, #1
   23048:	7026      	strb	r6, [r4, #0]
   2304a:	a811      	add	r0, sp, #68	@ 0x44
   2304c:	f003 fc62 	bl	26914 <_ZN9allow_pin12full_dynamic17unshare_if_shared17h1c062ce130e7e9d8E>
   23050:	a805      	add	r0, sp, #20
   23052:	f003 fc5f 	bl	26914 <_ZN9allow_pin12full_dynamic17unshare_if_shared17h1c062ce130e7e9d8E>
   23056:	b01f      	add	sp, #124	@ 0x7c
   23058:	bdf0      	pop	{r4, r5, r6, r7, pc}
   2305a:	a805      	add	r0, sp, #20
   2305c:	f003 fc5a 	bl	26914 <_ZN9allow_pin12full_dynamic17unshare_if_shared17h1c062ce130e7e9d8E>
   23060:	ac11      	add	r4, sp, #68	@ 0x44
   23062:	4620      	mov	r0, r4
   23064:	f003 fc56 	bl	26914 <_ZN9allow_pin12full_dynamic17unshare_if_shared17h1c062ce130e7e9d8E>
   23068:	4620      	mov	r0, r4
   2306a:	f003 fc53 	bl	26914 <_ZN9allow_pin12full_dynamic17unshare_if_shared17h1c062ce130e7e9d8E>
   2306e:	9c04      	ldr	r4, [sp, #16]
   23070:	1c60      	adds	r0, r4, #1
   23072:	222b      	movs	r2, #43	@ 0x2b
   23074:	9902      	ldr	r1, [sp, #8]
   23076:	f003 fe0e 	bl	26c96 <__aeabi_memcpy>
   2307a:	e7e5      	b.n	23048 <_ZN20complex_full_dynamic3app17hc6f4002819f8203cE+0x68>
   2307c:	00000d5d 	.word	0x00000d5d

00023080 <_ZN20complex_full_dynamic3app17hc999bf8838f001d9E>:
   23080:	b5f0      	push	{r4, r5, r6, r7, lr}
   23082:	af03      	add	r7, sp, #12
   23084:	b09f      	sub	sp, #124	@ 0x7c
   23086:	9004      	str	r0, [sp, #16]
   23088:	ae05      	add	r6, sp, #20
   2308a:	2502      	movs	r5, #2
   2308c:	7235      	strb	r5, [r6, #8]
   2308e:	4630      	mov	r0, r6
   23090:	300c      	adds	r0, #12
   23092:	2234      	movs	r2, #52	@ 0x34
   23094:	9203      	str	r2, [sp, #12]
   23096:	f003 fdfe 	bl	26c96 <__aeabi_memcpy>
   2309a:	ac15      	add	r4, sp, #84	@ 0x54
   2309c:	4620      	mov	r0, r4
   2309e:	300c      	adds	r0, #12
   230a0:	211a      	movs	r1, #26
   230a2:	9002      	str	r0, [sp, #8]
   230a4:	f003 fc4a 	bl	2693c <__aeabi_memclr4>
   230a8:	7225      	strb	r5, [r4, #8]
   230aa:	2000      	movs	r0, #0
   230ac:	9000      	str	r0, [sp, #0]
   230ae:	2204      	movs	r2, #4
   230b0:	4c1b      	ldr	r4, [pc, #108]	@ (23120 <_ZN20complex_full_dynamic3app17hc999bf8838f001d9E+0xa0>)
   230b2:	4630      	mov	r0, r6
   230b4:	9903      	ldr	r1, [sp, #12]
   230b6:	4623      	mov	r3, r4
   230b8:	f7fd f814 	bl	200e4 <_ZN9allow_pin12full_dynamic15Buffer$LT$B$GT$5allow17h4466d99fb2bc5668E>
   230bc:	07c0      	lsls	r0, r0, #31
   230be:	d111      	bne.n	230e4 <_ZN20complex_full_dynamic3app17hc999bf8838f001d9E+0x64>
   230c0:	2005      	movs	r0, #5
   230c2:	9000      	str	r0, [sp, #0]
   230c4:	a815      	add	r0, sp, #84	@ 0x54
   230c6:	211a      	movs	r1, #26
   230c8:	2203      	movs	r2, #3
   230ca:	4623      	mov	r3, r4
   230cc:	f7fd f80a 	bl	200e4 <_ZN9allow_pin12full_dynamic15Buffer$LT$B$GT$5allow17h4466d99fb2bc5668E>
   230d0:	07c0      	lsls	r0, r0, #31
   230d2:	d107      	bne.n	230e4 <_ZN20complex_full_dynamic3app17hc999bf8838f001d9E+0x64>
   230d4:	4812      	ldr	r0, [pc, #72]	@ (23120 <_ZN20complex_full_dynamic3app17hc999bf8838f001d9E+0xa0>)
   230d6:	2205      	movs	r2, #5
   230d8:	2600      	movs	r6, #0
   230da:	4631      	mov	r1, r6
   230dc:	4633      	mov	r3, r6
   230de:	df02      	svc	2
   230e0:	287f      	cmp	r0, #127	@ 0x7f
   230e2:	d80b      	bhi.n	230fc <_ZN20complex_full_dynamic3app17hc999bf8838f001d9E+0x7c>
   230e4:	9c04      	ldr	r4, [sp, #16]
   230e6:	6061      	str	r1, [r4, #4]
   230e8:	2601      	movs	r6, #1
   230ea:	7026      	strb	r6, [r4, #0]
   230ec:	a815      	add	r0, sp, #84	@ 0x54
   230ee:	f003 fc11 	bl	26914 <_ZN9allow_pin12full_dynamic17unshare_if_shared17h1c062ce130e7e9d8E>
   230f2:	a805      	add	r0, sp, #20
   230f4:	f003 fc0e 	bl	26914 <_ZN9allow_pin12full_dynamic17unshare_if_shared17h1c062ce130e7e9d8E>
   230f8:	b01f      	add	sp, #124	@ 0x7c
   230fa:	bdf0      	pop	{r4, r5, r6, r7, pc}
   230fc:	a805      	add	r0, sp, #20
   230fe:	f003 fc09 	bl	26914 <_ZN9allow_pin12full_dynamic17unshare_if_shared17h1c062ce130e7e9d8E>
   23102:	ac15      	add	r4, sp, #84	@ 0x54
   23104:	4620      	mov	r0, r4
   23106:	f003 fc05 	bl	26914 <_ZN9allow_pin12full_dynamic17unshare_if_shared17h1c062ce130e7e9d8E>
   2310a:	4620      	mov	r0, r4
   2310c:	f003 fc02 	bl	26914 <_ZN9allow_pin12full_dynamic17unshare_if_shared17h1c062ce130e7e9d8E>
   23110:	9c04      	ldr	r4, [sp, #16]
   23112:	1c60      	adds	r0, r4, #1
   23114:	221a      	movs	r2, #26
   23116:	9902      	ldr	r1, [sp, #8]
   23118:	f003 fdbd 	bl	26c96 <__aeabi_memcpy>
   2311c:	e7e5      	b.n	230ea <_ZN20complex_full_dynamic3app17hc999bf8838f001d9E+0x6a>
   2311e:	46c0      	nop			@ (mov r8, r8)
   23120:	000012cc 	.word	0x000012cc

00023124 <_ZN20complex_full_dynamic3app17hcc78653293ec0647E>:
   23124:	b5f0      	push	{r4, r5, r6, r7, lr}
   23126:	af03      	add	r7, sp, #12
   23128:	b0a5      	sub	sp, #148	@ 0x94
   2312a:	9003      	str	r0, [sp, #12]
   2312c:	ae04      	add	r6, sp, #16
   2312e:	2502      	movs	r5, #2
   23130:	7235      	strb	r5, [r6, #8]
   23132:	4630      	mov	r0, r6
   23134:	300c      	adds	r0, #12
   23136:	2213      	movs	r2, #19
   23138:	9202      	str	r2, [sp, #8]
   2313a:	f003 fdac 	bl	26c96 <__aeabi_memcpy>
   2313e:	ac0c      	add	r4, sp, #48	@ 0x30
   23140:	4620      	mov	r0, r4
   23142:	300c      	adds	r0, #12
   23144:	2155      	movs	r1, #85	@ 0x55
   23146:	9001      	str	r0, [sp, #4]
   23148:	f003 fbf8 	bl	2693c <__aeabi_memclr4>
   2314c:	7225      	strb	r5, [r4, #8]
   2314e:	2009      	movs	r0, #9
   23150:	9000      	str	r0, [sp, #0]
   23152:	2204      	movs	r2, #4
   23154:	4c1b      	ldr	r4, [pc, #108]	@ (231c4 <_ZN20complex_full_dynamic3app17hcc78653293ec0647E+0xa0>)
   23156:	4630      	mov	r0, r6
   23158:	9902      	ldr	r1, [sp, #8]
   2315a:	4623      	mov	r3, r4
   2315c:	f7fc ffc2 	bl	200e4 <_ZN9allow_pin12full_dynamic15Buffer$LT$B$GT$5allow17h4466d99fb2bc5668E>
   23160:	07c0      	lsls	r0, r0, #31
   23162:	d111      	bne.n	23188 <_ZN20complex_full_dynamic3app17hcc78653293ec0647E+0x64>
   23164:	2007      	movs	r0, #7
   23166:	9000      	str	r0, [sp, #0]
   23168:	a80c      	add	r0, sp, #48	@ 0x30
   2316a:	2155      	movs	r1, #85	@ 0x55
   2316c:	2203      	movs	r2, #3
   2316e:	4623      	mov	r3, r4
   23170:	f7fc ffb8 	bl	200e4 <_ZN9allow_pin12full_dynamic15Buffer$LT$B$GT$5allow17h4466d99fb2bc5668E>
   23174:	07c0      	lsls	r0, r0, #31
   23176:	d107      	bne.n	23188 <_ZN20complex_full_dynamic3app17hcc78653293ec0647E+0x64>
   23178:	4812      	ldr	r0, [pc, #72]	@ (231c4 <_ZN20complex_full_dynamic3app17hcc78653293ec0647E+0xa0>)
   2317a:	2109      	movs	r1, #9
   2317c:	2207      	movs	r2, #7
   2317e:	2600      	movs	r6, #0
   23180:	4633      	mov	r3, r6
   23182:	df02      	svc	2
   23184:	287f      	cmp	r0, #127	@ 0x7f
   23186:	d80b      	bhi.n	231a0 <_ZN20complex_full_dynamic3app17hcc78653293ec0647E+0x7c>
   23188:	9c03      	ldr	r4, [sp, #12]
   2318a:	6061      	str	r1, [r4, #4]
   2318c:	2601      	movs	r6, #1
   2318e:	7026      	strb	r6, [r4, #0]
   23190:	a80c      	add	r0, sp, #48	@ 0x30
   23192:	f003 fbbf 	bl	26914 <_ZN9allow_pin12full_dynamic17unshare_if_shared17h1c062ce130e7e9d8E>
   23196:	a804      	add	r0, sp, #16
   23198:	f003 fbbc 	bl	26914 <_ZN9allow_pin12full_dynamic17unshare_if_shared17h1c062ce130e7e9d8E>
   2319c:	b025      	add	sp, #148	@ 0x94
   2319e:	bdf0      	pop	{r4, r5, r6, r7, pc}
   231a0:	a804      	add	r0, sp, #16
   231a2:	f003 fbb7 	bl	26914 <_ZN9allow_pin12full_dynamic17unshare_if_shared17h1c062ce130e7e9d8E>
   231a6:	ac0c      	add	r4, sp, #48	@ 0x30
   231a8:	4620      	mov	r0, r4
   231aa:	f003 fbb3 	bl	26914 <_ZN9allow_pin12full_dynamic17unshare_if_shared17h1c062ce130e7e9d8E>
   231ae:	4620      	mov	r0, r4
   231b0:	f003 fbb0 	bl	26914 <_ZN9allow_pin12full_dynamic17unshare_if_shared17h1c062ce130e7e9d8E>
   231b4:	9c03      	ldr	r4, [sp, #12]
   231b6:	1c60      	adds	r0, r4, #1
   231b8:	2255      	movs	r2, #85	@ 0x55
   231ba:	9901      	ldr	r1, [sp, #4]
   231bc:	f003 fd6b 	bl	26c96 <__aeabi_memcpy>
   231c0:	e7e5      	b.n	2318e <_ZN20complex_full_dynamic3app17hcc78653293ec0647E+0x6a>
   231c2:	46c0      	nop			@ (mov r8, r8)
   231c4:	0000032e 	.word	0x0000032e

000231c8 <_ZN20complex_full_dynamic3app17hd0e2464241e617d4E>:
   231c8:	b5f0      	push	{r4, r5, r6, r7, lr}
   231ca:	af03      	add	r7, sp, #12
   231cc:	b0a5      	sub	sp, #148	@ 0x94
   231ce:	9004      	str	r0, [sp, #16]
   231d0:	ae05      	add	r6, sp, #20
   231d2:	2502      	movs	r5, #2
   231d4:	7235      	strb	r5, [r6, #8]
   231d6:	4630      	mov	r0, r6
   231d8:	300c      	adds	r0, #12
   231da:	222e      	movs	r2, #46	@ 0x2e
   231dc:	9203      	str	r2, [sp, #12]
   231de:	f003 fd5a 	bl	26c96 <__aeabi_memcpy>
   231e2:	ac14      	add	r4, sp, #80	@ 0x50
   231e4:	4620      	mov	r0, r4
   231e6:	300c      	adds	r0, #12
   231e8:	2138      	movs	r1, #56	@ 0x38
   231ea:	9002      	str	r0, [sp, #8]
   231ec:	f003 fba6 	bl	2693c <__aeabi_memclr4>
   231f0:	7225      	strb	r5, [r4, #8]
   231f2:	2509      	movs	r5, #9
   231f4:	9500      	str	r5, [sp, #0]
   231f6:	2204      	movs	r2, #4
   231f8:	4c1a      	ldr	r4, [pc, #104]	@ (23264 <_ZN20complex_full_dynamic3app17hd0e2464241e617d4E+0x9c>)
   231fa:	4630      	mov	r0, r6
   231fc:	9903      	ldr	r1, [sp, #12]
   231fe:	4623      	mov	r3, r4
   23200:	f7fc ff70 	bl	200e4 <_ZN9allow_pin12full_dynamic15Buffer$LT$B$GT$5allow17h4466d99fb2bc5668E>
   23204:	07c0      	lsls	r0, r0, #31
   23206:	d110      	bne.n	2322a <_ZN20complex_full_dynamic3app17hd0e2464241e617d4E+0x62>
   23208:	9500      	str	r5, [sp, #0]
   2320a:	a814      	add	r0, sp, #80	@ 0x50
   2320c:	2138      	movs	r1, #56	@ 0x38
   2320e:	2203      	movs	r2, #3
   23210:	4623      	mov	r3, r4
   23212:	f7fc ff67 	bl	200e4 <_ZN9allow_pin12full_dynamic15Buffer$LT$B$GT$5allow17h4466d99fb2bc5668E>
   23216:	07c0      	lsls	r0, r0, #31
   23218:	d107      	bne.n	2322a <_ZN20complex_full_dynamic3app17hd0e2464241e617d4E+0x62>
   2321a:	4812      	ldr	r0, [pc, #72]	@ (23264 <_ZN20complex_full_dynamic3app17hd0e2464241e617d4E+0x9c>)
   2321c:	2109      	movs	r1, #9
   2321e:	2600      	movs	r6, #0
   23220:	460a      	mov	r2, r1
   23222:	4633      	mov	r3, r6
   23224:	df02      	svc	2
   23226:	287f      	cmp	r0, #127	@ 0x7f
   23228:	d80b      	bhi.n	23242 <_ZN20complex_full_dynamic3app17hd0e2464241e617d4E+0x7a>
   2322a:	9c04      	ldr	r4, [sp, #16]
   2322c:	6061      	str	r1, [r4, #4]
   2322e:	2601      	movs	r6, #1
   23230:	7026      	strb	r6, [r4, #0]
   23232:	a814      	add	r0, sp, #80	@ 0x50
   23234:	f003 fb6e 	bl	26914 <_ZN9allow_pin12full_dynamic17unshare_if_shared17h1c062ce130e7e9d8E>
   23238:	a805      	add	r0, sp, #20
   2323a:	f003 fb6b 	bl	26914 <_ZN9allow_pin12full_dynamic17unshare_if_shared17h1c062ce130e7e9d8E>
   2323e:	b025      	add	sp, #148	@ 0x94
   23240:	bdf0      	pop	{r4, r5, r6, r7, pc}
   23242:	a805      	add	r0, sp, #20
   23244:	f003 fb66 	bl	26914 <_ZN9allow_pin12full_dynamic17unshare_if_shared17h1c062ce130e7e9d8E>
   23248:	ac14      	add	r4, sp, #80	@ 0x50
   2324a:	4620      	mov	r0, r4
   2324c:	f003 fb62 	bl	26914 <_ZN9allow_pin12full_dynamic17unshare_if_shared17h1c062ce130e7e9d8E>
   23250:	4620      	mov	r0, r4
   23252:	f003 fb5f 	bl	26914 <_ZN9allow_pin12full_dynamic17unshare_if_shared17h1c062ce130e7e9d8E>
   23256:	9c04      	ldr	r4, [sp, #16]
   23258:	1c60      	adds	r0, r4, #1
   2325a:	2238      	movs	r2, #56	@ 0x38
   2325c:	9902      	ldr	r1, [sp, #8]
   2325e:	f003 fd1a 	bl	26c96 <__aeabi_memcpy>
   23262:	e7e5      	b.n	23230 <_ZN20complex_full_dynamic3app17hd0e2464241e617d4E+0x68>
   23264:	00000a9d 	.word	0x00000a9d

00023268 <_ZN20complex_full_dynamic3app17hd12ad137730b03e2E>:
   23268:	b5f0      	push	{r4, r5, r6, r7, lr}
   2326a:	af03      	add	r7, sp, #12
   2326c:	b0b3      	sub	sp, #204	@ 0xcc
   2326e:	9004      	str	r0, [sp, #16]
   23270:	ae05      	add	r6, sp, #20
   23272:	2502      	movs	r5, #2
   23274:	7235      	strb	r5, [r6, #8]
   23276:	4630      	mov	r0, r6
   23278:	300c      	adds	r0, #12
   2327a:	225d      	movs	r2, #93	@ 0x5d
   2327c:	9203      	str	r2, [sp, #12]
   2327e:	f003 fd0a 	bl	26c96 <__aeabi_memcpy>
   23282:	ac20      	add	r4, sp, #128	@ 0x80
   23284:	4620      	mov	r0, r4
   23286:	300c      	adds	r0, #12
   23288:	2140      	movs	r1, #64	@ 0x40
   2328a:	9002      	str	r0, [sp, #8]
   2328c:	f003 fb56 	bl	2693c <__aeabi_memclr4>
   23290:	7225      	strb	r5, [r4, #8]
   23292:	2008      	movs	r0, #8
   23294:	9000      	str	r0, [sp, #0]
   23296:	2504      	movs	r5, #4
   23298:	4c1b      	ldr	r4, [pc, #108]	@ (23308 <_ZN20complex_full_dynamic3app17hd12ad137730b03e2E+0xa0>)
   2329a:	4630      	mov	r0, r6
   2329c:	9903      	ldr	r1, [sp, #12]
   2329e:	462a      	mov	r2, r5
   232a0:	4623      	mov	r3, r4
   232a2:	f7fc ff1f 	bl	200e4 <_ZN9allow_pin12full_dynamic15Buffer$LT$B$GT$5allow17h4466d99fb2bc5668E>
   232a6:	07c0      	lsls	r0, r0, #31
   232a8:	d110      	bne.n	232cc <_ZN20complex_full_dynamic3app17hd12ad137730b03e2E+0x64>
   232aa:	9500      	str	r5, [sp, #0]
   232ac:	a820      	add	r0, sp, #128	@ 0x80
   232ae:	2140      	movs	r1, #64	@ 0x40
   232b0:	2203      	movs	r2, #3
   232b2:	4623      	mov	r3, r4
   232b4:	f7fc ff16 	bl	200e4 <_ZN9allow_pin12full_dynamic15Buffer$LT$B$GT$5allow17h4466d99fb2bc5668E>
   232b8:	07c0      	lsls	r0, r0, #31
   232ba:	d107      	bne.n	232cc <_ZN20complex_full_dynamic3app17hd12ad137730b03e2E+0x64>
   232bc:	4812      	ldr	r0, [pc, #72]	@ (23308 <_ZN20complex_full_dynamic3app17hd12ad137730b03e2E+0xa0>)
   232be:	2108      	movs	r1, #8
   232c0:	2204      	movs	r2, #4
   232c2:	2600      	movs	r6, #0
   232c4:	4633      	mov	r3, r6
   232c6:	df02      	svc	2
   232c8:	287f      	cmp	r0, #127	@ 0x7f
   232ca:	d80b      	bhi.n	232e4 <_ZN20complex_full_dynamic3app17hd12ad137730b03e2E+0x7c>
   232cc:	9c04      	ldr	r4, [sp, #16]
   232ce:	6061      	str	r1, [r4, #4]
   232d0:	2601      	movs	r6, #1
   232d2:	7026      	strb	r6, [r4, #0]
   232d4:	a820      	add	r0, sp, #128	@ 0x80
   232d6:	f003 fb1d 	bl	26914 <_ZN9allow_pin12full_dynamic17unshare_if_shared17h1c062ce130e7e9d8E>
   232da:	a805      	add	r0, sp, #20
   232dc:	f003 fb1a 	bl	26914 <_ZN9allow_pin12full_dynamic17unshare_if_shared17h1c062ce130e7e9d8E>
   232e0:	b033      	add	sp, #204	@ 0xcc
   232e2:	bdf0      	pop	{r4, r5, r6, r7, pc}
   232e4:	a805      	add	r0, sp, #20
   232e6:	f003 fb15 	bl	26914 <_ZN9allow_pin12full_dynamic17unshare_if_shared17h1c062ce130e7e9d8E>
   232ea:	ac20      	add	r4, sp, #128	@ 0x80
   232ec:	4620      	mov	r0, r4
   232ee:	f003 fb11 	bl	26914 <_ZN9allow_pin12full_dynamic17unshare_if_shared17h1c062ce130e7e9d8E>
   232f2:	4620      	mov	r0, r4
   232f4:	f003 fb0e 	bl	26914 <_ZN9allow_pin12full_dynamic17unshare_if_shared17h1c062ce130e7e9d8E>
   232f8:	9c04      	ldr	r4, [sp, #16]
   232fa:	1c60      	adds	r0, r4, #1
   232fc:	2240      	movs	r2, #64	@ 0x40
   232fe:	9902      	ldr	r1, [sp, #8]
   23300:	f003 fcc9 	bl	26c96 <__aeabi_memcpy>
   23304:	e7e5      	b.n	232d2 <_ZN20complex_full_dynamic3app17hd12ad137730b03e2E+0x6a>
   23306:	46c0      	nop			@ (mov r8, r8)
   23308:	00001028 	.word	0x00001028

0002330c <_ZN20complex_full_dynamic3app17hd68095c00c26354fE>:
   2330c:	b5f0      	push	{r4, r5, r6, r7, lr}
   2330e:	af03      	add	r7, sp, #12
   23310:	b0ad      	sub	sp, #180	@ 0xb4
   23312:	9003      	str	r0, [sp, #12]
   23314:	ae04      	add	r6, sp, #16
   23316:	2502      	movs	r5, #2
   23318:	7235      	strb	r5, [r6, #8]
   2331a:	4630      	mov	r0, r6
   2331c:	300c      	adds	r0, #12
   2331e:	2255      	movs	r2, #85	@ 0x55
   23320:	9202      	str	r2, [sp, #8]
   23322:	f003 fcb8 	bl	26c96 <__aeabi_memcpy>
   23326:	ac1d      	add	r4, sp, #116	@ 0x74
   23328:	4620      	mov	r0, r4
   2332a:	300c      	adds	r0, #12
   2332c:	2132      	movs	r1, #50	@ 0x32
   2332e:	9001      	str	r0, [sp, #4]
   23330:	f003 fb04 	bl	2693c <__aeabi_memclr4>
   23334:	7225      	strb	r5, [r4, #8]
   23336:	2508      	movs	r5, #8
   23338:	9500      	str	r5, [sp, #0]
   2333a:	2204      	movs	r2, #4
   2333c:	4c1a      	ldr	r4, [pc, #104]	@ (233a8 <_ZN20complex_full_dynamic3app17hd68095c00c26354fE+0x9c>)
   2333e:	4630      	mov	r0, r6
   23340:	9902      	ldr	r1, [sp, #8]
   23342:	4623      	mov	r3, r4
   23344:	f7fc fece 	bl	200e4 <_ZN9allow_pin12full_dynamic15Buffer$LT$B$GT$5allow17h4466d99fb2bc5668E>
   23348:	07c0      	lsls	r0, r0, #31
   2334a:	d110      	bne.n	2336e <_ZN20complex_full_dynamic3app17hd68095c00c26354fE+0x62>
   2334c:	9500      	str	r5, [sp, #0]
   2334e:	a81d      	add	r0, sp, #116	@ 0x74
   23350:	2132      	movs	r1, #50	@ 0x32
   23352:	2203      	movs	r2, #3
   23354:	4623      	mov	r3, r4
   23356:	f7fc fec5 	bl	200e4 <_ZN9allow_pin12full_dynamic15Buffer$LT$B$GT$5allow17h4466d99fb2bc5668E>
   2335a:	07c0      	lsls	r0, r0, #31
   2335c:	d107      	bne.n	2336e <_ZN20complex_full_dynamic3app17hd68095c00c26354fE+0x62>
   2335e:	4812      	ldr	r0, [pc, #72]	@ (233a8 <_ZN20complex_full_dynamic3app17hd68095c00c26354fE+0x9c>)
   23360:	2108      	movs	r1, #8
   23362:	2600      	movs	r6, #0
   23364:	460a      	mov	r2, r1
   23366:	4633      	mov	r3, r6
   23368:	df02      	svc	2
   2336a:	287f      	cmp	r0, #127	@ 0x7f
   2336c:	d80b      	bhi.n	23386 <_ZN20complex_full_dynamic3app17hd68095c00c26354fE+0x7a>
   2336e:	9c03      	ldr	r4, [sp, #12]
   23370:	6061      	str	r1, [r4, #4]
   23372:	2601      	movs	r6, #1
   23374:	7026      	strb	r6, [r4, #0]
   23376:	a81d      	add	r0, sp, #116	@ 0x74
   23378:	f003 facc 	bl	26914 <_ZN9allow_pin12full_dynamic17unshare_if_shared17h1c062ce130e7e9d8E>
   2337c:	a804      	add	r0, sp, #16
   2337e:	f003 fac9 	bl	26914 <_ZN9allow_pin12full_dynamic17unshare_if_shared17h1c062ce130e7e9d8E>
   23382:	b02d      	add	sp, #180	@ 0xb4
   23384:	bdf0      	pop	{r4, r5, r6, r7, pc}
   23386:	a804      	add	r0, sp, #16
   23388:	f003 fac4 	bl	26914 <_ZN9allow_pin12full_dynamic17unshare_if_shared17h1c062ce130e7e9d8E>
   2338c:	ac1d      	add	r4, sp, #116	@ 0x74
   2338e:	4620      	mov	r0, r4
   23390:	f003 fac0 	bl	26914 <_ZN9allow_pin12full_dynamic17unshare_if_shared17h1c062ce130e7e9d8E>
   23394:	4620      	mov	r0, r4
   23396:	f003 fabd 	bl	26914 <_ZN9allow_pin12full_dynamic17unshare_if_shared17h1c062ce130e7e9d8E>
   2339a:	9c03      	ldr	r4, [sp, #12]
   2339c:	1c60      	adds	r0, r4, #1
   2339e:	2232      	movs	r2, #50	@ 0x32
   233a0:	9901      	ldr	r1, [sp, #4]
   233a2:	f003 fc78 	bl	26c96 <__aeabi_memcpy>
   233a6:	e7e5      	b.n	23374 <_ZN20complex_full_dynamic3app17hd68095c00c26354fE+0x68>
   233a8:	00002095 	.word	0x00002095

000233ac <_ZN20complex_full_dynamic3app17hd9819d42ad41e236E>:
   233ac:	b5f0      	push	{r4, r5, r6, r7, lr}
   233ae:	af03      	add	r7, sp, #12
   233b0:	b0a3      	sub	sp, #140	@ 0x8c
   233b2:	9003      	str	r0, [sp, #12]
   233b4:	ae04      	add	r6, sp, #16
   233b6:	2502      	movs	r5, #2
   233b8:	7235      	strb	r5, [r6, #8]
   233ba:	4630      	mov	r0, r6
   233bc:	300c      	adds	r0, #12
   233be:	2234      	movs	r2, #52	@ 0x34
   233c0:	9202      	str	r2, [sp, #8]
   233c2:	f003 fc68 	bl	26c96 <__aeabi_memcpy>
   233c6:	ac14      	add	r4, sp, #80	@ 0x50
   233c8:	4620      	mov	r0, r4
   233ca:	300c      	adds	r0, #12
   233cc:	212e      	movs	r1, #46	@ 0x2e
   233ce:	9001      	str	r0, [sp, #4]
   233d0:	f003 fab4 	bl	2693c <__aeabi_memclr4>
   233d4:	7225      	strb	r5, [r4, #8]
   233d6:	9500      	str	r5, [sp, #0]
   233d8:	2204      	movs	r2, #4
   233da:	4c1b      	ldr	r4, [pc, #108]	@ (23448 <_ZN20complex_full_dynamic3app17hd9819d42ad41e236E+0x9c>)
   233dc:	4630      	mov	r0, r6
   233de:	9902      	ldr	r1, [sp, #8]
   233e0:	4623      	mov	r3, r4
   233e2:	f7fc fe7f 	bl	200e4 <_ZN9allow_pin12full_dynamic15Buffer$LT$B$GT$5allow17h4466d99fb2bc5668E>
   233e6:	07c0      	lsls	r0, r0, #31
   233e8:	d111      	bne.n	2340e <_ZN20complex_full_dynamic3app17hd9819d42ad41e236E+0x62>
   233ea:	2008      	movs	r0, #8
   233ec:	9000      	str	r0, [sp, #0]
   233ee:	a814      	add	r0, sp, #80	@ 0x50
   233f0:	212e      	movs	r1, #46	@ 0x2e
   233f2:	2203      	movs	r2, #3
   233f4:	4623      	mov	r3, r4
   233f6:	f7fc fe75 	bl	200e4 <_ZN9allow_pin12full_dynamic15Buffer$LT$B$GT$5allow17h4466d99fb2bc5668E>
   233fa:	07c0      	lsls	r0, r0, #31
   233fc:	d107      	bne.n	2340e <_ZN20complex_full_dynamic3app17hd9819d42ad41e236E+0x62>
   233fe:	4812      	ldr	r0, [pc, #72]	@ (23448 <_ZN20complex_full_dynamic3app17hd9819d42ad41e236E+0x9c>)
   23400:	2102      	movs	r1, #2
   23402:	2208      	movs	r2, #8
   23404:	2600      	movs	r6, #0
   23406:	4633      	mov	r3, r6
   23408:	df02      	svc	2
   2340a:	287f      	cmp	r0, #127	@ 0x7f
   2340c:	d80b      	bhi.n	23426 <_ZN20complex_full_dynamic3app17hd9819d42ad41e236E+0x7a>
   2340e:	9c03      	ldr	r4, [sp, #12]
   23410:	6061      	str	r1, [r4, #4]
   23412:	2601      	movs	r6, #1
   23414:	7026      	strb	r6, [r4, #0]
   23416:	a814      	add	r0, sp, #80	@ 0x50
   23418:	f003 fa7c 	bl	26914 <_ZN9allow_pin12full_dynamic17unshare_if_shared17h1c062ce130e7e9d8E>
   2341c:	a804      	add	r0, sp, #16
   2341e:	f003 fa79 	bl	26914 <_ZN9allow_pin12full_dynamic17unshare_if_shared17h1c062ce130e7e9d8E>
   23422:	b023      	add	sp, #140	@ 0x8c
   23424:	bdf0      	pop	{r4, r5, r6, r7, pc}
   23426:	a804      	add	r0, sp, #16
   23428:	f003 fa74 	bl	26914 <_ZN9allow_pin12full_dynamic17unshare_if_shared17h1c062ce130e7e9d8E>
   2342c:	ac14      	add	r4, sp, #80	@ 0x50
   2342e:	4620      	mov	r0, r4
   23430:	f003 fa70 	bl	26914 <_ZN9allow_pin12full_dynamic17unshare_if_shared17h1c062ce130e7e9d8E>
   23434:	4620      	mov	r0, r4
   23436:	f003 fa6d 	bl	26914 <_ZN9allow_pin12full_dynamic17unshare_if_shared17h1c062ce130e7e9d8E>
   2343a:	9c03      	ldr	r4, [sp, #12]
   2343c:	1c60      	adds	r0, r4, #1
   2343e:	222e      	movs	r2, #46	@ 0x2e
   23440:	9901      	ldr	r1, [sp, #4]
   23442:	f003 fc28 	bl	26c96 <__aeabi_memcpy>
   23446:	e7e5      	b.n	23414 <_ZN20complex_full_dynamic3app17hd9819d42ad41e236E+0x68>
   23448:	00000209 	.word	0x00000209

0002344c <_ZN20complex_full_dynamic3app17hde84c6f353f6e97eE>:
   2344c:	b5f0      	push	{r4, r5, r6, r7, lr}
   2344e:	af03      	add	r7, sp, #12
   23450:	b0a7      	sub	sp, #156	@ 0x9c
   23452:	9003      	str	r0, [sp, #12]
   23454:	ae04      	add	r6, sp, #16
   23456:	2502      	movs	r5, #2
   23458:	7235      	strb	r5, [r6, #8]
   2345a:	4630      	mov	r0, r6
   2345c:	300c      	adds	r0, #12
   2345e:	2240      	movs	r2, #64	@ 0x40
   23460:	9202      	str	r2, [sp, #8]
   23462:	f003 fc18 	bl	26c96 <__aeabi_memcpy>
   23466:	ac17      	add	r4, sp, #92	@ 0x5c
   23468:	4620      	mov	r0, r4
   2346a:	300c      	adds	r0, #12
   2346c:	2131      	movs	r1, #49	@ 0x31
   2346e:	9001      	str	r0, [sp, #4]
   23470:	f003 fa64 	bl	2693c <__aeabi_memclr4>
   23474:	7225      	strb	r5, [r4, #8]
   23476:	2008      	movs	r0, #8
   23478:	9000      	str	r0, [sp, #0]
   2347a:	2204      	movs	r2, #4
   2347c:	4c1b      	ldr	r4, [pc, #108]	@ (234ec <_ZN20complex_full_dynamic3app17hde84c6f353f6e97eE+0xa0>)
   2347e:	4630      	mov	r0, r6
   23480:	9902      	ldr	r1, [sp, #8]
   23482:	4623      	mov	r3, r4
   23484:	f7fc fe2e 	bl	200e4 <_ZN9allow_pin12full_dynamic15Buffer$LT$B$GT$5allow17h4466d99fb2bc5668E>
   23488:	07c0      	lsls	r0, r0, #31
   2348a:	d111      	bne.n	234b0 <_ZN20complex_full_dynamic3app17hde84c6f353f6e97eE+0x64>
   2348c:	2005      	movs	r0, #5
   2348e:	9000      	str	r0, [sp, #0]
   23490:	a817      	add	r0, sp, #92	@ 0x5c
   23492:	2131      	movs	r1, #49	@ 0x31
   23494:	2203      	movs	r2, #3
   23496:	4623      	mov	r3, r4
   23498:	f7fc fe24 	bl	200e4 <_ZN9allow_pin12full_dynamic15Buffer$LT$B$GT$5allow17h4466d99fb2bc5668E>
   2349c:	07c0      	lsls	r0, r0, #31
   2349e:	d107      	bne.n	234b0 <_ZN20complex_full_dynamic3app17hde84c6f353f6e97eE+0x64>
   234a0:	4812      	ldr	r0, [pc, #72]	@ (234ec <_ZN20complex_full_dynamic3app17hde84c6f353f6e97eE+0xa0>)
   234a2:	2108      	movs	r1, #8
   234a4:	2205      	movs	r2, #5
   234a6:	2600      	movs	r6, #0
   234a8:	4633      	mov	r3, r6
   234aa:	df02      	svc	2
   234ac:	287f      	cmp	r0, #127	@ 0x7f
   234ae:	d80b      	bhi.n	234c8 <_ZN20complex_full_dynamic3app17hde84c6f353f6e97eE+0x7c>
   234b0:	9c03      	ldr	r4, [sp, #12]
   234b2:	6061      	str	r1, [r4, #4]
   234b4:	2601      	movs	r6, #1
   234b6:	7026      	strb	r6, [r4, #0]
   234b8:	a817      	add	r0, sp, #92	@ 0x5c
   234ba:	f003 fa2b 	bl	26914 <_ZN9allow_pin12full_dynamic17unshare_if_shared17h1c062ce130e7e9d8E>
   234be:	a804      	add	r0, sp, #16
   234c0:	f003 fa28 	bl	26914 <_ZN9allow_pin12full_dynamic17unshare_if_shared17h1c062ce130e7e9d8E>
   234c4:	b027      	add	sp, #156	@ 0x9c
   234c6:	bdf0      	pop	{r4, r5, r6, r7, pc}
   234c8:	a804      	add	r0, sp, #16
   234ca:	f003 fa23 	bl	26914 <_ZN9allow_pin12full_dynamic17unshare_if_shared17h1c062ce130e7e9d8E>
   234ce:	ac17      	add	r4, sp, #92	@ 0x5c
   234d0:	4620      	mov	r0, r4
   234d2:	f003 fa1f 	bl	26914 <_ZN9allow_pin12full_dynamic17unshare_if_shared17h1c062ce130e7e9d8E>
   234d6:	4620      	mov	r0, r4
   234d8:	f003 fa1c 	bl	26914 <_ZN9allow_pin12full_dynamic17unshare_if_shared17h1c062ce130e7e9d8E>
   234dc:	9c03      	ldr	r4, [sp, #12]
   234de:	1c60      	adds	r0, r4, #1
   234e0:	2231      	movs	r2, #49	@ 0x31
   234e2:	9901      	ldr	r1, [sp, #4]
   234e4:	f003 fbd7 	bl	26c96 <__aeabi_memcpy>
   234e8:	e7e5      	b.n	234b6 <_ZN20complex_full_dynamic3app17hde84c6f353f6e97eE+0x6a>
   234ea:	46c0      	nop			@ (mov r8, r8)
   234ec:	00000fce 	.word	0x00000fce

000234f0 <_ZN20complex_full_dynamic3app17hdf33cc83c5c65c53E>:
   234f0:	b5f0      	push	{r4, r5, r6, r7, lr}
   234f2:	af03      	add	r7, sp, #12
   234f4:	b0b3      	sub	sp, #204	@ 0xcc
   234f6:	9003      	str	r0, [sp, #12]
   234f8:	ae04      	add	r6, sp, #16
   234fa:	2502      	movs	r5, #2
   234fc:	7235      	strb	r5, [r6, #8]
   234fe:	4630      	mov	r0, r6
   23500:	300c      	adds	r0, #12
   23502:	2251      	movs	r2, #81	@ 0x51
   23504:	9202      	str	r2, [sp, #8]
   23506:	f003 fbc6 	bl	26c96 <__aeabi_memcpy>
   2350a:	ac1c      	add	r4, sp, #112	@ 0x70
   2350c:	4620      	mov	r0, r4
   2350e:	300c      	adds	r0, #12
   23510:	214f      	movs	r1, #79	@ 0x4f
   23512:	9001      	str	r0, [sp, #4]
   23514:	f003 fa12 	bl	2693c <__aeabi_memclr4>
   23518:	7225      	strb	r5, [r4, #8]
   2351a:	2204      	movs	r2, #4
   2351c:	9200      	str	r2, [sp, #0]
   2351e:	4c1b      	ldr	r4, [pc, #108]	@ (2358c <_ZN20complex_full_dynamic3app17hdf33cc83c5c65c53E+0x9c>)
   23520:	4630      	mov	r0, r6
   23522:	9902      	ldr	r1, [sp, #8]
   23524:	4623      	mov	r3, r4
   23526:	f7fc fddd 	bl	200e4 <_ZN9allow_pin12full_dynamic15Buffer$LT$B$GT$5allow17h4466d99fb2bc5668E>
   2352a:	07c0      	lsls	r0, r0, #31
   2352c:	d111      	bne.n	23552 <_ZN20complex_full_dynamic3app17hdf33cc83c5c65c53E+0x62>
   2352e:	2009      	movs	r0, #9
   23530:	9000      	str	r0, [sp, #0]
   23532:	a81c      	add	r0, sp, #112	@ 0x70
   23534:	214f      	movs	r1, #79	@ 0x4f
   23536:	2203      	movs	r2, #3
   23538:	4623      	mov	r3, r4
   2353a:	f7fc fdd3 	bl	200e4 <_ZN9allow_pin12full_dynamic15Buffer$LT$B$GT$5allow17h4466d99fb2bc5668E>
   2353e:	07c0      	lsls	r0, r0, #31
   23540:	d107      	bne.n	23552 <_ZN20complex_full_dynamic3app17hdf33cc83c5c65c53E+0x62>
   23542:	4812      	ldr	r0, [pc, #72]	@ (2358c <_ZN20complex_full_dynamic3app17hdf33cc83c5c65c53E+0x9c>)
   23544:	2104      	movs	r1, #4
   23546:	2209      	movs	r2, #9
   23548:	2600      	movs	r6, #0
   2354a:	4633      	mov	r3, r6
   2354c:	df02      	svc	2
   2354e:	287f      	cmp	r0, #127	@ 0x7f
   23550:	d80b      	bhi.n	2356a <_ZN20complex_full_dynamic3app17hdf33cc83c5c65c53E+0x7a>
   23552:	9c03      	ldr	r4, [sp, #12]
   23554:	6061      	str	r1, [r4, #4]
   23556:	2601      	movs	r6, #1
   23558:	7026      	strb	r6, [r4, #0]
   2355a:	a81c      	add	r0, sp, #112	@ 0x70
   2355c:	f003 f9da 	bl	26914 <_ZN9allow_pin12full_dynamic17unshare_if_shared17h1c062ce130e7e9d8E>
   23560:	a804      	add	r0, sp, #16
   23562:	f003 f9d7 	bl	26914 <_ZN9allow_pin12full_dynamic17unshare_if_shared17h1c062ce130e7e9d8E>
   23566:	b033      	add	sp, #204	@ 0xcc
   23568:	bdf0      	pop	{r4, r5, r6, r7, pc}
   2356a:	a804      	add	r0, sp, #16
   2356c:	f003 f9d2 	bl	26914 <_ZN9allow_pin12full_dynamic17unshare_if_shared17h1c062ce130e7e9d8E>
   23570:	ac1c      	add	r4, sp, #112	@ 0x70
   23572:	4620      	mov	r0, r4
   23574:	f003 f9ce 	bl	26914 <_ZN9allow_pin12full_dynamic17unshare_if_shared17h1c062ce130e7e9d8E>
   23578:	4620      	mov	r0, r4
   2357a:	f003 f9cb 	bl	26914 <_ZN9allow_pin12full_dynamic17unshare_if_shared17h1c062ce130e7e9d8E>
   2357e:	9c03      	ldr	r4, [sp, #12]
   23580:	1c60      	adds	r0, r4, #1
   23582:	224f      	movs	r2, #79	@ 0x4f
   23584:	9901      	ldr	r1, [sp, #4]
   23586:	f003 fb86 	bl	26c96 <__aeabi_memcpy>
   2358a:	e7e5      	b.n	23558 <_ZN20complex_full_dynamic3app17hdf33cc83c5c65c53E+0x68>
   2358c:	000020ee 	.word	0x000020ee

00023590 <_ZN20complex_full_dynamic3app17he088cf69b0cc11eaE>:
   23590:	b5f0      	push	{r4, r5, r6, r7, lr}
   23592:	af03      	add	r7, sp, #12
   23594:	b09f      	sub	sp, #124	@ 0x7c
   23596:	9003      	str	r0, [sp, #12]
   23598:	ae04      	add	r6, sp, #16
   2359a:	2502      	movs	r5, #2
   2359c:	7235      	strb	r5, [r6, #8]
   2359e:	4630      	mov	r0, r6
   235a0:	300c      	adds	r0, #12
   235a2:	2224      	movs	r2, #36	@ 0x24
   235a4:	9202      	str	r2, [sp, #8]
   235a6:	f003 fb76 	bl	26c96 <__aeabi_memcpy>
   235aa:	ac10      	add	r4, sp, #64	@ 0x40
   235ac:	4620      	mov	r0, r4
   235ae:	300c      	adds	r0, #12
   235b0:	212f      	movs	r1, #47	@ 0x2f
   235b2:	9001      	str	r0, [sp, #4]
   235b4:	f003 f9c2 	bl	2693c <__aeabi_memclr4>
   235b8:	7225      	strb	r5, [r4, #8]
   235ba:	2006      	movs	r0, #6
   235bc:	9000      	str	r0, [sp, #0]
   235be:	2204      	movs	r2, #4
   235c0:	4c1b      	ldr	r4, [pc, #108]	@ (23630 <_ZN20complex_full_dynamic3app17he088cf69b0cc11eaE+0xa0>)
   235c2:	4630      	mov	r0, r6
   235c4:	9902      	ldr	r1, [sp, #8]
   235c6:	4623      	mov	r3, r4
   235c8:	f7fc fd8c 	bl	200e4 <_ZN9allow_pin12full_dynamic15Buffer$LT$B$GT$5allow17h4466d99fb2bc5668E>
   235cc:	07c0      	lsls	r0, r0, #31
   235ce:	d111      	bne.n	235f4 <_ZN20complex_full_dynamic3app17he088cf69b0cc11eaE+0x64>
   235d0:	2009      	movs	r0, #9
   235d2:	9000      	str	r0, [sp, #0]
   235d4:	a810      	add	r0, sp, #64	@ 0x40
   235d6:	212f      	movs	r1, #47	@ 0x2f
   235d8:	2203      	movs	r2, #3
   235da:	4623      	mov	r3, r4
   235dc:	f7fc fd82 	bl	200e4 <_ZN9allow_pin12full_dynamic15Buffer$LT$B$GT$5allow17h4466d99fb2bc5668E>
   235e0:	07c0      	lsls	r0, r0, #31
   235e2:	d107      	bne.n	235f4 <_ZN20complex_full_dynamic3app17he088cf69b0cc11eaE+0x64>
   235e4:	4812      	ldr	r0, [pc, #72]	@ (23630 <_ZN20complex_full_dynamic3app17he088cf69b0cc11eaE+0xa0>)
   235e6:	2106      	movs	r1, #6
   235e8:	2209      	movs	r2, #9
   235ea:	2600      	movs	r6, #0
   235ec:	4633      	mov	r3, r6
   235ee:	df02      	svc	2
   235f0:	287f      	cmp	r0, #127	@ 0x7f
   235f2:	d80b      	bhi.n	2360c <_ZN20complex_full_dynamic3app17he088cf69b0cc11eaE+0x7c>
   235f4:	9c03      	ldr	r4, [sp, #12]
   235f6:	6061      	str	r1, [r4, #4]
   235f8:	2601      	movs	r6, #1
   235fa:	7026      	strb	r6, [r4, #0]
   235fc:	a810      	add	r0, sp, #64	@ 0x40
   235fe:	f003 f989 	bl	26914 <_ZN9allow_pin12full_dynamic17unshare_if_shared17h1c062ce130e7e9d8E>
   23602:	a804      	add	r0, sp, #16
   23604:	f003 f986 	bl	26914 <_ZN9allow_pin12full_dynamic17unshare_if_shared17h1c062ce130e7e9d8E>
   23608:	b01f      	add	sp, #124	@ 0x7c
   2360a:	bdf0      	pop	{r4, r5, r6, r7, pc}
   2360c:	a804      	add	r0, sp, #16
   2360e:	f003 f981 	bl	26914 <_ZN9allow_pin12full_dynamic17unshare_if_shared17h1c062ce130e7e9d8E>
   23612:	ac10      	add	r4, sp, #64	@ 0x40
   23614:	4620      	mov	r0, r4
   23616:	f003 f97d 	bl	26914 <_ZN9allow_pin12full_dynamic17unshare_if_shared17h1c062ce130e7e9d8E>
   2361a:	4620      	mov	r0, r4
   2361c:	f003 f97a 	bl	26914 <_ZN9allow_pin12full_dynamic17unshare_if_shared17h1c062ce130e7e9d8E>
   23620:	9c03      	ldr	r4, [sp, #12]
   23622:	1c60      	adds	r0, r4, #1
   23624:	222f      	movs	r2, #47	@ 0x2f
   23626:	9901      	ldr	r1, [sp, #4]
   23628:	f003 fb35 	bl	26c96 <__aeabi_memcpy>
   2362c:	e7e5      	b.n	235fa <_ZN20complex_full_dynamic3app17he088cf69b0cc11eaE+0x6a>
   2362e:	46c0      	nop			@ (mov r8, r8)
   23630:	00001273 	.word	0x00001273

00023634 <_ZN20complex_full_dynamic3app17he4ae40aa30082605E>:
   23634:	b5f0      	push	{r4, r5, r6, r7, lr}
   23636:	af03      	add	r7, sp, #12
   23638:	b099      	sub	sp, #100	@ 0x64
   2363a:	9003      	str	r0, [sp, #12]
   2363c:	ae04      	add	r6, sp, #16
   2363e:	2502      	movs	r5, #2
   23640:	7235      	strb	r5, [r6, #8]
   23642:	4630      	mov	r0, r6
   23644:	300c      	adds	r0, #12
   23646:	2227      	movs	r2, #39	@ 0x27
   23648:	9202      	str	r2, [sp, #8]
   2364a:	f003 fb24 	bl	26c96 <__aeabi_memcpy>
   2364e:	ac11      	add	r4, sp, #68	@ 0x44
   23650:	4620      	mov	r0, r4
   23652:	300c      	adds	r0, #12
   23654:	2114      	movs	r1, #20
   23656:	9001      	str	r0, [sp, #4]
   23658:	f003 f970 	bl	2693c <__aeabi_memclr4>
   2365c:	7225      	strb	r5, [r4, #8]
   2365e:	2006      	movs	r0, #6
   23660:	9000      	str	r0, [sp, #0]
   23662:	2204      	movs	r2, #4
   23664:	4c1b      	ldr	r4, [pc, #108]	@ (236d4 <_ZN20complex_full_dynamic3app17he4ae40aa30082605E+0xa0>)
   23666:	4630      	mov	r0, r6
   23668:	9902      	ldr	r1, [sp, #8]
   2366a:	4623      	mov	r3, r4
   2366c:	f7fc fd3a 	bl	200e4 <_ZN9allow_pin12full_dynamic15Buffer$LT$B$GT$5allow17h4466d99fb2bc5668E>
   23670:	07c0      	lsls	r0, r0, #31
   23672:	d111      	bne.n	23698 <_ZN20complex_full_dynamic3app17he4ae40aa30082605E+0x64>
   23674:	2005      	movs	r0, #5
   23676:	9000      	str	r0, [sp, #0]
   23678:	a811      	add	r0, sp, #68	@ 0x44
   2367a:	2114      	movs	r1, #20
   2367c:	2203      	movs	r2, #3
   2367e:	4623      	mov	r3, r4
   23680:	f7fc fd30 	bl	200e4 <_ZN9allow_pin12full_dynamic15Buffer$LT$B$GT$5allow17h4466d99fb2bc5668E>
   23684:	07c0      	lsls	r0, r0, #31
   23686:	d107      	bne.n	23698 <_ZN20complex_full_dynamic3app17he4ae40aa30082605E+0x64>
   23688:	4812      	ldr	r0, [pc, #72]	@ (236d4 <_ZN20complex_full_dynamic3app17he4ae40aa30082605E+0xa0>)
   2368a:	2106      	movs	r1, #6
   2368c:	2205      	movs	r2, #5
   2368e:	2600      	movs	r6, #0
   23690:	4633      	mov	r3, r6
   23692:	df02      	svc	2
   23694:	287f      	cmp	r0, #127	@ 0x7f
   23696:	d80b      	bhi.n	236b0 <_ZN20complex_full_dynamic3app17he4ae40aa30082605E+0x7c>
   23698:	9c03      	ldr	r4, [sp, #12]
   2369a:	6061      	str	r1, [r4, #4]
   2369c:	2601      	movs	r6, #1
   2369e:	7026      	strb	r6, [r4, #0]
   236a0:	a811      	add	r0, sp, #68	@ 0x44
   236a2:	f003 f937 	bl	26914 <_ZN9allow_pin12full_dynamic17unshare_if_shared17h1c062ce130e7e9d8E>
   236a6:	a804      	add	r0, sp, #16
   236a8:	f003 f934 	bl	26914 <_ZN9allow_pin12full_dynamic17unshare_if_shared17h1c062ce130e7e9d8E>
   236ac:	b019      	add	sp, #100	@ 0x64
   236ae:	bdf0      	pop	{r4, r5, r6, r7, pc}
   236b0:	a804      	add	r0, sp, #16
   236b2:	f003 f92f 	bl	26914 <_ZN9allow_pin12full_dynamic17unshare_if_shared17h1c062ce130e7e9d8E>
   236b6:	ac11      	add	r4, sp, #68	@ 0x44
   236b8:	4620      	mov	r0, r4
   236ba:	f003 f92b 	bl	26914 <_ZN9allow_pin12full_dynamic17unshare_if_shared17h1c062ce130e7e9d8E>
   236be:	4620      	mov	r0, r4
   236c0:	f003 f928 	bl	26914 <_ZN9allow_pin12full_dynamic17unshare_if_shared17h1c062ce130e7e9d8E>
   236c4:	9c03      	ldr	r4, [sp, #12]
   236c6:	1c60      	adds	r0, r4, #1
   236c8:	2214      	movs	r2, #20
   236ca:	9901      	ldr	r1, [sp, #4]
   236cc:	f003 fae3 	bl	26c96 <__aeabi_memcpy>
   236d0:	e7e5      	b.n	2369e <_ZN20complex_full_dynamic3app17he4ae40aa30082605E+0x6a>
   236d2:	46c0      	nop			@ (mov r8, r8)
   236d4:	000022c9 	.word	0x000022c9

000236d8 <_ZN20complex_full_dynamic3app17head7bf018297ddb5E>:
   236d8:	b5f0      	push	{r4, r5, r6, r7, lr}
   236da:	af03      	add	r7, sp, #12
   236dc:	b09f      	sub	sp, #124	@ 0x7c
   236de:	9003      	str	r0, [sp, #12]
   236e0:	ae04      	add	r6, sp, #16
   236e2:	2402      	movs	r4, #2
   236e4:	7234      	strb	r4, [r6, #8]
   236e6:	4630      	mov	r0, r6
   236e8:	300c      	adds	r0, #12
   236ea:	2211      	movs	r2, #17
   236ec:	9202      	str	r2, [sp, #8]
   236ee:	f003 fad2 	bl	26c96 <__aeabi_memcpy>
   236f2:	ad0c      	add	r5, sp, #48	@ 0x30
   236f4:	4628      	mov	r0, r5
   236f6:	300c      	adds	r0, #12
   236f8:	213f      	movs	r1, #63	@ 0x3f
   236fa:	9001      	str	r0, [sp, #4]
   236fc:	f003 f91e 	bl	2693c <__aeabi_memclr4>
   23700:	722c      	strb	r4, [r5, #8]
   23702:	2007      	movs	r0, #7
   23704:	9000      	str	r0, [sp, #0]
   23706:	20cb      	movs	r0, #203	@ 0xcb
   23708:	0105      	lsls	r5, r0, #4
   2370a:	2404      	movs	r4, #4
   2370c:	4630      	mov	r0, r6
   2370e:	9902      	ldr	r1, [sp, #8]
   23710:	4622      	mov	r2, r4
   23712:	462b      	mov	r3, r5
   23714:	f7fc fce6 	bl	200e4 <_ZN9allow_pin12full_dynamic15Buffer$LT$B$GT$5allow17h4466d99fb2bc5668E>
   23718:	07c0      	lsls	r0, r0, #31
   2371a:	d110      	bne.n	2373e <_ZN20complex_full_dynamic3app17head7bf018297ddb5E+0x66>
   2371c:	9400      	str	r4, [sp, #0]
   2371e:	a80c      	add	r0, sp, #48	@ 0x30
   23720:	213f      	movs	r1, #63	@ 0x3f
   23722:	2203      	movs	r2, #3
   23724:	462b      	mov	r3, r5
   23726:	f7fc fcdd 	bl	200e4 <_ZN9allow_pin12full_dynamic15Buffer$LT$B$GT$5allow17h4466d99fb2bc5668E>
   2372a:	07c0      	lsls	r0, r0, #31
   2372c:	d107      	bne.n	2373e <_ZN20complex_full_dynamic3app17head7bf018297ddb5E+0x66>
   2372e:	2107      	movs	r1, #7
   23730:	2204      	movs	r2, #4
   23732:	2600      	movs	r6, #0
   23734:	4628      	mov	r0, r5
   23736:	4633      	mov	r3, r6
   23738:	df02      	svc	2
   2373a:	287f      	cmp	r0, #127	@ 0x7f
   2373c:	d80b      	bhi.n	23756 <_ZN20complex_full_dynamic3app17head7bf018297ddb5E+0x7e>
   2373e:	9c03      	ldr	r4, [sp, #12]
   23740:	6061      	str	r1, [r4, #4]
   23742:	2601      	movs	r6, #1
   23744:	7026      	strb	r6, [r4, #0]
   23746:	a80c      	add	r0, sp, #48	@ 0x30
   23748:	f003 f8e4 	bl	26914 <_ZN9allow_pin12full_dynamic17unshare_if_shared17h1c062ce130e7e9d8E>
   2374c:	a804      	add	r0, sp, #16
   2374e:	f003 f8e1 	bl	26914 <_ZN9allow_pin12full_dynamic17unshare_if_shared17h1c062ce130e7e9d8E>
   23752:	b01f      	add	sp, #124	@ 0x7c
   23754:	bdf0      	pop	{r4, r5, r6, r7, pc}
   23756:	a804      	add	r0, sp, #16
   23758:	f003 f8dc 	bl	26914 <_ZN9allow_pin12full_dynamic17unshare_if_shared17h1c062ce130e7e9d8E>
   2375c:	ac0c      	add	r4, sp, #48	@ 0x30
   2375e:	4620      	mov	r0, r4
   23760:	f003 f8d8 	bl	26914 <_ZN9allow_pin12full_dynamic17unshare_if_shared17h1c062ce130e7e9d8E>
   23764:	4620      	mov	r0, r4
   23766:	f003 f8d5 	bl	26914 <_ZN9allow_pin12full_dynamic17unshare_if_shared17h1c062ce130e7e9d8E>
   2376a:	9c03      	ldr	r4, [sp, #12]
   2376c:	1c60      	adds	r0, r4, #1
   2376e:	223f      	movs	r2, #63	@ 0x3f
   23770:	9901      	ldr	r1, [sp, #4]
   23772:	f003 fa90 	bl	26c96 <__aeabi_memcpy>
   23776:	e7e5      	b.n	23744 <_ZN20complex_full_dynamic3app17head7bf018297ddb5E+0x6c>

00023778 <_ZN20complex_full_dynamic3app17heb3b5cde50b2215fE>:
   23778:	b5f0      	push	{r4, r5, r6, r7, lr}
   2377a:	af03      	add	r7, sp, #12
   2377c:	b0b5      	sub	sp, #212	@ 0xd4
   2377e:	9004      	str	r0, [sp, #16]
   23780:	ae05      	add	r6, sp, #20
   23782:	2502      	movs	r5, #2
   23784:	7235      	strb	r5, [r6, #8]
   23786:	4630      	mov	r0, r6
   23788:	300c      	adds	r0, #12
   2378a:	2259      	movs	r2, #89	@ 0x59
   2378c:	9203      	str	r2, [sp, #12]
   2378e:	f003 fa82 	bl	26c96 <__aeabi_memcpy>
   23792:	ac1f      	add	r4, sp, #124	@ 0x7c
   23794:	4620      	mov	r0, r4
   23796:	300c      	adds	r0, #12
   23798:	214a      	movs	r1, #74	@ 0x4a
   2379a:	9002      	str	r0, [sp, #8]
   2379c:	f003 f8ce 	bl	2693c <__aeabi_memclr4>
   237a0:	7225      	strb	r5, [r4, #8]
   237a2:	2000      	movs	r0, #0
   237a4:	9000      	str	r0, [sp, #0]
   237a6:	2504      	movs	r5, #4
   237a8:	4c1b      	ldr	r4, [pc, #108]	@ (23818 <_ZN20complex_full_dynamic3app17heb3b5cde50b2215fE+0xa0>)
   237aa:	4630      	mov	r0, r6
   237ac:	9903      	ldr	r1, [sp, #12]
   237ae:	462a      	mov	r2, r5
   237b0:	4623      	mov	r3, r4
   237b2:	f7fc fc97 	bl	200e4 <_ZN9allow_pin12full_dynamic15Buffer$LT$B$GT$5allow17h4466d99fb2bc5668E>
   237b6:	07c0      	lsls	r0, r0, #31
   237b8:	d110      	bne.n	237dc <_ZN20complex_full_dynamic3app17heb3b5cde50b2215fE+0x64>
   237ba:	9500      	str	r5, [sp, #0]
   237bc:	a81f      	add	r0, sp, #124	@ 0x7c
   237be:	214a      	movs	r1, #74	@ 0x4a
   237c0:	2203      	movs	r2, #3
   237c2:	4623      	mov	r3, r4
   237c4:	f7fc fc8e 	bl	200e4 <_ZN9allow_pin12full_dynamic15Buffer$LT$B$GT$5allow17h4466d99fb2bc5668E>
   237c8:	07c0      	lsls	r0, r0, #31
   237ca:	d107      	bne.n	237dc <_ZN20complex_full_dynamic3app17heb3b5cde50b2215fE+0x64>
   237cc:	4812      	ldr	r0, [pc, #72]	@ (23818 <_ZN20complex_full_dynamic3app17heb3b5cde50b2215fE+0xa0>)
   237ce:	2204      	movs	r2, #4
   237d0:	2600      	movs	r6, #0
   237d2:	4631      	mov	r1, r6
   237d4:	4633      	mov	r3, r6
   237d6:	df02      	svc	2
   237d8:	287f      	cmp	r0, #127	@ 0x7f
   237da:	d80b      	bhi.n	237f4 <_ZN20complex_full_dynamic3app17heb3b5cde50b2215fE+0x7c>
   237dc:	9c04      	ldr	r4, [sp, #16]
   237de:	6061      	str	r1, [r4, #4]
   237e0:	2601      	movs	r6, #1
   237e2:	7026      	strb	r6, [r4, #0]
   237e4:	a81f      	add	r0, sp, #124	@ 0x7c
   237e6:	f003 f895 	bl	26914 <_ZN9allow_pin12full_dynamic17unshare_if_shared17h1c062ce130e7e9d8E>
   237ea:	a805      	add	r0, sp, #20
   237ec:	f003 f892 	bl	26914 <_ZN9allow_pin12full_dynamic17unshare_if_shared17h1c062ce130e7e9d8E>
   237f0:	b035      	add	sp, #212	@ 0xd4
   237f2:	bdf0      	pop	{r4, r5, r6, r7, pc}
   237f4:	a805      	add	r0, sp, #20
   237f6:	f003 f88d 	bl	26914 <_ZN9allow_pin12full_dynamic17unshare_if_shared17h1c062ce130e7e9d8E>
   237fa:	ac1f      	add	r4, sp, #124	@ 0x7c
   237fc:	4620      	mov	r0, r4
   237fe:	f003 f889 	bl	26914 <_ZN9allow_pin12full_dynamic17unshare_if_shared17h1c062ce130e7e9d8E>
   23802:	4620      	mov	r0, r4
   23804:	f003 f886 	bl	26914 <_ZN9allow_pin12full_dynamic17unshare_if_shared17h1c062ce130e7e9d8E>
   23808:	9c04      	ldr	r4, [sp, #16]
   2380a:	1c60      	adds	r0, r4, #1
   2380c:	224a      	movs	r2, #74	@ 0x4a
   2380e:	9902      	ldr	r1, [sp, #8]
   23810:	f003 fa41 	bl	26c96 <__aeabi_memcpy>
   23814:	e7e5      	b.n	237e2 <_ZN20complex_full_dynamic3app17heb3b5cde50b2215fE+0x6a>
   23816:	46c0      	nop			@ (mov r8, r8)
   23818:	00001484 	.word	0x00001484

0002381c <_ZN20complex_full_dynamic3app17hec831ff706ff4483E>:
   2381c:	b5f0      	push	{r4, r5, r6, r7, lr}
   2381e:	af03      	add	r7, sp, #12
   23820:	b0a1      	sub	sp, #132	@ 0x84
   23822:	9003      	str	r0, [sp, #12]
   23824:	ae04      	add	r6, sp, #16
   23826:	2502      	movs	r5, #2
   23828:	7235      	strb	r5, [r6, #8]
   2382a:	4630      	mov	r0, r6
   2382c:	300c      	adds	r0, #12
   2382e:	221e      	movs	r2, #30
   23830:	9202      	str	r2, [sp, #8]
   23832:	f003 fa30 	bl	26c96 <__aeabi_memcpy>
   23836:	ac0f      	add	r4, sp, #60	@ 0x3c
   23838:	4620      	mov	r0, r4
   2383a:	300c      	adds	r0, #12
   2383c:	213c      	movs	r1, #60	@ 0x3c
   2383e:	9001      	str	r0, [sp, #4]
   23840:	f003 f87c 	bl	2693c <__aeabi_memclr4>
   23844:	7225      	strb	r5, [r4, #8]
   23846:	9500      	str	r5, [sp, #0]
   23848:	2204      	movs	r2, #4
   2384a:	4c1b      	ldr	r4, [pc, #108]	@ (238b8 <_ZN20complex_full_dynamic3app17hec831ff706ff4483E+0x9c>)
   2384c:	4630      	mov	r0, r6
   2384e:	9902      	ldr	r1, [sp, #8]
   23850:	4623      	mov	r3, r4
   23852:	f7fc fc47 	bl	200e4 <_ZN9allow_pin12full_dynamic15Buffer$LT$B$GT$5allow17h4466d99fb2bc5668E>
   23856:	07c0      	lsls	r0, r0, #31
   23858:	d110      	bne.n	2387c <_ZN20complex_full_dynamic3app17hec831ff706ff4483E+0x60>
   2385a:	2203      	movs	r2, #3
   2385c:	9200      	str	r2, [sp, #0]
   2385e:	a80f      	add	r0, sp, #60	@ 0x3c
   23860:	213c      	movs	r1, #60	@ 0x3c
   23862:	4623      	mov	r3, r4
   23864:	f7fc fc3e 	bl	200e4 <_ZN9allow_pin12full_dynamic15Buffer$LT$B$GT$5allow17h4466d99fb2bc5668E>
   23868:	07c0      	lsls	r0, r0, #31
   2386a:	d107      	bne.n	2387c <_ZN20complex_full_dynamic3app17hec831ff706ff4483E+0x60>
   2386c:	4812      	ldr	r0, [pc, #72]	@ (238b8 <_ZN20complex_full_dynamic3app17hec831ff706ff4483E+0x9c>)
   2386e:	2102      	movs	r1, #2
   23870:	2203      	movs	r2, #3
   23872:	2600      	movs	r6, #0
   23874:	4633      	mov	r3, r6
   23876:	df02      	svc	2
   23878:	287f      	cmp	r0, #127	@ 0x7f
   2387a:	d80b      	bhi.n	23894 <_ZN20complex_full_dynamic3app17hec831ff706ff4483E+0x78>
   2387c:	9c03      	ldr	r4, [sp, #12]
   2387e:	6061      	str	r1, [r4, #4]
   23880:	2601      	movs	r6, #1
   23882:	7026      	strb	r6, [r4, #0]
   23884:	a80f      	add	r0, sp, #60	@ 0x3c
   23886:	f003 f845 	bl	26914 <_ZN9allow_pin12full_dynamic17unshare_if_shared17h1c062ce130e7e9d8E>
   2388a:	a804      	add	r0, sp, #16
   2388c:	f003 f842 	bl	26914 <_ZN9allow_pin12full_dynamic17unshare_if_shared17h1c062ce130e7e9d8E>
   23890:	b021      	add	sp, #132	@ 0x84
   23892:	bdf0      	pop	{r4, r5, r6, r7, pc}
   23894:	a804      	add	r0, sp, #16
   23896:	f003 f83d 	bl	26914 <_ZN9allow_pin12full_dynamic17unshare_if_shared17h1c062ce130e7e9d8E>
   2389a:	ac0f      	add	r4, sp, #60	@ 0x3c
   2389c:	4620      	mov	r0, r4
   2389e:	f003 f839 	bl	26914 <_ZN9allow_pin12full_dynamic17unshare_if_shared17h1c062ce130e7e9d8E>
   238a2:	4620      	mov	r0, r4
   238a4:	f003 f836 	bl	26914 <_ZN9allow_pin12full_dynamic17unshare_if_shared17h1c062ce130e7e9d8E>
   238a8:	9c03      	ldr	r4, [sp, #12]
   238aa:	1c60      	adds	r0, r4, #1
   238ac:	223c      	movs	r2, #60	@ 0x3c
   238ae:	9901      	ldr	r1, [sp, #4]
   238b0:	f003 f9f1 	bl	26c96 <__aeabi_memcpy>
   238b4:	e7e5      	b.n	23882 <_ZN20complex_full_dynamic3app17hec831ff706ff4483E+0x66>
   238b6:	46c0      	nop			@ (mov r8, r8)
   238b8:	00000b3c 	.word	0x00000b3c

000238bc <_ZN20complex_full_dynamic3app17hf122de00e5876b1eE>:
   238bc:	b5f0      	push	{r4, r5, r6, r7, lr}
   238be:	af03      	add	r7, sp, #12
   238c0:	b0a5      	sub	sp, #148	@ 0x94
   238c2:	9004      	str	r0, [sp, #16]
   238c4:	ae05      	add	r6, sp, #20
   238c6:	2502      	movs	r5, #2
   238c8:	7235      	strb	r5, [r6, #8]
   238ca:	4630      	mov	r0, r6
   238cc:	300c      	adds	r0, #12
   238ce:	2244      	movs	r2, #68	@ 0x44
   238d0:	9203      	str	r2, [sp, #12]
   238d2:	f003 f9e0 	bl	26c96 <__aeabi_memcpy>
   238d6:	ac19      	add	r4, sp, #100	@ 0x64
   238d8:	4620      	mov	r0, r4
   238da:	300c      	adds	r0, #12
   238dc:	2123      	movs	r1, #35	@ 0x23
   238de:	9002      	str	r0, [sp, #8]
   238e0:	f003 f82c 	bl	2693c <__aeabi_memclr4>
   238e4:	7225      	strb	r5, [r4, #8]
   238e6:	2006      	movs	r0, #6
   238e8:	9000      	str	r0, [sp, #0]
   238ea:	2204      	movs	r2, #4
   238ec:	4c1a      	ldr	r4, [pc, #104]	@ (23958 <_ZN20complex_full_dynamic3app17hf122de00e5876b1eE+0x9c>)
   238ee:	4630      	mov	r0, r6
   238f0:	9903      	ldr	r1, [sp, #12]
   238f2:	4623      	mov	r3, r4
   238f4:	f7fc fbf6 	bl	200e4 <_ZN9allow_pin12full_dynamic15Buffer$LT$B$GT$5allow17h4466d99fb2bc5668E>
   238f8:	07c0      	lsls	r0, r0, #31
   238fa:	d110      	bne.n	2391e <_ZN20complex_full_dynamic3app17hf122de00e5876b1eE+0x62>
   238fc:	2203      	movs	r2, #3
   238fe:	9200      	str	r2, [sp, #0]
   23900:	a819      	add	r0, sp, #100	@ 0x64
   23902:	2123      	movs	r1, #35	@ 0x23
   23904:	4623      	mov	r3, r4
   23906:	f7fc fbed 	bl	200e4 <_ZN9allow_pin12full_dynamic15Buffer$LT$B$GT$5allow17h4466d99fb2bc5668E>
   2390a:	07c0      	lsls	r0, r0, #31
   2390c:	d107      	bne.n	2391e <_ZN20complex_full_dynamic3app17hf122de00e5876b1eE+0x62>
   2390e:	4812      	ldr	r0, [pc, #72]	@ (23958 <_ZN20complex_full_dynamic3app17hf122de00e5876b1eE+0x9c>)
   23910:	2106      	movs	r1, #6
   23912:	2203      	movs	r2, #3
   23914:	2600      	movs	r6, #0
   23916:	4633      	mov	r3, r6
   23918:	df02      	svc	2
   2391a:	287f      	cmp	r0, #127	@ 0x7f
   2391c:	d80b      	bhi.n	23936 <_ZN20complex_full_dynamic3app17hf122de00e5876b1eE+0x7a>
   2391e:	9c04      	ldr	r4, [sp, #16]
   23920:	6061      	str	r1, [r4, #4]
   23922:	2601      	movs	r6, #1
   23924:	7026      	strb	r6, [r4, #0]
   23926:	a819      	add	r0, sp, #100	@ 0x64
   23928:	f002 fff4 	bl	26914 <_ZN9allow_pin12full_dynamic17unshare_if_shared17h1c062ce130e7e9d8E>
   2392c:	a805      	add	r0, sp, #20
   2392e:	f002 fff1 	bl	26914 <_ZN9allow_pin12full_dynamic17unshare_if_shared17h1c062ce130e7e9d8E>
   23932:	b025      	add	sp, #148	@ 0x94
   23934:	bdf0      	pop	{r4, r5, r6, r7, pc}
   23936:	a805      	add	r0, sp, #20
   23938:	f002 ffec 	bl	26914 <_ZN9allow_pin12full_dynamic17unshare_if_shared17h1c062ce130e7e9d8E>
   2393c:	ac19      	add	r4, sp, #100	@ 0x64
   2393e:	4620      	mov	r0, r4
   23940:	f002 ffe8 	bl	26914 <_ZN9allow_pin12full_dynamic17unshare_if_shared17h1c062ce130e7e9d8E>
   23944:	4620      	mov	r0, r4
   23946:	f002 ffe5 	bl	26914 <_ZN9allow_pin12full_dynamic17unshare_if_shared17h1c062ce130e7e9d8E>
   2394a:	9c04      	ldr	r4, [sp, #16]
   2394c:	1c60      	adds	r0, r4, #1
   2394e:	2223      	movs	r2, #35	@ 0x23
   23950:	9902      	ldr	r1, [sp, #8]
   23952:	f003 f9a0 	bl	26c96 <__aeabi_memcpy>
   23956:	e7e5      	b.n	23924 <_ZN20complex_full_dynamic3app17hf122de00e5876b1eE+0x68>
   23958:	000009bf 	.word	0x000009bf

0002395c <_ZN20complex_full_dynamic3app17hf6c1bed60bcd6654E>:
   2395c:	b5f0      	push	{r4, r5, r6, r7, lr}
   2395e:	af03      	add	r7, sp, #12
   23960:	b09f      	sub	sp, #124	@ 0x7c
   23962:	9003      	str	r0, [sp, #12]
   23964:	ae04      	add	r6, sp, #16
   23966:	2502      	movs	r5, #2
   23968:	7235      	strb	r5, [r6, #8]
   2396a:	4630      	mov	r0, r6
   2396c:	300c      	adds	r0, #12
   2396e:	222c      	movs	r2, #44	@ 0x2c
   23970:	9202      	str	r2, [sp, #8]
   23972:	f003 f990 	bl	26c96 <__aeabi_memcpy>
   23976:	ac12      	add	r4, sp, #72	@ 0x48
   23978:	4620      	mov	r0, r4
   2397a:	300c      	adds	r0, #12
   2397c:	2127      	movs	r1, #39	@ 0x27
   2397e:	9001      	str	r0, [sp, #4]
   23980:	f002 ffdc 	bl	2693c <__aeabi_memclr4>
   23984:	7225      	strb	r5, [r4, #8]
   23986:	2204      	movs	r2, #4
   23988:	9200      	str	r2, [sp, #0]
   2398a:	4c1b      	ldr	r4, [pc, #108]	@ (239f8 <_ZN20complex_full_dynamic3app17hf6c1bed60bcd6654E+0x9c>)
   2398c:	4630      	mov	r0, r6
   2398e:	9902      	ldr	r1, [sp, #8]
   23990:	4623      	mov	r3, r4
   23992:	f7fc fba7 	bl	200e4 <_ZN9allow_pin12full_dynamic15Buffer$LT$B$GT$5allow17h4466d99fb2bc5668E>
   23996:	07c0      	lsls	r0, r0, #31
   23998:	d110      	bne.n	239bc <_ZN20complex_full_dynamic3app17hf6c1bed60bcd6654E+0x60>
   2399a:	2203      	movs	r2, #3
   2399c:	9200      	str	r2, [sp, #0]
   2399e:	a812      	add	r0, sp, #72	@ 0x48
   239a0:	2127      	movs	r1, #39	@ 0x27
   239a2:	4623      	mov	r3, r4
   239a4:	f7fc fb9e 	bl	200e4 <_ZN9allow_pin12full_dynamic15Buffer$LT$B$GT$5allow17h4466d99fb2bc5668E>
   239a8:	07c0      	lsls	r0, r0, #31
   239aa:	d107      	bne.n	239bc <_ZN20complex_full_dynamic3app17hf6c1bed60bcd6654E+0x60>
   239ac:	4812      	ldr	r0, [pc, #72]	@ (239f8 <_ZN20complex_full_dynamic3app17hf6c1bed60bcd6654E+0x9c>)
   239ae:	2104      	movs	r1, #4
   239b0:	2203      	movs	r2, #3
   239b2:	2600      	movs	r6, #0
   239b4:	4633      	mov	r3, r6
   239b6:	df02      	svc	2
   239b8:	287f      	cmp	r0, #127	@ 0x7f
   239ba:	d80b      	bhi.n	239d4 <_ZN20complex_full_dynamic3app17hf6c1bed60bcd6654E+0x78>
   239bc:	9c03      	ldr	r4, [sp, #12]
   239be:	6061      	str	r1, [r4, #4]
   239c0:	2601      	movs	r6, #1
   239c2:	7026      	strb	r6, [r4, #0]
   239c4:	a812      	add	r0, sp, #72	@ 0x48
   239c6:	f002 ffa5 	bl	26914 <_ZN9allow_pin12full_dynamic17unshare_if_shared17h1c062ce130e7e9d8E>
   239ca:	a804      	add	r0, sp, #16
   239cc:	f002 ffa2 	bl	26914 <_ZN9allow_pin12full_dynamic17unshare_if_shared17h1c062ce130e7e9d8E>
   239d0:	b01f      	add	sp, #124	@ 0x7c
   239d2:	bdf0      	pop	{r4, r5, r6, r7, pc}
   239d4:	a804      	add	r0, sp, #16
   239d6:	f002 ff9d 	bl	26914 <_ZN9allow_pin12full_dynamic17unshare_if_shared17h1c062ce130e7e9d8E>
   239da:	ac12      	add	r4, sp, #72	@ 0x48
   239dc:	4620      	mov	r0, r4
   239de:	f002 ff99 	bl	26914 <_ZN9allow_pin12full_dynamic17unshare_if_shared17h1c062ce130e7e9d8E>
   239e2:	4620      	mov	r0, r4
   239e4:	f002 ff96 	bl	26914 <_ZN9allow_pin12full_dynamic17unshare_if_shared17h1c062ce130e7e9d8E>
   239e8:	9c03      	ldr	r4, [sp, #12]
   239ea:	1c60      	adds	r0, r4, #1
   239ec:	2227      	movs	r2, #39	@ 0x27
   239ee:	9901      	ldr	r1, [sp, #4]
   239f0:	f003 f951 	bl	26c96 <__aeabi_memcpy>
   239f4:	e7e5      	b.n	239c2 <_ZN20complex_full_dynamic3app17hf6c1bed60bcd6654E+0x66>
   239f6:	46c0      	nop			@ (mov r8, r8)
   239f8:	000011b5 	.word	0x000011b5

000239fc <_ZN20complex_full_dynamic3app17hf8b8766ad141aee6E>:
   239fc:	b5f0      	push	{r4, r5, r6, r7, lr}
   239fe:	af03      	add	r7, sp, #12
   23a00:	b0a5      	sub	sp, #148	@ 0x94
   23a02:	9004      	str	r0, [sp, #16]
   23a04:	ae05      	add	r6, sp, #20
   23a06:	2502      	movs	r5, #2
   23a08:	7235      	strb	r5, [r6, #8]
   23a0a:	4630      	mov	r0, r6
   23a0c:	300c      	adds	r0, #12
   23a0e:	223c      	movs	r2, #60	@ 0x3c
   23a10:	9203      	str	r2, [sp, #12]
   23a12:	f003 f940 	bl	26c96 <__aeabi_memcpy>
   23a16:	ac17      	add	r4, sp, #92	@ 0x5c
   23a18:	4620      	mov	r0, r4
   23a1a:	300c      	adds	r0, #12
   23a1c:	212c      	movs	r1, #44	@ 0x2c
   23a1e:	9002      	str	r0, [sp, #8]
   23a20:	f002 ff8c 	bl	2693c <__aeabi_memclr4>
   23a24:	7225      	strb	r5, [r4, #8]
   23a26:	2005      	movs	r0, #5
   23a28:	9000      	str	r0, [sp, #0]
   23a2a:	2204      	movs	r2, #4
   23a2c:	4c1b      	ldr	r4, [pc, #108]	@ (23a9c <_ZN20complex_full_dynamic3app17hf8b8766ad141aee6E+0xa0>)
   23a2e:	4630      	mov	r0, r6
   23a30:	9903      	ldr	r1, [sp, #12]
   23a32:	4623      	mov	r3, r4
   23a34:	f7fc fb56 	bl	200e4 <_ZN9allow_pin12full_dynamic15Buffer$LT$B$GT$5allow17h4466d99fb2bc5668E>
   23a38:	07c0      	lsls	r0, r0, #31
   23a3a:	d111      	bne.n	23a60 <_ZN20complex_full_dynamic3app17hf8b8766ad141aee6E+0x64>
   23a3c:	2007      	movs	r0, #7
   23a3e:	9000      	str	r0, [sp, #0]
   23a40:	a817      	add	r0, sp, #92	@ 0x5c
   23a42:	212c      	movs	r1, #44	@ 0x2c
   23a44:	2203      	movs	r2, #3
   23a46:	4623      	mov	r3, r4
   23a48:	f7fc fb4c 	bl	200e4 <_ZN9allow_pin12full_dynamic15Buffer$LT$B$GT$5allow17h4466d99fb2bc5668E>
   23a4c:	07c0      	lsls	r0, r0, #31
   23a4e:	d107      	bne.n	23a60 <_ZN20complex_full_dynamic3app17hf8b8766ad141aee6E+0x64>
   23a50:	4812      	ldr	r0, [pc, #72]	@ (23a9c <_ZN20complex_full_dynamic3app17hf8b8766ad141aee6E+0xa0>)
   23a52:	2105      	movs	r1, #5
   23a54:	2207      	movs	r2, #7
   23a56:	2600      	movs	r6, #0
   23a58:	4633      	mov	r3, r6
   23a5a:	df02      	svc	2
   23a5c:	287f      	cmp	r0, #127	@ 0x7f
   23a5e:	d80b      	bhi.n	23a78 <_ZN20complex_full_dynamic3app17hf8b8766ad141aee6E+0x7c>
   23a60:	9c04      	ldr	r4, [sp, #16]
   23a62:	6061      	str	r1, [r4, #4]
   23a64:	2601      	movs	r6, #1
   23a66:	7026      	strb	r6, [r4, #0]
   23a68:	a817      	add	r0, sp, #92	@ 0x5c
   23a6a:	f002 ff53 	bl	26914 <_ZN9allow_pin12full_dynamic17unshare_if_shared17h1c062ce130e7e9d8E>
   23a6e:	a805      	add	r0, sp, #20
   23a70:	f002 ff50 	bl	26914 <_ZN9allow_pin12full_dynamic17unshare_if_shared17h1c062ce130e7e9d8E>
   23a74:	b025      	add	sp, #148	@ 0x94
   23a76:	bdf0      	pop	{r4, r5, r6, r7, pc}
   23a78:	a805      	add	r0, sp, #20
   23a7a:	f002 ff4b 	bl	26914 <_ZN9allow_pin12full_dynamic17unshare_if_shared17h1c062ce130e7e9d8E>
   23a7e:	ac17      	add	r4, sp, #92	@ 0x5c
   23a80:	4620      	mov	r0, r4
   23a82:	f002 ff47 	bl	26914 <_ZN9allow_pin12full_dynamic17unshare_if_shared17h1c062ce130e7e9d8E>
   23a86:	4620      	mov	r0, r4
   23a88:	f002 ff44 	bl	26914 <_ZN9allow_pin12full_dynamic17unshare_if_shared17h1c062ce130e7e9d8E>
   23a8c:	9c04      	ldr	r4, [sp, #16]
   23a8e:	1c60      	adds	r0, r4, #1
   23a90:	222c      	movs	r2, #44	@ 0x2c
   23a92:	9902      	ldr	r1, [sp, #8]
   23a94:	f003 f8ff 	bl	26c96 <__aeabi_memcpy>
   23a98:	e7e5      	b.n	23a66 <_ZN20complex_full_dynamic3app17hf8b8766ad141aee6E+0x6a>
   23a9a:	46c0      	nop			@ (mov r8, r8)
   23a9c:	00001eac 	.word	0x00001eac

00023aa0 <_ZN20complex_full_dynamic3app17hfe417fe85270e80eE>:
   23aa0:	b5f0      	push	{r4, r5, r6, r7, lr}
   23aa2:	af03      	add	r7, sp, #12
   23aa4:	b099      	sub	sp, #100	@ 0x64
   23aa6:	9004      	str	r0, [sp, #16]
   23aa8:	ae05      	add	r6, sp, #20
   23aaa:	2502      	movs	r5, #2
   23aac:	7235      	strb	r5, [r6, #8]
   23aae:	4630      	mov	r0, r6
   23ab0:	300c      	adds	r0, #12
   23ab2:	2218      	movs	r2, #24
   23ab4:	9203      	str	r2, [sp, #12]
   23ab6:	f003 f8ee 	bl	26c96 <__aeabi_memcpy>
   23aba:	ac0e      	add	r4, sp, #56	@ 0x38
   23abc:	4620      	mov	r0, r4
   23abe:	300c      	adds	r0, #12
   23ac0:	211e      	movs	r1, #30
   23ac2:	9002      	str	r0, [sp, #8]
   23ac4:	f002 ff3a 	bl	2693c <__aeabi_memclr4>
   23ac8:	7225      	strb	r5, [r4, #8]
   23aca:	2009      	movs	r0, #9
   23acc:	9000      	str	r0, [sp, #0]
   23ace:	2204      	movs	r2, #4
   23ad0:	4c1b      	ldr	r4, [pc, #108]	@ (23b40 <_ZN20complex_full_dynamic3app17hfe417fe85270e80eE+0xa0>)
   23ad2:	4630      	mov	r0, r6
   23ad4:	9903      	ldr	r1, [sp, #12]
   23ad6:	4623      	mov	r3, r4
   23ad8:	f7fc fb04 	bl	200e4 <_ZN9allow_pin12full_dynamic15Buffer$LT$B$GT$5allow17h4466d99fb2bc5668E>
   23adc:	07c0      	lsls	r0, r0, #31
   23ade:	d111      	bne.n	23b04 <_ZN20complex_full_dynamic3app17hfe417fe85270e80eE+0x64>
   23ae0:	2005      	movs	r0, #5
   23ae2:	9000      	str	r0, [sp, #0]
   23ae4:	a80e      	add	r0, sp, #56	@ 0x38
   23ae6:	211e      	movs	r1, #30
   23ae8:	2203      	movs	r2, #3
   23aea:	4623      	mov	r3, r4
   23aec:	f7fc fafa 	bl	200e4 <_ZN9allow_pin12full_dynamic15Buffer$LT$B$GT$5allow17h4466d99fb2bc5668E>
   23af0:	07c0      	lsls	r0, r0, #31
   23af2:	d107      	bne.n	23b04 <_ZN20complex_full_dynamic3app17hfe417fe85270e80eE+0x64>
   23af4:	4812      	ldr	r0, [pc, #72]	@ (23b40 <_ZN20complex_full_dynamic3app17hfe417fe85270e80eE+0xa0>)
   23af6:	2109      	movs	r1, #9
   23af8:	2205      	movs	r2, #5
   23afa:	2600      	movs	r6, #0
   23afc:	4633      	mov	r3, r6
   23afe:	df02      	svc	2
   23b00:	287f      	cmp	r0, #127	@ 0x7f
   23b02:	d80b      	bhi.n	23b1c <_ZN20complex_full_dynamic3app17hfe417fe85270e80eE+0x7c>
   23b04:	9c04      	ldr	r4, [sp, #16]
   23b06:	6061      	str	r1, [r4, #4]
   23b08:	2601      	movs	r6, #1
   23b0a:	7026      	strb	r6, [r4, #0]
   23b0c:	a80e      	add	r0, sp, #56	@ 0x38
   23b0e:	f002 ff01 	bl	26914 <_ZN9allow_pin12full_dynamic17unshare_if_shared17h1c062ce130e7e9d8E>
   23b12:	a805      	add	r0, sp, #20
   23b14:	f002 fefe 	bl	26914 <_ZN9allow_pin12full_dynamic17unshare_if_shared17h1c062ce130e7e9d8E>
   23b18:	b019      	add	sp, #100	@ 0x64
   23b1a:	bdf0      	pop	{r4, r5, r6, r7, pc}
   23b1c:	a805      	add	r0, sp, #20
   23b1e:	f002 fef9 	bl	26914 <_ZN9allow_pin12full_dynamic17unshare_if_shared17h1c062ce130e7e9d8E>
   23b22:	ac0e      	add	r4, sp, #56	@ 0x38
   23b24:	4620      	mov	r0, r4
   23b26:	f002 fef5 	bl	26914 <_ZN9allow_pin12full_dynamic17unshare_if_shared17h1c062ce130e7e9d8E>
   23b2a:	4620      	mov	r0, r4
   23b2c:	f002 fef2 	bl	26914 <_ZN9allow_pin12full_dynamic17unshare_if_shared17h1c062ce130e7e9d8E>
   23b30:	9c04      	ldr	r4, [sp, #16]
   23b32:	1c60      	adds	r0, r4, #1
   23b34:	221e      	movs	r2, #30
   23b36:	9902      	ldr	r1, [sp, #8]
   23b38:	f003 f8ad 	bl	26c96 <__aeabi_memcpy>
   23b3c:	e7e5      	b.n	23b0a <_ZN20complex_full_dynamic3app17hfe417fe85270e80eE+0x6a>
   23b3e:	46c0      	nop			@ (mov r8, r8)
   23b40:	00000cbb 	.word	0x00000cbb

00023b44 <_ZN20complex_full_dynamic3app17hff3701f4cb4613d5E>:
   23b44:	b5f0      	push	{r4, r5, r6, r7, lr}
   23b46:	af03      	add	r7, sp, #12
   23b48:	b097      	sub	sp, #92	@ 0x5c
   23b4a:	9003      	str	r0, [sp, #12]
   23b4c:	ae04      	add	r6, sp, #16
   23b4e:	2502      	movs	r5, #2
   23b50:	7235      	strb	r5, [r6, #8]
   23b52:	4630      	mov	r0, r6
   23b54:	300c      	adds	r0, #12
   23b56:	220d      	movs	r2, #13
   23b58:	9202      	str	r2, [sp, #8]
   23b5a:	f003 f89c 	bl	26c96 <__aeabi_memcpy>
   23b5e:	ac0b      	add	r4, sp, #44	@ 0x2c
   23b60:	4620      	mov	r0, r4
   23b62:	300c      	adds	r0, #12
   23b64:	2121      	movs	r1, #33	@ 0x21
   23b66:	9001      	str	r0, [sp, #4]
   23b68:	f002 fee8 	bl	2693c <__aeabi_memclr4>
   23b6c:	7225      	strb	r5, [r4, #8]
   23b6e:	2500      	movs	r5, #0
   23b70:	9500      	str	r5, [sp, #0]
   23b72:	2204      	movs	r2, #4
   23b74:	4c1a      	ldr	r4, [pc, #104]	@ (23be0 <_ZN20complex_full_dynamic3app17hff3701f4cb4613d5E+0x9c>)
   23b76:	4630      	mov	r0, r6
   23b78:	9902      	ldr	r1, [sp, #8]
   23b7a:	4623      	mov	r3, r4
   23b7c:	f7fc fab2 	bl	200e4 <_ZN9allow_pin12full_dynamic15Buffer$LT$B$GT$5allow17h4466d99fb2bc5668E>
   23b80:	07c0      	lsls	r0, r0, #31
   23b82:	d110      	bne.n	23ba6 <_ZN20complex_full_dynamic3app17hff3701f4cb4613d5E+0x62>
   23b84:	9500      	str	r5, [sp, #0]
   23b86:	a80b      	add	r0, sp, #44	@ 0x2c
   23b88:	2121      	movs	r1, #33	@ 0x21
   23b8a:	2203      	movs	r2, #3
   23b8c:	4623      	mov	r3, r4
   23b8e:	f7fc faa9 	bl	200e4 <_ZN9allow_pin12full_dynamic15Buffer$LT$B$GT$5allow17h4466d99fb2bc5668E>
   23b92:	07c0      	lsls	r0, r0, #31
   23b94:	d107      	bne.n	23ba6 <_ZN20complex_full_dynamic3app17hff3701f4cb4613d5E+0x62>
   23b96:	4812      	ldr	r0, [pc, #72]	@ (23be0 <_ZN20complex_full_dynamic3app17hff3701f4cb4613d5E+0x9c>)
   23b98:	2600      	movs	r6, #0
   23b9a:	4631      	mov	r1, r6
   23b9c:	4632      	mov	r2, r6
   23b9e:	4633      	mov	r3, r6
   23ba0:	df02      	svc	2
   23ba2:	287f      	cmp	r0, #127	@ 0x7f
   23ba4:	d80b      	bhi.n	23bbe <_ZN20complex_full_dynamic3app17hff3701f4cb4613d5E+0x7a>
   23ba6:	9c03      	ldr	r4, [sp, #12]
   23ba8:	6061      	str	r1, [r4, #4]
   23baa:	2601      	movs	r6, #1
   23bac:	7026      	strb	r6, [r4, #0]
   23bae:	a80b      	add	r0, sp, #44	@ 0x2c
   23bb0:	f002 feb0 	bl	26914 <_ZN9allow_pin12full_dynamic17unshare_if_shared17h1c062ce130e7e9d8E>
   23bb4:	a804      	add	r0, sp, #16
   23bb6:	f002 fead 	bl	26914 <_ZN9allow_pin12full_dynamic17unshare_if_shared17h1c062ce130e7e9d8E>
   23bba:	b017      	add	sp, #92	@ 0x5c
   23bbc:	bdf0      	pop	{r4, r5, r6, r7, pc}
   23bbe:	a804      	add	r0, sp, #16
   23bc0:	f002 fea8 	bl	26914 <_ZN9allow_pin12full_dynamic17unshare_if_shared17h1c062ce130e7e9d8E>
   23bc4:	ac0b      	add	r4, sp, #44	@ 0x2c
   23bc6:	4620      	mov	r0, r4
   23bc8:	f002 fea4 	bl	26914 <_ZN9allow_pin12full_dynamic17unshare_if_shared17h1c062ce130e7e9d8E>
   23bcc:	4620      	mov	r0, r4
   23bce:	f002 fea1 	bl	26914 <_ZN9allow_pin12full_dynamic17unshare_if_shared17h1c062ce130e7e9d8E>
   23bd2:	9c03      	ldr	r4, [sp, #12]
   23bd4:	1c60      	adds	r0, r4, #1
   23bd6:	2221      	movs	r2, #33	@ 0x21
   23bd8:	9901      	ldr	r1, [sp, #4]
   23bda:	f003 f85c 	bl	26c96 <__aeabi_memcpy>
   23bde:	e7e5      	b.n	23bac <_ZN20complex_full_dynamic3app17hff3701f4cb4613d5E+0x68>
   23be0:	000016b0 	.word	0x000016b0

00023be4 <_ZN20complex_full_dynamic3app17hffd2e77e3e5bf244E>:
   23be4:	b5f0      	push	{r4, r5, r6, r7, lr}
   23be6:	af03      	add	r7, sp, #12
   23be8:	b0a9      	sub	sp, #164	@ 0xa4
   23bea:	9003      	str	r0, [sp, #12]
   23bec:	ae04      	add	r6, sp, #16
   23bee:	2502      	movs	r5, #2
   23bf0:	7235      	strb	r5, [r6, #8]
   23bf2:	4630      	mov	r0, r6
   23bf4:	300c      	adds	r0, #12
   23bf6:	2227      	movs	r2, #39	@ 0x27
   23bf8:	9202      	str	r2, [sp, #8]
   23bfa:	f003 f84c 	bl	26c96 <__aeabi_memcpy>
   23bfe:	ac11      	add	r4, sp, #68	@ 0x44
   23c00:	4620      	mov	r0, r4
   23c02:	300c      	adds	r0, #12
   23c04:	2151      	movs	r1, #81	@ 0x51
   23c06:	9001      	str	r0, [sp, #4]
   23c08:	f002 fe98 	bl	2693c <__aeabi_memclr4>
   23c0c:	7225      	strb	r5, [r4, #8]
   23c0e:	2000      	movs	r0, #0
   23c10:	9000      	str	r0, [sp, #0]
   23c12:	2504      	movs	r5, #4
   23c14:	4c1b      	ldr	r4, [pc, #108]	@ (23c84 <_ZN20complex_full_dynamic3app17hffd2e77e3e5bf244E+0xa0>)
   23c16:	4630      	mov	r0, r6
   23c18:	9902      	ldr	r1, [sp, #8]
   23c1a:	462a      	mov	r2, r5
   23c1c:	4623      	mov	r3, r4
   23c1e:	f7fc fa61 	bl	200e4 <_ZN9allow_pin12full_dynamic15Buffer$LT$B$GT$5allow17h4466d99fb2bc5668E>
   23c22:	07c0      	lsls	r0, r0, #31
   23c24:	d110      	bne.n	23c48 <_ZN20complex_full_dynamic3app17hffd2e77e3e5bf244E+0x64>
   23c26:	9500      	str	r5, [sp, #0]
   23c28:	a811      	add	r0, sp, #68	@ 0x44
   23c2a:	2151      	movs	r1, #81	@ 0x51
   23c2c:	2203      	movs	r2, #3
   23c2e:	4623      	mov	r3, r4
   23c30:	f7fc fa58 	bl	200e4 <_ZN9allow_pin12full_dynamic15Buffer$LT$B$GT$5allow17h4466d99fb2bc5668E>
   23c34:	07c0      	lsls	r0, r0, #31
   23c36:	d107      	bne.n	23c48 <_ZN20complex_full_dynamic3app17hffd2e77e3e5bf244E+0x64>
   23c38:	4812      	ldr	r0, [pc, #72]	@ (23c84 <_ZN20complex_full_dynamic3app17hffd2e77e3e5bf244E+0xa0>)
   23c3a:	2204      	movs	r2, #4
   23c3c:	2600      	movs	r6, #0
   23c3e:	4631      	mov	r1, r6
   23c40:	4633      	mov	r3, r6
   23c42:	df02      	svc	2
   23c44:	287f      	cmp	r0, #127	@ 0x7f
   23c46:	d80b      	bhi.n	23c60 <_ZN20complex_full_dynamic3app17hffd2e77e3e5bf244E+0x7c>
   23c48:	9c03      	ldr	r4, [sp, #12]
   23c4a:	6061      	str	r1, [r4, #4]
   23c4c:	2601      	movs	r6, #1
   23c4e:	7026      	strb	r6, [r4, #0]
   23c50:	a811      	add	r0, sp, #68	@ 0x44
   23c52:	f002 fe5f 	bl	26914 <_ZN9allow_pin12full_dynamic17unshare_if_shared17h1c062ce130e7e9d8E>
   23c56:	a804      	add	r0, sp, #16
   23c58:	f002 fe5c 	bl	26914 <_ZN9allow_pin12full_dynamic17unshare_if_shared17h1c062ce130e7e9d8E>
   23c5c:	b029      	add	sp, #164	@ 0xa4
   23c5e:	bdf0      	pop	{r4, r5, r6, r7, pc}
   23c60:	a804      	add	r0, sp, #16
   23c62:	f002 fe57 	bl	26914 <_ZN9allow_pin12full_dynamic17unshare_if_shared17h1c062ce130e7e9d8E>
   23c66:	ac11      	add	r4, sp, #68	@ 0x44
   23c68:	4620      	mov	r0, r4
   23c6a:	f002 fe53 	bl	26914 <_ZN9allow_pin12full_dynamic17unshare_if_shared17h1c062ce130e7e9d8E>
   23c6e:	4620      	mov	r0, r4
   23c70:	f002 fe50 	bl	26914 <_ZN9allow_pin12full_dynamic17unshare_if_shared17h1c062ce130e7e9d8E>
   23c74:	9c03      	ldr	r4, [sp, #12]
   23c76:	1c60      	adds	r0, r4, #1
   23c78:	2251      	movs	r2, #81	@ 0x51
   23c7a:	9901      	ldr	r1, [sp, #4]
   23c7c:	f003 f80b 	bl	26c96 <__aeabi_memcpy>
   23c80:	e7e5      	b.n	23c4e <_ZN20complex_full_dynamic3app17hffd2e77e3e5bf244E+0x6a>
   23c82:	46c0      	nop			@ (mov r8, r8)
   23c84:	00000a36 	.word	0x00000a36

00023c88 <_start>:
   23c88:	b5f0      	push	{r4, r5, r6, r7, lr}
   23c8a:	af03      	add	r7, sp, #12
   23c8c:	4e23      	ldr	r6, [pc, #140]	@ (23d1c <_start+0x94>)
   23c8e:	44b5      	add	sp, r6
   23c90:	4823      	ldr	r0, [pc, #140]	@ (23d20 <_start+0x98>)
   23c92:	4468      	add	r0, sp
   23c94:	9009      	str	r0, [sp, #36]	@ 0x24
   23c96:	ad21      	add	r5, sp, #132	@ 0x84
   23c98:	4628      	mov	r0, r5
   23c9a:	300c      	adds	r0, #12
   23c9c:	2128      	movs	r1, #40	@ 0x28
   23c9e:	910d      	str	r1, [sp, #52]	@ 0x34
   23ca0:	f002 fe4c 	bl	2693c <__aeabi_memclr4>
   23ca4:	2602      	movs	r6, #2
   23ca6:	722e      	strb	r6, [r5, #8]
   23ca8:	4c1e      	ldr	r4, [pc, #120]	@ (23d24 <_start+0x9c>)
   23caa:	446c      	add	r4, sp
   23cac:	4620      	mov	r0, r4
   23cae:	300c      	adds	r0, #12
   23cb0:	2151      	movs	r1, #81	@ 0x51
   23cb2:	900a      	str	r0, [sp, #40]	@ 0x28
   23cb4:	f002 fe42 	bl	2693c <__aeabi_memclr4>
   23cb8:	960b      	str	r6, [sp, #44]	@ 0x2c
   23cba:	7226      	strb	r6, [r4, #8]
   23cbc:	2409      	movs	r4, #9
   23cbe:	9400      	str	r4, [sp, #0]
   23cc0:	2204      	movs	r2, #4
   23cc2:	4e19      	ldr	r6, [pc, #100]	@ (23d28 <_start+0xa0>)
   23cc4:	4628      	mov	r0, r5
   23cc6:	990d      	ldr	r1, [sp, #52]	@ 0x34
   23cc8:	4633      	mov	r3, r6
   23cca:	f7fc fa0b 	bl	200e4 <_ZN9allow_pin12full_dynamic15Buffer$LT$B$GT$5allow17h4466d99fb2bc5668E>
   23cce:	460a      	mov	r2, r1
   23cd0:	07c0      	lsls	r0, r0, #31
   23cd2:	a94d      	add	r1, sp, #308	@ 0x134
   23cd4:	9108      	str	r1, [sp, #32]
   23cd6:	4915      	ldr	r1, [pc, #84]	@ (23d2c <_start+0xa4>)
   23cd8:	4469      	add	r1, sp
   23cda:	9106      	str	r1, [sp, #24]
   23cdc:	4914      	ldr	r1, [pc, #80]	@ (23d30 <_start+0xa8>)
   23cde:	4469      	add	r1, sp
   23ce0:	9107      	str	r1, [sp, #28]
   23ce2:	2501      	movs	r5, #1
   23ce4:	2800      	cmp	r0, #0
   23ce6:	950c      	str	r5, [sp, #48]	@ 0x30
   23ce8:	d001      	beq.n	23cee <_start+0x66>
   23cea:	920d      	str	r2, [sp, #52]	@ 0x34
   23cec:	e050      	b.n	23d90 <_start+0x108>
   23cee:	9400      	str	r4, [sp, #0]
   23cf0:	480c      	ldr	r0, [pc, #48]	@ (23d24 <_start+0x9c>)
   23cf2:	4468      	add	r0, sp
   23cf4:	2151      	movs	r1, #81	@ 0x51
   23cf6:	2203      	movs	r2, #3
   23cf8:	4633      	mov	r3, r6
   23cfa:	f7fc f9f3 	bl	200e4 <_ZN9allow_pin12full_dynamic15Buffer$LT$B$GT$5allow17h4466d99fb2bc5668E>
   23cfe:	07c0      	lsls	r0, r0, #31
   23d00:	d001      	beq.n	23d06 <_start+0x7e>
   23d02:	910d      	str	r1, [sp, #52]	@ 0x34
   23d04:	e044      	b.n	23d90 <_start+0x108>
   23d06:	4808      	ldr	r0, [pc, #32]	@ (23d28 <_start+0xa0>)
   23d08:	2109      	movs	r1, #9
   23d0a:	2500      	movs	r5, #0
   23d0c:	460a      	mov	r2, r1
   23d0e:	462b      	mov	r3, r5
   23d10:	df02      	svc	2
   23d12:	287f      	cmp	r0, #127	@ 0x7f
   23d14:	d80e      	bhi.n	23d34 <_start+0xac>
   23d16:	910d      	str	r1, [sp, #52]	@ 0x34
   23d18:	9d0c      	ldr	r5, [sp, #48]	@ 0x30
   23d1a:	e039      	b.n	23d90 <_start+0x108>
   23d1c:	ffffead4 	.word	0xffffead4
   23d20:	000013b0 	.word	0x000013b0
   23d24:	0000140c 	.word	0x0000140c
   23d28:	00002006 	.word	0x00002006
   23d2c:	00000510 	.word	0x00000510
   23d30:	000007e4 	.word	0x000007e4
   23d34:	a821      	add	r0, sp, #132	@ 0x84
   23d36:	f002 fded 	bl	26914 <_ZN9allow_pin12full_dynamic17unshare_if_shared17h1c062ce130e7e9d8E>
   23d3a:	4e14      	ldr	r6, [pc, #80]	@ (23d8c <_start+0x104>)
   23d3c:	446e      	add	r6, sp
   23d3e:	4630      	mov	r0, r6
   23d40:	f002 fde8 	bl	26914 <_ZN9allow_pin12full_dynamic17unshare_if_shared17h1c062ce130e7e9d8E>
   23d44:	4630      	mov	r0, r6
   23d46:	f002 fde5 	bl	26914 <_ZN9allow_pin12full_dynamic17unshare_if_shared17h1c062ce130e7e9d8E>
   23d4a:	9a0a      	ldr	r2, [sp, #40]	@ 0x28
   23d4c:	7890      	ldrb	r0, [r2, #2]
   23d4e:	a931      	add	r1, sp, #196	@ 0xc4
   23d50:	7088      	strb	r0, [r1, #2]
   23d52:	7810      	ldrb	r0, [r2, #0]
   23d54:	7852      	ldrb	r2, [r2, #1]
   23d56:	0212      	lsls	r2, r2, #8
   23d58:	1810      	adds	r0, r2, r0
   23d5a:	8008      	strh	r0, [r1, #0]
   23d5c:	7cb0      	ldrb	r0, [r6, #18]
   23d5e:	900d      	str	r0, [sp, #52]	@ 0x34
   23d60:	7c70      	ldrb	r0, [r6, #17]
   23d62:	900a      	str	r0, [sp, #40]	@ 0x28
   23d64:	7bf0      	ldrb	r0, [r6, #15]
   23d66:	9005      	str	r0, [sp, #20]
   23d68:	7c34      	ldrb	r4, [r6, #16]
   23d6a:	3613      	adds	r6, #19
   23d6c:	a80e      	add	r0, sp, #56	@ 0x38
   23d6e:	224a      	movs	r2, #74	@ 0x4a
   23d70:	4631      	mov	r1, r6
   23d72:	f002 ff90 	bl	26c96 <__aeabi_memcpy>
   23d76:	0220      	lsls	r0, r4, #8
   23d78:	9905      	ldr	r1, [sp, #20]
   23d7a:	1840      	adds	r0, r0, r1
   23d7c:	990a      	ldr	r1, [sp, #40]	@ 0x28
   23d7e:	0409      	lsls	r1, r1, #16
   23d80:	9a0d      	ldr	r2, [sp, #52]	@ 0x34
   23d82:	0612      	lsls	r2, r2, #24
   23d84:	1851      	adds	r1, r2, r1
   23d86:	1808      	adds	r0, r1, r0
   23d88:	900d      	str	r0, [sp, #52]	@ 0x34
   23d8a:	e001      	b.n	23d90 <_start+0x108>
   23d8c:	0000140c 	.word	0x0000140c
   23d90:	48f6      	ldr	r0, [pc, #984]	@ (2416c <_start+0x4e4>)
   23d92:	4468      	add	r0, sp
   23d94:	f002 fdbe 	bl	26914 <_ZN9allow_pin12full_dynamic17unshare_if_shared17h1c062ce130e7e9d8E>
   23d98:	a821      	add	r0, sp, #132	@ 0x84
   23d9a:	f002 fdbb 	bl	26914 <_ZN9allow_pin12full_dynamic17unshare_if_shared17h1c062ce130e7e9d8E>
   23d9e:	2d00      	cmp	r5, #0
   23da0:	d000      	beq.n	23da4 <_start+0x11c>
   23da2:	e336      	b.n	24412 <_start+0x78a>
   23da4:	4df1      	ldr	r5, [pc, #964]	@ (2416c <_start+0x4e4>)
   23da6:	446d      	add	r5, sp
   23da8:	4628      	mov	r0, r5
   23daa:	300c      	adds	r0, #12
   23dac:	a931      	add	r1, sp, #196	@ 0xc4
   23dae:	2203      	movs	r2, #3
   23db0:	920a      	str	r2, [sp, #40]	@ 0x28
   23db2:	f002 ff70 	bl	26c96 <__aeabi_memcpy>
   23db6:	4cee      	ldr	r4, [pc, #952]	@ (24170 <_start+0x4e8>)
   23db8:	446c      	add	r4, sp
   23dba:	a90e      	add	r1, sp, #56	@ 0x38
   23dbc:	264a      	movs	r6, #74	@ 0x4a
   23dbe:	4620      	mov	r0, r4
   23dc0:	4632      	mov	r2, r6
   23dc2:	f002 fe08 	bl	269d6 <__aeabi_memcpy4>
   23dc6:	4628      	mov	r0, r5
   23dc8:	3013      	adds	r0, #19
   23dca:	4621      	mov	r1, r4
   23dcc:	4632      	mov	r2, r6
   23dce:	f002 ff62 	bl	26c96 <__aeabi_memcpy>
   23dd2:	990d      	ldr	r1, [sp, #52]	@ 0x34
   23dd4:	0e08      	lsrs	r0, r1, #24
   23dd6:	74a8      	strb	r0, [r5, #18]
   23dd8:	0c08      	lsrs	r0, r1, #16
   23dda:	7468      	strb	r0, [r5, #17]
   23ddc:	0a08      	lsrs	r0, r1, #8
   23dde:	7428      	strb	r0, [r5, #16]
   23de0:	73e9      	strb	r1, [r5, #15]
   23de2:	9c0b      	ldr	r4, [sp, #44]	@ 0x2c
   23de4:	722c      	strb	r4, [r5, #8]
   23de6:	4ee2      	ldr	r6, [pc, #904]	@ (24170 <_start+0x4e8>)
   23de8:	446e      	add	r6, sp
   23dea:	4630      	mov	r0, r6
   23dec:	300c      	adds	r0, #12
   23dee:	2146      	movs	r1, #70	@ 0x46
   23df0:	900d      	str	r0, [sp, #52]	@ 0x34
   23df2:	f002 fda3 	bl	2693c <__aeabi_memclr4>
   23df6:	7234      	strb	r4, [r6, #8]
   23df8:	2407      	movs	r4, #7
   23dfa:	9400      	str	r4, [sp, #0]
   23dfc:	4edd      	ldr	r6, [pc, #884]	@ (24174 <_start+0x4ec>)
   23dfe:	36be      	adds	r6, #190	@ 0xbe
   23e00:	2151      	movs	r1, #81	@ 0x51
   23e02:	2204      	movs	r2, #4
   23e04:	4628      	mov	r0, r5
   23e06:	4633      	mov	r3, r6
   23e08:	f7fc f96c 	bl	200e4 <_ZN9allow_pin12full_dynamic15Buffer$LT$B$GT$5allow17h4466d99fb2bc5668E>
   23e0c:	07c0      	lsls	r0, r0, #31
   23e0e:	d113      	bne.n	23e38 <_start+0x1b0>
   23e10:	2000      	movs	r0, #0
   23e12:	9000      	str	r0, [sp, #0]
   23e14:	48d6      	ldr	r0, [pc, #856]	@ (24170 <_start+0x4e8>)
   23e16:	4468      	add	r0, sp
   23e18:	2146      	movs	r1, #70	@ 0x46
   23e1a:	2203      	movs	r2, #3
   23e1c:	4633      	mov	r3, r6
   23e1e:	f7fc f961 	bl	200e4 <_ZN9allow_pin12full_dynamic15Buffer$LT$B$GT$5allow17h4466d99fb2bc5668E>
   23e22:	07c0      	lsls	r0, r0, #31
   23e24:	d108      	bne.n	23e38 <_start+0x1b0>
   23e26:	48d4      	ldr	r0, [pc, #848]	@ (24178 <_start+0x4f0>)
   23e28:	2107      	movs	r1, #7
   23e2a:	2500      	movs	r5, #0
   23e2c:	462a      	mov	r2, r5
   23e2e:	462b      	mov	r3, r5
   23e30:	df02      	svc	2
   23e32:	287f      	cmp	r0, #127	@ 0x7f
   23e34:	d900      	bls.n	23e38 <_start+0x1b0>
   23e36:	e1af      	b.n	24198 <_start+0x510>
   23e38:	910d      	str	r1, [sp, #52]	@ 0x34
   23e3a:	9d0c      	ldr	r5, [sp, #48]	@ 0x30
   23e3c:	48cc      	ldr	r0, [pc, #816]	@ (24170 <_start+0x4e8>)
   23e3e:	4468      	add	r0, sp
   23e40:	f002 fd68 	bl	26914 <_ZN9allow_pin12full_dynamic17unshare_if_shared17h1c062ce130e7e9d8E>
   23e44:	48c9      	ldr	r0, [pc, #804]	@ (2416c <_start+0x4e4>)
   23e46:	4468      	add	r0, sp
   23e48:	f002 fd64 	bl	26914 <_ZN9allow_pin12full_dynamic17unshare_if_shared17h1c062ce130e7e9d8E>
   23e4c:	2d00      	cmp	r5, #0
   23e4e:	d000      	beq.n	23e52 <_start+0x1ca>
   23e50:	e2df      	b.n	24412 <_start+0x78a>
   23e52:	9405      	str	r4, [sp, #20]
   23e54:	48c5      	ldr	r0, [pc, #788]	@ (2416c <_start+0x4e4>)
   23e56:	4468      	add	r0, sp
   23e58:	9004      	str	r0, [sp, #16]
   23e5a:	300c      	adds	r0, #12
   23e5c:	a931      	add	r1, sp, #196	@ 0xc4
   23e5e:	9a0a      	ldr	r2, [sp, #40]	@ 0x28
   23e60:	f002 ff19 	bl	26c96 <__aeabi_memcpy>
   23e64:	a821      	add	r0, sp, #132	@ 0x84
   23e66:	a90e      	add	r1, sp, #56	@ 0x38
   23e68:	460a      	mov	r2, r1
   23e6a:	c858      	ldmia	r0!, {r3, r4, r6}
   23e6c:	c258      	stmia	r2!, {r3, r4, r6}
   23e6e:	c878      	ldmia	r0!, {r3, r4, r5, r6}
   23e70:	c278      	stmia	r2!, {r3, r4, r5, r6}
   23e72:	c878      	ldmia	r0!, {r3, r4, r5, r6}
   23e74:	c278      	stmia	r2!, {r3, r4, r5, r6}
   23e76:	c878      	ldmia	r0!, {r3, r4, r5, r6}
   23e78:	c278      	stmia	r2!, {r3, r4, r5, r6}
   23e7a:	8803      	ldrh	r3, [r0, #0]
   23e7c:	8013      	strh	r3, [r2, #0]
   23e7e:	7880      	ldrb	r0, [r0, #2]
   23e80:	7090      	strb	r0, [r2, #2]
   23e82:	9c04      	ldr	r4, [sp, #16]
   23e84:	4620      	mov	r0, r4
   23e86:	3013      	adds	r0, #19
   23e88:	223f      	movs	r2, #63	@ 0x3f
   23e8a:	f002 ff04 	bl	26c96 <__aeabi_memcpy>
   23e8e:	990d      	ldr	r1, [sp, #52]	@ 0x34
   23e90:	0e08      	lsrs	r0, r1, #24
   23e92:	74a0      	strb	r0, [r4, #18]
   23e94:	0c08      	lsrs	r0, r1, #16
   23e96:	7460      	strb	r0, [r4, #17]
   23e98:	0a08      	lsrs	r0, r1, #8
   23e9a:	7420      	strb	r0, [r4, #16]
   23e9c:	73e1      	strb	r1, [r4, #15]
   23e9e:	9e0b      	ldr	r6, [sp, #44]	@ 0x2c
   23ea0:	7226      	strb	r6, [r4, #8]
   23ea2:	4db3      	ldr	r5, [pc, #716]	@ (24170 <_start+0x4e8>)
   23ea4:	446d      	add	r5, sp
   23ea6:	4628      	mov	r0, r5
   23ea8:	300c      	adds	r0, #12
   23eaa:	2118      	movs	r1, #24
   23eac:	900d      	str	r0, [sp, #52]	@ 0x34
   23eae:	f002 fd45 	bl	2693c <__aeabi_memclr4>
   23eb2:	722e      	strb	r6, [r5, #8]
   23eb4:	4635      	mov	r5, r6
   23eb6:	980a      	ldr	r0, [sp, #40]	@ 0x28
   23eb8:	9000      	str	r0, [sp, #0]
   23eba:	2146      	movs	r1, #70	@ 0x46
   23ebc:	2204      	movs	r2, #4
   23ebe:	4eaf      	ldr	r6, [pc, #700]	@ (2417c <_start+0x4f4>)
   23ec0:	4620      	mov	r0, r4
   23ec2:	4633      	mov	r3, r6
   23ec4:	f7fc f90e 	bl	200e4 <_ZN9allow_pin12full_dynamic15Buffer$LT$B$GT$5allow17h4466d99fb2bc5668E>
   23ec8:	07c0      	lsls	r0, r0, #31
   23eca:	d112      	bne.n	23ef2 <_start+0x26a>
   23ecc:	9500      	str	r5, [sp, #0]
   23ece:	48a8      	ldr	r0, [pc, #672]	@ (24170 <_start+0x4e8>)
   23ed0:	4468      	add	r0, sp
   23ed2:	2118      	movs	r1, #24
   23ed4:	2203      	movs	r2, #3
   23ed6:	4633      	mov	r3, r6
   23ed8:	f7fc f904 	bl	200e4 <_ZN9allow_pin12full_dynamic15Buffer$LT$B$GT$5allow17h4466d99fb2bc5668E>
   23edc:	07c0      	lsls	r0, r0, #31
   23ede:	d108      	bne.n	23ef2 <_start+0x26a>
   23ee0:	48a6      	ldr	r0, [pc, #664]	@ (2417c <_start+0x4f4>)
   23ee2:	2103      	movs	r1, #3
   23ee4:	2202      	movs	r2, #2
   23ee6:	2500      	movs	r5, #0
   23ee8:	462b      	mov	r3, r5
   23eea:	df02      	svc	2
   23eec:	287f      	cmp	r0, #127	@ 0x7f
   23eee:	d900      	bls.n	23ef2 <_start+0x26a>
   23ef0:	e181      	b.n	241f6 <_start+0x56e>
   23ef2:	910d      	str	r1, [sp, #52]	@ 0x34
   23ef4:	9d0c      	ldr	r5, [sp, #48]	@ 0x30
   23ef6:	489e      	ldr	r0, [pc, #632]	@ (24170 <_start+0x4e8>)
   23ef8:	4468      	add	r0, sp
   23efa:	f002 fd0b 	bl	26914 <_ZN9allow_pin12full_dynamic17unshare_if_shared17h1c062ce130e7e9d8E>
   23efe:	489b      	ldr	r0, [pc, #620]	@ (2416c <_start+0x4e4>)
   23f00:	4468      	add	r0, sp
   23f02:	f002 fd07 	bl	26914 <_ZN9allow_pin12full_dynamic17unshare_if_shared17h1c062ce130e7e9d8E>
   23f06:	2d00      	cmp	r5, #0
   23f08:	d000      	beq.n	23f0c <_start+0x284>
   23f0a:	e282      	b.n	24412 <_start+0x78a>
   23f0c:	a821      	add	r0, sp, #132	@ 0x84
   23f0e:	900a      	str	r0, [sp, #40]	@ 0x28
   23f10:	300c      	adds	r0, #12
   23f12:	a936      	add	r1, sp, #216	@ 0xd8
   23f14:	2203      	movs	r2, #3
   23f16:	f002 febe 	bl	26c96 <__aeabi_memcpy>
   23f1a:	a831      	add	r0, sp, #196	@ 0xc4
   23f1c:	a90e      	add	r1, sp, #56	@ 0x38
   23f1e:	460a      	mov	r2, r1
   23f20:	c878      	ldmia	r0!, {r3, r4, r5, r6}
   23f22:	c278      	stmia	r2!, {r3, r4, r5, r6}
   23f24:	7800      	ldrb	r0, [r0, #0]
   23f26:	7010      	strb	r0, [r2, #0]
   23f28:	9e0a      	ldr	r6, [sp, #40]	@ 0x28
   23f2a:	4630      	mov	r0, r6
   23f2c:	3013      	adds	r0, #19
   23f2e:	2211      	movs	r2, #17
   23f30:	f002 feb1 	bl	26c96 <__aeabi_memcpy>
   23f34:	990d      	ldr	r1, [sp, #52]	@ 0x34
   23f36:	0e08      	lsrs	r0, r1, #24
   23f38:	74b0      	strb	r0, [r6, #18]
   23f3a:	0c08      	lsrs	r0, r1, #16
   23f3c:	7470      	strb	r0, [r6, #17]
   23f3e:	0a08      	lsrs	r0, r1, #8
   23f40:	7430      	strb	r0, [r6, #16]
   23f42:	73f1      	strb	r1, [r6, #15]
   23f44:	9d0b      	ldr	r5, [sp, #44]	@ 0x2c
   23f46:	7235      	strb	r5, [r6, #8]
   23f48:	4c88      	ldr	r4, [pc, #544]	@ (2416c <_start+0x4e4>)
   23f4a:	446c      	add	r4, sp
   23f4c:	4620      	mov	r0, r4
   23f4e:	300c      	adds	r0, #12
   23f50:	2136      	movs	r1, #54	@ 0x36
   23f52:	900d      	str	r0, [sp, #52]	@ 0x34
   23f54:	f002 fcf2 	bl	2693c <__aeabi_memclr4>
   23f58:	7225      	strb	r5, [r4, #8]
   23f5a:	2000      	movs	r0, #0
   23f5c:	9004      	str	r0, [sp, #16]
   23f5e:	9000      	str	r0, [sp, #0]
   23f60:	2118      	movs	r1, #24
   23f62:	2204      	movs	r2, #4
   23f64:	4c86      	ldr	r4, [pc, #536]	@ (24180 <_start+0x4f8>)
   23f66:	4630      	mov	r0, r6
   23f68:	4623      	mov	r3, r4
   23f6a:	f7fc f8bb 	bl	200e4 <_ZN9allow_pin12full_dynamic15Buffer$LT$B$GT$5allow17h4466d99fb2bc5668E>
   23f6e:	07c0      	lsls	r0, r0, #31
   23f70:	d113      	bne.n	23f9a <_start+0x312>
   23f72:	9805      	ldr	r0, [sp, #20]
   23f74:	9000      	str	r0, [sp, #0]
   23f76:	487d      	ldr	r0, [pc, #500]	@ (2416c <_start+0x4e4>)
   23f78:	4468      	add	r0, sp
   23f7a:	2136      	movs	r1, #54	@ 0x36
   23f7c:	2203      	movs	r2, #3
   23f7e:	4623      	mov	r3, r4
   23f80:	f7fc f8b0 	bl	200e4 <_ZN9allow_pin12full_dynamic15Buffer$LT$B$GT$5allow17h4466d99fb2bc5668E>
   23f84:	07c0      	lsls	r0, r0, #31
   23f86:	d108      	bne.n	23f9a <_start+0x312>
   23f88:	487d      	ldr	r0, [pc, #500]	@ (24180 <_start+0x4f8>)
   23f8a:	2207      	movs	r2, #7
   23f8c:	2500      	movs	r5, #0
   23f8e:	4629      	mov	r1, r5
   23f90:	462b      	mov	r3, r5
   23f92:	df02      	svc	2
   23f94:	287f      	cmp	r0, #127	@ 0x7f
   23f96:	d900      	bls.n	23f9a <_start+0x312>
   23f98:	e15a      	b.n	24250 <_start+0x5c8>
   23f9a:	910d      	str	r1, [sp, #52]	@ 0x34
   23f9c:	9d0c      	ldr	r5, [sp, #48]	@ 0x30
   23f9e:	4873      	ldr	r0, [pc, #460]	@ (2416c <_start+0x4e4>)
   23fa0:	4468      	add	r0, sp
   23fa2:	f002 fcb7 	bl	26914 <_ZN9allow_pin12full_dynamic17unshare_if_shared17h1c062ce130e7e9d8E>
   23fa6:	a821      	add	r0, sp, #132	@ 0x84
   23fa8:	f002 fcb4 	bl	26914 <_ZN9allow_pin12full_dynamic17unshare_if_shared17h1c062ce130e7e9d8E>
   23fac:	2d00      	cmp	r5, #0
   23fae:	d000      	beq.n	23fb2 <_start+0x32a>
   23fb0:	e22f      	b.n	24412 <_start+0x78a>
   23fb2:	486e      	ldr	r0, [pc, #440]	@ (2416c <_start+0x4e4>)
   23fb4:	4468      	add	r0, sp
   23fb6:	900a      	str	r0, [sp, #40]	@ 0x28
   23fb8:	300c      	adds	r0, #12
   23fba:	a931      	add	r1, sp, #196	@ 0xc4
   23fbc:	2203      	movs	r2, #3
   23fbe:	f002 fe6a 	bl	26c96 <__aeabi_memcpy>
   23fc2:	a80e      	add	r0, sp, #56	@ 0x38
   23fc4:	496a      	ldr	r1, [pc, #424]	@ (24170 <_start+0x4e8>)
   23fc6:	4469      	add	r1, sp
   23fc8:	460a      	mov	r2, r1
   23fca:	c858      	ldmia	r0!, {r3, r4, r6}
   23fcc:	c258      	stmia	r2!, {r3, r4, r6}
   23fce:	c878      	ldmia	r0!, {r3, r4, r5, r6}
   23fd0:	c278      	stmia	r2!, {r3, r4, r5, r6}
   23fd2:	c878      	ldmia	r0!, {r3, r4, r5, r6}
   23fd4:	c278      	stmia	r2!, {r3, r4, r5, r6}
   23fd6:	8803      	ldrh	r3, [r0, #0]
   23fd8:	8013      	strh	r3, [r2, #0]
   23fda:	7880      	ldrb	r0, [r0, #2]
   23fdc:	7090      	strb	r0, [r2, #2]
   23fde:	9e0a      	ldr	r6, [sp, #40]	@ 0x28
   23fe0:	4630      	mov	r0, r6
   23fe2:	3013      	adds	r0, #19
   23fe4:	222f      	movs	r2, #47	@ 0x2f
   23fe6:	f002 fe56 	bl	26c96 <__aeabi_memcpy>
   23fea:	990d      	ldr	r1, [sp, #52]	@ 0x34
   23fec:	0e08      	lsrs	r0, r1, #24
   23fee:	74b0      	strb	r0, [r6, #18]
   23ff0:	0c08      	lsrs	r0, r1, #16
   23ff2:	7470      	strb	r0, [r6, #17]
   23ff4:	0a08      	lsrs	r0, r1, #8
   23ff6:	7430      	strb	r0, [r6, #16]
   23ff8:	73f1      	strb	r1, [r6, #15]
   23ffa:	9d0b      	ldr	r5, [sp, #44]	@ 0x2c
   23ffc:	7235      	strb	r5, [r6, #8]
   23ffe:	4c5c      	ldr	r4, [pc, #368]	@ (24170 <_start+0x4e8>)
   24000:	446c      	add	r4, sp
   24002:	4620      	mov	r0, r4
   24004:	300c      	adds	r0, #12
   24006:	2125      	movs	r1, #37	@ 0x25
   24008:	900d      	str	r0, [sp, #52]	@ 0x34
   2400a:	f002 fc97 	bl	2693c <__aeabi_memclr4>
   2400e:	7225      	strb	r5, [r4, #8]
   24010:	9805      	ldr	r0, [sp, #20]
   24012:	9000      	str	r0, [sp, #0]
   24014:	2136      	movs	r1, #54	@ 0x36
   24016:	2204      	movs	r2, #4
   24018:	4c5a      	ldr	r4, [pc, #360]	@ (24184 <_start+0x4fc>)
   2401a:	4630      	mov	r0, r6
   2401c:	4623      	mov	r3, r4
   2401e:	f7fc f861 	bl	200e4 <_ZN9allow_pin12full_dynamic15Buffer$LT$B$GT$5allow17h4466d99fb2bc5668E>
   24022:	07c0      	lsls	r0, r0, #31
   24024:	d113      	bne.n	2404e <_start+0x3c6>
   24026:	9804      	ldr	r0, [sp, #16]
   24028:	9000      	str	r0, [sp, #0]
   2402a:	4851      	ldr	r0, [pc, #324]	@ (24170 <_start+0x4e8>)
   2402c:	4468      	add	r0, sp
   2402e:	2125      	movs	r1, #37	@ 0x25
   24030:	2203      	movs	r2, #3
   24032:	4623      	mov	r3, r4
   24034:	f7fc f856 	bl	200e4 <_ZN9allow_pin12full_dynamic15Buffer$LT$B$GT$5allow17h4466d99fb2bc5668E>
   24038:	07c0      	lsls	r0, r0, #31
   2403a:	d108      	bne.n	2404e <_start+0x3c6>
   2403c:	4851      	ldr	r0, [pc, #324]	@ (24184 <_start+0x4fc>)
   2403e:	2107      	movs	r1, #7
   24040:	2500      	movs	r5, #0
   24042:	462a      	mov	r2, r5
   24044:	462b      	mov	r3, r5
   24046:	df02      	svc	2
   24048:	287f      	cmp	r0, #127	@ 0x7f
   2404a:	d900      	bls.n	2404e <_start+0x3c6>
   2404c:	e12c      	b.n	242a8 <_start+0x620>
   2404e:	910d      	str	r1, [sp, #52]	@ 0x34
   24050:	9d0c      	ldr	r5, [sp, #48]	@ 0x30
   24052:	4847      	ldr	r0, [pc, #284]	@ (24170 <_start+0x4e8>)
   24054:	4468      	add	r0, sp
   24056:	f002 fc5d 	bl	26914 <_ZN9allow_pin12full_dynamic17unshare_if_shared17h1c062ce130e7e9d8E>
   2405a:	4844      	ldr	r0, [pc, #272]	@ (2416c <_start+0x4e4>)
   2405c:	4468      	add	r0, sp
   2405e:	f002 fc59 	bl	26914 <_ZN9allow_pin12full_dynamic17unshare_if_shared17h1c062ce130e7e9d8E>
   24062:	2d00      	cmp	r5, #0
   24064:	d000      	beq.n	24068 <_start+0x3e0>
   24066:	e1d4      	b.n	24412 <_start+0x78a>
   24068:	4840      	ldr	r0, [pc, #256]	@ (2416c <_start+0x4e4>)
   2406a:	4468      	add	r0, sp
   2406c:	900a      	str	r0, [sp, #40]	@ 0x28
   2406e:	300c      	adds	r0, #12
   24070:	a931      	add	r1, sp, #196	@ 0xc4
   24072:	2203      	movs	r2, #3
   24074:	f002 fe0f 	bl	26c96 <__aeabi_memcpy>
   24078:	a821      	add	r0, sp, #132	@ 0x84
   2407a:	a90e      	add	r1, sp, #56	@ 0x38
   2407c:	460a      	mov	r2, r1
   2407e:	c858      	ldmia	r0!, {r3, r4, r6}
   24080:	c258      	stmia	r2!, {r3, r4, r6}
   24082:	c878      	ldmia	r0!, {r3, r4, r5, r6}
   24084:	c278      	stmia	r2!, {r3, r4, r5, r6}
   24086:	8800      	ldrh	r0, [r0, #0]
   24088:	8010      	strh	r0, [r2, #0]
   2408a:	9c0a      	ldr	r4, [sp, #40]	@ 0x28
   2408c:	4620      	mov	r0, r4
   2408e:	3013      	adds	r0, #19
   24090:	221e      	movs	r2, #30
   24092:	f002 fe00 	bl	26c96 <__aeabi_memcpy>
   24096:	990d      	ldr	r1, [sp, #52]	@ 0x34
   24098:	0e08      	lsrs	r0, r1, #24
   2409a:	74a0      	strb	r0, [r4, #18]
   2409c:	0c08      	lsrs	r0, r1, #16
   2409e:	7460      	strb	r0, [r4, #17]
   240a0:	0a08      	lsrs	r0, r1, #8
   240a2:	7420      	strb	r0, [r4, #16]
   240a4:	73e1      	strb	r1, [r4, #15]
   240a6:	990b      	ldr	r1, [sp, #44]	@ 0x2c
   240a8:	7221      	strb	r1, [r4, #8]
   240aa:	4620      	mov	r0, r4
   240ac:	4e30      	ldr	r6, [pc, #192]	@ (24170 <_start+0x4e8>)
   240ae:	446e      	add	r6, sp
   240b0:	9a04      	ldr	r2, [sp, #16]
   240b2:	8332      	strh	r2, [r6, #24]
   240b4:	7231      	strb	r1, [r6, #8]
   240b6:	4b34      	ldr	r3, [pc, #208]	@ (24188 <_start+0x500>)
   240b8:	446b      	add	r3, sp
   240ba:	601a      	str	r2, [r3, #0]
   240bc:	4b33      	ldr	r3, [pc, #204]	@ (2418c <_start+0x504>)
   240be:	446b      	add	r3, sp
   240c0:	601a      	str	r2, [r3, #0]
   240c2:	4b33      	ldr	r3, [pc, #204]	@ (24190 <_start+0x508>)
   240c4:	446b      	add	r3, sp
   240c6:	601a      	str	r2, [r3, #0]
   240c8:	9100      	str	r1, [sp, #0]
   240ca:	2125      	movs	r1, #37	@ 0x25
   240cc:	2204      	movs	r2, #4
   240ce:	4c31      	ldr	r4, [pc, #196]	@ (24194 <_start+0x50c>)
   240d0:	4623      	mov	r3, r4
   240d2:	f7fc f807 	bl	200e4 <_ZN9allow_pin12full_dynamic15Buffer$LT$B$GT$5allow17h4466d99fb2bc5668E>
   240d6:	07c0      	lsls	r0, r0, #31
   240d8:	d113      	bne.n	24102 <_start+0x47a>
   240da:	2008      	movs	r0, #8
   240dc:	9000      	str	r0, [sp, #0]
   240de:	4824      	ldr	r0, [pc, #144]	@ (24170 <_start+0x4e8>)
   240e0:	4468      	add	r0, sp
   240e2:	210e      	movs	r1, #14
   240e4:	2203      	movs	r2, #3
   240e6:	4623      	mov	r3, r4
   240e8:	f7fb fffc 	bl	200e4 <_ZN9allow_pin12full_dynamic15Buffer$LT$B$GT$5allow17h4466d99fb2bc5668E>
   240ec:	07c0      	lsls	r0, r0, #31
   240ee:	d108      	bne.n	24102 <_start+0x47a>
   240f0:	4828      	ldr	r0, [pc, #160]	@ (24194 <_start+0x50c>)
   240f2:	2102      	movs	r1, #2
   240f4:	2208      	movs	r2, #8
   240f6:	2500      	movs	r5, #0
   240f8:	462b      	mov	r3, r5
   240fa:	df02      	svc	2
   240fc:	287f      	cmp	r0, #127	@ 0x7f
   240fe:	d900      	bls.n	24102 <_start+0x47a>
   24100:	e12a      	b.n	24358 <_start+0x6d0>
   24102:	910d      	str	r1, [sp, #52]	@ 0x34
   24104:	9d0c      	ldr	r5, [sp, #48]	@ 0x30
   24106:	481a      	ldr	r0, [pc, #104]	@ (24170 <_start+0x4e8>)
   24108:	4468      	add	r0, sp
   2410a:	f002 fc03 	bl	26914 <_ZN9allow_pin12full_dynamic17unshare_if_shared17h1c062ce130e7e9d8E>
   2410e:	4817      	ldr	r0, [pc, #92]	@ (2416c <_start+0x4e4>)
   24110:	4468      	add	r0, sp
   24112:	f002 fbff 	bl	26914 <_ZN9allow_pin12full_dynamic17unshare_if_shared17h1c062ce130e7e9d8E>
   24116:	2d00      	cmp	r5, #0
   24118:	9e09      	ldr	r6, [sp, #36]	@ 0x24
   2411a:	d000      	beq.n	2411e <_start+0x496>
   2411c:	e179      	b.n	24412 <_start+0x78a>
   2411e:	ad37      	add	r5, sp, #220	@ 0xdc
   24120:	9831      	ldr	r0, [sp, #196]	@ 0xc4
   24122:	8028      	strh	r0, [r5, #0]
   24124:	a831      	add	r0, sp, #196	@ 0xc4
   24126:	7880      	ldrb	r0, [r0, #2]
   24128:	70a8      	strb	r0, [r5, #2]
   2412a:	a821      	add	r0, sp, #132	@ 0x84
   2412c:	a90e      	add	r1, sp, #56	@ 0x38
   2412e:	460a      	mov	r2, r1
   24130:	c808      	ldmia	r0!, {r3}
   24132:	c208      	stmia	r2!, {r3}
   24134:	8803      	ldrh	r3, [r0, #0]
   24136:	8013      	strh	r3, [r2, #0]
   24138:	7880      	ldrb	r0, [r0, #2]
   2413a:	7090      	strb	r0, [r2, #2]
   2413c:	9a0d      	ldr	r2, [sp, #52]	@ 0x34
   2413e:	0e10      	lsrs	r0, r2, #24
   24140:	71a8      	strb	r0, [r5, #6]
   24142:	0c10      	lsrs	r0, r2, #16
   24144:	7168      	strb	r0, [r5, #5]
   24146:	0a10      	lsrs	r0, r2, #8
   24148:	7128      	strb	r0, [r5, #4]
   2414a:	70ea      	strb	r2, [r5, #3]
   2414c:	1de8      	adds	r0, r5, #7
   2414e:	2207      	movs	r2, #7
   24150:	f002 fda1 	bl	26c96 <__aeabi_memcpy>
   24154:	4c05      	ldr	r4, [pc, #20]	@ (2416c <_start+0x4e4>)
   24156:	446c      	add	r4, sp
   24158:	4620      	mov	r0, r4
   2415a:	4629      	mov	r1, r5
   2415c:	f7fc fcf0 	bl	20b40 <_ZN20complex_full_dynamic3app17h2a0a44b0ca89680eE>
   24160:	7820      	ldrb	r0, [r4, #0]
   24162:	2801      	cmp	r0, #1
   24164:	d000      	beq.n	24168 <_start+0x4e0>
   24166:	e0cc      	b.n	24302 <_start+0x67a>
   24168:	6e30      	ldr	r0, [r6, #96]	@ 0x60
   2416a:	e151      	b.n	24410 <_start+0x788>
   2416c:	0000140c 	.word	0x0000140c
   24170:	000013b0 	.word	0x000013b0
   24174:	00002006 	.word	0x00002006
   24178:	000020c4 	.word	0x000020c4
   2417c:	000023cf 	.word	0x000023cf
   24180:	0000021f 	.word	0x0000021f
   24184:	00001597 	.word	0x00001597
   24188:	000013c4 	.word	0x000013c4
   2418c:	000013c0 	.word	0x000013c0
   24190:	000013bc 	.word	0x000013bc
   24194:	00000667 	.word	0x00000667
   24198:	48a1      	ldr	r0, [pc, #644]	@ (24420 <_start+0x798>)
   2419a:	4468      	add	r0, sp
   2419c:	f002 fbba 	bl	26914 <_ZN9allow_pin12full_dynamic17unshare_if_shared17h1c062ce130e7e9d8E>
   241a0:	4ea0      	ldr	r6, [pc, #640]	@ (24424 <_start+0x79c>)
   241a2:	446e      	add	r6, sp
   241a4:	4630      	mov	r0, r6
   241a6:	f002 fbb5 	bl	26914 <_ZN9allow_pin12full_dynamic17unshare_if_shared17h1c062ce130e7e9d8E>
   241aa:	4630      	mov	r0, r6
   241ac:	f002 fbb2 	bl	26914 <_ZN9allow_pin12full_dynamic17unshare_if_shared17h1c062ce130e7e9d8E>
   241b0:	9a0d      	ldr	r2, [sp, #52]	@ 0x34
   241b2:	7890      	ldrb	r0, [r2, #2]
   241b4:	a931      	add	r1, sp, #196	@ 0xc4
   241b6:	7088      	strb	r0, [r1, #2]
   241b8:	7810      	ldrb	r0, [r2, #0]
   241ba:	7852      	ldrb	r2, [r2, #1]
   241bc:	0212      	lsls	r2, r2, #8
   241be:	1810      	adds	r0, r2, r0
   241c0:	8008      	strh	r0, [r1, #0]
   241c2:	7cb0      	ldrb	r0, [r6, #18]
   241c4:	900d      	str	r0, [sp, #52]	@ 0x34
   241c6:	7c70      	ldrb	r0, [r6, #17]
   241c8:	9004      	str	r0, [sp, #16]
   241ca:	7bf0      	ldrb	r0, [r6, #15]
   241cc:	9003      	str	r0, [sp, #12]
   241ce:	9405      	str	r4, [sp, #20]
   241d0:	7c34      	ldrb	r4, [r6, #16]
   241d2:	3613      	adds	r6, #19
   241d4:	a821      	add	r0, sp, #132	@ 0x84
   241d6:	223f      	movs	r2, #63	@ 0x3f
   241d8:	4631      	mov	r1, r6
   241da:	f002 fd5c 	bl	26c96 <__aeabi_memcpy>
   241de:	0220      	lsls	r0, r4, #8
   241e0:	9c05      	ldr	r4, [sp, #20]
   241e2:	9903      	ldr	r1, [sp, #12]
   241e4:	1840      	adds	r0, r0, r1
   241e6:	9904      	ldr	r1, [sp, #16]
   241e8:	0409      	lsls	r1, r1, #16
   241ea:	9a0d      	ldr	r2, [sp, #52]	@ 0x34
   241ec:	0612      	lsls	r2, r2, #24
   241ee:	1851      	adds	r1, r2, r1
   241f0:	1808      	adds	r0, r1, r0
   241f2:	900d      	str	r0, [sp, #52]	@ 0x34
   241f4:	e622      	b.n	23e3c <_start+0x1b4>
   241f6:	488a      	ldr	r0, [pc, #552]	@ (24420 <_start+0x798>)
   241f8:	4468      	add	r0, sp
   241fa:	f002 fb8b 	bl	26914 <_ZN9allow_pin12full_dynamic17unshare_if_shared17h1c062ce130e7e9d8E>
   241fe:	4e89      	ldr	r6, [pc, #548]	@ (24424 <_start+0x79c>)
   24200:	446e      	add	r6, sp
   24202:	4630      	mov	r0, r6
   24204:	f002 fb86 	bl	26914 <_ZN9allow_pin12full_dynamic17unshare_if_shared17h1c062ce130e7e9d8E>
   24208:	4630      	mov	r0, r6
   2420a:	f002 fb83 	bl	26914 <_ZN9allow_pin12full_dynamic17unshare_if_shared17h1c062ce130e7e9d8E>
   2420e:	9a0d      	ldr	r2, [sp, #52]	@ 0x34
   24210:	7890      	ldrb	r0, [r2, #2]
   24212:	a936      	add	r1, sp, #216	@ 0xd8
   24214:	7088      	strb	r0, [r1, #2]
   24216:	7810      	ldrb	r0, [r2, #0]
   24218:	7852      	ldrb	r2, [r2, #1]
   2421a:	0212      	lsls	r2, r2, #8
   2421c:	1810      	adds	r0, r2, r0
   2421e:	8008      	strh	r0, [r1, #0]
   24220:	7cb0      	ldrb	r0, [r6, #18]
   24222:	900d      	str	r0, [sp, #52]	@ 0x34
   24224:	7c70      	ldrb	r0, [r6, #17]
   24226:	900a      	str	r0, [sp, #40]	@ 0x28
   24228:	7bf0      	ldrb	r0, [r6, #15]
   2422a:	9004      	str	r0, [sp, #16]
   2422c:	7c34      	ldrb	r4, [r6, #16]
   2422e:	3613      	adds	r6, #19
   24230:	a831      	add	r0, sp, #196	@ 0xc4
   24232:	2211      	movs	r2, #17
   24234:	4631      	mov	r1, r6
   24236:	f002 fd2e 	bl	26c96 <__aeabi_memcpy>
   2423a:	0220      	lsls	r0, r4, #8
   2423c:	9904      	ldr	r1, [sp, #16]
   2423e:	1840      	adds	r0, r0, r1
   24240:	990a      	ldr	r1, [sp, #40]	@ 0x28
   24242:	0409      	lsls	r1, r1, #16
   24244:	9a0d      	ldr	r2, [sp, #52]	@ 0x34
   24246:	0612      	lsls	r2, r2, #24
   24248:	1851      	adds	r1, r2, r1
   2424a:	1808      	adds	r0, r1, r0
   2424c:	900d      	str	r0, [sp, #52]	@ 0x34
   2424e:	e652      	b.n	23ef6 <_start+0x26e>
   24250:	a821      	add	r0, sp, #132	@ 0x84
   24252:	f002 fb5f 	bl	26914 <_ZN9allow_pin12full_dynamic17unshare_if_shared17h1c062ce130e7e9d8E>
   24256:	4c72      	ldr	r4, [pc, #456]	@ (24420 <_start+0x798>)
   24258:	446c      	add	r4, sp
   2425a:	4620      	mov	r0, r4
   2425c:	f002 fb5a 	bl	26914 <_ZN9allow_pin12full_dynamic17unshare_if_shared17h1c062ce130e7e9d8E>
   24260:	4620      	mov	r0, r4
   24262:	f002 fb57 	bl	26914 <_ZN9allow_pin12full_dynamic17unshare_if_shared17h1c062ce130e7e9d8E>
   24266:	9a0d      	ldr	r2, [sp, #52]	@ 0x34
   24268:	7890      	ldrb	r0, [r2, #2]
   2426a:	a931      	add	r1, sp, #196	@ 0xc4
   2426c:	7088      	strb	r0, [r1, #2]
   2426e:	7810      	ldrb	r0, [r2, #0]
   24270:	7852      	ldrb	r2, [r2, #1]
   24272:	0212      	lsls	r2, r2, #8
   24274:	1810      	adds	r0, r2, r0
   24276:	8008      	strh	r0, [r1, #0]
   24278:	7ca0      	ldrb	r0, [r4, #18]
   2427a:	900d      	str	r0, [sp, #52]	@ 0x34
   2427c:	7c60      	ldrb	r0, [r4, #17]
   2427e:	900a      	str	r0, [sp, #40]	@ 0x28
   24280:	7be0      	ldrb	r0, [r4, #15]
   24282:	9003      	str	r0, [sp, #12]
   24284:	7c26      	ldrb	r6, [r4, #16]
   24286:	3413      	adds	r4, #19
   24288:	a80e      	add	r0, sp, #56	@ 0x38
   2428a:	222f      	movs	r2, #47	@ 0x2f
   2428c:	4621      	mov	r1, r4
   2428e:	f002 fd02 	bl	26c96 <__aeabi_memcpy>
   24292:	0230      	lsls	r0, r6, #8
   24294:	9903      	ldr	r1, [sp, #12]
   24296:	1840      	adds	r0, r0, r1
   24298:	990a      	ldr	r1, [sp, #40]	@ 0x28
   2429a:	0409      	lsls	r1, r1, #16
   2429c:	9a0d      	ldr	r2, [sp, #52]	@ 0x34
   2429e:	0612      	lsls	r2, r2, #24
   242a0:	1851      	adds	r1, r2, r1
   242a2:	1808      	adds	r0, r1, r0
   242a4:	900d      	str	r0, [sp, #52]	@ 0x34
   242a6:	e67a      	b.n	23f9e <_start+0x316>
   242a8:	485d      	ldr	r0, [pc, #372]	@ (24420 <_start+0x798>)
   242aa:	4468      	add	r0, sp
   242ac:	f002 fb32 	bl	26914 <_ZN9allow_pin12full_dynamic17unshare_if_shared17h1c062ce130e7e9d8E>
   242b0:	4c5c      	ldr	r4, [pc, #368]	@ (24424 <_start+0x79c>)
   242b2:	446c      	add	r4, sp
   242b4:	4620      	mov	r0, r4
   242b6:	f002 fb2d 	bl	26914 <_ZN9allow_pin12full_dynamic17unshare_if_shared17h1c062ce130e7e9d8E>
   242ba:	4620      	mov	r0, r4
   242bc:	f002 fb2a 	bl	26914 <_ZN9allow_pin12full_dynamic17unshare_if_shared17h1c062ce130e7e9d8E>
   242c0:	9a0d      	ldr	r2, [sp, #52]	@ 0x34
   242c2:	7890      	ldrb	r0, [r2, #2]
   242c4:	a931      	add	r1, sp, #196	@ 0xc4
   242c6:	7088      	strb	r0, [r1, #2]
   242c8:	7810      	ldrb	r0, [r2, #0]
   242ca:	7852      	ldrb	r2, [r2, #1]
   242cc:	0212      	lsls	r2, r2, #8
   242ce:	1810      	adds	r0, r2, r0
   242d0:	8008      	strh	r0, [r1, #0]
   242d2:	7ca0      	ldrb	r0, [r4, #18]
   242d4:	900d      	str	r0, [sp, #52]	@ 0x34
   242d6:	7c60      	ldrb	r0, [r4, #17]
   242d8:	900a      	str	r0, [sp, #40]	@ 0x28
   242da:	7be0      	ldrb	r0, [r4, #15]
   242dc:	9005      	str	r0, [sp, #20]
   242de:	7c26      	ldrb	r6, [r4, #16]
   242e0:	3413      	adds	r4, #19
   242e2:	a821      	add	r0, sp, #132	@ 0x84
   242e4:	221e      	movs	r2, #30
   242e6:	4621      	mov	r1, r4
   242e8:	f002 fcd5 	bl	26c96 <__aeabi_memcpy>
   242ec:	0230      	lsls	r0, r6, #8
   242ee:	9905      	ldr	r1, [sp, #20]
   242f0:	1840      	adds	r0, r0, r1
   242f2:	990a      	ldr	r1, [sp, #40]	@ 0x28
   242f4:	0409      	lsls	r1, r1, #16
   242f6:	9a0d      	ldr	r2, [sp, #52]	@ 0x34
   242f8:	0612      	lsls	r2, r2, #24
   242fa:	1851      	adds	r1, r2, r1
   242fc:	1808      	adds	r0, r1, r0
   242fe:	900d      	str	r0, [sp, #52]	@ 0x34
   24300:	e6a7      	b.n	24052 <_start+0x3ca>
   24302:	4947      	ldr	r1, [pc, #284]	@ (24420 <_start+0x798>)
   24304:	4469      	add	r1, sp
   24306:	78c8      	ldrb	r0, [r1, #3]
   24308:	ad3b      	add	r5, sp, #236	@ 0xec
   2430a:	70a8      	strb	r0, [r5, #2]
   2430c:	7848      	ldrb	r0, [r1, #1]
   2430e:	788a      	ldrb	r2, [r1, #2]
   24310:	0212      	lsls	r2, r2, #8
   24312:	1810      	adds	r0, r2, r0
   24314:	8028      	strh	r0, [r5, #0]
   24316:	6e34      	ldr	r4, [r6, #96]	@ 0x60
   24318:	3108      	adds	r1, #8
   2431a:	4842      	ldr	r0, [pc, #264]	@ (24424 <_start+0x79c>)
   2431c:	4468      	add	r0, sp
   2431e:	900d      	str	r0, [sp, #52]	@ 0x34
   24320:	2641      	movs	r6, #65	@ 0x41
   24322:	4632      	mov	r2, r6
   24324:	f002 fb57 	bl	269d6 <__aeabi_memcpy4>
   24328:	0e20      	lsrs	r0, r4, #24
   2432a:	71a8      	strb	r0, [r5, #6]
   2432c:	0c20      	lsrs	r0, r4, #16
   2432e:	7168      	strb	r0, [r5, #5]
   24330:	0a20      	lsrs	r0, r4, #8
   24332:	7128      	strb	r0, [r5, #4]
   24334:	70ec      	strb	r4, [r5, #3]
   24336:	1de8      	adds	r0, r5, #7
   24338:	990d      	ldr	r1, [sp, #52]	@ 0x34
   2433a:	4632      	mov	r2, r6
   2433c:	f002 fcab 	bl	26c96 <__aeabi_memcpy>
   24340:	4c37      	ldr	r4, [pc, #220]	@ (24420 <_start+0x798>)
   24342:	446c      	add	r4, sp
   24344:	4620      	mov	r0, r4
   24346:	4629      	mov	r1, r5
   24348:	f7fc fcf0 	bl	20d2c <_ZN20complex_full_dynamic3app17h3180f2e9ac696ecdE>
   2434c:	7820      	ldrb	r0, [r4, #0]
   2434e:	2801      	cmp	r0, #1
   24350:	d12f      	bne.n	243b2 <_start+0x72a>
   24352:	9809      	ldr	r0, [sp, #36]	@ 0x24
   24354:	6e00      	ldr	r0, [r0, #96]	@ 0x60
   24356:	e05b      	b.n	24410 <_start+0x788>
   24358:	360c      	adds	r6, #12
   2435a:	4831      	ldr	r0, [pc, #196]	@ (24420 <_start+0x798>)
   2435c:	4468      	add	r0, sp
   2435e:	f002 fad9 	bl	26914 <_ZN9allow_pin12full_dynamic17unshare_if_shared17h1c062ce130e7e9d8E>
   24362:	4c30      	ldr	r4, [pc, #192]	@ (24424 <_start+0x79c>)
   24364:	446c      	add	r4, sp
   24366:	4620      	mov	r0, r4
   24368:	f002 fad4 	bl	26914 <_ZN9allow_pin12full_dynamic17unshare_if_shared17h1c062ce130e7e9d8E>
   2436c:	4620      	mov	r0, r4
   2436e:	f002 fad1 	bl	26914 <_ZN9allow_pin12full_dynamic17unshare_if_shared17h1c062ce130e7e9d8E>
   24372:	78b0      	ldrb	r0, [r6, #2]
   24374:	a931      	add	r1, sp, #196	@ 0xc4
   24376:	7088      	strb	r0, [r1, #2]
   24378:	7830      	ldrb	r0, [r6, #0]
   2437a:	7872      	ldrb	r2, [r6, #1]
   2437c:	0212      	lsls	r2, r2, #8
   2437e:	1810      	adds	r0, r2, r0
   24380:	8008      	strh	r0, [r1, #0]
   24382:	7ca0      	ldrb	r0, [r4, #18]
   24384:	900d      	str	r0, [sp, #52]	@ 0x34
   24386:	7c60      	ldrb	r0, [r4, #17]
   24388:	900c      	str	r0, [sp, #48]	@ 0x30
   2438a:	7be0      	ldrb	r0, [r4, #15]
   2438c:	900b      	str	r0, [sp, #44]	@ 0x2c
   2438e:	7c26      	ldrb	r6, [r4, #16]
   24390:	3413      	adds	r4, #19
   24392:	a821      	add	r0, sp, #132	@ 0x84
   24394:	2207      	movs	r2, #7
   24396:	4621      	mov	r1, r4
   24398:	f002 fc7d 	bl	26c96 <__aeabi_memcpy>
   2439c:	0230      	lsls	r0, r6, #8
   2439e:	990b      	ldr	r1, [sp, #44]	@ 0x2c
   243a0:	1840      	adds	r0, r0, r1
   243a2:	990c      	ldr	r1, [sp, #48]	@ 0x30
   243a4:	0409      	lsls	r1, r1, #16
   243a6:	9a0d      	ldr	r2, [sp, #52]	@ 0x34
   243a8:	0612      	lsls	r2, r2, #24
   243aa:	1851      	adds	r1, r2, r1
   243ac:	1808      	adds	r0, r1, r0
   243ae:	900d      	str	r0, [sp, #52]	@ 0x34
   243b0:	e6a9      	b.n	24106 <_start+0x47e>
   243b2:	9808      	ldr	r0, [sp, #32]
   243b4:	1cc0      	adds	r0, r0, #3
   243b6:	4a1a      	ldr	r2, [pc, #104]	@ (24420 <_start+0x798>)
   243b8:	446a      	add	r2, sp
   243ba:	78d3      	ldrb	r3, [r2, #3]
   243bc:	a94d      	add	r1, sp, #308	@ 0x134
   243be:	708b      	strb	r3, [r1, #2]
   243c0:	7853      	ldrb	r3, [r2, #1]
   243c2:	7892      	ldrb	r2, [r2, #2]
   243c4:	0212      	lsls	r2, r2, #8
   243c6:	18d2      	adds	r2, r2, r3
   243c8:	800a      	strh	r2, [r1, #0]
   243ca:	9e09      	ldr	r6, [sp, #36]	@ 0x24
   243cc:	4634      	mov	r4, r6
   243ce:	3460      	adds	r4, #96	@ 0x60
   243d0:	cc1c      	ldmia	r4, {r2, r3, r4}
   243d2:	0e25      	lsrs	r5, r4, #24
   243d4:	72c5      	strb	r5, [r0, #11]
   243d6:	0c25      	lsrs	r5, r4, #16
   243d8:	7285      	strb	r5, [r0, #10]
   243da:	0a25      	lsrs	r5, r4, #8
   243dc:	7245      	strb	r5, [r0, #9]
   243de:	7204      	strb	r4, [r0, #8]
   243e0:	0e1c      	lsrs	r4, r3, #24
   243e2:	71c4      	strb	r4, [r0, #7]
   243e4:	0c1c      	lsrs	r4, r3, #16
   243e6:	7184      	strb	r4, [r0, #6]
   243e8:	0a1c      	lsrs	r4, r3, #8
   243ea:	7144      	strb	r4, [r0, #5]
   243ec:	7103      	strb	r3, [r0, #4]
   243ee:	0e13      	lsrs	r3, r2, #24
   243f0:	70c3      	strb	r3, [r0, #3]
   243f2:	0c13      	lsrs	r3, r2, #16
   243f4:	7083      	strb	r3, [r0, #2]
   243f6:	0a13      	lsrs	r3, r2, #8
   243f8:	7043      	strb	r3, [r0, #1]
   243fa:	7002      	strb	r2, [r0, #0]
   243fc:	4c08      	ldr	r4, [pc, #32]	@ (24420 <_start+0x798>)
   243fe:	446c      	add	r4, sp
   24400:	4620      	mov	r0, r4
   24402:	f7fd f944 	bl	2168e <_ZN20complex_full_dynamic3app17h52156a23ae1d6c3bE>
   24406:	7820      	ldrb	r0, [r4, #0]
   24408:	2801      	cmp	r0, #1
   2440a:	4633      	mov	r3, r6
   2440c:	d10c      	bne.n	24428 <_start+0x7a0>
   2440e:	6e18      	ldr	r0, [r3, #96]	@ 0x60
   24410:	900d      	str	r0, [sp, #52]	@ 0x34
   24412:	2001      	movs	r0, #1
   24414:	990d      	ldr	r1, [sp, #52]	@ 0x34
   24416:	1ffe      	subs	r6, r7, #7
   24418:	3e05      	subs	r6, #5
   2441a:	46b5      	mov	sp, r6
   2441c:	bdf0      	pop	{r4, r5, r6, r7, pc}
   2441e:	46c0      	nop			@ (mov r8, r8)
   24420:	0000140c 	.word	0x0000140c
   24424:	000013b0 	.word	0x000013b0
   24428:	4816      	ldr	r0, [pc, #88]	@ (24484 <_start+0x7fc>)
   2442a:	4468      	add	r0, sp
   2442c:	78c1      	ldrb	r1, [r0, #3]
   2442e:	ad51      	add	r5, sp, #324	@ 0x144
   24430:	70a9      	strb	r1, [r5, #2]
   24432:	7841      	ldrb	r1, [r0, #1]
   24434:	7882      	ldrb	r2, [r0, #2]
   24436:	0212      	lsls	r2, r2, #8
   24438:	1851      	adds	r1, r2, r1
   2443a:	8029      	strh	r1, [r5, #0]
   2443c:	3008      	adds	r0, #8
   2443e:	6e19      	ldr	r1, [r3, #96]	@ 0x60
   24440:	910c      	str	r1, [sp, #48]	@ 0x30
   24442:	4b11      	ldr	r3, [pc, #68]	@ (24488 <_start+0x800>)
   24444:	446b      	add	r3, sp
   24446:	930d      	str	r3, [sp, #52]	@ 0x34
   24448:	c854      	ldmia	r0!, {r2, r4, r6}
   2444a:	c354      	stmia	r3!, {r2, r4, r6}
   2444c:	c856      	ldmia	r0!, {r1, r2, r4, r6}
   2444e:	c356      	stmia	r3!, {r1, r2, r4, r6}
   24450:	8800      	ldrh	r0, [r0, #0]
   24452:	8018      	strh	r0, [r3, #0]
   24454:	990c      	ldr	r1, [sp, #48]	@ 0x30
   24456:	0e08      	lsrs	r0, r1, #24
   24458:	71a8      	strb	r0, [r5, #6]
   2445a:	0c08      	lsrs	r0, r1, #16
   2445c:	7168      	strb	r0, [r5, #5]
   2445e:	0a08      	lsrs	r0, r1, #8
   24460:	7128      	strb	r0, [r5, #4]
   24462:	70e9      	strb	r1, [r5, #3]
   24464:	1de8      	adds	r0, r5, #7
   24466:	221e      	movs	r2, #30
   24468:	990d      	ldr	r1, [sp, #52]	@ 0x34
   2446a:	f002 fc14 	bl	26c96 <__aeabi_memcpy>
   2446e:	4c05      	ldr	r4, [pc, #20]	@ (24484 <_start+0x7fc>)
   24470:	446c      	add	r4, sp
   24472:	4620      	mov	r0, r4
   24474:	4629      	mov	r1, r5
   24476:	f7fe fa8b 	bl	22990 <_ZN20complex_full_dynamic3app17h9bbcd59cec8ed81cE>
   2447a:	7820      	ldrb	r0, [r4, #0]
   2447c:	2801      	cmp	r0, #1
   2447e:	d105      	bne.n	2448c <_start+0x804>
   24480:	e767      	b.n	24352 <_start+0x6ca>
   24482:	46c0      	nop			@ (mov r8, r8)
   24484:	0000140c 	.word	0x0000140c
   24488:	000013b0 	.word	0x000013b0
   2448c:	4817      	ldr	r0, [pc, #92]	@ (244ec <_start+0x864>)
   2448e:	4468      	add	r0, sp
   24490:	78c1      	ldrb	r1, [r0, #3]
   24492:	ad5b      	add	r5, sp, #364	@ 0x16c
   24494:	70a9      	strb	r1, [r5, #2]
   24496:	7841      	ldrb	r1, [r0, #1]
   24498:	7882      	ldrb	r2, [r0, #2]
   2449a:	0212      	lsls	r2, r2, #8
   2449c:	1851      	adds	r1, r2, r1
   2449e:	8029      	strh	r1, [r5, #0]
   244a0:	3008      	adds	r0, #8
   244a2:	9909      	ldr	r1, [sp, #36]	@ 0x24
   244a4:	6e09      	ldr	r1, [r1, #96]	@ 0x60
   244a6:	910c      	str	r1, [sp, #48]	@ 0x30
   244a8:	4b11      	ldr	r3, [pc, #68]	@ (244f0 <_start+0x868>)
   244aa:	446b      	add	r3, sp
   244ac:	930d      	str	r3, [sp, #52]	@ 0x34
   244ae:	c856      	ldmia	r0!, {r1, r2, r4, r6}
   244b0:	c356      	stmia	r3!, {r1, r2, r4, r6}
   244b2:	c856      	ldmia	r0!, {r1, r2, r4, r6}
   244b4:	c356      	stmia	r3!, {r1, r2, r4, r6}
   244b6:	8801      	ldrh	r1, [r0, #0]
   244b8:	8019      	strh	r1, [r3, #0]
   244ba:	7880      	ldrb	r0, [r0, #2]
   244bc:	7098      	strb	r0, [r3, #2]
   244be:	990c      	ldr	r1, [sp, #48]	@ 0x30
   244c0:	0e08      	lsrs	r0, r1, #24
   244c2:	71a8      	strb	r0, [r5, #6]
   244c4:	0c08      	lsrs	r0, r1, #16
   244c6:	7168      	strb	r0, [r5, #5]
   244c8:	0a08      	lsrs	r0, r1, #8
   244ca:	7128      	strb	r0, [r5, #4]
   244cc:	70e9      	strb	r1, [r5, #3]
   244ce:	1de8      	adds	r0, r5, #7
   244d0:	2223      	movs	r2, #35	@ 0x23
   244d2:	990d      	ldr	r1, [sp, #52]	@ 0x34
   244d4:	f002 fbdf 	bl	26c96 <__aeabi_memcpy>
   244d8:	4c04      	ldr	r4, [pc, #16]	@ (244ec <_start+0x864>)
   244da:	446c      	add	r4, sp
   244dc:	4620      	mov	r0, r4
   244de:	4629      	mov	r1, r5
   244e0:	f7fc fcc6 	bl	20e70 <_ZN20complex_full_dynamic3app17h324c9cdb0daf51a3E>
   244e4:	7820      	ldrb	r0, [r4, #0]
   244e6:	2801      	cmp	r0, #1
   244e8:	d104      	bne.n	244f4 <_start+0x86c>
   244ea:	e732      	b.n	24352 <_start+0x6ca>
   244ec:	0000140c 	.word	0x0000140c
   244f0:	000013b0 	.word	0x000013b0
   244f4:	4914      	ldr	r1, [pc, #80]	@ (24548 <_start+0x8c0>)
   244f6:	4469      	add	r1, sp
   244f8:	78c8      	ldrb	r0, [r1, #3]
   244fa:	ad66      	add	r5, sp, #408	@ 0x198
   244fc:	70a8      	strb	r0, [r5, #2]
   244fe:	7848      	ldrb	r0, [r1, #1]
   24500:	788a      	ldrb	r2, [r1, #2]
   24502:	0212      	lsls	r2, r2, #8
   24504:	1810      	adds	r0, r2, r0
   24506:	8028      	strh	r0, [r5, #0]
   24508:	9809      	ldr	r0, [sp, #36]	@ 0x24
   2450a:	6e04      	ldr	r4, [r0, #96]	@ 0x60
   2450c:	3108      	adds	r1, #8
   2450e:	480f      	ldr	r0, [pc, #60]	@ (2454c <_start+0x8c4>)
   24510:	4468      	add	r0, sp
   24512:	900d      	str	r0, [sp, #52]	@ 0x34
   24514:	265c      	movs	r6, #92	@ 0x5c
   24516:	4632      	mov	r2, r6
   24518:	f002 fa5d 	bl	269d6 <__aeabi_memcpy4>
   2451c:	0e20      	lsrs	r0, r4, #24
   2451e:	71a8      	strb	r0, [r5, #6]
   24520:	0c20      	lsrs	r0, r4, #16
   24522:	7168      	strb	r0, [r5, #5]
   24524:	0a20      	lsrs	r0, r4, #8
   24526:	7128      	strb	r0, [r5, #4]
   24528:	70ec      	strb	r4, [r5, #3]
   2452a:	1de8      	adds	r0, r5, #7
   2452c:	990d      	ldr	r1, [sp, #52]	@ 0x34
   2452e:	4632      	mov	r2, r6
   24530:	f002 fbb1 	bl	26c96 <__aeabi_memcpy>
   24534:	4c04      	ldr	r4, [pc, #16]	@ (24548 <_start+0x8c0>)
   24536:	446c      	add	r4, sp
   24538:	4620      	mov	r0, r4
   2453a:	4629      	mov	r1, r5
   2453c:	f7fc feca 	bl	212d4 <_ZN20complex_full_dynamic3app17h4488a6ac8e43d8b4E>
   24540:	7820      	ldrb	r0, [r4, #0]
   24542:	2801      	cmp	r0, #1
   24544:	d104      	bne.n	24550 <_start+0x8c8>
   24546:	e704      	b.n	24352 <_start+0x6ca>
   24548:	0000140c 	.word	0x0000140c
   2454c:	000013b0 	.word	0x000013b0
   24550:	4815      	ldr	r0, [pc, #84]	@ (245a8 <_start+0x920>)
   24552:	4468      	add	r0, sp
   24554:	78c1      	ldrb	r1, [r0, #3]
   24556:	ad7f      	add	r5, sp, #508	@ 0x1fc
   24558:	70a9      	strb	r1, [r5, #2]
   2455a:	7841      	ldrb	r1, [r0, #1]
   2455c:	7882      	ldrb	r2, [r0, #2]
   2455e:	0212      	lsls	r2, r2, #8
   24560:	1851      	adds	r1, r2, r1
   24562:	8029      	strh	r1, [r5, #0]
   24564:	3008      	adds	r0, #8
   24566:	9909      	ldr	r1, [sp, #36]	@ 0x24
   24568:	6e09      	ldr	r1, [r1, #96]	@ 0x60
   2456a:	910c      	str	r1, [sp, #48]	@ 0x30
   2456c:	4b0f      	ldr	r3, [pc, #60]	@ (245ac <_start+0x924>)
   2456e:	446b      	add	r3, sp
   24570:	930d      	str	r3, [sp, #52]	@ 0x34
   24572:	c856      	ldmia	r0!, {r1, r2, r4, r6}
   24574:	c356      	stmia	r3!, {r1, r2, r4, r6}
   24576:	c856      	ldmia	r0!, {r1, r2, r4, r6}
   24578:	c356      	stmia	r3!, {r1, r2, r4, r6}
   2457a:	990c      	ldr	r1, [sp, #48]	@ 0x30
   2457c:	0e08      	lsrs	r0, r1, #24
   2457e:	71a8      	strb	r0, [r5, #6]
   24580:	0c08      	lsrs	r0, r1, #16
   24582:	7168      	strb	r0, [r5, #5]
   24584:	0a08      	lsrs	r0, r1, #8
   24586:	7128      	strb	r0, [r5, #4]
   24588:	70e9      	strb	r1, [r5, #3]
   2458a:	1de8      	adds	r0, r5, #7
   2458c:	2220      	movs	r2, #32
   2458e:	990d      	ldr	r1, [sp, #52]	@ 0x34
   24590:	f002 fb81 	bl	26c96 <__aeabi_memcpy>
   24594:	4c04      	ldr	r4, [pc, #16]	@ (245a8 <_start+0x920>)
   24596:	446c      	add	r4, sp
   24598:	4620      	mov	r0, r4
   2459a:	4629      	mov	r1, r5
   2459c:	f7fd fd3c 	bl	22018 <_ZN20complex_full_dynamic3app17h763bfa7e3578dfe9E>
   245a0:	7820      	ldrb	r0, [r4, #0]
   245a2:	2801      	cmp	r0, #1
   245a4:	d104      	bne.n	245b0 <_start+0x928>
   245a6:	e6d4      	b.n	24352 <_start+0x6ca>
   245a8:	0000140c 	.word	0x0000140c
   245ac:	000013b0 	.word	0x000013b0
   245b0:	4816      	ldr	r0, [pc, #88]	@ (2460c <_start+0x984>)
   245b2:	4468      	add	r0, sp
   245b4:	78c1      	ldrb	r1, [r0, #3]
   245b6:	ad89      	add	r5, sp, #548	@ 0x224
   245b8:	70a9      	strb	r1, [r5, #2]
   245ba:	7841      	ldrb	r1, [r0, #1]
   245bc:	7882      	ldrb	r2, [r0, #2]
   245be:	0212      	lsls	r2, r2, #8
   245c0:	1851      	adds	r1, r2, r1
   245c2:	8029      	strh	r1, [r5, #0]
   245c4:	3008      	adds	r0, #8
   245c6:	9909      	ldr	r1, [sp, #36]	@ 0x24
   245c8:	6e09      	ldr	r1, [r1, #96]	@ 0x60
   245ca:	4b11      	ldr	r3, [pc, #68]	@ (24610 <_start+0x988>)
   245cc:	446b      	add	r3, sp
   245ce:	930d      	str	r3, [sp, #52]	@ 0x34
   245d0:	c850      	ldmia	r0!, {r4, r6}
   245d2:	c350      	stmia	r3!, {r4, r6}
   245d4:	c854      	ldmia	r0!, {r2, r4, r6}
   245d6:	c354      	stmia	r3!, {r2, r4, r6}
   245d8:	8802      	ldrh	r2, [r0, #0]
   245da:	801a      	strh	r2, [r3, #0]
   245dc:	7880      	ldrb	r0, [r0, #2]
   245de:	7098      	strb	r0, [r3, #2]
   245e0:	0e08      	lsrs	r0, r1, #24
   245e2:	71a8      	strb	r0, [r5, #6]
   245e4:	0c08      	lsrs	r0, r1, #16
   245e6:	7168      	strb	r0, [r5, #5]
   245e8:	0a08      	lsrs	r0, r1, #8
   245ea:	7128      	strb	r0, [r5, #4]
   245ec:	70e9      	strb	r1, [r5, #3]
   245ee:	1de8      	adds	r0, r5, #7
   245f0:	2217      	movs	r2, #23
   245f2:	990d      	ldr	r1, [sp, #52]	@ 0x34
   245f4:	f002 fb4f 	bl	26c96 <__aeabi_memcpy>
   245f8:	4c04      	ldr	r4, [pc, #16]	@ (2460c <_start+0x984>)
   245fa:	446c      	add	r4, sp
   245fc:	4620      	mov	r0, r4
   245fe:	4629      	mov	r1, r5
   24600:	f7fc fcd8 	bl	20fb4 <_ZN20complex_full_dynamic3app17h38b4ceba410ae5eaE>
   24604:	7820      	ldrb	r0, [r4, #0]
   24606:	2801      	cmp	r0, #1
   24608:	d104      	bne.n	24614 <_start+0x98c>
   2460a:	e6a2      	b.n	24352 <_start+0x6ca>
   2460c:	0000140c 	.word	0x0000140c
   24610:	000013b0 	.word	0x000013b0
   24614:	4816      	ldr	r0, [pc, #88]	@ (24670 <_start+0x9e8>)
   24616:	4468      	add	r0, sp
   24618:	78c1      	ldrb	r1, [r0, #3]
   2461a:	ad91      	add	r5, sp, #580	@ 0x244
   2461c:	70a9      	strb	r1, [r5, #2]
   2461e:	7841      	ldrb	r1, [r0, #1]
   24620:	7882      	ldrb	r2, [r0, #2]
   24622:	0212      	lsls	r2, r2, #8
   24624:	1851      	adds	r1, r2, r1
   24626:	8029      	strh	r1, [r5, #0]
   24628:	3008      	adds	r0, #8
   2462a:	9909      	ldr	r1, [sp, #36]	@ 0x24
   2462c:	6e09      	ldr	r1, [r1, #96]	@ 0x60
   2462e:	4b11      	ldr	r3, [pc, #68]	@ (24674 <_start+0x9ec>)
   24630:	446b      	add	r3, sp
   24632:	930d      	str	r3, [sp, #52]	@ 0x34
   24634:	c854      	ldmia	r0!, {r2, r4, r6}
   24636:	c354      	stmia	r3!, {r2, r4, r6}
   24638:	c854      	ldmia	r0!, {r2, r4, r6}
   2463a:	c354      	stmia	r3!, {r2, r4, r6}
   2463c:	c854      	ldmia	r0!, {r2, r4, r6}
   2463e:	c354      	stmia	r3!, {r2, r4, r6}
   24640:	7800      	ldrb	r0, [r0, #0]
   24642:	7018      	strb	r0, [r3, #0]
   24644:	0e08      	lsrs	r0, r1, #24
   24646:	71a8      	strb	r0, [r5, #6]
   24648:	0c08      	lsrs	r0, r1, #16
   2464a:	7168      	strb	r0, [r5, #5]
   2464c:	0a08      	lsrs	r0, r1, #8
   2464e:	7128      	strb	r0, [r5, #4]
   24650:	70e9      	strb	r1, [r5, #3]
   24652:	1de8      	adds	r0, r5, #7
   24654:	2225      	movs	r2, #37	@ 0x25
   24656:	990d      	ldr	r1, [sp, #52]	@ 0x34
   24658:	f002 fb1d 	bl	26c96 <__aeabi_memcpy>
   2465c:	4c04      	ldr	r4, [pc, #16]	@ (24670 <_start+0x9e8>)
   2465e:	446c      	add	r4, sp
   24660:	4620      	mov	r0, r4
   24662:	4629      	mov	r1, r5
   24664:	f7fd f958 	bl	21918 <_ZN20complex_full_dynamic3app17h5b0abc5e7fb54a21E>
   24668:	7820      	ldrb	r0, [r4, #0]
   2466a:	2801      	cmp	r0, #1
   2466c:	d104      	bne.n	24678 <_start+0x9f0>
   2466e:	e670      	b.n	24352 <_start+0x6ca>
   24670:	0000140c 	.word	0x0000140c
   24674:	000013b0 	.word	0x000013b0
   24678:	4816      	ldr	r0, [pc, #88]	@ (246d4 <_start+0xa4c>)
   2467a:	4468      	add	r0, sp
   2467c:	78c1      	ldrb	r1, [r0, #3]
   2467e:	ad9c      	add	r5, sp, #624	@ 0x270
   24680:	70a9      	strb	r1, [r5, #2]
   24682:	7841      	ldrb	r1, [r0, #1]
   24684:	7882      	ldrb	r2, [r0, #2]
   24686:	0212      	lsls	r2, r2, #8
   24688:	1851      	adds	r1, r2, r1
   2468a:	8029      	strh	r1, [r5, #0]
   2468c:	3008      	adds	r0, #8
   2468e:	9909      	ldr	r1, [sp, #36]	@ 0x24
   24690:	6e09      	ldr	r1, [r1, #96]	@ 0x60
   24692:	910c      	str	r1, [sp, #48]	@ 0x30
   24694:	4b10      	ldr	r3, [pc, #64]	@ (246d8 <_start+0xa50>)
   24696:	446b      	add	r3, sp
   24698:	930d      	str	r3, [sp, #52]	@ 0x34
   2469a:	c854      	ldmia	r0!, {r2, r4, r6}
   2469c:	c354      	stmia	r3!, {r2, r4, r6}
   2469e:	c856      	ldmia	r0!, {r1, r2, r4, r6}
   246a0:	c356      	stmia	r3!, {r1, r2, r4, r6}
   246a2:	8800      	ldrh	r0, [r0, #0]
   246a4:	8018      	strh	r0, [r3, #0]
   246a6:	990c      	ldr	r1, [sp, #48]	@ 0x30
   246a8:	0e08      	lsrs	r0, r1, #24
   246aa:	71a8      	strb	r0, [r5, #6]
   246ac:	0c08      	lsrs	r0, r1, #16
   246ae:	7168      	strb	r0, [r5, #5]
   246b0:	0a08      	lsrs	r0, r1, #8
   246b2:	7128      	strb	r0, [r5, #4]
   246b4:	70e9      	strb	r1, [r5, #3]
   246b6:	1de8      	adds	r0, r5, #7
   246b8:	221e      	movs	r2, #30
   246ba:	990d      	ldr	r1, [sp, #52]	@ 0x34
   246bc:	f002 faeb 	bl	26c96 <__aeabi_memcpy>
   246c0:	4c04      	ldr	r4, [pc, #16]	@ (246d4 <_start+0xa4c>)
   246c2:	446c      	add	r4, sp
   246c4:	4620      	mov	r0, r4
   246c6:	4629      	mov	r1, r5
   246c8:	f7fc fa8c 	bl	20be4 <_ZN20complex_full_dynamic3app17h2d31686116964e00E>
   246cc:	7820      	ldrb	r0, [r4, #0]
   246ce:	2801      	cmp	r0, #1
   246d0:	d104      	bne.n	246dc <_start+0xa54>
   246d2:	e63e      	b.n	24352 <_start+0x6ca>
   246d4:	0000140c 	.word	0x0000140c
   246d8:	000013b0 	.word	0x000013b0
   246dc:	4815      	ldr	r0, [pc, #84]	@ (24734 <_start+0xaac>)
   246de:	4468      	add	r0, sp
   246e0:	78c1      	ldrb	r1, [r0, #3]
   246e2:	ada6      	add	r5, sp, #664	@ 0x298
   246e4:	70a9      	strb	r1, [r5, #2]
   246e6:	7841      	ldrb	r1, [r0, #1]
   246e8:	7882      	ldrb	r2, [r0, #2]
   246ea:	0212      	lsls	r2, r2, #8
   246ec:	1851      	adds	r1, r2, r1
   246ee:	8029      	strh	r1, [r5, #0]
   246f0:	3008      	adds	r0, #8
   246f2:	9909      	ldr	r1, [sp, #36]	@ 0x24
   246f4:	6e09      	ldr	r1, [r1, #96]	@ 0x60
   246f6:	910c      	str	r1, [sp, #48]	@ 0x30
   246f8:	4b0f      	ldr	r3, [pc, #60]	@ (24738 <_start+0xab0>)
   246fa:	446b      	add	r3, sp
   246fc:	930d      	str	r3, [sp, #52]	@ 0x34
   246fe:	c856      	ldmia	r0!, {r1, r2, r4, r6}
   24700:	c356      	stmia	r3!, {r1, r2, r4, r6}
   24702:	7800      	ldrb	r0, [r0, #0]
   24704:	7018      	strb	r0, [r3, #0]
   24706:	990c      	ldr	r1, [sp, #48]	@ 0x30
   24708:	0e08      	lsrs	r0, r1, #24
   2470a:	71a8      	strb	r0, [r5, #6]
   2470c:	0c08      	lsrs	r0, r1, #16
   2470e:	7168      	strb	r0, [r5, #5]
   24710:	0a08      	lsrs	r0, r1, #8
   24712:	7128      	strb	r0, [r5, #4]
   24714:	70e9      	strb	r1, [r5, #3]
   24716:	1de8      	adds	r0, r5, #7
   24718:	2211      	movs	r2, #17
   2471a:	990d      	ldr	r1, [sp, #52]	@ 0x34
   2471c:	f002 fabb 	bl	26c96 <__aeabi_memcpy>
   24720:	4c04      	ldr	r4, [pc, #16]	@ (24734 <_start+0xaac>)
   24722:	446c      	add	r4, sp
   24724:	4620      	mov	r0, r4
   24726:	4629      	mov	r1, r5
   24728:	f7fc fc96 	bl	21058 <_ZN20complex_full_dynamic3app17h39e1b8de4054d928E>
   2472c:	7820      	ldrb	r0, [r4, #0]
   2472e:	2801      	cmp	r0, #1
   24730:	d104      	bne.n	2473c <_start+0xab4>
   24732:	e60e      	b.n	24352 <_start+0x6ca>
   24734:	0000140c 	.word	0x0000140c
   24738:	000013b0 	.word	0x000013b0
   2473c:	4818      	ldr	r0, [pc, #96]	@ (247a0 <_start+0xb18>)
   2473e:	4468      	add	r0, sp
   24740:	78c1      	ldrb	r1, [r0, #3]
   24742:	adac      	add	r5, sp, #688	@ 0x2b0
   24744:	70a9      	strb	r1, [r5, #2]
   24746:	7841      	ldrb	r1, [r0, #1]
   24748:	7882      	ldrb	r2, [r0, #2]
   2474a:	0212      	lsls	r2, r2, #8
   2474c:	1851      	adds	r1, r2, r1
   2474e:	8029      	strh	r1, [r5, #0]
   24750:	3008      	adds	r0, #8
   24752:	9909      	ldr	r1, [sp, #36]	@ 0x24
   24754:	6e09      	ldr	r1, [r1, #96]	@ 0x60
   24756:	910c      	str	r1, [sp, #48]	@ 0x30
   24758:	4b12      	ldr	r3, [pc, #72]	@ (247a4 <_start+0xb1c>)
   2475a:	446b      	add	r3, sp
   2475c:	930d      	str	r3, [sp, #52]	@ 0x34
   2475e:	c854      	ldmia	r0!, {r2, r4, r6}
   24760:	c354      	stmia	r3!, {r2, r4, r6}
   24762:	c856      	ldmia	r0!, {r1, r2, r4, r6}
   24764:	c356      	stmia	r3!, {r1, r2, r4, r6}
   24766:	c856      	ldmia	r0!, {r1, r2, r4, r6}
   24768:	c356      	stmia	r3!, {r1, r2, r4, r6}
   2476a:	8801      	ldrh	r1, [r0, #0]
   2476c:	8019      	strh	r1, [r3, #0]
   2476e:	7880      	ldrb	r0, [r0, #2]
   24770:	7098      	strb	r0, [r3, #2]
   24772:	990c      	ldr	r1, [sp, #48]	@ 0x30
   24774:	0e08      	lsrs	r0, r1, #24
   24776:	71a8      	strb	r0, [r5, #6]
   24778:	0c08      	lsrs	r0, r1, #16
   2477a:	7168      	strb	r0, [r5, #5]
   2477c:	0a08      	lsrs	r0, r1, #8
   2477e:	7128      	strb	r0, [r5, #4]
   24780:	70e9      	strb	r1, [r5, #3]
   24782:	1de8      	adds	r0, r5, #7
   24784:	222f      	movs	r2, #47	@ 0x2f
   24786:	990d      	ldr	r1, [sp, #52]	@ 0x34
   24788:	f002 fa85 	bl	26c96 <__aeabi_memcpy>
   2478c:	4c04      	ldr	r4, [pc, #16]	@ (247a0 <_start+0xb18>)
   2478e:	446c      	add	r4, sp
   24790:	4620      	mov	r0, r4
   24792:	4629      	mov	r1, r5
   24794:	f7fe f85a 	bl	2284c <_ZN20complex_full_dynamic3app17h8fefb2e22ecf48f1E>
   24798:	7820      	ldrb	r0, [r4, #0]
   2479a:	2801      	cmp	r0, #1
   2479c:	d104      	bne.n	247a8 <_start+0xb20>
   2479e:	e5d8      	b.n	24352 <_start+0x6ca>
   247a0:	0000140c 	.word	0x0000140c
   247a4:	000013b0 	.word	0x000013b0
   247a8:	4817      	ldr	r0, [pc, #92]	@ (24808 <_start+0xb80>)
   247aa:	4468      	add	r0, sp
   247ac:	78c1      	ldrb	r1, [r0, #3]
   247ae:	adba      	add	r5, sp, #744	@ 0x2e8
   247b0:	70a9      	strb	r1, [r5, #2]
   247b2:	7841      	ldrb	r1, [r0, #1]
   247b4:	7882      	ldrb	r2, [r0, #2]
   247b6:	0212      	lsls	r2, r2, #8
   247b8:	1851      	adds	r1, r2, r1
   247ba:	8029      	strh	r1, [r5, #0]
   247bc:	3008      	adds	r0, #8
   247be:	9909      	ldr	r1, [sp, #36]	@ 0x24
   247c0:	6e09      	ldr	r1, [r1, #96]	@ 0x60
   247c2:	910c      	str	r1, [sp, #48]	@ 0x30
   247c4:	4b11      	ldr	r3, [pc, #68]	@ (2480c <_start+0xb84>)
   247c6:	446b      	add	r3, sp
   247c8:	930d      	str	r3, [sp, #52]	@ 0x34
   247ca:	c854      	ldmia	r0!, {r2, r4, r6}
   247cc:	c354      	stmia	r3!, {r2, r4, r6}
   247ce:	c856      	ldmia	r0!, {r1, r2, r4, r6}
   247d0:	c356      	stmia	r3!, {r1, r2, r4, r6}
   247d2:	c856      	ldmia	r0!, {r1, r2, r4, r6}
   247d4:	c356      	stmia	r3!, {r1, r2, r4, r6}
   247d6:	7800      	ldrb	r0, [r0, #0]
   247d8:	7018      	strb	r0, [r3, #0]
   247da:	990c      	ldr	r1, [sp, #48]	@ 0x30
   247dc:	0e08      	lsrs	r0, r1, #24
   247de:	71a8      	strb	r0, [r5, #6]
   247e0:	0c08      	lsrs	r0, r1, #16
   247e2:	7168      	strb	r0, [r5, #5]
   247e4:	0a08      	lsrs	r0, r1, #8
   247e6:	7128      	strb	r0, [r5, #4]
   247e8:	70e9      	strb	r1, [r5, #3]
   247ea:	1de8      	adds	r0, r5, #7
   247ec:	222d      	movs	r2, #45	@ 0x2d
   247ee:	990d      	ldr	r1, [sp, #52]	@ 0x34
   247f0:	f002 fa51 	bl	26c96 <__aeabi_memcpy>
   247f4:	4c04      	ldr	r4, [pc, #16]	@ (24808 <_start+0xb80>)
   247f6:	446c      	add	r4, sp
   247f8:	4620      	mov	r0, r4
   247fa:	4629      	mov	r1, r5
   247fc:	f7fe fdd6 	bl	233ac <_ZN20complex_full_dynamic3app17hd9819d42ad41e236E>
   24800:	7820      	ldrb	r0, [r4, #0]
   24802:	2801      	cmp	r0, #1
   24804:	d104      	bne.n	24810 <_start+0xb88>
   24806:	e5a4      	b.n	24352 <_start+0x6ca>
   24808:	0000140c 	.word	0x0000140c
   2480c:	000013b0 	.word	0x000013b0
   24810:	4817      	ldr	r0, [pc, #92]	@ (24870 <_start+0xbe8>)
   24812:	4468      	add	r0, sp
   24814:	78c1      	ldrb	r1, [r0, #3]
   24816:	adc7      	add	r5, sp, #796	@ 0x31c
   24818:	70a9      	strb	r1, [r5, #2]
   2481a:	7841      	ldrb	r1, [r0, #1]
   2481c:	7882      	ldrb	r2, [r0, #2]
   2481e:	0212      	lsls	r2, r2, #8
   24820:	1851      	adds	r1, r2, r1
   24822:	8029      	strh	r1, [r5, #0]
   24824:	3008      	adds	r0, #8
   24826:	9909      	ldr	r1, [sp, #36]	@ 0x24
   24828:	6e09      	ldr	r1, [r1, #96]	@ 0x60
   2482a:	4b12      	ldr	r3, [pc, #72]	@ (24874 <_start+0xbec>)
   2482c:	446b      	add	r3, sp
   2482e:	930d      	str	r3, [sp, #52]	@ 0x34
   24830:	c854      	ldmia	r0!, {r2, r4, r6}
   24832:	c354      	stmia	r3!, {r2, r4, r6}
   24834:	c854      	ldmia	r0!, {r2, r4, r6}
   24836:	c354      	stmia	r3!, {r2, r4, r6}
   24838:	c854      	ldmia	r0!, {r2, r4, r6}
   2483a:	c354      	stmia	r3!, {r2, r4, r6}
   2483c:	8802      	ldrh	r2, [r0, #0]
   2483e:	801a      	strh	r2, [r3, #0]
   24840:	7880      	ldrb	r0, [r0, #2]
   24842:	7098      	strb	r0, [r3, #2]
   24844:	0e08      	lsrs	r0, r1, #24
   24846:	71a8      	strb	r0, [r5, #6]
   24848:	0c08      	lsrs	r0, r1, #16
   2484a:	7168      	strb	r0, [r5, #5]
   2484c:	0a08      	lsrs	r0, r1, #8
   2484e:	7128      	strb	r0, [r5, #4]
   24850:	70e9      	strb	r1, [r5, #3]
   24852:	1de8      	adds	r0, r5, #7
   24854:	2227      	movs	r2, #39	@ 0x27
   24856:	990d      	ldr	r1, [sp, #52]	@ 0x34
   24858:	f002 fa1d 	bl	26c96 <__aeabi_memcpy>
   2485c:	4c04      	ldr	r4, [pc, #16]	@ (24870 <_start+0xbe8>)
   2485e:	446c      	add	r4, sp
   24860:	4620      	mov	r0, r4
   24862:	4629      	mov	r1, r5
   24864:	f7fe fcb0 	bl	231c8 <_ZN20complex_full_dynamic3app17hd0e2464241e617d4E>
   24868:	7820      	ldrb	r0, [r4, #0]
   2486a:	2801      	cmp	r0, #1
   2486c:	d104      	bne.n	24878 <_start+0xbf0>
   2486e:	e570      	b.n	24352 <_start+0x6ca>
   24870:	0000140c 	.word	0x0000140c
   24874:	000013b0 	.word	0x000013b0
   24878:	4817      	ldr	r0, [pc, #92]	@ (248d8 <_start+0xc50>)
   2487a:	4468      	add	r0, sp
   2487c:	78c1      	ldrb	r1, [r0, #3]
   2487e:	add3      	add	r5, sp, #844	@ 0x34c
   24880:	70a9      	strb	r1, [r5, #2]
   24882:	7841      	ldrb	r1, [r0, #1]
   24884:	7882      	ldrb	r2, [r0, #2]
   24886:	0212      	lsls	r2, r2, #8
   24888:	1851      	adds	r1, r2, r1
   2488a:	8029      	strh	r1, [r5, #0]
   2488c:	3008      	adds	r0, #8
   2488e:	9909      	ldr	r1, [sp, #36]	@ 0x24
   24890:	6e09      	ldr	r1, [r1, #96]	@ 0x60
   24892:	910c      	str	r1, [sp, #48]	@ 0x30
   24894:	4b11      	ldr	r3, [pc, #68]	@ (248dc <_start+0xc54>)
   24896:	446b      	add	r3, sp
   24898:	930d      	str	r3, [sp, #52]	@ 0x34
   2489a:	c856      	ldmia	r0!, {r1, r2, r4, r6}
   2489c:	c356      	stmia	r3!, {r1, r2, r4, r6}
   2489e:	c856      	ldmia	r0!, {r1, r2, r4, r6}
   248a0:	c356      	stmia	r3!, {r1, r2, r4, r6}
   248a2:	c856      	ldmia	r0!, {r1, r2, r4, r6}
   248a4:	c356      	stmia	r3!, {r1, r2, r4, r6}
   248a6:	7800      	ldrb	r0, [r0, #0]
   248a8:	7018      	strb	r0, [r3, #0]
   248aa:	990c      	ldr	r1, [sp, #48]	@ 0x30
   248ac:	0e08      	lsrs	r0, r1, #24
   248ae:	71a8      	strb	r0, [r5, #6]
   248b0:	0c08      	lsrs	r0, r1, #16
   248b2:	7168      	strb	r0, [r5, #5]
   248b4:	0a08      	lsrs	r0, r1, #8
   248b6:	7128      	strb	r0, [r5, #4]
   248b8:	70e9      	strb	r1, [r5, #3]
   248ba:	1de8      	adds	r0, r5, #7
   248bc:	2231      	movs	r2, #49	@ 0x31
   248be:	990d      	ldr	r1, [sp, #52]	@ 0x34
   248c0:	f002 f9e9 	bl	26c96 <__aeabi_memcpy>
   248c4:	4c04      	ldr	r4, [pc, #16]	@ (248d8 <_start+0xc50>)
   248c6:	446c      	add	r4, sp
   248c8:	4620      	mov	r0, r4
   248ca:	4629      	mov	r1, r5
   248cc:	f7fc fda4 	bl	21418 <_ZN20complex_full_dynamic3app17h480abd9b3af78fc7E>
   248d0:	7820      	ldrb	r0, [r4, #0]
   248d2:	2801      	cmp	r0, #1
   248d4:	d104      	bne.n	248e0 <_start+0xc58>
   248d6:	e53c      	b.n	24352 <_start+0x6ca>
   248d8:	0000140c 	.word	0x0000140c
   248dc:	000013b0 	.word	0x000013b0
   248e0:	4817      	ldr	r0, [pc, #92]	@ (24940 <_start+0xcb8>)
   248e2:	4468      	add	r0, sp
   248e4:	78c1      	ldrb	r1, [r0, #3]
   248e6:	ade1      	add	r5, sp, #900	@ 0x384
   248e8:	70a9      	strb	r1, [r5, #2]
   248ea:	7841      	ldrb	r1, [r0, #1]
   248ec:	7882      	ldrb	r2, [r0, #2]
   248ee:	0212      	lsls	r2, r2, #8
   248f0:	1851      	adds	r1, r2, r1
   248f2:	8029      	strh	r1, [r5, #0]
   248f4:	3008      	adds	r0, #8
   248f6:	9909      	ldr	r1, [sp, #36]	@ 0x24
   248f8:	6e09      	ldr	r1, [r1, #96]	@ 0x60
   248fa:	910c      	str	r1, [sp, #48]	@ 0x30
   248fc:	4b11      	ldr	r3, [pc, #68]	@ (24944 <_start+0xcbc>)
   248fe:	446b      	add	r3, sp
   24900:	930d      	str	r3, [sp, #52]	@ 0x34
   24902:	c854      	ldmia	r0!, {r2, r4, r6}
   24904:	c354      	stmia	r3!, {r2, r4, r6}
   24906:	c856      	ldmia	r0!, {r1, r2, r4, r6}
   24908:	c356      	stmia	r3!, {r1, r2, r4, r6}
   2490a:	c856      	ldmia	r0!, {r1, r2, r4, r6}
   2490c:	c356      	stmia	r3!, {r1, r2, r4, r6}
   2490e:	7800      	ldrb	r0, [r0, #0]
   24910:	7018      	strb	r0, [r3, #0]
   24912:	990c      	ldr	r1, [sp, #48]	@ 0x30
   24914:	0e08      	lsrs	r0, r1, #24
   24916:	71a8      	strb	r0, [r5, #6]
   24918:	0c08      	lsrs	r0, r1, #16
   2491a:	7168      	strb	r0, [r5, #5]
   2491c:	0a08      	lsrs	r0, r1, #8
   2491e:	7128      	strb	r0, [r5, #4]
   24920:	70e9      	strb	r1, [r5, #3]
   24922:	1de8      	adds	r0, r5, #7
   24924:	222d      	movs	r2, #45	@ 0x2d
   24926:	990d      	ldr	r1, [sp, #52]	@ 0x34
   24928:	f002 f9b5 	bl	26c96 <__aeabi_memcpy>
   2492c:	4c04      	ldr	r4, [pc, #16]	@ (24940 <_start+0xcb8>)
   2492e:	446c      	add	r4, sp
   24930:	4620      	mov	r0, r4
   24932:	4629      	mov	r1, r5
   24934:	f7fe fba4 	bl	23080 <_ZN20complex_full_dynamic3app17hc999bf8838f001d9E>
   24938:	7820      	ldrb	r0, [r4, #0]
   2493a:	2801      	cmp	r0, #1
   2493c:	d104      	bne.n	24948 <_start+0xcc0>
   2493e:	e508      	b.n	24352 <_start+0x6ca>
   24940:	0000140c 	.word	0x0000140c
   24944:	000013b0 	.word	0x000013b0
   24948:	4816      	ldr	r0, [pc, #88]	@ (249a4 <_start+0xd1c>)
   2494a:	4468      	add	r0, sp
   2494c:	78c1      	ldrb	r1, [r0, #3]
   2494e:	adee      	add	r5, sp, #952	@ 0x3b8
   24950:	70a9      	strb	r1, [r5, #2]
   24952:	7841      	ldrb	r1, [r0, #1]
   24954:	7882      	ldrb	r2, [r0, #2]
   24956:	0212      	lsls	r2, r2, #8
   24958:	1851      	adds	r1, r2, r1
   2495a:	8029      	strh	r1, [r5, #0]
   2495c:	3008      	adds	r0, #8
   2495e:	9909      	ldr	r1, [sp, #36]	@ 0x24
   24960:	6e09      	ldr	r1, [r1, #96]	@ 0x60
   24962:	910c      	str	r1, [sp, #48]	@ 0x30
   24964:	4b10      	ldr	r3, [pc, #64]	@ (249a8 <_start+0xd20>)
   24966:	446b      	add	r3, sp
   24968:	930d      	str	r3, [sp, #52]	@ 0x34
   2496a:	c856      	ldmia	r0!, {r1, r2, r4, r6}
   2496c:	c356      	stmia	r3!, {r1, r2, r4, r6}
   2496e:	8801      	ldrh	r1, [r0, #0]
   24970:	8019      	strh	r1, [r3, #0]
   24972:	7880      	ldrb	r0, [r0, #2]
   24974:	7098      	strb	r0, [r3, #2]
   24976:	990c      	ldr	r1, [sp, #48]	@ 0x30
   24978:	0e08      	lsrs	r0, r1, #24
   2497a:	71a8      	strb	r0, [r5, #6]
   2497c:	0c08      	lsrs	r0, r1, #16
   2497e:	7168      	strb	r0, [r5, #5]
   24980:	0a08      	lsrs	r0, r1, #8
   24982:	7128      	strb	r0, [r5, #4]
   24984:	70e9      	strb	r1, [r5, #3]
   24986:	1de8      	adds	r0, r5, #7
   24988:	2213      	movs	r2, #19
   2498a:	990d      	ldr	r1, [sp, #52]	@ 0x34
   2498c:	f002 f983 	bl	26c96 <__aeabi_memcpy>
   24990:	4c04      	ldr	r4, [pc, #16]	@ (249a4 <_start+0xd1c>)
   24992:	446c      	add	r4, sp
   24994:	4620      	mov	r0, r4
   24996:	4629      	mov	r1, r5
   24998:	f7fb ff3e 	bl	20818 <_ZN20complex_full_dynamic3app17h2483abc8ba62d28eE>
   2499c:	7820      	ldrb	r0, [r4, #0]
   2499e:	2801      	cmp	r0, #1
   249a0:	d104      	bne.n	249ac <_start+0xd24>
   249a2:	e4d6      	b.n	24352 <_start+0x6ca>
   249a4:	0000140c 	.word	0x0000140c
   249a8:	000013b0 	.word	0x000013b0
   249ac:	4914      	ldr	r1, [pc, #80]	@ (24a00 <_start+0xd78>)
   249ae:	4469      	add	r1, sp
   249b0:	78c8      	ldrb	r0, [r1, #3]
   249b2:	adf5      	add	r5, sp, #980	@ 0x3d4
   249b4:	70a8      	strb	r0, [r5, #2]
   249b6:	7848      	ldrb	r0, [r1, #1]
   249b8:	788a      	ldrb	r2, [r1, #2]
   249ba:	0212      	lsls	r2, r2, #8
   249bc:	1810      	adds	r0, r2, r0
   249be:	8028      	strh	r0, [r5, #0]
   249c0:	9809      	ldr	r0, [sp, #36]	@ 0x24
   249c2:	6e04      	ldr	r4, [r0, #96]	@ 0x60
   249c4:	3108      	adds	r1, #8
   249c6:	480f      	ldr	r0, [pc, #60]	@ (24a04 <_start+0xd7c>)
   249c8:	4468      	add	r0, sp
   249ca:	900d      	str	r0, [sp, #52]	@ 0x34
   249cc:	2649      	movs	r6, #73	@ 0x49
   249ce:	4632      	mov	r2, r6
   249d0:	f002 f801 	bl	269d6 <__aeabi_memcpy4>
   249d4:	0e20      	lsrs	r0, r4, #24
   249d6:	71a8      	strb	r0, [r5, #6]
   249d8:	0c20      	lsrs	r0, r4, #16
   249da:	7168      	strb	r0, [r5, #5]
   249dc:	0a20      	lsrs	r0, r4, #8
   249de:	7128      	strb	r0, [r5, #4]
   249e0:	70ec      	strb	r4, [r5, #3]
   249e2:	1de8      	adds	r0, r5, #7
   249e4:	990d      	ldr	r1, [sp, #52]	@ 0x34
   249e6:	4632      	mov	r2, r6
   249e8:	f002 f955 	bl	26c96 <__aeabi_memcpy>
   249ec:	4c04      	ldr	r4, [pc, #16]	@ (24a00 <_start+0xd78>)
   249ee:	446c      	add	r4, sp
   249f0:	4620      	mov	r0, r4
   249f2:	4629      	mov	r1, r5
   249f4:	f7fe f8be 	bl	22b74 <_ZN20complex_full_dynamic3app17hadd231cbb8c39924E>
   249f8:	7820      	ldrb	r0, [r4, #0]
   249fa:	2801      	cmp	r0, #1
   249fc:	d104      	bne.n	24a08 <_start+0xd80>
   249fe:	e4a8      	b.n	24352 <_start+0x6ca>
   24a00:	0000140c 	.word	0x0000140c
   24a04:	000013b0 	.word	0x000013b0
   24a08:	4819      	ldr	r0, [pc, #100]	@ (24a70 <_start+0xde8>)
   24a0a:	4468      	add	r0, sp
   24a0c:	78c1      	ldrb	r1, [r0, #3]
   24a0e:	adff      	add	r5, sp, #1020	@ 0x3fc
   24a10:	3528      	adds	r5, #40	@ 0x28
   24a12:	70a9      	strb	r1, [r5, #2]
   24a14:	7841      	ldrb	r1, [r0, #1]
   24a16:	7882      	ldrb	r2, [r0, #2]
   24a18:	0212      	lsls	r2, r2, #8
   24a1a:	1851      	adds	r1, r2, r1
   24a1c:	8029      	strh	r1, [r5, #0]
   24a1e:	3008      	adds	r0, #8
   24a20:	9909      	ldr	r1, [sp, #36]	@ 0x24
   24a22:	6e09      	ldr	r1, [r1, #96]	@ 0x60
   24a24:	910c      	str	r1, [sp, #48]	@ 0x30
   24a26:	4b13      	ldr	r3, [pc, #76]	@ (24a74 <_start+0xdec>)
   24a28:	446b      	add	r3, sp
   24a2a:	930d      	str	r3, [sp, #52]	@ 0x34
   24a2c:	c854      	ldmia	r0!, {r2, r4, r6}
   24a2e:	c354      	stmia	r3!, {r2, r4, r6}
   24a30:	c854      	ldmia	r0!, {r2, r4, r6}
   24a32:	c354      	stmia	r3!, {r2, r4, r6}
   24a34:	c854      	ldmia	r0!, {r2, r4, r6}
   24a36:	c354      	stmia	r3!, {r2, r4, r6}
   24a38:	c856      	ldmia	r0!, {r1, r2, r4, r6}
   24a3a:	c356      	stmia	r3!, {r1, r2, r4, r6}
   24a3c:	7800      	ldrb	r0, [r0, #0]
   24a3e:	7018      	strb	r0, [r3, #0]
   24a40:	990c      	ldr	r1, [sp, #48]	@ 0x30
   24a42:	0e08      	lsrs	r0, r1, #24
   24a44:	71a8      	strb	r0, [r5, #6]
   24a46:	0c08      	lsrs	r0, r1, #16
   24a48:	7168      	strb	r0, [r5, #5]
   24a4a:	0a08      	lsrs	r0, r1, #8
   24a4c:	7128      	strb	r0, [r5, #4]
   24a4e:	70e9      	strb	r1, [r5, #3]
   24a50:	1de8      	adds	r0, r5, #7
   24a52:	2235      	movs	r2, #53	@ 0x35
   24a54:	990d      	ldr	r1, [sp, #52]	@ 0x34
   24a56:	f002 f91e 	bl	26c96 <__aeabi_memcpy>
   24a5a:	4c05      	ldr	r4, [pc, #20]	@ (24a70 <_start+0xde8>)
   24a5c:	446c      	add	r4, sp
   24a5e:	4620      	mov	r0, r4
   24a60:	4629      	mov	r1, r5
   24a62:	f7fd ffe5 	bl	22a30 <_ZN20complex_full_dynamic3app17h9f1af9e1962e4623E>
   24a66:	7820      	ldrb	r0, [r4, #0]
   24a68:	2801      	cmp	r0, #1
   24a6a:	d105      	bne.n	24a78 <_start+0xdf0>
   24a6c:	e471      	b.n	24352 <_start+0x6ca>
   24a6e:	46c0      	nop			@ (mov r8, r8)
   24a70:	0000140c 	.word	0x0000140c
   24a74:	000013b0 	.word	0x000013b0
   24a78:	4819      	ldr	r0, [pc, #100]	@ (24ae0 <_start+0xe58>)
   24a7a:	4468      	add	r0, sp
   24a7c:	78c1      	ldrb	r1, [r0, #3]
   24a7e:	adff      	add	r5, sp, #1020	@ 0x3fc
   24a80:	3564      	adds	r5, #100	@ 0x64
   24a82:	70a9      	strb	r1, [r5, #2]
   24a84:	7841      	ldrb	r1, [r0, #1]
   24a86:	7882      	ldrb	r2, [r0, #2]
   24a88:	0212      	lsls	r2, r2, #8
   24a8a:	1851      	adds	r1, r2, r1
   24a8c:	8029      	strh	r1, [r5, #0]
   24a8e:	3008      	adds	r0, #8
   24a90:	9909      	ldr	r1, [sp, #36]	@ 0x24
   24a92:	6e09      	ldr	r1, [r1, #96]	@ 0x60
   24a94:	910c      	str	r1, [sp, #48]	@ 0x30
   24a96:	4b13      	ldr	r3, [pc, #76]	@ (24ae4 <_start+0xe5c>)
   24a98:	446b      	add	r3, sp
   24a9a:	930d      	str	r3, [sp, #52]	@ 0x34
   24a9c:	c854      	ldmia	r0!, {r2, r4, r6}
   24a9e:	c354      	stmia	r3!, {r2, r4, r6}
   24aa0:	c854      	ldmia	r0!, {r2, r4, r6}
   24aa2:	c354      	stmia	r3!, {r2, r4, r6}
   24aa4:	c856      	ldmia	r0!, {r1, r2, r4, r6}
   24aa6:	c356      	stmia	r3!, {r1, r2, r4, r6}
   24aa8:	8801      	ldrh	r1, [r0, #0]
   24aaa:	8019      	strh	r1, [r3, #0]
   24aac:	7880      	ldrb	r0, [r0, #2]
   24aae:	7098      	strb	r0, [r3, #2]
   24ab0:	990c      	ldr	r1, [sp, #48]	@ 0x30
   24ab2:	0e08      	lsrs	r0, r1, #24
   24ab4:	71a8      	strb	r0, [r5, #6]
   24ab6:	0c08      	lsrs	r0, r1, #16
   24ab8:	7168      	strb	r0, [r5, #5]
   24aba:	0a08      	lsrs	r0, r1, #8
   24abc:	7128      	strb	r0, [r5, #4]
   24abe:	70e9      	strb	r1, [r5, #3]
   24ac0:	1de8      	adds	r0, r5, #7
   24ac2:	222b      	movs	r2, #43	@ 0x2b
   24ac4:	990d      	ldr	r1, [sp, #52]	@ 0x34
   24ac6:	f002 f8e6 	bl	26c96 <__aeabi_memcpy>
   24aca:	4c05      	ldr	r4, [pc, #20]	@ (24ae0 <_start+0xe58>)
   24acc:	446c      	add	r4, sp
   24ace:	4620      	mov	r0, r4
   24ad0:	4629      	mov	r1, r5
   24ad2:	f7fc f8d7 	bl	20c84 <_ZN20complex_full_dynamic3app17h2e489fdede7f8364E>
   24ad6:	7820      	ldrb	r0, [r4, #0]
   24ad8:	2801      	cmp	r0, #1
   24ada:	d105      	bne.n	24ae8 <_start+0xe60>
   24adc:	e439      	b.n	24352 <_start+0x6ca>
   24ade:	46c0      	nop			@ (mov r8, r8)
   24ae0:	0000140c 	.word	0x0000140c
   24ae4:	000013b0 	.word	0x000013b0
   24ae8:	4819      	ldr	r0, [pc, #100]	@ (24b50 <_start+0xec8>)
   24aea:	4468      	add	r0, sp
   24aec:	78c1      	ldrb	r1, [r0, #3]
   24aee:	adff      	add	r5, sp, #1020	@ 0x3fc
   24af0:	3598      	adds	r5, #152	@ 0x98
   24af2:	70a9      	strb	r1, [r5, #2]
   24af4:	7841      	ldrb	r1, [r0, #1]
   24af6:	7882      	ldrb	r2, [r0, #2]
   24af8:	0212      	lsls	r2, r2, #8
   24afa:	1851      	adds	r1, r2, r1
   24afc:	8029      	strh	r1, [r5, #0]
   24afe:	3008      	adds	r0, #8
   24b00:	9909      	ldr	r1, [sp, #36]	@ 0x24
   24b02:	6e09      	ldr	r1, [r1, #96]	@ 0x60
   24b04:	910c      	str	r1, [sp, #48]	@ 0x30
   24b06:	4b13      	ldr	r3, [pc, #76]	@ (24b54 <_start+0xecc>)
   24b08:	446b      	add	r3, sp
   24b0a:	930d      	str	r3, [sp, #52]	@ 0x34
   24b0c:	c854      	ldmia	r0!, {r2, r4, r6}
   24b0e:	c354      	stmia	r3!, {r2, r4, r6}
   24b10:	c854      	ldmia	r0!, {r2, r4, r6}
   24b12:	c354      	stmia	r3!, {r2, r4, r6}
   24b14:	c856      	ldmia	r0!, {r1, r2, r4, r6}
   24b16:	c356      	stmia	r3!, {r1, r2, r4, r6}
   24b18:	8801      	ldrh	r1, [r0, #0]
   24b1a:	8019      	strh	r1, [r3, #0]
   24b1c:	7880      	ldrb	r0, [r0, #2]
   24b1e:	7098      	strb	r0, [r3, #2]
   24b20:	990c      	ldr	r1, [sp, #48]	@ 0x30
   24b22:	0e08      	lsrs	r0, r1, #24
   24b24:	71a8      	strb	r0, [r5, #6]
   24b26:	0c08      	lsrs	r0, r1, #16
   24b28:	7168      	strb	r0, [r5, #5]
   24b2a:	0a08      	lsrs	r0, r1, #8
   24b2c:	7128      	strb	r0, [r5, #4]
   24b2e:	70e9      	strb	r1, [r5, #3]
   24b30:	1de8      	adds	r0, r5, #7
   24b32:	222b      	movs	r2, #43	@ 0x2b
   24b34:	990d      	ldr	r1, [sp, #52]	@ 0x34
   24b36:	f002 f8ae 	bl	26c96 <__aeabi_memcpy>
   24b3a:	4c05      	ldr	r4, [pc, #20]	@ (24b50 <_start+0xec8>)
   24b3c:	446c      	add	r4, sp
   24b3e:	4620      	mov	r0, r4
   24b40:	4629      	mov	r1, r5
   24b42:	f7fd fd91 	bl	22668 <_ZN20complex_full_dynamic3app17h8a664cffd1caf751E>
   24b46:	7820      	ldrb	r0, [r4, #0]
   24b48:	2801      	cmp	r0, #1
   24b4a:	d105      	bne.n	24b58 <_start+0xed0>
   24b4c:	f7ff fc01 	bl	24352 <_start+0x6ca>
   24b50:	0000140c 	.word	0x0000140c
   24b54:	000013b0 	.word	0x000013b0
   24b58:	4815      	ldr	r0, [pc, #84]	@ (24bb0 <_start+0xf28>)
   24b5a:	4468      	add	r0, sp
   24b5c:	78c1      	ldrb	r1, [r0, #3]
   24b5e:	adff      	add	r5, sp, #1020	@ 0x3fc
   24b60:	35cc      	adds	r5, #204	@ 0xcc
   24b62:	70a9      	strb	r1, [r5, #2]
   24b64:	7841      	ldrb	r1, [r0, #1]
   24b66:	7882      	ldrb	r2, [r0, #2]
   24b68:	0212      	lsls	r2, r2, #8
   24b6a:	1851      	adds	r1, r2, r1
   24b6c:	8029      	strh	r1, [r5, #0]
   24b6e:	3008      	adds	r0, #8
   24b70:	9909      	ldr	r1, [sp, #36]	@ 0x24
   24b72:	6e0a      	ldr	r2, [r1, #96]	@ 0x60
   24b74:	490f      	ldr	r1, [pc, #60]	@ (24bb4 <_start+0xf2c>)
   24b76:	4469      	add	r1, sp
   24b78:	460b      	mov	r3, r1
   24b7a:	c850      	ldmia	r0!, {r4, r6}
   24b7c:	c350      	stmia	r3!, {r4, r6}
   24b7e:	7800      	ldrb	r0, [r0, #0]
   24b80:	7018      	strb	r0, [r3, #0]
   24b82:	0e10      	lsrs	r0, r2, #24
   24b84:	71a8      	strb	r0, [r5, #6]
   24b86:	0c10      	lsrs	r0, r2, #16
   24b88:	7168      	strb	r0, [r5, #5]
   24b8a:	0a10      	lsrs	r0, r2, #8
   24b8c:	7128      	strb	r0, [r5, #4]
   24b8e:	70ea      	strb	r2, [r5, #3]
   24b90:	1de8      	adds	r0, r5, #7
   24b92:	2209      	movs	r2, #9
   24b94:	f002 f87f 	bl	26c96 <__aeabi_memcpy>
   24b98:	4c05      	ldr	r4, [pc, #20]	@ (24bb0 <_start+0xf28>)
   24b9a:	446c      	add	r4, sp
   24b9c:	4620      	mov	r0, r4
   24b9e:	4629      	mov	r1, r5
   24ba0:	f7fc fe68 	bl	21874 <_ZN20complex_full_dynamic3app17h580ea73202ace18bE>
   24ba4:	7820      	ldrb	r0, [r4, #0]
   24ba6:	2801      	cmp	r0, #1
   24ba8:	d106      	bne.n	24bb8 <_start+0xf30>
   24baa:	f7ff fbd2 	bl	24352 <_start+0x6ca>
   24bae:	46c0      	nop			@ (mov r8, r8)
   24bb0:	0000140c 	.word	0x0000140c
   24bb4:	000013b0 	.word	0x000013b0
   24bb8:	4819      	ldr	r0, [pc, #100]	@ (24c20 <_start+0xf98>)
   24bba:	4468      	add	r0, sp
   24bbc:	78c1      	ldrb	r1, [r0, #3]
   24bbe:	adff      	add	r5, sp, #1020	@ 0x3fc
   24bc0:	35dc      	adds	r5, #220	@ 0xdc
   24bc2:	70a9      	strb	r1, [r5, #2]
   24bc4:	7841      	ldrb	r1, [r0, #1]
   24bc6:	7882      	ldrb	r2, [r0, #2]
   24bc8:	0212      	lsls	r2, r2, #8
   24bca:	1851      	adds	r1, r2, r1
   24bcc:	8029      	strh	r1, [r5, #0]
   24bce:	3008      	adds	r0, #8
   24bd0:	9909      	ldr	r1, [sp, #36]	@ 0x24
   24bd2:	6e09      	ldr	r1, [r1, #96]	@ 0x60
   24bd4:	910c      	str	r1, [sp, #48]	@ 0x30
   24bd6:	4b13      	ldr	r3, [pc, #76]	@ (24c24 <_start+0xf9c>)
   24bd8:	446b      	add	r3, sp
   24bda:	930d      	str	r3, [sp, #52]	@ 0x34
   24bdc:	c854      	ldmia	r0!, {r2, r4, r6}
   24bde:	c354      	stmia	r3!, {r2, r4, r6}
   24be0:	c856      	ldmia	r0!, {r1, r2, r4, r6}
   24be2:	c356      	stmia	r3!, {r1, r2, r4, r6}
   24be4:	c856      	ldmia	r0!, {r1, r2, r4, r6}
   24be6:	c356      	stmia	r3!, {r1, r2, r4, r6}
   24be8:	8801      	ldrh	r1, [r0, #0]
   24bea:	8019      	strh	r1, [r3, #0]
   24bec:	7880      	ldrb	r0, [r0, #2]
   24bee:	7098      	strb	r0, [r3, #2]
   24bf0:	990c      	ldr	r1, [sp, #48]	@ 0x30
   24bf2:	0e08      	lsrs	r0, r1, #24
   24bf4:	71a8      	strb	r0, [r5, #6]
   24bf6:	0c08      	lsrs	r0, r1, #16
   24bf8:	7168      	strb	r0, [r5, #5]
   24bfa:	0a08      	lsrs	r0, r1, #8
   24bfc:	7128      	strb	r0, [r5, #4]
   24bfe:	70e9      	strb	r1, [r5, #3]
   24c00:	1de8      	adds	r0, r5, #7
   24c02:	222f      	movs	r2, #47	@ 0x2f
   24c04:	990d      	ldr	r1, [sp, #52]	@ 0x34
   24c06:	f002 f846 	bl	26c96 <__aeabi_memcpy>
   24c0a:	4c05      	ldr	r4, [pc, #20]	@ (24c20 <_start+0xf98>)
   24c0c:	446c      	add	r4, sp
   24c0e:	4620      	mov	r0, r4
   24c10:	4629      	mov	r1, r5
   24c12:	f7fe f8f1 	bl	22df8 <_ZN20complex_full_dynamic3app17hbc725252ec683df5E>
   24c16:	7820      	ldrb	r0, [r4, #0]
   24c18:	2801      	cmp	r0, #1
   24c1a:	d105      	bne.n	24c28 <_start+0xfa0>
   24c1c:	f7ff fb99 	bl	24352 <_start+0x6ca>
   24c20:	0000140c 	.word	0x0000140c
   24c24:	000013b0 	.word	0x000013b0
   24c28:	9806      	ldr	r0, [sp, #24]
   24c2a:	1cc0      	adds	r0, r0, #3
   24c2c:	4a16      	ldr	r2, [pc, #88]	@ (24c88 <_start+0x1000>)
   24c2e:	446a      	add	r2, sp
   24c30:	78d3      	ldrb	r3, [r2, #3]
   24c32:	4916      	ldr	r1, [pc, #88]	@ (24c8c <_start+0x1004>)
   24c34:	4469      	add	r1, sp
   24c36:	708b      	strb	r3, [r1, #2]
   24c38:	7853      	ldrb	r3, [r2, #1]
   24c3a:	7892      	ldrb	r2, [r2, #2]
   24c3c:	0212      	lsls	r2, r2, #8
   24c3e:	18d2      	adds	r2, r2, r3
   24c40:	800a      	strh	r2, [r1, #0]
   24c42:	9c09      	ldr	r4, [sp, #36]	@ 0x24
   24c44:	3460      	adds	r4, #96	@ 0x60
   24c46:	cc1c      	ldmia	r4, {r2, r3, r4}
   24c48:	0e25      	lsrs	r5, r4, #24
   24c4a:	72c5      	strb	r5, [r0, #11]
   24c4c:	0c25      	lsrs	r5, r4, #16
   24c4e:	7285      	strb	r5, [r0, #10]
   24c50:	0a25      	lsrs	r5, r4, #8
   24c52:	7245      	strb	r5, [r0, #9]
   24c54:	7204      	strb	r4, [r0, #8]
   24c56:	0e1c      	lsrs	r4, r3, #24
   24c58:	71c4      	strb	r4, [r0, #7]
   24c5a:	0c1c      	lsrs	r4, r3, #16
   24c5c:	7184      	strb	r4, [r0, #6]
   24c5e:	0a1c      	lsrs	r4, r3, #8
   24c60:	7144      	strb	r4, [r0, #5]
   24c62:	7103      	strb	r3, [r0, #4]
   24c64:	0e13      	lsrs	r3, r2, #24
   24c66:	70c3      	strb	r3, [r0, #3]
   24c68:	0c13      	lsrs	r3, r2, #16
   24c6a:	7083      	strb	r3, [r0, #2]
   24c6c:	0a13      	lsrs	r3, r2, #8
   24c6e:	7043      	strb	r3, [r0, #1]
   24c70:	7002      	strb	r2, [r0, #0]
   24c72:	4c05      	ldr	r4, [pc, #20]	@ (24c88 <_start+0x1000>)
   24c74:	446c      	add	r4, sp
   24c76:	4620      	mov	r0, r4
   24c78:	f7fc ff42 	bl	21b00 <_ZN20complex_full_dynamic3app17h61c014e65865fb20E>
   24c7c:	7820      	ldrb	r0, [r4, #0]
   24c7e:	2801      	cmp	r0, #1
   24c80:	d106      	bne.n	24c90 <_start+0x1008>
   24c82:	f7ff fb66 	bl	24352 <_start+0x6ca>
   24c86:	46c0      	nop			@ (mov r8, r8)
   24c88:	0000140c 	.word	0x0000140c
   24c8c:	00000510 	.word	0x00000510
   24c90:	4814      	ldr	r0, [pc, #80]	@ (24ce4 <_start+0x105c>)
   24c92:	4468      	add	r0, sp
   24c94:	78c1      	ldrb	r1, [r0, #3]
   24c96:	4d14      	ldr	r5, [pc, #80]	@ (24ce8 <_start+0x1060>)
   24c98:	446d      	add	r5, sp
   24c9a:	70a9      	strb	r1, [r5, #2]
   24c9c:	7841      	ldrb	r1, [r0, #1]
   24c9e:	7882      	ldrb	r2, [r0, #2]
   24ca0:	0212      	lsls	r2, r2, #8
   24ca2:	1851      	adds	r1, r2, r1
   24ca4:	8029      	strh	r1, [r5, #0]
   24ca6:	3008      	adds	r0, #8
   24ca8:	9909      	ldr	r1, [sp, #36]	@ 0x24
   24caa:	6e09      	ldr	r1, [r1, #96]	@ 0x60
   24cac:	4b0f      	ldr	r3, [pc, #60]	@ (24cec <_start+0x1064>)
   24cae:	446b      	add	r3, sp
   24cb0:	930d      	str	r3, [sp, #52]	@ 0x34
   24cb2:	c854      	ldmia	r0!, {r2, r4, r6}
   24cb4:	c354      	stmia	r3!, {r2, r4, r6}
   24cb6:	0e08      	lsrs	r0, r1, #24
   24cb8:	71a8      	strb	r0, [r5, #6]
   24cba:	0c08      	lsrs	r0, r1, #16
   24cbc:	7168      	strb	r0, [r5, #5]
   24cbe:	0a08      	lsrs	r0, r1, #8
   24cc0:	7128      	strb	r0, [r5, #4]
   24cc2:	70e9      	strb	r1, [r5, #3]
   24cc4:	1de8      	adds	r0, r5, #7
   24cc6:	220c      	movs	r2, #12
   24cc8:	990d      	ldr	r1, [sp, #52]	@ 0x34
   24cca:	f001 ffe4 	bl	26c96 <__aeabi_memcpy>
   24cce:	4c05      	ldr	r4, [pc, #20]	@ (24ce4 <_start+0x105c>)
   24cd0:	446c      	add	r4, sp
   24cd2:	4620      	mov	r0, r4
   24cd4:	4629      	mov	r1, r5
   24cd6:	f7fe fa25 	bl	23124 <_ZN20complex_full_dynamic3app17hcc78653293ec0647E>
   24cda:	7820      	ldrb	r0, [r4, #0]
   24cdc:	2801      	cmp	r0, #1
   24cde:	d107      	bne.n	24cf0 <_start+0x1068>
   24ce0:	f7ff fb37 	bl	24352 <_start+0x6ca>
   24ce4:	0000140c 	.word	0x0000140c
   24ce8:	00000520 	.word	0x00000520
   24cec:	000013b0 	.word	0x000013b0
   24cf0:	4915      	ldr	r1, [pc, #84]	@ (24d48 <_start+0x10c0>)
   24cf2:	4469      	add	r1, sp
   24cf4:	78c8      	ldrb	r0, [r1, #3]
   24cf6:	4d15      	ldr	r5, [pc, #84]	@ (24d4c <_start+0x10c4>)
   24cf8:	446d      	add	r5, sp
   24cfa:	70a8      	strb	r0, [r5, #2]
   24cfc:	7848      	ldrb	r0, [r1, #1]
   24cfe:	788a      	ldrb	r2, [r1, #2]
   24d00:	0212      	lsls	r2, r2, #8
   24d02:	1810      	adds	r0, r2, r0
   24d04:	8028      	strh	r0, [r5, #0]
   24d06:	9809      	ldr	r0, [sp, #36]	@ 0x24
   24d08:	6e04      	ldr	r4, [r0, #96]	@ 0x60
   24d0a:	3108      	adds	r1, #8
   24d0c:	4810      	ldr	r0, [pc, #64]	@ (24d50 <_start+0x10c8>)
   24d0e:	4468      	add	r0, sp
   24d10:	900d      	str	r0, [sp, #52]	@ 0x34
   24d12:	264e      	movs	r6, #78	@ 0x4e
   24d14:	4632      	mov	r2, r6
   24d16:	f001 fe5e 	bl	269d6 <__aeabi_memcpy4>
   24d1a:	0e20      	lsrs	r0, r4, #24
   24d1c:	71a8      	strb	r0, [r5, #6]
   24d1e:	0c20      	lsrs	r0, r4, #16
   24d20:	7168      	strb	r0, [r5, #5]
   24d22:	0a20      	lsrs	r0, r4, #8
   24d24:	7128      	strb	r0, [r5, #4]
   24d26:	70ec      	strb	r4, [r5, #3]
   24d28:	1de8      	adds	r0, r5, #7
   24d2a:	990d      	ldr	r1, [sp, #52]	@ 0x34
   24d2c:	4632      	mov	r2, r6
   24d2e:	f001 ffb2 	bl	26c96 <__aeabi_memcpy>
   24d32:	4c05      	ldr	r4, [pc, #20]	@ (24d48 <_start+0x10c0>)
   24d34:	446c      	add	r4, sp
   24d36:	4620      	mov	r0, r4
   24d38:	4629      	mov	r1, r5
   24d3a:	f7fe fae7 	bl	2330c <_ZN20complex_full_dynamic3app17hd68095c00c26354fE>
   24d3e:	7820      	ldrb	r0, [r4, #0]
   24d40:	2801      	cmp	r0, #1
   24d42:	d107      	bne.n	24d54 <_start+0x10cc>
   24d44:	f7ff fb05 	bl	24352 <_start+0x6ca>
   24d48:	0000140c 	.word	0x0000140c
   24d4c:	00000534 	.word	0x00000534
   24d50:	000013b0 	.word	0x000013b0
   24d54:	4819      	ldr	r0, [pc, #100]	@ (24dbc <_start+0x1134>)
   24d56:	4468      	add	r0, sp
   24d58:	78c1      	ldrb	r1, [r0, #3]
   24d5a:	4d19      	ldr	r5, [pc, #100]	@ (24dc0 <_start+0x1138>)
   24d5c:	446d      	add	r5, sp
   24d5e:	70a9      	strb	r1, [r5, #2]
   24d60:	7841      	ldrb	r1, [r0, #1]
   24d62:	7882      	ldrb	r2, [r0, #2]
   24d64:	0212      	lsls	r2, r2, #8
   24d66:	1851      	adds	r1, r2, r1
   24d68:	8029      	strh	r1, [r5, #0]
   24d6a:	3008      	adds	r0, #8
   24d6c:	9909      	ldr	r1, [sp, #36]	@ 0x24
   24d6e:	6e09      	ldr	r1, [r1, #96]	@ 0x60
   24d70:	910c      	str	r1, [sp, #48]	@ 0x30
   24d72:	4b14      	ldr	r3, [pc, #80]	@ (24dc4 <_start+0x113c>)
   24d74:	446b      	add	r3, sp
   24d76:	930d      	str	r3, [sp, #52]	@ 0x34
   24d78:	c854      	ldmia	r0!, {r2, r4, r6}
   24d7a:	c354      	stmia	r3!, {r2, r4, r6}
   24d7c:	c854      	ldmia	r0!, {r2, r4, r6}
   24d7e:	c354      	stmia	r3!, {r2, r4, r6}
   24d80:	c856      	ldmia	r0!, {r1, r2, r4, r6}
   24d82:	c356      	stmia	r3!, {r1, r2, r4, r6}
   24d84:	8801      	ldrh	r1, [r0, #0]
   24d86:	8019      	strh	r1, [r3, #0]
   24d88:	7880      	ldrb	r0, [r0, #2]
   24d8a:	7098      	strb	r0, [r3, #2]
   24d8c:	990c      	ldr	r1, [sp, #48]	@ 0x30
   24d8e:	0e08      	lsrs	r0, r1, #24
   24d90:	71a8      	strb	r0, [r5, #6]
   24d92:	0c08      	lsrs	r0, r1, #16
   24d94:	7168      	strb	r0, [r5, #5]
   24d96:	0a08      	lsrs	r0, r1, #8
   24d98:	7128      	strb	r0, [r5, #4]
   24d9a:	70e9      	strb	r1, [r5, #3]
   24d9c:	1de8      	adds	r0, r5, #7
   24d9e:	222b      	movs	r2, #43	@ 0x2b
   24da0:	990d      	ldr	r1, [sp, #52]	@ 0x34
   24da2:	f001 ff78 	bl	26c96 <__aeabi_memcpy>
   24da6:	4c05      	ldr	r4, [pc, #20]	@ (24dbc <_start+0x1134>)
   24da8:	446c      	add	r4, sp
   24daa:	4620      	mov	r0, r4
   24dac:	4629      	mov	r1, r5
   24dae:	f7fd fd9d 	bl	228ec <_ZN20complex_full_dynamic3app17h9b67996bb0f0a238E>
   24db2:	7820      	ldrb	r0, [r4, #0]
   24db4:	2801      	cmp	r0, #1
   24db6:	d107      	bne.n	24dc8 <_start+0x1140>
   24db8:	f7ff facb 	bl	24352 <_start+0x6ca>
   24dbc:	0000140c 	.word	0x0000140c
   24dc0:	0000058c 	.word	0x0000058c
   24dc4:	000013b0 	.word	0x000013b0
   24dc8:	4819      	ldr	r0, [pc, #100]	@ (24e30 <_start+0x11a8>)
   24dca:	4468      	add	r0, sp
   24dcc:	78c1      	ldrb	r1, [r0, #3]
   24dce:	4d19      	ldr	r5, [pc, #100]	@ (24e34 <_start+0x11ac>)
   24dd0:	446d      	add	r5, sp
   24dd2:	70a9      	strb	r1, [r5, #2]
   24dd4:	7841      	ldrb	r1, [r0, #1]
   24dd6:	7882      	ldrb	r2, [r0, #2]
   24dd8:	0212      	lsls	r2, r2, #8
   24dda:	1851      	adds	r1, r2, r1
   24ddc:	8029      	strh	r1, [r5, #0]
   24dde:	3008      	adds	r0, #8
   24de0:	9909      	ldr	r1, [sp, #36]	@ 0x24
   24de2:	6e09      	ldr	r1, [r1, #96]	@ 0x60
   24de4:	910c      	str	r1, [sp, #48]	@ 0x30
   24de6:	4b14      	ldr	r3, [pc, #80]	@ (24e38 <_start+0x11b0>)
   24de8:	446b      	add	r3, sp
   24dea:	930d      	str	r3, [sp, #52]	@ 0x34
   24dec:	c854      	ldmia	r0!, {r2, r4, r6}
   24dee:	c354      	stmia	r3!, {r2, r4, r6}
   24df0:	c856      	ldmia	r0!, {r1, r2, r4, r6}
   24df2:	c356      	stmia	r3!, {r1, r2, r4, r6}
   24df4:	c816      	ldmia	r0!, {r1, r2, r4}
   24df6:	c316      	stmia	r3!, {r1, r2, r4}
   24df8:	c856      	ldmia	r0!, {r1, r2, r4, r6}
   24dfa:	c356      	stmia	r3!, {r1, r2, r4, r6}
   24dfc:	8800      	ldrh	r0, [r0, #0]
   24dfe:	8018      	strh	r0, [r3, #0]
   24e00:	990c      	ldr	r1, [sp, #48]	@ 0x30
   24e02:	0e08      	lsrs	r0, r1, #24
   24e04:	71a8      	strb	r0, [r5, #6]
   24e06:	0c08      	lsrs	r0, r1, #16
   24e08:	7168      	strb	r0, [r5, #5]
   24e0a:	0a08      	lsrs	r0, r1, #8
   24e0c:	7128      	strb	r0, [r5, #4]
   24e0e:	70e9      	strb	r1, [r5, #3]
   24e10:	1de8      	adds	r0, r5, #7
   24e12:	223a      	movs	r2, #58	@ 0x3a
   24e14:	990d      	ldr	r1, [sp, #52]	@ 0x34
   24e16:	f001 ff3e 	bl	26c96 <__aeabi_memcpy>
   24e1a:	4c05      	ldr	r4, [pc, #20]	@ (24e30 <_start+0x11a8>)
   24e1c:	446c      	add	r4, sp
   24e1e:	4620      	mov	r0, r4
   24e20:	4629      	mov	r1, r5
   24e22:	f7fd fb7f 	bl	22524 <_ZN20complex_full_dynamic3app17h820e056a3835dba7E>
   24e26:	7820      	ldrb	r0, [r4, #0]
   24e28:	2801      	cmp	r0, #1
   24e2a:	d107      	bne.n	24e3c <_start+0x11b4>
   24e2c:	f7ff fa91 	bl	24352 <_start+0x6ca>
   24e30:	0000140c 	.word	0x0000140c
   24e34:	000005c0 	.word	0x000005c0
   24e38:	000013b0 	.word	0x000013b0
   24e3c:	4817      	ldr	r0, [pc, #92]	@ (24e9c <_start+0x1214>)
   24e3e:	4468      	add	r0, sp
   24e40:	78c1      	ldrb	r1, [r0, #3]
   24e42:	4d17      	ldr	r5, [pc, #92]	@ (24ea0 <_start+0x1218>)
   24e44:	446d      	add	r5, sp
   24e46:	70a9      	strb	r1, [r5, #2]
   24e48:	7841      	ldrb	r1, [r0, #1]
   24e4a:	7882      	ldrb	r2, [r0, #2]
   24e4c:	0212      	lsls	r2, r2, #8
   24e4e:	1851      	adds	r1, r2, r1
   24e50:	8029      	strh	r1, [r5, #0]
   24e52:	3008      	adds	r0, #8
   24e54:	9909      	ldr	r1, [sp, #36]	@ 0x24
   24e56:	6e09      	ldr	r1, [r1, #96]	@ 0x60
   24e58:	4b12      	ldr	r3, [pc, #72]	@ (24ea4 <_start+0x121c>)
   24e5a:	446b      	add	r3, sp
   24e5c:	930d      	str	r3, [sp, #52]	@ 0x34
   24e5e:	c854      	ldmia	r0!, {r2, r4, r6}
   24e60:	c354      	stmia	r3!, {r2, r4, r6}
   24e62:	c854      	ldmia	r0!, {r2, r4, r6}
   24e64:	c354      	stmia	r3!, {r2, r4, r6}
   24e66:	8802      	ldrh	r2, [r0, #0]
   24e68:	801a      	strh	r2, [r3, #0]
   24e6a:	7880      	ldrb	r0, [r0, #2]
   24e6c:	7098      	strb	r0, [r3, #2]
   24e6e:	0e08      	lsrs	r0, r1, #24
   24e70:	71a8      	strb	r0, [r5, #6]
   24e72:	0c08      	lsrs	r0, r1, #16
   24e74:	7168      	strb	r0, [r5, #5]
   24e76:	0a08      	lsrs	r0, r1, #8
   24e78:	7128      	strb	r0, [r5, #4]
   24e7a:	70e9      	strb	r1, [r5, #3]
   24e7c:	1de8      	adds	r0, r5, #7
   24e7e:	221b      	movs	r2, #27
   24e80:	990d      	ldr	r1, [sp, #52]	@ 0x34
   24e82:	f001 ff08 	bl	26c96 <__aeabi_memcpy>
   24e86:	4c05      	ldr	r4, [pc, #20]	@ (24e9c <_start+0x1214>)
   24e88:	446c      	add	r4, sp
   24e8a:	4620      	mov	r0, r4
   24e8c:	4629      	mov	r1, r5
   24e8e:	f7fd fec3 	bl	22c18 <_ZN20complex_full_dynamic3app17hb08da5ee74f64565E>
   24e92:	7820      	ldrb	r0, [r4, #0]
   24e94:	2801      	cmp	r0, #1
   24e96:	d107      	bne.n	24ea8 <_start+0x1220>
   24e98:	f7ff fa5b 	bl	24352 <_start+0x6ca>
   24e9c:	0000140c 	.word	0x0000140c
   24ea0:	00000604 	.word	0x00000604
   24ea4:	000013b0 	.word	0x000013b0
   24ea8:	4915      	ldr	r1, [pc, #84]	@ (24f00 <_start+0x1278>)
   24eaa:	4469      	add	r1, sp
   24eac:	78c8      	ldrb	r0, [r1, #3]
   24eae:	4d15      	ldr	r5, [pc, #84]	@ (24f04 <_start+0x127c>)
   24eb0:	446d      	add	r5, sp
   24eb2:	70a8      	strb	r0, [r5, #2]
   24eb4:	7848      	ldrb	r0, [r1, #1]
   24eb6:	788a      	ldrb	r2, [r1, #2]
   24eb8:	0212      	lsls	r2, r2, #8
   24eba:	1810      	adds	r0, r2, r0
   24ebc:	8028      	strh	r0, [r5, #0]
   24ebe:	9809      	ldr	r0, [sp, #36]	@ 0x24
   24ec0:	6e04      	ldr	r4, [r0, #96]	@ 0x60
   24ec2:	3108      	adds	r1, #8
   24ec4:	4810      	ldr	r0, [pc, #64]	@ (24f08 <_start+0x1280>)
   24ec6:	4468      	add	r0, sp
   24ec8:	900d      	str	r0, [sp, #52]	@ 0x34
   24eca:	264a      	movs	r6, #74	@ 0x4a
   24ecc:	4632      	mov	r2, r6
   24ece:	f001 fd82 	bl	269d6 <__aeabi_memcpy4>
   24ed2:	0e20      	lsrs	r0, r4, #24
   24ed4:	71a8      	strb	r0, [r5, #6]
   24ed6:	0c20      	lsrs	r0, r4, #16
   24ed8:	7168      	strb	r0, [r5, #5]
   24eda:	0a20      	lsrs	r0, r4, #8
   24edc:	7128      	strb	r0, [r5, #4]
   24ede:	70ec      	strb	r4, [r5, #3]
   24ee0:	1de8      	adds	r0, r5, #7
   24ee2:	990d      	ldr	r1, [sp, #52]	@ 0x34
   24ee4:	4632      	mov	r2, r6
   24ee6:	f001 fed6 	bl	26c96 <__aeabi_memcpy>
   24eea:	4c05      	ldr	r4, [pc, #20]	@ (24f00 <_start+0x1278>)
   24eec:	446c      	add	r4, sp
   24eee:	4620      	mov	r0, r4
   24ef0:	4629      	mov	r1, r5
   24ef2:	f7fd fdef 	bl	22ad4 <_ZN20complex_full_dynamic3app17habc45aee12a39ae3E>
   24ef6:	7820      	ldrb	r0, [r4, #0]
   24ef8:	2801      	cmp	r0, #1
   24efa:	d107      	bne.n	24f0c <_start+0x1284>
   24efc:	f7ff fa29 	bl	24352 <_start+0x6ca>
   24f00:	0000140c 	.word	0x0000140c
   24f04:	00000628 	.word	0x00000628
   24f08:	000013b0 	.word	0x000013b0
   24f0c:	4915      	ldr	r1, [pc, #84]	@ (24f64 <_start+0x12dc>)
   24f0e:	4469      	add	r1, sp
   24f10:	78c8      	ldrb	r0, [r1, #3]
   24f12:	4d15      	ldr	r5, [pc, #84]	@ (24f68 <_start+0x12e0>)
   24f14:	446d      	add	r5, sp
   24f16:	70a8      	strb	r0, [r5, #2]
   24f18:	7848      	ldrb	r0, [r1, #1]
   24f1a:	788a      	ldrb	r2, [r1, #2]
   24f1c:	0212      	lsls	r2, r2, #8
   24f1e:	1810      	adds	r0, r2, r0
   24f20:	8028      	strh	r0, [r5, #0]
   24f22:	9809      	ldr	r0, [sp, #36]	@ 0x24
   24f24:	6e04      	ldr	r4, [r0, #96]	@ 0x60
   24f26:	3108      	adds	r1, #8
   24f28:	4810      	ldr	r0, [pc, #64]	@ (24f6c <_start+0x12e4>)
   24f2a:	4468      	add	r0, sp
   24f2c:	900d      	str	r0, [sp, #52]	@ 0x34
   24f2e:	2648      	movs	r6, #72	@ 0x48
   24f30:	4632      	mov	r2, r6
   24f32:	f001 fd50 	bl	269d6 <__aeabi_memcpy4>
   24f36:	0e20      	lsrs	r0, r4, #24
   24f38:	71a8      	strb	r0, [r5, #6]
   24f3a:	0c20      	lsrs	r0, r4, #16
   24f3c:	7168      	strb	r0, [r5, #5]
   24f3e:	0a20      	lsrs	r0, r4, #8
   24f40:	7128      	strb	r0, [r5, #4]
   24f42:	70ec      	strb	r4, [r5, #3]
   24f44:	1de8      	adds	r0, r5, #7
   24f46:	990d      	ldr	r1, [sp, #52]	@ 0x34
   24f48:	4632      	mov	r2, r6
   24f4a:	f001 fea4 	bl	26c96 <__aeabi_memcpy>
   24f4e:	4c05      	ldr	r4, [pc, #20]	@ (24f64 <_start+0x12dc>)
   24f50:	446c      	add	r4, sp
   24f52:	4620      	mov	r0, r4
   24f54:	4629      	mov	r1, r5
   24f56:	f7fc ff19 	bl	21d8c <_ZN20complex_full_dynamic3app17h6a3b105a9ca67b44E>
   24f5a:	7820      	ldrb	r0, [r4, #0]
   24f5c:	2801      	cmp	r0, #1
   24f5e:	d107      	bne.n	24f70 <_start+0x12e8>
   24f60:	f7ff f9f7 	bl	24352 <_start+0x6ca>
   24f64:	0000140c 	.word	0x0000140c
   24f68:	0000067c 	.word	0x0000067c
   24f6c:	000013b0 	.word	0x000013b0
   24f70:	4818      	ldr	r0, [pc, #96]	@ (24fd4 <_start+0x134c>)
   24f72:	4468      	add	r0, sp
   24f74:	78c1      	ldrb	r1, [r0, #3]
   24f76:	4d18      	ldr	r5, [pc, #96]	@ (24fd8 <_start+0x1350>)
   24f78:	446d      	add	r5, sp
   24f7a:	70a9      	strb	r1, [r5, #2]
   24f7c:	7841      	ldrb	r1, [r0, #1]
   24f7e:	7882      	ldrb	r2, [r0, #2]
   24f80:	0212      	lsls	r2, r2, #8
   24f82:	1851      	adds	r1, r2, r1
   24f84:	8029      	strh	r1, [r5, #0]
   24f86:	3008      	adds	r0, #8
   24f88:	9909      	ldr	r1, [sp, #36]	@ 0x24
   24f8a:	6e09      	ldr	r1, [r1, #96]	@ 0x60
   24f8c:	910c      	str	r1, [sp, #48]	@ 0x30
   24f8e:	4b13      	ldr	r3, [pc, #76]	@ (24fdc <_start+0x1354>)
   24f90:	446b      	add	r3, sp
   24f92:	930d      	str	r3, [sp, #52]	@ 0x34
   24f94:	c854      	ldmia	r0!, {r2, r4, r6}
   24f96:	c354      	stmia	r3!, {r2, r4, r6}
   24f98:	c854      	ldmia	r0!, {r2, r4, r6}
   24f9a:	c354      	stmia	r3!, {r2, r4, r6}
   24f9c:	c854      	ldmia	r0!, {r2, r4, r6}
   24f9e:	c354      	stmia	r3!, {r2, r4, r6}
   24fa0:	c856      	ldmia	r0!, {r1, r2, r4, r6}
   24fa2:	c356      	stmia	r3!, {r1, r2, r4, r6}
   24fa4:	990c      	ldr	r1, [sp, #48]	@ 0x30
   24fa6:	0e08      	lsrs	r0, r1, #24
   24fa8:	71a8      	strb	r0, [r5, #6]
   24faa:	0c08      	lsrs	r0, r1, #16
   24fac:	7168      	strb	r0, [r5, #5]
   24fae:	0a08      	lsrs	r0, r1, #8
   24fb0:	7128      	strb	r0, [r5, #4]
   24fb2:	70e9      	strb	r1, [r5, #3]
   24fb4:	1de8      	adds	r0, r5, #7
   24fb6:	2234      	movs	r2, #52	@ 0x34
   24fb8:	990d      	ldr	r1, [sp, #52]	@ 0x34
   24fba:	f001 fe6c 	bl	26c96 <__aeabi_memcpy>
   24fbe:	4c05      	ldr	r4, [pc, #20]	@ (24fd4 <_start+0x134c>)
   24fc0:	446c      	add	r4, sp
   24fc2:	4620      	mov	r0, r4
   24fc4:	4629      	mov	r1, r5
   24fc6:	f7fb fd1b 	bl	20a00 <_ZN20complex_full_dynamic3app17h258aaefc42dfb0aeE>
   24fca:	7820      	ldrb	r0, [r4, #0]
   24fcc:	2801      	cmp	r0, #1
   24fce:	d107      	bne.n	24fe0 <_start+0x1358>
   24fd0:	f7ff f9bf 	bl	24352 <_start+0x6ca>
   24fd4:	0000140c 	.word	0x0000140c
   24fd8:	000006cc 	.word	0x000006cc
   24fdc:	000013b0 	.word	0x000013b0
   24fe0:	4816      	ldr	r0, [pc, #88]	@ (2503c <_start+0x13b4>)
   24fe2:	4468      	add	r0, sp
   24fe4:	78c1      	ldrb	r1, [r0, #3]
   24fe6:	4d16      	ldr	r5, [pc, #88]	@ (25040 <_start+0x13b8>)
   24fe8:	446d      	add	r5, sp
   24fea:	70a9      	strb	r1, [r5, #2]
   24fec:	7841      	ldrb	r1, [r0, #1]
   24fee:	7882      	ldrb	r2, [r0, #2]
   24ff0:	0212      	lsls	r2, r2, #8
   24ff2:	1851      	adds	r1, r2, r1
   24ff4:	8029      	strh	r1, [r5, #0]
   24ff6:	3008      	adds	r0, #8
   24ff8:	9909      	ldr	r1, [sp, #36]	@ 0x24
   24ffa:	6e09      	ldr	r1, [r1, #96]	@ 0x60
   24ffc:	910c      	str	r1, [sp, #48]	@ 0x30
   24ffe:	4b11      	ldr	r3, [pc, #68]	@ (25044 <_start+0x13bc>)
   25000:	446b      	add	r3, sp
   25002:	930d      	str	r3, [sp, #52]	@ 0x34
   25004:	c856      	ldmia	r0!, {r1, r2, r4, r6}
   25006:	c356      	stmia	r3!, {r1, r2, r4, r6}
   25008:	c856      	ldmia	r0!, {r1, r2, r4, r6}
   2500a:	c356      	stmia	r3!, {r1, r2, r4, r6}
   2500c:	990c      	ldr	r1, [sp, #48]	@ 0x30
   2500e:	0e08      	lsrs	r0, r1, #24
   25010:	71a8      	strb	r0, [r5, #6]
   25012:	0c08      	lsrs	r0, r1, #16
   25014:	7168      	strb	r0, [r5, #5]
   25016:	0a08      	lsrs	r0, r1, #8
   25018:	7128      	strb	r0, [r5, #4]
   2501a:	70e9      	strb	r1, [r5, #3]
   2501c:	1de8      	adds	r0, r5, #7
   2501e:	2220      	movs	r2, #32
   25020:	990d      	ldr	r1, [sp, #52]	@ 0x34
   25022:	f001 fe38 	bl	26c96 <__aeabi_memcpy>
   25026:	4c05      	ldr	r4, [pc, #20]	@ (2503c <_start+0x13b4>)
   25028:	446c      	add	r4, sp
   2502a:	4620      	mov	r0, r4
   2502c:	4629      	mov	r1, r5
   2502e:	f7fe fb01 	bl	23634 <_ZN20complex_full_dynamic3app17he4ae40aa30082605E>
   25032:	7820      	ldrb	r0, [r4, #0]
   25034:	2801      	cmp	r0, #1
   25036:	d107      	bne.n	25048 <_start+0x13c0>
   25038:	f7ff f98b 	bl	24352 <_start+0x6ca>
   2503c:	0000140c 	.word	0x0000140c
   25040:	00000708 	.word	0x00000708
   25044:	000013b0 	.word	0x000013b0
   25048:	4815      	ldr	r0, [pc, #84]	@ (250a0 <_start+0x1418>)
   2504a:	4468      	add	r0, sp
   2504c:	78c1      	ldrb	r1, [r0, #3]
   2504e:	4d15      	ldr	r5, [pc, #84]	@ (250a4 <_start+0x141c>)
   25050:	446d      	add	r5, sp
   25052:	70a9      	strb	r1, [r5, #2]
   25054:	7841      	ldrb	r1, [r0, #1]
   25056:	7882      	ldrb	r2, [r0, #2]
   25058:	0212      	lsls	r2, r2, #8
   2505a:	1851      	adds	r1, r2, r1
   2505c:	8029      	strh	r1, [r5, #0]
   2505e:	3008      	adds	r0, #8
   25060:	9909      	ldr	r1, [sp, #36]	@ 0x24
   25062:	6e09      	ldr	r1, [r1, #96]	@ 0x60
   25064:	4b10      	ldr	r3, [pc, #64]	@ (250a8 <_start+0x1420>)
   25066:	446b      	add	r3, sp
   25068:	930d      	str	r3, [sp, #52]	@ 0x34
   2506a:	c854      	ldmia	r0!, {r2, r4, r6}
   2506c:	c354      	stmia	r3!, {r2, r4, r6}
   2506e:	7800      	ldrb	r0, [r0, #0]
   25070:	7018      	strb	r0, [r3, #0]
   25072:	0e08      	lsrs	r0, r1, #24
   25074:	71a8      	strb	r0, [r5, #6]
   25076:	0c08      	lsrs	r0, r1, #16
   25078:	7168      	strb	r0, [r5, #5]
   2507a:	0a08      	lsrs	r0, r1, #8
   2507c:	7128      	strb	r0, [r5, #4]
   2507e:	70e9      	strb	r1, [r5, #3]
   25080:	1de8      	adds	r0, r5, #7
   25082:	220d      	movs	r2, #13
   25084:	990d      	ldr	r1, [sp, #52]	@ 0x34
   25086:	f001 fe06 	bl	26c96 <__aeabi_memcpy>
   2508a:	4c05      	ldr	r4, [pc, #20]	@ (250a0 <_start+0x1418>)
   2508c:	446c      	add	r4, sp
   2508e:	4620      	mov	r0, r4
   25090:	4629      	mov	r1, r5
   25092:	f7fb fb1f 	bl	206d4 <_ZN20complex_full_dynamic3app17h22a4e59418370badE>
   25096:	7820      	ldrb	r0, [r4, #0]
   25098:	2801      	cmp	r0, #1
   2509a:	d107      	bne.n	250ac <_start+0x1424>
   2509c:	f7ff f959 	bl	24352 <_start+0x6ca>
   250a0:	0000140c 	.word	0x0000140c
   250a4:	00000730 	.word	0x00000730
   250a8:	000013b0 	.word	0x000013b0
   250ac:	4816      	ldr	r0, [pc, #88]	@ (25108 <_start+0x1480>)
   250ae:	4468      	add	r0, sp
   250b0:	78c1      	ldrb	r1, [r0, #3]
   250b2:	4d16      	ldr	r5, [pc, #88]	@ (2510c <_start+0x1484>)
   250b4:	446d      	add	r5, sp
   250b6:	70a9      	strb	r1, [r5, #2]
   250b8:	7841      	ldrb	r1, [r0, #1]
   250ba:	7882      	ldrb	r2, [r0, #2]
   250bc:	0212      	lsls	r2, r2, #8
   250be:	1851      	adds	r1, r2, r1
   250c0:	8029      	strh	r1, [r5, #0]
   250c2:	3008      	adds	r0, #8
   250c4:	9909      	ldr	r1, [sp, #36]	@ 0x24
   250c6:	6e09      	ldr	r1, [r1, #96]	@ 0x60
   250c8:	4b11      	ldr	r3, [pc, #68]	@ (25110 <_start+0x1488>)
   250ca:	446b      	add	r3, sp
   250cc:	930d      	str	r3, [sp, #52]	@ 0x34
   250ce:	c854      	ldmia	r0!, {r2, r4, r6}
   250d0:	c354      	stmia	r3!, {r2, r4, r6}
   250d2:	c854      	ldmia	r0!, {r2, r4, r6}
   250d4:	c354      	stmia	r3!, {r2, r4, r6}
   250d6:	c854      	ldmia	r0!, {r2, r4, r6}
   250d8:	c354      	stmia	r3!, {r2, r4, r6}
   250da:	0e08      	lsrs	r0, r1, #24
   250dc:	71a8      	strb	r0, [r5, #6]
   250de:	0c08      	lsrs	r0, r1, #16
   250e0:	7168      	strb	r0, [r5, #5]
   250e2:	0a08      	lsrs	r0, r1, #8
   250e4:	7128      	strb	r0, [r5, #4]
   250e6:	70e9      	strb	r1, [r5, #3]
   250e8:	1de8      	adds	r0, r5, #7
   250ea:	2224      	movs	r2, #36	@ 0x24
   250ec:	990d      	ldr	r1, [sp, #52]	@ 0x34
   250ee:	f001 fdd2 	bl	26c96 <__aeabi_memcpy>
   250f2:	4c05      	ldr	r4, [pc, #20]	@ (25108 <_start+0x1480>)
   250f4:	446c      	add	r4, sp
   250f6:	4620      	mov	r0, r4
   250f8:	4629      	mov	r1, r5
   250fa:	f7fd f82d 	bl	22158 <_ZN20complex_full_dynamic3app17h76c6dc9053e49d0dE>
   250fe:	7820      	ldrb	r0, [r4, #0]
   25100:	2801      	cmp	r0, #1
   25102:	d107      	bne.n	25114 <_start+0x148c>
   25104:	f7ff f925 	bl	24352 <_start+0x6ca>
   25108:	0000140c 	.word	0x0000140c
   2510c:	00000744 	.word	0x00000744
   25110:	000013b0 	.word	0x000013b0
   25114:	4817      	ldr	r0, [pc, #92]	@ (25174 <_start+0x14ec>)
   25116:	4468      	add	r0, sp
   25118:	78c1      	ldrb	r1, [r0, #3]
   2511a:	4d17      	ldr	r5, [pc, #92]	@ (25178 <_start+0x14f0>)
   2511c:	446d      	add	r5, sp
   2511e:	70a9      	strb	r1, [r5, #2]
   25120:	7841      	ldrb	r1, [r0, #1]
   25122:	7882      	ldrb	r2, [r0, #2]
   25124:	0212      	lsls	r2, r2, #8
   25126:	1851      	adds	r1, r2, r1
   25128:	8029      	strh	r1, [r5, #0]
   2512a:	3008      	adds	r0, #8
   2512c:	9909      	ldr	r1, [sp, #36]	@ 0x24
   2512e:	6e09      	ldr	r1, [r1, #96]	@ 0x60
   25130:	4b12      	ldr	r3, [pc, #72]	@ (2517c <_start+0x14f4>)
   25132:	446b      	add	r3, sp
   25134:	930d      	str	r3, [sp, #52]	@ 0x34
   25136:	c850      	ldmia	r0!, {r4, r6}
   25138:	c350      	stmia	r3!, {r4, r6}
   2513a:	c854      	ldmia	r0!, {r2, r4, r6}
   2513c:	c354      	stmia	r3!, {r2, r4, r6}
   2513e:	8802      	ldrh	r2, [r0, #0]
   25140:	801a      	strh	r2, [r3, #0]
   25142:	7880      	ldrb	r0, [r0, #2]
   25144:	7098      	strb	r0, [r3, #2]
   25146:	0e08      	lsrs	r0, r1, #24
   25148:	71a8      	strb	r0, [r5, #6]
   2514a:	0c08      	lsrs	r0, r1, #16
   2514c:	7168      	strb	r0, [r5, #5]
   2514e:	0a08      	lsrs	r0, r1, #8
   25150:	7128      	strb	r0, [r5, #4]
   25152:	70e9      	strb	r1, [r5, #3]
   25154:	1de8      	adds	r0, r5, #7
   25156:	2217      	movs	r2, #23
   25158:	990d      	ldr	r1, [sp, #52]	@ 0x34
   2515a:	f001 fd9c 	bl	26c96 <__aeabi_memcpy>
   2515e:	4c05      	ldr	r4, [pc, #20]	@ (25174 <_start+0x14ec>)
   25160:	446c      	add	r4, sp
   25162:	4620      	mov	r0, r4
   25164:	4629      	mov	r1, r5
   25166:	f7fa ffe1 	bl	2012c <_ZN20complex_full_dynamic3app17h0035837018d9dcabE>
   2516a:	7820      	ldrb	r0, [r4, #0]
   2516c:	2801      	cmp	r0, #1
   2516e:	d107      	bne.n	25180 <_start+0x14f8>
   25170:	f7ff f8ef 	bl	24352 <_start+0x6ca>
   25174:	0000140c 	.word	0x0000140c
   25178:	00000770 	.word	0x00000770
   2517c:	000013b0 	.word	0x000013b0
   25180:	4915      	ldr	r1, [pc, #84]	@ (251d8 <_start+0x1550>)
   25182:	4469      	add	r1, sp
   25184:	78c8      	ldrb	r0, [r1, #3]
   25186:	4d15      	ldr	r5, [pc, #84]	@ (251dc <_start+0x1554>)
   25188:	446d      	add	r5, sp
   2518a:	70a8      	strb	r0, [r5, #2]
   2518c:	7848      	ldrb	r0, [r1, #1]
   2518e:	788a      	ldrb	r2, [r1, #2]
   25190:	0212      	lsls	r2, r2, #8
   25192:	1810      	adds	r0, r2, r0
   25194:	8028      	strh	r0, [r5, #0]
   25196:	9809      	ldr	r0, [sp, #36]	@ 0x24
   25198:	6e04      	ldr	r4, [r0, #96]	@ 0x60
   2519a:	3108      	adds	r1, #8
   2519c:	4810      	ldr	r0, [pc, #64]	@ (251e0 <_start+0x1558>)
   2519e:	4468      	add	r0, sp
   251a0:	900d      	str	r0, [sp, #52]	@ 0x34
   251a2:	264a      	movs	r6, #74	@ 0x4a
   251a4:	4632      	mov	r2, r6
   251a6:	f001 fc16 	bl	269d6 <__aeabi_memcpy4>
   251aa:	0e20      	lsrs	r0, r4, #24
   251ac:	71a8      	strb	r0, [r5, #6]
   251ae:	0c20      	lsrs	r0, r4, #16
   251b0:	7168      	strb	r0, [r5, #5]
   251b2:	0a20      	lsrs	r0, r4, #8
   251b4:	7128      	strb	r0, [r5, #4]
   251b6:	70ec      	strb	r4, [r5, #3]
   251b8:	1de8      	adds	r0, r5, #7
   251ba:	990d      	ldr	r1, [sp, #52]	@ 0x34
   251bc:	4632      	mov	r2, r6
   251be:	f001 fd6a 	bl	26c96 <__aeabi_memcpy>
   251c2:	4c05      	ldr	r4, [pc, #20]	@ (251d8 <_start+0x1550>)
   251c4:	446c      	add	r4, sp
   251c6:	4620      	mov	r0, r4
   251c8:	4629      	mov	r1, r5
   251ca:	f7fc f8d5 	bl	21378 <_ZN20complex_full_dynamic3app17h470ba419047b3f49E>
   251ce:	7820      	ldrb	r0, [r4, #0]
   251d0:	2801      	cmp	r0, #1
   251d2:	d107      	bne.n	251e4 <_start+0x155c>
   251d4:	f7ff f8bd 	bl	24352 <_start+0x6ca>
   251d8:	0000140c 	.word	0x0000140c
   251dc:	00000790 	.word	0x00000790
   251e0:	000013b0 	.word	0x000013b0
   251e4:	9807      	ldr	r0, [sp, #28]
   251e6:	1cc0      	adds	r0, r0, #3
   251e8:	4a16      	ldr	r2, [pc, #88]	@ (25244 <_start+0x15bc>)
   251ea:	446a      	add	r2, sp
   251ec:	78d3      	ldrb	r3, [r2, #3]
   251ee:	4916      	ldr	r1, [pc, #88]	@ (25248 <_start+0x15c0>)
   251f0:	4469      	add	r1, sp
   251f2:	708b      	strb	r3, [r1, #2]
   251f4:	7853      	ldrb	r3, [r2, #1]
   251f6:	7892      	ldrb	r2, [r2, #2]
   251f8:	0212      	lsls	r2, r2, #8
   251fa:	18d2      	adds	r2, r2, r3
   251fc:	800a      	strh	r2, [r1, #0]
   251fe:	9c09      	ldr	r4, [sp, #36]	@ 0x24
   25200:	3460      	adds	r4, #96	@ 0x60
   25202:	cc1c      	ldmia	r4, {r2, r3, r4}
   25204:	0e25      	lsrs	r5, r4, #24
   25206:	72c5      	strb	r5, [r0, #11]
   25208:	0c25      	lsrs	r5, r4, #16
   2520a:	7285      	strb	r5, [r0, #10]
   2520c:	0a25      	lsrs	r5, r4, #8
   2520e:	7245      	strb	r5, [r0, #9]
   25210:	7204      	strb	r4, [r0, #8]
   25212:	0e1c      	lsrs	r4, r3, #24
   25214:	71c4      	strb	r4, [r0, #7]
   25216:	0c1c      	lsrs	r4, r3, #16
   25218:	7184      	strb	r4, [r0, #6]
   2521a:	0a1c      	lsrs	r4, r3, #8
   2521c:	7144      	strb	r4, [r0, #5]
   2521e:	7103      	strb	r3, [r0, #4]
   25220:	0e13      	lsrs	r3, r2, #24
   25222:	70c3      	strb	r3, [r0, #3]
   25224:	0c13      	lsrs	r3, r2, #16
   25226:	7083      	strb	r3, [r0, #2]
   25228:	0a13      	lsrs	r3, r2, #8
   2522a:	7043      	strb	r3, [r0, #1]
   2522c:	7002      	strb	r2, [r0, #0]
   2522e:	4c05      	ldr	r4, [pc, #20]	@ (25244 <_start+0x15bc>)
   25230:	446c      	add	r4, sp
   25232:	4620      	mov	r0, r4
   25234:	f7fb f9fe 	bl	20634 <_ZN20complex_full_dynamic3app17h219e9f9621a953caE>
   25238:	7820      	ldrb	r0, [r4, #0]
   2523a:	2801      	cmp	r0, #1
   2523c:	d106      	bne.n	2524c <_start+0x15c4>
   2523e:	f7ff f888 	bl	24352 <_start+0x6ca>
   25242:	46c0      	nop			@ (mov r8, r8)
   25244:	0000140c 	.word	0x0000140c
   25248:	000007e4 	.word	0x000007e4
   2524c:	481a      	ldr	r0, [pc, #104]	@ (252b8 <_start+0x1630>)
   2524e:	4468      	add	r0, sp
   25250:	78c1      	ldrb	r1, [r0, #3]
   25252:	4d1a      	ldr	r5, [pc, #104]	@ (252bc <_start+0x1634>)
   25254:	446d      	add	r5, sp
   25256:	70a9      	strb	r1, [r5, #2]
   25258:	7841      	ldrb	r1, [r0, #1]
   2525a:	7882      	ldrb	r2, [r0, #2]
   2525c:	0212      	lsls	r2, r2, #8
   2525e:	1851      	adds	r1, r2, r1
   25260:	8029      	strh	r1, [r5, #0]
   25262:	3008      	adds	r0, #8
   25264:	9909      	ldr	r1, [sp, #36]	@ 0x24
   25266:	6e09      	ldr	r1, [r1, #96]	@ 0x60
   25268:	910c      	str	r1, [sp, #48]	@ 0x30
   2526a:	4b15      	ldr	r3, [pc, #84]	@ (252c0 <_start+0x1638>)
   2526c:	446b      	add	r3, sp
   2526e:	930d      	str	r3, [sp, #52]	@ 0x34
   25270:	c854      	ldmia	r0!, {r2, r4, r6}
   25272:	c354      	stmia	r3!, {r2, r4, r6}
   25274:	c856      	ldmia	r0!, {r1, r2, r4, r6}
   25276:	c356      	stmia	r3!, {r1, r2, r4, r6}
   25278:	c856      	ldmia	r0!, {r1, r2, r4, r6}
   2527a:	c356      	stmia	r3!, {r1, r2, r4, r6}
   2527c:	c856      	ldmia	r0!, {r1, r2, r4, r6}
   2527e:	c356      	stmia	r3!, {r1, r2, r4, r6}
   25280:	8801      	ldrh	r1, [r0, #0]
   25282:	8019      	strh	r1, [r3, #0]
   25284:	7880      	ldrb	r0, [r0, #2]
   25286:	7098      	strb	r0, [r3, #2]
   25288:	990c      	ldr	r1, [sp, #48]	@ 0x30
   2528a:	0e08      	lsrs	r0, r1, #24
   2528c:	71a8      	strb	r0, [r5, #6]
   2528e:	0c08      	lsrs	r0, r1, #16
   25290:	7168      	strb	r0, [r5, #5]
   25292:	0a08      	lsrs	r0, r1, #8
   25294:	7128      	strb	r0, [r5, #4]
   25296:	70e9      	strb	r1, [r5, #3]
   25298:	1de8      	adds	r0, r5, #7
   2529a:	223f      	movs	r2, #63	@ 0x3f
   2529c:	990d      	ldr	r1, [sp, #52]	@ 0x34
   2529e:	f001 fcfa 	bl	26c96 <__aeabi_memcpy>
   252a2:	4c05      	ldr	r4, [pc, #20]	@ (252b8 <_start+0x1630>)
   252a4:	446c      	add	r4, sp
   252a6:	4620      	mov	r0, r4
   252a8:	4629      	mov	r1, r5
   252aa:	f7fb f921 	bl	204f0 <_ZN20complex_full_dynamic3app17h1d1ab2a04e26685bE>
   252ae:	7820      	ldrb	r0, [r4, #0]
   252b0:	2801      	cmp	r0, #1
   252b2:	d107      	bne.n	252c4 <_start+0x163c>
   252b4:	f7ff f84d 	bl	24352 <_start+0x6ca>
   252b8:	0000140c 	.word	0x0000140c
   252bc:	000007f4 	.word	0x000007f4
   252c0:	000013b0 	.word	0x000013b0
   252c4:	4915      	ldr	r1, [pc, #84]	@ (2531c <_start+0x1694>)
   252c6:	4469      	add	r1, sp
   252c8:	78c8      	ldrb	r0, [r1, #3]
   252ca:	4d15      	ldr	r5, [pc, #84]	@ (25320 <_start+0x1698>)
   252cc:	446d      	add	r5, sp
   252ce:	70a8      	strb	r0, [r5, #2]
   252d0:	7848      	ldrb	r0, [r1, #1]
   252d2:	788a      	ldrb	r2, [r1, #2]
   252d4:	0212      	lsls	r2, r2, #8
   252d6:	1810      	adds	r0, r2, r0
   252d8:	8028      	strh	r0, [r5, #0]
   252da:	9809      	ldr	r0, [sp, #36]	@ 0x24
   252dc:	6e04      	ldr	r4, [r0, #96]	@ 0x60
   252de:	3108      	adds	r1, #8
   252e0:	4810      	ldr	r0, [pc, #64]	@ (25324 <_start+0x169c>)
   252e2:	4468      	add	r0, sp
   252e4:	900d      	str	r0, [sp, #52]	@ 0x34
   252e6:	264f      	movs	r6, #79	@ 0x4f
   252e8:	4632      	mov	r2, r6
   252ea:	f001 fb74 	bl	269d6 <__aeabi_memcpy4>
   252ee:	0e20      	lsrs	r0, r4, #24
   252f0:	71a8      	strb	r0, [r5, #6]
   252f2:	0c20      	lsrs	r0, r4, #16
   252f4:	7168      	strb	r0, [r5, #5]
   252f6:	0a20      	lsrs	r0, r4, #8
   252f8:	7128      	strb	r0, [r5, #4]
   252fa:	70ec      	strb	r4, [r5, #3]
   252fc:	1de8      	adds	r0, r5, #7
   252fe:	990d      	ldr	r1, [sp, #52]	@ 0x34
   25300:	4632      	mov	r2, r6
   25302:	f001 fcc8 	bl	26c96 <__aeabi_memcpy>
   25306:	4c05      	ldr	r4, [pc, #20]	@ (2531c <_start+0x1694>)
   25308:	446c      	add	r4, sp
   2530a:	4620      	mov	r0, r4
   2530c:	4629      	mov	r1, r5
   2530e:	f7fd f95b 	bl	225c8 <_ZN20complex_full_dynamic3app17h8634bc976da4e826E>
   25312:	7820      	ldrb	r0, [r4, #0]
   25314:	2801      	cmp	r0, #1
   25316:	d107      	bne.n	25328 <_start+0x16a0>
   25318:	f7ff f81b 	bl	24352 <_start+0x6ca>
   2531c:	0000140c 	.word	0x0000140c
   25320:	0000083c 	.word	0x0000083c
   25324:	000013b0 	.word	0x000013b0
   25328:	4915      	ldr	r1, [pc, #84]	@ (25380 <_start+0x16f8>)
   2532a:	4469      	add	r1, sp
   2532c:	78c8      	ldrb	r0, [r1, #3]
   2532e:	4d15      	ldr	r5, [pc, #84]	@ (25384 <_start+0x16fc>)
   25330:	446d      	add	r5, sp
   25332:	70a8      	strb	r0, [r5, #2]
   25334:	7848      	ldrb	r0, [r1, #1]
   25336:	788a      	ldrb	r2, [r1, #2]
   25338:	0212      	lsls	r2, r2, #8
   2533a:	1810      	adds	r0, r2, r0
   2533c:	8028      	strh	r0, [r5, #0]
   2533e:	9809      	ldr	r0, [sp, #36]	@ 0x24
   25340:	6e04      	ldr	r4, [r0, #96]	@ 0x60
   25342:	3108      	adds	r1, #8
   25344:	4810      	ldr	r0, [pc, #64]	@ (25388 <_start+0x1700>)
   25346:	4468      	add	r0, sp
   25348:	900d      	str	r0, [sp, #52]	@ 0x34
   2534a:	2642      	movs	r6, #66	@ 0x42
   2534c:	4632      	mov	r2, r6
   2534e:	f001 fb42 	bl	269d6 <__aeabi_memcpy4>
   25352:	0e20      	lsrs	r0, r4, #24
   25354:	71a8      	strb	r0, [r5, #6]
   25356:	0c20      	lsrs	r0, r4, #16
   25358:	7168      	strb	r0, [r5, #5]
   2535a:	0a20      	lsrs	r0, r4, #8
   2535c:	7128      	strb	r0, [r5, #4]
   2535e:	70ec      	strb	r4, [r5, #3]
   25360:	1de8      	adds	r0, r5, #7
   25362:	990d      	ldr	r1, [sp, #52]	@ 0x34
   25364:	4632      	mov	r2, r6
   25366:	f001 fc96 	bl	26c96 <__aeabi_memcpy>
   2536a:	4c05      	ldr	r4, [pc, #20]	@ (25380 <_start+0x16f8>)
   2536c:	446c      	add	r4, sp
   2536e:	4620      	mov	r0, r4
   25370:	4629      	mov	r1, r5
   25372:	f7fa ff2b 	bl	201cc <_ZN20complex_full_dynamic3app17h091bfc13976c8db8E>
   25376:	7820      	ldrb	r0, [r4, #0]
   25378:	2801      	cmp	r0, #1
   2537a:	d107      	bne.n	2538c <_start+0x1704>
   2537c:	f7fe ffe9 	bl	24352 <_start+0x6ca>
   25380:	0000140c 	.word	0x0000140c
   25384:	00000894 	.word	0x00000894
   25388:	000013b0 	.word	0x000013b0
   2538c:	4816      	ldr	r0, [pc, #88]	@ (253e8 <_start+0x1760>)
   2538e:	4468      	add	r0, sp
   25390:	78c1      	ldrb	r1, [r0, #3]
   25392:	4d16      	ldr	r5, [pc, #88]	@ (253ec <_start+0x1764>)
   25394:	446d      	add	r5, sp
   25396:	70a9      	strb	r1, [r5, #2]
   25398:	7841      	ldrb	r1, [r0, #1]
   2539a:	7882      	ldrb	r2, [r0, #2]
   2539c:	0212      	lsls	r2, r2, #8
   2539e:	1851      	adds	r1, r2, r1
   253a0:	8029      	strh	r1, [r5, #0]
   253a2:	3008      	adds	r0, #8
   253a4:	9909      	ldr	r1, [sp, #36]	@ 0x24
   253a6:	6e09      	ldr	r1, [r1, #96]	@ 0x60
   253a8:	910c      	str	r1, [sp, #48]	@ 0x30
   253aa:	4b11      	ldr	r3, [pc, #68]	@ (253f0 <_start+0x1768>)
   253ac:	446b      	add	r3, sp
   253ae:	930d      	str	r3, [sp, #52]	@ 0x34
   253b0:	c854      	ldmia	r0!, {r2, r4, r6}
   253b2:	c354      	stmia	r3!, {r2, r4, r6}
   253b4:	c856      	ldmia	r0!, {r1, r2, r4, r6}
   253b6:	c356      	stmia	r3!, {r1, r2, r4, r6}
   253b8:	990c      	ldr	r1, [sp, #48]	@ 0x30
   253ba:	0e08      	lsrs	r0, r1, #24
   253bc:	71a8      	strb	r0, [r5, #6]
   253be:	0c08      	lsrs	r0, r1, #16
   253c0:	7168      	strb	r0, [r5, #5]
   253c2:	0a08      	lsrs	r0, r1, #8
   253c4:	7128      	strb	r0, [r5, #4]
   253c6:	70e9      	strb	r1, [r5, #3]
   253c8:	1de8      	adds	r0, r5, #7
   253ca:	221c      	movs	r2, #28
   253cc:	990d      	ldr	r1, [sp, #52]	@ 0x34
   253ce:	f001 fc62 	bl	26c96 <__aeabi_memcpy>
   253d2:	4c05      	ldr	r4, [pc, #20]	@ (253e8 <_start+0x1760>)
   253d4:	446c      	add	r4, sp
   253d6:	4620      	mov	r0, r4
   253d8:	4629      	mov	r1, r5
   253da:	f7fd fe01 	bl	22fe0 <_ZN20complex_full_dynamic3app17hc6f4002819f8203cE>
   253de:	7820      	ldrb	r0, [r4, #0]
   253e0:	2801      	cmp	r0, #1
   253e2:	d107      	bne.n	253f4 <_start+0x176c>
   253e4:	f7fe ffb5 	bl	24352 <_start+0x6ca>
   253e8:	0000140c 	.word	0x0000140c
   253ec:	000008e0 	.word	0x000008e0
   253f0:	000013b0 	.word	0x000013b0
   253f4:	4816      	ldr	r0, [pc, #88]	@ (25450 <_start+0x17c8>)
   253f6:	4468      	add	r0, sp
   253f8:	78c1      	ldrb	r1, [r0, #3]
   253fa:	4d16      	ldr	r5, [pc, #88]	@ (25454 <_start+0x17cc>)
   253fc:	446d      	add	r5, sp
   253fe:	70a9      	strb	r1, [r5, #2]
   25400:	7841      	ldrb	r1, [r0, #1]
   25402:	7882      	ldrb	r2, [r0, #2]
   25404:	0212      	lsls	r2, r2, #8
   25406:	1851      	adds	r1, r2, r1
   25408:	8029      	strh	r1, [r5, #0]
   2540a:	3008      	adds	r0, #8
   2540c:	9909      	ldr	r1, [sp, #36]	@ 0x24
   2540e:	6e09      	ldr	r1, [r1, #96]	@ 0x60
   25410:	4b11      	ldr	r3, [pc, #68]	@ (25458 <_start+0x17d0>)
   25412:	446b      	add	r3, sp
   25414:	930d      	str	r3, [sp, #52]	@ 0x34
   25416:	c854      	ldmia	r0!, {r2, r4, r6}
   25418:	c354      	stmia	r3!, {r2, r4, r6}
   2541a:	c854      	ldmia	r0!, {r2, r4, r6}
   2541c:	c354      	stmia	r3!, {r2, r4, r6}
   2541e:	c854      	ldmia	r0!, {r2, r4, r6}
   25420:	c354      	stmia	r3!, {r2, r4, r6}
   25422:	0e08      	lsrs	r0, r1, #24
   25424:	71a8      	strb	r0, [r5, #6]
   25426:	0c08      	lsrs	r0, r1, #16
   25428:	7168      	strb	r0, [r5, #5]
   2542a:	0a08      	lsrs	r0, r1, #8
   2542c:	7128      	strb	r0, [r5, #4]
   2542e:	70e9      	strb	r1, [r5, #3]
   25430:	1de8      	adds	r0, r5, #7
   25432:	2224      	movs	r2, #36	@ 0x24
   25434:	990d      	ldr	r1, [sp, #52]	@ 0x34
   25436:	f001 fc2e 	bl	26c96 <__aeabi_memcpy>
   2543a:	4c05      	ldr	r4, [pc, #20]	@ (25450 <_start+0x17c8>)
   2543c:	446c      	add	r4, sp
   2543e:	4620      	mov	r0, r4
   25440:	4629      	mov	r1, r5
   25442:	f7fc fd47 	bl	21ed4 <_ZN20complex_full_dynamic3app17h73261716de86d898E>
   25446:	7820      	ldrb	r0, [r4, #0]
   25448:	2801      	cmp	r0, #1
   2544a:	d107      	bne.n	2545c <_start+0x17d4>
   2544c:	f7fe ff81 	bl	24352 <_start+0x6ca>
   25450:	0000140c 	.word	0x0000140c
   25454:	00000904 	.word	0x00000904
   25458:	000013b0 	.word	0x000013b0
   2545c:	4914      	ldr	r1, [pc, #80]	@ (254b0 <_start+0x1828>)
   2545e:	4469      	add	r1, sp
   25460:	9b09      	ldr	r3, [sp, #36]	@ 0x24
   25462:	6e98      	ldr	r0, [r3, #104]	@ 0x68
   25464:	8088      	strh	r0, [r1, #4]
   25466:	4813      	ldr	r0, [pc, #76]	@ (254b4 <_start+0x182c>)
   25468:	4468      	add	r0, sp
   2546a:	78c2      	ldrb	r2, [r0, #3]
   2546c:	4d12      	ldr	r5, [pc, #72]	@ (254b8 <_start+0x1830>)
   2546e:	446d      	add	r5, sp
   25470:	70aa      	strb	r2, [r5, #2]
   25472:	7842      	ldrb	r2, [r0, #1]
   25474:	7880      	ldrb	r0, [r0, #2]
   25476:	0200      	lsls	r0, r0, #8
   25478:	1880      	adds	r0, r0, r2
   2547a:	8028      	strh	r0, [r5, #0]
   2547c:	6e18      	ldr	r0, [r3, #96]	@ 0x60
   2547e:	70e8      	strb	r0, [r5, #3]
   25480:	0e02      	lsrs	r2, r0, #24
   25482:	71aa      	strb	r2, [r5, #6]
   25484:	0c02      	lsrs	r2, r0, #16
   25486:	716a      	strb	r2, [r5, #5]
   25488:	0a00      	lsrs	r0, r0, #8
   2548a:	7128      	strb	r0, [r5, #4]
   2548c:	6e58      	ldr	r0, [r3, #100]	@ 0x64
   2548e:	6018      	str	r0, [r3, #0]
   25490:	1de8      	adds	r0, r5, #7
   25492:	2206      	movs	r2, #6
   25494:	f001 fbff 	bl	26c96 <__aeabi_memcpy>
   25498:	4c06      	ldr	r4, [pc, #24]	@ (254b4 <_start+0x182c>)
   2549a:	446c      	add	r4, sp
   2549c:	4620      	mov	r0, r4
   2549e:	4629      	mov	r1, r5
   254a0:	f7fe fb50 	bl	23b44 <_ZN20complex_full_dynamic3app17hff3701f4cb4613d5E>
   254a4:	7820      	ldrb	r0, [r4, #0]
   254a6:	2801      	cmp	r0, #1
   254a8:	d108      	bne.n	254bc <_start+0x1834>
   254aa:	f7fe ff52 	bl	24352 <_start+0x6ca>
   254ae:	46c0      	nop			@ (mov r8, r8)
   254b0:	000013b0 	.word	0x000013b0
   254b4:	0000140c 	.word	0x0000140c
   254b8:	00000930 	.word	0x00000930
   254bc:	4816      	ldr	r0, [pc, #88]	@ (25518 <_start+0x1890>)
   254be:	4468      	add	r0, sp
   254c0:	78c1      	ldrb	r1, [r0, #3]
   254c2:	4d16      	ldr	r5, [pc, #88]	@ (2551c <_start+0x1894>)
   254c4:	446d      	add	r5, sp
   254c6:	70a9      	strb	r1, [r5, #2]
   254c8:	7841      	ldrb	r1, [r0, #1]
   254ca:	7882      	ldrb	r2, [r0, #2]
   254cc:	0212      	lsls	r2, r2, #8
   254ce:	1851      	adds	r1, r2, r1
   254d0:	8029      	strh	r1, [r5, #0]
   254d2:	3008      	adds	r0, #8
   254d4:	9909      	ldr	r1, [sp, #36]	@ 0x24
   254d6:	6e09      	ldr	r1, [r1, #96]	@ 0x60
   254d8:	4b11      	ldr	r3, [pc, #68]	@ (25520 <_start+0x1898>)
   254da:	446b      	add	r3, sp
   254dc:	930d      	str	r3, [sp, #52]	@ 0x34
   254de:	c854      	ldmia	r0!, {r2, r4, r6}
   254e0:	c354      	stmia	r3!, {r2, r4, r6}
   254e2:	c854      	ldmia	r0!, {r2, r4, r6}
   254e4:	c354      	stmia	r3!, {r2, r4, r6}
   254e6:	8800      	ldrh	r0, [r0, #0]
   254e8:	8018      	strh	r0, [r3, #0]
   254ea:	0e08      	lsrs	r0, r1, #24
   254ec:	71a8      	strb	r0, [r5, #6]
   254ee:	0c08      	lsrs	r0, r1, #16
   254f0:	7168      	strb	r0, [r5, #5]
   254f2:	0a08      	lsrs	r0, r1, #8
   254f4:	7128      	strb	r0, [r5, #4]
   254f6:	70e9      	strb	r1, [r5, #3]
   254f8:	1de8      	adds	r0, r5, #7
   254fa:	221a      	movs	r2, #26
   254fc:	990d      	ldr	r1, [sp, #52]	@ 0x34
   254fe:	f001 fbca 	bl	26c96 <__aeabi_memcpy>
   25502:	4c05      	ldr	r4, [pc, #20]	@ (25518 <_start+0x1890>)
   25504:	446c      	add	r4, sp
   25506:	4620      	mov	r0, r4
   25508:	4629      	mov	r1, r5
   2550a:	f7fb f935 	bl	20778 <_ZN20complex_full_dynamic3app17h235b30895d87566eE>
   2550e:	7820      	ldrb	r0, [r4, #0]
   25510:	2801      	cmp	r0, #1
   25512:	d107      	bne.n	25524 <_start+0x189c>
   25514:	f7fe ff1d 	bl	24352 <_start+0x6ca>
   25518:	0000140c 	.word	0x0000140c
   2551c:	00000940 	.word	0x00000940
   25520:	000013b0 	.word	0x000013b0
   25524:	4915      	ldr	r1, [pc, #84]	@ (2557c <_start+0x18f4>)
   25526:	4469      	add	r1, sp
   25528:	78c8      	ldrb	r0, [r1, #3]
   2552a:	4d15      	ldr	r5, [pc, #84]	@ (25580 <_start+0x18f8>)
   2552c:	446d      	add	r5, sp
   2552e:	70a8      	strb	r0, [r5, #2]
   25530:	7848      	ldrb	r0, [r1, #1]
   25532:	788a      	ldrb	r2, [r1, #2]
   25534:	0212      	lsls	r2, r2, #8
   25536:	1810      	adds	r0, r2, r0
   25538:	8028      	strh	r0, [r5, #0]
   2553a:	9809      	ldr	r0, [sp, #36]	@ 0x24
   2553c:	6e04      	ldr	r4, [r0, #96]	@ 0x60
   2553e:	3108      	adds	r1, #8
   25540:	4810      	ldr	r0, [pc, #64]	@ (25584 <_start+0x18fc>)
   25542:	4468      	add	r0, sp
   25544:	900d      	str	r0, [sp, #52]	@ 0x34
   25546:	264c      	movs	r6, #76	@ 0x4c
   25548:	4632      	mov	r2, r6
   2554a:	f001 fa44 	bl	269d6 <__aeabi_memcpy4>
   2554e:	0e20      	lsrs	r0, r4, #24
   25550:	71a8      	strb	r0, [r5, #6]
   25552:	0c20      	lsrs	r0, r4, #16
   25554:	7168      	strb	r0, [r5, #5]
   25556:	0a20      	lsrs	r0, r4, #8
   25558:	7128      	strb	r0, [r5, #4]
   2555a:	70ec      	strb	r4, [r5, #3]
   2555c:	1de8      	adds	r0, r5, #7
   2555e:	990d      	ldr	r1, [sp, #52]	@ 0x34
   25560:	4632      	mov	r2, r6
   25562:	f001 fb98 	bl	26c96 <__aeabi_memcpy>
   25566:	4c05      	ldr	r4, [pc, #20]	@ (2557c <_start+0x18f4>)
   25568:	446c      	add	r4, sp
   2556a:	4620      	mov	r0, r4
   2556c:	4629      	mov	r1, r5
   2556e:	f7fb f9f5 	bl	2095c <_ZN20complex_full_dynamic3app17h24d716ba07317615E>
   25572:	7820      	ldrb	r0, [r4, #0]
   25574:	2801      	cmp	r0, #1
   25576:	d107      	bne.n	25588 <_start+0x1900>
   25578:	f7fe feeb 	bl	24352 <_start+0x6ca>
   2557c:	0000140c 	.word	0x0000140c
   25580:	00000964 	.word	0x00000964
   25584:	000013b0 	.word	0x000013b0
   25588:	4915      	ldr	r1, [pc, #84]	@ (255e0 <_start+0x1958>)
   2558a:	4469      	add	r1, sp
   2558c:	78c8      	ldrb	r0, [r1, #3]
   2558e:	4d15      	ldr	r5, [pc, #84]	@ (255e4 <_start+0x195c>)
   25590:	446d      	add	r5, sp
   25592:	70a8      	strb	r0, [r5, #2]
   25594:	7848      	ldrb	r0, [r1, #1]
   25596:	788a      	ldrb	r2, [r1, #2]
   25598:	0212      	lsls	r2, r2, #8
   2559a:	1810      	adds	r0, r2, r0
   2559c:	8028      	strh	r0, [r5, #0]
   2559e:	9809      	ldr	r0, [sp, #36]	@ 0x24
   255a0:	6e04      	ldr	r4, [r0, #96]	@ 0x60
   255a2:	3108      	adds	r1, #8
   255a4:	4810      	ldr	r0, [pc, #64]	@ (255e8 <_start+0x1960>)
   255a6:	4468      	add	r0, sp
   255a8:	900d      	str	r0, [sp, #52]	@ 0x34
   255aa:	2646      	movs	r6, #70	@ 0x46
   255ac:	4632      	mov	r2, r6
   255ae:	f001 fa12 	bl	269d6 <__aeabi_memcpy4>
   255b2:	0e20      	lsrs	r0, r4, #24
   255b4:	71a8      	strb	r0, [r5, #6]
   255b6:	0c20      	lsrs	r0, r4, #16
   255b8:	7168      	strb	r0, [r5, #5]
   255ba:	0a20      	lsrs	r0, r4, #8
   255bc:	7128      	strb	r0, [r5, #4]
   255be:	70ec      	strb	r4, [r5, #3]
   255c0:	1de8      	adds	r0, r5, #7
   255c2:	990d      	ldr	r1, [sp, #52]	@ 0x34
   255c4:	4632      	mov	r2, r6
   255c6:	f001 fb66 	bl	26c96 <__aeabi_memcpy>
   255ca:	4c05      	ldr	r4, [pc, #20]	@ (255e0 <_start+0x1958>)
   255cc:	446c      	add	r4, sp
   255ce:	4620      	mov	r0, r4
   255d0:	4629      	mov	r1, r5
   255d2:	f7fd f8eb 	bl	227ac <_ZN20complex_full_dynamic3app17h8bc01bacd4822f07E>
   255d6:	7820      	ldrb	r0, [r4, #0]
   255d8:	2801      	cmp	r0, #1
   255da:	d107      	bne.n	255ec <_start+0x1964>
   255dc:	f7fe feb9 	bl	24352 <_start+0x6ca>
   255e0:	0000140c 	.word	0x0000140c
   255e4:	000009b8 	.word	0x000009b8
   255e8:	000013b0 	.word	0x000013b0
   255ec:	4819      	ldr	r0, [pc, #100]	@ (25654 <_start+0x19cc>)
   255ee:	4468      	add	r0, sp
   255f0:	78c1      	ldrb	r1, [r0, #3]
   255f2:	4d19      	ldr	r5, [pc, #100]	@ (25658 <_start+0x19d0>)
   255f4:	446d      	add	r5, sp
   255f6:	70a9      	strb	r1, [r5, #2]
   255f8:	7841      	ldrb	r1, [r0, #1]
   255fa:	7882      	ldrb	r2, [r0, #2]
   255fc:	0212      	lsls	r2, r2, #8
   255fe:	1851      	adds	r1, r2, r1
   25600:	8029      	strh	r1, [r5, #0]
   25602:	3008      	adds	r0, #8
   25604:	9909      	ldr	r1, [sp, #36]	@ 0x24
   25606:	6e09      	ldr	r1, [r1, #96]	@ 0x60
   25608:	910c      	str	r1, [sp, #48]	@ 0x30
   2560a:	4b14      	ldr	r3, [pc, #80]	@ (2565c <_start+0x19d4>)
   2560c:	446b      	add	r3, sp
   2560e:	930d      	str	r3, [sp, #52]	@ 0x34
   25610:	c854      	ldmia	r0!, {r2, r4, r6}
   25612:	c354      	stmia	r3!, {r2, r4, r6}
   25614:	c854      	ldmia	r0!, {r2, r4, r6}
   25616:	c354      	stmia	r3!, {r2, r4, r6}
   25618:	c854      	ldmia	r0!, {r2, r4, r6}
   2561a:	c354      	stmia	r3!, {r2, r4, r6}
   2561c:	c856      	ldmia	r0!, {r1, r2, r4, r6}
   2561e:	c356      	stmia	r3!, {r1, r2, r4, r6}
   25620:	7800      	ldrb	r0, [r0, #0]
   25622:	7018      	strb	r0, [r3, #0]
   25624:	990c      	ldr	r1, [sp, #48]	@ 0x30
   25626:	0e08      	lsrs	r0, r1, #24
   25628:	71a8      	strb	r0, [r5, #6]
   2562a:	0c08      	lsrs	r0, r1, #16
   2562c:	7168      	strb	r0, [r5, #5]
   2562e:	0a08      	lsrs	r0, r1, #8
   25630:	7128      	strb	r0, [r5, #4]
   25632:	70e9      	strb	r1, [r5, #3]
   25634:	1de8      	adds	r0, r5, #7
   25636:	2235      	movs	r2, #53	@ 0x35
   25638:	990d      	ldr	r1, [sp, #52]	@ 0x34
   2563a:	f001 fb2c 	bl	26c96 <__aeabi_memcpy>
   2563e:	4c05      	ldr	r4, [pc, #20]	@ (25654 <_start+0x19cc>)
   25640:	446c      	add	r4, sp
   25642:	4620      	mov	r0, r4
   25644:	4629      	mov	r1, r5
   25646:	f7fc fc97 	bl	21f78 <_ZN20complex_full_dynamic3app17h7345240651b2f084E>
   2564a:	7820      	ldrb	r0, [r4, #0]
   2564c:	2801      	cmp	r0, #1
   2564e:	d107      	bne.n	25660 <_start+0x19d8>
   25650:	f7fe fe7f 	bl	24352 <_start+0x6ca>
   25654:	0000140c 	.word	0x0000140c
   25658:	00000a08 	.word	0x00000a08
   2565c:	000013b0 	.word	0x000013b0
   25660:	4818      	ldr	r0, [pc, #96]	@ (256c4 <_start+0x1a3c>)
   25662:	4468      	add	r0, sp
   25664:	78c1      	ldrb	r1, [r0, #3]
   25666:	4d18      	ldr	r5, [pc, #96]	@ (256c8 <_start+0x1a40>)
   25668:	446d      	add	r5, sp
   2566a:	70a9      	strb	r1, [r5, #2]
   2566c:	7841      	ldrb	r1, [r0, #1]
   2566e:	7882      	ldrb	r2, [r0, #2]
   25670:	0212      	lsls	r2, r2, #8
   25672:	1851      	adds	r1, r2, r1
   25674:	8029      	strh	r1, [r5, #0]
   25676:	3008      	adds	r0, #8
   25678:	9909      	ldr	r1, [sp, #36]	@ 0x24
   2567a:	6e09      	ldr	r1, [r1, #96]	@ 0x60
   2567c:	910c      	str	r1, [sp, #48]	@ 0x30
   2567e:	4b13      	ldr	r3, [pc, #76]	@ (256cc <_start+0x1a44>)
   25680:	446b      	add	r3, sp
   25682:	930d      	str	r3, [sp, #52]	@ 0x34
   25684:	c856      	ldmia	r0!, {r1, r2, r4, r6}
   25686:	c356      	stmia	r3!, {r1, r2, r4, r6}
   25688:	c856      	ldmia	r0!, {r1, r2, r4, r6}
   2568a:	c356      	stmia	r3!, {r1, r2, r4, r6}
   2568c:	c856      	ldmia	r0!, {r1, r2, r4, r6}
   2568e:	c356      	stmia	r3!, {r1, r2, r4, r6}
   25690:	7800      	ldrb	r0, [r0, #0]
   25692:	7018      	strb	r0, [r3, #0]
   25694:	990c      	ldr	r1, [sp, #48]	@ 0x30
   25696:	0e08      	lsrs	r0, r1, #24
   25698:	71a8      	strb	r0, [r5, #6]
   2569a:	0c08      	lsrs	r0, r1, #16
   2569c:	7168      	strb	r0, [r5, #5]
   2569e:	0a08      	lsrs	r0, r1, #8
   256a0:	7128      	strb	r0, [r5, #4]
   256a2:	70e9      	strb	r1, [r5, #3]
   256a4:	1de8      	adds	r0, r5, #7
   256a6:	2231      	movs	r2, #49	@ 0x31
   256a8:	990d      	ldr	r1, [sp, #52]	@ 0x34
   256aa:	f001 faf4 	bl	26c96 <__aeabi_memcpy>
   256ae:	4c05      	ldr	r4, [pc, #20]	@ (256c4 <_start+0x1a3c>)
   256b0:	446c      	add	r4, sp
   256b2:	4620      	mov	r0, r4
   256b4:	4629      	mov	r1, r5
   256b6:	f7fd f829 	bl	2270c <_ZN20complex_full_dynamic3app17h8a7994b3b246d72dE>
   256ba:	7820      	ldrb	r0, [r4, #0]
   256bc:	2801      	cmp	r0, #1
   256be:	d107      	bne.n	256d0 <_start+0x1a48>
   256c0:	f7fe fe47 	bl	24352 <_start+0x6ca>
   256c4:	0000140c 	.word	0x0000140c
   256c8:	00000a44 	.word	0x00000a44
   256cc:	000013b0 	.word	0x000013b0
   256d0:	4816      	ldr	r0, [pc, #88]	@ (2572c <_start+0x1aa4>)
   256d2:	4468      	add	r0, sp
   256d4:	78c1      	ldrb	r1, [r0, #3]
   256d6:	4d16      	ldr	r5, [pc, #88]	@ (25730 <_start+0x1aa8>)
   256d8:	446d      	add	r5, sp
   256da:	70a9      	strb	r1, [r5, #2]
   256dc:	7841      	ldrb	r1, [r0, #1]
   256de:	7882      	ldrb	r2, [r0, #2]
   256e0:	0212      	lsls	r2, r2, #8
   256e2:	1851      	adds	r1, r2, r1
   256e4:	8029      	strh	r1, [r5, #0]
   256e6:	3008      	adds	r0, #8
   256e8:	9909      	ldr	r1, [sp, #36]	@ 0x24
   256ea:	6e09      	ldr	r1, [r1, #96]	@ 0x60
   256ec:	910c      	str	r1, [sp, #48]	@ 0x30
   256ee:	4b11      	ldr	r3, [pc, #68]	@ (25734 <_start+0x1aac>)
   256f0:	446b      	add	r3, sp
   256f2:	930d      	str	r3, [sp, #52]	@ 0x34
   256f4:	c856      	ldmia	r0!, {r1, r2, r4, r6}
   256f6:	c356      	stmia	r3!, {r1, r2, r4, r6}
   256f8:	c856      	ldmia	r0!, {r1, r2, r4, r6}
   256fa:	c356      	stmia	r3!, {r1, r2, r4, r6}
   256fc:	990c      	ldr	r1, [sp, #48]	@ 0x30
   256fe:	0e08      	lsrs	r0, r1, #24
   25700:	71a8      	strb	r0, [r5, #6]
   25702:	0c08      	lsrs	r0, r1, #16
   25704:	7168      	strb	r0, [r5, #5]
   25706:	0a08      	lsrs	r0, r1, #8
   25708:	7128      	strb	r0, [r5, #4]
   2570a:	70e9      	strb	r1, [r5, #3]
   2570c:	1de8      	adds	r0, r5, #7
   2570e:	2220      	movs	r2, #32
   25710:	990d      	ldr	r1, [sp, #52]	@ 0x34
   25712:	f001 fac0 	bl	26c96 <__aeabi_memcpy>
   25716:	4c05      	ldr	r4, [pc, #20]	@ (2572c <_start+0x1aa4>)
   25718:	446c      	add	r4, sp
   2571a:	4620      	mov	r0, r4
   2571c:	4629      	mov	r1, r5
   2571e:	f7fe fa61 	bl	23be4 <_ZN20complex_full_dynamic3app17hffd2e77e3e5bf244E>
   25722:	7820      	ldrb	r0, [r4, #0]
   25724:	2801      	cmp	r0, #1
   25726:	d107      	bne.n	25738 <_start+0x1ab0>
   25728:	f7fe fe13 	bl	24352 <_start+0x6ca>
   2572c:	0000140c 	.word	0x0000140c
   25730:	00000a7c 	.word	0x00000a7c
   25734:	000013b0 	.word	0x000013b0
   25738:	4915      	ldr	r1, [pc, #84]	@ (25790 <_start+0x1b08>)
   2573a:	4469      	add	r1, sp
   2573c:	78c8      	ldrb	r0, [r1, #3]
   2573e:	4d15      	ldr	r5, [pc, #84]	@ (25794 <_start+0x1b0c>)
   25740:	446d      	add	r5, sp
   25742:	70a8      	strb	r0, [r5, #2]
   25744:	7848      	ldrb	r0, [r1, #1]
   25746:	788a      	ldrb	r2, [r1, #2]
   25748:	0212      	lsls	r2, r2, #8
   2574a:	1810      	adds	r0, r2, r0
   2574c:	8028      	strh	r0, [r5, #0]
   2574e:	9809      	ldr	r0, [sp, #36]	@ 0x24
   25750:	6e04      	ldr	r4, [r0, #96]	@ 0x60
   25752:	3108      	adds	r1, #8
   25754:	4810      	ldr	r0, [pc, #64]	@ (25798 <_start+0x1b10>)
   25756:	4468      	add	r0, sp
   25758:	900d      	str	r0, [sp, #52]	@ 0x34
   2575a:	264a      	movs	r6, #74	@ 0x4a
   2575c:	4632      	mov	r2, r6
   2575e:	f001 f93a 	bl	269d6 <__aeabi_memcpy4>
   25762:	0e20      	lsrs	r0, r4, #24
   25764:	71a8      	strb	r0, [r5, #6]
   25766:	0c20      	lsrs	r0, r4, #16
   25768:	7168      	strb	r0, [r5, #5]
   2576a:	0a20      	lsrs	r0, r4, #8
   2576c:	7128      	strb	r0, [r5, #4]
   2576e:	70ec      	strb	r4, [r5, #3]
   25770:	1de8      	adds	r0, r5, #7
   25772:	990d      	ldr	r1, [sp, #52]	@ 0x34
   25774:	4632      	mov	r2, r6
   25776:	f001 fa8e 	bl	26c96 <__aeabi_memcpy>
   2577a:	4c05      	ldr	r4, [pc, #20]	@ (25790 <_start+0x1b08>)
   2577c:	446c      	add	r4, sp
   2577e:	4620      	mov	r0, r4
   25780:	4629      	mov	r1, r5
   25782:	f7fd feb5 	bl	234f0 <_ZN20complex_full_dynamic3app17hdf33cc83c5c65c53E>
   25786:	7820      	ldrb	r0, [r4, #0]
   25788:	2801      	cmp	r0, #1
   2578a:	d107      	bne.n	2579c <_start+0x1b14>
   2578c:	f7fe fde1 	bl	24352 <_start+0x6ca>
   25790:	0000140c 	.word	0x0000140c
   25794:	00000aa4 	.word	0x00000aa4
   25798:	000013b0 	.word	0x000013b0
   2579c:	4915      	ldr	r1, [pc, #84]	@ (257f4 <_start+0x1b6c>)
   2579e:	4469      	add	r1, sp
   257a0:	78c8      	ldrb	r0, [r1, #3]
   257a2:	4d15      	ldr	r5, [pc, #84]	@ (257f8 <_start+0x1b70>)
   257a4:	446d      	add	r5, sp
   257a6:	70a8      	strb	r0, [r5, #2]
   257a8:	7848      	ldrb	r0, [r1, #1]
   257aa:	788a      	ldrb	r2, [r1, #2]
   257ac:	0212      	lsls	r2, r2, #8
   257ae:	1810      	adds	r0, r2, r0
   257b0:	8028      	strh	r0, [r5, #0]
   257b2:	9809      	ldr	r0, [sp, #36]	@ 0x24
   257b4:	6e04      	ldr	r4, [r0, #96]	@ 0x60
   257b6:	3108      	adds	r1, #8
   257b8:	4810      	ldr	r0, [pc, #64]	@ (257fc <_start+0x1b74>)
   257ba:	4468      	add	r0, sp
   257bc:	900d      	str	r0, [sp, #52]	@ 0x34
   257be:	2648      	movs	r6, #72	@ 0x48
   257c0:	4632      	mov	r2, r6
   257c2:	f001 f908 	bl	269d6 <__aeabi_memcpy4>
   257c6:	0e20      	lsrs	r0, r4, #24
   257c8:	71a8      	strb	r0, [r5, #6]
   257ca:	0c20      	lsrs	r0, r4, #16
   257cc:	7168      	strb	r0, [r5, #5]
   257ce:	0a20      	lsrs	r0, r4, #8
   257d0:	7128      	strb	r0, [r5, #4]
   257d2:	70ec      	strb	r4, [r5, #3]
   257d4:	1de8      	adds	r0, r5, #7
   257d6:	990d      	ldr	r1, [sp, #52]	@ 0x34
   257d8:	4632      	mov	r2, r6
   257da:	f001 fa5c 	bl	26c96 <__aeabi_memcpy>
   257de:	4c05      	ldr	r4, [pc, #20]	@ (257f4 <_start+0x1b6c>)
   257e0:	446c      	add	r4, sp
   257e2:	4620      	mov	r0, r4
   257e4:	4629      	mov	r1, r5
   257e6:	f7fb fe66 	bl	214b6 <_ZN20complex_full_dynamic3app17h48717cd8cc210bafE>
   257ea:	7820      	ldrb	r0, [r4, #0]
   257ec:	2801      	cmp	r0, #1
   257ee:	d107      	bne.n	25800 <_start+0x1b78>
   257f0:	f7fe fdaf 	bl	24352 <_start+0x6ca>
   257f4:	0000140c 	.word	0x0000140c
   257f8:	00000af8 	.word	0x00000af8
   257fc:	000013b0 	.word	0x000013b0
   25800:	4915      	ldr	r1, [pc, #84]	@ (25858 <_start+0x1bd0>)
   25802:	4469      	add	r1, sp
   25804:	78c8      	ldrb	r0, [r1, #3]
   25806:	4d15      	ldr	r5, [pc, #84]	@ (2585c <_start+0x1bd4>)
   25808:	446d      	add	r5, sp
   2580a:	70a8      	strb	r0, [r5, #2]
   2580c:	7848      	ldrb	r0, [r1, #1]
   2580e:	788a      	ldrb	r2, [r1, #2]
   25810:	0212      	lsls	r2, r2, #8
   25812:	1810      	adds	r0, r2, r0
   25814:	8028      	strh	r0, [r5, #0]
   25816:	9809      	ldr	r0, [sp, #36]	@ 0x24
   25818:	6e04      	ldr	r4, [r0, #96]	@ 0x60
   2581a:	3108      	adds	r1, #8
   2581c:	4810      	ldr	r0, [pc, #64]	@ (25860 <_start+0x1bd8>)
   2581e:	4468      	add	r0, sp
   25820:	900d      	str	r0, [sp, #52]	@ 0x34
   25822:	265a      	movs	r6, #90	@ 0x5a
   25824:	4632      	mov	r2, r6
   25826:	f001 f8d6 	bl	269d6 <__aeabi_memcpy4>
   2582a:	0e20      	lsrs	r0, r4, #24
   2582c:	71a8      	strb	r0, [r5, #6]
   2582e:	0c20      	lsrs	r0, r4, #16
   25830:	7168      	strb	r0, [r5, #5]
   25832:	0a20      	lsrs	r0, r4, #8
   25834:	7128      	strb	r0, [r5, #4]
   25836:	70ec      	strb	r4, [r5, #3]
   25838:	1de8      	adds	r0, r5, #7
   2583a:	990d      	ldr	r1, [sp, #52]	@ 0x34
   2583c:	4632      	mov	r2, r6
   2583e:	f001 fa2a 	bl	26c96 <__aeabi_memcpy>
   25842:	4c05      	ldr	r4, [pc, #20]	@ (25858 <_start+0x1bd0>)
   25844:	446c      	add	r4, sp
   25846:	4620      	mov	r0, r4
   25848:	4629      	mov	r1, r5
   2584a:	f7fd fa35 	bl	22cb8 <_ZN20complex_full_dynamic3app17hb1e898ea096ee4ecE>
   2584e:	7820      	ldrb	r0, [r4, #0]
   25850:	2801      	cmp	r0, #1
   25852:	d107      	bne.n	25864 <_start+0x1bdc>
   25854:	f7fe fd7d 	bl	24352 <_start+0x6ca>
   25858:	0000140c 	.word	0x0000140c
   2585c:	00000b48 	.word	0x00000b48
   25860:	000013b0 	.word	0x000013b0
   25864:	4817      	ldr	r0, [pc, #92]	@ (258c4 <_start+0x1c3c>)
   25866:	4468      	add	r0, sp
   25868:	78c1      	ldrb	r1, [r0, #3]
   2586a:	4d17      	ldr	r5, [pc, #92]	@ (258c8 <_start+0x1c40>)
   2586c:	446d      	add	r5, sp
   2586e:	70a9      	strb	r1, [r5, #2]
   25870:	7841      	ldrb	r1, [r0, #1]
   25872:	7882      	ldrb	r2, [r0, #2]
   25874:	0212      	lsls	r2, r2, #8
   25876:	1851      	adds	r1, r2, r1
   25878:	8029      	strh	r1, [r5, #0]
   2587a:	3008      	adds	r0, #8
   2587c:	9909      	ldr	r1, [sp, #36]	@ 0x24
   2587e:	6e09      	ldr	r1, [r1, #96]	@ 0x60
   25880:	4b12      	ldr	r3, [pc, #72]	@ (258cc <_start+0x1c44>)
   25882:	446b      	add	r3, sp
   25884:	930d      	str	r3, [sp, #52]	@ 0x34
   25886:	c850      	ldmia	r0!, {r4, r6}
   25888:	c350      	stmia	r3!, {r4, r6}
   2588a:	c854      	ldmia	r0!, {r2, r4, r6}
   2588c:	c354      	stmia	r3!, {r2, r4, r6}
   2588e:	8802      	ldrh	r2, [r0, #0]
   25890:	801a      	strh	r2, [r3, #0]
   25892:	7880      	ldrb	r0, [r0, #2]
   25894:	7098      	strb	r0, [r3, #2]
   25896:	0e08      	lsrs	r0, r1, #24
   25898:	71a8      	strb	r0, [r5, #6]
   2589a:	0c08      	lsrs	r0, r1, #16
   2589c:	7168      	strb	r0, [r5, #5]
   2589e:	0a08      	lsrs	r0, r1, #8
   258a0:	7128      	strb	r0, [r5, #4]
   258a2:	70e9      	strb	r1, [r5, #3]
   258a4:	1de8      	adds	r0, r5, #7
   258a6:	2217      	movs	r2, #23
   258a8:	990d      	ldr	r1, [sp, #52]	@ 0x34
   258aa:	f001 f9f4 	bl	26c96 <__aeabi_memcpy>
   258ae:	4c05      	ldr	r4, [pc, #20]	@ (258c4 <_start+0x1c3c>)
   258b0:	446c      	add	r4, sp
   258b2:	4620      	mov	r0, r4
   258b4:	4629      	mov	r1, r5
   258b6:	f7fc fa17 	bl	21ce8 <_ZN20complex_full_dynamic3app17h68783f0f9cb75bfaE>
   258ba:	7820      	ldrb	r0, [r4, #0]
   258bc:	2801      	cmp	r0, #1
   258be:	d107      	bne.n	258d0 <_start+0x1c48>
   258c0:	f7fe fd47 	bl	24352 <_start+0x6ca>
   258c4:	0000140c 	.word	0x0000140c
   258c8:	00000bac 	.word	0x00000bac
   258cc:	000013b0 	.word	0x000013b0
   258d0:	4816      	ldr	r0, [pc, #88]	@ (2592c <_start+0x1ca4>)
   258d2:	4468      	add	r0, sp
   258d4:	78c1      	ldrb	r1, [r0, #3]
   258d6:	4d16      	ldr	r5, [pc, #88]	@ (25930 <_start+0x1ca8>)
   258d8:	446d      	add	r5, sp
   258da:	70a9      	strb	r1, [r5, #2]
   258dc:	7841      	ldrb	r1, [r0, #1]
   258de:	7882      	ldrb	r2, [r0, #2]
   258e0:	0212      	lsls	r2, r2, #8
   258e2:	1851      	adds	r1, r2, r1
   258e4:	8029      	strh	r1, [r5, #0]
   258e6:	3008      	adds	r0, #8
   258e8:	9909      	ldr	r1, [sp, #36]	@ 0x24
   258ea:	6e09      	ldr	r1, [r1, #96]	@ 0x60
   258ec:	4b11      	ldr	r3, [pc, #68]	@ (25934 <_start+0x1cac>)
   258ee:	446b      	add	r3, sp
   258f0:	930d      	str	r3, [sp, #52]	@ 0x34
   258f2:	c854      	ldmia	r0!, {r2, r4, r6}
   258f4:	c354      	stmia	r3!, {r2, r4, r6}
   258f6:	c854      	ldmia	r0!, {r2, r4, r6}
   258f8:	c354      	stmia	r3!, {r2, r4, r6}
   258fa:	8800      	ldrh	r0, [r0, #0]
   258fc:	8018      	strh	r0, [r3, #0]
   258fe:	0e08      	lsrs	r0, r1, #24
   25900:	71a8      	strb	r0, [r5, #6]
   25902:	0c08      	lsrs	r0, r1, #16
   25904:	7168      	strb	r0, [r5, #5]
   25906:	0a08      	lsrs	r0, r1, #8
   25908:	7128      	strb	r0, [r5, #4]
   2590a:	70e9      	strb	r1, [r5, #3]
   2590c:	1de8      	adds	r0, r5, #7
   2590e:	221a      	movs	r2, #26
   25910:	990d      	ldr	r1, [sp, #52]	@ 0x34
   25912:	f001 f9c0 	bl	26c96 <__aeabi_memcpy>
   25916:	4c05      	ldr	r4, [pc, #20]	@ (2592c <_start+0x1ca4>)
   25918:	446c      	add	r4, sp
   2591a:	4620      	mov	r0, r4
   2591c:	4629      	mov	r1, r5
   2591e:	f7fb fbe9 	bl	210f4 <_ZN20complex_full_dynamic3app17h3a58046f7e8ffc97E>
   25922:	7820      	ldrb	r0, [r4, #0]
   25924:	2801      	cmp	r0, #1
   25926:	d107      	bne.n	25938 <_start+0x1cb0>
   25928:	f7fe fd13 	bl	24352 <_start+0x6ca>
   2592c:	0000140c 	.word	0x0000140c
   25930:	00000bcc 	.word	0x00000bcc
   25934:	000013b0 	.word	0x000013b0
   25938:	4818      	ldr	r0, [pc, #96]	@ (2599c <_start+0x1d14>)
   2593a:	4468      	add	r0, sp
   2593c:	78c1      	ldrb	r1, [r0, #3]
   2593e:	4d18      	ldr	r5, [pc, #96]	@ (259a0 <_start+0x1d18>)
   25940:	446d      	add	r5, sp
   25942:	70a9      	strb	r1, [r5, #2]
   25944:	7841      	ldrb	r1, [r0, #1]
   25946:	7882      	ldrb	r2, [r0, #2]
   25948:	0212      	lsls	r2, r2, #8
   2594a:	1851      	adds	r1, r2, r1
   2594c:	8029      	strh	r1, [r5, #0]
   2594e:	3008      	adds	r0, #8
   25950:	9909      	ldr	r1, [sp, #36]	@ 0x24
   25952:	6e09      	ldr	r1, [r1, #96]	@ 0x60
   25954:	910c      	str	r1, [sp, #48]	@ 0x30
   25956:	4b13      	ldr	r3, [pc, #76]	@ (259a4 <_start+0x1d1c>)
   25958:	446b      	add	r3, sp
   2595a:	930d      	str	r3, [sp, #52]	@ 0x34
   2595c:	c856      	ldmia	r0!, {r1, r2, r4, r6}
   2595e:	c356      	stmia	r3!, {r1, r2, r4, r6}
   25960:	c856      	ldmia	r0!, {r1, r2, r4, r6}
   25962:	c356      	stmia	r3!, {r1, r2, r4, r6}
   25964:	8801      	ldrh	r1, [r0, #0]
   25966:	8019      	strh	r1, [r3, #0]
   25968:	7880      	ldrb	r0, [r0, #2]
   2596a:	7098      	strb	r0, [r3, #2]
   2596c:	990c      	ldr	r1, [sp, #48]	@ 0x30
   2596e:	0e08      	lsrs	r0, r1, #24
   25970:	71a8      	strb	r0, [r5, #6]
   25972:	0c08      	lsrs	r0, r1, #16
   25974:	7168      	strb	r0, [r5, #5]
   25976:	0a08      	lsrs	r0, r1, #8
   25978:	7128      	strb	r0, [r5, #4]
   2597a:	70e9      	strb	r1, [r5, #3]
   2597c:	1de8      	adds	r0, r5, #7
   2597e:	2223      	movs	r2, #35	@ 0x23
   25980:	990d      	ldr	r1, [sp, #52]	@ 0x34
   25982:	f001 f988 	bl	26c96 <__aeabi_memcpy>
   25986:	4c05      	ldr	r4, [pc, #20]	@ (2599c <_start+0x1d14>)
   25988:	446c      	add	r4, sp
   2598a:	4620      	mov	r0, r4
   2598c:	4629      	mov	r1, r5
   2598e:	f7fb fa1f 	bl	20dd0 <_ZN20complex_full_dynamic3app17h31fc2e5f6a362edbE>
   25992:	7820      	ldrb	r0, [r4, #0]
   25994:	2801      	cmp	r0, #1
   25996:	d107      	bne.n	259a8 <_start+0x1d20>
   25998:	f7fe fcdb 	bl	24352 <_start+0x6ca>
   2599c:	0000140c 	.word	0x0000140c
   259a0:	00000bf0 	.word	0x00000bf0
   259a4:	000013b0 	.word	0x000013b0
   259a8:	4915      	ldr	r1, [pc, #84]	@ (25a00 <_start+0x1d78>)
   259aa:	4469      	add	r1, sp
   259ac:	78c8      	ldrb	r0, [r1, #3]
   259ae:	4d15      	ldr	r5, [pc, #84]	@ (25a04 <_start+0x1d7c>)
   259b0:	446d      	add	r5, sp
   259b2:	70a8      	strb	r0, [r5, #2]
   259b4:	7848      	ldrb	r0, [r1, #1]
   259b6:	788a      	ldrb	r2, [r1, #2]
   259b8:	0212      	lsls	r2, r2, #8
   259ba:	1810      	adds	r0, r2, r0
   259bc:	8028      	strh	r0, [r5, #0]
   259be:	9809      	ldr	r0, [sp, #36]	@ 0x24
   259c0:	6e04      	ldr	r4, [r0, #96]	@ 0x60
   259c2:	3108      	adds	r1, #8
   259c4:	4810      	ldr	r0, [pc, #64]	@ (25a08 <_start+0x1d80>)
   259c6:	4468      	add	r0, sp
   259c8:	900d      	str	r0, [sp, #52]	@ 0x34
   259ca:	2652      	movs	r6, #82	@ 0x52
   259cc:	4632      	mov	r2, r6
   259ce:	f001 f802 	bl	269d6 <__aeabi_memcpy4>
   259d2:	0e20      	lsrs	r0, r4, #24
   259d4:	71a8      	strb	r0, [r5, #6]
   259d6:	0c20      	lsrs	r0, r4, #16
   259d8:	7168      	strb	r0, [r5, #5]
   259da:	0a20      	lsrs	r0, r4, #8
   259dc:	7128      	strb	r0, [r5, #4]
   259de:	70ec      	strb	r4, [r5, #3]
   259e0:	1de8      	adds	r0, r5, #7
   259e2:	990d      	ldr	r1, [sp, #52]	@ 0x34
   259e4:	4632      	mov	r2, r6
   259e6:	f001 f956 	bl	26c96 <__aeabi_memcpy>
   259ea:	4c05      	ldr	r4, [pc, #20]	@ (25a00 <_start+0x1d78>)
   259ec:	446c      	add	r4, sp
   259ee:	4620      	mov	r0, r4
   259f0:	4629      	mov	r1, r5
   259f2:	f7fd fec1 	bl	23778 <_ZN20complex_full_dynamic3app17heb3b5cde50b2215fE>
   259f6:	7820      	ldrb	r0, [r4, #0]
   259f8:	2801      	cmp	r0, #1
   259fa:	d107      	bne.n	25a0c <_start+0x1d84>
   259fc:	f7fe fca9 	bl	24352 <_start+0x6ca>
   25a00:	0000140c 	.word	0x0000140c
   25a04:	00000c1c 	.word	0x00000c1c
   25a08:	000013b0 	.word	0x000013b0
   25a0c:	4915      	ldr	r1, [pc, #84]	@ (25a64 <_start+0x1ddc>)
   25a0e:	4469      	add	r1, sp
   25a10:	78c8      	ldrb	r0, [r1, #3]
   25a12:	4d15      	ldr	r5, [pc, #84]	@ (25a68 <_start+0x1de0>)
   25a14:	446d      	add	r5, sp
   25a16:	70a8      	strb	r0, [r5, #2]
   25a18:	7848      	ldrb	r0, [r1, #1]
   25a1a:	788a      	ldrb	r2, [r1, #2]
   25a1c:	0212      	lsls	r2, r2, #8
   25a1e:	1810      	adds	r0, r2, r0
   25a20:	8028      	strh	r0, [r5, #0]
   25a22:	9809      	ldr	r0, [sp, #36]	@ 0x24
   25a24:	6e04      	ldr	r4, [r0, #96]	@ 0x60
   25a26:	3108      	adds	r1, #8
   25a28:	4810      	ldr	r0, [pc, #64]	@ (25a6c <_start+0x1de4>)
   25a2a:	4468      	add	r0, sp
   25a2c:	900d      	str	r0, [sp, #52]	@ 0x34
   25a2e:	2643      	movs	r6, #67	@ 0x43
   25a30:	4632      	mov	r2, r6
   25a32:	f000 ffd0 	bl	269d6 <__aeabi_memcpy4>
   25a36:	0e20      	lsrs	r0, r4, #24
   25a38:	71a8      	strb	r0, [r5, #6]
   25a3a:	0c20      	lsrs	r0, r4, #16
   25a3c:	7168      	strb	r0, [r5, #5]
   25a3e:	0a20      	lsrs	r0, r4, #8
   25a40:	7128      	strb	r0, [r5, #4]
   25a42:	70ec      	strb	r4, [r5, #3]
   25a44:	1de8      	adds	r0, r5, #7
   25a46:	990d      	ldr	r1, [sp, #52]	@ 0x34
   25a48:	4632      	mov	r2, r6
   25a4a:	f001 f924 	bl	26c96 <__aeabi_memcpy>
   25a4e:	4c05      	ldr	r4, [pc, #20]	@ (25a64 <_start+0x1ddc>)
   25a50:	446c      	add	r4, sp
   25a52:	4620      	mov	r0, r4
   25a54:	4629      	mov	r1, r5
   25a56:	f7fa ff31 	bl	208bc <_ZN20complex_full_dynamic3app17h24bcc49c5f7140bfE>
   25a5a:	7820      	ldrb	r0, [r4, #0]
   25a5c:	2801      	cmp	r0, #1
   25a5e:	d107      	bne.n	25a70 <_start+0x1de8>
   25a60:	f7fe fc77 	bl	24352 <_start+0x6ca>
   25a64:	0000140c 	.word	0x0000140c
   25a68:	00000c78 	.word	0x00000c78
   25a6c:	000013b0 	.word	0x000013b0
   25a70:	4817      	ldr	r0, [pc, #92]	@ (25ad0 <_start+0x1e48>)
   25a72:	4468      	add	r0, sp
   25a74:	78c1      	ldrb	r1, [r0, #3]
   25a76:	4d17      	ldr	r5, [pc, #92]	@ (25ad4 <_start+0x1e4c>)
   25a78:	446d      	add	r5, sp
   25a7a:	70a9      	strb	r1, [r5, #2]
   25a7c:	7841      	ldrb	r1, [r0, #1]
   25a7e:	7882      	ldrb	r2, [r0, #2]
   25a80:	0212      	lsls	r2, r2, #8
   25a82:	1851      	adds	r1, r2, r1
   25a84:	8029      	strh	r1, [r5, #0]
   25a86:	3008      	adds	r0, #8
   25a88:	9909      	ldr	r1, [sp, #36]	@ 0x24
   25a8a:	6e09      	ldr	r1, [r1, #96]	@ 0x60
   25a8c:	4b12      	ldr	r3, [pc, #72]	@ (25ad8 <_start+0x1e50>)
   25a8e:	446b      	add	r3, sp
   25a90:	930d      	str	r3, [sp, #52]	@ 0x34
   25a92:	c854      	ldmia	r0!, {r2, r4, r6}
   25a94:	c354      	stmia	r3!, {r2, r4, r6}
   25a96:	c854      	ldmia	r0!, {r2, r4, r6}
   25a98:	c354      	stmia	r3!, {r2, r4, r6}
   25a9a:	c854      	ldmia	r0!, {r2, r4, r6}
   25a9c:	c354      	stmia	r3!, {r2, r4, r6}
   25a9e:	8800      	ldrh	r0, [r0, #0]
   25aa0:	8018      	strh	r0, [r3, #0]
   25aa2:	0e08      	lsrs	r0, r1, #24
   25aa4:	71a8      	strb	r0, [r5, #6]
   25aa6:	0c08      	lsrs	r0, r1, #16
   25aa8:	7168      	strb	r0, [r5, #5]
   25aaa:	0a08      	lsrs	r0, r1, #8
   25aac:	7128      	strb	r0, [r5, #4]
   25aae:	70e9      	strb	r1, [r5, #3]
   25ab0:	1de8      	adds	r0, r5, #7
   25ab2:	2226      	movs	r2, #38	@ 0x26
   25ab4:	990d      	ldr	r1, [sp, #52]	@ 0x34
   25ab6:	f001 f8ee 	bl	26c96 <__aeabi_memcpy>
   25aba:	4c05      	ldr	r4, [pc, #20]	@ (25ad0 <_start+0x1e48>)
   25abc:	446c      	add	r4, sp
   25abe:	4620      	mov	r0, r4
   25ac0:	4629      	mov	r1, r5
   25ac2:	f7fc fcdf 	bl	22484 <_ZN20complex_full_dynamic3app17h7fc63d0a4afc1f45E>
   25ac6:	7820      	ldrb	r0, [r4, #0]
   25ac8:	2801      	cmp	r0, #1
   25aca:	d107      	bne.n	25adc <_start+0x1e54>
   25acc:	f7fe fc41 	bl	24352 <_start+0x6ca>
   25ad0:	0000140c 	.word	0x0000140c
   25ad4:	00000cc4 	.word	0x00000cc4
   25ad8:	000013b0 	.word	0x000013b0
   25adc:	4915      	ldr	r1, [pc, #84]	@ (25b34 <_start+0x1eac>)
   25ade:	4469      	add	r1, sp
   25ae0:	78c8      	ldrb	r0, [r1, #3]
   25ae2:	4d15      	ldr	r5, [pc, #84]	@ (25b38 <_start+0x1eb0>)
   25ae4:	446d      	add	r5, sp
   25ae6:	70a8      	strb	r0, [r5, #2]
   25ae8:	7848      	ldrb	r0, [r1, #1]
   25aea:	788a      	ldrb	r2, [r1, #2]
   25aec:	0212      	lsls	r2, r2, #8
   25aee:	1810      	adds	r0, r2, r0
   25af0:	8028      	strh	r0, [r5, #0]
   25af2:	9809      	ldr	r0, [sp, #36]	@ 0x24
   25af4:	6e04      	ldr	r4, [r0, #96]	@ 0x60
   25af6:	3108      	adds	r1, #8
   25af8:	4810      	ldr	r0, [pc, #64]	@ (25b3c <_start+0x1eb4>)
   25afa:	4468      	add	r0, sp
   25afc:	900d      	str	r0, [sp, #52]	@ 0x34
   25afe:	264c      	movs	r6, #76	@ 0x4c
   25b00:	4632      	mov	r2, r6
   25b02:	f000 ff68 	bl	269d6 <__aeabi_memcpy4>
   25b06:	0e20      	lsrs	r0, r4, #24
   25b08:	71a8      	strb	r0, [r5, #6]
   25b0a:	0c20      	lsrs	r0, r4, #16
   25b0c:	7168      	strb	r0, [r5, #5]
   25b0e:	0a20      	lsrs	r0, r4, #8
   25b10:	7128      	strb	r0, [r5, #4]
   25b12:	70ec      	strb	r4, [r5, #3]
   25b14:	1de8      	adds	r0, r5, #7
   25b16:	990d      	ldr	r1, [sp, #52]	@ 0x34
   25b18:	4632      	mov	r2, r6
   25b1a:	f001 f8bc 	bl	26c96 <__aeabi_memcpy>
   25b1e:	4c05      	ldr	r4, [pc, #20]	@ (25b34 <_start+0x1eac>)
   25b20:	446c      	add	r4, sp
   25b22:	4620      	mov	r0, r4
   25b24:	4629      	mov	r1, r5
   25b26:	f7fc fb69 	bl	221fc <_ZN20complex_full_dynamic3app17h77575600a9b1813cE>
   25b2a:	7820      	ldrb	r0, [r4, #0]
   25b2c:	2801      	cmp	r0, #1
   25b2e:	d107      	bne.n	25b40 <_start+0x1eb8>
   25b30:	f7fe fc0f 	bl	24352 <_start+0x6ca>
   25b34:	0000140c 	.word	0x0000140c
   25b38:	00000cf4 	.word	0x00000cf4
   25b3c:	000013b0 	.word	0x000013b0
   25b40:	4819      	ldr	r0, [pc, #100]	@ (25ba8 <_start+0x1f20>)
   25b42:	4468      	add	r0, sp
   25b44:	78c1      	ldrb	r1, [r0, #3]
   25b46:	4d19      	ldr	r5, [pc, #100]	@ (25bac <_start+0x1f24>)
   25b48:	446d      	add	r5, sp
   25b4a:	70a9      	strb	r1, [r5, #2]
   25b4c:	7841      	ldrb	r1, [r0, #1]
   25b4e:	7882      	ldrb	r2, [r0, #2]
   25b50:	0212      	lsls	r2, r2, #8
   25b52:	1851      	adds	r1, r2, r1
   25b54:	8029      	strh	r1, [r5, #0]
   25b56:	3008      	adds	r0, #8
   25b58:	9909      	ldr	r1, [sp, #36]	@ 0x24
   25b5a:	6e09      	ldr	r1, [r1, #96]	@ 0x60
   25b5c:	910c      	str	r1, [sp, #48]	@ 0x30
   25b5e:	4b14      	ldr	r3, [pc, #80]	@ (25bb0 <_start+0x1f28>)
   25b60:	446b      	add	r3, sp
   25b62:	930d      	str	r3, [sp, #52]	@ 0x34
   25b64:	c856      	ldmia	r0!, {r1, r2, r4, r6}
   25b66:	c356      	stmia	r3!, {r1, r2, r4, r6}
   25b68:	c856      	ldmia	r0!, {r1, r2, r4, r6}
   25b6a:	c356      	stmia	r3!, {r1, r2, r4, r6}
   25b6c:	c856      	ldmia	r0!, {r1, r2, r4, r6}
   25b6e:	c356      	stmia	r3!, {r1, r2, r4, r6}
   25b70:	8801      	ldrh	r1, [r0, #0]
   25b72:	8019      	strh	r1, [r3, #0]
   25b74:	7880      	ldrb	r0, [r0, #2]
   25b76:	7098      	strb	r0, [r3, #2]
   25b78:	990c      	ldr	r1, [sp, #48]	@ 0x30
   25b7a:	0e08      	lsrs	r0, r1, #24
   25b7c:	71a8      	strb	r0, [r5, #6]
   25b7e:	0c08      	lsrs	r0, r1, #16
   25b80:	7168      	strb	r0, [r5, #5]
   25b82:	0a08      	lsrs	r0, r1, #8
   25b84:	7128      	strb	r0, [r5, #4]
   25b86:	70e9      	strb	r1, [r5, #3]
   25b88:	1de8      	adds	r0, r5, #7
   25b8a:	2233      	movs	r2, #51	@ 0x33
   25b8c:	990d      	ldr	r1, [sp, #52]	@ 0x34
   25b8e:	f001 f882 	bl	26c96 <__aeabi_memcpy>
   25b92:	4c05      	ldr	r4, [pc, #20]	@ (25ba8 <_start+0x1f20>)
   25b94:	446c      	add	r4, sp
   25b96:	4620      	mov	r0, r4
   25b98:	4629      	mov	r1, r5
   25b9a:	f7fb fe19 	bl	217d0 <_ZN20complex_full_dynamic3app17h55363c74238db1deE>
   25b9e:	7820      	ldrb	r0, [r4, #0]
   25ba0:	2801      	cmp	r0, #1
   25ba2:	d107      	bne.n	25bb4 <_start+0x1f2c>
   25ba4:	f7fe fbd5 	bl	24352 <_start+0x6ca>
   25ba8:	0000140c 	.word	0x0000140c
   25bac:	00000d48 	.word	0x00000d48
   25bb0:	000013b0 	.word	0x000013b0
   25bb4:	4915      	ldr	r1, [pc, #84]	@ (25c0c <_start+0x1f84>)
   25bb6:	4469      	add	r1, sp
   25bb8:	78c8      	ldrb	r0, [r1, #3]
   25bba:	4d15      	ldr	r5, [pc, #84]	@ (25c10 <_start+0x1f88>)
   25bbc:	446d      	add	r5, sp
   25bbe:	70a8      	strb	r0, [r5, #2]
   25bc0:	7848      	ldrb	r0, [r1, #1]
   25bc2:	788a      	ldrb	r2, [r1, #2]
   25bc4:	0212      	lsls	r2, r2, #8
   25bc6:	1810      	adds	r0, r2, r0
   25bc8:	8028      	strh	r0, [r5, #0]
   25bca:	9809      	ldr	r0, [sp, #36]	@ 0x24
   25bcc:	6e04      	ldr	r4, [r0, #96]	@ 0x60
   25bce:	3108      	adds	r1, #8
   25bd0:	4810      	ldr	r0, [pc, #64]	@ (25c14 <_start+0x1f8c>)
   25bd2:	4468      	add	r0, sp
   25bd4:	900d      	str	r0, [sp, #52]	@ 0x34
   25bd6:	2656      	movs	r6, #86	@ 0x56
   25bd8:	4632      	mov	r2, r6
   25bda:	f000 fefc 	bl	269d6 <__aeabi_memcpy4>
   25bde:	0e20      	lsrs	r0, r4, #24
   25be0:	71a8      	strb	r0, [r5, #6]
   25be2:	0c20      	lsrs	r0, r4, #16
   25be4:	7168      	strb	r0, [r5, #5]
   25be6:	0a20      	lsrs	r0, r4, #8
   25be8:	7128      	strb	r0, [r5, #4]
   25bea:	70ec      	strb	r4, [r5, #3]
   25bec:	1de8      	adds	r0, r5, #7
   25bee:	990d      	ldr	r1, [sp, #52]	@ 0x34
   25bf0:	4632      	mov	r2, r6
   25bf2:	f001 f850 	bl	26c96 <__aeabi_memcpy>
   25bf6:	4c05      	ldr	r4, [pc, #20]	@ (25c0c <_start+0x1f84>)
   25bf8:	446c      	add	r4, sp
   25bfa:	4620      	mov	r0, r4
   25bfc:	4629      	mov	r1, r5
   25bfe:	f7fd fb33 	bl	23268 <_ZN20complex_full_dynamic3app17hd12ad137730b03e2E>
   25c02:	7820      	ldrb	r0, [r4, #0]
   25c04:	2801      	cmp	r0, #1
   25c06:	d107      	bne.n	25c18 <_start+0x1f90>
   25c08:	f7fe fba3 	bl	24352 <_start+0x6ca>
   25c0c:	0000140c 	.word	0x0000140c
   25c10:	00000d84 	.word	0x00000d84
   25c14:	000013b0 	.word	0x000013b0
   25c18:	4819      	ldr	r0, [pc, #100]	@ (25c80 <_start+0x1ff8>)
   25c1a:	4468      	add	r0, sp
   25c1c:	78c1      	ldrb	r1, [r0, #3]
   25c1e:	4d19      	ldr	r5, [pc, #100]	@ (25c84 <_start+0x1ffc>)
   25c20:	446d      	add	r5, sp
   25c22:	70a9      	strb	r1, [r5, #2]
   25c24:	7841      	ldrb	r1, [r0, #1]
   25c26:	7882      	ldrb	r2, [r0, #2]
   25c28:	0212      	lsls	r2, r2, #8
   25c2a:	1851      	adds	r1, r2, r1
   25c2c:	8029      	strh	r1, [r5, #0]
   25c2e:	3008      	adds	r0, #8
   25c30:	9909      	ldr	r1, [sp, #36]	@ 0x24
   25c32:	6e09      	ldr	r1, [r1, #96]	@ 0x60
   25c34:	910c      	str	r1, [sp, #48]	@ 0x30
   25c36:	4b14      	ldr	r3, [pc, #80]	@ (25c88 <_start+0x2000>)
   25c38:	446b      	add	r3, sp
   25c3a:	930d      	str	r3, [sp, #52]	@ 0x34
   25c3c:	c854      	ldmia	r0!, {r2, r4, r6}
   25c3e:	c354      	stmia	r3!, {r2, r4, r6}
   25c40:	c856      	ldmia	r0!, {r1, r2, r4, r6}
   25c42:	c356      	stmia	r3!, {r1, r2, r4, r6}
   25c44:	c816      	ldmia	r0!, {r1, r2, r4}
   25c46:	c316      	stmia	r3!, {r1, r2, r4}
   25c48:	c856      	ldmia	r0!, {r1, r2, r4, r6}
   25c4a:	c356      	stmia	r3!, {r1, r2, r4, r6}
   25c4c:	7800      	ldrb	r0, [r0, #0]
   25c4e:	7018      	strb	r0, [r3, #0]
   25c50:	990c      	ldr	r1, [sp, #48]	@ 0x30
   25c52:	0e08      	lsrs	r0, r1, #24
   25c54:	71a8      	strb	r0, [r5, #6]
   25c56:	0c08      	lsrs	r0, r1, #16
   25c58:	7168      	strb	r0, [r5, #5]
   25c5a:	0a08      	lsrs	r0, r1, #8
   25c5c:	7128      	strb	r0, [r5, #4]
   25c5e:	70e9      	strb	r1, [r5, #3]
   25c60:	1de8      	adds	r0, r5, #7
   25c62:	2239      	movs	r2, #57	@ 0x39
   25c64:	990d      	ldr	r1, [sp, #52]	@ 0x34
   25c66:	f001 f816 	bl	26c96 <__aeabi_memcpy>
   25c6a:	4c05      	ldr	r4, [pc, #20]	@ (25c80 <_start+0x1ff8>)
   25c6c:	446c      	add	r4, sp
   25c6e:	4620      	mov	r0, r4
   25c70:	4629      	mov	r1, r5
   25c72:	f7fd fbeb 	bl	2344c <_ZN20complex_full_dynamic3app17hde84c6f353f6e97eE>
   25c76:	7820      	ldrb	r0, [r4, #0]
   25c78:	2801      	cmp	r0, #1
   25c7a:	d107      	bne.n	25c8c <_start+0x2004>
   25c7c:	f7fe fb69 	bl	24352 <_start+0x6ca>
   25c80:	0000140c 	.word	0x0000140c
   25c84:	00000de4 	.word	0x00000de4
   25c88:	000013b0 	.word	0x000013b0
   25c8c:	4818      	ldr	r0, [pc, #96]	@ (25cf0 <_start+0x2068>)
   25c8e:	4468      	add	r0, sp
   25c90:	78c1      	ldrb	r1, [r0, #3]
   25c92:	4d18      	ldr	r5, [pc, #96]	@ (25cf4 <_start+0x206c>)
   25c94:	446d      	add	r5, sp
   25c96:	70a9      	strb	r1, [r5, #2]
   25c98:	7841      	ldrb	r1, [r0, #1]
   25c9a:	7882      	ldrb	r2, [r0, #2]
   25c9c:	0212      	lsls	r2, r2, #8
   25c9e:	1851      	adds	r1, r2, r1
   25ca0:	8029      	strh	r1, [r5, #0]
   25ca2:	3008      	adds	r0, #8
   25ca4:	9909      	ldr	r1, [sp, #36]	@ 0x24
   25ca6:	6e09      	ldr	r1, [r1, #96]	@ 0x60
   25ca8:	910c      	str	r1, [sp, #48]	@ 0x30
   25caa:	4b13      	ldr	r3, [pc, #76]	@ (25cf8 <_start+0x2070>)
   25cac:	446b      	add	r3, sp
   25cae:	930d      	str	r3, [sp, #52]	@ 0x34
   25cb0:	c854      	ldmia	r0!, {r2, r4, r6}
   25cb2:	c354      	stmia	r3!, {r2, r4, r6}
   25cb4:	c854      	ldmia	r0!, {r2, r4, r6}
   25cb6:	c354      	stmia	r3!, {r2, r4, r6}
   25cb8:	c856      	ldmia	r0!, {r1, r2, r4, r6}
   25cba:	c356      	stmia	r3!, {r1, r2, r4, r6}
   25cbc:	8800      	ldrh	r0, [r0, #0]
   25cbe:	8018      	strh	r0, [r3, #0]
   25cc0:	990c      	ldr	r1, [sp, #48]	@ 0x30
   25cc2:	0e08      	lsrs	r0, r1, #24
   25cc4:	71a8      	strb	r0, [r5, #6]
   25cc6:	0c08      	lsrs	r0, r1, #16
   25cc8:	7168      	strb	r0, [r5, #5]
   25cca:	0a08      	lsrs	r0, r1, #8
   25ccc:	7128      	strb	r0, [r5, #4]
   25cce:	70e9      	strb	r1, [r5, #3]
   25cd0:	1de8      	adds	r0, r5, #7
   25cd2:	222a      	movs	r2, #42	@ 0x2a
   25cd4:	990d      	ldr	r1, [sp, #52]	@ 0x34
   25cd6:	f000 ffde 	bl	26c96 <__aeabi_memcpy>
   25cda:	4c05      	ldr	r4, [pc, #20]	@ (25cf0 <_start+0x2068>)
   25cdc:	446c      	add	r4, sp
   25cde:	4620      	mov	r0, r4
   25ce0:	4629      	mov	r1, r5
   25ce2:	f7fb ffb1 	bl	21c48 <_ZN20complex_full_dynamic3app17h671710099d58bfa7E>
   25ce6:	7820      	ldrb	r0, [r4, #0]
   25ce8:	2801      	cmp	r0, #1
   25cea:	d107      	bne.n	25cfc <_start+0x2074>
   25cec:	f7fe fb31 	bl	24352 <_start+0x6ca>
   25cf0:	0000140c 	.word	0x0000140c
   25cf4:	00000e24 	.word	0x00000e24
   25cf8:	000013b0 	.word	0x000013b0
   25cfc:	4915      	ldr	r1, [pc, #84]	@ (25d54 <_start+0x20cc>)
   25cfe:	4469      	add	r1, sp
   25d00:	78c8      	ldrb	r0, [r1, #3]
   25d02:	4d15      	ldr	r5, [pc, #84]	@ (25d58 <_start+0x20d0>)
   25d04:	446d      	add	r5, sp
   25d06:	70a8      	strb	r0, [r5, #2]
   25d08:	7848      	ldrb	r0, [r1, #1]
   25d0a:	788a      	ldrb	r2, [r1, #2]
   25d0c:	0212      	lsls	r2, r2, #8
   25d0e:	1810      	adds	r0, r2, r0
   25d10:	8028      	strh	r0, [r5, #0]
   25d12:	9809      	ldr	r0, [sp, #36]	@ 0x24
   25d14:	6e04      	ldr	r4, [r0, #96]	@ 0x60
   25d16:	3108      	adds	r1, #8
   25d18:	4810      	ldr	r0, [pc, #64]	@ (25d5c <_start+0x20d4>)
   25d1a:	4468      	add	r0, sp
   25d1c:	900d      	str	r0, [sp, #52]	@ 0x34
   25d1e:	2641      	movs	r6, #65	@ 0x41
   25d20:	4632      	mov	r2, r6
   25d22:	f000 fe58 	bl	269d6 <__aeabi_memcpy4>
   25d26:	0e20      	lsrs	r0, r4, #24
   25d28:	71a8      	strb	r0, [r5, #6]
   25d2a:	0c20      	lsrs	r0, r4, #16
   25d2c:	7168      	strb	r0, [r5, #5]
   25d2e:	0a20      	lsrs	r0, r4, #8
   25d30:	7128      	strb	r0, [r5, #4]
   25d32:	70ec      	strb	r4, [r5, #3]
   25d34:	1de8      	adds	r0, r5, #7
   25d36:	990d      	ldr	r1, [sp, #52]	@ 0x34
   25d38:	4632      	mov	r2, r6
   25d3a:	f000 ffac 	bl	26c96 <__aeabi_memcpy>
   25d3e:	4c05      	ldr	r4, [pc, #20]	@ (25d54 <_start+0x20cc>)
   25d40:	446c      	add	r4, sp
   25d42:	4620      	mov	r0, r4
   25d44:	4629      	mov	r1, r5
   25d46:	f7fb fe39 	bl	219bc <_ZN20complex_full_dynamic3app17h5b2412d08d08f236E>
   25d4a:	7820      	ldrb	r0, [r4, #0]
   25d4c:	2801      	cmp	r0, #1
   25d4e:	d107      	bne.n	25d60 <_start+0x20d8>
   25d50:	f7fe faff 	bl	24352 <_start+0x6ca>
   25d54:	0000140c 	.word	0x0000140c
   25d58:	00000e58 	.word	0x00000e58
   25d5c:	000013b0 	.word	0x000013b0
   25d60:	4817      	ldr	r0, [pc, #92]	@ (25dc0 <_start+0x2138>)
   25d62:	4468      	add	r0, sp
   25d64:	78c1      	ldrb	r1, [r0, #3]
   25d66:	4d17      	ldr	r5, [pc, #92]	@ (25dc4 <_start+0x213c>)
   25d68:	446d      	add	r5, sp
   25d6a:	70a9      	strb	r1, [r5, #2]
   25d6c:	7841      	ldrb	r1, [r0, #1]
   25d6e:	7882      	ldrb	r2, [r0, #2]
   25d70:	0212      	lsls	r2, r2, #8
   25d72:	1851      	adds	r1, r2, r1
   25d74:	8029      	strh	r1, [r5, #0]
   25d76:	3008      	adds	r0, #8
   25d78:	9909      	ldr	r1, [sp, #36]	@ 0x24
   25d7a:	6e09      	ldr	r1, [r1, #96]	@ 0x60
   25d7c:	910c      	str	r1, [sp, #48]	@ 0x30
   25d7e:	4b12      	ldr	r3, [pc, #72]	@ (25dc8 <_start+0x2140>)
   25d80:	446b      	add	r3, sp
   25d82:	930d      	str	r3, [sp, #52]	@ 0x34
   25d84:	c856      	ldmia	r0!, {r1, r2, r4, r6}
   25d86:	c356      	stmia	r3!, {r1, r2, r4, r6}
   25d88:	c856      	ldmia	r0!, {r1, r2, r4, r6}
   25d8a:	c356      	stmia	r3!, {r1, r2, r4, r6}
   25d8c:	8800      	ldrh	r0, [r0, #0]
   25d8e:	8018      	strh	r0, [r3, #0]
   25d90:	990c      	ldr	r1, [sp, #48]	@ 0x30
   25d92:	0e08      	lsrs	r0, r1, #24
   25d94:	71a8      	strb	r0, [r5, #6]
   25d96:	0c08      	lsrs	r0, r1, #16
   25d98:	7168      	strb	r0, [r5, #5]
   25d9a:	0a08      	lsrs	r0, r1, #8
   25d9c:	7128      	strb	r0, [r5, #4]
   25d9e:	70e9      	strb	r1, [r5, #3]
   25da0:	1de8      	adds	r0, r5, #7
   25da2:	2222      	movs	r2, #34	@ 0x22
   25da4:	990d      	ldr	r1, [sp, #52]	@ 0x34
   25da6:	f000 ff76 	bl	26c96 <__aeabi_memcpy>
   25daa:	4c05      	ldr	r4, [pc, #20]	@ (25dc0 <_start+0x2138>)
   25dac:	446c      	add	r4, sp
   25dae:	4620      	mov	r0, r4
   25db0:	4629      	mov	r1, r5
   25db2:	f7fb f9ef 	bl	21194 <_ZN20complex_full_dynamic3app17h3d44562ac53b8bf1E>
   25db6:	7820      	ldrb	r0, [r4, #0]
   25db8:	2801      	cmp	r0, #1
   25dba:	d107      	bne.n	25dcc <_start+0x2144>
   25dbc:	f7fe fac9 	bl	24352 <_start+0x6ca>
   25dc0:	0000140c 	.word	0x0000140c
   25dc4:	00000ea0 	.word	0x00000ea0
   25dc8:	000013b0 	.word	0x000013b0
   25dcc:	4817      	ldr	r0, [pc, #92]	@ (25e2c <_start+0x21a4>)
   25dce:	4468      	add	r0, sp
   25dd0:	78c1      	ldrb	r1, [r0, #3]
   25dd2:	4d17      	ldr	r5, [pc, #92]	@ (25e30 <_start+0x21a8>)
   25dd4:	446d      	add	r5, sp
   25dd6:	70a9      	strb	r1, [r5, #2]
   25dd8:	7841      	ldrb	r1, [r0, #1]
   25dda:	7882      	ldrb	r2, [r0, #2]
   25ddc:	0212      	lsls	r2, r2, #8
   25dde:	1851      	adds	r1, r2, r1
   25de0:	8029      	strh	r1, [r5, #0]
   25de2:	3008      	adds	r0, #8
   25de4:	9909      	ldr	r1, [sp, #36]	@ 0x24
   25de6:	6e09      	ldr	r1, [r1, #96]	@ 0x60
   25de8:	910c      	str	r1, [sp, #48]	@ 0x30
   25dea:	4b12      	ldr	r3, [pc, #72]	@ (25e34 <_start+0x21ac>)
   25dec:	446b      	add	r3, sp
   25dee:	930d      	str	r3, [sp, #52]	@ 0x34
   25df0:	c856      	ldmia	r0!, {r1, r2, r4, r6}
   25df2:	c356      	stmia	r3!, {r1, r2, r4, r6}
   25df4:	8801      	ldrh	r1, [r0, #0]
   25df6:	8019      	strh	r1, [r3, #0]
   25df8:	7880      	ldrb	r0, [r0, #2]
   25dfa:	7098      	strb	r0, [r3, #2]
   25dfc:	990c      	ldr	r1, [sp, #48]	@ 0x30
   25dfe:	0e08      	lsrs	r0, r1, #24
   25e00:	71a8      	strb	r0, [r5, #6]
   25e02:	0c08      	lsrs	r0, r1, #16
   25e04:	7168      	strb	r0, [r5, #5]
   25e06:	0a08      	lsrs	r0, r1, #8
   25e08:	7128      	strb	r0, [r5, #4]
   25e0a:	70e9      	strb	r1, [r5, #3]
   25e0c:	1de8      	adds	r0, r5, #7
   25e0e:	2213      	movs	r2, #19
   25e10:	990d      	ldr	r1, [sp, #52]	@ 0x34
   25e12:	f000 ff40 	bl	26c96 <__aeabi_memcpy>
   25e16:	4c05      	ldr	r4, [pc, #20]	@ (25e2c <_start+0x21a4>)
   25e18:	446c      	add	r4, sp
   25e1a:	4620      	mov	r0, r4
   25e1c:	4629      	mov	r1, r5
   25e1e:	f7fb fa09 	bl	21234 <_ZN20complex_full_dynamic3app17h4482192633648689E>
   25e22:	7820      	ldrb	r0, [r4, #0]
   25e24:	2801      	cmp	r0, #1
   25e26:	d107      	bne.n	25e38 <_start+0x21b0>
   25e28:	f7fe fa93 	bl	24352 <_start+0x6ca>
   25e2c:	0000140c 	.word	0x0000140c
   25e30:	00000ecc 	.word	0x00000ecc
   25e34:	000013b0 	.word	0x000013b0
   25e38:	4815      	ldr	r0, [pc, #84]	@ (25e90 <_start+0x2208>)
   25e3a:	4468      	add	r0, sp
   25e3c:	78c1      	ldrb	r1, [r0, #3]
   25e3e:	4d15      	ldr	r5, [pc, #84]	@ (25e94 <_start+0x220c>)
   25e40:	446d      	add	r5, sp
   25e42:	70a9      	strb	r1, [r5, #2]
   25e44:	7841      	ldrb	r1, [r0, #1]
   25e46:	7882      	ldrb	r2, [r0, #2]
   25e48:	0212      	lsls	r2, r2, #8
   25e4a:	1851      	adds	r1, r2, r1
   25e4c:	8029      	strh	r1, [r5, #0]
   25e4e:	3008      	adds	r0, #8
   25e50:	9909      	ldr	r1, [sp, #36]	@ 0x24
   25e52:	6e09      	ldr	r1, [r1, #96]	@ 0x60
   25e54:	4b10      	ldr	r3, [pc, #64]	@ (25e98 <_start+0x2210>)
   25e56:	446b      	add	r3, sp
   25e58:	930d      	str	r3, [sp, #52]	@ 0x34
   25e5a:	c850      	ldmia	r0!, {r4, r6}
   25e5c:	c350      	stmia	r3!, {r4, r6}
   25e5e:	c854      	ldmia	r0!, {r2, r4, r6}
   25e60:	c354      	stmia	r3!, {r2, r4, r6}
   25e62:	0e08      	lsrs	r0, r1, #24
   25e64:	71a8      	strb	r0, [r5, #6]
   25e66:	0c08      	lsrs	r0, r1, #16
   25e68:	7168      	strb	r0, [r5, #5]
   25e6a:	0a08      	lsrs	r0, r1, #8
   25e6c:	7128      	strb	r0, [r5, #4]
   25e6e:	70e9      	strb	r1, [r5, #3]
   25e70:	1de8      	adds	r0, r5, #7
   25e72:	2214      	movs	r2, #20
   25e74:	990d      	ldr	r1, [sp, #52]	@ 0x34
   25e76:	f000 ff0e 	bl	26c96 <__aeabi_memcpy>
   25e7a:	4c05      	ldr	r4, [pc, #20]	@ (25e90 <_start+0x2208>)
   25e7c:	446c      	add	r4, sp
   25e7e:	4620      	mov	r0, r4
   25e80:	4629      	mov	r1, r5
   25e82:	f7fc fa0d 	bl	222a0 <_ZN20complex_full_dynamic3app17h7b5084fbd4686958E>
   25e86:	7820      	ldrb	r0, [r4, #0]
   25e88:	2801      	cmp	r0, #1
   25e8a:	d107      	bne.n	25e9c <_start+0x2214>
   25e8c:	f7fe fa61 	bl	24352 <_start+0x6ca>
   25e90:	0000140c 	.word	0x0000140c
   25e94:	00000ee8 	.word	0x00000ee8
   25e98:	000013b0 	.word	0x000013b0
   25e9c:	4819      	ldr	r0, [pc, #100]	@ (25f04 <_start+0x227c>)
   25e9e:	4468      	add	r0, sp
   25ea0:	78c1      	ldrb	r1, [r0, #3]
   25ea2:	4d19      	ldr	r5, [pc, #100]	@ (25f08 <_start+0x2280>)
   25ea4:	446d      	add	r5, sp
   25ea6:	70a9      	strb	r1, [r5, #2]
   25ea8:	7841      	ldrb	r1, [r0, #1]
   25eaa:	7882      	ldrb	r2, [r0, #2]
   25eac:	0212      	lsls	r2, r2, #8
   25eae:	1851      	adds	r1, r2, r1
   25eb0:	8029      	strh	r1, [r5, #0]
   25eb2:	3008      	adds	r0, #8
   25eb4:	9909      	ldr	r1, [sp, #36]	@ 0x24
   25eb6:	6e09      	ldr	r1, [r1, #96]	@ 0x60
   25eb8:	910c      	str	r1, [sp, #48]	@ 0x30
   25eba:	4b14      	ldr	r3, [pc, #80]	@ (25f0c <_start+0x2284>)
   25ebc:	446b      	add	r3, sp
   25ebe:	930d      	str	r3, [sp, #52]	@ 0x34
   25ec0:	c854      	ldmia	r0!, {r2, r4, r6}
   25ec2:	c354      	stmia	r3!, {r2, r4, r6}
   25ec4:	c856      	ldmia	r0!, {r1, r2, r4, r6}
   25ec6:	c356      	stmia	r3!, {r1, r2, r4, r6}
   25ec8:	c816      	ldmia	r0!, {r1, r2, r4}
   25eca:	c316      	stmia	r3!, {r1, r2, r4}
   25ecc:	c856      	ldmia	r0!, {r1, r2, r4, r6}
   25ece:	c356      	stmia	r3!, {r1, r2, r4, r6}
   25ed0:	8800      	ldrh	r0, [r0, #0]
   25ed2:	8018      	strh	r0, [r3, #0]
   25ed4:	990c      	ldr	r1, [sp, #48]	@ 0x30
   25ed6:	0e08      	lsrs	r0, r1, #24
   25ed8:	71a8      	strb	r0, [r5, #6]
   25eda:	0c08      	lsrs	r0, r1, #16
   25edc:	7168      	strb	r0, [r5, #5]
   25ede:	0a08      	lsrs	r0, r1, #8
   25ee0:	7128      	strb	r0, [r5, #4]
   25ee2:	70e9      	strb	r1, [r5, #3]
   25ee4:	1de8      	adds	r0, r5, #7
   25ee6:	223a      	movs	r2, #58	@ 0x3a
   25ee8:	990d      	ldr	r1, [sp, #52]	@ 0x34
   25eea:	f000 fed4 	bl	26c96 <__aeabi_memcpy>
   25eee:	4c05      	ldr	r4, [pc, #20]	@ (25f04 <_start+0x227c>)
   25ef0:	446c      	add	r4, sp
   25ef2:	4620      	mov	r0, r4
   25ef4:	4629      	mov	r1, r5
   25ef6:	f7fb fe55 	bl	21ba4 <_ZN20complex_full_dynamic3app17h65c15d20a6078d4aE>
   25efa:	7820      	ldrb	r0, [r4, #0]
   25efc:	2801      	cmp	r0, #1
   25efe:	d107      	bne.n	25f10 <_start+0x2288>
   25f00:	f7fe fa27 	bl	24352 <_start+0x6ca>
   25f04:	0000140c 	.word	0x0000140c
   25f08:	00000f04 	.word	0x00000f04
   25f0c:	000013b0 	.word	0x000013b0
   25f10:	4816      	ldr	r0, [pc, #88]	@ (25f6c <_start+0x22e4>)
   25f12:	4468      	add	r0, sp
   25f14:	78c1      	ldrb	r1, [r0, #3]
   25f16:	4d16      	ldr	r5, [pc, #88]	@ (25f70 <_start+0x22e8>)
   25f18:	446d      	add	r5, sp
   25f1a:	70a9      	strb	r1, [r5, #2]
   25f1c:	7841      	ldrb	r1, [r0, #1]
   25f1e:	7882      	ldrb	r2, [r0, #2]
   25f20:	0212      	lsls	r2, r2, #8
   25f22:	1851      	adds	r1, r2, r1
   25f24:	8029      	strh	r1, [r5, #0]
   25f26:	3008      	adds	r0, #8
   25f28:	9909      	ldr	r1, [sp, #36]	@ 0x24
   25f2a:	6e09      	ldr	r1, [r1, #96]	@ 0x60
   25f2c:	910c      	str	r1, [sp, #48]	@ 0x30
   25f2e:	4b11      	ldr	r3, [pc, #68]	@ (25f74 <_start+0x22ec>)
   25f30:	446b      	add	r3, sp
   25f32:	930d      	str	r3, [sp, #52]	@ 0x34
   25f34:	c856      	ldmia	r0!, {r1, r2, r4, r6}
   25f36:	c356      	stmia	r3!, {r1, r2, r4, r6}
   25f38:	7800      	ldrb	r0, [r0, #0]
   25f3a:	7018      	strb	r0, [r3, #0]
   25f3c:	990c      	ldr	r1, [sp, #48]	@ 0x30
   25f3e:	0e08      	lsrs	r0, r1, #24
   25f40:	71a8      	strb	r0, [r5, #6]
   25f42:	0c08      	lsrs	r0, r1, #16
   25f44:	7168      	strb	r0, [r5, #5]
   25f46:	0a08      	lsrs	r0, r1, #8
   25f48:	7128      	strb	r0, [r5, #4]
   25f4a:	70e9      	strb	r1, [r5, #3]
   25f4c:	1de8      	adds	r0, r5, #7
   25f4e:	2211      	movs	r2, #17
   25f50:	990d      	ldr	r1, [sp, #52]	@ 0x34
   25f52:	f000 fea0 	bl	26c96 <__aeabi_memcpy>
   25f56:	4c05      	ldr	r4, [pc, #20]	@ (25f6c <_start+0x22e4>)
   25f58:	446c      	add	r4, sp
   25f5a:	4620      	mov	r0, r4
   25f5c:	4629      	mov	r1, r5
   25f5e:	f7fd fd9f 	bl	23aa0 <_ZN20complex_full_dynamic3app17hfe417fe85270e80eE>
   25f62:	7820      	ldrb	r0, [r4, #0]
   25f64:	2801      	cmp	r0, #1
   25f66:	d107      	bne.n	25f78 <_start+0x22f0>
   25f68:	f7fe f9f3 	bl	24352 <_start+0x6ca>
   25f6c:	0000140c 	.word	0x0000140c
   25f70:	00000f48 	.word	0x00000f48
   25f74:	000013b0 	.word	0x000013b0
   25f78:	4817      	ldr	r0, [pc, #92]	@ (25fd8 <_start+0x2350>)
   25f7a:	4468      	add	r0, sp
   25f7c:	78c1      	ldrb	r1, [r0, #3]
   25f7e:	4d17      	ldr	r5, [pc, #92]	@ (25fdc <_start+0x2354>)
   25f80:	446d      	add	r5, sp
   25f82:	70a9      	strb	r1, [r5, #2]
   25f84:	7841      	ldrb	r1, [r0, #1]
   25f86:	7882      	ldrb	r2, [r0, #2]
   25f88:	0212      	lsls	r2, r2, #8
   25f8a:	1851      	adds	r1, r2, r1
   25f8c:	8029      	strh	r1, [r5, #0]
   25f8e:	3008      	adds	r0, #8
   25f90:	9909      	ldr	r1, [sp, #36]	@ 0x24
   25f92:	6e09      	ldr	r1, [r1, #96]	@ 0x60
   25f94:	4b12      	ldr	r3, [pc, #72]	@ (25fe0 <_start+0x2358>)
   25f96:	446b      	add	r3, sp
   25f98:	930d      	str	r3, [sp, #52]	@ 0x34
   25f9a:	c850      	ldmia	r0!, {r4, r6}
   25f9c:	c350      	stmia	r3!, {r4, r6}
   25f9e:	c854      	ldmia	r0!, {r2, r4, r6}
   25fa0:	c354      	stmia	r3!, {r2, r4, r6}
   25fa2:	8802      	ldrh	r2, [r0, #0]
   25fa4:	801a      	strh	r2, [r3, #0]
   25fa6:	7880      	ldrb	r0, [r0, #2]
   25fa8:	7098      	strb	r0, [r3, #2]
   25faa:	0e08      	lsrs	r0, r1, #24
   25fac:	71a8      	strb	r0, [r5, #6]
   25fae:	0c08      	lsrs	r0, r1, #16
   25fb0:	7168      	strb	r0, [r5, #5]
   25fb2:	0a08      	lsrs	r0, r1, #8
   25fb4:	7128      	strb	r0, [r5, #4]
   25fb6:	70e9      	strb	r1, [r5, #3]
   25fb8:	1de8      	adds	r0, r5, #7
   25fba:	2217      	movs	r2, #23
   25fbc:	990d      	ldr	r1, [sp, #52]	@ 0x34
   25fbe:	f000 fe6a 	bl	26c96 <__aeabi_memcpy>
   25fc2:	4c05      	ldr	r4, [pc, #20]	@ (25fd8 <_start+0x2350>)
   25fc4:	446c      	add	r4, sp
   25fc6:	4620      	mov	r0, r4
   25fc8:	4629      	mov	r1, r5
   25fca:	f7fd fc27 	bl	2381c <_ZN20complex_full_dynamic3app17hec831ff706ff4483E>
   25fce:	7820      	ldrb	r0, [r4, #0]
   25fd0:	2801      	cmp	r0, #1
   25fd2:	d107      	bne.n	25fe4 <_start+0x235c>
   25fd4:	f7fe f9bd 	bl	24352 <_start+0x6ca>
   25fd8:	0000140c 	.word	0x0000140c
   25fdc:	00000f60 	.word	0x00000f60
   25fe0:	000013b0 	.word	0x000013b0
   25fe4:	4819      	ldr	r0, [pc, #100]	@ (2604c <_start+0x23c4>)
   25fe6:	4468      	add	r0, sp
   25fe8:	78c1      	ldrb	r1, [r0, #3]
   25fea:	4d19      	ldr	r5, [pc, #100]	@ (26050 <_start+0x23c8>)
   25fec:	446d      	add	r5, sp
   25fee:	70a9      	strb	r1, [r5, #2]
   25ff0:	7841      	ldrb	r1, [r0, #1]
   25ff2:	7882      	ldrb	r2, [r0, #2]
   25ff4:	0212      	lsls	r2, r2, #8
   25ff6:	1851      	adds	r1, r2, r1
   25ff8:	8029      	strh	r1, [r5, #0]
   25ffa:	3008      	adds	r0, #8
   25ffc:	9909      	ldr	r1, [sp, #36]	@ 0x24
   25ffe:	6e09      	ldr	r1, [r1, #96]	@ 0x60
   26000:	910c      	str	r1, [sp, #48]	@ 0x30
   26002:	4b14      	ldr	r3, [pc, #80]	@ (26054 <_start+0x23cc>)
   26004:	446b      	add	r3, sp
   26006:	930d      	str	r3, [sp, #52]	@ 0x34
   26008:	c854      	ldmia	r0!, {r2, r4, r6}
   2600a:	c354      	stmia	r3!, {r2, r4, r6}
   2600c:	c854      	ldmia	r0!, {r2, r4, r6}
   2600e:	c354      	stmia	r3!, {r2, r4, r6}
   26010:	c854      	ldmia	r0!, {r2, r4, r6}
   26012:	c354      	stmia	r3!, {r2, r4, r6}
   26014:	c856      	ldmia	r0!, {r1, r2, r4, r6}
   26016:	c356      	stmia	r3!, {r1, r2, r4, r6}
   26018:	7800      	ldrb	r0, [r0, #0]
   2601a:	7018      	strb	r0, [r3, #0]
   2601c:	990c      	ldr	r1, [sp, #48]	@ 0x30
   2601e:	0e08      	lsrs	r0, r1, #24
   26020:	71a8      	strb	r0, [r5, #6]
   26022:	0c08      	lsrs	r0, r1, #16
   26024:	7168      	strb	r0, [r5, #5]
   26026:	0a08      	lsrs	r0, r1, #8
   26028:	7128      	strb	r0, [r5, #4]
   2602a:	70e9      	strb	r1, [r5, #3]
   2602c:	1de8      	adds	r0, r5, #7
   2602e:	2235      	movs	r2, #53	@ 0x35
   26030:	990d      	ldr	r1, [sp, #52]	@ 0x34
   26032:	f000 fe30 	bl	26c96 <__aeabi_memcpy>
   26036:	4c05      	ldr	r4, [pc, #20]	@ (2604c <_start+0x23c4>)
   26038:	446c      	add	r4, sp
   2603a:	4620      	mov	r0, r4
   2603c:	4629      	mov	r1, r5
   2603e:	f7fd fcdd 	bl	239fc <_ZN20complex_full_dynamic3app17hf8b8766ad141aee6E>
   26042:	7820      	ldrb	r0, [r4, #0]
   26044:	2801      	cmp	r0, #1
   26046:	d107      	bne.n	26058 <_start+0x23d0>
   26048:	f7fe f983 	bl	24352 <_start+0x6ca>
   2604c:	0000140c 	.word	0x0000140c
   26050:	00000f80 	.word	0x00000f80
   26054:	000013b0 	.word	0x000013b0
   26058:	4817      	ldr	r0, [pc, #92]	@ (260b8 <_start+0x2430>)
   2605a:	4468      	add	r0, sp
   2605c:	78c1      	ldrb	r1, [r0, #3]
   2605e:	4d17      	ldr	r5, [pc, #92]	@ (260bc <_start+0x2434>)
   26060:	446d      	add	r5, sp
   26062:	70a9      	strb	r1, [r5, #2]
   26064:	7841      	ldrb	r1, [r0, #1]
   26066:	7882      	ldrb	r2, [r0, #2]
   26068:	0212      	lsls	r2, r2, #8
   2606a:	1851      	adds	r1, r2, r1
   2606c:	8029      	strh	r1, [r5, #0]
   2606e:	3008      	adds	r0, #8
   26070:	9909      	ldr	r1, [sp, #36]	@ 0x24
   26072:	6e09      	ldr	r1, [r1, #96]	@ 0x60
   26074:	4b12      	ldr	r3, [pc, #72]	@ (260c0 <_start+0x2438>)
   26076:	446b      	add	r3, sp
   26078:	930d      	str	r3, [sp, #52]	@ 0x34
   2607a:	c854      	ldmia	r0!, {r2, r4, r6}
   2607c:	c354      	stmia	r3!, {r2, r4, r6}
   2607e:	c854      	ldmia	r0!, {r2, r4, r6}
   26080:	c354      	stmia	r3!, {r2, r4, r6}
   26082:	c854      	ldmia	r0!, {r2, r4, r6}
   26084:	c354      	stmia	r3!, {r2, r4, r6}
   26086:	7800      	ldrb	r0, [r0, #0]
   26088:	7018      	strb	r0, [r3, #0]
   2608a:	0e08      	lsrs	r0, r1, #24
   2608c:	71a8      	strb	r0, [r5, #6]
   2608e:	0c08      	lsrs	r0, r1, #16
   26090:	7168      	strb	r0, [r5, #5]
   26092:	0a08      	lsrs	r0, r1, #8
   26094:	7128      	strb	r0, [r5, #4]
   26096:	70e9      	strb	r1, [r5, #3]
   26098:	1de8      	adds	r0, r5, #7
   2609a:	2225      	movs	r2, #37	@ 0x25
   2609c:	990d      	ldr	r1, [sp, #52]	@ 0x34
   2609e:	f000 fdfa 	bl	26c96 <__aeabi_memcpy>
   260a2:	4c05      	ldr	r4, [pc, #20]	@ (260b8 <_start+0x2430>)
   260a4:	446c      	add	r4, sp
   260a6:	4620      	mov	r0, r4
   260a8:	4629      	mov	r1, r5
   260aa:	f7fd fc57 	bl	2395c <_ZN20complex_full_dynamic3app17hf6c1bed60bcd6654E>
   260ae:	7820      	ldrb	r0, [r4, #0]
   260b0:	2801      	cmp	r0, #1
   260b2:	d107      	bne.n	260c4 <_start+0x243c>
   260b4:	f7fe f94d 	bl	24352 <_start+0x6ca>
   260b8:	0000140c 	.word	0x0000140c
   260bc:	00000fbc 	.word	0x00000fbc
   260c0:	000013b0 	.word	0x000013b0
   260c4:	4816      	ldr	r0, [pc, #88]	@ (26120 <_start+0x2498>)
   260c6:	4468      	add	r0, sp
   260c8:	78c1      	ldrb	r1, [r0, #3]
   260ca:	4d16      	ldr	r5, [pc, #88]	@ (26124 <_start+0x249c>)
   260cc:	446d      	add	r5, sp
   260ce:	70a9      	strb	r1, [r5, #2]
   260d0:	7841      	ldrb	r1, [r0, #1]
   260d2:	7882      	ldrb	r2, [r0, #2]
   260d4:	0212      	lsls	r2, r2, #8
   260d6:	1851      	adds	r1, r2, r1
   260d8:	8029      	strh	r1, [r5, #0]
   260da:	3008      	adds	r0, #8
   260dc:	9909      	ldr	r1, [sp, #36]	@ 0x24
   260de:	6e09      	ldr	r1, [r1, #96]	@ 0x60
   260e0:	910c      	str	r1, [sp, #48]	@ 0x30
   260e2:	4b11      	ldr	r3, [pc, #68]	@ (26128 <_start+0x24a0>)
   260e4:	446b      	add	r3, sp
   260e6:	930d      	str	r3, [sp, #52]	@ 0x34
   260e8:	c856      	ldmia	r0!, {r1, r2, r4, r6}
   260ea:	c356      	stmia	r3!, {r1, r2, r4, r6}
   260ec:	c856      	ldmia	r0!, {r1, r2, r4, r6}
   260ee:	c356      	stmia	r3!, {r1, r2, r4, r6}
   260f0:	990c      	ldr	r1, [sp, #48]	@ 0x30
   260f2:	0e08      	lsrs	r0, r1, #24
   260f4:	71a8      	strb	r0, [r5, #6]
   260f6:	0c08      	lsrs	r0, r1, #16
   260f8:	7168      	strb	r0, [r5, #5]
   260fa:	0a08      	lsrs	r0, r1, #8
   260fc:	7128      	strb	r0, [r5, #4]
   260fe:	70e9      	strb	r1, [r5, #3]
   26100:	1de8      	adds	r0, r5, #7
   26102:	2220      	movs	r2, #32
   26104:	990d      	ldr	r1, [sp, #52]	@ 0x34
   26106:	f000 fdc6 	bl	26c96 <__aeabi_memcpy>
   2610a:	4c05      	ldr	r4, [pc, #20]	@ (26120 <_start+0x2498>)
   2610c:	446c      	add	r4, sp
   2610e:	4620      	mov	r0, r4
   26110:	4629      	mov	r1, r5
   26112:	f7fb fe8d 	bl	21e30 <_ZN20complex_full_dynamic3app17h715291efaef6a7f7E>
   26116:	7820      	ldrb	r0, [r4, #0]
   26118:	2801      	cmp	r0, #1
   2611a:	d107      	bne.n	2612c <_start+0x24a4>
   2611c:	f7fe f919 	bl	24352 <_start+0x6ca>
   26120:	0000140c 	.word	0x0000140c
   26124:	00000fe8 	.word	0x00000fe8
   26128:	000013b0 	.word	0x000013b0
   2612c:	4915      	ldr	r1, [pc, #84]	@ (26184 <_start+0x24fc>)
   2612e:	4469      	add	r1, sp
   26130:	78c8      	ldrb	r0, [r1, #3]
   26132:	4d15      	ldr	r5, [pc, #84]	@ (26188 <_start+0x2500>)
   26134:	446d      	add	r5, sp
   26136:	70a8      	strb	r0, [r5, #2]
   26138:	7848      	ldrb	r0, [r1, #1]
   2613a:	788a      	ldrb	r2, [r1, #2]
   2613c:	0212      	lsls	r2, r2, #8
   2613e:	1810      	adds	r0, r2, r0
   26140:	8028      	strh	r0, [r5, #0]
   26142:	9809      	ldr	r0, [sp, #36]	@ 0x24
   26144:	6e04      	ldr	r4, [r0, #96]	@ 0x60
   26146:	3108      	adds	r1, #8
   26148:	4810      	ldr	r0, [pc, #64]	@ (2618c <_start+0x2504>)
   2614a:	4468      	add	r0, sp
   2614c:	900d      	str	r0, [sp, #52]	@ 0x34
   2614e:	2648      	movs	r6, #72	@ 0x48
   26150:	4632      	mov	r2, r6
   26152:	f000 fc40 	bl	269d6 <__aeabi_memcpy4>
   26156:	0e20      	lsrs	r0, r4, #24
   26158:	71a8      	strb	r0, [r5, #6]
   2615a:	0c20      	lsrs	r0, r4, #16
   2615c:	7168      	strb	r0, [r5, #5]
   2615e:	0a20      	lsrs	r0, r4, #8
   26160:	7128      	strb	r0, [r5, #4]
   26162:	70ec      	strb	r4, [r5, #3]
   26164:	1de8      	adds	r0, r5, #7
   26166:	990d      	ldr	r1, [sp, #52]	@ 0x34
   26168:	4632      	mov	r2, r6
   2616a:	f000 fd94 	bl	26c96 <__aeabi_memcpy>
   2616e:	4c05      	ldr	r4, [pc, #20]	@ (26184 <_start+0x24fc>)
   26170:	446c      	add	r4, sp
   26172:	4620      	mov	r0, r4
   26174:	4629      	mov	r1, r5
   26176:	f7fa fa0b 	bl	20590 <_ZN20complex_full_dynamic3app17h1e88adca357812dbE>
   2617a:	7820      	ldrb	r0, [r4, #0]
   2617c:	2801      	cmp	r0, #1
   2617e:	d107      	bne.n	26190 <_start+0x2508>
   26180:	f7fe f8e7 	bl	24352 <_start+0x6ca>
   26184:	0000140c 	.word	0x0000140c
   26188:	00001010 	.word	0x00001010
   2618c:	000013b0 	.word	0x000013b0
   26190:	4818      	ldr	r0, [pc, #96]	@ (261f4 <_start+0x256c>)
   26192:	4468      	add	r0, sp
   26194:	78c1      	ldrb	r1, [r0, #3]
   26196:	4d18      	ldr	r5, [pc, #96]	@ (261f8 <_start+0x2570>)
   26198:	446d      	add	r5, sp
   2619a:	70a9      	strb	r1, [r5, #2]
   2619c:	7841      	ldrb	r1, [r0, #1]
   2619e:	7882      	ldrb	r2, [r0, #2]
   261a0:	0212      	lsls	r2, r2, #8
   261a2:	1851      	adds	r1, r2, r1
   261a4:	8029      	strh	r1, [r5, #0]
   261a6:	3008      	adds	r0, #8
   261a8:	9909      	ldr	r1, [sp, #36]	@ 0x24
   261aa:	6e09      	ldr	r1, [r1, #96]	@ 0x60
   261ac:	910c      	str	r1, [sp, #48]	@ 0x30
   261ae:	4b13      	ldr	r3, [pc, #76]	@ (261fc <_start+0x2574>)
   261b0:	446b      	add	r3, sp
   261b2:	930d      	str	r3, [sp, #52]	@ 0x34
   261b4:	c854      	ldmia	r0!, {r2, r4, r6}
   261b6:	c354      	stmia	r3!, {r2, r4, r6}
   261b8:	c856      	ldmia	r0!, {r1, r2, r4, r6}
   261ba:	c356      	stmia	r3!, {r1, r2, r4, r6}
   261bc:	c856      	ldmia	r0!, {r1, r2, r4, r6}
   261be:	c356      	stmia	r3!, {r1, r2, r4, r6}
   261c0:	8800      	ldrh	r0, [r0, #0]
   261c2:	8018      	strh	r0, [r3, #0]
   261c4:	990c      	ldr	r1, [sp, #48]	@ 0x30
   261c6:	0e08      	lsrs	r0, r1, #24
   261c8:	71a8      	strb	r0, [r5, #6]
   261ca:	0c08      	lsrs	r0, r1, #16
   261cc:	7168      	strb	r0, [r5, #5]
   261ce:	0a08      	lsrs	r0, r1, #8
   261d0:	7128      	strb	r0, [r5, #4]
   261d2:	70e9      	strb	r1, [r5, #3]
   261d4:	1de8      	adds	r0, r5, #7
   261d6:	222e      	movs	r2, #46	@ 0x2e
   261d8:	990d      	ldr	r1, [sp, #52]	@ 0x34
   261da:	f000 fd5c 	bl	26c96 <__aeabi_memcpy>
   261de:	4c05      	ldr	r4, [pc, #20]	@ (261f4 <_start+0x256c>)
   261e0:	446c      	add	r4, sp
   261e2:	4620      	mov	r0, r4
   261e4:	4629      	mov	r1, r5
   261e6:	f7fb f9b5 	bl	21554 <_ZN20complex_full_dynamic3app17h4c6d9e6e52c24a59E>
   261ea:	7820      	ldrb	r0, [r4, #0]
   261ec:	2801      	cmp	r0, #1
   261ee:	d107      	bne.n	26200 <_start+0x2578>
   261f0:	f7fe f8af 	bl	24352 <_start+0x6ca>
   261f4:	0000140c 	.word	0x0000140c
   261f8:	00001060 	.word	0x00001060
   261fc:	000013b0 	.word	0x000013b0
   26200:	4818      	ldr	r0, [pc, #96]	@ (26264 <_start+0x25dc>)
   26202:	4468      	add	r0, sp
   26204:	78c1      	ldrb	r1, [r0, #3]
   26206:	4d18      	ldr	r5, [pc, #96]	@ (26268 <_start+0x25e0>)
   26208:	446d      	add	r5, sp
   2620a:	70a9      	strb	r1, [r5, #2]
   2620c:	7841      	ldrb	r1, [r0, #1]
   2620e:	7882      	ldrb	r2, [r0, #2]
   26210:	0212      	lsls	r2, r2, #8
   26212:	1851      	adds	r1, r2, r1
   26214:	8029      	strh	r1, [r5, #0]
   26216:	3008      	adds	r0, #8
   26218:	9909      	ldr	r1, [sp, #36]	@ 0x24
   2621a:	6e09      	ldr	r1, [r1, #96]	@ 0x60
   2621c:	910c      	str	r1, [sp, #48]	@ 0x30
   2621e:	4b13      	ldr	r3, [pc, #76]	@ (2626c <_start+0x25e4>)
   26220:	446b      	add	r3, sp
   26222:	930d      	str	r3, [sp, #52]	@ 0x34
   26224:	c854      	ldmia	r0!, {r2, r4, r6}
   26226:	c354      	stmia	r3!, {r2, r4, r6}
   26228:	c856      	ldmia	r0!, {r1, r2, r4, r6}
   2622a:	c356      	stmia	r3!, {r1, r2, r4, r6}
   2622c:	c816      	ldmia	r0!, {r1, r2, r4}
   2622e:	c316      	stmia	r3!, {r1, r2, r4}
   26230:	c856      	ldmia	r0!, {r1, r2, r4, r6}
   26232:	c356      	stmia	r3!, {r1, r2, r4, r6}
   26234:	990c      	ldr	r1, [sp, #48]	@ 0x30
   26236:	0e08      	lsrs	r0, r1, #24
   26238:	71a8      	strb	r0, [r5, #6]
   2623a:	0c08      	lsrs	r0, r1, #16
   2623c:	7168      	strb	r0, [r5, #5]
   2623e:	0a08      	lsrs	r0, r1, #8
   26240:	7128      	strb	r0, [r5, #4]
   26242:	70e9      	strb	r1, [r5, #3]
   26244:	1de8      	adds	r0, r5, #7
   26246:	2238      	movs	r2, #56	@ 0x38
   26248:	990d      	ldr	r1, [sp, #52]	@ 0x34
   2624a:	f000 fd24 	bl	26c96 <__aeabi_memcpy>
   2624e:	4c05      	ldr	r4, [pc, #20]	@ (26264 <_start+0x25dc>)
   26250:	446c      	add	r4, sp
   26252:	4620      	mov	r0, r4
   26254:	4629      	mov	r1, r5
   26256:	f7fb ff2f 	bl	220b8 <_ZN20complex_full_dynamic3app17h76b7c88c03fff67eE>
   2625a:	7820      	ldrb	r0, [r4, #0]
   2625c:	2801      	cmp	r0, #1
   2625e:	d107      	bne.n	26270 <_start+0x25e8>
   26260:	f7fe f877 	bl	24352 <_start+0x6ca>
   26264:	0000140c 	.word	0x0000140c
   26268:	00001098 	.word	0x00001098
   2626c:	000013b0 	.word	0x000013b0
   26270:	4815      	ldr	r0, [pc, #84]	@ (262c8 <_start+0x2640>)
   26272:	4468      	add	r0, sp
   26274:	78c1      	ldrb	r1, [r0, #3]
   26276:	4d15      	ldr	r5, [pc, #84]	@ (262cc <_start+0x2644>)
   26278:	446d      	add	r5, sp
   2627a:	70a9      	strb	r1, [r5, #2]
   2627c:	7841      	ldrb	r1, [r0, #1]
   2627e:	7882      	ldrb	r2, [r0, #2]
   26280:	0212      	lsls	r2, r2, #8
   26282:	1851      	adds	r1, r2, r1
   26284:	8029      	strh	r1, [r5, #0]
   26286:	3008      	adds	r0, #8
   26288:	9909      	ldr	r1, [sp, #36]	@ 0x24
   2628a:	6e0a      	ldr	r2, [r1, #96]	@ 0x60
   2628c:	4910      	ldr	r1, [pc, #64]	@ (262d0 <_start+0x2648>)
   2628e:	4469      	add	r1, sp
   26290:	460b      	mov	r3, r1
   26292:	c850      	ldmia	r0!, {r4, r6}
   26294:	c350      	stmia	r3!, {r4, r6}
   26296:	8800      	ldrh	r0, [r0, #0]
   26298:	8018      	strh	r0, [r3, #0]
   2629a:	0e10      	lsrs	r0, r2, #24
   2629c:	71a8      	strb	r0, [r5, #6]
   2629e:	0c10      	lsrs	r0, r2, #16
   262a0:	7168      	strb	r0, [r5, #5]
   262a2:	0a10      	lsrs	r0, r2, #8
   262a4:	7128      	strb	r0, [r5, #4]
   262a6:	70ea      	strb	r2, [r5, #3]
   262a8:	1de8      	adds	r0, r5, #7
   262aa:	220a      	movs	r2, #10
   262ac:	f000 fcf3 	bl	26c96 <__aeabi_memcpy>
   262b0:	4c05      	ldr	r4, [pc, #20]	@ (262c8 <_start+0x2640>)
   262b2:	446c      	add	r4, sp
   262b4:	4620      	mov	r0, r4
   262b6:	4629      	mov	r1, r5
   262b8:	f7fd fa0e 	bl	236d8 <_ZN20complex_full_dynamic3app17head7bf018297ddb5E>
   262bc:	7820      	ldrb	r0, [r4, #0]
   262be:	2801      	cmp	r0, #1
   262c0:	d108      	bne.n	262d4 <_start+0x264c>
   262c2:	f7fe f846 	bl	24352 <_start+0x6ca>
   262c6:	46c0      	nop			@ (mov r8, r8)
   262c8:	0000140c 	.word	0x0000140c
   262cc:	000010d8 	.word	0x000010d8
   262d0:	000013b0 	.word	0x000013b0
   262d4:	4818      	ldr	r0, [pc, #96]	@ (26338 <_start+0x26b0>)
   262d6:	4468      	add	r0, sp
   262d8:	78c1      	ldrb	r1, [r0, #3]
   262da:	4d18      	ldr	r5, [pc, #96]	@ (2633c <_start+0x26b4>)
   262dc:	446d      	add	r5, sp
   262de:	70a9      	strb	r1, [r5, #2]
   262e0:	7841      	ldrb	r1, [r0, #1]
   262e2:	7882      	ldrb	r2, [r0, #2]
   262e4:	0212      	lsls	r2, r2, #8
   262e6:	1851      	adds	r1, r2, r1
   262e8:	8029      	strh	r1, [r5, #0]
   262ea:	3008      	adds	r0, #8
   262ec:	9909      	ldr	r1, [sp, #36]	@ 0x24
   262ee:	6e09      	ldr	r1, [r1, #96]	@ 0x60
   262f0:	910c      	str	r1, [sp, #48]	@ 0x30
   262f2:	4b13      	ldr	r3, [pc, #76]	@ (26340 <_start+0x26b8>)
   262f4:	446b      	add	r3, sp
   262f6:	930d      	str	r3, [sp, #52]	@ 0x34
   262f8:	c854      	ldmia	r0!, {r2, r4, r6}
   262fa:	c354      	stmia	r3!, {r2, r4, r6}
   262fc:	c856      	ldmia	r0!, {r1, r2, r4, r6}
   262fe:	c356      	stmia	r3!, {r1, r2, r4, r6}
   26300:	c816      	ldmia	r0!, {r1, r2, r4}
   26302:	c316      	stmia	r3!, {r1, r2, r4}
   26304:	c856      	ldmia	r0!, {r1, r2, r4, r6}
   26306:	c356      	stmia	r3!, {r1, r2, r4, r6}
   26308:	990c      	ldr	r1, [sp, #48]	@ 0x30
   2630a:	0e08      	lsrs	r0, r1, #24
   2630c:	71a8      	strb	r0, [r5, #6]
   2630e:	0c08      	lsrs	r0, r1, #16
   26310:	7168      	strb	r0, [r5, #5]
   26312:	0a08      	lsrs	r0, r1, #8
   26314:	7128      	strb	r0, [r5, #4]
   26316:	70e9      	strb	r1, [r5, #3]
   26318:	1de8      	adds	r0, r5, #7
   2631a:	2238      	movs	r2, #56	@ 0x38
   2631c:	990d      	ldr	r1, [sp, #52]	@ 0x34
   2631e:	f000 fcba 	bl	26c96 <__aeabi_memcpy>
   26322:	4c05      	ldr	r4, [pc, #20]	@ (26338 <_start+0x26b0>)
   26324:	446c      	add	r4, sp
   26326:	4620      	mov	r0, r4
   26328:	4629      	mov	r1, r5
   2632a:	f7fa fdf1 	bl	20f10 <_ZN20complex_full_dynamic3app17h34209d0a41b0864aE>
   2632e:	7820      	ldrb	r0, [r4, #0]
   26330:	2801      	cmp	r0, #1
   26332:	d107      	bne.n	26344 <_start+0x26bc>
   26334:	f7fe f80d 	bl	24352 <_start+0x6ca>
   26338:	0000140c 	.word	0x0000140c
   2633c:	000010ec 	.word	0x000010ec
   26340:	000013b0 	.word	0x000013b0
   26344:	4816      	ldr	r0, [pc, #88]	@ (263a0 <_start+0x2718>)
   26346:	4468      	add	r0, sp
   26348:	78c1      	ldrb	r1, [r0, #3]
   2634a:	4d16      	ldr	r5, [pc, #88]	@ (263a4 <_start+0x271c>)
   2634c:	446d      	add	r5, sp
   2634e:	70a9      	strb	r1, [r5, #2]
   26350:	7841      	ldrb	r1, [r0, #1]
   26352:	7882      	ldrb	r2, [r0, #2]
   26354:	0212      	lsls	r2, r2, #8
   26356:	1851      	adds	r1, r2, r1
   26358:	8029      	strh	r1, [r5, #0]
   2635a:	3008      	adds	r0, #8
   2635c:	9909      	ldr	r1, [sp, #36]	@ 0x24
   2635e:	6e09      	ldr	r1, [r1, #96]	@ 0x60
   26360:	4b11      	ldr	r3, [pc, #68]	@ (263a8 <_start+0x2720>)
   26362:	446b      	add	r3, sp
   26364:	930d      	str	r3, [sp, #52]	@ 0x34
   26366:	c850      	ldmia	r0!, {r4, r6}
   26368:	c350      	stmia	r3!, {r4, r6}
   2636a:	c854      	ldmia	r0!, {r2, r4, r6}
   2636c:	c354      	stmia	r3!, {r2, r4, r6}
   2636e:	7800      	ldrb	r0, [r0, #0]
   26370:	7018      	strb	r0, [r3, #0]
   26372:	0e08      	lsrs	r0, r1, #24
   26374:	71a8      	strb	r0, [r5, #6]
   26376:	0c08      	lsrs	r0, r1, #16
   26378:	7168      	strb	r0, [r5, #5]
   2637a:	0a08      	lsrs	r0, r1, #8
   2637c:	7128      	strb	r0, [r5, #4]
   2637e:	70e9      	strb	r1, [r5, #3]
   26380:	1de8      	adds	r0, r5, #7
   26382:	2215      	movs	r2, #21
   26384:	990d      	ldr	r1, [sp, #52]	@ 0x34
   26386:	f000 fc86 	bl	26c96 <__aeabi_memcpy>
   2638a:	4c05      	ldr	r4, [pc, #20]	@ (263a0 <_start+0x2718>)
   2638c:	446c      	add	r4, sp
   2638e:	4620      	mov	r0, r4
   26390:	4629      	mov	r1, r5
   26392:	f7fc fdd3 	bl	22f3c <_ZN20complex_full_dynamic3app17hc48617cc7d241585E>
   26396:	7820      	ldrb	r0, [r4, #0]
   26398:	2801      	cmp	r0, #1
   2639a:	d107      	bne.n	263ac <_start+0x2724>
   2639c:	f7fd ffd9 	bl	24352 <_start+0x6ca>
   263a0:	0000140c 	.word	0x0000140c
   263a4:	0000112c 	.word	0x0000112c
   263a8:	000013b0 	.word	0x000013b0
   263ac:	4915      	ldr	r1, [pc, #84]	@ (26404 <_start+0x277c>)
   263ae:	4469      	add	r1, sp
   263b0:	78c8      	ldrb	r0, [r1, #3]
   263b2:	4d15      	ldr	r5, [pc, #84]	@ (26408 <_start+0x2780>)
   263b4:	446d      	add	r5, sp
   263b6:	70a8      	strb	r0, [r5, #2]
   263b8:	7848      	ldrb	r0, [r1, #1]
   263ba:	788a      	ldrb	r2, [r1, #2]
   263bc:	0212      	lsls	r2, r2, #8
   263be:	1810      	adds	r0, r2, r0
   263c0:	8028      	strh	r0, [r5, #0]
   263c2:	9809      	ldr	r0, [sp, #36]	@ 0x24
   263c4:	6e04      	ldr	r4, [r0, #96]	@ 0x60
   263c6:	3108      	adds	r1, #8
   263c8:	4810      	ldr	r0, [pc, #64]	@ (2640c <_start+0x2784>)
   263ca:	4468      	add	r0, sp
   263cc:	900d      	str	r0, [sp, #52]	@ 0x34
   263ce:	2656      	movs	r6, #86	@ 0x56
   263d0:	4632      	mov	r2, r6
   263d2:	f000 fb00 	bl	269d6 <__aeabi_memcpy4>
   263d6:	0e20      	lsrs	r0, r4, #24
   263d8:	71a8      	strb	r0, [r5, #6]
   263da:	0c20      	lsrs	r0, r4, #16
   263dc:	7168      	strb	r0, [r5, #5]
   263de:	0a20      	lsrs	r0, r4, #8
   263e0:	7128      	strb	r0, [r5, #4]
   263e2:	70ec      	strb	r4, [r5, #3]
   263e4:	1de8      	adds	r0, r5, #7
   263e6:	990d      	ldr	r1, [sp, #52]	@ 0x34
   263e8:	4632      	mov	r2, r6
   263ea:	f000 fc54 	bl	26c96 <__aeabi_memcpy>
   263ee:	4c05      	ldr	r4, [pc, #20]	@ (26404 <_start+0x277c>)
   263f0:	446c      	add	r4, sp
   263f2:	4620      	mov	r0, r4
   263f4:	4629      	mov	r1, r5
   263f6:	f7fb fb33 	bl	21a60 <_ZN20complex_full_dynamic3app17h6018571d7e8bed56E>
   263fa:	7820      	ldrb	r0, [r4, #0]
   263fc:	2801      	cmp	r0, #1
   263fe:	d107      	bne.n	26410 <_start+0x2788>
   26400:	f7fd ffa7 	bl	24352 <_start+0x6ca>
   26404:	0000140c 	.word	0x0000140c
   26408:	00001148 	.word	0x00001148
   2640c:	000013b0 	.word	0x000013b0
   26410:	4816      	ldr	r0, [pc, #88]	@ (2646c <_start+0x27e4>)
   26412:	4468      	add	r0, sp
   26414:	78c1      	ldrb	r1, [r0, #3]
   26416:	4d16      	ldr	r5, [pc, #88]	@ (26470 <_start+0x27e8>)
   26418:	446d      	add	r5, sp
   2641a:	70a9      	strb	r1, [r5, #2]
   2641c:	7841      	ldrb	r1, [r0, #1]
   2641e:	7882      	ldrb	r2, [r0, #2]
   26420:	0212      	lsls	r2, r2, #8
   26422:	1851      	adds	r1, r2, r1
   26424:	8029      	strh	r1, [r5, #0]
   26426:	3008      	adds	r0, #8
   26428:	9909      	ldr	r1, [sp, #36]	@ 0x24
   2642a:	6e0a      	ldr	r2, [r1, #96]	@ 0x60
   2642c:	4911      	ldr	r1, [pc, #68]	@ (26474 <_start+0x27ec>)
   2642e:	4469      	add	r1, sp
   26430:	460b      	mov	r3, r1
   26432:	c850      	ldmia	r0!, {r4, r6}
   26434:	c350      	stmia	r3!, {r4, r6}
   26436:	8804      	ldrh	r4, [r0, #0]
   26438:	801c      	strh	r4, [r3, #0]
   2643a:	7880      	ldrb	r0, [r0, #2]
   2643c:	7098      	strb	r0, [r3, #2]
   2643e:	0e10      	lsrs	r0, r2, #24
   26440:	71a8      	strb	r0, [r5, #6]
   26442:	0c10      	lsrs	r0, r2, #16
   26444:	7168      	strb	r0, [r5, #5]
   26446:	0a10      	lsrs	r0, r2, #8
   26448:	7128      	strb	r0, [r5, #4]
   2644a:	70ea      	strb	r2, [r5, #3]
   2644c:	1de8      	adds	r0, r5, #7
   2644e:	220b      	movs	r2, #11
   26450:	f000 fc21 	bl	26c96 <__aeabi_memcpy>
   26454:	4c05      	ldr	r4, [pc, #20]	@ (2646c <_start+0x27e4>)
   26456:	446c      	add	r4, sp
   26458:	4620      	mov	r0, r4
   2645a:	4629      	mov	r1, r5
   2645c:	f7f9 ff08 	bl	20270 <_ZN20complex_full_dynamic3app17h0dcd2a67415bcc80E>
   26460:	7820      	ldrb	r0, [r4, #0]
   26462:	2801      	cmp	r0, #1
   26464:	d108      	bne.n	26478 <_start+0x27f0>
   26466:	f7fd ff74 	bl	24352 <_start+0x6ca>
   2646a:	46c0      	nop			@ (mov r8, r8)
   2646c:	0000140c 	.word	0x0000140c
   26470:	000011a8 	.word	0x000011a8
   26474:	000013b0 	.word	0x000013b0
   26478:	4819      	ldr	r0, [pc, #100]	@ (264e0 <_start+0x2858>)
   2647a:	4468      	add	r0, sp
   2647c:	78c1      	ldrb	r1, [r0, #3]
   2647e:	4d19      	ldr	r5, [pc, #100]	@ (264e4 <_start+0x285c>)
   26480:	446d      	add	r5, sp
   26482:	70a9      	strb	r1, [r5, #2]
   26484:	7841      	ldrb	r1, [r0, #1]
   26486:	7882      	ldrb	r2, [r0, #2]
   26488:	0212      	lsls	r2, r2, #8
   2648a:	1851      	adds	r1, r2, r1
   2648c:	8029      	strh	r1, [r5, #0]
   2648e:	3008      	adds	r0, #8
   26490:	9909      	ldr	r1, [sp, #36]	@ 0x24
   26492:	6e09      	ldr	r1, [r1, #96]	@ 0x60
   26494:	910c      	str	r1, [sp, #48]	@ 0x30
   26496:	4b14      	ldr	r3, [pc, #80]	@ (264e8 <_start+0x2860>)
   26498:	446b      	add	r3, sp
   2649a:	930d      	str	r3, [sp, #52]	@ 0x34
   2649c:	c854      	ldmia	r0!, {r2, r4, r6}
   2649e:	c354      	stmia	r3!, {r2, r4, r6}
   264a0:	c856      	ldmia	r0!, {r1, r2, r4, r6}
   264a2:	c356      	stmia	r3!, {r1, r2, r4, r6}
   264a4:	c856      	ldmia	r0!, {r1, r2, r4, r6}
   264a6:	c356      	stmia	r3!, {r1, r2, r4, r6}
   264a8:	c856      	ldmia	r0!, {r1, r2, r4, r6}
   264aa:	c356      	stmia	r3!, {r1, r2, r4, r6}
   264ac:	7800      	ldrb	r0, [r0, #0]
   264ae:	7018      	strb	r0, [r3, #0]
   264b0:	990c      	ldr	r1, [sp, #48]	@ 0x30
   264b2:	0e08      	lsrs	r0, r1, #24
   264b4:	71a8      	strb	r0, [r5, #6]
   264b6:	0c08      	lsrs	r0, r1, #16
   264b8:	7168      	strb	r0, [r5, #5]
   264ba:	0a08      	lsrs	r0, r1, #8
   264bc:	7128      	strb	r0, [r5, #4]
   264be:	70e9      	strb	r1, [r5, #3]
   264c0:	1de8      	adds	r0, r5, #7
   264c2:	223d      	movs	r2, #61	@ 0x3d
   264c4:	990d      	ldr	r1, [sp, #52]	@ 0x34
   264c6:	f000 fbe6 	bl	26c96 <__aeabi_memcpy>
   264ca:	4c05      	ldr	r4, [pc, #20]	@ (264e0 <_start+0x2858>)
   264cc:	446c      	add	r4, sp
   264ce:	4620      	mov	r0, r4
   264d0:	4629      	mov	r1, r5
   264d2:	f7fd f9f3 	bl	238bc <_ZN20complex_full_dynamic3app17hf122de00e5876b1eE>
   264d6:	7820      	ldrb	r0, [r4, #0]
   264d8:	2801      	cmp	r0, #1
   264da:	d107      	bne.n	264ec <_start+0x2864>
   264dc:	f7fd ff39 	bl	24352 <_start+0x6ca>
   264e0:	0000140c 	.word	0x0000140c
   264e4:	000011bc 	.word	0x000011bc
   264e8:	000013b0 	.word	0x000013b0
   264ec:	48fc      	ldr	r0, [pc, #1008]	@ (268e0 <_start+0x2c58>)
   264ee:	4468      	add	r0, sp
   264f0:	78c1      	ldrb	r1, [r0, #3]
   264f2:	4dfd      	ldr	r5, [pc, #1012]	@ (268e8 <_start+0x2c60>)
   264f4:	446d      	add	r5, sp
   264f6:	70a9      	strb	r1, [r5, #2]
   264f8:	7841      	ldrb	r1, [r0, #1]
   264fa:	7882      	ldrb	r2, [r0, #2]
   264fc:	0212      	lsls	r2, r2, #8
   264fe:	1851      	adds	r1, r2, r1
   26500:	8029      	strh	r1, [r5, #0]
   26502:	3008      	adds	r0, #8
   26504:	9909      	ldr	r1, [sp, #36]	@ 0x24
   26506:	6e09      	ldr	r1, [r1, #96]	@ 0x60
   26508:	910c      	str	r1, [sp, #48]	@ 0x30
   2650a:	4bf6      	ldr	r3, [pc, #984]	@ (268e4 <_start+0x2c5c>)
   2650c:	446b      	add	r3, sp
   2650e:	930d      	str	r3, [sp, #52]	@ 0x34
   26510:	c854      	ldmia	r0!, {r2, r4, r6}
   26512:	c354      	stmia	r3!, {r2, r4, r6}
   26514:	c856      	ldmia	r0!, {r1, r2, r4, r6}
   26516:	c356      	stmia	r3!, {r1, r2, r4, r6}
   26518:	990c      	ldr	r1, [sp, #48]	@ 0x30
   2651a:	0e08      	lsrs	r0, r1, #24
   2651c:	71a8      	strb	r0, [r5, #6]
   2651e:	0c08      	lsrs	r0, r1, #16
   26520:	7168      	strb	r0, [r5, #5]
   26522:	0a08      	lsrs	r0, r1, #8
   26524:	7128      	strb	r0, [r5, #4]
   26526:	70e9      	strb	r1, [r5, #3]
   26528:	1de8      	adds	r0, r5, #7
   2652a:	221c      	movs	r2, #28
   2652c:	990d      	ldr	r1, [sp, #52]	@ 0x34
   2652e:	f000 fbb2 	bl	26c96 <__aeabi_memcpy>
   26532:	4ceb      	ldr	r4, [pc, #940]	@ (268e0 <_start+0x2c58>)
   26534:	446c      	add	r4, sp
   26536:	4620      	mov	r0, r4
   26538:	4629      	mov	r1, r5
   2653a:	f7f9 ff39 	bl	203b0 <_ZN20complex_full_dynamic3app17h16813723491bb467E>
   2653e:	7820      	ldrb	r0, [r4, #0]
   26540:	2801      	cmp	r0, #1
   26542:	d101      	bne.n	26548 <_start+0x28c0>
   26544:	f7fd ff05 	bl	24352 <_start+0x6ca>
   26548:	48e5      	ldr	r0, [pc, #916]	@ (268e0 <_start+0x2c58>)
   2654a:	4468      	add	r0, sp
   2654c:	78c1      	ldrb	r1, [r0, #3]
   2654e:	4de7      	ldr	r5, [pc, #924]	@ (268ec <_start+0x2c64>)
   26550:	446d      	add	r5, sp
   26552:	70a9      	strb	r1, [r5, #2]
   26554:	7841      	ldrb	r1, [r0, #1]
   26556:	7882      	ldrb	r2, [r0, #2]
   26558:	0212      	lsls	r2, r2, #8
   2655a:	1851      	adds	r1, r2, r1
   2655c:	8029      	strh	r1, [r5, #0]
   2655e:	3008      	adds	r0, #8
   26560:	9909      	ldr	r1, [sp, #36]	@ 0x24
   26562:	6e09      	ldr	r1, [r1, #96]	@ 0x60
   26564:	910c      	str	r1, [sp, #48]	@ 0x30
   26566:	4bdf      	ldr	r3, [pc, #892]	@ (268e4 <_start+0x2c5c>)
   26568:	446b      	add	r3, sp
   2656a:	930d      	str	r3, [sp, #52]	@ 0x34
   2656c:	c854      	ldmia	r0!, {r2, r4, r6}
   2656e:	c354      	stmia	r3!, {r2, r4, r6}
   26570:	c856      	ldmia	r0!, {r1, r2, r4, r6}
   26572:	c356      	stmia	r3!, {r1, r2, r4, r6}
   26574:	7800      	ldrb	r0, [r0, #0]
   26576:	7018      	strb	r0, [r3, #0]
   26578:	990c      	ldr	r1, [sp, #48]	@ 0x30
   2657a:	0e08      	lsrs	r0, r1, #24
   2657c:	71a8      	strb	r0, [r5, #6]
   2657e:	0c08      	lsrs	r0, r1, #16
   26580:	7168      	strb	r0, [r5, #5]
   26582:	0a08      	lsrs	r0, r1, #8
   26584:	7128      	strb	r0, [r5, #4]
   26586:	70e9      	strb	r1, [r5, #3]
   26588:	1de8      	adds	r0, r5, #7
   2658a:	221d      	movs	r2, #29
   2658c:	990d      	ldr	r1, [sp, #52]	@ 0x34
   2658e:	f000 fb82 	bl	26c96 <__aeabi_memcpy>
   26592:	4cd3      	ldr	r4, [pc, #844]	@ (268e0 <_start+0x2c58>)
   26594:	446c      	add	r4, sp
   26596:	4620      	mov	r0, r4
   26598:	4629      	mov	r1, r5
   2659a:	f7fc fff9 	bl	23590 <_ZN20complex_full_dynamic3app17he088cf69b0cc11eaE>
   2659e:	7820      	ldrb	r0, [r4, #0]
   265a0:	2801      	cmp	r0, #1
   265a2:	d101      	bne.n	265a8 <_start+0x2920>
   265a4:	f7fd fed5 	bl	24352 <_start+0x6ca>
   265a8:	48cd      	ldr	r0, [pc, #820]	@ (268e0 <_start+0x2c58>)
   265aa:	4468      	add	r0, sp
   265ac:	78c1      	ldrb	r1, [r0, #3]
   265ae:	4dd0      	ldr	r5, [pc, #832]	@ (268f0 <_start+0x2c68>)
   265b0:	446d      	add	r5, sp
   265b2:	70a9      	strb	r1, [r5, #2]
   265b4:	7841      	ldrb	r1, [r0, #1]
   265b6:	7882      	ldrb	r2, [r0, #2]
   265b8:	0212      	lsls	r2, r2, #8
   265ba:	1851      	adds	r1, r2, r1
   265bc:	8029      	strh	r1, [r5, #0]
   265be:	3008      	adds	r0, #8
   265c0:	9909      	ldr	r1, [sp, #36]	@ 0x24
   265c2:	6e09      	ldr	r1, [r1, #96]	@ 0x60
   265c4:	910c      	str	r1, [sp, #48]	@ 0x30
   265c6:	4bc7      	ldr	r3, [pc, #796]	@ (268e4 <_start+0x2c5c>)
   265c8:	446b      	add	r3, sp
   265ca:	930d      	str	r3, [sp, #52]	@ 0x34
   265cc:	c854      	ldmia	r0!, {r2, r4, r6}
   265ce:	c354      	stmia	r3!, {r2, r4, r6}
   265d0:	c854      	ldmia	r0!, {r2, r4, r6}
   265d2:	c354      	stmia	r3!, {r2, r4, r6}
   265d4:	c856      	ldmia	r0!, {r1, r2, r4, r6}
   265d6:	c356      	stmia	r3!, {r1, r2, r4, r6}
   265d8:	990c      	ldr	r1, [sp, #48]	@ 0x30
   265da:	0e08      	lsrs	r0, r1, #24
   265dc:	71a8      	strb	r0, [r5, #6]
   265de:	0c08      	lsrs	r0, r1, #16
   265e0:	7168      	strb	r0, [r5, #5]
   265e2:	0a08      	lsrs	r0, r1, #8
   265e4:	7128      	strb	r0, [r5, #4]
   265e6:	70e9      	strb	r1, [r5, #3]
   265e8:	1de8      	adds	r0, r5, #7
   265ea:	2228      	movs	r2, #40	@ 0x28
   265ec:	990d      	ldr	r1, [sp, #52]	@ 0x34
   265ee:	f000 fb52 	bl	26c96 <__aeabi_memcpy>
   265f2:	4cbb      	ldr	r4, [pc, #748]	@ (268e0 <_start+0x2c58>)
   265f4:	446c      	add	r4, sp
   265f6:	4620      	mov	r0, r4
   265f8:	4629      	mov	r1, r5
   265fa:	f7fa fa51 	bl	20aa0 <_ZN20complex_full_dynamic3app17h26634442635ae112E>
   265fe:	7820      	ldrb	r0, [r4, #0]
   26600:	2801      	cmp	r0, #1
   26602:	d101      	bne.n	26608 <_start+0x2980>
   26604:	f7fd fea5 	bl	24352 <_start+0x6ca>
   26608:	49b5      	ldr	r1, [pc, #724]	@ (268e0 <_start+0x2c58>)
   2660a:	4469      	add	r1, sp
   2660c:	78c8      	ldrb	r0, [r1, #3]
   2660e:	4db9      	ldr	r5, [pc, #740]	@ (268f4 <_start+0x2c6c>)
   26610:	446d      	add	r5, sp
   26612:	70a8      	strb	r0, [r5, #2]
   26614:	7848      	ldrb	r0, [r1, #1]
   26616:	788a      	ldrb	r2, [r1, #2]
   26618:	0212      	lsls	r2, r2, #8
   2661a:	1810      	adds	r0, r2, r0
   2661c:	8028      	strh	r0, [r5, #0]
   2661e:	9809      	ldr	r0, [sp, #36]	@ 0x24
   26620:	6e04      	ldr	r4, [r0, #96]	@ 0x60
   26622:	3108      	adds	r1, #8
   26624:	48af      	ldr	r0, [pc, #700]	@ (268e4 <_start+0x2c5c>)
   26626:	4468      	add	r0, sp
   26628:	900d      	str	r0, [sp, #52]	@ 0x34
   2662a:	2657      	movs	r6, #87	@ 0x57
   2662c:	4632      	mov	r2, r6
   2662e:	f000 f9d2 	bl	269d6 <__aeabi_memcpy4>
   26632:	0e20      	lsrs	r0, r4, #24
   26634:	71a8      	strb	r0, [r5, #6]
   26636:	0c20      	lsrs	r0, r4, #16
   26638:	7168      	strb	r0, [r5, #5]
   2663a:	0a20      	lsrs	r0, r4, #8
   2663c:	7128      	strb	r0, [r5, #4]
   2663e:	70ec      	strb	r4, [r5, #3]
   26640:	1de8      	adds	r0, r5, #7
   26642:	990d      	ldr	r1, [sp, #52]	@ 0x34
   26644:	4632      	mov	r2, r6
   26646:	f000 fb26 	bl	26c96 <__aeabi_memcpy>
   2664a:	4ca5      	ldr	r4, [pc, #660]	@ (268e0 <_start+0x2c58>)
   2664c:	446c      	add	r4, sp
   2664e:	4620      	mov	r0, r4
   26650:	4629      	mov	r1, r5
   26652:	f7f9 fefd 	bl	20450 <_ZN20complex_full_dynamic3app17h1927d9c715ca6e8aE>
   26656:	7820      	ldrb	r0, [r4, #0]
   26658:	2801      	cmp	r0, #1
   2665a:	d101      	bne.n	26660 <_start+0x29d8>
   2665c:	f7fd fe79 	bl	24352 <_start+0x6ca>
   26660:	499f      	ldr	r1, [pc, #636]	@ (268e0 <_start+0x2c58>)
   26662:	4469      	add	r1, sp
   26664:	78c8      	ldrb	r0, [r1, #3]
   26666:	4da4      	ldr	r5, [pc, #656]	@ (268f8 <_start+0x2c70>)
   26668:	446d      	add	r5, sp
   2666a:	70a8      	strb	r0, [r5, #2]
   2666c:	7848      	ldrb	r0, [r1, #1]
   2666e:	788a      	ldrb	r2, [r1, #2]
   26670:	0212      	lsls	r2, r2, #8
   26672:	1810      	adds	r0, r2, r0
   26674:	8028      	strh	r0, [r5, #0]
   26676:	9809      	ldr	r0, [sp, #36]	@ 0x24
   26678:	6e04      	ldr	r4, [r0, #96]	@ 0x60
   2667a:	3108      	adds	r1, #8
   2667c:	4899      	ldr	r0, [pc, #612]	@ (268e4 <_start+0x2c5c>)
   2667e:	4468      	add	r0, sp
   26680:	900d      	str	r0, [sp, #52]	@ 0x34
   26682:	264e      	movs	r6, #78	@ 0x4e
   26684:	4632      	mov	r2, r6
   26686:	f000 f9a6 	bl	269d6 <__aeabi_memcpy4>
   2668a:	0e20      	lsrs	r0, r4, #24
   2668c:	71a8      	strb	r0, [r5, #6]
   2668e:	0c20      	lsrs	r0, r4, #16
   26690:	7168      	strb	r0, [r5, #5]
   26692:	0a20      	lsrs	r0, r4, #8
   26694:	7128      	strb	r0, [r5, #4]
   26696:	70ec      	strb	r4, [r5, #3]
   26698:	1de8      	adds	r0, r5, #7
   2669a:	990d      	ldr	r1, [sp, #52]	@ 0x34
   2669c:	4632      	mov	r2, r6
   2669e:	f000 fafa 	bl	26c96 <__aeabi_memcpy>
   266a2:	4c8f      	ldr	r4, [pc, #572]	@ (268e0 <_start+0x2c58>)
   266a4:	446c      	add	r4, sp
   266a6:	4620      	mov	r0, r4
   266a8:	4629      	mov	r1, r5
   266aa:	f7f9 fe31 	bl	20310 <_ZN20complex_full_dynamic3app17h1381b5d4e8d6dfd7E>
   266ae:	7820      	ldrb	r0, [r4, #0]
   266b0:	2801      	cmp	r0, #1
   266b2:	d101      	bne.n	266b8 <_start+0x2a30>
   266b4:	f7fd fe4d 	bl	24352 <_start+0x6ca>
   266b8:	4889      	ldr	r0, [pc, #548]	@ (268e0 <_start+0x2c58>)
   266ba:	4468      	add	r0, sp
   266bc:	78c1      	ldrb	r1, [r0, #3]
   266be:	4d8f      	ldr	r5, [pc, #572]	@ (268fc <_start+0x2c74>)
   266c0:	446d      	add	r5, sp
   266c2:	70a9      	strb	r1, [r5, #2]
   266c4:	7841      	ldrb	r1, [r0, #1]
   266c6:	7882      	ldrb	r2, [r0, #2]
   266c8:	0212      	lsls	r2, r2, #8
   266ca:	1851      	adds	r1, r2, r1
   266cc:	8029      	strh	r1, [r5, #0]
   266ce:	3008      	adds	r0, #8
   266d0:	9909      	ldr	r1, [sp, #36]	@ 0x24
   266d2:	6e0a      	ldr	r2, [r1, #96]	@ 0x60
   266d4:	4983      	ldr	r1, [pc, #524]	@ (268e4 <_start+0x2c5c>)
   266d6:	4469      	add	r1, sp
   266d8:	460b      	mov	r3, r1
   266da:	c850      	ldmia	r0!, {r4, r6}
   266dc:	c350      	stmia	r3!, {r4, r6}
   266de:	8800      	ldrh	r0, [r0, #0]
   266e0:	8018      	strh	r0, [r3, #0]
   266e2:	0e10      	lsrs	r0, r2, #24
   266e4:	71a8      	strb	r0, [r5, #6]
   266e6:	0c10      	lsrs	r0, r2, #16
   266e8:	7168      	strb	r0, [r5, #5]
   266ea:	0a10      	lsrs	r0, r2, #8
   266ec:	7128      	strb	r0, [r5, #4]
   266ee:	70ea      	strb	r2, [r5, #3]
   266f0:	1de8      	adds	r0, r5, #7
   266f2:	220a      	movs	r2, #10
   266f4:	f000 facf 	bl	26c96 <__aeabi_memcpy>
   266f8:	4c79      	ldr	r4, [pc, #484]	@ (268e0 <_start+0x2c58>)
   266fa:	446c      	add	r4, sp
   266fc:	4620      	mov	r0, r4
   266fe:	4629      	mov	r1, r5
   26700:	f7fb fe1e 	bl	22340 <_ZN20complex_full_dynamic3app17h7cca87b5ba539524E>
   26704:	7820      	ldrb	r0, [r4, #0]
   26706:	2801      	cmp	r0, #1
   26708:	d101      	bne.n	2670e <_start+0x2a86>
   2670a:	f7fd fe22 	bl	24352 <_start+0x6ca>
   2670e:	4974      	ldr	r1, [pc, #464]	@ (268e0 <_start+0x2c58>)
   26710:	4469      	add	r1, sp
   26712:	78c8      	ldrb	r0, [r1, #3]
   26714:	4d7a      	ldr	r5, [pc, #488]	@ (26900 <_start+0x2c78>)
   26716:	446d      	add	r5, sp
   26718:	70a8      	strb	r0, [r5, #2]
   2671a:	7848      	ldrb	r0, [r1, #1]
   2671c:	788a      	ldrb	r2, [r1, #2]
   2671e:	0212      	lsls	r2, r2, #8
   26720:	1810      	adds	r0, r2, r0
   26722:	8028      	strh	r0, [r5, #0]
   26724:	9809      	ldr	r0, [sp, #36]	@ 0x24
   26726:	6e04      	ldr	r4, [r0, #96]	@ 0x60
   26728:	3108      	adds	r1, #8
   2672a:	486e      	ldr	r0, [pc, #440]	@ (268e4 <_start+0x2c5c>)
   2672c:	4468      	add	r0, sp
   2672e:	900d      	str	r0, [sp, #52]	@ 0x34
   26730:	2649      	movs	r6, #73	@ 0x49
   26732:	4632      	mov	r2, r6
   26734:	f000 f94f 	bl	269d6 <__aeabi_memcpy4>
   26738:	0e20      	lsrs	r0, r4, #24
   2673a:	71a8      	strb	r0, [r5, #6]
   2673c:	0c20      	lsrs	r0, r4, #16
   2673e:	7168      	strb	r0, [r5, #5]
   26740:	0a20      	lsrs	r0, r4, #8
   26742:	7128      	strb	r0, [r5, #4]
   26744:	70ec      	strb	r4, [r5, #3]
   26746:	1de8      	adds	r0, r5, #7
   26748:	990d      	ldr	r1, [sp, #52]	@ 0x34
   2674a:	4632      	mov	r2, r6
   2674c:	f000 faa3 	bl	26c96 <__aeabi_memcpy>
   26750:	4c63      	ldr	r4, [pc, #396]	@ (268e0 <_start+0x2c58>)
   26752:	446c      	add	r4, sp
   26754:	4620      	mov	r0, r4
   26756:	4629      	mov	r1, r5
   26758:	f7fc fb9e 	bl	22e98 <_ZN20complex_full_dynamic3app17hbe3defac5283fb14E>
   2675c:	7820      	ldrb	r0, [r4, #0]
   2675e:	2801      	cmp	r0, #1
   26760:	d101      	bne.n	26766 <_start+0x2ade>
   26762:	f7fd fdf6 	bl	24352 <_start+0x6ca>
   26766:	485e      	ldr	r0, [pc, #376]	@ (268e0 <_start+0x2c58>)
   26768:	4468      	add	r0, sp
   2676a:	78c1      	ldrb	r1, [r0, #3]
   2676c:	4d65      	ldr	r5, [pc, #404]	@ (26904 <_start+0x2c7c>)
   2676e:	446d      	add	r5, sp
   26770:	70a9      	strb	r1, [r5, #2]
   26772:	7841      	ldrb	r1, [r0, #1]
   26774:	7882      	ldrb	r2, [r0, #2]
   26776:	0212      	lsls	r2, r2, #8
   26778:	1851      	adds	r1, r2, r1
   2677a:	8029      	strh	r1, [r5, #0]
   2677c:	3008      	adds	r0, #8
   2677e:	9909      	ldr	r1, [sp, #36]	@ 0x24
   26780:	6e09      	ldr	r1, [r1, #96]	@ 0x60
   26782:	4b58      	ldr	r3, [pc, #352]	@ (268e4 <_start+0x2c5c>)
   26784:	446b      	add	r3, sp
   26786:	930d      	str	r3, [sp, #52]	@ 0x34
   26788:	c850      	ldmia	r0!, {r4, r6}
   2678a:	c350      	stmia	r3!, {r4, r6}
   2678c:	c854      	ldmia	r0!, {r2, r4, r6}
   2678e:	c354      	stmia	r3!, {r2, r4, r6}
   26790:	0e08      	lsrs	r0, r1, #24
   26792:	71a8      	strb	r0, [r5, #6]
   26794:	0c08      	lsrs	r0, r1, #16
   26796:	7168      	strb	r0, [r5, #5]
   26798:	0a08      	lsrs	r0, r1, #8
   2679a:	7128      	strb	r0, [r5, #4]
   2679c:	70e9      	strb	r1, [r5, #3]
   2679e:	1de8      	adds	r0, r5, #7
   267a0:	2214      	movs	r2, #20
   267a2:	990d      	ldr	r1, [sp, #52]	@ 0x34
   267a4:	f000 fa77 	bl	26c96 <__aeabi_memcpy>
   267a8:	4c4d      	ldr	r4, [pc, #308]	@ (268e0 <_start+0x2c58>)
   267aa:	446c      	add	r4, sp
   267ac:	4620      	mov	r0, r4
   267ae:	4629      	mov	r1, r5
   267b0:	f7fc fad2 	bl	22d58 <_ZN20complex_full_dynamic3app17hb4c4b37f862a3b25E>
   267b4:	7820      	ldrb	r0, [r4, #0]
   267b6:	2801      	cmp	r0, #1
   267b8:	d101      	bne.n	267be <_start+0x2b36>
   267ba:	f7fd fdca 	bl	24352 <_start+0x6ca>
   267be:	4948      	ldr	r1, [pc, #288]	@ (268e0 <_start+0x2c58>)
   267c0:	4469      	add	r1, sp
   267c2:	78c8      	ldrb	r0, [r1, #3]
   267c4:	4d50      	ldr	r5, [pc, #320]	@ (26908 <_start+0x2c80>)
   267c6:	446d      	add	r5, sp
   267c8:	70a8      	strb	r0, [r5, #2]
   267ca:	7848      	ldrb	r0, [r1, #1]
   267cc:	788a      	ldrb	r2, [r1, #2]
   267ce:	0212      	lsls	r2, r2, #8
   267d0:	1810      	adds	r0, r2, r0
   267d2:	8028      	strh	r0, [r5, #0]
   267d4:	9809      	ldr	r0, [sp, #36]	@ 0x24
   267d6:	6e04      	ldr	r4, [r0, #96]	@ 0x60
   267d8:	3108      	adds	r1, #8
   267da:	4842      	ldr	r0, [pc, #264]	@ (268e4 <_start+0x2c5c>)
   267dc:	4468      	add	r0, sp
   267de:	900d      	str	r0, [sp, #52]	@ 0x34
   267e0:	265c      	movs	r6, #92	@ 0x5c
   267e2:	4632      	mov	r2, r6
   267e4:	f000 f8f7 	bl	269d6 <__aeabi_memcpy4>
   267e8:	0e20      	lsrs	r0, r4, #24
   267ea:	71a8      	strb	r0, [r5, #6]
   267ec:	0c20      	lsrs	r0, r4, #16
   267ee:	7168      	strb	r0, [r5, #5]
   267f0:	0a20      	lsrs	r0, r4, #8
   267f2:	7128      	strb	r0, [r5, #4]
   267f4:	70ec      	strb	r4, [r5, #3]
   267f6:	1de8      	adds	r0, r5, #7
   267f8:	990d      	ldr	r1, [sp, #52]	@ 0x34
   267fa:	4632      	mov	r2, r6
   267fc:	f000 fa4b 	bl	26c96 <__aeabi_memcpy>
   26800:	4c37      	ldr	r4, [pc, #220]	@ (268e0 <_start+0x2c58>)
   26802:	446c      	add	r4, sp
   26804:	4620      	mov	r0, r4
   26806:	4629      	mov	r1, r5
   26808:	f7fa fef4 	bl	215f4 <_ZN20complex_full_dynamic3app17h512df6a51f866caaE>
   2680c:	7820      	ldrb	r0, [r4, #0]
   2680e:	2801      	cmp	r0, #1
   26810:	d101      	bne.n	26816 <_start+0x2b8e>
   26812:	f7fd fd9e 	bl	24352 <_start+0x6ca>
   26816:	4832      	ldr	r0, [pc, #200]	@ (268e0 <_start+0x2c58>)
   26818:	4468      	add	r0, sp
   2681a:	78c1      	ldrb	r1, [r0, #3]
   2681c:	4d3b      	ldr	r5, [pc, #236]	@ (2690c <_start+0x2c84>)
   2681e:	446d      	add	r5, sp
   26820:	70a9      	strb	r1, [r5, #2]
   26822:	7841      	ldrb	r1, [r0, #1]
   26824:	7882      	ldrb	r2, [r0, #2]
   26826:	0212      	lsls	r2, r2, #8
   26828:	1851      	adds	r1, r2, r1
   2682a:	8029      	strh	r1, [r5, #0]
   2682c:	3008      	adds	r0, #8
   2682e:	9909      	ldr	r1, [sp, #36]	@ 0x24
   26830:	6e09      	ldr	r1, [r1, #96]	@ 0x60
   26832:	4b2c      	ldr	r3, [pc, #176]	@ (268e4 <_start+0x2c5c>)
   26834:	446b      	add	r3, sp
   26836:	930d      	str	r3, [sp, #52]	@ 0x34
   26838:	c854      	ldmia	r0!, {r2, r4, r6}
   2683a:	c354      	stmia	r3!, {r2, r4, r6}
   2683c:	c854      	ldmia	r0!, {r2, r4, r6}
   2683e:	c354      	stmia	r3!, {r2, r4, r6}
   26840:	c854      	ldmia	r0!, {r2, r4, r6}
   26842:	c354      	stmia	r3!, {r2, r4, r6}
   26844:	7800      	ldrb	r0, [r0, #0]
   26846:	7018      	strb	r0, [r3, #0]
   26848:	0e08      	lsrs	r0, r1, #24
   2684a:	71a8      	strb	r0, [r5, #6]
   2684c:	0c08      	lsrs	r0, r1, #16
   2684e:	7168      	strb	r0, [r5, #5]
   26850:	0a08      	lsrs	r0, r1, #8
   26852:	7128      	strb	r0, [r5, #4]
   26854:	70e9      	strb	r1, [r5, #3]
   26856:	1de8      	adds	r0, r5, #7
   26858:	2225      	movs	r2, #37	@ 0x25
   2685a:	990d      	ldr	r1, [sp, #52]	@ 0x34
   2685c:	f000 fa1b 	bl	26c96 <__aeabi_memcpy>
   26860:	4c1f      	ldr	r4, [pc, #124]	@ (268e0 <_start+0x2c58>)
   26862:	446c      	add	r4, sp
   26864:	4620      	mov	r0, r4
   26866:	4629      	mov	r1, r5
   26868:	f7fa ff60 	bl	2172c <_ZN20complex_full_dynamic3app17h53e4eaaae4f737abE>
   2686c:	7820      	ldrb	r0, [r4, #0]
   2686e:	2801      	cmp	r0, #1
   26870:	d101      	bne.n	26876 <_start+0x2bee>
   26872:	f7fd fd6e 	bl	24352 <_start+0x6ca>
   26876:	481a      	ldr	r0, [pc, #104]	@ (268e0 <_start+0x2c58>)
   26878:	4468      	add	r0, sp
   2687a:	78c1      	ldrb	r1, [r0, #3]
   2687c:	4d24      	ldr	r5, [pc, #144]	@ (26910 <_start+0x2c88>)
   2687e:	446d      	add	r5, sp
   26880:	70a9      	strb	r1, [r5, #2]
   26882:	7841      	ldrb	r1, [r0, #1]
   26884:	7882      	ldrb	r2, [r0, #2]
   26886:	0212      	lsls	r2, r2, #8
   26888:	1851      	adds	r1, r2, r1
   2688a:	8029      	strh	r1, [r5, #0]
   2688c:	3008      	adds	r0, #8
   2688e:	9909      	ldr	r1, [sp, #36]	@ 0x24
   26890:	6e09      	ldr	r1, [r1, #96]	@ 0x60
   26892:	910c      	str	r1, [sp, #48]	@ 0x30
   26894:	4b13      	ldr	r3, [pc, #76]	@ (268e4 <_start+0x2c5c>)
   26896:	446b      	add	r3, sp
   26898:	930d      	str	r3, [sp, #52]	@ 0x34
   2689a:	c856      	ldmia	r0!, {r1, r2, r4, r6}
   2689c:	c356      	stmia	r3!, {r1, r2, r4, r6}
   2689e:	c856      	ldmia	r0!, {r1, r2, r4, r6}
   268a0:	c356      	stmia	r3!, {r1, r2, r4, r6}
   268a2:	8801      	ldrh	r1, [r0, #0]
   268a4:	8019      	strh	r1, [r3, #0]
   268a6:	7880      	ldrb	r0, [r0, #2]
   268a8:	7098      	strb	r0, [r3, #2]
   268aa:	990c      	ldr	r1, [sp, #48]	@ 0x30
   268ac:	0e08      	lsrs	r0, r1, #24
   268ae:	71a8      	strb	r0, [r5, #6]
   268b0:	0c08      	lsrs	r0, r1, #16
   268b2:	7168      	strb	r0, [r5, #5]
   268b4:	0a08      	lsrs	r0, r1, #8
   268b6:	7128      	strb	r0, [r5, #4]
   268b8:	70e9      	strb	r1, [r5, #3]
   268ba:	1de8      	adds	r0, r5, #7
   268bc:	2223      	movs	r2, #35	@ 0x23
   268be:	990d      	ldr	r1, [sp, #52]	@ 0x34
   268c0:	f000 f9e9 	bl	26c96 <__aeabi_memcpy>
   268c4:	4c06      	ldr	r4, [pc, #24]	@ (268e0 <_start+0x2c58>)
   268c6:	446c      	add	r4, sp
   268c8:	4620      	mov	r0, r4
   268ca:	4629      	mov	r1, r5
   268cc:	f7fb fd8a 	bl	223e4 <_ZN20complex_full_dynamic3app17h7e31ac48a4d2aec0E>
   268d0:	7820      	ldrb	r0, [r4, #0]
   268d2:	2801      	cmp	r0, #1
   268d4:	d101      	bne.n	268da <_start+0x2c52>
   268d6:	f7fd fd3c 	bl	24352 <_start+0x6ca>
   268da:	9804      	ldr	r0, [sp, #16]
   268dc:	f7fd fd9a 	bl	24414 <_start+0x78c>
   268e0:	0000140c 	.word	0x0000140c
   268e4:	000013b0 	.word	0x000013b0
   268e8:	00001200 	.word	0x00001200
   268ec:	00001224 	.word	0x00001224
   268f0:	00001248 	.word	0x00001248
   268f4:	00001278 	.word	0x00001278
   268f8:	000012d8 	.word	0x000012d8
   268fc:	00001330 	.word	0x00001330
   26900:	00001344 	.word	0x00001344
   26904:	00001394 	.word	0x00001394
   26908:	00001470 	.word	0x00001470
   2690c:	000014d4 	.word	0x000014d4
   26910:	00001500 	.word	0x00001500

00026914 <_ZN9allow_pin12full_dynamic17unshare_if_shared17h1c062ce130e7e9d8E>:
   26914:	b5d0      	push	{r4, r6, r7, lr}
   26916:	af02      	add	r7, sp, #8
   26918:	7a02      	ldrb	r2, [r0, #8]
   2691a:	2a02      	cmp	r2, #2
   2691c:	d00d      	beq.n	2693a <_ZN9allow_pin12full_dynamic17unshare_if_shared17h1c062ce130e7e9d8E+0x26>
   2691e:	4604      	mov	r4, r0
   26920:	6800      	ldr	r0, [r0, #0]
   26922:	6861      	ldr	r1, [r4, #4]
   26924:	2a03      	cmp	r2, #3
   26926:	d103      	bne.n	26930 <_ZN9allow_pin12full_dynamic17unshare_if_shared17h1c062ce130e7e9d8E+0x1c>
   26928:	2200      	movs	r2, #0
   2692a:	4613      	mov	r3, r2
   2692c:	df03      	svc	3
   2692e:	e002      	b.n	26936 <_ZN9allow_pin12full_dynamic17unshare_if_shared17h1c062ce130e7e9d8E+0x22>
   26930:	2200      	movs	r2, #0
   26932:	4613      	mov	r3, r2
   26934:	df04      	svc	4
   26936:	2002      	movs	r0, #2
   26938:	7220      	strb	r0, [r4, #8]
   2693a:	bdd0      	pop	{r4, r6, r7, pc}

0002693c <__aeabi_memclr4>:
   2693c:	b5f0      	push	{r4, r5, r6, r7, lr}
   2693e:	af03      	add	r7, sp, #12
   26940:	2904      	cmp	r1, #4
   26942:	d311      	bcc.n	26968 <__aeabi_memclr4+0x2c>
   26944:	1f0c      	subs	r4, r1, #4
   26946:	250c      	movs	r5, #12
   26948:	4025      	ands	r5, r4
   2694a:	2d0c      	cmp	r5, #12
   2694c:	d012      	beq.n	26974 <__aeabi_memclr4+0x38>
   2694e:	2600      	movs	r6, #0
   26950:	4602      	mov	r2, r0
   26952:	c240      	stmia	r2!, {r6}
   26954:	0723      	lsls	r3, r4, #28
   26956:	0f9b      	lsrs	r3, r3, #30
   26958:	4623      	mov	r3, r4
   2695a:	d00d      	beq.n	26978 <__aeabi_memclr4+0x3c>
   2695c:	6046      	str	r6, [r0, #4]
   2695e:	2d04      	cmp	r5, #4
   26960:	d105      	bne.n	2696e <__aeabi_memclr4+0x32>
   26962:	3908      	subs	r1, #8
   26964:	3008      	adds	r0, #8
   26966:	e005      	b.n	26974 <__aeabi_memclr4+0x38>
   26968:	460b      	mov	r3, r1
   2696a:	4602      	mov	r2, r0
   2696c:	e00f      	b.n	2698e <__aeabi_memclr4+0x52>
   2696e:	6086      	str	r6, [r0, #8]
   26970:	390c      	subs	r1, #12
   26972:	300c      	adds	r0, #12
   26974:	4602      	mov	r2, r0
   26976:	460b      	mov	r3, r1
   26978:	2c0c      	cmp	r4, #12
   2697a:	d308      	bcc.n	2698e <__aeabi_memclr4+0x52>
   2697c:	2000      	movs	r0, #0
   2697e:	6010      	str	r0, [r2, #0]
   26980:	6050      	str	r0, [r2, #4]
   26982:	6090      	str	r0, [r2, #8]
   26984:	60d0      	str	r0, [r2, #12]
   26986:	3210      	adds	r2, #16
   26988:	3b10      	subs	r3, #16
   2698a:	2b03      	cmp	r3, #3
   2698c:	d8f6      	bhi.n	2697c <__aeabi_memclr4+0x40>
   2698e:	18d0      	adds	r0, r2, r3
   26990:	4282      	cmp	r2, r0
   26992:	d21a      	bcs.n	269ca <__aeabi_memclr4+0x8e>
   26994:	2403      	movs	r4, #3
   26996:	401c      	ands	r4, r3
   26998:	1e59      	subs	r1, r3, #1
   2699a:	2c00      	cmp	r4, #0
   2699c:	d00b      	beq.n	269b6 <__aeabi_memclr4+0x7a>
   2699e:	2300      	movs	r3, #0
   269a0:	7013      	strb	r3, [r2, #0]
   269a2:	2c01      	cmp	r4, #1
   269a4:	d103      	bne.n	269ae <__aeabi_memclr4+0x72>
   269a6:	1c52      	adds	r2, r2, #1
   269a8:	2903      	cmp	r1, #3
   269aa:	d206      	bcs.n	269ba <__aeabi_memclr4+0x7e>
   269ac:	e00d      	b.n	269ca <__aeabi_memclr4+0x8e>
   269ae:	7053      	strb	r3, [r2, #1]
   269b0:	2c02      	cmp	r4, #2
   269b2:	d10b      	bne.n	269cc <__aeabi_memclr4+0x90>
   269b4:	1c92      	adds	r2, r2, #2
   269b6:	2903      	cmp	r1, #3
   269b8:	d307      	bcc.n	269ca <__aeabi_memclr4+0x8e>
   269ba:	2100      	movs	r1, #0
   269bc:	70d1      	strb	r1, [r2, #3]
   269be:	7091      	strb	r1, [r2, #2]
   269c0:	7051      	strb	r1, [r2, #1]
   269c2:	7011      	strb	r1, [r2, #0]
   269c4:	1d12      	adds	r2, r2, #4
   269c6:	4282      	cmp	r2, r0
   269c8:	d1f7      	bne.n	269ba <__aeabi_memclr4+0x7e>
   269ca:	bdf0      	pop	{r4, r5, r6, r7, pc}
   269cc:	7093      	strb	r3, [r2, #2]
   269ce:	1cd2      	adds	r2, r2, #3
   269d0:	2903      	cmp	r1, #3
   269d2:	d2f2      	bcs.n	269ba <__aeabi_memclr4+0x7e>
   269d4:	e7f9      	b.n	269ca <__aeabi_memclr4+0x8e>

000269d6 <__aeabi_memcpy4>:
   269d6:	b5f0      	push	{r4, r5, r6, r7, lr}
   269d8:	af03      	add	r7, sp, #12
   269da:	b081      	sub	sp, #4
   269dc:	2a04      	cmp	r2, #4
   269de:	d32d      	bcc.n	26a3c <__aeabi_memcpy4+0x66>
   269e0:	1f13      	subs	r3, r2, #4
   269e2:	250c      	movs	r5, #12
   269e4:	401d      	ands	r5, r3
   269e6:	2d0c      	cmp	r5, #12
   269e8:	d019      	beq.n	26a1e <__aeabi_memcpy4+0x48>
   269ea:	9200      	str	r2, [sp, #0]
   269ec:	460e      	mov	r6, r1
   269ee:	c904      	ldmia	r1!, {r2}
   269f0:	4604      	mov	r4, r0
   269f2:	c004      	stmia	r0!, {r2}
   269f4:	071a      	lsls	r2, r3, #28
   269f6:	0f92      	lsrs	r2, r2, #30
   269f8:	461a      	mov	r2, r3
   269fa:	d010      	beq.n	26a1e <__aeabi_memcpy4+0x48>
   269fc:	4631      	mov	r1, r6
   269fe:	6872      	ldr	r2, [r6, #4]
   26a00:	6062      	str	r2, [r4, #4]
   26a02:	2d04      	cmp	r5, #4
   26a04:	d104      	bne.n	26a10 <__aeabi_memcpy4+0x3a>
   26a06:	9a00      	ldr	r2, [sp, #0]
   26a08:	3a08      	subs	r2, #8
   26a0a:	3108      	adds	r1, #8
   26a0c:	3408      	adds	r4, #8
   26a0e:	e005      	b.n	26a1c <__aeabi_memcpy4+0x46>
   26a10:	688a      	ldr	r2, [r1, #8]
   26a12:	60a2      	str	r2, [r4, #8]
   26a14:	9a00      	ldr	r2, [sp, #0]
   26a16:	3a0c      	subs	r2, #12
   26a18:	310c      	adds	r1, #12
   26a1a:	340c      	adds	r4, #12
   26a1c:	4620      	mov	r0, r4
   26a1e:	2b0c      	cmp	r3, #12
   26a20:	d30c      	bcc.n	26a3c <__aeabi_memcpy4+0x66>
   26a22:	680b      	ldr	r3, [r1, #0]
   26a24:	6003      	str	r3, [r0, #0]
   26a26:	684b      	ldr	r3, [r1, #4]
   26a28:	6043      	str	r3, [r0, #4]
   26a2a:	688b      	ldr	r3, [r1, #8]
   26a2c:	6083      	str	r3, [r0, #8]
   26a2e:	68cb      	ldr	r3, [r1, #12]
   26a30:	60c3      	str	r3, [r0, #12]
   26a32:	3110      	adds	r1, #16
   26a34:	3010      	adds	r0, #16
   26a36:	3a10      	subs	r2, #16
   26a38:	2a03      	cmp	r2, #3
   26a3a:	d8f2      	bhi.n	26a22 <__aeabi_memcpy4+0x4c>
   26a3c:	f000 f802 	bl	26a44 <_ZN17compiler_builtins3mem6memcpy17h1f9dbb1c3fd18e2fE>
   26a40:	b001      	add	sp, #4
   26a42:	bdf0      	pop	{r4, r5, r6, r7, pc}

00026a44 <_ZN17compiler_builtins3mem6memcpy17h1f9dbb1c3fd18e2fE>:
   26a44:	b5f0      	push	{r4, r5, r6, r7, lr}
   26a46:	af03      	add	r7, sp, #12
   26a48:	b08f      	sub	sp, #60	@ 0x3c
   26a4a:	2a10      	cmp	r2, #16
   26a4c:	d315      	bcc.n	26a7a <_ZN17compiler_builtins3mem6memcpy17h1f9dbb1c3fd18e2fE+0x36>
   26a4e:	920b      	str	r2, [sp, #44]	@ 0x2c
   26a50:	4242      	negs	r2, r0
   26a52:	2303      	movs	r3, #3
   26a54:	9308      	str	r3, [sp, #32]
   26a56:	401a      	ands	r2, r3
   26a58:	1885      	adds	r5, r0, r2
   26a5a:	900a      	str	r0, [sp, #40]	@ 0x28
   26a5c:	42a8      	cmp	r0, r5
   26a5e:	d22a      	bcs.n	26ab6 <_ZN17compiler_builtins3mem6memcpy17h1f9dbb1c3fd18e2fE+0x72>
   26a60:	1e54      	subs	r4, r2, #1
   26a62:	2a00      	cmp	r2, #0
   26a64:	980a      	ldr	r0, [sp, #40]	@ 0x28
   26a66:	4606      	mov	r6, r0
   26a68:	460b      	mov	r3, r1
   26a6a:	d016      	beq.n	26a9a <_ZN17compiler_builtins3mem6memcpy17h1f9dbb1c3fd18e2fE+0x56>
   26a6c:	780b      	ldrb	r3, [r1, #0]
   26a6e:	7003      	strb	r3, [r0, #0]
   26a70:	2a01      	cmp	r2, #1
   26a72:	d107      	bne.n	26a84 <_ZN17compiler_builtins3mem6memcpy17h1f9dbb1c3fd18e2fE+0x40>
   26a74:	1c4b      	adds	r3, r1, #1
   26a76:	1c46      	adds	r6, r0, #1
   26a78:	e00f      	b.n	26a9a <_ZN17compiler_builtins3mem6memcpy17h1f9dbb1c3fd18e2fE+0x56>
   26a7a:	4603      	mov	r3, r0
   26a7c:	189c      	adds	r4, r3, r2
   26a7e:	42a3      	cmp	r3, r4
   26a80:	d341      	bcc.n	26b06 <_ZN17compiler_builtins3mem6memcpy17h1f9dbb1c3fd18e2fE+0xc2>
   26a82:	e062      	b.n	26b4a <_ZN17compiler_builtins3mem6memcpy17h1f9dbb1c3fd18e2fE+0x106>
   26a84:	784b      	ldrb	r3, [r1, #1]
   26a86:	7043      	strb	r3, [r0, #1]
   26a88:	2a02      	cmp	r2, #2
   26a8a:	d102      	bne.n	26a92 <_ZN17compiler_builtins3mem6memcpy17h1f9dbb1c3fd18e2fE+0x4e>
   26a8c:	1c8b      	adds	r3, r1, #2
   26a8e:	1c86      	adds	r6, r0, #2
   26a90:	e003      	b.n	26a9a <_ZN17compiler_builtins3mem6memcpy17h1f9dbb1c3fd18e2fE+0x56>
   26a92:	788b      	ldrb	r3, [r1, #2]
   26a94:	7083      	strb	r3, [r0, #2]
   26a96:	1ccb      	adds	r3, r1, #3
   26a98:	1cc6      	adds	r6, r0, #3
   26a9a:	2c03      	cmp	r4, #3
   26a9c:	d30b      	bcc.n	26ab6 <_ZN17compiler_builtins3mem6memcpy17h1f9dbb1c3fd18e2fE+0x72>
   26a9e:	781c      	ldrb	r4, [r3, #0]
   26aa0:	7034      	strb	r4, [r6, #0]
   26aa2:	785c      	ldrb	r4, [r3, #1]
   26aa4:	7074      	strb	r4, [r6, #1]
   26aa6:	789c      	ldrb	r4, [r3, #2]
   26aa8:	70b4      	strb	r4, [r6, #2]
   26aaa:	78dc      	ldrb	r4, [r3, #3]
   26aac:	70f4      	strb	r4, [r6, #3]
   26aae:	1d1b      	adds	r3, r3, #4
   26ab0:	1d36      	adds	r6, r6, #4
   26ab2:	42ae      	cmp	r6, r5
   26ab4:	d1f3      	bne.n	26a9e <_ZN17compiler_builtins3mem6memcpy17h1f9dbb1c3fd18e2fE+0x5a>
   26ab6:	980b      	ldr	r0, [sp, #44]	@ 0x2c
   26ab8:	1a80      	subs	r0, r0, r2
   26aba:	900b      	str	r0, [sp, #44]	@ 0x2c
   26abc:	9c08      	ldr	r4, [sp, #32]
   26abe:	43a0      	bics	r0, r4
   26ac0:	182b      	adds	r3, r5, r0
   26ac2:	188e      	adds	r6, r1, r2
   26ac4:	9609      	str	r6, [sp, #36]	@ 0x24
   26ac6:	4026      	ands	r6, r4
   26ac8:	9007      	str	r0, [sp, #28]
   26aca:	d147      	bne.n	26b5c <_ZN17compiler_builtins3mem6memcpy17h1f9dbb1c3fd18e2fE+0x118>
   26acc:	429d      	cmp	r5, r3
   26ace:	9a0b      	ldr	r2, [sp, #44]	@ 0x2c
   26ad0:	9e09      	ldr	r6, [sp, #36]	@ 0x24
   26ad2:	d211      	bcs.n	26af8 <_ZN17compiler_builtins3mem6memcpy17h1f9dbb1c3fd18e2fE+0xb4>
   26ad4:	4631      	mov	r1, r6
   26ad6:	6808      	ldr	r0, [r1, #0]
   26ad8:	c501      	stmia	r5!, {r0}
   26ada:	429d      	cmp	r5, r3
   26adc:	d20c      	bcs.n	26af8 <_ZN17compiler_builtins3mem6memcpy17h1f9dbb1c3fd18e2fE+0xb4>
   26ade:	6848      	ldr	r0, [r1, #4]
   26ae0:	c501      	stmia	r5!, {r0}
   26ae2:	429d      	cmp	r5, r3
   26ae4:	d208      	bcs.n	26af8 <_ZN17compiler_builtins3mem6memcpy17h1f9dbb1c3fd18e2fE+0xb4>
   26ae6:	6888      	ldr	r0, [r1, #8]
   26ae8:	c501      	stmia	r5!, {r0}
   26aea:	429d      	cmp	r5, r3
   26aec:	d204      	bcs.n	26af8 <_ZN17compiler_builtins3mem6memcpy17h1f9dbb1c3fd18e2fE+0xb4>
   26aee:	68c8      	ldr	r0, [r1, #12]
   26af0:	c501      	stmia	r5!, {r0}
   26af2:	3110      	adds	r1, #16
   26af4:	429d      	cmp	r5, r3
   26af6:	d3ee      	bcc.n	26ad6 <_ZN17compiler_builtins3mem6memcpy17h1f9dbb1c3fd18e2fE+0x92>
   26af8:	4022      	ands	r2, r4
   26afa:	9807      	ldr	r0, [sp, #28]
   26afc:	1831      	adds	r1, r6, r0
   26afe:	980a      	ldr	r0, [sp, #40]	@ 0x28
   26b00:	189c      	adds	r4, r3, r2
   26b02:	42a3      	cmp	r3, r4
   26b04:	d221      	bcs.n	26b4a <_ZN17compiler_builtins3mem6memcpy17h1f9dbb1c3fd18e2fE+0x106>
   26b06:	2503      	movs	r5, #3
   26b08:	4015      	ands	r5, r2
   26b0a:	1e52      	subs	r2, r2, #1
   26b0c:	2d00      	cmp	r5, #0
   26b0e:	d00e      	beq.n	26b2e <_ZN17compiler_builtins3mem6memcpy17h1f9dbb1c3fd18e2fE+0xea>
   26b10:	780e      	ldrb	r6, [r1, #0]
   26b12:	701e      	strb	r6, [r3, #0]
   26b14:	2d01      	cmp	r5, #1
   26b16:	d104      	bne.n	26b22 <_ZN17compiler_builtins3mem6memcpy17h1f9dbb1c3fd18e2fE+0xde>
   26b18:	1c49      	adds	r1, r1, #1
   26b1a:	1c5b      	adds	r3, r3, #1
   26b1c:	2a03      	cmp	r2, #3
   26b1e:	d208      	bcs.n	26b32 <_ZN17compiler_builtins3mem6memcpy17h1f9dbb1c3fd18e2fE+0xee>
   26b20:	e013      	b.n	26b4a <_ZN17compiler_builtins3mem6memcpy17h1f9dbb1c3fd18e2fE+0x106>
   26b22:	784e      	ldrb	r6, [r1, #1]
   26b24:	705e      	strb	r6, [r3, #1]
   26b26:	2d02      	cmp	r5, #2
   26b28:	d111      	bne.n	26b4e <_ZN17compiler_builtins3mem6memcpy17h1f9dbb1c3fd18e2fE+0x10a>
   26b2a:	1c89      	adds	r1, r1, #2
   26b2c:	1c9b      	adds	r3, r3, #2
   26b2e:	2a03      	cmp	r2, #3
   26b30:	d30b      	bcc.n	26b4a <_ZN17compiler_builtins3mem6memcpy17h1f9dbb1c3fd18e2fE+0x106>
   26b32:	780a      	ldrb	r2, [r1, #0]
   26b34:	701a      	strb	r2, [r3, #0]
   26b36:	784a      	ldrb	r2, [r1, #1]
   26b38:	705a      	strb	r2, [r3, #1]
   26b3a:	788a      	ldrb	r2, [r1, #2]
   26b3c:	709a      	strb	r2, [r3, #2]
   26b3e:	78ca      	ldrb	r2, [r1, #3]
   26b40:	70da      	strb	r2, [r3, #3]
   26b42:	1d09      	adds	r1, r1, #4
   26b44:	1d1b      	adds	r3, r3, #4
   26b46:	42a3      	cmp	r3, r4
   26b48:	d1f3      	bne.n	26b32 <_ZN17compiler_builtins3mem6memcpy17h1f9dbb1c3fd18e2fE+0xee>
   26b4a:	b00f      	add	sp, #60	@ 0x3c
   26b4c:	bdf0      	pop	{r4, r5, r6, r7, pc}
   26b4e:	788d      	ldrb	r5, [r1, #2]
   26b50:	709d      	strb	r5, [r3, #2]
   26b52:	1cc9      	adds	r1, r1, #3
   26b54:	1cdb      	adds	r3, r3, #3
   26b56:	2a03      	cmp	r2, #3
   26b58:	d2eb      	bcs.n	26b32 <_ZN17compiler_builtins3mem6memcpy17h1f9dbb1c3fd18e2fE+0xee>
   26b5a:	e7f6      	b.n	26b4a <_ZN17compiler_builtins3mem6memcpy17h1f9dbb1c3fd18e2fE+0x106>
   26b5c:	2400      	movs	r4, #0
   26b5e:	9406      	str	r4, [sp, #24]
   26b60:	940e      	str	r4, [sp, #56]	@ 0x38
   26b62:	ac0e      	add	r4, sp, #56	@ 0x38
   26b64:	19a4      	adds	r4, r4, r6
   26b66:	9405      	str	r4, [sp, #20]
   26b68:	2404      	movs	r4, #4
   26b6a:	1ba4      	subs	r4, r4, r6
   26b6c:	9404      	str	r4, [sp, #16]
   26b6e:	07e4      	lsls	r4, r4, #31
   26b70:	9600      	str	r6, [sp, #0]
   26b72:	d006      	beq.n	26b82 <_ZN17compiler_builtins3mem6memcpy17h1f9dbb1c3fd18e2fE+0x13e>
   26b74:	9c09      	ldr	r4, [sp, #36]	@ 0x24
   26b76:	7824      	ldrb	r4, [r4, #0]
   26b78:	9e05      	ldr	r6, [sp, #20]
   26b7a:	7034      	strb	r4, [r6, #0]
   26b7c:	9e00      	ldr	r6, [sp, #0]
   26b7e:	2401      	movs	r4, #1
   26b80:	9406      	str	r4, [sp, #24]
   26b82:	9c04      	ldr	r4, [sp, #16]
   26b84:	07a4      	lsls	r4, r4, #30
   26b86:	d508      	bpl.n	26b9a <_ZN17compiler_builtins3mem6memcpy17h1f9dbb1c3fd18e2fE+0x156>
   26b88:	9c09      	ldr	r4, [sp, #36]	@ 0x24
   26b8a:	9204      	str	r2, [sp, #16]
   26b8c:	9a06      	ldr	r2, [sp, #24]
   26b8e:	5aa4      	ldrh	r4, [r4, r2]
   26b90:	9e05      	ldr	r6, [sp, #20]
   26b92:	9a06      	ldr	r2, [sp, #24]
   26b94:	52b4      	strh	r4, [r6, r2]
   26b96:	9a04      	ldr	r2, [sp, #16]
   26b98:	9e00      	ldr	r6, [sp, #0]
   26b9a:	00f4      	lsls	r4, r6, #3
   26b9c:	9403      	str	r4, [sp, #12]
   26b9e:	9c0e      	ldr	r4, [sp, #56]	@ 0x38
   26ba0:	9406      	str	r4, [sp, #24]
   26ba2:	1d2c      	adds	r4, r5, #4
   26ba4:	429c      	cmp	r4, r3
   26ba6:	d236      	bcs.n	26c16 <_ZN17compiler_builtins3mem6memcpy17h1f9dbb1c3fd18e2fE+0x1d2>
   26ba8:	4274      	negs	r4, r6
   26baa:	1909      	adds	r1, r1, r4
   26bac:	9105      	str	r1, [sp, #20]
   26bae:	9d03      	ldr	r5, [sp, #12]
   26bb0:	4269      	negs	r1, r5
   26bb2:	2418      	movs	r4, #24
   26bb4:	400c      	ands	r4, r1
   26bb6:	9402      	str	r4, [sp, #8]
   26bb8:	990a      	ldr	r1, [sp, #40]	@ 0x28
   26bba:	9104      	str	r1, [sp, #16]
   26bbc:	4629      	mov	r1, r5
   26bbe:	9c06      	ldr	r4, [sp, #24]
   26bc0:	40cc      	lsrs	r4, r1
   26bc2:	9406      	str	r4, [sp, #24]
   26bc4:	9905      	ldr	r1, [sp, #20]
   26bc6:	1889      	adds	r1, r1, r2
   26bc8:	9101      	str	r1, [sp, #4]
   26bca:	6849      	ldr	r1, [r1, #4]
   26bcc:	460c      	mov	r4, r1
   26bce:	9d02      	ldr	r5, [sp, #8]
   26bd0:	40ac      	lsls	r4, r5
   26bd2:	9d06      	ldr	r5, [sp, #24]
   26bd4:	432c      	orrs	r4, r5
   26bd6:	9d04      	ldr	r5, [sp, #16]
   26bd8:	50ac      	str	r4, [r5, r2]
   26bda:	18ad      	adds	r5, r5, r2
   26bdc:	462c      	mov	r4, r5
   26bde:	3408      	adds	r4, #8
   26be0:	429c      	cmp	r4, r3
   26be2:	d21c      	bcs.n	26c1e <_ZN17compiler_builtins3mem6memcpy17h1f9dbb1c3fd18e2fE+0x1da>
   26be4:	9c03      	ldr	r4, [sp, #12]
   26be6:	40e1      	lsrs	r1, r4
   26be8:	9c01      	ldr	r4, [sp, #4]
   26bea:	68a4      	ldr	r4, [r4, #8]
   26bec:	9406      	str	r4, [sp, #24]
   26bee:	9501      	str	r5, [sp, #4]
   26bf0:	9d02      	ldr	r5, [sp, #8]
   26bf2:	40ac      	lsls	r4, r5
   26bf4:	430c      	orrs	r4, r1
   26bf6:	9901      	ldr	r1, [sp, #4]
   26bf8:	604c      	str	r4, [r1, #4]
   26bfa:	9904      	ldr	r1, [sp, #16]
   26bfc:	3108      	adds	r1, #8
   26bfe:	9104      	str	r1, [sp, #16]
   26c00:	188d      	adds	r5, r1, r2
   26c02:	1d29      	adds	r1, r5, #4
   26c04:	9c05      	ldr	r4, [sp, #20]
   26c06:	3408      	adds	r4, #8
   26c08:	9405      	str	r4, [sp, #20]
   26c0a:	4299      	cmp	r1, r3
   26c0c:	9903      	ldr	r1, [sp, #12]
   26c0e:	d3d6      	bcc.n	26bbe <_ZN17compiler_builtins3mem6memcpy17h1f9dbb1c3fd18e2fE+0x17a>
   26c10:	9805      	ldr	r0, [sp, #20]
   26c12:	1880      	adds	r0, r0, r2
   26c14:	e001      	b.n	26c1a <_ZN17compiler_builtins3mem6memcpy17h1f9dbb1c3fd18e2fE+0x1d6>
   26c16:	9809      	ldr	r0, [sp, #36]	@ 0x24
   26c18:	1b80      	subs	r0, r0, r6
   26c1a:	9005      	str	r0, [sp, #20]
   26c1c:	e004      	b.n	26c28 <_ZN17compiler_builtins3mem6memcpy17h1f9dbb1c3fd18e2fE+0x1e4>
   26c1e:	9801      	ldr	r0, [sp, #4]
   26c20:	1d00      	adds	r0, r0, #4
   26c22:	9005      	str	r0, [sp, #20]
   26c24:	1d2d      	adds	r5, r5, #4
   26c26:	9106      	str	r1, [sp, #24]
   26c28:	a80d      	add	r0, sp, #52	@ 0x34
   26c2a:	2100      	movs	r1, #0
   26c2c:	9004      	str	r0, [sp, #16]
   26c2e:	7001      	strb	r1, [r0, #0]
   26c30:	a80c      	add	r0, sp, #48	@ 0x30
   26c32:	7001      	strb	r1, [r0, #0]
   26c34:	2e01      	cmp	r6, #1
   26c36:	460e      	mov	r6, r1
   26c38:	460c      	mov	r4, r1
   26c3a:	9102      	str	r1, [sp, #8]
   26c3c:	9a0b      	ldr	r2, [sp, #44]	@ 0x2c
   26c3e:	d009      	beq.n	26c54 <_ZN17compiler_builtins3mem6memcpy17h1f9dbb1c3fd18e2fE+0x210>
   26c40:	9c05      	ldr	r4, [sp, #20]
   26c42:	7960      	ldrb	r0, [r4, #5]
   26c44:	7926      	ldrb	r6, [r4, #4]
   26c46:	ac0d      	add	r4, sp, #52	@ 0x34
   26c48:	7026      	strb	r6, [r4, #0]
   26c4a:	0204      	lsls	r4, r0, #8
   26c4c:	2002      	movs	r0, #2
   26c4e:	9002      	str	r0, [sp, #8]
   26c50:	a80c      	add	r0, sp, #48	@ 0x30
   26c52:	9004      	str	r0, [sp, #16]
   26c54:	9809      	ldr	r0, [sp, #36]	@ 0x24
   26c56:	07c0      	lsls	r0, r0, #31
   26c58:	d00a      	beq.n	26c70 <_ZN17compiler_builtins3mem6memcpy17h1f9dbb1c3fd18e2fE+0x22c>
   26c5a:	9805      	ldr	r0, [sp, #20]
   26c5c:	1d00      	adds	r0, r0, #4
   26c5e:	9902      	ldr	r1, [sp, #8]
   26c60:	5c40      	ldrb	r0, [r0, r1]
   26c62:	9904      	ldr	r1, [sp, #16]
   26c64:	7008      	strb	r0, [r1, #0]
   26c66:	a80d      	add	r0, sp, #52	@ 0x34
   26c68:	7806      	ldrb	r6, [r0, #0]
   26c6a:	a80c      	add	r0, sp, #48	@ 0x30
   26c6c:	7800      	ldrb	r0, [r0, #0]
   26c6e:	0401      	lsls	r1, r0, #16
   26c70:	9605      	str	r6, [sp, #20]
   26c72:	9803      	ldr	r0, [sp, #12]
   26c74:	4240      	negs	r0, r0
   26c76:	9004      	str	r0, [sp, #16]
   26c78:	2618      	movs	r6, #24
   26c7a:	9804      	ldr	r0, [sp, #16]
   26c7c:	4006      	ands	r6, r0
   26c7e:	430c      	orrs	r4, r1
   26c80:	9905      	ldr	r1, [sp, #20]
   26c82:	430c      	orrs	r4, r1
   26c84:	40b4      	lsls	r4, r6
   26c86:	9906      	ldr	r1, [sp, #24]
   26c88:	9803      	ldr	r0, [sp, #12]
   26c8a:	40c1      	lsrs	r1, r0
   26c8c:	4321      	orrs	r1, r4
   26c8e:	6029      	str	r1, [r5, #0]
   26c90:	9c08      	ldr	r4, [sp, #32]
   26c92:	9e09      	ldr	r6, [sp, #36]	@ 0x24
   26c94:	e730      	b.n	26af8 <_ZN17compiler_builtins3mem6memcpy17h1f9dbb1c3fd18e2fE+0xb4>

00026c96 <__aeabi_memcpy>:
   26c96:	b580      	push	{r7, lr}
   26c98:	af00      	add	r7, sp, #0
   26c9a:	f7ff fed3 	bl	26a44 <_ZN17compiler_builtins3mem6memcpy17h1f9dbb1c3fd18e2fE>
   26c9e:	bd80      	pop	{r7, pc}
