
target/riscv32imc-unknown-none-elf/opt-2/examples/complex_full_dynamic:     file format elf32-littleriscv

Sections:
Idx Name          Size      VMA       LMA       File off  Algn
  0 .eh_frame     00000060  000100d4  000100d4  000000d4  2**2
                  CONTENTS, ALLOC, LOAD, READONLY, DATA
  1 .text         00009fe4  00011134  00011134  00000134  2**1
                  CONTENTS, ALLOC, LOAD, READONLY, CODE
  2 .comment      00000099  00000000  00000000  0000a118  2**0
                  CONTENTS, READONLY
  3 .riscv.attributes 0000002f  00000000  00000000  0000a1b1  2**0
                  CONTENTS, READONLY

Disassembly of section .text:

00011134 <_ZN20complex_full_dynamic3app17h020ebfcfa527a02dE>:
   11134:	7171                	addi	sp,sp,-176
   11136:	d706                	sw	ra,172(sp)
   11138:	d522                	sw	s0,168(sp)
   1113a:	d326                	sw	s1,164(sp)
   1113c:	d14a                	sw	s2,160(sp)
   1113e:	cf4e                	sw	s3,156(sp)
   11140:	89aa                	mv	s3,a0
   11142:	4409                	li	s0,2
   11144:	00810a23          	sb	s0,20(sp)
   11148:	0824                	addi	s1,sp,24
   1114a:	02700613          	li	a2,39
   1114e:	8526                	mv	a0,s1
   11150:	0000a097          	auipc	ra,0xa
   11154:	e22080e7          	jalr	-478(ra) # 1af72 <memcpy>
   11158:	04c10913          	addi	s2,sp,76
   1115c:	04f00613          	li	a2,79
   11160:	854a                	mv	a0,s2
   11162:	4581                	li	a1,0
   11164:	0000a097          	auipc	ra,0xa
   11168:	da2080e7          	jalr	-606(ra) # 1af06 <memset>
   1116c:	8626                	mv	a2,s1
   1116e:	04810423          	sb	s0,72(sp)
   11172:	6505                	lui	a0,0x1
   11174:	44a5                	li	s1,9
   11176:	4811                	li	a6,4
   11178:	45a5                	li	a1,9
   1117a:	b4c50793          	addi	a5,a0,-1204 # b4c <.Lline_table_start1+0x921>
   1117e:	02700693          	li	a3,39
   11182:	4711                	li	a4,4
   11184:	853e                	mv	a0,a5
   11186:	00000073          	ecall
   1118a:	04850263          	beq	a0,s0,111ce <_ZN20complex_full_dynamic3app17h020ebfcfa527a02dE+0x9a>
   1118e:	853e                	mv	a0,a5
   11190:	4581                	li	a1,0
   11192:	864a                	mv	a2,s2
   11194:	c63e                	sw	a5,12(sp)
   11196:	c826                	sw	s1,16(sp)
   11198:	01010a23          	sb	a6,20(sp)
   1119c:	448d                	li	s1,3
   1119e:	04f00693          	li	a3,79
   111a2:	470d                	li	a4,3
   111a4:	00000073          	ecall
   111a8:	02850363          	beq	a0,s0,111ce <_ZN20complex_full_dynamic3app17h020ebfcfa527a02dE+0x9a>
   111ac:	c0be                	sw	a5,64(sp)
   111ae:	c282                	sw	zero,68(sp)
   111b0:	04910423          	sb	s1,72(sp)
   111b4:	6505                	lui	a0,0x1
   111b6:	45a5                	li	a1,9
   111b8:	b4c50513          	addi	a0,a0,-1204 # b4c <.Lline_table_start1+0x921>
   111bc:	4709                	li	a4,2
   111be:	07f00793          	li	a5,127
   111c2:	4601                	li	a2,0
   111c4:	4681                	li	a3,0
   111c6:	00000073          	ecall
   111ca:	02a7e863          	bltu	a5,a0,111fa <_ZN20complex_full_dynamic3app17h020ebfcfa527a02dE+0xc6>
   111ce:	00b9a223          	sw	a1,4(s3)
   111d2:	4505                	li	a0,1
   111d4:	00a98023          	sb	a0,0(s3)
   111d8:	0088                	addi	a0,sp,64
   111da:	0000a097          	auipc	ra,0xa
   111de:	d0c080e7          	jalr	-756(ra) # 1aee6 <_ZN9allow_pin12full_dynamic17unshare_if_shared17he9718eb989dae51aE>
   111e2:	0068                	addi	a0,sp,12
   111e4:	0000a097          	auipc	ra,0xa
   111e8:	d02080e7          	jalr	-766(ra) # 1aee6 <_ZN9allow_pin12full_dynamic17unshare_if_shared17he9718eb989dae51aE>
   111ec:	50ba                	lw	ra,172(sp)
   111ee:	542a                	lw	s0,168(sp)
   111f0:	549a                	lw	s1,164(sp)
   111f2:	590a                	lw	s2,160(sp)
   111f4:	49fa                	lw	s3,156(sp)
   111f6:	614d                	addi	sp,sp,176
   111f8:	8082                	ret
   111fa:	0068                	addi	a0,sp,12
   111fc:	0000a097          	auipc	ra,0xa
   11200:	cea080e7          	jalr	-790(ra) # 1aee6 <_ZN9allow_pin12full_dynamic17unshare_if_shared17he9718eb989dae51aE>
   11204:	0088                	addi	a0,sp,64
   11206:	0000a097          	auipc	ra,0xa
   1120a:	ce0080e7          	jalr	-800(ra) # 1aee6 <_ZN9allow_pin12full_dynamic17unshare_if_shared17he9718eb989dae51aE>
   1120e:	0088                	addi	a0,sp,64
   11210:	0000a097          	auipc	ra,0xa
   11214:	cd6080e7          	jalr	-810(ra) # 1aee6 <_ZN9allow_pin12full_dynamic17unshare_if_shared17he9718eb989dae51aE>
   11218:	00198513          	addi	a0,s3,1
   1121c:	04f00613          	li	a2,79
   11220:	85ca                	mv	a1,s2
   11222:	0000a097          	auipc	ra,0xa
   11226:	d50080e7          	jalr	-688(ra) # 1af72 <memcpy>
   1122a:	4501                	li	a0,0
   1122c:	b765                	j	111d4 <_ZN20complex_full_dynamic3app17h020ebfcfa527a02dE+0xa0>

0001122e <_ZN20complex_full_dynamic3app17h02240743a09cf735E>:
   1122e:	7135                	addi	sp,sp,-160
   11230:	cf06                	sw	ra,156(sp)
   11232:	cd22                	sw	s0,152(sp)
   11234:	cb26                	sw	s1,148(sp)
   11236:	c94a                	sw	s2,144(sp)
   11238:	c74e                	sw	s3,140(sp)
   1123a:	89aa                	mv	s3,a0
   1123c:	4409                	li	s0,2
   1123e:	00810623          	sb	s0,12(sp)
   11242:	0804                	addi	s1,sp,16
   11244:	03c00613          	li	a2,60
   11248:	8526                	mv	a0,s1
   1124a:	0000a097          	auipc	ra,0xa
   1124e:	d28080e7          	jalr	-728(ra) # 1af72 <memcpy>
   11252:	05810913          	addi	s2,sp,88
   11256:	03200613          	li	a2,50
   1125a:	854a                	mv	a0,s2
   1125c:	4581                	li	a1,0
   1125e:	0000a097          	auipc	ra,0xa
   11262:	ca8080e7          	jalr	-856(ra) # 1af06 <memset>
   11266:	8626                	mv	a2,s1
   11268:	04810a23          	sb	s0,84(sp)
   1126c:	6509                	lui	a0,0x2
   1126e:	4499                	li	s1,6
   11270:	4811                	li	a6,4
   11272:	4599                	li	a1,6
   11274:	b1e50793          	addi	a5,a0,-1250 # 1b1e <.Lline_table_start1+0x18f3>
   11278:	03c00693          	li	a3,60
   1127c:	4711                	li	a4,4
   1127e:	853e                	mv	a0,a5
   11280:	00000073          	ecall
   11284:	04850363          	beq	a0,s0,112ca <_ZN20complex_full_dynamic3app17h02240743a09cf735E+0x9c>
   11288:	853e                	mv	a0,a5
   1128a:	864a                	mv	a2,s2
   1128c:	c23e                	sw	a5,4(sp)
   1128e:	c426                	sw	s1,8(sp)
   11290:	01010623          	sb	a6,12(sp)
   11294:	44a1                	li	s1,8
   11296:	480d                	li	a6,3
   11298:	45a1                	li	a1,8
   1129a:	03200693          	li	a3,50
   1129e:	470d                	li	a4,3
   112a0:	00000073          	ecall
   112a4:	02850363          	beq	a0,s0,112ca <_ZN20complex_full_dynamic3app17h02240743a09cf735E+0x9c>
   112a8:	c6be                	sw	a5,76(sp)
   112aa:	c8a6                	sw	s1,80(sp)
   112ac:	05010a23          	sb	a6,84(sp)
   112b0:	6509                	lui	a0,0x2
   112b2:	4599                	li	a1,6
   112b4:	4621                	li	a2,8
   112b6:	b1e50513          	addi	a0,a0,-1250 # 1b1e <.Lline_table_start1+0x18f3>
   112ba:	4709                	li	a4,2
   112bc:	07f00793          	li	a5,127
   112c0:	4681                	li	a3,0
   112c2:	00000073          	ecall
   112c6:	02a7e863          	bltu	a5,a0,112f6 <_ZN20complex_full_dynamic3app17h02240743a09cf735E+0xc8>
   112ca:	00b9a223          	sw	a1,4(s3)
   112ce:	4505                	li	a0,1
   112d0:	00a98023          	sb	a0,0(s3)
   112d4:	00e8                	addi	a0,sp,76
   112d6:	0000a097          	auipc	ra,0xa
   112da:	c10080e7          	jalr	-1008(ra) # 1aee6 <_ZN9allow_pin12full_dynamic17unshare_if_shared17he9718eb989dae51aE>
   112de:	0048                	addi	a0,sp,4
   112e0:	0000a097          	auipc	ra,0xa
   112e4:	c06080e7          	jalr	-1018(ra) # 1aee6 <_ZN9allow_pin12full_dynamic17unshare_if_shared17he9718eb989dae51aE>
   112e8:	40fa                	lw	ra,156(sp)
   112ea:	446a                	lw	s0,152(sp)
   112ec:	44da                	lw	s1,148(sp)
   112ee:	494a                	lw	s2,144(sp)
   112f0:	49ba                	lw	s3,140(sp)
   112f2:	610d                	addi	sp,sp,160
   112f4:	8082                	ret
   112f6:	0048                	addi	a0,sp,4
   112f8:	0000a097          	auipc	ra,0xa
   112fc:	bee080e7          	jalr	-1042(ra) # 1aee6 <_ZN9allow_pin12full_dynamic17unshare_if_shared17he9718eb989dae51aE>
   11300:	00e8                	addi	a0,sp,76
   11302:	0000a097          	auipc	ra,0xa
   11306:	be4080e7          	jalr	-1052(ra) # 1aee6 <_ZN9allow_pin12full_dynamic17unshare_if_shared17he9718eb989dae51aE>
   1130a:	00e8                	addi	a0,sp,76
   1130c:	0000a097          	auipc	ra,0xa
   11310:	bda080e7          	jalr	-1062(ra) # 1aee6 <_ZN9allow_pin12full_dynamic17unshare_if_shared17he9718eb989dae51aE>
   11314:	00198513          	addi	a0,s3,1
   11318:	03200613          	li	a2,50
   1131c:	85ca                	mv	a1,s2
   1131e:	0000a097          	auipc	ra,0xa
   11322:	c54080e7          	jalr	-940(ra) # 1af72 <memcpy>
   11326:	4501                	li	a0,0
   11328:	b765                	j	112d0 <_ZN20complex_full_dynamic3app17h02240743a09cf735E+0xa2>

0001132a <_ZN20complex_full_dynamic3app17h074528d5c661f313E>:
   1132a:	7119                	addi	sp,sp,-128
   1132c:	de86                	sw	ra,124(sp)
   1132e:	dca2                	sw	s0,120(sp)
   11330:	daa6                	sw	s1,116(sp)
   11332:	d8ca                	sw	s2,112(sp)
   11334:	d6ce                	sw	s3,108(sp)
   11336:	89aa                	mv	s3,a0
   11338:	4409                	li	s0,2
   1133a:	00810423          	sb	s0,8(sp)
   1133e:	0064                	addi	s1,sp,12
   11340:	02400613          	li	a2,36
   11344:	8526                	mv	a0,s1
   11346:	0000a097          	auipc	ra,0xa
   1134a:	c2c080e7          	jalr	-980(ra) # 1af72 <memcpy>
   1134e:	03c10913          	addi	s2,sp,60
   11352:	02f00613          	li	a2,47
   11356:	854a                	mv	a0,s2
   11358:	4581                	li	a1,0
   1135a:	0000a097          	auipc	ra,0xa
   1135e:	bac080e7          	jalr	-1108(ra) # 1af06 <memset>
   11362:	8626                	mv	a2,s1
   11364:	02810c23          	sb	s0,56(sp)
   11368:	6505                	lui	a0,0x1
   1136a:	4499                	li	s1,6
   1136c:	4811                	li	a6,4
   1136e:	4599                	li	a1,6
   11370:	27350793          	addi	a5,a0,627 # 1273 <.Lline_table_start1+0x1048>
   11374:	02400693          	li	a3,36
   11378:	4711                	li	a4,4
   1137a:	853e                	mv	a0,a5
   1137c:	00000073          	ecall
   11380:	04850363          	beq	a0,s0,113c6 <_ZN20complex_full_dynamic3app17h074528d5c661f313E+0x9c>
   11384:	853e                	mv	a0,a5
   11386:	864a                	mv	a2,s2
   11388:	c03e                	sw	a5,0(sp)
   1138a:	c226                	sw	s1,4(sp)
   1138c:	01010423          	sb	a6,8(sp)
   11390:	44a5                	li	s1,9
   11392:	480d                	li	a6,3
   11394:	45a5                	li	a1,9
   11396:	02f00693          	li	a3,47
   1139a:	470d                	li	a4,3
   1139c:	00000073          	ecall
   113a0:	02850363          	beq	a0,s0,113c6 <_ZN20complex_full_dynamic3app17h074528d5c661f313E+0x9c>
   113a4:	d83e                	sw	a5,48(sp)
   113a6:	da26                	sw	s1,52(sp)
   113a8:	03010c23          	sb	a6,56(sp)
   113ac:	6505                	lui	a0,0x1
   113ae:	4599                	li	a1,6
   113b0:	4625                	li	a2,9
   113b2:	27350513          	addi	a0,a0,627 # 1273 <.Lline_table_start1+0x1048>
   113b6:	4709                	li	a4,2
   113b8:	07f00793          	li	a5,127
   113bc:	4681                	li	a3,0
   113be:	00000073          	ecall
   113c2:	02a7e863          	bltu	a5,a0,113f2 <_ZN20complex_full_dynamic3app17h074528d5c661f313E+0xc8>
   113c6:	00b9a223          	sw	a1,4(s3)
   113ca:	4505                	li	a0,1
   113cc:	00a98023          	sb	a0,0(s3)
   113d0:	1808                	addi	a0,sp,48
   113d2:	0000a097          	auipc	ra,0xa
   113d6:	b14080e7          	jalr	-1260(ra) # 1aee6 <_ZN9allow_pin12full_dynamic17unshare_if_shared17he9718eb989dae51aE>
   113da:	850a                	mv	a0,sp
   113dc:	0000a097          	auipc	ra,0xa
   113e0:	b0a080e7          	jalr	-1270(ra) # 1aee6 <_ZN9allow_pin12full_dynamic17unshare_if_shared17he9718eb989dae51aE>
   113e4:	50f6                	lw	ra,124(sp)
   113e6:	5466                	lw	s0,120(sp)
   113e8:	54d6                	lw	s1,116(sp)
   113ea:	5946                	lw	s2,112(sp)
   113ec:	59b6                	lw	s3,108(sp)
   113ee:	6109                	addi	sp,sp,128
   113f0:	8082                	ret
   113f2:	850a                	mv	a0,sp
   113f4:	0000a097          	auipc	ra,0xa
   113f8:	af2080e7          	jalr	-1294(ra) # 1aee6 <_ZN9allow_pin12full_dynamic17unshare_if_shared17he9718eb989dae51aE>
   113fc:	1808                	addi	a0,sp,48
   113fe:	0000a097          	auipc	ra,0xa
   11402:	ae8080e7          	jalr	-1304(ra) # 1aee6 <_ZN9allow_pin12full_dynamic17unshare_if_shared17he9718eb989dae51aE>
   11406:	1808                	addi	a0,sp,48
   11408:	0000a097          	auipc	ra,0xa
   1140c:	ade080e7          	jalr	-1314(ra) # 1aee6 <_ZN9allow_pin12full_dynamic17unshare_if_shared17he9718eb989dae51aE>
   11410:	00198513          	addi	a0,s3,1
   11414:	02f00613          	li	a2,47
   11418:	85ca                	mv	a1,s2
   1141a:	0000a097          	auipc	ra,0xa
   1141e:	b58080e7          	jalr	-1192(ra) # 1af72 <memcpy>
   11422:	4501                	li	a0,0
   11424:	b765                	j	113cc <_ZN20complex_full_dynamic3app17h074528d5c661f313E+0xa2>

00011426 <_ZN20complex_full_dynamic3app17h0746dba7a66106e1E>:
   11426:	7131                	addi	sp,sp,-192
   11428:	df06                	sw	ra,188(sp)
   1142a:	dd22                	sw	s0,184(sp)
   1142c:	db26                	sw	s1,180(sp)
   1142e:	d94a                	sw	s2,176(sp)
   11430:	d74e                	sw	s3,172(sp)
   11432:	89aa                	mv	s3,a0
   11434:	4409                	li	s0,2
   11436:	00810a23          	sb	s0,20(sp)
   1143a:	0824                	addi	s1,sp,24
   1143c:	02a00613          	li	a2,42
   11440:	8526                	mv	a0,s1
   11442:	0000a097          	auipc	ra,0xa
   11446:	b30080e7          	jalr	-1232(ra) # 1af72 <memcpy>
   1144a:	05010913          	addi	s2,sp,80
   1144e:	05900613          	li	a2,89
   11452:	854a                	mv	a0,s2
   11454:	4581                	li	a1,0
   11456:	0000a097          	auipc	ra,0xa
   1145a:	ab0080e7          	jalr	-1360(ra) # 1af06 <memset>
   1145e:	8626                	mv	a2,s1
   11460:	04810623          	sb	s0,76(sp)
   11464:	6505                	lui	a0,0x1
   11466:	4485                	li	s1,1
   11468:	4811                	li	a6,4
   1146a:	4585                	li	a1,1
   1146c:	ed250793          	addi	a5,a0,-302 # ed2 <.Lline_table_start1+0xca7>
   11470:	02a00693          	li	a3,42
   11474:	4711                	li	a4,4
   11476:	853e                	mv	a0,a5
   11478:	00000073          	ecall
   1147c:	04850263          	beq	a0,s0,114c0 <_ZN20complex_full_dynamic3app17h0746dba7a66106e1E+0x9a>
   11480:	853e                	mv	a0,a5
   11482:	864a                	mv	a2,s2
   11484:	c63e                	sw	a5,12(sp)
   11486:	c826                	sw	s1,16(sp)
   11488:	01010a23          	sb	a6,20(sp)
   1148c:	448d                	li	s1,3
   1148e:	458d                	li	a1,3
   11490:	05900693          	li	a3,89
   11494:	470d                	li	a4,3
   11496:	00000073          	ecall
   1149a:	02850363          	beq	a0,s0,114c0 <_ZN20complex_full_dynamic3app17h0746dba7a66106e1E+0x9a>
   1149e:	c2be                	sw	a5,68(sp)
   114a0:	c4a6                	sw	s1,72(sp)
   114a2:	04910623          	sb	s1,76(sp)
   114a6:	6505                	lui	a0,0x1
   114a8:	4585                	li	a1,1
   114aa:	460d                	li	a2,3
   114ac:	ed250513          	addi	a0,a0,-302 # ed2 <.Lline_table_start1+0xca7>
   114b0:	4709                	li	a4,2
   114b2:	07f00793          	li	a5,127
   114b6:	4681                	li	a3,0
   114b8:	00000073          	ecall
   114bc:	02a7e863          	bltu	a5,a0,114ec <_ZN20complex_full_dynamic3app17h0746dba7a66106e1E+0xc6>
   114c0:	00b9a223          	sw	a1,4(s3)
   114c4:	4505                	li	a0,1
   114c6:	00a98023          	sb	a0,0(s3)
   114ca:	00c8                	addi	a0,sp,68
   114cc:	0000a097          	auipc	ra,0xa
   114d0:	a1a080e7          	jalr	-1510(ra) # 1aee6 <_ZN9allow_pin12full_dynamic17unshare_if_shared17he9718eb989dae51aE>
   114d4:	0068                	addi	a0,sp,12
   114d6:	0000a097          	auipc	ra,0xa
   114da:	a10080e7          	jalr	-1520(ra) # 1aee6 <_ZN9allow_pin12full_dynamic17unshare_if_shared17he9718eb989dae51aE>
   114de:	50fa                	lw	ra,188(sp)
   114e0:	546a                	lw	s0,184(sp)
   114e2:	54da                	lw	s1,180(sp)
   114e4:	594a                	lw	s2,176(sp)
   114e6:	59ba                	lw	s3,172(sp)
   114e8:	6129                	addi	sp,sp,192
   114ea:	8082                	ret
   114ec:	0068                	addi	a0,sp,12
   114ee:	0000a097          	auipc	ra,0xa
   114f2:	9f8080e7          	jalr	-1544(ra) # 1aee6 <_ZN9allow_pin12full_dynamic17unshare_if_shared17he9718eb989dae51aE>
   114f6:	00c8                	addi	a0,sp,68
   114f8:	0000a097          	auipc	ra,0xa
   114fc:	9ee080e7          	jalr	-1554(ra) # 1aee6 <_ZN9allow_pin12full_dynamic17unshare_if_shared17he9718eb989dae51aE>
   11500:	00c8                	addi	a0,sp,68
   11502:	0000a097          	auipc	ra,0xa
   11506:	9e4080e7          	jalr	-1564(ra) # 1aee6 <_ZN9allow_pin12full_dynamic17unshare_if_shared17he9718eb989dae51aE>
   1150a:	00198513          	addi	a0,s3,1
   1150e:	05900613          	li	a2,89
   11512:	85ca                	mv	a1,s2
   11514:	0000a097          	auipc	ra,0xa
   11518:	a5e080e7          	jalr	-1442(ra) # 1af72 <memcpy>
   1151c:	4501                	li	a0,0
   1151e:	b765                	j	114c6 <_ZN20complex_full_dynamic3app17h0746dba7a66106e1E+0xa0>

00011520 <_ZN20complex_full_dynamic3app17h0ea409ad995a6ef8E>:
   11520:	7119                	addi	sp,sp,-128
   11522:	de86                	sw	ra,124(sp)
   11524:	dca2                	sw	s0,120(sp)
   11526:	daa6                	sw	s1,116(sp)
   11528:	d8ca                	sw	s2,112(sp)
   1152a:	d6ce                	sw	s3,108(sp)
   1152c:	892a                	mv	s2,a0
   1152e:	4409                	li	s0,2
   11530:	00810a23          	sb	s0,20(sp)
   11534:	0824                	addi	s1,sp,24
   11536:	03600613          	li	a2,54
   1153a:	8526                	mv	a0,s1
   1153c:	0000a097          	auipc	ra,0xa
   11540:	a36080e7          	jalr	-1482(ra) # 1af72 <memcpy>
   11544:	8626                	mv	a2,s1
   11546:	06011423          	sh	zero,104(sp)
   1154a:	06010523          	sb	zero,106(sp)
   1154e:	04810c23          	sb	s0,88(sp)
   11552:	ce82                	sw	zero,92(sp)
   11554:	d082                	sw	zero,96(sp)
   11556:	d282                	sw	zero,100(sp)
   11558:	65300793          	li	a5,1619
   1155c:	4495                	li	s1,5
   1155e:	4811                	li	a6,4
   11560:	65300513          	li	a0,1619
   11564:	4595                	li	a1,5
   11566:	03600693          	li	a3,54
   1156a:	4711                	li	a4,4
   1156c:	00000073          	ecall
   11570:	04850563          	beq	a0,s0,115ba <_ZN20complex_full_dynamic3app17h0ea409ad995a6ef8E+0x9a>
   11574:	05c10993          	addi	s3,sp,92
   11578:	c63e                	sw	a5,12(sp)
   1157a:	c826                	sw	s1,16(sp)
   1157c:	01010a23          	sb	a6,20(sp)
   11580:	478d                	li	a5,3
   11582:	65300513          	li	a0,1619
   11586:	458d                	li	a1,3
   11588:	46bd                	li	a3,15
   1158a:	470d                	li	a4,3
   1158c:	864e                	mv	a2,s3
   1158e:	00000073          	ecall
   11592:	02850463          	beq	a0,s0,115ba <_ZN20complex_full_dynamic3app17h0ea409ad995a6ef8E+0x9a>
   11596:	65300693          	li	a3,1619
   1159a:	65300513          	li	a0,1619
   1159e:	4595                	li	a1,5
   115a0:	460d                	li	a2,3
   115a2:	4709                	li	a4,2
   115a4:	07f00493          	li	s1,127
   115a8:	c8b6                	sw	a3,80(sp)
   115aa:	cabe                	sw	a5,84(sp)
   115ac:	04f10c23          	sb	a5,88(sp)
   115b0:	4681                	li	a3,0
   115b2:	00000073          	ecall
   115b6:	02a4e863          	bltu	s1,a0,115e6 <_ZN20complex_full_dynamic3app17h0ea409ad995a6ef8E+0xc6>
   115ba:	00b92223          	sw	a1,4(s2)
   115be:	4505                	li	a0,1
   115c0:	00a90023          	sb	a0,0(s2)
   115c4:	0888                	addi	a0,sp,80
   115c6:	0000a097          	auipc	ra,0xa
   115ca:	920080e7          	jalr	-1760(ra) # 1aee6 <_ZN9allow_pin12full_dynamic17unshare_if_shared17he9718eb989dae51aE>
   115ce:	0068                	addi	a0,sp,12
   115d0:	0000a097          	auipc	ra,0xa
   115d4:	916080e7          	jalr	-1770(ra) # 1aee6 <_ZN9allow_pin12full_dynamic17unshare_if_shared17he9718eb989dae51aE>
   115d8:	50f6                	lw	ra,124(sp)
   115da:	5466                	lw	s0,120(sp)
   115dc:	54d6                	lw	s1,116(sp)
   115de:	5946                	lw	s2,112(sp)
   115e0:	59b6                	lw	s3,108(sp)
   115e2:	6109                	addi	sp,sp,128
   115e4:	8082                	ret
   115e6:	0068                	addi	a0,sp,12
   115e8:	0000a097          	auipc	ra,0xa
   115ec:	8fe080e7          	jalr	-1794(ra) # 1aee6 <_ZN9allow_pin12full_dynamic17unshare_if_shared17he9718eb989dae51aE>
   115f0:	0888                	addi	a0,sp,80
   115f2:	0000a097          	auipc	ra,0xa
   115f6:	8f4080e7          	jalr	-1804(ra) # 1aee6 <_ZN9allow_pin12full_dynamic17unshare_if_shared17he9718eb989dae51aE>
   115fa:	0888                	addi	a0,sp,80
   115fc:	0000a097          	auipc	ra,0xa
   11600:	8ea080e7          	jalr	-1814(ra) # 1aee6 <_ZN9allow_pin12full_dynamic17unshare_if_shared17he9718eb989dae51aE>
   11604:	00190513          	addi	a0,s2,1
   11608:	463d                	li	a2,15
   1160a:	85ce                	mv	a1,s3
   1160c:	0000a097          	auipc	ra,0xa
   11610:	966080e7          	jalr	-1690(ra) # 1af72 <memcpy>
   11614:	4501                	li	a0,0
   11616:	b76d                	j	115c0 <_ZN20complex_full_dynamic3app17h0ea409ad995a6ef8E+0xa0>

00011618 <_ZN20complex_full_dynamic3app17h11429e58d6456ffaE>:
   11618:	7119                	addi	sp,sp,-128
   1161a:	de86                	sw	ra,124(sp)
   1161c:	dca2                	sw	s0,120(sp)
   1161e:	daa6                	sw	s1,116(sp)
   11620:	d8ca                	sw	s2,112(sp)
   11622:	d6ce                	sw	s3,108(sp)
   11624:	89aa                	mv	s3,a0
   11626:	4409                	li	s0,2
   11628:	00810623          	sb	s0,12(sp)
   1162c:	0804                	addi	s1,sp,16
   1162e:	02100613          	li	a2,33
   11632:	8526                	mv	a0,s1
   11634:	0000a097          	auipc	ra,0xa
   11638:	93e080e7          	jalr	-1730(ra) # 1af72 <memcpy>
   1163c:	04010913          	addi	s2,sp,64
   11640:	02a00613          	li	a2,42
   11644:	854a                	mv	a0,s2
   11646:	4581                	li	a1,0
   11648:	0000a097          	auipc	ra,0xa
   1164c:	8be080e7          	jalr	-1858(ra) # 1af06 <memset>
   11650:	8626                	mv	a2,s1
   11652:	02810e23          	sb	s0,60(sp)
   11656:	6505                	lui	a0,0x1
   11658:	4485                	li	s1,1
   1165a:	4811                	li	a6,4
   1165c:	4585                	li	a1,1
   1165e:	5f350793          	addi	a5,a0,1523 # 15f3 <.Lline_table_start1+0x13c8>
   11662:	02100693          	li	a3,33
   11666:	4711                	li	a4,4
   11668:	853e                	mv	a0,a5
   1166a:	00000073          	ecall
   1166e:	04850263          	beq	a0,s0,116b2 <_ZN20complex_full_dynamic3app17h11429e58d6456ffaE+0x9a>
   11672:	853e                	mv	a0,a5
   11674:	864a                	mv	a2,s2
   11676:	c23e                	sw	a5,4(sp)
   11678:	c426                	sw	s1,8(sp)
   1167a:	01010623          	sb	a6,12(sp)
   1167e:	448d                	li	s1,3
   11680:	458d                	li	a1,3
   11682:	02a00693          	li	a3,42
   11686:	470d                	li	a4,3
   11688:	00000073          	ecall
   1168c:	02850363          	beq	a0,s0,116b2 <_ZN20complex_full_dynamic3app17h11429e58d6456ffaE+0x9a>
   11690:	da3e                	sw	a5,52(sp)
   11692:	dc26                	sw	s1,56(sp)
   11694:	02910e23          	sb	s1,60(sp)
   11698:	6505                	lui	a0,0x1
   1169a:	4585                	li	a1,1
   1169c:	460d                	li	a2,3
   1169e:	5f350513          	addi	a0,a0,1523 # 15f3 <.Lline_table_start1+0x13c8>
   116a2:	4709                	li	a4,2
   116a4:	07f00793          	li	a5,127
   116a8:	4681                	li	a3,0
   116aa:	00000073          	ecall
   116ae:	02a7e863          	bltu	a5,a0,116de <_ZN20complex_full_dynamic3app17h11429e58d6456ffaE+0xc6>
   116b2:	00b9a223          	sw	a1,4(s3)
   116b6:	4505                	li	a0,1
   116b8:	00a98023          	sb	a0,0(s3)
   116bc:	1848                	addi	a0,sp,52
   116be:	0000a097          	auipc	ra,0xa
   116c2:	828080e7          	jalr	-2008(ra) # 1aee6 <_ZN9allow_pin12full_dynamic17unshare_if_shared17he9718eb989dae51aE>
   116c6:	0048                	addi	a0,sp,4
   116c8:	0000a097          	auipc	ra,0xa
   116cc:	81e080e7          	jalr	-2018(ra) # 1aee6 <_ZN9allow_pin12full_dynamic17unshare_if_shared17he9718eb989dae51aE>
   116d0:	50f6                	lw	ra,124(sp)
   116d2:	5466                	lw	s0,120(sp)
   116d4:	54d6                	lw	s1,116(sp)
   116d6:	5946                	lw	s2,112(sp)
   116d8:	59b6                	lw	s3,108(sp)
   116da:	6109                	addi	sp,sp,128
   116dc:	8082                	ret
   116de:	0048                	addi	a0,sp,4
   116e0:	0000a097          	auipc	ra,0xa
   116e4:	806080e7          	jalr	-2042(ra) # 1aee6 <_ZN9allow_pin12full_dynamic17unshare_if_shared17he9718eb989dae51aE>
   116e8:	1848                	addi	a0,sp,52
   116ea:	00009097          	auipc	ra,0x9
   116ee:	7fc080e7          	jalr	2044(ra) # 1aee6 <_ZN9allow_pin12full_dynamic17unshare_if_shared17he9718eb989dae51aE>
   116f2:	1848                	addi	a0,sp,52
   116f4:	00009097          	auipc	ra,0x9
   116f8:	7f2080e7          	jalr	2034(ra) # 1aee6 <_ZN9allow_pin12full_dynamic17unshare_if_shared17he9718eb989dae51aE>
   116fc:	00198513          	addi	a0,s3,1
   11700:	02a00613          	li	a2,42
   11704:	85ca                	mv	a1,s2
   11706:	0000a097          	auipc	ra,0xa
   1170a:	86c080e7          	jalr	-1940(ra) # 1af72 <memcpy>
   1170e:	4501                	li	a0,0
   11710:	b765                	j	116b8 <_ZN20complex_full_dynamic3app17h11429e58d6456ffaE+0xa0>

00011712 <_ZN20complex_full_dynamic3app17h11736cd325608fbaE>:
   11712:	7135                	addi	sp,sp,-160
   11714:	cf06                	sw	ra,156(sp)
   11716:	cd22                	sw	s0,152(sp)
   11718:	cb26                	sw	s1,148(sp)
   1171a:	c94a                	sw	s2,144(sp)
   1171c:	c74e                	sw	s3,140(sp)
   1171e:	892a                	mv	s2,a0
   11720:	4409                	li	s0,2
   11722:	00810823          	sb	s0,16(sp)
   11726:	0844                	addi	s1,sp,20
   11728:	05000613          	li	a2,80
   1172c:	8526                	mv	a0,s1
   1172e:	0000a097          	auipc	ra,0xa
   11732:	844080e7          	jalr	-1980(ra) # 1af72 <memcpy>
   11736:	8626                	mv	a2,s1
   11738:	08010523          	sb	zero,138(sp)
   1173c:	de82                	sw	zero,124(sp)
   1173e:	c102                	sw	zero,128(sp)
   11740:	c302                	sw	zero,132(sp)
   11742:	08011423          	sh	zero,136(sp)
   11746:	06810623          	sb	s0,108(sp)
   1174a:	d882                	sw	zero,112(sp)
   1174c:	da82                	sw	zero,116(sp)
   1174e:	dc82                	sw	zero,120(sp)
   11750:	3d900793          	li	a5,985
   11754:	4485                	li	s1,1
   11756:	4811                	li	a6,4
   11758:	3d900513          	li	a0,985
   1175c:	4585                	li	a1,1
   1175e:	05000693          	li	a3,80
   11762:	4711                	li	a4,4
   11764:	00000073          	ecall
   11768:	04850663          	beq	a0,s0,117b4 <_ZN20complex_full_dynamic3app17h11736cd325608fbaE+0xa2>
   1176c:	07010993          	addi	s3,sp,112
   11770:	c43e                	sw	a5,8(sp)
   11772:	c626                	sw	s1,12(sp)
   11774:	01010823          	sb	a6,16(sp)
   11778:	478d                	li	a5,3
   1177a:	3d900513          	li	a0,985
   1177e:	4589                	li	a1,2
   11780:	46ed                	li	a3,27
   11782:	470d                	li	a4,3
   11784:	864e                	mv	a2,s3
   11786:	00000073          	ecall
   1178a:	02850563          	beq	a0,s0,117b4 <_ZN20complex_full_dynamic3app17h11736cd325608fbaE+0xa2>
   1178e:	3d900693          	li	a3,985
   11792:	4489                	li	s1,2
   11794:	3d900513          	li	a0,985
   11798:	4585                	li	a1,1
   1179a:	4609                	li	a2,2
   1179c:	4709                	li	a4,2
   1179e:	07f00413          	li	s0,127
   117a2:	d2b6                	sw	a3,100(sp)
   117a4:	d4a6                	sw	s1,104(sp)
   117a6:	06f10623          	sb	a5,108(sp)
   117aa:	4681                	li	a3,0
   117ac:	00000073          	ecall
   117b0:	02a46863          	bltu	s0,a0,117e0 <_ZN20complex_full_dynamic3app17h11736cd325608fbaE+0xce>
   117b4:	00b92223          	sw	a1,4(s2)
   117b8:	4505                	li	a0,1
   117ba:	00a90023          	sb	a0,0(s2)
   117be:	10c8                	addi	a0,sp,100
   117c0:	00009097          	auipc	ra,0x9
   117c4:	726080e7          	jalr	1830(ra) # 1aee6 <_ZN9allow_pin12full_dynamic17unshare_if_shared17he9718eb989dae51aE>
   117c8:	0028                	addi	a0,sp,8
   117ca:	00009097          	auipc	ra,0x9
   117ce:	71c080e7          	jalr	1820(ra) # 1aee6 <_ZN9allow_pin12full_dynamic17unshare_if_shared17he9718eb989dae51aE>
   117d2:	40fa                	lw	ra,156(sp)
   117d4:	446a                	lw	s0,152(sp)
   117d6:	44da                	lw	s1,148(sp)
   117d8:	494a                	lw	s2,144(sp)
   117da:	49ba                	lw	s3,140(sp)
   117dc:	610d                	addi	sp,sp,160
   117de:	8082                	ret
   117e0:	0028                	addi	a0,sp,8
   117e2:	00009097          	auipc	ra,0x9
   117e6:	704080e7          	jalr	1796(ra) # 1aee6 <_ZN9allow_pin12full_dynamic17unshare_if_shared17he9718eb989dae51aE>
   117ea:	10c8                	addi	a0,sp,100
   117ec:	00009097          	auipc	ra,0x9
   117f0:	6fa080e7          	jalr	1786(ra) # 1aee6 <_ZN9allow_pin12full_dynamic17unshare_if_shared17he9718eb989dae51aE>
   117f4:	10c8                	addi	a0,sp,100
   117f6:	00009097          	auipc	ra,0x9
   117fa:	6f0080e7          	jalr	1776(ra) # 1aee6 <_ZN9allow_pin12full_dynamic17unshare_if_shared17he9718eb989dae51aE>
   117fe:	00190513          	addi	a0,s2,1
   11802:	466d                	li	a2,27
   11804:	85ce                	mv	a1,s3
   11806:	00009097          	auipc	ra,0x9
   1180a:	76c080e7          	jalr	1900(ra) # 1af72 <memcpy>
   1180e:	4501                	li	a0,0
   11810:	b76d                	j	117ba <_ZN20complex_full_dynamic3app17h11736cd325608fbaE+0xa8>

00011812 <_ZN20complex_full_dynamic3app17h148a81133c6ab03aE>:
   11812:	7155                	addi	sp,sp,-208
   11814:	c786                	sw	ra,204(sp)
   11816:	c5a2                	sw	s0,200(sp)
   11818:	c3a6                	sw	s1,196(sp)
   1181a:	c1ca                	sw	s2,192(sp)
   1181c:	df4e                	sw	s3,188(sp)
   1181e:	89aa                	mv	s3,a0
   11820:	4409                	li	s0,2
   11822:	00810423          	sb	s0,8(sp)
   11826:	0064                	addi	s1,sp,12
   11828:	05600613          	li	a2,86
   1182c:	8526                	mv	a0,s1
   1182e:	00009097          	auipc	ra,0x9
   11832:	744080e7          	jalr	1860(ra) # 1af72 <memcpy>
   11836:	07010913          	addi	s2,sp,112
   1183a:	04900613          	li	a2,73
   1183e:	854a                	mv	a0,s2
   11840:	4581                	li	a1,0
   11842:	00009097          	auipc	ra,0x9
   11846:	6c4080e7          	jalr	1732(ra) # 1af06 <memset>
   1184a:	8626                	mv	a2,s1
   1184c:	06810623          	sb	s0,108(sp)
   11850:	6509                	lui	a0,0x2
   11852:	4499                	li	s1,6
   11854:	4811                	li	a6,4
   11856:	4599                	li	a1,6
   11858:	c6b50793          	addi	a5,a0,-917 # 1c6b <.Lline_table_start1+0x1a40>
   1185c:	05600693          	li	a3,86
   11860:	4711                	li	a4,4
   11862:	853e                	mv	a0,a5
   11864:	00000073          	ecall
   11868:	04850363          	beq	a0,s0,118ae <_ZN20complex_full_dynamic3app17h148a81133c6ab03aE+0x9c>
   1186c:	853e                	mv	a0,a5
   1186e:	864a                	mv	a2,s2
   11870:	c03e                	sw	a5,0(sp)
   11872:	c226                	sw	s1,4(sp)
   11874:	01010423          	sb	a6,8(sp)
   11878:	448d                	li	s1,3
   1187a:	4599                	li	a1,6
   1187c:	04900693          	li	a3,73
   11880:	470d                	li	a4,3
   11882:	00000073          	ecall
   11886:	02850463          	beq	a0,s0,118ae <_ZN20complex_full_dynamic3app17h148a81133c6ab03aE+0x9c>
   1188a:	4519                	li	a0,6
   1188c:	6689                	lui	a3,0x2
   1188e:	4599                	li	a1,6
   11890:	4619                	li	a2,6
   11892:	d2be                	sw	a5,100(sp)
   11894:	d4aa                	sw	a0,104(sp)
   11896:	06910623          	sb	s1,108(sp)
   1189a:	c6b68513          	addi	a0,a3,-917 # 1c6b <.Lline_table_start1+0x1a40>
   1189e:	4709                	li	a4,2
   118a0:	07f00793          	li	a5,127
   118a4:	4681                	li	a3,0
   118a6:	00000073          	ecall
   118aa:	02a7e863          	bltu	a5,a0,118da <_ZN20complex_full_dynamic3app17h148a81133c6ab03aE+0xc8>
   118ae:	00b9a223          	sw	a1,4(s3)
   118b2:	4505                	li	a0,1
   118b4:	00a98023          	sb	a0,0(s3)
   118b8:	10c8                	addi	a0,sp,100
   118ba:	00009097          	auipc	ra,0x9
   118be:	62c080e7          	jalr	1580(ra) # 1aee6 <_ZN9allow_pin12full_dynamic17unshare_if_shared17he9718eb989dae51aE>
   118c2:	850a                	mv	a0,sp
   118c4:	00009097          	auipc	ra,0x9
   118c8:	622080e7          	jalr	1570(ra) # 1aee6 <_ZN9allow_pin12full_dynamic17unshare_if_shared17he9718eb989dae51aE>
   118cc:	40be                	lw	ra,204(sp)
   118ce:	442e                	lw	s0,200(sp)
   118d0:	449e                	lw	s1,196(sp)
   118d2:	490e                	lw	s2,192(sp)
   118d4:	59fa                	lw	s3,188(sp)
   118d6:	6169                	addi	sp,sp,208
   118d8:	8082                	ret
   118da:	850a                	mv	a0,sp
   118dc:	00009097          	auipc	ra,0x9
   118e0:	60a080e7          	jalr	1546(ra) # 1aee6 <_ZN9allow_pin12full_dynamic17unshare_if_shared17he9718eb989dae51aE>
   118e4:	10c8                	addi	a0,sp,100
   118e6:	00009097          	auipc	ra,0x9
   118ea:	600080e7          	jalr	1536(ra) # 1aee6 <_ZN9allow_pin12full_dynamic17unshare_if_shared17he9718eb989dae51aE>
   118ee:	10c8                	addi	a0,sp,100
   118f0:	00009097          	auipc	ra,0x9
   118f4:	5f6080e7          	jalr	1526(ra) # 1aee6 <_ZN9allow_pin12full_dynamic17unshare_if_shared17he9718eb989dae51aE>
   118f8:	00198513          	addi	a0,s3,1
   118fc:	04900613          	li	a2,73
   11900:	85ca                	mv	a1,s2
   11902:	00009097          	auipc	ra,0x9
   11906:	670080e7          	jalr	1648(ra) # 1af72 <memcpy>
   1190a:	4501                	li	a0,0
   1190c:	b765                	j	118b4 <_ZN20complex_full_dynamic3app17h148a81133c6ab03aE+0xa2>

0001190e <_ZN20complex_full_dynamic3app17h15e23b606e4472daE>:
   1190e:	7119                	addi	sp,sp,-128
   11910:	de86                	sw	ra,124(sp)
   11912:	dca2                	sw	s0,120(sp)
   11914:	daa6                	sw	s1,116(sp)
   11916:	d8ca                	sw	s2,112(sp)
   11918:	d6ce                	sw	s3,108(sp)
   1191a:	89aa                	mv	s3,a0
   1191c:	4409                	li	s0,2
   1191e:	00810a23          	sb	s0,20(sp)
   11922:	0824                	addi	s1,sp,24
   11924:	4641                	li	a2,16
   11926:	8526                	mv	a0,s1
   11928:	00009097          	auipc	ra,0x9
   1192c:	64a080e7          	jalr	1610(ra) # 1af72 <memcpy>
   11930:	03410913          	addi	s2,sp,52
   11934:	03600613          	li	a2,54
   11938:	854a                	mv	a0,s2
   1193a:	4581                	li	a1,0
   1193c:	00009097          	auipc	ra,0x9
   11940:	5ca080e7          	jalr	1482(ra) # 1af06 <memset>
   11944:	8626                	mv	a2,s1
   11946:	02810823          	sb	s0,48(sp)
   1194a:	6509                	lui	a0,0x2
   1194c:	4485                	li	s1,1
   1194e:	4811                	li	a6,4
   11950:	4585                	li	a1,1
   11952:	98950793          	addi	a5,a0,-1655 # 1989 <.Lline_table_start1+0x175e>
   11956:	46c1                	li	a3,16
   11958:	4711                	li	a4,4
   1195a:	853e                	mv	a0,a5
   1195c:	00000073          	ecall
   11960:	04850363          	beq	a0,s0,119a6 <_ZN20complex_full_dynamic3app17h15e23b606e4472daE+0x98>
   11964:	853e                	mv	a0,a5
   11966:	864a                	mv	a2,s2
   11968:	c63e                	sw	a5,12(sp)
   1196a:	c826                	sw	s1,16(sp)
   1196c:	01010a23          	sb	a6,20(sp)
   11970:	449d                	li	s1,7
   11972:	480d                	li	a6,3
   11974:	459d                	li	a1,7
   11976:	03600693          	li	a3,54
   1197a:	470d                	li	a4,3
   1197c:	00000073          	ecall
   11980:	02850363          	beq	a0,s0,119a6 <_ZN20complex_full_dynamic3app17h15e23b606e4472daE+0x98>
   11984:	d43e                	sw	a5,40(sp)
   11986:	d626                	sw	s1,44(sp)
   11988:	03010823          	sb	a6,48(sp)
   1198c:	6509                	lui	a0,0x2
   1198e:	4585                	li	a1,1
   11990:	461d                	li	a2,7
   11992:	98950513          	addi	a0,a0,-1655 # 1989 <.Lline_table_start1+0x175e>
   11996:	4709                	li	a4,2
   11998:	07f00793          	li	a5,127
   1199c:	4681                	li	a3,0
   1199e:	00000073          	ecall
   119a2:	02a7e863          	bltu	a5,a0,119d2 <_ZN20complex_full_dynamic3app17h15e23b606e4472daE+0xc4>
   119a6:	00b9a223          	sw	a1,4(s3)
   119aa:	4505                	li	a0,1
   119ac:	00a98023          	sb	a0,0(s3)
   119b0:	1028                	addi	a0,sp,40
   119b2:	00009097          	auipc	ra,0x9
   119b6:	534080e7          	jalr	1332(ra) # 1aee6 <_ZN9allow_pin12full_dynamic17unshare_if_shared17he9718eb989dae51aE>
   119ba:	0068                	addi	a0,sp,12
   119bc:	00009097          	auipc	ra,0x9
   119c0:	52a080e7          	jalr	1322(ra) # 1aee6 <_ZN9allow_pin12full_dynamic17unshare_if_shared17he9718eb989dae51aE>
   119c4:	50f6                	lw	ra,124(sp)
   119c6:	5466                	lw	s0,120(sp)
   119c8:	54d6                	lw	s1,116(sp)
   119ca:	5946                	lw	s2,112(sp)
   119cc:	59b6                	lw	s3,108(sp)
   119ce:	6109                	addi	sp,sp,128
   119d0:	8082                	ret
   119d2:	0068                	addi	a0,sp,12
   119d4:	00009097          	auipc	ra,0x9
   119d8:	512080e7          	jalr	1298(ra) # 1aee6 <_ZN9allow_pin12full_dynamic17unshare_if_shared17he9718eb989dae51aE>
   119dc:	1028                	addi	a0,sp,40
   119de:	00009097          	auipc	ra,0x9
   119e2:	508080e7          	jalr	1288(ra) # 1aee6 <_ZN9allow_pin12full_dynamic17unshare_if_shared17he9718eb989dae51aE>
   119e6:	1028                	addi	a0,sp,40
   119e8:	00009097          	auipc	ra,0x9
   119ec:	4fe080e7          	jalr	1278(ra) # 1aee6 <_ZN9allow_pin12full_dynamic17unshare_if_shared17he9718eb989dae51aE>
   119f0:	00198513          	addi	a0,s3,1
   119f4:	03600613          	li	a2,54
   119f8:	85ca                	mv	a1,s2
   119fa:	00009097          	auipc	ra,0x9
   119fe:	578080e7          	jalr	1400(ra) # 1af72 <memcpy>
   11a02:	4501                	li	a0,0
   11a04:	b765                	j	119ac <_ZN20complex_full_dynamic3app17h15e23b606e4472daE+0x9e>

00011a06 <_ZN20complex_full_dynamic3app17h1985db6fed4a95aaE>:
   11a06:	7175                	addi	sp,sp,-144
   11a08:	c706                	sw	ra,140(sp)
   11a0a:	c522                	sw	s0,136(sp)
   11a0c:	c326                	sw	s1,132(sp)
   11a0e:	c14a                	sw	s2,128(sp)
   11a10:	dece                	sw	s3,124(sp)
   11a12:	89aa                	mv	s3,a0
   11a14:	4409                	li	s0,2
   11a16:	00810623          	sb	s0,12(sp)
   11a1a:	0804                	addi	s1,sp,16
   11a1c:	03800613          	li	a2,56
   11a20:	8526                	mv	a0,s1
   11a22:	00009097          	auipc	ra,0x9
   11a26:	550080e7          	jalr	1360(ra) # 1af72 <memcpy>
   11a2a:	05410913          	addi	s2,sp,84
   11a2e:	02700613          	li	a2,39
   11a32:	854a                	mv	a0,s2
   11a34:	4581                	li	a1,0
   11a36:	00009097          	auipc	ra,0x9
   11a3a:	4d0080e7          	jalr	1232(ra) # 1af06 <memset>
   11a3e:	8626                	mv	a2,s1
   11a40:	04810823          	sb	s0,80(sp)
   11a44:	6505                	lui	a0,0x1
   11a46:	4491                	li	s1,4
   11a48:	4589                	li	a1,2
   11a4a:	e2b50793          	addi	a5,a0,-469 # e2b <.Lline_table_start1+0xc00>
   11a4e:	03800693          	li	a3,56
   11a52:	4711                	li	a4,4
   11a54:	853e                	mv	a0,a5
   11a56:	00000073          	ecall
   11a5a:	04850363          	beq	a0,s0,11aa0 <_ZN20complex_full_dynamic3app17h1985db6fed4a95aaE+0x9a>
   11a5e:	853e                	mv	a0,a5
   11a60:	864a                	mv	a2,s2
   11a62:	c23e                	sw	a5,4(sp)
   11a64:	c422                	sw	s0,8(sp)
   11a66:	00910623          	sb	s1,12(sp)
   11a6a:	44a1                	li	s1,8
   11a6c:	480d                	li	a6,3
   11a6e:	45a1                	li	a1,8
   11a70:	02700693          	li	a3,39
   11a74:	470d                	li	a4,3
   11a76:	00000073          	ecall
   11a7a:	02850363          	beq	a0,s0,11aa0 <_ZN20complex_full_dynamic3app17h1985db6fed4a95aaE+0x9a>
   11a7e:	c4be                	sw	a5,72(sp)
   11a80:	c6a6                	sw	s1,76(sp)
   11a82:	05010823          	sb	a6,80(sp)
   11a86:	6505                	lui	a0,0x1
   11a88:	4589                	li	a1,2
   11a8a:	4621                	li	a2,8
   11a8c:	e2b50513          	addi	a0,a0,-469 # e2b <.Lline_table_start1+0xc00>
   11a90:	4709                	li	a4,2
   11a92:	07f00793          	li	a5,127
   11a96:	4681                	li	a3,0
   11a98:	00000073          	ecall
   11a9c:	02a7e863          	bltu	a5,a0,11acc <_ZN20complex_full_dynamic3app17h1985db6fed4a95aaE+0xc6>
   11aa0:	00b9a223          	sw	a1,4(s3)
   11aa4:	4505                	li	a0,1
   11aa6:	00a98023          	sb	a0,0(s3)
   11aaa:	00a8                	addi	a0,sp,72
   11aac:	00009097          	auipc	ra,0x9
   11ab0:	43a080e7          	jalr	1082(ra) # 1aee6 <_ZN9allow_pin12full_dynamic17unshare_if_shared17he9718eb989dae51aE>
   11ab4:	0048                	addi	a0,sp,4
   11ab6:	00009097          	auipc	ra,0x9
   11aba:	430080e7          	jalr	1072(ra) # 1aee6 <_ZN9allow_pin12full_dynamic17unshare_if_shared17he9718eb989dae51aE>
   11abe:	40ba                	lw	ra,140(sp)
   11ac0:	442a                	lw	s0,136(sp)
   11ac2:	449a                	lw	s1,132(sp)
   11ac4:	490a                	lw	s2,128(sp)
   11ac6:	59f6                	lw	s3,124(sp)
   11ac8:	6149                	addi	sp,sp,144
   11aca:	8082                	ret
   11acc:	0048                	addi	a0,sp,4
   11ace:	00009097          	auipc	ra,0x9
   11ad2:	418080e7          	jalr	1048(ra) # 1aee6 <_ZN9allow_pin12full_dynamic17unshare_if_shared17he9718eb989dae51aE>
   11ad6:	00a8                	addi	a0,sp,72
   11ad8:	00009097          	auipc	ra,0x9
   11adc:	40e080e7          	jalr	1038(ra) # 1aee6 <_ZN9allow_pin12full_dynamic17unshare_if_shared17he9718eb989dae51aE>
   11ae0:	00a8                	addi	a0,sp,72
   11ae2:	00009097          	auipc	ra,0x9
   11ae6:	404080e7          	jalr	1028(ra) # 1aee6 <_ZN9allow_pin12full_dynamic17unshare_if_shared17he9718eb989dae51aE>
   11aea:	00198513          	addi	a0,s3,1
   11aee:	02700613          	li	a2,39
   11af2:	85ca                	mv	a1,s2
   11af4:	00009097          	auipc	ra,0x9
   11af8:	47e080e7          	jalr	1150(ra) # 1af72 <memcpy>
   11afc:	4501                	li	a0,0
   11afe:	b765                	j	11aa6 <_ZN20complex_full_dynamic3app17h1985db6fed4a95aaE+0xa0>

00011b00 <_ZN20complex_full_dynamic3app17h20a232868bfac0f2E>:
   11b00:	7159                	addi	sp,sp,-112
   11b02:	d686                	sw	ra,108(sp)
   11b04:	d4a2                	sw	s0,104(sp)
   11b06:	d2a6                	sw	s1,100(sp)
   11b08:	d0ca                	sw	s2,96(sp)
   11b0a:	cece                	sw	s3,92(sp)
   11b0c:	892a                	mv	s2,a0
   11b0e:	4409                	li	s0,2
   11b10:	00810a23          	sb	s0,20(sp)
   11b14:	0824                	addi	s1,sp,24
   11b16:	4661                	li	a2,24
   11b18:	8526                	mv	a0,s1
   11b1a:	00009097          	auipc	ra,0x9
   11b1e:	458080e7          	jalr	1112(ra) # 1af72 <memcpy>
   11b22:	8626                	mv	a2,s1
   11b24:	04011c23          	sh	zero,88(sp)
   11b28:	c482                	sw	zero,72(sp)
   11b2a:	c682                	sw	zero,76(sp)
   11b2c:	c882                	sw	zero,80(sp)
   11b2e:	ca82                	sw	zero,84(sp)
   11b30:	02810c23          	sb	s0,56(sp)
   11b34:	de02                	sw	zero,60(sp)
   11b36:	c082                	sw	zero,64(sp)
   11b38:	c282                	sw	zero,68(sp)
   11b3a:	6505                	lui	a0,0x1
   11b3c:	44a5                	li	s1,9
   11b3e:	4811                	li	a6,4
   11b40:	45a5                	li	a1,9
   11b42:	cbb50793          	addi	a5,a0,-837 # cbb <.Lline_table_start1+0xa90>
   11b46:	46e1                	li	a3,24
   11b48:	4711                	li	a4,4
   11b4a:	853e                	mv	a0,a5
   11b4c:	00000073          	ecall
   11b50:	04850463          	beq	a0,s0,11b98 <_ZN20complex_full_dynamic3app17h20a232868bfac0f2E+0x98>
   11b54:	853e                	mv	a0,a5
   11b56:	03c10993          	addi	s3,sp,60
   11b5a:	c63e                	sw	a5,12(sp)
   11b5c:	c826                	sw	s1,16(sp)
   11b5e:	01010a23          	sb	a6,20(sp)
   11b62:	4495                	li	s1,5
   11b64:	480d                	li	a6,3
   11b66:	4595                	li	a1,5
   11b68:	46f9                	li	a3,30
   11b6a:	470d                	li	a4,3
   11b6c:	864e                	mv	a2,s3
   11b6e:	00000073          	ecall
   11b72:	02850363          	beq	a0,s0,11b98 <_ZN20complex_full_dynamic3app17h20a232868bfac0f2E+0x98>
   11b76:	d83e                	sw	a5,48(sp)
   11b78:	da26                	sw	s1,52(sp)
   11b7a:	03010c23          	sb	a6,56(sp)
   11b7e:	6505                	lui	a0,0x1
   11b80:	45a5                	li	a1,9
   11b82:	4615                	li	a2,5
   11b84:	cbb50513          	addi	a0,a0,-837 # cbb <.Lline_table_start1+0xa90>
   11b88:	4709                	li	a4,2
   11b8a:	07f00793          	li	a5,127
   11b8e:	4681                	li	a3,0
   11b90:	00000073          	ecall
   11b94:	02a7e863          	bltu	a5,a0,11bc4 <_ZN20complex_full_dynamic3app17h20a232868bfac0f2E+0xc4>
   11b98:	00b92223          	sw	a1,4(s2)
   11b9c:	4505                	li	a0,1
   11b9e:	00a90023          	sb	a0,0(s2)
   11ba2:	1808                	addi	a0,sp,48
   11ba4:	00009097          	auipc	ra,0x9
   11ba8:	342080e7          	jalr	834(ra) # 1aee6 <_ZN9allow_pin12full_dynamic17unshare_if_shared17he9718eb989dae51aE>
   11bac:	0068                	addi	a0,sp,12
   11bae:	00009097          	auipc	ra,0x9
   11bb2:	338080e7          	jalr	824(ra) # 1aee6 <_ZN9allow_pin12full_dynamic17unshare_if_shared17he9718eb989dae51aE>
   11bb6:	50b6                	lw	ra,108(sp)
   11bb8:	5426                	lw	s0,104(sp)
   11bba:	5496                	lw	s1,100(sp)
   11bbc:	5906                	lw	s2,96(sp)
   11bbe:	49f6                	lw	s3,92(sp)
   11bc0:	6165                	addi	sp,sp,112
   11bc2:	8082                	ret
   11bc4:	0068                	addi	a0,sp,12
   11bc6:	00009097          	auipc	ra,0x9
   11bca:	320080e7          	jalr	800(ra) # 1aee6 <_ZN9allow_pin12full_dynamic17unshare_if_shared17he9718eb989dae51aE>
   11bce:	1808                	addi	a0,sp,48
   11bd0:	00009097          	auipc	ra,0x9
   11bd4:	316080e7          	jalr	790(ra) # 1aee6 <_ZN9allow_pin12full_dynamic17unshare_if_shared17he9718eb989dae51aE>
   11bd8:	1808                	addi	a0,sp,48
   11bda:	00009097          	auipc	ra,0x9
   11bde:	30c080e7          	jalr	780(ra) # 1aee6 <_ZN9allow_pin12full_dynamic17unshare_if_shared17he9718eb989dae51aE>
   11be2:	00190513          	addi	a0,s2,1
   11be6:	4679                	li	a2,30
   11be8:	85ce                	mv	a1,s3
   11bea:	00009097          	auipc	ra,0x9
   11bee:	388080e7          	jalr	904(ra) # 1af72 <memcpy>
   11bf2:	4501                	li	a0,0
   11bf4:	b76d                	j	11b9e <_ZN20complex_full_dynamic3app17h20a232868bfac0f2E+0x9e>

00011bf6 <_ZN20complex_full_dynamic3app17h265112d459189352E>:
   11bf6:	7159                	addi	sp,sp,-112
   11bf8:	d686                	sw	ra,108(sp)
   11bfa:	d4a2                	sw	s0,104(sp)
   11bfc:	d2a6                	sw	s1,100(sp)
   11bfe:	d0ca                	sw	s2,96(sp)
   11c00:	cece                	sw	s3,92(sp)
   11c02:	892a                	mv	s2,a0
   11c04:	4409                	li	s0,2
   11c06:	00810a23          	sb	s0,20(sp)
   11c0a:	0824                	addi	s1,sp,24
   11c0c:	4669                	li	a2,26
   11c0e:	8526                	mv	a0,s1
   11c10:	00009097          	auipc	ra,0x9
   11c14:	362080e7          	jalr	866(ra) # 1af72 <memcpy>
   11c18:	8626                	mv	a2,s1
   11c1a:	04010d23          	sb	zero,90(sp)
   11c1e:	c682                	sw	zero,76(sp)
   11c20:	c882                	sw	zero,80(sp)
   11c22:	ca82                	sw	zero,84(sp)
   11c24:	04011c23          	sh	zero,88(sp)
   11c28:	02810e23          	sb	s0,60(sp)
   11c2c:	c082                	sw	zero,64(sp)
   11c2e:	c282                	sw	zero,68(sp)
   11c30:	c482                	sw	zero,72(sp)
   11c32:	6509                	lui	a0,0x2
   11c34:	4495                	li	s1,5
   11c36:	4811                	li	a6,4
   11c38:	4595                	li	a1,5
   11c3a:	cce50793          	addi	a5,a0,-818 # 1cce <.Lline_table_start1+0x1aa3>
   11c3e:	46e9                	li	a3,26
   11c40:	4711                	li	a4,4
   11c42:	853e                	mv	a0,a5
   11c44:	00000073          	ecall
   11c48:	04850463          	beq	a0,s0,11c90 <_ZN20complex_full_dynamic3app17h265112d459189352E+0x9a>
   11c4c:	853e                	mv	a0,a5
   11c4e:	04010993          	addi	s3,sp,64
   11c52:	c63e                	sw	a5,12(sp)
   11c54:	c826                	sw	s1,16(sp)
   11c56:	01010a23          	sb	a6,20(sp)
   11c5a:	448d                	li	s1,3
   11c5c:	4589                	li	a1,2
   11c5e:	46ed                	li	a3,27
   11c60:	470d                	li	a4,3
   11c62:	864e                	mv	a2,s3
   11c64:	00000073          	ecall
   11c68:	02850463          	beq	a0,s0,11c90 <_ZN20complex_full_dynamic3app17h265112d459189352E+0x9a>
   11c6c:	4509                	li	a0,2
   11c6e:	6689                	lui	a3,0x2
   11c70:	4595                	li	a1,5
   11c72:	4609                	li	a2,2
   11c74:	da3e                	sw	a5,52(sp)
   11c76:	dc2a                	sw	a0,56(sp)
   11c78:	02910e23          	sb	s1,60(sp)
   11c7c:	cce68513          	addi	a0,a3,-818 # 1cce <.Lline_table_start1+0x1aa3>
   11c80:	4709                	li	a4,2
   11c82:	07f00793          	li	a5,127
   11c86:	4681                	li	a3,0
   11c88:	00000073          	ecall
   11c8c:	02a7e863          	bltu	a5,a0,11cbc <_ZN20complex_full_dynamic3app17h265112d459189352E+0xc6>
   11c90:	00b92223          	sw	a1,4(s2)
   11c94:	4505                	li	a0,1
   11c96:	00a90023          	sb	a0,0(s2)
   11c9a:	1848                	addi	a0,sp,52
   11c9c:	00009097          	auipc	ra,0x9
   11ca0:	24a080e7          	jalr	586(ra) # 1aee6 <_ZN9allow_pin12full_dynamic17unshare_if_shared17he9718eb989dae51aE>
   11ca4:	0068                	addi	a0,sp,12
   11ca6:	00009097          	auipc	ra,0x9
   11caa:	240080e7          	jalr	576(ra) # 1aee6 <_ZN9allow_pin12full_dynamic17unshare_if_shared17he9718eb989dae51aE>
   11cae:	50b6                	lw	ra,108(sp)
   11cb0:	5426                	lw	s0,104(sp)
   11cb2:	5496                	lw	s1,100(sp)
   11cb4:	5906                	lw	s2,96(sp)
   11cb6:	49f6                	lw	s3,92(sp)
   11cb8:	6165                	addi	sp,sp,112
   11cba:	8082                	ret
   11cbc:	0068                	addi	a0,sp,12
   11cbe:	00009097          	auipc	ra,0x9
   11cc2:	228080e7          	jalr	552(ra) # 1aee6 <_ZN9allow_pin12full_dynamic17unshare_if_shared17he9718eb989dae51aE>
   11cc6:	1848                	addi	a0,sp,52
   11cc8:	00009097          	auipc	ra,0x9
   11ccc:	21e080e7          	jalr	542(ra) # 1aee6 <_ZN9allow_pin12full_dynamic17unshare_if_shared17he9718eb989dae51aE>
   11cd0:	1848                	addi	a0,sp,52
   11cd2:	00009097          	auipc	ra,0x9
   11cd6:	214080e7          	jalr	532(ra) # 1aee6 <_ZN9allow_pin12full_dynamic17unshare_if_shared17he9718eb989dae51aE>
   11cda:	00190513          	addi	a0,s2,1
   11cde:	466d                	li	a2,27
   11ce0:	85ce                	mv	a1,s3
   11ce2:	00009097          	auipc	ra,0x9
   11ce6:	290080e7          	jalr	656(ra) # 1af72 <memcpy>
   11cea:	4501                	li	a0,0
   11cec:	b76d                	j	11c96 <_ZN20complex_full_dynamic3app17h265112d459189352E+0xa0>

00011cee <_ZN20complex_full_dynamic3app17h2837b798ac7bba3dE>:
   11cee:	7135                	addi	sp,sp,-160
   11cf0:	cf06                	sw	ra,156(sp)
   11cf2:	cd22                	sw	s0,152(sp)
   11cf4:	cb26                	sw	s1,148(sp)
   11cf6:	c94a                	sw	s2,144(sp)
   11cf8:	c74e                	sw	s3,140(sp)
   11cfa:	89aa                	mv	s3,a0
   11cfc:	4409                	li	s0,2
   11cfe:	00810823          	sb	s0,16(sp)
   11d02:	0844                	addi	s1,sp,20
   11d04:	03600613          	li	a2,54
   11d08:	8526                	mv	a0,s1
   11d0a:	00009097          	auipc	ra,0x9
   11d0e:	268080e7          	jalr	616(ra) # 1af72 <memcpy>
   11d12:	05810913          	addi	s2,sp,88
   11d16:	03400613          	li	a2,52
   11d1a:	854a                	mv	a0,s2
   11d1c:	4581                	li	a1,0
   11d1e:	00009097          	auipc	ra,0x9
   11d22:	1e8080e7          	jalr	488(ra) # 1af06 <memset>
   11d26:	8626                	mv	a2,s1
   11d28:	04810a23          	sb	s0,84(sp)
   11d2c:	6509                	lui	a0,0x2
   11d2e:	4491                	li	s1,4
   11d30:	4591                	li	a1,4
   11d32:	3c650793          	addi	a5,a0,966 # 23c6 <.Lline_table_start1+0x219b>
   11d36:	03600693          	li	a3,54
   11d3a:	4711                	li	a4,4
   11d3c:	853e                	mv	a0,a5
   11d3e:	00000073          	ecall
   11d42:	04850363          	beq	a0,s0,11d88 <_ZN20complex_full_dynamic3app17h2837b798ac7bba3dE+0x9a>
   11d46:	853e                	mv	a0,a5
   11d48:	864a                	mv	a2,s2
   11d4a:	c43e                	sw	a5,8(sp)
   11d4c:	c626                	sw	s1,12(sp)
   11d4e:	00910823          	sb	s1,16(sp)
   11d52:	448d                	li	s1,3
   11d54:	4589                	li	a1,2
   11d56:	03400693          	li	a3,52
   11d5a:	470d                	li	a4,3
   11d5c:	00000073          	ecall
   11d60:	02850463          	beq	a0,s0,11d88 <_ZN20complex_full_dynamic3app17h2837b798ac7bba3dE+0x9a>
   11d64:	4509                	li	a0,2
   11d66:	6689                	lui	a3,0x2
   11d68:	4591                	li	a1,4
   11d6a:	4609                	li	a2,2
   11d6c:	c6be                	sw	a5,76(sp)
   11d6e:	c8aa                	sw	a0,80(sp)
   11d70:	04910a23          	sb	s1,84(sp)
   11d74:	3c668513          	addi	a0,a3,966 # 23c6 <.Lline_table_start1+0x219b>
   11d78:	4709                	li	a4,2
   11d7a:	07f00793          	li	a5,127
   11d7e:	4681                	li	a3,0
   11d80:	00000073          	ecall
   11d84:	02a7e863          	bltu	a5,a0,11db4 <_ZN20complex_full_dynamic3app17h2837b798ac7bba3dE+0xc6>
   11d88:	00b9a223          	sw	a1,4(s3)
   11d8c:	4505                	li	a0,1
   11d8e:	00a98023          	sb	a0,0(s3)
   11d92:	00e8                	addi	a0,sp,76
   11d94:	00009097          	auipc	ra,0x9
   11d98:	152080e7          	jalr	338(ra) # 1aee6 <_ZN9allow_pin12full_dynamic17unshare_if_shared17he9718eb989dae51aE>
   11d9c:	0028                	addi	a0,sp,8
   11d9e:	00009097          	auipc	ra,0x9
   11da2:	148080e7          	jalr	328(ra) # 1aee6 <_ZN9allow_pin12full_dynamic17unshare_if_shared17he9718eb989dae51aE>
   11da6:	40fa                	lw	ra,156(sp)
   11da8:	446a                	lw	s0,152(sp)
   11daa:	44da                	lw	s1,148(sp)
   11dac:	494a                	lw	s2,144(sp)
   11dae:	49ba                	lw	s3,140(sp)
   11db0:	610d                	addi	sp,sp,160
   11db2:	8082                	ret
   11db4:	0028                	addi	a0,sp,8
   11db6:	00009097          	auipc	ra,0x9
   11dba:	130080e7          	jalr	304(ra) # 1aee6 <_ZN9allow_pin12full_dynamic17unshare_if_shared17he9718eb989dae51aE>
   11dbe:	00e8                	addi	a0,sp,76
   11dc0:	00009097          	auipc	ra,0x9
   11dc4:	126080e7          	jalr	294(ra) # 1aee6 <_ZN9allow_pin12full_dynamic17unshare_if_shared17he9718eb989dae51aE>
   11dc8:	00e8                	addi	a0,sp,76
   11dca:	00009097          	auipc	ra,0x9
   11dce:	11c080e7          	jalr	284(ra) # 1aee6 <_ZN9allow_pin12full_dynamic17unshare_if_shared17he9718eb989dae51aE>
   11dd2:	00198513          	addi	a0,s3,1
   11dd6:	03400613          	li	a2,52
   11dda:	85ca                	mv	a1,s2
   11ddc:	00009097          	auipc	ra,0x9
   11de0:	196080e7          	jalr	406(ra) # 1af72 <memcpy>
   11de4:	4501                	li	a0,0
   11de6:	b765                	j	11d8e <_ZN20complex_full_dynamic3app17h2837b798ac7bba3dE+0xa0>

00011de8 <_ZN20complex_full_dynamic3app17h298711a2b652364eE>:
   11de8:	7115                	addi	sp,sp,-224
   11dea:	cf86                	sw	ra,220(sp)
   11dec:	cda2                	sw	s0,216(sp)
   11dee:	cba6                	sw	s1,212(sp)
   11df0:	c9ca                	sw	s2,208(sp)
   11df2:	c7ce                	sw	s3,204(sp)
   11df4:	89aa                	mv	s3,a0
   11df6:	4409                	li	s0,2
   11df8:	00810a23          	sb	s0,20(sp)
   11dfc:	0824                	addi	s1,sp,24
   11dfe:	05900613          	li	a2,89
   11e02:	8526                	mv	a0,s1
   11e04:	00009097          	auipc	ra,0x9
   11e08:	16e080e7          	jalr	366(ra) # 1af72 <memcpy>
   11e0c:	08010913          	addi	s2,sp,128
   11e10:	04a00613          	li	a2,74
   11e14:	854a                	mv	a0,s2
   11e16:	4581                	li	a1,0
   11e18:	00009097          	auipc	ra,0x9
   11e1c:	0ee080e7          	jalr	238(ra) # 1af06 <memset>
   11e20:	4581                	li	a1,0
   11e22:	8626                	mv	a2,s1
   11e24:	06810e23          	sb	s0,124(sp)
   11e28:	6505                	lui	a0,0x1
   11e2a:	4491                	li	s1,4
   11e2c:	48450793          	addi	a5,a0,1156 # 1484 <.Lline_table_start1+0x1259>
   11e30:	05900693          	li	a3,89
   11e34:	4711                	li	a4,4
   11e36:	853e                	mv	a0,a5
   11e38:	00000073          	ecall
   11e3c:	04850363          	beq	a0,s0,11e82 <_ZN20complex_full_dynamic3app17h298711a2b652364eE+0x9a>
   11e40:	853e                	mv	a0,a5
   11e42:	864a                	mv	a2,s2
   11e44:	c63e                	sw	a5,12(sp)
   11e46:	c802                	sw	zero,16(sp)
   11e48:	00910a23          	sb	s1,20(sp)
   11e4c:	448d                	li	s1,3
   11e4e:	4591                	li	a1,4
   11e50:	04a00693          	li	a3,74
   11e54:	470d                	li	a4,3
   11e56:	00000073          	ecall
   11e5a:	02850463          	beq	a0,s0,11e82 <_ZN20complex_full_dynamic3app17h298711a2b652364eE+0x9a>
   11e5e:	4511                	li	a0,4
   11e60:	6585                	lui	a1,0x1
   11e62:	4611                	li	a2,4
   11e64:	dabe                	sw	a5,116(sp)
   11e66:	dcaa                	sw	a0,120(sp)
   11e68:	06910e23          	sb	s1,124(sp)
   11e6c:	48458513          	addi	a0,a1,1156 # 1484 <.Lline_table_start1+0x1259>
   11e70:	4709                	li	a4,2
   11e72:	07f00793          	li	a5,127
   11e76:	4581                	li	a1,0
   11e78:	4681                	li	a3,0
   11e7a:	00000073          	ecall
   11e7e:	02a7e863          	bltu	a5,a0,11eae <_ZN20complex_full_dynamic3app17h298711a2b652364eE+0xc6>
   11e82:	00b9a223          	sw	a1,4(s3)
   11e86:	4505                	li	a0,1
   11e88:	00a98023          	sb	a0,0(s3)
   11e8c:	18c8                	addi	a0,sp,116
   11e8e:	00009097          	auipc	ra,0x9
   11e92:	058080e7          	jalr	88(ra) # 1aee6 <_ZN9allow_pin12full_dynamic17unshare_if_shared17he9718eb989dae51aE>
   11e96:	0068                	addi	a0,sp,12
   11e98:	00009097          	auipc	ra,0x9
   11e9c:	04e080e7          	jalr	78(ra) # 1aee6 <_ZN9allow_pin12full_dynamic17unshare_if_shared17he9718eb989dae51aE>
   11ea0:	40fe                	lw	ra,220(sp)
   11ea2:	446e                	lw	s0,216(sp)
   11ea4:	44de                	lw	s1,212(sp)
   11ea6:	494e                	lw	s2,208(sp)
   11ea8:	49be                	lw	s3,204(sp)
   11eaa:	612d                	addi	sp,sp,224
   11eac:	8082                	ret
   11eae:	0068                	addi	a0,sp,12
   11eb0:	00009097          	auipc	ra,0x9
   11eb4:	036080e7          	jalr	54(ra) # 1aee6 <_ZN9allow_pin12full_dynamic17unshare_if_shared17he9718eb989dae51aE>
   11eb8:	18c8                	addi	a0,sp,116
   11eba:	00009097          	auipc	ra,0x9
   11ebe:	02c080e7          	jalr	44(ra) # 1aee6 <_ZN9allow_pin12full_dynamic17unshare_if_shared17he9718eb989dae51aE>
   11ec2:	18c8                	addi	a0,sp,116
   11ec4:	00009097          	auipc	ra,0x9
   11ec8:	022080e7          	jalr	34(ra) # 1aee6 <_ZN9allow_pin12full_dynamic17unshare_if_shared17he9718eb989dae51aE>
   11ecc:	00198513          	addi	a0,s3,1
   11ed0:	04a00613          	li	a2,74
   11ed4:	85ca                	mv	a1,s2
   11ed6:	00009097          	auipc	ra,0x9
   11eda:	09c080e7          	jalr	156(ra) # 1af72 <memcpy>
   11ede:	4501                	li	a0,0
   11ee0:	b765                	j	11e88 <_ZN20complex_full_dynamic3app17h298711a2b652364eE+0xa0>

00011ee2 <_ZN20complex_full_dynamic3app17h2e7e8b06e9ff505dE>:
   11ee2:	7135                	addi	sp,sp,-160
   11ee4:	cf06                	sw	ra,156(sp)
   11ee6:	cd22                	sw	s0,152(sp)
   11ee8:	cb26                	sw	s1,148(sp)
   11eea:	c94a                	sw	s2,144(sp)
   11eec:	c74e                	sw	s3,140(sp)
   11eee:	89aa                	mv	s3,a0
   11ef0:	4409                	li	s0,2
   11ef2:	00810823          	sb	s0,16(sp)
   11ef6:	0844                	addi	s1,sp,20
   11ef8:	464d                	li	a2,19
   11efa:	8526                	mv	a0,s1
   11efc:	00009097          	auipc	ra,0x9
   11f00:	076080e7          	jalr	118(ra) # 1af72 <memcpy>
   11f04:	03410913          	addi	s2,sp,52
   11f08:	05500613          	li	a2,85
   11f0c:	854a                	mv	a0,s2
   11f0e:	4581                	li	a1,0
   11f10:	00009097          	auipc	ra,0x9
   11f14:	ff6080e7          	jalr	-10(ra) # 1af06 <memset>
   11f18:	8626                	mv	a2,s1
   11f1a:	02810823          	sb	s0,48(sp)
   11f1e:	32e00793          	li	a5,814
   11f22:	44a5                	li	s1,9
   11f24:	4811                	li	a6,4
   11f26:	32e00513          	li	a0,814
   11f2a:	45a5                	li	a1,9
   11f2c:	46cd                	li	a3,19
   11f2e:	4711                	li	a4,4
   11f30:	00000073          	ecall
   11f34:	04850563          	beq	a0,s0,11f7e <_ZN20complex_full_dynamic3app17h2e7e8b06e9ff505dE+0x9c>
   11f38:	864a                	mv	a2,s2
   11f3a:	c43e                	sw	a5,8(sp)
   11f3c:	c626                	sw	s1,12(sp)
   11f3e:	01010823          	sb	a6,16(sp)
   11f42:	479d                	li	a5,7
   11f44:	448d                	li	s1,3
   11f46:	32e00513          	li	a0,814
   11f4a:	459d                	li	a1,7
   11f4c:	05500693          	li	a3,85
   11f50:	470d                	li	a4,3
   11f52:	00000073          	ecall
   11f56:	02850463          	beq	a0,s0,11f7e <_ZN20complex_full_dynamic3app17h2e7e8b06e9ff505dE+0x9c>
   11f5a:	32e00693          	li	a3,814
   11f5e:	32e00513          	li	a0,814
   11f62:	45a5                	li	a1,9
   11f64:	461d                	li	a2,7
   11f66:	4709                	li	a4,2
   11f68:	07f00413          	li	s0,127
   11f6c:	d436                	sw	a3,40(sp)
   11f6e:	d63e                	sw	a5,44(sp)
   11f70:	02910823          	sb	s1,48(sp)
   11f74:	4681                	li	a3,0
   11f76:	00000073          	ecall
   11f7a:	02a46863          	bltu	s0,a0,11faa <_ZN20complex_full_dynamic3app17h2e7e8b06e9ff505dE+0xc8>
   11f7e:	00b9a223          	sw	a1,4(s3)
   11f82:	4505                	li	a0,1
   11f84:	00a98023          	sb	a0,0(s3)
   11f88:	1028                	addi	a0,sp,40
   11f8a:	00009097          	auipc	ra,0x9
   11f8e:	f5c080e7          	jalr	-164(ra) # 1aee6 <_ZN9allow_pin12full_dynamic17unshare_if_shared17he9718eb989dae51aE>
   11f92:	0028                	addi	a0,sp,8
   11f94:	00009097          	auipc	ra,0x9
   11f98:	f52080e7          	jalr	-174(ra) # 1aee6 <_ZN9allow_pin12full_dynamic17unshare_if_shared17he9718eb989dae51aE>
   11f9c:	40fa                	lw	ra,156(sp)
   11f9e:	446a                	lw	s0,152(sp)
   11fa0:	44da                	lw	s1,148(sp)
   11fa2:	494a                	lw	s2,144(sp)
   11fa4:	49ba                	lw	s3,140(sp)
   11fa6:	610d                	addi	sp,sp,160
   11fa8:	8082                	ret
   11faa:	0028                	addi	a0,sp,8
   11fac:	00009097          	auipc	ra,0x9
   11fb0:	f3a080e7          	jalr	-198(ra) # 1aee6 <_ZN9allow_pin12full_dynamic17unshare_if_shared17he9718eb989dae51aE>
   11fb4:	1028                	addi	a0,sp,40
   11fb6:	00009097          	auipc	ra,0x9
   11fba:	f30080e7          	jalr	-208(ra) # 1aee6 <_ZN9allow_pin12full_dynamic17unshare_if_shared17he9718eb989dae51aE>
   11fbe:	1028                	addi	a0,sp,40
   11fc0:	00009097          	auipc	ra,0x9
   11fc4:	f26080e7          	jalr	-218(ra) # 1aee6 <_ZN9allow_pin12full_dynamic17unshare_if_shared17he9718eb989dae51aE>
   11fc8:	00198513          	addi	a0,s3,1
   11fcc:	05500613          	li	a2,85
   11fd0:	85ca                	mv	a1,s2
   11fd2:	00009097          	auipc	ra,0x9
   11fd6:	fa0080e7          	jalr	-96(ra) # 1af72 <memcpy>
   11fda:	4501                	li	a0,0
   11fdc:	b765                	j	11f84 <_ZN20complex_full_dynamic3app17h2e7e8b06e9ff505dE+0xa2>

00011fde <_ZN20complex_full_dynamic3app17h349d1ea811f99228E>:
   11fde:	7171                	addi	sp,sp,-176
   11fe0:	d706                	sw	ra,172(sp)
   11fe2:	d522                	sw	s0,168(sp)
   11fe4:	d326                	sw	s1,164(sp)
   11fe6:	d14a                	sw	s2,160(sp)
   11fe8:	cf4e                	sw	s3,156(sp)
   11fea:	892a                	mv	s2,a0
   11fec:	4409                	li	s0,2
   11fee:	00810423          	sb	s0,8(sp)
   11ff2:	0064                	addi	s1,sp,12
   11ff4:	06100613          	li	a2,97
   11ff8:	8526                	mv	a0,s1
   11ffa:	00009097          	auipc	ra,0x9
   11ffe:	f78080e7          	jalr	-136(ra) # 1af72 <memcpy>
   12002:	8626                	mv	a2,s1
   12004:	08011c23          	sh	zero,152(sp)
   12008:	c502                	sw	zero,136(sp)
   1200a:	c702                	sw	zero,140(sp)
   1200c:	c902                	sw	zero,144(sp)
   1200e:	cb02                	sw	zero,148(sp)
   12010:	06810c23          	sb	s0,120(sp)
   12014:	de82                	sw	zero,124(sp)
   12016:	c102                	sw	zero,128(sp)
   12018:	c302                	sw	zero,132(sp)
   1201a:	18800493          	li	s1,392
   1201e:	4791                	li	a5,4
   12020:	18800513          	li	a0,392
   12024:	4591                	li	a1,4
   12026:	06100693          	li	a3,97
   1202a:	4711                	li	a4,4
   1202c:	00000073          	ecall
   12030:	04850663          	beq	a0,s0,1207c <_ZN20complex_full_dynamic3app17h349d1ea811f99228E+0x9e>
   12034:	07c10993          	addi	s3,sp,124
   12038:	c026                	sw	s1,0(sp)
   1203a:	c23e                	sw	a5,4(sp)
   1203c:	00f10423          	sb	a5,8(sp)
   12040:	4799                	li	a5,6
   12042:	448d                	li	s1,3
   12044:	18800513          	li	a0,392
   12048:	4599                	li	a1,6
   1204a:	46f9                	li	a3,30
   1204c:	470d                	li	a4,3
   1204e:	864e                	mv	a2,s3
   12050:	00000073          	ecall
   12054:	02850463          	beq	a0,s0,1207c <_ZN20complex_full_dynamic3app17h349d1ea811f99228E+0x9e>
   12058:	18800693          	li	a3,392
   1205c:	18800513          	li	a0,392
   12060:	4591                	li	a1,4
   12062:	4619                	li	a2,6
   12064:	4709                	li	a4,2
   12066:	07f00413          	li	s0,127
   1206a:	d8b6                	sw	a3,112(sp)
   1206c:	dabe                	sw	a5,116(sp)
   1206e:	06910c23          	sb	s1,120(sp)
   12072:	4681                	li	a3,0
   12074:	00000073          	ecall
   12078:	02a46863          	bltu	s0,a0,120a8 <_ZN20complex_full_dynamic3app17h349d1ea811f99228E+0xca>
   1207c:	00b92223          	sw	a1,4(s2)
   12080:	4505                	li	a0,1
   12082:	00a90023          	sb	a0,0(s2)
   12086:	1888                	addi	a0,sp,112
   12088:	00009097          	auipc	ra,0x9
   1208c:	e5e080e7          	jalr	-418(ra) # 1aee6 <_ZN9allow_pin12full_dynamic17unshare_if_shared17he9718eb989dae51aE>
   12090:	850a                	mv	a0,sp
   12092:	00009097          	auipc	ra,0x9
   12096:	e54080e7          	jalr	-428(ra) # 1aee6 <_ZN9allow_pin12full_dynamic17unshare_if_shared17he9718eb989dae51aE>
   1209a:	50ba                	lw	ra,172(sp)
   1209c:	542a                	lw	s0,168(sp)
   1209e:	549a                	lw	s1,164(sp)
   120a0:	590a                	lw	s2,160(sp)
   120a2:	49fa                	lw	s3,156(sp)
   120a4:	614d                	addi	sp,sp,176
   120a6:	8082                	ret
   120a8:	850a                	mv	a0,sp
   120aa:	00009097          	auipc	ra,0x9
   120ae:	e3c080e7          	jalr	-452(ra) # 1aee6 <_ZN9allow_pin12full_dynamic17unshare_if_shared17he9718eb989dae51aE>
   120b2:	1888                	addi	a0,sp,112
   120b4:	00009097          	auipc	ra,0x9
   120b8:	e32080e7          	jalr	-462(ra) # 1aee6 <_ZN9allow_pin12full_dynamic17unshare_if_shared17he9718eb989dae51aE>
   120bc:	1888                	addi	a0,sp,112
   120be:	00009097          	auipc	ra,0x9
   120c2:	e28080e7          	jalr	-472(ra) # 1aee6 <_ZN9allow_pin12full_dynamic17unshare_if_shared17he9718eb989dae51aE>
   120c6:	00190513          	addi	a0,s2,1
   120ca:	4679                	li	a2,30
   120cc:	85ce                	mv	a1,s3
   120ce:	00009097          	auipc	ra,0x9
   120d2:	ea4080e7          	jalr	-348(ra) # 1af72 <memcpy>
   120d6:	4501                	li	a0,0
   120d8:	b76d                	j	12082 <_ZN20complex_full_dynamic3app17h349d1ea811f99228E+0xa4>

000120da <_ZN20complex_full_dynamic3app17h36c5ac1e257434faE>:
   120da:	7135                	addi	sp,sp,-160
   120dc:	cf06                	sw	ra,156(sp)
   120de:	cd22                	sw	s0,152(sp)
   120e0:	cb26                	sw	s1,148(sp)
   120e2:	c94a                	sw	s2,144(sp)
   120e4:	c74e                	sw	s3,140(sp)
   120e6:	89aa                	mv	s3,a0
   120e8:	4409                	li	s0,2
   120ea:	00810823          	sb	s0,16(sp)
   120ee:	0844                	addi	s1,sp,20
   120f0:	03800613          	li	a2,56
   120f4:	8526                	mv	a0,s1
   120f6:	00009097          	auipc	ra,0x9
   120fa:	e7c080e7          	jalr	-388(ra) # 1af72 <memcpy>
   120fe:	05810913          	addi	s2,sp,88
   12102:	03400613          	li	a2,52
   12106:	854a                	mv	a0,s2
   12108:	4581                	li	a1,0
   1210a:	00009097          	auipc	ra,0x9
   1210e:	dfc080e7          	jalr	-516(ra) # 1af06 <memset>
   12112:	8626                	mv	a2,s1
   12114:	04810a23          	sb	s0,84(sp)
   12118:	12e00793          	li	a5,302
   1211c:	44a1                	li	s1,8
   1211e:	4811                	li	a6,4
   12120:	12e00513          	li	a0,302
   12124:	45a1                	li	a1,8
   12126:	03800693          	li	a3,56
   1212a:	4711                	li	a4,4
   1212c:	00000073          	ecall
   12130:	04850463          	beq	a0,s0,12178 <_ZN20complex_full_dynamic3app17h36c5ac1e257434faE+0x9e>
   12134:	864a                	mv	a2,s2
   12136:	c43e                	sw	a5,8(sp)
   12138:	c626                	sw	s1,12(sp)
   1213a:	01010823          	sb	a6,16(sp)
   1213e:	478d                	li	a5,3
   12140:	12e00513          	li	a0,302
   12144:	458d                	li	a1,3
   12146:	03400693          	li	a3,52
   1214a:	470d                	li	a4,3
   1214c:	00000073          	ecall
   12150:	02850463          	beq	a0,s0,12178 <_ZN20complex_full_dynamic3app17h36c5ac1e257434faE+0x9e>
   12154:	12e00693          	li	a3,302
   12158:	12e00513          	li	a0,302
   1215c:	45a1                	li	a1,8
   1215e:	460d                	li	a2,3
   12160:	4709                	li	a4,2
   12162:	07f00493          	li	s1,127
   12166:	c6b6                	sw	a3,76(sp)
   12168:	c8be                	sw	a5,80(sp)
   1216a:	04f10a23          	sb	a5,84(sp)
   1216e:	4681                	li	a3,0
   12170:	00000073          	ecall
   12174:	02a4e863          	bltu	s1,a0,121a4 <_ZN20complex_full_dynamic3app17h36c5ac1e257434faE+0xca>
   12178:	00b9a223          	sw	a1,4(s3)
   1217c:	4505                	li	a0,1
   1217e:	00a98023          	sb	a0,0(s3)
   12182:	00e8                	addi	a0,sp,76
   12184:	00009097          	auipc	ra,0x9
   12188:	d62080e7          	jalr	-670(ra) # 1aee6 <_ZN9allow_pin12full_dynamic17unshare_if_shared17he9718eb989dae51aE>
   1218c:	0028                	addi	a0,sp,8
   1218e:	00009097          	auipc	ra,0x9
   12192:	d58080e7          	jalr	-680(ra) # 1aee6 <_ZN9allow_pin12full_dynamic17unshare_if_shared17he9718eb989dae51aE>
   12196:	40fa                	lw	ra,156(sp)
   12198:	446a                	lw	s0,152(sp)
   1219a:	44da                	lw	s1,148(sp)
   1219c:	494a                	lw	s2,144(sp)
   1219e:	49ba                	lw	s3,140(sp)
   121a0:	610d                	addi	sp,sp,160
   121a2:	8082                	ret
   121a4:	0028                	addi	a0,sp,8
   121a6:	00009097          	auipc	ra,0x9
   121aa:	d40080e7          	jalr	-704(ra) # 1aee6 <_ZN9allow_pin12full_dynamic17unshare_if_shared17he9718eb989dae51aE>
   121ae:	00e8                	addi	a0,sp,76
   121b0:	00009097          	auipc	ra,0x9
   121b4:	d36080e7          	jalr	-714(ra) # 1aee6 <_ZN9allow_pin12full_dynamic17unshare_if_shared17he9718eb989dae51aE>
   121b8:	00e8                	addi	a0,sp,76
   121ba:	00009097          	auipc	ra,0x9
   121be:	d2c080e7          	jalr	-724(ra) # 1aee6 <_ZN9allow_pin12full_dynamic17unshare_if_shared17he9718eb989dae51aE>
   121c2:	00198513          	addi	a0,s3,1
   121c6:	03400613          	li	a2,52
   121ca:	85ca                	mv	a1,s2
   121cc:	00009097          	auipc	ra,0x9
   121d0:	da6080e7          	jalr	-602(ra) # 1af72 <memcpy>
   121d4:	4501                	li	a0,0
   121d6:	b765                	j	1217e <_ZN20complex_full_dynamic3app17h36c5ac1e257434faE+0xa4>

000121d8 <_ZN20complex_full_dynamic3app17h3751c486f30afa42E>:
   121d8:	7151                	addi	sp,sp,-240
   121da:	d786                	sw	ra,236(sp)
   121dc:	d5a2                	sw	s0,232(sp)
   121de:	d3a6                	sw	s1,228(sp)
   121e0:	d1ca                	sw	s2,224(sp)
   121e2:	cfce                	sw	s3,220(sp)
   121e4:	89aa                	mv	s3,a0
   121e6:	4409                	li	s0,2
   121e8:	00810a23          	sb	s0,20(sp)
   121ec:	0824                	addi	s1,sp,24
   121ee:	05e00613          	li	a2,94
   121f2:	8526                	mv	a0,s1
   121f4:	00009097          	auipc	ra,0x9
   121f8:	d7e080e7          	jalr	-642(ra) # 1af72 <memcpy>
   121fc:	08410913          	addi	s2,sp,132
   12200:	05500613          	li	a2,85
   12204:	854a                	mv	a0,s2
   12206:	4581                	li	a1,0
   12208:	00009097          	auipc	ra,0x9
   1220c:	cfe080e7          	jalr	-770(ra) # 1af06 <memset>
   12210:	8626                	mv	a2,s1
   12212:	08810023          	sb	s0,128(sp)
   12216:	6505                	lui	a0,0x1
   12218:	449d                	li	s1,7
   1221a:	4811                	li	a6,4
   1221c:	459d                	li	a1,7
   1221e:	78a50793          	addi	a5,a0,1930 # 178a <.Lline_table_start1+0x155f>
   12222:	05e00693          	li	a3,94
   12226:	4711                	li	a4,4
   12228:	853e                	mv	a0,a5
   1222a:	00000073          	ecall
   1222e:	04850263          	beq	a0,s0,12272 <_ZN20complex_full_dynamic3app17h3751c486f30afa42E+0x9a>
   12232:	853e                	mv	a0,a5
   12234:	864a                	mv	a2,s2
   12236:	c63e                	sw	a5,12(sp)
   12238:	c826                	sw	s1,16(sp)
   1223a:	01010a23          	sb	a6,20(sp)
   1223e:	448d                	li	s1,3
   12240:	458d                	li	a1,3
   12242:	05500693          	li	a3,85
   12246:	470d                	li	a4,3
   12248:	00000073          	ecall
   1224c:	02850363          	beq	a0,s0,12272 <_ZN20complex_full_dynamic3app17h3751c486f30afa42E+0x9a>
   12250:	dcbe                	sw	a5,120(sp)
   12252:	dea6                	sw	s1,124(sp)
   12254:	08910023          	sb	s1,128(sp)
   12258:	6505                	lui	a0,0x1
   1225a:	459d                	li	a1,7
   1225c:	460d                	li	a2,3
   1225e:	78a50513          	addi	a0,a0,1930 # 178a <.Lline_table_start1+0x155f>
   12262:	4709                	li	a4,2
   12264:	07f00793          	li	a5,127
   12268:	4681                	li	a3,0
   1226a:	00000073          	ecall
   1226e:	02a7e863          	bltu	a5,a0,1229e <_ZN20complex_full_dynamic3app17h3751c486f30afa42E+0xc6>
   12272:	00b9a223          	sw	a1,4(s3)
   12276:	4505                	li	a0,1
   12278:	00a98023          	sb	a0,0(s3)
   1227c:	18a8                	addi	a0,sp,120
   1227e:	00009097          	auipc	ra,0x9
   12282:	c68080e7          	jalr	-920(ra) # 1aee6 <_ZN9allow_pin12full_dynamic17unshare_if_shared17he9718eb989dae51aE>
   12286:	0068                	addi	a0,sp,12
   12288:	00009097          	auipc	ra,0x9
   1228c:	c5e080e7          	jalr	-930(ra) # 1aee6 <_ZN9allow_pin12full_dynamic17unshare_if_shared17he9718eb989dae51aE>
   12290:	50be                	lw	ra,236(sp)
   12292:	542e                	lw	s0,232(sp)
   12294:	549e                	lw	s1,228(sp)
   12296:	590e                	lw	s2,224(sp)
   12298:	49fe                	lw	s3,220(sp)
   1229a:	616d                	addi	sp,sp,240
   1229c:	8082                	ret
   1229e:	0068                	addi	a0,sp,12
   122a0:	00009097          	auipc	ra,0x9
   122a4:	c46080e7          	jalr	-954(ra) # 1aee6 <_ZN9allow_pin12full_dynamic17unshare_if_shared17he9718eb989dae51aE>
   122a8:	18a8                	addi	a0,sp,120
   122aa:	00009097          	auipc	ra,0x9
   122ae:	c3c080e7          	jalr	-964(ra) # 1aee6 <_ZN9allow_pin12full_dynamic17unshare_if_shared17he9718eb989dae51aE>
   122b2:	18a8                	addi	a0,sp,120
   122b4:	00009097          	auipc	ra,0x9
   122b8:	c32080e7          	jalr	-974(ra) # 1aee6 <_ZN9allow_pin12full_dynamic17unshare_if_shared17he9718eb989dae51aE>
   122bc:	00198513          	addi	a0,s3,1
   122c0:	05500613          	li	a2,85
   122c4:	85ca                	mv	a1,s2
   122c6:	00009097          	auipc	ra,0x9
   122ca:	cac080e7          	jalr	-852(ra) # 1af72 <memcpy>
   122ce:	4501                	li	a0,0
   122d0:	b765                	j	12278 <_ZN20complex_full_dynamic3app17h3751c486f30afa42E+0xa0>

000122d2 <_ZN20complex_full_dynamic3app17h3aa9c3739dcc351eE>:
   122d2:	7131                	addi	sp,sp,-192
   122d4:	df06                	sw	ra,188(sp)
   122d6:	dd22                	sw	s0,184(sp)
   122d8:	db26                	sw	s1,180(sp)
   122da:	d94a                	sw	s2,176(sp)
   122dc:	d74e                	sw	s3,172(sp)
   122de:	89aa                	mv	s3,a0
   122e0:	4409                	li	s0,2
   122e2:	00810623          	sb	s0,12(sp)
   122e6:	0804                	addi	s1,sp,16
   122e8:	06300613          	li	a2,99
   122ec:	8526                	mv	a0,s1
   122ee:	00009097          	auipc	ra,0x9
   122f2:	c84080e7          	jalr	-892(ra) # 1af72 <memcpy>
   122f6:	08010913          	addi	s2,sp,128
   122fa:	02c00613          	li	a2,44
   122fe:	854a                	mv	a0,s2
   12300:	4581                	li	a1,0
   12302:	00009097          	auipc	ra,0x9
   12306:	c04080e7          	jalr	-1020(ra) # 1af06 <memset>
   1230a:	8626                	mv	a2,s1
   1230c:	06810e23          	sb	s0,124(sp)
   12310:	47e1                	li	a5,24
   12312:	4495                	li	s1,5
   12314:	4811                	li	a6,4
   12316:	4561                	li	a0,24
   12318:	4595                	li	a1,5
   1231a:	06300693          	li	a3,99
   1231e:	4711                	li	a4,4
   12320:	00000073          	ecall
   12324:	04850163          	beq	a0,s0,12366 <_ZN20complex_full_dynamic3app17h3aa9c3739dcc351eE+0x94>
   12328:	864a                	mv	a2,s2
   1232a:	c23e                	sw	a5,4(sp)
   1232c:	c426                	sw	s1,8(sp)
   1232e:	01010623          	sb	a6,12(sp)
   12332:	478d                	li	a5,3
   12334:	4561                	li	a0,24
   12336:	458d                	li	a1,3
   12338:	02c00693          	li	a3,44
   1233c:	470d                	li	a4,3
   1233e:	00000073          	ecall
   12342:	02850263          	beq	a0,s0,12366 <_ZN20complex_full_dynamic3app17h3aa9c3739dcc351eE+0x94>
   12346:	46e1                	li	a3,24
   12348:	4561                	li	a0,24
   1234a:	4595                	li	a1,5
   1234c:	460d                	li	a2,3
   1234e:	4709                	li	a4,2
   12350:	07f00493          	li	s1,127
   12354:	dab6                	sw	a3,116(sp)
   12356:	dcbe                	sw	a5,120(sp)
   12358:	06f10e23          	sb	a5,124(sp)
   1235c:	4681                	li	a3,0
   1235e:	00000073          	ecall
   12362:	02a4e863          	bltu	s1,a0,12392 <_ZN20complex_full_dynamic3app17h3aa9c3739dcc351eE+0xc0>
   12366:	00b9a223          	sw	a1,4(s3)
   1236a:	4505                	li	a0,1
   1236c:	00a98023          	sb	a0,0(s3)
   12370:	18c8                	addi	a0,sp,116
   12372:	00009097          	auipc	ra,0x9
   12376:	b74080e7          	jalr	-1164(ra) # 1aee6 <_ZN9allow_pin12full_dynamic17unshare_if_shared17he9718eb989dae51aE>
   1237a:	0048                	addi	a0,sp,4
   1237c:	00009097          	auipc	ra,0x9
   12380:	b6a080e7          	jalr	-1174(ra) # 1aee6 <_ZN9allow_pin12full_dynamic17unshare_if_shared17he9718eb989dae51aE>
   12384:	50fa                	lw	ra,188(sp)
   12386:	546a                	lw	s0,184(sp)
   12388:	54da                	lw	s1,180(sp)
   1238a:	594a                	lw	s2,176(sp)
   1238c:	59ba                	lw	s3,172(sp)
   1238e:	6129                	addi	sp,sp,192
   12390:	8082                	ret
   12392:	0048                	addi	a0,sp,4
   12394:	00009097          	auipc	ra,0x9
   12398:	b52080e7          	jalr	-1198(ra) # 1aee6 <_ZN9allow_pin12full_dynamic17unshare_if_shared17he9718eb989dae51aE>
   1239c:	18c8                	addi	a0,sp,116
   1239e:	00009097          	auipc	ra,0x9
   123a2:	b48080e7          	jalr	-1208(ra) # 1aee6 <_ZN9allow_pin12full_dynamic17unshare_if_shared17he9718eb989dae51aE>
   123a6:	18c8                	addi	a0,sp,116
   123a8:	00009097          	auipc	ra,0x9
   123ac:	b3e080e7          	jalr	-1218(ra) # 1aee6 <_ZN9allow_pin12full_dynamic17unshare_if_shared17he9718eb989dae51aE>
   123b0:	00198513          	addi	a0,s3,1
   123b4:	02c00613          	li	a2,44
   123b8:	85ca                	mv	a1,s2
   123ba:	00009097          	auipc	ra,0x9
   123be:	bb8080e7          	jalr	-1096(ra) # 1af72 <memcpy>
   123c2:	4501                	li	a0,0
   123c4:	b765                	j	1236c <_ZN20complex_full_dynamic3app17h3aa9c3739dcc351eE+0x9a>

000123c6 <_ZN20complex_full_dynamic3app17h3c861da2a95032dbE>:
   123c6:	7171                	addi	sp,sp,-176
   123c8:	d706                	sw	ra,172(sp)
   123ca:	d522                	sw	s0,168(sp)
   123cc:	d326                	sw	s1,164(sp)
   123ce:	d14a                	sw	s2,160(sp)
   123d0:	cf4e                	sw	s3,156(sp)
   123d2:	89aa                	mv	s3,a0
   123d4:	4409                	li	s0,2
   123d6:	00810a23          	sb	s0,20(sp)
   123da:	0824                	addi	s1,sp,24
   123dc:	02100613          	li	a2,33
   123e0:	8526                	mv	a0,s1
   123e2:	00009097          	auipc	ra,0x9
   123e6:	b90080e7          	jalr	-1136(ra) # 1af72 <memcpy>
   123ea:	04810913          	addi	s2,sp,72
   123ee:	05300613          	li	a2,83
   123f2:	854a                	mv	a0,s2
   123f4:	4581                	li	a1,0
   123f6:	00009097          	auipc	ra,0x9
   123fa:	b10080e7          	jalr	-1264(ra) # 1af06 <memset>
   123fe:	8626                	mv	a2,s1
   12400:	04810223          	sb	s0,68(sp)
   12404:	6509                	lui	a0,0x2
   12406:	4491                	li	s1,4
   12408:	4589                	li	a1,2
   1240a:	53e50793          	addi	a5,a0,1342 # 253e <.Lline_table_start1+0x2313>
   1240e:	02100693          	li	a3,33
   12412:	4711                	li	a4,4
   12414:	853e                	mv	a0,a5
   12416:	00000073          	ecall
   1241a:	04850363          	beq	a0,s0,12460 <_ZN20complex_full_dynamic3app17h3c861da2a95032dbE+0x9a>
   1241e:	853e                	mv	a0,a5
   12420:	864a                	mv	a2,s2
   12422:	c63e                	sw	a5,12(sp)
   12424:	c822                	sw	s0,16(sp)
   12426:	00910a23          	sb	s1,20(sp)
   1242a:	44a1                	li	s1,8
   1242c:	480d                	li	a6,3
   1242e:	45a1                	li	a1,8
   12430:	05300693          	li	a3,83
   12434:	470d                	li	a4,3
   12436:	00000073          	ecall
   1243a:	02850363          	beq	a0,s0,12460 <_ZN20complex_full_dynamic3app17h3c861da2a95032dbE+0x9a>
   1243e:	de3e                	sw	a5,60(sp)
   12440:	c0a6                	sw	s1,64(sp)
   12442:	05010223          	sb	a6,68(sp)
   12446:	6509                	lui	a0,0x2
   12448:	4589                	li	a1,2
   1244a:	4621                	li	a2,8
   1244c:	53e50513          	addi	a0,a0,1342 # 253e <.Lline_table_start1+0x2313>
   12450:	4709                	li	a4,2
   12452:	07f00793          	li	a5,127
   12456:	4681                	li	a3,0
   12458:	00000073          	ecall
   1245c:	02a7e863          	bltu	a5,a0,1248c <_ZN20complex_full_dynamic3app17h3c861da2a95032dbE+0xc6>
   12460:	00b9a223          	sw	a1,4(s3)
   12464:	4505                	li	a0,1
   12466:	00a98023          	sb	a0,0(s3)
   1246a:	1868                	addi	a0,sp,60
   1246c:	00009097          	auipc	ra,0x9
   12470:	a7a080e7          	jalr	-1414(ra) # 1aee6 <_ZN9allow_pin12full_dynamic17unshare_if_shared17he9718eb989dae51aE>
   12474:	0068                	addi	a0,sp,12
   12476:	00009097          	auipc	ra,0x9
   1247a:	a70080e7          	jalr	-1424(ra) # 1aee6 <_ZN9allow_pin12full_dynamic17unshare_if_shared17he9718eb989dae51aE>
   1247e:	50ba                	lw	ra,172(sp)
   12480:	542a                	lw	s0,168(sp)
   12482:	549a                	lw	s1,164(sp)
   12484:	590a                	lw	s2,160(sp)
   12486:	49fa                	lw	s3,156(sp)
   12488:	614d                	addi	sp,sp,176
   1248a:	8082                	ret
   1248c:	0068                	addi	a0,sp,12
   1248e:	00009097          	auipc	ra,0x9
   12492:	a58080e7          	jalr	-1448(ra) # 1aee6 <_ZN9allow_pin12full_dynamic17unshare_if_shared17he9718eb989dae51aE>
   12496:	1868                	addi	a0,sp,60
   12498:	00009097          	auipc	ra,0x9
   1249c:	a4e080e7          	jalr	-1458(ra) # 1aee6 <_ZN9allow_pin12full_dynamic17unshare_if_shared17he9718eb989dae51aE>
   124a0:	1868                	addi	a0,sp,60
   124a2:	00009097          	auipc	ra,0x9
   124a6:	a44080e7          	jalr	-1468(ra) # 1aee6 <_ZN9allow_pin12full_dynamic17unshare_if_shared17he9718eb989dae51aE>
   124aa:	00198513          	addi	a0,s3,1
   124ae:	05300613          	li	a2,83
   124b2:	85ca                	mv	a1,s2
   124b4:	00009097          	auipc	ra,0x9
   124b8:	abe080e7          	jalr	-1346(ra) # 1af72 <memcpy>
   124bc:	4501                	li	a0,0
   124be:	b765                	j	12466 <_ZN20complex_full_dynamic3app17h3c861da2a95032dbE+0xa0>

000124c0 <_ZN20complex_full_dynamic3app17h3dc7e1bb25a6bd2cE>:
   124c0:	7155                	addi	sp,sp,-208
   124c2:	c786                	sw	ra,204(sp)
   124c4:	c5a2                	sw	s0,200(sp)
   124c6:	c3a6                	sw	s1,196(sp)
   124c8:	c1ca                	sw	s2,192(sp)
   124ca:	df4e                	sw	s3,188(sp)
   124cc:	89aa                	mv	s3,a0
   124ce:	4409                	li	s0,2
   124d0:	00810623          	sb	s0,12(sp)
   124d4:	0804                	addi	s1,sp,16
   124d6:	04600613          	li	a2,70
   124da:	8526                	mv	a0,s1
   124dc:	00009097          	auipc	ra,0x9
   124e0:	a96080e7          	jalr	-1386(ra) # 1af72 <memcpy>
   124e4:	06410913          	addi	s2,sp,100
   124e8:	05600613          	li	a2,86
   124ec:	854a                	mv	a0,s2
   124ee:	4581                	li	a1,0
   124f0:	00009097          	auipc	ra,0x9
   124f4:	a16080e7          	jalr	-1514(ra) # 1af06 <memset>
   124f8:	8626                	mv	a2,s1
   124fa:	06810023          	sb	s0,96(sp)
   124fe:	6509                	lui	a0,0x2
   12500:	449d                	li	s1,7
   12502:	4811                	li	a6,4
   12504:	459d                	li	a1,7
   12506:	e5050793          	addi	a5,a0,-432 # 1e50 <.Lline_table_start1+0x1c25>
   1250a:	04600693          	li	a3,70
   1250e:	4711                	li	a4,4
   12510:	853e                	mv	a0,a5
   12512:	00000073          	ecall
   12516:	04850263          	beq	a0,s0,1255a <_ZN20complex_full_dynamic3app17h3dc7e1bb25a6bd2cE+0x9a>
   1251a:	853e                	mv	a0,a5
   1251c:	864a                	mv	a2,s2
   1251e:	c23e                	sw	a5,4(sp)
   12520:	c426                	sw	s1,8(sp)
   12522:	01010623          	sb	a6,12(sp)
   12526:	448d                	li	s1,3
   12528:	458d                	li	a1,3
   1252a:	05600693          	li	a3,86
   1252e:	470d                	li	a4,3
   12530:	00000073          	ecall
   12534:	02850363          	beq	a0,s0,1255a <_ZN20complex_full_dynamic3app17h3dc7e1bb25a6bd2cE+0x9a>
   12538:	ccbe                	sw	a5,88(sp)
   1253a:	cea6                	sw	s1,92(sp)
   1253c:	06910023          	sb	s1,96(sp)
   12540:	6509                	lui	a0,0x2
   12542:	459d                	li	a1,7
   12544:	460d                	li	a2,3
   12546:	e5050513          	addi	a0,a0,-432 # 1e50 <.Lline_table_start1+0x1c25>
   1254a:	4709                	li	a4,2
   1254c:	07f00793          	li	a5,127
   12550:	4681                	li	a3,0
   12552:	00000073          	ecall
   12556:	02a7e863          	bltu	a5,a0,12586 <_ZN20complex_full_dynamic3app17h3dc7e1bb25a6bd2cE+0xc6>
   1255a:	00b9a223          	sw	a1,4(s3)
   1255e:	4505                	li	a0,1
   12560:	00a98023          	sb	a0,0(s3)
   12564:	08a8                	addi	a0,sp,88
   12566:	00009097          	auipc	ra,0x9
   1256a:	980080e7          	jalr	-1664(ra) # 1aee6 <_ZN9allow_pin12full_dynamic17unshare_if_shared17he9718eb989dae51aE>
   1256e:	0048                	addi	a0,sp,4
   12570:	00009097          	auipc	ra,0x9
   12574:	976080e7          	jalr	-1674(ra) # 1aee6 <_ZN9allow_pin12full_dynamic17unshare_if_shared17he9718eb989dae51aE>
   12578:	40be                	lw	ra,204(sp)
   1257a:	442e                	lw	s0,200(sp)
   1257c:	449e                	lw	s1,196(sp)
   1257e:	490e                	lw	s2,192(sp)
   12580:	59fa                	lw	s3,188(sp)
   12582:	6169                	addi	sp,sp,208
   12584:	8082                	ret
   12586:	0048                	addi	a0,sp,4
   12588:	00009097          	auipc	ra,0x9
   1258c:	95e080e7          	jalr	-1698(ra) # 1aee6 <_ZN9allow_pin12full_dynamic17unshare_if_shared17he9718eb989dae51aE>
   12590:	08a8                	addi	a0,sp,88
   12592:	00009097          	auipc	ra,0x9
   12596:	954080e7          	jalr	-1708(ra) # 1aee6 <_ZN9allow_pin12full_dynamic17unshare_if_shared17he9718eb989dae51aE>
   1259a:	08a8                	addi	a0,sp,88
   1259c:	00009097          	auipc	ra,0x9
   125a0:	94a080e7          	jalr	-1718(ra) # 1aee6 <_ZN9allow_pin12full_dynamic17unshare_if_shared17he9718eb989dae51aE>
   125a4:	00198513          	addi	a0,s3,1
   125a8:	05600613          	li	a2,86
   125ac:	85ca                	mv	a1,s2
   125ae:	00009097          	auipc	ra,0x9
   125b2:	9c4080e7          	jalr	-1596(ra) # 1af72 <memcpy>
   125b6:	4501                	li	a0,0
   125b8:	b765                	j	12560 <_ZN20complex_full_dynamic3app17h3dc7e1bb25a6bd2cE+0xa0>

000125ba <_ZN20complex_full_dynamic3app17h49c93b5924149314E>:
   125ba:	7115                	addi	sp,sp,-224
   125bc:	cf86                	sw	ra,220(sp)
   125be:	cda2                	sw	s0,216(sp)
   125c0:	cba6                	sw	s1,212(sp)
   125c2:	c9ca                	sw	s2,208(sp)
   125c4:	c7ce                	sw	s3,204(sp)
   125c6:	89aa                	mv	s3,a0
   125c8:	4409                	li	s0,2
   125ca:	00810423          	sb	s0,8(sp)
   125ce:	0064                	addi	s1,sp,12
   125d0:	04f00613          	li	a2,79
   125d4:	8526                	mv	a0,s1
   125d6:	00009097          	auipc	ra,0x9
   125da:	99c080e7          	jalr	-1636(ra) # 1af72 <memcpy>
   125de:	06810913          	addi	s2,sp,104
   125e2:	06100613          	li	a2,97
   125e6:	854a                	mv	a0,s2
   125e8:	4581                	li	a1,0
   125ea:	00009097          	auipc	ra,0x9
   125ee:	91c080e7          	jalr	-1764(ra) # 1af06 <memset>
   125f2:	8626                	mv	a2,s1
   125f4:	06810223          	sb	s0,100(sp)
   125f8:	1b600493          	li	s1,438
   125fc:	4791                	li	a5,4
   125fe:	1b600513          	li	a0,438
   12602:	4589                	li	a1,2
   12604:	04f00693          	li	a3,79
   12608:	4711                	li	a4,4
   1260a:	00000073          	ecall
   1260e:	04850563          	beq	a0,s0,12658 <_ZN20complex_full_dynamic3app17h49c93b5924149314E+0x9e>
   12612:	864a                	mv	a2,s2
   12614:	c026                	sw	s1,0(sp)
   12616:	c222                	sw	s0,4(sp)
   12618:	00f10423          	sb	a5,8(sp)
   1261c:	47a1                	li	a5,8
   1261e:	448d                	li	s1,3
   12620:	1b600513          	li	a0,438
   12624:	45a1                	li	a1,8
   12626:	06100693          	li	a3,97
   1262a:	470d                	li	a4,3
   1262c:	00000073          	ecall
   12630:	02850463          	beq	a0,s0,12658 <_ZN20complex_full_dynamic3app17h49c93b5924149314E+0x9e>
   12634:	1b600693          	li	a3,438
   12638:	1b600513          	li	a0,438
   1263c:	4589                	li	a1,2
   1263e:	4621                	li	a2,8
   12640:	4709                	li	a4,2
   12642:	07f00413          	li	s0,127
   12646:	ceb6                	sw	a3,92(sp)
   12648:	d0be                	sw	a5,96(sp)
   1264a:	06910223          	sb	s1,100(sp)
   1264e:	4681                	li	a3,0
   12650:	00000073          	ecall
   12654:	02a46863          	bltu	s0,a0,12684 <_ZN20complex_full_dynamic3app17h49c93b5924149314E+0xca>
   12658:	00b9a223          	sw	a1,4(s3)
   1265c:	4505                	li	a0,1
   1265e:	00a98023          	sb	a0,0(s3)
   12662:	08e8                	addi	a0,sp,92
   12664:	00009097          	auipc	ra,0x9
   12668:	882080e7          	jalr	-1918(ra) # 1aee6 <_ZN9allow_pin12full_dynamic17unshare_if_shared17he9718eb989dae51aE>
   1266c:	850a                	mv	a0,sp
   1266e:	00009097          	auipc	ra,0x9
   12672:	878080e7          	jalr	-1928(ra) # 1aee6 <_ZN9allow_pin12full_dynamic17unshare_if_shared17he9718eb989dae51aE>
   12676:	40fe                	lw	ra,220(sp)
   12678:	446e                	lw	s0,216(sp)
   1267a:	44de                	lw	s1,212(sp)
   1267c:	494e                	lw	s2,208(sp)
   1267e:	49be                	lw	s3,204(sp)
   12680:	612d                	addi	sp,sp,224
   12682:	8082                	ret
   12684:	850a                	mv	a0,sp
   12686:	00009097          	auipc	ra,0x9
   1268a:	860080e7          	jalr	-1952(ra) # 1aee6 <_ZN9allow_pin12full_dynamic17unshare_if_shared17he9718eb989dae51aE>
   1268e:	08e8                	addi	a0,sp,92
   12690:	00009097          	auipc	ra,0x9
   12694:	856080e7          	jalr	-1962(ra) # 1aee6 <_ZN9allow_pin12full_dynamic17unshare_if_shared17he9718eb989dae51aE>
   12698:	08e8                	addi	a0,sp,92
   1269a:	00009097          	auipc	ra,0x9
   1269e:	84c080e7          	jalr	-1972(ra) # 1aee6 <_ZN9allow_pin12full_dynamic17unshare_if_shared17he9718eb989dae51aE>
   126a2:	00198513          	addi	a0,s3,1
   126a6:	06100613          	li	a2,97
   126aa:	85ca                	mv	a1,s2
   126ac:	00009097          	auipc	ra,0x9
   126b0:	8c6080e7          	jalr	-1850(ra) # 1af72 <memcpy>
   126b4:	4501                	li	a0,0
   126b6:	b765                	j	1265e <_ZN20complex_full_dynamic3app17h49c93b5924149314E+0xa4>

000126b8 <_ZN20complex_full_dynamic3app17h4e00a0def577c211E>:
   126b8:	7119                	addi	sp,sp,-128
   126ba:	de86                	sw	ra,124(sp)
   126bc:	dca2                	sw	s0,120(sp)
   126be:	daa6                	sw	s1,116(sp)
   126c0:	d8ca                	sw	s2,112(sp)
   126c2:	d6ce                	sw	s3,108(sp)
   126c4:	892a                	mv	s2,a0
   126c6:	4409                	li	s0,2
   126c8:	00810623          	sb	s0,12(sp)
   126cc:	0804                	addi	s1,sp,16
   126ce:	03400613          	li	a2,52
   126d2:	8526                	mv	a0,s1
   126d4:	00009097          	auipc	ra,0x9
   126d8:	89e080e7          	jalr	-1890(ra) # 1af72 <memcpy>
   126dc:	4581                	li	a1,0
   126de:	8626                	mv	a2,s1
   126e0:	ce82                	sw	zero,92(sp)
   126e2:	d082                	sw	zero,96(sp)
   126e4:	d282                	sw	zero,100(sp)
   126e6:	06011423          	sh	zero,104(sp)
   126ea:	04810623          	sb	s0,76(sp)
   126ee:	c882                	sw	zero,80(sp)
   126f0:	ca82                	sw	zero,84(sp)
   126f2:	cc82                	sw	zero,88(sp)
   126f4:	6505                	lui	a0,0x1
   126f6:	4491                	li	s1,4
   126f8:	2cc50793          	addi	a5,a0,716 # 12cc <.Lline_table_start1+0x10a1>
   126fc:	03400693          	li	a3,52
   12700:	4711                	li	a4,4
   12702:	853e                	mv	a0,a5
   12704:	00000073          	ecall
   12708:	04850463          	beq	a0,s0,12750 <_ZN20complex_full_dynamic3app17h4e00a0def577c211E+0x98>
   1270c:	853e                	mv	a0,a5
   1270e:	05010993          	addi	s3,sp,80
   12712:	c23e                	sw	a5,4(sp)
   12714:	c402                	sw	zero,8(sp)
   12716:	00910623          	sb	s1,12(sp)
   1271a:	4495                	li	s1,5
   1271c:	480d                	li	a6,3
   1271e:	4595                	li	a1,5
   12720:	46e9                	li	a3,26
   12722:	470d                	li	a4,3
   12724:	864e                	mv	a2,s3
   12726:	00000073          	ecall
   1272a:	02850363          	beq	a0,s0,12750 <_ZN20complex_full_dynamic3app17h4e00a0def577c211E+0x98>
   1272e:	c2be                	sw	a5,68(sp)
   12730:	c4a6                	sw	s1,72(sp)
   12732:	05010623          	sb	a6,76(sp)
   12736:	6505                	lui	a0,0x1
   12738:	4615                	li	a2,5
   1273a:	2cc50513          	addi	a0,a0,716 # 12cc <.Lline_table_start1+0x10a1>
   1273e:	4709                	li	a4,2
   12740:	07f00793          	li	a5,127
   12744:	4581                	li	a1,0
   12746:	4681                	li	a3,0
   12748:	00000073          	ecall
   1274c:	02a7e863          	bltu	a5,a0,1277c <_ZN20complex_full_dynamic3app17h4e00a0def577c211E+0xc4>
   12750:	00b92223          	sw	a1,4(s2)
   12754:	4505                	li	a0,1
   12756:	00a90023          	sb	a0,0(s2)
   1275a:	00c8                	addi	a0,sp,68
   1275c:	00008097          	auipc	ra,0x8
   12760:	78a080e7          	jalr	1930(ra) # 1aee6 <_ZN9allow_pin12full_dynamic17unshare_if_shared17he9718eb989dae51aE>
   12764:	0048                	addi	a0,sp,4
   12766:	00008097          	auipc	ra,0x8
   1276a:	780080e7          	jalr	1920(ra) # 1aee6 <_ZN9allow_pin12full_dynamic17unshare_if_shared17he9718eb989dae51aE>
   1276e:	50f6                	lw	ra,124(sp)
   12770:	5466                	lw	s0,120(sp)
   12772:	54d6                	lw	s1,116(sp)
   12774:	5946                	lw	s2,112(sp)
   12776:	59b6                	lw	s3,108(sp)
   12778:	6109                	addi	sp,sp,128
   1277a:	8082                	ret
   1277c:	0048                	addi	a0,sp,4
   1277e:	00008097          	auipc	ra,0x8
   12782:	768080e7          	jalr	1896(ra) # 1aee6 <_ZN9allow_pin12full_dynamic17unshare_if_shared17he9718eb989dae51aE>
   12786:	00c8                	addi	a0,sp,68
   12788:	00008097          	auipc	ra,0x8
   1278c:	75e080e7          	jalr	1886(ra) # 1aee6 <_ZN9allow_pin12full_dynamic17unshare_if_shared17he9718eb989dae51aE>
   12790:	00c8                	addi	a0,sp,68
   12792:	00008097          	auipc	ra,0x8
   12796:	754080e7          	jalr	1876(ra) # 1aee6 <_ZN9allow_pin12full_dynamic17unshare_if_shared17he9718eb989dae51aE>
   1279a:	00190513          	addi	a0,s2,1
   1279e:	4669                	li	a2,26
   127a0:	85ce                	mv	a1,s3
   127a2:	00008097          	auipc	ra,0x8
   127a6:	7d0080e7          	jalr	2000(ra) # 1af72 <memcpy>
   127aa:	4501                	li	a0,0
   127ac:	b76d                	j	12756 <_ZN20complex_full_dynamic3app17h4e00a0def577c211E+0x9e>

000127ae <_ZN20complex_full_dynamic3app17h4e8825cfdf90b7ffE>:
   127ae:	7171                	addi	sp,sp,-176
   127b0:	d706                	sw	ra,172(sp)
   127b2:	d522                	sw	s0,168(sp)
   127b4:	d326                	sw	s1,164(sp)
   127b6:	d14a                	sw	s2,160(sp)
   127b8:	cf4e                	sw	s3,156(sp)
   127ba:	89aa                	mv	s3,a0
   127bc:	4409                	li	s0,2
   127be:	00810823          	sb	s0,16(sp)
   127c2:	0844                	addi	s1,sp,20
   127c4:	03100613          	li	a2,49
   127c8:	8526                	mv	a0,s1
   127ca:	00008097          	auipc	ra,0x8
   127ce:	7a8080e7          	jalr	1960(ra) # 1af72 <memcpy>
   127d2:	05410913          	addi	s2,sp,84
   127d6:	04800613          	li	a2,72
   127da:	854a                	mv	a0,s2
   127dc:	4581                	li	a1,0
   127de:	00008097          	auipc	ra,0x8
   127e2:	728080e7          	jalr	1832(ra) # 1af06 <memset>
   127e6:	8626                	mv	a2,s1
   127e8:	04810823          	sb	s0,80(sp)
   127ec:	6509                	lui	a0,0x2
   127ee:	4491                	li	s1,4
   127f0:	4591                	li	a1,4
   127f2:	80e50793          	addi	a5,a0,-2034 # 180e <.Lline_table_start1+0x15e3>
   127f6:	03100693          	li	a3,49
   127fa:	4711                	li	a4,4
   127fc:	853e                	mv	a0,a5
   127fe:	00000073          	ecall
   12802:	04850263          	beq	a0,s0,12846 <_ZN20complex_full_dynamic3app17h4e8825cfdf90b7ffE+0x98>
   12806:	853e                	mv	a0,a5
   12808:	864a                	mv	a2,s2
   1280a:	c43e                	sw	a5,8(sp)
   1280c:	c626                	sw	s1,12(sp)
   1280e:	00910823          	sb	s1,16(sp)
   12812:	448d                	li	s1,3
   12814:	458d                	li	a1,3
   12816:	04800693          	li	a3,72
   1281a:	470d                	li	a4,3
   1281c:	00000073          	ecall
   12820:	02850363          	beq	a0,s0,12846 <_ZN20complex_full_dynamic3app17h4e8825cfdf90b7ffE+0x98>
   12824:	c4be                	sw	a5,72(sp)
   12826:	c6a6                	sw	s1,76(sp)
   12828:	04910823          	sb	s1,80(sp)
   1282c:	6509                	lui	a0,0x2
   1282e:	4591                	li	a1,4
   12830:	460d                	li	a2,3
   12832:	80e50513          	addi	a0,a0,-2034 # 180e <.Lline_table_start1+0x15e3>
   12836:	4709                	li	a4,2
   12838:	07f00793          	li	a5,127
   1283c:	4681                	li	a3,0
   1283e:	00000073          	ecall
   12842:	02a7e863          	bltu	a5,a0,12872 <_ZN20complex_full_dynamic3app17h4e8825cfdf90b7ffE+0xc4>
   12846:	00b9a223          	sw	a1,4(s3)
   1284a:	4505                	li	a0,1
   1284c:	00a98023          	sb	a0,0(s3)
   12850:	00a8                	addi	a0,sp,72
   12852:	00008097          	auipc	ra,0x8
   12856:	694080e7          	jalr	1684(ra) # 1aee6 <_ZN9allow_pin12full_dynamic17unshare_if_shared17he9718eb989dae51aE>
   1285a:	0028                	addi	a0,sp,8
   1285c:	00008097          	auipc	ra,0x8
   12860:	68a080e7          	jalr	1674(ra) # 1aee6 <_ZN9allow_pin12full_dynamic17unshare_if_shared17he9718eb989dae51aE>
   12864:	50ba                	lw	ra,172(sp)
   12866:	542a                	lw	s0,168(sp)
   12868:	549a                	lw	s1,164(sp)
   1286a:	590a                	lw	s2,160(sp)
   1286c:	49fa                	lw	s3,156(sp)
   1286e:	614d                	addi	sp,sp,176
   12870:	8082                	ret
   12872:	0028                	addi	a0,sp,8
   12874:	00008097          	auipc	ra,0x8
   12878:	672080e7          	jalr	1650(ra) # 1aee6 <_ZN9allow_pin12full_dynamic17unshare_if_shared17he9718eb989dae51aE>
   1287c:	00a8                	addi	a0,sp,72
   1287e:	00008097          	auipc	ra,0x8
   12882:	668080e7          	jalr	1640(ra) # 1aee6 <_ZN9allow_pin12full_dynamic17unshare_if_shared17he9718eb989dae51aE>
   12886:	00a8                	addi	a0,sp,72
   12888:	00008097          	auipc	ra,0x8
   1288c:	65e080e7          	jalr	1630(ra) # 1aee6 <_ZN9allow_pin12full_dynamic17unshare_if_shared17he9718eb989dae51aE>
   12890:	00198513          	addi	a0,s3,1
   12894:	04800613          	li	a2,72
   12898:	85ca                	mv	a1,s2
   1289a:	00008097          	auipc	ra,0x8
   1289e:	6d8080e7          	jalr	1752(ra) # 1af72 <memcpy>
   128a2:	4501                	li	a0,0
   128a4:	b765                	j	1284c <_ZN20complex_full_dynamic3app17h4e8825cfdf90b7ffE+0x9e>

000128a6 <_ZN20complex_full_dynamic3app17h4eb70c90e9970eb5E>:
   128a6:	7175                	addi	sp,sp,-144
   128a8:	c706                	sw	ra,140(sp)
   128aa:	c522                	sw	s0,136(sp)
   128ac:	c326                	sw	s1,132(sp)
   128ae:	c14a                	sw	s2,128(sp)
   128b0:	dece                	sw	s3,124(sp)
   128b2:	89aa                	mv	s3,a0
   128b4:	4409                	li	s0,2
   128b6:	00810a23          	sb	s0,20(sp)
   128ba:	0824                	addi	s1,sp,24
   128bc:	463d                	li	a2,15
   128be:	8526                	mv	a0,s1
   128c0:	00008097          	auipc	ra,0x8
   128c4:	6b2080e7          	jalr	1714(ra) # 1af72 <memcpy>
   128c8:	03410913          	addi	s2,sp,52
   128cc:	04600613          	li	a2,70
   128d0:	854a                	mv	a0,s2
   128d2:	4581                	li	a1,0
   128d4:	00008097          	auipc	ra,0x8
   128d8:	632080e7          	jalr	1586(ra) # 1af06 <memset>
   128dc:	8626                	mv	a2,s1
   128de:	02810823          	sb	s0,48(sp)
   128e2:	6509                	lui	a0,0x2
   128e4:	44a5                	li	s1,9
   128e6:	4811                	li	a6,4
   128e8:	45a5                	li	a1,9
   128ea:	d7e50793          	addi	a5,a0,-642 # 1d7e <.Lline_table_start1+0x1b53>
   128ee:	46bd                	li	a3,15
   128f0:	4711                	li	a4,4
   128f2:	853e                	mv	a0,a5
   128f4:	00000073          	ecall
   128f8:	04850363          	beq	a0,s0,1293e <_ZN20complex_full_dynamic3app17h4eb70c90e9970eb5E+0x98>
   128fc:	853e                	mv	a0,a5
   128fe:	864a                	mv	a2,s2
   12900:	c63e                	sw	a5,12(sp)
   12902:	c826                	sw	s1,16(sp)
   12904:	01010a23          	sb	a6,20(sp)
   12908:	448d                	li	s1,3
   1290a:	4589                	li	a1,2
   1290c:	04600693          	li	a3,70
   12910:	470d                	li	a4,3
   12912:	00000073          	ecall
   12916:	02850463          	beq	a0,s0,1293e <_ZN20complex_full_dynamic3app17h4eb70c90e9970eb5E+0x98>
   1291a:	4509                	li	a0,2
   1291c:	6689                	lui	a3,0x2
   1291e:	45a5                	li	a1,9
   12920:	4609                	li	a2,2
   12922:	d43e                	sw	a5,40(sp)
   12924:	d62a                	sw	a0,44(sp)
   12926:	02910823          	sb	s1,48(sp)
   1292a:	d7e68513          	addi	a0,a3,-642 # 1d7e <.Lline_table_start1+0x1b53>
   1292e:	4709                	li	a4,2
   12930:	07f00793          	li	a5,127
   12934:	4681                	li	a3,0
   12936:	00000073          	ecall
   1293a:	02a7e863          	bltu	a5,a0,1296a <_ZN20complex_full_dynamic3app17h4eb70c90e9970eb5E+0xc4>
   1293e:	00b9a223          	sw	a1,4(s3)
   12942:	4505                	li	a0,1
   12944:	00a98023          	sb	a0,0(s3)
   12948:	1028                	addi	a0,sp,40
   1294a:	00008097          	auipc	ra,0x8
   1294e:	59c080e7          	jalr	1436(ra) # 1aee6 <_ZN9allow_pin12full_dynamic17unshare_if_shared17he9718eb989dae51aE>
   12952:	0068                	addi	a0,sp,12
   12954:	00008097          	auipc	ra,0x8
   12958:	592080e7          	jalr	1426(ra) # 1aee6 <_ZN9allow_pin12full_dynamic17unshare_if_shared17he9718eb989dae51aE>
   1295c:	40ba                	lw	ra,140(sp)
   1295e:	442a                	lw	s0,136(sp)
   12960:	449a                	lw	s1,132(sp)
   12962:	490a                	lw	s2,128(sp)
   12964:	59f6                	lw	s3,124(sp)
   12966:	6149                	addi	sp,sp,144
   12968:	8082                	ret
   1296a:	0068                	addi	a0,sp,12
   1296c:	00008097          	auipc	ra,0x8
   12970:	57a080e7          	jalr	1402(ra) # 1aee6 <_ZN9allow_pin12full_dynamic17unshare_if_shared17he9718eb989dae51aE>
   12974:	1028                	addi	a0,sp,40
   12976:	00008097          	auipc	ra,0x8
   1297a:	570080e7          	jalr	1392(ra) # 1aee6 <_ZN9allow_pin12full_dynamic17unshare_if_shared17he9718eb989dae51aE>
   1297e:	1028                	addi	a0,sp,40
   12980:	00008097          	auipc	ra,0x8
   12984:	566080e7          	jalr	1382(ra) # 1aee6 <_ZN9allow_pin12full_dynamic17unshare_if_shared17he9718eb989dae51aE>
   12988:	00198513          	addi	a0,s3,1
   1298c:	04600613          	li	a2,70
   12990:	85ca                	mv	a1,s2
   12992:	00008097          	auipc	ra,0x8
   12996:	5e0080e7          	jalr	1504(ra) # 1af72 <memcpy>
   1299a:	4501                	li	a0,0
   1299c:	b765                	j	12944 <_ZN20complex_full_dynamic3app17h4eb70c90e9970eb5E+0x9e>

0001299e <_ZN20complex_full_dynamic3app17h4f5609e1e15fe49fE>:
   1299e:	7135                	addi	sp,sp,-160
   129a0:	cf06                	sw	ra,156(sp)
   129a2:	cd22                	sw	s0,152(sp)
   129a4:	cb26                	sw	s1,148(sp)
   129a6:	c94a                	sw	s2,144(sp)
   129a8:	c74e                	sw	s3,140(sp)
   129aa:	89aa                	mv	s3,a0
   129ac:	4409                	li	s0,2
   129ae:	00810a23          	sb	s0,20(sp)
   129b2:	0824                	addi	s1,sp,24
   129b4:	04100613          	li	a2,65
   129b8:	8526                	mv	a0,s1
   129ba:	00008097          	auipc	ra,0x8
   129be:	5b8080e7          	jalr	1464(ra) # 1af72 <memcpy>
   129c2:	06810913          	addi	s2,sp,104
   129c6:	02200613          	li	a2,34
   129ca:	854a                	mv	a0,s2
   129cc:	4581                	li	a1,0
   129ce:	00008097          	auipc	ra,0x8
   129d2:	538080e7          	jalr	1336(ra) # 1af06 <memset>
   129d6:	8626                	mv	a2,s1
   129d8:	06810223          	sb	s0,100(sp)
   129dc:	6509                	lui	a0,0x2
   129de:	4485                	li	s1,1
   129e0:	4811                	li	a6,4
   129e2:	4585                	li	a1,1
   129e4:	47c50793          	addi	a5,a0,1148 # 247c <.Lline_table_start1+0x2251>
   129e8:	04100693          	li	a3,65
   129ec:	4711                	li	a4,4
   129ee:	853e                	mv	a0,a5
   129f0:	00000073          	ecall
   129f4:	04850263          	beq	a0,s0,12a38 <_ZN20complex_full_dynamic3app17h4f5609e1e15fe49fE+0x9a>
   129f8:	853e                	mv	a0,a5
   129fa:	4581                	li	a1,0
   129fc:	864a                	mv	a2,s2
   129fe:	c63e                	sw	a5,12(sp)
   12a00:	c826                	sw	s1,16(sp)
   12a02:	01010a23          	sb	a6,20(sp)
   12a06:	448d                	li	s1,3
   12a08:	02200693          	li	a3,34
   12a0c:	470d                	li	a4,3
   12a0e:	00000073          	ecall
   12a12:	02850363          	beq	a0,s0,12a38 <_ZN20complex_full_dynamic3app17h4f5609e1e15fe49fE+0x9a>
   12a16:	cebe                	sw	a5,92(sp)
   12a18:	d082                	sw	zero,96(sp)
   12a1a:	06910223          	sb	s1,100(sp)
   12a1e:	6509                	lui	a0,0x2
   12a20:	4585                	li	a1,1
   12a22:	47c50513          	addi	a0,a0,1148 # 247c <.Lline_table_start1+0x2251>
   12a26:	4709                	li	a4,2
   12a28:	07f00793          	li	a5,127
   12a2c:	4601                	li	a2,0
   12a2e:	4681                	li	a3,0
   12a30:	00000073          	ecall
   12a34:	02a7e863          	bltu	a5,a0,12a64 <_ZN20complex_full_dynamic3app17h4f5609e1e15fe49fE+0xc6>
   12a38:	00b9a223          	sw	a1,4(s3)
   12a3c:	4505                	li	a0,1
   12a3e:	00a98023          	sb	a0,0(s3)
   12a42:	08e8                	addi	a0,sp,92
   12a44:	00008097          	auipc	ra,0x8
   12a48:	4a2080e7          	jalr	1186(ra) # 1aee6 <_ZN9allow_pin12full_dynamic17unshare_if_shared17he9718eb989dae51aE>
   12a4c:	0068                	addi	a0,sp,12
   12a4e:	00008097          	auipc	ra,0x8
   12a52:	498080e7          	jalr	1176(ra) # 1aee6 <_ZN9allow_pin12full_dynamic17unshare_if_shared17he9718eb989dae51aE>
   12a56:	40fa                	lw	ra,156(sp)
   12a58:	446a                	lw	s0,152(sp)
   12a5a:	44da                	lw	s1,148(sp)
   12a5c:	494a                	lw	s2,144(sp)
   12a5e:	49ba                	lw	s3,140(sp)
   12a60:	610d                	addi	sp,sp,160
   12a62:	8082                	ret
   12a64:	0068                	addi	a0,sp,12
   12a66:	00008097          	auipc	ra,0x8
   12a6a:	480080e7          	jalr	1152(ra) # 1aee6 <_ZN9allow_pin12full_dynamic17unshare_if_shared17he9718eb989dae51aE>
   12a6e:	08e8                	addi	a0,sp,92
   12a70:	00008097          	auipc	ra,0x8
   12a74:	476080e7          	jalr	1142(ra) # 1aee6 <_ZN9allow_pin12full_dynamic17unshare_if_shared17he9718eb989dae51aE>
   12a78:	08e8                	addi	a0,sp,92
   12a7a:	00008097          	auipc	ra,0x8
   12a7e:	46c080e7          	jalr	1132(ra) # 1aee6 <_ZN9allow_pin12full_dynamic17unshare_if_shared17he9718eb989dae51aE>
   12a82:	00198513          	addi	a0,s3,1
   12a86:	02200613          	li	a2,34
   12a8a:	85ca                	mv	a1,s2
   12a8c:	00008097          	auipc	ra,0x8
   12a90:	4e6080e7          	jalr	1254(ra) # 1af72 <memcpy>
   12a94:	4501                	li	a0,0
   12a96:	b765                	j	12a3e <_ZN20complex_full_dynamic3app17h4f5609e1e15fe49fE+0xa0>

00012a98 <_ZN20complex_full_dynamic3app17h4fdd770126d94fe6E>:
   12a98:	7175                	addi	sp,sp,-144
   12a9a:	c706                	sw	ra,140(sp)
   12a9c:	c522                	sw	s0,136(sp)
   12a9e:	c326                	sw	s1,132(sp)
   12aa0:	c14a                	sw	s2,128(sp)
   12aa2:	dece                	sw	s3,124(sp)
   12aa4:	89aa                	mv	s3,a0
   12aa6:	4409                	li	s0,2
   12aa8:	00810423          	sb	s0,8(sp)
   12aac:	0064                	addi	s1,sp,12
   12aae:	03b00613          	li	a2,59
   12ab2:	8526                	mv	a0,s1
   12ab4:	00008097          	auipc	ra,0x8
   12ab8:	4be080e7          	jalr	1214(ra) # 1af72 <memcpy>
   12abc:	05410913          	addi	s2,sp,84
   12ac0:	02700613          	li	a2,39
   12ac4:	854a                	mv	a0,s2
   12ac6:	4581                	li	a1,0
   12ac8:	00008097          	auipc	ra,0x8
   12acc:	43e080e7          	jalr	1086(ra) # 1af06 <memset>
   12ad0:	8626                	mv	a2,s1
   12ad2:	04810823          	sb	s0,80(sp)
   12ad6:	6505                	lui	a0,0x1
   12ad8:	4495                	li	s1,5
   12ada:	4811                	li	a6,4
   12adc:	4595                	li	a1,5
   12ade:	bd350793          	addi	a5,a0,-1069 # bd3 <.Lline_table_start1+0x9a8>
   12ae2:	03b00693          	li	a3,59
   12ae6:	4711                	li	a4,4
   12ae8:	853e                	mv	a0,a5
   12aea:	00000073          	ecall
   12aee:	04850263          	beq	a0,s0,12b32 <_ZN20complex_full_dynamic3app17h4fdd770126d94fe6E+0x9a>
   12af2:	853e                	mv	a0,a5
   12af4:	864a                	mv	a2,s2
   12af6:	c03e                	sw	a5,0(sp)
   12af8:	c226                	sw	s1,4(sp)
   12afa:	01010423          	sb	a6,8(sp)
   12afe:	448d                	li	s1,3
   12b00:	458d                	li	a1,3
   12b02:	02700693          	li	a3,39
   12b06:	470d                	li	a4,3
   12b08:	00000073          	ecall
   12b0c:	02850363          	beq	a0,s0,12b32 <_ZN20complex_full_dynamic3app17h4fdd770126d94fe6E+0x9a>
   12b10:	c4be                	sw	a5,72(sp)
   12b12:	c6a6                	sw	s1,76(sp)
   12b14:	04910823          	sb	s1,80(sp)
   12b18:	6505                	lui	a0,0x1
   12b1a:	4595                	li	a1,5
   12b1c:	460d                	li	a2,3
   12b1e:	bd350513          	addi	a0,a0,-1069 # bd3 <.Lline_table_start1+0x9a8>
   12b22:	4709                	li	a4,2
   12b24:	07f00793          	li	a5,127
   12b28:	4681                	li	a3,0
   12b2a:	00000073          	ecall
   12b2e:	02a7e863          	bltu	a5,a0,12b5e <_ZN20complex_full_dynamic3app17h4fdd770126d94fe6E+0xc6>
   12b32:	00b9a223          	sw	a1,4(s3)
   12b36:	4505                	li	a0,1
   12b38:	00a98023          	sb	a0,0(s3)
   12b3c:	00a8                	addi	a0,sp,72
   12b3e:	00008097          	auipc	ra,0x8
   12b42:	3a8080e7          	jalr	936(ra) # 1aee6 <_ZN9allow_pin12full_dynamic17unshare_if_shared17he9718eb989dae51aE>
   12b46:	850a                	mv	a0,sp
   12b48:	00008097          	auipc	ra,0x8
   12b4c:	39e080e7          	jalr	926(ra) # 1aee6 <_ZN9allow_pin12full_dynamic17unshare_if_shared17he9718eb989dae51aE>
   12b50:	40ba                	lw	ra,140(sp)
   12b52:	442a                	lw	s0,136(sp)
   12b54:	449a                	lw	s1,132(sp)
   12b56:	490a                	lw	s2,128(sp)
   12b58:	59f6                	lw	s3,124(sp)
   12b5a:	6149                	addi	sp,sp,144
   12b5c:	8082                	ret
   12b5e:	850a                	mv	a0,sp
   12b60:	00008097          	auipc	ra,0x8
   12b64:	386080e7          	jalr	902(ra) # 1aee6 <_ZN9allow_pin12full_dynamic17unshare_if_shared17he9718eb989dae51aE>
   12b68:	00a8                	addi	a0,sp,72
   12b6a:	00008097          	auipc	ra,0x8
   12b6e:	37c080e7          	jalr	892(ra) # 1aee6 <_ZN9allow_pin12full_dynamic17unshare_if_shared17he9718eb989dae51aE>
   12b72:	00a8                	addi	a0,sp,72
   12b74:	00008097          	auipc	ra,0x8
   12b78:	372080e7          	jalr	882(ra) # 1aee6 <_ZN9allow_pin12full_dynamic17unshare_if_shared17he9718eb989dae51aE>
   12b7c:	00198513          	addi	a0,s3,1
   12b80:	02700613          	li	a2,39
   12b84:	85ca                	mv	a1,s2
   12b86:	00008097          	auipc	ra,0x8
   12b8a:	3ec080e7          	jalr	1004(ra) # 1af72 <memcpy>
   12b8e:	4501                	li	a0,0
   12b90:	b765                	j	12b38 <_ZN20complex_full_dynamic3app17h4fdd770126d94fe6E+0xa0>

00012b92 <_ZN20complex_full_dynamic3app17h52ad07380c5c86efE>:
   12b92:	7159                	addi	sp,sp,-112
   12b94:	d686                	sw	ra,108(sp)
   12b96:	d4a2                	sw	s0,104(sp)
   12b98:	d2a6                	sw	s1,100(sp)
   12b9a:	d0ca                	sw	s2,96(sp)
   12b9c:	cece                	sw	s3,92(sp)
   12b9e:	892a                	mv	s2,a0
   12ba0:	4409                	li	s0,2
   12ba2:	00810823          	sb	s0,16(sp)
   12ba6:	0844                	addi	s1,sp,20
   12ba8:	02700613          	li	a2,39
   12bac:	8526                	mv	a0,s1
   12bae:	00008097          	auipc	ra,0x8
   12bb2:	3c4080e7          	jalr	964(ra) # 1af72 <memcpy>
   12bb6:	8626                	mv	a2,s1
   12bb8:	ca82                	sw	zero,84(sp)
   12bba:	cc82                	sw	zero,88(sp)
   12bbc:	04810223          	sb	s0,68(sp)
   12bc0:	c482                	sw	zero,72(sp)
   12bc2:	c682                	sw	zero,76(sp)
   12bc4:	c882                	sw	zero,80(sp)
   12bc6:	6509                	lui	a0,0x2
   12bc8:	4499                	li	s1,6
   12bca:	4811                	li	a6,4
   12bcc:	4599                	li	a1,6
   12bce:	2c950793          	addi	a5,a0,713 # 22c9 <.Lline_table_start1+0x209e>
   12bd2:	02700693          	li	a3,39
   12bd6:	4711                	li	a4,4
   12bd8:	853e                	mv	a0,a5
   12bda:	00000073          	ecall
   12bde:	04850463          	beq	a0,s0,12c26 <_ZN20complex_full_dynamic3app17h52ad07380c5c86efE+0x94>
   12be2:	853e                	mv	a0,a5
   12be4:	04810993          	addi	s3,sp,72
   12be8:	c43e                	sw	a5,8(sp)
   12bea:	c626                	sw	s1,12(sp)
   12bec:	01010823          	sb	a6,16(sp)
   12bf0:	4495                	li	s1,5
   12bf2:	480d                	li	a6,3
   12bf4:	4595                	li	a1,5
   12bf6:	46d1                	li	a3,20
   12bf8:	470d                	li	a4,3
   12bfa:	864e                	mv	a2,s3
   12bfc:	00000073          	ecall
   12c00:	02850363          	beq	a0,s0,12c26 <_ZN20complex_full_dynamic3app17h52ad07380c5c86efE+0x94>
   12c04:	de3e                	sw	a5,60(sp)
   12c06:	c0a6                	sw	s1,64(sp)
   12c08:	05010223          	sb	a6,68(sp)
   12c0c:	6509                	lui	a0,0x2
   12c0e:	4599                	li	a1,6
   12c10:	4615                	li	a2,5
   12c12:	2c950513          	addi	a0,a0,713 # 22c9 <.Lline_table_start1+0x209e>
   12c16:	4709                	li	a4,2
   12c18:	07f00793          	li	a5,127
   12c1c:	4681                	li	a3,0
   12c1e:	00000073          	ecall
   12c22:	02a7e863          	bltu	a5,a0,12c52 <_ZN20complex_full_dynamic3app17h52ad07380c5c86efE+0xc0>
   12c26:	00b92223          	sw	a1,4(s2)
   12c2a:	4505                	li	a0,1
   12c2c:	00a90023          	sb	a0,0(s2)
   12c30:	1868                	addi	a0,sp,60
   12c32:	00008097          	auipc	ra,0x8
   12c36:	2b4080e7          	jalr	692(ra) # 1aee6 <_ZN9allow_pin12full_dynamic17unshare_if_shared17he9718eb989dae51aE>
   12c3a:	0028                	addi	a0,sp,8
   12c3c:	00008097          	auipc	ra,0x8
   12c40:	2aa080e7          	jalr	682(ra) # 1aee6 <_ZN9allow_pin12full_dynamic17unshare_if_shared17he9718eb989dae51aE>
   12c44:	50b6                	lw	ra,108(sp)
   12c46:	5426                	lw	s0,104(sp)
   12c48:	5496                	lw	s1,100(sp)
   12c4a:	5906                	lw	s2,96(sp)
   12c4c:	49f6                	lw	s3,92(sp)
   12c4e:	6165                	addi	sp,sp,112
   12c50:	8082                	ret
   12c52:	0028                	addi	a0,sp,8
   12c54:	00008097          	auipc	ra,0x8
   12c58:	292080e7          	jalr	658(ra) # 1aee6 <_ZN9allow_pin12full_dynamic17unshare_if_shared17he9718eb989dae51aE>
   12c5c:	1868                	addi	a0,sp,60
   12c5e:	00008097          	auipc	ra,0x8
   12c62:	288080e7          	jalr	648(ra) # 1aee6 <_ZN9allow_pin12full_dynamic17unshare_if_shared17he9718eb989dae51aE>
   12c66:	1868                	addi	a0,sp,60
   12c68:	00008097          	auipc	ra,0x8
   12c6c:	27e080e7          	jalr	638(ra) # 1aee6 <_ZN9allow_pin12full_dynamic17unshare_if_shared17he9718eb989dae51aE>
   12c70:	00190513          	addi	a0,s2,1
   12c74:	4651                	li	a2,20
   12c76:	85ce                	mv	a1,s3
   12c78:	00008097          	auipc	ra,0x8
   12c7c:	2fa080e7          	jalr	762(ra) # 1af72 <memcpy>
   12c80:	4501                	li	a0,0
   12c82:	b76d                	j	12c2c <_ZN20complex_full_dynamic3app17h52ad07380c5c86efE+0x9a>

00012c84 <_ZN20complex_full_dynamic3app17h52fb646156ccc0a4E>:
   12c84:	7119                	addi	sp,sp,-128
   12c86:	de86                	sw	ra,124(sp)
   12c88:	dca2                	sw	s0,120(sp)
   12c8a:	daa6                	sw	s1,116(sp)
   12c8c:	d8ca                	sw	s2,112(sp)
   12c8e:	d6ce                	sw	s3,108(sp)
   12c90:	89aa                	mv	s3,a0
   12c92:	4409                	li	s0,2
   12c94:	00810823          	sb	s0,16(sp)
   12c98:	0844                	addi	s1,sp,20
   12c9a:	4679                	li	a2,30
   12c9c:	8526                	mv	a0,s1
   12c9e:	00008097          	auipc	ra,0x8
   12ca2:	2d4080e7          	jalr	724(ra) # 1af72 <memcpy>
   12ca6:	04010913          	addi	s2,sp,64
   12caa:	02c00613          	li	a2,44
   12cae:	854a                	mv	a0,s2
   12cb0:	4581                	li	a1,0
   12cb2:	00008097          	auipc	ra,0x8
   12cb6:	254080e7          	jalr	596(ra) # 1af06 <memset>
   12cba:	8626                	mv	a2,s1
   12cbc:	02810e23          	sb	s0,60(sp)
   12cc0:	3fb00793          	li	a5,1019
   12cc4:	449d                	li	s1,7
   12cc6:	4811                	li	a6,4
   12cc8:	3fb00513          	li	a0,1019
   12ccc:	459d                	li	a1,7
   12cce:	46f9                	li	a3,30
   12cd0:	4711                	li	a4,4
   12cd2:	00000073          	ecall
   12cd6:	04850463          	beq	a0,s0,12d1e <_ZN20complex_full_dynamic3app17h52fb646156ccc0a4E+0x9a>
   12cda:	4581                	li	a1,0
   12cdc:	864a                	mv	a2,s2
   12cde:	c43e                	sw	a5,8(sp)
   12ce0:	c626                	sw	s1,12(sp)
   12ce2:	01010823          	sb	a6,16(sp)
   12ce6:	478d                	li	a5,3
   12ce8:	3fb00513          	li	a0,1019
   12cec:	02c00693          	li	a3,44
   12cf0:	470d                	li	a4,3
   12cf2:	00000073          	ecall
   12cf6:	02850463          	beq	a0,s0,12d1e <_ZN20complex_full_dynamic3app17h52fb646156ccc0a4E+0x9a>
   12cfa:	3fb00613          	li	a2,1019
   12cfe:	3fb00513          	li	a0,1019
   12d02:	459d                	li	a1,7
   12d04:	4709                	li	a4,2
   12d06:	07f00493          	li	s1,127
   12d0a:	da32                	sw	a2,52(sp)
   12d0c:	dc02                	sw	zero,56(sp)
   12d0e:	02f10e23          	sb	a5,60(sp)
   12d12:	4601                	li	a2,0
   12d14:	4681                	li	a3,0
   12d16:	00000073          	ecall
   12d1a:	02a4e863          	bltu	s1,a0,12d4a <_ZN20complex_full_dynamic3app17h52fb646156ccc0a4E+0xc6>
   12d1e:	00b9a223          	sw	a1,4(s3)
   12d22:	4505                	li	a0,1
   12d24:	00a98023          	sb	a0,0(s3)
   12d28:	1848                	addi	a0,sp,52
   12d2a:	00008097          	auipc	ra,0x8
   12d2e:	1bc080e7          	jalr	444(ra) # 1aee6 <_ZN9allow_pin12full_dynamic17unshare_if_shared17he9718eb989dae51aE>
   12d32:	0028                	addi	a0,sp,8
   12d34:	00008097          	auipc	ra,0x8
   12d38:	1b2080e7          	jalr	434(ra) # 1aee6 <_ZN9allow_pin12full_dynamic17unshare_if_shared17he9718eb989dae51aE>
   12d3c:	50f6                	lw	ra,124(sp)
   12d3e:	5466                	lw	s0,120(sp)
   12d40:	54d6                	lw	s1,116(sp)
   12d42:	5946                	lw	s2,112(sp)
   12d44:	59b6                	lw	s3,108(sp)
   12d46:	6109                	addi	sp,sp,128
   12d48:	8082                	ret
   12d4a:	0028                	addi	a0,sp,8
   12d4c:	00008097          	auipc	ra,0x8
   12d50:	19a080e7          	jalr	410(ra) # 1aee6 <_ZN9allow_pin12full_dynamic17unshare_if_shared17he9718eb989dae51aE>
   12d54:	1848                	addi	a0,sp,52
   12d56:	00008097          	auipc	ra,0x8
   12d5a:	190080e7          	jalr	400(ra) # 1aee6 <_ZN9allow_pin12full_dynamic17unshare_if_shared17he9718eb989dae51aE>
   12d5e:	1848                	addi	a0,sp,52
   12d60:	00008097          	auipc	ra,0x8
   12d64:	186080e7          	jalr	390(ra) # 1aee6 <_ZN9allow_pin12full_dynamic17unshare_if_shared17he9718eb989dae51aE>
   12d68:	00198513          	addi	a0,s3,1
   12d6c:	02c00613          	li	a2,44
   12d70:	85ca                	mv	a1,s2
   12d72:	00008097          	auipc	ra,0x8
   12d76:	200080e7          	jalr	512(ra) # 1af72 <memcpy>
   12d7a:	4501                	li	a0,0
   12d7c:	b765                	j	12d24 <_ZN20complex_full_dynamic3app17h52fb646156ccc0a4E+0xa0>

00012d7e <_ZN20complex_full_dynamic3app17h530e953175d44e76E>:
   12d7e:	7119                	addi	sp,sp,-128
   12d80:	de86                	sw	ra,124(sp)
   12d82:	dca2                	sw	s0,120(sp)
   12d84:	daa6                	sw	s1,116(sp)
   12d86:	d8ca                	sw	s2,112(sp)
   12d88:	d6ce                	sw	s3,108(sp)
   12d8a:	89aa                	mv	s3,a0
   12d8c:	4409                	li	s0,2
   12d8e:	00810423          	sb	s0,8(sp)
   12d92:	0064                	addi	s1,sp,12
   12d94:	02c00613          	li	a2,44
   12d98:	8526                	mv	a0,s1
   12d9a:	00008097          	auipc	ra,0x8
   12d9e:	1d8080e7          	jalr	472(ra) # 1af72 <memcpy>
   12da2:	04410913          	addi	s2,sp,68
   12da6:	02500613          	li	a2,37
   12daa:	854a                	mv	a0,s2
   12dac:	4581                	li	a1,0
   12dae:	00008097          	auipc	ra,0x8
   12db2:	158080e7          	jalr	344(ra) # 1af06 <memset>
   12db6:	8626                	mv	a2,s1
   12db8:	04810023          	sb	s0,64(sp)
   12dbc:	77f00793          	li	a5,1919
   12dc0:	448d                	li	s1,3
   12dc2:	4811                	li	a6,4
   12dc4:	77f00513          	li	a0,1919
   12dc8:	458d                	li	a1,3
   12dca:	02c00693          	li	a3,44
   12dce:	4711                	li	a4,4
   12dd0:	00000073          	ecall
   12dd4:	04850463          	beq	a0,s0,12e1c <_ZN20complex_full_dynamic3app17h530e953175d44e76E+0x9e>
   12dd8:	c03e                	sw	a5,0(sp)
   12dda:	c226                	sw	s1,4(sp)
   12ddc:	01010423          	sb	a6,8(sp)
   12de0:	77f00513          	li	a0,1919
   12de4:	02500693          	li	a3,37
   12de8:	470d                	li	a4,3
   12dea:	4581                	li	a1,0
   12dec:	864a                	mv	a2,s2
   12dee:	00000073          	ecall
   12df2:	02850563          	beq	a0,s0,12e1c <_ZN20complex_full_dynamic3app17h530e953175d44e76E+0x9e>
   12df6:	77f00613          	li	a2,1919
   12dfa:	468d                	li	a3,3
   12dfc:	77f00513          	li	a0,1919
   12e00:	458d                	li	a1,3
   12e02:	4709                	li	a4,2
   12e04:	07f00793          	li	a5,127
   12e08:	dc32                	sw	a2,56(sp)
   12e0a:	de02                	sw	zero,60(sp)
   12e0c:	04d10023          	sb	a3,64(sp)
   12e10:	4601                	li	a2,0
   12e12:	4681                	li	a3,0
   12e14:	00000073          	ecall
   12e18:	02a7e863          	bltu	a5,a0,12e48 <_ZN20complex_full_dynamic3app17h530e953175d44e76E+0xca>
   12e1c:	00b9a223          	sw	a1,4(s3)
   12e20:	4505                	li	a0,1
   12e22:	00a98023          	sb	a0,0(s3)
   12e26:	1828                	addi	a0,sp,56
   12e28:	00008097          	auipc	ra,0x8
   12e2c:	0be080e7          	jalr	190(ra) # 1aee6 <_ZN9allow_pin12full_dynamic17unshare_if_shared17he9718eb989dae51aE>
   12e30:	850a                	mv	a0,sp
   12e32:	00008097          	auipc	ra,0x8
   12e36:	0b4080e7          	jalr	180(ra) # 1aee6 <_ZN9allow_pin12full_dynamic17unshare_if_shared17he9718eb989dae51aE>
   12e3a:	50f6                	lw	ra,124(sp)
   12e3c:	5466                	lw	s0,120(sp)
   12e3e:	54d6                	lw	s1,116(sp)
   12e40:	5946                	lw	s2,112(sp)
   12e42:	59b6                	lw	s3,108(sp)
   12e44:	6109                	addi	sp,sp,128
   12e46:	8082                	ret
   12e48:	850a                	mv	a0,sp
   12e4a:	00008097          	auipc	ra,0x8
   12e4e:	09c080e7          	jalr	156(ra) # 1aee6 <_ZN9allow_pin12full_dynamic17unshare_if_shared17he9718eb989dae51aE>
   12e52:	1828                	addi	a0,sp,56
   12e54:	00008097          	auipc	ra,0x8
   12e58:	092080e7          	jalr	146(ra) # 1aee6 <_ZN9allow_pin12full_dynamic17unshare_if_shared17he9718eb989dae51aE>
   12e5c:	1828                	addi	a0,sp,56
   12e5e:	00008097          	auipc	ra,0x8
   12e62:	088080e7          	jalr	136(ra) # 1aee6 <_ZN9allow_pin12full_dynamic17unshare_if_shared17he9718eb989dae51aE>
   12e66:	00198513          	addi	a0,s3,1
   12e6a:	02500613          	li	a2,37
   12e6e:	85ca                	mv	a1,s2
   12e70:	00008097          	auipc	ra,0x8
   12e74:	102080e7          	jalr	258(ra) # 1af72 <memcpy>
   12e78:	4501                	li	a0,0
   12e7a:	b765                	j	12e22 <_ZN20complex_full_dynamic3app17h530e953175d44e76E+0xa4>

00012e7c <_ZN20complex_full_dynamic3app17h531378fed9c0d38bE>:
   12e7c:	7135                	addi	sp,sp,-160
   12e7e:	cf06                	sw	ra,156(sp)
   12e80:	cd22                	sw	s0,152(sp)
   12e82:	cb26                	sw	s1,148(sp)
   12e84:	c94a                	sw	s2,144(sp)
   12e86:	c74e                	sw	s3,140(sp)
   12e88:	89aa                	mv	s3,a0
   12e8a:	4409                	li	s0,2
   12e8c:	00810423          	sb	s0,8(sp)
   12e90:	0064                	addi	s1,sp,12
   12e92:	4679                	li	a2,30
   12e94:	8526                	mv	a0,s1
   12e96:	00008097          	auipc	ra,0x8
   12e9a:	0dc080e7          	jalr	220(ra) # 1af72 <memcpy>
   12e9e:	03810913          	addi	s2,sp,56
   12ea2:	05100613          	li	a2,81
   12ea6:	854a                	mv	a0,s2
   12ea8:	4581                	li	a1,0
   12eaa:	00008097          	auipc	ra,0x8
   12eae:	05c080e7          	jalr	92(ra) # 1af06 <memset>
   12eb2:	8626                	mv	a2,s1
   12eb4:	02810a23          	sb	s0,52(sp)
   12eb8:	6509                	lui	a0,0x2
   12eba:	4491                	li	s1,4
   12ebc:	4589                	li	a1,2
   12ebe:	96b50793          	addi	a5,a0,-1685 # 196b <.Lline_table_start1+0x1740>
   12ec2:	46f9                	li	a3,30
   12ec4:	4711                	li	a4,4
   12ec6:	853e                	mv	a0,a5
   12ec8:	00000073          	ecall
   12ecc:	04850263          	beq	a0,s0,12f10 <_ZN20complex_full_dynamic3app17h531378fed9c0d38bE+0x94>
   12ed0:	853e                	mv	a0,a5
   12ed2:	4581                	li	a1,0
   12ed4:	864a                	mv	a2,s2
   12ed6:	c03e                	sw	a5,0(sp)
   12ed8:	c222                	sw	s0,4(sp)
   12eda:	00910423          	sb	s1,8(sp)
   12ede:	448d                	li	s1,3
   12ee0:	05100693          	li	a3,81
   12ee4:	470d                	li	a4,3
   12ee6:	00000073          	ecall
   12eea:	02850363          	beq	a0,s0,12f10 <_ZN20complex_full_dynamic3app17h531378fed9c0d38bE+0x94>
   12eee:	d63e                	sw	a5,44(sp)
   12ef0:	d802                	sw	zero,48(sp)
   12ef2:	02910a23          	sb	s1,52(sp)
   12ef6:	6509                	lui	a0,0x2
   12ef8:	4589                	li	a1,2
   12efa:	96b50513          	addi	a0,a0,-1685 # 196b <.Lline_table_start1+0x1740>
   12efe:	4709                	li	a4,2
   12f00:	07f00793          	li	a5,127
   12f04:	4601                	li	a2,0
   12f06:	4681                	li	a3,0
   12f08:	00000073          	ecall
   12f0c:	02a7e863          	bltu	a5,a0,12f3c <_ZN20complex_full_dynamic3app17h531378fed9c0d38bE+0xc0>
   12f10:	00b9a223          	sw	a1,4(s3)
   12f14:	4505                	li	a0,1
   12f16:	00a98023          	sb	a0,0(s3)
   12f1a:	1068                	addi	a0,sp,44
   12f1c:	00008097          	auipc	ra,0x8
   12f20:	fca080e7          	jalr	-54(ra) # 1aee6 <_ZN9allow_pin12full_dynamic17unshare_if_shared17he9718eb989dae51aE>
   12f24:	850a                	mv	a0,sp
   12f26:	00008097          	auipc	ra,0x8
   12f2a:	fc0080e7          	jalr	-64(ra) # 1aee6 <_ZN9allow_pin12full_dynamic17unshare_if_shared17he9718eb989dae51aE>
   12f2e:	40fa                	lw	ra,156(sp)
   12f30:	446a                	lw	s0,152(sp)
   12f32:	44da                	lw	s1,148(sp)
   12f34:	494a                	lw	s2,144(sp)
   12f36:	49ba                	lw	s3,140(sp)
   12f38:	610d                	addi	sp,sp,160
   12f3a:	8082                	ret
   12f3c:	850a                	mv	a0,sp
   12f3e:	00008097          	auipc	ra,0x8
   12f42:	fa8080e7          	jalr	-88(ra) # 1aee6 <_ZN9allow_pin12full_dynamic17unshare_if_shared17he9718eb989dae51aE>
   12f46:	1068                	addi	a0,sp,44
   12f48:	00008097          	auipc	ra,0x8
   12f4c:	f9e080e7          	jalr	-98(ra) # 1aee6 <_ZN9allow_pin12full_dynamic17unshare_if_shared17he9718eb989dae51aE>
   12f50:	1068                	addi	a0,sp,44
   12f52:	00008097          	auipc	ra,0x8
   12f56:	f94080e7          	jalr	-108(ra) # 1aee6 <_ZN9allow_pin12full_dynamic17unshare_if_shared17he9718eb989dae51aE>
   12f5a:	00198513          	addi	a0,s3,1
   12f5e:	05100613          	li	a2,81
   12f62:	85ca                	mv	a1,s2
   12f64:	00008097          	auipc	ra,0x8
   12f68:	00e080e7          	jalr	14(ra) # 1af72 <memcpy>
   12f6c:	4501                	li	a0,0
   12f6e:	b765                	j	12f16 <_ZN20complex_full_dynamic3app17h531378fed9c0d38bE+0x9a>

00012f70 <_ZN20complex_full_dynamic3app17h5414b8c99dfc45f3E>:
   12f70:	7135                	addi	sp,sp,-160
   12f72:	cf06                	sw	ra,156(sp)
   12f74:	cd22                	sw	s0,152(sp)
   12f76:	cb26                	sw	s1,148(sp)
   12f78:	c94a                	sw	s2,144(sp)
   12f7a:	c74e                	sw	s3,140(sp)
   12f7c:	89aa                	mv	s3,a0
   12f7e:	4409                	li	s0,2
   12f80:	00810a23          	sb	s0,20(sp)
   12f84:	0824                	addi	s1,sp,24
   12f86:	03200613          	li	a2,50
   12f8a:	8526                	mv	a0,s1
   12f8c:	00008097          	auipc	ra,0x8
   12f90:	fe6080e7          	jalr	-26(ra) # 1af72 <memcpy>
   12f94:	05810913          	addi	s2,sp,88
   12f98:	03200613          	li	a2,50
   12f9c:	854a                	mv	a0,s2
   12f9e:	4581                	li	a1,0
   12fa0:	00008097          	auipc	ra,0x8
   12fa4:	f66080e7          	jalr	-154(ra) # 1af06 <memset>
   12fa8:	8626                	mv	a2,s1
   12faa:	04810a23          	sb	s0,84(sp)
   12fae:	6509                	lui	a0,0x2
   12fb0:	448d                	li	s1,3
   12fb2:	4811                	li	a6,4
   12fb4:	458d                	li	a1,3
   12fb6:	f0750793          	addi	a5,a0,-249 # 1f07 <.Lline_table_start1+0x1cdc>
   12fba:	03200693          	li	a3,50
   12fbe:	4711                	li	a4,4
   12fc0:	853e                	mv	a0,a5
   12fc2:	00000073          	ecall
   12fc6:	04850363          	beq	a0,s0,1300c <_ZN20complex_full_dynamic3app17h5414b8c99dfc45f3E+0x9c>
   12fca:	853e                	mv	a0,a5
   12fcc:	864a                	mv	a2,s2
   12fce:	c63e                	sw	a5,12(sp)
   12fd0:	c826                	sw	s1,16(sp)
   12fd2:	01010a23          	sb	a6,20(sp)
   12fd6:	4485                	li	s1,1
   12fd8:	4585                	li	a1,1
   12fda:	03200693          	li	a3,50
   12fde:	470d                	li	a4,3
   12fe0:	00000073          	ecall
   12fe4:	02850463          	beq	a0,s0,1300c <_ZN20complex_full_dynamic3app17h5414b8c99dfc45f3E+0x9c>
   12fe8:	450d                	li	a0,3
   12fea:	6689                	lui	a3,0x2
   12fec:	458d                	li	a1,3
   12fee:	4605                	li	a2,1
   12ff0:	c6be                	sw	a5,76(sp)
   12ff2:	c8a6                	sw	s1,80(sp)
   12ff4:	04a10a23          	sb	a0,84(sp)
   12ff8:	f0768513          	addi	a0,a3,-249 # 1f07 <.Lline_table_start1+0x1cdc>
   12ffc:	4709                	li	a4,2
   12ffe:	07f00793          	li	a5,127
   13002:	4681                	li	a3,0
   13004:	00000073          	ecall
   13008:	02a7e863          	bltu	a5,a0,13038 <_ZN20complex_full_dynamic3app17h5414b8c99dfc45f3E+0xc8>
   1300c:	00b9a223          	sw	a1,4(s3)
   13010:	4505                	li	a0,1
   13012:	00a98023          	sb	a0,0(s3)
   13016:	00e8                	addi	a0,sp,76
   13018:	00008097          	auipc	ra,0x8
   1301c:	ece080e7          	jalr	-306(ra) # 1aee6 <_ZN9allow_pin12full_dynamic17unshare_if_shared17he9718eb989dae51aE>
   13020:	0068                	addi	a0,sp,12
   13022:	00008097          	auipc	ra,0x8
   13026:	ec4080e7          	jalr	-316(ra) # 1aee6 <_ZN9allow_pin12full_dynamic17unshare_if_shared17he9718eb989dae51aE>
   1302a:	40fa                	lw	ra,156(sp)
   1302c:	446a                	lw	s0,152(sp)
   1302e:	44da                	lw	s1,148(sp)
   13030:	494a                	lw	s2,144(sp)
   13032:	49ba                	lw	s3,140(sp)
   13034:	610d                	addi	sp,sp,160
   13036:	8082                	ret
   13038:	0068                	addi	a0,sp,12
   1303a:	00008097          	auipc	ra,0x8
   1303e:	eac080e7          	jalr	-340(ra) # 1aee6 <_ZN9allow_pin12full_dynamic17unshare_if_shared17he9718eb989dae51aE>
   13042:	00e8                	addi	a0,sp,76
   13044:	00008097          	auipc	ra,0x8
   13048:	ea2080e7          	jalr	-350(ra) # 1aee6 <_ZN9allow_pin12full_dynamic17unshare_if_shared17he9718eb989dae51aE>
   1304c:	00e8                	addi	a0,sp,76
   1304e:	00008097          	auipc	ra,0x8
   13052:	e98080e7          	jalr	-360(ra) # 1aee6 <_ZN9allow_pin12full_dynamic17unshare_if_shared17he9718eb989dae51aE>
   13056:	00198513          	addi	a0,s3,1
   1305a:	03200613          	li	a2,50
   1305e:	85ca                	mv	a1,s2
   13060:	00008097          	auipc	ra,0x8
   13064:	f12080e7          	jalr	-238(ra) # 1af72 <memcpy>
   13068:	4501                	li	a0,0
   1306a:	b765                	j	13012 <_ZN20complex_full_dynamic3app17h5414b8c99dfc45f3E+0xa2>

0001306c <_ZN20complex_full_dynamic3app17h5503fb8ab48dda16E>:
   1306c:	7119                	addi	sp,sp,-128
   1306e:	de86                	sw	ra,124(sp)
   13070:	dca2                	sw	s0,120(sp)
   13072:	daa6                	sw	s1,116(sp)
   13074:	d8ca                	sw	s2,112(sp)
   13076:	d6ce                	sw	s3,108(sp)
   13078:	89aa                	mv	s3,a0
   1307a:	4409                	li	s0,2
   1307c:	00810a23          	sb	s0,20(sp)
   13080:	0824                	addi	s1,sp,24
   13082:	02300613          	li	a2,35
   13086:	8526                	mv	a0,s1
   13088:	00008097          	auipc	ra,0x8
   1308c:	eea080e7          	jalr	-278(ra) # 1af72 <memcpy>
   13090:	04810913          	addi	s2,sp,72
   13094:	02400613          	li	a2,36
   13098:	854a                	mv	a0,s2
   1309a:	4581                	li	a1,0
   1309c:	00008097          	auipc	ra,0x8
   130a0:	e6a080e7          	jalr	-406(ra) # 1af06 <memset>
   130a4:	8626                	mv	a2,s1
   130a6:	04810223          	sb	s0,68(sp)
   130aa:	6509                	lui	a0,0x2
   130ac:	4491                	li	s1,4
   130ae:	4591                	li	a1,4
   130b0:	bd650793          	addi	a5,a0,-1066 # 1bd6 <.Lline_table_start1+0x19ab>
   130b4:	02300693          	li	a3,35
   130b8:	4711                	li	a4,4
   130ba:	853e                	mv	a0,a5
   130bc:	00000073          	ecall
   130c0:	04850363          	beq	a0,s0,13106 <_ZN20complex_full_dynamic3app17h5503fb8ab48dda16E+0x9a>
   130c4:	853e                	mv	a0,a5
   130c6:	864a                	mv	a2,s2
   130c8:	c63e                	sw	a5,12(sp)
   130ca:	c826                	sw	s1,16(sp)
   130cc:	00910a23          	sb	s1,20(sp)
   130d0:	44a1                	li	s1,8
   130d2:	480d                	li	a6,3
   130d4:	45a1                	li	a1,8
   130d6:	02400693          	li	a3,36
   130da:	470d                	li	a4,3
   130dc:	00000073          	ecall
   130e0:	02850363          	beq	a0,s0,13106 <_ZN20complex_full_dynamic3app17h5503fb8ab48dda16E+0x9a>
   130e4:	de3e                	sw	a5,60(sp)
   130e6:	c0a6                	sw	s1,64(sp)
   130e8:	05010223          	sb	a6,68(sp)
   130ec:	6509                	lui	a0,0x2
   130ee:	4591                	li	a1,4
   130f0:	4621                	li	a2,8
   130f2:	bd650513          	addi	a0,a0,-1066 # 1bd6 <.Lline_table_start1+0x19ab>
   130f6:	4709                	li	a4,2
   130f8:	07f00793          	li	a5,127
   130fc:	4681                	li	a3,0
   130fe:	00000073          	ecall
   13102:	02a7e863          	bltu	a5,a0,13132 <_ZN20complex_full_dynamic3app17h5503fb8ab48dda16E+0xc6>
   13106:	00b9a223          	sw	a1,4(s3)
   1310a:	4505                	li	a0,1
   1310c:	00a98023          	sb	a0,0(s3)
   13110:	1868                	addi	a0,sp,60
   13112:	00008097          	auipc	ra,0x8
   13116:	dd4080e7          	jalr	-556(ra) # 1aee6 <_ZN9allow_pin12full_dynamic17unshare_if_shared17he9718eb989dae51aE>
   1311a:	0068                	addi	a0,sp,12
   1311c:	00008097          	auipc	ra,0x8
   13120:	dca080e7          	jalr	-566(ra) # 1aee6 <_ZN9allow_pin12full_dynamic17unshare_if_shared17he9718eb989dae51aE>
   13124:	50f6                	lw	ra,124(sp)
   13126:	5466                	lw	s0,120(sp)
   13128:	54d6                	lw	s1,116(sp)
   1312a:	5946                	lw	s2,112(sp)
   1312c:	59b6                	lw	s3,108(sp)
   1312e:	6109                	addi	sp,sp,128
   13130:	8082                	ret
   13132:	0068                	addi	a0,sp,12
   13134:	00008097          	auipc	ra,0x8
   13138:	db2080e7          	jalr	-590(ra) # 1aee6 <_ZN9allow_pin12full_dynamic17unshare_if_shared17he9718eb989dae51aE>
   1313c:	1868                	addi	a0,sp,60
   1313e:	00008097          	auipc	ra,0x8
   13142:	da8080e7          	jalr	-600(ra) # 1aee6 <_ZN9allow_pin12full_dynamic17unshare_if_shared17he9718eb989dae51aE>
   13146:	1868                	addi	a0,sp,60
   13148:	00008097          	auipc	ra,0x8
   1314c:	d9e080e7          	jalr	-610(ra) # 1aee6 <_ZN9allow_pin12full_dynamic17unshare_if_shared17he9718eb989dae51aE>
   13150:	00198513          	addi	a0,s3,1
   13154:	02400613          	li	a2,36
   13158:	85ca                	mv	a1,s2
   1315a:	00008097          	auipc	ra,0x8
   1315e:	e18080e7          	jalr	-488(ra) # 1af72 <memcpy>
   13162:	4501                	li	a0,0
   13164:	b765                	j	1310c <_ZN20complex_full_dynamic3app17h5503fb8ab48dda16E+0xa0>

00013166 <_ZN20complex_full_dynamic3app17h5f31d2a6d315f7c1E>:
   13166:	7135                	addi	sp,sp,-160
   13168:	cf06                	sw	ra,156(sp)
   1316a:	cd22                	sw	s0,152(sp)
   1316c:	cb26                	sw	s1,148(sp)
   1316e:	c94a                	sw	s2,144(sp)
   13170:	c74e                	sw	s3,140(sp)
   13172:	89aa                	mv	s3,a0
   13174:	4409                	li	s0,2
   13176:	00810423          	sb	s0,8(sp)
   1317a:	0064                	addi	s1,sp,12
   1317c:	03c00613          	li	a2,60
   13180:	8526                	mv	a0,s1
   13182:	00008097          	auipc	ra,0x8
   13186:	df0080e7          	jalr	-528(ra) # 1af72 <memcpy>
   1318a:	05410913          	addi	s2,sp,84
   1318e:	03800613          	li	a2,56
   13192:	854a                	mv	a0,s2
   13194:	4581                	li	a1,0
   13196:	00008097          	auipc	ra,0x8
   1319a:	d70080e7          	jalr	-656(ra) # 1af06 <memset>
   1319e:	8626                	mv	a2,s1
   131a0:	04810823          	sb	s0,80(sp)
   131a4:	6509                	lui	a0,0x2
   131a6:	448d                	li	s1,3
   131a8:	4811                	li	a6,4
   131aa:	458d                	li	a1,3
   131ac:	d1950793          	addi	a5,a0,-743 # 1d19 <.Lline_table_start1+0x1aee>
   131b0:	03c00693          	li	a3,60
   131b4:	4711                	li	a4,4
   131b6:	853e                	mv	a0,a5
   131b8:	00000073          	ecall
   131bc:	04850263          	beq	a0,s0,13200 <_ZN20complex_full_dynamic3app17h5f31d2a6d315f7c1E+0x9a>
   131c0:	c03e                	sw	a5,0(sp)
   131c2:	c226                	sw	s1,4(sp)
   131c4:	01010423          	sb	a6,8(sp)
   131c8:	458d                	li	a1,3
   131ca:	03800693          	li	a3,56
   131ce:	470d                	li	a4,3
   131d0:	853e                	mv	a0,a5
   131d2:	864a                	mv	a2,s2
   131d4:	00000073          	ecall
   131d8:	02850463          	beq	a0,s0,13200 <_ZN20complex_full_dynamic3app17h5f31d2a6d315f7c1E+0x9a>
   131dc:	450d                	li	a0,3
   131de:	6689                	lui	a3,0x2
   131e0:	458d                	li	a1,3
   131e2:	460d                	li	a2,3
   131e4:	c4be                	sw	a5,72(sp)
   131e6:	c6aa                	sw	a0,76(sp)
   131e8:	04a10823          	sb	a0,80(sp)
   131ec:	d1968513          	addi	a0,a3,-743 # 1d19 <.Lline_table_start1+0x1aee>
   131f0:	4709                	li	a4,2
   131f2:	07f00793          	li	a5,127
   131f6:	4681                	li	a3,0
   131f8:	00000073          	ecall
   131fc:	02a7e863          	bltu	a5,a0,1322c <_ZN20complex_full_dynamic3app17h5f31d2a6d315f7c1E+0xc6>
   13200:	00b9a223          	sw	a1,4(s3)
   13204:	4505                	li	a0,1
   13206:	00a98023          	sb	a0,0(s3)
   1320a:	00a8                	addi	a0,sp,72
   1320c:	00008097          	auipc	ra,0x8
   13210:	cda080e7          	jalr	-806(ra) # 1aee6 <_ZN9allow_pin12full_dynamic17unshare_if_shared17he9718eb989dae51aE>
   13214:	850a                	mv	a0,sp
   13216:	00008097          	auipc	ra,0x8
   1321a:	cd0080e7          	jalr	-816(ra) # 1aee6 <_ZN9allow_pin12full_dynamic17unshare_if_shared17he9718eb989dae51aE>
   1321e:	40fa                	lw	ra,156(sp)
   13220:	446a                	lw	s0,152(sp)
   13222:	44da                	lw	s1,148(sp)
   13224:	494a                	lw	s2,144(sp)
   13226:	49ba                	lw	s3,140(sp)
   13228:	610d                	addi	sp,sp,160
   1322a:	8082                	ret
   1322c:	850a                	mv	a0,sp
   1322e:	00008097          	auipc	ra,0x8
   13232:	cb8080e7          	jalr	-840(ra) # 1aee6 <_ZN9allow_pin12full_dynamic17unshare_if_shared17he9718eb989dae51aE>
   13236:	00a8                	addi	a0,sp,72
   13238:	00008097          	auipc	ra,0x8
   1323c:	cae080e7          	jalr	-850(ra) # 1aee6 <_ZN9allow_pin12full_dynamic17unshare_if_shared17he9718eb989dae51aE>
   13240:	00a8                	addi	a0,sp,72
   13242:	00008097          	auipc	ra,0x8
   13246:	ca4080e7          	jalr	-860(ra) # 1aee6 <_ZN9allow_pin12full_dynamic17unshare_if_shared17he9718eb989dae51aE>
   1324a:	00198513          	addi	a0,s3,1
   1324e:	03800613          	li	a2,56
   13252:	85ca                	mv	a1,s2
   13254:	00008097          	auipc	ra,0x8
   13258:	d1e080e7          	jalr	-738(ra) # 1af72 <memcpy>
   1325c:	4501                	li	a0,0
   1325e:	b765                	j	13206 <_ZN20complex_full_dynamic3app17h5f31d2a6d315f7c1E+0xa0>

00013260 <_ZN20complex_full_dynamic3app17h6d5c64828302f989E>:
   13260:	7171                	addi	sp,sp,-176
   13262:	d706                	sw	ra,172(sp)
   13264:	d522                	sw	s0,168(sp)
   13266:	d326                	sw	s1,164(sp)
   13268:	d14a                	sw	s2,160(sp)
   1326a:	cf4e                	sw	s3,156(sp)
   1326c:	89aa                	mv	s3,a0
   1326e:	4409                	li	s0,2
   13270:	00810423          	sb	s0,8(sp)
   13274:	0064                	addi	s1,sp,12
   13276:	02d00613          	li	a2,45
   1327a:	8526                	mv	a0,s1
   1327c:	00008097          	auipc	ra,0x8
   13280:	cf6080e7          	jalr	-778(ra) # 1af72 <memcpy>
   13284:	04810913          	addi	s2,sp,72
   13288:	05300613          	li	a2,83
   1328c:	854a                	mv	a0,s2
   1328e:	4581                	li	a1,0
   13290:	00008097          	auipc	ra,0x8
   13294:	c76080e7          	jalr	-906(ra) # 1af06 <memset>
   13298:	8626                	mv	a2,s1
   1329a:	04810223          	sb	s0,68(sp)
   1329e:	6505                	lui	a0,0x1
   132a0:	4491                	li	s1,4
   132a2:	4589                	li	a1,2
   132a4:	ec350793          	addi	a5,a0,-317 # ec3 <.Lline_table_start1+0xc98>
   132a8:	02d00693          	li	a3,45
   132ac:	4711                	li	a4,4
   132ae:	853e                	mv	a0,a5
   132b0:	00000073          	ecall
   132b4:	04850363          	beq	a0,s0,132fa <_ZN20complex_full_dynamic3app17h6d5c64828302f989E+0x9a>
   132b8:	853e                	mv	a0,a5
   132ba:	864a                	mv	a2,s2
   132bc:	c03e                	sw	a5,0(sp)
   132be:	c222                	sw	s0,4(sp)
   132c0:	00910423          	sb	s1,8(sp)
   132c4:	449d                	li	s1,7
   132c6:	480d                	li	a6,3
   132c8:	459d                	li	a1,7
   132ca:	05300693          	li	a3,83
   132ce:	470d                	li	a4,3
   132d0:	00000073          	ecall
   132d4:	02850363          	beq	a0,s0,132fa <_ZN20complex_full_dynamic3app17h6d5c64828302f989E+0x9a>
   132d8:	de3e                	sw	a5,60(sp)
   132da:	c0a6                	sw	s1,64(sp)
   132dc:	05010223          	sb	a6,68(sp)
   132e0:	6505                	lui	a0,0x1
   132e2:	4589                	li	a1,2
   132e4:	461d                	li	a2,7
   132e6:	ec350513          	addi	a0,a0,-317 # ec3 <.Lline_table_start1+0xc98>
   132ea:	4709                	li	a4,2
   132ec:	07f00793          	li	a5,127
   132f0:	4681                	li	a3,0
   132f2:	00000073          	ecall
   132f6:	02a7e863          	bltu	a5,a0,13326 <_ZN20complex_full_dynamic3app17h6d5c64828302f989E+0xc6>
   132fa:	00b9a223          	sw	a1,4(s3)
   132fe:	4505                	li	a0,1
   13300:	00a98023          	sb	a0,0(s3)
   13304:	1868                	addi	a0,sp,60
   13306:	00008097          	auipc	ra,0x8
   1330a:	be0080e7          	jalr	-1056(ra) # 1aee6 <_ZN9allow_pin12full_dynamic17unshare_if_shared17he9718eb989dae51aE>
   1330e:	850a                	mv	a0,sp
   13310:	00008097          	auipc	ra,0x8
   13314:	bd6080e7          	jalr	-1066(ra) # 1aee6 <_ZN9allow_pin12full_dynamic17unshare_if_shared17he9718eb989dae51aE>
   13318:	50ba                	lw	ra,172(sp)
   1331a:	542a                	lw	s0,168(sp)
   1331c:	549a                	lw	s1,164(sp)
   1331e:	590a                	lw	s2,160(sp)
   13320:	49fa                	lw	s3,156(sp)
   13322:	614d                	addi	sp,sp,176
   13324:	8082                	ret
   13326:	850a                	mv	a0,sp
   13328:	00008097          	auipc	ra,0x8
   1332c:	bbe080e7          	jalr	-1090(ra) # 1aee6 <_ZN9allow_pin12full_dynamic17unshare_if_shared17he9718eb989dae51aE>
   13330:	1868                	addi	a0,sp,60
   13332:	00008097          	auipc	ra,0x8
   13336:	bb4080e7          	jalr	-1100(ra) # 1aee6 <_ZN9allow_pin12full_dynamic17unshare_if_shared17he9718eb989dae51aE>
   1333a:	1868                	addi	a0,sp,60
   1333c:	00008097          	auipc	ra,0x8
   13340:	baa080e7          	jalr	-1110(ra) # 1aee6 <_ZN9allow_pin12full_dynamic17unshare_if_shared17he9718eb989dae51aE>
   13344:	00198513          	addi	a0,s3,1
   13348:	05300613          	li	a2,83
   1334c:	85ca                	mv	a1,s2
   1334e:	00008097          	auipc	ra,0x8
   13352:	c24080e7          	jalr	-988(ra) # 1af72 <memcpy>
   13356:	4501                	li	a0,0
   13358:	b765                	j	13300 <_ZN20complex_full_dynamic3app17h6d5c64828302f989E+0xa0>

0001335a <_ZN20complex_full_dynamic3app17h6f493d0b4548bb99E>:
   1335a:	7119                	addi	sp,sp,-128
   1335c:	de86                	sw	ra,124(sp)
   1335e:	dca2                	sw	s0,120(sp)
   13360:	daa6                	sw	s1,116(sp)
   13362:	d8ca                	sw	s2,112(sp)
   13364:	d6ce                	sw	s3,108(sp)
   13366:	89aa                	mv	s3,a0
   13368:	4409                	li	s0,2
   1336a:	00810623          	sb	s0,12(sp)
   1336e:	0804                	addi	s1,sp,16
   13370:	4661                	li	a2,24
   13372:	8526                	mv	a0,s1
   13374:	00008097          	auipc	ra,0x8
   13378:	bfe080e7          	jalr	-1026(ra) # 1af72 <memcpy>
   1337c:	03410913          	addi	s2,sp,52
   13380:	03600613          	li	a2,54
   13384:	854a                	mv	a0,s2
   13386:	4581                	li	a1,0
   13388:	00008097          	auipc	ra,0x8
   1338c:	b7e080e7          	jalr	-1154(ra) # 1af06 <memset>
   13390:	8626                	mv	a2,s1
   13392:	02810823          	sb	s0,48(sp)
   13396:	0f300793          	li	a5,243
   1339a:	44a1                	li	s1,8
   1339c:	4811                	li	a6,4
   1339e:	0f300513          	li	a0,243
   133a2:	45a1                	li	a1,8
   133a4:	46e1                	li	a3,24
   133a6:	4711                	li	a4,4
   133a8:	00000073          	ecall
   133ac:	04850563          	beq	a0,s0,133f6 <_ZN20complex_full_dynamic3app17h6f493d0b4548bb99E+0x9c>
   133b0:	864a                	mv	a2,s2
   133b2:	c23e                	sw	a5,4(sp)
   133b4:	c426                	sw	s1,8(sp)
   133b6:	01010623          	sb	a6,12(sp)
   133ba:	478d                	li	a5,3
   133bc:	0f300513          	li	a0,243
   133c0:	4591                	li	a1,4
   133c2:	03600693          	li	a3,54
   133c6:	470d                	li	a4,3
   133c8:	00000073          	ecall
   133cc:	02850563          	beq	a0,s0,133f6 <_ZN20complex_full_dynamic3app17h6f493d0b4548bb99E+0x9c>
   133d0:	0f300693          	li	a3,243
   133d4:	4491                	li	s1,4
   133d6:	0f300513          	li	a0,243
   133da:	45a1                	li	a1,8
   133dc:	4611                	li	a2,4
   133de:	4709                	li	a4,2
   133e0:	07f00413          	li	s0,127
   133e4:	d436                	sw	a3,40(sp)
   133e6:	d626                	sw	s1,44(sp)
   133e8:	02f10823          	sb	a5,48(sp)
   133ec:	4681                	li	a3,0
   133ee:	00000073          	ecall
   133f2:	02a46863          	bltu	s0,a0,13422 <_ZN20complex_full_dynamic3app17h6f493d0b4548bb99E+0xc8>
   133f6:	00b9a223          	sw	a1,4(s3)
   133fa:	4505                	li	a0,1
   133fc:	00a98023          	sb	a0,0(s3)
   13400:	1028                	addi	a0,sp,40
   13402:	00008097          	auipc	ra,0x8
   13406:	ae4080e7          	jalr	-1308(ra) # 1aee6 <_ZN9allow_pin12full_dynamic17unshare_if_shared17he9718eb989dae51aE>
   1340a:	0048                	addi	a0,sp,4
   1340c:	00008097          	auipc	ra,0x8
   13410:	ada080e7          	jalr	-1318(ra) # 1aee6 <_ZN9allow_pin12full_dynamic17unshare_if_shared17he9718eb989dae51aE>
   13414:	50f6                	lw	ra,124(sp)
   13416:	5466                	lw	s0,120(sp)
   13418:	54d6                	lw	s1,116(sp)
   1341a:	5946                	lw	s2,112(sp)
   1341c:	59b6                	lw	s3,108(sp)
   1341e:	6109                	addi	sp,sp,128
   13420:	8082                	ret
   13422:	0048                	addi	a0,sp,4
   13424:	00008097          	auipc	ra,0x8
   13428:	ac2080e7          	jalr	-1342(ra) # 1aee6 <_ZN9allow_pin12full_dynamic17unshare_if_shared17he9718eb989dae51aE>
   1342c:	1028                	addi	a0,sp,40
   1342e:	00008097          	auipc	ra,0x8
   13432:	ab8080e7          	jalr	-1352(ra) # 1aee6 <_ZN9allow_pin12full_dynamic17unshare_if_shared17he9718eb989dae51aE>
   13436:	1028                	addi	a0,sp,40
   13438:	00008097          	auipc	ra,0x8
   1343c:	aae080e7          	jalr	-1362(ra) # 1aee6 <_ZN9allow_pin12full_dynamic17unshare_if_shared17he9718eb989dae51aE>
   13440:	00198513          	addi	a0,s3,1
   13444:	03600613          	li	a2,54
   13448:	85ca                	mv	a1,s2
   1344a:	00008097          	auipc	ra,0x8
   1344e:	b28080e7          	jalr	-1240(ra) # 1af72 <memcpy>
   13452:	4501                	li	a0,0
   13454:	b765                	j	133fc <_ZN20complex_full_dynamic3app17h6f493d0b4548bb99E+0xa2>

00013456 <_ZN20complex_full_dynamic3app17h71ff20f8e8cf87ddE>:
   13456:	7131                	addi	sp,sp,-192
   13458:	df06                	sw	ra,188(sp)
   1345a:	dd22                	sw	s0,184(sp)
   1345c:	db26                	sw	s1,180(sp)
   1345e:	d94a                	sw	s2,176(sp)
   13460:	d74e                	sw	s3,172(sp)
   13462:	89aa                	mv	s3,a0
   13464:	4409                	li	s0,2
   13466:	00810823          	sb	s0,16(sp)
   1346a:	0844                	addi	s1,sp,20
   1346c:	05500613          	li	a2,85
   13470:	8526                	mv	a0,s1
   13472:	00008097          	auipc	ra,0x8
   13476:	b00080e7          	jalr	-1280(ra) # 1af72 <memcpy>
   1347a:	07810913          	addi	s2,sp,120
   1347e:	03200613          	li	a2,50
   13482:	854a                	mv	a0,s2
   13484:	4581                	li	a1,0
   13486:	00008097          	auipc	ra,0x8
   1348a:	a80080e7          	jalr	-1408(ra) # 1af06 <memset>
   1348e:	8626                	mv	a2,s1
   13490:	06810a23          	sb	s0,116(sp)
   13494:	6509                	lui	a0,0x2
   13496:	44a1                	li	s1,8
   13498:	4811                	li	a6,4
   1349a:	45a1                	li	a1,8
   1349c:	09550793          	addi	a5,a0,149 # 2095 <.Lline_table_start1+0x1e6a>
   134a0:	05500693          	li	a3,85
   134a4:	4711                	li	a4,4
   134a6:	853e                	mv	a0,a5
   134a8:	00000073          	ecall
   134ac:	04850363          	beq	a0,s0,134f2 <_ZN20complex_full_dynamic3app17h71ff20f8e8cf87ddE+0x9c>
   134b0:	853e                	mv	a0,a5
   134b2:	864a                	mv	a2,s2
   134b4:	c43e                	sw	a5,8(sp)
   134b6:	c626                	sw	s1,12(sp)
   134b8:	01010823          	sb	a6,16(sp)
   134bc:	448d                	li	s1,3
   134be:	45a1                	li	a1,8
   134c0:	03200693          	li	a3,50
   134c4:	470d                	li	a4,3
   134c6:	00000073          	ecall
   134ca:	02850463          	beq	a0,s0,134f2 <_ZN20complex_full_dynamic3app17h71ff20f8e8cf87ddE+0x9c>
   134ce:	4521                	li	a0,8
   134d0:	6689                	lui	a3,0x2
   134d2:	45a1                	li	a1,8
   134d4:	4621                	li	a2,8
   134d6:	d6be                	sw	a5,108(sp)
   134d8:	d8aa                	sw	a0,112(sp)
   134da:	06910a23          	sb	s1,116(sp)
   134de:	09568513          	addi	a0,a3,149 # 2095 <.Lline_table_start1+0x1e6a>
   134e2:	4709                	li	a4,2
   134e4:	07f00793          	li	a5,127
   134e8:	4681                	li	a3,0
   134ea:	00000073          	ecall
   134ee:	02a7e863          	bltu	a5,a0,1351e <_ZN20complex_full_dynamic3app17h71ff20f8e8cf87ddE+0xc8>
   134f2:	00b9a223          	sw	a1,4(s3)
   134f6:	4505                	li	a0,1
   134f8:	00a98023          	sb	a0,0(s3)
   134fc:	10e8                	addi	a0,sp,108
   134fe:	00008097          	auipc	ra,0x8
   13502:	9e8080e7          	jalr	-1560(ra) # 1aee6 <_ZN9allow_pin12full_dynamic17unshare_if_shared17he9718eb989dae51aE>
   13506:	0028                	addi	a0,sp,8
   13508:	00008097          	auipc	ra,0x8
   1350c:	9de080e7          	jalr	-1570(ra) # 1aee6 <_ZN9allow_pin12full_dynamic17unshare_if_shared17he9718eb989dae51aE>
   13510:	50fa                	lw	ra,188(sp)
   13512:	546a                	lw	s0,184(sp)
   13514:	54da                	lw	s1,180(sp)
   13516:	594a                	lw	s2,176(sp)
   13518:	59ba                	lw	s3,172(sp)
   1351a:	6129                	addi	sp,sp,192
   1351c:	8082                	ret
   1351e:	0028                	addi	a0,sp,8
   13520:	00008097          	auipc	ra,0x8
   13524:	9c6080e7          	jalr	-1594(ra) # 1aee6 <_ZN9allow_pin12full_dynamic17unshare_if_shared17he9718eb989dae51aE>
   13528:	10e8                	addi	a0,sp,108
   1352a:	00008097          	auipc	ra,0x8
   1352e:	9bc080e7          	jalr	-1604(ra) # 1aee6 <_ZN9allow_pin12full_dynamic17unshare_if_shared17he9718eb989dae51aE>
   13532:	10e8                	addi	a0,sp,108
   13534:	00008097          	auipc	ra,0x8
   13538:	9b2080e7          	jalr	-1614(ra) # 1aee6 <_ZN9allow_pin12full_dynamic17unshare_if_shared17he9718eb989dae51aE>
   1353c:	00198513          	addi	a0,s3,1
   13540:	03200613          	li	a2,50
   13544:	85ca                	mv	a1,s2
   13546:	00008097          	auipc	ra,0x8
   1354a:	a2c080e7          	jalr	-1492(ra) # 1af72 <memcpy>
   1354e:	4501                	li	a0,0
   13550:	b765                	j	134f8 <_ZN20complex_full_dynamic3app17h71ff20f8e8cf87ddE+0xa2>

00013552 <_ZN20complex_full_dynamic3app17h74fbf6619f814bf0E>:
   13552:	7135                	addi	sp,sp,-160
   13554:	cf06                	sw	ra,156(sp)
   13556:	cd22                	sw	s0,152(sp)
   13558:	cb26                	sw	s1,148(sp)
   1355a:	c94a                	sw	s2,144(sp)
   1355c:	c74e                	sw	s3,140(sp)
   1355e:	89aa                	mv	s3,a0
   13560:	4409                	li	s0,2
   13562:	00810a23          	sb	s0,20(sp)
   13566:	0824                	addi	s1,sp,24
   13568:	03c00613          	li	a2,60
   1356c:	8526                	mv	a0,s1
   1356e:	00008097          	auipc	ra,0x8
   13572:	a04080e7          	jalr	-1532(ra) # 1af72 <memcpy>
   13576:	06010913          	addi	s2,sp,96
   1357a:	02c00613          	li	a2,44
   1357e:	854a                	mv	a0,s2
   13580:	4581                	li	a1,0
   13582:	00008097          	auipc	ra,0x8
   13586:	984080e7          	jalr	-1660(ra) # 1af06 <memset>
   1358a:	8626                	mv	a2,s1
   1358c:	04810e23          	sb	s0,92(sp)
   13590:	6509                	lui	a0,0x2
   13592:	4495                	li	s1,5
   13594:	4811                	li	a6,4
   13596:	4595                	li	a1,5
   13598:	eac50793          	addi	a5,a0,-340 # 1eac <.Lline_table_start1+0x1c81>
   1359c:	03c00693          	li	a3,60
   135a0:	4711                	li	a4,4
   135a2:	853e                	mv	a0,a5
   135a4:	00000073          	ecall
   135a8:	04850363          	beq	a0,s0,135ee <_ZN20complex_full_dynamic3app17h74fbf6619f814bf0E+0x9c>
   135ac:	853e                	mv	a0,a5
   135ae:	864a                	mv	a2,s2
   135b0:	c63e                	sw	a5,12(sp)
   135b2:	c826                	sw	s1,16(sp)
   135b4:	01010a23          	sb	a6,20(sp)
   135b8:	449d                	li	s1,7
   135ba:	480d                	li	a6,3
   135bc:	459d                	li	a1,7
   135be:	02c00693          	li	a3,44
   135c2:	470d                	li	a4,3
   135c4:	00000073          	ecall
   135c8:	02850363          	beq	a0,s0,135ee <_ZN20complex_full_dynamic3app17h74fbf6619f814bf0E+0x9c>
   135cc:	cabe                	sw	a5,84(sp)
   135ce:	cca6                	sw	s1,88(sp)
   135d0:	05010e23          	sb	a6,92(sp)
   135d4:	6509                	lui	a0,0x2
   135d6:	4595                	li	a1,5
   135d8:	461d                	li	a2,7
   135da:	eac50513          	addi	a0,a0,-340 # 1eac <.Lline_table_start1+0x1c81>
   135de:	4709                	li	a4,2
   135e0:	07f00793          	li	a5,127
   135e4:	4681                	li	a3,0
   135e6:	00000073          	ecall
   135ea:	02a7e863          	bltu	a5,a0,1361a <_ZN20complex_full_dynamic3app17h74fbf6619f814bf0E+0xc8>
   135ee:	00b9a223          	sw	a1,4(s3)
   135f2:	4505                	li	a0,1
   135f4:	00a98023          	sb	a0,0(s3)
   135f8:	08c8                	addi	a0,sp,84
   135fa:	00008097          	auipc	ra,0x8
   135fe:	8ec080e7          	jalr	-1812(ra) # 1aee6 <_ZN9allow_pin12full_dynamic17unshare_if_shared17he9718eb989dae51aE>
   13602:	0068                	addi	a0,sp,12
   13604:	00008097          	auipc	ra,0x8
   13608:	8e2080e7          	jalr	-1822(ra) # 1aee6 <_ZN9allow_pin12full_dynamic17unshare_if_shared17he9718eb989dae51aE>
   1360c:	40fa                	lw	ra,156(sp)
   1360e:	446a                	lw	s0,152(sp)
   13610:	44da                	lw	s1,148(sp)
   13612:	494a                	lw	s2,144(sp)
   13614:	49ba                	lw	s3,140(sp)
   13616:	610d                	addi	sp,sp,160
   13618:	8082                	ret
   1361a:	0068                	addi	a0,sp,12
   1361c:	00008097          	auipc	ra,0x8
   13620:	8ca080e7          	jalr	-1846(ra) # 1aee6 <_ZN9allow_pin12full_dynamic17unshare_if_shared17he9718eb989dae51aE>
   13624:	08c8                	addi	a0,sp,84
   13626:	00008097          	auipc	ra,0x8
   1362a:	8c0080e7          	jalr	-1856(ra) # 1aee6 <_ZN9allow_pin12full_dynamic17unshare_if_shared17he9718eb989dae51aE>
   1362e:	08c8                	addi	a0,sp,84
   13630:	00008097          	auipc	ra,0x8
   13634:	8b6080e7          	jalr	-1866(ra) # 1aee6 <_ZN9allow_pin12full_dynamic17unshare_if_shared17he9718eb989dae51aE>
   13638:	00198513          	addi	a0,s3,1
   1363c:	02c00613          	li	a2,44
   13640:	85ca                	mv	a1,s2
   13642:	00008097          	auipc	ra,0x8
   13646:	930080e7          	jalr	-1744(ra) # 1af72 <memcpy>
   1364a:	4501                	li	a0,0
   1364c:	b765                	j	135f4 <_ZN20complex_full_dynamic3app17h74fbf6619f814bf0E+0xa2>

0001364e <_ZN20complex_full_dynamic3app17h7a4d3f9b8e0cace8E>:
   1364e:	7159                	addi	sp,sp,-112
   13650:	d686                	sw	ra,108(sp)
   13652:	d4a2                	sw	s0,104(sp)
   13654:	d2a6                	sw	s1,100(sp)
   13656:	d0ca                	sw	s2,96(sp)
   13658:	cece                	sw	s3,92(sp)
   1365a:	89aa                	mv	s3,a0
   1365c:	4409                	li	s0,2
   1365e:	00810423          	sb	s0,8(sp)
   13662:	0064                	addi	s1,sp,12
   13664:	4679                	li	a2,30
   13666:	8526                	mv	a0,s1
   13668:	00008097          	auipc	ra,0x8
   1366c:	90a080e7          	jalr	-1782(ra) # 1af72 <memcpy>
   13670:	03810913          	addi	s2,sp,56
   13674:	02100613          	li	a2,33
   13678:	854a                	mv	a0,s2
   1367a:	4581                	li	a1,0
   1367c:	00008097          	auipc	ra,0x8
   13680:	88a080e7          	jalr	-1910(ra) # 1af06 <memset>
   13684:	8626                	mv	a2,s1
   13686:	02810a23          	sb	s0,52(sp)
   1368a:	6509                	lui	a0,0x2
   1368c:	4499                	li	s1,6
   1368e:	4811                	li	a6,4
   13690:	4599                	li	a1,6
   13692:	9b550793          	addi	a5,a0,-1611 # 19b5 <.Lline_table_start1+0x178a>
   13696:	46f9                	li	a3,30
   13698:	4711                	li	a4,4
   1369a:	853e                	mv	a0,a5
   1369c:	00000073          	ecall
   136a0:	04850363          	beq	a0,s0,136e6 <_ZN20complex_full_dynamic3app17h7a4d3f9b8e0cace8E+0x98>
   136a4:	853e                	mv	a0,a5
   136a6:	864a                	mv	a2,s2
   136a8:	c03e                	sw	a5,0(sp)
   136aa:	c226                	sw	s1,4(sp)
   136ac:	01010423          	sb	a6,8(sp)
   136b0:	44a5                	li	s1,9
   136b2:	480d                	li	a6,3
   136b4:	45a5                	li	a1,9
   136b6:	02100693          	li	a3,33
   136ba:	470d                	li	a4,3
   136bc:	00000073          	ecall
   136c0:	02850363          	beq	a0,s0,136e6 <_ZN20complex_full_dynamic3app17h7a4d3f9b8e0cace8E+0x98>
   136c4:	d63e                	sw	a5,44(sp)
   136c6:	d826                	sw	s1,48(sp)
   136c8:	03010a23          	sb	a6,52(sp)
   136cc:	6509                	lui	a0,0x2
   136ce:	4599                	li	a1,6
   136d0:	4625                	li	a2,9
   136d2:	9b550513          	addi	a0,a0,-1611 # 19b5 <.Lline_table_start1+0x178a>
   136d6:	4709                	li	a4,2
   136d8:	07f00793          	li	a5,127
   136dc:	4681                	li	a3,0
   136de:	00000073          	ecall
   136e2:	02a7e863          	bltu	a5,a0,13712 <_ZN20complex_full_dynamic3app17h7a4d3f9b8e0cace8E+0xc4>
   136e6:	00b9a223          	sw	a1,4(s3)
   136ea:	4505                	li	a0,1
   136ec:	00a98023          	sb	a0,0(s3)
   136f0:	1068                	addi	a0,sp,44
   136f2:	00007097          	auipc	ra,0x7
   136f6:	7f4080e7          	jalr	2036(ra) # 1aee6 <_ZN9allow_pin12full_dynamic17unshare_if_shared17he9718eb989dae51aE>
   136fa:	850a                	mv	a0,sp
   136fc:	00007097          	auipc	ra,0x7
   13700:	7ea080e7          	jalr	2026(ra) # 1aee6 <_ZN9allow_pin12full_dynamic17unshare_if_shared17he9718eb989dae51aE>
   13704:	50b6                	lw	ra,108(sp)
   13706:	5426                	lw	s0,104(sp)
   13708:	5496                	lw	s1,100(sp)
   1370a:	5906                	lw	s2,96(sp)
   1370c:	49f6                	lw	s3,92(sp)
   1370e:	6165                	addi	sp,sp,112
   13710:	8082                	ret
   13712:	850a                	mv	a0,sp
   13714:	00007097          	auipc	ra,0x7
   13718:	7d2080e7          	jalr	2002(ra) # 1aee6 <_ZN9allow_pin12full_dynamic17unshare_if_shared17he9718eb989dae51aE>
   1371c:	1068                	addi	a0,sp,44
   1371e:	00007097          	auipc	ra,0x7
   13722:	7c8080e7          	jalr	1992(ra) # 1aee6 <_ZN9allow_pin12full_dynamic17unshare_if_shared17he9718eb989dae51aE>
   13726:	1068                	addi	a0,sp,44
   13728:	00007097          	auipc	ra,0x7
   1372c:	7be080e7          	jalr	1982(ra) # 1aee6 <_ZN9allow_pin12full_dynamic17unshare_if_shared17he9718eb989dae51aE>
   13730:	00198513          	addi	a0,s3,1
   13734:	02100613          	li	a2,33
   13738:	85ca                	mv	a1,s2
   1373a:	00008097          	auipc	ra,0x8
   1373e:	838080e7          	jalr	-1992(ra) # 1af72 <memcpy>
   13742:	4501                	li	a0,0
   13744:	b765                	j	136ec <_ZN20complex_full_dynamic3app17h7a4d3f9b8e0cace8E+0x9e>

00013746 <_ZN20complex_full_dynamic3app17h86314807766589d4E>:
   13746:	7171                	addi	sp,sp,-176
   13748:	d706                	sw	ra,172(sp)
   1374a:	d522                	sw	s0,168(sp)
   1374c:	d326                	sw	s1,164(sp)
   1374e:	d14a                	sw	s2,160(sp)
   13750:	cf4e                	sw	s3,156(sp)
   13752:	89aa                	mv	s3,a0
   13754:	4409                	li	s0,2
   13756:	00810a23          	sb	s0,20(sp)
   1375a:	0824                	addi	s1,sp,24
   1375c:	03200613          	li	a2,50
   13760:	8526                	mv	a0,s1
   13762:	00008097          	auipc	ra,0x8
   13766:	810080e7          	jalr	-2032(ra) # 1af72 <memcpy>
   1376a:	05810913          	addi	s2,sp,88
   1376e:	04100613          	li	a2,65
   13772:	854a                	mv	a0,s2
   13774:	4581                	li	a1,0
   13776:	00007097          	auipc	ra,0x7
   1377a:	790080e7          	jalr	1936(ra) # 1af06 <memset>
   1377e:	8626                	mv	a2,s1
   13780:	04810a23          	sb	s0,84(sp)
   13784:	6505                	lui	a0,0x1
   13786:	449d                	li	s1,7
   13788:	4811                	li	a6,4
   1378a:	459d                	li	a1,7
   1378c:	91d50793          	addi	a5,a0,-1763 # 91d <.Lline_table_start1+0x6f2>
   13790:	03200693          	li	a3,50
   13794:	4711                	li	a4,4
   13796:	853e                	mv	a0,a5
   13798:	00000073          	ecall
   1379c:	04850363          	beq	a0,s0,137e2 <_ZN20complex_full_dynamic3app17h86314807766589d4E+0x9c>
   137a0:	853e                	mv	a0,a5
   137a2:	864a                	mv	a2,s2
   137a4:	c63e                	sw	a5,12(sp)
   137a6:	c826                	sw	s1,16(sp)
   137a8:	01010a23          	sb	a6,20(sp)
   137ac:	4495                	li	s1,5
   137ae:	480d                	li	a6,3
   137b0:	4595                	li	a1,5
   137b2:	04100693          	li	a3,65
   137b6:	470d                	li	a4,3
   137b8:	00000073          	ecall
   137bc:	02850363          	beq	a0,s0,137e2 <_ZN20complex_full_dynamic3app17h86314807766589d4E+0x9c>
   137c0:	c6be                	sw	a5,76(sp)
   137c2:	c8a6                	sw	s1,80(sp)
   137c4:	05010a23          	sb	a6,84(sp)
   137c8:	6505                	lui	a0,0x1
   137ca:	459d                	li	a1,7
   137cc:	4615                	li	a2,5
   137ce:	91d50513          	addi	a0,a0,-1763 # 91d <.Lline_table_start1+0x6f2>
   137d2:	4709                	li	a4,2
   137d4:	07f00793          	li	a5,127
   137d8:	4681                	li	a3,0
   137da:	00000073          	ecall
   137de:	02a7e863          	bltu	a5,a0,1380e <_ZN20complex_full_dynamic3app17h86314807766589d4E+0xc8>
   137e2:	00b9a223          	sw	a1,4(s3)
   137e6:	4505                	li	a0,1
   137e8:	00a98023          	sb	a0,0(s3)
   137ec:	00e8                	addi	a0,sp,76
   137ee:	00007097          	auipc	ra,0x7
   137f2:	6f8080e7          	jalr	1784(ra) # 1aee6 <_ZN9allow_pin12full_dynamic17unshare_if_shared17he9718eb989dae51aE>
   137f6:	0068                	addi	a0,sp,12
   137f8:	00007097          	auipc	ra,0x7
   137fc:	6ee080e7          	jalr	1774(ra) # 1aee6 <_ZN9allow_pin12full_dynamic17unshare_if_shared17he9718eb989dae51aE>
   13800:	50ba                	lw	ra,172(sp)
   13802:	542a                	lw	s0,168(sp)
   13804:	549a                	lw	s1,164(sp)
   13806:	590a                	lw	s2,160(sp)
   13808:	49fa                	lw	s3,156(sp)
   1380a:	614d                	addi	sp,sp,176
   1380c:	8082                	ret
   1380e:	0068                	addi	a0,sp,12
   13810:	00007097          	auipc	ra,0x7
   13814:	6d6080e7          	jalr	1750(ra) # 1aee6 <_ZN9allow_pin12full_dynamic17unshare_if_shared17he9718eb989dae51aE>
   13818:	00e8                	addi	a0,sp,76
   1381a:	00007097          	auipc	ra,0x7
   1381e:	6cc080e7          	jalr	1740(ra) # 1aee6 <_ZN9allow_pin12full_dynamic17unshare_if_shared17he9718eb989dae51aE>
   13822:	00e8                	addi	a0,sp,76
   13824:	00007097          	auipc	ra,0x7
   13828:	6c2080e7          	jalr	1730(ra) # 1aee6 <_ZN9allow_pin12full_dynamic17unshare_if_shared17he9718eb989dae51aE>
   1382c:	00198513          	addi	a0,s3,1
   13830:	04100613          	li	a2,65
   13834:	85ca                	mv	a1,s2
   13836:	00007097          	auipc	ra,0x7
   1383a:	73c080e7          	jalr	1852(ra) # 1af72 <memcpy>
   1383e:	4501                	li	a0,0
   13840:	b765                	j	137e8 <_ZN20complex_full_dynamic3app17h86314807766589d4E+0xa2>

00013842 <_ZN20complex_full_dynamic3app17h864044a9fa2c46adE>:
   13842:	715d                	addi	sp,sp,-80
   13844:	c686                	sw	ra,76(sp)
   13846:	c4a2                	sw	s0,72(sp)
   13848:	c2a6                	sw	s1,68(sp)
   1384a:	c0ca                	sw	s2,64(sp)
   1384c:	de4e                	sw	s3,60(sp)
   1384e:	892a                	mv	s2,a0
   13850:	4409                	li	s0,2
   13852:	00810423          	sb	s0,8(sp)
   13856:	0064                	addi	s1,sp,12
   13858:	463d                	li	a2,15
   1385a:	8526                	mv	a0,s1
   1385c:	00007097          	auipc	ra,0x7
   13860:	716080e7          	jalr	1814(ra) # 1af72 <memcpy>
   13864:	8626                	mv	a2,s1
   13866:	da02                	sw	zero,52(sp)
   13868:	02011c23          	sh	zero,56(sp)
   1386c:	02010d23          	sb	zero,58(sp)
   13870:	02810223          	sb	s0,36(sp)
   13874:	d402                	sw	zero,40(sp)
   13876:	d602                	sw	zero,44(sp)
   13878:	d802                	sw	zero,48(sp)
   1387a:	6509                	lui	a0,0x2
   1387c:	448d                	li	s1,3
   1387e:	4811                	li	a6,4
   13880:	458d                	li	a1,3
   13882:	e4b50793          	addi	a5,a0,-437 # 1e4b <.Lline_table_start1+0x1c20>
   13886:	46bd                	li	a3,15
   13888:	4711                	li	a4,4
   1388a:	853e                	mv	a0,a5
   1388c:	00000073          	ecall
   13890:	04850363          	beq	a0,s0,138d6 <_ZN20complex_full_dynamic3app17h864044a9fa2c46adE+0x94>
   13894:	02810993          	addi	s3,sp,40
   13898:	c03e                	sw	a5,0(sp)
   1389a:	c226                	sw	s1,4(sp)
   1389c:	01010423          	sb	a6,8(sp)
   138a0:	46cd                	li	a3,19
   138a2:	470d                	li	a4,3
   138a4:	853e                	mv	a0,a5
   138a6:	4581                	li	a1,0
   138a8:	864e                	mv	a2,s3
   138aa:	00000073          	ecall
   138ae:	02850463          	beq	a0,s0,138d6 <_ZN20complex_full_dynamic3app17h864044a9fa2c46adE+0x94>
   138b2:	450d                	li	a0,3
   138b4:	6609                	lui	a2,0x2
   138b6:	458d                	li	a1,3
   138b8:	ce3e                	sw	a5,28(sp)
   138ba:	d002                	sw	zero,32(sp)
   138bc:	02a10223          	sb	a0,36(sp)
   138c0:	e4b60513          	addi	a0,a2,-437 # 1e4b <.Lline_table_start1+0x1c20>
   138c4:	4709                	li	a4,2
   138c6:	07f00793          	li	a5,127
   138ca:	4601                	li	a2,0
   138cc:	4681                	li	a3,0
   138ce:	00000073          	ecall
   138d2:	02a7e863          	bltu	a5,a0,13902 <_ZN20complex_full_dynamic3app17h864044a9fa2c46adE+0xc0>
   138d6:	00b92223          	sw	a1,4(s2)
   138da:	4505                	li	a0,1
   138dc:	00a90023          	sb	a0,0(s2)
   138e0:	0868                	addi	a0,sp,28
   138e2:	00007097          	auipc	ra,0x7
   138e6:	604080e7          	jalr	1540(ra) # 1aee6 <_ZN9allow_pin12full_dynamic17unshare_if_shared17he9718eb989dae51aE>
   138ea:	850a                	mv	a0,sp
   138ec:	00007097          	auipc	ra,0x7
   138f0:	5fa080e7          	jalr	1530(ra) # 1aee6 <_ZN9allow_pin12full_dynamic17unshare_if_shared17he9718eb989dae51aE>
   138f4:	40b6                	lw	ra,76(sp)
   138f6:	4426                	lw	s0,72(sp)
   138f8:	4496                	lw	s1,68(sp)
   138fa:	4906                	lw	s2,64(sp)
   138fc:	59f2                	lw	s3,60(sp)
   138fe:	6161                	addi	sp,sp,80
   13900:	8082                	ret
   13902:	850a                	mv	a0,sp
   13904:	00007097          	auipc	ra,0x7
   13908:	5e2080e7          	jalr	1506(ra) # 1aee6 <_ZN9allow_pin12full_dynamic17unshare_if_shared17he9718eb989dae51aE>
   1390c:	0868                	addi	a0,sp,28
   1390e:	00007097          	auipc	ra,0x7
   13912:	5d8080e7          	jalr	1496(ra) # 1aee6 <_ZN9allow_pin12full_dynamic17unshare_if_shared17he9718eb989dae51aE>
   13916:	0868                	addi	a0,sp,28
   13918:	00007097          	auipc	ra,0x7
   1391c:	5ce080e7          	jalr	1486(ra) # 1aee6 <_ZN9allow_pin12full_dynamic17unshare_if_shared17he9718eb989dae51aE>
   13920:	00190513          	addi	a0,s2,1
   13924:	464d                	li	a2,19
   13926:	85ce                	mv	a1,s3
   13928:	00007097          	auipc	ra,0x7
   1392c:	64a080e7          	jalr	1610(ra) # 1af72 <memcpy>
   13930:	4501                	li	a0,0
   13932:	b76d                	j	138dc <_ZN20complex_full_dynamic3app17h864044a9fa2c46adE+0x9a>

00013934 <_ZN20complex_full_dynamic3app17h86991f8e7524b038E>:
   13934:	7119                	addi	sp,sp,-128
   13936:	de86                	sw	ra,124(sp)
   13938:	dca2                	sw	s0,120(sp)
   1393a:	daa6                	sw	s1,116(sp)
   1393c:	d8ca                	sw	s2,112(sp)
   1393e:	d6ce                	sw	s3,108(sp)
   13940:	892a                	mv	s2,a0
   13942:	4409                	li	s0,2
   13944:	00810a23          	sb	s0,20(sp)
   13948:	0824                	addi	s1,sp,24
   1394a:	02900613          	li	a2,41
   1394e:	8526                	mv	a0,s1
   13950:	00007097          	auipc	ra,0x7
   13954:	622080e7          	jalr	1570(ra) # 1af72 <memcpy>
   13958:	8626                	mv	a2,s1
   1395a:	ce82                	sw	zero,92(sp)
   1395c:	d082                	sw	zero,96(sp)
   1395e:	d282                	sw	zero,100(sp)
   13960:	06011423          	sh	zero,104(sp)
   13964:	04810623          	sb	s0,76(sp)
   13968:	c882                	sw	zero,80(sp)
   1396a:	ca82                	sw	zero,84(sp)
   1396c:	cc82                	sw	zero,88(sp)
   1396e:	6509                	lui	a0,0x2
   13970:	4495                	li	s1,5
   13972:	4811                	li	a6,4
   13974:	4595                	li	a1,5
   13976:	04850793          	addi	a5,a0,72 # 2048 <.Lline_table_start1+0x1e1d>
   1397a:	02900693          	li	a3,41
   1397e:	4711                	li	a4,4
   13980:	853e                	mv	a0,a5
   13982:	00000073          	ecall
   13986:	04850363          	beq	a0,s0,139cc <_ZN20complex_full_dynamic3app17h86991f8e7524b038E+0x98>
   1398a:	853e                	mv	a0,a5
   1398c:	05010993          	addi	s3,sp,80
   13990:	c63e                	sw	a5,12(sp)
   13992:	c826                	sw	s1,16(sp)
   13994:	01010a23          	sb	a6,20(sp)
   13998:	448d                	li	s1,3
   1399a:	458d                	li	a1,3
   1399c:	46e9                	li	a3,26
   1399e:	470d                	li	a4,3
   139a0:	864e                	mv	a2,s3
   139a2:	00000073          	ecall
   139a6:	02850363          	beq	a0,s0,139cc <_ZN20complex_full_dynamic3app17h86991f8e7524b038E+0x98>
   139aa:	c2be                	sw	a5,68(sp)
   139ac:	c4a6                	sw	s1,72(sp)
   139ae:	04910623          	sb	s1,76(sp)
   139b2:	6509                	lui	a0,0x2
   139b4:	4595                	li	a1,5
   139b6:	460d                	li	a2,3
   139b8:	04850513          	addi	a0,a0,72 # 2048 <.Lline_table_start1+0x1e1d>
   139bc:	4709                	li	a4,2
   139be:	07f00793          	li	a5,127
   139c2:	4681                	li	a3,0
   139c4:	00000073          	ecall
   139c8:	02a7e863          	bltu	a5,a0,139f8 <_ZN20complex_full_dynamic3app17h86991f8e7524b038E+0xc4>
   139cc:	00b92223          	sw	a1,4(s2)
   139d0:	4505                	li	a0,1
   139d2:	00a90023          	sb	a0,0(s2)
   139d6:	00c8                	addi	a0,sp,68
   139d8:	00007097          	auipc	ra,0x7
   139dc:	50e080e7          	jalr	1294(ra) # 1aee6 <_ZN9allow_pin12full_dynamic17unshare_if_shared17he9718eb989dae51aE>
   139e0:	0068                	addi	a0,sp,12
   139e2:	00007097          	auipc	ra,0x7
   139e6:	504080e7          	jalr	1284(ra) # 1aee6 <_ZN9allow_pin12full_dynamic17unshare_if_shared17he9718eb989dae51aE>
   139ea:	50f6                	lw	ra,124(sp)
   139ec:	5466                	lw	s0,120(sp)
   139ee:	54d6                	lw	s1,116(sp)
   139f0:	5946                	lw	s2,112(sp)
   139f2:	59b6                	lw	s3,108(sp)
   139f4:	6109                	addi	sp,sp,128
   139f6:	8082                	ret
   139f8:	0068                	addi	a0,sp,12
   139fa:	00007097          	auipc	ra,0x7
   139fe:	4ec080e7          	jalr	1260(ra) # 1aee6 <_ZN9allow_pin12full_dynamic17unshare_if_shared17he9718eb989dae51aE>
   13a02:	00c8                	addi	a0,sp,68
   13a04:	00007097          	auipc	ra,0x7
   13a08:	4e2080e7          	jalr	1250(ra) # 1aee6 <_ZN9allow_pin12full_dynamic17unshare_if_shared17he9718eb989dae51aE>
   13a0c:	00c8                	addi	a0,sp,68
   13a0e:	00007097          	auipc	ra,0x7
   13a12:	4d8080e7          	jalr	1240(ra) # 1aee6 <_ZN9allow_pin12full_dynamic17unshare_if_shared17he9718eb989dae51aE>
   13a16:	00190513          	addi	a0,s2,1
   13a1a:	4669                	li	a2,26
   13a1c:	85ce                	mv	a1,s3
   13a1e:	00007097          	auipc	ra,0x7
   13a22:	554080e7          	jalr	1364(ra) # 1af72 <memcpy>
   13a26:	4501                	li	a0,0
   13a28:	b76d                	j	139d2 <_ZN20complex_full_dynamic3app17h86991f8e7524b038E+0x9e>

00013a2a <_ZN20complex_full_dynamic3app17h880f0183b73b3d96E>:
   13a2a:	7159                	addi	sp,sp,-112
   13a2c:	d686                	sw	ra,108(sp)
   13a2e:	d4a2                	sw	s0,104(sp)
   13a30:	d2a6                	sw	s1,100(sp)
   13a32:	d0ca                	sw	s2,96(sp)
   13a34:	cece                	sw	s3,92(sp)
   13a36:	892a                	mv	s2,a0
   13a38:	4409                	li	s0,2
   13a3a:	00810423          	sb	s0,8(sp)
   13a3e:	0064                	addi	s1,sp,12
   13a40:	03200613          	li	a2,50
   13a44:	8526                	mv	a0,s1
   13a46:	00007097          	auipc	ra,0x7
   13a4a:	52c080e7          	jalr	1324(ra) # 1af72 <memcpy>
   13a4e:	8626                	mv	a2,s1
   13a50:	cc82                	sw	zero,88(sp)
   13a52:	04810423          	sb	s0,72(sp)
   13a56:	c682                	sw	zero,76(sp)
   13a58:	c882                	sw	zero,80(sp)
   13a5a:	ca82                	sw	zero,84(sp)
   13a5c:	6509                	lui	a0,0x2
   13a5e:	4491                	li	s1,4
   13a60:	4591                	li	a1,4
   13a62:	9d650793          	addi	a5,a0,-1578 # 19d6 <.Lline_table_start1+0x17ab>
   13a66:	03200693          	li	a3,50
   13a6a:	4711                	li	a4,4
   13a6c:	853e                	mv	a0,a5
   13a6e:	00000073          	ecall
   13a72:	04850463          	beq	a0,s0,13aba <_ZN20complex_full_dynamic3app17h880f0183b73b3d96E+0x90>
   13a76:	853e                	mv	a0,a5
   13a78:	04c10993          	addi	s3,sp,76
   13a7c:	c03e                	sw	a5,0(sp)
   13a7e:	c226                	sw	s1,4(sp)
   13a80:	00910423          	sb	s1,8(sp)
   13a84:	44a5                	li	s1,9
   13a86:	480d                	li	a6,3
   13a88:	45a5                	li	a1,9
   13a8a:	46c1                	li	a3,16
   13a8c:	470d                	li	a4,3
   13a8e:	864e                	mv	a2,s3
   13a90:	00000073          	ecall
   13a94:	02850363          	beq	a0,s0,13aba <_ZN20complex_full_dynamic3app17h880f0183b73b3d96E+0x90>
   13a98:	c0be                	sw	a5,64(sp)
   13a9a:	c2a6                	sw	s1,68(sp)
   13a9c:	05010423          	sb	a6,72(sp)
   13aa0:	6509                	lui	a0,0x2
   13aa2:	4591                	li	a1,4
   13aa4:	4625                	li	a2,9
   13aa6:	9d650513          	addi	a0,a0,-1578 # 19d6 <.Lline_table_start1+0x17ab>
   13aaa:	4709                	li	a4,2
   13aac:	07f00793          	li	a5,127
   13ab0:	4681                	li	a3,0
   13ab2:	00000073          	ecall
   13ab6:	02a7e863          	bltu	a5,a0,13ae6 <_ZN20complex_full_dynamic3app17h880f0183b73b3d96E+0xbc>
   13aba:	00b92223          	sw	a1,4(s2)
   13abe:	4505                	li	a0,1
   13ac0:	00a90023          	sb	a0,0(s2)
   13ac4:	0088                	addi	a0,sp,64
   13ac6:	00007097          	auipc	ra,0x7
   13aca:	420080e7          	jalr	1056(ra) # 1aee6 <_ZN9allow_pin12full_dynamic17unshare_if_shared17he9718eb989dae51aE>
   13ace:	850a                	mv	a0,sp
   13ad0:	00007097          	auipc	ra,0x7
   13ad4:	416080e7          	jalr	1046(ra) # 1aee6 <_ZN9allow_pin12full_dynamic17unshare_if_shared17he9718eb989dae51aE>
   13ad8:	50b6                	lw	ra,108(sp)
   13ada:	5426                	lw	s0,104(sp)
   13adc:	5496                	lw	s1,100(sp)
   13ade:	5906                	lw	s2,96(sp)
   13ae0:	49f6                	lw	s3,92(sp)
   13ae2:	6165                	addi	sp,sp,112
   13ae4:	8082                	ret
   13ae6:	850a                	mv	a0,sp
   13ae8:	00007097          	auipc	ra,0x7
   13aec:	3fe080e7          	jalr	1022(ra) # 1aee6 <_ZN9allow_pin12full_dynamic17unshare_if_shared17he9718eb989dae51aE>
   13af0:	0088                	addi	a0,sp,64
   13af2:	00007097          	auipc	ra,0x7
   13af6:	3f4080e7          	jalr	1012(ra) # 1aee6 <_ZN9allow_pin12full_dynamic17unshare_if_shared17he9718eb989dae51aE>
   13afa:	0088                	addi	a0,sp,64
   13afc:	00007097          	auipc	ra,0x7
   13b00:	3ea080e7          	jalr	1002(ra) # 1aee6 <_ZN9allow_pin12full_dynamic17unshare_if_shared17he9718eb989dae51aE>
   13b04:	00190513          	addi	a0,s2,1
   13b08:	4641                	li	a2,16
   13b0a:	85ce                	mv	a1,s3
   13b0c:	00007097          	auipc	ra,0x7
   13b10:	466080e7          	jalr	1126(ra) # 1af72 <memcpy>
   13b14:	4501                	li	a0,0
   13b16:	b76d                	j	13ac0 <_ZN20complex_full_dynamic3app17h880f0183b73b3d96E+0x96>

00013b18 <_ZN20complex_full_dynamic3app17h8e3c9b4682ff29d6E>:
   13b18:	7135                	addi	sp,sp,-160
   13b1a:	cf06                	sw	ra,156(sp)
   13b1c:	cd22                	sw	s0,152(sp)
   13b1e:	cb26                	sw	s1,148(sp)
   13b20:	c94a                	sw	s2,144(sp)
   13b22:	c74e                	sw	s3,140(sp)
   13b24:	892a                	mv	s2,a0
   13b26:	4409                	li	s0,2
   13b28:	00810823          	sb	s0,16(sp)
   13b2c:	0844                	addi	s1,sp,20
   13b2e:	05500613          	li	a2,85
   13b32:	8526                	mv	a0,s1
   13b34:	00007097          	auipc	ra,0x7
   13b38:	43e080e7          	jalr	1086(ra) # 1af72 <memcpy>
   13b3c:	8626                	mv	a2,s1
   13b3e:	c302                	sw	zero,132(sp)
   13b40:	08010423          	sb	zero,136(sp)
   13b44:	06810a23          	sb	s0,116(sp)
   13b48:	dc82                	sw	zero,120(sp)
   13b4a:	de82                	sw	zero,124(sp)
   13b4c:	c102                	sw	zero,128(sp)
   13b4e:	6505                	lui	a0,0x1
   13b50:	4491                	li	s1,4
   13b52:	4589                	li	a1,2
   13b54:	c8950793          	addi	a5,a0,-887 # c89 <.Lline_table_start1+0xa5e>
   13b58:	05500693          	li	a3,85
   13b5c:	4711                	li	a4,4
   13b5e:	853e                	mv	a0,a5
   13b60:	00000073          	ecall
   13b64:	04850463          	beq	a0,s0,13bac <_ZN20complex_full_dynamic3app17h8e3c9b4682ff29d6E+0x94>
   13b68:	853e                	mv	a0,a5
   13b6a:	07810993          	addi	s3,sp,120
   13b6e:	c43e                	sw	a5,8(sp)
   13b70:	c622                	sw	s0,12(sp)
   13b72:	00910823          	sb	s1,16(sp)
   13b76:	448d                	li	s1,3
   13b78:	4589                	li	a1,2
   13b7a:	46c5                	li	a3,17
   13b7c:	470d                	li	a4,3
   13b7e:	864e                	mv	a2,s3
   13b80:	00000073          	ecall
   13b84:	02850463          	beq	a0,s0,13bac <_ZN20complex_full_dynamic3app17h8e3c9b4682ff29d6E+0x94>
   13b88:	4509                	li	a0,2
   13b8a:	6685                	lui	a3,0x1
   13b8c:	4589                	li	a1,2
   13b8e:	4609                	li	a2,2
   13b90:	d6be                	sw	a5,108(sp)
   13b92:	d8aa                	sw	a0,112(sp)
   13b94:	06910a23          	sb	s1,116(sp)
   13b98:	c8968513          	addi	a0,a3,-887 # c89 <.Lline_table_start1+0xa5e>
   13b9c:	4709                	li	a4,2
   13b9e:	07f00793          	li	a5,127
   13ba2:	4681                	li	a3,0
   13ba4:	00000073          	ecall
   13ba8:	02a7e863          	bltu	a5,a0,13bd8 <_ZN20complex_full_dynamic3app17h8e3c9b4682ff29d6E+0xc0>
   13bac:	00b92223          	sw	a1,4(s2)
   13bb0:	4505                	li	a0,1
   13bb2:	00a90023          	sb	a0,0(s2)
   13bb6:	10e8                	addi	a0,sp,108
   13bb8:	00007097          	auipc	ra,0x7
   13bbc:	32e080e7          	jalr	814(ra) # 1aee6 <_ZN9allow_pin12full_dynamic17unshare_if_shared17he9718eb989dae51aE>
   13bc0:	0028                	addi	a0,sp,8
   13bc2:	00007097          	auipc	ra,0x7
   13bc6:	324080e7          	jalr	804(ra) # 1aee6 <_ZN9allow_pin12full_dynamic17unshare_if_shared17he9718eb989dae51aE>
   13bca:	40fa                	lw	ra,156(sp)
   13bcc:	446a                	lw	s0,152(sp)
   13bce:	44da                	lw	s1,148(sp)
   13bd0:	494a                	lw	s2,144(sp)
   13bd2:	49ba                	lw	s3,140(sp)
   13bd4:	610d                	addi	sp,sp,160
   13bd6:	8082                	ret
   13bd8:	0028                	addi	a0,sp,8
   13bda:	00007097          	auipc	ra,0x7
   13bde:	30c080e7          	jalr	780(ra) # 1aee6 <_ZN9allow_pin12full_dynamic17unshare_if_shared17he9718eb989dae51aE>
   13be2:	10e8                	addi	a0,sp,108
   13be4:	00007097          	auipc	ra,0x7
   13be8:	302080e7          	jalr	770(ra) # 1aee6 <_ZN9allow_pin12full_dynamic17unshare_if_shared17he9718eb989dae51aE>
   13bec:	10e8                	addi	a0,sp,108
   13bee:	00007097          	auipc	ra,0x7
   13bf2:	2f8080e7          	jalr	760(ra) # 1aee6 <_ZN9allow_pin12full_dynamic17unshare_if_shared17he9718eb989dae51aE>
   13bf6:	00190513          	addi	a0,s2,1
   13bfa:	4645                	li	a2,17
   13bfc:	85ce                	mv	a1,s3
   13bfe:	00007097          	auipc	ra,0x7
   13c02:	374080e7          	jalr	884(ra) # 1af72 <memcpy>
   13c06:	4501                	li	a0,0
   13c08:	b76d                	j	13bb2 <_ZN20complex_full_dynamic3app17h8e3c9b4682ff29d6E+0x9a>

00013c0a <_ZN20complex_full_dynamic3app17h8e7a448a8eb4bbb9E>:
   13c0a:	7131                	addi	sp,sp,-192
   13c0c:	df06                	sw	ra,188(sp)
   13c0e:	dd22                	sw	s0,184(sp)
   13c10:	db26                	sw	s1,180(sp)
   13c12:	d94a                	sw	s2,176(sp)
   13c14:	d74e                	sw	s3,172(sp)
   13c16:	89aa                	mv	s3,a0
   13c18:	4409                	li	s0,2
   13c1a:	00810623          	sb	s0,12(sp)
   13c1e:	0804                	addi	s1,sp,16
   13c20:	02f00613          	li	a2,47
   13c24:	8526                	mv	a0,s1
   13c26:	00007097          	auipc	ra,0x7
   13c2a:	34c080e7          	jalr	844(ra) # 1af72 <memcpy>
   13c2e:	04c10913          	addi	s2,sp,76
   13c32:	05e00613          	li	a2,94
   13c36:	854a                	mv	a0,s2
   13c38:	4581                	li	a1,0
   13c3a:	00007097          	auipc	ra,0x7
   13c3e:	2cc080e7          	jalr	716(ra) # 1af06 <memset>
   13c42:	8626                	mv	a2,s1
   13c44:	04810423          	sb	s0,72(sp)
   13c48:	22b00793          	li	a5,555
   13c4c:	4495                	li	s1,5
   13c4e:	4811                	li	a6,4
   13c50:	22b00513          	li	a0,555
   13c54:	4595                	li	a1,5
   13c56:	02f00693          	li	a3,47
   13c5a:	4711                	li	a4,4
   13c5c:	00000073          	ecall
   13c60:	04850563          	beq	a0,s0,13caa <_ZN20complex_full_dynamic3app17h8e7a448a8eb4bbb9E+0xa0>
   13c64:	864a                	mv	a2,s2
   13c66:	c23e                	sw	a5,4(sp)
   13c68:	c426                	sw	s1,8(sp)
   13c6a:	01010623          	sb	a6,12(sp)
   13c6e:	478d                	li	a5,3
   13c70:	22b00513          	li	a0,555
   13c74:	4589                	li	a1,2
   13c76:	05e00693          	li	a3,94
   13c7a:	470d                	li	a4,3
   13c7c:	00000073          	ecall
   13c80:	02850563          	beq	a0,s0,13caa <_ZN20complex_full_dynamic3app17h8e7a448a8eb4bbb9E+0xa0>
   13c84:	22b00693          	li	a3,555
   13c88:	4489                	li	s1,2
   13c8a:	22b00513          	li	a0,555
   13c8e:	4595                	li	a1,5
   13c90:	4609                	li	a2,2
   13c92:	4709                	li	a4,2
   13c94:	07f00413          	li	s0,127
   13c98:	c0b6                	sw	a3,64(sp)
   13c9a:	c2a6                	sw	s1,68(sp)
   13c9c:	04f10423          	sb	a5,72(sp)
   13ca0:	4681                	li	a3,0
   13ca2:	00000073          	ecall
   13ca6:	02a46863          	bltu	s0,a0,13cd6 <_ZN20complex_full_dynamic3app17h8e7a448a8eb4bbb9E+0xcc>
   13caa:	00b9a223          	sw	a1,4(s3)
   13cae:	4505                	li	a0,1
   13cb0:	00a98023          	sb	a0,0(s3)
   13cb4:	0088                	addi	a0,sp,64
   13cb6:	00007097          	auipc	ra,0x7
   13cba:	230080e7          	jalr	560(ra) # 1aee6 <_ZN9allow_pin12full_dynamic17unshare_if_shared17he9718eb989dae51aE>
   13cbe:	0048                	addi	a0,sp,4
   13cc0:	00007097          	auipc	ra,0x7
   13cc4:	226080e7          	jalr	550(ra) # 1aee6 <_ZN9allow_pin12full_dynamic17unshare_if_shared17he9718eb989dae51aE>
   13cc8:	50fa                	lw	ra,188(sp)
   13cca:	546a                	lw	s0,184(sp)
   13ccc:	54da                	lw	s1,180(sp)
   13cce:	594a                	lw	s2,176(sp)
   13cd0:	59ba                	lw	s3,172(sp)
   13cd2:	6129                	addi	sp,sp,192
   13cd4:	8082                	ret
   13cd6:	0048                	addi	a0,sp,4
   13cd8:	00007097          	auipc	ra,0x7
   13cdc:	20e080e7          	jalr	526(ra) # 1aee6 <_ZN9allow_pin12full_dynamic17unshare_if_shared17he9718eb989dae51aE>
   13ce0:	0088                	addi	a0,sp,64
   13ce2:	00007097          	auipc	ra,0x7
   13ce6:	204080e7          	jalr	516(ra) # 1aee6 <_ZN9allow_pin12full_dynamic17unshare_if_shared17he9718eb989dae51aE>
   13cea:	0088                	addi	a0,sp,64
   13cec:	00007097          	auipc	ra,0x7
   13cf0:	1fa080e7          	jalr	506(ra) # 1aee6 <_ZN9allow_pin12full_dynamic17unshare_if_shared17he9718eb989dae51aE>
   13cf4:	00198513          	addi	a0,s3,1
   13cf8:	05e00613          	li	a2,94
   13cfc:	85ca                	mv	a1,s2
   13cfe:	00007097          	auipc	ra,0x7
   13d02:	274080e7          	jalr	628(ra) # 1af72 <memcpy>
   13d06:	4501                	li	a0,0
   13d08:	b765                	j	13cb0 <_ZN20complex_full_dynamic3app17h8e7a448a8eb4bbb9E+0xa6>

00013d0a <_ZN20complex_full_dynamic3app17h8f8f54140bbcef01E>:
   13d0a:	7171                	addi	sp,sp,-176
   13d0c:	d706                	sw	ra,172(sp)
   13d0e:	d522                	sw	s0,168(sp)
   13d10:	d326                	sw	s1,164(sp)
   13d12:	d14a                	sw	s2,160(sp)
   13d14:	cf4e                	sw	s3,156(sp)
   13d16:	89aa                	mv	s3,a0
   13d18:	4409                	li	s0,2
   13d1a:	00810623          	sb	s0,12(sp)
   13d1e:	0804                	addi	s1,sp,16
   13d20:	466d                	li	a2,27
   13d22:	8526                	mv	a0,s1
   13d24:	00007097          	auipc	ra,0x7
   13d28:	24e080e7          	jalr	590(ra) # 1af72 <memcpy>
   13d2c:	03810913          	addi	s2,sp,56
   13d30:	06300613          	li	a2,99
   13d34:	854a                	mv	a0,s2
   13d36:	4581                	li	a1,0
   13d38:	00007097          	auipc	ra,0x7
   13d3c:	1ce080e7          	jalr	462(ra) # 1af06 <memset>
   13d40:	8626                	mv	a2,s1
   13d42:	02810a23          	sb	s0,52(sp)
   13d46:	6509                	lui	a0,0x2
   13d48:	448d                	li	s1,3
   13d4a:	4811                	li	a6,4
   13d4c:	458d                	li	a1,3
   13d4e:	54850793          	addi	a5,a0,1352 # 2548 <.Lline_table_start1+0x231d>
   13d52:	46ed                	li	a3,27
   13d54:	4711                	li	a4,4
   13d56:	853e                	mv	a0,a5
   13d58:	00000073          	ecall
   13d5c:	04850263          	beq	a0,s0,13da0 <_ZN20complex_full_dynamic3app17h8f8f54140bbcef01E+0x96>
   13d60:	c23e                	sw	a5,4(sp)
   13d62:	c426                	sw	s1,8(sp)
   13d64:	01010623          	sb	a6,12(sp)
   13d68:	458d                	li	a1,3
   13d6a:	06300693          	li	a3,99
   13d6e:	470d                	li	a4,3
   13d70:	853e                	mv	a0,a5
   13d72:	864a                	mv	a2,s2
   13d74:	00000073          	ecall
   13d78:	02850463          	beq	a0,s0,13da0 <_ZN20complex_full_dynamic3app17h8f8f54140bbcef01E+0x96>
   13d7c:	450d                	li	a0,3
   13d7e:	6689                	lui	a3,0x2
   13d80:	458d                	li	a1,3
   13d82:	460d                	li	a2,3
   13d84:	d63e                	sw	a5,44(sp)
   13d86:	d82a                	sw	a0,48(sp)
   13d88:	02a10a23          	sb	a0,52(sp)
   13d8c:	54868513          	addi	a0,a3,1352 # 2548 <.Lline_table_start1+0x231d>
   13d90:	4709                	li	a4,2
   13d92:	07f00793          	li	a5,127
   13d96:	4681                	li	a3,0
   13d98:	00000073          	ecall
   13d9c:	02a7e863          	bltu	a5,a0,13dcc <_ZN20complex_full_dynamic3app17h8f8f54140bbcef01E+0xc2>
   13da0:	00b9a223          	sw	a1,4(s3)
   13da4:	4505                	li	a0,1
   13da6:	00a98023          	sb	a0,0(s3)
   13daa:	1068                	addi	a0,sp,44
   13dac:	00007097          	auipc	ra,0x7
   13db0:	13a080e7          	jalr	314(ra) # 1aee6 <_ZN9allow_pin12full_dynamic17unshare_if_shared17he9718eb989dae51aE>
   13db4:	0048                	addi	a0,sp,4
   13db6:	00007097          	auipc	ra,0x7
   13dba:	130080e7          	jalr	304(ra) # 1aee6 <_ZN9allow_pin12full_dynamic17unshare_if_shared17he9718eb989dae51aE>
   13dbe:	50ba                	lw	ra,172(sp)
   13dc0:	542a                	lw	s0,168(sp)
   13dc2:	549a                	lw	s1,164(sp)
   13dc4:	590a                	lw	s2,160(sp)
   13dc6:	49fa                	lw	s3,156(sp)
   13dc8:	614d                	addi	sp,sp,176
   13dca:	8082                	ret
   13dcc:	0048                	addi	a0,sp,4
   13dce:	00007097          	auipc	ra,0x7
   13dd2:	118080e7          	jalr	280(ra) # 1aee6 <_ZN9allow_pin12full_dynamic17unshare_if_shared17he9718eb989dae51aE>
   13dd6:	1068                	addi	a0,sp,44
   13dd8:	00007097          	auipc	ra,0x7
   13ddc:	10e080e7          	jalr	270(ra) # 1aee6 <_ZN9allow_pin12full_dynamic17unshare_if_shared17he9718eb989dae51aE>
   13de0:	1068                	addi	a0,sp,44
   13de2:	00007097          	auipc	ra,0x7
   13de6:	104080e7          	jalr	260(ra) # 1aee6 <_ZN9allow_pin12full_dynamic17unshare_if_shared17he9718eb989dae51aE>
   13dea:	00198513          	addi	a0,s3,1
   13dee:	06300613          	li	a2,99
   13df2:	85ca                	mv	a1,s2
   13df4:	00007097          	auipc	ra,0x7
   13df8:	17e080e7          	jalr	382(ra) # 1af72 <memcpy>
   13dfc:	4501                	li	a0,0
   13dfe:	b765                	j	13da6 <_ZN20complex_full_dynamic3app17h8f8f54140bbcef01E+0x9c>

00013e00 <_ZN20complex_full_dynamic3app17h95845db8fc998ad3E>:
   13e00:	7135                	addi	sp,sp,-160
   13e02:	cf06                	sw	ra,156(sp)
   13e04:	cd22                	sw	s0,152(sp)
   13e06:	cb26                	sw	s1,148(sp)
   13e08:	c94a                	sw	s2,144(sp)
   13e0a:	c74e                	sw	s3,140(sp)
   13e0c:	89aa                	mv	s3,a0
   13e0e:	4409                	li	s0,2
   13e10:	00810823          	sb	s0,16(sp)
   13e14:	0844                	addi	s1,sp,20
   13e16:	4669                	li	a2,26
   13e18:	8526                	mv	a0,s1
   13e1a:	00007097          	auipc	ra,0x7
   13e1e:	158080e7          	jalr	344(ra) # 1af72 <memcpy>
   13e22:	03c10913          	addi	s2,sp,60
   13e26:	05000613          	li	a2,80
   13e2a:	854a                	mv	a0,s2
   13e2c:	4581                	li	a1,0
   13e2e:	00007097          	auipc	ra,0x7
   13e32:	0d8080e7          	jalr	216(ra) # 1af06 <memset>
   13e36:	8626                	mv	a2,s1
   13e38:	02810c23          	sb	s0,56(sp)
   13e3c:	6505                	lui	a0,0x1
   13e3e:	449d                	li	s1,7
   13e40:	4811                	li	a6,4
   13e42:	459d                	li	a1,7
   13e44:	aee50793          	addi	a5,a0,-1298 # aee <.Lline_table_start1+0x8c3>
   13e48:	46e9                	li	a3,26
   13e4a:	4711                	li	a4,4
   13e4c:	853e                	mv	a0,a5
   13e4e:	00000073          	ecall
   13e52:	04850363          	beq	a0,s0,13e98 <_ZN20complex_full_dynamic3app17h95845db8fc998ad3E+0x98>
   13e56:	853e                	mv	a0,a5
   13e58:	864a                	mv	a2,s2
   13e5a:	c43e                	sw	a5,8(sp)
   13e5c:	c626                	sw	s1,12(sp)
   13e5e:	01010823          	sb	a6,16(sp)
   13e62:	448d                	li	s1,3
   13e64:	4591                	li	a1,4
   13e66:	05000693          	li	a3,80
   13e6a:	470d                	li	a4,3
   13e6c:	00000073          	ecall
   13e70:	02850463          	beq	a0,s0,13e98 <_ZN20complex_full_dynamic3app17h95845db8fc998ad3E+0x98>
   13e74:	4511                	li	a0,4
   13e76:	6685                	lui	a3,0x1
   13e78:	459d                	li	a1,7
   13e7a:	4611                	li	a2,4
   13e7c:	d83e                	sw	a5,48(sp)
   13e7e:	da2a                	sw	a0,52(sp)
   13e80:	02910c23          	sb	s1,56(sp)
   13e84:	aee68513          	addi	a0,a3,-1298 # aee <.Lline_table_start1+0x8c3>
   13e88:	4709                	li	a4,2
   13e8a:	07f00793          	li	a5,127
   13e8e:	4681                	li	a3,0
   13e90:	00000073          	ecall
   13e94:	02a7e863          	bltu	a5,a0,13ec4 <_ZN20complex_full_dynamic3app17h95845db8fc998ad3E+0xc4>
   13e98:	00b9a223          	sw	a1,4(s3)
   13e9c:	4505                	li	a0,1
   13e9e:	00a98023          	sb	a0,0(s3)
   13ea2:	1808                	addi	a0,sp,48
   13ea4:	00007097          	auipc	ra,0x7
   13ea8:	042080e7          	jalr	66(ra) # 1aee6 <_ZN9allow_pin12full_dynamic17unshare_if_shared17he9718eb989dae51aE>
   13eac:	0028                	addi	a0,sp,8
   13eae:	00007097          	auipc	ra,0x7
   13eb2:	038080e7          	jalr	56(ra) # 1aee6 <_ZN9allow_pin12full_dynamic17unshare_if_shared17he9718eb989dae51aE>
   13eb6:	40fa                	lw	ra,156(sp)
   13eb8:	446a                	lw	s0,152(sp)
   13eba:	44da                	lw	s1,148(sp)
   13ebc:	494a                	lw	s2,144(sp)
   13ebe:	49ba                	lw	s3,140(sp)
   13ec0:	610d                	addi	sp,sp,160
   13ec2:	8082                	ret
   13ec4:	0028                	addi	a0,sp,8
   13ec6:	00007097          	auipc	ra,0x7
   13eca:	020080e7          	jalr	32(ra) # 1aee6 <_ZN9allow_pin12full_dynamic17unshare_if_shared17he9718eb989dae51aE>
   13ece:	1808                	addi	a0,sp,48
   13ed0:	00007097          	auipc	ra,0x7
   13ed4:	016080e7          	jalr	22(ra) # 1aee6 <_ZN9allow_pin12full_dynamic17unshare_if_shared17he9718eb989dae51aE>
   13ed8:	1808                	addi	a0,sp,48
   13eda:	00007097          	auipc	ra,0x7
   13ede:	00c080e7          	jalr	12(ra) # 1aee6 <_ZN9allow_pin12full_dynamic17unshare_if_shared17he9718eb989dae51aE>
   13ee2:	00198513          	addi	a0,s3,1
   13ee6:	05000613          	li	a2,80
   13eea:	85ca                	mv	a1,s2
   13eec:	00007097          	auipc	ra,0x7
   13ef0:	086080e7          	jalr	134(ra) # 1af72 <memcpy>
   13ef4:	4501                	li	a0,0
   13ef6:	b765                	j	13e9e <_ZN20complex_full_dynamic3app17h95845db8fc998ad3E+0x9e>

00013ef8 <_ZN20complex_full_dynamic3app17h9ed3612b903706b3E>:
   13ef8:	7119                	addi	sp,sp,-128
   13efa:	de86                	sw	ra,124(sp)
   13efc:	dca2                	sw	s0,120(sp)
   13efe:	daa6                	sw	s1,116(sp)
   13f00:	d8ca                	sw	s2,112(sp)
   13f02:	d6ce                	sw	s3,108(sp)
   13f04:	89aa                	mv	s3,a0
   13f06:	4409                	li	s0,2
   13f08:	00810423          	sb	s0,8(sp)
   13f0c:	0064                	addi	s1,sp,12
   13f0e:	02500613          	li	a2,37
   13f12:	8526                	mv	a0,s1
   13f14:	00007097          	auipc	ra,0x7
   13f18:	05e080e7          	jalr	94(ra) # 1af72 <memcpy>
   13f1c:	04010913          	addi	s2,sp,64
   13f20:	02a00613          	li	a2,42
   13f24:	854a                	mv	a0,s2
   13f26:	4581                	li	a1,0
   13f28:	00007097          	auipc	ra,0x7
   13f2c:	fde080e7          	jalr	-34(ra) # 1af06 <memset>
   13f30:	4581                	li	a1,0
   13f32:	8626                	mv	a2,s1
   13f34:	02810e23          	sb	s0,60(sp)
   13f38:	6505                	lui	a0,0x1
   13f3a:	4491                	li	s1,4
   13f3c:	93c50793          	addi	a5,a0,-1732 # 93c <.Lline_table_start1+0x711>
   13f40:	02500693          	li	a3,37
   13f44:	4711                	li	a4,4
   13f46:	853e                	mv	a0,a5
   13f48:	00000073          	ecall
   13f4c:	04850263          	beq	a0,s0,13f90 <_ZN20complex_full_dynamic3app17h9ed3612b903706b3E+0x98>
   13f50:	853e                	mv	a0,a5
   13f52:	864a                	mv	a2,s2
   13f54:	c03e                	sw	a5,0(sp)
   13f56:	c202                	sw	zero,4(sp)
   13f58:	00910423          	sb	s1,8(sp)
   13f5c:	448d                	li	s1,3
   13f5e:	458d                	li	a1,3
   13f60:	02a00693          	li	a3,42
   13f64:	470d                	li	a4,3
   13f66:	00000073          	ecall
   13f6a:	02850363          	beq	a0,s0,13f90 <_ZN20complex_full_dynamic3app17h9ed3612b903706b3E+0x98>
   13f6e:	da3e                	sw	a5,52(sp)
   13f70:	dc26                	sw	s1,56(sp)
   13f72:	02910e23          	sb	s1,60(sp)
   13f76:	6505                	lui	a0,0x1
   13f78:	460d                	li	a2,3
   13f7a:	93c50513          	addi	a0,a0,-1732 # 93c <.Lline_table_start1+0x711>
   13f7e:	4709                	li	a4,2
   13f80:	07f00793          	li	a5,127
   13f84:	4581                	li	a1,0
   13f86:	4681                	li	a3,0
   13f88:	00000073          	ecall
   13f8c:	02a7e863          	bltu	a5,a0,13fbc <_ZN20complex_full_dynamic3app17h9ed3612b903706b3E+0xc4>
   13f90:	00b9a223          	sw	a1,4(s3)
   13f94:	4505                	li	a0,1
   13f96:	00a98023          	sb	a0,0(s3)
   13f9a:	1848                	addi	a0,sp,52
   13f9c:	00007097          	auipc	ra,0x7
   13fa0:	f4a080e7          	jalr	-182(ra) # 1aee6 <_ZN9allow_pin12full_dynamic17unshare_if_shared17he9718eb989dae51aE>
   13fa4:	850a                	mv	a0,sp
   13fa6:	00007097          	auipc	ra,0x7
   13faa:	f40080e7          	jalr	-192(ra) # 1aee6 <_ZN9allow_pin12full_dynamic17unshare_if_shared17he9718eb989dae51aE>
   13fae:	50f6                	lw	ra,124(sp)
   13fb0:	5466                	lw	s0,120(sp)
   13fb2:	54d6                	lw	s1,116(sp)
   13fb4:	5946                	lw	s2,112(sp)
   13fb6:	59b6                	lw	s3,108(sp)
   13fb8:	6109                	addi	sp,sp,128
   13fba:	8082                	ret
   13fbc:	850a                	mv	a0,sp
   13fbe:	00007097          	auipc	ra,0x7
   13fc2:	f28080e7          	jalr	-216(ra) # 1aee6 <_ZN9allow_pin12full_dynamic17unshare_if_shared17he9718eb989dae51aE>
   13fc6:	1848                	addi	a0,sp,52
   13fc8:	00007097          	auipc	ra,0x7
   13fcc:	f1e080e7          	jalr	-226(ra) # 1aee6 <_ZN9allow_pin12full_dynamic17unshare_if_shared17he9718eb989dae51aE>
   13fd0:	1848                	addi	a0,sp,52
   13fd2:	00007097          	auipc	ra,0x7
   13fd6:	f14080e7          	jalr	-236(ra) # 1aee6 <_ZN9allow_pin12full_dynamic17unshare_if_shared17he9718eb989dae51aE>
   13fda:	00198513          	addi	a0,s3,1
   13fde:	02a00613          	li	a2,42
   13fe2:	85ca                	mv	a1,s2
   13fe4:	00007097          	auipc	ra,0x7
   13fe8:	f8e080e7          	jalr	-114(ra) # 1af72 <memcpy>
   13fec:	4501                	li	a0,0
   13fee:	b765                	j	13f96 <_ZN20complex_full_dynamic3app17h9ed3612b903706b3E+0x9e>

00013ff0 <_ZN20complex_full_dynamic3app17h9fa094581104a76eE>:
   13ff0:	7175                	addi	sp,sp,-144
   13ff2:	c706                	sw	ra,140(sp)
   13ff4:	c522                	sw	s0,136(sp)
   13ff6:	c326                	sw	s1,132(sp)
   13ff8:	c14a                	sw	s2,128(sp)
   13ffa:	dece                	sw	s3,124(sp)
   13ffc:	89aa                	mv	s3,a0
   13ffe:	4409                	li	s0,2
   14000:	00810823          	sb	s0,16(sp)
   14004:	0844                	addi	s1,sp,20
   14006:	4679                	li	a2,30
   14008:	8526                	mv	a0,s1
   1400a:	00007097          	auipc	ra,0x7
   1400e:	f68080e7          	jalr	-152(ra) # 1af72 <memcpy>
   14012:	04010913          	addi	s2,sp,64
   14016:	03c00613          	li	a2,60
   1401a:	854a                	mv	a0,s2
   1401c:	4581                	li	a1,0
   1401e:	00007097          	auipc	ra,0x7
   14022:	ee8080e7          	jalr	-280(ra) # 1af06 <memset>
   14026:	8626                	mv	a2,s1
   14028:	02810e23          	sb	s0,60(sp)
   1402c:	6505                	lui	a0,0x1
   1402e:	4491                	li	s1,4
   14030:	4589                	li	a1,2
   14032:	b3c50793          	addi	a5,a0,-1220 # b3c <.Lline_table_start1+0x911>
   14036:	46f9                	li	a3,30
   14038:	4711                	li	a4,4
   1403a:	853e                	mv	a0,a5
   1403c:	00000073          	ecall
   14040:	04850263          	beq	a0,s0,14084 <_ZN20complex_full_dynamic3app17h9fa094581104a76eE+0x94>
   14044:	853e                	mv	a0,a5
   14046:	864a                	mv	a2,s2
   14048:	c43e                	sw	a5,8(sp)
   1404a:	c622                	sw	s0,12(sp)
   1404c:	00910823          	sb	s1,16(sp)
   14050:	448d                	li	s1,3
   14052:	458d                	li	a1,3
   14054:	03c00693          	li	a3,60
   14058:	470d                	li	a4,3
   1405a:	00000073          	ecall
   1405e:	02850363          	beq	a0,s0,14084 <_ZN20complex_full_dynamic3app17h9fa094581104a76eE+0x94>
   14062:	da3e                	sw	a5,52(sp)
   14064:	dc26                	sw	s1,56(sp)
   14066:	02910e23          	sb	s1,60(sp)
   1406a:	6505                	lui	a0,0x1
   1406c:	4589                	li	a1,2
   1406e:	460d                	li	a2,3
   14070:	b3c50513          	addi	a0,a0,-1220 # b3c <.Lline_table_start1+0x911>
   14074:	4709                	li	a4,2
   14076:	07f00793          	li	a5,127
   1407a:	4681                	li	a3,0
   1407c:	00000073          	ecall
   14080:	02a7e863          	bltu	a5,a0,140b0 <_ZN20complex_full_dynamic3app17h9fa094581104a76eE+0xc0>
   14084:	00b9a223          	sw	a1,4(s3)
   14088:	4505                	li	a0,1
   1408a:	00a98023          	sb	a0,0(s3)
   1408e:	1848                	addi	a0,sp,52
   14090:	00007097          	auipc	ra,0x7
   14094:	e56080e7          	jalr	-426(ra) # 1aee6 <_ZN9allow_pin12full_dynamic17unshare_if_shared17he9718eb989dae51aE>
   14098:	0028                	addi	a0,sp,8
   1409a:	00007097          	auipc	ra,0x7
   1409e:	e4c080e7          	jalr	-436(ra) # 1aee6 <_ZN9allow_pin12full_dynamic17unshare_if_shared17he9718eb989dae51aE>
   140a2:	40ba                	lw	ra,140(sp)
   140a4:	442a                	lw	s0,136(sp)
   140a6:	449a                	lw	s1,132(sp)
   140a8:	490a                	lw	s2,128(sp)
   140aa:	59f6                	lw	s3,124(sp)
   140ac:	6149                	addi	sp,sp,144
   140ae:	8082                	ret
   140b0:	0028                	addi	a0,sp,8
   140b2:	00007097          	auipc	ra,0x7
   140b6:	e34080e7          	jalr	-460(ra) # 1aee6 <_ZN9allow_pin12full_dynamic17unshare_if_shared17he9718eb989dae51aE>
   140ba:	1848                	addi	a0,sp,52
   140bc:	00007097          	auipc	ra,0x7
   140c0:	e2a080e7          	jalr	-470(ra) # 1aee6 <_ZN9allow_pin12full_dynamic17unshare_if_shared17he9718eb989dae51aE>
   140c4:	1848                	addi	a0,sp,52
   140c6:	00007097          	auipc	ra,0x7
   140ca:	e20080e7          	jalr	-480(ra) # 1aee6 <_ZN9allow_pin12full_dynamic17unshare_if_shared17he9718eb989dae51aE>
   140ce:	00198513          	addi	a0,s3,1
   140d2:	03c00613          	li	a2,60
   140d6:	85ca                	mv	a1,s2
   140d8:	00007097          	auipc	ra,0x7
   140dc:	e9a080e7          	jalr	-358(ra) # 1af72 <memcpy>
   140e0:	4501                	li	a0,0
   140e2:	b765                	j	1408a <_ZN20complex_full_dynamic3app17h9fa094581104a76eE+0x9a>

000140e4 <_ZN20complex_full_dynamic3app17h9fa71ecd2d877553E>:
   140e4:	7171                	addi	sp,sp,-176
   140e6:	d706                	sw	ra,172(sp)
   140e8:	d522                	sw	s0,168(sp)
   140ea:	d326                	sw	s1,164(sp)
   140ec:	d14a                	sw	s2,160(sp)
   140ee:	cf4e                	sw	s3,156(sp)
   140f0:	89aa                	mv	s3,a0
   140f2:	4409                	li	s0,2
   140f4:	00810823          	sb	s0,16(sp)
   140f8:	0844                	addi	s1,sp,20
   140fa:	02700613          	li	a2,39
   140fe:	8526                	mv	a0,s1
   14100:	00007097          	auipc	ra,0x7
   14104:	e72080e7          	jalr	-398(ra) # 1af72 <memcpy>
   14108:	04810913          	addi	s2,sp,72
   1410c:	05100613          	li	a2,81
   14110:	854a                	mv	a0,s2
   14112:	4581                	li	a1,0
   14114:	00007097          	auipc	ra,0x7
   14118:	df2080e7          	jalr	-526(ra) # 1af06 <memset>
   1411c:	4581                	li	a1,0
   1411e:	8626                	mv	a2,s1
   14120:	04810223          	sb	s0,68(sp)
   14124:	6505                	lui	a0,0x1
   14126:	4491                	li	s1,4
   14128:	a3650793          	addi	a5,a0,-1482 # a36 <.Lline_table_start1+0x80b>
   1412c:	02700693          	li	a3,39
   14130:	4711                	li	a4,4
   14132:	853e                	mv	a0,a5
   14134:	00000073          	ecall
   14138:	04850363          	beq	a0,s0,1417e <_ZN20complex_full_dynamic3app17h9fa71ecd2d877553E+0x9a>
   1413c:	853e                	mv	a0,a5
   1413e:	864a                	mv	a2,s2
   14140:	c43e                	sw	a5,8(sp)
   14142:	c602                	sw	zero,12(sp)
   14144:	00910823          	sb	s1,16(sp)
   14148:	448d                	li	s1,3
   1414a:	4591                	li	a1,4
   1414c:	05100693          	li	a3,81
   14150:	470d                	li	a4,3
   14152:	00000073          	ecall
   14156:	02850463          	beq	a0,s0,1417e <_ZN20complex_full_dynamic3app17h9fa71ecd2d877553E+0x9a>
   1415a:	4511                	li	a0,4
   1415c:	6585                	lui	a1,0x1
   1415e:	4611                	li	a2,4
   14160:	de3e                	sw	a5,60(sp)
   14162:	c0aa                	sw	a0,64(sp)
   14164:	04910223          	sb	s1,68(sp)
   14168:	a3658513          	addi	a0,a1,-1482 # a36 <.Lline_table_start1+0x80b>
   1416c:	4709                	li	a4,2
   1416e:	07f00793          	li	a5,127
   14172:	4581                	li	a1,0
   14174:	4681                	li	a3,0
   14176:	00000073          	ecall
   1417a:	02a7e863          	bltu	a5,a0,141aa <_ZN20complex_full_dynamic3app17h9fa71ecd2d877553E+0xc6>
   1417e:	00b9a223          	sw	a1,4(s3)
   14182:	4505                	li	a0,1
   14184:	00a98023          	sb	a0,0(s3)
   14188:	1868                	addi	a0,sp,60
   1418a:	00007097          	auipc	ra,0x7
   1418e:	d5c080e7          	jalr	-676(ra) # 1aee6 <_ZN9allow_pin12full_dynamic17unshare_if_shared17he9718eb989dae51aE>
   14192:	0028                	addi	a0,sp,8
   14194:	00007097          	auipc	ra,0x7
   14198:	d52080e7          	jalr	-686(ra) # 1aee6 <_ZN9allow_pin12full_dynamic17unshare_if_shared17he9718eb989dae51aE>
   1419c:	50ba                	lw	ra,172(sp)
   1419e:	542a                	lw	s0,168(sp)
   141a0:	549a                	lw	s1,164(sp)
   141a2:	590a                	lw	s2,160(sp)
   141a4:	49fa                	lw	s3,156(sp)
   141a6:	614d                	addi	sp,sp,176
   141a8:	8082                	ret
   141aa:	0028                	addi	a0,sp,8
   141ac:	00007097          	auipc	ra,0x7
   141b0:	d3a080e7          	jalr	-710(ra) # 1aee6 <_ZN9allow_pin12full_dynamic17unshare_if_shared17he9718eb989dae51aE>
   141b4:	1868                	addi	a0,sp,60
   141b6:	00007097          	auipc	ra,0x7
   141ba:	d30080e7          	jalr	-720(ra) # 1aee6 <_ZN9allow_pin12full_dynamic17unshare_if_shared17he9718eb989dae51aE>
   141be:	1868                	addi	a0,sp,60
   141c0:	00007097          	auipc	ra,0x7
   141c4:	d26080e7          	jalr	-730(ra) # 1aee6 <_ZN9allow_pin12full_dynamic17unshare_if_shared17he9718eb989dae51aE>
   141c8:	00198513          	addi	a0,s3,1
   141cc:	05100613          	li	a2,81
   141d0:	85ca                	mv	a1,s2
   141d2:	00007097          	auipc	ra,0x7
   141d6:	da0080e7          	jalr	-608(ra) # 1af72 <memcpy>
   141da:	4501                	li	a0,0
   141dc:	b765                	j	14184 <_ZN20complex_full_dynamic3app17h9fa71ecd2d877553E+0xa0>

000141de <_ZN20complex_full_dynamic3app17ha074cbcf19945e18E>:
   141de:	7175                	addi	sp,sp,-144
   141e0:	c706                	sw	ra,140(sp)
   141e2:	c522                	sw	s0,136(sp)
   141e4:	c326                	sw	s1,132(sp)
   141e6:	c14a                	sw	s2,128(sp)
   141e8:	dece                	sw	s3,124(sp)
   141ea:	892a                	mv	s2,a0
   141ec:	4409                	li	s0,2
   141ee:	00810423          	sb	s0,8(sp)
   141f2:	0064                	addi	s1,sp,12
   141f4:	05100613          	li	a2,81
   141f8:	8526                	mv	a0,s1
   141fa:	00007097          	auipc	ra,0x7
   141fe:	d78080e7          	jalr	-648(ra) # 1af72 <memcpy>
   14202:	4581                	li	a1,0
   14204:	8626                	mv	a2,s1
   14206:	06011c23          	sh	zero,120(sp)
   1420a:	06010d23          	sb	zero,122(sp)
   1420e:	06810423          	sb	s0,104(sp)
   14212:	d682                	sw	zero,108(sp)
   14214:	d882                	sw	zero,112(sp)
   14216:	da82                	sw	zero,116(sp)
   14218:	6505                	lui	a0,0x1
   1421a:	4491                	li	s1,4
   1421c:	3bf50793          	addi	a5,a0,959 # 13bf <.Lline_table_start1+0x1194>
   14220:	05100693          	li	a3,81
   14224:	4711                	li	a4,4
   14226:	853e                	mv	a0,a5
   14228:	00000073          	ecall
   1422c:	04850363          	beq	a0,s0,14272 <_ZN20complex_full_dynamic3app17ha074cbcf19945e18E+0x94>
   14230:	853e                	mv	a0,a5
   14232:	06c10993          	addi	s3,sp,108
   14236:	c03e                	sw	a5,0(sp)
   14238:	c202                	sw	zero,4(sp)
   1423a:	00910423          	sb	s1,8(sp)
   1423e:	448d                	li	s1,3
   14240:	458d                	li	a1,3
   14242:	46bd                	li	a3,15
   14244:	470d                	li	a4,3
   14246:	864e                	mv	a2,s3
   14248:	00000073          	ecall
   1424c:	02850363          	beq	a0,s0,14272 <_ZN20complex_full_dynamic3app17ha074cbcf19945e18E+0x94>
   14250:	d0be                	sw	a5,96(sp)
   14252:	d2a6                	sw	s1,100(sp)
   14254:	06910423          	sb	s1,104(sp)
   14258:	6505                	lui	a0,0x1
   1425a:	460d                	li	a2,3
   1425c:	3bf50513          	addi	a0,a0,959 # 13bf <.Lline_table_start1+0x1194>
   14260:	4709                	li	a4,2
   14262:	07f00793          	li	a5,127
   14266:	4581                	li	a1,0
   14268:	4681                	li	a3,0
   1426a:	00000073          	ecall
   1426e:	02a7e863          	bltu	a5,a0,1429e <_ZN20complex_full_dynamic3app17ha074cbcf19945e18E+0xc0>
   14272:	00b92223          	sw	a1,4(s2)
   14276:	4505                	li	a0,1
   14278:	00a90023          	sb	a0,0(s2)
   1427c:	1088                	addi	a0,sp,96
   1427e:	00007097          	auipc	ra,0x7
   14282:	c68080e7          	jalr	-920(ra) # 1aee6 <_ZN9allow_pin12full_dynamic17unshare_if_shared17he9718eb989dae51aE>
   14286:	850a                	mv	a0,sp
   14288:	00007097          	auipc	ra,0x7
   1428c:	c5e080e7          	jalr	-930(ra) # 1aee6 <_ZN9allow_pin12full_dynamic17unshare_if_shared17he9718eb989dae51aE>
   14290:	40ba                	lw	ra,140(sp)
   14292:	442a                	lw	s0,136(sp)
   14294:	449a                	lw	s1,132(sp)
   14296:	490a                	lw	s2,128(sp)
   14298:	59f6                	lw	s3,124(sp)
   1429a:	6149                	addi	sp,sp,144
   1429c:	8082                	ret
   1429e:	850a                	mv	a0,sp
   142a0:	00007097          	auipc	ra,0x7
   142a4:	c46080e7          	jalr	-954(ra) # 1aee6 <_ZN9allow_pin12full_dynamic17unshare_if_shared17he9718eb989dae51aE>
   142a8:	1088                	addi	a0,sp,96
   142aa:	00007097          	auipc	ra,0x7
   142ae:	c3c080e7          	jalr	-964(ra) # 1aee6 <_ZN9allow_pin12full_dynamic17unshare_if_shared17he9718eb989dae51aE>
   142b2:	1088                	addi	a0,sp,96
   142b4:	00007097          	auipc	ra,0x7
   142b8:	c32080e7          	jalr	-974(ra) # 1aee6 <_ZN9allow_pin12full_dynamic17unshare_if_shared17he9718eb989dae51aE>
   142bc:	00190513          	addi	a0,s2,1
   142c0:	463d                	li	a2,15
   142c2:	85ce                	mv	a1,s3
   142c4:	00007097          	auipc	ra,0x7
   142c8:	cae080e7          	jalr	-850(ra) # 1af72 <memcpy>
   142cc:	4501                	li	a0,0
   142ce:	b76d                	j	14278 <_ZN20complex_full_dynamic3app17ha074cbcf19945e18E+0x9a>

000142d0 <_ZN20complex_full_dynamic3app17ha092d2e7a9a16ceaE>:
   142d0:	7159                	addi	sp,sp,-112
   142d2:	d686                	sw	ra,108(sp)
   142d4:	d4a2                	sw	s0,104(sp)
   142d6:	d2a6                	sw	s1,100(sp)
   142d8:	d0ca                	sw	s2,96(sp)
   142da:	cece                	sw	s3,92(sp)
   142dc:	89aa                	mv	s3,a0
   142de:	4409                	li	s0,2
   142e0:	00810a23          	sb	s0,20(sp)
   142e4:	0824                	addi	s1,sp,24
   142e6:	463d                	li	a2,15
   142e8:	8526                	mv	a0,s1
   142ea:	00007097          	auipc	ra,0x7
   142ee:	c88080e7          	jalr	-888(ra) # 1af72 <memcpy>
   142f2:	03410913          	addi	s2,sp,52
   142f6:	02500613          	li	a2,37
   142fa:	854a                	mv	a0,s2
   142fc:	4581                	li	a1,0
   142fe:	00007097          	auipc	ra,0x7
   14302:	c08080e7          	jalr	-1016(ra) # 1af06 <memset>
   14306:	8626                	mv	a2,s1
   14308:	02810823          	sb	s0,48(sp)
   1430c:	0a200793          	li	a5,162
   14310:	44a1                	li	s1,8
   14312:	4811                	li	a6,4
   14314:	0a200513          	li	a0,162
   14318:	45a1                	li	a1,8
   1431a:	46bd                	li	a3,15
   1431c:	4711                	li	a4,4
   1431e:	00000073          	ecall
   14322:	04850463          	beq	a0,s0,1436a <_ZN20complex_full_dynamic3app17ha092d2e7a9a16ceaE+0x9a>
   14326:	4581                	li	a1,0
   14328:	864a                	mv	a2,s2
   1432a:	c63e                	sw	a5,12(sp)
   1432c:	c826                	sw	s1,16(sp)
   1432e:	01010a23          	sb	a6,20(sp)
   14332:	478d                	li	a5,3
   14334:	0a200513          	li	a0,162
   14338:	02500693          	li	a3,37
   1433c:	470d                	li	a4,3
   1433e:	00000073          	ecall
   14342:	02850463          	beq	a0,s0,1436a <_ZN20complex_full_dynamic3app17ha092d2e7a9a16ceaE+0x9a>
   14346:	0a200613          	li	a2,162
   1434a:	0a200513          	li	a0,162
   1434e:	45a1                	li	a1,8
   14350:	4709                	li	a4,2
   14352:	07f00493          	li	s1,127
   14356:	d432                	sw	a2,40(sp)
   14358:	d602                	sw	zero,44(sp)
   1435a:	02f10823          	sb	a5,48(sp)
   1435e:	4601                	li	a2,0
   14360:	4681                	li	a3,0
   14362:	00000073          	ecall
   14366:	02a4e863          	bltu	s1,a0,14396 <_ZN20complex_full_dynamic3app17ha092d2e7a9a16ceaE+0xc6>
   1436a:	00b9a223          	sw	a1,4(s3)
   1436e:	4505                	li	a0,1
   14370:	00a98023          	sb	a0,0(s3)
   14374:	1028                	addi	a0,sp,40
   14376:	00007097          	auipc	ra,0x7
   1437a:	b70080e7          	jalr	-1168(ra) # 1aee6 <_ZN9allow_pin12full_dynamic17unshare_if_shared17he9718eb989dae51aE>
   1437e:	0068                	addi	a0,sp,12
   14380:	00007097          	auipc	ra,0x7
   14384:	b66080e7          	jalr	-1178(ra) # 1aee6 <_ZN9allow_pin12full_dynamic17unshare_if_shared17he9718eb989dae51aE>
   14388:	50b6                	lw	ra,108(sp)
   1438a:	5426                	lw	s0,104(sp)
   1438c:	5496                	lw	s1,100(sp)
   1438e:	5906                	lw	s2,96(sp)
   14390:	49f6                	lw	s3,92(sp)
   14392:	6165                	addi	sp,sp,112
   14394:	8082                	ret
   14396:	0068                	addi	a0,sp,12
   14398:	00007097          	auipc	ra,0x7
   1439c:	b4e080e7          	jalr	-1202(ra) # 1aee6 <_ZN9allow_pin12full_dynamic17unshare_if_shared17he9718eb989dae51aE>
   143a0:	1028                	addi	a0,sp,40
   143a2:	00007097          	auipc	ra,0x7
   143a6:	b44080e7          	jalr	-1212(ra) # 1aee6 <_ZN9allow_pin12full_dynamic17unshare_if_shared17he9718eb989dae51aE>
   143aa:	1028                	addi	a0,sp,40
   143ac:	00007097          	auipc	ra,0x7
   143b0:	b3a080e7          	jalr	-1222(ra) # 1aee6 <_ZN9allow_pin12full_dynamic17unshare_if_shared17he9718eb989dae51aE>
   143b4:	00198513          	addi	a0,s3,1
   143b8:	02500613          	li	a2,37
   143bc:	85ca                	mv	a1,s2
   143be:	00007097          	auipc	ra,0x7
   143c2:	bb4080e7          	jalr	-1100(ra) # 1af72 <memcpy>
   143c6:	4501                	li	a0,0
   143c8:	b765                	j	14370 <_ZN20complex_full_dynamic3app17ha092d2e7a9a16ceaE+0xa0>

000143ca <_ZN20complex_full_dynamic3app17ha12f4dfc33846659E>:
   143ca:	7175                	addi	sp,sp,-144
   143cc:	c706                	sw	ra,140(sp)
   143ce:	c522                	sw	s0,136(sp)
   143d0:	c326                	sw	s1,132(sp)
   143d2:	c14a                	sw	s2,128(sp)
   143d4:	dece                	sw	s3,124(sp)
   143d6:	89aa                	mv	s3,a0
   143d8:	4409                	li	s0,2
   143da:	00810a23          	sb	s0,20(sp)
   143de:	0824                	addi	s1,sp,24
   143e0:	02c00613          	li	a2,44
   143e4:	8526                	mv	a0,s1
   143e6:	00007097          	auipc	ra,0x7
   143ea:	b8c080e7          	jalr	-1140(ra) # 1af72 <memcpy>
   143ee:	05010913          	addi	s2,sp,80
   143f2:	02a00613          	li	a2,42
   143f6:	854a                	mv	a0,s2
   143f8:	4581                	li	a1,0
   143fa:	00007097          	auipc	ra,0x7
   143fe:	b0c080e7          	jalr	-1268(ra) # 1af06 <memset>
   14402:	8626                	mv	a2,s1
   14404:	04810623          	sb	s0,76(sp)
   14408:	6509                	lui	a0,0x2
   1440a:	448d                	li	s1,3
   1440c:	4811                	li	a6,4
   1440e:	458d                	li	a1,3
   14410:	4f050793          	addi	a5,a0,1264 # 24f0 <.Lline_table_start1+0x22c5>
   14414:	02c00693          	li	a3,44
   14418:	4711                	li	a4,4
   1441a:	853e                	mv	a0,a5
   1441c:	00000073          	ecall
   14420:	04850263          	beq	a0,s0,14464 <_ZN20complex_full_dynamic3app17ha12f4dfc33846659E+0x9a>
   14424:	c63e                	sw	a5,12(sp)
   14426:	c826                	sw	s1,16(sp)
   14428:	01010a23          	sb	a6,20(sp)
   1442c:	02a00693          	li	a3,42
   14430:	470d                	li	a4,3
   14432:	853e                	mv	a0,a5
   14434:	4581                	li	a1,0
   14436:	864a                	mv	a2,s2
   14438:	00000073          	ecall
   1443c:	02850463          	beq	a0,s0,14464 <_ZN20complex_full_dynamic3app17ha12f4dfc33846659E+0x9a>
   14440:	450d                	li	a0,3
   14442:	6609                	lui	a2,0x2
   14444:	458d                	li	a1,3
   14446:	c2be                	sw	a5,68(sp)
   14448:	c482                	sw	zero,72(sp)
   1444a:	04a10623          	sb	a0,76(sp)
   1444e:	4f060513          	addi	a0,a2,1264 # 24f0 <.Lline_table_start1+0x22c5>
   14452:	4709                	li	a4,2
   14454:	07f00793          	li	a5,127
   14458:	4601                	li	a2,0
   1445a:	4681                	li	a3,0
   1445c:	00000073          	ecall
   14460:	02a7e863          	bltu	a5,a0,14490 <_ZN20complex_full_dynamic3app17ha12f4dfc33846659E+0xc6>
   14464:	00b9a223          	sw	a1,4(s3)
   14468:	4505                	li	a0,1
   1446a:	00a98023          	sb	a0,0(s3)
   1446e:	00c8                	addi	a0,sp,68
   14470:	00007097          	auipc	ra,0x7
   14474:	a76080e7          	jalr	-1418(ra) # 1aee6 <_ZN9allow_pin12full_dynamic17unshare_if_shared17he9718eb989dae51aE>
   14478:	0068                	addi	a0,sp,12
   1447a:	00007097          	auipc	ra,0x7
   1447e:	a6c080e7          	jalr	-1428(ra) # 1aee6 <_ZN9allow_pin12full_dynamic17unshare_if_shared17he9718eb989dae51aE>
   14482:	40ba                	lw	ra,140(sp)
   14484:	442a                	lw	s0,136(sp)
   14486:	449a                	lw	s1,132(sp)
   14488:	490a                	lw	s2,128(sp)
   1448a:	59f6                	lw	s3,124(sp)
   1448c:	6149                	addi	sp,sp,144
   1448e:	8082                	ret
   14490:	0068                	addi	a0,sp,12
   14492:	00007097          	auipc	ra,0x7
   14496:	a54080e7          	jalr	-1452(ra) # 1aee6 <_ZN9allow_pin12full_dynamic17unshare_if_shared17he9718eb989dae51aE>
   1449a:	00c8                	addi	a0,sp,68
   1449c:	00007097          	auipc	ra,0x7
   144a0:	a4a080e7          	jalr	-1462(ra) # 1aee6 <_ZN9allow_pin12full_dynamic17unshare_if_shared17he9718eb989dae51aE>
   144a4:	00c8                	addi	a0,sp,68
   144a6:	00007097          	auipc	ra,0x7
   144aa:	a40080e7          	jalr	-1472(ra) # 1aee6 <_ZN9allow_pin12full_dynamic17unshare_if_shared17he9718eb989dae51aE>
   144ae:	00198513          	addi	a0,s3,1
   144b2:	02a00613          	li	a2,42
   144b6:	85ca                	mv	a1,s2
   144b8:	00007097          	auipc	ra,0x7
   144bc:	aba080e7          	jalr	-1350(ra) # 1af72 <memcpy>
   144c0:	4501                	li	a0,0
   144c2:	b765                	j	1446a <_ZN20complex_full_dynamic3app17ha12f4dfc33846659E+0xa0>

000144c4 <_ZN20complex_full_dynamic3app17ha49e38def16e6745E>:
   144c4:	7175                	addi	sp,sp,-144
   144c6:	c706                	sw	ra,140(sp)
   144c8:	c522                	sw	s0,136(sp)
   144ca:	c326                	sw	s1,132(sp)
   144cc:	c14a                	sw	s2,128(sp)
   144ce:	dece                	sw	s3,124(sp)
   144d0:	892a                	mv	s2,a0
   144d2:	4409                	li	s0,2
   144d4:	00810823          	sb	s0,16(sp)
   144d8:	0844                	addi	s1,sp,20
   144da:	04100613          	li	a2,65
   144de:	8526                	mv	a0,s1
   144e0:	00007097          	auipc	ra,0x7
   144e4:	a92080e7          	jalr	-1390(ra) # 1af72 <memcpy>
   144e8:	8626                	mv	a2,s1
   144ea:	d882                	sw	zero,112(sp)
   144ec:	da82                	sw	zero,116(sp)
   144ee:	dc82                	sw	zero,120(sp)
   144f0:	06810023          	sb	s0,96(sp)
   144f4:	d282                	sw	zero,100(sp)
   144f6:	d482                	sw	zero,104(sp)
   144f8:	d682                	sw	zero,108(sp)
   144fa:	6509                	lui	a0,0x2
   144fc:	4485                	li	s1,1
   144fe:	4811                	li	a6,4
   14500:	4585                	li	a1,1
   14502:	15650793          	addi	a5,a0,342 # 2156 <.Lline_table_start1+0x1f2b>
   14506:	04100693          	li	a3,65
   1450a:	4711                	li	a4,4
   1450c:	853e                	mv	a0,a5
   1450e:	00000073          	ecall
   14512:	04850463          	beq	a0,s0,1455a <_ZN20complex_full_dynamic3app17ha49e38def16e6745E+0x96>
   14516:	853e                	mv	a0,a5
   14518:	06410993          	addi	s3,sp,100
   1451c:	c43e                	sw	a5,8(sp)
   1451e:	c626                	sw	s1,12(sp)
   14520:	01010823          	sb	a6,16(sp)
   14524:	44a5                	li	s1,9
   14526:	480d                	li	a6,3
   14528:	45a5                	li	a1,9
   1452a:	46e1                	li	a3,24
   1452c:	470d                	li	a4,3
   1452e:	864e                	mv	a2,s3
   14530:	00000073          	ecall
   14534:	02850363          	beq	a0,s0,1455a <_ZN20complex_full_dynamic3app17ha49e38def16e6745E+0x96>
   14538:	ccbe                	sw	a5,88(sp)
   1453a:	cea6                	sw	s1,92(sp)
   1453c:	07010023          	sb	a6,96(sp)
   14540:	6509                	lui	a0,0x2
   14542:	4585                	li	a1,1
   14544:	4625                	li	a2,9
   14546:	15650513          	addi	a0,a0,342 # 2156 <.Lline_table_start1+0x1f2b>
   1454a:	4709                	li	a4,2
   1454c:	07f00793          	li	a5,127
   14550:	4681                	li	a3,0
   14552:	00000073          	ecall
   14556:	02a7e863          	bltu	a5,a0,14586 <_ZN20complex_full_dynamic3app17ha49e38def16e6745E+0xc2>
   1455a:	00b92223          	sw	a1,4(s2)
   1455e:	4505                	li	a0,1
   14560:	00a90023          	sb	a0,0(s2)
   14564:	08a8                	addi	a0,sp,88
   14566:	00007097          	auipc	ra,0x7
   1456a:	980080e7          	jalr	-1664(ra) # 1aee6 <_ZN9allow_pin12full_dynamic17unshare_if_shared17he9718eb989dae51aE>
   1456e:	0028                	addi	a0,sp,8
   14570:	00007097          	auipc	ra,0x7
   14574:	976080e7          	jalr	-1674(ra) # 1aee6 <_ZN9allow_pin12full_dynamic17unshare_if_shared17he9718eb989dae51aE>
   14578:	40ba                	lw	ra,140(sp)
   1457a:	442a                	lw	s0,136(sp)
   1457c:	449a                	lw	s1,132(sp)
   1457e:	490a                	lw	s2,128(sp)
   14580:	59f6                	lw	s3,124(sp)
   14582:	6149                	addi	sp,sp,144
   14584:	8082                	ret
   14586:	0028                	addi	a0,sp,8
   14588:	00007097          	auipc	ra,0x7
   1458c:	95e080e7          	jalr	-1698(ra) # 1aee6 <_ZN9allow_pin12full_dynamic17unshare_if_shared17he9718eb989dae51aE>
   14590:	08a8                	addi	a0,sp,88
   14592:	00007097          	auipc	ra,0x7
   14596:	954080e7          	jalr	-1708(ra) # 1aee6 <_ZN9allow_pin12full_dynamic17unshare_if_shared17he9718eb989dae51aE>
   1459a:	08a8                	addi	a0,sp,88
   1459c:	00007097          	auipc	ra,0x7
   145a0:	94a080e7          	jalr	-1718(ra) # 1aee6 <_ZN9allow_pin12full_dynamic17unshare_if_shared17he9718eb989dae51aE>
   145a4:	00190513          	addi	a0,s2,1
   145a8:	4661                	li	a2,24
   145aa:	85ce                	mv	a1,s3
   145ac:	00007097          	auipc	ra,0x7
   145b0:	9c6080e7          	jalr	-1594(ra) # 1af72 <memcpy>
   145b4:	4501                	li	a0,0
   145b6:	b76d                	j	14560 <_ZN20complex_full_dynamic3app17ha49e38def16e6745E+0x9c>

000145b8 <_ZN20complex_full_dynamic3app17ha4bab3f54299b465E>:
   145b8:	7135                	addi	sp,sp,-160
   145ba:	cf06                	sw	ra,156(sp)
   145bc:	cd22                	sw	s0,152(sp)
   145be:	cb26                	sw	s1,148(sp)
   145c0:	c94a                	sw	s2,144(sp)
   145c2:	c74e                	sw	s3,140(sp)
   145c4:	89aa                	mv	s3,a0
   145c6:	4409                	li	s0,2
   145c8:	00810a23          	sb	s0,20(sp)
   145cc:	0824                	addi	s1,sp,24
   145ce:	04400613          	li	a2,68
   145d2:	8526                	mv	a0,s1
   145d4:	00007097          	auipc	ra,0x7
   145d8:	99e080e7          	jalr	-1634(ra) # 1af72 <memcpy>
   145dc:	06810913          	addi	s2,sp,104
   145e0:	02300613          	li	a2,35
   145e4:	854a                	mv	a0,s2
   145e6:	4581                	li	a1,0
   145e8:	00007097          	auipc	ra,0x7
   145ec:	91e080e7          	jalr	-1762(ra) # 1af06 <memset>
   145f0:	8626                	mv	a2,s1
   145f2:	06810223          	sb	s0,100(sp)
   145f6:	6505                	lui	a0,0x1
   145f8:	4499                	li	s1,6
   145fa:	4811                	li	a6,4
   145fc:	4599                	li	a1,6
   145fe:	9bf50793          	addi	a5,a0,-1601 # 9bf <.Lline_table_start1+0x794>
   14602:	04400693          	li	a3,68
   14606:	4711                	li	a4,4
   14608:	853e                	mv	a0,a5
   1460a:	00000073          	ecall
   1460e:	04850263          	beq	a0,s0,14652 <_ZN20complex_full_dynamic3app17ha4bab3f54299b465E+0x9a>
   14612:	853e                	mv	a0,a5
   14614:	864a                	mv	a2,s2
   14616:	c63e                	sw	a5,12(sp)
   14618:	c826                	sw	s1,16(sp)
   1461a:	01010a23          	sb	a6,20(sp)
   1461e:	448d                	li	s1,3
   14620:	458d                	li	a1,3
   14622:	02300693          	li	a3,35
   14626:	470d                	li	a4,3
   14628:	00000073          	ecall
   1462c:	02850363          	beq	a0,s0,14652 <_ZN20complex_full_dynamic3app17ha4bab3f54299b465E+0x9a>
   14630:	cebe                	sw	a5,92(sp)
   14632:	d0a6                	sw	s1,96(sp)
   14634:	06910223          	sb	s1,100(sp)
   14638:	6505                	lui	a0,0x1
   1463a:	4599                	li	a1,6
   1463c:	460d                	li	a2,3
   1463e:	9bf50513          	addi	a0,a0,-1601 # 9bf <.Lline_table_start1+0x794>
   14642:	4709                	li	a4,2
   14644:	07f00793          	li	a5,127
   14648:	4681                	li	a3,0
   1464a:	00000073          	ecall
   1464e:	02a7e863          	bltu	a5,a0,1467e <_ZN20complex_full_dynamic3app17ha4bab3f54299b465E+0xc6>
   14652:	00b9a223          	sw	a1,4(s3)
   14656:	4505                	li	a0,1
   14658:	00a98023          	sb	a0,0(s3)
   1465c:	08e8                	addi	a0,sp,92
   1465e:	00007097          	auipc	ra,0x7
   14662:	888080e7          	jalr	-1912(ra) # 1aee6 <_ZN9allow_pin12full_dynamic17unshare_if_shared17he9718eb989dae51aE>
   14666:	0068                	addi	a0,sp,12
   14668:	00007097          	auipc	ra,0x7
   1466c:	87e080e7          	jalr	-1922(ra) # 1aee6 <_ZN9allow_pin12full_dynamic17unshare_if_shared17he9718eb989dae51aE>
   14670:	40fa                	lw	ra,156(sp)
   14672:	446a                	lw	s0,152(sp)
   14674:	44da                	lw	s1,148(sp)
   14676:	494a                	lw	s2,144(sp)
   14678:	49ba                	lw	s3,140(sp)
   1467a:	610d                	addi	sp,sp,160
   1467c:	8082                	ret
   1467e:	0068                	addi	a0,sp,12
   14680:	00007097          	auipc	ra,0x7
   14684:	866080e7          	jalr	-1946(ra) # 1aee6 <_ZN9allow_pin12full_dynamic17unshare_if_shared17he9718eb989dae51aE>
   14688:	08e8                	addi	a0,sp,92
   1468a:	00007097          	auipc	ra,0x7
   1468e:	85c080e7          	jalr	-1956(ra) # 1aee6 <_ZN9allow_pin12full_dynamic17unshare_if_shared17he9718eb989dae51aE>
   14692:	08e8                	addi	a0,sp,92
   14694:	00007097          	auipc	ra,0x7
   14698:	852080e7          	jalr	-1966(ra) # 1aee6 <_ZN9allow_pin12full_dynamic17unshare_if_shared17he9718eb989dae51aE>
   1469c:	00198513          	addi	a0,s3,1
   146a0:	02300613          	li	a2,35
   146a4:	85ca                	mv	a1,s2
   146a6:	00007097          	auipc	ra,0x7
   146aa:	8cc080e7          	jalr	-1844(ra) # 1af72 <memcpy>
   146ae:	4501                	li	a0,0
   146b0:	b765                	j	14658 <_ZN20complex_full_dynamic3app17ha4bab3f54299b465E+0xa0>

000146b2 <_ZN20complex_full_dynamic3app17ha5b5cf8fdee8b935E>:
   146b2:	7131                	addi	sp,sp,-192
   146b4:	df06                	sw	ra,188(sp)
   146b6:	dd22                	sw	s0,184(sp)
   146b8:	db26                	sw	s1,180(sp)
   146ba:	d94a                	sw	s2,176(sp)
   146bc:	d74e                	sw	s3,172(sp)
   146be:	89aa                	mv	s3,a0
   146c0:	4409                	li	s0,2
   146c2:	00810823          	sb	s0,16(sp)
   146c6:	0844                	addi	s1,sp,20
   146c8:	04d00613          	li	a2,77
   146cc:	8526                	mv	a0,s1
   146ce:	00007097          	auipc	ra,0x7
   146d2:	8a4080e7          	jalr	-1884(ra) # 1af72 <memcpy>
   146d6:	07010913          	addi	s2,sp,112
   146da:	03c00613          	li	a2,60
   146de:	854a                	mv	a0,s2
   146e0:	4581                	li	a1,0
   146e2:	00007097          	auipc	ra,0x7
   146e6:	824080e7          	jalr	-2012(ra) # 1af06 <memset>
   146ea:	8626                	mv	a2,s1
   146ec:	06810623          	sb	s0,108(sp)
   146f0:	6509                	lui	a0,0x2
   146f2:	4491                	li	s1,4
   146f4:	4591                	li	a1,4
   146f6:	1ab50793          	addi	a5,a0,427 # 21ab <.Lline_table_start1+0x1f80>
   146fa:	04d00693          	li	a3,77
   146fe:	4711                	li	a4,4
   14700:	853e                	mv	a0,a5
   14702:	00000073          	ecall
   14706:	04850363          	beq	a0,s0,1474c <_ZN20complex_full_dynamic3app17ha5b5cf8fdee8b935E+0x9a>
   1470a:	853e                	mv	a0,a5
   1470c:	864a                	mv	a2,s2
   1470e:	c43e                	sw	a5,8(sp)
   14710:	c626                	sw	s1,12(sp)
   14712:	00910823          	sb	s1,16(sp)
   14716:	44a5                	li	s1,9
   14718:	480d                	li	a6,3
   1471a:	45a5                	li	a1,9
   1471c:	03c00693          	li	a3,60
   14720:	470d                	li	a4,3
   14722:	00000073          	ecall
   14726:	02850363          	beq	a0,s0,1474c <_ZN20complex_full_dynamic3app17ha5b5cf8fdee8b935E+0x9a>
   1472a:	d2be                	sw	a5,100(sp)
   1472c:	d4a6                	sw	s1,104(sp)
   1472e:	07010623          	sb	a6,108(sp)
   14732:	6509                	lui	a0,0x2
   14734:	4591                	li	a1,4
   14736:	4625                	li	a2,9
   14738:	1ab50513          	addi	a0,a0,427 # 21ab <.Lline_table_start1+0x1f80>
   1473c:	4709                	li	a4,2
   1473e:	07f00793          	li	a5,127
   14742:	4681                	li	a3,0
   14744:	00000073          	ecall
   14748:	02a7e863          	bltu	a5,a0,14778 <_ZN20complex_full_dynamic3app17ha5b5cf8fdee8b935E+0xc6>
   1474c:	00b9a223          	sw	a1,4(s3)
   14750:	4505                	li	a0,1
   14752:	00a98023          	sb	a0,0(s3)
   14756:	10c8                	addi	a0,sp,100
   14758:	00006097          	auipc	ra,0x6
   1475c:	78e080e7          	jalr	1934(ra) # 1aee6 <_ZN9allow_pin12full_dynamic17unshare_if_shared17he9718eb989dae51aE>
   14760:	0028                	addi	a0,sp,8
   14762:	00006097          	auipc	ra,0x6
   14766:	784080e7          	jalr	1924(ra) # 1aee6 <_ZN9allow_pin12full_dynamic17unshare_if_shared17he9718eb989dae51aE>
   1476a:	50fa                	lw	ra,188(sp)
   1476c:	546a                	lw	s0,184(sp)
   1476e:	54da                	lw	s1,180(sp)
   14770:	594a                	lw	s2,176(sp)
   14772:	59ba                	lw	s3,172(sp)
   14774:	6129                	addi	sp,sp,192
   14776:	8082                	ret
   14778:	0028                	addi	a0,sp,8
   1477a:	00006097          	auipc	ra,0x6
   1477e:	76c080e7          	jalr	1900(ra) # 1aee6 <_ZN9allow_pin12full_dynamic17unshare_if_shared17he9718eb989dae51aE>
   14782:	10c8                	addi	a0,sp,100
   14784:	00006097          	auipc	ra,0x6
   14788:	762080e7          	jalr	1890(ra) # 1aee6 <_ZN9allow_pin12full_dynamic17unshare_if_shared17he9718eb989dae51aE>
   1478c:	10c8                	addi	a0,sp,100
   1478e:	00006097          	auipc	ra,0x6
   14792:	758080e7          	jalr	1880(ra) # 1aee6 <_ZN9allow_pin12full_dynamic17unshare_if_shared17he9718eb989dae51aE>
   14796:	00198513          	addi	a0,s3,1
   1479a:	03c00613          	li	a2,60
   1479e:	85ca                	mv	a1,s2
   147a0:	00006097          	auipc	ra,0x6
   147a4:	7d2080e7          	jalr	2002(ra) # 1af72 <memcpy>
   147a8:	4501                	li	a0,0
   147aa:	b765                	j	14752 <_ZN20complex_full_dynamic3app17ha5b5cf8fdee8b935E+0xa0>

000147ac <_ZN20complex_full_dynamic3app17ha7251b6a90c802e8E>:
   147ac:	7155                	addi	sp,sp,-208
   147ae:	c786                	sw	ra,204(sp)
   147b0:	c5a2                	sw	s0,200(sp)
   147b2:	c3a6                	sw	s1,196(sp)
   147b4:	c1ca                	sw	s2,192(sp)
   147b6:	df4e                	sw	s3,188(sp)
   147b8:	89aa                	mv	s3,a0
   147ba:	4409                	li	s0,2
   147bc:	00810623          	sb	s0,12(sp)
   147c0:	0804                	addi	s1,sp,16
   147c2:	05d00613          	li	a2,93
   147c6:	8526                	mv	a0,s1
   147c8:	00006097          	auipc	ra,0x6
   147cc:	7aa080e7          	jalr	1962(ra) # 1af72 <memcpy>
   147d0:	07c10913          	addi	s2,sp,124
   147d4:	04000613          	li	a2,64
   147d8:	854a                	mv	a0,s2
   147da:	4581                	li	a1,0
   147dc:	00006097          	auipc	ra,0x6
   147e0:	72a080e7          	jalr	1834(ra) # 1af06 <memset>
   147e4:	8626                	mv	a2,s1
   147e6:	06810c23          	sb	s0,120(sp)
   147ea:	6505                	lui	a0,0x1
   147ec:	44a1                	li	s1,8
   147ee:	4811                	li	a6,4
   147f0:	45a1                	li	a1,8
   147f2:	02850793          	addi	a5,a0,40 # 1028 <.Lline_table_start1+0xdfd>
   147f6:	05d00693          	li	a3,93
   147fa:	4711                	li	a4,4
   147fc:	853e                	mv	a0,a5
   147fe:	00000073          	ecall
   14802:	04850363          	beq	a0,s0,14848 <_ZN20complex_full_dynamic3app17ha7251b6a90c802e8E+0x9c>
   14806:	853e                	mv	a0,a5
   14808:	864a                	mv	a2,s2
   1480a:	c23e                	sw	a5,4(sp)
   1480c:	c426                	sw	s1,8(sp)
   1480e:	01010623          	sb	a6,12(sp)
   14812:	448d                	li	s1,3
   14814:	4591                	li	a1,4
   14816:	04000693          	li	a3,64
   1481a:	470d                	li	a4,3
   1481c:	00000073          	ecall
   14820:	02850463          	beq	a0,s0,14848 <_ZN20complex_full_dynamic3app17ha7251b6a90c802e8E+0x9c>
   14824:	4511                	li	a0,4
   14826:	6685                	lui	a3,0x1
   14828:	45a1                	li	a1,8
   1482a:	4611                	li	a2,4
   1482c:	d8be                	sw	a5,112(sp)
   1482e:	daaa                	sw	a0,116(sp)
   14830:	06910c23          	sb	s1,120(sp)
   14834:	02868513          	addi	a0,a3,40 # 1028 <.Lline_table_start1+0xdfd>
   14838:	4709                	li	a4,2
   1483a:	07f00793          	li	a5,127
   1483e:	4681                	li	a3,0
   14840:	00000073          	ecall
   14844:	02a7e863          	bltu	a5,a0,14874 <_ZN20complex_full_dynamic3app17ha7251b6a90c802e8E+0xc8>
   14848:	00b9a223          	sw	a1,4(s3)
   1484c:	4505                	li	a0,1
   1484e:	00a98023          	sb	a0,0(s3)
   14852:	1888                	addi	a0,sp,112
   14854:	00006097          	auipc	ra,0x6
   14858:	692080e7          	jalr	1682(ra) # 1aee6 <_ZN9allow_pin12full_dynamic17unshare_if_shared17he9718eb989dae51aE>
   1485c:	0048                	addi	a0,sp,4
   1485e:	00006097          	auipc	ra,0x6
   14862:	688080e7          	jalr	1672(ra) # 1aee6 <_ZN9allow_pin12full_dynamic17unshare_if_shared17he9718eb989dae51aE>
   14866:	40be                	lw	ra,204(sp)
   14868:	442e                	lw	s0,200(sp)
   1486a:	449e                	lw	s1,196(sp)
   1486c:	490e                	lw	s2,192(sp)
   1486e:	59fa                	lw	s3,188(sp)
   14870:	6169                	addi	sp,sp,208
   14872:	8082                	ret
   14874:	0048                	addi	a0,sp,4
   14876:	00006097          	auipc	ra,0x6
   1487a:	670080e7          	jalr	1648(ra) # 1aee6 <_ZN9allow_pin12full_dynamic17unshare_if_shared17he9718eb989dae51aE>
   1487e:	1888                	addi	a0,sp,112
   14880:	00006097          	auipc	ra,0x6
   14884:	666080e7          	jalr	1638(ra) # 1aee6 <_ZN9allow_pin12full_dynamic17unshare_if_shared17he9718eb989dae51aE>
   14888:	1888                	addi	a0,sp,112
   1488a:	00006097          	auipc	ra,0x6
   1488e:	65c080e7          	jalr	1628(ra) # 1aee6 <_ZN9allow_pin12full_dynamic17unshare_if_shared17he9718eb989dae51aE>
   14892:	00198513          	addi	a0,s3,1
   14896:	04000613          	li	a2,64
   1489a:	85ca                	mv	a1,s2
   1489c:	00006097          	auipc	ra,0x6
   148a0:	6d6080e7          	jalr	1750(ra) # 1af72 <memcpy>
   148a4:	4501                	li	a0,0
   148a6:	b765                	j	1484e <_ZN20complex_full_dynamic3app17ha7251b6a90c802e8E+0xa2>

000148a8 <_ZN20complex_full_dynamic3app17haa2c964c1a5868f8E>:
   148a8:	7159                	addi	sp,sp,-112
   148aa:	d686                	sw	ra,108(sp)
   148ac:	d4a2                	sw	s0,104(sp)
   148ae:	d2a6                	sw	s1,100(sp)
   148b0:	d0ca                	sw	s2,96(sp)
   148b2:	cece                	sw	s3,92(sp)
   148b4:	892a                	mv	s2,a0
   148b6:	4409                	li	s0,2
   148b8:	00810823          	sb	s0,16(sp)
   148bc:	0844                	addi	s1,sp,20
   148be:	02b00613          	li	a2,43
   148c2:	8526                	mv	a0,s1
   148c4:	00006097          	auipc	ra,0x6
   148c8:	6ae080e7          	jalr	1710(ra) # 1af72 <memcpy>
   148cc:	8626                	mv	a2,s1
   148ce:	04010c23          	sb	zero,88(sp)
   148d2:	04810423          	sb	s0,72(sp)
   148d6:	c682                	sw	zero,76(sp)
   148d8:	c882                	sw	zero,80(sp)
   148da:	ca82                	sw	zero,84(sp)
   148dc:	6505                	lui	a0,0x1
   148de:	4499                	li	s1,6
   148e0:	4811                	li	a6,4
   148e2:	4599                	li	a1,6
   148e4:	46550793          	addi	a5,a0,1125 # 1465 <.Lline_table_start1+0x123a>
   148e8:	02b00693          	li	a3,43
   148ec:	4711                	li	a4,4
   148ee:	853e                	mv	a0,a5
   148f0:	00000073          	ecall
   148f4:	04850363          	beq	a0,s0,1493a <_ZN20complex_full_dynamic3app17haa2c964c1a5868f8E+0x92>
   148f8:	853e                	mv	a0,a5
   148fa:	4581                	li	a1,0
   148fc:	04c10993          	addi	s3,sp,76
   14900:	c43e                	sw	a5,8(sp)
   14902:	c626                	sw	s1,12(sp)
   14904:	01010823          	sb	a6,16(sp)
   14908:	448d                	li	s1,3
   1490a:	46b5                	li	a3,13
   1490c:	470d                	li	a4,3
   1490e:	864e                	mv	a2,s3
   14910:	00000073          	ecall
   14914:	02850363          	beq	a0,s0,1493a <_ZN20complex_full_dynamic3app17haa2c964c1a5868f8E+0x92>
   14918:	c0be                	sw	a5,64(sp)
   1491a:	c282                	sw	zero,68(sp)
   1491c:	04910423          	sb	s1,72(sp)
   14920:	6505                	lui	a0,0x1
   14922:	4599                	li	a1,6
   14924:	46550513          	addi	a0,a0,1125 # 1465 <.Lline_table_start1+0x123a>
   14928:	4709                	li	a4,2
   1492a:	07f00793          	li	a5,127
   1492e:	4601                	li	a2,0
   14930:	4681                	li	a3,0
   14932:	00000073          	ecall
   14936:	02a7e863          	bltu	a5,a0,14966 <_ZN20complex_full_dynamic3app17haa2c964c1a5868f8E+0xbe>
   1493a:	00b92223          	sw	a1,4(s2)
   1493e:	4505                	li	a0,1
   14940:	00a90023          	sb	a0,0(s2)
   14944:	0088                	addi	a0,sp,64
   14946:	00006097          	auipc	ra,0x6
   1494a:	5a0080e7          	jalr	1440(ra) # 1aee6 <_ZN9allow_pin12full_dynamic17unshare_if_shared17he9718eb989dae51aE>
   1494e:	0028                	addi	a0,sp,8
   14950:	00006097          	auipc	ra,0x6
   14954:	596080e7          	jalr	1430(ra) # 1aee6 <_ZN9allow_pin12full_dynamic17unshare_if_shared17he9718eb989dae51aE>
   14958:	50b6                	lw	ra,108(sp)
   1495a:	5426                	lw	s0,104(sp)
   1495c:	5496                	lw	s1,100(sp)
   1495e:	5906                	lw	s2,96(sp)
   14960:	49f6                	lw	s3,92(sp)
   14962:	6165                	addi	sp,sp,112
   14964:	8082                	ret
   14966:	0028                	addi	a0,sp,8
   14968:	00006097          	auipc	ra,0x6
   1496c:	57e080e7          	jalr	1406(ra) # 1aee6 <_ZN9allow_pin12full_dynamic17unshare_if_shared17he9718eb989dae51aE>
   14970:	0088                	addi	a0,sp,64
   14972:	00006097          	auipc	ra,0x6
   14976:	574080e7          	jalr	1396(ra) # 1aee6 <_ZN9allow_pin12full_dynamic17unshare_if_shared17he9718eb989dae51aE>
   1497a:	0088                	addi	a0,sp,64
   1497c:	00006097          	auipc	ra,0x6
   14980:	56a080e7          	jalr	1386(ra) # 1aee6 <_ZN9allow_pin12full_dynamic17unshare_if_shared17he9718eb989dae51aE>
   14984:	00190513          	addi	a0,s2,1
   14988:	4635                	li	a2,13
   1498a:	85ce                	mv	a1,s3
   1498c:	00006097          	auipc	ra,0x6
   14990:	5e6080e7          	jalr	1510(ra) # 1af72 <memcpy>
   14994:	4501                	li	a0,0
   14996:	b76d                	j	14940 <_ZN20complex_full_dynamic3app17haa2c964c1a5868f8E+0x98>

00014998 <_ZN20complex_full_dynamic3app17hab66aaad5239a90fE>:
   14998:	7155                	addi	sp,sp,-208
   1499a:	c786                	sw	ra,204(sp)
   1499c:	c5a2                	sw	s0,200(sp)
   1499e:	c3a6                	sw	s1,196(sp)
   149a0:	c1ca                	sw	s2,192(sp)
   149a2:	df4e                	sw	s3,188(sp)
   149a4:	89aa                	mv	s3,a0
   149a6:	4409                	li	s0,2
   149a8:	00810423          	sb	s0,8(sp)
   149ac:	0064                	addi	s1,sp,12
   149ae:	05100613          	li	a2,81
   149b2:	8526                	mv	a0,s1
   149b4:	00006097          	auipc	ra,0x6
   149b8:	5be080e7          	jalr	1470(ra) # 1af72 <memcpy>
   149bc:	06c10913          	addi	s2,sp,108
   149c0:	04f00613          	li	a2,79
   149c4:	854a                	mv	a0,s2
   149c6:	4581                	li	a1,0
   149c8:	00006097          	auipc	ra,0x6
   149cc:	53e080e7          	jalr	1342(ra) # 1af06 <memset>
   149d0:	8626                	mv	a2,s1
   149d2:	06810423          	sb	s0,104(sp)
   149d6:	6505                	lui	a0,0x1
   149d8:	4491                	li	s1,4
   149da:	4589                	li	a1,2
   149dc:	e1650793          	addi	a5,a0,-490 # e16 <.Lline_table_start1+0xbeb>
   149e0:	05100693          	li	a3,81
   149e4:	4711                	li	a4,4
   149e6:	853e                	mv	a0,a5
   149e8:	00000073          	ecall
   149ec:	04850363          	beq	a0,s0,14a32 <_ZN20complex_full_dynamic3app17hab66aaad5239a90fE+0x9a>
   149f0:	853e                	mv	a0,a5
   149f2:	864a                	mv	a2,s2
   149f4:	c03e                	sw	a5,0(sp)
   149f6:	c222                	sw	s0,4(sp)
   149f8:	00910423          	sb	s1,8(sp)
   149fc:	448d                	li	s1,3
   149fe:	4591                	li	a1,4
   14a00:	04f00693          	li	a3,79
   14a04:	470d                	li	a4,3
   14a06:	00000073          	ecall
   14a0a:	02850463          	beq	a0,s0,14a32 <_ZN20complex_full_dynamic3app17hab66aaad5239a90fE+0x9a>
   14a0e:	4511                	li	a0,4
   14a10:	6685                	lui	a3,0x1
   14a12:	4589                	li	a1,2
   14a14:	4611                	li	a2,4
   14a16:	d0be                	sw	a5,96(sp)
   14a18:	d2aa                	sw	a0,100(sp)
   14a1a:	06910423          	sb	s1,104(sp)
   14a1e:	e1668513          	addi	a0,a3,-490 # e16 <.Lline_table_start1+0xbeb>
   14a22:	4709                	li	a4,2
   14a24:	07f00793          	li	a5,127
   14a28:	4681                	li	a3,0
   14a2a:	00000073          	ecall
   14a2e:	02a7e863          	bltu	a5,a0,14a5e <_ZN20complex_full_dynamic3app17hab66aaad5239a90fE+0xc6>
   14a32:	00b9a223          	sw	a1,4(s3)
   14a36:	4505                	li	a0,1
   14a38:	00a98023          	sb	a0,0(s3)
   14a3c:	1088                	addi	a0,sp,96
   14a3e:	00006097          	auipc	ra,0x6
   14a42:	4a8080e7          	jalr	1192(ra) # 1aee6 <_ZN9allow_pin12full_dynamic17unshare_if_shared17he9718eb989dae51aE>
   14a46:	850a                	mv	a0,sp
   14a48:	00006097          	auipc	ra,0x6
   14a4c:	49e080e7          	jalr	1182(ra) # 1aee6 <_ZN9allow_pin12full_dynamic17unshare_if_shared17he9718eb989dae51aE>
   14a50:	40be                	lw	ra,204(sp)
   14a52:	442e                	lw	s0,200(sp)
   14a54:	449e                	lw	s1,196(sp)
   14a56:	490e                	lw	s2,192(sp)
   14a58:	59fa                	lw	s3,188(sp)
   14a5a:	6169                	addi	sp,sp,208
   14a5c:	8082                	ret
   14a5e:	850a                	mv	a0,sp
   14a60:	00006097          	auipc	ra,0x6
   14a64:	486080e7          	jalr	1158(ra) # 1aee6 <_ZN9allow_pin12full_dynamic17unshare_if_shared17he9718eb989dae51aE>
   14a68:	1088                	addi	a0,sp,96
   14a6a:	00006097          	auipc	ra,0x6
   14a6e:	47c080e7          	jalr	1148(ra) # 1aee6 <_ZN9allow_pin12full_dynamic17unshare_if_shared17he9718eb989dae51aE>
   14a72:	1088                	addi	a0,sp,96
   14a74:	00006097          	auipc	ra,0x6
   14a78:	472080e7          	jalr	1138(ra) # 1aee6 <_ZN9allow_pin12full_dynamic17unshare_if_shared17he9718eb989dae51aE>
   14a7c:	00198513          	addi	a0,s3,1
   14a80:	04f00613          	li	a2,79
   14a84:	85ca                	mv	a1,s2
   14a86:	00006097          	auipc	ra,0x6
   14a8a:	4ec080e7          	jalr	1260(ra) # 1af72 <memcpy>
   14a8e:	4501                	li	a0,0
   14a90:	b765                	j	14a38 <_ZN20complex_full_dynamic3app17hab66aaad5239a90fE+0xa0>

00014a92 <_ZN20complex_full_dynamic3app17hadc2c68a00ebc07fE>:
   14a92:	7135                	addi	sp,sp,-160
   14a94:	cf06                	sw	ra,156(sp)
   14a96:	cd22                	sw	s0,152(sp)
   14a98:	cb26                	sw	s1,148(sp)
   14a9a:	c94a                	sw	s2,144(sp)
   14a9c:	c74e                	sw	s3,140(sp)
   14a9e:	89aa                	mv	s3,a0
   14aa0:	4409                	li	s0,2
   14aa2:	00810a23          	sb	s0,20(sp)
   14aa6:	0824                	addi	s1,sp,24
   14aa8:	02e00613          	li	a2,46
   14aac:	8526                	mv	a0,s1
   14aae:	00006097          	auipc	ra,0x6
   14ab2:	4c4080e7          	jalr	1220(ra) # 1af72 <memcpy>
   14ab6:	05410913          	addi	s2,sp,84
   14aba:	03800613          	li	a2,56
   14abe:	854a                	mv	a0,s2
   14ac0:	4581                	li	a1,0
   14ac2:	00006097          	auipc	ra,0x6
   14ac6:	444080e7          	jalr	1092(ra) # 1af06 <memset>
   14aca:	8626                	mv	a2,s1
   14acc:	04810823          	sb	s0,80(sp)
   14ad0:	6505                	lui	a0,0x1
   14ad2:	44a5                	li	s1,9
   14ad4:	4811                	li	a6,4
   14ad6:	45a5                	li	a1,9
   14ad8:	a9d50793          	addi	a5,a0,-1379 # a9d <.Lline_table_start1+0x872>
   14adc:	02e00693          	li	a3,46
   14ae0:	4711                	li	a4,4
   14ae2:	853e                	mv	a0,a5
   14ae4:	00000073          	ecall
   14ae8:	04850363          	beq	a0,s0,14b2e <_ZN20complex_full_dynamic3app17hadc2c68a00ebc07fE+0x9c>
   14aec:	853e                	mv	a0,a5
   14aee:	864a                	mv	a2,s2
   14af0:	c63e                	sw	a5,12(sp)
   14af2:	c826                	sw	s1,16(sp)
   14af4:	01010a23          	sb	a6,20(sp)
   14af8:	448d                	li	s1,3
   14afa:	45a5                	li	a1,9
   14afc:	03800693          	li	a3,56
   14b00:	470d                	li	a4,3
   14b02:	00000073          	ecall
   14b06:	02850463          	beq	a0,s0,14b2e <_ZN20complex_full_dynamic3app17hadc2c68a00ebc07fE+0x9c>
   14b0a:	4525                	li	a0,9
   14b0c:	6685                	lui	a3,0x1
   14b0e:	45a5                	li	a1,9
   14b10:	4625                	li	a2,9
   14b12:	c4be                	sw	a5,72(sp)
   14b14:	c6aa                	sw	a0,76(sp)
   14b16:	04910823          	sb	s1,80(sp)
   14b1a:	a9d68513          	addi	a0,a3,-1379 # a9d <.Lline_table_start1+0x872>
   14b1e:	4709                	li	a4,2
   14b20:	07f00793          	li	a5,127
   14b24:	4681                	li	a3,0
   14b26:	00000073          	ecall
   14b2a:	02a7e863          	bltu	a5,a0,14b5a <_ZN20complex_full_dynamic3app17hadc2c68a00ebc07fE+0xc8>
   14b2e:	00b9a223          	sw	a1,4(s3)
   14b32:	4505                	li	a0,1
   14b34:	00a98023          	sb	a0,0(s3)
   14b38:	00a8                	addi	a0,sp,72
   14b3a:	00006097          	auipc	ra,0x6
   14b3e:	3ac080e7          	jalr	940(ra) # 1aee6 <_ZN9allow_pin12full_dynamic17unshare_if_shared17he9718eb989dae51aE>
   14b42:	0068                	addi	a0,sp,12
   14b44:	00006097          	auipc	ra,0x6
   14b48:	3a2080e7          	jalr	930(ra) # 1aee6 <_ZN9allow_pin12full_dynamic17unshare_if_shared17he9718eb989dae51aE>
   14b4c:	40fa                	lw	ra,156(sp)
   14b4e:	446a                	lw	s0,152(sp)
   14b50:	44da                	lw	s1,148(sp)
   14b52:	494a                	lw	s2,144(sp)
   14b54:	49ba                	lw	s3,140(sp)
   14b56:	610d                	addi	sp,sp,160
   14b58:	8082                	ret
   14b5a:	0068                	addi	a0,sp,12
   14b5c:	00006097          	auipc	ra,0x6
   14b60:	38a080e7          	jalr	906(ra) # 1aee6 <_ZN9allow_pin12full_dynamic17unshare_if_shared17he9718eb989dae51aE>
   14b64:	00a8                	addi	a0,sp,72
   14b66:	00006097          	auipc	ra,0x6
   14b6a:	380080e7          	jalr	896(ra) # 1aee6 <_ZN9allow_pin12full_dynamic17unshare_if_shared17he9718eb989dae51aE>
   14b6e:	00a8                	addi	a0,sp,72
   14b70:	00006097          	auipc	ra,0x6
   14b74:	376080e7          	jalr	886(ra) # 1aee6 <_ZN9allow_pin12full_dynamic17unshare_if_shared17he9718eb989dae51aE>
   14b78:	00198513          	addi	a0,s3,1
   14b7c:	03800613          	li	a2,56
   14b80:	85ca                	mv	a1,s2
   14b82:	00006097          	auipc	ra,0x6
   14b86:	3f0080e7          	jalr	1008(ra) # 1af72 <memcpy>
   14b8a:	4501                	li	a0,0
   14b8c:	b765                	j	14b34 <_ZN20complex_full_dynamic3app17hadc2c68a00ebc07fE+0xa2>

00014b8e <_ZN20complex_full_dynamic3app17haf34c53cbe7fb8efE>:
   14b8e:	7155                	addi	sp,sp,-208
   14b90:	c786                	sw	ra,204(sp)
   14b92:	c5a2                	sw	s0,200(sp)
   14b94:	c3a6                	sw	s1,196(sp)
   14b96:	c1ca                	sw	s2,192(sp)
   14b98:	df4e                	sw	s3,188(sp)
   14b9a:	89aa                	mv	s3,a0
   14b9c:	4409                	li	s0,2
   14b9e:	00810423          	sb	s0,8(sp)
   14ba2:	0064                	addi	s1,sp,12
   14ba4:	05100613          	li	a2,81
   14ba8:	8526                	mv	a0,s1
   14baa:	00006097          	auipc	ra,0x6
   14bae:	3c8080e7          	jalr	968(ra) # 1af72 <memcpy>
   14bb2:	06c10913          	addi	s2,sp,108
   14bb6:	04f00613          	li	a2,79
   14bba:	854a                	mv	a0,s2
   14bbc:	4581                	li	a1,0
   14bbe:	00006097          	auipc	ra,0x6
   14bc2:	348080e7          	jalr	840(ra) # 1af06 <memset>
   14bc6:	8626                	mv	a2,s1
   14bc8:	06810423          	sb	s0,104(sp)
   14bcc:	6509                	lui	a0,0x2
   14bce:	4491                	li	s1,4
   14bd0:	4591                	li	a1,4
   14bd2:	0ee50793          	addi	a5,a0,238 # 20ee <.Lline_table_start1+0x1ec3>
   14bd6:	05100693          	li	a3,81
   14bda:	4711                	li	a4,4
   14bdc:	853e                	mv	a0,a5
   14bde:	00000073          	ecall
   14be2:	04850363          	beq	a0,s0,14c28 <_ZN20complex_full_dynamic3app17haf34c53cbe7fb8efE+0x9a>
   14be6:	853e                	mv	a0,a5
   14be8:	864a                	mv	a2,s2
   14bea:	c03e                	sw	a5,0(sp)
   14bec:	c226                	sw	s1,4(sp)
   14bee:	00910423          	sb	s1,8(sp)
   14bf2:	44a5                	li	s1,9
   14bf4:	480d                	li	a6,3
   14bf6:	45a5                	li	a1,9
   14bf8:	04f00693          	li	a3,79
   14bfc:	470d                	li	a4,3
   14bfe:	00000073          	ecall
   14c02:	02850363          	beq	a0,s0,14c28 <_ZN20complex_full_dynamic3app17haf34c53cbe7fb8efE+0x9a>
   14c06:	d0be                	sw	a5,96(sp)
   14c08:	d2a6                	sw	s1,100(sp)
   14c0a:	07010423          	sb	a6,104(sp)
   14c0e:	6509                	lui	a0,0x2
   14c10:	4591                	li	a1,4
   14c12:	4625                	li	a2,9
   14c14:	0ee50513          	addi	a0,a0,238 # 20ee <.Lline_table_start1+0x1ec3>
   14c18:	4709                	li	a4,2
   14c1a:	07f00793          	li	a5,127
   14c1e:	4681                	li	a3,0
   14c20:	00000073          	ecall
   14c24:	02a7e863          	bltu	a5,a0,14c54 <_ZN20complex_full_dynamic3app17haf34c53cbe7fb8efE+0xc6>
   14c28:	00b9a223          	sw	a1,4(s3)
   14c2c:	4505                	li	a0,1
   14c2e:	00a98023          	sb	a0,0(s3)
   14c32:	1088                	addi	a0,sp,96
   14c34:	00006097          	auipc	ra,0x6
   14c38:	2b2080e7          	jalr	690(ra) # 1aee6 <_ZN9allow_pin12full_dynamic17unshare_if_shared17he9718eb989dae51aE>
   14c3c:	850a                	mv	a0,sp
   14c3e:	00006097          	auipc	ra,0x6
   14c42:	2a8080e7          	jalr	680(ra) # 1aee6 <_ZN9allow_pin12full_dynamic17unshare_if_shared17he9718eb989dae51aE>
   14c46:	40be                	lw	ra,204(sp)
   14c48:	442e                	lw	s0,200(sp)
   14c4a:	449e                	lw	s1,196(sp)
   14c4c:	490e                	lw	s2,192(sp)
   14c4e:	59fa                	lw	s3,188(sp)
   14c50:	6169                	addi	sp,sp,208
   14c52:	8082                	ret
   14c54:	850a                	mv	a0,sp
   14c56:	00006097          	auipc	ra,0x6
   14c5a:	290080e7          	jalr	656(ra) # 1aee6 <_ZN9allow_pin12full_dynamic17unshare_if_shared17he9718eb989dae51aE>
   14c5e:	1088                	addi	a0,sp,96
   14c60:	00006097          	auipc	ra,0x6
   14c64:	286080e7          	jalr	646(ra) # 1aee6 <_ZN9allow_pin12full_dynamic17unshare_if_shared17he9718eb989dae51aE>
   14c68:	1088                	addi	a0,sp,96
   14c6a:	00006097          	auipc	ra,0x6
   14c6e:	27c080e7          	jalr	636(ra) # 1aee6 <_ZN9allow_pin12full_dynamic17unshare_if_shared17he9718eb989dae51aE>
   14c72:	00198513          	addi	a0,s3,1
   14c76:	04f00613          	li	a2,79
   14c7a:	85ca                	mv	a1,s2
   14c7c:	00006097          	auipc	ra,0x6
   14c80:	2f6080e7          	jalr	758(ra) # 1af72 <memcpy>
   14c84:	4501                	li	a0,0
   14c86:	b765                	j	14c2e <_ZN20complex_full_dynamic3app17haf34c53cbe7fb8efE+0xa0>

00014c88 <_ZN20complex_full_dynamic3app17hafc66d0898eee8a7E>:
   14c88:	7119                	addi	sp,sp,-128
   14c8a:	de86                	sw	ra,124(sp)
   14c8c:	dca2                	sw	s0,120(sp)
   14c8e:	daa6                	sw	s1,116(sp)
   14c90:	d8ca                	sw	s2,112(sp)
   14c92:	d6ce                	sw	s3,108(sp)
   14c94:	89aa                	mv	s3,a0
   14c96:	4409                	li	s0,2
   14c98:	00810423          	sb	s0,8(sp)
   14c9c:	0064                	addi	s1,sp,12
   14c9e:	02a00613          	li	a2,42
   14ca2:	8526                	mv	a0,s1
   14ca4:	00006097          	auipc	ra,0x6
   14ca8:	2ce080e7          	jalr	718(ra) # 1af72 <memcpy>
   14cac:	04410913          	addi	s2,sp,68
   14cb0:	02800613          	li	a2,40
   14cb4:	854a                	mv	a0,s2
   14cb6:	4581                	li	a1,0
   14cb8:	00006097          	auipc	ra,0x6
   14cbc:	24e080e7          	jalr	590(ra) # 1af06 <memset>
   14cc0:	8626                	mv	a2,s1
   14cc2:	04810023          	sb	s0,64(sp)
   14cc6:	6509                	lui	a0,0x2
   14cc8:	4491                	li	s1,4
   14cca:	4591                	li	a1,4
   14ccc:	efa50793          	addi	a5,a0,-262 # 1efa <.Lline_table_start1+0x1ccf>
   14cd0:	02a00693          	li	a3,42
   14cd4:	4711                	li	a4,4
   14cd6:	853e                	mv	a0,a5
   14cd8:	00000073          	ecall
   14cdc:	04850363          	beq	a0,s0,14d22 <_ZN20complex_full_dynamic3app17hafc66d0898eee8a7E+0x9a>
   14ce0:	853e                	mv	a0,a5
   14ce2:	864a                	mv	a2,s2
   14ce4:	c03e                	sw	a5,0(sp)
   14ce6:	c226                	sw	s1,4(sp)
   14ce8:	00910423          	sb	s1,8(sp)
   14cec:	44a1                	li	s1,8
   14cee:	480d                	li	a6,3
   14cf0:	45a1                	li	a1,8
   14cf2:	02800693          	li	a3,40
   14cf6:	470d                	li	a4,3
   14cf8:	00000073          	ecall
   14cfc:	02850363          	beq	a0,s0,14d22 <_ZN20complex_full_dynamic3app17hafc66d0898eee8a7E+0x9a>
   14d00:	dc3e                	sw	a5,56(sp)
   14d02:	de26                	sw	s1,60(sp)
   14d04:	05010023          	sb	a6,64(sp)
   14d08:	6509                	lui	a0,0x2
   14d0a:	4591                	li	a1,4
   14d0c:	4621                	li	a2,8
   14d0e:	efa50513          	addi	a0,a0,-262 # 1efa <.Lline_table_start1+0x1ccf>
   14d12:	4709                	li	a4,2
   14d14:	07f00793          	li	a5,127
   14d18:	4681                	li	a3,0
   14d1a:	00000073          	ecall
   14d1e:	02a7e863          	bltu	a5,a0,14d4e <_ZN20complex_full_dynamic3app17hafc66d0898eee8a7E+0xc6>
   14d22:	00b9a223          	sw	a1,4(s3)
   14d26:	4505                	li	a0,1
   14d28:	00a98023          	sb	a0,0(s3)
   14d2c:	1828                	addi	a0,sp,56
   14d2e:	00006097          	auipc	ra,0x6
   14d32:	1b8080e7          	jalr	440(ra) # 1aee6 <_ZN9allow_pin12full_dynamic17unshare_if_shared17he9718eb989dae51aE>
   14d36:	850a                	mv	a0,sp
   14d38:	00006097          	auipc	ra,0x6
   14d3c:	1ae080e7          	jalr	430(ra) # 1aee6 <_ZN9allow_pin12full_dynamic17unshare_if_shared17he9718eb989dae51aE>
   14d40:	50f6                	lw	ra,124(sp)
   14d42:	5466                	lw	s0,120(sp)
   14d44:	54d6                	lw	s1,116(sp)
   14d46:	5946                	lw	s2,112(sp)
   14d48:	59b6                	lw	s3,108(sp)
   14d4a:	6109                	addi	sp,sp,128
   14d4c:	8082                	ret
   14d4e:	850a                	mv	a0,sp
   14d50:	00006097          	auipc	ra,0x6
   14d54:	196080e7          	jalr	406(ra) # 1aee6 <_ZN9allow_pin12full_dynamic17unshare_if_shared17he9718eb989dae51aE>
   14d58:	1828                	addi	a0,sp,56
   14d5a:	00006097          	auipc	ra,0x6
   14d5e:	18c080e7          	jalr	396(ra) # 1aee6 <_ZN9allow_pin12full_dynamic17unshare_if_shared17he9718eb989dae51aE>
   14d62:	1828                	addi	a0,sp,56
   14d64:	00006097          	auipc	ra,0x6
   14d68:	182080e7          	jalr	386(ra) # 1aee6 <_ZN9allow_pin12full_dynamic17unshare_if_shared17he9718eb989dae51aE>
   14d6c:	00198513          	addi	a0,s3,1
   14d70:	02800613          	li	a2,40
   14d74:	85ca                	mv	a1,s2
   14d76:	00006097          	auipc	ra,0x6
   14d7a:	1fc080e7          	jalr	508(ra) # 1af72 <memcpy>
   14d7e:	4501                	li	a0,0
   14d80:	b765                	j	14d28 <_ZN20complex_full_dynamic3app17hafc66d0898eee8a7E+0xa0>

00014d82 <_ZN20complex_full_dynamic3app17hb13094d290fdabc4E>:
   14d82:	7175                	addi	sp,sp,-144
   14d84:	c706                	sw	ra,140(sp)
   14d86:	c522                	sw	s0,136(sp)
   14d88:	c326                	sw	s1,132(sp)
   14d8a:	c14a                	sw	s2,128(sp)
   14d8c:	dece                	sw	s3,124(sp)
   14d8e:	89aa                	mv	s3,a0
   14d90:	4409                	li	s0,2
   14d92:	00810a23          	sb	s0,20(sp)
   14d96:	0824                	addi	s1,sp,24
   14d98:	4649                	li	a2,18
   14d9a:	8526                	mv	a0,s1
   14d9c:	00006097          	auipc	ra,0x6
   14da0:	1d6080e7          	jalr	470(ra) # 1af72 <memcpy>
   14da4:	03810913          	addi	s2,sp,56
   14da8:	04400613          	li	a2,68
   14dac:	854a                	mv	a0,s2
   14dae:	4581                	li	a1,0
   14db0:	00006097          	auipc	ra,0x6
   14db4:	156080e7          	jalr	342(ra) # 1af06 <memset>
   14db8:	8626                	mv	a2,s1
   14dba:	02810a23          	sb	s0,52(sp)
   14dbe:	6509                	lui	a0,0x2
   14dc0:	4491                	li	s1,4
   14dc2:	4589                	li	a1,2
   14dc4:	43250793          	addi	a5,a0,1074 # 2432 <.Lline_table_start1+0x2207>
   14dc8:	46c9                	li	a3,18
   14dca:	4711                	li	a4,4
   14dcc:	853e                	mv	a0,a5
   14dce:	00000073          	ecall
   14dd2:	04850363          	beq	a0,s0,14e18 <_ZN20complex_full_dynamic3app17hb13094d290fdabc4E+0x96>
   14dd6:	853e                	mv	a0,a5
   14dd8:	864a                	mv	a2,s2
   14dda:	c63e                	sw	a5,12(sp)
   14ddc:	c822                	sw	s0,16(sp)
   14dde:	00910a23          	sb	s1,20(sp)
   14de2:	44a5                	li	s1,9
   14de4:	480d                	li	a6,3
   14de6:	45a5                	li	a1,9
   14de8:	04400693          	li	a3,68
   14dec:	470d                	li	a4,3
   14dee:	00000073          	ecall
   14df2:	02850363          	beq	a0,s0,14e18 <_ZN20complex_full_dynamic3app17hb13094d290fdabc4E+0x96>
   14df6:	d63e                	sw	a5,44(sp)
   14df8:	d826                	sw	s1,48(sp)
   14dfa:	03010a23          	sb	a6,52(sp)
   14dfe:	6509                	lui	a0,0x2
   14e00:	4589                	li	a1,2
   14e02:	4625                	li	a2,9
   14e04:	43250513          	addi	a0,a0,1074 # 2432 <.Lline_table_start1+0x2207>
   14e08:	4709                	li	a4,2
   14e0a:	07f00793          	li	a5,127
   14e0e:	4681                	li	a3,0
   14e10:	00000073          	ecall
   14e14:	02a7e863          	bltu	a5,a0,14e44 <_ZN20complex_full_dynamic3app17hb13094d290fdabc4E+0xc2>
   14e18:	00b9a223          	sw	a1,4(s3)
   14e1c:	4505                	li	a0,1
   14e1e:	00a98023          	sb	a0,0(s3)
   14e22:	1068                	addi	a0,sp,44
   14e24:	00006097          	auipc	ra,0x6
   14e28:	0c2080e7          	jalr	194(ra) # 1aee6 <_ZN9allow_pin12full_dynamic17unshare_if_shared17he9718eb989dae51aE>
   14e2c:	0068                	addi	a0,sp,12
   14e2e:	00006097          	auipc	ra,0x6
   14e32:	0b8080e7          	jalr	184(ra) # 1aee6 <_ZN9allow_pin12full_dynamic17unshare_if_shared17he9718eb989dae51aE>
   14e36:	40ba                	lw	ra,140(sp)
   14e38:	442a                	lw	s0,136(sp)
   14e3a:	449a                	lw	s1,132(sp)
   14e3c:	490a                	lw	s2,128(sp)
   14e3e:	59f6                	lw	s3,124(sp)
   14e40:	6149                	addi	sp,sp,144
   14e42:	8082                	ret
   14e44:	0068                	addi	a0,sp,12
   14e46:	00006097          	auipc	ra,0x6
   14e4a:	0a0080e7          	jalr	160(ra) # 1aee6 <_ZN9allow_pin12full_dynamic17unshare_if_shared17he9718eb989dae51aE>
   14e4e:	1068                	addi	a0,sp,44
   14e50:	00006097          	auipc	ra,0x6
   14e54:	096080e7          	jalr	150(ra) # 1aee6 <_ZN9allow_pin12full_dynamic17unshare_if_shared17he9718eb989dae51aE>
   14e58:	1068                	addi	a0,sp,44
   14e5a:	00006097          	auipc	ra,0x6
   14e5e:	08c080e7          	jalr	140(ra) # 1aee6 <_ZN9allow_pin12full_dynamic17unshare_if_shared17he9718eb989dae51aE>
   14e62:	00198513          	addi	a0,s3,1
   14e66:	04400613          	li	a2,68
   14e6a:	85ca                	mv	a1,s2
   14e6c:	00006097          	auipc	ra,0x6
   14e70:	106080e7          	jalr	262(ra) # 1af72 <memcpy>
   14e74:	4501                	li	a0,0
   14e76:	b765                	j	14e1e <_ZN20complex_full_dynamic3app17hb13094d290fdabc4E+0x9c>

00014e78 <_ZN20complex_full_dynamic3app17hb13ab7f9fed64bfaE>:
   14e78:	7119                	addi	sp,sp,-128
   14e7a:	de86                	sw	ra,124(sp)
   14e7c:	dca2                	sw	s0,120(sp)
   14e7e:	daa6                	sw	s1,116(sp)
   14e80:	d8ca                	sw	s2,112(sp)
   14e82:	d6ce                	sw	s3,108(sp)
   14e84:	892a                	mv	s2,a0
   14e86:	4409                	li	s0,2
   14e88:	00810423          	sb	s0,8(sp)
   14e8c:	0064                	addi	s1,sp,12
   14e8e:	03f00613          	li	a2,63
   14e92:	8526                	mv	a0,s1
   14e94:	00006097          	auipc	ra,0x6
   14e98:	0de080e7          	jalr	222(ra) # 1af72 <memcpy>
   14e9c:	8626                	mv	a2,s1
   14e9e:	d282                	sw	zero,100(sp)
   14ea0:	06010423          	sb	zero,104(sp)
   14ea4:	04810a23          	sb	s0,84(sp)
   14ea8:	cc82                	sw	zero,88(sp)
   14eaa:	ce82                	sw	zero,92(sp)
   14eac:	d082                	sw	zero,96(sp)
   14eae:	6505                	lui	a0,0x1
   14eb0:	4491                	li	s1,4
   14eb2:	4591                	li	a1,4
   14eb4:	4d750793          	addi	a5,a0,1239 # 14d7 <.Lline_table_start1+0x12ac>
   14eb8:	03f00693          	li	a3,63
   14ebc:	4711                	li	a4,4
   14ebe:	853e                	mv	a0,a5
   14ec0:	00000073          	ecall
   14ec4:	04850363          	beq	a0,s0,14f0a <_ZN20complex_full_dynamic3app17hb13ab7f9fed64bfaE+0x92>
   14ec8:	853e                	mv	a0,a5
   14eca:	05810993          	addi	s3,sp,88
   14ece:	c03e                	sw	a5,0(sp)
   14ed0:	c226                	sw	s1,4(sp)
   14ed2:	00910423          	sb	s1,8(sp)
   14ed6:	448d                	li	s1,3
   14ed8:	458d                	li	a1,3
   14eda:	46c5                	li	a3,17
   14edc:	470d                	li	a4,3
   14ede:	864e                	mv	a2,s3
   14ee0:	00000073          	ecall
   14ee4:	02850363          	beq	a0,s0,14f0a <_ZN20complex_full_dynamic3app17hb13ab7f9fed64bfaE+0x92>
   14ee8:	c6be                	sw	a5,76(sp)
   14eea:	c8a6                	sw	s1,80(sp)
   14eec:	04910a23          	sb	s1,84(sp)
   14ef0:	6505                	lui	a0,0x1
   14ef2:	4591                	li	a1,4
   14ef4:	460d                	li	a2,3
   14ef6:	4d750513          	addi	a0,a0,1239 # 14d7 <.Lline_table_start1+0x12ac>
   14efa:	4709                	li	a4,2
   14efc:	07f00793          	li	a5,127
   14f00:	4681                	li	a3,0
   14f02:	00000073          	ecall
   14f06:	02a7e863          	bltu	a5,a0,14f36 <_ZN20complex_full_dynamic3app17hb13ab7f9fed64bfaE+0xbe>
   14f0a:	00b92223          	sw	a1,4(s2)
   14f0e:	4505                	li	a0,1
   14f10:	00a90023          	sb	a0,0(s2)
   14f14:	00e8                	addi	a0,sp,76
   14f16:	00006097          	auipc	ra,0x6
   14f1a:	fd0080e7          	jalr	-48(ra) # 1aee6 <_ZN9allow_pin12full_dynamic17unshare_if_shared17he9718eb989dae51aE>
   14f1e:	850a                	mv	a0,sp
   14f20:	00006097          	auipc	ra,0x6
   14f24:	fc6080e7          	jalr	-58(ra) # 1aee6 <_ZN9allow_pin12full_dynamic17unshare_if_shared17he9718eb989dae51aE>
   14f28:	50f6                	lw	ra,124(sp)
   14f2a:	5466                	lw	s0,120(sp)
   14f2c:	54d6                	lw	s1,116(sp)
   14f2e:	5946                	lw	s2,112(sp)
   14f30:	59b6                	lw	s3,108(sp)
   14f32:	6109                	addi	sp,sp,128
   14f34:	8082                	ret
   14f36:	850a                	mv	a0,sp
   14f38:	00006097          	auipc	ra,0x6
   14f3c:	fae080e7          	jalr	-82(ra) # 1aee6 <_ZN9allow_pin12full_dynamic17unshare_if_shared17he9718eb989dae51aE>
   14f40:	00e8                	addi	a0,sp,76
   14f42:	00006097          	auipc	ra,0x6
   14f46:	fa4080e7          	jalr	-92(ra) # 1aee6 <_ZN9allow_pin12full_dynamic17unshare_if_shared17he9718eb989dae51aE>
   14f4a:	00e8                	addi	a0,sp,76
   14f4c:	00006097          	auipc	ra,0x6
   14f50:	f9a080e7          	jalr	-102(ra) # 1aee6 <_ZN9allow_pin12full_dynamic17unshare_if_shared17he9718eb989dae51aE>
   14f54:	00190513          	addi	a0,s2,1
   14f58:	4645                	li	a2,17
   14f5a:	85ce                	mv	a1,s3
   14f5c:	00006097          	auipc	ra,0x6
   14f60:	016080e7          	jalr	22(ra) # 1af72 <memcpy>
   14f64:	4501                	li	a0,0
   14f66:	b76d                	j	14f10 <_ZN20complex_full_dynamic3app17hb13ab7f9fed64bfaE+0x98>

00014f68 <_ZN20complex_full_dynamic3app17hb2f8f3379b4c6c9bE>:
   14f68:	7119                	addi	sp,sp,-128
   14f6a:	de86                	sw	ra,124(sp)
   14f6c:	dca2                	sw	s0,120(sp)
   14f6e:	daa6                	sw	s1,116(sp)
   14f70:	d8ca                	sw	s2,112(sp)
   14f72:	d6ce                	sw	s3,108(sp)
   14f74:	89aa                	mv	s3,a0
   14f76:	4409                	li	s0,2
   14f78:	00810423          	sb	s0,8(sp)
   14f7c:	0064                	addi	s1,sp,12
   14f7e:	02c00613          	li	a2,44
   14f82:	8526                	mv	a0,s1
   14f84:	00006097          	auipc	ra,0x6
   14f88:	fee080e7          	jalr	-18(ra) # 1af72 <memcpy>
   14f8c:	04410913          	addi	s2,sp,68
   14f90:	02700613          	li	a2,39
   14f94:	854a                	mv	a0,s2
   14f96:	4581                	li	a1,0
   14f98:	00006097          	auipc	ra,0x6
   14f9c:	f6e080e7          	jalr	-146(ra) # 1af06 <memset>
   14fa0:	8626                	mv	a2,s1
   14fa2:	04810023          	sb	s0,64(sp)
   14fa6:	6505                	lui	a0,0x1
   14fa8:	4491                	li	s1,4
   14faa:	4591                	li	a1,4
   14fac:	1b550793          	addi	a5,a0,437 # 11b5 <.Lline_table_start1+0xf8a>
   14fb0:	02c00693          	li	a3,44
   14fb4:	4711                	li	a4,4
   14fb6:	853e                	mv	a0,a5
   14fb8:	00000073          	ecall
   14fbc:	04850263          	beq	a0,s0,15000 <_ZN20complex_full_dynamic3app17hb2f8f3379b4c6c9bE+0x98>
   14fc0:	853e                	mv	a0,a5
   14fc2:	864a                	mv	a2,s2
   14fc4:	c03e                	sw	a5,0(sp)
   14fc6:	c226                	sw	s1,4(sp)
   14fc8:	00910423          	sb	s1,8(sp)
   14fcc:	448d                	li	s1,3
   14fce:	458d                	li	a1,3
   14fd0:	02700693          	li	a3,39
   14fd4:	470d                	li	a4,3
   14fd6:	00000073          	ecall
   14fda:	02850363          	beq	a0,s0,15000 <_ZN20complex_full_dynamic3app17hb2f8f3379b4c6c9bE+0x98>
   14fde:	dc3e                	sw	a5,56(sp)
   14fe0:	de26                	sw	s1,60(sp)
   14fe2:	04910023          	sb	s1,64(sp)
   14fe6:	6505                	lui	a0,0x1
   14fe8:	4591                	li	a1,4
   14fea:	460d                	li	a2,3
   14fec:	1b550513          	addi	a0,a0,437 # 11b5 <.Lline_table_start1+0xf8a>
   14ff0:	4709                	li	a4,2
   14ff2:	07f00793          	li	a5,127
   14ff6:	4681                	li	a3,0
   14ff8:	00000073          	ecall
   14ffc:	02a7e863          	bltu	a5,a0,1502c <_ZN20complex_full_dynamic3app17hb2f8f3379b4c6c9bE+0xc4>
   15000:	00b9a223          	sw	a1,4(s3)
   15004:	4505                	li	a0,1
   15006:	00a98023          	sb	a0,0(s3)
   1500a:	1828                	addi	a0,sp,56
   1500c:	00006097          	auipc	ra,0x6
   15010:	eda080e7          	jalr	-294(ra) # 1aee6 <_ZN9allow_pin12full_dynamic17unshare_if_shared17he9718eb989dae51aE>
   15014:	850a                	mv	a0,sp
   15016:	00006097          	auipc	ra,0x6
   1501a:	ed0080e7          	jalr	-304(ra) # 1aee6 <_ZN9allow_pin12full_dynamic17unshare_if_shared17he9718eb989dae51aE>
   1501e:	50f6                	lw	ra,124(sp)
   15020:	5466                	lw	s0,120(sp)
   15022:	54d6                	lw	s1,116(sp)
   15024:	5946                	lw	s2,112(sp)
   15026:	59b6                	lw	s3,108(sp)
   15028:	6109                	addi	sp,sp,128
   1502a:	8082                	ret
   1502c:	850a                	mv	a0,sp
   1502e:	00006097          	auipc	ra,0x6
   15032:	eb8080e7          	jalr	-328(ra) # 1aee6 <_ZN9allow_pin12full_dynamic17unshare_if_shared17he9718eb989dae51aE>
   15036:	1828                	addi	a0,sp,56
   15038:	00006097          	auipc	ra,0x6
   1503c:	eae080e7          	jalr	-338(ra) # 1aee6 <_ZN9allow_pin12full_dynamic17unshare_if_shared17he9718eb989dae51aE>
   15040:	1828                	addi	a0,sp,56
   15042:	00006097          	auipc	ra,0x6
   15046:	ea4080e7          	jalr	-348(ra) # 1aee6 <_ZN9allow_pin12full_dynamic17unshare_if_shared17he9718eb989dae51aE>
   1504a:	00198513          	addi	a0,s3,1
   1504e:	02700613          	li	a2,39
   15052:	85ca                	mv	a1,s2
   15054:	00006097          	auipc	ra,0x6
   15058:	f1e080e7          	jalr	-226(ra) # 1af72 <memcpy>
   1505c:	4501                	li	a0,0
   1505e:	b765                	j	15006 <_ZN20complex_full_dynamic3app17hb2f8f3379b4c6c9bE+0x9e>

00015060 <_ZN20complex_full_dynamic3app17hb36e1031098d59f4E>:
   15060:	7119                	addi	sp,sp,-128
   15062:	de86                	sw	ra,124(sp)
   15064:	dca2                	sw	s0,120(sp)
   15066:	daa6                	sw	s1,116(sp)
   15068:	d8ca                	sw	s2,112(sp)
   1506a:	d6ce                	sw	s3,108(sp)
   1506c:	89aa                	mv	s3,a0
   1506e:	4409                	li	s0,2
   15070:	00810423          	sb	s0,8(sp)
   15074:	0064                	addi	s1,sp,12
   15076:	4645                	li	a2,17
   15078:	8526                	mv	a0,s1
   1507a:	00006097          	auipc	ra,0x6
   1507e:	ef8080e7          	jalr	-264(ra) # 1af72 <memcpy>
   15082:	02c10913          	addi	s2,sp,44
   15086:	03f00613          	li	a2,63
   1508a:	854a                	mv	a0,s2
   1508c:	4581                	li	a1,0
   1508e:	00006097          	auipc	ra,0x6
   15092:	e78080e7          	jalr	-392(ra) # 1af06 <memset>
   15096:	8626                	mv	a2,s1
   15098:	02810423          	sb	s0,40(sp)
   1509c:	6505                	lui	a0,0x1
   1509e:	449d                	li	s1,7
   150a0:	4811                	li	a6,4
   150a2:	459d                	li	a1,7
   150a4:	cb050793          	addi	a5,a0,-848 # cb0 <.Lline_table_start1+0xa85>
   150a8:	46c5                	li	a3,17
   150aa:	4711                	li	a4,4
   150ac:	853e                	mv	a0,a5
   150ae:	00000073          	ecall
   150b2:	04850363          	beq	a0,s0,150f8 <_ZN20complex_full_dynamic3app17hb36e1031098d59f4E+0x98>
   150b6:	853e                	mv	a0,a5
   150b8:	864a                	mv	a2,s2
   150ba:	c03e                	sw	a5,0(sp)
   150bc:	c226                	sw	s1,4(sp)
   150be:	01010423          	sb	a6,8(sp)
   150c2:	448d                	li	s1,3
   150c4:	4591                	li	a1,4
   150c6:	03f00693          	li	a3,63
   150ca:	470d                	li	a4,3
   150cc:	00000073          	ecall
   150d0:	02850463          	beq	a0,s0,150f8 <_ZN20complex_full_dynamic3app17hb36e1031098d59f4E+0x98>
   150d4:	4511                	li	a0,4
   150d6:	6685                	lui	a3,0x1
   150d8:	459d                	li	a1,7
   150da:	4611                	li	a2,4
   150dc:	d03e                	sw	a5,32(sp)
   150de:	d22a                	sw	a0,36(sp)
   150e0:	02910423          	sb	s1,40(sp)
   150e4:	cb068513          	addi	a0,a3,-848 # cb0 <.Lline_table_start1+0xa85>
   150e8:	4709                	li	a4,2
   150ea:	07f00793          	li	a5,127
   150ee:	4681                	li	a3,0
   150f0:	00000073          	ecall
   150f4:	02a7e863          	bltu	a5,a0,15124 <_ZN20complex_full_dynamic3app17hb36e1031098d59f4E+0xc4>
   150f8:	00b9a223          	sw	a1,4(s3)
   150fc:	4505                	li	a0,1
   150fe:	00a98023          	sb	a0,0(s3)
   15102:	1008                	addi	a0,sp,32
   15104:	00006097          	auipc	ra,0x6
   15108:	de2080e7          	jalr	-542(ra) # 1aee6 <_ZN9allow_pin12full_dynamic17unshare_if_shared17he9718eb989dae51aE>
   1510c:	850a                	mv	a0,sp
   1510e:	00006097          	auipc	ra,0x6
   15112:	dd8080e7          	jalr	-552(ra) # 1aee6 <_ZN9allow_pin12full_dynamic17unshare_if_shared17he9718eb989dae51aE>
   15116:	50f6                	lw	ra,124(sp)
   15118:	5466                	lw	s0,120(sp)
   1511a:	54d6                	lw	s1,116(sp)
   1511c:	5946                	lw	s2,112(sp)
   1511e:	59b6                	lw	s3,108(sp)
   15120:	6109                	addi	sp,sp,128
   15122:	8082                	ret
   15124:	850a                	mv	a0,sp
   15126:	00006097          	auipc	ra,0x6
   1512a:	dc0080e7          	jalr	-576(ra) # 1aee6 <_ZN9allow_pin12full_dynamic17unshare_if_shared17he9718eb989dae51aE>
   1512e:	1008                	addi	a0,sp,32
   15130:	00006097          	auipc	ra,0x6
   15134:	db6080e7          	jalr	-586(ra) # 1aee6 <_ZN9allow_pin12full_dynamic17unshare_if_shared17he9718eb989dae51aE>
   15138:	1008                	addi	a0,sp,32
   1513a:	00006097          	auipc	ra,0x6
   1513e:	dac080e7          	jalr	-596(ra) # 1aee6 <_ZN9allow_pin12full_dynamic17unshare_if_shared17he9718eb989dae51aE>
   15142:	00198513          	addi	a0,s3,1
   15146:	03f00613          	li	a2,63
   1514a:	85ca                	mv	a1,s2
   1514c:	00006097          	auipc	ra,0x6
   15150:	e26080e7          	jalr	-474(ra) # 1af72 <memcpy>
   15154:	4501                	li	a0,0
   15156:	b765                	j	150fe <_ZN20complex_full_dynamic3app17hb36e1031098d59f4E+0x9e>

00015158 <_ZN20complex_full_dynamic3app17hb3cd00678aac42d6E>:
   15158:	7159                	addi	sp,sp,-112
   1515a:	d686                	sw	ra,108(sp)
   1515c:	d4a2                	sw	s0,104(sp)
   1515e:	d2a6                	sw	s1,100(sp)
   15160:	d0ca                	sw	s2,96(sp)
   15162:	cece                	sw	s3,92(sp)
   15164:	892a                	mv	s2,a0
   15166:	4409                	li	s0,2
   15168:	00810623          	sb	s0,12(sp)
   1516c:	0804                	addi	s1,sp,16
   1516e:	02500613          	li	a2,37
   15172:	8526                	mv	a0,s1
   15174:	00006097          	auipc	ra,0x6
   15178:	dfe080e7          	jalr	-514(ra) # 1af72 <memcpy>
   1517c:	8626                	mv	a2,s1
   1517e:	c882                	sw	zero,80(sp)
   15180:	ca82                	sw	zero,84(sp)
   15182:	cc82                	sw	zero,88(sp)
   15184:	04810023          	sb	s0,64(sp)
   15188:	c282                	sw	zero,68(sp)
   1518a:	c482                	sw	zero,72(sp)
   1518c:	c682                	sw	zero,76(sp)
   1518e:	6505                	lui	a0,0x1
   15190:	44a5                	li	s1,9
   15192:	4811                	li	a6,4
   15194:	45a5                	li	a1,9
   15196:	a7050793          	addi	a5,a0,-1424 # a70 <.Lline_table_start1+0x845>
   1519a:	02500693          	li	a3,37
   1519e:	4711                	li	a4,4
   151a0:	853e                	mv	a0,a5
   151a2:	00000073          	ecall
   151a6:	04850463          	beq	a0,s0,151ee <_ZN20complex_full_dynamic3app17hb3cd00678aac42d6E+0x96>
   151aa:	853e                	mv	a0,a5
   151ac:	04410993          	addi	s3,sp,68
   151b0:	c23e                	sw	a5,4(sp)
   151b2:	c426                	sw	s1,8(sp)
   151b4:	01010623          	sb	a6,12(sp)
   151b8:	44a1                	li	s1,8
   151ba:	480d                	li	a6,3
   151bc:	45a1                	li	a1,8
   151be:	46e1                	li	a3,24
   151c0:	470d                	li	a4,3
   151c2:	864e                	mv	a2,s3
   151c4:	00000073          	ecall
   151c8:	02850363          	beq	a0,s0,151ee <_ZN20complex_full_dynamic3app17hb3cd00678aac42d6E+0x96>
   151cc:	dc3e                	sw	a5,56(sp)
   151ce:	de26                	sw	s1,60(sp)
   151d0:	05010023          	sb	a6,64(sp)
   151d4:	6505                	lui	a0,0x1
   151d6:	45a5                	li	a1,9
   151d8:	4621                	li	a2,8
   151da:	a7050513          	addi	a0,a0,-1424 # a70 <.Lline_table_start1+0x845>
   151de:	4709                	li	a4,2
   151e0:	07f00793          	li	a5,127
   151e4:	4681                	li	a3,0
   151e6:	00000073          	ecall
   151ea:	02a7e863          	bltu	a5,a0,1521a <_ZN20complex_full_dynamic3app17hb3cd00678aac42d6E+0xc2>
   151ee:	00b92223          	sw	a1,4(s2)
   151f2:	4505                	li	a0,1
   151f4:	00a90023          	sb	a0,0(s2)
   151f8:	1828                	addi	a0,sp,56
   151fa:	00006097          	auipc	ra,0x6
   151fe:	cec080e7          	jalr	-788(ra) # 1aee6 <_ZN9allow_pin12full_dynamic17unshare_if_shared17he9718eb989dae51aE>
   15202:	0048                	addi	a0,sp,4
   15204:	00006097          	auipc	ra,0x6
   15208:	ce2080e7          	jalr	-798(ra) # 1aee6 <_ZN9allow_pin12full_dynamic17unshare_if_shared17he9718eb989dae51aE>
   1520c:	50b6                	lw	ra,108(sp)
   1520e:	5426                	lw	s0,104(sp)
   15210:	5496                	lw	s1,100(sp)
   15212:	5906                	lw	s2,96(sp)
   15214:	49f6                	lw	s3,92(sp)
   15216:	6165                	addi	sp,sp,112
   15218:	8082                	ret
   1521a:	0048                	addi	a0,sp,4
   1521c:	00006097          	auipc	ra,0x6
   15220:	cca080e7          	jalr	-822(ra) # 1aee6 <_ZN9allow_pin12full_dynamic17unshare_if_shared17he9718eb989dae51aE>
   15224:	1828                	addi	a0,sp,56
   15226:	00006097          	auipc	ra,0x6
   1522a:	cc0080e7          	jalr	-832(ra) # 1aee6 <_ZN9allow_pin12full_dynamic17unshare_if_shared17he9718eb989dae51aE>
   1522e:	1828                	addi	a0,sp,56
   15230:	00006097          	auipc	ra,0x6
   15234:	cb6080e7          	jalr	-842(ra) # 1aee6 <_ZN9allow_pin12full_dynamic17unshare_if_shared17he9718eb989dae51aE>
   15238:	00190513          	addi	a0,s2,1
   1523c:	4661                	li	a2,24
   1523e:	85ce                	mv	a1,s3
   15240:	00006097          	auipc	ra,0x6
   15244:	d32080e7          	jalr	-718(ra) # 1af72 <memcpy>
   15248:	4501                	li	a0,0
   1524a:	b76d                	j	151f4 <_ZN20complex_full_dynamic3app17hb3cd00678aac42d6E+0x9c>

0001524c <_ZN20complex_full_dynamic3app17hb57728f4b8b9d120E>:
   1524c:	7175                	addi	sp,sp,-144
   1524e:	c706                	sw	ra,140(sp)
   15250:	c522                	sw	s0,136(sp)
   15252:	c326                	sw	s1,132(sp)
   15254:	c14a                	sw	s2,128(sp)
   15256:	dece                	sw	s3,124(sp)
   15258:	89aa                	mv	s3,a0
   1525a:	4409                	li	s0,2
   1525c:	00810423          	sb	s0,8(sp)
   15260:	0064                	addi	s1,sp,12
   15262:	03400613          	li	a2,52
   15266:	8526                	mv	a0,s1
   15268:	00006097          	auipc	ra,0x6
   1526c:	d0a080e7          	jalr	-758(ra) # 1af72 <memcpy>
   15270:	04c10913          	addi	s2,sp,76
   15274:	02e00613          	li	a2,46
   15278:	854a                	mv	a0,s2
   1527a:	4581                	li	a1,0
   1527c:	00006097          	auipc	ra,0x6
   15280:	c8a080e7          	jalr	-886(ra) # 1af06 <memset>
   15284:	8626                	mv	a2,s1
   15286:	04810423          	sb	s0,72(sp)
   1528a:	20900493          	li	s1,521
   1528e:	4791                	li	a5,4
   15290:	20900513          	li	a0,521
   15294:	4589                	li	a1,2
   15296:	03400693          	li	a3,52
   1529a:	4711                	li	a4,4
   1529c:	00000073          	ecall
   152a0:	04850563          	beq	a0,s0,152ea <_ZN20complex_full_dynamic3app17hb57728f4b8b9d120E+0x9e>
   152a4:	864a                	mv	a2,s2
   152a6:	c026                	sw	s1,0(sp)
   152a8:	c222                	sw	s0,4(sp)
   152aa:	00f10423          	sb	a5,8(sp)
   152ae:	47a1                	li	a5,8
   152b0:	448d                	li	s1,3
   152b2:	20900513          	li	a0,521
   152b6:	45a1                	li	a1,8
   152b8:	02e00693          	li	a3,46
   152bc:	470d                	li	a4,3
   152be:	00000073          	ecall
   152c2:	02850463          	beq	a0,s0,152ea <_ZN20complex_full_dynamic3app17hb57728f4b8b9d120E+0x9e>
   152c6:	20900693          	li	a3,521
   152ca:	20900513          	li	a0,521
   152ce:	4589                	li	a1,2
   152d0:	4621                	li	a2,8
   152d2:	4709                	li	a4,2
   152d4:	07f00413          	li	s0,127
   152d8:	c0b6                	sw	a3,64(sp)
   152da:	c2be                	sw	a5,68(sp)
   152dc:	04910423          	sb	s1,72(sp)
   152e0:	4681                	li	a3,0
   152e2:	00000073          	ecall
   152e6:	02a46863          	bltu	s0,a0,15316 <_ZN20complex_full_dynamic3app17hb57728f4b8b9d120E+0xca>
   152ea:	00b9a223          	sw	a1,4(s3)
   152ee:	4505                	li	a0,1
   152f0:	00a98023          	sb	a0,0(s3)
   152f4:	0088                	addi	a0,sp,64
   152f6:	00006097          	auipc	ra,0x6
   152fa:	bf0080e7          	jalr	-1040(ra) # 1aee6 <_ZN9allow_pin12full_dynamic17unshare_if_shared17he9718eb989dae51aE>
   152fe:	850a                	mv	a0,sp
   15300:	00006097          	auipc	ra,0x6
   15304:	be6080e7          	jalr	-1050(ra) # 1aee6 <_ZN9allow_pin12full_dynamic17unshare_if_shared17he9718eb989dae51aE>
   15308:	40ba                	lw	ra,140(sp)
   1530a:	442a                	lw	s0,136(sp)
   1530c:	449a                	lw	s1,132(sp)
   1530e:	490a                	lw	s2,128(sp)
   15310:	59f6                	lw	s3,124(sp)
   15312:	6149                	addi	sp,sp,144
   15314:	8082                	ret
   15316:	850a                	mv	a0,sp
   15318:	00006097          	auipc	ra,0x6
   1531c:	bce080e7          	jalr	-1074(ra) # 1aee6 <_ZN9allow_pin12full_dynamic17unshare_if_shared17he9718eb989dae51aE>
   15320:	0088                	addi	a0,sp,64
   15322:	00006097          	auipc	ra,0x6
   15326:	bc4080e7          	jalr	-1084(ra) # 1aee6 <_ZN9allow_pin12full_dynamic17unshare_if_shared17he9718eb989dae51aE>
   1532a:	0088                	addi	a0,sp,64
   1532c:	00006097          	auipc	ra,0x6
   15330:	bba080e7          	jalr	-1094(ra) # 1aee6 <_ZN9allow_pin12full_dynamic17unshare_if_shared17he9718eb989dae51aE>
   15334:	00198513          	addi	a0,s3,1
   15338:	02e00613          	li	a2,46
   1533c:	85ca                	mv	a1,s2
   1533e:	00006097          	auipc	ra,0x6
   15342:	c34080e7          	jalr	-972(ra) # 1af72 <memcpy>
   15346:	4501                	li	a0,0
   15348:	b765                	j	152f0 <_ZN20complex_full_dynamic3app17hb57728f4b8b9d120E+0xa4>

0001534a <_ZN20complex_full_dynamic3app17hbd055086c848ff05E>:
   1534a:	7131                	addi	sp,sp,-192
   1534c:	df06                	sw	ra,188(sp)
   1534e:	dd22                	sw	s0,184(sp)
   15350:	db26                	sw	s1,180(sp)
   15352:	d94a                	sw	s2,176(sp)
   15354:	d74e                	sw	s3,172(sp)
   15356:	89aa                	mv	s3,a0
   15358:	4409                	li	s0,2
   1535a:	00810623          	sb	s0,12(sp)
   1535e:	0804                	addi	s1,sp,16
   15360:	02a00613          	li	a2,42
   15364:	8526                	mv	a0,s1
   15366:	00006097          	auipc	ra,0x6
   1536a:	c0c080e7          	jalr	-1012(ra) # 1af72 <memcpy>
   1536e:	04810913          	addi	s2,sp,72
   15372:	06300613          	li	a2,99
   15376:	854a                	mv	a0,s2
   15378:	4581                	li	a1,0
   1537a:	00006097          	auipc	ra,0x6
   1537e:	b8c080e7          	jalr	-1140(ra) # 1af06 <memset>
   15382:	8626                	mv	a2,s1
   15384:	04810223          	sb	s0,68(sp)
   15388:	6509                	lui	a0,0x2
   1538a:	4491                	li	s1,4
   1538c:	4591                	li	a1,4
   1538e:	c7c50793          	addi	a5,a0,-900 # 1c7c <.Lline_table_start1+0x1a51>
   15392:	02a00693          	li	a3,42
   15396:	4711                	li	a4,4
   15398:	853e                	mv	a0,a5
   1539a:	00000073          	ecall
   1539e:	04850263          	beq	a0,s0,153e2 <_ZN20complex_full_dynamic3app17hbd055086c848ff05E+0x98>
   153a2:	853e                	mv	a0,a5
   153a4:	4581                	li	a1,0
   153a6:	864a                	mv	a2,s2
   153a8:	c23e                	sw	a5,4(sp)
   153aa:	c426                	sw	s1,8(sp)
   153ac:	00910623          	sb	s1,12(sp)
   153b0:	448d                	li	s1,3
   153b2:	06300693          	li	a3,99
   153b6:	470d                	li	a4,3
   153b8:	00000073          	ecall
   153bc:	02850363          	beq	a0,s0,153e2 <_ZN20complex_full_dynamic3app17hbd055086c848ff05E+0x98>
   153c0:	de3e                	sw	a5,60(sp)
   153c2:	c082                	sw	zero,64(sp)
   153c4:	04910223          	sb	s1,68(sp)
   153c8:	6509                	lui	a0,0x2
   153ca:	4591                	li	a1,4
   153cc:	c7c50513          	addi	a0,a0,-900 # 1c7c <.Lline_table_start1+0x1a51>
   153d0:	4709                	li	a4,2
   153d2:	07f00793          	li	a5,127
   153d6:	4601                	li	a2,0
   153d8:	4681                	li	a3,0
   153da:	00000073          	ecall
   153de:	02a7e863          	bltu	a5,a0,1540e <_ZN20complex_full_dynamic3app17hbd055086c848ff05E+0xc4>
   153e2:	00b9a223          	sw	a1,4(s3)
   153e6:	4505                	li	a0,1
   153e8:	00a98023          	sb	a0,0(s3)
   153ec:	1868                	addi	a0,sp,60
   153ee:	00006097          	auipc	ra,0x6
   153f2:	af8080e7          	jalr	-1288(ra) # 1aee6 <_ZN9allow_pin12full_dynamic17unshare_if_shared17he9718eb989dae51aE>
   153f6:	0048                	addi	a0,sp,4
   153f8:	00006097          	auipc	ra,0x6
   153fc:	aee080e7          	jalr	-1298(ra) # 1aee6 <_ZN9allow_pin12full_dynamic17unshare_if_shared17he9718eb989dae51aE>
   15400:	50fa                	lw	ra,188(sp)
   15402:	546a                	lw	s0,184(sp)
   15404:	54da                	lw	s1,180(sp)
   15406:	594a                	lw	s2,176(sp)
   15408:	59ba                	lw	s3,172(sp)
   1540a:	6129                	addi	sp,sp,192
   1540c:	8082                	ret
   1540e:	0048                	addi	a0,sp,4
   15410:	00006097          	auipc	ra,0x6
   15414:	ad6080e7          	jalr	-1322(ra) # 1aee6 <_ZN9allow_pin12full_dynamic17unshare_if_shared17he9718eb989dae51aE>
   15418:	1868                	addi	a0,sp,60
   1541a:	00006097          	auipc	ra,0x6
   1541e:	acc080e7          	jalr	-1332(ra) # 1aee6 <_ZN9allow_pin12full_dynamic17unshare_if_shared17he9718eb989dae51aE>
   15422:	1868                	addi	a0,sp,60
   15424:	00006097          	auipc	ra,0x6
   15428:	ac2080e7          	jalr	-1342(ra) # 1aee6 <_ZN9allow_pin12full_dynamic17unshare_if_shared17he9718eb989dae51aE>
   1542c:	00198513          	addi	a0,s3,1
   15430:	06300613          	li	a2,99
   15434:	85ca                	mv	a1,s2
   15436:	00006097          	auipc	ra,0x6
   1543a:	b3c080e7          	jalr	-1220(ra) # 1af72 <memcpy>
   1543e:	4501                	li	a0,0
   15440:	b765                	j	153e8 <_ZN20complex_full_dynamic3app17hbd055086c848ff05E+0x9e>

00015442 <_ZN20complex_full_dynamic3app17hbf96197fc169e18eE>:
   15442:	7171                	addi	sp,sp,-176
   15444:	d706                	sw	ra,172(sp)
   15446:	d522                	sw	s0,168(sp)
   15448:	d326                	sw	s1,164(sp)
   1544a:	d14a                	sw	s2,160(sp)
   1544c:	cf4e                	sw	s3,156(sp)
   1544e:	89aa                	mv	s3,a0
   15450:	4409                	li	s0,2
   15452:	00810a23          	sb	s0,20(sp)
   15456:	0824                	addi	s1,sp,24
   15458:	02200613          	li	a2,34
   1545c:	8526                	mv	a0,s1
   1545e:	00006097          	auipc	ra,0x6
   15462:	b14080e7          	jalr	-1260(ra) # 1af72 <memcpy>
   15466:	04810913          	addi	s2,sp,72
   1546a:	05100613          	li	a2,81
   1546e:	854a                	mv	a0,s2
   15470:	4581                	li	a1,0
   15472:	00006097          	auipc	ra,0x6
   15476:	a94080e7          	jalr	-1388(ra) # 1af06 <memset>
   1547a:	8626                	mv	a2,s1
   1547c:	04810223          	sb	s0,68(sp)
   15480:	55e00793          	li	a5,1374
   15484:	44a5                	li	s1,9
   15486:	4811                	li	a6,4
   15488:	55e00513          	li	a0,1374
   1548c:	45a5                	li	a1,9
   1548e:	02200693          	li	a3,34
   15492:	4711                	li	a4,4
   15494:	00000073          	ecall
   15498:	04850563          	beq	a0,s0,154e2 <_ZN20complex_full_dynamic3app17hbf96197fc169e18eE+0xa0>
   1549c:	864a                	mv	a2,s2
   1549e:	c63e                	sw	a5,12(sp)
   154a0:	c826                	sw	s1,16(sp)
   154a2:	01010a23          	sb	a6,20(sp)
   154a6:	478d                	li	a5,3
   154a8:	55e00513          	li	a0,1374
   154ac:	45a5                	li	a1,9
   154ae:	05100693          	li	a3,81
   154b2:	470d                	li	a4,3
   154b4:	00000073          	ecall
   154b8:	02850563          	beq	a0,s0,154e2 <_ZN20complex_full_dynamic3app17hbf96197fc169e18eE+0xa0>
   154bc:	55e00693          	li	a3,1374
   154c0:	44a5                	li	s1,9
   154c2:	55e00513          	li	a0,1374
   154c6:	45a5                	li	a1,9
   154c8:	4625                	li	a2,9
   154ca:	4709                	li	a4,2
   154cc:	07f00413          	li	s0,127
   154d0:	de36                	sw	a3,60(sp)
   154d2:	c0a6                	sw	s1,64(sp)
   154d4:	04f10223          	sb	a5,68(sp)
   154d8:	4681                	li	a3,0
   154da:	00000073          	ecall
   154de:	02a46863          	bltu	s0,a0,1550e <_ZN20complex_full_dynamic3app17hbf96197fc169e18eE+0xcc>
   154e2:	00b9a223          	sw	a1,4(s3)
   154e6:	4505                	li	a0,1
   154e8:	00a98023          	sb	a0,0(s3)
   154ec:	1868                	addi	a0,sp,60
   154ee:	00006097          	auipc	ra,0x6
   154f2:	9f8080e7          	jalr	-1544(ra) # 1aee6 <_ZN9allow_pin12full_dynamic17unshare_if_shared17he9718eb989dae51aE>
   154f6:	0068                	addi	a0,sp,12
   154f8:	00006097          	auipc	ra,0x6
   154fc:	9ee080e7          	jalr	-1554(ra) # 1aee6 <_ZN9allow_pin12full_dynamic17unshare_if_shared17he9718eb989dae51aE>
   15500:	50ba                	lw	ra,172(sp)
   15502:	542a                	lw	s0,168(sp)
   15504:	549a                	lw	s1,164(sp)
   15506:	590a                	lw	s2,160(sp)
   15508:	49fa                	lw	s3,156(sp)
   1550a:	614d                	addi	sp,sp,176
   1550c:	8082                	ret
   1550e:	0068                	addi	a0,sp,12
   15510:	00006097          	auipc	ra,0x6
   15514:	9d6080e7          	jalr	-1578(ra) # 1aee6 <_ZN9allow_pin12full_dynamic17unshare_if_shared17he9718eb989dae51aE>
   15518:	1868                	addi	a0,sp,60
   1551a:	00006097          	auipc	ra,0x6
   1551e:	9cc080e7          	jalr	-1588(ra) # 1aee6 <_ZN9allow_pin12full_dynamic17unshare_if_shared17he9718eb989dae51aE>
   15522:	1868                	addi	a0,sp,60
   15524:	00006097          	auipc	ra,0x6
   15528:	9c2080e7          	jalr	-1598(ra) # 1aee6 <_ZN9allow_pin12full_dynamic17unshare_if_shared17he9718eb989dae51aE>
   1552c:	00198513          	addi	a0,s3,1
   15530:	05100613          	li	a2,81
   15534:	85ca                	mv	a1,s2
   15536:	00006097          	auipc	ra,0x6
   1553a:	a3c080e7          	jalr	-1476(ra) # 1af72 <memcpy>
   1553e:	4501                	li	a0,0
   15540:	b765                	j	154e8 <_ZN20complex_full_dynamic3app17hbf96197fc169e18eE+0xa6>

00015542 <_ZN20complex_full_dynamic3app17hc0747bf4cd025b5fE>:
   15542:	7135                	addi	sp,sp,-160
   15544:	cf06                	sw	ra,156(sp)
   15546:	cd22                	sw	s0,152(sp)
   15548:	cb26                	sw	s1,148(sp)
   1554a:	c94a                	sw	s2,144(sp)
   1554c:	c74e                	sw	s3,140(sp)
   1554e:	89aa                	mv	s3,a0
   15550:	4409                	li	s0,2
   15552:	00810423          	sb	s0,8(sp)
   15556:	0064                	addi	s1,sp,12
   15558:	04000613          	li	a2,64
   1555c:	8526                	mv	a0,s1
   1555e:	00006097          	auipc	ra,0x6
   15562:	a14080e7          	jalr	-1516(ra) # 1af72 <memcpy>
   15566:	05810913          	addi	s2,sp,88
   1556a:	03100613          	li	a2,49
   1556e:	854a                	mv	a0,s2
   15570:	4581                	li	a1,0
   15572:	00006097          	auipc	ra,0x6
   15576:	994080e7          	jalr	-1644(ra) # 1af06 <memset>
   1557a:	8626                	mv	a2,s1
   1557c:	04810a23          	sb	s0,84(sp)
   15580:	6505                	lui	a0,0x1
   15582:	44a1                	li	s1,8
   15584:	4811                	li	a6,4
   15586:	45a1                	li	a1,8
   15588:	fce50793          	addi	a5,a0,-50 # fce <.Lline_table_start1+0xda3>
   1558c:	04000693          	li	a3,64
   15590:	4711                	li	a4,4
   15592:	853e                	mv	a0,a5
   15594:	00000073          	ecall
   15598:	04850363          	beq	a0,s0,155de <_ZN20complex_full_dynamic3app17hc0747bf4cd025b5fE+0x9c>
   1559c:	853e                	mv	a0,a5
   1559e:	864a                	mv	a2,s2
   155a0:	c03e                	sw	a5,0(sp)
   155a2:	c226                	sw	s1,4(sp)
   155a4:	01010423          	sb	a6,8(sp)
   155a8:	4495                	li	s1,5
   155aa:	480d                	li	a6,3
   155ac:	4595                	li	a1,5
   155ae:	03100693          	li	a3,49
   155b2:	470d                	li	a4,3
   155b4:	00000073          	ecall
   155b8:	02850363          	beq	a0,s0,155de <_ZN20complex_full_dynamic3app17hc0747bf4cd025b5fE+0x9c>
   155bc:	c6be                	sw	a5,76(sp)
   155be:	c8a6                	sw	s1,80(sp)
   155c0:	05010a23          	sb	a6,84(sp)
   155c4:	6505                	lui	a0,0x1
   155c6:	45a1                	li	a1,8
   155c8:	4615                	li	a2,5
   155ca:	fce50513          	addi	a0,a0,-50 # fce <.Lline_table_start1+0xda3>
   155ce:	4709                	li	a4,2
   155d0:	07f00793          	li	a5,127
   155d4:	4681                	li	a3,0
   155d6:	00000073          	ecall
   155da:	02a7e863          	bltu	a5,a0,1560a <_ZN20complex_full_dynamic3app17hc0747bf4cd025b5fE+0xc8>
   155de:	00b9a223          	sw	a1,4(s3)
   155e2:	4505                	li	a0,1
   155e4:	00a98023          	sb	a0,0(s3)
   155e8:	00e8                	addi	a0,sp,76
   155ea:	00006097          	auipc	ra,0x6
   155ee:	8fc080e7          	jalr	-1796(ra) # 1aee6 <_ZN9allow_pin12full_dynamic17unshare_if_shared17he9718eb989dae51aE>
   155f2:	850a                	mv	a0,sp
   155f4:	00006097          	auipc	ra,0x6
   155f8:	8f2080e7          	jalr	-1806(ra) # 1aee6 <_ZN9allow_pin12full_dynamic17unshare_if_shared17he9718eb989dae51aE>
   155fc:	40fa                	lw	ra,156(sp)
   155fe:	446a                	lw	s0,152(sp)
   15600:	44da                	lw	s1,148(sp)
   15602:	494a                	lw	s2,144(sp)
   15604:	49ba                	lw	s3,140(sp)
   15606:	610d                	addi	sp,sp,160
   15608:	8082                	ret
   1560a:	850a                	mv	a0,sp
   1560c:	00006097          	auipc	ra,0x6
   15610:	8da080e7          	jalr	-1830(ra) # 1aee6 <_ZN9allow_pin12full_dynamic17unshare_if_shared17he9718eb989dae51aE>
   15614:	00e8                	addi	a0,sp,76
   15616:	00006097          	auipc	ra,0x6
   1561a:	8d0080e7          	jalr	-1840(ra) # 1aee6 <_ZN9allow_pin12full_dynamic17unshare_if_shared17he9718eb989dae51aE>
   1561e:	00e8                	addi	a0,sp,76
   15620:	00006097          	auipc	ra,0x6
   15624:	8c6080e7          	jalr	-1850(ra) # 1aee6 <_ZN9allow_pin12full_dynamic17unshare_if_shared17he9718eb989dae51aE>
   15628:	00198513          	addi	a0,s3,1
   1562c:	03100613          	li	a2,49
   15630:	85ca                	mv	a1,s2
   15632:	00006097          	auipc	ra,0x6
   15636:	940080e7          	jalr	-1728(ra) # 1af72 <memcpy>
   1563a:	4501                	li	a0,0
   1563c:	b765                	j	155e4 <_ZN20complex_full_dynamic3app17hc0747bf4cd025b5fE+0xa2>

0001563e <_ZN20complex_full_dynamic3app17hc5ac9f9bbaa079e5E>:
   1563e:	7175                	addi	sp,sp,-144
   15640:	c706                	sw	ra,140(sp)
   15642:	c522                	sw	s0,136(sp)
   15644:	c326                	sw	s1,132(sp)
   15646:	c14a                	sw	s2,128(sp)
   15648:	dece                	sw	s3,124(sp)
   1564a:	89aa                	mv	s3,a0
   1564c:	4409                	li	s0,2
   1564e:	00810a23          	sb	s0,20(sp)
   15652:	0824                	addi	s1,sp,24
   15654:	4639                	li	a2,14
   15656:	8526                	mv	a0,s1
   15658:	00006097          	auipc	ra,0x6
   1565c:	91a080e7          	jalr	-1766(ra) # 1af72 <memcpy>
   15660:	03410913          	addi	s2,sp,52
   15664:	04800613          	li	a2,72
   15668:	854a                	mv	a0,s2
   1566a:	4581                	li	a1,0
   1566c:	00006097          	auipc	ra,0x6
   15670:	89a080e7          	jalr	-1894(ra) # 1af06 <memset>
   15674:	8626                	mv	a2,s1
   15676:	02810823          	sb	s0,48(sp)
   1567a:	6505                	lui	a0,0x1
   1567c:	448d                	li	s1,3
   1567e:	4811                	li	a6,4
   15680:	458d                	li	a1,3
   15682:	2d150793          	addi	a5,a0,721 # 12d1 <.Lline_table_start1+0x10a6>
   15686:	46b9                	li	a3,14
   15688:	4711                	li	a4,4
   1568a:	853e                	mv	a0,a5
   1568c:	00000073          	ecall
   15690:	04850363          	beq	a0,s0,156d6 <_ZN20complex_full_dynamic3app17hc5ac9f9bbaa079e5E+0x98>
   15694:	853e                	mv	a0,a5
   15696:	864a                	mv	a2,s2
   15698:	c63e                	sw	a5,12(sp)
   1569a:	c826                	sw	s1,16(sp)
   1569c:	01010a23          	sb	a6,20(sp)
   156a0:	44a1                	li	s1,8
   156a2:	45a1                	li	a1,8
   156a4:	04800693          	li	a3,72
   156a8:	470d                	li	a4,3
   156aa:	00000073          	ecall
   156ae:	02850463          	beq	a0,s0,156d6 <_ZN20complex_full_dynamic3app17hc5ac9f9bbaa079e5E+0x98>
   156b2:	450d                	li	a0,3
   156b4:	6685                	lui	a3,0x1
   156b6:	458d                	li	a1,3
   156b8:	4621                	li	a2,8
   156ba:	d43e                	sw	a5,40(sp)
   156bc:	d626                	sw	s1,44(sp)
   156be:	02a10823          	sb	a0,48(sp)
   156c2:	2d168513          	addi	a0,a3,721 # 12d1 <.Lline_table_start1+0x10a6>
   156c6:	4709                	li	a4,2
   156c8:	07f00793          	li	a5,127
   156cc:	4681                	li	a3,0
   156ce:	00000073          	ecall
   156d2:	02a7e863          	bltu	a5,a0,15702 <_ZN20complex_full_dynamic3app17hc5ac9f9bbaa079e5E+0xc4>
   156d6:	00b9a223          	sw	a1,4(s3)
   156da:	4505                	li	a0,1
   156dc:	00a98023          	sb	a0,0(s3)
   156e0:	1028                	addi	a0,sp,40
   156e2:	00006097          	auipc	ra,0x6
   156e6:	804080e7          	jalr	-2044(ra) # 1aee6 <_ZN9allow_pin12full_dynamic17unshare_if_shared17he9718eb989dae51aE>
   156ea:	0068                	addi	a0,sp,12
   156ec:	00005097          	auipc	ra,0x5
   156f0:	7fa080e7          	jalr	2042(ra) # 1aee6 <_ZN9allow_pin12full_dynamic17unshare_if_shared17he9718eb989dae51aE>
   156f4:	40ba                	lw	ra,140(sp)
   156f6:	442a                	lw	s0,136(sp)
   156f8:	449a                	lw	s1,132(sp)
   156fa:	490a                	lw	s2,128(sp)
   156fc:	59f6                	lw	s3,124(sp)
   156fe:	6149                	addi	sp,sp,144
   15700:	8082                	ret
   15702:	0068                	addi	a0,sp,12
   15704:	00005097          	auipc	ra,0x5
   15708:	7e2080e7          	jalr	2018(ra) # 1aee6 <_ZN9allow_pin12full_dynamic17unshare_if_shared17he9718eb989dae51aE>
   1570c:	1028                	addi	a0,sp,40
   1570e:	00005097          	auipc	ra,0x5
   15712:	7d8080e7          	jalr	2008(ra) # 1aee6 <_ZN9allow_pin12full_dynamic17unshare_if_shared17he9718eb989dae51aE>
   15716:	1028                	addi	a0,sp,40
   15718:	00005097          	auipc	ra,0x5
   1571c:	7ce080e7          	jalr	1998(ra) # 1aee6 <_ZN9allow_pin12full_dynamic17unshare_if_shared17he9718eb989dae51aE>
   15720:	00198513          	addi	a0,s3,1
   15724:	04800613          	li	a2,72
   15728:	85ca                	mv	a1,s2
   1572a:	00006097          	auipc	ra,0x6
   1572e:	848080e7          	jalr	-1976(ra) # 1af72 <memcpy>
   15732:	4501                	li	a0,0
   15734:	b765                	j	156dc <_ZN20complex_full_dynamic3app17hc5ac9f9bbaa079e5E+0x9e>

00015736 <_ZN20complex_full_dynamic3app17hc74248d9a8bce664E>:
   15736:	7131                	addi	sp,sp,-192
   15738:	df06                	sw	ra,188(sp)
   1573a:	dd22                	sw	s0,184(sp)
   1573c:	db26                	sw	s1,180(sp)
   1573e:	d94a                	sw	s2,176(sp)
   15740:	d74e                	sw	s3,172(sp)
   15742:	89aa                	mv	s3,a0
   15744:	4409                	li	s0,2
   15746:	00810823          	sb	s0,16(sp)
   1574a:	0844                	addi	s1,sp,20
   1574c:	05000613          	li	a2,80
   15750:	8526                	mv	a0,s1
   15752:	00006097          	auipc	ra,0x6
   15756:	820080e7          	jalr	-2016(ra) # 1af72 <memcpy>
   1575a:	07010913          	addi	s2,sp,112
   1575e:	03c00613          	li	a2,60
   15762:	854a                	mv	a0,s2
   15764:	4581                	li	a1,0
   15766:	00005097          	auipc	ra,0x5
   1576a:	7a0080e7          	jalr	1952(ra) # 1af06 <memset>
   1576e:	8626                	mv	a2,s1
   15770:	06810623          	sb	s0,108(sp)
   15774:	6505                	lui	a0,0x1
   15776:	448d                	li	s1,3
   15778:	4811                	li	a6,4
   1577a:	458d                	li	a1,3
   1577c:	d7a50793          	addi	a5,a0,-646 # d7a <.Lline_table_start1+0xb4f>
   15780:	05000693          	li	a3,80
   15784:	4711                	li	a4,4
   15786:	853e                	mv	a0,a5
   15788:	00000073          	ecall
   1578c:	04850363          	beq	a0,s0,157d2 <_ZN20complex_full_dynamic3app17hc74248d9a8bce664E+0x9c>
   15790:	853e                	mv	a0,a5
   15792:	864a                	mv	a2,s2
   15794:	c43e                	sw	a5,8(sp)
   15796:	c626                	sw	s1,12(sp)
   15798:	01010823          	sb	a6,16(sp)
   1579c:	44a5                	li	s1,9
   1579e:	45a5                	li	a1,9
   157a0:	03c00693          	li	a3,60
   157a4:	470d                	li	a4,3
   157a6:	00000073          	ecall
   157aa:	02850463          	beq	a0,s0,157d2 <_ZN20complex_full_dynamic3app17hc74248d9a8bce664E+0x9c>
   157ae:	450d                	li	a0,3
   157b0:	6685                	lui	a3,0x1
   157b2:	458d                	li	a1,3
   157b4:	4625                	li	a2,9
   157b6:	d2be                	sw	a5,100(sp)
   157b8:	d4a6                	sw	s1,104(sp)
   157ba:	06a10623          	sb	a0,108(sp)
   157be:	d7a68513          	addi	a0,a3,-646 # d7a <.Lline_table_start1+0xb4f>
   157c2:	4709                	li	a4,2
   157c4:	07f00793          	li	a5,127
   157c8:	4681                	li	a3,0
   157ca:	00000073          	ecall
   157ce:	02a7e863          	bltu	a5,a0,157fe <_ZN20complex_full_dynamic3app17hc74248d9a8bce664E+0xc8>
   157d2:	00b9a223          	sw	a1,4(s3)
   157d6:	4505                	li	a0,1
   157d8:	00a98023          	sb	a0,0(s3)
   157dc:	10c8                	addi	a0,sp,100
   157de:	00005097          	auipc	ra,0x5
   157e2:	708080e7          	jalr	1800(ra) # 1aee6 <_ZN9allow_pin12full_dynamic17unshare_if_shared17he9718eb989dae51aE>
   157e6:	0028                	addi	a0,sp,8
   157e8:	00005097          	auipc	ra,0x5
   157ec:	6fe080e7          	jalr	1790(ra) # 1aee6 <_ZN9allow_pin12full_dynamic17unshare_if_shared17he9718eb989dae51aE>
   157f0:	50fa                	lw	ra,188(sp)
   157f2:	546a                	lw	s0,184(sp)
   157f4:	54da                	lw	s1,180(sp)
   157f6:	594a                	lw	s2,176(sp)
   157f8:	59ba                	lw	s3,172(sp)
   157fa:	6129                	addi	sp,sp,192
   157fc:	8082                	ret
   157fe:	0028                	addi	a0,sp,8
   15800:	00005097          	auipc	ra,0x5
   15804:	6e6080e7          	jalr	1766(ra) # 1aee6 <_ZN9allow_pin12full_dynamic17unshare_if_shared17he9718eb989dae51aE>
   15808:	10c8                	addi	a0,sp,100
   1580a:	00005097          	auipc	ra,0x5
   1580e:	6dc080e7          	jalr	1756(ra) # 1aee6 <_ZN9allow_pin12full_dynamic17unshare_if_shared17he9718eb989dae51aE>
   15812:	10c8                	addi	a0,sp,100
   15814:	00005097          	auipc	ra,0x5
   15818:	6d2080e7          	jalr	1746(ra) # 1aee6 <_ZN9allow_pin12full_dynamic17unshare_if_shared17he9718eb989dae51aE>
   1581c:	00198513          	addi	a0,s3,1
   15820:	03c00613          	li	a2,60
   15824:	85ca                	mv	a1,s2
   15826:	00005097          	auipc	ra,0x5
   1582a:	74c080e7          	jalr	1868(ra) # 1af72 <memcpy>
   1582e:	4501                	li	a0,0
   15830:	b765                	j	157d8 <_ZN20complex_full_dynamic3app17hc74248d9a8bce664E+0xa2>

00015832 <_ZN20complex_full_dynamic3app17hcd58333f27d1844aE>:
   15832:	7175                	addi	sp,sp,-144
   15834:	c706                	sw	ra,140(sp)
   15836:	c522                	sw	s0,136(sp)
   15838:	c326                	sw	s1,132(sp)
   1583a:	c14a                	sw	s2,128(sp)
   1583c:	dece                	sw	s3,124(sp)
   1583e:	89aa                	mv	s3,a0
   15840:	4409                	li	s0,2
   15842:	00810423          	sb	s0,8(sp)
   15846:	0064                	addi	s1,sp,12
   15848:	4645                	li	a2,17
   1584a:	8526                	mv	a0,s1
   1584c:	00005097          	auipc	ra,0x5
   15850:	726080e7          	jalr	1830(ra) # 1af72 <memcpy>
   15854:	02c10913          	addi	s2,sp,44
   15858:	05000613          	li	a2,80
   1585c:	854a                	mv	a0,s2
   1585e:	4581                	li	a1,0
   15860:	00005097          	auipc	ra,0x5
   15864:	6a6080e7          	jalr	1702(ra) # 1af06 <memset>
   15868:	8626                	mv	a2,s1
   1586a:	02810423          	sb	s0,40(sp)
   1586e:	6509                	lui	a0,0x2
   15870:	4499                	li	s1,6
   15872:	4811                	li	a6,4
   15874:	4599                	li	a1,6
   15876:	aa950793          	addi	a5,a0,-1367 # 1aa9 <.Lline_table_start1+0x187e>
   1587a:	46c5                	li	a3,17
   1587c:	4711                	li	a4,4
   1587e:	853e                	mv	a0,a5
   15880:	00000073          	ecall
   15884:	04850363          	beq	a0,s0,158ca <_ZN20complex_full_dynamic3app17hcd58333f27d1844aE+0x98>
   15888:	853e                	mv	a0,a5
   1588a:	864a                	mv	a2,s2
   1588c:	c03e                	sw	a5,0(sp)
   1588e:	c226                	sw	s1,4(sp)
   15890:	01010423          	sb	a6,8(sp)
   15894:	4495                	li	s1,5
   15896:	480d                	li	a6,3
   15898:	4595                	li	a1,5
   1589a:	05000693          	li	a3,80
   1589e:	470d                	li	a4,3
   158a0:	00000073          	ecall
   158a4:	02850363          	beq	a0,s0,158ca <_ZN20complex_full_dynamic3app17hcd58333f27d1844aE+0x98>
   158a8:	d03e                	sw	a5,32(sp)
   158aa:	d226                	sw	s1,36(sp)
   158ac:	03010423          	sb	a6,40(sp)
   158b0:	6509                	lui	a0,0x2
   158b2:	4599                	li	a1,6
   158b4:	4615                	li	a2,5
   158b6:	aa950513          	addi	a0,a0,-1367 # 1aa9 <.Lline_table_start1+0x187e>
   158ba:	4709                	li	a4,2
   158bc:	07f00793          	li	a5,127
   158c0:	4681                	li	a3,0
   158c2:	00000073          	ecall
   158c6:	02a7e863          	bltu	a5,a0,158f6 <_ZN20complex_full_dynamic3app17hcd58333f27d1844aE+0xc4>
   158ca:	00b9a223          	sw	a1,4(s3)
   158ce:	4505                	li	a0,1
   158d0:	00a98023          	sb	a0,0(s3)
   158d4:	1008                	addi	a0,sp,32
   158d6:	00005097          	auipc	ra,0x5
   158da:	610080e7          	jalr	1552(ra) # 1aee6 <_ZN9allow_pin12full_dynamic17unshare_if_shared17he9718eb989dae51aE>
   158de:	850a                	mv	a0,sp
   158e0:	00005097          	auipc	ra,0x5
   158e4:	606080e7          	jalr	1542(ra) # 1aee6 <_ZN9allow_pin12full_dynamic17unshare_if_shared17he9718eb989dae51aE>
   158e8:	40ba                	lw	ra,140(sp)
   158ea:	442a                	lw	s0,136(sp)
   158ec:	449a                	lw	s1,132(sp)
   158ee:	490a                	lw	s2,128(sp)
   158f0:	59f6                	lw	s3,124(sp)
   158f2:	6149                	addi	sp,sp,144
   158f4:	8082                	ret
   158f6:	850a                	mv	a0,sp
   158f8:	00005097          	auipc	ra,0x5
   158fc:	5ee080e7          	jalr	1518(ra) # 1aee6 <_ZN9allow_pin12full_dynamic17unshare_if_shared17he9718eb989dae51aE>
   15900:	1008                	addi	a0,sp,32
   15902:	00005097          	auipc	ra,0x5
   15906:	5e4080e7          	jalr	1508(ra) # 1aee6 <_ZN9allow_pin12full_dynamic17unshare_if_shared17he9718eb989dae51aE>
   1590a:	1008                	addi	a0,sp,32
   1590c:	00005097          	auipc	ra,0x5
   15910:	5da080e7          	jalr	1498(ra) # 1aee6 <_ZN9allow_pin12full_dynamic17unshare_if_shared17he9718eb989dae51aE>
   15914:	00198513          	addi	a0,s3,1
   15918:	05000613          	li	a2,80
   1591c:	85ca                	mv	a1,s2
   1591e:	00005097          	auipc	ra,0x5
   15922:	654080e7          	jalr	1620(ra) # 1af72 <memcpy>
   15926:	4501                	li	a0,0
   15928:	b765                	j	158d0 <_ZN20complex_full_dynamic3app17hcd58333f27d1844aE+0x9e>

0001592a <_ZN20complex_full_dynamic3app17hce1f56223bb27207E>:
   1592a:	7155                	addi	sp,sp,-208
   1592c:	c786                	sw	ra,204(sp)
   1592e:	c5a2                	sw	s0,200(sp)
   15930:	c3a6                	sw	s1,196(sp)
   15932:	c1ca                	sw	s2,192(sp)
   15934:	df4e                	sw	s3,188(sp)
   15936:	89aa                	mv	s3,a0
   15938:	4409                	li	s0,2
   1593a:	00810423          	sb	s0,8(sp)
   1593e:	0064                	addi	s1,sp,12
   15940:	05300613          	li	a2,83
   15944:	8526                	mv	a0,s1
   15946:	00005097          	auipc	ra,0x5
   1594a:	62c080e7          	jalr	1580(ra) # 1af72 <memcpy>
   1594e:	06c10913          	addi	s2,sp,108
   15952:	04d00613          	li	a2,77
   15956:	854a                	mv	a0,s2
   15958:	4581                	li	a1,0
   1595a:	00005097          	auipc	ra,0x5
   1595e:	5ac080e7          	jalr	1452(ra) # 1af06 <memset>
   15962:	8626                	mv	a2,s1
   15964:	06810423          	sb	s0,104(sp)
   15968:	6505                	lui	a0,0x1
   1596a:	44a5                	li	s1,9
   1596c:	4811                	li	a6,4
   1596e:	45a5                	li	a1,9
   15970:	6ba50793          	addi	a5,a0,1722 # 16ba <.Lline_table_start1+0x148f>
   15974:	05300693          	li	a3,83
   15978:	4711                	li	a4,4
   1597a:	853e                	mv	a0,a5
   1597c:	00000073          	ecall
   15980:	04850363          	beq	a0,s0,159c6 <_ZN20complex_full_dynamic3app17hce1f56223bb27207E+0x9c>
   15984:	853e                	mv	a0,a5
   15986:	864a                	mv	a2,s2
   15988:	c03e                	sw	a5,0(sp)
   1598a:	c226                	sw	s1,4(sp)
   1598c:	01010423          	sb	a6,8(sp)
   15990:	448d                	li	s1,3
   15992:	4591                	li	a1,4
   15994:	04d00693          	li	a3,77
   15998:	470d                	li	a4,3
   1599a:	00000073          	ecall
   1599e:	02850463          	beq	a0,s0,159c6 <_ZN20complex_full_dynamic3app17hce1f56223bb27207E+0x9c>
   159a2:	4511                	li	a0,4
   159a4:	6685                	lui	a3,0x1
   159a6:	45a5                	li	a1,9
   159a8:	4611                	li	a2,4
   159aa:	d0be                	sw	a5,96(sp)
   159ac:	d2aa                	sw	a0,100(sp)
   159ae:	06910423          	sb	s1,104(sp)
   159b2:	6ba68513          	addi	a0,a3,1722 # 16ba <.Lline_table_start1+0x148f>
   159b6:	4709                	li	a4,2
   159b8:	07f00793          	li	a5,127
   159bc:	4681                	li	a3,0
   159be:	00000073          	ecall
   159c2:	02a7e863          	bltu	a5,a0,159f2 <_ZN20complex_full_dynamic3app17hce1f56223bb27207E+0xc8>
   159c6:	00b9a223          	sw	a1,4(s3)
   159ca:	4505                	li	a0,1
   159cc:	00a98023          	sb	a0,0(s3)
   159d0:	1088                	addi	a0,sp,96
   159d2:	00005097          	auipc	ra,0x5
   159d6:	514080e7          	jalr	1300(ra) # 1aee6 <_ZN9allow_pin12full_dynamic17unshare_if_shared17he9718eb989dae51aE>
   159da:	850a                	mv	a0,sp
   159dc:	00005097          	auipc	ra,0x5
   159e0:	50a080e7          	jalr	1290(ra) # 1aee6 <_ZN9allow_pin12full_dynamic17unshare_if_shared17he9718eb989dae51aE>
   159e4:	40be                	lw	ra,204(sp)
   159e6:	442e                	lw	s0,200(sp)
   159e8:	449e                	lw	s1,196(sp)
   159ea:	490e                	lw	s2,192(sp)
   159ec:	59fa                	lw	s3,188(sp)
   159ee:	6169                	addi	sp,sp,208
   159f0:	8082                	ret
   159f2:	850a                	mv	a0,sp
   159f4:	00005097          	auipc	ra,0x5
   159f8:	4f2080e7          	jalr	1266(ra) # 1aee6 <_ZN9allow_pin12full_dynamic17unshare_if_shared17he9718eb989dae51aE>
   159fc:	1088                	addi	a0,sp,96
   159fe:	00005097          	auipc	ra,0x5
   15a02:	4e8080e7          	jalr	1256(ra) # 1aee6 <_ZN9allow_pin12full_dynamic17unshare_if_shared17he9718eb989dae51aE>
   15a06:	1088                	addi	a0,sp,96
   15a08:	00005097          	auipc	ra,0x5
   15a0c:	4de080e7          	jalr	1246(ra) # 1aee6 <_ZN9allow_pin12full_dynamic17unshare_if_shared17he9718eb989dae51aE>
   15a10:	00198513          	addi	a0,s3,1
   15a14:	04d00613          	li	a2,77
   15a18:	85ca                	mv	a1,s2
   15a1a:	00005097          	auipc	ra,0x5
   15a1e:	558080e7          	jalr	1368(ra) # 1af72 <memcpy>
   15a22:	4501                	li	a0,0
   15a24:	b765                	j	159cc <_ZN20complex_full_dynamic3app17hce1f56223bb27207E+0xa2>

00015a26 <_ZN20complex_full_dynamic3app17hce2a123d04b0ce39E>:
   15a26:	7119                	addi	sp,sp,-128
   15a28:	de86                	sw	ra,124(sp)
   15a2a:	dca2                	sw	s0,120(sp)
   15a2c:	daa6                	sw	s1,116(sp)
   15a2e:	d8ca                	sw	s2,112(sp)
   15a30:	d6ce                	sw	s3,108(sp)
   15a32:	892a                	mv	s2,a0
   15a34:	4409                	li	s0,2
   15a36:	00810a23          	sb	s0,20(sp)
   15a3a:	0824                	addi	s1,sp,24
   15a3c:	02700613          	li	a2,39
   15a40:	8526                	mv	a0,s1
   15a42:	00005097          	auipc	ra,0x5
   15a46:	530080e7          	jalr	1328(ra) # 1af72 <memcpy>
   15a4a:	8626                	mv	a2,s1
   15a4c:	06011423          	sh	zero,104(sp)
   15a50:	cc82                	sw	zero,88(sp)
   15a52:	ce82                	sw	zero,92(sp)
   15a54:	d082                	sw	zero,96(sp)
   15a56:	d282                	sw	zero,100(sp)
   15a58:	04810423          	sb	s0,72(sp)
   15a5c:	c682                	sw	zero,76(sp)
   15a5e:	c882                	sw	zero,80(sp)
   15a60:	ca82                	sw	zero,84(sp)
   15a62:	6505                	lui	a0,0x1
   15a64:	448d                	li	s1,3
   15a66:	4811                	li	a6,4
   15a68:	458d                	li	a1,3
   15a6a:	0e250793          	addi	a5,a0,226 # 10e2 <.Lline_table_start1+0xeb7>
   15a6e:	02700693          	li	a3,39
   15a72:	4711                	li	a4,4
   15a74:	853e                	mv	a0,a5
   15a76:	00000073          	ecall
   15a7a:	04850363          	beq	a0,s0,15ac0 <_ZN20complex_full_dynamic3app17hce2a123d04b0ce39E+0x9a>
   15a7e:	04c10993          	addi	s3,sp,76
   15a82:	c63e                	sw	a5,12(sp)
   15a84:	c826                	sw	s1,16(sp)
   15a86:	01010a23          	sb	a6,20(sp)
   15a8a:	458d                	li	a1,3
   15a8c:	46f9                	li	a3,30
   15a8e:	470d                	li	a4,3
   15a90:	853e                	mv	a0,a5
   15a92:	864e                	mv	a2,s3
   15a94:	00000073          	ecall
   15a98:	02850463          	beq	a0,s0,15ac0 <_ZN20complex_full_dynamic3app17hce2a123d04b0ce39E+0x9a>
   15a9c:	450d                	li	a0,3
   15a9e:	6685                	lui	a3,0x1
   15aa0:	458d                	li	a1,3
   15aa2:	460d                	li	a2,3
   15aa4:	c0be                	sw	a5,64(sp)
   15aa6:	c2aa                	sw	a0,68(sp)
   15aa8:	04a10423          	sb	a0,72(sp)
   15aac:	0e268513          	addi	a0,a3,226 # 10e2 <.Lline_table_start1+0xeb7>
   15ab0:	4709                	li	a4,2
   15ab2:	07f00793          	li	a5,127
   15ab6:	4681                	li	a3,0
   15ab8:	00000073          	ecall
   15abc:	02a7e863          	bltu	a5,a0,15aec <_ZN20complex_full_dynamic3app17hce2a123d04b0ce39E+0xc6>
   15ac0:	00b92223          	sw	a1,4(s2)
   15ac4:	4505                	li	a0,1
   15ac6:	00a90023          	sb	a0,0(s2)
   15aca:	0088                	addi	a0,sp,64
   15acc:	00005097          	auipc	ra,0x5
   15ad0:	41a080e7          	jalr	1050(ra) # 1aee6 <_ZN9allow_pin12full_dynamic17unshare_if_shared17he9718eb989dae51aE>
   15ad4:	0068                	addi	a0,sp,12
   15ad6:	00005097          	auipc	ra,0x5
   15ada:	410080e7          	jalr	1040(ra) # 1aee6 <_ZN9allow_pin12full_dynamic17unshare_if_shared17he9718eb989dae51aE>
   15ade:	50f6                	lw	ra,124(sp)
   15ae0:	5466                	lw	s0,120(sp)
   15ae2:	54d6                	lw	s1,116(sp)
   15ae4:	5946                	lw	s2,112(sp)
   15ae6:	59b6                	lw	s3,108(sp)
   15ae8:	6109                	addi	sp,sp,128
   15aea:	8082                	ret
   15aec:	0068                	addi	a0,sp,12
   15aee:	00005097          	auipc	ra,0x5
   15af2:	3f8080e7          	jalr	1016(ra) # 1aee6 <_ZN9allow_pin12full_dynamic17unshare_if_shared17he9718eb989dae51aE>
   15af6:	0088                	addi	a0,sp,64
   15af8:	00005097          	auipc	ra,0x5
   15afc:	3ee080e7          	jalr	1006(ra) # 1aee6 <_ZN9allow_pin12full_dynamic17unshare_if_shared17he9718eb989dae51aE>
   15b00:	0088                	addi	a0,sp,64
   15b02:	00005097          	auipc	ra,0x5
   15b06:	3e4080e7          	jalr	996(ra) # 1aee6 <_ZN9allow_pin12full_dynamic17unshare_if_shared17he9718eb989dae51aE>
   15b0a:	00190513          	addi	a0,s2,1
   15b0e:	4679                	li	a2,30
   15b10:	85ce                	mv	a1,s3
   15b12:	00005097          	auipc	ra,0x5
   15b16:	460080e7          	jalr	1120(ra) # 1af72 <memcpy>
   15b1a:	4501                	li	a0,0
   15b1c:	b76d                	j	15ac6 <_ZN20complex_full_dynamic3app17hce2a123d04b0ce39E+0xa0>

00015b1e <_ZN20complex_full_dynamic3app17hd59b2a98e661ad0dE>:
   15b1e:	7135                	addi	sp,sp,-160
   15b20:	cf06                	sw	ra,156(sp)
   15b22:	cd22                	sw	s0,152(sp)
   15b24:	cb26                	sw	s1,148(sp)
   15b26:	c94a                	sw	s2,144(sp)
   15b28:	c74e                	sw	s3,140(sp)
   15b2a:	892a                	mv	s2,a0
   15b2c:	4409                	li	s0,2
   15b2e:	00810423          	sb	s0,8(sp)
   15b32:	0064                	addi	s1,sp,12
   15b34:	05d00613          	li	a2,93
   15b38:	8526                	mv	a0,s1
   15b3a:	00005097          	auipc	ra,0x5
   15b3e:	438080e7          	jalr	1080(ra) # 1af72 <memcpy>
   15b42:	4581                	li	a1,0
   15b44:	8626                	mv	a2,s1
   15b46:	c302                	sw	zero,132(sp)
   15b48:	08011423          	sh	zero,136(sp)
   15b4c:	06810a23          	sb	s0,116(sp)
   15b50:	dc82                	sw	zero,120(sp)
   15b52:	de82                	sw	zero,124(sp)
   15b54:	c102                	sw	zero,128(sp)
   15b56:	6505                	lui	a0,0x1
   15b58:	4491                	li	s1,4
   15b5a:	5f150793          	addi	a5,a0,1521 # 15f1 <.Lline_table_start1+0x13c6>
   15b5e:	05d00693          	li	a3,93
   15b62:	4711                	li	a4,4
   15b64:	853e                	mv	a0,a5
   15b66:	00000073          	ecall
   15b6a:	04850463          	beq	a0,s0,15bb2 <_ZN20complex_full_dynamic3app17hd59b2a98e661ad0dE+0x94>
   15b6e:	853e                	mv	a0,a5
   15b70:	07810993          	addi	s3,sp,120
   15b74:	c03e                	sw	a5,0(sp)
   15b76:	c202                	sw	zero,4(sp)
   15b78:	00910423          	sb	s1,8(sp)
   15b7c:	448d                	li	s1,3
   15b7e:	4589                	li	a1,2
   15b80:	46c9                	li	a3,18
   15b82:	470d                	li	a4,3
   15b84:	864e                	mv	a2,s3
   15b86:	00000073          	ecall
   15b8a:	02850463          	beq	a0,s0,15bb2 <_ZN20complex_full_dynamic3app17hd59b2a98e661ad0dE+0x94>
   15b8e:	4509                	li	a0,2
   15b90:	6585                	lui	a1,0x1
   15b92:	4609                	li	a2,2
   15b94:	d6be                	sw	a5,108(sp)
   15b96:	d8aa                	sw	a0,112(sp)
   15b98:	06910a23          	sb	s1,116(sp)
   15b9c:	5f158513          	addi	a0,a1,1521 # 15f1 <.Lline_table_start1+0x13c6>
   15ba0:	4709                	li	a4,2
   15ba2:	07f00793          	li	a5,127
   15ba6:	4581                	li	a1,0
   15ba8:	4681                	li	a3,0
   15baa:	00000073          	ecall
   15bae:	02a7e863          	bltu	a5,a0,15bde <_ZN20complex_full_dynamic3app17hd59b2a98e661ad0dE+0xc0>
   15bb2:	00b92223          	sw	a1,4(s2)
   15bb6:	4505                	li	a0,1
   15bb8:	00a90023          	sb	a0,0(s2)
   15bbc:	10e8                	addi	a0,sp,108
   15bbe:	00005097          	auipc	ra,0x5
   15bc2:	328080e7          	jalr	808(ra) # 1aee6 <_ZN9allow_pin12full_dynamic17unshare_if_shared17he9718eb989dae51aE>
   15bc6:	850a                	mv	a0,sp
   15bc8:	00005097          	auipc	ra,0x5
   15bcc:	31e080e7          	jalr	798(ra) # 1aee6 <_ZN9allow_pin12full_dynamic17unshare_if_shared17he9718eb989dae51aE>
   15bd0:	40fa                	lw	ra,156(sp)
   15bd2:	446a                	lw	s0,152(sp)
   15bd4:	44da                	lw	s1,148(sp)
   15bd6:	494a                	lw	s2,144(sp)
   15bd8:	49ba                	lw	s3,140(sp)
   15bda:	610d                	addi	sp,sp,160
   15bdc:	8082                	ret
   15bde:	850a                	mv	a0,sp
   15be0:	00005097          	auipc	ra,0x5
   15be4:	306080e7          	jalr	774(ra) # 1aee6 <_ZN9allow_pin12full_dynamic17unshare_if_shared17he9718eb989dae51aE>
   15be8:	10e8                	addi	a0,sp,108
   15bea:	00005097          	auipc	ra,0x5
   15bee:	2fc080e7          	jalr	764(ra) # 1aee6 <_ZN9allow_pin12full_dynamic17unshare_if_shared17he9718eb989dae51aE>
   15bf2:	10e8                	addi	a0,sp,108
   15bf4:	00005097          	auipc	ra,0x5
   15bf8:	2f2080e7          	jalr	754(ra) # 1aee6 <_ZN9allow_pin12full_dynamic17unshare_if_shared17he9718eb989dae51aE>
   15bfc:	00190513          	addi	a0,s2,1
   15c00:	4649                	li	a2,18
   15c02:	85ce                	mv	a1,s3
   15c04:	00005097          	auipc	ra,0x5
   15c08:	36e080e7          	jalr	878(ra) # 1af72 <memcpy>
   15c0c:	4501                	li	a0,0
   15c0e:	b76d                	j	15bb8 <_ZN20complex_full_dynamic3app17hd59b2a98e661ad0dE+0x9a>

00015c10 <_ZN20complex_full_dynamic3app17hd81ad0fb61fba636E>:
   15c10:	7135                	addi	sp,sp,-160
   15c12:	cf06                	sw	ra,156(sp)
   15c14:	cd22                	sw	s0,152(sp)
   15c16:	cb26                	sw	s1,148(sp)
   15c18:	c94a                	sw	s2,144(sp)
   15c1a:	c74e                	sw	s3,140(sp)
   15c1c:	89aa                	mv	s3,a0
   15c1e:	4409                	li	s0,2
   15c20:	00810423          	sb	s0,8(sp)
   15c24:	0064                	addi	s1,sp,12
   15c26:	04800613          	li	a2,72
   15c2a:	8526                	mv	a0,s1
   15c2c:	00005097          	auipc	ra,0x5
   15c30:	346080e7          	jalr	838(ra) # 1af72 <memcpy>
   15c34:	06010913          	addi	s2,sp,96
   15c38:	02900613          	li	a2,41
   15c3c:	854a                	mv	a0,s2
   15c3e:	4581                	li	a1,0
   15c40:	00005097          	auipc	ra,0x5
   15c44:	2c6080e7          	jalr	710(ra) # 1af06 <memset>
   15c48:	8626                	mv	a2,s1
   15c4a:	04810e23          	sb	s0,92(sp)
   15c4e:	6509                	lui	a0,0x2
   15c50:	448d                	li	s1,3
   15c52:	4811                	li	a6,4
   15c54:	458d                	li	a1,3
   15c56:	6a450793          	addi	a5,a0,1700 # 26a4 <.Lline_table_start1+0x2479>
   15c5a:	04800693          	li	a3,72
   15c5e:	4711                	li	a4,4
   15c60:	853e                	mv	a0,a5
   15c62:	00000073          	ecall
   15c66:	04850363          	beq	a0,s0,15cac <_ZN20complex_full_dynamic3app17hd81ad0fb61fba636E+0x9c>
   15c6a:	c03e                	sw	a5,0(sp)
   15c6c:	c226                	sw	s1,4(sp)
   15c6e:	01010423          	sb	a6,8(sp)
   15c72:	4591                	li	a1,4
   15c74:	02900693          	li	a3,41
   15c78:	470d                	li	a4,3
   15c7a:	853e                	mv	a0,a5
   15c7c:	864a                	mv	a2,s2
   15c7e:	00000073          	ecall
   15c82:	02850563          	beq	a0,s0,15cac <_ZN20complex_full_dynamic3app17hd81ad0fb61fba636E+0x9c>
   15c86:	4511                	li	a0,4
   15c88:	468d                	li	a3,3
   15c8a:	6709                	lui	a4,0x2
   15c8c:	458d                	li	a1,3
   15c8e:	4611                	li	a2,4
   15c90:	cabe                	sw	a5,84(sp)
   15c92:	ccaa                	sw	a0,88(sp)
   15c94:	04d10e23          	sb	a3,92(sp)
   15c98:	6a470513          	addi	a0,a4,1700 # 26a4 <.Lline_table_start1+0x2479>
   15c9c:	4709                	li	a4,2
   15c9e:	07f00793          	li	a5,127
   15ca2:	4681                	li	a3,0
   15ca4:	00000073          	ecall
   15ca8:	02a7e863          	bltu	a5,a0,15cd8 <_ZN20complex_full_dynamic3app17hd81ad0fb61fba636E+0xc8>
   15cac:	00b9a223          	sw	a1,4(s3)
   15cb0:	4505                	li	a0,1
   15cb2:	00a98023          	sb	a0,0(s3)
   15cb6:	08c8                	addi	a0,sp,84
   15cb8:	00005097          	auipc	ra,0x5
   15cbc:	22e080e7          	jalr	558(ra) # 1aee6 <_ZN9allow_pin12full_dynamic17unshare_if_shared17he9718eb989dae51aE>
   15cc0:	850a                	mv	a0,sp
   15cc2:	00005097          	auipc	ra,0x5
   15cc6:	224080e7          	jalr	548(ra) # 1aee6 <_ZN9allow_pin12full_dynamic17unshare_if_shared17he9718eb989dae51aE>
   15cca:	40fa                	lw	ra,156(sp)
   15ccc:	446a                	lw	s0,152(sp)
   15cce:	44da                	lw	s1,148(sp)
   15cd0:	494a                	lw	s2,144(sp)
   15cd2:	49ba                	lw	s3,140(sp)
   15cd4:	610d                	addi	sp,sp,160
   15cd6:	8082                	ret
   15cd8:	850a                	mv	a0,sp
   15cda:	00005097          	auipc	ra,0x5
   15cde:	20c080e7          	jalr	524(ra) # 1aee6 <_ZN9allow_pin12full_dynamic17unshare_if_shared17he9718eb989dae51aE>
   15ce2:	08c8                	addi	a0,sp,84
   15ce4:	00005097          	auipc	ra,0x5
   15ce8:	202080e7          	jalr	514(ra) # 1aee6 <_ZN9allow_pin12full_dynamic17unshare_if_shared17he9718eb989dae51aE>
   15cec:	08c8                	addi	a0,sp,84
   15cee:	00005097          	auipc	ra,0x5
   15cf2:	1f8080e7          	jalr	504(ra) # 1aee6 <_ZN9allow_pin12full_dynamic17unshare_if_shared17he9718eb989dae51aE>
   15cf6:	00198513          	addi	a0,s3,1
   15cfa:	02900613          	li	a2,41
   15cfe:	85ca                	mv	a1,s2
   15d00:	00005097          	auipc	ra,0x5
   15d04:	272080e7          	jalr	626(ra) # 1af72 <memcpy>
   15d08:	4501                	li	a0,0
   15d0a:	b765                	j	15cb2 <_ZN20complex_full_dynamic3app17hd81ad0fb61fba636E+0xa2>

00015d0c <_ZN20complex_full_dynamic3app17hdbacc613dc40144fE>:
   15d0c:	711d                	addi	sp,sp,-96
   15d0e:	ce86                	sw	ra,92(sp)
   15d10:	cca2                	sw	s0,88(sp)
   15d12:	caa6                	sw	s1,84(sp)
   15d14:	c8ca                	sw	s2,80(sp)
   15d16:	c6ce                	sw	s3,76(sp)
   15d18:	89aa                	mv	s3,a0
   15d1a:	4409                	li	s0,2
   15d1c:	00810423          	sb	s0,8(sp)
   15d20:	0064                	addi	s1,sp,12
   15d22:	4635                	li	a2,13
   15d24:	8526                	mv	a0,s1
   15d26:	00005097          	auipc	ra,0x5
   15d2a:	24c080e7          	jalr	588(ra) # 1af72 <memcpy>
   15d2e:	02810913          	addi	s2,sp,40
   15d32:	02100613          	li	a2,33
   15d36:	854a                	mv	a0,s2
   15d38:	4581                	li	a1,0
   15d3a:	00005097          	auipc	ra,0x5
   15d3e:	1cc080e7          	jalr	460(ra) # 1af06 <memset>
   15d42:	4581                	li	a1,0
   15d44:	8626                	mv	a2,s1
   15d46:	02810223          	sb	s0,36(sp)
   15d4a:	6505                	lui	a0,0x1
   15d4c:	4491                	li	s1,4
   15d4e:	6b050793          	addi	a5,a0,1712 # 16b0 <.Lline_table_start1+0x1485>
   15d52:	46b5                	li	a3,13
   15d54:	4711                	li	a4,4
   15d56:	853e                	mv	a0,a5
   15d58:	00000073          	ecall
   15d5c:	04850263          	beq	a0,s0,15da0 <_ZN20complex_full_dynamic3app17hdbacc613dc40144fE+0x94>
   15d60:	853e                	mv	a0,a5
   15d62:	4581                	li	a1,0
   15d64:	864a                	mv	a2,s2
   15d66:	c03e                	sw	a5,0(sp)
   15d68:	c202                	sw	zero,4(sp)
   15d6a:	00910423          	sb	s1,8(sp)
   15d6e:	448d                	li	s1,3
   15d70:	02100693          	li	a3,33
   15d74:	470d                	li	a4,3
   15d76:	00000073          	ecall
   15d7a:	02850363          	beq	a0,s0,15da0 <_ZN20complex_full_dynamic3app17hdbacc613dc40144fE+0x94>
   15d7e:	ce3e                	sw	a5,28(sp)
   15d80:	d002                	sw	zero,32(sp)
   15d82:	02910223          	sb	s1,36(sp)
   15d86:	6505                	lui	a0,0x1
   15d88:	6b050513          	addi	a0,a0,1712 # 16b0 <.Lline_table_start1+0x1485>
   15d8c:	4709                	li	a4,2
   15d8e:	07f00793          	li	a5,127
   15d92:	4581                	li	a1,0
   15d94:	4601                	li	a2,0
   15d96:	4681                	li	a3,0
   15d98:	00000073          	ecall
   15d9c:	02a7e863          	bltu	a5,a0,15dcc <_ZN20complex_full_dynamic3app17hdbacc613dc40144fE+0xc0>
   15da0:	00b9a223          	sw	a1,4(s3)
   15da4:	4505                	li	a0,1
   15da6:	00a98023          	sb	a0,0(s3)
   15daa:	0868                	addi	a0,sp,28
   15dac:	00005097          	auipc	ra,0x5
   15db0:	13a080e7          	jalr	314(ra) # 1aee6 <_ZN9allow_pin12full_dynamic17unshare_if_shared17he9718eb989dae51aE>
   15db4:	850a                	mv	a0,sp
   15db6:	00005097          	auipc	ra,0x5
   15dba:	130080e7          	jalr	304(ra) # 1aee6 <_ZN9allow_pin12full_dynamic17unshare_if_shared17he9718eb989dae51aE>
   15dbe:	40f6                	lw	ra,92(sp)
   15dc0:	4466                	lw	s0,88(sp)
   15dc2:	44d6                	lw	s1,84(sp)
   15dc4:	4946                	lw	s2,80(sp)
   15dc6:	49b6                	lw	s3,76(sp)
   15dc8:	6125                	addi	sp,sp,96
   15dca:	8082                	ret
   15dcc:	850a                	mv	a0,sp
   15dce:	00005097          	auipc	ra,0x5
   15dd2:	118080e7          	jalr	280(ra) # 1aee6 <_ZN9allow_pin12full_dynamic17unshare_if_shared17he9718eb989dae51aE>
   15dd6:	0868                	addi	a0,sp,28
   15dd8:	00005097          	auipc	ra,0x5
   15ddc:	10e080e7          	jalr	270(ra) # 1aee6 <_ZN9allow_pin12full_dynamic17unshare_if_shared17he9718eb989dae51aE>
   15de0:	0868                	addi	a0,sp,28
   15de2:	00005097          	auipc	ra,0x5
   15de6:	104080e7          	jalr	260(ra) # 1aee6 <_ZN9allow_pin12full_dynamic17unshare_if_shared17he9718eb989dae51aE>
   15dea:	00198513          	addi	a0,s3,1
   15dee:	02100613          	li	a2,33
   15df2:	85ca                	mv	a1,s2
   15df4:	00005097          	auipc	ra,0x5
   15df8:	17e080e7          	jalr	382(ra) # 1af72 <memcpy>
   15dfc:	4501                	li	a0,0
   15dfe:	b765                	j	15da6 <_ZN20complex_full_dynamic3app17hdbacc613dc40144fE+0x9a>

00015e00 <_ZN20complex_full_dynamic3app17hdf54596007671da4E>:
   15e00:	7155                	addi	sp,sp,-208
   15e02:	c786                	sw	ra,204(sp)
   15e04:	c5a2                	sw	s0,200(sp)
   15e06:	c3a6                	sw	s1,196(sp)
   15e08:	c1ca                	sw	s2,192(sp)
   15e0a:	df4e                	sw	s3,188(sp)
   15e0c:	89aa                	mv	s3,a0
   15e0e:	4409                	li	s0,2
   15e10:	00810823          	sb	s0,16(sp)
   15e14:	0844                	addi	s1,sp,20
   15e16:	03a00613          	li	a2,58
   15e1a:	8526                	mv	a0,s1
   15e1c:	00005097          	auipc	ra,0x5
   15e20:	156080e7          	jalr	342(ra) # 1af72 <memcpy>
   15e24:	05c10913          	addi	s2,sp,92
   15e28:	05d00613          	li	a2,93
   15e2c:	854a                	mv	a0,s2
   15e2e:	4581                	li	a1,0
   15e30:	00005097          	auipc	ra,0x5
   15e34:	0d6080e7          	jalr	214(ra) # 1af06 <memset>
   15e38:	4581                	li	a1,0
   15e3a:	8626                	mv	a2,s1
   15e3c:	04810c23          	sb	s0,88(sp)
   15e40:	6505                	lui	a0,0x1
   15e42:	4491                	li	s1,4
   15e44:	4a450793          	addi	a5,a0,1188 # 14a4 <.Lline_table_start1+0x1279>
   15e48:	03a00693          	li	a3,58
   15e4c:	4711                	li	a4,4
   15e4e:	853e                	mv	a0,a5
   15e50:	00000073          	ecall
   15e54:	04850363          	beq	a0,s0,15e9a <_ZN20complex_full_dynamic3app17hdf54596007671da4E+0x9a>
   15e58:	853e                	mv	a0,a5
   15e5a:	864a                	mv	a2,s2
   15e5c:	c43e                	sw	a5,8(sp)
   15e5e:	c602                	sw	zero,12(sp)
   15e60:	00910823          	sb	s1,16(sp)
   15e64:	4495                	li	s1,5
   15e66:	480d                	li	a6,3
   15e68:	4595                	li	a1,5
   15e6a:	05d00693          	li	a3,93
   15e6e:	470d                	li	a4,3
   15e70:	00000073          	ecall
   15e74:	02850363          	beq	a0,s0,15e9a <_ZN20complex_full_dynamic3app17hdf54596007671da4E+0x9a>
   15e78:	c8be                	sw	a5,80(sp)
   15e7a:	caa6                	sw	s1,84(sp)
   15e7c:	05010c23          	sb	a6,88(sp)
   15e80:	6505                	lui	a0,0x1
   15e82:	4615                	li	a2,5
   15e84:	4a450513          	addi	a0,a0,1188 # 14a4 <.Lline_table_start1+0x1279>
   15e88:	4709                	li	a4,2
   15e8a:	07f00793          	li	a5,127
   15e8e:	4581                	li	a1,0
   15e90:	4681                	li	a3,0
   15e92:	00000073          	ecall
   15e96:	02a7e863          	bltu	a5,a0,15ec6 <_ZN20complex_full_dynamic3app17hdf54596007671da4E+0xc6>
   15e9a:	00b9a223          	sw	a1,4(s3)
   15e9e:	4505                	li	a0,1
   15ea0:	00a98023          	sb	a0,0(s3)
   15ea4:	0888                	addi	a0,sp,80
   15ea6:	00005097          	auipc	ra,0x5
   15eaa:	040080e7          	jalr	64(ra) # 1aee6 <_ZN9allow_pin12full_dynamic17unshare_if_shared17he9718eb989dae51aE>
   15eae:	0028                	addi	a0,sp,8
   15eb0:	00005097          	auipc	ra,0x5
   15eb4:	036080e7          	jalr	54(ra) # 1aee6 <_ZN9allow_pin12full_dynamic17unshare_if_shared17he9718eb989dae51aE>
   15eb8:	40be                	lw	ra,204(sp)
   15eba:	442e                	lw	s0,200(sp)
   15ebc:	449e                	lw	s1,196(sp)
   15ebe:	490e                	lw	s2,192(sp)
   15ec0:	59fa                	lw	s3,188(sp)
   15ec2:	6169                	addi	sp,sp,208
   15ec4:	8082                	ret
   15ec6:	0028                	addi	a0,sp,8
   15ec8:	00005097          	auipc	ra,0x5
   15ecc:	01e080e7          	jalr	30(ra) # 1aee6 <_ZN9allow_pin12full_dynamic17unshare_if_shared17he9718eb989dae51aE>
   15ed0:	0888                	addi	a0,sp,80
   15ed2:	00005097          	auipc	ra,0x5
   15ed6:	014080e7          	jalr	20(ra) # 1aee6 <_ZN9allow_pin12full_dynamic17unshare_if_shared17he9718eb989dae51aE>
   15eda:	0888                	addi	a0,sp,80
   15edc:	00005097          	auipc	ra,0x5
   15ee0:	00a080e7          	jalr	10(ra) # 1aee6 <_ZN9allow_pin12full_dynamic17unshare_if_shared17he9718eb989dae51aE>
   15ee4:	00198513          	addi	a0,s3,1
   15ee8:	05d00613          	li	a2,93
   15eec:	85ca                	mv	a1,s2
   15eee:	00005097          	auipc	ra,0x5
   15ef2:	084080e7          	jalr	132(ra) # 1af72 <memcpy>
   15ef6:	4501                	li	a0,0
   15ef8:	b765                	j	15ea0 <_ZN20complex_full_dynamic3app17hdf54596007671da4E+0xa0>

00015efa <_ZN20complex_full_dynamic3app17he1e56d3f0fc3ca7eE>:
   15efa:	7131                	addi	sp,sp,-192
   15efc:	df06                	sw	ra,188(sp)
   15efe:	dd22                	sw	s0,184(sp)
   15f00:	db26                	sw	s1,180(sp)
   15f02:	d94a                	sw	s2,176(sp)
   15f04:	d74e                	sw	s3,172(sp)
   15f06:	89aa                	mv	s3,a0
   15f08:	4409                	li	s0,2
   15f0a:	00810a23          	sb	s0,20(sp)
   15f0e:	0824                	addi	s1,sp,24
   15f10:	04f00613          	li	a2,79
   15f14:	8526                	mv	a0,s1
   15f16:	00005097          	auipc	ra,0x5
   15f1a:	05c080e7          	jalr	92(ra) # 1af72 <memcpy>
   15f1e:	07410913          	addi	s2,sp,116
   15f22:	03500613          	li	a2,53
   15f26:	854a                	mv	a0,s2
   15f28:	4581                	li	a1,0
   15f2a:	00005097          	auipc	ra,0x5
   15f2e:	fdc080e7          	jalr	-36(ra) # 1af06 <memset>
   15f32:	8626                	mv	a2,s1
   15f34:	06810823          	sb	s0,112(sp)
   15f38:	6505                	lui	a0,0x1
   15f3a:	449d                	li	s1,7
   15f3c:	4811                	li	a6,4
   15f3e:	459d                	li	a1,7
   15f40:	6d750793          	addi	a5,a0,1751 # 16d7 <.Lline_table_start1+0x14ac>
   15f44:	04f00693          	li	a3,79
   15f48:	4711                	li	a4,4
   15f4a:	853e                	mv	a0,a5
   15f4c:	00000073          	ecall
   15f50:	04850363          	beq	a0,s0,15f96 <_ZN20complex_full_dynamic3app17he1e56d3f0fc3ca7eE+0x9c>
   15f54:	853e                	mv	a0,a5
   15f56:	864a                	mv	a2,s2
   15f58:	c63e                	sw	a5,12(sp)
   15f5a:	c826                	sw	s1,16(sp)
   15f5c:	01010a23          	sb	a6,20(sp)
   15f60:	4485                	li	s1,1
   15f62:	480d                	li	a6,3
   15f64:	4585                	li	a1,1
   15f66:	03500693          	li	a3,53
   15f6a:	470d                	li	a4,3
   15f6c:	00000073          	ecall
   15f70:	02850363          	beq	a0,s0,15f96 <_ZN20complex_full_dynamic3app17he1e56d3f0fc3ca7eE+0x9c>
   15f74:	d4be                	sw	a5,104(sp)
   15f76:	d6a6                	sw	s1,108(sp)
   15f78:	07010823          	sb	a6,112(sp)
   15f7c:	6505                	lui	a0,0x1
   15f7e:	459d                	li	a1,7
   15f80:	4605                	li	a2,1
   15f82:	6d750513          	addi	a0,a0,1751 # 16d7 <.Lline_table_start1+0x14ac>
   15f86:	4709                	li	a4,2
   15f88:	07f00793          	li	a5,127
   15f8c:	4681                	li	a3,0
   15f8e:	00000073          	ecall
   15f92:	02a7e863          	bltu	a5,a0,15fc2 <_ZN20complex_full_dynamic3app17he1e56d3f0fc3ca7eE+0xc8>
   15f96:	00b9a223          	sw	a1,4(s3)
   15f9a:	4505                	li	a0,1
   15f9c:	00a98023          	sb	a0,0(s3)
   15fa0:	10a8                	addi	a0,sp,104
   15fa2:	00005097          	auipc	ra,0x5
   15fa6:	f44080e7          	jalr	-188(ra) # 1aee6 <_ZN9allow_pin12full_dynamic17unshare_if_shared17he9718eb989dae51aE>
   15faa:	0068                	addi	a0,sp,12
   15fac:	00005097          	auipc	ra,0x5
   15fb0:	f3a080e7          	jalr	-198(ra) # 1aee6 <_ZN9allow_pin12full_dynamic17unshare_if_shared17he9718eb989dae51aE>
   15fb4:	50fa                	lw	ra,188(sp)
   15fb6:	546a                	lw	s0,184(sp)
   15fb8:	54da                	lw	s1,180(sp)
   15fba:	594a                	lw	s2,176(sp)
   15fbc:	59ba                	lw	s3,172(sp)
   15fbe:	6129                	addi	sp,sp,192
   15fc0:	8082                	ret
   15fc2:	0068                	addi	a0,sp,12
   15fc4:	00005097          	auipc	ra,0x5
   15fc8:	f22080e7          	jalr	-222(ra) # 1aee6 <_ZN9allow_pin12full_dynamic17unshare_if_shared17he9718eb989dae51aE>
   15fcc:	10a8                	addi	a0,sp,104
   15fce:	00005097          	auipc	ra,0x5
   15fd2:	f18080e7          	jalr	-232(ra) # 1aee6 <_ZN9allow_pin12full_dynamic17unshare_if_shared17he9718eb989dae51aE>
   15fd6:	10a8                	addi	a0,sp,104
   15fd8:	00005097          	auipc	ra,0x5
   15fdc:	f0e080e7          	jalr	-242(ra) # 1aee6 <_ZN9allow_pin12full_dynamic17unshare_if_shared17he9718eb989dae51aE>
   15fe0:	00198513          	addi	a0,s3,1
   15fe4:	03500613          	li	a2,53
   15fe8:	85ca                	mv	a1,s2
   15fea:	00005097          	auipc	ra,0x5
   15fee:	f88080e7          	jalr	-120(ra) # 1af72 <memcpy>
   15ff2:	4501                	li	a0,0
   15ff4:	b765                	j	15f9c <_ZN20complex_full_dynamic3app17he1e56d3f0fc3ca7eE+0xa2>

00015ff6 <_ZN20complex_full_dynamic3app17he27361bd5661cc2aE>:
   15ff6:	7171                	addi	sp,sp,-176
   15ff8:	d706                	sw	ra,172(sp)
   15ffa:	d522                	sw	s0,168(sp)
   15ffc:	d326                	sw	s1,164(sp)
   15ffe:	d14a                	sw	s2,160(sp)
   16000:	cf4e                	sw	s3,156(sp)
   16002:	89aa                	mv	s3,a0
   16004:	4409                	li	s0,2
   16006:	00810823          	sb	s0,16(sp)
   1600a:	0844                	addi	s1,sp,20
   1600c:	04a00613          	li	a2,74
   16010:	8526                	mv	a0,s1
   16012:	00005097          	auipc	ra,0x5
   16016:	f60080e7          	jalr	-160(ra) # 1af72 <memcpy>
   1601a:	06c10913          	addi	s2,sp,108
   1601e:	02d00613          	li	a2,45
   16022:	854a                	mv	a0,s2
   16024:	4581                	li	a1,0
   16026:	00005097          	auipc	ra,0x5
   1602a:	ee0080e7          	jalr	-288(ra) # 1af06 <memset>
   1602e:	8626                	mv	a2,s1
   16030:	06810423          	sb	s0,104(sp)
   16034:	6505                	lui	a0,0x1
   16036:	4491                	li	s1,4
   16038:	4589                	li	a1,2
   1603a:	e3d50793          	addi	a5,a0,-451 # e3d <.Lline_table_start1+0xc12>
   1603e:	04a00693          	li	a3,74
   16042:	4711                	li	a4,4
   16044:	853e                	mv	a0,a5
   16046:	00000073          	ecall
   1604a:	04850263          	beq	a0,s0,1608e <_ZN20complex_full_dynamic3app17he27361bd5661cc2aE+0x98>
   1604e:	853e                	mv	a0,a5
   16050:	864a                	mv	a2,s2
   16052:	c43e                	sw	a5,8(sp)
   16054:	c622                	sw	s0,12(sp)
   16056:	00910823          	sb	s1,16(sp)
   1605a:	448d                	li	s1,3
   1605c:	458d                	li	a1,3
   1605e:	02d00693          	li	a3,45
   16062:	470d                	li	a4,3
   16064:	00000073          	ecall
   16068:	02850363          	beq	a0,s0,1608e <_ZN20complex_full_dynamic3app17he27361bd5661cc2aE+0x98>
   1606c:	d0be                	sw	a5,96(sp)
   1606e:	d2a6                	sw	s1,100(sp)
   16070:	06910423          	sb	s1,104(sp)
   16074:	6505                	lui	a0,0x1
   16076:	4589                	li	a1,2
   16078:	460d                	li	a2,3
   1607a:	e3d50513          	addi	a0,a0,-451 # e3d <.Lline_table_start1+0xc12>
   1607e:	4709                	li	a4,2
   16080:	07f00793          	li	a5,127
   16084:	4681                	li	a3,0
   16086:	00000073          	ecall
   1608a:	02a7e863          	bltu	a5,a0,160ba <_ZN20complex_full_dynamic3app17he27361bd5661cc2aE+0xc4>
   1608e:	00b9a223          	sw	a1,4(s3)
   16092:	4505                	li	a0,1
   16094:	00a98023          	sb	a0,0(s3)
   16098:	1088                	addi	a0,sp,96
   1609a:	00005097          	auipc	ra,0x5
   1609e:	e4c080e7          	jalr	-436(ra) # 1aee6 <_ZN9allow_pin12full_dynamic17unshare_if_shared17he9718eb989dae51aE>
   160a2:	0028                	addi	a0,sp,8
   160a4:	00005097          	auipc	ra,0x5
   160a8:	e42080e7          	jalr	-446(ra) # 1aee6 <_ZN9allow_pin12full_dynamic17unshare_if_shared17he9718eb989dae51aE>
   160ac:	50ba                	lw	ra,172(sp)
   160ae:	542a                	lw	s0,168(sp)
   160b0:	549a                	lw	s1,164(sp)
   160b2:	590a                	lw	s2,160(sp)
   160b4:	49fa                	lw	s3,156(sp)
   160b6:	614d                	addi	sp,sp,176
   160b8:	8082                	ret
   160ba:	0028                	addi	a0,sp,8
   160bc:	00005097          	auipc	ra,0x5
   160c0:	e2a080e7          	jalr	-470(ra) # 1aee6 <_ZN9allow_pin12full_dynamic17unshare_if_shared17he9718eb989dae51aE>
   160c4:	1088                	addi	a0,sp,96
   160c6:	00005097          	auipc	ra,0x5
   160ca:	e20080e7          	jalr	-480(ra) # 1aee6 <_ZN9allow_pin12full_dynamic17unshare_if_shared17he9718eb989dae51aE>
   160ce:	1088                	addi	a0,sp,96
   160d0:	00005097          	auipc	ra,0x5
   160d4:	e16080e7          	jalr	-490(ra) # 1aee6 <_ZN9allow_pin12full_dynamic17unshare_if_shared17he9718eb989dae51aE>
   160d8:	00198513          	addi	a0,s3,1
   160dc:	02d00613          	li	a2,45
   160e0:	85ca                	mv	a1,s2
   160e2:	00005097          	auipc	ra,0x5
   160e6:	e90080e7          	jalr	-368(ra) # 1af72 <memcpy>
   160ea:	4501                	li	a0,0
   160ec:	b765                	j	16094 <_ZN20complex_full_dynamic3app17he27361bd5661cc2aE+0x9e>

000160ee <_ZN20complex_full_dynamic3app17he340abf22b2f433eE>:
   160ee:	7119                	addi	sp,sp,-128
   160f0:	de86                	sw	ra,124(sp)
   160f2:	dca2                	sw	s0,120(sp)
   160f4:	daa6                	sw	s1,116(sp)
   160f6:	d8ca                	sw	s2,112(sp)
   160f8:	d6ce                	sw	s3,108(sp)
   160fa:	892a                	mv	s2,a0
   160fc:	4409                	li	s0,2
   160fe:	00810823          	sb	s0,16(sp)
   16102:	0844                	addi	s1,sp,20
   16104:	02b00613          	li	a2,43
   16108:	8526                	mv	a0,s1
   1610a:	00005097          	auipc	ra,0x5
   1610e:	e68080e7          	jalr	-408(ra) # 1af72 <memcpy>
   16112:	8626                	mv	a2,s1
   16114:	06011423          	sh	zero,104(sp)
   16118:	cc82                	sw	zero,88(sp)
   1611a:	ce82                	sw	zero,92(sp)
   1611c:	d082                	sw	zero,96(sp)
   1611e:	d282                	sw	zero,100(sp)
   16120:	04810423          	sb	s0,72(sp)
   16124:	c682                	sw	zero,76(sp)
   16126:	c882                	sw	zero,80(sp)
   16128:	ca82                	sw	zero,84(sp)
   1612a:	7e300793          	li	a5,2019
   1612e:	449d                	li	s1,7
   16130:	4811                	li	a6,4
   16132:	7e300513          	li	a0,2019
   16136:	459d                	li	a1,7
   16138:	02b00693          	li	a3,43
   1613c:	4711                	li	a4,4
   1613e:	00000073          	ecall
   16142:	04850663          	beq	a0,s0,1618e <_ZN20complex_full_dynamic3app17he340abf22b2f433eE+0xa0>
   16146:	04c10993          	addi	s3,sp,76
   1614a:	c43e                	sw	a5,8(sp)
   1614c:	c626                	sw	s1,12(sp)
   1614e:	01010823          	sb	a6,16(sp)
   16152:	47a1                	li	a5,8
   16154:	448d                	li	s1,3
   16156:	7e300513          	li	a0,2019
   1615a:	45a1                	li	a1,8
   1615c:	46f9                	li	a3,30
   1615e:	470d                	li	a4,3
   16160:	864e                	mv	a2,s3
   16162:	00000073          	ecall
   16166:	02850463          	beq	a0,s0,1618e <_ZN20complex_full_dynamic3app17he340abf22b2f433eE+0xa0>
   1616a:	7e300693          	li	a3,2019
   1616e:	7e300513          	li	a0,2019
   16172:	459d                	li	a1,7
   16174:	4621                	li	a2,8
   16176:	4709                	li	a4,2
   16178:	07f00413          	li	s0,127
   1617c:	c0b6                	sw	a3,64(sp)
   1617e:	c2be                	sw	a5,68(sp)
   16180:	04910423          	sb	s1,72(sp)
   16184:	4681                	li	a3,0
   16186:	00000073          	ecall
   1618a:	02a46863          	bltu	s0,a0,161ba <_ZN20complex_full_dynamic3app17he340abf22b2f433eE+0xcc>
   1618e:	00b92223          	sw	a1,4(s2)
   16192:	4505                	li	a0,1
   16194:	00a90023          	sb	a0,0(s2)
   16198:	0088                	addi	a0,sp,64
   1619a:	00005097          	auipc	ra,0x5
   1619e:	d4c080e7          	jalr	-692(ra) # 1aee6 <_ZN9allow_pin12full_dynamic17unshare_if_shared17he9718eb989dae51aE>
   161a2:	0028                	addi	a0,sp,8
   161a4:	00005097          	auipc	ra,0x5
   161a8:	d42080e7          	jalr	-702(ra) # 1aee6 <_ZN9allow_pin12full_dynamic17unshare_if_shared17he9718eb989dae51aE>
   161ac:	50f6                	lw	ra,124(sp)
   161ae:	5466                	lw	s0,120(sp)
   161b0:	54d6                	lw	s1,116(sp)
   161b2:	5946                	lw	s2,112(sp)
   161b4:	59b6                	lw	s3,108(sp)
   161b6:	6109                	addi	sp,sp,128
   161b8:	8082                	ret
   161ba:	0028                	addi	a0,sp,8
   161bc:	00005097          	auipc	ra,0x5
   161c0:	d2a080e7          	jalr	-726(ra) # 1aee6 <_ZN9allow_pin12full_dynamic17unshare_if_shared17he9718eb989dae51aE>
   161c4:	0088                	addi	a0,sp,64
   161c6:	00005097          	auipc	ra,0x5
   161ca:	d20080e7          	jalr	-736(ra) # 1aee6 <_ZN9allow_pin12full_dynamic17unshare_if_shared17he9718eb989dae51aE>
   161ce:	0088                	addi	a0,sp,64
   161d0:	00005097          	auipc	ra,0x5
   161d4:	d16080e7          	jalr	-746(ra) # 1aee6 <_ZN9allow_pin12full_dynamic17unshare_if_shared17he9718eb989dae51aE>
   161d8:	00190513          	addi	a0,s2,1
   161dc:	4679                	li	a2,30
   161de:	85ce                	mv	a1,s3
   161e0:	00005097          	auipc	ra,0x5
   161e4:	d92080e7          	jalr	-622(ra) # 1af72 <memcpy>
   161e8:	4501                	li	a0,0
   161ea:	b76d                	j	16194 <_ZN20complex_full_dynamic3app17he340abf22b2f433eE+0xa6>

000161ec <_ZN20complex_full_dynamic3app17he59e353b1cb4b9d8E>:
   161ec:	7171                	addi	sp,sp,-176
   161ee:	d706                	sw	ra,172(sp)
   161f0:	d522                	sw	s0,168(sp)
   161f2:	d326                	sw	s1,164(sp)
   161f4:	d14a                	sw	s2,160(sp)
   161f6:	cf4e                	sw	s3,156(sp)
   161f8:	89aa                	mv	s3,a0
   161fa:	4409                	li	s0,2
   161fc:	00810823          	sb	s0,16(sp)
   16200:	0844                	addi	s1,sp,20
   16202:	4671                	li	a2,28
   16204:	8526                	mv	a0,s1
   16206:	00005097          	auipc	ra,0x5
   1620a:	d6c080e7          	jalr	-660(ra) # 1af72 <memcpy>
   1620e:	03c10913          	addi	s2,sp,60
   16212:	05d00613          	li	a2,93
   16216:	854a                	mv	a0,s2
   16218:	4581                	li	a1,0
   1621a:	00005097          	auipc	ra,0x5
   1621e:	cec080e7          	jalr	-788(ra) # 1af06 <memset>
   16222:	8626                	mv	a2,s1
   16224:	02810c23          	sb	s0,56(sp)
   16228:	6505                	lui	a0,0x1
   1622a:	44a1                	li	s1,8
   1622c:	4811                	li	a6,4
   1622e:	45a1                	li	a1,8
   16230:	c3e50793          	addi	a5,a0,-962 # c3e <.Lline_table_start1+0xa13>
   16234:	46f1                	li	a3,28
   16236:	4711                	li	a4,4
   16238:	853e                	mv	a0,a5
   1623a:	00000073          	ecall
   1623e:	04850363          	beq	a0,s0,16284 <_ZN20complex_full_dynamic3app17he59e353b1cb4b9d8E+0x98>
   16242:	853e                	mv	a0,a5
   16244:	864a                	mv	a2,s2
   16246:	c43e                	sw	a5,8(sp)
   16248:	c626                	sw	s1,12(sp)
   1624a:	01010823          	sb	a6,16(sp)
   1624e:	4495                	li	s1,5
   16250:	480d                	li	a6,3
   16252:	4595                	li	a1,5
   16254:	05d00693          	li	a3,93
   16258:	470d                	li	a4,3
   1625a:	00000073          	ecall
   1625e:	02850363          	beq	a0,s0,16284 <_ZN20complex_full_dynamic3app17he59e353b1cb4b9d8E+0x98>
   16262:	d83e                	sw	a5,48(sp)
   16264:	da26                	sw	s1,52(sp)
   16266:	03010c23          	sb	a6,56(sp)
   1626a:	6505                	lui	a0,0x1
   1626c:	45a1                	li	a1,8
   1626e:	4615                	li	a2,5
   16270:	c3e50513          	addi	a0,a0,-962 # c3e <.Lline_table_start1+0xa13>
   16274:	4709                	li	a4,2
   16276:	07f00793          	li	a5,127
   1627a:	4681                	li	a3,0
   1627c:	00000073          	ecall
   16280:	02a7e863          	bltu	a5,a0,162b0 <_ZN20complex_full_dynamic3app17he59e353b1cb4b9d8E+0xc4>
   16284:	00b9a223          	sw	a1,4(s3)
   16288:	4505                	li	a0,1
   1628a:	00a98023          	sb	a0,0(s3)
   1628e:	1808                	addi	a0,sp,48
   16290:	00005097          	auipc	ra,0x5
   16294:	c56080e7          	jalr	-938(ra) # 1aee6 <_ZN9allow_pin12full_dynamic17unshare_if_shared17he9718eb989dae51aE>
   16298:	0028                	addi	a0,sp,8
   1629a:	00005097          	auipc	ra,0x5
   1629e:	c4c080e7          	jalr	-948(ra) # 1aee6 <_ZN9allow_pin12full_dynamic17unshare_if_shared17he9718eb989dae51aE>
   162a2:	50ba                	lw	ra,172(sp)
   162a4:	542a                	lw	s0,168(sp)
   162a6:	549a                	lw	s1,164(sp)
   162a8:	590a                	lw	s2,160(sp)
   162aa:	49fa                	lw	s3,156(sp)
   162ac:	614d                	addi	sp,sp,176
   162ae:	8082                	ret
   162b0:	0028                	addi	a0,sp,8
   162b2:	00005097          	auipc	ra,0x5
   162b6:	c34080e7          	jalr	-972(ra) # 1aee6 <_ZN9allow_pin12full_dynamic17unshare_if_shared17he9718eb989dae51aE>
   162ba:	1808                	addi	a0,sp,48
   162bc:	00005097          	auipc	ra,0x5
   162c0:	c2a080e7          	jalr	-982(ra) # 1aee6 <_ZN9allow_pin12full_dynamic17unshare_if_shared17he9718eb989dae51aE>
   162c4:	1808                	addi	a0,sp,48
   162c6:	00005097          	auipc	ra,0x5
   162ca:	c20080e7          	jalr	-992(ra) # 1aee6 <_ZN9allow_pin12full_dynamic17unshare_if_shared17he9718eb989dae51aE>
   162ce:	00198513          	addi	a0,s3,1
   162d2:	05d00613          	li	a2,93
   162d6:	85ca                	mv	a1,s2
   162d8:	00005097          	auipc	ra,0x5
   162dc:	c9a080e7          	jalr	-870(ra) # 1af72 <memcpy>
   162e0:	4501                	li	a0,0
   162e2:	b765                	j	1628a <_ZN20complex_full_dynamic3app17he59e353b1cb4b9d8E+0x9e>

000162e4 <_ZN20complex_full_dynamic3app17heaeb0c92dfaf2844E>:
   162e4:	7159                	addi	sp,sp,-112
   162e6:	d686                	sw	ra,108(sp)
   162e8:	d4a2                	sw	s0,104(sp)
   162ea:	d2a6                	sw	s1,100(sp)
   162ec:	d0ca                	sw	s2,96(sp)
   162ee:	cece                	sw	s3,92(sp)
   162f0:	89aa                	mv	s3,a0
   162f2:	4409                	li	s0,2
   162f4:	00810623          	sb	s0,12(sp)
   162f8:	0804                	addi	s1,sp,16
   162fa:	4651                	li	a2,20
   162fc:	8526                	mv	a0,s1
   162fe:	00005097          	auipc	ra,0x5
   16302:	c74080e7          	jalr	-908(ra) # 1af72 <memcpy>
   16306:	03010913          	addi	s2,sp,48
   1630a:	02b00613          	li	a2,43
   1630e:	854a                	mv	a0,s2
   16310:	4581                	li	a1,0
   16312:	00005097          	auipc	ra,0x5
   16316:	bf4080e7          	jalr	-1036(ra) # 1af06 <memset>
   1631a:	8626                	mv	a2,s1
   1631c:	02810623          	sb	s0,44(sp)
   16320:	6509                	lui	a0,0x2
   16322:	44a1                	li	s1,8
   16324:	4811                	li	a6,4
   16326:	45a1                	li	a1,8
   16328:	39f50793          	addi	a5,a0,927 # 239f <.Lline_table_start1+0x2174>
   1632c:	46d1                	li	a3,20
   1632e:	4711                	li	a4,4
   16330:	853e                	mv	a0,a5
   16332:	00000073          	ecall
   16336:	04850363          	beq	a0,s0,1637c <_ZN20complex_full_dynamic3app17heaeb0c92dfaf2844E+0x98>
   1633a:	853e                	mv	a0,a5
   1633c:	864a                	mv	a2,s2
   1633e:	c23e                	sw	a5,4(sp)
   16340:	c426                	sw	s1,8(sp)
   16342:	01010623          	sb	a6,12(sp)
   16346:	448d                	li	s1,3
   16348:	4591                	li	a1,4
   1634a:	02b00693          	li	a3,43
   1634e:	470d                	li	a4,3
   16350:	00000073          	ecall
   16354:	02850463          	beq	a0,s0,1637c <_ZN20complex_full_dynamic3app17heaeb0c92dfaf2844E+0x98>
   16358:	4511                	li	a0,4
   1635a:	6689                	lui	a3,0x2
   1635c:	45a1                	li	a1,8
   1635e:	4611                	li	a2,4
   16360:	d23e                	sw	a5,36(sp)
   16362:	d42a                	sw	a0,40(sp)
   16364:	02910623          	sb	s1,44(sp)
   16368:	39f68513          	addi	a0,a3,927 # 239f <.Lline_table_start1+0x2174>
   1636c:	4709                	li	a4,2
   1636e:	07f00793          	li	a5,127
   16372:	4681                	li	a3,0
   16374:	00000073          	ecall
   16378:	02a7e863          	bltu	a5,a0,163a8 <_ZN20complex_full_dynamic3app17heaeb0c92dfaf2844E+0xc4>
   1637c:	00b9a223          	sw	a1,4(s3)
   16380:	4505                	li	a0,1
   16382:	00a98023          	sb	a0,0(s3)
   16386:	1048                	addi	a0,sp,36
   16388:	00005097          	auipc	ra,0x5
   1638c:	b5e080e7          	jalr	-1186(ra) # 1aee6 <_ZN9allow_pin12full_dynamic17unshare_if_shared17he9718eb989dae51aE>
   16390:	0048                	addi	a0,sp,4
   16392:	00005097          	auipc	ra,0x5
   16396:	b54080e7          	jalr	-1196(ra) # 1aee6 <_ZN9allow_pin12full_dynamic17unshare_if_shared17he9718eb989dae51aE>
   1639a:	50b6                	lw	ra,108(sp)
   1639c:	5426                	lw	s0,104(sp)
   1639e:	5496                	lw	s1,100(sp)
   163a0:	5906                	lw	s2,96(sp)
   163a2:	49f6                	lw	s3,92(sp)
   163a4:	6165                	addi	sp,sp,112
   163a6:	8082                	ret
   163a8:	0048                	addi	a0,sp,4
   163aa:	00005097          	auipc	ra,0x5
   163ae:	b3c080e7          	jalr	-1220(ra) # 1aee6 <_ZN9allow_pin12full_dynamic17unshare_if_shared17he9718eb989dae51aE>
   163b2:	1048                	addi	a0,sp,36
   163b4:	00005097          	auipc	ra,0x5
   163b8:	b32080e7          	jalr	-1230(ra) # 1aee6 <_ZN9allow_pin12full_dynamic17unshare_if_shared17he9718eb989dae51aE>
   163bc:	1048                	addi	a0,sp,36
   163be:	00005097          	auipc	ra,0x5
   163c2:	b28080e7          	jalr	-1240(ra) # 1aee6 <_ZN9allow_pin12full_dynamic17unshare_if_shared17he9718eb989dae51aE>
   163c6:	00198513          	addi	a0,s3,1
   163ca:	02b00613          	li	a2,43
   163ce:	85ca                	mv	a1,s2
   163d0:	00005097          	auipc	ra,0x5
   163d4:	ba2080e7          	jalr	-1118(ra) # 1af72 <memcpy>
   163d8:	4501                	li	a0,0
   163da:	b765                	j	16382 <_ZN20complex_full_dynamic3app17heaeb0c92dfaf2844E+0x9e>

000163dc <_ZN20complex_full_dynamic3app17hec17da161b81cb20E>:
   163dc:	7131                	addi	sp,sp,-192
   163de:	df06                	sw	ra,188(sp)
   163e0:	dd22                	sw	s0,184(sp)
   163e2:	db26                	sw	s1,180(sp)
   163e4:	d94a                	sw	s2,176(sp)
   163e6:	d74e                	sw	s3,172(sp)
   163e8:	89aa                	mv	s3,a0
   163ea:	4409                	li	s0,2
   163ec:	00810623          	sb	s0,12(sp)
   163f0:	0804                	addi	s1,sp,16
   163f2:	05300613          	li	a2,83
   163f6:	8526                	mv	a0,s1
   163f8:	00005097          	auipc	ra,0x5
   163fc:	b7a080e7          	jalr	-1158(ra) # 1af72 <memcpy>
   16400:	07010913          	addi	s2,sp,112
   16404:	03a00613          	li	a2,58
   16408:	854a                	mv	a0,s2
   1640a:	4581                	li	a1,0
   1640c:	00005097          	auipc	ra,0x5
   16410:	afa080e7          	jalr	-1286(ra) # 1af06 <memset>
   16414:	8626                	mv	a2,s1
   16416:	06810623          	sb	s0,108(sp)
   1641a:	6509                	lui	a0,0x2
   1641c:	4499                	li	s1,6
   1641e:	4811                	li	a6,4
   16420:	4599                	li	a1,6
   16422:	64550793          	addi	a5,a0,1605 # 2645 <.Lline_table_start1+0x241a>
   16426:	05300693          	li	a3,83
   1642a:	4711                	li	a4,4
   1642c:	853e                	mv	a0,a5
   1642e:	00000073          	ecall
   16432:	04850363          	beq	a0,s0,16478 <_ZN20complex_full_dynamic3app17hec17da161b81cb20E+0x9c>
   16436:	853e                	mv	a0,a5
   16438:	864a                	mv	a2,s2
   1643a:	c23e                	sw	a5,4(sp)
   1643c:	c426                	sw	s1,8(sp)
   1643e:	01010623          	sb	a6,12(sp)
   16442:	449d                	li	s1,7
   16444:	480d                	li	a6,3
   16446:	459d                	li	a1,7
   16448:	03a00693          	li	a3,58
   1644c:	470d                	li	a4,3
   1644e:	00000073          	ecall
   16452:	02850363          	beq	a0,s0,16478 <_ZN20complex_full_dynamic3app17hec17da161b81cb20E+0x9c>
   16456:	d2be                	sw	a5,100(sp)
   16458:	d4a6                	sw	s1,104(sp)
   1645a:	07010623          	sb	a6,108(sp)
   1645e:	6509                	lui	a0,0x2
   16460:	4599                	li	a1,6
   16462:	461d                	li	a2,7
   16464:	64550513          	addi	a0,a0,1605 # 2645 <.Lline_table_start1+0x241a>
   16468:	4709                	li	a4,2
   1646a:	07f00793          	li	a5,127
   1646e:	4681                	li	a3,0
   16470:	00000073          	ecall
   16474:	02a7e863          	bltu	a5,a0,164a4 <_ZN20complex_full_dynamic3app17hec17da161b81cb20E+0xc8>
   16478:	00b9a223          	sw	a1,4(s3)
   1647c:	4505                	li	a0,1
   1647e:	00a98023          	sb	a0,0(s3)
   16482:	10c8                	addi	a0,sp,100
   16484:	00005097          	auipc	ra,0x5
   16488:	a62080e7          	jalr	-1438(ra) # 1aee6 <_ZN9allow_pin12full_dynamic17unshare_if_shared17he9718eb989dae51aE>
   1648c:	0048                	addi	a0,sp,4
   1648e:	00005097          	auipc	ra,0x5
   16492:	a58080e7          	jalr	-1448(ra) # 1aee6 <_ZN9allow_pin12full_dynamic17unshare_if_shared17he9718eb989dae51aE>
   16496:	50fa                	lw	ra,188(sp)
   16498:	546a                	lw	s0,184(sp)
   1649a:	54da                	lw	s1,180(sp)
   1649c:	594a                	lw	s2,176(sp)
   1649e:	59ba                	lw	s3,172(sp)
   164a0:	6129                	addi	sp,sp,192
   164a2:	8082                	ret
   164a4:	0048                	addi	a0,sp,4
   164a6:	00005097          	auipc	ra,0x5
   164aa:	a40080e7          	jalr	-1472(ra) # 1aee6 <_ZN9allow_pin12full_dynamic17unshare_if_shared17he9718eb989dae51aE>
   164ae:	10c8                	addi	a0,sp,100
   164b0:	00005097          	auipc	ra,0x5
   164b4:	a36080e7          	jalr	-1482(ra) # 1aee6 <_ZN9allow_pin12full_dynamic17unshare_if_shared17he9718eb989dae51aE>
   164b8:	10c8                	addi	a0,sp,100
   164ba:	00005097          	auipc	ra,0x5
   164be:	a2c080e7          	jalr	-1492(ra) # 1aee6 <_ZN9allow_pin12full_dynamic17unshare_if_shared17he9718eb989dae51aE>
   164c2:	00198513          	addi	a0,s3,1
   164c6:	03a00613          	li	a2,58
   164ca:	85ca                	mv	a1,s2
   164cc:	00005097          	auipc	ra,0x5
   164d0:	aa6080e7          	jalr	-1370(ra) # 1af72 <memcpy>
   164d4:	4501                	li	a0,0
   164d6:	b765                	j	1647e <_ZN20complex_full_dynamic3app17hec17da161b81cb20E+0xa2>

000164d8 <_ZN20complex_full_dynamic3app17hec36d36fbad08c1eE>:
   164d8:	7175                	addi	sp,sp,-144
   164da:	c706                	sw	ra,140(sp)
   164dc:	c522                	sw	s0,136(sp)
   164de:	c326                	sw	s1,132(sp)
   164e0:	c14a                	sw	s2,128(sp)
   164e2:	dece                	sw	s3,124(sp)
   164e4:	892a                	mv	s2,a0
   164e6:	4409                	li	s0,2
   164e8:	00810823          	sb	s0,16(sp)
   164ec:	0844                	addi	s1,sp,20
   164ee:	03f00613          	li	a2,63
   164f2:	8526                	mv	a0,s1
   164f4:	00005097          	auipc	ra,0x5
   164f8:	a7e080e7          	jalr	-1410(ra) # 1af72 <memcpy>
   164fc:	8626                	mv	a2,s1
   164fe:	d682                	sw	zero,108(sp)
   16500:	d882                	sw	zero,112(sp)
   16502:	da82                	sw	zero,116(sp)
   16504:	dc82                	sw	zero,120(sp)
   16506:	04810e23          	sb	s0,92(sp)
   1650a:	d082                	sw	zero,96(sp)
   1650c:	d282                	sw	zero,100(sp)
   1650e:	d482                	sw	zero,104(sp)
   16510:	6505                	lui	a0,0x1
   16512:	4495                	li	s1,5
   16514:	4811                	li	a6,4
   16516:	4595                	li	a1,5
   16518:	69450793          	addi	a5,a0,1684 # 1694 <.Lline_table_start1+0x1469>
   1651c:	03f00693          	li	a3,63
   16520:	4711                	li	a4,4
   16522:	853e                	mv	a0,a5
   16524:	00000073          	ecall
   16528:	04850463          	beq	a0,s0,16570 <_ZN20complex_full_dynamic3app17hec36d36fbad08c1eE+0x98>
   1652c:	853e                	mv	a0,a5
   1652e:	06010993          	addi	s3,sp,96
   16532:	c43e                	sw	a5,8(sp)
   16534:	c626                	sw	s1,12(sp)
   16536:	01010823          	sb	a6,16(sp)
   1653a:	44a5                	li	s1,9
   1653c:	480d                	li	a6,3
   1653e:	45a5                	li	a1,9
   16540:	46f1                	li	a3,28
   16542:	470d                	li	a4,3
   16544:	864e                	mv	a2,s3
   16546:	00000073          	ecall
   1654a:	02850363          	beq	a0,s0,16570 <_ZN20complex_full_dynamic3app17hec36d36fbad08c1eE+0x98>
   1654e:	cabe                	sw	a5,84(sp)
   16550:	cca6                	sw	s1,88(sp)
   16552:	05010e23          	sb	a6,92(sp)
   16556:	6505                	lui	a0,0x1
   16558:	4595                	li	a1,5
   1655a:	4625                	li	a2,9
   1655c:	69450513          	addi	a0,a0,1684 # 1694 <.Lline_table_start1+0x1469>
   16560:	4709                	li	a4,2
   16562:	07f00793          	li	a5,127
   16566:	4681                	li	a3,0
   16568:	00000073          	ecall
   1656c:	02a7e863          	bltu	a5,a0,1659c <_ZN20complex_full_dynamic3app17hec36d36fbad08c1eE+0xc4>
   16570:	00b92223          	sw	a1,4(s2)
   16574:	4505                	li	a0,1
   16576:	00a90023          	sb	a0,0(s2)
   1657a:	08c8                	addi	a0,sp,84
   1657c:	00005097          	auipc	ra,0x5
   16580:	96a080e7          	jalr	-1686(ra) # 1aee6 <_ZN9allow_pin12full_dynamic17unshare_if_shared17he9718eb989dae51aE>
   16584:	0028                	addi	a0,sp,8
   16586:	00005097          	auipc	ra,0x5
   1658a:	960080e7          	jalr	-1696(ra) # 1aee6 <_ZN9allow_pin12full_dynamic17unshare_if_shared17he9718eb989dae51aE>
   1658e:	40ba                	lw	ra,140(sp)
   16590:	442a                	lw	s0,136(sp)
   16592:	449a                	lw	s1,132(sp)
   16594:	490a                	lw	s2,128(sp)
   16596:	59f6                	lw	s3,124(sp)
   16598:	6149                	addi	sp,sp,144
   1659a:	8082                	ret
   1659c:	0028                	addi	a0,sp,8
   1659e:	00005097          	auipc	ra,0x5
   165a2:	948080e7          	jalr	-1720(ra) # 1aee6 <_ZN9allow_pin12full_dynamic17unshare_if_shared17he9718eb989dae51aE>
   165a6:	08c8                	addi	a0,sp,84
   165a8:	00005097          	auipc	ra,0x5
   165ac:	93e080e7          	jalr	-1730(ra) # 1aee6 <_ZN9allow_pin12full_dynamic17unshare_if_shared17he9718eb989dae51aE>
   165b0:	08c8                	addi	a0,sp,84
   165b2:	00005097          	auipc	ra,0x5
   165b6:	934080e7          	jalr	-1740(ra) # 1aee6 <_ZN9allow_pin12full_dynamic17unshare_if_shared17he9718eb989dae51aE>
   165ba:	00190513          	addi	a0,s2,1
   165be:	4671                	li	a2,28
   165c0:	85ce                	mv	a1,s3
   165c2:	00005097          	auipc	ra,0x5
   165c6:	9b0080e7          	jalr	-1616(ra) # 1af72 <memcpy>
   165ca:	4501                	li	a0,0
   165cc:	b76d                	j	16576 <_ZN20complex_full_dynamic3app17hec36d36fbad08c1eE+0x9e>

000165ce <_ZN20complex_full_dynamic3app17hf0a5536035186c3cE>:
   165ce:	7131                	addi	sp,sp,-192
   165d0:	df06                	sw	ra,188(sp)
   165d2:	dd22                	sw	s0,184(sp)
   165d4:	db26                	sw	s1,180(sp)
   165d6:	d94a                	sw	s2,176(sp)
   165d8:	d74e                	sw	s3,172(sp)
   165da:	89aa                	mv	s3,a0
   165dc:	4409                	li	s0,2
   165de:	00810823          	sb	s0,16(sp)
   165e2:	0844                	addi	s1,sp,20
   165e4:	04f00613          	li	a2,79
   165e8:	8526                	mv	a0,s1
   165ea:	00005097          	auipc	ra,0x5
   165ee:	988080e7          	jalr	-1656(ra) # 1af72 <memcpy>
   165f2:	07010913          	addi	s2,sp,112
   165f6:	03b00613          	li	a2,59
   165fa:	854a                	mv	a0,s2
   165fc:	4581                	li	a1,0
   165fe:	00005097          	auipc	ra,0x5
   16602:	908080e7          	jalr	-1784(ra) # 1af06 <memset>
   16606:	8626                	mv	a2,s1
   16608:	06810623          	sb	s0,108(sp)
   1660c:	6505                	lui	a0,0x1
   1660e:	44a1                	li	s1,8
   16610:	4811                	li	a6,4
   16612:	45a1                	li	a1,8
   16614:	a0650793          	addi	a5,a0,-1530 # a06 <.Lline_table_start1+0x7db>
   16618:	04f00693          	li	a3,79
   1661c:	4711                	li	a4,4
   1661e:	853e                	mv	a0,a5
   16620:	00000073          	ecall
   16624:	04850363          	beq	a0,s0,1666a <_ZN20complex_full_dynamic3app17hf0a5536035186c3cE+0x9c>
   16628:	853e                	mv	a0,a5
   1662a:	864a                	mv	a2,s2
   1662c:	c43e                	sw	a5,8(sp)
   1662e:	c626                	sw	s1,12(sp)
   16630:	01010823          	sb	a6,16(sp)
   16634:	4495                	li	s1,5
   16636:	480d                	li	a6,3
   16638:	4595                	li	a1,5
   1663a:	03b00693          	li	a3,59
   1663e:	470d                	li	a4,3
   16640:	00000073          	ecall
   16644:	02850363          	beq	a0,s0,1666a <_ZN20complex_full_dynamic3app17hf0a5536035186c3cE+0x9c>
   16648:	d2be                	sw	a5,100(sp)
   1664a:	d4a6                	sw	s1,104(sp)
   1664c:	07010623          	sb	a6,108(sp)
   16650:	6505                	lui	a0,0x1
   16652:	45a1                	li	a1,8
   16654:	4615                	li	a2,5
   16656:	a0650513          	addi	a0,a0,-1530 # a06 <.Lline_table_start1+0x7db>
   1665a:	4709                	li	a4,2
   1665c:	07f00793          	li	a5,127
   16660:	4681                	li	a3,0
   16662:	00000073          	ecall
   16666:	02a7e863          	bltu	a5,a0,16696 <_ZN20complex_full_dynamic3app17hf0a5536035186c3cE+0xc8>
   1666a:	00b9a223          	sw	a1,4(s3)
   1666e:	4505                	li	a0,1
   16670:	00a98023          	sb	a0,0(s3)
   16674:	10c8                	addi	a0,sp,100
   16676:	00005097          	auipc	ra,0x5
   1667a:	870080e7          	jalr	-1936(ra) # 1aee6 <_ZN9allow_pin12full_dynamic17unshare_if_shared17he9718eb989dae51aE>
   1667e:	0028                	addi	a0,sp,8
   16680:	00005097          	auipc	ra,0x5
   16684:	866080e7          	jalr	-1946(ra) # 1aee6 <_ZN9allow_pin12full_dynamic17unshare_if_shared17he9718eb989dae51aE>
   16688:	50fa                	lw	ra,188(sp)
   1668a:	546a                	lw	s0,184(sp)
   1668c:	54da                	lw	s1,180(sp)
   1668e:	594a                	lw	s2,176(sp)
   16690:	59ba                	lw	s3,172(sp)
   16692:	6129                	addi	sp,sp,192
   16694:	8082                	ret
   16696:	0028                	addi	a0,sp,8
   16698:	00005097          	auipc	ra,0x5
   1669c:	84e080e7          	jalr	-1970(ra) # 1aee6 <_ZN9allow_pin12full_dynamic17unshare_if_shared17he9718eb989dae51aE>
   166a0:	10c8                	addi	a0,sp,100
   166a2:	00005097          	auipc	ra,0x5
   166a6:	844080e7          	jalr	-1980(ra) # 1aee6 <_ZN9allow_pin12full_dynamic17unshare_if_shared17he9718eb989dae51aE>
   166aa:	10c8                	addi	a0,sp,100
   166ac:	00005097          	auipc	ra,0x5
   166b0:	83a080e7          	jalr	-1990(ra) # 1aee6 <_ZN9allow_pin12full_dynamic17unshare_if_shared17he9718eb989dae51aE>
   166b4:	00198513          	addi	a0,s3,1
   166b8:	03b00613          	li	a2,59
   166bc:	85ca                	mv	a1,s2
   166be:	00005097          	auipc	ra,0x5
   166c2:	8b4080e7          	jalr	-1868(ra) # 1af72 <memcpy>
   166c6:	4501                	li	a0,0
   166c8:	b765                	j	16670 <_ZN20complex_full_dynamic3app17hf0a5536035186c3cE+0xa2>

000166ca <_ZN20complex_full_dynamic3app17hf3c5faa9adb1f7a8E>:
   166ca:	7175                	addi	sp,sp,-144
   166cc:	c706                	sw	ra,140(sp)
   166ce:	c522                	sw	s0,136(sp)
   166d0:	c326                	sw	s1,132(sp)
   166d2:	c14a                	sw	s2,128(sp)
   166d4:	dece                	sw	s3,124(sp)
   166d6:	89aa                	mv	s3,a0
   166d8:	4409                	li	s0,2
   166da:	00810623          	sb	s0,12(sp)
   166de:	0804                	addi	s1,sp,16
   166e0:	466d                	li	a2,27
   166e2:	8526                	mv	a0,s1
   166e4:	00005097          	auipc	ra,0x5
   166e8:	88e080e7          	jalr	-1906(ra) # 1af72 <memcpy>
   166ec:	03810913          	addi	s2,sp,56
   166f0:	04100613          	li	a2,65
   166f4:	854a                	mv	a0,s2
   166f6:	4581                	li	a1,0
   166f8:	00005097          	auipc	ra,0x5
   166fc:	80e080e7          	jalr	-2034(ra) # 1af06 <memset>
   16700:	8626                	mv	a2,s1
   16702:	02810a23          	sb	s0,52(sp)
   16706:	14000793          	li	a5,320
   1670a:	44a1                	li	s1,8
   1670c:	4811                	li	a6,4
   1670e:	14000513          	li	a0,320
   16712:	45a1                	li	a1,8
   16714:	46ed                	li	a3,27
   16716:	4711                	li	a4,4
   16718:	00000073          	ecall
   1671c:	04850563          	beq	a0,s0,16766 <_ZN20complex_full_dynamic3app17hf3c5faa9adb1f7a8E+0x9c>
   16720:	864a                	mv	a2,s2
   16722:	c23e                	sw	a5,4(sp)
   16724:	c426                	sw	s1,8(sp)
   16726:	01010623          	sb	a6,12(sp)
   1672a:	47a5                	li	a5,9
   1672c:	448d                	li	s1,3
   1672e:	14000513          	li	a0,320
   16732:	45a5                	li	a1,9
   16734:	04100693          	li	a3,65
   16738:	470d                	li	a4,3
   1673a:	00000073          	ecall
   1673e:	02850463          	beq	a0,s0,16766 <_ZN20complex_full_dynamic3app17hf3c5faa9adb1f7a8E+0x9c>
   16742:	14000693          	li	a3,320
   16746:	14000513          	li	a0,320
   1674a:	45a1                	li	a1,8
   1674c:	4625                	li	a2,9
   1674e:	4709                	li	a4,2
   16750:	07f00413          	li	s0,127
   16754:	d636                	sw	a3,44(sp)
   16756:	d83e                	sw	a5,48(sp)
   16758:	02910a23          	sb	s1,52(sp)
   1675c:	4681                	li	a3,0
   1675e:	00000073          	ecall
   16762:	02a46863          	bltu	s0,a0,16792 <_ZN20complex_full_dynamic3app17hf3c5faa9adb1f7a8E+0xc8>
   16766:	00b9a223          	sw	a1,4(s3)
   1676a:	4505                	li	a0,1
   1676c:	00a98023          	sb	a0,0(s3)
   16770:	1068                	addi	a0,sp,44
   16772:	00004097          	auipc	ra,0x4
   16776:	774080e7          	jalr	1908(ra) # 1aee6 <_ZN9allow_pin12full_dynamic17unshare_if_shared17he9718eb989dae51aE>
   1677a:	0048                	addi	a0,sp,4
   1677c:	00004097          	auipc	ra,0x4
   16780:	76a080e7          	jalr	1898(ra) # 1aee6 <_ZN9allow_pin12full_dynamic17unshare_if_shared17he9718eb989dae51aE>
   16784:	40ba                	lw	ra,140(sp)
   16786:	442a                	lw	s0,136(sp)
   16788:	449a                	lw	s1,132(sp)
   1678a:	490a                	lw	s2,128(sp)
   1678c:	59f6                	lw	s3,124(sp)
   1678e:	6149                	addi	sp,sp,144
   16790:	8082                	ret
   16792:	0048                	addi	a0,sp,4
   16794:	00004097          	auipc	ra,0x4
   16798:	752080e7          	jalr	1874(ra) # 1aee6 <_ZN9allow_pin12full_dynamic17unshare_if_shared17he9718eb989dae51aE>
   1679c:	1068                	addi	a0,sp,44
   1679e:	00004097          	auipc	ra,0x4
   167a2:	748080e7          	jalr	1864(ra) # 1aee6 <_ZN9allow_pin12full_dynamic17unshare_if_shared17he9718eb989dae51aE>
   167a6:	1068                	addi	a0,sp,44
   167a8:	00004097          	auipc	ra,0x4
   167ac:	73e080e7          	jalr	1854(ra) # 1aee6 <_ZN9allow_pin12full_dynamic17unshare_if_shared17he9718eb989dae51aE>
   167b0:	00198513          	addi	a0,s3,1
   167b4:	04100613          	li	a2,65
   167b8:	85ca                	mv	a1,s2
   167ba:	00004097          	auipc	ra,0x4
   167be:	7b8080e7          	jalr	1976(ra) # 1af72 <memcpy>
   167c2:	4501                	li	a0,0
   167c4:	b765                	j	1676c <_ZN20complex_full_dynamic3app17hf3c5faa9adb1f7a8E+0xa2>

000167c6 <_ZN20complex_full_dynamic3app17hf49ed845ccd8e5beE>:
   167c6:	7119                	addi	sp,sp,-128
   167c8:	de86                	sw	ra,124(sp)
   167ca:	dca2                	sw	s0,120(sp)
   167cc:	daa6                	sw	s1,116(sp)
   167ce:	d8ca                	sw	s2,112(sp)
   167d0:	d6ce                	sw	s3,108(sp)
   167d2:	89aa                	mv	s3,a0
   167d4:	4409                	li	s0,2
   167d6:	00810623          	sb	s0,12(sp)
   167da:	0804                	addi	s1,sp,16
   167dc:	02300613          	li	a2,35
   167e0:	8526                	mv	a0,s1
   167e2:	00004097          	auipc	ra,0x4
   167e6:	790080e7          	jalr	1936(ra) # 1af72 <memcpy>
   167ea:	04010913          	addi	s2,sp,64
   167ee:	02b00613          	li	a2,43
   167f2:	854a                	mv	a0,s2
   167f4:	4581                	li	a1,0
   167f6:	00004097          	auipc	ra,0x4
   167fa:	710080e7          	jalr	1808(ra) # 1af06 <memset>
   167fe:	8626                	mv	a2,s1
   16800:	02810e23          	sb	s0,60(sp)
   16804:	6505                	lui	a0,0x1
   16806:	4491                	li	s1,4
   16808:	4589                	li	a1,2
   1680a:	d5d50793          	addi	a5,a0,-675 # d5d <.Lline_table_start1+0xb32>
   1680e:	02300693          	li	a3,35
   16812:	4711                	li	a4,4
   16814:	853e                	mv	a0,a5
   16816:	00000073          	ecall
   1681a:	04850263          	beq	a0,s0,1685e <_ZN20complex_full_dynamic3app17hf49ed845ccd8e5beE+0x98>
   1681e:	853e                	mv	a0,a5
   16820:	4581                	li	a1,0
   16822:	864a                	mv	a2,s2
   16824:	c23e                	sw	a5,4(sp)
   16826:	c422                	sw	s0,8(sp)
   16828:	00910623          	sb	s1,12(sp)
   1682c:	448d                	li	s1,3
   1682e:	02b00693          	li	a3,43
   16832:	470d                	li	a4,3
   16834:	00000073          	ecall
   16838:	02850363          	beq	a0,s0,1685e <_ZN20complex_full_dynamic3app17hf49ed845ccd8e5beE+0x98>
   1683c:	da3e                	sw	a5,52(sp)
   1683e:	dc02                	sw	zero,56(sp)
   16840:	02910e23          	sb	s1,60(sp)
   16844:	6505                	lui	a0,0x1
   16846:	4589                	li	a1,2
   16848:	d5d50513          	addi	a0,a0,-675 # d5d <.Lline_table_start1+0xb32>
   1684c:	4709                	li	a4,2
   1684e:	07f00793          	li	a5,127
   16852:	4601                	li	a2,0
   16854:	4681                	li	a3,0
   16856:	00000073          	ecall
   1685a:	02a7e863          	bltu	a5,a0,1688a <_ZN20complex_full_dynamic3app17hf49ed845ccd8e5beE+0xc4>
   1685e:	00b9a223          	sw	a1,4(s3)
   16862:	4505                	li	a0,1
   16864:	00a98023          	sb	a0,0(s3)
   16868:	1848                	addi	a0,sp,52
   1686a:	00004097          	auipc	ra,0x4
   1686e:	67c080e7          	jalr	1660(ra) # 1aee6 <_ZN9allow_pin12full_dynamic17unshare_if_shared17he9718eb989dae51aE>
   16872:	0048                	addi	a0,sp,4
   16874:	00004097          	auipc	ra,0x4
   16878:	672080e7          	jalr	1650(ra) # 1aee6 <_ZN9allow_pin12full_dynamic17unshare_if_shared17he9718eb989dae51aE>
   1687c:	50f6                	lw	ra,124(sp)
   1687e:	5466                	lw	s0,120(sp)
   16880:	54d6                	lw	s1,116(sp)
   16882:	5946                	lw	s2,112(sp)
   16884:	59b6                	lw	s3,108(sp)
   16886:	6109                	addi	sp,sp,128
   16888:	8082                	ret
   1688a:	0048                	addi	a0,sp,4
   1688c:	00004097          	auipc	ra,0x4
   16890:	65a080e7          	jalr	1626(ra) # 1aee6 <_ZN9allow_pin12full_dynamic17unshare_if_shared17he9718eb989dae51aE>
   16894:	1848                	addi	a0,sp,52
   16896:	00004097          	auipc	ra,0x4
   1689a:	650080e7          	jalr	1616(ra) # 1aee6 <_ZN9allow_pin12full_dynamic17unshare_if_shared17he9718eb989dae51aE>
   1689e:	1848                	addi	a0,sp,52
   168a0:	00004097          	auipc	ra,0x4
   168a4:	646080e7          	jalr	1606(ra) # 1aee6 <_ZN9allow_pin12full_dynamic17unshare_if_shared17he9718eb989dae51aE>
   168a8:	00198513          	addi	a0,s3,1
   168ac:	02b00613          	li	a2,43
   168b0:	85ca                	mv	a1,s2
   168b2:	00004097          	auipc	ra,0x4
   168b6:	6c0080e7          	jalr	1728(ra) # 1af72 <memcpy>
   168ba:	4501                	li	a0,0
   168bc:	b765                	j	16864 <_ZN20complex_full_dynamic3app17hf49ed845ccd8e5beE+0x9e>

000168be <_ZN20complex_full_dynamic3app17hf9145ecfd9d7d69bE>:
   168be:	7135                	addi	sp,sp,-160
   168c0:	cf06                	sw	ra,156(sp)
   168c2:	cd22                	sw	s0,152(sp)
   168c4:	cb26                	sw	s1,148(sp)
   168c6:	c94a                	sw	s2,144(sp)
   168c8:	c74e                	sw	s3,140(sp)
   168ca:	89aa                	mv	s3,a0
   168cc:	4409                	li	s0,2
   168ce:	00810623          	sb	s0,12(sp)
   168d2:	0804                	addi	s1,sp,16
   168d4:	04900613          	li	a2,73
   168d8:	8526                	mv	a0,s1
   168da:	00004097          	auipc	ra,0x4
   168de:	698080e7          	jalr	1688(ra) # 1af72 <memcpy>
   168e2:	06810913          	addi	s2,sp,104
   168e6:	02300613          	li	a2,35
   168ea:	854a                	mv	a0,s2
   168ec:	4581                	li	a1,0
   168ee:	00004097          	auipc	ra,0x4
   168f2:	618080e7          	jalr	1560(ra) # 1af06 <memset>
   168f6:	8626                	mv	a2,s1
   168f8:	06810223          	sb	s0,100(sp)
   168fc:	6505                	lui	a0,0x1
   168fe:	449d                	li	s1,7
   16900:	4811                	li	a6,4
   16902:	459d                	li	a1,7
   16904:	55150793          	addi	a5,a0,1361 # 1551 <.Lline_table_start1+0x1326>
   16908:	04900693          	li	a3,73
   1690c:	4711                	li	a4,4
   1690e:	853e                	mv	a0,a5
   16910:	00000073          	ecall
   16914:	04850363          	beq	a0,s0,1695a <_ZN20complex_full_dynamic3app17hf9145ecfd9d7d69bE+0x9c>
   16918:	853e                	mv	a0,a5
   1691a:	864a                	mv	a2,s2
   1691c:	c23e                	sw	a5,4(sp)
   1691e:	c426                	sw	s1,8(sp)
   16920:	01010623          	sb	a6,12(sp)
   16924:	4485                	li	s1,1
   16926:	480d                	li	a6,3
   16928:	4585                	li	a1,1
   1692a:	02300693          	li	a3,35
   1692e:	470d                	li	a4,3
   16930:	00000073          	ecall
   16934:	02850363          	beq	a0,s0,1695a <_ZN20complex_full_dynamic3app17hf9145ecfd9d7d69bE+0x9c>
   16938:	cebe                	sw	a5,92(sp)
   1693a:	d0a6                	sw	s1,96(sp)
   1693c:	07010223          	sb	a6,100(sp)
   16940:	6505                	lui	a0,0x1
   16942:	459d                	li	a1,7
   16944:	4605                	li	a2,1
   16946:	55150513          	addi	a0,a0,1361 # 1551 <.Lline_table_start1+0x1326>
   1694a:	4709                	li	a4,2
   1694c:	07f00793          	li	a5,127
   16950:	4681                	li	a3,0
   16952:	00000073          	ecall
   16956:	02a7e863          	bltu	a5,a0,16986 <_ZN20complex_full_dynamic3app17hf9145ecfd9d7d69bE+0xc8>
   1695a:	00b9a223          	sw	a1,4(s3)
   1695e:	4505                	li	a0,1
   16960:	00a98023          	sb	a0,0(s3)
   16964:	08e8                	addi	a0,sp,92
   16966:	00004097          	auipc	ra,0x4
   1696a:	580080e7          	jalr	1408(ra) # 1aee6 <_ZN9allow_pin12full_dynamic17unshare_if_shared17he9718eb989dae51aE>
   1696e:	0048                	addi	a0,sp,4
   16970:	00004097          	auipc	ra,0x4
   16974:	576080e7          	jalr	1398(ra) # 1aee6 <_ZN9allow_pin12full_dynamic17unshare_if_shared17he9718eb989dae51aE>
   16978:	40fa                	lw	ra,156(sp)
   1697a:	446a                	lw	s0,152(sp)
   1697c:	44da                	lw	s1,148(sp)
   1697e:	494a                	lw	s2,144(sp)
   16980:	49ba                	lw	s3,140(sp)
   16982:	610d                	addi	sp,sp,160
   16984:	8082                	ret
   16986:	0048                	addi	a0,sp,4
   16988:	00004097          	auipc	ra,0x4
   1698c:	55e080e7          	jalr	1374(ra) # 1aee6 <_ZN9allow_pin12full_dynamic17unshare_if_shared17he9718eb989dae51aE>
   16990:	08e8                	addi	a0,sp,92
   16992:	00004097          	auipc	ra,0x4
   16996:	554080e7          	jalr	1364(ra) # 1aee6 <_ZN9allow_pin12full_dynamic17unshare_if_shared17he9718eb989dae51aE>
   1699a:	08e8                	addi	a0,sp,92
   1699c:	00004097          	auipc	ra,0x4
   169a0:	54a080e7          	jalr	1354(ra) # 1aee6 <_ZN9allow_pin12full_dynamic17unshare_if_shared17he9718eb989dae51aE>
   169a4:	00198513          	addi	a0,s3,1
   169a8:	02300613          	li	a2,35
   169ac:	85ca                	mv	a1,s2
   169ae:	00004097          	auipc	ra,0x4
   169b2:	5c4080e7          	jalr	1476(ra) # 1af72 <memcpy>
   169b6:	4501                	li	a0,0
   169b8:	b765                	j	16960 <_ZN20complex_full_dynamic3app17hf9145ecfd9d7d69bE+0xa2>

000169ba <_ZN20complex_full_dynamic3app17hf92139ee4cd8a850E>:
   169ba:	7131                	addi	sp,sp,-192
   169bc:	df06                	sw	ra,188(sp)
   169be:	dd22                	sw	s0,184(sp)
   169c0:	db26                	sw	s1,180(sp)
   169c2:	d94a                	sw	s2,176(sp)
   169c4:	d74e                	sw	s3,172(sp)
   169c6:	89aa                	mv	s3,a0
   169c8:	4409                	li	s0,2
   169ca:	00810823          	sb	s0,16(sp)
   169ce:	0844                	addi	s1,sp,20
   169d0:	06300613          	li	a2,99
   169d4:	8526                	mv	a0,s1
   169d6:	00004097          	auipc	ra,0x4
   169da:	59c080e7          	jalr	1436(ra) # 1af72 <memcpy>
   169de:	08410913          	addi	s2,sp,132
   169e2:	02700613          	li	a2,39
   169e6:	854a                	mv	a0,s2
   169e8:	4581                	li	a1,0
   169ea:	00004097          	auipc	ra,0x4
   169ee:	51c080e7          	jalr	1308(ra) # 1af06 <memset>
   169f2:	8626                	mv	a2,s1
   169f4:	08810023          	sb	s0,128(sp)
   169f8:	6509                	lui	a0,0x2
   169fa:	449d                	li	s1,7
   169fc:	4811                	li	a6,4
   169fe:	459d                	li	a1,7
   16a00:	e5450793          	addi	a5,a0,-428 # 1e54 <.Lline_table_start1+0x1c29>
   16a04:	06300693          	li	a3,99
   16a08:	4711                	li	a4,4
   16a0a:	853e                	mv	a0,a5
   16a0c:	00000073          	ecall
   16a10:	04850263          	beq	a0,s0,16a54 <_ZN20complex_full_dynamic3app17hf92139ee4cd8a850E+0x9a>
   16a14:	853e                	mv	a0,a5
   16a16:	4581                	li	a1,0
   16a18:	864a                	mv	a2,s2
   16a1a:	c43e                	sw	a5,8(sp)
   16a1c:	c626                	sw	s1,12(sp)
   16a1e:	01010823          	sb	a6,16(sp)
   16a22:	448d                	li	s1,3
   16a24:	02700693          	li	a3,39
   16a28:	470d                	li	a4,3
   16a2a:	00000073          	ecall
   16a2e:	02850363          	beq	a0,s0,16a54 <_ZN20complex_full_dynamic3app17hf92139ee4cd8a850E+0x9a>
   16a32:	dcbe                	sw	a5,120(sp)
   16a34:	de82                	sw	zero,124(sp)
   16a36:	08910023          	sb	s1,128(sp)
   16a3a:	6509                	lui	a0,0x2
   16a3c:	459d                	li	a1,7
   16a3e:	e5450513          	addi	a0,a0,-428 # 1e54 <.Lline_table_start1+0x1c29>
   16a42:	4709                	li	a4,2
   16a44:	07f00793          	li	a5,127
   16a48:	4601                	li	a2,0
   16a4a:	4681                	li	a3,0
   16a4c:	00000073          	ecall
   16a50:	02a7e863          	bltu	a5,a0,16a80 <_ZN20complex_full_dynamic3app17hf92139ee4cd8a850E+0xc6>
   16a54:	00b9a223          	sw	a1,4(s3)
   16a58:	4505                	li	a0,1
   16a5a:	00a98023          	sb	a0,0(s3)
   16a5e:	18a8                	addi	a0,sp,120
   16a60:	00004097          	auipc	ra,0x4
   16a64:	486080e7          	jalr	1158(ra) # 1aee6 <_ZN9allow_pin12full_dynamic17unshare_if_shared17he9718eb989dae51aE>
   16a68:	0028                	addi	a0,sp,8
   16a6a:	00004097          	auipc	ra,0x4
   16a6e:	47c080e7          	jalr	1148(ra) # 1aee6 <_ZN9allow_pin12full_dynamic17unshare_if_shared17he9718eb989dae51aE>
   16a72:	50fa                	lw	ra,188(sp)
   16a74:	546a                	lw	s0,184(sp)
   16a76:	54da                	lw	s1,180(sp)
   16a78:	594a                	lw	s2,176(sp)
   16a7a:	59ba                	lw	s3,172(sp)
   16a7c:	6129                	addi	sp,sp,192
   16a7e:	8082                	ret
   16a80:	0028                	addi	a0,sp,8
   16a82:	00004097          	auipc	ra,0x4
   16a86:	464080e7          	jalr	1124(ra) # 1aee6 <_ZN9allow_pin12full_dynamic17unshare_if_shared17he9718eb989dae51aE>
   16a8a:	18a8                	addi	a0,sp,120
   16a8c:	00004097          	auipc	ra,0x4
   16a90:	45a080e7          	jalr	1114(ra) # 1aee6 <_ZN9allow_pin12full_dynamic17unshare_if_shared17he9718eb989dae51aE>
   16a94:	18a8                	addi	a0,sp,120
   16a96:	00004097          	auipc	ra,0x4
   16a9a:	450080e7          	jalr	1104(ra) # 1aee6 <_ZN9allow_pin12full_dynamic17unshare_if_shared17he9718eb989dae51aE>
   16a9e:	00198513          	addi	a0,s3,1
   16aa2:	02700613          	li	a2,39
   16aa6:	85ca                	mv	a1,s2
   16aa8:	00004097          	auipc	ra,0x4
   16aac:	4ca080e7          	jalr	1226(ra) # 1af72 <memcpy>
   16ab0:	4501                	li	a0,0
   16ab2:	b765                	j	16a5a <_ZN20complex_full_dynamic3app17hf92139ee4cd8a850E+0xa0>

00016ab4 <_ZN20complex_full_dynamic3app17hfcf4fa52f46847d9E>:
   16ab4:	7175                	addi	sp,sp,-144
   16ab6:	c706                	sw	ra,140(sp)
   16ab8:	c522                	sw	s0,136(sp)
   16aba:	c326                	sw	s1,132(sp)
   16abc:	c14a                	sw	s2,128(sp)
   16abe:	dece                	sw	s3,124(sp)
   16ac0:	892a                	mv	s2,a0
   16ac2:	4409                	li	s0,2
   16ac4:	00810a23          	sb	s0,20(sp)
   16ac8:	0824                	addi	s1,sp,24
   16aca:	04800613          	li	a2,72
   16ace:	8526                	mv	a0,s1
   16ad0:	00004097          	auipc	ra,0x4
   16ad4:	4a2080e7          	jalr	1186(ra) # 1af72 <memcpy>
   16ad8:	8626                	mv	a2,s1
   16ada:	06011c23          	sh	zero,120(sp)
   16ade:	06010d23          	sb	zero,122(sp)
   16ae2:	06810423          	sb	s0,104(sp)
   16ae6:	d682                	sw	zero,108(sp)
   16ae8:	d882                	sw	zero,112(sp)
   16aea:	da82                	sw	zero,116(sp)
   16aec:	6505                	lui	a0,0x1
   16aee:	44a1                	li	s1,8
   16af0:	4811                	li	a6,4
   16af2:	45a1                	li	a1,8
   16af4:	11d50793          	addi	a5,a0,285 # 111d <.Lline_table_start1+0xef2>
   16af8:	04800693          	li	a3,72
   16afc:	4711                	li	a4,4
   16afe:	853e                	mv	a0,a5
   16b00:	00000073          	ecall
   16b04:	04850463          	beq	a0,s0,16b4c <_ZN20complex_full_dynamic3app17hfcf4fa52f46847d9E+0x98>
   16b08:	853e                	mv	a0,a5
   16b0a:	06c10993          	addi	s3,sp,108
   16b0e:	c63e                	sw	a5,12(sp)
   16b10:	c826                	sw	s1,16(sp)
   16b12:	01010a23          	sb	a6,20(sp)
   16b16:	44a5                	li	s1,9
   16b18:	480d                	li	a6,3
   16b1a:	45a5                	li	a1,9
   16b1c:	46bd                	li	a3,15
   16b1e:	470d                	li	a4,3
   16b20:	864e                	mv	a2,s3
   16b22:	00000073          	ecall
   16b26:	02850363          	beq	a0,s0,16b4c <_ZN20complex_full_dynamic3app17hfcf4fa52f46847d9E+0x98>
   16b2a:	d0be                	sw	a5,96(sp)
   16b2c:	d2a6                	sw	s1,100(sp)
   16b2e:	07010423          	sb	a6,104(sp)
   16b32:	6505                	lui	a0,0x1
   16b34:	45a1                	li	a1,8
   16b36:	4625                	li	a2,9
   16b38:	11d50513          	addi	a0,a0,285 # 111d <.Lline_table_start1+0xef2>
   16b3c:	4709                	li	a4,2
   16b3e:	07f00793          	li	a5,127
   16b42:	4681                	li	a3,0
   16b44:	00000073          	ecall
   16b48:	02a7e863          	bltu	a5,a0,16b78 <_ZN20complex_full_dynamic3app17hfcf4fa52f46847d9E+0xc4>
   16b4c:	00b92223          	sw	a1,4(s2)
   16b50:	4505                	li	a0,1
   16b52:	00a90023          	sb	a0,0(s2)
   16b56:	1088                	addi	a0,sp,96
   16b58:	00004097          	auipc	ra,0x4
   16b5c:	38e080e7          	jalr	910(ra) # 1aee6 <_ZN9allow_pin12full_dynamic17unshare_if_shared17he9718eb989dae51aE>
   16b60:	0068                	addi	a0,sp,12
   16b62:	00004097          	auipc	ra,0x4
   16b66:	384080e7          	jalr	900(ra) # 1aee6 <_ZN9allow_pin12full_dynamic17unshare_if_shared17he9718eb989dae51aE>
   16b6a:	40ba                	lw	ra,140(sp)
   16b6c:	442a                	lw	s0,136(sp)
   16b6e:	449a                	lw	s1,132(sp)
   16b70:	490a                	lw	s2,128(sp)
   16b72:	59f6                	lw	s3,124(sp)
   16b74:	6149                	addi	sp,sp,144
   16b76:	8082                	ret
   16b78:	0068                	addi	a0,sp,12
   16b7a:	00004097          	auipc	ra,0x4
   16b7e:	36c080e7          	jalr	876(ra) # 1aee6 <_ZN9allow_pin12full_dynamic17unshare_if_shared17he9718eb989dae51aE>
   16b82:	1088                	addi	a0,sp,96
   16b84:	00004097          	auipc	ra,0x4
   16b88:	362080e7          	jalr	866(ra) # 1aee6 <_ZN9allow_pin12full_dynamic17unshare_if_shared17he9718eb989dae51aE>
   16b8c:	1088                	addi	a0,sp,96
   16b8e:	00004097          	auipc	ra,0x4
   16b92:	358080e7          	jalr	856(ra) # 1aee6 <_ZN9allow_pin12full_dynamic17unshare_if_shared17he9718eb989dae51aE>
   16b96:	00190513          	addi	a0,s2,1
   16b9a:	463d                	li	a2,15
   16b9c:	85ce                	mv	a1,s3
   16b9e:	00004097          	auipc	ra,0x4
   16ba2:	3d4080e7          	jalr	980(ra) # 1af72 <memcpy>
   16ba6:	4501                	li	a0,0
   16ba8:	b76d                	j	16b52 <_ZN20complex_full_dynamic3app17hfcf4fa52f46847d9E+0x9e>

00016baa <_ZN20complex_full_dynamic3app17hfdff4d001648f14bE>:
   16baa:	7171                	addi	sp,sp,-176
   16bac:	d706                	sw	ra,172(sp)
   16bae:	d522                	sw	s0,168(sp)
   16bb0:	d326                	sw	s1,164(sp)
   16bb2:	d14a                	sw	s2,160(sp)
   16bb4:	cf4e                	sw	s3,156(sp)
   16bb6:	89aa                	mv	s3,a0
   16bb8:	4409                	li	s0,2
   16bba:	00810a23          	sb	s0,20(sp)
   16bbe:	0824                	addi	s1,sp,24
   16bc0:	03500613          	li	a2,53
   16bc4:	8526                	mv	a0,s1
   16bc6:	00004097          	auipc	ra,0x4
   16bca:	3ac080e7          	jalr	940(ra) # 1af72 <memcpy>
   16bce:	05c10913          	addi	s2,sp,92
   16bd2:	03f00613          	li	a2,63
   16bd6:	854a                	mv	a0,s2
   16bd8:	4581                	li	a1,0
   16bda:	00004097          	auipc	ra,0x4
   16bde:	32c080e7          	jalr	812(ra) # 1af06 <memset>
   16be2:	4581                	li	a1,0
   16be4:	8626                	mv	a2,s1
   16be6:	04810c23          	sb	s0,88(sp)
   16bea:	6505                	lui	a0,0x1
   16bec:	4491                	li	s1,4
   16bee:	e5750793          	addi	a5,a0,-425 # e57 <.Lline_table_start1+0xc2c>
   16bf2:	03500693          	li	a3,53
   16bf6:	4711                	li	a4,4
   16bf8:	853e                	mv	a0,a5
   16bfa:	00000073          	ecall
   16bfe:	04850263          	beq	a0,s0,16c42 <_ZN20complex_full_dynamic3app17hfdff4d001648f14bE+0x98>
   16c02:	853e                	mv	a0,a5
   16c04:	864a                	mv	a2,s2
   16c06:	c63e                	sw	a5,12(sp)
   16c08:	c802                	sw	zero,16(sp)
   16c0a:	00910a23          	sb	s1,20(sp)
   16c0e:	448d                	li	s1,3
   16c10:	458d                	li	a1,3
   16c12:	03f00693          	li	a3,63
   16c16:	470d                	li	a4,3
   16c18:	00000073          	ecall
   16c1c:	02850363          	beq	a0,s0,16c42 <_ZN20complex_full_dynamic3app17hfdff4d001648f14bE+0x98>
   16c20:	c8be                	sw	a5,80(sp)
   16c22:	caa6                	sw	s1,84(sp)
   16c24:	04910c23          	sb	s1,88(sp)
   16c28:	6505                	lui	a0,0x1
   16c2a:	460d                	li	a2,3
   16c2c:	e5750513          	addi	a0,a0,-425 # e57 <.Lline_table_start1+0xc2c>
   16c30:	4709                	li	a4,2
   16c32:	07f00793          	li	a5,127
   16c36:	4581                	li	a1,0
   16c38:	4681                	li	a3,0
   16c3a:	00000073          	ecall
   16c3e:	02a7e863          	bltu	a5,a0,16c6e <_ZN20complex_full_dynamic3app17hfdff4d001648f14bE+0xc4>
   16c42:	00b9a223          	sw	a1,4(s3)
   16c46:	4505                	li	a0,1
   16c48:	00a98023          	sb	a0,0(s3)
   16c4c:	0888                	addi	a0,sp,80
   16c4e:	00004097          	auipc	ra,0x4
   16c52:	298080e7          	jalr	664(ra) # 1aee6 <_ZN9allow_pin12full_dynamic17unshare_if_shared17he9718eb989dae51aE>
   16c56:	0068                	addi	a0,sp,12
   16c58:	00004097          	auipc	ra,0x4
   16c5c:	28e080e7          	jalr	654(ra) # 1aee6 <_ZN9allow_pin12full_dynamic17unshare_if_shared17he9718eb989dae51aE>
   16c60:	50ba                	lw	ra,172(sp)
   16c62:	542a                	lw	s0,168(sp)
   16c64:	549a                	lw	s1,164(sp)
   16c66:	590a                	lw	s2,160(sp)
   16c68:	49fa                	lw	s3,156(sp)
   16c6a:	614d                	addi	sp,sp,176
   16c6c:	8082                	ret
   16c6e:	0068                	addi	a0,sp,12
   16c70:	00004097          	auipc	ra,0x4
   16c74:	276080e7          	jalr	630(ra) # 1aee6 <_ZN9allow_pin12full_dynamic17unshare_if_shared17he9718eb989dae51aE>
   16c78:	0888                	addi	a0,sp,80
   16c7a:	00004097          	auipc	ra,0x4
   16c7e:	26c080e7          	jalr	620(ra) # 1aee6 <_ZN9allow_pin12full_dynamic17unshare_if_shared17he9718eb989dae51aE>
   16c82:	0888                	addi	a0,sp,80
   16c84:	00004097          	auipc	ra,0x4
   16c88:	262080e7          	jalr	610(ra) # 1aee6 <_ZN9allow_pin12full_dynamic17unshare_if_shared17he9718eb989dae51aE>
   16c8c:	00198513          	addi	a0,s3,1
   16c90:	03f00613          	li	a2,63
   16c94:	85ca                	mv	a1,s2
   16c96:	00004097          	auipc	ra,0x4
   16c9a:	2dc080e7          	jalr	732(ra) # 1af72 <memcpy>
   16c9e:	4501                	li	a0,0
   16ca0:	b765                	j	16c48 <_ZN20complex_full_dynamic3app17hfdff4d001648f14bE+0x9e>

00016ca2 <_start>:
   16ca2:	81010113          	addi	sp,sp,-2032
   16ca6:	7e112623          	sw	ra,2028(sp)
   16caa:	7e812423          	sw	s0,2024(sp)
   16cae:	7e912223          	sw	s1,2020(sp)
   16cb2:	7f212023          	sw	s2,2016(sp)
   16cb6:	7d312e23          	sw	s3,2012(sp)
   16cba:	7d412c23          	sw	s4,2008(sp)
   16cbe:	7d512a23          	sw	s5,2004(sp)
   16cc2:	7d612823          	sw	s6,2000(sp)
   16cc6:	7d712623          	sw	s7,1996(sp)
   16cca:	7d812423          	sw	s8,1992(sp)
   16cce:	7d912223          	sw	s9,1988(sp)
   16cd2:	7da12023          	sw	s10,1984(sp)
   16cd6:	7bb12e23          	sw	s11,1980(sp)
   16cda:	80010113          	addi	sp,sp,-2048
   16cde:	b2010113          	addi	sp,sp,-1248
   16ce2:	7ff10a13          	addi	s4,sp,2047
   16ce6:	791a0a13          	addi	s4,s4,1937
   16cea:	08e4                	addi	s1,sp,92
   16cec:	02800613          	li	a2,40
   16cf0:	8526                	mv	a0,s1
   16cf2:	4581                	li	a1,0
   16cf4:	00004097          	auipc	ra,0x4
   16cf8:	212080e7          	jalr	530(ra) # 1af06 <memset>
   16cfc:	4409                	li	s0,2
   16cfe:	04810c23          	sb	s0,88(sp)
   16d02:	6505                	lui	a0,0x1
   16d04:	38850513          	addi	a0,a0,904 # 1388 <.Lline_table_start1+0x115d>
   16d08:	00a10933          	add	s2,sp,a0
   16d0c:	05100613          	li	a2,81
   16d10:	854a                	mv	a0,s2
   16d12:	4581                	li	a1,0
   16d14:	00004097          	auipc	ra,0x4
   16d18:	1f2080e7          	jalr	498(ra) # 1af06 <memset>
   16d1c:	8626                	mv	a2,s1
   16d1e:	3e8a0a23          	sb	s0,1012(s4)
   16d22:	6789                	lui	a5,0x2
   16d24:	44a5                	li	s1,9
   16d26:	4811                	li	a6,4
   16d28:	45a5                	li	a1,9
   16d2a:	0799                	addi	a5,a5,6 # 2006 <.Lline_table_start1+0x1ddb>
   16d2c:	02800693          	li	a3,40
   16d30:	4711                	li	a4,4
   16d32:	853e                	mv	a0,a5
   16d34:	00000073          	ecall
   16d38:	04850763          	beq	a0,s0,16d86 <_start+0xe4>
   16d3c:	853e                	mv	a0,a5
   16d3e:	864a                	mv	a2,s2
   16d40:	c8be                	sw	a5,80(sp)
   16d42:	caa6                	sw	s1,84(sp)
   16d44:	05010c23          	sb	a6,88(sp)
   16d48:	448d                	li	s1,3
   16d4a:	45a5                	li	a1,9
   16d4c:	05100693          	li	a3,81
   16d50:	470d                	li	a4,3
   16d52:	00000073          	ecall
   16d56:	02850863          	beq	a0,s0,16d86 <_start+0xe4>
   16d5a:	4525                	li	a0,9
   16d5c:	6689                	lui	a3,0x2
   16d5e:	45a5                	li	a1,9
   16d60:	4625                	li	a2,9
   16d62:	3efa2623          	sw	a5,1004(s4)
   16d66:	3eaa2823          	sw	a0,1008(s4)
   16d6a:	3e9a0a23          	sb	s1,1012(s4)
   16d6e:	00668513          	addi	a0,a3,6 # 2006 <.Lline_table_start1+0x1ddb>
   16d72:	4709                	li	a4,2
   16d74:	07f00793          	li	a5,127
   16d78:	4681                	li	a3,0
   16d7a:	00000073          	ecall
   16d7e:	00a7f463          	bgeu	a5,a0,16d86 <_start+0xe4>
   16d82:	4330306f          	j	1a9b4 <_start+0x3d12>
   16d86:	8aae                	mv	s5,a1
   16d88:	4405                	li	s0,1
   16d8a:	6505                	lui	a0,0x1
   16d8c:	37c50513          	addi	a0,a0,892 # 137c <.Lline_table_start1+0x1151>
   16d90:	950a                	add	a0,a0,sp
   16d92:	00004097          	auipc	ra,0x4
   16d96:	154080e7          	jalr	340(ra) # 1aee6 <_ZN9allow_pin12full_dynamic17unshare_if_shared17he9718eb989dae51aE>
   16d9a:	0888                	addi	a0,sp,80
   16d9c:	00004097          	auipc	ra,0x4
   16da0:	14a080e7          	jalr	330(ra) # 1aee6 <_ZN9allow_pin12full_dynamic17unshare_if_shared17he9718eb989dae51aE>
   16da4:	c019                	beqz	s0,16daa <_start+0x108>
   16da6:	3c90306f          	j	1a96e <_start+0x3ccc>
   16daa:	09011503          	lh	a0,144(sp)
   16dae:	09214583          	lbu	a1,146(sp)
   16db2:	6605                	lui	a2,0x1
   16db4:	38860613          	addi	a2,a2,904 # 1388 <.Lline_table_start1+0x115d>
   16db8:	00c10433          	add	s0,sp,a2
   16dbc:	3eaa1c23          	sh	a0,1016(s4)
   16dc0:	3eba0d23          	sb	a1,1018(s4)
   16dc4:	6505                	lui	a0,0x1
   16dc6:	32050513          	addi	a0,a0,800 # 1320 <.Lline_table_start1+0x10f5>
   16dca:	950a                	add	a0,a0,sp
   16dcc:	004c                	addi	a1,sp,4
   16dce:	04a00613          	li	a2,74
   16dd2:	00004097          	auipc	ra,0x4
   16dd6:	1a0080e7          	jalr	416(ra) # 1af72 <memcpy>
   16dda:	6505                	lui	a0,0x1
   16ddc:	38f50513          	addi	a0,a0,911 # 138f <.Lline_table_start1+0x1164>
   16de0:	950a                	add	a0,a0,sp
   16de2:	6585                	lui	a1,0x1
   16de4:	32058593          	addi	a1,a1,800 # 1320 <.Lline_table_start1+0x10f5>
   16de8:	958a                	add	a1,a1,sp
   16dea:	04a00613          	li	a2,74
   16dee:	00004097          	auipc	ra,0x4
   16df2:	184080e7          	jalr	388(ra) # 1af72 <memcpy>
   16df6:	4489                	li	s1,2
   16df8:	018ad513          	srli	a0,s5,0x18
   16dfc:	010ad593          	srli	a1,s5,0x10
   16e00:	3eaa0f23          	sb	a0,1022(s4)
   16e04:	008ad513          	srli	a0,s5,0x8
   16e08:	3e9a0a23          	sb	s1,1012(s4)
   16e0c:	3f5a0da3          	sb	s5,1019(s4)
   16e10:	3eaa0e23          	sb	a0,1020(s4)
   16e14:	3eba0ea3          	sb	a1,1021(s4)
   16e18:	6505                	lui	a0,0x1
   16e1a:	32c50513          	addi	a0,a0,812 # 132c <.Lline_table_start1+0x1101>
   16e1e:	00a10933          	add	s2,sp,a0
   16e22:	04600613          	li	a2,70
   16e26:	854a                	mv	a0,s2
   16e28:	4581                	li	a1,0
   16e2a:	00004097          	auipc	ra,0x4
   16e2e:	0dc080e7          	jalr	220(ra) # 1af06 <memset>
   16e32:	8622                	mv	a2,s0
   16e34:	389a0c23          	sb	s1,920(s4)
   16e38:	6409                	lui	s0,0x2
   16e3a:	489d                	li	a7,7
   16e3c:	4811                	li	a6,4
   16e3e:	459d                	li	a1,7
   16e40:	0c440793          	addi	a5,s0,196 # 20c4 <.Lline_table_start1+0x1e99>
   16e44:	05100693          	li	a3,81
   16e48:	4711                	li	a4,4
   16e4a:	853e                	mv	a0,a5
   16e4c:	00000073          	ecall
   16e50:	04950b63          	beq	a0,s1,16ea6 <_start+0x204>
   16e54:	853e                	mv	a0,a5
   16e56:	4581                	li	a1,0
   16e58:	864a                	mv	a2,s2
   16e5a:	0419                	addi	s0,s0,6
   16e5c:	478d                	li	a5,3
   16e5e:	04600693          	li	a3,70
   16e62:	0be40413          	addi	s0,s0,190
   16e66:	3e8a2623          	sw	s0,1004(s4)
   16e6a:	3f1a2823          	sw	a7,1008(s4)
   16e6e:	3f0a0a23          	sb	a6,1012(s4)
   16e72:	470d                	li	a4,3
   16e74:	00000073          	ecall
   16e78:	02950763          	beq	a0,s1,16ea6 <_start+0x204>
   16e7c:	388a2823          	sw	s0,912(s4)
   16e80:	380a2a23          	sw	zero,916(s4)
   16e84:	38fa0c23          	sb	a5,920(s4)
   16e88:	6509                	lui	a0,0x2
   16e8a:	459d                	li	a1,7
   16e8c:	0c450513          	addi	a0,a0,196 # 20c4 <.Lline_table_start1+0x1e99>
   16e90:	4709                	li	a4,2
   16e92:	07f00793          	li	a5,127
   16e96:	4601                	li	a2,0
   16e98:	4681                	li	a3,0
   16e9a:	00000073          	ecall
   16e9e:	00a7f463          	bgeu	a5,a0,16ea6 <_start+0x204>
   16ea2:	3910306f          	j	1aa32 <_start+0x3d90>
   16ea6:	8aae                	mv	s5,a1
   16ea8:	4405                	li	s0,1
   16eaa:	6505                	lui	a0,0x1
   16eac:	32050513          	addi	a0,a0,800 # 1320 <.Lline_table_start1+0x10f5>
   16eb0:	950a                	add	a0,a0,sp
   16eb2:	00004097          	auipc	ra,0x4
   16eb6:	034080e7          	jalr	52(ra) # 1aee6 <_ZN9allow_pin12full_dynamic17unshare_if_shared17he9718eb989dae51aE>
   16eba:	6505                	lui	a0,0x1
   16ebc:	37c50513          	addi	a0,a0,892 # 137c <.Lline_table_start1+0x1151>
   16ec0:	950a                	add	a0,a0,sp
   16ec2:	00004097          	auipc	ra,0x4
   16ec6:	024080e7          	jalr	36(ra) # 1aee6 <_ZN9allow_pin12full_dynamic17unshare_if_shared17he9718eb989dae51aE>
   16eca:	c019                	beqz	s0,16ed0 <_start+0x22e>
   16ecc:	2a30306f          	j	1a96e <_start+0x3ccc>
   16ed0:	09011503          	lh	a0,144(sp)
   16ed4:	09214583          	lbu	a1,146(sp)
   16ed8:	6605                	lui	a2,0x1
   16eda:	38860613          	addi	a2,a2,904 # 1388 <.Lline_table_start1+0x115d>
   16ede:	00c109b3          	add	s3,sp,a2
   16ee2:	3eaa1c23          	sh	a0,1016(s4)
   16ee6:	3eba0d23          	sb	a1,1018(s4)
   16eea:	0048                	addi	a0,sp,4
   16eec:	088c                	addi	a1,sp,80
   16eee:	03f00613          	li	a2,63
   16ef2:	00004097          	auipc	ra,0x4
   16ef6:	080080e7          	jalr	128(ra) # 1af72 <memcpy>
   16efa:	6505                	lui	a0,0x1
   16efc:	38f50513          	addi	a0,a0,911 # 138f <.Lline_table_start1+0x1164>
   16f00:	950a                	add	a0,a0,sp
   16f02:	004c                	addi	a1,sp,4
   16f04:	03f00613          	li	a2,63
   16f08:	00004097          	auipc	ra,0x4
   16f0c:	06a080e7          	jalr	106(ra) # 1af72 <memcpy>
   16f10:	864e                	mv	a2,s3
   16f12:	4489                	li	s1,2
   16f14:	018ad513          	srli	a0,s5,0x18
   16f18:	010ad693          	srli	a3,s5,0x10
   16f1c:	008ad713          	srli	a4,s5,0x8
   16f20:	3a0a2423          	sw	zero,936(s4)
   16f24:	3a0a2623          	sw	zero,940(s4)
   16f28:	3a0a2823          	sw	zero,944(s4)
   16f2c:	6409                	lui	s0,0x2
   16f2e:	488d                	li	a7,3
   16f30:	4811                	li	a6,4
   16f32:	458d                	li	a1,3
   16f34:	3eaa0f23          	sb	a0,1022(s4)
   16f38:	3e9a0a23          	sb	s1,1012(s4)
   16f3c:	3f5a0da3          	sb	s5,1019(s4)
   16f40:	3eea0e23          	sb	a4,1020(s4)
   16f44:	3eda0ea3          	sb	a3,1021(s4)
   16f48:	389a0c23          	sb	s1,920(s4)
   16f4c:	380a2e23          	sw	zero,924(s4)
   16f50:	3a0a2023          	sw	zero,928(s4)
   16f54:	3a0a2223          	sw	zero,932(s4)
   16f58:	3cf40793          	addi	a5,s0,975 # 23cf <.Lline_table_start1+0x21a4>
   16f5c:	04600693          	li	a3,70
   16f60:	4711                	li	a4,4
   16f62:	853e                	mv	a0,a5
   16f64:	00000073          	ecall
   16f68:	04950b63          	beq	a0,s1,16fbe <_start+0x31c>
   16f6c:	0419                	addi	s0,s0,6
   16f6e:	4589                	li	a1,2
   16f70:	46e1                	li	a3,24
   16f72:	3c940413          	addi	s0,s0,969
   16f76:	3e8a2623          	sw	s0,1004(s4)
   16f7a:	3f1a2823          	sw	a7,1008(s4)
   16f7e:	3f0a0a23          	sb	a6,1012(s4)
   16f82:	470d                	li	a4,3
   16f84:	853e                	mv	a0,a5
   16f86:	864a                	mv	a2,s2
   16f88:	00000073          	ecall
   16f8c:	02950963          	beq	a0,s1,16fbe <_start+0x31c>
   16f90:	4509                	li	a0,2
   16f92:	468d                	li	a3,3
   16f94:	6709                	lui	a4,0x2
   16f96:	458d                	li	a1,3
   16f98:	4609                	li	a2,2
   16f9a:	388a2823          	sw	s0,912(s4)
   16f9e:	38aa2a23          	sw	a0,916(s4)
   16fa2:	38da0c23          	sb	a3,920(s4)
   16fa6:	3cf70513          	addi	a0,a4,975 # 23cf <.Lline_table_start1+0x21a4>
   16faa:	4709                	li	a4,2
   16fac:	07f00793          	li	a5,127
   16fb0:	4681                	li	a3,0
   16fb2:	00000073          	ecall
   16fb6:	00a7f463          	bgeu	a5,a0,16fbe <_start+0x31c>
   16fba:	2fd0306f          	j	1aab6 <_start+0x3e14>
   16fbe:	8aae                	mv	s5,a1
   16fc0:	4405                	li	s0,1
   16fc2:	6505                	lui	a0,0x1
   16fc4:	32050513          	addi	a0,a0,800 # 1320 <.Lline_table_start1+0x10f5>
   16fc8:	950a                	add	a0,a0,sp
   16fca:	00004097          	auipc	ra,0x4
   16fce:	f1c080e7          	jalr	-228(ra) # 1aee6 <_ZN9allow_pin12full_dynamic17unshare_if_shared17he9718eb989dae51aE>
   16fd2:	6505                	lui	a0,0x1
   16fd4:	37c50513          	addi	a0,a0,892 # 137c <.Lline_table_start1+0x1151>
   16fd8:	950a                	add	a0,a0,sp
   16fda:	00004097          	auipc	ra,0x4
   16fde:	f0c080e7          	jalr	-244(ra) # 1aee6 <_ZN9allow_pin12full_dynamic17unshare_if_shared17he9718eb989dae51aE>
   16fe2:	c019                	beqz	s0,16fe8 <_start+0x346>
   16fe4:	18b0306f          	j	1a96e <_start+0x3ccc>
   16fe8:	0a411503          	lh	a0,164(sp)
   16fec:	0a614583          	lbu	a1,166(sp)
   16ff0:	464a                	lw	a2,144(sp)
   16ff2:	46da                	lw	a3,148(sp)
   16ff4:	476a                	lw	a4,152(sp)
   16ff6:	47fa                	lw	a5,156(sp)
   16ff8:	04a11e23          	sh	a0,92(sp)
   16ffc:	04b10f23          	sb	a1,94(sp)
   17000:	0a014503          	lbu	a0,160(sp)
   17004:	c232                	sw	a2,4(sp)
   17006:	c436                	sw	a3,8(sp)
   17008:	c63a                	sw	a4,12(sp)
   1700a:	c83e                	sw	a5,16(sp)
   1700c:	08e0                	addi	s0,sp,92
   1700e:	00a10a23          	sb	a0,20(sp)
   17012:	06310513          	addi	a0,sp,99
   17016:	004c                	addi	a1,sp,4
   17018:	4645                	li	a2,17
   1701a:	00004097          	auipc	ra,0x4
   1701e:	f58080e7          	jalr	-168(ra) # 1af72 <memcpy>
   17022:	4489                	li	s1,2
   17024:	018ad513          	srli	a0,s5,0x18
   17028:	010ad593          	srli	a1,s5,0x10
   1702c:	06a10123          	sb	a0,98(sp)
   17030:	008ad513          	srli	a0,s5,0x8
   17034:	04910c23          	sb	s1,88(sp)
   17038:	05510fa3          	sb	s5,95(sp)
   1703c:	06a10023          	sb	a0,96(sp)
   17040:	06b100a3          	sb	a1,97(sp)
   17044:	03600613          	li	a2,54
   17048:	854e                	mv	a0,s3
   1704a:	4581                	li	a1,0
   1704c:	00004097          	auipc	ra,0x4
   17050:	eba080e7          	jalr	-326(ra) # 1af06 <memset>
   17054:	4581                	li	a1,0
   17056:	8622                	mv	a2,s0
   17058:	3e9a0a23          	sb	s1,1012(s4)
   1705c:	21f00413          	li	s0,543
   17060:	4791                	li	a5,4
   17062:	21f00513          	li	a0,543
   17066:	46e1                	li	a3,24
   17068:	4711                	li	a4,4
   1706a:	00000073          	ecall
   1706e:	04950963          	beq	a0,s1,170c0 <_start+0x41e>
   17072:	864e                	mv	a2,s3
   17074:	c8a2                	sw	s0,80(sp)
   17076:	ca82                	sw	zero,84(sp)
   17078:	04f10c23          	sb	a5,88(sp)
   1707c:	479d                	li	a5,7
   1707e:	440d                	li	s0,3
   17080:	21f00513          	li	a0,543
   17084:	459d                	li	a1,7
   17086:	03600693          	li	a3,54
   1708a:	470d                	li	a4,3
   1708c:	00000073          	ecall
   17090:	02950863          	beq	a0,s1,170c0 <_start+0x41e>
   17094:	21f00593          	li	a1,543
   17098:	21f00513          	li	a0,543
   1709c:	461d                	li	a2,7
   1709e:	4709                	li	a4,2
   170a0:	07f00493          	li	s1,127
   170a4:	3eba2623          	sw	a1,1004(s4)
   170a8:	3efa2823          	sw	a5,1008(s4)
   170ac:	3e8a0a23          	sb	s0,1012(s4)
   170b0:	4581                	li	a1,0
   170b2:	4681                	li	a3,0
   170b4:	00000073          	ecall
   170b8:	00a4f463          	bgeu	s1,a0,170c0 <_start+0x41e>
   170bc:	2f70306f          	j	1abb2 <_start+0x3f10>
   170c0:	8aae                	mv	s5,a1
   170c2:	4405                	li	s0,1
   170c4:	6505                	lui	a0,0x1
   170c6:	37c50513          	addi	a0,a0,892 # 137c <.Lline_table_start1+0x1151>
   170ca:	950a                	add	a0,a0,sp
   170cc:	00004097          	auipc	ra,0x4
   170d0:	e1a080e7          	jalr	-486(ra) # 1aee6 <_ZN9allow_pin12full_dynamic17unshare_if_shared17he9718eb989dae51aE>
   170d4:	0888                	addi	a0,sp,80
   170d6:	00004097          	auipc	ra,0x4
   170da:	e10080e7          	jalr	-496(ra) # 1aee6 <_ZN9allow_pin12full_dynamic17unshare_if_shared17he9718eb989dae51aE>
   170de:	c019                	beqz	s0,170e4 <_start+0x442>
   170e0:	08f0306f          	j	1a96e <_start+0x3ccc>
   170e4:	09011503          	lh	a0,144(sp)
   170e8:	09214583          	lbu	a1,146(sp)
   170ec:	6605                	lui	a2,0x1
   170ee:	38860613          	addi	a2,a2,904 # 1388 <.Lline_table_start1+0x115d>
   170f2:	00c10433          	add	s0,sp,a2
   170f6:	3eaa1c23          	sh	a0,1016(s4)
   170fa:	3eba0d23          	sb	a1,1018(s4)
   170fe:	6505                	lui	a0,0x1
   17100:	32050513          	addi	a0,a0,800 # 1320 <.Lline_table_start1+0x10f5>
   17104:	950a                	add	a0,a0,sp
   17106:	004c                	addi	a1,sp,4
   17108:	02f00613          	li	a2,47
   1710c:	00004097          	auipc	ra,0x4
   17110:	e66080e7          	jalr	-410(ra) # 1af72 <memcpy>
   17114:	6505                	lui	a0,0x1
   17116:	38f50513          	addi	a0,a0,911 # 138f <.Lline_table_start1+0x1164>
   1711a:	950a                	add	a0,a0,sp
   1711c:	6585                	lui	a1,0x1
   1711e:	32058593          	addi	a1,a1,800 # 1320 <.Lline_table_start1+0x10f5>
   17122:	958a                	add	a1,a1,sp
   17124:	02f00613          	li	a2,47
   17128:	00004097          	auipc	ra,0x4
   1712c:	e4a080e7          	jalr	-438(ra) # 1af72 <memcpy>
   17130:	4489                	li	s1,2
   17132:	018ad513          	srli	a0,s5,0x18
   17136:	010ad593          	srli	a1,s5,0x10
   1713a:	3eaa0f23          	sb	a0,1022(s4)
   1713e:	008ad513          	srli	a0,s5,0x8
   17142:	3e9a0a23          	sb	s1,1012(s4)
   17146:	3f5a0da3          	sb	s5,1019(s4)
   1714a:	3eaa0e23          	sb	a0,1020(s4)
   1714e:	3eba0ea3          	sb	a1,1021(s4)
   17152:	02500613          	li	a2,37
   17156:	854a                	mv	a0,s2
   17158:	4581                	li	a1,0
   1715a:	00004097          	auipc	ra,0x4
   1715e:	dac080e7          	jalr	-596(ra) # 1af06 <memset>
   17162:	8622                	mv	a2,s0
   17164:	389a0c23          	sb	s1,920(s4)
   17168:	6505                	lui	a0,0x1
   1716a:	441d                	li	s0,7
   1716c:	4811                	li	a6,4
   1716e:	459d                	li	a1,7
   17170:	59750793          	addi	a5,a0,1431 # 1597 <.Lline_table_start1+0x136c>
   17174:	03600693          	li	a3,54
   17178:	4711                	li	a4,4
   1717a:	853e                	mv	a0,a5
   1717c:	00000073          	ecall
   17180:	04950863          	beq	a0,s1,171d0 <_start+0x52e>
   17184:	853e                	mv	a0,a5
   17186:	4581                	li	a1,0
   17188:	864a                	mv	a2,s2
   1718a:	3efa2623          	sw	a5,1004(s4)
   1718e:	3e8a2823          	sw	s0,1008(s4)
   17192:	3f0a0a23          	sb	a6,1012(s4)
   17196:	440d                	li	s0,3
   17198:	02500693          	li	a3,37
   1719c:	470d                	li	a4,3
   1719e:	00000073          	ecall
   171a2:	02950763          	beq	a0,s1,171d0 <_start+0x52e>
   171a6:	38fa2823          	sw	a5,912(s4)
   171aa:	380a2a23          	sw	zero,916(s4)
   171ae:	388a0c23          	sb	s0,920(s4)
   171b2:	6505                	lui	a0,0x1
   171b4:	459d                	li	a1,7
   171b6:	59750513          	addi	a0,a0,1431 # 1597 <.Lline_table_start1+0x136c>
   171ba:	4709                	li	a4,2
   171bc:	07f00793          	li	a5,127
   171c0:	4601                	li	a2,0
   171c2:	4681                	li	a3,0
   171c4:	00000073          	ecall
   171c8:	00a7f463          	bgeu	a5,a0,171d0 <_start+0x52e>
   171cc:	2650306f          	j	1ac30 <_start+0x3f8e>
   171d0:	8aae                	mv	s5,a1
   171d2:	4405                	li	s0,1
   171d4:	6505                	lui	a0,0x1
   171d6:	32050513          	addi	a0,a0,800 # 1320 <.Lline_table_start1+0x10f5>
   171da:	950a                	add	a0,a0,sp
   171dc:	00004097          	auipc	ra,0x4
   171e0:	d0a080e7          	jalr	-758(ra) # 1aee6 <_ZN9allow_pin12full_dynamic17unshare_if_shared17he9718eb989dae51aE>
   171e4:	6505                	lui	a0,0x1
   171e6:	37c50513          	addi	a0,a0,892 # 137c <.Lline_table_start1+0x1151>
   171ea:	950a                	add	a0,a0,sp
   171ec:	00004097          	auipc	ra,0x4
   171f0:	cfa080e7          	jalr	-774(ra) # 1aee6 <_ZN9allow_pin12full_dynamic17unshare_if_shared17he9718eb989dae51aE>
   171f4:	c019                	beqz	s0,171fa <_start+0x558>
   171f6:	7780306f          	j	1a96e <_start+0x3ccc>
   171fa:	09011503          	lh	a0,144(sp)
   171fe:	09214583          	lbu	a1,146(sp)
   17202:	6605                	lui	a2,0x1
   17204:	38860613          	addi	a2,a2,904 # 1388 <.Lline_table_start1+0x115d>
   17208:	00c10433          	add	s0,sp,a2
   1720c:	3eaa1c23          	sh	a0,1016(s4)
   17210:	3eba0d23          	sb	a1,1018(s4)
   17214:	4546                	lw	a0,80(sp)
   17216:	45d6                	lw	a1,84(sp)
   17218:	4666                	lw	a2,88(sp)
   1721a:	46f6                	lw	a3,92(sp)
   1721c:	c22a                	sw	a0,4(sp)
   1721e:	c42e                	sw	a1,8(sp)
   17220:	c632                	sw	a2,12(sp)
   17222:	c836                	sw	a3,16(sp)
   17224:	5506                	lw	a0,96(sp)
   17226:	5596                	lw	a1,100(sp)
   17228:	5626                	lw	a2,104(sp)
   1722a:	06c11683          	lh	a3,108(sp)
   1722e:	ca2a                	sw	a0,20(sp)
   17230:	cc2e                	sw	a1,24(sp)
   17232:	ce32                	sw	a2,28(sp)
   17234:	02d11023          	sh	a3,32(sp)
   17238:	6505                	lui	a0,0x1
   1723a:	38f50513          	addi	a0,a0,911 # 138f <.Lline_table_start1+0x1164>
   1723e:	950a                	add	a0,a0,sp
   17240:	004c                	addi	a1,sp,4
   17242:	4679                	li	a2,30
   17244:	00004097          	auipc	ra,0x4
   17248:	d2e080e7          	jalr	-722(ra) # 1af72 <memcpy>
   1724c:	8622                	mv	a2,s0
   1724e:	4789                	li	a5,2
   17250:	018ad693          	srli	a3,s5,0x18
   17254:	010ad713          	srli	a4,s5,0x10
   17258:	008ad493          	srli	s1,s5,0x8
   1725c:	3a0a1423          	sh	zero,936(s4)
   17260:	66700413          	li	s0,1639
   17264:	4811                	li	a6,4
   17266:	66700513          	li	a0,1639
   1726a:	4589                	li	a1,2
   1726c:	3eda0f23          	sb	a3,1022(s4)
   17270:	02500693          	li	a3,37
   17274:	3efa0a23          	sb	a5,1012(s4)
   17278:	3f5a0da3          	sb	s5,1019(s4)
   1727c:	3e9a0e23          	sb	s1,1020(s4)
   17280:	3eea0ea3          	sb	a4,1021(s4)
   17284:	38fa0c23          	sb	a5,920(s4)
   17288:	380a2e23          	sw	zero,924(s4)
   1728c:	3a0a2023          	sw	zero,928(s4)
   17290:	3a0a2223          	sw	zero,932(s4)
   17294:	4711                	li	a4,4
   17296:	00000073          	ecall
   1729a:	04f50a63          	beq	a0,a5,172ee <_start+0x64c>
   1729e:	864a                	mv	a2,s2
   172a0:	3e8a2623          	sw	s0,1004(s4)
   172a4:	3efa2823          	sw	a5,1008(s4)
   172a8:	3f0a0a23          	sb	a6,1012(s4)
   172ac:	44a1                	li	s1,8
   172ae:	440d                	li	s0,3
   172b0:	66700513          	li	a0,1639
   172b4:	45a1                	li	a1,8
   172b6:	46b9                	li	a3,14
   172b8:	470d                	li	a4,3
   172ba:	00000073          	ecall
   172be:	02f50863          	beq	a0,a5,172ee <_start+0x64c>
   172c2:	66700693          	li	a3,1639
   172c6:	66700513          	li	a0,1639
   172ca:	4589                	li	a1,2
   172cc:	4621                	li	a2,8
   172ce:	4709                	li	a4,2
   172d0:	07f00793          	li	a5,127
   172d4:	38da2823          	sw	a3,912(s4)
   172d8:	389a2a23          	sw	s1,916(s4)
   172dc:	388a0c23          	sb	s0,920(s4)
   172e0:	4681                	li	a3,0
   172e2:	00000073          	ecall
   172e6:	00a7f463          	bgeu	a5,a0,172ee <_start+0x64c>
   172ea:	2c30306f          	j	1adac <_start+0x410a>
   172ee:	8aae                	mv	s5,a1
   172f0:	4405                	li	s0,1
   172f2:	6505                	lui	a0,0x1
   172f4:	32050513          	addi	a0,a0,800 # 1320 <.Lline_table_start1+0x10f5>
   172f8:	950a                	add	a0,a0,sp
   172fa:	00004097          	auipc	ra,0x4
   172fe:	bec080e7          	jalr	-1044(ra) # 1aee6 <_ZN9allow_pin12full_dynamic17unshare_if_shared17he9718eb989dae51aE>
   17302:	6505                	lui	a0,0x1
   17304:	37c50513          	addi	a0,a0,892 # 137c <.Lline_table_start1+0x1151>
   17308:	950a                	add	a0,a0,sp
   1730a:	00004097          	auipc	ra,0x4
   1730e:	bdc080e7          	jalr	-1060(ra) # 1aee6 <_ZN9allow_pin12full_dynamic17unshare_if_shared17he9718eb989dae51aE>
   17312:	c019                	beqz	s0,17318 <_start+0x676>
   17314:	65a0306f          	j	1a96e <_start+0x3ccc>
   17318:	09011503          	lh	a0,144(sp)
   1731c:	09214583          	lbu	a1,146(sp)
   17320:	4646                	lw	a2,80(sp)
   17322:	05411683          	lh	a3,84(sp)
   17326:	05614703          	lbu	a4,86(sp)
   1732a:	018ad793          	srli	a5,s5,0x18
   1732e:	010ad493          	srli	s1,s5,0x10
   17332:	c232                	sw	a2,4(sp)
   17334:	00d11423          	sh	a3,8(sp)
   17338:	008ad693          	srli	a3,s5,0x8
   1733c:	0aa11423          	sh	a0,168(sp)
   17340:	0ab10523          	sb	a1,170(sp)
   17344:	0b5105a3          	sb	s5,171(sp)
   17348:	0ad10623          	sb	a3,172(sp)
   1734c:	0ae10aa3          	sb	a4,181(sp)
   17350:	00514503          	lbu	a0,5(sp)
   17354:	00614583          	lbu	a1,6(sp)
   17358:	00714683          	lbu	a3,7(sp)
   1735c:	00814703          	lbu	a4,8(sp)
   17360:	0a9106a3          	sb	s1,173(sp)
   17364:	0af10723          	sb	a5,174(sp)
   17368:	0ac107a3          	sb	a2,175(sp)
   1736c:	0aa10823          	sb	a0,176(sp)
   17370:	00914503          	lbu	a0,9(sp)
   17374:	0ab108a3          	sb	a1,177(sp)
   17378:	0ad10923          	sb	a3,178(sp)
   1737c:	0ae109a3          	sb	a4,179(sp)
   17380:	0aa10a23          	sb	a0,180(sp)
   17384:	6505                	lui	a0,0x1
   17386:	37c50513          	addi	a0,a0,892 # 137c <.Lline_table_start1+0x1151>
   1738a:	950a                	add	a0,a0,sp
   1738c:	112c                	addi	a1,sp,168
   1738e:	ffffe097          	auipc	ra,0xffffe
   17392:	2b0080e7          	jalr	688(ra) # 1563e <_ZN20complex_full_dynamic3app17hc5ac9f9bbaa079e5E>
   17396:	3eca4503          	lbu	a0,1004(s4)
   1739a:	c119                	beqz	a0,173a0 <_start+0x6fe>
   1739c:	5ce0306f          	j	1a96a <_start+0x3cc8>
   173a0:	3eea4503          	lbu	a0,1006(s4)
   173a4:	3eda4583          	lbu	a1,1005(s4)
   173a8:	3efa4603          	lbu	a2,1007(s4)
   173ac:	3f0a2403          	lw	s0,1008(s4)
   173b0:	0522                	slli	a0,a0,0x8
   173b2:	8d4d                	or	a0,a0,a1
   173b4:	0aa11b23          	sh	a0,182(sp)
   173b8:	0ac10c23          	sb	a2,184(sp)
   173bc:	6505                	lui	a0,0x1
   173be:	38450513          	addi	a0,a0,900 # 1384 <.Lline_table_start1+0x1159>
   173c2:	00a105b3          	add	a1,sp,a0
   173c6:	6505                	lui	a0,0x1
   173c8:	32050513          	addi	a0,a0,800 # 1320 <.Lline_table_start1+0x10f5>
   173cc:	950a                	add	a0,a0,sp
   173ce:	04100613          	li	a2,65
   173d2:	00004097          	auipc	ra,0x4
   173d6:	ba0080e7          	jalr	-1120(ra) # 1af72 <memcpy>
   173da:	01845513          	srli	a0,s0,0x18
   173de:	01045593          	srli	a1,s0,0x10
   173e2:	00845613          	srli	a2,s0,0x8
   173e6:	0a810ca3          	sb	s0,185(sp)
   173ea:	0ac10d23          	sb	a2,186(sp)
   173ee:	0ab10da3          	sb	a1,187(sp)
   173f2:	0aa10e23          	sb	a0,188(sp)
   173f6:	0bd10513          	addi	a0,sp,189
   173fa:	6585                	lui	a1,0x1
   173fc:	32058593          	addi	a1,a1,800 # 1320 <.Lline_table_start1+0x10f5>
   17400:	958a                	add	a1,a1,sp
   17402:	04100613          	li	a2,65
   17406:	00004097          	auipc	ra,0x4
   1740a:	b6c080e7          	jalr	-1172(ra) # 1af72 <memcpy>
   1740e:	6505                	lui	a0,0x1
   17410:	37c50513          	addi	a0,a0,892 # 137c <.Lline_table_start1+0x1151>
   17414:	950a                	add	a0,a0,sp
   17416:	0b610593          	addi	a1,sp,182
   1741a:	fffff097          	auipc	ra,0xfffff
   1741e:	69a080e7          	jalr	1690(ra) # 16ab4 <_ZN20complex_full_dynamic3app17hfcf4fa52f46847d9E>
   17422:	3eca4503          	lbu	a0,1004(s4)
   17426:	c119                	beqz	a0,1742c <_start+0x78a>
   17428:	5420306f          	j	1a96a <_start+0x3cc8>
   1742c:	3eda4503          	lbu	a0,1005(s4)
   17430:	3eea4583          	lbu	a1,1006(s4)
   17434:	3efa4803          	lbu	a6,1007(s4)
   17438:	3f0a2683          	lw	a3,1008(s4)
   1743c:	3f4a2703          	lw	a4,1012(s4)
   17440:	3f8a2783          	lw	a5,1016(s4)
   17444:	05a2                	slli	a1,a1,0x8
   17446:	0186d893          	srli	a7,a3,0x18
   1744a:	0106d293          	srli	t0,a3,0x10
   1744e:	0187d613          	srli	a2,a5,0x18
   17452:	0107d493          	srli	s1,a5,0x10
   17456:	0087d413          	srli	s0,a5,0x8
   1745a:	8d4d                	or	a0,a0,a1
   1745c:	01875593          	srli	a1,a4,0x18
   17460:	109105a3          	sb	s1,267(sp)
   17464:	10c10623          	sb	a2,268(sp)
   17468:	01075613          	srli	a2,a4,0x10
   1746c:	10c103a3          	sb	a2,263(sp)
   17470:	10b10423          	sb	a1,264(sp)
   17474:	10f104a3          	sb	a5,265(sp)
   17478:	10810523          	sb	s0,266(sp)
   1747c:	0086d593          	srli	a1,a3,0x8
   17480:	0ea11f23          	sh	a0,254(sp)
   17484:	11010023          	sb	a6,256(sp)
   17488:	10d100a3          	sb	a3,257(sp)
   1748c:	10b10123          	sb	a1,258(sp)
   17490:	00875513          	srli	a0,a4,0x8
   17494:	105101a3          	sb	t0,259(sp)
   17498:	11110223          	sb	a7,260(sp)
   1749c:	10e102a3          	sb	a4,261(sp)
   174a0:	10a10323          	sb	a0,262(sp)
   174a4:	6505                	lui	a0,0x1
   174a6:	37c50513          	addi	a0,a0,892 # 137c <.Lline_table_start1+0x1151>
   174aa:	950a                	add	a0,a0,sp
   174ac:	0fe10593          	addi	a1,sp,254
   174b0:	ffffd097          	auipc	ra,0xffffd
   174b4:	e20080e7          	jalr	-480(ra) # 142d0 <_ZN20complex_full_dynamic3app17ha092d2e7a9a16ceaE>
   174b8:	3eca4503          	lbu	a0,1004(s4)
   174bc:	c119                	beqz	a0,174c2 <_start+0x820>
   174be:	4ac0306f          	j	1a96a <_start+0x3cc8>
   174c2:	3eda4503          	lbu	a0,1005(s4)
   174c6:	3eea4583          	lbu	a1,1006(s4)
   174ca:	3efa4603          	lbu	a2,1007(s4)
   174ce:	3f0a2683          	lw	a3,1008(s4)
   174d2:	3f4a2703          	lw	a4,1012(s4)
   174d6:	3f8a2783          	lw	a5,1016(s4)
   174da:	3fca2483          	lw	s1,1020(s4)
   174de:	400a2403          	lw	s0,1024(s4)
   174e2:	38ea2823          	sw	a4,912(s4)
   174e6:	38fa2a23          	sw	a5,916(s4)
   174ea:	389a2c23          	sw	s1,920(s4)
   174ee:	388a2e23          	sw	s0,924(s4)
   174f2:	404a2703          	lw	a4,1028(s4)
   174f6:	408a2783          	lw	a5,1032(s4)
   174fa:	40ca2483          	lw	s1,1036(s4)
   174fe:	410a1403          	lh	s0,1040(s4)
   17502:	05a2                	slli	a1,a1,0x8
   17504:	3aea2023          	sw	a4,928(s4)
   17508:	3afa2223          	sw	a5,932(s4)
   1750c:	3a9a2423          	sw	s1,936(s4)
   17510:	3a8a1623          	sh	s0,940(s4)
   17514:	0186d713          	srli	a4,a3,0x18
   17518:	8d4d                	or	a0,a0,a1
   1751a:	0106d593          	srli	a1,a3,0x10
   1751e:	10b109a3          	sb	a1,275(sp)
   17522:	10e10a23          	sb	a4,276(sp)
   17526:	0086d593          	srli	a1,a3,0x8
   1752a:	10a11723          	sh	a0,270(sp)
   1752e:	10c10823          	sb	a2,272(sp)
   17532:	10d108a3          	sb	a3,273(sp)
   17536:	10b10923          	sb	a1,274(sp)
   1753a:	11510513          	addi	a0,sp,277
   1753e:	6585                	lui	a1,0x1
   17540:	32058593          	addi	a1,a1,800 # 1320 <.Lline_table_start1+0x10f5>
   17544:	958a                	add	a1,a1,sp
   17546:	4679                	li	a2,30
   17548:	00004097          	auipc	ra,0x4
   1754c:	a2a080e7          	jalr	-1494(ra) # 1af72 <memcpy>
   17550:	6505                	lui	a0,0x1
   17552:	37c50513          	addi	a0,a0,892 # 137c <.Lline_table_start1+0x1151>
   17556:	950a                	add	a0,a0,sp
   17558:	10e10593          	addi	a1,sp,270
   1755c:	ffffd097          	auipc	ra,0xffffd
   17560:	99c080e7          	jalr	-1636(ra) # 13ef8 <_ZN20complex_full_dynamic3app17h9ed3612b903706b3E>
   17564:	3eca4503          	lbu	a0,1004(s4)
   17568:	c119                	beqz	a0,1756e <_start+0x8cc>
   1756a:	4000306f          	j	1a96a <_start+0x3cc8>
   1756e:	3eea4503          	lbu	a0,1006(s4)
   17572:	3eda4583          	lbu	a1,1005(s4)
   17576:	3efa4603          	lbu	a2,1007(s4)
   1757a:	3f0a2403          	lw	s0,1008(s4)
   1757e:	0522                	slli	a0,a0,0x8
   17580:	8d4d                	or	a0,a0,a1
   17582:	12a11a23          	sh	a0,308(sp)
   17586:	12c10b23          	sb	a2,310(sp)
   1758a:	6505                	lui	a0,0x1
   1758c:	38450513          	addi	a0,a0,900 # 1384 <.Lline_table_start1+0x1159>
   17590:	00a105b3          	add	a1,sp,a0
   17594:	6505                	lui	a0,0x1
   17596:	32050513          	addi	a0,a0,800 # 1320 <.Lline_table_start1+0x10f5>
   1759a:	950a                	add	a0,a0,sp
   1759c:	02300613          	li	a2,35
   175a0:	00004097          	auipc	ra,0x4
   175a4:	9d2080e7          	jalr	-1582(ra) # 1af72 <memcpy>
   175a8:	01845513          	srli	a0,s0,0x18
   175ac:	01045593          	srli	a1,s0,0x10
   175b0:	00845613          	srli	a2,s0,0x8
   175b4:	12810ba3          	sb	s0,311(sp)
   175b8:	12c10c23          	sb	a2,312(sp)
   175bc:	12b10ca3          	sb	a1,313(sp)
   175c0:	12a10d23          	sb	a0,314(sp)
   175c4:	13b10513          	addi	a0,sp,315
   175c8:	6585                	lui	a1,0x1
   175ca:	32058593          	addi	a1,a1,800 # 1320 <.Lline_table_start1+0x10f5>
   175ce:	958a                	add	a1,a1,sp
   175d0:	02300613          	li	a2,35
   175d4:	00004097          	auipc	ra,0x4
   175d8:	99e080e7          	jalr	-1634(ra) # 1af72 <memcpy>
   175dc:	6505                	lui	a0,0x1
   175de:	37c50513          	addi	a0,a0,892 # 137c <.Lline_table_start1+0x1151>
   175e2:	950a                	add	a0,a0,sp
   175e4:	1a4c                	addi	a1,sp,308
   175e6:	ffffe097          	auipc	ra,0xffffe
   175ea:	d64080e7          	jalr	-668(ra) # 1534a <_ZN20complex_full_dynamic3app17hbd055086c848ff05E>
   175ee:	3eca4503          	lbu	a0,1004(s4)
   175f2:	c119                	beqz	a0,175f8 <_start+0x956>
   175f4:	3760306f          	j	1a96a <_start+0x3cc8>
   175f8:	3eea4503          	lbu	a0,1006(s4)
   175fc:	3eda4583          	lbu	a1,1005(s4)
   17600:	3efa4603          	lbu	a2,1007(s4)
   17604:	3f0a2403          	lw	s0,1008(s4)
   17608:	0522                	slli	a0,a0,0x8
   1760a:	8d4d                	or	a0,a0,a1
   1760c:	14a11f23          	sh	a0,350(sp)
   17610:	16c10023          	sb	a2,352(sp)
   17614:	6505                	lui	a0,0x1
   17616:	38450513          	addi	a0,a0,900 # 1384 <.Lline_table_start1+0x1159>
   1761a:	00a105b3          	add	a1,sp,a0
   1761e:	6505                	lui	a0,0x1
   17620:	32050513          	addi	a0,a0,800 # 1320 <.Lline_table_start1+0x10f5>
   17624:	950a                	add	a0,a0,sp
   17626:	05c00613          	li	a2,92
   1762a:	00004097          	auipc	ra,0x4
   1762e:	948080e7          	jalr	-1720(ra) # 1af72 <memcpy>
   17632:	01845513          	srli	a0,s0,0x18
   17636:	01045593          	srli	a1,s0,0x10
   1763a:	00845613          	srli	a2,s0,0x8
   1763e:	168100a3          	sb	s0,353(sp)
   17642:	16c10123          	sb	a2,354(sp)
   17646:	16b101a3          	sb	a1,355(sp)
   1764a:	16a10223          	sb	a0,356(sp)
   1764e:	16510513          	addi	a0,sp,357
   17652:	6585                	lui	a1,0x1
   17654:	32058593          	addi	a1,a1,800 # 1320 <.Lline_table_start1+0x10f5>
   17658:	958a                	add	a1,a1,sp
   1765a:	05c00613          	li	a2,92
   1765e:	00004097          	auipc	ra,0x4
   17662:	914080e7          	jalr	-1772(ra) # 1af72 <memcpy>
   17666:	6505                	lui	a0,0x1
   17668:	37c50513          	addi	a0,a0,892 # 137c <.Lline_table_start1+0x1151>
   1766c:	950a                	add	a0,a0,sp
   1766e:	15e10593          	addi	a1,sp,350
   17672:	fffff097          	auipc	ra,0xfffff
   17676:	348080e7          	jalr	840(ra) # 169ba <_ZN20complex_full_dynamic3app17hf92139ee4cd8a850E>
   1767a:	3eca4503          	lbu	a0,1004(s4)
   1767e:	c119                	beqz	a0,17684 <_start+0x9e2>
   17680:	2ea0306f          	j	1a96a <_start+0x3cc8>
   17684:	3eda4503          	lbu	a0,1005(s4)
   17688:	3eea4583          	lbu	a1,1006(s4)
   1768c:	3efa4603          	lbu	a2,1007(s4)
   17690:	3f0a2683          	lw	a3,1008(s4)
   17694:	3f4a2703          	lw	a4,1012(s4)
   17698:	3f8a2783          	lw	a5,1016(s4)
   1769c:	3fca2483          	lw	s1,1020(s4)
   176a0:	400a2403          	lw	s0,1024(s4)
   176a4:	38ea2823          	sw	a4,912(s4)
   176a8:	38fa2a23          	sw	a5,916(s4)
   176ac:	389a2c23          	sw	s1,920(s4)
   176b0:	388a2e23          	sw	s0,924(s4)
   176b4:	404a2703          	lw	a4,1028(s4)
   176b8:	408a2783          	lw	a5,1032(s4)
   176bc:	40ca2483          	lw	s1,1036(s4)
   176c0:	410a2403          	lw	s0,1040(s4)
   176c4:	05a2                	slli	a1,a1,0x8
   176c6:	3aea2023          	sw	a4,928(s4)
   176ca:	3afa2223          	sw	a5,932(s4)
   176ce:	3a9a2423          	sw	s1,936(s4)
   176d2:	3a8a2623          	sw	s0,940(s4)
   176d6:	0186d713          	srli	a4,a3,0x18
   176da:	8d4d                	or	a0,a0,a1
   176dc:	0106d593          	srli	a1,a3,0x10
   176e0:	1cb103a3          	sb	a1,455(sp)
   176e4:	1ce10423          	sb	a4,456(sp)
   176e8:	0086d593          	srli	a1,a3,0x8
   176ec:	1ca11123          	sh	a0,450(sp)
   176f0:	1cc10223          	sb	a2,452(sp)
   176f4:	1cd102a3          	sb	a3,453(sp)
   176f8:	1cb10323          	sb	a1,454(sp)
   176fc:	1c910513          	addi	a0,sp,457
   17700:	6585                	lui	a1,0x1
   17702:	32058593          	addi	a1,a1,800 # 1320 <.Lline_table_start1+0x10f5>
   17706:	958a                	add	a1,a1,sp
   17708:	02000613          	li	a2,32
   1770c:	00004097          	auipc	ra,0x4
   17710:	866080e7          	jalr	-1946(ra) # 1af72 <memcpy>
   17714:	6505                	lui	a0,0x1
   17716:	37c50513          	addi	a0,a0,892 # 137c <.Lline_table_start1+0x1151>
   1771a:	950a                	add	a0,a0,sp
   1771c:	1c210593          	addi	a1,sp,450
   17720:	ffffe097          	auipc	ra,0xffffe
   17724:	306080e7          	jalr	774(ra) # 15a26 <_ZN20complex_full_dynamic3app17hce2a123d04b0ce39E>
   17728:	3eca4503          	lbu	a0,1004(s4)
   1772c:	c119                	beqz	a0,17732 <_start+0xa90>
   1772e:	23c0306f          	j	1a96a <_start+0x3cc8>
   17732:	3eda4503          	lbu	a0,1005(s4)
   17736:	3eea4583          	lbu	a1,1006(s4)
   1773a:	3efa4603          	lbu	a2,1007(s4)
   1773e:	3f0a2683          	lw	a3,1008(s4)
   17742:	3f4a2703          	lw	a4,1012(s4)
   17746:	3f8a2783          	lw	a5,1016(s4)
   1774a:	3fca2483          	lw	s1,1020(s4)
   1774e:	400a2403          	lw	s0,1024(s4)
   17752:	38ea2823          	sw	a4,912(s4)
   17756:	38fa2a23          	sw	a5,916(s4)
   1775a:	389a2c23          	sw	s1,920(s4)
   1775e:	388a2e23          	sw	s0,924(s4)
   17762:	404a2703          	lw	a4,1028(s4)
   17766:	408a1783          	lh	a5,1032(s4)
   1776a:	40aa4483          	lbu	s1,1034(s4)
   1776e:	05a2                	slli	a1,a1,0x8
   17770:	3aea2023          	sw	a4,928(s4)
   17774:	3afa1223          	sh	a5,932(s4)
   17778:	3a9a0323          	sb	s1,934(s4)
   1777c:	0186d713          	srli	a4,a3,0x18
   17780:	8d4d                	or	a0,a0,a1
   17782:	0106d593          	srli	a1,a3,0x10
   17786:	1eb107a3          	sb	a1,495(sp)
   1778a:	1ee10823          	sb	a4,496(sp)
   1778e:	0086d593          	srli	a1,a3,0x8
   17792:	1ea11523          	sh	a0,490(sp)
   17796:	1ec10623          	sb	a2,492(sp)
   1779a:	1ed106a3          	sb	a3,493(sp)
   1779e:	1eb10723          	sb	a1,494(sp)
   177a2:	1f110513          	addi	a0,sp,497
   177a6:	6585                	lui	a1,0x1
   177a8:	32058593          	addi	a1,a1,800 # 1320 <.Lline_table_start1+0x10f5>
   177ac:	958a                	add	a1,a1,sp
   177ae:	465d                	li	a2,23
   177b0:	00003097          	auipc	ra,0x3
   177b4:	7c2080e7          	jalr	1986(ra) # 1af72 <memcpy>
   177b8:	6505                	lui	a0,0x1
   177ba:	37c50513          	addi	a0,a0,892 # 137c <.Lline_table_start1+0x1151>
   177be:	950a                	add	a0,a0,sp
   177c0:	1ea10593          	addi	a1,sp,490
   177c4:	ffffb097          	auipc	ra,0xffffb
   177c8:	4c0080e7          	jalr	1216(ra) # 12c84 <_ZN20complex_full_dynamic3app17h52fb646156ccc0a4E>
   177cc:	3eca4503          	lbu	a0,1004(s4)
   177d0:	c119                	beqz	a0,177d6 <_start+0xb34>
   177d2:	1980306f          	j	1a96a <_start+0x3cc8>
   177d6:	3eea4503          	lbu	a0,1006(s4)
   177da:	3eda4583          	lbu	a1,1005(s4)
   177de:	3efa4603          	lbu	a2,1007(s4)
   177e2:	3f0a2403          	lw	s0,1008(s4)
   177e6:	0522                	slli	a0,a0,0x8
   177e8:	8d4d                	or	a0,a0,a1
   177ea:	20a11423          	sh	a0,520(sp)
   177ee:	20c10523          	sb	a2,522(sp)
   177f2:	6505                	lui	a0,0x1
   177f4:	38450513          	addi	a0,a0,900 # 1384 <.Lline_table_start1+0x1159>
   177f8:	00a105b3          	add	a1,sp,a0
   177fc:	6505                	lui	a0,0x1
   177fe:	32050513          	addi	a0,a0,800 # 1320 <.Lline_table_start1+0x10f5>
   17802:	950a                	add	a0,a0,sp
   17804:	02500613          	li	a2,37
   17808:	00003097          	auipc	ra,0x3
   1780c:	76a080e7          	jalr	1898(ra) # 1af72 <memcpy>
   17810:	01845513          	srli	a0,s0,0x18
   17814:	01045593          	srli	a1,s0,0x10
   17818:	00845613          	srli	a2,s0,0x8
   1781c:	208105a3          	sb	s0,523(sp)
   17820:	20c10623          	sb	a2,524(sp)
   17824:	20b106a3          	sb	a1,525(sp)
   17828:	20a10723          	sb	a0,526(sp)
   1782c:	20f10513          	addi	a0,sp,527
   17830:	6585                	lui	a1,0x1
   17832:	32058593          	addi	a1,a1,800 # 1320 <.Lline_table_start1+0x10f5>
   17836:	958a                	add	a1,a1,sp
   17838:	02500613          	li	a2,37
   1783c:	00003097          	auipc	ra,0x3
   17840:	736080e7          	jalr	1846(ra) # 1af72 <memcpy>
   17844:	6505                	lui	a0,0x1
   17846:	37c50513          	addi	a0,a0,892 # 137c <.Lline_table_start1+0x1151>
   1784a:	950a                	add	a0,a0,sp
   1784c:	042c                	addi	a1,sp,520
   1784e:	ffffb097          	auipc	ra,0xffffb
   17852:	530080e7          	jalr	1328(ra) # 12d7e <_ZN20complex_full_dynamic3app17h530e953175d44e76E>
   17856:	3eca4503          	lbu	a0,1004(s4)
   1785a:	c119                	beqz	a0,17860 <_start+0xbbe>
   1785c:	10e0306f          	j	1a96a <_start+0x3cc8>
   17860:	3eda4503          	lbu	a0,1005(s4)
   17864:	3eea4583          	lbu	a1,1006(s4)
   17868:	3efa4603          	lbu	a2,1007(s4)
   1786c:	3f0a2683          	lw	a3,1008(s4)
   17870:	3f4a2703          	lw	a4,1012(s4)
   17874:	3f8a2783          	lw	a5,1016(s4)
   17878:	3fca2483          	lw	s1,1020(s4)
   1787c:	400a2403          	lw	s0,1024(s4)
   17880:	38ea2823          	sw	a4,912(s4)
   17884:	38fa2a23          	sw	a5,916(s4)
   17888:	389a2c23          	sw	s1,920(s4)
   1788c:	388a2e23          	sw	s0,924(s4)
   17890:	404a2703          	lw	a4,1028(s4)
   17894:	408a2783          	lw	a5,1032(s4)
   17898:	40ca2483          	lw	s1,1036(s4)
   1789c:	410a1403          	lh	s0,1040(s4)
   178a0:	05a2                	slli	a1,a1,0x8
   178a2:	3aea2023          	sw	a4,928(s4)
   178a6:	3afa2223          	sw	a5,932(s4)
   178aa:	3a9a2423          	sw	s1,936(s4)
   178ae:	3a8a1623          	sh	s0,940(s4)
   178b2:	0186d713          	srli	a4,a3,0x18
   178b6:	8d4d                	or	a0,a0,a1
   178b8:	0106d593          	srli	a1,a3,0x10
   178bc:	22b10ca3          	sb	a1,569(sp)
   178c0:	22e10d23          	sb	a4,570(sp)
   178c4:	0086d593          	srli	a1,a3,0x8
   178c8:	22a11a23          	sh	a0,564(sp)
   178cc:	22c10b23          	sb	a2,566(sp)
   178d0:	22d10ba3          	sb	a3,567(sp)
   178d4:	22b10c23          	sb	a1,568(sp)
   178d8:	23b10513          	addi	a0,sp,571
   178dc:	6585                	lui	a1,0x1
   178de:	32058593          	addi	a1,a1,800 # 1320 <.Lline_table_start1+0x10f5>
   178e2:	958a                	add	a1,a1,sp
   178e4:	4679                	li	a2,30
   178e6:	00003097          	auipc	ra,0x3
   178ea:	68c080e7          	jalr	1676(ra) # 1af72 <memcpy>
   178ee:	6505                	lui	a0,0x1
   178f0:	37c50513          	addi	a0,a0,892 # 137c <.Lline_table_start1+0x1151>
   178f4:	950a                	add	a0,a0,sp
   178f6:	1c4c                	addi	a1,sp,564
   178f8:	ffffe097          	auipc	ra,0xffffe
   178fc:	860080e7          	jalr	-1952(ra) # 15158 <_ZN20complex_full_dynamic3app17hb3cd00678aac42d6E>
   17900:	3eca4503          	lbu	a0,1004(s4)
   17904:	c119                	beqz	a0,1790a <_start+0xc68>
   17906:	0640306f          	j	1a96a <_start+0x3cc8>
   1790a:	3eda4503          	lbu	a0,1005(s4)
   1790e:	3eea4583          	lbu	a1,1006(s4)
   17912:	3efa4803          	lbu	a6,1007(s4)
   17916:	3f0a2683          	lw	a3,1008(s4)
   1791a:	3f4a2703          	lw	a4,1012(s4)
   1791e:	3f8a2783          	lw	a5,1016(s4)
   17922:	3fca2483          	lw	s1,1020(s4)
   17926:	400a2403          	lw	s0,1024(s4)
   1792a:	404a4603          	lbu	a2,1028(s4)
   1792e:	38ea2823          	sw	a4,912(s4)
   17932:	38fa2a23          	sw	a5,916(s4)
   17936:	389a2c23          	sw	s1,920(s4)
   1793a:	388a2e23          	sw	s0,924(s4)
   1793e:	05a2                	slli	a1,a1,0x8
   17940:	3aca0023          	sb	a2,928(s4)
   17944:	0186d613          	srli	a2,a3,0x18
   17948:	8d4d                	or	a0,a0,a1
   1794a:	0106d593          	srli	a1,a3,0x10
   1794e:	24b10fa3          	sb	a1,607(sp)
   17952:	26c10023          	sb	a2,608(sp)
   17956:	0086d593          	srli	a1,a3,0x8
   1795a:	24a11d23          	sh	a0,602(sp)
   1795e:	25010e23          	sb	a6,604(sp)
   17962:	24d10ea3          	sb	a3,605(sp)
   17966:	24b10f23          	sb	a1,606(sp)
   1796a:	26110513          	addi	a0,sp,609
   1796e:	6585                	lui	a1,0x1
   17970:	32058593          	addi	a1,a1,800 # 1320 <.Lline_table_start1+0x10f5>
   17974:	958a                	add	a1,a1,sp
   17976:	4645                	li	a2,17
   17978:	00003097          	auipc	ra,0x3
   1797c:	5fa080e7          	jalr	1530(ra) # 1af72 <memcpy>
   17980:	6505                	lui	a0,0x1
   17982:	37c50513          	addi	a0,a0,892 # 137c <.Lline_table_start1+0x1151>
   17986:	950a                	add	a0,a0,sp
   17988:	25a10593          	addi	a1,sp,602
   1798c:	ffffc097          	auipc	ra,0xffffc
   17990:	9ce080e7          	jalr	-1586(ra) # 1335a <_ZN20complex_full_dynamic3app17h6f493d0b4548bb99E>
   17994:	3eca4503          	lbu	a0,1004(s4)
   17998:	c119                	beqz	a0,1799e <_start+0xcfc>
   1799a:	7d10206f          	j	1a96a <_start+0x3cc8>
   1799e:	3eea4503          	lbu	a0,1006(s4)
   179a2:	3eda4583          	lbu	a1,1005(s4)
   179a6:	3efa4603          	lbu	a2,1007(s4)
   179aa:	3f0a2403          	lw	s0,1008(s4)
   179ae:	0522                	slli	a0,a0,0x8
   179b0:	8d4d                	or	a0,a0,a1
   179b2:	26a11923          	sh	a0,626(sp)
   179b6:	26c10a23          	sb	a2,628(sp)
   179ba:	6505                	lui	a0,0x1
   179bc:	38450513          	addi	a0,a0,900 # 1384 <.Lline_table_start1+0x1159>
   179c0:	00a105b3          	add	a1,sp,a0
   179c4:	6505                	lui	a0,0x1
   179c6:	32050513          	addi	a0,a0,800 # 1320 <.Lline_table_start1+0x10f5>
   179ca:	950a                	add	a0,a0,sp
   179cc:	02f00613          	li	a2,47
   179d0:	00003097          	auipc	ra,0x3
   179d4:	5a2080e7          	jalr	1442(ra) # 1af72 <memcpy>
   179d8:	01845513          	srli	a0,s0,0x18
   179dc:	01045593          	srli	a1,s0,0x10
   179e0:	00845613          	srli	a2,s0,0x8
   179e4:	26810aa3          	sb	s0,629(sp)
   179e8:	26c10b23          	sb	a2,630(sp)
   179ec:	26b10ba3          	sb	a1,631(sp)
   179f0:	26a10c23          	sb	a0,632(sp)
   179f4:	27910513          	addi	a0,sp,633
   179f8:	6585                	lui	a1,0x1
   179fa:	32058593          	addi	a1,a1,800 # 1320 <.Lline_table_start1+0x10f5>
   179fe:	958a                	add	a1,a1,sp
   17a00:	02f00613          	li	a2,47
   17a04:	00003097          	auipc	ra,0x3
   17a08:	56e080e7          	jalr	1390(ra) # 1af72 <memcpy>
   17a0c:	6505                	lui	a0,0x1
   17a0e:	37c50513          	addi	a0,a0,892 # 137c <.Lline_table_start1+0x1151>
   17a12:	950a                	add	a0,a0,sp
   17a14:	27210593          	addi	a1,sp,626
   17a18:	ffffa097          	auipc	ra,0xffffa
   17a1c:	2d6080e7          	jalr	726(ra) # 11cee <_ZN20complex_full_dynamic3app17h2837b798ac7bba3dE>
   17a20:	3eca4503          	lbu	a0,1004(s4)
   17a24:	c119                	beqz	a0,17a2a <_start+0xd88>
   17a26:	7450206f          	j	1a96a <_start+0x3cc8>
   17a2a:	3eea4503          	lbu	a0,1006(s4)
   17a2e:	3eda4583          	lbu	a1,1005(s4)
   17a32:	3efa4603          	lbu	a2,1007(s4)
   17a36:	3f0a2403          	lw	s0,1008(s4)
   17a3a:	0522                	slli	a0,a0,0x8
   17a3c:	8d4d                	or	a0,a0,a1
   17a3e:	2aa11423          	sh	a0,680(sp)
   17a42:	2ac10523          	sb	a2,682(sp)
   17a46:	6505                	lui	a0,0x1
   17a48:	38450513          	addi	a0,a0,900 # 1384 <.Lline_table_start1+0x1159>
   17a4c:	00a105b3          	add	a1,sp,a0
   17a50:	6505                	lui	a0,0x1
   17a52:	32050513          	addi	a0,a0,800 # 1320 <.Lline_table_start1+0x10f5>
   17a56:	950a                	add	a0,a0,sp
   17a58:	02d00613          	li	a2,45
   17a5c:	00003097          	auipc	ra,0x3
   17a60:	516080e7          	jalr	1302(ra) # 1af72 <memcpy>
   17a64:	01845513          	srli	a0,s0,0x18
   17a68:	01045593          	srli	a1,s0,0x10
   17a6c:	00845613          	srli	a2,s0,0x8
   17a70:	2a8105a3          	sb	s0,683(sp)
   17a74:	2ac10623          	sb	a2,684(sp)
   17a78:	2ab106a3          	sb	a1,685(sp)
   17a7c:	2aa10723          	sb	a0,686(sp)
   17a80:	2af10513          	addi	a0,sp,687
   17a84:	6585                	lui	a1,0x1
   17a86:	32058593          	addi	a1,a1,800 # 1320 <.Lline_table_start1+0x10f5>
   17a8a:	958a                	add	a1,a1,sp
   17a8c:	02d00613          	li	a2,45
   17a90:	00003097          	auipc	ra,0x3
   17a94:	4e2080e7          	jalr	1250(ra) # 1af72 <memcpy>
   17a98:	6505                	lui	a0,0x1
   17a9a:	37c50513          	addi	a0,a0,892 # 137c <.Lline_table_start1+0x1151>
   17a9e:	950a                	add	a0,a0,sp
   17aa0:	152c                	addi	a1,sp,680
   17aa2:	ffffd097          	auipc	ra,0xffffd
   17aa6:	7aa080e7          	jalr	1962(ra) # 1524c <_ZN20complex_full_dynamic3app17hb57728f4b8b9d120E>
   17aaa:	3eca4503          	lbu	a0,1004(s4)
   17aae:	c119                	beqz	a0,17ab4 <_start+0xe12>
   17ab0:	6bb0206f          	j	1a96a <_start+0x3cc8>
   17ab4:	3eea4503          	lbu	a0,1006(s4)
   17ab8:	3eda4583          	lbu	a1,1005(s4)
   17abc:	3efa4603          	lbu	a2,1007(s4)
   17ac0:	3f0a2403          	lw	s0,1008(s4)
   17ac4:	0522                	slli	a0,a0,0x8
   17ac6:	8d4d                	or	a0,a0,a1
   17ac8:	2ca11e23          	sh	a0,732(sp)
   17acc:	2cc10f23          	sb	a2,734(sp)
   17ad0:	6505                	lui	a0,0x1
   17ad2:	38450513          	addi	a0,a0,900 # 1384 <.Lline_table_start1+0x1159>
   17ad6:	00a105b3          	add	a1,sp,a0
   17ada:	6505                	lui	a0,0x1
   17adc:	32050513          	addi	a0,a0,800 # 1320 <.Lline_table_start1+0x10f5>
   17ae0:	950a                	add	a0,a0,sp
   17ae2:	02700613          	li	a2,39
   17ae6:	00003097          	auipc	ra,0x3
   17aea:	48c080e7          	jalr	1164(ra) # 1af72 <memcpy>
   17aee:	01845513          	srli	a0,s0,0x18
   17af2:	01045593          	srli	a1,s0,0x10
   17af6:	00845613          	srli	a2,s0,0x8
   17afa:	2c810fa3          	sb	s0,735(sp)
   17afe:	2ec10023          	sb	a2,736(sp)
   17b02:	2eb100a3          	sb	a1,737(sp)
   17b06:	2ea10123          	sb	a0,738(sp)
   17b0a:	2e310513          	addi	a0,sp,739
   17b0e:	6585                	lui	a1,0x1
   17b10:	32058593          	addi	a1,a1,800 # 1320 <.Lline_table_start1+0x10f5>
   17b14:	958a                	add	a1,a1,sp
   17b16:	02700613          	li	a2,39
   17b1a:	00003097          	auipc	ra,0x3
   17b1e:	458080e7          	jalr	1112(ra) # 1af72 <memcpy>
   17b22:	6505                	lui	a0,0x1
   17b24:	37c50513          	addi	a0,a0,892 # 137c <.Lline_table_start1+0x1151>
   17b28:	950a                	add	a0,a0,sp
   17b2a:	0dec                	addi	a1,sp,732
   17b2c:	ffffd097          	auipc	ra,0xffffd
   17b30:	f66080e7          	jalr	-154(ra) # 14a92 <_ZN20complex_full_dynamic3app17hadc2c68a00ebc07fE>
   17b34:	3eca4503          	lbu	a0,1004(s4)
   17b38:	c119                	beqz	a0,17b3e <_start+0xe9c>
   17b3a:	6310206f          	j	1a96a <_start+0x3cc8>
   17b3e:	3eea4503          	lbu	a0,1006(s4)
   17b42:	3eda4583          	lbu	a1,1005(s4)
   17b46:	3efa4603          	lbu	a2,1007(s4)
   17b4a:	3f0a2403          	lw	s0,1008(s4)
   17b4e:	0522                	slli	a0,a0,0x8
   17b50:	8d4d                	or	a0,a0,a1
   17b52:	30a11523          	sh	a0,778(sp)
   17b56:	30c10623          	sb	a2,780(sp)
   17b5a:	6505                	lui	a0,0x1
   17b5c:	38450513          	addi	a0,a0,900 # 1384 <.Lline_table_start1+0x1159>
   17b60:	00a105b3          	add	a1,sp,a0
   17b64:	6505                	lui	a0,0x1
   17b66:	32050513          	addi	a0,a0,800 # 1320 <.Lline_table_start1+0x10f5>
   17b6a:	950a                	add	a0,a0,sp
   17b6c:	03100613          	li	a2,49
   17b70:	00003097          	auipc	ra,0x3
   17b74:	402080e7          	jalr	1026(ra) # 1af72 <memcpy>
   17b78:	01845513          	srli	a0,s0,0x18
   17b7c:	01045593          	srli	a1,s0,0x10
   17b80:	00845613          	srli	a2,s0,0x8
   17b84:	308106a3          	sb	s0,781(sp)
   17b88:	30c10723          	sb	a2,782(sp)
   17b8c:	30b107a3          	sb	a1,783(sp)
   17b90:	30a10823          	sb	a0,784(sp)
   17b94:	31110513          	addi	a0,sp,785
   17b98:	6585                	lui	a1,0x1
   17b9a:	32058593          	addi	a1,a1,800 # 1320 <.Lline_table_start1+0x10f5>
   17b9e:	958a                	add	a1,a1,sp
   17ba0:	03100613          	li	a2,49
   17ba4:	00003097          	auipc	ra,0x3
   17ba8:	3ce080e7          	jalr	974(ra) # 1af72 <memcpy>
   17bac:	6505                	lui	a0,0x1
   17bae:	37c50513          	addi	a0,a0,892 # 137c <.Lline_table_start1+0x1151>
   17bb2:	950a                	add	a0,a0,sp
   17bb4:	30a10593          	addi	a1,sp,778
   17bb8:	ffffa097          	auipc	ra,0xffffa
   17bbc:	522080e7          	jalr	1314(ra) # 120da <_ZN20complex_full_dynamic3app17h36c5ac1e257434faE>
   17bc0:	3eca4503          	lbu	a0,1004(s4)
   17bc4:	c119                	beqz	a0,17bca <_start+0xf28>
   17bc6:	5a50206f          	j	1a96a <_start+0x3cc8>
   17bca:	3eea4503          	lbu	a0,1006(s4)
   17bce:	3eda4583          	lbu	a1,1005(s4)
   17bd2:	3efa4603          	lbu	a2,1007(s4)
   17bd6:	3f0a2403          	lw	s0,1008(s4)
   17bda:	0522                	slli	a0,a0,0x8
   17bdc:	8d4d                	or	a0,a0,a1
   17bde:	34a11123          	sh	a0,834(sp)
   17be2:	34c10223          	sb	a2,836(sp)
   17be6:	6505                	lui	a0,0x1
   17be8:	38450513          	addi	a0,a0,900 # 1384 <.Lline_table_start1+0x1159>
   17bec:	00a105b3          	add	a1,sp,a0
   17bf0:	6505                	lui	a0,0x1
   17bf2:	32050513          	addi	a0,a0,800 # 1320 <.Lline_table_start1+0x10f5>
   17bf6:	950a                	add	a0,a0,sp
   17bf8:	02d00613          	li	a2,45
   17bfc:	00003097          	auipc	ra,0x3
   17c00:	376080e7          	jalr	886(ra) # 1af72 <memcpy>
   17c04:	01845513          	srli	a0,s0,0x18
   17c08:	01045593          	srli	a1,s0,0x10
   17c0c:	00845613          	srli	a2,s0,0x8
   17c10:	348102a3          	sb	s0,837(sp)
   17c14:	34c10323          	sb	a2,838(sp)
   17c18:	34b103a3          	sb	a1,839(sp)
   17c1c:	34a10423          	sb	a0,840(sp)
   17c20:	34910513          	addi	a0,sp,841
   17c24:	6585                	lui	a1,0x1
   17c26:	32058593          	addi	a1,a1,800 # 1320 <.Lline_table_start1+0x10f5>
   17c2a:	958a                	add	a1,a1,sp
   17c2c:	02d00613          	li	a2,45
   17c30:	00003097          	auipc	ra,0x3
   17c34:	342080e7          	jalr	834(ra) # 1af72 <memcpy>
   17c38:	6505                	lui	a0,0x1
   17c3a:	37c50513          	addi	a0,a0,892 # 137c <.Lline_table_start1+0x1151>
   17c3e:	950a                	add	a0,a0,sp
   17c40:	34210593          	addi	a1,sp,834
   17c44:	ffffb097          	auipc	ra,0xffffb
   17c48:	a74080e7          	jalr	-1420(ra) # 126b8 <_ZN20complex_full_dynamic3app17h4e00a0def577c211E>
   17c4c:	3eca4503          	lbu	a0,1004(s4)
   17c50:	c119                	beqz	a0,17c56 <_start+0xfb4>
   17c52:	5190206f          	j	1a96a <_start+0x3cc8>
   17c56:	3eda4503          	lbu	a0,1005(s4)
   17c5a:	3eea4583          	lbu	a1,1006(s4)
   17c5e:	3f4a2603          	lw	a2,1012(s4)
   17c62:	3f8a2683          	lw	a3,1016(s4)
   17c66:	3fca2703          	lw	a4,1020(s4)
   17c6a:	400a2783          	lw	a5,1024(s4)
   17c6e:	404a1483          	lh	s1,1028(s4)
   17c72:	406a4403          	lbu	s0,1030(s4)
   17c76:	38ca2823          	sw	a2,912(s4)
   17c7a:	38da2a23          	sw	a3,916(s4)
   17c7e:	38ea2c23          	sw	a4,920(s4)
   17c82:	38fa2e23          	sw	a5,924(s4)
   17c86:	3efa4603          	lbu	a2,1007(s4)
   17c8a:	3f0a2683          	lw	a3,1008(s4)
   17c8e:	05a2                	slli	a1,a1,0x8
   17c90:	3a9a1023          	sh	s1,928(s4)
   17c94:	3a8a0123          	sb	s0,930(s4)
   17c98:	0186d713          	srli	a4,a3,0x18
   17c9c:	8d4d                	or	a0,a0,a1
   17c9e:	0106d593          	srli	a1,a3,0x10
   17ca2:	36b10da3          	sb	a1,891(sp)
   17ca6:	36e10e23          	sb	a4,892(sp)
   17caa:	0086d593          	srli	a1,a3,0x8
   17cae:	36a11b23          	sh	a0,886(sp)
   17cb2:	36c10c23          	sb	a2,888(sp)
   17cb6:	36d10ca3          	sb	a3,889(sp)
   17cba:	36b10d23          	sb	a1,890(sp)
   17cbe:	37d10513          	addi	a0,sp,893
   17cc2:	6585                	lui	a1,0x1
   17cc4:	32058593          	addi	a1,a1,800 # 1320 <.Lline_table_start1+0x10f5>
   17cc8:	958a                	add	a1,a1,sp
   17cca:	464d                	li	a2,19
   17ccc:	00003097          	auipc	ra,0x3
   17cd0:	2a6080e7          	jalr	678(ra) # 1af72 <memcpy>
   17cd4:	6505                	lui	a0,0x1
   17cd6:	37c50513          	addi	a0,a0,892 # 137c <.Lline_table_start1+0x1151>
   17cda:	950a                	add	a0,a0,sp
   17cdc:	37610593          	addi	a1,sp,886
   17ce0:	ffffc097          	auipc	ra,0xffffc
   17ce4:	120080e7          	jalr	288(ra) # 13e00 <_ZN20complex_full_dynamic3app17h95845db8fc998ad3E>
   17ce8:	3eca4503          	lbu	a0,1004(s4)
   17cec:	c119                	beqz	a0,17cf2 <_start+0x1050>
   17cee:	47d0206f          	j	1a96a <_start+0x3cc8>
   17cf2:	3eea4503          	lbu	a0,1006(s4)
   17cf6:	3eda4583          	lbu	a1,1005(s4)
   17cfa:	3efa4603          	lbu	a2,1007(s4)
   17cfe:	3f0a2403          	lw	s0,1008(s4)
   17d02:	0522                	slli	a0,a0,0x8
   17d04:	8d4d                	or	a0,a0,a1
   17d06:	38a11823          	sh	a0,912(sp)
   17d0a:	38c10923          	sb	a2,914(sp)
   17d0e:	6505                	lui	a0,0x1
   17d10:	38450513          	addi	a0,a0,900 # 1384 <.Lline_table_start1+0x1159>
   17d14:	00a105b3          	add	a1,sp,a0
   17d18:	6505                	lui	a0,0x1
   17d1a:	32050513          	addi	a0,a0,800 # 1320 <.Lline_table_start1+0x10f5>
   17d1e:	950a                	add	a0,a0,sp
   17d20:	04900613          	li	a2,73
   17d24:	00003097          	auipc	ra,0x3
   17d28:	24e080e7          	jalr	590(ra) # 1af72 <memcpy>
   17d2c:	01845513          	srli	a0,s0,0x18
   17d30:	01045593          	srli	a1,s0,0x10
   17d34:	00845613          	srli	a2,s0,0x8
   17d38:	388109a3          	sb	s0,915(sp)
   17d3c:	38c10a23          	sb	a2,916(sp)
   17d40:	38b10aa3          	sb	a1,917(sp)
   17d44:	38a10b23          	sb	a0,918(sp)
   17d48:	39710513          	addi	a0,sp,919
   17d4c:	6585                	lui	a1,0x1
   17d4e:	32058593          	addi	a1,a1,800 # 1320 <.Lline_table_start1+0x10f5>
   17d52:	958a                	add	a1,a1,sp
   17d54:	04900613          	li	a2,73
   17d58:	00003097          	auipc	ra,0x3
   17d5c:	21a080e7          	jalr	538(ra) # 1af72 <memcpy>
   17d60:	6505                	lui	a0,0x1
   17d62:	37c50513          	addi	a0,a0,892 # 137c <.Lline_table_start1+0x1151>
   17d66:	950a                	add	a0,a0,sp
   17d68:	0f0c                	addi	a1,sp,912
   17d6a:	ffffe097          	auipc	ra,0xffffe
   17d6e:	9cc080e7          	jalr	-1588(ra) # 15736 <_ZN20complex_full_dynamic3app17hc74248d9a8bce664E>
   17d72:	3eca4503          	lbu	a0,1004(s4)
   17d76:	c119                	beqz	a0,17d7c <_start+0x10da>
   17d78:	3f30206f          	j	1a96a <_start+0x3cc8>
   17d7c:	3eea4503          	lbu	a0,1006(s4)
   17d80:	3eda4583          	lbu	a1,1005(s4)
   17d84:	3efa4603          	lbu	a2,1007(s4)
   17d88:	3f0a2403          	lw	s0,1008(s4)
   17d8c:	0522                	slli	a0,a0,0x8
   17d8e:	8d4d                	or	a0,a0,a1
   17d90:	3ea11023          	sh	a0,992(sp)
   17d94:	3ec10123          	sb	a2,994(sp)
   17d98:	6505                	lui	a0,0x1
   17d9a:	38450513          	addi	a0,a0,900 # 1384 <.Lline_table_start1+0x1159>
   17d9e:	00a105b3          	add	a1,sp,a0
   17da2:	6505                	lui	a0,0x1
   17da4:	32050513          	addi	a0,a0,800 # 1320 <.Lline_table_start1+0x10f5>
   17da8:	950a                	add	a0,a0,sp
   17daa:	03500613          	li	a2,53
   17dae:	00003097          	auipc	ra,0x3
   17db2:	1c4080e7          	jalr	452(ra) # 1af72 <memcpy>
   17db6:	01845513          	srli	a0,s0,0x18
   17dba:	01045593          	srli	a1,s0,0x10
   17dbe:	00845613          	srli	a2,s0,0x8
   17dc2:	3e8101a3          	sb	s0,995(sp)
   17dc6:	3ec10223          	sb	a2,996(sp)
   17dca:	3eb102a3          	sb	a1,997(sp)
   17dce:	3ea10323          	sb	a0,998(sp)
   17dd2:	3e710513          	addi	a0,sp,999
   17dd6:	6585                	lui	a1,0x1
   17dd8:	32058593          	addi	a1,a1,800 # 1320 <.Lline_table_start1+0x10f5>
   17ddc:	958a                	add	a1,a1,sp
   17dde:	03500613          	li	a2,53
   17de2:	00003097          	auipc	ra,0x3
   17de6:	190080e7          	jalr	400(ra) # 1af72 <memcpy>
   17dea:	6505                	lui	a0,0x1
   17dec:	37c50513          	addi	a0,a0,892 # 137c <.Lline_table_start1+0x1151>
   17df0:	950a                	add	a0,a0,sp
   17df2:	178c                	addi	a1,sp,992
   17df4:	ffff9097          	auipc	ra,0xffff9
   17df8:	43a080e7          	jalr	1082(ra) # 1122e <_ZN20complex_full_dynamic3app17h02240743a09cf735E>
   17dfc:	3eca4503          	lbu	a0,1004(s4)
   17e00:	c119                	beqz	a0,17e06 <_start+0x1164>
   17e02:	3690206f          	j	1a96a <_start+0x3cc8>
   17e06:	3eea4503          	lbu	a0,1006(s4)
   17e0a:	3eda4583          	lbu	a1,1005(s4)
   17e0e:	3efa4603          	lbu	a2,1007(s4)
   17e12:	3f0a2403          	lw	s0,1008(s4)
   17e16:	0522                	slli	a0,a0,0x8
   17e18:	8d4d                	or	a0,a0,a1
   17e1a:	40a11e23          	sh	a0,1052(sp)
   17e1e:	40c10f23          	sb	a2,1054(sp)
   17e22:	6505                	lui	a0,0x1
   17e24:	38450513          	addi	a0,a0,900 # 1384 <.Lline_table_start1+0x1159>
   17e28:	00a105b3          	add	a1,sp,a0
   17e2c:	6505                	lui	a0,0x1
   17e2e:	32050513          	addi	a0,a0,800 # 1320 <.Lline_table_start1+0x10f5>
   17e32:	950a                	add	a0,a0,sp
   17e34:	02b00613          	li	a2,43
   17e38:	00003097          	auipc	ra,0x3
   17e3c:	13a080e7          	jalr	314(ra) # 1af72 <memcpy>
   17e40:	01845513          	srli	a0,s0,0x18
   17e44:	01045593          	srli	a1,s0,0x10
   17e48:	00845613          	srli	a2,s0,0x8
   17e4c:	40810fa3          	sb	s0,1055(sp)
   17e50:	42c10023          	sb	a2,1056(sp)
   17e54:	42b100a3          	sb	a1,1057(sp)
   17e58:	42a10123          	sb	a0,1058(sp)
   17e5c:	42310513          	addi	a0,sp,1059
   17e60:	6585                	lui	a1,0x1
   17e62:	32058593          	addi	a1,a1,800 # 1320 <.Lline_table_start1+0x10f5>
   17e66:	958a                	add	a1,a1,sp
   17e68:	02b00613          	li	a2,43
   17e6c:	00003097          	auipc	ra,0x3
   17e70:	106080e7          	jalr	262(ra) # 1af72 <memcpy>
   17e74:	6505                	lui	a0,0x1
   17e76:	37c50513          	addi	a0,a0,892 # 137c <.Lline_table_start1+0x1151>
   17e7a:	950a                	add	a0,a0,sp
   17e7c:	41c10593          	addi	a1,sp,1052
   17e80:	ffffb097          	auipc	ra,0xffffb
   17e84:	0f0080e7          	jalr	240(ra) # 12f70 <_ZN20complex_full_dynamic3app17h5414b8c99dfc45f3E>
   17e88:	3eca4503          	lbu	a0,1004(s4)
   17e8c:	c119                	beqz	a0,17e92 <_start+0x11f0>
   17e8e:	2dd0206f          	j	1a96a <_start+0x3cc8>
   17e92:	3eea4503          	lbu	a0,1006(s4)
   17e96:	3eda4583          	lbu	a1,1005(s4)
   17e9a:	3efa4603          	lbu	a2,1007(s4)
   17e9e:	3f0a2403          	lw	s0,1008(s4)
   17ea2:	0522                	slli	a0,a0,0x8
   17ea4:	8d4d                	or	a0,a0,a1
   17ea6:	44a11723          	sh	a0,1102(sp)
   17eaa:	44c10823          	sb	a2,1104(sp)
   17eae:	6505                	lui	a0,0x1
   17eb0:	38450513          	addi	a0,a0,900 # 1384 <.Lline_table_start1+0x1159>
   17eb4:	00a105b3          	add	a1,sp,a0
   17eb8:	6505                	lui	a0,0x1
   17eba:	32050513          	addi	a0,a0,800 # 1320 <.Lline_table_start1+0x10f5>
   17ebe:	950a                	add	a0,a0,sp
   17ec0:	02b00613          	li	a2,43
   17ec4:	00003097          	auipc	ra,0x3
   17ec8:	0ae080e7          	jalr	174(ra) # 1af72 <memcpy>
   17ecc:	01845513          	srli	a0,s0,0x18
   17ed0:	01045593          	srli	a1,s0,0x10
   17ed4:	00845613          	srli	a2,s0,0x8
   17ed8:	448108a3          	sb	s0,1105(sp)
   17edc:	44c10923          	sb	a2,1106(sp)
   17ee0:	44b109a3          	sb	a1,1107(sp)
   17ee4:	44a10a23          	sb	a0,1108(sp)
   17ee8:	45510513          	addi	a0,sp,1109
   17eec:	6585                	lui	a1,0x1
   17eee:	32058593          	addi	a1,a1,800 # 1320 <.Lline_table_start1+0x10f5>
   17ef2:	958a                	add	a1,a1,sp
   17ef4:	02b00613          	li	a2,43
   17ef8:	00003097          	auipc	ra,0x3
   17efc:	07a080e7          	jalr	122(ra) # 1af72 <memcpy>
   17f00:	6505                	lui	a0,0x1
   17f02:	37c50513          	addi	a0,a0,892 # 137c <.Lline_table_start1+0x1151>
   17f06:	950a                	add	a0,a0,sp
   17f08:	44e10593          	addi	a1,sp,1102
   17f0c:	ffffc097          	auipc	ra,0xffffc
   17f10:	b1e080e7          	jalr	-1250(ra) # 13a2a <_ZN20complex_full_dynamic3app17h880f0183b73b3d96E>
   17f14:	3eca4503          	lbu	a0,1004(s4)
   17f18:	c119                	beqz	a0,17f1e <_start+0x127c>
   17f1a:	2510206f          	j	1a96a <_start+0x3cc8>
   17f1e:	3eda4503          	lbu	a0,1005(s4)
   17f22:	3eea4583          	lbu	a1,1006(s4)
   17f26:	3efa4603          	lbu	a2,1007(s4)
   17f2a:	3f0a2683          	lw	a3,1008(s4)
   17f2e:	3f4a2703          	lw	a4,1012(s4)
   17f32:	3f8a2783          	lw	a5,1016(s4)
   17f36:	3fca4483          	lbu	s1,1020(s4)
   17f3a:	05a2                	slli	a1,a1,0x8
   17f3c:	38ea2823          	sw	a4,912(s4)
   17f40:	38fa2a23          	sw	a5,916(s4)
   17f44:	389a0c23          	sb	s1,920(s4)
   17f48:	0186d713          	srli	a4,a3,0x18
   17f4c:	8d4d                	or	a0,a0,a1
   17f4e:	0106d593          	srli	a1,a3,0x10
   17f52:	48b102a3          	sb	a1,1157(sp)
   17f56:	48e10323          	sb	a4,1158(sp)
   17f5a:	0086d593          	srli	a1,a3,0x8
   17f5e:	48a11023          	sh	a0,1152(sp)
   17f62:	48c10123          	sb	a2,1154(sp)
   17f66:	48d101a3          	sb	a3,1155(sp)
   17f6a:	48b10223          	sb	a1,1156(sp)
   17f6e:	48710513          	addi	a0,sp,1159
   17f72:	6585                	lui	a1,0x1
   17f74:	32058593          	addi	a1,a1,800 # 1320 <.Lline_table_start1+0x10f5>
   17f78:	958a                	add	a1,a1,sp
   17f7a:	4625                	li	a2,9
   17f7c:	00003097          	auipc	ra,0x3
   17f80:	ff6080e7          	jalr	-10(ra) # 1af72 <memcpy>
   17f84:	6505                	lui	a0,0x1
   17f86:	37c50513          	addi	a0,a0,892 # 137c <.Lline_table_start1+0x1151>
   17f8a:	950a                	add	a0,a0,sp
   17f8c:	48010593          	addi	a1,sp,1152
   17f90:	ffffa097          	auipc	ra,0xffffa
   17f94:	97e080e7          	jalr	-1666(ra) # 1190e <_ZN20complex_full_dynamic3app17h15e23b606e4472daE>
   17f98:	3eca4503          	lbu	a0,1004(s4)
   17f9c:	c119                	beqz	a0,17fa2 <_start+0x1300>
   17f9e:	1cd0206f          	j	1a96a <_start+0x3cc8>
   17fa2:	3eea4503          	lbu	a0,1006(s4)
   17fa6:	3eda4583          	lbu	a1,1005(s4)
   17faa:	3efa4603          	lbu	a2,1007(s4)
   17fae:	3f0a2403          	lw	s0,1008(s4)
   17fb2:	0522                	slli	a0,a0,0x8
   17fb4:	8d4d                	or	a0,a0,a1
   17fb6:	48a11823          	sh	a0,1168(sp)
   17fba:	48c10923          	sb	a2,1170(sp)
   17fbe:	6505                	lui	a0,0x1
   17fc0:	38450513          	addi	a0,a0,900 # 1384 <.Lline_table_start1+0x1159>
   17fc4:	00a105b3          	add	a1,sp,a0
   17fc8:	6505                	lui	a0,0x1
   17fca:	32050513          	addi	a0,a0,800 # 1320 <.Lline_table_start1+0x10f5>
   17fce:	950a                	add	a0,a0,sp
   17fd0:	02f00613          	li	a2,47
   17fd4:	00003097          	auipc	ra,0x3
   17fd8:	f9e080e7          	jalr	-98(ra) # 1af72 <memcpy>
   17fdc:	01845513          	srli	a0,s0,0x18
   17fe0:	01045593          	srli	a1,s0,0x10
   17fe4:	00845613          	srli	a2,s0,0x8
   17fe8:	488109a3          	sb	s0,1171(sp)
   17fec:	48c10a23          	sb	a2,1172(sp)
   17ff0:	48b10aa3          	sb	a1,1173(sp)
   17ff4:	48a10b23          	sb	a0,1174(sp)
   17ff8:	49710513          	addi	a0,sp,1175
   17ffc:	6585                	lui	a1,0x1
   17ffe:	32058593          	addi	a1,a1,800 # 1320 <.Lline_table_start1+0x10f5>
   18002:	958a                	add	a1,a1,sp
   18004:	02f00613          	li	a2,47
   18008:	00003097          	auipc	ra,0x3
   1800c:	f6a080e7          	jalr	-150(ra) # 1af72 <memcpy>
   18010:	6505                	lui	a0,0x1
   18012:	37c50513          	addi	a0,a0,892 # 137c <.Lline_table_start1+0x1151>
   18016:	950a                	add	a0,a0,sp
   18018:	49010593          	addi	a1,sp,1168
   1801c:	ffff9097          	auipc	ra,0xffff9
   18020:	504080e7          	jalr	1284(ra) # 11520 <_ZN20complex_full_dynamic3app17h0ea409ad995a6ef8E>
   18024:	3eca4503          	lbu	a0,1004(s4)
   18028:	c119                	beqz	a0,1802e <_start+0x138c>
   1802a:	1410206f          	j	1a96a <_start+0x3cc8>
   1802e:	3eda4503          	lbu	a0,1005(s4)
   18032:	3eea4583          	lbu	a1,1006(s4)
   18036:	3efa4803          	lbu	a6,1007(s4)
   1803a:	3f0a2683          	lw	a3,1008(s4)
   1803e:	3f4a2703          	lw	a4,1012(s4)
   18042:	3f8a2783          	lw	a5,1016(s4)
   18046:	05a2                	slli	a1,a1,0x8
   18048:	0186d893          	srli	a7,a3,0x18
   1804c:	0106d293          	srli	t0,a3,0x10
   18050:	0187d613          	srli	a2,a5,0x18
   18054:	0107d493          	srli	s1,a5,0x10
   18058:	0087d413          	srli	s0,a5,0x8
   1805c:	8d4d                	or	a0,a0,a1
   1805e:	01875593          	srli	a1,a4,0x18
   18062:	4c9109a3          	sb	s1,1235(sp)
   18066:	4cc10a23          	sb	a2,1236(sp)
   1806a:	01075613          	srli	a2,a4,0x10
   1806e:	4cc107a3          	sb	a2,1231(sp)
   18072:	4cb10823          	sb	a1,1232(sp)
   18076:	4cf108a3          	sb	a5,1233(sp)
   1807a:	4c810923          	sb	s0,1234(sp)
   1807e:	0086d593          	srli	a1,a3,0x8
   18082:	4ca11323          	sh	a0,1222(sp)
   18086:	4d010423          	sb	a6,1224(sp)
   1808a:	4cd104a3          	sb	a3,1225(sp)
   1808e:	4cb10523          	sb	a1,1226(sp)
   18092:	00875513          	srli	a0,a4,0x8
   18096:	4c5105a3          	sb	t0,1227(sp)
   1809a:	4d110623          	sb	a7,1228(sp)
   1809e:	4ce106a3          	sb	a4,1229(sp)
   180a2:	4ca10723          	sb	a0,1230(sp)
   180a6:	6505                	lui	a0,0x1
   180a8:	37c50513          	addi	a0,a0,892 # 137c <.Lline_table_start1+0x1151>
   180ac:	950a                	add	a0,a0,sp
   180ae:	4c610593          	addi	a1,sp,1222
   180b2:	ffffb097          	auipc	ra,0xffffb
   180b6:	790080e7          	jalr	1936(ra) # 13842 <_ZN20complex_full_dynamic3app17h864044a9fa2c46adE>
   180ba:	3eca4503          	lbu	a0,1004(s4)
   180be:	c119                	beqz	a0,180c4 <_start+0x1422>
   180c0:	0ab0206f          	j	1a96a <_start+0x3cc8>
   180c4:	3eda4503          	lbu	a0,1005(s4)
   180c8:	3eea4583          	lbu	a1,1006(s4)
   180cc:	3efa4603          	lbu	a2,1007(s4)
   180d0:	3f0a2683          	lw	a3,1008(s4)
   180d4:	3f4a2703          	lw	a4,1012(s4)
   180d8:	3f8a2783          	lw	a5,1016(s4)
   180dc:	3fca2483          	lw	s1,1020(s4)
   180e0:	05a2                	slli	a1,a1,0x8
   180e2:	38ea2823          	sw	a4,912(s4)
   180e6:	38fa2a23          	sw	a5,916(s4)
   180ea:	389a2c23          	sw	s1,920(s4)
   180ee:	0186d713          	srli	a4,a3,0x18
   180f2:	8d4d                	or	a0,a0,a1
   180f4:	0106d593          	srli	a1,a3,0x10
   180f8:	4cb10da3          	sb	a1,1243(sp)
   180fc:	4ce10e23          	sb	a4,1244(sp)
   18100:	0086d593          	srli	a1,a3,0x8
   18104:	4ca11b23          	sh	a0,1238(sp)
   18108:	4cc10c23          	sb	a2,1240(sp)
   1810c:	4cd10ca3          	sb	a3,1241(sp)
   18110:	4cb10d23          	sb	a1,1242(sp)
   18114:	4dd10513          	addi	a0,sp,1245
   18118:	6585                	lui	a1,0x1
   1811a:	32058593          	addi	a1,a1,800 # 1320 <.Lline_table_start1+0x10f5>
   1811e:	958a                	add	a1,a1,sp
   18120:	4631                	li	a2,12
   18122:	00003097          	auipc	ra,0x3
   18126:	e50080e7          	jalr	-432(ra) # 1af72 <memcpy>
   1812a:	6505                	lui	a0,0x1
   1812c:	37c50513          	addi	a0,a0,892 # 137c <.Lline_table_start1+0x1151>
   18130:	950a                	add	a0,a0,sp
   18132:	4d610593          	addi	a1,sp,1238
   18136:	ffffa097          	auipc	ra,0xffffa
   1813a:	dac080e7          	jalr	-596(ra) # 11ee2 <_ZN20complex_full_dynamic3app17h2e7e8b06e9ff505dE>
   1813e:	3eca4503          	lbu	a0,1004(s4)
   18142:	c119                	beqz	a0,18148 <_start+0x14a6>
   18144:	0270206f          	j	1a96a <_start+0x3cc8>
   18148:	3eea4503          	lbu	a0,1006(s4)
   1814c:	3eda4583          	lbu	a1,1005(s4)
   18150:	3efa4603          	lbu	a2,1007(s4)
   18154:	3f0a2403          	lw	s0,1008(s4)
   18158:	0522                	slli	a0,a0,0x8
   1815a:	8d4d                	or	a0,a0,a1
   1815c:	4ea11523          	sh	a0,1258(sp)
   18160:	4ec10623          	sb	a2,1260(sp)
   18164:	6505                	lui	a0,0x1
   18166:	38450513          	addi	a0,a0,900 # 1384 <.Lline_table_start1+0x1159>
   1816a:	00a105b3          	add	a1,sp,a0
   1816e:	6505                	lui	a0,0x1
   18170:	32050513          	addi	a0,a0,800 # 1320 <.Lline_table_start1+0x10f5>
   18174:	950a                	add	a0,a0,sp
   18176:	04e00613          	li	a2,78
   1817a:	00003097          	auipc	ra,0x3
   1817e:	df8080e7          	jalr	-520(ra) # 1af72 <memcpy>
   18182:	01845513          	srli	a0,s0,0x18
   18186:	01045593          	srli	a1,s0,0x10
   1818a:	00845613          	srli	a2,s0,0x8
   1818e:	4e8106a3          	sb	s0,1261(sp)
   18192:	4ec10723          	sb	a2,1262(sp)
   18196:	4eb107a3          	sb	a1,1263(sp)
   1819a:	4ea10823          	sb	a0,1264(sp)
   1819e:	4f110513          	addi	a0,sp,1265
   181a2:	6585                	lui	a1,0x1
   181a4:	32058593          	addi	a1,a1,800 # 1320 <.Lline_table_start1+0x10f5>
   181a8:	958a                	add	a1,a1,sp
   181aa:	04e00613          	li	a2,78
   181ae:	00003097          	auipc	ra,0x3
   181b2:	dc4080e7          	jalr	-572(ra) # 1af72 <memcpy>
   181b6:	6505                	lui	a0,0x1
   181b8:	37c50513          	addi	a0,a0,892 # 137c <.Lline_table_start1+0x1151>
   181bc:	950a                	add	a0,a0,sp
   181be:	4ea10593          	addi	a1,sp,1258
   181c2:	ffffb097          	auipc	ra,0xffffb
   181c6:	294080e7          	jalr	660(ra) # 13456 <_ZN20complex_full_dynamic3app17h71ff20f8e8cf87ddE>
   181ca:	3eca4503          	lbu	a0,1004(s4)
   181ce:	c119                	beqz	a0,181d4 <_start+0x1532>
   181d0:	79a0206f          	j	1a96a <_start+0x3cc8>
   181d4:	3eea4503          	lbu	a0,1006(s4)
   181d8:	3eda4583          	lbu	a1,1005(s4)
   181dc:	3efa4603          	lbu	a2,1007(s4)
   181e0:	3f0a2403          	lw	s0,1008(s4)
   181e4:	0522                	slli	a0,a0,0x8
   181e6:	8d4d                	or	a0,a0,a1
   181e8:	54a11023          	sh	a0,1344(sp)
   181ec:	54c10123          	sb	a2,1346(sp)
   181f0:	6505                	lui	a0,0x1
   181f2:	38450513          	addi	a0,a0,900 # 1384 <.Lline_table_start1+0x1159>
   181f6:	00a105b3          	add	a1,sp,a0
   181fa:	6505                	lui	a0,0x1
   181fc:	32050513          	addi	a0,a0,800 # 1320 <.Lline_table_start1+0x10f5>
   18200:	950a                	add	a0,a0,sp
   18202:	02b00613          	li	a2,43
   18206:	00003097          	auipc	ra,0x3
   1820a:	d6c080e7          	jalr	-660(ra) # 1af72 <memcpy>
   1820e:	01845513          	srli	a0,s0,0x18
   18212:	01045593          	srli	a1,s0,0x10
   18216:	00845613          	srli	a2,s0,0x8
   1821a:	548101a3          	sb	s0,1347(sp)
   1821e:	54c10223          	sb	a2,1348(sp)
   18222:	54b102a3          	sb	a1,1349(sp)
   18226:	54a10323          	sb	a0,1350(sp)
   1822a:	54710513          	addi	a0,sp,1351
   1822e:	6585                	lui	a1,0x1
   18230:	32058593          	addi	a1,a1,800 # 1320 <.Lline_table_start1+0x10f5>
   18234:	958a                	add	a1,a1,sp
   18236:	02b00613          	li	a2,43
   1823a:	00003097          	auipc	ra,0x3
   1823e:	d38080e7          	jalr	-712(ra) # 1af72 <memcpy>
   18242:	6505                	lui	a0,0x1
   18244:	37c50513          	addi	a0,a0,892 # 137c <.Lline_table_start1+0x1151>
   18248:	950a                	add	a0,a0,sp
   1824a:	54010593          	addi	a1,sp,1344
   1824e:	ffffb097          	auipc	ra,0xffffb
   18252:	4f8080e7          	jalr	1272(ra) # 13746 <_ZN20complex_full_dynamic3app17h86314807766589d4E>
   18256:	3eca4503          	lbu	a0,1004(s4)
   1825a:	c119                	beqz	a0,18260 <_start+0x15be>
   1825c:	70e0206f          	j	1a96a <_start+0x3cc8>
   18260:	3eea4503          	lbu	a0,1006(s4)
   18264:	3eda4583          	lbu	a1,1005(s4)
   18268:	3efa4603          	lbu	a2,1007(s4)
   1826c:	3f0a2403          	lw	s0,1008(s4)
   18270:	0522                	slli	a0,a0,0x8
   18272:	8d4d                	or	a0,a0,a1
   18274:	56a11923          	sh	a0,1394(sp)
   18278:	56c10a23          	sb	a2,1396(sp)
   1827c:	6505                	lui	a0,0x1
   1827e:	38450513          	addi	a0,a0,900 # 1384 <.Lline_table_start1+0x1159>
   18282:	00a105b3          	add	a1,sp,a0
   18286:	6505                	lui	a0,0x1
   18288:	32050513          	addi	a0,a0,800 # 1320 <.Lline_table_start1+0x10f5>
   1828c:	950a                	add	a0,a0,sp
   1828e:	03a00613          	li	a2,58
   18292:	00003097          	auipc	ra,0x3
   18296:	ce0080e7          	jalr	-800(ra) # 1af72 <memcpy>
   1829a:	01845513          	srli	a0,s0,0x18
   1829e:	01045593          	srli	a1,s0,0x10
   182a2:	00845613          	srli	a2,s0,0x8
   182a6:	56810aa3          	sb	s0,1397(sp)
   182aa:	56c10b23          	sb	a2,1398(sp)
   182ae:	56b10ba3          	sb	a1,1399(sp)
   182b2:	56a10c23          	sb	a0,1400(sp)
   182b6:	57910513          	addi	a0,sp,1401
   182ba:	6585                	lui	a1,0x1
   182bc:	32058593          	addi	a1,a1,800 # 1320 <.Lline_table_start1+0x10f5>
   182c0:	958a                	add	a1,a1,sp
   182c2:	03a00613          	li	a2,58
   182c6:	00003097          	auipc	ra,0x3
   182ca:	cac080e7          	jalr	-852(ra) # 1af72 <memcpy>
   182ce:	6505                	lui	a0,0x1
   182d0:	37c50513          	addi	a0,a0,892 # 137c <.Lline_table_start1+0x1151>
   182d4:	950a                	add	a0,a0,sp
   182d6:	57210593          	addi	a1,sp,1394
   182da:	ffffa097          	auipc	ra,0xffffa
   182de:	6c4080e7          	jalr	1732(ra) # 1299e <_ZN20complex_full_dynamic3app17h4f5609e1e15fe49fE>
   182e2:	3eca4503          	lbu	a0,1004(s4)
   182e6:	c119                	beqz	a0,182ec <_start+0x164a>
   182e8:	6820206f          	j	1a96a <_start+0x3cc8>
   182ec:	3eda4503          	lbu	a0,1005(s4)
   182f0:	3eea4583          	lbu	a1,1006(s4)
   182f4:	3efa4603          	lbu	a2,1007(s4)
   182f8:	3f0a2683          	lw	a3,1008(s4)
   182fc:	3f4a2703          	lw	a4,1012(s4)
   18300:	3f8a2783          	lw	a5,1016(s4)
   18304:	3fca2483          	lw	s1,1020(s4)
   18308:	400a2403          	lw	s0,1024(s4)
   1830c:	38ea2823          	sw	a4,912(s4)
   18310:	38fa2a23          	sw	a5,916(s4)
   18314:	389a2c23          	sw	s1,920(s4)
   18318:	388a2e23          	sw	s0,924(s4)
   1831c:	404a2703          	lw	a4,1028(s4)
   18320:	408a2783          	lw	a5,1032(s4)
   18324:	40ca1483          	lh	s1,1036(s4)
   18328:	40ea4403          	lbu	s0,1038(s4)
   1832c:	05a2                	slli	a1,a1,0x8
   1832e:	3aea2023          	sw	a4,928(s4)
   18332:	3afa2223          	sw	a5,932(s4)
   18336:	3a9a1423          	sh	s1,936(s4)
   1833a:	3a8a0523          	sb	s0,938(s4)
   1833e:	0186d713          	srli	a4,a3,0x18
   18342:	8d4d                	or	a0,a0,a1
   18344:	0106d593          	srli	a1,a3,0x10
   18348:	5ab10ca3          	sb	a1,1465(sp)
   1834c:	5ae10d23          	sb	a4,1466(sp)
   18350:	0086d593          	srli	a1,a3,0x8
   18354:	5aa11a23          	sh	a0,1460(sp)
   18358:	5ac10b23          	sb	a2,1462(sp)
   1835c:	5ad10ba3          	sb	a3,1463(sp)
   18360:	5ab10c23          	sb	a1,1464(sp)
   18364:	5bb10513          	addi	a0,sp,1467
   18368:	6585                	lui	a1,0x1
   1836a:	32058593          	addi	a1,a1,800 # 1320 <.Lline_table_start1+0x10f5>
   1836e:	958a                	add	a1,a1,sp
   18370:	466d                	li	a2,27
   18372:	00003097          	auipc	ra,0x3
   18376:	c00080e7          	jalr	-1024(ra) # 1af72 <memcpy>
   1837a:	6505                	lui	a0,0x1
   1837c:	37c50513          	addi	a0,a0,892 # 137c <.Lline_table_start1+0x1151>
   18380:	950a                	add	a0,a0,sp
   18382:	5b410593          	addi	a1,sp,1460
   18386:	ffffd097          	auipc	ra,0xffffd
   1838a:	0bc080e7          	jalr	188(ra) # 15442 <_ZN20complex_full_dynamic3app17hbf96197fc169e18eE>
   1838e:	3eca4503          	lbu	a0,1004(s4)
   18392:	c119                	beqz	a0,18398 <_start+0x16f6>
   18394:	5d60206f          	j	1a96a <_start+0x3cc8>
   18398:	3eea4503          	lbu	a0,1006(s4)
   1839c:	3eda4583          	lbu	a1,1005(s4)
   183a0:	3efa4603          	lbu	a2,1007(s4)
   183a4:	3f0a2403          	lw	s0,1008(s4)
   183a8:	0522                	slli	a0,a0,0x8
   183aa:	8d4d                	or	a0,a0,a1
   183ac:	5ca11b23          	sh	a0,1494(sp)
   183b0:	5cc10c23          	sb	a2,1496(sp)
   183b4:	6505                	lui	a0,0x1
   183b6:	38450513          	addi	a0,a0,900 # 1384 <.Lline_table_start1+0x1159>
   183ba:	00a105b3          	add	a1,sp,a0
   183be:	6505                	lui	a0,0x1
   183c0:	32050513          	addi	a0,a0,800 # 1320 <.Lline_table_start1+0x10f5>
   183c4:	950a                	add	a0,a0,sp
   183c6:	04a00613          	li	a2,74
   183ca:	00003097          	auipc	ra,0x3
   183ce:	ba8080e7          	jalr	-1112(ra) # 1af72 <memcpy>
   183d2:	01845513          	srli	a0,s0,0x18
   183d6:	01045593          	srli	a1,s0,0x10
   183da:	00845613          	srli	a2,s0,0x8
   183de:	5c810ca3          	sb	s0,1497(sp)
   183e2:	5cc10d23          	sb	a2,1498(sp)
   183e6:	5cb10da3          	sb	a1,1499(sp)
   183ea:	5ca10e23          	sb	a0,1500(sp)
   183ee:	5dd10513          	addi	a0,sp,1501
   183f2:	6585                	lui	a1,0x1
   183f4:	32058593          	addi	a1,a1,800 # 1320 <.Lline_table_start1+0x10f5>
   183f8:	958a                	add	a1,a1,sp
   183fa:	04a00613          	li	a2,74
   183fe:	00003097          	auipc	ra,0x3
   18402:	b74080e7          	jalr	-1164(ra) # 1af72 <memcpy>
   18406:	6505                	lui	a0,0x1
   18408:	37c50513          	addi	a0,a0,892 # 137c <.Lline_table_start1+0x1151>
   1840c:	950a                	add	a0,a0,sp
   1840e:	5d610593          	addi	a1,sp,1494
   18412:	ffffc097          	auipc	ra,0xffffc
   18416:	586080e7          	jalr	1414(ra) # 14998 <_ZN20complex_full_dynamic3app17hab66aaad5239a90fE>
   1841a:	3eca4503          	lbu	a0,1004(s4)
   1841e:	c119                	beqz	a0,18424 <_start+0x1782>
   18420:	54a0206f          	j	1a96a <_start+0x3cc8>
   18424:	3eea4503          	lbu	a0,1006(s4)
   18428:	3eda4583          	lbu	a1,1005(s4)
   1842c:	3efa4603          	lbu	a2,1007(s4)
   18430:	3f0a2403          	lw	s0,1008(s4)
   18434:	0522                	slli	a0,a0,0x8
   18436:	8d4d                	or	a0,a0,a1
   18438:	62a11423          	sh	a0,1576(sp)
   1843c:	62c10523          	sb	a2,1578(sp)
   18440:	6505                	lui	a0,0x1
   18442:	38450513          	addi	a0,a0,900 # 1384 <.Lline_table_start1+0x1159>
   18446:	00a105b3          	add	a1,sp,a0
   1844a:	6505                	lui	a0,0x1
   1844c:	32050513          	addi	a0,a0,800 # 1320 <.Lline_table_start1+0x10f5>
   18450:	950a                	add	a0,a0,sp
   18452:	04800613          	li	a2,72
   18456:	00003097          	auipc	ra,0x3
   1845a:	b1c080e7          	jalr	-1252(ra) # 1af72 <memcpy>
   1845e:	01845513          	srli	a0,s0,0x18
   18462:	01045593          	srli	a1,s0,0x10
   18466:	00845613          	srli	a2,s0,0x8
   1846a:	628105a3          	sb	s0,1579(sp)
   1846e:	62c10623          	sb	a2,1580(sp)
   18472:	62b106a3          	sb	a1,1581(sp)
   18476:	62a10723          	sb	a0,1582(sp)
   1847a:	62f10513          	addi	a0,sp,1583
   1847e:	6585                	lui	a1,0x1
   18480:	32058593          	addi	a1,a1,800 # 1320 <.Lline_table_start1+0x10f5>
   18484:	958a                	add	a1,a1,sp
   18486:	04800613          	li	a2,72
   1848a:	00003097          	auipc	ra,0x3
   1848e:	ae8080e7          	jalr	-1304(ra) # 1af72 <memcpy>
   18492:	6505                	lui	a0,0x1
   18494:	37c50513          	addi	a0,a0,892 # 137c <.Lline_table_start1+0x1151>
   18498:	950a                	add	a0,a0,sp
   1849a:	62810593          	addi	a1,sp,1576
   1849e:	ffffe097          	auipc	ra,0xffffe
   184a2:	130080e7          	jalr	304(ra) # 165ce <_ZN20complex_full_dynamic3app17hf0a5536035186c3cE>
   184a6:	3eca4503          	lbu	a0,1004(s4)
   184aa:	c119                	beqz	a0,184b0 <_start+0x180e>
   184ac:	4be0206f          	j	1a96a <_start+0x3cc8>
   184b0:	3eea4503          	lbu	a0,1006(s4)
   184b4:	3eda4583          	lbu	a1,1005(s4)
   184b8:	3efa4603          	lbu	a2,1007(s4)
   184bc:	3f0a2403          	lw	s0,1008(s4)
   184c0:	0522                	slli	a0,a0,0x8
   184c2:	8d4d                	or	a0,a0,a1
   184c4:	66a11c23          	sh	a0,1656(sp)
   184c8:	66c10d23          	sb	a2,1658(sp)
   184cc:	6505                	lui	a0,0x1
   184ce:	38450513          	addi	a0,a0,900 # 1384 <.Lline_table_start1+0x1159>
   184d2:	00a105b3          	add	a1,sp,a0
   184d6:	6505                	lui	a0,0x1
   184d8:	32050513          	addi	a0,a0,800 # 1320 <.Lline_table_start1+0x10f5>
   184dc:	950a                	add	a0,a0,sp
   184de:	03400613          	li	a2,52
   184e2:	00003097          	auipc	ra,0x3
   184e6:	a90080e7          	jalr	-1392(ra) # 1af72 <memcpy>
   184ea:	01845513          	srli	a0,s0,0x18
   184ee:	01045593          	srli	a1,s0,0x10
   184f2:	00845613          	srli	a2,s0,0x8
   184f6:	66810da3          	sb	s0,1659(sp)
   184fa:	66c10e23          	sb	a2,1660(sp)
   184fe:	66b10ea3          	sb	a1,1661(sp)
   18502:	66a10f23          	sb	a0,1662(sp)
   18506:	67f10513          	addi	a0,sp,1663
   1850a:	6585                	lui	a1,0x1
   1850c:	32058593          	addi	a1,a1,800 # 1320 <.Lline_table_start1+0x10f5>
   18510:	958a                	add	a1,a1,sp
   18512:	03400613          	li	a2,52
   18516:	00003097          	auipc	ra,0x3
   1851a:	a5c080e7          	jalr	-1444(ra) # 1af72 <memcpy>
   1851e:	6505                	lui	a0,0x1
   18520:	37c50513          	addi	a0,a0,892 # 137c <.Lline_table_start1+0x1151>
   18524:	950a                	add	a0,a0,sp
   18526:	67810593          	addi	a1,sp,1656
   1852a:	ffffa097          	auipc	ra,0xffffa
   1852e:	56e080e7          	jalr	1390(ra) # 12a98 <_ZN20complex_full_dynamic3app17h4fdd770126d94fe6E>
   18532:	3eca4503          	lbu	a0,1004(s4)
   18536:	c119                	beqz	a0,1853c <_start+0x189a>
   18538:	4320206f          	j	1a96a <_start+0x3cc8>
   1853c:	3eda4503          	lbu	a0,1005(s4)
   18540:	3eea4583          	lbu	a1,1006(s4)
   18544:	3efa4603          	lbu	a2,1007(s4)
   18548:	3f0a2683          	lw	a3,1008(s4)
   1854c:	3f4a2703          	lw	a4,1012(s4)
   18550:	3f8a2783          	lw	a5,1016(s4)
   18554:	3fca2483          	lw	s1,1020(s4)
   18558:	400a2403          	lw	s0,1024(s4)
   1855c:	38ea2823          	sw	a4,912(s4)
   18560:	38fa2a23          	sw	a5,916(s4)
   18564:	389a2c23          	sw	s1,920(s4)
   18568:	388a2e23          	sw	s0,924(s4)
   1856c:	404a2703          	lw	a4,1028(s4)
   18570:	408a2783          	lw	a5,1032(s4)
   18574:	40ca2483          	lw	s1,1036(s4)
   18578:	410a2403          	lw	s0,1040(s4)
   1857c:	05a2                	slli	a1,a1,0x8
   1857e:	3aea2023          	sw	a4,928(s4)
   18582:	3afa2223          	sw	a5,932(s4)
   18586:	3a9a2423          	sw	s1,936(s4)
   1858a:	3a8a2623          	sw	s0,940(s4)
   1858e:	0186d713          	srli	a4,a3,0x18
   18592:	8d4d                	or	a0,a0,a1
   18594:	0106d593          	srli	a1,a3,0x10
   18598:	6ab10ca3          	sb	a1,1721(sp)
   1859c:	6ae10d23          	sb	a4,1722(sp)
   185a0:	0086d593          	srli	a1,a3,0x8
   185a4:	6aa11a23          	sh	a0,1716(sp)
   185a8:	6ac10b23          	sb	a2,1718(sp)
   185ac:	6ad10ba3          	sb	a3,1719(sp)
   185b0:	6ab10c23          	sb	a1,1720(sp)
   185b4:	6bb10513          	addi	a0,sp,1723
   185b8:	6585                	lui	a1,0x1
   185ba:	32058593          	addi	a1,a1,800 # 1320 <.Lline_table_start1+0x10f5>
   185be:	958a                	add	a1,a1,sp
   185c0:	02000613          	li	a2,32
   185c4:	00003097          	auipc	ra,0x3
   185c8:	9ae080e7          	jalr	-1618(ra) # 1af72 <memcpy>
   185cc:	6505                	lui	a0,0x1
   185ce:	37c50513          	addi	a0,a0,892 # 137c <.Lline_table_start1+0x1151>
   185d2:	950a                	add	a0,a0,sp
   185d4:	6b410593          	addi	a1,sp,1716
   185d8:	ffffa097          	auipc	ra,0xffffa
   185dc:	5ba080e7          	jalr	1466(ra) # 12b92 <_ZN20complex_full_dynamic3app17h52ad07380c5c86efE>
   185e0:	3eca4503          	lbu	a0,1004(s4)
   185e4:	c119                	beqz	a0,185ea <_start+0x1948>
   185e6:	3840206f          	j	1a96a <_start+0x3cc8>
   185ea:	3eda4503          	lbu	a0,1005(s4)
   185ee:	3eea4583          	lbu	a1,1006(s4)
   185f2:	3efa4603          	lbu	a2,1007(s4)
   185f6:	3f0a2683          	lw	a3,1008(s4)
   185fa:	3f4a2703          	lw	a4,1012(s4)
   185fe:	3f8a2783          	lw	a5,1016(s4)
   18602:	3fca2483          	lw	s1,1020(s4)
   18606:	400a4403          	lbu	s0,1024(s4)
   1860a:	05a2                	slli	a1,a1,0x8
   1860c:	38ea2823          	sw	a4,912(s4)
   18610:	38fa2a23          	sw	a5,916(s4)
   18614:	389a2c23          	sw	s1,920(s4)
   18618:	388a0e23          	sb	s0,924(s4)
   1861c:	0186d713          	srli	a4,a3,0x18
   18620:	8d4d                	or	a0,a0,a1
   18622:	0106d593          	srli	a1,a3,0x10
   18626:	6eb100a3          	sb	a1,1761(sp)
   1862a:	6ee10123          	sb	a4,1762(sp)
   1862e:	0086d593          	srli	a1,a3,0x8
   18632:	6ca11e23          	sh	a0,1756(sp)
   18636:	6cc10f23          	sb	a2,1758(sp)
   1863a:	6cd10fa3          	sb	a3,1759(sp)
   1863e:	6eb10023          	sb	a1,1760(sp)
   18642:	6e310513          	addi	a0,sp,1763
   18646:	6585                	lui	a1,0x1
   18648:	32058593          	addi	a1,a1,800 # 1320 <.Lline_table_start1+0x10f5>
   1864c:	958a                	add	a1,a1,sp
   1864e:	4635                	li	a2,13
   18650:	00003097          	auipc	ra,0x3
   18654:	922080e7          	jalr	-1758(ra) # 1af72 <memcpy>
   18658:	6505                	lui	a0,0x1
   1865a:	37c50513          	addi	a0,a0,892 # 137c <.Lline_table_start1+0x1151>
   1865e:	950a                	add	a0,a0,sp
   18660:	6dc10593          	addi	a1,sp,1756
   18664:	ffffe097          	auipc	ra,0xffffe
   18668:	c80080e7          	jalr	-896(ra) # 162e4 <_ZN20complex_full_dynamic3app17heaeb0c92dfaf2844E>
   1866c:	3eca4503          	lbu	a0,1004(s4)
   18670:	c119                	beqz	a0,18676 <_start+0x19d4>
   18672:	2f80206f          	j	1a96a <_start+0x3cc8>
   18676:	3eea4503          	lbu	a0,1006(s4)
   1867a:	3eda4583          	lbu	a1,1005(s4)
   1867e:	3efa4603          	lbu	a2,1007(s4)
   18682:	3f0a2403          	lw	s0,1008(s4)
   18686:	0522                	slli	a0,a0,0x8
   18688:	8d4d                	or	a0,a0,a1
   1868a:	6ea11823          	sh	a0,1776(sp)
   1868e:	6ec10923          	sb	a2,1778(sp)
   18692:	6505                	lui	a0,0x1
   18694:	38450513          	addi	a0,a0,900 # 1384 <.Lline_table_start1+0x1159>
   18698:	00a105b3          	add	a1,sp,a0
   1869c:	6505                	lui	a0,0x1
   1869e:	32050513          	addi	a0,a0,800 # 1320 <.Lline_table_start1+0x10f5>
   186a2:	950a                	add	a0,a0,sp
   186a4:	02400613          	li	a2,36
   186a8:	00003097          	auipc	ra,0x3
   186ac:	8ca080e7          	jalr	-1846(ra) # 1af72 <memcpy>
   186b0:	01845513          	srli	a0,s0,0x18
   186b4:	01045593          	srli	a1,s0,0x10
   186b8:	00845613          	srli	a2,s0,0x8
   186bc:	6e8109a3          	sb	s0,1779(sp)
   186c0:	6ec10a23          	sb	a2,1780(sp)
   186c4:	6eb10aa3          	sb	a1,1781(sp)
   186c8:	6ea10b23          	sb	a0,1782(sp)
   186cc:	6f710513          	addi	a0,sp,1783
   186d0:	6585                	lui	a1,0x1
   186d2:	32058593          	addi	a1,a1,800 # 1320 <.Lline_table_start1+0x10f5>
   186d6:	958a                	add	a1,a1,sp
   186d8:	02400613          	li	a2,36
   186dc:	00003097          	auipc	ra,0x3
   186e0:	896080e7          	jalr	-1898(ra) # 1af72 <memcpy>
   186e4:	6505                	lui	a0,0x1
   186e6:	37c50513          	addi	a0,a0,892 # 137c <.Lline_table_start1+0x1151>
   186ea:	950a                	add	a0,a0,sp
   186ec:	6f010593          	addi	a1,sp,1776
   186f0:	ffffe097          	auipc	ra,0xffffe
   186f4:	9fe080e7          	jalr	-1538(ra) # 160ee <_ZN20complex_full_dynamic3app17he340abf22b2f433eE>
   186f8:	3eca4503          	lbu	a0,1004(s4)
   186fc:	c119                	beqz	a0,18702 <_start+0x1a60>
   186fe:	26c0206f          	j	1a96a <_start+0x3cc8>
   18702:	3eda4503          	lbu	a0,1005(s4)
   18706:	3eea4583          	lbu	a1,1006(s4)
   1870a:	3efa4603          	lbu	a2,1007(s4)
   1870e:	3f0a2683          	lw	a3,1008(s4)
   18712:	3f4a2703          	lw	a4,1012(s4)
   18716:	3f8a2783          	lw	a5,1016(s4)
   1871a:	3fca2483          	lw	s1,1020(s4)
   1871e:	400a2403          	lw	s0,1024(s4)
   18722:	38ea2823          	sw	a4,912(s4)
   18726:	38fa2a23          	sw	a5,916(s4)
   1872a:	389a2c23          	sw	s1,920(s4)
   1872e:	388a2e23          	sw	s0,924(s4)
   18732:	404a2703          	lw	a4,1028(s4)
   18736:	408a1783          	lh	a5,1032(s4)
   1873a:	40aa4483          	lbu	s1,1034(s4)
   1873e:	05a2                	slli	a1,a1,0x8
   18740:	3aea2023          	sw	a4,928(s4)
   18744:	3afa1223          	sh	a5,932(s4)
   18748:	3a9a0323          	sb	s1,934(s4)
   1874c:	0186d713          	srli	a4,a3,0x18
   18750:	8d4d                	or	a0,a0,a1
   18752:	0106d593          	srli	a1,a3,0x10
   18756:	72b100a3          	sb	a1,1825(sp)
   1875a:	72e10123          	sb	a4,1826(sp)
   1875e:	0086d593          	srli	a1,a3,0x8
   18762:	70a11e23          	sh	a0,1820(sp)
   18766:	70c10f23          	sb	a2,1822(sp)
   1876a:	70d10fa3          	sb	a3,1823(sp)
   1876e:	72b10023          	sb	a1,1824(sp)
   18772:	72310513          	addi	a0,sp,1827
   18776:	6585                	lui	a1,0x1
   18778:	32058593          	addi	a1,a1,800 # 1320 <.Lline_table_start1+0x10f5>
   1877c:	958a                	add	a1,a1,sp
   1877e:	465d                	li	a2,23
   18780:	00002097          	auipc	ra,0x2
   18784:	7f2080e7          	jalr	2034(ra) # 1af72 <memcpy>
   18788:	6505                	lui	a0,0x1
   1878a:	37c50513          	addi	a0,a0,892 # 137c <.Lline_table_start1+0x1151>
   1878e:	950a                	add	a0,a0,sp
   18790:	71c10593          	addi	a1,sp,1820
   18794:	ffffa097          	auipc	ra,0xffffa
   18798:	6e8080e7          	jalr	1768(ra) # 12e7c <_ZN20complex_full_dynamic3app17h531378fed9c0d38bE>
   1879c:	3eca4503          	lbu	a0,1004(s4)
   187a0:	c119                	beqz	a0,187a6 <_start+0x1b04>
   187a2:	1c80206f          	j	1a96a <_start+0x3cc8>
   187a6:	3eea4503          	lbu	a0,1006(s4)
   187aa:	3eda4583          	lbu	a1,1005(s4)
   187ae:	3efa4603          	lbu	a2,1007(s4)
   187b2:	3f0a2403          	lw	s0,1008(s4)
   187b6:	0522                	slli	a0,a0,0x8
   187b8:	8d4d                	or	a0,a0,a1
   187ba:	72a11d23          	sh	a0,1850(sp)
   187be:	72c10e23          	sb	a2,1852(sp)
   187c2:	6505                	lui	a0,0x1
   187c4:	38450513          	addi	a0,a0,900 # 1384 <.Lline_table_start1+0x1159>
   187c8:	00a105b3          	add	a1,sp,a0
   187cc:	6505                	lui	a0,0x1
   187ce:	32050513          	addi	a0,a0,800 # 1320 <.Lline_table_start1+0x10f5>
   187d2:	950a                	add	a0,a0,sp
   187d4:	04a00613          	li	a2,74
   187d8:	00002097          	auipc	ra,0x2
   187dc:	79a080e7          	jalr	1946(ra) # 1af72 <memcpy>
   187e0:	01845513          	srli	a0,s0,0x18
   187e4:	01045593          	srli	a1,s0,0x10
   187e8:	00845613          	srli	a2,s0,0x8
   187ec:	72810ea3          	sb	s0,1853(sp)
   187f0:	72c10f23          	sb	a2,1854(sp)
   187f4:	72b10fa3          	sb	a1,1855(sp)
   187f8:	74a10023          	sb	a0,1856(sp)
   187fc:	74110513          	addi	a0,sp,1857
   18800:	6585                	lui	a1,0x1
   18802:	32058593          	addi	a1,a1,800 # 1320 <.Lline_table_start1+0x10f5>
   18806:	958a                	add	a1,a1,sp
   18808:	04a00613          	li	a2,74
   1880c:	00002097          	auipc	ra,0x2
   18810:	766080e7          	jalr	1894(ra) # 1af72 <memcpy>
   18814:	6505                	lui	a0,0x1
   18816:	37c50513          	addi	a0,a0,892 # 137c <.Lline_table_start1+0x1151>
   1881a:	950a                	add	a0,a0,sp
   1881c:	73a10593          	addi	a1,sp,1850
   18820:	ffffc097          	auipc	ra,0xffffc
   18824:	9be080e7          	jalr	-1602(ra) # 141de <_ZN20complex_full_dynamic3app17ha074cbcf19945e18E>
   18828:	3eca4503          	lbu	a0,1004(s4)
   1882c:	c119                	beqz	a0,18832 <_start+0x1b90>
   1882e:	13c0206f          	j	1a96a <_start+0x3cc8>
   18832:	78e10913          	addi	s2,sp,1934
   18836:	3eda4503          	lbu	a0,1005(s4)
   1883a:	3eea4583          	lbu	a1,1006(s4)
   1883e:	3efa4803          	lbu	a6,1007(s4)
   18842:	3f0a2683          	lw	a3,1008(s4)
   18846:	3f4a2703          	lw	a4,1012(s4)
   1884a:	3f8a2783          	lw	a5,1016(s4)
   1884e:	05a2                	slli	a1,a1,0x8
   18850:	0186d893          	srli	a7,a3,0x18
   18854:	0106d293          	srli	t0,a3,0x10
   18858:	0187d613          	srli	a2,a5,0x18
   1885c:	0107d493          	srli	s1,a5,0x10
   18860:	0087d413          	srli	s0,a5,0x8
   18864:	8d4d                	or	a0,a0,a1
   18866:	01875593          	srli	a1,a4,0x18
   1886a:	009905a3          	sb	s1,11(s2)
   1886e:	00c90623          	sb	a2,12(s2)
   18872:	01075613          	srli	a2,a4,0x10
   18876:	00c903a3          	sb	a2,7(s2)
   1887a:	00b90423          	sb	a1,8(s2)
   1887e:	00f904a3          	sb	a5,9(s2)
   18882:	00890523          	sb	s0,10(s2)
   18886:	0086d593          	srli	a1,a3,0x8
   1888a:	fea91f23          	sh	a0,-2(s2)
   1888e:	01090023          	sb	a6,0(s2)
   18892:	00d900a3          	sb	a3,1(s2)
   18896:	00b90123          	sb	a1,2(s2)
   1889a:	00875513          	srli	a0,a4,0x8
   1889e:	005901a3          	sb	t0,3(s2)
   188a2:	01190223          	sb	a7,4(s2)
   188a6:	00e902a3          	sb	a4,5(s2)
   188aa:	00a90323          	sb	a0,6(s2)
   188ae:	6505                	lui	a0,0x1
   188b0:	37c50513          	addi	a0,a0,892 # 137c <.Lline_table_start1+0x1151>
   188b4:	950a                	add	a0,a0,sp
   188b6:	78c10593          	addi	a1,sp,1932
   188ba:	ffffa097          	auipc	ra,0xffffa
   188be:	fec080e7          	jalr	-20(ra) # 128a6 <_ZN20complex_full_dynamic3app17h4eb70c90e9970eb5E>
   188c2:	3eca4503          	lbu	a0,1004(s4)
   188c6:	c119                	beqz	a0,188cc <_start+0x1c2a>
   188c8:	0a20206f          	j	1a96a <_start+0x3cc8>
   188cc:	3eea4503          	lbu	a0,1006(s4)
   188d0:	3eda4583          	lbu	a1,1005(s4)
   188d4:	3efa4603          	lbu	a2,1007(s4)
   188d8:	3f0a2403          	lw	s0,1008(s4)
   188dc:	0522                	slli	a0,a0,0x8
   188de:	8d4d                	or	a0,a0,a1
   188e0:	00a91723          	sh	a0,14(s2)
   188e4:	00c90823          	sb	a2,16(s2)
   188e8:	6505                	lui	a0,0x1
   188ea:	38450513          	addi	a0,a0,900 # 1384 <.Lline_table_start1+0x1159>
   188ee:	00a105b3          	add	a1,sp,a0
   188f2:	6505                	lui	a0,0x1
   188f4:	32050513          	addi	a0,a0,800 # 1320 <.Lline_table_start1+0x10f5>
   188f8:	950a                	add	a0,a0,sp
   188fa:	03f00613          	li	a2,63
   188fe:	00002097          	auipc	ra,0x2
   18902:	674080e7          	jalr	1652(ra) # 1af72 <memcpy>
   18906:	01845513          	srli	a0,s0,0x18
   1890a:	01045593          	srli	a1,s0,0x10
   1890e:	00845613          	srli	a2,s0,0x8
   18912:	008908a3          	sb	s0,17(s2)
   18916:	00c90923          	sb	a2,18(s2)
   1891a:	00b909a3          	sb	a1,19(s2)
   1891e:	00a90a23          	sb	a0,20(s2)
   18922:	7a310513          	addi	a0,sp,1955
   18926:	6585                	lui	a1,0x1
   18928:	32058593          	addi	a1,a1,800 # 1320 <.Lline_table_start1+0x10f5>
   1892c:	958a                	add	a1,a1,sp
   1892e:	03f00613          	li	a2,63
   18932:	00002097          	auipc	ra,0x2
   18936:	640080e7          	jalr	1600(ra) # 1af72 <memcpy>
   1893a:	6505                	lui	a0,0x1
   1893c:	37c50513          	addi	a0,a0,892 # 137c <.Lline_table_start1+0x1151>
   18940:	950a                	add	a0,a0,sp
   18942:	79c10593          	addi	a1,sp,1948
   18946:	ffffa097          	auipc	ra,0xffffa
   1894a:	b7a080e7          	jalr	-1158(ra) # 124c0 <_ZN20complex_full_dynamic3app17h3dc7e1bb25a6bd2cE>
   1894e:	3eca4503          	lbu	a0,1004(s4)
   18952:	c119                	beqz	a0,18958 <_start+0x1cb6>
   18954:	0160206f          	j	1a96a <_start+0x3cc8>
   18958:	3eea4503          	lbu	a0,1006(s4)
   1895c:	3eda4583          	lbu	a1,1005(s4)
   18960:	3efa4603          	lbu	a2,1007(s4)
   18964:	3f0a2403          	lw	s0,1008(s4)
   18968:	0522                	slli	a0,a0,0x8
   1896a:	8d4d                	or	a0,a0,a1
   1896c:	04a91a23          	sh	a0,84(s2)
   18970:	04c90b23          	sb	a2,86(s2)
   18974:	6505                	lui	a0,0x1
   18976:	38450513          	addi	a0,a0,900 # 1384 <.Lline_table_start1+0x1159>
   1897a:	00a105b3          	add	a1,sp,a0
   1897e:	6505                	lui	a0,0x1
   18980:	32050513          	addi	a0,a0,800 # 1320 <.Lline_table_start1+0x10f5>
   18984:	950a                	add	a0,a0,sp
   18986:	04f00613          	li	a2,79
   1898a:	00002097          	auipc	ra,0x2
   1898e:	5e8080e7          	jalr	1512(ra) # 1af72 <memcpy>
   18992:	01845513          	srli	a0,s0,0x18
   18996:	01045593          	srli	a1,s0,0x10
   1899a:	00845613          	srli	a2,s0,0x8
   1899e:	04890ba3          	sb	s0,87(s2)
   189a2:	04c90c23          	sb	a2,88(s2)
   189a6:	04b90ca3          	sb	a1,89(s2)
   189aa:	04a90d23          	sb	a0,90(s2)
   189ae:	7e910513          	addi	a0,sp,2025
   189b2:	6585                	lui	a1,0x1
   189b4:	32058593          	addi	a1,a1,800 # 1320 <.Lline_table_start1+0x10f5>
   189b8:	958a                	add	a1,a1,sp
   189ba:	04f00613          	li	a2,79
   189be:	00002097          	auipc	ra,0x2
   189c2:	5b4080e7          	jalr	1460(ra) # 1af72 <memcpy>
   189c6:	6505                	lui	a0,0x1
   189c8:	37c50513          	addi	a0,a0,892 # 137c <.Lline_table_start1+0x1151>
   189cc:	950a                	add	a0,a0,sp
   189ce:	7e210593          	addi	a1,sp,2018
   189d2:	ffff9097          	auipc	ra,0xffff9
   189d6:	e40080e7          	jalr	-448(ra) # 11812 <_ZN20complex_full_dynamic3app17h148a81133c6ab03aE>
   189da:	3eca4503          	lbu	a0,1004(s4)
   189de:	c119                	beqz	a0,189e4 <_start+0x1d42>
   189e0:	78b0106f          	j	1a96a <_start+0x3cc8>
   189e4:	3eea4503          	lbu	a0,1006(s4)
   189e8:	3eda4583          	lbu	a1,1005(s4)
   189ec:	3efa4603          	lbu	a2,1007(s4)
   189f0:	3f0a2403          	lw	s0,1008(s4)
   189f4:	0522                	slli	a0,a0,0x8
   189f6:	8d4d                	or	a0,a0,a1
   189f8:	0aa91523          	sh	a0,170(s2)
   189fc:	0ac90623          	sb	a2,172(s2)
   18a00:	6505                	lui	a0,0x1
   18a02:	38450513          	addi	a0,a0,900 # 1384 <.Lline_table_start1+0x1159>
   18a06:	00a105b3          	add	a1,sp,a0
   18a0a:	6505                	lui	a0,0x1
   18a0c:	32050513          	addi	a0,a0,800 # 1320 <.Lline_table_start1+0x10f5>
   18a10:	950a                	add	a0,a0,sp
   18a12:	04200613          	li	a2,66
   18a16:	00002097          	auipc	ra,0x2
   18a1a:	55c080e7          	jalr	1372(ra) # 1af72 <memcpy>
   18a1e:	01845513          	srli	a0,s0,0x18
   18a22:	01045593          	srli	a1,s0,0x10
   18a26:	00845613          	srli	a2,s0,0x8
   18a2a:	0a8906a3          	sb	s0,173(s2)
   18a2e:	0ac90723          	sb	a2,174(s2)
   18a32:	0ab907a3          	sb	a1,175(s2)
   18a36:	0aa90823          	sb	a0,176(s2)
   18a3a:	7ff10513          	addi	a0,sp,2047
   18a3e:	04050513          	addi	a0,a0,64
   18a42:	6585                	lui	a1,0x1
   18a44:	32058593          	addi	a1,a1,800 # 1320 <.Lline_table_start1+0x10f5>
   18a48:	958a                	add	a1,a1,sp
   18a4a:	04200613          	li	a2,66
   18a4e:	00002097          	auipc	ra,0x2
   18a52:	524080e7          	jalr	1316(ra) # 1af72 <memcpy>
   18a56:	6505                	lui	a0,0x1
   18a58:	37c50513          	addi	a0,a0,892 # 137c <.Lline_table_start1+0x1151>
   18a5c:	950a                	add	a0,a0,sp
   18a5e:	7ff10593          	addi	a1,sp,2047
   18a62:	03958593          	addi	a1,a1,57
   18a66:	ffffe097          	auipc	ra,0xffffe
   18a6a:	e58080e7          	jalr	-424(ra) # 168be <_ZN20complex_full_dynamic3app17hf9145ecfd9d7d69bE>
   18a6e:	3eca4503          	lbu	a0,1004(s4)
   18a72:	c119                	beqz	a0,18a78 <_start+0x1dd6>
   18a74:	6f70106f          	j	1a96a <_start+0x3cc8>
   18a78:	3eda4503          	lbu	a0,1005(s4)
   18a7c:	3eea4583          	lbu	a1,1006(s4)
   18a80:	3efa4603          	lbu	a2,1007(s4)
   18a84:	3f0a2683          	lw	a3,1008(s4)
   18a88:	3f4a2703          	lw	a4,1012(s4)
   18a8c:	3f8a2783          	lw	a5,1016(s4)
   18a90:	3fca2483          	lw	s1,1020(s4)
   18a94:	400a2403          	lw	s0,1024(s4)
   18a98:	38ea2823          	sw	a4,912(s4)
   18a9c:	38fa2a23          	sw	a5,916(s4)
   18aa0:	389a2c23          	sw	s1,920(s4)
   18aa4:	388a2e23          	sw	s0,924(s4)
   18aa8:	404a2703          	lw	a4,1028(s4)
   18aac:	408a2783          	lw	a5,1032(s4)
   18ab0:	40ca2483          	lw	s1,1036(s4)
   18ab4:	05a2                	slli	a1,a1,0x8
   18ab6:	3aea2023          	sw	a4,928(s4)
   18aba:	3afa2223          	sw	a5,932(s4)
   18abe:	3a9a2423          	sw	s1,936(s4)
   18ac2:	0186d713          	srli	a4,a3,0x18
   18ac6:	8d4d                	or	a0,a0,a1
   18ac8:	0106d593          	srli	a1,a3,0x10
   18acc:	0eb90ca3          	sb	a1,249(s2)
   18ad0:	0ee90d23          	sb	a4,250(s2)
   18ad4:	0086d593          	srli	a1,a3,0x8
   18ad8:	0ea91a23          	sh	a0,244(s2)
   18adc:	0ec90b23          	sb	a2,246(s2)
   18ae0:	0ed90ba3          	sb	a3,247(s2)
   18ae4:	0eb90c23          	sb	a1,248(s2)
   18ae8:	7ff10513          	addi	a0,sp,2047
   18aec:	08a50513          	addi	a0,a0,138
   18af0:	6585                	lui	a1,0x1
   18af2:	32058593          	addi	a1,a1,800 # 1320 <.Lline_table_start1+0x10f5>
   18af6:	958a                	add	a1,a1,sp
   18af8:	4671                	li	a2,28
   18afa:	00002097          	auipc	ra,0x2
   18afe:	478080e7          	jalr	1144(ra) # 1af72 <memcpy>
   18b02:	6505                	lui	a0,0x1
   18b04:	37c50513          	addi	a0,a0,892 # 137c <.Lline_table_start1+0x1151>
   18b08:	950a                	add	a0,a0,sp
   18b0a:	7ff10593          	addi	a1,sp,2047
   18b0e:	08358593          	addi	a1,a1,131
   18b12:	ffffe097          	auipc	ra,0xffffe
   18b16:	cb4080e7          	jalr	-844(ra) # 167c6 <_ZN20complex_full_dynamic3app17hf49ed845ccd8e5beE>
   18b1a:	3eca4503          	lbu	a0,1004(s4)
   18b1e:	c119                	beqz	a0,18b24 <_start+0x1e82>
   18b20:	64b0106f          	j	1a96a <_start+0x3cc8>
   18b24:	3eea4503          	lbu	a0,1006(s4)
   18b28:	3eda4583          	lbu	a1,1005(s4)
   18b2c:	3efa4603          	lbu	a2,1007(s4)
   18b30:	3f0a2403          	lw	s0,1008(s4)
   18b34:	0522                	slli	a0,a0,0x8
   18b36:	8d4d                	or	a0,a0,a1
   18b38:	10a91c23          	sh	a0,280(s2)
   18b3c:	10c90d23          	sb	a2,282(s2)
   18b40:	6505                	lui	a0,0x1
   18b42:	38450513          	addi	a0,a0,900 # 1384 <.Lline_table_start1+0x1159>
   18b46:	00a105b3          	add	a1,sp,a0
   18b4a:	6505                	lui	a0,0x1
   18b4c:	32050513          	addi	a0,a0,800 # 1320 <.Lline_table_start1+0x10f5>
   18b50:	950a                	add	a0,a0,sp
   18b52:	02400613          	li	a2,36
   18b56:	00002097          	auipc	ra,0x2
   18b5a:	41c080e7          	jalr	1052(ra) # 1af72 <memcpy>
   18b5e:	01845513          	srli	a0,s0,0x18
   18b62:	01045593          	srli	a1,s0,0x10
   18b66:	00845613          	srli	a2,s0,0x8
   18b6a:	10890da3          	sb	s0,283(s2)
   18b6e:	10c90e23          	sb	a2,284(s2)
   18b72:	10b90ea3          	sb	a1,285(s2)
   18b76:	10a90f23          	sb	a0,286(s2)
   18b7a:	7ff10513          	addi	a0,sp,2047
   18b7e:	0ae50513          	addi	a0,a0,174
   18b82:	6585                	lui	a1,0x1
   18b84:	32058593          	addi	a1,a1,800 # 1320 <.Lline_table_start1+0x10f5>
   18b88:	958a                	add	a1,a1,sp
   18b8a:	02400613          	li	a2,36
   18b8e:	00002097          	auipc	ra,0x2
   18b92:	3e4080e7          	jalr	996(ra) # 1af72 <memcpy>
   18b96:	6505                	lui	a0,0x1
   18b98:	37c50513          	addi	a0,a0,892 # 137c <.Lline_table_start1+0x1151>
   18b9c:	950a                	add	a0,a0,sp
   18b9e:	7ff10593          	addi	a1,sp,2047
   18ba2:	0a758593          	addi	a1,a1,167
   18ba6:	ffffc097          	auipc	ra,0xffffc
   18baa:	d02080e7          	jalr	-766(ra) # 148a8 <_ZN20complex_full_dynamic3app17haa2c964c1a5868f8E>
   18bae:	3eca4503          	lbu	a0,1004(s4)
   18bb2:	c119                	beqz	a0,18bb8 <_start+0x1f16>
   18bb4:	5b70106f          	j	1a96a <_start+0x3cc8>
   18bb8:	3eda4503          	lbu	a0,1005(s4)
   18bbc:	3eea4583          	lbu	a1,1006(s4)
   18bc0:	3f4a2603          	lw	a2,1012(s4)
   18bc4:	3f8a1683          	lh	a3,1016(s4)
   18bc8:	3efa4703          	lbu	a4,1007(s4)
   18bcc:	3f0a2783          	lw	a5,1008(s4)
   18bd0:	05a2                	slli	a1,a1,0x8
   18bd2:	38ca2823          	sw	a2,912(s4)
   18bd6:	38da1a23          	sh	a3,916(s4)
   18bda:	0187d693          	srli	a3,a5,0x18
   18bde:	0107d493          	srli	s1,a5,0x10
   18be2:	8d4d                	or	a0,a0,a1
   18be4:	0087d593          	srli	a1,a5,0x8
   18be8:	14a91223          	sh	a0,324(s2)
   18bec:	14e90323          	sb	a4,326(s2)
   18bf0:	14f903a3          	sb	a5,327(s2)
   18bf4:	14b90423          	sb	a1,328(s2)
   18bf8:	391a4503          	lbu	a0,913(s4)
   18bfc:	392a4583          	lbu	a1,914(s4)
   18c00:	393a4703          	lbu	a4,915(s4)
   18c04:	394a4783          	lbu	a5,916(s4)
   18c08:	149904a3          	sb	s1,329(s2)
   18c0c:	14d90523          	sb	a3,330(s2)
   18c10:	14c905a3          	sb	a2,331(s2)
   18c14:	14a90623          	sb	a0,332(s2)
   18c18:	395a4503          	lbu	a0,917(s4)
   18c1c:	14b906a3          	sb	a1,333(s2)
   18c20:	14e90723          	sb	a4,334(s2)
   18c24:	14f907a3          	sb	a5,335(s2)
   18c28:	14a90823          	sb	a0,336(s2)
   18c2c:	6505                	lui	a0,0x1
   18c2e:	37c50513          	addi	a0,a0,892 # 137c <.Lline_table_start1+0x1151>
   18c32:	950a                	add	a0,a0,sp
   18c34:	7ff10593          	addi	a1,sp,2047
   18c38:	0d358593          	addi	a1,a1,211
   18c3c:	ffffd097          	auipc	ra,0xffffd
   18c40:	0d0080e7          	jalr	208(ra) # 15d0c <_ZN20complex_full_dynamic3app17hdbacc613dc40144fE>
   18c44:	3eca4503          	lbu	a0,1004(s4)
   18c48:	c119                	beqz	a0,18c4e <_start+0x1fac>
   18c4a:	5210106f          	j	1a96a <_start+0x3cc8>
   18c4e:	3eda4503          	lbu	a0,1005(s4)
   18c52:	3eea4583          	lbu	a1,1006(s4)
   18c56:	3efa4603          	lbu	a2,1007(s4)
   18c5a:	3f0a2683          	lw	a3,1008(s4)
   18c5e:	3f4a2703          	lw	a4,1012(s4)
   18c62:	3f8a2783          	lw	a5,1016(s4)
   18c66:	3fca2483          	lw	s1,1020(s4)
   18c6a:	400a2403          	lw	s0,1024(s4)
   18c6e:	38ea2823          	sw	a4,912(s4)
   18c72:	38fa2a23          	sw	a5,916(s4)
   18c76:	389a2c23          	sw	s1,920(s4)
   18c7a:	388a2e23          	sw	s0,924(s4)
   18c7e:	404a2703          	lw	a4,1028(s4)
   18c82:	408a2783          	lw	a5,1032(s4)
   18c86:	40ca1483          	lh	s1,1036(s4)
   18c8a:	05a2                	slli	a1,a1,0x8
   18c8c:	3aea2023          	sw	a4,928(s4)
   18c90:	3afa2223          	sw	a5,932(s4)
   18c94:	3a9a1423          	sh	s1,936(s4)
   18c98:	0186d713          	srli	a4,a3,0x18
   18c9c:	8d4d                	or	a0,a0,a1
   18c9e:	0106d593          	srli	a1,a3,0x10
   18ca2:	14b90ba3          	sb	a1,343(s2)
   18ca6:	14e90c23          	sb	a4,344(s2)
   18caa:	0086d593          	srli	a1,a3,0x8
   18cae:	14a91923          	sh	a0,338(s2)
   18cb2:	14c90a23          	sb	a2,340(s2)
   18cb6:	14d90aa3          	sb	a3,341(s2)
   18cba:	14b90b23          	sb	a1,342(s2)
   18cbe:	7ff10513          	addi	a0,sp,2047
   18cc2:	0e850513          	addi	a0,a0,232
   18cc6:	6585                	lui	a1,0x1
   18cc8:	32058593          	addi	a1,a1,800 # 1320 <.Lline_table_start1+0x10f5>
   18ccc:	958a                	add	a1,a1,sp
   18cce:	4669                	li	a2,26
   18cd0:	00002097          	auipc	ra,0x2
   18cd4:	2a2080e7          	jalr	674(ra) # 1af72 <memcpy>
   18cd8:	6505                	lui	a0,0x1
   18cda:	37c50513          	addi	a0,a0,892 # 137c <.Lline_table_start1+0x1151>
   18cde:	950a                	add	a0,a0,sp
   18ce0:	7ff10593          	addi	a1,sp,2047
   18ce4:	0e158593          	addi	a1,a1,225
   18ce8:	ffff9097          	auipc	ra,0xffff9
   18cec:	6de080e7          	jalr	1758(ra) # 123c6 <_ZN20complex_full_dynamic3app17h3c861da2a95032dbE>
   18cf0:	3eca4503          	lbu	a0,1004(s4)
   18cf4:	c119                	beqz	a0,18cfa <_start+0x2058>
   18cf6:	4750106f          	j	1a96a <_start+0x3cc8>
   18cfa:	3eea4503          	lbu	a0,1006(s4)
   18cfe:	3eda4583          	lbu	a1,1005(s4)
   18d02:	3efa4603          	lbu	a2,1007(s4)
   18d06:	3f0a2403          	lw	s0,1008(s4)
   18d0a:	0522                	slli	a0,a0,0x8
   18d0c:	8d4d                	or	a0,a0,a1
   18d0e:	16a91a23          	sh	a0,372(s2)
   18d12:	16c90b23          	sb	a2,374(s2)
   18d16:	6505                	lui	a0,0x1
   18d18:	38450513          	addi	a0,a0,900 # 1384 <.Lline_table_start1+0x1159>
   18d1c:	00a105b3          	add	a1,sp,a0
   18d20:	6505                	lui	a0,0x1
   18d22:	32050513          	addi	a0,a0,800 # 1320 <.Lline_table_start1+0x10f5>
   18d26:	950a                	add	a0,a0,sp
   18d28:	04c00613          	li	a2,76
   18d2c:	00002097          	auipc	ra,0x2
   18d30:	246080e7          	jalr	582(ra) # 1af72 <memcpy>
   18d34:	01845513          	srli	a0,s0,0x18
   18d38:	01045593          	srli	a1,s0,0x10
   18d3c:	00845613          	srli	a2,s0,0x8
   18d40:	16890ba3          	sb	s0,375(s2)
   18d44:	16c90c23          	sb	a2,376(s2)
   18d48:	16b90ca3          	sb	a1,377(s2)
   18d4c:	16a90d23          	sb	a0,378(s2)
   18d50:	7ff10513          	addi	a0,sp,2047
   18d54:	10a50513          	addi	a0,a0,266
   18d58:	6585                	lui	a1,0x1
   18d5a:	32058593          	addi	a1,a1,800 # 1320 <.Lline_table_start1+0x10f5>
   18d5e:	958a                	add	a1,a1,sp
   18d60:	04c00613          	li	a2,76
   18d64:	00002097          	auipc	ra,0x2
   18d68:	20e080e7          	jalr	526(ra) # 1af72 <memcpy>
   18d6c:	6505                	lui	a0,0x1
   18d6e:	37c50513          	addi	a0,a0,892 # 137c <.Lline_table_start1+0x1151>
   18d72:	950a                	add	a0,a0,sp
   18d74:	7ff10593          	addi	a1,sp,2047
   18d78:	10358593          	addi	a1,a1,259
   18d7c:	ffffd097          	auipc	ra,0xffffd
   18d80:	bae080e7          	jalr	-1106(ra) # 1592a <_ZN20complex_full_dynamic3app17hce1f56223bb27207E>
   18d84:	3eca4503          	lbu	a0,1004(s4)
   18d88:	c119                	beqz	a0,18d8e <_start+0x20ec>
   18d8a:	3e10106f          	j	1a96a <_start+0x3cc8>
   18d8e:	3eea4503          	lbu	a0,1006(s4)
   18d92:	3eda4583          	lbu	a1,1005(s4)
   18d96:	3efa4603          	lbu	a2,1007(s4)
   18d9a:	3f0a2403          	lw	s0,1008(s4)
   18d9e:	0522                	slli	a0,a0,0x8
   18da0:	8d4d                	or	a0,a0,a1
   18da2:	1ca91423          	sh	a0,456(s2)
   18da6:	1cc90523          	sb	a2,458(s2)
   18daa:	6505                	lui	a0,0x1
   18dac:	38450513          	addi	a0,a0,900 # 1384 <.Lline_table_start1+0x1159>
   18db0:	00a105b3          	add	a1,sp,a0
   18db4:	6505                	lui	a0,0x1
   18db6:	32050513          	addi	a0,a0,800 # 1320 <.Lline_table_start1+0x10f5>
   18dba:	950a                	add	a0,a0,sp
   18dbc:	04600613          	li	a2,70
   18dc0:	00002097          	auipc	ra,0x2
   18dc4:	1b2080e7          	jalr	434(ra) # 1af72 <memcpy>
   18dc8:	01845513          	srli	a0,s0,0x18
   18dcc:	01045593          	srli	a1,s0,0x10
   18dd0:	00845613          	srli	a2,s0,0x8
   18dd4:	1c8905a3          	sb	s0,459(s2)
   18dd8:	1cc90623          	sb	a2,460(s2)
   18ddc:	1cb906a3          	sb	a1,461(s2)
   18de0:	1ca90723          	sb	a0,462(s2)
   18de4:	7ff10513          	addi	a0,sp,2047
   18de8:	15e50513          	addi	a0,a0,350
   18dec:	6585                	lui	a1,0x1
   18dee:	32058593          	addi	a1,a1,800 # 1320 <.Lline_table_start1+0x10f5>
   18df2:	958a                	add	a1,a1,sp
   18df4:	04600613          	li	a2,70
   18df8:	00002097          	auipc	ra,0x2
   18dfc:	17a080e7          	jalr	378(ra) # 1af72 <memcpy>
   18e00:	6505                	lui	a0,0x1
   18e02:	37c50513          	addi	a0,a0,892 # 137c <.Lline_table_start1+0x1151>
   18e06:	950a                	add	a0,a0,sp
   18e08:	7ff10593          	addi	a1,sp,2047
   18e0c:	15758593          	addi	a1,a1,343
   18e10:	ffffc097          	auipc	ra,0xffffc
   18e14:	8a2080e7          	jalr	-1886(ra) # 146b2 <_ZN20complex_full_dynamic3app17ha5b5cf8fdee8b935E>
   18e18:	3eca4503          	lbu	a0,1004(s4)
   18e1c:	c119                	beqz	a0,18e22 <_start+0x2180>
   18e1e:	34d0106f          	j	1a96a <_start+0x3cc8>
   18e22:	3eea4503          	lbu	a0,1006(s4)
   18e26:	3eda4583          	lbu	a1,1005(s4)
   18e2a:	3efa4603          	lbu	a2,1007(s4)
   18e2e:	3f0a2403          	lw	s0,1008(s4)
   18e32:	0522                	slli	a0,a0,0x8
   18e34:	8d4d                	or	a0,a0,a1
   18e36:	20a91b23          	sh	a0,534(s2)
   18e3a:	20c90c23          	sb	a2,536(s2)
   18e3e:	6505                	lui	a0,0x1
   18e40:	38450513          	addi	a0,a0,900 # 1384 <.Lline_table_start1+0x1159>
   18e44:	00a105b3          	add	a1,sp,a0
   18e48:	6505                	lui	a0,0x1
   18e4a:	32050513          	addi	a0,a0,800 # 1320 <.Lline_table_start1+0x10f5>
   18e4e:	950a                	add	a0,a0,sp
   18e50:	03500613          	li	a2,53
   18e54:	00002097          	auipc	ra,0x2
   18e58:	11e080e7          	jalr	286(ra) # 1af72 <memcpy>
   18e5c:	01845513          	srli	a0,s0,0x18
   18e60:	01045593          	srli	a1,s0,0x10
   18e64:	00845613          	srli	a2,s0,0x8
   18e68:	20890ca3          	sb	s0,537(s2)
   18e6c:	20c90d23          	sb	a2,538(s2)
   18e70:	20b90da3          	sb	a1,539(s2)
   18e74:	20a90e23          	sb	a0,540(s2)
   18e78:	7ff10513          	addi	a0,sp,2047
   18e7c:	1ac50513          	addi	a0,a0,428
   18e80:	6585                	lui	a1,0x1
   18e82:	32058593          	addi	a1,a1,800 # 1320 <.Lline_table_start1+0x10f5>
   18e86:	958a                	add	a1,a1,sp
   18e88:	03500613          	li	a2,53
   18e8c:	00002097          	auipc	ra,0x2
   18e90:	0e6080e7          	jalr	230(ra) # 1af72 <memcpy>
   18e94:	6505                	lui	a0,0x1
   18e96:	37c50513          	addi	a0,a0,892 # 137c <.Lline_table_start1+0x1151>
   18e9a:	950a                	add	a0,a0,sp
   18e9c:	7ff10593          	addi	a1,sp,2047
   18ea0:	1a558593          	addi	a1,a1,421
   18ea4:	ffffa097          	auipc	ra,0xffffa
   18ea8:	2c2080e7          	jalr	706(ra) # 13166 <_ZN20complex_full_dynamic3app17h5f31d2a6d315f7c1E>
   18eac:	3eca4503          	lbu	a0,1004(s4)
   18eb0:	c119                	beqz	a0,18eb6 <_start+0x2214>
   18eb2:	2b90106f          	j	1a96a <_start+0x3cc8>
   18eb6:	3eea4503          	lbu	a0,1006(s4)
   18eba:	3eda4583          	lbu	a1,1005(s4)
   18ebe:	3efa4603          	lbu	a2,1007(s4)
   18ec2:	3f0a2403          	lw	s0,1008(s4)
   18ec6:	0522                	slli	a0,a0,0x8
   18ec8:	8d4d                	or	a0,a0,a1
   18eca:	24a91923          	sh	a0,594(s2)
   18ece:	24c90a23          	sb	a2,596(s2)
   18ed2:	6505                	lui	a0,0x1
   18ed4:	38450513          	addi	a0,a0,900 # 1384 <.Lline_table_start1+0x1159>
   18ed8:	00a105b3          	add	a1,sp,a0
   18edc:	6505                	lui	a0,0x1
   18ede:	32050513          	addi	a0,a0,800 # 1320 <.Lline_table_start1+0x10f5>
   18ee2:	950a                	add	a0,a0,sp
   18ee4:	03100613          	li	a2,49
   18ee8:	00002097          	auipc	ra,0x2
   18eec:	08a080e7          	jalr	138(ra) # 1af72 <memcpy>
   18ef0:	01845513          	srli	a0,s0,0x18
   18ef4:	01045593          	srli	a1,s0,0x10
   18ef8:	00845613          	srli	a2,s0,0x8
   18efc:	24890aa3          	sb	s0,597(s2)
   18f00:	24c90b23          	sb	a2,598(s2)
   18f04:	24b90ba3          	sb	a1,599(s2)
   18f08:	24a90c23          	sb	a0,600(s2)
   18f0c:	7ff10513          	addi	a0,sp,2047
   18f10:	1e850513          	addi	a0,a0,488
   18f14:	6585                	lui	a1,0x1
   18f16:	32058593          	addi	a1,a1,800 # 1320 <.Lline_table_start1+0x10f5>
   18f1a:	958a                	add	a1,a1,sp
   18f1c:	03100613          	li	a2,49
   18f20:	00002097          	auipc	ra,0x2
   18f24:	052080e7          	jalr	82(ra) # 1af72 <memcpy>
   18f28:	6505                	lui	a0,0x1
   18f2a:	37c50513          	addi	a0,a0,892 # 137c <.Lline_table_start1+0x1151>
   18f2e:	950a                	add	a0,a0,sp
   18f30:	7ff10593          	addi	a1,sp,2047
   18f34:	1e158593          	addi	a1,a1,481
   18f38:	ffff9097          	auipc	ra,0xffff9
   18f3c:	ace080e7          	jalr	-1330(ra) # 11a06 <_ZN20complex_full_dynamic3app17h1985db6fed4a95aaE>
   18f40:	3eca4503          	lbu	a0,1004(s4)
   18f44:	c119                	beqz	a0,18f4a <_start+0x22a8>
   18f46:	2250106f          	j	1a96a <_start+0x3cc8>
   18f4a:	3eda4503          	lbu	a0,1005(s4)
   18f4e:	3eea4583          	lbu	a1,1006(s4)
   18f52:	3efa4603          	lbu	a2,1007(s4)
   18f56:	3f0a2683          	lw	a3,1008(s4)
   18f5a:	3f4a2703          	lw	a4,1012(s4)
   18f5e:	3f8a2783          	lw	a5,1016(s4)
   18f62:	3fca2483          	lw	s1,1020(s4)
   18f66:	400a2403          	lw	s0,1024(s4)
   18f6a:	38ea2823          	sw	a4,912(s4)
   18f6e:	38fa2a23          	sw	a5,916(s4)
   18f72:	389a2c23          	sw	s1,920(s4)
   18f76:	388a2e23          	sw	s0,924(s4)
   18f7a:	404a2703          	lw	a4,1028(s4)
   18f7e:	408a2783          	lw	a5,1032(s4)
   18f82:	40ca2483          	lw	s1,1036(s4)
   18f86:	410a2403          	lw	s0,1040(s4)
   18f8a:	05a2                	slli	a1,a1,0x8
   18f8c:	3aea2023          	sw	a4,928(s4)
   18f90:	3afa2223          	sw	a5,932(s4)
   18f94:	3a9a2423          	sw	s1,936(s4)
   18f98:	3a8a2623          	sw	s0,940(s4)
   18f9c:	0186d713          	srli	a4,a3,0x18
   18fa0:	8d4d                	or	a0,a0,a1
   18fa2:	0106d593          	srli	a1,a3,0x10
   18fa6:	28b907a3          	sb	a1,655(s2)
   18faa:	28e90823          	sb	a4,656(s2)
   18fae:	0086d593          	srli	a1,a3,0x8
   18fb2:	28a91523          	sh	a0,650(s2)
   18fb6:	28c90623          	sb	a2,652(s2)
   18fba:	28d906a3          	sb	a3,653(s2)
   18fbe:	28b90723          	sb	a1,654(s2)
   18fc2:	7ff10513          	addi	a0,sp,2047
   18fc6:	22050513          	addi	a0,a0,544
   18fca:	6585                	lui	a1,0x1
   18fcc:	32058593          	addi	a1,a1,800 # 1320 <.Lline_table_start1+0x10f5>
   18fd0:	958a                	add	a1,a1,sp
   18fd2:	02000613          	li	a2,32
   18fd6:	00002097          	auipc	ra,0x2
   18fda:	f9c080e7          	jalr	-100(ra) # 1af72 <memcpy>
   18fde:	6505                	lui	a0,0x1
   18fe0:	37c50513          	addi	a0,a0,892 # 137c <.Lline_table_start1+0x1151>
   18fe4:	950a                	add	a0,a0,sp
   18fe6:	7ff10593          	addi	a1,sp,2047
   18fea:	21958593          	addi	a1,a1,537
   18fee:	ffffb097          	auipc	ra,0xffffb
   18ff2:	0f6080e7          	jalr	246(ra) # 140e4 <_ZN20complex_full_dynamic3app17h9fa71ecd2d877553E>
   18ff6:	3eca4503          	lbu	a0,1004(s4)
   18ffa:	c119                	beqz	a0,19000 <_start+0x235e>
   18ffc:	16f0106f          	j	1a96a <_start+0x3cc8>
   19000:	3eea4503          	lbu	a0,1006(s4)
   19004:	3eda4583          	lbu	a1,1005(s4)
   19008:	3efa4603          	lbu	a2,1007(s4)
   1900c:	3f0a2403          	lw	s0,1008(s4)
   19010:	0522                	slli	a0,a0,0x8
   19012:	8d4d                	or	a0,a0,a1
   19014:	2aa91923          	sh	a0,690(s2)
   19018:	2ac90a23          	sb	a2,692(s2)
   1901c:	6505                	lui	a0,0x1
   1901e:	38450513          	addi	a0,a0,900 # 1384 <.Lline_table_start1+0x1159>
   19022:	00a105b3          	add	a1,sp,a0
   19026:	6505                	lui	a0,0x1
   19028:	32050513          	addi	a0,a0,800 # 1320 <.Lline_table_start1+0x10f5>
   1902c:	950a                	add	a0,a0,sp
   1902e:	04a00613          	li	a2,74
   19032:	00002097          	auipc	ra,0x2
   19036:	f40080e7          	jalr	-192(ra) # 1af72 <memcpy>
   1903a:	01845513          	srli	a0,s0,0x18
   1903e:	01045593          	srli	a1,s0,0x10
   19042:	00845613          	srli	a2,s0,0x8
   19046:	2a890aa3          	sb	s0,693(s2)
   1904a:	2ac90b23          	sb	a2,694(s2)
   1904e:	2ab90ba3          	sb	a1,695(s2)
   19052:	2aa90c23          	sb	a0,696(s2)
   19056:	7ff10513          	addi	a0,sp,2047
   1905a:	24850513          	addi	a0,a0,584
   1905e:	6585                	lui	a1,0x1
   19060:	32058593          	addi	a1,a1,800 # 1320 <.Lline_table_start1+0x10f5>
   19064:	958a                	add	a1,a1,sp
   19066:	04a00613          	li	a2,74
   1906a:	00002097          	auipc	ra,0x2
   1906e:	f08080e7          	jalr	-248(ra) # 1af72 <memcpy>
   19072:	6505                	lui	a0,0x1
   19074:	37c50513          	addi	a0,a0,892 # 137c <.Lline_table_start1+0x1151>
   19078:	950a                	add	a0,a0,sp
   1907a:	7ff10593          	addi	a1,sp,2047
   1907e:	24158593          	addi	a1,a1,577
   19082:	ffffc097          	auipc	ra,0xffffc
   19086:	b0c080e7          	jalr	-1268(ra) # 14b8e <_ZN20complex_full_dynamic3app17haf34c53cbe7fb8efE>
   1908a:	3eca4503          	lbu	a0,1004(s4)
   1908e:	c119                	beqz	a0,19094 <_start+0x23f2>
   19090:	0db0106f          	j	1a96a <_start+0x3cc8>
   19094:	3eea4503          	lbu	a0,1006(s4)
   19098:	3eda4583          	lbu	a1,1005(s4)
   1909c:	3efa4603          	lbu	a2,1007(s4)
   190a0:	3f0a2403          	lw	s0,1008(s4)
   190a4:	0522                	slli	a0,a0,0x8
   190a6:	8d4d                	or	a0,a0,a1
   190a8:	30a91223          	sh	a0,772(s2)
   190ac:	30c90323          	sb	a2,774(s2)
   190b0:	6505                	lui	a0,0x1
   190b2:	38450513          	addi	a0,a0,900 # 1384 <.Lline_table_start1+0x1159>
   190b6:	00a105b3          	add	a1,sp,a0
   190ba:	6505                	lui	a0,0x1
   190bc:	32050513          	addi	a0,a0,800 # 1320 <.Lline_table_start1+0x10f5>
   190c0:	950a                	add	a0,a0,sp
   190c2:	04800613          	li	a2,72
   190c6:	00002097          	auipc	ra,0x2
   190ca:	eac080e7          	jalr	-340(ra) # 1af72 <memcpy>
   190ce:	01845513          	srli	a0,s0,0x18
   190d2:	01045593          	srli	a1,s0,0x10
   190d6:	00845613          	srli	a2,s0,0x8
   190da:	308903a3          	sb	s0,775(s2)
   190de:	30c90423          	sb	a2,776(s2)
   190e2:	30b904a3          	sb	a1,777(s2)
   190e6:	30a90523          	sb	a0,778(s2)
   190ea:	7ff10513          	addi	a0,sp,2047
   190ee:	29a50513          	addi	a0,a0,666
   190f2:	6585                	lui	a1,0x1
   190f4:	32058593          	addi	a1,a1,800 # 1320 <.Lline_table_start1+0x10f5>
   190f8:	958a                	add	a1,a1,sp
   190fa:	04800613          	li	a2,72
   190fe:	00002097          	auipc	ra,0x2
   19102:	e74080e7          	jalr	-396(ra) # 1af72 <memcpy>
   19106:	6505                	lui	a0,0x1
   19108:	37c50513          	addi	a0,a0,892 # 137c <.Lline_table_start1+0x1151>
   1910c:	950a                	add	a0,a0,sp
   1910e:	7ff10593          	addi	a1,sp,2047
   19112:	29358593          	addi	a1,a1,659
   19116:	ffff9097          	auipc	ra,0xffff9
   1911a:	4a4080e7          	jalr	1188(ra) # 125ba <_ZN20complex_full_dynamic3app17h49c93b5924149314E>
   1911e:	3eca4503          	lbu	a0,1004(s4)
   19122:	c119                	beqz	a0,19128 <_start+0x2486>
   19124:	0470106f          	j	1a96a <_start+0x3cc8>
   19128:	3eea4503          	lbu	a0,1006(s4)
   1912c:	3eda4583          	lbu	a1,1005(s4)
   19130:	3efa4603          	lbu	a2,1007(s4)
   19134:	3f0a2403          	lw	s0,1008(s4)
   19138:	0522                	slli	a0,a0,0x8
   1913a:	8d4d                	or	a0,a0,a1
   1913c:	34a91a23          	sh	a0,852(s2)
   19140:	34c90b23          	sb	a2,854(s2)
   19144:	6505                	lui	a0,0x1
   19146:	38450513          	addi	a0,a0,900 # 1384 <.Lline_table_start1+0x1159>
   1914a:	00a105b3          	add	a1,sp,a0
   1914e:	6505                	lui	a0,0x1
   19150:	32050513          	addi	a0,a0,800 # 1320 <.Lline_table_start1+0x10f5>
   19154:	950a                	add	a0,a0,sp
   19156:	05a00613          	li	a2,90
   1915a:	00002097          	auipc	ra,0x2
   1915e:	e18080e7          	jalr	-488(ra) # 1af72 <memcpy>
   19162:	01845513          	srli	a0,s0,0x18
   19166:	01045593          	srli	a1,s0,0x10
   1916a:	00845613          	srli	a2,s0,0x8
   1916e:	34890ba3          	sb	s0,855(s2)
   19172:	34c90c23          	sb	a2,856(s2)
   19176:	34b90ca3          	sb	a1,857(s2)
   1917a:	34a90d23          	sb	a0,858(s2)
   1917e:	7ff10513          	addi	a0,sp,2047
   19182:	2ea50513          	addi	a0,a0,746
   19186:	6585                	lui	a1,0x1
   19188:	32058593          	addi	a1,a1,800 # 1320 <.Lline_table_start1+0x10f5>
   1918c:	958a                	add	a1,a1,sp
   1918e:	05a00613          	li	a2,90
   19192:	00002097          	auipc	ra,0x2
   19196:	de0080e7          	jalr	-544(ra) # 1af72 <memcpy>
   1919a:	6505                	lui	a0,0x1
   1919c:	37c50513          	addi	a0,a0,892 # 137c <.Lline_table_start1+0x1151>
   191a0:	950a                	add	a0,a0,sp
   191a2:	7ff10593          	addi	a1,sp,2047
   191a6:	2e358593          	addi	a1,a1,739
   191aa:	ffff9097          	auipc	ra,0xffff9
   191ae:	e34080e7          	jalr	-460(ra) # 11fde <_ZN20complex_full_dynamic3app17h349d1ea811f99228E>
   191b2:	3eca4503          	lbu	a0,1004(s4)
   191b6:	c119                	beqz	a0,191bc <_start+0x251a>
   191b8:	7b20106f          	j	1a96a <_start+0x3cc8>
   191bc:	3eda4503          	lbu	a0,1005(s4)
   191c0:	3eea4583          	lbu	a1,1006(s4)
   191c4:	3efa4603          	lbu	a2,1007(s4)
   191c8:	3f0a2683          	lw	a3,1008(s4)
   191cc:	3f4a2703          	lw	a4,1012(s4)
   191d0:	3f8a2783          	lw	a5,1016(s4)
   191d4:	3fca2483          	lw	s1,1020(s4)
   191d8:	400a2403          	lw	s0,1024(s4)
   191dc:	38ea2823          	sw	a4,912(s4)
   191e0:	38fa2a23          	sw	a5,916(s4)
   191e4:	389a2c23          	sw	s1,920(s4)
   191e8:	388a2e23          	sw	s0,924(s4)
   191ec:	404a2703          	lw	a4,1028(s4)
   191f0:	408a1783          	lh	a5,1032(s4)
   191f4:	40aa4483          	lbu	s1,1034(s4)
   191f8:	05a2                	slli	a1,a1,0x8
   191fa:	3aea2023          	sw	a4,928(s4)
   191fe:	3afa1223          	sh	a5,932(s4)
   19202:	3a9a0323          	sb	s1,934(s4)
   19206:	0186d713          	srli	a4,a3,0x18
   1920a:	8d4d                	or	a0,a0,a1
   1920c:	0106d593          	srli	a1,a3,0x10
   19210:	3ab90da3          	sb	a1,955(s2)
   19214:	3ae90e23          	sb	a4,956(s2)
   19218:	0086d593          	srli	a1,a3,0x8
   1921c:	3aa91b23          	sh	a0,950(s2)
   19220:	3ac90c23          	sb	a2,952(s2)
   19224:	3ad90ca3          	sb	a3,953(s2)
   19228:	3ab90d23          	sb	a1,954(s2)
   1922c:	7ff10513          	addi	a0,sp,2047
   19230:	34c50513          	addi	a0,a0,844
   19234:	6585                	lui	a1,0x1
   19236:	32058593          	addi	a1,a1,800 # 1320 <.Lline_table_start1+0x10f5>
   1923a:	958a                	add	a1,a1,sp
   1923c:	465d                	li	a2,23
   1923e:	00002097          	auipc	ra,0x2
   19242:	d34080e7          	jalr	-716(ra) # 1af72 <memcpy>
   19246:	6505                	lui	a0,0x1
   19248:	37c50513          	addi	a0,a0,892 # 137c <.Lline_table_start1+0x1151>
   1924c:	950a                	add	a0,a0,sp
   1924e:	7ff10593          	addi	a1,sp,2047
   19252:	34558593          	addi	a1,a1,837
   19256:	ffffa097          	auipc	ra,0xffffa
   1925a:	3f8080e7          	jalr	1016(ra) # 1364e <_ZN20complex_full_dynamic3app17h7a4d3f9b8e0cace8E>
   1925e:	3eca4503          	lbu	a0,1004(s4)
   19262:	c119                	beqz	a0,19268 <_start+0x25c6>
   19264:	7060106f          	j	1a96a <_start+0x3cc8>
   19268:	3eda4503          	lbu	a0,1005(s4)
   1926c:	3eea4583          	lbu	a1,1006(s4)
   19270:	3efa4603          	lbu	a2,1007(s4)
   19274:	3f0a2683          	lw	a3,1008(s4)
   19278:	3f4a2703          	lw	a4,1012(s4)
   1927c:	3f8a2783          	lw	a5,1016(s4)
   19280:	3fca2483          	lw	s1,1020(s4)
   19284:	400a2403          	lw	s0,1024(s4)
   19288:	38ea2823          	sw	a4,912(s4)
   1928c:	38fa2a23          	sw	a5,916(s4)
   19290:	389a2c23          	sw	s1,920(s4)
   19294:	388a2e23          	sw	s0,924(s4)
   19298:	404a2703          	lw	a4,1028(s4)
   1929c:	408a2783          	lw	a5,1032(s4)
   192a0:	40ca1483          	lh	s1,1036(s4)
   192a4:	05a2                	slli	a1,a1,0x8
   192a6:	3aea2023          	sw	a4,928(s4)
   192aa:	3afa2223          	sw	a5,932(s4)
   192ae:	3a9a1423          	sh	s1,936(s4)
   192b2:	0186d713          	srli	a4,a3,0x18
   192b6:	8d4d                	or	a0,a0,a1
   192b8:	0106d593          	srli	a1,a3,0x10
   192bc:	3cb90ca3          	sb	a1,985(s2)
   192c0:	3ce90d23          	sb	a4,986(s2)
   192c4:	0086d593          	srli	a1,a3,0x8
   192c8:	3ca91a23          	sh	a0,980(s2)
   192cc:	3cc90b23          	sb	a2,982(s2)
   192d0:	3cd90ba3          	sb	a3,983(s2)
   192d4:	3cb90c23          	sb	a1,984(s2)
   192d8:	7ff10513          	addi	a0,sp,2047
   192dc:	36a50513          	addi	a0,a0,874
   192e0:	6585                	lui	a1,0x1
   192e2:	32058593          	addi	a1,a1,800 # 1320 <.Lline_table_start1+0x10f5>
   192e6:	958a                	add	a1,a1,sp
   192e8:	4669                	li	a2,26
   192ea:	00002097          	auipc	ra,0x2
   192ee:	c88080e7          	jalr	-888(ra) # 1af72 <memcpy>
   192f2:	6505                	lui	a0,0x1
   192f4:	37c50513          	addi	a0,a0,892 # 137c <.Lline_table_start1+0x1151>
   192f8:	950a                	add	a0,a0,sp
   192fa:	7ff10593          	addi	a1,sp,2047
   192fe:	36358593          	addi	a1,a1,867
   19302:	ffff8097          	auipc	ra,0xffff8
   19306:	316080e7          	jalr	790(ra) # 11618 <_ZN20complex_full_dynamic3app17h11429e58d6456ffaE>
   1930a:	3eca4503          	lbu	a0,1004(s4)
   1930e:	c119                	beqz	a0,19314 <_start+0x2672>
   19310:	65a0106f          	j	1a96a <_start+0x3cc8>
   19314:	3eea4503          	lbu	a0,1006(s4)
   19318:	3eda4583          	lbu	a1,1005(s4)
   1931c:	3efa4603          	lbu	a2,1007(s4)
   19320:	3f0a2403          	lw	s0,1008(s4)
   19324:	0522                	slli	a0,a0,0x8
   19326:	8d4d                	or	a0,a0,a1
   19328:	3ea91b23          	sh	a0,1014(s2)
   1932c:	3ec90c23          	sb	a2,1016(s2)
   19330:	6505                	lui	a0,0x1
   19332:	38450513          	addi	a0,a0,900 # 1384 <.Lline_table_start1+0x1159>
   19336:	00a105b3          	add	a1,sp,a0
   1933a:	6505                	lui	a0,0x1
   1933c:	32050513          	addi	a0,a0,800 # 1320 <.Lline_table_start1+0x10f5>
   19340:	950a                	add	a0,a0,sp
   19342:	02300613          	li	a2,35
   19346:	00002097          	auipc	ra,0x2
   1934a:	c2c080e7          	jalr	-980(ra) # 1af72 <memcpy>
   1934e:	01845513          	srli	a0,s0,0x18
   19352:	01045593          	srli	a1,s0,0x10
   19356:	00845613          	srli	a2,s0,0x8
   1935a:	3e890ca3          	sb	s0,1017(s2)
   1935e:	3ec90d23          	sb	a2,1018(s2)
   19362:	3eb90da3          	sb	a1,1019(s2)
   19366:	3ea90e23          	sb	a0,1020(s2)
   1936a:	7ff10513          	addi	a0,sp,2047
   1936e:	38c50513          	addi	a0,a0,908
   19372:	6585                	lui	a1,0x1
   19374:	32058593          	addi	a1,a1,800 # 1320 <.Lline_table_start1+0x10f5>
   19378:	958a                	add	a1,a1,sp
   1937a:	02300613          	li	a2,35
   1937e:	00002097          	auipc	ra,0x2
   19382:	bf4080e7          	jalr	-1036(ra) # 1af72 <memcpy>
   19386:	6505                	lui	a0,0x1
   19388:	37c50513          	addi	a0,a0,892 # 137c <.Lline_table_start1+0x1151>
   1938c:	950a                	add	a0,a0,sp
   1938e:	7ff10593          	addi	a1,sp,2047
   19392:	38558593          	addi	a1,a1,901
   19396:	ffff8097          	auipc	ra,0xffff8
   1939a:	090080e7          	jalr	144(ra) # 11426 <_ZN20complex_full_dynamic3app17h0746dba7a66106e1E>
   1939e:	3eca4503          	lbu	a0,1004(s4)
   193a2:	c119                	beqz	a0,193a8 <_start+0x2706>
   193a4:	5c60106f          	j	1a96a <_start+0x3cc8>
   193a8:	3eea4503          	lbu	a0,1006(s4)
   193ac:	3eda4583          	lbu	a1,1005(s4)
   193b0:	3efa4603          	lbu	a2,1007(s4)
   193b4:	3f0a2403          	lw	s0,1008(s4)
   193b8:	0522                	slli	a0,a0,0x8
   193ba:	8d4d                	or	a0,a0,a1
   193bc:	42a91023          	sh	a0,1056(s2)
   193c0:	42c90123          	sb	a2,1058(s2)
   193c4:	6505                	lui	a0,0x1
   193c6:	38450513          	addi	a0,a0,900 # 1384 <.Lline_table_start1+0x1159>
   193ca:	00a105b3          	add	a1,sp,a0
   193ce:	6505                	lui	a0,0x1
   193d0:	32050513          	addi	a0,a0,800 # 1320 <.Lline_table_start1+0x10f5>
   193d4:	950a                	add	a0,a0,sp
   193d6:	05200613          	li	a2,82
   193da:	00002097          	auipc	ra,0x2
   193de:	b98080e7          	jalr	-1128(ra) # 1af72 <memcpy>
   193e2:	01845513          	srli	a0,s0,0x18
   193e6:	01045593          	srli	a1,s0,0x10
   193ea:	00845613          	srli	a2,s0,0x8
   193ee:	428901a3          	sb	s0,1059(s2)
   193f2:	42c90223          	sb	a2,1060(s2)
   193f6:	42b902a3          	sb	a1,1061(s2)
   193fa:	42a90323          	sb	a0,1062(s2)
   193fe:	7ff10513          	addi	a0,sp,2047
   19402:	3b650513          	addi	a0,a0,950
   19406:	6585                	lui	a1,0x1
   19408:	32058593          	addi	a1,a1,800 # 1320 <.Lline_table_start1+0x10f5>
   1940c:	958a                	add	a1,a1,sp
   1940e:	05200613          	li	a2,82
   19412:	00002097          	auipc	ra,0x2
   19416:	b60080e7          	jalr	-1184(ra) # 1af72 <memcpy>
   1941a:	6505                	lui	a0,0x1
   1941c:	37c50513          	addi	a0,a0,892 # 137c <.Lline_table_start1+0x1151>
   19420:	950a                	add	a0,a0,sp
   19422:	7ff10593          	addi	a1,sp,2047
   19426:	3af58593          	addi	a1,a1,943
   1942a:	ffff9097          	auipc	ra,0xffff9
   1942e:	9be080e7          	jalr	-1602(ra) # 11de8 <_ZN20complex_full_dynamic3app17h298711a2b652364eE>
   19432:	3eca4503          	lbu	a0,1004(s4)
   19436:	c119                	beqz	a0,1943c <_start+0x279a>
   19438:	5320106f          	j	1a96a <_start+0x3cc8>
   1943c:	3eea4503          	lbu	a0,1006(s4)
   19440:	3eda4583          	lbu	a1,1005(s4)
   19444:	3efa4603          	lbu	a2,1007(s4)
   19448:	3f0a2403          	lw	s0,1008(s4)
   1944c:	0522                	slli	a0,a0,0x8
   1944e:	8d4d                	or	a0,a0,a1
   19450:	46a91d23          	sh	a0,1146(s2)
   19454:	46c90e23          	sb	a2,1148(s2)
   19458:	6505                	lui	a0,0x1
   1945a:	38450513          	addi	a0,a0,900 # 1384 <.Lline_table_start1+0x1159>
   1945e:	00a105b3          	add	a1,sp,a0
   19462:	6505                	lui	a0,0x1
   19464:	32050513          	addi	a0,a0,800 # 1320 <.Lline_table_start1+0x10f5>
   19468:	950a                	add	a0,a0,sp
   1946a:	04300613          	li	a2,67
   1946e:	00002097          	auipc	ra,0x2
   19472:	b04080e7          	jalr	-1276(ra) # 1af72 <memcpy>
   19476:	01845513          	srli	a0,s0,0x18
   1947a:	01045593          	srli	a1,s0,0x10
   1947e:	00845613          	srli	a2,s0,0x8
   19482:	46890ea3          	sb	s0,1149(s2)
   19486:	46c90f23          	sb	a2,1150(s2)
   1948a:	46b90fa3          	sb	a1,1151(s2)
   1948e:	48a90023          	sb	a0,1152(s2)
   19492:	7ff10513          	addi	a0,sp,2047
   19496:	41050513          	addi	a0,a0,1040
   1949a:	6585                	lui	a1,0x1
   1949c:	32058593          	addi	a1,a1,800 # 1320 <.Lline_table_start1+0x10f5>
   194a0:	958a                	add	a1,a1,sp
   194a2:	04300613          	li	a2,67
   194a6:	00002097          	auipc	ra,0x2
   194aa:	acc080e7          	jalr	-1332(ra) # 1af72 <memcpy>
   194ae:	6505                	lui	a0,0x1
   194b0:	37c50513          	addi	a0,a0,892 # 137c <.Lline_table_start1+0x1151>
   194b4:	950a                	add	a0,a0,sp
   194b6:	7ff10593          	addi	a1,sp,2047
   194ba:	40958593          	addi	a1,a1,1033
   194be:	ffffd097          	auipc	ra,0xffffd
   194c2:	b38080e7          	jalr	-1224(ra) # 15ff6 <_ZN20complex_full_dynamic3app17he27361bd5661cc2aE>
   194c6:	3eca4503          	lbu	a0,1004(s4)
   194ca:	c119                	beqz	a0,194d0 <_start+0x282e>
   194cc:	49e0106f          	j	1a96a <_start+0x3cc8>
   194d0:	3eea4503          	lbu	a0,1006(s4)
   194d4:	3eda4583          	lbu	a1,1005(s4)
   194d8:	3efa4603          	lbu	a2,1007(s4)
   194dc:	3f0a2403          	lw	s0,1008(s4)
   194e0:	0522                	slli	a0,a0,0x8
   194e2:	8d4d                	or	a0,a0,a1
   194e4:	4ca91223          	sh	a0,1220(s2)
   194e8:	4cc90323          	sb	a2,1222(s2)
   194ec:	6505                	lui	a0,0x1
   194ee:	38450513          	addi	a0,a0,900 # 1384 <.Lline_table_start1+0x1159>
   194f2:	00a105b3          	add	a1,sp,a0
   194f6:	6505                	lui	a0,0x1
   194f8:	32050513          	addi	a0,a0,800 # 1320 <.Lline_table_start1+0x10f5>
   194fc:	950a                	add	a0,a0,sp
   194fe:	02600613          	li	a2,38
   19502:	00002097          	auipc	ra,0x2
   19506:	a70080e7          	jalr	-1424(ra) # 1af72 <memcpy>
   1950a:	01845513          	srli	a0,s0,0x18
   1950e:	01045593          	srli	a1,s0,0x10
   19512:	00845613          	srli	a2,s0,0x8
   19516:	4c8903a3          	sb	s0,1223(s2)
   1951a:	4cc90423          	sb	a2,1224(s2)
   1951e:	4cb904a3          	sb	a1,1225(s2)
   19522:	4ca90523          	sb	a0,1226(s2)
   19526:	7ff10513          	addi	a0,sp,2047
   1952a:	45a50513          	addi	a0,a0,1114
   1952e:	6585                	lui	a1,0x1
   19530:	32058593          	addi	a1,a1,800 # 1320 <.Lline_table_start1+0x10f5>
   19534:	958a                	add	a1,a1,sp
   19536:	02600613          	li	a2,38
   1953a:	00002097          	auipc	ra,0x2
   1953e:	a38080e7          	jalr	-1480(ra) # 1af72 <memcpy>
   19542:	6505                	lui	a0,0x1
   19544:	37c50513          	addi	a0,a0,892 # 137c <.Lline_table_start1+0x1151>
   19548:	950a                	add	a0,a0,sp
   1954a:	7ff10593          	addi	a1,sp,2047
   1954e:	45358593          	addi	a1,a1,1107
   19552:	ffffa097          	auipc	ra,0xffffa
   19556:	d0e080e7          	jalr	-754(ra) # 13260 <_ZN20complex_full_dynamic3app17h6d5c64828302f989E>
   1955a:	3eca4503          	lbu	a0,1004(s4)
   1955e:	c119                	beqz	a0,19564 <_start+0x28c2>
   19560:	40a0106f          	j	1a96a <_start+0x3cc8>
   19564:	3eea4503          	lbu	a0,1006(s4)
   19568:	3eda4583          	lbu	a1,1005(s4)
   1956c:	3efa4603          	lbu	a2,1007(s4)
   19570:	3f0a2403          	lw	s0,1008(s4)
   19574:	0522                	slli	a0,a0,0x8
   19576:	8d4d                	or	a0,a0,a1
   19578:	4ea91923          	sh	a0,1266(s2)
   1957c:	4ec90a23          	sb	a2,1268(s2)
   19580:	6505                	lui	a0,0x1
   19582:	38450513          	addi	a0,a0,900 # 1384 <.Lline_table_start1+0x1159>
   19586:	00a105b3          	add	a1,sp,a0
   1958a:	6505                	lui	a0,0x1
   1958c:	32050513          	addi	a0,a0,800 # 1320 <.Lline_table_start1+0x10f5>
   19590:	950a                	add	a0,a0,sp
   19592:	04c00613          	li	a2,76
   19596:	00002097          	auipc	ra,0x2
   1959a:	9dc080e7          	jalr	-1572(ra) # 1af72 <memcpy>
   1959e:	01845513          	srli	a0,s0,0x18
   195a2:	01045593          	srli	a1,s0,0x10
   195a6:	00845613          	srli	a2,s0,0x8
   195aa:	4e890aa3          	sb	s0,1269(s2)
   195ae:	4ec90b23          	sb	a2,1270(s2)
   195b2:	4eb90ba3          	sb	a1,1271(s2)
   195b6:	4ea90c23          	sb	a0,1272(s2)
   195ba:	7ff10513          	addi	a0,sp,2047
   195be:	48850513          	addi	a0,a0,1160
   195c2:	6585                	lui	a1,0x1
   195c4:	32058593          	addi	a1,a1,800 # 1320 <.Lline_table_start1+0x10f5>
   195c8:	958a                	add	a1,a1,sp
   195ca:	04c00613          	li	a2,76
   195ce:	00002097          	auipc	ra,0x2
   195d2:	9a4080e7          	jalr	-1628(ra) # 1af72 <memcpy>
   195d6:	6505                	lui	a0,0x1
   195d8:	37c50513          	addi	a0,a0,892 # 137c <.Lline_table_start1+0x1151>
   195dc:	950a                	add	a0,a0,sp
   195de:	7ff10593          	addi	a1,sp,2047
   195e2:	48158593          	addi	a1,a1,1153
   195e6:	ffffd097          	auipc	ra,0xffffd
   195ea:	df6080e7          	jalr	-522(ra) # 163dc <_ZN20complex_full_dynamic3app17hec17da161b81cb20E>
   195ee:	3eca4503          	lbu	a0,1004(s4)
   195f2:	c119                	beqz	a0,195f8 <_start+0x2956>
   195f4:	3760106f          	j	1a96a <_start+0x3cc8>
   195f8:	3eea4503          	lbu	a0,1006(s4)
   195fc:	3eda4583          	lbu	a1,1005(s4)
   19600:	3efa4603          	lbu	a2,1007(s4)
   19604:	3f0a2403          	lw	s0,1008(s4)
   19608:	0522                	slli	a0,a0,0x8
   1960a:	8d4d                	or	a0,a0,a1
   1960c:	54a91323          	sh	a0,1350(s2)
   19610:	54c90423          	sb	a2,1352(s2)
   19614:	6505                	lui	a0,0x1
   19616:	38450513          	addi	a0,a0,900 # 1384 <.Lline_table_start1+0x1159>
   1961a:	00a105b3          	add	a1,sp,a0
   1961e:	6505                	lui	a0,0x1
   19620:	32050513          	addi	a0,a0,800 # 1320 <.Lline_table_start1+0x10f5>
   19624:	950a                	add	a0,a0,sp
   19626:	03300613          	li	a2,51
   1962a:	00002097          	auipc	ra,0x2
   1962e:	948080e7          	jalr	-1720(ra) # 1af72 <memcpy>
   19632:	01845513          	srli	a0,s0,0x18
   19636:	01045593          	srli	a1,s0,0x10
   1963a:	00845613          	srli	a2,s0,0x8
   1963e:	548904a3          	sb	s0,1353(s2)
   19642:	54c90523          	sb	a2,1354(s2)
   19646:	54b905a3          	sb	a1,1355(s2)
   1964a:	54a90623          	sb	a0,1356(s2)
   1964e:	7ff10513          	addi	a0,sp,2047
   19652:	4dc50513          	addi	a0,a0,1244
   19656:	6585                	lui	a1,0x1
   19658:	32058593          	addi	a1,a1,800 # 1320 <.Lline_table_start1+0x10f5>
   1965c:	958a                	add	a1,a1,sp
   1965e:	03300613          	li	a2,51
   19662:	00002097          	auipc	ra,0x2
   19666:	910080e7          	jalr	-1776(ra) # 1af72 <memcpy>
   1966a:	6505                	lui	a0,0x1
   1966c:	37c50513          	addi	a0,a0,892 # 137c <.Lline_table_start1+0x1151>
   19670:	950a                	add	a0,a0,sp
   19672:	7ff10593          	addi	a1,sp,2047
   19676:	4d558593          	addi	a1,a1,1237
   1967a:	ffffc097          	auipc	ra,0xffffc
   1967e:	786080e7          	jalr	1926(ra) # 15e00 <_ZN20complex_full_dynamic3app17hdf54596007671da4E>
   19682:	3eca4503          	lbu	a0,1004(s4)
   19686:	c119                	beqz	a0,1968c <_start+0x29ea>
   19688:	2e20106f          	j	1a96a <_start+0x3cc8>
   1968c:	3eea4503          	lbu	a0,1006(s4)
   19690:	3eda4583          	lbu	a1,1005(s4)
   19694:	3efa4603          	lbu	a2,1007(s4)
   19698:	3f0a2403          	lw	s0,1008(s4)
   1969c:	0522                	slli	a0,a0,0x8
   1969e:	8d4d                	or	a0,a0,a1
   196a0:	58a91023          	sh	a0,1408(s2)
   196a4:	58c90123          	sb	a2,1410(s2)
   196a8:	6505                	lui	a0,0x1
   196aa:	38450513          	addi	a0,a0,900 # 1384 <.Lline_table_start1+0x1159>
   196ae:	00a105b3          	add	a1,sp,a0
   196b2:	6505                	lui	a0,0x1
   196b4:	32050513          	addi	a0,a0,800 # 1320 <.Lline_table_start1+0x10f5>
   196b8:	950a                	add	a0,a0,sp
   196ba:	05600613          	li	a2,86
   196be:	00002097          	auipc	ra,0x2
   196c2:	8b4080e7          	jalr	-1868(ra) # 1af72 <memcpy>
   196c6:	01845513          	srli	a0,s0,0x18
   196ca:	01045593          	srli	a1,s0,0x10
   196ce:	00845613          	srli	a2,s0,0x8
   196d2:	588901a3          	sb	s0,1411(s2)
   196d6:	58c90223          	sb	a2,1412(s2)
   196da:	58b902a3          	sb	a1,1413(s2)
   196de:	58a90323          	sb	a0,1414(s2)
   196e2:	7ff10513          	addi	a0,sp,2047
   196e6:	51650513          	addi	a0,a0,1302
   196ea:	6585                	lui	a1,0x1
   196ec:	32058593          	addi	a1,a1,800 # 1320 <.Lline_table_start1+0x10f5>
   196f0:	958a                	add	a1,a1,sp
   196f2:	05600613          	li	a2,86
   196f6:	00002097          	auipc	ra,0x2
   196fa:	87c080e7          	jalr	-1924(ra) # 1af72 <memcpy>
   196fe:	6505                	lui	a0,0x1
   19700:	37c50513          	addi	a0,a0,892 # 137c <.Lline_table_start1+0x1151>
   19704:	950a                	add	a0,a0,sp
   19706:	7ff10593          	addi	a1,sp,2047
   1970a:	50f58593          	addi	a1,a1,1295
   1970e:	ffffb097          	auipc	ra,0xffffb
   19712:	09e080e7          	jalr	158(ra) # 147ac <_ZN20complex_full_dynamic3app17ha7251b6a90c802e8E>
   19716:	3eca4503          	lbu	a0,1004(s4)
   1971a:	c119                	beqz	a0,19720 <_start+0x2a7e>
   1971c:	24e0106f          	j	1a96a <_start+0x3cc8>
   19720:	3eea4503          	lbu	a0,1006(s4)
   19724:	3eda4583          	lbu	a1,1005(s4)
   19728:	3efa4603          	lbu	a2,1007(s4)
   1972c:	3f0a2403          	lw	s0,1008(s4)
   19730:	0522                	slli	a0,a0,0x8
   19732:	8d4d                	or	a0,a0,a1
   19734:	5ca91f23          	sh	a0,1502(s2)
   19738:	5ec90023          	sb	a2,1504(s2)
   1973c:	6505                	lui	a0,0x1
   1973e:	38450513          	addi	a0,a0,900 # 1384 <.Lline_table_start1+0x1159>
   19742:	00a105b3          	add	a1,sp,a0
   19746:	6505                	lui	a0,0x1
   19748:	32050513          	addi	a0,a0,800 # 1320 <.Lline_table_start1+0x10f5>
   1974c:	950a                	add	a0,a0,sp
   1974e:	03900613          	li	a2,57
   19752:	00002097          	auipc	ra,0x2
   19756:	820080e7          	jalr	-2016(ra) # 1af72 <memcpy>
   1975a:	01845513          	srli	a0,s0,0x18
   1975e:	01045593          	srli	a1,s0,0x10
   19762:	00845613          	srli	a2,s0,0x8
   19766:	5e8900a3          	sb	s0,1505(s2)
   1976a:	5ec90123          	sb	a2,1506(s2)
   1976e:	5eb901a3          	sb	a1,1507(s2)
   19772:	5ea90223          	sb	a0,1508(s2)
   19776:	7ff10513          	addi	a0,sp,2047
   1977a:	57450513          	addi	a0,a0,1396
   1977e:	6585                	lui	a1,0x1
   19780:	32058593          	addi	a1,a1,800 # 1320 <.Lline_table_start1+0x10f5>
   19784:	958a                	add	a1,a1,sp
   19786:	03900613          	li	a2,57
   1978a:	00001097          	auipc	ra,0x1
   1978e:	7e8080e7          	jalr	2024(ra) # 1af72 <memcpy>
   19792:	6505                	lui	a0,0x1
   19794:	37c50513          	addi	a0,a0,892 # 137c <.Lline_table_start1+0x1151>
   19798:	950a                	add	a0,a0,sp
   1979a:	7ff10593          	addi	a1,sp,2047
   1979e:	56d58593          	addi	a1,a1,1389
   197a2:	ffffc097          	auipc	ra,0xffffc
   197a6:	da0080e7          	jalr	-608(ra) # 15542 <_ZN20complex_full_dynamic3app17hc0747bf4cd025b5fE>
   197aa:	3eca4503          	lbu	a0,1004(s4)
   197ae:	c119                	beqz	a0,197b4 <_start+0x2b12>
   197b0:	1ba0106f          	j	1a96a <_start+0x3cc8>
   197b4:	3eea4503          	lbu	a0,1006(s4)
   197b8:	3eda4583          	lbu	a1,1005(s4)
   197bc:	3efa4603          	lbu	a2,1007(s4)
   197c0:	3f0a2403          	lw	s0,1008(s4)
   197c4:	0522                	slli	a0,a0,0x8
   197c6:	8d4d                	or	a0,a0,a1
   197c8:	60a91f23          	sh	a0,1566(s2)
   197cc:	62c90023          	sb	a2,1568(s2)
   197d0:	6505                	lui	a0,0x1
   197d2:	38450513          	addi	a0,a0,900 # 1384 <.Lline_table_start1+0x1159>
   197d6:	00a105b3          	add	a1,sp,a0
   197da:	6505                	lui	a0,0x1
   197dc:	32050513          	addi	a0,a0,800 # 1320 <.Lline_table_start1+0x10f5>
   197e0:	950a                	add	a0,a0,sp
   197e2:	02a00613          	li	a2,42
   197e6:	00001097          	auipc	ra,0x1
   197ea:	78c080e7          	jalr	1932(ra) # 1af72 <memcpy>
   197ee:	01845513          	srli	a0,s0,0x18
   197f2:	01045593          	srli	a1,s0,0x10
   197f6:	00845613          	srli	a2,s0,0x8
   197fa:	628900a3          	sb	s0,1569(s2)
   197fe:	62c90123          	sb	a2,1570(s2)
   19802:	62b901a3          	sb	a1,1571(s2)
   19806:	62a90223          	sb	a0,1572(s2)
   1980a:	7ff10513          	addi	a0,sp,2047
   1980e:	5b450513          	addi	a0,a0,1460
   19812:	6585                	lui	a1,0x1
   19814:	32058593          	addi	a1,a1,800 # 1320 <.Lline_table_start1+0x10f5>
   19818:	958a                	add	a1,a1,sp
   1981a:	02a00613          	li	a2,42
   1981e:	00001097          	auipc	ra,0x1
   19822:	754080e7          	jalr	1876(ra) # 1af72 <memcpy>
   19826:	6505                	lui	a0,0x1
   19828:	37c50513          	addi	a0,a0,892 # 137c <.Lline_table_start1+0x1151>
   1982c:	950a                	add	a0,a0,sp
   1982e:	7ff10593          	addi	a1,sp,2047
   19832:	5ad58593          	addi	a1,a1,1453
   19836:	ffff9097          	auipc	ra,0xffff9
   1983a:	f78080e7          	jalr	-136(ra) # 127ae <_ZN20complex_full_dynamic3app17h4e8825cfdf90b7ffE>
   1983e:	3eca4503          	lbu	a0,1004(s4)
   19842:	c119                	beqz	a0,19848 <_start+0x2ba6>
   19844:	1260106f          	j	1a96a <_start+0x3cc8>
   19848:	3eea4503          	lbu	a0,1006(s4)
   1984c:	3eda4583          	lbu	a1,1005(s4)
   19850:	3efa4603          	lbu	a2,1007(s4)
   19854:	3f0a2403          	lw	s0,1008(s4)
   19858:	0522                	slli	a0,a0,0x8
   1985a:	8d4d                	or	a0,a0,a1
   1985c:	64a91823          	sh	a0,1616(s2)
   19860:	64c90923          	sb	a2,1618(s2)
   19864:	6505                	lui	a0,0x1
   19866:	38450513          	addi	a0,a0,900 # 1384 <.Lline_table_start1+0x1159>
   1986a:	00a105b3          	add	a1,sp,a0
   1986e:	6505                	lui	a0,0x1
   19870:	32050513          	addi	a0,a0,800 # 1320 <.Lline_table_start1+0x10f5>
   19874:	950a                	add	a0,a0,sp
   19876:	04100613          	li	a2,65
   1987a:	00001097          	auipc	ra,0x1
   1987e:	6f8080e7          	jalr	1784(ra) # 1af72 <memcpy>
   19882:	01845513          	srli	a0,s0,0x18
   19886:	01045593          	srli	a1,s0,0x10
   1988a:	00845613          	srli	a2,s0,0x8
   1988e:	648909a3          	sb	s0,1619(s2)
   19892:	64c90a23          	sb	a2,1620(s2)
   19896:	64b90aa3          	sb	a1,1621(s2)
   1989a:	64a90b23          	sb	a0,1622(s2)
   1989e:	7ff10513          	addi	a0,sp,2047
   198a2:	5e650513          	addi	a0,a0,1510
   198a6:	6585                	lui	a1,0x1
   198a8:	32058593          	addi	a1,a1,800 # 1320 <.Lline_table_start1+0x10f5>
   198ac:	958a                	add	a1,a1,sp
   198ae:	04100613          	li	a2,65
   198b2:	00001097          	auipc	ra,0x1
   198b6:	6c0080e7          	jalr	1728(ra) # 1af72 <memcpy>
   198ba:	6505                	lui	a0,0x1
   198bc:	37c50513          	addi	a0,a0,892 # 137c <.Lline_table_start1+0x1151>
   198c0:	950a                	add	a0,a0,sp
   198c2:	7ff10593          	addi	a1,sp,2047
   198c6:	5df58593          	addi	a1,a1,1503
   198ca:	ffffc097          	auipc	ra,0xffffc
   198ce:	346080e7          	jalr	838(ra) # 15c10 <_ZN20complex_full_dynamic3app17hd81ad0fb61fba636E>
   198d2:	3eca4503          	lbu	a0,1004(s4)
   198d6:	c119                	beqz	a0,198dc <_start+0x2c3a>
   198d8:	0920106f          	j	1a96a <_start+0x3cc8>
   198dc:	3eea4503          	lbu	a0,1006(s4)
   198e0:	3eda4583          	lbu	a1,1005(s4)
   198e4:	3efa4603          	lbu	a2,1007(s4)
   198e8:	3f0a2403          	lw	s0,1008(s4)
   198ec:	0522                	slli	a0,a0,0x8
   198ee:	8d4d                	or	a0,a0,a1
   198f0:	68a91c23          	sh	a0,1688(s2)
   198f4:	68c90d23          	sb	a2,1690(s2)
   198f8:	6505                	lui	a0,0x1
   198fa:	38450513          	addi	a0,a0,900 # 1384 <.Lline_table_start1+0x1159>
   198fe:	00a105b3          	add	a1,sp,a0
   19902:	6505                	lui	a0,0x1
   19904:	32050513          	addi	a0,a0,800 # 1320 <.Lline_table_start1+0x10f5>
   19908:	950a                	add	a0,a0,sp
   1990a:	02200613          	li	a2,34
   1990e:	00001097          	auipc	ra,0x1
   19912:	664080e7          	jalr	1636(ra) # 1af72 <memcpy>
   19916:	01845513          	srli	a0,s0,0x18
   1991a:	01045593          	srli	a1,s0,0x10
   1991e:	00845613          	srli	a2,s0,0x8
   19922:	68890da3          	sb	s0,1691(s2)
   19926:	68c90e23          	sb	a2,1692(s2)
   1992a:	68b90ea3          	sb	a1,1693(s2)
   1992e:	68a90f23          	sb	a0,1694(s2)
   19932:	7ff10513          	addi	a0,sp,2047
   19936:	62e50513          	addi	a0,a0,1582
   1993a:	6585                	lui	a1,0x1
   1993c:	32058593          	addi	a1,a1,800 # 1320 <.Lline_table_start1+0x10f5>
   19940:	958a                	add	a1,a1,sp
   19942:	02200613          	li	a2,34
   19946:	00001097          	auipc	ra,0x1
   1994a:	62c080e7          	jalr	1580(ra) # 1af72 <memcpy>
   1994e:	6505                	lui	a0,0x1
   19950:	37c50513          	addi	a0,a0,892 # 137c <.Lline_table_start1+0x1151>
   19954:	950a                	add	a0,a0,sp
   19956:	7ff10593          	addi	a1,sp,2047
   1995a:	62758593          	addi	a1,a1,1575
   1995e:	ffffa097          	auipc	ra,0xffffa
   19962:	fd6080e7          	jalr	-42(ra) # 13934 <_ZN20complex_full_dynamic3app17h86991f8e7524b038E>
   19966:	3eca4503          	lbu	a0,1004(s4)
   1996a:	c119                	beqz	a0,19970 <_start+0x2cce>
   1996c:	7ff0006f          	j	1a96a <_start+0x3cc8>
   19970:	3eda4503          	lbu	a0,1005(s4)
   19974:	3eea4583          	lbu	a1,1006(s4)
   19978:	3f4a2603          	lw	a2,1012(s4)
   1997c:	3f8a2683          	lw	a3,1016(s4)
   19980:	3fca2703          	lw	a4,1020(s4)
   19984:	400a2783          	lw	a5,1024(s4)
   19988:	404a1483          	lh	s1,1028(s4)
   1998c:	406a4403          	lbu	s0,1030(s4)
   19990:	38ca2823          	sw	a2,912(s4)
   19994:	38da2a23          	sw	a3,916(s4)
   19998:	38ea2c23          	sw	a4,920(s4)
   1999c:	38fa2e23          	sw	a5,924(s4)
   199a0:	3efa4603          	lbu	a2,1007(s4)
   199a4:	3f0a2683          	lw	a3,1008(s4)
   199a8:	05a2                	slli	a1,a1,0x8
   199aa:	3a9a1023          	sh	s1,928(s4)
   199ae:	3a8a0123          	sb	s0,930(s4)
   199b2:	0186d713          	srli	a4,a3,0x18
   199b6:	8d4d                	or	a0,a0,a1
   199b8:	0106d593          	srli	a1,a3,0x10
   199bc:	6cb903a3          	sb	a1,1735(s2)
   199c0:	6ce90423          	sb	a4,1736(s2)
   199c4:	0086d593          	srli	a1,a3,0x8
   199c8:	6ca91123          	sh	a0,1730(s2)
   199cc:	6cc90223          	sb	a2,1732(s2)
   199d0:	6cd902a3          	sb	a3,1733(s2)
   199d4:	6cb90323          	sb	a1,1734(s2)
   199d8:	7ff10513          	addi	a0,sp,2047
   199dc:	65850513          	addi	a0,a0,1624
   199e0:	6585                	lui	a1,0x1
   199e2:	32058593          	addi	a1,a1,800 # 1320 <.Lline_table_start1+0x10f5>
   199e6:	958a                	add	a1,a1,sp
   199e8:	464d                	li	a2,19
   199ea:	00001097          	auipc	ra,0x1
   199ee:	588080e7          	jalr	1416(ra) # 1af72 <memcpy>
   199f2:	6505                	lui	a0,0x1
   199f4:	37c50513          	addi	a0,a0,892 # 137c <.Lline_table_start1+0x1151>
   199f8:	950a                	add	a0,a0,sp
   199fa:	7ff10593          	addi	a1,sp,2047
   199fe:	65158593          	addi	a1,a1,1617
   19a02:	ffff8097          	auipc	ra,0xffff8
   19a06:	1f4080e7          	jalr	500(ra) # 11bf6 <_ZN20complex_full_dynamic3app17h265112d459189352E>
   19a0a:	3eca4503          	lbu	a0,1004(s4)
   19a0e:	74051ee3          	bnez	a0,1a96a <_start+0x3cc8>
   19a12:	3eda4503          	lbu	a0,1005(s4)
   19a16:	3eea4583          	lbu	a1,1006(s4)
   19a1a:	3efa4803          	lbu	a6,1007(s4)
   19a1e:	3f0a2683          	lw	a3,1008(s4)
   19a22:	3f4a2703          	lw	a4,1012(s4)
   19a26:	3f8a2783          	lw	a5,1016(s4)
   19a2a:	3fca2483          	lw	s1,1020(s4)
   19a2e:	400a2403          	lw	s0,1024(s4)
   19a32:	404a2603          	lw	a2,1028(s4)
   19a36:	38ea2823          	sw	a4,912(s4)
   19a3a:	38fa2a23          	sw	a5,916(s4)
   19a3e:	389a2c23          	sw	s1,920(s4)
   19a42:	388a2e23          	sw	s0,924(s4)
   19a46:	05a2                	slli	a1,a1,0x8
   19a48:	3aca2023          	sw	a2,928(s4)
   19a4c:	0186d613          	srli	a2,a3,0x18
   19a50:	8d4d                	or	a0,a0,a1
   19a52:	0106d593          	srli	a1,a3,0x10
   19a56:	6eb900a3          	sb	a1,1761(s2)
   19a5a:	6ec90123          	sb	a2,1762(s2)
   19a5e:	0086d593          	srli	a1,a3,0x8
   19a62:	6ca91e23          	sh	a0,1756(s2)
   19a66:	6d090f23          	sb	a6,1758(s2)
   19a6a:	6cd90fa3          	sb	a3,1759(s2)
   19a6e:	6eb90023          	sb	a1,1760(s2)
   19a72:	7ff10513          	addi	a0,sp,2047
   19a76:	67250513          	addi	a0,a0,1650
   19a7a:	6585                	lui	a1,0x1
   19a7c:	32058593          	addi	a1,a1,800 # 1320 <.Lline_table_start1+0x10f5>
   19a80:	958a                	add	a1,a1,sp
   19a82:	4651                	li	a2,20
   19a84:	00001097          	auipc	ra,0x1
   19a88:	4ee080e7          	jalr	1262(ra) # 1af72 <memcpy>
   19a8c:	6505                	lui	a0,0x1
   19a8e:	37c50513          	addi	a0,a0,892 # 137c <.Lline_table_start1+0x1151>
   19a92:	950a                	add	a0,a0,sp
   19a94:	7ff10593          	addi	a1,sp,2047
   19a98:	66b58593          	addi	a1,a1,1643
   19a9c:	ffffd097          	auipc	ra,0xffffd
   19aa0:	c2e080e7          	jalr	-978(ra) # 166ca <_ZN20complex_full_dynamic3app17hf3c5faa9adb1f7a8E>
   19aa4:	3eca4503          	lbu	a0,1004(s4)
   19aa8:	6c0511e3          	bnez	a0,1a96a <_start+0x3cc8>
   19aac:	3eea4503          	lbu	a0,1006(s4)
   19ab0:	3eda4583          	lbu	a1,1005(s4)
   19ab4:	3efa4603          	lbu	a2,1007(s4)
   19ab8:	3f0a2403          	lw	s0,1008(s4)
   19abc:	0522                	slli	a0,a0,0x8
   19abe:	8d4d                	or	a0,a0,a1
   19ac0:	6ea91c23          	sh	a0,1784(s2)
   19ac4:	6ec90d23          	sb	a2,1786(s2)
   19ac8:	6505                	lui	a0,0x1
   19aca:	38450513          	addi	a0,a0,900 # 1384 <.Lline_table_start1+0x1159>
   19ace:	00a105b3          	add	a1,sp,a0
   19ad2:	6505                	lui	a0,0x1
   19ad4:	32050513          	addi	a0,a0,800 # 1320 <.Lline_table_start1+0x10f5>
   19ad8:	950a                	add	a0,a0,sp
   19ada:	03a00613          	li	a2,58
   19ade:	00001097          	auipc	ra,0x1
   19ae2:	494080e7          	jalr	1172(ra) # 1af72 <memcpy>
   19ae6:	01845513          	srli	a0,s0,0x18
   19aea:	01045593          	srli	a1,s0,0x10
   19aee:	00845613          	srli	a2,s0,0x8
   19af2:	6e890da3          	sb	s0,1787(s2)
   19af6:	6ec90e23          	sb	a2,1788(s2)
   19afa:	6eb90ea3          	sb	a1,1789(s2)
   19afe:	6ea90f23          	sb	a0,1790(s2)
   19b02:	7ff10513          	addi	a0,sp,2047
   19b06:	68e50513          	addi	a0,a0,1678
   19b0a:	6585                	lui	a1,0x1
   19b0c:	32058593          	addi	a1,a1,800 # 1320 <.Lline_table_start1+0x10f5>
   19b10:	958a                	add	a1,a1,sp
   19b12:	03a00613          	li	a2,58
   19b16:	00001097          	auipc	ra,0x1
   19b1a:	45c080e7          	jalr	1116(ra) # 1af72 <memcpy>
   19b1e:	6505                	lui	a0,0x1
   19b20:	37c50513          	addi	a0,a0,892 # 137c <.Lline_table_start1+0x1151>
   19b24:	950a                	add	a0,a0,sp
   19b26:	7ff10593          	addi	a1,sp,2047
   19b2a:	68758593          	addi	a1,a1,1671
   19b2e:	ffffb097          	auipc	ra,0xffffb
   19b32:	996080e7          	jalr	-1642(ra) # 144c4 <_ZN20complex_full_dynamic3app17ha49e38def16e6745E>
   19b36:	3eca4503          	lbu	a0,1004(s4)
   19b3a:	620518e3          	bnez	a0,1a96a <_start+0x3cc8>
   19b3e:	3eda4503          	lbu	a0,1005(s4)
   19b42:	3eea4583          	lbu	a1,1006(s4)
   19b46:	3efa4803          	lbu	a6,1007(s4)
   19b4a:	3f0a2683          	lw	a3,1008(s4)
   19b4e:	3f4a2703          	lw	a4,1012(s4)
   19b52:	3f8a2783          	lw	a5,1016(s4)
   19b56:	3fca2483          	lw	s1,1020(s4)
   19b5a:	400a2403          	lw	s0,1024(s4)
   19b5e:	404a4603          	lbu	a2,1028(s4)
   19b62:	38ea2823          	sw	a4,912(s4)
   19b66:	38fa2a23          	sw	a5,916(s4)
   19b6a:	389a2c23          	sw	s1,920(s4)
   19b6e:	388a2e23          	sw	s0,924(s4)
   19b72:	05a2                	slli	a1,a1,0x8
   19b74:	3aca0023          	sb	a2,928(s4)
   19b78:	0186d613          	srli	a2,a3,0x18
   19b7c:	8d4d                	or	a0,a0,a1
   19b7e:	0106d593          	srli	a1,a3,0x10
   19b82:	72b90fa3          	sb	a1,1855(s2)
   19b86:	74c90023          	sb	a2,1856(s2)
   19b8a:	0086d593          	srli	a1,a3,0x8
   19b8e:	72a91d23          	sh	a0,1850(s2)
   19b92:	73090e23          	sb	a6,1852(s2)
   19b96:	72d90ea3          	sb	a3,1853(s2)
   19b9a:	72b90f23          	sb	a1,1854(s2)
   19b9e:	7ff10513          	addi	a0,sp,2047
   19ba2:	6d050513          	addi	a0,a0,1744
   19ba6:	6585                	lui	a1,0x1
   19ba8:	32058593          	addi	a1,a1,800 # 1320 <.Lline_table_start1+0x10f5>
   19bac:	958a                	add	a1,a1,sp
   19bae:	4645                	li	a2,17
   19bb0:	00001097          	auipc	ra,0x1
   19bb4:	3c2080e7          	jalr	962(ra) # 1af72 <memcpy>
   19bb8:	6505                	lui	a0,0x1
   19bba:	37c50513          	addi	a0,a0,892 # 137c <.Lline_table_start1+0x1151>
   19bbe:	950a                	add	a0,a0,sp
   19bc0:	7ff10593          	addi	a1,sp,2047
   19bc4:	6c958593          	addi	a1,a1,1737
   19bc8:	ffff8097          	auipc	ra,0xffff8
   19bcc:	f38080e7          	jalr	-200(ra) # 11b00 <_ZN20complex_full_dynamic3app17h20a232868bfac0f2E>
   19bd0:	3eca4503          	lbu	a0,1004(s4)
   19bd4:	58051be3          	bnez	a0,1a96a <_start+0x3cc8>
   19bd8:	3eda4503          	lbu	a0,1005(s4)
   19bdc:	3eea4583          	lbu	a1,1006(s4)
   19be0:	3efa4603          	lbu	a2,1007(s4)
   19be4:	3f0a2683          	lw	a3,1008(s4)
   19be8:	3f4a2703          	lw	a4,1012(s4)
   19bec:	3f8a2783          	lw	a5,1016(s4)
   19bf0:	3fca2483          	lw	s1,1020(s4)
   19bf4:	400a2403          	lw	s0,1024(s4)
   19bf8:	38ea2823          	sw	a4,912(s4)
   19bfc:	38fa2a23          	sw	a5,916(s4)
   19c00:	389a2c23          	sw	s1,920(s4)
   19c04:	388a2e23          	sw	s0,924(s4)
   19c08:	404a2703          	lw	a4,1028(s4)
   19c0c:	408a1783          	lh	a5,1032(s4)
   19c10:	40aa4483          	lbu	s1,1034(s4)
   19c14:	05a2                	slli	a1,a1,0x8
   19c16:	3aea2023          	sw	a4,928(s4)
   19c1a:	3afa1223          	sh	a5,932(s4)
   19c1e:	3a9a0323          	sb	s1,934(s4)
   19c22:	0186d713          	srli	a4,a3,0x18
   19c26:	8d4d                	or	a0,a0,a1
   19c28:	0106d593          	srli	a1,a3,0x10
   19c2c:	74b90ba3          	sb	a1,1879(s2)
   19c30:	74e90c23          	sb	a4,1880(s2)
   19c34:	0086d593          	srli	a1,a3,0x8
   19c38:	74a91923          	sh	a0,1874(s2)
   19c3c:	74c90a23          	sb	a2,1876(s2)
   19c40:	74d90aa3          	sb	a3,1877(s2)
   19c44:	74b90b23          	sb	a1,1878(s2)
   19c48:	7ff10513          	addi	a0,sp,2047
   19c4c:	6e850513          	addi	a0,a0,1768
   19c50:	6585                	lui	a1,0x1
   19c52:	32058593          	addi	a1,a1,800 # 1320 <.Lline_table_start1+0x10f5>
   19c56:	958a                	add	a1,a1,sp
   19c58:	465d                	li	a2,23
   19c5a:	00001097          	auipc	ra,0x1
   19c5e:	318080e7          	jalr	792(ra) # 1af72 <memcpy>
   19c62:	6505                	lui	a0,0x1
   19c64:	37c50513          	addi	a0,a0,892 # 137c <.Lline_table_start1+0x1151>
   19c68:	950a                	add	a0,a0,sp
   19c6a:	7ff10593          	addi	a1,sp,2047
   19c6e:	6e158593          	addi	a1,a1,1761
   19c72:	ffffa097          	auipc	ra,0xffffa
   19c76:	37e080e7          	jalr	894(ra) # 13ff0 <_ZN20complex_full_dynamic3app17h9fa094581104a76eE>
   19c7a:	3eca4503          	lbu	a0,1004(s4)
   19c7e:	4e0516e3          	bnez	a0,1a96a <_start+0x3cc8>
   19c82:	3eea4503          	lbu	a0,1006(s4)
   19c86:	3eda4583          	lbu	a1,1005(s4)
   19c8a:	3efa4603          	lbu	a2,1007(s4)
   19c8e:	3f0a2403          	lw	s0,1008(s4)
   19c92:	0522                	slli	a0,a0,0x8
   19c94:	8d4d                	or	a0,a0,a1
   19c96:	76a91823          	sh	a0,1904(s2)
   19c9a:	76c90923          	sb	a2,1906(s2)
   19c9e:	6505                	lui	a0,0x1
   19ca0:	38450513          	addi	a0,a0,900 # 1384 <.Lline_table_start1+0x1159>
   19ca4:	00a105b3          	add	a1,sp,a0
   19ca8:	6505                	lui	a0,0x1
   19caa:	32050513          	addi	a0,a0,800 # 1320 <.Lline_table_start1+0x10f5>
   19cae:	950a                	add	a0,a0,sp
   19cb0:	03500613          	li	a2,53
   19cb4:	00001097          	auipc	ra,0x1
   19cb8:	2be080e7          	jalr	702(ra) # 1af72 <memcpy>
   19cbc:	01845513          	srli	a0,s0,0x18
   19cc0:	01045593          	srli	a1,s0,0x10
   19cc4:	00845613          	srli	a2,s0,0x8
   19cc8:	768909a3          	sb	s0,1907(s2)
   19ccc:	76c90a23          	sb	a2,1908(s2)
   19cd0:	76b90aa3          	sb	a1,1909(s2)
   19cd4:	76a90b23          	sb	a0,1910(s2)
   19cd8:	7ff10513          	addi	a0,sp,2047
   19cdc:	70650513          	addi	a0,a0,1798
   19ce0:	6585                	lui	a1,0x1
   19ce2:	32058593          	addi	a1,a1,800 # 1320 <.Lline_table_start1+0x10f5>
   19ce6:	958a                	add	a1,a1,sp
   19ce8:	03500613          	li	a2,53
   19cec:	00001097          	auipc	ra,0x1
   19cf0:	286080e7          	jalr	646(ra) # 1af72 <memcpy>
   19cf4:	6505                	lui	a0,0x1
   19cf6:	37c50513          	addi	a0,a0,892 # 137c <.Lline_table_start1+0x1151>
   19cfa:	950a                	add	a0,a0,sp
   19cfc:	7ff10593          	addi	a1,sp,2047
   19d00:	6ff58593          	addi	a1,a1,1791
   19d04:	ffffa097          	auipc	ra,0xffffa
   19d08:	84e080e7          	jalr	-1970(ra) # 13552 <_ZN20complex_full_dynamic3app17h74fbf6619f814bf0E>
   19d0c:	3eca4503          	lbu	a0,1004(s4)
   19d10:	44051de3          	bnez	a0,1a96a <_start+0x3cc8>
   19d14:	3eea4503          	lbu	a0,1006(s4)
   19d18:	3eda4583          	lbu	a1,1005(s4)
   19d1c:	3efa4603          	lbu	a2,1007(s4)
   19d20:	3f0a2403          	lw	s0,1008(s4)
   19d24:	0522                	slli	a0,a0,0x8
   19d26:	8d4d                	or	a0,a0,a1
   19d28:	7aa91623          	sh	a0,1964(s2)
   19d2c:	7ac90723          	sb	a2,1966(s2)
   19d30:	6505                	lui	a0,0x1
   19d32:	38450513          	addi	a0,a0,900 # 1384 <.Lline_table_start1+0x1159>
   19d36:	00a105b3          	add	a1,sp,a0
   19d3a:	6505                	lui	a0,0x1
   19d3c:	32050513          	addi	a0,a0,800 # 1320 <.Lline_table_start1+0x10f5>
   19d40:	950a                	add	a0,a0,sp
   19d42:	02500613          	li	a2,37
   19d46:	00001097          	auipc	ra,0x1
   19d4a:	22c080e7          	jalr	556(ra) # 1af72 <memcpy>
   19d4e:	01845513          	srli	a0,s0,0x18
   19d52:	01045593          	srli	a1,s0,0x10
   19d56:	00845613          	srli	a2,s0,0x8
   19d5a:	7a8907a3          	sb	s0,1967(s2)
   19d5e:	7ac90823          	sb	a2,1968(s2)
   19d62:	7ab908a3          	sb	a1,1969(s2)
   19d66:	7aa90923          	sb	a0,1970(s2)
   19d6a:	7ff10513          	addi	a0,sp,2047
   19d6e:	74250513          	addi	a0,a0,1858
   19d72:	6585                	lui	a1,0x1
   19d74:	32058593          	addi	a1,a1,800 # 1320 <.Lline_table_start1+0x10f5>
   19d78:	958a                	add	a1,a1,sp
   19d7a:	02500613          	li	a2,37
   19d7e:	00001097          	auipc	ra,0x1
   19d82:	1f4080e7          	jalr	500(ra) # 1af72 <memcpy>
   19d86:	6505                	lui	a0,0x1
   19d88:	37c50513          	addi	a0,a0,892 # 137c <.Lline_table_start1+0x1151>
   19d8c:	950a                	add	a0,a0,sp
   19d8e:	7ff10593          	addi	a1,sp,2047
   19d92:	73b58593          	addi	a1,a1,1851
   19d96:	ffffb097          	auipc	ra,0xffffb
   19d9a:	1d2080e7          	jalr	466(ra) # 14f68 <_ZN20complex_full_dynamic3app17hb2f8f3379b4c6c9bE>
   19d9e:	3eca4503          	lbu	a0,1004(s4)
   19da2:	3c0514e3          	bnez	a0,1a96a <_start+0x3cc8>
   19da6:	3eda4503          	lbu	a0,1005(s4)
   19daa:	3eea4583          	lbu	a1,1006(s4)
   19dae:	3efa4603          	lbu	a2,1007(s4)
   19db2:	3f0a2683          	lw	a3,1008(s4)
   19db6:	3f4a2703          	lw	a4,1012(s4)
   19dba:	3f8a2783          	lw	a5,1016(s4)
   19dbe:	3fca2483          	lw	s1,1020(s4)
   19dc2:	400a2403          	lw	s0,1024(s4)
   19dc6:	38ea2823          	sw	a4,912(s4)
   19dca:	38fa2a23          	sw	a5,916(s4)
   19dce:	389a2c23          	sw	s1,920(s4)
   19dd2:	388a2e23          	sw	s0,924(s4)
   19dd6:	404a2703          	lw	a4,1028(s4)
   19dda:	408a2783          	lw	a5,1032(s4)
   19dde:	40ca2483          	lw	s1,1036(s4)
   19de2:	410a2403          	lw	s0,1040(s4)
   19de6:	05a2                	slli	a1,a1,0x8
   19de8:	3aea2023          	sw	a4,928(s4)
   19dec:	3afa2223          	sw	a5,932(s4)
   19df0:	3a9a2423          	sw	s1,936(s4)
   19df4:	3a8a2623          	sw	s0,940(s4)
   19df8:	0186d713          	srli	a4,a3,0x18
   19dfc:	8d4d                	or	a0,a0,a1
   19dfe:	0106d593          	srli	a1,a3,0x10
   19e02:	7cb90ea3          	sb	a1,2013(s2)
   19e06:	7ce90f23          	sb	a4,2014(s2)
   19e0a:	0086d593          	srli	a1,a3,0x8
   19e0e:	7ca91c23          	sh	a0,2008(s2)
   19e12:	7cc90d23          	sb	a2,2010(s2)
   19e16:	7cd90da3          	sb	a3,2011(s2)
   19e1a:	7cb90e23          	sb	a1,2012(s2)
   19e1e:	7ff10513          	addi	a0,sp,2047
   19e22:	76e50513          	addi	a0,a0,1902
   19e26:	6585                	lui	a1,0x1
   19e28:	32058593          	addi	a1,a1,800 # 1320 <.Lline_table_start1+0x10f5>
   19e2c:	958a                	add	a1,a1,sp
   19e2e:	02000613          	li	a2,32
   19e32:	00001097          	auipc	ra,0x1
   19e36:	140080e7          	jalr	320(ra) # 1af72 <memcpy>
   19e3a:	6505                	lui	a0,0x1
   19e3c:	37c50513          	addi	a0,a0,892 # 137c <.Lline_table_start1+0x1151>
   19e40:	950a                	add	a0,a0,sp
   19e42:	7ff10593          	addi	a1,sp,2047
   19e46:	76758593          	addi	a1,a1,1895
   19e4a:	ffff7097          	auipc	ra,0xffff7
   19e4e:	2ea080e7          	jalr	746(ra) # 11134 <_ZN20complex_full_dynamic3app17h020ebfcfa527a02dE>
   19e52:	3eca4503          	lbu	a0,1004(s4)
   19e56:	30051ae3          	bnez	a0,1a96a <_start+0x3cc8>
   19e5a:	3eea4503          	lbu	a0,1006(s4)
   19e5e:	3eda4583          	lbu	a1,1005(s4)
   19e62:	3efa4603          	lbu	a2,1007(s4)
   19e66:	3f0a2403          	lw	s0,1008(s4)
   19e6a:	0522                	slli	a0,a0,0x8
   19e6c:	8d4d                	or	a0,a0,a1
   19e6e:	feaa1f23          	sh	a0,-2(s4)
   19e72:	00ca0023          	sb	a2,0(s4)
   19e76:	6505                	lui	a0,0x1
   19e78:	38450513          	addi	a0,a0,900 # 1384 <.Lline_table_start1+0x1159>
   19e7c:	00a105b3          	add	a1,sp,a0
   19e80:	6505                	lui	a0,0x1
   19e82:	32050513          	addi	a0,a0,800 # 1320 <.Lline_table_start1+0x10f5>
   19e86:	950a                	add	a0,a0,sp
   19e88:	04800613          	li	a2,72
   19e8c:	00001097          	auipc	ra,0x1
   19e90:	0e6080e7          	jalr	230(ra) # 1af72 <memcpy>
   19e94:	01845513          	srli	a0,s0,0x18
   19e98:	01045593          	srli	a1,s0,0x10
   19e9c:	00845613          	srli	a2,s0,0x8
   19ea0:	008a00a3          	sb	s0,1(s4)
   19ea4:	00ca0123          	sb	a2,2(s4)
   19ea8:	00ba01a3          	sb	a1,3(s4)
   19eac:	00aa0223          	sb	a0,4(s4)
   19eb0:	7ff10513          	addi	a0,sp,2047
   19eb4:	79650513          	addi	a0,a0,1942
   19eb8:	6585                	lui	a1,0x1
   19eba:	32058593          	addi	a1,a1,800 # 1320 <.Lline_table_start1+0x10f5>
   19ebe:	958a                	add	a1,a1,sp
   19ec0:	04800613          	li	a2,72
   19ec4:	00001097          	auipc	ra,0x1
   19ec8:	0ae080e7          	jalr	174(ra) # 1af72 <memcpy>
   19ecc:	6505                	lui	a0,0x1
   19ece:	37c50513          	addi	a0,a0,892 # 137c <.Lline_table_start1+0x1151>
   19ed2:	950a                	add	a0,a0,sp
   19ed4:	7ff10593          	addi	a1,sp,2047
   19ed8:	78f58593          	addi	a1,a1,1935
   19edc:	ffffc097          	auipc	ra,0xffffc
   19ee0:	01e080e7          	jalr	30(ra) # 15efa <_ZN20complex_full_dynamic3app17he1e56d3f0fc3ca7eE>
   19ee4:	3eca4503          	lbu	a0,1004(s4)
   19ee8:	280511e3          	bnez	a0,1a96a <_start+0x3cc8>
   19eec:	3eea4503          	lbu	a0,1006(s4)
   19ef0:	3eda4583          	lbu	a1,1005(s4)
   19ef4:	3efa4603          	lbu	a2,1007(s4)
   19ef8:	3f0a2403          	lw	s0,1008(s4)
   19efc:	0522                	slli	a0,a0,0x8
   19efe:	8d4d                	or	a0,a0,a1
   19f00:	04aa1723          	sh	a0,78(s4)
   19f04:	04ca0823          	sb	a2,80(s4)
   19f08:	6505                	lui	a0,0x1
   19f0a:	38450513          	addi	a0,a0,900 # 1384 <.Lline_table_start1+0x1159>
   19f0e:	00a105b3          	add	a1,sp,a0
   19f12:	6505                	lui	a0,0x1
   19f14:	32050513          	addi	a0,a0,800 # 1320 <.Lline_table_start1+0x10f5>
   19f18:	950a                	add	a0,a0,sp
   19f1a:	02e00613          	li	a2,46
   19f1e:	00001097          	auipc	ra,0x1
   19f22:	054080e7          	jalr	84(ra) # 1af72 <memcpy>
   19f26:	01845513          	srli	a0,s0,0x18
   19f2a:	01045593          	srli	a1,s0,0x10
   19f2e:	00845613          	srli	a2,s0,0x8
   19f32:	048a08a3          	sb	s0,81(s4)
   19f36:	04ca0923          	sb	a2,82(s4)
   19f3a:	04ba09a3          	sb	a1,83(s4)
   19f3e:	04aa0a23          	sb	a0,84(s4)
   19f42:	7ff10513          	addi	a0,sp,2047
   19f46:	7e650513          	addi	a0,a0,2022
   19f4a:	6585                	lui	a1,0x1
   19f4c:	32058593          	addi	a1,a1,800 # 1320 <.Lline_table_start1+0x10f5>
   19f50:	958a                	add	a1,a1,sp
   19f52:	02e00613          	li	a2,46
   19f56:	00001097          	auipc	ra,0x1
   19f5a:	01c080e7          	jalr	28(ra) # 1af72 <memcpy>
   19f5e:	6505                	lui	a0,0x1
   19f60:	37c50513          	addi	a0,a0,892 # 137c <.Lline_table_start1+0x1151>
   19f64:	950a                	add	a0,a0,sp
   19f66:	7ff10593          	addi	a1,sp,2047
   19f6a:	7df58593          	addi	a1,a1,2015
   19f6e:	ffffd097          	auipc	ra,0xffffd
   19f72:	c3c080e7          	jalr	-964(ra) # 16baa <_ZN20complex_full_dynamic3app17hfdff4d001648f14bE>
   19f76:	3eca4503          	lbu	a0,1004(s4)
   19f7a:	1e0518e3          	bnez	a0,1a96a <_start+0x3cc8>
   19f7e:	3eea4503          	lbu	a0,1006(s4)
   19f82:	3eda4583          	lbu	a1,1005(s4)
   19f86:	3efa4603          	lbu	a2,1007(s4)
   19f8a:	3f0a2403          	lw	s0,1008(s4)
   19f8e:	0522                	slli	a0,a0,0x8
   19f90:	8d4d                	or	a0,a0,a1
   19f92:	08aa1223          	sh	a0,132(s4)
   19f96:	08ca0323          	sb	a2,134(s4)
   19f9a:	6505                	lui	a0,0x1
   19f9c:	38450513          	addi	a0,a0,900 # 1384 <.Lline_table_start1+0x1159>
   19fa0:	00a105b3          	add	a1,sp,a0
   19fa4:	6505                	lui	a0,0x1
   19fa6:	32050513          	addi	a0,a0,800 # 1320 <.Lline_table_start1+0x10f5>
   19faa:	950a                	add	a0,a0,sp
   19fac:	03800613          	li	a2,56
   19fb0:	00001097          	auipc	ra,0x1
   19fb4:	fc2080e7          	jalr	-62(ra) # 1af72 <memcpy>
   19fb8:	01845513          	srli	a0,s0,0x18
   19fbc:	01045593          	srli	a1,s0,0x10
   19fc0:	00845613          	srli	a2,s0,0x8
   19fc4:	088a03a3          	sb	s0,135(s4)
   19fc8:	08ca0423          	sb	a2,136(s4)
   19fcc:	08ba04a3          	sb	a1,137(s4)
   19fd0:	08aa0523          	sb	a0,138(s4)
   19fd4:	6505                	lui	a0,0x1
   19fd6:	056d                	addi	a0,a0,27 # 101b <.Lline_table_start1+0xdf0>
   19fd8:	950a                	add	a0,a0,sp
   19fda:	6585                	lui	a1,0x1
   19fdc:	32058593          	addi	a1,a1,800 # 1320 <.Lline_table_start1+0x10f5>
   19fe0:	958a                	add	a1,a1,sp
   19fe2:	03800613          	li	a2,56
   19fe6:	00001097          	auipc	ra,0x1
   19fea:	f8c080e7          	jalr	-116(ra) # 1af72 <memcpy>
   19fee:	6505                	lui	a0,0x1
   19ff0:	37c50513          	addi	a0,a0,892 # 137c <.Lline_table_start1+0x1151>
   19ff4:	950a                	add	a0,a0,sp
   19ff6:	6585                	lui	a1,0x1
   19ff8:	05d1                	addi	a1,a1,20 # 1014 <.Lline_table_start1+0xde9>
   19ffa:	958a                	add	a1,a1,sp
   19ffc:	ffffb097          	auipc	ra,0xffffb
   1a000:	e7c080e7          	jalr	-388(ra) # 14e78 <_ZN20complex_full_dynamic3app17hb13ab7f9fed64bfaE>
   1a004:	3eca4503          	lbu	a0,1004(s4)
   1a008:	160511e3          	bnez	a0,1a96a <_start+0x3cc8>
   1a00c:	3eda4503          	lbu	a0,1005(s4)
   1a010:	3eea4583          	lbu	a1,1006(s4)
   1a014:	3efa4603          	lbu	a2,1007(s4)
   1a018:	3f0a2683          	lw	a3,1008(s4)
   1a01c:	3f4a2703          	lw	a4,1012(s4)
   1a020:	3f8a2783          	lw	a5,1016(s4)
   1a024:	3fca1483          	lh	s1,1020(s4)
   1a028:	05a2                	slli	a1,a1,0x8
   1a02a:	38ea2823          	sw	a4,912(s4)
   1a02e:	38fa2a23          	sw	a5,916(s4)
   1a032:	389a1c23          	sh	s1,920(s4)
   1a036:	0186d713          	srli	a4,a3,0x18
   1a03a:	8d4d                	or	a0,a0,a1
   1a03c:	0106d593          	srli	a1,a3,0x10
   1a040:	0cba04a3          	sb	a1,201(s4)
   1a044:	0cea0523          	sb	a4,202(s4)
   1a048:	0086d593          	srli	a1,a3,0x8
   1a04c:	0caa1223          	sh	a0,196(s4)
   1a050:	0cca0323          	sb	a2,198(s4)
   1a054:	0cda03a3          	sb	a3,199(s4)
   1a058:	0cba0423          	sb	a1,200(s4)
   1a05c:	6505                	lui	a0,0x1
   1a05e:	05b50513          	addi	a0,a0,91 # 105b <.Lline_table_start1+0xe30>
   1a062:	950a                	add	a0,a0,sp
   1a064:	6585                	lui	a1,0x1
   1a066:	32058593          	addi	a1,a1,800 # 1320 <.Lline_table_start1+0x10f5>
   1a06a:	958a                	add	a1,a1,sp
   1a06c:	4629                	li	a2,10
   1a06e:	00001097          	auipc	ra,0x1
   1a072:	f04080e7          	jalr	-252(ra) # 1af72 <memcpy>
   1a076:	6505                	lui	a0,0x1
   1a078:	37c50513          	addi	a0,a0,892 # 137c <.Lline_table_start1+0x1151>
   1a07c:	950a                	add	a0,a0,sp
   1a07e:	6585                	lui	a1,0x1
   1a080:	05458593          	addi	a1,a1,84 # 1054 <.Lline_table_start1+0xe29>
   1a084:	958a                	add	a1,a1,sp
   1a086:	ffffb097          	auipc	ra,0xffffb
   1a08a:	fda080e7          	jalr	-38(ra) # 15060 <_ZN20complex_full_dynamic3app17hb36e1031098d59f4E>
   1a08e:	3eca4503          	lbu	a0,1004(s4)
   1a092:	0c051ce3          	bnez	a0,1a96a <_start+0x3cc8>
   1a096:	3eea4503          	lbu	a0,1006(s4)
   1a09a:	3eda4583          	lbu	a1,1005(s4)
   1a09e:	3efa4603          	lbu	a2,1007(s4)
   1a0a2:	3f0a2403          	lw	s0,1008(s4)
   1a0a6:	0522                	slli	a0,a0,0x8
   1a0a8:	8d4d                	or	a0,a0,a1
   1a0aa:	0caa1b23          	sh	a0,214(s4)
   1a0ae:	0cca0c23          	sb	a2,216(s4)
   1a0b2:	6505                	lui	a0,0x1
   1a0b4:	38450513          	addi	a0,a0,900 # 1384 <.Lline_table_start1+0x1159>
   1a0b8:	00a105b3          	add	a1,sp,a0
   1a0bc:	6505                	lui	a0,0x1
   1a0be:	32050513          	addi	a0,a0,800 # 1320 <.Lline_table_start1+0x10f5>
   1a0c2:	950a                	add	a0,a0,sp
   1a0c4:	03800613          	li	a2,56
   1a0c8:	00001097          	auipc	ra,0x1
   1a0cc:	eaa080e7          	jalr	-342(ra) # 1af72 <memcpy>
   1a0d0:	01845513          	srli	a0,s0,0x18
   1a0d4:	01045593          	srli	a1,s0,0x10
   1a0d8:	00845613          	srli	a2,s0,0x8
   1a0dc:	0c8a0ca3          	sb	s0,217(s4)
   1a0e0:	0cca0d23          	sb	a2,218(s4)
   1a0e4:	0cba0da3          	sb	a1,219(s4)
   1a0e8:	0caa0e23          	sb	a0,220(s4)
   1a0ec:	6505                	lui	a0,0x1
   1a0ee:	06d50513          	addi	a0,a0,109 # 106d <.Lline_table_start1+0xe42>
   1a0f2:	950a                	add	a0,a0,sp
   1a0f4:	6585                	lui	a1,0x1
   1a0f6:	32058593          	addi	a1,a1,800 # 1320 <.Lline_table_start1+0x10f5>
   1a0fa:	958a                	add	a1,a1,sp
   1a0fc:	03800613          	li	a2,56
   1a100:	00001097          	auipc	ra,0x1
   1a104:	e72080e7          	jalr	-398(ra) # 1af72 <memcpy>
   1a108:	6505                	lui	a0,0x1
   1a10a:	37c50513          	addi	a0,a0,892 # 137c <.Lline_table_start1+0x1151>
   1a10e:	950a                	add	a0,a0,sp
   1a110:	6585                	lui	a1,0x1
   1a112:	06658593          	addi	a1,a1,102 # 1066 <.Lline_table_start1+0xe3b>
   1a116:	958a                	add	a1,a1,sp
   1a118:	ffffc097          	auipc	ra,0xffffc
   1a11c:	3c0080e7          	jalr	960(ra) # 164d8 <_ZN20complex_full_dynamic3app17hec36d36fbad08c1eE>
   1a120:	3eca4503          	lbu	a0,1004(s4)
   1a124:	040513e3          	bnez	a0,1a96a <_start+0x3cc8>
   1a128:	3eda4503          	lbu	a0,1005(s4)
   1a12c:	3eea4583          	lbu	a1,1006(s4)
   1a130:	3f4a2603          	lw	a2,1012(s4)
   1a134:	3f8a2683          	lw	a3,1016(s4)
   1a138:	3fca2703          	lw	a4,1020(s4)
   1a13c:	400a2783          	lw	a5,1024(s4)
   1a140:	404a2483          	lw	s1,1028(s4)
   1a144:	408a4403          	lbu	s0,1032(s4)
   1a148:	38ca2823          	sw	a2,912(s4)
   1a14c:	38da2a23          	sw	a3,916(s4)
   1a150:	38ea2c23          	sw	a4,920(s4)
   1a154:	38fa2e23          	sw	a5,924(s4)
   1a158:	3efa4603          	lbu	a2,1007(s4)
   1a15c:	3f0a2683          	lw	a3,1008(s4)
   1a160:	05a2                	slli	a1,a1,0x8
   1a162:	3a9a2023          	sw	s1,928(s4)
   1a166:	3a8a0223          	sb	s0,932(s4)
   1a16a:	0186d713          	srli	a4,a3,0x18
   1a16e:	8d4d                	or	a0,a0,a1
   1a170:	0106d593          	srli	a1,a3,0x10
   1a174:	10ba0da3          	sb	a1,283(s4)
   1a178:	10ea0e23          	sb	a4,284(s4)
   1a17c:	0086d593          	srli	a1,a3,0x8
   1a180:	10aa1b23          	sh	a0,278(s4)
   1a184:	10ca0c23          	sb	a2,280(s4)
   1a188:	10da0ca3          	sb	a3,281(s4)
   1a18c:	10ba0d23          	sb	a1,282(s4)
   1a190:	6505                	lui	a0,0x1
   1a192:	0ad50513          	addi	a0,a0,173 # 10ad <.Lline_table_start1+0xe82>
   1a196:	950a                	add	a0,a0,sp
   1a198:	6585                	lui	a1,0x1
   1a19a:	32058593          	addi	a1,a1,800 # 1320 <.Lline_table_start1+0x10f5>
   1a19e:	958a                	add	a1,a1,sp
   1a1a0:	4655                	li	a2,21
   1a1a2:	00001097          	auipc	ra,0x1
   1a1a6:	dd0080e7          	jalr	-560(ra) # 1af72 <memcpy>
   1a1aa:	6505                	lui	a0,0x1
   1a1ac:	37c50513          	addi	a0,a0,892 # 137c <.Lline_table_start1+0x1151>
   1a1b0:	950a                	add	a0,a0,sp
   1a1b2:	6585                	lui	a1,0x1
   1a1b4:	0a658593          	addi	a1,a1,166 # 10a6 <.Lline_table_start1+0xe7b>
   1a1b8:	958a                	add	a1,a1,sp
   1a1ba:	ffffc097          	auipc	ra,0xffffc
   1a1be:	032080e7          	jalr	50(ra) # 161ec <_ZN20complex_full_dynamic3app17he59e353b1cb4b9d8E>
   1a1c2:	3eca4503          	lbu	a0,1004(s4)
   1a1c6:	7a051263          	bnez	a0,1a96a <_start+0x3cc8>
   1a1ca:	3eea4503          	lbu	a0,1006(s4)
   1a1ce:	3eda4583          	lbu	a1,1005(s4)
   1a1d2:	3efa4603          	lbu	a2,1007(s4)
   1a1d6:	3f0a2403          	lw	s0,1008(s4)
   1a1da:	0522                	slli	a0,a0,0x8
   1a1dc:	8d4d                	or	a0,a0,a1
   1a1de:	12aa1923          	sh	a0,306(s4)
   1a1e2:	12ca0a23          	sb	a2,308(s4)
   1a1e6:	6505                	lui	a0,0x1
   1a1e8:	38450513          	addi	a0,a0,900 # 1384 <.Lline_table_start1+0x1159>
   1a1ec:	00a105b3          	add	a1,sp,a0
   1a1f0:	6505                	lui	a0,0x1
   1a1f2:	32050513          	addi	a0,a0,800 # 1320 <.Lline_table_start1+0x10f5>
   1a1f6:	950a                	add	a0,a0,sp
   1a1f8:	05600613          	li	a2,86
   1a1fc:	00001097          	auipc	ra,0x1
   1a200:	d76080e7          	jalr	-650(ra) # 1af72 <memcpy>
   1a204:	01845513          	srli	a0,s0,0x18
   1a208:	01045593          	srli	a1,s0,0x10
   1a20c:	00845613          	srli	a2,s0,0x8
   1a210:	128a0aa3          	sb	s0,309(s4)
   1a214:	12ca0b23          	sb	a2,310(s4)
   1a218:	12ba0ba3          	sb	a1,311(s4)
   1a21c:	12aa0c23          	sb	a0,312(s4)
   1a220:	6505                	lui	a0,0x1
   1a222:	0c950513          	addi	a0,a0,201 # 10c9 <.Lline_table_start1+0xe9e>
   1a226:	950a                	add	a0,a0,sp
   1a228:	6585                	lui	a1,0x1
   1a22a:	32058593          	addi	a1,a1,800 # 1320 <.Lline_table_start1+0x10f5>
   1a22e:	958a                	add	a1,a1,sp
   1a230:	05600613          	li	a2,86
   1a234:	00001097          	auipc	ra,0x1
   1a238:	d3e080e7          	jalr	-706(ra) # 1af72 <memcpy>
   1a23c:	6505                	lui	a0,0x1
   1a23e:	37c50513          	addi	a0,a0,892 # 137c <.Lline_table_start1+0x1151>
   1a242:	950a                	add	a0,a0,sp
   1a244:	6585                	lui	a1,0x1
   1a246:	0c258593          	addi	a1,a1,194 # 10c2 <.Lline_table_start1+0xe97>
   1a24a:	958a                	add	a1,a1,sp
   1a24c:	ffffc097          	auipc	ra,0xffffc
   1a250:	8d2080e7          	jalr	-1838(ra) # 15b1e <_ZN20complex_full_dynamic3app17hd59b2a98e661ad0dE>
   1a254:	3eca4503          	lbu	a0,1004(s4)
   1a258:	70051963          	bnez	a0,1a96a <_start+0x3cc8>
   1a25c:	3eda4503          	lbu	a0,1005(s4)
   1a260:	3eea4583          	lbu	a1,1006(s4)
   1a264:	3efa4603          	lbu	a2,1007(s4)
   1a268:	3f0a2683          	lw	a3,1008(s4)
   1a26c:	3f4a2703          	lw	a4,1012(s4)
   1a270:	3f8a2783          	lw	a5,1016(s4)
   1a274:	3fca1483          	lh	s1,1020(s4)
   1a278:	3fea4403          	lbu	s0,1022(s4)
   1a27c:	05a2                	slli	a1,a1,0x8
   1a27e:	38ea2823          	sw	a4,912(s4)
   1a282:	38fa2a23          	sw	a5,916(s4)
   1a286:	389a1c23          	sh	s1,920(s4)
   1a28a:	388a0d23          	sb	s0,922(s4)
   1a28e:	0186d713          	srli	a4,a3,0x18
   1a292:	8d4d                	or	a0,a0,a1
   1a294:	0106d593          	srli	a1,a3,0x10
   1a298:	18ba0aa3          	sb	a1,405(s4)
   1a29c:	18ea0b23          	sb	a4,406(s4)
   1a2a0:	0086d593          	srli	a1,a3,0x8
   1a2a4:	18aa1823          	sh	a0,400(s4)
   1a2a8:	18ca0923          	sb	a2,402(s4)
   1a2ac:	18da09a3          	sb	a3,403(s4)
   1a2b0:	18ba0a23          	sb	a1,404(s4)
   1a2b4:	6505                	lui	a0,0x1
   1a2b6:	12750513          	addi	a0,a0,295 # 1127 <.Lline_table_start1+0xefc>
   1a2ba:	950a                	add	a0,a0,sp
   1a2bc:	6585                	lui	a1,0x1
   1a2be:	32058593          	addi	a1,a1,800 # 1320 <.Lline_table_start1+0x10f5>
   1a2c2:	958a                	add	a1,a1,sp
   1a2c4:	462d                	li	a2,11
   1a2c6:	00001097          	auipc	ra,0x1
   1a2ca:	cac080e7          	jalr	-852(ra) # 1af72 <memcpy>
   1a2ce:	6505                	lui	a0,0x1
   1a2d0:	37c50513          	addi	a0,a0,892 # 137c <.Lline_table_start1+0x1151>
   1a2d4:	950a                	add	a0,a0,sp
   1a2d6:	6585                	lui	a1,0x1
   1a2d8:	12058593          	addi	a1,a1,288 # 1120 <.Lline_table_start1+0xef5>
   1a2dc:	958a                	add	a1,a1,sp
   1a2de:	ffffb097          	auipc	ra,0xffffb
   1a2e2:	aa4080e7          	jalr	-1372(ra) # 14d82 <_ZN20complex_full_dynamic3app17hb13094d290fdabc4E>
   1a2e6:	3eca4503          	lbu	a0,1004(s4)
   1a2ea:	68051063          	bnez	a0,1a96a <_start+0x3cc8>
   1a2ee:	3eea4503          	lbu	a0,1006(s4)
   1a2f2:	3eda4583          	lbu	a1,1005(s4)
   1a2f6:	3efa4603          	lbu	a2,1007(s4)
   1a2fa:	3f0a2403          	lw	s0,1008(s4)
   1a2fe:	0522                	slli	a0,a0,0x8
   1a300:	8d4d                	or	a0,a0,a1
   1a302:	1aaa1123          	sh	a0,418(s4)
   1a306:	1aca0223          	sb	a2,420(s4)
   1a30a:	6505                	lui	a0,0x1
   1a30c:	38450513          	addi	a0,a0,900 # 1384 <.Lline_table_start1+0x1159>
   1a310:	00a105b3          	add	a1,sp,a0
   1a314:	6505                	lui	a0,0x1
   1a316:	32050513          	addi	a0,a0,800 # 1320 <.Lline_table_start1+0x10f5>
   1a31a:	950a                	add	a0,a0,sp
   1a31c:	03d00613          	li	a2,61
   1a320:	00001097          	auipc	ra,0x1
   1a324:	c52080e7          	jalr	-942(ra) # 1af72 <memcpy>
   1a328:	01845513          	srli	a0,s0,0x18
   1a32c:	01045593          	srli	a1,s0,0x10
   1a330:	00845613          	srli	a2,s0,0x8
   1a334:	1a8a02a3          	sb	s0,421(s4)
   1a338:	1aca0323          	sb	a2,422(s4)
   1a33c:	1aba03a3          	sb	a1,423(s4)
   1a340:	1aaa0423          	sb	a0,424(s4)
   1a344:	6505                	lui	a0,0x1
   1a346:	13950513          	addi	a0,a0,313 # 1139 <.Lline_table_start1+0xf0e>
   1a34a:	950a                	add	a0,a0,sp
   1a34c:	6585                	lui	a1,0x1
   1a34e:	32058593          	addi	a1,a1,800 # 1320 <.Lline_table_start1+0x10f5>
   1a352:	958a                	add	a1,a1,sp
   1a354:	03d00613          	li	a2,61
   1a358:	00001097          	auipc	ra,0x1
   1a35c:	c1a080e7          	jalr	-998(ra) # 1af72 <memcpy>
   1a360:	6505                	lui	a0,0x1
   1a362:	37c50513          	addi	a0,a0,892 # 137c <.Lline_table_start1+0x1151>
   1a366:	950a                	add	a0,a0,sp
   1a368:	6585                	lui	a1,0x1
   1a36a:	13258593          	addi	a1,a1,306 # 1132 <.Lline_table_start1+0xf07>
   1a36e:	958a                	add	a1,a1,sp
   1a370:	ffffa097          	auipc	ra,0xffffa
   1a374:	248080e7          	jalr	584(ra) # 145b8 <_ZN20complex_full_dynamic3app17ha4bab3f54299b465E>
   1a378:	3eca4503          	lbu	a0,1004(s4)
   1a37c:	5e051763          	bnez	a0,1a96a <_start+0x3cc8>
   1a380:	3eda4503          	lbu	a0,1005(s4)
   1a384:	3eea4583          	lbu	a1,1006(s4)
   1a388:	3efa4603          	lbu	a2,1007(s4)
   1a38c:	3f0a2683          	lw	a3,1008(s4)
   1a390:	3f4a2703          	lw	a4,1012(s4)
   1a394:	3f8a2783          	lw	a5,1016(s4)
   1a398:	3fca2483          	lw	s1,1020(s4)
   1a39c:	400a2403          	lw	s0,1024(s4)
   1a3a0:	38ea2823          	sw	a4,912(s4)
   1a3a4:	38fa2a23          	sw	a5,916(s4)
   1a3a8:	389a2c23          	sw	s1,920(s4)
   1a3ac:	388a2e23          	sw	s0,924(s4)
   1a3b0:	404a2703          	lw	a4,1028(s4)
   1a3b4:	408a2783          	lw	a5,1032(s4)
   1a3b8:	40ca2483          	lw	s1,1036(s4)
   1a3bc:	05a2                	slli	a1,a1,0x8
   1a3be:	3aea2023          	sw	a4,928(s4)
   1a3c2:	3afa2223          	sw	a5,932(s4)
   1a3c6:	3a9a2423          	sw	s1,936(s4)
   1a3ca:	0186d713          	srli	a4,a3,0x18
   1a3ce:	8d4d                	or	a0,a0,a1
   1a3d0:	0106d593          	srli	a1,a3,0x10
   1a3d4:	1eba05a3          	sb	a1,491(s4)
   1a3d8:	1eea0623          	sb	a4,492(s4)
   1a3dc:	0086d593          	srli	a1,a3,0x8
   1a3e0:	1eaa1323          	sh	a0,486(s4)
   1a3e4:	1eca0423          	sb	a2,488(s4)
   1a3e8:	1eda04a3          	sb	a3,489(s4)
   1a3ec:	1eba0523          	sb	a1,490(s4)
   1a3f0:	6505                	lui	a0,0x1
   1a3f2:	17d50513          	addi	a0,a0,381 # 117d <.Lline_table_start1+0xf52>
   1a3f6:	950a                	add	a0,a0,sp
   1a3f8:	6585                	lui	a1,0x1
   1a3fa:	32058593          	addi	a1,a1,800 # 1320 <.Lline_table_start1+0x10f5>
   1a3fe:	958a                	add	a1,a1,sp
   1a400:	4671                	li	a2,28
   1a402:	00001097          	auipc	ra,0x1
   1a406:	b70080e7          	jalr	-1168(ra) # 1af72 <memcpy>
   1a40a:	6505                	lui	a0,0x1
   1a40c:	37c50513          	addi	a0,a0,892 # 137c <.Lline_table_start1+0x1151>
   1a410:	950a                	add	a0,a0,sp
   1a412:	6585                	lui	a1,0x1
   1a414:	17658593          	addi	a1,a1,374 # 1176 <.Lline_table_start1+0xf4b>
   1a418:	958a                	add	a1,a1,sp
   1a41a:	ffff9097          	auipc	ra,0xffff9
   1a41e:	c52080e7          	jalr	-942(ra) # 1306c <_ZN20complex_full_dynamic3app17h5503fb8ab48dda16E>
   1a422:	3eca4503          	lbu	a0,1004(s4)
   1a426:	54051263          	bnez	a0,1a96a <_start+0x3cc8>
   1a42a:	3eda4503          	lbu	a0,1005(s4)
   1a42e:	3eea4583          	lbu	a1,1006(s4)
   1a432:	3efa4603          	lbu	a2,1007(s4)
   1a436:	3f0a2683          	lw	a3,1008(s4)
   1a43a:	3f4a2703          	lw	a4,1012(s4)
   1a43e:	3f8a2783          	lw	a5,1016(s4)
   1a442:	3fca2483          	lw	s1,1020(s4)
   1a446:	400a2403          	lw	s0,1024(s4)
   1a44a:	38ea2823          	sw	a4,912(s4)
   1a44e:	38fa2a23          	sw	a5,916(s4)
   1a452:	389a2c23          	sw	s1,920(s4)
   1a456:	388a2e23          	sw	s0,924(s4)
   1a45a:	404a2703          	lw	a4,1028(s4)
   1a45e:	408a2783          	lw	a5,1032(s4)
   1a462:	40ca2483          	lw	s1,1036(s4)
   1a466:	410a4403          	lbu	s0,1040(s4)
   1a46a:	05a2                	slli	a1,a1,0x8
   1a46c:	3aea2023          	sw	a4,928(s4)
   1a470:	3afa2223          	sw	a5,932(s4)
   1a474:	3a9a2423          	sw	s1,936(s4)
   1a478:	3a8a0623          	sb	s0,940(s4)
   1a47c:	0186d713          	srli	a4,a3,0x18
   1a480:	8d4d                	or	a0,a0,a1
   1a482:	0106d593          	srli	a1,a3,0x10
   1a486:	20ba07a3          	sb	a1,527(s4)
   1a48a:	20ea0823          	sb	a4,528(s4)
   1a48e:	0086d593          	srli	a1,a3,0x8
   1a492:	20aa1523          	sh	a0,522(s4)
   1a496:	20ca0623          	sb	a2,524(s4)
   1a49a:	20da06a3          	sb	a3,525(s4)
   1a49e:	20ba0723          	sb	a1,526(s4)
   1a4a2:	6505                	lui	a0,0x1
   1a4a4:	1a150513          	addi	a0,a0,417 # 11a1 <.Lline_table_start1+0xf76>
   1a4a8:	950a                	add	a0,a0,sp
   1a4aa:	6585                	lui	a1,0x1
   1a4ac:	32058593          	addi	a1,a1,800 # 1320 <.Lline_table_start1+0x10f5>
   1a4b0:	958a                	add	a1,a1,sp
   1a4b2:	4675                	li	a2,29
   1a4b4:	00001097          	auipc	ra,0x1
   1a4b8:	abe080e7          	jalr	-1346(ra) # 1af72 <memcpy>
   1a4bc:	6505                	lui	a0,0x1
   1a4be:	37c50513          	addi	a0,a0,892 # 137c <.Lline_table_start1+0x1151>
   1a4c2:	950a                	add	a0,a0,sp
   1a4c4:	6585                	lui	a1,0x1
   1a4c6:	19a58593          	addi	a1,a1,410 # 119a <.Lline_table_start1+0xf6f>
   1a4ca:	958a                	add	a1,a1,sp
   1a4cc:	ffff7097          	auipc	ra,0xffff7
   1a4d0:	e5e080e7          	jalr	-418(ra) # 1132a <_ZN20complex_full_dynamic3app17h074528d5c661f313E>
   1a4d4:	3eca4503          	lbu	a0,1004(s4)
   1a4d8:	48051963          	bnez	a0,1a96a <_start+0x3cc8>
   1a4dc:	3eea4503          	lbu	a0,1006(s4)
   1a4e0:	3eda4583          	lbu	a1,1005(s4)
   1a4e4:	3efa4603          	lbu	a2,1007(s4)
   1a4e8:	3f0a2403          	lw	s0,1008(s4)
   1a4ec:	0522                	slli	a0,a0,0x8
   1a4ee:	8d4d                	or	a0,a0,a1
   1a4f0:	22aa1723          	sh	a0,558(s4)
   1a4f4:	22ca0823          	sb	a2,560(s4)
   1a4f8:	6505                	lui	a0,0x1
   1a4fa:	38450513          	addi	a0,a0,900 # 1384 <.Lline_table_start1+0x1159>
   1a4fe:	00a105b3          	add	a1,sp,a0
   1a502:	6505                	lui	a0,0x1
   1a504:	32050513          	addi	a0,a0,800 # 1320 <.Lline_table_start1+0x10f5>
   1a508:	950a                	add	a0,a0,sp
   1a50a:	02800613          	li	a2,40
   1a50e:	00001097          	auipc	ra,0x1
   1a512:	a64080e7          	jalr	-1436(ra) # 1af72 <memcpy>
   1a516:	01845513          	srli	a0,s0,0x18
   1a51a:	01045593          	srli	a1,s0,0x10
   1a51e:	00845613          	srli	a2,s0,0x8
   1a522:	228a08a3          	sb	s0,561(s4)
   1a526:	22ca0923          	sb	a2,562(s4)
   1a52a:	22ba09a3          	sb	a1,563(s4)
   1a52e:	22aa0a23          	sb	a0,564(s4)
   1a532:	6505                	lui	a0,0x1
   1a534:	1c550513          	addi	a0,a0,453 # 11c5 <.Lline_table_start1+0xf9a>
   1a538:	950a                	add	a0,a0,sp
   1a53a:	6585                	lui	a1,0x1
   1a53c:	32058593          	addi	a1,a1,800 # 1320 <.Lline_table_start1+0x10f5>
   1a540:	958a                	add	a1,a1,sp
   1a542:	02800613          	li	a2,40
   1a546:	00001097          	auipc	ra,0x1
   1a54a:	a2c080e7          	jalr	-1492(ra) # 1af72 <memcpy>
   1a54e:	6505                	lui	a0,0x1
   1a550:	37c50513          	addi	a0,a0,892 # 137c <.Lline_table_start1+0x1151>
   1a554:	950a                	add	a0,a0,sp
   1a556:	6585                	lui	a1,0x1
   1a558:	1be58593          	addi	a1,a1,446 # 11be <.Lline_table_start1+0xf93>
   1a55c:	958a                	add	a1,a1,sp
   1a55e:	ffff9097          	auipc	ra,0xffff9
   1a562:	6ac080e7          	jalr	1708(ra) # 13c0a <_ZN20complex_full_dynamic3app17h8e7a448a8eb4bbb9E>
   1a566:	3eca4503          	lbu	a0,1004(s4)
   1a56a:	40051063          	bnez	a0,1a96a <_start+0x3cc8>
   1a56e:	3eea4503          	lbu	a0,1006(s4)
   1a572:	3eda4583          	lbu	a1,1005(s4)
   1a576:	3efa4603          	lbu	a2,1007(s4)
   1a57a:	3f0a2403          	lw	s0,1008(s4)
   1a57e:	0522                	slli	a0,a0,0x8
   1a580:	8d4d                	or	a0,a0,a1
   1a582:	24aa1f23          	sh	a0,606(s4)
   1a586:	26ca0023          	sb	a2,608(s4)
   1a58a:	6505                	lui	a0,0x1
   1a58c:	38450513          	addi	a0,a0,900 # 1384 <.Lline_table_start1+0x1159>
   1a590:	00a105b3          	add	a1,sp,a0
   1a594:	6505                	lui	a0,0x1
   1a596:	32050513          	addi	a0,a0,800 # 1320 <.Lline_table_start1+0x10f5>
   1a59a:	950a                	add	a0,a0,sp
   1a59c:	05700613          	li	a2,87
   1a5a0:	00001097          	auipc	ra,0x1
   1a5a4:	9d2080e7          	jalr	-1582(ra) # 1af72 <memcpy>
   1a5a8:	01845513          	srli	a0,s0,0x18
   1a5ac:	01045593          	srli	a1,s0,0x10
   1a5b0:	00845613          	srli	a2,s0,0x8
   1a5b4:	268a00a3          	sb	s0,609(s4)
   1a5b8:	26ca0123          	sb	a2,610(s4)
   1a5bc:	26ba01a3          	sb	a1,611(s4)
   1a5c0:	26aa0223          	sb	a0,612(s4)
   1a5c4:	6505                	lui	a0,0x1
   1a5c6:	1f550513          	addi	a0,a0,501 # 11f5 <.Lline_table_start1+0xfca>
   1a5ca:	950a                	add	a0,a0,sp
   1a5cc:	6585                	lui	a1,0x1
   1a5ce:	32058593          	addi	a1,a1,800 # 1320 <.Lline_table_start1+0x10f5>
   1a5d2:	958a                	add	a1,a1,sp
   1a5d4:	05700613          	li	a2,87
   1a5d8:	00001097          	auipc	ra,0x1
   1a5dc:	99a080e7          	jalr	-1638(ra) # 1af72 <memcpy>
   1a5e0:	6505                	lui	a0,0x1
   1a5e2:	37c50513          	addi	a0,a0,892 # 137c <.Lline_table_start1+0x1151>
   1a5e6:	950a                	add	a0,a0,sp
   1a5e8:	6585                	lui	a1,0x1
   1a5ea:	1ee58593          	addi	a1,a1,494 # 11ee <.Lline_table_start1+0xfc3>
   1a5ee:	958a                	add	a1,a1,sp
   1a5f0:	ffff8097          	auipc	ra,0xffff8
   1a5f4:	be8080e7          	jalr	-1048(ra) # 121d8 <_ZN20complex_full_dynamic3app17h3751c486f30afa42E>
   1a5f8:	3eca4503          	lbu	a0,1004(s4)
   1a5fc:	36051763          	bnez	a0,1a96a <_start+0x3cc8>
   1a600:	3eea4503          	lbu	a0,1006(s4)
   1a604:	3eda4583          	lbu	a1,1005(s4)
   1a608:	3efa4603          	lbu	a2,1007(s4)
   1a60c:	3f0a2403          	lw	s0,1008(s4)
   1a610:	0522                	slli	a0,a0,0x8
   1a612:	8d4d                	or	a0,a0,a1
   1a614:	2aaa1e23          	sh	a0,700(s4)
   1a618:	2aca0f23          	sb	a2,702(s4)
   1a61c:	6505                	lui	a0,0x1
   1a61e:	38450513          	addi	a0,a0,900 # 1384 <.Lline_table_start1+0x1159>
   1a622:	00a105b3          	add	a1,sp,a0
   1a626:	6505                	lui	a0,0x1
   1a628:	32050513          	addi	a0,a0,800 # 1320 <.Lline_table_start1+0x10f5>
   1a62c:	950a                	add	a0,a0,sp
   1a62e:	04e00613          	li	a2,78
   1a632:	00001097          	auipc	ra,0x1
   1a636:	940080e7          	jalr	-1728(ra) # 1af72 <memcpy>
   1a63a:	01845513          	srli	a0,s0,0x18
   1a63e:	01045593          	srli	a1,s0,0x10
   1a642:	00845613          	srli	a2,s0,0x8
   1a646:	2a8a0fa3          	sb	s0,703(s4)
   1a64a:	2cca0023          	sb	a2,704(s4)
   1a64e:	2cba00a3          	sb	a1,705(s4)
   1a652:	2caa0123          	sb	a0,706(s4)
   1a656:	6505                	lui	a0,0x1
   1a658:	25350513          	addi	a0,a0,595 # 1253 <.Lline_table_start1+0x1028>
   1a65c:	950a                	add	a0,a0,sp
   1a65e:	6585                	lui	a1,0x1
   1a660:	32058593          	addi	a1,a1,800 # 1320 <.Lline_table_start1+0x10f5>
   1a664:	958a                	add	a1,a1,sp
   1a666:	04e00613          	li	a2,78
   1a66a:	00001097          	auipc	ra,0x1
   1a66e:	908080e7          	jalr	-1784(ra) # 1af72 <memcpy>
   1a672:	6505                	lui	a0,0x1
   1a674:	37c50513          	addi	a0,a0,892 # 137c <.Lline_table_start1+0x1151>
   1a678:	950a                	add	a0,a0,sp
   1a67a:	6585                	lui	a1,0x1
   1a67c:	24c58593          	addi	a1,a1,588 # 124c <.Lline_table_start1+0x1021>
   1a680:	958a                	add	a1,a1,sp
   1a682:	ffff9097          	auipc	ra,0xffff9
   1a686:	496080e7          	jalr	1174(ra) # 13b18 <_ZN20complex_full_dynamic3app17h8e3c9b4682ff29d6E>
   1a68a:	3eca4503          	lbu	a0,1004(s4)
   1a68e:	2c051e63          	bnez	a0,1a96a <_start+0x3cc8>
   1a692:	3eda4503          	lbu	a0,1005(s4)
   1a696:	3eea4583          	lbu	a1,1006(s4)
   1a69a:	3efa4603          	lbu	a2,1007(s4)
   1a69e:	3f0a2683          	lw	a3,1008(s4)
   1a6a2:	3f4a2703          	lw	a4,1012(s4)
   1a6a6:	3f8a2783          	lw	a5,1016(s4)
   1a6aa:	3fca1483          	lh	s1,1020(s4)
   1a6ae:	05a2                	slli	a1,a1,0x8
   1a6b0:	38ea2823          	sw	a4,912(s4)
   1a6b4:	38fa2a23          	sw	a5,916(s4)
   1a6b8:	389a1c23          	sh	s1,920(s4)
   1a6bc:	0186d713          	srli	a4,a3,0x18
   1a6c0:	8d4d                	or	a0,a0,a1
   1a6c2:	0106d593          	srli	a1,a3,0x10
   1a6c6:	30ba0ba3          	sb	a1,791(s4)
   1a6ca:	30ea0c23          	sb	a4,792(s4)
   1a6ce:	0086d593          	srli	a1,a3,0x8
   1a6d2:	30aa1923          	sh	a0,786(s4)
   1a6d6:	30ca0a23          	sb	a2,788(s4)
   1a6da:	30da0aa3          	sb	a3,789(s4)
   1a6de:	30ba0b23          	sb	a1,790(s4)
   1a6e2:	6505                	lui	a0,0x1
   1a6e4:	2a950513          	addi	a0,a0,681 # 12a9 <.Lline_table_start1+0x107e>
   1a6e8:	950a                	add	a0,a0,sp
   1a6ea:	6585                	lui	a1,0x1
   1a6ec:	32058593          	addi	a1,a1,800 # 1320 <.Lline_table_start1+0x10f5>
   1a6f0:	958a                	add	a1,a1,sp
   1a6f2:	4629                	li	a2,10
   1a6f4:	00001097          	auipc	ra,0x1
   1a6f8:	87e080e7          	jalr	-1922(ra) # 1af72 <memcpy>
   1a6fc:	6505                	lui	a0,0x1
   1a6fe:	37c50513          	addi	a0,a0,892 # 137c <.Lline_table_start1+0x1151>
   1a702:	950a                	add	a0,a0,sp
   1a704:	6585                	lui	a1,0x1
   1a706:	2a258593          	addi	a1,a1,674 # 12a2 <.Lline_table_start1+0x1077>
   1a70a:	958a                	add	a1,a1,sp
   1a70c:	ffffb097          	auipc	ra,0xffffb
   1a710:	126080e7          	jalr	294(ra) # 15832 <_ZN20complex_full_dynamic3app17hcd58333f27d1844aE>
   1a714:	3eca4503          	lbu	a0,1004(s4)
   1a718:	24051963          	bnez	a0,1a96a <_start+0x3cc8>
   1a71c:	3eea4503          	lbu	a0,1006(s4)
   1a720:	3eda4583          	lbu	a1,1005(s4)
   1a724:	3efa4603          	lbu	a2,1007(s4)
   1a728:	3f0a2403          	lw	s0,1008(s4)
   1a72c:	0522                	slli	a0,a0,0x8
   1a72e:	8d4d                	or	a0,a0,a1
   1a730:	32aa1223          	sh	a0,804(s4)
   1a734:	32ca0323          	sb	a2,806(s4)
   1a738:	6505                	lui	a0,0x1
   1a73a:	38450513          	addi	a0,a0,900 # 1384 <.Lline_table_start1+0x1159>
   1a73e:	00a105b3          	add	a1,sp,a0
   1a742:	6505                	lui	a0,0x1
   1a744:	32050513          	addi	a0,a0,800 # 1320 <.Lline_table_start1+0x10f5>
   1a748:	950a                	add	a0,a0,sp
   1a74a:	04900613          	li	a2,73
   1a74e:	00001097          	auipc	ra,0x1
   1a752:	824080e7          	jalr	-2012(ra) # 1af72 <memcpy>
   1a756:	01845513          	srli	a0,s0,0x18
   1a75a:	01045593          	srli	a1,s0,0x10
   1a75e:	00845613          	srli	a2,s0,0x8
   1a762:	328a03a3          	sb	s0,807(s4)
   1a766:	32ca0423          	sb	a2,808(s4)
   1a76a:	32ba04a3          	sb	a1,809(s4)
   1a76e:	32aa0523          	sb	a0,810(s4)
   1a772:	6505                	lui	a0,0x1
   1a774:	2bb50513          	addi	a0,a0,699 # 12bb <.Lline_table_start1+0x1090>
   1a778:	950a                	add	a0,a0,sp
   1a77a:	6585                	lui	a1,0x1
   1a77c:	32058593          	addi	a1,a1,800 # 1320 <.Lline_table_start1+0x10f5>
   1a780:	958a                	add	a1,a1,sp
   1a782:	04900613          	li	a2,73
   1a786:	00000097          	auipc	ra,0x0
   1a78a:	7ec080e7          	jalr	2028(ra) # 1af72 <memcpy>
   1a78e:	6505                	lui	a0,0x1
   1a790:	37c50513          	addi	a0,a0,892 # 137c <.Lline_table_start1+0x1151>
   1a794:	950a                	add	a0,a0,sp
   1a796:	6585                	lui	a1,0x1
   1a798:	2b458593          	addi	a1,a1,692 # 12b4 <.Lline_table_start1+0x1089>
   1a79c:	958a                	add	a1,a1,sp
   1a79e:	ffff7097          	auipc	ra,0xffff7
   1a7a2:	f74080e7          	jalr	-140(ra) # 11712 <_ZN20complex_full_dynamic3app17h11736cd325608fbaE>
   1a7a6:	3eca4503          	lbu	a0,1004(s4)
   1a7aa:	1c051063          	bnez	a0,1a96a <_start+0x3cc8>
   1a7ae:	3eda4503          	lbu	a0,1005(s4)
   1a7b2:	3eea4583          	lbu	a1,1006(s4)
   1a7b6:	3efa4803          	lbu	a6,1007(s4)
   1a7ba:	3f0a2683          	lw	a3,1008(s4)
   1a7be:	3f4a2703          	lw	a4,1012(s4)
   1a7c2:	3f8a2783          	lw	a5,1016(s4)
   1a7c6:	3fca2483          	lw	s1,1020(s4)
   1a7ca:	400a2403          	lw	s0,1024(s4)
   1a7ce:	404a2603          	lw	a2,1028(s4)
   1a7d2:	05a2                	slli	a1,a1,0x8
   1a7d4:	389a2c23          	sw	s1,920(s4)
   1a7d8:	388a2e23          	sw	s0,924(s4)
   1a7dc:	3aca2023          	sw	a2,928(s4)
   1a7e0:	0186d613          	srli	a2,a3,0x18
   1a7e4:	8d4d                	or	a0,a0,a1
   1a7e6:	0106d593          	srli	a1,a3,0x10
   1a7ea:	36ba0ca3          	sb	a1,889(s4)
   1a7ee:	36ca0d23          	sb	a2,890(s4)
   1a7f2:	38ea2823          	sw	a4,912(s4)
   1a7f6:	38fa2a23          	sw	a5,916(s4)
   1a7fa:	0086d593          	srli	a1,a3,0x8
   1a7fe:	36aa1a23          	sh	a0,884(s4)
   1a802:	370a0b23          	sb	a6,886(s4)
   1a806:	36da0ba3          	sb	a3,887(s4)
   1a80a:	36ba0c23          	sb	a1,888(s4)
   1a80e:	6505                	lui	a0,0x1
   1a810:	30b50513          	addi	a0,a0,779 # 130b <.Lline_table_start1+0x10e0>
   1a814:	950a                	add	a0,a0,sp
   1a816:	6585                	lui	a1,0x1
   1a818:	32058593          	addi	a1,a1,800 # 1320 <.Lline_table_start1+0x10f5>
   1a81c:	958a                	add	a1,a1,sp
   1a81e:	4651                	li	a2,20
   1a820:	00000097          	auipc	ra,0x0
   1a824:	752080e7          	jalr	1874(ra) # 1af72 <memcpy>
   1a828:	6505                	lui	a0,0x1
   1a82a:	37c50513          	addi	a0,a0,892 # 137c <.Lline_table_start1+0x1151>
   1a82e:	950a                	add	a0,a0,sp
   1a830:	6585                	lui	a1,0x1
   1a832:	30458593          	addi	a1,a1,772 # 1304 <.Lline_table_start1+0x10d9>
   1a836:	958a                	add	a1,a1,sp
   1a838:	ffff9097          	auipc	ra,0xffff9
   1a83c:	4d2080e7          	jalr	1234(ra) # 13d0a <_ZN20complex_full_dynamic3app17h8f8f54140bbcef01E>
   1a840:	3eca4503          	lbu	a0,1004(s4)
   1a844:	12051363          	bnez	a0,1a96a <_start+0x3cc8>
   1a848:	3eea4503          	lbu	a0,1006(s4)
   1a84c:	3eda4583          	lbu	a1,1005(s4)
   1a850:	3efa4603          	lbu	a2,1007(s4)
   1a854:	3f0a2403          	lw	s0,1008(s4)
   1a858:	0522                	slli	a0,a0,0x8
   1a85a:	8d4d                	or	a0,a0,a1
   1a85c:	44aa1923          	sh	a0,1106(s4)
   1a860:	44ca0a23          	sb	a2,1108(s4)
   1a864:	6505                	lui	a0,0x1
   1a866:	38450513          	addi	a0,a0,900 # 1384 <.Lline_table_start1+0x1159>
   1a86a:	00a105b3          	add	a1,sp,a0
   1a86e:	6505                	lui	a0,0x1
   1a870:	32050513          	addi	a0,a0,800 # 1320 <.Lline_table_start1+0x10f5>
   1a874:	950a                	add	a0,a0,sp
   1a876:	05c00613          	li	a2,92
   1a87a:	00000097          	auipc	ra,0x0
   1a87e:	6f8080e7          	jalr	1784(ra) # 1af72 <memcpy>
   1a882:	01845513          	srli	a0,s0,0x18
   1a886:	01045593          	srli	a1,s0,0x10
   1a88a:	00845613          	srli	a2,s0,0x8
   1a88e:	448a0aa3          	sb	s0,1109(s4)
   1a892:	44ca0b23          	sb	a2,1110(s4)
   1a896:	44ba0ba3          	sb	a1,1111(s4)
   1a89a:	44aa0c23          	sb	a0,1112(s4)
   1a89e:	6505                	lui	a0,0x1
   1a8a0:	3e950513          	addi	a0,a0,1001 # 13e9 <.Lline_table_start1+0x11be>
   1a8a4:	950a                	add	a0,a0,sp
   1a8a6:	6585                	lui	a1,0x1
   1a8a8:	32058593          	addi	a1,a1,800 # 1320 <.Lline_table_start1+0x10f5>
   1a8ac:	958a                	add	a1,a1,sp
   1a8ae:	05c00613          	li	a2,92
   1a8b2:	00000097          	auipc	ra,0x0
   1a8b6:	6c0080e7          	jalr	1728(ra) # 1af72 <memcpy>
   1a8ba:	6505                	lui	a0,0x1
   1a8bc:	37c50513          	addi	a0,a0,892 # 137c <.Lline_table_start1+0x1151>
   1a8c0:	950a                	add	a0,a0,sp
   1a8c2:	6585                	lui	a1,0x1
   1a8c4:	3e258593          	addi	a1,a1,994 # 13e2 <.Lline_table_start1+0x11b7>
   1a8c8:	958a                	add	a1,a1,sp
   1a8ca:	ffff8097          	auipc	ra,0xffff8
   1a8ce:	a08080e7          	jalr	-1528(ra) # 122d2 <_ZN20complex_full_dynamic3app17h3aa9c3739dcc351eE>
   1a8d2:	3eca4503          	lbu	a0,1004(s4)
   1a8d6:	e951                	bnez	a0,1a96a <_start+0x3cc8>
   1a8d8:	3eea4503          	lbu	a0,1006(s4)
   1a8dc:	3eda4583          	lbu	a1,1005(s4)
   1a8e0:	3efa4603          	lbu	a2,1007(s4)
   1a8e4:	3f0a2403          	lw	s0,1008(s4)
   1a8e8:	0522                	slli	a0,a0,0x8
   1a8ea:	8d4d                	or	a0,a0,a1
   1a8ec:	4aaa1b23          	sh	a0,1206(s4)
   1a8f0:	4aca0c23          	sb	a2,1208(s4)
   1a8f4:	6505                	lui	a0,0x1
   1a8f6:	38450513          	addi	a0,a0,900 # 1384 <.Lline_table_start1+0x1159>
   1a8fa:	00a105b3          	add	a1,sp,a0
   1a8fe:	6505                	lui	a0,0x1
   1a900:	32050513          	addi	a0,a0,800 # 1320 <.Lline_table_start1+0x10f5>
   1a904:	950a                	add	a0,a0,sp
   1a906:	02500613          	li	a2,37
   1a90a:	00000097          	auipc	ra,0x0
   1a90e:	668080e7          	jalr	1640(ra) # 1af72 <memcpy>
   1a912:	01845513          	srli	a0,s0,0x18
   1a916:	01045593          	srli	a1,s0,0x10
   1a91a:	00845613          	srli	a2,s0,0x8
   1a91e:	4a8a0ca3          	sb	s0,1209(s4)
   1a922:	4aca0d23          	sb	a2,1210(s4)
   1a926:	4aba0da3          	sb	a1,1211(s4)
   1a92a:	4aaa0e23          	sb	a0,1212(s4)
   1a92e:	6505                	lui	a0,0x1
   1a930:	44d50513          	addi	a0,a0,1101 # 144d <.Lline_table_start1+0x1222>
   1a934:	950a                	add	a0,a0,sp
   1a936:	6585                	lui	a1,0x1
   1a938:	32058593          	addi	a1,a1,800 # 1320 <.Lline_table_start1+0x10f5>
   1a93c:	958a                	add	a1,a1,sp
   1a93e:	02500613          	li	a2,37
   1a942:	00000097          	auipc	ra,0x0
   1a946:	630080e7          	jalr	1584(ra) # 1af72 <memcpy>
   1a94a:	6505                	lui	a0,0x1
   1a94c:	37c50513          	addi	a0,a0,892 # 137c <.Lline_table_start1+0x1151>
   1a950:	950a                	add	a0,a0,sp
   1a952:	6585                	lui	a1,0x1
   1a954:	44658593          	addi	a1,a1,1094 # 1446 <.Lline_table_start1+0x121b>
   1a958:	958a                	add	a1,a1,sp
   1a95a:	ffffa097          	auipc	ra,0xffffa
   1a95e:	a70080e7          	jalr	-1424(ra) # 143ca <_ZN20complex_full_dynamic3app17ha12f4dfc33846659E>
   1a962:	3eca4503          	lbu	a0,1004(s4)
   1a966:	4e050663          	beqz	a0,1ae52 <_start+0x41b0>
   1a96a:	3f0a2a83          	lw	s5,1008(s4)
   1a96e:	4505                	li	a0,1
   1a970:	85d6                	mv	a1,s5
   1a972:	7f010113          	addi	sp,sp,2032
   1a976:	4f010113          	addi	sp,sp,1264
   1a97a:	7ec12083          	lw	ra,2028(sp)
   1a97e:	7e812403          	lw	s0,2024(sp)
   1a982:	7e412483          	lw	s1,2020(sp)
   1a986:	7e012903          	lw	s2,2016(sp)
   1a98a:	7dc12983          	lw	s3,2012(sp)
   1a98e:	7d812a03          	lw	s4,2008(sp)
   1a992:	7d412a83          	lw	s5,2004(sp)
   1a996:	7d012b03          	lw	s6,2000(sp)
   1a99a:	7cc12b83          	lw	s7,1996(sp)
   1a99e:	7c812c03          	lw	s8,1992(sp)
   1a9a2:	7c412c83          	lw	s9,1988(sp)
   1a9a6:	7c012d03          	lw	s10,1984(sp)
   1a9aa:	7bc12d83          	lw	s11,1980(sp)
   1a9ae:	7f010113          	addi	sp,sp,2032
   1a9b2:	8082                	ret
   1a9b4:	0888                	addi	a0,sp,80
   1a9b6:	00000097          	auipc	ra,0x0
   1a9ba:	530080e7          	jalr	1328(ra) # 1aee6 <_ZN9allow_pin12full_dynamic17unshare_if_shared17he9718eb989dae51aE>
   1a9be:	6505                	lui	a0,0x1
   1a9c0:	37c50513          	addi	a0,a0,892 # 137c <.Lline_table_start1+0x1151>
   1a9c4:	950a                	add	a0,a0,sp
   1a9c6:	00000097          	auipc	ra,0x0
   1a9ca:	520080e7          	jalr	1312(ra) # 1aee6 <_ZN9allow_pin12full_dynamic17unshare_if_shared17he9718eb989dae51aE>
   1a9ce:	6505                	lui	a0,0x1
   1a9d0:	37c50513          	addi	a0,a0,892 # 137c <.Lline_table_start1+0x1151>
   1a9d4:	950a                	add	a0,a0,sp
   1a9d6:	00000097          	auipc	ra,0x0
   1a9da:	510080e7          	jalr	1296(ra) # 1aee6 <_ZN9allow_pin12full_dynamic17unshare_if_shared17he9718eb989dae51aE>
   1a9de:	00194503          	lbu	a0,1(s2)
   1a9e2:	00094583          	lbu	a1,0(s2)
   1a9e6:	00294603          	lbu	a2,2(s2)
   1a9ea:	0522                	slli	a0,a0,0x8
   1a9ec:	3fba4683          	lbu	a3,1019(s4)
   1a9f0:	3fca4703          	lbu	a4,1020(s4)
   1a9f4:	8d4d                	or	a0,a0,a1
   1a9f6:	3fda4583          	lbu	a1,1021(s4)
   1a9fa:	3fea4783          	lbu	a5,1022(s4)
   1a9fe:	0722                	slli	a4,a4,0x8
   1aa00:	8ed9                	or	a3,a3,a4
   1aa02:	05c2                	slli	a1,a1,0x10
   1aa04:	07e2                	slli	a5,a5,0x18
   1aa06:	8ddd                	or	a1,a1,a5
   1aa08:	08a11823          	sh	a0,144(sp)
   1aa0c:	08c10923          	sb	a2,146(sp)
   1aa10:	00d5eab3          	or	s5,a1,a3
   1aa14:	6505                	lui	a0,0x1
   1aa16:	38f50513          	addi	a0,a0,911 # 138f <.Lline_table_start1+0x1164>
   1aa1a:	00a105b3          	add	a1,sp,a0
   1aa1e:	0048                	addi	a0,sp,4
   1aa20:	04a00613          	li	a2,74
   1aa24:	00000097          	auipc	ra,0x0
   1aa28:	54e080e7          	jalr	1358(ra) # 1af72 <memcpy>
   1aa2c:	4401                	li	s0,0
   1aa2e:	b5cfc06f          	j	16d8a <_start+0xe8>
   1aa32:	6505                	lui	a0,0x1
   1aa34:	37c50513          	addi	a0,a0,892 # 137c <.Lline_table_start1+0x1151>
   1aa38:	950a                	add	a0,a0,sp
   1aa3a:	00000097          	auipc	ra,0x0
   1aa3e:	4ac080e7          	jalr	1196(ra) # 1aee6 <_ZN9allow_pin12full_dynamic17unshare_if_shared17he9718eb989dae51aE>
   1aa42:	6505                	lui	a0,0x1
   1aa44:	32050513          	addi	a0,a0,800 # 1320 <.Lline_table_start1+0x10f5>
   1aa48:	950a                	add	a0,a0,sp
   1aa4a:	00000097          	auipc	ra,0x0
   1aa4e:	49c080e7          	jalr	1180(ra) # 1aee6 <_ZN9allow_pin12full_dynamic17unshare_if_shared17he9718eb989dae51aE>
   1aa52:	6505                	lui	a0,0x1
   1aa54:	32050513          	addi	a0,a0,800 # 1320 <.Lline_table_start1+0x10f5>
   1aa58:	950a                	add	a0,a0,sp
   1aa5a:	00000097          	auipc	ra,0x0
   1aa5e:	48c080e7          	jalr	1164(ra) # 1aee6 <_ZN9allow_pin12full_dynamic17unshare_if_shared17he9718eb989dae51aE>
   1aa62:	00194503          	lbu	a0,1(s2)
   1aa66:	00094583          	lbu	a1,0(s2)
   1aa6a:	00294603          	lbu	a2,2(s2)
   1aa6e:	0522                	slli	a0,a0,0x8
   1aa70:	39fa4683          	lbu	a3,927(s4)
   1aa74:	3a0a4703          	lbu	a4,928(s4)
   1aa78:	8d4d                	or	a0,a0,a1
   1aa7a:	3a1a4583          	lbu	a1,929(s4)
   1aa7e:	3a2a4783          	lbu	a5,930(s4)
   1aa82:	0722                	slli	a4,a4,0x8
   1aa84:	8ed9                	or	a3,a3,a4
   1aa86:	05c2                	slli	a1,a1,0x10
   1aa88:	07e2                	slli	a5,a5,0x18
   1aa8a:	8ddd                	or	a1,a1,a5
   1aa8c:	08a11823          	sh	a0,144(sp)
   1aa90:	08c10923          	sb	a2,146(sp)
   1aa94:	00d5eab3          	or	s5,a1,a3
   1aa98:	6505                	lui	a0,0x1
   1aa9a:	33350513          	addi	a0,a0,819 # 1333 <.Lline_table_start1+0x1108>
   1aa9e:	00a105b3          	add	a1,sp,a0
   1aaa2:	0888                	addi	a0,sp,80
   1aaa4:	03f00613          	li	a2,63
   1aaa8:	00000097          	auipc	ra,0x0
   1aaac:	4ca080e7          	jalr	1226(ra) # 1af72 <memcpy>
   1aab0:	4401                	li	s0,0
   1aab2:	bf8fc06f          	j	16eaa <_start+0x208>
   1aab6:	6505                	lui	a0,0x1
   1aab8:	37c50513          	addi	a0,a0,892 # 137c <.Lline_table_start1+0x1151>
   1aabc:	950a                	add	a0,a0,sp
   1aabe:	00000097          	auipc	ra,0x0
   1aac2:	428080e7          	jalr	1064(ra) # 1aee6 <_ZN9allow_pin12full_dynamic17unshare_if_shared17he9718eb989dae51aE>
   1aac6:	6505                	lui	a0,0x1
   1aac8:	32050513          	addi	a0,a0,800 # 1320 <.Lline_table_start1+0x10f5>
   1aacc:	950a                	add	a0,a0,sp
   1aace:	00000097          	auipc	ra,0x0
   1aad2:	418080e7          	jalr	1048(ra) # 1aee6 <_ZN9allow_pin12full_dynamic17unshare_if_shared17he9718eb989dae51aE>
   1aad6:	6505                	lui	a0,0x1
   1aad8:	32050513          	addi	a0,a0,800 # 1320 <.Lline_table_start1+0x10f5>
   1aadc:	950a                	add	a0,a0,sp
   1aade:	00000097          	auipc	ra,0x0
   1aae2:	408080e7          	jalr	1032(ra) # 1aee6 <_ZN9allow_pin12full_dynamic17unshare_if_shared17he9718eb989dae51aE>
   1aae6:	4401                	li	s0,0
   1aae8:	00094583          	lbu	a1,0(s2)
   1aaec:	00194603          	lbu	a2,1(s2)
   1aaf0:	00294803          	lbu	a6,2(s2)
   1aaf4:	39fa4883          	lbu	a7,927(s4)
   1aaf8:	3a0a4283          	lbu	t0,928(s4)
   1aafc:	3a1a4303          	lbu	t1,929(s4)
   1ab00:	3a2a4383          	lbu	t2,930(s4)
   1ab04:	3b3a4503          	lbu	a0,947(s4)
   1ab08:	3a3a4683          	lbu	a3,931(s4)
   1ab0c:	3a4a4703          	lbu	a4,932(s4)
   1ab10:	3a5a4783          	lbu	a5,933(s4)
   1ab14:	3a6a4483          	lbu	s1,934(s4)
   1ab18:	0622                	slli	a2,a2,0x8
   1ab1a:	0aa10023          	sb	a0,160(sp)
   1ab1e:	00b66e33          	or	t3,a2,a1
   1ab22:	3a7a4e83          	lbu	t4,935(s4)
   1ab26:	3a8a4603          	lbu	a2,936(s4)
   1ab2a:	3a9a4583          	lbu	a1,937(s4)
   1ab2e:	3aaa4503          	lbu	a0,938(s4)
   1ab32:	02a2                	slli	t0,t0,0x8
   1ab34:	0342                	slli	t1,t1,0x10
   1ab36:	03e2                	slli	t2,t2,0x18
   1ab38:	0722                	slli	a4,a4,0x8
   1ab3a:	07c2                	slli	a5,a5,0x10
   1ab3c:	04e2                	slli	s1,s1,0x18
   1ab3e:	0112e8b3          	or	a7,t0,a7
   1ab42:	0063e2b3          	or	t0,t2,t1
   1ab46:	00d76333          	or	t1,a4,a3
   1ab4a:	00f4e3b3          	or	t2,s1,a5
   1ab4e:	3aba4703          	lbu	a4,939(s4)
   1ab52:	3aca4483          	lbu	s1,940(s4)
   1ab56:	3ada4683          	lbu	a3,941(s4)
   1ab5a:	3aea4783          	lbu	a5,942(s4)
   1ab5e:	0622                	slli	a2,a2,0x8
   1ab60:	05c2                	slli	a1,a1,0x10
   1ab62:	0562                	slli	a0,a0,0x18
   1ab64:	04a2                	slli	s1,s1,0x8
   1ab66:	06c2                	slli	a3,a3,0x10
   1ab68:	07e2                	slli	a5,a5,0x18
   1ab6a:	01d66eb3          	or	t4,a2,t4
   1ab6e:	8d4d                	or	a0,a0,a1
   1ab70:	8f45                	or	a4,a4,s1
   1ab72:	3afa4583          	lbu	a1,943(s4)
   1ab76:	3b0a4483          	lbu	s1,944(s4)
   1ab7a:	8edd                	or	a3,a3,a5
   1ab7c:	3b1a4783          	lbu	a5,945(s4)
   1ab80:	3b2a4603          	lbu	a2,946(s4)
   1ab84:	04a2                	slli	s1,s1,0x8
   1ab86:	8dc5                	or	a1,a1,s1
   1ab88:	07c2                	slli	a5,a5,0x10
   1ab8a:	0662                	slli	a2,a2,0x18
   1ab8c:	8e5d                	or	a2,a2,a5
   1ab8e:	0bc11223          	sh	t3,164(sp)
   1ab92:	0b010323          	sb	a6,166(sp)
   1ab96:	0112eab3          	or	s5,t0,a7
   1ab9a:	0063e7b3          	or	a5,t2,t1
   1ab9e:	01d56533          	or	a0,a0,t4
   1aba2:	8ed9                	or	a3,a3,a4
   1aba4:	8dd1                	or	a1,a1,a2
   1aba6:	c93e                	sw	a5,144(sp)
   1aba8:	cb2a                	sw	a0,148(sp)
   1abaa:	cd36                	sw	a3,152(sp)
   1abac:	cf2e                	sw	a1,156(sp)
   1abae:	c14fc06f          	j	16fc2 <_start+0x320>
   1abb2:	0888                	addi	a0,sp,80
   1abb4:	00000097          	auipc	ra,0x0
   1abb8:	332080e7          	jalr	818(ra) # 1aee6 <_ZN9allow_pin12full_dynamic17unshare_if_shared17he9718eb989dae51aE>
   1abbc:	6505                	lui	a0,0x1
   1abbe:	37c50513          	addi	a0,a0,892 # 137c <.Lline_table_start1+0x1151>
   1abc2:	950a                	add	a0,a0,sp
   1abc4:	00000097          	auipc	ra,0x0
   1abc8:	322080e7          	jalr	802(ra) # 1aee6 <_ZN9allow_pin12full_dynamic17unshare_if_shared17he9718eb989dae51aE>
   1abcc:	6505                	lui	a0,0x1
   1abce:	37c50513          	addi	a0,a0,892 # 137c <.Lline_table_start1+0x1151>
   1abd2:	950a                	add	a0,a0,sp
   1abd4:	00000097          	auipc	ra,0x0
   1abd8:	312080e7          	jalr	786(ra) # 1aee6 <_ZN9allow_pin12full_dynamic17unshare_if_shared17he9718eb989dae51aE>
   1abdc:	0019c503          	lbu	a0,1(s3)
   1abe0:	0009c583          	lbu	a1,0(s3)
   1abe4:	0029c603          	lbu	a2,2(s3)
   1abe8:	0522                	slli	a0,a0,0x8
   1abea:	3fba4683          	lbu	a3,1019(s4)
   1abee:	3fca4703          	lbu	a4,1020(s4)
   1abf2:	8d4d                	or	a0,a0,a1
   1abf4:	3fda4583          	lbu	a1,1021(s4)
   1abf8:	3fea4783          	lbu	a5,1022(s4)
   1abfc:	0722                	slli	a4,a4,0x8
   1abfe:	8ed9                	or	a3,a3,a4
   1ac00:	05c2                	slli	a1,a1,0x10
   1ac02:	07e2                	slli	a5,a5,0x18
   1ac04:	8ddd                	or	a1,a1,a5
   1ac06:	08a11823          	sh	a0,144(sp)
   1ac0a:	08c10923          	sb	a2,146(sp)
   1ac0e:	00d5eab3          	or	s5,a1,a3
   1ac12:	6505                	lui	a0,0x1
   1ac14:	38f50513          	addi	a0,a0,911 # 138f <.Lline_table_start1+0x1164>
   1ac18:	00a105b3          	add	a1,sp,a0
   1ac1c:	0048                	addi	a0,sp,4
   1ac1e:	02f00613          	li	a2,47
   1ac22:	00000097          	auipc	ra,0x0
   1ac26:	350080e7          	jalr	848(ra) # 1af72 <memcpy>
   1ac2a:	4401                	li	s0,0
   1ac2c:	c98fc06f          	j	170c4 <_start+0x422>
   1ac30:	6505                	lui	a0,0x1
   1ac32:	37c50513          	addi	a0,a0,892 # 137c <.Lline_table_start1+0x1151>
   1ac36:	950a                	add	a0,a0,sp
   1ac38:	00000097          	auipc	ra,0x0
   1ac3c:	2ae080e7          	jalr	686(ra) # 1aee6 <_ZN9allow_pin12full_dynamic17unshare_if_shared17he9718eb989dae51aE>
   1ac40:	6505                	lui	a0,0x1
   1ac42:	32050513          	addi	a0,a0,800 # 1320 <.Lline_table_start1+0x10f5>
   1ac46:	950a                	add	a0,a0,sp
   1ac48:	00000097          	auipc	ra,0x0
   1ac4c:	29e080e7          	jalr	670(ra) # 1aee6 <_ZN9allow_pin12full_dynamic17unshare_if_shared17he9718eb989dae51aE>
   1ac50:	6505                	lui	a0,0x1
   1ac52:	32050513          	addi	a0,a0,800 # 1320 <.Lline_table_start1+0x10f5>
   1ac56:	950a                	add	a0,a0,sp
   1ac58:	00000097          	auipc	ra,0x0
   1ac5c:	28e080e7          	jalr	654(ra) # 1aee6 <_ZN9allow_pin12full_dynamic17unshare_if_shared17he9718eb989dae51aE>
   1ac60:	4401                	li	s0,0
   1ac62:	00094883          	lbu	a7,0(s2)
   1ac66:	00194303          	lbu	t1,1(s2)
   1ac6a:	00294803          	lbu	a6,2(s2)
   1ac6e:	39fa4383          	lbu	t2,927(s4)
   1ac72:	3a0a4f83          	lbu	t6,928(s4)
   1ac76:	3a1a4c83          	lbu	s9,929(s4)
   1ac7a:	3a2a4483          	lbu	s1,930(s4)
   1ac7e:	3bfa4503          	lbu	a0,959(s4)
   1ac82:	3c0a4583          	lbu	a1,960(s4)
   1ac86:	3a3a4283          	lbu	t0,931(s4)
   1ac8a:	3a4a4e03          	lbu	t3,932(s4)
   1ac8e:	3a5a4e83          	lbu	t4,933(s4)
   1ac92:	3a6a4f03          	lbu	t5,934(s4)
   1ac96:	3a7a4983          	lbu	s3,935(s4)
   1ac9a:	3a8a4703          	lbu	a4,936(s4)
   1ac9e:	3a9a4683          	lbu	a3,937(s4)
   1aca2:	3aaa4603          	lbu	a2,938(s4)
   1aca6:	3aba4a83          	lbu	s5,939(s4)
   1acaa:	3aca4b03          	lbu	s6,940(s4)
   1acae:	3ada4b83          	lbu	s7,941(s4)
   1acb2:	3aea4c03          	lbu	s8,942(s4)
   1acb6:	0322                	slli	t1,t1,0x8
   1acb8:	008f9793          	slli	a5,t6,0x8
   1acbc:	0cc2                	slli	s9,s9,0x10
   1acbe:	04e2                	slli	s1,s1,0x18
   1acc0:	05a2                	slli	a1,a1,0x8
   1acc2:	01136fb3          	or	t6,t1,a7
   1acc6:	0077e333          	or	t1,a5,t2
   1acca:	0194e3b3          	or	t2,s1,s9
   1acce:	00a5e8b3          	or	a7,a1,a0
   1acd2:	3afa4c83          	lbu	s9,943(s4)
   1acd6:	3b0a4503          	lbu	a0,944(s4)
   1acda:	3b1a4783          	lbu	a5,945(s4)
   1acde:	3b2a4583          	lbu	a1,946(s4)
   1ace2:	0e22                	slli	t3,t3,0x8
   1ace4:	0ec2                	slli	t4,t4,0x10
   1ace6:	0f62                	slli	t5,t5,0x18
   1ace8:	0722                	slli	a4,a4,0x8
   1acea:	06c2                	slli	a3,a3,0x10
   1acec:	0662                	slli	a2,a2,0x18
   1acee:	005e62b3          	or	t0,t3,t0
   1acf2:	01df6eb3          	or	t4,t5,t4
   1acf6:	01376e33          	or	t3,a4,s3
   1acfa:	00d66f33          	or	t5,a2,a3
   1acfe:	3b3a4d03          	lbu	s10,947(s4)
   1ad02:	3b4a4703          	lbu	a4,948(s4)
   1ad06:	3b5a4603          	lbu	a2,949(s4)
   1ad0a:	3b6a4483          	lbu	s1,950(s4)
   1ad0e:	0b22                	slli	s6,s6,0x8
   1ad10:	0bc2                	slli	s7,s7,0x10
   1ad12:	0c62                	slli	s8,s8,0x18
   1ad14:	0522                	slli	a0,a0,0x8
   1ad16:	07c2                	slli	a5,a5,0x10
   1ad18:	05e2                	slli	a1,a1,0x18
   1ad1a:	015b69b3          	or	s3,s6,s5
   1ad1e:	017c6b33          	or	s6,s8,s7
   1ad22:	01956bb3          	or	s7,a0,s9
   1ad26:	00f5ec33          	or	s8,a1,a5
   1ad2a:	3b7a4783          	lbu	a5,951(s4)
   1ad2e:	3b8a4503          	lbu	a0,952(s4)
   1ad32:	3b9a4583          	lbu	a1,953(s4)
   1ad36:	3baa4683          	lbu	a3,954(s4)
   1ad3a:	0722                	slli	a4,a4,0x8
   1ad3c:	0642                	slli	a2,a2,0x10
   1ad3e:	04e2                	slli	s1,s1,0x18
   1ad40:	0522                	slli	a0,a0,0x8
   1ad42:	05c2                	slli	a1,a1,0x10
   1ad44:	06e2                	slli	a3,a3,0x18
   1ad46:	01a76cb3          	or	s9,a4,s10
   1ad4a:	00c4edb3          	or	s11,s1,a2
   1ad4e:	00f56d33          	or	s10,a0,a5
   1ad52:	3bba4783          	lbu	a5,955(s4)
   1ad56:	3bca4483          	lbu	s1,956(s4)
   1ad5a:	00b6e0b3          	or	ra,a3,a1
   1ad5e:	3bda4683          	lbu	a3,957(s4)
   1ad62:	3bea4703          	lbu	a4,958(s4)
   1ad66:	04a2                	slli	s1,s1,0x8
   1ad68:	8fc5                	or	a5,a5,s1
   1ad6a:	06c2                	slli	a3,a3,0x10
   1ad6c:	0762                	slli	a4,a4,0x18
   1ad6e:	8ed9                	or	a3,a3,a4
   1ad70:	09f11823          	sh	t6,144(sp)
   1ad74:	09010923          	sb	a6,146(sp)
   1ad78:	0063eab3          	or	s5,t2,t1
   1ad7c:	005ee733          	or	a4,t4,t0
   1ad80:	01cf64b3          	or	s1,t5,t3
   1ad84:	013b6833          	or	a6,s6,s3
   1ad88:	017c6633          	or	a2,s8,s7
   1ad8c:	019de5b3          	or	a1,s11,s9
   1ad90:	01a0e533          	or	a0,ra,s10
   1ad94:	8edd                	or	a3,a3,a5
   1ad96:	d0ae                	sw	a1,96(sp)
   1ad98:	d2aa                	sw	a0,100(sp)
   1ad9a:	d4b6                	sw	a3,104(sp)
   1ad9c:	07111623          	sh	a7,108(sp)
   1ada0:	c8ba                	sw	a4,80(sp)
   1ada2:	caa6                	sw	s1,84(sp)
   1ada4:	ccc2                	sw	a6,88(sp)
   1ada6:	ceb2                	sw	a2,92(sp)
   1ada8:	c2cfc06f          	j	171d4 <_start+0x532>
   1adac:	6505                	lui	a0,0x1
   1adae:	37c50513          	addi	a0,a0,892 # 137c <.Lline_table_start1+0x1151>
   1adb2:	950a                	add	a0,a0,sp
   1adb4:	00000097          	auipc	ra,0x0
   1adb8:	132080e7          	jalr	306(ra) # 1aee6 <_ZN9allow_pin12full_dynamic17unshare_if_shared17he9718eb989dae51aE>
   1adbc:	6505                	lui	a0,0x1
   1adbe:	32050513          	addi	a0,a0,800 # 1320 <.Lline_table_start1+0x10f5>
   1adc2:	950a                	add	a0,a0,sp
   1adc4:	00000097          	auipc	ra,0x0
   1adc8:	122080e7          	jalr	290(ra) # 1aee6 <_ZN9allow_pin12full_dynamic17unshare_if_shared17he9718eb989dae51aE>
   1adcc:	6505                	lui	a0,0x1
   1adce:	32050513          	addi	a0,a0,800 # 1320 <.Lline_table_start1+0x10f5>
   1add2:	950a                	add	a0,a0,sp
   1add4:	00000097          	auipc	ra,0x0
   1add8:	112080e7          	jalr	274(ra) # 1aee6 <_ZN9allow_pin12full_dynamic17unshare_if_shared17he9718eb989dae51aE>
   1addc:	4401                	li	s0,0
   1adde:	00094883          	lbu	a7,0(s2)
   1ade2:	00194583          	lbu	a1,1(s2)
   1ade6:	00294803          	lbu	a6,2(s2)
   1adea:	39fa4683          	lbu	a3,927(s4)
   1adee:	3a0a4703          	lbu	a4,928(s4)
   1adf2:	3a1a4783          	lbu	a5,929(s4)
   1adf6:	3a2a4483          	lbu	s1,930(s4)
   1adfa:	3a7a4603          	lbu	a2,935(s4)
   1adfe:	3a8a4503          	lbu	a0,936(s4)
   1ae02:	3a9a4283          	lbu	t0,937(s4)
   1ae06:	05a2                	slli	a1,a1,0x8
   1ae08:	0722                	slli	a4,a4,0x8
   1ae0a:	07c2                	slli	a5,a5,0x10
   1ae0c:	04e2                	slli	s1,s1,0x18
   1ae0e:	0522                	slli	a0,a0,0x8
   1ae10:	0115e5b3          	or	a1,a1,a7
   1ae14:	00d768b3          	or	a7,a4,a3
   1ae18:	8fc5                	or	a5,a5,s1
   1ae1a:	3a3a4703          	lbu	a4,931(s4)
   1ae1e:	3a4a4483          	lbu	s1,932(s4)
   1ae22:	8d51                	or	a0,a0,a2
   1ae24:	3a5a4603          	lbu	a2,933(s4)
   1ae28:	3a6a4683          	lbu	a3,934(s4)
   1ae2c:	04a2                	slli	s1,s1,0x8
   1ae2e:	8f45                	or	a4,a4,s1
   1ae30:	0642                	slli	a2,a2,0x10
   1ae32:	06e2                	slli	a3,a3,0x18
   1ae34:	8e55                	or	a2,a2,a3
   1ae36:	08b11823          	sh	a1,144(sp)
   1ae3a:	09010923          	sb	a6,146(sp)
   1ae3e:	0117eab3          	or	s5,a5,a7
   1ae42:	8e59                	or	a2,a2,a4
   1ae44:	c8b2                	sw	a2,80(sp)
   1ae46:	04a11a23          	sh	a0,84(sp)
   1ae4a:	04510b23          	sb	t0,86(sp)
   1ae4e:	ca4fc06f          	j	172f2 <_start+0x650>
   1ae52:	3eea4503          	lbu	a0,1006(s4)
   1ae56:	3eda4583          	lbu	a1,1005(s4)
   1ae5a:	3efa4603          	lbu	a2,1007(s4)
   1ae5e:	3f0a2403          	lw	s0,1008(s4)
   1ae62:	0522                	slli	a0,a0,0x8
   1ae64:	8d4d                	or	a0,a0,a1
   1ae66:	4eaa1123          	sh	a0,1250(s4)
   1ae6a:	4eca0223          	sb	a2,1252(s4)
   1ae6e:	6505                	lui	a0,0x1
   1ae70:	38450513          	addi	a0,a0,900 # 1384 <.Lline_table_start1+0x1159>
   1ae74:	00a105b3          	add	a1,sp,a0
   1ae78:	6505                	lui	a0,0x1
   1ae7a:	32050513          	addi	a0,a0,800 # 1320 <.Lline_table_start1+0x10f5>
   1ae7e:	950a                	add	a0,a0,sp
   1ae80:	02300613          	li	a2,35
   1ae84:	00000097          	auipc	ra,0x0
   1ae88:	0ee080e7          	jalr	238(ra) # 1af72 <memcpy>
   1ae8c:	01845513          	srli	a0,s0,0x18
   1ae90:	01045593          	srli	a1,s0,0x10
   1ae94:	00845613          	srli	a2,s0,0x8
   1ae98:	4e8a02a3          	sb	s0,1253(s4)
   1ae9c:	4eca0323          	sb	a2,1254(s4)
   1aea0:	4eba03a3          	sb	a1,1255(s4)
   1aea4:	4eaa0423          	sb	a0,1256(s4)
   1aea8:	6505                	lui	a0,0x1
   1aeaa:	47950513          	addi	a0,a0,1145 # 1479 <.Lline_table_start1+0x124e>
   1aeae:	950a                	add	a0,a0,sp
   1aeb0:	6585                	lui	a1,0x1
   1aeb2:	32058593          	addi	a1,a1,800 # 1320 <.Lline_table_start1+0x10f5>
   1aeb6:	958a                	add	a1,a1,sp
   1aeb8:	02300613          	li	a2,35
   1aebc:	00000097          	auipc	ra,0x0
   1aec0:	0b6080e7          	jalr	182(ra) # 1af72 <memcpy>
   1aec4:	6505                	lui	a0,0x1
   1aec6:	37c50513          	addi	a0,a0,892 # 137c <.Lline_table_start1+0x1151>
   1aeca:	950a                	add	a0,a0,sp
   1aecc:	6585                	lui	a1,0x1
   1aece:	47258593          	addi	a1,a1,1138 # 1472 <.Lline_table_start1+0x1247>
   1aed2:	958a                	add	a1,a1,sp
   1aed4:	ffffa097          	auipc	ra,0xffffa
   1aed8:	db4080e7          	jalr	-588(ra) # 14c88 <_ZN20complex_full_dynamic3app17hafc66d0898eee8a7E>
   1aedc:	3eca4503          	lbu	a0,1004(s4)
   1aee0:	3f0a2a83          	lw	s5,1008(s4)
   1aee4:	b471                	j	1a970 <_start+0x3cce>

0001aee6 <_ZN9allow_pin12full_dynamic17unshare_if_shared17he9718eb989dae51aE>:
   1aee6:	00854703          	lbu	a4,8(a0)
   1aeea:	4789                	li	a5,2
   1aeec:	00f70c63          	beq	a4,a5,1af04 <_ZN9allow_pin12full_dynamic17unshare_if_shared17he9718eb989dae51aE+0x1e>
   1aef0:	4110                	lw	a2,0(a0)
   1aef2:	414c                	lw	a1,4(a0)
   1aef4:	882a                	mv	a6,a0
   1aef6:	8532                	mv	a0,a2
   1aef8:	4601                	li	a2,0
   1aefa:	4681                	li	a3,0
   1aefc:	00000073          	ecall
   1af00:	00f80423          	sb	a5,8(a6)
   1af04:	8082                	ret

0001af06 <memset>:
   1af06:	46c1                	li	a3,16
   1af08:	04d66f63          	bltu	a2,a3,1af66 <memset+0x60>
   1af0c:	40a006b3          	neg	a3,a0
   1af10:	0036f813          	andi	a6,a3,3
   1af14:	01050733          	add	a4,a0,a6
   1af18:	00e57963          	bgeu	a0,a4,1af2a <memset+0x24>
   1af1c:	87c2                	mv	a5,a6
   1af1e:	86aa                	mv	a3,a0
   1af20:	00b68023          	sb	a1,0(a3)
   1af24:	17fd                	addi	a5,a5,-1
   1af26:	0685                	addi	a3,a3,1
   1af28:	ffe5                	bnez	a5,1af20 <memset+0x1a>
   1af2a:	41060633          	sub	a2,a2,a6
   1af2e:	ffc67693          	andi	a3,a2,-4
   1af32:	96ba                	add	a3,a3,a4
   1af34:	00d77e63          	bgeu	a4,a3,1af50 <memset+0x4a>
   1af38:	0ff5f813          	zext.b	a6,a1
   1af3c:	010107b7          	lui	a5,0x1010
   1af40:	10178793          	addi	a5,a5,257 # 1010101 <_ZN17compiler_builtins3mem6memcpy17h90d0c987d2ef5a79E+0xff5187>
   1af44:	02f807b3          	mul	a5,a6,a5
   1af48:	c31c                	sw	a5,0(a4)
   1af4a:	0711                	addi	a4,a4,4
   1af4c:	fed76ee3          	bltu	a4,a3,1af48 <memset+0x42>
   1af50:	8a0d                	andi	a2,a2,3
   1af52:	00c68733          	add	a4,a3,a2
   1af56:	00e6f763          	bgeu	a3,a4,1af64 <memset+0x5e>
   1af5a:	00b68023          	sb	a1,0(a3)
   1af5e:	167d                	addi	a2,a2,-1
   1af60:	0685                	addi	a3,a3,1
   1af62:	fe65                	bnez	a2,1af5a <memset+0x54>
   1af64:	8082                	ret
   1af66:	86aa                	mv	a3,a0
   1af68:	00c50733          	add	a4,a0,a2
   1af6c:	fee567e3          	bltu	a0,a4,1af5a <memset+0x54>
   1af70:	bfd5                	j	1af64 <memset+0x5e>

0001af72 <memcpy>:
   1af72:	00000317          	auipc	t1,0x0
   1af76:	00830067          	jr	8(t1) # 1af7a <_ZN17compiler_builtins3mem6memcpy17h90d0c987d2ef5a79E>

0001af7a <_ZN17compiler_builtins3mem6memcpy17h90d0c987d2ef5a79E>:
   1af7a:	1141                	addi	sp,sp,-16
   1af7c:	c622                	sw	s0,12(sp)
   1af7e:	46c1                	li	a3,16
   1af80:	06d66363          	bltu	a2,a3,1afe6 <_ZN17compiler_builtins3mem6memcpy17h90d0c987d2ef5a79E+0x6c>
   1af84:	40a006b3          	neg	a3,a0
   1af88:	0036f813          	andi	a6,a3,3
   1af8c:	01050fb3          	add	t6,a0,a6
   1af90:	01f57d63          	bgeu	a0,t6,1afaa <_ZN17compiler_builtins3mem6memcpy17h90d0c987d2ef5a79E+0x30>
   1af94:	8742                	mv	a4,a6
   1af96:	86aa                	mv	a3,a0
   1af98:	87ae                	mv	a5,a1
   1af9a:	0007c883          	lbu	a7,0(a5)
   1af9e:	177d                	addi	a4,a4,-1
   1afa0:	01168023          	sb	a7,0(a3)
   1afa4:	0685                	addi	a3,a3,1
   1afa6:	0785                	addi	a5,a5,1
   1afa8:	fb6d                	bnez	a4,1af9a <_ZN17compiler_builtins3mem6memcpy17h90d0c987d2ef5a79E+0x20>
   1afaa:	01058433          	add	s0,a1,a6
   1afae:	410608b3          	sub	a7,a2,a6
   1afb2:	ffc8f713          	andi	a4,a7,-4
   1afb6:	00347613          	andi	a2,s0,3
   1afba:	00ef86b3          	add	a3,t6,a4
   1afbe:	e621                	bnez	a2,1b006 <_ZN17compiler_builtins3mem6memcpy17h90d0c987d2ef5a79E+0x8c>
   1afc0:	00dffa63          	bgeu	t6,a3,1afd4 <_ZN17compiler_builtins3mem6memcpy17h90d0c987d2ef5a79E+0x5a>
   1afc4:	8622                	mv	a2,s0
   1afc6:	421c                	lw	a5,0(a2)
   1afc8:	00ffa023          	sw	a5,0(t6)
   1afcc:	0f91                	addi	t6,t6,4
   1afce:	0611                	addi	a2,a2,4
   1afd0:	fedfebe3          	bltu	t6,a3,1afc6 <_ZN17compiler_builtins3mem6memcpy17h90d0c987d2ef5a79E+0x4c>
   1afd4:	00e405b3          	add	a1,s0,a4
   1afd8:	0038f613          	andi	a2,a7,3
   1afdc:	00c68733          	add	a4,a3,a2
   1afe0:	00e6e863          	bltu	a3,a4,1aff0 <_ZN17compiler_builtins3mem6memcpy17h90d0c987d2ef5a79E+0x76>
   1afe4:	a831                	j	1b000 <_ZN17compiler_builtins3mem6memcpy17h90d0c987d2ef5a79E+0x86>
   1afe6:	86aa                	mv	a3,a0
   1afe8:	00c50733          	add	a4,a0,a2
   1afec:	00e57a63          	bgeu	a0,a4,1b000 <_ZN17compiler_builtins3mem6memcpy17h90d0c987d2ef5a79E+0x86>
   1aff0:	0005c703          	lbu	a4,0(a1)
   1aff4:	167d                	addi	a2,a2,-1
   1aff6:	00e68023          	sb	a4,0(a3)
   1affa:	0685                	addi	a3,a3,1
   1affc:	0585                	addi	a1,a1,1
   1affe:	fa6d                	bnez	a2,1aff0 <_ZN17compiler_builtins3mem6memcpy17h90d0c987d2ef5a79E+0x76>
   1b000:	4432                	lw	s0,12(sp)
   1b002:	0141                	addi	sp,sp,16
   1b004:	8082                	ret
   1b006:	4801                	li	a6,0
   1b008:	4791                	li	a5,4
   1b00a:	c402                	sw	zero,8(sp)
   1b00c:	40c783b3          	sub	t2,a5,a2
   1b010:	00810293          	addi	t0,sp,8
   1b014:	0013f313          	andi	t1,t2,1
   1b018:	00c2e2b3          	or	t0,t0,a2
   1b01c:	04031763          	bnez	t1,1b06a <_ZN17compiler_builtins3mem6memcpy17h90d0c987d2ef5a79E+0xf0>
   1b020:	0023f793          	andi	a5,t2,2
   1b024:	ebb9                	bnez	a5,1b07a <_ZN17compiler_builtins3mem6memcpy17h90d0c987d2ef5a79E+0x100>
   1b026:	4ea2                	lw	t4,8(sp)
   1b028:	00361813          	slli	a6,a2,0x3
   1b02c:	004f8793          	addi	a5,t6,4
   1b030:	40c40f33          	sub	t5,s0,a2
   1b034:	06d7f363          	bgeu	a5,a3,1b09a <_ZN17compiler_builtins3mem6memcpy17h90d0c987d2ef5a79E+0x120>
   1b038:	410007b3          	neg	a5,a6
   1b03c:	0187fe13          	andi	t3,a5,24
   1b040:	004f2283          	lw	t0,4(t5)
   1b044:	004f0393          	addi	t2,t5,4
   1b048:	010ed5b3          	srl	a1,t4,a6
   1b04c:	004f8313          	addi	t1,t6,4
   1b050:	01c297b3          	sll	a5,t0,t3
   1b054:	8ddd                	or	a1,a1,a5
   1b056:	008f8793          	addi	a5,t6,8
   1b05a:	00bfa023          	sw	a1,0(t6)
   1b05e:	8f9a                	mv	t6,t1
   1b060:	8f1e                	mv	t5,t2
   1b062:	8e96                	mv	t4,t0
   1b064:	fcd7eee3          	bltu	a5,a3,1b040 <_ZN17compiler_builtins3mem6memcpy17h90d0c987d2ef5a79E+0xc6>
   1b068:	a825                	j	1b0a0 <_ZN17compiler_builtins3mem6memcpy17h90d0c987d2ef5a79E+0x126>
   1b06a:	00044783          	lbu	a5,0(s0)
   1b06e:	00f28023          	sb	a5,0(t0)
   1b072:	4805                	li	a6,1
   1b074:	0023f793          	andi	a5,t2,2
   1b078:	d7dd                	beqz	a5,1b026 <_ZN17compiler_builtins3mem6memcpy17h90d0c987d2ef5a79E+0xac>
   1b07a:	010407b3          	add	a5,s0,a6
   1b07e:	00079783          	lh	a5,0(a5)
   1b082:	9816                	add	a6,a6,t0
   1b084:	00f81023          	sh	a5,0(a6)
   1b088:	4ea2                	lw	t4,8(sp)
   1b08a:	00361813          	slli	a6,a2,0x3
   1b08e:	004f8793          	addi	a5,t6,4
   1b092:	40c40f33          	sub	t5,s0,a2
   1b096:	fad7e1e3          	bltu	a5,a3,1b038 <_ZN17compiler_builtins3mem6memcpy17h90d0c987d2ef5a79E+0xbe>
   1b09a:	82f6                	mv	t0,t4
   1b09c:	83fa                	mv	t2,t5
   1b09e:	837e                	mv	t1,t6
   1b0a0:	00010223          	sb	zero,4(sp)
   1b0a4:	4785                	li	a5,1
   1b0a6:	00010123          	sb	zero,2(sp)
   1b0aa:	00f61763          	bne	a2,a5,1b0b8 <_ZN17compiler_builtins3mem6memcpy17h90d0c987d2ef5a79E+0x13e>
   1b0ae:	4781                	li	a5,0
   1b0b0:	4e01                	li	t3,0
   1b0b2:	4e81                	li	t4,0
   1b0b4:	0050                	addi	a2,sp,4
   1b0b6:	a819                	j	1b0cc <_ZN17compiler_builtins3mem6memcpy17h90d0c987d2ef5a79E+0x152>
   1b0b8:	0043c783          	lbu	a5,4(t2)
   1b0bc:	0053ce03          	lbu	t3,5(t2)
   1b0c0:	4e89                	li	t4,2
   1b0c2:	00f10223          	sb	a5,4(sp)
   1b0c6:	0e22                	slli	t3,t3,0x8
   1b0c8:	00210613          	addi	a2,sp,2
   1b0cc:	00147593          	andi	a1,s0,1
   1b0d0:	e199                	bnez	a1,1b0d6 <_ZN17compiler_builtins3mem6memcpy17h90d0c987d2ef5a79E+0x15c>
   1b0d2:	4601                	li	a2,0
   1b0d4:	a821                	j	1b0ec <_ZN17compiler_builtins3mem6memcpy17h90d0c987d2ef5a79E+0x172>
   1b0d6:	0391                	addi	t2,t2,4
   1b0d8:	93f6                	add	t2,t2,t4
   1b0da:	0003c583          	lbu	a1,0(t2)
   1b0de:	00b60023          	sb	a1,0(a2)
   1b0e2:	00214603          	lbu	a2,2(sp)
   1b0e6:	00414783          	lbu	a5,4(sp)
   1b0ea:	0642                	slli	a2,a2,0x10
   1b0ec:	8e5d                	or	a2,a2,a5
   1b0ee:	0102d5b3          	srl	a1,t0,a6
   1b0f2:	410007b3          	neg	a5,a6
   1b0f6:	00ce6633          	or	a2,t3,a2
   1b0fa:	8be1                	andi	a5,a5,24
   1b0fc:	00f61633          	sll	a2,a2,a5
   1b100:	8dd1                	or	a1,a1,a2
   1b102:	00b32023          	sw	a1,0(t1)
   1b106:	00e405b3          	add	a1,s0,a4
   1b10a:	0038f613          	andi	a2,a7,3
   1b10e:	00c68733          	add	a4,a3,a2
   1b112:	ece6efe3          	bltu	a3,a4,1aff0 <_ZN17compiler_builtins3mem6memcpy17h90d0c987d2ef5a79E+0x76>
   1b116:	b5ed                	j	1b000 <_ZN17compiler_builtins3mem6memcpy17h90d0c987d2ef5a79E+0x86>
