
target/riscv32imc-unknown-none-elf/opt-1/examples/complex_dynamic_type:     file format elf32-littleriscv

Sections:
Idx Name          Size      VMA       LMA       File off  Algn
  0 .rodata       00000b60  000100d4  000100d4  000000d4  2**0
                  CONTENTS, ALLOC, LOAD, READONLY, DATA
  1 .eh_frame     00000060  00010c34  00010c34  00000c34  2**2
                  CONTENTS, ALLOC, LOAD, READONLY, DATA
  2 .text         0000e12e  00011c94  00011c94  00000c94  2**1
                  CONTENTS, ALLOC, LOAD, READONLY, CODE
  3 .comment      00000099  00000000  00000000  0000edc2  2**0
                  CONTENTS, READONLY
  4 .riscv.attributes 0000002f  00000000  00000000  0000ee5b  2**0
                  CONTENTS, READONLY

Disassembly of section .text:

00011c94 <_ZN20complex_dynamic_type3app17h0030e7858bb8cd0bE>:
   11c94:	7175                	addi	sp,sp,-144
   11c96:	c706                	sw	ra,140(sp)
   11c98:	c522                	sw	s0,136(sp)
   11c9a:	c326                	sw	s1,132(sp)
   11c9c:	c14a                	sw	s2,128(sp)
   11c9e:	dece                	sw	s3,124(sp)
   11ca0:	892a                	mv	s2,a0
   11ca2:	4489                	li	s1,2
   11ca4:	00910323          	sb	s1,6(sp)
   11ca8:	00710413          	addi	s0,sp,7
   11cac:	03500613          	li	a2,53
   11cb0:	8522                	mv	a0,s0
   11cb2:	0000e097          	auipc	ra,0xe
   11cb6:	f6a080e7          	jalr	-150(ra) # 1fc1c <memcpy>
   11cba:	03d10993          	addi	s3,sp,61
   11cbe:	03f00613          	li	a2,63
   11cc2:	854e                	mv	a0,s3
   11cc4:	4581                	li	a1,0
   11cc6:	0000e097          	auipc	ra,0xe
   11cca:	eea080e7          	jalr	-278(ra) # 1fbb0 <memset>
   11cce:	4581                	li	a1,0
   11cd0:	8622                	mv	a2,s0
   11cd2:	02910e23          	sb	s1,60(sp)
   11cd6:	6505                	lui	a0,0x1
   11cd8:	4791                	li	a5,4
   11cda:	e5750513          	addi	a0,a0,-425 # e57 <.Lline_table_start1+0xc2c>
   11cde:	03500693          	li	a3,53
   11ce2:	4711                	li	a4,4
   11ce4:	00000073          	ecall
   11ce8:	00950463          	beq	a0,s1,11cf0 <_ZN20complex_dynamic_type3app17h0030e7858bb8cd0bE+0x5c>
   11cec:	00f10323          	sb	a5,6(sp)
   11cf0:	4609                	li	a2,2
   11cf2:	00c51463          	bne	a0,a2,11cfa <_ZN20complex_dynamic_type3app17h0030e7858bb8cd0bE+0x66>
   11cf6:	4785                	li	a5,1
   11cf8:	a859                	j	11d8e <_ZN20complex_dynamic_type3app17h0030e7858bb8cd0bE+0xfa>
   11cfa:	03c14503          	lbu	a0,60(sp)
   11cfe:	4785                	li	a5,1
   11d00:	02c51363          	bne	a0,a2,11d26 <_ZN20complex_dynamic_type3app17h0030e7858bb8cd0bE+0x92>
   11d04:	864e                	mv	a2,s3
   11d06:	6505                	lui	a0,0x1
   11d08:	458d                	li	a1,3
   11d0a:	03f00693          	li	a3,63
   11d0e:	470d                	li	a4,3
   11d10:	e5750513          	addi	a0,a0,-425 # e57 <.Lline_table_start1+0xc2c>
   11d14:	4489                	li	s1,2
   11d16:	00000073          	ecall
   11d1a:	460d                	li	a2,3
   11d1c:	00951963          	bne	a0,s1,11d2e <_ZN20complex_dynamic_type3app17h0030e7858bb8cd0bE+0x9a>
   11d20:	4505                	li	a0,1
   11d22:	c911                	beqz	a0,11d36 <_ZN20complex_dynamic_type3app17h0030e7858bb8cd0bE+0xa2>
   11d24:	a0ad                	j	11d8e <_ZN20complex_dynamic_type3app17h0030e7858bb8cd0bE+0xfa>
   11d26:	458d                	li	a1,3
   11d28:	4505                	li	a0,1
   11d2a:	c511                	beqz	a0,11d36 <_ZN20complex_dynamic_type3app17h0030e7858bb8cd0bE+0xa2>
   11d2c:	a08d                	j	11d8e <_ZN20complex_dynamic_type3app17h0030e7858bb8cd0bE+0xfa>
   11d2e:	4501                	li	a0,0
   11d30:	02c10e23          	sb	a2,60(sp)
   11d34:	ed29                	bnez	a0,11d8e <_ZN20complex_dynamic_type3app17h0030e7858bb8cd0bE+0xfa>
   11d36:	4581                	li	a1,0
   11d38:	4681                	li	a3,0
   11d3a:	6505                	lui	a0,0x1
   11d3c:	460d                	li	a2,3
   11d3e:	4709                	li	a4,2
   11d40:	e5750513          	addi	a0,a0,-425 # e57 <.Lline_table_start1+0xc2c>
   11d44:	07f00493          	li	s1,127
   11d48:	00000073          	ecall
   11d4c:	4689                	li	a3,2
   11d4e:	04a4f063          	bgeu	s1,a0,11d8e <_ZN20complex_dynamic_type3app17h0030e7858bb8cd0bE+0xfa>
   11d52:	00614603          	lbu	a2,6(sp)
   11d56:	00d60a63          	beq	a2,a3,11d6a <_ZN20complex_dynamic_type3app17h0030e7858bb8cd0bE+0xd6>
   11d5a:	6505                	lui	a0,0x1
   11d5c:	e5750513          	addi	a0,a0,-425 # e57 <.Lline_table_start1+0xc2c>
   11d60:	4581                	li	a1,0
   11d62:	0000e097          	auipc	ra,0xe
   11d66:	e42080e7          	jalr	-446(ra) # 1fba4 <_ZN9allow_pin12dynamic_type7unshare17hb27555f71d22f3b2E>
   11d6a:	03c14603          	lbu	a2,60(sp)
   11d6e:	4409                	li	s0,2
   11d70:	00810323          	sb	s0,6(sp)
   11d74:	00860a63          	beq	a2,s0,11d88 <_ZN20complex_dynamic_type3app17h0030e7858bb8cd0bE+0xf4>
   11d78:	6505                	lui	a0,0x1
   11d7a:	e5750513          	addi	a0,a0,-425 # e57 <.Lline_table_start1+0xc2c>
   11d7e:	458d                	li	a1,3
   11d80:	0000e097          	auipc	ra,0xe
   11d84:	e24080e7          	jalr	-476(ra) # 1fba4 <_ZN9allow_pin12dynamic_type7unshare17hb27555f71d22f3b2E>
   11d88:	4781                	li	a5,0
   11d8a:	02810e23          	sb	s0,60(sp)
   11d8e:	cb85                	beqz	a5,11dbe <_ZN20complex_dynamic_type3app17h0030e7858bb8cd0bE+0x12a>
   11d90:	03c14603          	lbu	a2,60(sp)
   11d94:	4505                	li	a0,1
   11d96:	4409                	li	s0,2
   11d98:	00a90023          	sb	a0,0(s2)
   11d9c:	00b92223          	sw	a1,4(s2)
   11da0:	00860a63          	beq	a2,s0,11db4 <_ZN20complex_dynamic_type3app17h0030e7858bb8cd0bE+0x120>
   11da4:	6505                	lui	a0,0x1
   11da6:	e5750513          	addi	a0,a0,-425 # e57 <.Lline_table_start1+0xc2c>
   11daa:	458d                	li	a1,3
   11dac:	0000e097          	auipc	ra,0xe
   11db0:	df8080e7          	jalr	-520(ra) # 1fba4 <_ZN9allow_pin12dynamic_type7unshare17hb27555f71d22f3b2E>
   11db4:	00614603          	lbu	a2,6(sp)
   11db8:	04861763          	bne	a2,s0,11e06 <_ZN20complex_dynamic_type3app17h0030e7858bb8cd0bE+0x172>
   11dbc:	a8a9                	j	11e16 <_ZN20complex_dynamic_type3app17h0030e7858bb8cd0bE+0x182>
   11dbe:	03c14403          	lbu	s0,60(sp)
   11dc2:	4489                	li	s1,2
   11dc4:	00940663          	beq	s0,s1,11dd0 <_ZN20complex_dynamic_type3app17h0030e7858bb8cd0bE+0x13c>
   11dc8:	000119b7          	lui	s3,0x11
   11dcc:	8c898993          	addi	s3,s3,-1848 # 108c8 <.Lanon.49c9f8067fe4468184af16d7576940c9.41>
   11dd0:	00190513          	addi	a0,s2,1
   11dd4:	03f00613          	li	a2,63
   11dd8:	85ce                	mv	a1,s3
   11dda:	0000e097          	auipc	ra,0xe
   11dde:	e42080e7          	jalr	-446(ra) # 1fc1c <memcpy>
   11de2:	00090023          	sb	zero,0(s2)
   11de6:	00940b63          	beq	s0,s1,11dfc <_ZN20complex_dynamic_type3app17h0030e7858bb8cd0bE+0x168>
   11dea:	6505                	lui	a0,0x1
   11dec:	e5750513          	addi	a0,a0,-425 # e57 <.Lline_table_start1+0xc2c>
   11df0:	458d                	li	a1,3
   11df2:	8622                	mv	a2,s0
   11df4:	0000e097          	auipc	ra,0xe
   11df8:	db0080e7          	jalr	-592(ra) # 1fba4 <_ZN9allow_pin12dynamic_type7unshare17hb27555f71d22f3b2E>
   11dfc:	00614603          	lbu	a2,6(sp)
   11e00:	4509                	li	a0,2
   11e02:	00a60a63          	beq	a2,a0,11e16 <_ZN20complex_dynamic_type3app17h0030e7858bb8cd0bE+0x182>
   11e06:	6505                	lui	a0,0x1
   11e08:	e5750513          	addi	a0,a0,-425 # e57 <.Lline_table_start1+0xc2c>
   11e0c:	4581                	li	a1,0
   11e0e:	0000e097          	auipc	ra,0xe
   11e12:	d96080e7          	jalr	-618(ra) # 1fba4 <_ZN9allow_pin12dynamic_type7unshare17hb27555f71d22f3b2E>
   11e16:	40ba                	lw	ra,140(sp)
   11e18:	442a                	lw	s0,136(sp)
   11e1a:	449a                	lw	s1,132(sp)
   11e1c:	490a                	lw	s2,128(sp)
   11e1e:	59f6                	lw	s3,124(sp)
   11e20:	6149                	addi	sp,sp,144
   11e22:	8082                	ret

00011e24 <_ZN20complex_dynamic_type3app17h03a21d4557357097E>:
   11e24:	711d                	addi	sp,sp,-96
   11e26:	ce86                	sw	ra,92(sp)
   11e28:	cca2                	sw	s0,88(sp)
   11e2a:	caa6                	sw	s1,84(sp)
   11e2c:	c8ca                	sw	s2,80(sp)
   11e2e:	c6ce                	sw	s3,76(sp)
   11e30:	892a                	mv	s2,a0
   11e32:	4489                	li	s1,2
   11e34:	00910423          	sb	s1,8(sp)
   11e38:	00910413          	addi	s0,sp,9
   11e3c:	03200613          	li	a2,50
   11e40:	8522                	mv	a0,s0
   11e42:	0000e097          	auipc	ra,0xe
   11e46:	dda080e7          	jalr	-550(ra) # 1fc1c <memcpy>
   11e4a:	03c10993          	addi	s3,sp,60
   11e4e:	4641                	li	a2,16
   11e50:	854e                	mv	a0,s3
   11e52:	4581                	li	a1,0
   11e54:	0000e097          	auipc	ra,0xe
   11e58:	d5c080e7          	jalr	-676(ra) # 1fbb0 <memset>
   11e5c:	8622                	mv	a2,s0
   11e5e:	02910da3          	sb	s1,59(sp)
   11e62:	6509                	lui	a0,0x2
   11e64:	4791                	li	a5,4
   11e66:	4591                	li	a1,4
   11e68:	9d650513          	addi	a0,a0,-1578 # 19d6 <.Lline_table_start1+0x17ab>
   11e6c:	03200693          	li	a3,50
   11e70:	4711                	li	a4,4
   11e72:	00000073          	ecall
   11e76:	00950463          	beq	a0,s1,11e7e <_ZN20complex_dynamic_type3app17h03a21d4557357097E+0x5a>
   11e7a:	00f10423          	sb	a5,8(sp)
   11e7e:	4609                	li	a2,2
   11e80:	00c51463          	bne	a0,a2,11e88 <_ZN20complex_dynamic_type3app17h03a21d4557357097E+0x64>
   11e84:	4785                	li	a5,1
   11e86:	a851                	j	11f1a <_ZN20complex_dynamic_type3app17h03a21d4557357097E+0xf6>
   11e88:	03b14503          	lbu	a0,59(sp)
   11e8c:	4785                	li	a5,1
   11e8e:	02c51263          	bne	a0,a2,11eb2 <_ZN20complex_dynamic_type3app17h03a21d4557357097E+0x8e>
   11e92:	864e                	mv	a2,s3
   11e94:	6509                	lui	a0,0x2
   11e96:	45a5                	li	a1,9
   11e98:	46c1                	li	a3,16
   11e9a:	470d                	li	a4,3
   11e9c:	9d650513          	addi	a0,a0,-1578 # 19d6 <.Lline_table_start1+0x17ab>
   11ea0:	4489                	li	s1,2
   11ea2:	00000073          	ecall
   11ea6:	460d                	li	a2,3
   11ea8:	00951963          	bne	a0,s1,11eba <_ZN20complex_dynamic_type3app17h03a21d4557357097E+0x96>
   11eac:	4505                	li	a0,1
   11eae:	c911                	beqz	a0,11ec2 <_ZN20complex_dynamic_type3app17h03a21d4557357097E+0x9e>
   11eb0:	a0ad                	j	11f1a <_ZN20complex_dynamic_type3app17h03a21d4557357097E+0xf6>
   11eb2:	458d                	li	a1,3
   11eb4:	4505                	li	a0,1
   11eb6:	c511                	beqz	a0,11ec2 <_ZN20complex_dynamic_type3app17h03a21d4557357097E+0x9e>
   11eb8:	a08d                	j	11f1a <_ZN20complex_dynamic_type3app17h03a21d4557357097E+0xf6>
   11eba:	4501                	li	a0,0
   11ebc:	02c10da3          	sb	a2,59(sp)
   11ec0:	ed29                	bnez	a0,11f1a <_ZN20complex_dynamic_type3app17h03a21d4557357097E+0xf6>
   11ec2:	4681                	li	a3,0
   11ec4:	6509                	lui	a0,0x2
   11ec6:	4591                	li	a1,4
   11ec8:	4625                	li	a2,9
   11eca:	4709                	li	a4,2
   11ecc:	9d650513          	addi	a0,a0,-1578 # 19d6 <.Lline_table_start1+0x17ab>
   11ed0:	07f00493          	li	s1,127
   11ed4:	00000073          	ecall
   11ed8:	4689                	li	a3,2
   11eda:	04a4f063          	bgeu	s1,a0,11f1a <_ZN20complex_dynamic_type3app17h03a21d4557357097E+0xf6>
   11ede:	00814603          	lbu	a2,8(sp)
   11ee2:	00d60a63          	beq	a2,a3,11ef6 <_ZN20complex_dynamic_type3app17h03a21d4557357097E+0xd2>
   11ee6:	6509                	lui	a0,0x2
   11ee8:	9d650513          	addi	a0,a0,-1578 # 19d6 <.Lline_table_start1+0x17ab>
   11eec:	4591                	li	a1,4
   11eee:	0000e097          	auipc	ra,0xe
   11ef2:	cb6080e7          	jalr	-842(ra) # 1fba4 <_ZN9allow_pin12dynamic_type7unshare17hb27555f71d22f3b2E>
   11ef6:	03b14603          	lbu	a2,59(sp)
   11efa:	4409                	li	s0,2
   11efc:	00810423          	sb	s0,8(sp)
   11f00:	00860a63          	beq	a2,s0,11f14 <_ZN20complex_dynamic_type3app17h03a21d4557357097E+0xf0>
   11f04:	6509                	lui	a0,0x2
   11f06:	9d650513          	addi	a0,a0,-1578 # 19d6 <.Lline_table_start1+0x17ab>
   11f0a:	45a5                	li	a1,9
   11f0c:	0000e097          	auipc	ra,0xe
   11f10:	c98080e7          	jalr	-872(ra) # 1fba4 <_ZN9allow_pin12dynamic_type7unshare17hb27555f71d22f3b2E>
   11f14:	4781                	li	a5,0
   11f16:	02810da3          	sb	s0,59(sp)
   11f1a:	cb85                	beqz	a5,11f4a <_ZN20complex_dynamic_type3app17h03a21d4557357097E+0x126>
   11f1c:	03b14603          	lbu	a2,59(sp)
   11f20:	4505                	li	a0,1
   11f22:	4409                	li	s0,2
   11f24:	00a90023          	sb	a0,0(s2)
   11f28:	00b92223          	sw	a1,4(s2)
   11f2c:	00860a63          	beq	a2,s0,11f40 <_ZN20complex_dynamic_type3app17h03a21d4557357097E+0x11c>
   11f30:	6509                	lui	a0,0x2
   11f32:	9d650513          	addi	a0,a0,-1578 # 19d6 <.Lline_table_start1+0x17ab>
   11f36:	45a5                	li	a1,9
   11f38:	0000e097          	auipc	ra,0xe
   11f3c:	c6c080e7          	jalr	-916(ra) # 1fba4 <_ZN9allow_pin12dynamic_type7unshare17hb27555f71d22f3b2E>
   11f40:	00814603          	lbu	a2,8(sp)
   11f44:	04861663          	bne	a2,s0,11f90 <_ZN20complex_dynamic_type3app17h03a21d4557357097E+0x16c>
   11f48:	a8a1                	j	11fa0 <_ZN20complex_dynamic_type3app17h03a21d4557357097E+0x17c>
   11f4a:	03b14403          	lbu	s0,59(sp)
   11f4e:	4489                	li	s1,2
   11f50:	00940663          	beq	s0,s1,11f5c <_ZN20complex_dynamic_type3app17h03a21d4557357097E+0x138>
   11f54:	000109b7          	lui	s3,0x10
   11f58:	6e298993          	addi	s3,s3,1762 # 106e2 <.Lanon.49c9f8067fe4468184af16d7576940c9.30+0x49>
   11f5c:	00190513          	addi	a0,s2,1
   11f60:	4641                	li	a2,16
   11f62:	85ce                	mv	a1,s3
   11f64:	0000e097          	auipc	ra,0xe
   11f68:	cb8080e7          	jalr	-840(ra) # 1fc1c <memcpy>
   11f6c:	00090023          	sb	zero,0(s2)
   11f70:	00940b63          	beq	s0,s1,11f86 <_ZN20complex_dynamic_type3app17h03a21d4557357097E+0x162>
   11f74:	6509                	lui	a0,0x2
   11f76:	9d650513          	addi	a0,a0,-1578 # 19d6 <.Lline_table_start1+0x17ab>
   11f7a:	45a5                	li	a1,9
   11f7c:	8622                	mv	a2,s0
   11f7e:	0000e097          	auipc	ra,0xe
   11f82:	c26080e7          	jalr	-986(ra) # 1fba4 <_ZN9allow_pin12dynamic_type7unshare17hb27555f71d22f3b2E>
   11f86:	00814603          	lbu	a2,8(sp)
   11f8a:	4509                	li	a0,2
   11f8c:	00a60a63          	beq	a2,a0,11fa0 <_ZN20complex_dynamic_type3app17h03a21d4557357097E+0x17c>
   11f90:	6509                	lui	a0,0x2
   11f92:	9d650513          	addi	a0,a0,-1578 # 19d6 <.Lline_table_start1+0x17ab>
   11f96:	4591                	li	a1,4
   11f98:	0000e097          	auipc	ra,0xe
   11f9c:	c0c080e7          	jalr	-1012(ra) # 1fba4 <_ZN9allow_pin12dynamic_type7unshare17hb27555f71d22f3b2E>
   11fa0:	40f6                	lw	ra,92(sp)
   11fa2:	4466                	lw	s0,88(sp)
   11fa4:	44d6                	lw	s1,84(sp)
   11fa6:	4946                	lw	s2,80(sp)
   11fa8:	49b6                	lw	s3,76(sp)
   11faa:	6125                	addi	sp,sp,96
   11fac:	8082                	ret

00011fae <_ZN20complex_dynamic_type3app17h05d993ea8d69e663E>:
   11fae:	7171                	addi	sp,sp,-176
   11fb0:	d706                	sw	ra,172(sp)
   11fb2:	d522                	sw	s0,168(sp)
   11fb4:	d326                	sw	s1,164(sp)
   11fb6:	d14a                	sw	s2,160(sp)
   11fb8:	cf4e                	sw	s3,156(sp)
   11fba:	892a                	mv	s2,a0
   11fbc:	4489                	li	s1,2
   11fbe:	009106a3          	sb	s1,13(sp)
   11fc2:	00e10413          	addi	s0,sp,14
   11fc6:	05300613          	li	a2,83
   11fca:	8522                	mv	a0,s0
   11fcc:	0000e097          	auipc	ra,0xe
   11fd0:	c50080e7          	jalr	-944(ra) # 1fc1c <memcpy>
   11fd4:	06210993          	addi	s3,sp,98
   11fd8:	03a00613          	li	a2,58
   11fdc:	854e                	mv	a0,s3
   11fde:	4581                	li	a1,0
   11fe0:	0000e097          	auipc	ra,0xe
   11fe4:	bd0080e7          	jalr	-1072(ra) # 1fbb0 <memset>
   11fe8:	8622                	mv	a2,s0
   11fea:	069100a3          	sb	s1,97(sp)
   11fee:	6509                	lui	a0,0x2
   11ff0:	4791                	li	a5,4
   11ff2:	4599                	li	a1,6
   11ff4:	64550513          	addi	a0,a0,1605 # 2645 <.Lline_table_start1+0x241a>
   11ff8:	05300693          	li	a3,83
   11ffc:	4711                	li	a4,4
   11ffe:	00000073          	ecall
   12002:	00950463          	beq	a0,s1,1200a <_ZN20complex_dynamic_type3app17h05d993ea8d69e663E+0x5c>
   12006:	00f106a3          	sb	a5,13(sp)
   1200a:	4609                	li	a2,2
   1200c:	00c51463          	bne	a0,a2,12014 <_ZN20complex_dynamic_type3app17h05d993ea8d69e663E+0x66>
   12010:	4785                	li	a5,1
   12012:	a859                	j	120a8 <_ZN20complex_dynamic_type3app17h05d993ea8d69e663E+0xfa>
   12014:	06114503          	lbu	a0,97(sp)
   12018:	4785                	li	a5,1
   1201a:	02c51363          	bne	a0,a2,12040 <_ZN20complex_dynamic_type3app17h05d993ea8d69e663E+0x92>
   1201e:	864e                	mv	a2,s3
   12020:	6509                	lui	a0,0x2
   12022:	459d                	li	a1,7
   12024:	03a00693          	li	a3,58
   12028:	470d                	li	a4,3
   1202a:	64550513          	addi	a0,a0,1605 # 2645 <.Lline_table_start1+0x241a>
   1202e:	4489                	li	s1,2
   12030:	00000073          	ecall
   12034:	460d                	li	a2,3
   12036:	00951963          	bne	a0,s1,12048 <_ZN20complex_dynamic_type3app17h05d993ea8d69e663E+0x9a>
   1203a:	4505                	li	a0,1
   1203c:	c911                	beqz	a0,12050 <_ZN20complex_dynamic_type3app17h05d993ea8d69e663E+0xa2>
   1203e:	a0ad                	j	120a8 <_ZN20complex_dynamic_type3app17h05d993ea8d69e663E+0xfa>
   12040:	458d                	li	a1,3
   12042:	4505                	li	a0,1
   12044:	c511                	beqz	a0,12050 <_ZN20complex_dynamic_type3app17h05d993ea8d69e663E+0xa2>
   12046:	a08d                	j	120a8 <_ZN20complex_dynamic_type3app17h05d993ea8d69e663E+0xfa>
   12048:	4501                	li	a0,0
   1204a:	06c100a3          	sb	a2,97(sp)
   1204e:	ed29                	bnez	a0,120a8 <_ZN20complex_dynamic_type3app17h05d993ea8d69e663E+0xfa>
   12050:	4681                	li	a3,0
   12052:	6509                	lui	a0,0x2
   12054:	4599                	li	a1,6
   12056:	461d                	li	a2,7
   12058:	4709                	li	a4,2
   1205a:	64550513          	addi	a0,a0,1605 # 2645 <.Lline_table_start1+0x241a>
   1205e:	07f00493          	li	s1,127
   12062:	00000073          	ecall
   12066:	4689                	li	a3,2
   12068:	04a4f063          	bgeu	s1,a0,120a8 <_ZN20complex_dynamic_type3app17h05d993ea8d69e663E+0xfa>
   1206c:	00d14603          	lbu	a2,13(sp)
   12070:	00d60a63          	beq	a2,a3,12084 <_ZN20complex_dynamic_type3app17h05d993ea8d69e663E+0xd6>
   12074:	6509                	lui	a0,0x2
   12076:	64550513          	addi	a0,a0,1605 # 2645 <.Lline_table_start1+0x241a>
   1207a:	4599                	li	a1,6
   1207c:	0000e097          	auipc	ra,0xe
   12080:	b28080e7          	jalr	-1240(ra) # 1fba4 <_ZN9allow_pin12dynamic_type7unshare17hb27555f71d22f3b2E>
   12084:	06114603          	lbu	a2,97(sp)
   12088:	4409                	li	s0,2
   1208a:	008106a3          	sb	s0,13(sp)
   1208e:	00860a63          	beq	a2,s0,120a2 <_ZN20complex_dynamic_type3app17h05d993ea8d69e663E+0xf4>
   12092:	6509                	lui	a0,0x2
   12094:	64550513          	addi	a0,a0,1605 # 2645 <.Lline_table_start1+0x241a>
   12098:	459d                	li	a1,7
   1209a:	0000e097          	auipc	ra,0xe
   1209e:	b0a080e7          	jalr	-1270(ra) # 1fba4 <_ZN9allow_pin12dynamic_type7unshare17hb27555f71d22f3b2E>
   120a2:	4781                	li	a5,0
   120a4:	068100a3          	sb	s0,97(sp)
   120a8:	cb85                	beqz	a5,120d8 <_ZN20complex_dynamic_type3app17h05d993ea8d69e663E+0x12a>
   120aa:	06114603          	lbu	a2,97(sp)
   120ae:	4505                	li	a0,1
   120b0:	4409                	li	s0,2
   120b2:	00a90023          	sb	a0,0(s2)
   120b6:	00b92223          	sw	a1,4(s2)
   120ba:	00860a63          	beq	a2,s0,120ce <_ZN20complex_dynamic_type3app17h05d993ea8d69e663E+0x120>
   120be:	6509                	lui	a0,0x2
   120c0:	64550513          	addi	a0,a0,1605 # 2645 <.Lline_table_start1+0x241a>
   120c4:	459d                	li	a1,7
   120c6:	0000e097          	auipc	ra,0xe
   120ca:	ade080e7          	jalr	-1314(ra) # 1fba4 <_ZN9allow_pin12dynamic_type7unshare17hb27555f71d22f3b2E>
   120ce:	00d14603          	lbu	a2,13(sp)
   120d2:	04861763          	bne	a2,s0,12120 <_ZN20complex_dynamic_type3app17h05d993ea8d69e663E+0x172>
   120d6:	a8a9                	j	12130 <_ZN20complex_dynamic_type3app17h05d993ea8d69e663E+0x182>
   120d8:	06114403          	lbu	s0,97(sp)
   120dc:	4489                	li	s1,2
   120de:	00940663          	beq	s0,s1,120ea <_ZN20complex_dynamic_type3app17h05d993ea8d69e663E+0x13c>
   120e2:	000119b7          	lui	s3,0x11
   120e6:	bfa98993          	addi	s3,s3,-1030 # 10bfa <.Lanon.49c9f8067fe4468184af16d7576940c9.55>
   120ea:	00190513          	addi	a0,s2,1
   120ee:	03a00613          	li	a2,58
   120f2:	85ce                	mv	a1,s3
   120f4:	0000e097          	auipc	ra,0xe
   120f8:	b28080e7          	jalr	-1240(ra) # 1fc1c <memcpy>
   120fc:	00090023          	sb	zero,0(s2)
   12100:	00940b63          	beq	s0,s1,12116 <_ZN20complex_dynamic_type3app17h05d993ea8d69e663E+0x168>
   12104:	6509                	lui	a0,0x2
   12106:	64550513          	addi	a0,a0,1605 # 2645 <.Lline_table_start1+0x241a>
   1210a:	459d                	li	a1,7
   1210c:	8622                	mv	a2,s0
   1210e:	0000e097          	auipc	ra,0xe
   12112:	a96080e7          	jalr	-1386(ra) # 1fba4 <_ZN9allow_pin12dynamic_type7unshare17hb27555f71d22f3b2E>
   12116:	00d14603          	lbu	a2,13(sp)
   1211a:	4509                	li	a0,2
   1211c:	00a60a63          	beq	a2,a0,12130 <_ZN20complex_dynamic_type3app17h05d993ea8d69e663E+0x182>
   12120:	6509                	lui	a0,0x2
   12122:	64550513          	addi	a0,a0,1605 # 2645 <.Lline_table_start1+0x241a>
   12126:	4599                	li	a1,6
   12128:	0000e097          	auipc	ra,0xe
   1212c:	a7c080e7          	jalr	-1412(ra) # 1fba4 <_ZN9allow_pin12dynamic_type7unshare17hb27555f71d22f3b2E>
   12130:	50ba                	lw	ra,172(sp)
   12132:	542a                	lw	s0,168(sp)
   12134:	549a                	lw	s1,164(sp)
   12136:	590a                	lw	s2,160(sp)
   12138:	49fa                	lw	s3,156(sp)
   1213a:	614d                	addi	sp,sp,176
   1213c:	8082                	ret

0001213e <_ZN20complex_dynamic_type3app17h066996f62affea16E>:
   1213e:	711d                	addi	sp,sp,-96
   12140:	ce86                	sw	ra,92(sp)
   12142:	cca2                	sw	s0,88(sp)
   12144:	caa6                	sw	s1,84(sp)
   12146:	c8ca                	sw	s2,80(sp)
   12148:	c6ce                	sw	s3,76(sp)
   1214a:	892a                	mv	s2,a0
   1214c:	4489                	li	s1,2
   1214e:	009100a3          	sb	s1,1(sp)
   12152:	00210413          	addi	s0,sp,2
   12156:	02b00613          	li	a2,43
   1215a:	8522                	mv	a0,s0
   1215c:	0000e097          	auipc	ra,0xe
   12160:	ac0080e7          	jalr	-1344(ra) # 1fc1c <memcpy>
   12164:	02e10993          	addi	s3,sp,46
   12168:	4679                	li	a2,30
   1216a:	854e                	mv	a0,s3
   1216c:	4581                	li	a1,0
   1216e:	0000e097          	auipc	ra,0xe
   12172:	a42080e7          	jalr	-1470(ra) # 1fbb0 <memset>
   12176:	8622                	mv	a2,s0
   12178:	029106a3          	sb	s1,45(sp)
   1217c:	4791                	li	a5,4
   1217e:	7e300513          	li	a0,2019
   12182:	459d                	li	a1,7
   12184:	02b00693          	li	a3,43
   12188:	4711                	li	a4,4
   1218a:	00000073          	ecall
   1218e:	00950463          	beq	a0,s1,12196 <_ZN20complex_dynamic_type3app17h066996f62affea16E+0x58>
   12192:	00f100a3          	sb	a5,1(sp)
   12196:	4609                	li	a2,2
   12198:	00c51463          	bne	a0,a2,121a0 <_ZN20complex_dynamic_type3app17h066996f62affea16E+0x62>
   1219c:	4785                	li	a5,1
   1219e:	a071                	j	1222a <_ZN20complex_dynamic_type3app17h066996f62affea16E+0xec>
   121a0:	02d14503          	lbu	a0,45(sp)
   121a4:	4785                	li	a5,1
   121a6:	02c51163          	bne	a0,a2,121c8 <_ZN20complex_dynamic_type3app17h066996f62affea16E+0x8a>
   121aa:	864e                	mv	a2,s3
   121ac:	7e300513          	li	a0,2019
   121b0:	45a1                	li	a1,8
   121b2:	46f9                	li	a3,30
   121b4:	470d                	li	a4,3
   121b6:	4489                	li	s1,2
   121b8:	00000073          	ecall
   121bc:	460d                	li	a2,3
   121be:	00951963          	bne	a0,s1,121d0 <_ZN20complex_dynamic_type3app17h066996f62affea16E+0x92>
   121c2:	4505                	li	a0,1
   121c4:	c911                	beqz	a0,121d8 <_ZN20complex_dynamic_type3app17h066996f62affea16E+0x9a>
   121c6:	a095                	j	1222a <_ZN20complex_dynamic_type3app17h066996f62affea16E+0xec>
   121c8:	458d                	li	a1,3
   121ca:	4505                	li	a0,1
   121cc:	c511                	beqz	a0,121d8 <_ZN20complex_dynamic_type3app17h066996f62affea16E+0x9a>
   121ce:	a8b1                	j	1222a <_ZN20complex_dynamic_type3app17h066996f62affea16E+0xec>
   121d0:	4501                	li	a0,0
   121d2:	02c106a3          	sb	a2,45(sp)
   121d6:	e931                	bnez	a0,1222a <_ZN20complex_dynamic_type3app17h066996f62affea16E+0xec>
   121d8:	4681                	li	a3,0
   121da:	7e300513          	li	a0,2019
   121de:	459d                	li	a1,7
   121e0:	4621                	li	a2,8
   121e2:	4709                	li	a4,2
   121e4:	07f00493          	li	s1,127
   121e8:	00000073          	ecall
   121ec:	4689                	li	a3,2
   121ee:	02a4fe63          	bgeu	s1,a0,1222a <_ZN20complex_dynamic_type3app17h066996f62affea16E+0xec>
   121f2:	00114603          	lbu	a2,1(sp)
   121f6:	00d60963          	beq	a2,a3,12208 <_ZN20complex_dynamic_type3app17h066996f62affea16E+0xca>
   121fa:	7e300513          	li	a0,2019
   121fe:	459d                	li	a1,7
   12200:	0000e097          	auipc	ra,0xe
   12204:	9a4080e7          	jalr	-1628(ra) # 1fba4 <_ZN9allow_pin12dynamic_type7unshare17hb27555f71d22f3b2E>
   12208:	02d14603          	lbu	a2,45(sp)
   1220c:	4409                	li	s0,2
   1220e:	008100a3          	sb	s0,1(sp)
   12212:	00860963          	beq	a2,s0,12224 <_ZN20complex_dynamic_type3app17h066996f62affea16E+0xe6>
   12216:	7e300513          	li	a0,2019
   1221a:	45a1                	li	a1,8
   1221c:	0000e097          	auipc	ra,0xe
   12220:	988080e7          	jalr	-1656(ra) # 1fba4 <_ZN9allow_pin12dynamic_type7unshare17hb27555f71d22f3b2E>
   12224:	4781                	li	a5,0
   12226:	028106a3          	sb	s0,45(sp)
   1222a:	c79d                	beqz	a5,12258 <_ZN20complex_dynamic_type3app17h066996f62affea16E+0x11a>
   1222c:	02d14603          	lbu	a2,45(sp)
   12230:	4505                	li	a0,1
   12232:	4409                	li	s0,2
   12234:	00a90023          	sb	a0,0(s2)
   12238:	00b92223          	sw	a1,4(s2)
   1223c:	00860963          	beq	a2,s0,1224e <_ZN20complex_dynamic_type3app17h066996f62affea16E+0x110>
   12240:	7e300513          	li	a0,2019
   12244:	45a1                	li	a1,8
   12246:	0000e097          	auipc	ra,0xe
   1224a:	95e080e7          	jalr	-1698(ra) # 1fba4 <_ZN9allow_pin12dynamic_type7unshare17hb27555f71d22f3b2E>
   1224e:	00114603          	lbu	a2,1(sp)
   12252:	04861563          	bne	a2,s0,1229c <_ZN20complex_dynamic_type3app17h066996f62affea16E+0x15e>
   12256:	a891                	j	122aa <_ZN20complex_dynamic_type3app17h066996f62affea16E+0x16c>
   12258:	02d14403          	lbu	s0,45(sp)
   1225c:	4489                	li	s1,2
   1225e:	00940663          	beq	s0,s1,1226a <_ZN20complex_dynamic_type3app17h066996f62affea16E+0x12c>
   12262:	000109b7          	lui	s3,0x10
   12266:	13c98993          	addi	s3,s3,316 # 1013c <.Lanon.49c9f8067fe4468184af16d7576940c9.2>
   1226a:	00190513          	addi	a0,s2,1
   1226e:	4679                	li	a2,30
   12270:	85ce                	mv	a1,s3
   12272:	0000e097          	auipc	ra,0xe
   12276:	9aa080e7          	jalr	-1622(ra) # 1fc1c <memcpy>
   1227a:	00090023          	sb	zero,0(s2)
   1227e:	00940a63          	beq	s0,s1,12292 <_ZN20complex_dynamic_type3app17h066996f62affea16E+0x154>
   12282:	7e300513          	li	a0,2019
   12286:	45a1                	li	a1,8
   12288:	8622                	mv	a2,s0
   1228a:	0000e097          	auipc	ra,0xe
   1228e:	91a080e7          	jalr	-1766(ra) # 1fba4 <_ZN9allow_pin12dynamic_type7unshare17hb27555f71d22f3b2E>
   12292:	00114603          	lbu	a2,1(sp)
   12296:	4509                	li	a0,2
   12298:	00a60963          	beq	a2,a0,122aa <_ZN20complex_dynamic_type3app17h066996f62affea16E+0x16c>
   1229c:	7e300513          	li	a0,2019
   122a0:	459d                	li	a1,7
   122a2:	0000e097          	auipc	ra,0xe
   122a6:	902080e7          	jalr	-1790(ra) # 1fba4 <_ZN9allow_pin12dynamic_type7unshare17hb27555f71d22f3b2E>
   122aa:	40f6                	lw	ra,92(sp)
   122ac:	4466                	lw	s0,88(sp)
   122ae:	44d6                	lw	s1,84(sp)
   122b0:	4946                	lw	s2,80(sp)
   122b2:	49b6                	lw	s3,76(sp)
   122b4:	6125                	addi	sp,sp,96
   122b6:	8082                	ret

000122b8 <_ZN20complex_dynamic_type3app17h06f918c6dc62b13cE>:
   122b8:	7171                	addi	sp,sp,-176
   122ba:	d706                	sw	ra,172(sp)
   122bc:	d522                	sw	s0,168(sp)
   122be:	d326                	sw	s1,164(sp)
   122c0:	d14a                	sw	s2,160(sp)
   122c2:	cf4e                	sw	s3,156(sp)
   122c4:	892a                	mv	s2,a0
   122c6:	4489                	li	s1,2
   122c8:	009106a3          	sb	s1,13(sp)
   122cc:	00e10413          	addi	s0,sp,14
   122d0:	02a00613          	li	a2,42
   122d4:	8522                	mv	a0,s0
   122d6:	0000e097          	auipc	ra,0xe
   122da:	946080e7          	jalr	-1722(ra) # 1fc1c <memcpy>
   122de:	03910993          	addi	s3,sp,57
   122e2:	06300613          	li	a2,99
   122e6:	854e                	mv	a0,s3
   122e8:	4581                	li	a1,0
   122ea:	0000e097          	auipc	ra,0xe
   122ee:	8c6080e7          	jalr	-1850(ra) # 1fbb0 <memset>
   122f2:	8622                	mv	a2,s0
   122f4:	02910c23          	sb	s1,56(sp)
   122f8:	6509                	lui	a0,0x2
   122fa:	4791                	li	a5,4
   122fc:	4591                	li	a1,4
   122fe:	c7c50513          	addi	a0,a0,-900 # 1c7c <.Lline_table_start1+0x1a51>
   12302:	02a00693          	li	a3,42
   12306:	4711                	li	a4,4
   12308:	00000073          	ecall
   1230c:	00950463          	beq	a0,s1,12314 <_ZN20complex_dynamic_type3app17h06f918c6dc62b13cE+0x5c>
   12310:	00f106a3          	sb	a5,13(sp)
   12314:	4609                	li	a2,2
   12316:	00c51463          	bne	a0,a2,1231e <_ZN20complex_dynamic_type3app17h06f918c6dc62b13cE+0x66>
   1231a:	4785                	li	a5,1
   1231c:	a859                	j	123b2 <_ZN20complex_dynamic_type3app17h06f918c6dc62b13cE+0xfa>
   1231e:	03814503          	lbu	a0,56(sp)
   12322:	4785                	li	a5,1
   12324:	02c51363          	bne	a0,a2,1234a <_ZN20complex_dynamic_type3app17h06f918c6dc62b13cE+0x92>
   12328:	4581                	li	a1,0
   1232a:	864e                	mv	a2,s3
   1232c:	6509                	lui	a0,0x2
   1232e:	06300693          	li	a3,99
   12332:	470d                	li	a4,3
   12334:	c7c50513          	addi	a0,a0,-900 # 1c7c <.Lline_table_start1+0x1a51>
   12338:	4489                	li	s1,2
   1233a:	00000073          	ecall
   1233e:	460d                	li	a2,3
   12340:	00951963          	bne	a0,s1,12352 <_ZN20complex_dynamic_type3app17h06f918c6dc62b13cE+0x9a>
   12344:	4505                	li	a0,1
   12346:	c911                	beqz	a0,1235a <_ZN20complex_dynamic_type3app17h06f918c6dc62b13cE+0xa2>
   12348:	a0ad                	j	123b2 <_ZN20complex_dynamic_type3app17h06f918c6dc62b13cE+0xfa>
   1234a:	458d                	li	a1,3
   1234c:	4505                	li	a0,1
   1234e:	c511                	beqz	a0,1235a <_ZN20complex_dynamic_type3app17h06f918c6dc62b13cE+0xa2>
   12350:	a08d                	j	123b2 <_ZN20complex_dynamic_type3app17h06f918c6dc62b13cE+0xfa>
   12352:	4501                	li	a0,0
   12354:	02c10c23          	sb	a2,56(sp)
   12358:	ed29                	bnez	a0,123b2 <_ZN20complex_dynamic_type3app17h06f918c6dc62b13cE+0xfa>
   1235a:	4601                	li	a2,0
   1235c:	4681                	li	a3,0
   1235e:	6509                	lui	a0,0x2
   12360:	4591                	li	a1,4
   12362:	4709                	li	a4,2
   12364:	c7c50513          	addi	a0,a0,-900 # 1c7c <.Lline_table_start1+0x1a51>
   12368:	07f00493          	li	s1,127
   1236c:	00000073          	ecall
   12370:	4689                	li	a3,2
   12372:	04a4f063          	bgeu	s1,a0,123b2 <_ZN20complex_dynamic_type3app17h06f918c6dc62b13cE+0xfa>
   12376:	00d14603          	lbu	a2,13(sp)
   1237a:	00d60a63          	beq	a2,a3,1238e <_ZN20complex_dynamic_type3app17h06f918c6dc62b13cE+0xd6>
   1237e:	6509                	lui	a0,0x2
   12380:	c7c50513          	addi	a0,a0,-900 # 1c7c <.Lline_table_start1+0x1a51>
   12384:	4591                	li	a1,4
   12386:	0000e097          	auipc	ra,0xe
   1238a:	81e080e7          	jalr	-2018(ra) # 1fba4 <_ZN9allow_pin12dynamic_type7unshare17hb27555f71d22f3b2E>
   1238e:	03814603          	lbu	a2,56(sp)
   12392:	4409                	li	s0,2
   12394:	008106a3          	sb	s0,13(sp)
   12398:	00860a63          	beq	a2,s0,123ac <_ZN20complex_dynamic_type3app17h06f918c6dc62b13cE+0xf4>
   1239c:	6509                	lui	a0,0x2
   1239e:	c7c50513          	addi	a0,a0,-900 # 1c7c <.Lline_table_start1+0x1a51>
   123a2:	4581                	li	a1,0
   123a4:	0000e097          	auipc	ra,0xe
   123a8:	800080e7          	jalr	-2048(ra) # 1fba4 <_ZN9allow_pin12dynamic_type7unshare17hb27555f71d22f3b2E>
   123ac:	4781                	li	a5,0
   123ae:	02810c23          	sb	s0,56(sp)
   123b2:	cb85                	beqz	a5,123e2 <_ZN20complex_dynamic_type3app17h06f918c6dc62b13cE+0x12a>
   123b4:	03814603          	lbu	a2,56(sp)
   123b8:	4505                	li	a0,1
   123ba:	4409                	li	s0,2
   123bc:	00a90023          	sb	a0,0(s2)
   123c0:	00b92223          	sw	a1,4(s2)
   123c4:	00860a63          	beq	a2,s0,123d8 <_ZN20complex_dynamic_type3app17h06f918c6dc62b13cE+0x120>
   123c8:	6509                	lui	a0,0x2
   123ca:	c7c50513          	addi	a0,a0,-900 # 1c7c <.Lline_table_start1+0x1a51>
   123ce:	4581                	li	a1,0
   123d0:	0000d097          	auipc	ra,0xd
   123d4:	7d4080e7          	jalr	2004(ra) # 1fba4 <_ZN9allow_pin12dynamic_type7unshare17hb27555f71d22f3b2E>
   123d8:	00d14603          	lbu	a2,13(sp)
   123dc:	04861763          	bne	a2,s0,1242a <_ZN20complex_dynamic_type3app17h06f918c6dc62b13cE+0x172>
   123e0:	a8a9                	j	1243a <_ZN20complex_dynamic_type3app17h06f918c6dc62b13cE+0x182>
   123e2:	03814403          	lbu	s0,56(sp)
   123e6:	4489                	li	s1,2
   123e8:	00940663          	beq	s0,s1,123f4 <_ZN20complex_dynamic_type3app17h06f918c6dc62b13cE+0x13c>
   123ec:	000109b7          	lui	s3,0x10
   123f0:	7df98993          	addi	s3,s3,2015 # 107df <.Lanon.49c9f8067fe4468184af16d7576940c9.37>
   123f4:	00190513          	addi	a0,s2,1
   123f8:	06300613          	li	a2,99
   123fc:	85ce                	mv	a1,s3
   123fe:	0000e097          	auipc	ra,0xe
   12402:	81e080e7          	jalr	-2018(ra) # 1fc1c <memcpy>
   12406:	00090023          	sb	zero,0(s2)
   1240a:	00940b63          	beq	s0,s1,12420 <_ZN20complex_dynamic_type3app17h06f918c6dc62b13cE+0x168>
   1240e:	6509                	lui	a0,0x2
   12410:	c7c50513          	addi	a0,a0,-900 # 1c7c <.Lline_table_start1+0x1a51>
   12414:	4581                	li	a1,0
   12416:	8622                	mv	a2,s0
   12418:	0000d097          	auipc	ra,0xd
   1241c:	78c080e7          	jalr	1932(ra) # 1fba4 <_ZN9allow_pin12dynamic_type7unshare17hb27555f71d22f3b2E>
   12420:	00d14603          	lbu	a2,13(sp)
   12424:	4509                	li	a0,2
   12426:	00a60a63          	beq	a2,a0,1243a <_ZN20complex_dynamic_type3app17h06f918c6dc62b13cE+0x182>
   1242a:	6509                	lui	a0,0x2
   1242c:	c7c50513          	addi	a0,a0,-900 # 1c7c <.Lline_table_start1+0x1a51>
   12430:	4591                	li	a1,4
   12432:	0000d097          	auipc	ra,0xd
   12436:	772080e7          	jalr	1906(ra) # 1fba4 <_ZN9allow_pin12dynamic_type7unshare17hb27555f71d22f3b2E>
   1243a:	50ba                	lw	ra,172(sp)
   1243c:	542a                	lw	s0,168(sp)
   1243e:	549a                	lw	s1,164(sp)
   12440:	590a                	lw	s2,160(sp)
   12442:	49fa                	lw	s3,156(sp)
   12444:	614d                	addi	sp,sp,176
   12446:	8082                	ret

00012448 <_ZN20complex_dynamic_type3app17h092ebbbf7e0a0ce5E>:
   12448:	7175                	addi	sp,sp,-144
   1244a:	c706                	sw	ra,140(sp)
   1244c:	c522                	sw	s0,136(sp)
   1244e:	c326                	sw	s1,132(sp)
   12450:	c14a                	sw	s2,128(sp)
   12452:	dece                	sw	s3,124(sp)
   12454:	892a                	mv	s2,a0
   12456:	4489                	li	s1,2
   12458:	00910323          	sb	s1,6(sp)
   1245c:	00710413          	addi	s0,sp,7
   12460:	03c00613          	li	a2,60
   12464:	8522                	mv	a0,s0
   12466:	0000d097          	auipc	ra,0xd
   1246a:	7b6080e7          	jalr	1974(ra) # 1fc1c <memcpy>
   1246e:	04410993          	addi	s3,sp,68
   12472:	03800613          	li	a2,56
   12476:	854e                	mv	a0,s3
   12478:	4581                	li	a1,0
   1247a:	0000d097          	auipc	ra,0xd
   1247e:	736080e7          	jalr	1846(ra) # 1fbb0 <memset>
   12482:	8622                	mv	a2,s0
   12484:	049101a3          	sb	s1,67(sp)
   12488:	6509                	lui	a0,0x2
   1248a:	4791                	li	a5,4
   1248c:	458d                	li	a1,3
   1248e:	d1950513          	addi	a0,a0,-743 # 1d19 <.Lline_table_start1+0x1aee>
   12492:	03c00693          	li	a3,60
   12496:	4711                	li	a4,4
   12498:	00000073          	ecall
   1249c:	00950463          	beq	a0,s1,124a4 <_ZN20complex_dynamic_type3app17h092ebbbf7e0a0ce5E+0x5c>
   124a0:	00f10323          	sb	a5,6(sp)
   124a4:	4609                	li	a2,2
   124a6:	00c51463          	bne	a0,a2,124ae <_ZN20complex_dynamic_type3app17h092ebbbf7e0a0ce5E+0x66>
   124aa:	4785                	li	a5,1
   124ac:	a859                	j	12542 <_ZN20complex_dynamic_type3app17h092ebbbf7e0a0ce5E+0xfa>
   124ae:	04314503          	lbu	a0,67(sp)
   124b2:	4785                	li	a5,1
   124b4:	02c51363          	bne	a0,a2,124da <_ZN20complex_dynamic_type3app17h092ebbbf7e0a0ce5E+0x92>
   124b8:	864e                	mv	a2,s3
   124ba:	6509                	lui	a0,0x2
   124bc:	458d                	li	a1,3
   124be:	03800693          	li	a3,56
   124c2:	470d                	li	a4,3
   124c4:	d1950513          	addi	a0,a0,-743 # 1d19 <.Lline_table_start1+0x1aee>
   124c8:	4489                	li	s1,2
   124ca:	00000073          	ecall
   124ce:	460d                	li	a2,3
   124d0:	00951963          	bne	a0,s1,124e2 <_ZN20complex_dynamic_type3app17h092ebbbf7e0a0ce5E+0x9a>
   124d4:	4505                	li	a0,1
   124d6:	c911                	beqz	a0,124ea <_ZN20complex_dynamic_type3app17h092ebbbf7e0a0ce5E+0xa2>
   124d8:	a0ad                	j	12542 <_ZN20complex_dynamic_type3app17h092ebbbf7e0a0ce5E+0xfa>
   124da:	458d                	li	a1,3
   124dc:	4505                	li	a0,1
   124de:	c511                	beqz	a0,124ea <_ZN20complex_dynamic_type3app17h092ebbbf7e0a0ce5E+0xa2>
   124e0:	a08d                	j	12542 <_ZN20complex_dynamic_type3app17h092ebbbf7e0a0ce5E+0xfa>
   124e2:	4501                	li	a0,0
   124e4:	04c101a3          	sb	a2,67(sp)
   124e8:	ed29                	bnez	a0,12542 <_ZN20complex_dynamic_type3app17h092ebbbf7e0a0ce5E+0xfa>
   124ea:	4681                	li	a3,0
   124ec:	6509                	lui	a0,0x2
   124ee:	458d                	li	a1,3
   124f0:	460d                	li	a2,3
   124f2:	4709                	li	a4,2
   124f4:	d1950513          	addi	a0,a0,-743 # 1d19 <.Lline_table_start1+0x1aee>
   124f8:	07f00493          	li	s1,127
   124fc:	00000073          	ecall
   12500:	4689                	li	a3,2
   12502:	04a4f063          	bgeu	s1,a0,12542 <_ZN20complex_dynamic_type3app17h092ebbbf7e0a0ce5E+0xfa>
   12506:	00614603          	lbu	a2,6(sp)
   1250a:	00d60a63          	beq	a2,a3,1251e <_ZN20complex_dynamic_type3app17h092ebbbf7e0a0ce5E+0xd6>
   1250e:	6509                	lui	a0,0x2
   12510:	d1950513          	addi	a0,a0,-743 # 1d19 <.Lline_table_start1+0x1aee>
   12514:	458d                	li	a1,3
   12516:	0000d097          	auipc	ra,0xd
   1251a:	68e080e7          	jalr	1678(ra) # 1fba4 <_ZN9allow_pin12dynamic_type7unshare17hb27555f71d22f3b2E>
   1251e:	04314603          	lbu	a2,67(sp)
   12522:	4409                	li	s0,2
   12524:	00810323          	sb	s0,6(sp)
   12528:	00860a63          	beq	a2,s0,1253c <_ZN20complex_dynamic_type3app17h092ebbbf7e0a0ce5E+0xf4>
   1252c:	6509                	lui	a0,0x2
   1252e:	d1950513          	addi	a0,a0,-743 # 1d19 <.Lline_table_start1+0x1aee>
   12532:	458d                	li	a1,3
   12534:	0000d097          	auipc	ra,0xd
   12538:	670080e7          	jalr	1648(ra) # 1fba4 <_ZN9allow_pin12dynamic_type7unshare17hb27555f71d22f3b2E>
   1253c:	4781                	li	a5,0
   1253e:	048101a3          	sb	s0,67(sp)
   12542:	cb85                	beqz	a5,12572 <_ZN20complex_dynamic_type3app17h092ebbbf7e0a0ce5E+0x12a>
   12544:	04314603          	lbu	a2,67(sp)
   12548:	4505                	li	a0,1
   1254a:	4409                	li	s0,2
   1254c:	00a90023          	sb	a0,0(s2)
   12550:	00b92223          	sw	a1,4(s2)
   12554:	00860a63          	beq	a2,s0,12568 <_ZN20complex_dynamic_type3app17h092ebbbf7e0a0ce5E+0x120>
   12558:	6509                	lui	a0,0x2
   1255a:	d1950513          	addi	a0,a0,-743 # 1d19 <.Lline_table_start1+0x1aee>
   1255e:	458d                	li	a1,3
   12560:	0000d097          	auipc	ra,0xd
   12564:	644080e7          	jalr	1604(ra) # 1fba4 <_ZN9allow_pin12dynamic_type7unshare17hb27555f71d22f3b2E>
   12568:	00614603          	lbu	a2,6(sp)
   1256c:	04861763          	bne	a2,s0,125ba <_ZN20complex_dynamic_type3app17h092ebbbf7e0a0ce5E+0x172>
   12570:	a8a9                	j	125ca <_ZN20complex_dynamic_type3app17h092ebbbf7e0a0ce5E+0x182>
   12572:	04314403          	lbu	s0,67(sp)
   12576:	4489                	li	s1,2
   12578:	00940663          	beq	s0,s1,12584 <_ZN20complex_dynamic_type3app17h092ebbbf7e0a0ce5E+0x13c>
   1257c:	000109b7          	lui	s3,0x10
   12580:	4f598993          	addi	s3,s3,1269 # 104f5 <.Lanon.49c9f8067fe4468184af16d7576940c9.22>
   12584:	00190513          	addi	a0,s2,1
   12588:	03800613          	li	a2,56
   1258c:	85ce                	mv	a1,s3
   1258e:	0000d097          	auipc	ra,0xd
   12592:	68e080e7          	jalr	1678(ra) # 1fc1c <memcpy>
   12596:	00090023          	sb	zero,0(s2)
   1259a:	00940b63          	beq	s0,s1,125b0 <_ZN20complex_dynamic_type3app17h092ebbbf7e0a0ce5E+0x168>
   1259e:	6509                	lui	a0,0x2
   125a0:	d1950513          	addi	a0,a0,-743 # 1d19 <.Lline_table_start1+0x1aee>
   125a4:	458d                	li	a1,3
   125a6:	8622                	mv	a2,s0
   125a8:	0000d097          	auipc	ra,0xd
   125ac:	5fc080e7          	jalr	1532(ra) # 1fba4 <_ZN9allow_pin12dynamic_type7unshare17hb27555f71d22f3b2E>
   125b0:	00614603          	lbu	a2,6(sp)
   125b4:	4509                	li	a0,2
   125b6:	00a60a63          	beq	a2,a0,125ca <_ZN20complex_dynamic_type3app17h092ebbbf7e0a0ce5E+0x182>
   125ba:	6509                	lui	a0,0x2
   125bc:	d1950513          	addi	a0,a0,-743 # 1d19 <.Lline_table_start1+0x1aee>
   125c0:	458d                	li	a1,3
   125c2:	0000d097          	auipc	ra,0xd
   125c6:	5e2080e7          	jalr	1506(ra) # 1fba4 <_ZN9allow_pin12dynamic_type7unshare17hb27555f71d22f3b2E>
   125ca:	40ba                	lw	ra,140(sp)
   125cc:	442a                	lw	s0,136(sp)
   125ce:	449a                	lw	s1,132(sp)
   125d0:	490a                	lw	s2,128(sp)
   125d2:	59f6                	lw	s3,124(sp)
   125d4:	6149                	addi	sp,sp,144
   125d6:	8082                	ret

000125d8 <_ZN20complex_dynamic_type3app17h0b1e2fd932b2bc15E>:
   125d8:	7135                	addi	sp,sp,-160
   125da:	cf06                	sw	ra,156(sp)
   125dc:	cd22                	sw	s0,152(sp)
   125de:	cb26                	sw	s1,148(sp)
   125e0:	c94a                	sw	s2,144(sp)
   125e2:	c74e                	sw	s3,140(sp)
   125e4:	892a                	mv	s2,a0
   125e6:	4489                	li	s1,2
   125e8:	00910323          	sb	s1,6(sp)
   125ec:	00710413          	addi	s0,sp,7
   125f0:	04f00613          	li	a2,79
   125f4:	8522                	mv	a0,s0
   125f6:	0000d097          	auipc	ra,0xd
   125fa:	626080e7          	jalr	1574(ra) # 1fc1c <memcpy>
   125fe:	05710993          	addi	s3,sp,87
   12602:	03500613          	li	a2,53
   12606:	854e                	mv	a0,s3
   12608:	4581                	li	a1,0
   1260a:	0000d097          	auipc	ra,0xd
   1260e:	5a6080e7          	jalr	1446(ra) # 1fbb0 <memset>
   12612:	8622                	mv	a2,s0
   12614:	04910b23          	sb	s1,86(sp)
   12618:	6505                	lui	a0,0x1
   1261a:	4791                	li	a5,4
   1261c:	459d                	li	a1,7
   1261e:	6d750513          	addi	a0,a0,1751 # 16d7 <.Lline_table_start1+0x14ac>
   12622:	04f00693          	li	a3,79
   12626:	4711                	li	a4,4
   12628:	00000073          	ecall
   1262c:	00950463          	beq	a0,s1,12634 <_ZN20complex_dynamic_type3app17h0b1e2fd932b2bc15E+0x5c>
   12630:	00f10323          	sb	a5,6(sp)
   12634:	4609                	li	a2,2
   12636:	00c51463          	bne	a0,a2,1263e <_ZN20complex_dynamic_type3app17h0b1e2fd932b2bc15E+0x66>
   1263a:	4785                	li	a5,1
   1263c:	a849                	j	126ce <_ZN20complex_dynamic_type3app17h0b1e2fd932b2bc15E+0xf6>
   1263e:	05614503          	lbu	a0,86(sp)
   12642:	4785                	li	a5,1
   12644:	02c51563          	bne	a0,a2,1266e <_ZN20complex_dynamic_type3app17h0b1e2fd932b2bc15E+0x96>
   12648:	864e                	mv	a2,s3
   1264a:	6505                	lui	a0,0x1
   1264c:	4405                	li	s0,1
   1264e:	4585                	li	a1,1
   12650:	03500693          	li	a3,53
   12654:	470d                	li	a4,3
   12656:	6d750513          	addi	a0,a0,1751 # 16d7 <.Lline_table_start1+0x14ac>
   1265a:	4489                	li	s1,2
   1265c:	00000073          	ecall
   12660:	460d                	li	a2,3
   12662:	00950863          	beq	a0,s1,12672 <_ZN20complex_dynamic_type3app17h0b1e2fd932b2bc15E+0x9a>
   12666:	4401                	li	s0,0
   12668:	04c10b23          	sb	a2,86(sp)
   1266c:	a019                	j	12672 <_ZN20complex_dynamic_type3app17h0b1e2fd932b2bc15E+0x9a>
   1266e:	458d                	li	a1,3
   12670:	4405                	li	s0,1
   12672:	ec31                	bnez	s0,126ce <_ZN20complex_dynamic_type3app17h0b1e2fd932b2bc15E+0xf6>
   12674:	4681                	li	a3,0
   12676:	6505                	lui	a0,0x1
   12678:	4785                	li	a5,1
   1267a:	459d                	li	a1,7
   1267c:	4605                	li	a2,1
   1267e:	4709                	li	a4,2
   12680:	6d750513          	addi	a0,a0,1751 # 16d7 <.Lline_table_start1+0x14ac>
   12684:	07f00493          	li	s1,127
   12688:	00000073          	ecall
   1268c:	4689                	li	a3,2
   1268e:	04a4f063          	bgeu	s1,a0,126ce <_ZN20complex_dynamic_type3app17h0b1e2fd932b2bc15E+0xf6>
   12692:	00614603          	lbu	a2,6(sp)
   12696:	00d60a63          	beq	a2,a3,126aa <_ZN20complex_dynamic_type3app17h0b1e2fd932b2bc15E+0xd2>
   1269a:	6505                	lui	a0,0x1
   1269c:	6d750513          	addi	a0,a0,1751 # 16d7 <.Lline_table_start1+0x14ac>
   126a0:	459d                	li	a1,7
   126a2:	0000d097          	auipc	ra,0xd
   126a6:	502080e7          	jalr	1282(ra) # 1fba4 <_ZN9allow_pin12dynamic_type7unshare17hb27555f71d22f3b2E>
   126aa:	05614603          	lbu	a2,86(sp)
   126ae:	4409                	li	s0,2
   126b0:	00810323          	sb	s0,6(sp)
   126b4:	00860a63          	beq	a2,s0,126c8 <_ZN20complex_dynamic_type3app17h0b1e2fd932b2bc15E+0xf0>
   126b8:	6505                	lui	a0,0x1
   126ba:	6d750513          	addi	a0,a0,1751 # 16d7 <.Lline_table_start1+0x14ac>
   126be:	4585                	li	a1,1
   126c0:	0000d097          	auipc	ra,0xd
   126c4:	4e4080e7          	jalr	1252(ra) # 1fba4 <_ZN9allow_pin12dynamic_type7unshare17hb27555f71d22f3b2E>
   126c8:	4781                	li	a5,0
   126ca:	04810b23          	sb	s0,86(sp)
   126ce:	cb85                	beqz	a5,126fe <_ZN20complex_dynamic_type3app17h0b1e2fd932b2bc15E+0x126>
   126d0:	05614603          	lbu	a2,86(sp)
   126d4:	4505                	li	a0,1
   126d6:	4409                	li	s0,2
   126d8:	00a90023          	sb	a0,0(s2)
   126dc:	00b92223          	sw	a1,4(s2)
   126e0:	00860a63          	beq	a2,s0,126f4 <_ZN20complex_dynamic_type3app17h0b1e2fd932b2bc15E+0x11c>
   126e4:	6505                	lui	a0,0x1
   126e6:	6d750513          	addi	a0,a0,1751 # 16d7 <.Lline_table_start1+0x14ac>
   126ea:	4585                	li	a1,1
   126ec:	0000d097          	auipc	ra,0xd
   126f0:	4b8080e7          	jalr	1208(ra) # 1fba4 <_ZN9allow_pin12dynamic_type7unshare17hb27555f71d22f3b2E>
   126f4:	00614603          	lbu	a2,6(sp)
   126f8:	04861763          	bne	a2,s0,12746 <_ZN20complex_dynamic_type3app17h0b1e2fd932b2bc15E+0x16e>
   126fc:	a8a9                	j	12756 <_ZN20complex_dynamic_type3app17h0b1e2fd932b2bc15E+0x17e>
   126fe:	05614403          	lbu	s0,86(sp)
   12702:	4489                	li	s1,2
   12704:	00940663          	beq	s0,s1,12710 <_ZN20complex_dynamic_type3app17h0b1e2fd932b2bc15E+0x138>
   12708:	000109b7          	lui	s3,0x10
   1270c:	7aa98993          	addi	s3,s3,1962 # 107aa <.Lanon.49c9f8067fe4468184af16d7576940c9.36>
   12710:	00190513          	addi	a0,s2,1
   12714:	03500613          	li	a2,53
   12718:	85ce                	mv	a1,s3
   1271a:	0000d097          	auipc	ra,0xd
   1271e:	502080e7          	jalr	1282(ra) # 1fc1c <memcpy>
   12722:	00090023          	sb	zero,0(s2)
   12726:	00940b63          	beq	s0,s1,1273c <_ZN20complex_dynamic_type3app17h0b1e2fd932b2bc15E+0x164>
   1272a:	6505                	lui	a0,0x1
   1272c:	6d750513          	addi	a0,a0,1751 # 16d7 <.Lline_table_start1+0x14ac>
   12730:	4585                	li	a1,1
   12732:	8622                	mv	a2,s0
   12734:	0000d097          	auipc	ra,0xd
   12738:	470080e7          	jalr	1136(ra) # 1fba4 <_ZN9allow_pin12dynamic_type7unshare17hb27555f71d22f3b2E>
   1273c:	00614603          	lbu	a2,6(sp)
   12740:	4509                	li	a0,2
   12742:	00a60a63          	beq	a2,a0,12756 <_ZN20complex_dynamic_type3app17h0b1e2fd932b2bc15E+0x17e>
   12746:	6505                	lui	a0,0x1
   12748:	6d750513          	addi	a0,a0,1751 # 16d7 <.Lline_table_start1+0x14ac>
   1274c:	459d                	li	a1,7
   1274e:	0000d097          	auipc	ra,0xd
   12752:	456080e7          	jalr	1110(ra) # 1fba4 <_ZN9allow_pin12dynamic_type7unshare17hb27555f71d22f3b2E>
   12756:	40fa                	lw	ra,156(sp)
   12758:	446a                	lw	s0,152(sp)
   1275a:	44da                	lw	s1,148(sp)
   1275c:	494a                	lw	s2,144(sp)
   1275e:	49ba                	lw	s3,140(sp)
   12760:	610d                	addi	sp,sp,160
   12762:	8082                	ret

00012764 <_ZN20complex_dynamic_type3app17h0d3f07f7d28fbd80E>:
   12764:	7119                	addi	sp,sp,-128
   12766:	de86                	sw	ra,124(sp)
   12768:	dca2                	sw	s0,120(sp)
   1276a:	daa6                	sw	s1,116(sp)
   1276c:	d8ca                	sw	s2,112(sp)
   1276e:	d6ce                	sw	s3,108(sp)
   12770:	892a                	mv	s2,a0
   12772:	4489                	li	s1,2
   12774:	00910023          	sb	s1,0(sp)
   12778:	00110413          	addi	s0,sp,1
   1277c:	4669                	li	a2,26
   1277e:	8522                	mv	a0,s0
   12780:	0000d097          	auipc	ra,0xd
   12784:	49c080e7          	jalr	1180(ra) # 1fc1c <memcpy>
   12788:	01c10993          	addi	s3,sp,28
   1278c:	05000613          	li	a2,80
   12790:	854e                	mv	a0,s3
   12792:	4581                	li	a1,0
   12794:	0000d097          	auipc	ra,0xd
   12798:	41c080e7          	jalr	1052(ra) # 1fbb0 <memset>
   1279c:	8622                	mv	a2,s0
   1279e:	00910da3          	sb	s1,27(sp)
   127a2:	6505                	lui	a0,0x1
   127a4:	4791                	li	a5,4
   127a6:	459d                	li	a1,7
   127a8:	aee50513          	addi	a0,a0,-1298 # aee <.Lline_table_start1+0x8c3>
   127ac:	46e9                	li	a3,26
   127ae:	4711                	li	a4,4
   127b0:	00000073          	ecall
   127b4:	00950463          	beq	a0,s1,127bc <_ZN20complex_dynamic_type3app17h0d3f07f7d28fbd80E+0x58>
   127b8:	00f10023          	sb	a5,0(sp)
   127bc:	4609                	li	a2,2
   127be:	00c51463          	bne	a0,a2,127c6 <_ZN20complex_dynamic_type3app17h0d3f07f7d28fbd80E+0x62>
   127c2:	4785                	li	a5,1
   127c4:	a859                	j	1285a <_ZN20complex_dynamic_type3app17h0d3f07f7d28fbd80E+0xf6>
   127c6:	01b14503          	lbu	a0,27(sp)
   127ca:	4785                	li	a5,1
   127cc:	02c51363          	bne	a0,a2,127f2 <_ZN20complex_dynamic_type3app17h0d3f07f7d28fbd80E+0x8e>
   127d0:	864e                	mv	a2,s3
   127d2:	6505                	lui	a0,0x1
   127d4:	4591                	li	a1,4
   127d6:	05000693          	li	a3,80
   127da:	470d                	li	a4,3
   127dc:	aee50513          	addi	a0,a0,-1298 # aee <.Lline_table_start1+0x8c3>
   127e0:	4489                	li	s1,2
   127e2:	00000073          	ecall
   127e6:	460d                	li	a2,3
   127e8:	00951963          	bne	a0,s1,127fa <_ZN20complex_dynamic_type3app17h0d3f07f7d28fbd80E+0x96>
   127ec:	4505                	li	a0,1
   127ee:	c911                	beqz	a0,12802 <_ZN20complex_dynamic_type3app17h0d3f07f7d28fbd80E+0x9e>
   127f0:	a0ad                	j	1285a <_ZN20complex_dynamic_type3app17h0d3f07f7d28fbd80E+0xf6>
   127f2:	458d                	li	a1,3
   127f4:	4505                	li	a0,1
   127f6:	c511                	beqz	a0,12802 <_ZN20complex_dynamic_type3app17h0d3f07f7d28fbd80E+0x9e>
   127f8:	a08d                	j	1285a <_ZN20complex_dynamic_type3app17h0d3f07f7d28fbd80E+0xf6>
   127fa:	4501                	li	a0,0
   127fc:	00c10da3          	sb	a2,27(sp)
   12800:	ed29                	bnez	a0,1285a <_ZN20complex_dynamic_type3app17h0d3f07f7d28fbd80E+0xf6>
   12802:	4681                	li	a3,0
   12804:	6505                	lui	a0,0x1
   12806:	459d                	li	a1,7
   12808:	4611                	li	a2,4
   1280a:	4709                	li	a4,2
   1280c:	aee50513          	addi	a0,a0,-1298 # aee <.Lline_table_start1+0x8c3>
   12810:	07f00493          	li	s1,127
   12814:	00000073          	ecall
   12818:	4689                	li	a3,2
   1281a:	04a4f063          	bgeu	s1,a0,1285a <_ZN20complex_dynamic_type3app17h0d3f07f7d28fbd80E+0xf6>
   1281e:	00014603          	lbu	a2,0(sp)
   12822:	00d60a63          	beq	a2,a3,12836 <_ZN20complex_dynamic_type3app17h0d3f07f7d28fbd80E+0xd2>
   12826:	6505                	lui	a0,0x1
   12828:	aee50513          	addi	a0,a0,-1298 # aee <.Lline_table_start1+0x8c3>
   1282c:	459d                	li	a1,7
   1282e:	0000d097          	auipc	ra,0xd
   12832:	376080e7          	jalr	886(ra) # 1fba4 <_ZN9allow_pin12dynamic_type7unshare17hb27555f71d22f3b2E>
   12836:	01b14603          	lbu	a2,27(sp)
   1283a:	4409                	li	s0,2
   1283c:	00810023          	sb	s0,0(sp)
   12840:	00860a63          	beq	a2,s0,12854 <_ZN20complex_dynamic_type3app17h0d3f07f7d28fbd80E+0xf0>
   12844:	6505                	lui	a0,0x1
   12846:	aee50513          	addi	a0,a0,-1298 # aee <.Lline_table_start1+0x8c3>
   1284a:	4591                	li	a1,4
   1284c:	0000d097          	auipc	ra,0xd
   12850:	358080e7          	jalr	856(ra) # 1fba4 <_ZN9allow_pin12dynamic_type7unshare17hb27555f71d22f3b2E>
   12854:	4781                	li	a5,0
   12856:	00810da3          	sb	s0,27(sp)
   1285a:	cb85                	beqz	a5,1288a <_ZN20complex_dynamic_type3app17h0d3f07f7d28fbd80E+0x126>
   1285c:	01b14603          	lbu	a2,27(sp)
   12860:	4505                	li	a0,1
   12862:	4409                	li	s0,2
   12864:	00a90023          	sb	a0,0(s2)
   12868:	00b92223          	sw	a1,4(s2)
   1286c:	00860a63          	beq	a2,s0,12880 <_ZN20complex_dynamic_type3app17h0d3f07f7d28fbd80E+0x11c>
   12870:	6505                	lui	a0,0x1
   12872:	aee50513          	addi	a0,a0,-1298 # aee <.Lline_table_start1+0x8c3>
   12876:	4591                	li	a1,4
   12878:	0000d097          	auipc	ra,0xd
   1287c:	32c080e7          	jalr	812(ra) # 1fba4 <_ZN9allow_pin12dynamic_type7unshare17hb27555f71d22f3b2E>
   12880:	00014603          	lbu	a2,0(sp)
   12884:	04861763          	bne	a2,s0,128d2 <_ZN20complex_dynamic_type3app17h0d3f07f7d28fbd80E+0x16e>
   12888:	a8a9                	j	128e2 <_ZN20complex_dynamic_type3app17h0d3f07f7d28fbd80E+0x17e>
   1288a:	01b14403          	lbu	s0,27(sp)
   1288e:	4489                	li	s1,2
   12890:	00940663          	beq	s0,s1,1289c <_ZN20complex_dynamic_type3app17h0d3f07f7d28fbd80E+0x138>
   12894:	000109b7          	lui	s3,0x10
   12898:	17b98993          	addi	s3,s3,379 # 1017b <.Lanon.49c9f8067fe4468184af16d7576940c9.5>
   1289c:	00190513          	addi	a0,s2,1
   128a0:	05000613          	li	a2,80
   128a4:	85ce                	mv	a1,s3
   128a6:	0000d097          	auipc	ra,0xd
   128aa:	376080e7          	jalr	886(ra) # 1fc1c <memcpy>
   128ae:	00090023          	sb	zero,0(s2)
   128b2:	00940b63          	beq	s0,s1,128c8 <_ZN20complex_dynamic_type3app17h0d3f07f7d28fbd80E+0x164>
   128b6:	6505                	lui	a0,0x1
   128b8:	aee50513          	addi	a0,a0,-1298 # aee <.Lline_table_start1+0x8c3>
   128bc:	4591                	li	a1,4
   128be:	8622                	mv	a2,s0
   128c0:	0000d097          	auipc	ra,0xd
   128c4:	2e4080e7          	jalr	740(ra) # 1fba4 <_ZN9allow_pin12dynamic_type7unshare17hb27555f71d22f3b2E>
   128c8:	00014603          	lbu	a2,0(sp)
   128cc:	4509                	li	a0,2
   128ce:	00a60a63          	beq	a2,a0,128e2 <_ZN20complex_dynamic_type3app17h0d3f07f7d28fbd80E+0x17e>
   128d2:	6505                	lui	a0,0x1
   128d4:	aee50513          	addi	a0,a0,-1298 # aee <.Lline_table_start1+0x8c3>
   128d8:	459d                	li	a1,7
   128da:	0000d097          	auipc	ra,0xd
   128de:	2ca080e7          	jalr	714(ra) # 1fba4 <_ZN9allow_pin12dynamic_type7unshare17hb27555f71d22f3b2E>
   128e2:	50f6                	lw	ra,124(sp)
   128e4:	5466                	lw	s0,120(sp)
   128e6:	54d6                	lw	s1,116(sp)
   128e8:	5946                	lw	s2,112(sp)
   128ea:	59b6                	lw	s3,108(sp)
   128ec:	6109                	addi	sp,sp,128
   128ee:	8082                	ret

000128f0 <_ZN20complex_dynamic_type3app17h0fdf7113a10c88f1E>:
   128f0:	7175                	addi	sp,sp,-144
   128f2:	c706                	sw	ra,140(sp)
   128f4:	c522                	sw	s0,136(sp)
   128f6:	c326                	sw	s1,132(sp)
   128f8:	c14a                	sw	s2,128(sp)
   128fa:	dece                	sw	s3,124(sp)
   128fc:	892a                	mv	s2,a0
   128fe:	4489                	li	s1,2
   12900:	00910223          	sb	s1,4(sp)
   12904:	00510413          	addi	s0,sp,5
   12908:	02700613          	li	a2,39
   1290c:	8522                	mv	a0,s0
   1290e:	0000d097          	auipc	ra,0xd
   12912:	30e080e7          	jalr	782(ra) # 1fc1c <memcpy>
   12916:	02d10993          	addi	s3,sp,45
   1291a:	04f00613          	li	a2,79
   1291e:	854e                	mv	a0,s3
   12920:	4581                	li	a1,0
   12922:	0000d097          	auipc	ra,0xd
   12926:	28e080e7          	jalr	654(ra) # 1fbb0 <memset>
   1292a:	8622                	mv	a2,s0
   1292c:	02910623          	sb	s1,44(sp)
   12930:	6505                	lui	a0,0x1
   12932:	4791                	li	a5,4
   12934:	45a5                	li	a1,9
   12936:	b4c50513          	addi	a0,a0,-1204 # b4c <.Lline_table_start1+0x921>
   1293a:	02700693          	li	a3,39
   1293e:	4711                	li	a4,4
   12940:	00000073          	ecall
   12944:	00950463          	beq	a0,s1,1294c <_ZN20complex_dynamic_type3app17h0fdf7113a10c88f1E+0x5c>
   12948:	00f10223          	sb	a5,4(sp)
   1294c:	4609                	li	a2,2
   1294e:	00c51463          	bne	a0,a2,12956 <_ZN20complex_dynamic_type3app17h0fdf7113a10c88f1E+0x66>
   12952:	4785                	li	a5,1
   12954:	a859                	j	129ea <_ZN20complex_dynamic_type3app17h0fdf7113a10c88f1E+0xfa>
   12956:	02c14503          	lbu	a0,44(sp)
   1295a:	4785                	li	a5,1
   1295c:	02c51363          	bne	a0,a2,12982 <_ZN20complex_dynamic_type3app17h0fdf7113a10c88f1E+0x92>
   12960:	4581                	li	a1,0
   12962:	864e                	mv	a2,s3
   12964:	6505                	lui	a0,0x1
   12966:	04f00693          	li	a3,79
   1296a:	470d                	li	a4,3
   1296c:	b4c50513          	addi	a0,a0,-1204 # b4c <.Lline_table_start1+0x921>
   12970:	4489                	li	s1,2
   12972:	00000073          	ecall
   12976:	460d                	li	a2,3
   12978:	00951963          	bne	a0,s1,1298a <_ZN20complex_dynamic_type3app17h0fdf7113a10c88f1E+0x9a>
   1297c:	4505                	li	a0,1
   1297e:	c911                	beqz	a0,12992 <_ZN20complex_dynamic_type3app17h0fdf7113a10c88f1E+0xa2>
   12980:	a0ad                	j	129ea <_ZN20complex_dynamic_type3app17h0fdf7113a10c88f1E+0xfa>
   12982:	458d                	li	a1,3
   12984:	4505                	li	a0,1
   12986:	c511                	beqz	a0,12992 <_ZN20complex_dynamic_type3app17h0fdf7113a10c88f1E+0xa2>
   12988:	a08d                	j	129ea <_ZN20complex_dynamic_type3app17h0fdf7113a10c88f1E+0xfa>
   1298a:	4501                	li	a0,0
   1298c:	02c10623          	sb	a2,44(sp)
   12990:	ed29                	bnez	a0,129ea <_ZN20complex_dynamic_type3app17h0fdf7113a10c88f1E+0xfa>
   12992:	4601                	li	a2,0
   12994:	4681                	li	a3,0
   12996:	6505                	lui	a0,0x1
   12998:	45a5                	li	a1,9
   1299a:	4709                	li	a4,2
   1299c:	b4c50513          	addi	a0,a0,-1204 # b4c <.Lline_table_start1+0x921>
   129a0:	07f00493          	li	s1,127
   129a4:	00000073          	ecall
   129a8:	4689                	li	a3,2
   129aa:	04a4f063          	bgeu	s1,a0,129ea <_ZN20complex_dynamic_type3app17h0fdf7113a10c88f1E+0xfa>
   129ae:	00414603          	lbu	a2,4(sp)
   129b2:	00d60a63          	beq	a2,a3,129c6 <_ZN20complex_dynamic_type3app17h0fdf7113a10c88f1E+0xd6>
   129b6:	6505                	lui	a0,0x1
   129b8:	b4c50513          	addi	a0,a0,-1204 # b4c <.Lline_table_start1+0x921>
   129bc:	45a5                	li	a1,9
   129be:	0000d097          	auipc	ra,0xd
   129c2:	1e6080e7          	jalr	486(ra) # 1fba4 <_ZN9allow_pin12dynamic_type7unshare17hb27555f71d22f3b2E>
   129c6:	02c14603          	lbu	a2,44(sp)
   129ca:	4409                	li	s0,2
   129cc:	00810223          	sb	s0,4(sp)
   129d0:	00860a63          	beq	a2,s0,129e4 <_ZN20complex_dynamic_type3app17h0fdf7113a10c88f1E+0xf4>
   129d4:	6505                	lui	a0,0x1
   129d6:	b4c50513          	addi	a0,a0,-1204 # b4c <.Lline_table_start1+0x921>
   129da:	4581                	li	a1,0
   129dc:	0000d097          	auipc	ra,0xd
   129e0:	1c8080e7          	jalr	456(ra) # 1fba4 <_ZN9allow_pin12dynamic_type7unshare17hb27555f71d22f3b2E>
   129e4:	4781                	li	a5,0
   129e6:	02810623          	sb	s0,44(sp)
   129ea:	cb85                	beqz	a5,12a1a <_ZN20complex_dynamic_type3app17h0fdf7113a10c88f1E+0x12a>
   129ec:	02c14603          	lbu	a2,44(sp)
   129f0:	4505                	li	a0,1
   129f2:	4409                	li	s0,2
   129f4:	00a90023          	sb	a0,0(s2)
   129f8:	00b92223          	sw	a1,4(s2)
   129fc:	00860a63          	beq	a2,s0,12a10 <_ZN20complex_dynamic_type3app17h0fdf7113a10c88f1E+0x120>
   12a00:	6505                	lui	a0,0x1
   12a02:	b4c50513          	addi	a0,a0,-1204 # b4c <.Lline_table_start1+0x921>
   12a06:	4581                	li	a1,0
   12a08:	0000d097          	auipc	ra,0xd
   12a0c:	19c080e7          	jalr	412(ra) # 1fba4 <_ZN9allow_pin12dynamic_type7unshare17hb27555f71d22f3b2E>
   12a10:	00414603          	lbu	a2,4(sp)
   12a14:	04861763          	bne	a2,s0,12a62 <_ZN20complex_dynamic_type3app17h0fdf7113a10c88f1E+0x172>
   12a18:	a8a9                	j	12a72 <_ZN20complex_dynamic_type3app17h0fdf7113a10c88f1E+0x182>
   12a1a:	02c14403          	lbu	s0,44(sp)
   12a1e:	4489                	li	s1,2
   12a20:	00940663          	beq	s0,s1,12a2c <_ZN20complex_dynamic_type3app17h0fdf7113a10c88f1E+0x13c>
   12a24:	000109b7          	lui	s3,0x10
   12a28:	42698993          	addi	s3,s3,1062 # 10426 <.Lanon.49c9f8067fe4468184af16d7576940c9.18>
   12a2c:	00190513          	addi	a0,s2,1
   12a30:	04f00613          	li	a2,79
   12a34:	85ce                	mv	a1,s3
   12a36:	0000d097          	auipc	ra,0xd
   12a3a:	1e6080e7          	jalr	486(ra) # 1fc1c <memcpy>
   12a3e:	00090023          	sb	zero,0(s2)
   12a42:	00940b63          	beq	s0,s1,12a58 <_ZN20complex_dynamic_type3app17h0fdf7113a10c88f1E+0x168>
   12a46:	6505                	lui	a0,0x1
   12a48:	b4c50513          	addi	a0,a0,-1204 # b4c <.Lline_table_start1+0x921>
   12a4c:	4581                	li	a1,0
   12a4e:	8622                	mv	a2,s0
   12a50:	0000d097          	auipc	ra,0xd
   12a54:	154080e7          	jalr	340(ra) # 1fba4 <_ZN9allow_pin12dynamic_type7unshare17hb27555f71d22f3b2E>
   12a58:	00414603          	lbu	a2,4(sp)
   12a5c:	4509                	li	a0,2
   12a5e:	00a60a63          	beq	a2,a0,12a72 <_ZN20complex_dynamic_type3app17h0fdf7113a10c88f1E+0x182>
   12a62:	6505                	lui	a0,0x1
   12a64:	b4c50513          	addi	a0,a0,-1204 # b4c <.Lline_table_start1+0x921>
   12a68:	45a5                	li	a1,9
   12a6a:	0000d097          	auipc	ra,0xd
   12a6e:	13a080e7          	jalr	314(ra) # 1fba4 <_ZN9allow_pin12dynamic_type7unshare17hb27555f71d22f3b2E>
   12a72:	40ba                	lw	ra,140(sp)
   12a74:	442a                	lw	s0,136(sp)
   12a76:	449a                	lw	s1,132(sp)
   12a78:	490a                	lw	s2,128(sp)
   12a7a:	59f6                	lw	s3,124(sp)
   12a7c:	6149                	addi	sp,sp,144
   12a7e:	8082                	ret

00012a80 <_ZN20complex_dynamic_type3app17h146e1f1d799ced70E>:
   12a80:	7175                	addi	sp,sp,-144
   12a82:	c706                	sw	ra,140(sp)
   12a84:	c522                	sw	s0,136(sp)
   12a86:	c326                	sw	s1,132(sp)
   12a88:	c14a                	sw	s2,128(sp)
   12a8a:	dece                	sw	s3,124(sp)
   12a8c:	892a                	mv	s2,a0
   12a8e:	4489                	li	s1,2
   12a90:	00910323          	sb	s1,6(sp)
   12a94:	00710413          	addi	s0,sp,7
   12a98:	02100613          	li	a2,33
   12a9c:	8522                	mv	a0,s0
   12a9e:	0000d097          	auipc	ra,0xd
   12aa2:	17e080e7          	jalr	382(ra) # 1fc1c <memcpy>
   12aa6:	02910993          	addi	s3,sp,41
   12aaa:	05300613          	li	a2,83
   12aae:	854e                	mv	a0,s3
   12ab0:	4581                	li	a1,0
   12ab2:	0000d097          	auipc	ra,0xd
   12ab6:	0fe080e7          	jalr	254(ra) # 1fbb0 <memset>
   12aba:	8622                	mv	a2,s0
   12abc:	02910423          	sb	s1,40(sp)
   12ac0:	6509                	lui	a0,0x2
   12ac2:	4791                	li	a5,4
   12ac4:	4589                	li	a1,2
   12ac6:	53e50513          	addi	a0,a0,1342 # 253e <.Lline_table_start1+0x2313>
   12aca:	02100693          	li	a3,33
   12ace:	4711                	li	a4,4
   12ad0:	00000073          	ecall
   12ad4:	00950463          	beq	a0,s1,12adc <_ZN20complex_dynamic_type3app17h146e1f1d799ced70E+0x5c>
   12ad8:	00f10323          	sb	a5,6(sp)
   12adc:	4609                	li	a2,2
   12ade:	00c51463          	bne	a0,a2,12ae6 <_ZN20complex_dynamic_type3app17h146e1f1d799ced70E+0x66>
   12ae2:	4785                	li	a5,1
   12ae4:	a859                	j	12b7a <_ZN20complex_dynamic_type3app17h146e1f1d799ced70E+0xfa>
   12ae6:	02814503          	lbu	a0,40(sp)
   12aea:	4785                	li	a5,1
   12aec:	02c51363          	bne	a0,a2,12b12 <_ZN20complex_dynamic_type3app17h146e1f1d799ced70E+0x92>
   12af0:	864e                	mv	a2,s3
   12af2:	6509                	lui	a0,0x2
   12af4:	45a1                	li	a1,8
   12af6:	05300693          	li	a3,83
   12afa:	470d                	li	a4,3
   12afc:	53e50513          	addi	a0,a0,1342 # 253e <.Lline_table_start1+0x2313>
   12b00:	4489                	li	s1,2
   12b02:	00000073          	ecall
   12b06:	460d                	li	a2,3
   12b08:	00951963          	bne	a0,s1,12b1a <_ZN20complex_dynamic_type3app17h146e1f1d799ced70E+0x9a>
   12b0c:	4505                	li	a0,1
   12b0e:	c911                	beqz	a0,12b22 <_ZN20complex_dynamic_type3app17h146e1f1d799ced70E+0xa2>
   12b10:	a0ad                	j	12b7a <_ZN20complex_dynamic_type3app17h146e1f1d799ced70E+0xfa>
   12b12:	458d                	li	a1,3
   12b14:	4505                	li	a0,1
   12b16:	c511                	beqz	a0,12b22 <_ZN20complex_dynamic_type3app17h146e1f1d799ced70E+0xa2>
   12b18:	a08d                	j	12b7a <_ZN20complex_dynamic_type3app17h146e1f1d799ced70E+0xfa>
   12b1a:	4501                	li	a0,0
   12b1c:	02c10423          	sb	a2,40(sp)
   12b20:	ed29                	bnez	a0,12b7a <_ZN20complex_dynamic_type3app17h146e1f1d799ced70E+0xfa>
   12b22:	4681                	li	a3,0
   12b24:	6509                	lui	a0,0x2
   12b26:	4589                	li	a1,2
   12b28:	4621                	li	a2,8
   12b2a:	4709                	li	a4,2
   12b2c:	53e50513          	addi	a0,a0,1342 # 253e <.Lline_table_start1+0x2313>
   12b30:	07f00493          	li	s1,127
   12b34:	00000073          	ecall
   12b38:	4689                	li	a3,2
   12b3a:	04a4f063          	bgeu	s1,a0,12b7a <_ZN20complex_dynamic_type3app17h146e1f1d799ced70E+0xfa>
   12b3e:	00614603          	lbu	a2,6(sp)
   12b42:	00d60a63          	beq	a2,a3,12b56 <_ZN20complex_dynamic_type3app17h146e1f1d799ced70E+0xd6>
   12b46:	6509                	lui	a0,0x2
   12b48:	53e50513          	addi	a0,a0,1342 # 253e <.Lline_table_start1+0x2313>
   12b4c:	4589                	li	a1,2
   12b4e:	0000d097          	auipc	ra,0xd
   12b52:	056080e7          	jalr	86(ra) # 1fba4 <_ZN9allow_pin12dynamic_type7unshare17hb27555f71d22f3b2E>
   12b56:	02814603          	lbu	a2,40(sp)
   12b5a:	4409                	li	s0,2
   12b5c:	00810323          	sb	s0,6(sp)
   12b60:	00860a63          	beq	a2,s0,12b74 <_ZN20complex_dynamic_type3app17h146e1f1d799ced70E+0xf4>
   12b64:	6509                	lui	a0,0x2
   12b66:	53e50513          	addi	a0,a0,1342 # 253e <.Lline_table_start1+0x2313>
   12b6a:	45a1                	li	a1,8
   12b6c:	0000d097          	auipc	ra,0xd
   12b70:	038080e7          	jalr	56(ra) # 1fba4 <_ZN9allow_pin12dynamic_type7unshare17hb27555f71d22f3b2E>
   12b74:	4781                	li	a5,0
   12b76:	02810423          	sb	s0,40(sp)
   12b7a:	cb85                	beqz	a5,12baa <_ZN20complex_dynamic_type3app17h146e1f1d799ced70E+0x12a>
   12b7c:	02814603          	lbu	a2,40(sp)
   12b80:	4505                	li	a0,1
   12b82:	4409                	li	s0,2
   12b84:	00a90023          	sb	a0,0(s2)
   12b88:	00b92223          	sw	a1,4(s2)
   12b8c:	00860a63          	beq	a2,s0,12ba0 <_ZN20complex_dynamic_type3app17h146e1f1d799ced70E+0x120>
   12b90:	6509                	lui	a0,0x2
   12b92:	53e50513          	addi	a0,a0,1342 # 253e <.Lline_table_start1+0x2313>
   12b96:	45a1                	li	a1,8
   12b98:	0000d097          	auipc	ra,0xd
   12b9c:	00c080e7          	jalr	12(ra) # 1fba4 <_ZN9allow_pin12dynamic_type7unshare17hb27555f71d22f3b2E>
   12ba0:	00614603          	lbu	a2,6(sp)
   12ba4:	04861763          	bne	a2,s0,12bf2 <_ZN20complex_dynamic_type3app17h146e1f1d799ced70E+0x172>
   12ba8:	a8a9                	j	12c02 <_ZN20complex_dynamic_type3app17h146e1f1d799ced70E+0x182>
   12baa:	02814403          	lbu	s0,40(sp)
   12bae:	4489                	li	s1,2
   12bb0:	00940663          	beq	s0,s1,12bbc <_ZN20complex_dynamic_type3app17h146e1f1d799ced70E+0x13c>
   12bb4:	000119b7          	lui	s3,0x11
   12bb8:	9b198993          	addi	s3,s3,-1615 # 109b1 <.Lanon.49c9f8067fe4468184af16d7576940c9.46>
   12bbc:	00190513          	addi	a0,s2,1
   12bc0:	05300613          	li	a2,83
   12bc4:	85ce                	mv	a1,s3
   12bc6:	0000d097          	auipc	ra,0xd
   12bca:	056080e7          	jalr	86(ra) # 1fc1c <memcpy>
   12bce:	00090023          	sb	zero,0(s2)
   12bd2:	00940b63          	beq	s0,s1,12be8 <_ZN20complex_dynamic_type3app17h146e1f1d799ced70E+0x168>
   12bd6:	6509                	lui	a0,0x2
   12bd8:	53e50513          	addi	a0,a0,1342 # 253e <.Lline_table_start1+0x2313>
   12bdc:	45a1                	li	a1,8
   12bde:	8622                	mv	a2,s0
   12be0:	0000d097          	auipc	ra,0xd
   12be4:	fc4080e7          	jalr	-60(ra) # 1fba4 <_ZN9allow_pin12dynamic_type7unshare17hb27555f71d22f3b2E>
   12be8:	00614603          	lbu	a2,6(sp)
   12bec:	4509                	li	a0,2
   12bee:	00a60a63          	beq	a2,a0,12c02 <_ZN20complex_dynamic_type3app17h146e1f1d799ced70E+0x182>
   12bf2:	6509                	lui	a0,0x2
   12bf4:	53e50513          	addi	a0,a0,1342 # 253e <.Lline_table_start1+0x2313>
   12bf8:	4589                	li	a1,2
   12bfa:	0000d097          	auipc	ra,0xd
   12bfe:	faa080e7          	jalr	-86(ra) # 1fba4 <_ZN9allow_pin12dynamic_type7unshare17hb27555f71d22f3b2E>
   12c02:	40ba                	lw	ra,140(sp)
   12c04:	442a                	lw	s0,136(sp)
   12c06:	449a                	lw	s1,132(sp)
   12c08:	490a                	lw	s2,128(sp)
   12c0a:	59f6                	lw	s3,124(sp)
   12c0c:	6149                	addi	sp,sp,144
   12c0e:	8082                	ret

00012c10 <_ZN20complex_dynamic_type3app17h1680cbffe1393846E>:
   12c10:	7159                	addi	sp,sp,-112
   12c12:	d686                	sw	ra,108(sp)
   12c14:	d4a2                	sw	s0,104(sp)
   12c16:	d2a6                	sw	s1,100(sp)
   12c18:	d0ca                	sw	s2,96(sp)
   12c1a:	cece                	sw	s3,92(sp)
   12c1c:	892a                	mv	s2,a0
   12c1e:	4489                	li	s1,2
   12c20:	009100a3          	sb	s1,1(sp)
   12c24:	00210413          	addi	s0,sp,2
   12c28:	04100613          	li	a2,65
   12c2c:	8522                	mv	a0,s0
   12c2e:	0000d097          	auipc	ra,0xd
   12c32:	fee080e7          	jalr	-18(ra) # 1fc1c <memcpy>
   12c36:	04410993          	addi	s3,sp,68
   12c3a:	4661                	li	a2,24
   12c3c:	854e                	mv	a0,s3
   12c3e:	4581                	li	a1,0
   12c40:	0000d097          	auipc	ra,0xd
   12c44:	f70080e7          	jalr	-144(ra) # 1fbb0 <memset>
   12c48:	8622                	mv	a2,s0
   12c4a:	049101a3          	sb	s1,67(sp)
   12c4e:	6509                	lui	a0,0x2
   12c50:	4791                	li	a5,4
   12c52:	4585                	li	a1,1
   12c54:	15650513          	addi	a0,a0,342 # 2156 <.Lline_table_start1+0x1f2b>
   12c58:	04100693          	li	a3,65
   12c5c:	4711                	li	a4,4
   12c5e:	00000073          	ecall
   12c62:	00950463          	beq	a0,s1,12c6a <_ZN20complex_dynamic_type3app17h1680cbffe1393846E+0x5a>
   12c66:	00f100a3          	sb	a5,1(sp)
   12c6a:	4609                	li	a2,2
   12c6c:	00c51463          	bne	a0,a2,12c74 <_ZN20complex_dynamic_type3app17h1680cbffe1393846E+0x64>
   12c70:	4785                	li	a5,1
   12c72:	a859                	j	12d08 <_ZN20complex_dynamic_type3app17h1680cbffe1393846E+0xf8>
   12c74:	04314503          	lbu	a0,67(sp)
   12c78:	4785                	li	a5,1
   12c7a:	02c51263          	bne	a0,a2,12c9e <_ZN20complex_dynamic_type3app17h1680cbffe1393846E+0x8e>
   12c7e:	864e                	mv	a2,s3
   12c80:	6509                	lui	a0,0x2
   12c82:	45a5                	li	a1,9
   12c84:	46e1                	li	a3,24
   12c86:	470d                	li	a4,3
   12c88:	15650513          	addi	a0,a0,342 # 2156 <.Lline_table_start1+0x1f2b>
   12c8c:	4489                	li	s1,2
   12c8e:	00000073          	ecall
   12c92:	460d                	li	a2,3
   12c94:	00951963          	bne	a0,s1,12ca6 <_ZN20complex_dynamic_type3app17h1680cbffe1393846E+0x96>
   12c98:	4505                	li	a0,1
   12c9a:	c911                	beqz	a0,12cae <_ZN20complex_dynamic_type3app17h1680cbffe1393846E+0x9e>
   12c9c:	a0b5                	j	12d08 <_ZN20complex_dynamic_type3app17h1680cbffe1393846E+0xf8>
   12c9e:	458d                	li	a1,3
   12ca0:	4505                	li	a0,1
   12ca2:	c511                	beqz	a0,12cae <_ZN20complex_dynamic_type3app17h1680cbffe1393846E+0x9e>
   12ca4:	a095                	j	12d08 <_ZN20complex_dynamic_type3app17h1680cbffe1393846E+0xf8>
   12ca6:	4501                	li	a0,0
   12ca8:	04c101a3          	sb	a2,67(sp)
   12cac:	ed31                	bnez	a0,12d08 <_ZN20complex_dynamic_type3app17h1680cbffe1393846E+0xf8>
   12cae:	4681                	li	a3,0
   12cb0:	6509                	lui	a0,0x2
   12cb2:	4785                	li	a5,1
   12cb4:	4585                	li	a1,1
   12cb6:	4625                	li	a2,9
   12cb8:	4709                	li	a4,2
   12cba:	15650513          	addi	a0,a0,342 # 2156 <.Lline_table_start1+0x1f2b>
   12cbe:	07f00493          	li	s1,127
   12cc2:	00000073          	ecall
   12cc6:	4689                	li	a3,2
   12cc8:	04a4f063          	bgeu	s1,a0,12d08 <_ZN20complex_dynamic_type3app17h1680cbffe1393846E+0xf8>
   12ccc:	00114603          	lbu	a2,1(sp)
   12cd0:	00d60a63          	beq	a2,a3,12ce4 <_ZN20complex_dynamic_type3app17h1680cbffe1393846E+0xd4>
   12cd4:	6509                	lui	a0,0x2
   12cd6:	15650513          	addi	a0,a0,342 # 2156 <.Lline_table_start1+0x1f2b>
   12cda:	4585                	li	a1,1
   12cdc:	0000d097          	auipc	ra,0xd
   12ce0:	ec8080e7          	jalr	-312(ra) # 1fba4 <_ZN9allow_pin12dynamic_type7unshare17hb27555f71d22f3b2E>
   12ce4:	04314603          	lbu	a2,67(sp)
   12ce8:	4409                	li	s0,2
   12cea:	008100a3          	sb	s0,1(sp)
   12cee:	00860a63          	beq	a2,s0,12d02 <_ZN20complex_dynamic_type3app17h1680cbffe1393846E+0xf2>
   12cf2:	6509                	lui	a0,0x2
   12cf4:	15650513          	addi	a0,a0,342 # 2156 <.Lline_table_start1+0x1f2b>
   12cf8:	45a5                	li	a1,9
   12cfa:	0000d097          	auipc	ra,0xd
   12cfe:	eaa080e7          	jalr	-342(ra) # 1fba4 <_ZN9allow_pin12dynamic_type7unshare17hb27555f71d22f3b2E>
   12d02:	4781                	li	a5,0
   12d04:	048101a3          	sb	s0,67(sp)
   12d08:	cb85                	beqz	a5,12d38 <_ZN20complex_dynamic_type3app17h1680cbffe1393846E+0x128>
   12d0a:	04314603          	lbu	a2,67(sp)
   12d0e:	4505                	li	a0,1
   12d10:	4409                	li	s0,2
   12d12:	00a90023          	sb	a0,0(s2)
   12d16:	00b92223          	sw	a1,4(s2)
   12d1a:	00860a63          	beq	a2,s0,12d2e <_ZN20complex_dynamic_type3app17h1680cbffe1393846E+0x11e>
   12d1e:	6509                	lui	a0,0x2
   12d20:	15650513          	addi	a0,a0,342 # 2156 <.Lline_table_start1+0x1f2b>
   12d24:	45a5                	li	a1,9
   12d26:	0000d097          	auipc	ra,0xd
   12d2a:	e7e080e7          	jalr	-386(ra) # 1fba4 <_ZN9allow_pin12dynamic_type7unshare17hb27555f71d22f3b2E>
   12d2e:	00114603          	lbu	a2,1(sp)
   12d32:	04861663          	bne	a2,s0,12d7e <_ZN20complex_dynamic_type3app17h1680cbffe1393846E+0x16e>
   12d36:	a8a1                	j	12d8e <_ZN20complex_dynamic_type3app17h1680cbffe1393846E+0x17e>
   12d38:	04314403          	lbu	s0,67(sp)
   12d3c:	4489                	li	s1,2
   12d3e:	00940663          	beq	s0,s1,12d4a <_ZN20complex_dynamic_type3app17h1680cbffe1393846E+0x13a>
   12d42:	000119b7          	lui	s3,0x11
   12d46:	86698993          	addi	s3,s3,-1946 # 10866 <.Lanon.49c9f8067fe4468184af16d7576940c9.39>
   12d4a:	00190513          	addi	a0,s2,1
   12d4e:	4661                	li	a2,24
   12d50:	85ce                	mv	a1,s3
   12d52:	0000d097          	auipc	ra,0xd
   12d56:	eca080e7          	jalr	-310(ra) # 1fc1c <memcpy>
   12d5a:	00090023          	sb	zero,0(s2)
   12d5e:	00940b63          	beq	s0,s1,12d74 <_ZN20complex_dynamic_type3app17h1680cbffe1393846E+0x164>
   12d62:	6509                	lui	a0,0x2
   12d64:	15650513          	addi	a0,a0,342 # 2156 <.Lline_table_start1+0x1f2b>
   12d68:	45a5                	li	a1,9
   12d6a:	8622                	mv	a2,s0
   12d6c:	0000d097          	auipc	ra,0xd
   12d70:	e38080e7          	jalr	-456(ra) # 1fba4 <_ZN9allow_pin12dynamic_type7unshare17hb27555f71d22f3b2E>
   12d74:	00114603          	lbu	a2,1(sp)
   12d78:	4509                	li	a0,2
   12d7a:	00a60a63          	beq	a2,a0,12d8e <_ZN20complex_dynamic_type3app17h1680cbffe1393846E+0x17e>
   12d7e:	6509                	lui	a0,0x2
   12d80:	15650513          	addi	a0,a0,342 # 2156 <.Lline_table_start1+0x1f2b>
   12d84:	4585                	li	a1,1
   12d86:	0000d097          	auipc	ra,0xd
   12d8a:	e1e080e7          	jalr	-482(ra) # 1fba4 <_ZN9allow_pin12dynamic_type7unshare17hb27555f71d22f3b2E>
   12d8e:	50b6                	lw	ra,108(sp)
   12d90:	5426                	lw	s0,104(sp)
   12d92:	5496                	lw	s1,100(sp)
   12d94:	5906                	lw	s2,96(sp)
   12d96:	49f6                	lw	s3,92(sp)
   12d98:	6165                	addi	sp,sp,112
   12d9a:	8082                	ret

00012d9c <_ZN20complex_dynamic_type3app17h1903272f4d250910E>:
   12d9c:	7175                	addi	sp,sp,-144
   12d9e:	c706                	sw	ra,140(sp)
   12da0:	c522                	sw	s0,136(sp)
   12da2:	c326                	sw	s1,132(sp)
   12da4:	c14a                	sw	s2,128(sp)
   12da6:	dece                	sw	s3,124(sp)
   12da8:	892a                	mv	s2,a0
   12daa:	4489                	li	s1,2
   12dac:	009104a3          	sb	s1,9(sp)
   12db0:	00a10413          	addi	s0,sp,10
   12db4:	04000613          	li	a2,64
   12db8:	8522                	mv	a0,s0
   12dba:	0000d097          	auipc	ra,0xd
   12dbe:	e62080e7          	jalr	-414(ra) # 1fc1c <memcpy>
   12dc2:	04b10993          	addi	s3,sp,75
   12dc6:	03100613          	li	a2,49
   12dca:	854e                	mv	a0,s3
   12dcc:	4581                	li	a1,0
   12dce:	0000d097          	auipc	ra,0xd
   12dd2:	de2080e7          	jalr	-542(ra) # 1fbb0 <memset>
   12dd6:	8622                	mv	a2,s0
   12dd8:	04910523          	sb	s1,74(sp)
   12ddc:	6505                	lui	a0,0x1
   12dde:	4791                	li	a5,4
   12de0:	45a1                	li	a1,8
   12de2:	fce50513          	addi	a0,a0,-50 # fce <.Lline_table_start1+0xda3>
   12de6:	04000693          	li	a3,64
   12dea:	4711                	li	a4,4
   12dec:	00000073          	ecall
   12df0:	00950463          	beq	a0,s1,12df8 <_ZN20complex_dynamic_type3app17h1903272f4d250910E+0x5c>
   12df4:	00f104a3          	sb	a5,9(sp)
   12df8:	4609                	li	a2,2
   12dfa:	00c51463          	bne	a0,a2,12e02 <_ZN20complex_dynamic_type3app17h1903272f4d250910E+0x66>
   12dfe:	4785                	li	a5,1
   12e00:	a859                	j	12e96 <_ZN20complex_dynamic_type3app17h1903272f4d250910E+0xfa>
   12e02:	04a14503          	lbu	a0,74(sp)
   12e06:	4785                	li	a5,1
   12e08:	02c51363          	bne	a0,a2,12e2e <_ZN20complex_dynamic_type3app17h1903272f4d250910E+0x92>
   12e0c:	864e                	mv	a2,s3
   12e0e:	6505                	lui	a0,0x1
   12e10:	4595                	li	a1,5
   12e12:	03100693          	li	a3,49
   12e16:	470d                	li	a4,3
   12e18:	fce50513          	addi	a0,a0,-50 # fce <.Lline_table_start1+0xda3>
   12e1c:	4489                	li	s1,2
   12e1e:	00000073          	ecall
   12e22:	460d                	li	a2,3
   12e24:	00951963          	bne	a0,s1,12e36 <_ZN20complex_dynamic_type3app17h1903272f4d250910E+0x9a>
   12e28:	4505                	li	a0,1
   12e2a:	c911                	beqz	a0,12e3e <_ZN20complex_dynamic_type3app17h1903272f4d250910E+0xa2>
   12e2c:	a0ad                	j	12e96 <_ZN20complex_dynamic_type3app17h1903272f4d250910E+0xfa>
   12e2e:	458d                	li	a1,3
   12e30:	4505                	li	a0,1
   12e32:	c511                	beqz	a0,12e3e <_ZN20complex_dynamic_type3app17h1903272f4d250910E+0xa2>
   12e34:	a08d                	j	12e96 <_ZN20complex_dynamic_type3app17h1903272f4d250910E+0xfa>
   12e36:	4501                	li	a0,0
   12e38:	04c10523          	sb	a2,74(sp)
   12e3c:	ed29                	bnez	a0,12e96 <_ZN20complex_dynamic_type3app17h1903272f4d250910E+0xfa>
   12e3e:	4681                	li	a3,0
   12e40:	6505                	lui	a0,0x1
   12e42:	45a1                	li	a1,8
   12e44:	4615                	li	a2,5
   12e46:	4709                	li	a4,2
   12e48:	fce50513          	addi	a0,a0,-50 # fce <.Lline_table_start1+0xda3>
   12e4c:	07f00493          	li	s1,127
   12e50:	00000073          	ecall
   12e54:	4689                	li	a3,2
   12e56:	04a4f063          	bgeu	s1,a0,12e96 <_ZN20complex_dynamic_type3app17h1903272f4d250910E+0xfa>
   12e5a:	00914603          	lbu	a2,9(sp)
   12e5e:	00d60a63          	beq	a2,a3,12e72 <_ZN20complex_dynamic_type3app17h1903272f4d250910E+0xd6>
   12e62:	6505                	lui	a0,0x1
   12e64:	fce50513          	addi	a0,a0,-50 # fce <.Lline_table_start1+0xda3>
   12e68:	45a1                	li	a1,8
   12e6a:	0000d097          	auipc	ra,0xd
   12e6e:	d3a080e7          	jalr	-710(ra) # 1fba4 <_ZN9allow_pin12dynamic_type7unshare17hb27555f71d22f3b2E>
   12e72:	04a14603          	lbu	a2,74(sp)
   12e76:	4409                	li	s0,2
   12e78:	008104a3          	sb	s0,9(sp)
   12e7c:	00860a63          	beq	a2,s0,12e90 <_ZN20complex_dynamic_type3app17h1903272f4d250910E+0xf4>
   12e80:	6505                	lui	a0,0x1
   12e82:	fce50513          	addi	a0,a0,-50 # fce <.Lline_table_start1+0xda3>
   12e86:	4595                	li	a1,5
   12e88:	0000d097          	auipc	ra,0xd
   12e8c:	d1c080e7          	jalr	-740(ra) # 1fba4 <_ZN9allow_pin12dynamic_type7unshare17hb27555f71d22f3b2E>
   12e90:	4781                	li	a5,0
   12e92:	04810523          	sb	s0,74(sp)
   12e96:	cb85                	beqz	a5,12ec6 <_ZN20complex_dynamic_type3app17h1903272f4d250910E+0x12a>
   12e98:	04a14603          	lbu	a2,74(sp)
   12e9c:	4505                	li	a0,1
   12e9e:	4409                	li	s0,2
   12ea0:	00a90023          	sb	a0,0(s2)
   12ea4:	00b92223          	sw	a1,4(s2)
   12ea8:	00860a63          	beq	a2,s0,12ebc <_ZN20complex_dynamic_type3app17h1903272f4d250910E+0x120>
   12eac:	6505                	lui	a0,0x1
   12eae:	fce50513          	addi	a0,a0,-50 # fce <.Lline_table_start1+0xda3>
   12eb2:	4595                	li	a1,5
   12eb4:	0000d097          	auipc	ra,0xd
   12eb8:	cf0080e7          	jalr	-784(ra) # 1fba4 <_ZN9allow_pin12dynamic_type7unshare17hb27555f71d22f3b2E>
   12ebc:	00914603          	lbu	a2,9(sp)
   12ec0:	04861763          	bne	a2,s0,12f0e <_ZN20complex_dynamic_type3app17h1903272f4d250910E+0x172>
   12ec4:	a8a9                	j	12f1e <_ZN20complex_dynamic_type3app17h1903272f4d250910E+0x182>
   12ec6:	04a14403          	lbu	s0,74(sp)
   12eca:	4489                	li	s1,2
   12ecc:	00940663          	beq	s0,s1,12ed8 <_ZN20complex_dynamic_type3app17h1903272f4d250910E+0x13c>
   12ed0:	000119b7          	lui	s3,0x11
   12ed4:	a0498993          	addi	s3,s3,-1532 # 10a04 <.Lanon.49c9f8067fe4468184af16d7576940c9.47>
   12ed8:	00190513          	addi	a0,s2,1
   12edc:	03100613          	li	a2,49
   12ee0:	85ce                	mv	a1,s3
   12ee2:	0000d097          	auipc	ra,0xd
   12ee6:	d3a080e7          	jalr	-710(ra) # 1fc1c <memcpy>
   12eea:	00090023          	sb	zero,0(s2)
   12eee:	00940b63          	beq	s0,s1,12f04 <_ZN20complex_dynamic_type3app17h1903272f4d250910E+0x168>
   12ef2:	6505                	lui	a0,0x1
   12ef4:	fce50513          	addi	a0,a0,-50 # fce <.Lline_table_start1+0xda3>
   12ef8:	4595                	li	a1,5
   12efa:	8622                	mv	a2,s0
   12efc:	0000d097          	auipc	ra,0xd
   12f00:	ca8080e7          	jalr	-856(ra) # 1fba4 <_ZN9allow_pin12dynamic_type7unshare17hb27555f71d22f3b2E>
   12f04:	00914603          	lbu	a2,9(sp)
   12f08:	4509                	li	a0,2
   12f0a:	00a60a63          	beq	a2,a0,12f1e <_ZN20complex_dynamic_type3app17h1903272f4d250910E+0x182>
   12f0e:	6505                	lui	a0,0x1
   12f10:	fce50513          	addi	a0,a0,-50 # fce <.Lline_table_start1+0xda3>
   12f14:	45a1                	li	a1,8
   12f16:	0000d097          	auipc	ra,0xd
   12f1a:	c8e080e7          	jalr	-882(ra) # 1fba4 <_ZN9allow_pin12dynamic_type7unshare17hb27555f71d22f3b2E>
   12f1e:	40ba                	lw	ra,140(sp)
   12f20:	442a                	lw	s0,136(sp)
   12f22:	449a                	lw	s1,132(sp)
   12f24:	490a                	lw	s2,128(sp)
   12f26:	59f6                	lw	s3,124(sp)
   12f28:	6149                	addi	sp,sp,144
   12f2a:	8082                	ret

00012f2c <_ZN20complex_dynamic_type3app17h1a72a712b561e71aE>:
   12f2c:	715d                	addi	sp,sp,-80
   12f2e:	c686                	sw	ra,76(sp)
   12f30:	c4a2                	sw	s0,72(sp)
   12f32:	c2a6                	sw	s1,68(sp)
   12f34:	c0ca                	sw	s2,64(sp)
   12f36:	de4e                	sw	s3,60(sp)
   12f38:	892a                	mv	s2,a0
   12f3a:	4489                	li	s1,2
   12f3c:	00910323          	sb	s1,6(sp)
   12f40:	00710413          	addi	s0,sp,7
   12f44:	463d                	li	a2,15
   12f46:	8522                	mv	a0,s0
   12f48:	0000d097          	auipc	ra,0xd
   12f4c:	cd4080e7          	jalr	-812(ra) # 1fc1c <memcpy>
   12f50:	01710993          	addi	s3,sp,23
   12f54:	02500613          	li	a2,37
   12f58:	854e                	mv	a0,s3
   12f5a:	4581                	li	a1,0
   12f5c:	0000d097          	auipc	ra,0xd
   12f60:	c54080e7          	jalr	-940(ra) # 1fbb0 <memset>
   12f64:	8622                	mv	a2,s0
   12f66:	00910b23          	sb	s1,22(sp)
   12f6a:	4791                	li	a5,4
   12f6c:	0a200513          	li	a0,162
   12f70:	45a1                	li	a1,8
   12f72:	46bd                	li	a3,15
   12f74:	4711                	li	a4,4
   12f76:	00000073          	ecall
   12f7a:	00950463          	beq	a0,s1,12f82 <_ZN20complex_dynamic_type3app17h1a72a712b561e71aE+0x56>
   12f7e:	00f10323          	sb	a5,6(sp)
   12f82:	4609                	li	a2,2
   12f84:	00c51463          	bne	a0,a2,12f8c <_ZN20complex_dynamic_type3app17h1a72a712b561e71aE+0x60>
   12f88:	4785                	li	a5,1
   12f8a:	a079                	j	13018 <_ZN20complex_dynamic_type3app17h1a72a712b561e71aE+0xec>
   12f8c:	01614503          	lbu	a0,22(sp)
   12f90:	4785                	li	a5,1
   12f92:	02c51263          	bne	a0,a2,12fb6 <_ZN20complex_dynamic_type3app17h1a72a712b561e71aE+0x8a>
   12f96:	4581                	li	a1,0
   12f98:	864e                	mv	a2,s3
   12f9a:	0a200513          	li	a0,162
   12f9e:	02500693          	li	a3,37
   12fa2:	470d                	li	a4,3
   12fa4:	4489                	li	s1,2
   12fa6:	00000073          	ecall
   12faa:	460d                	li	a2,3
   12fac:	00951963          	bne	a0,s1,12fbe <_ZN20complex_dynamic_type3app17h1a72a712b561e71aE+0x92>
   12fb0:	4505                	li	a0,1
   12fb2:	c911                	beqz	a0,12fc6 <_ZN20complex_dynamic_type3app17h1a72a712b561e71aE+0x9a>
   12fb4:	a095                	j	13018 <_ZN20complex_dynamic_type3app17h1a72a712b561e71aE+0xec>
   12fb6:	458d                	li	a1,3
   12fb8:	4505                	li	a0,1
   12fba:	c511                	beqz	a0,12fc6 <_ZN20complex_dynamic_type3app17h1a72a712b561e71aE+0x9a>
   12fbc:	a8b1                	j	13018 <_ZN20complex_dynamic_type3app17h1a72a712b561e71aE+0xec>
   12fbe:	4501                	li	a0,0
   12fc0:	00c10b23          	sb	a2,22(sp)
   12fc4:	e931                	bnez	a0,13018 <_ZN20complex_dynamic_type3app17h1a72a712b561e71aE+0xec>
   12fc6:	4601                	li	a2,0
   12fc8:	4681                	li	a3,0
   12fca:	0a200513          	li	a0,162
   12fce:	45a1                	li	a1,8
   12fd0:	4709                	li	a4,2
   12fd2:	07f00493          	li	s1,127
   12fd6:	00000073          	ecall
   12fda:	4689                	li	a3,2
   12fdc:	02a4fe63          	bgeu	s1,a0,13018 <_ZN20complex_dynamic_type3app17h1a72a712b561e71aE+0xec>
   12fe0:	00614603          	lbu	a2,6(sp)
   12fe4:	00d60963          	beq	a2,a3,12ff6 <_ZN20complex_dynamic_type3app17h1a72a712b561e71aE+0xca>
   12fe8:	0a200513          	li	a0,162
   12fec:	45a1                	li	a1,8
   12fee:	0000d097          	auipc	ra,0xd
   12ff2:	bb6080e7          	jalr	-1098(ra) # 1fba4 <_ZN9allow_pin12dynamic_type7unshare17hb27555f71d22f3b2E>
   12ff6:	01614603          	lbu	a2,22(sp)
   12ffa:	4409                	li	s0,2
   12ffc:	00810323          	sb	s0,6(sp)
   13000:	00860963          	beq	a2,s0,13012 <_ZN20complex_dynamic_type3app17h1a72a712b561e71aE+0xe6>
   13004:	0a200513          	li	a0,162
   13008:	4581                	li	a1,0
   1300a:	0000d097          	auipc	ra,0xd
   1300e:	b9a080e7          	jalr	-1126(ra) # 1fba4 <_ZN9allow_pin12dynamic_type7unshare17hb27555f71d22f3b2E>
   13012:	4781                	li	a5,0
   13014:	00810b23          	sb	s0,22(sp)
   13018:	c79d                	beqz	a5,13046 <_ZN20complex_dynamic_type3app17h1a72a712b561e71aE+0x11a>
   1301a:	01614603          	lbu	a2,22(sp)
   1301e:	4505                	li	a0,1
   13020:	4409                	li	s0,2
   13022:	00a90023          	sb	a0,0(s2)
   13026:	00b92223          	sw	a1,4(s2)
   1302a:	00860963          	beq	a2,s0,1303c <_ZN20complex_dynamic_type3app17h1a72a712b561e71aE+0x110>
   1302e:	0a200513          	li	a0,162
   13032:	4581                	li	a1,0
   13034:	0000d097          	auipc	ra,0xd
   13038:	b70080e7          	jalr	-1168(ra) # 1fba4 <_ZN9allow_pin12dynamic_type7unshare17hb27555f71d22f3b2E>
   1303c:	00614603          	lbu	a2,6(sp)
   13040:	04861663          	bne	a2,s0,1308c <_ZN20complex_dynamic_type3app17h1a72a712b561e71aE+0x160>
   13044:	a899                	j	1309a <_ZN20complex_dynamic_type3app17h1a72a712b561e71aE+0x16e>
   13046:	01614403          	lbu	s0,22(sp)
   1304a:	4489                	li	s1,2
   1304c:	00940663          	beq	s0,s1,13058 <_ZN20complex_dynamic_type3app17h1a72a712b561e71aE+0x12c>
   13050:	000109b7          	lui	s3,0x10
   13054:	47598993          	addi	s3,s3,1141 # 10475 <.Lanon.49c9f8067fe4468184af16d7576940c9.19>
   13058:	00190513          	addi	a0,s2,1
   1305c:	02500613          	li	a2,37
   13060:	85ce                	mv	a1,s3
   13062:	0000d097          	auipc	ra,0xd
   13066:	bba080e7          	jalr	-1094(ra) # 1fc1c <memcpy>
   1306a:	00090023          	sb	zero,0(s2)
   1306e:	00940a63          	beq	s0,s1,13082 <_ZN20complex_dynamic_type3app17h1a72a712b561e71aE+0x156>
   13072:	0a200513          	li	a0,162
   13076:	4581                	li	a1,0
   13078:	8622                	mv	a2,s0
   1307a:	0000d097          	auipc	ra,0xd
   1307e:	b2a080e7          	jalr	-1238(ra) # 1fba4 <_ZN9allow_pin12dynamic_type7unshare17hb27555f71d22f3b2E>
   13082:	00614603          	lbu	a2,6(sp)
   13086:	4509                	li	a0,2
   13088:	00a60963          	beq	a2,a0,1309a <_ZN20complex_dynamic_type3app17h1a72a712b561e71aE+0x16e>
   1308c:	0a200513          	li	a0,162
   13090:	45a1                	li	a1,8
   13092:	0000d097          	auipc	ra,0xd
   13096:	b12080e7          	jalr	-1262(ra) # 1fba4 <_ZN9allow_pin12dynamic_type7unshare17hb27555f71d22f3b2E>
   1309a:	40b6                	lw	ra,76(sp)
   1309c:	4426                	lw	s0,72(sp)
   1309e:	4496                	lw	s1,68(sp)
   130a0:	4906                	lw	s2,64(sp)
   130a2:	59f2                	lw	s3,60(sp)
   130a4:	6161                	addi	sp,sp,80
   130a6:	8082                	ret

000130a8 <_ZN20complex_dynamic_type3app17h1c1f24395003ab34E>:
   130a8:	7119                	addi	sp,sp,-128
   130aa:	de86                	sw	ra,124(sp)
   130ac:	dca2                	sw	s0,120(sp)
   130ae:	daa6                	sw	s1,116(sp)
   130b0:	d8ca                	sw	s2,112(sp)
   130b2:	d6ce                	sw	s3,108(sp)
   130b4:	892a                	mv	s2,a0
   130b6:	4489                	li	s1,2
   130b8:	009104a3          	sb	s1,9(sp)
   130bc:	00a10413          	addi	s0,sp,10
   130c0:	4645                	li	a2,17
   130c2:	8522                	mv	a0,s0
   130c4:	0000d097          	auipc	ra,0xd
   130c8:	b58080e7          	jalr	-1192(ra) # 1fc1c <memcpy>
   130cc:	01c10993          	addi	s3,sp,28
   130d0:	05000613          	li	a2,80
   130d4:	854e                	mv	a0,s3
   130d6:	4581                	li	a1,0
   130d8:	0000d097          	auipc	ra,0xd
   130dc:	ad8080e7          	jalr	-1320(ra) # 1fbb0 <memset>
   130e0:	8622                	mv	a2,s0
   130e2:	00910da3          	sb	s1,27(sp)
   130e6:	6509                	lui	a0,0x2
   130e8:	4791                	li	a5,4
   130ea:	4599                	li	a1,6
   130ec:	aa950513          	addi	a0,a0,-1367 # 1aa9 <.Lline_table_start1+0x187e>
   130f0:	46c5                	li	a3,17
   130f2:	4711                	li	a4,4
   130f4:	00000073          	ecall
   130f8:	00950463          	beq	a0,s1,13100 <_ZN20complex_dynamic_type3app17h1c1f24395003ab34E+0x58>
   130fc:	00f104a3          	sb	a5,9(sp)
   13100:	4609                	li	a2,2
   13102:	00c51463          	bne	a0,a2,1310a <_ZN20complex_dynamic_type3app17h1c1f24395003ab34E+0x62>
   13106:	4785                	li	a5,1
   13108:	a859                	j	1319e <_ZN20complex_dynamic_type3app17h1c1f24395003ab34E+0xf6>
   1310a:	01b14503          	lbu	a0,27(sp)
   1310e:	4785                	li	a5,1
   13110:	02c51363          	bne	a0,a2,13136 <_ZN20complex_dynamic_type3app17h1c1f24395003ab34E+0x8e>
   13114:	864e                	mv	a2,s3
   13116:	6509                	lui	a0,0x2
   13118:	4595                	li	a1,5
   1311a:	05000693          	li	a3,80
   1311e:	470d                	li	a4,3
   13120:	aa950513          	addi	a0,a0,-1367 # 1aa9 <.Lline_table_start1+0x187e>
   13124:	4489                	li	s1,2
   13126:	00000073          	ecall
   1312a:	460d                	li	a2,3
   1312c:	00951963          	bne	a0,s1,1313e <_ZN20complex_dynamic_type3app17h1c1f24395003ab34E+0x96>
   13130:	4505                	li	a0,1
   13132:	c911                	beqz	a0,13146 <_ZN20complex_dynamic_type3app17h1c1f24395003ab34E+0x9e>
   13134:	a0ad                	j	1319e <_ZN20complex_dynamic_type3app17h1c1f24395003ab34E+0xf6>
   13136:	458d                	li	a1,3
   13138:	4505                	li	a0,1
   1313a:	c511                	beqz	a0,13146 <_ZN20complex_dynamic_type3app17h1c1f24395003ab34E+0x9e>
   1313c:	a08d                	j	1319e <_ZN20complex_dynamic_type3app17h1c1f24395003ab34E+0xf6>
   1313e:	4501                	li	a0,0
   13140:	00c10da3          	sb	a2,27(sp)
   13144:	ed29                	bnez	a0,1319e <_ZN20complex_dynamic_type3app17h1c1f24395003ab34E+0xf6>
   13146:	4681                	li	a3,0
   13148:	6509                	lui	a0,0x2
   1314a:	4599                	li	a1,6
   1314c:	4615                	li	a2,5
   1314e:	4709                	li	a4,2
   13150:	aa950513          	addi	a0,a0,-1367 # 1aa9 <.Lline_table_start1+0x187e>
   13154:	07f00493          	li	s1,127
   13158:	00000073          	ecall
   1315c:	4689                	li	a3,2
   1315e:	04a4f063          	bgeu	s1,a0,1319e <_ZN20complex_dynamic_type3app17h1c1f24395003ab34E+0xf6>
   13162:	00914603          	lbu	a2,9(sp)
   13166:	00d60a63          	beq	a2,a3,1317a <_ZN20complex_dynamic_type3app17h1c1f24395003ab34E+0xd2>
   1316a:	6509                	lui	a0,0x2
   1316c:	aa950513          	addi	a0,a0,-1367 # 1aa9 <.Lline_table_start1+0x187e>
   13170:	4599                	li	a1,6
   13172:	0000d097          	auipc	ra,0xd
   13176:	a32080e7          	jalr	-1486(ra) # 1fba4 <_ZN9allow_pin12dynamic_type7unshare17hb27555f71d22f3b2E>
   1317a:	01b14603          	lbu	a2,27(sp)
   1317e:	4409                	li	s0,2
   13180:	008104a3          	sb	s0,9(sp)
   13184:	00860a63          	beq	a2,s0,13198 <_ZN20complex_dynamic_type3app17h1c1f24395003ab34E+0xf0>
   13188:	6509                	lui	a0,0x2
   1318a:	aa950513          	addi	a0,a0,-1367 # 1aa9 <.Lline_table_start1+0x187e>
   1318e:	4595                	li	a1,5
   13190:	0000d097          	auipc	ra,0xd
   13194:	a14080e7          	jalr	-1516(ra) # 1fba4 <_ZN9allow_pin12dynamic_type7unshare17hb27555f71d22f3b2E>
   13198:	4781                	li	a5,0
   1319a:	00810da3          	sb	s0,27(sp)
   1319e:	cb85                	beqz	a5,131ce <_ZN20complex_dynamic_type3app17h1c1f24395003ab34E+0x126>
   131a0:	01b14603          	lbu	a2,27(sp)
   131a4:	4505                	li	a0,1
   131a6:	4409                	li	s0,2
   131a8:	00a90023          	sb	a0,0(s2)
   131ac:	00b92223          	sw	a1,4(s2)
   131b0:	00860a63          	beq	a2,s0,131c4 <_ZN20complex_dynamic_type3app17h1c1f24395003ab34E+0x11c>
   131b4:	6509                	lui	a0,0x2
   131b6:	aa950513          	addi	a0,a0,-1367 # 1aa9 <.Lline_table_start1+0x187e>
   131ba:	4595                	li	a1,5
   131bc:	0000d097          	auipc	ra,0xd
   131c0:	9e8080e7          	jalr	-1560(ra) # 1fba4 <_ZN9allow_pin12dynamic_type7unshare17hb27555f71d22f3b2E>
   131c4:	00914603          	lbu	a2,9(sp)
   131c8:	04861763          	bne	a2,s0,13216 <_ZN20complex_dynamic_type3app17h1c1f24395003ab34E+0x16e>
   131cc:	a8a9                	j	13226 <_ZN20complex_dynamic_type3app17h1c1f24395003ab34E+0x17e>
   131ce:	01b14403          	lbu	s0,27(sp)
   131d2:	4489                	li	s1,2
   131d4:	00940663          	beq	s0,s1,131e0 <_ZN20complex_dynamic_type3app17h1c1f24395003ab34E+0x138>
   131d8:	000109b7          	lui	s3,0x10
   131dc:	17b98993          	addi	s3,s3,379 # 1017b <.Lanon.49c9f8067fe4468184af16d7576940c9.5>
   131e0:	00190513          	addi	a0,s2,1
   131e4:	05000613          	li	a2,80
   131e8:	85ce                	mv	a1,s3
   131ea:	0000d097          	auipc	ra,0xd
   131ee:	a32080e7          	jalr	-1486(ra) # 1fc1c <memcpy>
   131f2:	00090023          	sb	zero,0(s2)
   131f6:	00940b63          	beq	s0,s1,1320c <_ZN20complex_dynamic_type3app17h1c1f24395003ab34E+0x164>
   131fa:	6509                	lui	a0,0x2
   131fc:	aa950513          	addi	a0,a0,-1367 # 1aa9 <.Lline_table_start1+0x187e>
   13200:	4595                	li	a1,5
   13202:	8622                	mv	a2,s0
   13204:	0000d097          	auipc	ra,0xd
   13208:	9a0080e7          	jalr	-1632(ra) # 1fba4 <_ZN9allow_pin12dynamic_type7unshare17hb27555f71d22f3b2E>
   1320c:	00914603          	lbu	a2,9(sp)
   13210:	4509                	li	a0,2
   13212:	00a60a63          	beq	a2,a0,13226 <_ZN20complex_dynamic_type3app17h1c1f24395003ab34E+0x17e>
   13216:	6509                	lui	a0,0x2
   13218:	aa950513          	addi	a0,a0,-1367 # 1aa9 <.Lline_table_start1+0x187e>
   1321c:	4599                	li	a1,6
   1321e:	0000d097          	auipc	ra,0xd
   13222:	986080e7          	jalr	-1658(ra) # 1fba4 <_ZN9allow_pin12dynamic_type7unshare17hb27555f71d22f3b2E>
   13226:	50f6                	lw	ra,124(sp)
   13228:	5466                	lw	s0,120(sp)
   1322a:	54d6                	lw	s1,116(sp)
   1322c:	5946                	lw	s2,112(sp)
   1322e:	59b6                	lw	s3,108(sp)
   13230:	6109                	addi	sp,sp,128
   13232:	8082                	ret

00013234 <_ZN20complex_dynamic_type3app17h1f21045c6dbbb6b2E>:
   13234:	7175                	addi	sp,sp,-144
   13236:	c706                	sw	ra,140(sp)
   13238:	c522                	sw	s0,136(sp)
   1323a:	c326                	sw	s1,132(sp)
   1323c:	c14a                	sw	s2,128(sp)
   1323e:	dece                	sw	s3,124(sp)
   13240:	892a                	mv	s2,a0
   13242:	4489                	li	s1,2
   13244:	009105a3          	sb	s1,11(sp)
   13248:	0060                	addi	s0,sp,12
   1324a:	4679                	li	a2,30
   1324c:	8522                	mv	a0,s0
   1324e:	0000d097          	auipc	ra,0xd
   13252:	9ce080e7          	jalr	-1586(ra) # 1fc1c <memcpy>
   13256:	02b10993          	addi	s3,sp,43
   1325a:	05100613          	li	a2,81
   1325e:	854e                	mv	a0,s3
   13260:	4581                	li	a1,0
   13262:	0000d097          	auipc	ra,0xd
   13266:	94e080e7          	jalr	-1714(ra) # 1fbb0 <memset>
   1326a:	8622                	mv	a2,s0
   1326c:	02910523          	sb	s1,42(sp)
   13270:	6509                	lui	a0,0x2
   13272:	4791                	li	a5,4
   13274:	4589                	li	a1,2
   13276:	96b50513          	addi	a0,a0,-1685 # 196b <.Lline_table_start1+0x1740>
   1327a:	46f9                	li	a3,30
   1327c:	4711                	li	a4,4
   1327e:	00000073          	ecall
   13282:	00950463          	beq	a0,s1,1328a <_ZN20complex_dynamic_type3app17h1f21045c6dbbb6b2E+0x56>
   13286:	00f105a3          	sb	a5,11(sp)
   1328a:	4609                	li	a2,2
   1328c:	00c51463          	bne	a0,a2,13294 <_ZN20complex_dynamic_type3app17h1f21045c6dbbb6b2E+0x60>
   13290:	4785                	li	a5,1
   13292:	a859                	j	13328 <_ZN20complex_dynamic_type3app17h1f21045c6dbbb6b2E+0xf4>
   13294:	02a14503          	lbu	a0,42(sp)
   13298:	4785                	li	a5,1
   1329a:	02c51363          	bne	a0,a2,132c0 <_ZN20complex_dynamic_type3app17h1f21045c6dbbb6b2E+0x8c>
   1329e:	4581                	li	a1,0
   132a0:	864e                	mv	a2,s3
   132a2:	6509                	lui	a0,0x2
   132a4:	05100693          	li	a3,81
   132a8:	470d                	li	a4,3
   132aa:	96b50513          	addi	a0,a0,-1685 # 196b <.Lline_table_start1+0x1740>
   132ae:	4489                	li	s1,2
   132b0:	00000073          	ecall
   132b4:	460d                	li	a2,3
   132b6:	00951963          	bne	a0,s1,132c8 <_ZN20complex_dynamic_type3app17h1f21045c6dbbb6b2E+0x94>
   132ba:	4505                	li	a0,1
   132bc:	c911                	beqz	a0,132d0 <_ZN20complex_dynamic_type3app17h1f21045c6dbbb6b2E+0x9c>
   132be:	a0ad                	j	13328 <_ZN20complex_dynamic_type3app17h1f21045c6dbbb6b2E+0xf4>
   132c0:	458d                	li	a1,3
   132c2:	4505                	li	a0,1
   132c4:	c511                	beqz	a0,132d0 <_ZN20complex_dynamic_type3app17h1f21045c6dbbb6b2E+0x9c>
   132c6:	a08d                	j	13328 <_ZN20complex_dynamic_type3app17h1f21045c6dbbb6b2E+0xf4>
   132c8:	4501                	li	a0,0
   132ca:	02c10523          	sb	a2,42(sp)
   132ce:	ed29                	bnez	a0,13328 <_ZN20complex_dynamic_type3app17h1f21045c6dbbb6b2E+0xf4>
   132d0:	4601                	li	a2,0
   132d2:	4681                	li	a3,0
   132d4:	6509                	lui	a0,0x2
   132d6:	4589                	li	a1,2
   132d8:	4709                	li	a4,2
   132da:	96b50513          	addi	a0,a0,-1685 # 196b <.Lline_table_start1+0x1740>
   132de:	07f00493          	li	s1,127
   132e2:	00000073          	ecall
   132e6:	4689                	li	a3,2
   132e8:	04a4f063          	bgeu	s1,a0,13328 <_ZN20complex_dynamic_type3app17h1f21045c6dbbb6b2E+0xf4>
   132ec:	00b14603          	lbu	a2,11(sp)
   132f0:	00d60a63          	beq	a2,a3,13304 <_ZN20complex_dynamic_type3app17h1f21045c6dbbb6b2E+0xd0>
   132f4:	6509                	lui	a0,0x2
   132f6:	96b50513          	addi	a0,a0,-1685 # 196b <.Lline_table_start1+0x1740>
   132fa:	4589                	li	a1,2
   132fc:	0000d097          	auipc	ra,0xd
   13300:	8a8080e7          	jalr	-1880(ra) # 1fba4 <_ZN9allow_pin12dynamic_type7unshare17hb27555f71d22f3b2E>
   13304:	02a14603          	lbu	a2,42(sp)
   13308:	4409                	li	s0,2
   1330a:	008105a3          	sb	s0,11(sp)
   1330e:	00860a63          	beq	a2,s0,13322 <_ZN20complex_dynamic_type3app17h1f21045c6dbbb6b2E+0xee>
   13312:	6509                	lui	a0,0x2
   13314:	96b50513          	addi	a0,a0,-1685 # 196b <.Lline_table_start1+0x1740>
   13318:	4581                	li	a1,0
   1331a:	0000d097          	auipc	ra,0xd
   1331e:	88a080e7          	jalr	-1910(ra) # 1fba4 <_ZN9allow_pin12dynamic_type7unshare17hb27555f71d22f3b2E>
   13322:	4781                	li	a5,0
   13324:	02810523          	sb	s0,42(sp)
   13328:	cb85                	beqz	a5,13358 <_ZN20complex_dynamic_type3app17h1f21045c6dbbb6b2E+0x124>
   1332a:	02a14603          	lbu	a2,42(sp)
   1332e:	4505                	li	a0,1
   13330:	4409                	li	s0,2
   13332:	00a90023          	sb	a0,0(s2)
   13336:	00b92223          	sw	a1,4(s2)
   1333a:	00860a63          	beq	a2,s0,1334e <_ZN20complex_dynamic_type3app17h1f21045c6dbbb6b2E+0x11a>
   1333e:	6509                	lui	a0,0x2
   13340:	96b50513          	addi	a0,a0,-1685 # 196b <.Lline_table_start1+0x1740>
   13344:	4581                	li	a1,0
   13346:	0000d097          	auipc	ra,0xd
   1334a:	85e080e7          	jalr	-1954(ra) # 1fba4 <_ZN9allow_pin12dynamic_type7unshare17hb27555f71d22f3b2E>
   1334e:	00b14603          	lbu	a2,11(sp)
   13352:	04861763          	bne	a2,s0,133a0 <_ZN20complex_dynamic_type3app17h1f21045c6dbbb6b2E+0x16c>
   13356:	a8a9                	j	133b0 <_ZN20complex_dynamic_type3app17h1f21045c6dbbb6b2E+0x17c>
   13358:	02a14403          	lbu	s0,42(sp)
   1335c:	4489                	li	s1,2
   1335e:	00940663          	beq	s0,s1,1336a <_ZN20complex_dynamic_type3app17h1f21045c6dbbb6b2E+0x136>
   13362:	000109b7          	lui	s3,0x10
   13366:	27098993          	addi	s3,s3,624 # 10270 <.Lanon.49c9f8067fe4468184af16d7576940c9.10>
   1336a:	00190513          	addi	a0,s2,1
   1336e:	05100613          	li	a2,81
   13372:	85ce                	mv	a1,s3
   13374:	0000d097          	auipc	ra,0xd
   13378:	8a8080e7          	jalr	-1880(ra) # 1fc1c <memcpy>
   1337c:	00090023          	sb	zero,0(s2)
   13380:	00940b63          	beq	s0,s1,13396 <_ZN20complex_dynamic_type3app17h1f21045c6dbbb6b2E+0x162>
   13384:	6509                	lui	a0,0x2
   13386:	96b50513          	addi	a0,a0,-1685 # 196b <.Lline_table_start1+0x1740>
   1338a:	4581                	li	a1,0
   1338c:	8622                	mv	a2,s0
   1338e:	0000d097          	auipc	ra,0xd
   13392:	816080e7          	jalr	-2026(ra) # 1fba4 <_ZN9allow_pin12dynamic_type7unshare17hb27555f71d22f3b2E>
   13396:	00b14603          	lbu	a2,11(sp)
   1339a:	4509                	li	a0,2
   1339c:	00a60a63          	beq	a2,a0,133b0 <_ZN20complex_dynamic_type3app17h1f21045c6dbbb6b2E+0x17c>
   133a0:	6509                	lui	a0,0x2
   133a2:	96b50513          	addi	a0,a0,-1685 # 196b <.Lline_table_start1+0x1740>
   133a6:	4589                	li	a1,2
   133a8:	0000c097          	auipc	ra,0xc
   133ac:	7fc080e7          	jalr	2044(ra) # 1fba4 <_ZN9allow_pin12dynamic_type7unshare17hb27555f71d22f3b2E>
   133b0:	40ba                	lw	ra,140(sp)
   133b2:	442a                	lw	s0,136(sp)
   133b4:	449a                	lw	s1,132(sp)
   133b6:	490a                	lw	s2,128(sp)
   133b8:	59f6                	lw	s3,124(sp)
   133ba:	6149                	addi	sp,sp,144
   133bc:	8082                	ret

000133be <_ZN20complex_dynamic_type3app17h204d69dd4b77b799E>:
   133be:	7159                	addi	sp,sp,-112
   133c0:	d686                	sw	ra,108(sp)
   133c2:	d4a2                	sw	s0,104(sp)
   133c4:	d2a6                	sw	s1,100(sp)
   133c6:	d0ca                	sw	s2,96(sp)
   133c8:	cece                	sw	s3,92(sp)
   133ca:	892a                	mv	s2,a0
   133cc:	4489                	li	s1,2
   133ce:	00910023          	sb	s1,0(sp)
   133d2:	00110413          	addi	s0,sp,1
   133d6:	4679                	li	a2,30
   133d8:	8522                	mv	a0,s0
   133da:	0000d097          	auipc	ra,0xd
   133de:	842080e7          	jalr	-1982(ra) # 1fc1c <memcpy>
   133e2:	02010993          	addi	s3,sp,32
   133e6:	03c00613          	li	a2,60
   133ea:	854e                	mv	a0,s3
   133ec:	4581                	li	a1,0
   133ee:	0000c097          	auipc	ra,0xc
   133f2:	7c2080e7          	jalr	1986(ra) # 1fbb0 <memset>
   133f6:	8622                	mv	a2,s0
   133f8:	00910fa3          	sb	s1,31(sp)
   133fc:	6505                	lui	a0,0x1
   133fe:	4791                	li	a5,4
   13400:	4589                	li	a1,2
   13402:	b3c50513          	addi	a0,a0,-1220 # b3c <.Lline_table_start1+0x911>
   13406:	46f9                	li	a3,30
   13408:	4711                	li	a4,4
   1340a:	00000073          	ecall
   1340e:	00950463          	beq	a0,s1,13416 <_ZN20complex_dynamic_type3app17h204d69dd4b77b799E+0x58>
   13412:	00f10023          	sb	a5,0(sp)
   13416:	4609                	li	a2,2
   13418:	00c51463          	bne	a0,a2,13420 <_ZN20complex_dynamic_type3app17h204d69dd4b77b799E+0x62>
   1341c:	4785                	li	a5,1
   1341e:	a859                	j	134b4 <_ZN20complex_dynamic_type3app17h204d69dd4b77b799E+0xf6>
   13420:	01f14503          	lbu	a0,31(sp)
   13424:	4785                	li	a5,1
   13426:	02c51363          	bne	a0,a2,1344c <_ZN20complex_dynamic_type3app17h204d69dd4b77b799E+0x8e>
   1342a:	864e                	mv	a2,s3
   1342c:	6505                	lui	a0,0x1
   1342e:	458d                	li	a1,3
   13430:	03c00693          	li	a3,60
   13434:	470d                	li	a4,3
   13436:	b3c50513          	addi	a0,a0,-1220 # b3c <.Lline_table_start1+0x911>
   1343a:	4489                	li	s1,2
   1343c:	00000073          	ecall
   13440:	460d                	li	a2,3
   13442:	00951963          	bne	a0,s1,13454 <_ZN20complex_dynamic_type3app17h204d69dd4b77b799E+0x96>
   13446:	4505                	li	a0,1
   13448:	c911                	beqz	a0,1345c <_ZN20complex_dynamic_type3app17h204d69dd4b77b799E+0x9e>
   1344a:	a0ad                	j	134b4 <_ZN20complex_dynamic_type3app17h204d69dd4b77b799E+0xf6>
   1344c:	458d                	li	a1,3
   1344e:	4505                	li	a0,1
   13450:	c511                	beqz	a0,1345c <_ZN20complex_dynamic_type3app17h204d69dd4b77b799E+0x9e>
   13452:	a08d                	j	134b4 <_ZN20complex_dynamic_type3app17h204d69dd4b77b799E+0xf6>
   13454:	4501                	li	a0,0
   13456:	00c10fa3          	sb	a2,31(sp)
   1345a:	ed29                	bnez	a0,134b4 <_ZN20complex_dynamic_type3app17h204d69dd4b77b799E+0xf6>
   1345c:	4681                	li	a3,0
   1345e:	6505                	lui	a0,0x1
   13460:	4589                	li	a1,2
   13462:	460d                	li	a2,3
   13464:	4709                	li	a4,2
   13466:	b3c50513          	addi	a0,a0,-1220 # b3c <.Lline_table_start1+0x911>
   1346a:	07f00493          	li	s1,127
   1346e:	00000073          	ecall
   13472:	4689                	li	a3,2
   13474:	04a4f063          	bgeu	s1,a0,134b4 <_ZN20complex_dynamic_type3app17h204d69dd4b77b799E+0xf6>
   13478:	00014603          	lbu	a2,0(sp)
   1347c:	00d60a63          	beq	a2,a3,13490 <_ZN20complex_dynamic_type3app17h204d69dd4b77b799E+0xd2>
   13480:	6505                	lui	a0,0x1
   13482:	b3c50513          	addi	a0,a0,-1220 # b3c <.Lline_table_start1+0x911>
   13486:	4589                	li	a1,2
   13488:	0000c097          	auipc	ra,0xc
   1348c:	71c080e7          	jalr	1820(ra) # 1fba4 <_ZN9allow_pin12dynamic_type7unshare17hb27555f71d22f3b2E>
   13490:	01f14603          	lbu	a2,31(sp)
   13494:	4409                	li	s0,2
   13496:	00810023          	sb	s0,0(sp)
   1349a:	00860a63          	beq	a2,s0,134ae <_ZN20complex_dynamic_type3app17h204d69dd4b77b799E+0xf0>
   1349e:	6505                	lui	a0,0x1
   134a0:	b3c50513          	addi	a0,a0,-1220 # b3c <.Lline_table_start1+0x911>
   134a4:	458d                	li	a1,3
   134a6:	0000c097          	auipc	ra,0xc
   134aa:	6fe080e7          	jalr	1790(ra) # 1fba4 <_ZN9allow_pin12dynamic_type7unshare17hb27555f71d22f3b2E>
   134ae:	4781                	li	a5,0
   134b0:	00810fa3          	sb	s0,31(sp)
   134b4:	cb85                	beqz	a5,134e4 <_ZN20complex_dynamic_type3app17h204d69dd4b77b799E+0x126>
   134b6:	01f14603          	lbu	a2,31(sp)
   134ba:	4505                	li	a0,1
   134bc:	4409                	li	s0,2
   134be:	00a90023          	sb	a0,0(s2)
   134c2:	00b92223          	sw	a1,4(s2)
   134c6:	00860a63          	beq	a2,s0,134da <_ZN20complex_dynamic_type3app17h204d69dd4b77b799E+0x11c>
   134ca:	6505                	lui	a0,0x1
   134cc:	b3c50513          	addi	a0,a0,-1220 # b3c <.Lline_table_start1+0x911>
   134d0:	458d                	li	a1,3
   134d2:	0000c097          	auipc	ra,0xc
   134d6:	6d2080e7          	jalr	1746(ra) # 1fba4 <_ZN9allow_pin12dynamic_type7unshare17hb27555f71d22f3b2E>
   134da:	00014603          	lbu	a2,0(sp)
   134de:	04861763          	bne	a2,s0,1352c <_ZN20complex_dynamic_type3app17h204d69dd4b77b799E+0x16e>
   134e2:	a8a9                	j	1353c <_ZN20complex_dynamic_type3app17h204d69dd4b77b799E+0x17e>
   134e4:	01f14403          	lbu	s0,31(sp)
   134e8:	4489                	li	s1,2
   134ea:	00940663          	beq	s0,s1,134f6 <_ZN20complex_dynamic_type3app17h204d69dd4b77b799E+0x138>
   134ee:	000109b7          	lui	s3,0x10
   134f2:	6f298993          	addi	s3,s3,1778 # 106f2 <.Lanon.49c9f8067fe4468184af16d7576940c9.32>
   134f6:	00190513          	addi	a0,s2,1
   134fa:	03c00613          	li	a2,60
   134fe:	85ce                	mv	a1,s3
   13500:	0000c097          	auipc	ra,0xc
   13504:	71c080e7          	jalr	1820(ra) # 1fc1c <memcpy>
   13508:	00090023          	sb	zero,0(s2)
   1350c:	00940b63          	beq	s0,s1,13522 <_ZN20complex_dynamic_type3app17h204d69dd4b77b799E+0x164>
   13510:	6505                	lui	a0,0x1
   13512:	b3c50513          	addi	a0,a0,-1220 # b3c <.Lline_table_start1+0x911>
   13516:	458d                	li	a1,3
   13518:	8622                	mv	a2,s0
   1351a:	0000c097          	auipc	ra,0xc
   1351e:	68a080e7          	jalr	1674(ra) # 1fba4 <_ZN9allow_pin12dynamic_type7unshare17hb27555f71d22f3b2E>
   13522:	00014603          	lbu	a2,0(sp)
   13526:	4509                	li	a0,2
   13528:	00a60a63          	beq	a2,a0,1353c <_ZN20complex_dynamic_type3app17h204d69dd4b77b799E+0x17e>
   1352c:	6505                	lui	a0,0x1
   1352e:	b3c50513          	addi	a0,a0,-1220 # b3c <.Lline_table_start1+0x911>
   13532:	4589                	li	a1,2
   13534:	0000c097          	auipc	ra,0xc
   13538:	670080e7          	jalr	1648(ra) # 1fba4 <_ZN9allow_pin12dynamic_type7unshare17hb27555f71d22f3b2E>
   1353c:	50b6                	lw	ra,108(sp)
   1353e:	5426                	lw	s0,104(sp)
   13540:	5496                	lw	s1,100(sp)
   13542:	5906                	lw	s2,96(sp)
   13544:	49f6                	lw	s3,92(sp)
   13546:	6165                	addi	sp,sp,112
   13548:	8082                	ret

0001354a <_ZN20complex_dynamic_type3app17h214471f8d4b661b6E>:
   1354a:	7159                	addi	sp,sp,-112
   1354c:	d686                	sw	ra,108(sp)
   1354e:	d4a2                	sw	s0,104(sp)
   13550:	d2a6                	sw	s1,100(sp)
   13552:	d0ca                	sw	s2,96(sp)
   13554:	cece                	sw	s3,92(sp)
   13556:	892a                	mv	s2,a0
   13558:	4489                	li	s1,2
   1355a:	00910523          	sb	s1,10(sp)
   1355e:	00b10413          	addi	s0,sp,11
   13562:	03f00613          	li	a2,63
   13566:	8522                	mv	a0,s0
   13568:	0000c097          	auipc	ra,0xc
   1356c:	6b4080e7          	jalr	1716(ra) # 1fc1c <memcpy>
   13570:	04b10993          	addi	s3,sp,75
   13574:	4645                	li	a2,17
   13576:	854e                	mv	a0,s3
   13578:	4581                	li	a1,0
   1357a:	0000c097          	auipc	ra,0xc
   1357e:	636080e7          	jalr	1590(ra) # 1fbb0 <memset>
   13582:	8622                	mv	a2,s0
   13584:	04910523          	sb	s1,74(sp)
   13588:	6505                	lui	a0,0x1
   1358a:	4791                	li	a5,4
   1358c:	4591                	li	a1,4
   1358e:	4d750513          	addi	a0,a0,1239 # 14d7 <.Lline_table_start1+0x12ac>
   13592:	03f00693          	li	a3,63
   13596:	4711                	li	a4,4
   13598:	00000073          	ecall
   1359c:	00950463          	beq	a0,s1,135a4 <_ZN20complex_dynamic_type3app17h214471f8d4b661b6E+0x5a>
   135a0:	00f10523          	sb	a5,10(sp)
   135a4:	4609                	li	a2,2
   135a6:	00c51463          	bne	a0,a2,135ae <_ZN20complex_dynamic_type3app17h214471f8d4b661b6E+0x64>
   135aa:	4785                	li	a5,1
   135ac:	a851                	j	13640 <_ZN20complex_dynamic_type3app17h214471f8d4b661b6E+0xf6>
   135ae:	04a14503          	lbu	a0,74(sp)
   135b2:	4785                	li	a5,1
   135b4:	02c51263          	bne	a0,a2,135d8 <_ZN20complex_dynamic_type3app17h214471f8d4b661b6E+0x8e>
   135b8:	864e                	mv	a2,s3
   135ba:	6505                	lui	a0,0x1
   135bc:	458d                	li	a1,3
   135be:	46c5                	li	a3,17
   135c0:	470d                	li	a4,3
   135c2:	4d750513          	addi	a0,a0,1239 # 14d7 <.Lline_table_start1+0x12ac>
   135c6:	4489                	li	s1,2
   135c8:	00000073          	ecall
   135cc:	460d                	li	a2,3
   135ce:	00951963          	bne	a0,s1,135e0 <_ZN20complex_dynamic_type3app17h214471f8d4b661b6E+0x96>
   135d2:	4505                	li	a0,1
   135d4:	c911                	beqz	a0,135e8 <_ZN20complex_dynamic_type3app17h214471f8d4b661b6E+0x9e>
   135d6:	a0ad                	j	13640 <_ZN20complex_dynamic_type3app17h214471f8d4b661b6E+0xf6>
   135d8:	458d                	li	a1,3
   135da:	4505                	li	a0,1
   135dc:	c511                	beqz	a0,135e8 <_ZN20complex_dynamic_type3app17h214471f8d4b661b6E+0x9e>
   135de:	a08d                	j	13640 <_ZN20complex_dynamic_type3app17h214471f8d4b661b6E+0xf6>
   135e0:	4501                	li	a0,0
   135e2:	04c10523          	sb	a2,74(sp)
   135e6:	ed29                	bnez	a0,13640 <_ZN20complex_dynamic_type3app17h214471f8d4b661b6E+0xf6>
   135e8:	4681                	li	a3,0
   135ea:	6505                	lui	a0,0x1
   135ec:	4591                	li	a1,4
   135ee:	460d                	li	a2,3
   135f0:	4709                	li	a4,2
   135f2:	4d750513          	addi	a0,a0,1239 # 14d7 <.Lline_table_start1+0x12ac>
   135f6:	07f00493          	li	s1,127
   135fa:	00000073          	ecall
   135fe:	4689                	li	a3,2
   13600:	04a4f063          	bgeu	s1,a0,13640 <_ZN20complex_dynamic_type3app17h214471f8d4b661b6E+0xf6>
   13604:	00a14603          	lbu	a2,10(sp)
   13608:	00d60a63          	beq	a2,a3,1361c <_ZN20complex_dynamic_type3app17h214471f8d4b661b6E+0xd2>
   1360c:	6505                	lui	a0,0x1
   1360e:	4d750513          	addi	a0,a0,1239 # 14d7 <.Lline_table_start1+0x12ac>
   13612:	4591                	li	a1,4
   13614:	0000c097          	auipc	ra,0xc
   13618:	590080e7          	jalr	1424(ra) # 1fba4 <_ZN9allow_pin12dynamic_type7unshare17hb27555f71d22f3b2E>
   1361c:	04a14603          	lbu	a2,74(sp)
   13620:	4409                	li	s0,2
   13622:	00810523          	sb	s0,10(sp)
   13626:	00860a63          	beq	a2,s0,1363a <_ZN20complex_dynamic_type3app17h214471f8d4b661b6E+0xf0>
   1362a:	6505                	lui	a0,0x1
   1362c:	4d750513          	addi	a0,a0,1239 # 14d7 <.Lline_table_start1+0x12ac>
   13630:	458d                	li	a1,3
   13632:	0000c097          	auipc	ra,0xc
   13636:	572080e7          	jalr	1394(ra) # 1fba4 <_ZN9allow_pin12dynamic_type7unshare17hb27555f71d22f3b2E>
   1363a:	4781                	li	a5,0
   1363c:	04810523          	sb	s0,74(sp)
   13640:	cb85                	beqz	a5,13670 <_ZN20complex_dynamic_type3app17h214471f8d4b661b6E+0x126>
   13642:	04a14603          	lbu	a2,74(sp)
   13646:	4505                	li	a0,1
   13648:	4409                	li	s0,2
   1364a:	00a90023          	sb	a0,0(s2)
   1364e:	00b92223          	sw	a1,4(s2)
   13652:	00860a63          	beq	a2,s0,13666 <_ZN20complex_dynamic_type3app17h214471f8d4b661b6E+0x11c>
   13656:	6505                	lui	a0,0x1
   13658:	4d750513          	addi	a0,a0,1239 # 14d7 <.Lline_table_start1+0x12ac>
   1365c:	458d                	li	a1,3
   1365e:	0000c097          	auipc	ra,0xc
   13662:	546080e7          	jalr	1350(ra) # 1fba4 <_ZN9allow_pin12dynamic_type7unshare17hb27555f71d22f3b2E>
   13666:	00a14603          	lbu	a2,10(sp)
   1366a:	04861663          	bne	a2,s0,136b6 <_ZN20complex_dynamic_type3app17h214471f8d4b661b6E+0x16c>
   1366e:	a8a1                	j	136c6 <_ZN20complex_dynamic_type3app17h214471f8d4b661b6E+0x17c>
   13670:	04a14403          	lbu	s0,74(sp)
   13674:	4489                	li	s1,2
   13676:	00940663          	beq	s0,s1,13682 <_ZN20complex_dynamic_type3app17h214471f8d4b661b6E+0x138>
   1367a:	000109b7          	lui	s3,0x10
   1367e:	60998993          	addi	s3,s3,1545 # 10609 <.Lanon.49c9f8067fe4468184af16d7576940c9.27>
   13682:	00190513          	addi	a0,s2,1
   13686:	4645                	li	a2,17
   13688:	85ce                	mv	a1,s3
   1368a:	0000c097          	auipc	ra,0xc
   1368e:	592080e7          	jalr	1426(ra) # 1fc1c <memcpy>
   13692:	00090023          	sb	zero,0(s2)
   13696:	00940b63          	beq	s0,s1,136ac <_ZN20complex_dynamic_type3app17h214471f8d4b661b6E+0x162>
   1369a:	6505                	lui	a0,0x1
   1369c:	4d750513          	addi	a0,a0,1239 # 14d7 <.Lline_table_start1+0x12ac>
   136a0:	458d                	li	a1,3
   136a2:	8622                	mv	a2,s0
   136a4:	0000c097          	auipc	ra,0xc
   136a8:	500080e7          	jalr	1280(ra) # 1fba4 <_ZN9allow_pin12dynamic_type7unshare17hb27555f71d22f3b2E>
   136ac:	00a14603          	lbu	a2,10(sp)
   136b0:	4509                	li	a0,2
   136b2:	00a60a63          	beq	a2,a0,136c6 <_ZN20complex_dynamic_type3app17h214471f8d4b661b6E+0x17c>
   136b6:	6505                	lui	a0,0x1
   136b8:	4d750513          	addi	a0,a0,1239 # 14d7 <.Lline_table_start1+0x12ac>
   136bc:	4591                	li	a1,4
   136be:	0000c097          	auipc	ra,0xc
   136c2:	4e6080e7          	jalr	1254(ra) # 1fba4 <_ZN9allow_pin12dynamic_type7unshare17hb27555f71d22f3b2E>
   136c6:	50b6                	lw	ra,108(sp)
   136c8:	5426                	lw	s0,104(sp)
   136ca:	5496                	lw	s1,100(sp)
   136cc:	5906                	lw	s2,96(sp)
   136ce:	49f6                	lw	s3,92(sp)
   136d0:	6165                	addi	sp,sp,112
   136d2:	8082                	ret

000136d4 <_ZN20complex_dynamic_type3app17h21a7d13515e41a50E>:
   136d4:	711d                	addi	sp,sp,-96
   136d6:	ce86                	sw	ra,92(sp)
   136d8:	cca2                	sw	s0,88(sp)
   136da:	caa6                	sw	s1,84(sp)
   136dc:	c8ca                	sw	s2,80(sp)
   136de:	c6ce                	sw	s3,76(sp)
   136e0:	892a                	mv	s2,a0
   136e2:	4489                	li	s1,2
   136e4:	009102a3          	sb	s1,5(sp)
   136e8:	00610413          	addi	s0,sp,6
   136ec:	02700613          	li	a2,39
   136f0:	8522                	mv	a0,s0
   136f2:	0000c097          	auipc	ra,0xc
   136f6:	52a080e7          	jalr	1322(ra) # 1fc1c <memcpy>
   136fa:	02e10993          	addi	s3,sp,46
   136fe:	4679                	li	a2,30
   13700:	854e                	mv	a0,s3
   13702:	4581                	li	a1,0
   13704:	0000c097          	auipc	ra,0xc
   13708:	4ac080e7          	jalr	1196(ra) # 1fbb0 <memset>
   1370c:	8622                	mv	a2,s0
   1370e:	029106a3          	sb	s1,45(sp)
   13712:	6505                	lui	a0,0x1
   13714:	4791                	li	a5,4
   13716:	458d                	li	a1,3
   13718:	0e250513          	addi	a0,a0,226 # 10e2 <.Lline_table_start1+0xeb7>
   1371c:	02700693          	li	a3,39
   13720:	4711                	li	a4,4
   13722:	00000073          	ecall
   13726:	00950463          	beq	a0,s1,1372e <_ZN20complex_dynamic_type3app17h21a7d13515e41a50E+0x5a>
   1372a:	00f102a3          	sb	a5,5(sp)
   1372e:	4609                	li	a2,2
   13730:	00c51463          	bne	a0,a2,13738 <_ZN20complex_dynamic_type3app17h21a7d13515e41a50E+0x64>
   13734:	4785                	li	a5,1
   13736:	a851                	j	137ca <_ZN20complex_dynamic_type3app17h21a7d13515e41a50E+0xf6>
   13738:	02d14503          	lbu	a0,45(sp)
   1373c:	4785                	li	a5,1
   1373e:	02c51263          	bne	a0,a2,13762 <_ZN20complex_dynamic_type3app17h21a7d13515e41a50E+0x8e>
   13742:	864e                	mv	a2,s3
   13744:	6505                	lui	a0,0x1
   13746:	458d                	li	a1,3
   13748:	46f9                	li	a3,30
   1374a:	470d                	li	a4,3
   1374c:	0e250513          	addi	a0,a0,226 # 10e2 <.Lline_table_start1+0xeb7>
   13750:	4489                	li	s1,2
   13752:	00000073          	ecall
   13756:	460d                	li	a2,3
   13758:	00951963          	bne	a0,s1,1376a <_ZN20complex_dynamic_type3app17h21a7d13515e41a50E+0x96>
   1375c:	4505                	li	a0,1
   1375e:	c911                	beqz	a0,13772 <_ZN20complex_dynamic_type3app17h21a7d13515e41a50E+0x9e>
   13760:	a0ad                	j	137ca <_ZN20complex_dynamic_type3app17h21a7d13515e41a50E+0xf6>
   13762:	458d                	li	a1,3
   13764:	4505                	li	a0,1
   13766:	c511                	beqz	a0,13772 <_ZN20complex_dynamic_type3app17h21a7d13515e41a50E+0x9e>
   13768:	a08d                	j	137ca <_ZN20complex_dynamic_type3app17h21a7d13515e41a50E+0xf6>
   1376a:	4501                	li	a0,0
   1376c:	02c106a3          	sb	a2,45(sp)
   13770:	ed29                	bnez	a0,137ca <_ZN20complex_dynamic_type3app17h21a7d13515e41a50E+0xf6>
   13772:	4681                	li	a3,0
   13774:	6505                	lui	a0,0x1
   13776:	458d                	li	a1,3
   13778:	460d                	li	a2,3
   1377a:	4709                	li	a4,2
   1377c:	0e250513          	addi	a0,a0,226 # 10e2 <.Lline_table_start1+0xeb7>
   13780:	07f00493          	li	s1,127
   13784:	00000073          	ecall
   13788:	4689                	li	a3,2
   1378a:	04a4f063          	bgeu	s1,a0,137ca <_ZN20complex_dynamic_type3app17h21a7d13515e41a50E+0xf6>
   1378e:	00514603          	lbu	a2,5(sp)
   13792:	00d60a63          	beq	a2,a3,137a6 <_ZN20complex_dynamic_type3app17h21a7d13515e41a50E+0xd2>
   13796:	6505                	lui	a0,0x1
   13798:	0e250513          	addi	a0,a0,226 # 10e2 <.Lline_table_start1+0xeb7>
   1379c:	458d                	li	a1,3
   1379e:	0000c097          	auipc	ra,0xc
   137a2:	406080e7          	jalr	1030(ra) # 1fba4 <_ZN9allow_pin12dynamic_type7unshare17hb27555f71d22f3b2E>
   137a6:	02d14603          	lbu	a2,45(sp)
   137aa:	4409                	li	s0,2
   137ac:	008102a3          	sb	s0,5(sp)
   137b0:	00860a63          	beq	a2,s0,137c4 <_ZN20complex_dynamic_type3app17h21a7d13515e41a50E+0xf0>
   137b4:	6505                	lui	a0,0x1
   137b6:	0e250513          	addi	a0,a0,226 # 10e2 <.Lline_table_start1+0xeb7>
   137ba:	458d                	li	a1,3
   137bc:	0000c097          	auipc	ra,0xc
   137c0:	3e8080e7          	jalr	1000(ra) # 1fba4 <_ZN9allow_pin12dynamic_type7unshare17hb27555f71d22f3b2E>
   137c4:	4781                	li	a5,0
   137c6:	028106a3          	sb	s0,45(sp)
   137ca:	cb85                	beqz	a5,137fa <_ZN20complex_dynamic_type3app17h21a7d13515e41a50E+0x126>
   137cc:	02d14603          	lbu	a2,45(sp)
   137d0:	4505                	li	a0,1
   137d2:	4409                	li	s0,2
   137d4:	00a90023          	sb	a0,0(s2)
   137d8:	00b92223          	sw	a1,4(s2)
   137dc:	00860a63          	beq	a2,s0,137f0 <_ZN20complex_dynamic_type3app17h21a7d13515e41a50E+0x11c>
   137e0:	6505                	lui	a0,0x1
   137e2:	0e250513          	addi	a0,a0,226 # 10e2 <.Lline_table_start1+0xeb7>
   137e6:	458d                	li	a1,3
   137e8:	0000c097          	auipc	ra,0xc
   137ec:	3bc080e7          	jalr	956(ra) # 1fba4 <_ZN9allow_pin12dynamic_type7unshare17hb27555f71d22f3b2E>
   137f0:	00514603          	lbu	a2,5(sp)
   137f4:	04861663          	bne	a2,s0,13840 <_ZN20complex_dynamic_type3app17h21a7d13515e41a50E+0x16c>
   137f8:	a8a1                	j	13850 <_ZN20complex_dynamic_type3app17h21a7d13515e41a50E+0x17c>
   137fa:	02d14403          	lbu	s0,45(sp)
   137fe:	4489                	li	s1,2
   13800:	00940663          	beq	s0,s1,1380c <_ZN20complex_dynamic_type3app17h21a7d13515e41a50E+0x138>
   13804:	000109b7          	lui	s3,0x10
   13808:	13c98993          	addi	s3,s3,316 # 1013c <.Lanon.49c9f8067fe4468184af16d7576940c9.2>
   1380c:	00190513          	addi	a0,s2,1
   13810:	4679                	li	a2,30
   13812:	85ce                	mv	a1,s3
   13814:	0000c097          	auipc	ra,0xc
   13818:	408080e7          	jalr	1032(ra) # 1fc1c <memcpy>
   1381c:	00090023          	sb	zero,0(s2)
   13820:	00940b63          	beq	s0,s1,13836 <_ZN20complex_dynamic_type3app17h21a7d13515e41a50E+0x162>
   13824:	6505                	lui	a0,0x1
   13826:	0e250513          	addi	a0,a0,226 # 10e2 <.Lline_table_start1+0xeb7>
   1382a:	458d                	li	a1,3
   1382c:	8622                	mv	a2,s0
   1382e:	0000c097          	auipc	ra,0xc
   13832:	376080e7          	jalr	886(ra) # 1fba4 <_ZN9allow_pin12dynamic_type7unshare17hb27555f71d22f3b2E>
   13836:	00514603          	lbu	a2,5(sp)
   1383a:	4509                	li	a0,2
   1383c:	00a60a63          	beq	a2,a0,13850 <_ZN20complex_dynamic_type3app17h21a7d13515e41a50E+0x17c>
   13840:	6505                	lui	a0,0x1
   13842:	0e250513          	addi	a0,a0,226 # 10e2 <.Lline_table_start1+0xeb7>
   13846:	458d                	li	a1,3
   13848:	0000c097          	auipc	ra,0xc
   1384c:	35c080e7          	jalr	860(ra) # 1fba4 <_ZN9allow_pin12dynamic_type7unshare17hb27555f71d22f3b2E>
   13850:	40f6                	lw	ra,92(sp)
   13852:	4466                	lw	s0,88(sp)
   13854:	44d6                	lw	s1,84(sp)
   13856:	4946                	lw	s2,80(sp)
   13858:	49b6                	lw	s3,76(sp)
   1385a:	6125                	addi	sp,sp,96
   1385c:	8082                	ret

0001385e <_ZN20complex_dynamic_type3app17h222f028fcb31587fE>:
   1385e:	7131                	addi	sp,sp,-192
   13860:	df06                	sw	ra,188(sp)
   13862:	dd22                	sw	s0,184(sp)
   13864:	db26                	sw	s1,180(sp)
   13866:	d94a                	sw	s2,176(sp)
   13868:	d74e                	sw	s3,172(sp)
   1386a:	892a                	mv	s2,a0
   1386c:	4489                	li	s1,2
   1386e:	00910523          	sb	s1,10(sp)
   13872:	00b10413          	addi	s0,sp,11
   13876:	05100613          	li	a2,81
   1387a:	8522                	mv	a0,s0
   1387c:	0000c097          	auipc	ra,0xc
   13880:	3a0080e7          	jalr	928(ra) # 1fc1c <memcpy>
   13884:	05d10993          	addi	s3,sp,93
   13888:	04f00613          	li	a2,79
   1388c:	854e                	mv	a0,s3
   1388e:	4581                	li	a1,0
   13890:	0000c097          	auipc	ra,0xc
   13894:	320080e7          	jalr	800(ra) # 1fbb0 <memset>
   13898:	8622                	mv	a2,s0
   1389a:	04910e23          	sb	s1,92(sp)
   1389e:	6509                	lui	a0,0x2
   138a0:	4791                	li	a5,4
   138a2:	4591                	li	a1,4
   138a4:	0ee50513          	addi	a0,a0,238 # 20ee <.Lline_table_start1+0x1ec3>
   138a8:	05100693          	li	a3,81
   138ac:	4711                	li	a4,4
   138ae:	00000073          	ecall
   138b2:	00950463          	beq	a0,s1,138ba <_ZN20complex_dynamic_type3app17h222f028fcb31587fE+0x5c>
   138b6:	00f10523          	sb	a5,10(sp)
   138ba:	4609                	li	a2,2
   138bc:	00c51463          	bne	a0,a2,138c4 <_ZN20complex_dynamic_type3app17h222f028fcb31587fE+0x66>
   138c0:	4785                	li	a5,1
   138c2:	a859                	j	13958 <_ZN20complex_dynamic_type3app17h222f028fcb31587fE+0xfa>
   138c4:	05c14503          	lbu	a0,92(sp)
   138c8:	4785                	li	a5,1
   138ca:	02c51363          	bne	a0,a2,138f0 <_ZN20complex_dynamic_type3app17h222f028fcb31587fE+0x92>
   138ce:	864e                	mv	a2,s3
   138d0:	6509                	lui	a0,0x2
   138d2:	45a5                	li	a1,9
   138d4:	04f00693          	li	a3,79
   138d8:	470d                	li	a4,3
   138da:	0ee50513          	addi	a0,a0,238 # 20ee <.Lline_table_start1+0x1ec3>
   138de:	4489                	li	s1,2
   138e0:	00000073          	ecall
   138e4:	460d                	li	a2,3
   138e6:	00951963          	bne	a0,s1,138f8 <_ZN20complex_dynamic_type3app17h222f028fcb31587fE+0x9a>
   138ea:	4505                	li	a0,1
   138ec:	c911                	beqz	a0,13900 <_ZN20complex_dynamic_type3app17h222f028fcb31587fE+0xa2>
   138ee:	a0ad                	j	13958 <_ZN20complex_dynamic_type3app17h222f028fcb31587fE+0xfa>
   138f0:	458d                	li	a1,3
   138f2:	4505                	li	a0,1
   138f4:	c511                	beqz	a0,13900 <_ZN20complex_dynamic_type3app17h222f028fcb31587fE+0xa2>
   138f6:	a08d                	j	13958 <_ZN20complex_dynamic_type3app17h222f028fcb31587fE+0xfa>
   138f8:	4501                	li	a0,0
   138fa:	04c10e23          	sb	a2,92(sp)
   138fe:	ed29                	bnez	a0,13958 <_ZN20complex_dynamic_type3app17h222f028fcb31587fE+0xfa>
   13900:	4681                	li	a3,0
   13902:	6509                	lui	a0,0x2
   13904:	4591                	li	a1,4
   13906:	4625                	li	a2,9
   13908:	4709                	li	a4,2
   1390a:	0ee50513          	addi	a0,a0,238 # 20ee <.Lline_table_start1+0x1ec3>
   1390e:	07f00493          	li	s1,127
   13912:	00000073          	ecall
   13916:	4689                	li	a3,2
   13918:	04a4f063          	bgeu	s1,a0,13958 <_ZN20complex_dynamic_type3app17h222f028fcb31587fE+0xfa>
   1391c:	00a14603          	lbu	a2,10(sp)
   13920:	00d60a63          	beq	a2,a3,13934 <_ZN20complex_dynamic_type3app17h222f028fcb31587fE+0xd6>
   13924:	6509                	lui	a0,0x2
   13926:	0ee50513          	addi	a0,a0,238 # 20ee <.Lline_table_start1+0x1ec3>
   1392a:	4591                	li	a1,4
   1392c:	0000c097          	auipc	ra,0xc
   13930:	278080e7          	jalr	632(ra) # 1fba4 <_ZN9allow_pin12dynamic_type7unshare17hb27555f71d22f3b2E>
   13934:	05c14603          	lbu	a2,92(sp)
   13938:	4409                	li	s0,2
   1393a:	00810523          	sb	s0,10(sp)
   1393e:	00860a63          	beq	a2,s0,13952 <_ZN20complex_dynamic_type3app17h222f028fcb31587fE+0xf4>
   13942:	6509                	lui	a0,0x2
   13944:	0ee50513          	addi	a0,a0,238 # 20ee <.Lline_table_start1+0x1ec3>
   13948:	45a5                	li	a1,9
   1394a:	0000c097          	auipc	ra,0xc
   1394e:	25a080e7          	jalr	602(ra) # 1fba4 <_ZN9allow_pin12dynamic_type7unshare17hb27555f71d22f3b2E>
   13952:	4781                	li	a5,0
   13954:	04810e23          	sb	s0,92(sp)
   13958:	cb85                	beqz	a5,13988 <_ZN20complex_dynamic_type3app17h222f028fcb31587fE+0x12a>
   1395a:	05c14603          	lbu	a2,92(sp)
   1395e:	4505                	li	a0,1
   13960:	4409                	li	s0,2
   13962:	00a90023          	sb	a0,0(s2)
   13966:	00b92223          	sw	a1,4(s2)
   1396a:	00860a63          	beq	a2,s0,1397e <_ZN20complex_dynamic_type3app17h222f028fcb31587fE+0x120>
   1396e:	6509                	lui	a0,0x2
   13970:	0ee50513          	addi	a0,a0,238 # 20ee <.Lline_table_start1+0x1ec3>
   13974:	45a5                	li	a1,9
   13976:	0000c097          	auipc	ra,0xc
   1397a:	22e080e7          	jalr	558(ra) # 1fba4 <_ZN9allow_pin12dynamic_type7unshare17hb27555f71d22f3b2E>
   1397e:	00a14603          	lbu	a2,10(sp)
   13982:	04861763          	bne	a2,s0,139d0 <_ZN20complex_dynamic_type3app17h222f028fcb31587fE+0x172>
   13986:	a8a9                	j	139e0 <_ZN20complex_dynamic_type3app17h222f028fcb31587fE+0x182>
   13988:	05c14403          	lbu	s0,92(sp)
   1398c:	4489                	li	s1,2
   1398e:	00940663          	beq	s0,s1,1399a <_ZN20complex_dynamic_type3app17h222f028fcb31587fE+0x13c>
   13992:	000109b7          	lui	s3,0x10
   13996:	42698993          	addi	s3,s3,1062 # 10426 <.Lanon.49c9f8067fe4468184af16d7576940c9.18>
   1399a:	00190513          	addi	a0,s2,1
   1399e:	04f00613          	li	a2,79
   139a2:	85ce                	mv	a1,s3
   139a4:	0000c097          	auipc	ra,0xc
   139a8:	278080e7          	jalr	632(ra) # 1fc1c <memcpy>
   139ac:	00090023          	sb	zero,0(s2)
   139b0:	00940b63          	beq	s0,s1,139c6 <_ZN20complex_dynamic_type3app17h222f028fcb31587fE+0x168>
   139b4:	6509                	lui	a0,0x2
   139b6:	0ee50513          	addi	a0,a0,238 # 20ee <.Lline_table_start1+0x1ec3>
   139ba:	45a5                	li	a1,9
   139bc:	8622                	mv	a2,s0
   139be:	0000c097          	auipc	ra,0xc
   139c2:	1e6080e7          	jalr	486(ra) # 1fba4 <_ZN9allow_pin12dynamic_type7unshare17hb27555f71d22f3b2E>
   139c6:	00a14603          	lbu	a2,10(sp)
   139ca:	4509                	li	a0,2
   139cc:	00a60a63          	beq	a2,a0,139e0 <_ZN20complex_dynamic_type3app17h222f028fcb31587fE+0x182>
   139d0:	6509                	lui	a0,0x2
   139d2:	0ee50513          	addi	a0,a0,238 # 20ee <.Lline_table_start1+0x1ec3>
   139d6:	4591                	li	a1,4
   139d8:	0000c097          	auipc	ra,0xc
   139dc:	1cc080e7          	jalr	460(ra) # 1fba4 <_ZN9allow_pin12dynamic_type7unshare17hb27555f71d22f3b2E>
   139e0:	50fa                	lw	ra,188(sp)
   139e2:	546a                	lw	s0,184(sp)
   139e4:	54da                	lw	s1,180(sp)
   139e6:	594a                	lw	s2,176(sp)
   139e8:	59ba                	lw	s3,172(sp)
   139ea:	6129                	addi	sp,sp,192
   139ec:	8082                	ret

000139ee <_ZN20complex_dynamic_type3app17h223a4c37c29d980aE>:
   139ee:	7119                	addi	sp,sp,-128
   139f0:	de86                	sw	ra,124(sp)
   139f2:	dca2                	sw	s0,120(sp)
   139f4:	daa6                	sw	s1,116(sp)
   139f6:	d8ca                	sw	s2,112(sp)
   139f8:	d6ce                	sw	s3,108(sp)
   139fa:	892a                	mv	s2,a0
   139fc:	4489                	li	s1,2
   139fe:	00910123          	sb	s1,2(sp)
   13a02:	00310413          	addi	s0,sp,3
   13a06:	03c00613          	li	a2,60
   13a0a:	8522                	mv	a0,s0
   13a0c:	0000c097          	auipc	ra,0xc
   13a10:	210080e7          	jalr	528(ra) # 1fc1c <memcpy>
   13a14:	04010993          	addi	s3,sp,64
   13a18:	02c00613          	li	a2,44
   13a1c:	854e                	mv	a0,s3
   13a1e:	4581                	li	a1,0
   13a20:	0000c097          	auipc	ra,0xc
   13a24:	190080e7          	jalr	400(ra) # 1fbb0 <memset>
   13a28:	8622                	mv	a2,s0
   13a2a:	02910fa3          	sb	s1,63(sp)
   13a2e:	6509                	lui	a0,0x2
   13a30:	4791                	li	a5,4
   13a32:	4595                	li	a1,5
   13a34:	eac50513          	addi	a0,a0,-340 # 1eac <.Lline_table_start1+0x1c81>
   13a38:	03c00693          	li	a3,60
   13a3c:	4711                	li	a4,4
   13a3e:	00000073          	ecall
   13a42:	00950463          	beq	a0,s1,13a4a <_ZN20complex_dynamic_type3app17h223a4c37c29d980aE+0x5c>
   13a46:	00f10123          	sb	a5,2(sp)
   13a4a:	4609                	li	a2,2
   13a4c:	00c51463          	bne	a0,a2,13a54 <_ZN20complex_dynamic_type3app17h223a4c37c29d980aE+0x66>
   13a50:	4785                	li	a5,1
   13a52:	a859                	j	13ae8 <_ZN20complex_dynamic_type3app17h223a4c37c29d980aE+0xfa>
   13a54:	03f14503          	lbu	a0,63(sp)
   13a58:	4785                	li	a5,1
   13a5a:	02c51363          	bne	a0,a2,13a80 <_ZN20complex_dynamic_type3app17h223a4c37c29d980aE+0x92>
   13a5e:	864e                	mv	a2,s3
   13a60:	6509                	lui	a0,0x2
   13a62:	459d                	li	a1,7
   13a64:	02c00693          	li	a3,44
   13a68:	470d                	li	a4,3
   13a6a:	eac50513          	addi	a0,a0,-340 # 1eac <.Lline_table_start1+0x1c81>
   13a6e:	4489                	li	s1,2
   13a70:	00000073          	ecall
   13a74:	460d                	li	a2,3
   13a76:	00951963          	bne	a0,s1,13a88 <_ZN20complex_dynamic_type3app17h223a4c37c29d980aE+0x9a>
   13a7a:	4505                	li	a0,1
   13a7c:	c911                	beqz	a0,13a90 <_ZN20complex_dynamic_type3app17h223a4c37c29d980aE+0xa2>
   13a7e:	a0ad                	j	13ae8 <_ZN20complex_dynamic_type3app17h223a4c37c29d980aE+0xfa>
   13a80:	458d                	li	a1,3
   13a82:	4505                	li	a0,1
   13a84:	c511                	beqz	a0,13a90 <_ZN20complex_dynamic_type3app17h223a4c37c29d980aE+0xa2>
   13a86:	a08d                	j	13ae8 <_ZN20complex_dynamic_type3app17h223a4c37c29d980aE+0xfa>
   13a88:	4501                	li	a0,0
   13a8a:	02c10fa3          	sb	a2,63(sp)
   13a8e:	ed29                	bnez	a0,13ae8 <_ZN20complex_dynamic_type3app17h223a4c37c29d980aE+0xfa>
   13a90:	4681                	li	a3,0
   13a92:	6509                	lui	a0,0x2
   13a94:	4595                	li	a1,5
   13a96:	461d                	li	a2,7
   13a98:	4709                	li	a4,2
   13a9a:	eac50513          	addi	a0,a0,-340 # 1eac <.Lline_table_start1+0x1c81>
   13a9e:	07f00493          	li	s1,127
   13aa2:	00000073          	ecall
   13aa6:	4689                	li	a3,2
   13aa8:	04a4f063          	bgeu	s1,a0,13ae8 <_ZN20complex_dynamic_type3app17h223a4c37c29d980aE+0xfa>
   13aac:	00214603          	lbu	a2,2(sp)
   13ab0:	00d60a63          	beq	a2,a3,13ac4 <_ZN20complex_dynamic_type3app17h223a4c37c29d980aE+0xd6>
   13ab4:	6509                	lui	a0,0x2
   13ab6:	eac50513          	addi	a0,a0,-340 # 1eac <.Lline_table_start1+0x1c81>
   13aba:	4595                	li	a1,5
   13abc:	0000c097          	auipc	ra,0xc
   13ac0:	0e8080e7          	jalr	232(ra) # 1fba4 <_ZN9allow_pin12dynamic_type7unshare17hb27555f71d22f3b2E>
   13ac4:	03f14603          	lbu	a2,63(sp)
   13ac8:	4409                	li	s0,2
   13aca:	00810123          	sb	s0,2(sp)
   13ace:	00860a63          	beq	a2,s0,13ae2 <_ZN20complex_dynamic_type3app17h223a4c37c29d980aE+0xf4>
   13ad2:	6509                	lui	a0,0x2
   13ad4:	eac50513          	addi	a0,a0,-340 # 1eac <.Lline_table_start1+0x1c81>
   13ad8:	459d                	li	a1,7
   13ada:	0000c097          	auipc	ra,0xc
   13ade:	0ca080e7          	jalr	202(ra) # 1fba4 <_ZN9allow_pin12dynamic_type7unshare17hb27555f71d22f3b2E>
   13ae2:	4781                	li	a5,0
   13ae4:	02810fa3          	sb	s0,63(sp)
   13ae8:	cb85                	beqz	a5,13b18 <_ZN20complex_dynamic_type3app17h223a4c37c29d980aE+0x12a>
   13aea:	03f14603          	lbu	a2,63(sp)
   13aee:	4505                	li	a0,1
   13af0:	4409                	li	s0,2
   13af2:	00a90023          	sb	a0,0(s2)
   13af6:	00b92223          	sw	a1,4(s2)
   13afa:	00860a63          	beq	a2,s0,13b0e <_ZN20complex_dynamic_type3app17h223a4c37c29d980aE+0x120>
   13afe:	6509                	lui	a0,0x2
   13b00:	eac50513          	addi	a0,a0,-340 # 1eac <.Lline_table_start1+0x1c81>
   13b04:	459d                	li	a1,7
   13b06:	0000c097          	auipc	ra,0xc
   13b0a:	09e080e7          	jalr	158(ra) # 1fba4 <_ZN9allow_pin12dynamic_type7unshare17hb27555f71d22f3b2E>
   13b0e:	00214603          	lbu	a2,2(sp)
   13b12:	04861763          	bne	a2,s0,13b60 <_ZN20complex_dynamic_type3app17h223a4c37c29d980aE+0x172>
   13b16:	a8a9                	j	13b70 <_ZN20complex_dynamic_type3app17h223a4c37c29d980aE+0x182>
   13b18:	03f14403          	lbu	s0,63(sp)
   13b1c:	4489                	li	s1,2
   13b1e:	00940663          	beq	s0,s1,13b2a <_ZN20complex_dynamic_type3app17h223a4c37c29d980aE+0x13c>
   13b22:	000109b7          	lui	s3,0x10
   13b26:	72e98993          	addi	s3,s3,1838 # 1072e <.Lanon.49c9f8067fe4468184af16d7576940c9.33>
   13b2a:	00190513          	addi	a0,s2,1
   13b2e:	02c00613          	li	a2,44
   13b32:	85ce                	mv	a1,s3
   13b34:	0000c097          	auipc	ra,0xc
   13b38:	0e8080e7          	jalr	232(ra) # 1fc1c <memcpy>
   13b3c:	00090023          	sb	zero,0(s2)
   13b40:	00940b63          	beq	s0,s1,13b56 <_ZN20complex_dynamic_type3app17h223a4c37c29d980aE+0x168>
   13b44:	6509                	lui	a0,0x2
   13b46:	eac50513          	addi	a0,a0,-340 # 1eac <.Lline_table_start1+0x1c81>
   13b4a:	459d                	li	a1,7
   13b4c:	8622                	mv	a2,s0
   13b4e:	0000c097          	auipc	ra,0xc
   13b52:	056080e7          	jalr	86(ra) # 1fba4 <_ZN9allow_pin12dynamic_type7unshare17hb27555f71d22f3b2E>
   13b56:	00214603          	lbu	a2,2(sp)
   13b5a:	4509                	li	a0,2
   13b5c:	00a60a63          	beq	a2,a0,13b70 <_ZN20complex_dynamic_type3app17h223a4c37c29d980aE+0x182>
   13b60:	6509                	lui	a0,0x2
   13b62:	eac50513          	addi	a0,a0,-340 # 1eac <.Lline_table_start1+0x1c81>
   13b66:	4595                	li	a1,5
   13b68:	0000c097          	auipc	ra,0xc
   13b6c:	03c080e7          	jalr	60(ra) # 1fba4 <_ZN9allow_pin12dynamic_type7unshare17hb27555f71d22f3b2E>
   13b70:	50f6                	lw	ra,124(sp)
   13b72:	5466                	lw	s0,120(sp)
   13b74:	54d6                	lw	s1,116(sp)
   13b76:	5946                	lw	s2,112(sp)
   13b78:	59b6                	lw	s3,108(sp)
   13b7a:	6109                	addi	sp,sp,128
   13b7c:	8082                	ret

00013b7e <_ZN20complex_dynamic_type3app17h228aeda1c7331d25E>:
   13b7e:	7175                	addi	sp,sp,-144
   13b80:	c706                	sw	ra,140(sp)
   13b82:	c522                	sw	s0,136(sp)
   13b84:	c326                	sw	s1,132(sp)
   13b86:	c14a                	sw	s2,128(sp)
   13b88:	dece                	sw	s3,124(sp)
   13b8a:	892a                	mv	s2,a0
   13b8c:	4489                	li	s1,2
   13b8e:	009100a3          	sb	s1,1(sp)
   13b92:	00210413          	addi	s0,sp,2
   13b96:	4671                	li	a2,28
   13b98:	8522                	mv	a0,s0
   13b9a:	0000c097          	auipc	ra,0xc
   13b9e:	082080e7          	jalr	130(ra) # 1fc1c <memcpy>
   13ba2:	01f10993          	addi	s3,sp,31
   13ba6:	05d00613          	li	a2,93
   13baa:	854e                	mv	a0,s3
   13bac:	4581                	li	a1,0
   13bae:	0000c097          	auipc	ra,0xc
   13bb2:	002080e7          	jalr	2(ra) # 1fbb0 <memset>
   13bb6:	8622                	mv	a2,s0
   13bb8:	00910f23          	sb	s1,30(sp)
   13bbc:	6505                	lui	a0,0x1
   13bbe:	4791                	li	a5,4
   13bc0:	45a1                	li	a1,8
   13bc2:	c3e50513          	addi	a0,a0,-962 # c3e <.Lline_table_start1+0xa13>
   13bc6:	46f1                	li	a3,28
   13bc8:	4711                	li	a4,4
   13bca:	00000073          	ecall
   13bce:	00950463          	beq	a0,s1,13bd6 <_ZN20complex_dynamic_type3app17h228aeda1c7331d25E+0x58>
   13bd2:	00f100a3          	sb	a5,1(sp)
   13bd6:	4609                	li	a2,2
   13bd8:	00c51463          	bne	a0,a2,13be0 <_ZN20complex_dynamic_type3app17h228aeda1c7331d25E+0x62>
   13bdc:	4785                	li	a5,1
   13bde:	a859                	j	13c74 <_ZN20complex_dynamic_type3app17h228aeda1c7331d25E+0xf6>
   13be0:	01e14503          	lbu	a0,30(sp)
   13be4:	4785                	li	a5,1
   13be6:	02c51363          	bne	a0,a2,13c0c <_ZN20complex_dynamic_type3app17h228aeda1c7331d25E+0x8e>
   13bea:	864e                	mv	a2,s3
   13bec:	6505                	lui	a0,0x1
   13bee:	4595                	li	a1,5
   13bf0:	05d00693          	li	a3,93
   13bf4:	470d                	li	a4,3
   13bf6:	c3e50513          	addi	a0,a0,-962 # c3e <.Lline_table_start1+0xa13>
   13bfa:	4489                	li	s1,2
   13bfc:	00000073          	ecall
   13c00:	460d                	li	a2,3
   13c02:	00951963          	bne	a0,s1,13c14 <_ZN20complex_dynamic_type3app17h228aeda1c7331d25E+0x96>
   13c06:	4505                	li	a0,1
   13c08:	c911                	beqz	a0,13c1c <_ZN20complex_dynamic_type3app17h228aeda1c7331d25E+0x9e>
   13c0a:	a0ad                	j	13c74 <_ZN20complex_dynamic_type3app17h228aeda1c7331d25E+0xf6>
   13c0c:	458d                	li	a1,3
   13c0e:	4505                	li	a0,1
   13c10:	c511                	beqz	a0,13c1c <_ZN20complex_dynamic_type3app17h228aeda1c7331d25E+0x9e>
   13c12:	a08d                	j	13c74 <_ZN20complex_dynamic_type3app17h228aeda1c7331d25E+0xf6>
   13c14:	4501                	li	a0,0
   13c16:	00c10f23          	sb	a2,30(sp)
   13c1a:	ed29                	bnez	a0,13c74 <_ZN20complex_dynamic_type3app17h228aeda1c7331d25E+0xf6>
   13c1c:	4681                	li	a3,0
   13c1e:	6505                	lui	a0,0x1
   13c20:	45a1                	li	a1,8
   13c22:	4615                	li	a2,5
   13c24:	4709                	li	a4,2
   13c26:	c3e50513          	addi	a0,a0,-962 # c3e <.Lline_table_start1+0xa13>
   13c2a:	07f00493          	li	s1,127
   13c2e:	00000073          	ecall
   13c32:	4689                	li	a3,2
   13c34:	04a4f063          	bgeu	s1,a0,13c74 <_ZN20complex_dynamic_type3app17h228aeda1c7331d25E+0xf6>
   13c38:	00114603          	lbu	a2,1(sp)
   13c3c:	00d60a63          	beq	a2,a3,13c50 <_ZN20complex_dynamic_type3app17h228aeda1c7331d25E+0xd2>
   13c40:	6505                	lui	a0,0x1
   13c42:	c3e50513          	addi	a0,a0,-962 # c3e <.Lline_table_start1+0xa13>
   13c46:	45a1                	li	a1,8
   13c48:	0000c097          	auipc	ra,0xc
   13c4c:	f5c080e7          	jalr	-164(ra) # 1fba4 <_ZN9allow_pin12dynamic_type7unshare17hb27555f71d22f3b2E>
   13c50:	01e14603          	lbu	a2,30(sp)
   13c54:	4409                	li	s0,2
   13c56:	008100a3          	sb	s0,1(sp)
   13c5a:	00860a63          	beq	a2,s0,13c6e <_ZN20complex_dynamic_type3app17h228aeda1c7331d25E+0xf0>
   13c5e:	6505                	lui	a0,0x1
   13c60:	c3e50513          	addi	a0,a0,-962 # c3e <.Lline_table_start1+0xa13>
   13c64:	4595                	li	a1,5
   13c66:	0000c097          	auipc	ra,0xc
   13c6a:	f3e080e7          	jalr	-194(ra) # 1fba4 <_ZN9allow_pin12dynamic_type7unshare17hb27555f71d22f3b2E>
   13c6e:	4781                	li	a5,0
   13c70:	00810f23          	sb	s0,30(sp)
   13c74:	cb85                	beqz	a5,13ca4 <_ZN20complex_dynamic_type3app17h228aeda1c7331d25E+0x126>
   13c76:	01e14603          	lbu	a2,30(sp)
   13c7a:	4505                	li	a0,1
   13c7c:	4409                	li	s0,2
   13c7e:	00a90023          	sb	a0,0(s2)
   13c82:	00b92223          	sw	a1,4(s2)
   13c86:	00860a63          	beq	a2,s0,13c9a <_ZN20complex_dynamic_type3app17h228aeda1c7331d25E+0x11c>
   13c8a:	6505                	lui	a0,0x1
   13c8c:	c3e50513          	addi	a0,a0,-962 # c3e <.Lline_table_start1+0xa13>
   13c90:	4595                	li	a1,5
   13c92:	0000c097          	auipc	ra,0xc
   13c96:	f12080e7          	jalr	-238(ra) # 1fba4 <_ZN9allow_pin12dynamic_type7unshare17hb27555f71d22f3b2E>
   13c9a:	00114603          	lbu	a2,1(sp)
   13c9e:	04861763          	bne	a2,s0,13cec <_ZN20complex_dynamic_type3app17h228aeda1c7331d25E+0x16e>
   13ca2:	a8a9                	j	13cfc <_ZN20complex_dynamic_type3app17h228aeda1c7331d25E+0x17e>
   13ca4:	01e14403          	lbu	s0,30(sp)
   13ca8:	4489                	li	s1,2
   13caa:	00940663          	beq	s0,s1,13cb6 <_ZN20complex_dynamic_type3app17h228aeda1c7331d25E+0x138>
   13cae:	000109b7          	lui	s3,0x10
   13cb2:	55698993          	addi	s3,s3,1366 # 10556 <.Lanon.49c9f8067fe4468184af16d7576940c9.25>
   13cb6:	00190513          	addi	a0,s2,1
   13cba:	05d00613          	li	a2,93
   13cbe:	85ce                	mv	a1,s3
   13cc0:	0000c097          	auipc	ra,0xc
   13cc4:	f5c080e7          	jalr	-164(ra) # 1fc1c <memcpy>
   13cc8:	00090023          	sb	zero,0(s2)
   13ccc:	00940b63          	beq	s0,s1,13ce2 <_ZN20complex_dynamic_type3app17h228aeda1c7331d25E+0x164>
   13cd0:	6505                	lui	a0,0x1
   13cd2:	c3e50513          	addi	a0,a0,-962 # c3e <.Lline_table_start1+0xa13>
   13cd6:	4595                	li	a1,5
   13cd8:	8622                	mv	a2,s0
   13cda:	0000c097          	auipc	ra,0xc
   13cde:	eca080e7          	jalr	-310(ra) # 1fba4 <_ZN9allow_pin12dynamic_type7unshare17hb27555f71d22f3b2E>
   13ce2:	00114603          	lbu	a2,1(sp)
   13ce6:	4509                	li	a0,2
   13ce8:	00a60a63          	beq	a2,a0,13cfc <_ZN20complex_dynamic_type3app17h228aeda1c7331d25E+0x17e>
   13cec:	6505                	lui	a0,0x1
   13cee:	c3e50513          	addi	a0,a0,-962 # c3e <.Lline_table_start1+0xa13>
   13cf2:	45a1                	li	a1,8
   13cf4:	0000c097          	auipc	ra,0xc
   13cf8:	eb0080e7          	jalr	-336(ra) # 1fba4 <_ZN9allow_pin12dynamic_type7unshare17hb27555f71d22f3b2E>
   13cfc:	40ba                	lw	ra,140(sp)
   13cfe:	442a                	lw	s0,136(sp)
   13d00:	449a                	lw	s1,132(sp)
   13d02:	490a                	lw	s2,128(sp)
   13d04:	59f6                	lw	s3,124(sp)
   13d06:	6149                	addi	sp,sp,144
   13d08:	8082                	ret

00013d0a <_ZN20complex_dynamic_type3app17h24d6e9add4ba2954E>:
   13d0a:	711d                	addi	sp,sp,-96
   13d0c:	ce86                	sw	ra,92(sp)
   13d0e:	cca2                	sw	s0,88(sp)
   13d10:	caa6                	sw	s1,84(sp)
   13d12:	c8ca                	sw	s2,80(sp)
   13d14:	c6ce                	sw	s3,76(sp)
   13d16:	892a                	mv	s2,a0
   13d18:	4489                	li	s1,2
   13d1a:	00910023          	sb	s1,0(sp)
   13d1e:	00110413          	addi	s0,sp,1
   13d22:	4679                	li	a2,30
   13d24:	8522                	mv	a0,s0
   13d26:	0000c097          	auipc	ra,0xc
   13d2a:	ef6080e7          	jalr	-266(ra) # 1fc1c <memcpy>
   13d2e:	02010993          	addi	s3,sp,32
   13d32:	02c00613          	li	a2,44
   13d36:	854e                	mv	a0,s3
   13d38:	4581                	li	a1,0
   13d3a:	0000c097          	auipc	ra,0xc
   13d3e:	e76080e7          	jalr	-394(ra) # 1fbb0 <memset>
   13d42:	8622                	mv	a2,s0
   13d44:	00910fa3          	sb	s1,31(sp)
   13d48:	4791                	li	a5,4
   13d4a:	3fb00513          	li	a0,1019
   13d4e:	459d                	li	a1,7
   13d50:	46f9                	li	a3,30
   13d52:	4711                	li	a4,4
   13d54:	00000073          	ecall
   13d58:	00950463          	beq	a0,s1,13d60 <_ZN20complex_dynamic_type3app17h24d6e9add4ba2954E+0x56>
   13d5c:	00f10023          	sb	a5,0(sp)
   13d60:	4609                	li	a2,2
   13d62:	00c51463          	bne	a0,a2,13d6a <_ZN20complex_dynamic_type3app17h24d6e9add4ba2954E+0x60>
   13d66:	4785                	li	a5,1
   13d68:	a079                	j	13df6 <_ZN20complex_dynamic_type3app17h24d6e9add4ba2954E+0xec>
   13d6a:	01f14503          	lbu	a0,31(sp)
   13d6e:	4785                	li	a5,1
   13d70:	02c51263          	bne	a0,a2,13d94 <_ZN20complex_dynamic_type3app17h24d6e9add4ba2954E+0x8a>
   13d74:	4581                	li	a1,0
   13d76:	864e                	mv	a2,s3
   13d78:	3fb00513          	li	a0,1019
   13d7c:	02c00693          	li	a3,44
   13d80:	470d                	li	a4,3
   13d82:	4489                	li	s1,2
   13d84:	00000073          	ecall
   13d88:	460d                	li	a2,3
   13d8a:	00951963          	bne	a0,s1,13d9c <_ZN20complex_dynamic_type3app17h24d6e9add4ba2954E+0x92>
   13d8e:	4505                	li	a0,1
   13d90:	c911                	beqz	a0,13da4 <_ZN20complex_dynamic_type3app17h24d6e9add4ba2954E+0x9a>
   13d92:	a095                	j	13df6 <_ZN20complex_dynamic_type3app17h24d6e9add4ba2954E+0xec>
   13d94:	458d                	li	a1,3
   13d96:	4505                	li	a0,1
   13d98:	c511                	beqz	a0,13da4 <_ZN20complex_dynamic_type3app17h24d6e9add4ba2954E+0x9a>
   13d9a:	a8b1                	j	13df6 <_ZN20complex_dynamic_type3app17h24d6e9add4ba2954E+0xec>
   13d9c:	4501                	li	a0,0
   13d9e:	00c10fa3          	sb	a2,31(sp)
   13da2:	e931                	bnez	a0,13df6 <_ZN20complex_dynamic_type3app17h24d6e9add4ba2954E+0xec>
   13da4:	4601                	li	a2,0
   13da6:	4681                	li	a3,0
   13da8:	3fb00513          	li	a0,1019
   13dac:	459d                	li	a1,7
   13dae:	4709                	li	a4,2
   13db0:	07f00493          	li	s1,127
   13db4:	00000073          	ecall
   13db8:	4689                	li	a3,2
   13dba:	02a4fe63          	bgeu	s1,a0,13df6 <_ZN20complex_dynamic_type3app17h24d6e9add4ba2954E+0xec>
   13dbe:	00014603          	lbu	a2,0(sp)
   13dc2:	00d60963          	beq	a2,a3,13dd4 <_ZN20complex_dynamic_type3app17h24d6e9add4ba2954E+0xca>
   13dc6:	3fb00513          	li	a0,1019
   13dca:	459d                	li	a1,7
   13dcc:	0000c097          	auipc	ra,0xc
   13dd0:	dd8080e7          	jalr	-552(ra) # 1fba4 <_ZN9allow_pin12dynamic_type7unshare17hb27555f71d22f3b2E>
   13dd4:	01f14603          	lbu	a2,31(sp)
   13dd8:	4409                	li	s0,2
   13dda:	00810023          	sb	s0,0(sp)
   13dde:	00860963          	beq	a2,s0,13df0 <_ZN20complex_dynamic_type3app17h24d6e9add4ba2954E+0xe6>
   13de2:	3fb00513          	li	a0,1019
   13de6:	4581                	li	a1,0
   13de8:	0000c097          	auipc	ra,0xc
   13dec:	dbc080e7          	jalr	-580(ra) # 1fba4 <_ZN9allow_pin12dynamic_type7unshare17hb27555f71d22f3b2E>
   13df0:	4781                	li	a5,0
   13df2:	00810fa3          	sb	s0,31(sp)
   13df6:	c79d                	beqz	a5,13e24 <_ZN20complex_dynamic_type3app17h24d6e9add4ba2954E+0x11a>
   13df8:	01f14603          	lbu	a2,31(sp)
   13dfc:	4505                	li	a0,1
   13dfe:	4409                	li	s0,2
   13e00:	00a90023          	sb	a0,0(s2)
   13e04:	00b92223          	sw	a1,4(s2)
   13e08:	00860963          	beq	a2,s0,13e1a <_ZN20complex_dynamic_type3app17h24d6e9add4ba2954E+0x110>
   13e0c:	3fb00513          	li	a0,1019
   13e10:	4581                	li	a1,0
   13e12:	0000c097          	auipc	ra,0xc
   13e16:	d92080e7          	jalr	-622(ra) # 1fba4 <_ZN9allow_pin12dynamic_type7unshare17hb27555f71d22f3b2E>
   13e1a:	00014603          	lbu	a2,0(sp)
   13e1e:	04861663          	bne	a2,s0,13e6a <_ZN20complex_dynamic_type3app17h24d6e9add4ba2954E+0x160>
   13e22:	a899                	j	13e78 <_ZN20complex_dynamic_type3app17h24d6e9add4ba2954E+0x16e>
   13e24:	01f14403          	lbu	s0,31(sp)
   13e28:	4489                	li	s1,2
   13e2a:	00940663          	beq	s0,s1,13e36 <_ZN20complex_dynamic_type3app17h24d6e9add4ba2954E+0x12c>
   13e2e:	000109b7          	lui	s3,0x10
   13e32:	72e98993          	addi	s3,s3,1838 # 1072e <.Lanon.49c9f8067fe4468184af16d7576940c9.33>
   13e36:	00190513          	addi	a0,s2,1
   13e3a:	02c00613          	li	a2,44
   13e3e:	85ce                	mv	a1,s3
   13e40:	0000c097          	auipc	ra,0xc
   13e44:	ddc080e7          	jalr	-548(ra) # 1fc1c <memcpy>
   13e48:	00090023          	sb	zero,0(s2)
   13e4c:	00940a63          	beq	s0,s1,13e60 <_ZN20complex_dynamic_type3app17h24d6e9add4ba2954E+0x156>
   13e50:	3fb00513          	li	a0,1019
   13e54:	4581                	li	a1,0
   13e56:	8622                	mv	a2,s0
   13e58:	0000c097          	auipc	ra,0xc
   13e5c:	d4c080e7          	jalr	-692(ra) # 1fba4 <_ZN9allow_pin12dynamic_type7unshare17hb27555f71d22f3b2E>
   13e60:	00014603          	lbu	a2,0(sp)
   13e64:	4509                	li	a0,2
   13e66:	00a60963          	beq	a2,a0,13e78 <_ZN20complex_dynamic_type3app17h24d6e9add4ba2954E+0x16e>
   13e6a:	3fb00513          	li	a0,1019
   13e6e:	459d                	li	a1,7
   13e70:	0000c097          	auipc	ra,0xc
   13e74:	d34080e7          	jalr	-716(ra) # 1fba4 <_ZN9allow_pin12dynamic_type7unshare17hb27555f71d22f3b2E>
   13e78:	40f6                	lw	ra,92(sp)
   13e7a:	4466                	lw	s0,88(sp)
   13e7c:	44d6                	lw	s1,84(sp)
   13e7e:	4946                	lw	s2,80(sp)
   13e80:	49b6                	lw	s3,76(sp)
   13e82:	6125                	addi	sp,sp,96
   13e84:	8082                	ret

00013e86 <_ZN20complex_dynamic_type3app17h2fcc9740b0632be2E>:
   13e86:	7159                	addi	sp,sp,-112
   13e88:	d686                	sw	ra,108(sp)
   13e8a:	d4a2                	sw	s0,104(sp)
   13e8c:	d2a6                	sw	s1,100(sp)
   13e8e:	d0ca                	sw	s2,96(sp)
   13e90:	cece                	sw	s3,92(sp)
   13e92:	892a                	mv	s2,a0
   13e94:	4489                	li	s1,2
   13e96:	009102a3          	sb	s1,5(sp)
   13e9a:	00610413          	addi	s0,sp,6
   13e9e:	463d                	li	a2,15
   13ea0:	8522                	mv	a0,s0
   13ea2:	0000c097          	auipc	ra,0xc
   13ea6:	d7a080e7          	jalr	-646(ra) # 1fc1c <memcpy>
   13eaa:	01610993          	addi	s3,sp,22
   13eae:	04600613          	li	a2,70
   13eb2:	854e                	mv	a0,s3
   13eb4:	4581                	li	a1,0
   13eb6:	0000c097          	auipc	ra,0xc
   13eba:	cfa080e7          	jalr	-774(ra) # 1fbb0 <memset>
   13ebe:	8622                	mv	a2,s0
   13ec0:	00910aa3          	sb	s1,21(sp)
   13ec4:	6509                	lui	a0,0x2
   13ec6:	4791                	li	a5,4
   13ec8:	45a5                	li	a1,9
   13eca:	d7e50513          	addi	a0,a0,-642 # 1d7e <.Lline_table_start1+0x1b53>
   13ece:	46bd                	li	a3,15
   13ed0:	4711                	li	a4,4
   13ed2:	00000073          	ecall
   13ed6:	00950463          	beq	a0,s1,13ede <_ZN20complex_dynamic_type3app17h2fcc9740b0632be2E+0x58>
   13eda:	00f102a3          	sb	a5,5(sp)
   13ede:	4609                	li	a2,2
   13ee0:	00c51463          	bne	a0,a2,13ee8 <_ZN20complex_dynamic_type3app17h2fcc9740b0632be2E+0x62>
   13ee4:	4785                	li	a5,1
   13ee6:	a859                	j	13f7c <_ZN20complex_dynamic_type3app17h2fcc9740b0632be2E+0xf6>
   13ee8:	01514503          	lbu	a0,21(sp)
   13eec:	4785                	li	a5,1
   13eee:	02c51363          	bne	a0,a2,13f14 <_ZN20complex_dynamic_type3app17h2fcc9740b0632be2E+0x8e>
   13ef2:	864e                	mv	a2,s3
   13ef4:	6509                	lui	a0,0x2
   13ef6:	4409                	li	s0,2
   13ef8:	448d                	li	s1,3
   13efa:	4589                	li	a1,2
   13efc:	d7e50513          	addi	a0,a0,-642 # 1d7e <.Lline_table_start1+0x1b53>
   13f00:	04600693          	li	a3,70
   13f04:	470d                	li	a4,3
   13f06:	00000073          	ecall
   13f0a:	00851963          	bne	a0,s0,13f1c <_ZN20complex_dynamic_type3app17h2fcc9740b0632be2E+0x96>
   13f0e:	4505                	li	a0,1
   13f10:	c911                	beqz	a0,13f24 <_ZN20complex_dynamic_type3app17h2fcc9740b0632be2E+0x9e>
   13f12:	a0ad                	j	13f7c <_ZN20complex_dynamic_type3app17h2fcc9740b0632be2E+0xf6>
   13f14:	458d                	li	a1,3
   13f16:	4505                	li	a0,1
   13f18:	c511                	beqz	a0,13f24 <_ZN20complex_dynamic_type3app17h2fcc9740b0632be2E+0x9e>
   13f1a:	a08d                	j	13f7c <_ZN20complex_dynamic_type3app17h2fcc9740b0632be2E+0xf6>
   13f1c:	4501                	li	a0,0
   13f1e:	00910aa3          	sb	s1,21(sp)
   13f22:	ed29                	bnez	a0,13f7c <_ZN20complex_dynamic_type3app17h2fcc9740b0632be2E+0xf6>
   13f24:	4681                	li	a3,0
   13f26:	6509                	lui	a0,0x2
   13f28:	45a5                	li	a1,9
   13f2a:	4609                	li	a2,2
   13f2c:	4709                	li	a4,2
   13f2e:	d7e50513          	addi	a0,a0,-642 # 1d7e <.Lline_table_start1+0x1b53>
   13f32:	07f00493          	li	s1,127
   13f36:	00000073          	ecall
   13f3a:	4689                	li	a3,2
   13f3c:	04a4f063          	bgeu	s1,a0,13f7c <_ZN20complex_dynamic_type3app17h2fcc9740b0632be2E+0xf6>
   13f40:	00514603          	lbu	a2,5(sp)
   13f44:	00d60a63          	beq	a2,a3,13f58 <_ZN20complex_dynamic_type3app17h2fcc9740b0632be2E+0xd2>
   13f48:	6509                	lui	a0,0x2
   13f4a:	d7e50513          	addi	a0,a0,-642 # 1d7e <.Lline_table_start1+0x1b53>
   13f4e:	45a5                	li	a1,9
   13f50:	0000c097          	auipc	ra,0xc
   13f54:	c54080e7          	jalr	-940(ra) # 1fba4 <_ZN9allow_pin12dynamic_type7unshare17hb27555f71d22f3b2E>
   13f58:	01514603          	lbu	a2,21(sp)
   13f5c:	4409                	li	s0,2
   13f5e:	008102a3          	sb	s0,5(sp)
   13f62:	00860a63          	beq	a2,s0,13f76 <_ZN20complex_dynamic_type3app17h2fcc9740b0632be2E+0xf0>
   13f66:	6509                	lui	a0,0x2
   13f68:	d7e50513          	addi	a0,a0,-642 # 1d7e <.Lline_table_start1+0x1b53>
   13f6c:	4589                	li	a1,2
   13f6e:	0000c097          	auipc	ra,0xc
   13f72:	c36080e7          	jalr	-970(ra) # 1fba4 <_ZN9allow_pin12dynamic_type7unshare17hb27555f71d22f3b2E>
   13f76:	4781                	li	a5,0
   13f78:	00810aa3          	sb	s0,21(sp)
   13f7c:	cb85                	beqz	a5,13fac <_ZN20complex_dynamic_type3app17h2fcc9740b0632be2E+0x126>
   13f7e:	01514603          	lbu	a2,21(sp)
   13f82:	4505                	li	a0,1
   13f84:	4409                	li	s0,2
   13f86:	00a90023          	sb	a0,0(s2)
   13f8a:	00b92223          	sw	a1,4(s2)
   13f8e:	00860a63          	beq	a2,s0,13fa2 <_ZN20complex_dynamic_type3app17h2fcc9740b0632be2E+0x11c>
   13f92:	6509                	lui	a0,0x2
   13f94:	d7e50513          	addi	a0,a0,-642 # 1d7e <.Lline_table_start1+0x1b53>
   13f98:	4589                	li	a1,2
   13f9a:	0000c097          	auipc	ra,0xc
   13f9e:	c0a080e7          	jalr	-1014(ra) # 1fba4 <_ZN9allow_pin12dynamic_type7unshare17hb27555f71d22f3b2E>
   13fa2:	00514603          	lbu	a2,5(sp)
   13fa6:	04861763          	bne	a2,s0,13ff4 <_ZN20complex_dynamic_type3app17h2fcc9740b0632be2E+0x16e>
   13faa:	a8a9                	j	14004 <_ZN20complex_dynamic_type3app17h2fcc9740b0632be2E+0x17e>
   13fac:	01514403          	lbu	s0,21(sp)
   13fb0:	4489                	li	s1,2
   13fb2:	00940663          	beq	s0,s1,13fbe <_ZN20complex_dynamic_type3app17h2fcc9740b0632be2E+0x138>
   13fb6:	000109b7          	lui	s3,0x10
   13fba:	39c98993          	addi	s3,s3,924 # 1039c <.Lanon.49c9f8067fe4468184af16d7576940c9.15>
   13fbe:	00190513          	addi	a0,s2,1
   13fc2:	04600613          	li	a2,70
   13fc6:	85ce                	mv	a1,s3
   13fc8:	0000c097          	auipc	ra,0xc
   13fcc:	c54080e7          	jalr	-940(ra) # 1fc1c <memcpy>
   13fd0:	00090023          	sb	zero,0(s2)
   13fd4:	00940b63          	beq	s0,s1,13fea <_ZN20complex_dynamic_type3app17h2fcc9740b0632be2E+0x164>
   13fd8:	6509                	lui	a0,0x2
   13fda:	d7e50513          	addi	a0,a0,-642 # 1d7e <.Lline_table_start1+0x1b53>
   13fde:	4589                	li	a1,2
   13fe0:	8622                	mv	a2,s0
   13fe2:	0000c097          	auipc	ra,0xc
   13fe6:	bc2080e7          	jalr	-1086(ra) # 1fba4 <_ZN9allow_pin12dynamic_type7unshare17hb27555f71d22f3b2E>
   13fea:	00514603          	lbu	a2,5(sp)
   13fee:	4509                	li	a0,2
   13ff0:	00a60a63          	beq	a2,a0,14004 <_ZN20complex_dynamic_type3app17h2fcc9740b0632be2E+0x17e>
   13ff4:	6509                	lui	a0,0x2
   13ff6:	d7e50513          	addi	a0,a0,-642 # 1d7e <.Lline_table_start1+0x1b53>
   13ffa:	45a5                	li	a1,9
   13ffc:	0000c097          	auipc	ra,0xc
   14000:	ba8080e7          	jalr	-1112(ra) # 1fba4 <_ZN9allow_pin12dynamic_type7unshare17hb27555f71d22f3b2E>
   14004:	50b6                	lw	ra,108(sp)
   14006:	5426                	lw	s0,104(sp)
   14008:	5496                	lw	s1,100(sp)
   1400a:	5906                	lw	s2,96(sp)
   1400c:	49f6                	lw	s3,92(sp)
   1400e:	6165                	addi	sp,sp,112
   14010:	8082                	ret

00014012 <_ZN20complex_dynamic_type3app17h3a6484d7c797dba8E>:
   14012:	7135                	addi	sp,sp,-160
   14014:	cf06                	sw	ra,156(sp)
   14016:	cd22                	sw	s0,152(sp)
   14018:	cb26                	sw	s1,148(sp)
   1401a:	c94a                	sw	s2,144(sp)
   1401c:	c74e                	sw	s3,140(sp)
   1401e:	892a                	mv	s2,a0
   14020:	4489                	li	s1,2
   14022:	009103a3          	sb	s1,7(sp)
   14026:	0020                	addi	s0,sp,8
   14028:	02a00613          	li	a2,42
   1402c:	8522                	mv	a0,s0
   1402e:	0000c097          	auipc	ra,0xc
   14032:	bee080e7          	jalr	-1042(ra) # 1fc1c <memcpy>
   14036:	03310993          	addi	s3,sp,51
   1403a:	05900613          	li	a2,89
   1403e:	854e                	mv	a0,s3
   14040:	4581                	li	a1,0
   14042:	0000c097          	auipc	ra,0xc
   14046:	b6e080e7          	jalr	-1170(ra) # 1fbb0 <memset>
   1404a:	8622                	mv	a2,s0
   1404c:	02910923          	sb	s1,50(sp)
   14050:	6505                	lui	a0,0x1
   14052:	4791                	li	a5,4
   14054:	4585                	li	a1,1
   14056:	ed250513          	addi	a0,a0,-302 # ed2 <.Lline_table_start1+0xca7>
   1405a:	02a00693          	li	a3,42
   1405e:	4711                	li	a4,4
   14060:	00000073          	ecall
   14064:	00950463          	beq	a0,s1,1406c <_ZN20complex_dynamic_type3app17h3a6484d7c797dba8E+0x5a>
   14068:	00f103a3          	sb	a5,7(sp)
   1406c:	4609                	li	a2,2
   1406e:	00c51463          	bne	a0,a2,14076 <_ZN20complex_dynamic_type3app17h3a6484d7c797dba8E+0x64>
   14072:	4785                	li	a5,1
   14074:	a861                	j	1410c <_ZN20complex_dynamic_type3app17h3a6484d7c797dba8E+0xfa>
   14076:	03214503          	lbu	a0,50(sp)
   1407a:	4785                	li	a5,1
   1407c:	02c51363          	bne	a0,a2,140a2 <_ZN20complex_dynamic_type3app17h3a6484d7c797dba8E+0x90>
   14080:	864e                	mv	a2,s3
   14082:	6505                	lui	a0,0x1
   14084:	458d                	li	a1,3
   14086:	05900693          	li	a3,89
   1408a:	470d                	li	a4,3
   1408c:	ed250513          	addi	a0,a0,-302 # ed2 <.Lline_table_start1+0xca7>
   14090:	4489                	li	s1,2
   14092:	00000073          	ecall
   14096:	460d                	li	a2,3
   14098:	00951963          	bne	a0,s1,140aa <_ZN20complex_dynamic_type3app17h3a6484d7c797dba8E+0x98>
   1409c:	4505                	li	a0,1
   1409e:	c911                	beqz	a0,140b2 <_ZN20complex_dynamic_type3app17h3a6484d7c797dba8E+0xa0>
   140a0:	a0b5                	j	1410c <_ZN20complex_dynamic_type3app17h3a6484d7c797dba8E+0xfa>
   140a2:	458d                	li	a1,3
   140a4:	4505                	li	a0,1
   140a6:	c511                	beqz	a0,140b2 <_ZN20complex_dynamic_type3app17h3a6484d7c797dba8E+0xa0>
   140a8:	a095                	j	1410c <_ZN20complex_dynamic_type3app17h3a6484d7c797dba8E+0xfa>
   140aa:	4501                	li	a0,0
   140ac:	02c10923          	sb	a2,50(sp)
   140b0:	ed31                	bnez	a0,1410c <_ZN20complex_dynamic_type3app17h3a6484d7c797dba8E+0xfa>
   140b2:	4681                	li	a3,0
   140b4:	6505                	lui	a0,0x1
   140b6:	4785                	li	a5,1
   140b8:	4585                	li	a1,1
   140ba:	460d                	li	a2,3
   140bc:	4709                	li	a4,2
   140be:	ed250513          	addi	a0,a0,-302 # ed2 <.Lline_table_start1+0xca7>
   140c2:	07f00493          	li	s1,127
   140c6:	00000073          	ecall
   140ca:	4689                	li	a3,2
   140cc:	04a4f063          	bgeu	s1,a0,1410c <_ZN20complex_dynamic_type3app17h3a6484d7c797dba8E+0xfa>
   140d0:	00714603          	lbu	a2,7(sp)
   140d4:	00d60a63          	beq	a2,a3,140e8 <_ZN20complex_dynamic_type3app17h3a6484d7c797dba8E+0xd6>
   140d8:	6505                	lui	a0,0x1
   140da:	ed250513          	addi	a0,a0,-302 # ed2 <.Lline_table_start1+0xca7>
   140de:	4585                	li	a1,1
   140e0:	0000c097          	auipc	ra,0xc
   140e4:	ac4080e7          	jalr	-1340(ra) # 1fba4 <_ZN9allow_pin12dynamic_type7unshare17hb27555f71d22f3b2E>
   140e8:	03214603          	lbu	a2,50(sp)
   140ec:	4409                	li	s0,2
   140ee:	008103a3          	sb	s0,7(sp)
   140f2:	00860a63          	beq	a2,s0,14106 <_ZN20complex_dynamic_type3app17h3a6484d7c797dba8E+0xf4>
   140f6:	6505                	lui	a0,0x1
   140f8:	ed250513          	addi	a0,a0,-302 # ed2 <.Lline_table_start1+0xca7>
   140fc:	458d                	li	a1,3
   140fe:	0000c097          	auipc	ra,0xc
   14102:	aa6080e7          	jalr	-1370(ra) # 1fba4 <_ZN9allow_pin12dynamic_type7unshare17hb27555f71d22f3b2E>
   14106:	4781                	li	a5,0
   14108:	02810923          	sb	s0,50(sp)
   1410c:	cb85                	beqz	a5,1413c <_ZN20complex_dynamic_type3app17h3a6484d7c797dba8E+0x12a>
   1410e:	03214603          	lbu	a2,50(sp)
   14112:	4505                	li	a0,1
   14114:	4409                	li	s0,2
   14116:	00a90023          	sb	a0,0(s2)
   1411a:	00b92223          	sw	a1,4(s2)
   1411e:	00860a63          	beq	a2,s0,14132 <_ZN20complex_dynamic_type3app17h3a6484d7c797dba8E+0x120>
   14122:	6505                	lui	a0,0x1
   14124:	ed250513          	addi	a0,a0,-302 # ed2 <.Lline_table_start1+0xca7>
   14128:	458d                	li	a1,3
   1412a:	0000c097          	auipc	ra,0xc
   1412e:	a7a080e7          	jalr	-1414(ra) # 1fba4 <_ZN9allow_pin12dynamic_type7unshare17hb27555f71d22f3b2E>
   14132:	00714603          	lbu	a2,7(sp)
   14136:	04861763          	bne	a2,s0,14184 <_ZN20complex_dynamic_type3app17h3a6484d7c797dba8E+0x172>
   1413a:	a8a9                	j	14194 <_ZN20complex_dynamic_type3app17h3a6484d7c797dba8E+0x182>
   1413c:	03214403          	lbu	s0,50(sp)
   14140:	4489                	li	s1,2
   14142:	00940663          	beq	s0,s1,1414e <_ZN20complex_dynamic_type3app17h3a6484d7c797dba8E+0x13c>
   14146:	000119b7          	lui	s3,0x11
   1414a:	ba198993          	addi	s3,s3,-1119 # 10ba1 <.Lanon.49c9f8067fe4468184af16d7576940c9.54>
   1414e:	00190513          	addi	a0,s2,1
   14152:	05900613          	li	a2,89
   14156:	85ce                	mv	a1,s3
   14158:	0000c097          	auipc	ra,0xc
   1415c:	ac4080e7          	jalr	-1340(ra) # 1fc1c <memcpy>
   14160:	00090023          	sb	zero,0(s2)
   14164:	00940b63          	beq	s0,s1,1417a <_ZN20complex_dynamic_type3app17h3a6484d7c797dba8E+0x168>
   14168:	6505                	lui	a0,0x1
   1416a:	ed250513          	addi	a0,a0,-302 # ed2 <.Lline_table_start1+0xca7>
   1416e:	458d                	li	a1,3
   14170:	8622                	mv	a2,s0
   14172:	0000c097          	auipc	ra,0xc
   14176:	a32080e7          	jalr	-1486(ra) # 1fba4 <_ZN9allow_pin12dynamic_type7unshare17hb27555f71d22f3b2E>
   1417a:	00714603          	lbu	a2,7(sp)
   1417e:	4509                	li	a0,2
   14180:	00a60a63          	beq	a2,a0,14194 <_ZN20complex_dynamic_type3app17h3a6484d7c797dba8E+0x182>
   14184:	6505                	lui	a0,0x1
   14186:	ed250513          	addi	a0,a0,-302 # ed2 <.Lline_table_start1+0xca7>
   1418a:	4585                	li	a1,1
   1418c:	0000c097          	auipc	ra,0xc
   14190:	a18080e7          	jalr	-1512(ra) # 1fba4 <_ZN9allow_pin12dynamic_type7unshare17hb27555f71d22f3b2E>
   14194:	40fa                	lw	ra,156(sp)
   14196:	446a                	lw	s0,152(sp)
   14198:	44da                	lw	s1,148(sp)
   1419a:	494a                	lw	s2,144(sp)
   1419c:	49ba                	lw	s3,140(sp)
   1419e:	610d                	addi	sp,sp,160
   141a0:	8082                	ret

000141a2 <_ZN20complex_dynamic_type3app17h3c74f963a1a3a5a4E>:
   141a2:	7135                	addi	sp,sp,-160
   141a4:	cf06                	sw	ra,156(sp)
   141a6:	cd22                	sw	s0,152(sp)
   141a8:	cb26                	sw	s1,148(sp)
   141aa:	c94a                	sw	s2,144(sp)
   141ac:	c74e                	sw	s3,140(sp)
   141ae:	892a                	mv	s2,a0
   141b0:	4489                	li	s1,2
   141b2:	00910623          	sb	s1,12(sp)
   141b6:	00d10413          	addi	s0,sp,13
   141ba:	466d                	li	a2,27
   141bc:	8522                	mv	a0,s0
   141be:	0000c097          	auipc	ra,0xc
   141c2:	a5e080e7          	jalr	-1442(ra) # 1fc1c <memcpy>
   141c6:	02910993          	addi	s3,sp,41
   141ca:	06300613          	li	a2,99
   141ce:	854e                	mv	a0,s3
   141d0:	4581                	li	a1,0
   141d2:	0000c097          	auipc	ra,0xc
   141d6:	9de080e7          	jalr	-1570(ra) # 1fbb0 <memset>
   141da:	8622                	mv	a2,s0
   141dc:	02910423          	sb	s1,40(sp)
   141e0:	6509                	lui	a0,0x2
   141e2:	4791                	li	a5,4
   141e4:	458d                	li	a1,3
   141e6:	54850513          	addi	a0,a0,1352 # 2548 <.Lline_table_start1+0x231d>
   141ea:	46ed                	li	a3,27
   141ec:	4711                	li	a4,4
   141ee:	00000073          	ecall
   141f2:	00950463          	beq	a0,s1,141fa <_ZN20complex_dynamic_type3app17h3c74f963a1a3a5a4E+0x58>
   141f6:	00f10623          	sb	a5,12(sp)
   141fa:	4609                	li	a2,2
   141fc:	00c51463          	bne	a0,a2,14204 <_ZN20complex_dynamic_type3app17h3c74f963a1a3a5a4E+0x62>
   14200:	4785                	li	a5,1
   14202:	a859                	j	14298 <_ZN20complex_dynamic_type3app17h3c74f963a1a3a5a4E+0xf6>
   14204:	02814503          	lbu	a0,40(sp)
   14208:	4785                	li	a5,1
   1420a:	02c51363          	bne	a0,a2,14230 <_ZN20complex_dynamic_type3app17h3c74f963a1a3a5a4E+0x8e>
   1420e:	864e                	mv	a2,s3
   14210:	6509                	lui	a0,0x2
   14212:	458d                	li	a1,3
   14214:	06300693          	li	a3,99
   14218:	470d                	li	a4,3
   1421a:	54850513          	addi	a0,a0,1352 # 2548 <.Lline_table_start1+0x231d>
   1421e:	4489                	li	s1,2
   14220:	00000073          	ecall
   14224:	460d                	li	a2,3
   14226:	00951963          	bne	a0,s1,14238 <_ZN20complex_dynamic_type3app17h3c74f963a1a3a5a4E+0x96>
   1422a:	4505                	li	a0,1
   1422c:	c911                	beqz	a0,14240 <_ZN20complex_dynamic_type3app17h3c74f963a1a3a5a4E+0x9e>
   1422e:	a0ad                	j	14298 <_ZN20complex_dynamic_type3app17h3c74f963a1a3a5a4E+0xf6>
   14230:	458d                	li	a1,3
   14232:	4505                	li	a0,1
   14234:	c511                	beqz	a0,14240 <_ZN20complex_dynamic_type3app17h3c74f963a1a3a5a4E+0x9e>
   14236:	a08d                	j	14298 <_ZN20complex_dynamic_type3app17h3c74f963a1a3a5a4E+0xf6>
   14238:	4501                	li	a0,0
   1423a:	02c10423          	sb	a2,40(sp)
   1423e:	ed29                	bnez	a0,14298 <_ZN20complex_dynamic_type3app17h3c74f963a1a3a5a4E+0xf6>
   14240:	4681                	li	a3,0
   14242:	6509                	lui	a0,0x2
   14244:	458d                	li	a1,3
   14246:	460d                	li	a2,3
   14248:	4709                	li	a4,2
   1424a:	54850513          	addi	a0,a0,1352 # 2548 <.Lline_table_start1+0x231d>
   1424e:	07f00493          	li	s1,127
   14252:	00000073          	ecall
   14256:	4689                	li	a3,2
   14258:	04a4f063          	bgeu	s1,a0,14298 <_ZN20complex_dynamic_type3app17h3c74f963a1a3a5a4E+0xf6>
   1425c:	00c14603          	lbu	a2,12(sp)
   14260:	00d60a63          	beq	a2,a3,14274 <_ZN20complex_dynamic_type3app17h3c74f963a1a3a5a4E+0xd2>
   14264:	6509                	lui	a0,0x2
   14266:	54850513          	addi	a0,a0,1352 # 2548 <.Lline_table_start1+0x231d>
   1426a:	458d                	li	a1,3
   1426c:	0000c097          	auipc	ra,0xc
   14270:	938080e7          	jalr	-1736(ra) # 1fba4 <_ZN9allow_pin12dynamic_type7unshare17hb27555f71d22f3b2E>
   14274:	02814603          	lbu	a2,40(sp)
   14278:	4409                	li	s0,2
   1427a:	00810623          	sb	s0,12(sp)
   1427e:	00860a63          	beq	a2,s0,14292 <_ZN20complex_dynamic_type3app17h3c74f963a1a3a5a4E+0xf0>
   14282:	6509                	lui	a0,0x2
   14284:	54850513          	addi	a0,a0,1352 # 2548 <.Lline_table_start1+0x231d>
   14288:	458d                	li	a1,3
   1428a:	0000c097          	auipc	ra,0xc
   1428e:	91a080e7          	jalr	-1766(ra) # 1fba4 <_ZN9allow_pin12dynamic_type7unshare17hb27555f71d22f3b2E>
   14292:	4781                	li	a5,0
   14294:	02810423          	sb	s0,40(sp)
   14298:	cb85                	beqz	a5,142c8 <_ZN20complex_dynamic_type3app17h3c74f963a1a3a5a4E+0x126>
   1429a:	02814603          	lbu	a2,40(sp)
   1429e:	4505                	li	a0,1
   142a0:	4409                	li	s0,2
   142a2:	00a90023          	sb	a0,0(s2)
   142a6:	00b92223          	sw	a1,4(s2)
   142aa:	00860a63          	beq	a2,s0,142be <_ZN20complex_dynamic_type3app17h3c74f963a1a3a5a4E+0x11c>
   142ae:	6509                	lui	a0,0x2
   142b0:	54850513          	addi	a0,a0,1352 # 2548 <.Lline_table_start1+0x231d>
   142b4:	458d                	li	a1,3
   142b6:	0000c097          	auipc	ra,0xc
   142ba:	8ee080e7          	jalr	-1810(ra) # 1fba4 <_ZN9allow_pin12dynamic_type7unshare17hb27555f71d22f3b2E>
   142be:	00c14603          	lbu	a2,12(sp)
   142c2:	04861763          	bne	a2,s0,14310 <_ZN20complex_dynamic_type3app17h3c74f963a1a3a5a4E+0x16e>
   142c6:	a8a9                	j	14320 <_ZN20complex_dynamic_type3app17h3c74f963a1a3a5a4E+0x17e>
   142c8:	02814403          	lbu	s0,40(sp)
   142cc:	4489                	li	s1,2
   142ce:	00940663          	beq	s0,s1,142da <_ZN20complex_dynamic_type3app17h3c74f963a1a3a5a4E+0x138>
   142d2:	000109b7          	lui	s3,0x10
   142d6:	7df98993          	addi	s3,s3,2015 # 107df <.Lanon.49c9f8067fe4468184af16d7576940c9.37>
   142da:	00190513          	addi	a0,s2,1
   142de:	06300613          	li	a2,99
   142e2:	85ce                	mv	a1,s3
   142e4:	0000c097          	auipc	ra,0xc
   142e8:	938080e7          	jalr	-1736(ra) # 1fc1c <memcpy>
   142ec:	00090023          	sb	zero,0(s2)
   142f0:	00940b63          	beq	s0,s1,14306 <_ZN20complex_dynamic_type3app17h3c74f963a1a3a5a4E+0x164>
   142f4:	6509                	lui	a0,0x2
   142f6:	54850513          	addi	a0,a0,1352 # 2548 <.Lline_table_start1+0x231d>
   142fa:	458d                	li	a1,3
   142fc:	8622                	mv	a2,s0
   142fe:	0000c097          	auipc	ra,0xc
   14302:	8a6080e7          	jalr	-1882(ra) # 1fba4 <_ZN9allow_pin12dynamic_type7unshare17hb27555f71d22f3b2E>
   14306:	00c14603          	lbu	a2,12(sp)
   1430a:	4509                	li	a0,2
   1430c:	00a60a63          	beq	a2,a0,14320 <_ZN20complex_dynamic_type3app17h3c74f963a1a3a5a4E+0x17e>
   14310:	6509                	lui	a0,0x2
   14312:	54850513          	addi	a0,a0,1352 # 2548 <.Lline_table_start1+0x231d>
   14316:	458d                	li	a1,3
   14318:	0000c097          	auipc	ra,0xc
   1431c:	88c080e7          	jalr	-1908(ra) # 1fba4 <_ZN9allow_pin12dynamic_type7unshare17hb27555f71d22f3b2E>
   14320:	40fa                	lw	ra,156(sp)
   14322:	446a                	lw	s0,152(sp)
   14324:	44da                	lw	s1,148(sp)
   14326:	494a                	lw	s2,144(sp)
   14328:	49ba                	lw	s3,140(sp)
   1432a:	610d                	addi	sp,sp,160
   1432c:	8082                	ret

0001432e <_ZN20complex_dynamic_type3app17h40841e91bc2a706fE>:
   1432e:	7159                	addi	sp,sp,-112
   14330:	d686                	sw	ra,108(sp)
   14332:	d4a2                	sw	s0,104(sp)
   14334:	d2a6                	sw	s1,100(sp)
   14336:	d0ca                	sw	s2,96(sp)
   14338:	cece                	sw	s3,92(sp)
   1433a:	892a                	mv	s2,a0
   1433c:	4489                	li	s1,2
   1433e:	00910623          	sb	s1,12(sp)
   14342:	00d10413          	addi	s0,sp,13
   14346:	02300613          	li	a2,35
   1434a:	8522                	mv	a0,s0
   1434c:	0000c097          	auipc	ra,0xc
   14350:	8d0080e7          	jalr	-1840(ra) # 1fc1c <memcpy>
   14354:	03110993          	addi	s3,sp,49
   14358:	02b00613          	li	a2,43
   1435c:	854e                	mv	a0,s3
   1435e:	4581                	li	a1,0
   14360:	0000c097          	auipc	ra,0xc
   14364:	850080e7          	jalr	-1968(ra) # 1fbb0 <memset>
   14368:	8622                	mv	a2,s0
   1436a:	02910823          	sb	s1,48(sp)
   1436e:	6505                	lui	a0,0x1
   14370:	4791                	li	a5,4
   14372:	4589                	li	a1,2
   14374:	d5d50513          	addi	a0,a0,-675 # d5d <.Lline_table_start1+0xb32>
   14378:	02300693          	li	a3,35
   1437c:	4711                	li	a4,4
   1437e:	00000073          	ecall
   14382:	00950463          	beq	a0,s1,1438a <_ZN20complex_dynamic_type3app17h40841e91bc2a706fE+0x5c>
   14386:	00f10623          	sb	a5,12(sp)
   1438a:	4609                	li	a2,2
   1438c:	00c51463          	bne	a0,a2,14394 <_ZN20complex_dynamic_type3app17h40841e91bc2a706fE+0x66>
   14390:	4785                	li	a5,1
   14392:	a859                	j	14428 <_ZN20complex_dynamic_type3app17h40841e91bc2a706fE+0xfa>
   14394:	03014503          	lbu	a0,48(sp)
   14398:	4785                	li	a5,1
   1439a:	02c51363          	bne	a0,a2,143c0 <_ZN20complex_dynamic_type3app17h40841e91bc2a706fE+0x92>
   1439e:	4581                	li	a1,0
   143a0:	864e                	mv	a2,s3
   143a2:	6505                	lui	a0,0x1
   143a4:	02b00693          	li	a3,43
   143a8:	470d                	li	a4,3
   143aa:	d5d50513          	addi	a0,a0,-675 # d5d <.Lline_table_start1+0xb32>
   143ae:	4489                	li	s1,2
   143b0:	00000073          	ecall
   143b4:	460d                	li	a2,3
   143b6:	00951963          	bne	a0,s1,143c8 <_ZN20complex_dynamic_type3app17h40841e91bc2a706fE+0x9a>
   143ba:	4505                	li	a0,1
   143bc:	c911                	beqz	a0,143d0 <_ZN20complex_dynamic_type3app17h40841e91bc2a706fE+0xa2>
   143be:	a0ad                	j	14428 <_ZN20complex_dynamic_type3app17h40841e91bc2a706fE+0xfa>
   143c0:	458d                	li	a1,3
   143c2:	4505                	li	a0,1
   143c4:	c511                	beqz	a0,143d0 <_ZN20complex_dynamic_type3app17h40841e91bc2a706fE+0xa2>
   143c6:	a08d                	j	14428 <_ZN20complex_dynamic_type3app17h40841e91bc2a706fE+0xfa>
   143c8:	4501                	li	a0,0
   143ca:	02c10823          	sb	a2,48(sp)
   143ce:	ed29                	bnez	a0,14428 <_ZN20complex_dynamic_type3app17h40841e91bc2a706fE+0xfa>
   143d0:	4601                	li	a2,0
   143d2:	4681                	li	a3,0
   143d4:	6505                	lui	a0,0x1
   143d6:	4589                	li	a1,2
   143d8:	4709                	li	a4,2
   143da:	d5d50513          	addi	a0,a0,-675 # d5d <.Lline_table_start1+0xb32>
   143de:	07f00493          	li	s1,127
   143e2:	00000073          	ecall
   143e6:	4689                	li	a3,2
   143e8:	04a4f063          	bgeu	s1,a0,14428 <_ZN20complex_dynamic_type3app17h40841e91bc2a706fE+0xfa>
   143ec:	00c14603          	lbu	a2,12(sp)
   143f0:	00d60a63          	beq	a2,a3,14404 <_ZN20complex_dynamic_type3app17h40841e91bc2a706fE+0xd6>
   143f4:	6505                	lui	a0,0x1
   143f6:	d5d50513          	addi	a0,a0,-675 # d5d <.Lline_table_start1+0xb32>
   143fa:	4589                	li	a1,2
   143fc:	0000b097          	auipc	ra,0xb
   14400:	7a8080e7          	jalr	1960(ra) # 1fba4 <_ZN9allow_pin12dynamic_type7unshare17hb27555f71d22f3b2E>
   14404:	03014603          	lbu	a2,48(sp)
   14408:	4409                	li	s0,2
   1440a:	00810623          	sb	s0,12(sp)
   1440e:	00860a63          	beq	a2,s0,14422 <_ZN20complex_dynamic_type3app17h40841e91bc2a706fE+0xf4>
   14412:	6505                	lui	a0,0x1
   14414:	d5d50513          	addi	a0,a0,-675 # d5d <.Lline_table_start1+0xb32>
   14418:	4581                	li	a1,0
   1441a:	0000b097          	auipc	ra,0xb
   1441e:	78a080e7          	jalr	1930(ra) # 1fba4 <_ZN9allow_pin12dynamic_type7unshare17hb27555f71d22f3b2E>
   14422:	4781                	li	a5,0
   14424:	02810823          	sb	s0,48(sp)
   14428:	cb85                	beqz	a5,14458 <_ZN20complex_dynamic_type3app17h40841e91bc2a706fE+0x12a>
   1442a:	03014603          	lbu	a2,48(sp)
   1442e:	4505                	li	a0,1
   14430:	4409                	li	s0,2
   14432:	00a90023          	sb	a0,0(s2)
   14436:	00b92223          	sw	a1,4(s2)
   1443a:	00860a63          	beq	a2,s0,1444e <_ZN20complex_dynamic_type3app17h40841e91bc2a706fE+0x120>
   1443e:	6505                	lui	a0,0x1
   14440:	d5d50513          	addi	a0,a0,-675 # d5d <.Lline_table_start1+0xb32>
   14444:	4581                	li	a1,0
   14446:	0000b097          	auipc	ra,0xb
   1444a:	75e080e7          	jalr	1886(ra) # 1fba4 <_ZN9allow_pin12dynamic_type7unshare17hb27555f71d22f3b2E>
   1444e:	00c14603          	lbu	a2,12(sp)
   14452:	04861763          	bne	a2,s0,144a0 <_ZN20complex_dynamic_type3app17h40841e91bc2a706fE+0x172>
   14456:	a8a9                	j	144b0 <_ZN20complex_dynamic_type3app17h40841e91bc2a706fE+0x182>
   14458:	03014403          	lbu	s0,48(sp)
   1445c:	4489                	li	s1,2
   1445e:	00940663          	beq	s0,s1,1446a <_ZN20complex_dynamic_type3app17h40841e91bc2a706fE+0x13c>
   14462:	000109b7          	lui	s3,0x10
   14466:	34498993          	addi	s3,s3,836 # 10344 <.Lanon.49c9f8067fe4468184af16d7576940c9.13>
   1446a:	00190513          	addi	a0,s2,1
   1446e:	02b00613          	li	a2,43
   14472:	85ce                	mv	a1,s3
   14474:	0000b097          	auipc	ra,0xb
   14478:	7a8080e7          	jalr	1960(ra) # 1fc1c <memcpy>
   1447c:	00090023          	sb	zero,0(s2)
   14480:	00940b63          	beq	s0,s1,14496 <_ZN20complex_dynamic_type3app17h40841e91bc2a706fE+0x168>
   14484:	6505                	lui	a0,0x1
   14486:	d5d50513          	addi	a0,a0,-675 # d5d <.Lline_table_start1+0xb32>
   1448a:	4581                	li	a1,0
   1448c:	8622                	mv	a2,s0
   1448e:	0000b097          	auipc	ra,0xb
   14492:	716080e7          	jalr	1814(ra) # 1fba4 <_ZN9allow_pin12dynamic_type7unshare17hb27555f71d22f3b2E>
   14496:	00c14603          	lbu	a2,12(sp)
   1449a:	4509                	li	a0,2
   1449c:	00a60a63          	beq	a2,a0,144b0 <_ZN20complex_dynamic_type3app17h40841e91bc2a706fE+0x182>
   144a0:	6505                	lui	a0,0x1
   144a2:	d5d50513          	addi	a0,a0,-675 # d5d <.Lline_table_start1+0xb32>
   144a6:	4589                	li	a1,2
   144a8:	0000b097          	auipc	ra,0xb
   144ac:	6fc080e7          	jalr	1788(ra) # 1fba4 <_ZN9allow_pin12dynamic_type7unshare17hb27555f71d22f3b2E>
   144b0:	50b6                	lw	ra,108(sp)
   144b2:	5426                	lw	s0,104(sp)
   144b4:	5496                	lw	s1,100(sp)
   144b6:	5906                	lw	s2,96(sp)
   144b8:	49f6                	lw	s3,92(sp)
   144ba:	6165                	addi	sp,sp,112
   144bc:	8082                	ret

000144be <_ZN20complex_dynamic_type3app17h447baa7d6b90b092E>:
   144be:	7159                	addi	sp,sp,-112
   144c0:	d686                	sw	ra,108(sp)
   144c2:	d4a2                	sw	s0,104(sp)
   144c4:	d2a6                	sw	s1,100(sp)
   144c6:	d0ca                	sw	s2,96(sp)
   144c8:	cece                	sw	s3,92(sp)
   144ca:	892a                	mv	s2,a0
   144cc:	4489                	li	s1,2
   144ce:	00910623          	sb	s1,12(sp)
   144d2:	00d10413          	addi	s0,sp,13
   144d6:	03400613          	li	a2,52
   144da:	8522                	mv	a0,s0
   144dc:	0000b097          	auipc	ra,0xb
   144e0:	740080e7          	jalr	1856(ra) # 1fc1c <memcpy>
   144e4:	04210993          	addi	s3,sp,66
   144e8:	4669                	li	a2,26
   144ea:	854e                	mv	a0,s3
   144ec:	4581                	li	a1,0
   144ee:	0000b097          	auipc	ra,0xb
   144f2:	6c2080e7          	jalr	1730(ra) # 1fbb0 <memset>
   144f6:	4581                	li	a1,0
   144f8:	8622                	mv	a2,s0
   144fa:	049100a3          	sb	s1,65(sp)
   144fe:	6505                	lui	a0,0x1
   14500:	4791                	li	a5,4
   14502:	2cc50513          	addi	a0,a0,716 # 12cc <.Lline_table_start1+0x10a1>
   14506:	03400693          	li	a3,52
   1450a:	4711                	li	a4,4
   1450c:	00000073          	ecall
   14510:	00950463          	beq	a0,s1,14518 <_ZN20complex_dynamic_type3app17h447baa7d6b90b092E+0x5a>
   14514:	00f10623          	sb	a5,12(sp)
   14518:	4609                	li	a2,2
   1451a:	00c51463          	bne	a0,a2,14522 <_ZN20complex_dynamic_type3app17h447baa7d6b90b092E+0x64>
   1451e:	4785                	li	a5,1
   14520:	a851                	j	145b4 <_ZN20complex_dynamic_type3app17h447baa7d6b90b092E+0xf6>
   14522:	04114503          	lbu	a0,65(sp)
   14526:	4785                	li	a5,1
   14528:	02c51263          	bne	a0,a2,1454c <_ZN20complex_dynamic_type3app17h447baa7d6b90b092E+0x8e>
   1452c:	864e                	mv	a2,s3
   1452e:	6505                	lui	a0,0x1
   14530:	4595                	li	a1,5
   14532:	46e9                	li	a3,26
   14534:	470d                	li	a4,3
   14536:	2cc50513          	addi	a0,a0,716 # 12cc <.Lline_table_start1+0x10a1>
   1453a:	4489                	li	s1,2
   1453c:	00000073          	ecall
   14540:	460d                	li	a2,3
   14542:	00951963          	bne	a0,s1,14554 <_ZN20complex_dynamic_type3app17h447baa7d6b90b092E+0x96>
   14546:	4505                	li	a0,1
   14548:	c911                	beqz	a0,1455c <_ZN20complex_dynamic_type3app17h447baa7d6b90b092E+0x9e>
   1454a:	a0ad                	j	145b4 <_ZN20complex_dynamic_type3app17h447baa7d6b90b092E+0xf6>
   1454c:	458d                	li	a1,3
   1454e:	4505                	li	a0,1
   14550:	c511                	beqz	a0,1455c <_ZN20complex_dynamic_type3app17h447baa7d6b90b092E+0x9e>
   14552:	a08d                	j	145b4 <_ZN20complex_dynamic_type3app17h447baa7d6b90b092E+0xf6>
   14554:	4501                	li	a0,0
   14556:	04c100a3          	sb	a2,65(sp)
   1455a:	ed29                	bnez	a0,145b4 <_ZN20complex_dynamic_type3app17h447baa7d6b90b092E+0xf6>
   1455c:	4581                	li	a1,0
   1455e:	4681                	li	a3,0
   14560:	6505                	lui	a0,0x1
   14562:	4615                	li	a2,5
   14564:	4709                	li	a4,2
   14566:	2cc50513          	addi	a0,a0,716 # 12cc <.Lline_table_start1+0x10a1>
   1456a:	07f00493          	li	s1,127
   1456e:	00000073          	ecall
   14572:	4689                	li	a3,2
   14574:	04a4f063          	bgeu	s1,a0,145b4 <_ZN20complex_dynamic_type3app17h447baa7d6b90b092E+0xf6>
   14578:	00c14603          	lbu	a2,12(sp)
   1457c:	00d60a63          	beq	a2,a3,14590 <_ZN20complex_dynamic_type3app17h447baa7d6b90b092E+0xd2>
   14580:	6505                	lui	a0,0x1
   14582:	2cc50513          	addi	a0,a0,716 # 12cc <.Lline_table_start1+0x10a1>
   14586:	4581                	li	a1,0
   14588:	0000b097          	auipc	ra,0xb
   1458c:	61c080e7          	jalr	1564(ra) # 1fba4 <_ZN9allow_pin12dynamic_type7unshare17hb27555f71d22f3b2E>
   14590:	04114603          	lbu	a2,65(sp)
   14594:	4409                	li	s0,2
   14596:	00810623          	sb	s0,12(sp)
   1459a:	00860a63          	beq	a2,s0,145ae <_ZN20complex_dynamic_type3app17h447baa7d6b90b092E+0xf0>
   1459e:	6505                	lui	a0,0x1
   145a0:	2cc50513          	addi	a0,a0,716 # 12cc <.Lline_table_start1+0x10a1>
   145a4:	4595                	li	a1,5
   145a6:	0000b097          	auipc	ra,0xb
   145aa:	5fe080e7          	jalr	1534(ra) # 1fba4 <_ZN9allow_pin12dynamic_type7unshare17hb27555f71d22f3b2E>
   145ae:	4781                	li	a5,0
   145b0:	048100a3          	sb	s0,65(sp)
   145b4:	cb85                	beqz	a5,145e4 <_ZN20complex_dynamic_type3app17h447baa7d6b90b092E+0x126>
   145b6:	04114603          	lbu	a2,65(sp)
   145ba:	4505                	li	a0,1
   145bc:	4409                	li	s0,2
   145be:	00a90023          	sb	a0,0(s2)
   145c2:	00b92223          	sw	a1,4(s2)
   145c6:	00860a63          	beq	a2,s0,145da <_ZN20complex_dynamic_type3app17h447baa7d6b90b092E+0x11c>
   145ca:	6505                	lui	a0,0x1
   145cc:	2cc50513          	addi	a0,a0,716 # 12cc <.Lline_table_start1+0x10a1>
   145d0:	4595                	li	a1,5
   145d2:	0000b097          	auipc	ra,0xb
   145d6:	5d2080e7          	jalr	1490(ra) # 1fba4 <_ZN9allow_pin12dynamic_type7unshare17hb27555f71d22f3b2E>
   145da:	00c14603          	lbu	a2,12(sp)
   145de:	04861663          	bne	a2,s0,1462a <_ZN20complex_dynamic_type3app17h447baa7d6b90b092E+0x16c>
   145e2:	a8a1                	j	1463a <_ZN20complex_dynamic_type3app17h447baa7d6b90b092E+0x17c>
   145e4:	04114403          	lbu	s0,65(sp)
   145e8:	4489                	li	s1,2
   145ea:	00940663          	beq	s0,s1,145f6 <_ZN20complex_dynamic_type3app17h447baa7d6b90b092E+0x138>
   145ee:	000109b7          	lui	s3,0x10
   145f2:	1fd98993          	addi	s3,s3,509 # 101fd <.Lanon.49c9f8067fe4468184af16d7576940c9.7>
   145f6:	00190513          	addi	a0,s2,1
   145fa:	4669                	li	a2,26
   145fc:	85ce                	mv	a1,s3
   145fe:	0000b097          	auipc	ra,0xb
   14602:	61e080e7          	jalr	1566(ra) # 1fc1c <memcpy>
   14606:	00090023          	sb	zero,0(s2)
   1460a:	00940b63          	beq	s0,s1,14620 <_ZN20complex_dynamic_type3app17h447baa7d6b90b092E+0x162>
   1460e:	6505                	lui	a0,0x1
   14610:	2cc50513          	addi	a0,a0,716 # 12cc <.Lline_table_start1+0x10a1>
   14614:	4595                	li	a1,5
   14616:	8622                	mv	a2,s0
   14618:	0000b097          	auipc	ra,0xb
   1461c:	58c080e7          	jalr	1420(ra) # 1fba4 <_ZN9allow_pin12dynamic_type7unshare17hb27555f71d22f3b2E>
   14620:	00c14603          	lbu	a2,12(sp)
   14624:	4509                	li	a0,2
   14626:	00a60a63          	beq	a2,a0,1463a <_ZN20complex_dynamic_type3app17h447baa7d6b90b092E+0x17c>
   1462a:	6505                	lui	a0,0x1
   1462c:	2cc50513          	addi	a0,a0,716 # 12cc <.Lline_table_start1+0x10a1>
   14630:	4581                	li	a1,0
   14632:	0000b097          	auipc	ra,0xb
   14636:	572080e7          	jalr	1394(ra) # 1fba4 <_ZN9allow_pin12dynamic_type7unshare17hb27555f71d22f3b2E>
   1463a:	50b6                	lw	ra,108(sp)
   1463c:	5426                	lw	s0,104(sp)
   1463e:	5496                	lw	s1,100(sp)
   14640:	5906                	lw	s2,96(sp)
   14642:	49f6                	lw	s3,92(sp)
   14644:	6165                	addi	sp,sp,112
   14646:	8082                	ret

00014648 <_ZN20complex_dynamic_type3app17h54fe4df7bc9349a4E>:
   14648:	7175                	addi	sp,sp,-144
   1464a:	c706                	sw	ra,140(sp)
   1464c:	c522                	sw	s0,136(sp)
   1464e:	c326                	sw	s1,132(sp)
   14650:	c14a                	sw	s2,128(sp)
   14652:	dece                	sw	s3,124(sp)
   14654:	892a                	mv	s2,a0
   14656:	4489                	li	s1,2
   14658:	009105a3          	sb	s1,11(sp)
   1465c:	0060                	addi	s0,sp,12
   1465e:	05d00613          	li	a2,93
   14662:	8522                	mv	a0,s0
   14664:	0000b097          	auipc	ra,0xb
   14668:	5b8080e7          	jalr	1464(ra) # 1fc1c <memcpy>
   1466c:	06a10993          	addi	s3,sp,106
   14670:	4649                	li	a2,18
   14672:	854e                	mv	a0,s3
   14674:	4581                	li	a1,0
   14676:	0000b097          	auipc	ra,0xb
   1467a:	53a080e7          	jalr	1338(ra) # 1fbb0 <memset>
   1467e:	4581                	li	a1,0
   14680:	8622                	mv	a2,s0
   14682:	069104a3          	sb	s1,105(sp)
   14686:	6505                	lui	a0,0x1
   14688:	4791                	li	a5,4
   1468a:	5f150513          	addi	a0,a0,1521 # 15f1 <.Lline_table_start1+0x13c6>
   1468e:	05d00693          	li	a3,93
   14692:	4711                	li	a4,4
   14694:	00000073          	ecall
   14698:	00950463          	beq	a0,s1,146a0 <_ZN20complex_dynamic_type3app17h54fe4df7bc9349a4E+0x58>
   1469c:	00f105a3          	sb	a5,11(sp)
   146a0:	4609                	li	a2,2
   146a2:	00c51463          	bne	a0,a2,146aa <_ZN20complex_dynamic_type3app17h54fe4df7bc9349a4E+0x62>
   146a6:	4785                	li	a5,1
   146a8:	a851                	j	1473c <_ZN20complex_dynamic_type3app17h54fe4df7bc9349a4E+0xf4>
   146aa:	06914503          	lbu	a0,105(sp)
   146ae:	4785                	li	a5,1
   146b0:	02c51263          	bne	a0,a2,146d4 <_ZN20complex_dynamic_type3app17h54fe4df7bc9349a4E+0x8c>
   146b4:	864e                	mv	a2,s3
   146b6:	6505                	lui	a0,0x1
   146b8:	4409                	li	s0,2
   146ba:	448d                	li	s1,3
   146bc:	4589                	li	a1,2
   146be:	5f150513          	addi	a0,a0,1521 # 15f1 <.Lline_table_start1+0x13c6>
   146c2:	46c9                	li	a3,18
   146c4:	470d                	li	a4,3
   146c6:	00000073          	ecall
   146ca:	00851963          	bne	a0,s0,146dc <_ZN20complex_dynamic_type3app17h54fe4df7bc9349a4E+0x94>
   146ce:	4505                	li	a0,1
   146d0:	c911                	beqz	a0,146e4 <_ZN20complex_dynamic_type3app17h54fe4df7bc9349a4E+0x9c>
   146d2:	a0ad                	j	1473c <_ZN20complex_dynamic_type3app17h54fe4df7bc9349a4E+0xf4>
   146d4:	458d                	li	a1,3
   146d6:	4505                	li	a0,1
   146d8:	c511                	beqz	a0,146e4 <_ZN20complex_dynamic_type3app17h54fe4df7bc9349a4E+0x9c>
   146da:	a08d                	j	1473c <_ZN20complex_dynamic_type3app17h54fe4df7bc9349a4E+0xf4>
   146dc:	4501                	li	a0,0
   146de:	069104a3          	sb	s1,105(sp)
   146e2:	ed29                	bnez	a0,1473c <_ZN20complex_dynamic_type3app17h54fe4df7bc9349a4E+0xf4>
   146e4:	4581                	li	a1,0
   146e6:	4681                	li	a3,0
   146e8:	6505                	lui	a0,0x1
   146ea:	4609                	li	a2,2
   146ec:	4709                	li	a4,2
   146ee:	5f150513          	addi	a0,a0,1521 # 15f1 <.Lline_table_start1+0x13c6>
   146f2:	07f00493          	li	s1,127
   146f6:	00000073          	ecall
   146fa:	4689                	li	a3,2
   146fc:	04a4f063          	bgeu	s1,a0,1473c <_ZN20complex_dynamic_type3app17h54fe4df7bc9349a4E+0xf4>
   14700:	00b14603          	lbu	a2,11(sp)
   14704:	00d60a63          	beq	a2,a3,14718 <_ZN20complex_dynamic_type3app17h54fe4df7bc9349a4E+0xd0>
   14708:	6505                	lui	a0,0x1
   1470a:	5f150513          	addi	a0,a0,1521 # 15f1 <.Lline_table_start1+0x13c6>
   1470e:	4581                	li	a1,0
   14710:	0000b097          	auipc	ra,0xb
   14714:	494080e7          	jalr	1172(ra) # 1fba4 <_ZN9allow_pin12dynamic_type7unshare17hb27555f71d22f3b2E>
   14718:	06914603          	lbu	a2,105(sp)
   1471c:	4409                	li	s0,2
   1471e:	008105a3          	sb	s0,11(sp)
   14722:	00860a63          	beq	a2,s0,14736 <_ZN20complex_dynamic_type3app17h54fe4df7bc9349a4E+0xee>
   14726:	6505                	lui	a0,0x1
   14728:	5f150513          	addi	a0,a0,1521 # 15f1 <.Lline_table_start1+0x13c6>
   1472c:	4589                	li	a1,2
   1472e:	0000b097          	auipc	ra,0xb
   14732:	476080e7          	jalr	1142(ra) # 1fba4 <_ZN9allow_pin12dynamic_type7unshare17hb27555f71d22f3b2E>
   14736:	4781                	li	a5,0
   14738:	068104a3          	sb	s0,105(sp)
   1473c:	cb85                	beqz	a5,1476c <_ZN20complex_dynamic_type3app17h54fe4df7bc9349a4E+0x124>
   1473e:	06914603          	lbu	a2,105(sp)
   14742:	4505                	li	a0,1
   14744:	4409                	li	s0,2
   14746:	00a90023          	sb	a0,0(s2)
   1474a:	00b92223          	sw	a1,4(s2)
   1474e:	00860a63          	beq	a2,s0,14762 <_ZN20complex_dynamic_type3app17h54fe4df7bc9349a4E+0x11a>
   14752:	6505                	lui	a0,0x1
   14754:	5f150513          	addi	a0,a0,1521 # 15f1 <.Lline_table_start1+0x13c6>
   14758:	4589                	li	a1,2
   1475a:	0000b097          	auipc	ra,0xb
   1475e:	44a080e7          	jalr	1098(ra) # 1fba4 <_ZN9allow_pin12dynamic_type7unshare17hb27555f71d22f3b2E>
   14762:	00b14603          	lbu	a2,11(sp)
   14766:	04861663          	bne	a2,s0,147b2 <_ZN20complex_dynamic_type3app17h54fe4df7bc9349a4E+0x16a>
   1476a:	a8a1                	j	147c2 <_ZN20complex_dynamic_type3app17h54fe4df7bc9349a4E+0x17a>
   1476c:	06914403          	lbu	s0,105(sp)
   14770:	4489                	li	s1,2
   14772:	00940663          	beq	s0,s1,1477e <_ZN20complex_dynamic_type3app17h54fe4df7bc9349a4E+0x136>
   14776:	000109b7          	lui	s3,0x10
   1477a:	15a98993          	addi	s3,s3,346 # 1015a <.Lanon.49c9f8067fe4468184af16d7576940c9.3>
   1477e:	00190513          	addi	a0,s2,1
   14782:	4649                	li	a2,18
   14784:	85ce                	mv	a1,s3
   14786:	0000b097          	auipc	ra,0xb
   1478a:	496080e7          	jalr	1174(ra) # 1fc1c <memcpy>
   1478e:	00090023          	sb	zero,0(s2)
   14792:	00940b63          	beq	s0,s1,147a8 <_ZN20complex_dynamic_type3app17h54fe4df7bc9349a4E+0x160>
   14796:	6505                	lui	a0,0x1
   14798:	5f150513          	addi	a0,a0,1521 # 15f1 <.Lline_table_start1+0x13c6>
   1479c:	4589                	li	a1,2
   1479e:	8622                	mv	a2,s0
   147a0:	0000b097          	auipc	ra,0xb
   147a4:	404080e7          	jalr	1028(ra) # 1fba4 <_ZN9allow_pin12dynamic_type7unshare17hb27555f71d22f3b2E>
   147a8:	00b14603          	lbu	a2,11(sp)
   147ac:	4509                	li	a0,2
   147ae:	00a60a63          	beq	a2,a0,147c2 <_ZN20complex_dynamic_type3app17h54fe4df7bc9349a4E+0x17a>
   147b2:	6505                	lui	a0,0x1
   147b4:	5f150513          	addi	a0,a0,1521 # 15f1 <.Lline_table_start1+0x13c6>
   147b8:	4581                	li	a1,0
   147ba:	0000b097          	auipc	ra,0xb
   147be:	3ea080e7          	jalr	1002(ra) # 1fba4 <_ZN9allow_pin12dynamic_type7unshare17hb27555f71d22f3b2E>
   147c2:	40ba                	lw	ra,140(sp)
   147c4:	442a                	lw	s0,136(sp)
   147c6:	449a                	lw	s1,132(sp)
   147c8:	490a                	lw	s2,128(sp)
   147ca:	59f6                	lw	s3,124(sp)
   147cc:	6149                	addi	sp,sp,144
   147ce:	8082                	ret

000147d0 <_ZN20complex_dynamic_type3app17h58e6450602046a36E>:
   147d0:	7119                	addi	sp,sp,-128
   147d2:	de86                	sw	ra,124(sp)
   147d4:	dca2                	sw	s0,120(sp)
   147d6:	daa6                	sw	s1,116(sp)
   147d8:	d8ca                	sw	s2,112(sp)
   147da:	d6ce                	sw	s3,108(sp)
   147dc:	892a                	mv	s2,a0
   147de:	4489                	li	s1,2
   147e0:	009107a3          	sb	s1,15(sp)
   147e4:	0800                	addi	s0,sp,16
   147e6:	03f00613          	li	a2,63
   147ea:	8522                	mv	a0,s0
   147ec:	0000b097          	auipc	ra,0xb
   147f0:	430080e7          	jalr	1072(ra) # 1fc1c <memcpy>
   147f4:	05010993          	addi	s3,sp,80
   147f8:	4671                	li	a2,28
   147fa:	854e                	mv	a0,s3
   147fc:	4581                	li	a1,0
   147fe:	0000b097          	auipc	ra,0xb
   14802:	3b2080e7          	jalr	946(ra) # 1fbb0 <memset>
   14806:	8622                	mv	a2,s0
   14808:	049107a3          	sb	s1,79(sp)
   1480c:	6505                	lui	a0,0x1
   1480e:	4791                	li	a5,4
   14810:	4595                	li	a1,5
   14812:	69450513          	addi	a0,a0,1684 # 1694 <.Lline_table_start1+0x1469>
   14816:	03f00693          	li	a3,63
   1481a:	4711                	li	a4,4
   1481c:	00000073          	ecall
   14820:	00950463          	beq	a0,s1,14828 <_ZN20complex_dynamic_type3app17h58e6450602046a36E+0x58>
   14824:	00f107a3          	sb	a5,15(sp)
   14828:	4609                	li	a2,2
   1482a:	00c51463          	bne	a0,a2,14832 <_ZN20complex_dynamic_type3app17h58e6450602046a36E+0x62>
   1482e:	4785                	li	a5,1
   14830:	a851                	j	148c4 <_ZN20complex_dynamic_type3app17h58e6450602046a36E+0xf4>
   14832:	04f14503          	lbu	a0,79(sp)
   14836:	4785                	li	a5,1
   14838:	02c51263          	bne	a0,a2,1485c <_ZN20complex_dynamic_type3app17h58e6450602046a36E+0x8c>
   1483c:	864e                	mv	a2,s3
   1483e:	6505                	lui	a0,0x1
   14840:	45a5                	li	a1,9
   14842:	46f1                	li	a3,28
   14844:	470d                	li	a4,3
   14846:	69450513          	addi	a0,a0,1684 # 1694 <.Lline_table_start1+0x1469>
   1484a:	4489                	li	s1,2
   1484c:	00000073          	ecall
   14850:	460d                	li	a2,3
   14852:	00951963          	bne	a0,s1,14864 <_ZN20complex_dynamic_type3app17h58e6450602046a36E+0x94>
   14856:	4505                	li	a0,1
   14858:	c911                	beqz	a0,1486c <_ZN20complex_dynamic_type3app17h58e6450602046a36E+0x9c>
   1485a:	a0ad                	j	148c4 <_ZN20complex_dynamic_type3app17h58e6450602046a36E+0xf4>
   1485c:	458d                	li	a1,3
   1485e:	4505                	li	a0,1
   14860:	c511                	beqz	a0,1486c <_ZN20complex_dynamic_type3app17h58e6450602046a36E+0x9c>
   14862:	a08d                	j	148c4 <_ZN20complex_dynamic_type3app17h58e6450602046a36E+0xf4>
   14864:	4501                	li	a0,0
   14866:	04c107a3          	sb	a2,79(sp)
   1486a:	ed29                	bnez	a0,148c4 <_ZN20complex_dynamic_type3app17h58e6450602046a36E+0xf4>
   1486c:	4681                	li	a3,0
   1486e:	6505                	lui	a0,0x1
   14870:	4595                	li	a1,5
   14872:	4625                	li	a2,9
   14874:	4709                	li	a4,2
   14876:	69450513          	addi	a0,a0,1684 # 1694 <.Lline_table_start1+0x1469>
   1487a:	07f00493          	li	s1,127
   1487e:	00000073          	ecall
   14882:	4689                	li	a3,2
   14884:	04a4f063          	bgeu	s1,a0,148c4 <_ZN20complex_dynamic_type3app17h58e6450602046a36E+0xf4>
   14888:	00f14603          	lbu	a2,15(sp)
   1488c:	00d60a63          	beq	a2,a3,148a0 <_ZN20complex_dynamic_type3app17h58e6450602046a36E+0xd0>
   14890:	6505                	lui	a0,0x1
   14892:	69450513          	addi	a0,a0,1684 # 1694 <.Lline_table_start1+0x1469>
   14896:	4595                	li	a1,5
   14898:	0000b097          	auipc	ra,0xb
   1489c:	30c080e7          	jalr	780(ra) # 1fba4 <_ZN9allow_pin12dynamic_type7unshare17hb27555f71d22f3b2E>
   148a0:	04f14603          	lbu	a2,79(sp)
   148a4:	4409                	li	s0,2
   148a6:	008107a3          	sb	s0,15(sp)
   148aa:	00860a63          	beq	a2,s0,148be <_ZN20complex_dynamic_type3app17h58e6450602046a36E+0xee>
   148ae:	6505                	lui	a0,0x1
   148b0:	69450513          	addi	a0,a0,1684 # 1694 <.Lline_table_start1+0x1469>
   148b4:	45a5                	li	a1,9
   148b6:	0000b097          	auipc	ra,0xb
   148ba:	2ee080e7          	jalr	750(ra) # 1fba4 <_ZN9allow_pin12dynamic_type7unshare17hb27555f71d22f3b2E>
   148be:	4781                	li	a5,0
   148c0:	048107a3          	sb	s0,79(sp)
   148c4:	cb85                	beqz	a5,148f4 <_ZN20complex_dynamic_type3app17h58e6450602046a36E+0x124>
   148c6:	04f14603          	lbu	a2,79(sp)
   148ca:	4505                	li	a0,1
   148cc:	4409                	li	s0,2
   148ce:	00a90023          	sb	a0,0(s2)
   148d2:	00b92223          	sw	a1,4(s2)
   148d6:	00860a63          	beq	a2,s0,148ea <_ZN20complex_dynamic_type3app17h58e6450602046a36E+0x11a>
   148da:	6505                	lui	a0,0x1
   148dc:	69450513          	addi	a0,a0,1684 # 1694 <.Lline_table_start1+0x1469>
   148e0:	45a5                	li	a1,9
   148e2:	0000b097          	auipc	ra,0xb
   148e6:	2c2080e7          	jalr	706(ra) # 1fba4 <_ZN9allow_pin12dynamic_type7unshare17hb27555f71d22f3b2E>
   148ea:	00f14603          	lbu	a2,15(sp)
   148ee:	04861663          	bne	a2,s0,1493a <_ZN20complex_dynamic_type3app17h58e6450602046a36E+0x16a>
   148f2:	a8a1                	j	1494a <_ZN20complex_dynamic_type3app17h58e6450602046a36E+0x17a>
   148f4:	04f14403          	lbu	s0,79(sp)
   148f8:	4489                	li	s1,2
   148fa:	00940663          	beq	s0,s1,14906 <_ZN20complex_dynamic_type3app17h58e6450602046a36E+0x136>
   148fe:	000109b7          	lui	s3,0x10
   14902:	52d98993          	addi	s3,s3,1325 # 1052d <.Lanon.49c9f8067fe4468184af16d7576940c9.23>
   14906:	00190513          	addi	a0,s2,1
   1490a:	4671                	li	a2,28
   1490c:	85ce                	mv	a1,s3
   1490e:	0000b097          	auipc	ra,0xb
   14912:	30e080e7          	jalr	782(ra) # 1fc1c <memcpy>
   14916:	00090023          	sb	zero,0(s2)
   1491a:	00940b63          	beq	s0,s1,14930 <_ZN20complex_dynamic_type3app17h58e6450602046a36E+0x160>
   1491e:	6505                	lui	a0,0x1
   14920:	69450513          	addi	a0,a0,1684 # 1694 <.Lline_table_start1+0x1469>
   14924:	45a5                	li	a1,9
   14926:	8622                	mv	a2,s0
   14928:	0000b097          	auipc	ra,0xb
   1492c:	27c080e7          	jalr	636(ra) # 1fba4 <_ZN9allow_pin12dynamic_type7unshare17hb27555f71d22f3b2E>
   14930:	00f14603          	lbu	a2,15(sp)
   14934:	4509                	li	a0,2
   14936:	00a60a63          	beq	a2,a0,1494a <_ZN20complex_dynamic_type3app17h58e6450602046a36E+0x17a>
   1493a:	6505                	lui	a0,0x1
   1493c:	69450513          	addi	a0,a0,1684 # 1694 <.Lline_table_start1+0x1469>
   14940:	4595                	li	a1,5
   14942:	0000b097          	auipc	ra,0xb
   14946:	262080e7          	jalr	610(ra) # 1fba4 <_ZN9allow_pin12dynamic_type7unshare17hb27555f71d22f3b2E>
   1494a:	50f6                	lw	ra,124(sp)
   1494c:	5466                	lw	s0,120(sp)
   1494e:	54d6                	lw	s1,116(sp)
   14950:	5946                	lw	s2,112(sp)
   14952:	59b6                	lw	s3,108(sp)
   14954:	6109                	addi	sp,sp,128
   14956:	8082                	ret

00014958 <_ZN20complex_dynamic_type3app17h5d23bf78984a5b56E>:
   14958:	7131                	addi	sp,sp,-192
   1495a:	df06                	sw	ra,188(sp)
   1495c:	dd22                	sw	s0,184(sp)
   1495e:	db26                	sw	s1,180(sp)
   14960:	d94a                	sw	s2,176(sp)
   14962:	d74e                	sw	s3,172(sp)
   14964:	892a                	mv	s2,a0
   14966:	4489                	li	s1,2
   14968:	009103a3          	sb	s1,7(sp)
   1496c:	0020                	addi	s0,sp,8
   1496e:	05900613          	li	a2,89
   14972:	8522                	mv	a0,s0
   14974:	0000b097          	auipc	ra,0xb
   14978:	2a8080e7          	jalr	680(ra) # 1fc1c <memcpy>
   1497c:	06210993          	addi	s3,sp,98
   14980:	04a00613          	li	a2,74
   14984:	854e                	mv	a0,s3
   14986:	4581                	li	a1,0
   14988:	0000b097          	auipc	ra,0xb
   1498c:	228080e7          	jalr	552(ra) # 1fbb0 <memset>
   14990:	4581                	li	a1,0
   14992:	8622                	mv	a2,s0
   14994:	069100a3          	sb	s1,97(sp)
   14998:	6505                	lui	a0,0x1
   1499a:	4791                	li	a5,4
   1499c:	48450513          	addi	a0,a0,1156 # 1484 <.Lline_table_start1+0x1259>
   149a0:	05900693          	li	a3,89
   149a4:	4711                	li	a4,4
   149a6:	00000073          	ecall
   149aa:	00950463          	beq	a0,s1,149b2 <_ZN20complex_dynamic_type3app17h5d23bf78984a5b56E+0x5a>
   149ae:	00f103a3          	sb	a5,7(sp)
   149b2:	4609                	li	a2,2
   149b4:	00c51463          	bne	a0,a2,149bc <_ZN20complex_dynamic_type3app17h5d23bf78984a5b56E+0x64>
   149b8:	4785                	li	a5,1
   149ba:	a859                	j	14a50 <_ZN20complex_dynamic_type3app17h5d23bf78984a5b56E+0xf8>
   149bc:	06114503          	lbu	a0,97(sp)
   149c0:	4785                	li	a5,1
   149c2:	02c51363          	bne	a0,a2,149e8 <_ZN20complex_dynamic_type3app17h5d23bf78984a5b56E+0x90>
   149c6:	864e                	mv	a2,s3
   149c8:	6505                	lui	a0,0x1
   149ca:	4591                	li	a1,4
   149cc:	04a00693          	li	a3,74
   149d0:	470d                	li	a4,3
   149d2:	48450513          	addi	a0,a0,1156 # 1484 <.Lline_table_start1+0x1259>
   149d6:	4489                	li	s1,2
   149d8:	00000073          	ecall
   149dc:	460d                	li	a2,3
   149de:	00951963          	bne	a0,s1,149f0 <_ZN20complex_dynamic_type3app17h5d23bf78984a5b56E+0x98>
   149e2:	4505                	li	a0,1
   149e4:	c911                	beqz	a0,149f8 <_ZN20complex_dynamic_type3app17h5d23bf78984a5b56E+0xa0>
   149e6:	a0ad                	j	14a50 <_ZN20complex_dynamic_type3app17h5d23bf78984a5b56E+0xf8>
   149e8:	458d                	li	a1,3
   149ea:	4505                	li	a0,1
   149ec:	c511                	beqz	a0,149f8 <_ZN20complex_dynamic_type3app17h5d23bf78984a5b56E+0xa0>
   149ee:	a08d                	j	14a50 <_ZN20complex_dynamic_type3app17h5d23bf78984a5b56E+0xf8>
   149f0:	4501                	li	a0,0
   149f2:	06c100a3          	sb	a2,97(sp)
   149f6:	ed29                	bnez	a0,14a50 <_ZN20complex_dynamic_type3app17h5d23bf78984a5b56E+0xf8>
   149f8:	4581                	li	a1,0
   149fa:	4681                	li	a3,0
   149fc:	6505                	lui	a0,0x1
   149fe:	4611                	li	a2,4
   14a00:	4709                	li	a4,2
   14a02:	48450513          	addi	a0,a0,1156 # 1484 <.Lline_table_start1+0x1259>
   14a06:	07f00493          	li	s1,127
   14a0a:	00000073          	ecall
   14a0e:	4689                	li	a3,2
   14a10:	04a4f063          	bgeu	s1,a0,14a50 <_ZN20complex_dynamic_type3app17h5d23bf78984a5b56E+0xf8>
   14a14:	00714603          	lbu	a2,7(sp)
   14a18:	00d60a63          	beq	a2,a3,14a2c <_ZN20complex_dynamic_type3app17h5d23bf78984a5b56E+0xd4>
   14a1c:	6505                	lui	a0,0x1
   14a1e:	48450513          	addi	a0,a0,1156 # 1484 <.Lline_table_start1+0x1259>
   14a22:	4581                	li	a1,0
   14a24:	0000b097          	auipc	ra,0xb
   14a28:	180080e7          	jalr	384(ra) # 1fba4 <_ZN9allow_pin12dynamic_type7unshare17hb27555f71d22f3b2E>
   14a2c:	06114603          	lbu	a2,97(sp)
   14a30:	4409                	li	s0,2
   14a32:	008103a3          	sb	s0,7(sp)
   14a36:	00860a63          	beq	a2,s0,14a4a <_ZN20complex_dynamic_type3app17h5d23bf78984a5b56E+0xf2>
   14a3a:	6505                	lui	a0,0x1
   14a3c:	48450513          	addi	a0,a0,1156 # 1484 <.Lline_table_start1+0x1259>
   14a40:	4591                	li	a1,4
   14a42:	0000b097          	auipc	ra,0xb
   14a46:	162080e7          	jalr	354(ra) # 1fba4 <_ZN9allow_pin12dynamic_type7unshare17hb27555f71d22f3b2E>
   14a4a:	4781                	li	a5,0
   14a4c:	068100a3          	sb	s0,97(sp)
   14a50:	cb85                	beqz	a5,14a80 <_ZN20complex_dynamic_type3app17h5d23bf78984a5b56E+0x128>
   14a52:	06114603          	lbu	a2,97(sp)
   14a56:	4505                	li	a0,1
   14a58:	4409                	li	s0,2
   14a5a:	00a90023          	sb	a0,0(s2)
   14a5e:	00b92223          	sw	a1,4(s2)
   14a62:	00860a63          	beq	a2,s0,14a76 <_ZN20complex_dynamic_type3app17h5d23bf78984a5b56E+0x11e>
   14a66:	6505                	lui	a0,0x1
   14a68:	48450513          	addi	a0,a0,1156 # 1484 <.Lline_table_start1+0x1259>
   14a6c:	4591                	li	a1,4
   14a6e:	0000b097          	auipc	ra,0xb
   14a72:	136080e7          	jalr	310(ra) # 1fba4 <_ZN9allow_pin12dynamic_type7unshare17hb27555f71d22f3b2E>
   14a76:	00714603          	lbu	a2,7(sp)
   14a7a:	04861763          	bne	a2,s0,14ac8 <_ZN20complex_dynamic_type3app17h5d23bf78984a5b56E+0x170>
   14a7e:	a8a9                	j	14ad8 <_ZN20complex_dynamic_type3app17h5d23bf78984a5b56E+0x180>
   14a80:	06114403          	lbu	s0,97(sp)
   14a84:	4489                	li	s1,2
   14a86:	00940663          	beq	s0,s1,14a92 <_ZN20complex_dynamic_type3app17h5d23bf78984a5b56E+0x13a>
   14a8a:	000119b7          	lui	s3,0x11
   14a8e:	87e98993          	addi	s3,s3,-1922 # 1087e <.Lanon.49c9f8067fe4468184af16d7576940c9.40>
   14a92:	00190513          	addi	a0,s2,1
   14a96:	04a00613          	li	a2,74
   14a9a:	85ce                	mv	a1,s3
   14a9c:	0000b097          	auipc	ra,0xb
   14aa0:	180080e7          	jalr	384(ra) # 1fc1c <memcpy>
   14aa4:	00090023          	sb	zero,0(s2)
   14aa8:	00940b63          	beq	s0,s1,14abe <_ZN20complex_dynamic_type3app17h5d23bf78984a5b56E+0x166>
   14aac:	6505                	lui	a0,0x1
   14aae:	48450513          	addi	a0,a0,1156 # 1484 <.Lline_table_start1+0x1259>
   14ab2:	4591                	li	a1,4
   14ab4:	8622                	mv	a2,s0
   14ab6:	0000b097          	auipc	ra,0xb
   14aba:	0ee080e7          	jalr	238(ra) # 1fba4 <_ZN9allow_pin12dynamic_type7unshare17hb27555f71d22f3b2E>
   14abe:	00714603          	lbu	a2,7(sp)
   14ac2:	4509                	li	a0,2
   14ac4:	00a60a63          	beq	a2,a0,14ad8 <_ZN20complex_dynamic_type3app17h5d23bf78984a5b56E+0x180>
   14ac8:	6505                	lui	a0,0x1
   14aca:	48450513          	addi	a0,a0,1156 # 1484 <.Lline_table_start1+0x1259>
   14ace:	4581                	li	a1,0
   14ad0:	0000b097          	auipc	ra,0xb
   14ad4:	0d4080e7          	jalr	212(ra) # 1fba4 <_ZN9allow_pin12dynamic_type7unshare17hb27555f71d22f3b2E>
   14ad8:	50fa                	lw	ra,188(sp)
   14ada:	546a                	lw	s0,184(sp)
   14adc:	54da                	lw	s1,180(sp)
   14ade:	594a                	lw	s2,176(sp)
   14ae0:	59ba                	lw	s3,172(sp)
   14ae2:	6129                	addi	sp,sp,192
   14ae4:	8082                	ret

00014ae6 <_ZN20complex_dynamic_type3app17h5deb3c1a038437f9E>:
   14ae6:	711d                	addi	sp,sp,-96
   14ae8:	ce86                	sw	ra,92(sp)
   14aea:	cca2                	sw	s0,88(sp)
   14aec:	caa6                	sw	s1,84(sp)
   14aee:	c8ca                	sw	s2,80(sp)
   14af0:	c6ce                	sw	s3,76(sp)
   14af2:	892a                	mv	s2,a0
   14af4:	4489                	li	s1,2
   14af6:	009107a3          	sb	s1,15(sp)
   14afa:	0800                	addi	s0,sp,16
   14afc:	02700613          	li	a2,39
   14b00:	8522                	mv	a0,s0
   14b02:	0000b097          	auipc	ra,0xb
   14b06:	11a080e7          	jalr	282(ra) # 1fc1c <memcpy>
   14b0a:	03810993          	addi	s3,sp,56
   14b0e:	4651                	li	a2,20
   14b10:	854e                	mv	a0,s3
   14b12:	4581                	li	a1,0
   14b14:	0000b097          	auipc	ra,0xb
   14b18:	09c080e7          	jalr	156(ra) # 1fbb0 <memset>
   14b1c:	8622                	mv	a2,s0
   14b1e:	02910ba3          	sb	s1,55(sp)
   14b22:	6509                	lui	a0,0x2
   14b24:	4791                	li	a5,4
   14b26:	4599                	li	a1,6
   14b28:	2c950513          	addi	a0,a0,713 # 22c9 <.Lline_table_start1+0x209e>
   14b2c:	02700693          	li	a3,39
   14b30:	4711                	li	a4,4
   14b32:	00000073          	ecall
   14b36:	00950463          	beq	a0,s1,14b3e <_ZN20complex_dynamic_type3app17h5deb3c1a038437f9E+0x58>
   14b3a:	00f107a3          	sb	a5,15(sp)
   14b3e:	4609                	li	a2,2
   14b40:	00c51463          	bne	a0,a2,14b48 <_ZN20complex_dynamic_type3app17h5deb3c1a038437f9E+0x62>
   14b44:	4785                	li	a5,1
   14b46:	a851                	j	14bda <_ZN20complex_dynamic_type3app17h5deb3c1a038437f9E+0xf4>
   14b48:	03714503          	lbu	a0,55(sp)
   14b4c:	4785                	li	a5,1
   14b4e:	02c51263          	bne	a0,a2,14b72 <_ZN20complex_dynamic_type3app17h5deb3c1a038437f9E+0x8c>
   14b52:	864e                	mv	a2,s3
   14b54:	6509                	lui	a0,0x2
   14b56:	4595                	li	a1,5
   14b58:	46d1                	li	a3,20
   14b5a:	470d                	li	a4,3
   14b5c:	2c950513          	addi	a0,a0,713 # 22c9 <.Lline_table_start1+0x209e>
   14b60:	4489                	li	s1,2
   14b62:	00000073          	ecall
   14b66:	460d                	li	a2,3
   14b68:	00951963          	bne	a0,s1,14b7a <_ZN20complex_dynamic_type3app17h5deb3c1a038437f9E+0x94>
   14b6c:	4505                	li	a0,1
   14b6e:	c911                	beqz	a0,14b82 <_ZN20complex_dynamic_type3app17h5deb3c1a038437f9E+0x9c>
   14b70:	a0ad                	j	14bda <_ZN20complex_dynamic_type3app17h5deb3c1a038437f9E+0xf4>
   14b72:	458d                	li	a1,3
   14b74:	4505                	li	a0,1
   14b76:	c511                	beqz	a0,14b82 <_ZN20complex_dynamic_type3app17h5deb3c1a038437f9E+0x9c>
   14b78:	a08d                	j	14bda <_ZN20complex_dynamic_type3app17h5deb3c1a038437f9E+0xf4>
   14b7a:	4501                	li	a0,0
   14b7c:	02c10ba3          	sb	a2,55(sp)
   14b80:	ed29                	bnez	a0,14bda <_ZN20complex_dynamic_type3app17h5deb3c1a038437f9E+0xf4>
   14b82:	4681                	li	a3,0
   14b84:	6509                	lui	a0,0x2
   14b86:	4599                	li	a1,6
   14b88:	4615                	li	a2,5
   14b8a:	4709                	li	a4,2
   14b8c:	2c950513          	addi	a0,a0,713 # 22c9 <.Lline_table_start1+0x209e>
   14b90:	07f00493          	li	s1,127
   14b94:	00000073          	ecall
   14b98:	4689                	li	a3,2
   14b9a:	04a4f063          	bgeu	s1,a0,14bda <_ZN20complex_dynamic_type3app17h5deb3c1a038437f9E+0xf4>
   14b9e:	00f14603          	lbu	a2,15(sp)
   14ba2:	00d60a63          	beq	a2,a3,14bb6 <_ZN20complex_dynamic_type3app17h5deb3c1a038437f9E+0xd0>
   14ba6:	6509                	lui	a0,0x2
   14ba8:	2c950513          	addi	a0,a0,713 # 22c9 <.Lline_table_start1+0x209e>
   14bac:	4599                	li	a1,6
   14bae:	0000b097          	auipc	ra,0xb
   14bb2:	ff6080e7          	jalr	-10(ra) # 1fba4 <_ZN9allow_pin12dynamic_type7unshare17hb27555f71d22f3b2E>
   14bb6:	03714603          	lbu	a2,55(sp)
   14bba:	4409                	li	s0,2
   14bbc:	008107a3          	sb	s0,15(sp)
   14bc0:	00860a63          	beq	a2,s0,14bd4 <_ZN20complex_dynamic_type3app17h5deb3c1a038437f9E+0xee>
   14bc4:	6509                	lui	a0,0x2
   14bc6:	2c950513          	addi	a0,a0,713 # 22c9 <.Lline_table_start1+0x209e>
   14bca:	4595                	li	a1,5
   14bcc:	0000b097          	auipc	ra,0xb
   14bd0:	fd8080e7          	jalr	-40(ra) # 1fba4 <_ZN9allow_pin12dynamic_type7unshare17hb27555f71d22f3b2E>
   14bd4:	4781                	li	a5,0
   14bd6:	02810ba3          	sb	s0,55(sp)
   14bda:	cb85                	beqz	a5,14c0a <_ZN20complex_dynamic_type3app17h5deb3c1a038437f9E+0x124>
   14bdc:	03714603          	lbu	a2,55(sp)
   14be0:	4505                	li	a0,1
   14be2:	4409                	li	s0,2
   14be4:	00a90023          	sb	a0,0(s2)
   14be8:	00b92223          	sw	a1,4(s2)
   14bec:	00860a63          	beq	a2,s0,14c00 <_ZN20complex_dynamic_type3app17h5deb3c1a038437f9E+0x11a>
   14bf0:	6509                	lui	a0,0x2
   14bf2:	2c950513          	addi	a0,a0,713 # 22c9 <.Lline_table_start1+0x209e>
   14bf6:	4595                	li	a1,5
   14bf8:	0000b097          	auipc	ra,0xb
   14bfc:	fac080e7          	jalr	-84(ra) # 1fba4 <_ZN9allow_pin12dynamic_type7unshare17hb27555f71d22f3b2E>
   14c00:	00f14603          	lbu	a2,15(sp)
   14c04:	04861663          	bne	a2,s0,14c50 <_ZN20complex_dynamic_type3app17h5deb3c1a038437f9E+0x16a>
   14c08:	a8a1                	j	14c60 <_ZN20complex_dynamic_type3app17h5deb3c1a038437f9E+0x17a>
   14c0a:	03714403          	lbu	s0,55(sp)
   14c0e:	4489                	li	s1,2
   14c10:	00940663          	beq	s0,s1,14c1c <_ZN20complex_dynamic_type3app17h5deb3c1a038437f9E+0x136>
   14c14:	000119b7          	lui	s3,0x11
   14c18:	96998993          	addi	s3,s3,-1687 # 10969 <.Lanon.49c9f8067fe4468184af16d7576940c9.44>
   14c1c:	00190513          	addi	a0,s2,1
   14c20:	4651                	li	a2,20
   14c22:	85ce                	mv	a1,s3
   14c24:	0000b097          	auipc	ra,0xb
   14c28:	ff8080e7          	jalr	-8(ra) # 1fc1c <memcpy>
   14c2c:	00090023          	sb	zero,0(s2)
   14c30:	00940b63          	beq	s0,s1,14c46 <_ZN20complex_dynamic_type3app17h5deb3c1a038437f9E+0x160>
   14c34:	6509                	lui	a0,0x2
   14c36:	2c950513          	addi	a0,a0,713 # 22c9 <.Lline_table_start1+0x209e>
   14c3a:	4595                	li	a1,5
   14c3c:	8622                	mv	a2,s0
   14c3e:	0000b097          	auipc	ra,0xb
   14c42:	f66080e7          	jalr	-154(ra) # 1fba4 <_ZN9allow_pin12dynamic_type7unshare17hb27555f71d22f3b2E>
   14c46:	00f14603          	lbu	a2,15(sp)
   14c4a:	4509                	li	a0,2
   14c4c:	00a60a63          	beq	a2,a0,14c60 <_ZN20complex_dynamic_type3app17h5deb3c1a038437f9E+0x17a>
   14c50:	6509                	lui	a0,0x2
   14c52:	2c950513          	addi	a0,a0,713 # 22c9 <.Lline_table_start1+0x209e>
   14c56:	4599                	li	a1,6
   14c58:	0000b097          	auipc	ra,0xb
   14c5c:	f4c080e7          	jalr	-180(ra) # 1fba4 <_ZN9allow_pin12dynamic_type7unshare17hb27555f71d22f3b2E>
   14c60:	40f6                	lw	ra,92(sp)
   14c62:	4466                	lw	s0,88(sp)
   14c64:	44d6                	lw	s1,84(sp)
   14c66:	4946                	lw	s2,80(sp)
   14c68:	49b6                	lw	s3,76(sp)
   14c6a:	6125                	addi	sp,sp,96
   14c6c:	8082                	ret

00014c6e <_ZN20complex_dynamic_type3app17h603db9412da71293E>:
   14c6e:	715d                	addi	sp,sp,-80
   14c70:	c686                	sw	ra,76(sp)
   14c72:	c4a2                	sw	s0,72(sp)
   14c74:	c2a6                	sw	s1,68(sp)
   14c76:	c0ca                	sw	s2,64(sp)
   14c78:	de4e                	sw	s3,60(sp)
   14c7a:	892a                	mv	s2,a0
   14c7c:	4489                	li	s1,2
   14c7e:	00910223          	sb	s1,4(sp)
   14c82:	00510413          	addi	s0,sp,5
   14c86:	4661                	li	a2,24
   14c88:	8522                	mv	a0,s0
   14c8a:	0000b097          	auipc	ra,0xb
   14c8e:	f92080e7          	jalr	-110(ra) # 1fc1c <memcpy>
   14c92:	01e10993          	addi	s3,sp,30
   14c96:	4679                	li	a2,30
   14c98:	854e                	mv	a0,s3
   14c9a:	4581                	li	a1,0
   14c9c:	0000b097          	auipc	ra,0xb
   14ca0:	f14080e7          	jalr	-236(ra) # 1fbb0 <memset>
   14ca4:	8622                	mv	a2,s0
   14ca6:	00910ea3          	sb	s1,29(sp)
   14caa:	6505                	lui	a0,0x1
   14cac:	4791                	li	a5,4
   14cae:	45a5                	li	a1,9
   14cb0:	cbb50513          	addi	a0,a0,-837 # cbb <.Lline_table_start1+0xa90>
   14cb4:	46e1                	li	a3,24
   14cb6:	4711                	li	a4,4
   14cb8:	00000073          	ecall
   14cbc:	00950463          	beq	a0,s1,14cc4 <_ZN20complex_dynamic_type3app17h603db9412da71293E+0x56>
   14cc0:	00f10223          	sb	a5,4(sp)
   14cc4:	4609                	li	a2,2
   14cc6:	00c51463          	bne	a0,a2,14cce <_ZN20complex_dynamic_type3app17h603db9412da71293E+0x60>
   14cca:	4785                	li	a5,1
   14ccc:	a851                	j	14d60 <_ZN20complex_dynamic_type3app17h603db9412da71293E+0xf2>
   14cce:	01d14503          	lbu	a0,29(sp)
   14cd2:	4785                	li	a5,1
   14cd4:	02c51263          	bne	a0,a2,14cf8 <_ZN20complex_dynamic_type3app17h603db9412da71293E+0x8a>
   14cd8:	864e                	mv	a2,s3
   14cda:	6505                	lui	a0,0x1
   14cdc:	4595                	li	a1,5
   14cde:	46f9                	li	a3,30
   14ce0:	470d                	li	a4,3
   14ce2:	cbb50513          	addi	a0,a0,-837 # cbb <.Lline_table_start1+0xa90>
   14ce6:	4489                	li	s1,2
   14ce8:	00000073          	ecall
   14cec:	460d                	li	a2,3
   14cee:	00951963          	bne	a0,s1,14d00 <_ZN20complex_dynamic_type3app17h603db9412da71293E+0x92>
   14cf2:	4505                	li	a0,1
   14cf4:	c911                	beqz	a0,14d08 <_ZN20complex_dynamic_type3app17h603db9412da71293E+0x9a>
   14cf6:	a0ad                	j	14d60 <_ZN20complex_dynamic_type3app17h603db9412da71293E+0xf2>
   14cf8:	458d                	li	a1,3
   14cfa:	4505                	li	a0,1
   14cfc:	c511                	beqz	a0,14d08 <_ZN20complex_dynamic_type3app17h603db9412da71293E+0x9a>
   14cfe:	a08d                	j	14d60 <_ZN20complex_dynamic_type3app17h603db9412da71293E+0xf2>
   14d00:	4501                	li	a0,0
   14d02:	00c10ea3          	sb	a2,29(sp)
   14d06:	ed29                	bnez	a0,14d60 <_ZN20complex_dynamic_type3app17h603db9412da71293E+0xf2>
   14d08:	4681                	li	a3,0
   14d0a:	6505                	lui	a0,0x1
   14d0c:	45a5                	li	a1,9
   14d0e:	4615                	li	a2,5
   14d10:	4709                	li	a4,2
   14d12:	cbb50513          	addi	a0,a0,-837 # cbb <.Lline_table_start1+0xa90>
   14d16:	07f00493          	li	s1,127
   14d1a:	00000073          	ecall
   14d1e:	4689                	li	a3,2
   14d20:	04a4f063          	bgeu	s1,a0,14d60 <_ZN20complex_dynamic_type3app17h603db9412da71293E+0xf2>
   14d24:	00414603          	lbu	a2,4(sp)
   14d28:	00d60a63          	beq	a2,a3,14d3c <_ZN20complex_dynamic_type3app17h603db9412da71293E+0xce>
   14d2c:	6505                	lui	a0,0x1
   14d2e:	cbb50513          	addi	a0,a0,-837 # cbb <.Lline_table_start1+0xa90>
   14d32:	45a5                	li	a1,9
   14d34:	0000b097          	auipc	ra,0xb
   14d38:	e70080e7          	jalr	-400(ra) # 1fba4 <_ZN9allow_pin12dynamic_type7unshare17hb27555f71d22f3b2E>
   14d3c:	01d14603          	lbu	a2,29(sp)
   14d40:	4409                	li	s0,2
   14d42:	00810223          	sb	s0,4(sp)
   14d46:	00860a63          	beq	a2,s0,14d5a <_ZN20complex_dynamic_type3app17h603db9412da71293E+0xec>
   14d4a:	6505                	lui	a0,0x1
   14d4c:	cbb50513          	addi	a0,a0,-837 # cbb <.Lline_table_start1+0xa90>
   14d50:	4595                	li	a1,5
   14d52:	0000b097          	auipc	ra,0xb
   14d56:	e52080e7          	jalr	-430(ra) # 1fba4 <_ZN9allow_pin12dynamic_type7unshare17hb27555f71d22f3b2E>
   14d5a:	4781                	li	a5,0
   14d5c:	00810ea3          	sb	s0,29(sp)
   14d60:	cb85                	beqz	a5,14d90 <_ZN20complex_dynamic_type3app17h603db9412da71293E+0x122>
   14d62:	01d14603          	lbu	a2,29(sp)
   14d66:	4505                	li	a0,1
   14d68:	4409                	li	s0,2
   14d6a:	00a90023          	sb	a0,0(s2)
   14d6e:	00b92223          	sw	a1,4(s2)
   14d72:	00860a63          	beq	a2,s0,14d86 <_ZN20complex_dynamic_type3app17h603db9412da71293E+0x118>
   14d76:	6505                	lui	a0,0x1
   14d78:	cbb50513          	addi	a0,a0,-837 # cbb <.Lline_table_start1+0xa90>
   14d7c:	4595                	li	a1,5
   14d7e:	0000b097          	auipc	ra,0xb
   14d82:	e26080e7          	jalr	-474(ra) # 1fba4 <_ZN9allow_pin12dynamic_type7unshare17hb27555f71d22f3b2E>
   14d86:	00414603          	lbu	a2,4(sp)
   14d8a:	04861663          	bne	a2,s0,14dd6 <_ZN20complex_dynamic_type3app17h603db9412da71293E+0x168>
   14d8e:	a8a1                	j	14de6 <_ZN20complex_dynamic_type3app17h603db9412da71293E+0x178>
   14d90:	01d14403          	lbu	s0,29(sp)
   14d94:	4489                	li	s1,2
   14d96:	00940663          	beq	s0,s1,14da2 <_ZN20complex_dynamic_type3app17h603db9412da71293E+0x134>
   14d9a:	000109b7          	lui	s3,0x10
   14d9e:	13c98993          	addi	s3,s3,316 # 1013c <.Lanon.49c9f8067fe4468184af16d7576940c9.2>
   14da2:	00190513          	addi	a0,s2,1
   14da6:	4679                	li	a2,30
   14da8:	85ce                	mv	a1,s3
   14daa:	0000b097          	auipc	ra,0xb
   14dae:	e72080e7          	jalr	-398(ra) # 1fc1c <memcpy>
   14db2:	00090023          	sb	zero,0(s2)
   14db6:	00940b63          	beq	s0,s1,14dcc <_ZN20complex_dynamic_type3app17h603db9412da71293E+0x15e>
   14dba:	6505                	lui	a0,0x1
   14dbc:	cbb50513          	addi	a0,a0,-837 # cbb <.Lline_table_start1+0xa90>
   14dc0:	4595                	li	a1,5
   14dc2:	8622                	mv	a2,s0
   14dc4:	0000b097          	auipc	ra,0xb
   14dc8:	de0080e7          	jalr	-544(ra) # 1fba4 <_ZN9allow_pin12dynamic_type7unshare17hb27555f71d22f3b2E>
   14dcc:	00414603          	lbu	a2,4(sp)
   14dd0:	4509                	li	a0,2
   14dd2:	00a60a63          	beq	a2,a0,14de6 <_ZN20complex_dynamic_type3app17h603db9412da71293E+0x178>
   14dd6:	6505                	lui	a0,0x1
   14dd8:	cbb50513          	addi	a0,a0,-837 # cbb <.Lline_table_start1+0xa90>
   14ddc:	45a5                	li	a1,9
   14dde:	0000b097          	auipc	ra,0xb
   14de2:	dc6080e7          	jalr	-570(ra) # 1fba4 <_ZN9allow_pin12dynamic_type7unshare17hb27555f71d22f3b2E>
   14de6:	40b6                	lw	ra,76(sp)
   14de8:	4426                	lw	s0,72(sp)
   14dea:	4496                	lw	s1,68(sp)
   14dec:	4906                	lw	s2,64(sp)
   14dee:	59f2                	lw	s3,60(sp)
   14df0:	6161                	addi	sp,sp,80
   14df2:	8082                	ret

00014df4 <_ZN20complex_dynamic_type3app17h61b64af1cf2f21e5E>:
   14df4:	7135                	addi	sp,sp,-160
   14df6:	cf06                	sw	ra,156(sp)
   14df8:	cd22                	sw	s0,152(sp)
   14dfa:	cb26                	sw	s1,148(sp)
   14dfc:	c94a                	sw	s2,144(sp)
   14dfe:	c74e                	sw	s3,140(sp)
   14e00:	892a                	mv	s2,a0
   14e02:	4489                	li	s1,2
   14e04:	009101a3          	sb	s1,3(sp)
   14e08:	0040                	addi	s0,sp,4
   14e0a:	05500613          	li	a2,85
   14e0e:	8522                	mv	a0,s0
   14e10:	0000b097          	auipc	ra,0xb
   14e14:	e0c080e7          	jalr	-500(ra) # 1fc1c <memcpy>
   14e18:	05a10993          	addi	s3,sp,90
   14e1c:	03200613          	li	a2,50
   14e20:	854e                	mv	a0,s3
   14e22:	4581                	li	a1,0
   14e24:	0000b097          	auipc	ra,0xb
   14e28:	d8c080e7          	jalr	-628(ra) # 1fbb0 <memset>
   14e2c:	8622                	mv	a2,s0
   14e2e:	04910ca3          	sb	s1,89(sp)
   14e32:	6509                	lui	a0,0x2
   14e34:	4791                	li	a5,4
   14e36:	45a1                	li	a1,8
   14e38:	09550513          	addi	a0,a0,149 # 2095 <.Lline_table_start1+0x1e6a>
   14e3c:	05500693          	li	a3,85
   14e40:	4711                	li	a4,4
   14e42:	00000073          	ecall
   14e46:	00950463          	beq	a0,s1,14e4e <_ZN20complex_dynamic_type3app17h61b64af1cf2f21e5E+0x5a>
   14e4a:	00f101a3          	sb	a5,3(sp)
   14e4e:	4609                	li	a2,2
   14e50:	00c51463          	bne	a0,a2,14e58 <_ZN20complex_dynamic_type3app17h61b64af1cf2f21e5E+0x64>
   14e54:	4785                	li	a5,1
   14e56:	a859                	j	14eec <_ZN20complex_dynamic_type3app17h61b64af1cf2f21e5E+0xf8>
   14e58:	05914503          	lbu	a0,89(sp)
   14e5c:	4785                	li	a5,1
   14e5e:	02c51363          	bne	a0,a2,14e84 <_ZN20complex_dynamic_type3app17h61b64af1cf2f21e5E+0x90>
   14e62:	864e                	mv	a2,s3
   14e64:	6509                	lui	a0,0x2
   14e66:	45a1                	li	a1,8
   14e68:	03200693          	li	a3,50
   14e6c:	470d                	li	a4,3
   14e6e:	09550513          	addi	a0,a0,149 # 2095 <.Lline_table_start1+0x1e6a>
   14e72:	4489                	li	s1,2
   14e74:	00000073          	ecall
   14e78:	460d                	li	a2,3
   14e7a:	00951963          	bne	a0,s1,14e8c <_ZN20complex_dynamic_type3app17h61b64af1cf2f21e5E+0x98>
   14e7e:	4505                	li	a0,1
   14e80:	c911                	beqz	a0,14e94 <_ZN20complex_dynamic_type3app17h61b64af1cf2f21e5E+0xa0>
   14e82:	a0ad                	j	14eec <_ZN20complex_dynamic_type3app17h61b64af1cf2f21e5E+0xf8>
   14e84:	458d                	li	a1,3
   14e86:	4505                	li	a0,1
   14e88:	c511                	beqz	a0,14e94 <_ZN20complex_dynamic_type3app17h61b64af1cf2f21e5E+0xa0>
   14e8a:	a08d                	j	14eec <_ZN20complex_dynamic_type3app17h61b64af1cf2f21e5E+0xf8>
   14e8c:	4501                	li	a0,0
   14e8e:	04c10ca3          	sb	a2,89(sp)
   14e92:	ed29                	bnez	a0,14eec <_ZN20complex_dynamic_type3app17h61b64af1cf2f21e5E+0xf8>
   14e94:	4681                	li	a3,0
   14e96:	6509                	lui	a0,0x2
   14e98:	45a1                	li	a1,8
   14e9a:	4621                	li	a2,8
   14e9c:	4709                	li	a4,2
   14e9e:	09550513          	addi	a0,a0,149 # 2095 <.Lline_table_start1+0x1e6a>
   14ea2:	07f00493          	li	s1,127
   14ea6:	00000073          	ecall
   14eaa:	4689                	li	a3,2
   14eac:	04a4f063          	bgeu	s1,a0,14eec <_ZN20complex_dynamic_type3app17h61b64af1cf2f21e5E+0xf8>
   14eb0:	00314603          	lbu	a2,3(sp)
   14eb4:	00d60a63          	beq	a2,a3,14ec8 <_ZN20complex_dynamic_type3app17h61b64af1cf2f21e5E+0xd4>
   14eb8:	6509                	lui	a0,0x2
   14eba:	09550513          	addi	a0,a0,149 # 2095 <.Lline_table_start1+0x1e6a>
   14ebe:	45a1                	li	a1,8
   14ec0:	0000b097          	auipc	ra,0xb
   14ec4:	ce4080e7          	jalr	-796(ra) # 1fba4 <_ZN9allow_pin12dynamic_type7unshare17hb27555f71d22f3b2E>
   14ec8:	05914603          	lbu	a2,89(sp)
   14ecc:	4409                	li	s0,2
   14ece:	008101a3          	sb	s0,3(sp)
   14ed2:	00860a63          	beq	a2,s0,14ee6 <_ZN20complex_dynamic_type3app17h61b64af1cf2f21e5E+0xf2>
   14ed6:	6509                	lui	a0,0x2
   14ed8:	09550513          	addi	a0,a0,149 # 2095 <.Lline_table_start1+0x1e6a>
   14edc:	45a1                	li	a1,8
   14ede:	0000b097          	auipc	ra,0xb
   14ee2:	cc6080e7          	jalr	-826(ra) # 1fba4 <_ZN9allow_pin12dynamic_type7unshare17hb27555f71d22f3b2E>
   14ee6:	4781                	li	a5,0
   14ee8:	04810ca3          	sb	s0,89(sp)
   14eec:	cb85                	beqz	a5,14f1c <_ZN20complex_dynamic_type3app17h61b64af1cf2f21e5E+0x128>
   14eee:	05914603          	lbu	a2,89(sp)
   14ef2:	4505                	li	a0,1
   14ef4:	4409                	li	s0,2
   14ef6:	00a90023          	sb	a0,0(s2)
   14efa:	00b92223          	sw	a1,4(s2)
   14efe:	00860a63          	beq	a2,s0,14f12 <_ZN20complex_dynamic_type3app17h61b64af1cf2f21e5E+0x11e>
   14f02:	6509                	lui	a0,0x2
   14f04:	09550513          	addi	a0,a0,149 # 2095 <.Lline_table_start1+0x1e6a>
   14f08:	45a1                	li	a1,8
   14f0a:	0000b097          	auipc	ra,0xb
   14f0e:	c9a080e7          	jalr	-870(ra) # 1fba4 <_ZN9allow_pin12dynamic_type7unshare17hb27555f71d22f3b2E>
   14f12:	00314603          	lbu	a2,3(sp)
   14f16:	04861763          	bne	a2,s0,14f64 <_ZN20complex_dynamic_type3app17h61b64af1cf2f21e5E+0x170>
   14f1a:	a8a9                	j	14f74 <_ZN20complex_dynamic_type3app17h61b64af1cf2f21e5E+0x180>
   14f1c:	05914403          	lbu	s0,89(sp)
   14f20:	4489                	li	s1,2
   14f22:	00940663          	beq	s0,s1,14f2e <_ZN20complex_dynamic_type3app17h61b64af1cf2f21e5E+0x13a>
   14f26:	000109b7          	lui	s3,0x10
   14f2a:	1cb98993          	addi	s3,s3,459 # 101cb <.Lanon.49c9f8067fe4468184af16d7576940c9.6>
   14f2e:	00190513          	addi	a0,s2,1
   14f32:	03200613          	li	a2,50
   14f36:	85ce                	mv	a1,s3
   14f38:	0000b097          	auipc	ra,0xb
   14f3c:	ce4080e7          	jalr	-796(ra) # 1fc1c <memcpy>
   14f40:	00090023          	sb	zero,0(s2)
   14f44:	00940b63          	beq	s0,s1,14f5a <_ZN20complex_dynamic_type3app17h61b64af1cf2f21e5E+0x166>
   14f48:	6509                	lui	a0,0x2
   14f4a:	09550513          	addi	a0,a0,149 # 2095 <.Lline_table_start1+0x1e6a>
   14f4e:	45a1                	li	a1,8
   14f50:	8622                	mv	a2,s0
   14f52:	0000b097          	auipc	ra,0xb
   14f56:	c52080e7          	jalr	-942(ra) # 1fba4 <_ZN9allow_pin12dynamic_type7unshare17hb27555f71d22f3b2E>
   14f5a:	00314603          	lbu	a2,3(sp)
   14f5e:	4509                	li	a0,2
   14f60:	00a60a63          	beq	a2,a0,14f74 <_ZN20complex_dynamic_type3app17h61b64af1cf2f21e5E+0x180>
   14f64:	6509                	lui	a0,0x2
   14f66:	09550513          	addi	a0,a0,149 # 2095 <.Lline_table_start1+0x1e6a>
   14f6a:	45a1                	li	a1,8
   14f6c:	0000b097          	auipc	ra,0xb
   14f70:	c38080e7          	jalr	-968(ra) # 1fba4 <_ZN9allow_pin12dynamic_type7unshare17hb27555f71d22f3b2E>
   14f74:	40fa                	lw	ra,156(sp)
   14f76:	446a                	lw	s0,152(sp)
   14f78:	44da                	lw	s1,148(sp)
   14f7a:	494a                	lw	s2,144(sp)
   14f7c:	49ba                	lw	s3,140(sp)
   14f7e:	610d                	addi	sp,sp,160
   14f80:	8082                	ret

00014f82 <_ZN20complex_dynamic_type3app17h63e006453c4b8d8bE>:
   14f82:	711d                	addi	sp,sp,-96
   14f84:	ce86                	sw	ra,92(sp)
   14f86:	cca2                	sw	s0,88(sp)
   14f88:	caa6                	sw	s1,84(sp)
   14f8a:	c8ca                	sw	s2,80(sp)
   14f8c:	c6ce                	sw	s3,76(sp)
   14f8e:	892a                	mv	s2,a0
   14f90:	4489                	li	s1,2
   14f92:	009106a3          	sb	s1,13(sp)
   14f96:	00e10413          	addi	s0,sp,14
   14f9a:	02500613          	li	a2,37
   14f9e:	8522                	mv	a0,s0
   14fa0:	0000b097          	auipc	ra,0xb
   14fa4:	c7c080e7          	jalr	-900(ra) # 1fc1c <memcpy>
   14fa8:	03410993          	addi	s3,sp,52
   14fac:	4661                	li	a2,24
   14fae:	854e                	mv	a0,s3
   14fb0:	4581                	li	a1,0
   14fb2:	0000b097          	auipc	ra,0xb
   14fb6:	bfe080e7          	jalr	-1026(ra) # 1fbb0 <memset>
   14fba:	8622                	mv	a2,s0
   14fbc:	029109a3          	sb	s1,51(sp)
   14fc0:	6505                	lui	a0,0x1
   14fc2:	4791                	li	a5,4
   14fc4:	45a5                	li	a1,9
   14fc6:	a7050513          	addi	a0,a0,-1424 # a70 <.Lline_table_start1+0x845>
   14fca:	02500693          	li	a3,37
   14fce:	4711                	li	a4,4
   14fd0:	00000073          	ecall
   14fd4:	00950463          	beq	a0,s1,14fdc <_ZN20complex_dynamic_type3app17h63e006453c4b8d8bE+0x5a>
   14fd8:	00f106a3          	sb	a5,13(sp)
   14fdc:	4609                	li	a2,2
   14fde:	00c51463          	bne	a0,a2,14fe6 <_ZN20complex_dynamic_type3app17h63e006453c4b8d8bE+0x64>
   14fe2:	4785                	li	a5,1
   14fe4:	a851                	j	15078 <_ZN20complex_dynamic_type3app17h63e006453c4b8d8bE+0xf6>
   14fe6:	03314503          	lbu	a0,51(sp)
   14fea:	4785                	li	a5,1
   14fec:	02c51263          	bne	a0,a2,15010 <_ZN20complex_dynamic_type3app17h63e006453c4b8d8bE+0x8e>
   14ff0:	864e                	mv	a2,s3
   14ff2:	6505                	lui	a0,0x1
   14ff4:	45a1                	li	a1,8
   14ff6:	46e1                	li	a3,24
   14ff8:	470d                	li	a4,3
   14ffa:	a7050513          	addi	a0,a0,-1424 # a70 <.Lline_table_start1+0x845>
   14ffe:	4489                	li	s1,2
   15000:	00000073          	ecall
   15004:	460d                	li	a2,3
   15006:	00951963          	bne	a0,s1,15018 <_ZN20complex_dynamic_type3app17h63e006453c4b8d8bE+0x96>
   1500a:	4505                	li	a0,1
   1500c:	c911                	beqz	a0,15020 <_ZN20complex_dynamic_type3app17h63e006453c4b8d8bE+0x9e>
   1500e:	a0ad                	j	15078 <_ZN20complex_dynamic_type3app17h63e006453c4b8d8bE+0xf6>
   15010:	458d                	li	a1,3
   15012:	4505                	li	a0,1
   15014:	c511                	beqz	a0,15020 <_ZN20complex_dynamic_type3app17h63e006453c4b8d8bE+0x9e>
   15016:	a08d                	j	15078 <_ZN20complex_dynamic_type3app17h63e006453c4b8d8bE+0xf6>
   15018:	4501                	li	a0,0
   1501a:	02c109a3          	sb	a2,51(sp)
   1501e:	ed29                	bnez	a0,15078 <_ZN20complex_dynamic_type3app17h63e006453c4b8d8bE+0xf6>
   15020:	4681                	li	a3,0
   15022:	6505                	lui	a0,0x1
   15024:	45a5                	li	a1,9
   15026:	4621                	li	a2,8
   15028:	4709                	li	a4,2
   1502a:	a7050513          	addi	a0,a0,-1424 # a70 <.Lline_table_start1+0x845>
   1502e:	07f00493          	li	s1,127
   15032:	00000073          	ecall
   15036:	4689                	li	a3,2
   15038:	04a4f063          	bgeu	s1,a0,15078 <_ZN20complex_dynamic_type3app17h63e006453c4b8d8bE+0xf6>
   1503c:	00d14603          	lbu	a2,13(sp)
   15040:	00d60a63          	beq	a2,a3,15054 <_ZN20complex_dynamic_type3app17h63e006453c4b8d8bE+0xd2>
   15044:	6505                	lui	a0,0x1
   15046:	a7050513          	addi	a0,a0,-1424 # a70 <.Lline_table_start1+0x845>
   1504a:	45a5                	li	a1,9
   1504c:	0000b097          	auipc	ra,0xb
   15050:	b58080e7          	jalr	-1192(ra) # 1fba4 <_ZN9allow_pin12dynamic_type7unshare17hb27555f71d22f3b2E>
   15054:	03314603          	lbu	a2,51(sp)
   15058:	4409                	li	s0,2
   1505a:	008106a3          	sb	s0,13(sp)
   1505e:	00860a63          	beq	a2,s0,15072 <_ZN20complex_dynamic_type3app17h63e006453c4b8d8bE+0xf0>
   15062:	6505                	lui	a0,0x1
   15064:	a7050513          	addi	a0,a0,-1424 # a70 <.Lline_table_start1+0x845>
   15068:	45a1                	li	a1,8
   1506a:	0000b097          	auipc	ra,0xb
   1506e:	b3a080e7          	jalr	-1222(ra) # 1fba4 <_ZN9allow_pin12dynamic_type7unshare17hb27555f71d22f3b2E>
   15072:	4781                	li	a5,0
   15074:	028109a3          	sb	s0,51(sp)
   15078:	cb85                	beqz	a5,150a8 <_ZN20complex_dynamic_type3app17h63e006453c4b8d8bE+0x126>
   1507a:	03314603          	lbu	a2,51(sp)
   1507e:	4505                	li	a0,1
   15080:	4409                	li	s0,2
   15082:	00a90023          	sb	a0,0(s2)
   15086:	00b92223          	sw	a1,4(s2)
   1508a:	00860a63          	beq	a2,s0,1509e <_ZN20complex_dynamic_type3app17h63e006453c4b8d8bE+0x11c>
   1508e:	6505                	lui	a0,0x1
   15090:	a7050513          	addi	a0,a0,-1424 # a70 <.Lline_table_start1+0x845>
   15094:	45a1                	li	a1,8
   15096:	0000b097          	auipc	ra,0xb
   1509a:	b0e080e7          	jalr	-1266(ra) # 1fba4 <_ZN9allow_pin12dynamic_type7unshare17hb27555f71d22f3b2E>
   1509e:	00d14603          	lbu	a2,13(sp)
   150a2:	04861663          	bne	a2,s0,150ee <_ZN20complex_dynamic_type3app17h63e006453c4b8d8bE+0x16c>
   150a6:	a8a1                	j	150fe <_ZN20complex_dynamic_type3app17h63e006453c4b8d8bE+0x17c>
   150a8:	03314403          	lbu	s0,51(sp)
   150ac:	4489                	li	s1,2
   150ae:	00940663          	beq	s0,s1,150ba <_ZN20complex_dynamic_type3app17h63e006453c4b8d8bE+0x138>
   150b2:	000119b7          	lui	s3,0x11
   150b6:	86698993          	addi	s3,s3,-1946 # 10866 <.Lanon.49c9f8067fe4468184af16d7576940c9.39>
   150ba:	00190513          	addi	a0,s2,1
   150be:	4661                	li	a2,24
   150c0:	85ce                	mv	a1,s3
   150c2:	0000b097          	auipc	ra,0xb
   150c6:	b5a080e7          	jalr	-1190(ra) # 1fc1c <memcpy>
   150ca:	00090023          	sb	zero,0(s2)
   150ce:	00940b63          	beq	s0,s1,150e4 <_ZN20complex_dynamic_type3app17h63e006453c4b8d8bE+0x162>
   150d2:	6505                	lui	a0,0x1
   150d4:	a7050513          	addi	a0,a0,-1424 # a70 <.Lline_table_start1+0x845>
   150d8:	45a1                	li	a1,8
   150da:	8622                	mv	a2,s0
   150dc:	0000b097          	auipc	ra,0xb
   150e0:	ac8080e7          	jalr	-1336(ra) # 1fba4 <_ZN9allow_pin12dynamic_type7unshare17hb27555f71d22f3b2E>
   150e4:	00d14603          	lbu	a2,13(sp)
   150e8:	4509                	li	a0,2
   150ea:	00a60a63          	beq	a2,a0,150fe <_ZN20complex_dynamic_type3app17h63e006453c4b8d8bE+0x17c>
   150ee:	6505                	lui	a0,0x1
   150f0:	a7050513          	addi	a0,a0,-1424 # a70 <.Lline_table_start1+0x845>
   150f4:	45a5                	li	a1,9
   150f6:	0000b097          	auipc	ra,0xb
   150fa:	aae080e7          	jalr	-1362(ra) # 1fba4 <_ZN9allow_pin12dynamic_type7unshare17hb27555f71d22f3b2E>
   150fe:	40f6                	lw	ra,92(sp)
   15100:	4466                	lw	s0,88(sp)
   15102:	44d6                	lw	s1,84(sp)
   15104:	4946                	lw	s2,80(sp)
   15106:	49b6                	lw	s3,76(sp)
   15108:	6125                	addi	sp,sp,96
   1510a:	8082                	ret

0001510c <_ZN20complex_dynamic_type3app17h660e32ced0124a14E>:
   1510c:	711d                	addi	sp,sp,-96
   1510e:	ce86                	sw	ra,92(sp)
   15110:	cca2                	sw	s0,88(sp)
   15112:	caa6                	sw	s1,84(sp)
   15114:	c8ca                	sw	s2,80(sp)
   15116:	c6ce                	sw	s3,76(sp)
   15118:	892a                	mv	s2,a0
   1511a:	4489                	li	s1,2
   1511c:	009102a3          	sb	s1,5(sp)
   15120:	00610413          	addi	s0,sp,6
   15124:	03600613          	li	a2,54
   15128:	8522                	mv	a0,s0
   1512a:	0000b097          	auipc	ra,0xb
   1512e:	af2080e7          	jalr	-1294(ra) # 1fc1c <memcpy>
   15132:	03d10993          	addi	s3,sp,61
   15136:	463d                	li	a2,15
   15138:	854e                	mv	a0,s3
   1513a:	4581                	li	a1,0
   1513c:	0000b097          	auipc	ra,0xb
   15140:	a74080e7          	jalr	-1420(ra) # 1fbb0 <memset>
   15144:	8622                	mv	a2,s0
   15146:	02910e23          	sb	s1,60(sp)
   1514a:	4791                	li	a5,4
   1514c:	65300513          	li	a0,1619
   15150:	4595                	li	a1,5
   15152:	03600693          	li	a3,54
   15156:	4711                	li	a4,4
   15158:	00000073          	ecall
   1515c:	00950463          	beq	a0,s1,15164 <_ZN20complex_dynamic_type3app17h660e32ced0124a14E+0x58>
   15160:	00f102a3          	sb	a5,5(sp)
   15164:	4609                	li	a2,2
   15166:	00c51463          	bne	a0,a2,1516e <_ZN20complex_dynamic_type3app17h660e32ced0124a14E+0x62>
   1516a:	4785                	li	a5,1
   1516c:	a071                	j	151f8 <_ZN20complex_dynamic_type3app17h660e32ced0124a14E+0xec>
   1516e:	03c14503          	lbu	a0,60(sp)
   15172:	4785                	li	a5,1
   15174:	02c51163          	bne	a0,a2,15196 <_ZN20complex_dynamic_type3app17h660e32ced0124a14E+0x8a>
   15178:	864e                	mv	a2,s3
   1517a:	65300513          	li	a0,1619
   1517e:	458d                	li	a1,3
   15180:	46bd                	li	a3,15
   15182:	470d                	li	a4,3
   15184:	4489                	li	s1,2
   15186:	00000073          	ecall
   1518a:	460d                	li	a2,3
   1518c:	00951963          	bne	a0,s1,1519e <_ZN20complex_dynamic_type3app17h660e32ced0124a14E+0x92>
   15190:	4505                	li	a0,1
   15192:	c911                	beqz	a0,151a6 <_ZN20complex_dynamic_type3app17h660e32ced0124a14E+0x9a>
   15194:	a095                	j	151f8 <_ZN20complex_dynamic_type3app17h660e32ced0124a14E+0xec>
   15196:	458d                	li	a1,3
   15198:	4505                	li	a0,1
   1519a:	c511                	beqz	a0,151a6 <_ZN20complex_dynamic_type3app17h660e32ced0124a14E+0x9a>
   1519c:	a8b1                	j	151f8 <_ZN20complex_dynamic_type3app17h660e32ced0124a14E+0xec>
   1519e:	4501                	li	a0,0
   151a0:	02c10e23          	sb	a2,60(sp)
   151a4:	e931                	bnez	a0,151f8 <_ZN20complex_dynamic_type3app17h660e32ced0124a14E+0xec>
   151a6:	4681                	li	a3,0
   151a8:	65300513          	li	a0,1619
   151ac:	4595                	li	a1,5
   151ae:	460d                	li	a2,3
   151b0:	4709                	li	a4,2
   151b2:	07f00493          	li	s1,127
   151b6:	00000073          	ecall
   151ba:	4689                	li	a3,2
   151bc:	02a4fe63          	bgeu	s1,a0,151f8 <_ZN20complex_dynamic_type3app17h660e32ced0124a14E+0xec>
   151c0:	00514603          	lbu	a2,5(sp)
   151c4:	00d60963          	beq	a2,a3,151d6 <_ZN20complex_dynamic_type3app17h660e32ced0124a14E+0xca>
   151c8:	65300513          	li	a0,1619
   151cc:	4595                	li	a1,5
   151ce:	0000b097          	auipc	ra,0xb
   151d2:	9d6080e7          	jalr	-1578(ra) # 1fba4 <_ZN9allow_pin12dynamic_type7unshare17hb27555f71d22f3b2E>
   151d6:	03c14603          	lbu	a2,60(sp)
   151da:	4409                	li	s0,2
   151dc:	008102a3          	sb	s0,5(sp)
   151e0:	00860963          	beq	a2,s0,151f2 <_ZN20complex_dynamic_type3app17h660e32ced0124a14E+0xe6>
   151e4:	65300513          	li	a0,1619
   151e8:	458d                	li	a1,3
   151ea:	0000b097          	auipc	ra,0xb
   151ee:	9ba080e7          	jalr	-1606(ra) # 1fba4 <_ZN9allow_pin12dynamic_type7unshare17hb27555f71d22f3b2E>
   151f2:	4781                	li	a5,0
   151f4:	02810e23          	sb	s0,60(sp)
   151f8:	c79d                	beqz	a5,15226 <_ZN20complex_dynamic_type3app17h660e32ced0124a14E+0x11a>
   151fa:	03c14603          	lbu	a2,60(sp)
   151fe:	4505                	li	a0,1
   15200:	4409                	li	s0,2
   15202:	00a90023          	sb	a0,0(s2)
   15206:	00b92223          	sw	a1,4(s2)
   1520a:	00860963          	beq	a2,s0,1521c <_ZN20complex_dynamic_type3app17h660e32ced0124a14E+0x110>
   1520e:	65300513          	li	a0,1619
   15212:	458d                	li	a1,3
   15214:	0000b097          	auipc	ra,0xb
   15218:	990080e7          	jalr	-1648(ra) # 1fba4 <_ZN9allow_pin12dynamic_type7unshare17hb27555f71d22f3b2E>
   1521c:	00514603          	lbu	a2,5(sp)
   15220:	04861563          	bne	a2,s0,1526a <_ZN20complex_dynamic_type3app17h660e32ced0124a14E+0x15e>
   15224:	a891                	j	15278 <_ZN20complex_dynamic_type3app17h660e32ced0124a14E+0x16c>
   15226:	03c14403          	lbu	s0,60(sp)
   1522a:	4489                	li	s1,2
   1522c:	00940663          	beq	s0,s1,15238 <_ZN20complex_dynamic_type3app17h660e32ced0124a14E+0x12c>
   15230:	000109b7          	lui	s3,0x10
   15234:	16c98993          	addi	s3,s3,364 # 1016c <.Lanon.49c9f8067fe4468184af16d7576940c9.4>
   15238:	00190513          	addi	a0,s2,1
   1523c:	463d                	li	a2,15
   1523e:	85ce                	mv	a1,s3
   15240:	0000b097          	auipc	ra,0xb
   15244:	9dc080e7          	jalr	-1572(ra) # 1fc1c <memcpy>
   15248:	00090023          	sb	zero,0(s2)
   1524c:	00940a63          	beq	s0,s1,15260 <_ZN20complex_dynamic_type3app17h660e32ced0124a14E+0x154>
   15250:	65300513          	li	a0,1619
   15254:	458d                	li	a1,3
   15256:	8622                	mv	a2,s0
   15258:	0000b097          	auipc	ra,0xb
   1525c:	94c080e7          	jalr	-1716(ra) # 1fba4 <_ZN9allow_pin12dynamic_type7unshare17hb27555f71d22f3b2E>
   15260:	00514603          	lbu	a2,5(sp)
   15264:	4509                	li	a0,2
   15266:	00a60963          	beq	a2,a0,15278 <_ZN20complex_dynamic_type3app17h660e32ced0124a14E+0x16c>
   1526a:	65300513          	li	a0,1619
   1526e:	4595                	li	a1,5
   15270:	0000b097          	auipc	ra,0xb
   15274:	934080e7          	jalr	-1740(ra) # 1fba4 <_ZN9allow_pin12dynamic_type7unshare17hb27555f71d22f3b2E>
   15278:	40f6                	lw	ra,92(sp)
   1527a:	4466                	lw	s0,88(sp)
   1527c:	44d6                	lw	s1,84(sp)
   1527e:	4946                	lw	s2,80(sp)
   15280:	49b6                	lw	s3,76(sp)
   15282:	6125                	addi	sp,sp,96
   15284:	8082                	ret

00015286 <_ZN20complex_dynamic_type3app17h680ce00d5fb8b2b9E>:
   15286:	7175                	addi	sp,sp,-144
   15288:	c706                	sw	ra,140(sp)
   1528a:	c522                	sw	s0,136(sp)
   1528c:	c326                	sw	s1,132(sp)
   1528e:	c14a                	sw	s2,128(sp)
   15290:	dece                	sw	s3,124(sp)
   15292:	892a                	mv	s2,a0
   15294:	4489                	li	s1,2
   15296:	00910723          	sb	s1,14(sp)
   1529a:	00f10413          	addi	s0,sp,15
   1529e:	04900613          	li	a2,73
   152a2:	8522                	mv	a0,s0
   152a4:	0000b097          	auipc	ra,0xb
   152a8:	978080e7          	jalr	-1672(ra) # 1fc1c <memcpy>
   152ac:	05910993          	addi	s3,sp,89
   152b0:	02300613          	li	a2,35
   152b4:	854e                	mv	a0,s3
   152b6:	4581                	li	a1,0
   152b8:	0000b097          	auipc	ra,0xb
   152bc:	8f8080e7          	jalr	-1800(ra) # 1fbb0 <memset>
   152c0:	8622                	mv	a2,s0
   152c2:	04910c23          	sb	s1,88(sp)
   152c6:	6505                	lui	a0,0x1
   152c8:	4791                	li	a5,4
   152ca:	459d                	li	a1,7
   152cc:	55150513          	addi	a0,a0,1361 # 1551 <.Lline_table_start1+0x1326>
   152d0:	04900693          	li	a3,73
   152d4:	4711                	li	a4,4
   152d6:	00000073          	ecall
   152da:	00950463          	beq	a0,s1,152e2 <_ZN20complex_dynamic_type3app17h680ce00d5fb8b2b9E+0x5c>
   152de:	00f10723          	sb	a5,14(sp)
   152e2:	4609                	li	a2,2
   152e4:	00c51463          	bne	a0,a2,152ec <_ZN20complex_dynamic_type3app17h680ce00d5fb8b2b9E+0x66>
   152e8:	4785                	li	a5,1
   152ea:	a849                	j	1537c <_ZN20complex_dynamic_type3app17h680ce00d5fb8b2b9E+0xf6>
   152ec:	05814503          	lbu	a0,88(sp)
   152f0:	4785                	li	a5,1
   152f2:	02c51563          	bne	a0,a2,1531c <_ZN20complex_dynamic_type3app17h680ce00d5fb8b2b9E+0x96>
   152f6:	864e                	mv	a2,s3
   152f8:	6505                	lui	a0,0x1
   152fa:	4405                	li	s0,1
   152fc:	4585                	li	a1,1
   152fe:	02300693          	li	a3,35
   15302:	470d                	li	a4,3
   15304:	55150513          	addi	a0,a0,1361 # 1551 <.Lline_table_start1+0x1326>
   15308:	4489                	li	s1,2
   1530a:	00000073          	ecall
   1530e:	460d                	li	a2,3
   15310:	00950863          	beq	a0,s1,15320 <_ZN20complex_dynamic_type3app17h680ce00d5fb8b2b9E+0x9a>
   15314:	4401                	li	s0,0
   15316:	04c10c23          	sb	a2,88(sp)
   1531a:	a019                	j	15320 <_ZN20complex_dynamic_type3app17h680ce00d5fb8b2b9E+0x9a>
   1531c:	458d                	li	a1,3
   1531e:	4405                	li	s0,1
   15320:	ec31                	bnez	s0,1537c <_ZN20complex_dynamic_type3app17h680ce00d5fb8b2b9E+0xf6>
   15322:	4681                	li	a3,0
   15324:	6505                	lui	a0,0x1
   15326:	4785                	li	a5,1
   15328:	459d                	li	a1,7
   1532a:	4605                	li	a2,1
   1532c:	4709                	li	a4,2
   1532e:	55150513          	addi	a0,a0,1361 # 1551 <.Lline_table_start1+0x1326>
   15332:	07f00493          	li	s1,127
   15336:	00000073          	ecall
   1533a:	4689                	li	a3,2
   1533c:	04a4f063          	bgeu	s1,a0,1537c <_ZN20complex_dynamic_type3app17h680ce00d5fb8b2b9E+0xf6>
   15340:	00e14603          	lbu	a2,14(sp)
   15344:	00d60a63          	beq	a2,a3,15358 <_ZN20complex_dynamic_type3app17h680ce00d5fb8b2b9E+0xd2>
   15348:	6505                	lui	a0,0x1
   1534a:	55150513          	addi	a0,a0,1361 # 1551 <.Lline_table_start1+0x1326>
   1534e:	459d                	li	a1,7
   15350:	0000b097          	auipc	ra,0xb
   15354:	854080e7          	jalr	-1964(ra) # 1fba4 <_ZN9allow_pin12dynamic_type7unshare17hb27555f71d22f3b2E>
   15358:	05814603          	lbu	a2,88(sp)
   1535c:	4409                	li	s0,2
   1535e:	00810723          	sb	s0,14(sp)
   15362:	00860a63          	beq	a2,s0,15376 <_ZN20complex_dynamic_type3app17h680ce00d5fb8b2b9E+0xf0>
   15366:	6505                	lui	a0,0x1
   15368:	55150513          	addi	a0,a0,1361 # 1551 <.Lline_table_start1+0x1326>
   1536c:	4585                	li	a1,1
   1536e:	0000b097          	auipc	ra,0xb
   15372:	836080e7          	jalr	-1994(ra) # 1fba4 <_ZN9allow_pin12dynamic_type7unshare17hb27555f71d22f3b2E>
   15376:	4781                	li	a5,0
   15378:	04810c23          	sb	s0,88(sp)
   1537c:	cb85                	beqz	a5,153ac <_ZN20complex_dynamic_type3app17h680ce00d5fb8b2b9E+0x126>
   1537e:	05814603          	lbu	a2,88(sp)
   15382:	4505                	li	a0,1
   15384:	4409                	li	s0,2
   15386:	00a90023          	sb	a0,0(s2)
   1538a:	00b92223          	sw	a1,4(s2)
   1538e:	00860a63          	beq	a2,s0,153a2 <_ZN20complex_dynamic_type3app17h680ce00d5fb8b2b9E+0x11c>
   15392:	6505                	lui	a0,0x1
   15394:	55150513          	addi	a0,a0,1361 # 1551 <.Lline_table_start1+0x1326>
   15398:	4585                	li	a1,1
   1539a:	0000b097          	auipc	ra,0xb
   1539e:	80a080e7          	jalr	-2038(ra) # 1fba4 <_ZN9allow_pin12dynamic_type7unshare17hb27555f71d22f3b2E>
   153a2:	00e14603          	lbu	a2,14(sp)
   153a6:	04861763          	bne	a2,s0,153f4 <_ZN20complex_dynamic_type3app17h680ce00d5fb8b2b9E+0x16e>
   153aa:	a8a9                	j	15404 <_ZN20complex_dynamic_type3app17h680ce00d5fb8b2b9E+0x17e>
   153ac:	05814403          	lbu	s0,88(sp)
   153b0:	4489                	li	s1,2
   153b2:	00940663          	beq	s0,s1,153be <_ZN20complex_dynamic_type3app17h680ce00d5fb8b2b9E+0x138>
   153b6:	000109b7          	lui	s3,0x10
   153ba:	24d98993          	addi	s3,s3,589 # 1024d <.Lanon.49c9f8067fe4468184af16d7576940c9.9>
   153be:	00190513          	addi	a0,s2,1
   153c2:	02300613          	li	a2,35
   153c6:	85ce                	mv	a1,s3
   153c8:	0000b097          	auipc	ra,0xb
   153cc:	854080e7          	jalr	-1964(ra) # 1fc1c <memcpy>
   153d0:	00090023          	sb	zero,0(s2)
   153d4:	00940b63          	beq	s0,s1,153ea <_ZN20complex_dynamic_type3app17h680ce00d5fb8b2b9E+0x164>
   153d8:	6505                	lui	a0,0x1
   153da:	55150513          	addi	a0,a0,1361 # 1551 <.Lline_table_start1+0x1326>
   153de:	4585                	li	a1,1
   153e0:	8622                	mv	a2,s0
   153e2:	0000a097          	auipc	ra,0xa
   153e6:	7c2080e7          	jalr	1986(ra) # 1fba4 <_ZN9allow_pin12dynamic_type7unshare17hb27555f71d22f3b2E>
   153ea:	00e14603          	lbu	a2,14(sp)
   153ee:	4509                	li	a0,2
   153f0:	00a60a63          	beq	a2,a0,15404 <_ZN20complex_dynamic_type3app17h680ce00d5fb8b2b9E+0x17e>
   153f4:	6505                	lui	a0,0x1
   153f6:	55150513          	addi	a0,a0,1361 # 1551 <.Lline_table_start1+0x1326>
   153fa:	459d                	li	a1,7
   153fc:	0000a097          	auipc	ra,0xa
   15400:	7a8080e7          	jalr	1960(ra) # 1fba4 <_ZN9allow_pin12dynamic_type7unshare17hb27555f71d22f3b2E>
   15404:	40ba                	lw	ra,140(sp)
   15406:	442a                	lw	s0,136(sp)
   15408:	449a                	lw	s1,132(sp)
   1540a:	490a                	lw	s2,128(sp)
   1540c:	59f6                	lw	s3,124(sp)
   1540e:	6149                	addi	sp,sp,144
   15410:	8082                	ret

00015412 <_ZN20complex_dynamic_type3app17h695125e0033f2defE>:
   15412:	7159                	addi	sp,sp,-112
   15414:	d686                	sw	ra,108(sp)
   15416:	d4a2                	sw	s0,104(sp)
   15418:	d2a6                	sw	s1,100(sp)
   1541a:	d0ca                	sw	s2,96(sp)
   1541c:	cece                	sw	s3,92(sp)
   1541e:	892a                	mv	s2,a0
   15420:	4489                	li	s1,2
   15422:	009107a3          	sb	s1,15(sp)
   15426:	0800                	addi	s0,sp,16
   15428:	02100613          	li	a2,33
   1542c:	8522                	mv	a0,s0
   1542e:	0000a097          	auipc	ra,0xa
   15432:	7ee080e7          	jalr	2030(ra) # 1fc1c <memcpy>
   15436:	03210993          	addi	s3,sp,50
   1543a:	02a00613          	li	a2,42
   1543e:	854e                	mv	a0,s3
   15440:	4581                	li	a1,0
   15442:	0000a097          	auipc	ra,0xa
   15446:	76e080e7          	jalr	1902(ra) # 1fbb0 <memset>
   1544a:	8622                	mv	a2,s0
   1544c:	029108a3          	sb	s1,49(sp)
   15450:	6505                	lui	a0,0x1
   15452:	4791                	li	a5,4
   15454:	4585                	li	a1,1
   15456:	5f350513          	addi	a0,a0,1523 # 15f3 <.Lline_table_start1+0x13c8>
   1545a:	02100693          	li	a3,33
   1545e:	4711                	li	a4,4
   15460:	00000073          	ecall
   15464:	00950463          	beq	a0,s1,1546c <_ZN20complex_dynamic_type3app17h695125e0033f2defE+0x5a>
   15468:	00f107a3          	sb	a5,15(sp)
   1546c:	4609                	li	a2,2
   1546e:	00c51463          	bne	a0,a2,15476 <_ZN20complex_dynamic_type3app17h695125e0033f2defE+0x64>
   15472:	4785                	li	a5,1
   15474:	a861                	j	1550c <_ZN20complex_dynamic_type3app17h695125e0033f2defE+0xfa>
   15476:	03114503          	lbu	a0,49(sp)
   1547a:	4785                	li	a5,1
   1547c:	02c51363          	bne	a0,a2,154a2 <_ZN20complex_dynamic_type3app17h695125e0033f2defE+0x90>
   15480:	864e                	mv	a2,s3
   15482:	6505                	lui	a0,0x1
   15484:	458d                	li	a1,3
   15486:	02a00693          	li	a3,42
   1548a:	470d                	li	a4,3
   1548c:	5f350513          	addi	a0,a0,1523 # 15f3 <.Lline_table_start1+0x13c8>
   15490:	4489                	li	s1,2
   15492:	00000073          	ecall
   15496:	460d                	li	a2,3
   15498:	00951963          	bne	a0,s1,154aa <_ZN20complex_dynamic_type3app17h695125e0033f2defE+0x98>
   1549c:	4505                	li	a0,1
   1549e:	c911                	beqz	a0,154b2 <_ZN20complex_dynamic_type3app17h695125e0033f2defE+0xa0>
   154a0:	a0b5                	j	1550c <_ZN20complex_dynamic_type3app17h695125e0033f2defE+0xfa>
   154a2:	458d                	li	a1,3
   154a4:	4505                	li	a0,1
   154a6:	c511                	beqz	a0,154b2 <_ZN20complex_dynamic_type3app17h695125e0033f2defE+0xa0>
   154a8:	a095                	j	1550c <_ZN20complex_dynamic_type3app17h695125e0033f2defE+0xfa>
   154aa:	4501                	li	a0,0
   154ac:	02c108a3          	sb	a2,49(sp)
   154b0:	ed31                	bnez	a0,1550c <_ZN20complex_dynamic_type3app17h695125e0033f2defE+0xfa>
   154b2:	4681                	li	a3,0
   154b4:	6505                	lui	a0,0x1
   154b6:	4785                	li	a5,1
   154b8:	4585                	li	a1,1
   154ba:	460d                	li	a2,3
   154bc:	4709                	li	a4,2
   154be:	5f350513          	addi	a0,a0,1523 # 15f3 <.Lline_table_start1+0x13c8>
   154c2:	07f00493          	li	s1,127
   154c6:	00000073          	ecall
   154ca:	4689                	li	a3,2
   154cc:	04a4f063          	bgeu	s1,a0,1550c <_ZN20complex_dynamic_type3app17h695125e0033f2defE+0xfa>
   154d0:	00f14603          	lbu	a2,15(sp)
   154d4:	00d60a63          	beq	a2,a3,154e8 <_ZN20complex_dynamic_type3app17h695125e0033f2defE+0xd6>
   154d8:	6505                	lui	a0,0x1
   154da:	5f350513          	addi	a0,a0,1523 # 15f3 <.Lline_table_start1+0x13c8>
   154de:	4585                	li	a1,1
   154e0:	0000a097          	auipc	ra,0xa
   154e4:	6c4080e7          	jalr	1732(ra) # 1fba4 <_ZN9allow_pin12dynamic_type7unshare17hb27555f71d22f3b2E>
   154e8:	03114603          	lbu	a2,49(sp)
   154ec:	4409                	li	s0,2
   154ee:	008107a3          	sb	s0,15(sp)
   154f2:	00860a63          	beq	a2,s0,15506 <_ZN20complex_dynamic_type3app17h695125e0033f2defE+0xf4>
   154f6:	6505                	lui	a0,0x1
   154f8:	5f350513          	addi	a0,a0,1523 # 15f3 <.Lline_table_start1+0x13c8>
   154fc:	458d                	li	a1,3
   154fe:	0000a097          	auipc	ra,0xa
   15502:	6a6080e7          	jalr	1702(ra) # 1fba4 <_ZN9allow_pin12dynamic_type7unshare17hb27555f71d22f3b2E>
   15506:	4781                	li	a5,0
   15508:	028108a3          	sb	s0,49(sp)
   1550c:	cb85                	beqz	a5,1553c <_ZN20complex_dynamic_type3app17h695125e0033f2defE+0x12a>
   1550e:	03114603          	lbu	a2,49(sp)
   15512:	4505                	li	a0,1
   15514:	4409                	li	s0,2
   15516:	00a90023          	sb	a0,0(s2)
   1551a:	00b92223          	sw	a1,4(s2)
   1551e:	00860a63          	beq	a2,s0,15532 <_ZN20complex_dynamic_type3app17h695125e0033f2defE+0x120>
   15522:	6505                	lui	a0,0x1
   15524:	5f350513          	addi	a0,a0,1523 # 15f3 <.Lline_table_start1+0x13c8>
   15528:	458d                	li	a1,3
   1552a:	0000a097          	auipc	ra,0xa
   1552e:	67a080e7          	jalr	1658(ra) # 1fba4 <_ZN9allow_pin12dynamic_type7unshare17hb27555f71d22f3b2E>
   15532:	00f14603          	lbu	a2,15(sp)
   15536:	04861763          	bne	a2,s0,15584 <_ZN20complex_dynamic_type3app17h695125e0033f2defE+0x172>
   1553a:	a8a9                	j	15594 <_ZN20complex_dynamic_type3app17h695125e0033f2defE+0x182>
   1553c:	03114403          	lbu	s0,49(sp)
   15540:	4489                	li	s1,2
   15542:	00940663          	beq	s0,s1,1554e <_ZN20complex_dynamic_type3app17h695125e0033f2defE+0x13c>
   15546:	000109b7          	lui	s3,0x10
   1554a:	66f98993          	addi	s3,s3,1647 # 1066f <.Lanon.49c9f8067fe4468184af16d7576940c9.29>
   1554e:	00190513          	addi	a0,s2,1
   15552:	02a00613          	li	a2,42
   15556:	85ce                	mv	a1,s3
   15558:	0000a097          	auipc	ra,0xa
   1555c:	6c4080e7          	jalr	1732(ra) # 1fc1c <memcpy>
   15560:	00090023          	sb	zero,0(s2)
   15564:	00940b63          	beq	s0,s1,1557a <_ZN20complex_dynamic_type3app17h695125e0033f2defE+0x168>
   15568:	6505                	lui	a0,0x1
   1556a:	5f350513          	addi	a0,a0,1523 # 15f3 <.Lline_table_start1+0x13c8>
   1556e:	458d                	li	a1,3
   15570:	8622                	mv	a2,s0
   15572:	0000a097          	auipc	ra,0xa
   15576:	632080e7          	jalr	1586(ra) # 1fba4 <_ZN9allow_pin12dynamic_type7unshare17hb27555f71d22f3b2E>
   1557a:	00f14603          	lbu	a2,15(sp)
   1557e:	4509                	li	a0,2
   15580:	00a60a63          	beq	a2,a0,15594 <_ZN20complex_dynamic_type3app17h695125e0033f2defE+0x182>
   15584:	6505                	lui	a0,0x1
   15586:	5f350513          	addi	a0,a0,1523 # 15f3 <.Lline_table_start1+0x13c8>
   1558a:	4585                	li	a1,1
   1558c:	0000a097          	auipc	ra,0xa
   15590:	618080e7          	jalr	1560(ra) # 1fba4 <_ZN9allow_pin12dynamic_type7unshare17hb27555f71d22f3b2E>
   15594:	50b6                	lw	ra,108(sp)
   15596:	5426                	lw	s0,104(sp)
   15598:	5496                	lw	s1,100(sp)
   1559a:	5906                	lw	s2,96(sp)
   1559c:	49f6                	lw	s3,92(sp)
   1559e:	6165                	addi	sp,sp,112
   155a0:	8082                	ret

000155a2 <_ZN20complex_dynamic_type3app17h705d48f8cc2f5148E>:
   155a2:	7119                	addi	sp,sp,-128
   155a4:	de86                	sw	ra,124(sp)
   155a6:	dca2                	sw	s0,120(sp)
   155a8:	daa6                	sw	s1,116(sp)
   155aa:	d8ca                	sw	s2,112(sp)
   155ac:	d6ce                	sw	s3,108(sp)
   155ae:	892a                	mv	s2,a0
   155b0:	4489                	li	s1,2
   155b2:	00910323          	sb	s1,6(sp)
   155b6:	00710413          	addi	s0,sp,7
   155ba:	03200613          	li	a2,50
   155be:	8522                	mv	a0,s0
   155c0:	0000a097          	auipc	ra,0xa
   155c4:	65c080e7          	jalr	1628(ra) # 1fc1c <memcpy>
   155c8:	03a10993          	addi	s3,sp,58
   155cc:	03200613          	li	a2,50
   155d0:	854e                	mv	a0,s3
   155d2:	4581                	li	a1,0
   155d4:	0000a097          	auipc	ra,0xa
   155d8:	5dc080e7          	jalr	1500(ra) # 1fbb0 <memset>
   155dc:	8622                	mv	a2,s0
   155de:	02910ca3          	sb	s1,57(sp)
   155e2:	6509                	lui	a0,0x2
   155e4:	4791                	li	a5,4
   155e6:	458d                	li	a1,3
   155e8:	f0750513          	addi	a0,a0,-249 # 1f07 <.Lline_table_start1+0x1cdc>
   155ec:	03200693          	li	a3,50
   155f0:	4711                	li	a4,4
   155f2:	00000073          	ecall
   155f6:	00950463          	beq	a0,s1,155fe <_ZN20complex_dynamic_type3app17h705d48f8cc2f5148E+0x5c>
   155fa:	00f10323          	sb	a5,6(sp)
   155fe:	4609                	li	a2,2
   15600:	00c51463          	bne	a0,a2,15608 <_ZN20complex_dynamic_type3app17h705d48f8cc2f5148E+0x66>
   15604:	4785                	li	a5,1
   15606:	a849                	j	15698 <_ZN20complex_dynamic_type3app17h705d48f8cc2f5148E+0xf6>
   15608:	03914503          	lbu	a0,57(sp)
   1560c:	4785                	li	a5,1
   1560e:	02c51563          	bne	a0,a2,15638 <_ZN20complex_dynamic_type3app17h705d48f8cc2f5148E+0x96>
   15612:	864e                	mv	a2,s3
   15614:	6509                	lui	a0,0x2
   15616:	4405                	li	s0,1
   15618:	4585                	li	a1,1
   1561a:	03200693          	li	a3,50
   1561e:	470d                	li	a4,3
   15620:	f0750513          	addi	a0,a0,-249 # 1f07 <.Lline_table_start1+0x1cdc>
   15624:	4489                	li	s1,2
   15626:	00000073          	ecall
   1562a:	460d                	li	a2,3
   1562c:	00950863          	beq	a0,s1,1563c <_ZN20complex_dynamic_type3app17h705d48f8cc2f5148E+0x9a>
   15630:	4401                	li	s0,0
   15632:	02c10ca3          	sb	a2,57(sp)
   15636:	a019                	j	1563c <_ZN20complex_dynamic_type3app17h705d48f8cc2f5148E+0x9a>
   15638:	458d                	li	a1,3
   1563a:	4405                	li	s0,1
   1563c:	ec31                	bnez	s0,15698 <_ZN20complex_dynamic_type3app17h705d48f8cc2f5148E+0xf6>
   1563e:	4681                	li	a3,0
   15640:	6509                	lui	a0,0x2
   15642:	4785                	li	a5,1
   15644:	458d                	li	a1,3
   15646:	4605                	li	a2,1
   15648:	4709                	li	a4,2
   1564a:	f0750513          	addi	a0,a0,-249 # 1f07 <.Lline_table_start1+0x1cdc>
   1564e:	07f00493          	li	s1,127
   15652:	00000073          	ecall
   15656:	4689                	li	a3,2
   15658:	04a4f063          	bgeu	s1,a0,15698 <_ZN20complex_dynamic_type3app17h705d48f8cc2f5148E+0xf6>
   1565c:	00614603          	lbu	a2,6(sp)
   15660:	00d60a63          	beq	a2,a3,15674 <_ZN20complex_dynamic_type3app17h705d48f8cc2f5148E+0xd2>
   15664:	6509                	lui	a0,0x2
   15666:	f0750513          	addi	a0,a0,-249 # 1f07 <.Lline_table_start1+0x1cdc>
   1566a:	458d                	li	a1,3
   1566c:	0000a097          	auipc	ra,0xa
   15670:	538080e7          	jalr	1336(ra) # 1fba4 <_ZN9allow_pin12dynamic_type7unshare17hb27555f71d22f3b2E>
   15674:	03914603          	lbu	a2,57(sp)
   15678:	4409                	li	s0,2
   1567a:	00810323          	sb	s0,6(sp)
   1567e:	00860a63          	beq	a2,s0,15692 <_ZN20complex_dynamic_type3app17h705d48f8cc2f5148E+0xf0>
   15682:	6509                	lui	a0,0x2
   15684:	f0750513          	addi	a0,a0,-249 # 1f07 <.Lline_table_start1+0x1cdc>
   15688:	4585                	li	a1,1
   1568a:	0000a097          	auipc	ra,0xa
   1568e:	51a080e7          	jalr	1306(ra) # 1fba4 <_ZN9allow_pin12dynamic_type7unshare17hb27555f71d22f3b2E>
   15692:	4781                	li	a5,0
   15694:	02810ca3          	sb	s0,57(sp)
   15698:	cb85                	beqz	a5,156c8 <_ZN20complex_dynamic_type3app17h705d48f8cc2f5148E+0x126>
   1569a:	03914603          	lbu	a2,57(sp)
   1569e:	4505                	li	a0,1
   156a0:	4409                	li	s0,2
   156a2:	00a90023          	sb	a0,0(s2)
   156a6:	00b92223          	sw	a1,4(s2)
   156aa:	00860a63          	beq	a2,s0,156be <_ZN20complex_dynamic_type3app17h705d48f8cc2f5148E+0x11c>
   156ae:	6509                	lui	a0,0x2
   156b0:	f0750513          	addi	a0,a0,-249 # 1f07 <.Lline_table_start1+0x1cdc>
   156b4:	4585                	li	a1,1
   156b6:	0000a097          	auipc	ra,0xa
   156ba:	4ee080e7          	jalr	1262(ra) # 1fba4 <_ZN9allow_pin12dynamic_type7unshare17hb27555f71d22f3b2E>
   156be:	00614603          	lbu	a2,6(sp)
   156c2:	04861763          	bne	a2,s0,15710 <_ZN20complex_dynamic_type3app17h705d48f8cc2f5148E+0x16e>
   156c6:	a8a9                	j	15720 <_ZN20complex_dynamic_type3app17h705d48f8cc2f5148E+0x17e>
   156c8:	03914403          	lbu	s0,57(sp)
   156cc:	4489                	li	s1,2
   156ce:	00940663          	beq	s0,s1,156da <_ZN20complex_dynamic_type3app17h705d48f8cc2f5148E+0x138>
   156d2:	000109b7          	lui	s3,0x10
   156d6:	1cb98993          	addi	s3,s3,459 # 101cb <.Lanon.49c9f8067fe4468184af16d7576940c9.6>
   156da:	00190513          	addi	a0,s2,1
   156de:	03200613          	li	a2,50
   156e2:	85ce                	mv	a1,s3
   156e4:	0000a097          	auipc	ra,0xa
   156e8:	538080e7          	jalr	1336(ra) # 1fc1c <memcpy>
   156ec:	00090023          	sb	zero,0(s2)
   156f0:	00940b63          	beq	s0,s1,15706 <_ZN20complex_dynamic_type3app17h705d48f8cc2f5148E+0x164>
   156f4:	6509                	lui	a0,0x2
   156f6:	f0750513          	addi	a0,a0,-249 # 1f07 <.Lline_table_start1+0x1cdc>
   156fa:	4585                	li	a1,1
   156fc:	8622                	mv	a2,s0
   156fe:	0000a097          	auipc	ra,0xa
   15702:	4a6080e7          	jalr	1190(ra) # 1fba4 <_ZN9allow_pin12dynamic_type7unshare17hb27555f71d22f3b2E>
   15706:	00614603          	lbu	a2,6(sp)
   1570a:	4509                	li	a0,2
   1570c:	00a60a63          	beq	a2,a0,15720 <_ZN20complex_dynamic_type3app17h705d48f8cc2f5148E+0x17e>
   15710:	6509                	lui	a0,0x2
   15712:	f0750513          	addi	a0,a0,-249 # 1f07 <.Lline_table_start1+0x1cdc>
   15716:	458d                	li	a1,3
   15718:	0000a097          	auipc	ra,0xa
   1571c:	48c080e7          	jalr	1164(ra) # 1fba4 <_ZN9allow_pin12dynamic_type7unshare17hb27555f71d22f3b2E>
   15720:	50f6                	lw	ra,124(sp)
   15722:	5466                	lw	s0,120(sp)
   15724:	54d6                	lw	s1,116(sp)
   15726:	5946                	lw	s2,112(sp)
   15728:	59b6                	lw	s3,108(sp)
   1572a:	6109                	addi	sp,sp,128
   1572c:	8082                	ret

0001572e <_ZN20complex_dynamic_type3app17h729f8111ea27ac81E>:
   1572e:	7171                	addi	sp,sp,-176
   15730:	d706                	sw	ra,172(sp)
   15732:	d522                	sw	s0,168(sp)
   15734:	d326                	sw	s1,164(sp)
   15736:	d14a                	sw	s2,160(sp)
   15738:	cf4e                	sw	s3,156(sp)
   1573a:	892a                	mv	s2,a0
   1573c:	4489                	li	s1,2
   1573e:	009101a3          	sb	s1,3(sp)
   15742:	0040                	addi	s0,sp,4
   15744:	03a00613          	li	a2,58
   15748:	8522                	mv	a0,s0
   1574a:	0000a097          	auipc	ra,0xa
   1574e:	4d2080e7          	jalr	1234(ra) # 1fc1c <memcpy>
   15752:	03f10993          	addi	s3,sp,63
   15756:	05d00613          	li	a2,93
   1575a:	854e                	mv	a0,s3
   1575c:	4581                	li	a1,0
   1575e:	0000a097          	auipc	ra,0xa
   15762:	452080e7          	jalr	1106(ra) # 1fbb0 <memset>
   15766:	4581                	li	a1,0
   15768:	8622                	mv	a2,s0
   1576a:	02910f23          	sb	s1,62(sp)
   1576e:	6505                	lui	a0,0x1
   15770:	4791                	li	a5,4
   15772:	4a450513          	addi	a0,a0,1188 # 14a4 <.Lline_table_start1+0x1279>
   15776:	03a00693          	li	a3,58
   1577a:	4711                	li	a4,4
   1577c:	00000073          	ecall
   15780:	00950463          	beq	a0,s1,15788 <_ZN20complex_dynamic_type3app17h729f8111ea27ac81E+0x5a>
   15784:	00f101a3          	sb	a5,3(sp)
   15788:	4609                	li	a2,2
   1578a:	00c51463          	bne	a0,a2,15792 <_ZN20complex_dynamic_type3app17h729f8111ea27ac81E+0x64>
   1578e:	4785                	li	a5,1
   15790:	a859                	j	15826 <_ZN20complex_dynamic_type3app17h729f8111ea27ac81E+0xf8>
   15792:	03e14503          	lbu	a0,62(sp)
   15796:	4785                	li	a5,1
   15798:	02c51363          	bne	a0,a2,157be <_ZN20complex_dynamic_type3app17h729f8111ea27ac81E+0x90>
   1579c:	864e                	mv	a2,s3
   1579e:	6505                	lui	a0,0x1
   157a0:	4595                	li	a1,5
   157a2:	05d00693          	li	a3,93
   157a6:	470d                	li	a4,3
   157a8:	4a450513          	addi	a0,a0,1188 # 14a4 <.Lline_table_start1+0x1279>
   157ac:	4489                	li	s1,2
   157ae:	00000073          	ecall
   157b2:	460d                	li	a2,3
   157b4:	00951963          	bne	a0,s1,157c6 <_ZN20complex_dynamic_type3app17h729f8111ea27ac81E+0x98>
   157b8:	4505                	li	a0,1
   157ba:	c911                	beqz	a0,157ce <_ZN20complex_dynamic_type3app17h729f8111ea27ac81E+0xa0>
   157bc:	a0ad                	j	15826 <_ZN20complex_dynamic_type3app17h729f8111ea27ac81E+0xf8>
   157be:	458d                	li	a1,3
   157c0:	4505                	li	a0,1
   157c2:	c511                	beqz	a0,157ce <_ZN20complex_dynamic_type3app17h729f8111ea27ac81E+0xa0>
   157c4:	a08d                	j	15826 <_ZN20complex_dynamic_type3app17h729f8111ea27ac81E+0xf8>
   157c6:	4501                	li	a0,0
   157c8:	02c10f23          	sb	a2,62(sp)
   157cc:	ed29                	bnez	a0,15826 <_ZN20complex_dynamic_type3app17h729f8111ea27ac81E+0xf8>
   157ce:	4581                	li	a1,0
   157d0:	4681                	li	a3,0
   157d2:	6505                	lui	a0,0x1
   157d4:	4615                	li	a2,5
   157d6:	4709                	li	a4,2
   157d8:	4a450513          	addi	a0,a0,1188 # 14a4 <.Lline_table_start1+0x1279>
   157dc:	07f00493          	li	s1,127
   157e0:	00000073          	ecall
   157e4:	4689                	li	a3,2
   157e6:	04a4f063          	bgeu	s1,a0,15826 <_ZN20complex_dynamic_type3app17h729f8111ea27ac81E+0xf8>
   157ea:	00314603          	lbu	a2,3(sp)
   157ee:	00d60a63          	beq	a2,a3,15802 <_ZN20complex_dynamic_type3app17h729f8111ea27ac81E+0xd4>
   157f2:	6505                	lui	a0,0x1
   157f4:	4a450513          	addi	a0,a0,1188 # 14a4 <.Lline_table_start1+0x1279>
   157f8:	4581                	li	a1,0
   157fa:	0000a097          	auipc	ra,0xa
   157fe:	3aa080e7          	jalr	938(ra) # 1fba4 <_ZN9allow_pin12dynamic_type7unshare17hb27555f71d22f3b2E>
   15802:	03e14603          	lbu	a2,62(sp)
   15806:	4409                	li	s0,2
   15808:	008101a3          	sb	s0,3(sp)
   1580c:	00860a63          	beq	a2,s0,15820 <_ZN20complex_dynamic_type3app17h729f8111ea27ac81E+0xf2>
   15810:	6505                	lui	a0,0x1
   15812:	4a450513          	addi	a0,a0,1188 # 14a4 <.Lline_table_start1+0x1279>
   15816:	4595                	li	a1,5
   15818:	0000a097          	auipc	ra,0xa
   1581c:	38c080e7          	jalr	908(ra) # 1fba4 <_ZN9allow_pin12dynamic_type7unshare17hb27555f71d22f3b2E>
   15820:	4781                	li	a5,0
   15822:	02810f23          	sb	s0,62(sp)
   15826:	cb85                	beqz	a5,15856 <_ZN20complex_dynamic_type3app17h729f8111ea27ac81E+0x128>
   15828:	03e14603          	lbu	a2,62(sp)
   1582c:	4505                	li	a0,1
   1582e:	4409                	li	s0,2
   15830:	00a90023          	sb	a0,0(s2)
   15834:	00b92223          	sw	a1,4(s2)
   15838:	00860a63          	beq	a2,s0,1584c <_ZN20complex_dynamic_type3app17h729f8111ea27ac81E+0x11e>
   1583c:	6505                	lui	a0,0x1
   1583e:	4a450513          	addi	a0,a0,1188 # 14a4 <.Lline_table_start1+0x1279>
   15842:	4595                	li	a1,5
   15844:	0000a097          	auipc	ra,0xa
   15848:	360080e7          	jalr	864(ra) # 1fba4 <_ZN9allow_pin12dynamic_type7unshare17hb27555f71d22f3b2E>
   1584c:	00314603          	lbu	a2,3(sp)
   15850:	04861763          	bne	a2,s0,1589e <_ZN20complex_dynamic_type3app17h729f8111ea27ac81E+0x170>
   15854:	a8a9                	j	158ae <_ZN20complex_dynamic_type3app17h729f8111ea27ac81E+0x180>
   15856:	03e14403          	lbu	s0,62(sp)
   1585a:	4489                	li	s1,2
   1585c:	00940663          	beq	s0,s1,15868 <_ZN20complex_dynamic_type3app17h729f8111ea27ac81E+0x13a>
   15860:	000109b7          	lui	s3,0x10
   15864:	55698993          	addi	s3,s3,1366 # 10556 <.Lanon.49c9f8067fe4468184af16d7576940c9.25>
   15868:	00190513          	addi	a0,s2,1
   1586c:	05d00613          	li	a2,93
   15870:	85ce                	mv	a1,s3
   15872:	0000a097          	auipc	ra,0xa
   15876:	3aa080e7          	jalr	938(ra) # 1fc1c <memcpy>
   1587a:	00090023          	sb	zero,0(s2)
   1587e:	00940b63          	beq	s0,s1,15894 <_ZN20complex_dynamic_type3app17h729f8111ea27ac81E+0x166>
   15882:	6505                	lui	a0,0x1
   15884:	4a450513          	addi	a0,a0,1188 # 14a4 <.Lline_table_start1+0x1279>
   15888:	4595                	li	a1,5
   1588a:	8622                	mv	a2,s0
   1588c:	0000a097          	auipc	ra,0xa
   15890:	318080e7          	jalr	792(ra) # 1fba4 <_ZN9allow_pin12dynamic_type7unshare17hb27555f71d22f3b2E>
   15894:	00314603          	lbu	a2,3(sp)
   15898:	4509                	li	a0,2
   1589a:	00a60a63          	beq	a2,a0,158ae <_ZN20complex_dynamic_type3app17h729f8111ea27ac81E+0x180>
   1589e:	6505                	lui	a0,0x1
   158a0:	4a450513          	addi	a0,a0,1188 # 14a4 <.Lline_table_start1+0x1279>
   158a4:	4581                	li	a1,0
   158a6:	0000a097          	auipc	ra,0xa
   158aa:	2fe080e7          	jalr	766(ra) # 1fba4 <_ZN9allow_pin12dynamic_type7unshare17hb27555f71d22f3b2E>
   158ae:	50ba                	lw	ra,172(sp)
   158b0:	542a                	lw	s0,168(sp)
   158b2:	549a                	lw	s1,164(sp)
   158b4:	590a                	lw	s2,160(sp)
   158b6:	49fa                	lw	s3,156(sp)
   158b8:	614d                	addi	sp,sp,176
   158ba:	8082                	ret

000158bc <_ZN20complex_dynamic_type3app17h758c442fdae9f98cE>:
   158bc:	7175                	addi	sp,sp,-144
   158be:	c706                	sw	ra,140(sp)
   158c0:	c522                	sw	s0,136(sp)
   158c2:	c326                	sw	s1,132(sp)
   158c4:	c14a                	sw	s2,128(sp)
   158c6:	dece                	sw	s3,124(sp)
   158c8:	892a                	mv	s2,a0
   158ca:	4489                	li	s1,2
   158cc:	00910623          	sb	s1,12(sp)
   158d0:	00d10413          	addi	s0,sp,13
   158d4:	03c00613          	li	a2,60
   158d8:	8522                	mv	a0,s0
   158da:	0000a097          	auipc	ra,0xa
   158de:	342080e7          	jalr	834(ra) # 1fc1c <memcpy>
   158e2:	04a10993          	addi	s3,sp,74
   158e6:	03200613          	li	a2,50
   158ea:	854e                	mv	a0,s3
   158ec:	4581                	li	a1,0
   158ee:	0000a097          	auipc	ra,0xa
   158f2:	2c2080e7          	jalr	706(ra) # 1fbb0 <memset>
   158f6:	8622                	mv	a2,s0
   158f8:	049104a3          	sb	s1,73(sp)
   158fc:	6509                	lui	a0,0x2
   158fe:	4791                	li	a5,4
   15900:	4599                	li	a1,6
   15902:	b1e50513          	addi	a0,a0,-1250 # 1b1e <.Lline_table_start1+0x18f3>
   15906:	03c00693          	li	a3,60
   1590a:	4711                	li	a4,4
   1590c:	00000073          	ecall
   15910:	00950463          	beq	a0,s1,15918 <_ZN20complex_dynamic_type3app17h758c442fdae9f98cE+0x5c>
   15914:	00f10623          	sb	a5,12(sp)
   15918:	4609                	li	a2,2
   1591a:	00c51463          	bne	a0,a2,15922 <_ZN20complex_dynamic_type3app17h758c442fdae9f98cE+0x66>
   1591e:	4785                	li	a5,1
   15920:	a859                	j	159b6 <_ZN20complex_dynamic_type3app17h758c442fdae9f98cE+0xfa>
   15922:	04914503          	lbu	a0,73(sp)
   15926:	4785                	li	a5,1
   15928:	02c51363          	bne	a0,a2,1594e <_ZN20complex_dynamic_type3app17h758c442fdae9f98cE+0x92>
   1592c:	864e                	mv	a2,s3
   1592e:	6509                	lui	a0,0x2
   15930:	45a1                	li	a1,8
   15932:	03200693          	li	a3,50
   15936:	470d                	li	a4,3
   15938:	b1e50513          	addi	a0,a0,-1250 # 1b1e <.Lline_table_start1+0x18f3>
   1593c:	4489                	li	s1,2
   1593e:	00000073          	ecall
   15942:	460d                	li	a2,3
   15944:	00951963          	bne	a0,s1,15956 <_ZN20complex_dynamic_type3app17h758c442fdae9f98cE+0x9a>
   15948:	4505                	li	a0,1
   1594a:	c911                	beqz	a0,1595e <_ZN20complex_dynamic_type3app17h758c442fdae9f98cE+0xa2>
   1594c:	a0ad                	j	159b6 <_ZN20complex_dynamic_type3app17h758c442fdae9f98cE+0xfa>
   1594e:	458d                	li	a1,3
   15950:	4505                	li	a0,1
   15952:	c511                	beqz	a0,1595e <_ZN20complex_dynamic_type3app17h758c442fdae9f98cE+0xa2>
   15954:	a08d                	j	159b6 <_ZN20complex_dynamic_type3app17h758c442fdae9f98cE+0xfa>
   15956:	4501                	li	a0,0
   15958:	04c104a3          	sb	a2,73(sp)
   1595c:	ed29                	bnez	a0,159b6 <_ZN20complex_dynamic_type3app17h758c442fdae9f98cE+0xfa>
   1595e:	4681                	li	a3,0
   15960:	6509                	lui	a0,0x2
   15962:	4599                	li	a1,6
   15964:	4621                	li	a2,8
   15966:	4709                	li	a4,2
   15968:	b1e50513          	addi	a0,a0,-1250 # 1b1e <.Lline_table_start1+0x18f3>
   1596c:	07f00493          	li	s1,127
   15970:	00000073          	ecall
   15974:	4689                	li	a3,2
   15976:	04a4f063          	bgeu	s1,a0,159b6 <_ZN20complex_dynamic_type3app17h758c442fdae9f98cE+0xfa>
   1597a:	00c14603          	lbu	a2,12(sp)
   1597e:	00d60a63          	beq	a2,a3,15992 <_ZN20complex_dynamic_type3app17h758c442fdae9f98cE+0xd6>
   15982:	6509                	lui	a0,0x2
   15984:	b1e50513          	addi	a0,a0,-1250 # 1b1e <.Lline_table_start1+0x18f3>
   15988:	4599                	li	a1,6
   1598a:	0000a097          	auipc	ra,0xa
   1598e:	21a080e7          	jalr	538(ra) # 1fba4 <_ZN9allow_pin12dynamic_type7unshare17hb27555f71d22f3b2E>
   15992:	04914603          	lbu	a2,73(sp)
   15996:	4409                	li	s0,2
   15998:	00810623          	sb	s0,12(sp)
   1599c:	00860a63          	beq	a2,s0,159b0 <_ZN20complex_dynamic_type3app17h758c442fdae9f98cE+0xf4>
   159a0:	6509                	lui	a0,0x2
   159a2:	b1e50513          	addi	a0,a0,-1250 # 1b1e <.Lline_table_start1+0x18f3>
   159a6:	45a1                	li	a1,8
   159a8:	0000a097          	auipc	ra,0xa
   159ac:	1fc080e7          	jalr	508(ra) # 1fba4 <_ZN9allow_pin12dynamic_type7unshare17hb27555f71d22f3b2E>
   159b0:	4781                	li	a5,0
   159b2:	048104a3          	sb	s0,73(sp)
   159b6:	cb85                	beqz	a5,159e6 <_ZN20complex_dynamic_type3app17h758c442fdae9f98cE+0x12a>
   159b8:	04914603          	lbu	a2,73(sp)
   159bc:	4505                	li	a0,1
   159be:	4409                	li	s0,2
   159c0:	00a90023          	sb	a0,0(s2)
   159c4:	00b92223          	sw	a1,4(s2)
   159c8:	00860a63          	beq	a2,s0,159dc <_ZN20complex_dynamic_type3app17h758c442fdae9f98cE+0x120>
   159cc:	6509                	lui	a0,0x2
   159ce:	b1e50513          	addi	a0,a0,-1250 # 1b1e <.Lline_table_start1+0x18f3>
   159d2:	45a1                	li	a1,8
   159d4:	0000a097          	auipc	ra,0xa
   159d8:	1d0080e7          	jalr	464(ra) # 1fba4 <_ZN9allow_pin12dynamic_type7unshare17hb27555f71d22f3b2E>
   159dc:	00c14603          	lbu	a2,12(sp)
   159e0:	04861763          	bne	a2,s0,15a2e <_ZN20complex_dynamic_type3app17h758c442fdae9f98cE+0x172>
   159e4:	a8a9                	j	15a3e <_ZN20complex_dynamic_type3app17h758c442fdae9f98cE+0x182>
   159e6:	04914403          	lbu	s0,73(sp)
   159ea:	4489                	li	s1,2
   159ec:	00940663          	beq	s0,s1,159f8 <_ZN20complex_dynamic_type3app17h758c442fdae9f98cE+0x13c>
   159f0:	000109b7          	lui	s3,0x10
   159f4:	1cb98993          	addi	s3,s3,459 # 101cb <.Lanon.49c9f8067fe4468184af16d7576940c9.6>
   159f8:	00190513          	addi	a0,s2,1
   159fc:	03200613          	li	a2,50
   15a00:	85ce                	mv	a1,s3
   15a02:	0000a097          	auipc	ra,0xa
   15a06:	21a080e7          	jalr	538(ra) # 1fc1c <memcpy>
   15a0a:	00090023          	sb	zero,0(s2)
   15a0e:	00940b63          	beq	s0,s1,15a24 <_ZN20complex_dynamic_type3app17h758c442fdae9f98cE+0x168>
   15a12:	6509                	lui	a0,0x2
   15a14:	b1e50513          	addi	a0,a0,-1250 # 1b1e <.Lline_table_start1+0x18f3>
   15a18:	45a1                	li	a1,8
   15a1a:	8622                	mv	a2,s0
   15a1c:	0000a097          	auipc	ra,0xa
   15a20:	188080e7          	jalr	392(ra) # 1fba4 <_ZN9allow_pin12dynamic_type7unshare17hb27555f71d22f3b2E>
   15a24:	00c14603          	lbu	a2,12(sp)
   15a28:	4509                	li	a0,2
   15a2a:	00a60a63          	beq	a2,a0,15a3e <_ZN20complex_dynamic_type3app17h758c442fdae9f98cE+0x182>
   15a2e:	6509                	lui	a0,0x2
   15a30:	b1e50513          	addi	a0,a0,-1250 # 1b1e <.Lline_table_start1+0x18f3>
   15a34:	4599                	li	a1,6
   15a36:	0000a097          	auipc	ra,0xa
   15a3a:	16e080e7          	jalr	366(ra) # 1fba4 <_ZN9allow_pin12dynamic_type7unshare17hb27555f71d22f3b2E>
   15a3e:	40ba                	lw	ra,140(sp)
   15a40:	442a                	lw	s0,136(sp)
   15a42:	449a                	lw	s1,132(sp)
   15a44:	490a                	lw	s2,128(sp)
   15a46:	59f6                	lw	s3,124(sp)
   15a48:	6149                	addi	sp,sp,144
   15a4a:	8082                	ret

00015a4c <_ZN20complex_dynamic_type3app17h75e56609a77a1b41E>:
   15a4c:	7131                	addi	sp,sp,-192
   15a4e:	df06                	sw	ra,188(sp)
   15a50:	dd22                	sw	s0,184(sp)
   15a52:	db26                	sw	s1,180(sp)
   15a54:	d94a                	sw	s2,176(sp)
   15a56:	d74e                	sw	s3,172(sp)
   15a58:	892a                	mv	s2,a0
   15a5a:	4489                	li	s1,2
   15a5c:	009106a3          	sb	s1,13(sp)
   15a60:	00e10413          	addi	s0,sp,14
   15a64:	05d00613          	li	a2,93
   15a68:	8522                	mv	a0,s0
   15a6a:	0000a097          	auipc	ra,0xa
   15a6e:	1b2080e7          	jalr	434(ra) # 1fc1c <memcpy>
   15a72:	06c10993          	addi	s3,sp,108
   15a76:	04000613          	li	a2,64
   15a7a:	854e                	mv	a0,s3
   15a7c:	4581                	li	a1,0
   15a7e:	0000a097          	auipc	ra,0xa
   15a82:	132080e7          	jalr	306(ra) # 1fbb0 <memset>
   15a86:	8622                	mv	a2,s0
   15a88:	069105a3          	sb	s1,107(sp)
   15a8c:	6505                	lui	a0,0x1
   15a8e:	4791                	li	a5,4
   15a90:	45a1                	li	a1,8
   15a92:	02850513          	addi	a0,a0,40 # 1028 <.Lline_table_start1+0xdfd>
   15a96:	05d00693          	li	a3,93
   15a9a:	4711                	li	a4,4
   15a9c:	00000073          	ecall
   15aa0:	00950463          	beq	a0,s1,15aa8 <_ZN20complex_dynamic_type3app17h75e56609a77a1b41E+0x5c>
   15aa4:	00f106a3          	sb	a5,13(sp)
   15aa8:	4609                	li	a2,2
   15aaa:	00c51463          	bne	a0,a2,15ab2 <_ZN20complex_dynamic_type3app17h75e56609a77a1b41E+0x66>
   15aae:	4785                	li	a5,1
   15ab0:	a859                	j	15b46 <_ZN20complex_dynamic_type3app17h75e56609a77a1b41E+0xfa>
   15ab2:	06b14503          	lbu	a0,107(sp)
   15ab6:	4785                	li	a5,1
   15ab8:	02c51363          	bne	a0,a2,15ade <_ZN20complex_dynamic_type3app17h75e56609a77a1b41E+0x92>
   15abc:	864e                	mv	a2,s3
   15abe:	6505                	lui	a0,0x1
   15ac0:	4591                	li	a1,4
   15ac2:	04000693          	li	a3,64
   15ac6:	470d                	li	a4,3
   15ac8:	02850513          	addi	a0,a0,40 # 1028 <.Lline_table_start1+0xdfd>
   15acc:	4489                	li	s1,2
   15ace:	00000073          	ecall
   15ad2:	460d                	li	a2,3
   15ad4:	00951963          	bne	a0,s1,15ae6 <_ZN20complex_dynamic_type3app17h75e56609a77a1b41E+0x9a>
   15ad8:	4505                	li	a0,1
   15ada:	c911                	beqz	a0,15aee <_ZN20complex_dynamic_type3app17h75e56609a77a1b41E+0xa2>
   15adc:	a0ad                	j	15b46 <_ZN20complex_dynamic_type3app17h75e56609a77a1b41E+0xfa>
   15ade:	458d                	li	a1,3
   15ae0:	4505                	li	a0,1
   15ae2:	c511                	beqz	a0,15aee <_ZN20complex_dynamic_type3app17h75e56609a77a1b41E+0xa2>
   15ae4:	a08d                	j	15b46 <_ZN20complex_dynamic_type3app17h75e56609a77a1b41E+0xfa>
   15ae6:	4501                	li	a0,0
   15ae8:	06c105a3          	sb	a2,107(sp)
   15aec:	ed29                	bnez	a0,15b46 <_ZN20complex_dynamic_type3app17h75e56609a77a1b41E+0xfa>
   15aee:	4681                	li	a3,0
   15af0:	6505                	lui	a0,0x1
   15af2:	45a1                	li	a1,8
   15af4:	4611                	li	a2,4
   15af6:	4709                	li	a4,2
   15af8:	02850513          	addi	a0,a0,40 # 1028 <.Lline_table_start1+0xdfd>
   15afc:	07f00493          	li	s1,127
   15b00:	00000073          	ecall
   15b04:	4689                	li	a3,2
   15b06:	04a4f063          	bgeu	s1,a0,15b46 <_ZN20complex_dynamic_type3app17h75e56609a77a1b41E+0xfa>
   15b0a:	00d14603          	lbu	a2,13(sp)
   15b0e:	00d60a63          	beq	a2,a3,15b22 <_ZN20complex_dynamic_type3app17h75e56609a77a1b41E+0xd6>
   15b12:	6505                	lui	a0,0x1
   15b14:	02850513          	addi	a0,a0,40 # 1028 <.Lline_table_start1+0xdfd>
   15b18:	45a1                	li	a1,8
   15b1a:	0000a097          	auipc	ra,0xa
   15b1e:	08a080e7          	jalr	138(ra) # 1fba4 <_ZN9allow_pin12dynamic_type7unshare17hb27555f71d22f3b2E>
   15b22:	06b14603          	lbu	a2,107(sp)
   15b26:	4409                	li	s0,2
   15b28:	008106a3          	sb	s0,13(sp)
   15b2c:	00860a63          	beq	a2,s0,15b40 <_ZN20complex_dynamic_type3app17h75e56609a77a1b41E+0xf4>
   15b30:	6505                	lui	a0,0x1
   15b32:	02850513          	addi	a0,a0,40 # 1028 <.Lline_table_start1+0xdfd>
   15b36:	4591                	li	a1,4
   15b38:	0000a097          	auipc	ra,0xa
   15b3c:	06c080e7          	jalr	108(ra) # 1fba4 <_ZN9allow_pin12dynamic_type7unshare17hb27555f71d22f3b2E>
   15b40:	4781                	li	a5,0
   15b42:	068105a3          	sb	s0,107(sp)
   15b46:	cb85                	beqz	a5,15b76 <_ZN20complex_dynamic_type3app17h75e56609a77a1b41E+0x12a>
   15b48:	06b14603          	lbu	a2,107(sp)
   15b4c:	4505                	li	a0,1
   15b4e:	4409                	li	s0,2
   15b50:	00a90023          	sb	a0,0(s2)
   15b54:	00b92223          	sw	a1,4(s2)
   15b58:	00860a63          	beq	a2,s0,15b6c <_ZN20complex_dynamic_type3app17h75e56609a77a1b41E+0x120>
   15b5c:	6505                	lui	a0,0x1
   15b5e:	02850513          	addi	a0,a0,40 # 1028 <.Lline_table_start1+0xdfd>
   15b62:	4591                	li	a1,4
   15b64:	0000a097          	auipc	ra,0xa
   15b68:	040080e7          	jalr	64(ra) # 1fba4 <_ZN9allow_pin12dynamic_type7unshare17hb27555f71d22f3b2E>
   15b6c:	00d14603          	lbu	a2,13(sp)
   15b70:	04861763          	bne	a2,s0,15bbe <_ZN20complex_dynamic_type3app17h75e56609a77a1b41E+0x172>
   15b74:	a8a9                	j	15bce <_ZN20complex_dynamic_type3app17h75e56609a77a1b41E+0x182>
   15b76:	06b14403          	lbu	s0,107(sp)
   15b7a:	4489                	li	s1,2
   15b7c:	00940663          	beq	s0,s1,15b88 <_ZN20complex_dynamic_type3app17h75e56609a77a1b41E+0x13c>
   15b80:	000119b7          	lui	s3,0x11
   15b84:	92998993          	addi	s3,s3,-1751 # 10929 <.Lanon.49c9f8067fe4468184af16d7576940c9.43>
   15b88:	00190513          	addi	a0,s2,1
   15b8c:	04000613          	li	a2,64
   15b90:	85ce                	mv	a1,s3
   15b92:	0000a097          	auipc	ra,0xa
   15b96:	08a080e7          	jalr	138(ra) # 1fc1c <memcpy>
   15b9a:	00090023          	sb	zero,0(s2)
   15b9e:	00940b63          	beq	s0,s1,15bb4 <_ZN20complex_dynamic_type3app17h75e56609a77a1b41E+0x168>
   15ba2:	6505                	lui	a0,0x1
   15ba4:	02850513          	addi	a0,a0,40 # 1028 <.Lline_table_start1+0xdfd>
   15ba8:	4591                	li	a1,4
   15baa:	8622                	mv	a2,s0
   15bac:	0000a097          	auipc	ra,0xa
   15bb0:	ff8080e7          	jalr	-8(ra) # 1fba4 <_ZN9allow_pin12dynamic_type7unshare17hb27555f71d22f3b2E>
   15bb4:	00d14603          	lbu	a2,13(sp)
   15bb8:	4509                	li	a0,2
   15bba:	00a60a63          	beq	a2,a0,15bce <_ZN20complex_dynamic_type3app17h75e56609a77a1b41E+0x182>
   15bbe:	6505                	lui	a0,0x1
   15bc0:	02850513          	addi	a0,a0,40 # 1028 <.Lline_table_start1+0xdfd>
   15bc4:	45a1                	li	a1,8
   15bc6:	0000a097          	auipc	ra,0xa
   15bca:	fde080e7          	jalr	-34(ra) # 1fba4 <_ZN9allow_pin12dynamic_type7unshare17hb27555f71d22f3b2E>
   15bce:	50fa                	lw	ra,188(sp)
   15bd0:	546a                	lw	s0,184(sp)
   15bd2:	54da                	lw	s1,180(sp)
   15bd4:	594a                	lw	s2,176(sp)
   15bd6:	59ba                	lw	s3,172(sp)
   15bd8:	6129                	addi	sp,sp,192
   15bda:	8082                	ret

00015bdc <_ZN20complex_dynamic_type3app17h790dc27ac2af17ddE>:
   15bdc:	711d                	addi	sp,sp,-96
   15bde:	ce86                	sw	ra,92(sp)
   15be0:	cca2                	sw	s0,88(sp)
   15be2:	caa6                	sw	s1,84(sp)
   15be4:	c8ca                	sw	s2,80(sp)
   15be6:	c6ce                	sw	s3,76(sp)
   15be8:	892a                	mv	s2,a0
   15bea:	4489                	li	s1,2
   15bec:	009105a3          	sb	s1,11(sp)
   15bf0:	0060                	addi	s0,sp,12
   15bf2:	4679                	li	a2,30
   15bf4:	8522                	mv	a0,s0
   15bf6:	0000a097          	auipc	ra,0xa
   15bfa:	026080e7          	jalr	38(ra) # 1fc1c <memcpy>
   15bfe:	02b10993          	addi	s3,sp,43
   15c02:	02100613          	li	a2,33
   15c06:	854e                	mv	a0,s3
   15c08:	4581                	li	a1,0
   15c0a:	0000a097          	auipc	ra,0xa
   15c0e:	fa6080e7          	jalr	-90(ra) # 1fbb0 <memset>
   15c12:	8622                	mv	a2,s0
   15c14:	02910523          	sb	s1,42(sp)
   15c18:	6509                	lui	a0,0x2
   15c1a:	4791                	li	a5,4
   15c1c:	4599                	li	a1,6
   15c1e:	9b550513          	addi	a0,a0,-1611 # 19b5 <.Lline_table_start1+0x178a>
   15c22:	46f9                	li	a3,30
   15c24:	4711                	li	a4,4
   15c26:	00000073          	ecall
   15c2a:	00950463          	beq	a0,s1,15c32 <_ZN20complex_dynamic_type3app17h790dc27ac2af17ddE+0x56>
   15c2e:	00f105a3          	sb	a5,11(sp)
   15c32:	4609                	li	a2,2
   15c34:	00c51463          	bne	a0,a2,15c3c <_ZN20complex_dynamic_type3app17h790dc27ac2af17ddE+0x60>
   15c38:	4785                	li	a5,1
   15c3a:	a859                	j	15cd0 <_ZN20complex_dynamic_type3app17h790dc27ac2af17ddE+0xf4>
   15c3c:	02a14503          	lbu	a0,42(sp)
   15c40:	4785                	li	a5,1
   15c42:	02c51363          	bne	a0,a2,15c68 <_ZN20complex_dynamic_type3app17h790dc27ac2af17ddE+0x8c>
   15c46:	864e                	mv	a2,s3
   15c48:	6509                	lui	a0,0x2
   15c4a:	45a5                	li	a1,9
   15c4c:	02100693          	li	a3,33
   15c50:	470d                	li	a4,3
   15c52:	9b550513          	addi	a0,a0,-1611 # 19b5 <.Lline_table_start1+0x178a>
   15c56:	4489                	li	s1,2
   15c58:	00000073          	ecall
   15c5c:	460d                	li	a2,3
   15c5e:	00951963          	bne	a0,s1,15c70 <_ZN20complex_dynamic_type3app17h790dc27ac2af17ddE+0x94>
   15c62:	4505                	li	a0,1
   15c64:	c911                	beqz	a0,15c78 <_ZN20complex_dynamic_type3app17h790dc27ac2af17ddE+0x9c>
   15c66:	a0ad                	j	15cd0 <_ZN20complex_dynamic_type3app17h790dc27ac2af17ddE+0xf4>
   15c68:	458d                	li	a1,3
   15c6a:	4505                	li	a0,1
   15c6c:	c511                	beqz	a0,15c78 <_ZN20complex_dynamic_type3app17h790dc27ac2af17ddE+0x9c>
   15c6e:	a08d                	j	15cd0 <_ZN20complex_dynamic_type3app17h790dc27ac2af17ddE+0xf4>
   15c70:	4501                	li	a0,0
   15c72:	02c10523          	sb	a2,42(sp)
   15c76:	ed29                	bnez	a0,15cd0 <_ZN20complex_dynamic_type3app17h790dc27ac2af17ddE+0xf4>
   15c78:	4681                	li	a3,0
   15c7a:	6509                	lui	a0,0x2
   15c7c:	4599                	li	a1,6
   15c7e:	4625                	li	a2,9
   15c80:	4709                	li	a4,2
   15c82:	9b550513          	addi	a0,a0,-1611 # 19b5 <.Lline_table_start1+0x178a>
   15c86:	07f00493          	li	s1,127
   15c8a:	00000073          	ecall
   15c8e:	4689                	li	a3,2
   15c90:	04a4f063          	bgeu	s1,a0,15cd0 <_ZN20complex_dynamic_type3app17h790dc27ac2af17ddE+0xf4>
   15c94:	00b14603          	lbu	a2,11(sp)
   15c98:	00d60a63          	beq	a2,a3,15cac <_ZN20complex_dynamic_type3app17h790dc27ac2af17ddE+0xd0>
   15c9c:	6509                	lui	a0,0x2
   15c9e:	9b550513          	addi	a0,a0,-1611 # 19b5 <.Lline_table_start1+0x178a>
   15ca2:	4599                	li	a1,6
   15ca4:	0000a097          	auipc	ra,0xa
   15ca8:	f00080e7          	jalr	-256(ra) # 1fba4 <_ZN9allow_pin12dynamic_type7unshare17hb27555f71d22f3b2E>
   15cac:	02a14603          	lbu	a2,42(sp)
   15cb0:	4409                	li	s0,2
   15cb2:	008105a3          	sb	s0,11(sp)
   15cb6:	00860a63          	beq	a2,s0,15cca <_ZN20complex_dynamic_type3app17h790dc27ac2af17ddE+0xee>
   15cba:	6509                	lui	a0,0x2
   15cbc:	9b550513          	addi	a0,a0,-1611 # 19b5 <.Lline_table_start1+0x178a>
   15cc0:	45a5                	li	a1,9
   15cc2:	0000a097          	auipc	ra,0xa
   15cc6:	ee2080e7          	jalr	-286(ra) # 1fba4 <_ZN9allow_pin12dynamic_type7unshare17hb27555f71d22f3b2E>
   15cca:	4781                	li	a5,0
   15ccc:	02810523          	sb	s0,42(sp)
   15cd0:	cb85                	beqz	a5,15d00 <_ZN20complex_dynamic_type3app17h790dc27ac2af17ddE+0x124>
   15cd2:	02a14603          	lbu	a2,42(sp)
   15cd6:	4505                	li	a0,1
   15cd8:	4409                	li	s0,2
   15cda:	00a90023          	sb	a0,0(s2)
   15cde:	00b92223          	sw	a1,4(s2)
   15ce2:	00860a63          	beq	a2,s0,15cf6 <_ZN20complex_dynamic_type3app17h790dc27ac2af17ddE+0x11a>
   15ce6:	6509                	lui	a0,0x2
   15ce8:	9b550513          	addi	a0,a0,-1611 # 19b5 <.Lline_table_start1+0x178a>
   15cec:	45a5                	li	a1,9
   15cee:	0000a097          	auipc	ra,0xa
   15cf2:	eb6080e7          	jalr	-330(ra) # 1fba4 <_ZN9allow_pin12dynamic_type7unshare17hb27555f71d22f3b2E>
   15cf6:	00b14603          	lbu	a2,11(sp)
   15cfa:	04861763          	bne	a2,s0,15d48 <_ZN20complex_dynamic_type3app17h790dc27ac2af17ddE+0x16c>
   15cfe:	a8a9                	j	15d58 <_ZN20complex_dynamic_type3app17h790dc27ac2af17ddE+0x17c>
   15d00:	02a14403          	lbu	s0,42(sp)
   15d04:	4489                	li	s1,2
   15d06:	00940663          	beq	s0,s1,15d12 <_ZN20complex_dynamic_type3app17h790dc27ac2af17ddE+0x136>
   15d0a:	000109b7          	lui	s3,0x10
   15d0e:	75a98993          	addi	s3,s3,1882 # 1075a <.Lanon.49c9f8067fe4468184af16d7576940c9.34>
   15d12:	00190513          	addi	a0,s2,1
   15d16:	02100613          	li	a2,33
   15d1a:	85ce                	mv	a1,s3
   15d1c:	0000a097          	auipc	ra,0xa
   15d20:	f00080e7          	jalr	-256(ra) # 1fc1c <memcpy>
   15d24:	00090023          	sb	zero,0(s2)
   15d28:	00940b63          	beq	s0,s1,15d3e <_ZN20complex_dynamic_type3app17h790dc27ac2af17ddE+0x162>
   15d2c:	6509                	lui	a0,0x2
   15d2e:	9b550513          	addi	a0,a0,-1611 # 19b5 <.Lline_table_start1+0x178a>
   15d32:	45a5                	li	a1,9
   15d34:	8622                	mv	a2,s0
   15d36:	0000a097          	auipc	ra,0xa
   15d3a:	e6e080e7          	jalr	-402(ra) # 1fba4 <_ZN9allow_pin12dynamic_type7unshare17hb27555f71d22f3b2E>
   15d3e:	00b14603          	lbu	a2,11(sp)
   15d42:	4509                	li	a0,2
   15d44:	00a60a63          	beq	a2,a0,15d58 <_ZN20complex_dynamic_type3app17h790dc27ac2af17ddE+0x17c>
   15d48:	6509                	lui	a0,0x2
   15d4a:	9b550513          	addi	a0,a0,-1611 # 19b5 <.Lline_table_start1+0x178a>
   15d4e:	4599                	li	a1,6
   15d50:	0000a097          	auipc	ra,0xa
   15d54:	e54080e7          	jalr	-428(ra) # 1fba4 <_ZN9allow_pin12dynamic_type7unshare17hb27555f71d22f3b2E>
   15d58:	40f6                	lw	ra,92(sp)
   15d5a:	4466                	lw	s0,88(sp)
   15d5c:	44d6                	lw	s1,84(sp)
   15d5e:	4946                	lw	s2,80(sp)
   15d60:	49b6                	lw	s3,76(sp)
   15d62:	6125                	addi	sp,sp,96
   15d64:	8082                	ret

00015d66 <_ZN20complex_dynamic_type3app17h7b3c223dbc5e59e5E>:
   15d66:	7135                	addi	sp,sp,-160
   15d68:	cf06                	sw	ra,156(sp)
   15d6a:	cd22                	sw	s0,152(sp)
   15d6c:	cb26                	sw	s1,148(sp)
   15d6e:	c94a                	sw	s2,144(sp)
   15d70:	c74e                	sw	s3,140(sp)
   15d72:	892a                	mv	s2,a0
   15d74:	4489                	li	s1,2
   15d76:	00910523          	sb	s1,10(sp)
   15d7a:	00b10413          	addi	s0,sp,11
   15d7e:	02d00613          	li	a2,45
   15d82:	8522                	mv	a0,s0
   15d84:	0000a097          	auipc	ra,0xa
   15d88:	e98080e7          	jalr	-360(ra) # 1fc1c <memcpy>
   15d8c:	03910993          	addi	s3,sp,57
   15d90:	05300613          	li	a2,83
   15d94:	854e                	mv	a0,s3
   15d96:	4581                	li	a1,0
   15d98:	0000a097          	auipc	ra,0xa
   15d9c:	e18080e7          	jalr	-488(ra) # 1fbb0 <memset>
   15da0:	8622                	mv	a2,s0
   15da2:	02910c23          	sb	s1,56(sp)
   15da6:	6505                	lui	a0,0x1
   15da8:	4791                	li	a5,4
   15daa:	4589                	li	a1,2
   15dac:	ec350513          	addi	a0,a0,-317 # ec3 <.Lline_table_start1+0xc98>
   15db0:	02d00693          	li	a3,45
   15db4:	4711                	li	a4,4
   15db6:	00000073          	ecall
   15dba:	00950463          	beq	a0,s1,15dc2 <_ZN20complex_dynamic_type3app17h7b3c223dbc5e59e5E+0x5c>
   15dbe:	00f10523          	sb	a5,10(sp)
   15dc2:	4609                	li	a2,2
   15dc4:	00c51463          	bne	a0,a2,15dcc <_ZN20complex_dynamic_type3app17h7b3c223dbc5e59e5E+0x66>
   15dc8:	4785                	li	a5,1
   15dca:	a859                	j	15e60 <_ZN20complex_dynamic_type3app17h7b3c223dbc5e59e5E+0xfa>
   15dcc:	03814503          	lbu	a0,56(sp)
   15dd0:	4785                	li	a5,1
   15dd2:	02c51363          	bne	a0,a2,15df8 <_ZN20complex_dynamic_type3app17h7b3c223dbc5e59e5E+0x92>
   15dd6:	864e                	mv	a2,s3
   15dd8:	6505                	lui	a0,0x1
   15dda:	459d                	li	a1,7
   15ddc:	05300693          	li	a3,83
   15de0:	470d                	li	a4,3
   15de2:	ec350513          	addi	a0,a0,-317 # ec3 <.Lline_table_start1+0xc98>
   15de6:	4489                	li	s1,2
   15de8:	00000073          	ecall
   15dec:	460d                	li	a2,3
   15dee:	00951963          	bne	a0,s1,15e00 <_ZN20complex_dynamic_type3app17h7b3c223dbc5e59e5E+0x9a>
   15df2:	4505                	li	a0,1
   15df4:	c911                	beqz	a0,15e08 <_ZN20complex_dynamic_type3app17h7b3c223dbc5e59e5E+0xa2>
   15df6:	a0ad                	j	15e60 <_ZN20complex_dynamic_type3app17h7b3c223dbc5e59e5E+0xfa>
   15df8:	458d                	li	a1,3
   15dfa:	4505                	li	a0,1
   15dfc:	c511                	beqz	a0,15e08 <_ZN20complex_dynamic_type3app17h7b3c223dbc5e59e5E+0xa2>
   15dfe:	a08d                	j	15e60 <_ZN20complex_dynamic_type3app17h7b3c223dbc5e59e5E+0xfa>
   15e00:	4501                	li	a0,0
   15e02:	02c10c23          	sb	a2,56(sp)
   15e06:	ed29                	bnez	a0,15e60 <_ZN20complex_dynamic_type3app17h7b3c223dbc5e59e5E+0xfa>
   15e08:	4681                	li	a3,0
   15e0a:	6505                	lui	a0,0x1
   15e0c:	4589                	li	a1,2
   15e0e:	461d                	li	a2,7
   15e10:	4709                	li	a4,2
   15e12:	ec350513          	addi	a0,a0,-317 # ec3 <.Lline_table_start1+0xc98>
   15e16:	07f00493          	li	s1,127
   15e1a:	00000073          	ecall
   15e1e:	4689                	li	a3,2
   15e20:	04a4f063          	bgeu	s1,a0,15e60 <_ZN20complex_dynamic_type3app17h7b3c223dbc5e59e5E+0xfa>
   15e24:	00a14603          	lbu	a2,10(sp)
   15e28:	00d60a63          	beq	a2,a3,15e3c <_ZN20complex_dynamic_type3app17h7b3c223dbc5e59e5E+0xd6>
   15e2c:	6505                	lui	a0,0x1
   15e2e:	ec350513          	addi	a0,a0,-317 # ec3 <.Lline_table_start1+0xc98>
   15e32:	4589                	li	a1,2
   15e34:	0000a097          	auipc	ra,0xa
   15e38:	d70080e7          	jalr	-656(ra) # 1fba4 <_ZN9allow_pin12dynamic_type7unshare17hb27555f71d22f3b2E>
   15e3c:	03814603          	lbu	a2,56(sp)
   15e40:	4409                	li	s0,2
   15e42:	00810523          	sb	s0,10(sp)
   15e46:	00860a63          	beq	a2,s0,15e5a <_ZN20complex_dynamic_type3app17h7b3c223dbc5e59e5E+0xf4>
   15e4a:	6505                	lui	a0,0x1
   15e4c:	ec350513          	addi	a0,a0,-317 # ec3 <.Lline_table_start1+0xc98>
   15e50:	459d                	li	a1,7
   15e52:	0000a097          	auipc	ra,0xa
   15e56:	d52080e7          	jalr	-686(ra) # 1fba4 <_ZN9allow_pin12dynamic_type7unshare17hb27555f71d22f3b2E>
   15e5a:	4781                	li	a5,0
   15e5c:	02810c23          	sb	s0,56(sp)
   15e60:	cb85                	beqz	a5,15e90 <_ZN20complex_dynamic_type3app17h7b3c223dbc5e59e5E+0x12a>
   15e62:	03814603          	lbu	a2,56(sp)
   15e66:	4505                	li	a0,1
   15e68:	4409                	li	s0,2
   15e6a:	00a90023          	sb	a0,0(s2)
   15e6e:	00b92223          	sw	a1,4(s2)
   15e72:	00860a63          	beq	a2,s0,15e86 <_ZN20complex_dynamic_type3app17h7b3c223dbc5e59e5E+0x120>
   15e76:	6505                	lui	a0,0x1
   15e78:	ec350513          	addi	a0,a0,-317 # ec3 <.Lline_table_start1+0xc98>
   15e7c:	459d                	li	a1,7
   15e7e:	0000a097          	auipc	ra,0xa
   15e82:	d26080e7          	jalr	-730(ra) # 1fba4 <_ZN9allow_pin12dynamic_type7unshare17hb27555f71d22f3b2E>
   15e86:	00a14603          	lbu	a2,10(sp)
   15e8a:	04861763          	bne	a2,s0,15ed8 <_ZN20complex_dynamic_type3app17h7b3c223dbc5e59e5E+0x172>
   15e8e:	a8a9                	j	15ee8 <_ZN20complex_dynamic_type3app17h7b3c223dbc5e59e5E+0x182>
   15e90:	03814403          	lbu	s0,56(sp)
   15e94:	4489                	li	s1,2
   15e96:	00940663          	beq	s0,s1,15ea2 <_ZN20complex_dynamic_type3app17h7b3c223dbc5e59e5E+0x13c>
   15e9a:	000119b7          	lui	s3,0x11
   15e9e:	9b198993          	addi	s3,s3,-1615 # 109b1 <.Lanon.49c9f8067fe4468184af16d7576940c9.46>
   15ea2:	00190513          	addi	a0,s2,1
   15ea6:	05300613          	li	a2,83
   15eaa:	85ce                	mv	a1,s3
   15eac:	0000a097          	auipc	ra,0xa
   15eb0:	d70080e7          	jalr	-656(ra) # 1fc1c <memcpy>
   15eb4:	00090023          	sb	zero,0(s2)
   15eb8:	00940b63          	beq	s0,s1,15ece <_ZN20complex_dynamic_type3app17h7b3c223dbc5e59e5E+0x168>
   15ebc:	6505                	lui	a0,0x1
   15ebe:	ec350513          	addi	a0,a0,-317 # ec3 <.Lline_table_start1+0xc98>
   15ec2:	459d                	li	a1,7
   15ec4:	8622                	mv	a2,s0
   15ec6:	0000a097          	auipc	ra,0xa
   15eca:	cde080e7          	jalr	-802(ra) # 1fba4 <_ZN9allow_pin12dynamic_type7unshare17hb27555f71d22f3b2E>
   15ece:	00a14603          	lbu	a2,10(sp)
   15ed2:	4509                	li	a0,2
   15ed4:	00a60a63          	beq	a2,a0,15ee8 <_ZN20complex_dynamic_type3app17h7b3c223dbc5e59e5E+0x182>
   15ed8:	6505                	lui	a0,0x1
   15eda:	ec350513          	addi	a0,a0,-317 # ec3 <.Lline_table_start1+0xc98>
   15ede:	4589                	li	a1,2
   15ee0:	0000a097          	auipc	ra,0xa
   15ee4:	cc4080e7          	jalr	-828(ra) # 1fba4 <_ZN9allow_pin12dynamic_type7unshare17hb27555f71d22f3b2E>
   15ee8:	40fa                	lw	ra,156(sp)
   15eea:	446a                	lw	s0,152(sp)
   15eec:	44da                	lw	s1,148(sp)
   15eee:	494a                	lw	s2,144(sp)
   15ef0:	49ba                	lw	s3,140(sp)
   15ef2:	610d                	addi	sp,sp,160
   15ef4:	8082                	ret

00015ef6 <_ZN20complex_dynamic_type3app17h81cbff8e29b155e4E>:
   15ef6:	7159                	addi	sp,sp,-112
   15ef8:	d686                	sw	ra,108(sp)
   15efa:	d4a2                	sw	s0,104(sp)
   15efc:	d2a6                	sw	s1,100(sp)
   15efe:	d0ca                	sw	s2,96(sp)
   15f00:	cece                	sw	s3,92(sp)
   15f02:	892a                	mv	s2,a0
   15f04:	4489                	li	s1,2
   15f06:	009103a3          	sb	s1,7(sp)
   15f0a:	0020                	addi	s0,sp,8
   15f0c:	02400613          	li	a2,36
   15f10:	8522                	mv	a0,s0
   15f12:	0000a097          	auipc	ra,0xa
   15f16:	d0a080e7          	jalr	-758(ra) # 1fc1c <memcpy>
   15f1a:	02d10993          	addi	s3,sp,45
   15f1e:	02f00613          	li	a2,47
   15f22:	854e                	mv	a0,s3
   15f24:	4581                	li	a1,0
   15f26:	0000a097          	auipc	ra,0xa
   15f2a:	c8a080e7          	jalr	-886(ra) # 1fbb0 <memset>
   15f2e:	8622                	mv	a2,s0
   15f30:	02910623          	sb	s1,44(sp)
   15f34:	6505                	lui	a0,0x1
   15f36:	4791                	li	a5,4
   15f38:	4599                	li	a1,6
   15f3a:	27350513          	addi	a0,a0,627 # 1273 <.Lline_table_start1+0x1048>
   15f3e:	02400693          	li	a3,36
   15f42:	4711                	li	a4,4
   15f44:	00000073          	ecall
   15f48:	00950463          	beq	a0,s1,15f50 <_ZN20complex_dynamic_type3app17h81cbff8e29b155e4E+0x5a>
   15f4c:	00f103a3          	sb	a5,7(sp)
   15f50:	4609                	li	a2,2
   15f52:	00c51463          	bne	a0,a2,15f5a <_ZN20complex_dynamic_type3app17h81cbff8e29b155e4E+0x64>
   15f56:	4785                	li	a5,1
   15f58:	a859                	j	15fee <_ZN20complex_dynamic_type3app17h81cbff8e29b155e4E+0xf8>
   15f5a:	02c14503          	lbu	a0,44(sp)
   15f5e:	4785                	li	a5,1
   15f60:	02c51363          	bne	a0,a2,15f86 <_ZN20complex_dynamic_type3app17h81cbff8e29b155e4E+0x90>
   15f64:	864e                	mv	a2,s3
   15f66:	6505                	lui	a0,0x1
   15f68:	45a5                	li	a1,9
   15f6a:	02f00693          	li	a3,47
   15f6e:	470d                	li	a4,3
   15f70:	27350513          	addi	a0,a0,627 # 1273 <.Lline_table_start1+0x1048>
   15f74:	4489                	li	s1,2
   15f76:	00000073          	ecall
   15f7a:	460d                	li	a2,3
   15f7c:	00951963          	bne	a0,s1,15f8e <_ZN20complex_dynamic_type3app17h81cbff8e29b155e4E+0x98>
   15f80:	4505                	li	a0,1
   15f82:	c911                	beqz	a0,15f96 <_ZN20complex_dynamic_type3app17h81cbff8e29b155e4E+0xa0>
   15f84:	a0ad                	j	15fee <_ZN20complex_dynamic_type3app17h81cbff8e29b155e4E+0xf8>
   15f86:	458d                	li	a1,3
   15f88:	4505                	li	a0,1
   15f8a:	c511                	beqz	a0,15f96 <_ZN20complex_dynamic_type3app17h81cbff8e29b155e4E+0xa0>
   15f8c:	a08d                	j	15fee <_ZN20complex_dynamic_type3app17h81cbff8e29b155e4E+0xf8>
   15f8e:	4501                	li	a0,0
   15f90:	02c10623          	sb	a2,44(sp)
   15f94:	ed29                	bnez	a0,15fee <_ZN20complex_dynamic_type3app17h81cbff8e29b155e4E+0xf8>
   15f96:	4681                	li	a3,0
   15f98:	6505                	lui	a0,0x1
   15f9a:	4599                	li	a1,6
   15f9c:	4625                	li	a2,9
   15f9e:	4709                	li	a4,2
   15fa0:	27350513          	addi	a0,a0,627 # 1273 <.Lline_table_start1+0x1048>
   15fa4:	07f00493          	li	s1,127
   15fa8:	00000073          	ecall
   15fac:	4689                	li	a3,2
   15fae:	04a4f063          	bgeu	s1,a0,15fee <_ZN20complex_dynamic_type3app17h81cbff8e29b155e4E+0xf8>
   15fb2:	00714603          	lbu	a2,7(sp)
   15fb6:	00d60a63          	beq	a2,a3,15fca <_ZN20complex_dynamic_type3app17h81cbff8e29b155e4E+0xd4>
   15fba:	6505                	lui	a0,0x1
   15fbc:	27350513          	addi	a0,a0,627 # 1273 <.Lline_table_start1+0x1048>
   15fc0:	4599                	li	a1,6
   15fc2:	0000a097          	auipc	ra,0xa
   15fc6:	be2080e7          	jalr	-1054(ra) # 1fba4 <_ZN9allow_pin12dynamic_type7unshare17hb27555f71d22f3b2E>
   15fca:	02c14603          	lbu	a2,44(sp)
   15fce:	4409                	li	s0,2
   15fd0:	008103a3          	sb	s0,7(sp)
   15fd4:	00860a63          	beq	a2,s0,15fe8 <_ZN20complex_dynamic_type3app17h81cbff8e29b155e4E+0xf2>
   15fd8:	6505                	lui	a0,0x1
   15fda:	27350513          	addi	a0,a0,627 # 1273 <.Lline_table_start1+0x1048>
   15fde:	45a5                	li	a1,9
   15fe0:	0000a097          	auipc	ra,0xa
   15fe4:	bc4080e7          	jalr	-1084(ra) # 1fba4 <_ZN9allow_pin12dynamic_type7unshare17hb27555f71d22f3b2E>
   15fe8:	4781                	li	a5,0
   15fea:	02810623          	sb	s0,44(sp)
   15fee:	cb85                	beqz	a5,1601e <_ZN20complex_dynamic_type3app17h81cbff8e29b155e4E+0x128>
   15ff0:	02c14603          	lbu	a2,44(sp)
   15ff4:	4505                	li	a0,1
   15ff6:	4409                	li	s0,2
   15ff8:	00a90023          	sb	a0,0(s2)
   15ffc:	00b92223          	sw	a1,4(s2)
   16000:	00860a63          	beq	a2,s0,16014 <_ZN20complex_dynamic_type3app17h81cbff8e29b155e4E+0x11e>
   16004:	6505                	lui	a0,0x1
   16006:	27350513          	addi	a0,a0,627 # 1273 <.Lline_table_start1+0x1048>
   1600a:	45a5                	li	a1,9
   1600c:	0000a097          	auipc	ra,0xa
   16010:	b98080e7          	jalr	-1128(ra) # 1fba4 <_ZN9allow_pin12dynamic_type7unshare17hb27555f71d22f3b2E>
   16014:	00714603          	lbu	a2,7(sp)
   16018:	04861763          	bne	a2,s0,16066 <_ZN20complex_dynamic_type3app17h81cbff8e29b155e4E+0x170>
   1601c:	a8a9                	j	16076 <_ZN20complex_dynamic_type3app17h81cbff8e29b155e4E+0x180>
   1601e:	02c14403          	lbu	s0,44(sp)
   16022:	4489                	li	s1,2
   16024:	00940663          	beq	s0,s1,16030 <_ZN20complex_dynamic_type3app17h81cbff8e29b155e4E+0x13a>
   16028:	000109b7          	lui	s3,0x10
   1602c:	77b98993          	addi	s3,s3,1915 # 1077b <.Lanon.49c9f8067fe4468184af16d7576940c9.35>
   16030:	00190513          	addi	a0,s2,1
   16034:	02f00613          	li	a2,47
   16038:	85ce                	mv	a1,s3
   1603a:	0000a097          	auipc	ra,0xa
   1603e:	be2080e7          	jalr	-1054(ra) # 1fc1c <memcpy>
   16042:	00090023          	sb	zero,0(s2)
   16046:	00940b63          	beq	s0,s1,1605c <_ZN20complex_dynamic_type3app17h81cbff8e29b155e4E+0x166>
   1604a:	6505                	lui	a0,0x1
   1604c:	27350513          	addi	a0,a0,627 # 1273 <.Lline_table_start1+0x1048>
   16050:	45a5                	li	a1,9
   16052:	8622                	mv	a2,s0
   16054:	0000a097          	auipc	ra,0xa
   16058:	b50080e7          	jalr	-1200(ra) # 1fba4 <_ZN9allow_pin12dynamic_type7unshare17hb27555f71d22f3b2E>
   1605c:	00714603          	lbu	a2,7(sp)
   16060:	4509                	li	a0,2
   16062:	00a60a63          	beq	a2,a0,16076 <_ZN20complex_dynamic_type3app17h81cbff8e29b155e4E+0x180>
   16066:	6505                	lui	a0,0x1
   16068:	27350513          	addi	a0,a0,627 # 1273 <.Lline_table_start1+0x1048>
   1606c:	4599                	li	a1,6
   1606e:	0000a097          	auipc	ra,0xa
   16072:	b36080e7          	jalr	-1226(ra) # 1fba4 <_ZN9allow_pin12dynamic_type7unshare17hb27555f71d22f3b2E>
   16076:	50b6                	lw	ra,108(sp)
   16078:	5426                	lw	s0,104(sp)
   1607a:	5496                	lw	s1,100(sp)
   1607c:	5906                	lw	s2,96(sp)
   1607e:	49f6                	lw	s3,92(sp)
   16080:	6165                	addi	sp,sp,112
   16082:	8082                	ret

00016084 <_ZN20complex_dynamic_type3app17h827b85d169f2c533E>:
   16084:	7175                	addi	sp,sp,-144
   16086:	c706                	sw	ra,140(sp)
   16088:	c522                	sw	s0,136(sp)
   1608a:	c326                	sw	s1,132(sp)
   1608c:	c14a                	sw	s2,128(sp)
   1608e:	dece                	sw	s3,124(sp)
   16090:	892a                	mv	s2,a0
   16092:	4489                	li	s1,2
   16094:	009107a3          	sb	s1,15(sp)
   16098:	0800                	addi	s0,sp,16
   1609a:	05000613          	li	a2,80
   1609e:	8522                	mv	a0,s0
   160a0:	0000a097          	auipc	ra,0xa
   160a4:	b7c080e7          	jalr	-1156(ra) # 1fc1c <memcpy>
   160a8:	06110993          	addi	s3,sp,97
   160ac:	466d                	li	a2,27
   160ae:	854e                	mv	a0,s3
   160b0:	4581                	li	a1,0
   160b2:	0000a097          	auipc	ra,0xa
   160b6:	afe080e7          	jalr	-1282(ra) # 1fbb0 <memset>
   160ba:	8622                	mv	a2,s0
   160bc:	06910023          	sb	s1,96(sp)
   160c0:	4791                	li	a5,4
   160c2:	3d900513          	li	a0,985
   160c6:	4585                	li	a1,1
   160c8:	05000693          	li	a3,80
   160cc:	4711                	li	a4,4
   160ce:	00000073          	ecall
   160d2:	00950463          	beq	a0,s1,160da <_ZN20complex_dynamic_type3app17h827b85d169f2c533E+0x56>
   160d6:	00f107a3          	sb	a5,15(sp)
   160da:	4609                	li	a2,2
   160dc:	00c51463          	bne	a0,a2,160e4 <_ZN20complex_dynamic_type3app17h827b85d169f2c533E+0x60>
   160e0:	4785                	li	a5,1
   160e2:	a079                	j	16170 <_ZN20complex_dynamic_type3app17h827b85d169f2c533E+0xec>
   160e4:	06014503          	lbu	a0,96(sp)
   160e8:	4785                	li	a5,1
   160ea:	02c51163          	bne	a0,a2,1610c <_ZN20complex_dynamic_type3app17h827b85d169f2c533E+0x88>
   160ee:	864e                	mv	a2,s3
   160f0:	4409                	li	s0,2
   160f2:	448d                	li	s1,3
   160f4:	3d900513          	li	a0,985
   160f8:	4589                	li	a1,2
   160fa:	46ed                	li	a3,27
   160fc:	470d                	li	a4,3
   160fe:	00000073          	ecall
   16102:	00851963          	bne	a0,s0,16114 <_ZN20complex_dynamic_type3app17h827b85d169f2c533E+0x90>
   16106:	4505                	li	a0,1
   16108:	c911                	beqz	a0,1611c <_ZN20complex_dynamic_type3app17h827b85d169f2c533E+0x98>
   1610a:	a09d                	j	16170 <_ZN20complex_dynamic_type3app17h827b85d169f2c533E+0xec>
   1610c:	458d                	li	a1,3
   1610e:	4505                	li	a0,1
   16110:	c511                	beqz	a0,1611c <_ZN20complex_dynamic_type3app17h827b85d169f2c533E+0x98>
   16112:	a8b9                	j	16170 <_ZN20complex_dynamic_type3app17h827b85d169f2c533E+0xec>
   16114:	4501                	li	a0,0
   16116:	06910023          	sb	s1,96(sp)
   1611a:	e939                	bnez	a0,16170 <_ZN20complex_dynamic_type3app17h827b85d169f2c533E+0xec>
   1611c:	4681                	li	a3,0
   1611e:	4785                	li	a5,1
   16120:	3d900513          	li	a0,985
   16124:	4585                	li	a1,1
   16126:	4609                	li	a2,2
   16128:	4709                	li	a4,2
   1612a:	07f00493          	li	s1,127
   1612e:	00000073          	ecall
   16132:	4689                	li	a3,2
   16134:	02a4fe63          	bgeu	s1,a0,16170 <_ZN20complex_dynamic_type3app17h827b85d169f2c533E+0xec>
   16138:	00f14603          	lbu	a2,15(sp)
   1613c:	00d60963          	beq	a2,a3,1614e <_ZN20complex_dynamic_type3app17h827b85d169f2c533E+0xca>
   16140:	3d900513          	li	a0,985
   16144:	4585                	li	a1,1
   16146:	0000a097          	auipc	ra,0xa
   1614a:	a5e080e7          	jalr	-1442(ra) # 1fba4 <_ZN9allow_pin12dynamic_type7unshare17hb27555f71d22f3b2E>
   1614e:	06014603          	lbu	a2,96(sp)
   16152:	4409                	li	s0,2
   16154:	008107a3          	sb	s0,15(sp)
   16158:	00860963          	beq	a2,s0,1616a <_ZN20complex_dynamic_type3app17h827b85d169f2c533E+0xe6>
   1615c:	3d900513          	li	a0,985
   16160:	4589                	li	a1,2
   16162:	0000a097          	auipc	ra,0xa
   16166:	a42080e7          	jalr	-1470(ra) # 1fba4 <_ZN9allow_pin12dynamic_type7unshare17hb27555f71d22f3b2E>
   1616a:	4781                	li	a5,0
   1616c:	06810023          	sb	s0,96(sp)
   16170:	c79d                	beqz	a5,1619e <_ZN20complex_dynamic_type3app17h827b85d169f2c533E+0x11a>
   16172:	06014603          	lbu	a2,96(sp)
   16176:	4505                	li	a0,1
   16178:	4409                	li	s0,2
   1617a:	00a90023          	sb	a0,0(s2)
   1617e:	00b92223          	sw	a1,4(s2)
   16182:	00860963          	beq	a2,s0,16194 <_ZN20complex_dynamic_type3app17h827b85d169f2c533E+0x110>
   16186:	3d900513          	li	a0,985
   1618a:	4589                	li	a1,2
   1618c:	0000a097          	auipc	ra,0xa
   16190:	a18080e7          	jalr	-1512(ra) # 1fba4 <_ZN9allow_pin12dynamic_type7unshare17hb27555f71d22f3b2E>
   16194:	00f14603          	lbu	a2,15(sp)
   16198:	04861563          	bne	a2,s0,161e2 <_ZN20complex_dynamic_type3app17h827b85d169f2c533E+0x15e>
   1619c:	a891                	j	161f0 <_ZN20complex_dynamic_type3app17h827b85d169f2c533E+0x16c>
   1619e:	06014403          	lbu	s0,96(sp)
   161a2:	4489                	li	s1,2
   161a4:	00940663          	beq	s0,s1,161b0 <_ZN20complex_dynamic_type3app17h827b85d169f2c533E+0x12c>
   161a8:	000109b7          	lui	s3,0x10
   161ac:	40b98993          	addi	s3,s3,1035 # 1040b <.Lanon.49c9f8067fe4468184af16d7576940c9.17>
   161b0:	00190513          	addi	a0,s2,1
   161b4:	466d                	li	a2,27
   161b6:	85ce                	mv	a1,s3
   161b8:	0000a097          	auipc	ra,0xa
   161bc:	a64080e7          	jalr	-1436(ra) # 1fc1c <memcpy>
   161c0:	00090023          	sb	zero,0(s2)
   161c4:	00940a63          	beq	s0,s1,161d8 <_ZN20complex_dynamic_type3app17h827b85d169f2c533E+0x154>
   161c8:	3d900513          	li	a0,985
   161cc:	4589                	li	a1,2
   161ce:	8622                	mv	a2,s0
   161d0:	0000a097          	auipc	ra,0xa
   161d4:	9d4080e7          	jalr	-1580(ra) # 1fba4 <_ZN9allow_pin12dynamic_type7unshare17hb27555f71d22f3b2E>
   161d8:	00f14603          	lbu	a2,15(sp)
   161dc:	4509                	li	a0,2
   161de:	00a60963          	beq	a2,a0,161f0 <_ZN20complex_dynamic_type3app17h827b85d169f2c533E+0x16c>
   161e2:	3d900513          	li	a0,985
   161e6:	4585                	li	a1,1
   161e8:	0000a097          	auipc	ra,0xa
   161ec:	9bc080e7          	jalr	-1604(ra) # 1fba4 <_ZN9allow_pin12dynamic_type7unshare17hb27555f71d22f3b2E>
   161f0:	40ba                	lw	ra,140(sp)
   161f2:	442a                	lw	s0,136(sp)
   161f4:	449a                	lw	s1,132(sp)
   161f6:	490a                	lw	s2,128(sp)
   161f8:	59f6                	lw	s3,124(sp)
   161fa:	6149                	addi	sp,sp,144
   161fc:	8082                	ret

000161fe <_ZN20complex_dynamic_type3app17h8619865047276f2cE>:
   161fe:	7159                	addi	sp,sp,-112
   16200:	d686                	sw	ra,108(sp)
   16202:	d4a2                	sw	s0,104(sp)
   16204:	d2a6                	sw	s1,100(sp)
   16206:	d0ca                	sw	s2,96(sp)
   16208:	cece                	sw	s3,92(sp)
   1620a:	892a                	mv	s2,a0
   1620c:	4489                	li	s1,2
   1620e:	009104a3          	sb	s1,9(sp)
   16212:	00a10413          	addi	s0,sp,10
   16216:	02c00613          	li	a2,44
   1621a:	8522                	mv	a0,s0
   1621c:	0000a097          	auipc	ra,0xa
   16220:	a00080e7          	jalr	-1536(ra) # 1fc1c <memcpy>
   16224:	03710993          	addi	s3,sp,55
   16228:	02500613          	li	a2,37
   1622c:	854e                	mv	a0,s3
   1622e:	4581                	li	a1,0
   16230:	0000a097          	auipc	ra,0xa
   16234:	980080e7          	jalr	-1664(ra) # 1fbb0 <memset>
   16238:	8622                	mv	a2,s0
   1623a:	02910b23          	sb	s1,54(sp)
   1623e:	4791                	li	a5,4
   16240:	77f00513          	li	a0,1919
   16244:	458d                	li	a1,3
   16246:	02c00693          	li	a3,44
   1624a:	4711                	li	a4,4
   1624c:	00000073          	ecall
   16250:	00950463          	beq	a0,s1,16258 <_ZN20complex_dynamic_type3app17h8619865047276f2cE+0x5a>
   16254:	00f104a3          	sb	a5,9(sp)
   16258:	4609                	li	a2,2
   1625a:	00c51463          	bne	a0,a2,16262 <_ZN20complex_dynamic_type3app17h8619865047276f2cE+0x64>
   1625e:	4785                	li	a5,1
   16260:	a079                	j	162ee <_ZN20complex_dynamic_type3app17h8619865047276f2cE+0xf0>
   16262:	03614503          	lbu	a0,54(sp)
   16266:	4785                	li	a5,1
   16268:	02c51263          	bne	a0,a2,1628c <_ZN20complex_dynamic_type3app17h8619865047276f2cE+0x8e>
   1626c:	4581                	li	a1,0
   1626e:	864e                	mv	a2,s3
   16270:	77f00513          	li	a0,1919
   16274:	02500693          	li	a3,37
   16278:	470d                	li	a4,3
   1627a:	4489                	li	s1,2
   1627c:	00000073          	ecall
   16280:	460d                	li	a2,3
   16282:	00951963          	bne	a0,s1,16294 <_ZN20complex_dynamic_type3app17h8619865047276f2cE+0x96>
   16286:	4505                	li	a0,1
   16288:	c911                	beqz	a0,1629c <_ZN20complex_dynamic_type3app17h8619865047276f2cE+0x9e>
   1628a:	a095                	j	162ee <_ZN20complex_dynamic_type3app17h8619865047276f2cE+0xf0>
   1628c:	458d                	li	a1,3
   1628e:	4505                	li	a0,1
   16290:	c511                	beqz	a0,1629c <_ZN20complex_dynamic_type3app17h8619865047276f2cE+0x9e>
   16292:	a8b1                	j	162ee <_ZN20complex_dynamic_type3app17h8619865047276f2cE+0xf0>
   16294:	4501                	li	a0,0
   16296:	02c10b23          	sb	a2,54(sp)
   1629a:	e931                	bnez	a0,162ee <_ZN20complex_dynamic_type3app17h8619865047276f2cE+0xf0>
   1629c:	4601                	li	a2,0
   1629e:	4681                	li	a3,0
   162a0:	77f00513          	li	a0,1919
   162a4:	458d                	li	a1,3
   162a6:	4709                	li	a4,2
   162a8:	07f00493          	li	s1,127
   162ac:	00000073          	ecall
   162b0:	4689                	li	a3,2
   162b2:	02a4fe63          	bgeu	s1,a0,162ee <_ZN20complex_dynamic_type3app17h8619865047276f2cE+0xf0>
   162b6:	00914603          	lbu	a2,9(sp)
   162ba:	00d60963          	beq	a2,a3,162cc <_ZN20complex_dynamic_type3app17h8619865047276f2cE+0xce>
   162be:	77f00513          	li	a0,1919
   162c2:	458d                	li	a1,3
   162c4:	0000a097          	auipc	ra,0xa
   162c8:	8e0080e7          	jalr	-1824(ra) # 1fba4 <_ZN9allow_pin12dynamic_type7unshare17hb27555f71d22f3b2E>
   162cc:	03614603          	lbu	a2,54(sp)
   162d0:	4409                	li	s0,2
   162d2:	008104a3          	sb	s0,9(sp)
   162d6:	00860963          	beq	a2,s0,162e8 <_ZN20complex_dynamic_type3app17h8619865047276f2cE+0xea>
   162da:	77f00513          	li	a0,1919
   162de:	4581                	li	a1,0
   162e0:	0000a097          	auipc	ra,0xa
   162e4:	8c4080e7          	jalr	-1852(ra) # 1fba4 <_ZN9allow_pin12dynamic_type7unshare17hb27555f71d22f3b2E>
   162e8:	4781                	li	a5,0
   162ea:	02810b23          	sb	s0,54(sp)
   162ee:	c79d                	beqz	a5,1631c <_ZN20complex_dynamic_type3app17h8619865047276f2cE+0x11e>
   162f0:	03614603          	lbu	a2,54(sp)
   162f4:	4505                	li	a0,1
   162f6:	4409                	li	s0,2
   162f8:	00a90023          	sb	a0,0(s2)
   162fc:	00b92223          	sw	a1,4(s2)
   16300:	00860963          	beq	a2,s0,16312 <_ZN20complex_dynamic_type3app17h8619865047276f2cE+0x114>
   16304:	77f00513          	li	a0,1919
   16308:	4581                	li	a1,0
   1630a:	0000a097          	auipc	ra,0xa
   1630e:	89a080e7          	jalr	-1894(ra) # 1fba4 <_ZN9allow_pin12dynamic_type7unshare17hb27555f71d22f3b2E>
   16312:	00914603          	lbu	a2,9(sp)
   16316:	04861663          	bne	a2,s0,16362 <_ZN20complex_dynamic_type3app17h8619865047276f2cE+0x164>
   1631a:	a899                	j	16370 <_ZN20complex_dynamic_type3app17h8619865047276f2cE+0x172>
   1631c:	03614403          	lbu	s0,54(sp)
   16320:	4489                	li	s1,2
   16322:	00940663          	beq	s0,s1,1632e <_ZN20complex_dynamic_type3app17h8619865047276f2cE+0x130>
   16326:	000109b7          	lui	s3,0x10
   1632a:	47598993          	addi	s3,s3,1141 # 10475 <.Lanon.49c9f8067fe4468184af16d7576940c9.19>
   1632e:	00190513          	addi	a0,s2,1
   16332:	02500613          	li	a2,37
   16336:	85ce                	mv	a1,s3
   16338:	0000a097          	auipc	ra,0xa
   1633c:	8e4080e7          	jalr	-1820(ra) # 1fc1c <memcpy>
   16340:	00090023          	sb	zero,0(s2)
   16344:	00940a63          	beq	s0,s1,16358 <_ZN20complex_dynamic_type3app17h8619865047276f2cE+0x15a>
   16348:	77f00513          	li	a0,1919
   1634c:	4581                	li	a1,0
   1634e:	8622                	mv	a2,s0
   16350:	0000a097          	auipc	ra,0xa
   16354:	854080e7          	jalr	-1964(ra) # 1fba4 <_ZN9allow_pin12dynamic_type7unshare17hb27555f71d22f3b2E>
   16358:	00914603          	lbu	a2,9(sp)
   1635c:	4509                	li	a0,2
   1635e:	00a60963          	beq	a2,a0,16370 <_ZN20complex_dynamic_type3app17h8619865047276f2cE+0x172>
   16362:	77f00513          	li	a0,1919
   16366:	458d                	li	a1,3
   16368:	0000a097          	auipc	ra,0xa
   1636c:	83c080e7          	jalr	-1988(ra) # 1fba4 <_ZN9allow_pin12dynamic_type7unshare17hb27555f71d22f3b2E>
   16370:	50b6                	lw	ra,108(sp)
   16372:	5426                	lw	s0,104(sp)
   16374:	5496                	lw	s1,100(sp)
   16376:	5906                	lw	s2,96(sp)
   16378:	49f6                	lw	s3,92(sp)
   1637a:	6165                	addi	sp,sp,112
   1637c:	8082                	ret

0001637e <_ZN20complex_dynamic_type3app17h867e144fc24385c4E>:
   1637e:	7159                	addi	sp,sp,-112
   16380:	d686                	sw	ra,108(sp)
   16382:	d4a2                	sw	s0,104(sp)
   16384:	d2a6                	sw	s1,100(sp)
   16386:	d0ca                	sw	s2,96(sp)
   16388:	cece                	sw	s3,92(sp)
   1638a:	892a                	mv	s2,a0
   1638c:	4489                	li	s1,2
   1638e:	009103a3          	sb	s1,7(sp)
   16392:	0020                	addi	s0,sp,8
   16394:	02c00613          	li	a2,44
   16398:	8522                	mv	a0,s0
   1639a:	0000a097          	auipc	ra,0xa
   1639e:	882080e7          	jalr	-1918(ra) # 1fc1c <memcpy>
   163a2:	03510993          	addi	s3,sp,53
   163a6:	02700613          	li	a2,39
   163aa:	854e                	mv	a0,s3
   163ac:	4581                	li	a1,0
   163ae:	0000a097          	auipc	ra,0xa
   163b2:	802080e7          	jalr	-2046(ra) # 1fbb0 <memset>
   163b6:	8622                	mv	a2,s0
   163b8:	02910a23          	sb	s1,52(sp)
   163bc:	6505                	lui	a0,0x1
   163be:	4791                	li	a5,4
   163c0:	4591                	li	a1,4
   163c2:	1b550513          	addi	a0,a0,437 # 11b5 <.Lline_table_start1+0xf8a>
   163c6:	02c00693          	li	a3,44
   163ca:	4711                	li	a4,4
   163cc:	00000073          	ecall
   163d0:	00950463          	beq	a0,s1,163d8 <_ZN20complex_dynamic_type3app17h867e144fc24385c4E+0x5a>
   163d4:	00f103a3          	sb	a5,7(sp)
   163d8:	4609                	li	a2,2
   163da:	00c51463          	bne	a0,a2,163e2 <_ZN20complex_dynamic_type3app17h867e144fc24385c4E+0x64>
   163de:	4785                	li	a5,1
   163e0:	a859                	j	16476 <_ZN20complex_dynamic_type3app17h867e144fc24385c4E+0xf8>
   163e2:	03414503          	lbu	a0,52(sp)
   163e6:	4785                	li	a5,1
   163e8:	02c51363          	bne	a0,a2,1640e <_ZN20complex_dynamic_type3app17h867e144fc24385c4E+0x90>
   163ec:	864e                	mv	a2,s3
   163ee:	6505                	lui	a0,0x1
   163f0:	458d                	li	a1,3
   163f2:	02700693          	li	a3,39
   163f6:	470d                	li	a4,3
   163f8:	1b550513          	addi	a0,a0,437 # 11b5 <.Lline_table_start1+0xf8a>
   163fc:	4489                	li	s1,2
   163fe:	00000073          	ecall
   16402:	460d                	li	a2,3
   16404:	00951963          	bne	a0,s1,16416 <_ZN20complex_dynamic_type3app17h867e144fc24385c4E+0x98>
   16408:	4505                	li	a0,1
   1640a:	c911                	beqz	a0,1641e <_ZN20complex_dynamic_type3app17h867e144fc24385c4E+0xa0>
   1640c:	a0ad                	j	16476 <_ZN20complex_dynamic_type3app17h867e144fc24385c4E+0xf8>
   1640e:	458d                	li	a1,3
   16410:	4505                	li	a0,1
   16412:	c511                	beqz	a0,1641e <_ZN20complex_dynamic_type3app17h867e144fc24385c4E+0xa0>
   16414:	a08d                	j	16476 <_ZN20complex_dynamic_type3app17h867e144fc24385c4E+0xf8>
   16416:	4501                	li	a0,0
   16418:	02c10a23          	sb	a2,52(sp)
   1641c:	ed29                	bnez	a0,16476 <_ZN20complex_dynamic_type3app17h867e144fc24385c4E+0xf8>
   1641e:	4681                	li	a3,0
   16420:	6505                	lui	a0,0x1
   16422:	4591                	li	a1,4
   16424:	460d                	li	a2,3
   16426:	4709                	li	a4,2
   16428:	1b550513          	addi	a0,a0,437 # 11b5 <.Lline_table_start1+0xf8a>
   1642c:	07f00493          	li	s1,127
   16430:	00000073          	ecall
   16434:	4689                	li	a3,2
   16436:	04a4f063          	bgeu	s1,a0,16476 <_ZN20complex_dynamic_type3app17h867e144fc24385c4E+0xf8>
   1643a:	00714603          	lbu	a2,7(sp)
   1643e:	00d60a63          	beq	a2,a3,16452 <_ZN20complex_dynamic_type3app17h867e144fc24385c4E+0xd4>
   16442:	6505                	lui	a0,0x1
   16444:	1b550513          	addi	a0,a0,437 # 11b5 <.Lline_table_start1+0xf8a>
   16448:	4591                	li	a1,4
   1644a:	00009097          	auipc	ra,0x9
   1644e:	75a080e7          	jalr	1882(ra) # 1fba4 <_ZN9allow_pin12dynamic_type7unshare17hb27555f71d22f3b2E>
   16452:	03414603          	lbu	a2,52(sp)
   16456:	4409                	li	s0,2
   16458:	008103a3          	sb	s0,7(sp)
   1645c:	00860a63          	beq	a2,s0,16470 <_ZN20complex_dynamic_type3app17h867e144fc24385c4E+0xf2>
   16460:	6505                	lui	a0,0x1
   16462:	1b550513          	addi	a0,a0,437 # 11b5 <.Lline_table_start1+0xf8a>
   16466:	458d                	li	a1,3
   16468:	00009097          	auipc	ra,0x9
   1646c:	73c080e7          	jalr	1852(ra) # 1fba4 <_ZN9allow_pin12dynamic_type7unshare17hb27555f71d22f3b2E>
   16470:	4781                	li	a5,0
   16472:	02810a23          	sb	s0,52(sp)
   16476:	cb85                	beqz	a5,164a6 <_ZN20complex_dynamic_type3app17h867e144fc24385c4E+0x128>
   16478:	03414603          	lbu	a2,52(sp)
   1647c:	4505                	li	a0,1
   1647e:	4409                	li	s0,2
   16480:	00a90023          	sb	a0,0(s2)
   16484:	00b92223          	sw	a1,4(s2)
   16488:	00860a63          	beq	a2,s0,1649c <_ZN20complex_dynamic_type3app17h867e144fc24385c4E+0x11e>
   1648c:	6505                	lui	a0,0x1
   1648e:	1b550513          	addi	a0,a0,437 # 11b5 <.Lline_table_start1+0xf8a>
   16492:	458d                	li	a1,3
   16494:	00009097          	auipc	ra,0x9
   16498:	710080e7          	jalr	1808(ra) # 1fba4 <_ZN9allow_pin12dynamic_type7unshare17hb27555f71d22f3b2E>
   1649c:	00714603          	lbu	a2,7(sp)
   164a0:	04861763          	bne	a2,s0,164ee <_ZN20complex_dynamic_type3app17h867e144fc24385c4E+0x170>
   164a4:	a8a9                	j	164fe <_ZN20complex_dynamic_type3app17h867e144fc24385c4E+0x180>
   164a6:	03414403          	lbu	s0,52(sp)
   164aa:	4489                	li	s1,2
   164ac:	00940663          	beq	s0,s1,164b8 <_ZN20complex_dynamic_type3app17h867e144fc24385c4E+0x13a>
   164b0:	000109b7          	lui	s3,0x10
   164b4:	0d498993          	addi	s3,s3,212 # 100d4 <.Lanon.49c9f8067fe4468184af16d7576940c9.0>
   164b8:	00190513          	addi	a0,s2,1
   164bc:	02700613          	li	a2,39
   164c0:	85ce                	mv	a1,s3
   164c2:	00009097          	auipc	ra,0x9
   164c6:	75a080e7          	jalr	1882(ra) # 1fc1c <memcpy>
   164ca:	00090023          	sb	zero,0(s2)
   164ce:	00940b63          	beq	s0,s1,164e4 <_ZN20complex_dynamic_type3app17h867e144fc24385c4E+0x166>
   164d2:	6505                	lui	a0,0x1
   164d4:	1b550513          	addi	a0,a0,437 # 11b5 <.Lline_table_start1+0xf8a>
   164d8:	458d                	li	a1,3
   164da:	8622                	mv	a2,s0
   164dc:	00009097          	auipc	ra,0x9
   164e0:	6c8080e7          	jalr	1736(ra) # 1fba4 <_ZN9allow_pin12dynamic_type7unshare17hb27555f71d22f3b2E>
   164e4:	00714603          	lbu	a2,7(sp)
   164e8:	4509                	li	a0,2
   164ea:	00a60a63          	beq	a2,a0,164fe <_ZN20complex_dynamic_type3app17h867e144fc24385c4E+0x180>
   164ee:	6505                	lui	a0,0x1
   164f0:	1b550513          	addi	a0,a0,437 # 11b5 <.Lline_table_start1+0xf8a>
   164f4:	4591                	li	a1,4
   164f6:	00009097          	auipc	ra,0x9
   164fa:	6ae080e7          	jalr	1710(ra) # 1fba4 <_ZN9allow_pin12dynamic_type7unshare17hb27555f71d22f3b2E>
   164fe:	50b6                	lw	ra,108(sp)
   16500:	5426                	lw	s0,104(sp)
   16502:	5496                	lw	s1,100(sp)
   16504:	5906                	lw	s2,96(sp)
   16506:	49f6                	lw	s3,92(sp)
   16508:	6165                	addi	sp,sp,112
   1650a:	8082                	ret

0001650c <_ZN20complex_dynamic_type3app17h88e5420801eda168E>:
   1650c:	7159                	addi	sp,sp,-112
   1650e:	d686                	sw	ra,108(sp)
   16510:	d4a2                	sw	s0,104(sp)
   16512:	d2a6                	sw	s1,100(sp)
   16514:	d0ca                	sw	s2,96(sp)
   16516:	cece                	sw	s3,92(sp)
   16518:	892a                	mv	s2,a0
   1651a:	4489                	li	s1,2
   1651c:	00910623          	sb	s1,12(sp)
   16520:	00d10413          	addi	s0,sp,13
   16524:	4661                	li	a2,24
   16526:	8522                	mv	a0,s0
   16528:	00009097          	auipc	ra,0x9
   1652c:	6f4080e7          	jalr	1780(ra) # 1fc1c <memcpy>
   16530:	02610993          	addi	s3,sp,38
   16534:	03600613          	li	a2,54
   16538:	854e                	mv	a0,s3
   1653a:	4581                	li	a1,0
   1653c:	00009097          	auipc	ra,0x9
   16540:	674080e7          	jalr	1652(ra) # 1fbb0 <memset>
   16544:	8622                	mv	a2,s0
   16546:	029102a3          	sb	s1,37(sp)
   1654a:	4791                	li	a5,4
   1654c:	0f300513          	li	a0,243
   16550:	45a1                	li	a1,8
   16552:	46e1                	li	a3,24
   16554:	4711                	li	a4,4
   16556:	00000073          	ecall
   1655a:	00950463          	beq	a0,s1,16562 <_ZN20complex_dynamic_type3app17h88e5420801eda168E+0x56>
   1655e:	00f10623          	sb	a5,12(sp)
   16562:	4609                	li	a2,2
   16564:	00c51463          	bne	a0,a2,1656c <_ZN20complex_dynamic_type3app17h88e5420801eda168E+0x60>
   16568:	4785                	li	a5,1
   1656a:	a079                	j	165f8 <_ZN20complex_dynamic_type3app17h88e5420801eda168E+0xec>
   1656c:	02514503          	lbu	a0,37(sp)
   16570:	4785                	li	a5,1
   16572:	02c51263          	bne	a0,a2,16596 <_ZN20complex_dynamic_type3app17h88e5420801eda168E+0x8a>
   16576:	864e                	mv	a2,s3
   16578:	0f300513          	li	a0,243
   1657c:	4591                	li	a1,4
   1657e:	03600693          	li	a3,54
   16582:	470d                	li	a4,3
   16584:	4489                	li	s1,2
   16586:	00000073          	ecall
   1658a:	460d                	li	a2,3
   1658c:	00951963          	bne	a0,s1,1659e <_ZN20complex_dynamic_type3app17h88e5420801eda168E+0x92>
   16590:	4505                	li	a0,1
   16592:	c911                	beqz	a0,165a6 <_ZN20complex_dynamic_type3app17h88e5420801eda168E+0x9a>
   16594:	a095                	j	165f8 <_ZN20complex_dynamic_type3app17h88e5420801eda168E+0xec>
   16596:	458d                	li	a1,3
   16598:	4505                	li	a0,1
   1659a:	c511                	beqz	a0,165a6 <_ZN20complex_dynamic_type3app17h88e5420801eda168E+0x9a>
   1659c:	a8b1                	j	165f8 <_ZN20complex_dynamic_type3app17h88e5420801eda168E+0xec>
   1659e:	4501                	li	a0,0
   165a0:	02c102a3          	sb	a2,37(sp)
   165a4:	e931                	bnez	a0,165f8 <_ZN20complex_dynamic_type3app17h88e5420801eda168E+0xec>
   165a6:	4681                	li	a3,0
   165a8:	0f300513          	li	a0,243
   165ac:	45a1                	li	a1,8
   165ae:	4611                	li	a2,4
   165b0:	4709                	li	a4,2
   165b2:	07f00493          	li	s1,127
   165b6:	00000073          	ecall
   165ba:	4689                	li	a3,2
   165bc:	02a4fe63          	bgeu	s1,a0,165f8 <_ZN20complex_dynamic_type3app17h88e5420801eda168E+0xec>
   165c0:	00c14603          	lbu	a2,12(sp)
   165c4:	00d60963          	beq	a2,a3,165d6 <_ZN20complex_dynamic_type3app17h88e5420801eda168E+0xca>
   165c8:	0f300513          	li	a0,243
   165cc:	45a1                	li	a1,8
   165ce:	00009097          	auipc	ra,0x9
   165d2:	5d6080e7          	jalr	1494(ra) # 1fba4 <_ZN9allow_pin12dynamic_type7unshare17hb27555f71d22f3b2E>
   165d6:	02514603          	lbu	a2,37(sp)
   165da:	4409                	li	s0,2
   165dc:	00810623          	sb	s0,12(sp)
   165e0:	00860963          	beq	a2,s0,165f2 <_ZN20complex_dynamic_type3app17h88e5420801eda168E+0xe6>
   165e4:	0f300513          	li	a0,243
   165e8:	4591                	li	a1,4
   165ea:	00009097          	auipc	ra,0x9
   165ee:	5ba080e7          	jalr	1466(ra) # 1fba4 <_ZN9allow_pin12dynamic_type7unshare17hb27555f71d22f3b2E>
   165f2:	4781                	li	a5,0
   165f4:	028102a3          	sb	s0,37(sp)
   165f8:	c79d                	beqz	a5,16626 <_ZN20complex_dynamic_type3app17h88e5420801eda168E+0x11a>
   165fa:	02514603          	lbu	a2,37(sp)
   165fe:	4505                	li	a0,1
   16600:	4409                	li	s0,2
   16602:	00a90023          	sb	a0,0(s2)
   16606:	00b92223          	sw	a1,4(s2)
   1660a:	00860963          	beq	a2,s0,1661c <_ZN20complex_dynamic_type3app17h88e5420801eda168E+0x110>
   1660e:	0f300513          	li	a0,243
   16612:	4591                	li	a1,4
   16614:	00009097          	auipc	ra,0x9
   16618:	590080e7          	jalr	1424(ra) # 1fba4 <_ZN9allow_pin12dynamic_type7unshare17hb27555f71d22f3b2E>
   1661c:	00c14603          	lbu	a2,12(sp)
   16620:	04861663          	bne	a2,s0,1666c <_ZN20complex_dynamic_type3app17h88e5420801eda168E+0x160>
   16624:	a899                	j	1667a <_ZN20complex_dynamic_type3app17h88e5420801eda168E+0x16e>
   16626:	02514403          	lbu	s0,37(sp)
   1662a:	4489                	li	s1,2
   1662c:	00940663          	beq	s0,s1,16638 <_ZN20complex_dynamic_type3app17h88e5420801eda168E+0x12c>
   16630:	000109b7          	lui	s3,0x10
   16634:	21798993          	addi	s3,s3,535 # 10217 <.Lanon.49c9f8067fe4468184af16d7576940c9.8>
   16638:	00190513          	addi	a0,s2,1
   1663c:	03600613          	li	a2,54
   16640:	85ce                	mv	a1,s3
   16642:	00009097          	auipc	ra,0x9
   16646:	5da080e7          	jalr	1498(ra) # 1fc1c <memcpy>
   1664a:	00090023          	sb	zero,0(s2)
   1664e:	00940a63          	beq	s0,s1,16662 <_ZN20complex_dynamic_type3app17h88e5420801eda168E+0x156>
   16652:	0f300513          	li	a0,243
   16656:	4591                	li	a1,4
   16658:	8622                	mv	a2,s0
   1665a:	00009097          	auipc	ra,0x9
   1665e:	54a080e7          	jalr	1354(ra) # 1fba4 <_ZN9allow_pin12dynamic_type7unshare17hb27555f71d22f3b2E>
   16662:	00c14603          	lbu	a2,12(sp)
   16666:	4509                	li	a0,2
   16668:	00a60963          	beq	a2,a0,1667a <_ZN20complex_dynamic_type3app17h88e5420801eda168E+0x16e>
   1666c:	0f300513          	li	a0,243
   16670:	45a1                	li	a1,8
   16672:	00009097          	auipc	ra,0x9
   16676:	532080e7          	jalr	1330(ra) # 1fba4 <_ZN9allow_pin12dynamic_type7unshare17hb27555f71d22f3b2E>
   1667a:	50b6                	lw	ra,108(sp)
   1667c:	5426                	lw	s0,104(sp)
   1667e:	5496                	lw	s1,100(sp)
   16680:	5906                	lw	s2,96(sp)
   16682:	49f6                	lw	s3,92(sp)
   16684:	6165                	addi	sp,sp,112
   16686:	8082                	ret

00016688 <_ZN20complex_dynamic_type3app17h89152cc672a93a7cE>:
   16688:	7159                	addi	sp,sp,-112
   1668a:	d686                	sw	ra,108(sp)
   1668c:	d4a2                	sw	s0,104(sp)
   1668e:	d2a6                	sw	s1,100(sp)
   16690:	d0ca                	sw	s2,96(sp)
   16692:	cece                	sw	s3,92(sp)
   16694:	892a                	mv	s2,a0
   16696:	4489                	li	s1,2
   16698:	00910223          	sb	s1,4(sp)
   1669c:	00510413          	addi	s0,sp,5
   166a0:	4649                	li	a2,18
   166a2:	8522                	mv	a0,s0
   166a4:	00009097          	auipc	ra,0x9
   166a8:	578080e7          	jalr	1400(ra) # 1fc1c <memcpy>
   166ac:	01810993          	addi	s3,sp,24
   166b0:	04400613          	li	a2,68
   166b4:	854e                	mv	a0,s3
   166b6:	4581                	li	a1,0
   166b8:	00009097          	auipc	ra,0x9
   166bc:	4f8080e7          	jalr	1272(ra) # 1fbb0 <memset>
   166c0:	8622                	mv	a2,s0
   166c2:	00910ba3          	sb	s1,23(sp)
   166c6:	6509                	lui	a0,0x2
   166c8:	4791                	li	a5,4
   166ca:	4589                	li	a1,2
   166cc:	43250513          	addi	a0,a0,1074 # 2432 <.Lline_table_start1+0x2207>
   166d0:	46c9                	li	a3,18
   166d2:	4711                	li	a4,4
   166d4:	00000073          	ecall
   166d8:	00950463          	beq	a0,s1,166e0 <_ZN20complex_dynamic_type3app17h89152cc672a93a7cE+0x58>
   166dc:	00f10223          	sb	a5,4(sp)
   166e0:	4609                	li	a2,2
   166e2:	00c51463          	bne	a0,a2,166ea <_ZN20complex_dynamic_type3app17h89152cc672a93a7cE+0x62>
   166e6:	4785                	li	a5,1
   166e8:	a859                	j	1677e <_ZN20complex_dynamic_type3app17h89152cc672a93a7cE+0xf6>
   166ea:	01714503          	lbu	a0,23(sp)
   166ee:	4785                	li	a5,1
   166f0:	02c51363          	bne	a0,a2,16716 <_ZN20complex_dynamic_type3app17h89152cc672a93a7cE+0x8e>
   166f4:	864e                	mv	a2,s3
   166f6:	6509                	lui	a0,0x2
   166f8:	45a5                	li	a1,9
   166fa:	04400693          	li	a3,68
   166fe:	470d                	li	a4,3
   16700:	43250513          	addi	a0,a0,1074 # 2432 <.Lline_table_start1+0x2207>
   16704:	4489                	li	s1,2
   16706:	00000073          	ecall
   1670a:	460d                	li	a2,3
   1670c:	00951963          	bne	a0,s1,1671e <_ZN20complex_dynamic_type3app17h89152cc672a93a7cE+0x96>
   16710:	4505                	li	a0,1
   16712:	c911                	beqz	a0,16726 <_ZN20complex_dynamic_type3app17h89152cc672a93a7cE+0x9e>
   16714:	a0ad                	j	1677e <_ZN20complex_dynamic_type3app17h89152cc672a93a7cE+0xf6>
   16716:	458d                	li	a1,3
   16718:	4505                	li	a0,1
   1671a:	c511                	beqz	a0,16726 <_ZN20complex_dynamic_type3app17h89152cc672a93a7cE+0x9e>
   1671c:	a08d                	j	1677e <_ZN20complex_dynamic_type3app17h89152cc672a93a7cE+0xf6>
   1671e:	4501                	li	a0,0
   16720:	00c10ba3          	sb	a2,23(sp)
   16724:	ed29                	bnez	a0,1677e <_ZN20complex_dynamic_type3app17h89152cc672a93a7cE+0xf6>
   16726:	4681                	li	a3,0
   16728:	6509                	lui	a0,0x2
   1672a:	4589                	li	a1,2
   1672c:	4625                	li	a2,9
   1672e:	4709                	li	a4,2
   16730:	43250513          	addi	a0,a0,1074 # 2432 <.Lline_table_start1+0x2207>
   16734:	07f00493          	li	s1,127
   16738:	00000073          	ecall
   1673c:	4689                	li	a3,2
   1673e:	04a4f063          	bgeu	s1,a0,1677e <_ZN20complex_dynamic_type3app17h89152cc672a93a7cE+0xf6>
   16742:	00414603          	lbu	a2,4(sp)
   16746:	00d60a63          	beq	a2,a3,1675a <_ZN20complex_dynamic_type3app17h89152cc672a93a7cE+0xd2>
   1674a:	6509                	lui	a0,0x2
   1674c:	43250513          	addi	a0,a0,1074 # 2432 <.Lline_table_start1+0x2207>
   16750:	4589                	li	a1,2
   16752:	00009097          	auipc	ra,0x9
   16756:	452080e7          	jalr	1106(ra) # 1fba4 <_ZN9allow_pin12dynamic_type7unshare17hb27555f71d22f3b2E>
   1675a:	01714603          	lbu	a2,23(sp)
   1675e:	4409                	li	s0,2
   16760:	00810223          	sb	s0,4(sp)
   16764:	00860a63          	beq	a2,s0,16778 <_ZN20complex_dynamic_type3app17h89152cc672a93a7cE+0xf0>
   16768:	6509                	lui	a0,0x2
   1676a:	43250513          	addi	a0,a0,1074 # 2432 <.Lline_table_start1+0x2207>
   1676e:	45a5                	li	a1,9
   16770:	00009097          	auipc	ra,0x9
   16774:	434080e7          	jalr	1076(ra) # 1fba4 <_ZN9allow_pin12dynamic_type7unshare17hb27555f71d22f3b2E>
   16778:	4781                	li	a5,0
   1677a:	00810ba3          	sb	s0,23(sp)
   1677e:	cb85                	beqz	a5,167ae <_ZN20complex_dynamic_type3app17h89152cc672a93a7cE+0x126>
   16780:	01714603          	lbu	a2,23(sp)
   16784:	4505                	li	a0,1
   16786:	4409                	li	s0,2
   16788:	00a90023          	sb	a0,0(s2)
   1678c:	00b92223          	sw	a1,4(s2)
   16790:	00860a63          	beq	a2,s0,167a4 <_ZN20complex_dynamic_type3app17h89152cc672a93a7cE+0x11c>
   16794:	6509                	lui	a0,0x2
   16796:	43250513          	addi	a0,a0,1074 # 2432 <.Lline_table_start1+0x2207>
   1679a:	45a5                	li	a1,9
   1679c:	00009097          	auipc	ra,0x9
   167a0:	408080e7          	jalr	1032(ra) # 1fba4 <_ZN9allow_pin12dynamic_type7unshare17hb27555f71d22f3b2E>
   167a4:	00414603          	lbu	a2,4(sp)
   167a8:	04861763          	bne	a2,s0,167f6 <_ZN20complex_dynamic_type3app17h89152cc672a93a7cE+0x16e>
   167ac:	a8a9                	j	16806 <_ZN20complex_dynamic_type3app17h89152cc672a93a7cE+0x17e>
   167ae:	01714403          	lbu	s0,23(sp)
   167b2:	4489                	li	s1,2
   167b4:	00940663          	beq	s0,s1,167c0 <_ZN20complex_dynamic_type3app17h89152cc672a93a7cE+0x138>
   167b8:	000119b7          	lui	s3,0x11
   167bc:	afc98993          	addi	s3,s3,-1284 # 10afc <.Lanon.49c9f8067fe4468184af16d7576940c9.52>
   167c0:	00190513          	addi	a0,s2,1
   167c4:	04400613          	li	a2,68
   167c8:	85ce                	mv	a1,s3
   167ca:	00009097          	auipc	ra,0x9
   167ce:	452080e7          	jalr	1106(ra) # 1fc1c <memcpy>
   167d2:	00090023          	sb	zero,0(s2)
   167d6:	00940b63          	beq	s0,s1,167ec <_ZN20complex_dynamic_type3app17h89152cc672a93a7cE+0x164>
   167da:	6509                	lui	a0,0x2
   167dc:	43250513          	addi	a0,a0,1074 # 2432 <.Lline_table_start1+0x2207>
   167e0:	45a5                	li	a1,9
   167e2:	8622                	mv	a2,s0
   167e4:	00009097          	auipc	ra,0x9
   167e8:	3c0080e7          	jalr	960(ra) # 1fba4 <_ZN9allow_pin12dynamic_type7unshare17hb27555f71d22f3b2E>
   167ec:	00414603          	lbu	a2,4(sp)
   167f0:	4509                	li	a0,2
   167f2:	00a60a63          	beq	a2,a0,16806 <_ZN20complex_dynamic_type3app17h89152cc672a93a7cE+0x17e>
   167f6:	6509                	lui	a0,0x2
   167f8:	43250513          	addi	a0,a0,1074 # 2432 <.Lline_table_start1+0x2207>
   167fc:	4589                	li	a1,2
   167fe:	00009097          	auipc	ra,0x9
   16802:	3a6080e7          	jalr	934(ra) # 1fba4 <_ZN9allow_pin12dynamic_type7unshare17hb27555f71d22f3b2E>
   16806:	50b6                	lw	ra,108(sp)
   16808:	5426                	lw	s0,104(sp)
   1680a:	5496                	lw	s1,100(sp)
   1680c:	5906                	lw	s2,96(sp)
   1680e:	49f6                	lw	s3,92(sp)
   16810:	6165                	addi	sp,sp,112
   16812:	8082                	ret

00016814 <_ZN20complex_dynamic_type3app17h8bab89584e4e2649E>:
   16814:	7159                	addi	sp,sp,-112
   16816:	d686                	sw	ra,108(sp)
   16818:	d4a2                	sw	s0,104(sp)
   1681a:	d2a6                	sw	s1,100(sp)
   1681c:	d0ca                	sw	s2,96(sp)
   1681e:	cece                	sw	s3,92(sp)
   16820:	892a                	mv	s2,a0
   16822:	4489                	li	s1,2
   16824:	00910423          	sb	s1,8(sp)
   16828:	00910413          	addi	s0,sp,9
   1682c:	02a00613          	li	a2,42
   16830:	8522                	mv	a0,s0
   16832:	00009097          	auipc	ra,0x9
   16836:	3ea080e7          	jalr	1002(ra) # 1fc1c <memcpy>
   1683a:	03410993          	addi	s3,sp,52
   1683e:	02800613          	li	a2,40
   16842:	854e                	mv	a0,s3
   16844:	4581                	li	a1,0
   16846:	00009097          	auipc	ra,0x9
   1684a:	36a080e7          	jalr	874(ra) # 1fbb0 <memset>
   1684e:	8622                	mv	a2,s0
   16850:	029109a3          	sb	s1,51(sp)
   16854:	6509                	lui	a0,0x2
   16856:	4791                	li	a5,4
   16858:	4591                	li	a1,4
   1685a:	efa50513          	addi	a0,a0,-262 # 1efa <.Lline_table_start1+0x1ccf>
   1685e:	02a00693          	li	a3,42
   16862:	4711                	li	a4,4
   16864:	00000073          	ecall
   16868:	00950463          	beq	a0,s1,16870 <_ZN20complex_dynamic_type3app17h8bab89584e4e2649E+0x5c>
   1686c:	00f10423          	sb	a5,8(sp)
   16870:	4609                	li	a2,2
   16872:	00c51463          	bne	a0,a2,1687a <_ZN20complex_dynamic_type3app17h8bab89584e4e2649E+0x66>
   16876:	4785                	li	a5,1
   16878:	a859                	j	1690e <_ZN20complex_dynamic_type3app17h8bab89584e4e2649E+0xfa>
   1687a:	03314503          	lbu	a0,51(sp)
   1687e:	4785                	li	a5,1
   16880:	02c51363          	bne	a0,a2,168a6 <_ZN20complex_dynamic_type3app17h8bab89584e4e2649E+0x92>
   16884:	864e                	mv	a2,s3
   16886:	6509                	lui	a0,0x2
   16888:	45a1                	li	a1,8
   1688a:	02800693          	li	a3,40
   1688e:	470d                	li	a4,3
   16890:	efa50513          	addi	a0,a0,-262 # 1efa <.Lline_table_start1+0x1ccf>
   16894:	4489                	li	s1,2
   16896:	00000073          	ecall
   1689a:	460d                	li	a2,3
   1689c:	00951963          	bne	a0,s1,168ae <_ZN20complex_dynamic_type3app17h8bab89584e4e2649E+0x9a>
   168a0:	4505                	li	a0,1
   168a2:	c911                	beqz	a0,168b6 <_ZN20complex_dynamic_type3app17h8bab89584e4e2649E+0xa2>
   168a4:	a0ad                	j	1690e <_ZN20complex_dynamic_type3app17h8bab89584e4e2649E+0xfa>
   168a6:	458d                	li	a1,3
   168a8:	4505                	li	a0,1
   168aa:	c511                	beqz	a0,168b6 <_ZN20complex_dynamic_type3app17h8bab89584e4e2649E+0xa2>
   168ac:	a08d                	j	1690e <_ZN20complex_dynamic_type3app17h8bab89584e4e2649E+0xfa>
   168ae:	4501                	li	a0,0
   168b0:	02c109a3          	sb	a2,51(sp)
   168b4:	ed29                	bnez	a0,1690e <_ZN20complex_dynamic_type3app17h8bab89584e4e2649E+0xfa>
   168b6:	4681                	li	a3,0
   168b8:	6509                	lui	a0,0x2
   168ba:	4591                	li	a1,4
   168bc:	4621                	li	a2,8
   168be:	4709                	li	a4,2
   168c0:	efa50513          	addi	a0,a0,-262 # 1efa <.Lline_table_start1+0x1ccf>
   168c4:	07f00493          	li	s1,127
   168c8:	00000073          	ecall
   168cc:	4689                	li	a3,2
   168ce:	04a4f063          	bgeu	s1,a0,1690e <_ZN20complex_dynamic_type3app17h8bab89584e4e2649E+0xfa>
   168d2:	00814603          	lbu	a2,8(sp)
   168d6:	00d60a63          	beq	a2,a3,168ea <_ZN20complex_dynamic_type3app17h8bab89584e4e2649E+0xd6>
   168da:	6509                	lui	a0,0x2
   168dc:	efa50513          	addi	a0,a0,-262 # 1efa <.Lline_table_start1+0x1ccf>
   168e0:	4591                	li	a1,4
   168e2:	00009097          	auipc	ra,0x9
   168e6:	2c2080e7          	jalr	706(ra) # 1fba4 <_ZN9allow_pin12dynamic_type7unshare17hb27555f71d22f3b2E>
   168ea:	03314603          	lbu	a2,51(sp)
   168ee:	4409                	li	s0,2
   168f0:	00810423          	sb	s0,8(sp)
   168f4:	00860a63          	beq	a2,s0,16908 <_ZN20complex_dynamic_type3app17h8bab89584e4e2649E+0xf4>
   168f8:	6509                	lui	a0,0x2
   168fa:	efa50513          	addi	a0,a0,-262 # 1efa <.Lline_table_start1+0x1ccf>
   168fe:	45a1                	li	a1,8
   16900:	00009097          	auipc	ra,0x9
   16904:	2a4080e7          	jalr	676(ra) # 1fba4 <_ZN9allow_pin12dynamic_type7unshare17hb27555f71d22f3b2E>
   16908:	4781                	li	a5,0
   1690a:	028109a3          	sb	s0,51(sp)
   1690e:	cb85                	beqz	a5,1693e <_ZN20complex_dynamic_type3app17h8bab89584e4e2649E+0x12a>
   16910:	03314603          	lbu	a2,51(sp)
   16914:	4505                	li	a0,1
   16916:	4409                	li	s0,2
   16918:	00a90023          	sb	a0,0(s2)
   1691c:	00b92223          	sw	a1,4(s2)
   16920:	00860a63          	beq	a2,s0,16934 <_ZN20complex_dynamic_type3app17h8bab89584e4e2649E+0x120>
   16924:	6509                	lui	a0,0x2
   16926:	efa50513          	addi	a0,a0,-262 # 1efa <.Lline_table_start1+0x1ccf>
   1692a:	45a1                	li	a1,8
   1692c:	00009097          	auipc	ra,0x9
   16930:	278080e7          	jalr	632(ra) # 1fba4 <_ZN9allow_pin12dynamic_type7unshare17hb27555f71d22f3b2E>
   16934:	00814603          	lbu	a2,8(sp)
   16938:	04861763          	bne	a2,s0,16986 <_ZN20complex_dynamic_type3app17h8bab89584e4e2649E+0x172>
   1693c:	a8a9                	j	16996 <_ZN20complex_dynamic_type3app17h8bab89584e4e2649E+0x182>
   1693e:	03314403          	lbu	s0,51(sp)
   16942:	4489                	li	s1,2
   16944:	00940663          	beq	s0,s1,16950 <_ZN20complex_dynamic_type3app17h8bab89584e4e2649E+0x13c>
   16948:	000119b7          	lui	s3,0x11
   1694c:	ad498993          	addi	s3,s3,-1324 # 10ad4 <.Lanon.49c9f8067fe4468184af16d7576940c9.51>
   16950:	00190513          	addi	a0,s2,1
   16954:	02800613          	li	a2,40
   16958:	85ce                	mv	a1,s3
   1695a:	00009097          	auipc	ra,0x9
   1695e:	2c2080e7          	jalr	706(ra) # 1fc1c <memcpy>
   16962:	00090023          	sb	zero,0(s2)
   16966:	00940b63          	beq	s0,s1,1697c <_ZN20complex_dynamic_type3app17h8bab89584e4e2649E+0x168>
   1696a:	6509                	lui	a0,0x2
   1696c:	efa50513          	addi	a0,a0,-262 # 1efa <.Lline_table_start1+0x1ccf>
   16970:	45a1                	li	a1,8
   16972:	8622                	mv	a2,s0
   16974:	00009097          	auipc	ra,0x9
   16978:	230080e7          	jalr	560(ra) # 1fba4 <_ZN9allow_pin12dynamic_type7unshare17hb27555f71d22f3b2E>
   1697c:	00814603          	lbu	a2,8(sp)
   16980:	4509                	li	a0,2
   16982:	00a60a63          	beq	a2,a0,16996 <_ZN20complex_dynamic_type3app17h8bab89584e4e2649E+0x182>
   16986:	6509                	lui	a0,0x2
   16988:	efa50513          	addi	a0,a0,-262 # 1efa <.Lline_table_start1+0x1ccf>
   1698c:	4591                	li	a1,4
   1698e:	00009097          	auipc	ra,0x9
   16992:	216080e7          	jalr	534(ra) # 1fba4 <_ZN9allow_pin12dynamic_type7unshare17hb27555f71d22f3b2E>
   16996:	50b6                	lw	ra,108(sp)
   16998:	5426                	lw	s0,104(sp)
   1699a:	5496                	lw	s1,100(sp)
   1699c:	5906                	lw	s2,96(sp)
   1699e:	49f6                	lw	s3,92(sp)
   169a0:	6165                	addi	sp,sp,112
   169a2:	8082                	ret

000169a4 <_ZN20complex_dynamic_type3app17h903680ab7ed2dc8cE>:
   169a4:	7131                	addi	sp,sp,-192
   169a6:	df06                	sw	ra,188(sp)
   169a8:	dd22                	sw	s0,184(sp)
   169aa:	db26                	sw	s1,180(sp)
   169ac:	d94a                	sw	s2,176(sp)
   169ae:	d74e                	sw	s3,172(sp)
   169b0:	892a                	mv	s2,a0
   169b2:	4489                	li	s1,2
   169b4:	00910723          	sb	s1,14(sp)
   169b8:	00f10413          	addi	s0,sp,15
   169bc:	04600613          	li	a2,70
   169c0:	8522                	mv	a0,s0
   169c2:	00009097          	auipc	ra,0x9
   169c6:	25a080e7          	jalr	602(ra) # 1fc1c <memcpy>
   169ca:	05610993          	addi	s3,sp,86
   169ce:	05600613          	li	a2,86
   169d2:	854e                	mv	a0,s3
   169d4:	4581                	li	a1,0
   169d6:	00009097          	auipc	ra,0x9
   169da:	1da080e7          	jalr	474(ra) # 1fbb0 <memset>
   169de:	8622                	mv	a2,s0
   169e0:	04910aa3          	sb	s1,85(sp)
   169e4:	6509                	lui	a0,0x2
   169e6:	4791                	li	a5,4
   169e8:	459d                	li	a1,7
   169ea:	e5050513          	addi	a0,a0,-432 # 1e50 <.Lline_table_start1+0x1c25>
   169ee:	04600693          	li	a3,70
   169f2:	4711                	li	a4,4
   169f4:	00000073          	ecall
   169f8:	00950463          	beq	a0,s1,16a00 <_ZN20complex_dynamic_type3app17h903680ab7ed2dc8cE+0x5c>
   169fc:	00f10723          	sb	a5,14(sp)
   16a00:	4609                	li	a2,2
   16a02:	00c51463          	bne	a0,a2,16a0a <_ZN20complex_dynamic_type3app17h903680ab7ed2dc8cE+0x66>
   16a06:	4785                	li	a5,1
   16a08:	a859                	j	16a9e <_ZN20complex_dynamic_type3app17h903680ab7ed2dc8cE+0xfa>
   16a0a:	05514503          	lbu	a0,85(sp)
   16a0e:	4785                	li	a5,1
   16a10:	02c51363          	bne	a0,a2,16a36 <_ZN20complex_dynamic_type3app17h903680ab7ed2dc8cE+0x92>
   16a14:	864e                	mv	a2,s3
   16a16:	6509                	lui	a0,0x2
   16a18:	458d                	li	a1,3
   16a1a:	05600693          	li	a3,86
   16a1e:	470d                	li	a4,3
   16a20:	e5050513          	addi	a0,a0,-432 # 1e50 <.Lline_table_start1+0x1c25>
   16a24:	4489                	li	s1,2
   16a26:	00000073          	ecall
   16a2a:	460d                	li	a2,3
   16a2c:	00951963          	bne	a0,s1,16a3e <_ZN20complex_dynamic_type3app17h903680ab7ed2dc8cE+0x9a>
   16a30:	4505                	li	a0,1
   16a32:	c911                	beqz	a0,16a46 <_ZN20complex_dynamic_type3app17h903680ab7ed2dc8cE+0xa2>
   16a34:	a0ad                	j	16a9e <_ZN20complex_dynamic_type3app17h903680ab7ed2dc8cE+0xfa>
   16a36:	458d                	li	a1,3
   16a38:	4505                	li	a0,1
   16a3a:	c511                	beqz	a0,16a46 <_ZN20complex_dynamic_type3app17h903680ab7ed2dc8cE+0xa2>
   16a3c:	a08d                	j	16a9e <_ZN20complex_dynamic_type3app17h903680ab7ed2dc8cE+0xfa>
   16a3e:	4501                	li	a0,0
   16a40:	04c10aa3          	sb	a2,85(sp)
   16a44:	ed29                	bnez	a0,16a9e <_ZN20complex_dynamic_type3app17h903680ab7ed2dc8cE+0xfa>
   16a46:	4681                	li	a3,0
   16a48:	6509                	lui	a0,0x2
   16a4a:	459d                	li	a1,7
   16a4c:	460d                	li	a2,3
   16a4e:	4709                	li	a4,2
   16a50:	e5050513          	addi	a0,a0,-432 # 1e50 <.Lline_table_start1+0x1c25>
   16a54:	07f00493          	li	s1,127
   16a58:	00000073          	ecall
   16a5c:	4689                	li	a3,2
   16a5e:	04a4f063          	bgeu	s1,a0,16a9e <_ZN20complex_dynamic_type3app17h903680ab7ed2dc8cE+0xfa>
   16a62:	00e14603          	lbu	a2,14(sp)
   16a66:	00d60a63          	beq	a2,a3,16a7a <_ZN20complex_dynamic_type3app17h903680ab7ed2dc8cE+0xd6>
   16a6a:	6509                	lui	a0,0x2
   16a6c:	e5050513          	addi	a0,a0,-432 # 1e50 <.Lline_table_start1+0x1c25>
   16a70:	459d                	li	a1,7
   16a72:	00009097          	auipc	ra,0x9
   16a76:	132080e7          	jalr	306(ra) # 1fba4 <_ZN9allow_pin12dynamic_type7unshare17hb27555f71d22f3b2E>
   16a7a:	05514603          	lbu	a2,85(sp)
   16a7e:	4409                	li	s0,2
   16a80:	00810723          	sb	s0,14(sp)
   16a84:	00860a63          	beq	a2,s0,16a98 <_ZN20complex_dynamic_type3app17h903680ab7ed2dc8cE+0xf4>
   16a88:	6509                	lui	a0,0x2
   16a8a:	e5050513          	addi	a0,a0,-432 # 1e50 <.Lline_table_start1+0x1c25>
   16a8e:	458d                	li	a1,3
   16a90:	00009097          	auipc	ra,0x9
   16a94:	114080e7          	jalr	276(ra) # 1fba4 <_ZN9allow_pin12dynamic_type7unshare17hb27555f71d22f3b2E>
   16a98:	4781                	li	a5,0
   16a9a:	04810aa3          	sb	s0,85(sp)
   16a9e:	cb85                	beqz	a5,16ace <_ZN20complex_dynamic_type3app17h903680ab7ed2dc8cE+0x12a>
   16aa0:	05514603          	lbu	a2,85(sp)
   16aa4:	4505                	li	a0,1
   16aa6:	4409                	li	s0,2
   16aa8:	00a90023          	sb	a0,0(s2)
   16aac:	00b92223          	sw	a1,4(s2)
   16ab0:	00860a63          	beq	a2,s0,16ac4 <_ZN20complex_dynamic_type3app17h903680ab7ed2dc8cE+0x120>
   16ab4:	6509                	lui	a0,0x2
   16ab6:	e5050513          	addi	a0,a0,-432 # 1e50 <.Lline_table_start1+0x1c25>
   16aba:	458d                	li	a1,3
   16abc:	00009097          	auipc	ra,0x9
   16ac0:	0e8080e7          	jalr	232(ra) # 1fba4 <_ZN9allow_pin12dynamic_type7unshare17hb27555f71d22f3b2E>
   16ac4:	00e14603          	lbu	a2,14(sp)
   16ac8:	04861763          	bne	a2,s0,16b16 <_ZN20complex_dynamic_type3app17h903680ab7ed2dc8cE+0x172>
   16acc:	a8a9                	j	16b26 <_ZN20complex_dynamic_type3app17h903680ab7ed2dc8cE+0x182>
   16ace:	05514403          	lbu	s0,85(sp)
   16ad2:	4489                	li	s1,2
   16ad4:	00940663          	beq	s0,s1,16ae0 <_ZN20complex_dynamic_type3app17h903680ab7ed2dc8cE+0x13c>
   16ad8:	000109b7          	lui	s3,0x10
   16adc:	5b398993          	addi	s3,s3,1459 # 105b3 <.Lanon.49c9f8067fe4468184af16d7576940c9.26>
   16ae0:	00190513          	addi	a0,s2,1
   16ae4:	05600613          	li	a2,86
   16ae8:	85ce                	mv	a1,s3
   16aea:	00009097          	auipc	ra,0x9
   16aee:	132080e7          	jalr	306(ra) # 1fc1c <memcpy>
   16af2:	00090023          	sb	zero,0(s2)
   16af6:	00940b63          	beq	s0,s1,16b0c <_ZN20complex_dynamic_type3app17h903680ab7ed2dc8cE+0x168>
   16afa:	6509                	lui	a0,0x2
   16afc:	e5050513          	addi	a0,a0,-432 # 1e50 <.Lline_table_start1+0x1c25>
   16b00:	458d                	li	a1,3
   16b02:	8622                	mv	a2,s0
   16b04:	00009097          	auipc	ra,0x9
   16b08:	0a0080e7          	jalr	160(ra) # 1fba4 <_ZN9allow_pin12dynamic_type7unshare17hb27555f71d22f3b2E>
   16b0c:	00e14603          	lbu	a2,14(sp)
   16b10:	4509                	li	a0,2
   16b12:	00a60a63          	beq	a2,a0,16b26 <_ZN20complex_dynamic_type3app17h903680ab7ed2dc8cE+0x182>
   16b16:	6509                	lui	a0,0x2
   16b18:	e5050513          	addi	a0,a0,-432 # 1e50 <.Lline_table_start1+0x1c25>
   16b1c:	459d                	li	a1,7
   16b1e:	00009097          	auipc	ra,0x9
   16b22:	086080e7          	jalr	134(ra) # 1fba4 <_ZN9allow_pin12dynamic_type7unshare17hb27555f71d22f3b2E>
   16b26:	50fa                	lw	ra,188(sp)
   16b28:	546a                	lw	s0,184(sp)
   16b2a:	54da                	lw	s1,180(sp)
   16b2c:	594a                	lw	s2,176(sp)
   16b2e:	59ba                	lw	s3,172(sp)
   16b30:	6129                	addi	sp,sp,192
   16b32:	8082                	ret

00016b34 <_ZN20complex_dynamic_type3app17h9370d595f813cecbE>:
   16b34:	7159                	addi	sp,sp,-112
   16b36:	d686                	sw	ra,108(sp)
   16b38:	d4a2                	sw	s0,104(sp)
   16b3a:	d2a6                	sw	s1,100(sp)
   16b3c:	d0ca                	sw	s2,96(sp)
   16b3e:	cece                	sw	s3,92(sp)
   16b40:	892a                	mv	s2,a0
   16b42:	4489                	li	s1,2
   16b44:	00910523          	sb	s1,10(sp)
   16b48:	00b10413          	addi	s0,sp,11
   16b4c:	4645                	li	a2,17
   16b4e:	8522                	mv	a0,s0
   16b50:	00009097          	auipc	ra,0x9
   16b54:	0cc080e7          	jalr	204(ra) # 1fc1c <memcpy>
   16b58:	01d10993          	addi	s3,sp,29
   16b5c:	03f00613          	li	a2,63
   16b60:	854e                	mv	a0,s3
   16b62:	4581                	li	a1,0
   16b64:	00009097          	auipc	ra,0x9
   16b68:	04c080e7          	jalr	76(ra) # 1fbb0 <memset>
   16b6c:	8622                	mv	a2,s0
   16b6e:	00910e23          	sb	s1,28(sp)
   16b72:	6505                	lui	a0,0x1
   16b74:	4791                	li	a5,4
   16b76:	459d                	li	a1,7
   16b78:	cb050513          	addi	a0,a0,-848 # cb0 <.Lline_table_start1+0xa85>
   16b7c:	46c5                	li	a3,17
   16b7e:	4711                	li	a4,4
   16b80:	00000073          	ecall
   16b84:	00950463          	beq	a0,s1,16b8c <_ZN20complex_dynamic_type3app17h9370d595f813cecbE+0x58>
   16b88:	00f10523          	sb	a5,10(sp)
   16b8c:	4609                	li	a2,2
   16b8e:	00c51463          	bne	a0,a2,16b96 <_ZN20complex_dynamic_type3app17h9370d595f813cecbE+0x62>
   16b92:	4785                	li	a5,1
   16b94:	a859                	j	16c2a <_ZN20complex_dynamic_type3app17h9370d595f813cecbE+0xf6>
   16b96:	01c14503          	lbu	a0,28(sp)
   16b9a:	4785                	li	a5,1
   16b9c:	02c51363          	bne	a0,a2,16bc2 <_ZN20complex_dynamic_type3app17h9370d595f813cecbE+0x8e>
   16ba0:	864e                	mv	a2,s3
   16ba2:	6505                	lui	a0,0x1
   16ba4:	4591                	li	a1,4
   16ba6:	03f00693          	li	a3,63
   16baa:	470d                	li	a4,3
   16bac:	cb050513          	addi	a0,a0,-848 # cb0 <.Lline_table_start1+0xa85>
   16bb0:	4489                	li	s1,2
   16bb2:	00000073          	ecall
   16bb6:	460d                	li	a2,3
   16bb8:	00951963          	bne	a0,s1,16bca <_ZN20complex_dynamic_type3app17h9370d595f813cecbE+0x96>
   16bbc:	4505                	li	a0,1
   16bbe:	c911                	beqz	a0,16bd2 <_ZN20complex_dynamic_type3app17h9370d595f813cecbE+0x9e>
   16bc0:	a0ad                	j	16c2a <_ZN20complex_dynamic_type3app17h9370d595f813cecbE+0xf6>
   16bc2:	458d                	li	a1,3
   16bc4:	4505                	li	a0,1
   16bc6:	c511                	beqz	a0,16bd2 <_ZN20complex_dynamic_type3app17h9370d595f813cecbE+0x9e>
   16bc8:	a08d                	j	16c2a <_ZN20complex_dynamic_type3app17h9370d595f813cecbE+0xf6>
   16bca:	4501                	li	a0,0
   16bcc:	00c10e23          	sb	a2,28(sp)
   16bd0:	ed29                	bnez	a0,16c2a <_ZN20complex_dynamic_type3app17h9370d595f813cecbE+0xf6>
   16bd2:	4681                	li	a3,0
   16bd4:	6505                	lui	a0,0x1
   16bd6:	459d                	li	a1,7
   16bd8:	4611                	li	a2,4
   16bda:	4709                	li	a4,2
   16bdc:	cb050513          	addi	a0,a0,-848 # cb0 <.Lline_table_start1+0xa85>
   16be0:	07f00493          	li	s1,127
   16be4:	00000073          	ecall
   16be8:	4689                	li	a3,2
   16bea:	04a4f063          	bgeu	s1,a0,16c2a <_ZN20complex_dynamic_type3app17h9370d595f813cecbE+0xf6>
   16bee:	00a14603          	lbu	a2,10(sp)
   16bf2:	00d60a63          	beq	a2,a3,16c06 <_ZN20complex_dynamic_type3app17h9370d595f813cecbE+0xd2>
   16bf6:	6505                	lui	a0,0x1
   16bf8:	cb050513          	addi	a0,a0,-848 # cb0 <.Lline_table_start1+0xa85>
   16bfc:	459d                	li	a1,7
   16bfe:	00009097          	auipc	ra,0x9
   16c02:	fa6080e7          	jalr	-90(ra) # 1fba4 <_ZN9allow_pin12dynamic_type7unshare17hb27555f71d22f3b2E>
   16c06:	01c14603          	lbu	a2,28(sp)
   16c0a:	4409                	li	s0,2
   16c0c:	00810523          	sb	s0,10(sp)
   16c10:	00860a63          	beq	a2,s0,16c24 <_ZN20complex_dynamic_type3app17h9370d595f813cecbE+0xf0>
   16c14:	6505                	lui	a0,0x1
   16c16:	cb050513          	addi	a0,a0,-848 # cb0 <.Lline_table_start1+0xa85>
   16c1a:	4591                	li	a1,4
   16c1c:	00009097          	auipc	ra,0x9
   16c20:	f88080e7          	jalr	-120(ra) # 1fba4 <_ZN9allow_pin12dynamic_type7unshare17hb27555f71d22f3b2E>
   16c24:	4781                	li	a5,0
   16c26:	00810e23          	sb	s0,28(sp)
   16c2a:	cb85                	beqz	a5,16c5a <_ZN20complex_dynamic_type3app17h9370d595f813cecbE+0x126>
   16c2c:	01c14603          	lbu	a2,28(sp)
   16c30:	4505                	li	a0,1
   16c32:	4409                	li	s0,2
   16c34:	00a90023          	sb	a0,0(s2)
   16c38:	00b92223          	sw	a1,4(s2)
   16c3c:	00860a63          	beq	a2,s0,16c50 <_ZN20complex_dynamic_type3app17h9370d595f813cecbE+0x11c>
   16c40:	6505                	lui	a0,0x1
   16c42:	cb050513          	addi	a0,a0,-848 # cb0 <.Lline_table_start1+0xa85>
   16c46:	4591                	li	a1,4
   16c48:	00009097          	auipc	ra,0x9
   16c4c:	f5c080e7          	jalr	-164(ra) # 1fba4 <_ZN9allow_pin12dynamic_type7unshare17hb27555f71d22f3b2E>
   16c50:	00a14603          	lbu	a2,10(sp)
   16c54:	04861763          	bne	a2,s0,16ca2 <_ZN20complex_dynamic_type3app17h9370d595f813cecbE+0x16e>
   16c58:	a8a9                	j	16cb2 <_ZN20complex_dynamic_type3app17h9370d595f813cecbE+0x17e>
   16c5a:	01c14403          	lbu	s0,28(sp)
   16c5e:	4489                	li	s1,2
   16c60:	00940663          	beq	s0,s1,16c6c <_ZN20complex_dynamic_type3app17h9370d595f813cecbE+0x138>
   16c64:	000119b7          	lui	s3,0x11
   16c68:	8c898993          	addi	s3,s3,-1848 # 108c8 <.Lanon.49c9f8067fe4468184af16d7576940c9.41>
   16c6c:	00190513          	addi	a0,s2,1
   16c70:	03f00613          	li	a2,63
   16c74:	85ce                	mv	a1,s3
   16c76:	00009097          	auipc	ra,0x9
   16c7a:	fa6080e7          	jalr	-90(ra) # 1fc1c <memcpy>
   16c7e:	00090023          	sb	zero,0(s2)
   16c82:	00940b63          	beq	s0,s1,16c98 <_ZN20complex_dynamic_type3app17h9370d595f813cecbE+0x164>
   16c86:	6505                	lui	a0,0x1
   16c88:	cb050513          	addi	a0,a0,-848 # cb0 <.Lline_table_start1+0xa85>
   16c8c:	4591                	li	a1,4
   16c8e:	8622                	mv	a2,s0
   16c90:	00009097          	auipc	ra,0x9
   16c94:	f14080e7          	jalr	-236(ra) # 1fba4 <_ZN9allow_pin12dynamic_type7unshare17hb27555f71d22f3b2E>
   16c98:	00a14603          	lbu	a2,10(sp)
   16c9c:	4509                	li	a0,2
   16c9e:	00a60a63          	beq	a2,a0,16cb2 <_ZN20complex_dynamic_type3app17h9370d595f813cecbE+0x17e>
   16ca2:	6505                	lui	a0,0x1
   16ca4:	cb050513          	addi	a0,a0,-848 # cb0 <.Lline_table_start1+0xa85>
   16ca8:	459d                	li	a1,7
   16caa:	00009097          	auipc	ra,0x9
   16cae:	efa080e7          	jalr	-262(ra) # 1fba4 <_ZN9allow_pin12dynamic_type7unshare17hb27555f71d22f3b2E>
   16cb2:	50b6                	lw	ra,108(sp)
   16cb4:	5426                	lw	s0,104(sp)
   16cb6:	5496                	lw	s1,100(sp)
   16cb8:	5906                	lw	s2,96(sp)
   16cba:	49f6                	lw	s3,92(sp)
   16cbc:	6165                	addi	sp,sp,112
   16cbe:	8082                	ret

00016cc0 <_ZN20complex_dynamic_type3app17h94aa98822020799bE>:
   16cc0:	7119                	addi	sp,sp,-128
   16cc2:	de86                	sw	ra,124(sp)
   16cc4:	dca2                	sw	s0,120(sp)
   16cc6:	daa6                	sw	s1,116(sp)
   16cc8:	d8ca                	sw	s2,112(sp)
   16cca:	d6ce                	sw	s3,108(sp)
   16ccc:	892a                	mv	s2,a0
   16cce:	4489                	li	s1,2
   16cd0:	00910023          	sb	s1,0(sp)
   16cd4:	00110413          	addi	s0,sp,1
   16cd8:	03600613          	li	a2,54
   16cdc:	8522                	mv	a0,s0
   16cde:	00009097          	auipc	ra,0x9
   16ce2:	f3e080e7          	jalr	-194(ra) # 1fc1c <memcpy>
   16ce6:	03810993          	addi	s3,sp,56
   16cea:	03400613          	li	a2,52
   16cee:	854e                	mv	a0,s3
   16cf0:	4581                	li	a1,0
   16cf2:	00009097          	auipc	ra,0x9
   16cf6:	ebe080e7          	jalr	-322(ra) # 1fbb0 <memset>
   16cfa:	8622                	mv	a2,s0
   16cfc:	02910ba3          	sb	s1,55(sp)
   16d00:	6509                	lui	a0,0x2
   16d02:	4791                	li	a5,4
   16d04:	4591                	li	a1,4
   16d06:	3c650513          	addi	a0,a0,966 # 23c6 <.Lline_table_start1+0x219b>
   16d0a:	03600693          	li	a3,54
   16d0e:	4711                	li	a4,4
   16d10:	00000073          	ecall
   16d14:	00950463          	beq	a0,s1,16d1c <_ZN20complex_dynamic_type3app17h94aa98822020799bE+0x5c>
   16d18:	00f10023          	sb	a5,0(sp)
   16d1c:	4609                	li	a2,2
   16d1e:	00c51463          	bne	a0,a2,16d26 <_ZN20complex_dynamic_type3app17h94aa98822020799bE+0x66>
   16d22:	4785                	li	a5,1
   16d24:	a859                	j	16dba <_ZN20complex_dynamic_type3app17h94aa98822020799bE+0xfa>
   16d26:	03714503          	lbu	a0,55(sp)
   16d2a:	4785                	li	a5,1
   16d2c:	02c51363          	bne	a0,a2,16d52 <_ZN20complex_dynamic_type3app17h94aa98822020799bE+0x92>
   16d30:	864e                	mv	a2,s3
   16d32:	6509                	lui	a0,0x2
   16d34:	4409                	li	s0,2
   16d36:	448d                	li	s1,3
   16d38:	4589                	li	a1,2
   16d3a:	3c650513          	addi	a0,a0,966 # 23c6 <.Lline_table_start1+0x219b>
   16d3e:	03400693          	li	a3,52
   16d42:	470d                	li	a4,3
   16d44:	00000073          	ecall
   16d48:	00851963          	bne	a0,s0,16d5a <_ZN20complex_dynamic_type3app17h94aa98822020799bE+0x9a>
   16d4c:	4505                	li	a0,1
   16d4e:	c911                	beqz	a0,16d62 <_ZN20complex_dynamic_type3app17h94aa98822020799bE+0xa2>
   16d50:	a0ad                	j	16dba <_ZN20complex_dynamic_type3app17h94aa98822020799bE+0xfa>
   16d52:	458d                	li	a1,3
   16d54:	4505                	li	a0,1
   16d56:	c511                	beqz	a0,16d62 <_ZN20complex_dynamic_type3app17h94aa98822020799bE+0xa2>
   16d58:	a08d                	j	16dba <_ZN20complex_dynamic_type3app17h94aa98822020799bE+0xfa>
   16d5a:	4501                	li	a0,0
   16d5c:	02910ba3          	sb	s1,55(sp)
   16d60:	ed29                	bnez	a0,16dba <_ZN20complex_dynamic_type3app17h94aa98822020799bE+0xfa>
   16d62:	4681                	li	a3,0
   16d64:	6509                	lui	a0,0x2
   16d66:	4591                	li	a1,4
   16d68:	4609                	li	a2,2
   16d6a:	4709                	li	a4,2
   16d6c:	3c650513          	addi	a0,a0,966 # 23c6 <.Lline_table_start1+0x219b>
   16d70:	07f00493          	li	s1,127
   16d74:	00000073          	ecall
   16d78:	4689                	li	a3,2
   16d7a:	04a4f063          	bgeu	s1,a0,16dba <_ZN20complex_dynamic_type3app17h94aa98822020799bE+0xfa>
   16d7e:	00014603          	lbu	a2,0(sp)
   16d82:	00d60a63          	beq	a2,a3,16d96 <_ZN20complex_dynamic_type3app17h94aa98822020799bE+0xd6>
   16d86:	6509                	lui	a0,0x2
   16d88:	3c650513          	addi	a0,a0,966 # 23c6 <.Lline_table_start1+0x219b>
   16d8c:	4591                	li	a1,4
   16d8e:	00009097          	auipc	ra,0x9
   16d92:	e16080e7          	jalr	-490(ra) # 1fba4 <_ZN9allow_pin12dynamic_type7unshare17hb27555f71d22f3b2E>
   16d96:	03714603          	lbu	a2,55(sp)
   16d9a:	4409                	li	s0,2
   16d9c:	00810023          	sb	s0,0(sp)
   16da0:	00860a63          	beq	a2,s0,16db4 <_ZN20complex_dynamic_type3app17h94aa98822020799bE+0xf4>
   16da4:	6509                	lui	a0,0x2
   16da6:	3c650513          	addi	a0,a0,966 # 23c6 <.Lline_table_start1+0x219b>
   16daa:	4589                	li	a1,2
   16dac:	00009097          	auipc	ra,0x9
   16db0:	df8080e7          	jalr	-520(ra) # 1fba4 <_ZN9allow_pin12dynamic_type7unshare17hb27555f71d22f3b2E>
   16db4:	4781                	li	a5,0
   16db6:	02810ba3          	sb	s0,55(sp)
   16dba:	cb85                	beqz	a5,16dea <_ZN20complex_dynamic_type3app17h94aa98822020799bE+0x12a>
   16dbc:	03714603          	lbu	a2,55(sp)
   16dc0:	4505                	li	a0,1
   16dc2:	4409                	li	s0,2
   16dc4:	00a90023          	sb	a0,0(s2)
   16dc8:	00b92223          	sw	a1,4(s2)
   16dcc:	00860a63          	beq	a2,s0,16de0 <_ZN20complex_dynamic_type3app17h94aa98822020799bE+0x120>
   16dd0:	6509                	lui	a0,0x2
   16dd2:	3c650513          	addi	a0,a0,966 # 23c6 <.Lline_table_start1+0x219b>
   16dd6:	4589                	li	a1,2
   16dd8:	00009097          	auipc	ra,0x9
   16ddc:	dcc080e7          	jalr	-564(ra) # 1fba4 <_ZN9allow_pin12dynamic_type7unshare17hb27555f71d22f3b2E>
   16de0:	00014603          	lbu	a2,0(sp)
   16de4:	04861763          	bne	a2,s0,16e32 <_ZN20complex_dynamic_type3app17h94aa98822020799bE+0x172>
   16de8:	a8a9                	j	16e42 <_ZN20complex_dynamic_type3app17h94aa98822020799bE+0x182>
   16dea:	03714403          	lbu	s0,55(sp)
   16dee:	4489                	li	s1,2
   16df0:	00940663          	beq	s0,s1,16dfc <_ZN20complex_dynamic_type3app17h94aa98822020799bE+0x13c>
   16df4:	000119b7          	lui	s3,0x11
   16df8:	97d98993          	addi	s3,s3,-1667 # 1097d <.Lanon.49c9f8067fe4468184af16d7576940c9.45>
   16dfc:	00190513          	addi	a0,s2,1
   16e00:	03400613          	li	a2,52
   16e04:	85ce                	mv	a1,s3
   16e06:	00009097          	auipc	ra,0x9
   16e0a:	e16080e7          	jalr	-490(ra) # 1fc1c <memcpy>
   16e0e:	00090023          	sb	zero,0(s2)
   16e12:	00940b63          	beq	s0,s1,16e28 <_ZN20complex_dynamic_type3app17h94aa98822020799bE+0x168>
   16e16:	6509                	lui	a0,0x2
   16e18:	3c650513          	addi	a0,a0,966 # 23c6 <.Lline_table_start1+0x219b>
   16e1c:	4589                	li	a1,2
   16e1e:	8622                	mv	a2,s0
   16e20:	00009097          	auipc	ra,0x9
   16e24:	d84080e7          	jalr	-636(ra) # 1fba4 <_ZN9allow_pin12dynamic_type7unshare17hb27555f71d22f3b2E>
   16e28:	00014603          	lbu	a2,0(sp)
   16e2c:	4509                	li	a0,2
   16e2e:	00a60a63          	beq	a2,a0,16e42 <_ZN20complex_dynamic_type3app17h94aa98822020799bE+0x182>
   16e32:	6509                	lui	a0,0x2
   16e34:	3c650513          	addi	a0,a0,966 # 23c6 <.Lline_table_start1+0x219b>
   16e38:	4591                	li	a1,4
   16e3a:	00009097          	auipc	ra,0x9
   16e3e:	d6a080e7          	jalr	-662(ra) # 1fba4 <_ZN9allow_pin12dynamic_type7unshare17hb27555f71d22f3b2E>
   16e42:	50f6                	lw	ra,124(sp)
   16e44:	5466                	lw	s0,120(sp)
   16e46:	54d6                	lw	s1,116(sp)
   16e48:	5946                	lw	s2,112(sp)
   16e4a:	59b6                	lw	s3,108(sp)
   16e4c:	6109                	addi	sp,sp,128
   16e4e:	8082                	ret

00016e50 <_ZN20complex_dynamic_type3app17h996a9e5b26bf1f18E>:
   16e50:	7159                	addi	sp,sp,-112
   16e52:	d686                	sw	ra,108(sp)
   16e54:	d4a2                	sw	s0,104(sp)
   16e56:	d2a6                	sw	s1,100(sp)
   16e58:	d0ca                	sw	s2,96(sp)
   16e5a:	cece                	sw	s3,92(sp)
   16e5c:	892a                	mv	s2,a0
   16e5e:	4489                	li	s1,2
   16e60:	009101a3          	sb	s1,3(sp)
   16e64:	0040                	addi	s0,sp,4
   16e66:	04800613          	li	a2,72
   16e6a:	8522                	mv	a0,s0
   16e6c:	00009097          	auipc	ra,0x9
   16e70:	db0080e7          	jalr	-592(ra) # 1fc1c <memcpy>
   16e74:	04d10993          	addi	s3,sp,77
   16e78:	463d                	li	a2,15
   16e7a:	854e                	mv	a0,s3
   16e7c:	4581                	li	a1,0
   16e7e:	00009097          	auipc	ra,0x9
   16e82:	d32080e7          	jalr	-718(ra) # 1fbb0 <memset>
   16e86:	8622                	mv	a2,s0
   16e88:	04910623          	sb	s1,76(sp)
   16e8c:	6505                	lui	a0,0x1
   16e8e:	4791                	li	a5,4
   16e90:	45a1                	li	a1,8
   16e92:	11d50513          	addi	a0,a0,285 # 111d <.Lline_table_start1+0xef2>
   16e96:	04800693          	li	a3,72
   16e9a:	4711                	li	a4,4
   16e9c:	00000073          	ecall
   16ea0:	00950463          	beq	a0,s1,16ea8 <_ZN20complex_dynamic_type3app17h996a9e5b26bf1f18E+0x58>
   16ea4:	00f101a3          	sb	a5,3(sp)
   16ea8:	4609                	li	a2,2
   16eaa:	00c51463          	bne	a0,a2,16eb2 <_ZN20complex_dynamic_type3app17h996a9e5b26bf1f18E+0x62>
   16eae:	4785                	li	a5,1
   16eb0:	a851                	j	16f44 <_ZN20complex_dynamic_type3app17h996a9e5b26bf1f18E+0xf4>
   16eb2:	04c14503          	lbu	a0,76(sp)
   16eb6:	4785                	li	a5,1
   16eb8:	02c51263          	bne	a0,a2,16edc <_ZN20complex_dynamic_type3app17h996a9e5b26bf1f18E+0x8c>
   16ebc:	864e                	mv	a2,s3
   16ebe:	6505                	lui	a0,0x1
   16ec0:	45a5                	li	a1,9
   16ec2:	46bd                	li	a3,15
   16ec4:	470d                	li	a4,3
   16ec6:	11d50513          	addi	a0,a0,285 # 111d <.Lline_table_start1+0xef2>
   16eca:	4489                	li	s1,2
   16ecc:	00000073          	ecall
   16ed0:	460d                	li	a2,3
   16ed2:	00951963          	bne	a0,s1,16ee4 <_ZN20complex_dynamic_type3app17h996a9e5b26bf1f18E+0x94>
   16ed6:	4505                	li	a0,1
   16ed8:	c911                	beqz	a0,16eec <_ZN20complex_dynamic_type3app17h996a9e5b26bf1f18E+0x9c>
   16eda:	a0ad                	j	16f44 <_ZN20complex_dynamic_type3app17h996a9e5b26bf1f18E+0xf4>
   16edc:	458d                	li	a1,3
   16ede:	4505                	li	a0,1
   16ee0:	c511                	beqz	a0,16eec <_ZN20complex_dynamic_type3app17h996a9e5b26bf1f18E+0x9c>
   16ee2:	a08d                	j	16f44 <_ZN20complex_dynamic_type3app17h996a9e5b26bf1f18E+0xf4>
   16ee4:	4501                	li	a0,0
   16ee6:	04c10623          	sb	a2,76(sp)
   16eea:	ed29                	bnez	a0,16f44 <_ZN20complex_dynamic_type3app17h996a9e5b26bf1f18E+0xf4>
   16eec:	4681                	li	a3,0
   16eee:	6505                	lui	a0,0x1
   16ef0:	45a1                	li	a1,8
   16ef2:	4625                	li	a2,9
   16ef4:	4709                	li	a4,2
   16ef6:	11d50513          	addi	a0,a0,285 # 111d <.Lline_table_start1+0xef2>
   16efa:	07f00493          	li	s1,127
   16efe:	00000073          	ecall
   16f02:	4689                	li	a3,2
   16f04:	04a4f063          	bgeu	s1,a0,16f44 <_ZN20complex_dynamic_type3app17h996a9e5b26bf1f18E+0xf4>
   16f08:	00314603          	lbu	a2,3(sp)
   16f0c:	00d60a63          	beq	a2,a3,16f20 <_ZN20complex_dynamic_type3app17h996a9e5b26bf1f18E+0xd0>
   16f10:	6505                	lui	a0,0x1
   16f12:	11d50513          	addi	a0,a0,285 # 111d <.Lline_table_start1+0xef2>
   16f16:	45a1                	li	a1,8
   16f18:	00009097          	auipc	ra,0x9
   16f1c:	c8c080e7          	jalr	-884(ra) # 1fba4 <_ZN9allow_pin12dynamic_type7unshare17hb27555f71d22f3b2E>
   16f20:	04c14603          	lbu	a2,76(sp)
   16f24:	4409                	li	s0,2
   16f26:	008101a3          	sb	s0,3(sp)
   16f2a:	00860a63          	beq	a2,s0,16f3e <_ZN20complex_dynamic_type3app17h996a9e5b26bf1f18E+0xee>
   16f2e:	6505                	lui	a0,0x1
   16f30:	11d50513          	addi	a0,a0,285 # 111d <.Lline_table_start1+0xef2>
   16f34:	45a5                	li	a1,9
   16f36:	00009097          	auipc	ra,0x9
   16f3a:	c6e080e7          	jalr	-914(ra) # 1fba4 <_ZN9allow_pin12dynamic_type7unshare17hb27555f71d22f3b2E>
   16f3e:	4781                	li	a5,0
   16f40:	04810623          	sb	s0,76(sp)
   16f44:	cb85                	beqz	a5,16f74 <_ZN20complex_dynamic_type3app17h996a9e5b26bf1f18E+0x124>
   16f46:	04c14603          	lbu	a2,76(sp)
   16f4a:	4505                	li	a0,1
   16f4c:	4409                	li	s0,2
   16f4e:	00a90023          	sb	a0,0(s2)
   16f52:	00b92223          	sw	a1,4(s2)
   16f56:	00860a63          	beq	a2,s0,16f6a <_ZN20complex_dynamic_type3app17h996a9e5b26bf1f18E+0x11a>
   16f5a:	6505                	lui	a0,0x1
   16f5c:	11d50513          	addi	a0,a0,285 # 111d <.Lline_table_start1+0xef2>
   16f60:	45a5                	li	a1,9
   16f62:	00009097          	auipc	ra,0x9
   16f66:	c42080e7          	jalr	-958(ra) # 1fba4 <_ZN9allow_pin12dynamic_type7unshare17hb27555f71d22f3b2E>
   16f6a:	00314603          	lbu	a2,3(sp)
   16f6e:	04861663          	bne	a2,s0,16fba <_ZN20complex_dynamic_type3app17h996a9e5b26bf1f18E+0x16a>
   16f72:	a8a1                	j	16fca <_ZN20complex_dynamic_type3app17h996a9e5b26bf1f18E+0x17a>
   16f74:	04c14403          	lbu	s0,76(sp)
   16f78:	4489                	li	s1,2
   16f7a:	00940663          	beq	s0,s1,16f86 <_ZN20complex_dynamic_type3app17h996a9e5b26bf1f18E+0x136>
   16f7e:	000109b7          	lui	s3,0x10
   16f82:	16c98993          	addi	s3,s3,364 # 1016c <.Lanon.49c9f8067fe4468184af16d7576940c9.4>
   16f86:	00190513          	addi	a0,s2,1
   16f8a:	463d                	li	a2,15
   16f8c:	85ce                	mv	a1,s3
   16f8e:	00009097          	auipc	ra,0x9
   16f92:	c8e080e7          	jalr	-882(ra) # 1fc1c <memcpy>
   16f96:	00090023          	sb	zero,0(s2)
   16f9a:	00940b63          	beq	s0,s1,16fb0 <_ZN20complex_dynamic_type3app17h996a9e5b26bf1f18E+0x160>
   16f9e:	6505                	lui	a0,0x1
   16fa0:	11d50513          	addi	a0,a0,285 # 111d <.Lline_table_start1+0xef2>
   16fa4:	45a5                	li	a1,9
   16fa6:	8622                	mv	a2,s0
   16fa8:	00009097          	auipc	ra,0x9
   16fac:	bfc080e7          	jalr	-1028(ra) # 1fba4 <_ZN9allow_pin12dynamic_type7unshare17hb27555f71d22f3b2E>
   16fb0:	00314603          	lbu	a2,3(sp)
   16fb4:	4509                	li	a0,2
   16fb6:	00a60a63          	beq	a2,a0,16fca <_ZN20complex_dynamic_type3app17h996a9e5b26bf1f18E+0x17a>
   16fba:	6505                	lui	a0,0x1
   16fbc:	11d50513          	addi	a0,a0,285 # 111d <.Lline_table_start1+0xef2>
   16fc0:	45a1                	li	a1,8
   16fc2:	00009097          	auipc	ra,0x9
   16fc6:	be2080e7          	jalr	-1054(ra) # 1fba4 <_ZN9allow_pin12dynamic_type7unshare17hb27555f71d22f3b2E>
   16fca:	50b6                	lw	ra,108(sp)
   16fcc:	5426                	lw	s0,104(sp)
   16fce:	5496                	lw	s1,100(sp)
   16fd0:	5906                	lw	s2,96(sp)
   16fd2:	49f6                	lw	s3,92(sp)
   16fd4:	6165                	addi	sp,sp,112
   16fd6:	8082                	ret

00016fd8 <_ZN20complex_dynamic_type3app17ha0aed980b3d4cde6E>:
   16fd8:	7131                	addi	sp,sp,-192
   16fda:	df06                	sw	ra,188(sp)
   16fdc:	dd22                	sw	s0,184(sp)
   16fde:	db26                	sw	s1,180(sp)
   16fe0:	d94a                	sw	s2,176(sp)
   16fe2:	d74e                	sw	s3,172(sp)
   16fe4:	892a                	mv	s2,a0
   16fe6:	4489                	li	s1,2
   16fe8:	009105a3          	sb	s1,11(sp)
   16fec:	0060                	addi	s0,sp,12
   16fee:	05600613          	li	a2,86
   16ff2:	8522                	mv	a0,s0
   16ff4:	00009097          	auipc	ra,0x9
   16ff8:	c28080e7          	jalr	-984(ra) # 1fc1c <memcpy>
   16ffc:	06310993          	addi	s3,sp,99
   17000:	04900613          	li	a2,73
   17004:	854e                	mv	a0,s3
   17006:	4581                	li	a1,0
   17008:	00009097          	auipc	ra,0x9
   1700c:	ba8080e7          	jalr	-1112(ra) # 1fbb0 <memset>
   17010:	8622                	mv	a2,s0
   17012:	06910123          	sb	s1,98(sp)
   17016:	6509                	lui	a0,0x2
   17018:	4791                	li	a5,4
   1701a:	4599                	li	a1,6
   1701c:	c6b50513          	addi	a0,a0,-917 # 1c6b <.Lline_table_start1+0x1a40>
   17020:	05600693          	li	a3,86
   17024:	4711                	li	a4,4
   17026:	00000073          	ecall
   1702a:	00950463          	beq	a0,s1,17032 <_ZN20complex_dynamic_type3app17ha0aed980b3d4cde6E+0x5a>
   1702e:	00f105a3          	sb	a5,11(sp)
   17032:	4609                	li	a2,2
   17034:	00c51463          	bne	a0,a2,1703c <_ZN20complex_dynamic_type3app17ha0aed980b3d4cde6E+0x64>
   17038:	4785                	li	a5,1
   1703a:	a859                	j	170d0 <_ZN20complex_dynamic_type3app17ha0aed980b3d4cde6E+0xf8>
   1703c:	06214503          	lbu	a0,98(sp)
   17040:	4785                	li	a5,1
   17042:	02c51363          	bne	a0,a2,17068 <_ZN20complex_dynamic_type3app17ha0aed980b3d4cde6E+0x90>
   17046:	864e                	mv	a2,s3
   17048:	6509                	lui	a0,0x2
   1704a:	4599                	li	a1,6
   1704c:	04900693          	li	a3,73
   17050:	470d                	li	a4,3
   17052:	c6b50513          	addi	a0,a0,-917 # 1c6b <.Lline_table_start1+0x1a40>
   17056:	4489                	li	s1,2
   17058:	00000073          	ecall
   1705c:	460d                	li	a2,3
   1705e:	00951963          	bne	a0,s1,17070 <_ZN20complex_dynamic_type3app17ha0aed980b3d4cde6E+0x98>
   17062:	4505                	li	a0,1
   17064:	c911                	beqz	a0,17078 <_ZN20complex_dynamic_type3app17ha0aed980b3d4cde6E+0xa0>
   17066:	a0ad                	j	170d0 <_ZN20complex_dynamic_type3app17ha0aed980b3d4cde6E+0xf8>
   17068:	458d                	li	a1,3
   1706a:	4505                	li	a0,1
   1706c:	c511                	beqz	a0,17078 <_ZN20complex_dynamic_type3app17ha0aed980b3d4cde6E+0xa0>
   1706e:	a08d                	j	170d0 <_ZN20complex_dynamic_type3app17ha0aed980b3d4cde6E+0xf8>
   17070:	4501                	li	a0,0
   17072:	06c10123          	sb	a2,98(sp)
   17076:	ed29                	bnez	a0,170d0 <_ZN20complex_dynamic_type3app17ha0aed980b3d4cde6E+0xf8>
   17078:	4681                	li	a3,0
   1707a:	6509                	lui	a0,0x2
   1707c:	4599                	li	a1,6
   1707e:	4619                	li	a2,6
   17080:	4709                	li	a4,2
   17082:	c6b50513          	addi	a0,a0,-917 # 1c6b <.Lline_table_start1+0x1a40>
   17086:	07f00493          	li	s1,127
   1708a:	00000073          	ecall
   1708e:	4689                	li	a3,2
   17090:	04a4f063          	bgeu	s1,a0,170d0 <_ZN20complex_dynamic_type3app17ha0aed980b3d4cde6E+0xf8>
   17094:	00b14603          	lbu	a2,11(sp)
   17098:	00d60a63          	beq	a2,a3,170ac <_ZN20complex_dynamic_type3app17ha0aed980b3d4cde6E+0xd4>
   1709c:	6509                	lui	a0,0x2
   1709e:	c6b50513          	addi	a0,a0,-917 # 1c6b <.Lline_table_start1+0x1a40>
   170a2:	4599                	li	a1,6
   170a4:	00009097          	auipc	ra,0x9
   170a8:	b00080e7          	jalr	-1280(ra) # 1fba4 <_ZN9allow_pin12dynamic_type7unshare17hb27555f71d22f3b2E>
   170ac:	06214603          	lbu	a2,98(sp)
   170b0:	4409                	li	s0,2
   170b2:	008105a3          	sb	s0,11(sp)
   170b6:	00860a63          	beq	a2,s0,170ca <_ZN20complex_dynamic_type3app17ha0aed980b3d4cde6E+0xf2>
   170ba:	6509                	lui	a0,0x2
   170bc:	c6b50513          	addi	a0,a0,-917 # 1c6b <.Lline_table_start1+0x1a40>
   170c0:	4599                	li	a1,6
   170c2:	00009097          	auipc	ra,0x9
   170c6:	ae2080e7          	jalr	-1310(ra) # 1fba4 <_ZN9allow_pin12dynamic_type7unshare17hb27555f71d22f3b2E>
   170ca:	4781                	li	a5,0
   170cc:	06810123          	sb	s0,98(sp)
   170d0:	cb85                	beqz	a5,17100 <_ZN20complex_dynamic_type3app17ha0aed980b3d4cde6E+0x128>
   170d2:	06214603          	lbu	a2,98(sp)
   170d6:	4505                	li	a0,1
   170d8:	4409                	li	s0,2
   170da:	00a90023          	sb	a0,0(s2)
   170de:	00b92223          	sw	a1,4(s2)
   170e2:	00860a63          	beq	a2,s0,170f6 <_ZN20complex_dynamic_type3app17ha0aed980b3d4cde6E+0x11e>
   170e6:	6509                	lui	a0,0x2
   170e8:	c6b50513          	addi	a0,a0,-917 # 1c6b <.Lline_table_start1+0x1a40>
   170ec:	4599                	li	a1,6
   170ee:	00009097          	auipc	ra,0x9
   170f2:	ab6080e7          	jalr	-1354(ra) # 1fba4 <_ZN9allow_pin12dynamic_type7unshare17hb27555f71d22f3b2E>
   170f6:	00b14603          	lbu	a2,11(sp)
   170fa:	04861763          	bne	a2,s0,17148 <_ZN20complex_dynamic_type3app17ha0aed980b3d4cde6E+0x170>
   170fe:	a8a9                	j	17158 <_ZN20complex_dynamic_type3app17ha0aed980b3d4cde6E+0x180>
   17100:	06214403          	lbu	s0,98(sp)
   17104:	4489                	li	s1,2
   17106:	00940663          	beq	s0,s1,17112 <_ZN20complex_dynamic_type3app17ha0aed980b3d4cde6E+0x13a>
   1710a:	000109b7          	lui	s3,0x10
   1710e:	69998993          	addi	s3,s3,1689 # 10699 <.Lanon.49c9f8067fe4468184af16d7576940c9.30>
   17112:	00190513          	addi	a0,s2,1
   17116:	04900613          	li	a2,73
   1711a:	85ce                	mv	a1,s3
   1711c:	00009097          	auipc	ra,0x9
   17120:	b00080e7          	jalr	-1280(ra) # 1fc1c <memcpy>
   17124:	00090023          	sb	zero,0(s2)
   17128:	00940b63          	beq	s0,s1,1713e <_ZN20complex_dynamic_type3app17ha0aed980b3d4cde6E+0x166>
   1712c:	6509                	lui	a0,0x2
   1712e:	c6b50513          	addi	a0,a0,-917 # 1c6b <.Lline_table_start1+0x1a40>
   17132:	4599                	li	a1,6
   17134:	8622                	mv	a2,s0
   17136:	00009097          	auipc	ra,0x9
   1713a:	a6e080e7          	jalr	-1426(ra) # 1fba4 <_ZN9allow_pin12dynamic_type7unshare17hb27555f71d22f3b2E>
   1713e:	00b14603          	lbu	a2,11(sp)
   17142:	4509                	li	a0,2
   17144:	00a60a63          	beq	a2,a0,17158 <_ZN20complex_dynamic_type3app17ha0aed980b3d4cde6E+0x180>
   17148:	6509                	lui	a0,0x2
   1714a:	c6b50513          	addi	a0,a0,-917 # 1c6b <.Lline_table_start1+0x1a40>
   1714e:	4599                	li	a1,6
   17150:	00009097          	auipc	ra,0x9
   17154:	a54080e7          	jalr	-1452(ra) # 1fba4 <_ZN9allow_pin12dynamic_type7unshare17hb27555f71d22f3b2E>
   17158:	50fa                	lw	ra,188(sp)
   1715a:	546a                	lw	s0,184(sp)
   1715c:	54da                	lw	s1,180(sp)
   1715e:	594a                	lw	s2,176(sp)
   17160:	59ba                	lw	s3,172(sp)
   17162:	6129                	addi	sp,sp,192
   17164:	8082                	ret

00017166 <_ZN20complex_dynamic_type3app17ha1d74b76bbb094d8E>:
   17166:	7119                	addi	sp,sp,-128
   17168:	de86                	sw	ra,124(sp)
   1716a:	dca2                	sw	s0,120(sp)
   1716c:	daa6                	sw	s1,116(sp)
   1716e:	d8ca                	sw	s2,112(sp)
   17170:	d6ce                	sw	s3,108(sp)
   17172:	892a                	mv	s2,a0
   17174:	4489                	li	s1,2
   17176:	009103a3          	sb	s1,7(sp)
   1717a:	0020                	addi	s0,sp,8
   1717c:	04100613          	li	a2,65
   17180:	8522                	mv	a0,s0
   17182:	00009097          	auipc	ra,0x9
   17186:	a9a080e7          	jalr	-1382(ra) # 1fc1c <memcpy>
   1718a:	04a10993          	addi	s3,sp,74
   1718e:	02200613          	li	a2,34
   17192:	854e                	mv	a0,s3
   17194:	4581                	li	a1,0
   17196:	00009097          	auipc	ra,0x9
   1719a:	a1a080e7          	jalr	-1510(ra) # 1fbb0 <memset>
   1719e:	8622                	mv	a2,s0
   171a0:	049104a3          	sb	s1,73(sp)
   171a4:	6509                	lui	a0,0x2
   171a6:	4791                	li	a5,4
   171a8:	4585                	li	a1,1
   171aa:	47c50513          	addi	a0,a0,1148 # 247c <.Lline_table_start1+0x2251>
   171ae:	04100693          	li	a3,65
   171b2:	4711                	li	a4,4
   171b4:	00000073          	ecall
   171b8:	00950463          	beq	a0,s1,171c0 <_ZN20complex_dynamic_type3app17ha1d74b76bbb094d8E+0x5a>
   171bc:	00f103a3          	sb	a5,7(sp)
   171c0:	4609                	li	a2,2
   171c2:	00c51463          	bne	a0,a2,171ca <_ZN20complex_dynamic_type3app17ha1d74b76bbb094d8E+0x64>
   171c6:	4785                	li	a5,1
   171c8:	a861                	j	17260 <_ZN20complex_dynamic_type3app17ha1d74b76bbb094d8E+0xfa>
   171ca:	04914503          	lbu	a0,73(sp)
   171ce:	4785                	li	a5,1
   171d0:	02c51363          	bne	a0,a2,171f6 <_ZN20complex_dynamic_type3app17ha1d74b76bbb094d8E+0x90>
   171d4:	4581                	li	a1,0
   171d6:	864e                	mv	a2,s3
   171d8:	6509                	lui	a0,0x2
   171da:	02200693          	li	a3,34
   171de:	470d                	li	a4,3
   171e0:	47c50513          	addi	a0,a0,1148 # 247c <.Lline_table_start1+0x2251>
   171e4:	4489                	li	s1,2
   171e6:	00000073          	ecall
   171ea:	460d                	li	a2,3
   171ec:	00951963          	bne	a0,s1,171fe <_ZN20complex_dynamic_type3app17ha1d74b76bbb094d8E+0x98>
   171f0:	4505                	li	a0,1
   171f2:	c911                	beqz	a0,17206 <_ZN20complex_dynamic_type3app17ha1d74b76bbb094d8E+0xa0>
   171f4:	a0b5                	j	17260 <_ZN20complex_dynamic_type3app17ha1d74b76bbb094d8E+0xfa>
   171f6:	458d                	li	a1,3
   171f8:	4505                	li	a0,1
   171fa:	c511                	beqz	a0,17206 <_ZN20complex_dynamic_type3app17ha1d74b76bbb094d8E+0xa0>
   171fc:	a095                	j	17260 <_ZN20complex_dynamic_type3app17ha1d74b76bbb094d8E+0xfa>
   171fe:	4501                	li	a0,0
   17200:	04c104a3          	sb	a2,73(sp)
   17204:	ed31                	bnez	a0,17260 <_ZN20complex_dynamic_type3app17ha1d74b76bbb094d8E+0xfa>
   17206:	4601                	li	a2,0
   17208:	4681                	li	a3,0
   1720a:	6509                	lui	a0,0x2
   1720c:	4785                	li	a5,1
   1720e:	4585                	li	a1,1
   17210:	4709                	li	a4,2
   17212:	47c50513          	addi	a0,a0,1148 # 247c <.Lline_table_start1+0x2251>
   17216:	07f00493          	li	s1,127
   1721a:	00000073          	ecall
   1721e:	4689                	li	a3,2
   17220:	04a4f063          	bgeu	s1,a0,17260 <_ZN20complex_dynamic_type3app17ha1d74b76bbb094d8E+0xfa>
   17224:	00714603          	lbu	a2,7(sp)
   17228:	00d60a63          	beq	a2,a3,1723c <_ZN20complex_dynamic_type3app17ha1d74b76bbb094d8E+0xd6>
   1722c:	6509                	lui	a0,0x2
   1722e:	47c50513          	addi	a0,a0,1148 # 247c <.Lline_table_start1+0x2251>
   17232:	4585                	li	a1,1
   17234:	00009097          	auipc	ra,0x9
   17238:	970080e7          	jalr	-1680(ra) # 1fba4 <_ZN9allow_pin12dynamic_type7unshare17hb27555f71d22f3b2E>
   1723c:	04914603          	lbu	a2,73(sp)
   17240:	4409                	li	s0,2
   17242:	008103a3          	sb	s0,7(sp)
   17246:	00860a63          	beq	a2,s0,1725a <_ZN20complex_dynamic_type3app17ha1d74b76bbb094d8E+0xf4>
   1724a:	6509                	lui	a0,0x2
   1724c:	47c50513          	addi	a0,a0,1148 # 247c <.Lline_table_start1+0x2251>
   17250:	4581                	li	a1,0
   17252:	00009097          	auipc	ra,0x9
   17256:	952080e7          	jalr	-1710(ra) # 1fba4 <_ZN9allow_pin12dynamic_type7unshare17hb27555f71d22f3b2E>
   1725a:	4781                	li	a5,0
   1725c:	048104a3          	sb	s0,73(sp)
   17260:	cb85                	beqz	a5,17290 <_ZN20complex_dynamic_type3app17ha1d74b76bbb094d8E+0x12a>
   17262:	04914603          	lbu	a2,73(sp)
   17266:	4505                	li	a0,1
   17268:	4409                	li	s0,2
   1726a:	00a90023          	sb	a0,0(s2)
   1726e:	00b92223          	sw	a1,4(s2)
   17272:	00860a63          	beq	a2,s0,17286 <_ZN20complex_dynamic_type3app17ha1d74b76bbb094d8E+0x120>
   17276:	6509                	lui	a0,0x2
   17278:	47c50513          	addi	a0,a0,1148 # 247c <.Lline_table_start1+0x2251>
   1727c:	4581                	li	a1,0
   1727e:	00009097          	auipc	ra,0x9
   17282:	926080e7          	jalr	-1754(ra) # 1fba4 <_ZN9allow_pin12dynamic_type7unshare17hb27555f71d22f3b2E>
   17286:	00714603          	lbu	a2,7(sp)
   1728a:	04861763          	bne	a2,s0,172d8 <_ZN20complex_dynamic_type3app17ha1d74b76bbb094d8E+0x172>
   1728e:	a8a9                	j	172e8 <_ZN20complex_dynamic_type3app17ha1d74b76bbb094d8E+0x182>
   17290:	04914403          	lbu	s0,73(sp)
   17294:	4489                	li	s1,2
   17296:	00940663          	beq	s0,s1,172a2 <_ZN20complex_dynamic_type3app17ha1d74b76bbb094d8E+0x13c>
   1729a:	000119b7          	lui	s3,0x11
   1729e:	90798993          	addi	s3,s3,-1785 # 10907 <.Lanon.49c9f8067fe4468184af16d7576940c9.42>
   172a2:	00190513          	addi	a0,s2,1
   172a6:	02200613          	li	a2,34
   172aa:	85ce                	mv	a1,s3
   172ac:	00009097          	auipc	ra,0x9
   172b0:	970080e7          	jalr	-1680(ra) # 1fc1c <memcpy>
   172b4:	00090023          	sb	zero,0(s2)
   172b8:	00940b63          	beq	s0,s1,172ce <_ZN20complex_dynamic_type3app17ha1d74b76bbb094d8E+0x168>
   172bc:	6509                	lui	a0,0x2
   172be:	47c50513          	addi	a0,a0,1148 # 247c <.Lline_table_start1+0x2251>
   172c2:	4581                	li	a1,0
   172c4:	8622                	mv	a2,s0
   172c6:	00009097          	auipc	ra,0x9
   172ca:	8de080e7          	jalr	-1826(ra) # 1fba4 <_ZN9allow_pin12dynamic_type7unshare17hb27555f71d22f3b2E>
   172ce:	00714603          	lbu	a2,7(sp)
   172d2:	4509                	li	a0,2
   172d4:	00a60a63          	beq	a2,a0,172e8 <_ZN20complex_dynamic_type3app17ha1d74b76bbb094d8E+0x182>
   172d8:	6509                	lui	a0,0x2
   172da:	47c50513          	addi	a0,a0,1148 # 247c <.Lline_table_start1+0x2251>
   172de:	4585                	li	a1,1
   172e0:	00009097          	auipc	ra,0x9
   172e4:	8c4080e7          	jalr	-1852(ra) # 1fba4 <_ZN9allow_pin12dynamic_type7unshare17hb27555f71d22f3b2E>
   172e8:	50f6                	lw	ra,124(sp)
   172ea:	5466                	lw	s0,120(sp)
   172ec:	54d6                	lw	s1,116(sp)
   172ee:	5946                	lw	s2,112(sp)
   172f0:	59b6                	lw	s3,108(sp)
   172f2:	6109                	addi	sp,sp,128
   172f4:	8082                	ret

000172f6 <_ZN20complex_dynamic_type3app17ha2774c123e7b2ee9E>:
   172f6:	7175                	addi	sp,sp,-144
   172f8:	c706                	sw	ra,140(sp)
   172fa:	c522                	sw	s0,136(sp)
   172fc:	c326                	sw	s1,132(sp)
   172fe:	c14a                	sw	s2,128(sp)
   17300:	dece                	sw	s3,124(sp)
   17302:	892a                	mv	s2,a0
   17304:	4489                	li	s1,2
   17306:	009103a3          	sb	s1,7(sp)
   1730a:	0020                	addi	s0,sp,8
   1730c:	03200613          	li	a2,50
   17310:	8522                	mv	a0,s0
   17312:	00009097          	auipc	ra,0x9
   17316:	90a080e7          	jalr	-1782(ra) # 1fc1c <memcpy>
   1731a:	03b10993          	addi	s3,sp,59
   1731e:	04100613          	li	a2,65
   17322:	854e                	mv	a0,s3
   17324:	4581                	li	a1,0
   17326:	00009097          	auipc	ra,0x9
   1732a:	88a080e7          	jalr	-1910(ra) # 1fbb0 <memset>
   1732e:	8622                	mv	a2,s0
   17330:	02910d23          	sb	s1,58(sp)
   17334:	6505                	lui	a0,0x1
   17336:	4791                	li	a5,4
   17338:	459d                	li	a1,7
   1733a:	91d50513          	addi	a0,a0,-1763 # 91d <.Lline_table_start1+0x6f2>
   1733e:	03200693          	li	a3,50
   17342:	4711                	li	a4,4
   17344:	00000073          	ecall
   17348:	00950463          	beq	a0,s1,17350 <_ZN20complex_dynamic_type3app17ha2774c123e7b2ee9E+0x5a>
   1734c:	00f103a3          	sb	a5,7(sp)
   17350:	4609                	li	a2,2
   17352:	00c51463          	bne	a0,a2,1735a <_ZN20complex_dynamic_type3app17ha2774c123e7b2ee9E+0x64>
   17356:	4785                	li	a5,1
   17358:	a859                	j	173ee <_ZN20complex_dynamic_type3app17ha2774c123e7b2ee9E+0xf8>
   1735a:	03a14503          	lbu	a0,58(sp)
   1735e:	4785                	li	a5,1
   17360:	02c51363          	bne	a0,a2,17386 <_ZN20complex_dynamic_type3app17ha2774c123e7b2ee9E+0x90>
   17364:	864e                	mv	a2,s3
   17366:	6505                	lui	a0,0x1
   17368:	4595                	li	a1,5
   1736a:	04100693          	li	a3,65
   1736e:	470d                	li	a4,3
   17370:	91d50513          	addi	a0,a0,-1763 # 91d <.Lline_table_start1+0x6f2>
   17374:	4489                	li	s1,2
   17376:	00000073          	ecall
   1737a:	460d                	li	a2,3
   1737c:	00951963          	bne	a0,s1,1738e <_ZN20complex_dynamic_type3app17ha2774c123e7b2ee9E+0x98>
   17380:	4505                	li	a0,1
   17382:	c911                	beqz	a0,17396 <_ZN20complex_dynamic_type3app17ha2774c123e7b2ee9E+0xa0>
   17384:	a0ad                	j	173ee <_ZN20complex_dynamic_type3app17ha2774c123e7b2ee9E+0xf8>
   17386:	458d                	li	a1,3
   17388:	4505                	li	a0,1
   1738a:	c511                	beqz	a0,17396 <_ZN20complex_dynamic_type3app17ha2774c123e7b2ee9E+0xa0>
   1738c:	a08d                	j	173ee <_ZN20complex_dynamic_type3app17ha2774c123e7b2ee9E+0xf8>
   1738e:	4501                	li	a0,0
   17390:	02c10d23          	sb	a2,58(sp)
   17394:	ed29                	bnez	a0,173ee <_ZN20complex_dynamic_type3app17ha2774c123e7b2ee9E+0xf8>
   17396:	4681                	li	a3,0
   17398:	6505                	lui	a0,0x1
   1739a:	459d                	li	a1,7
   1739c:	4615                	li	a2,5
   1739e:	4709                	li	a4,2
   173a0:	91d50513          	addi	a0,a0,-1763 # 91d <.Lline_table_start1+0x6f2>
   173a4:	07f00493          	li	s1,127
   173a8:	00000073          	ecall
   173ac:	4689                	li	a3,2
   173ae:	04a4f063          	bgeu	s1,a0,173ee <_ZN20complex_dynamic_type3app17ha2774c123e7b2ee9E+0xf8>
   173b2:	00714603          	lbu	a2,7(sp)
   173b6:	00d60a63          	beq	a2,a3,173ca <_ZN20complex_dynamic_type3app17ha2774c123e7b2ee9E+0xd4>
   173ba:	6505                	lui	a0,0x1
   173bc:	91d50513          	addi	a0,a0,-1763 # 91d <.Lline_table_start1+0x6f2>
   173c0:	459d                	li	a1,7
   173c2:	00008097          	auipc	ra,0x8
   173c6:	7e2080e7          	jalr	2018(ra) # 1fba4 <_ZN9allow_pin12dynamic_type7unshare17hb27555f71d22f3b2E>
   173ca:	03a14603          	lbu	a2,58(sp)
   173ce:	4409                	li	s0,2
   173d0:	008103a3          	sb	s0,7(sp)
   173d4:	00860a63          	beq	a2,s0,173e8 <_ZN20complex_dynamic_type3app17ha2774c123e7b2ee9E+0xf2>
   173d8:	6505                	lui	a0,0x1
   173da:	91d50513          	addi	a0,a0,-1763 # 91d <.Lline_table_start1+0x6f2>
   173de:	4595                	li	a1,5
   173e0:	00008097          	auipc	ra,0x8
   173e4:	7c4080e7          	jalr	1988(ra) # 1fba4 <_ZN9allow_pin12dynamic_type7unshare17hb27555f71d22f3b2E>
   173e8:	4781                	li	a5,0
   173ea:	02810d23          	sb	s0,58(sp)
   173ee:	cb85                	beqz	a5,1741e <_ZN20complex_dynamic_type3app17ha2774c123e7b2ee9E+0x128>
   173f0:	03a14603          	lbu	a2,58(sp)
   173f4:	4505                	li	a0,1
   173f6:	4409                	li	s0,2
   173f8:	00a90023          	sb	a0,0(s2)
   173fc:	00b92223          	sw	a1,4(s2)
   17400:	00860a63          	beq	a2,s0,17414 <_ZN20complex_dynamic_type3app17ha2774c123e7b2ee9E+0x11e>
   17404:	6505                	lui	a0,0x1
   17406:	91d50513          	addi	a0,a0,-1763 # 91d <.Lline_table_start1+0x6f2>
   1740a:	4595                	li	a1,5
   1740c:	00008097          	auipc	ra,0x8
   17410:	798080e7          	jalr	1944(ra) # 1fba4 <_ZN9allow_pin12dynamic_type7unshare17hb27555f71d22f3b2E>
   17414:	00714603          	lbu	a2,7(sp)
   17418:	04861763          	bne	a2,s0,17466 <_ZN20complex_dynamic_type3app17ha2774c123e7b2ee9E+0x170>
   1741c:	a8a9                	j	17476 <_ZN20complex_dynamic_type3app17ha2774c123e7b2ee9E+0x180>
   1741e:	03a14403          	lbu	s0,58(sp)
   17422:	4489                	li	s1,2
   17424:	00940663          	beq	s0,s1,17430 <_ZN20complex_dynamic_type3app17ha2774c123e7b2ee9E+0x13a>
   17428:	000109b7          	lui	s3,0x10
   1742c:	0fb98993          	addi	s3,s3,251 # 100fb <.Lanon.49c9f8067fe4468184af16d7576940c9.1>
   17430:	00190513          	addi	a0,s2,1
   17434:	04100613          	li	a2,65
   17438:	85ce                	mv	a1,s3
   1743a:	00008097          	auipc	ra,0x8
   1743e:	7e2080e7          	jalr	2018(ra) # 1fc1c <memcpy>
   17442:	00090023          	sb	zero,0(s2)
   17446:	00940b63          	beq	s0,s1,1745c <_ZN20complex_dynamic_type3app17ha2774c123e7b2ee9E+0x166>
   1744a:	6505                	lui	a0,0x1
   1744c:	91d50513          	addi	a0,a0,-1763 # 91d <.Lline_table_start1+0x6f2>
   17450:	4595                	li	a1,5
   17452:	8622                	mv	a2,s0
   17454:	00008097          	auipc	ra,0x8
   17458:	750080e7          	jalr	1872(ra) # 1fba4 <_ZN9allow_pin12dynamic_type7unshare17hb27555f71d22f3b2E>
   1745c:	00714603          	lbu	a2,7(sp)
   17460:	4509                	li	a0,2
   17462:	00a60a63          	beq	a2,a0,17476 <_ZN20complex_dynamic_type3app17ha2774c123e7b2ee9E+0x180>
   17466:	6505                	lui	a0,0x1
   17468:	91d50513          	addi	a0,a0,-1763 # 91d <.Lline_table_start1+0x6f2>
   1746c:	459d                	li	a1,7
   1746e:	00008097          	auipc	ra,0x8
   17472:	736080e7          	jalr	1846(ra) # 1fba4 <_ZN9allow_pin12dynamic_type7unshare17hb27555f71d22f3b2E>
   17476:	40ba                	lw	ra,140(sp)
   17478:	442a                	lw	s0,136(sp)
   1747a:	449a                	lw	s1,132(sp)
   1747c:	490a                	lw	s2,128(sp)
   1747e:	59f6                	lw	s3,124(sp)
   17480:	6149                	addi	sp,sp,144
   17482:	8082                	ret

00017484 <_ZN20complex_dynamic_type3app17ha3b9202d02eb2b60E>:
   17484:	711d                	addi	sp,sp,-96
   17486:	ce86                	sw	ra,92(sp)
   17488:	cca2                	sw	s0,88(sp)
   1748a:	caa6                	sw	s1,84(sp)
   1748c:	c8ca                	sw	s2,80(sp)
   1748e:	c6ce                	sw	s3,76(sp)
   17490:	892a                	mv	s2,a0
   17492:	4489                	li	s1,2
   17494:	00910223          	sb	s1,4(sp)
   17498:	00510413          	addi	s0,sp,5
   1749c:	4641                	li	a2,16
   1749e:	8522                	mv	a0,s0
   174a0:	00008097          	auipc	ra,0x8
   174a4:	77c080e7          	jalr	1916(ra) # 1fc1c <memcpy>
   174a8:	01610993          	addi	s3,sp,22
   174ac:	03600613          	li	a2,54
   174b0:	854e                	mv	a0,s3
   174b2:	4581                	li	a1,0
   174b4:	00008097          	auipc	ra,0x8
   174b8:	6fc080e7          	jalr	1788(ra) # 1fbb0 <memset>
   174bc:	8622                	mv	a2,s0
   174be:	00910aa3          	sb	s1,21(sp)
   174c2:	6509                	lui	a0,0x2
   174c4:	4791                	li	a5,4
   174c6:	4585                	li	a1,1
   174c8:	98950513          	addi	a0,a0,-1655 # 1989 <.Lline_table_start1+0x175e>
   174cc:	46c1                	li	a3,16
   174ce:	4711                	li	a4,4
   174d0:	00000073          	ecall
   174d4:	00950463          	beq	a0,s1,174dc <_ZN20complex_dynamic_type3app17ha3b9202d02eb2b60E+0x58>
   174d8:	00f10223          	sb	a5,4(sp)
   174dc:	4609                	li	a2,2
   174de:	00c51463          	bne	a0,a2,174e6 <_ZN20complex_dynamic_type3app17ha3b9202d02eb2b60E+0x62>
   174e2:	4785                	li	a5,1
   174e4:	a861                	j	1757c <_ZN20complex_dynamic_type3app17ha3b9202d02eb2b60E+0xf8>
   174e6:	01514503          	lbu	a0,21(sp)
   174ea:	4785                	li	a5,1
   174ec:	02c51363          	bne	a0,a2,17512 <_ZN20complex_dynamic_type3app17ha3b9202d02eb2b60E+0x8e>
   174f0:	864e                	mv	a2,s3
   174f2:	6509                	lui	a0,0x2
   174f4:	459d                	li	a1,7
   174f6:	03600693          	li	a3,54
   174fa:	470d                	li	a4,3
   174fc:	98950513          	addi	a0,a0,-1655 # 1989 <.Lline_table_start1+0x175e>
   17500:	4489                	li	s1,2
   17502:	00000073          	ecall
   17506:	460d                	li	a2,3
   17508:	00951963          	bne	a0,s1,1751a <_ZN20complex_dynamic_type3app17ha3b9202d02eb2b60E+0x96>
   1750c:	4505                	li	a0,1
   1750e:	c911                	beqz	a0,17522 <_ZN20complex_dynamic_type3app17ha3b9202d02eb2b60E+0x9e>
   17510:	a0b5                	j	1757c <_ZN20complex_dynamic_type3app17ha3b9202d02eb2b60E+0xf8>
   17512:	458d                	li	a1,3
   17514:	4505                	li	a0,1
   17516:	c511                	beqz	a0,17522 <_ZN20complex_dynamic_type3app17ha3b9202d02eb2b60E+0x9e>
   17518:	a095                	j	1757c <_ZN20complex_dynamic_type3app17ha3b9202d02eb2b60E+0xf8>
   1751a:	4501                	li	a0,0
   1751c:	00c10aa3          	sb	a2,21(sp)
   17520:	ed31                	bnez	a0,1757c <_ZN20complex_dynamic_type3app17ha3b9202d02eb2b60E+0xf8>
   17522:	4681                	li	a3,0
   17524:	6509                	lui	a0,0x2
   17526:	4785                	li	a5,1
   17528:	4585                	li	a1,1
   1752a:	461d                	li	a2,7
   1752c:	4709                	li	a4,2
   1752e:	98950513          	addi	a0,a0,-1655 # 1989 <.Lline_table_start1+0x175e>
   17532:	07f00493          	li	s1,127
   17536:	00000073          	ecall
   1753a:	4689                	li	a3,2
   1753c:	04a4f063          	bgeu	s1,a0,1757c <_ZN20complex_dynamic_type3app17ha3b9202d02eb2b60E+0xf8>
   17540:	00414603          	lbu	a2,4(sp)
   17544:	00d60a63          	beq	a2,a3,17558 <_ZN20complex_dynamic_type3app17ha3b9202d02eb2b60E+0xd4>
   17548:	6509                	lui	a0,0x2
   1754a:	98950513          	addi	a0,a0,-1655 # 1989 <.Lline_table_start1+0x175e>
   1754e:	4585                	li	a1,1
   17550:	00008097          	auipc	ra,0x8
   17554:	654080e7          	jalr	1620(ra) # 1fba4 <_ZN9allow_pin12dynamic_type7unshare17hb27555f71d22f3b2E>
   17558:	01514603          	lbu	a2,21(sp)
   1755c:	4409                	li	s0,2
   1755e:	00810223          	sb	s0,4(sp)
   17562:	00860a63          	beq	a2,s0,17576 <_ZN20complex_dynamic_type3app17ha3b9202d02eb2b60E+0xf2>
   17566:	6509                	lui	a0,0x2
   17568:	98950513          	addi	a0,a0,-1655 # 1989 <.Lline_table_start1+0x175e>
   1756c:	459d                	li	a1,7
   1756e:	00008097          	auipc	ra,0x8
   17572:	636080e7          	jalr	1590(ra) # 1fba4 <_ZN9allow_pin12dynamic_type7unshare17hb27555f71d22f3b2E>
   17576:	4781                	li	a5,0
   17578:	00810aa3          	sb	s0,21(sp)
   1757c:	cb85                	beqz	a5,175ac <_ZN20complex_dynamic_type3app17ha3b9202d02eb2b60E+0x128>
   1757e:	01514603          	lbu	a2,21(sp)
   17582:	4505                	li	a0,1
   17584:	4409                	li	s0,2
   17586:	00a90023          	sb	a0,0(s2)
   1758a:	00b92223          	sw	a1,4(s2)
   1758e:	00860a63          	beq	a2,s0,175a2 <_ZN20complex_dynamic_type3app17ha3b9202d02eb2b60E+0x11e>
   17592:	6509                	lui	a0,0x2
   17594:	98950513          	addi	a0,a0,-1655 # 1989 <.Lline_table_start1+0x175e>
   17598:	459d                	li	a1,7
   1759a:	00008097          	auipc	ra,0x8
   1759e:	60a080e7          	jalr	1546(ra) # 1fba4 <_ZN9allow_pin12dynamic_type7unshare17hb27555f71d22f3b2E>
   175a2:	00414603          	lbu	a2,4(sp)
   175a6:	04861763          	bne	a2,s0,175f4 <_ZN20complex_dynamic_type3app17ha3b9202d02eb2b60E+0x170>
   175aa:	a8a9                	j	17604 <_ZN20complex_dynamic_type3app17ha3b9202d02eb2b60E+0x180>
   175ac:	01514403          	lbu	s0,21(sp)
   175b0:	4489                	li	s1,2
   175b2:	00940663          	beq	s0,s1,175be <_ZN20complex_dynamic_type3app17ha3b9202d02eb2b60E+0x13a>
   175b6:	000109b7          	lui	s3,0x10
   175ba:	21798993          	addi	s3,s3,535 # 10217 <.Lanon.49c9f8067fe4468184af16d7576940c9.8>
   175be:	00190513          	addi	a0,s2,1
   175c2:	03600613          	li	a2,54
   175c6:	85ce                	mv	a1,s3
   175c8:	00008097          	auipc	ra,0x8
   175cc:	654080e7          	jalr	1620(ra) # 1fc1c <memcpy>
   175d0:	00090023          	sb	zero,0(s2)
   175d4:	00940b63          	beq	s0,s1,175ea <_ZN20complex_dynamic_type3app17ha3b9202d02eb2b60E+0x166>
   175d8:	6509                	lui	a0,0x2
   175da:	98950513          	addi	a0,a0,-1655 # 1989 <.Lline_table_start1+0x175e>
   175de:	459d                	li	a1,7
   175e0:	8622                	mv	a2,s0
   175e2:	00008097          	auipc	ra,0x8
   175e6:	5c2080e7          	jalr	1474(ra) # 1fba4 <_ZN9allow_pin12dynamic_type7unshare17hb27555f71d22f3b2E>
   175ea:	00414603          	lbu	a2,4(sp)
   175ee:	4509                	li	a0,2
   175f0:	00a60a63          	beq	a2,a0,17604 <_ZN20complex_dynamic_type3app17ha3b9202d02eb2b60E+0x180>
   175f4:	6509                	lui	a0,0x2
   175f6:	98950513          	addi	a0,a0,-1655 # 1989 <.Lline_table_start1+0x175e>
   175fa:	4585                	li	a1,1
   175fc:	00008097          	auipc	ra,0x8
   17600:	5a8080e7          	jalr	1448(ra) # 1fba4 <_ZN9allow_pin12dynamic_type7unshare17hb27555f71d22f3b2E>
   17604:	40f6                	lw	ra,92(sp)
   17606:	4466                	lw	s0,88(sp)
   17608:	44d6                	lw	s1,84(sp)
   1760a:	4946                	lw	s2,80(sp)
   1760c:	49b6                	lw	s3,76(sp)
   1760e:	6125                	addi	sp,sp,96
   17610:	8082                	ret

00017612 <_ZN20complex_dynamic_type3app17ha6b06e1478a0267fE>:
   17612:	7119                	addi	sp,sp,-128
   17614:	de86                	sw	ra,124(sp)
   17616:	dca2                	sw	s0,120(sp)
   17618:	daa6                	sw	s1,116(sp)
   1761a:	d8ca                	sw	s2,112(sp)
   1761c:	d6ce                	sw	s3,108(sp)
   1761e:	892a                	mv	s2,a0
   17620:	4489                	li	s1,2
   17622:	00910423          	sb	s1,8(sp)
   17626:	00910413          	addi	s0,sp,9
   1762a:	03400613          	li	a2,52
   1762e:	8522                	mv	a0,s0
   17630:	00008097          	auipc	ra,0x8
   17634:	5ec080e7          	jalr	1516(ra) # 1fc1c <memcpy>
   17638:	03e10993          	addi	s3,sp,62
   1763c:	02e00613          	li	a2,46
   17640:	854e                	mv	a0,s3
   17642:	4581                	li	a1,0
   17644:	00008097          	auipc	ra,0x8
   17648:	56c080e7          	jalr	1388(ra) # 1fbb0 <memset>
   1764c:	8622                	mv	a2,s0
   1764e:	02910ea3          	sb	s1,61(sp)
   17652:	4791                	li	a5,4
   17654:	20900513          	li	a0,521
   17658:	4589                	li	a1,2
   1765a:	03400693          	li	a3,52
   1765e:	4711                	li	a4,4
   17660:	00000073          	ecall
   17664:	00950463          	beq	a0,s1,1766c <_ZN20complex_dynamic_type3app17ha6b06e1478a0267fE+0x5a>
   17668:	00f10423          	sb	a5,8(sp)
   1766c:	4609                	li	a2,2
   1766e:	00c51463          	bne	a0,a2,17676 <_ZN20complex_dynamic_type3app17ha6b06e1478a0267fE+0x64>
   17672:	4785                	li	a5,1
   17674:	a079                	j	17702 <_ZN20complex_dynamic_type3app17ha6b06e1478a0267fE+0xf0>
   17676:	03d14503          	lbu	a0,61(sp)
   1767a:	4785                	li	a5,1
   1767c:	02c51263          	bne	a0,a2,176a0 <_ZN20complex_dynamic_type3app17ha6b06e1478a0267fE+0x8e>
   17680:	864e                	mv	a2,s3
   17682:	20900513          	li	a0,521
   17686:	45a1                	li	a1,8
   17688:	02e00693          	li	a3,46
   1768c:	470d                	li	a4,3
   1768e:	4489                	li	s1,2
   17690:	00000073          	ecall
   17694:	460d                	li	a2,3
   17696:	00951963          	bne	a0,s1,176a8 <_ZN20complex_dynamic_type3app17ha6b06e1478a0267fE+0x96>
   1769a:	4505                	li	a0,1
   1769c:	c911                	beqz	a0,176b0 <_ZN20complex_dynamic_type3app17ha6b06e1478a0267fE+0x9e>
   1769e:	a095                	j	17702 <_ZN20complex_dynamic_type3app17ha6b06e1478a0267fE+0xf0>
   176a0:	458d                	li	a1,3
   176a2:	4505                	li	a0,1
   176a4:	c511                	beqz	a0,176b0 <_ZN20complex_dynamic_type3app17ha6b06e1478a0267fE+0x9e>
   176a6:	a8b1                	j	17702 <_ZN20complex_dynamic_type3app17ha6b06e1478a0267fE+0xf0>
   176a8:	4501                	li	a0,0
   176aa:	02c10ea3          	sb	a2,61(sp)
   176ae:	e931                	bnez	a0,17702 <_ZN20complex_dynamic_type3app17ha6b06e1478a0267fE+0xf0>
   176b0:	4681                	li	a3,0
   176b2:	20900513          	li	a0,521
   176b6:	4589                	li	a1,2
   176b8:	4621                	li	a2,8
   176ba:	4709                	li	a4,2
   176bc:	07f00493          	li	s1,127
   176c0:	00000073          	ecall
   176c4:	4689                	li	a3,2
   176c6:	02a4fe63          	bgeu	s1,a0,17702 <_ZN20complex_dynamic_type3app17ha6b06e1478a0267fE+0xf0>
   176ca:	00814603          	lbu	a2,8(sp)
   176ce:	00d60963          	beq	a2,a3,176e0 <_ZN20complex_dynamic_type3app17ha6b06e1478a0267fE+0xce>
   176d2:	20900513          	li	a0,521
   176d6:	4589                	li	a1,2
   176d8:	00008097          	auipc	ra,0x8
   176dc:	4cc080e7          	jalr	1228(ra) # 1fba4 <_ZN9allow_pin12dynamic_type7unshare17hb27555f71d22f3b2E>
   176e0:	03d14603          	lbu	a2,61(sp)
   176e4:	4409                	li	s0,2
   176e6:	00810423          	sb	s0,8(sp)
   176ea:	00860963          	beq	a2,s0,176fc <_ZN20complex_dynamic_type3app17ha6b06e1478a0267fE+0xea>
   176ee:	20900513          	li	a0,521
   176f2:	45a1                	li	a1,8
   176f4:	00008097          	auipc	ra,0x8
   176f8:	4b0080e7          	jalr	1200(ra) # 1fba4 <_ZN9allow_pin12dynamic_type7unshare17hb27555f71d22f3b2E>
   176fc:	4781                	li	a5,0
   176fe:	02810ea3          	sb	s0,61(sp)
   17702:	c79d                	beqz	a5,17730 <_ZN20complex_dynamic_type3app17ha6b06e1478a0267fE+0x11e>
   17704:	03d14603          	lbu	a2,61(sp)
   17708:	4505                	li	a0,1
   1770a:	4409                	li	s0,2
   1770c:	00a90023          	sb	a0,0(s2)
   17710:	00b92223          	sw	a1,4(s2)
   17714:	00860963          	beq	a2,s0,17726 <_ZN20complex_dynamic_type3app17ha6b06e1478a0267fE+0x114>
   17718:	20900513          	li	a0,521
   1771c:	45a1                	li	a1,8
   1771e:	00008097          	auipc	ra,0x8
   17722:	486080e7          	jalr	1158(ra) # 1fba4 <_ZN9allow_pin12dynamic_type7unshare17hb27555f71d22f3b2E>
   17726:	00814603          	lbu	a2,8(sp)
   1772a:	04861663          	bne	a2,s0,17776 <_ZN20complex_dynamic_type3app17ha6b06e1478a0267fE+0x164>
   1772e:	a899                	j	17784 <_ZN20complex_dynamic_type3app17ha6b06e1478a0267fE+0x172>
   17730:	03d14403          	lbu	s0,61(sp)
   17734:	4489                	li	s1,2
   17736:	00940663          	beq	s0,s1,17742 <_ZN20complex_dynamic_type3app17ha6b06e1478a0267fE+0x130>
   1773a:	000119b7          	lui	s3,0x11
   1773e:	a9398993          	addi	s3,s3,-1389 # 10a93 <.Lanon.49c9f8067fe4468184af16d7576940c9.49>
   17742:	00190513          	addi	a0,s2,1
   17746:	02e00613          	li	a2,46
   1774a:	85ce                	mv	a1,s3
   1774c:	00008097          	auipc	ra,0x8
   17750:	4d0080e7          	jalr	1232(ra) # 1fc1c <memcpy>
   17754:	00090023          	sb	zero,0(s2)
   17758:	00940a63          	beq	s0,s1,1776c <_ZN20complex_dynamic_type3app17ha6b06e1478a0267fE+0x15a>
   1775c:	20900513          	li	a0,521
   17760:	45a1                	li	a1,8
   17762:	8622                	mv	a2,s0
   17764:	00008097          	auipc	ra,0x8
   17768:	440080e7          	jalr	1088(ra) # 1fba4 <_ZN9allow_pin12dynamic_type7unshare17hb27555f71d22f3b2E>
   1776c:	00814603          	lbu	a2,8(sp)
   17770:	4509                	li	a0,2
   17772:	00a60963          	beq	a2,a0,17784 <_ZN20complex_dynamic_type3app17ha6b06e1478a0267fE+0x172>
   17776:	20900513          	li	a0,521
   1777a:	4589                	li	a1,2
   1777c:	00008097          	auipc	ra,0x8
   17780:	428080e7          	jalr	1064(ra) # 1fba4 <_ZN9allow_pin12dynamic_type7unshare17hb27555f71d22f3b2E>
   17784:	50f6                	lw	ra,124(sp)
   17786:	5466                	lw	s0,120(sp)
   17788:	54d6                	lw	s1,116(sp)
   1778a:	5946                	lw	s2,112(sp)
   1778c:	59b6                	lw	s3,108(sp)
   1778e:	6109                	addi	sp,sp,128
   17790:	8082                	ret

00017792 <_ZN20complex_dynamic_type3app17ha97ccd0dc4479cbfE>:
   17792:	7131                	addi	sp,sp,-192
   17794:	df06                	sw	ra,188(sp)
   17796:	dd22                	sw	s0,184(sp)
   17798:	db26                	sw	s1,180(sp)
   1779a:	d94a                	sw	s2,176(sp)
   1779c:	d74e                	sw	s3,172(sp)
   1779e:	892a                	mv	s2,a0
   177a0:	4489                	li	s1,2
   177a2:	00910523          	sb	s1,10(sp)
   177a6:	00b10413          	addi	s0,sp,11
   177aa:	05300613          	li	a2,83
   177ae:	8522                	mv	a0,s0
   177b0:	00008097          	auipc	ra,0x8
   177b4:	46c080e7          	jalr	1132(ra) # 1fc1c <memcpy>
   177b8:	05f10993          	addi	s3,sp,95
   177bc:	04d00613          	li	a2,77
   177c0:	854e                	mv	a0,s3
   177c2:	4581                	li	a1,0
   177c4:	00008097          	auipc	ra,0x8
   177c8:	3ec080e7          	jalr	1004(ra) # 1fbb0 <memset>
   177cc:	8622                	mv	a2,s0
   177ce:	04910f23          	sb	s1,94(sp)
   177d2:	6505                	lui	a0,0x1
   177d4:	4791                	li	a5,4
   177d6:	45a5                	li	a1,9
   177d8:	6ba50513          	addi	a0,a0,1722 # 16ba <.Lline_table_start1+0x148f>
   177dc:	05300693          	li	a3,83
   177e0:	4711                	li	a4,4
   177e2:	00000073          	ecall
   177e6:	00950463          	beq	a0,s1,177ee <_ZN20complex_dynamic_type3app17ha97ccd0dc4479cbfE+0x5c>
   177ea:	00f10523          	sb	a5,10(sp)
   177ee:	4609                	li	a2,2
   177f0:	00c51463          	bne	a0,a2,177f8 <_ZN20complex_dynamic_type3app17ha97ccd0dc4479cbfE+0x66>
   177f4:	4785                	li	a5,1
   177f6:	a859                	j	1788c <_ZN20complex_dynamic_type3app17ha97ccd0dc4479cbfE+0xfa>
   177f8:	05e14503          	lbu	a0,94(sp)
   177fc:	4785                	li	a5,1
   177fe:	02c51363          	bne	a0,a2,17824 <_ZN20complex_dynamic_type3app17ha97ccd0dc4479cbfE+0x92>
   17802:	864e                	mv	a2,s3
   17804:	6505                	lui	a0,0x1
   17806:	4591                	li	a1,4
   17808:	04d00693          	li	a3,77
   1780c:	470d                	li	a4,3
   1780e:	6ba50513          	addi	a0,a0,1722 # 16ba <.Lline_table_start1+0x148f>
   17812:	4489                	li	s1,2
   17814:	00000073          	ecall
   17818:	460d                	li	a2,3
   1781a:	00951963          	bne	a0,s1,1782c <_ZN20complex_dynamic_type3app17ha97ccd0dc4479cbfE+0x9a>
   1781e:	4505                	li	a0,1
   17820:	c911                	beqz	a0,17834 <_ZN20complex_dynamic_type3app17ha97ccd0dc4479cbfE+0xa2>
   17822:	a0ad                	j	1788c <_ZN20complex_dynamic_type3app17ha97ccd0dc4479cbfE+0xfa>
   17824:	458d                	li	a1,3
   17826:	4505                	li	a0,1
   17828:	c511                	beqz	a0,17834 <_ZN20complex_dynamic_type3app17ha97ccd0dc4479cbfE+0xa2>
   1782a:	a08d                	j	1788c <_ZN20complex_dynamic_type3app17ha97ccd0dc4479cbfE+0xfa>
   1782c:	4501                	li	a0,0
   1782e:	04c10f23          	sb	a2,94(sp)
   17832:	ed29                	bnez	a0,1788c <_ZN20complex_dynamic_type3app17ha97ccd0dc4479cbfE+0xfa>
   17834:	4681                	li	a3,0
   17836:	6505                	lui	a0,0x1
   17838:	45a5                	li	a1,9
   1783a:	4611                	li	a2,4
   1783c:	4709                	li	a4,2
   1783e:	6ba50513          	addi	a0,a0,1722 # 16ba <.Lline_table_start1+0x148f>
   17842:	07f00493          	li	s1,127
   17846:	00000073          	ecall
   1784a:	4689                	li	a3,2
   1784c:	04a4f063          	bgeu	s1,a0,1788c <_ZN20complex_dynamic_type3app17ha97ccd0dc4479cbfE+0xfa>
   17850:	00a14603          	lbu	a2,10(sp)
   17854:	00d60a63          	beq	a2,a3,17868 <_ZN20complex_dynamic_type3app17ha97ccd0dc4479cbfE+0xd6>
   17858:	6505                	lui	a0,0x1
   1785a:	6ba50513          	addi	a0,a0,1722 # 16ba <.Lline_table_start1+0x148f>
   1785e:	45a5                	li	a1,9
   17860:	00008097          	auipc	ra,0x8
   17864:	344080e7          	jalr	836(ra) # 1fba4 <_ZN9allow_pin12dynamic_type7unshare17hb27555f71d22f3b2E>
   17868:	05e14603          	lbu	a2,94(sp)
   1786c:	4409                	li	s0,2
   1786e:	00810523          	sb	s0,10(sp)
   17872:	00860a63          	beq	a2,s0,17886 <_ZN20complex_dynamic_type3app17ha97ccd0dc4479cbfE+0xf4>
   17876:	6505                	lui	a0,0x1
   17878:	6ba50513          	addi	a0,a0,1722 # 16ba <.Lline_table_start1+0x148f>
   1787c:	4591                	li	a1,4
   1787e:	00008097          	auipc	ra,0x8
   17882:	326080e7          	jalr	806(ra) # 1fba4 <_ZN9allow_pin12dynamic_type7unshare17hb27555f71d22f3b2E>
   17886:	4781                	li	a5,0
   17888:	04810f23          	sb	s0,94(sp)
   1788c:	cb85                	beqz	a5,178bc <_ZN20complex_dynamic_type3app17ha97ccd0dc4479cbfE+0x12a>
   1788e:	05e14603          	lbu	a2,94(sp)
   17892:	4505                	li	a0,1
   17894:	4409                	li	s0,2
   17896:	00a90023          	sb	a0,0(s2)
   1789a:	00b92223          	sw	a1,4(s2)
   1789e:	00860a63          	beq	a2,s0,178b2 <_ZN20complex_dynamic_type3app17ha97ccd0dc4479cbfE+0x120>
   178a2:	6505                	lui	a0,0x1
   178a4:	6ba50513          	addi	a0,a0,1722 # 16ba <.Lline_table_start1+0x148f>
   178a8:	4591                	li	a1,4
   178aa:	00008097          	auipc	ra,0x8
   178ae:	2fa080e7          	jalr	762(ra) # 1fba4 <_ZN9allow_pin12dynamic_type7unshare17hb27555f71d22f3b2E>
   178b2:	00a14603          	lbu	a2,10(sp)
   178b6:	04861763          	bne	a2,s0,17904 <_ZN20complex_dynamic_type3app17ha97ccd0dc4479cbfE+0x172>
   178ba:	a8a9                	j	17914 <_ZN20complex_dynamic_type3app17ha97ccd0dc4479cbfE+0x182>
   178bc:	05e14403          	lbu	s0,94(sp)
   178c0:	4489                	li	s1,2
   178c2:	00940663          	beq	s0,s1,178ce <_ZN20complex_dynamic_type3app17ha97ccd0dc4479cbfE+0x13c>
   178c6:	000109b7          	lui	s3,0x10
   178ca:	49a98993          	addi	s3,s3,1178 # 1049a <.Lanon.49c9f8067fe4468184af16d7576940c9.20>
   178ce:	00190513          	addi	a0,s2,1
   178d2:	04d00613          	li	a2,77
   178d6:	85ce                	mv	a1,s3
   178d8:	00008097          	auipc	ra,0x8
   178dc:	344080e7          	jalr	836(ra) # 1fc1c <memcpy>
   178e0:	00090023          	sb	zero,0(s2)
   178e4:	00940b63          	beq	s0,s1,178fa <_ZN20complex_dynamic_type3app17ha97ccd0dc4479cbfE+0x168>
   178e8:	6505                	lui	a0,0x1
   178ea:	6ba50513          	addi	a0,a0,1722 # 16ba <.Lline_table_start1+0x148f>
   178ee:	4591                	li	a1,4
   178f0:	8622                	mv	a2,s0
   178f2:	00008097          	auipc	ra,0x8
   178f6:	2b2080e7          	jalr	690(ra) # 1fba4 <_ZN9allow_pin12dynamic_type7unshare17hb27555f71d22f3b2E>
   178fa:	00a14603          	lbu	a2,10(sp)
   178fe:	4509                	li	a0,2
   17900:	00a60a63          	beq	a2,a0,17914 <_ZN20complex_dynamic_type3app17ha97ccd0dc4479cbfE+0x182>
   17904:	6505                	lui	a0,0x1
   17906:	6ba50513          	addi	a0,a0,1722 # 16ba <.Lline_table_start1+0x148f>
   1790a:	45a5                	li	a1,9
   1790c:	00008097          	auipc	ra,0x8
   17910:	298080e7          	jalr	664(ra) # 1fba4 <_ZN9allow_pin12dynamic_type7unshare17hb27555f71d22f3b2E>
   17914:	50fa                	lw	ra,188(sp)
   17916:	546a                	lw	s0,184(sp)
   17918:	54da                	lw	s1,180(sp)
   1791a:	594a                	lw	s2,176(sp)
   1791c:	59ba                	lw	s3,172(sp)
   1791e:	6129                	addi	sp,sp,192
   17920:	8082                	ret

00017922 <_ZN20complex_dynamic_type3app17haa0b05300e728305E>:
   17922:	711d                	addi	sp,sp,-96
   17924:	ce86                	sw	ra,92(sp)
   17926:	cca2                	sw	s0,88(sp)
   17928:	caa6                	sw	s1,84(sp)
   1792a:	c8ca                	sw	s2,80(sp)
   1792c:	c6ce                	sw	s3,76(sp)
   1792e:	892a                	mv	s2,a0
   17930:	4489                	li	s1,2
   17932:	009103a3          	sb	s1,7(sp)
   17936:	0020                	addi	s0,sp,8
   17938:	02900613          	li	a2,41
   1793c:	8522                	mv	a0,s0
   1793e:	00008097          	auipc	ra,0x8
   17942:	2de080e7          	jalr	734(ra) # 1fc1c <memcpy>
   17946:	03210993          	addi	s3,sp,50
   1794a:	4669                	li	a2,26
   1794c:	854e                	mv	a0,s3
   1794e:	4581                	li	a1,0
   17950:	00008097          	auipc	ra,0x8
   17954:	260080e7          	jalr	608(ra) # 1fbb0 <memset>
   17958:	8622                	mv	a2,s0
   1795a:	029108a3          	sb	s1,49(sp)
   1795e:	6509                	lui	a0,0x2
   17960:	4791                	li	a5,4
   17962:	4595                	li	a1,5
   17964:	04850513          	addi	a0,a0,72 # 2048 <.Lline_table_start1+0x1e1d>
   17968:	02900693          	li	a3,41
   1796c:	4711                	li	a4,4
   1796e:	00000073          	ecall
   17972:	00950463          	beq	a0,s1,1797a <_ZN20complex_dynamic_type3app17haa0b05300e728305E+0x58>
   17976:	00f103a3          	sb	a5,7(sp)
   1797a:	4609                	li	a2,2
   1797c:	00c51463          	bne	a0,a2,17984 <_ZN20complex_dynamic_type3app17haa0b05300e728305E+0x62>
   17980:	4785                	li	a5,1
   17982:	a851                	j	17a16 <_ZN20complex_dynamic_type3app17haa0b05300e728305E+0xf4>
   17984:	03114503          	lbu	a0,49(sp)
   17988:	4785                	li	a5,1
   1798a:	02c51263          	bne	a0,a2,179ae <_ZN20complex_dynamic_type3app17haa0b05300e728305E+0x8c>
   1798e:	864e                	mv	a2,s3
   17990:	6509                	lui	a0,0x2
   17992:	458d                	li	a1,3
   17994:	46e9                	li	a3,26
   17996:	470d                	li	a4,3
   17998:	04850513          	addi	a0,a0,72 # 2048 <.Lline_table_start1+0x1e1d>
   1799c:	4489                	li	s1,2
   1799e:	00000073          	ecall
   179a2:	460d                	li	a2,3
   179a4:	00951963          	bne	a0,s1,179b6 <_ZN20complex_dynamic_type3app17haa0b05300e728305E+0x94>
   179a8:	4505                	li	a0,1
   179aa:	c911                	beqz	a0,179be <_ZN20complex_dynamic_type3app17haa0b05300e728305E+0x9c>
   179ac:	a0ad                	j	17a16 <_ZN20complex_dynamic_type3app17haa0b05300e728305E+0xf4>
   179ae:	458d                	li	a1,3
   179b0:	4505                	li	a0,1
   179b2:	c511                	beqz	a0,179be <_ZN20complex_dynamic_type3app17haa0b05300e728305E+0x9c>
   179b4:	a08d                	j	17a16 <_ZN20complex_dynamic_type3app17haa0b05300e728305E+0xf4>
   179b6:	4501                	li	a0,0
   179b8:	02c108a3          	sb	a2,49(sp)
   179bc:	ed29                	bnez	a0,17a16 <_ZN20complex_dynamic_type3app17haa0b05300e728305E+0xf4>
   179be:	4681                	li	a3,0
   179c0:	6509                	lui	a0,0x2
   179c2:	4595                	li	a1,5
   179c4:	460d                	li	a2,3
   179c6:	4709                	li	a4,2
   179c8:	04850513          	addi	a0,a0,72 # 2048 <.Lline_table_start1+0x1e1d>
   179cc:	07f00493          	li	s1,127
   179d0:	00000073          	ecall
   179d4:	4689                	li	a3,2
   179d6:	04a4f063          	bgeu	s1,a0,17a16 <_ZN20complex_dynamic_type3app17haa0b05300e728305E+0xf4>
   179da:	00714603          	lbu	a2,7(sp)
   179de:	00d60a63          	beq	a2,a3,179f2 <_ZN20complex_dynamic_type3app17haa0b05300e728305E+0xd0>
   179e2:	6509                	lui	a0,0x2
   179e4:	04850513          	addi	a0,a0,72 # 2048 <.Lline_table_start1+0x1e1d>
   179e8:	4595                	li	a1,5
   179ea:	00008097          	auipc	ra,0x8
   179ee:	1ba080e7          	jalr	442(ra) # 1fba4 <_ZN9allow_pin12dynamic_type7unshare17hb27555f71d22f3b2E>
   179f2:	03114603          	lbu	a2,49(sp)
   179f6:	4409                	li	s0,2
   179f8:	008103a3          	sb	s0,7(sp)
   179fc:	00860a63          	beq	a2,s0,17a10 <_ZN20complex_dynamic_type3app17haa0b05300e728305E+0xee>
   17a00:	6509                	lui	a0,0x2
   17a02:	04850513          	addi	a0,a0,72 # 2048 <.Lline_table_start1+0x1e1d>
   17a06:	458d                	li	a1,3
   17a08:	00008097          	auipc	ra,0x8
   17a0c:	19c080e7          	jalr	412(ra) # 1fba4 <_ZN9allow_pin12dynamic_type7unshare17hb27555f71d22f3b2E>
   17a10:	4781                	li	a5,0
   17a12:	028108a3          	sb	s0,49(sp)
   17a16:	cb85                	beqz	a5,17a46 <_ZN20complex_dynamic_type3app17haa0b05300e728305E+0x124>
   17a18:	03114603          	lbu	a2,49(sp)
   17a1c:	4505                	li	a0,1
   17a1e:	4409                	li	s0,2
   17a20:	00a90023          	sb	a0,0(s2)
   17a24:	00b92223          	sw	a1,4(s2)
   17a28:	00860a63          	beq	a2,s0,17a3c <_ZN20complex_dynamic_type3app17haa0b05300e728305E+0x11a>
   17a2c:	6509                	lui	a0,0x2
   17a2e:	04850513          	addi	a0,a0,72 # 2048 <.Lline_table_start1+0x1e1d>
   17a32:	458d                	li	a1,3
   17a34:	00008097          	auipc	ra,0x8
   17a38:	170080e7          	jalr	368(ra) # 1fba4 <_ZN9allow_pin12dynamic_type7unshare17hb27555f71d22f3b2E>
   17a3c:	00714603          	lbu	a2,7(sp)
   17a40:	04861663          	bne	a2,s0,17a8c <_ZN20complex_dynamic_type3app17haa0b05300e728305E+0x16a>
   17a44:	a8a1                	j	17a9c <_ZN20complex_dynamic_type3app17haa0b05300e728305E+0x17a>
   17a46:	03114403          	lbu	s0,49(sp)
   17a4a:	4489                	li	s1,2
   17a4c:	00940663          	beq	s0,s1,17a58 <_ZN20complex_dynamic_type3app17haa0b05300e728305E+0x136>
   17a50:	000109b7          	lui	s3,0x10
   17a54:	1fd98993          	addi	s3,s3,509 # 101fd <.Lanon.49c9f8067fe4468184af16d7576940c9.7>
   17a58:	00190513          	addi	a0,s2,1
   17a5c:	4669                	li	a2,26
   17a5e:	85ce                	mv	a1,s3
   17a60:	00008097          	auipc	ra,0x8
   17a64:	1bc080e7          	jalr	444(ra) # 1fc1c <memcpy>
   17a68:	00090023          	sb	zero,0(s2)
   17a6c:	00940b63          	beq	s0,s1,17a82 <_ZN20complex_dynamic_type3app17haa0b05300e728305E+0x160>
   17a70:	6509                	lui	a0,0x2
   17a72:	04850513          	addi	a0,a0,72 # 2048 <.Lline_table_start1+0x1e1d>
   17a76:	458d                	li	a1,3
   17a78:	8622                	mv	a2,s0
   17a7a:	00008097          	auipc	ra,0x8
   17a7e:	12a080e7          	jalr	298(ra) # 1fba4 <_ZN9allow_pin12dynamic_type7unshare17hb27555f71d22f3b2E>
   17a82:	00714603          	lbu	a2,7(sp)
   17a86:	4509                	li	a0,2
   17a88:	00a60a63          	beq	a2,a0,17a9c <_ZN20complex_dynamic_type3app17haa0b05300e728305E+0x17a>
   17a8c:	6509                	lui	a0,0x2
   17a8e:	04850513          	addi	a0,a0,72 # 2048 <.Lline_table_start1+0x1e1d>
   17a92:	4595                	li	a1,5
   17a94:	00008097          	auipc	ra,0x8
   17a98:	110080e7          	jalr	272(ra) # 1fba4 <_ZN9allow_pin12dynamic_type7unshare17hb27555f71d22f3b2E>
   17a9c:	40f6                	lw	ra,92(sp)
   17a9e:	4466                	lw	s0,88(sp)
   17aa0:	44d6                	lw	s1,84(sp)
   17aa2:	4946                	lw	s2,80(sp)
   17aa4:	49b6                	lw	s3,76(sp)
   17aa6:	6125                	addi	sp,sp,96
   17aa8:	8082                	ret

00017aaa <_ZN20complex_dynamic_type3app17haa47219105355f59E>:
   17aaa:	7175                	addi	sp,sp,-144
   17aac:	c706                	sw	ra,140(sp)
   17aae:	c522                	sw	s0,136(sp)
   17ab0:	c326                	sw	s1,132(sp)
   17ab2:	c14a                	sw	s2,128(sp)
   17ab4:	dece                	sw	s3,124(sp)
   17ab6:	892a                	mv	s2,a0
   17ab8:	4489                	li	s1,2
   17aba:	009104a3          	sb	s1,9(sp)
   17abe:	00a10413          	addi	s0,sp,10
   17ac2:	04800613          	li	a2,72
   17ac6:	8522                	mv	a0,s0
   17ac8:	00008097          	auipc	ra,0x8
   17acc:	154080e7          	jalr	340(ra) # 1fc1c <memcpy>
   17ad0:	05310993          	addi	s3,sp,83
   17ad4:	02900613          	li	a2,41
   17ad8:	854e                	mv	a0,s3
   17ada:	4581                	li	a1,0
   17adc:	00008097          	auipc	ra,0x8
   17ae0:	0d4080e7          	jalr	212(ra) # 1fbb0 <memset>
   17ae4:	8622                	mv	a2,s0
   17ae6:	04910923          	sb	s1,82(sp)
   17aea:	6509                	lui	a0,0x2
   17aec:	4791                	li	a5,4
   17aee:	458d                	li	a1,3
   17af0:	6a450513          	addi	a0,a0,1700 # 26a4 <.Lline_table_start1+0x2479>
   17af4:	04800693          	li	a3,72
   17af8:	4711                	li	a4,4
   17afa:	00000073          	ecall
   17afe:	00950463          	beq	a0,s1,17b06 <_ZN20complex_dynamic_type3app17haa47219105355f59E+0x5c>
   17b02:	00f104a3          	sb	a5,9(sp)
   17b06:	4609                	li	a2,2
   17b08:	00c51463          	bne	a0,a2,17b10 <_ZN20complex_dynamic_type3app17haa47219105355f59E+0x66>
   17b0c:	4785                	li	a5,1
   17b0e:	a859                	j	17ba4 <_ZN20complex_dynamic_type3app17haa47219105355f59E+0xfa>
   17b10:	05214503          	lbu	a0,82(sp)
   17b14:	4785                	li	a5,1
   17b16:	02c51363          	bne	a0,a2,17b3c <_ZN20complex_dynamic_type3app17haa47219105355f59E+0x92>
   17b1a:	864e                	mv	a2,s3
   17b1c:	6509                	lui	a0,0x2
   17b1e:	4591                	li	a1,4
   17b20:	02900693          	li	a3,41
   17b24:	470d                	li	a4,3
   17b26:	6a450513          	addi	a0,a0,1700 # 26a4 <.Lline_table_start1+0x2479>
   17b2a:	4489                	li	s1,2
   17b2c:	00000073          	ecall
   17b30:	460d                	li	a2,3
   17b32:	00951963          	bne	a0,s1,17b44 <_ZN20complex_dynamic_type3app17haa47219105355f59E+0x9a>
   17b36:	4505                	li	a0,1
   17b38:	c911                	beqz	a0,17b4c <_ZN20complex_dynamic_type3app17haa47219105355f59E+0xa2>
   17b3a:	a0ad                	j	17ba4 <_ZN20complex_dynamic_type3app17haa47219105355f59E+0xfa>
   17b3c:	458d                	li	a1,3
   17b3e:	4505                	li	a0,1
   17b40:	c511                	beqz	a0,17b4c <_ZN20complex_dynamic_type3app17haa47219105355f59E+0xa2>
   17b42:	a08d                	j	17ba4 <_ZN20complex_dynamic_type3app17haa47219105355f59E+0xfa>
   17b44:	4501                	li	a0,0
   17b46:	04c10923          	sb	a2,82(sp)
   17b4a:	ed29                	bnez	a0,17ba4 <_ZN20complex_dynamic_type3app17haa47219105355f59E+0xfa>
   17b4c:	4681                	li	a3,0
   17b4e:	6509                	lui	a0,0x2
   17b50:	458d                	li	a1,3
   17b52:	4611                	li	a2,4
   17b54:	4709                	li	a4,2
   17b56:	6a450513          	addi	a0,a0,1700 # 26a4 <.Lline_table_start1+0x2479>
   17b5a:	07f00493          	li	s1,127
   17b5e:	00000073          	ecall
   17b62:	4689                	li	a3,2
   17b64:	04a4f063          	bgeu	s1,a0,17ba4 <_ZN20complex_dynamic_type3app17haa47219105355f59E+0xfa>
   17b68:	00914603          	lbu	a2,9(sp)
   17b6c:	00d60a63          	beq	a2,a3,17b80 <_ZN20complex_dynamic_type3app17haa47219105355f59E+0xd6>
   17b70:	6509                	lui	a0,0x2
   17b72:	6a450513          	addi	a0,a0,1700 # 26a4 <.Lline_table_start1+0x2479>
   17b76:	458d                	li	a1,3
   17b78:	00008097          	auipc	ra,0x8
   17b7c:	02c080e7          	jalr	44(ra) # 1fba4 <_ZN9allow_pin12dynamic_type7unshare17hb27555f71d22f3b2E>
   17b80:	05214603          	lbu	a2,82(sp)
   17b84:	4409                	li	s0,2
   17b86:	008104a3          	sb	s0,9(sp)
   17b8a:	00860a63          	beq	a2,s0,17b9e <_ZN20complex_dynamic_type3app17haa47219105355f59E+0xf4>
   17b8e:	6509                	lui	a0,0x2
   17b90:	6a450513          	addi	a0,a0,1700 # 26a4 <.Lline_table_start1+0x2479>
   17b94:	4591                	li	a1,4
   17b96:	00008097          	auipc	ra,0x8
   17b9a:	00e080e7          	jalr	14(ra) # 1fba4 <_ZN9allow_pin12dynamic_type7unshare17hb27555f71d22f3b2E>
   17b9e:	4781                	li	a5,0
   17ba0:	04810923          	sb	s0,82(sp)
   17ba4:	cb85                	beqz	a5,17bd4 <_ZN20complex_dynamic_type3app17haa47219105355f59E+0x12a>
   17ba6:	05214603          	lbu	a2,82(sp)
   17baa:	4505                	li	a0,1
   17bac:	4409                	li	s0,2
   17bae:	00a90023          	sb	a0,0(s2)
   17bb2:	00b92223          	sw	a1,4(s2)
   17bb6:	00860a63          	beq	a2,s0,17bca <_ZN20complex_dynamic_type3app17haa47219105355f59E+0x120>
   17bba:	6509                	lui	a0,0x2
   17bbc:	6a450513          	addi	a0,a0,1700 # 26a4 <.Lline_table_start1+0x2479>
   17bc0:	4591                	li	a1,4
   17bc2:	00008097          	auipc	ra,0x8
   17bc6:	fe2080e7          	jalr	-30(ra) # 1fba4 <_ZN9allow_pin12dynamic_type7unshare17hb27555f71d22f3b2E>
   17bca:	00914603          	lbu	a2,9(sp)
   17bce:	04861763          	bne	a2,s0,17c1c <_ZN20complex_dynamic_type3app17haa47219105355f59E+0x172>
   17bd2:	a8a9                	j	17c2c <_ZN20complex_dynamic_type3app17haa47219105355f59E+0x182>
   17bd4:	05214403          	lbu	s0,82(sp)
   17bd8:	4489                	li	s1,2
   17bda:	00940663          	beq	s0,s1,17be6 <_ZN20complex_dynamic_type3app17haa47219105355f59E+0x13c>
   17bde:	000109b7          	lui	s3,0x10
   17be2:	3e298993          	addi	s3,s3,994 # 103e2 <.Lanon.49c9f8067fe4468184af16d7576940c9.16>
   17be6:	00190513          	addi	a0,s2,1
   17bea:	02900613          	li	a2,41
   17bee:	85ce                	mv	a1,s3
   17bf0:	00008097          	auipc	ra,0x8
   17bf4:	02c080e7          	jalr	44(ra) # 1fc1c <memcpy>
   17bf8:	00090023          	sb	zero,0(s2)
   17bfc:	00940b63          	beq	s0,s1,17c12 <_ZN20complex_dynamic_type3app17haa47219105355f59E+0x168>
   17c00:	6509                	lui	a0,0x2
   17c02:	6a450513          	addi	a0,a0,1700 # 26a4 <.Lline_table_start1+0x2479>
   17c06:	4591                	li	a1,4
   17c08:	8622                	mv	a2,s0
   17c0a:	00008097          	auipc	ra,0x8
   17c0e:	f9a080e7          	jalr	-102(ra) # 1fba4 <_ZN9allow_pin12dynamic_type7unshare17hb27555f71d22f3b2E>
   17c12:	00914603          	lbu	a2,9(sp)
   17c16:	4509                	li	a0,2
   17c18:	00a60a63          	beq	a2,a0,17c2c <_ZN20complex_dynamic_type3app17haa47219105355f59E+0x182>
   17c1c:	6509                	lui	a0,0x2
   17c1e:	6a450513          	addi	a0,a0,1700 # 26a4 <.Lline_table_start1+0x2479>
   17c22:	458d                	li	a1,3
   17c24:	00008097          	auipc	ra,0x8
   17c28:	f80080e7          	jalr	-128(ra) # 1fba4 <_ZN9allow_pin12dynamic_type7unshare17hb27555f71d22f3b2E>
   17c2c:	40ba                	lw	ra,140(sp)
   17c2e:	442a                	lw	s0,136(sp)
   17c30:	449a                	lw	s1,132(sp)
   17c32:	490a                	lw	s2,128(sp)
   17c34:	59f6                	lw	s3,124(sp)
   17c36:	6149                	addi	sp,sp,144
   17c38:	8082                	ret

00017c3a <_ZN20complex_dynamic_type3app17had9eeab1fea595e4E>:
   17c3a:	7155                	addi	sp,sp,-208
   17c3c:	c786                	sw	ra,204(sp)
   17c3e:	c5a2                	sw	s0,200(sp)
   17c40:	c3a6                	sw	s1,196(sp)
   17c42:	c1ca                	sw	s2,192(sp)
   17c44:	df4e                	sw	s3,188(sp)
   17c46:	892a                	mv	s2,a0
   17c48:	4489                	li	s1,2
   17c4a:	009103a3          	sb	s1,7(sp)
   17c4e:	0020                	addi	s0,sp,8
   17c50:	05e00613          	li	a2,94
   17c54:	8522                	mv	a0,s0
   17c56:	00008097          	auipc	ra,0x8
   17c5a:	fc6080e7          	jalr	-58(ra) # 1fc1c <memcpy>
   17c5e:	06710993          	addi	s3,sp,103
   17c62:	05500613          	li	a2,85
   17c66:	854e                	mv	a0,s3
   17c68:	4581                	li	a1,0
   17c6a:	00008097          	auipc	ra,0x8
   17c6e:	f46080e7          	jalr	-186(ra) # 1fbb0 <memset>
   17c72:	8622                	mv	a2,s0
   17c74:	06910323          	sb	s1,102(sp)
   17c78:	6505                	lui	a0,0x1
   17c7a:	4791                	li	a5,4
   17c7c:	459d                	li	a1,7
   17c7e:	78a50513          	addi	a0,a0,1930 # 178a <.Lline_table_start1+0x155f>
   17c82:	05e00693          	li	a3,94
   17c86:	4711                	li	a4,4
   17c88:	00000073          	ecall
   17c8c:	00950463          	beq	a0,s1,17c94 <_ZN20complex_dynamic_type3app17had9eeab1fea595e4E+0x5a>
   17c90:	00f103a3          	sb	a5,7(sp)
   17c94:	4609                	li	a2,2
   17c96:	00c51463          	bne	a0,a2,17c9e <_ZN20complex_dynamic_type3app17had9eeab1fea595e4E+0x64>
   17c9a:	4785                	li	a5,1
   17c9c:	a859                	j	17d32 <_ZN20complex_dynamic_type3app17had9eeab1fea595e4E+0xf8>
   17c9e:	06614503          	lbu	a0,102(sp)
   17ca2:	4785                	li	a5,1
   17ca4:	02c51363          	bne	a0,a2,17cca <_ZN20complex_dynamic_type3app17had9eeab1fea595e4E+0x90>
   17ca8:	864e                	mv	a2,s3
   17caa:	6505                	lui	a0,0x1
   17cac:	458d                	li	a1,3
   17cae:	05500693          	li	a3,85
   17cb2:	470d                	li	a4,3
   17cb4:	78a50513          	addi	a0,a0,1930 # 178a <.Lline_table_start1+0x155f>
   17cb8:	4489                	li	s1,2
   17cba:	00000073          	ecall
   17cbe:	460d                	li	a2,3
   17cc0:	00951963          	bne	a0,s1,17cd2 <_ZN20complex_dynamic_type3app17had9eeab1fea595e4E+0x98>
   17cc4:	4505                	li	a0,1
   17cc6:	c911                	beqz	a0,17cda <_ZN20complex_dynamic_type3app17had9eeab1fea595e4E+0xa0>
   17cc8:	a0ad                	j	17d32 <_ZN20complex_dynamic_type3app17had9eeab1fea595e4E+0xf8>
   17cca:	458d                	li	a1,3
   17ccc:	4505                	li	a0,1
   17cce:	c511                	beqz	a0,17cda <_ZN20complex_dynamic_type3app17had9eeab1fea595e4E+0xa0>
   17cd0:	a08d                	j	17d32 <_ZN20complex_dynamic_type3app17had9eeab1fea595e4E+0xf8>
   17cd2:	4501                	li	a0,0
   17cd4:	06c10323          	sb	a2,102(sp)
   17cd8:	ed29                	bnez	a0,17d32 <_ZN20complex_dynamic_type3app17had9eeab1fea595e4E+0xf8>
   17cda:	4681                	li	a3,0
   17cdc:	6505                	lui	a0,0x1
   17cde:	459d                	li	a1,7
   17ce0:	460d                	li	a2,3
   17ce2:	4709                	li	a4,2
   17ce4:	78a50513          	addi	a0,a0,1930 # 178a <.Lline_table_start1+0x155f>
   17ce8:	07f00493          	li	s1,127
   17cec:	00000073          	ecall
   17cf0:	4689                	li	a3,2
   17cf2:	04a4f063          	bgeu	s1,a0,17d32 <_ZN20complex_dynamic_type3app17had9eeab1fea595e4E+0xf8>
   17cf6:	00714603          	lbu	a2,7(sp)
   17cfa:	00d60a63          	beq	a2,a3,17d0e <_ZN20complex_dynamic_type3app17had9eeab1fea595e4E+0xd4>
   17cfe:	6505                	lui	a0,0x1
   17d00:	78a50513          	addi	a0,a0,1930 # 178a <.Lline_table_start1+0x155f>
   17d04:	459d                	li	a1,7
   17d06:	00008097          	auipc	ra,0x8
   17d0a:	e9e080e7          	jalr	-354(ra) # 1fba4 <_ZN9allow_pin12dynamic_type7unshare17hb27555f71d22f3b2E>
   17d0e:	06614603          	lbu	a2,102(sp)
   17d12:	4409                	li	s0,2
   17d14:	008103a3          	sb	s0,7(sp)
   17d18:	00860a63          	beq	a2,s0,17d2c <_ZN20complex_dynamic_type3app17had9eeab1fea595e4E+0xf2>
   17d1c:	6505                	lui	a0,0x1
   17d1e:	78a50513          	addi	a0,a0,1930 # 178a <.Lline_table_start1+0x155f>
   17d22:	458d                	li	a1,3
   17d24:	00008097          	auipc	ra,0x8
   17d28:	e80080e7          	jalr	-384(ra) # 1fba4 <_ZN9allow_pin12dynamic_type7unshare17hb27555f71d22f3b2E>
   17d2c:	4781                	li	a5,0
   17d2e:	06810323          	sb	s0,102(sp)
   17d32:	cb85                	beqz	a5,17d62 <_ZN20complex_dynamic_type3app17had9eeab1fea595e4E+0x128>
   17d34:	06614603          	lbu	a2,102(sp)
   17d38:	4505                	li	a0,1
   17d3a:	4409                	li	s0,2
   17d3c:	00a90023          	sb	a0,0(s2)
   17d40:	00b92223          	sw	a1,4(s2)
   17d44:	00860a63          	beq	a2,s0,17d58 <_ZN20complex_dynamic_type3app17had9eeab1fea595e4E+0x11e>
   17d48:	6505                	lui	a0,0x1
   17d4a:	78a50513          	addi	a0,a0,1930 # 178a <.Lline_table_start1+0x155f>
   17d4e:	458d                	li	a1,3
   17d50:	00008097          	auipc	ra,0x8
   17d54:	e54080e7          	jalr	-428(ra) # 1fba4 <_ZN9allow_pin12dynamic_type7unshare17hb27555f71d22f3b2E>
   17d58:	00714603          	lbu	a2,7(sp)
   17d5c:	04861763          	bne	a2,s0,17daa <_ZN20complex_dynamic_type3app17had9eeab1fea595e4E+0x170>
   17d60:	a8a9                	j	17dba <_ZN20complex_dynamic_type3app17had9eeab1fea595e4E+0x180>
   17d62:	06614403          	lbu	s0,102(sp)
   17d66:	4489                	li	s1,2
   17d68:	00940663          	beq	s0,s1,17d74 <_ZN20complex_dynamic_type3app17had9eeab1fea595e4E+0x13a>
   17d6c:	000109b7          	lui	s3,0x10
   17d70:	61a98993          	addi	s3,s3,1562 # 1061a <.Lanon.49c9f8067fe4468184af16d7576940c9.28>
   17d74:	00190513          	addi	a0,s2,1
   17d78:	05500613          	li	a2,85
   17d7c:	85ce                	mv	a1,s3
   17d7e:	00008097          	auipc	ra,0x8
   17d82:	e9e080e7          	jalr	-354(ra) # 1fc1c <memcpy>
   17d86:	00090023          	sb	zero,0(s2)
   17d8a:	00940b63          	beq	s0,s1,17da0 <_ZN20complex_dynamic_type3app17had9eeab1fea595e4E+0x166>
   17d8e:	6505                	lui	a0,0x1
   17d90:	78a50513          	addi	a0,a0,1930 # 178a <.Lline_table_start1+0x155f>
   17d94:	458d                	li	a1,3
   17d96:	8622                	mv	a2,s0
   17d98:	00008097          	auipc	ra,0x8
   17d9c:	e0c080e7          	jalr	-500(ra) # 1fba4 <_ZN9allow_pin12dynamic_type7unshare17hb27555f71d22f3b2E>
   17da0:	00714603          	lbu	a2,7(sp)
   17da4:	4509                	li	a0,2
   17da6:	00a60a63          	beq	a2,a0,17dba <_ZN20complex_dynamic_type3app17had9eeab1fea595e4E+0x180>
   17daa:	6505                	lui	a0,0x1
   17dac:	78a50513          	addi	a0,a0,1930 # 178a <.Lline_table_start1+0x155f>
   17db0:	459d                	li	a1,7
   17db2:	00008097          	auipc	ra,0x8
   17db6:	df2080e7          	jalr	-526(ra) # 1fba4 <_ZN9allow_pin12dynamic_type7unshare17hb27555f71d22f3b2E>
   17dba:	40be                	lw	ra,204(sp)
   17dbc:	442e                	lw	s0,200(sp)
   17dbe:	449e                	lw	s1,196(sp)
   17dc0:	490e                	lw	s2,192(sp)
   17dc2:	59fa                	lw	s3,188(sp)
   17dc4:	6169                	addi	sp,sp,208
   17dc6:	8082                	ret

00017dc8 <_ZN20complex_dynamic_type3app17hb0caf90333ae4b9fE>:
   17dc8:	7131                	addi	sp,sp,-192
   17dca:	df06                	sw	ra,188(sp)
   17dcc:	dd22                	sw	s0,184(sp)
   17dce:	db26                	sw	s1,180(sp)
   17dd0:	d94a                	sw	s2,176(sp)
   17dd2:	d74e                	sw	s3,172(sp)
   17dd4:	892a                	mv	s2,a0
   17dd6:	4489                	li	s1,2
   17dd8:	00910523          	sb	s1,10(sp)
   17ddc:	00b10413          	addi	s0,sp,11
   17de0:	05100613          	li	a2,81
   17de4:	8522                	mv	a0,s0
   17de6:	00008097          	auipc	ra,0x8
   17dea:	e36080e7          	jalr	-458(ra) # 1fc1c <memcpy>
   17dee:	05d10993          	addi	s3,sp,93
   17df2:	04f00613          	li	a2,79
   17df6:	854e                	mv	a0,s3
   17df8:	4581                	li	a1,0
   17dfa:	00008097          	auipc	ra,0x8
   17dfe:	db6080e7          	jalr	-586(ra) # 1fbb0 <memset>
   17e02:	8622                	mv	a2,s0
   17e04:	04910e23          	sb	s1,92(sp)
   17e08:	6505                	lui	a0,0x1
   17e0a:	4791                	li	a5,4
   17e0c:	4589                	li	a1,2
   17e0e:	e1650513          	addi	a0,a0,-490 # e16 <.Lline_table_start1+0xbeb>
   17e12:	05100693          	li	a3,81
   17e16:	4711                	li	a4,4
   17e18:	00000073          	ecall
   17e1c:	00950463          	beq	a0,s1,17e24 <_ZN20complex_dynamic_type3app17hb0caf90333ae4b9fE+0x5c>
   17e20:	00f10523          	sb	a5,10(sp)
   17e24:	4609                	li	a2,2
   17e26:	00c51463          	bne	a0,a2,17e2e <_ZN20complex_dynamic_type3app17hb0caf90333ae4b9fE+0x66>
   17e2a:	4785                	li	a5,1
   17e2c:	a859                	j	17ec2 <_ZN20complex_dynamic_type3app17hb0caf90333ae4b9fE+0xfa>
   17e2e:	05c14503          	lbu	a0,92(sp)
   17e32:	4785                	li	a5,1
   17e34:	02c51363          	bne	a0,a2,17e5a <_ZN20complex_dynamic_type3app17hb0caf90333ae4b9fE+0x92>
   17e38:	864e                	mv	a2,s3
   17e3a:	6505                	lui	a0,0x1
   17e3c:	4591                	li	a1,4
   17e3e:	04f00693          	li	a3,79
   17e42:	470d                	li	a4,3
   17e44:	e1650513          	addi	a0,a0,-490 # e16 <.Lline_table_start1+0xbeb>
   17e48:	4489                	li	s1,2
   17e4a:	00000073          	ecall
   17e4e:	460d                	li	a2,3
   17e50:	00951963          	bne	a0,s1,17e62 <_ZN20complex_dynamic_type3app17hb0caf90333ae4b9fE+0x9a>
   17e54:	4505                	li	a0,1
   17e56:	c911                	beqz	a0,17e6a <_ZN20complex_dynamic_type3app17hb0caf90333ae4b9fE+0xa2>
   17e58:	a0ad                	j	17ec2 <_ZN20complex_dynamic_type3app17hb0caf90333ae4b9fE+0xfa>
   17e5a:	458d                	li	a1,3
   17e5c:	4505                	li	a0,1
   17e5e:	c511                	beqz	a0,17e6a <_ZN20complex_dynamic_type3app17hb0caf90333ae4b9fE+0xa2>
   17e60:	a08d                	j	17ec2 <_ZN20complex_dynamic_type3app17hb0caf90333ae4b9fE+0xfa>
   17e62:	4501                	li	a0,0
   17e64:	04c10e23          	sb	a2,92(sp)
   17e68:	ed29                	bnez	a0,17ec2 <_ZN20complex_dynamic_type3app17hb0caf90333ae4b9fE+0xfa>
   17e6a:	4681                	li	a3,0
   17e6c:	6505                	lui	a0,0x1
   17e6e:	4589                	li	a1,2
   17e70:	4611                	li	a2,4
   17e72:	4709                	li	a4,2
   17e74:	e1650513          	addi	a0,a0,-490 # e16 <.Lline_table_start1+0xbeb>
   17e78:	07f00493          	li	s1,127
   17e7c:	00000073          	ecall
   17e80:	4689                	li	a3,2
   17e82:	04a4f063          	bgeu	s1,a0,17ec2 <_ZN20complex_dynamic_type3app17hb0caf90333ae4b9fE+0xfa>
   17e86:	00a14603          	lbu	a2,10(sp)
   17e8a:	00d60a63          	beq	a2,a3,17e9e <_ZN20complex_dynamic_type3app17hb0caf90333ae4b9fE+0xd6>
   17e8e:	6505                	lui	a0,0x1
   17e90:	e1650513          	addi	a0,a0,-490 # e16 <.Lline_table_start1+0xbeb>
   17e94:	4589                	li	a1,2
   17e96:	00008097          	auipc	ra,0x8
   17e9a:	d0e080e7          	jalr	-754(ra) # 1fba4 <_ZN9allow_pin12dynamic_type7unshare17hb27555f71d22f3b2E>
   17e9e:	05c14603          	lbu	a2,92(sp)
   17ea2:	4409                	li	s0,2
   17ea4:	00810523          	sb	s0,10(sp)
   17ea8:	00860a63          	beq	a2,s0,17ebc <_ZN20complex_dynamic_type3app17hb0caf90333ae4b9fE+0xf4>
   17eac:	6505                	lui	a0,0x1
   17eae:	e1650513          	addi	a0,a0,-490 # e16 <.Lline_table_start1+0xbeb>
   17eb2:	4591                	li	a1,4
   17eb4:	00008097          	auipc	ra,0x8
   17eb8:	cf0080e7          	jalr	-784(ra) # 1fba4 <_ZN9allow_pin12dynamic_type7unshare17hb27555f71d22f3b2E>
   17ebc:	4781                	li	a5,0
   17ebe:	04810e23          	sb	s0,92(sp)
   17ec2:	cb85                	beqz	a5,17ef2 <_ZN20complex_dynamic_type3app17hb0caf90333ae4b9fE+0x12a>
   17ec4:	05c14603          	lbu	a2,92(sp)
   17ec8:	4505                	li	a0,1
   17eca:	4409                	li	s0,2
   17ecc:	00a90023          	sb	a0,0(s2)
   17ed0:	00b92223          	sw	a1,4(s2)
   17ed4:	00860a63          	beq	a2,s0,17ee8 <_ZN20complex_dynamic_type3app17hb0caf90333ae4b9fE+0x120>
   17ed8:	6505                	lui	a0,0x1
   17eda:	e1650513          	addi	a0,a0,-490 # e16 <.Lline_table_start1+0xbeb>
   17ede:	4591                	li	a1,4
   17ee0:	00008097          	auipc	ra,0x8
   17ee4:	cc4080e7          	jalr	-828(ra) # 1fba4 <_ZN9allow_pin12dynamic_type7unshare17hb27555f71d22f3b2E>
   17ee8:	00a14603          	lbu	a2,10(sp)
   17eec:	04861763          	bne	a2,s0,17f3a <_ZN20complex_dynamic_type3app17hb0caf90333ae4b9fE+0x172>
   17ef0:	a8a9                	j	17f4a <_ZN20complex_dynamic_type3app17hb0caf90333ae4b9fE+0x182>
   17ef2:	05c14403          	lbu	s0,92(sp)
   17ef6:	4489                	li	s1,2
   17ef8:	00940663          	beq	s0,s1,17f04 <_ZN20complex_dynamic_type3app17hb0caf90333ae4b9fE+0x13c>
   17efc:	000109b7          	lui	s3,0x10
   17f00:	42698993          	addi	s3,s3,1062 # 10426 <.Lanon.49c9f8067fe4468184af16d7576940c9.18>
   17f04:	00190513          	addi	a0,s2,1
   17f08:	04f00613          	li	a2,79
   17f0c:	85ce                	mv	a1,s3
   17f0e:	00008097          	auipc	ra,0x8
   17f12:	d0e080e7          	jalr	-754(ra) # 1fc1c <memcpy>
   17f16:	00090023          	sb	zero,0(s2)
   17f1a:	00940b63          	beq	s0,s1,17f30 <_ZN20complex_dynamic_type3app17hb0caf90333ae4b9fE+0x168>
   17f1e:	6505                	lui	a0,0x1
   17f20:	e1650513          	addi	a0,a0,-490 # e16 <.Lline_table_start1+0xbeb>
   17f24:	4591                	li	a1,4
   17f26:	8622                	mv	a2,s0
   17f28:	00008097          	auipc	ra,0x8
   17f2c:	c7c080e7          	jalr	-900(ra) # 1fba4 <_ZN9allow_pin12dynamic_type7unshare17hb27555f71d22f3b2E>
   17f30:	00a14603          	lbu	a2,10(sp)
   17f34:	4509                	li	a0,2
   17f36:	00a60a63          	beq	a2,a0,17f4a <_ZN20complex_dynamic_type3app17hb0caf90333ae4b9fE+0x182>
   17f3a:	6505                	lui	a0,0x1
   17f3c:	e1650513          	addi	a0,a0,-490 # e16 <.Lline_table_start1+0xbeb>
   17f40:	4589                	li	a1,2
   17f42:	00008097          	auipc	ra,0x8
   17f46:	c62080e7          	jalr	-926(ra) # 1fba4 <_ZN9allow_pin12dynamic_type7unshare17hb27555f71d22f3b2E>
   17f4a:	50fa                	lw	ra,188(sp)
   17f4c:	546a                	lw	s0,184(sp)
   17f4e:	54da                	lw	s1,180(sp)
   17f50:	594a                	lw	s2,176(sp)
   17f52:	59ba                	lw	s3,172(sp)
   17f54:	6129                	addi	sp,sp,192
   17f56:	8082                	ret

00017f58 <_ZN20complex_dynamic_type3app17hb7f39d0bd8e4b813E>:
   17f58:	7175                	addi	sp,sp,-144
   17f5a:	c706                	sw	ra,140(sp)
   17f5c:	c522                	sw	s0,136(sp)
   17f5e:	c326                	sw	s1,132(sp)
   17f60:	c14a                	sw	s2,128(sp)
   17f62:	dece                	sw	s3,124(sp)
   17f64:	892a                	mv	s2,a0
   17f66:	4489                	li	s1,2
   17f68:	00910123          	sb	s1,2(sp)
   17f6c:	00310413          	addi	s0,sp,3
   17f70:	02700613          	li	a2,39
   17f74:	8522                	mv	a0,s0
   17f76:	00008097          	auipc	ra,0x8
   17f7a:	ca6080e7          	jalr	-858(ra) # 1fc1c <memcpy>
   17f7e:	02b10993          	addi	s3,sp,43
   17f82:	05100613          	li	a2,81
   17f86:	854e                	mv	a0,s3
   17f88:	4581                	li	a1,0
   17f8a:	00008097          	auipc	ra,0x8
   17f8e:	c26080e7          	jalr	-986(ra) # 1fbb0 <memset>
   17f92:	4581                	li	a1,0
   17f94:	8622                	mv	a2,s0
   17f96:	02910523          	sb	s1,42(sp)
   17f9a:	6505                	lui	a0,0x1
   17f9c:	4791                	li	a5,4
   17f9e:	a3650513          	addi	a0,a0,-1482 # a36 <.Lline_table_start1+0x80b>
   17fa2:	02700693          	li	a3,39
   17fa6:	4711                	li	a4,4
   17fa8:	00000073          	ecall
   17fac:	00950463          	beq	a0,s1,17fb4 <_ZN20complex_dynamic_type3app17hb7f39d0bd8e4b813E+0x5c>
   17fb0:	00f10123          	sb	a5,2(sp)
   17fb4:	4609                	li	a2,2
   17fb6:	00c51463          	bne	a0,a2,17fbe <_ZN20complex_dynamic_type3app17hb7f39d0bd8e4b813E+0x66>
   17fba:	4785                	li	a5,1
   17fbc:	a859                	j	18052 <_ZN20complex_dynamic_type3app17hb7f39d0bd8e4b813E+0xfa>
   17fbe:	02a14503          	lbu	a0,42(sp)
   17fc2:	4785                	li	a5,1
   17fc4:	02c51363          	bne	a0,a2,17fea <_ZN20complex_dynamic_type3app17hb7f39d0bd8e4b813E+0x92>
   17fc8:	864e                	mv	a2,s3
   17fca:	6505                	lui	a0,0x1
   17fcc:	4591                	li	a1,4
   17fce:	05100693          	li	a3,81
   17fd2:	470d                	li	a4,3
   17fd4:	a3650513          	addi	a0,a0,-1482 # a36 <.Lline_table_start1+0x80b>
   17fd8:	4489                	li	s1,2
   17fda:	00000073          	ecall
   17fde:	460d                	li	a2,3
   17fe0:	00951963          	bne	a0,s1,17ff2 <_ZN20complex_dynamic_type3app17hb7f39d0bd8e4b813E+0x9a>
   17fe4:	4505                	li	a0,1
   17fe6:	c911                	beqz	a0,17ffa <_ZN20complex_dynamic_type3app17hb7f39d0bd8e4b813E+0xa2>
   17fe8:	a0ad                	j	18052 <_ZN20complex_dynamic_type3app17hb7f39d0bd8e4b813E+0xfa>
   17fea:	458d                	li	a1,3
   17fec:	4505                	li	a0,1
   17fee:	c511                	beqz	a0,17ffa <_ZN20complex_dynamic_type3app17hb7f39d0bd8e4b813E+0xa2>
   17ff0:	a08d                	j	18052 <_ZN20complex_dynamic_type3app17hb7f39d0bd8e4b813E+0xfa>
   17ff2:	4501                	li	a0,0
   17ff4:	02c10523          	sb	a2,42(sp)
   17ff8:	ed29                	bnez	a0,18052 <_ZN20complex_dynamic_type3app17hb7f39d0bd8e4b813E+0xfa>
   17ffa:	4581                	li	a1,0
   17ffc:	4681                	li	a3,0
   17ffe:	6505                	lui	a0,0x1
   18000:	4611                	li	a2,4
   18002:	4709                	li	a4,2
   18004:	a3650513          	addi	a0,a0,-1482 # a36 <.Lline_table_start1+0x80b>
   18008:	07f00493          	li	s1,127
   1800c:	00000073          	ecall
   18010:	4689                	li	a3,2
   18012:	04a4f063          	bgeu	s1,a0,18052 <_ZN20complex_dynamic_type3app17hb7f39d0bd8e4b813E+0xfa>
   18016:	00214603          	lbu	a2,2(sp)
   1801a:	00d60a63          	beq	a2,a3,1802e <_ZN20complex_dynamic_type3app17hb7f39d0bd8e4b813E+0xd6>
   1801e:	6505                	lui	a0,0x1
   18020:	a3650513          	addi	a0,a0,-1482 # a36 <.Lline_table_start1+0x80b>
   18024:	4581                	li	a1,0
   18026:	00008097          	auipc	ra,0x8
   1802a:	b7e080e7          	jalr	-1154(ra) # 1fba4 <_ZN9allow_pin12dynamic_type7unshare17hb27555f71d22f3b2E>
   1802e:	02a14603          	lbu	a2,42(sp)
   18032:	4409                	li	s0,2
   18034:	00810123          	sb	s0,2(sp)
   18038:	00860a63          	beq	a2,s0,1804c <_ZN20complex_dynamic_type3app17hb7f39d0bd8e4b813E+0xf4>
   1803c:	6505                	lui	a0,0x1
   1803e:	a3650513          	addi	a0,a0,-1482 # a36 <.Lline_table_start1+0x80b>
   18042:	4591                	li	a1,4
   18044:	00008097          	auipc	ra,0x8
   18048:	b60080e7          	jalr	-1184(ra) # 1fba4 <_ZN9allow_pin12dynamic_type7unshare17hb27555f71d22f3b2E>
   1804c:	4781                	li	a5,0
   1804e:	02810523          	sb	s0,42(sp)
   18052:	cb85                	beqz	a5,18082 <_ZN20complex_dynamic_type3app17hb7f39d0bd8e4b813E+0x12a>
   18054:	02a14603          	lbu	a2,42(sp)
   18058:	4505                	li	a0,1
   1805a:	4409                	li	s0,2
   1805c:	00a90023          	sb	a0,0(s2)
   18060:	00b92223          	sw	a1,4(s2)
   18064:	00860a63          	beq	a2,s0,18078 <_ZN20complex_dynamic_type3app17hb7f39d0bd8e4b813E+0x120>
   18068:	6505                	lui	a0,0x1
   1806a:	a3650513          	addi	a0,a0,-1482 # a36 <.Lline_table_start1+0x80b>
   1806e:	4591                	li	a1,4
   18070:	00008097          	auipc	ra,0x8
   18074:	b34080e7          	jalr	-1228(ra) # 1fba4 <_ZN9allow_pin12dynamic_type7unshare17hb27555f71d22f3b2E>
   18078:	00214603          	lbu	a2,2(sp)
   1807c:	04861763          	bne	a2,s0,180ca <_ZN20complex_dynamic_type3app17hb7f39d0bd8e4b813E+0x172>
   18080:	a8a9                	j	180da <_ZN20complex_dynamic_type3app17hb7f39d0bd8e4b813E+0x182>
   18082:	02a14403          	lbu	s0,42(sp)
   18086:	4489                	li	s1,2
   18088:	00940663          	beq	s0,s1,18094 <_ZN20complex_dynamic_type3app17hb7f39d0bd8e4b813E+0x13c>
   1808c:	000109b7          	lui	s3,0x10
   18090:	27098993          	addi	s3,s3,624 # 10270 <.Lanon.49c9f8067fe4468184af16d7576940c9.10>
   18094:	00190513          	addi	a0,s2,1
   18098:	05100613          	li	a2,81
   1809c:	85ce                	mv	a1,s3
   1809e:	00008097          	auipc	ra,0x8
   180a2:	b7e080e7          	jalr	-1154(ra) # 1fc1c <memcpy>
   180a6:	00090023          	sb	zero,0(s2)
   180aa:	00940b63          	beq	s0,s1,180c0 <_ZN20complex_dynamic_type3app17hb7f39d0bd8e4b813E+0x168>
   180ae:	6505                	lui	a0,0x1
   180b0:	a3650513          	addi	a0,a0,-1482 # a36 <.Lline_table_start1+0x80b>
   180b4:	4591                	li	a1,4
   180b6:	8622                	mv	a2,s0
   180b8:	00008097          	auipc	ra,0x8
   180bc:	aec080e7          	jalr	-1300(ra) # 1fba4 <_ZN9allow_pin12dynamic_type7unshare17hb27555f71d22f3b2E>
   180c0:	00214603          	lbu	a2,2(sp)
   180c4:	4509                	li	a0,2
   180c6:	00a60a63          	beq	a2,a0,180da <_ZN20complex_dynamic_type3app17hb7f39d0bd8e4b813E+0x182>
   180ca:	6505                	lui	a0,0x1
   180cc:	a3650513          	addi	a0,a0,-1482 # a36 <.Lline_table_start1+0x80b>
   180d0:	4581                	li	a1,0
   180d2:	00008097          	auipc	ra,0x8
   180d6:	ad2080e7          	jalr	-1326(ra) # 1fba4 <_ZN9allow_pin12dynamic_type7unshare17hb27555f71d22f3b2E>
   180da:	40ba                	lw	ra,140(sp)
   180dc:	442a                	lw	s0,136(sp)
   180de:	449a                	lw	s1,132(sp)
   180e0:	490a                	lw	s2,128(sp)
   180e2:	59f6                	lw	s3,124(sp)
   180e4:	6149                	addi	sp,sp,144
   180e6:	8082                	ret

000180e8 <_ZN20complex_dynamic_type3app17hbde4a83ae108b15cE>:
   180e8:	715d                	addi	sp,sp,-80
   180ea:	c686                	sw	ra,76(sp)
   180ec:	c4a2                	sw	s0,72(sp)
   180ee:	c2a6                	sw	s1,68(sp)
   180f0:	c0ca                	sw	s2,64(sp)
   180f2:	de4e                	sw	s3,60(sp)
   180f4:	892a                	mv	s2,a0
   180f6:	4489                	li	s1,2
   180f8:	00910623          	sb	s1,12(sp)
   180fc:	00d10413          	addi	s0,sp,13
   18100:	4635                	li	a2,13
   18102:	8522                	mv	a0,s0
   18104:	00008097          	auipc	ra,0x8
   18108:	b18080e7          	jalr	-1256(ra) # 1fc1c <memcpy>
   1810c:	01b10993          	addi	s3,sp,27
   18110:	02100613          	li	a2,33
   18114:	854e                	mv	a0,s3
   18116:	4581                	li	a1,0
   18118:	00008097          	auipc	ra,0x8
   1811c:	a98080e7          	jalr	-1384(ra) # 1fbb0 <memset>
   18120:	4581                	li	a1,0
   18122:	8622                	mv	a2,s0
   18124:	00910d23          	sb	s1,26(sp)
   18128:	6505                	lui	a0,0x1
   1812a:	4791                	li	a5,4
   1812c:	6b050513          	addi	a0,a0,1712 # 16b0 <.Lline_table_start1+0x1485>
   18130:	46b5                	li	a3,13
   18132:	4711                	li	a4,4
   18134:	00000073          	ecall
   18138:	00950463          	beq	a0,s1,18140 <_ZN20complex_dynamic_type3app17hbde4a83ae108b15cE+0x58>
   1813c:	00f10623          	sb	a5,12(sp)
   18140:	4609                	li	a2,2
   18142:	00c51463          	bne	a0,a2,1814a <_ZN20complex_dynamic_type3app17hbde4a83ae108b15cE+0x62>
   18146:	4785                	li	a5,1
   18148:	a859                	j	181de <_ZN20complex_dynamic_type3app17hbde4a83ae108b15cE+0xf6>
   1814a:	01a14503          	lbu	a0,26(sp)
   1814e:	4785                	li	a5,1
   18150:	02c51363          	bne	a0,a2,18176 <_ZN20complex_dynamic_type3app17hbde4a83ae108b15cE+0x8e>
   18154:	4581                	li	a1,0
   18156:	864e                	mv	a2,s3
   18158:	6505                	lui	a0,0x1
   1815a:	02100693          	li	a3,33
   1815e:	470d                	li	a4,3
   18160:	6b050513          	addi	a0,a0,1712 # 16b0 <.Lline_table_start1+0x1485>
   18164:	4489                	li	s1,2
   18166:	00000073          	ecall
   1816a:	460d                	li	a2,3
   1816c:	00951963          	bne	a0,s1,1817e <_ZN20complex_dynamic_type3app17hbde4a83ae108b15cE+0x96>
   18170:	4505                	li	a0,1
   18172:	c911                	beqz	a0,18186 <_ZN20complex_dynamic_type3app17hbde4a83ae108b15cE+0x9e>
   18174:	a0ad                	j	181de <_ZN20complex_dynamic_type3app17hbde4a83ae108b15cE+0xf6>
   18176:	458d                	li	a1,3
   18178:	4505                	li	a0,1
   1817a:	c511                	beqz	a0,18186 <_ZN20complex_dynamic_type3app17hbde4a83ae108b15cE+0x9e>
   1817c:	a08d                	j	181de <_ZN20complex_dynamic_type3app17hbde4a83ae108b15cE+0xf6>
   1817e:	4501                	li	a0,0
   18180:	00c10d23          	sb	a2,26(sp)
   18184:	ed29                	bnez	a0,181de <_ZN20complex_dynamic_type3app17hbde4a83ae108b15cE+0xf6>
   18186:	4581                	li	a1,0
   18188:	4601                	li	a2,0
   1818a:	4681                	li	a3,0
   1818c:	6505                	lui	a0,0x1
   1818e:	4709                	li	a4,2
   18190:	6b050513          	addi	a0,a0,1712 # 16b0 <.Lline_table_start1+0x1485>
   18194:	07f00493          	li	s1,127
   18198:	00000073          	ecall
   1819c:	4689                	li	a3,2
   1819e:	04a4f063          	bgeu	s1,a0,181de <_ZN20complex_dynamic_type3app17hbde4a83ae108b15cE+0xf6>
   181a2:	00c14603          	lbu	a2,12(sp)
   181a6:	00d60a63          	beq	a2,a3,181ba <_ZN20complex_dynamic_type3app17hbde4a83ae108b15cE+0xd2>
   181aa:	6505                	lui	a0,0x1
   181ac:	6b050513          	addi	a0,a0,1712 # 16b0 <.Lline_table_start1+0x1485>
   181b0:	4581                	li	a1,0
   181b2:	00008097          	auipc	ra,0x8
   181b6:	9f2080e7          	jalr	-1550(ra) # 1fba4 <_ZN9allow_pin12dynamic_type7unshare17hb27555f71d22f3b2E>
   181ba:	01a14603          	lbu	a2,26(sp)
   181be:	4409                	li	s0,2
   181c0:	00810623          	sb	s0,12(sp)
   181c4:	00860a63          	beq	a2,s0,181d8 <_ZN20complex_dynamic_type3app17hbde4a83ae108b15cE+0xf0>
   181c8:	6505                	lui	a0,0x1
   181ca:	6b050513          	addi	a0,a0,1712 # 16b0 <.Lline_table_start1+0x1485>
   181ce:	4581                	li	a1,0
   181d0:	00008097          	auipc	ra,0x8
   181d4:	9d4080e7          	jalr	-1580(ra) # 1fba4 <_ZN9allow_pin12dynamic_type7unshare17hb27555f71d22f3b2E>
   181d8:	4781                	li	a5,0
   181da:	00810d23          	sb	s0,26(sp)
   181de:	cb85                	beqz	a5,1820e <_ZN20complex_dynamic_type3app17hbde4a83ae108b15cE+0x126>
   181e0:	01a14603          	lbu	a2,26(sp)
   181e4:	4505                	li	a0,1
   181e6:	4409                	li	s0,2
   181e8:	00a90023          	sb	a0,0(s2)
   181ec:	00b92223          	sw	a1,4(s2)
   181f0:	00860a63          	beq	a2,s0,18204 <_ZN20complex_dynamic_type3app17hbde4a83ae108b15cE+0x11c>
   181f4:	6505                	lui	a0,0x1
   181f6:	6b050513          	addi	a0,a0,1712 # 16b0 <.Lline_table_start1+0x1485>
   181fa:	4581                	li	a1,0
   181fc:	00008097          	auipc	ra,0x8
   18200:	9a8080e7          	jalr	-1624(ra) # 1fba4 <_ZN9allow_pin12dynamic_type7unshare17hb27555f71d22f3b2E>
   18204:	00c14603          	lbu	a2,12(sp)
   18208:	04861763          	bne	a2,s0,18256 <_ZN20complex_dynamic_type3app17hbde4a83ae108b15cE+0x16e>
   1820c:	a8a9                	j	18266 <_ZN20complex_dynamic_type3app17hbde4a83ae108b15cE+0x17e>
   1820e:	01a14403          	lbu	s0,26(sp)
   18212:	4489                	li	s1,2
   18214:	00940663          	beq	s0,s1,18220 <_ZN20complex_dynamic_type3app17hbde4a83ae108b15cE+0x138>
   18218:	000109b7          	lui	s3,0x10
   1821c:	75a98993          	addi	s3,s3,1882 # 1075a <.Lanon.49c9f8067fe4468184af16d7576940c9.34>
   18220:	00190513          	addi	a0,s2,1
   18224:	02100613          	li	a2,33
   18228:	85ce                	mv	a1,s3
   1822a:	00008097          	auipc	ra,0x8
   1822e:	9f2080e7          	jalr	-1550(ra) # 1fc1c <memcpy>
   18232:	00090023          	sb	zero,0(s2)
   18236:	00940b63          	beq	s0,s1,1824c <_ZN20complex_dynamic_type3app17hbde4a83ae108b15cE+0x164>
   1823a:	6505                	lui	a0,0x1
   1823c:	6b050513          	addi	a0,a0,1712 # 16b0 <.Lline_table_start1+0x1485>
   18240:	4581                	li	a1,0
   18242:	8622                	mv	a2,s0
   18244:	00008097          	auipc	ra,0x8
   18248:	960080e7          	jalr	-1696(ra) # 1fba4 <_ZN9allow_pin12dynamic_type7unshare17hb27555f71d22f3b2E>
   1824c:	00c14603          	lbu	a2,12(sp)
   18250:	4509                	li	a0,2
   18252:	00a60a63          	beq	a2,a0,18266 <_ZN20complex_dynamic_type3app17hbde4a83ae108b15cE+0x17e>
   18256:	6505                	lui	a0,0x1
   18258:	6b050513          	addi	a0,a0,1712 # 16b0 <.Lline_table_start1+0x1485>
   1825c:	4581                	li	a1,0
   1825e:	00008097          	auipc	ra,0x8
   18262:	946080e7          	jalr	-1722(ra) # 1fba4 <_ZN9allow_pin12dynamic_type7unshare17hb27555f71d22f3b2E>
   18266:	40b6                	lw	ra,76(sp)
   18268:	4426                	lw	s0,72(sp)
   1826a:	4496                	lw	s1,68(sp)
   1826c:	4906                	lw	s2,64(sp)
   1826e:	59f2                	lw	s3,60(sp)
   18270:	6161                	addi	sp,sp,80
   18272:	8082                	ret

00018274 <_ZN20complex_dynamic_type3app17hc481d979b18db746E>:
   18274:	715d                	addi	sp,sp,-80
   18276:	c686                	sw	ra,76(sp)
   18278:	c4a2                	sw	s0,72(sp)
   1827a:	c2a6                	sw	s1,68(sp)
   1827c:	c0ca                	sw	s2,64(sp)
   1827e:	de4e                	sw	s3,60(sp)
   18280:	892a                	mv	s2,a0
   18282:	4489                	li	s1,2
   18284:	009102a3          	sb	s1,5(sp)
   18288:	00610413          	addi	s0,sp,6
   1828c:	4669                	li	a2,26
   1828e:	8522                	mv	a0,s0
   18290:	00008097          	auipc	ra,0x8
   18294:	98c080e7          	jalr	-1652(ra) # 1fc1c <memcpy>
   18298:	02110993          	addi	s3,sp,33
   1829c:	466d                	li	a2,27
   1829e:	854e                	mv	a0,s3
   182a0:	4581                	li	a1,0
   182a2:	00008097          	auipc	ra,0x8
   182a6:	90e080e7          	jalr	-1778(ra) # 1fbb0 <memset>
   182aa:	8622                	mv	a2,s0
   182ac:	02910023          	sb	s1,32(sp)
   182b0:	6509                	lui	a0,0x2
   182b2:	4791                	li	a5,4
   182b4:	4595                	li	a1,5
   182b6:	cce50513          	addi	a0,a0,-818 # 1cce <.Lline_table_start1+0x1aa3>
   182ba:	46e9                	li	a3,26
   182bc:	4711                	li	a4,4
   182be:	00000073          	ecall
   182c2:	00950463          	beq	a0,s1,182ca <_ZN20complex_dynamic_type3app17hc481d979b18db746E+0x56>
   182c6:	00f102a3          	sb	a5,5(sp)
   182ca:	4609                	li	a2,2
   182cc:	00c51463          	bne	a0,a2,182d4 <_ZN20complex_dynamic_type3app17hc481d979b18db746E+0x60>
   182d0:	4785                	li	a5,1
   182d2:	a851                	j	18366 <_ZN20complex_dynamic_type3app17hc481d979b18db746E+0xf2>
   182d4:	02014503          	lbu	a0,32(sp)
   182d8:	4785                	li	a5,1
   182da:	02c51263          	bne	a0,a2,182fe <_ZN20complex_dynamic_type3app17hc481d979b18db746E+0x8a>
   182de:	864e                	mv	a2,s3
   182e0:	6509                	lui	a0,0x2
   182e2:	4409                	li	s0,2
   182e4:	448d                	li	s1,3
   182e6:	4589                	li	a1,2
   182e8:	cce50513          	addi	a0,a0,-818 # 1cce <.Lline_table_start1+0x1aa3>
   182ec:	46ed                	li	a3,27
   182ee:	470d                	li	a4,3
   182f0:	00000073          	ecall
   182f4:	00851963          	bne	a0,s0,18306 <_ZN20complex_dynamic_type3app17hc481d979b18db746E+0x92>
   182f8:	4505                	li	a0,1
   182fa:	c911                	beqz	a0,1830e <_ZN20complex_dynamic_type3app17hc481d979b18db746E+0x9a>
   182fc:	a0ad                	j	18366 <_ZN20complex_dynamic_type3app17hc481d979b18db746E+0xf2>
   182fe:	458d                	li	a1,3
   18300:	4505                	li	a0,1
   18302:	c511                	beqz	a0,1830e <_ZN20complex_dynamic_type3app17hc481d979b18db746E+0x9a>
   18304:	a08d                	j	18366 <_ZN20complex_dynamic_type3app17hc481d979b18db746E+0xf2>
   18306:	4501                	li	a0,0
   18308:	02910023          	sb	s1,32(sp)
   1830c:	ed29                	bnez	a0,18366 <_ZN20complex_dynamic_type3app17hc481d979b18db746E+0xf2>
   1830e:	4681                	li	a3,0
   18310:	6509                	lui	a0,0x2
   18312:	4595                	li	a1,5
   18314:	4609                	li	a2,2
   18316:	4709                	li	a4,2
   18318:	cce50513          	addi	a0,a0,-818 # 1cce <.Lline_table_start1+0x1aa3>
   1831c:	07f00493          	li	s1,127
   18320:	00000073          	ecall
   18324:	4689                	li	a3,2
   18326:	04a4f063          	bgeu	s1,a0,18366 <_ZN20complex_dynamic_type3app17hc481d979b18db746E+0xf2>
   1832a:	00514603          	lbu	a2,5(sp)
   1832e:	00d60a63          	beq	a2,a3,18342 <_ZN20complex_dynamic_type3app17hc481d979b18db746E+0xce>
   18332:	6509                	lui	a0,0x2
   18334:	cce50513          	addi	a0,a0,-818 # 1cce <.Lline_table_start1+0x1aa3>
   18338:	4595                	li	a1,5
   1833a:	00008097          	auipc	ra,0x8
   1833e:	86a080e7          	jalr	-1942(ra) # 1fba4 <_ZN9allow_pin12dynamic_type7unshare17hb27555f71d22f3b2E>
   18342:	02014603          	lbu	a2,32(sp)
   18346:	4409                	li	s0,2
   18348:	008102a3          	sb	s0,5(sp)
   1834c:	00860a63          	beq	a2,s0,18360 <_ZN20complex_dynamic_type3app17hc481d979b18db746E+0xec>
   18350:	6509                	lui	a0,0x2
   18352:	cce50513          	addi	a0,a0,-818 # 1cce <.Lline_table_start1+0x1aa3>
   18356:	4589                	li	a1,2
   18358:	00008097          	auipc	ra,0x8
   1835c:	84c080e7          	jalr	-1972(ra) # 1fba4 <_ZN9allow_pin12dynamic_type7unshare17hb27555f71d22f3b2E>
   18360:	4781                	li	a5,0
   18362:	02810023          	sb	s0,32(sp)
   18366:	cb85                	beqz	a5,18396 <_ZN20complex_dynamic_type3app17hc481d979b18db746E+0x122>
   18368:	02014603          	lbu	a2,32(sp)
   1836c:	4505                	li	a0,1
   1836e:	4409                	li	s0,2
   18370:	00a90023          	sb	a0,0(s2)
   18374:	00b92223          	sw	a1,4(s2)
   18378:	00860a63          	beq	a2,s0,1838c <_ZN20complex_dynamic_type3app17hc481d979b18db746E+0x118>
   1837c:	6509                	lui	a0,0x2
   1837e:	cce50513          	addi	a0,a0,-818 # 1cce <.Lline_table_start1+0x1aa3>
   18382:	4589                	li	a1,2
   18384:	00008097          	auipc	ra,0x8
   18388:	820080e7          	jalr	-2016(ra) # 1fba4 <_ZN9allow_pin12dynamic_type7unshare17hb27555f71d22f3b2E>
   1838c:	00514603          	lbu	a2,5(sp)
   18390:	04861663          	bne	a2,s0,183dc <_ZN20complex_dynamic_type3app17hc481d979b18db746E+0x168>
   18394:	a8a1                	j	183ec <_ZN20complex_dynamic_type3app17hc481d979b18db746E+0x178>
   18396:	02014403          	lbu	s0,32(sp)
   1839a:	4489                	li	s1,2
   1839c:	00940663          	beq	s0,s1,183a8 <_ZN20complex_dynamic_type3app17hc481d979b18db746E+0x134>
   183a0:	000109b7          	lui	s3,0x10
   183a4:	40b98993          	addi	s3,s3,1035 # 1040b <.Lanon.49c9f8067fe4468184af16d7576940c9.17>
   183a8:	00190513          	addi	a0,s2,1
   183ac:	466d                	li	a2,27
   183ae:	85ce                	mv	a1,s3
   183b0:	00008097          	auipc	ra,0x8
   183b4:	86c080e7          	jalr	-1940(ra) # 1fc1c <memcpy>
   183b8:	00090023          	sb	zero,0(s2)
   183bc:	00940b63          	beq	s0,s1,183d2 <_ZN20complex_dynamic_type3app17hc481d979b18db746E+0x15e>
   183c0:	6509                	lui	a0,0x2
   183c2:	cce50513          	addi	a0,a0,-818 # 1cce <.Lline_table_start1+0x1aa3>
   183c6:	4589                	li	a1,2
   183c8:	8622                	mv	a2,s0
   183ca:	00007097          	auipc	ra,0x7
   183ce:	7da080e7          	jalr	2010(ra) # 1fba4 <_ZN9allow_pin12dynamic_type7unshare17hb27555f71d22f3b2E>
   183d2:	00514603          	lbu	a2,5(sp)
   183d6:	4509                	li	a0,2
   183d8:	00a60a63          	beq	a2,a0,183ec <_ZN20complex_dynamic_type3app17hc481d979b18db746E+0x178>
   183dc:	6509                	lui	a0,0x2
   183de:	cce50513          	addi	a0,a0,-818 # 1cce <.Lline_table_start1+0x1aa3>
   183e2:	4595                	li	a1,5
   183e4:	00007097          	auipc	ra,0x7
   183e8:	7c0080e7          	jalr	1984(ra) # 1fba4 <_ZN9allow_pin12dynamic_type7unshare17hb27555f71d22f3b2E>
   183ec:	40b6                	lw	ra,76(sp)
   183ee:	4426                	lw	s0,72(sp)
   183f0:	4496                	lw	s1,68(sp)
   183f2:	4906                	lw	s2,64(sp)
   183f4:	59f2                	lw	s3,60(sp)
   183f6:	6161                	addi	sp,sp,80
   183f8:	8082                	ret

000183fa <_ZN20complex_dynamic_type3app17hc53da207678c35a2E>:
   183fa:	7175                	addi	sp,sp,-144
   183fc:	c706                	sw	ra,140(sp)
   183fe:	c522                	sw	s0,136(sp)
   18400:	c326                	sw	s1,132(sp)
   18402:	c14a                	sw	s2,128(sp)
   18404:	dece                	sw	s3,124(sp)
   18406:	892a                	mv	s2,a0
   18408:	4489                	li	s1,2
   1840a:	00910723          	sb	s1,14(sp)
   1840e:	00f10413          	addi	s0,sp,15
   18412:	03800613          	li	a2,56
   18416:	8522                	mv	a0,s0
   18418:	00008097          	auipc	ra,0x8
   1841c:	804080e7          	jalr	-2044(ra) # 1fc1c <memcpy>
   18420:	04810993          	addi	s3,sp,72
   18424:	03400613          	li	a2,52
   18428:	854e                	mv	a0,s3
   1842a:	4581                	li	a1,0
   1842c:	00007097          	auipc	ra,0x7
   18430:	784080e7          	jalr	1924(ra) # 1fbb0 <memset>
   18434:	8622                	mv	a2,s0
   18436:	049103a3          	sb	s1,71(sp)
   1843a:	4791                	li	a5,4
   1843c:	12e00513          	li	a0,302
   18440:	45a1                	li	a1,8
   18442:	03800693          	li	a3,56
   18446:	4711                	li	a4,4
   18448:	00000073          	ecall
   1844c:	00950463          	beq	a0,s1,18454 <_ZN20complex_dynamic_type3app17hc53da207678c35a2E+0x5a>
   18450:	00f10723          	sb	a5,14(sp)
   18454:	4609                	li	a2,2
   18456:	00c51463          	bne	a0,a2,1845e <_ZN20complex_dynamic_type3app17hc53da207678c35a2E+0x64>
   1845a:	4785                	li	a5,1
   1845c:	a079                	j	184ea <_ZN20complex_dynamic_type3app17hc53da207678c35a2E+0xf0>
   1845e:	04714503          	lbu	a0,71(sp)
   18462:	4785                	li	a5,1
   18464:	02c51263          	bne	a0,a2,18488 <_ZN20complex_dynamic_type3app17hc53da207678c35a2E+0x8e>
   18468:	864e                	mv	a2,s3
   1846a:	12e00513          	li	a0,302
   1846e:	458d                	li	a1,3
   18470:	03400693          	li	a3,52
   18474:	470d                	li	a4,3
   18476:	4489                	li	s1,2
   18478:	00000073          	ecall
   1847c:	460d                	li	a2,3
   1847e:	00951963          	bne	a0,s1,18490 <_ZN20complex_dynamic_type3app17hc53da207678c35a2E+0x96>
   18482:	4505                	li	a0,1
   18484:	c911                	beqz	a0,18498 <_ZN20complex_dynamic_type3app17hc53da207678c35a2E+0x9e>
   18486:	a095                	j	184ea <_ZN20complex_dynamic_type3app17hc53da207678c35a2E+0xf0>
   18488:	458d                	li	a1,3
   1848a:	4505                	li	a0,1
   1848c:	c511                	beqz	a0,18498 <_ZN20complex_dynamic_type3app17hc53da207678c35a2E+0x9e>
   1848e:	a8b1                	j	184ea <_ZN20complex_dynamic_type3app17hc53da207678c35a2E+0xf0>
   18490:	4501                	li	a0,0
   18492:	04c103a3          	sb	a2,71(sp)
   18496:	e931                	bnez	a0,184ea <_ZN20complex_dynamic_type3app17hc53da207678c35a2E+0xf0>
   18498:	4681                	li	a3,0
   1849a:	12e00513          	li	a0,302
   1849e:	45a1                	li	a1,8
   184a0:	460d                	li	a2,3
   184a2:	4709                	li	a4,2
   184a4:	07f00493          	li	s1,127
   184a8:	00000073          	ecall
   184ac:	4689                	li	a3,2
   184ae:	02a4fe63          	bgeu	s1,a0,184ea <_ZN20complex_dynamic_type3app17hc53da207678c35a2E+0xf0>
   184b2:	00e14603          	lbu	a2,14(sp)
   184b6:	00d60963          	beq	a2,a3,184c8 <_ZN20complex_dynamic_type3app17hc53da207678c35a2E+0xce>
   184ba:	12e00513          	li	a0,302
   184be:	45a1                	li	a1,8
   184c0:	00007097          	auipc	ra,0x7
   184c4:	6e4080e7          	jalr	1764(ra) # 1fba4 <_ZN9allow_pin12dynamic_type7unshare17hb27555f71d22f3b2E>
   184c8:	04714603          	lbu	a2,71(sp)
   184cc:	4409                	li	s0,2
   184ce:	00810723          	sb	s0,14(sp)
   184d2:	00860963          	beq	a2,s0,184e4 <_ZN20complex_dynamic_type3app17hc53da207678c35a2E+0xea>
   184d6:	12e00513          	li	a0,302
   184da:	458d                	li	a1,3
   184dc:	00007097          	auipc	ra,0x7
   184e0:	6c8080e7          	jalr	1736(ra) # 1fba4 <_ZN9allow_pin12dynamic_type7unshare17hb27555f71d22f3b2E>
   184e4:	4781                	li	a5,0
   184e6:	048103a3          	sb	s0,71(sp)
   184ea:	c79d                	beqz	a5,18518 <_ZN20complex_dynamic_type3app17hc53da207678c35a2E+0x11e>
   184ec:	04714603          	lbu	a2,71(sp)
   184f0:	4505                	li	a0,1
   184f2:	4409                	li	s0,2
   184f4:	00a90023          	sb	a0,0(s2)
   184f8:	00b92223          	sw	a1,4(s2)
   184fc:	00860963          	beq	a2,s0,1850e <_ZN20complex_dynamic_type3app17hc53da207678c35a2E+0x114>
   18500:	12e00513          	li	a0,302
   18504:	458d                	li	a1,3
   18506:	00007097          	auipc	ra,0x7
   1850a:	69e080e7          	jalr	1694(ra) # 1fba4 <_ZN9allow_pin12dynamic_type7unshare17hb27555f71d22f3b2E>
   1850e:	00e14603          	lbu	a2,14(sp)
   18512:	04861663          	bne	a2,s0,1855e <_ZN20complex_dynamic_type3app17hc53da207678c35a2E+0x164>
   18516:	a899                	j	1856c <_ZN20complex_dynamic_type3app17hc53da207678c35a2E+0x172>
   18518:	04714403          	lbu	s0,71(sp)
   1851c:	4489                	li	s1,2
   1851e:	00940663          	beq	s0,s1,1852a <_ZN20complex_dynamic_type3app17hc53da207678c35a2E+0x130>
   18522:	000119b7          	lui	s3,0x11
   18526:	97d98993          	addi	s3,s3,-1667 # 1097d <.Lanon.49c9f8067fe4468184af16d7576940c9.45>
   1852a:	00190513          	addi	a0,s2,1
   1852e:	03400613          	li	a2,52
   18532:	85ce                	mv	a1,s3
   18534:	00007097          	auipc	ra,0x7
   18538:	6e8080e7          	jalr	1768(ra) # 1fc1c <memcpy>
   1853c:	00090023          	sb	zero,0(s2)
   18540:	00940a63          	beq	s0,s1,18554 <_ZN20complex_dynamic_type3app17hc53da207678c35a2E+0x15a>
   18544:	12e00513          	li	a0,302
   18548:	458d                	li	a1,3
   1854a:	8622                	mv	a2,s0
   1854c:	00007097          	auipc	ra,0x7
   18550:	658080e7          	jalr	1624(ra) # 1fba4 <_ZN9allow_pin12dynamic_type7unshare17hb27555f71d22f3b2E>
   18554:	00e14603          	lbu	a2,14(sp)
   18558:	4509                	li	a0,2
   1855a:	00a60963          	beq	a2,a0,1856c <_ZN20complex_dynamic_type3app17hc53da207678c35a2E+0x172>
   1855e:	12e00513          	li	a0,302
   18562:	45a1                	li	a1,8
   18564:	00007097          	auipc	ra,0x7
   18568:	640080e7          	jalr	1600(ra) # 1fba4 <_ZN9allow_pin12dynamic_type7unshare17hb27555f71d22f3b2E>
   1856c:	40ba                	lw	ra,140(sp)
   1856e:	442a                	lw	s0,136(sp)
   18570:	449a                	lw	s1,132(sp)
   18572:	490a                	lw	s2,128(sp)
   18574:	59f6                	lw	s3,124(sp)
   18576:	6149                	addi	sp,sp,144
   18578:	8082                	ret

0001857a <_ZN20complex_dynamic_type3app17hc67de0c2f55de343E>:
   1857a:	7159                	addi	sp,sp,-112
   1857c:	d686                	sw	ra,108(sp)
   1857e:	d4a2                	sw	s0,104(sp)
   18580:	d2a6                	sw	s1,100(sp)
   18582:	d0ca                	sw	s2,96(sp)
   18584:	cece                	sw	s3,92(sp)
   18586:	892a                	mv	s2,a0
   18588:	4489                	li	s1,2
   1858a:	009105a3          	sb	s1,11(sp)
   1858e:	0060                	addi	s0,sp,12
   18590:	02500613          	li	a2,37
   18594:	8522                	mv	a0,s0
   18596:	00007097          	auipc	ra,0x7
   1859a:	686080e7          	jalr	1670(ra) # 1fc1c <memcpy>
   1859e:	03210993          	addi	s3,sp,50
   185a2:	02a00613          	li	a2,42
   185a6:	854e                	mv	a0,s3
   185a8:	4581                	li	a1,0
   185aa:	00007097          	auipc	ra,0x7
   185ae:	606080e7          	jalr	1542(ra) # 1fbb0 <memset>
   185b2:	4581                	li	a1,0
   185b4:	8622                	mv	a2,s0
   185b6:	029108a3          	sb	s1,49(sp)
   185ba:	6505                	lui	a0,0x1
   185bc:	4791                	li	a5,4
   185be:	93c50513          	addi	a0,a0,-1732 # 93c <.Lline_table_start1+0x711>
   185c2:	02500693          	li	a3,37
   185c6:	4711                	li	a4,4
   185c8:	00000073          	ecall
   185cc:	00950463          	beq	a0,s1,185d4 <_ZN20complex_dynamic_type3app17hc67de0c2f55de343E+0x5a>
   185d0:	00f105a3          	sb	a5,11(sp)
   185d4:	4609                	li	a2,2
   185d6:	00c51463          	bne	a0,a2,185de <_ZN20complex_dynamic_type3app17hc67de0c2f55de343E+0x64>
   185da:	4785                	li	a5,1
   185dc:	a859                	j	18672 <_ZN20complex_dynamic_type3app17hc67de0c2f55de343E+0xf8>
   185de:	03114503          	lbu	a0,49(sp)
   185e2:	4785                	li	a5,1
   185e4:	02c51363          	bne	a0,a2,1860a <_ZN20complex_dynamic_type3app17hc67de0c2f55de343E+0x90>
   185e8:	864e                	mv	a2,s3
   185ea:	6505                	lui	a0,0x1
   185ec:	458d                	li	a1,3
   185ee:	02a00693          	li	a3,42
   185f2:	470d                	li	a4,3
   185f4:	93c50513          	addi	a0,a0,-1732 # 93c <.Lline_table_start1+0x711>
   185f8:	4489                	li	s1,2
   185fa:	00000073          	ecall
   185fe:	460d                	li	a2,3
   18600:	00951963          	bne	a0,s1,18612 <_ZN20complex_dynamic_type3app17hc67de0c2f55de343E+0x98>
   18604:	4505                	li	a0,1
   18606:	c911                	beqz	a0,1861a <_ZN20complex_dynamic_type3app17hc67de0c2f55de343E+0xa0>
   18608:	a0ad                	j	18672 <_ZN20complex_dynamic_type3app17hc67de0c2f55de343E+0xf8>
   1860a:	458d                	li	a1,3
   1860c:	4505                	li	a0,1
   1860e:	c511                	beqz	a0,1861a <_ZN20complex_dynamic_type3app17hc67de0c2f55de343E+0xa0>
   18610:	a08d                	j	18672 <_ZN20complex_dynamic_type3app17hc67de0c2f55de343E+0xf8>
   18612:	4501                	li	a0,0
   18614:	02c108a3          	sb	a2,49(sp)
   18618:	ed29                	bnez	a0,18672 <_ZN20complex_dynamic_type3app17hc67de0c2f55de343E+0xf8>
   1861a:	4581                	li	a1,0
   1861c:	4681                	li	a3,0
   1861e:	6505                	lui	a0,0x1
   18620:	460d                	li	a2,3
   18622:	4709                	li	a4,2
   18624:	93c50513          	addi	a0,a0,-1732 # 93c <.Lline_table_start1+0x711>
   18628:	07f00493          	li	s1,127
   1862c:	00000073          	ecall
   18630:	4689                	li	a3,2
   18632:	04a4f063          	bgeu	s1,a0,18672 <_ZN20complex_dynamic_type3app17hc67de0c2f55de343E+0xf8>
   18636:	00b14603          	lbu	a2,11(sp)
   1863a:	00d60a63          	beq	a2,a3,1864e <_ZN20complex_dynamic_type3app17hc67de0c2f55de343E+0xd4>
   1863e:	6505                	lui	a0,0x1
   18640:	93c50513          	addi	a0,a0,-1732 # 93c <.Lline_table_start1+0x711>
   18644:	4581                	li	a1,0
   18646:	00007097          	auipc	ra,0x7
   1864a:	55e080e7          	jalr	1374(ra) # 1fba4 <_ZN9allow_pin12dynamic_type7unshare17hb27555f71d22f3b2E>
   1864e:	03114603          	lbu	a2,49(sp)
   18652:	4409                	li	s0,2
   18654:	008105a3          	sb	s0,11(sp)
   18658:	00860a63          	beq	a2,s0,1866c <_ZN20complex_dynamic_type3app17hc67de0c2f55de343E+0xf2>
   1865c:	6505                	lui	a0,0x1
   1865e:	93c50513          	addi	a0,a0,-1732 # 93c <.Lline_table_start1+0x711>
   18662:	458d                	li	a1,3
   18664:	00007097          	auipc	ra,0x7
   18668:	540080e7          	jalr	1344(ra) # 1fba4 <_ZN9allow_pin12dynamic_type7unshare17hb27555f71d22f3b2E>
   1866c:	4781                	li	a5,0
   1866e:	028108a3          	sb	s0,49(sp)
   18672:	cb85                	beqz	a5,186a2 <_ZN20complex_dynamic_type3app17hc67de0c2f55de343E+0x128>
   18674:	03114603          	lbu	a2,49(sp)
   18678:	4505                	li	a0,1
   1867a:	4409                	li	s0,2
   1867c:	00a90023          	sb	a0,0(s2)
   18680:	00b92223          	sw	a1,4(s2)
   18684:	00860a63          	beq	a2,s0,18698 <_ZN20complex_dynamic_type3app17hc67de0c2f55de343E+0x11e>
   18688:	6505                	lui	a0,0x1
   1868a:	93c50513          	addi	a0,a0,-1732 # 93c <.Lline_table_start1+0x711>
   1868e:	458d                	li	a1,3
   18690:	00007097          	auipc	ra,0x7
   18694:	514080e7          	jalr	1300(ra) # 1fba4 <_ZN9allow_pin12dynamic_type7unshare17hb27555f71d22f3b2E>
   18698:	00b14603          	lbu	a2,11(sp)
   1869c:	04861763          	bne	a2,s0,186ea <_ZN20complex_dynamic_type3app17hc67de0c2f55de343E+0x170>
   186a0:	a8a9                	j	186fa <_ZN20complex_dynamic_type3app17hc67de0c2f55de343E+0x180>
   186a2:	03114403          	lbu	s0,49(sp)
   186a6:	4489                	li	s1,2
   186a8:	00940663          	beq	s0,s1,186b4 <_ZN20complex_dynamic_type3app17hc67de0c2f55de343E+0x13a>
   186ac:	000109b7          	lui	s3,0x10
   186b0:	66f98993          	addi	s3,s3,1647 # 1066f <.Lanon.49c9f8067fe4468184af16d7576940c9.29>
   186b4:	00190513          	addi	a0,s2,1
   186b8:	02a00613          	li	a2,42
   186bc:	85ce                	mv	a1,s3
   186be:	00007097          	auipc	ra,0x7
   186c2:	55e080e7          	jalr	1374(ra) # 1fc1c <memcpy>
   186c6:	00090023          	sb	zero,0(s2)
   186ca:	00940b63          	beq	s0,s1,186e0 <_ZN20complex_dynamic_type3app17hc67de0c2f55de343E+0x166>
   186ce:	6505                	lui	a0,0x1
   186d0:	93c50513          	addi	a0,a0,-1732 # 93c <.Lline_table_start1+0x711>
   186d4:	458d                	li	a1,3
   186d6:	8622                	mv	a2,s0
   186d8:	00007097          	auipc	ra,0x7
   186dc:	4cc080e7          	jalr	1228(ra) # 1fba4 <_ZN9allow_pin12dynamic_type7unshare17hb27555f71d22f3b2E>
   186e0:	00b14603          	lbu	a2,11(sp)
   186e4:	4509                	li	a0,2
   186e6:	00a60a63          	beq	a2,a0,186fa <_ZN20complex_dynamic_type3app17hc67de0c2f55de343E+0x180>
   186ea:	6505                	lui	a0,0x1
   186ec:	93c50513          	addi	a0,a0,-1732 # 93c <.Lline_table_start1+0x711>
   186f0:	4581                	li	a1,0
   186f2:	00007097          	auipc	ra,0x7
   186f6:	4b2080e7          	jalr	1202(ra) # 1fba4 <_ZN9allow_pin12dynamic_type7unshare17hb27555f71d22f3b2E>
   186fa:	50b6                	lw	ra,108(sp)
   186fc:	5426                	lw	s0,104(sp)
   186fe:	5496                	lw	s1,100(sp)
   18700:	5906                	lw	s2,96(sp)
   18702:	49f6                	lw	s3,92(sp)
   18704:	6165                	addi	sp,sp,112
   18706:	8082                	ret

00018708 <_ZN20complex_dynamic_type3app17hc89aadb1ded4434dE>:
   18708:	7119                	addi	sp,sp,-128
   1870a:	de86                	sw	ra,124(sp)
   1870c:	dca2                	sw	s0,120(sp)
   1870e:	daa6                	sw	s1,116(sp)
   18710:	d8ca                	sw	s2,112(sp)
   18712:	d6ce                	sw	s3,108(sp)
   18714:	892a                	mv	s2,a0
   18716:	4489                	li	s1,2
   18718:	00910723          	sb	s1,14(sp)
   1871c:	00f10413          	addi	s0,sp,15
   18720:	466d                	li	a2,27
   18722:	8522                	mv	a0,s0
   18724:	00007097          	auipc	ra,0x7
   18728:	4f8080e7          	jalr	1272(ra) # 1fc1c <memcpy>
   1872c:	02b10993          	addi	s3,sp,43
   18730:	04100613          	li	a2,65
   18734:	854e                	mv	a0,s3
   18736:	4581                	li	a1,0
   18738:	00007097          	auipc	ra,0x7
   1873c:	478080e7          	jalr	1144(ra) # 1fbb0 <memset>
   18740:	8622                	mv	a2,s0
   18742:	02910523          	sb	s1,42(sp)
   18746:	4791                	li	a5,4
   18748:	14000513          	li	a0,320
   1874c:	45a1                	li	a1,8
   1874e:	46ed                	li	a3,27
   18750:	4711                	li	a4,4
   18752:	00000073          	ecall
   18756:	00950463          	beq	a0,s1,1875e <_ZN20complex_dynamic_type3app17hc89aadb1ded4434dE+0x56>
   1875a:	00f10723          	sb	a5,14(sp)
   1875e:	4609                	li	a2,2
   18760:	00c51463          	bne	a0,a2,18768 <_ZN20complex_dynamic_type3app17hc89aadb1ded4434dE+0x60>
   18764:	4785                	li	a5,1
   18766:	a079                	j	187f4 <_ZN20complex_dynamic_type3app17hc89aadb1ded4434dE+0xec>
   18768:	02a14503          	lbu	a0,42(sp)
   1876c:	4785                	li	a5,1
   1876e:	02c51263          	bne	a0,a2,18792 <_ZN20complex_dynamic_type3app17hc89aadb1ded4434dE+0x8a>
   18772:	864e                	mv	a2,s3
   18774:	14000513          	li	a0,320
   18778:	45a5                	li	a1,9
   1877a:	04100693          	li	a3,65
   1877e:	470d                	li	a4,3
   18780:	4489                	li	s1,2
   18782:	00000073          	ecall
   18786:	460d                	li	a2,3
   18788:	00951963          	bne	a0,s1,1879a <_ZN20complex_dynamic_type3app17hc89aadb1ded4434dE+0x92>
   1878c:	4505                	li	a0,1
   1878e:	c911                	beqz	a0,187a2 <_ZN20complex_dynamic_type3app17hc89aadb1ded4434dE+0x9a>
   18790:	a095                	j	187f4 <_ZN20complex_dynamic_type3app17hc89aadb1ded4434dE+0xec>
   18792:	458d                	li	a1,3
   18794:	4505                	li	a0,1
   18796:	c511                	beqz	a0,187a2 <_ZN20complex_dynamic_type3app17hc89aadb1ded4434dE+0x9a>
   18798:	a8b1                	j	187f4 <_ZN20complex_dynamic_type3app17hc89aadb1ded4434dE+0xec>
   1879a:	4501                	li	a0,0
   1879c:	02c10523          	sb	a2,42(sp)
   187a0:	e931                	bnez	a0,187f4 <_ZN20complex_dynamic_type3app17hc89aadb1ded4434dE+0xec>
   187a2:	4681                	li	a3,0
   187a4:	14000513          	li	a0,320
   187a8:	45a1                	li	a1,8
   187aa:	4625                	li	a2,9
   187ac:	4709                	li	a4,2
   187ae:	07f00493          	li	s1,127
   187b2:	00000073          	ecall
   187b6:	4689                	li	a3,2
   187b8:	02a4fe63          	bgeu	s1,a0,187f4 <_ZN20complex_dynamic_type3app17hc89aadb1ded4434dE+0xec>
   187bc:	00e14603          	lbu	a2,14(sp)
   187c0:	00d60963          	beq	a2,a3,187d2 <_ZN20complex_dynamic_type3app17hc89aadb1ded4434dE+0xca>
   187c4:	14000513          	li	a0,320
   187c8:	45a1                	li	a1,8
   187ca:	00007097          	auipc	ra,0x7
   187ce:	3da080e7          	jalr	986(ra) # 1fba4 <_ZN9allow_pin12dynamic_type7unshare17hb27555f71d22f3b2E>
   187d2:	02a14603          	lbu	a2,42(sp)
   187d6:	4409                	li	s0,2
   187d8:	00810723          	sb	s0,14(sp)
   187dc:	00860963          	beq	a2,s0,187ee <_ZN20complex_dynamic_type3app17hc89aadb1ded4434dE+0xe6>
   187e0:	14000513          	li	a0,320
   187e4:	45a5                	li	a1,9
   187e6:	00007097          	auipc	ra,0x7
   187ea:	3be080e7          	jalr	958(ra) # 1fba4 <_ZN9allow_pin12dynamic_type7unshare17hb27555f71d22f3b2E>
   187ee:	4781                	li	a5,0
   187f0:	02810523          	sb	s0,42(sp)
   187f4:	c79d                	beqz	a5,18822 <_ZN20complex_dynamic_type3app17hc89aadb1ded4434dE+0x11a>
   187f6:	02a14603          	lbu	a2,42(sp)
   187fa:	4505                	li	a0,1
   187fc:	4409                	li	s0,2
   187fe:	00a90023          	sb	a0,0(s2)
   18802:	00b92223          	sw	a1,4(s2)
   18806:	00860963          	beq	a2,s0,18818 <_ZN20complex_dynamic_type3app17hc89aadb1ded4434dE+0x110>
   1880a:	14000513          	li	a0,320
   1880e:	45a5                	li	a1,9
   18810:	00007097          	auipc	ra,0x7
   18814:	394080e7          	jalr	916(ra) # 1fba4 <_ZN9allow_pin12dynamic_type7unshare17hb27555f71d22f3b2E>
   18818:	00e14603          	lbu	a2,14(sp)
   1881c:	04861663          	bne	a2,s0,18868 <_ZN20complex_dynamic_type3app17hc89aadb1ded4434dE+0x160>
   18820:	a899                	j	18876 <_ZN20complex_dynamic_type3app17hc89aadb1ded4434dE+0x16e>
   18822:	02a14403          	lbu	s0,42(sp)
   18826:	4489                	li	s1,2
   18828:	00940663          	beq	s0,s1,18834 <_ZN20complex_dynamic_type3app17hc89aadb1ded4434dE+0x12c>
   1882c:	000109b7          	lui	s3,0x10
   18830:	0fb98993          	addi	s3,s3,251 # 100fb <.Lanon.49c9f8067fe4468184af16d7576940c9.1>
   18834:	00190513          	addi	a0,s2,1
   18838:	04100613          	li	a2,65
   1883c:	85ce                	mv	a1,s3
   1883e:	00007097          	auipc	ra,0x7
   18842:	3de080e7          	jalr	990(ra) # 1fc1c <memcpy>
   18846:	00090023          	sb	zero,0(s2)
   1884a:	00940a63          	beq	s0,s1,1885e <_ZN20complex_dynamic_type3app17hc89aadb1ded4434dE+0x156>
   1884e:	14000513          	li	a0,320
   18852:	45a5                	li	a1,9
   18854:	8622                	mv	a2,s0
   18856:	00007097          	auipc	ra,0x7
   1885a:	34e080e7          	jalr	846(ra) # 1fba4 <_ZN9allow_pin12dynamic_type7unshare17hb27555f71d22f3b2E>
   1885e:	00e14603          	lbu	a2,14(sp)
   18862:	4509                	li	a0,2
   18864:	00a60963          	beq	a2,a0,18876 <_ZN20complex_dynamic_type3app17hc89aadb1ded4434dE+0x16e>
   18868:	14000513          	li	a0,320
   1886c:	45a1                	li	a1,8
   1886e:	00007097          	auipc	ra,0x7
   18872:	336080e7          	jalr	822(ra) # 1fba4 <_ZN9allow_pin12dynamic_type7unshare17hb27555f71d22f3b2E>
   18876:	50f6                	lw	ra,124(sp)
   18878:	5466                	lw	s0,120(sp)
   1887a:	54d6                	lw	s1,116(sp)
   1887c:	5946                	lw	s2,112(sp)
   1887e:	59b6                	lw	s3,108(sp)
   18880:	6109                	addi	sp,sp,128
   18882:	8082                	ret

00018884 <_ZN20complex_dynamic_type3app17hc9ae79c398a2a908E>:
   18884:	7171                	addi	sp,sp,-176
   18886:	d706                	sw	ra,172(sp)
   18888:	d522                	sw	s0,168(sp)
   1888a:	d326                	sw	s1,164(sp)
   1888c:	d14a                	sw	s2,160(sp)
   1888e:	cf4e                	sw	s3,156(sp)
   18890:	892a                	mv	s2,a0
   18892:	4489                	li	s1,2
   18894:	00910723          	sb	s1,14(sp)
   18898:	00f10413          	addi	s0,sp,15
   1889c:	05000613          	li	a2,80
   188a0:	8522                	mv	a0,s0
   188a2:	00007097          	auipc	ra,0x7
   188a6:	37a080e7          	jalr	890(ra) # 1fc1c <memcpy>
   188aa:	06010993          	addi	s3,sp,96
   188ae:	03c00613          	li	a2,60
   188b2:	854e                	mv	a0,s3
   188b4:	4581                	li	a1,0
   188b6:	00007097          	auipc	ra,0x7
   188ba:	2fa080e7          	jalr	762(ra) # 1fbb0 <memset>
   188be:	8622                	mv	a2,s0
   188c0:	04910fa3          	sb	s1,95(sp)
   188c4:	6505                	lui	a0,0x1
   188c6:	4791                	li	a5,4
   188c8:	458d                	li	a1,3
   188ca:	d7a50513          	addi	a0,a0,-646 # d7a <.Lline_table_start1+0xb4f>
   188ce:	05000693          	li	a3,80
   188d2:	4711                	li	a4,4
   188d4:	00000073          	ecall
   188d8:	00950463          	beq	a0,s1,188e0 <_ZN20complex_dynamic_type3app17hc9ae79c398a2a908E+0x5c>
   188dc:	00f10723          	sb	a5,14(sp)
   188e0:	4609                	li	a2,2
   188e2:	00c51463          	bne	a0,a2,188ea <_ZN20complex_dynamic_type3app17hc9ae79c398a2a908E+0x66>
   188e6:	4785                	li	a5,1
   188e8:	a859                	j	1897e <_ZN20complex_dynamic_type3app17hc9ae79c398a2a908E+0xfa>
   188ea:	05f14503          	lbu	a0,95(sp)
   188ee:	4785                	li	a5,1
   188f0:	02c51363          	bne	a0,a2,18916 <_ZN20complex_dynamic_type3app17hc9ae79c398a2a908E+0x92>
   188f4:	864e                	mv	a2,s3
   188f6:	6505                	lui	a0,0x1
   188f8:	45a5                	li	a1,9
   188fa:	03c00693          	li	a3,60
   188fe:	470d                	li	a4,3
   18900:	d7a50513          	addi	a0,a0,-646 # d7a <.Lline_table_start1+0xb4f>
   18904:	4489                	li	s1,2
   18906:	00000073          	ecall
   1890a:	460d                	li	a2,3
   1890c:	00951963          	bne	a0,s1,1891e <_ZN20complex_dynamic_type3app17hc9ae79c398a2a908E+0x9a>
   18910:	4505                	li	a0,1
   18912:	c911                	beqz	a0,18926 <_ZN20complex_dynamic_type3app17hc9ae79c398a2a908E+0xa2>
   18914:	a0ad                	j	1897e <_ZN20complex_dynamic_type3app17hc9ae79c398a2a908E+0xfa>
   18916:	458d                	li	a1,3
   18918:	4505                	li	a0,1
   1891a:	c511                	beqz	a0,18926 <_ZN20complex_dynamic_type3app17hc9ae79c398a2a908E+0xa2>
   1891c:	a08d                	j	1897e <_ZN20complex_dynamic_type3app17hc9ae79c398a2a908E+0xfa>
   1891e:	4501                	li	a0,0
   18920:	04c10fa3          	sb	a2,95(sp)
   18924:	ed29                	bnez	a0,1897e <_ZN20complex_dynamic_type3app17hc9ae79c398a2a908E+0xfa>
   18926:	4681                	li	a3,0
   18928:	6505                	lui	a0,0x1
   1892a:	458d                	li	a1,3
   1892c:	4625                	li	a2,9
   1892e:	4709                	li	a4,2
   18930:	d7a50513          	addi	a0,a0,-646 # d7a <.Lline_table_start1+0xb4f>
   18934:	07f00493          	li	s1,127
   18938:	00000073          	ecall
   1893c:	4689                	li	a3,2
   1893e:	04a4f063          	bgeu	s1,a0,1897e <_ZN20complex_dynamic_type3app17hc9ae79c398a2a908E+0xfa>
   18942:	00e14603          	lbu	a2,14(sp)
   18946:	00d60a63          	beq	a2,a3,1895a <_ZN20complex_dynamic_type3app17hc9ae79c398a2a908E+0xd6>
   1894a:	6505                	lui	a0,0x1
   1894c:	d7a50513          	addi	a0,a0,-646 # d7a <.Lline_table_start1+0xb4f>
   18950:	458d                	li	a1,3
   18952:	00007097          	auipc	ra,0x7
   18956:	252080e7          	jalr	594(ra) # 1fba4 <_ZN9allow_pin12dynamic_type7unshare17hb27555f71d22f3b2E>
   1895a:	05f14603          	lbu	a2,95(sp)
   1895e:	4409                	li	s0,2
   18960:	00810723          	sb	s0,14(sp)
   18964:	00860a63          	beq	a2,s0,18978 <_ZN20complex_dynamic_type3app17hc9ae79c398a2a908E+0xf4>
   18968:	6505                	lui	a0,0x1
   1896a:	d7a50513          	addi	a0,a0,-646 # d7a <.Lline_table_start1+0xb4f>
   1896e:	45a5                	li	a1,9
   18970:	00007097          	auipc	ra,0x7
   18974:	234080e7          	jalr	564(ra) # 1fba4 <_ZN9allow_pin12dynamic_type7unshare17hb27555f71d22f3b2E>
   18978:	4781                	li	a5,0
   1897a:	04810fa3          	sb	s0,95(sp)
   1897e:	cb85                	beqz	a5,189ae <_ZN20complex_dynamic_type3app17hc9ae79c398a2a908E+0x12a>
   18980:	05f14603          	lbu	a2,95(sp)
   18984:	4505                	li	a0,1
   18986:	4409                	li	s0,2
   18988:	00a90023          	sb	a0,0(s2)
   1898c:	00b92223          	sw	a1,4(s2)
   18990:	00860a63          	beq	a2,s0,189a4 <_ZN20complex_dynamic_type3app17hc9ae79c398a2a908E+0x120>
   18994:	6505                	lui	a0,0x1
   18996:	d7a50513          	addi	a0,a0,-646 # d7a <.Lline_table_start1+0xb4f>
   1899a:	45a5                	li	a1,9
   1899c:	00007097          	auipc	ra,0x7
   189a0:	208080e7          	jalr	520(ra) # 1fba4 <_ZN9allow_pin12dynamic_type7unshare17hb27555f71d22f3b2E>
   189a4:	00e14603          	lbu	a2,14(sp)
   189a8:	04861763          	bne	a2,s0,189f6 <_ZN20complex_dynamic_type3app17hc9ae79c398a2a908E+0x172>
   189ac:	a8a9                	j	18a06 <_ZN20complex_dynamic_type3app17hc9ae79c398a2a908E+0x182>
   189ae:	05f14403          	lbu	s0,95(sp)
   189b2:	4489                	li	s1,2
   189b4:	00940663          	beq	s0,s1,189c0 <_ZN20complex_dynamic_type3app17hc9ae79c398a2a908E+0x13c>
   189b8:	000109b7          	lui	s3,0x10
   189bc:	6f298993          	addi	s3,s3,1778 # 106f2 <.Lanon.49c9f8067fe4468184af16d7576940c9.32>
   189c0:	00190513          	addi	a0,s2,1
   189c4:	03c00613          	li	a2,60
   189c8:	85ce                	mv	a1,s3
   189ca:	00007097          	auipc	ra,0x7
   189ce:	252080e7          	jalr	594(ra) # 1fc1c <memcpy>
   189d2:	00090023          	sb	zero,0(s2)
   189d6:	00940b63          	beq	s0,s1,189ec <_ZN20complex_dynamic_type3app17hc9ae79c398a2a908E+0x168>
   189da:	6505                	lui	a0,0x1
   189dc:	d7a50513          	addi	a0,a0,-646 # d7a <.Lline_table_start1+0xb4f>
   189e0:	45a5                	li	a1,9
   189e2:	8622                	mv	a2,s0
   189e4:	00007097          	auipc	ra,0x7
   189e8:	1c0080e7          	jalr	448(ra) # 1fba4 <_ZN9allow_pin12dynamic_type7unshare17hb27555f71d22f3b2E>
   189ec:	00e14603          	lbu	a2,14(sp)
   189f0:	4509                	li	a0,2
   189f2:	00a60a63          	beq	a2,a0,18a06 <_ZN20complex_dynamic_type3app17hc9ae79c398a2a908E+0x182>
   189f6:	6505                	lui	a0,0x1
   189f8:	d7a50513          	addi	a0,a0,-646 # d7a <.Lline_table_start1+0xb4f>
   189fc:	458d                	li	a1,3
   189fe:	00007097          	auipc	ra,0x7
   18a02:	1a6080e7          	jalr	422(ra) # 1fba4 <_ZN9allow_pin12dynamic_type7unshare17hb27555f71d22f3b2E>
   18a06:	50ba                	lw	ra,172(sp)
   18a08:	542a                	lw	s0,168(sp)
   18a0a:	549a                	lw	s1,164(sp)
   18a0c:	590a                	lw	s2,160(sp)
   18a0e:	49fa                	lw	s3,156(sp)
   18a10:	614d                	addi	sp,sp,176
   18a12:	8082                	ret

00018a14 <_ZN20complex_dynamic_type3app17hd6e0a5ac0fe94969E>:
   18a14:	7171                	addi	sp,sp,-176
   18a16:	d706                	sw	ra,172(sp)
   18a18:	d522                	sw	s0,168(sp)
   18a1a:	d326                	sw	s1,164(sp)
   18a1c:	d14a                	sw	s2,160(sp)
   18a1e:	cf4e                	sw	s3,156(sp)
   18a20:	892a                	mv	s2,a0
   18a22:	4489                	li	s1,2
   18a24:	009105a3          	sb	s1,11(sp)
   18a28:	0060                	addi	s0,sp,12
   18a2a:	06300613          	li	a2,99
   18a2e:	8522                	mv	a0,s0
   18a30:	00007097          	auipc	ra,0x7
   18a34:	1ec080e7          	jalr	492(ra) # 1fc1c <memcpy>
   18a38:	07010993          	addi	s3,sp,112
   18a3c:	02c00613          	li	a2,44
   18a40:	854e                	mv	a0,s3
   18a42:	4581                	li	a1,0
   18a44:	00007097          	auipc	ra,0x7
   18a48:	16c080e7          	jalr	364(ra) # 1fbb0 <memset>
   18a4c:	8622                	mv	a2,s0
   18a4e:	069107a3          	sb	s1,111(sp)
   18a52:	4791                	li	a5,4
   18a54:	4561                	li	a0,24
   18a56:	4595                	li	a1,5
   18a58:	06300693          	li	a3,99
   18a5c:	4711                	li	a4,4
   18a5e:	00000073          	ecall
   18a62:	00950463          	beq	a0,s1,18a6a <_ZN20complex_dynamic_type3app17hd6e0a5ac0fe94969E+0x56>
   18a66:	00f105a3          	sb	a5,11(sp)
   18a6a:	4609                	li	a2,2
   18a6c:	00c51463          	bne	a0,a2,18a74 <_ZN20complex_dynamic_type3app17hd6e0a5ac0fe94969E+0x60>
   18a70:	4785                	li	a5,1
   18a72:	a059                	j	18af8 <_ZN20complex_dynamic_type3app17hd6e0a5ac0fe94969E+0xe4>
   18a74:	06f14503          	lbu	a0,111(sp)
   18a78:	4785                	li	a5,1
   18a7a:	02c51163          	bne	a0,a2,18a9c <_ZN20complex_dynamic_type3app17hd6e0a5ac0fe94969E+0x88>
   18a7e:	864e                	mv	a2,s3
   18a80:	4561                	li	a0,24
   18a82:	458d                	li	a1,3
   18a84:	02c00693          	li	a3,44
   18a88:	470d                	li	a4,3
   18a8a:	4489                	li	s1,2
   18a8c:	00000073          	ecall
   18a90:	460d                	li	a2,3
   18a92:	00951963          	bne	a0,s1,18aa4 <_ZN20complex_dynamic_type3app17hd6e0a5ac0fe94969E+0x90>
   18a96:	4505                	li	a0,1
   18a98:	c911                	beqz	a0,18aac <_ZN20complex_dynamic_type3app17hd6e0a5ac0fe94969E+0x98>
   18a9a:	a8b9                	j	18af8 <_ZN20complex_dynamic_type3app17hd6e0a5ac0fe94969E+0xe4>
   18a9c:	458d                	li	a1,3
   18a9e:	4505                	li	a0,1
   18aa0:	c511                	beqz	a0,18aac <_ZN20complex_dynamic_type3app17hd6e0a5ac0fe94969E+0x98>
   18aa2:	a899                	j	18af8 <_ZN20complex_dynamic_type3app17hd6e0a5ac0fe94969E+0xe4>
   18aa4:	4501                	li	a0,0
   18aa6:	06c107a3          	sb	a2,111(sp)
   18aaa:	e539                	bnez	a0,18af8 <_ZN20complex_dynamic_type3app17hd6e0a5ac0fe94969E+0xe4>
   18aac:	4681                	li	a3,0
   18aae:	4561                	li	a0,24
   18ab0:	4595                	li	a1,5
   18ab2:	460d                	li	a2,3
   18ab4:	4709                	li	a4,2
   18ab6:	07f00493          	li	s1,127
   18aba:	00000073          	ecall
   18abe:	4689                	li	a3,2
   18ac0:	02a4fc63          	bgeu	s1,a0,18af8 <_ZN20complex_dynamic_type3app17hd6e0a5ac0fe94969E+0xe4>
   18ac4:	00b14603          	lbu	a2,11(sp)
   18ac8:	00d60863          	beq	a2,a3,18ad8 <_ZN20complex_dynamic_type3app17hd6e0a5ac0fe94969E+0xc4>
   18acc:	4561                	li	a0,24
   18ace:	4595                	li	a1,5
   18ad0:	00007097          	auipc	ra,0x7
   18ad4:	0d4080e7          	jalr	212(ra) # 1fba4 <_ZN9allow_pin12dynamic_type7unshare17hb27555f71d22f3b2E>
   18ad8:	06f14603          	lbu	a2,111(sp)
   18adc:	4409                	li	s0,2
   18ade:	008105a3          	sb	s0,11(sp)
   18ae2:	00860863          	beq	a2,s0,18af2 <_ZN20complex_dynamic_type3app17hd6e0a5ac0fe94969E+0xde>
   18ae6:	4561                	li	a0,24
   18ae8:	458d                	li	a1,3
   18aea:	00007097          	auipc	ra,0x7
   18aee:	0ba080e7          	jalr	186(ra) # 1fba4 <_ZN9allow_pin12dynamic_type7unshare17hb27555f71d22f3b2E>
   18af2:	4781                	li	a5,0
   18af4:	068107a3          	sb	s0,111(sp)
   18af8:	c795                	beqz	a5,18b24 <_ZN20complex_dynamic_type3app17hd6e0a5ac0fe94969E+0x110>
   18afa:	06f14603          	lbu	a2,111(sp)
   18afe:	4505                	li	a0,1
   18b00:	4409                	li	s0,2
   18b02:	00a90023          	sb	a0,0(s2)
   18b06:	00b92223          	sw	a1,4(s2)
   18b0a:	00860863          	beq	a2,s0,18b1a <_ZN20complex_dynamic_type3app17hd6e0a5ac0fe94969E+0x106>
   18b0e:	4561                	li	a0,24
   18b10:	458d                	li	a1,3
   18b12:	00007097          	auipc	ra,0x7
   18b16:	092080e7          	jalr	146(ra) # 1fba4 <_ZN9allow_pin12dynamic_type7unshare17hb27555f71d22f3b2E>
   18b1a:	00b14603          	lbu	a2,11(sp)
   18b1e:	04861563          	bne	a2,s0,18b68 <_ZN20complex_dynamic_type3app17hd6e0a5ac0fe94969E+0x154>
   18b22:	a889                	j	18b74 <_ZN20complex_dynamic_type3app17hd6e0a5ac0fe94969E+0x160>
   18b24:	06f14403          	lbu	s0,111(sp)
   18b28:	4489                	li	s1,2
   18b2a:	00940663          	beq	s0,s1,18b36 <_ZN20complex_dynamic_type3app17hd6e0a5ac0fe94969E+0x122>
   18b2e:	000109b7          	lui	s3,0x10
   18b32:	72e98993          	addi	s3,s3,1838 # 1072e <.Lanon.49c9f8067fe4468184af16d7576940c9.33>
   18b36:	00190513          	addi	a0,s2,1
   18b3a:	02c00613          	li	a2,44
   18b3e:	85ce                	mv	a1,s3
   18b40:	00007097          	auipc	ra,0x7
   18b44:	0dc080e7          	jalr	220(ra) # 1fc1c <memcpy>
   18b48:	00090023          	sb	zero,0(s2)
   18b4c:	00940963          	beq	s0,s1,18b5e <_ZN20complex_dynamic_type3app17hd6e0a5ac0fe94969E+0x14a>
   18b50:	4561                	li	a0,24
   18b52:	458d                	li	a1,3
   18b54:	8622                	mv	a2,s0
   18b56:	00007097          	auipc	ra,0x7
   18b5a:	04e080e7          	jalr	78(ra) # 1fba4 <_ZN9allow_pin12dynamic_type7unshare17hb27555f71d22f3b2E>
   18b5e:	00b14603          	lbu	a2,11(sp)
   18b62:	4509                	li	a0,2
   18b64:	00a60863          	beq	a2,a0,18b74 <_ZN20complex_dynamic_type3app17hd6e0a5ac0fe94969E+0x160>
   18b68:	4561                	li	a0,24
   18b6a:	4595                	li	a1,5
   18b6c:	00007097          	auipc	ra,0x7
   18b70:	038080e7          	jalr	56(ra) # 1fba4 <_ZN9allow_pin12dynamic_type7unshare17hb27555f71d22f3b2E>
   18b74:	50ba                	lw	ra,172(sp)
   18b76:	542a                	lw	s0,168(sp)
   18b78:	549a                	lw	s1,164(sp)
   18b7a:	590a                	lw	s2,160(sp)
   18b7c:	49fa                	lw	s3,156(sp)
   18b7e:	614d                	addi	sp,sp,176
   18b80:	8082                	ret

00018b82 <_ZN20complex_dynamic_type3app17hd8fb5db84c6d1679E>:
   18b82:	7135                	addi	sp,sp,-160
   18b84:	cf06                	sw	ra,156(sp)
   18b86:	cd22                	sw	s0,152(sp)
   18b88:	cb26                	sw	s1,148(sp)
   18b8a:	c94a                	sw	s2,144(sp)
   18b8c:	c74e                	sw	s3,140(sp)
   18b8e:	892a                	mv	s2,a0
   18b90:	4489                	li	s1,2
   18b92:	009100a3          	sb	s1,1(sp)
   18b96:	00210413          	addi	s0,sp,2
   18b9a:	04d00613          	li	a2,77
   18b9e:	8522                	mv	a0,s0
   18ba0:	00007097          	auipc	ra,0x7
   18ba4:	07c080e7          	jalr	124(ra) # 1fc1c <memcpy>
   18ba8:	05010993          	addi	s3,sp,80
   18bac:	03c00613          	li	a2,60
   18bb0:	854e                	mv	a0,s3
   18bb2:	4581                	li	a1,0
   18bb4:	00007097          	auipc	ra,0x7
   18bb8:	ffc080e7          	jalr	-4(ra) # 1fbb0 <memset>
   18bbc:	8622                	mv	a2,s0
   18bbe:	049107a3          	sb	s1,79(sp)
   18bc2:	6509                	lui	a0,0x2
   18bc4:	4791                	li	a5,4
   18bc6:	4591                	li	a1,4
   18bc8:	1ab50513          	addi	a0,a0,427 # 21ab <.Lline_table_start1+0x1f80>
   18bcc:	04d00693          	li	a3,77
   18bd0:	4711                	li	a4,4
   18bd2:	00000073          	ecall
   18bd6:	00950463          	beq	a0,s1,18bde <_ZN20complex_dynamic_type3app17hd8fb5db84c6d1679E+0x5c>
   18bda:	00f100a3          	sb	a5,1(sp)
   18bde:	4609                	li	a2,2
   18be0:	00c51463          	bne	a0,a2,18be8 <_ZN20complex_dynamic_type3app17hd8fb5db84c6d1679E+0x66>
   18be4:	4785                	li	a5,1
   18be6:	a859                	j	18c7c <_ZN20complex_dynamic_type3app17hd8fb5db84c6d1679E+0xfa>
   18be8:	04f14503          	lbu	a0,79(sp)
   18bec:	4785                	li	a5,1
   18bee:	02c51363          	bne	a0,a2,18c14 <_ZN20complex_dynamic_type3app17hd8fb5db84c6d1679E+0x92>
   18bf2:	864e                	mv	a2,s3
   18bf4:	6509                	lui	a0,0x2
   18bf6:	45a5                	li	a1,9
   18bf8:	03c00693          	li	a3,60
   18bfc:	470d                	li	a4,3
   18bfe:	1ab50513          	addi	a0,a0,427 # 21ab <.Lline_table_start1+0x1f80>
   18c02:	4489                	li	s1,2
   18c04:	00000073          	ecall
   18c08:	460d                	li	a2,3
   18c0a:	00951963          	bne	a0,s1,18c1c <_ZN20complex_dynamic_type3app17hd8fb5db84c6d1679E+0x9a>
   18c0e:	4505                	li	a0,1
   18c10:	c911                	beqz	a0,18c24 <_ZN20complex_dynamic_type3app17hd8fb5db84c6d1679E+0xa2>
   18c12:	a0ad                	j	18c7c <_ZN20complex_dynamic_type3app17hd8fb5db84c6d1679E+0xfa>
   18c14:	458d                	li	a1,3
   18c16:	4505                	li	a0,1
   18c18:	c511                	beqz	a0,18c24 <_ZN20complex_dynamic_type3app17hd8fb5db84c6d1679E+0xa2>
   18c1a:	a08d                	j	18c7c <_ZN20complex_dynamic_type3app17hd8fb5db84c6d1679E+0xfa>
   18c1c:	4501                	li	a0,0
   18c1e:	04c107a3          	sb	a2,79(sp)
   18c22:	ed29                	bnez	a0,18c7c <_ZN20complex_dynamic_type3app17hd8fb5db84c6d1679E+0xfa>
   18c24:	4681                	li	a3,0
   18c26:	6509                	lui	a0,0x2
   18c28:	4591                	li	a1,4
   18c2a:	4625                	li	a2,9
   18c2c:	4709                	li	a4,2
   18c2e:	1ab50513          	addi	a0,a0,427 # 21ab <.Lline_table_start1+0x1f80>
   18c32:	07f00493          	li	s1,127
   18c36:	00000073          	ecall
   18c3a:	4689                	li	a3,2
   18c3c:	04a4f063          	bgeu	s1,a0,18c7c <_ZN20complex_dynamic_type3app17hd8fb5db84c6d1679E+0xfa>
   18c40:	00114603          	lbu	a2,1(sp)
   18c44:	00d60a63          	beq	a2,a3,18c58 <_ZN20complex_dynamic_type3app17hd8fb5db84c6d1679E+0xd6>
   18c48:	6509                	lui	a0,0x2
   18c4a:	1ab50513          	addi	a0,a0,427 # 21ab <.Lline_table_start1+0x1f80>
   18c4e:	4591                	li	a1,4
   18c50:	00007097          	auipc	ra,0x7
   18c54:	f54080e7          	jalr	-172(ra) # 1fba4 <_ZN9allow_pin12dynamic_type7unshare17hb27555f71d22f3b2E>
   18c58:	04f14603          	lbu	a2,79(sp)
   18c5c:	4409                	li	s0,2
   18c5e:	008100a3          	sb	s0,1(sp)
   18c62:	00860a63          	beq	a2,s0,18c76 <_ZN20complex_dynamic_type3app17hd8fb5db84c6d1679E+0xf4>
   18c66:	6509                	lui	a0,0x2
   18c68:	1ab50513          	addi	a0,a0,427 # 21ab <.Lline_table_start1+0x1f80>
   18c6c:	45a5                	li	a1,9
   18c6e:	00007097          	auipc	ra,0x7
   18c72:	f36080e7          	jalr	-202(ra) # 1fba4 <_ZN9allow_pin12dynamic_type7unshare17hb27555f71d22f3b2E>
   18c76:	4781                	li	a5,0
   18c78:	048107a3          	sb	s0,79(sp)
   18c7c:	cb85                	beqz	a5,18cac <_ZN20complex_dynamic_type3app17hd8fb5db84c6d1679E+0x12a>
   18c7e:	04f14603          	lbu	a2,79(sp)
   18c82:	4505                	li	a0,1
   18c84:	4409                	li	s0,2
   18c86:	00a90023          	sb	a0,0(s2)
   18c8a:	00b92223          	sw	a1,4(s2)
   18c8e:	00860a63          	beq	a2,s0,18ca2 <_ZN20complex_dynamic_type3app17hd8fb5db84c6d1679E+0x120>
   18c92:	6509                	lui	a0,0x2
   18c94:	1ab50513          	addi	a0,a0,427 # 21ab <.Lline_table_start1+0x1f80>
   18c98:	45a5                	li	a1,9
   18c9a:	00007097          	auipc	ra,0x7
   18c9e:	f0a080e7          	jalr	-246(ra) # 1fba4 <_ZN9allow_pin12dynamic_type7unshare17hb27555f71d22f3b2E>
   18ca2:	00114603          	lbu	a2,1(sp)
   18ca6:	04861763          	bne	a2,s0,18cf4 <_ZN20complex_dynamic_type3app17hd8fb5db84c6d1679E+0x172>
   18caa:	a8a9                	j	18d04 <_ZN20complex_dynamic_type3app17hd8fb5db84c6d1679E+0x182>
   18cac:	04f14403          	lbu	s0,79(sp)
   18cb0:	4489                	li	s1,2
   18cb2:	00940663          	beq	s0,s1,18cbe <_ZN20complex_dynamic_type3app17hd8fb5db84c6d1679E+0x13c>
   18cb6:	000109b7          	lui	s3,0x10
   18cba:	6f298993          	addi	s3,s3,1778 # 106f2 <.Lanon.49c9f8067fe4468184af16d7576940c9.32>
   18cbe:	00190513          	addi	a0,s2,1
   18cc2:	03c00613          	li	a2,60
   18cc6:	85ce                	mv	a1,s3
   18cc8:	00007097          	auipc	ra,0x7
   18ccc:	f54080e7          	jalr	-172(ra) # 1fc1c <memcpy>
   18cd0:	00090023          	sb	zero,0(s2)
   18cd4:	00940b63          	beq	s0,s1,18cea <_ZN20complex_dynamic_type3app17hd8fb5db84c6d1679E+0x168>
   18cd8:	6509                	lui	a0,0x2
   18cda:	1ab50513          	addi	a0,a0,427 # 21ab <.Lline_table_start1+0x1f80>
   18cde:	45a5                	li	a1,9
   18ce0:	8622                	mv	a2,s0
   18ce2:	00007097          	auipc	ra,0x7
   18ce6:	ec2080e7          	jalr	-318(ra) # 1fba4 <_ZN9allow_pin12dynamic_type7unshare17hb27555f71d22f3b2E>
   18cea:	00114603          	lbu	a2,1(sp)
   18cee:	4509                	li	a0,2
   18cf0:	00a60a63          	beq	a2,a0,18d04 <_ZN20complex_dynamic_type3app17hd8fb5db84c6d1679E+0x182>
   18cf4:	6509                	lui	a0,0x2
   18cf6:	1ab50513          	addi	a0,a0,427 # 21ab <.Lline_table_start1+0x1f80>
   18cfa:	4591                	li	a1,4
   18cfc:	00007097          	auipc	ra,0x7
   18d00:	ea8080e7          	jalr	-344(ra) # 1fba4 <_ZN9allow_pin12dynamic_type7unshare17hb27555f71d22f3b2E>
   18d04:	40fa                	lw	ra,156(sp)
   18d06:	446a                	lw	s0,152(sp)
   18d08:	44da                	lw	s1,148(sp)
   18d0a:	494a                	lw	s2,144(sp)
   18d0c:	49ba                	lw	s3,140(sp)
   18d0e:	610d                	addi	sp,sp,160
   18d10:	8082                	ret

00018d12 <_ZN20complex_dynamic_type3app17hda7c3fe12fc41765E>:
   18d12:	7119                	addi	sp,sp,-128
   18d14:	de86                	sw	ra,124(sp)
   18d16:	dca2                	sw	s0,120(sp)
   18d18:	daa6                	sw	s1,116(sp)
   18d1a:	d8ca                	sw	s2,112(sp)
   18d1c:	d6ce                	sw	s3,108(sp)
   18d1e:	892a                	mv	s2,a0
   18d20:	4489                	li	s1,2
   18d22:	00910223          	sb	s1,4(sp)
   18d26:	00510413          	addi	s0,sp,5
   18d2a:	02e00613          	li	a2,46
   18d2e:	8522                	mv	a0,s0
   18d30:	00007097          	auipc	ra,0x7
   18d34:	eec080e7          	jalr	-276(ra) # 1fc1c <memcpy>
   18d38:	03410993          	addi	s3,sp,52
   18d3c:	03800613          	li	a2,56
   18d40:	854e                	mv	a0,s3
   18d42:	4581                	li	a1,0
   18d44:	00007097          	auipc	ra,0x7
   18d48:	e6c080e7          	jalr	-404(ra) # 1fbb0 <memset>
   18d4c:	8622                	mv	a2,s0
   18d4e:	029109a3          	sb	s1,51(sp)
   18d52:	6505                	lui	a0,0x1
   18d54:	4791                	li	a5,4
   18d56:	45a5                	li	a1,9
   18d58:	a9d50513          	addi	a0,a0,-1379 # a9d <.Lline_table_start1+0x872>
   18d5c:	02e00693          	li	a3,46
   18d60:	4711                	li	a4,4
   18d62:	00000073          	ecall
   18d66:	00950463          	beq	a0,s1,18d6e <_ZN20complex_dynamic_type3app17hda7c3fe12fc41765E+0x5c>
   18d6a:	00f10223          	sb	a5,4(sp)
   18d6e:	4609                	li	a2,2
   18d70:	00c51463          	bne	a0,a2,18d78 <_ZN20complex_dynamic_type3app17hda7c3fe12fc41765E+0x66>
   18d74:	4785                	li	a5,1
   18d76:	a859                	j	18e0c <_ZN20complex_dynamic_type3app17hda7c3fe12fc41765E+0xfa>
   18d78:	03314503          	lbu	a0,51(sp)
   18d7c:	4785                	li	a5,1
   18d7e:	02c51363          	bne	a0,a2,18da4 <_ZN20complex_dynamic_type3app17hda7c3fe12fc41765E+0x92>
   18d82:	864e                	mv	a2,s3
   18d84:	6505                	lui	a0,0x1
   18d86:	45a5                	li	a1,9
   18d88:	03800693          	li	a3,56
   18d8c:	470d                	li	a4,3
   18d8e:	a9d50513          	addi	a0,a0,-1379 # a9d <.Lline_table_start1+0x872>
   18d92:	4489                	li	s1,2
   18d94:	00000073          	ecall
   18d98:	460d                	li	a2,3
   18d9a:	00951963          	bne	a0,s1,18dac <_ZN20complex_dynamic_type3app17hda7c3fe12fc41765E+0x9a>
   18d9e:	4505                	li	a0,1
   18da0:	c911                	beqz	a0,18db4 <_ZN20complex_dynamic_type3app17hda7c3fe12fc41765E+0xa2>
   18da2:	a0ad                	j	18e0c <_ZN20complex_dynamic_type3app17hda7c3fe12fc41765E+0xfa>
   18da4:	458d                	li	a1,3
   18da6:	4505                	li	a0,1
   18da8:	c511                	beqz	a0,18db4 <_ZN20complex_dynamic_type3app17hda7c3fe12fc41765E+0xa2>
   18daa:	a08d                	j	18e0c <_ZN20complex_dynamic_type3app17hda7c3fe12fc41765E+0xfa>
   18dac:	4501                	li	a0,0
   18dae:	02c109a3          	sb	a2,51(sp)
   18db2:	ed29                	bnez	a0,18e0c <_ZN20complex_dynamic_type3app17hda7c3fe12fc41765E+0xfa>
   18db4:	4681                	li	a3,0
   18db6:	6505                	lui	a0,0x1
   18db8:	45a5                	li	a1,9
   18dba:	4625                	li	a2,9
   18dbc:	4709                	li	a4,2
   18dbe:	a9d50513          	addi	a0,a0,-1379 # a9d <.Lline_table_start1+0x872>
   18dc2:	07f00493          	li	s1,127
   18dc6:	00000073          	ecall
   18dca:	4689                	li	a3,2
   18dcc:	04a4f063          	bgeu	s1,a0,18e0c <_ZN20complex_dynamic_type3app17hda7c3fe12fc41765E+0xfa>
   18dd0:	00414603          	lbu	a2,4(sp)
   18dd4:	00d60a63          	beq	a2,a3,18de8 <_ZN20complex_dynamic_type3app17hda7c3fe12fc41765E+0xd6>
   18dd8:	6505                	lui	a0,0x1
   18dda:	a9d50513          	addi	a0,a0,-1379 # a9d <.Lline_table_start1+0x872>
   18dde:	45a5                	li	a1,9
   18de0:	00007097          	auipc	ra,0x7
   18de4:	dc4080e7          	jalr	-572(ra) # 1fba4 <_ZN9allow_pin12dynamic_type7unshare17hb27555f71d22f3b2E>
   18de8:	03314603          	lbu	a2,51(sp)
   18dec:	4409                	li	s0,2
   18dee:	00810223          	sb	s0,4(sp)
   18df2:	00860a63          	beq	a2,s0,18e06 <_ZN20complex_dynamic_type3app17hda7c3fe12fc41765E+0xf4>
   18df6:	6505                	lui	a0,0x1
   18df8:	a9d50513          	addi	a0,a0,-1379 # a9d <.Lline_table_start1+0x872>
   18dfc:	45a5                	li	a1,9
   18dfe:	00007097          	auipc	ra,0x7
   18e02:	da6080e7          	jalr	-602(ra) # 1fba4 <_ZN9allow_pin12dynamic_type7unshare17hb27555f71d22f3b2E>
   18e06:	4781                	li	a5,0
   18e08:	028109a3          	sb	s0,51(sp)
   18e0c:	cb85                	beqz	a5,18e3c <_ZN20complex_dynamic_type3app17hda7c3fe12fc41765E+0x12a>
   18e0e:	03314603          	lbu	a2,51(sp)
   18e12:	4505                	li	a0,1
   18e14:	4409                	li	s0,2
   18e16:	00a90023          	sb	a0,0(s2)
   18e1a:	00b92223          	sw	a1,4(s2)
   18e1e:	00860a63          	beq	a2,s0,18e32 <_ZN20complex_dynamic_type3app17hda7c3fe12fc41765E+0x120>
   18e22:	6505                	lui	a0,0x1
   18e24:	a9d50513          	addi	a0,a0,-1379 # a9d <.Lline_table_start1+0x872>
   18e28:	45a5                	li	a1,9
   18e2a:	00007097          	auipc	ra,0x7
   18e2e:	d7a080e7          	jalr	-646(ra) # 1fba4 <_ZN9allow_pin12dynamic_type7unshare17hb27555f71d22f3b2E>
   18e32:	00414603          	lbu	a2,4(sp)
   18e36:	04861763          	bne	a2,s0,18e84 <_ZN20complex_dynamic_type3app17hda7c3fe12fc41765E+0x172>
   18e3a:	a8a9                	j	18e94 <_ZN20complex_dynamic_type3app17hda7c3fe12fc41765E+0x182>
   18e3c:	03314403          	lbu	s0,51(sp)
   18e40:	4489                	li	s1,2
   18e42:	00940663          	beq	s0,s1,18e4e <_ZN20complex_dynamic_type3app17hda7c3fe12fc41765E+0x13c>
   18e46:	000109b7          	lui	s3,0x10
   18e4a:	4f598993          	addi	s3,s3,1269 # 104f5 <.Lanon.49c9f8067fe4468184af16d7576940c9.22>
   18e4e:	00190513          	addi	a0,s2,1
   18e52:	03800613          	li	a2,56
   18e56:	85ce                	mv	a1,s3
   18e58:	00007097          	auipc	ra,0x7
   18e5c:	dc4080e7          	jalr	-572(ra) # 1fc1c <memcpy>
   18e60:	00090023          	sb	zero,0(s2)
   18e64:	00940b63          	beq	s0,s1,18e7a <_ZN20complex_dynamic_type3app17hda7c3fe12fc41765E+0x168>
   18e68:	6505                	lui	a0,0x1
   18e6a:	a9d50513          	addi	a0,a0,-1379 # a9d <.Lline_table_start1+0x872>
   18e6e:	45a5                	li	a1,9
   18e70:	8622                	mv	a2,s0
   18e72:	00007097          	auipc	ra,0x7
   18e76:	d32080e7          	jalr	-718(ra) # 1fba4 <_ZN9allow_pin12dynamic_type7unshare17hb27555f71d22f3b2E>
   18e7a:	00414603          	lbu	a2,4(sp)
   18e7e:	4509                	li	a0,2
   18e80:	00a60a63          	beq	a2,a0,18e94 <_ZN20complex_dynamic_type3app17hda7c3fe12fc41765E+0x182>
   18e84:	6505                	lui	a0,0x1
   18e86:	a9d50513          	addi	a0,a0,-1379 # a9d <.Lline_table_start1+0x872>
   18e8a:	45a5                	li	a1,9
   18e8c:	00007097          	auipc	ra,0x7
   18e90:	d18080e7          	jalr	-744(ra) # 1fba4 <_ZN9allow_pin12dynamic_type7unshare17hb27555f71d22f3b2E>
   18e94:	50f6                	lw	ra,124(sp)
   18e96:	5466                	lw	s0,120(sp)
   18e98:	54d6                	lw	s1,116(sp)
   18e9a:	5946                	lw	s2,112(sp)
   18e9c:	59b6                	lw	s3,108(sp)
   18e9e:	6109                	addi	sp,sp,128
   18ea0:	8082                	ret

00018ea2 <_ZN20complex_dynamic_type3app17hdba3a5619152bb96E>:
   18ea2:	7119                	addi	sp,sp,-128
   18ea4:	de86                	sw	ra,124(sp)
   18ea6:	dca2                	sw	s0,120(sp)
   18ea8:	daa6                	sw	s1,116(sp)
   18eaa:	d8ca                	sw	s2,112(sp)
   18eac:	d6ce                	sw	s3,108(sp)
   18eae:	892a                	mv	s2,a0
   18eb0:	4489                	li	s1,2
   18eb2:	009105a3          	sb	s1,11(sp)
   18eb6:	0060                	addi	s0,sp,12
   18eb8:	03800613          	li	a2,56
   18ebc:	8522                	mv	a0,s0
   18ebe:	00007097          	auipc	ra,0x7
   18ec2:	d5e080e7          	jalr	-674(ra) # 1fc1c <memcpy>
   18ec6:	04510993          	addi	s3,sp,69
   18eca:	02700613          	li	a2,39
   18ece:	854e                	mv	a0,s3
   18ed0:	4581                	li	a1,0
   18ed2:	00007097          	auipc	ra,0x7
   18ed6:	cde080e7          	jalr	-802(ra) # 1fbb0 <memset>
   18eda:	8622                	mv	a2,s0
   18edc:	04910223          	sb	s1,68(sp)
   18ee0:	6505                	lui	a0,0x1
   18ee2:	4791                	li	a5,4
   18ee4:	4589                	li	a1,2
   18ee6:	e2b50513          	addi	a0,a0,-469 # e2b <.Lline_table_start1+0xc00>
   18eea:	03800693          	li	a3,56
   18eee:	4711                	li	a4,4
   18ef0:	00000073          	ecall
   18ef4:	00950463          	beq	a0,s1,18efc <_ZN20complex_dynamic_type3app17hdba3a5619152bb96E+0x5a>
   18ef8:	00f105a3          	sb	a5,11(sp)
   18efc:	4609                	li	a2,2
   18efe:	00c51463          	bne	a0,a2,18f06 <_ZN20complex_dynamic_type3app17hdba3a5619152bb96E+0x64>
   18f02:	4785                	li	a5,1
   18f04:	a859                	j	18f9a <_ZN20complex_dynamic_type3app17hdba3a5619152bb96E+0xf8>
   18f06:	04414503          	lbu	a0,68(sp)
   18f0a:	4785                	li	a5,1
   18f0c:	02c51363          	bne	a0,a2,18f32 <_ZN20complex_dynamic_type3app17hdba3a5619152bb96E+0x90>
   18f10:	864e                	mv	a2,s3
   18f12:	6505                	lui	a0,0x1
   18f14:	45a1                	li	a1,8
   18f16:	02700693          	li	a3,39
   18f1a:	470d                	li	a4,3
   18f1c:	e2b50513          	addi	a0,a0,-469 # e2b <.Lline_table_start1+0xc00>
   18f20:	4489                	li	s1,2
   18f22:	00000073          	ecall
   18f26:	460d                	li	a2,3
   18f28:	00951963          	bne	a0,s1,18f3a <_ZN20complex_dynamic_type3app17hdba3a5619152bb96E+0x98>
   18f2c:	4505                	li	a0,1
   18f2e:	c911                	beqz	a0,18f42 <_ZN20complex_dynamic_type3app17hdba3a5619152bb96E+0xa0>
   18f30:	a0ad                	j	18f9a <_ZN20complex_dynamic_type3app17hdba3a5619152bb96E+0xf8>
   18f32:	458d                	li	a1,3
   18f34:	4505                	li	a0,1
   18f36:	c511                	beqz	a0,18f42 <_ZN20complex_dynamic_type3app17hdba3a5619152bb96E+0xa0>
   18f38:	a08d                	j	18f9a <_ZN20complex_dynamic_type3app17hdba3a5619152bb96E+0xf8>
   18f3a:	4501                	li	a0,0
   18f3c:	04c10223          	sb	a2,68(sp)
   18f40:	ed29                	bnez	a0,18f9a <_ZN20complex_dynamic_type3app17hdba3a5619152bb96E+0xf8>
   18f42:	4681                	li	a3,0
   18f44:	6505                	lui	a0,0x1
   18f46:	4589                	li	a1,2
   18f48:	4621                	li	a2,8
   18f4a:	4709                	li	a4,2
   18f4c:	e2b50513          	addi	a0,a0,-469 # e2b <.Lline_table_start1+0xc00>
   18f50:	07f00493          	li	s1,127
   18f54:	00000073          	ecall
   18f58:	4689                	li	a3,2
   18f5a:	04a4f063          	bgeu	s1,a0,18f9a <_ZN20complex_dynamic_type3app17hdba3a5619152bb96E+0xf8>
   18f5e:	00b14603          	lbu	a2,11(sp)
   18f62:	00d60a63          	beq	a2,a3,18f76 <_ZN20complex_dynamic_type3app17hdba3a5619152bb96E+0xd4>
   18f66:	6505                	lui	a0,0x1
   18f68:	e2b50513          	addi	a0,a0,-469 # e2b <.Lline_table_start1+0xc00>
   18f6c:	4589                	li	a1,2
   18f6e:	00007097          	auipc	ra,0x7
   18f72:	c36080e7          	jalr	-970(ra) # 1fba4 <_ZN9allow_pin12dynamic_type7unshare17hb27555f71d22f3b2E>
   18f76:	04414603          	lbu	a2,68(sp)
   18f7a:	4409                	li	s0,2
   18f7c:	008105a3          	sb	s0,11(sp)
   18f80:	00860a63          	beq	a2,s0,18f94 <_ZN20complex_dynamic_type3app17hdba3a5619152bb96E+0xf2>
   18f84:	6505                	lui	a0,0x1
   18f86:	e2b50513          	addi	a0,a0,-469 # e2b <.Lline_table_start1+0xc00>
   18f8a:	45a1                	li	a1,8
   18f8c:	00007097          	auipc	ra,0x7
   18f90:	c18080e7          	jalr	-1000(ra) # 1fba4 <_ZN9allow_pin12dynamic_type7unshare17hb27555f71d22f3b2E>
   18f94:	4781                	li	a5,0
   18f96:	04810223          	sb	s0,68(sp)
   18f9a:	cb85                	beqz	a5,18fca <_ZN20complex_dynamic_type3app17hdba3a5619152bb96E+0x128>
   18f9c:	04414603          	lbu	a2,68(sp)
   18fa0:	4505                	li	a0,1
   18fa2:	4409                	li	s0,2
   18fa4:	00a90023          	sb	a0,0(s2)
   18fa8:	00b92223          	sw	a1,4(s2)
   18fac:	00860a63          	beq	a2,s0,18fc0 <_ZN20complex_dynamic_type3app17hdba3a5619152bb96E+0x11e>
   18fb0:	6505                	lui	a0,0x1
   18fb2:	e2b50513          	addi	a0,a0,-469 # e2b <.Lline_table_start1+0xc00>
   18fb6:	45a1                	li	a1,8
   18fb8:	00007097          	auipc	ra,0x7
   18fbc:	bec080e7          	jalr	-1044(ra) # 1fba4 <_ZN9allow_pin12dynamic_type7unshare17hb27555f71d22f3b2E>
   18fc0:	00b14603          	lbu	a2,11(sp)
   18fc4:	04861763          	bne	a2,s0,19012 <_ZN20complex_dynamic_type3app17hdba3a5619152bb96E+0x170>
   18fc8:	a8a9                	j	19022 <_ZN20complex_dynamic_type3app17hdba3a5619152bb96E+0x180>
   18fca:	04414403          	lbu	s0,68(sp)
   18fce:	4489                	li	s1,2
   18fd0:	00940663          	beq	s0,s1,18fdc <_ZN20complex_dynamic_type3app17hdba3a5619152bb96E+0x13a>
   18fd4:	000109b7          	lui	s3,0x10
   18fd8:	0d498993          	addi	s3,s3,212 # 100d4 <.Lanon.49c9f8067fe4468184af16d7576940c9.0>
   18fdc:	00190513          	addi	a0,s2,1
   18fe0:	02700613          	li	a2,39
   18fe4:	85ce                	mv	a1,s3
   18fe6:	00007097          	auipc	ra,0x7
   18fea:	c36080e7          	jalr	-970(ra) # 1fc1c <memcpy>
   18fee:	00090023          	sb	zero,0(s2)
   18ff2:	00940b63          	beq	s0,s1,19008 <_ZN20complex_dynamic_type3app17hdba3a5619152bb96E+0x166>
   18ff6:	6505                	lui	a0,0x1
   18ff8:	e2b50513          	addi	a0,a0,-469 # e2b <.Lline_table_start1+0xc00>
   18ffc:	45a1                	li	a1,8
   18ffe:	8622                	mv	a2,s0
   19000:	00007097          	auipc	ra,0x7
   19004:	ba4080e7          	jalr	-1116(ra) # 1fba4 <_ZN9allow_pin12dynamic_type7unshare17hb27555f71d22f3b2E>
   19008:	00b14603          	lbu	a2,11(sp)
   1900c:	4509                	li	a0,2
   1900e:	00a60a63          	beq	a2,a0,19022 <_ZN20complex_dynamic_type3app17hdba3a5619152bb96E+0x180>
   19012:	6505                	lui	a0,0x1
   19014:	e2b50513          	addi	a0,a0,-469 # e2b <.Lline_table_start1+0xc00>
   19018:	4589                	li	a1,2
   1901a:	00007097          	auipc	ra,0x7
   1901e:	b8a080e7          	jalr	-1142(ra) # 1fba4 <_ZN9allow_pin12dynamic_type7unshare17hb27555f71d22f3b2E>
   19022:	50f6                	lw	ra,124(sp)
   19024:	5466                	lw	s0,120(sp)
   19026:	54d6                	lw	s1,116(sp)
   19028:	5946                	lw	s2,112(sp)
   1902a:	59b6                	lw	s3,108(sp)
   1902c:	6109                	addi	sp,sp,128
   1902e:	8082                	ret

00019030 <_ZN20complex_dynamic_type3app17hdc4e6b2f8cc36d0bE>:
   19030:	7119                	addi	sp,sp,-128
   19032:	de86                	sw	ra,124(sp)
   19034:	dca2                	sw	s0,120(sp)
   19036:	daa6                	sw	s1,116(sp)
   19038:	d8ca                	sw	s2,112(sp)
   1903a:	d6ce                	sw	s3,108(sp)
   1903c:	892a                	mv	s2,a0
   1903e:	4489                	li	s1,2
   19040:	00910423          	sb	s1,8(sp)
   19044:	00910413          	addi	s0,sp,9
   19048:	03b00613          	li	a2,59
   1904c:	8522                	mv	a0,s0
   1904e:	00007097          	auipc	ra,0x7
   19052:	bce080e7          	jalr	-1074(ra) # 1fc1c <memcpy>
   19056:	04510993          	addi	s3,sp,69
   1905a:	02700613          	li	a2,39
   1905e:	854e                	mv	a0,s3
   19060:	4581                	li	a1,0
   19062:	00007097          	auipc	ra,0x7
   19066:	b4e080e7          	jalr	-1202(ra) # 1fbb0 <memset>
   1906a:	8622                	mv	a2,s0
   1906c:	04910223          	sb	s1,68(sp)
   19070:	6505                	lui	a0,0x1
   19072:	4791                	li	a5,4
   19074:	4595                	li	a1,5
   19076:	bd350513          	addi	a0,a0,-1069 # bd3 <.Lline_table_start1+0x9a8>
   1907a:	03b00693          	li	a3,59
   1907e:	4711                	li	a4,4
   19080:	00000073          	ecall
   19084:	00950463          	beq	a0,s1,1908c <_ZN20complex_dynamic_type3app17hdc4e6b2f8cc36d0bE+0x5c>
   19088:	00f10423          	sb	a5,8(sp)
   1908c:	4609                	li	a2,2
   1908e:	00c51463          	bne	a0,a2,19096 <_ZN20complex_dynamic_type3app17hdc4e6b2f8cc36d0bE+0x66>
   19092:	4785                	li	a5,1
   19094:	a859                	j	1912a <_ZN20complex_dynamic_type3app17hdc4e6b2f8cc36d0bE+0xfa>
   19096:	04414503          	lbu	a0,68(sp)
   1909a:	4785                	li	a5,1
   1909c:	02c51363          	bne	a0,a2,190c2 <_ZN20complex_dynamic_type3app17hdc4e6b2f8cc36d0bE+0x92>
   190a0:	864e                	mv	a2,s3
   190a2:	6505                	lui	a0,0x1
   190a4:	458d                	li	a1,3
   190a6:	02700693          	li	a3,39
   190aa:	470d                	li	a4,3
   190ac:	bd350513          	addi	a0,a0,-1069 # bd3 <.Lline_table_start1+0x9a8>
   190b0:	4489                	li	s1,2
   190b2:	00000073          	ecall
   190b6:	460d                	li	a2,3
   190b8:	00951963          	bne	a0,s1,190ca <_ZN20complex_dynamic_type3app17hdc4e6b2f8cc36d0bE+0x9a>
   190bc:	4505                	li	a0,1
   190be:	c911                	beqz	a0,190d2 <_ZN20complex_dynamic_type3app17hdc4e6b2f8cc36d0bE+0xa2>
   190c0:	a0ad                	j	1912a <_ZN20complex_dynamic_type3app17hdc4e6b2f8cc36d0bE+0xfa>
   190c2:	458d                	li	a1,3
   190c4:	4505                	li	a0,1
   190c6:	c511                	beqz	a0,190d2 <_ZN20complex_dynamic_type3app17hdc4e6b2f8cc36d0bE+0xa2>
   190c8:	a08d                	j	1912a <_ZN20complex_dynamic_type3app17hdc4e6b2f8cc36d0bE+0xfa>
   190ca:	4501                	li	a0,0
   190cc:	04c10223          	sb	a2,68(sp)
   190d0:	ed29                	bnez	a0,1912a <_ZN20complex_dynamic_type3app17hdc4e6b2f8cc36d0bE+0xfa>
   190d2:	4681                	li	a3,0
   190d4:	6505                	lui	a0,0x1
   190d6:	4595                	li	a1,5
   190d8:	460d                	li	a2,3
   190da:	4709                	li	a4,2
   190dc:	bd350513          	addi	a0,a0,-1069 # bd3 <.Lline_table_start1+0x9a8>
   190e0:	07f00493          	li	s1,127
   190e4:	00000073          	ecall
   190e8:	4689                	li	a3,2
   190ea:	04a4f063          	bgeu	s1,a0,1912a <_ZN20complex_dynamic_type3app17hdc4e6b2f8cc36d0bE+0xfa>
   190ee:	00814603          	lbu	a2,8(sp)
   190f2:	00d60a63          	beq	a2,a3,19106 <_ZN20complex_dynamic_type3app17hdc4e6b2f8cc36d0bE+0xd6>
   190f6:	6505                	lui	a0,0x1
   190f8:	bd350513          	addi	a0,a0,-1069 # bd3 <.Lline_table_start1+0x9a8>
   190fc:	4595                	li	a1,5
   190fe:	00007097          	auipc	ra,0x7
   19102:	aa6080e7          	jalr	-1370(ra) # 1fba4 <_ZN9allow_pin12dynamic_type7unshare17hb27555f71d22f3b2E>
   19106:	04414603          	lbu	a2,68(sp)
   1910a:	4409                	li	s0,2
   1910c:	00810423          	sb	s0,8(sp)
   19110:	00860a63          	beq	a2,s0,19124 <_ZN20complex_dynamic_type3app17hdc4e6b2f8cc36d0bE+0xf4>
   19114:	6505                	lui	a0,0x1
   19116:	bd350513          	addi	a0,a0,-1069 # bd3 <.Lline_table_start1+0x9a8>
   1911a:	458d                	li	a1,3
   1911c:	00007097          	auipc	ra,0x7
   19120:	a88080e7          	jalr	-1400(ra) # 1fba4 <_ZN9allow_pin12dynamic_type7unshare17hb27555f71d22f3b2E>
   19124:	4781                	li	a5,0
   19126:	04810223          	sb	s0,68(sp)
   1912a:	cb85                	beqz	a5,1915a <_ZN20complex_dynamic_type3app17hdc4e6b2f8cc36d0bE+0x12a>
   1912c:	04414603          	lbu	a2,68(sp)
   19130:	4505                	li	a0,1
   19132:	4409                	li	s0,2
   19134:	00a90023          	sb	a0,0(s2)
   19138:	00b92223          	sw	a1,4(s2)
   1913c:	00860a63          	beq	a2,s0,19150 <_ZN20complex_dynamic_type3app17hdc4e6b2f8cc36d0bE+0x120>
   19140:	6505                	lui	a0,0x1
   19142:	bd350513          	addi	a0,a0,-1069 # bd3 <.Lline_table_start1+0x9a8>
   19146:	458d                	li	a1,3
   19148:	00007097          	auipc	ra,0x7
   1914c:	a5c080e7          	jalr	-1444(ra) # 1fba4 <_ZN9allow_pin12dynamic_type7unshare17hb27555f71d22f3b2E>
   19150:	00814603          	lbu	a2,8(sp)
   19154:	04861763          	bne	a2,s0,191a2 <_ZN20complex_dynamic_type3app17hdc4e6b2f8cc36d0bE+0x172>
   19158:	a8a9                	j	191b2 <_ZN20complex_dynamic_type3app17hdc4e6b2f8cc36d0bE+0x182>
   1915a:	04414403          	lbu	s0,68(sp)
   1915e:	4489                	li	s1,2
   19160:	00940663          	beq	s0,s1,1916c <_ZN20complex_dynamic_type3app17hdc4e6b2f8cc36d0bE+0x13c>
   19164:	000109b7          	lui	s3,0x10
   19168:	0d498993          	addi	s3,s3,212 # 100d4 <.Lanon.49c9f8067fe4468184af16d7576940c9.0>
   1916c:	00190513          	addi	a0,s2,1
   19170:	02700613          	li	a2,39
   19174:	85ce                	mv	a1,s3
   19176:	00007097          	auipc	ra,0x7
   1917a:	aa6080e7          	jalr	-1370(ra) # 1fc1c <memcpy>
   1917e:	00090023          	sb	zero,0(s2)
   19182:	00940b63          	beq	s0,s1,19198 <_ZN20complex_dynamic_type3app17hdc4e6b2f8cc36d0bE+0x168>
   19186:	6505                	lui	a0,0x1
   19188:	bd350513          	addi	a0,a0,-1069 # bd3 <.Lline_table_start1+0x9a8>
   1918c:	458d                	li	a1,3
   1918e:	8622                	mv	a2,s0
   19190:	00007097          	auipc	ra,0x7
   19194:	a14080e7          	jalr	-1516(ra) # 1fba4 <_ZN9allow_pin12dynamic_type7unshare17hb27555f71d22f3b2E>
   19198:	00814603          	lbu	a2,8(sp)
   1919c:	4509                	li	a0,2
   1919e:	00a60a63          	beq	a2,a0,191b2 <_ZN20complex_dynamic_type3app17hdc4e6b2f8cc36d0bE+0x182>
   191a2:	6505                	lui	a0,0x1
   191a4:	bd350513          	addi	a0,a0,-1069 # bd3 <.Lline_table_start1+0x9a8>
   191a8:	4595                	li	a1,5
   191aa:	00007097          	auipc	ra,0x7
   191ae:	9fa080e7          	jalr	-1542(ra) # 1fba4 <_ZN9allow_pin12dynamic_type7unshare17hb27555f71d22f3b2E>
   191b2:	50f6                	lw	ra,124(sp)
   191b4:	5466                	lw	s0,120(sp)
   191b6:	54d6                	lw	s1,116(sp)
   191b8:	5946                	lw	s2,112(sp)
   191ba:	59b6                	lw	s3,108(sp)
   191bc:	6109                	addi	sp,sp,128
   191be:	8082                	ret

000191c0 <_ZN20complex_dynamic_type3app17hdf99f5683badbb8fE>:
   191c0:	7155                	addi	sp,sp,-208
   191c2:	c786                	sw	ra,204(sp)
   191c4:	c5a2                	sw	s0,200(sp)
   191c6:	c3a6                	sw	s1,196(sp)
   191c8:	c1ca                	sw	s2,192(sp)
   191ca:	df4e                	sw	s3,188(sp)
   191cc:	892a                	mv	s2,a0
   191ce:	4489                	li	s1,2
   191d0:	00910523          	sb	s1,10(sp)
   191d4:	00b10413          	addi	s0,sp,11
   191d8:	04f00613          	li	a2,79
   191dc:	8522                	mv	a0,s0
   191de:	00007097          	auipc	ra,0x7
   191e2:	a3e080e7          	jalr	-1474(ra) # 1fc1c <memcpy>
   191e6:	05b10993          	addi	s3,sp,91
   191ea:	06100613          	li	a2,97
   191ee:	854e                	mv	a0,s3
   191f0:	4581                	li	a1,0
   191f2:	00007097          	auipc	ra,0x7
   191f6:	9be080e7          	jalr	-1602(ra) # 1fbb0 <memset>
   191fa:	8622                	mv	a2,s0
   191fc:	04910d23          	sb	s1,90(sp)
   19200:	4791                	li	a5,4
   19202:	1b600513          	li	a0,438
   19206:	4589                	li	a1,2
   19208:	04f00693          	li	a3,79
   1920c:	4711                	li	a4,4
   1920e:	00000073          	ecall
   19212:	00950463          	beq	a0,s1,1921a <_ZN20complex_dynamic_type3app17hdf99f5683badbb8fE+0x5a>
   19216:	00f10523          	sb	a5,10(sp)
   1921a:	4609                	li	a2,2
   1921c:	00c51463          	bne	a0,a2,19224 <_ZN20complex_dynamic_type3app17hdf99f5683badbb8fE+0x64>
   19220:	4785                	li	a5,1
   19222:	a079                	j	192b0 <_ZN20complex_dynamic_type3app17hdf99f5683badbb8fE+0xf0>
   19224:	05a14503          	lbu	a0,90(sp)
   19228:	4785                	li	a5,1
   1922a:	02c51263          	bne	a0,a2,1924e <_ZN20complex_dynamic_type3app17hdf99f5683badbb8fE+0x8e>
   1922e:	864e                	mv	a2,s3
   19230:	1b600513          	li	a0,438
   19234:	45a1                	li	a1,8
   19236:	06100693          	li	a3,97
   1923a:	470d                	li	a4,3
   1923c:	4489                	li	s1,2
   1923e:	00000073          	ecall
   19242:	460d                	li	a2,3
   19244:	00951963          	bne	a0,s1,19256 <_ZN20complex_dynamic_type3app17hdf99f5683badbb8fE+0x96>
   19248:	4505                	li	a0,1
   1924a:	c911                	beqz	a0,1925e <_ZN20complex_dynamic_type3app17hdf99f5683badbb8fE+0x9e>
   1924c:	a095                	j	192b0 <_ZN20complex_dynamic_type3app17hdf99f5683badbb8fE+0xf0>
   1924e:	458d                	li	a1,3
   19250:	4505                	li	a0,1
   19252:	c511                	beqz	a0,1925e <_ZN20complex_dynamic_type3app17hdf99f5683badbb8fE+0x9e>
   19254:	a8b1                	j	192b0 <_ZN20complex_dynamic_type3app17hdf99f5683badbb8fE+0xf0>
   19256:	4501                	li	a0,0
   19258:	04c10d23          	sb	a2,90(sp)
   1925c:	e931                	bnez	a0,192b0 <_ZN20complex_dynamic_type3app17hdf99f5683badbb8fE+0xf0>
   1925e:	4681                	li	a3,0
   19260:	1b600513          	li	a0,438
   19264:	4589                	li	a1,2
   19266:	4621                	li	a2,8
   19268:	4709                	li	a4,2
   1926a:	07f00493          	li	s1,127
   1926e:	00000073          	ecall
   19272:	4689                	li	a3,2
   19274:	02a4fe63          	bgeu	s1,a0,192b0 <_ZN20complex_dynamic_type3app17hdf99f5683badbb8fE+0xf0>
   19278:	00a14603          	lbu	a2,10(sp)
   1927c:	00d60963          	beq	a2,a3,1928e <_ZN20complex_dynamic_type3app17hdf99f5683badbb8fE+0xce>
   19280:	1b600513          	li	a0,438
   19284:	4589                	li	a1,2
   19286:	00007097          	auipc	ra,0x7
   1928a:	91e080e7          	jalr	-1762(ra) # 1fba4 <_ZN9allow_pin12dynamic_type7unshare17hb27555f71d22f3b2E>
   1928e:	05a14603          	lbu	a2,90(sp)
   19292:	4409                	li	s0,2
   19294:	00810523          	sb	s0,10(sp)
   19298:	00860963          	beq	a2,s0,192aa <_ZN20complex_dynamic_type3app17hdf99f5683badbb8fE+0xea>
   1929c:	1b600513          	li	a0,438
   192a0:	45a1                	li	a1,8
   192a2:	00007097          	auipc	ra,0x7
   192a6:	902080e7          	jalr	-1790(ra) # 1fba4 <_ZN9allow_pin12dynamic_type7unshare17hb27555f71d22f3b2E>
   192aa:	4781                	li	a5,0
   192ac:	04810d23          	sb	s0,90(sp)
   192b0:	c79d                	beqz	a5,192de <_ZN20complex_dynamic_type3app17hdf99f5683badbb8fE+0x11e>
   192b2:	05a14603          	lbu	a2,90(sp)
   192b6:	4505                	li	a0,1
   192b8:	4409                	li	s0,2
   192ba:	00a90023          	sb	a0,0(s2)
   192be:	00b92223          	sw	a1,4(s2)
   192c2:	00860963          	beq	a2,s0,192d4 <_ZN20complex_dynamic_type3app17hdf99f5683badbb8fE+0x114>
   192c6:	1b600513          	li	a0,438
   192ca:	45a1                	li	a1,8
   192cc:	00007097          	auipc	ra,0x7
   192d0:	8d8080e7          	jalr	-1832(ra) # 1fba4 <_ZN9allow_pin12dynamic_type7unshare17hb27555f71d22f3b2E>
   192d4:	00a14603          	lbu	a2,10(sp)
   192d8:	04861663          	bne	a2,s0,19324 <_ZN20complex_dynamic_type3app17hdf99f5683badbb8fE+0x164>
   192dc:	a899                	j	19332 <_ZN20complex_dynamic_type3app17hdf99f5683badbb8fE+0x172>
   192de:	05a14403          	lbu	s0,90(sp)
   192e2:	4489                	li	s1,2
   192e4:	00940663          	beq	s0,s1,192f0 <_ZN20complex_dynamic_type3app17hdf99f5683badbb8fE+0x130>
   192e8:	000119b7          	lui	s3,0x11
   192ec:	b4098993          	addi	s3,s3,-1216 # 10b40 <.Lanon.49c9f8067fe4468184af16d7576940c9.53>
   192f0:	00190513          	addi	a0,s2,1
   192f4:	06100613          	li	a2,97
   192f8:	85ce                	mv	a1,s3
   192fa:	00007097          	auipc	ra,0x7
   192fe:	922080e7          	jalr	-1758(ra) # 1fc1c <memcpy>
   19302:	00090023          	sb	zero,0(s2)
   19306:	00940a63          	beq	s0,s1,1931a <_ZN20complex_dynamic_type3app17hdf99f5683badbb8fE+0x15a>
   1930a:	1b600513          	li	a0,438
   1930e:	45a1                	li	a1,8
   19310:	8622                	mv	a2,s0
   19312:	00007097          	auipc	ra,0x7
   19316:	892080e7          	jalr	-1902(ra) # 1fba4 <_ZN9allow_pin12dynamic_type7unshare17hb27555f71d22f3b2E>
   1931a:	00a14603          	lbu	a2,10(sp)
   1931e:	4509                	li	a0,2
   19320:	00a60963          	beq	a2,a0,19332 <_ZN20complex_dynamic_type3app17hdf99f5683badbb8fE+0x172>
   19324:	1b600513          	li	a0,438
   19328:	4589                	li	a1,2
   1932a:	00007097          	auipc	ra,0x7
   1932e:	87a080e7          	jalr	-1926(ra) # 1fba4 <_ZN9allow_pin12dynamic_type7unshare17hb27555f71d22f3b2E>
   19332:	40be                	lw	ra,204(sp)
   19334:	442e                	lw	s0,200(sp)
   19336:	449e                	lw	s1,196(sp)
   19338:	490e                	lw	s2,192(sp)
   1933a:	59fa                	lw	s3,188(sp)
   1933c:	6169                	addi	sp,sp,208
   1933e:	8082                	ret

00019340 <_ZN20complex_dynamic_type3app17he0b18e7ebc65f75eE>:
   19340:	7159                	addi	sp,sp,-112
   19342:	d686                	sw	ra,108(sp)
   19344:	d4a2                	sw	s0,104(sp)
   19346:	d2a6                	sw	s1,100(sp)
   19348:	d0ca                	sw	s2,96(sp)
   1934a:	cece                	sw	s3,92(sp)
   1934c:	892a                	mv	s2,a0
   1934e:	4489                	li	s1,2
   19350:	00910223          	sb	s1,4(sp)
   19354:	00510413          	addi	s0,sp,5
   19358:	02c00613          	li	a2,44
   1935c:	8522                	mv	a0,s0
   1935e:	00007097          	auipc	ra,0x7
   19362:	8be080e7          	jalr	-1858(ra) # 1fc1c <memcpy>
   19366:	03210993          	addi	s3,sp,50
   1936a:	02a00613          	li	a2,42
   1936e:	854e                	mv	a0,s3
   19370:	4581                	li	a1,0
   19372:	00007097          	auipc	ra,0x7
   19376:	83e080e7          	jalr	-1986(ra) # 1fbb0 <memset>
   1937a:	8622                	mv	a2,s0
   1937c:	029108a3          	sb	s1,49(sp)
   19380:	6509                	lui	a0,0x2
   19382:	4791                	li	a5,4
   19384:	458d                	li	a1,3
   19386:	4f050513          	addi	a0,a0,1264 # 24f0 <.Lline_table_start1+0x22c5>
   1938a:	02c00693          	li	a3,44
   1938e:	4711                	li	a4,4
   19390:	00000073          	ecall
   19394:	00950463          	beq	a0,s1,1939c <_ZN20complex_dynamic_type3app17he0b18e7ebc65f75eE+0x5c>
   19398:	00f10223          	sb	a5,4(sp)
   1939c:	4609                	li	a2,2
   1939e:	00c51463          	bne	a0,a2,193a6 <_ZN20complex_dynamic_type3app17he0b18e7ebc65f75eE+0x66>
   193a2:	4785                	li	a5,1
   193a4:	a859                	j	1943a <_ZN20complex_dynamic_type3app17he0b18e7ebc65f75eE+0xfa>
   193a6:	03114503          	lbu	a0,49(sp)
   193aa:	4785                	li	a5,1
   193ac:	02c51363          	bne	a0,a2,193d2 <_ZN20complex_dynamic_type3app17he0b18e7ebc65f75eE+0x92>
   193b0:	4581                	li	a1,0
   193b2:	864e                	mv	a2,s3
   193b4:	6509                	lui	a0,0x2
   193b6:	02a00693          	li	a3,42
   193ba:	470d                	li	a4,3
   193bc:	4f050513          	addi	a0,a0,1264 # 24f0 <.Lline_table_start1+0x22c5>
   193c0:	4489                	li	s1,2
   193c2:	00000073          	ecall
   193c6:	460d                	li	a2,3
   193c8:	00951963          	bne	a0,s1,193da <_ZN20complex_dynamic_type3app17he0b18e7ebc65f75eE+0x9a>
   193cc:	4505                	li	a0,1
   193ce:	c911                	beqz	a0,193e2 <_ZN20complex_dynamic_type3app17he0b18e7ebc65f75eE+0xa2>
   193d0:	a0ad                	j	1943a <_ZN20complex_dynamic_type3app17he0b18e7ebc65f75eE+0xfa>
   193d2:	458d                	li	a1,3
   193d4:	4505                	li	a0,1
   193d6:	c511                	beqz	a0,193e2 <_ZN20complex_dynamic_type3app17he0b18e7ebc65f75eE+0xa2>
   193d8:	a08d                	j	1943a <_ZN20complex_dynamic_type3app17he0b18e7ebc65f75eE+0xfa>
   193da:	4501                	li	a0,0
   193dc:	02c108a3          	sb	a2,49(sp)
   193e0:	ed29                	bnez	a0,1943a <_ZN20complex_dynamic_type3app17he0b18e7ebc65f75eE+0xfa>
   193e2:	4601                	li	a2,0
   193e4:	4681                	li	a3,0
   193e6:	6509                	lui	a0,0x2
   193e8:	458d                	li	a1,3
   193ea:	4709                	li	a4,2
   193ec:	4f050513          	addi	a0,a0,1264 # 24f0 <.Lline_table_start1+0x22c5>
   193f0:	07f00493          	li	s1,127
   193f4:	00000073          	ecall
   193f8:	4689                	li	a3,2
   193fa:	04a4f063          	bgeu	s1,a0,1943a <_ZN20complex_dynamic_type3app17he0b18e7ebc65f75eE+0xfa>
   193fe:	00414603          	lbu	a2,4(sp)
   19402:	00d60a63          	beq	a2,a3,19416 <_ZN20complex_dynamic_type3app17he0b18e7ebc65f75eE+0xd6>
   19406:	6509                	lui	a0,0x2
   19408:	4f050513          	addi	a0,a0,1264 # 24f0 <.Lline_table_start1+0x22c5>
   1940c:	458d                	li	a1,3
   1940e:	00006097          	auipc	ra,0x6
   19412:	796080e7          	jalr	1942(ra) # 1fba4 <_ZN9allow_pin12dynamic_type7unshare17hb27555f71d22f3b2E>
   19416:	03114603          	lbu	a2,49(sp)
   1941a:	4409                	li	s0,2
   1941c:	00810223          	sb	s0,4(sp)
   19420:	00860a63          	beq	a2,s0,19434 <_ZN20complex_dynamic_type3app17he0b18e7ebc65f75eE+0xf4>
   19424:	6509                	lui	a0,0x2
   19426:	4f050513          	addi	a0,a0,1264 # 24f0 <.Lline_table_start1+0x22c5>
   1942a:	4581                	li	a1,0
   1942c:	00006097          	auipc	ra,0x6
   19430:	778080e7          	jalr	1912(ra) # 1fba4 <_ZN9allow_pin12dynamic_type7unshare17hb27555f71d22f3b2E>
   19434:	4781                	li	a5,0
   19436:	028108a3          	sb	s0,49(sp)
   1943a:	cb85                	beqz	a5,1946a <_ZN20complex_dynamic_type3app17he0b18e7ebc65f75eE+0x12a>
   1943c:	03114603          	lbu	a2,49(sp)
   19440:	4505                	li	a0,1
   19442:	4409                	li	s0,2
   19444:	00a90023          	sb	a0,0(s2)
   19448:	00b92223          	sw	a1,4(s2)
   1944c:	00860a63          	beq	a2,s0,19460 <_ZN20complex_dynamic_type3app17he0b18e7ebc65f75eE+0x120>
   19450:	6509                	lui	a0,0x2
   19452:	4f050513          	addi	a0,a0,1264 # 24f0 <.Lline_table_start1+0x22c5>
   19456:	4581                	li	a1,0
   19458:	00006097          	auipc	ra,0x6
   1945c:	74c080e7          	jalr	1868(ra) # 1fba4 <_ZN9allow_pin12dynamic_type7unshare17hb27555f71d22f3b2E>
   19460:	00414603          	lbu	a2,4(sp)
   19464:	04861763          	bne	a2,s0,194b2 <_ZN20complex_dynamic_type3app17he0b18e7ebc65f75eE+0x172>
   19468:	a8a9                	j	194c2 <_ZN20complex_dynamic_type3app17he0b18e7ebc65f75eE+0x182>
   1946a:	03114403          	lbu	s0,49(sp)
   1946e:	4489                	li	s1,2
   19470:	00940663          	beq	s0,s1,1947c <_ZN20complex_dynamic_type3app17he0b18e7ebc65f75eE+0x13c>
   19474:	000109b7          	lui	s3,0x10
   19478:	66f98993          	addi	s3,s3,1647 # 1066f <.Lanon.49c9f8067fe4468184af16d7576940c9.29>
   1947c:	00190513          	addi	a0,s2,1
   19480:	02a00613          	li	a2,42
   19484:	85ce                	mv	a1,s3
   19486:	00006097          	auipc	ra,0x6
   1948a:	796080e7          	jalr	1942(ra) # 1fc1c <memcpy>
   1948e:	00090023          	sb	zero,0(s2)
   19492:	00940b63          	beq	s0,s1,194a8 <_ZN20complex_dynamic_type3app17he0b18e7ebc65f75eE+0x168>
   19496:	6509                	lui	a0,0x2
   19498:	4f050513          	addi	a0,a0,1264 # 24f0 <.Lline_table_start1+0x22c5>
   1949c:	4581                	li	a1,0
   1949e:	8622                	mv	a2,s0
   194a0:	00006097          	auipc	ra,0x6
   194a4:	704080e7          	jalr	1796(ra) # 1fba4 <_ZN9allow_pin12dynamic_type7unshare17hb27555f71d22f3b2E>
   194a8:	00414603          	lbu	a2,4(sp)
   194ac:	4509                	li	a0,2
   194ae:	00a60a63          	beq	a2,a0,194c2 <_ZN20complex_dynamic_type3app17he0b18e7ebc65f75eE+0x182>
   194b2:	6509                	lui	a0,0x2
   194b4:	4f050513          	addi	a0,a0,1264 # 24f0 <.Lline_table_start1+0x22c5>
   194b8:	458d                	li	a1,3
   194ba:	00006097          	auipc	ra,0x6
   194be:	6ea080e7          	jalr	1770(ra) # 1fba4 <_ZN9allow_pin12dynamic_type7unshare17hb27555f71d22f3b2E>
   194c2:	50b6                	lw	ra,108(sp)
   194c4:	5426                	lw	s0,104(sp)
   194c6:	5496                	lw	s1,100(sp)
   194c8:	5906                	lw	s2,96(sp)
   194ca:	49f6                	lw	s3,92(sp)
   194cc:	6165                	addi	sp,sp,112
   194ce:	8082                	ret

000194d0 <_ZN20complex_dynamic_type3app17he225f7851c5ce017E>:
   194d0:	7159                	addi	sp,sp,-112
   194d2:	d686                	sw	ra,108(sp)
   194d4:	d4a2                	sw	s0,104(sp)
   194d6:	d2a6                	sw	s1,100(sp)
   194d8:	d0ca                	sw	s2,96(sp)
   194da:	cece                	sw	s3,92(sp)
   194dc:	892a                	mv	s2,a0
   194de:	4489                	li	s1,2
   194e0:	00910223          	sb	s1,4(sp)
   194e4:	00510413          	addi	s0,sp,5
   194e8:	4639                	li	a2,14
   194ea:	8522                	mv	a0,s0
   194ec:	00006097          	auipc	ra,0x6
   194f0:	730080e7          	jalr	1840(ra) # 1fc1c <memcpy>
   194f4:	01410993          	addi	s3,sp,20
   194f8:	04800613          	li	a2,72
   194fc:	854e                	mv	a0,s3
   194fe:	4581                	li	a1,0
   19500:	00006097          	auipc	ra,0x6
   19504:	6b0080e7          	jalr	1712(ra) # 1fbb0 <memset>
   19508:	8622                	mv	a2,s0
   1950a:	009109a3          	sb	s1,19(sp)
   1950e:	6505                	lui	a0,0x1
   19510:	4791                	li	a5,4
   19512:	458d                	li	a1,3
   19514:	2d150513          	addi	a0,a0,721 # 12d1 <.Lline_table_start1+0x10a6>
   19518:	46b9                	li	a3,14
   1951a:	4711                	li	a4,4
   1951c:	00000073          	ecall
   19520:	00950463          	beq	a0,s1,19528 <_ZN20complex_dynamic_type3app17he225f7851c5ce017E+0x58>
   19524:	00f10223          	sb	a5,4(sp)
   19528:	4609                	li	a2,2
   1952a:	00c51463          	bne	a0,a2,19532 <_ZN20complex_dynamic_type3app17he225f7851c5ce017E+0x62>
   1952e:	4785                	li	a5,1
   19530:	a859                	j	195c6 <_ZN20complex_dynamic_type3app17he225f7851c5ce017E+0xf6>
   19532:	01314503          	lbu	a0,19(sp)
   19536:	4785                	li	a5,1
   19538:	02c51363          	bne	a0,a2,1955e <_ZN20complex_dynamic_type3app17he225f7851c5ce017E+0x8e>
   1953c:	864e                	mv	a2,s3
   1953e:	6505                	lui	a0,0x1
   19540:	45a1                	li	a1,8
   19542:	04800693          	li	a3,72
   19546:	470d                	li	a4,3
   19548:	2d150513          	addi	a0,a0,721 # 12d1 <.Lline_table_start1+0x10a6>
   1954c:	4489                	li	s1,2
   1954e:	00000073          	ecall
   19552:	460d                	li	a2,3
   19554:	00951963          	bne	a0,s1,19566 <_ZN20complex_dynamic_type3app17he225f7851c5ce017E+0x96>
   19558:	4505                	li	a0,1
   1955a:	c911                	beqz	a0,1956e <_ZN20complex_dynamic_type3app17he225f7851c5ce017E+0x9e>
   1955c:	a0ad                	j	195c6 <_ZN20complex_dynamic_type3app17he225f7851c5ce017E+0xf6>
   1955e:	458d                	li	a1,3
   19560:	4505                	li	a0,1
   19562:	c511                	beqz	a0,1956e <_ZN20complex_dynamic_type3app17he225f7851c5ce017E+0x9e>
   19564:	a08d                	j	195c6 <_ZN20complex_dynamic_type3app17he225f7851c5ce017E+0xf6>
   19566:	4501                	li	a0,0
   19568:	00c109a3          	sb	a2,19(sp)
   1956c:	ed29                	bnez	a0,195c6 <_ZN20complex_dynamic_type3app17he225f7851c5ce017E+0xf6>
   1956e:	4681                	li	a3,0
   19570:	6505                	lui	a0,0x1
   19572:	458d                	li	a1,3
   19574:	4621                	li	a2,8
   19576:	4709                	li	a4,2
   19578:	2d150513          	addi	a0,a0,721 # 12d1 <.Lline_table_start1+0x10a6>
   1957c:	07f00493          	li	s1,127
   19580:	00000073          	ecall
   19584:	4689                	li	a3,2
   19586:	04a4f063          	bgeu	s1,a0,195c6 <_ZN20complex_dynamic_type3app17he225f7851c5ce017E+0xf6>
   1958a:	00414603          	lbu	a2,4(sp)
   1958e:	00d60a63          	beq	a2,a3,195a2 <_ZN20complex_dynamic_type3app17he225f7851c5ce017E+0xd2>
   19592:	6505                	lui	a0,0x1
   19594:	2d150513          	addi	a0,a0,721 # 12d1 <.Lline_table_start1+0x10a6>
   19598:	458d                	li	a1,3
   1959a:	00006097          	auipc	ra,0x6
   1959e:	60a080e7          	jalr	1546(ra) # 1fba4 <_ZN9allow_pin12dynamic_type7unshare17hb27555f71d22f3b2E>
   195a2:	01314603          	lbu	a2,19(sp)
   195a6:	4409                	li	s0,2
   195a8:	00810223          	sb	s0,4(sp)
   195ac:	00860a63          	beq	a2,s0,195c0 <_ZN20complex_dynamic_type3app17he225f7851c5ce017E+0xf0>
   195b0:	6505                	lui	a0,0x1
   195b2:	2d150513          	addi	a0,a0,721 # 12d1 <.Lline_table_start1+0x10a6>
   195b6:	45a1                	li	a1,8
   195b8:	00006097          	auipc	ra,0x6
   195bc:	5ec080e7          	jalr	1516(ra) # 1fba4 <_ZN9allow_pin12dynamic_type7unshare17hb27555f71d22f3b2E>
   195c0:	4781                	li	a5,0
   195c2:	008109a3          	sb	s0,19(sp)
   195c6:	cb85                	beqz	a5,195f6 <_ZN20complex_dynamic_type3app17he225f7851c5ce017E+0x126>
   195c8:	01314603          	lbu	a2,19(sp)
   195cc:	4505                	li	a0,1
   195ce:	4409                	li	s0,2
   195d0:	00a90023          	sb	a0,0(s2)
   195d4:	00b92223          	sw	a1,4(s2)
   195d8:	00860a63          	beq	a2,s0,195ec <_ZN20complex_dynamic_type3app17he225f7851c5ce017E+0x11c>
   195dc:	6505                	lui	a0,0x1
   195de:	2d150513          	addi	a0,a0,721 # 12d1 <.Lline_table_start1+0x10a6>
   195e2:	45a1                	li	a1,8
   195e4:	00006097          	auipc	ra,0x6
   195e8:	5c0080e7          	jalr	1472(ra) # 1fba4 <_ZN9allow_pin12dynamic_type7unshare17hb27555f71d22f3b2E>
   195ec:	00414603          	lbu	a2,4(sp)
   195f0:	04861763          	bne	a2,s0,1963e <_ZN20complex_dynamic_type3app17he225f7851c5ce017E+0x16e>
   195f4:	a8a9                	j	1964e <_ZN20complex_dynamic_type3app17he225f7851c5ce017E+0x17e>
   195f6:	01314403          	lbu	s0,19(sp)
   195fa:	4489                	li	s1,2
   195fc:	00940663          	beq	s0,s1,19608 <_ZN20complex_dynamic_type3app17he225f7851c5ce017E+0x138>
   19600:	000109b7          	lui	s3,0x10
   19604:	2c198993          	addi	s3,s3,705 # 102c1 <.Lanon.49c9f8067fe4468184af16d7576940c9.11>
   19608:	00190513          	addi	a0,s2,1
   1960c:	04800613          	li	a2,72
   19610:	85ce                	mv	a1,s3
   19612:	00006097          	auipc	ra,0x6
   19616:	60a080e7          	jalr	1546(ra) # 1fc1c <memcpy>
   1961a:	00090023          	sb	zero,0(s2)
   1961e:	00940b63          	beq	s0,s1,19634 <_ZN20complex_dynamic_type3app17he225f7851c5ce017E+0x164>
   19622:	6505                	lui	a0,0x1
   19624:	2d150513          	addi	a0,a0,721 # 12d1 <.Lline_table_start1+0x10a6>
   19628:	45a1                	li	a1,8
   1962a:	8622                	mv	a2,s0
   1962c:	00006097          	auipc	ra,0x6
   19630:	578080e7          	jalr	1400(ra) # 1fba4 <_ZN9allow_pin12dynamic_type7unshare17hb27555f71d22f3b2E>
   19634:	00414603          	lbu	a2,4(sp)
   19638:	4509                	li	a0,2
   1963a:	00a60a63          	beq	a2,a0,1964e <_ZN20complex_dynamic_type3app17he225f7851c5ce017E+0x17e>
   1963e:	6505                	lui	a0,0x1
   19640:	2d150513          	addi	a0,a0,721 # 12d1 <.Lline_table_start1+0x10a6>
   19644:	458d                	li	a1,3
   19646:	00006097          	auipc	ra,0x6
   1964a:	55e080e7          	jalr	1374(ra) # 1fba4 <_ZN9allow_pin12dynamic_type7unshare17hb27555f71d22f3b2E>
   1964e:	50b6                	lw	ra,108(sp)
   19650:	5426                	lw	s0,104(sp)
   19652:	5496                	lw	s1,100(sp)
   19654:	5906                	lw	s2,96(sp)
   19656:	49f6                	lw	s3,92(sp)
   19658:	6165                	addi	sp,sp,112
   1965a:	8082                	ret

0001965c <_ZN20complex_dynamic_type3app17he4762233fbe763b1E>:
   1965c:	7119                	addi	sp,sp,-128
   1965e:	de86                	sw	ra,124(sp)
   19660:	dca2                	sw	s0,120(sp)
   19662:	daa6                	sw	s1,116(sp)
   19664:	d8ca                	sw	s2,112(sp)
   19666:	d6ce                	sw	s3,108(sp)
   19668:	892a                	mv	s2,a0
   1966a:	4489                	li	s1,2
   1966c:	00910223          	sb	s1,4(sp)
   19670:	00510413          	addi	s0,sp,5
   19674:	05500613          	li	a2,85
   19678:	8522                	mv	a0,s0
   1967a:	00006097          	auipc	ra,0x6
   1967e:	5a2080e7          	jalr	1442(ra) # 1fc1c <memcpy>
   19682:	05b10993          	addi	s3,sp,91
   19686:	4645                	li	a2,17
   19688:	854e                	mv	a0,s3
   1968a:	4581                	li	a1,0
   1968c:	00006097          	auipc	ra,0x6
   19690:	524080e7          	jalr	1316(ra) # 1fbb0 <memset>
   19694:	8622                	mv	a2,s0
   19696:	04910d23          	sb	s1,90(sp)
   1969a:	6505                	lui	a0,0x1
   1969c:	4791                	li	a5,4
   1969e:	4589                	li	a1,2
   196a0:	c8950513          	addi	a0,a0,-887 # c89 <.Lline_table_start1+0xa5e>
   196a4:	05500693          	li	a3,85
   196a8:	4711                	li	a4,4
   196aa:	00000073          	ecall
   196ae:	00950463          	beq	a0,s1,196b6 <_ZN20complex_dynamic_type3app17he4762233fbe763b1E+0x5a>
   196b2:	00f10223          	sb	a5,4(sp)
   196b6:	4609                	li	a2,2
   196b8:	00c51463          	bne	a0,a2,196c0 <_ZN20complex_dynamic_type3app17he4762233fbe763b1E+0x64>
   196bc:	4785                	li	a5,1
   196be:	a851                	j	19752 <_ZN20complex_dynamic_type3app17he4762233fbe763b1E+0xf6>
   196c0:	05a14503          	lbu	a0,90(sp)
   196c4:	4785                	li	a5,1
   196c6:	02c51263          	bne	a0,a2,196ea <_ZN20complex_dynamic_type3app17he4762233fbe763b1E+0x8e>
   196ca:	864e                	mv	a2,s3
   196cc:	6505                	lui	a0,0x1
   196ce:	4409                	li	s0,2
   196d0:	448d                	li	s1,3
   196d2:	4589                	li	a1,2
   196d4:	c8950513          	addi	a0,a0,-887 # c89 <.Lline_table_start1+0xa5e>
   196d8:	46c5                	li	a3,17
   196da:	470d                	li	a4,3
   196dc:	00000073          	ecall
   196e0:	00851963          	bne	a0,s0,196f2 <_ZN20complex_dynamic_type3app17he4762233fbe763b1E+0x96>
   196e4:	4505                	li	a0,1
   196e6:	c911                	beqz	a0,196fa <_ZN20complex_dynamic_type3app17he4762233fbe763b1E+0x9e>
   196e8:	a0ad                	j	19752 <_ZN20complex_dynamic_type3app17he4762233fbe763b1E+0xf6>
   196ea:	458d                	li	a1,3
   196ec:	4505                	li	a0,1
   196ee:	c511                	beqz	a0,196fa <_ZN20complex_dynamic_type3app17he4762233fbe763b1E+0x9e>
   196f0:	a08d                	j	19752 <_ZN20complex_dynamic_type3app17he4762233fbe763b1E+0xf6>
   196f2:	4501                	li	a0,0
   196f4:	04910d23          	sb	s1,90(sp)
   196f8:	ed29                	bnez	a0,19752 <_ZN20complex_dynamic_type3app17he4762233fbe763b1E+0xf6>
   196fa:	4681                	li	a3,0
   196fc:	6505                	lui	a0,0x1
   196fe:	4589                	li	a1,2
   19700:	4609                	li	a2,2
   19702:	4709                	li	a4,2
   19704:	c8950513          	addi	a0,a0,-887 # c89 <.Lline_table_start1+0xa5e>
   19708:	07f00493          	li	s1,127
   1970c:	00000073          	ecall
   19710:	4689                	li	a3,2
   19712:	04a4f063          	bgeu	s1,a0,19752 <_ZN20complex_dynamic_type3app17he4762233fbe763b1E+0xf6>
   19716:	00414603          	lbu	a2,4(sp)
   1971a:	00d60a63          	beq	a2,a3,1972e <_ZN20complex_dynamic_type3app17he4762233fbe763b1E+0xd2>
   1971e:	6505                	lui	a0,0x1
   19720:	c8950513          	addi	a0,a0,-887 # c89 <.Lline_table_start1+0xa5e>
   19724:	4589                	li	a1,2
   19726:	00006097          	auipc	ra,0x6
   1972a:	47e080e7          	jalr	1150(ra) # 1fba4 <_ZN9allow_pin12dynamic_type7unshare17hb27555f71d22f3b2E>
   1972e:	05a14603          	lbu	a2,90(sp)
   19732:	4409                	li	s0,2
   19734:	00810223          	sb	s0,4(sp)
   19738:	00860a63          	beq	a2,s0,1974c <_ZN20complex_dynamic_type3app17he4762233fbe763b1E+0xf0>
   1973c:	6505                	lui	a0,0x1
   1973e:	c8950513          	addi	a0,a0,-887 # c89 <.Lline_table_start1+0xa5e>
   19742:	4589                	li	a1,2
   19744:	00006097          	auipc	ra,0x6
   19748:	460080e7          	jalr	1120(ra) # 1fba4 <_ZN9allow_pin12dynamic_type7unshare17hb27555f71d22f3b2E>
   1974c:	4781                	li	a5,0
   1974e:	04810d23          	sb	s0,90(sp)
   19752:	cb85                	beqz	a5,19782 <_ZN20complex_dynamic_type3app17he4762233fbe763b1E+0x126>
   19754:	05a14603          	lbu	a2,90(sp)
   19758:	4505                	li	a0,1
   1975a:	4409                	li	s0,2
   1975c:	00a90023          	sb	a0,0(s2)
   19760:	00b92223          	sw	a1,4(s2)
   19764:	00860a63          	beq	a2,s0,19778 <_ZN20complex_dynamic_type3app17he4762233fbe763b1E+0x11c>
   19768:	6505                	lui	a0,0x1
   1976a:	c8950513          	addi	a0,a0,-887 # c89 <.Lline_table_start1+0xa5e>
   1976e:	4589                	li	a1,2
   19770:	00006097          	auipc	ra,0x6
   19774:	434080e7          	jalr	1076(ra) # 1fba4 <_ZN9allow_pin12dynamic_type7unshare17hb27555f71d22f3b2E>
   19778:	00414603          	lbu	a2,4(sp)
   1977c:	04861663          	bne	a2,s0,197c8 <_ZN20complex_dynamic_type3app17he4762233fbe763b1E+0x16c>
   19780:	a8a1                	j	197d8 <_ZN20complex_dynamic_type3app17he4762233fbe763b1E+0x17c>
   19782:	05a14403          	lbu	s0,90(sp)
   19786:	4489                	li	s1,2
   19788:	00940663          	beq	s0,s1,19794 <_ZN20complex_dynamic_type3app17he4762233fbe763b1E+0x138>
   1978c:	000109b7          	lui	s3,0x10
   19790:	60998993          	addi	s3,s3,1545 # 10609 <.Lanon.49c9f8067fe4468184af16d7576940c9.27>
   19794:	00190513          	addi	a0,s2,1
   19798:	4645                	li	a2,17
   1979a:	85ce                	mv	a1,s3
   1979c:	00006097          	auipc	ra,0x6
   197a0:	480080e7          	jalr	1152(ra) # 1fc1c <memcpy>
   197a4:	00090023          	sb	zero,0(s2)
   197a8:	00940b63          	beq	s0,s1,197be <_ZN20complex_dynamic_type3app17he4762233fbe763b1E+0x162>
   197ac:	6505                	lui	a0,0x1
   197ae:	c8950513          	addi	a0,a0,-887 # c89 <.Lline_table_start1+0xa5e>
   197b2:	4589                	li	a1,2
   197b4:	8622                	mv	a2,s0
   197b6:	00006097          	auipc	ra,0x6
   197ba:	3ee080e7          	jalr	1006(ra) # 1fba4 <_ZN9allow_pin12dynamic_type7unshare17hb27555f71d22f3b2E>
   197be:	00414603          	lbu	a2,4(sp)
   197c2:	4509                	li	a0,2
   197c4:	00a60a63          	beq	a2,a0,197d8 <_ZN20complex_dynamic_type3app17he4762233fbe763b1E+0x17c>
   197c8:	6505                	lui	a0,0x1
   197ca:	c8950513          	addi	a0,a0,-887 # c89 <.Lline_table_start1+0xa5e>
   197ce:	4589                	li	a1,2
   197d0:	00006097          	auipc	ra,0x6
   197d4:	3d4080e7          	jalr	980(ra) # 1fba4 <_ZN9allow_pin12dynamic_type7unshare17hb27555f71d22f3b2E>
   197d8:	50f6                	lw	ra,124(sp)
   197da:	5466                	lw	s0,120(sp)
   197dc:	54d6                	lw	s1,116(sp)
   197de:	5946                	lw	s2,112(sp)
   197e0:	59b6                	lw	s3,108(sp)
   197e2:	6109                	addi	sp,sp,128
   197e4:	8082                	ret

000197e6 <_ZN20complex_dynamic_type3app17he7148c79cc8a6b9dE>:
   197e6:	7119                	addi	sp,sp,-128
   197e8:	de86                	sw	ra,124(sp)
   197ea:	dca2                	sw	s0,120(sp)
   197ec:	daa6                	sw	s1,116(sp)
   197ee:	d8ca                	sw	s2,112(sp)
   197f0:	d6ce                	sw	s3,108(sp)
   197f2:	892a                	mv	s2,a0
   197f4:	4489                	li	s1,2
   197f6:	00910523          	sb	s1,10(sp)
   197fa:	00b10413          	addi	s0,sp,11
   197fe:	05100613          	li	a2,81
   19802:	8522                	mv	a0,s0
   19804:	00006097          	auipc	ra,0x6
   19808:	418080e7          	jalr	1048(ra) # 1fc1c <memcpy>
   1980c:	05d10993          	addi	s3,sp,93
   19810:	463d                	li	a2,15
   19812:	854e                	mv	a0,s3
   19814:	4581                	li	a1,0
   19816:	00006097          	auipc	ra,0x6
   1981a:	39a080e7          	jalr	922(ra) # 1fbb0 <memset>
   1981e:	4581                	li	a1,0
   19820:	8622                	mv	a2,s0
   19822:	04910e23          	sb	s1,92(sp)
   19826:	6505                	lui	a0,0x1
   19828:	4791                	li	a5,4
   1982a:	3bf50513          	addi	a0,a0,959 # 13bf <.Lline_table_start1+0x1194>
   1982e:	05100693          	li	a3,81
   19832:	4711                	li	a4,4
   19834:	00000073          	ecall
   19838:	00950463          	beq	a0,s1,19840 <_ZN20complex_dynamic_type3app17he7148c79cc8a6b9dE+0x5a>
   1983c:	00f10523          	sb	a5,10(sp)
   19840:	4609                	li	a2,2
   19842:	00c51463          	bne	a0,a2,1984a <_ZN20complex_dynamic_type3app17he7148c79cc8a6b9dE+0x64>
   19846:	4785                	li	a5,1
   19848:	a851                	j	198dc <_ZN20complex_dynamic_type3app17he7148c79cc8a6b9dE+0xf6>
   1984a:	05c14503          	lbu	a0,92(sp)
   1984e:	4785                	li	a5,1
   19850:	02c51263          	bne	a0,a2,19874 <_ZN20complex_dynamic_type3app17he7148c79cc8a6b9dE+0x8e>
   19854:	864e                	mv	a2,s3
   19856:	6505                	lui	a0,0x1
   19858:	458d                	li	a1,3
   1985a:	46bd                	li	a3,15
   1985c:	470d                	li	a4,3
   1985e:	3bf50513          	addi	a0,a0,959 # 13bf <.Lline_table_start1+0x1194>
   19862:	4489                	li	s1,2
   19864:	00000073          	ecall
   19868:	460d                	li	a2,3
   1986a:	00951963          	bne	a0,s1,1987c <_ZN20complex_dynamic_type3app17he7148c79cc8a6b9dE+0x96>
   1986e:	4505                	li	a0,1
   19870:	c911                	beqz	a0,19884 <_ZN20complex_dynamic_type3app17he7148c79cc8a6b9dE+0x9e>
   19872:	a0ad                	j	198dc <_ZN20complex_dynamic_type3app17he7148c79cc8a6b9dE+0xf6>
   19874:	458d                	li	a1,3
   19876:	4505                	li	a0,1
   19878:	c511                	beqz	a0,19884 <_ZN20complex_dynamic_type3app17he7148c79cc8a6b9dE+0x9e>
   1987a:	a08d                	j	198dc <_ZN20complex_dynamic_type3app17he7148c79cc8a6b9dE+0xf6>
   1987c:	4501                	li	a0,0
   1987e:	04c10e23          	sb	a2,92(sp)
   19882:	ed29                	bnez	a0,198dc <_ZN20complex_dynamic_type3app17he7148c79cc8a6b9dE+0xf6>
   19884:	4581                	li	a1,0
   19886:	4681                	li	a3,0
   19888:	6505                	lui	a0,0x1
   1988a:	460d                	li	a2,3
   1988c:	4709                	li	a4,2
   1988e:	3bf50513          	addi	a0,a0,959 # 13bf <.Lline_table_start1+0x1194>
   19892:	07f00493          	li	s1,127
   19896:	00000073          	ecall
   1989a:	4689                	li	a3,2
   1989c:	04a4f063          	bgeu	s1,a0,198dc <_ZN20complex_dynamic_type3app17he7148c79cc8a6b9dE+0xf6>
   198a0:	00a14603          	lbu	a2,10(sp)
   198a4:	00d60a63          	beq	a2,a3,198b8 <_ZN20complex_dynamic_type3app17he7148c79cc8a6b9dE+0xd2>
   198a8:	6505                	lui	a0,0x1
   198aa:	3bf50513          	addi	a0,a0,959 # 13bf <.Lline_table_start1+0x1194>
   198ae:	4581                	li	a1,0
   198b0:	00006097          	auipc	ra,0x6
   198b4:	2f4080e7          	jalr	756(ra) # 1fba4 <_ZN9allow_pin12dynamic_type7unshare17hb27555f71d22f3b2E>
   198b8:	05c14603          	lbu	a2,92(sp)
   198bc:	4409                	li	s0,2
   198be:	00810523          	sb	s0,10(sp)
   198c2:	00860a63          	beq	a2,s0,198d6 <_ZN20complex_dynamic_type3app17he7148c79cc8a6b9dE+0xf0>
   198c6:	6505                	lui	a0,0x1
   198c8:	3bf50513          	addi	a0,a0,959 # 13bf <.Lline_table_start1+0x1194>
   198cc:	458d                	li	a1,3
   198ce:	00006097          	auipc	ra,0x6
   198d2:	2d6080e7          	jalr	726(ra) # 1fba4 <_ZN9allow_pin12dynamic_type7unshare17hb27555f71d22f3b2E>
   198d6:	4781                	li	a5,0
   198d8:	04810e23          	sb	s0,92(sp)
   198dc:	cb85                	beqz	a5,1990c <_ZN20complex_dynamic_type3app17he7148c79cc8a6b9dE+0x126>
   198de:	05c14603          	lbu	a2,92(sp)
   198e2:	4505                	li	a0,1
   198e4:	4409                	li	s0,2
   198e6:	00a90023          	sb	a0,0(s2)
   198ea:	00b92223          	sw	a1,4(s2)
   198ee:	00860a63          	beq	a2,s0,19902 <_ZN20complex_dynamic_type3app17he7148c79cc8a6b9dE+0x11c>
   198f2:	6505                	lui	a0,0x1
   198f4:	3bf50513          	addi	a0,a0,959 # 13bf <.Lline_table_start1+0x1194>
   198f8:	458d                	li	a1,3
   198fa:	00006097          	auipc	ra,0x6
   198fe:	2aa080e7          	jalr	682(ra) # 1fba4 <_ZN9allow_pin12dynamic_type7unshare17hb27555f71d22f3b2E>
   19902:	00a14603          	lbu	a2,10(sp)
   19906:	04861663          	bne	a2,s0,19952 <_ZN20complex_dynamic_type3app17he7148c79cc8a6b9dE+0x16c>
   1990a:	a8a1                	j	19962 <_ZN20complex_dynamic_type3app17he7148c79cc8a6b9dE+0x17c>
   1990c:	05c14403          	lbu	s0,92(sp)
   19910:	4489                	li	s1,2
   19912:	00940663          	beq	s0,s1,1991e <_ZN20complex_dynamic_type3app17he7148c79cc8a6b9dE+0x138>
   19916:	000109b7          	lui	s3,0x10
   1991a:	16c98993          	addi	s3,s3,364 # 1016c <.Lanon.49c9f8067fe4468184af16d7576940c9.4>
   1991e:	00190513          	addi	a0,s2,1
   19922:	463d                	li	a2,15
   19924:	85ce                	mv	a1,s3
   19926:	00006097          	auipc	ra,0x6
   1992a:	2f6080e7          	jalr	758(ra) # 1fc1c <memcpy>
   1992e:	00090023          	sb	zero,0(s2)
   19932:	00940b63          	beq	s0,s1,19948 <_ZN20complex_dynamic_type3app17he7148c79cc8a6b9dE+0x162>
   19936:	6505                	lui	a0,0x1
   19938:	3bf50513          	addi	a0,a0,959 # 13bf <.Lline_table_start1+0x1194>
   1993c:	458d                	li	a1,3
   1993e:	8622                	mv	a2,s0
   19940:	00006097          	auipc	ra,0x6
   19944:	264080e7          	jalr	612(ra) # 1fba4 <_ZN9allow_pin12dynamic_type7unshare17hb27555f71d22f3b2E>
   19948:	00a14603          	lbu	a2,10(sp)
   1994c:	4509                	li	a0,2
   1994e:	00a60a63          	beq	a2,a0,19962 <_ZN20complex_dynamic_type3app17he7148c79cc8a6b9dE+0x17c>
   19952:	6505                	lui	a0,0x1
   19954:	3bf50513          	addi	a0,a0,959 # 13bf <.Lline_table_start1+0x1194>
   19958:	4581                	li	a1,0
   1995a:	00006097          	auipc	ra,0x6
   1995e:	24a080e7          	jalr	586(ra) # 1fba4 <_ZN9allow_pin12dynamic_type7unshare17hb27555f71d22f3b2E>
   19962:	50f6                	lw	ra,124(sp)
   19964:	5466                	lw	s0,120(sp)
   19966:	54d6                	lw	s1,116(sp)
   19968:	5946                	lw	s2,112(sp)
   1996a:	59b6                	lw	s3,108(sp)
   1996c:	6109                	addi	sp,sp,128
   1996e:	8082                	ret

00019970 <_ZN20complex_dynamic_type3app17hea56fa536a0bc323E>:
   19970:	7119                	addi	sp,sp,-128
   19972:	de86                	sw	ra,124(sp)
   19974:	dca2                	sw	s0,120(sp)
   19976:	daa6                	sw	s1,116(sp)
   19978:	d8ca                	sw	s2,112(sp)
   1997a:	d6ce                	sw	s3,108(sp)
   1997c:	892a                	mv	s2,a0
   1997e:	4489                	li	s1,2
   19980:	00910123          	sb	s1,2(sp)
   19984:	00310413          	addi	s0,sp,3
   19988:	464d                	li	a2,19
   1998a:	8522                	mv	a0,s0
   1998c:	00006097          	auipc	ra,0x6
   19990:	290080e7          	jalr	656(ra) # 1fc1c <memcpy>
   19994:	01710993          	addi	s3,sp,23
   19998:	05500613          	li	a2,85
   1999c:	854e                	mv	a0,s3
   1999e:	4581                	li	a1,0
   199a0:	00006097          	auipc	ra,0x6
   199a4:	210080e7          	jalr	528(ra) # 1fbb0 <memset>
   199a8:	8622                	mv	a2,s0
   199aa:	00910b23          	sb	s1,22(sp)
   199ae:	4791                	li	a5,4
   199b0:	32e00513          	li	a0,814
   199b4:	45a5                	li	a1,9
   199b6:	46cd                	li	a3,19
   199b8:	4711                	li	a4,4
   199ba:	00000073          	ecall
   199be:	00950463          	beq	a0,s1,199c6 <_ZN20complex_dynamic_type3app17hea56fa536a0bc323E+0x56>
   199c2:	00f10123          	sb	a5,2(sp)
   199c6:	4609                	li	a2,2
   199c8:	00c51463          	bne	a0,a2,199d0 <_ZN20complex_dynamic_type3app17hea56fa536a0bc323E+0x60>
   199cc:	4785                	li	a5,1
   199ce:	a079                	j	19a5c <_ZN20complex_dynamic_type3app17hea56fa536a0bc323E+0xec>
   199d0:	01614503          	lbu	a0,22(sp)
   199d4:	4785                	li	a5,1
   199d6:	02c51263          	bne	a0,a2,199fa <_ZN20complex_dynamic_type3app17hea56fa536a0bc323E+0x8a>
   199da:	864e                	mv	a2,s3
   199dc:	32e00513          	li	a0,814
   199e0:	459d                	li	a1,7
   199e2:	05500693          	li	a3,85
   199e6:	470d                	li	a4,3
   199e8:	4489                	li	s1,2
   199ea:	00000073          	ecall
   199ee:	460d                	li	a2,3
   199f0:	00951963          	bne	a0,s1,19a02 <_ZN20complex_dynamic_type3app17hea56fa536a0bc323E+0x92>
   199f4:	4505                	li	a0,1
   199f6:	c911                	beqz	a0,19a0a <_ZN20complex_dynamic_type3app17hea56fa536a0bc323E+0x9a>
   199f8:	a095                	j	19a5c <_ZN20complex_dynamic_type3app17hea56fa536a0bc323E+0xec>
   199fa:	458d                	li	a1,3
   199fc:	4505                	li	a0,1
   199fe:	c511                	beqz	a0,19a0a <_ZN20complex_dynamic_type3app17hea56fa536a0bc323E+0x9a>
   19a00:	a8b1                	j	19a5c <_ZN20complex_dynamic_type3app17hea56fa536a0bc323E+0xec>
   19a02:	4501                	li	a0,0
   19a04:	00c10b23          	sb	a2,22(sp)
   19a08:	e931                	bnez	a0,19a5c <_ZN20complex_dynamic_type3app17hea56fa536a0bc323E+0xec>
   19a0a:	4681                	li	a3,0
   19a0c:	32e00513          	li	a0,814
   19a10:	45a5                	li	a1,9
   19a12:	461d                	li	a2,7
   19a14:	4709                	li	a4,2
   19a16:	07f00493          	li	s1,127
   19a1a:	00000073          	ecall
   19a1e:	4689                	li	a3,2
   19a20:	02a4fe63          	bgeu	s1,a0,19a5c <_ZN20complex_dynamic_type3app17hea56fa536a0bc323E+0xec>
   19a24:	00214603          	lbu	a2,2(sp)
   19a28:	00d60963          	beq	a2,a3,19a3a <_ZN20complex_dynamic_type3app17hea56fa536a0bc323E+0xca>
   19a2c:	32e00513          	li	a0,814
   19a30:	45a5                	li	a1,9
   19a32:	00006097          	auipc	ra,0x6
   19a36:	172080e7          	jalr	370(ra) # 1fba4 <_ZN9allow_pin12dynamic_type7unshare17hb27555f71d22f3b2E>
   19a3a:	01614603          	lbu	a2,22(sp)
   19a3e:	4409                	li	s0,2
   19a40:	00810123          	sb	s0,2(sp)
   19a44:	00860963          	beq	a2,s0,19a56 <_ZN20complex_dynamic_type3app17hea56fa536a0bc323E+0xe6>
   19a48:	32e00513          	li	a0,814
   19a4c:	459d                	li	a1,7
   19a4e:	00006097          	auipc	ra,0x6
   19a52:	156080e7          	jalr	342(ra) # 1fba4 <_ZN9allow_pin12dynamic_type7unshare17hb27555f71d22f3b2E>
   19a56:	4781                	li	a5,0
   19a58:	00810b23          	sb	s0,22(sp)
   19a5c:	c79d                	beqz	a5,19a8a <_ZN20complex_dynamic_type3app17hea56fa536a0bc323E+0x11a>
   19a5e:	01614603          	lbu	a2,22(sp)
   19a62:	4505                	li	a0,1
   19a64:	4409                	li	s0,2
   19a66:	00a90023          	sb	a0,0(s2)
   19a6a:	00b92223          	sw	a1,4(s2)
   19a6e:	00860963          	beq	a2,s0,19a80 <_ZN20complex_dynamic_type3app17hea56fa536a0bc323E+0x110>
   19a72:	32e00513          	li	a0,814
   19a76:	459d                	li	a1,7
   19a78:	00006097          	auipc	ra,0x6
   19a7c:	12c080e7          	jalr	300(ra) # 1fba4 <_ZN9allow_pin12dynamic_type7unshare17hb27555f71d22f3b2E>
   19a80:	00214603          	lbu	a2,2(sp)
   19a84:	04861663          	bne	a2,s0,19ad0 <_ZN20complex_dynamic_type3app17hea56fa536a0bc323E+0x160>
   19a88:	a899                	j	19ade <_ZN20complex_dynamic_type3app17hea56fa536a0bc323E+0x16e>
   19a8a:	01614403          	lbu	s0,22(sp)
   19a8e:	4489                	li	s1,2
   19a90:	00940663          	beq	s0,s1,19a9c <_ZN20complex_dynamic_type3app17hea56fa536a0bc323E+0x12c>
   19a94:	000109b7          	lui	s3,0x10
   19a98:	61a98993          	addi	s3,s3,1562 # 1061a <.Lanon.49c9f8067fe4468184af16d7576940c9.28>
   19a9c:	00190513          	addi	a0,s2,1
   19aa0:	05500613          	li	a2,85
   19aa4:	85ce                	mv	a1,s3
   19aa6:	00006097          	auipc	ra,0x6
   19aaa:	176080e7          	jalr	374(ra) # 1fc1c <memcpy>
   19aae:	00090023          	sb	zero,0(s2)
   19ab2:	00940a63          	beq	s0,s1,19ac6 <_ZN20complex_dynamic_type3app17hea56fa536a0bc323E+0x156>
   19ab6:	32e00513          	li	a0,814
   19aba:	459d                	li	a1,7
   19abc:	8622                	mv	a2,s0
   19abe:	00006097          	auipc	ra,0x6
   19ac2:	0e6080e7          	jalr	230(ra) # 1fba4 <_ZN9allow_pin12dynamic_type7unshare17hb27555f71d22f3b2E>
   19ac6:	00214603          	lbu	a2,2(sp)
   19aca:	4509                	li	a0,2
   19acc:	00a60963          	beq	a2,a0,19ade <_ZN20complex_dynamic_type3app17hea56fa536a0bc323E+0x16e>
   19ad0:	32e00513          	li	a0,814
   19ad4:	45a5                	li	a1,9
   19ad6:	00006097          	auipc	ra,0x6
   19ada:	0ce080e7          	jalr	206(ra) # 1fba4 <_ZN9allow_pin12dynamic_type7unshare17hb27555f71d22f3b2E>
   19ade:	50f6                	lw	ra,124(sp)
   19ae0:	5466                	lw	s0,120(sp)
   19ae2:	54d6                	lw	s1,116(sp)
   19ae4:	5946                	lw	s2,112(sp)
   19ae6:	59b6                	lw	s3,108(sp)
   19ae8:	6109                	addi	sp,sp,128
   19aea:	8082                	ret

00019aec <_ZN20complex_dynamic_type3app17heb909a3493d373a1E>:
   19aec:	7119                	addi	sp,sp,-128
   19aee:	de86                	sw	ra,124(sp)
   19af0:	dca2                	sw	s0,120(sp)
   19af2:	daa6                	sw	s1,116(sp)
   19af4:	d8ca                	sw	s2,112(sp)
   19af6:	d6ce                	sw	s3,108(sp)
   19af8:	892a                	mv	s2,a0
   19afa:	4489                	li	s1,2
   19afc:	009101a3          	sb	s1,3(sp)
   19b00:	0040                	addi	s0,sp,4
   19b02:	04400613          	li	a2,68
   19b06:	8522                	mv	a0,s0
   19b08:	00006097          	auipc	ra,0x6
   19b0c:	114080e7          	jalr	276(ra) # 1fc1c <memcpy>
   19b10:	04910993          	addi	s3,sp,73
   19b14:	02300613          	li	a2,35
   19b18:	854e                	mv	a0,s3
   19b1a:	4581                	li	a1,0
   19b1c:	00006097          	auipc	ra,0x6
   19b20:	094080e7          	jalr	148(ra) # 1fbb0 <memset>
   19b24:	8622                	mv	a2,s0
   19b26:	04910423          	sb	s1,72(sp)
   19b2a:	6505                	lui	a0,0x1
   19b2c:	4791                	li	a5,4
   19b2e:	4599                	li	a1,6
   19b30:	9bf50513          	addi	a0,a0,-1601 # 9bf <.Lline_table_start1+0x794>
   19b34:	04400693          	li	a3,68
   19b38:	4711                	li	a4,4
   19b3a:	00000073          	ecall
   19b3e:	00950463          	beq	a0,s1,19b46 <_ZN20complex_dynamic_type3app17heb909a3493d373a1E+0x5a>
   19b42:	00f101a3          	sb	a5,3(sp)
   19b46:	4609                	li	a2,2
   19b48:	00c51463          	bne	a0,a2,19b50 <_ZN20complex_dynamic_type3app17heb909a3493d373a1E+0x64>
   19b4c:	4785                	li	a5,1
   19b4e:	a859                	j	19be4 <_ZN20complex_dynamic_type3app17heb909a3493d373a1E+0xf8>
   19b50:	04814503          	lbu	a0,72(sp)
   19b54:	4785                	li	a5,1
   19b56:	02c51363          	bne	a0,a2,19b7c <_ZN20complex_dynamic_type3app17heb909a3493d373a1E+0x90>
   19b5a:	864e                	mv	a2,s3
   19b5c:	6505                	lui	a0,0x1
   19b5e:	458d                	li	a1,3
   19b60:	02300693          	li	a3,35
   19b64:	470d                	li	a4,3
   19b66:	9bf50513          	addi	a0,a0,-1601 # 9bf <.Lline_table_start1+0x794>
   19b6a:	4489                	li	s1,2
   19b6c:	00000073          	ecall
   19b70:	460d                	li	a2,3
   19b72:	00951963          	bne	a0,s1,19b84 <_ZN20complex_dynamic_type3app17heb909a3493d373a1E+0x98>
   19b76:	4505                	li	a0,1
   19b78:	c911                	beqz	a0,19b8c <_ZN20complex_dynamic_type3app17heb909a3493d373a1E+0xa0>
   19b7a:	a0ad                	j	19be4 <_ZN20complex_dynamic_type3app17heb909a3493d373a1E+0xf8>
   19b7c:	458d                	li	a1,3
   19b7e:	4505                	li	a0,1
   19b80:	c511                	beqz	a0,19b8c <_ZN20complex_dynamic_type3app17heb909a3493d373a1E+0xa0>
   19b82:	a08d                	j	19be4 <_ZN20complex_dynamic_type3app17heb909a3493d373a1E+0xf8>
   19b84:	4501                	li	a0,0
   19b86:	04c10423          	sb	a2,72(sp)
   19b8a:	ed29                	bnez	a0,19be4 <_ZN20complex_dynamic_type3app17heb909a3493d373a1E+0xf8>
   19b8c:	4681                	li	a3,0
   19b8e:	6505                	lui	a0,0x1
   19b90:	4599                	li	a1,6
   19b92:	460d                	li	a2,3
   19b94:	4709                	li	a4,2
   19b96:	9bf50513          	addi	a0,a0,-1601 # 9bf <.Lline_table_start1+0x794>
   19b9a:	07f00493          	li	s1,127
   19b9e:	00000073          	ecall
   19ba2:	4689                	li	a3,2
   19ba4:	04a4f063          	bgeu	s1,a0,19be4 <_ZN20complex_dynamic_type3app17heb909a3493d373a1E+0xf8>
   19ba8:	00314603          	lbu	a2,3(sp)
   19bac:	00d60a63          	beq	a2,a3,19bc0 <_ZN20complex_dynamic_type3app17heb909a3493d373a1E+0xd4>
   19bb0:	6505                	lui	a0,0x1
   19bb2:	9bf50513          	addi	a0,a0,-1601 # 9bf <.Lline_table_start1+0x794>
   19bb6:	4599                	li	a1,6
   19bb8:	00006097          	auipc	ra,0x6
   19bbc:	fec080e7          	jalr	-20(ra) # 1fba4 <_ZN9allow_pin12dynamic_type7unshare17hb27555f71d22f3b2E>
   19bc0:	04814603          	lbu	a2,72(sp)
   19bc4:	4409                	li	s0,2
   19bc6:	008101a3          	sb	s0,3(sp)
   19bca:	00860a63          	beq	a2,s0,19bde <_ZN20complex_dynamic_type3app17heb909a3493d373a1E+0xf2>
   19bce:	6505                	lui	a0,0x1
   19bd0:	9bf50513          	addi	a0,a0,-1601 # 9bf <.Lline_table_start1+0x794>
   19bd4:	458d                	li	a1,3
   19bd6:	00006097          	auipc	ra,0x6
   19bda:	fce080e7          	jalr	-50(ra) # 1fba4 <_ZN9allow_pin12dynamic_type7unshare17hb27555f71d22f3b2E>
   19bde:	4781                	li	a5,0
   19be0:	04810423          	sb	s0,72(sp)
   19be4:	cb85                	beqz	a5,19c14 <_ZN20complex_dynamic_type3app17heb909a3493d373a1E+0x128>
   19be6:	04814603          	lbu	a2,72(sp)
   19bea:	4505                	li	a0,1
   19bec:	4409                	li	s0,2
   19bee:	00a90023          	sb	a0,0(s2)
   19bf2:	00b92223          	sw	a1,4(s2)
   19bf6:	00860a63          	beq	a2,s0,19c0a <_ZN20complex_dynamic_type3app17heb909a3493d373a1E+0x11e>
   19bfa:	6505                	lui	a0,0x1
   19bfc:	9bf50513          	addi	a0,a0,-1601 # 9bf <.Lline_table_start1+0x794>
   19c00:	458d                	li	a1,3
   19c02:	00006097          	auipc	ra,0x6
   19c06:	fa2080e7          	jalr	-94(ra) # 1fba4 <_ZN9allow_pin12dynamic_type7unshare17hb27555f71d22f3b2E>
   19c0a:	00314603          	lbu	a2,3(sp)
   19c0e:	04861763          	bne	a2,s0,19c5c <_ZN20complex_dynamic_type3app17heb909a3493d373a1E+0x170>
   19c12:	a8a9                	j	19c6c <_ZN20complex_dynamic_type3app17heb909a3493d373a1E+0x180>
   19c14:	04814403          	lbu	s0,72(sp)
   19c18:	4489                	li	s1,2
   19c1a:	00940663          	beq	s0,s1,19c26 <_ZN20complex_dynamic_type3app17heb909a3493d373a1E+0x13a>
   19c1e:	000109b7          	lui	s3,0x10
   19c22:	24d98993          	addi	s3,s3,589 # 1024d <.Lanon.49c9f8067fe4468184af16d7576940c9.9>
   19c26:	00190513          	addi	a0,s2,1
   19c2a:	02300613          	li	a2,35
   19c2e:	85ce                	mv	a1,s3
   19c30:	00006097          	auipc	ra,0x6
   19c34:	fec080e7          	jalr	-20(ra) # 1fc1c <memcpy>
   19c38:	00090023          	sb	zero,0(s2)
   19c3c:	00940b63          	beq	s0,s1,19c52 <_ZN20complex_dynamic_type3app17heb909a3493d373a1E+0x166>
   19c40:	6505                	lui	a0,0x1
   19c42:	9bf50513          	addi	a0,a0,-1601 # 9bf <.Lline_table_start1+0x794>
   19c46:	458d                	li	a1,3
   19c48:	8622                	mv	a2,s0
   19c4a:	00006097          	auipc	ra,0x6
   19c4e:	f5a080e7          	jalr	-166(ra) # 1fba4 <_ZN9allow_pin12dynamic_type7unshare17hb27555f71d22f3b2E>
   19c52:	00314603          	lbu	a2,3(sp)
   19c56:	4509                	li	a0,2
   19c58:	00a60a63          	beq	a2,a0,19c6c <_ZN20complex_dynamic_type3app17heb909a3493d373a1E+0x180>
   19c5c:	6505                	lui	a0,0x1
   19c5e:	9bf50513          	addi	a0,a0,-1601 # 9bf <.Lline_table_start1+0x794>
   19c62:	4599                	li	a1,6
   19c64:	00006097          	auipc	ra,0x6
   19c68:	f40080e7          	jalr	-192(ra) # 1fba4 <_ZN9allow_pin12dynamic_type7unshare17hb27555f71d22f3b2E>
   19c6c:	50f6                	lw	ra,124(sp)
   19c6e:	5466                	lw	s0,120(sp)
   19c70:	54d6                	lw	s1,116(sp)
   19c72:	5946                	lw	s2,112(sp)
   19c74:	59b6                	lw	s3,108(sp)
   19c76:	6109                	addi	sp,sp,128
   19c78:	8082                	ret

00019c7a <_ZN20complex_dynamic_type3app17hebb732e3ff275f58E>:
   19c7a:	711d                	addi	sp,sp,-96
   19c7c:	ce86                	sw	ra,92(sp)
   19c7e:	cca2                	sw	s0,88(sp)
   19c80:	caa6                	sw	s1,84(sp)
   19c82:	c8ca                	sw	s2,80(sp)
   19c84:	c6ce                	sw	s3,76(sp)
   19c86:	892a                	mv	s2,a0
   19c88:	4489                	li	s1,2
   19c8a:	009105a3          	sb	s1,11(sp)
   19c8e:	0060                	addi	s0,sp,12
   19c90:	4651                	li	a2,20
   19c92:	8522                	mv	a0,s0
   19c94:	00006097          	auipc	ra,0x6
   19c98:	f88080e7          	jalr	-120(ra) # 1fc1c <memcpy>
   19c9c:	02110993          	addi	s3,sp,33
   19ca0:	02b00613          	li	a2,43
   19ca4:	854e                	mv	a0,s3
   19ca6:	4581                	li	a1,0
   19ca8:	00006097          	auipc	ra,0x6
   19cac:	f08080e7          	jalr	-248(ra) # 1fbb0 <memset>
   19cb0:	8622                	mv	a2,s0
   19cb2:	02910023          	sb	s1,32(sp)
   19cb6:	6509                	lui	a0,0x2
   19cb8:	4791                	li	a5,4
   19cba:	45a1                	li	a1,8
   19cbc:	39f50513          	addi	a0,a0,927 # 239f <.Lline_table_start1+0x2174>
   19cc0:	46d1                	li	a3,20
   19cc2:	4711                	li	a4,4
   19cc4:	00000073          	ecall
   19cc8:	00950463          	beq	a0,s1,19cd0 <_ZN20complex_dynamic_type3app17hebb732e3ff275f58E+0x56>
   19ccc:	00f105a3          	sb	a5,11(sp)
   19cd0:	4609                	li	a2,2
   19cd2:	00c51463          	bne	a0,a2,19cda <_ZN20complex_dynamic_type3app17hebb732e3ff275f58E+0x60>
   19cd6:	4785                	li	a5,1
   19cd8:	a859                	j	19d6e <_ZN20complex_dynamic_type3app17hebb732e3ff275f58E+0xf4>
   19cda:	02014503          	lbu	a0,32(sp)
   19cde:	4785                	li	a5,1
   19ce0:	02c51363          	bne	a0,a2,19d06 <_ZN20complex_dynamic_type3app17hebb732e3ff275f58E+0x8c>
   19ce4:	864e                	mv	a2,s3
   19ce6:	6509                	lui	a0,0x2
   19ce8:	4591                	li	a1,4
   19cea:	02b00693          	li	a3,43
   19cee:	470d                	li	a4,3
   19cf0:	39f50513          	addi	a0,a0,927 # 239f <.Lline_table_start1+0x2174>
   19cf4:	4489                	li	s1,2
   19cf6:	00000073          	ecall
   19cfa:	460d                	li	a2,3
   19cfc:	00951963          	bne	a0,s1,19d0e <_ZN20complex_dynamic_type3app17hebb732e3ff275f58E+0x94>
   19d00:	4505                	li	a0,1
   19d02:	c911                	beqz	a0,19d16 <_ZN20complex_dynamic_type3app17hebb732e3ff275f58E+0x9c>
   19d04:	a0ad                	j	19d6e <_ZN20complex_dynamic_type3app17hebb732e3ff275f58E+0xf4>
   19d06:	458d                	li	a1,3
   19d08:	4505                	li	a0,1
   19d0a:	c511                	beqz	a0,19d16 <_ZN20complex_dynamic_type3app17hebb732e3ff275f58E+0x9c>
   19d0c:	a08d                	j	19d6e <_ZN20complex_dynamic_type3app17hebb732e3ff275f58E+0xf4>
   19d0e:	4501                	li	a0,0
   19d10:	02c10023          	sb	a2,32(sp)
   19d14:	ed29                	bnez	a0,19d6e <_ZN20complex_dynamic_type3app17hebb732e3ff275f58E+0xf4>
   19d16:	4681                	li	a3,0
   19d18:	6509                	lui	a0,0x2
   19d1a:	45a1                	li	a1,8
   19d1c:	4611                	li	a2,4
   19d1e:	4709                	li	a4,2
   19d20:	39f50513          	addi	a0,a0,927 # 239f <.Lline_table_start1+0x2174>
   19d24:	07f00493          	li	s1,127
   19d28:	00000073          	ecall
   19d2c:	4689                	li	a3,2
   19d2e:	04a4f063          	bgeu	s1,a0,19d6e <_ZN20complex_dynamic_type3app17hebb732e3ff275f58E+0xf4>
   19d32:	00b14603          	lbu	a2,11(sp)
   19d36:	00d60a63          	beq	a2,a3,19d4a <_ZN20complex_dynamic_type3app17hebb732e3ff275f58E+0xd0>
   19d3a:	6509                	lui	a0,0x2
   19d3c:	39f50513          	addi	a0,a0,927 # 239f <.Lline_table_start1+0x2174>
   19d40:	45a1                	li	a1,8
   19d42:	00006097          	auipc	ra,0x6
   19d46:	e62080e7          	jalr	-414(ra) # 1fba4 <_ZN9allow_pin12dynamic_type7unshare17hb27555f71d22f3b2E>
   19d4a:	02014603          	lbu	a2,32(sp)
   19d4e:	4409                	li	s0,2
   19d50:	008105a3          	sb	s0,11(sp)
   19d54:	00860a63          	beq	a2,s0,19d68 <_ZN20complex_dynamic_type3app17hebb732e3ff275f58E+0xee>
   19d58:	6509                	lui	a0,0x2
   19d5a:	39f50513          	addi	a0,a0,927 # 239f <.Lline_table_start1+0x2174>
   19d5e:	4591                	li	a1,4
   19d60:	00006097          	auipc	ra,0x6
   19d64:	e44080e7          	jalr	-444(ra) # 1fba4 <_ZN9allow_pin12dynamic_type7unshare17hb27555f71d22f3b2E>
   19d68:	4781                	li	a5,0
   19d6a:	02810023          	sb	s0,32(sp)
   19d6e:	cb85                	beqz	a5,19d9e <_ZN20complex_dynamic_type3app17hebb732e3ff275f58E+0x124>
   19d70:	02014603          	lbu	a2,32(sp)
   19d74:	4505                	li	a0,1
   19d76:	4409                	li	s0,2
   19d78:	00a90023          	sb	a0,0(s2)
   19d7c:	00b92223          	sw	a1,4(s2)
   19d80:	00860a63          	beq	a2,s0,19d94 <_ZN20complex_dynamic_type3app17hebb732e3ff275f58E+0x11a>
   19d84:	6509                	lui	a0,0x2
   19d86:	39f50513          	addi	a0,a0,927 # 239f <.Lline_table_start1+0x2174>
   19d8a:	4591                	li	a1,4
   19d8c:	00006097          	auipc	ra,0x6
   19d90:	e18080e7          	jalr	-488(ra) # 1fba4 <_ZN9allow_pin12dynamic_type7unshare17hb27555f71d22f3b2E>
   19d94:	00b14603          	lbu	a2,11(sp)
   19d98:	04861763          	bne	a2,s0,19de6 <_ZN20complex_dynamic_type3app17hebb732e3ff275f58E+0x16c>
   19d9c:	a8a9                	j	19df6 <_ZN20complex_dynamic_type3app17hebb732e3ff275f58E+0x17c>
   19d9e:	02014403          	lbu	s0,32(sp)
   19da2:	4489                	li	s1,2
   19da4:	00940663          	beq	s0,s1,19db0 <_ZN20complex_dynamic_type3app17hebb732e3ff275f58E+0x136>
   19da8:	000109b7          	lui	s3,0x10
   19dac:	34498993          	addi	s3,s3,836 # 10344 <.Lanon.49c9f8067fe4468184af16d7576940c9.13>
   19db0:	00190513          	addi	a0,s2,1
   19db4:	02b00613          	li	a2,43
   19db8:	85ce                	mv	a1,s3
   19dba:	00006097          	auipc	ra,0x6
   19dbe:	e62080e7          	jalr	-414(ra) # 1fc1c <memcpy>
   19dc2:	00090023          	sb	zero,0(s2)
   19dc6:	00940b63          	beq	s0,s1,19ddc <_ZN20complex_dynamic_type3app17hebb732e3ff275f58E+0x162>
   19dca:	6509                	lui	a0,0x2
   19dcc:	39f50513          	addi	a0,a0,927 # 239f <.Lline_table_start1+0x2174>
   19dd0:	4591                	li	a1,4
   19dd2:	8622                	mv	a2,s0
   19dd4:	00006097          	auipc	ra,0x6
   19dd8:	dd0080e7          	jalr	-560(ra) # 1fba4 <_ZN9allow_pin12dynamic_type7unshare17hb27555f71d22f3b2E>
   19ddc:	00b14603          	lbu	a2,11(sp)
   19de0:	4509                	li	a0,2
   19de2:	00a60a63          	beq	a2,a0,19df6 <_ZN20complex_dynamic_type3app17hebb732e3ff275f58E+0x17c>
   19de6:	6509                	lui	a0,0x2
   19de8:	39f50513          	addi	a0,a0,927 # 239f <.Lline_table_start1+0x2174>
   19dec:	45a1                	li	a1,8
   19dee:	00006097          	auipc	ra,0x6
   19df2:	db6080e7          	jalr	-586(ra) # 1fba4 <_ZN9allow_pin12dynamic_type7unshare17hb27555f71d22f3b2E>
   19df6:	40f6                	lw	ra,92(sp)
   19df8:	4466                	lw	s0,88(sp)
   19dfa:	44d6                	lw	s1,84(sp)
   19dfc:	4946                	lw	s2,80(sp)
   19dfe:	49b6                	lw	s3,76(sp)
   19e00:	6125                	addi	sp,sp,96
   19e02:	8082                	ret

00019e04 <_ZN20complex_dynamic_type3app17hf053dfc546142e8bE>:
   19e04:	7139                	addi	sp,sp,-64
   19e06:	de06                	sw	ra,60(sp)
   19e08:	dc22                	sw	s0,56(sp)
   19e0a:	da26                	sw	s1,52(sp)
   19e0c:	d84a                	sw	s2,48(sp)
   19e0e:	d64e                	sw	s3,44(sp)
   19e10:	892a                	mv	s2,a0
   19e12:	4489                	li	s1,2
   19e14:	00910423          	sb	s1,8(sp)
   19e18:	00910413          	addi	s0,sp,9
   19e1c:	463d                	li	a2,15
   19e1e:	8522                	mv	a0,s0
   19e20:	00006097          	auipc	ra,0x6
   19e24:	dfc080e7          	jalr	-516(ra) # 1fc1c <memcpy>
   19e28:	01910993          	addi	s3,sp,25
   19e2c:	464d                	li	a2,19
   19e2e:	854e                	mv	a0,s3
   19e30:	4581                	li	a1,0
   19e32:	00006097          	auipc	ra,0x6
   19e36:	d7e080e7          	jalr	-642(ra) # 1fbb0 <memset>
   19e3a:	8622                	mv	a2,s0
   19e3c:	00910c23          	sb	s1,24(sp)
   19e40:	6509                	lui	a0,0x2
   19e42:	4791                	li	a5,4
   19e44:	458d                	li	a1,3
   19e46:	e4b50513          	addi	a0,a0,-437 # 1e4b <.Lline_table_start1+0x1c20>
   19e4a:	46bd                	li	a3,15
   19e4c:	4711                	li	a4,4
   19e4e:	00000073          	ecall
   19e52:	00950463          	beq	a0,s1,19e5a <_ZN20complex_dynamic_type3app17hf053dfc546142e8bE+0x56>
   19e56:	00f10423          	sb	a5,8(sp)
   19e5a:	4609                	li	a2,2
   19e5c:	00c51463          	bne	a0,a2,19e64 <_ZN20complex_dynamic_type3app17hf053dfc546142e8bE+0x60>
   19e60:	4785                	li	a5,1
   19e62:	a851                	j	19ef6 <_ZN20complex_dynamic_type3app17hf053dfc546142e8bE+0xf2>
   19e64:	01814503          	lbu	a0,24(sp)
   19e68:	4785                	li	a5,1
   19e6a:	02c51263          	bne	a0,a2,19e8e <_ZN20complex_dynamic_type3app17hf053dfc546142e8bE+0x8a>
   19e6e:	4581                	li	a1,0
   19e70:	864e                	mv	a2,s3
   19e72:	6509                	lui	a0,0x2
   19e74:	46cd                	li	a3,19
   19e76:	470d                	li	a4,3
   19e78:	e4b50513          	addi	a0,a0,-437 # 1e4b <.Lline_table_start1+0x1c20>
   19e7c:	4489                	li	s1,2
   19e7e:	00000073          	ecall
   19e82:	460d                	li	a2,3
   19e84:	00951963          	bne	a0,s1,19e96 <_ZN20complex_dynamic_type3app17hf053dfc546142e8bE+0x92>
   19e88:	4505                	li	a0,1
   19e8a:	c911                	beqz	a0,19e9e <_ZN20complex_dynamic_type3app17hf053dfc546142e8bE+0x9a>
   19e8c:	a0ad                	j	19ef6 <_ZN20complex_dynamic_type3app17hf053dfc546142e8bE+0xf2>
   19e8e:	458d                	li	a1,3
   19e90:	4505                	li	a0,1
   19e92:	c511                	beqz	a0,19e9e <_ZN20complex_dynamic_type3app17hf053dfc546142e8bE+0x9a>
   19e94:	a08d                	j	19ef6 <_ZN20complex_dynamic_type3app17hf053dfc546142e8bE+0xf2>
   19e96:	4501                	li	a0,0
   19e98:	00c10c23          	sb	a2,24(sp)
   19e9c:	ed29                	bnez	a0,19ef6 <_ZN20complex_dynamic_type3app17hf053dfc546142e8bE+0xf2>
   19e9e:	4601                	li	a2,0
   19ea0:	4681                	li	a3,0
   19ea2:	6509                	lui	a0,0x2
   19ea4:	458d                	li	a1,3
   19ea6:	4709                	li	a4,2
   19ea8:	e4b50513          	addi	a0,a0,-437 # 1e4b <.Lline_table_start1+0x1c20>
   19eac:	07f00493          	li	s1,127
   19eb0:	00000073          	ecall
   19eb4:	4689                	li	a3,2
   19eb6:	04a4f063          	bgeu	s1,a0,19ef6 <_ZN20complex_dynamic_type3app17hf053dfc546142e8bE+0xf2>
   19eba:	00814603          	lbu	a2,8(sp)
   19ebe:	00d60a63          	beq	a2,a3,19ed2 <_ZN20complex_dynamic_type3app17hf053dfc546142e8bE+0xce>
   19ec2:	6509                	lui	a0,0x2
   19ec4:	e4b50513          	addi	a0,a0,-437 # 1e4b <.Lline_table_start1+0x1c20>
   19ec8:	458d                	li	a1,3
   19eca:	00006097          	auipc	ra,0x6
   19ece:	cda080e7          	jalr	-806(ra) # 1fba4 <_ZN9allow_pin12dynamic_type7unshare17hb27555f71d22f3b2E>
   19ed2:	01814603          	lbu	a2,24(sp)
   19ed6:	4409                	li	s0,2
   19ed8:	00810423          	sb	s0,8(sp)
   19edc:	00860a63          	beq	a2,s0,19ef0 <_ZN20complex_dynamic_type3app17hf053dfc546142e8bE+0xec>
   19ee0:	6509                	lui	a0,0x2
   19ee2:	e4b50513          	addi	a0,a0,-437 # 1e4b <.Lline_table_start1+0x1c20>
   19ee6:	4581                	li	a1,0
   19ee8:	00006097          	auipc	ra,0x6
   19eec:	cbc080e7          	jalr	-836(ra) # 1fba4 <_ZN9allow_pin12dynamic_type7unshare17hb27555f71d22f3b2E>
   19ef0:	4781                	li	a5,0
   19ef2:	00810c23          	sb	s0,24(sp)
   19ef6:	cb85                	beqz	a5,19f26 <_ZN20complex_dynamic_type3app17hf053dfc546142e8bE+0x122>
   19ef8:	01814603          	lbu	a2,24(sp)
   19efc:	4505                	li	a0,1
   19efe:	4409                	li	s0,2
   19f00:	00a90023          	sb	a0,0(s2)
   19f04:	00b92223          	sw	a1,4(s2)
   19f08:	00860a63          	beq	a2,s0,19f1c <_ZN20complex_dynamic_type3app17hf053dfc546142e8bE+0x118>
   19f0c:	6509                	lui	a0,0x2
   19f0e:	e4b50513          	addi	a0,a0,-437 # 1e4b <.Lline_table_start1+0x1c20>
   19f12:	4581                	li	a1,0
   19f14:	00006097          	auipc	ra,0x6
   19f18:	c90080e7          	jalr	-880(ra) # 1fba4 <_ZN9allow_pin12dynamic_type7unshare17hb27555f71d22f3b2E>
   19f1c:	00814603          	lbu	a2,8(sp)
   19f20:	04861663          	bne	a2,s0,19f6c <_ZN20complex_dynamic_type3app17hf053dfc546142e8bE+0x168>
   19f24:	a8a1                	j	19f7c <_ZN20complex_dynamic_type3app17hf053dfc546142e8bE+0x178>
   19f26:	01814403          	lbu	s0,24(sp)
   19f2a:	4489                	li	s1,2
   19f2c:	00940663          	beq	s0,s1,19f38 <_ZN20complex_dynamic_type3app17hf053dfc546142e8bE+0x134>
   19f30:	000119b7          	lui	s3,0x11
   19f34:	ac198993          	addi	s3,s3,-1343 # 10ac1 <.Lanon.49c9f8067fe4468184af16d7576940c9.50>
   19f38:	00190513          	addi	a0,s2,1
   19f3c:	464d                	li	a2,19
   19f3e:	85ce                	mv	a1,s3
   19f40:	00006097          	auipc	ra,0x6
   19f44:	cdc080e7          	jalr	-804(ra) # 1fc1c <memcpy>
   19f48:	00090023          	sb	zero,0(s2)
   19f4c:	00940b63          	beq	s0,s1,19f62 <_ZN20complex_dynamic_type3app17hf053dfc546142e8bE+0x15e>
   19f50:	6509                	lui	a0,0x2
   19f52:	e4b50513          	addi	a0,a0,-437 # 1e4b <.Lline_table_start1+0x1c20>
   19f56:	4581                	li	a1,0
   19f58:	8622                	mv	a2,s0
   19f5a:	00006097          	auipc	ra,0x6
   19f5e:	c4a080e7          	jalr	-950(ra) # 1fba4 <_ZN9allow_pin12dynamic_type7unshare17hb27555f71d22f3b2E>
   19f62:	00814603          	lbu	a2,8(sp)
   19f66:	4509                	li	a0,2
   19f68:	00a60a63          	beq	a2,a0,19f7c <_ZN20complex_dynamic_type3app17hf053dfc546142e8bE+0x178>
   19f6c:	6509                	lui	a0,0x2
   19f6e:	e4b50513          	addi	a0,a0,-437 # 1e4b <.Lline_table_start1+0x1c20>
   19f72:	458d                	li	a1,3
   19f74:	00006097          	auipc	ra,0x6
   19f78:	c30080e7          	jalr	-976(ra) # 1fba4 <_ZN9allow_pin12dynamic_type7unshare17hb27555f71d22f3b2E>
   19f7c:	50f2                	lw	ra,60(sp)
   19f7e:	5462                	lw	s0,56(sp)
   19f80:	54d2                	lw	s1,52(sp)
   19f82:	5942                	lw	s2,48(sp)
   19f84:	59b2                	lw	s3,44(sp)
   19f86:	6121                	addi	sp,sp,64
   19f88:	8082                	ret

00019f8a <_ZN20complex_dynamic_type3app17hf26c37e9d46f956dE>:
   19f8a:	7135                	addi	sp,sp,-160
   19f8c:	cf06                	sw	ra,156(sp)
   19f8e:	cd22                	sw	s0,152(sp)
   19f90:	cb26                	sw	s1,148(sp)
   19f92:	c94a                	sw	s2,144(sp)
   19f94:	c74e                	sw	s3,140(sp)
   19f96:	892a                	mv	s2,a0
   19f98:	4489                	li	s1,2
   19f9a:	00910023          	sb	s1,0(sp)
   19f9e:	00110413          	addi	s0,sp,1
   19fa2:	06300613          	li	a2,99
   19fa6:	8522                	mv	a0,s0
   19fa8:	00006097          	auipc	ra,0x6
   19fac:	c74080e7          	jalr	-908(ra) # 1fc1c <memcpy>
   19fb0:	06510993          	addi	s3,sp,101
   19fb4:	02700613          	li	a2,39
   19fb8:	854e                	mv	a0,s3
   19fba:	4581                	li	a1,0
   19fbc:	00006097          	auipc	ra,0x6
   19fc0:	bf4080e7          	jalr	-1036(ra) # 1fbb0 <memset>
   19fc4:	8622                	mv	a2,s0
   19fc6:	06910223          	sb	s1,100(sp)
   19fca:	6509                	lui	a0,0x2
   19fcc:	4791                	li	a5,4
   19fce:	459d                	li	a1,7
   19fd0:	e5450513          	addi	a0,a0,-428 # 1e54 <.Lline_table_start1+0x1c29>
   19fd4:	06300693          	li	a3,99
   19fd8:	4711                	li	a4,4
   19fda:	00000073          	ecall
   19fde:	00950463          	beq	a0,s1,19fe6 <_ZN20complex_dynamic_type3app17hf26c37e9d46f956dE+0x5c>
   19fe2:	00f10023          	sb	a5,0(sp)
   19fe6:	4609                	li	a2,2
   19fe8:	00c51463          	bne	a0,a2,19ff0 <_ZN20complex_dynamic_type3app17hf26c37e9d46f956dE+0x66>
   19fec:	4785                	li	a5,1
   19fee:	a859                	j	1a084 <_ZN20complex_dynamic_type3app17hf26c37e9d46f956dE+0xfa>
   19ff0:	06414503          	lbu	a0,100(sp)
   19ff4:	4785                	li	a5,1
   19ff6:	02c51363          	bne	a0,a2,1a01c <_ZN20complex_dynamic_type3app17hf26c37e9d46f956dE+0x92>
   19ffa:	4581                	li	a1,0
   19ffc:	864e                	mv	a2,s3
   19ffe:	6509                	lui	a0,0x2
   1a000:	02700693          	li	a3,39
   1a004:	470d                	li	a4,3
   1a006:	e5450513          	addi	a0,a0,-428 # 1e54 <.Lline_table_start1+0x1c29>
   1a00a:	4489                	li	s1,2
   1a00c:	00000073          	ecall
   1a010:	460d                	li	a2,3
   1a012:	00951963          	bne	a0,s1,1a024 <_ZN20complex_dynamic_type3app17hf26c37e9d46f956dE+0x9a>
   1a016:	4505                	li	a0,1
   1a018:	c911                	beqz	a0,1a02c <_ZN20complex_dynamic_type3app17hf26c37e9d46f956dE+0xa2>
   1a01a:	a0ad                	j	1a084 <_ZN20complex_dynamic_type3app17hf26c37e9d46f956dE+0xfa>
   1a01c:	458d                	li	a1,3
   1a01e:	4505                	li	a0,1
   1a020:	c511                	beqz	a0,1a02c <_ZN20complex_dynamic_type3app17hf26c37e9d46f956dE+0xa2>
   1a022:	a08d                	j	1a084 <_ZN20complex_dynamic_type3app17hf26c37e9d46f956dE+0xfa>
   1a024:	4501                	li	a0,0
   1a026:	06c10223          	sb	a2,100(sp)
   1a02a:	ed29                	bnez	a0,1a084 <_ZN20complex_dynamic_type3app17hf26c37e9d46f956dE+0xfa>
   1a02c:	4601                	li	a2,0
   1a02e:	4681                	li	a3,0
   1a030:	6509                	lui	a0,0x2
   1a032:	459d                	li	a1,7
   1a034:	4709                	li	a4,2
   1a036:	e5450513          	addi	a0,a0,-428 # 1e54 <.Lline_table_start1+0x1c29>
   1a03a:	07f00493          	li	s1,127
   1a03e:	00000073          	ecall
   1a042:	4689                	li	a3,2
   1a044:	04a4f063          	bgeu	s1,a0,1a084 <_ZN20complex_dynamic_type3app17hf26c37e9d46f956dE+0xfa>
   1a048:	00014603          	lbu	a2,0(sp)
   1a04c:	00d60a63          	beq	a2,a3,1a060 <_ZN20complex_dynamic_type3app17hf26c37e9d46f956dE+0xd6>
   1a050:	6509                	lui	a0,0x2
   1a052:	e5450513          	addi	a0,a0,-428 # 1e54 <.Lline_table_start1+0x1c29>
   1a056:	459d                	li	a1,7
   1a058:	00006097          	auipc	ra,0x6
   1a05c:	b4c080e7          	jalr	-1204(ra) # 1fba4 <_ZN9allow_pin12dynamic_type7unshare17hb27555f71d22f3b2E>
   1a060:	06414603          	lbu	a2,100(sp)
   1a064:	4409                	li	s0,2
   1a066:	00810023          	sb	s0,0(sp)
   1a06a:	00860a63          	beq	a2,s0,1a07e <_ZN20complex_dynamic_type3app17hf26c37e9d46f956dE+0xf4>
   1a06e:	6509                	lui	a0,0x2
   1a070:	e5450513          	addi	a0,a0,-428 # 1e54 <.Lline_table_start1+0x1c29>
   1a074:	4581                	li	a1,0
   1a076:	00006097          	auipc	ra,0x6
   1a07a:	b2e080e7          	jalr	-1234(ra) # 1fba4 <_ZN9allow_pin12dynamic_type7unshare17hb27555f71d22f3b2E>
   1a07e:	4781                	li	a5,0
   1a080:	06810223          	sb	s0,100(sp)
   1a084:	cb85                	beqz	a5,1a0b4 <_ZN20complex_dynamic_type3app17hf26c37e9d46f956dE+0x12a>
   1a086:	06414603          	lbu	a2,100(sp)
   1a08a:	4505                	li	a0,1
   1a08c:	4409                	li	s0,2
   1a08e:	00a90023          	sb	a0,0(s2)
   1a092:	00b92223          	sw	a1,4(s2)
   1a096:	00860a63          	beq	a2,s0,1a0aa <_ZN20complex_dynamic_type3app17hf26c37e9d46f956dE+0x120>
   1a09a:	6509                	lui	a0,0x2
   1a09c:	e5450513          	addi	a0,a0,-428 # 1e54 <.Lline_table_start1+0x1c29>
   1a0a0:	4581                	li	a1,0
   1a0a2:	00006097          	auipc	ra,0x6
   1a0a6:	b02080e7          	jalr	-1278(ra) # 1fba4 <_ZN9allow_pin12dynamic_type7unshare17hb27555f71d22f3b2E>
   1a0aa:	00014603          	lbu	a2,0(sp)
   1a0ae:	04861763          	bne	a2,s0,1a0fc <_ZN20complex_dynamic_type3app17hf26c37e9d46f956dE+0x172>
   1a0b2:	a8a9                	j	1a10c <_ZN20complex_dynamic_type3app17hf26c37e9d46f956dE+0x182>
   1a0b4:	06414403          	lbu	s0,100(sp)
   1a0b8:	4489                	li	s1,2
   1a0ba:	00940663          	beq	s0,s1,1a0c6 <_ZN20complex_dynamic_type3app17hf26c37e9d46f956dE+0x13c>
   1a0be:	000109b7          	lui	s3,0x10
   1a0c2:	0d498993          	addi	s3,s3,212 # 100d4 <.Lanon.49c9f8067fe4468184af16d7576940c9.0>
   1a0c6:	00190513          	addi	a0,s2,1
   1a0ca:	02700613          	li	a2,39
   1a0ce:	85ce                	mv	a1,s3
   1a0d0:	00006097          	auipc	ra,0x6
   1a0d4:	b4c080e7          	jalr	-1204(ra) # 1fc1c <memcpy>
   1a0d8:	00090023          	sb	zero,0(s2)
   1a0dc:	00940b63          	beq	s0,s1,1a0f2 <_ZN20complex_dynamic_type3app17hf26c37e9d46f956dE+0x168>
   1a0e0:	6509                	lui	a0,0x2
   1a0e2:	e5450513          	addi	a0,a0,-428 # 1e54 <.Lline_table_start1+0x1c29>
   1a0e6:	4581                	li	a1,0
   1a0e8:	8622                	mv	a2,s0
   1a0ea:	00006097          	auipc	ra,0x6
   1a0ee:	aba080e7          	jalr	-1350(ra) # 1fba4 <_ZN9allow_pin12dynamic_type7unshare17hb27555f71d22f3b2E>
   1a0f2:	00014603          	lbu	a2,0(sp)
   1a0f6:	4509                	li	a0,2
   1a0f8:	00a60a63          	beq	a2,a0,1a10c <_ZN20complex_dynamic_type3app17hf26c37e9d46f956dE+0x182>
   1a0fc:	6509                	lui	a0,0x2
   1a0fe:	e5450513          	addi	a0,a0,-428 # 1e54 <.Lline_table_start1+0x1c29>
   1a102:	459d                	li	a1,7
   1a104:	00006097          	auipc	ra,0x6
   1a108:	aa0080e7          	jalr	-1376(ra) # 1fba4 <_ZN9allow_pin12dynamic_type7unshare17hb27555f71d22f3b2E>
   1a10c:	40fa                	lw	ra,156(sp)
   1a10e:	446a                	lw	s0,152(sp)
   1a110:	44da                	lw	s1,148(sp)
   1a112:	494a                	lw	s2,144(sp)
   1a114:	49ba                	lw	s3,140(sp)
   1a116:	610d                	addi	sp,sp,160
   1a118:	8082                	ret

0001a11a <_ZN20complex_dynamic_type3app17hf2f0acb17188a327E>:
   1a11a:	7175                	addi	sp,sp,-144
   1a11c:	c706                	sw	ra,140(sp)
   1a11e:	c522                	sw	s0,136(sp)
   1a120:	c326                	sw	s1,132(sp)
   1a122:	c14a                	sw	s2,128(sp)
   1a124:	dece                	sw	s3,124(sp)
   1a126:	892a                	mv	s2,a0
   1a128:	4489                	li	s1,2
   1a12a:	009100a3          	sb	s1,1(sp)
   1a12e:	00210413          	addi	s0,sp,2
   1a132:	03100613          	li	a2,49
   1a136:	8522                	mv	a0,s0
   1a138:	00006097          	auipc	ra,0x6
   1a13c:	ae4080e7          	jalr	-1308(ra) # 1fc1c <memcpy>
   1a140:	03410993          	addi	s3,sp,52
   1a144:	04800613          	li	a2,72
   1a148:	854e                	mv	a0,s3
   1a14a:	4581                	li	a1,0
   1a14c:	00006097          	auipc	ra,0x6
   1a150:	a64080e7          	jalr	-1436(ra) # 1fbb0 <memset>
   1a154:	8622                	mv	a2,s0
   1a156:	029109a3          	sb	s1,51(sp)
   1a15a:	6509                	lui	a0,0x2
   1a15c:	4791                	li	a5,4
   1a15e:	4591                	li	a1,4
   1a160:	80e50513          	addi	a0,a0,-2034 # 180e <.Lline_table_start1+0x15e3>
   1a164:	03100693          	li	a3,49
   1a168:	4711                	li	a4,4
   1a16a:	00000073          	ecall
   1a16e:	00950463          	beq	a0,s1,1a176 <_ZN20complex_dynamic_type3app17hf2f0acb17188a327E+0x5c>
   1a172:	00f100a3          	sb	a5,1(sp)
   1a176:	4609                	li	a2,2
   1a178:	00c51463          	bne	a0,a2,1a180 <_ZN20complex_dynamic_type3app17hf2f0acb17188a327E+0x66>
   1a17c:	4785                	li	a5,1
   1a17e:	a859                	j	1a214 <_ZN20complex_dynamic_type3app17hf2f0acb17188a327E+0xfa>
   1a180:	03314503          	lbu	a0,51(sp)
   1a184:	4785                	li	a5,1
   1a186:	02c51363          	bne	a0,a2,1a1ac <_ZN20complex_dynamic_type3app17hf2f0acb17188a327E+0x92>
   1a18a:	864e                	mv	a2,s3
   1a18c:	6509                	lui	a0,0x2
   1a18e:	458d                	li	a1,3
   1a190:	04800693          	li	a3,72
   1a194:	470d                	li	a4,3
   1a196:	80e50513          	addi	a0,a0,-2034 # 180e <.Lline_table_start1+0x15e3>
   1a19a:	4489                	li	s1,2
   1a19c:	00000073          	ecall
   1a1a0:	460d                	li	a2,3
   1a1a2:	00951963          	bne	a0,s1,1a1b4 <_ZN20complex_dynamic_type3app17hf2f0acb17188a327E+0x9a>
   1a1a6:	4505                	li	a0,1
   1a1a8:	c911                	beqz	a0,1a1bc <_ZN20complex_dynamic_type3app17hf2f0acb17188a327E+0xa2>
   1a1aa:	a0ad                	j	1a214 <_ZN20complex_dynamic_type3app17hf2f0acb17188a327E+0xfa>
   1a1ac:	458d                	li	a1,3
   1a1ae:	4505                	li	a0,1
   1a1b0:	c511                	beqz	a0,1a1bc <_ZN20complex_dynamic_type3app17hf2f0acb17188a327E+0xa2>
   1a1b2:	a08d                	j	1a214 <_ZN20complex_dynamic_type3app17hf2f0acb17188a327E+0xfa>
   1a1b4:	4501                	li	a0,0
   1a1b6:	02c109a3          	sb	a2,51(sp)
   1a1ba:	ed29                	bnez	a0,1a214 <_ZN20complex_dynamic_type3app17hf2f0acb17188a327E+0xfa>
   1a1bc:	4681                	li	a3,0
   1a1be:	6509                	lui	a0,0x2
   1a1c0:	4591                	li	a1,4
   1a1c2:	460d                	li	a2,3
   1a1c4:	4709                	li	a4,2
   1a1c6:	80e50513          	addi	a0,a0,-2034 # 180e <.Lline_table_start1+0x15e3>
   1a1ca:	07f00493          	li	s1,127
   1a1ce:	00000073          	ecall
   1a1d2:	4689                	li	a3,2
   1a1d4:	04a4f063          	bgeu	s1,a0,1a214 <_ZN20complex_dynamic_type3app17hf2f0acb17188a327E+0xfa>
   1a1d8:	00114603          	lbu	a2,1(sp)
   1a1dc:	00d60a63          	beq	a2,a3,1a1f0 <_ZN20complex_dynamic_type3app17hf2f0acb17188a327E+0xd6>
   1a1e0:	6509                	lui	a0,0x2
   1a1e2:	80e50513          	addi	a0,a0,-2034 # 180e <.Lline_table_start1+0x15e3>
   1a1e6:	4591                	li	a1,4
   1a1e8:	00006097          	auipc	ra,0x6
   1a1ec:	9bc080e7          	jalr	-1604(ra) # 1fba4 <_ZN9allow_pin12dynamic_type7unshare17hb27555f71d22f3b2E>
   1a1f0:	03314603          	lbu	a2,51(sp)
   1a1f4:	4409                	li	s0,2
   1a1f6:	008100a3          	sb	s0,1(sp)
   1a1fa:	00860a63          	beq	a2,s0,1a20e <_ZN20complex_dynamic_type3app17hf2f0acb17188a327E+0xf4>
   1a1fe:	6509                	lui	a0,0x2
   1a200:	80e50513          	addi	a0,a0,-2034 # 180e <.Lline_table_start1+0x15e3>
   1a204:	458d                	li	a1,3
   1a206:	00006097          	auipc	ra,0x6
   1a20a:	99e080e7          	jalr	-1634(ra) # 1fba4 <_ZN9allow_pin12dynamic_type7unshare17hb27555f71d22f3b2E>
   1a20e:	4781                	li	a5,0
   1a210:	028109a3          	sb	s0,51(sp)
   1a214:	cb85                	beqz	a5,1a244 <_ZN20complex_dynamic_type3app17hf2f0acb17188a327E+0x12a>
   1a216:	03314603          	lbu	a2,51(sp)
   1a21a:	4505                	li	a0,1
   1a21c:	4409                	li	s0,2
   1a21e:	00a90023          	sb	a0,0(s2)
   1a222:	00b92223          	sw	a1,4(s2)
   1a226:	00860a63          	beq	a2,s0,1a23a <_ZN20complex_dynamic_type3app17hf2f0acb17188a327E+0x120>
   1a22a:	6509                	lui	a0,0x2
   1a22c:	80e50513          	addi	a0,a0,-2034 # 180e <.Lline_table_start1+0x15e3>
   1a230:	458d                	li	a1,3
   1a232:	00006097          	auipc	ra,0x6
   1a236:	972080e7          	jalr	-1678(ra) # 1fba4 <_ZN9allow_pin12dynamic_type7unshare17hb27555f71d22f3b2E>
   1a23a:	00114603          	lbu	a2,1(sp)
   1a23e:	04861763          	bne	a2,s0,1a28c <_ZN20complex_dynamic_type3app17hf2f0acb17188a327E+0x172>
   1a242:	a8a9                	j	1a29c <_ZN20complex_dynamic_type3app17hf2f0acb17188a327E+0x182>
   1a244:	03314403          	lbu	s0,51(sp)
   1a248:	4489                	li	s1,2
   1a24a:	00940663          	beq	s0,s1,1a256 <_ZN20complex_dynamic_type3app17hf2f0acb17188a327E+0x13c>
   1a24e:	000109b7          	lui	s3,0x10
   1a252:	2c198993          	addi	s3,s3,705 # 102c1 <.Lanon.49c9f8067fe4468184af16d7576940c9.11>
   1a256:	00190513          	addi	a0,s2,1
   1a25a:	04800613          	li	a2,72
   1a25e:	85ce                	mv	a1,s3
   1a260:	00006097          	auipc	ra,0x6
   1a264:	9bc080e7          	jalr	-1604(ra) # 1fc1c <memcpy>
   1a268:	00090023          	sb	zero,0(s2)
   1a26c:	00940b63          	beq	s0,s1,1a282 <_ZN20complex_dynamic_type3app17hf2f0acb17188a327E+0x168>
   1a270:	6509                	lui	a0,0x2
   1a272:	80e50513          	addi	a0,a0,-2034 # 180e <.Lline_table_start1+0x15e3>
   1a276:	458d                	li	a1,3
   1a278:	8622                	mv	a2,s0
   1a27a:	00006097          	auipc	ra,0x6
   1a27e:	92a080e7          	jalr	-1750(ra) # 1fba4 <_ZN9allow_pin12dynamic_type7unshare17hb27555f71d22f3b2E>
   1a282:	00114603          	lbu	a2,1(sp)
   1a286:	4509                	li	a0,2
   1a288:	00a60a63          	beq	a2,a0,1a29c <_ZN20complex_dynamic_type3app17hf2f0acb17188a327E+0x182>
   1a28c:	6509                	lui	a0,0x2
   1a28e:	80e50513          	addi	a0,a0,-2034 # 180e <.Lline_table_start1+0x15e3>
   1a292:	4591                	li	a1,4
   1a294:	00006097          	auipc	ra,0x6
   1a298:	910080e7          	jalr	-1776(ra) # 1fba4 <_ZN9allow_pin12dynamic_type7unshare17hb27555f71d22f3b2E>
   1a29c:	40ba                	lw	ra,140(sp)
   1a29e:	442a                	lw	s0,136(sp)
   1a2a0:	449a                	lw	s1,132(sp)
   1a2a2:	490a                	lw	s2,128(sp)
   1a2a4:	59f6                	lw	s3,124(sp)
   1a2a6:	6149                	addi	sp,sp,144
   1a2a8:	8082                	ret

0001a2aa <_ZN20complex_dynamic_type3app17hf6c02d34df903c1fE>:
   1a2aa:	7135                	addi	sp,sp,-160
   1a2ac:	cf06                	sw	ra,156(sp)
   1a2ae:	cd22                	sw	s0,152(sp)
   1a2b0:	cb26                	sw	s1,148(sp)
   1a2b2:	c94a                	sw	s2,144(sp)
   1a2b4:	c74e                	sw	s3,140(sp)
   1a2b6:	892a                	mv	s2,a0
   1a2b8:	4489                	li	s1,2
   1a2ba:	009105a3          	sb	s1,11(sp)
   1a2be:	0060                	addi	s0,sp,12
   1a2c0:	06100613          	li	a2,97
   1a2c4:	8522                	mv	a0,s0
   1a2c6:	00006097          	auipc	ra,0x6
   1a2ca:	956080e7          	jalr	-1706(ra) # 1fc1c <memcpy>
   1a2ce:	06e10993          	addi	s3,sp,110
   1a2d2:	4679                	li	a2,30
   1a2d4:	854e                	mv	a0,s3
   1a2d6:	4581                	li	a1,0
   1a2d8:	00006097          	auipc	ra,0x6
   1a2dc:	8d8080e7          	jalr	-1832(ra) # 1fbb0 <memset>
   1a2e0:	8622                	mv	a2,s0
   1a2e2:	069106a3          	sb	s1,109(sp)
   1a2e6:	4791                	li	a5,4
   1a2e8:	18800513          	li	a0,392
   1a2ec:	4591                	li	a1,4
   1a2ee:	06100693          	li	a3,97
   1a2f2:	4711                	li	a4,4
   1a2f4:	00000073          	ecall
   1a2f8:	00950463          	beq	a0,s1,1a300 <_ZN20complex_dynamic_type3app17hf6c02d34df903c1fE+0x56>
   1a2fc:	00f105a3          	sb	a5,11(sp)
   1a300:	4609                	li	a2,2
   1a302:	00c51463          	bne	a0,a2,1a30a <_ZN20complex_dynamic_type3app17hf6c02d34df903c1fE+0x60>
   1a306:	4785                	li	a5,1
   1a308:	a071                	j	1a394 <_ZN20complex_dynamic_type3app17hf6c02d34df903c1fE+0xea>
   1a30a:	06d14503          	lbu	a0,109(sp)
   1a30e:	4785                	li	a5,1
   1a310:	02c51163          	bne	a0,a2,1a332 <_ZN20complex_dynamic_type3app17hf6c02d34df903c1fE+0x88>
   1a314:	864e                	mv	a2,s3
   1a316:	18800513          	li	a0,392
   1a31a:	4599                	li	a1,6
   1a31c:	46f9                	li	a3,30
   1a31e:	470d                	li	a4,3
   1a320:	4489                	li	s1,2
   1a322:	00000073          	ecall
   1a326:	460d                	li	a2,3
   1a328:	00951963          	bne	a0,s1,1a33a <_ZN20complex_dynamic_type3app17hf6c02d34df903c1fE+0x90>
   1a32c:	4505                	li	a0,1
   1a32e:	c911                	beqz	a0,1a342 <_ZN20complex_dynamic_type3app17hf6c02d34df903c1fE+0x98>
   1a330:	a095                	j	1a394 <_ZN20complex_dynamic_type3app17hf6c02d34df903c1fE+0xea>
   1a332:	458d                	li	a1,3
   1a334:	4505                	li	a0,1
   1a336:	c511                	beqz	a0,1a342 <_ZN20complex_dynamic_type3app17hf6c02d34df903c1fE+0x98>
   1a338:	a8b1                	j	1a394 <_ZN20complex_dynamic_type3app17hf6c02d34df903c1fE+0xea>
   1a33a:	4501                	li	a0,0
   1a33c:	06c106a3          	sb	a2,109(sp)
   1a340:	e931                	bnez	a0,1a394 <_ZN20complex_dynamic_type3app17hf6c02d34df903c1fE+0xea>
   1a342:	4681                	li	a3,0
   1a344:	18800513          	li	a0,392
   1a348:	4591                	li	a1,4
   1a34a:	4619                	li	a2,6
   1a34c:	4709                	li	a4,2
   1a34e:	07f00493          	li	s1,127
   1a352:	00000073          	ecall
   1a356:	4689                	li	a3,2
   1a358:	02a4fe63          	bgeu	s1,a0,1a394 <_ZN20complex_dynamic_type3app17hf6c02d34df903c1fE+0xea>
   1a35c:	00b14603          	lbu	a2,11(sp)
   1a360:	00d60963          	beq	a2,a3,1a372 <_ZN20complex_dynamic_type3app17hf6c02d34df903c1fE+0xc8>
   1a364:	18800513          	li	a0,392
   1a368:	4591                	li	a1,4
   1a36a:	00006097          	auipc	ra,0x6
   1a36e:	83a080e7          	jalr	-1990(ra) # 1fba4 <_ZN9allow_pin12dynamic_type7unshare17hb27555f71d22f3b2E>
   1a372:	06d14603          	lbu	a2,109(sp)
   1a376:	4409                	li	s0,2
   1a378:	008105a3          	sb	s0,11(sp)
   1a37c:	00860963          	beq	a2,s0,1a38e <_ZN20complex_dynamic_type3app17hf6c02d34df903c1fE+0xe4>
   1a380:	18800513          	li	a0,392
   1a384:	4599                	li	a1,6
   1a386:	00006097          	auipc	ra,0x6
   1a38a:	81e080e7          	jalr	-2018(ra) # 1fba4 <_ZN9allow_pin12dynamic_type7unshare17hb27555f71d22f3b2E>
   1a38e:	4781                	li	a5,0
   1a390:	068106a3          	sb	s0,109(sp)
   1a394:	c79d                	beqz	a5,1a3c2 <_ZN20complex_dynamic_type3app17hf6c02d34df903c1fE+0x118>
   1a396:	06d14603          	lbu	a2,109(sp)
   1a39a:	4505                	li	a0,1
   1a39c:	4409                	li	s0,2
   1a39e:	00a90023          	sb	a0,0(s2)
   1a3a2:	00b92223          	sw	a1,4(s2)
   1a3a6:	00860963          	beq	a2,s0,1a3b8 <_ZN20complex_dynamic_type3app17hf6c02d34df903c1fE+0x10e>
   1a3aa:	18800513          	li	a0,392
   1a3ae:	4599                	li	a1,6
   1a3b0:	00005097          	auipc	ra,0x5
   1a3b4:	7f4080e7          	jalr	2036(ra) # 1fba4 <_ZN9allow_pin12dynamic_type7unshare17hb27555f71d22f3b2E>
   1a3b8:	00b14603          	lbu	a2,11(sp)
   1a3bc:	04861563          	bne	a2,s0,1a406 <_ZN20complex_dynamic_type3app17hf6c02d34df903c1fE+0x15c>
   1a3c0:	a891                	j	1a414 <_ZN20complex_dynamic_type3app17hf6c02d34df903c1fE+0x16a>
   1a3c2:	06d14403          	lbu	s0,109(sp)
   1a3c6:	4489                	li	s1,2
   1a3c8:	00940663          	beq	s0,s1,1a3d4 <_ZN20complex_dynamic_type3app17hf6c02d34df903c1fE+0x12a>
   1a3cc:	000109b7          	lui	s3,0x10
   1a3d0:	13c98993          	addi	s3,s3,316 # 1013c <.Lanon.49c9f8067fe4468184af16d7576940c9.2>
   1a3d4:	00190513          	addi	a0,s2,1
   1a3d8:	4679                	li	a2,30
   1a3da:	85ce                	mv	a1,s3
   1a3dc:	00006097          	auipc	ra,0x6
   1a3e0:	840080e7          	jalr	-1984(ra) # 1fc1c <memcpy>
   1a3e4:	00090023          	sb	zero,0(s2)
   1a3e8:	00940a63          	beq	s0,s1,1a3fc <_ZN20complex_dynamic_type3app17hf6c02d34df903c1fE+0x152>
   1a3ec:	18800513          	li	a0,392
   1a3f0:	4599                	li	a1,6
   1a3f2:	8622                	mv	a2,s0
   1a3f4:	00005097          	auipc	ra,0x5
   1a3f8:	7b0080e7          	jalr	1968(ra) # 1fba4 <_ZN9allow_pin12dynamic_type7unshare17hb27555f71d22f3b2E>
   1a3fc:	00b14603          	lbu	a2,11(sp)
   1a400:	4509                	li	a0,2
   1a402:	00a60963          	beq	a2,a0,1a414 <_ZN20complex_dynamic_type3app17hf6c02d34df903c1fE+0x16a>
   1a406:	18800513          	li	a0,392
   1a40a:	4591                	li	a1,4
   1a40c:	00005097          	auipc	ra,0x5
   1a410:	798080e7          	jalr	1944(ra) # 1fba4 <_ZN9allow_pin12dynamic_type7unshare17hb27555f71d22f3b2E>
   1a414:	40fa                	lw	ra,156(sp)
   1a416:	446a                	lw	s0,152(sp)
   1a418:	44da                	lw	s1,148(sp)
   1a41a:	494a                	lw	s2,144(sp)
   1a41c:	49ba                	lw	s3,140(sp)
   1a41e:	610d                	addi	sp,sp,160
   1a420:	8082                	ret

0001a422 <_ZN20complex_dynamic_type3app17hf73287dace9ebb34E>:
   1a422:	7135                	addi	sp,sp,-160
   1a424:	cf06                	sw	ra,156(sp)
   1a426:	cd22                	sw	s0,152(sp)
   1a428:	cb26                	sw	s1,148(sp)
   1a42a:	c94a                	sw	s2,144(sp)
   1a42c:	c74e                	sw	s3,140(sp)
   1a42e:	892a                	mv	s2,a0
   1a430:	4489                	li	s1,2
   1a432:	00910023          	sb	s1,0(sp)
   1a436:	00110413          	addi	s0,sp,1
   1a43a:	04f00613          	li	a2,79
   1a43e:	8522                	mv	a0,s0
   1a440:	00005097          	auipc	ra,0x5
   1a444:	7dc080e7          	jalr	2012(ra) # 1fc1c <memcpy>
   1a448:	05110993          	addi	s3,sp,81
   1a44c:	03b00613          	li	a2,59
   1a450:	854e                	mv	a0,s3
   1a452:	4581                	li	a1,0
   1a454:	00005097          	auipc	ra,0x5
   1a458:	75c080e7          	jalr	1884(ra) # 1fbb0 <memset>
   1a45c:	8622                	mv	a2,s0
   1a45e:	04910823          	sb	s1,80(sp)
   1a462:	6505                	lui	a0,0x1
   1a464:	4791                	li	a5,4
   1a466:	45a1                	li	a1,8
   1a468:	a0650513          	addi	a0,a0,-1530 # a06 <.Lline_table_start1+0x7db>
   1a46c:	04f00693          	li	a3,79
   1a470:	4711                	li	a4,4
   1a472:	00000073          	ecall
   1a476:	00950463          	beq	a0,s1,1a47e <_ZN20complex_dynamic_type3app17hf73287dace9ebb34E+0x5c>
   1a47a:	00f10023          	sb	a5,0(sp)
   1a47e:	4609                	li	a2,2
   1a480:	00c51463          	bne	a0,a2,1a488 <_ZN20complex_dynamic_type3app17hf73287dace9ebb34E+0x66>
   1a484:	4785                	li	a5,1
   1a486:	a859                	j	1a51c <_ZN20complex_dynamic_type3app17hf73287dace9ebb34E+0xfa>
   1a488:	05014503          	lbu	a0,80(sp)
   1a48c:	4785                	li	a5,1
   1a48e:	02c51363          	bne	a0,a2,1a4b4 <_ZN20complex_dynamic_type3app17hf73287dace9ebb34E+0x92>
   1a492:	864e                	mv	a2,s3
   1a494:	6505                	lui	a0,0x1
   1a496:	4595                	li	a1,5
   1a498:	03b00693          	li	a3,59
   1a49c:	470d                	li	a4,3
   1a49e:	a0650513          	addi	a0,a0,-1530 # a06 <.Lline_table_start1+0x7db>
   1a4a2:	4489                	li	s1,2
   1a4a4:	00000073          	ecall
   1a4a8:	460d                	li	a2,3
   1a4aa:	00951963          	bne	a0,s1,1a4bc <_ZN20complex_dynamic_type3app17hf73287dace9ebb34E+0x9a>
   1a4ae:	4505                	li	a0,1
   1a4b0:	c911                	beqz	a0,1a4c4 <_ZN20complex_dynamic_type3app17hf73287dace9ebb34E+0xa2>
   1a4b2:	a0ad                	j	1a51c <_ZN20complex_dynamic_type3app17hf73287dace9ebb34E+0xfa>
   1a4b4:	458d                	li	a1,3
   1a4b6:	4505                	li	a0,1
   1a4b8:	c511                	beqz	a0,1a4c4 <_ZN20complex_dynamic_type3app17hf73287dace9ebb34E+0xa2>
   1a4ba:	a08d                	j	1a51c <_ZN20complex_dynamic_type3app17hf73287dace9ebb34E+0xfa>
   1a4bc:	4501                	li	a0,0
   1a4be:	04c10823          	sb	a2,80(sp)
   1a4c2:	ed29                	bnez	a0,1a51c <_ZN20complex_dynamic_type3app17hf73287dace9ebb34E+0xfa>
   1a4c4:	4681                	li	a3,0
   1a4c6:	6505                	lui	a0,0x1
   1a4c8:	45a1                	li	a1,8
   1a4ca:	4615                	li	a2,5
   1a4cc:	4709                	li	a4,2
   1a4ce:	a0650513          	addi	a0,a0,-1530 # a06 <.Lline_table_start1+0x7db>
   1a4d2:	07f00493          	li	s1,127
   1a4d6:	00000073          	ecall
   1a4da:	4689                	li	a3,2
   1a4dc:	04a4f063          	bgeu	s1,a0,1a51c <_ZN20complex_dynamic_type3app17hf73287dace9ebb34E+0xfa>
   1a4e0:	00014603          	lbu	a2,0(sp)
   1a4e4:	00d60a63          	beq	a2,a3,1a4f8 <_ZN20complex_dynamic_type3app17hf73287dace9ebb34E+0xd6>
   1a4e8:	6505                	lui	a0,0x1
   1a4ea:	a0650513          	addi	a0,a0,-1530 # a06 <.Lline_table_start1+0x7db>
   1a4ee:	45a1                	li	a1,8
   1a4f0:	00005097          	auipc	ra,0x5
   1a4f4:	6b4080e7          	jalr	1716(ra) # 1fba4 <_ZN9allow_pin12dynamic_type7unshare17hb27555f71d22f3b2E>
   1a4f8:	05014603          	lbu	a2,80(sp)
   1a4fc:	4409                	li	s0,2
   1a4fe:	00810023          	sb	s0,0(sp)
   1a502:	00860a63          	beq	a2,s0,1a516 <_ZN20complex_dynamic_type3app17hf73287dace9ebb34E+0xf4>
   1a506:	6505                	lui	a0,0x1
   1a508:	a0650513          	addi	a0,a0,-1530 # a06 <.Lline_table_start1+0x7db>
   1a50c:	4595                	li	a1,5
   1a50e:	00005097          	auipc	ra,0x5
   1a512:	696080e7          	jalr	1686(ra) # 1fba4 <_ZN9allow_pin12dynamic_type7unshare17hb27555f71d22f3b2E>
   1a516:	4781                	li	a5,0
   1a518:	04810823          	sb	s0,80(sp)
   1a51c:	cb85                	beqz	a5,1a54c <_ZN20complex_dynamic_type3app17hf73287dace9ebb34E+0x12a>
   1a51e:	05014603          	lbu	a2,80(sp)
   1a522:	4505                	li	a0,1
   1a524:	4409                	li	s0,2
   1a526:	00a90023          	sb	a0,0(s2)
   1a52a:	00b92223          	sw	a1,4(s2)
   1a52e:	00860a63          	beq	a2,s0,1a542 <_ZN20complex_dynamic_type3app17hf73287dace9ebb34E+0x120>
   1a532:	6505                	lui	a0,0x1
   1a534:	a0650513          	addi	a0,a0,-1530 # a06 <.Lline_table_start1+0x7db>
   1a538:	4595                	li	a1,5
   1a53a:	00005097          	auipc	ra,0x5
   1a53e:	66a080e7          	jalr	1642(ra) # 1fba4 <_ZN9allow_pin12dynamic_type7unshare17hb27555f71d22f3b2E>
   1a542:	00014603          	lbu	a2,0(sp)
   1a546:	04861763          	bne	a2,s0,1a594 <_ZN20complex_dynamic_type3app17hf73287dace9ebb34E+0x172>
   1a54a:	a8a9                	j	1a5a4 <_ZN20complex_dynamic_type3app17hf73287dace9ebb34E+0x182>
   1a54c:	05014403          	lbu	s0,80(sp)
   1a550:	4489                	li	s1,2
   1a552:	00940663          	beq	s0,s1,1a55e <_ZN20complex_dynamic_type3app17hf73287dace9ebb34E+0x13c>
   1a556:	000109b7          	lui	s3,0x10
   1a55a:	30998993          	addi	s3,s3,777 # 10309 <.Lanon.49c9f8067fe4468184af16d7576940c9.12>
   1a55e:	00190513          	addi	a0,s2,1
   1a562:	03b00613          	li	a2,59
   1a566:	85ce                	mv	a1,s3
   1a568:	00005097          	auipc	ra,0x5
   1a56c:	6b4080e7          	jalr	1716(ra) # 1fc1c <memcpy>
   1a570:	00090023          	sb	zero,0(s2)
   1a574:	00940b63          	beq	s0,s1,1a58a <_ZN20complex_dynamic_type3app17hf73287dace9ebb34E+0x168>
   1a578:	6505                	lui	a0,0x1
   1a57a:	a0650513          	addi	a0,a0,-1530 # a06 <.Lline_table_start1+0x7db>
   1a57e:	4595                	li	a1,5
   1a580:	8622                	mv	a2,s0
   1a582:	00005097          	auipc	ra,0x5
   1a586:	622080e7          	jalr	1570(ra) # 1fba4 <_ZN9allow_pin12dynamic_type7unshare17hb27555f71d22f3b2E>
   1a58a:	00014603          	lbu	a2,0(sp)
   1a58e:	4509                	li	a0,2
   1a590:	00a60a63          	beq	a2,a0,1a5a4 <_ZN20complex_dynamic_type3app17hf73287dace9ebb34E+0x182>
   1a594:	6505                	lui	a0,0x1
   1a596:	a0650513          	addi	a0,a0,-1530 # a06 <.Lline_table_start1+0x7db>
   1a59a:	45a1                	li	a1,8
   1a59c:	00005097          	auipc	ra,0x5
   1a5a0:	608080e7          	jalr	1544(ra) # 1fba4 <_ZN9allow_pin12dynamic_type7unshare17hb27555f71d22f3b2E>
   1a5a4:	40fa                	lw	ra,156(sp)
   1a5a6:	446a                	lw	s0,152(sp)
   1a5a8:	44da                	lw	s1,148(sp)
   1a5aa:	494a                	lw	s2,144(sp)
   1a5ac:	49ba                	lw	s3,140(sp)
   1a5ae:	610d                	addi	sp,sp,160
   1a5b0:	8082                	ret

0001a5b2 <_ZN20complex_dynamic_type3app17hf76062621aca4aedE>:
   1a5b2:	7175                	addi	sp,sp,-144
   1a5b4:	c706                	sw	ra,140(sp)
   1a5b6:	c522                	sw	s0,136(sp)
   1a5b8:	c326                	sw	s1,132(sp)
   1a5ba:	c14a                	sw	s2,128(sp)
   1a5bc:	dece                	sw	s3,124(sp)
   1a5be:	892a                	mv	s2,a0
   1a5c0:	4489                	li	s1,2
   1a5c2:	009101a3          	sb	s1,3(sp)
   1a5c6:	0040                	addi	s0,sp,4
   1a5c8:	04a00613          	li	a2,74
   1a5cc:	8522                	mv	a0,s0
   1a5ce:	00005097          	auipc	ra,0x5
   1a5d2:	64e080e7          	jalr	1614(ra) # 1fc1c <memcpy>
   1a5d6:	04f10993          	addi	s3,sp,79
   1a5da:	02d00613          	li	a2,45
   1a5de:	854e                	mv	a0,s3
   1a5e0:	4581                	li	a1,0
   1a5e2:	00005097          	auipc	ra,0x5
   1a5e6:	5ce080e7          	jalr	1486(ra) # 1fbb0 <memset>
   1a5ea:	8622                	mv	a2,s0
   1a5ec:	04910723          	sb	s1,78(sp)
   1a5f0:	6505                	lui	a0,0x1
   1a5f2:	4791                	li	a5,4
   1a5f4:	4589                	li	a1,2
   1a5f6:	e3d50513          	addi	a0,a0,-451 # e3d <.Lline_table_start1+0xc12>
   1a5fa:	04a00693          	li	a3,74
   1a5fe:	4711                	li	a4,4
   1a600:	00000073          	ecall
   1a604:	00950463          	beq	a0,s1,1a60c <_ZN20complex_dynamic_type3app17hf76062621aca4aedE+0x5a>
   1a608:	00f101a3          	sb	a5,3(sp)
   1a60c:	4609                	li	a2,2
   1a60e:	00c51463          	bne	a0,a2,1a616 <_ZN20complex_dynamic_type3app17hf76062621aca4aedE+0x64>
   1a612:	4785                	li	a5,1
   1a614:	a859                	j	1a6aa <_ZN20complex_dynamic_type3app17hf76062621aca4aedE+0xf8>
   1a616:	04e14503          	lbu	a0,78(sp)
   1a61a:	4785                	li	a5,1
   1a61c:	02c51363          	bne	a0,a2,1a642 <_ZN20complex_dynamic_type3app17hf76062621aca4aedE+0x90>
   1a620:	864e                	mv	a2,s3
   1a622:	6505                	lui	a0,0x1
   1a624:	458d                	li	a1,3
   1a626:	02d00693          	li	a3,45
   1a62a:	470d                	li	a4,3
   1a62c:	e3d50513          	addi	a0,a0,-451 # e3d <.Lline_table_start1+0xc12>
   1a630:	4489                	li	s1,2
   1a632:	00000073          	ecall
   1a636:	460d                	li	a2,3
   1a638:	00951963          	bne	a0,s1,1a64a <_ZN20complex_dynamic_type3app17hf76062621aca4aedE+0x98>
   1a63c:	4505                	li	a0,1
   1a63e:	c911                	beqz	a0,1a652 <_ZN20complex_dynamic_type3app17hf76062621aca4aedE+0xa0>
   1a640:	a0ad                	j	1a6aa <_ZN20complex_dynamic_type3app17hf76062621aca4aedE+0xf8>
   1a642:	458d                	li	a1,3
   1a644:	4505                	li	a0,1
   1a646:	c511                	beqz	a0,1a652 <_ZN20complex_dynamic_type3app17hf76062621aca4aedE+0xa0>
   1a648:	a08d                	j	1a6aa <_ZN20complex_dynamic_type3app17hf76062621aca4aedE+0xf8>
   1a64a:	4501                	li	a0,0
   1a64c:	04c10723          	sb	a2,78(sp)
   1a650:	ed29                	bnez	a0,1a6aa <_ZN20complex_dynamic_type3app17hf76062621aca4aedE+0xf8>
   1a652:	4681                	li	a3,0
   1a654:	6505                	lui	a0,0x1
   1a656:	4589                	li	a1,2
   1a658:	460d                	li	a2,3
   1a65a:	4709                	li	a4,2
   1a65c:	e3d50513          	addi	a0,a0,-451 # e3d <.Lline_table_start1+0xc12>
   1a660:	07f00493          	li	s1,127
   1a664:	00000073          	ecall
   1a668:	4689                	li	a3,2
   1a66a:	04a4f063          	bgeu	s1,a0,1a6aa <_ZN20complex_dynamic_type3app17hf76062621aca4aedE+0xf8>
   1a66e:	00314603          	lbu	a2,3(sp)
   1a672:	00d60a63          	beq	a2,a3,1a686 <_ZN20complex_dynamic_type3app17hf76062621aca4aedE+0xd4>
   1a676:	6505                	lui	a0,0x1
   1a678:	e3d50513          	addi	a0,a0,-451 # e3d <.Lline_table_start1+0xc12>
   1a67c:	4589                	li	a1,2
   1a67e:	00005097          	auipc	ra,0x5
   1a682:	526080e7          	jalr	1318(ra) # 1fba4 <_ZN9allow_pin12dynamic_type7unshare17hb27555f71d22f3b2E>
   1a686:	04e14603          	lbu	a2,78(sp)
   1a68a:	4409                	li	s0,2
   1a68c:	008101a3          	sb	s0,3(sp)
   1a690:	00860a63          	beq	a2,s0,1a6a4 <_ZN20complex_dynamic_type3app17hf76062621aca4aedE+0xf2>
   1a694:	6505                	lui	a0,0x1
   1a696:	e3d50513          	addi	a0,a0,-451 # e3d <.Lline_table_start1+0xc12>
   1a69a:	458d                	li	a1,3
   1a69c:	00005097          	auipc	ra,0x5
   1a6a0:	508080e7          	jalr	1288(ra) # 1fba4 <_ZN9allow_pin12dynamic_type7unshare17hb27555f71d22f3b2E>
   1a6a4:	4781                	li	a5,0
   1a6a6:	04810723          	sb	s0,78(sp)
   1a6aa:	cb85                	beqz	a5,1a6da <_ZN20complex_dynamic_type3app17hf76062621aca4aedE+0x128>
   1a6ac:	04e14603          	lbu	a2,78(sp)
   1a6b0:	4505                	li	a0,1
   1a6b2:	4409                	li	s0,2
   1a6b4:	00a90023          	sb	a0,0(s2)
   1a6b8:	00b92223          	sw	a1,4(s2)
   1a6bc:	00860a63          	beq	a2,s0,1a6d0 <_ZN20complex_dynamic_type3app17hf76062621aca4aedE+0x11e>
   1a6c0:	6505                	lui	a0,0x1
   1a6c2:	e3d50513          	addi	a0,a0,-451 # e3d <.Lline_table_start1+0xc12>
   1a6c6:	458d                	li	a1,3
   1a6c8:	00005097          	auipc	ra,0x5
   1a6cc:	4dc080e7          	jalr	1244(ra) # 1fba4 <_ZN9allow_pin12dynamic_type7unshare17hb27555f71d22f3b2E>
   1a6d0:	00314603          	lbu	a2,3(sp)
   1a6d4:	04861763          	bne	a2,s0,1a722 <_ZN20complex_dynamic_type3app17hf76062621aca4aedE+0x170>
   1a6d8:	a8a9                	j	1a732 <_ZN20complex_dynamic_type3app17hf76062621aca4aedE+0x180>
   1a6da:	04e14403          	lbu	s0,78(sp)
   1a6de:	4489                	li	s1,2
   1a6e0:	00940663          	beq	s0,s1,1a6ec <_ZN20complex_dynamic_type3app17hf76062621aca4aedE+0x13a>
   1a6e4:	000109b7          	lui	s3,0x10
   1a6e8:	36f98993          	addi	s3,s3,879 # 1036f <.Lanon.49c9f8067fe4468184af16d7576940c9.14>
   1a6ec:	00190513          	addi	a0,s2,1
   1a6f0:	02d00613          	li	a2,45
   1a6f4:	85ce                	mv	a1,s3
   1a6f6:	00005097          	auipc	ra,0x5
   1a6fa:	526080e7          	jalr	1318(ra) # 1fc1c <memcpy>
   1a6fe:	00090023          	sb	zero,0(s2)
   1a702:	00940b63          	beq	s0,s1,1a718 <_ZN20complex_dynamic_type3app17hf76062621aca4aedE+0x166>
   1a706:	6505                	lui	a0,0x1
   1a708:	e3d50513          	addi	a0,a0,-451 # e3d <.Lline_table_start1+0xc12>
   1a70c:	458d                	li	a1,3
   1a70e:	8622                	mv	a2,s0
   1a710:	00005097          	auipc	ra,0x5
   1a714:	494080e7          	jalr	1172(ra) # 1fba4 <_ZN9allow_pin12dynamic_type7unshare17hb27555f71d22f3b2E>
   1a718:	00314603          	lbu	a2,3(sp)
   1a71c:	4509                	li	a0,2
   1a71e:	00a60a63          	beq	a2,a0,1a732 <_ZN20complex_dynamic_type3app17hf76062621aca4aedE+0x180>
   1a722:	6505                	lui	a0,0x1
   1a724:	e3d50513          	addi	a0,a0,-451 # e3d <.Lline_table_start1+0xc12>
   1a728:	4589                	li	a1,2
   1a72a:	00005097          	auipc	ra,0x5
   1a72e:	47a080e7          	jalr	1146(ra) # 1fba4 <_ZN9allow_pin12dynamic_type7unshare17hb27555f71d22f3b2E>
   1a732:	40ba                	lw	ra,140(sp)
   1a734:	442a                	lw	s0,136(sp)
   1a736:	449a                	lw	s1,132(sp)
   1a738:	490a                	lw	s2,128(sp)
   1a73a:	59f6                	lw	s3,124(sp)
   1a73c:	6149                	addi	sp,sp,144
   1a73e:	8082                	ret

0001a740 <_ZN20complex_dynamic_type3app17hf8ed09ff247f9df9E>:
   1a740:	7171                	addi	sp,sp,-176
   1a742:	d706                	sw	ra,172(sp)
   1a744:	d522                	sw	s0,168(sp)
   1a746:	d326                	sw	s1,164(sp)
   1a748:	d14a                	sw	s2,160(sp)
   1a74a:	cf4e                	sw	s3,156(sp)
   1a74c:	892a                	mv	s2,a0
   1a74e:	4489                	li	s1,2
   1a750:	009106a3          	sb	s1,13(sp)
   1a754:	00e10413          	addi	s0,sp,14
   1a758:	02f00613          	li	a2,47
   1a75c:	8522                	mv	a0,s0
   1a75e:	00005097          	auipc	ra,0x5
   1a762:	4be080e7          	jalr	1214(ra) # 1fc1c <memcpy>
   1a766:	03e10993          	addi	s3,sp,62
   1a76a:	05e00613          	li	a2,94
   1a76e:	854e                	mv	a0,s3
   1a770:	4581                	li	a1,0
   1a772:	00005097          	auipc	ra,0x5
   1a776:	43e080e7          	jalr	1086(ra) # 1fbb0 <memset>
   1a77a:	8622                	mv	a2,s0
   1a77c:	02910ea3          	sb	s1,61(sp)
   1a780:	4791                	li	a5,4
   1a782:	22b00513          	li	a0,555
   1a786:	4595                	li	a1,5
   1a788:	02f00693          	li	a3,47
   1a78c:	4711                	li	a4,4
   1a78e:	00000073          	ecall
   1a792:	00950463          	beq	a0,s1,1a79a <_ZN20complex_dynamic_type3app17hf8ed09ff247f9df9E+0x5a>
   1a796:	00f106a3          	sb	a5,13(sp)
   1a79a:	4609                	li	a2,2
   1a79c:	00c51463          	bne	a0,a2,1a7a4 <_ZN20complex_dynamic_type3app17hf8ed09ff247f9df9E+0x64>
   1a7a0:	4785                	li	a5,1
   1a7a2:	a079                	j	1a830 <_ZN20complex_dynamic_type3app17hf8ed09ff247f9df9E+0xf0>
   1a7a4:	03d14503          	lbu	a0,61(sp)
   1a7a8:	4785                	li	a5,1
   1a7aa:	02c51263          	bne	a0,a2,1a7ce <_ZN20complex_dynamic_type3app17hf8ed09ff247f9df9E+0x8e>
   1a7ae:	864e                	mv	a2,s3
   1a7b0:	4409                	li	s0,2
   1a7b2:	448d                	li	s1,3
   1a7b4:	22b00513          	li	a0,555
   1a7b8:	4589                	li	a1,2
   1a7ba:	05e00693          	li	a3,94
   1a7be:	470d                	li	a4,3
   1a7c0:	00000073          	ecall
   1a7c4:	00851963          	bne	a0,s0,1a7d6 <_ZN20complex_dynamic_type3app17hf8ed09ff247f9df9E+0x96>
   1a7c8:	4505                	li	a0,1
   1a7ca:	c911                	beqz	a0,1a7de <_ZN20complex_dynamic_type3app17hf8ed09ff247f9df9E+0x9e>
   1a7cc:	a095                	j	1a830 <_ZN20complex_dynamic_type3app17hf8ed09ff247f9df9E+0xf0>
   1a7ce:	458d                	li	a1,3
   1a7d0:	4505                	li	a0,1
   1a7d2:	c511                	beqz	a0,1a7de <_ZN20complex_dynamic_type3app17hf8ed09ff247f9df9E+0x9e>
   1a7d4:	a8b1                	j	1a830 <_ZN20complex_dynamic_type3app17hf8ed09ff247f9df9E+0xf0>
   1a7d6:	4501                	li	a0,0
   1a7d8:	02910ea3          	sb	s1,61(sp)
   1a7dc:	e931                	bnez	a0,1a830 <_ZN20complex_dynamic_type3app17hf8ed09ff247f9df9E+0xf0>
   1a7de:	4681                	li	a3,0
   1a7e0:	22b00513          	li	a0,555
   1a7e4:	4595                	li	a1,5
   1a7e6:	4609                	li	a2,2
   1a7e8:	4709                	li	a4,2
   1a7ea:	07f00493          	li	s1,127
   1a7ee:	00000073          	ecall
   1a7f2:	4689                	li	a3,2
   1a7f4:	02a4fe63          	bgeu	s1,a0,1a830 <_ZN20complex_dynamic_type3app17hf8ed09ff247f9df9E+0xf0>
   1a7f8:	00d14603          	lbu	a2,13(sp)
   1a7fc:	00d60963          	beq	a2,a3,1a80e <_ZN20complex_dynamic_type3app17hf8ed09ff247f9df9E+0xce>
   1a800:	22b00513          	li	a0,555
   1a804:	4595                	li	a1,5
   1a806:	00005097          	auipc	ra,0x5
   1a80a:	39e080e7          	jalr	926(ra) # 1fba4 <_ZN9allow_pin12dynamic_type7unshare17hb27555f71d22f3b2E>
   1a80e:	03d14603          	lbu	a2,61(sp)
   1a812:	4409                	li	s0,2
   1a814:	008106a3          	sb	s0,13(sp)
   1a818:	00860963          	beq	a2,s0,1a82a <_ZN20complex_dynamic_type3app17hf8ed09ff247f9df9E+0xea>
   1a81c:	22b00513          	li	a0,555
   1a820:	4589                	li	a1,2
   1a822:	00005097          	auipc	ra,0x5
   1a826:	382080e7          	jalr	898(ra) # 1fba4 <_ZN9allow_pin12dynamic_type7unshare17hb27555f71d22f3b2E>
   1a82a:	4781                	li	a5,0
   1a82c:	02810ea3          	sb	s0,61(sp)
   1a830:	c79d                	beqz	a5,1a85e <_ZN20complex_dynamic_type3app17hf8ed09ff247f9df9E+0x11e>
   1a832:	03d14603          	lbu	a2,61(sp)
   1a836:	4505                	li	a0,1
   1a838:	4409                	li	s0,2
   1a83a:	00a90023          	sb	a0,0(s2)
   1a83e:	00b92223          	sw	a1,4(s2)
   1a842:	00860963          	beq	a2,s0,1a854 <_ZN20complex_dynamic_type3app17hf8ed09ff247f9df9E+0x114>
   1a846:	22b00513          	li	a0,555
   1a84a:	4589                	li	a1,2
   1a84c:	00005097          	auipc	ra,0x5
   1a850:	358080e7          	jalr	856(ra) # 1fba4 <_ZN9allow_pin12dynamic_type7unshare17hb27555f71d22f3b2E>
   1a854:	00d14603          	lbu	a2,13(sp)
   1a858:	04861663          	bne	a2,s0,1a8a4 <_ZN20complex_dynamic_type3app17hf8ed09ff247f9df9E+0x164>
   1a85c:	a899                	j	1a8b2 <_ZN20complex_dynamic_type3app17hf8ed09ff247f9df9E+0x172>
   1a85e:	03d14403          	lbu	s0,61(sp)
   1a862:	4489                	li	s1,2
   1a864:	00940663          	beq	s0,s1,1a870 <_ZN20complex_dynamic_type3app17hf8ed09ff247f9df9E+0x130>
   1a868:	000119b7          	lui	s3,0x11
   1a86c:	a3598993          	addi	s3,s3,-1483 # 10a35 <.Lanon.49c9f8067fe4468184af16d7576940c9.48>
   1a870:	00190513          	addi	a0,s2,1
   1a874:	05e00613          	li	a2,94
   1a878:	85ce                	mv	a1,s3
   1a87a:	00005097          	auipc	ra,0x5
   1a87e:	3a2080e7          	jalr	930(ra) # 1fc1c <memcpy>
   1a882:	00090023          	sb	zero,0(s2)
   1a886:	00940a63          	beq	s0,s1,1a89a <_ZN20complex_dynamic_type3app17hf8ed09ff247f9df9E+0x15a>
   1a88a:	22b00513          	li	a0,555
   1a88e:	4589                	li	a1,2
   1a890:	8622                	mv	a2,s0
   1a892:	00005097          	auipc	ra,0x5
   1a896:	312080e7          	jalr	786(ra) # 1fba4 <_ZN9allow_pin12dynamic_type7unshare17hb27555f71d22f3b2E>
   1a89a:	00d14603          	lbu	a2,13(sp)
   1a89e:	4509                	li	a0,2
   1a8a0:	00a60963          	beq	a2,a0,1a8b2 <_ZN20complex_dynamic_type3app17hf8ed09ff247f9df9E+0x172>
   1a8a4:	22b00513          	li	a0,555
   1a8a8:	4595                	li	a1,5
   1a8aa:	00005097          	auipc	ra,0x5
   1a8ae:	2fa080e7          	jalr	762(ra) # 1fba4 <_ZN9allow_pin12dynamic_type7unshare17hb27555f71d22f3b2E>
   1a8b2:	50ba                	lw	ra,172(sp)
   1a8b4:	542a                	lw	s0,168(sp)
   1a8b6:	549a                	lw	s1,164(sp)
   1a8b8:	590a                	lw	s2,160(sp)
   1a8ba:	49fa                	lw	s3,156(sp)
   1a8bc:	614d                	addi	sp,sp,176
   1a8be:	8082                	ret

0001a8c0 <_ZN20complex_dynamic_type3app17hfb5b6f40406c4614E>:
   1a8c0:	715d                	addi	sp,sp,-80
   1a8c2:	c686                	sw	ra,76(sp)
   1a8c4:	c4a2                	sw	s0,72(sp)
   1a8c6:	c2a6                	sw	s1,68(sp)
   1a8c8:	c0ca                	sw	s2,64(sp)
   1a8ca:	de4e                	sw	s3,60(sp)
   1a8cc:	892a                	mv	s2,a0
   1a8ce:	4489                	li	s1,2
   1a8d0:	00910123          	sb	s1,2(sp)
   1a8d4:	00310413          	addi	s0,sp,3
   1a8d8:	02b00613          	li	a2,43
   1a8dc:	8522                	mv	a0,s0
   1a8de:	00005097          	auipc	ra,0x5
   1a8e2:	33e080e7          	jalr	830(ra) # 1fc1c <memcpy>
   1a8e6:	02f10993          	addi	s3,sp,47
   1a8ea:	4635                	li	a2,13
   1a8ec:	854e                	mv	a0,s3
   1a8ee:	4581                	li	a1,0
   1a8f0:	00005097          	auipc	ra,0x5
   1a8f4:	2c0080e7          	jalr	704(ra) # 1fbb0 <memset>
   1a8f8:	8622                	mv	a2,s0
   1a8fa:	02910723          	sb	s1,46(sp)
   1a8fe:	6505                	lui	a0,0x1
   1a900:	4791                	li	a5,4
   1a902:	4599                	li	a1,6
   1a904:	46550513          	addi	a0,a0,1125 # 1465 <.Lline_table_start1+0x123a>
   1a908:	02b00693          	li	a3,43
   1a90c:	4711                	li	a4,4
   1a90e:	00000073          	ecall
   1a912:	00950463          	beq	a0,s1,1a91a <_ZN20complex_dynamic_type3app17hfb5b6f40406c4614E+0x5a>
   1a916:	00f10123          	sb	a5,2(sp)
   1a91a:	4609                	li	a2,2
   1a91c:	00c51463          	bne	a0,a2,1a924 <_ZN20complex_dynamic_type3app17hfb5b6f40406c4614E+0x64>
   1a920:	4785                	li	a5,1
   1a922:	a851                	j	1a9b6 <_ZN20complex_dynamic_type3app17hfb5b6f40406c4614E+0xf6>
   1a924:	02e14503          	lbu	a0,46(sp)
   1a928:	4785                	li	a5,1
   1a92a:	02c51263          	bne	a0,a2,1a94e <_ZN20complex_dynamic_type3app17hfb5b6f40406c4614E+0x8e>
   1a92e:	4581                	li	a1,0
   1a930:	864e                	mv	a2,s3
   1a932:	6505                	lui	a0,0x1
   1a934:	46b5                	li	a3,13
   1a936:	470d                	li	a4,3
   1a938:	46550513          	addi	a0,a0,1125 # 1465 <.Lline_table_start1+0x123a>
   1a93c:	4489                	li	s1,2
   1a93e:	00000073          	ecall
   1a942:	460d                	li	a2,3
   1a944:	00951963          	bne	a0,s1,1a956 <_ZN20complex_dynamic_type3app17hfb5b6f40406c4614E+0x96>
   1a948:	4505                	li	a0,1
   1a94a:	c911                	beqz	a0,1a95e <_ZN20complex_dynamic_type3app17hfb5b6f40406c4614E+0x9e>
   1a94c:	a0ad                	j	1a9b6 <_ZN20complex_dynamic_type3app17hfb5b6f40406c4614E+0xf6>
   1a94e:	458d                	li	a1,3
   1a950:	4505                	li	a0,1
   1a952:	c511                	beqz	a0,1a95e <_ZN20complex_dynamic_type3app17hfb5b6f40406c4614E+0x9e>
   1a954:	a08d                	j	1a9b6 <_ZN20complex_dynamic_type3app17hfb5b6f40406c4614E+0xf6>
   1a956:	4501                	li	a0,0
   1a958:	02c10723          	sb	a2,46(sp)
   1a95c:	ed29                	bnez	a0,1a9b6 <_ZN20complex_dynamic_type3app17hfb5b6f40406c4614E+0xf6>
   1a95e:	4601                	li	a2,0
   1a960:	4681                	li	a3,0
   1a962:	6505                	lui	a0,0x1
   1a964:	4599                	li	a1,6
   1a966:	4709                	li	a4,2
   1a968:	46550513          	addi	a0,a0,1125 # 1465 <.Lline_table_start1+0x123a>
   1a96c:	07f00493          	li	s1,127
   1a970:	00000073          	ecall
   1a974:	4689                	li	a3,2
   1a976:	04a4f063          	bgeu	s1,a0,1a9b6 <_ZN20complex_dynamic_type3app17hfb5b6f40406c4614E+0xf6>
   1a97a:	00214603          	lbu	a2,2(sp)
   1a97e:	00d60a63          	beq	a2,a3,1a992 <_ZN20complex_dynamic_type3app17hfb5b6f40406c4614E+0xd2>
   1a982:	6505                	lui	a0,0x1
   1a984:	46550513          	addi	a0,a0,1125 # 1465 <.Lline_table_start1+0x123a>
   1a988:	4599                	li	a1,6
   1a98a:	00005097          	auipc	ra,0x5
   1a98e:	21a080e7          	jalr	538(ra) # 1fba4 <_ZN9allow_pin12dynamic_type7unshare17hb27555f71d22f3b2E>
   1a992:	02e14603          	lbu	a2,46(sp)
   1a996:	4409                	li	s0,2
   1a998:	00810123          	sb	s0,2(sp)
   1a99c:	00860a63          	beq	a2,s0,1a9b0 <_ZN20complex_dynamic_type3app17hfb5b6f40406c4614E+0xf0>
   1a9a0:	6505                	lui	a0,0x1
   1a9a2:	46550513          	addi	a0,a0,1125 # 1465 <.Lline_table_start1+0x123a>
   1a9a6:	4581                	li	a1,0
   1a9a8:	00005097          	auipc	ra,0x5
   1a9ac:	1fc080e7          	jalr	508(ra) # 1fba4 <_ZN9allow_pin12dynamic_type7unshare17hb27555f71d22f3b2E>
   1a9b0:	4781                	li	a5,0
   1a9b2:	02810723          	sb	s0,46(sp)
   1a9b6:	cb85                	beqz	a5,1a9e6 <_ZN20complex_dynamic_type3app17hfb5b6f40406c4614E+0x126>
   1a9b8:	02e14603          	lbu	a2,46(sp)
   1a9bc:	4505                	li	a0,1
   1a9be:	4409                	li	s0,2
   1a9c0:	00a90023          	sb	a0,0(s2)
   1a9c4:	00b92223          	sw	a1,4(s2)
   1a9c8:	00860a63          	beq	a2,s0,1a9dc <_ZN20complex_dynamic_type3app17hfb5b6f40406c4614E+0x11c>
   1a9cc:	6505                	lui	a0,0x1
   1a9ce:	46550513          	addi	a0,a0,1125 # 1465 <.Lline_table_start1+0x123a>
   1a9d2:	4581                	li	a1,0
   1a9d4:	00005097          	auipc	ra,0x5
   1a9d8:	1d0080e7          	jalr	464(ra) # 1fba4 <_ZN9allow_pin12dynamic_type7unshare17hb27555f71d22f3b2E>
   1a9dc:	00214603          	lbu	a2,2(sp)
   1a9e0:	04861663          	bne	a2,s0,1aa2c <_ZN20complex_dynamic_type3app17hfb5b6f40406c4614E+0x16c>
   1a9e4:	a8a1                	j	1aa3c <_ZN20complex_dynamic_type3app17hfb5b6f40406c4614E+0x17c>
   1a9e6:	02e14403          	lbu	s0,46(sp)
   1a9ea:	4489                	li	s1,2
   1a9ec:	00940663          	beq	s0,s1,1a9f8 <_ZN20complex_dynamic_type3app17hfb5b6f40406c4614E+0x138>
   1a9f0:	000109b7          	lui	s3,0x10
   1a9f4:	54998993          	addi	s3,s3,1353 # 10549 <.Lanon.49c9f8067fe4468184af16d7576940c9.24>
   1a9f8:	00190513          	addi	a0,s2,1
   1a9fc:	4635                	li	a2,13
   1a9fe:	85ce                	mv	a1,s3
   1aa00:	00005097          	auipc	ra,0x5
   1aa04:	21c080e7          	jalr	540(ra) # 1fc1c <memcpy>
   1aa08:	00090023          	sb	zero,0(s2)
   1aa0c:	00940b63          	beq	s0,s1,1aa22 <_ZN20complex_dynamic_type3app17hfb5b6f40406c4614E+0x162>
   1aa10:	6505                	lui	a0,0x1
   1aa12:	46550513          	addi	a0,a0,1125 # 1465 <.Lline_table_start1+0x123a>
   1aa16:	4581                	li	a1,0
   1aa18:	8622                	mv	a2,s0
   1aa1a:	00005097          	auipc	ra,0x5
   1aa1e:	18a080e7          	jalr	394(ra) # 1fba4 <_ZN9allow_pin12dynamic_type7unshare17hb27555f71d22f3b2E>
   1aa22:	00214603          	lbu	a2,2(sp)
   1aa26:	4509                	li	a0,2
   1aa28:	00a60a63          	beq	a2,a0,1aa3c <_ZN20complex_dynamic_type3app17hfb5b6f40406c4614E+0x17c>
   1aa2c:	6505                	lui	a0,0x1
   1aa2e:	46550513          	addi	a0,a0,1125 # 1465 <.Lline_table_start1+0x123a>
   1aa32:	4599                	li	a1,6
   1aa34:	00005097          	auipc	ra,0x5
   1aa38:	170080e7          	jalr	368(ra) # 1fba4 <_ZN9allow_pin12dynamic_type7unshare17hb27555f71d22f3b2E>
   1aa3c:	40b6                	lw	ra,76(sp)
   1aa3e:	4426                	lw	s0,72(sp)
   1aa40:	4496                	lw	s1,68(sp)
   1aa42:	4906                	lw	s2,64(sp)
   1aa44:	59f2                	lw	s3,60(sp)
   1aa46:	6161                	addi	sp,sp,80
   1aa48:	8082                	ret

0001aa4a <_ZN20complex_dynamic_type3app17hfbdbb97b7985a347E>:
   1aa4a:	7175                	addi	sp,sp,-144
   1aa4c:	c706                	sw	ra,140(sp)
   1aa4e:	c522                	sw	s0,136(sp)
   1aa50:	c326                	sw	s1,132(sp)
   1aa52:	c14a                	sw	s2,128(sp)
   1aa54:	dece                	sw	s3,124(sp)
   1aa56:	892a                	mv	s2,a0
   1aa58:	4489                	li	s1,2
   1aa5a:	009103a3          	sb	s1,7(sp)
   1aa5e:	0020                	addi	s0,sp,8
   1aa60:	02200613          	li	a2,34
   1aa64:	8522                	mv	a0,s0
   1aa66:	00005097          	auipc	ra,0x5
   1aa6a:	1b6080e7          	jalr	438(ra) # 1fc1c <memcpy>
   1aa6e:	02b10993          	addi	s3,sp,43
   1aa72:	05100613          	li	a2,81
   1aa76:	854e                	mv	a0,s3
   1aa78:	4581                	li	a1,0
   1aa7a:	00005097          	auipc	ra,0x5
   1aa7e:	136080e7          	jalr	310(ra) # 1fbb0 <memset>
   1aa82:	8622                	mv	a2,s0
   1aa84:	02910523          	sb	s1,42(sp)
   1aa88:	4791                	li	a5,4
   1aa8a:	55e00513          	li	a0,1374
   1aa8e:	45a5                	li	a1,9
   1aa90:	02200693          	li	a3,34
   1aa94:	4711                	li	a4,4
   1aa96:	00000073          	ecall
   1aa9a:	00950463          	beq	a0,s1,1aaa2 <_ZN20complex_dynamic_type3app17hfbdbb97b7985a347E+0x58>
   1aa9e:	00f103a3          	sb	a5,7(sp)
   1aaa2:	4609                	li	a2,2
   1aaa4:	00c51463          	bne	a0,a2,1aaac <_ZN20complex_dynamic_type3app17hfbdbb97b7985a347E+0x62>
   1aaa8:	4785                	li	a5,1
   1aaaa:	a079                	j	1ab38 <_ZN20complex_dynamic_type3app17hfbdbb97b7985a347E+0xee>
   1aaac:	02a14503          	lbu	a0,42(sp)
   1aab0:	4785                	li	a5,1
   1aab2:	02c51263          	bne	a0,a2,1aad6 <_ZN20complex_dynamic_type3app17hfbdbb97b7985a347E+0x8c>
   1aab6:	864e                	mv	a2,s3
   1aab8:	55e00513          	li	a0,1374
   1aabc:	45a5                	li	a1,9
   1aabe:	05100693          	li	a3,81
   1aac2:	470d                	li	a4,3
   1aac4:	4489                	li	s1,2
   1aac6:	00000073          	ecall
   1aaca:	460d                	li	a2,3
   1aacc:	00951963          	bne	a0,s1,1aade <_ZN20complex_dynamic_type3app17hfbdbb97b7985a347E+0x94>
   1aad0:	4505                	li	a0,1
   1aad2:	c911                	beqz	a0,1aae6 <_ZN20complex_dynamic_type3app17hfbdbb97b7985a347E+0x9c>
   1aad4:	a095                	j	1ab38 <_ZN20complex_dynamic_type3app17hfbdbb97b7985a347E+0xee>
   1aad6:	458d                	li	a1,3
   1aad8:	4505                	li	a0,1
   1aada:	c511                	beqz	a0,1aae6 <_ZN20complex_dynamic_type3app17hfbdbb97b7985a347E+0x9c>
   1aadc:	a8b1                	j	1ab38 <_ZN20complex_dynamic_type3app17hfbdbb97b7985a347E+0xee>
   1aade:	4501                	li	a0,0
   1aae0:	02c10523          	sb	a2,42(sp)
   1aae4:	e931                	bnez	a0,1ab38 <_ZN20complex_dynamic_type3app17hfbdbb97b7985a347E+0xee>
   1aae6:	4681                	li	a3,0
   1aae8:	55e00513          	li	a0,1374
   1aaec:	45a5                	li	a1,9
   1aaee:	4625                	li	a2,9
   1aaf0:	4709                	li	a4,2
   1aaf2:	07f00493          	li	s1,127
   1aaf6:	00000073          	ecall
   1aafa:	4689                	li	a3,2
   1aafc:	02a4fe63          	bgeu	s1,a0,1ab38 <_ZN20complex_dynamic_type3app17hfbdbb97b7985a347E+0xee>
   1ab00:	00714603          	lbu	a2,7(sp)
   1ab04:	00d60963          	beq	a2,a3,1ab16 <_ZN20complex_dynamic_type3app17hfbdbb97b7985a347E+0xcc>
   1ab08:	55e00513          	li	a0,1374
   1ab0c:	45a5                	li	a1,9
   1ab0e:	00005097          	auipc	ra,0x5
   1ab12:	096080e7          	jalr	150(ra) # 1fba4 <_ZN9allow_pin12dynamic_type7unshare17hb27555f71d22f3b2E>
   1ab16:	02a14603          	lbu	a2,42(sp)
   1ab1a:	4409                	li	s0,2
   1ab1c:	008103a3          	sb	s0,7(sp)
   1ab20:	00860963          	beq	a2,s0,1ab32 <_ZN20complex_dynamic_type3app17hfbdbb97b7985a347E+0xe8>
   1ab24:	55e00513          	li	a0,1374
   1ab28:	45a5                	li	a1,9
   1ab2a:	00005097          	auipc	ra,0x5
   1ab2e:	07a080e7          	jalr	122(ra) # 1fba4 <_ZN9allow_pin12dynamic_type7unshare17hb27555f71d22f3b2E>
   1ab32:	4781                	li	a5,0
   1ab34:	02810523          	sb	s0,42(sp)
   1ab38:	c79d                	beqz	a5,1ab66 <_ZN20complex_dynamic_type3app17hfbdbb97b7985a347E+0x11c>
   1ab3a:	02a14603          	lbu	a2,42(sp)
   1ab3e:	4505                	li	a0,1
   1ab40:	4409                	li	s0,2
   1ab42:	00a90023          	sb	a0,0(s2)
   1ab46:	00b92223          	sw	a1,4(s2)
   1ab4a:	00860963          	beq	a2,s0,1ab5c <_ZN20complex_dynamic_type3app17hfbdbb97b7985a347E+0x112>
   1ab4e:	55e00513          	li	a0,1374
   1ab52:	45a5                	li	a1,9
   1ab54:	00005097          	auipc	ra,0x5
   1ab58:	050080e7          	jalr	80(ra) # 1fba4 <_ZN9allow_pin12dynamic_type7unshare17hb27555f71d22f3b2E>
   1ab5c:	00714603          	lbu	a2,7(sp)
   1ab60:	04861663          	bne	a2,s0,1abac <_ZN20complex_dynamic_type3app17hfbdbb97b7985a347E+0x162>
   1ab64:	a899                	j	1abba <_ZN20complex_dynamic_type3app17hfbdbb97b7985a347E+0x170>
   1ab66:	02a14403          	lbu	s0,42(sp)
   1ab6a:	4489                	li	s1,2
   1ab6c:	00940663          	beq	s0,s1,1ab78 <_ZN20complex_dynamic_type3app17hfbdbb97b7985a347E+0x12e>
   1ab70:	000109b7          	lui	s3,0x10
   1ab74:	27098993          	addi	s3,s3,624 # 10270 <.Lanon.49c9f8067fe4468184af16d7576940c9.10>
   1ab78:	00190513          	addi	a0,s2,1
   1ab7c:	05100613          	li	a2,81
   1ab80:	85ce                	mv	a1,s3
   1ab82:	00005097          	auipc	ra,0x5
   1ab86:	09a080e7          	jalr	154(ra) # 1fc1c <memcpy>
   1ab8a:	00090023          	sb	zero,0(s2)
   1ab8e:	00940a63          	beq	s0,s1,1aba2 <_ZN20complex_dynamic_type3app17hfbdbb97b7985a347E+0x158>
   1ab92:	55e00513          	li	a0,1374
   1ab96:	45a5                	li	a1,9
   1ab98:	8622                	mv	a2,s0
   1ab9a:	00005097          	auipc	ra,0x5
   1ab9e:	00a080e7          	jalr	10(ra) # 1fba4 <_ZN9allow_pin12dynamic_type7unshare17hb27555f71d22f3b2E>
   1aba2:	00714603          	lbu	a2,7(sp)
   1aba6:	4509                	li	a0,2
   1aba8:	00a60963          	beq	a2,a0,1abba <_ZN20complex_dynamic_type3app17hfbdbb97b7985a347E+0x170>
   1abac:	55e00513          	li	a0,1374
   1abb0:	45a5                	li	a1,9
   1abb2:	00005097          	auipc	ra,0x5
   1abb6:	ff2080e7          	jalr	-14(ra) # 1fba4 <_ZN9allow_pin12dynamic_type7unshare17hb27555f71d22f3b2E>
   1abba:	40ba                	lw	ra,140(sp)
   1abbc:	442a                	lw	s0,136(sp)
   1abbe:	449a                	lw	s1,132(sp)
   1abc0:	490a                	lw	s2,128(sp)
   1abc2:	59f6                	lw	s3,124(sp)
   1abc4:	6149                	addi	sp,sp,144
   1abc6:	8082                	ret

0001abc8 <_ZN20complex_dynamic_type3app17hfd176951e452a2a5E>:
   1abc8:	711d                	addi	sp,sp,-96
   1abca:	ce86                	sw	ra,92(sp)
   1abcc:	cca2                	sw	s0,88(sp)
   1abce:	caa6                	sw	s1,84(sp)
   1abd0:	c8ca                	sw	s2,80(sp)
   1abd2:	c6ce                	sw	s3,76(sp)
   1abd4:	892a                	mv	s2,a0
   1abd6:	4489                	li	s1,2
   1abd8:	009101a3          	sb	s1,3(sp)
   1abdc:	0040                	addi	s0,sp,4
   1abde:	02300613          	li	a2,35
   1abe2:	8522                	mv	a0,s0
   1abe4:	00005097          	auipc	ra,0x5
   1abe8:	038080e7          	jalr	56(ra) # 1fc1c <memcpy>
   1abec:	02810993          	addi	s3,sp,40
   1abf0:	02400613          	li	a2,36
   1abf4:	854e                	mv	a0,s3
   1abf6:	4581                	li	a1,0
   1abf8:	00005097          	auipc	ra,0x5
   1abfc:	fb8080e7          	jalr	-72(ra) # 1fbb0 <memset>
   1ac00:	8622                	mv	a2,s0
   1ac02:	029103a3          	sb	s1,39(sp)
   1ac06:	6509                	lui	a0,0x2
   1ac08:	4791                	li	a5,4
   1ac0a:	4591                	li	a1,4
   1ac0c:	bd650513          	addi	a0,a0,-1066 # 1bd6 <.Lline_table_start1+0x19ab>
   1ac10:	02300693          	li	a3,35
   1ac14:	4711                	li	a4,4
   1ac16:	00000073          	ecall
   1ac1a:	00950463          	beq	a0,s1,1ac22 <_ZN20complex_dynamic_type3app17hfd176951e452a2a5E+0x5a>
   1ac1e:	00f101a3          	sb	a5,3(sp)
   1ac22:	4609                	li	a2,2
   1ac24:	00c51463          	bne	a0,a2,1ac2c <_ZN20complex_dynamic_type3app17hfd176951e452a2a5E+0x64>
   1ac28:	4785                	li	a5,1
   1ac2a:	a859                	j	1acc0 <_ZN20complex_dynamic_type3app17hfd176951e452a2a5E+0xf8>
   1ac2c:	02714503          	lbu	a0,39(sp)
   1ac30:	4785                	li	a5,1
   1ac32:	02c51363          	bne	a0,a2,1ac58 <_ZN20complex_dynamic_type3app17hfd176951e452a2a5E+0x90>
   1ac36:	864e                	mv	a2,s3
   1ac38:	6509                	lui	a0,0x2
   1ac3a:	45a1                	li	a1,8
   1ac3c:	02400693          	li	a3,36
   1ac40:	470d                	li	a4,3
   1ac42:	bd650513          	addi	a0,a0,-1066 # 1bd6 <.Lline_table_start1+0x19ab>
   1ac46:	4489                	li	s1,2
   1ac48:	00000073          	ecall
   1ac4c:	460d                	li	a2,3
   1ac4e:	00951963          	bne	a0,s1,1ac60 <_ZN20complex_dynamic_type3app17hfd176951e452a2a5E+0x98>
   1ac52:	4505                	li	a0,1
   1ac54:	c911                	beqz	a0,1ac68 <_ZN20complex_dynamic_type3app17hfd176951e452a2a5E+0xa0>
   1ac56:	a0ad                	j	1acc0 <_ZN20complex_dynamic_type3app17hfd176951e452a2a5E+0xf8>
   1ac58:	458d                	li	a1,3
   1ac5a:	4505                	li	a0,1
   1ac5c:	c511                	beqz	a0,1ac68 <_ZN20complex_dynamic_type3app17hfd176951e452a2a5E+0xa0>
   1ac5e:	a08d                	j	1acc0 <_ZN20complex_dynamic_type3app17hfd176951e452a2a5E+0xf8>
   1ac60:	4501                	li	a0,0
   1ac62:	02c103a3          	sb	a2,39(sp)
   1ac66:	ed29                	bnez	a0,1acc0 <_ZN20complex_dynamic_type3app17hfd176951e452a2a5E+0xf8>
   1ac68:	4681                	li	a3,0
   1ac6a:	6509                	lui	a0,0x2
   1ac6c:	4591                	li	a1,4
   1ac6e:	4621                	li	a2,8
   1ac70:	4709                	li	a4,2
   1ac72:	bd650513          	addi	a0,a0,-1066 # 1bd6 <.Lline_table_start1+0x19ab>
   1ac76:	07f00493          	li	s1,127
   1ac7a:	00000073          	ecall
   1ac7e:	4689                	li	a3,2
   1ac80:	04a4f063          	bgeu	s1,a0,1acc0 <_ZN20complex_dynamic_type3app17hfd176951e452a2a5E+0xf8>
   1ac84:	00314603          	lbu	a2,3(sp)
   1ac88:	00d60a63          	beq	a2,a3,1ac9c <_ZN20complex_dynamic_type3app17hfd176951e452a2a5E+0xd4>
   1ac8c:	6509                	lui	a0,0x2
   1ac8e:	bd650513          	addi	a0,a0,-1066 # 1bd6 <.Lline_table_start1+0x19ab>
   1ac92:	4591                	li	a1,4
   1ac94:	00005097          	auipc	ra,0x5
   1ac98:	f10080e7          	jalr	-240(ra) # 1fba4 <_ZN9allow_pin12dynamic_type7unshare17hb27555f71d22f3b2E>
   1ac9c:	02714603          	lbu	a2,39(sp)
   1aca0:	4409                	li	s0,2
   1aca2:	008101a3          	sb	s0,3(sp)
   1aca6:	00860a63          	beq	a2,s0,1acba <_ZN20complex_dynamic_type3app17hfd176951e452a2a5E+0xf2>
   1acaa:	6509                	lui	a0,0x2
   1acac:	bd650513          	addi	a0,a0,-1066 # 1bd6 <.Lline_table_start1+0x19ab>
   1acb0:	45a1                	li	a1,8
   1acb2:	00005097          	auipc	ra,0x5
   1acb6:	ef2080e7          	jalr	-270(ra) # 1fba4 <_ZN9allow_pin12dynamic_type7unshare17hb27555f71d22f3b2E>
   1acba:	4781                	li	a5,0
   1acbc:	028103a3          	sb	s0,39(sp)
   1acc0:	cb85                	beqz	a5,1acf0 <_ZN20complex_dynamic_type3app17hfd176951e452a2a5E+0x128>
   1acc2:	02714603          	lbu	a2,39(sp)
   1acc6:	4505                	li	a0,1
   1acc8:	4409                	li	s0,2
   1acca:	00a90023          	sb	a0,0(s2)
   1acce:	00b92223          	sw	a1,4(s2)
   1acd2:	00860a63          	beq	a2,s0,1ace6 <_ZN20complex_dynamic_type3app17hfd176951e452a2a5E+0x11e>
   1acd6:	6509                	lui	a0,0x2
   1acd8:	bd650513          	addi	a0,a0,-1066 # 1bd6 <.Lline_table_start1+0x19ab>
   1acdc:	45a1                	li	a1,8
   1acde:	00005097          	auipc	ra,0x5
   1ace2:	ec6080e7          	jalr	-314(ra) # 1fba4 <_ZN9allow_pin12dynamic_type7unshare17hb27555f71d22f3b2E>
   1ace6:	00314603          	lbu	a2,3(sp)
   1acea:	04861763          	bne	a2,s0,1ad38 <_ZN20complex_dynamic_type3app17hfd176951e452a2a5E+0x170>
   1acee:	a8a9                	j	1ad48 <_ZN20complex_dynamic_type3app17hfd176951e452a2a5E+0x180>
   1acf0:	02714403          	lbu	s0,39(sp)
   1acf4:	4489                	li	s1,2
   1acf6:	00940663          	beq	s0,s1,1ad02 <_ZN20complex_dynamic_type3app17hfd176951e452a2a5E+0x13a>
   1acfa:	000119b7          	lui	s3,0x11
   1acfe:	84298993          	addi	s3,s3,-1982 # 10842 <.Lanon.49c9f8067fe4468184af16d7576940c9.38>
   1ad02:	00190513          	addi	a0,s2,1
   1ad06:	02400613          	li	a2,36
   1ad0a:	85ce                	mv	a1,s3
   1ad0c:	00005097          	auipc	ra,0x5
   1ad10:	f10080e7          	jalr	-240(ra) # 1fc1c <memcpy>
   1ad14:	00090023          	sb	zero,0(s2)
   1ad18:	00940b63          	beq	s0,s1,1ad2e <_ZN20complex_dynamic_type3app17hfd176951e452a2a5E+0x166>
   1ad1c:	6509                	lui	a0,0x2
   1ad1e:	bd650513          	addi	a0,a0,-1066 # 1bd6 <.Lline_table_start1+0x19ab>
   1ad22:	45a1                	li	a1,8
   1ad24:	8622                	mv	a2,s0
   1ad26:	00005097          	auipc	ra,0x5
   1ad2a:	e7e080e7          	jalr	-386(ra) # 1fba4 <_ZN9allow_pin12dynamic_type7unshare17hb27555f71d22f3b2E>
   1ad2e:	00314603          	lbu	a2,3(sp)
   1ad32:	4509                	li	a0,2
   1ad34:	00a60a63          	beq	a2,a0,1ad48 <_ZN20complex_dynamic_type3app17hfd176951e452a2a5E+0x180>
   1ad38:	6509                	lui	a0,0x2
   1ad3a:	bd650513          	addi	a0,a0,-1066 # 1bd6 <.Lline_table_start1+0x19ab>
   1ad3e:	4591                	li	a1,4
   1ad40:	00005097          	auipc	ra,0x5
   1ad44:	e64080e7          	jalr	-412(ra) # 1fba4 <_ZN9allow_pin12dynamic_type7unshare17hb27555f71d22f3b2E>
   1ad48:	40f6                	lw	ra,92(sp)
   1ad4a:	4466                	lw	s0,88(sp)
   1ad4c:	44d6                	lw	s1,84(sp)
   1ad4e:	4946                	lw	s2,80(sp)
   1ad50:	49b6                	lw	s3,76(sp)
   1ad52:	6125                	addi	sp,sp,96
   1ad54:	8082                	ret

0001ad56 <_start>:
   1ad56:	81010113          	addi	sp,sp,-2032
   1ad5a:	7e112623          	sw	ra,2028(sp)
   1ad5e:	7e812423          	sw	s0,2024(sp)
   1ad62:	7e912223          	sw	s1,2020(sp)
   1ad66:	7f212023          	sw	s2,2016(sp)
   1ad6a:	7d312e23          	sw	s3,2012(sp)
   1ad6e:	7d412c23          	sw	s4,2008(sp)
   1ad72:	7d512a23          	sw	s5,2004(sp)
   1ad76:	7d612823          	sw	s6,2000(sp)
   1ad7a:	7d712623          	sw	s7,1996(sp)
   1ad7e:	7d812423          	sw	s8,1992(sp)
   1ad82:	7d912223          	sw	s9,1988(sp)
   1ad86:	7da12023          	sw	s10,1984(sp)
   1ad8a:	80010113          	addi	sp,sp,-2048
   1ad8e:	b2010113          	addi	sp,sp,-1248
   1ad92:	7ff10a93          	addi	s5,sp,2047
   1ad96:	795a8a93          	addi	s5,s5,1941
   1ad9a:	05510413          	addi	s0,sp,85
   1ad9e:	02800613          	li	a2,40
   1ada2:	8522                	mv	a0,s0
   1ada4:	4581                	li	a1,0
   1ada6:	00005097          	auipc	ra,0x5
   1adaa:	e0a080e7          	jalr	-502(ra) # 1fbb0 <memset>
   1adae:	4489                	li	s1,2
   1adb0:	04910a23          	sb	s1,84(sp)
   1adb4:	6505                	lui	a0,0x1
   1adb6:	38150513          	addi	a0,a0,897 # 1381 <.Lline_table_start1+0x1156>
   1adba:	00a10b33          	add	s6,sp,a0
   1adbe:	05100613          	li	a2,81
   1adc2:	855a                	mv	a0,s6
   1adc4:	4581                	li	a1,0
   1adc6:	00005097          	auipc	ra,0x5
   1adca:	dea080e7          	jalr	-534(ra) # 1fbb0 <memset>
   1adce:	8622                	mv	a2,s0
   1add0:	3e9a8623          	sb	s1,1004(s5)
   1add4:	6509                	lui	a0,0x2
   1add6:	4791                	li	a5,4
   1add8:	45a5                	li	a1,9
   1adda:	0519                	addi	a0,a0,6 # 2006 <.Lline_table_start1+0x1ddb>
   1addc:	02800693          	li	a3,40
   1ade0:	4711                	li	a4,4
   1ade2:	00000073          	ecall
   1ade6:	02951d63          	bne	a0,s1,1ae20 <_start+0xca>
   1adea:	8a2e                	mv	s4,a1
   1adec:	4589                	li	a1,2
   1adee:	02b50e63          	beq	a0,a1,1ae2a <_start+0xd4>
   1adf2:	3ecac503          	lbu	a0,1004(s5)
   1adf6:	4905                	li	s2,1
   1adf8:	0ab51963          	bne	a0,a1,1aeaa <_start+0x154>
   1adfc:	865a                	mv	a2,s6
   1adfe:	6509                	lui	a0,0x2
   1ae00:	45a5                	li	a1,9
   1ae02:	05100693          	li	a3,81
   1ae06:	470d                	li	a4,3
   1ae08:	0519                	addi	a0,a0,6 # 2006 <.Lline_table_start1+0x1ddb>
   1ae0a:	4789                	li	a5,2
   1ae0c:	00000073          	ecall
   1ae10:	8a2e                	mv	s4,a1
   1ae12:	458d                	li	a1,3
   1ae14:	26f51363          	bne	a0,a5,1b07a <_start+0x324>
   1ae18:	4505                	li	a0,1
   1ae1a:	26050563          	beqz	a0,1b084 <_start+0x32e>
   1ae1e:	a039                	j	1ae2c <_start+0xd6>
   1ae20:	04f10a23          	sb	a5,84(sp)
   1ae24:	4589                	li	a1,2
   1ae26:	fcb516e3          	bne	a0,a1,1adf2 <_start+0x9c>
   1ae2a:	4905                	li	s2,1
   1ae2c:	3ecac403          	lbu	s0,1004(s5)
   1ae30:	02090263          	beqz	s2,1ae54 <_start+0xfe>
   1ae34:	4489                	li	s1,2
   1ae36:	00940a63          	beq	s0,s1,1ae4a <_start+0xf4>
   1ae3a:	6509                	lui	a0,0x2
   1ae3c:	0519                	addi	a0,a0,6 # 2006 <.Lline_table_start1+0x1ddb>
   1ae3e:	45a5                	li	a1,9
   1ae40:	8622                	mv	a2,s0
   1ae42:	00005097          	auipc	ra,0x5
   1ae46:	d62080e7          	jalr	-670(ra) # 1fba4 <_ZN9allow_pin12dynamic_type7unshare17hb27555f71d22f3b2E>
   1ae4a:	05414603          	lbu	a2,84(sp)
   1ae4e:	0a961263          	bne	a2,s1,1aef2 <_start+0x19c>
   1ae52:	a07d                	j	1af00 <_start+0x1aa>
   1ae54:	ffe40893          	addi	a7,s0,-2
   1ae58:	4989                	li	s3,2
   1ae5a:	00010837          	lui	a6,0x10
   1ae5e:	27080813          	addi	a6,a6,624 # 10270 <.Lanon.49c9f8067fe4468184af16d7576940c9.10>
   1ae62:	01340363          	beq	s0,s3,1ae68 <_start+0x112>
   1ae66:	8b42                	mv	s6,a6
   1ae68:	001b4603          	lbu	a2,1(s6)
   1ae6c:	000b4683          	lbu	a3,0(s6)
   1ae70:	002b4703          	lbu	a4,2(s6)
   1ae74:	0622                	slli	a2,a2,0x8
   1ae76:	3f0ac783          	lbu	a5,1008(s5)
   1ae7a:	3f1ac483          	lbu	s1,1009(s5)
   1ae7e:	8ed1                	or	a3,a3,a2
   1ae80:	3f2ac583          	lbu	a1,1010(s5)
   1ae84:	3f3ac503          	lbu	a0,1011(s5)
   1ae88:	00849613          	slli	a2,s1,0x8
   1ae8c:	8e5d                	or	a2,a2,a5
   1ae8e:	08d11a23          	sh	a3,148(sp)
   1ae92:	08e10b23          	sb	a4,150(sp)
   1ae96:	011034b3          	snez	s1,a7
   1ae9a:	05c2                	slli	a1,a1,0x10
   1ae9c:	0562                	slli	a0,a0,0x18
   1ae9e:	8d4d                	or	a0,a0,a1
   1aea0:	01340a63          	beq	s0,s3,1aeb4 <_start+0x15e>
   1aea4:	00780593          	addi	a1,a6,7
   1aea8:	a811                	j	1aebc <_start+0x166>
   1aeaa:	4a0d                	li	s4,3
   1aeac:	4505                	li	a0,1
   1aeae:	1c050b63          	beqz	a0,1b084 <_start+0x32e>
   1aeb2:	bfad                	j	1ae2c <_start+0xd6>
   1aeb4:	6585                	lui	a1,0x1
   1aeb6:	38858593          	addi	a1,a1,904 # 1388 <.Lline_table_start1+0x115d>
   1aeba:	958a                	add	a1,a1,sp
   1aebc:	00c56a33          	or	s4,a0,a2
   1aec0:	14fd                	addi	s1,s1,-1
   1aec2:	0028                	addi	a0,sp,8
   1aec4:	04a00613          	li	a2,74
   1aec8:	00005097          	auipc	ra,0x5
   1aecc:	d54080e7          	jalr	-684(ra) # 1fc1c <memcpy>
   1aed0:	01340a63          	beq	s0,s3,1aee4 <_start+0x18e>
   1aed4:	6509                	lui	a0,0x2
   1aed6:	0519                	addi	a0,a0,6 # 2006 <.Lline_table_start1+0x1ddb>
   1aed8:	45a5                	li	a1,9
   1aeda:	8622                	mv	a2,s0
   1aedc:	00005097          	auipc	ra,0x5
   1aee0:	cc8080e7          	jalr	-824(ra) # 1fba4 <_ZN9allow_pin12dynamic_type7unshare17hb27555f71d22f3b2E>
   1aee4:	05414603          	lbu	a2,84(sp)
   1aee8:	4509                	li	a0,2
   1aeea:	0144fa33          	and	s4,s1,s4
   1aeee:	00a60963          	beq	a2,a0,1af00 <_start+0x1aa>
   1aef2:	6509                	lui	a0,0x2
   1aef4:	0519                	addi	a0,a0,6 # 2006 <.Lline_table_start1+0x1ddb>
   1aef6:	45a5                	li	a1,9
   1aef8:	00005097          	auipc	ra,0x5
   1aefc:	cac080e7          	jalr	-852(ra) # 1fba4 <_ZN9allow_pin12dynamic_type7unshare17hb27555f71d22f3b2E>
   1af00:	00090463          	beqz	s2,1af08 <_start+0x1b2>
   1af04:	3f50406f          	j	1faf8 <_start+0x4da2>
   1af08:	09414503          	lbu	a0,148(sp)
   1af0c:	09514583          	lbu	a1,149(sp)
   1af10:	09614603          	lbu	a2,150(sp)
   1af14:	6685                	lui	a3,0x1
   1af16:	38168693          	addi	a3,a3,897 # 1381 <.Lline_table_start1+0x1156>
   1af1a:	00d10933          	add	s2,sp,a3
   1af1e:	3eaa86a3          	sb	a0,1005(s5)
   1af22:	3eba8723          	sb	a1,1006(s5)
   1af26:	3eca87a3          	sb	a2,1007(s5)
   1af2a:	6505                	lui	a0,0x1
   1af2c:	32450513          	addi	a0,a0,804 # 1324 <.Lline_table_start1+0x10f9>
   1af30:	950a                	add	a0,a0,sp
   1af32:	002c                	addi	a1,sp,8
   1af34:	04a00613          	li	a2,74
   1af38:	00005097          	auipc	ra,0x5
   1af3c:	ce4080e7          	jalr	-796(ra) # 1fc1c <memcpy>
   1af40:	6505                	lui	a0,0x1
   1af42:	38850513          	addi	a0,a0,904 # 1388 <.Lline_table_start1+0x115d>
   1af46:	950a                	add	a0,a0,sp
   1af48:	6585                	lui	a1,0x1
   1af4a:	32458593          	addi	a1,a1,804 # 1324 <.Lline_table_start1+0x10f9>
   1af4e:	958a                	add	a1,a1,sp
   1af50:	04a00613          	li	a2,74
   1af54:	00005097          	auipc	ra,0x5
   1af58:	cc8080e7          	jalr	-824(ra) # 1fc1c <memcpy>
   1af5c:	4409                	li	s0,2
   1af5e:	018a5513          	srli	a0,s4,0x18
   1af62:	010a5593          	srli	a1,s4,0x10
   1af66:	3eaa89a3          	sb	a0,1011(s5)
   1af6a:	008a5513          	srli	a0,s4,0x8
   1af6e:	3e8a8623          	sb	s0,1004(s5)
   1af72:	3f4a8823          	sb	s4,1008(s5)
   1af76:	3eaa88a3          	sb	a0,1009(s5)
   1af7a:	3eba8923          	sb	a1,1010(s5)
   1af7e:	6505                	lui	a0,0x1
   1af80:	32550513          	addi	a0,a0,805 # 1325 <.Lline_table_start1+0x10fa>
   1af84:	00a104b3          	add	s1,sp,a0
   1af88:	04600613          	li	a2,70
   1af8c:	8526                	mv	a0,s1
   1af8e:	4581                	li	a1,0
   1af90:	00005097          	auipc	ra,0x5
   1af94:	c20080e7          	jalr	-992(ra) # 1fbb0 <memset>
   1af98:	864a                	mv	a2,s2
   1af9a:	388a8823          	sb	s0,912(s5)
   1af9e:	6509                	lui	a0,0x2
   1afa0:	4791                	li	a5,4
   1afa2:	459d                	li	a1,7
   1afa4:	0c450513          	addi	a0,a0,196 # 20c4 <.Lline_table_start1+0x1e99>
   1afa8:	05100693          	li	a3,81
   1afac:	4711                	li	a4,4
   1afae:	00000073          	ecall
   1afb2:	02851e63          	bne	a0,s0,1afee <_start+0x298>
   1afb6:	8a2e                	mv	s4,a1
   1afb8:	4589                	li	a1,2
   1afba:	02b50f63          	beq	a0,a1,1aff8 <_start+0x2a2>
   1afbe:	390ac503          	lbu	a0,912(s5)
   1afc2:	4905                	li	s2,1
   1afc4:	10b51b63          	bne	a0,a1,1b0da <_start+0x384>
   1afc8:	4581                	li	a1,0
   1afca:	8626                	mv	a2,s1
   1afcc:	6509                	lui	a0,0x2
   1afce:	04600693          	li	a3,70
   1afd2:	470d                	li	a4,3
   1afd4:	0c450513          	addi	a0,a0,196 # 20c4 <.Lline_table_start1+0x1e99>
   1afd8:	4789                	li	a5,2
   1afda:	00000073          	ecall
   1afde:	8a2e                	mv	s4,a1
   1afe0:	458d                	li	a1,3
   1afe2:	2cf51063          	bne	a0,a5,1b2a2 <_start+0x54c>
   1afe6:	4505                	li	a0,1
   1afe8:	2c050263          	beqz	a0,1b2ac <_start+0x556>
   1afec:	a039                	j	1affa <_start+0x2a4>
   1afee:	3efa8623          	sb	a5,1004(s5)
   1aff2:	4589                	li	a1,2
   1aff4:	fcb515e3          	bne	a0,a1,1afbe <_start+0x268>
   1aff8:	4905                	li	s2,1
   1affa:	390ac403          	lbu	s0,912(s5)
   1affe:	02090363          	beqz	s2,1b024 <_start+0x2ce>
   1b002:	4489                	li	s1,2
   1b004:	00940b63          	beq	s0,s1,1b01a <_start+0x2c4>
   1b008:	6509                	lui	a0,0x2
   1b00a:	0c450513          	addi	a0,a0,196 # 20c4 <.Lline_table_start1+0x1e99>
   1b00e:	4581                	li	a1,0
   1b010:	8622                	mv	a2,s0
   1b012:	00005097          	auipc	ra,0x5
   1b016:	b92080e7          	jalr	-1134(ra) # 1fba4 <_ZN9allow_pin12dynamic_type7unshare17hb27555f71d22f3b2E>
   1b01a:	3ecac603          	lbu	a2,1004(s5)
   1b01e:	10961363          	bne	a2,s1,1b124 <_start+0x3ce>
   1b022:	aa09                	j	1b134 <_start+0x3de>
   1b024:	ffe40893          	addi	a7,s0,-2
   1b028:	4989                	li	s3,2
   1b02a:	00010837          	lui	a6,0x10
   1b02e:	39c80813          	addi	a6,a6,924 # 1039c <.Lanon.49c9f8067fe4468184af16d7576940c9.15>
   1b032:	01340363          	beq	s0,s3,1b038 <_start+0x2e2>
   1b036:	84c2                	mv	s1,a6
   1b038:	0014c603          	lbu	a2,1(s1)
   1b03c:	0004c683          	lbu	a3,0(s1)
   1b040:	0024c703          	lbu	a4,2(s1)
   1b044:	0622                	slli	a2,a2,0x8
   1b046:	394ac783          	lbu	a5,916(s5)
   1b04a:	395ac483          	lbu	s1,917(s5)
   1b04e:	8ed1                	or	a3,a3,a2
   1b050:	396ac583          	lbu	a1,918(s5)
   1b054:	397ac503          	lbu	a0,919(s5)
   1b058:	00849613          	slli	a2,s1,0x8
   1b05c:	8e5d                	or	a2,a2,a5
   1b05e:	08d11a23          	sh	a3,148(sp)
   1b062:	08e10b23          	sb	a4,150(sp)
   1b066:	011034b3          	snez	s1,a7
   1b06a:	05c2                	slli	a1,a1,0x10
   1b06c:	0562                	slli	a0,a0,0x18
   1b06e:	8d4d                	or	a0,a0,a1
   1b070:	07340a63          	beq	s0,s3,1b0e4 <_start+0x38e>
   1b074:	00780593          	addi	a1,a6,7
   1b078:	a895                	j	1b0ec <_start+0x396>
   1b07a:	4501                	li	a0,0
   1b07c:	3eba8623          	sb	a1,1004(s5)
   1b080:	da0516e3          	bnez	a0,1ae2c <_start+0xd6>
   1b084:	4681                	li	a3,0
   1b086:	6509                	lui	a0,0x2
   1b088:	45a5                	li	a1,9
   1b08a:	4625                	li	a2,9
   1b08c:	4709                	li	a4,2
   1b08e:	0519                	addi	a0,a0,6 # 2006 <.Lline_table_start1+0x1ddb>
   1b090:	07f00793          	li	a5,127
   1b094:	00000073          	ecall
   1b098:	8a2e                	mv	s4,a1
   1b09a:	4589                	li	a1,2
   1b09c:	d8a7f8e3          	bgeu	a5,a0,1ae2c <_start+0xd6>
   1b0a0:	05414603          	lbu	a2,84(sp)
   1b0a4:	00b60963          	beq	a2,a1,1b0b6 <_start+0x360>
   1b0a8:	6509                	lui	a0,0x2
   1b0aa:	0519                	addi	a0,a0,6 # 2006 <.Lline_table_start1+0x1ddb>
   1b0ac:	45a5                	li	a1,9
   1b0ae:	00005097          	auipc	ra,0x5
   1b0b2:	af6080e7          	jalr	-1290(ra) # 1fba4 <_ZN9allow_pin12dynamic_type7unshare17hb27555f71d22f3b2E>
   1b0b6:	3ecac603          	lbu	a2,1004(s5)
   1b0ba:	4409                	li	s0,2
   1b0bc:	04810a23          	sb	s0,84(sp)
   1b0c0:	00860963          	beq	a2,s0,1b0d2 <_start+0x37c>
   1b0c4:	6509                	lui	a0,0x2
   1b0c6:	0519                	addi	a0,a0,6 # 2006 <.Lline_table_start1+0x1ddb>
   1b0c8:	45a5                	li	a1,9
   1b0ca:	00005097          	auipc	ra,0x5
   1b0ce:	ada080e7          	jalr	-1318(ra) # 1fba4 <_ZN9allow_pin12dynamic_type7unshare17hb27555f71d22f3b2E>
   1b0d2:	4901                	li	s2,0
   1b0d4:	3e8a8623          	sb	s0,1004(s5)
   1b0d8:	bb91                	j	1ae2c <_start+0xd6>
   1b0da:	4a0d                	li	s4,3
   1b0dc:	4505                	li	a0,1
   1b0de:	1c050763          	beqz	a0,1b2ac <_start+0x556>
   1b0e2:	bf21                	j	1affa <_start+0x2a4>
   1b0e4:	6585                	lui	a1,0x1
   1b0e6:	32c58593          	addi	a1,a1,812 # 132c <.Lline_table_start1+0x1101>
   1b0ea:	958a                	add	a1,a1,sp
   1b0ec:	00c56a33          	or	s4,a0,a2
   1b0f0:	14fd                	addi	s1,s1,-1
   1b0f2:	08c8                	addi	a0,sp,84
   1b0f4:	03f00613          	li	a2,63
   1b0f8:	00005097          	auipc	ra,0x5
   1b0fc:	b24080e7          	jalr	-1244(ra) # 1fc1c <memcpy>
   1b100:	01340b63          	beq	s0,s3,1b116 <_start+0x3c0>
   1b104:	6509                	lui	a0,0x2
   1b106:	0c450513          	addi	a0,a0,196 # 20c4 <.Lline_table_start1+0x1e99>
   1b10a:	4581                	li	a1,0
   1b10c:	8622                	mv	a2,s0
   1b10e:	00005097          	auipc	ra,0x5
   1b112:	a96080e7          	jalr	-1386(ra) # 1fba4 <_ZN9allow_pin12dynamic_type7unshare17hb27555f71d22f3b2E>
   1b116:	3ecac603          	lbu	a2,1004(s5)
   1b11a:	4509                	li	a0,2
   1b11c:	0144fa33          	and	s4,s1,s4
   1b120:	00a60a63          	beq	a2,a0,1b134 <_start+0x3de>
   1b124:	6509                	lui	a0,0x2
   1b126:	0c450513          	addi	a0,a0,196 # 20c4 <.Lline_table_start1+0x1e99>
   1b12a:	459d                	li	a1,7
   1b12c:	00005097          	auipc	ra,0x5
   1b130:	a78080e7          	jalr	-1416(ra) # 1fba4 <_ZN9allow_pin12dynamic_type7unshare17hb27555f71d22f3b2E>
   1b134:	00090463          	beqz	s2,1b13c <_start+0x3e6>
   1b138:	1c10406f          	j	1faf8 <_start+0x4da2>
   1b13c:	09414503          	lbu	a0,148(sp)
   1b140:	09514583          	lbu	a1,149(sp)
   1b144:	09614603          	lbu	a2,150(sp)
   1b148:	6685                	lui	a3,0x1
   1b14a:	38168693          	addi	a3,a3,897 # 1381 <.Lline_table_start1+0x1156>
   1b14e:	00d109b3          	add	s3,sp,a3
   1b152:	3eaa86a3          	sb	a0,1005(s5)
   1b156:	3eba8723          	sb	a1,1006(s5)
   1b15a:	3eca87a3          	sb	a2,1007(s5)
   1b15e:	0028                	addi	a0,sp,8
   1b160:	08cc                	addi	a1,sp,84
   1b162:	03f00613          	li	a2,63
   1b166:	00005097          	auipc	ra,0x5
   1b16a:	ab6080e7          	jalr	-1354(ra) # 1fc1c <memcpy>
   1b16e:	6505                	lui	a0,0x1
   1b170:	38850513          	addi	a0,a0,904 # 1388 <.Lline_table_start1+0x115d>
   1b174:	00a10933          	add	s2,sp,a0
   1b178:	002c                	addi	a1,sp,8
   1b17a:	03f00613          	li	a2,63
   1b17e:	854a                	mv	a0,s2
   1b180:	00005097          	auipc	ra,0x5
   1b184:	a9c080e7          	jalr	-1380(ra) # 1fc1c <memcpy>
   1b188:	4409                	li	s0,2
   1b18a:	018a5513          	srli	a0,s4,0x18
   1b18e:	010a5593          	srli	a1,s4,0x10
   1b192:	3eaa89a3          	sb	a0,1011(s5)
   1b196:	008a5513          	srli	a0,s4,0x8
   1b19a:	3e8a8623          	sb	s0,1004(s5)
   1b19e:	3f4a8823          	sb	s4,1008(s5)
   1b1a2:	3eaa88a3          	sb	a0,1009(s5)
   1b1a6:	3eba8923          	sb	a1,1010(s5)
   1b1aa:	6505                	lui	a0,0x1
   1b1ac:	32550513          	addi	a0,a0,805 # 1325 <.Lline_table_start1+0x10fa>
   1b1b0:	00a104b3          	add	s1,sp,a0
   1b1b4:	4661                	li	a2,24
   1b1b6:	8526                	mv	a0,s1
   1b1b8:	4581                	li	a1,0
   1b1ba:	00005097          	auipc	ra,0x5
   1b1be:	9f6080e7          	jalr	-1546(ra) # 1fbb0 <memset>
   1b1c2:	864e                	mv	a2,s3
   1b1c4:	388a8823          	sb	s0,912(s5)
   1b1c8:	6509                	lui	a0,0x2
   1b1ca:	4791                	li	a5,4
   1b1cc:	458d                	li	a1,3
   1b1ce:	3cf50513          	addi	a0,a0,975 # 23cf <.Lline_table_start1+0x21a4>
   1b1d2:	04600693          	li	a3,70
   1b1d6:	4711                	li	a4,4
   1b1d8:	00000073          	ecall
   1b1dc:	02851d63          	bne	a0,s0,1b216 <_start+0x4c0>
   1b1e0:	8a2e                	mv	s4,a1
   1b1e2:	4589                	li	a1,2
   1b1e4:	02b50e63          	beq	a0,a1,1b220 <_start+0x4ca>
   1b1e8:	390ac503          	lbu	a0,912(s5)
   1b1ec:	4b05                	li	s6,1
   1b1ee:	10b51d63          	bne	a0,a1,1b308 <_start+0x5b2>
   1b1f2:	8626                	mv	a2,s1
   1b1f4:	6509                	lui	a0,0x2
   1b1f6:	4789                	li	a5,2
   1b1f8:	480d                	li	a6,3
   1b1fa:	4589                	li	a1,2
   1b1fc:	3cf50513          	addi	a0,a0,975 # 23cf <.Lline_table_start1+0x21a4>
   1b200:	46e1                	li	a3,24
   1b202:	470d                	li	a4,3
   1b204:	00000073          	ecall
   1b208:	44f51f63          	bne	a0,a5,1b666 <_start+0x910>
   1b20c:	8a2e                	mv	s4,a1
   1b20e:	4505                	li	a0,1
   1b210:	46050063          	beqz	a0,1b670 <_start+0x91a>
   1b214:	a039                	j	1b222 <_start+0x4cc>
   1b216:	3efa8623          	sb	a5,1004(s5)
   1b21a:	4589                	li	a1,2
   1b21c:	fcb516e3          	bne	a0,a1,1b1e8 <_start+0x492>
   1b220:	4b05                	li	s6,1
   1b222:	390ac603          	lbu	a2,912(s5)
   1b226:	020b0263          	beqz	s6,1b24a <_start+0x4f4>
   1b22a:	4489                	li	s1,2
   1b22c:	00960a63          	beq	a2,s1,1b240 <_start+0x4ea>
   1b230:	6509                	lui	a0,0x2
   1b232:	3cf50513          	addi	a0,a0,975 # 23cf <.Lline_table_start1+0x21a4>
   1b236:	4589                	li	a1,2
   1b238:	00005097          	auipc	ra,0x5
   1b23c:	96c080e7          	jalr	-1684(ra) # 1fba4 <_ZN9allow_pin12dynamic_type7unshare17hb27555f71d22f3b2E>
   1b240:	3ecac603          	lbu	a2,1004(s5)
   1b244:	18961763          	bne	a2,s1,1b3d2 <_start+0x67c>
   1b248:	aa69                	j	1b3e2 <_start+0x68c>
   1b24a:	ffe60293          	addi	t0,a2,-2
   1b24e:	4809                	li	a6,2
   1b250:	000118b7          	lui	a7,0x11
   1b254:	86688893          	addi	a7,a7,-1946 # 10866 <.Lanon.49c9f8067fe4468184af16d7576940c9.39>
   1b258:	01060363          	beq	a2,a6,1b25e <_start+0x508>
   1b25c:	84c6                	mv	s1,a7
   1b25e:	0014c703          	lbu	a4,1(s1)
   1b262:	0004c783          	lbu	a5,0(s1)
   1b266:	0024c483          	lbu	s1,2(s1)
   1b26a:	0722                	slli	a4,a4,0x8
   1b26c:	394ac503          	lbu	a0,916(s5)
   1b270:	395ac683          	lbu	a3,917(s5)
   1b274:	8fd9                	or	a5,a5,a4
   1b276:	396ac403          	lbu	s0,918(s5)
   1b27a:	397ac583          	lbu	a1,919(s5)
   1b27e:	06a2                	slli	a3,a3,0x8
   1b280:	00a6e733          	or	a4,a3,a0
   1b284:	0af11423          	sh	a5,168(sp)
   1b288:	0a910523          	sb	s1,170(sp)
   1b28c:	005032b3          	snez	t0,t0
   1b290:	0442                	slli	s0,s0,0x10
   1b292:	05e2                	slli	a1,a1,0x18
   1b294:	0085e7b3          	or	a5,a1,s0
   1b298:	07060d63          	beq	a2,a6,1b312 <_start+0x5bc>
   1b29c:	00788693          	addi	a3,a7,7
   1b2a0:	a8b5                	j	1b31c <_start+0x5c6>
   1b2a2:	4501                	li	a0,0
   1b2a4:	38ba8823          	sb	a1,912(s5)
   1b2a8:	d40519e3          	bnez	a0,1affa <_start+0x2a4>
   1b2ac:	4601                	li	a2,0
   1b2ae:	4681                	li	a3,0
   1b2b0:	6509                	lui	a0,0x2
   1b2b2:	459d                	li	a1,7
   1b2b4:	4709                	li	a4,2
   1b2b6:	0c450513          	addi	a0,a0,196 # 20c4 <.Lline_table_start1+0x1e99>
   1b2ba:	07f00793          	li	a5,127
   1b2be:	00000073          	ecall
   1b2c2:	8a2e                	mv	s4,a1
   1b2c4:	4589                	li	a1,2
   1b2c6:	d2a7fae3          	bgeu	a5,a0,1affa <_start+0x2a4>
   1b2ca:	3ecac603          	lbu	a2,1004(s5)
   1b2ce:	00b60a63          	beq	a2,a1,1b2e2 <_start+0x58c>
   1b2d2:	6509                	lui	a0,0x2
   1b2d4:	0c450513          	addi	a0,a0,196 # 20c4 <.Lline_table_start1+0x1e99>
   1b2d8:	459d                	li	a1,7
   1b2da:	00005097          	auipc	ra,0x5
   1b2de:	8ca080e7          	jalr	-1846(ra) # 1fba4 <_ZN9allow_pin12dynamic_type7unshare17hb27555f71d22f3b2E>
   1b2e2:	390ac603          	lbu	a2,912(s5)
   1b2e6:	4409                	li	s0,2
   1b2e8:	3e8a8623          	sb	s0,1004(s5)
   1b2ec:	00860a63          	beq	a2,s0,1b300 <_start+0x5aa>
   1b2f0:	6509                	lui	a0,0x2
   1b2f2:	0c450513          	addi	a0,a0,196 # 20c4 <.Lline_table_start1+0x1e99>
   1b2f6:	4581                	li	a1,0
   1b2f8:	00005097          	auipc	ra,0x5
   1b2fc:	8ac080e7          	jalr	-1876(ra) # 1fba4 <_ZN9allow_pin12dynamic_type7unshare17hb27555f71d22f3b2E>
   1b300:	4901                	li	s2,0
   1b302:	388a8823          	sb	s0,912(s5)
   1b306:	b9d5                	j	1affa <_start+0x2a4>
   1b308:	4a0d                	li	s4,3
   1b30a:	4505                	li	a0,1
   1b30c:	36050263          	beqz	a0,1b670 <_start+0x91a>
   1b310:	bf09                	j	1b222 <_start+0x4cc>
   1b312:	6505                	lui	a0,0x1
   1b314:	32c50513          	addi	a0,a0,812 # 132c <.Lline_table_start1+0x1101>
   1b318:	00a106b3          	add	a3,sp,a0
   1b31c:	00e7ea33          	or	s4,a5,a4
   1b320:	0106c503          	lbu	a0,16(a3)
   1b324:	0006c883          	lbu	a7,0(a3)
   1b328:	0016c703          	lbu	a4,1(a3)
   1b32c:	0026c783          	lbu	a5,2(a3)
   1b330:	0036c403          	lbu	s0,3(a3)
   1b334:	0046c483          	lbu	s1,4(a3)
   1b338:	0056c583          	lbu	a1,5(a3)
   1b33c:	0066c303          	lbu	t1,6(a3)
   1b340:	0076c383          	lbu	t2,7(a3)
   1b344:	0aa10223          	sb	a0,164(sp)
   1b348:	0722                	slli	a4,a4,0x8
   1b34a:	07c2                	slli	a5,a5,0x10
   1b34c:	0462                	slli	s0,s0,0x18
   1b34e:	05a2                	slli	a1,a1,0x8
   1b350:	011768b3          	or	a7,a4,a7
   1b354:	00f46eb3          	or	t4,s0,a5
   1b358:	0095ee33          	or	t3,a1,s1
   1b35c:	0086c703          	lbu	a4,8(a3)
   1b360:	0096c483          	lbu	s1,9(a3)
   1b364:	00a6c403          	lbu	s0,10(a3)
   1b368:	00b6c503          	lbu	a0,11(a3)
   1b36c:	0342                	slli	t1,t1,0x10
   1b36e:	03e2                	slli	t2,t2,0x18
   1b370:	04a2                	slli	s1,s1,0x8
   1b372:	0442                	slli	s0,s0,0x10
   1b374:	0562                	slli	a0,a0,0x18
   1b376:	0063e5b3          	or	a1,t2,t1
   1b37a:	8f45                	or	a4,a4,s1
   1b37c:	00c6c483          	lbu	s1,12(a3)
   1b380:	00d6c783          	lbu	a5,13(a3)
   1b384:	8d41                	or	a0,a0,s0
   1b386:	00e6c403          	lbu	s0,14(a3)
   1b38a:	00f6c683          	lbu	a3,15(a3)
   1b38e:	07a2                	slli	a5,a5,0x8
   1b390:	8fc5                	or	a5,a5,s1
   1b392:	0442                	slli	s0,s0,0x10
   1b394:	06e2                	slli	a3,a3,0x18
   1b396:	8ec1                	or	a3,a3,s0
   1b398:	011ee433          	or	s0,t4,a7
   1b39c:	01c5e5b3          	or	a1,a1,t3
   1b3a0:	8d59                	or	a0,a0,a4
   1b3a2:	8edd                	or	a3,a3,a5
   1b3a4:	fff28493          	addi	s1,t0,-1
   1b3a8:	cb22                	sw	s0,148(sp)
   1b3aa:	cd2e                	sw	a1,152(sp)
   1b3ac:	cf2a                	sw	a0,156(sp)
   1b3ae:	d136                	sw	a3,160(sp)
   1b3b0:	01060a63          	beq	a2,a6,1b3c4 <_start+0x66e>
   1b3b4:	6509                	lui	a0,0x2
   1b3b6:	3cf50513          	addi	a0,a0,975 # 23cf <.Lline_table_start1+0x21a4>
   1b3ba:	4589                	li	a1,2
   1b3bc:	00004097          	auipc	ra,0x4
   1b3c0:	7e8080e7          	jalr	2024(ra) # 1fba4 <_ZN9allow_pin12dynamic_type7unshare17hb27555f71d22f3b2E>
   1b3c4:	3ecac603          	lbu	a2,1004(s5)
   1b3c8:	4509                	li	a0,2
   1b3ca:	0144fa33          	and	s4,s1,s4
   1b3ce:	00a60a63          	beq	a2,a0,1b3e2 <_start+0x68c>
   1b3d2:	6509                	lui	a0,0x2
   1b3d4:	3cf50513          	addi	a0,a0,975 # 23cf <.Lline_table_start1+0x21a4>
   1b3d8:	458d                	li	a1,3
   1b3da:	00004097          	auipc	ra,0x4
   1b3de:	7ca080e7          	jalr	1994(ra) # 1fba4 <_ZN9allow_pin12dynamic_type7unshare17hb27555f71d22f3b2E>
   1b3e2:	000b0463          	beqz	s6,1b3ea <_start+0x694>
   1b3e6:	7120406f          	j	1faf8 <_start+0x4da2>
   1b3ea:	0a814503          	lbu	a0,168(sp)
   1b3ee:	0a914583          	lbu	a1,169(sp)
   1b3f2:	0aa14603          	lbu	a2,170(sp)
   1b3f6:	46da                	lw	a3,148(sp)
   1b3f8:	476a                	lw	a4,152(sp)
   1b3fa:	47fa                	lw	a5,156(sp)
   1b3fc:	548a                	lw	s1,160(sp)
   1b3fe:	04a10aa3          	sb	a0,85(sp)
   1b402:	04b10b23          	sb	a1,86(sp)
   1b406:	04c10ba3          	sb	a2,87(sp)
   1b40a:	0a414503          	lbu	a0,164(sp)
   1b40e:	c436                	sw	a3,8(sp)
   1b410:	c63a                	sw	a4,12(sp)
   1b412:	c83e                	sw	a5,16(sp)
   1b414:	ca26                	sw	s1,20(sp)
   1b416:	05510413          	addi	s0,sp,85
   1b41a:	00a10c23          	sb	a0,24(sp)
   1b41e:	08e8                	addi	a0,sp,92
   1b420:	002c                	addi	a1,sp,8
   1b422:	4645                	li	a2,17
   1b424:	00004097          	auipc	ra,0x4
   1b428:	7f8080e7          	jalr	2040(ra) # 1fc1c <memcpy>
   1b42c:	4489                	li	s1,2
   1b42e:	018a5513          	srli	a0,s4,0x18
   1b432:	010a5593          	srli	a1,s4,0x10
   1b436:	04a10da3          	sb	a0,91(sp)
   1b43a:	008a5513          	srli	a0,s4,0x8
   1b43e:	04910a23          	sb	s1,84(sp)
   1b442:	05410c23          	sb	s4,88(sp)
   1b446:	04a10ca3          	sb	a0,89(sp)
   1b44a:	04b10d23          	sb	a1,90(sp)
   1b44e:	03600613          	li	a2,54
   1b452:	854e                	mv	a0,s3
   1b454:	4581                	li	a1,0
   1b456:	00004097          	auipc	ra,0x4
   1b45a:	75a080e7          	jalr	1882(ra) # 1fbb0 <memset>
   1b45e:	4581                	li	a1,0
   1b460:	8622                	mv	a2,s0
   1b462:	3e9a8623          	sb	s1,1004(s5)
   1b466:	4791                	li	a5,4
   1b468:	21f00513          	li	a0,543
   1b46c:	46e1                	li	a3,24
   1b46e:	4711                	li	a4,4
   1b470:	00000073          	ecall
   1b474:	02951d63          	bne	a0,s1,1b4ae <_start+0x758>
   1b478:	8a2e                	mv	s4,a1
   1b47a:	4589                	li	a1,2
   1b47c:	02b50e63          	beq	a0,a1,1b4b8 <_start+0x762>
   1b480:	3ecac503          	lbu	a0,1004(s5)
   1b484:	4b05                	li	s6,1
   1b486:	24b51363          	bne	a0,a1,1b6cc <_start+0x976>
   1b48a:	864e                	mv	a2,s3
   1b48c:	21f00513          	li	a0,543
   1b490:	459d                	li	a1,7
   1b492:	03600693          	li	a3,54
   1b496:	470d                	li	a4,3
   1b498:	4789                	li	a5,2
   1b49a:	00000073          	ecall
   1b49e:	8a2e                	mv	s4,a1
   1b4a0:	458d                	li	a1,3
   1b4a2:	24f51063          	bne	a0,a5,1b6e2 <_start+0x98c>
   1b4a6:	4505                	li	a0,1
   1b4a8:	24050263          	beqz	a0,1b6ec <_start+0x996>
   1b4ac:	a039                	j	1b4ba <_start+0x764>
   1b4ae:	04f10a23          	sb	a5,84(sp)
   1b4b2:	4589                	li	a1,2
   1b4b4:	fcb516e3          	bne	a0,a1,1b480 <_start+0x72a>
   1b4b8:	4b05                	li	s6,1
   1b4ba:	3ecac403          	lbu	s0,1004(s5)
   1b4be:	020b0263          	beqz	s6,1b4e2 <_start+0x78c>
   1b4c2:	4489                	li	s1,2
   1b4c4:	00940a63          	beq	s0,s1,1b4d8 <_start+0x782>
   1b4c8:	21f00513          	li	a0,543
   1b4cc:	459d                	li	a1,7
   1b4ce:	8622                	mv	a2,s0
   1b4d0:	00004097          	auipc	ra,0x4
   1b4d4:	6d4080e7          	jalr	1748(ra) # 1fba4 <_ZN9allow_pin12dynamic_type7unshare17hb27555f71d22f3b2E>
   1b4d8:	05414603          	lbu	a2,84(sp)
   1b4dc:	08961963          	bne	a2,s1,1b56e <_start+0x818>
   1b4e0:	a871                	j	1b57c <_start+0x826>
   1b4e2:	ffe40893          	addi	a7,s0,-2
   1b4e6:	4a09                	li	s4,2
   1b4e8:	00010837          	lui	a6,0x10
   1b4ec:	21780813          	addi	a6,a6,535 # 10217 <.Lanon.49c9f8067fe4468184af16d7576940c9.8>
   1b4f0:	01440363          	beq	s0,s4,1b4f6 <_start+0x7a0>
   1b4f4:	89c2                	mv	s3,a6
   1b4f6:	0019c603          	lbu	a2,1(s3)
   1b4fa:	0009c683          	lbu	a3,0(s3)
   1b4fe:	0029c703          	lbu	a4,2(s3)
   1b502:	0622                	slli	a2,a2,0x8
   1b504:	3f0ac783          	lbu	a5,1008(s5)
   1b508:	3f1ac483          	lbu	s1,1009(s5)
   1b50c:	8ed1                	or	a3,a3,a2
   1b50e:	3f2ac503          	lbu	a0,1010(s5)
   1b512:	3f3ac583          	lbu	a1,1011(s5)
   1b516:	00849613          	slli	a2,s1,0x8
   1b51a:	8e5d                	or	a2,a2,a5
   1b51c:	08d11a23          	sh	a3,148(sp)
   1b520:	08e10b23          	sb	a4,150(sp)
   1b524:	011034b3          	snez	s1,a7
   1b528:	0542                	slli	a0,a0,0x10
   1b52a:	05e2                	slli	a1,a1,0x18
   1b52c:	8dc9                	or	a1,a1,a0
   1b52e:	01440463          	beq	s0,s4,1b536 <_start+0x7e0>
   1b532:	00780913          	addi	s2,a6,7
   1b536:	00c5e9b3          	or	s3,a1,a2
   1b53a:	14fd                	addi	s1,s1,-1
   1b53c:	0028                	addi	a0,sp,8
   1b53e:	02f00613          	li	a2,47
   1b542:	85ca                	mv	a1,s2
   1b544:	00004097          	auipc	ra,0x4
   1b548:	6d8080e7          	jalr	1752(ra) # 1fc1c <memcpy>
   1b54c:	01440a63          	beq	s0,s4,1b560 <_start+0x80a>
   1b550:	21f00513          	li	a0,543
   1b554:	459d                	li	a1,7
   1b556:	8622                	mv	a2,s0
   1b558:	00004097          	auipc	ra,0x4
   1b55c:	64c080e7          	jalr	1612(ra) # 1fba4 <_ZN9allow_pin12dynamic_type7unshare17hb27555f71d22f3b2E>
   1b560:	05414603          	lbu	a2,84(sp)
   1b564:	4509                	li	a0,2
   1b566:	0134fa33          	and	s4,s1,s3
   1b56a:	00a60963          	beq	a2,a0,1b57c <_start+0x826>
   1b56e:	21f00513          	li	a0,543
   1b572:	4581                	li	a1,0
   1b574:	00004097          	auipc	ra,0x4
   1b578:	630080e7          	jalr	1584(ra) # 1fba4 <_ZN9allow_pin12dynamic_type7unshare17hb27555f71d22f3b2E>
   1b57c:	000b0463          	beqz	s6,1b584 <_start+0x82e>
   1b580:	5780406f          	j	1faf8 <_start+0x4da2>
   1b584:	09414503          	lbu	a0,148(sp)
   1b588:	09514583          	lbu	a1,149(sp)
   1b58c:	09614603          	lbu	a2,150(sp)
   1b590:	6685                	lui	a3,0x1
   1b592:	38168693          	addi	a3,a3,897 # 1381 <.Lline_table_start1+0x1156>
   1b596:	00d10933          	add	s2,sp,a3
   1b59a:	3eaa86a3          	sb	a0,1005(s5)
   1b59e:	3eba8723          	sb	a1,1006(s5)
   1b5a2:	3eca87a3          	sb	a2,1007(s5)
   1b5a6:	6505                	lui	a0,0x1
   1b5a8:	32450513          	addi	a0,a0,804 # 1324 <.Lline_table_start1+0x10f9>
   1b5ac:	950a                	add	a0,a0,sp
   1b5ae:	002c                	addi	a1,sp,8
   1b5b0:	02f00613          	li	a2,47
   1b5b4:	00004097          	auipc	ra,0x4
   1b5b8:	668080e7          	jalr	1640(ra) # 1fc1c <memcpy>
   1b5bc:	6505                	lui	a0,0x1
   1b5be:	38850513          	addi	a0,a0,904 # 1388 <.Lline_table_start1+0x115d>
   1b5c2:	950a                	add	a0,a0,sp
   1b5c4:	6585                	lui	a1,0x1
   1b5c6:	32458593          	addi	a1,a1,804 # 1324 <.Lline_table_start1+0x10f9>
   1b5ca:	958a                	add	a1,a1,sp
   1b5cc:	02f00613          	li	a2,47
   1b5d0:	00004097          	auipc	ra,0x4
   1b5d4:	64c080e7          	jalr	1612(ra) # 1fc1c <memcpy>
   1b5d8:	4409                	li	s0,2
   1b5da:	018a5513          	srli	a0,s4,0x18
   1b5de:	010a5593          	srli	a1,s4,0x10
   1b5e2:	3eaa89a3          	sb	a0,1011(s5)
   1b5e6:	008a5513          	srli	a0,s4,0x8
   1b5ea:	3e8a8623          	sb	s0,1004(s5)
   1b5ee:	3f4a8823          	sb	s4,1008(s5)
   1b5f2:	3eaa88a3          	sb	a0,1009(s5)
   1b5f6:	3eba8923          	sb	a1,1010(s5)
   1b5fa:	6505                	lui	a0,0x1
   1b5fc:	32550513          	addi	a0,a0,805 # 1325 <.Lline_table_start1+0x10fa>
   1b600:	00a104b3          	add	s1,sp,a0
   1b604:	02500613          	li	a2,37
   1b608:	8526                	mv	a0,s1
   1b60a:	4581                	li	a1,0
   1b60c:	00004097          	auipc	ra,0x4
   1b610:	5a4080e7          	jalr	1444(ra) # 1fbb0 <memset>
   1b614:	864a                	mv	a2,s2
   1b616:	388a8823          	sb	s0,912(s5)
   1b61a:	6505                	lui	a0,0x1
   1b61c:	4791                	li	a5,4
   1b61e:	459d                	li	a1,7
   1b620:	59750513          	addi	a0,a0,1431 # 1597 <.Lline_table_start1+0x136c>
   1b624:	03600693          	li	a3,54
   1b628:	4711                	li	a4,4
   1b62a:	00000073          	ecall
   1b62e:	0a851363          	bne	a0,s0,1b6d4 <_start+0x97e>
   1b632:	8a2e                	mv	s4,a1
   1b634:	4589                	li	a1,2
   1b636:	0ab50463          	beq	a0,a1,1b6de <_start+0x988>
   1b63a:	390ac503          	lbu	a0,912(s5)
   1b63e:	4985                	li	s3,1
   1b640:	10b51163          	bne	a0,a1,1b742 <_start+0x9ec>
   1b644:	4581                	li	a1,0
   1b646:	8626                	mv	a2,s1
   1b648:	6505                	lui	a0,0x1
   1b64a:	02500693          	li	a3,37
   1b64e:	470d                	li	a4,3
   1b650:	59750513          	addi	a0,a0,1431 # 1597 <.Lline_table_start1+0x136c>
   1b654:	4789                	li	a5,2
   1b656:	00000073          	ecall
   1b65a:	8a2e                	mv	s4,a1
   1b65c:	458d                	li	a1,3
   1b65e:	0ef51563          	bne	a0,a5,1b748 <_start+0x9f2>
   1b662:	4505                	li	a0,1
   1b664:	a0ed                	j	1b74e <_start+0x9f8>
   1b666:	4501                	li	a0,0
   1b668:	390a8823          	sb	a6,912(s5)
   1b66c:	ba051be3          	bnez	a0,1b222 <_start+0x4cc>
   1b670:	4681                	li	a3,0
   1b672:	6509                	lui	a0,0x2
   1b674:	458d                	li	a1,3
   1b676:	4609                	li	a2,2
   1b678:	4709                	li	a4,2
   1b67a:	3cf50513          	addi	a0,a0,975 # 23cf <.Lline_table_start1+0x21a4>
   1b67e:	07f00793          	li	a5,127
   1b682:	00000073          	ecall
   1b686:	8a2e                	mv	s4,a1
   1b688:	4589                	li	a1,2
   1b68a:	b8a7fce3          	bgeu	a5,a0,1b222 <_start+0x4cc>
   1b68e:	3ecac603          	lbu	a2,1004(s5)
   1b692:	00b60a63          	beq	a2,a1,1b6a6 <_start+0x950>
   1b696:	6509                	lui	a0,0x2
   1b698:	3cf50513          	addi	a0,a0,975 # 23cf <.Lline_table_start1+0x21a4>
   1b69c:	458d                	li	a1,3
   1b69e:	00004097          	auipc	ra,0x4
   1b6a2:	506080e7          	jalr	1286(ra) # 1fba4 <_ZN9allow_pin12dynamic_type7unshare17hb27555f71d22f3b2E>
   1b6a6:	390ac603          	lbu	a2,912(s5)
   1b6aa:	4a09                	li	s4,2
   1b6ac:	3f4a8623          	sb	s4,1004(s5)
   1b6b0:	01460a63          	beq	a2,s4,1b6c4 <_start+0x96e>
   1b6b4:	6509                	lui	a0,0x2
   1b6b6:	3cf50513          	addi	a0,a0,975 # 23cf <.Lline_table_start1+0x21a4>
   1b6ba:	4589                	li	a1,2
   1b6bc:	00004097          	auipc	ra,0x4
   1b6c0:	4e8080e7          	jalr	1256(ra) # 1fba4 <_ZN9allow_pin12dynamic_type7unshare17hb27555f71d22f3b2E>
   1b6c4:	4b01                	li	s6,0
   1b6c6:	394a8823          	sb	s4,912(s5)
   1b6ca:	bea1                	j	1b222 <_start+0x4cc>
   1b6cc:	4a0d                	li	s4,3
   1b6ce:	4505                	li	a0,1
   1b6d0:	cd11                	beqz	a0,1b6ec <_start+0x996>
   1b6d2:	b3e5                	j	1b4ba <_start+0x764>
   1b6d4:	3efa8623          	sb	a5,1004(s5)
   1b6d8:	4589                	li	a1,2
   1b6da:	f6b510e3          	bne	a0,a1,1b63a <_start+0x8e4>
   1b6de:	4985                	li	s3,1
   1b6e0:	a0e9                	j	1b7aa <_start+0xa54>
   1b6e2:	4501                	li	a0,0
   1b6e4:	3eba8623          	sb	a1,1004(s5)
   1b6e8:	dc0519e3          	bnez	a0,1b4ba <_start+0x764>
   1b6ec:	4581                	li	a1,0
   1b6ee:	4681                	li	a3,0
   1b6f0:	21f00513          	li	a0,543
   1b6f4:	461d                	li	a2,7
   1b6f6:	4709                	li	a4,2
   1b6f8:	07f00793          	li	a5,127
   1b6fc:	00000073          	ecall
   1b700:	8a2e                	mv	s4,a1
   1b702:	4589                	li	a1,2
   1b704:	daa7fbe3          	bgeu	a5,a0,1b4ba <_start+0x764>
   1b708:	05414603          	lbu	a2,84(sp)
   1b70c:	00b60963          	beq	a2,a1,1b71e <_start+0x9c8>
   1b710:	21f00513          	li	a0,543
   1b714:	4581                	li	a1,0
   1b716:	00004097          	auipc	ra,0x4
   1b71a:	48e080e7          	jalr	1166(ra) # 1fba4 <_ZN9allow_pin12dynamic_type7unshare17hb27555f71d22f3b2E>
   1b71e:	3ecac603          	lbu	a2,1004(s5)
   1b722:	4409                	li	s0,2
   1b724:	04810a23          	sb	s0,84(sp)
   1b728:	00860963          	beq	a2,s0,1b73a <_start+0x9e4>
   1b72c:	21f00513          	li	a0,543
   1b730:	459d                	li	a1,7
   1b732:	00004097          	auipc	ra,0x4
   1b736:	472080e7          	jalr	1138(ra) # 1fba4 <_ZN9allow_pin12dynamic_type7unshare17hb27555f71d22f3b2E>
   1b73a:	4b01                	li	s6,0
   1b73c:	3e8a8623          	sb	s0,1004(s5)
   1b740:	bbad                	j	1b4ba <_start+0x764>
   1b742:	4a0d                	li	s4,3
   1b744:	4505                	li	a0,1
   1b746:	a021                	j	1b74e <_start+0x9f8>
   1b748:	4501                	li	a0,0
   1b74a:	38ba8823          	sb	a1,912(s5)
   1b74e:	ed31                	bnez	a0,1b7aa <_start+0xa54>
   1b750:	4601                	li	a2,0
   1b752:	4681                	li	a3,0
   1b754:	6505                	lui	a0,0x1
   1b756:	459d                	li	a1,7
   1b758:	4709                	li	a4,2
   1b75a:	59750513          	addi	a0,a0,1431 # 1597 <.Lline_table_start1+0x136c>
   1b75e:	07f00793          	li	a5,127
   1b762:	00000073          	ecall
   1b766:	8a2e                	mv	s4,a1
   1b768:	4589                	li	a1,2
   1b76a:	04a7f063          	bgeu	a5,a0,1b7aa <_start+0xa54>
   1b76e:	3ecac603          	lbu	a2,1004(s5)
   1b772:	00b60a63          	beq	a2,a1,1b786 <_start+0xa30>
   1b776:	6505                	lui	a0,0x1
   1b778:	59750513          	addi	a0,a0,1431 # 1597 <.Lline_table_start1+0x136c>
   1b77c:	459d                	li	a1,7
   1b77e:	00004097          	auipc	ra,0x4
   1b782:	426080e7          	jalr	1062(ra) # 1fba4 <_ZN9allow_pin12dynamic_type7unshare17hb27555f71d22f3b2E>
   1b786:	390ac603          	lbu	a2,912(s5)
   1b78a:	4409                	li	s0,2
   1b78c:	3e8a8623          	sb	s0,1004(s5)
   1b790:	00860a63          	beq	a2,s0,1b7a4 <_start+0xa4e>
   1b794:	6505                	lui	a0,0x1
   1b796:	59750513          	addi	a0,a0,1431 # 1597 <.Lline_table_start1+0x136c>
   1b79a:	4581                	li	a1,0
   1b79c:	00004097          	auipc	ra,0x4
   1b7a0:	408080e7          	jalr	1032(ra) # 1fba4 <_ZN9allow_pin12dynamic_type7unshare17hb27555f71d22f3b2E>
   1b7a4:	4981                	li	s3,0
   1b7a6:	388a8823          	sb	s0,912(s5)
   1b7aa:	390ac603          	lbu	a2,912(s5)
   1b7ae:	02098263          	beqz	s3,1b7d2 <_start+0xa7c>
   1b7b2:	4409                	li	s0,2
   1b7b4:	00860a63          	beq	a2,s0,1b7c8 <_start+0xa72>
   1b7b8:	6505                	lui	a0,0x1
   1b7ba:	59750513          	addi	a0,a0,1431 # 1597 <.Lline_table_start1+0x136c>
   1b7be:	4581                	li	a1,0
   1b7c0:	00004097          	auipc	ra,0x4
   1b7c4:	3e4080e7          	jalr	996(ra) # 1fba4 <_ZN9allow_pin12dynamic_type7unshare17hb27555f71d22f3b2E>
   1b7c8:	3ecac603          	lbu	a2,1004(s5)
   1b7cc:	18861b63          	bne	a2,s0,1b962 <_start+0xc0c>
   1b7d0:	a24d                	j	1b972 <_start+0xc1c>
   1b7d2:	ffe60893          	addi	a7,a2,-2
   1b7d6:	4809                	li	a6,2
   1b7d8:	000102b7          	lui	t0,0x10
   1b7dc:	47528293          	addi	t0,t0,1141 # 10475 <.Lanon.49c9f8067fe4468184af16d7576940c9.19>
   1b7e0:	01060363          	beq	a2,a6,1b7e6 <_start+0xa90>
   1b7e4:	8496                	mv	s1,t0
   1b7e6:	0014c583          	lbu	a1,1(s1)
   1b7ea:	0004c703          	lbu	a4,0(s1)
   1b7ee:	0024c783          	lbu	a5,2(s1)
   1b7f2:	05a2                	slli	a1,a1,0x8
   1b7f4:	394ac483          	lbu	s1,916(s5)
   1b7f8:	395ac403          	lbu	s0,917(s5)
   1b7fc:	8f4d                	or	a4,a4,a1
   1b7fe:	396ac683          	lbu	a3,918(s5)
   1b802:	397ac503          	lbu	a0,919(s5)
   1b806:	00841593          	slli	a1,s0,0x8
   1b80a:	8dc5                	or	a1,a1,s1
   1b80c:	08e11a23          	sh	a4,148(sp)
   1b810:	08f10b23          	sb	a5,150(sp)
   1b814:	011038b3          	snez	a7,a7
   1b818:	06c2                	slli	a3,a3,0x10
   1b81a:	0562                	slli	a0,a0,0x18
   1b81c:	8d55                	or	a0,a0,a3
   1b81e:	01060563          	beq	a2,a6,1b828 <_start+0xad2>
   1b822:	00728693          	addi	a3,t0,7
   1b826:	a029                	j	1b830 <_start+0xada>
   1b828:	6685                	lui	a3,0x1
   1b82a:	32c68693          	addi	a3,a3,812 # 132c <.Lline_table_start1+0x1101>
   1b82e:	968a                	add	a3,a3,sp
   1b830:	00b56933          	or	s2,a0,a1
   1b834:	01c6ce03          	lbu	t3,28(a3)
   1b838:	01d6cf03          	lbu	t5,29(a3)
   1b83c:	0006c783          	lbu	a5,0(a3)
   1b840:	0016c703          	lbu	a4,1(a3)
   1b844:	0026c303          	lbu	t1,2(a3)
   1b848:	0036c383          	lbu	t2,3(a3)
   1b84c:	0046c283          	lbu	t0,4(a3)
   1b850:	0056ce83          	lbu	t4,5(a3)
   1b854:	0066cb83          	lbu	s7,6(a3)
   1b858:	0076c503          	lbu	a0,7(a3)
   1b85c:	0086c483          	lbu	s1,8(a3)
   1b860:	0096c583          	lbu	a1,9(a3)
   1b864:	00a6cf83          	lbu	t6,10(a3)
   1b868:	00b6ca03          	lbu	s4,11(a3)
   1b86c:	0f22                	slli	t5,t5,0x8
   1b86e:	0722                	slli	a4,a4,0x8
   1b870:	01cf6e33          	or	t3,t5,t3
   1b874:	00f76f33          	or	t5,a4,a5
   1b878:	00c6cb03          	lbu	s6,12(a3)
   1b87c:	00d6cc03          	lbu	s8,13(a3)
   1b880:	00e6c783          	lbu	a5,14(a3)
   1b884:	00f6c403          	lbu	s0,15(a3)
   1b888:	0342                	slli	t1,t1,0x10
   1b88a:	03e2                	slli	t2,t2,0x18
   1b88c:	0ea2                	slli	t4,t4,0x8
   1b88e:	0bc2                	slli	s7,s7,0x10
   1b890:	0562                	slli	a0,a0,0x18
   1b892:	05a2                	slli	a1,a1,0x8
   1b894:	0063e333          	or	t1,t2,t1
   1b898:	005ee2b3          	or	t0,t4,t0
   1b89c:	017563b3          	or	t2,a0,s7
   1b8a0:	0095eeb3          	or	t4,a1,s1
   1b8a4:	0106c583          	lbu	a1,16(a3)
   1b8a8:	0116c503          	lbu	a0,17(a3)
   1b8ac:	0126c483          	lbu	s1,18(a3)
   1b8b0:	0136c703          	lbu	a4,19(a3)
   1b8b4:	0fc2                	slli	t6,t6,0x10
   1b8b6:	0a62                	slli	s4,s4,0x18
   1b8b8:	0c22                	slli	s8,s8,0x8
   1b8ba:	07c2                	slli	a5,a5,0x10
   1b8bc:	0462                	slli	s0,s0,0x18
   1b8be:	0522                	slli	a0,a0,0x8
   1b8c0:	01fa6fb3          	or	t6,s4,t6
   1b8c4:	016c6a33          	or	s4,s8,s6
   1b8c8:	00f46bb3          	or	s7,s0,a5
   1b8cc:	00b56b33          	or	s6,a0,a1
   1b8d0:	0146c583          	lbu	a1,20(a3)
   1b8d4:	0156c403          	lbu	s0,21(a3)
   1b8d8:	0166c503          	lbu	a0,22(a3)
   1b8dc:	0176c783          	lbu	a5,23(a3)
   1b8e0:	04c2                	slli	s1,s1,0x10
   1b8e2:	0762                	slli	a4,a4,0x18
   1b8e4:	0422                	slli	s0,s0,0x8
   1b8e6:	0542                	slli	a0,a0,0x10
   1b8e8:	07e2                	slli	a5,a5,0x18
   1b8ea:	00976cb3          	or	s9,a4,s1
   1b8ee:	00b46c33          	or	s8,s0,a1
   1b8f2:	0186c403          	lbu	s0,24(a3)
   1b8f6:	0196c483          	lbu	s1,25(a3)
   1b8fa:	00a7ed33          	or	s10,a5,a0
   1b8fe:	01a6c783          	lbu	a5,26(a3)
   1b902:	01b6c683          	lbu	a3,27(a3)
   1b906:	04a2                	slli	s1,s1,0x8
   1b908:	8c45                	or	s0,s0,s1
   1b90a:	07c2                	slli	a5,a5,0x10
   1b90c:	06e2                	slli	a3,a3,0x18
   1b90e:	8edd                	or	a3,a3,a5
   1b910:	01e367b3          	or	a5,t1,t5
   1b914:	0053e4b3          	or	s1,t2,t0
   1b918:	01dfe2b3          	or	t0,t6,t4
   1b91c:	014be733          	or	a4,s7,s4
   1b920:	016ce533          	or	a0,s9,s6
   1b924:	018d65b3          	or	a1,s10,s8
   1b928:	8ec1                	or	a3,a3,s0
   1b92a:	d2aa                	sw	a0,100(sp)
   1b92c:	d4ae                	sw	a1,104(sp)
   1b92e:	d6b6                	sw	a3,108(sp)
   1b930:	07c11823          	sh	t3,112(sp)
   1b934:	fff88413          	addi	s0,a7,-1
   1b938:	cabe                	sw	a5,84(sp)
   1b93a:	cca6                	sw	s1,88(sp)
   1b93c:	ce96                	sw	t0,92(sp)
   1b93e:	d0ba                	sw	a4,96(sp)
   1b940:	01060a63          	beq	a2,a6,1b954 <_start+0xbfe>
   1b944:	6505                	lui	a0,0x1
   1b946:	59750513          	addi	a0,a0,1431 # 1597 <.Lline_table_start1+0x136c>
   1b94a:	4581                	li	a1,0
   1b94c:	00004097          	auipc	ra,0x4
   1b950:	258080e7          	jalr	600(ra) # 1fba4 <_ZN9allow_pin12dynamic_type7unshare17hb27555f71d22f3b2E>
   1b954:	3ecac603          	lbu	a2,1004(s5)
   1b958:	4509                	li	a0,2
   1b95a:	01247a33          	and	s4,s0,s2
   1b95e:	00a60a63          	beq	a2,a0,1b972 <_start+0xc1c>
   1b962:	6505                	lui	a0,0x1
   1b964:	59750513          	addi	a0,a0,1431 # 1597 <.Lline_table_start1+0x136c>
   1b968:	459d                	li	a1,7
   1b96a:	00004097          	auipc	ra,0x4
   1b96e:	23a080e7          	jalr	570(ra) # 1fba4 <_ZN9allow_pin12dynamic_type7unshare17hb27555f71d22f3b2E>
   1b972:	00098463          	beqz	s3,1b97a <_start+0xc24>
   1b976:	1820406f          	j	1faf8 <_start+0x4da2>
   1b97a:	09414503          	lbu	a0,148(sp)
   1b97e:	09514583          	lbu	a1,149(sp)
   1b982:	09614603          	lbu	a2,150(sp)
   1b986:	6685                	lui	a3,0x1
   1b988:	38168693          	addi	a3,a3,897 # 1381 <.Lline_table_start1+0x1156>
   1b98c:	00d10933          	add	s2,sp,a3
   1b990:	3eaa86a3          	sb	a0,1005(s5)
   1b994:	3eba8723          	sb	a1,1006(s5)
   1b998:	3eca87a3          	sb	a2,1007(s5)
   1b99c:	4556                	lw	a0,84(sp)
   1b99e:	45e6                	lw	a1,88(sp)
   1b9a0:	4676                	lw	a2,92(sp)
   1b9a2:	5686                	lw	a3,96(sp)
   1b9a4:	c42a                	sw	a0,8(sp)
   1b9a6:	c62e                	sw	a1,12(sp)
   1b9a8:	c832                	sw	a2,16(sp)
   1b9aa:	ca36                	sw	a3,20(sp)
   1b9ac:	5516                	lw	a0,100(sp)
   1b9ae:	55a6                	lw	a1,104(sp)
   1b9b0:	5636                	lw	a2,108(sp)
   1b9b2:	07011683          	lh	a3,112(sp)
   1b9b6:	cc2a                	sw	a0,24(sp)
   1b9b8:	ce2e                	sw	a1,28(sp)
   1b9ba:	d032                	sw	a2,32(sp)
   1b9bc:	02d11223          	sh	a3,36(sp)
   1b9c0:	6505                	lui	a0,0x1
   1b9c2:	38850513          	addi	a0,a0,904 # 1388 <.Lline_table_start1+0x115d>
   1b9c6:	950a                	add	a0,a0,sp
   1b9c8:	002c                	addi	a1,sp,8
   1b9ca:	4679                	li	a2,30
   1b9cc:	00004097          	auipc	ra,0x4
   1b9d0:	250080e7          	jalr	592(ra) # 1fc1c <memcpy>
   1b9d4:	4409                	li	s0,2
   1b9d6:	018a5513          	srli	a0,s4,0x18
   1b9da:	010a5593          	srli	a1,s4,0x10
   1b9de:	3eaa89a3          	sb	a0,1011(s5)
   1b9e2:	008a5513          	srli	a0,s4,0x8
   1b9e6:	3e8a8623          	sb	s0,1004(s5)
   1b9ea:	3f4a8823          	sb	s4,1008(s5)
   1b9ee:	3eaa88a3          	sb	a0,1009(s5)
   1b9f2:	3eba8923          	sb	a1,1010(s5)
   1b9f6:	6505                	lui	a0,0x1
   1b9f8:	32550513          	addi	a0,a0,805 # 1325 <.Lline_table_start1+0x10fa>
   1b9fc:	00a104b3          	add	s1,sp,a0
   1ba00:	4639                	li	a2,14
   1ba02:	8526                	mv	a0,s1
   1ba04:	4581                	li	a1,0
   1ba06:	00004097          	auipc	ra,0x4
   1ba0a:	1aa080e7          	jalr	426(ra) # 1fbb0 <memset>
   1ba0e:	864a                	mv	a2,s2
   1ba10:	388a8823          	sb	s0,912(s5)
   1ba14:	4791                	li	a5,4
   1ba16:	66700513          	li	a0,1639
   1ba1a:	4589                	li	a1,2
   1ba1c:	02500693          	li	a3,37
   1ba20:	4711                	li	a4,4
   1ba22:	00000073          	ecall
   1ba26:	00851463          	bne	a0,s0,1ba2e <_start+0xcd8>
   1ba2a:	8a2e                	mv	s4,a1
   1ba2c:	a019                	j	1ba32 <_start+0xcdc>
   1ba2e:	3efa8623          	sb	a5,1004(s5)
   1ba32:	4589                	li	a1,2
   1ba34:	00b51463          	bne	a0,a1,1ba3c <_start+0xce6>
   1ba38:	4905                	li	s2,1
   1ba3a:	a071                	j	1bac6 <_start+0xd70>
   1ba3c:	390ac503          	lbu	a0,912(s5)
   1ba40:	4905                	li	s2,1
   1ba42:	02b51163          	bne	a0,a1,1ba64 <_start+0xd0e>
   1ba46:	8626                	mv	a2,s1
   1ba48:	66700513          	li	a0,1639
   1ba4c:	45a1                	li	a1,8
   1ba4e:	46b9                	li	a3,14
   1ba50:	470d                	li	a4,3
   1ba52:	4789                	li	a5,2
   1ba54:	00000073          	ecall
   1ba58:	8a2e                	mv	s4,a1
   1ba5a:	458d                	li	a1,3
   1ba5c:	00f51763          	bne	a0,a5,1ba6a <_start+0xd14>
   1ba60:	4505                	li	a0,1
   1ba62:	a039                	j	1ba70 <_start+0xd1a>
   1ba64:	4a0d                	li	s4,3
   1ba66:	4505                	li	a0,1
   1ba68:	a021                	j	1ba70 <_start+0xd1a>
   1ba6a:	4501                	li	a0,0
   1ba6c:	38ba8823          	sb	a1,912(s5)
   1ba70:	e939                	bnez	a0,1bac6 <_start+0xd70>
   1ba72:	4681                	li	a3,0
   1ba74:	66700513          	li	a0,1639
   1ba78:	4589                	li	a1,2
   1ba7a:	4621                	li	a2,8
   1ba7c:	4709                	li	a4,2
   1ba7e:	07f00793          	li	a5,127
   1ba82:	00000073          	ecall
   1ba86:	8a2e                	mv	s4,a1
   1ba88:	4589                	li	a1,2
   1ba8a:	02a7fe63          	bgeu	a5,a0,1bac6 <_start+0xd70>
   1ba8e:	3ecac603          	lbu	a2,1004(s5)
   1ba92:	00b60963          	beq	a2,a1,1baa4 <_start+0xd4e>
   1ba96:	66700513          	li	a0,1639
   1ba9a:	4589                	li	a1,2
   1ba9c:	00004097          	auipc	ra,0x4
   1baa0:	108080e7          	jalr	264(ra) # 1fba4 <_ZN9allow_pin12dynamic_type7unshare17hb27555f71d22f3b2E>
   1baa4:	390ac603          	lbu	a2,912(s5)
   1baa8:	4409                	li	s0,2
   1baaa:	3e8a8623          	sb	s0,1004(s5)
   1baae:	00860963          	beq	a2,s0,1bac0 <_start+0xd6a>
   1bab2:	66700513          	li	a0,1639
   1bab6:	45a1                	li	a1,8
   1bab8:	00004097          	auipc	ra,0x4
   1babc:	0ec080e7          	jalr	236(ra) # 1fba4 <_ZN9allow_pin12dynamic_type7unshare17hb27555f71d22f3b2E>
   1bac0:	4901                	li	s2,0
   1bac2:	388a8823          	sb	s0,912(s5)
   1bac6:	390ac603          	lbu	a2,912(s5)
   1baca:	02090163          	beqz	s2,1baec <_start+0xd96>
   1bace:	4409                	li	s0,2
   1bad0:	00860963          	beq	a2,s0,1bae2 <_start+0xd8c>
   1bad4:	66700513          	li	a0,1639
   1bad8:	45a1                	li	a1,8
   1bada:	00004097          	auipc	ra,0x4
   1bade:	0ca080e7          	jalr	202(ra) # 1fba4 <_ZN9allow_pin12dynamic_type7unshare17hb27555f71d22f3b2E>
   1bae2:	3ecac603          	lbu	a2,1004(s5)
   1bae6:	0c861263          	bne	a2,s0,1bbaa <_start+0xe54>
   1baea:	a0f9                	j	1bbb8 <_start+0xe62>
   1baec:	ffe60293          	addi	t0,a2,-2
   1baf0:	4889                	li	a7,2
   1baf2:	00010837          	lui	a6,0x10
   1baf6:	4e780813          	addi	a6,a6,1255 # 104e7 <.Lanon.49c9f8067fe4468184af16d7576940c9.21>
   1bafa:	01160363          	beq	a2,a7,1bb00 <_start+0xdaa>
   1bafe:	84c2                	mv	s1,a6
   1bb00:	0014c703          	lbu	a4,1(s1)
   1bb04:	0004c783          	lbu	a5,0(s1)
   1bb08:	0024c483          	lbu	s1,2(s1)
   1bb0c:	0722                	slli	a4,a4,0x8
   1bb0e:	394ac403          	lbu	s0,916(s5)
   1bb12:	395ac683          	lbu	a3,917(s5)
   1bb16:	8fd9                	or	a5,a5,a4
   1bb18:	396ac503          	lbu	a0,918(s5)
   1bb1c:	397ac583          	lbu	a1,919(s5)
   1bb20:	06a2                	slli	a3,a3,0x8
   1bb22:	0086e733          	or	a4,a3,s0
   1bb26:	08f11a23          	sh	a5,148(sp)
   1bb2a:	08910b23          	sb	s1,150(sp)
   1bb2e:	005032b3          	snez	t0,t0
   1bb32:	0542                	slli	a0,a0,0x10
   1bb34:	05e2                	slli	a1,a1,0x18
   1bb36:	00a5e4b3          	or	s1,a1,a0
   1bb3a:	01160563          	beq	a2,a7,1bb44 <_start+0xdee>
   1bb3e:	00780693          	addi	a3,a6,7
   1bb42:	a031                	j	1bb4e <_start+0xdf8>
   1bb44:	6505                	lui	a0,0x1
   1bb46:	32c50513          	addi	a0,a0,812 # 132c <.Lline_table_start1+0x1101>
   1bb4a:	00a106b3          	add	a3,sp,a0
   1bb4e:	0056c503          	lbu	a0,5(a3)
   1bb52:	0046c583          	lbu	a1,4(a3)
   1bb56:	8cd9                	or	s1,s1,a4
   1bb58:	0066c703          	lbu	a4,6(a3)
   1bb5c:	0522                	slli	a0,a0,0x8
   1bb5e:	0006c783          	lbu	a5,0(a3)
   1bb62:	0016c403          	lbu	s0,1(a3)
   1bb66:	8d4d                	or	a0,a0,a1
   1bb68:	0026c583          	lbu	a1,2(a3)
   1bb6c:	0036c683          	lbu	a3,3(a3)
   1bb70:	0422                	slli	s0,s0,0x8
   1bb72:	8fc1                	or	a5,a5,s0
   1bb74:	05c2                	slli	a1,a1,0x10
   1bb76:	06e2                	slli	a3,a3,0x18
   1bb78:	8dd5                	or	a1,a1,a3
   1bb7a:	8ddd                	or	a1,a1,a5
   1bb7c:	fff28413          	addi	s0,t0,-1
   1bb80:	caae                	sw	a1,84(sp)
   1bb82:	04a11c23          	sh	a0,88(sp)
   1bb86:	04e10d23          	sb	a4,90(sp)
   1bb8a:	01160963          	beq	a2,a7,1bb9c <_start+0xe46>
   1bb8e:	66700513          	li	a0,1639
   1bb92:	45a1                	li	a1,8
   1bb94:	00004097          	auipc	ra,0x4
   1bb98:	010080e7          	jalr	16(ra) # 1fba4 <_ZN9allow_pin12dynamic_type7unshare17hb27555f71d22f3b2E>
   1bb9c:	3ecac603          	lbu	a2,1004(s5)
   1bba0:	4509                	li	a0,2
   1bba2:	00947a33          	and	s4,s0,s1
   1bba6:	00a60963          	beq	a2,a0,1bbb8 <_start+0xe62>
   1bbaa:	66700513          	li	a0,1639
   1bbae:	4589                	li	a1,2
   1bbb0:	00004097          	auipc	ra,0x4
   1bbb4:	ff4080e7          	jalr	-12(ra) # 1fba4 <_ZN9allow_pin12dynamic_type7unshare17hb27555f71d22f3b2E>
   1bbb8:	00090463          	beqz	s2,1bbc0 <_start+0xe6a>
   1bbbc:	73d0306f          	j	1faf8 <_start+0x4da2>
   1bbc0:	09411503          	lh	a0,148(sp)
   1bbc4:	09614583          	lbu	a1,150(sp)
   1bbc8:	4656                	lw	a2,84(sp)
   1bbca:	05811683          	lh	a3,88(sp)
   1bbce:	05a14703          	lbu	a4,90(sp)
   1bbd2:	018a5793          	srli	a5,s4,0x18
   1bbd6:	010a5493          	srli	s1,s4,0x10
   1bbda:	c432                	sw	a2,8(sp)
   1bbdc:	00d11623          	sh	a3,12(sp)
   1bbe0:	008a5693          	srli	a3,s4,0x8
   1bbe4:	0aa11623          	sh	a0,172(sp)
   1bbe8:	0ab10723          	sb	a1,174(sp)
   1bbec:	0b4107a3          	sb	s4,175(sp)
   1bbf0:	0ad10823          	sb	a3,176(sp)
   1bbf4:	0ae10ca3          	sb	a4,185(sp)
   1bbf8:	00914503          	lbu	a0,9(sp)
   1bbfc:	00a14583          	lbu	a1,10(sp)
   1bc00:	00b14683          	lbu	a3,11(sp)
   1bc04:	00c14703          	lbu	a4,12(sp)
   1bc08:	0a9108a3          	sb	s1,177(sp)
   1bc0c:	0af10923          	sb	a5,178(sp)
   1bc10:	0ac109a3          	sb	a2,179(sp)
   1bc14:	0aa10a23          	sb	a0,180(sp)
   1bc18:	00d14503          	lbu	a0,13(sp)
   1bc1c:	0ab10aa3          	sb	a1,181(sp)
   1bc20:	0ad10b23          	sb	a3,182(sp)
   1bc24:	0ae10ba3          	sb	a4,183(sp)
   1bc28:	0aa10c23          	sb	a0,184(sp)
   1bc2c:	6505                	lui	a0,0x1
   1bc2e:	38050513          	addi	a0,a0,896 # 1380 <.Lline_table_start1+0x1155>
   1bc32:	950a                	add	a0,a0,sp
   1bc34:	116c                	addi	a1,sp,172
   1bc36:	ffffe097          	auipc	ra,0xffffe
   1bc3a:	89a080e7          	jalr	-1894(ra) # 194d0 <_ZN20complex_dynamic_type3app17he225f7851c5ce017E>
   1bc3e:	3ecac403          	lbu	s0,1004(s5)
   1bc42:	c401                	beqz	s0,1bc4a <_start+0xef4>
   1bc44:	3f0aaa03          	lw	s4,1008(s5)
   1bc48:	a835                	j	1bc84 <_start+0xf2e>
   1bc4a:	3eeac503          	lbu	a0,1006(s5)
   1bc4e:	3edac583          	lbu	a1,1005(s5)
   1bc52:	3efac603          	lbu	a2,1007(s5)
   1bc56:	3f0aaa03          	lw	s4,1008(s5)
   1bc5a:	0522                	slli	a0,a0,0x8
   1bc5c:	8d4d                	or	a0,a0,a1
   1bc5e:	00a11423          	sh	a0,8(sp)
   1bc62:	00c10523          	sb	a2,10(sp)
   1bc66:	6505                	lui	a0,0x1
   1bc68:	38850513          	addi	a0,a0,904 # 1388 <.Lline_table_start1+0x115d>
   1bc6c:	00a105b3          	add	a1,sp,a0
   1bc70:	6505                	lui	a0,0x1
   1bc72:	32450513          	addi	a0,a0,804 # 1324 <.Lline_table_start1+0x10f9>
   1bc76:	950a                	add	a0,a0,sp
   1bc78:	04100613          	li	a2,65
   1bc7c:	00004097          	auipc	ra,0x4
   1bc80:	fa0080e7          	jalr	-96(ra) # 1fc1c <memcpy>
   1bc84:	c019                	beqz	s0,1bc8a <_start+0xf34>
   1bc86:	6730306f          	j	1faf8 <_start+0x4da2>
   1bc8a:	00811503          	lh	a0,8(sp)
   1bc8e:	00a14583          	lbu	a1,10(sp)
   1bc92:	018a5613          	srli	a2,s4,0x18
   1bc96:	010a5693          	srli	a3,s4,0x10
   1bc9a:	0ad10fa3          	sb	a3,191(sp)
   1bc9e:	0cc10023          	sb	a2,192(sp)
   1bca2:	008a5613          	srli	a2,s4,0x8
   1bca6:	0aa11d23          	sh	a0,186(sp)
   1bcaa:	0ab10e23          	sb	a1,188(sp)
   1bcae:	0b410ea3          	sb	s4,189(sp)
   1bcb2:	0ac10f23          	sb	a2,190(sp)
   1bcb6:	0c110513          	addi	a0,sp,193
   1bcba:	6585                	lui	a1,0x1
   1bcbc:	32458593          	addi	a1,a1,804 # 1324 <.Lline_table_start1+0x10f9>
   1bcc0:	958a                	add	a1,a1,sp
   1bcc2:	04100613          	li	a2,65
   1bcc6:	00004097          	auipc	ra,0x4
   1bcca:	f56080e7          	jalr	-170(ra) # 1fc1c <memcpy>
   1bcce:	6505                	lui	a0,0x1
   1bcd0:	38050513          	addi	a0,a0,896 # 1380 <.Lline_table_start1+0x1155>
   1bcd4:	950a                	add	a0,a0,sp
   1bcd6:	0ba10593          	addi	a1,sp,186
   1bcda:	ffffb097          	auipc	ra,0xffffb
   1bcde:	176080e7          	jalr	374(ra) # 16e50 <_ZN20complex_dynamic_type3app17h996a9e5b26bf1f18E>
   1bce2:	3ecac603          	lbu	a2,1004(s5)
   1bce6:	c601                	beqz	a2,1bcee <_start+0xf98>
   1bce8:	3f0aaa03          	lw	s4,1008(s5)
   1bcec:	a01d                	j	1bd12 <_start+0xfbc>
   1bcee:	3edac683          	lbu	a3,1005(s5)
   1bcf2:	3eeac703          	lbu	a4,1006(s5)
   1bcf6:	3efac783          	lbu	a5,1007(s5)
   1bcfa:	3f0aaa03          	lw	s4,1008(s5)
   1bcfe:	3f4aa583          	lw	a1,1012(s5)
   1bd02:	3f8aa503          	lw	a0,1016(s5)
   1bd06:	0722                	slli	a4,a4,0x8
   1bd08:	8ed9                	or	a3,a3,a4
   1bd0a:	38da9823          	sh	a3,912(s5)
   1bd0e:	38fa8923          	sb	a5,914(s5)
   1bd12:	c219                	beqz	a2,1bd18 <_start+0xfc2>
   1bd14:	5e50306f          	j	1faf8 <_start+0x4da2>
   1bd18:	390a9803          	lh	a6,912(s5)
   1bd1c:	392ac683          	lbu	a3,914(s5)
   1bd20:	018a5713          	srli	a4,s4,0x18
   1bd24:	010a5793          	srli	a5,s4,0x10
   1bd28:	008a5493          	srli	s1,s4,0x8
   1bd2c:	0085d413          	srli	s0,a1,0x8
   1bd30:	01855613          	srli	a2,a0,0x18
   1bd34:	10f103a3          	sb	a5,263(sp)
   1bd38:	10e10423          	sb	a4,264(sp)
   1bd3c:	10b104a3          	sb	a1,265(sp)
   1bd40:	10810523          	sb	s0,266(sp)
   1bd44:	01055713          	srli	a4,a0,0x10
   1bd48:	10e107a3          	sb	a4,271(sp)
   1bd4c:	10c10823          	sb	a2,272(sp)
   1bd50:	0185d613          	srli	a2,a1,0x18
   1bd54:	81c1                	srli	a1,a1,0x10
   1bd56:	11011123          	sh	a6,258(sp)
   1bd5a:	10d10223          	sb	a3,260(sp)
   1bd5e:	114102a3          	sb	s4,261(sp)
   1bd62:	10910323          	sb	s1,262(sp)
   1bd66:	00855693          	srli	a3,a0,0x8
   1bd6a:	10b105a3          	sb	a1,267(sp)
   1bd6e:	10c10623          	sb	a2,268(sp)
   1bd72:	10a106a3          	sb	a0,269(sp)
   1bd76:	10d10723          	sb	a3,270(sp)
   1bd7a:	6505                	lui	a0,0x1
   1bd7c:	38050513          	addi	a0,a0,896 # 1380 <.Lline_table_start1+0x1155>
   1bd80:	950a                	add	a0,a0,sp
   1bd82:	10210593          	addi	a1,sp,258
   1bd86:	ffff7097          	auipc	ra,0xffff7
   1bd8a:	1a6080e7          	jalr	422(ra) # 12f2c <_ZN20complex_dynamic_type3app17h1a72a712b561e71aE>
   1bd8e:	3ecac503          	lbu	a0,1004(s5)
   1bd92:	c501                	beqz	a0,1bd9a <_start+0x1044>
   1bd94:	3f0aaa03          	lw	s4,1008(s5)
   1bd98:	a8b9                	j	1bdf6 <_start+0x10a0>
   1bd9a:	3edac583          	lbu	a1,1005(s5)
   1bd9e:	3eeac603          	lbu	a2,1006(s5)
   1bda2:	3efac683          	lbu	a3,1007(s5)
   1bda6:	3f0aaa03          	lw	s4,1008(s5)
   1bdaa:	3f4aa703          	lw	a4,1012(s5)
   1bdae:	3f8aa783          	lw	a5,1016(s5)
   1bdb2:	3fcaa483          	lw	s1,1020(s5)
   1bdb6:	400aa403          	lw	s0,1024(s5)
   1bdba:	0622                	slli	a2,a2,0x8
   1bdbc:	38eaa823          	sw	a4,912(s5)
   1bdc0:	38faaa23          	sw	a5,916(s5)
   1bdc4:	389aac23          	sw	s1,920(s5)
   1bdc8:	388aae23          	sw	s0,924(s5)
   1bdcc:	8dd1                	or	a1,a1,a2
   1bdce:	00b11423          	sh	a1,8(sp)
   1bdd2:	00d10523          	sb	a3,10(sp)
   1bdd6:	404aa583          	lw	a1,1028(s5)
   1bdda:	408aa603          	lw	a2,1032(s5)
   1bdde:	40caa683          	lw	a3,1036(s5)
   1bde2:	410a9703          	lh	a4,1040(s5)
   1bde6:	3abaa023          	sw	a1,928(s5)
   1bdea:	3acaa223          	sw	a2,932(s5)
   1bdee:	3adaa423          	sw	a3,936(s5)
   1bdf2:	3aea9623          	sh	a4,940(s5)
   1bdf6:	c119                	beqz	a0,1bdfc <_start+0x10a6>
   1bdf8:	5010306f          	j	1faf8 <_start+0x4da2>
   1bdfc:	00811503          	lh	a0,8(sp)
   1be00:	00a14583          	lbu	a1,10(sp)
   1be04:	018a5613          	srli	a2,s4,0x18
   1be08:	010a5693          	srli	a3,s4,0x10
   1be0c:	10d10ba3          	sb	a3,279(sp)
   1be10:	10c10c23          	sb	a2,280(sp)
   1be14:	008a5613          	srli	a2,s4,0x8
   1be18:	10a11923          	sh	a0,274(sp)
   1be1c:	10b10a23          	sb	a1,276(sp)
   1be20:	11410aa3          	sb	s4,277(sp)
   1be24:	10c10b23          	sb	a2,278(sp)
   1be28:	11910513          	addi	a0,sp,281
   1be2c:	6585                	lui	a1,0x1
   1be2e:	32458593          	addi	a1,a1,804 # 1324 <.Lline_table_start1+0x10f9>
   1be32:	958a                	add	a1,a1,sp
   1be34:	4679                	li	a2,30
   1be36:	00004097          	auipc	ra,0x4
   1be3a:	de6080e7          	jalr	-538(ra) # 1fc1c <memcpy>
   1be3e:	6505                	lui	a0,0x1
   1be40:	38050513          	addi	a0,a0,896 # 1380 <.Lline_table_start1+0x1155>
   1be44:	950a                	add	a0,a0,sp
   1be46:	11210593          	addi	a1,sp,274
   1be4a:	ffffc097          	auipc	ra,0xffffc
   1be4e:	730080e7          	jalr	1840(ra) # 1857a <_ZN20complex_dynamic_type3app17hc67de0c2f55de343E>
   1be52:	3ecac403          	lbu	s0,1004(s5)
   1be56:	c401                	beqz	s0,1be5e <_start+0x1108>
   1be58:	3f0aaa03          	lw	s4,1008(s5)
   1be5c:	a835                	j	1be98 <_start+0x1142>
   1be5e:	3eeac503          	lbu	a0,1006(s5)
   1be62:	3edac583          	lbu	a1,1005(s5)
   1be66:	3efac603          	lbu	a2,1007(s5)
   1be6a:	3f0aaa03          	lw	s4,1008(s5)
   1be6e:	0522                	slli	a0,a0,0x8
   1be70:	8d4d                	or	a0,a0,a1
   1be72:	00a11423          	sh	a0,8(sp)
   1be76:	00c10523          	sb	a2,10(sp)
   1be7a:	6505                	lui	a0,0x1
   1be7c:	38850513          	addi	a0,a0,904 # 1388 <.Lline_table_start1+0x115d>
   1be80:	00a105b3          	add	a1,sp,a0
   1be84:	6505                	lui	a0,0x1
   1be86:	32450513          	addi	a0,a0,804 # 1324 <.Lline_table_start1+0x10f9>
   1be8a:	950a                	add	a0,a0,sp
   1be8c:	02300613          	li	a2,35
   1be90:	00004097          	auipc	ra,0x4
   1be94:	d8c080e7          	jalr	-628(ra) # 1fc1c <memcpy>
   1be98:	c019                	beqz	s0,1be9e <_start+0x1148>
   1be9a:	45f0306f          	j	1faf8 <_start+0x4da2>
   1be9e:	00811503          	lh	a0,8(sp)
   1bea2:	00a14583          	lbu	a1,10(sp)
   1bea6:	018a5613          	srli	a2,s4,0x18
   1beaa:	010a5693          	srli	a3,s4,0x10
   1beae:	12d10ea3          	sb	a3,317(sp)
   1beb2:	12c10f23          	sb	a2,318(sp)
   1beb6:	008a5613          	srli	a2,s4,0x8
   1beba:	12a11c23          	sh	a0,312(sp)
   1bebe:	12b10d23          	sb	a1,314(sp)
   1bec2:	13410da3          	sb	s4,315(sp)
   1bec6:	12c10e23          	sb	a2,316(sp)
   1beca:	13f10513          	addi	a0,sp,319
   1bece:	6585                	lui	a1,0x1
   1bed0:	32458593          	addi	a1,a1,804 # 1324 <.Lline_table_start1+0x10f9>
   1bed4:	958a                	add	a1,a1,sp
   1bed6:	02300613          	li	a2,35
   1beda:	00004097          	auipc	ra,0x4
   1bede:	d42080e7          	jalr	-702(ra) # 1fc1c <memcpy>
   1bee2:	6505                	lui	a0,0x1
   1bee4:	38050513          	addi	a0,a0,896 # 1380 <.Lline_table_start1+0x1155>
   1bee8:	950a                	add	a0,a0,sp
   1beea:	1a2c                	addi	a1,sp,312
   1beec:	ffff6097          	auipc	ra,0xffff6
   1bef0:	3cc080e7          	jalr	972(ra) # 122b8 <_ZN20complex_dynamic_type3app17h06f918c6dc62b13cE>
   1bef4:	3ecac403          	lbu	s0,1004(s5)
   1bef8:	c401                	beqz	s0,1bf00 <_start+0x11aa>
   1befa:	3f0aaa03          	lw	s4,1008(s5)
   1befe:	a835                	j	1bf3a <_start+0x11e4>
   1bf00:	3eeac503          	lbu	a0,1006(s5)
   1bf04:	3edac583          	lbu	a1,1005(s5)
   1bf08:	3efac603          	lbu	a2,1007(s5)
   1bf0c:	3f0aaa03          	lw	s4,1008(s5)
   1bf10:	0522                	slli	a0,a0,0x8
   1bf12:	8d4d                	or	a0,a0,a1
   1bf14:	00a11423          	sh	a0,8(sp)
   1bf18:	00c10523          	sb	a2,10(sp)
   1bf1c:	6505                	lui	a0,0x1
   1bf1e:	38850513          	addi	a0,a0,904 # 1388 <.Lline_table_start1+0x115d>
   1bf22:	00a105b3          	add	a1,sp,a0
   1bf26:	6505                	lui	a0,0x1
   1bf28:	32450513          	addi	a0,a0,804 # 1324 <.Lline_table_start1+0x10f9>
   1bf2c:	950a                	add	a0,a0,sp
   1bf2e:	05c00613          	li	a2,92
   1bf32:	00004097          	auipc	ra,0x4
   1bf36:	cea080e7          	jalr	-790(ra) # 1fc1c <memcpy>
   1bf3a:	c019                	beqz	s0,1bf40 <_start+0x11ea>
   1bf3c:	3bd0306f          	j	1faf8 <_start+0x4da2>
   1bf40:	00811503          	lh	a0,8(sp)
   1bf44:	00a14583          	lbu	a1,10(sp)
   1bf48:	018a5613          	srli	a2,s4,0x18
   1bf4c:	010a5693          	srli	a3,s4,0x10
   1bf50:	16d103a3          	sb	a3,359(sp)
   1bf54:	16c10423          	sb	a2,360(sp)
   1bf58:	008a5613          	srli	a2,s4,0x8
   1bf5c:	16a11123          	sh	a0,354(sp)
   1bf60:	16b10223          	sb	a1,356(sp)
   1bf64:	174102a3          	sb	s4,357(sp)
   1bf68:	16c10323          	sb	a2,358(sp)
   1bf6c:	16910513          	addi	a0,sp,361
   1bf70:	6585                	lui	a1,0x1
   1bf72:	32458593          	addi	a1,a1,804 # 1324 <.Lline_table_start1+0x10f9>
   1bf76:	958a                	add	a1,a1,sp
   1bf78:	05c00613          	li	a2,92
   1bf7c:	00004097          	auipc	ra,0x4
   1bf80:	ca0080e7          	jalr	-864(ra) # 1fc1c <memcpy>
   1bf84:	6505                	lui	a0,0x1
   1bf86:	38050513          	addi	a0,a0,896 # 1380 <.Lline_table_start1+0x1155>
   1bf8a:	950a                	add	a0,a0,sp
   1bf8c:	16210593          	addi	a1,sp,354
   1bf90:	ffffe097          	auipc	ra,0xffffe
   1bf94:	ffa080e7          	jalr	-6(ra) # 19f8a <_ZN20complex_dynamic_type3app17hf26c37e9d46f956dE>
   1bf98:	3ecac503          	lbu	a0,1004(s5)
   1bf9c:	c501                	beqz	a0,1bfa4 <_start+0x124e>
   1bf9e:	3f0aaa03          	lw	s4,1008(s5)
   1bfa2:	a8b9                	j	1c000 <_start+0x12aa>
   1bfa4:	3edac583          	lbu	a1,1005(s5)
   1bfa8:	3eeac603          	lbu	a2,1006(s5)
   1bfac:	3efac683          	lbu	a3,1007(s5)
   1bfb0:	3f0aaa03          	lw	s4,1008(s5)
   1bfb4:	3f4aa703          	lw	a4,1012(s5)
   1bfb8:	3f8aa783          	lw	a5,1016(s5)
   1bfbc:	3fcaa483          	lw	s1,1020(s5)
   1bfc0:	400aa403          	lw	s0,1024(s5)
   1bfc4:	0622                	slli	a2,a2,0x8
   1bfc6:	38eaa823          	sw	a4,912(s5)
   1bfca:	38faaa23          	sw	a5,916(s5)
   1bfce:	389aac23          	sw	s1,920(s5)
   1bfd2:	388aae23          	sw	s0,924(s5)
   1bfd6:	8dd1                	or	a1,a1,a2
   1bfd8:	00b11423          	sh	a1,8(sp)
   1bfdc:	00d10523          	sb	a3,10(sp)
   1bfe0:	404aa583          	lw	a1,1028(s5)
   1bfe4:	408aa603          	lw	a2,1032(s5)
   1bfe8:	40caa683          	lw	a3,1036(s5)
   1bfec:	410aa703          	lw	a4,1040(s5)
   1bff0:	3abaa023          	sw	a1,928(s5)
   1bff4:	3acaa223          	sw	a2,932(s5)
   1bff8:	3adaa423          	sw	a3,936(s5)
   1bffc:	3aeaa623          	sw	a4,940(s5)
   1c000:	c119                	beqz	a0,1c006 <_start+0x12b0>
   1c002:	2f70306f          	j	1faf8 <_start+0x4da2>
   1c006:	00811503          	lh	a0,8(sp)
   1c00a:	00a14583          	lbu	a1,10(sp)
   1c00e:	018a5613          	srli	a2,s4,0x18
   1c012:	010a5693          	srli	a3,s4,0x10
   1c016:	1cd105a3          	sb	a3,459(sp)
   1c01a:	1cc10623          	sb	a2,460(sp)
   1c01e:	008a5613          	srli	a2,s4,0x8
   1c022:	1ca11323          	sh	a0,454(sp)
   1c026:	1cb10423          	sb	a1,456(sp)
   1c02a:	1d4104a3          	sb	s4,457(sp)
   1c02e:	1cc10523          	sb	a2,458(sp)
   1c032:	1cd10513          	addi	a0,sp,461
   1c036:	6585                	lui	a1,0x1
   1c038:	32458593          	addi	a1,a1,804 # 1324 <.Lline_table_start1+0x10f9>
   1c03c:	958a                	add	a1,a1,sp
   1c03e:	02000613          	li	a2,32
   1c042:	00004097          	auipc	ra,0x4
   1c046:	bda080e7          	jalr	-1062(ra) # 1fc1c <memcpy>
   1c04a:	6505                	lui	a0,0x1
   1c04c:	38050513          	addi	a0,a0,896 # 1380 <.Lline_table_start1+0x1155>
   1c050:	950a                	add	a0,a0,sp
   1c052:	1c610593          	addi	a1,sp,454
   1c056:	ffff7097          	auipc	ra,0xffff7
   1c05a:	67e080e7          	jalr	1662(ra) # 136d4 <_ZN20complex_dynamic_type3app17h21a7d13515e41a50E>
   1c05e:	3ecac503          	lbu	a0,1004(s5)
   1c062:	c501                	beqz	a0,1c06a <_start+0x1314>
   1c064:	3f0aaa03          	lw	s4,1008(s5)
   1c068:	a899                	j	1c0be <_start+0x1368>
   1c06a:	3edac583          	lbu	a1,1005(s5)
   1c06e:	3eeac603          	lbu	a2,1006(s5)
   1c072:	3efac683          	lbu	a3,1007(s5)
   1c076:	3f0aaa03          	lw	s4,1008(s5)
   1c07a:	3f4aa703          	lw	a4,1012(s5)
   1c07e:	3f8aa783          	lw	a5,1016(s5)
   1c082:	3fcaa483          	lw	s1,1020(s5)
   1c086:	400aa403          	lw	s0,1024(s5)
   1c08a:	0622                	slli	a2,a2,0x8
   1c08c:	38eaa823          	sw	a4,912(s5)
   1c090:	38faaa23          	sw	a5,916(s5)
   1c094:	389aac23          	sw	s1,920(s5)
   1c098:	388aae23          	sw	s0,924(s5)
   1c09c:	8dd1                	or	a1,a1,a2
   1c09e:	404aa603          	lw	a2,1028(s5)
   1c0a2:	408a9703          	lh	a4,1032(s5)
   1c0a6:	40aac783          	lbu	a5,1034(s5)
   1c0aa:	00b11423          	sh	a1,8(sp)
   1c0ae:	00d10523          	sb	a3,10(sp)
   1c0b2:	3acaa023          	sw	a2,928(s5)
   1c0b6:	3aea9223          	sh	a4,932(s5)
   1c0ba:	3afa8323          	sb	a5,934(s5)
   1c0be:	c119                	beqz	a0,1c0c4 <_start+0x136e>
   1c0c0:	2390306f          	j	1faf8 <_start+0x4da2>
   1c0c4:	00811503          	lh	a0,8(sp)
   1c0c8:	00a14583          	lbu	a1,10(sp)
   1c0cc:	018a5613          	srli	a2,s4,0x18
   1c0d0:	010a5693          	srli	a3,s4,0x10
   1c0d4:	1ed109a3          	sb	a3,499(sp)
   1c0d8:	1ec10a23          	sb	a2,500(sp)
   1c0dc:	008a5613          	srli	a2,s4,0x8
   1c0e0:	1ea11723          	sh	a0,494(sp)
   1c0e4:	1eb10823          	sb	a1,496(sp)
   1c0e8:	1f4108a3          	sb	s4,497(sp)
   1c0ec:	1ec10923          	sb	a2,498(sp)
   1c0f0:	1f510513          	addi	a0,sp,501
   1c0f4:	6585                	lui	a1,0x1
   1c0f6:	32458593          	addi	a1,a1,804 # 1324 <.Lline_table_start1+0x10f9>
   1c0fa:	958a                	add	a1,a1,sp
   1c0fc:	465d                	li	a2,23
   1c0fe:	00004097          	auipc	ra,0x4
   1c102:	b1e080e7          	jalr	-1250(ra) # 1fc1c <memcpy>
   1c106:	6505                	lui	a0,0x1
   1c108:	38050513          	addi	a0,a0,896 # 1380 <.Lline_table_start1+0x1155>
   1c10c:	950a                	add	a0,a0,sp
   1c10e:	1ee10593          	addi	a1,sp,494
   1c112:	ffff8097          	auipc	ra,0xffff8
   1c116:	bf8080e7          	jalr	-1032(ra) # 13d0a <_ZN20complex_dynamic_type3app17h24d6e9add4ba2954E>
   1c11a:	3ecac403          	lbu	s0,1004(s5)
   1c11e:	c401                	beqz	s0,1c126 <_start+0x13d0>
   1c120:	3f0aaa03          	lw	s4,1008(s5)
   1c124:	a835                	j	1c160 <_start+0x140a>
   1c126:	3eeac503          	lbu	a0,1006(s5)
   1c12a:	3edac583          	lbu	a1,1005(s5)
   1c12e:	3efac603          	lbu	a2,1007(s5)
   1c132:	3f0aaa03          	lw	s4,1008(s5)
   1c136:	0522                	slli	a0,a0,0x8
   1c138:	8d4d                	or	a0,a0,a1
   1c13a:	00a11423          	sh	a0,8(sp)
   1c13e:	00c10523          	sb	a2,10(sp)
   1c142:	6505                	lui	a0,0x1
   1c144:	38850513          	addi	a0,a0,904 # 1388 <.Lline_table_start1+0x115d>
   1c148:	00a105b3          	add	a1,sp,a0
   1c14c:	6505                	lui	a0,0x1
   1c14e:	32450513          	addi	a0,a0,804 # 1324 <.Lline_table_start1+0x10f9>
   1c152:	950a                	add	a0,a0,sp
   1c154:	02500613          	li	a2,37
   1c158:	00004097          	auipc	ra,0x4
   1c15c:	ac4080e7          	jalr	-1340(ra) # 1fc1c <memcpy>
   1c160:	c019                	beqz	s0,1c166 <_start+0x1410>
   1c162:	1970306f          	j	1faf8 <_start+0x4da2>
   1c166:	00811503          	lh	a0,8(sp)
   1c16a:	00a14583          	lbu	a1,10(sp)
   1c16e:	018a5613          	srli	a2,s4,0x18
   1c172:	010a5693          	srli	a3,s4,0x10
   1c176:	20d108a3          	sb	a3,529(sp)
   1c17a:	20c10923          	sb	a2,530(sp)
   1c17e:	008a5613          	srli	a2,s4,0x8
   1c182:	20a11623          	sh	a0,524(sp)
   1c186:	20b10723          	sb	a1,526(sp)
   1c18a:	214107a3          	sb	s4,527(sp)
   1c18e:	20c10823          	sb	a2,528(sp)
   1c192:	21310513          	addi	a0,sp,531
   1c196:	6585                	lui	a1,0x1
   1c198:	32458593          	addi	a1,a1,804 # 1324 <.Lline_table_start1+0x10f9>
   1c19c:	958a                	add	a1,a1,sp
   1c19e:	02500613          	li	a2,37
   1c1a2:	00004097          	auipc	ra,0x4
   1c1a6:	a7a080e7          	jalr	-1414(ra) # 1fc1c <memcpy>
   1c1aa:	6505                	lui	a0,0x1
   1c1ac:	38050513          	addi	a0,a0,896 # 1380 <.Lline_table_start1+0x1155>
   1c1b0:	950a                	add	a0,a0,sp
   1c1b2:	046c                	addi	a1,sp,524
   1c1b4:	ffffa097          	auipc	ra,0xffffa
   1c1b8:	04a080e7          	jalr	74(ra) # 161fe <_ZN20complex_dynamic_type3app17h8619865047276f2cE>
   1c1bc:	3ecac503          	lbu	a0,1004(s5)
   1c1c0:	c501                	beqz	a0,1c1c8 <_start+0x1472>
   1c1c2:	3f0aaa03          	lw	s4,1008(s5)
   1c1c6:	a8b9                	j	1c224 <_start+0x14ce>
   1c1c8:	3edac583          	lbu	a1,1005(s5)
   1c1cc:	3eeac603          	lbu	a2,1006(s5)
   1c1d0:	3efac683          	lbu	a3,1007(s5)
   1c1d4:	3f0aaa03          	lw	s4,1008(s5)
   1c1d8:	3f4aa703          	lw	a4,1012(s5)
   1c1dc:	3f8aa783          	lw	a5,1016(s5)
   1c1e0:	3fcaa483          	lw	s1,1020(s5)
   1c1e4:	400aa403          	lw	s0,1024(s5)
   1c1e8:	0622                	slli	a2,a2,0x8
   1c1ea:	38eaa823          	sw	a4,912(s5)
   1c1ee:	38faaa23          	sw	a5,916(s5)
   1c1f2:	389aac23          	sw	s1,920(s5)
   1c1f6:	388aae23          	sw	s0,924(s5)
   1c1fa:	8dd1                	or	a1,a1,a2
   1c1fc:	00b11423          	sh	a1,8(sp)
   1c200:	00d10523          	sb	a3,10(sp)
   1c204:	404aa583          	lw	a1,1028(s5)
   1c208:	408aa603          	lw	a2,1032(s5)
   1c20c:	40caa683          	lw	a3,1036(s5)
   1c210:	410a9703          	lh	a4,1040(s5)
   1c214:	3abaa023          	sw	a1,928(s5)
   1c218:	3acaa223          	sw	a2,932(s5)
   1c21c:	3adaa423          	sw	a3,936(s5)
   1c220:	3aea9623          	sh	a4,940(s5)
   1c224:	c119                	beqz	a0,1c22a <_start+0x14d4>
   1c226:	0d30306f          	j	1faf8 <_start+0x4da2>
   1c22a:	00811503          	lh	a0,8(sp)
   1c22e:	00a14583          	lbu	a1,10(sp)
   1c232:	018a5613          	srli	a2,s4,0x18
   1c236:	010a5693          	srli	a3,s4,0x10
   1c23a:	22d10ea3          	sb	a3,573(sp)
   1c23e:	22c10f23          	sb	a2,574(sp)
   1c242:	008a5613          	srli	a2,s4,0x8
   1c246:	22a11c23          	sh	a0,568(sp)
   1c24a:	22b10d23          	sb	a1,570(sp)
   1c24e:	23410da3          	sb	s4,571(sp)
   1c252:	22c10e23          	sb	a2,572(sp)
   1c256:	23f10513          	addi	a0,sp,575
   1c25a:	6585                	lui	a1,0x1
   1c25c:	32458593          	addi	a1,a1,804 # 1324 <.Lline_table_start1+0x10f9>
   1c260:	958a                	add	a1,a1,sp
   1c262:	4679                	li	a2,30
   1c264:	00004097          	auipc	ra,0x4
   1c268:	9b8080e7          	jalr	-1608(ra) # 1fc1c <memcpy>
   1c26c:	6505                	lui	a0,0x1
   1c26e:	38050513          	addi	a0,a0,896 # 1380 <.Lline_table_start1+0x1155>
   1c272:	950a                	add	a0,a0,sp
   1c274:	1c2c                	addi	a1,sp,568
   1c276:	ffff9097          	auipc	ra,0xffff9
   1c27a:	d0c080e7          	jalr	-756(ra) # 14f82 <_ZN20complex_dynamic_type3app17h63e006453c4b8d8bE>
   1c27e:	3ecac503          	lbu	a0,1004(s5)
   1c282:	c501                	beqz	a0,1c28a <_start+0x1534>
   1c284:	3f0aaa03          	lw	s4,1008(s5)
   1c288:	a099                	j	1c2ce <_start+0x1578>
   1c28a:	3edac583          	lbu	a1,1005(s5)
   1c28e:	3eeac603          	lbu	a2,1006(s5)
   1c292:	3efac683          	lbu	a3,1007(s5)
   1c296:	3f0aaa03          	lw	s4,1008(s5)
   1c29a:	3f4aa703          	lw	a4,1012(s5)
   1c29e:	3f8aa783          	lw	a5,1016(s5)
   1c2a2:	3fcaa483          	lw	s1,1020(s5)
   1c2a6:	400aa403          	lw	s0,1024(s5)
   1c2aa:	38eaa823          	sw	a4,912(s5)
   1c2ae:	38faaa23          	sw	a5,916(s5)
   1c2b2:	389aac23          	sw	s1,920(s5)
   1c2b6:	388aae23          	sw	s0,924(s5)
   1c2ba:	404ac703          	lbu	a4,1028(s5)
   1c2be:	0622                	slli	a2,a2,0x8
   1c2c0:	8dd1                	or	a1,a1,a2
   1c2c2:	00b11423          	sh	a1,8(sp)
   1c2c6:	00d10523          	sb	a3,10(sp)
   1c2ca:	3aea8023          	sb	a4,928(s5)
   1c2ce:	c119                	beqz	a0,1c2d4 <_start+0x157e>
   1c2d0:	0290306f          	j	1faf8 <_start+0x4da2>
   1c2d4:	00811503          	lh	a0,8(sp)
   1c2d8:	00a14583          	lbu	a1,10(sp)
   1c2dc:	018a5613          	srli	a2,s4,0x18
   1c2e0:	010a5693          	srli	a3,s4,0x10
   1c2e4:	26d101a3          	sb	a3,611(sp)
   1c2e8:	26c10223          	sb	a2,612(sp)
   1c2ec:	008a5613          	srli	a2,s4,0x8
   1c2f0:	24a11f23          	sh	a0,606(sp)
   1c2f4:	26b10023          	sb	a1,608(sp)
   1c2f8:	274100a3          	sb	s4,609(sp)
   1c2fc:	26c10123          	sb	a2,610(sp)
   1c300:	26510513          	addi	a0,sp,613
   1c304:	6585                	lui	a1,0x1
   1c306:	32458593          	addi	a1,a1,804 # 1324 <.Lline_table_start1+0x10f9>
   1c30a:	958a                	add	a1,a1,sp
   1c30c:	4645                	li	a2,17
   1c30e:	00004097          	auipc	ra,0x4
   1c312:	90e080e7          	jalr	-1778(ra) # 1fc1c <memcpy>
   1c316:	6505                	lui	a0,0x1
   1c318:	38050513          	addi	a0,a0,896 # 1380 <.Lline_table_start1+0x1155>
   1c31c:	950a                	add	a0,a0,sp
   1c31e:	25e10593          	addi	a1,sp,606
   1c322:	ffffa097          	auipc	ra,0xffffa
   1c326:	1ea080e7          	jalr	490(ra) # 1650c <_ZN20complex_dynamic_type3app17h88e5420801eda168E>
   1c32a:	3ecac403          	lbu	s0,1004(s5)
   1c32e:	c401                	beqz	s0,1c336 <_start+0x15e0>
   1c330:	3f0aaa03          	lw	s4,1008(s5)
   1c334:	a835                	j	1c370 <_start+0x161a>
   1c336:	3eeac503          	lbu	a0,1006(s5)
   1c33a:	3edac583          	lbu	a1,1005(s5)
   1c33e:	3efac603          	lbu	a2,1007(s5)
   1c342:	3f0aaa03          	lw	s4,1008(s5)
   1c346:	0522                	slli	a0,a0,0x8
   1c348:	8d4d                	or	a0,a0,a1
   1c34a:	00a11423          	sh	a0,8(sp)
   1c34e:	00c10523          	sb	a2,10(sp)
   1c352:	6505                	lui	a0,0x1
   1c354:	38850513          	addi	a0,a0,904 # 1388 <.Lline_table_start1+0x115d>
   1c358:	00a105b3          	add	a1,sp,a0
   1c35c:	6505                	lui	a0,0x1
   1c35e:	32450513          	addi	a0,a0,804 # 1324 <.Lline_table_start1+0x10f9>
   1c362:	950a                	add	a0,a0,sp
   1c364:	02f00613          	li	a2,47
   1c368:	00004097          	auipc	ra,0x4
   1c36c:	8b4080e7          	jalr	-1868(ra) # 1fc1c <memcpy>
   1c370:	c019                	beqz	s0,1c376 <_start+0x1620>
   1c372:	7860306f          	j	1faf8 <_start+0x4da2>
   1c376:	00811503          	lh	a0,8(sp)
   1c37a:	00a14583          	lbu	a1,10(sp)
   1c37e:	018a5613          	srli	a2,s4,0x18
   1c382:	010a5693          	srli	a3,s4,0x10
   1c386:	26d10da3          	sb	a3,635(sp)
   1c38a:	26c10e23          	sb	a2,636(sp)
   1c38e:	008a5613          	srli	a2,s4,0x8
   1c392:	26a11b23          	sh	a0,630(sp)
   1c396:	26b10c23          	sb	a1,632(sp)
   1c39a:	27410ca3          	sb	s4,633(sp)
   1c39e:	26c10d23          	sb	a2,634(sp)
   1c3a2:	27d10513          	addi	a0,sp,637
   1c3a6:	6585                	lui	a1,0x1
   1c3a8:	32458593          	addi	a1,a1,804 # 1324 <.Lline_table_start1+0x10f9>
   1c3ac:	958a                	add	a1,a1,sp
   1c3ae:	02f00613          	li	a2,47
   1c3b2:	00004097          	auipc	ra,0x4
   1c3b6:	86a080e7          	jalr	-1942(ra) # 1fc1c <memcpy>
   1c3ba:	6505                	lui	a0,0x1
   1c3bc:	38050513          	addi	a0,a0,896 # 1380 <.Lline_table_start1+0x1155>
   1c3c0:	950a                	add	a0,a0,sp
   1c3c2:	27610593          	addi	a1,sp,630
   1c3c6:	ffffb097          	auipc	ra,0xffffb
   1c3ca:	8fa080e7          	jalr	-1798(ra) # 16cc0 <_ZN20complex_dynamic_type3app17h94aa98822020799bE>
   1c3ce:	3ecac403          	lbu	s0,1004(s5)
   1c3d2:	c401                	beqz	s0,1c3da <_start+0x1684>
   1c3d4:	3f0aaa03          	lw	s4,1008(s5)
   1c3d8:	a835                	j	1c414 <_start+0x16be>
   1c3da:	3eeac503          	lbu	a0,1006(s5)
   1c3de:	3edac583          	lbu	a1,1005(s5)
   1c3e2:	3efac603          	lbu	a2,1007(s5)
   1c3e6:	3f0aaa03          	lw	s4,1008(s5)
   1c3ea:	0522                	slli	a0,a0,0x8
   1c3ec:	8d4d                	or	a0,a0,a1
   1c3ee:	00a11423          	sh	a0,8(sp)
   1c3f2:	00c10523          	sb	a2,10(sp)
   1c3f6:	6505                	lui	a0,0x1
   1c3f8:	38850513          	addi	a0,a0,904 # 1388 <.Lline_table_start1+0x115d>
   1c3fc:	00a105b3          	add	a1,sp,a0
   1c400:	6505                	lui	a0,0x1
   1c402:	32450513          	addi	a0,a0,804 # 1324 <.Lline_table_start1+0x10f9>
   1c406:	950a                	add	a0,a0,sp
   1c408:	02d00613          	li	a2,45
   1c40c:	00004097          	auipc	ra,0x4
   1c410:	810080e7          	jalr	-2032(ra) # 1fc1c <memcpy>
   1c414:	c019                	beqz	s0,1c41a <_start+0x16c4>
   1c416:	6e20306f          	j	1faf8 <_start+0x4da2>
   1c41a:	00811503          	lh	a0,8(sp)
   1c41e:	00a14583          	lbu	a1,10(sp)
   1c422:	018a5613          	srli	a2,s4,0x18
   1c426:	010a5693          	srli	a3,s4,0x10
   1c42a:	2ad108a3          	sb	a3,689(sp)
   1c42e:	2ac10923          	sb	a2,690(sp)
   1c432:	008a5613          	srli	a2,s4,0x8
   1c436:	2aa11623          	sh	a0,684(sp)
   1c43a:	2ab10723          	sb	a1,686(sp)
   1c43e:	2b4107a3          	sb	s4,687(sp)
   1c442:	2ac10823          	sb	a2,688(sp)
   1c446:	2b310513          	addi	a0,sp,691
   1c44a:	6585                	lui	a1,0x1
   1c44c:	32458593          	addi	a1,a1,804 # 1324 <.Lline_table_start1+0x10f9>
   1c450:	958a                	add	a1,a1,sp
   1c452:	02d00613          	li	a2,45
   1c456:	00003097          	auipc	ra,0x3
   1c45a:	7c6080e7          	jalr	1990(ra) # 1fc1c <memcpy>
   1c45e:	6505                	lui	a0,0x1
   1c460:	38050513          	addi	a0,a0,896 # 1380 <.Lline_table_start1+0x1155>
   1c464:	950a                	add	a0,a0,sp
   1c466:	156c                	addi	a1,sp,684
   1c468:	ffffb097          	auipc	ra,0xffffb
   1c46c:	1aa080e7          	jalr	426(ra) # 17612 <_ZN20complex_dynamic_type3app17ha6b06e1478a0267fE>
   1c470:	3ecac403          	lbu	s0,1004(s5)
   1c474:	c401                	beqz	s0,1c47c <_start+0x1726>
   1c476:	3f0aaa03          	lw	s4,1008(s5)
   1c47a:	a835                	j	1c4b6 <_start+0x1760>
   1c47c:	3eeac503          	lbu	a0,1006(s5)
   1c480:	3edac583          	lbu	a1,1005(s5)
   1c484:	3efac603          	lbu	a2,1007(s5)
   1c488:	3f0aaa03          	lw	s4,1008(s5)
   1c48c:	0522                	slli	a0,a0,0x8
   1c48e:	8d4d                	or	a0,a0,a1
   1c490:	00a11423          	sh	a0,8(sp)
   1c494:	00c10523          	sb	a2,10(sp)
   1c498:	6505                	lui	a0,0x1
   1c49a:	38850513          	addi	a0,a0,904 # 1388 <.Lline_table_start1+0x115d>
   1c49e:	00a105b3          	add	a1,sp,a0
   1c4a2:	6505                	lui	a0,0x1
   1c4a4:	32450513          	addi	a0,a0,804 # 1324 <.Lline_table_start1+0x10f9>
   1c4a8:	950a                	add	a0,a0,sp
   1c4aa:	02700613          	li	a2,39
   1c4ae:	00003097          	auipc	ra,0x3
   1c4b2:	76e080e7          	jalr	1902(ra) # 1fc1c <memcpy>
   1c4b6:	c019                	beqz	s0,1c4bc <_start+0x1766>
   1c4b8:	6400306f          	j	1faf8 <_start+0x4da2>
   1c4bc:	00811503          	lh	a0,8(sp)
   1c4c0:	00a14583          	lbu	a1,10(sp)
   1c4c4:	018a5613          	srli	a2,s4,0x18
   1c4c8:	010a5693          	srli	a3,s4,0x10
   1c4cc:	2ed102a3          	sb	a3,741(sp)
   1c4d0:	2ec10323          	sb	a2,742(sp)
   1c4d4:	008a5613          	srli	a2,s4,0x8
   1c4d8:	2ea11023          	sh	a0,736(sp)
   1c4dc:	2eb10123          	sb	a1,738(sp)
   1c4e0:	2f4101a3          	sb	s4,739(sp)
   1c4e4:	2ec10223          	sb	a2,740(sp)
   1c4e8:	2e710513          	addi	a0,sp,743
   1c4ec:	6585                	lui	a1,0x1
   1c4ee:	32458593          	addi	a1,a1,804 # 1324 <.Lline_table_start1+0x10f9>
   1c4f2:	958a                	add	a1,a1,sp
   1c4f4:	02700613          	li	a2,39
   1c4f8:	00003097          	auipc	ra,0x3
   1c4fc:	724080e7          	jalr	1828(ra) # 1fc1c <memcpy>
   1c500:	6505                	lui	a0,0x1
   1c502:	38050513          	addi	a0,a0,896 # 1380 <.Lline_table_start1+0x1155>
   1c506:	950a                	add	a0,a0,sp
   1c508:	158c                	addi	a1,sp,736
   1c50a:	ffffd097          	auipc	ra,0xffffd
   1c50e:	808080e7          	jalr	-2040(ra) # 18d12 <_ZN20complex_dynamic_type3app17hda7c3fe12fc41765E>
   1c512:	3ecac403          	lbu	s0,1004(s5)
   1c516:	c401                	beqz	s0,1c51e <_start+0x17c8>
   1c518:	3f0aaa03          	lw	s4,1008(s5)
   1c51c:	a835                	j	1c558 <_start+0x1802>
   1c51e:	3eeac503          	lbu	a0,1006(s5)
   1c522:	3edac583          	lbu	a1,1005(s5)
   1c526:	3efac603          	lbu	a2,1007(s5)
   1c52a:	3f0aaa03          	lw	s4,1008(s5)
   1c52e:	0522                	slli	a0,a0,0x8
   1c530:	8d4d                	or	a0,a0,a1
   1c532:	00a11423          	sh	a0,8(sp)
   1c536:	00c10523          	sb	a2,10(sp)
   1c53a:	6505                	lui	a0,0x1
   1c53c:	38850513          	addi	a0,a0,904 # 1388 <.Lline_table_start1+0x115d>
   1c540:	00a105b3          	add	a1,sp,a0
   1c544:	6505                	lui	a0,0x1
   1c546:	32450513          	addi	a0,a0,804 # 1324 <.Lline_table_start1+0x10f9>
   1c54a:	950a                	add	a0,a0,sp
   1c54c:	03100613          	li	a2,49
   1c550:	00003097          	auipc	ra,0x3
   1c554:	6cc080e7          	jalr	1740(ra) # 1fc1c <memcpy>
   1c558:	c019                	beqz	s0,1c55e <_start+0x1808>
   1c55a:	59e0306f          	j	1faf8 <_start+0x4da2>
   1c55e:	00811503          	lh	a0,8(sp)
   1c562:	00a14583          	lbu	a1,10(sp)
   1c566:	018a5613          	srli	a2,s4,0x18
   1c56a:	010a5693          	srli	a3,s4,0x10
   1c56e:	30d109a3          	sb	a3,787(sp)
   1c572:	30c10a23          	sb	a2,788(sp)
   1c576:	008a5613          	srli	a2,s4,0x8
   1c57a:	30a11723          	sh	a0,782(sp)
   1c57e:	30b10823          	sb	a1,784(sp)
   1c582:	314108a3          	sb	s4,785(sp)
   1c586:	30c10923          	sb	a2,786(sp)
   1c58a:	31510513          	addi	a0,sp,789
   1c58e:	6585                	lui	a1,0x1
   1c590:	32458593          	addi	a1,a1,804 # 1324 <.Lline_table_start1+0x10f9>
   1c594:	958a                	add	a1,a1,sp
   1c596:	03100613          	li	a2,49
   1c59a:	00003097          	auipc	ra,0x3
   1c59e:	682080e7          	jalr	1666(ra) # 1fc1c <memcpy>
   1c5a2:	6505                	lui	a0,0x1
   1c5a4:	38050513          	addi	a0,a0,896 # 1380 <.Lline_table_start1+0x1155>
   1c5a8:	950a                	add	a0,a0,sp
   1c5aa:	30e10593          	addi	a1,sp,782
   1c5ae:	ffffc097          	auipc	ra,0xffffc
   1c5b2:	e4c080e7          	jalr	-436(ra) # 183fa <_ZN20complex_dynamic_type3app17hc53da207678c35a2E>
   1c5b6:	3ecac403          	lbu	s0,1004(s5)
   1c5ba:	c401                	beqz	s0,1c5c2 <_start+0x186c>
   1c5bc:	3f0aaa03          	lw	s4,1008(s5)
   1c5c0:	a835                	j	1c5fc <_start+0x18a6>
   1c5c2:	3eeac503          	lbu	a0,1006(s5)
   1c5c6:	3edac583          	lbu	a1,1005(s5)
   1c5ca:	3efac603          	lbu	a2,1007(s5)
   1c5ce:	3f0aaa03          	lw	s4,1008(s5)
   1c5d2:	0522                	slli	a0,a0,0x8
   1c5d4:	8d4d                	or	a0,a0,a1
   1c5d6:	00a11423          	sh	a0,8(sp)
   1c5da:	00c10523          	sb	a2,10(sp)
   1c5de:	6505                	lui	a0,0x1
   1c5e0:	38850513          	addi	a0,a0,904 # 1388 <.Lline_table_start1+0x115d>
   1c5e4:	00a105b3          	add	a1,sp,a0
   1c5e8:	6505                	lui	a0,0x1
   1c5ea:	32450513          	addi	a0,a0,804 # 1324 <.Lline_table_start1+0x10f9>
   1c5ee:	950a                	add	a0,a0,sp
   1c5f0:	02d00613          	li	a2,45
   1c5f4:	00003097          	auipc	ra,0x3
   1c5f8:	628080e7          	jalr	1576(ra) # 1fc1c <memcpy>
   1c5fc:	c019                	beqz	s0,1c602 <_start+0x18ac>
   1c5fe:	4fa0306f          	j	1faf8 <_start+0x4da2>
   1c602:	00811503          	lh	a0,8(sp)
   1c606:	00a14583          	lbu	a1,10(sp)
   1c60a:	018a5613          	srli	a2,s4,0x18
   1c60e:	010a5693          	srli	a3,s4,0x10
   1c612:	34d105a3          	sb	a3,843(sp)
   1c616:	34c10623          	sb	a2,844(sp)
   1c61a:	008a5613          	srli	a2,s4,0x8
   1c61e:	34a11323          	sh	a0,838(sp)
   1c622:	34b10423          	sb	a1,840(sp)
   1c626:	354104a3          	sb	s4,841(sp)
   1c62a:	34c10523          	sb	a2,842(sp)
   1c62e:	34d10513          	addi	a0,sp,845
   1c632:	6585                	lui	a1,0x1
   1c634:	32458593          	addi	a1,a1,804 # 1324 <.Lline_table_start1+0x10f9>
   1c638:	958a                	add	a1,a1,sp
   1c63a:	02d00613          	li	a2,45
   1c63e:	00003097          	auipc	ra,0x3
   1c642:	5de080e7          	jalr	1502(ra) # 1fc1c <memcpy>
   1c646:	6505                	lui	a0,0x1
   1c648:	38050513          	addi	a0,a0,896 # 1380 <.Lline_table_start1+0x1155>
   1c64c:	950a                	add	a0,a0,sp
   1c64e:	34610593          	addi	a1,sp,838
   1c652:	ffff8097          	auipc	ra,0xffff8
   1c656:	e6c080e7          	jalr	-404(ra) # 144be <_ZN20complex_dynamic_type3app17h447baa7d6b90b092E>
   1c65a:	3ecac503          	lbu	a0,1004(s5)
   1c65e:	c501                	beqz	a0,1c666 <_start+0x1910>
   1c660:	3f0aaa03          	lw	s4,1008(s5)
   1c664:	a0b9                	j	1c6b2 <_start+0x195c>
   1c666:	3edac583          	lbu	a1,1005(s5)
   1c66a:	3eeac603          	lbu	a2,1006(s5)
   1c66e:	3efac683          	lbu	a3,1007(s5)
   1c672:	3f0aaa03          	lw	s4,1008(s5)
   1c676:	3f4aa703          	lw	a4,1012(s5)
   1c67a:	3f8aa783          	lw	a5,1016(s5)
   1c67e:	3fcaa483          	lw	s1,1020(s5)
   1c682:	400aa403          	lw	s0,1024(s5)
   1c686:	0622                	slli	a2,a2,0x8
   1c688:	38eaa823          	sw	a4,912(s5)
   1c68c:	38faaa23          	sw	a5,916(s5)
   1c690:	389aac23          	sw	s1,920(s5)
   1c694:	388aae23          	sw	s0,924(s5)
   1c698:	8dd1                	or	a1,a1,a2
   1c69a:	404a9603          	lh	a2,1028(s5)
   1c69e:	406ac703          	lbu	a4,1030(s5)
   1c6a2:	00b11423          	sh	a1,8(sp)
   1c6a6:	00d10523          	sb	a3,10(sp)
   1c6aa:	3aca9023          	sh	a2,928(s5)
   1c6ae:	3aea8123          	sb	a4,930(s5)
   1c6b2:	c119                	beqz	a0,1c6b8 <_start+0x1962>
   1c6b4:	4440306f          	j	1faf8 <_start+0x4da2>
   1c6b8:	00811503          	lh	a0,8(sp)
   1c6bc:	00a14583          	lbu	a1,10(sp)
   1c6c0:	018a5613          	srli	a2,s4,0x18
   1c6c4:	010a5693          	srli	a3,s4,0x10
   1c6c8:	36d10fa3          	sb	a3,895(sp)
   1c6cc:	38c10023          	sb	a2,896(sp)
   1c6d0:	008a5613          	srli	a2,s4,0x8
   1c6d4:	36a11d23          	sh	a0,890(sp)
   1c6d8:	36b10e23          	sb	a1,892(sp)
   1c6dc:	37410ea3          	sb	s4,893(sp)
   1c6e0:	36c10f23          	sb	a2,894(sp)
   1c6e4:	38110513          	addi	a0,sp,897
   1c6e8:	6585                	lui	a1,0x1
   1c6ea:	32458593          	addi	a1,a1,804 # 1324 <.Lline_table_start1+0x10f9>
   1c6ee:	958a                	add	a1,a1,sp
   1c6f0:	464d                	li	a2,19
   1c6f2:	00003097          	auipc	ra,0x3
   1c6f6:	52a080e7          	jalr	1322(ra) # 1fc1c <memcpy>
   1c6fa:	6505                	lui	a0,0x1
   1c6fc:	38050513          	addi	a0,a0,896 # 1380 <.Lline_table_start1+0x1155>
   1c700:	950a                	add	a0,a0,sp
   1c702:	37a10593          	addi	a1,sp,890
   1c706:	ffff6097          	auipc	ra,0xffff6
   1c70a:	05e080e7          	jalr	94(ra) # 12764 <_ZN20complex_dynamic_type3app17h0d3f07f7d28fbd80E>
   1c70e:	3ecac403          	lbu	s0,1004(s5)
   1c712:	c401                	beqz	s0,1c71a <_start+0x19c4>
   1c714:	3f0aaa03          	lw	s4,1008(s5)
   1c718:	a835                	j	1c754 <_start+0x19fe>
   1c71a:	3eeac503          	lbu	a0,1006(s5)
   1c71e:	3edac583          	lbu	a1,1005(s5)
   1c722:	3efac603          	lbu	a2,1007(s5)
   1c726:	3f0aaa03          	lw	s4,1008(s5)
   1c72a:	0522                	slli	a0,a0,0x8
   1c72c:	8d4d                	or	a0,a0,a1
   1c72e:	00a11423          	sh	a0,8(sp)
   1c732:	00c10523          	sb	a2,10(sp)
   1c736:	6505                	lui	a0,0x1
   1c738:	38850513          	addi	a0,a0,904 # 1388 <.Lline_table_start1+0x115d>
   1c73c:	00a105b3          	add	a1,sp,a0
   1c740:	6505                	lui	a0,0x1
   1c742:	32450513          	addi	a0,a0,804 # 1324 <.Lline_table_start1+0x10f9>
   1c746:	950a                	add	a0,a0,sp
   1c748:	04900613          	li	a2,73
   1c74c:	00003097          	auipc	ra,0x3
   1c750:	4d0080e7          	jalr	1232(ra) # 1fc1c <memcpy>
   1c754:	c019                	beqz	s0,1c75a <_start+0x1a04>
   1c756:	3a20306f          	j	1faf8 <_start+0x4da2>
   1c75a:	00811503          	lh	a0,8(sp)
   1c75e:	00a14583          	lbu	a1,10(sp)
   1c762:	018a5613          	srli	a2,s4,0x18
   1c766:	010a5693          	srli	a3,s4,0x10
   1c76a:	38d10ca3          	sb	a3,921(sp)
   1c76e:	38c10d23          	sb	a2,922(sp)
   1c772:	008a5613          	srli	a2,s4,0x8
   1c776:	38a11a23          	sh	a0,916(sp)
   1c77a:	38b10b23          	sb	a1,918(sp)
   1c77e:	39410ba3          	sb	s4,919(sp)
   1c782:	38c10c23          	sb	a2,920(sp)
   1c786:	39b10513          	addi	a0,sp,923
   1c78a:	6585                	lui	a1,0x1
   1c78c:	32458593          	addi	a1,a1,804 # 1324 <.Lline_table_start1+0x10f9>
   1c790:	958a                	add	a1,a1,sp
   1c792:	04900613          	li	a2,73
   1c796:	00003097          	auipc	ra,0x3
   1c79a:	486080e7          	jalr	1158(ra) # 1fc1c <memcpy>
   1c79e:	6505                	lui	a0,0x1
   1c7a0:	38050513          	addi	a0,a0,896 # 1380 <.Lline_table_start1+0x1155>
   1c7a4:	950a                	add	a0,a0,sp
   1c7a6:	0f4c                	addi	a1,sp,916
   1c7a8:	ffffc097          	auipc	ra,0xffffc
   1c7ac:	0dc080e7          	jalr	220(ra) # 18884 <_ZN20complex_dynamic_type3app17hc9ae79c398a2a908E>
   1c7b0:	3ecac403          	lbu	s0,1004(s5)
   1c7b4:	c401                	beqz	s0,1c7bc <_start+0x1a66>
   1c7b6:	3f0aaa03          	lw	s4,1008(s5)
   1c7ba:	a835                	j	1c7f6 <_start+0x1aa0>
   1c7bc:	3eeac503          	lbu	a0,1006(s5)
   1c7c0:	3edac583          	lbu	a1,1005(s5)
   1c7c4:	3efac603          	lbu	a2,1007(s5)
   1c7c8:	3f0aaa03          	lw	s4,1008(s5)
   1c7cc:	0522                	slli	a0,a0,0x8
   1c7ce:	8d4d                	or	a0,a0,a1
   1c7d0:	00a11423          	sh	a0,8(sp)
   1c7d4:	00c10523          	sb	a2,10(sp)
   1c7d8:	6505                	lui	a0,0x1
   1c7da:	38850513          	addi	a0,a0,904 # 1388 <.Lline_table_start1+0x115d>
   1c7de:	00a105b3          	add	a1,sp,a0
   1c7e2:	6505                	lui	a0,0x1
   1c7e4:	32450513          	addi	a0,a0,804 # 1324 <.Lline_table_start1+0x10f9>
   1c7e8:	950a                	add	a0,a0,sp
   1c7ea:	03500613          	li	a2,53
   1c7ee:	00003097          	auipc	ra,0x3
   1c7f2:	42e080e7          	jalr	1070(ra) # 1fc1c <memcpy>
   1c7f6:	c019                	beqz	s0,1c7fc <_start+0x1aa6>
   1c7f8:	3000306f          	j	1faf8 <_start+0x4da2>
   1c7fc:	00811503          	lh	a0,8(sp)
   1c800:	00a14583          	lbu	a1,10(sp)
   1c804:	018a5613          	srli	a2,s4,0x18
   1c808:	010a5693          	srli	a3,s4,0x10
   1c80c:	3ed104a3          	sb	a3,1001(sp)
   1c810:	3ec10523          	sb	a2,1002(sp)
   1c814:	008a5613          	srli	a2,s4,0x8
   1c818:	3ea11223          	sh	a0,996(sp)
   1c81c:	3eb10323          	sb	a1,998(sp)
   1c820:	3f4103a3          	sb	s4,999(sp)
   1c824:	3ec10423          	sb	a2,1000(sp)
   1c828:	3eb10513          	addi	a0,sp,1003
   1c82c:	6585                	lui	a1,0x1
   1c82e:	32458593          	addi	a1,a1,804 # 1324 <.Lline_table_start1+0x10f9>
   1c832:	958a                	add	a1,a1,sp
   1c834:	03500613          	li	a2,53
   1c838:	00003097          	auipc	ra,0x3
   1c83c:	3e4080e7          	jalr	996(ra) # 1fc1c <memcpy>
   1c840:	6505                	lui	a0,0x1
   1c842:	38050513          	addi	a0,a0,896 # 1380 <.Lline_table_start1+0x1155>
   1c846:	950a                	add	a0,a0,sp
   1c848:	17cc                	addi	a1,sp,996
   1c84a:	ffff9097          	auipc	ra,0xffff9
   1c84e:	072080e7          	jalr	114(ra) # 158bc <_ZN20complex_dynamic_type3app17h758c442fdae9f98cE>
   1c852:	3ecac403          	lbu	s0,1004(s5)
   1c856:	c401                	beqz	s0,1c85e <_start+0x1b08>
   1c858:	3f0aaa03          	lw	s4,1008(s5)
   1c85c:	a835                	j	1c898 <_start+0x1b42>
   1c85e:	3eeac503          	lbu	a0,1006(s5)
   1c862:	3edac583          	lbu	a1,1005(s5)
   1c866:	3efac603          	lbu	a2,1007(s5)
   1c86a:	3f0aaa03          	lw	s4,1008(s5)
   1c86e:	0522                	slli	a0,a0,0x8
   1c870:	8d4d                	or	a0,a0,a1
   1c872:	00a11423          	sh	a0,8(sp)
   1c876:	00c10523          	sb	a2,10(sp)
   1c87a:	6505                	lui	a0,0x1
   1c87c:	38850513          	addi	a0,a0,904 # 1388 <.Lline_table_start1+0x115d>
   1c880:	00a105b3          	add	a1,sp,a0
   1c884:	6505                	lui	a0,0x1
   1c886:	32450513          	addi	a0,a0,804 # 1324 <.Lline_table_start1+0x10f9>
   1c88a:	950a                	add	a0,a0,sp
   1c88c:	02b00613          	li	a2,43
   1c890:	00003097          	auipc	ra,0x3
   1c894:	38c080e7          	jalr	908(ra) # 1fc1c <memcpy>
   1c898:	c019                	beqz	s0,1c89e <_start+0x1b48>
   1c89a:	25e0306f          	j	1faf8 <_start+0x4da2>
   1c89e:	00811503          	lh	a0,8(sp)
   1c8a2:	00a14583          	lbu	a1,10(sp)
   1c8a6:	018a5613          	srli	a2,s4,0x18
   1c8aa:	010a5693          	srli	a3,s4,0x10
   1c8ae:	42d102a3          	sb	a3,1061(sp)
   1c8b2:	42c10323          	sb	a2,1062(sp)
   1c8b6:	008a5613          	srli	a2,s4,0x8
   1c8ba:	42a11023          	sh	a0,1056(sp)
   1c8be:	42b10123          	sb	a1,1058(sp)
   1c8c2:	434101a3          	sb	s4,1059(sp)
   1c8c6:	42c10223          	sb	a2,1060(sp)
   1c8ca:	42710513          	addi	a0,sp,1063
   1c8ce:	6585                	lui	a1,0x1
   1c8d0:	32458593          	addi	a1,a1,804 # 1324 <.Lline_table_start1+0x10f9>
   1c8d4:	958a                	add	a1,a1,sp
   1c8d6:	02b00613          	li	a2,43
   1c8da:	00003097          	auipc	ra,0x3
   1c8de:	342080e7          	jalr	834(ra) # 1fc1c <memcpy>
   1c8e2:	6505                	lui	a0,0x1
   1c8e4:	38050513          	addi	a0,a0,896 # 1380 <.Lline_table_start1+0x1155>
   1c8e8:	950a                	add	a0,a0,sp
   1c8ea:	42010593          	addi	a1,sp,1056
   1c8ee:	ffff9097          	auipc	ra,0xffff9
   1c8f2:	cb4080e7          	jalr	-844(ra) # 155a2 <_ZN20complex_dynamic_type3app17h705d48f8cc2f5148E>
   1c8f6:	3ecac403          	lbu	s0,1004(s5)
   1c8fa:	c401                	beqz	s0,1c902 <_start+0x1bac>
   1c8fc:	3f0aaa03          	lw	s4,1008(s5)
   1c900:	a835                	j	1c93c <_start+0x1be6>
   1c902:	3eeac503          	lbu	a0,1006(s5)
   1c906:	3edac583          	lbu	a1,1005(s5)
   1c90a:	3efac603          	lbu	a2,1007(s5)
   1c90e:	3f0aaa03          	lw	s4,1008(s5)
   1c912:	0522                	slli	a0,a0,0x8
   1c914:	8d4d                	or	a0,a0,a1
   1c916:	00a11423          	sh	a0,8(sp)
   1c91a:	00c10523          	sb	a2,10(sp)
   1c91e:	6505                	lui	a0,0x1
   1c920:	38850513          	addi	a0,a0,904 # 1388 <.Lline_table_start1+0x115d>
   1c924:	00a105b3          	add	a1,sp,a0
   1c928:	6505                	lui	a0,0x1
   1c92a:	32450513          	addi	a0,a0,804 # 1324 <.Lline_table_start1+0x10f9>
   1c92e:	950a                	add	a0,a0,sp
   1c930:	02b00613          	li	a2,43
   1c934:	00003097          	auipc	ra,0x3
   1c938:	2e8080e7          	jalr	744(ra) # 1fc1c <memcpy>
   1c93c:	c019                	beqz	s0,1c942 <_start+0x1bec>
   1c93e:	1ba0306f          	j	1faf8 <_start+0x4da2>
   1c942:	00811503          	lh	a0,8(sp)
   1c946:	00a14583          	lbu	a1,10(sp)
   1c94a:	018a5613          	srli	a2,s4,0x18
   1c94e:	010a5693          	srli	a3,s4,0x10
   1c952:	44d10ba3          	sb	a3,1111(sp)
   1c956:	44c10c23          	sb	a2,1112(sp)
   1c95a:	008a5613          	srli	a2,s4,0x8
   1c95e:	44a11923          	sh	a0,1106(sp)
   1c962:	44b10a23          	sb	a1,1108(sp)
   1c966:	45410aa3          	sb	s4,1109(sp)
   1c96a:	44c10b23          	sb	a2,1110(sp)
   1c96e:	45910513          	addi	a0,sp,1113
   1c972:	6585                	lui	a1,0x1
   1c974:	32458593          	addi	a1,a1,804 # 1324 <.Lline_table_start1+0x10f9>
   1c978:	958a                	add	a1,a1,sp
   1c97a:	02b00613          	li	a2,43
   1c97e:	00003097          	auipc	ra,0x3
   1c982:	29e080e7          	jalr	670(ra) # 1fc1c <memcpy>
   1c986:	6505                	lui	a0,0x1
   1c988:	38050513          	addi	a0,a0,896 # 1380 <.Lline_table_start1+0x1155>
   1c98c:	950a                	add	a0,a0,sp
   1c98e:	45210593          	addi	a1,sp,1106
   1c992:	ffff5097          	auipc	ra,0xffff5
   1c996:	492080e7          	jalr	1170(ra) # 11e24 <_ZN20complex_dynamic_type3app17h03a21d4557357097E>
   1c99a:	3ecac503          	lbu	a0,1004(s5)
   1c99e:	c501                	beqz	a0,1c9a6 <_start+0x1c50>
   1c9a0:	3f0aaa03          	lw	s4,1008(s5)
   1c9a4:	a81d                	j	1c9da <_start+0x1c84>
   1c9a6:	3eeac583          	lbu	a1,1006(s5)
   1c9aa:	3edac603          	lbu	a2,1005(s5)
   1c9ae:	3efac683          	lbu	a3,1007(s5)
   1c9b2:	3f0aaa03          	lw	s4,1008(s5)
   1c9b6:	05a2                	slli	a1,a1,0x8
   1c9b8:	8dd1                	or	a1,a1,a2
   1c9ba:	3f4aa603          	lw	a2,1012(s5)
   1c9be:	3f8aa703          	lw	a4,1016(s5)
   1c9c2:	3fcac783          	lbu	a5,1020(s5)
   1c9c6:	00b11423          	sh	a1,8(sp)
   1c9ca:	00d10523          	sb	a3,10(sp)
   1c9ce:	38caa823          	sw	a2,912(s5)
   1c9d2:	38eaaa23          	sw	a4,916(s5)
   1c9d6:	38fa8c23          	sb	a5,920(s5)
   1c9da:	c119                	beqz	a0,1c9e0 <_start+0x1c8a>
   1c9dc:	11c0306f          	j	1faf8 <_start+0x4da2>
   1c9e0:	00811503          	lh	a0,8(sp)
   1c9e4:	00a14583          	lbu	a1,10(sp)
   1c9e8:	018a5613          	srli	a2,s4,0x18
   1c9ec:	010a5693          	srli	a3,s4,0x10
   1c9f0:	48d104a3          	sb	a3,1161(sp)
   1c9f4:	48c10523          	sb	a2,1162(sp)
   1c9f8:	008a5613          	srli	a2,s4,0x8
   1c9fc:	48a11223          	sh	a0,1156(sp)
   1ca00:	48b10323          	sb	a1,1158(sp)
   1ca04:	494103a3          	sb	s4,1159(sp)
   1ca08:	48c10423          	sb	a2,1160(sp)
   1ca0c:	48b10513          	addi	a0,sp,1163
   1ca10:	6585                	lui	a1,0x1
   1ca12:	32458593          	addi	a1,a1,804 # 1324 <.Lline_table_start1+0x10f9>
   1ca16:	958a                	add	a1,a1,sp
   1ca18:	4625                	li	a2,9
   1ca1a:	00003097          	auipc	ra,0x3
   1ca1e:	202080e7          	jalr	514(ra) # 1fc1c <memcpy>
   1ca22:	6505                	lui	a0,0x1
   1ca24:	38050513          	addi	a0,a0,896 # 1380 <.Lline_table_start1+0x1155>
   1ca28:	950a                	add	a0,a0,sp
   1ca2a:	48410593          	addi	a1,sp,1156
   1ca2e:	ffffb097          	auipc	ra,0xffffb
   1ca32:	a56080e7          	jalr	-1450(ra) # 17484 <_ZN20complex_dynamic_type3app17ha3b9202d02eb2b60E>
   1ca36:	3ecac403          	lbu	s0,1004(s5)
   1ca3a:	c401                	beqz	s0,1ca42 <_start+0x1cec>
   1ca3c:	3f0aaa03          	lw	s4,1008(s5)
   1ca40:	a835                	j	1ca7c <_start+0x1d26>
   1ca42:	3eeac503          	lbu	a0,1006(s5)
   1ca46:	3edac583          	lbu	a1,1005(s5)
   1ca4a:	3efac603          	lbu	a2,1007(s5)
   1ca4e:	3f0aaa03          	lw	s4,1008(s5)
   1ca52:	0522                	slli	a0,a0,0x8
   1ca54:	8d4d                	or	a0,a0,a1
   1ca56:	00a11423          	sh	a0,8(sp)
   1ca5a:	00c10523          	sb	a2,10(sp)
   1ca5e:	6505                	lui	a0,0x1
   1ca60:	38850513          	addi	a0,a0,904 # 1388 <.Lline_table_start1+0x115d>
   1ca64:	00a105b3          	add	a1,sp,a0
   1ca68:	6505                	lui	a0,0x1
   1ca6a:	32450513          	addi	a0,a0,804 # 1324 <.Lline_table_start1+0x10f9>
   1ca6e:	950a                	add	a0,a0,sp
   1ca70:	02f00613          	li	a2,47
   1ca74:	00003097          	auipc	ra,0x3
   1ca78:	1a8080e7          	jalr	424(ra) # 1fc1c <memcpy>
   1ca7c:	c019                	beqz	s0,1ca82 <_start+0x1d2c>
   1ca7e:	07a0306f          	j	1faf8 <_start+0x4da2>
   1ca82:	00811503          	lh	a0,8(sp)
   1ca86:	00a14583          	lbu	a1,10(sp)
   1ca8a:	018a5613          	srli	a2,s4,0x18
   1ca8e:	010a5693          	srli	a3,s4,0x10
   1ca92:	48d10ca3          	sb	a3,1177(sp)
   1ca96:	48c10d23          	sb	a2,1178(sp)
   1ca9a:	008a5613          	srli	a2,s4,0x8
   1ca9e:	48a11a23          	sh	a0,1172(sp)
   1caa2:	48b10b23          	sb	a1,1174(sp)
   1caa6:	49410ba3          	sb	s4,1175(sp)
   1caaa:	48c10c23          	sb	a2,1176(sp)
   1caae:	49b10513          	addi	a0,sp,1179
   1cab2:	6585                	lui	a1,0x1
   1cab4:	32458593          	addi	a1,a1,804 # 1324 <.Lline_table_start1+0x10f9>
   1cab8:	958a                	add	a1,a1,sp
   1caba:	02f00613          	li	a2,47
   1cabe:	00003097          	auipc	ra,0x3
   1cac2:	15e080e7          	jalr	350(ra) # 1fc1c <memcpy>
   1cac6:	6505                	lui	a0,0x1
   1cac8:	38050513          	addi	a0,a0,896 # 1380 <.Lline_table_start1+0x1155>
   1cacc:	950a                	add	a0,a0,sp
   1cace:	49410593          	addi	a1,sp,1172
   1cad2:	ffff8097          	auipc	ra,0xffff8
   1cad6:	63a080e7          	jalr	1594(ra) # 1510c <_ZN20complex_dynamic_type3app17h660e32ced0124a14E>
   1cada:	3ecac603          	lbu	a2,1004(s5)
   1cade:	c601                	beqz	a2,1cae6 <_start+0x1d90>
   1cae0:	3f0aaa03          	lw	s4,1008(s5)
   1cae4:	a01d                	j	1cb0a <_start+0x1db4>
   1cae6:	3edac683          	lbu	a3,1005(s5)
   1caea:	3eeac703          	lbu	a4,1006(s5)
   1caee:	3efac783          	lbu	a5,1007(s5)
   1caf2:	3f0aaa03          	lw	s4,1008(s5)
   1caf6:	3f4aa583          	lw	a1,1012(s5)
   1cafa:	3f8aa503          	lw	a0,1016(s5)
   1cafe:	0722                	slli	a4,a4,0x8
   1cb00:	8ed9                	or	a3,a3,a4
   1cb02:	38da9823          	sh	a3,912(s5)
   1cb06:	38fa8923          	sb	a5,914(s5)
   1cb0a:	c219                	beqz	a2,1cb10 <_start+0x1dba>
   1cb0c:	7ed0206f          	j	1faf8 <_start+0x4da2>
   1cb10:	390a9803          	lh	a6,912(s5)
   1cb14:	392ac683          	lbu	a3,914(s5)
   1cb18:	018a5713          	srli	a4,s4,0x18
   1cb1c:	010a5793          	srli	a5,s4,0x10
   1cb20:	008a5493          	srli	s1,s4,0x8
   1cb24:	0085d413          	srli	s0,a1,0x8
   1cb28:	01855613          	srli	a2,a0,0x18
   1cb2c:	4cf107a3          	sb	a5,1231(sp)
   1cb30:	4ce10823          	sb	a4,1232(sp)
   1cb34:	4cb108a3          	sb	a1,1233(sp)
   1cb38:	4c810923          	sb	s0,1234(sp)
   1cb3c:	01055713          	srli	a4,a0,0x10
   1cb40:	4ce10ba3          	sb	a4,1239(sp)
   1cb44:	4cc10c23          	sb	a2,1240(sp)
   1cb48:	0185d613          	srli	a2,a1,0x18
   1cb4c:	81c1                	srli	a1,a1,0x10
   1cb4e:	4d011523          	sh	a6,1226(sp)
   1cb52:	4cd10623          	sb	a3,1228(sp)
   1cb56:	4d4106a3          	sb	s4,1229(sp)
   1cb5a:	4c910723          	sb	s1,1230(sp)
   1cb5e:	00855693          	srli	a3,a0,0x8
   1cb62:	4cb109a3          	sb	a1,1235(sp)
   1cb66:	4cc10a23          	sb	a2,1236(sp)
   1cb6a:	4ca10aa3          	sb	a0,1237(sp)
   1cb6e:	4cd10b23          	sb	a3,1238(sp)
   1cb72:	6505                	lui	a0,0x1
   1cb74:	38050513          	addi	a0,a0,896 # 1380 <.Lline_table_start1+0x1155>
   1cb78:	950a                	add	a0,a0,sp
   1cb7a:	4ca10593          	addi	a1,sp,1226
   1cb7e:	ffffd097          	auipc	ra,0xffffd
   1cb82:	286080e7          	jalr	646(ra) # 19e04 <_ZN20complex_dynamic_type3app17hf053dfc546142e8bE>
   1cb86:	3ecac503          	lbu	a0,1004(s5)
   1cb8a:	c501                	beqz	a0,1cb92 <_start+0x1e3c>
   1cb8c:	3f0aaa03          	lw	s4,1008(s5)
   1cb90:	a81d                	j	1cbc6 <_start+0x1e70>
   1cb92:	3eeac583          	lbu	a1,1006(s5)
   1cb96:	3edac603          	lbu	a2,1005(s5)
   1cb9a:	3efac683          	lbu	a3,1007(s5)
   1cb9e:	3f0aaa03          	lw	s4,1008(s5)
   1cba2:	05a2                	slli	a1,a1,0x8
   1cba4:	8dd1                	or	a1,a1,a2
   1cba6:	3f4aa603          	lw	a2,1012(s5)
   1cbaa:	3f8aa703          	lw	a4,1016(s5)
   1cbae:	3fcaa783          	lw	a5,1020(s5)
   1cbb2:	00b11423          	sh	a1,8(sp)
   1cbb6:	00d10523          	sb	a3,10(sp)
   1cbba:	38caa823          	sw	a2,912(s5)
   1cbbe:	38eaaa23          	sw	a4,916(s5)
   1cbc2:	38faac23          	sw	a5,920(s5)
   1cbc6:	c119                	beqz	a0,1cbcc <_start+0x1e76>
   1cbc8:	7310206f          	j	1faf8 <_start+0x4da2>
   1cbcc:	00811503          	lh	a0,8(sp)
   1cbd0:	00a14583          	lbu	a1,10(sp)
   1cbd4:	018a5613          	srli	a2,s4,0x18
   1cbd8:	010a5693          	srli	a3,s4,0x10
   1cbdc:	4cd10fa3          	sb	a3,1247(sp)
   1cbe0:	4ec10023          	sb	a2,1248(sp)
   1cbe4:	008a5613          	srli	a2,s4,0x8
   1cbe8:	4ca11d23          	sh	a0,1242(sp)
   1cbec:	4cb10e23          	sb	a1,1244(sp)
   1cbf0:	4d410ea3          	sb	s4,1245(sp)
   1cbf4:	4cc10f23          	sb	a2,1246(sp)
   1cbf8:	4e110513          	addi	a0,sp,1249
   1cbfc:	6585                	lui	a1,0x1
   1cbfe:	32458593          	addi	a1,a1,804 # 1324 <.Lline_table_start1+0x10f9>
   1cc02:	958a                	add	a1,a1,sp
   1cc04:	4631                	li	a2,12
   1cc06:	00003097          	auipc	ra,0x3
   1cc0a:	016080e7          	jalr	22(ra) # 1fc1c <memcpy>
   1cc0e:	6505                	lui	a0,0x1
   1cc10:	38050513          	addi	a0,a0,896 # 1380 <.Lline_table_start1+0x1155>
   1cc14:	950a                	add	a0,a0,sp
   1cc16:	4da10593          	addi	a1,sp,1242
   1cc1a:	ffffd097          	auipc	ra,0xffffd
   1cc1e:	d56080e7          	jalr	-682(ra) # 19970 <_ZN20complex_dynamic_type3app17hea56fa536a0bc323E>
   1cc22:	3ecac403          	lbu	s0,1004(s5)
   1cc26:	c401                	beqz	s0,1cc2e <_start+0x1ed8>
   1cc28:	3f0aaa03          	lw	s4,1008(s5)
   1cc2c:	a835                	j	1cc68 <_start+0x1f12>
   1cc2e:	3eeac503          	lbu	a0,1006(s5)
   1cc32:	3edac583          	lbu	a1,1005(s5)
   1cc36:	3efac603          	lbu	a2,1007(s5)
   1cc3a:	3f0aaa03          	lw	s4,1008(s5)
   1cc3e:	0522                	slli	a0,a0,0x8
   1cc40:	8d4d                	or	a0,a0,a1
   1cc42:	00a11423          	sh	a0,8(sp)
   1cc46:	00c10523          	sb	a2,10(sp)
   1cc4a:	6505                	lui	a0,0x1
   1cc4c:	38850513          	addi	a0,a0,904 # 1388 <.Lline_table_start1+0x115d>
   1cc50:	00a105b3          	add	a1,sp,a0
   1cc54:	6505                	lui	a0,0x1
   1cc56:	32450513          	addi	a0,a0,804 # 1324 <.Lline_table_start1+0x10f9>
   1cc5a:	950a                	add	a0,a0,sp
   1cc5c:	04e00613          	li	a2,78
   1cc60:	00003097          	auipc	ra,0x3
   1cc64:	fbc080e7          	jalr	-68(ra) # 1fc1c <memcpy>
   1cc68:	c019                	beqz	s0,1cc6e <_start+0x1f18>
   1cc6a:	68f0206f          	j	1faf8 <_start+0x4da2>
   1cc6e:	00811503          	lh	a0,8(sp)
   1cc72:	00a14583          	lbu	a1,10(sp)
   1cc76:	018a5613          	srli	a2,s4,0x18
   1cc7a:	010a5693          	srli	a3,s4,0x10
   1cc7e:	4ed109a3          	sb	a3,1267(sp)
   1cc82:	4ec10a23          	sb	a2,1268(sp)
   1cc86:	008a5613          	srli	a2,s4,0x8
   1cc8a:	4ea11723          	sh	a0,1262(sp)
   1cc8e:	4eb10823          	sb	a1,1264(sp)
   1cc92:	4f4108a3          	sb	s4,1265(sp)
   1cc96:	4ec10923          	sb	a2,1266(sp)
   1cc9a:	4f510513          	addi	a0,sp,1269
   1cc9e:	6585                	lui	a1,0x1
   1cca0:	32458593          	addi	a1,a1,804 # 1324 <.Lline_table_start1+0x10f9>
   1cca4:	958a                	add	a1,a1,sp
   1cca6:	04e00613          	li	a2,78
   1ccaa:	00003097          	auipc	ra,0x3
   1ccae:	f72080e7          	jalr	-142(ra) # 1fc1c <memcpy>
   1ccb2:	6505                	lui	a0,0x1
   1ccb4:	38050513          	addi	a0,a0,896 # 1380 <.Lline_table_start1+0x1155>
   1ccb8:	950a                	add	a0,a0,sp
   1ccba:	4ee10593          	addi	a1,sp,1262
   1ccbe:	ffff8097          	auipc	ra,0xffff8
   1ccc2:	136080e7          	jalr	310(ra) # 14df4 <_ZN20complex_dynamic_type3app17h61b64af1cf2f21e5E>
   1ccc6:	3ecac403          	lbu	s0,1004(s5)
   1ccca:	c401                	beqz	s0,1ccd2 <_start+0x1f7c>
   1cccc:	3f0aaa03          	lw	s4,1008(s5)
   1ccd0:	a835                	j	1cd0c <_start+0x1fb6>
   1ccd2:	3eeac503          	lbu	a0,1006(s5)
   1ccd6:	3edac583          	lbu	a1,1005(s5)
   1ccda:	3efac603          	lbu	a2,1007(s5)
   1ccde:	3f0aaa03          	lw	s4,1008(s5)
   1cce2:	0522                	slli	a0,a0,0x8
   1cce4:	8d4d                	or	a0,a0,a1
   1cce6:	00a11423          	sh	a0,8(sp)
   1ccea:	00c10523          	sb	a2,10(sp)
   1ccee:	6505                	lui	a0,0x1
   1ccf0:	38850513          	addi	a0,a0,904 # 1388 <.Lline_table_start1+0x115d>
   1ccf4:	00a105b3          	add	a1,sp,a0
   1ccf8:	6505                	lui	a0,0x1
   1ccfa:	32450513          	addi	a0,a0,804 # 1324 <.Lline_table_start1+0x10f9>
   1ccfe:	950a                	add	a0,a0,sp
   1cd00:	02b00613          	li	a2,43
   1cd04:	00003097          	auipc	ra,0x3
   1cd08:	f18080e7          	jalr	-232(ra) # 1fc1c <memcpy>
   1cd0c:	c019                	beqz	s0,1cd12 <_start+0x1fbc>
   1cd0e:	5eb0206f          	j	1faf8 <_start+0x4da2>
   1cd12:	00811503          	lh	a0,8(sp)
   1cd16:	00a14583          	lbu	a1,10(sp)
   1cd1a:	018a5613          	srli	a2,s4,0x18
   1cd1e:	010a5693          	srli	a3,s4,0x10
   1cd22:	54d104a3          	sb	a3,1353(sp)
   1cd26:	54c10523          	sb	a2,1354(sp)
   1cd2a:	008a5613          	srli	a2,s4,0x8
   1cd2e:	54a11223          	sh	a0,1348(sp)
   1cd32:	54b10323          	sb	a1,1350(sp)
   1cd36:	554103a3          	sb	s4,1351(sp)
   1cd3a:	54c10423          	sb	a2,1352(sp)
   1cd3e:	54b10513          	addi	a0,sp,1355
   1cd42:	6585                	lui	a1,0x1
   1cd44:	32458593          	addi	a1,a1,804 # 1324 <.Lline_table_start1+0x10f9>
   1cd48:	958a                	add	a1,a1,sp
   1cd4a:	02b00613          	li	a2,43
   1cd4e:	00003097          	auipc	ra,0x3
   1cd52:	ece080e7          	jalr	-306(ra) # 1fc1c <memcpy>
   1cd56:	6505                	lui	a0,0x1
   1cd58:	38050513          	addi	a0,a0,896 # 1380 <.Lline_table_start1+0x1155>
   1cd5c:	950a                	add	a0,a0,sp
   1cd5e:	54410593          	addi	a1,sp,1348
   1cd62:	ffffa097          	auipc	ra,0xffffa
   1cd66:	594080e7          	jalr	1428(ra) # 172f6 <_ZN20complex_dynamic_type3app17ha2774c123e7b2ee9E>
   1cd6a:	3ecac403          	lbu	s0,1004(s5)
   1cd6e:	c401                	beqz	s0,1cd76 <_start+0x2020>
   1cd70:	3f0aaa03          	lw	s4,1008(s5)
   1cd74:	a835                	j	1cdb0 <_start+0x205a>
   1cd76:	3eeac503          	lbu	a0,1006(s5)
   1cd7a:	3edac583          	lbu	a1,1005(s5)
   1cd7e:	3efac603          	lbu	a2,1007(s5)
   1cd82:	3f0aaa03          	lw	s4,1008(s5)
   1cd86:	0522                	slli	a0,a0,0x8
   1cd88:	8d4d                	or	a0,a0,a1
   1cd8a:	00a11423          	sh	a0,8(sp)
   1cd8e:	00c10523          	sb	a2,10(sp)
   1cd92:	6505                	lui	a0,0x1
   1cd94:	38850513          	addi	a0,a0,904 # 1388 <.Lline_table_start1+0x115d>
   1cd98:	00a105b3          	add	a1,sp,a0
   1cd9c:	6505                	lui	a0,0x1
   1cd9e:	32450513          	addi	a0,a0,804 # 1324 <.Lline_table_start1+0x10f9>
   1cda2:	950a                	add	a0,a0,sp
   1cda4:	03a00613          	li	a2,58
   1cda8:	00003097          	auipc	ra,0x3
   1cdac:	e74080e7          	jalr	-396(ra) # 1fc1c <memcpy>
   1cdb0:	c019                	beqz	s0,1cdb6 <_start+0x2060>
   1cdb2:	5470206f          	j	1faf8 <_start+0x4da2>
   1cdb6:	00811503          	lh	a0,8(sp)
   1cdba:	00a14583          	lbu	a1,10(sp)
   1cdbe:	018a5613          	srli	a2,s4,0x18
   1cdc2:	010a5693          	srli	a3,s4,0x10
   1cdc6:	56d10da3          	sb	a3,1403(sp)
   1cdca:	56c10e23          	sb	a2,1404(sp)
   1cdce:	008a5613          	srli	a2,s4,0x8
   1cdd2:	56a11b23          	sh	a0,1398(sp)
   1cdd6:	56b10c23          	sb	a1,1400(sp)
   1cdda:	57410ca3          	sb	s4,1401(sp)
   1cdde:	56c10d23          	sb	a2,1402(sp)
   1cde2:	57d10513          	addi	a0,sp,1405
   1cde6:	6585                	lui	a1,0x1
   1cde8:	32458593          	addi	a1,a1,804 # 1324 <.Lline_table_start1+0x10f9>
   1cdec:	958a                	add	a1,a1,sp
   1cdee:	03a00613          	li	a2,58
   1cdf2:	00003097          	auipc	ra,0x3
   1cdf6:	e2a080e7          	jalr	-470(ra) # 1fc1c <memcpy>
   1cdfa:	6505                	lui	a0,0x1
   1cdfc:	38050513          	addi	a0,a0,896 # 1380 <.Lline_table_start1+0x1155>
   1ce00:	950a                	add	a0,a0,sp
   1ce02:	57610593          	addi	a1,sp,1398
   1ce06:	ffffa097          	auipc	ra,0xffffa
   1ce0a:	360080e7          	jalr	864(ra) # 17166 <_ZN20complex_dynamic_type3app17ha1d74b76bbb094d8E>
   1ce0e:	3ecac503          	lbu	a0,1004(s5)
   1ce12:	c501                	beqz	a0,1ce1a <_start+0x20c4>
   1ce14:	3f0aaa03          	lw	s4,1008(s5)
   1ce18:	a8b9                	j	1ce76 <_start+0x2120>
   1ce1a:	3edac583          	lbu	a1,1005(s5)
   1ce1e:	3eeac603          	lbu	a2,1006(s5)
   1ce22:	3efac683          	lbu	a3,1007(s5)
   1ce26:	3f0aaa03          	lw	s4,1008(s5)
   1ce2a:	3f4aa703          	lw	a4,1012(s5)
   1ce2e:	3f8aa783          	lw	a5,1016(s5)
   1ce32:	3fcaa483          	lw	s1,1020(s5)
   1ce36:	400aa403          	lw	s0,1024(s5)
   1ce3a:	0622                	slli	a2,a2,0x8
   1ce3c:	38eaa823          	sw	a4,912(s5)
   1ce40:	38faaa23          	sw	a5,916(s5)
   1ce44:	389aac23          	sw	s1,920(s5)
   1ce48:	388aae23          	sw	s0,924(s5)
   1ce4c:	8dd1                	or	a1,a1,a2
   1ce4e:	00b11423          	sh	a1,8(sp)
   1ce52:	00d10523          	sb	a3,10(sp)
   1ce56:	404aa583          	lw	a1,1028(s5)
   1ce5a:	408aa603          	lw	a2,1032(s5)
   1ce5e:	40ca9683          	lh	a3,1036(s5)
   1ce62:	40eac703          	lbu	a4,1038(s5)
   1ce66:	3abaa023          	sw	a1,928(s5)
   1ce6a:	3acaa223          	sw	a2,932(s5)
   1ce6e:	3ada9423          	sh	a3,936(s5)
   1ce72:	3aea8523          	sb	a4,938(s5)
   1ce76:	c119                	beqz	a0,1ce7c <_start+0x2126>
   1ce78:	4810206f          	j	1faf8 <_start+0x4da2>
   1ce7c:	00811503          	lh	a0,8(sp)
   1ce80:	00a14583          	lbu	a1,10(sp)
   1ce84:	018a5613          	srli	a2,s4,0x18
   1ce88:	010a5693          	srli	a3,s4,0x10
   1ce8c:	5ad10ea3          	sb	a3,1469(sp)
   1ce90:	5ac10f23          	sb	a2,1470(sp)
   1ce94:	008a5613          	srli	a2,s4,0x8
   1ce98:	5aa11c23          	sh	a0,1464(sp)
   1ce9c:	5ab10d23          	sb	a1,1466(sp)
   1cea0:	5b410da3          	sb	s4,1467(sp)
   1cea4:	5ac10e23          	sb	a2,1468(sp)
   1cea8:	5bf10513          	addi	a0,sp,1471
   1ceac:	6585                	lui	a1,0x1
   1ceae:	32458593          	addi	a1,a1,804 # 1324 <.Lline_table_start1+0x10f9>
   1ceb2:	958a                	add	a1,a1,sp
   1ceb4:	466d                	li	a2,27
   1ceb6:	00003097          	auipc	ra,0x3
   1ceba:	d66080e7          	jalr	-666(ra) # 1fc1c <memcpy>
   1cebe:	6505                	lui	a0,0x1
   1cec0:	38050513          	addi	a0,a0,896 # 1380 <.Lline_table_start1+0x1155>
   1cec4:	950a                	add	a0,a0,sp
   1cec6:	5b810593          	addi	a1,sp,1464
   1ceca:	ffffe097          	auipc	ra,0xffffe
   1cece:	b80080e7          	jalr	-1152(ra) # 1aa4a <_ZN20complex_dynamic_type3app17hfbdbb97b7985a347E>
   1ced2:	3ecac403          	lbu	s0,1004(s5)
   1ced6:	c401                	beqz	s0,1cede <_start+0x2188>
   1ced8:	3f0aaa03          	lw	s4,1008(s5)
   1cedc:	a835                	j	1cf18 <_start+0x21c2>
   1cede:	3eeac503          	lbu	a0,1006(s5)
   1cee2:	3edac583          	lbu	a1,1005(s5)
   1cee6:	3efac603          	lbu	a2,1007(s5)
   1ceea:	3f0aaa03          	lw	s4,1008(s5)
   1ceee:	0522                	slli	a0,a0,0x8
   1cef0:	8d4d                	or	a0,a0,a1
   1cef2:	00a11423          	sh	a0,8(sp)
   1cef6:	00c10523          	sb	a2,10(sp)
   1cefa:	6505                	lui	a0,0x1
   1cefc:	38850513          	addi	a0,a0,904 # 1388 <.Lline_table_start1+0x115d>
   1cf00:	00a105b3          	add	a1,sp,a0
   1cf04:	6505                	lui	a0,0x1
   1cf06:	32450513          	addi	a0,a0,804 # 1324 <.Lline_table_start1+0x10f9>
   1cf0a:	950a                	add	a0,a0,sp
   1cf0c:	04a00613          	li	a2,74
   1cf10:	00003097          	auipc	ra,0x3
   1cf14:	d0c080e7          	jalr	-756(ra) # 1fc1c <memcpy>
   1cf18:	c019                	beqz	s0,1cf1e <_start+0x21c8>
   1cf1a:	3df0206f          	j	1faf8 <_start+0x4da2>
   1cf1e:	00811503          	lh	a0,8(sp)
   1cf22:	00a14583          	lbu	a1,10(sp)
   1cf26:	018a5613          	srli	a2,s4,0x18
   1cf2a:	010a5693          	srli	a3,s4,0x10
   1cf2e:	5cd10fa3          	sb	a3,1503(sp)
   1cf32:	5ec10023          	sb	a2,1504(sp)
   1cf36:	008a5613          	srli	a2,s4,0x8
   1cf3a:	5ca11d23          	sh	a0,1498(sp)
   1cf3e:	5cb10e23          	sb	a1,1500(sp)
   1cf42:	5d410ea3          	sb	s4,1501(sp)
   1cf46:	5cc10f23          	sb	a2,1502(sp)
   1cf4a:	5e110513          	addi	a0,sp,1505
   1cf4e:	6585                	lui	a1,0x1
   1cf50:	32458593          	addi	a1,a1,804 # 1324 <.Lline_table_start1+0x10f9>
   1cf54:	958a                	add	a1,a1,sp
   1cf56:	04a00613          	li	a2,74
   1cf5a:	00003097          	auipc	ra,0x3
   1cf5e:	cc2080e7          	jalr	-830(ra) # 1fc1c <memcpy>
   1cf62:	6505                	lui	a0,0x1
   1cf64:	38050513          	addi	a0,a0,896 # 1380 <.Lline_table_start1+0x1155>
   1cf68:	950a                	add	a0,a0,sp
   1cf6a:	5da10593          	addi	a1,sp,1498
   1cf6e:	ffffb097          	auipc	ra,0xffffb
   1cf72:	e5a080e7          	jalr	-422(ra) # 17dc8 <_ZN20complex_dynamic_type3app17hb0caf90333ae4b9fE>
   1cf76:	3ecac403          	lbu	s0,1004(s5)
   1cf7a:	c401                	beqz	s0,1cf82 <_start+0x222c>
   1cf7c:	3f0aaa03          	lw	s4,1008(s5)
   1cf80:	a835                	j	1cfbc <_start+0x2266>
   1cf82:	3eeac503          	lbu	a0,1006(s5)
   1cf86:	3edac583          	lbu	a1,1005(s5)
   1cf8a:	3efac603          	lbu	a2,1007(s5)
   1cf8e:	3f0aaa03          	lw	s4,1008(s5)
   1cf92:	0522                	slli	a0,a0,0x8
   1cf94:	8d4d                	or	a0,a0,a1
   1cf96:	00a11423          	sh	a0,8(sp)
   1cf9a:	00c10523          	sb	a2,10(sp)
   1cf9e:	6505                	lui	a0,0x1
   1cfa0:	38850513          	addi	a0,a0,904 # 1388 <.Lline_table_start1+0x115d>
   1cfa4:	00a105b3          	add	a1,sp,a0
   1cfa8:	6505                	lui	a0,0x1
   1cfaa:	32450513          	addi	a0,a0,804 # 1324 <.Lline_table_start1+0x10f9>
   1cfae:	950a                	add	a0,a0,sp
   1cfb0:	04800613          	li	a2,72
   1cfb4:	00003097          	auipc	ra,0x3
   1cfb8:	c68080e7          	jalr	-920(ra) # 1fc1c <memcpy>
   1cfbc:	c019                	beqz	s0,1cfc2 <_start+0x226c>
   1cfbe:	33b0206f          	j	1faf8 <_start+0x4da2>
   1cfc2:	00811503          	lh	a0,8(sp)
   1cfc6:	00a14583          	lbu	a1,10(sp)
   1cfca:	018a5613          	srli	a2,s4,0x18
   1cfce:	010a5693          	srli	a3,s4,0x10
   1cfd2:	62d108a3          	sb	a3,1585(sp)
   1cfd6:	62c10923          	sb	a2,1586(sp)
   1cfda:	008a5613          	srli	a2,s4,0x8
   1cfde:	62a11623          	sh	a0,1580(sp)
   1cfe2:	62b10723          	sb	a1,1582(sp)
   1cfe6:	634107a3          	sb	s4,1583(sp)
   1cfea:	62c10823          	sb	a2,1584(sp)
   1cfee:	63310513          	addi	a0,sp,1587
   1cff2:	6585                	lui	a1,0x1
   1cff4:	32458593          	addi	a1,a1,804 # 1324 <.Lline_table_start1+0x10f9>
   1cff8:	958a                	add	a1,a1,sp
   1cffa:	04800613          	li	a2,72
   1cffe:	00003097          	auipc	ra,0x3
   1d002:	c1e080e7          	jalr	-994(ra) # 1fc1c <memcpy>
   1d006:	6505                	lui	a0,0x1
   1d008:	38050513          	addi	a0,a0,896 # 1380 <.Lline_table_start1+0x1155>
   1d00c:	950a                	add	a0,a0,sp
   1d00e:	62c10593          	addi	a1,sp,1580
   1d012:	ffffd097          	auipc	ra,0xffffd
   1d016:	410080e7          	jalr	1040(ra) # 1a422 <_ZN20complex_dynamic_type3app17hf73287dace9ebb34E>
   1d01a:	3ecac403          	lbu	s0,1004(s5)
   1d01e:	c401                	beqz	s0,1d026 <_start+0x22d0>
   1d020:	3f0aaa03          	lw	s4,1008(s5)
   1d024:	a835                	j	1d060 <_start+0x230a>
   1d026:	3eeac503          	lbu	a0,1006(s5)
   1d02a:	3edac583          	lbu	a1,1005(s5)
   1d02e:	3efac603          	lbu	a2,1007(s5)
   1d032:	3f0aaa03          	lw	s4,1008(s5)
   1d036:	0522                	slli	a0,a0,0x8
   1d038:	8d4d                	or	a0,a0,a1
   1d03a:	00a11423          	sh	a0,8(sp)
   1d03e:	00c10523          	sb	a2,10(sp)
   1d042:	6505                	lui	a0,0x1
   1d044:	38850513          	addi	a0,a0,904 # 1388 <.Lline_table_start1+0x115d>
   1d048:	00a105b3          	add	a1,sp,a0
   1d04c:	6505                	lui	a0,0x1
   1d04e:	32450513          	addi	a0,a0,804 # 1324 <.Lline_table_start1+0x10f9>
   1d052:	950a                	add	a0,a0,sp
   1d054:	03400613          	li	a2,52
   1d058:	00003097          	auipc	ra,0x3
   1d05c:	bc4080e7          	jalr	-1084(ra) # 1fc1c <memcpy>
   1d060:	c019                	beqz	s0,1d066 <_start+0x2310>
   1d062:	2970206f          	j	1faf8 <_start+0x4da2>
   1d066:	00811503          	lh	a0,8(sp)
   1d06a:	00a14583          	lbu	a1,10(sp)
   1d06e:	018a5613          	srli	a2,s4,0x18
   1d072:	010a5693          	srli	a3,s4,0x10
   1d076:	68d100a3          	sb	a3,1665(sp)
   1d07a:	68c10123          	sb	a2,1666(sp)
   1d07e:	008a5613          	srli	a2,s4,0x8
   1d082:	66a11e23          	sh	a0,1660(sp)
   1d086:	66b10f23          	sb	a1,1662(sp)
   1d08a:	67410fa3          	sb	s4,1663(sp)
   1d08e:	68c10023          	sb	a2,1664(sp)
   1d092:	68310513          	addi	a0,sp,1667
   1d096:	6585                	lui	a1,0x1
   1d098:	32458593          	addi	a1,a1,804 # 1324 <.Lline_table_start1+0x10f9>
   1d09c:	958a                	add	a1,a1,sp
   1d09e:	03400613          	li	a2,52
   1d0a2:	00003097          	auipc	ra,0x3
   1d0a6:	b7a080e7          	jalr	-1158(ra) # 1fc1c <memcpy>
   1d0aa:	6505                	lui	a0,0x1
   1d0ac:	38050513          	addi	a0,a0,896 # 1380 <.Lline_table_start1+0x1155>
   1d0b0:	950a                	add	a0,a0,sp
   1d0b2:	67c10593          	addi	a1,sp,1660
   1d0b6:	ffffc097          	auipc	ra,0xffffc
   1d0ba:	f7a080e7          	jalr	-134(ra) # 19030 <_ZN20complex_dynamic_type3app17hdc4e6b2f8cc36d0bE>
   1d0be:	3ecac503          	lbu	a0,1004(s5)
   1d0c2:	c501                	beqz	a0,1d0ca <_start+0x2374>
   1d0c4:	3f0aaa03          	lw	s4,1008(s5)
   1d0c8:	a8b9                	j	1d126 <_start+0x23d0>
   1d0ca:	3edac583          	lbu	a1,1005(s5)
   1d0ce:	3eeac603          	lbu	a2,1006(s5)
   1d0d2:	3efac683          	lbu	a3,1007(s5)
   1d0d6:	3f0aaa03          	lw	s4,1008(s5)
   1d0da:	3f4aa703          	lw	a4,1012(s5)
   1d0de:	3f8aa783          	lw	a5,1016(s5)
   1d0e2:	3fcaa483          	lw	s1,1020(s5)
   1d0e6:	400aa403          	lw	s0,1024(s5)
   1d0ea:	0622                	slli	a2,a2,0x8
   1d0ec:	38eaa823          	sw	a4,912(s5)
   1d0f0:	38faaa23          	sw	a5,916(s5)
   1d0f4:	389aac23          	sw	s1,920(s5)
   1d0f8:	388aae23          	sw	s0,924(s5)
   1d0fc:	8dd1                	or	a1,a1,a2
   1d0fe:	00b11423          	sh	a1,8(sp)
   1d102:	00d10523          	sb	a3,10(sp)
   1d106:	404aa583          	lw	a1,1028(s5)
   1d10a:	408aa603          	lw	a2,1032(s5)
   1d10e:	40caa683          	lw	a3,1036(s5)
   1d112:	410aa703          	lw	a4,1040(s5)
   1d116:	3abaa023          	sw	a1,928(s5)
   1d11a:	3acaa223          	sw	a2,932(s5)
   1d11e:	3adaa423          	sw	a3,936(s5)
   1d122:	3aeaa623          	sw	a4,940(s5)
   1d126:	c119                	beqz	a0,1d12c <_start+0x23d6>
   1d128:	1d10206f          	j	1faf8 <_start+0x4da2>
   1d12c:	00811503          	lh	a0,8(sp)
   1d130:	00a14583          	lbu	a1,10(sp)
   1d134:	018a5613          	srli	a2,s4,0x18
   1d138:	010a5693          	srli	a3,s4,0x10
   1d13c:	6ad10ea3          	sb	a3,1725(sp)
   1d140:	6ac10f23          	sb	a2,1726(sp)
   1d144:	008a5613          	srli	a2,s4,0x8
   1d148:	6aa11c23          	sh	a0,1720(sp)
   1d14c:	6ab10d23          	sb	a1,1722(sp)
   1d150:	6b410da3          	sb	s4,1723(sp)
   1d154:	6ac10e23          	sb	a2,1724(sp)
   1d158:	6bf10513          	addi	a0,sp,1727
   1d15c:	6585                	lui	a1,0x1
   1d15e:	32458593          	addi	a1,a1,804 # 1324 <.Lline_table_start1+0x10f9>
   1d162:	958a                	add	a1,a1,sp
   1d164:	02000613          	li	a2,32
   1d168:	00003097          	auipc	ra,0x3
   1d16c:	ab4080e7          	jalr	-1356(ra) # 1fc1c <memcpy>
   1d170:	6505                	lui	a0,0x1
   1d172:	38050513          	addi	a0,a0,896 # 1380 <.Lline_table_start1+0x1155>
   1d176:	950a                	add	a0,a0,sp
   1d178:	6b810593          	addi	a1,sp,1720
   1d17c:	ffff8097          	auipc	ra,0xffff8
   1d180:	96a080e7          	jalr	-1686(ra) # 14ae6 <_ZN20complex_dynamic_type3app17h5deb3c1a038437f9E>
   1d184:	3ecac503          	lbu	a0,1004(s5)
   1d188:	c501                	beqz	a0,1d190 <_start+0x243a>
   1d18a:	3f0aaa03          	lw	s4,1008(s5)
   1d18e:	a83d                	j	1d1cc <_start+0x2476>
   1d190:	3eeac583          	lbu	a1,1006(s5)
   1d194:	3edac603          	lbu	a2,1005(s5)
   1d198:	3efac683          	lbu	a3,1007(s5)
   1d19c:	3f0aaa03          	lw	s4,1008(s5)
   1d1a0:	05a2                	slli	a1,a1,0x8
   1d1a2:	8dd1                	or	a1,a1,a2
   1d1a4:	00b11423          	sh	a1,8(sp)
   1d1a8:	00d10523          	sb	a3,10(sp)
   1d1ac:	3f4aa583          	lw	a1,1012(s5)
   1d1b0:	3f8aa603          	lw	a2,1016(s5)
   1d1b4:	3fcaa683          	lw	a3,1020(s5)
   1d1b8:	400ac703          	lbu	a4,1024(s5)
   1d1bc:	38baa823          	sw	a1,912(s5)
   1d1c0:	38caaa23          	sw	a2,916(s5)
   1d1c4:	38daac23          	sw	a3,920(s5)
   1d1c8:	38ea8e23          	sb	a4,924(s5)
   1d1cc:	c119                	beqz	a0,1d1d2 <_start+0x247c>
   1d1ce:	12b0206f          	j	1faf8 <_start+0x4da2>
   1d1d2:	00811503          	lh	a0,8(sp)
   1d1d6:	00a14583          	lbu	a1,10(sp)
   1d1da:	018a5613          	srli	a2,s4,0x18
   1d1de:	010a5693          	srli	a3,s4,0x10
   1d1e2:	6ed102a3          	sb	a3,1765(sp)
   1d1e6:	6ec10323          	sb	a2,1766(sp)
   1d1ea:	008a5613          	srli	a2,s4,0x8
   1d1ee:	6ea11023          	sh	a0,1760(sp)
   1d1f2:	6eb10123          	sb	a1,1762(sp)
   1d1f6:	6f4101a3          	sb	s4,1763(sp)
   1d1fa:	6ec10223          	sb	a2,1764(sp)
   1d1fe:	6e710513          	addi	a0,sp,1767
   1d202:	6585                	lui	a1,0x1
   1d204:	32458593          	addi	a1,a1,804 # 1324 <.Lline_table_start1+0x10f9>
   1d208:	958a                	add	a1,a1,sp
   1d20a:	4635                	li	a2,13
   1d20c:	00003097          	auipc	ra,0x3
   1d210:	a10080e7          	jalr	-1520(ra) # 1fc1c <memcpy>
   1d214:	6505                	lui	a0,0x1
   1d216:	38050513          	addi	a0,a0,896 # 1380 <.Lline_table_start1+0x1155>
   1d21a:	950a                	add	a0,a0,sp
   1d21c:	6e010593          	addi	a1,sp,1760
   1d220:	ffffd097          	auipc	ra,0xffffd
   1d224:	a5a080e7          	jalr	-1446(ra) # 19c7a <_ZN20complex_dynamic_type3app17hebb732e3ff275f58E>
   1d228:	3ecac403          	lbu	s0,1004(s5)
   1d22c:	c401                	beqz	s0,1d234 <_start+0x24de>
   1d22e:	3f0aaa03          	lw	s4,1008(s5)
   1d232:	a835                	j	1d26e <_start+0x2518>
   1d234:	3eeac503          	lbu	a0,1006(s5)
   1d238:	3edac583          	lbu	a1,1005(s5)
   1d23c:	3efac603          	lbu	a2,1007(s5)
   1d240:	3f0aaa03          	lw	s4,1008(s5)
   1d244:	0522                	slli	a0,a0,0x8
   1d246:	8d4d                	or	a0,a0,a1
   1d248:	00a11423          	sh	a0,8(sp)
   1d24c:	00c10523          	sb	a2,10(sp)
   1d250:	6505                	lui	a0,0x1
   1d252:	38850513          	addi	a0,a0,904 # 1388 <.Lline_table_start1+0x115d>
   1d256:	00a105b3          	add	a1,sp,a0
   1d25a:	6505                	lui	a0,0x1
   1d25c:	32450513          	addi	a0,a0,804 # 1324 <.Lline_table_start1+0x10f9>
   1d260:	950a                	add	a0,a0,sp
   1d262:	02400613          	li	a2,36
   1d266:	00003097          	auipc	ra,0x3
   1d26a:	9b6080e7          	jalr	-1610(ra) # 1fc1c <memcpy>
   1d26e:	c019                	beqz	s0,1d274 <_start+0x251e>
   1d270:	0890206f          	j	1faf8 <_start+0x4da2>
   1d274:	00811503          	lh	a0,8(sp)
   1d278:	00a14583          	lbu	a1,10(sp)
   1d27c:	018a5613          	srli	a2,s4,0x18
   1d280:	010a5693          	srli	a3,s4,0x10
   1d284:	6ed10ca3          	sb	a3,1785(sp)
   1d288:	6ec10d23          	sb	a2,1786(sp)
   1d28c:	008a5613          	srli	a2,s4,0x8
   1d290:	6ea11a23          	sh	a0,1780(sp)
   1d294:	6eb10b23          	sb	a1,1782(sp)
   1d298:	6f410ba3          	sb	s4,1783(sp)
   1d29c:	6ec10c23          	sb	a2,1784(sp)
   1d2a0:	6fb10513          	addi	a0,sp,1787
   1d2a4:	6585                	lui	a1,0x1
   1d2a6:	32458593          	addi	a1,a1,804 # 1324 <.Lline_table_start1+0x10f9>
   1d2aa:	958a                	add	a1,a1,sp
   1d2ac:	02400613          	li	a2,36
   1d2b0:	00003097          	auipc	ra,0x3
   1d2b4:	96c080e7          	jalr	-1684(ra) # 1fc1c <memcpy>
   1d2b8:	6505                	lui	a0,0x1
   1d2ba:	38050513          	addi	a0,a0,896 # 1380 <.Lline_table_start1+0x1155>
   1d2be:	950a                	add	a0,a0,sp
   1d2c0:	6f410593          	addi	a1,sp,1780
   1d2c4:	ffff5097          	auipc	ra,0xffff5
   1d2c8:	e7a080e7          	jalr	-390(ra) # 1213e <_ZN20complex_dynamic_type3app17h066996f62affea16E>
   1d2cc:	3ecac503          	lbu	a0,1004(s5)
   1d2d0:	c501                	beqz	a0,1d2d8 <_start+0x2582>
   1d2d2:	3f0aaa03          	lw	s4,1008(s5)
   1d2d6:	a899                	j	1d32c <_start+0x25d6>
   1d2d8:	3edac583          	lbu	a1,1005(s5)
   1d2dc:	3eeac603          	lbu	a2,1006(s5)
   1d2e0:	3efac683          	lbu	a3,1007(s5)
   1d2e4:	3f0aaa03          	lw	s4,1008(s5)
   1d2e8:	3f4aa703          	lw	a4,1012(s5)
   1d2ec:	3f8aa783          	lw	a5,1016(s5)
   1d2f0:	3fcaa483          	lw	s1,1020(s5)
   1d2f4:	400aa403          	lw	s0,1024(s5)
   1d2f8:	0622                	slli	a2,a2,0x8
   1d2fa:	38eaa823          	sw	a4,912(s5)
   1d2fe:	38faaa23          	sw	a5,916(s5)
   1d302:	389aac23          	sw	s1,920(s5)
   1d306:	388aae23          	sw	s0,924(s5)
   1d30a:	8dd1                	or	a1,a1,a2
   1d30c:	404aa603          	lw	a2,1028(s5)
   1d310:	408a9703          	lh	a4,1032(s5)
   1d314:	40aac783          	lbu	a5,1034(s5)
   1d318:	00b11423          	sh	a1,8(sp)
   1d31c:	00d10523          	sb	a3,10(sp)
   1d320:	3acaa023          	sw	a2,928(s5)
   1d324:	3aea9223          	sh	a4,932(s5)
   1d328:	3afa8323          	sb	a5,934(s5)
   1d32c:	c119                	beqz	a0,1d332 <_start+0x25dc>
   1d32e:	7ca0206f          	j	1faf8 <_start+0x4da2>
   1d332:	00811503          	lh	a0,8(sp)
   1d336:	00a14583          	lbu	a1,10(sp)
   1d33a:	018a5613          	srli	a2,s4,0x18
   1d33e:	010a5693          	srli	a3,s4,0x10
   1d342:	72d102a3          	sb	a3,1829(sp)
   1d346:	72c10323          	sb	a2,1830(sp)
   1d34a:	008a5613          	srli	a2,s4,0x8
   1d34e:	72a11023          	sh	a0,1824(sp)
   1d352:	72b10123          	sb	a1,1826(sp)
   1d356:	734101a3          	sb	s4,1827(sp)
   1d35a:	72c10223          	sb	a2,1828(sp)
   1d35e:	72710513          	addi	a0,sp,1831
   1d362:	6585                	lui	a1,0x1
   1d364:	32458593          	addi	a1,a1,804 # 1324 <.Lline_table_start1+0x10f9>
   1d368:	958a                	add	a1,a1,sp
   1d36a:	465d                	li	a2,23
   1d36c:	00003097          	auipc	ra,0x3
   1d370:	8b0080e7          	jalr	-1872(ra) # 1fc1c <memcpy>
   1d374:	6505                	lui	a0,0x1
   1d376:	38050513          	addi	a0,a0,896 # 1380 <.Lline_table_start1+0x1155>
   1d37a:	950a                	add	a0,a0,sp
   1d37c:	72010593          	addi	a1,sp,1824
   1d380:	ffff6097          	auipc	ra,0xffff6
   1d384:	eb4080e7          	jalr	-332(ra) # 13234 <_ZN20complex_dynamic_type3app17h1f21045c6dbbb6b2E>
   1d388:	3ecac403          	lbu	s0,1004(s5)
   1d38c:	c401                	beqz	s0,1d394 <_start+0x263e>
   1d38e:	3f0aaa03          	lw	s4,1008(s5)
   1d392:	a835                	j	1d3ce <_start+0x2678>
   1d394:	3eeac503          	lbu	a0,1006(s5)
   1d398:	3edac583          	lbu	a1,1005(s5)
   1d39c:	3efac603          	lbu	a2,1007(s5)
   1d3a0:	3f0aaa03          	lw	s4,1008(s5)
   1d3a4:	0522                	slli	a0,a0,0x8
   1d3a6:	8d4d                	or	a0,a0,a1
   1d3a8:	00a11423          	sh	a0,8(sp)
   1d3ac:	00c10523          	sb	a2,10(sp)
   1d3b0:	6505                	lui	a0,0x1
   1d3b2:	38850513          	addi	a0,a0,904 # 1388 <.Lline_table_start1+0x115d>
   1d3b6:	00a105b3          	add	a1,sp,a0
   1d3ba:	6505                	lui	a0,0x1
   1d3bc:	32450513          	addi	a0,a0,804 # 1324 <.Lline_table_start1+0x10f9>
   1d3c0:	950a                	add	a0,a0,sp
   1d3c2:	04a00613          	li	a2,74
   1d3c6:	00003097          	auipc	ra,0x3
   1d3ca:	856080e7          	jalr	-1962(ra) # 1fc1c <memcpy>
   1d3ce:	c019                	beqz	s0,1d3d4 <_start+0x267e>
   1d3d0:	7280206f          	j	1faf8 <_start+0x4da2>
   1d3d4:	00811503          	lh	a0,8(sp)
   1d3d8:	00a14583          	lbu	a1,10(sp)
   1d3dc:	018a5613          	srli	a2,s4,0x18
   1d3e0:	010a5693          	srli	a3,s4,0x10
   1d3e4:	74d101a3          	sb	a3,1859(sp)
   1d3e8:	74c10223          	sb	a2,1860(sp)
   1d3ec:	008a5613          	srli	a2,s4,0x8
   1d3f0:	72a11f23          	sh	a0,1854(sp)
   1d3f4:	74b10023          	sb	a1,1856(sp)
   1d3f8:	754100a3          	sb	s4,1857(sp)
   1d3fc:	74c10123          	sb	a2,1858(sp)
   1d400:	74510513          	addi	a0,sp,1861
   1d404:	6585                	lui	a1,0x1
   1d406:	32458593          	addi	a1,a1,804 # 1324 <.Lline_table_start1+0x10f9>
   1d40a:	958a                	add	a1,a1,sp
   1d40c:	04a00613          	li	a2,74
   1d410:	00003097          	auipc	ra,0x3
   1d414:	80c080e7          	jalr	-2036(ra) # 1fc1c <memcpy>
   1d418:	6505                	lui	a0,0x1
   1d41a:	38050513          	addi	a0,a0,896 # 1380 <.Lline_table_start1+0x1155>
   1d41e:	950a                	add	a0,a0,sp
   1d420:	73e10593          	addi	a1,sp,1854
   1d424:	ffffc097          	auipc	ra,0xffffc
   1d428:	3c2080e7          	jalr	962(ra) # 197e6 <_ZN20complex_dynamic_type3app17he7148c79cc8a6b9dE>
   1d42c:	3ecac603          	lbu	a2,1004(s5)
   1d430:	c601                	beqz	a2,1d438 <_start+0x26e2>
   1d432:	3f0aaa03          	lw	s4,1008(s5)
   1d436:	a01d                	j	1d45c <_start+0x2706>
   1d438:	3edac683          	lbu	a3,1005(s5)
   1d43c:	3eeac703          	lbu	a4,1006(s5)
   1d440:	3efac783          	lbu	a5,1007(s5)
   1d444:	3f0aaa03          	lw	s4,1008(s5)
   1d448:	3f4aa583          	lw	a1,1012(s5)
   1d44c:	3f8aa503          	lw	a0,1016(s5)
   1d450:	0722                	slli	a4,a4,0x8
   1d452:	8ed9                	or	a3,a3,a4
   1d454:	38da9823          	sh	a3,912(s5)
   1d458:	38fa8923          	sb	a5,914(s5)
   1d45c:	c219                	beqz	a2,1d462 <_start+0x270c>
   1d45e:	69a0206f          	j	1faf8 <_start+0x4da2>
   1d462:	79210913          	addi	s2,sp,1938
   1d466:	390a9803          	lh	a6,912(s5)
   1d46a:	392ac683          	lbu	a3,914(s5)
   1d46e:	018a5713          	srli	a4,s4,0x18
   1d472:	010a5793          	srli	a5,s4,0x10
   1d476:	008a5493          	srli	s1,s4,0x8
   1d47a:	0085d413          	srli	s0,a1,0x8
   1d47e:	01855613          	srli	a2,a0,0x18
   1d482:	00f901a3          	sb	a5,3(s2)
   1d486:	00e90223          	sb	a4,4(s2)
   1d48a:	00b902a3          	sb	a1,5(s2)
   1d48e:	00890323          	sb	s0,6(s2)
   1d492:	01055713          	srli	a4,a0,0x10
   1d496:	00e905a3          	sb	a4,11(s2)
   1d49a:	00c90623          	sb	a2,12(s2)
   1d49e:	0185d613          	srli	a2,a1,0x18
   1d4a2:	81c1                	srli	a1,a1,0x10
   1d4a4:	ff091f23          	sh	a6,-2(s2)
   1d4a8:	00d90023          	sb	a3,0(s2)
   1d4ac:	014900a3          	sb	s4,1(s2)
   1d4b0:	00990123          	sb	s1,2(s2)
   1d4b4:	00855693          	srli	a3,a0,0x8
   1d4b8:	00b903a3          	sb	a1,7(s2)
   1d4bc:	00c90423          	sb	a2,8(s2)
   1d4c0:	00a904a3          	sb	a0,9(s2)
   1d4c4:	00d90523          	sb	a3,10(s2)
   1d4c8:	6505                	lui	a0,0x1
   1d4ca:	38050513          	addi	a0,a0,896 # 1380 <.Lline_table_start1+0x1155>
   1d4ce:	950a                	add	a0,a0,sp
   1d4d0:	79010593          	addi	a1,sp,1936
   1d4d4:	ffff7097          	auipc	ra,0xffff7
   1d4d8:	9b2080e7          	jalr	-1614(ra) # 13e86 <_ZN20complex_dynamic_type3app17h2fcc9740b0632be2E>
   1d4dc:	3ecac483          	lbu	s1,1004(s5)
   1d4e0:	c481                	beqz	s1,1d4e8 <_start+0x2792>
   1d4e2:	3f0aaa03          	lw	s4,1008(s5)
   1d4e6:	a835                	j	1d522 <_start+0x27cc>
   1d4e8:	3eeac503          	lbu	a0,1006(s5)
   1d4ec:	3edac583          	lbu	a1,1005(s5)
   1d4f0:	3efac603          	lbu	a2,1007(s5)
   1d4f4:	3f0aaa03          	lw	s4,1008(s5)
   1d4f8:	0522                	slli	a0,a0,0x8
   1d4fa:	8d4d                	or	a0,a0,a1
   1d4fc:	00a11423          	sh	a0,8(sp)
   1d500:	00c10523          	sb	a2,10(sp)
   1d504:	6505                	lui	a0,0x1
   1d506:	38850513          	addi	a0,a0,904 # 1388 <.Lline_table_start1+0x115d>
   1d50a:	00a105b3          	add	a1,sp,a0
   1d50e:	6505                	lui	a0,0x1
   1d510:	32450513          	addi	a0,a0,804 # 1324 <.Lline_table_start1+0x10f9>
   1d514:	950a                	add	a0,a0,sp
   1d516:	03f00613          	li	a2,63
   1d51a:	00002097          	auipc	ra,0x2
   1d51e:	702080e7          	jalr	1794(ra) # 1fc1c <memcpy>
   1d522:	c099                	beqz	s1,1d528 <_start+0x27d2>
   1d524:	5d40206f          	j	1faf8 <_start+0x4da2>
   1d528:	00811503          	lh	a0,8(sp)
   1d52c:	00a14583          	lbu	a1,10(sp)
   1d530:	018a5613          	srli	a2,s4,0x18
   1d534:	010a5693          	srli	a3,s4,0x10
   1d538:	00d909a3          	sb	a3,19(s2)
   1d53c:	00c90a23          	sb	a2,20(s2)
   1d540:	008a5613          	srli	a2,s4,0x8
   1d544:	00a91723          	sh	a0,14(s2)
   1d548:	00b90823          	sb	a1,16(s2)
   1d54c:	014908a3          	sb	s4,17(s2)
   1d550:	00c90923          	sb	a2,18(s2)
   1d554:	7a710513          	addi	a0,sp,1959
   1d558:	6585                	lui	a1,0x1
   1d55a:	32458593          	addi	a1,a1,804 # 1324 <.Lline_table_start1+0x10f9>
   1d55e:	958a                	add	a1,a1,sp
   1d560:	03f00613          	li	a2,63
   1d564:	00002097          	auipc	ra,0x2
   1d568:	6b8080e7          	jalr	1720(ra) # 1fc1c <memcpy>
   1d56c:	6505                	lui	a0,0x1
   1d56e:	38050513          	addi	a0,a0,896 # 1380 <.Lline_table_start1+0x1155>
   1d572:	950a                	add	a0,a0,sp
   1d574:	7a010593          	addi	a1,sp,1952
   1d578:	ffff9097          	auipc	ra,0xffff9
   1d57c:	42c080e7          	jalr	1068(ra) # 169a4 <_ZN20complex_dynamic_type3app17h903680ab7ed2dc8cE>
   1d580:	3ecac483          	lbu	s1,1004(s5)
   1d584:	c481                	beqz	s1,1d58c <_start+0x2836>
   1d586:	3f0aaa03          	lw	s4,1008(s5)
   1d58a:	a835                	j	1d5c6 <_start+0x2870>
   1d58c:	3eeac503          	lbu	a0,1006(s5)
   1d590:	3edac583          	lbu	a1,1005(s5)
   1d594:	3efac603          	lbu	a2,1007(s5)
   1d598:	3f0aaa03          	lw	s4,1008(s5)
   1d59c:	0522                	slli	a0,a0,0x8
   1d59e:	8d4d                	or	a0,a0,a1
   1d5a0:	00a11423          	sh	a0,8(sp)
   1d5a4:	00c10523          	sb	a2,10(sp)
   1d5a8:	6505                	lui	a0,0x1
   1d5aa:	38850513          	addi	a0,a0,904 # 1388 <.Lline_table_start1+0x115d>
   1d5ae:	00a105b3          	add	a1,sp,a0
   1d5b2:	6505                	lui	a0,0x1
   1d5b4:	32450513          	addi	a0,a0,804 # 1324 <.Lline_table_start1+0x10f9>
   1d5b8:	950a                	add	a0,a0,sp
   1d5ba:	04f00613          	li	a2,79
   1d5be:	00002097          	auipc	ra,0x2
   1d5c2:	65e080e7          	jalr	1630(ra) # 1fc1c <memcpy>
   1d5c6:	c099                	beqz	s1,1d5cc <_start+0x2876>
   1d5c8:	5300206f          	j	1faf8 <_start+0x4da2>
   1d5cc:	00811503          	lh	a0,8(sp)
   1d5d0:	00a14583          	lbu	a1,10(sp)
   1d5d4:	018a5613          	srli	a2,s4,0x18
   1d5d8:	010a5693          	srli	a3,s4,0x10
   1d5dc:	04d90ca3          	sb	a3,89(s2)
   1d5e0:	04c90d23          	sb	a2,90(s2)
   1d5e4:	008a5613          	srli	a2,s4,0x8
   1d5e8:	04a91a23          	sh	a0,84(s2)
   1d5ec:	04b90b23          	sb	a1,86(s2)
   1d5f0:	05490ba3          	sb	s4,87(s2)
   1d5f4:	04c90c23          	sb	a2,88(s2)
   1d5f8:	7ed10513          	addi	a0,sp,2029
   1d5fc:	6585                	lui	a1,0x1
   1d5fe:	32458593          	addi	a1,a1,804 # 1324 <.Lline_table_start1+0x10f9>
   1d602:	958a                	add	a1,a1,sp
   1d604:	04f00613          	li	a2,79
   1d608:	00002097          	auipc	ra,0x2
   1d60c:	614080e7          	jalr	1556(ra) # 1fc1c <memcpy>
   1d610:	6505                	lui	a0,0x1
   1d612:	38050513          	addi	a0,a0,896 # 1380 <.Lline_table_start1+0x1155>
   1d616:	950a                	add	a0,a0,sp
   1d618:	7e610593          	addi	a1,sp,2022
   1d61c:	ffffa097          	auipc	ra,0xffffa
   1d620:	9bc080e7          	jalr	-1604(ra) # 16fd8 <_ZN20complex_dynamic_type3app17ha0aed980b3d4cde6E>
   1d624:	3ecac483          	lbu	s1,1004(s5)
   1d628:	c481                	beqz	s1,1d630 <_start+0x28da>
   1d62a:	3f0aaa03          	lw	s4,1008(s5)
   1d62e:	a835                	j	1d66a <_start+0x2914>
   1d630:	3eeac503          	lbu	a0,1006(s5)
   1d634:	3edac583          	lbu	a1,1005(s5)
   1d638:	3efac603          	lbu	a2,1007(s5)
   1d63c:	3f0aaa03          	lw	s4,1008(s5)
   1d640:	0522                	slli	a0,a0,0x8
   1d642:	8d4d                	or	a0,a0,a1
   1d644:	00a11423          	sh	a0,8(sp)
   1d648:	00c10523          	sb	a2,10(sp)
   1d64c:	6505                	lui	a0,0x1
   1d64e:	38850513          	addi	a0,a0,904 # 1388 <.Lline_table_start1+0x115d>
   1d652:	00a105b3          	add	a1,sp,a0
   1d656:	6505                	lui	a0,0x1
   1d658:	32450513          	addi	a0,a0,804 # 1324 <.Lline_table_start1+0x10f9>
   1d65c:	950a                	add	a0,a0,sp
   1d65e:	04200613          	li	a2,66
   1d662:	00002097          	auipc	ra,0x2
   1d666:	5ba080e7          	jalr	1466(ra) # 1fc1c <memcpy>
   1d66a:	c099                	beqz	s1,1d670 <_start+0x291a>
   1d66c:	48c0206f          	j	1faf8 <_start+0x4da2>
   1d670:	00811503          	lh	a0,8(sp)
   1d674:	00a14583          	lbu	a1,10(sp)
   1d678:	018a5613          	srli	a2,s4,0x18
   1d67c:	010a5693          	srli	a3,s4,0x10
   1d680:	0ad907a3          	sb	a3,175(s2)
   1d684:	0ac90823          	sb	a2,176(s2)
   1d688:	008a5613          	srli	a2,s4,0x8
   1d68c:	0aa91523          	sh	a0,170(s2)
   1d690:	0ab90623          	sb	a1,172(s2)
   1d694:	0b4906a3          	sb	s4,173(s2)
   1d698:	0ac90723          	sb	a2,174(s2)
   1d69c:	7ff10513          	addi	a0,sp,2047
   1d6a0:	04450513          	addi	a0,a0,68
   1d6a4:	6585                	lui	a1,0x1
   1d6a6:	32458593          	addi	a1,a1,804 # 1324 <.Lline_table_start1+0x10f9>
   1d6aa:	958a                	add	a1,a1,sp
   1d6ac:	04200613          	li	a2,66
   1d6b0:	00002097          	auipc	ra,0x2
   1d6b4:	56c080e7          	jalr	1388(ra) # 1fc1c <memcpy>
   1d6b8:	6505                	lui	a0,0x1
   1d6ba:	38050513          	addi	a0,a0,896 # 1380 <.Lline_table_start1+0x1155>
   1d6be:	950a                	add	a0,a0,sp
   1d6c0:	7ff10593          	addi	a1,sp,2047
   1d6c4:	03d58593          	addi	a1,a1,61
   1d6c8:	ffff8097          	auipc	ra,0xffff8
   1d6cc:	bbe080e7          	jalr	-1090(ra) # 15286 <_ZN20complex_dynamic_type3app17h680ce00d5fb8b2b9E>
   1d6d0:	3ecac503          	lbu	a0,1004(s5)
   1d6d4:	c501                	beqz	a0,1d6dc <_start+0x2986>
   1d6d6:	3f0aaa03          	lw	s4,1008(s5)
   1d6da:	a899                	j	1d730 <_start+0x29da>
   1d6dc:	3edac583          	lbu	a1,1005(s5)
   1d6e0:	3eeac603          	lbu	a2,1006(s5)
   1d6e4:	3efac683          	lbu	a3,1007(s5)
   1d6e8:	3f0aaa03          	lw	s4,1008(s5)
   1d6ec:	3f4aa703          	lw	a4,1012(s5)
   1d6f0:	3f8aa783          	lw	a5,1016(s5)
   1d6f4:	3fcaa483          	lw	s1,1020(s5)
   1d6f8:	400aa403          	lw	s0,1024(s5)
   1d6fc:	0622                	slli	a2,a2,0x8
   1d6fe:	38eaa823          	sw	a4,912(s5)
   1d702:	38faaa23          	sw	a5,916(s5)
   1d706:	389aac23          	sw	s1,920(s5)
   1d70a:	388aae23          	sw	s0,924(s5)
   1d70e:	8dd1                	or	a1,a1,a2
   1d710:	404aa603          	lw	a2,1028(s5)
   1d714:	408aa703          	lw	a4,1032(s5)
   1d718:	40caa783          	lw	a5,1036(s5)
   1d71c:	00b11423          	sh	a1,8(sp)
   1d720:	00d10523          	sb	a3,10(sp)
   1d724:	3acaa023          	sw	a2,928(s5)
   1d728:	3aeaa223          	sw	a4,932(s5)
   1d72c:	3afaa423          	sw	a5,936(s5)
   1d730:	c119                	beqz	a0,1d736 <_start+0x29e0>
   1d732:	3c60206f          	j	1faf8 <_start+0x4da2>
   1d736:	00811503          	lh	a0,8(sp)
   1d73a:	00a14583          	lbu	a1,10(sp)
   1d73e:	018a5613          	srli	a2,s4,0x18
   1d742:	010a5693          	srli	a3,s4,0x10
   1d746:	0ed90ca3          	sb	a3,249(s2)
   1d74a:	0ec90d23          	sb	a2,250(s2)
   1d74e:	008a5613          	srli	a2,s4,0x8
   1d752:	0ea91a23          	sh	a0,244(s2)
   1d756:	0eb90b23          	sb	a1,246(s2)
   1d75a:	0f490ba3          	sb	s4,247(s2)
   1d75e:	0ec90c23          	sb	a2,248(s2)
   1d762:	7ff10513          	addi	a0,sp,2047
   1d766:	08e50513          	addi	a0,a0,142
   1d76a:	6585                	lui	a1,0x1
   1d76c:	32458593          	addi	a1,a1,804 # 1324 <.Lline_table_start1+0x10f9>
   1d770:	958a                	add	a1,a1,sp
   1d772:	4671                	li	a2,28
   1d774:	00002097          	auipc	ra,0x2
   1d778:	4a8080e7          	jalr	1192(ra) # 1fc1c <memcpy>
   1d77c:	6505                	lui	a0,0x1
   1d77e:	38050513          	addi	a0,a0,896 # 1380 <.Lline_table_start1+0x1155>
   1d782:	950a                	add	a0,a0,sp
   1d784:	7ff10593          	addi	a1,sp,2047
   1d788:	08758593          	addi	a1,a1,135
   1d78c:	ffff7097          	auipc	ra,0xffff7
   1d790:	ba2080e7          	jalr	-1118(ra) # 1432e <_ZN20complex_dynamic_type3app17h40841e91bc2a706fE>
   1d794:	3ecac483          	lbu	s1,1004(s5)
   1d798:	c481                	beqz	s1,1d7a0 <_start+0x2a4a>
   1d79a:	3f0aaa03          	lw	s4,1008(s5)
   1d79e:	a835                	j	1d7da <_start+0x2a84>
   1d7a0:	3eeac503          	lbu	a0,1006(s5)
   1d7a4:	3edac583          	lbu	a1,1005(s5)
   1d7a8:	3efac603          	lbu	a2,1007(s5)
   1d7ac:	3f0aaa03          	lw	s4,1008(s5)
   1d7b0:	0522                	slli	a0,a0,0x8
   1d7b2:	8d4d                	or	a0,a0,a1
   1d7b4:	00a11423          	sh	a0,8(sp)
   1d7b8:	00c10523          	sb	a2,10(sp)
   1d7bc:	6505                	lui	a0,0x1
   1d7be:	38850513          	addi	a0,a0,904 # 1388 <.Lline_table_start1+0x115d>
   1d7c2:	00a105b3          	add	a1,sp,a0
   1d7c6:	6505                	lui	a0,0x1
   1d7c8:	32450513          	addi	a0,a0,804 # 1324 <.Lline_table_start1+0x10f9>
   1d7cc:	950a                	add	a0,a0,sp
   1d7ce:	02400613          	li	a2,36
   1d7d2:	00002097          	auipc	ra,0x2
   1d7d6:	44a080e7          	jalr	1098(ra) # 1fc1c <memcpy>
   1d7da:	c099                	beqz	s1,1d7e0 <_start+0x2a8a>
   1d7dc:	31c0206f          	j	1faf8 <_start+0x4da2>
   1d7e0:	00811503          	lh	a0,8(sp)
   1d7e4:	00a14583          	lbu	a1,10(sp)
   1d7e8:	018a5613          	srli	a2,s4,0x18
   1d7ec:	010a5693          	srli	a3,s4,0x10
   1d7f0:	10d90ea3          	sb	a3,285(s2)
   1d7f4:	10c90f23          	sb	a2,286(s2)
   1d7f8:	008a5613          	srli	a2,s4,0x8
   1d7fc:	10a91c23          	sh	a0,280(s2)
   1d800:	10b90d23          	sb	a1,282(s2)
   1d804:	11490da3          	sb	s4,283(s2)
   1d808:	10c90e23          	sb	a2,284(s2)
   1d80c:	7ff10513          	addi	a0,sp,2047
   1d810:	0b250513          	addi	a0,a0,178
   1d814:	6585                	lui	a1,0x1
   1d816:	32458593          	addi	a1,a1,804 # 1324 <.Lline_table_start1+0x10f9>
   1d81a:	958a                	add	a1,a1,sp
   1d81c:	02400613          	li	a2,36
   1d820:	00002097          	auipc	ra,0x2
   1d824:	3fc080e7          	jalr	1020(ra) # 1fc1c <memcpy>
   1d828:	6505                	lui	a0,0x1
   1d82a:	38050513          	addi	a0,a0,896 # 1380 <.Lline_table_start1+0x1155>
   1d82e:	950a                	add	a0,a0,sp
   1d830:	7ff10593          	addi	a1,sp,2047
   1d834:	0ab58593          	addi	a1,a1,171
   1d838:	ffffd097          	auipc	ra,0xffffd
   1d83c:	088080e7          	jalr	136(ra) # 1a8c0 <_ZN20complex_dynamic_type3app17hfb5b6f40406c4614E>
   1d840:	3ecac503          	lbu	a0,1004(s5)
   1d844:	c501                	beqz	a0,1d84c <_start+0x2af6>
   1d846:	3f0aaa03          	lw	s4,1008(s5)
   1d84a:	a03d                	j	1d878 <_start+0x2b22>
   1d84c:	3eeac583          	lbu	a1,1006(s5)
   1d850:	3edac603          	lbu	a2,1005(s5)
   1d854:	3efac683          	lbu	a3,1007(s5)
   1d858:	3f0aaa03          	lw	s4,1008(s5)
   1d85c:	05a2                	slli	a1,a1,0x8
   1d85e:	8dd1                	or	a1,a1,a2
   1d860:	3f4aa603          	lw	a2,1012(s5)
   1d864:	3f8a9703          	lh	a4,1016(s5)
   1d868:	00b11423          	sh	a1,8(sp)
   1d86c:	00d10523          	sb	a3,10(sp)
   1d870:	38caa823          	sw	a2,912(s5)
   1d874:	38ea9a23          	sh	a4,916(s5)
   1d878:	c119                	beqz	a0,1d87e <_start+0x2b28>
   1d87a:	27e0206f          	j	1faf8 <_start+0x4da2>
   1d87e:	00811503          	lh	a0,8(sp)
   1d882:	00a14583          	lbu	a1,10(sp)
   1d886:	018a5613          	srli	a2,s4,0x18
   1d88a:	010a5693          	srli	a3,s4,0x10
   1d88e:	008a5713          	srli	a4,s4,0x8
   1d892:	14a91223          	sh	a0,324(s2)
   1d896:	14b90323          	sb	a1,326(s2)
   1d89a:	154903a3          	sb	s4,327(s2)
   1d89e:	14e90423          	sb	a4,328(s2)
   1d8a2:	390ac503          	lbu	a0,912(s5)
   1d8a6:	391ac583          	lbu	a1,913(s5)
   1d8aa:	392ac703          	lbu	a4,914(s5)
   1d8ae:	393ac783          	lbu	a5,915(s5)
   1d8b2:	14d904a3          	sb	a3,329(s2)
   1d8b6:	14c90523          	sb	a2,330(s2)
   1d8ba:	14a905a3          	sb	a0,331(s2)
   1d8be:	14b90623          	sb	a1,332(s2)
   1d8c2:	394ac503          	lbu	a0,916(s5)
   1d8c6:	395ac583          	lbu	a1,917(s5)
   1d8ca:	14e906a3          	sb	a4,333(s2)
   1d8ce:	14f90723          	sb	a5,334(s2)
   1d8d2:	14a907a3          	sb	a0,335(s2)
   1d8d6:	14b90823          	sb	a1,336(s2)
   1d8da:	6505                	lui	a0,0x1
   1d8dc:	38050513          	addi	a0,a0,896 # 1380 <.Lline_table_start1+0x1155>
   1d8e0:	950a                	add	a0,a0,sp
   1d8e2:	7ff10593          	addi	a1,sp,2047
   1d8e6:	0d758593          	addi	a1,a1,215
   1d8ea:	ffffa097          	auipc	ra,0xffffa
   1d8ee:	7fe080e7          	jalr	2046(ra) # 180e8 <_ZN20complex_dynamic_type3app17hbde4a83ae108b15cE>
   1d8f2:	3ecac503          	lbu	a0,1004(s5)
   1d8f6:	c501                	beqz	a0,1d8fe <_start+0x2ba8>
   1d8f8:	3f0aaa03          	lw	s4,1008(s5)
   1d8fc:	a899                	j	1d952 <_start+0x2bfc>
   1d8fe:	3edac583          	lbu	a1,1005(s5)
   1d902:	3eeac603          	lbu	a2,1006(s5)
   1d906:	3efac683          	lbu	a3,1007(s5)
   1d90a:	3f0aaa03          	lw	s4,1008(s5)
   1d90e:	3f4aa703          	lw	a4,1012(s5)
   1d912:	3f8aa783          	lw	a5,1016(s5)
   1d916:	3fcaa483          	lw	s1,1020(s5)
   1d91a:	400aa403          	lw	s0,1024(s5)
   1d91e:	0622                	slli	a2,a2,0x8
   1d920:	38eaa823          	sw	a4,912(s5)
   1d924:	38faaa23          	sw	a5,916(s5)
   1d928:	389aac23          	sw	s1,920(s5)
   1d92c:	388aae23          	sw	s0,924(s5)
   1d930:	8dd1                	or	a1,a1,a2
   1d932:	404aa603          	lw	a2,1028(s5)
   1d936:	408aa703          	lw	a4,1032(s5)
   1d93a:	40ca9783          	lh	a5,1036(s5)
   1d93e:	00b11423          	sh	a1,8(sp)
   1d942:	00d10523          	sb	a3,10(sp)
   1d946:	3acaa023          	sw	a2,928(s5)
   1d94a:	3aeaa223          	sw	a4,932(s5)
   1d94e:	3afa9423          	sh	a5,936(s5)
   1d952:	c119                	beqz	a0,1d958 <_start+0x2c02>
   1d954:	1a40206f          	j	1faf8 <_start+0x4da2>
   1d958:	00811503          	lh	a0,8(sp)
   1d95c:	00a14583          	lbu	a1,10(sp)
   1d960:	018a5613          	srli	a2,s4,0x18
   1d964:	010a5693          	srli	a3,s4,0x10
   1d968:	14d90ba3          	sb	a3,343(s2)
   1d96c:	14c90c23          	sb	a2,344(s2)
   1d970:	008a5613          	srli	a2,s4,0x8
   1d974:	14a91923          	sh	a0,338(s2)
   1d978:	14b90a23          	sb	a1,340(s2)
   1d97c:	15490aa3          	sb	s4,341(s2)
   1d980:	14c90b23          	sb	a2,342(s2)
   1d984:	7ff10513          	addi	a0,sp,2047
   1d988:	0ec50513          	addi	a0,a0,236
   1d98c:	6585                	lui	a1,0x1
   1d98e:	32458593          	addi	a1,a1,804 # 1324 <.Lline_table_start1+0x10f9>
   1d992:	958a                	add	a1,a1,sp
   1d994:	4669                	li	a2,26
   1d996:	00002097          	auipc	ra,0x2
   1d99a:	286080e7          	jalr	646(ra) # 1fc1c <memcpy>
   1d99e:	6505                	lui	a0,0x1
   1d9a0:	38050513          	addi	a0,a0,896 # 1380 <.Lline_table_start1+0x1155>
   1d9a4:	950a                	add	a0,a0,sp
   1d9a6:	7ff10593          	addi	a1,sp,2047
   1d9aa:	0e558593          	addi	a1,a1,229
   1d9ae:	ffff5097          	auipc	ra,0xffff5
   1d9b2:	0d2080e7          	jalr	210(ra) # 12a80 <_ZN20complex_dynamic_type3app17h146e1f1d799ced70E>
   1d9b6:	3ecac483          	lbu	s1,1004(s5)
   1d9ba:	c481                	beqz	s1,1d9c2 <_start+0x2c6c>
   1d9bc:	3f0aaa03          	lw	s4,1008(s5)
   1d9c0:	a835                	j	1d9fc <_start+0x2ca6>
   1d9c2:	3eeac503          	lbu	a0,1006(s5)
   1d9c6:	3edac583          	lbu	a1,1005(s5)
   1d9ca:	3efac603          	lbu	a2,1007(s5)
   1d9ce:	3f0aaa03          	lw	s4,1008(s5)
   1d9d2:	0522                	slli	a0,a0,0x8
   1d9d4:	8d4d                	or	a0,a0,a1
   1d9d6:	00a11423          	sh	a0,8(sp)
   1d9da:	00c10523          	sb	a2,10(sp)
   1d9de:	6505                	lui	a0,0x1
   1d9e0:	38850513          	addi	a0,a0,904 # 1388 <.Lline_table_start1+0x115d>
   1d9e4:	00a105b3          	add	a1,sp,a0
   1d9e8:	6505                	lui	a0,0x1
   1d9ea:	32450513          	addi	a0,a0,804 # 1324 <.Lline_table_start1+0x10f9>
   1d9ee:	950a                	add	a0,a0,sp
   1d9f0:	04c00613          	li	a2,76
   1d9f4:	00002097          	auipc	ra,0x2
   1d9f8:	228080e7          	jalr	552(ra) # 1fc1c <memcpy>
   1d9fc:	c099                	beqz	s1,1da02 <_start+0x2cac>
   1d9fe:	0fa0206f          	j	1faf8 <_start+0x4da2>
   1da02:	00811503          	lh	a0,8(sp)
   1da06:	00a14583          	lbu	a1,10(sp)
   1da0a:	018a5613          	srli	a2,s4,0x18
   1da0e:	010a5693          	srli	a3,s4,0x10
   1da12:	16d90ca3          	sb	a3,377(s2)
   1da16:	16c90d23          	sb	a2,378(s2)
   1da1a:	008a5613          	srli	a2,s4,0x8
   1da1e:	16a91a23          	sh	a0,372(s2)
   1da22:	16b90b23          	sb	a1,374(s2)
   1da26:	17490ba3          	sb	s4,375(s2)
   1da2a:	16c90c23          	sb	a2,376(s2)
   1da2e:	7ff10513          	addi	a0,sp,2047
   1da32:	10e50513          	addi	a0,a0,270
   1da36:	6585                	lui	a1,0x1
   1da38:	32458593          	addi	a1,a1,804 # 1324 <.Lline_table_start1+0x10f9>
   1da3c:	958a                	add	a1,a1,sp
   1da3e:	04c00613          	li	a2,76
   1da42:	00002097          	auipc	ra,0x2
   1da46:	1da080e7          	jalr	474(ra) # 1fc1c <memcpy>
   1da4a:	6505                	lui	a0,0x1
   1da4c:	38050513          	addi	a0,a0,896 # 1380 <.Lline_table_start1+0x1155>
   1da50:	950a                	add	a0,a0,sp
   1da52:	7ff10593          	addi	a1,sp,2047
   1da56:	10758593          	addi	a1,a1,263
   1da5a:	ffffa097          	auipc	ra,0xffffa
   1da5e:	d38080e7          	jalr	-712(ra) # 17792 <_ZN20complex_dynamic_type3app17ha97ccd0dc4479cbfE>
   1da62:	3ecac483          	lbu	s1,1004(s5)
   1da66:	c481                	beqz	s1,1da6e <_start+0x2d18>
   1da68:	3f0aaa03          	lw	s4,1008(s5)
   1da6c:	a835                	j	1daa8 <_start+0x2d52>
   1da6e:	3eeac503          	lbu	a0,1006(s5)
   1da72:	3edac583          	lbu	a1,1005(s5)
   1da76:	3efac603          	lbu	a2,1007(s5)
   1da7a:	3f0aaa03          	lw	s4,1008(s5)
   1da7e:	0522                	slli	a0,a0,0x8
   1da80:	8d4d                	or	a0,a0,a1
   1da82:	00a11423          	sh	a0,8(sp)
   1da86:	00c10523          	sb	a2,10(sp)
   1da8a:	6505                	lui	a0,0x1
   1da8c:	38850513          	addi	a0,a0,904 # 1388 <.Lline_table_start1+0x115d>
   1da90:	00a105b3          	add	a1,sp,a0
   1da94:	6505                	lui	a0,0x1
   1da96:	32450513          	addi	a0,a0,804 # 1324 <.Lline_table_start1+0x10f9>
   1da9a:	950a                	add	a0,a0,sp
   1da9c:	04600613          	li	a2,70
   1daa0:	00002097          	auipc	ra,0x2
   1daa4:	17c080e7          	jalr	380(ra) # 1fc1c <memcpy>
   1daa8:	c099                	beqz	s1,1daae <_start+0x2d58>
   1daaa:	04e0206f          	j	1faf8 <_start+0x4da2>
   1daae:	00811503          	lh	a0,8(sp)
   1dab2:	00a14583          	lbu	a1,10(sp)
   1dab6:	018a5613          	srli	a2,s4,0x18
   1daba:	010a5693          	srli	a3,s4,0x10
   1dabe:	1cd906a3          	sb	a3,461(s2)
   1dac2:	1cc90723          	sb	a2,462(s2)
   1dac6:	008a5613          	srli	a2,s4,0x8
   1daca:	1ca91423          	sh	a0,456(s2)
   1dace:	1cb90523          	sb	a1,458(s2)
   1dad2:	1d4905a3          	sb	s4,459(s2)
   1dad6:	1cc90623          	sb	a2,460(s2)
   1dada:	7ff10513          	addi	a0,sp,2047
   1dade:	16250513          	addi	a0,a0,354
   1dae2:	6585                	lui	a1,0x1
   1dae4:	32458593          	addi	a1,a1,804 # 1324 <.Lline_table_start1+0x10f9>
   1dae8:	958a                	add	a1,a1,sp
   1daea:	04600613          	li	a2,70
   1daee:	00002097          	auipc	ra,0x2
   1daf2:	12e080e7          	jalr	302(ra) # 1fc1c <memcpy>
   1daf6:	6505                	lui	a0,0x1
   1daf8:	38050513          	addi	a0,a0,896 # 1380 <.Lline_table_start1+0x1155>
   1dafc:	950a                	add	a0,a0,sp
   1dafe:	7ff10593          	addi	a1,sp,2047
   1db02:	15b58593          	addi	a1,a1,347
   1db06:	ffffb097          	auipc	ra,0xffffb
   1db0a:	07c080e7          	jalr	124(ra) # 18b82 <_ZN20complex_dynamic_type3app17hd8fb5db84c6d1679E>
   1db0e:	3ecac483          	lbu	s1,1004(s5)
   1db12:	c481                	beqz	s1,1db1a <_start+0x2dc4>
   1db14:	3f0aaa03          	lw	s4,1008(s5)
   1db18:	a835                	j	1db54 <_start+0x2dfe>
   1db1a:	3eeac503          	lbu	a0,1006(s5)
   1db1e:	3edac583          	lbu	a1,1005(s5)
   1db22:	3efac603          	lbu	a2,1007(s5)
   1db26:	3f0aaa03          	lw	s4,1008(s5)
   1db2a:	0522                	slli	a0,a0,0x8
   1db2c:	8d4d                	or	a0,a0,a1
   1db2e:	00a11423          	sh	a0,8(sp)
   1db32:	00c10523          	sb	a2,10(sp)
   1db36:	6505                	lui	a0,0x1
   1db38:	38850513          	addi	a0,a0,904 # 1388 <.Lline_table_start1+0x115d>
   1db3c:	00a105b3          	add	a1,sp,a0
   1db40:	6505                	lui	a0,0x1
   1db42:	32450513          	addi	a0,a0,804 # 1324 <.Lline_table_start1+0x10f9>
   1db46:	950a                	add	a0,a0,sp
   1db48:	03500613          	li	a2,53
   1db4c:	00002097          	auipc	ra,0x2
   1db50:	0d0080e7          	jalr	208(ra) # 1fc1c <memcpy>
   1db54:	c099                	beqz	s1,1db5a <_start+0x2e04>
   1db56:	7a30106f          	j	1faf8 <_start+0x4da2>
   1db5a:	00811503          	lh	a0,8(sp)
   1db5e:	00a14583          	lbu	a1,10(sp)
   1db62:	018a5613          	srli	a2,s4,0x18
   1db66:	010a5693          	srli	a3,s4,0x10
   1db6a:	20d90da3          	sb	a3,539(s2)
   1db6e:	20c90e23          	sb	a2,540(s2)
   1db72:	008a5613          	srli	a2,s4,0x8
   1db76:	20a91b23          	sh	a0,534(s2)
   1db7a:	20b90c23          	sb	a1,536(s2)
   1db7e:	21490ca3          	sb	s4,537(s2)
   1db82:	20c90d23          	sb	a2,538(s2)
   1db86:	7ff10513          	addi	a0,sp,2047
   1db8a:	1b050513          	addi	a0,a0,432
   1db8e:	6585                	lui	a1,0x1
   1db90:	32458593          	addi	a1,a1,804 # 1324 <.Lline_table_start1+0x10f9>
   1db94:	958a                	add	a1,a1,sp
   1db96:	03500613          	li	a2,53
   1db9a:	00002097          	auipc	ra,0x2
   1db9e:	082080e7          	jalr	130(ra) # 1fc1c <memcpy>
   1dba2:	6505                	lui	a0,0x1
   1dba4:	38050513          	addi	a0,a0,896 # 1380 <.Lline_table_start1+0x1155>
   1dba8:	950a                	add	a0,a0,sp
   1dbaa:	7ff10593          	addi	a1,sp,2047
   1dbae:	1a958593          	addi	a1,a1,425
   1dbb2:	ffff5097          	auipc	ra,0xffff5
   1dbb6:	896080e7          	jalr	-1898(ra) # 12448 <_ZN20complex_dynamic_type3app17h092ebbbf7e0a0ce5E>
   1dbba:	3ecac483          	lbu	s1,1004(s5)
   1dbbe:	c481                	beqz	s1,1dbc6 <_start+0x2e70>
   1dbc0:	3f0aaa03          	lw	s4,1008(s5)
   1dbc4:	a835                	j	1dc00 <_start+0x2eaa>
   1dbc6:	3eeac503          	lbu	a0,1006(s5)
   1dbca:	3edac583          	lbu	a1,1005(s5)
   1dbce:	3efac603          	lbu	a2,1007(s5)
   1dbd2:	3f0aaa03          	lw	s4,1008(s5)
   1dbd6:	0522                	slli	a0,a0,0x8
   1dbd8:	8d4d                	or	a0,a0,a1
   1dbda:	00a11423          	sh	a0,8(sp)
   1dbde:	00c10523          	sb	a2,10(sp)
   1dbe2:	6505                	lui	a0,0x1
   1dbe4:	38850513          	addi	a0,a0,904 # 1388 <.Lline_table_start1+0x115d>
   1dbe8:	00a105b3          	add	a1,sp,a0
   1dbec:	6505                	lui	a0,0x1
   1dbee:	32450513          	addi	a0,a0,804 # 1324 <.Lline_table_start1+0x10f9>
   1dbf2:	950a                	add	a0,a0,sp
   1dbf4:	03100613          	li	a2,49
   1dbf8:	00002097          	auipc	ra,0x2
   1dbfc:	024080e7          	jalr	36(ra) # 1fc1c <memcpy>
   1dc00:	c099                	beqz	s1,1dc06 <_start+0x2eb0>
   1dc02:	6f70106f          	j	1faf8 <_start+0x4da2>
   1dc06:	00811503          	lh	a0,8(sp)
   1dc0a:	00a14583          	lbu	a1,10(sp)
   1dc0e:	018a5613          	srli	a2,s4,0x18
   1dc12:	010a5693          	srli	a3,s4,0x10
   1dc16:	24d90ba3          	sb	a3,599(s2)
   1dc1a:	24c90c23          	sb	a2,600(s2)
   1dc1e:	008a5613          	srli	a2,s4,0x8
   1dc22:	24a91923          	sh	a0,594(s2)
   1dc26:	24b90a23          	sb	a1,596(s2)
   1dc2a:	25490aa3          	sb	s4,597(s2)
   1dc2e:	24c90b23          	sb	a2,598(s2)
   1dc32:	7ff10513          	addi	a0,sp,2047
   1dc36:	1ec50513          	addi	a0,a0,492
   1dc3a:	6585                	lui	a1,0x1
   1dc3c:	32458593          	addi	a1,a1,804 # 1324 <.Lline_table_start1+0x10f9>
   1dc40:	958a                	add	a1,a1,sp
   1dc42:	03100613          	li	a2,49
   1dc46:	00002097          	auipc	ra,0x2
   1dc4a:	fd6080e7          	jalr	-42(ra) # 1fc1c <memcpy>
   1dc4e:	6505                	lui	a0,0x1
   1dc50:	38050513          	addi	a0,a0,896 # 1380 <.Lline_table_start1+0x1155>
   1dc54:	950a                	add	a0,a0,sp
   1dc56:	7ff10593          	addi	a1,sp,2047
   1dc5a:	1e558593          	addi	a1,a1,485
   1dc5e:	ffffb097          	auipc	ra,0xffffb
   1dc62:	244080e7          	jalr	580(ra) # 18ea2 <_ZN20complex_dynamic_type3app17hdba3a5619152bb96E>
   1dc66:	3ecac503          	lbu	a0,1004(s5)
   1dc6a:	c501                	beqz	a0,1dc72 <_start+0x2f1c>
   1dc6c:	3f0aaa03          	lw	s4,1008(s5)
   1dc70:	a8b9                	j	1dcce <_start+0x2f78>
   1dc72:	3edac583          	lbu	a1,1005(s5)
   1dc76:	3eeac603          	lbu	a2,1006(s5)
   1dc7a:	3efac683          	lbu	a3,1007(s5)
   1dc7e:	3f0aaa03          	lw	s4,1008(s5)
   1dc82:	3f4aa703          	lw	a4,1012(s5)
   1dc86:	3f8aa783          	lw	a5,1016(s5)
   1dc8a:	3fcaa483          	lw	s1,1020(s5)
   1dc8e:	400aa403          	lw	s0,1024(s5)
   1dc92:	0622                	slli	a2,a2,0x8
   1dc94:	38eaa823          	sw	a4,912(s5)
   1dc98:	38faaa23          	sw	a5,916(s5)
   1dc9c:	389aac23          	sw	s1,920(s5)
   1dca0:	388aae23          	sw	s0,924(s5)
   1dca4:	8dd1                	or	a1,a1,a2
   1dca6:	00b11423          	sh	a1,8(sp)
   1dcaa:	00d10523          	sb	a3,10(sp)
   1dcae:	404aa583          	lw	a1,1028(s5)
   1dcb2:	408aa603          	lw	a2,1032(s5)
   1dcb6:	40caa683          	lw	a3,1036(s5)
   1dcba:	410aa703          	lw	a4,1040(s5)
   1dcbe:	3abaa023          	sw	a1,928(s5)
   1dcc2:	3acaa223          	sw	a2,932(s5)
   1dcc6:	3adaa423          	sw	a3,936(s5)
   1dcca:	3aeaa623          	sw	a4,940(s5)
   1dcce:	c119                	beqz	a0,1dcd4 <_start+0x2f7e>
   1dcd0:	6290106f          	j	1faf8 <_start+0x4da2>
   1dcd4:	00811503          	lh	a0,8(sp)
   1dcd8:	00a14583          	lbu	a1,10(sp)
   1dcdc:	018a5613          	srli	a2,s4,0x18
   1dce0:	010a5693          	srli	a3,s4,0x10
   1dce4:	28d907a3          	sb	a3,655(s2)
   1dce8:	28c90823          	sb	a2,656(s2)
   1dcec:	008a5613          	srli	a2,s4,0x8
   1dcf0:	28a91523          	sh	a0,650(s2)
   1dcf4:	28b90623          	sb	a1,652(s2)
   1dcf8:	294906a3          	sb	s4,653(s2)
   1dcfc:	28c90723          	sb	a2,654(s2)
   1dd00:	7ff10513          	addi	a0,sp,2047
   1dd04:	22450513          	addi	a0,a0,548
   1dd08:	6585                	lui	a1,0x1
   1dd0a:	32458593          	addi	a1,a1,804 # 1324 <.Lline_table_start1+0x10f9>
   1dd0e:	958a                	add	a1,a1,sp
   1dd10:	02000613          	li	a2,32
   1dd14:	00002097          	auipc	ra,0x2
   1dd18:	f08080e7          	jalr	-248(ra) # 1fc1c <memcpy>
   1dd1c:	6505                	lui	a0,0x1
   1dd1e:	38050513          	addi	a0,a0,896 # 1380 <.Lline_table_start1+0x1155>
   1dd22:	950a                	add	a0,a0,sp
   1dd24:	7ff10593          	addi	a1,sp,2047
   1dd28:	21d58593          	addi	a1,a1,541
   1dd2c:	ffffa097          	auipc	ra,0xffffa
   1dd30:	22c080e7          	jalr	556(ra) # 17f58 <_ZN20complex_dynamic_type3app17hb7f39d0bd8e4b813E>
   1dd34:	3ecac483          	lbu	s1,1004(s5)
   1dd38:	c481                	beqz	s1,1dd40 <_start+0x2fea>
   1dd3a:	3f0aaa03          	lw	s4,1008(s5)
   1dd3e:	a835                	j	1dd7a <_start+0x3024>
   1dd40:	3eeac503          	lbu	a0,1006(s5)
   1dd44:	3edac583          	lbu	a1,1005(s5)
   1dd48:	3efac603          	lbu	a2,1007(s5)
   1dd4c:	3f0aaa03          	lw	s4,1008(s5)
   1dd50:	0522                	slli	a0,a0,0x8
   1dd52:	8d4d                	or	a0,a0,a1
   1dd54:	00a11423          	sh	a0,8(sp)
   1dd58:	00c10523          	sb	a2,10(sp)
   1dd5c:	6505                	lui	a0,0x1
   1dd5e:	38850513          	addi	a0,a0,904 # 1388 <.Lline_table_start1+0x115d>
   1dd62:	00a105b3          	add	a1,sp,a0
   1dd66:	6505                	lui	a0,0x1
   1dd68:	32450513          	addi	a0,a0,804 # 1324 <.Lline_table_start1+0x10f9>
   1dd6c:	950a                	add	a0,a0,sp
   1dd6e:	04a00613          	li	a2,74
   1dd72:	00002097          	auipc	ra,0x2
   1dd76:	eaa080e7          	jalr	-342(ra) # 1fc1c <memcpy>
   1dd7a:	c099                	beqz	s1,1dd80 <_start+0x302a>
   1dd7c:	57d0106f          	j	1faf8 <_start+0x4da2>
   1dd80:	00811503          	lh	a0,8(sp)
   1dd84:	00a14583          	lbu	a1,10(sp)
   1dd88:	018a5613          	srli	a2,s4,0x18
   1dd8c:	010a5693          	srli	a3,s4,0x10
   1dd90:	2ad90ba3          	sb	a3,695(s2)
   1dd94:	2ac90c23          	sb	a2,696(s2)
   1dd98:	008a5613          	srli	a2,s4,0x8
   1dd9c:	2aa91923          	sh	a0,690(s2)
   1dda0:	2ab90a23          	sb	a1,692(s2)
   1dda4:	2b490aa3          	sb	s4,693(s2)
   1dda8:	2ac90b23          	sb	a2,694(s2)
   1ddac:	7ff10513          	addi	a0,sp,2047
   1ddb0:	24c50513          	addi	a0,a0,588
   1ddb4:	6585                	lui	a1,0x1
   1ddb6:	32458593          	addi	a1,a1,804 # 1324 <.Lline_table_start1+0x10f9>
   1ddba:	958a                	add	a1,a1,sp
   1ddbc:	04a00613          	li	a2,74
   1ddc0:	00002097          	auipc	ra,0x2
   1ddc4:	e5c080e7          	jalr	-420(ra) # 1fc1c <memcpy>
   1ddc8:	6505                	lui	a0,0x1
   1ddca:	38050513          	addi	a0,a0,896 # 1380 <.Lline_table_start1+0x1155>
   1ddce:	950a                	add	a0,a0,sp
   1ddd0:	7ff10593          	addi	a1,sp,2047
   1ddd4:	24558593          	addi	a1,a1,581
   1ddd8:	ffff6097          	auipc	ra,0xffff6
   1dddc:	a86080e7          	jalr	-1402(ra) # 1385e <_ZN20complex_dynamic_type3app17h222f028fcb31587fE>
   1dde0:	3ecac483          	lbu	s1,1004(s5)
   1dde4:	c481                	beqz	s1,1ddec <_start+0x3096>
   1dde6:	3f0aaa03          	lw	s4,1008(s5)
   1ddea:	a835                	j	1de26 <_start+0x30d0>
   1ddec:	3eeac503          	lbu	a0,1006(s5)
   1ddf0:	3edac583          	lbu	a1,1005(s5)
   1ddf4:	3efac603          	lbu	a2,1007(s5)
   1ddf8:	3f0aaa03          	lw	s4,1008(s5)
   1ddfc:	0522                	slli	a0,a0,0x8
   1ddfe:	8d4d                	or	a0,a0,a1
   1de00:	00a11423          	sh	a0,8(sp)
   1de04:	00c10523          	sb	a2,10(sp)
   1de08:	6505                	lui	a0,0x1
   1de0a:	38850513          	addi	a0,a0,904 # 1388 <.Lline_table_start1+0x115d>
   1de0e:	00a105b3          	add	a1,sp,a0
   1de12:	6505                	lui	a0,0x1
   1de14:	32450513          	addi	a0,a0,804 # 1324 <.Lline_table_start1+0x10f9>
   1de18:	950a                	add	a0,a0,sp
   1de1a:	04800613          	li	a2,72
   1de1e:	00002097          	auipc	ra,0x2
   1de22:	dfe080e7          	jalr	-514(ra) # 1fc1c <memcpy>
   1de26:	c099                	beqz	s1,1de2c <_start+0x30d6>
   1de28:	4d10106f          	j	1faf8 <_start+0x4da2>
   1de2c:	00811503          	lh	a0,8(sp)
   1de30:	00a14583          	lbu	a1,10(sp)
   1de34:	018a5613          	srli	a2,s4,0x18
   1de38:	010a5693          	srli	a3,s4,0x10
   1de3c:	30d904a3          	sb	a3,777(s2)
   1de40:	30c90523          	sb	a2,778(s2)
   1de44:	008a5613          	srli	a2,s4,0x8
   1de48:	30a91223          	sh	a0,772(s2)
   1de4c:	30b90323          	sb	a1,774(s2)
   1de50:	314903a3          	sb	s4,775(s2)
   1de54:	30c90423          	sb	a2,776(s2)
   1de58:	7ff10513          	addi	a0,sp,2047
   1de5c:	29e50513          	addi	a0,a0,670
   1de60:	6585                	lui	a1,0x1
   1de62:	32458593          	addi	a1,a1,804 # 1324 <.Lline_table_start1+0x10f9>
   1de66:	958a                	add	a1,a1,sp
   1de68:	04800613          	li	a2,72
   1de6c:	00002097          	auipc	ra,0x2
   1de70:	db0080e7          	jalr	-592(ra) # 1fc1c <memcpy>
   1de74:	6505                	lui	a0,0x1
   1de76:	38050513          	addi	a0,a0,896 # 1380 <.Lline_table_start1+0x1155>
   1de7a:	950a                	add	a0,a0,sp
   1de7c:	7ff10593          	addi	a1,sp,2047
   1de80:	29758593          	addi	a1,a1,663
   1de84:	ffffb097          	auipc	ra,0xffffb
   1de88:	33c080e7          	jalr	828(ra) # 191c0 <_ZN20complex_dynamic_type3app17hdf99f5683badbb8fE>
   1de8c:	3ecac483          	lbu	s1,1004(s5)
   1de90:	c481                	beqz	s1,1de98 <_start+0x3142>
   1de92:	3f0aaa03          	lw	s4,1008(s5)
   1de96:	a835                	j	1ded2 <_start+0x317c>
   1de98:	3eeac503          	lbu	a0,1006(s5)
   1de9c:	3edac583          	lbu	a1,1005(s5)
   1dea0:	3efac603          	lbu	a2,1007(s5)
   1dea4:	3f0aaa03          	lw	s4,1008(s5)
   1dea8:	0522                	slli	a0,a0,0x8
   1deaa:	8d4d                	or	a0,a0,a1
   1deac:	00a11423          	sh	a0,8(sp)
   1deb0:	00c10523          	sb	a2,10(sp)
   1deb4:	6505                	lui	a0,0x1
   1deb6:	38850513          	addi	a0,a0,904 # 1388 <.Lline_table_start1+0x115d>
   1deba:	00a105b3          	add	a1,sp,a0
   1debe:	6505                	lui	a0,0x1
   1dec0:	32450513          	addi	a0,a0,804 # 1324 <.Lline_table_start1+0x10f9>
   1dec4:	950a                	add	a0,a0,sp
   1dec6:	05a00613          	li	a2,90
   1deca:	00002097          	auipc	ra,0x2
   1dece:	d52080e7          	jalr	-686(ra) # 1fc1c <memcpy>
   1ded2:	c099                	beqz	s1,1ded8 <_start+0x3182>
   1ded4:	4250106f          	j	1faf8 <_start+0x4da2>
   1ded8:	00811503          	lh	a0,8(sp)
   1dedc:	00a14583          	lbu	a1,10(sp)
   1dee0:	018a5613          	srli	a2,s4,0x18
   1dee4:	010a5693          	srli	a3,s4,0x10
   1dee8:	34d90ca3          	sb	a3,857(s2)
   1deec:	34c90d23          	sb	a2,858(s2)
   1def0:	008a5613          	srli	a2,s4,0x8
   1def4:	34a91a23          	sh	a0,852(s2)
   1def8:	34b90b23          	sb	a1,854(s2)
   1defc:	35490ba3          	sb	s4,855(s2)
   1df00:	34c90c23          	sb	a2,856(s2)
   1df04:	7ff10513          	addi	a0,sp,2047
   1df08:	2ee50513          	addi	a0,a0,750
   1df0c:	6585                	lui	a1,0x1
   1df0e:	32458593          	addi	a1,a1,804 # 1324 <.Lline_table_start1+0x10f9>
   1df12:	958a                	add	a1,a1,sp
   1df14:	05a00613          	li	a2,90
   1df18:	00002097          	auipc	ra,0x2
   1df1c:	d04080e7          	jalr	-764(ra) # 1fc1c <memcpy>
   1df20:	6505                	lui	a0,0x1
   1df22:	38050513          	addi	a0,a0,896 # 1380 <.Lline_table_start1+0x1155>
   1df26:	950a                	add	a0,a0,sp
   1df28:	7ff10593          	addi	a1,sp,2047
   1df2c:	2e758593          	addi	a1,a1,743
   1df30:	ffffc097          	auipc	ra,0xffffc
   1df34:	37a080e7          	jalr	890(ra) # 1a2aa <_ZN20complex_dynamic_type3app17hf6c02d34df903c1fE>
   1df38:	3ecac503          	lbu	a0,1004(s5)
   1df3c:	c501                	beqz	a0,1df44 <_start+0x31ee>
   1df3e:	3f0aaa03          	lw	s4,1008(s5)
   1df42:	a899                	j	1df98 <_start+0x3242>
   1df44:	3edac583          	lbu	a1,1005(s5)
   1df48:	3eeac603          	lbu	a2,1006(s5)
   1df4c:	3efac683          	lbu	a3,1007(s5)
   1df50:	3f0aaa03          	lw	s4,1008(s5)
   1df54:	3f4aa703          	lw	a4,1012(s5)
   1df58:	3f8aa783          	lw	a5,1016(s5)
   1df5c:	3fcaa483          	lw	s1,1020(s5)
   1df60:	400aa403          	lw	s0,1024(s5)
   1df64:	0622                	slli	a2,a2,0x8
   1df66:	38eaa823          	sw	a4,912(s5)
   1df6a:	38faaa23          	sw	a5,916(s5)
   1df6e:	389aac23          	sw	s1,920(s5)
   1df72:	388aae23          	sw	s0,924(s5)
   1df76:	8dd1                	or	a1,a1,a2
   1df78:	404aa603          	lw	a2,1028(s5)
   1df7c:	408a9703          	lh	a4,1032(s5)
   1df80:	40aac783          	lbu	a5,1034(s5)
   1df84:	00b11423          	sh	a1,8(sp)
   1df88:	00d10523          	sb	a3,10(sp)
   1df8c:	3acaa023          	sw	a2,928(s5)
   1df90:	3aea9223          	sh	a4,932(s5)
   1df94:	3afa8323          	sb	a5,934(s5)
   1df98:	c119                	beqz	a0,1df9e <_start+0x3248>
   1df9a:	35f0106f          	j	1faf8 <_start+0x4da2>
   1df9e:	00811503          	lh	a0,8(sp)
   1dfa2:	00a14583          	lbu	a1,10(sp)
   1dfa6:	018a5613          	srli	a2,s4,0x18
   1dfaa:	010a5693          	srli	a3,s4,0x10
   1dfae:	3ad90da3          	sb	a3,955(s2)
   1dfb2:	3ac90e23          	sb	a2,956(s2)
   1dfb6:	008a5613          	srli	a2,s4,0x8
   1dfba:	3aa91b23          	sh	a0,950(s2)
   1dfbe:	3ab90c23          	sb	a1,952(s2)
   1dfc2:	3b490ca3          	sb	s4,953(s2)
   1dfc6:	3ac90d23          	sb	a2,954(s2)
   1dfca:	7ff10513          	addi	a0,sp,2047
   1dfce:	35050513          	addi	a0,a0,848
   1dfd2:	6585                	lui	a1,0x1
   1dfd4:	32458593          	addi	a1,a1,804 # 1324 <.Lline_table_start1+0x10f9>
   1dfd8:	958a                	add	a1,a1,sp
   1dfda:	465d                	li	a2,23
   1dfdc:	00002097          	auipc	ra,0x2
   1dfe0:	c40080e7          	jalr	-960(ra) # 1fc1c <memcpy>
   1dfe4:	6505                	lui	a0,0x1
   1dfe6:	38050513          	addi	a0,a0,896 # 1380 <.Lline_table_start1+0x1155>
   1dfea:	950a                	add	a0,a0,sp
   1dfec:	7ff10593          	addi	a1,sp,2047
   1dff0:	34958593          	addi	a1,a1,841
   1dff4:	ffff8097          	auipc	ra,0xffff8
   1dff8:	be8080e7          	jalr	-1048(ra) # 15bdc <_ZN20complex_dynamic_type3app17h790dc27ac2af17ddE>
   1dffc:	3ecac503          	lbu	a0,1004(s5)
   1e000:	c501                	beqz	a0,1e008 <_start+0x32b2>
   1e002:	3f0aaa03          	lw	s4,1008(s5)
   1e006:	a899                	j	1e05c <_start+0x3306>
   1e008:	3edac583          	lbu	a1,1005(s5)
   1e00c:	3eeac603          	lbu	a2,1006(s5)
   1e010:	3efac683          	lbu	a3,1007(s5)
   1e014:	3f0aaa03          	lw	s4,1008(s5)
   1e018:	3f4aa703          	lw	a4,1012(s5)
   1e01c:	3f8aa783          	lw	a5,1016(s5)
   1e020:	3fcaa483          	lw	s1,1020(s5)
   1e024:	400aa403          	lw	s0,1024(s5)
   1e028:	0622                	slli	a2,a2,0x8
   1e02a:	38eaa823          	sw	a4,912(s5)
   1e02e:	38faaa23          	sw	a5,916(s5)
   1e032:	389aac23          	sw	s1,920(s5)
   1e036:	388aae23          	sw	s0,924(s5)
   1e03a:	8dd1                	or	a1,a1,a2
   1e03c:	404aa603          	lw	a2,1028(s5)
   1e040:	408aa703          	lw	a4,1032(s5)
   1e044:	40ca9783          	lh	a5,1036(s5)
   1e048:	00b11423          	sh	a1,8(sp)
   1e04c:	00d10523          	sb	a3,10(sp)
   1e050:	3acaa023          	sw	a2,928(s5)
   1e054:	3aeaa223          	sw	a4,932(s5)
   1e058:	3afa9423          	sh	a5,936(s5)
   1e05c:	c119                	beqz	a0,1e062 <_start+0x330c>
   1e05e:	29b0106f          	j	1faf8 <_start+0x4da2>
   1e062:	00811503          	lh	a0,8(sp)
   1e066:	00a14583          	lbu	a1,10(sp)
   1e06a:	018a5613          	srli	a2,s4,0x18
   1e06e:	010a5693          	srli	a3,s4,0x10
   1e072:	3cd90ca3          	sb	a3,985(s2)
   1e076:	3cc90d23          	sb	a2,986(s2)
   1e07a:	008a5613          	srli	a2,s4,0x8
   1e07e:	3ca91a23          	sh	a0,980(s2)
   1e082:	3cb90b23          	sb	a1,982(s2)
   1e086:	3d490ba3          	sb	s4,983(s2)
   1e08a:	3cc90c23          	sb	a2,984(s2)
   1e08e:	7ff10513          	addi	a0,sp,2047
   1e092:	36e50513          	addi	a0,a0,878
   1e096:	6585                	lui	a1,0x1
   1e098:	32458593          	addi	a1,a1,804 # 1324 <.Lline_table_start1+0x10f9>
   1e09c:	958a                	add	a1,a1,sp
   1e09e:	4669                	li	a2,26
   1e0a0:	00002097          	auipc	ra,0x2
   1e0a4:	b7c080e7          	jalr	-1156(ra) # 1fc1c <memcpy>
   1e0a8:	6505                	lui	a0,0x1
   1e0aa:	38050513          	addi	a0,a0,896 # 1380 <.Lline_table_start1+0x1155>
   1e0ae:	950a                	add	a0,a0,sp
   1e0b0:	7ff10593          	addi	a1,sp,2047
   1e0b4:	36758593          	addi	a1,a1,871
   1e0b8:	ffff7097          	auipc	ra,0xffff7
   1e0bc:	35a080e7          	jalr	858(ra) # 15412 <_ZN20complex_dynamic_type3app17h695125e0033f2defE>
   1e0c0:	3ecac483          	lbu	s1,1004(s5)
   1e0c4:	c481                	beqz	s1,1e0cc <_start+0x3376>
   1e0c6:	3f0aaa03          	lw	s4,1008(s5)
   1e0ca:	a835                	j	1e106 <_start+0x33b0>
   1e0cc:	3eeac503          	lbu	a0,1006(s5)
   1e0d0:	3edac583          	lbu	a1,1005(s5)
   1e0d4:	3efac603          	lbu	a2,1007(s5)
   1e0d8:	3f0aaa03          	lw	s4,1008(s5)
   1e0dc:	0522                	slli	a0,a0,0x8
   1e0de:	8d4d                	or	a0,a0,a1
   1e0e0:	00a11423          	sh	a0,8(sp)
   1e0e4:	00c10523          	sb	a2,10(sp)
   1e0e8:	6505                	lui	a0,0x1
   1e0ea:	38850513          	addi	a0,a0,904 # 1388 <.Lline_table_start1+0x115d>
   1e0ee:	00a105b3          	add	a1,sp,a0
   1e0f2:	6505                	lui	a0,0x1
   1e0f4:	32450513          	addi	a0,a0,804 # 1324 <.Lline_table_start1+0x10f9>
   1e0f8:	950a                	add	a0,a0,sp
   1e0fa:	02300613          	li	a2,35
   1e0fe:	00002097          	auipc	ra,0x2
   1e102:	b1e080e7          	jalr	-1250(ra) # 1fc1c <memcpy>
   1e106:	c099                	beqz	s1,1e10c <_start+0x33b6>
   1e108:	1f10106f          	j	1faf8 <_start+0x4da2>
   1e10c:	00811503          	lh	a0,8(sp)
   1e110:	00a14583          	lbu	a1,10(sp)
   1e114:	018a5613          	srli	a2,s4,0x18
   1e118:	010a5693          	srli	a3,s4,0x10
   1e11c:	3ed90da3          	sb	a3,1019(s2)
   1e120:	3ec90e23          	sb	a2,1020(s2)
   1e124:	008a5613          	srli	a2,s4,0x8
   1e128:	3ea91b23          	sh	a0,1014(s2)
   1e12c:	3eb90c23          	sb	a1,1016(s2)
   1e130:	3f490ca3          	sb	s4,1017(s2)
   1e134:	3ec90d23          	sb	a2,1018(s2)
   1e138:	7ff10513          	addi	a0,sp,2047
   1e13c:	39050513          	addi	a0,a0,912
   1e140:	6585                	lui	a1,0x1
   1e142:	32458593          	addi	a1,a1,804 # 1324 <.Lline_table_start1+0x10f9>
   1e146:	958a                	add	a1,a1,sp
   1e148:	02300613          	li	a2,35
   1e14c:	00002097          	auipc	ra,0x2
   1e150:	ad0080e7          	jalr	-1328(ra) # 1fc1c <memcpy>
   1e154:	6505                	lui	a0,0x1
   1e156:	38050513          	addi	a0,a0,896 # 1380 <.Lline_table_start1+0x1155>
   1e15a:	950a                	add	a0,a0,sp
   1e15c:	7ff10593          	addi	a1,sp,2047
   1e160:	38958593          	addi	a1,a1,905
   1e164:	ffff6097          	auipc	ra,0xffff6
   1e168:	eae080e7          	jalr	-338(ra) # 14012 <_ZN20complex_dynamic_type3app17h3a6484d7c797dba8E>
   1e16c:	3ecac483          	lbu	s1,1004(s5)
   1e170:	c481                	beqz	s1,1e178 <_start+0x3422>
   1e172:	3f0aaa03          	lw	s4,1008(s5)
   1e176:	a835                	j	1e1b2 <_start+0x345c>
   1e178:	3eeac503          	lbu	a0,1006(s5)
   1e17c:	3edac583          	lbu	a1,1005(s5)
   1e180:	3efac603          	lbu	a2,1007(s5)
   1e184:	3f0aaa03          	lw	s4,1008(s5)
   1e188:	0522                	slli	a0,a0,0x8
   1e18a:	8d4d                	or	a0,a0,a1
   1e18c:	00a11423          	sh	a0,8(sp)
   1e190:	00c10523          	sb	a2,10(sp)
   1e194:	6505                	lui	a0,0x1
   1e196:	38850513          	addi	a0,a0,904 # 1388 <.Lline_table_start1+0x115d>
   1e19a:	00a105b3          	add	a1,sp,a0
   1e19e:	6505                	lui	a0,0x1
   1e1a0:	32450513          	addi	a0,a0,804 # 1324 <.Lline_table_start1+0x10f9>
   1e1a4:	950a                	add	a0,a0,sp
   1e1a6:	05200613          	li	a2,82
   1e1aa:	00002097          	auipc	ra,0x2
   1e1ae:	a72080e7          	jalr	-1422(ra) # 1fc1c <memcpy>
   1e1b2:	c099                	beqz	s1,1e1b8 <_start+0x3462>
   1e1b4:	1450106f          	j	1faf8 <_start+0x4da2>
   1e1b8:	00811503          	lh	a0,8(sp)
   1e1bc:	00a14583          	lbu	a1,10(sp)
   1e1c0:	018a5613          	srli	a2,s4,0x18
   1e1c4:	010a5693          	srli	a3,s4,0x10
   1e1c8:	42d902a3          	sb	a3,1061(s2)
   1e1cc:	42c90323          	sb	a2,1062(s2)
   1e1d0:	008a5613          	srli	a2,s4,0x8
   1e1d4:	42a91023          	sh	a0,1056(s2)
   1e1d8:	42b90123          	sb	a1,1058(s2)
   1e1dc:	434901a3          	sb	s4,1059(s2)
   1e1e0:	42c90223          	sb	a2,1060(s2)
   1e1e4:	7ff10513          	addi	a0,sp,2047
   1e1e8:	3ba50513          	addi	a0,a0,954
   1e1ec:	6585                	lui	a1,0x1
   1e1ee:	32458593          	addi	a1,a1,804 # 1324 <.Lline_table_start1+0x10f9>
   1e1f2:	958a                	add	a1,a1,sp
   1e1f4:	05200613          	li	a2,82
   1e1f8:	00002097          	auipc	ra,0x2
   1e1fc:	a24080e7          	jalr	-1500(ra) # 1fc1c <memcpy>
   1e200:	6505                	lui	a0,0x1
   1e202:	38050513          	addi	a0,a0,896 # 1380 <.Lline_table_start1+0x1155>
   1e206:	950a                	add	a0,a0,sp
   1e208:	7ff10593          	addi	a1,sp,2047
   1e20c:	3b358593          	addi	a1,a1,947
   1e210:	ffff6097          	auipc	ra,0xffff6
   1e214:	748080e7          	jalr	1864(ra) # 14958 <_ZN20complex_dynamic_type3app17h5d23bf78984a5b56E>
   1e218:	3ecac483          	lbu	s1,1004(s5)
   1e21c:	c481                	beqz	s1,1e224 <_start+0x34ce>
   1e21e:	3f0aaa03          	lw	s4,1008(s5)
   1e222:	a835                	j	1e25e <_start+0x3508>
   1e224:	3eeac503          	lbu	a0,1006(s5)
   1e228:	3edac583          	lbu	a1,1005(s5)
   1e22c:	3efac603          	lbu	a2,1007(s5)
   1e230:	3f0aaa03          	lw	s4,1008(s5)
   1e234:	0522                	slli	a0,a0,0x8
   1e236:	8d4d                	or	a0,a0,a1
   1e238:	00a11423          	sh	a0,8(sp)
   1e23c:	00c10523          	sb	a2,10(sp)
   1e240:	6505                	lui	a0,0x1
   1e242:	38850513          	addi	a0,a0,904 # 1388 <.Lline_table_start1+0x115d>
   1e246:	00a105b3          	add	a1,sp,a0
   1e24a:	6505                	lui	a0,0x1
   1e24c:	32450513          	addi	a0,a0,804 # 1324 <.Lline_table_start1+0x10f9>
   1e250:	950a                	add	a0,a0,sp
   1e252:	04300613          	li	a2,67
   1e256:	00002097          	auipc	ra,0x2
   1e25a:	9c6080e7          	jalr	-1594(ra) # 1fc1c <memcpy>
   1e25e:	c099                	beqz	s1,1e264 <_start+0x350e>
   1e260:	0990106f          	j	1faf8 <_start+0x4da2>
   1e264:	00811503          	lh	a0,8(sp)
   1e268:	00a14583          	lbu	a1,10(sp)
   1e26c:	018a5613          	srli	a2,s4,0x18
   1e270:	010a5693          	srli	a3,s4,0x10
   1e274:	46d90fa3          	sb	a3,1151(s2)
   1e278:	48c90023          	sb	a2,1152(s2)
   1e27c:	008a5613          	srli	a2,s4,0x8
   1e280:	46a91d23          	sh	a0,1146(s2)
   1e284:	46b90e23          	sb	a1,1148(s2)
   1e288:	47490ea3          	sb	s4,1149(s2)
   1e28c:	46c90f23          	sb	a2,1150(s2)
   1e290:	7ff10513          	addi	a0,sp,2047
   1e294:	41450513          	addi	a0,a0,1044
   1e298:	6585                	lui	a1,0x1
   1e29a:	32458593          	addi	a1,a1,804 # 1324 <.Lline_table_start1+0x10f9>
   1e29e:	958a                	add	a1,a1,sp
   1e2a0:	04300613          	li	a2,67
   1e2a4:	00002097          	auipc	ra,0x2
   1e2a8:	978080e7          	jalr	-1672(ra) # 1fc1c <memcpy>
   1e2ac:	6505                	lui	a0,0x1
   1e2ae:	38050513          	addi	a0,a0,896 # 1380 <.Lline_table_start1+0x1155>
   1e2b2:	950a                	add	a0,a0,sp
   1e2b4:	7ff10593          	addi	a1,sp,2047
   1e2b8:	40d58593          	addi	a1,a1,1037
   1e2bc:	ffffc097          	auipc	ra,0xffffc
   1e2c0:	2f6080e7          	jalr	758(ra) # 1a5b2 <_ZN20complex_dynamic_type3app17hf76062621aca4aedE>
   1e2c4:	3ecac483          	lbu	s1,1004(s5)
   1e2c8:	c481                	beqz	s1,1e2d0 <_start+0x357a>
   1e2ca:	3f0aaa03          	lw	s4,1008(s5)
   1e2ce:	a835                	j	1e30a <_start+0x35b4>
   1e2d0:	3eeac503          	lbu	a0,1006(s5)
   1e2d4:	3edac583          	lbu	a1,1005(s5)
   1e2d8:	3efac603          	lbu	a2,1007(s5)
   1e2dc:	3f0aaa03          	lw	s4,1008(s5)
   1e2e0:	0522                	slli	a0,a0,0x8
   1e2e2:	8d4d                	or	a0,a0,a1
   1e2e4:	00a11423          	sh	a0,8(sp)
   1e2e8:	00c10523          	sb	a2,10(sp)
   1e2ec:	6505                	lui	a0,0x1
   1e2ee:	38850513          	addi	a0,a0,904 # 1388 <.Lline_table_start1+0x115d>
   1e2f2:	00a105b3          	add	a1,sp,a0
   1e2f6:	6505                	lui	a0,0x1
   1e2f8:	32450513          	addi	a0,a0,804 # 1324 <.Lline_table_start1+0x10f9>
   1e2fc:	950a                	add	a0,a0,sp
   1e2fe:	02600613          	li	a2,38
   1e302:	00002097          	auipc	ra,0x2
   1e306:	91a080e7          	jalr	-1766(ra) # 1fc1c <memcpy>
   1e30a:	c099                	beqz	s1,1e310 <_start+0x35ba>
   1e30c:	7ec0106f          	j	1faf8 <_start+0x4da2>
   1e310:	00811503          	lh	a0,8(sp)
   1e314:	00a14583          	lbu	a1,10(sp)
   1e318:	018a5613          	srli	a2,s4,0x18
   1e31c:	010a5693          	srli	a3,s4,0x10
   1e320:	4cd904a3          	sb	a3,1225(s2)
   1e324:	4cc90523          	sb	a2,1226(s2)
   1e328:	008a5613          	srli	a2,s4,0x8
   1e32c:	4ca91223          	sh	a0,1220(s2)
   1e330:	4cb90323          	sb	a1,1222(s2)
   1e334:	4d4903a3          	sb	s4,1223(s2)
   1e338:	4cc90423          	sb	a2,1224(s2)
   1e33c:	7ff10513          	addi	a0,sp,2047
   1e340:	45e50513          	addi	a0,a0,1118
   1e344:	6585                	lui	a1,0x1
   1e346:	32458593          	addi	a1,a1,804 # 1324 <.Lline_table_start1+0x10f9>
   1e34a:	958a                	add	a1,a1,sp
   1e34c:	02600613          	li	a2,38
   1e350:	00002097          	auipc	ra,0x2
   1e354:	8cc080e7          	jalr	-1844(ra) # 1fc1c <memcpy>
   1e358:	6505                	lui	a0,0x1
   1e35a:	38050513          	addi	a0,a0,896 # 1380 <.Lline_table_start1+0x1155>
   1e35e:	950a                	add	a0,a0,sp
   1e360:	7ff10593          	addi	a1,sp,2047
   1e364:	45758593          	addi	a1,a1,1111
   1e368:	ffff8097          	auipc	ra,0xffff8
   1e36c:	9fe080e7          	jalr	-1538(ra) # 15d66 <_ZN20complex_dynamic_type3app17h7b3c223dbc5e59e5E>
   1e370:	3ecac483          	lbu	s1,1004(s5)
   1e374:	c481                	beqz	s1,1e37c <_start+0x3626>
   1e376:	3f0aaa03          	lw	s4,1008(s5)
   1e37a:	a835                	j	1e3b6 <_start+0x3660>
   1e37c:	3eeac503          	lbu	a0,1006(s5)
   1e380:	3edac583          	lbu	a1,1005(s5)
   1e384:	3efac603          	lbu	a2,1007(s5)
   1e388:	3f0aaa03          	lw	s4,1008(s5)
   1e38c:	0522                	slli	a0,a0,0x8
   1e38e:	8d4d                	or	a0,a0,a1
   1e390:	00a11423          	sh	a0,8(sp)
   1e394:	00c10523          	sb	a2,10(sp)
   1e398:	6505                	lui	a0,0x1
   1e39a:	38850513          	addi	a0,a0,904 # 1388 <.Lline_table_start1+0x115d>
   1e39e:	00a105b3          	add	a1,sp,a0
   1e3a2:	6505                	lui	a0,0x1
   1e3a4:	32450513          	addi	a0,a0,804 # 1324 <.Lline_table_start1+0x10f9>
   1e3a8:	950a                	add	a0,a0,sp
   1e3aa:	04c00613          	li	a2,76
   1e3ae:	00002097          	auipc	ra,0x2
   1e3b2:	86e080e7          	jalr	-1938(ra) # 1fc1c <memcpy>
   1e3b6:	c099                	beqz	s1,1e3bc <_start+0x3666>
   1e3b8:	7400106f          	j	1faf8 <_start+0x4da2>
   1e3bc:	00811503          	lh	a0,8(sp)
   1e3c0:	00a14583          	lbu	a1,10(sp)
   1e3c4:	018a5613          	srli	a2,s4,0x18
   1e3c8:	010a5693          	srli	a3,s4,0x10
   1e3cc:	4ed90ba3          	sb	a3,1271(s2)
   1e3d0:	4ec90c23          	sb	a2,1272(s2)
   1e3d4:	008a5613          	srli	a2,s4,0x8
   1e3d8:	4ea91923          	sh	a0,1266(s2)
   1e3dc:	4eb90a23          	sb	a1,1268(s2)
   1e3e0:	4f490aa3          	sb	s4,1269(s2)
   1e3e4:	4ec90b23          	sb	a2,1270(s2)
   1e3e8:	7ff10513          	addi	a0,sp,2047
   1e3ec:	48c50513          	addi	a0,a0,1164
   1e3f0:	6585                	lui	a1,0x1
   1e3f2:	32458593          	addi	a1,a1,804 # 1324 <.Lline_table_start1+0x10f9>
   1e3f6:	958a                	add	a1,a1,sp
   1e3f8:	04c00613          	li	a2,76
   1e3fc:	00002097          	auipc	ra,0x2
   1e400:	820080e7          	jalr	-2016(ra) # 1fc1c <memcpy>
   1e404:	6505                	lui	a0,0x1
   1e406:	38050513          	addi	a0,a0,896 # 1380 <.Lline_table_start1+0x1155>
   1e40a:	950a                	add	a0,a0,sp
   1e40c:	7ff10593          	addi	a1,sp,2047
   1e410:	48558593          	addi	a1,a1,1157
   1e414:	ffff4097          	auipc	ra,0xffff4
   1e418:	b9a080e7          	jalr	-1126(ra) # 11fae <_ZN20complex_dynamic_type3app17h05d993ea8d69e663E>
   1e41c:	3ecac483          	lbu	s1,1004(s5)
   1e420:	c481                	beqz	s1,1e428 <_start+0x36d2>
   1e422:	3f0aaa03          	lw	s4,1008(s5)
   1e426:	a835                	j	1e462 <_start+0x370c>
   1e428:	3eeac503          	lbu	a0,1006(s5)
   1e42c:	3edac583          	lbu	a1,1005(s5)
   1e430:	3efac603          	lbu	a2,1007(s5)
   1e434:	3f0aaa03          	lw	s4,1008(s5)
   1e438:	0522                	slli	a0,a0,0x8
   1e43a:	8d4d                	or	a0,a0,a1
   1e43c:	00a11423          	sh	a0,8(sp)
   1e440:	00c10523          	sb	a2,10(sp)
   1e444:	6505                	lui	a0,0x1
   1e446:	38850513          	addi	a0,a0,904 # 1388 <.Lline_table_start1+0x115d>
   1e44a:	00a105b3          	add	a1,sp,a0
   1e44e:	6505                	lui	a0,0x1
   1e450:	32450513          	addi	a0,a0,804 # 1324 <.Lline_table_start1+0x10f9>
   1e454:	950a                	add	a0,a0,sp
   1e456:	03300613          	li	a2,51
   1e45a:	00001097          	auipc	ra,0x1
   1e45e:	7c2080e7          	jalr	1986(ra) # 1fc1c <memcpy>
   1e462:	c099                	beqz	s1,1e468 <_start+0x3712>
   1e464:	6940106f          	j	1faf8 <_start+0x4da2>
   1e468:	00811503          	lh	a0,8(sp)
   1e46c:	00a14583          	lbu	a1,10(sp)
   1e470:	018a5613          	srli	a2,s4,0x18
   1e474:	010a5693          	srli	a3,s4,0x10
   1e478:	54d905a3          	sb	a3,1355(s2)
   1e47c:	54c90623          	sb	a2,1356(s2)
   1e480:	008a5613          	srli	a2,s4,0x8
   1e484:	54a91323          	sh	a0,1350(s2)
   1e488:	54b90423          	sb	a1,1352(s2)
   1e48c:	554904a3          	sb	s4,1353(s2)
   1e490:	54c90523          	sb	a2,1354(s2)
   1e494:	7ff10513          	addi	a0,sp,2047
   1e498:	4e050513          	addi	a0,a0,1248
   1e49c:	6585                	lui	a1,0x1
   1e49e:	32458593          	addi	a1,a1,804 # 1324 <.Lline_table_start1+0x10f9>
   1e4a2:	958a                	add	a1,a1,sp
   1e4a4:	03300613          	li	a2,51
   1e4a8:	00001097          	auipc	ra,0x1
   1e4ac:	774080e7          	jalr	1908(ra) # 1fc1c <memcpy>
   1e4b0:	6505                	lui	a0,0x1
   1e4b2:	38050513          	addi	a0,a0,896 # 1380 <.Lline_table_start1+0x1155>
   1e4b6:	950a                	add	a0,a0,sp
   1e4b8:	7ff10593          	addi	a1,sp,2047
   1e4bc:	4d958593          	addi	a1,a1,1241
   1e4c0:	ffff7097          	auipc	ra,0xffff7
   1e4c4:	26e080e7          	jalr	622(ra) # 1572e <_ZN20complex_dynamic_type3app17h729f8111ea27ac81E>
   1e4c8:	3ecac483          	lbu	s1,1004(s5)
   1e4cc:	c481                	beqz	s1,1e4d4 <_start+0x377e>
   1e4ce:	3f0aaa03          	lw	s4,1008(s5)
   1e4d2:	a835                	j	1e50e <_start+0x37b8>
   1e4d4:	3eeac503          	lbu	a0,1006(s5)
   1e4d8:	3edac583          	lbu	a1,1005(s5)
   1e4dc:	3efac603          	lbu	a2,1007(s5)
   1e4e0:	3f0aaa03          	lw	s4,1008(s5)
   1e4e4:	0522                	slli	a0,a0,0x8
   1e4e6:	8d4d                	or	a0,a0,a1
   1e4e8:	00a11423          	sh	a0,8(sp)
   1e4ec:	00c10523          	sb	a2,10(sp)
   1e4f0:	6505                	lui	a0,0x1
   1e4f2:	38850513          	addi	a0,a0,904 # 1388 <.Lline_table_start1+0x115d>
   1e4f6:	00a105b3          	add	a1,sp,a0
   1e4fa:	6505                	lui	a0,0x1
   1e4fc:	32450513          	addi	a0,a0,804 # 1324 <.Lline_table_start1+0x10f9>
   1e500:	950a                	add	a0,a0,sp
   1e502:	05600613          	li	a2,86
   1e506:	00001097          	auipc	ra,0x1
   1e50a:	716080e7          	jalr	1814(ra) # 1fc1c <memcpy>
   1e50e:	c099                	beqz	s1,1e514 <_start+0x37be>
   1e510:	5e80106f          	j	1faf8 <_start+0x4da2>
   1e514:	00811503          	lh	a0,8(sp)
   1e518:	00a14583          	lbu	a1,10(sp)
   1e51c:	018a5613          	srli	a2,s4,0x18
   1e520:	010a5693          	srli	a3,s4,0x10
   1e524:	58d902a3          	sb	a3,1413(s2)
   1e528:	58c90323          	sb	a2,1414(s2)
   1e52c:	008a5613          	srli	a2,s4,0x8
   1e530:	58a91023          	sh	a0,1408(s2)
   1e534:	58b90123          	sb	a1,1410(s2)
   1e538:	594901a3          	sb	s4,1411(s2)
   1e53c:	58c90223          	sb	a2,1412(s2)
   1e540:	7ff10513          	addi	a0,sp,2047
   1e544:	51a50513          	addi	a0,a0,1306
   1e548:	6585                	lui	a1,0x1
   1e54a:	32458593          	addi	a1,a1,804 # 1324 <.Lline_table_start1+0x10f9>
   1e54e:	958a                	add	a1,a1,sp
   1e550:	05600613          	li	a2,86
   1e554:	00001097          	auipc	ra,0x1
   1e558:	6c8080e7          	jalr	1736(ra) # 1fc1c <memcpy>
   1e55c:	6505                	lui	a0,0x1
   1e55e:	38050513          	addi	a0,a0,896 # 1380 <.Lline_table_start1+0x1155>
   1e562:	950a                	add	a0,a0,sp
   1e564:	7ff10593          	addi	a1,sp,2047
   1e568:	51358593          	addi	a1,a1,1299
   1e56c:	ffff7097          	auipc	ra,0xffff7
   1e570:	4e0080e7          	jalr	1248(ra) # 15a4c <_ZN20complex_dynamic_type3app17h75e56609a77a1b41E>
   1e574:	3ecac483          	lbu	s1,1004(s5)
   1e578:	c481                	beqz	s1,1e580 <_start+0x382a>
   1e57a:	3f0aaa03          	lw	s4,1008(s5)
   1e57e:	a835                	j	1e5ba <_start+0x3864>
   1e580:	3eeac503          	lbu	a0,1006(s5)
   1e584:	3edac583          	lbu	a1,1005(s5)
   1e588:	3efac603          	lbu	a2,1007(s5)
   1e58c:	3f0aaa03          	lw	s4,1008(s5)
   1e590:	0522                	slli	a0,a0,0x8
   1e592:	8d4d                	or	a0,a0,a1
   1e594:	00a11423          	sh	a0,8(sp)
   1e598:	00c10523          	sb	a2,10(sp)
   1e59c:	6505                	lui	a0,0x1
   1e59e:	38850513          	addi	a0,a0,904 # 1388 <.Lline_table_start1+0x115d>
   1e5a2:	00a105b3          	add	a1,sp,a0
   1e5a6:	6505                	lui	a0,0x1
   1e5a8:	32450513          	addi	a0,a0,804 # 1324 <.Lline_table_start1+0x10f9>
   1e5ac:	950a                	add	a0,a0,sp
   1e5ae:	03900613          	li	a2,57
   1e5b2:	00001097          	auipc	ra,0x1
   1e5b6:	66a080e7          	jalr	1642(ra) # 1fc1c <memcpy>
   1e5ba:	c099                	beqz	s1,1e5c0 <_start+0x386a>
   1e5bc:	53c0106f          	j	1faf8 <_start+0x4da2>
   1e5c0:	00811503          	lh	a0,8(sp)
   1e5c4:	00a14583          	lbu	a1,10(sp)
   1e5c8:	018a5613          	srli	a2,s4,0x18
   1e5cc:	010a5693          	srli	a3,s4,0x10
   1e5d0:	5ed901a3          	sb	a3,1507(s2)
   1e5d4:	5ec90223          	sb	a2,1508(s2)
   1e5d8:	008a5613          	srli	a2,s4,0x8
   1e5dc:	5ca91f23          	sh	a0,1502(s2)
   1e5e0:	5eb90023          	sb	a1,1504(s2)
   1e5e4:	5f4900a3          	sb	s4,1505(s2)
   1e5e8:	5ec90123          	sb	a2,1506(s2)
   1e5ec:	7ff10513          	addi	a0,sp,2047
   1e5f0:	57850513          	addi	a0,a0,1400
   1e5f4:	6585                	lui	a1,0x1
   1e5f6:	32458593          	addi	a1,a1,804 # 1324 <.Lline_table_start1+0x10f9>
   1e5fa:	958a                	add	a1,a1,sp
   1e5fc:	03900613          	li	a2,57
   1e600:	00001097          	auipc	ra,0x1
   1e604:	61c080e7          	jalr	1564(ra) # 1fc1c <memcpy>
   1e608:	6505                	lui	a0,0x1
   1e60a:	38050513          	addi	a0,a0,896 # 1380 <.Lline_table_start1+0x1155>
   1e60e:	950a                	add	a0,a0,sp
   1e610:	7ff10593          	addi	a1,sp,2047
   1e614:	57158593          	addi	a1,a1,1393
   1e618:	ffff4097          	auipc	ra,0xffff4
   1e61c:	784080e7          	jalr	1924(ra) # 12d9c <_ZN20complex_dynamic_type3app17h1903272f4d250910E>
   1e620:	3ecac483          	lbu	s1,1004(s5)
   1e624:	c481                	beqz	s1,1e62c <_start+0x38d6>
   1e626:	3f0aaa03          	lw	s4,1008(s5)
   1e62a:	a835                	j	1e666 <_start+0x3910>
   1e62c:	3eeac503          	lbu	a0,1006(s5)
   1e630:	3edac583          	lbu	a1,1005(s5)
   1e634:	3efac603          	lbu	a2,1007(s5)
   1e638:	3f0aaa03          	lw	s4,1008(s5)
   1e63c:	0522                	slli	a0,a0,0x8
   1e63e:	8d4d                	or	a0,a0,a1
   1e640:	00a11423          	sh	a0,8(sp)
   1e644:	00c10523          	sb	a2,10(sp)
   1e648:	6505                	lui	a0,0x1
   1e64a:	38850513          	addi	a0,a0,904 # 1388 <.Lline_table_start1+0x115d>
   1e64e:	00a105b3          	add	a1,sp,a0
   1e652:	6505                	lui	a0,0x1
   1e654:	32450513          	addi	a0,a0,804 # 1324 <.Lline_table_start1+0x10f9>
   1e658:	950a                	add	a0,a0,sp
   1e65a:	02a00613          	li	a2,42
   1e65e:	00001097          	auipc	ra,0x1
   1e662:	5be080e7          	jalr	1470(ra) # 1fc1c <memcpy>
   1e666:	c099                	beqz	s1,1e66c <_start+0x3916>
   1e668:	4900106f          	j	1faf8 <_start+0x4da2>
   1e66c:	00811503          	lh	a0,8(sp)
   1e670:	00a14583          	lbu	a1,10(sp)
   1e674:	018a5613          	srli	a2,s4,0x18
   1e678:	010a5693          	srli	a3,s4,0x10
   1e67c:	62d901a3          	sb	a3,1571(s2)
   1e680:	62c90223          	sb	a2,1572(s2)
   1e684:	008a5613          	srli	a2,s4,0x8
   1e688:	60a91f23          	sh	a0,1566(s2)
   1e68c:	62b90023          	sb	a1,1568(s2)
   1e690:	634900a3          	sb	s4,1569(s2)
   1e694:	62c90123          	sb	a2,1570(s2)
   1e698:	7ff10513          	addi	a0,sp,2047
   1e69c:	5b850513          	addi	a0,a0,1464
   1e6a0:	6585                	lui	a1,0x1
   1e6a2:	32458593          	addi	a1,a1,804 # 1324 <.Lline_table_start1+0x10f9>
   1e6a6:	958a                	add	a1,a1,sp
   1e6a8:	02a00613          	li	a2,42
   1e6ac:	00001097          	auipc	ra,0x1
   1e6b0:	570080e7          	jalr	1392(ra) # 1fc1c <memcpy>
   1e6b4:	6505                	lui	a0,0x1
   1e6b6:	38050513          	addi	a0,a0,896 # 1380 <.Lline_table_start1+0x1155>
   1e6ba:	950a                	add	a0,a0,sp
   1e6bc:	7ff10593          	addi	a1,sp,2047
   1e6c0:	5b158593          	addi	a1,a1,1457
   1e6c4:	ffffc097          	auipc	ra,0xffffc
   1e6c8:	a56080e7          	jalr	-1450(ra) # 1a11a <_ZN20complex_dynamic_type3app17hf2f0acb17188a327E>
   1e6cc:	3ecac483          	lbu	s1,1004(s5)
   1e6d0:	c481                	beqz	s1,1e6d8 <_start+0x3982>
   1e6d2:	3f0aaa03          	lw	s4,1008(s5)
   1e6d6:	a835                	j	1e712 <_start+0x39bc>
   1e6d8:	3eeac503          	lbu	a0,1006(s5)
   1e6dc:	3edac583          	lbu	a1,1005(s5)
   1e6e0:	3efac603          	lbu	a2,1007(s5)
   1e6e4:	3f0aaa03          	lw	s4,1008(s5)
   1e6e8:	0522                	slli	a0,a0,0x8
   1e6ea:	8d4d                	or	a0,a0,a1
   1e6ec:	00a11423          	sh	a0,8(sp)
   1e6f0:	00c10523          	sb	a2,10(sp)
   1e6f4:	6505                	lui	a0,0x1
   1e6f6:	38850513          	addi	a0,a0,904 # 1388 <.Lline_table_start1+0x115d>
   1e6fa:	00a105b3          	add	a1,sp,a0
   1e6fe:	6505                	lui	a0,0x1
   1e700:	32450513          	addi	a0,a0,804 # 1324 <.Lline_table_start1+0x10f9>
   1e704:	950a                	add	a0,a0,sp
   1e706:	04100613          	li	a2,65
   1e70a:	00001097          	auipc	ra,0x1
   1e70e:	512080e7          	jalr	1298(ra) # 1fc1c <memcpy>
   1e712:	c099                	beqz	s1,1e718 <_start+0x39c2>
   1e714:	3e40106f          	j	1faf8 <_start+0x4da2>
   1e718:	00811503          	lh	a0,8(sp)
   1e71c:	00a14583          	lbu	a1,10(sp)
   1e720:	018a5613          	srli	a2,s4,0x18
   1e724:	010a5693          	srli	a3,s4,0x10
   1e728:	64d90aa3          	sb	a3,1621(s2)
   1e72c:	64c90b23          	sb	a2,1622(s2)
   1e730:	008a5613          	srli	a2,s4,0x8
   1e734:	64a91823          	sh	a0,1616(s2)
   1e738:	64b90923          	sb	a1,1618(s2)
   1e73c:	654909a3          	sb	s4,1619(s2)
   1e740:	64c90a23          	sb	a2,1620(s2)
   1e744:	7ff10513          	addi	a0,sp,2047
   1e748:	5ea50513          	addi	a0,a0,1514
   1e74c:	6585                	lui	a1,0x1
   1e74e:	32458593          	addi	a1,a1,804 # 1324 <.Lline_table_start1+0x10f9>
   1e752:	958a                	add	a1,a1,sp
   1e754:	04100613          	li	a2,65
   1e758:	00001097          	auipc	ra,0x1
   1e75c:	4c4080e7          	jalr	1220(ra) # 1fc1c <memcpy>
   1e760:	6505                	lui	a0,0x1
   1e762:	38050513          	addi	a0,a0,896 # 1380 <.Lline_table_start1+0x1155>
   1e766:	950a                	add	a0,a0,sp
   1e768:	7ff10593          	addi	a1,sp,2047
   1e76c:	5e358593          	addi	a1,a1,1507
   1e770:	ffff9097          	auipc	ra,0xffff9
   1e774:	33a080e7          	jalr	826(ra) # 17aaa <_ZN20complex_dynamic_type3app17haa47219105355f59E>
   1e778:	3ecac483          	lbu	s1,1004(s5)
   1e77c:	c481                	beqz	s1,1e784 <_start+0x3a2e>
   1e77e:	3f0aaa03          	lw	s4,1008(s5)
   1e782:	a835                	j	1e7be <_start+0x3a68>
   1e784:	3eeac503          	lbu	a0,1006(s5)
   1e788:	3edac583          	lbu	a1,1005(s5)
   1e78c:	3efac603          	lbu	a2,1007(s5)
   1e790:	3f0aaa03          	lw	s4,1008(s5)
   1e794:	0522                	slli	a0,a0,0x8
   1e796:	8d4d                	or	a0,a0,a1
   1e798:	00a11423          	sh	a0,8(sp)
   1e79c:	00c10523          	sb	a2,10(sp)
   1e7a0:	6505                	lui	a0,0x1
   1e7a2:	38850513          	addi	a0,a0,904 # 1388 <.Lline_table_start1+0x115d>
   1e7a6:	00a105b3          	add	a1,sp,a0
   1e7aa:	6505                	lui	a0,0x1
   1e7ac:	32450513          	addi	a0,a0,804 # 1324 <.Lline_table_start1+0x10f9>
   1e7b0:	950a                	add	a0,a0,sp
   1e7b2:	02200613          	li	a2,34
   1e7b6:	00001097          	auipc	ra,0x1
   1e7ba:	466080e7          	jalr	1126(ra) # 1fc1c <memcpy>
   1e7be:	c099                	beqz	s1,1e7c4 <_start+0x3a6e>
   1e7c0:	3380106f          	j	1faf8 <_start+0x4da2>
   1e7c4:	00811503          	lh	a0,8(sp)
   1e7c8:	00a14583          	lbu	a1,10(sp)
   1e7cc:	018a5613          	srli	a2,s4,0x18
   1e7d0:	010a5693          	srli	a3,s4,0x10
   1e7d4:	68d90ea3          	sb	a3,1693(s2)
   1e7d8:	68c90f23          	sb	a2,1694(s2)
   1e7dc:	008a5613          	srli	a2,s4,0x8
   1e7e0:	68a91c23          	sh	a0,1688(s2)
   1e7e4:	68b90d23          	sb	a1,1690(s2)
   1e7e8:	69490da3          	sb	s4,1691(s2)
   1e7ec:	68c90e23          	sb	a2,1692(s2)
   1e7f0:	7ff10513          	addi	a0,sp,2047
   1e7f4:	63250513          	addi	a0,a0,1586
   1e7f8:	6585                	lui	a1,0x1
   1e7fa:	32458593          	addi	a1,a1,804 # 1324 <.Lline_table_start1+0x10f9>
   1e7fe:	958a                	add	a1,a1,sp
   1e800:	02200613          	li	a2,34
   1e804:	00001097          	auipc	ra,0x1
   1e808:	418080e7          	jalr	1048(ra) # 1fc1c <memcpy>
   1e80c:	6505                	lui	a0,0x1
   1e80e:	38050513          	addi	a0,a0,896 # 1380 <.Lline_table_start1+0x1155>
   1e812:	950a                	add	a0,a0,sp
   1e814:	7ff10593          	addi	a1,sp,2047
   1e818:	62b58593          	addi	a1,a1,1579
   1e81c:	ffff9097          	auipc	ra,0xffff9
   1e820:	106080e7          	jalr	262(ra) # 17922 <_ZN20complex_dynamic_type3app17haa0b05300e728305E>
   1e824:	3ecac503          	lbu	a0,1004(s5)
   1e828:	c501                	beqz	a0,1e830 <_start+0x3ada>
   1e82a:	3f0aaa03          	lw	s4,1008(s5)
   1e82e:	a0b9                	j	1e87c <_start+0x3b26>
   1e830:	3edac583          	lbu	a1,1005(s5)
   1e834:	3eeac603          	lbu	a2,1006(s5)
   1e838:	3efac683          	lbu	a3,1007(s5)
   1e83c:	3f0aaa03          	lw	s4,1008(s5)
   1e840:	3f4aa703          	lw	a4,1012(s5)
   1e844:	3f8aa783          	lw	a5,1016(s5)
   1e848:	3fcaa483          	lw	s1,1020(s5)
   1e84c:	400aa403          	lw	s0,1024(s5)
   1e850:	0622                	slli	a2,a2,0x8
   1e852:	38eaa823          	sw	a4,912(s5)
   1e856:	38faaa23          	sw	a5,916(s5)
   1e85a:	389aac23          	sw	s1,920(s5)
   1e85e:	388aae23          	sw	s0,924(s5)
   1e862:	8dd1                	or	a1,a1,a2
   1e864:	404a9603          	lh	a2,1028(s5)
   1e868:	406ac703          	lbu	a4,1030(s5)
   1e86c:	00b11423          	sh	a1,8(sp)
   1e870:	00d10523          	sb	a3,10(sp)
   1e874:	3aca9023          	sh	a2,928(s5)
   1e878:	3aea8123          	sb	a4,930(s5)
   1e87c:	c119                	beqz	a0,1e882 <_start+0x3b2c>
   1e87e:	27a0106f          	j	1faf8 <_start+0x4da2>
   1e882:	00811503          	lh	a0,8(sp)
   1e886:	00a14583          	lbu	a1,10(sp)
   1e88a:	018a5613          	srli	a2,s4,0x18
   1e88e:	010a5693          	srli	a3,s4,0x10
   1e892:	6cd903a3          	sb	a3,1735(s2)
   1e896:	6cc90423          	sb	a2,1736(s2)
   1e89a:	008a5613          	srli	a2,s4,0x8
   1e89e:	6ca91123          	sh	a0,1730(s2)
   1e8a2:	6cb90223          	sb	a1,1732(s2)
   1e8a6:	6d4902a3          	sb	s4,1733(s2)
   1e8aa:	6cc90323          	sb	a2,1734(s2)
   1e8ae:	7ff10513          	addi	a0,sp,2047
   1e8b2:	65c50513          	addi	a0,a0,1628
   1e8b6:	6585                	lui	a1,0x1
   1e8b8:	32458593          	addi	a1,a1,804 # 1324 <.Lline_table_start1+0x10f9>
   1e8bc:	958a                	add	a1,a1,sp
   1e8be:	464d                	li	a2,19
   1e8c0:	00001097          	auipc	ra,0x1
   1e8c4:	35c080e7          	jalr	860(ra) # 1fc1c <memcpy>
   1e8c8:	6505                	lui	a0,0x1
   1e8ca:	38050513          	addi	a0,a0,896 # 1380 <.Lline_table_start1+0x1155>
   1e8ce:	950a                	add	a0,a0,sp
   1e8d0:	7ff10593          	addi	a1,sp,2047
   1e8d4:	65558593          	addi	a1,a1,1621
   1e8d8:	ffffa097          	auipc	ra,0xffffa
   1e8dc:	99c080e7          	jalr	-1636(ra) # 18274 <_ZN20complex_dynamic_type3app17hc481d979b18db746E>
   1e8e0:	3ecac503          	lbu	a0,1004(s5)
   1e8e4:	c501                	beqz	a0,1e8ec <_start+0x3b96>
   1e8e6:	3f0aaa03          	lw	s4,1008(s5)
   1e8ea:	a099                	j	1e930 <_start+0x3bda>
   1e8ec:	3edac583          	lbu	a1,1005(s5)
   1e8f0:	3eeac603          	lbu	a2,1006(s5)
   1e8f4:	3efac683          	lbu	a3,1007(s5)
   1e8f8:	3f0aaa03          	lw	s4,1008(s5)
   1e8fc:	3f4aa703          	lw	a4,1012(s5)
   1e900:	3f8aa783          	lw	a5,1016(s5)
   1e904:	3fcaa483          	lw	s1,1020(s5)
   1e908:	400aa403          	lw	s0,1024(s5)
   1e90c:	38eaa823          	sw	a4,912(s5)
   1e910:	38faaa23          	sw	a5,916(s5)
   1e914:	389aac23          	sw	s1,920(s5)
   1e918:	388aae23          	sw	s0,924(s5)
   1e91c:	404aa703          	lw	a4,1028(s5)
   1e920:	0622                	slli	a2,a2,0x8
   1e922:	8dd1                	or	a1,a1,a2
   1e924:	00b11423          	sh	a1,8(sp)
   1e928:	00d10523          	sb	a3,10(sp)
   1e92c:	3aeaa023          	sw	a4,928(s5)
   1e930:	c119                	beqz	a0,1e936 <_start+0x3be0>
   1e932:	1c60106f          	j	1faf8 <_start+0x4da2>
   1e936:	00811503          	lh	a0,8(sp)
   1e93a:	00a14583          	lbu	a1,10(sp)
   1e93e:	018a5613          	srli	a2,s4,0x18
   1e942:	010a5693          	srli	a3,s4,0x10
   1e946:	6ed900a3          	sb	a3,1761(s2)
   1e94a:	6ec90123          	sb	a2,1762(s2)
   1e94e:	008a5613          	srli	a2,s4,0x8
   1e952:	6ca91e23          	sh	a0,1756(s2)
   1e956:	6cb90f23          	sb	a1,1758(s2)
   1e95a:	6d490fa3          	sb	s4,1759(s2)
   1e95e:	6ec90023          	sb	a2,1760(s2)
   1e962:	7ff10513          	addi	a0,sp,2047
   1e966:	67650513          	addi	a0,a0,1654
   1e96a:	6585                	lui	a1,0x1
   1e96c:	32458593          	addi	a1,a1,804 # 1324 <.Lline_table_start1+0x10f9>
   1e970:	958a                	add	a1,a1,sp
   1e972:	4651                	li	a2,20
   1e974:	00001097          	auipc	ra,0x1
   1e978:	2a8080e7          	jalr	680(ra) # 1fc1c <memcpy>
   1e97c:	6505                	lui	a0,0x1
   1e97e:	38050513          	addi	a0,a0,896 # 1380 <.Lline_table_start1+0x1155>
   1e982:	950a                	add	a0,a0,sp
   1e984:	7ff10593          	addi	a1,sp,2047
   1e988:	66f58593          	addi	a1,a1,1647
   1e98c:	ffffa097          	auipc	ra,0xffffa
   1e990:	d7c080e7          	jalr	-644(ra) # 18708 <_ZN20complex_dynamic_type3app17hc89aadb1ded4434dE>
   1e994:	3ecac483          	lbu	s1,1004(s5)
   1e998:	c481                	beqz	s1,1e9a0 <_start+0x3c4a>
   1e99a:	3f0aaa03          	lw	s4,1008(s5)
   1e99e:	a835                	j	1e9da <_start+0x3c84>
   1e9a0:	3eeac503          	lbu	a0,1006(s5)
   1e9a4:	3edac583          	lbu	a1,1005(s5)
   1e9a8:	3efac603          	lbu	a2,1007(s5)
   1e9ac:	3f0aaa03          	lw	s4,1008(s5)
   1e9b0:	0522                	slli	a0,a0,0x8
   1e9b2:	8d4d                	or	a0,a0,a1
   1e9b4:	00a11423          	sh	a0,8(sp)
   1e9b8:	00c10523          	sb	a2,10(sp)
   1e9bc:	6505                	lui	a0,0x1
   1e9be:	38850513          	addi	a0,a0,904 # 1388 <.Lline_table_start1+0x115d>
   1e9c2:	00a105b3          	add	a1,sp,a0
   1e9c6:	6505                	lui	a0,0x1
   1e9c8:	32450513          	addi	a0,a0,804 # 1324 <.Lline_table_start1+0x10f9>
   1e9cc:	950a                	add	a0,a0,sp
   1e9ce:	03a00613          	li	a2,58
   1e9d2:	00001097          	auipc	ra,0x1
   1e9d6:	24a080e7          	jalr	586(ra) # 1fc1c <memcpy>
   1e9da:	c099                	beqz	s1,1e9e0 <_start+0x3c8a>
   1e9dc:	11c0106f          	j	1faf8 <_start+0x4da2>
   1e9e0:	00811503          	lh	a0,8(sp)
   1e9e4:	00a14583          	lbu	a1,10(sp)
   1e9e8:	018a5613          	srli	a2,s4,0x18
   1e9ec:	010a5693          	srli	a3,s4,0x10
   1e9f0:	6ed90ea3          	sb	a3,1789(s2)
   1e9f4:	6ec90f23          	sb	a2,1790(s2)
   1e9f8:	008a5613          	srli	a2,s4,0x8
   1e9fc:	6ea91c23          	sh	a0,1784(s2)
   1ea00:	6eb90d23          	sb	a1,1786(s2)
   1ea04:	6f490da3          	sb	s4,1787(s2)
   1ea08:	6ec90e23          	sb	a2,1788(s2)
   1ea0c:	7ff10513          	addi	a0,sp,2047
   1ea10:	69250513          	addi	a0,a0,1682
   1ea14:	6585                	lui	a1,0x1
   1ea16:	32458593          	addi	a1,a1,804 # 1324 <.Lline_table_start1+0x10f9>
   1ea1a:	958a                	add	a1,a1,sp
   1ea1c:	03a00613          	li	a2,58
   1ea20:	00001097          	auipc	ra,0x1
   1ea24:	1fc080e7          	jalr	508(ra) # 1fc1c <memcpy>
   1ea28:	6505                	lui	a0,0x1
   1ea2a:	38050513          	addi	a0,a0,896 # 1380 <.Lline_table_start1+0x1155>
   1ea2e:	950a                	add	a0,a0,sp
   1ea30:	7ff10593          	addi	a1,sp,2047
   1ea34:	68b58593          	addi	a1,a1,1675
   1ea38:	ffff4097          	auipc	ra,0xffff4
   1ea3c:	1d8080e7          	jalr	472(ra) # 12c10 <_ZN20complex_dynamic_type3app17h1680cbffe1393846E>
   1ea40:	3ecac503          	lbu	a0,1004(s5)
   1ea44:	c501                	beqz	a0,1ea4c <_start+0x3cf6>
   1ea46:	3f0aaa03          	lw	s4,1008(s5)
   1ea4a:	a099                	j	1ea90 <_start+0x3d3a>
   1ea4c:	3edac583          	lbu	a1,1005(s5)
   1ea50:	3eeac603          	lbu	a2,1006(s5)
   1ea54:	3efac683          	lbu	a3,1007(s5)
   1ea58:	3f0aaa03          	lw	s4,1008(s5)
   1ea5c:	3f4aa703          	lw	a4,1012(s5)
   1ea60:	3f8aa783          	lw	a5,1016(s5)
   1ea64:	3fcaa483          	lw	s1,1020(s5)
   1ea68:	400aa403          	lw	s0,1024(s5)
   1ea6c:	38eaa823          	sw	a4,912(s5)
   1ea70:	38faaa23          	sw	a5,916(s5)
   1ea74:	389aac23          	sw	s1,920(s5)
   1ea78:	388aae23          	sw	s0,924(s5)
   1ea7c:	404ac703          	lbu	a4,1028(s5)
   1ea80:	0622                	slli	a2,a2,0x8
   1ea82:	8dd1                	or	a1,a1,a2
   1ea84:	00b11423          	sh	a1,8(sp)
   1ea88:	00d10523          	sb	a3,10(sp)
   1ea8c:	3aea8023          	sb	a4,928(s5)
   1ea90:	c119                	beqz	a0,1ea96 <_start+0x3d40>
   1ea92:	0660106f          	j	1faf8 <_start+0x4da2>
   1ea96:	00811503          	lh	a0,8(sp)
   1ea9a:	00a14583          	lbu	a1,10(sp)
   1ea9e:	018a5613          	srli	a2,s4,0x18
   1eaa2:	010a5693          	srli	a3,s4,0x10
   1eaa6:	72d90fa3          	sb	a3,1855(s2)
   1eaaa:	74c90023          	sb	a2,1856(s2)
   1eaae:	008a5613          	srli	a2,s4,0x8
   1eab2:	72a91d23          	sh	a0,1850(s2)
   1eab6:	72b90e23          	sb	a1,1852(s2)
   1eaba:	73490ea3          	sb	s4,1853(s2)
   1eabe:	72c90f23          	sb	a2,1854(s2)
   1eac2:	7ff10513          	addi	a0,sp,2047
   1eac6:	6d450513          	addi	a0,a0,1748
   1eaca:	6585                	lui	a1,0x1
   1eacc:	32458593          	addi	a1,a1,804 # 1324 <.Lline_table_start1+0x10f9>
   1ead0:	958a                	add	a1,a1,sp
   1ead2:	4645                	li	a2,17
   1ead4:	00001097          	auipc	ra,0x1
   1ead8:	148080e7          	jalr	328(ra) # 1fc1c <memcpy>
   1eadc:	6505                	lui	a0,0x1
   1eade:	38050513          	addi	a0,a0,896 # 1380 <.Lline_table_start1+0x1155>
   1eae2:	950a                	add	a0,a0,sp
   1eae4:	7ff10593          	addi	a1,sp,2047
   1eae8:	6cd58593          	addi	a1,a1,1741
   1eaec:	ffff6097          	auipc	ra,0xffff6
   1eaf0:	182080e7          	jalr	386(ra) # 14c6e <_ZN20complex_dynamic_type3app17h603db9412da71293E>
   1eaf4:	3ecac503          	lbu	a0,1004(s5)
   1eaf8:	c501                	beqz	a0,1eb00 <_start+0x3daa>
   1eafa:	3f0aaa03          	lw	s4,1008(s5)
   1eafe:	a899                	j	1eb54 <_start+0x3dfe>
   1eb00:	3edac583          	lbu	a1,1005(s5)
   1eb04:	3eeac603          	lbu	a2,1006(s5)
   1eb08:	3efac683          	lbu	a3,1007(s5)
   1eb0c:	3f0aaa03          	lw	s4,1008(s5)
   1eb10:	3f4aa703          	lw	a4,1012(s5)
   1eb14:	3f8aa783          	lw	a5,1016(s5)
   1eb18:	3fcaa483          	lw	s1,1020(s5)
   1eb1c:	400aa403          	lw	s0,1024(s5)
   1eb20:	0622                	slli	a2,a2,0x8
   1eb22:	38eaa823          	sw	a4,912(s5)
   1eb26:	38faaa23          	sw	a5,916(s5)
   1eb2a:	389aac23          	sw	s1,920(s5)
   1eb2e:	388aae23          	sw	s0,924(s5)
   1eb32:	8dd1                	or	a1,a1,a2
   1eb34:	404aa603          	lw	a2,1028(s5)
   1eb38:	408a9703          	lh	a4,1032(s5)
   1eb3c:	40aac783          	lbu	a5,1034(s5)
   1eb40:	00b11423          	sh	a1,8(sp)
   1eb44:	00d10523          	sb	a3,10(sp)
   1eb48:	3acaa023          	sw	a2,928(s5)
   1eb4c:	3aea9223          	sh	a4,932(s5)
   1eb50:	3afa8323          	sb	a5,934(s5)
   1eb54:	c119                	beqz	a0,1eb5a <_start+0x3e04>
   1eb56:	7a30006f          	j	1faf8 <_start+0x4da2>
   1eb5a:	00811503          	lh	a0,8(sp)
   1eb5e:	00a14583          	lbu	a1,10(sp)
   1eb62:	018a5613          	srli	a2,s4,0x18
   1eb66:	010a5693          	srli	a3,s4,0x10
   1eb6a:	74d90ba3          	sb	a3,1879(s2)
   1eb6e:	74c90c23          	sb	a2,1880(s2)
   1eb72:	008a5613          	srli	a2,s4,0x8
   1eb76:	74a91923          	sh	a0,1874(s2)
   1eb7a:	74b90a23          	sb	a1,1876(s2)
   1eb7e:	75490aa3          	sb	s4,1877(s2)
   1eb82:	74c90b23          	sb	a2,1878(s2)
   1eb86:	7ff10513          	addi	a0,sp,2047
   1eb8a:	6ec50513          	addi	a0,a0,1772
   1eb8e:	6585                	lui	a1,0x1
   1eb90:	32458593          	addi	a1,a1,804 # 1324 <.Lline_table_start1+0x10f9>
   1eb94:	958a                	add	a1,a1,sp
   1eb96:	465d                	li	a2,23
   1eb98:	00001097          	auipc	ra,0x1
   1eb9c:	084080e7          	jalr	132(ra) # 1fc1c <memcpy>
   1eba0:	6505                	lui	a0,0x1
   1eba2:	38050513          	addi	a0,a0,896 # 1380 <.Lline_table_start1+0x1155>
   1eba6:	950a                	add	a0,a0,sp
   1eba8:	7ff10593          	addi	a1,sp,2047
   1ebac:	6e558593          	addi	a1,a1,1765
   1ebb0:	ffff5097          	auipc	ra,0xffff5
   1ebb4:	80e080e7          	jalr	-2034(ra) # 133be <_ZN20complex_dynamic_type3app17h204d69dd4b77b799E>
   1ebb8:	3ecac483          	lbu	s1,1004(s5)
   1ebbc:	c481                	beqz	s1,1ebc4 <_start+0x3e6e>
   1ebbe:	3f0aaa03          	lw	s4,1008(s5)
   1ebc2:	a835                	j	1ebfe <_start+0x3ea8>
   1ebc4:	3eeac503          	lbu	a0,1006(s5)
   1ebc8:	3edac583          	lbu	a1,1005(s5)
   1ebcc:	3efac603          	lbu	a2,1007(s5)
   1ebd0:	3f0aaa03          	lw	s4,1008(s5)
   1ebd4:	0522                	slli	a0,a0,0x8
   1ebd6:	8d4d                	or	a0,a0,a1
   1ebd8:	00a11423          	sh	a0,8(sp)
   1ebdc:	00c10523          	sb	a2,10(sp)
   1ebe0:	6505                	lui	a0,0x1
   1ebe2:	38850513          	addi	a0,a0,904 # 1388 <.Lline_table_start1+0x115d>
   1ebe6:	00a105b3          	add	a1,sp,a0
   1ebea:	6505                	lui	a0,0x1
   1ebec:	32450513          	addi	a0,a0,804 # 1324 <.Lline_table_start1+0x10f9>
   1ebf0:	950a                	add	a0,a0,sp
   1ebf2:	03500613          	li	a2,53
   1ebf6:	00001097          	auipc	ra,0x1
   1ebfa:	026080e7          	jalr	38(ra) # 1fc1c <memcpy>
   1ebfe:	6e049de3          	bnez	s1,1faf8 <_start+0x4da2>
   1ec02:	00811503          	lh	a0,8(sp)
   1ec06:	00a14583          	lbu	a1,10(sp)
   1ec0a:	018a5613          	srli	a2,s4,0x18
   1ec0e:	010a5693          	srli	a3,s4,0x10
   1ec12:	76d90aa3          	sb	a3,1909(s2)
   1ec16:	76c90b23          	sb	a2,1910(s2)
   1ec1a:	008a5613          	srli	a2,s4,0x8
   1ec1e:	76a91823          	sh	a0,1904(s2)
   1ec22:	76b90923          	sb	a1,1906(s2)
   1ec26:	774909a3          	sb	s4,1907(s2)
   1ec2a:	76c90a23          	sb	a2,1908(s2)
   1ec2e:	7ff10513          	addi	a0,sp,2047
   1ec32:	70a50513          	addi	a0,a0,1802
   1ec36:	6585                	lui	a1,0x1
   1ec38:	32458593          	addi	a1,a1,804 # 1324 <.Lline_table_start1+0x10f9>
   1ec3c:	958a                	add	a1,a1,sp
   1ec3e:	03500613          	li	a2,53
   1ec42:	00001097          	auipc	ra,0x1
   1ec46:	fda080e7          	jalr	-38(ra) # 1fc1c <memcpy>
   1ec4a:	6505                	lui	a0,0x1
   1ec4c:	38050513          	addi	a0,a0,896 # 1380 <.Lline_table_start1+0x1155>
   1ec50:	950a                	add	a0,a0,sp
   1ec52:	7ff10593          	addi	a1,sp,2047
   1ec56:	70358593          	addi	a1,a1,1795
   1ec5a:	ffff5097          	auipc	ra,0xffff5
   1ec5e:	d94080e7          	jalr	-620(ra) # 139ee <_ZN20complex_dynamic_type3app17h223a4c37c29d980aE>
   1ec62:	3ecac483          	lbu	s1,1004(s5)
   1ec66:	c481                	beqz	s1,1ec6e <_start+0x3f18>
   1ec68:	3f0aaa03          	lw	s4,1008(s5)
   1ec6c:	a835                	j	1eca8 <_start+0x3f52>
   1ec6e:	3eeac503          	lbu	a0,1006(s5)
   1ec72:	3edac583          	lbu	a1,1005(s5)
   1ec76:	3efac603          	lbu	a2,1007(s5)
   1ec7a:	3f0aaa03          	lw	s4,1008(s5)
   1ec7e:	0522                	slli	a0,a0,0x8
   1ec80:	8d4d                	or	a0,a0,a1
   1ec82:	00a11423          	sh	a0,8(sp)
   1ec86:	00c10523          	sb	a2,10(sp)
   1ec8a:	6505                	lui	a0,0x1
   1ec8c:	38850513          	addi	a0,a0,904 # 1388 <.Lline_table_start1+0x115d>
   1ec90:	00a105b3          	add	a1,sp,a0
   1ec94:	6505                	lui	a0,0x1
   1ec96:	32450513          	addi	a0,a0,804 # 1324 <.Lline_table_start1+0x10f9>
   1ec9a:	950a                	add	a0,a0,sp
   1ec9c:	02500613          	li	a2,37
   1eca0:	00001097          	auipc	ra,0x1
   1eca4:	f7c080e7          	jalr	-132(ra) # 1fc1c <memcpy>
   1eca8:	640498e3          	bnez	s1,1faf8 <_start+0x4da2>
   1ecac:	00811503          	lh	a0,8(sp)
   1ecb0:	00a14583          	lbu	a1,10(sp)
   1ecb4:	018a5613          	srli	a2,s4,0x18
   1ecb8:	010a5693          	srli	a3,s4,0x10
   1ecbc:	7ad908a3          	sb	a3,1969(s2)
   1ecc0:	7ac90923          	sb	a2,1970(s2)
   1ecc4:	008a5613          	srli	a2,s4,0x8
   1ecc8:	7aa91623          	sh	a0,1964(s2)
   1eccc:	7ab90723          	sb	a1,1966(s2)
   1ecd0:	7b4907a3          	sb	s4,1967(s2)
   1ecd4:	7ac90823          	sb	a2,1968(s2)
   1ecd8:	7ff10513          	addi	a0,sp,2047
   1ecdc:	74650513          	addi	a0,a0,1862
   1ece0:	6585                	lui	a1,0x1
   1ece2:	32458593          	addi	a1,a1,804 # 1324 <.Lline_table_start1+0x10f9>
   1ece6:	958a                	add	a1,a1,sp
   1ece8:	02500613          	li	a2,37
   1ecec:	00001097          	auipc	ra,0x1
   1ecf0:	f30080e7          	jalr	-208(ra) # 1fc1c <memcpy>
   1ecf4:	6505                	lui	a0,0x1
   1ecf6:	38050513          	addi	a0,a0,896 # 1380 <.Lline_table_start1+0x1155>
   1ecfa:	950a                	add	a0,a0,sp
   1ecfc:	7ff10593          	addi	a1,sp,2047
   1ed00:	73f58593          	addi	a1,a1,1855
   1ed04:	ffff7097          	auipc	ra,0xffff7
   1ed08:	67a080e7          	jalr	1658(ra) # 1637e <_ZN20complex_dynamic_type3app17h867e144fc24385c4E>
   1ed0c:	3ecac503          	lbu	a0,1004(s5)
   1ed10:	c501                	beqz	a0,1ed18 <_start+0x3fc2>
   1ed12:	3f0aaa03          	lw	s4,1008(s5)
   1ed16:	a8b9                	j	1ed74 <_start+0x401e>
   1ed18:	3edac583          	lbu	a1,1005(s5)
   1ed1c:	3eeac603          	lbu	a2,1006(s5)
   1ed20:	3efac683          	lbu	a3,1007(s5)
   1ed24:	3f0aaa03          	lw	s4,1008(s5)
   1ed28:	3f4aa703          	lw	a4,1012(s5)
   1ed2c:	3f8aa783          	lw	a5,1016(s5)
   1ed30:	3fcaa483          	lw	s1,1020(s5)
   1ed34:	400aa403          	lw	s0,1024(s5)
   1ed38:	0622                	slli	a2,a2,0x8
   1ed3a:	38eaa823          	sw	a4,912(s5)
   1ed3e:	38faaa23          	sw	a5,916(s5)
   1ed42:	389aac23          	sw	s1,920(s5)
   1ed46:	388aae23          	sw	s0,924(s5)
   1ed4a:	8dd1                	or	a1,a1,a2
   1ed4c:	00b11423          	sh	a1,8(sp)
   1ed50:	00d10523          	sb	a3,10(sp)
   1ed54:	404aa583          	lw	a1,1028(s5)
   1ed58:	408aa603          	lw	a2,1032(s5)
   1ed5c:	40caa683          	lw	a3,1036(s5)
   1ed60:	410aa703          	lw	a4,1040(s5)
   1ed64:	3abaa023          	sw	a1,928(s5)
   1ed68:	3acaa223          	sw	a2,932(s5)
   1ed6c:	3adaa423          	sw	a3,936(s5)
   1ed70:	3aeaa623          	sw	a4,940(s5)
   1ed74:	580512e3          	bnez	a0,1faf8 <_start+0x4da2>
   1ed78:	00811503          	lh	a0,8(sp)
   1ed7c:	00a14583          	lbu	a1,10(sp)
   1ed80:	018a5613          	srli	a2,s4,0x18
   1ed84:	010a5693          	srli	a3,s4,0x10
   1ed88:	7cd90ea3          	sb	a3,2013(s2)
   1ed8c:	7cc90f23          	sb	a2,2014(s2)
   1ed90:	008a5613          	srli	a2,s4,0x8
   1ed94:	7ca91c23          	sh	a0,2008(s2)
   1ed98:	7cb90d23          	sb	a1,2010(s2)
   1ed9c:	7d490da3          	sb	s4,2011(s2)
   1eda0:	7cc90e23          	sb	a2,2012(s2)
   1eda4:	7ff10513          	addi	a0,sp,2047
   1eda8:	77250513          	addi	a0,a0,1906
   1edac:	6585                	lui	a1,0x1
   1edae:	32458593          	addi	a1,a1,804 # 1324 <.Lline_table_start1+0x10f9>
   1edb2:	958a                	add	a1,a1,sp
   1edb4:	02000613          	li	a2,32
   1edb8:	00001097          	auipc	ra,0x1
   1edbc:	e64080e7          	jalr	-412(ra) # 1fc1c <memcpy>
   1edc0:	6505                	lui	a0,0x1
   1edc2:	38050513          	addi	a0,a0,896 # 1380 <.Lline_table_start1+0x1155>
   1edc6:	950a                	add	a0,a0,sp
   1edc8:	7ff10593          	addi	a1,sp,2047
   1edcc:	76b58593          	addi	a1,a1,1899
   1edd0:	ffff4097          	auipc	ra,0xffff4
   1edd4:	b20080e7          	jalr	-1248(ra) # 128f0 <_ZN20complex_dynamic_type3app17h0fdf7113a10c88f1E>
   1edd8:	3ecac403          	lbu	s0,1004(s5)
   1eddc:	c401                	beqz	s0,1ede4 <_start+0x408e>
   1edde:	3f0aaa03          	lw	s4,1008(s5)
   1ede2:	a835                	j	1ee1e <_start+0x40c8>
   1ede4:	3eeac503          	lbu	a0,1006(s5)
   1ede8:	3edac583          	lbu	a1,1005(s5)
   1edec:	3efac603          	lbu	a2,1007(s5)
   1edf0:	3f0aaa03          	lw	s4,1008(s5)
   1edf4:	0522                	slli	a0,a0,0x8
   1edf6:	8d4d                	or	a0,a0,a1
   1edf8:	00a11423          	sh	a0,8(sp)
   1edfc:	00c10523          	sb	a2,10(sp)
   1ee00:	6505                	lui	a0,0x1
   1ee02:	38850513          	addi	a0,a0,904 # 1388 <.Lline_table_start1+0x115d>
   1ee06:	00a105b3          	add	a1,sp,a0
   1ee0a:	6505                	lui	a0,0x1
   1ee0c:	32450513          	addi	a0,a0,804 # 1324 <.Lline_table_start1+0x10f9>
   1ee10:	950a                	add	a0,a0,sp
   1ee12:	04800613          	li	a2,72
   1ee16:	00001097          	auipc	ra,0x1
   1ee1a:	e06080e7          	jalr	-506(ra) # 1fc1c <memcpy>
   1ee1e:	4c041de3          	bnez	s0,1faf8 <_start+0x4da2>
   1ee22:	00811503          	lh	a0,8(sp)
   1ee26:	00a14583          	lbu	a1,10(sp)
   1ee2a:	018a5613          	srli	a2,s4,0x18
   1ee2e:	010a5693          	srli	a3,s4,0x10
   1ee32:	00da81a3          	sb	a3,3(s5)
   1ee36:	00ca8223          	sb	a2,4(s5)
   1ee3a:	008a5613          	srli	a2,s4,0x8
   1ee3e:	feaa9f23          	sh	a0,-2(s5)
   1ee42:	00ba8023          	sb	a1,0(s5)
   1ee46:	014a80a3          	sb	s4,1(s5)
   1ee4a:	00ca8123          	sb	a2,2(s5)
   1ee4e:	7ff10513          	addi	a0,sp,2047
   1ee52:	79a50513          	addi	a0,a0,1946
   1ee56:	6585                	lui	a1,0x1
   1ee58:	32458593          	addi	a1,a1,804 # 1324 <.Lline_table_start1+0x10f9>
   1ee5c:	958a                	add	a1,a1,sp
   1ee5e:	04800613          	li	a2,72
   1ee62:	00001097          	auipc	ra,0x1
   1ee66:	dba080e7          	jalr	-582(ra) # 1fc1c <memcpy>
   1ee6a:	6505                	lui	a0,0x1
   1ee6c:	38050513          	addi	a0,a0,896 # 1380 <.Lline_table_start1+0x1155>
   1ee70:	950a                	add	a0,a0,sp
   1ee72:	7ff10593          	addi	a1,sp,2047
   1ee76:	79358593          	addi	a1,a1,1939
   1ee7a:	ffff3097          	auipc	ra,0xffff3
   1ee7e:	75e080e7          	jalr	1886(ra) # 125d8 <_ZN20complex_dynamic_type3app17h0b1e2fd932b2bc15E>
   1ee82:	3ecac403          	lbu	s0,1004(s5)
   1ee86:	c401                	beqz	s0,1ee8e <_start+0x4138>
   1ee88:	3f0aaa03          	lw	s4,1008(s5)
   1ee8c:	a835                	j	1eec8 <_start+0x4172>
   1ee8e:	3eeac503          	lbu	a0,1006(s5)
   1ee92:	3edac583          	lbu	a1,1005(s5)
   1ee96:	3efac603          	lbu	a2,1007(s5)
   1ee9a:	3f0aaa03          	lw	s4,1008(s5)
   1ee9e:	0522                	slli	a0,a0,0x8
   1eea0:	8d4d                	or	a0,a0,a1
   1eea2:	00a11423          	sh	a0,8(sp)
   1eea6:	00c10523          	sb	a2,10(sp)
   1eeaa:	6505                	lui	a0,0x1
   1eeac:	38850513          	addi	a0,a0,904 # 1388 <.Lline_table_start1+0x115d>
   1eeb0:	00a105b3          	add	a1,sp,a0
   1eeb4:	6505                	lui	a0,0x1
   1eeb6:	32450513          	addi	a0,a0,804 # 1324 <.Lline_table_start1+0x10f9>
   1eeba:	950a                	add	a0,a0,sp
   1eebc:	02e00613          	li	a2,46
   1eec0:	00001097          	auipc	ra,0x1
   1eec4:	d5c080e7          	jalr	-676(ra) # 1fc1c <memcpy>
   1eec8:	420418e3          	bnez	s0,1faf8 <_start+0x4da2>
   1eecc:	00811503          	lh	a0,8(sp)
   1eed0:	00a14583          	lbu	a1,10(sp)
   1eed4:	018a5613          	srli	a2,s4,0x18
   1eed8:	010a5693          	srli	a3,s4,0x10
   1eedc:	04da89a3          	sb	a3,83(s5)
   1eee0:	04ca8a23          	sb	a2,84(s5)
   1eee4:	008a5613          	srli	a2,s4,0x8
   1eee8:	04aa9723          	sh	a0,78(s5)
   1eeec:	04ba8823          	sb	a1,80(s5)
   1eef0:	054a88a3          	sb	s4,81(s5)
   1eef4:	04ca8923          	sb	a2,82(s5)
   1eef8:	7ff10513          	addi	a0,sp,2047
   1eefc:	7ea50513          	addi	a0,a0,2026
   1ef00:	6585                	lui	a1,0x1
   1ef02:	32458593          	addi	a1,a1,804 # 1324 <.Lline_table_start1+0x10f9>
   1ef06:	958a                	add	a1,a1,sp
   1ef08:	02e00613          	li	a2,46
   1ef0c:	00001097          	auipc	ra,0x1
   1ef10:	d10080e7          	jalr	-752(ra) # 1fc1c <memcpy>
   1ef14:	6505                	lui	a0,0x1
   1ef16:	38050513          	addi	a0,a0,896 # 1380 <.Lline_table_start1+0x1155>
   1ef1a:	950a                	add	a0,a0,sp
   1ef1c:	7ff10593          	addi	a1,sp,2047
   1ef20:	7e358593          	addi	a1,a1,2019
   1ef24:	ffff3097          	auipc	ra,0xffff3
   1ef28:	d70080e7          	jalr	-656(ra) # 11c94 <_ZN20complex_dynamic_type3app17h0030e7858bb8cd0bE>
   1ef2c:	3ecac403          	lbu	s0,1004(s5)
   1ef30:	c401                	beqz	s0,1ef38 <_start+0x41e2>
   1ef32:	3f0aaa03          	lw	s4,1008(s5)
   1ef36:	a835                	j	1ef72 <_start+0x421c>
   1ef38:	3eeac503          	lbu	a0,1006(s5)
   1ef3c:	3edac583          	lbu	a1,1005(s5)
   1ef40:	3efac603          	lbu	a2,1007(s5)
   1ef44:	3f0aaa03          	lw	s4,1008(s5)
   1ef48:	0522                	slli	a0,a0,0x8
   1ef4a:	8d4d                	or	a0,a0,a1
   1ef4c:	00a11423          	sh	a0,8(sp)
   1ef50:	00c10523          	sb	a2,10(sp)
   1ef54:	6505                	lui	a0,0x1
   1ef56:	38850513          	addi	a0,a0,904 # 1388 <.Lline_table_start1+0x115d>
   1ef5a:	00a105b3          	add	a1,sp,a0
   1ef5e:	6505                	lui	a0,0x1
   1ef60:	32450513          	addi	a0,a0,804 # 1324 <.Lline_table_start1+0x10f9>
   1ef64:	950a                	add	a0,a0,sp
   1ef66:	03800613          	li	a2,56
   1ef6a:	00001097          	auipc	ra,0x1
   1ef6e:	cb2080e7          	jalr	-846(ra) # 1fc1c <memcpy>
   1ef72:	380413e3          	bnez	s0,1faf8 <_start+0x4da2>
   1ef76:	00811503          	lh	a0,8(sp)
   1ef7a:	00a14583          	lbu	a1,10(sp)
   1ef7e:	018a5613          	srli	a2,s4,0x18
   1ef82:	010a5693          	srli	a3,s4,0x10
   1ef86:	08da84a3          	sb	a3,137(s5)
   1ef8a:	08ca8523          	sb	a2,138(s5)
   1ef8e:	008a5613          	srli	a2,s4,0x8
   1ef92:	08aa9223          	sh	a0,132(s5)
   1ef96:	08ba8323          	sb	a1,134(s5)
   1ef9a:	094a83a3          	sb	s4,135(s5)
   1ef9e:	08ca8423          	sb	a2,136(s5)
   1efa2:	6505                	lui	a0,0x1
   1efa4:	057d                	addi	a0,a0,31 # 101f <.Lline_table_start1+0xdf4>
   1efa6:	950a                	add	a0,a0,sp
   1efa8:	6585                	lui	a1,0x1
   1efaa:	32458593          	addi	a1,a1,804 # 1324 <.Lline_table_start1+0x10f9>
   1efae:	958a                	add	a1,a1,sp
   1efb0:	03800613          	li	a2,56
   1efb4:	00001097          	auipc	ra,0x1
   1efb8:	c68080e7          	jalr	-920(ra) # 1fc1c <memcpy>
   1efbc:	6505                	lui	a0,0x1
   1efbe:	38050513          	addi	a0,a0,896 # 1380 <.Lline_table_start1+0x1155>
   1efc2:	950a                	add	a0,a0,sp
   1efc4:	6585                	lui	a1,0x1
   1efc6:	05e1                	addi	a1,a1,24 # 1018 <.Lline_table_start1+0xded>
   1efc8:	958a                	add	a1,a1,sp
   1efca:	ffff4097          	auipc	ra,0xffff4
   1efce:	580080e7          	jalr	1408(ra) # 1354a <_ZN20complex_dynamic_type3app17h214471f8d4b661b6E>
   1efd2:	3ecac503          	lbu	a0,1004(s5)
   1efd6:	c501                	beqz	a0,1efde <_start+0x4288>
   1efd8:	3f0aaa03          	lw	s4,1008(s5)
   1efdc:	a81d                	j	1f012 <_start+0x42bc>
   1efde:	3eeac583          	lbu	a1,1006(s5)
   1efe2:	3edac603          	lbu	a2,1005(s5)
   1efe6:	3efac683          	lbu	a3,1007(s5)
   1efea:	3f0aaa03          	lw	s4,1008(s5)
   1efee:	05a2                	slli	a1,a1,0x8
   1eff0:	8dd1                	or	a1,a1,a2
   1eff2:	3f4aa603          	lw	a2,1012(s5)
   1eff6:	3f8aa703          	lw	a4,1016(s5)
   1effa:	3fca9783          	lh	a5,1020(s5)
   1effe:	00b11423          	sh	a1,8(sp)
   1f002:	00d10523          	sb	a3,10(sp)
   1f006:	38caa823          	sw	a2,912(s5)
   1f00a:	38eaaa23          	sw	a4,916(s5)
   1f00e:	38fa9c23          	sh	a5,920(s5)
   1f012:	2e0513e3          	bnez	a0,1faf8 <_start+0x4da2>
   1f016:	00811503          	lh	a0,8(sp)
   1f01a:	00a14583          	lbu	a1,10(sp)
   1f01e:	018a5613          	srli	a2,s4,0x18
   1f022:	010a5693          	srli	a3,s4,0x10
   1f026:	0cda84a3          	sb	a3,201(s5)
   1f02a:	0cca8523          	sb	a2,202(s5)
   1f02e:	008a5613          	srli	a2,s4,0x8
   1f032:	0caa9223          	sh	a0,196(s5)
   1f036:	0cba8323          	sb	a1,198(s5)
   1f03a:	0d4a83a3          	sb	s4,199(s5)
   1f03e:	0cca8423          	sb	a2,200(s5)
   1f042:	6505                	lui	a0,0x1
   1f044:	05f50513          	addi	a0,a0,95 # 105f <.Lline_table_start1+0xe34>
   1f048:	950a                	add	a0,a0,sp
   1f04a:	6585                	lui	a1,0x1
   1f04c:	32458593          	addi	a1,a1,804 # 1324 <.Lline_table_start1+0x10f9>
   1f050:	958a                	add	a1,a1,sp
   1f052:	4629                	li	a2,10
   1f054:	00001097          	auipc	ra,0x1
   1f058:	bc8080e7          	jalr	-1080(ra) # 1fc1c <memcpy>
   1f05c:	6505                	lui	a0,0x1
   1f05e:	38050513          	addi	a0,a0,896 # 1380 <.Lline_table_start1+0x1155>
   1f062:	950a                	add	a0,a0,sp
   1f064:	6585                	lui	a1,0x1
   1f066:	05858593          	addi	a1,a1,88 # 1058 <.Lline_table_start1+0xe2d>
   1f06a:	958a                	add	a1,a1,sp
   1f06c:	ffff8097          	auipc	ra,0xffff8
   1f070:	ac8080e7          	jalr	-1336(ra) # 16b34 <_ZN20complex_dynamic_type3app17h9370d595f813cecbE>
   1f074:	3ecac403          	lbu	s0,1004(s5)
   1f078:	c401                	beqz	s0,1f080 <_start+0x432a>
   1f07a:	3f0aaa03          	lw	s4,1008(s5)
   1f07e:	a835                	j	1f0ba <_start+0x4364>
   1f080:	3eeac503          	lbu	a0,1006(s5)
   1f084:	3edac583          	lbu	a1,1005(s5)
   1f088:	3efac603          	lbu	a2,1007(s5)
   1f08c:	3f0aaa03          	lw	s4,1008(s5)
   1f090:	0522                	slli	a0,a0,0x8
   1f092:	8d4d                	or	a0,a0,a1
   1f094:	00a11423          	sh	a0,8(sp)
   1f098:	00c10523          	sb	a2,10(sp)
   1f09c:	6505                	lui	a0,0x1
   1f09e:	38850513          	addi	a0,a0,904 # 1388 <.Lline_table_start1+0x115d>
   1f0a2:	00a105b3          	add	a1,sp,a0
   1f0a6:	6505                	lui	a0,0x1
   1f0a8:	32450513          	addi	a0,a0,804 # 1324 <.Lline_table_start1+0x10f9>
   1f0ac:	950a                	add	a0,a0,sp
   1f0ae:	03800613          	li	a2,56
   1f0b2:	00001097          	auipc	ra,0x1
   1f0b6:	b6a080e7          	jalr	-1174(ra) # 1fc1c <memcpy>
   1f0ba:	22041fe3          	bnez	s0,1faf8 <_start+0x4da2>
   1f0be:	00811503          	lh	a0,8(sp)
   1f0c2:	00a14583          	lbu	a1,10(sp)
   1f0c6:	018a5613          	srli	a2,s4,0x18
   1f0ca:	010a5693          	srli	a3,s4,0x10
   1f0ce:	0cda8da3          	sb	a3,219(s5)
   1f0d2:	0cca8e23          	sb	a2,220(s5)
   1f0d6:	008a5613          	srli	a2,s4,0x8
   1f0da:	0caa9b23          	sh	a0,214(s5)
   1f0de:	0cba8c23          	sb	a1,216(s5)
   1f0e2:	0d4a8ca3          	sb	s4,217(s5)
   1f0e6:	0cca8d23          	sb	a2,218(s5)
   1f0ea:	6505                	lui	a0,0x1
   1f0ec:	07150513          	addi	a0,a0,113 # 1071 <.Lline_table_start1+0xe46>
   1f0f0:	950a                	add	a0,a0,sp
   1f0f2:	6585                	lui	a1,0x1
   1f0f4:	32458593          	addi	a1,a1,804 # 1324 <.Lline_table_start1+0x10f9>
   1f0f8:	958a                	add	a1,a1,sp
   1f0fa:	03800613          	li	a2,56
   1f0fe:	00001097          	auipc	ra,0x1
   1f102:	b1e080e7          	jalr	-1250(ra) # 1fc1c <memcpy>
   1f106:	6505                	lui	a0,0x1
   1f108:	38050513          	addi	a0,a0,896 # 1380 <.Lline_table_start1+0x1155>
   1f10c:	950a                	add	a0,a0,sp
   1f10e:	6585                	lui	a1,0x1
   1f110:	06a58593          	addi	a1,a1,106 # 106a <.Lline_table_start1+0xe3f>
   1f114:	958a                	add	a1,a1,sp
   1f116:	ffff5097          	auipc	ra,0xffff5
   1f11a:	6ba080e7          	jalr	1722(ra) # 147d0 <_ZN20complex_dynamic_type3app17h58e6450602046a36E>
   1f11e:	3ecac503          	lbu	a0,1004(s5)
   1f122:	c501                	beqz	a0,1f12a <_start+0x43d4>
   1f124:	3f0aaa03          	lw	s4,1008(s5)
   1f128:	a0b9                	j	1f176 <_start+0x4420>
   1f12a:	3edac583          	lbu	a1,1005(s5)
   1f12e:	3eeac603          	lbu	a2,1006(s5)
   1f132:	3efac683          	lbu	a3,1007(s5)
   1f136:	3f0aaa03          	lw	s4,1008(s5)
   1f13a:	3f4aa703          	lw	a4,1012(s5)
   1f13e:	3f8aa783          	lw	a5,1016(s5)
   1f142:	3fcaa483          	lw	s1,1020(s5)
   1f146:	400aa403          	lw	s0,1024(s5)
   1f14a:	0622                	slli	a2,a2,0x8
   1f14c:	38eaa823          	sw	a4,912(s5)
   1f150:	38faaa23          	sw	a5,916(s5)
   1f154:	389aac23          	sw	s1,920(s5)
   1f158:	388aae23          	sw	s0,924(s5)
   1f15c:	8dd1                	or	a1,a1,a2
   1f15e:	404aa603          	lw	a2,1028(s5)
   1f162:	408ac703          	lbu	a4,1032(s5)
   1f166:	00b11423          	sh	a1,8(sp)
   1f16a:	00d10523          	sb	a3,10(sp)
   1f16e:	3acaa023          	sw	a2,928(s5)
   1f172:	3aea8223          	sb	a4,932(s5)
   1f176:	180511e3          	bnez	a0,1faf8 <_start+0x4da2>
   1f17a:	00811503          	lh	a0,8(sp)
   1f17e:	00a14583          	lbu	a1,10(sp)
   1f182:	018a5613          	srli	a2,s4,0x18
   1f186:	010a5693          	srli	a3,s4,0x10
   1f18a:	10da8da3          	sb	a3,283(s5)
   1f18e:	10ca8e23          	sb	a2,284(s5)
   1f192:	008a5613          	srli	a2,s4,0x8
   1f196:	10aa9b23          	sh	a0,278(s5)
   1f19a:	10ba8c23          	sb	a1,280(s5)
   1f19e:	114a8ca3          	sb	s4,281(s5)
   1f1a2:	10ca8d23          	sb	a2,282(s5)
   1f1a6:	6505                	lui	a0,0x1
   1f1a8:	0b150513          	addi	a0,a0,177 # 10b1 <.Lline_table_start1+0xe86>
   1f1ac:	950a                	add	a0,a0,sp
   1f1ae:	6585                	lui	a1,0x1
   1f1b0:	32458593          	addi	a1,a1,804 # 1324 <.Lline_table_start1+0x10f9>
   1f1b4:	958a                	add	a1,a1,sp
   1f1b6:	4655                	li	a2,21
   1f1b8:	00001097          	auipc	ra,0x1
   1f1bc:	a64080e7          	jalr	-1436(ra) # 1fc1c <memcpy>
   1f1c0:	6505                	lui	a0,0x1
   1f1c2:	38050513          	addi	a0,a0,896 # 1380 <.Lline_table_start1+0x1155>
   1f1c6:	950a                	add	a0,a0,sp
   1f1c8:	6585                	lui	a1,0x1
   1f1ca:	0aa58593          	addi	a1,a1,170 # 10aa <.Lline_table_start1+0xe7f>
   1f1ce:	958a                	add	a1,a1,sp
   1f1d0:	ffff5097          	auipc	ra,0xffff5
   1f1d4:	9ae080e7          	jalr	-1618(ra) # 13b7e <_ZN20complex_dynamic_type3app17h228aeda1c7331d25E>
   1f1d8:	3ecac403          	lbu	s0,1004(s5)
   1f1dc:	c401                	beqz	s0,1f1e4 <_start+0x448e>
   1f1de:	3f0aaa03          	lw	s4,1008(s5)
   1f1e2:	a835                	j	1f21e <_start+0x44c8>
   1f1e4:	3eeac503          	lbu	a0,1006(s5)
   1f1e8:	3edac583          	lbu	a1,1005(s5)
   1f1ec:	3efac603          	lbu	a2,1007(s5)
   1f1f0:	3f0aaa03          	lw	s4,1008(s5)
   1f1f4:	0522                	slli	a0,a0,0x8
   1f1f6:	8d4d                	or	a0,a0,a1
   1f1f8:	00a11423          	sh	a0,8(sp)
   1f1fc:	00c10523          	sb	a2,10(sp)
   1f200:	6505                	lui	a0,0x1
   1f202:	38850513          	addi	a0,a0,904 # 1388 <.Lline_table_start1+0x115d>
   1f206:	00a105b3          	add	a1,sp,a0
   1f20a:	6505                	lui	a0,0x1
   1f20c:	32450513          	addi	a0,a0,804 # 1324 <.Lline_table_start1+0x10f9>
   1f210:	950a                	add	a0,a0,sp
   1f212:	05600613          	li	a2,86
   1f216:	00001097          	auipc	ra,0x1
   1f21a:	a06080e7          	jalr	-1530(ra) # 1fc1c <memcpy>
   1f21e:	0c041de3          	bnez	s0,1faf8 <_start+0x4da2>
   1f222:	00811503          	lh	a0,8(sp)
   1f226:	00a14583          	lbu	a1,10(sp)
   1f22a:	018a5613          	srli	a2,s4,0x18
   1f22e:	010a5693          	srli	a3,s4,0x10
   1f232:	12da8ba3          	sb	a3,311(s5)
   1f236:	12ca8c23          	sb	a2,312(s5)
   1f23a:	008a5613          	srli	a2,s4,0x8
   1f23e:	12aa9923          	sh	a0,306(s5)
   1f242:	12ba8a23          	sb	a1,308(s5)
   1f246:	134a8aa3          	sb	s4,309(s5)
   1f24a:	12ca8b23          	sb	a2,310(s5)
   1f24e:	6505                	lui	a0,0x1
   1f250:	0cd50513          	addi	a0,a0,205 # 10cd <.Lline_table_start1+0xea2>
   1f254:	950a                	add	a0,a0,sp
   1f256:	6585                	lui	a1,0x1
   1f258:	32458593          	addi	a1,a1,804 # 1324 <.Lline_table_start1+0x10f9>
   1f25c:	958a                	add	a1,a1,sp
   1f25e:	05600613          	li	a2,86
   1f262:	00001097          	auipc	ra,0x1
   1f266:	9ba080e7          	jalr	-1606(ra) # 1fc1c <memcpy>
   1f26a:	6505                	lui	a0,0x1
   1f26c:	38050513          	addi	a0,a0,896 # 1380 <.Lline_table_start1+0x1155>
   1f270:	950a                	add	a0,a0,sp
   1f272:	6585                	lui	a1,0x1
   1f274:	0c658593          	addi	a1,a1,198 # 10c6 <.Lline_table_start1+0xe9b>
   1f278:	958a                	add	a1,a1,sp
   1f27a:	ffff5097          	auipc	ra,0xffff5
   1f27e:	3ce080e7          	jalr	974(ra) # 14648 <_ZN20complex_dynamic_type3app17h54fe4df7bc9349a4E>
   1f282:	3ecac503          	lbu	a0,1004(s5)
   1f286:	c501                	beqz	a0,1f28e <_start+0x4538>
   1f288:	3f0aaa03          	lw	s4,1008(s5)
   1f28c:	a83d                	j	1f2ca <_start+0x4574>
   1f28e:	3eeac583          	lbu	a1,1006(s5)
   1f292:	3edac603          	lbu	a2,1005(s5)
   1f296:	3efac683          	lbu	a3,1007(s5)
   1f29a:	3f0aaa03          	lw	s4,1008(s5)
   1f29e:	05a2                	slli	a1,a1,0x8
   1f2a0:	8dd1                	or	a1,a1,a2
   1f2a2:	00b11423          	sh	a1,8(sp)
   1f2a6:	00d10523          	sb	a3,10(sp)
   1f2aa:	3f4aa583          	lw	a1,1012(s5)
   1f2ae:	3f8aa603          	lw	a2,1016(s5)
   1f2b2:	3fca9683          	lh	a3,1020(s5)
   1f2b6:	3feac703          	lbu	a4,1022(s5)
   1f2ba:	38baa823          	sw	a1,912(s5)
   1f2be:	38caaa23          	sw	a2,916(s5)
   1f2c2:	38da9c23          	sh	a3,920(s5)
   1f2c6:	38ea8d23          	sb	a4,922(s5)
   1f2ca:	020517e3          	bnez	a0,1faf8 <_start+0x4da2>
   1f2ce:	00811503          	lh	a0,8(sp)
   1f2d2:	00a14583          	lbu	a1,10(sp)
   1f2d6:	018a5613          	srli	a2,s4,0x18
   1f2da:	010a5693          	srli	a3,s4,0x10
   1f2de:	18da8aa3          	sb	a3,405(s5)
   1f2e2:	18ca8b23          	sb	a2,406(s5)
   1f2e6:	008a5613          	srli	a2,s4,0x8
   1f2ea:	18aa9823          	sh	a0,400(s5)
   1f2ee:	18ba8923          	sb	a1,402(s5)
   1f2f2:	194a89a3          	sb	s4,403(s5)
   1f2f6:	18ca8a23          	sb	a2,404(s5)
   1f2fa:	6505                	lui	a0,0x1
   1f2fc:	12b50513          	addi	a0,a0,299 # 112b <.Lline_table_start1+0xf00>
   1f300:	950a                	add	a0,a0,sp
   1f302:	6585                	lui	a1,0x1
   1f304:	32458593          	addi	a1,a1,804 # 1324 <.Lline_table_start1+0x10f9>
   1f308:	958a                	add	a1,a1,sp
   1f30a:	462d                	li	a2,11
   1f30c:	00001097          	auipc	ra,0x1
   1f310:	910080e7          	jalr	-1776(ra) # 1fc1c <memcpy>
   1f314:	6505                	lui	a0,0x1
   1f316:	38050513          	addi	a0,a0,896 # 1380 <.Lline_table_start1+0x1155>
   1f31a:	950a                	add	a0,a0,sp
   1f31c:	6585                	lui	a1,0x1
   1f31e:	12458593          	addi	a1,a1,292 # 1124 <.Lline_table_start1+0xef9>
   1f322:	958a                	add	a1,a1,sp
   1f324:	ffff7097          	auipc	ra,0xffff7
   1f328:	364080e7          	jalr	868(ra) # 16688 <_ZN20complex_dynamic_type3app17h89152cc672a93a7cE>
   1f32c:	3ecac403          	lbu	s0,1004(s5)
   1f330:	c401                	beqz	s0,1f338 <_start+0x45e2>
   1f332:	3f0aaa03          	lw	s4,1008(s5)
   1f336:	a835                	j	1f372 <_start+0x461c>
   1f338:	3eeac503          	lbu	a0,1006(s5)
   1f33c:	3edac583          	lbu	a1,1005(s5)
   1f340:	3efac603          	lbu	a2,1007(s5)
   1f344:	3f0aaa03          	lw	s4,1008(s5)
   1f348:	0522                	slli	a0,a0,0x8
   1f34a:	8d4d                	or	a0,a0,a1
   1f34c:	00a11423          	sh	a0,8(sp)
   1f350:	00c10523          	sb	a2,10(sp)
   1f354:	6505                	lui	a0,0x1
   1f356:	38850513          	addi	a0,a0,904 # 1388 <.Lline_table_start1+0x115d>
   1f35a:	00a105b3          	add	a1,sp,a0
   1f35e:	6505                	lui	a0,0x1
   1f360:	32450513          	addi	a0,a0,804 # 1324 <.Lline_table_start1+0x10f9>
   1f364:	950a                	add	a0,a0,sp
   1f366:	03d00613          	li	a2,61
   1f36a:	00001097          	auipc	ra,0x1
   1f36e:	8b2080e7          	jalr	-1870(ra) # 1fc1c <memcpy>
   1f372:	78041363          	bnez	s0,1faf8 <_start+0x4da2>
   1f376:	00811503          	lh	a0,8(sp)
   1f37a:	00a14583          	lbu	a1,10(sp)
   1f37e:	018a5613          	srli	a2,s4,0x18
   1f382:	010a5693          	srli	a3,s4,0x10
   1f386:	1ada83a3          	sb	a3,423(s5)
   1f38a:	1aca8423          	sb	a2,424(s5)
   1f38e:	008a5613          	srli	a2,s4,0x8
   1f392:	1aaa9123          	sh	a0,418(s5)
   1f396:	1aba8223          	sb	a1,420(s5)
   1f39a:	1b4a82a3          	sb	s4,421(s5)
   1f39e:	1aca8323          	sb	a2,422(s5)
   1f3a2:	6505                	lui	a0,0x1
   1f3a4:	13d50513          	addi	a0,a0,317 # 113d <.Lline_table_start1+0xf12>
   1f3a8:	950a                	add	a0,a0,sp
   1f3aa:	6585                	lui	a1,0x1
   1f3ac:	32458593          	addi	a1,a1,804 # 1324 <.Lline_table_start1+0x10f9>
   1f3b0:	958a                	add	a1,a1,sp
   1f3b2:	03d00613          	li	a2,61
   1f3b6:	00001097          	auipc	ra,0x1
   1f3ba:	866080e7          	jalr	-1946(ra) # 1fc1c <memcpy>
   1f3be:	6505                	lui	a0,0x1
   1f3c0:	38050513          	addi	a0,a0,896 # 1380 <.Lline_table_start1+0x1155>
   1f3c4:	950a                	add	a0,a0,sp
   1f3c6:	6585                	lui	a1,0x1
   1f3c8:	13658593          	addi	a1,a1,310 # 1136 <.Lline_table_start1+0xf0b>
   1f3cc:	958a                	add	a1,a1,sp
   1f3ce:	ffffa097          	auipc	ra,0xffffa
   1f3d2:	71e080e7          	jalr	1822(ra) # 19aec <_ZN20complex_dynamic_type3app17heb909a3493d373a1E>
   1f3d6:	3ecac503          	lbu	a0,1004(s5)
   1f3da:	c501                	beqz	a0,1f3e2 <_start+0x468c>
   1f3dc:	3f0aaa03          	lw	s4,1008(s5)
   1f3e0:	a899                	j	1f436 <_start+0x46e0>
   1f3e2:	3edac583          	lbu	a1,1005(s5)
   1f3e6:	3eeac603          	lbu	a2,1006(s5)
   1f3ea:	3efac683          	lbu	a3,1007(s5)
   1f3ee:	3f0aaa03          	lw	s4,1008(s5)
   1f3f2:	3f4aa703          	lw	a4,1012(s5)
   1f3f6:	3f8aa783          	lw	a5,1016(s5)
   1f3fa:	3fcaa483          	lw	s1,1020(s5)
   1f3fe:	400aa403          	lw	s0,1024(s5)
   1f402:	0622                	slli	a2,a2,0x8
   1f404:	38eaa823          	sw	a4,912(s5)
   1f408:	38faaa23          	sw	a5,916(s5)
   1f40c:	389aac23          	sw	s1,920(s5)
   1f410:	388aae23          	sw	s0,924(s5)
   1f414:	8dd1                	or	a1,a1,a2
   1f416:	404aa603          	lw	a2,1028(s5)
   1f41a:	408aa703          	lw	a4,1032(s5)
   1f41e:	40caa783          	lw	a5,1036(s5)
   1f422:	00b11423          	sh	a1,8(sp)
   1f426:	00d10523          	sb	a3,10(sp)
   1f42a:	3acaa023          	sw	a2,928(s5)
   1f42e:	3aeaa223          	sw	a4,932(s5)
   1f432:	3afaa423          	sw	a5,936(s5)
   1f436:	6c051163          	bnez	a0,1faf8 <_start+0x4da2>
   1f43a:	00811503          	lh	a0,8(sp)
   1f43e:	00a14583          	lbu	a1,10(sp)
   1f442:	018a5613          	srli	a2,s4,0x18
   1f446:	010a5693          	srli	a3,s4,0x10
   1f44a:	1eda85a3          	sb	a3,491(s5)
   1f44e:	1eca8623          	sb	a2,492(s5)
   1f452:	008a5613          	srli	a2,s4,0x8
   1f456:	1eaa9323          	sh	a0,486(s5)
   1f45a:	1eba8423          	sb	a1,488(s5)
   1f45e:	1f4a84a3          	sb	s4,489(s5)
   1f462:	1eca8523          	sb	a2,490(s5)
   1f466:	6505                	lui	a0,0x1
   1f468:	18150513          	addi	a0,a0,385 # 1181 <.Lline_table_start1+0xf56>
   1f46c:	950a                	add	a0,a0,sp
   1f46e:	6585                	lui	a1,0x1
   1f470:	32458593          	addi	a1,a1,804 # 1324 <.Lline_table_start1+0x10f9>
   1f474:	958a                	add	a1,a1,sp
   1f476:	4671                	li	a2,28
   1f478:	00000097          	auipc	ra,0x0
   1f47c:	7a4080e7          	jalr	1956(ra) # 1fc1c <memcpy>
   1f480:	6505                	lui	a0,0x1
   1f482:	38050513          	addi	a0,a0,896 # 1380 <.Lline_table_start1+0x1155>
   1f486:	950a                	add	a0,a0,sp
   1f488:	6585                	lui	a1,0x1
   1f48a:	17a58593          	addi	a1,a1,378 # 117a <.Lline_table_start1+0xf4f>
   1f48e:	958a                	add	a1,a1,sp
   1f490:	ffffb097          	auipc	ra,0xffffb
   1f494:	738080e7          	jalr	1848(ra) # 1abc8 <_ZN20complex_dynamic_type3app17hfd176951e452a2a5E>
   1f498:	3ecac503          	lbu	a0,1004(s5)
   1f49c:	c501                	beqz	a0,1f4a4 <_start+0x474e>
   1f49e:	3f0aaa03          	lw	s4,1008(s5)
   1f4a2:	a8b9                	j	1f500 <_start+0x47aa>
   1f4a4:	3edac583          	lbu	a1,1005(s5)
   1f4a8:	3eeac603          	lbu	a2,1006(s5)
   1f4ac:	3efac683          	lbu	a3,1007(s5)
   1f4b0:	3f0aaa03          	lw	s4,1008(s5)
   1f4b4:	3f4aa703          	lw	a4,1012(s5)
   1f4b8:	3f8aa783          	lw	a5,1016(s5)
   1f4bc:	3fcaa483          	lw	s1,1020(s5)
   1f4c0:	400aa403          	lw	s0,1024(s5)
   1f4c4:	0622                	slli	a2,a2,0x8
   1f4c6:	38eaa823          	sw	a4,912(s5)
   1f4ca:	38faaa23          	sw	a5,916(s5)
   1f4ce:	389aac23          	sw	s1,920(s5)
   1f4d2:	388aae23          	sw	s0,924(s5)
   1f4d6:	8dd1                	or	a1,a1,a2
   1f4d8:	00b11423          	sh	a1,8(sp)
   1f4dc:	00d10523          	sb	a3,10(sp)
   1f4e0:	404aa583          	lw	a1,1028(s5)
   1f4e4:	408aa603          	lw	a2,1032(s5)
   1f4e8:	40caa683          	lw	a3,1036(s5)
   1f4ec:	410ac703          	lbu	a4,1040(s5)
   1f4f0:	3abaa023          	sw	a1,928(s5)
   1f4f4:	3acaa223          	sw	a2,932(s5)
   1f4f8:	3adaa423          	sw	a3,936(s5)
   1f4fc:	3aea8623          	sb	a4,940(s5)
   1f500:	5e051c63          	bnez	a0,1faf8 <_start+0x4da2>
   1f504:	00811503          	lh	a0,8(sp)
   1f508:	00a14583          	lbu	a1,10(sp)
   1f50c:	018a5613          	srli	a2,s4,0x18
   1f510:	010a5693          	srli	a3,s4,0x10
   1f514:	20da87a3          	sb	a3,527(s5)
   1f518:	20ca8823          	sb	a2,528(s5)
   1f51c:	008a5613          	srli	a2,s4,0x8
   1f520:	20aa9523          	sh	a0,522(s5)
   1f524:	20ba8623          	sb	a1,524(s5)
   1f528:	214a86a3          	sb	s4,525(s5)
   1f52c:	20ca8723          	sb	a2,526(s5)
   1f530:	6505                	lui	a0,0x1
   1f532:	1a550513          	addi	a0,a0,421 # 11a5 <.Lline_table_start1+0xf7a>
   1f536:	950a                	add	a0,a0,sp
   1f538:	6585                	lui	a1,0x1
   1f53a:	32458593          	addi	a1,a1,804 # 1324 <.Lline_table_start1+0x10f9>
   1f53e:	958a                	add	a1,a1,sp
   1f540:	4675                	li	a2,29
   1f542:	00000097          	auipc	ra,0x0
   1f546:	6da080e7          	jalr	1754(ra) # 1fc1c <memcpy>
   1f54a:	6505                	lui	a0,0x1
   1f54c:	38050513          	addi	a0,a0,896 # 1380 <.Lline_table_start1+0x1155>
   1f550:	950a                	add	a0,a0,sp
   1f552:	6585                	lui	a1,0x1
   1f554:	19e58593          	addi	a1,a1,414 # 119e <.Lline_table_start1+0xf73>
   1f558:	958a                	add	a1,a1,sp
   1f55a:	ffff7097          	auipc	ra,0xffff7
   1f55e:	99c080e7          	jalr	-1636(ra) # 15ef6 <_ZN20complex_dynamic_type3app17h81cbff8e29b155e4E>
   1f562:	3ecac403          	lbu	s0,1004(s5)
   1f566:	c401                	beqz	s0,1f56e <_start+0x4818>
   1f568:	3f0aaa03          	lw	s4,1008(s5)
   1f56c:	a835                	j	1f5a8 <_start+0x4852>
   1f56e:	3eeac503          	lbu	a0,1006(s5)
   1f572:	3edac583          	lbu	a1,1005(s5)
   1f576:	3efac603          	lbu	a2,1007(s5)
   1f57a:	3f0aaa03          	lw	s4,1008(s5)
   1f57e:	0522                	slli	a0,a0,0x8
   1f580:	8d4d                	or	a0,a0,a1
   1f582:	00a11423          	sh	a0,8(sp)
   1f586:	00c10523          	sb	a2,10(sp)
   1f58a:	6505                	lui	a0,0x1
   1f58c:	38850513          	addi	a0,a0,904 # 1388 <.Lline_table_start1+0x115d>
   1f590:	00a105b3          	add	a1,sp,a0
   1f594:	6505                	lui	a0,0x1
   1f596:	32450513          	addi	a0,a0,804 # 1324 <.Lline_table_start1+0x10f9>
   1f59a:	950a                	add	a0,a0,sp
   1f59c:	02800613          	li	a2,40
   1f5a0:	00000097          	auipc	ra,0x0
   1f5a4:	67c080e7          	jalr	1660(ra) # 1fc1c <memcpy>
   1f5a8:	54041863          	bnez	s0,1faf8 <_start+0x4da2>
   1f5ac:	00811503          	lh	a0,8(sp)
   1f5b0:	00a14583          	lbu	a1,10(sp)
   1f5b4:	018a5613          	srli	a2,s4,0x18
   1f5b8:	010a5693          	srli	a3,s4,0x10
   1f5bc:	22da89a3          	sb	a3,563(s5)
   1f5c0:	22ca8a23          	sb	a2,564(s5)
   1f5c4:	008a5613          	srli	a2,s4,0x8
   1f5c8:	22aa9723          	sh	a0,558(s5)
   1f5cc:	22ba8823          	sb	a1,560(s5)
   1f5d0:	234a88a3          	sb	s4,561(s5)
   1f5d4:	22ca8923          	sb	a2,562(s5)
   1f5d8:	6505                	lui	a0,0x1
   1f5da:	1c950513          	addi	a0,a0,457 # 11c9 <.Lline_table_start1+0xf9e>
   1f5de:	950a                	add	a0,a0,sp
   1f5e0:	6585                	lui	a1,0x1
   1f5e2:	32458593          	addi	a1,a1,804 # 1324 <.Lline_table_start1+0x10f9>
   1f5e6:	958a                	add	a1,a1,sp
   1f5e8:	02800613          	li	a2,40
   1f5ec:	00000097          	auipc	ra,0x0
   1f5f0:	630080e7          	jalr	1584(ra) # 1fc1c <memcpy>
   1f5f4:	6505                	lui	a0,0x1
   1f5f6:	38050513          	addi	a0,a0,896 # 1380 <.Lline_table_start1+0x1155>
   1f5fa:	950a                	add	a0,a0,sp
   1f5fc:	6585                	lui	a1,0x1
   1f5fe:	1c258593          	addi	a1,a1,450 # 11c2 <.Lline_table_start1+0xf97>
   1f602:	958a                	add	a1,a1,sp
   1f604:	ffffb097          	auipc	ra,0xffffb
   1f608:	13c080e7          	jalr	316(ra) # 1a740 <_ZN20complex_dynamic_type3app17hf8ed09ff247f9df9E>
   1f60c:	3ecac403          	lbu	s0,1004(s5)
   1f610:	c401                	beqz	s0,1f618 <_start+0x48c2>
   1f612:	3f0aaa03          	lw	s4,1008(s5)
   1f616:	a835                	j	1f652 <_start+0x48fc>
   1f618:	3eeac503          	lbu	a0,1006(s5)
   1f61c:	3edac583          	lbu	a1,1005(s5)
   1f620:	3efac603          	lbu	a2,1007(s5)
   1f624:	3f0aaa03          	lw	s4,1008(s5)
   1f628:	0522                	slli	a0,a0,0x8
   1f62a:	8d4d                	or	a0,a0,a1
   1f62c:	00a11423          	sh	a0,8(sp)
   1f630:	00c10523          	sb	a2,10(sp)
   1f634:	6505                	lui	a0,0x1
   1f636:	38850513          	addi	a0,a0,904 # 1388 <.Lline_table_start1+0x115d>
   1f63a:	00a105b3          	add	a1,sp,a0
   1f63e:	6505                	lui	a0,0x1
   1f640:	32450513          	addi	a0,a0,804 # 1324 <.Lline_table_start1+0x10f9>
   1f644:	950a                	add	a0,a0,sp
   1f646:	05700613          	li	a2,87
   1f64a:	00000097          	auipc	ra,0x0
   1f64e:	5d2080e7          	jalr	1490(ra) # 1fc1c <memcpy>
   1f652:	4a041363          	bnez	s0,1faf8 <_start+0x4da2>
   1f656:	00811503          	lh	a0,8(sp)
   1f65a:	00a14583          	lbu	a1,10(sp)
   1f65e:	018a5613          	srli	a2,s4,0x18
   1f662:	010a5693          	srli	a3,s4,0x10
   1f666:	26da81a3          	sb	a3,611(s5)
   1f66a:	26ca8223          	sb	a2,612(s5)
   1f66e:	008a5613          	srli	a2,s4,0x8
   1f672:	24aa9f23          	sh	a0,606(s5)
   1f676:	26ba8023          	sb	a1,608(s5)
   1f67a:	274a80a3          	sb	s4,609(s5)
   1f67e:	26ca8123          	sb	a2,610(s5)
   1f682:	6505                	lui	a0,0x1
   1f684:	1f950513          	addi	a0,a0,505 # 11f9 <.Lline_table_start1+0xfce>
   1f688:	950a                	add	a0,a0,sp
   1f68a:	6585                	lui	a1,0x1
   1f68c:	32458593          	addi	a1,a1,804 # 1324 <.Lline_table_start1+0x10f9>
   1f690:	958a                	add	a1,a1,sp
   1f692:	05700613          	li	a2,87
   1f696:	00000097          	auipc	ra,0x0
   1f69a:	586080e7          	jalr	1414(ra) # 1fc1c <memcpy>
   1f69e:	6505                	lui	a0,0x1
   1f6a0:	38050513          	addi	a0,a0,896 # 1380 <.Lline_table_start1+0x1155>
   1f6a4:	950a                	add	a0,a0,sp
   1f6a6:	6585                	lui	a1,0x1
   1f6a8:	1f258593          	addi	a1,a1,498 # 11f2 <.Lline_table_start1+0xfc7>
   1f6ac:	958a                	add	a1,a1,sp
   1f6ae:	ffff8097          	auipc	ra,0xffff8
   1f6b2:	58c080e7          	jalr	1420(ra) # 17c3a <_ZN20complex_dynamic_type3app17had9eeab1fea595e4E>
   1f6b6:	3ecac403          	lbu	s0,1004(s5)
   1f6ba:	c401                	beqz	s0,1f6c2 <_start+0x496c>
   1f6bc:	3f0aaa03          	lw	s4,1008(s5)
   1f6c0:	a835                	j	1f6fc <_start+0x49a6>
   1f6c2:	3eeac503          	lbu	a0,1006(s5)
   1f6c6:	3edac583          	lbu	a1,1005(s5)
   1f6ca:	3efac603          	lbu	a2,1007(s5)
   1f6ce:	3f0aaa03          	lw	s4,1008(s5)
   1f6d2:	0522                	slli	a0,a0,0x8
   1f6d4:	8d4d                	or	a0,a0,a1
   1f6d6:	00a11423          	sh	a0,8(sp)
   1f6da:	00c10523          	sb	a2,10(sp)
   1f6de:	6505                	lui	a0,0x1
   1f6e0:	38850513          	addi	a0,a0,904 # 1388 <.Lline_table_start1+0x115d>
   1f6e4:	00a105b3          	add	a1,sp,a0
   1f6e8:	6505                	lui	a0,0x1
   1f6ea:	32450513          	addi	a0,a0,804 # 1324 <.Lline_table_start1+0x10f9>
   1f6ee:	950a                	add	a0,a0,sp
   1f6f0:	04e00613          	li	a2,78
   1f6f4:	00000097          	auipc	ra,0x0
   1f6f8:	528080e7          	jalr	1320(ra) # 1fc1c <memcpy>
   1f6fc:	3e041e63          	bnez	s0,1faf8 <_start+0x4da2>
   1f700:	00811503          	lh	a0,8(sp)
   1f704:	00a14583          	lbu	a1,10(sp)
   1f708:	018a5613          	srli	a2,s4,0x18
   1f70c:	010a5693          	srli	a3,s4,0x10
   1f710:	2cda80a3          	sb	a3,705(s5)
   1f714:	2cca8123          	sb	a2,706(s5)
   1f718:	008a5613          	srli	a2,s4,0x8
   1f71c:	2aaa9e23          	sh	a0,700(s5)
   1f720:	2aba8f23          	sb	a1,702(s5)
   1f724:	2b4a8fa3          	sb	s4,703(s5)
   1f728:	2cca8023          	sb	a2,704(s5)
   1f72c:	6505                	lui	a0,0x1
   1f72e:	25750513          	addi	a0,a0,599 # 1257 <.Lline_table_start1+0x102c>
   1f732:	950a                	add	a0,a0,sp
   1f734:	6585                	lui	a1,0x1
   1f736:	32458593          	addi	a1,a1,804 # 1324 <.Lline_table_start1+0x10f9>
   1f73a:	958a                	add	a1,a1,sp
   1f73c:	04e00613          	li	a2,78
   1f740:	00000097          	auipc	ra,0x0
   1f744:	4dc080e7          	jalr	1244(ra) # 1fc1c <memcpy>
   1f748:	6505                	lui	a0,0x1
   1f74a:	38050513          	addi	a0,a0,896 # 1380 <.Lline_table_start1+0x1155>
   1f74e:	950a                	add	a0,a0,sp
   1f750:	6585                	lui	a1,0x1
   1f752:	25058593          	addi	a1,a1,592 # 1250 <.Lline_table_start1+0x1025>
   1f756:	958a                	add	a1,a1,sp
   1f758:	ffffa097          	auipc	ra,0xffffa
   1f75c:	f04080e7          	jalr	-252(ra) # 1965c <_ZN20complex_dynamic_type3app17he4762233fbe763b1E>
   1f760:	3ecac503          	lbu	a0,1004(s5)
   1f764:	c501                	beqz	a0,1f76c <_start+0x4a16>
   1f766:	3f0aaa03          	lw	s4,1008(s5)
   1f76a:	a81d                	j	1f7a0 <_start+0x4a4a>
   1f76c:	3eeac583          	lbu	a1,1006(s5)
   1f770:	3edac603          	lbu	a2,1005(s5)
   1f774:	3efac683          	lbu	a3,1007(s5)
   1f778:	3f0aaa03          	lw	s4,1008(s5)
   1f77c:	05a2                	slli	a1,a1,0x8
   1f77e:	8dd1                	or	a1,a1,a2
   1f780:	3f4aa603          	lw	a2,1012(s5)
   1f784:	3f8aa703          	lw	a4,1016(s5)
   1f788:	3fca9783          	lh	a5,1020(s5)
   1f78c:	00b11423          	sh	a1,8(sp)
   1f790:	00d10523          	sb	a3,10(sp)
   1f794:	38caa823          	sw	a2,912(s5)
   1f798:	38eaaa23          	sw	a4,916(s5)
   1f79c:	38fa9c23          	sh	a5,920(s5)
   1f7a0:	34051c63          	bnez	a0,1faf8 <_start+0x4da2>
   1f7a4:	00811503          	lh	a0,8(sp)
   1f7a8:	00a14583          	lbu	a1,10(sp)
   1f7ac:	018a5613          	srli	a2,s4,0x18
   1f7b0:	010a5693          	srli	a3,s4,0x10
   1f7b4:	30da8ba3          	sb	a3,791(s5)
   1f7b8:	30ca8c23          	sb	a2,792(s5)
   1f7bc:	008a5613          	srli	a2,s4,0x8
   1f7c0:	30aa9923          	sh	a0,786(s5)
   1f7c4:	30ba8a23          	sb	a1,788(s5)
   1f7c8:	314a8aa3          	sb	s4,789(s5)
   1f7cc:	30ca8b23          	sb	a2,790(s5)
   1f7d0:	6505                	lui	a0,0x1
   1f7d2:	2ad50513          	addi	a0,a0,685 # 12ad <.Lline_table_start1+0x1082>
   1f7d6:	950a                	add	a0,a0,sp
   1f7d8:	6585                	lui	a1,0x1
   1f7da:	32458593          	addi	a1,a1,804 # 1324 <.Lline_table_start1+0x10f9>
   1f7de:	958a                	add	a1,a1,sp
   1f7e0:	4629                	li	a2,10
   1f7e2:	00000097          	auipc	ra,0x0
   1f7e6:	43a080e7          	jalr	1082(ra) # 1fc1c <memcpy>
   1f7ea:	6505                	lui	a0,0x1
   1f7ec:	38050513          	addi	a0,a0,896 # 1380 <.Lline_table_start1+0x1155>
   1f7f0:	950a                	add	a0,a0,sp
   1f7f2:	6585                	lui	a1,0x1
   1f7f4:	2a658593          	addi	a1,a1,678 # 12a6 <.Lline_table_start1+0x107b>
   1f7f8:	958a                	add	a1,a1,sp
   1f7fa:	ffff4097          	auipc	ra,0xffff4
   1f7fe:	8ae080e7          	jalr	-1874(ra) # 130a8 <_ZN20complex_dynamic_type3app17h1c1f24395003ab34E>
   1f802:	3ecac403          	lbu	s0,1004(s5)
   1f806:	c401                	beqz	s0,1f80e <_start+0x4ab8>
   1f808:	3f0aaa03          	lw	s4,1008(s5)
   1f80c:	a835                	j	1f848 <_start+0x4af2>
   1f80e:	3eeac503          	lbu	a0,1006(s5)
   1f812:	3edac583          	lbu	a1,1005(s5)
   1f816:	3efac603          	lbu	a2,1007(s5)
   1f81a:	3f0aaa03          	lw	s4,1008(s5)
   1f81e:	0522                	slli	a0,a0,0x8
   1f820:	8d4d                	or	a0,a0,a1
   1f822:	00a11423          	sh	a0,8(sp)
   1f826:	00c10523          	sb	a2,10(sp)
   1f82a:	6505                	lui	a0,0x1
   1f82c:	38850513          	addi	a0,a0,904 # 1388 <.Lline_table_start1+0x115d>
   1f830:	00a105b3          	add	a1,sp,a0
   1f834:	6505                	lui	a0,0x1
   1f836:	32450513          	addi	a0,a0,804 # 1324 <.Lline_table_start1+0x10f9>
   1f83a:	950a                	add	a0,a0,sp
   1f83c:	04900613          	li	a2,73
   1f840:	00000097          	auipc	ra,0x0
   1f844:	3dc080e7          	jalr	988(ra) # 1fc1c <memcpy>
   1f848:	2a041863          	bnez	s0,1faf8 <_start+0x4da2>
   1f84c:	00811503          	lh	a0,8(sp)
   1f850:	00a14583          	lbu	a1,10(sp)
   1f854:	018a5613          	srli	a2,s4,0x18
   1f858:	010a5693          	srli	a3,s4,0x10
   1f85c:	32da84a3          	sb	a3,809(s5)
   1f860:	32ca8523          	sb	a2,810(s5)
   1f864:	008a5613          	srli	a2,s4,0x8
   1f868:	32aa9223          	sh	a0,804(s5)
   1f86c:	32ba8323          	sb	a1,806(s5)
   1f870:	334a83a3          	sb	s4,807(s5)
   1f874:	32ca8423          	sb	a2,808(s5)
   1f878:	6505                	lui	a0,0x1
   1f87a:	2bf50513          	addi	a0,a0,703 # 12bf <.Lline_table_start1+0x1094>
   1f87e:	950a                	add	a0,a0,sp
   1f880:	6585                	lui	a1,0x1
   1f882:	32458593          	addi	a1,a1,804 # 1324 <.Lline_table_start1+0x10f9>
   1f886:	958a                	add	a1,a1,sp
   1f888:	04900613          	li	a2,73
   1f88c:	00000097          	auipc	ra,0x0
   1f890:	390080e7          	jalr	912(ra) # 1fc1c <memcpy>
   1f894:	6505                	lui	a0,0x1
   1f896:	38050513          	addi	a0,a0,896 # 1380 <.Lline_table_start1+0x1155>
   1f89a:	950a                	add	a0,a0,sp
   1f89c:	6585                	lui	a1,0x1
   1f89e:	2b858593          	addi	a1,a1,696 # 12b8 <.Lline_table_start1+0x108d>
   1f8a2:	958a                	add	a1,a1,sp
   1f8a4:	ffff6097          	auipc	ra,0xffff6
   1f8a8:	7e0080e7          	jalr	2016(ra) # 16084 <_ZN20complex_dynamic_type3app17h827b85d169f2c533E>
   1f8ac:	3ecac503          	lbu	a0,1004(s5)
   1f8b0:	c501                	beqz	a0,1f8b8 <_start+0x4b62>
   1f8b2:	3f0aaa03          	lw	s4,1008(s5)
   1f8b6:	a099                	j	1f8fc <_start+0x4ba6>
   1f8b8:	3edac583          	lbu	a1,1005(s5)
   1f8bc:	3eeac603          	lbu	a2,1006(s5)
   1f8c0:	3efac683          	lbu	a3,1007(s5)
   1f8c4:	3f0aaa03          	lw	s4,1008(s5)
   1f8c8:	3f4aa703          	lw	a4,1012(s5)
   1f8cc:	3f8aa783          	lw	a5,1016(s5)
   1f8d0:	3fcaa483          	lw	s1,1020(s5)
   1f8d4:	400aa403          	lw	s0,1024(s5)
   1f8d8:	38eaa823          	sw	a4,912(s5)
   1f8dc:	38faaa23          	sw	a5,916(s5)
   1f8e0:	389aac23          	sw	s1,920(s5)
   1f8e4:	388aae23          	sw	s0,924(s5)
   1f8e8:	404aa703          	lw	a4,1028(s5)
   1f8ec:	0622                	slli	a2,a2,0x8
   1f8ee:	8dd1                	or	a1,a1,a2
   1f8f0:	00b11423          	sh	a1,8(sp)
   1f8f4:	00d10523          	sb	a3,10(sp)
   1f8f8:	3aeaa023          	sw	a4,928(s5)
   1f8fc:	1e051e63          	bnez	a0,1faf8 <_start+0x4da2>
   1f900:	00811503          	lh	a0,8(sp)
   1f904:	00a14583          	lbu	a1,10(sp)
   1f908:	018a5613          	srli	a2,s4,0x18
   1f90c:	010a5693          	srli	a3,s4,0x10
   1f910:	36da8ca3          	sb	a3,889(s5)
   1f914:	36ca8d23          	sb	a2,890(s5)
   1f918:	008a5613          	srli	a2,s4,0x8
   1f91c:	36aa9a23          	sh	a0,884(s5)
   1f920:	36ba8b23          	sb	a1,886(s5)
   1f924:	374a8ba3          	sb	s4,887(s5)
   1f928:	36ca8c23          	sb	a2,888(s5)
   1f92c:	6505                	lui	a0,0x1
   1f92e:	30f50513          	addi	a0,a0,783 # 130f <.Lline_table_start1+0x10e4>
   1f932:	950a                	add	a0,a0,sp
   1f934:	6585                	lui	a1,0x1
   1f936:	32458593          	addi	a1,a1,804 # 1324 <.Lline_table_start1+0x10f9>
   1f93a:	958a                	add	a1,a1,sp
   1f93c:	4651                	li	a2,20
   1f93e:	00000097          	auipc	ra,0x0
   1f942:	2de080e7          	jalr	734(ra) # 1fc1c <memcpy>
   1f946:	6505                	lui	a0,0x1
   1f948:	38050513          	addi	a0,a0,896 # 1380 <.Lline_table_start1+0x1155>
   1f94c:	950a                	add	a0,a0,sp
   1f94e:	6585                	lui	a1,0x1
   1f950:	30858593          	addi	a1,a1,776 # 1308 <.Lline_table_start1+0x10dd>
   1f954:	958a                	add	a1,a1,sp
   1f956:	ffff5097          	auipc	ra,0xffff5
   1f95a:	84c080e7          	jalr	-1972(ra) # 141a2 <_ZN20complex_dynamic_type3app17h3c74f963a1a3a5a4E>
   1f95e:	3ecac403          	lbu	s0,1004(s5)
   1f962:	c401                	beqz	s0,1f96a <_start+0x4c14>
   1f964:	3f0aaa03          	lw	s4,1008(s5)
   1f968:	a835                	j	1f9a4 <_start+0x4c4e>
   1f96a:	3eeac503          	lbu	a0,1006(s5)
   1f96e:	3edac583          	lbu	a1,1005(s5)
   1f972:	3efac603          	lbu	a2,1007(s5)
   1f976:	3f0aaa03          	lw	s4,1008(s5)
   1f97a:	0522                	slli	a0,a0,0x8
   1f97c:	8d4d                	or	a0,a0,a1
   1f97e:	00a11423          	sh	a0,8(sp)
   1f982:	00c10523          	sb	a2,10(sp)
   1f986:	6505                	lui	a0,0x1
   1f988:	38850513          	addi	a0,a0,904 # 1388 <.Lline_table_start1+0x115d>
   1f98c:	00a105b3          	add	a1,sp,a0
   1f990:	6505                	lui	a0,0x1
   1f992:	32450513          	addi	a0,a0,804 # 1324 <.Lline_table_start1+0x10f9>
   1f996:	950a                	add	a0,a0,sp
   1f998:	05c00613          	li	a2,92
   1f99c:	00000097          	auipc	ra,0x0
   1f9a0:	280080e7          	jalr	640(ra) # 1fc1c <memcpy>
   1f9a4:	14041a63          	bnez	s0,1faf8 <_start+0x4da2>
   1f9a8:	00811503          	lh	a0,8(sp)
   1f9ac:	00a14583          	lbu	a1,10(sp)
   1f9b0:	018a5613          	srli	a2,s4,0x18
   1f9b4:	010a5693          	srli	a3,s4,0x10
   1f9b8:	44da8ba3          	sb	a3,1111(s5)
   1f9bc:	44ca8c23          	sb	a2,1112(s5)
   1f9c0:	008a5613          	srli	a2,s4,0x8
   1f9c4:	44aa9923          	sh	a0,1106(s5)
   1f9c8:	44ba8a23          	sb	a1,1108(s5)
   1f9cc:	454a8aa3          	sb	s4,1109(s5)
   1f9d0:	44ca8b23          	sb	a2,1110(s5)
   1f9d4:	6505                	lui	a0,0x1
   1f9d6:	3ed50513          	addi	a0,a0,1005 # 13ed <.Lline_table_start1+0x11c2>
   1f9da:	950a                	add	a0,a0,sp
   1f9dc:	6585                	lui	a1,0x1
   1f9de:	32458593          	addi	a1,a1,804 # 1324 <.Lline_table_start1+0x10f9>
   1f9e2:	958a                	add	a1,a1,sp
   1f9e4:	05c00613          	li	a2,92
   1f9e8:	00000097          	auipc	ra,0x0
   1f9ec:	234080e7          	jalr	564(ra) # 1fc1c <memcpy>
   1f9f0:	6505                	lui	a0,0x1
   1f9f2:	38050513          	addi	a0,a0,896 # 1380 <.Lline_table_start1+0x1155>
   1f9f6:	950a                	add	a0,a0,sp
   1f9f8:	6585                	lui	a1,0x1
   1f9fa:	3e658593          	addi	a1,a1,998 # 13e6 <.Lline_table_start1+0x11bb>
   1f9fe:	958a                	add	a1,a1,sp
   1fa00:	ffff9097          	auipc	ra,0xffff9
   1fa04:	014080e7          	jalr	20(ra) # 18a14 <_ZN20complex_dynamic_type3app17hd6e0a5ac0fe94969E>
   1fa08:	3ecac403          	lbu	s0,1004(s5)
   1fa0c:	c401                	beqz	s0,1fa14 <_start+0x4cbe>
   1fa0e:	3f0aaa03          	lw	s4,1008(s5)
   1fa12:	a835                	j	1fa4e <_start+0x4cf8>
   1fa14:	3eeac503          	lbu	a0,1006(s5)
   1fa18:	3edac583          	lbu	a1,1005(s5)
   1fa1c:	3efac603          	lbu	a2,1007(s5)
   1fa20:	3f0aaa03          	lw	s4,1008(s5)
   1fa24:	0522                	slli	a0,a0,0x8
   1fa26:	8d4d                	or	a0,a0,a1
   1fa28:	00a11423          	sh	a0,8(sp)
   1fa2c:	00c10523          	sb	a2,10(sp)
   1fa30:	6505                	lui	a0,0x1
   1fa32:	38850513          	addi	a0,a0,904 # 1388 <.Lline_table_start1+0x115d>
   1fa36:	00a105b3          	add	a1,sp,a0
   1fa3a:	6505                	lui	a0,0x1
   1fa3c:	32450513          	addi	a0,a0,804 # 1324 <.Lline_table_start1+0x10f9>
   1fa40:	950a                	add	a0,a0,sp
   1fa42:	02500613          	li	a2,37
   1fa46:	00000097          	auipc	ra,0x0
   1fa4a:	1d6080e7          	jalr	470(ra) # 1fc1c <memcpy>
   1fa4e:	e44d                	bnez	s0,1faf8 <_start+0x4da2>
   1fa50:	00811503          	lh	a0,8(sp)
   1fa54:	00a14583          	lbu	a1,10(sp)
   1fa58:	018a5613          	srli	a2,s4,0x18
   1fa5c:	010a5693          	srli	a3,s4,0x10
   1fa60:	4ada8da3          	sb	a3,1211(s5)
   1fa64:	4aca8e23          	sb	a2,1212(s5)
   1fa68:	008a5613          	srli	a2,s4,0x8
   1fa6c:	4aaa9b23          	sh	a0,1206(s5)
   1fa70:	4aba8c23          	sb	a1,1208(s5)
   1fa74:	4b4a8ca3          	sb	s4,1209(s5)
   1fa78:	4aca8d23          	sb	a2,1210(s5)
   1fa7c:	6505                	lui	a0,0x1
   1fa7e:	45150513          	addi	a0,a0,1105 # 1451 <.Lline_table_start1+0x1226>
   1fa82:	950a                	add	a0,a0,sp
   1fa84:	6585                	lui	a1,0x1
   1fa86:	32458593          	addi	a1,a1,804 # 1324 <.Lline_table_start1+0x10f9>
   1fa8a:	958a                	add	a1,a1,sp
   1fa8c:	02500613          	li	a2,37
   1fa90:	00000097          	auipc	ra,0x0
   1fa94:	18c080e7          	jalr	396(ra) # 1fc1c <memcpy>
   1fa98:	6505                	lui	a0,0x1
   1fa9a:	38050513          	addi	a0,a0,896 # 1380 <.Lline_table_start1+0x1155>
   1fa9e:	950a                	add	a0,a0,sp
   1faa0:	6585                	lui	a1,0x1
   1faa2:	44a58593          	addi	a1,a1,1098 # 144a <.Lline_table_start1+0x121f>
   1faa6:	958a                	add	a1,a1,sp
   1faa8:	ffffa097          	auipc	ra,0xffffa
   1faac:	898080e7          	jalr	-1896(ra) # 19340 <_ZN20complex_dynamic_type3app17he0b18e7ebc65f75eE>
   1fab0:	3ecac403          	lbu	s0,1004(s5)
   1fab4:	c401                	beqz	s0,1fabc <_start+0x4d66>
   1fab6:	3f0aaa03          	lw	s4,1008(s5)
   1faba:	a835                	j	1faf6 <_start+0x4da0>
   1fabc:	3eeac503          	lbu	a0,1006(s5)
   1fac0:	3edac583          	lbu	a1,1005(s5)
   1fac4:	3efac603          	lbu	a2,1007(s5)
   1fac8:	3f0aaa03          	lw	s4,1008(s5)
   1facc:	0522                	slli	a0,a0,0x8
   1face:	8d4d                	or	a0,a0,a1
   1fad0:	00a11423          	sh	a0,8(sp)
   1fad4:	00c10523          	sb	a2,10(sp)
   1fad8:	6505                	lui	a0,0x1
   1fada:	38850513          	addi	a0,a0,904 # 1388 <.Lline_table_start1+0x115d>
   1fade:	00a105b3          	add	a1,sp,a0
   1fae2:	6505                	lui	a0,0x1
   1fae4:	32450513          	addi	a0,a0,804 # 1324 <.Lline_table_start1+0x10f9>
   1fae8:	950a                	add	a0,a0,sp
   1faea:	02300613          	li	a2,35
   1faee:	00000097          	auipc	ra,0x0
   1faf2:	12e080e7          	jalr	302(ra) # 1fc1c <memcpy>
   1faf6:	c031                	beqz	s0,1fb3a <_start+0x4de4>
   1faf8:	4505                	li	a0,1
   1fafa:	85d2                	mv	a1,s4
   1fafc:	7f010113          	addi	sp,sp,2032
   1fb00:	4f010113          	addi	sp,sp,1264
   1fb04:	7ec12083          	lw	ra,2028(sp)
   1fb08:	7e812403          	lw	s0,2024(sp)
   1fb0c:	7e412483          	lw	s1,2020(sp)
   1fb10:	7e012903          	lw	s2,2016(sp)
   1fb14:	7dc12983          	lw	s3,2012(sp)
   1fb18:	7d812a03          	lw	s4,2008(sp)
   1fb1c:	7d412a83          	lw	s5,2004(sp)
   1fb20:	7d012b03          	lw	s6,2000(sp)
   1fb24:	7cc12b83          	lw	s7,1996(sp)
   1fb28:	7c812c03          	lw	s8,1992(sp)
   1fb2c:	7c412c83          	lw	s9,1988(sp)
   1fb30:	7c012d03          	lw	s10,1984(sp)
   1fb34:	7f010113          	addi	sp,sp,2032
   1fb38:	8082                	ret
   1fb3a:	00811503          	lh	a0,8(sp)
   1fb3e:	00a14583          	lbu	a1,10(sp)
   1fb42:	018a5613          	srli	a2,s4,0x18
   1fb46:	010a5693          	srli	a3,s4,0x10
   1fb4a:	4eda83a3          	sb	a3,1255(s5)
   1fb4e:	4eca8423          	sb	a2,1256(s5)
   1fb52:	008a5613          	srli	a2,s4,0x8
   1fb56:	4eaa9123          	sh	a0,1250(s5)
   1fb5a:	4eba8223          	sb	a1,1252(s5)
   1fb5e:	4f4a82a3          	sb	s4,1253(s5)
   1fb62:	4eca8323          	sb	a2,1254(s5)
   1fb66:	6505                	lui	a0,0x1
   1fb68:	47d50513          	addi	a0,a0,1149 # 147d <.Lline_table_start1+0x1252>
   1fb6c:	950a                	add	a0,a0,sp
   1fb6e:	6585                	lui	a1,0x1
   1fb70:	32458593          	addi	a1,a1,804 # 1324 <.Lline_table_start1+0x10f9>
   1fb74:	958a                	add	a1,a1,sp
   1fb76:	02300613          	li	a2,35
   1fb7a:	00000097          	auipc	ra,0x0
   1fb7e:	0a2080e7          	jalr	162(ra) # 1fc1c <memcpy>
   1fb82:	6505                	lui	a0,0x1
   1fb84:	38050513          	addi	a0,a0,896 # 1380 <.Lline_table_start1+0x1155>
   1fb88:	950a                	add	a0,a0,sp
   1fb8a:	6585                	lui	a1,0x1
   1fb8c:	47658593          	addi	a1,a1,1142 # 1476 <.Lline_table_start1+0x124b>
   1fb90:	958a                	add	a1,a1,sp
   1fb92:	ffff7097          	auipc	ra,0xffff7
   1fb96:	c82080e7          	jalr	-894(ra) # 16814 <_ZN20complex_dynamic_type3app17h8bab89584e4e2649E>
   1fb9a:	3f0aaa03          	lw	s4,1008(s5)
   1fb9e:	3ecac503          	lbu	a0,1004(s5)
   1fba2:	bfa1                	j	1fafa <_start+0x4da4>

0001fba4 <_ZN9allow_pin12dynamic_type7unshare17hb27555f71d22f3b2E>:
   1fba4:	8732                	mv	a4,a2
   1fba6:	4601                	li	a2,0
   1fba8:	4681                	li	a3,0
   1fbaa:	00000073          	ecall
   1fbae:	8082                	ret

0001fbb0 <memset>:
   1fbb0:	46c1                	li	a3,16
   1fbb2:	04d66f63          	bltu	a2,a3,1fc10 <memset+0x60>
   1fbb6:	40a006b3          	neg	a3,a0
   1fbba:	0036f813          	andi	a6,a3,3
   1fbbe:	01050733          	add	a4,a0,a6
   1fbc2:	00e57963          	bgeu	a0,a4,1fbd4 <memset+0x24>
   1fbc6:	87c2                	mv	a5,a6
   1fbc8:	86aa                	mv	a3,a0
   1fbca:	00b68023          	sb	a1,0(a3)
   1fbce:	17fd                	addi	a5,a5,-1
   1fbd0:	0685                	addi	a3,a3,1
   1fbd2:	ffe5                	bnez	a5,1fbca <memset+0x1a>
   1fbd4:	41060633          	sub	a2,a2,a6
   1fbd8:	ffc67693          	andi	a3,a2,-4
   1fbdc:	96ba                	add	a3,a3,a4
   1fbde:	00d77e63          	bgeu	a4,a3,1fbfa <memset+0x4a>
   1fbe2:	0ff5f813          	zext.b	a6,a1
   1fbe6:	010107b7          	lui	a5,0x1010
   1fbea:	10178793          	addi	a5,a5,257 # 1010101 <_ZN17compiler_builtins3mem6memcpy17h90d0c987d2ef5a79E+0xff04dd>
   1fbee:	02f807b3          	mul	a5,a6,a5
   1fbf2:	c31c                	sw	a5,0(a4)
   1fbf4:	0711                	addi	a4,a4,4
   1fbf6:	fed76ee3          	bltu	a4,a3,1fbf2 <memset+0x42>
   1fbfa:	8a0d                	andi	a2,a2,3
   1fbfc:	00c68733          	add	a4,a3,a2
   1fc00:	00e6f763          	bgeu	a3,a4,1fc0e <memset+0x5e>
   1fc04:	00b68023          	sb	a1,0(a3)
   1fc08:	167d                	addi	a2,a2,-1
   1fc0a:	0685                	addi	a3,a3,1
   1fc0c:	fe65                	bnez	a2,1fc04 <memset+0x54>
   1fc0e:	8082                	ret
   1fc10:	86aa                	mv	a3,a0
   1fc12:	00c50733          	add	a4,a0,a2
   1fc16:	fee567e3          	bltu	a0,a4,1fc04 <memset+0x54>
   1fc1a:	bfd5                	j	1fc0e <memset+0x5e>

0001fc1c <memcpy>:
   1fc1c:	00000317          	auipc	t1,0x0
   1fc20:	00830067          	jr	8(t1) # 1fc24 <_ZN17compiler_builtins3mem6memcpy17h90d0c987d2ef5a79E>

0001fc24 <_ZN17compiler_builtins3mem6memcpy17h90d0c987d2ef5a79E>:
   1fc24:	1141                	addi	sp,sp,-16
   1fc26:	c622                	sw	s0,12(sp)
   1fc28:	46c1                	li	a3,16
   1fc2a:	06d66363          	bltu	a2,a3,1fc90 <_ZN17compiler_builtins3mem6memcpy17h90d0c987d2ef5a79E+0x6c>
   1fc2e:	40a006b3          	neg	a3,a0
   1fc32:	0036f813          	andi	a6,a3,3
   1fc36:	01050fb3          	add	t6,a0,a6
   1fc3a:	01f57d63          	bgeu	a0,t6,1fc54 <_ZN17compiler_builtins3mem6memcpy17h90d0c987d2ef5a79E+0x30>
   1fc3e:	8742                	mv	a4,a6
   1fc40:	86aa                	mv	a3,a0
   1fc42:	87ae                	mv	a5,a1
   1fc44:	0007c883          	lbu	a7,0(a5)
   1fc48:	177d                	addi	a4,a4,-1
   1fc4a:	01168023          	sb	a7,0(a3)
   1fc4e:	0685                	addi	a3,a3,1
   1fc50:	0785                	addi	a5,a5,1
   1fc52:	fb6d                	bnez	a4,1fc44 <_ZN17compiler_builtins3mem6memcpy17h90d0c987d2ef5a79E+0x20>
   1fc54:	01058433          	add	s0,a1,a6
   1fc58:	410608b3          	sub	a7,a2,a6
   1fc5c:	ffc8f713          	andi	a4,a7,-4
   1fc60:	00347613          	andi	a2,s0,3
   1fc64:	00ef86b3          	add	a3,t6,a4
   1fc68:	e621                	bnez	a2,1fcb0 <_ZN17compiler_builtins3mem6memcpy17h90d0c987d2ef5a79E+0x8c>
   1fc6a:	00dffa63          	bgeu	t6,a3,1fc7e <_ZN17compiler_builtins3mem6memcpy17h90d0c987d2ef5a79E+0x5a>
   1fc6e:	8622                	mv	a2,s0
   1fc70:	421c                	lw	a5,0(a2)
   1fc72:	00ffa023          	sw	a5,0(t6)
   1fc76:	0f91                	addi	t6,t6,4
   1fc78:	0611                	addi	a2,a2,4
   1fc7a:	fedfebe3          	bltu	t6,a3,1fc70 <_ZN17compiler_builtins3mem6memcpy17h90d0c987d2ef5a79E+0x4c>
   1fc7e:	00e405b3          	add	a1,s0,a4
   1fc82:	0038f613          	andi	a2,a7,3
   1fc86:	00c68733          	add	a4,a3,a2
   1fc8a:	00e6e863          	bltu	a3,a4,1fc9a <_ZN17compiler_builtins3mem6memcpy17h90d0c987d2ef5a79E+0x76>
   1fc8e:	a831                	j	1fcaa <_ZN17compiler_builtins3mem6memcpy17h90d0c987d2ef5a79E+0x86>
   1fc90:	86aa                	mv	a3,a0
   1fc92:	00c50733          	add	a4,a0,a2
   1fc96:	00e57a63          	bgeu	a0,a4,1fcaa <_ZN17compiler_builtins3mem6memcpy17h90d0c987d2ef5a79E+0x86>
   1fc9a:	0005c703          	lbu	a4,0(a1)
   1fc9e:	167d                	addi	a2,a2,-1
   1fca0:	00e68023          	sb	a4,0(a3)
   1fca4:	0685                	addi	a3,a3,1
   1fca6:	0585                	addi	a1,a1,1
   1fca8:	fa6d                	bnez	a2,1fc9a <_ZN17compiler_builtins3mem6memcpy17h90d0c987d2ef5a79E+0x76>
   1fcaa:	4432                	lw	s0,12(sp)
   1fcac:	0141                	addi	sp,sp,16
   1fcae:	8082                	ret
   1fcb0:	4801                	li	a6,0
   1fcb2:	4791                	li	a5,4
   1fcb4:	c402                	sw	zero,8(sp)
   1fcb6:	40c783b3          	sub	t2,a5,a2
   1fcba:	00810293          	addi	t0,sp,8
   1fcbe:	0013f313          	andi	t1,t2,1
   1fcc2:	00c2e2b3          	or	t0,t0,a2
   1fcc6:	04031763          	bnez	t1,1fd14 <_ZN17compiler_builtins3mem6memcpy17h90d0c987d2ef5a79E+0xf0>
   1fcca:	0023f793          	andi	a5,t2,2
   1fcce:	ebb9                	bnez	a5,1fd24 <_ZN17compiler_builtins3mem6memcpy17h90d0c987d2ef5a79E+0x100>
   1fcd0:	4ea2                	lw	t4,8(sp)
   1fcd2:	00361813          	slli	a6,a2,0x3
   1fcd6:	004f8793          	addi	a5,t6,4
   1fcda:	40c40f33          	sub	t5,s0,a2
   1fcde:	06d7f363          	bgeu	a5,a3,1fd44 <_ZN17compiler_builtins3mem6memcpy17h90d0c987d2ef5a79E+0x120>
   1fce2:	410007b3          	neg	a5,a6
   1fce6:	0187fe13          	andi	t3,a5,24
   1fcea:	004f2283          	lw	t0,4(t5)
   1fcee:	004f0393          	addi	t2,t5,4
   1fcf2:	010ed5b3          	srl	a1,t4,a6
   1fcf6:	004f8313          	addi	t1,t6,4
   1fcfa:	01c297b3          	sll	a5,t0,t3
   1fcfe:	8ddd                	or	a1,a1,a5
   1fd00:	008f8793          	addi	a5,t6,8
   1fd04:	00bfa023          	sw	a1,0(t6)
   1fd08:	8f9a                	mv	t6,t1
   1fd0a:	8f1e                	mv	t5,t2
   1fd0c:	8e96                	mv	t4,t0
   1fd0e:	fcd7eee3          	bltu	a5,a3,1fcea <_ZN17compiler_builtins3mem6memcpy17h90d0c987d2ef5a79E+0xc6>
   1fd12:	a825                	j	1fd4a <_ZN17compiler_builtins3mem6memcpy17h90d0c987d2ef5a79E+0x126>
   1fd14:	00044783          	lbu	a5,0(s0)
   1fd18:	00f28023          	sb	a5,0(t0)
   1fd1c:	4805                	li	a6,1
   1fd1e:	0023f793          	andi	a5,t2,2
   1fd22:	d7dd                	beqz	a5,1fcd0 <_ZN17compiler_builtins3mem6memcpy17h90d0c987d2ef5a79E+0xac>
   1fd24:	010407b3          	add	a5,s0,a6
   1fd28:	00079783          	lh	a5,0(a5)
   1fd2c:	9816                	add	a6,a6,t0
   1fd2e:	00f81023          	sh	a5,0(a6)
   1fd32:	4ea2                	lw	t4,8(sp)
   1fd34:	00361813          	slli	a6,a2,0x3
   1fd38:	004f8793          	addi	a5,t6,4
   1fd3c:	40c40f33          	sub	t5,s0,a2
   1fd40:	fad7e1e3          	bltu	a5,a3,1fce2 <_ZN17compiler_builtins3mem6memcpy17h90d0c987d2ef5a79E+0xbe>
   1fd44:	82f6                	mv	t0,t4
   1fd46:	83fa                	mv	t2,t5
   1fd48:	837e                	mv	t1,t6
   1fd4a:	00010223          	sb	zero,4(sp)
   1fd4e:	4785                	li	a5,1
   1fd50:	00010123          	sb	zero,2(sp)
   1fd54:	00f61763          	bne	a2,a5,1fd62 <_ZN17compiler_builtins3mem6memcpy17h90d0c987d2ef5a79E+0x13e>
   1fd58:	4781                	li	a5,0
   1fd5a:	4e01                	li	t3,0
   1fd5c:	4e81                	li	t4,0
   1fd5e:	0050                	addi	a2,sp,4
   1fd60:	a819                	j	1fd76 <_ZN17compiler_builtins3mem6memcpy17h90d0c987d2ef5a79E+0x152>
   1fd62:	0043c783          	lbu	a5,4(t2)
   1fd66:	0053ce03          	lbu	t3,5(t2)
   1fd6a:	4e89                	li	t4,2
   1fd6c:	00f10223          	sb	a5,4(sp)
   1fd70:	0e22                	slli	t3,t3,0x8
   1fd72:	00210613          	addi	a2,sp,2
   1fd76:	00147593          	andi	a1,s0,1
   1fd7a:	e199                	bnez	a1,1fd80 <_ZN17compiler_builtins3mem6memcpy17h90d0c987d2ef5a79E+0x15c>
   1fd7c:	4601                	li	a2,0
   1fd7e:	a821                	j	1fd96 <_ZN17compiler_builtins3mem6memcpy17h90d0c987d2ef5a79E+0x172>
   1fd80:	0391                	addi	t2,t2,4
   1fd82:	93f6                	add	t2,t2,t4
   1fd84:	0003c583          	lbu	a1,0(t2)
   1fd88:	00b60023          	sb	a1,0(a2)
   1fd8c:	00214603          	lbu	a2,2(sp)
   1fd90:	00414783          	lbu	a5,4(sp)
   1fd94:	0642                	slli	a2,a2,0x10
   1fd96:	8e5d                	or	a2,a2,a5
   1fd98:	0102d5b3          	srl	a1,t0,a6
   1fd9c:	410007b3          	neg	a5,a6
   1fda0:	00ce6633          	or	a2,t3,a2
   1fda4:	8be1                	andi	a5,a5,24
   1fda6:	00f61633          	sll	a2,a2,a5
   1fdaa:	8dd1                	or	a1,a1,a2
   1fdac:	00b32023          	sw	a1,0(t1)
   1fdb0:	00e405b3          	add	a1,s0,a4
   1fdb4:	0038f613          	andi	a2,a7,3
   1fdb8:	00c68733          	add	a4,a3,a2
   1fdbc:	ece6efe3          	bltu	a3,a4,1fc9a <_ZN17compiler_builtins3mem6memcpy17h90d0c987d2ef5a79E+0x76>
   1fdc0:	b5ed                	j	1fcaa <_ZN17compiler_builtins3mem6memcpy17h90d0c987d2ef5a79E+0x86>
