
target/thumbv6m-none-eabi/opt-1/examples/complex_full_dynamic:     file format elf32-littlearm

Sections:
Idx Name          Size      VMA       LMA       File off  Algn
  0 .ARM.exidx    00000010  000100d4  000100d4  000000d4  2**2
                  CONTENTS, ALLOC, LOAD, READONLY, DATA
  1 .text         00009430  000200e4  000200e4  000000e4  2**2
                  CONTENTS, ALLOC, LOAD, READONLY, CODE
  2 .comment      00000099  00000000  00000000  00009514  2**0
                  CONTENTS, READONLY
  3 .ARM.attributes 00000032  00000000  00000000  000095ad  2**0
                  CONTENTS, READONLY

Disassembly of section .text:

000200e4 <_ZN20complex_full_dynamic3app17h06498c92c38dbe5aE>:
   200e4:	b5f0      	push	{r4, r5, r6, r7, lr}
   200e6:	af03      	add	r7, sp, #12
   200e8:	b0af      	sub	sp, #188	@ 0xbc
   200ea:	9005      	str	r0, [sp, #20]
   200ec:	ad06      	add	r5, sp, #24
   200ee:	2002      	movs	r0, #2
   200f0:	9004      	str	r0, [sp, #16]
   200f2:	7228      	strb	r0, [r5, #8]
   200f4:	350c      	adds	r5, #12
   200f6:	2627      	movs	r6, #39	@ 0x27
   200f8:	4628      	mov	r0, r5
   200fa:	4632      	mov	r2, r6
   200fc:	f009 fa05 	bl	2950a <__aeabi_memcpy>
   20100:	ac13      	add	r4, sp, #76	@ 0x4c
   20102:	4620      	mov	r0, r4
   20104:	300c      	adds	r0, #12
   20106:	2151      	movs	r1, #81	@ 0x51
   20108:	9003      	str	r0, [sp, #12]
   2010a:	9102      	str	r1, [sp, #8]
   2010c:	f009 f850 	bl	291b0 <__aeabi_memclr4>
   20110:	9804      	ldr	r0, [sp, #16]
   20112:	7220      	strb	r0, [r4, #8]
   20114:	2404      	movs	r4, #4
   20116:	9600      	str	r6, [sp, #0]
   20118:	9401      	str	r4, [sp, #4]
   2011a:	a82b      	add	r0, sp, #172	@ 0xac
   2011c:	492d      	ldr	r1, [pc, #180]	@ (201d4 <_ZN20complex_full_dynamic3app17h06498c92c38dbe5aE+0xf0>)
   2011e:	2600      	movs	r6, #0
   20120:	4632      	mov	r2, r6
   20122:	462b      	mov	r3, r5
   20124:	f009 f82c 	bl	29180 <_ZN9allow_pin13dynamic_allow17h8bfd3764c146b81aE>
   20128:	982b      	ldr	r0, [sp, #172]	@ 0xac
   2012a:	2802      	cmp	r0, #2
   2012c:	d102      	bne.n	20134 <_ZN20complex_full_dynamic3app17h06498c92c38dbe5aE+0x50>
   2012e:	992c      	ldr	r1, [sp, #176]	@ 0xb0
   20130:	4a28      	ldr	r2, [pc, #160]	@ (201d4 <_ZN20complex_full_dynamic3app17h06498c92c38dbe5aE+0xf0>)
   20132:	e004      	b.n	2013e <_ZN20complex_full_dynamic3app17h06498c92c38dbe5aE+0x5a>
   20134:	a906      	add	r1, sp, #24
   20136:	720c      	strb	r4, [r1, #8]
   20138:	9607      	str	r6, [sp, #28]
   2013a:	4a26      	ldr	r2, [pc, #152]	@ (201d4 <_ZN20complex_full_dynamic3app17h06498c92c38dbe5aE+0xf0>)
   2013c:	9206      	str	r2, [sp, #24]
   2013e:	2501      	movs	r5, #1
   20140:	2802      	cmp	r0, #2
   20142:	d02e      	beq.n	201a2 <_ZN20complex_full_dynamic3app17h06498c92c38dbe5aE+0xbe>
   20144:	a813      	add	r0, sp, #76	@ 0x4c
   20146:	7a00      	ldrb	r0, [r0, #8]
   20148:	2103      	movs	r1, #3
   2014a:	2802      	cmp	r0, #2
   2014c:	d10e      	bne.n	2016c <_ZN20complex_full_dynamic3app17h06498c92c38dbe5aE+0x88>
   2014e:	9802      	ldr	r0, [sp, #8]
   20150:	9000      	str	r0, [sp, #0]
   20152:	9104      	str	r1, [sp, #16]
   20154:	9101      	str	r1, [sp, #4]
   20156:	a82b      	add	r0, sp, #172	@ 0xac
   20158:	2404      	movs	r4, #4
   2015a:	4611      	mov	r1, r2
   2015c:	4622      	mov	r2, r4
   2015e:	9b03      	ldr	r3, [sp, #12]
   20160:	f009 f80e 	bl	29180 <_ZN9allow_pin13dynamic_allow17h8bfd3764c146b81aE>
   20164:	982b      	ldr	r0, [sp, #172]	@ 0xac
   20166:	2802      	cmp	r0, #2
   20168:	d104      	bne.n	20174 <_ZN20complex_full_dynamic3app17h06498c92c38dbe5aE+0x90>
   2016a:	992c      	ldr	r1, [sp, #176]	@ 0xb0
   2016c:	462e      	mov	r6, r5
   2016e:	2e00      	cmp	r6, #0
   20170:	d008      	beq.n	20184 <_ZN20complex_full_dynamic3app17h06498c92c38dbe5aE+0xa0>
   20172:	e016      	b.n	201a2 <_ZN20complex_full_dynamic3app17h06498c92c38dbe5aE+0xbe>
   20174:	a813      	add	r0, sp, #76	@ 0x4c
   20176:	9904      	ldr	r1, [sp, #16]
   20178:	7201      	strb	r1, [r0, #8]
   2017a:	9414      	str	r4, [sp, #80]	@ 0x50
   2017c:	4815      	ldr	r0, [pc, #84]	@ (201d4 <_ZN20complex_full_dynamic3app17h06498c92c38dbe5aE+0xf0>)
   2017e:	9013      	str	r0, [sp, #76]	@ 0x4c
   20180:	2e00      	cmp	r6, #0
   20182:	d10e      	bne.n	201a2 <_ZN20complex_full_dynamic3app17h06498c92c38dbe5aE+0xbe>
   20184:	4813      	ldr	r0, [pc, #76]	@ (201d4 <_ZN20complex_full_dynamic3app17h06498c92c38dbe5aE+0xf0>)
   20186:	2204      	movs	r2, #4
   20188:	2400      	movs	r4, #0
   2018a:	4621      	mov	r1, r4
   2018c:	4623      	mov	r3, r4
   2018e:	df02      	svc	2
   20190:	287f      	cmp	r0, #127	@ 0x7f
   20192:	d906      	bls.n	201a2 <_ZN20complex_full_dynamic3app17h06498c92c38dbe5aE+0xbe>
   20194:	a806      	add	r0, sp, #24
   20196:	f008 ffdf 	bl	29158 <_ZN9allow_pin12full_dynamic17unshare_if_shared17hc49b4b2653f8b2c9E>
   2019a:	a813      	add	r0, sp, #76	@ 0x4c
   2019c:	f008 ffdc 	bl	29158 <_ZN9allow_pin12full_dynamic17unshare_if_shared17hc49b4b2653f8b2c9E>
   201a0:	4625      	mov	r5, r4
   201a2:	2d00      	cmp	r5, #0
   201a4:	d003      	beq.n	201ae <_ZN20complex_full_dynamic3app17h06498c92c38dbe5aE+0xca>
   201a6:	9c05      	ldr	r4, [sp, #20]
   201a8:	6061      	str	r1, [r4, #4]
   201aa:	2001      	movs	r0, #1
   201ac:	e009      	b.n	201c2 <_ZN20complex_full_dynamic3app17h06498c92c38dbe5aE+0xde>
   201ae:	a813      	add	r0, sp, #76	@ 0x4c
   201b0:	f008 ffd2 	bl	29158 <_ZN9allow_pin12full_dynamic17unshare_if_shared17hc49b4b2653f8b2c9E>
   201b4:	9c05      	ldr	r4, [sp, #20]
   201b6:	1c60      	adds	r0, r4, #1
   201b8:	2251      	movs	r2, #81	@ 0x51
   201ba:	9903      	ldr	r1, [sp, #12]
   201bc:	f009 f9a5 	bl	2950a <__aeabi_memcpy>
   201c0:	2000      	movs	r0, #0
   201c2:	7020      	strb	r0, [r4, #0]
   201c4:	a813      	add	r0, sp, #76	@ 0x4c
   201c6:	f008 ffc7 	bl	29158 <_ZN9allow_pin12full_dynamic17unshare_if_shared17hc49b4b2653f8b2c9E>
   201ca:	a806      	add	r0, sp, #24
   201cc:	f008 ffc4 	bl	29158 <_ZN9allow_pin12full_dynamic17unshare_if_shared17hc49b4b2653f8b2c9E>
   201d0:	b02f      	add	sp, #188	@ 0xbc
   201d2:	bdf0      	pop	{r4, r5, r6, r7, pc}
   201d4:	00000a36 	.word	0x00000a36

000201d8 <_ZN20complex_full_dynamic3app17h06a463b234047753E>:
   201d8:	b5f0      	push	{r4, r5, r6, r7, lr}
   201da:	af03      	add	r7, sp, #12
   201dc:	b0b3      	sub	sp, #204	@ 0xcc
   201de:	9005      	str	r0, [sp, #20]
   201e0:	ae06      	add	r6, sp, #24
   201e2:	2002      	movs	r0, #2
   201e4:	9004      	str	r0, [sp, #16]
   201e6:	7230      	strb	r0, [r6, #8]
   201e8:	360c      	adds	r6, #12
   201ea:	254d      	movs	r5, #77	@ 0x4d
   201ec:	4630      	mov	r0, r6
   201ee:	462a      	mov	r2, r5
   201f0:	f009 f98b 	bl	2950a <__aeabi_memcpy>
   201f4:	ac1d      	add	r4, sp, #116	@ 0x74
   201f6:	4620      	mov	r0, r4
   201f8:	300c      	adds	r0, #12
   201fa:	213c      	movs	r1, #60	@ 0x3c
   201fc:	9003      	str	r0, [sp, #12]
   201fe:	9102      	str	r1, [sp, #8]
   20200:	f008 ffd6 	bl	291b0 <__aeabi_memclr4>
   20204:	9804      	ldr	r0, [sp, #16]
   20206:	7220      	strb	r0, [r4, #8]
   20208:	2404      	movs	r4, #4
   2020a:	9500      	str	r5, [sp, #0]
   2020c:	9401      	str	r4, [sp, #4]
   2020e:	a82f      	add	r0, sp, #188	@ 0xbc
   20210:	4d2d      	ldr	r5, [pc, #180]	@ (202c8 <_ZN20complex_full_dynamic3app17h06a463b234047753E+0xf0>)
   20212:	4629      	mov	r1, r5
   20214:	4622      	mov	r2, r4
   20216:	4633      	mov	r3, r6
   20218:	f008 ffb2 	bl	29180 <_ZN9allow_pin13dynamic_allow17h8bfd3764c146b81aE>
   2021c:	982f      	ldr	r0, [sp, #188]	@ 0xbc
   2021e:	2802      	cmp	r0, #2
   20220:	d102      	bne.n	20228 <_ZN20complex_full_dynamic3app17h06a463b234047753E+0x50>
   20222:	462e      	mov	r6, r5
   20224:	9930      	ldr	r1, [sp, #192]	@ 0xc0
   20226:	e004      	b.n	20232 <_ZN20complex_full_dynamic3app17h06a463b234047753E+0x5a>
   20228:	a906      	add	r1, sp, #24
   2022a:	720c      	strb	r4, [r1, #8]
   2022c:	9407      	str	r4, [sp, #28]
   2022e:	462e      	mov	r6, r5
   20230:	9506      	str	r5, [sp, #24]
   20232:	2501      	movs	r5, #1
   20234:	2802      	cmp	r0, #2
   20236:	d02e      	beq.n	20296 <_ZN20complex_full_dynamic3app17h06a463b234047753E+0xbe>
   20238:	a81d      	add	r0, sp, #116	@ 0x74
   2023a:	7a00      	ldrb	r0, [r0, #8]
   2023c:	2103      	movs	r1, #3
   2023e:	2802      	cmp	r0, #2
   20240:	d10e      	bne.n	20260 <_ZN20complex_full_dynamic3app17h06a463b234047753E+0x88>
   20242:	9802      	ldr	r0, [sp, #8]
   20244:	9000      	str	r0, [sp, #0]
   20246:	9104      	str	r1, [sp, #16]
   20248:	9101      	str	r1, [sp, #4]
   2024a:	a82f      	add	r0, sp, #188	@ 0xbc
   2024c:	2409      	movs	r4, #9
   2024e:	4631      	mov	r1, r6
   20250:	4622      	mov	r2, r4
   20252:	9b03      	ldr	r3, [sp, #12]
   20254:	f008 ff94 	bl	29180 <_ZN9allow_pin13dynamic_allow17h8bfd3764c146b81aE>
   20258:	982f      	ldr	r0, [sp, #188]	@ 0xbc
   2025a:	2802      	cmp	r0, #2
   2025c:	d104      	bne.n	20268 <_ZN20complex_full_dynamic3app17h06a463b234047753E+0x90>
   2025e:	9930      	ldr	r1, [sp, #192]	@ 0xc0
   20260:	4628      	mov	r0, r5
   20262:	2800      	cmp	r0, #0
   20264:	d008      	beq.n	20278 <_ZN20complex_full_dynamic3app17h06a463b234047753E+0xa0>
   20266:	e016      	b.n	20296 <_ZN20complex_full_dynamic3app17h06a463b234047753E+0xbe>
   20268:	a81d      	add	r0, sp, #116	@ 0x74
   2026a:	9904      	ldr	r1, [sp, #16]
   2026c:	7201      	strb	r1, [r0, #8]
   2026e:	941e      	str	r4, [sp, #120]	@ 0x78
   20270:	961d      	str	r6, [sp, #116]	@ 0x74
   20272:	2000      	movs	r0, #0
   20274:	2800      	cmp	r0, #0
   20276:	d10e      	bne.n	20296 <_ZN20complex_full_dynamic3app17h06a463b234047753E+0xbe>
   20278:	4813      	ldr	r0, [pc, #76]	@ (202c8 <_ZN20complex_full_dynamic3app17h06a463b234047753E+0xf0>)
   2027a:	2104      	movs	r1, #4
   2027c:	2209      	movs	r2, #9
   2027e:	2400      	movs	r4, #0
   20280:	4623      	mov	r3, r4
   20282:	df02      	svc	2
   20284:	287f      	cmp	r0, #127	@ 0x7f
   20286:	d906      	bls.n	20296 <_ZN20complex_full_dynamic3app17h06a463b234047753E+0xbe>
   20288:	a806      	add	r0, sp, #24
   2028a:	f008 ff65 	bl	29158 <_ZN9allow_pin12full_dynamic17unshare_if_shared17hc49b4b2653f8b2c9E>
   2028e:	a81d      	add	r0, sp, #116	@ 0x74
   20290:	f008 ff62 	bl	29158 <_ZN9allow_pin12full_dynamic17unshare_if_shared17hc49b4b2653f8b2c9E>
   20294:	4625      	mov	r5, r4
   20296:	2d00      	cmp	r5, #0
   20298:	d003      	beq.n	202a2 <_ZN20complex_full_dynamic3app17h06a463b234047753E+0xca>
   2029a:	9c05      	ldr	r4, [sp, #20]
   2029c:	6061      	str	r1, [r4, #4]
   2029e:	2001      	movs	r0, #1
   202a0:	e009      	b.n	202b6 <_ZN20complex_full_dynamic3app17h06a463b234047753E+0xde>
   202a2:	a81d      	add	r0, sp, #116	@ 0x74
   202a4:	f008 ff58 	bl	29158 <_ZN9allow_pin12full_dynamic17unshare_if_shared17hc49b4b2653f8b2c9E>
   202a8:	9c05      	ldr	r4, [sp, #20]
   202aa:	1c60      	adds	r0, r4, #1
   202ac:	223c      	movs	r2, #60	@ 0x3c
   202ae:	9903      	ldr	r1, [sp, #12]
   202b0:	f009 f92b 	bl	2950a <__aeabi_memcpy>
   202b4:	2000      	movs	r0, #0
   202b6:	7020      	strb	r0, [r4, #0]
   202b8:	a81d      	add	r0, sp, #116	@ 0x74
   202ba:	f008 ff4d 	bl	29158 <_ZN9allow_pin12full_dynamic17unshare_if_shared17hc49b4b2653f8b2c9E>
   202be:	a806      	add	r0, sp, #24
   202c0:	f008 ff4a 	bl	29158 <_ZN9allow_pin12full_dynamic17unshare_if_shared17hc49b4b2653f8b2c9E>
   202c4:	b033      	add	sp, #204	@ 0xcc
   202c6:	bdf0      	pop	{r4, r5, r6, r7, pc}
   202c8:	000021ab 	.word	0x000021ab

000202cc <_ZN20complex_full_dynamic3app17h094d49e2849deb56E>:
   202cc:	b5f0      	push	{r4, r5, r6, r7, lr}
   202ce:	af03      	add	r7, sp, #12
   202d0:	b0a3      	sub	sp, #140	@ 0x8c
   202d2:	9004      	str	r0, [sp, #16]
   202d4:	ac05      	add	r4, sp, #20
   202d6:	2502      	movs	r5, #2
   202d8:	7225      	strb	r5, [r4, #8]
   202da:	340c      	adds	r4, #12
   202dc:	2234      	movs	r2, #52	@ 0x34
   202de:	9203      	str	r2, [sp, #12]
   202e0:	4620      	mov	r0, r4
   202e2:	f009 f912 	bl	2950a <__aeabi_memcpy>
   202e6:	a815      	add	r0, sp, #84	@ 0x54
   202e8:	2600      	movs	r6, #0
   202ea:	8486      	strh	r6, [r0, #36]	@ 0x24
   202ec:	7205      	strb	r5, [r0, #8]
   202ee:	4605      	mov	r5, r0
   202f0:	961d      	str	r6, [sp, #116]	@ 0x74
   202f2:	961c      	str	r6, [sp, #112]	@ 0x70
   202f4:	961b      	str	r6, [sp, #108]	@ 0x6c
   202f6:	961a      	str	r6, [sp, #104]	@ 0x68
   202f8:	9619      	str	r6, [sp, #100]	@ 0x64
   202fa:	9618      	str	r6, [sp, #96]	@ 0x60
   202fc:	2004      	movs	r0, #4
   202fe:	9903      	ldr	r1, [sp, #12]
   20300:	9100      	str	r1, [sp, #0]
   20302:	9003      	str	r0, [sp, #12]
   20304:	9001      	str	r0, [sp, #4]
   20306:	a81f      	add	r0, sp, #124	@ 0x7c
   20308:	492e      	ldr	r1, [pc, #184]	@ (203c4 <_ZN20complex_full_dynamic3app17h094d49e2849deb56E+0xf8>)
   2030a:	4632      	mov	r2, r6
   2030c:	4623      	mov	r3, r4
   2030e:	f008 ff37 	bl	29180 <_ZN9allow_pin13dynamic_allow17h8bfd3764c146b81aE>
   20312:	981f      	ldr	r0, [sp, #124]	@ 0x7c
   20314:	2802      	cmp	r0, #2
   20316:	d102      	bne.n	2031e <_ZN20complex_full_dynamic3app17h094d49e2849deb56E+0x52>
   20318:	9920      	ldr	r1, [sp, #128]	@ 0x80
   2031a:	4a2a      	ldr	r2, [pc, #168]	@ (203c4 <_ZN20complex_full_dynamic3app17h094d49e2849deb56E+0xf8>)
   2031c:	e005      	b.n	2032a <_ZN20complex_full_dynamic3app17h094d49e2849deb56E+0x5e>
   2031e:	a905      	add	r1, sp, #20
   20320:	9a03      	ldr	r2, [sp, #12]
   20322:	720a      	strb	r2, [r1, #8]
   20324:	9606      	str	r6, [sp, #24]
   20326:	4a27      	ldr	r2, [pc, #156]	@ (203c4 <_ZN20complex_full_dynamic3app17h094d49e2849deb56E+0xf8>)
   20328:	9205      	str	r2, [sp, #20]
   2032a:	350c      	adds	r5, #12
   2032c:	9503      	str	r5, [sp, #12]
   2032e:	2501      	movs	r5, #1
   20330:	2802      	cmp	r0, #2
   20332:	d02e      	beq.n	20392 <_ZN20complex_full_dynamic3app17h094d49e2849deb56E+0xc6>
   20334:	a815      	add	r0, sp, #84	@ 0x54
   20336:	7a00      	ldrb	r0, [r0, #8]
   20338:	2103      	movs	r1, #3
   2033a:	2802      	cmp	r0, #2
   2033c:	d10e      	bne.n	2035c <_ZN20complex_full_dynamic3app17h094d49e2849deb56E+0x90>
   2033e:	201a      	movs	r0, #26
   20340:	9000      	str	r0, [sp, #0]
   20342:	9102      	str	r1, [sp, #8]
   20344:	9101      	str	r1, [sp, #4]
   20346:	a81f      	add	r0, sp, #124	@ 0x7c
   20348:	2405      	movs	r4, #5
   2034a:	4611      	mov	r1, r2
   2034c:	4622      	mov	r2, r4
   2034e:	9b03      	ldr	r3, [sp, #12]
   20350:	f008 ff16 	bl	29180 <_ZN9allow_pin13dynamic_allow17h8bfd3764c146b81aE>
   20354:	981f      	ldr	r0, [sp, #124]	@ 0x7c
   20356:	2802      	cmp	r0, #2
   20358:	d104      	bne.n	20364 <_ZN20complex_full_dynamic3app17h094d49e2849deb56E+0x98>
   2035a:	9920      	ldr	r1, [sp, #128]	@ 0x80
   2035c:	462e      	mov	r6, r5
   2035e:	2e00      	cmp	r6, #0
   20360:	d008      	beq.n	20374 <_ZN20complex_full_dynamic3app17h094d49e2849deb56E+0xa8>
   20362:	e016      	b.n	20392 <_ZN20complex_full_dynamic3app17h094d49e2849deb56E+0xc6>
   20364:	a815      	add	r0, sp, #84	@ 0x54
   20366:	9902      	ldr	r1, [sp, #8]
   20368:	7201      	strb	r1, [r0, #8]
   2036a:	9416      	str	r4, [sp, #88]	@ 0x58
   2036c:	4815      	ldr	r0, [pc, #84]	@ (203c4 <_ZN20complex_full_dynamic3app17h094d49e2849deb56E+0xf8>)
   2036e:	9015      	str	r0, [sp, #84]	@ 0x54
   20370:	2e00      	cmp	r6, #0
   20372:	d10e      	bne.n	20392 <_ZN20complex_full_dynamic3app17h094d49e2849deb56E+0xc6>
   20374:	4813      	ldr	r0, [pc, #76]	@ (203c4 <_ZN20complex_full_dynamic3app17h094d49e2849deb56E+0xf8>)
   20376:	2205      	movs	r2, #5
   20378:	2400      	movs	r4, #0
   2037a:	4621      	mov	r1, r4
   2037c:	4623      	mov	r3, r4
   2037e:	df02      	svc	2
   20380:	287f      	cmp	r0, #127	@ 0x7f
   20382:	d906      	bls.n	20392 <_ZN20complex_full_dynamic3app17h094d49e2849deb56E+0xc6>
   20384:	a805      	add	r0, sp, #20
   20386:	f008 fee7 	bl	29158 <_ZN9allow_pin12full_dynamic17unshare_if_shared17hc49b4b2653f8b2c9E>
   2038a:	a815      	add	r0, sp, #84	@ 0x54
   2038c:	f008 fee4 	bl	29158 <_ZN9allow_pin12full_dynamic17unshare_if_shared17hc49b4b2653f8b2c9E>
   20390:	4625      	mov	r5, r4
   20392:	2d00      	cmp	r5, #0
   20394:	d003      	beq.n	2039e <_ZN20complex_full_dynamic3app17h094d49e2849deb56E+0xd2>
   20396:	9c04      	ldr	r4, [sp, #16]
   20398:	6061      	str	r1, [r4, #4]
   2039a:	2001      	movs	r0, #1
   2039c:	e009      	b.n	203b2 <_ZN20complex_full_dynamic3app17h094d49e2849deb56E+0xe6>
   2039e:	a815      	add	r0, sp, #84	@ 0x54
   203a0:	f008 feda 	bl	29158 <_ZN9allow_pin12full_dynamic17unshare_if_shared17hc49b4b2653f8b2c9E>
   203a4:	9c04      	ldr	r4, [sp, #16]
   203a6:	1c60      	adds	r0, r4, #1
   203a8:	221a      	movs	r2, #26
   203aa:	9903      	ldr	r1, [sp, #12]
   203ac:	f009 f8ad 	bl	2950a <__aeabi_memcpy>
   203b0:	2000      	movs	r0, #0
   203b2:	7020      	strb	r0, [r4, #0]
   203b4:	a815      	add	r0, sp, #84	@ 0x54
   203b6:	f008 fecf 	bl	29158 <_ZN9allow_pin12full_dynamic17unshare_if_shared17hc49b4b2653f8b2c9E>
   203ba:	a805      	add	r0, sp, #20
   203bc:	f008 fecc 	bl	29158 <_ZN9allow_pin12full_dynamic17unshare_if_shared17hc49b4b2653f8b2c9E>
   203c0:	b023      	add	sp, #140	@ 0x8c
   203c2:	bdf0      	pop	{r4, r5, r6, r7, pc}
   203c4:	000012cc 	.word	0x000012cc

000203c8 <_ZN20complex_full_dynamic3app17h13edd9194ae0b381E>:
   203c8:	b5f0      	push	{r4, r5, r6, r7, lr}
   203ca:	af03      	add	r7, sp, #12
   203cc:	b0af      	sub	sp, #188	@ 0xbc
   203ce:	9005      	str	r0, [sp, #20]
   203d0:	ad06      	add	r5, sp, #24
   203d2:	2402      	movs	r4, #2
   203d4:	722c      	strb	r4, [r5, #8]
   203d6:	350c      	adds	r5, #12
   203d8:	224a      	movs	r2, #74	@ 0x4a
   203da:	9204      	str	r2, [sp, #16]
   203dc:	4628      	mov	r0, r5
   203de:	f009 f894 	bl	2950a <__aeabi_memcpy>
   203e2:	ae1c      	add	r6, sp, #112	@ 0x70
   203e4:	4630      	mov	r0, r6
   203e6:	300c      	adds	r0, #12
   203e8:	212d      	movs	r1, #45	@ 0x2d
   203ea:	9003      	str	r0, [sp, #12]
   203ec:	9102      	str	r1, [sp, #8]
   203ee:	f008 fedf 	bl	291b0 <__aeabi_memclr4>
   203f2:	7234      	strb	r4, [r6, #8]
   203f4:	2004      	movs	r0, #4
   203f6:	9904      	ldr	r1, [sp, #16]
   203f8:	9100      	str	r1, [sp, #0]
   203fa:	9004      	str	r0, [sp, #16]
   203fc:	9001      	str	r0, [sp, #4]
   203fe:	a82b      	add	r0, sp, #172	@ 0xac
   20400:	4e2c      	ldr	r6, [pc, #176]	@ (204b4 <_ZN20complex_full_dynamic3app17h13edd9194ae0b381E+0xec>)
   20402:	4631      	mov	r1, r6
   20404:	4622      	mov	r2, r4
   20406:	462b      	mov	r3, r5
   20408:	f008 feba 	bl	29180 <_ZN9allow_pin13dynamic_allow17h8bfd3764c146b81aE>
   2040c:	982b      	ldr	r0, [sp, #172]	@ 0xac
   2040e:	2802      	cmp	r0, #2
   20410:	d101      	bne.n	20416 <_ZN20complex_full_dynamic3app17h13edd9194ae0b381E+0x4e>
   20412:	992c      	ldr	r1, [sp, #176]	@ 0xb0
   20414:	e004      	b.n	20420 <_ZN20complex_full_dynamic3app17h13edd9194ae0b381E+0x58>
   20416:	a906      	add	r1, sp, #24
   20418:	9a04      	ldr	r2, [sp, #16]
   2041a:	720a      	strb	r2, [r1, #8]
   2041c:	9407      	str	r4, [sp, #28]
   2041e:	9606      	str	r6, [sp, #24]
   20420:	2501      	movs	r5, #1
   20422:	2802      	cmp	r0, #2
   20424:	d02d      	beq.n	20482 <_ZN20complex_full_dynamic3app17h13edd9194ae0b381E+0xba>
   20426:	a81c      	add	r0, sp, #112	@ 0x70
   20428:	7a00      	ldrb	r0, [r0, #8]
   2042a:	2802      	cmp	r0, #2
   2042c:	d10e      	bne.n	2044c <_ZN20complex_full_dynamic3app17h13edd9194ae0b381E+0x84>
   2042e:	2403      	movs	r4, #3
   20430:	9802      	ldr	r0, [sp, #8]
   20432:	9000      	str	r0, [sp, #0]
   20434:	9401      	str	r4, [sp, #4]
   20436:	a82b      	add	r0, sp, #172	@ 0xac
   20438:	4631      	mov	r1, r6
   2043a:	4622      	mov	r2, r4
   2043c:	9b03      	ldr	r3, [sp, #12]
   2043e:	f008 fe9f 	bl	29180 <_ZN9allow_pin13dynamic_allow17h8bfd3764c146b81aE>
   20442:	982b      	ldr	r0, [sp, #172]	@ 0xac
   20444:	2802      	cmp	r0, #2
   20446:	d106      	bne.n	20456 <_ZN20complex_full_dynamic3app17h13edd9194ae0b381E+0x8e>
   20448:	992c      	ldr	r1, [sp, #176]	@ 0xb0
   2044a:	e000      	b.n	2044e <_ZN20complex_full_dynamic3app17h13edd9194ae0b381E+0x86>
   2044c:	2103      	movs	r1, #3
   2044e:	4628      	mov	r0, r5
   20450:	2800      	cmp	r0, #0
   20452:	d007      	beq.n	20464 <_ZN20complex_full_dynamic3app17h13edd9194ae0b381E+0x9c>
   20454:	e015      	b.n	20482 <_ZN20complex_full_dynamic3app17h13edd9194ae0b381E+0xba>
   20456:	a81c      	add	r0, sp, #112	@ 0x70
   20458:	7204      	strb	r4, [r0, #8]
   2045a:	941d      	str	r4, [sp, #116]	@ 0x74
   2045c:	961c      	str	r6, [sp, #112]	@ 0x70
   2045e:	2000      	movs	r0, #0
   20460:	2800      	cmp	r0, #0
   20462:	d10e      	bne.n	20482 <_ZN20complex_full_dynamic3app17h13edd9194ae0b381E+0xba>
   20464:	4813      	ldr	r0, [pc, #76]	@ (204b4 <_ZN20complex_full_dynamic3app17h13edd9194ae0b381E+0xec>)
   20466:	2102      	movs	r1, #2
   20468:	2203      	movs	r2, #3
   2046a:	2400      	movs	r4, #0
   2046c:	4623      	mov	r3, r4
   2046e:	df02      	svc	2
   20470:	287f      	cmp	r0, #127	@ 0x7f
   20472:	d906      	bls.n	20482 <_ZN20complex_full_dynamic3app17h13edd9194ae0b381E+0xba>
   20474:	a806      	add	r0, sp, #24
   20476:	f008 fe6f 	bl	29158 <_ZN9allow_pin12full_dynamic17unshare_if_shared17hc49b4b2653f8b2c9E>
   2047a:	a81c      	add	r0, sp, #112	@ 0x70
   2047c:	f008 fe6c 	bl	29158 <_ZN9allow_pin12full_dynamic17unshare_if_shared17hc49b4b2653f8b2c9E>
   20480:	4625      	mov	r5, r4
   20482:	2d00      	cmp	r5, #0
   20484:	d003      	beq.n	2048e <_ZN20complex_full_dynamic3app17h13edd9194ae0b381E+0xc6>
   20486:	9c05      	ldr	r4, [sp, #20]
   20488:	6061      	str	r1, [r4, #4]
   2048a:	2001      	movs	r0, #1
   2048c:	e009      	b.n	204a2 <_ZN20complex_full_dynamic3app17h13edd9194ae0b381E+0xda>
   2048e:	a81c      	add	r0, sp, #112	@ 0x70
   20490:	f008 fe62 	bl	29158 <_ZN9allow_pin12full_dynamic17unshare_if_shared17hc49b4b2653f8b2c9E>
   20494:	9c05      	ldr	r4, [sp, #20]
   20496:	1c60      	adds	r0, r4, #1
   20498:	222d      	movs	r2, #45	@ 0x2d
   2049a:	9903      	ldr	r1, [sp, #12]
   2049c:	f009 f835 	bl	2950a <__aeabi_memcpy>
   204a0:	2000      	movs	r0, #0
   204a2:	7020      	strb	r0, [r4, #0]
   204a4:	a81c      	add	r0, sp, #112	@ 0x70
   204a6:	f008 fe57 	bl	29158 <_ZN9allow_pin12full_dynamic17unshare_if_shared17hc49b4b2653f8b2c9E>
   204aa:	a806      	add	r0, sp, #24
   204ac:	f008 fe54 	bl	29158 <_ZN9allow_pin12full_dynamic17unshare_if_shared17hc49b4b2653f8b2c9E>
   204b0:	b02f      	add	sp, #188	@ 0xbc
   204b2:	bdf0      	pop	{r4, r5, r6, r7, pc}
   204b4:	00000e3d 	.word	0x00000e3d

000204b8 <_ZN20complex_full_dynamic3app17h1417a9d896fa007dE>:
   204b8:	b5f0      	push	{r4, r5, r6, r7, lr}
   204ba:	af03      	add	r7, sp, #12
   204bc:	b0a7      	sub	sp, #156	@ 0x9c
   204be:	9006      	str	r0, [sp, #24]
   204c0:	ad07      	add	r5, sp, #28
   204c2:	2402      	movs	r4, #2
   204c4:	722c      	strb	r4, [r5, #8]
   204c6:	350c      	adds	r5, #12
   204c8:	2212      	movs	r2, #18
   204ca:	9205      	str	r2, [sp, #20]
   204cc:	4628      	mov	r0, r5
   204ce:	f009 f81c 	bl	2950a <__aeabi_memcpy>
   204d2:	ae0f      	add	r6, sp, #60	@ 0x3c
   204d4:	4630      	mov	r0, r6
   204d6:	300c      	adds	r0, #12
   204d8:	2144      	movs	r1, #68	@ 0x44
   204da:	9004      	str	r0, [sp, #16]
   204dc:	9103      	str	r1, [sp, #12]
   204de:	f008 fe67 	bl	291b0 <__aeabi_memclr4>
   204e2:	7234      	strb	r4, [r6, #8]
   204e4:	4626      	mov	r6, r4
   204e6:	2004      	movs	r0, #4
   204e8:	9905      	ldr	r1, [sp, #20]
   204ea:	9100      	str	r1, [sp, #0]
   204ec:	9005      	str	r0, [sp, #20]
   204ee:	9001      	str	r0, [sp, #4]
   204f0:	a823      	add	r0, sp, #140	@ 0x8c
   204f2:	4c2e      	ldr	r4, [pc, #184]	@ (205ac <_ZN20complex_full_dynamic3app17h1417a9d896fa007dE+0xf4>)
   204f4:	4621      	mov	r1, r4
   204f6:	4632      	mov	r2, r6
   204f8:	462b      	mov	r3, r5
   204fa:	f008 fe41 	bl	29180 <_ZN9allow_pin13dynamic_allow17h8bfd3764c146b81aE>
   204fe:	9823      	ldr	r0, [sp, #140]	@ 0x8c
   20500:	2802      	cmp	r0, #2
   20502:	d101      	bne.n	20508 <_ZN20complex_full_dynamic3app17h1417a9d896fa007dE+0x50>
   20504:	9924      	ldr	r1, [sp, #144]	@ 0x90
   20506:	e004      	b.n	20512 <_ZN20complex_full_dynamic3app17h1417a9d896fa007dE+0x5a>
   20508:	a907      	add	r1, sp, #28
   2050a:	9a05      	ldr	r2, [sp, #20]
   2050c:	720a      	strb	r2, [r1, #8]
   2050e:	9608      	str	r6, [sp, #32]
   20510:	9407      	str	r4, [sp, #28]
   20512:	2501      	movs	r5, #1
   20514:	2802      	cmp	r0, #2
   20516:	d02f      	beq.n	20578 <_ZN20complex_full_dynamic3app17h1417a9d896fa007dE+0xc0>
   20518:	a80f      	add	r0, sp, #60	@ 0x3c
   2051a:	7a00      	ldrb	r0, [r0, #8]
   2051c:	2802      	cmp	r0, #2
   2051e:	d10f      	bne.n	20540 <_ZN20complex_full_dynamic3app17h1417a9d896fa007dE+0x88>
   20520:	2603      	movs	r6, #3
   20522:	9803      	ldr	r0, [sp, #12]
   20524:	9000      	str	r0, [sp, #0]
   20526:	9601      	str	r6, [sp, #4]
   20528:	a823      	add	r0, sp, #140	@ 0x8c
   2052a:	4621      	mov	r1, r4
   2052c:	2409      	movs	r4, #9
   2052e:	4622      	mov	r2, r4
   20530:	9b04      	ldr	r3, [sp, #16]
   20532:	f008 fe25 	bl	29180 <_ZN9allow_pin13dynamic_allow17h8bfd3764c146b81aE>
   20536:	9823      	ldr	r0, [sp, #140]	@ 0x8c
   20538:	2802      	cmp	r0, #2
   2053a:	d106      	bne.n	2054a <_ZN20complex_full_dynamic3app17h1417a9d896fa007dE+0x92>
   2053c:	9924      	ldr	r1, [sp, #144]	@ 0x90
   2053e:	e000      	b.n	20542 <_ZN20complex_full_dynamic3app17h1417a9d896fa007dE+0x8a>
   20540:	2103      	movs	r1, #3
   20542:	4628      	mov	r0, r5
   20544:	2800      	cmp	r0, #0
   20546:	d008      	beq.n	2055a <_ZN20complex_full_dynamic3app17h1417a9d896fa007dE+0xa2>
   20548:	e016      	b.n	20578 <_ZN20complex_full_dynamic3app17h1417a9d896fa007dE+0xc0>
   2054a:	a80f      	add	r0, sp, #60	@ 0x3c
   2054c:	7206      	strb	r6, [r0, #8]
   2054e:	9410      	str	r4, [sp, #64]	@ 0x40
   20550:	4816      	ldr	r0, [pc, #88]	@ (205ac <_ZN20complex_full_dynamic3app17h1417a9d896fa007dE+0xf4>)
   20552:	900f      	str	r0, [sp, #60]	@ 0x3c
   20554:	2000      	movs	r0, #0
   20556:	2800      	cmp	r0, #0
   20558:	d10e      	bne.n	20578 <_ZN20complex_full_dynamic3app17h1417a9d896fa007dE+0xc0>
   2055a:	4814      	ldr	r0, [pc, #80]	@ (205ac <_ZN20complex_full_dynamic3app17h1417a9d896fa007dE+0xf4>)
   2055c:	2102      	movs	r1, #2
   2055e:	2209      	movs	r2, #9
   20560:	2400      	movs	r4, #0
   20562:	4623      	mov	r3, r4
   20564:	df02      	svc	2
   20566:	287f      	cmp	r0, #127	@ 0x7f
   20568:	d906      	bls.n	20578 <_ZN20complex_full_dynamic3app17h1417a9d896fa007dE+0xc0>
   2056a:	a807      	add	r0, sp, #28
   2056c:	f008 fdf4 	bl	29158 <_ZN9allow_pin12full_dynamic17unshare_if_shared17hc49b4b2653f8b2c9E>
   20570:	a80f      	add	r0, sp, #60	@ 0x3c
   20572:	f008 fdf1 	bl	29158 <_ZN9allow_pin12full_dynamic17unshare_if_shared17hc49b4b2653f8b2c9E>
   20576:	4625      	mov	r5, r4
   20578:	2d00      	cmp	r5, #0
   2057a:	d003      	beq.n	20584 <_ZN20complex_full_dynamic3app17h1417a9d896fa007dE+0xcc>
   2057c:	9c06      	ldr	r4, [sp, #24]
   2057e:	6061      	str	r1, [r4, #4]
   20580:	2001      	movs	r0, #1
   20582:	e009      	b.n	20598 <_ZN20complex_full_dynamic3app17h1417a9d896fa007dE+0xe0>
   20584:	a80f      	add	r0, sp, #60	@ 0x3c
   20586:	f008 fde7 	bl	29158 <_ZN9allow_pin12full_dynamic17unshare_if_shared17hc49b4b2653f8b2c9E>
   2058a:	9c06      	ldr	r4, [sp, #24]
   2058c:	1c60      	adds	r0, r4, #1
   2058e:	2244      	movs	r2, #68	@ 0x44
   20590:	9904      	ldr	r1, [sp, #16]
   20592:	f008 ffba 	bl	2950a <__aeabi_memcpy>
   20596:	2000      	movs	r0, #0
   20598:	7020      	strb	r0, [r4, #0]
   2059a:	a80f      	add	r0, sp, #60	@ 0x3c
   2059c:	f008 fddc 	bl	29158 <_ZN9allow_pin12full_dynamic17unshare_if_shared17hc49b4b2653f8b2c9E>
   205a0:	a807      	add	r0, sp, #28
   205a2:	f008 fdd9 	bl	29158 <_ZN9allow_pin12full_dynamic17unshare_if_shared17hc49b4b2653f8b2c9E>
   205a6:	b027      	add	sp, #156	@ 0x9c
   205a8:	bdf0      	pop	{r4, r5, r6, r7, pc}
   205aa:	46c0      	nop			@ (mov r8, r8)
   205ac:	00002432 	.word	0x00002432

000205b0 <_ZN20complex_full_dynamic3app17h145a70d97e7109bbE>:
   205b0:	b5f0      	push	{r4, r5, r6, r7, lr}
   205b2:	af03      	add	r7, sp, #12
   205b4:	b09f      	sub	sp, #124	@ 0x7c
   205b6:	9004      	str	r0, [sp, #16]
   205b8:	ac06      	add	r4, sp, #24
   205ba:	2502      	movs	r5, #2
   205bc:	7225      	strb	r5, [r4, #8]
   205be:	340c      	adds	r4, #12
   205c0:	2627      	movs	r6, #39	@ 0x27
   205c2:	4620      	mov	r0, r4
   205c4:	4632      	mov	r2, r6
   205c6:	f008 ffa0 	bl	2950a <__aeabi_memcpy>
   205ca:	a813      	add	r0, sp, #76	@ 0x4c
   205cc:	9005      	str	r0, [sp, #20]
   205ce:	7205      	strb	r5, [r0, #8]
   205d0:	2500      	movs	r5, #0
   205d2:	951a      	str	r5, [sp, #104]	@ 0x68
   205d4:	9519      	str	r5, [sp, #100]	@ 0x64
   205d6:	9518      	str	r5, [sp, #96]	@ 0x60
   205d8:	9517      	str	r5, [sp, #92]	@ 0x5c
   205da:	9516      	str	r5, [sp, #88]	@ 0x58
   205dc:	2004      	movs	r0, #4
   205de:	9600      	str	r6, [sp, #0]
   205e0:	9003      	str	r0, [sp, #12]
   205e2:	9001      	str	r0, [sp, #4]
   205e4:	a81b      	add	r0, sp, #108	@ 0x6c
   205e6:	4933      	ldr	r1, [pc, #204]	@ (206b4 <_ZN20complex_full_dynamic3app17h145a70d97e7109bbE+0x104>)
   205e8:	2606      	movs	r6, #6
   205ea:	4632      	mov	r2, r6
   205ec:	4623      	mov	r3, r4
   205ee:	f008 fdc7 	bl	29180 <_ZN9allow_pin13dynamic_allow17h8bfd3764c146b81aE>
   205f2:	981b      	ldr	r0, [sp, #108]	@ 0x6c
   205f4:	2802      	cmp	r0, #2
   205f6:	d102      	bne.n	205fe <_ZN20complex_full_dynamic3app17h145a70d97e7109bbE+0x4e>
   205f8:	991c      	ldr	r1, [sp, #112]	@ 0x70
   205fa:	4a2e      	ldr	r2, [pc, #184]	@ (206b4 <_ZN20complex_full_dynamic3app17h145a70d97e7109bbE+0x104>)
   205fc:	e005      	b.n	2060a <_ZN20complex_full_dynamic3app17h145a70d97e7109bbE+0x5a>
   205fe:	a906      	add	r1, sp, #24
   20600:	9a03      	ldr	r2, [sp, #12]
   20602:	720a      	strb	r2, [r1, #8]
   20604:	9607      	str	r6, [sp, #28]
   20606:	4a2b      	ldr	r2, [pc, #172]	@ (206b4 <_ZN20complex_full_dynamic3app17h145a70d97e7109bbE+0x104>)
   20608:	9206      	str	r2, [sp, #24]
   2060a:	9c05      	ldr	r4, [sp, #20]
   2060c:	340c      	adds	r4, #12
   2060e:	2601      	movs	r6, #1
   20610:	2802      	cmp	r0, #2
   20612:	d105      	bne.n	20620 <_ZN20complex_full_dynamic3app17h145a70d97e7109bbE+0x70>
   20614:	9d04      	ldr	r5, [sp, #16]
   20616:	2e00      	cmp	r6, #0
   20618:	d03a      	beq.n	20690 <_ZN20complex_full_dynamic3app17h145a70d97e7109bbE+0xe0>
   2061a:	6069      	str	r1, [r5, #4]
   2061c:	2001      	movs	r0, #1
   2061e:	e040      	b.n	206a2 <_ZN20complex_full_dynamic3app17h145a70d97e7109bbE+0xf2>
   20620:	a813      	add	r0, sp, #76	@ 0x4c
   20622:	7a00      	ldrb	r0, [r0, #8]
   20624:	2802      	cmp	r0, #2
   20626:	9405      	str	r4, [sp, #20]
   20628:	d111      	bne.n	2064e <_ZN20complex_full_dynamic3app17h145a70d97e7109bbE+0x9e>
   2062a:	2103      	movs	r1, #3
   2062c:	2014      	movs	r0, #20
   2062e:	9000      	str	r0, [sp, #0]
   20630:	9103      	str	r1, [sp, #12]
   20632:	9101      	str	r1, [sp, #4]
   20634:	a81b      	add	r0, sp, #108	@ 0x6c
   20636:	4623      	mov	r3, r4
   20638:	2405      	movs	r4, #5
   2063a:	4611      	mov	r1, r2
   2063c:	4622      	mov	r2, r4
   2063e:	f008 fd9f 	bl	29180 <_ZN9allow_pin13dynamic_allow17h8bfd3764c146b81aE>
   20642:	981b      	ldr	r0, [sp, #108]	@ 0x6c
   20644:	2802      	cmp	r0, #2
   20646:	d107      	bne.n	20658 <_ZN20complex_full_dynamic3app17h145a70d97e7109bbE+0xa8>
   20648:	991c      	ldr	r1, [sp, #112]	@ 0x70
   2064a:	4635      	mov	r5, r6
   2064c:	e00a      	b.n	20664 <_ZN20complex_full_dynamic3app17h145a70d97e7109bbE+0xb4>
   2064e:	2103      	movs	r1, #3
   20650:	4635      	mov	r5, r6
   20652:	2d00      	cmp	r5, #0
   20654:	d1de      	bne.n	20614 <_ZN20complex_full_dynamic3app17h145a70d97e7109bbE+0x64>
   20656:	e008      	b.n	2066a <_ZN20complex_full_dynamic3app17h145a70d97e7109bbE+0xba>
   20658:	a813      	add	r0, sp, #76	@ 0x4c
   2065a:	9903      	ldr	r1, [sp, #12]
   2065c:	7201      	strb	r1, [r0, #8]
   2065e:	9414      	str	r4, [sp, #80]	@ 0x50
   20660:	4814      	ldr	r0, [pc, #80]	@ (206b4 <_ZN20complex_full_dynamic3app17h145a70d97e7109bbE+0x104>)
   20662:	9013      	str	r0, [sp, #76]	@ 0x4c
   20664:	9c05      	ldr	r4, [sp, #20]
   20666:	2d00      	cmp	r5, #0
   20668:	d1d4      	bne.n	20614 <_ZN20complex_full_dynamic3app17h145a70d97e7109bbE+0x64>
   2066a:	4812      	ldr	r0, [pc, #72]	@ (206b4 <_ZN20complex_full_dynamic3app17h145a70d97e7109bbE+0x104>)
   2066c:	2106      	movs	r1, #6
   2066e:	2205      	movs	r2, #5
   20670:	2400      	movs	r4, #0
   20672:	4623      	mov	r3, r4
   20674:	df02      	svc	2
   20676:	287f      	cmp	r0, #127	@ 0x7f
   20678:	9d04      	ldr	r5, [sp, #16]
   2067a:	d906      	bls.n	2068a <_ZN20complex_full_dynamic3app17h145a70d97e7109bbE+0xda>
   2067c:	a806      	add	r0, sp, #24
   2067e:	f008 fd6b 	bl	29158 <_ZN9allow_pin12full_dynamic17unshare_if_shared17hc49b4b2653f8b2c9E>
   20682:	a813      	add	r0, sp, #76	@ 0x4c
   20684:	f008 fd68 	bl	29158 <_ZN9allow_pin12full_dynamic17unshare_if_shared17hc49b4b2653f8b2c9E>
   20688:	4626      	mov	r6, r4
   2068a:	9c05      	ldr	r4, [sp, #20]
   2068c:	2e00      	cmp	r6, #0
   2068e:	d1c4      	bne.n	2061a <_ZN20complex_full_dynamic3app17h145a70d97e7109bbE+0x6a>
   20690:	a813      	add	r0, sp, #76	@ 0x4c
   20692:	f008 fd61 	bl	29158 <_ZN9allow_pin12full_dynamic17unshare_if_shared17hc49b4b2653f8b2c9E>
   20696:	1c68      	adds	r0, r5, #1
   20698:	2214      	movs	r2, #20
   2069a:	4621      	mov	r1, r4
   2069c:	f008 ff35 	bl	2950a <__aeabi_memcpy>
   206a0:	2000      	movs	r0, #0
   206a2:	7028      	strb	r0, [r5, #0]
   206a4:	a813      	add	r0, sp, #76	@ 0x4c
   206a6:	f008 fd57 	bl	29158 <_ZN9allow_pin12full_dynamic17unshare_if_shared17hc49b4b2653f8b2c9E>
   206aa:	a806      	add	r0, sp, #24
   206ac:	f008 fd54 	bl	29158 <_ZN9allow_pin12full_dynamic17unshare_if_shared17hc49b4b2653f8b2c9E>
   206b0:	b01f      	add	sp, #124	@ 0x7c
   206b2:	bdf0      	pop	{r4, r5, r6, r7, pc}
   206b4:	000022c9 	.word	0x000022c9

000206b8 <_ZN20complex_full_dynamic3app17h14c96f965c82d859E>:
   206b8:	b5f0      	push	{r4, r5, r6, r7, lr}
   206ba:	af03      	add	r7, sp, #12
   206bc:	b0b9      	sub	sp, #228	@ 0xe4
   206be:	9005      	str	r0, [sp, #20]
   206c0:	ae06      	add	r6, sp, #24
   206c2:	2002      	movs	r0, #2
   206c4:	9004      	str	r0, [sp, #16]
   206c6:	7230      	strb	r0, [r6, #8]
   206c8:	360c      	adds	r6, #12
   206ca:	2551      	movs	r5, #81	@ 0x51
   206cc:	4630      	mov	r0, r6
   206ce:	462a      	mov	r2, r5
   206d0:	f008 ff1b 	bl	2950a <__aeabi_memcpy>
   206d4:	ac1e      	add	r4, sp, #120	@ 0x78
   206d6:	4620      	mov	r0, r4
   206d8:	300c      	adds	r0, #12
   206da:	214f      	movs	r1, #79	@ 0x4f
   206dc:	9003      	str	r0, [sp, #12]
   206de:	9102      	str	r1, [sp, #8]
   206e0:	f008 fd66 	bl	291b0 <__aeabi_memclr4>
   206e4:	9804      	ldr	r0, [sp, #16]
   206e6:	7220      	strb	r0, [r4, #8]
   206e8:	2404      	movs	r4, #4
   206ea:	9500      	str	r5, [sp, #0]
   206ec:	9401      	str	r4, [sp, #4]
   206ee:	a835      	add	r0, sp, #212	@ 0xd4
   206f0:	4d2d      	ldr	r5, [pc, #180]	@ (207a8 <_ZN20complex_full_dynamic3app17h14c96f965c82d859E+0xf0>)
   206f2:	4629      	mov	r1, r5
   206f4:	4622      	mov	r2, r4
   206f6:	4633      	mov	r3, r6
   206f8:	f008 fd42 	bl	29180 <_ZN9allow_pin13dynamic_allow17h8bfd3764c146b81aE>
   206fc:	9835      	ldr	r0, [sp, #212]	@ 0xd4
   206fe:	2802      	cmp	r0, #2
   20700:	d102      	bne.n	20708 <_ZN20complex_full_dynamic3app17h14c96f965c82d859E+0x50>
   20702:	462e      	mov	r6, r5
   20704:	9936      	ldr	r1, [sp, #216]	@ 0xd8
   20706:	e004      	b.n	20712 <_ZN20complex_full_dynamic3app17h14c96f965c82d859E+0x5a>
   20708:	a906      	add	r1, sp, #24
   2070a:	720c      	strb	r4, [r1, #8]
   2070c:	9407      	str	r4, [sp, #28]
   2070e:	462e      	mov	r6, r5
   20710:	9506      	str	r5, [sp, #24]
   20712:	2501      	movs	r5, #1
   20714:	2802      	cmp	r0, #2
   20716:	d02e      	beq.n	20776 <_ZN20complex_full_dynamic3app17h14c96f965c82d859E+0xbe>
   20718:	a81e      	add	r0, sp, #120	@ 0x78
   2071a:	7a00      	ldrb	r0, [r0, #8]
   2071c:	2103      	movs	r1, #3
   2071e:	2802      	cmp	r0, #2
   20720:	d10e      	bne.n	20740 <_ZN20complex_full_dynamic3app17h14c96f965c82d859E+0x88>
   20722:	9802      	ldr	r0, [sp, #8]
   20724:	9000      	str	r0, [sp, #0]
   20726:	9104      	str	r1, [sp, #16]
   20728:	9101      	str	r1, [sp, #4]
   2072a:	a835      	add	r0, sp, #212	@ 0xd4
   2072c:	2409      	movs	r4, #9
   2072e:	4631      	mov	r1, r6
   20730:	4622      	mov	r2, r4
   20732:	9b03      	ldr	r3, [sp, #12]
   20734:	f008 fd24 	bl	29180 <_ZN9allow_pin13dynamic_allow17h8bfd3764c146b81aE>
   20738:	9835      	ldr	r0, [sp, #212]	@ 0xd4
   2073a:	2802      	cmp	r0, #2
   2073c:	d104      	bne.n	20748 <_ZN20complex_full_dynamic3app17h14c96f965c82d859E+0x90>
   2073e:	9936      	ldr	r1, [sp, #216]	@ 0xd8
   20740:	4628      	mov	r0, r5
   20742:	2800      	cmp	r0, #0
   20744:	d008      	beq.n	20758 <_ZN20complex_full_dynamic3app17h14c96f965c82d859E+0xa0>
   20746:	e016      	b.n	20776 <_ZN20complex_full_dynamic3app17h14c96f965c82d859E+0xbe>
   20748:	a81e      	add	r0, sp, #120	@ 0x78
   2074a:	9904      	ldr	r1, [sp, #16]
   2074c:	7201      	strb	r1, [r0, #8]
   2074e:	941f      	str	r4, [sp, #124]	@ 0x7c
   20750:	961e      	str	r6, [sp, #120]	@ 0x78
   20752:	2000      	movs	r0, #0
   20754:	2800      	cmp	r0, #0
   20756:	d10e      	bne.n	20776 <_ZN20complex_full_dynamic3app17h14c96f965c82d859E+0xbe>
   20758:	4813      	ldr	r0, [pc, #76]	@ (207a8 <_ZN20complex_full_dynamic3app17h14c96f965c82d859E+0xf0>)
   2075a:	2104      	movs	r1, #4
   2075c:	2209      	movs	r2, #9
   2075e:	2400      	movs	r4, #0
   20760:	4623      	mov	r3, r4
   20762:	df02      	svc	2
   20764:	287f      	cmp	r0, #127	@ 0x7f
   20766:	d906      	bls.n	20776 <_ZN20complex_full_dynamic3app17h14c96f965c82d859E+0xbe>
   20768:	a806      	add	r0, sp, #24
   2076a:	f008 fcf5 	bl	29158 <_ZN9allow_pin12full_dynamic17unshare_if_shared17hc49b4b2653f8b2c9E>
   2076e:	a81e      	add	r0, sp, #120	@ 0x78
   20770:	f008 fcf2 	bl	29158 <_ZN9allow_pin12full_dynamic17unshare_if_shared17hc49b4b2653f8b2c9E>
   20774:	4625      	mov	r5, r4
   20776:	2d00      	cmp	r5, #0
   20778:	d003      	beq.n	20782 <_ZN20complex_full_dynamic3app17h14c96f965c82d859E+0xca>
   2077a:	9c05      	ldr	r4, [sp, #20]
   2077c:	6061      	str	r1, [r4, #4]
   2077e:	2001      	movs	r0, #1
   20780:	e009      	b.n	20796 <_ZN20complex_full_dynamic3app17h14c96f965c82d859E+0xde>
   20782:	a81e      	add	r0, sp, #120	@ 0x78
   20784:	f008 fce8 	bl	29158 <_ZN9allow_pin12full_dynamic17unshare_if_shared17hc49b4b2653f8b2c9E>
   20788:	9c05      	ldr	r4, [sp, #20]
   2078a:	1c60      	adds	r0, r4, #1
   2078c:	224f      	movs	r2, #79	@ 0x4f
   2078e:	9903      	ldr	r1, [sp, #12]
   20790:	f008 febb 	bl	2950a <__aeabi_memcpy>
   20794:	2000      	movs	r0, #0
   20796:	7020      	strb	r0, [r4, #0]
   20798:	a81e      	add	r0, sp, #120	@ 0x78
   2079a:	f008 fcdd 	bl	29158 <_ZN9allow_pin12full_dynamic17unshare_if_shared17hc49b4b2653f8b2c9E>
   2079e:	a806      	add	r0, sp, #24
   207a0:	f008 fcda 	bl	29158 <_ZN9allow_pin12full_dynamic17unshare_if_shared17hc49b4b2653f8b2c9E>
   207a4:	b039      	add	sp, #228	@ 0xe4
   207a6:	bdf0      	pop	{r4, r5, r6, r7, pc}
   207a8:	000020ee 	.word	0x000020ee

000207ac <_ZN20complex_full_dynamic3app17h184ff60b80ae9e58E>:
   207ac:	b5f0      	push	{r4, r5, r6, r7, lr}
   207ae:	af03      	add	r7, sp, #12
   207b0:	b0ab      	sub	sp, #172	@ 0xac
   207b2:	9005      	str	r0, [sp, #20]
   207b4:	ac06      	add	r4, sp, #24
   207b6:	2502      	movs	r5, #2
   207b8:	7225      	strb	r5, [r4, #8]
   207ba:	340c      	adds	r4, #12
   207bc:	2250      	movs	r2, #80	@ 0x50
   207be:	9204      	str	r2, [sp, #16]
   207c0:	4620      	mov	r0, r4
   207c2:	f008 fea2 	bl	2950a <__aeabi_memcpy>
   207c6:	a81d      	add	r0, sp, #116	@ 0x74
   207c8:	4601      	mov	r1, r0
   207ca:	310c      	adds	r1, #12
   207cc:	2600      	movs	r6, #0
   207ce:	9103      	str	r1, [sp, #12]
   207d0:	768e      	strb	r6, [r1, #26]
   207d2:	8486      	strh	r6, [r0, #36]	@ 0x24
   207d4:	7205      	strb	r5, [r0, #8]
   207d6:	9625      	str	r6, [sp, #148]	@ 0x94
   207d8:	9624      	str	r6, [sp, #144]	@ 0x90
   207da:	9623      	str	r6, [sp, #140]	@ 0x8c
   207dc:	9622      	str	r6, [sp, #136]	@ 0x88
   207de:	9621      	str	r6, [sp, #132]	@ 0x84
   207e0:	9620      	str	r6, [sp, #128]	@ 0x80
   207e2:	2004      	movs	r0, #4
   207e4:	9904      	ldr	r1, [sp, #16]
   207e6:	9100      	str	r1, [sp, #0]
   207e8:	9004      	str	r0, [sp, #16]
   207ea:	9001      	str	r0, [sp, #4]
   207ec:	a827      	add	r0, sp, #156	@ 0x9c
   207ee:	4931      	ldr	r1, [pc, #196]	@ (208b4 <_ZN20complex_full_dynamic3app17h184ff60b80ae9e58E+0x108>)
   207f0:	2501      	movs	r5, #1
   207f2:	462a      	mov	r2, r5
   207f4:	4623      	mov	r3, r4
   207f6:	f008 fcc3 	bl	29180 <_ZN9allow_pin13dynamic_allow17h8bfd3764c146b81aE>
   207fa:	9827      	ldr	r0, [sp, #156]	@ 0x9c
   207fc:	2802      	cmp	r0, #2
   207fe:	d104      	bne.n	2080a <_ZN20complex_full_dynamic3app17h184ff60b80ae9e58E+0x5e>
   20800:	9928      	ldr	r1, [sp, #160]	@ 0xa0
   20802:	4a2c      	ldr	r2, [pc, #176]	@ (208b4 <_ZN20complex_full_dynamic3app17h184ff60b80ae9e58E+0x108>)
   20804:	2802      	cmp	r0, #2
   20806:	d108      	bne.n	2081a <_ZN20complex_full_dynamic3app17h184ff60b80ae9e58E+0x6e>
   20808:	e03b      	b.n	20882 <_ZN20complex_full_dynamic3app17h184ff60b80ae9e58E+0xd6>
   2080a:	a906      	add	r1, sp, #24
   2080c:	9a04      	ldr	r2, [sp, #16]
   2080e:	720a      	strb	r2, [r1, #8]
   20810:	9507      	str	r5, [sp, #28]
   20812:	4a28      	ldr	r2, [pc, #160]	@ (208b4 <_ZN20complex_full_dynamic3app17h184ff60b80ae9e58E+0x108>)
   20814:	9206      	str	r2, [sp, #24]
   20816:	2802      	cmp	r0, #2
   20818:	d033      	beq.n	20882 <_ZN20complex_full_dynamic3app17h184ff60b80ae9e58E+0xd6>
   2081a:	a81d      	add	r0, sp, #116	@ 0x74
   2081c:	7a00      	ldrb	r0, [r0, #8]
   2081e:	2802      	cmp	r0, #2
   20820:	d113      	bne.n	2084a <_ZN20complex_full_dynamic3app17h184ff60b80ae9e58E+0x9e>
   20822:	9504      	str	r5, [sp, #16]
   20824:	2103      	movs	r1, #3
   20826:	201b      	movs	r0, #27
   20828:	9000      	str	r0, [sp, #0]
   2082a:	9102      	str	r1, [sp, #8]
   2082c:	9101      	str	r1, [sp, #4]
   2082e:	a827      	add	r0, sp, #156	@ 0x9c
   20830:	2402      	movs	r4, #2
   20832:	4611      	mov	r1, r2
   20834:	4615      	mov	r5, r2
   20836:	4622      	mov	r2, r4
   20838:	9b03      	ldr	r3, [sp, #12]
   2083a:	f008 fca1 	bl	29180 <_ZN9allow_pin13dynamic_allow17h8bfd3764c146b81aE>
   2083e:	9827      	ldr	r0, [sp, #156]	@ 0x9c
   20840:	2802      	cmp	r0, #2
   20842:	d107      	bne.n	20854 <_ZN20complex_full_dynamic3app17h184ff60b80ae9e58E+0xa8>
   20844:	9928      	ldr	r1, [sp, #160]	@ 0xa0
   20846:	9d04      	ldr	r5, [sp, #16]
   20848:	e000      	b.n	2084c <_ZN20complex_full_dynamic3app17h184ff60b80ae9e58E+0xa0>
   2084a:	2103      	movs	r1, #3
   2084c:	462e      	mov	r6, r5
   2084e:	2e00      	cmp	r6, #0
   20850:	d008      	beq.n	20864 <_ZN20complex_full_dynamic3app17h184ff60b80ae9e58E+0xb8>
   20852:	e016      	b.n	20882 <_ZN20complex_full_dynamic3app17h184ff60b80ae9e58E+0xd6>
   20854:	a81d      	add	r0, sp, #116	@ 0x74
   20856:	9902      	ldr	r1, [sp, #8]
   20858:	7201      	strb	r1, [r0, #8]
   2085a:	941e      	str	r4, [sp, #120]	@ 0x78
   2085c:	951d      	str	r5, [sp, #116]	@ 0x74
   2085e:	9d04      	ldr	r5, [sp, #16]
   20860:	2e00      	cmp	r6, #0
   20862:	d10e      	bne.n	20882 <_ZN20complex_full_dynamic3app17h184ff60b80ae9e58E+0xd6>
   20864:	4813      	ldr	r0, [pc, #76]	@ (208b4 <_ZN20complex_full_dynamic3app17h184ff60b80ae9e58E+0x108>)
   20866:	2101      	movs	r1, #1
   20868:	2202      	movs	r2, #2
   2086a:	2400      	movs	r4, #0
   2086c:	4623      	mov	r3, r4
   2086e:	df02      	svc	2
   20870:	287f      	cmp	r0, #127	@ 0x7f
   20872:	d906      	bls.n	20882 <_ZN20complex_full_dynamic3app17h184ff60b80ae9e58E+0xd6>
   20874:	a806      	add	r0, sp, #24
   20876:	f008 fc6f 	bl	29158 <_ZN9allow_pin12full_dynamic17unshare_if_shared17hc49b4b2653f8b2c9E>
   2087a:	a81d      	add	r0, sp, #116	@ 0x74
   2087c:	f008 fc6c 	bl	29158 <_ZN9allow_pin12full_dynamic17unshare_if_shared17hc49b4b2653f8b2c9E>
   20880:	4625      	mov	r5, r4
   20882:	2d00      	cmp	r5, #0
   20884:	d003      	beq.n	2088e <_ZN20complex_full_dynamic3app17h184ff60b80ae9e58E+0xe2>
   20886:	9c05      	ldr	r4, [sp, #20]
   20888:	6061      	str	r1, [r4, #4]
   2088a:	2001      	movs	r0, #1
   2088c:	e009      	b.n	208a2 <_ZN20complex_full_dynamic3app17h184ff60b80ae9e58E+0xf6>
   2088e:	a81d      	add	r0, sp, #116	@ 0x74
   20890:	f008 fc62 	bl	29158 <_ZN9allow_pin12full_dynamic17unshare_if_shared17hc49b4b2653f8b2c9E>
   20894:	9c05      	ldr	r4, [sp, #20]
   20896:	1c60      	adds	r0, r4, #1
   20898:	221b      	movs	r2, #27
   2089a:	9903      	ldr	r1, [sp, #12]
   2089c:	f008 fe35 	bl	2950a <__aeabi_memcpy>
   208a0:	2000      	movs	r0, #0
   208a2:	7020      	strb	r0, [r4, #0]
   208a4:	a81d      	add	r0, sp, #116	@ 0x74
   208a6:	f008 fc57 	bl	29158 <_ZN9allow_pin12full_dynamic17unshare_if_shared17hc49b4b2653f8b2c9E>
   208aa:	a806      	add	r0, sp, #24
   208ac:	f008 fc54 	bl	29158 <_ZN9allow_pin12full_dynamic17unshare_if_shared17hc49b4b2653f8b2c9E>
   208b0:	b02b      	add	sp, #172	@ 0xac
   208b2:	bdf0      	pop	{r4, r5, r6, r7, pc}
   208b4:	000003d9 	.word	0x000003d9

000208b8 <_ZN20complex_full_dynamic3app17h1a765da1947167a6E>:
   208b8:	b5f0      	push	{r4, r5, r6, r7, lr}
   208ba:	af03      	add	r7, sp, #12
   208bc:	b0b3      	sub	sp, #204	@ 0xcc
   208be:	9005      	str	r0, [sp, #20]
   208c0:	ae06      	add	r6, sp, #24
   208c2:	2002      	movs	r0, #2
   208c4:	9004      	str	r0, [sp, #16]
   208c6:	7230      	strb	r0, [r6, #8]
   208c8:	360c      	adds	r6, #12
   208ca:	2563      	movs	r5, #99	@ 0x63
   208cc:	4630      	mov	r0, r6
   208ce:	462a      	mov	r2, r5
   208d0:	f008 fe1b 	bl	2950a <__aeabi_memcpy>
   208d4:	ac22      	add	r4, sp, #136	@ 0x88
   208d6:	4620      	mov	r0, r4
   208d8:	300c      	adds	r0, #12
   208da:	2127      	movs	r1, #39	@ 0x27
   208dc:	9003      	str	r0, [sp, #12]
   208de:	9102      	str	r1, [sp, #8]
   208e0:	f008 fc66 	bl	291b0 <__aeabi_memclr4>
   208e4:	9804      	ldr	r0, [sp, #16]
   208e6:	7220      	strb	r0, [r4, #8]
   208e8:	2404      	movs	r4, #4
   208ea:	9500      	str	r5, [sp, #0]
   208ec:	9401      	str	r4, [sp, #4]
   208ee:	a82f      	add	r0, sp, #188	@ 0xbc
   208f0:	492d      	ldr	r1, [pc, #180]	@ (209a8 <_ZN20complex_full_dynamic3app17h1a765da1947167a6E+0xf0>)
   208f2:	2507      	movs	r5, #7
   208f4:	462a      	mov	r2, r5
   208f6:	4633      	mov	r3, r6
   208f8:	f008 fc42 	bl	29180 <_ZN9allow_pin13dynamic_allow17h8bfd3764c146b81aE>
   208fc:	982f      	ldr	r0, [sp, #188]	@ 0xbc
   208fe:	2802      	cmp	r0, #2
   20900:	d102      	bne.n	20908 <_ZN20complex_full_dynamic3app17h1a765da1947167a6E+0x50>
   20902:	9930      	ldr	r1, [sp, #192]	@ 0xc0
   20904:	4a28      	ldr	r2, [pc, #160]	@ (209a8 <_ZN20complex_full_dynamic3app17h1a765da1947167a6E+0xf0>)
   20906:	e004      	b.n	20912 <_ZN20complex_full_dynamic3app17h1a765da1947167a6E+0x5a>
   20908:	a906      	add	r1, sp, #24
   2090a:	720c      	strb	r4, [r1, #8]
   2090c:	9507      	str	r5, [sp, #28]
   2090e:	4a26      	ldr	r2, [pc, #152]	@ (209a8 <_ZN20complex_full_dynamic3app17h1a765da1947167a6E+0xf0>)
   20910:	9206      	str	r2, [sp, #24]
   20912:	2501      	movs	r5, #1
   20914:	2802      	cmp	r0, #2
   20916:	d02e      	beq.n	20976 <_ZN20complex_full_dynamic3app17h1a765da1947167a6E+0xbe>
   20918:	a822      	add	r0, sp, #136	@ 0x88
   2091a:	7a00      	ldrb	r0, [r0, #8]
   2091c:	2802      	cmp	r0, #2
   2091e:	d10f      	bne.n	20940 <_ZN20complex_full_dynamic3app17h1a765da1947167a6E+0x88>
   20920:	2603      	movs	r6, #3
   20922:	9802      	ldr	r0, [sp, #8]
   20924:	9000      	str	r0, [sp, #0]
   20926:	9601      	str	r6, [sp, #4]
   20928:	a82f      	add	r0, sp, #188	@ 0xbc
   2092a:	2400      	movs	r4, #0
   2092c:	4611      	mov	r1, r2
   2092e:	4622      	mov	r2, r4
   20930:	9b03      	ldr	r3, [sp, #12]
   20932:	f008 fc25 	bl	29180 <_ZN9allow_pin13dynamic_allow17h8bfd3764c146b81aE>
   20936:	982f      	ldr	r0, [sp, #188]	@ 0xbc
   20938:	2802      	cmp	r0, #2
   2093a:	d106      	bne.n	2094a <_ZN20complex_full_dynamic3app17h1a765da1947167a6E+0x92>
   2093c:	9930      	ldr	r1, [sp, #192]	@ 0xc0
   2093e:	e000      	b.n	20942 <_ZN20complex_full_dynamic3app17h1a765da1947167a6E+0x8a>
   20940:	2103      	movs	r1, #3
   20942:	462c      	mov	r4, r5
   20944:	2c00      	cmp	r4, #0
   20946:	d007      	beq.n	20958 <_ZN20complex_full_dynamic3app17h1a765da1947167a6E+0xa0>
   20948:	e015      	b.n	20976 <_ZN20complex_full_dynamic3app17h1a765da1947167a6E+0xbe>
   2094a:	a822      	add	r0, sp, #136	@ 0x88
   2094c:	7206      	strb	r6, [r0, #8]
   2094e:	9423      	str	r4, [sp, #140]	@ 0x8c
   20950:	4815      	ldr	r0, [pc, #84]	@ (209a8 <_ZN20complex_full_dynamic3app17h1a765da1947167a6E+0xf0>)
   20952:	9022      	str	r0, [sp, #136]	@ 0x88
   20954:	2c00      	cmp	r4, #0
   20956:	d10e      	bne.n	20976 <_ZN20complex_full_dynamic3app17h1a765da1947167a6E+0xbe>
   20958:	4813      	ldr	r0, [pc, #76]	@ (209a8 <_ZN20complex_full_dynamic3app17h1a765da1947167a6E+0xf0>)
   2095a:	2107      	movs	r1, #7
   2095c:	2400      	movs	r4, #0
   2095e:	4622      	mov	r2, r4
   20960:	4623      	mov	r3, r4
   20962:	df02      	svc	2
   20964:	287f      	cmp	r0, #127	@ 0x7f
   20966:	d906      	bls.n	20976 <_ZN20complex_full_dynamic3app17h1a765da1947167a6E+0xbe>
   20968:	a806      	add	r0, sp, #24
   2096a:	f008 fbf5 	bl	29158 <_ZN9allow_pin12full_dynamic17unshare_if_shared17hc49b4b2653f8b2c9E>
   2096e:	a822      	add	r0, sp, #136	@ 0x88
   20970:	f008 fbf2 	bl	29158 <_ZN9allow_pin12full_dynamic17unshare_if_shared17hc49b4b2653f8b2c9E>
   20974:	4625      	mov	r5, r4
   20976:	2d00      	cmp	r5, #0
   20978:	d003      	beq.n	20982 <_ZN20complex_full_dynamic3app17h1a765da1947167a6E+0xca>
   2097a:	9c05      	ldr	r4, [sp, #20]
   2097c:	6061      	str	r1, [r4, #4]
   2097e:	2001      	movs	r0, #1
   20980:	e009      	b.n	20996 <_ZN20complex_full_dynamic3app17h1a765da1947167a6E+0xde>
   20982:	a822      	add	r0, sp, #136	@ 0x88
   20984:	f008 fbe8 	bl	29158 <_ZN9allow_pin12full_dynamic17unshare_if_shared17hc49b4b2653f8b2c9E>
   20988:	9c05      	ldr	r4, [sp, #20]
   2098a:	1c60      	adds	r0, r4, #1
   2098c:	2227      	movs	r2, #39	@ 0x27
   2098e:	9903      	ldr	r1, [sp, #12]
   20990:	f008 fdbb 	bl	2950a <__aeabi_memcpy>
   20994:	2000      	movs	r0, #0
   20996:	7020      	strb	r0, [r4, #0]
   20998:	a822      	add	r0, sp, #136	@ 0x88
   2099a:	f008 fbdd 	bl	29158 <_ZN9allow_pin12full_dynamic17unshare_if_shared17hc49b4b2653f8b2c9E>
   2099e:	a806      	add	r0, sp, #24
   209a0:	f008 fbda 	bl	29158 <_ZN9allow_pin12full_dynamic17unshare_if_shared17hc49b4b2653f8b2c9E>
   209a4:	b033      	add	sp, #204	@ 0xcc
   209a6:	bdf0      	pop	{r4, r5, r6, r7, pc}
   209a8:	00001e54 	.word	0x00001e54

000209ac <_ZN20complex_full_dynamic3app17h1dafa98f615f8a06E>:
   209ac:	b5f0      	push	{r4, r5, r6, r7, lr}
   209ae:	af03      	add	r7, sp, #12
   209b0:	b0ab      	sub	sp, #172	@ 0xac
   209b2:	9006      	str	r0, [sp, #24]
   209b4:	ae07      	add	r6, sp, #28
   209b6:	2002      	movs	r0, #2
   209b8:	9005      	str	r0, [sp, #20]
   209ba:	7230      	strb	r0, [r6, #8]
   209bc:	360c      	adds	r6, #12
   209be:	2544      	movs	r5, #68	@ 0x44
   209c0:	4630      	mov	r0, r6
   209c2:	462a      	mov	r2, r5
   209c4:	f008 fda1 	bl	2950a <__aeabi_memcpy>
   209c8:	ac1b      	add	r4, sp, #108	@ 0x6c
   209ca:	4620      	mov	r0, r4
   209cc:	300c      	adds	r0, #12
   209ce:	2123      	movs	r1, #35	@ 0x23
   209d0:	9004      	str	r0, [sp, #16]
   209d2:	9103      	str	r1, [sp, #12]
   209d4:	f008 fbec 	bl	291b0 <__aeabi_memclr4>
   209d8:	9805      	ldr	r0, [sp, #20]
   209da:	7220      	strb	r0, [r4, #8]
   209dc:	2404      	movs	r4, #4
   209de:	9500      	str	r5, [sp, #0]
   209e0:	9401      	str	r4, [sp, #4]
   209e2:	a827      	add	r0, sp, #156	@ 0x9c
   209e4:	492d      	ldr	r1, [pc, #180]	@ (20a9c <_ZN20complex_full_dynamic3app17h1dafa98f615f8a06E+0xf0>)
   209e6:	2506      	movs	r5, #6
   209e8:	462a      	mov	r2, r5
   209ea:	4633      	mov	r3, r6
   209ec:	f008 fbc8 	bl	29180 <_ZN9allow_pin13dynamic_allow17h8bfd3764c146b81aE>
   209f0:	9827      	ldr	r0, [sp, #156]	@ 0x9c
   209f2:	2802      	cmp	r0, #2
   209f4:	d102      	bne.n	209fc <_ZN20complex_full_dynamic3app17h1dafa98f615f8a06E+0x50>
   209f6:	9928      	ldr	r1, [sp, #160]	@ 0xa0
   209f8:	4c28      	ldr	r4, [pc, #160]	@ (20a9c <_ZN20complex_full_dynamic3app17h1dafa98f615f8a06E+0xf0>)
   209fa:	e004      	b.n	20a06 <_ZN20complex_full_dynamic3app17h1dafa98f615f8a06E+0x5a>
   209fc:	a907      	add	r1, sp, #28
   209fe:	720c      	strb	r4, [r1, #8]
   20a00:	9508      	str	r5, [sp, #32]
   20a02:	4c26      	ldr	r4, [pc, #152]	@ (20a9c <_ZN20complex_full_dynamic3app17h1dafa98f615f8a06E+0xf0>)
   20a04:	9407      	str	r4, [sp, #28]
   20a06:	2601      	movs	r6, #1
   20a08:	2802      	cmp	r0, #2
   20a0a:	d02d      	beq.n	20a68 <_ZN20complex_full_dynamic3app17h1dafa98f615f8a06E+0xbc>
   20a0c:	a81b      	add	r0, sp, #108	@ 0x6c
   20a0e:	7a00      	ldrb	r0, [r0, #8]
   20a10:	2802      	cmp	r0, #2
   20a12:	d10e      	bne.n	20a32 <_ZN20complex_full_dynamic3app17h1dafa98f615f8a06E+0x86>
   20a14:	2503      	movs	r5, #3
   20a16:	9803      	ldr	r0, [sp, #12]
   20a18:	9000      	str	r0, [sp, #0]
   20a1a:	9501      	str	r5, [sp, #4]
   20a1c:	a827      	add	r0, sp, #156	@ 0x9c
   20a1e:	4621      	mov	r1, r4
   20a20:	462a      	mov	r2, r5
   20a22:	9b04      	ldr	r3, [sp, #16]
   20a24:	f008 fbac 	bl	29180 <_ZN9allow_pin13dynamic_allow17h8bfd3764c146b81aE>
   20a28:	9827      	ldr	r0, [sp, #156]	@ 0x9c
   20a2a:	2802      	cmp	r0, #2
   20a2c:	d106      	bne.n	20a3c <_ZN20complex_full_dynamic3app17h1dafa98f615f8a06E+0x90>
   20a2e:	9928      	ldr	r1, [sp, #160]	@ 0xa0
   20a30:	e000      	b.n	20a34 <_ZN20complex_full_dynamic3app17h1dafa98f615f8a06E+0x88>
   20a32:	2103      	movs	r1, #3
   20a34:	4630      	mov	r0, r6
   20a36:	2800      	cmp	r0, #0
   20a38:	d007      	beq.n	20a4a <_ZN20complex_full_dynamic3app17h1dafa98f615f8a06E+0x9e>
   20a3a:	e015      	b.n	20a68 <_ZN20complex_full_dynamic3app17h1dafa98f615f8a06E+0xbc>
   20a3c:	a81b      	add	r0, sp, #108	@ 0x6c
   20a3e:	7205      	strb	r5, [r0, #8]
   20a40:	951c      	str	r5, [sp, #112]	@ 0x70
   20a42:	941b      	str	r4, [sp, #108]	@ 0x6c
   20a44:	2000      	movs	r0, #0
   20a46:	2800      	cmp	r0, #0
   20a48:	d10e      	bne.n	20a68 <_ZN20complex_full_dynamic3app17h1dafa98f615f8a06E+0xbc>
   20a4a:	4814      	ldr	r0, [pc, #80]	@ (20a9c <_ZN20complex_full_dynamic3app17h1dafa98f615f8a06E+0xf0>)
   20a4c:	2106      	movs	r1, #6
   20a4e:	2203      	movs	r2, #3
   20a50:	2400      	movs	r4, #0
   20a52:	4623      	mov	r3, r4
   20a54:	df02      	svc	2
   20a56:	287f      	cmp	r0, #127	@ 0x7f
   20a58:	d906      	bls.n	20a68 <_ZN20complex_full_dynamic3app17h1dafa98f615f8a06E+0xbc>
   20a5a:	a807      	add	r0, sp, #28
   20a5c:	f008 fb7c 	bl	29158 <_ZN9allow_pin12full_dynamic17unshare_if_shared17hc49b4b2653f8b2c9E>
   20a60:	a81b      	add	r0, sp, #108	@ 0x6c
   20a62:	f008 fb79 	bl	29158 <_ZN9allow_pin12full_dynamic17unshare_if_shared17hc49b4b2653f8b2c9E>
   20a66:	4626      	mov	r6, r4
   20a68:	2e00      	cmp	r6, #0
   20a6a:	d003      	beq.n	20a74 <_ZN20complex_full_dynamic3app17h1dafa98f615f8a06E+0xc8>
   20a6c:	9c06      	ldr	r4, [sp, #24]
   20a6e:	6061      	str	r1, [r4, #4]
   20a70:	2001      	movs	r0, #1
   20a72:	e009      	b.n	20a88 <_ZN20complex_full_dynamic3app17h1dafa98f615f8a06E+0xdc>
   20a74:	a81b      	add	r0, sp, #108	@ 0x6c
   20a76:	f008 fb6f 	bl	29158 <_ZN9allow_pin12full_dynamic17unshare_if_shared17hc49b4b2653f8b2c9E>
   20a7a:	9c06      	ldr	r4, [sp, #24]
   20a7c:	1c60      	adds	r0, r4, #1
   20a7e:	2223      	movs	r2, #35	@ 0x23
   20a80:	9904      	ldr	r1, [sp, #16]
   20a82:	f008 fd42 	bl	2950a <__aeabi_memcpy>
   20a86:	2000      	movs	r0, #0
   20a88:	7020      	strb	r0, [r4, #0]
   20a8a:	a81b      	add	r0, sp, #108	@ 0x6c
   20a8c:	f008 fb64 	bl	29158 <_ZN9allow_pin12full_dynamic17unshare_if_shared17hc49b4b2653f8b2c9E>
   20a90:	a807      	add	r0, sp, #28
   20a92:	f008 fb61 	bl	29158 <_ZN9allow_pin12full_dynamic17unshare_if_shared17hc49b4b2653f8b2c9E>
   20a96:	b02b      	add	sp, #172	@ 0xac
   20a98:	bdf0      	pop	{r4, r5, r6, r7, pc}
   20a9a:	46c0      	nop			@ (mov r8, r8)
   20a9c:	000009bf 	.word	0x000009bf

00020aa0 <_ZN20complex_full_dynamic3app17h2152a167b6344825E>:
   20aa0:	b5f0      	push	{r4, r5, r6, r7, lr}
   20aa2:	af03      	add	r7, sp, #12
   20aa4:	b0b5      	sub	sp, #212	@ 0xd4
   20aa6:	9006      	str	r0, [sp, #24]
   20aa8:	ae07      	add	r6, sp, #28
   20aaa:	2002      	movs	r0, #2
   20aac:	9005      	str	r0, [sp, #20]
   20aae:	7230      	strb	r0, [r6, #8]
   20ab0:	360c      	adds	r6, #12
   20ab2:	252a      	movs	r5, #42	@ 0x2a
   20ab4:	4630      	mov	r0, r6
   20ab6:	462a      	mov	r2, r5
   20ab8:	f008 fd27 	bl	2950a <__aeabi_memcpy>
   20abc:	ac15      	add	r4, sp, #84	@ 0x54
   20abe:	4620      	mov	r0, r4
   20ac0:	300c      	adds	r0, #12
   20ac2:	2163      	movs	r1, #99	@ 0x63
   20ac4:	9004      	str	r0, [sp, #16]
   20ac6:	9103      	str	r1, [sp, #12]
   20ac8:	f008 fb72 	bl	291b0 <__aeabi_memclr4>
   20acc:	9805      	ldr	r0, [sp, #20]
   20ace:	7220      	strb	r0, [r4, #8]
   20ad0:	2404      	movs	r4, #4
   20ad2:	9500      	str	r5, [sp, #0]
   20ad4:	9401      	str	r4, [sp, #4]
   20ad6:	a831      	add	r0, sp, #196	@ 0xc4
   20ad8:	4d2d      	ldr	r5, [pc, #180]	@ (20b90 <_ZN20complex_full_dynamic3app17h2152a167b6344825E+0xf0>)
   20ada:	4629      	mov	r1, r5
   20adc:	4622      	mov	r2, r4
   20ade:	4633      	mov	r3, r6
   20ae0:	f008 fb4e 	bl	29180 <_ZN9allow_pin13dynamic_allow17h8bfd3764c146b81aE>
   20ae4:	9831      	ldr	r0, [sp, #196]	@ 0xc4
   20ae6:	2802      	cmp	r0, #2
   20ae8:	d102      	bne.n	20af0 <_ZN20complex_full_dynamic3app17h2152a167b6344825E+0x50>
   20aea:	462e      	mov	r6, r5
   20aec:	9932      	ldr	r1, [sp, #200]	@ 0xc8
   20aee:	e004      	b.n	20afa <_ZN20complex_full_dynamic3app17h2152a167b6344825E+0x5a>
   20af0:	a907      	add	r1, sp, #28
   20af2:	720c      	strb	r4, [r1, #8]
   20af4:	9408      	str	r4, [sp, #32]
   20af6:	462e      	mov	r6, r5
   20af8:	9507      	str	r5, [sp, #28]
   20afa:	2501      	movs	r5, #1
   20afc:	2802      	cmp	r0, #2
   20afe:	d02d      	beq.n	20b5c <_ZN20complex_full_dynamic3app17h2152a167b6344825E+0xbc>
   20b00:	a815      	add	r0, sp, #84	@ 0x54
   20b02:	7a00      	ldrb	r0, [r0, #8]
   20b04:	2103      	movs	r1, #3
   20b06:	2802      	cmp	r0, #2
   20b08:	d10e      	bne.n	20b28 <_ZN20complex_full_dynamic3app17h2152a167b6344825E+0x88>
   20b0a:	9803      	ldr	r0, [sp, #12]
   20b0c:	9000      	str	r0, [sp, #0]
   20b0e:	9105      	str	r1, [sp, #20]
   20b10:	9101      	str	r1, [sp, #4]
   20b12:	a831      	add	r0, sp, #196	@ 0xc4
   20b14:	2400      	movs	r4, #0
   20b16:	4631      	mov	r1, r6
   20b18:	4622      	mov	r2, r4
   20b1a:	9b04      	ldr	r3, [sp, #16]
   20b1c:	f008 fb30 	bl	29180 <_ZN9allow_pin13dynamic_allow17h8bfd3764c146b81aE>
   20b20:	9831      	ldr	r0, [sp, #196]	@ 0xc4
   20b22:	2802      	cmp	r0, #2
   20b24:	d104      	bne.n	20b30 <_ZN20complex_full_dynamic3app17h2152a167b6344825E+0x90>
   20b26:	9932      	ldr	r1, [sp, #200]	@ 0xc8
   20b28:	462c      	mov	r4, r5
   20b2a:	2c00      	cmp	r4, #0
   20b2c:	d007      	beq.n	20b3e <_ZN20complex_full_dynamic3app17h2152a167b6344825E+0x9e>
   20b2e:	e015      	b.n	20b5c <_ZN20complex_full_dynamic3app17h2152a167b6344825E+0xbc>
   20b30:	a815      	add	r0, sp, #84	@ 0x54
   20b32:	9905      	ldr	r1, [sp, #20]
   20b34:	7201      	strb	r1, [r0, #8]
   20b36:	9416      	str	r4, [sp, #88]	@ 0x58
   20b38:	9615      	str	r6, [sp, #84]	@ 0x54
   20b3a:	2c00      	cmp	r4, #0
   20b3c:	d10e      	bne.n	20b5c <_ZN20complex_full_dynamic3app17h2152a167b6344825E+0xbc>
   20b3e:	4814      	ldr	r0, [pc, #80]	@ (20b90 <_ZN20complex_full_dynamic3app17h2152a167b6344825E+0xf0>)
   20b40:	2104      	movs	r1, #4
   20b42:	2400      	movs	r4, #0
   20b44:	4622      	mov	r2, r4
   20b46:	4623      	mov	r3, r4
   20b48:	df02      	svc	2
   20b4a:	287f      	cmp	r0, #127	@ 0x7f
   20b4c:	d906      	bls.n	20b5c <_ZN20complex_full_dynamic3app17h2152a167b6344825E+0xbc>
   20b4e:	a807      	add	r0, sp, #28
   20b50:	f008 fb02 	bl	29158 <_ZN9allow_pin12full_dynamic17unshare_if_shared17hc49b4b2653f8b2c9E>
   20b54:	a815      	add	r0, sp, #84	@ 0x54
   20b56:	f008 faff 	bl	29158 <_ZN9allow_pin12full_dynamic17unshare_if_shared17hc49b4b2653f8b2c9E>
   20b5a:	4625      	mov	r5, r4
   20b5c:	2d00      	cmp	r5, #0
   20b5e:	d003      	beq.n	20b68 <_ZN20complex_full_dynamic3app17h2152a167b6344825E+0xc8>
   20b60:	9c06      	ldr	r4, [sp, #24]
   20b62:	6061      	str	r1, [r4, #4]
   20b64:	2001      	movs	r0, #1
   20b66:	e009      	b.n	20b7c <_ZN20complex_full_dynamic3app17h2152a167b6344825E+0xdc>
   20b68:	a815      	add	r0, sp, #84	@ 0x54
   20b6a:	f008 faf5 	bl	29158 <_ZN9allow_pin12full_dynamic17unshare_if_shared17hc49b4b2653f8b2c9E>
   20b6e:	9c06      	ldr	r4, [sp, #24]
   20b70:	1c60      	adds	r0, r4, #1
   20b72:	2263      	movs	r2, #99	@ 0x63
   20b74:	9904      	ldr	r1, [sp, #16]
   20b76:	f008 fcc8 	bl	2950a <__aeabi_memcpy>
   20b7a:	2000      	movs	r0, #0
   20b7c:	7020      	strb	r0, [r4, #0]
   20b7e:	a815      	add	r0, sp, #84	@ 0x54
   20b80:	f008 faea 	bl	29158 <_ZN9allow_pin12full_dynamic17unshare_if_shared17hc49b4b2653f8b2c9E>
   20b84:	a807      	add	r0, sp, #28
   20b86:	f008 fae7 	bl	29158 <_ZN9allow_pin12full_dynamic17unshare_if_shared17hc49b4b2653f8b2c9E>
   20b8a:	b035      	add	sp, #212	@ 0xd4
   20b8c:	bdf0      	pop	{r4, r5, r6, r7, pc}
   20b8e:	46c0      	nop			@ (mov r8, r8)
   20b90:	00001c7c 	.word	0x00001c7c

00020b94 <_ZN20complex_full_dynamic3app17h24901cd8328df0c1E>:
   20b94:	b5f0      	push	{r4, r5, r6, r7, lr}
   20b96:	af03      	add	r7, sp, #12
   20b98:	b0b5      	sub	sp, #212	@ 0xd4
   20b9a:	9006      	str	r0, [sp, #24]
   20b9c:	ae07      	add	r6, sp, #28
   20b9e:	2002      	movs	r0, #2
   20ba0:	9005      	str	r0, [sp, #20]
   20ba2:	7230      	strb	r0, [r6, #8]
   20ba4:	360c      	adds	r6, #12
   20ba6:	2553      	movs	r5, #83	@ 0x53
   20ba8:	4630      	mov	r0, r6
   20baa:	462a      	mov	r2, r5
   20bac:	f008 fcad 	bl	2950a <__aeabi_memcpy>
   20bb0:	ac1f      	add	r4, sp, #124	@ 0x7c
   20bb2:	4620      	mov	r0, r4
   20bb4:	300c      	adds	r0, #12
   20bb6:	213a      	movs	r1, #58	@ 0x3a
   20bb8:	9004      	str	r0, [sp, #16]
   20bba:	9103      	str	r1, [sp, #12]
   20bbc:	f008 faf8 	bl	291b0 <__aeabi_memclr4>
   20bc0:	9805      	ldr	r0, [sp, #20]
   20bc2:	7220      	strb	r0, [r4, #8]
   20bc4:	2404      	movs	r4, #4
   20bc6:	9500      	str	r5, [sp, #0]
   20bc8:	9401      	str	r4, [sp, #4]
   20bca:	a831      	add	r0, sp, #196	@ 0xc4
   20bcc:	492e      	ldr	r1, [pc, #184]	@ (20c88 <_ZN20complex_full_dynamic3app17h24901cd8328df0c1E+0xf4>)
   20bce:	2506      	movs	r5, #6
   20bd0:	462a      	mov	r2, r5
   20bd2:	4633      	mov	r3, r6
   20bd4:	f008 fad4 	bl	29180 <_ZN9allow_pin13dynamic_allow17h8bfd3764c146b81aE>
   20bd8:	9831      	ldr	r0, [sp, #196]	@ 0xc4
   20bda:	2802      	cmp	r0, #2
   20bdc:	d102      	bne.n	20be4 <_ZN20complex_full_dynamic3app17h24901cd8328df0c1E+0x50>
   20bde:	9932      	ldr	r1, [sp, #200]	@ 0xc8
   20be0:	4a29      	ldr	r2, [pc, #164]	@ (20c88 <_ZN20complex_full_dynamic3app17h24901cd8328df0c1E+0xf4>)
   20be2:	e004      	b.n	20bee <_ZN20complex_full_dynamic3app17h24901cd8328df0c1E+0x5a>
   20be4:	a907      	add	r1, sp, #28
   20be6:	720c      	strb	r4, [r1, #8]
   20be8:	9508      	str	r5, [sp, #32]
   20bea:	4a27      	ldr	r2, [pc, #156]	@ (20c88 <_ZN20complex_full_dynamic3app17h24901cd8328df0c1E+0xf4>)
   20bec:	9207      	str	r2, [sp, #28]
   20bee:	2501      	movs	r5, #1
   20bf0:	2802      	cmp	r0, #2
   20bf2:	d02f      	beq.n	20c54 <_ZN20complex_full_dynamic3app17h24901cd8328df0c1E+0xc0>
   20bf4:	a81f      	add	r0, sp, #124	@ 0x7c
   20bf6:	7a00      	ldrb	r0, [r0, #8]
   20bf8:	2802      	cmp	r0, #2
   20bfa:	d10f      	bne.n	20c1c <_ZN20complex_full_dynamic3app17h24901cd8328df0c1E+0x88>
   20bfc:	2603      	movs	r6, #3
   20bfe:	9803      	ldr	r0, [sp, #12]
   20c00:	9000      	str	r0, [sp, #0]
   20c02:	9601      	str	r6, [sp, #4]
   20c04:	a831      	add	r0, sp, #196	@ 0xc4
   20c06:	2407      	movs	r4, #7
   20c08:	4611      	mov	r1, r2
   20c0a:	4622      	mov	r2, r4
   20c0c:	9b04      	ldr	r3, [sp, #16]
   20c0e:	f008 fab7 	bl	29180 <_ZN9allow_pin13dynamic_allow17h8bfd3764c146b81aE>
   20c12:	9831      	ldr	r0, [sp, #196]	@ 0xc4
   20c14:	2802      	cmp	r0, #2
   20c16:	d106      	bne.n	20c26 <_ZN20complex_full_dynamic3app17h24901cd8328df0c1E+0x92>
   20c18:	9932      	ldr	r1, [sp, #200]	@ 0xc8
   20c1a:	e000      	b.n	20c1e <_ZN20complex_full_dynamic3app17h24901cd8328df0c1E+0x8a>
   20c1c:	2103      	movs	r1, #3
   20c1e:	4628      	mov	r0, r5
   20c20:	2800      	cmp	r0, #0
   20c22:	d008      	beq.n	20c36 <_ZN20complex_full_dynamic3app17h24901cd8328df0c1E+0xa2>
   20c24:	e016      	b.n	20c54 <_ZN20complex_full_dynamic3app17h24901cd8328df0c1E+0xc0>
   20c26:	a81f      	add	r0, sp, #124	@ 0x7c
   20c28:	7206      	strb	r6, [r0, #8]
   20c2a:	9420      	str	r4, [sp, #128]	@ 0x80
   20c2c:	4816      	ldr	r0, [pc, #88]	@ (20c88 <_ZN20complex_full_dynamic3app17h24901cd8328df0c1E+0xf4>)
   20c2e:	901f      	str	r0, [sp, #124]	@ 0x7c
   20c30:	2000      	movs	r0, #0
   20c32:	2800      	cmp	r0, #0
   20c34:	d10e      	bne.n	20c54 <_ZN20complex_full_dynamic3app17h24901cd8328df0c1E+0xc0>
   20c36:	4814      	ldr	r0, [pc, #80]	@ (20c88 <_ZN20complex_full_dynamic3app17h24901cd8328df0c1E+0xf4>)
   20c38:	2106      	movs	r1, #6
   20c3a:	2207      	movs	r2, #7
   20c3c:	2400      	movs	r4, #0
   20c3e:	4623      	mov	r3, r4
   20c40:	df02      	svc	2
   20c42:	287f      	cmp	r0, #127	@ 0x7f
   20c44:	d906      	bls.n	20c54 <_ZN20complex_full_dynamic3app17h24901cd8328df0c1E+0xc0>
   20c46:	a807      	add	r0, sp, #28
   20c48:	f008 fa86 	bl	29158 <_ZN9allow_pin12full_dynamic17unshare_if_shared17hc49b4b2653f8b2c9E>
   20c4c:	a81f      	add	r0, sp, #124	@ 0x7c
   20c4e:	f008 fa83 	bl	29158 <_ZN9allow_pin12full_dynamic17unshare_if_shared17hc49b4b2653f8b2c9E>
   20c52:	4625      	mov	r5, r4
   20c54:	2d00      	cmp	r5, #0
   20c56:	d003      	beq.n	20c60 <_ZN20complex_full_dynamic3app17h24901cd8328df0c1E+0xcc>
   20c58:	9c06      	ldr	r4, [sp, #24]
   20c5a:	6061      	str	r1, [r4, #4]
   20c5c:	2001      	movs	r0, #1
   20c5e:	e009      	b.n	20c74 <_ZN20complex_full_dynamic3app17h24901cd8328df0c1E+0xe0>
   20c60:	a81f      	add	r0, sp, #124	@ 0x7c
   20c62:	f008 fa79 	bl	29158 <_ZN9allow_pin12full_dynamic17unshare_if_shared17hc49b4b2653f8b2c9E>
   20c66:	9c06      	ldr	r4, [sp, #24]
   20c68:	1c60      	adds	r0, r4, #1
   20c6a:	223a      	movs	r2, #58	@ 0x3a
   20c6c:	9904      	ldr	r1, [sp, #16]
   20c6e:	f008 fc4c 	bl	2950a <__aeabi_memcpy>
   20c72:	2000      	movs	r0, #0
   20c74:	7020      	strb	r0, [r4, #0]
   20c76:	a81f      	add	r0, sp, #124	@ 0x7c
   20c78:	f008 fa6e 	bl	29158 <_ZN9allow_pin12full_dynamic17unshare_if_shared17hc49b4b2653f8b2c9E>
   20c7c:	a807      	add	r0, sp, #28
   20c7e:	f008 fa6b 	bl	29158 <_ZN9allow_pin12full_dynamic17unshare_if_shared17hc49b4b2653f8b2c9E>
   20c82:	b035      	add	sp, #212	@ 0xd4
   20c84:	bdf0      	pop	{r4, r5, r6, r7, pc}
   20c86:	46c0      	nop			@ (mov r8, r8)
   20c88:	00002645 	.word	0x00002645

00020c8c <_ZN20complex_full_dynamic3app17h299e71278331176cE>:
   20c8c:	b5f0      	push	{r4, r5, r6, r7, lr}
   20c8e:	af03      	add	r7, sp, #12
   20c90:	b0a5      	sub	sp, #148	@ 0x94
   20c92:	9005      	str	r0, [sp, #20]
   20c94:	ac06      	add	r4, sp, #24
   20c96:	2602      	movs	r6, #2
   20c98:	7226      	strb	r6, [r4, #8]
   20c9a:	340c      	adds	r4, #12
   20c9c:	253f      	movs	r5, #63	@ 0x3f
   20c9e:	4620      	mov	r0, r4
   20ca0:	462a      	mov	r2, r5
   20ca2:	f008 fc32 	bl	2950a <__aeabi_memcpy>
   20ca6:	a819      	add	r0, sp, #100	@ 0x64
   20ca8:	2100      	movs	r1, #0
   20caa:	7701      	strb	r1, [r0, #28]
   20cac:	9004      	str	r0, [sp, #16]
   20cae:	7206      	strb	r6, [r0, #8]
   20cb0:	911f      	str	r1, [sp, #124]	@ 0x7c
   20cb2:	911e      	str	r1, [sp, #120]	@ 0x78
   20cb4:	911d      	str	r1, [sp, #116]	@ 0x74
   20cb6:	9103      	str	r1, [sp, #12]
   20cb8:	911c      	str	r1, [sp, #112]	@ 0x70
   20cba:	2604      	movs	r6, #4
   20cbc:	9500      	str	r5, [sp, #0]
   20cbe:	9601      	str	r6, [sp, #4]
   20cc0:	a821      	add	r0, sp, #132	@ 0x84
   20cc2:	4d2f      	ldr	r5, [pc, #188]	@ (20d80 <_ZN20complex_full_dynamic3app17h299e71278331176cE+0xf4>)
   20cc4:	4629      	mov	r1, r5
   20cc6:	4632      	mov	r2, r6
   20cc8:	4623      	mov	r3, r4
   20cca:	f008 fa59 	bl	29180 <_ZN9allow_pin13dynamic_allow17h8bfd3764c146b81aE>
   20cce:	9821      	ldr	r0, [sp, #132]	@ 0x84
   20cd0:	2802      	cmp	r0, #2
   20cd2:	d102      	bne.n	20cda <_ZN20complex_full_dynamic3app17h299e71278331176cE+0x4e>
   20cd4:	462a      	mov	r2, r5
   20cd6:	9922      	ldr	r1, [sp, #136]	@ 0x88
   20cd8:	e004      	b.n	20ce4 <_ZN20complex_full_dynamic3app17h299e71278331176cE+0x58>
   20cda:	a906      	add	r1, sp, #24
   20cdc:	720e      	strb	r6, [r1, #8]
   20cde:	9607      	str	r6, [sp, #28]
   20ce0:	462a      	mov	r2, r5
   20ce2:	9506      	str	r5, [sp, #24]
   20ce4:	9e04      	ldr	r6, [sp, #16]
   20ce6:	360c      	adds	r6, #12
   20ce8:	2501      	movs	r5, #1
   20cea:	2802      	cmp	r0, #2
   20cec:	d02e      	beq.n	20d4c <_ZN20complex_full_dynamic3app17h299e71278331176cE+0xc0>
   20cee:	a819      	add	r0, sp, #100	@ 0x64
   20cf0:	7a00      	ldrb	r0, [r0, #8]
   20cf2:	2802      	cmp	r0, #2
   20cf4:	d10e      	bne.n	20d14 <_ZN20complex_full_dynamic3app17h299e71278331176cE+0x88>
   20cf6:	2403      	movs	r4, #3
   20cf8:	2011      	movs	r0, #17
   20cfa:	9000      	str	r0, [sp, #0]
   20cfc:	9401      	str	r4, [sp, #4]
   20cfe:	a821      	add	r0, sp, #132	@ 0x84
   20d00:	4611      	mov	r1, r2
   20d02:	4622      	mov	r2, r4
   20d04:	4633      	mov	r3, r6
   20d06:	f008 fa3b 	bl	29180 <_ZN9allow_pin13dynamic_allow17h8bfd3764c146b81aE>
   20d0a:	9821      	ldr	r0, [sp, #132]	@ 0x84
   20d0c:	2802      	cmp	r0, #2
   20d0e:	d106      	bne.n	20d1e <_ZN20complex_full_dynamic3app17h299e71278331176cE+0x92>
   20d10:	9922      	ldr	r1, [sp, #136]	@ 0x88
   20d12:	e000      	b.n	20d16 <_ZN20complex_full_dynamic3app17h299e71278331176cE+0x8a>
   20d14:	2103      	movs	r1, #3
   20d16:	4628      	mov	r0, r5
   20d18:	2800      	cmp	r0, #0
   20d1a:	d008      	beq.n	20d2e <_ZN20complex_full_dynamic3app17h299e71278331176cE+0xa2>
   20d1c:	e016      	b.n	20d4c <_ZN20complex_full_dynamic3app17h299e71278331176cE+0xc0>
   20d1e:	a819      	add	r0, sp, #100	@ 0x64
   20d20:	7204      	strb	r4, [r0, #8]
   20d22:	941a      	str	r4, [sp, #104]	@ 0x68
   20d24:	4816      	ldr	r0, [pc, #88]	@ (20d80 <_ZN20complex_full_dynamic3app17h299e71278331176cE+0xf4>)
   20d26:	9019      	str	r0, [sp, #100]	@ 0x64
   20d28:	9803      	ldr	r0, [sp, #12]
   20d2a:	2800      	cmp	r0, #0
   20d2c:	d10e      	bne.n	20d4c <_ZN20complex_full_dynamic3app17h299e71278331176cE+0xc0>
   20d2e:	4814      	ldr	r0, [pc, #80]	@ (20d80 <_ZN20complex_full_dynamic3app17h299e71278331176cE+0xf4>)
   20d30:	2104      	movs	r1, #4
   20d32:	2203      	movs	r2, #3
   20d34:	2400      	movs	r4, #0
   20d36:	4623      	mov	r3, r4
   20d38:	df02      	svc	2
   20d3a:	287f      	cmp	r0, #127	@ 0x7f
   20d3c:	d906      	bls.n	20d4c <_ZN20complex_full_dynamic3app17h299e71278331176cE+0xc0>
   20d3e:	a806      	add	r0, sp, #24
   20d40:	f008 fa0a 	bl	29158 <_ZN9allow_pin12full_dynamic17unshare_if_shared17hc49b4b2653f8b2c9E>
   20d44:	a819      	add	r0, sp, #100	@ 0x64
   20d46:	f008 fa07 	bl	29158 <_ZN9allow_pin12full_dynamic17unshare_if_shared17hc49b4b2653f8b2c9E>
   20d4a:	4625      	mov	r5, r4
   20d4c:	2d00      	cmp	r5, #0
   20d4e:	d003      	beq.n	20d58 <_ZN20complex_full_dynamic3app17h299e71278331176cE+0xcc>
   20d50:	9c05      	ldr	r4, [sp, #20]
   20d52:	6061      	str	r1, [r4, #4]
   20d54:	2001      	movs	r0, #1
   20d56:	e009      	b.n	20d6c <_ZN20complex_full_dynamic3app17h299e71278331176cE+0xe0>
   20d58:	a819      	add	r0, sp, #100	@ 0x64
   20d5a:	f008 f9fd 	bl	29158 <_ZN9allow_pin12full_dynamic17unshare_if_shared17hc49b4b2653f8b2c9E>
   20d5e:	9c05      	ldr	r4, [sp, #20]
   20d60:	1c60      	adds	r0, r4, #1
   20d62:	2211      	movs	r2, #17
   20d64:	4631      	mov	r1, r6
   20d66:	f008 fbd0 	bl	2950a <__aeabi_memcpy>
   20d6a:	2000      	movs	r0, #0
   20d6c:	7020      	strb	r0, [r4, #0]
   20d6e:	a819      	add	r0, sp, #100	@ 0x64
   20d70:	f008 f9f2 	bl	29158 <_ZN9allow_pin12full_dynamic17unshare_if_shared17hc49b4b2653f8b2c9E>
   20d74:	a806      	add	r0, sp, #24
   20d76:	f008 f9ef 	bl	29158 <_ZN9allow_pin12full_dynamic17unshare_if_shared17hc49b4b2653f8b2c9E>
   20d7a:	b025      	add	sp, #148	@ 0x94
   20d7c:	bdf0      	pop	{r4, r5, r6, r7, pc}
   20d7e:	46c0      	nop			@ (mov r8, r8)
   20d80:	000014d7 	.word	0x000014d7

00020d84 <_ZN20complex_full_dynamic3app17h2eed261d4020bb3eE>:
   20d84:	b5f0      	push	{r4, r5, r6, r7, lr}
   20d86:	af03      	add	r7, sp, #12
   20d88:	b0a5      	sub	sp, #148	@ 0x94
   20d8a:	9005      	str	r0, [sp, #20]
   20d8c:	ae06      	add	r6, sp, #24
   20d8e:	2002      	movs	r0, #2
   20d90:	9004      	str	r0, [sp, #16]
   20d92:	7230      	strb	r0, [r6, #8]
   20d94:	360c      	adds	r6, #12
   20d96:	252c      	movs	r5, #44	@ 0x2c
   20d98:	4630      	mov	r0, r6
   20d9a:	462a      	mov	r2, r5
   20d9c:	f008 fbb5 	bl	2950a <__aeabi_memcpy>
   20da0:	ac14      	add	r4, sp, #80	@ 0x50
   20da2:	4620      	mov	r0, r4
   20da4:	300c      	adds	r0, #12
   20da6:	2127      	movs	r1, #39	@ 0x27
   20da8:	9003      	str	r0, [sp, #12]
   20daa:	9102      	str	r1, [sp, #8]
   20dac:	f008 fa00 	bl	291b0 <__aeabi_memclr4>
   20db0:	9804      	ldr	r0, [sp, #16]
   20db2:	7220      	strb	r0, [r4, #8]
   20db4:	2404      	movs	r4, #4
   20db6:	9500      	str	r5, [sp, #0]
   20db8:	9401      	str	r4, [sp, #4]
   20dba:	a821      	add	r0, sp, #132	@ 0x84
   20dbc:	4d2d      	ldr	r5, [pc, #180]	@ (20e74 <_ZN20complex_full_dynamic3app17h2eed261d4020bb3eE+0xf0>)
   20dbe:	4629      	mov	r1, r5
   20dc0:	4622      	mov	r2, r4
   20dc2:	4633      	mov	r3, r6
   20dc4:	f008 f9dc 	bl	29180 <_ZN9allow_pin13dynamic_allow17h8bfd3764c146b81aE>
   20dc8:	9821      	ldr	r0, [sp, #132]	@ 0x84
   20dca:	2802      	cmp	r0, #2
   20dcc:	d102      	bne.n	20dd4 <_ZN20complex_full_dynamic3app17h2eed261d4020bb3eE+0x50>
   20dce:	462e      	mov	r6, r5
   20dd0:	9922      	ldr	r1, [sp, #136]	@ 0x88
   20dd2:	e004      	b.n	20dde <_ZN20complex_full_dynamic3app17h2eed261d4020bb3eE+0x5a>
   20dd4:	a906      	add	r1, sp, #24
   20dd6:	720c      	strb	r4, [r1, #8]
   20dd8:	9407      	str	r4, [sp, #28]
   20dda:	462e      	mov	r6, r5
   20ddc:	9506      	str	r5, [sp, #24]
   20dde:	2501      	movs	r5, #1
   20de0:	2802      	cmp	r0, #2
   20de2:	d02d      	beq.n	20e40 <_ZN20complex_full_dynamic3app17h2eed261d4020bb3eE+0xbc>
   20de4:	a814      	add	r0, sp, #80	@ 0x50
   20de6:	7a00      	ldrb	r0, [r0, #8]
   20de8:	2802      	cmp	r0, #2
   20dea:	d10e      	bne.n	20e0a <_ZN20complex_full_dynamic3app17h2eed261d4020bb3eE+0x86>
   20dec:	2403      	movs	r4, #3
   20dee:	9802      	ldr	r0, [sp, #8]
   20df0:	9000      	str	r0, [sp, #0]
   20df2:	9401      	str	r4, [sp, #4]
   20df4:	a821      	add	r0, sp, #132	@ 0x84
   20df6:	4631      	mov	r1, r6
   20df8:	4622      	mov	r2, r4
   20dfa:	9b03      	ldr	r3, [sp, #12]
   20dfc:	f008 f9c0 	bl	29180 <_ZN9allow_pin13dynamic_allow17h8bfd3764c146b81aE>
   20e00:	9821      	ldr	r0, [sp, #132]	@ 0x84
   20e02:	2802      	cmp	r0, #2
   20e04:	d106      	bne.n	20e14 <_ZN20complex_full_dynamic3app17h2eed261d4020bb3eE+0x90>
   20e06:	9922      	ldr	r1, [sp, #136]	@ 0x88
   20e08:	e000      	b.n	20e0c <_ZN20complex_full_dynamic3app17h2eed261d4020bb3eE+0x88>
   20e0a:	2103      	movs	r1, #3
   20e0c:	4628      	mov	r0, r5
   20e0e:	2800      	cmp	r0, #0
   20e10:	d007      	beq.n	20e22 <_ZN20complex_full_dynamic3app17h2eed261d4020bb3eE+0x9e>
   20e12:	e015      	b.n	20e40 <_ZN20complex_full_dynamic3app17h2eed261d4020bb3eE+0xbc>
   20e14:	a814      	add	r0, sp, #80	@ 0x50
   20e16:	7204      	strb	r4, [r0, #8]
   20e18:	9415      	str	r4, [sp, #84]	@ 0x54
   20e1a:	9614      	str	r6, [sp, #80]	@ 0x50
   20e1c:	2000      	movs	r0, #0
   20e1e:	2800      	cmp	r0, #0
   20e20:	d10e      	bne.n	20e40 <_ZN20complex_full_dynamic3app17h2eed261d4020bb3eE+0xbc>
   20e22:	4814      	ldr	r0, [pc, #80]	@ (20e74 <_ZN20complex_full_dynamic3app17h2eed261d4020bb3eE+0xf0>)
   20e24:	2104      	movs	r1, #4
   20e26:	2203      	movs	r2, #3
   20e28:	2400      	movs	r4, #0
   20e2a:	4623      	mov	r3, r4
   20e2c:	df02      	svc	2
   20e2e:	287f      	cmp	r0, #127	@ 0x7f
   20e30:	d906      	bls.n	20e40 <_ZN20complex_full_dynamic3app17h2eed261d4020bb3eE+0xbc>
   20e32:	a806      	add	r0, sp, #24
   20e34:	f008 f990 	bl	29158 <_ZN9allow_pin12full_dynamic17unshare_if_shared17hc49b4b2653f8b2c9E>
   20e38:	a814      	add	r0, sp, #80	@ 0x50
   20e3a:	f008 f98d 	bl	29158 <_ZN9allow_pin12full_dynamic17unshare_if_shared17hc49b4b2653f8b2c9E>
   20e3e:	4625      	mov	r5, r4
   20e40:	2d00      	cmp	r5, #0
   20e42:	d003      	beq.n	20e4c <_ZN20complex_full_dynamic3app17h2eed261d4020bb3eE+0xc8>
   20e44:	9c05      	ldr	r4, [sp, #20]
   20e46:	6061      	str	r1, [r4, #4]
   20e48:	2001      	movs	r0, #1
   20e4a:	e009      	b.n	20e60 <_ZN20complex_full_dynamic3app17h2eed261d4020bb3eE+0xdc>
   20e4c:	a814      	add	r0, sp, #80	@ 0x50
   20e4e:	f008 f983 	bl	29158 <_ZN9allow_pin12full_dynamic17unshare_if_shared17hc49b4b2653f8b2c9E>
   20e52:	9c05      	ldr	r4, [sp, #20]
   20e54:	1c60      	adds	r0, r4, #1
   20e56:	2227      	movs	r2, #39	@ 0x27
   20e58:	9903      	ldr	r1, [sp, #12]
   20e5a:	f008 fb56 	bl	2950a <__aeabi_memcpy>
   20e5e:	2000      	movs	r0, #0
   20e60:	7020      	strb	r0, [r4, #0]
   20e62:	a814      	add	r0, sp, #80	@ 0x50
   20e64:	f008 f978 	bl	29158 <_ZN9allow_pin12full_dynamic17unshare_if_shared17hc49b4b2653f8b2c9E>
   20e68:	a806      	add	r0, sp, #24
   20e6a:	f008 f975 	bl	29158 <_ZN9allow_pin12full_dynamic17unshare_if_shared17hc49b4b2653f8b2c9E>
   20e6e:	b025      	add	sp, #148	@ 0x94
   20e70:	bdf0      	pop	{r4, r5, r6, r7, pc}
   20e72:	46c0      	nop			@ (mov r8, r8)
   20e74:	000011b5 	.word	0x000011b5

00020e78 <_ZN20complex_full_dynamic3app17h2eedfe6a351ff722E>:
   20e78:	b5f0      	push	{r4, r5, r6, r7, lr}
   20e7a:	af03      	add	r7, sp, #12
   20e7c:	b0b3      	sub	sp, #204	@ 0xcc
   20e7e:	9005      	str	r0, [sp, #20]
   20e80:	ae06      	add	r6, sp, #24
   20e82:	2002      	movs	r0, #2
   20e84:	9004      	str	r0, [sp, #16]
   20e86:	7230      	strb	r0, [r6, #8]
   20e88:	360c      	adds	r6, #12
   20e8a:	2555      	movs	r5, #85	@ 0x55
   20e8c:	4630      	mov	r0, r6
   20e8e:	462a      	mov	r2, r5
   20e90:	f008 fb3b 	bl	2950a <__aeabi_memcpy>
   20e94:	ac1f      	add	r4, sp, #124	@ 0x7c
   20e96:	4620      	mov	r0, r4
   20e98:	300c      	adds	r0, #12
   20e9a:	2132      	movs	r1, #50	@ 0x32
   20e9c:	9003      	str	r0, [sp, #12]
   20e9e:	9102      	str	r1, [sp, #8]
   20ea0:	f008 f986 	bl	291b0 <__aeabi_memclr4>
   20ea4:	9804      	ldr	r0, [sp, #16]
   20ea6:	7220      	strb	r0, [r4, #8]
   20ea8:	2404      	movs	r4, #4
   20eaa:	9500      	str	r5, [sp, #0]
   20eac:	9401      	str	r4, [sp, #4]
   20eae:	a82f      	add	r0, sp, #188	@ 0xbc
   20eb0:	492e      	ldr	r1, [pc, #184]	@ (20f6c <_ZN20complex_full_dynamic3app17h2eedfe6a351ff722E+0xf4>)
   20eb2:	2508      	movs	r5, #8
   20eb4:	462a      	mov	r2, r5
   20eb6:	4633      	mov	r3, r6
   20eb8:	f008 f962 	bl	29180 <_ZN9allow_pin13dynamic_allow17h8bfd3764c146b81aE>
   20ebc:	982f      	ldr	r0, [sp, #188]	@ 0xbc
   20ebe:	2802      	cmp	r0, #2
   20ec0:	d102      	bne.n	20ec8 <_ZN20complex_full_dynamic3app17h2eedfe6a351ff722E+0x50>
   20ec2:	9930      	ldr	r1, [sp, #192]	@ 0xc0
   20ec4:	4a29      	ldr	r2, [pc, #164]	@ (20f6c <_ZN20complex_full_dynamic3app17h2eedfe6a351ff722E+0xf4>)
   20ec6:	e004      	b.n	20ed2 <_ZN20complex_full_dynamic3app17h2eedfe6a351ff722E+0x5a>
   20ec8:	a906      	add	r1, sp, #24
   20eca:	720c      	strb	r4, [r1, #8]
   20ecc:	9507      	str	r5, [sp, #28]
   20ece:	4a27      	ldr	r2, [pc, #156]	@ (20f6c <_ZN20complex_full_dynamic3app17h2eedfe6a351ff722E+0xf4>)
   20ed0:	9206      	str	r2, [sp, #24]
   20ed2:	2501      	movs	r5, #1
   20ed4:	2802      	cmp	r0, #2
   20ed6:	d02f      	beq.n	20f38 <_ZN20complex_full_dynamic3app17h2eedfe6a351ff722E+0xc0>
   20ed8:	a81f      	add	r0, sp, #124	@ 0x7c
   20eda:	7a00      	ldrb	r0, [r0, #8]
   20edc:	2802      	cmp	r0, #2
   20ede:	d10f      	bne.n	20f00 <_ZN20complex_full_dynamic3app17h2eedfe6a351ff722E+0x88>
   20ee0:	2603      	movs	r6, #3
   20ee2:	9802      	ldr	r0, [sp, #8]
   20ee4:	9000      	str	r0, [sp, #0]
   20ee6:	9601      	str	r6, [sp, #4]
   20ee8:	a82f      	add	r0, sp, #188	@ 0xbc
   20eea:	2408      	movs	r4, #8
   20eec:	4611      	mov	r1, r2
   20eee:	4622      	mov	r2, r4
   20ef0:	9b03      	ldr	r3, [sp, #12]
   20ef2:	f008 f945 	bl	29180 <_ZN9allow_pin13dynamic_allow17h8bfd3764c146b81aE>
   20ef6:	982f      	ldr	r0, [sp, #188]	@ 0xbc
   20ef8:	2802      	cmp	r0, #2
   20efa:	d106      	bne.n	20f0a <_ZN20complex_full_dynamic3app17h2eedfe6a351ff722E+0x92>
   20efc:	9930      	ldr	r1, [sp, #192]	@ 0xc0
   20efe:	e000      	b.n	20f02 <_ZN20complex_full_dynamic3app17h2eedfe6a351ff722E+0x8a>
   20f00:	2103      	movs	r1, #3
   20f02:	4628      	mov	r0, r5
   20f04:	2800      	cmp	r0, #0
   20f06:	d008      	beq.n	20f1a <_ZN20complex_full_dynamic3app17h2eedfe6a351ff722E+0xa2>
   20f08:	e016      	b.n	20f38 <_ZN20complex_full_dynamic3app17h2eedfe6a351ff722E+0xc0>
   20f0a:	a81f      	add	r0, sp, #124	@ 0x7c
   20f0c:	7206      	strb	r6, [r0, #8]
   20f0e:	9420      	str	r4, [sp, #128]	@ 0x80
   20f10:	4816      	ldr	r0, [pc, #88]	@ (20f6c <_ZN20complex_full_dynamic3app17h2eedfe6a351ff722E+0xf4>)
   20f12:	901f      	str	r0, [sp, #124]	@ 0x7c
   20f14:	2000      	movs	r0, #0
   20f16:	2800      	cmp	r0, #0
   20f18:	d10e      	bne.n	20f38 <_ZN20complex_full_dynamic3app17h2eedfe6a351ff722E+0xc0>
   20f1a:	4814      	ldr	r0, [pc, #80]	@ (20f6c <_ZN20complex_full_dynamic3app17h2eedfe6a351ff722E+0xf4>)
   20f1c:	2108      	movs	r1, #8
   20f1e:	2400      	movs	r4, #0
   20f20:	460a      	mov	r2, r1
   20f22:	4623      	mov	r3, r4
   20f24:	df02      	svc	2
   20f26:	287f      	cmp	r0, #127	@ 0x7f
   20f28:	d906      	bls.n	20f38 <_ZN20complex_full_dynamic3app17h2eedfe6a351ff722E+0xc0>
   20f2a:	a806      	add	r0, sp, #24
   20f2c:	f008 f914 	bl	29158 <_ZN9allow_pin12full_dynamic17unshare_if_shared17hc49b4b2653f8b2c9E>
   20f30:	a81f      	add	r0, sp, #124	@ 0x7c
   20f32:	f008 f911 	bl	29158 <_ZN9allow_pin12full_dynamic17unshare_if_shared17hc49b4b2653f8b2c9E>
   20f36:	4625      	mov	r5, r4
   20f38:	2d00      	cmp	r5, #0
   20f3a:	d003      	beq.n	20f44 <_ZN20complex_full_dynamic3app17h2eedfe6a351ff722E+0xcc>
   20f3c:	9c05      	ldr	r4, [sp, #20]
   20f3e:	6061      	str	r1, [r4, #4]
   20f40:	2001      	movs	r0, #1
   20f42:	e009      	b.n	20f58 <_ZN20complex_full_dynamic3app17h2eedfe6a351ff722E+0xe0>
   20f44:	a81f      	add	r0, sp, #124	@ 0x7c
   20f46:	f008 f907 	bl	29158 <_ZN9allow_pin12full_dynamic17unshare_if_shared17hc49b4b2653f8b2c9E>
   20f4a:	9c05      	ldr	r4, [sp, #20]
   20f4c:	1c60      	adds	r0, r4, #1
   20f4e:	2232      	movs	r2, #50	@ 0x32
   20f50:	9903      	ldr	r1, [sp, #12]
   20f52:	f008 fada 	bl	2950a <__aeabi_memcpy>
   20f56:	2000      	movs	r0, #0
   20f58:	7020      	strb	r0, [r4, #0]
   20f5a:	a81f      	add	r0, sp, #124	@ 0x7c
   20f5c:	f008 f8fc 	bl	29158 <_ZN9allow_pin12full_dynamic17unshare_if_shared17hc49b4b2653f8b2c9E>
   20f60:	a806      	add	r0, sp, #24
   20f62:	f008 f8f9 	bl	29158 <_ZN9allow_pin12full_dynamic17unshare_if_shared17hc49b4b2653f8b2c9E>
   20f66:	b033      	add	sp, #204	@ 0xcc
   20f68:	bdf0      	pop	{r4, r5, r6, r7, pc}
   20f6a:	46c0      	nop			@ (mov r8, r8)
   20f6c:	00002095 	.word	0x00002095

00020f70 <_ZN20complex_full_dynamic3app17h2fe4d22426103352E>:
   20f70:	b5f0      	push	{r4, r5, r6, r7, lr}
   20f72:	af03      	add	r7, sp, #12
   20f74:	b0ab      	sub	sp, #172	@ 0xac
   20f76:	9005      	str	r0, [sp, #20]
   20f78:	ad06      	add	r5, sp, #24
   20f7a:	2002      	movs	r0, #2
   20f7c:	9004      	str	r0, [sp, #16]
   20f7e:	7228      	strb	r0, [r5, #8]
   20f80:	350c      	adds	r5, #12
   20f82:	2638      	movs	r6, #56	@ 0x38
   20f84:	4628      	mov	r0, r5
   20f86:	4632      	mov	r2, r6
   20f88:	f008 fabf 	bl	2950a <__aeabi_memcpy>
   20f8c:	ac17      	add	r4, sp, #92	@ 0x5c
   20f8e:	4620      	mov	r0, r4
   20f90:	300c      	adds	r0, #12
   20f92:	2134      	movs	r1, #52	@ 0x34
   20f94:	9003      	str	r0, [sp, #12]
   20f96:	9102      	str	r1, [sp, #8]
   20f98:	f008 f90a 	bl	291b0 <__aeabi_memclr4>
   20f9c:	9804      	ldr	r0, [sp, #16]
   20f9e:	7220      	strb	r0, [r4, #8]
   20fa0:	2004      	movs	r0, #4
   20fa2:	9600      	str	r6, [sp, #0]
   20fa4:	9004      	str	r0, [sp, #16]
   20fa6:	9001      	str	r0, [sp, #4]
   20fa8:	2097      	movs	r0, #151	@ 0x97
   20faa:	0044      	lsls	r4, r0, #1
   20fac:	a827      	add	r0, sp, #156	@ 0x9c
   20fae:	2608      	movs	r6, #8
   20fb0:	4621      	mov	r1, r4
   20fb2:	4632      	mov	r2, r6
   20fb4:	462b      	mov	r3, r5
   20fb6:	f008 f8e3 	bl	29180 <_ZN9allow_pin13dynamic_allow17h8bfd3764c146b81aE>
   20fba:	9827      	ldr	r0, [sp, #156]	@ 0x9c
   20fbc:	2802      	cmp	r0, #2
   20fbe:	d101      	bne.n	20fc4 <_ZN20complex_full_dynamic3app17h2fe4d22426103352E+0x54>
   20fc0:	9928      	ldr	r1, [sp, #160]	@ 0xa0
   20fc2:	e004      	b.n	20fce <_ZN20complex_full_dynamic3app17h2fe4d22426103352E+0x5e>
   20fc4:	a906      	add	r1, sp, #24
   20fc6:	9a04      	ldr	r2, [sp, #16]
   20fc8:	720a      	strb	r2, [r1, #8]
   20fca:	9607      	str	r6, [sp, #28]
   20fcc:	9406      	str	r4, [sp, #24]
   20fce:	4623      	mov	r3, r4
   20fd0:	2601      	movs	r6, #1
   20fd2:	2802      	cmp	r0, #2
   20fd4:	d030      	beq.n	21038 <_ZN20complex_full_dynamic3app17h2fe4d22426103352E+0xc8>
   20fd6:	a817      	add	r0, sp, #92	@ 0x5c
   20fd8:	7a00      	ldrb	r0, [r0, #8]
   20fda:	2802      	cmp	r0, #2
   20fdc:	d110      	bne.n	21000 <_ZN20complex_full_dynamic3app17h2fe4d22426103352E+0x90>
   20fde:	2503      	movs	r5, #3
   20fe0:	9802      	ldr	r0, [sp, #8]
   20fe2:	9000      	str	r0, [sp, #0]
   20fe4:	9501      	str	r5, [sp, #4]
   20fe6:	a827      	add	r0, sp, #156	@ 0x9c
   20fe8:	4619      	mov	r1, r3
   20fea:	462a      	mov	r2, r5
   20fec:	461c      	mov	r4, r3
   20fee:	9b03      	ldr	r3, [sp, #12]
   20ff0:	f008 f8c6 	bl	29180 <_ZN9allow_pin13dynamic_allow17h8bfd3764c146b81aE>
   20ff4:	9827      	ldr	r0, [sp, #156]	@ 0x9c
   20ff6:	2802      	cmp	r0, #2
   20ff8:	d107      	bne.n	2100a <_ZN20complex_full_dynamic3app17h2fe4d22426103352E+0x9a>
   20ffa:	9928      	ldr	r1, [sp, #160]	@ 0xa0
   20ffc:	4630      	mov	r0, r6
   20ffe:	e009      	b.n	21014 <_ZN20complex_full_dynamic3app17h2fe4d22426103352E+0xa4>
   21000:	2103      	movs	r1, #3
   21002:	4630      	mov	r0, r6
   21004:	2800      	cmp	r0, #0
   21006:	d008      	beq.n	2101a <_ZN20complex_full_dynamic3app17h2fe4d22426103352E+0xaa>
   21008:	e016      	b.n	21038 <_ZN20complex_full_dynamic3app17h2fe4d22426103352E+0xc8>
   2100a:	a817      	add	r0, sp, #92	@ 0x5c
   2100c:	7205      	strb	r5, [r0, #8]
   2100e:	9518      	str	r5, [sp, #96]	@ 0x60
   21010:	9417      	str	r4, [sp, #92]	@ 0x5c
   21012:	2000      	movs	r0, #0
   21014:	4623      	mov	r3, r4
   21016:	2800      	cmp	r0, #0
   21018:	d10e      	bne.n	21038 <_ZN20complex_full_dynamic3app17h2fe4d22426103352E+0xc8>
   2101a:	2108      	movs	r1, #8
   2101c:	2203      	movs	r2, #3
   2101e:	2400      	movs	r4, #0
   21020:	4618      	mov	r0, r3
   21022:	4623      	mov	r3, r4
   21024:	df02      	svc	2
   21026:	287f      	cmp	r0, #127	@ 0x7f
   21028:	d906      	bls.n	21038 <_ZN20complex_full_dynamic3app17h2fe4d22426103352E+0xc8>
   2102a:	a806      	add	r0, sp, #24
   2102c:	f008 f894 	bl	29158 <_ZN9allow_pin12full_dynamic17unshare_if_shared17hc49b4b2653f8b2c9E>
   21030:	a817      	add	r0, sp, #92	@ 0x5c
   21032:	f008 f891 	bl	29158 <_ZN9allow_pin12full_dynamic17unshare_if_shared17hc49b4b2653f8b2c9E>
   21036:	4626      	mov	r6, r4
   21038:	2e00      	cmp	r6, #0
   2103a:	d003      	beq.n	21044 <_ZN20complex_full_dynamic3app17h2fe4d22426103352E+0xd4>
   2103c:	9c05      	ldr	r4, [sp, #20]
   2103e:	6061      	str	r1, [r4, #4]
   21040:	2001      	movs	r0, #1
   21042:	e009      	b.n	21058 <_ZN20complex_full_dynamic3app17h2fe4d22426103352E+0xe8>
   21044:	a817      	add	r0, sp, #92	@ 0x5c
   21046:	f008 f887 	bl	29158 <_ZN9allow_pin12full_dynamic17unshare_if_shared17hc49b4b2653f8b2c9E>
   2104a:	9c05      	ldr	r4, [sp, #20]
   2104c:	1c60      	adds	r0, r4, #1
   2104e:	2234      	movs	r2, #52	@ 0x34
   21050:	9903      	ldr	r1, [sp, #12]
   21052:	f008 fa5a 	bl	2950a <__aeabi_memcpy>
   21056:	2000      	movs	r0, #0
   21058:	7020      	strb	r0, [r4, #0]
   2105a:	a817      	add	r0, sp, #92	@ 0x5c
   2105c:	f008 f87c 	bl	29158 <_ZN9allow_pin12full_dynamic17unshare_if_shared17hc49b4b2653f8b2c9E>
   21060:	a806      	add	r0, sp, #24
   21062:	f008 f879 	bl	29158 <_ZN9allow_pin12full_dynamic17unshare_if_shared17hc49b4b2653f8b2c9E>
   21066:	b02b      	add	sp, #172	@ 0xac
   21068:	bdf0      	pop	{r4, r5, r6, r7, pc}
   2106a:	d4d4      	bmi.n	21016 <_ZN20complex_full_dynamic3app17h2fe4d22426103352E+0xa6>

0002106c <_ZN20complex_full_dynamic3app17h31ba89e35f9233e7E>:
   2106c:	b5f0      	push	{r4, r5, r6, r7, lr}
   2106e:	af03      	add	r7, sp, #12
   21070:	b09f      	sub	sp, #124	@ 0x7c
   21072:	9004      	str	r0, [sp, #16]
   21074:	ac06      	add	r4, sp, #24
   21076:	2502      	movs	r5, #2
   21078:	7225      	strb	r5, [r4, #8]
   2107a:	340c      	adds	r4, #12
   2107c:	262b      	movs	r6, #43	@ 0x2b
   2107e:	4620      	mov	r0, r4
   21080:	4632      	mov	r2, r6
   21082:	f008 fa42 	bl	2950a <__aeabi_memcpy>
   21086:	a914      	add	r1, sp, #80	@ 0x50
   21088:	2000      	movs	r0, #0
   2108a:	7608      	strb	r0, [r1, #24]
   2108c:	9105      	str	r1, [sp, #20]
   2108e:	720d      	strb	r5, [r1, #8]
   21090:	9019      	str	r0, [sp, #100]	@ 0x64
   21092:	9018      	str	r0, [sp, #96]	@ 0x60
   21094:	9003      	str	r0, [sp, #12]
   21096:	9017      	str	r0, [sp, #92]	@ 0x5c
   21098:	2504      	movs	r5, #4
   2109a:	9600      	str	r6, [sp, #0]
   2109c:	9501      	str	r5, [sp, #4]
   2109e:	a81b      	add	r0, sp, #108	@ 0x6c
   210a0:	4930      	ldr	r1, [pc, #192]	@ (21164 <_ZN20complex_full_dynamic3app17h31ba89e35f9233e7E+0xf8>)
   210a2:	2606      	movs	r6, #6
   210a4:	4632      	mov	r2, r6
   210a6:	4623      	mov	r3, r4
   210a8:	f008 f86a 	bl	29180 <_ZN9allow_pin13dynamic_allow17h8bfd3764c146b81aE>
   210ac:	981b      	ldr	r0, [sp, #108]	@ 0x6c
   210ae:	2802      	cmp	r0, #2
   210b0:	d102      	bne.n	210b8 <_ZN20complex_full_dynamic3app17h31ba89e35f9233e7E+0x4c>
   210b2:	991c      	ldr	r1, [sp, #112]	@ 0x70
   210b4:	4a2b      	ldr	r2, [pc, #172]	@ (21164 <_ZN20complex_full_dynamic3app17h31ba89e35f9233e7E+0xf8>)
   210b6:	e004      	b.n	210c2 <_ZN20complex_full_dynamic3app17h31ba89e35f9233e7E+0x56>
   210b8:	a906      	add	r1, sp, #24
   210ba:	720d      	strb	r5, [r1, #8]
   210bc:	9607      	str	r6, [sp, #28]
   210be:	4a29      	ldr	r2, [pc, #164]	@ (21164 <_ZN20complex_full_dynamic3app17h31ba89e35f9233e7E+0xf8>)
   210c0:	9206      	str	r2, [sp, #24]
   210c2:	9d05      	ldr	r5, [sp, #20]
   210c4:	350c      	adds	r5, #12
   210c6:	2601      	movs	r6, #1
   210c8:	2802      	cmp	r0, #2
   210ca:	d031      	beq.n	21130 <_ZN20complex_full_dynamic3app17h31ba89e35f9233e7E+0xc4>
   210cc:	a814      	add	r0, sp, #80	@ 0x50
   210ce:	7a00      	ldrb	r0, [r0, #8]
   210d0:	2802      	cmp	r0, #2
   210d2:	d111      	bne.n	210f8 <_ZN20complex_full_dynamic3app17h31ba89e35f9233e7E+0x8c>
   210d4:	462b      	mov	r3, r5
   210d6:	2503      	movs	r5, #3
   210d8:	200d      	movs	r0, #13
   210da:	9000      	str	r0, [sp, #0]
   210dc:	9501      	str	r5, [sp, #4]
   210de:	a81b      	add	r0, sp, #108	@ 0x6c
   210e0:	2400      	movs	r4, #0
   210e2:	4611      	mov	r1, r2
   210e4:	4622      	mov	r2, r4
   210e6:	9305      	str	r3, [sp, #20]
   210e8:	f008 f84a 	bl	29180 <_ZN9allow_pin13dynamic_allow17h8bfd3764c146b81aE>
   210ec:	981b      	ldr	r0, [sp, #108]	@ 0x6c
   210ee:	2802      	cmp	r0, #2
   210f0:	d107      	bne.n	21102 <_ZN20complex_full_dynamic3app17h31ba89e35f9233e7E+0x96>
   210f2:	991c      	ldr	r1, [sp, #112]	@ 0x70
   210f4:	4634      	mov	r4, r6
   210f6:	e009      	b.n	2110c <_ZN20complex_full_dynamic3app17h31ba89e35f9233e7E+0xa0>
   210f8:	2103      	movs	r1, #3
   210fa:	4634      	mov	r4, r6
   210fc:	2c00      	cmp	r4, #0
   210fe:	d008      	beq.n	21112 <_ZN20complex_full_dynamic3app17h31ba89e35f9233e7E+0xa6>
   21100:	e016      	b.n	21130 <_ZN20complex_full_dynamic3app17h31ba89e35f9233e7E+0xc4>
   21102:	a814      	add	r0, sp, #80	@ 0x50
   21104:	7205      	strb	r5, [r0, #8]
   21106:	9415      	str	r4, [sp, #84]	@ 0x54
   21108:	4816      	ldr	r0, [pc, #88]	@ (21164 <_ZN20complex_full_dynamic3app17h31ba89e35f9233e7E+0xf8>)
   2110a:	9014      	str	r0, [sp, #80]	@ 0x50
   2110c:	9d05      	ldr	r5, [sp, #20]
   2110e:	2c00      	cmp	r4, #0
   21110:	d10e      	bne.n	21130 <_ZN20complex_full_dynamic3app17h31ba89e35f9233e7E+0xc4>
   21112:	4814      	ldr	r0, [pc, #80]	@ (21164 <_ZN20complex_full_dynamic3app17h31ba89e35f9233e7E+0xf8>)
   21114:	2106      	movs	r1, #6
   21116:	2400      	movs	r4, #0
   21118:	4622      	mov	r2, r4
   2111a:	4623      	mov	r3, r4
   2111c:	df02      	svc	2
   2111e:	287f      	cmp	r0, #127	@ 0x7f
   21120:	d906      	bls.n	21130 <_ZN20complex_full_dynamic3app17h31ba89e35f9233e7E+0xc4>
   21122:	a806      	add	r0, sp, #24
   21124:	f008 f818 	bl	29158 <_ZN9allow_pin12full_dynamic17unshare_if_shared17hc49b4b2653f8b2c9E>
   21128:	a814      	add	r0, sp, #80	@ 0x50
   2112a:	f008 f815 	bl	29158 <_ZN9allow_pin12full_dynamic17unshare_if_shared17hc49b4b2653f8b2c9E>
   2112e:	4626      	mov	r6, r4
   21130:	2e00      	cmp	r6, #0
   21132:	d003      	beq.n	2113c <_ZN20complex_full_dynamic3app17h31ba89e35f9233e7E+0xd0>
   21134:	9c04      	ldr	r4, [sp, #16]
   21136:	6061      	str	r1, [r4, #4]
   21138:	2001      	movs	r0, #1
   2113a:	e009      	b.n	21150 <_ZN20complex_full_dynamic3app17h31ba89e35f9233e7E+0xe4>
   2113c:	a814      	add	r0, sp, #80	@ 0x50
   2113e:	f008 f80b 	bl	29158 <_ZN9allow_pin12full_dynamic17unshare_if_shared17hc49b4b2653f8b2c9E>
   21142:	9c04      	ldr	r4, [sp, #16]
   21144:	1c60      	adds	r0, r4, #1
   21146:	220d      	movs	r2, #13
   21148:	4629      	mov	r1, r5
   2114a:	f008 f9de 	bl	2950a <__aeabi_memcpy>
   2114e:	9803      	ldr	r0, [sp, #12]
   21150:	7020      	strb	r0, [r4, #0]
   21152:	a814      	add	r0, sp, #80	@ 0x50
   21154:	f008 f800 	bl	29158 <_ZN9allow_pin12full_dynamic17unshare_if_shared17hc49b4b2653f8b2c9E>
   21158:	a806      	add	r0, sp, #24
   2115a:	f007 fffd 	bl	29158 <_ZN9allow_pin12full_dynamic17unshare_if_shared17hc49b4b2653f8b2c9E>
   2115e:	b01f      	add	sp, #124	@ 0x7c
   21160:	bdf0      	pop	{r4, r5, r6, r7, pc}
   21162:	46c0      	nop			@ (mov r8, r8)
   21164:	00001465 	.word	0x00001465

00021168 <_ZN20complex_full_dynamic3app17h36889fc5801a7b60E>:
   21168:	b5f0      	push	{r4, r5, r6, r7, lr}
   2116a:	af03      	add	r7, sp, #12
   2116c:	b0a1      	sub	sp, #132	@ 0x84
   2116e:	9004      	str	r0, [sp, #16]
   21170:	ac05      	add	r4, sp, #20
   21172:	2502      	movs	r5, #2
   21174:	7225      	strb	r5, [r4, #8]
   21176:	340c      	adds	r4, #12
   21178:	2636      	movs	r6, #54	@ 0x36
   2117a:	4620      	mov	r0, r4
   2117c:	4632      	mov	r2, r6
   2117e:	f008 f9c4 	bl	2950a <__aeabi_memcpy>
   21182:	a816      	add	r0, sp, #88	@ 0x58
   21184:	2100      	movs	r1, #0
   21186:	7681      	strb	r1, [r0, #26]
   21188:	8301      	strh	r1, [r0, #24]
   2118a:	7205      	strb	r5, [r0, #8]
   2118c:	4605      	mov	r5, r0
   2118e:	911b      	str	r1, [sp, #108]	@ 0x6c
   21190:	911a      	str	r1, [sp, #104]	@ 0x68
   21192:	9102      	str	r1, [sp, #8]
   21194:	9119      	str	r1, [sp, #100]	@ 0x64
   21196:	2004      	movs	r0, #4
   21198:	9600      	str	r6, [sp, #0]
   2119a:	9003      	str	r0, [sp, #12]
   2119c:	9001      	str	r0, [sp, #4]
   2119e:	a81d      	add	r0, sp, #116	@ 0x74
   211a0:	492e      	ldr	r1, [pc, #184]	@ (2125c <_ZN20complex_full_dynamic3app17h36889fc5801a7b60E+0xf4>)
   211a2:	2605      	movs	r6, #5
   211a4:	4632      	mov	r2, r6
   211a6:	4623      	mov	r3, r4
   211a8:	f007 ffea 	bl	29180 <_ZN9allow_pin13dynamic_allow17h8bfd3764c146b81aE>
   211ac:	981d      	ldr	r0, [sp, #116]	@ 0x74
   211ae:	2802      	cmp	r0, #2
   211b0:	d102      	bne.n	211b8 <_ZN20complex_full_dynamic3app17h36889fc5801a7b60E+0x50>
   211b2:	991e      	ldr	r1, [sp, #120]	@ 0x78
   211b4:	4a29      	ldr	r2, [pc, #164]	@ (2125c <_ZN20complex_full_dynamic3app17h36889fc5801a7b60E+0xf4>)
   211b6:	e005      	b.n	211c4 <_ZN20complex_full_dynamic3app17h36889fc5801a7b60E+0x5c>
   211b8:	a905      	add	r1, sp, #20
   211ba:	9a03      	ldr	r2, [sp, #12]
   211bc:	720a      	strb	r2, [r1, #8]
   211be:	9606      	str	r6, [sp, #24]
   211c0:	4a26      	ldr	r2, [pc, #152]	@ (2125c <_ZN20complex_full_dynamic3app17h36889fc5801a7b60E+0xf4>)
   211c2:	9205      	str	r2, [sp, #20]
   211c4:	350c      	adds	r5, #12
   211c6:	9503      	str	r5, [sp, #12]
   211c8:	2601      	movs	r6, #1
   211ca:	2802      	cmp	r0, #2
   211cc:	9d04      	ldr	r5, [sp, #16]
   211ce:	d02e      	beq.n	2122e <_ZN20complex_full_dynamic3app17h36889fc5801a7b60E+0xc6>
   211d0:	a816      	add	r0, sp, #88	@ 0x58
   211d2:	7a00      	ldrb	r0, [r0, #8]
   211d4:	2802      	cmp	r0, #2
   211d6:	d10e      	bne.n	211f6 <_ZN20complex_full_dynamic3app17h36889fc5801a7b60E+0x8e>
   211d8:	2403      	movs	r4, #3
   211da:	200f      	movs	r0, #15
   211dc:	9000      	str	r0, [sp, #0]
   211de:	9401      	str	r4, [sp, #4]
   211e0:	a81d      	add	r0, sp, #116	@ 0x74
   211e2:	4611      	mov	r1, r2
   211e4:	4622      	mov	r2, r4
   211e6:	9b03      	ldr	r3, [sp, #12]
   211e8:	f007 ffca 	bl	29180 <_ZN9allow_pin13dynamic_allow17h8bfd3764c146b81aE>
   211ec:	981d      	ldr	r0, [sp, #116]	@ 0x74
   211ee:	2802      	cmp	r0, #2
   211f0:	d106      	bne.n	21200 <_ZN20complex_full_dynamic3app17h36889fc5801a7b60E+0x98>
   211f2:	991e      	ldr	r1, [sp, #120]	@ 0x78
   211f4:	e000      	b.n	211f8 <_ZN20complex_full_dynamic3app17h36889fc5801a7b60E+0x90>
   211f6:	2103      	movs	r1, #3
   211f8:	4630      	mov	r0, r6
   211fa:	2800      	cmp	r0, #0
   211fc:	d008      	beq.n	21210 <_ZN20complex_full_dynamic3app17h36889fc5801a7b60E+0xa8>
   211fe:	e016      	b.n	2122e <_ZN20complex_full_dynamic3app17h36889fc5801a7b60E+0xc6>
   21200:	a816      	add	r0, sp, #88	@ 0x58
   21202:	7204      	strb	r4, [r0, #8]
   21204:	9417      	str	r4, [sp, #92]	@ 0x5c
   21206:	4815      	ldr	r0, [pc, #84]	@ (2125c <_ZN20complex_full_dynamic3app17h36889fc5801a7b60E+0xf4>)
   21208:	9016      	str	r0, [sp, #88]	@ 0x58
   2120a:	9802      	ldr	r0, [sp, #8]
   2120c:	2800      	cmp	r0, #0
   2120e:	d10e      	bne.n	2122e <_ZN20complex_full_dynamic3app17h36889fc5801a7b60E+0xc6>
   21210:	4812      	ldr	r0, [pc, #72]	@ (2125c <_ZN20complex_full_dynamic3app17h36889fc5801a7b60E+0xf4>)
   21212:	2105      	movs	r1, #5
   21214:	2203      	movs	r2, #3
   21216:	2400      	movs	r4, #0
   21218:	4623      	mov	r3, r4
   2121a:	df02      	svc	2
   2121c:	287f      	cmp	r0, #127	@ 0x7f
   2121e:	d906      	bls.n	2122e <_ZN20complex_full_dynamic3app17h36889fc5801a7b60E+0xc6>
   21220:	a805      	add	r0, sp, #20
   21222:	f007 ff99 	bl	29158 <_ZN9allow_pin12full_dynamic17unshare_if_shared17hc49b4b2653f8b2c9E>
   21226:	a816      	add	r0, sp, #88	@ 0x58
   21228:	f007 ff96 	bl	29158 <_ZN9allow_pin12full_dynamic17unshare_if_shared17hc49b4b2653f8b2c9E>
   2122c:	4626      	mov	r6, r4
   2122e:	2e00      	cmp	r6, #0
   21230:	d002      	beq.n	21238 <_ZN20complex_full_dynamic3app17h36889fc5801a7b60E+0xd0>
   21232:	6069      	str	r1, [r5, #4]
   21234:	2001      	movs	r0, #1
   21236:	e008      	b.n	2124a <_ZN20complex_full_dynamic3app17h36889fc5801a7b60E+0xe2>
   21238:	a816      	add	r0, sp, #88	@ 0x58
   2123a:	f007 ff8d 	bl	29158 <_ZN9allow_pin12full_dynamic17unshare_if_shared17hc49b4b2653f8b2c9E>
   2123e:	1c68      	adds	r0, r5, #1
   21240:	220f      	movs	r2, #15
   21242:	9903      	ldr	r1, [sp, #12]
   21244:	f008 f961 	bl	2950a <__aeabi_memcpy>
   21248:	2000      	movs	r0, #0
   2124a:	7028      	strb	r0, [r5, #0]
   2124c:	a816      	add	r0, sp, #88	@ 0x58
   2124e:	f007 ff83 	bl	29158 <_ZN9allow_pin12full_dynamic17unshare_if_shared17hc49b4b2653f8b2c9E>
   21252:	a805      	add	r0, sp, #20
   21254:	f007 ff80 	bl	29158 <_ZN9allow_pin12full_dynamic17unshare_if_shared17hc49b4b2653f8b2c9E>
   21258:	b021      	add	sp, #132	@ 0x84
   2125a:	bdf0      	pop	{r4, r5, r6, r7, pc}
   2125c:	00000653 	.word	0x00000653

00021260 <_ZN20complex_full_dynamic3app17h3906c371e101182bE>:
   21260:	b5f0      	push	{r4, r5, r6, r7, lr}
   21262:	af03      	add	r7, sp, #12
   21264:	b0af      	sub	sp, #188	@ 0xbc
   21266:	9005      	str	r0, [sp, #20]
   21268:	ae06      	add	r6, sp, #24
   2126a:	2002      	movs	r0, #2
   2126c:	9004      	str	r0, [sp, #16]
   2126e:	7230      	strb	r0, [r6, #8]
   21270:	360c      	adds	r6, #12
   21272:	2531      	movs	r5, #49	@ 0x31
   21274:	4630      	mov	r0, r6
   21276:	462a      	mov	r2, r5
   21278:	f008 f947 	bl	2950a <__aeabi_memcpy>
   2127c:	ac16      	add	r4, sp, #88	@ 0x58
   2127e:	4620      	mov	r0, r4
   21280:	300c      	adds	r0, #12
   21282:	2148      	movs	r1, #72	@ 0x48
   21284:	9003      	str	r0, [sp, #12]
   21286:	9102      	str	r1, [sp, #8]
   21288:	f007 ff92 	bl	291b0 <__aeabi_memclr4>
   2128c:	9804      	ldr	r0, [sp, #16]
   2128e:	7220      	strb	r0, [r4, #8]
   21290:	2404      	movs	r4, #4
   21292:	9500      	str	r5, [sp, #0]
   21294:	9401      	str	r4, [sp, #4]
   21296:	a82b      	add	r0, sp, #172	@ 0xac
   21298:	4d2d      	ldr	r5, [pc, #180]	@ (21350 <_ZN20complex_full_dynamic3app17h3906c371e101182bE+0xf0>)
   2129a:	4629      	mov	r1, r5
   2129c:	4622      	mov	r2, r4
   2129e:	4633      	mov	r3, r6
   212a0:	f007 ff6e 	bl	29180 <_ZN9allow_pin13dynamic_allow17h8bfd3764c146b81aE>
   212a4:	982b      	ldr	r0, [sp, #172]	@ 0xac
   212a6:	2802      	cmp	r0, #2
   212a8:	d102      	bne.n	212b0 <_ZN20complex_full_dynamic3app17h3906c371e101182bE+0x50>
   212aa:	462e      	mov	r6, r5
   212ac:	992c      	ldr	r1, [sp, #176]	@ 0xb0
   212ae:	e004      	b.n	212ba <_ZN20complex_full_dynamic3app17h3906c371e101182bE+0x5a>
   212b0:	a906      	add	r1, sp, #24
   212b2:	720c      	strb	r4, [r1, #8]
   212b4:	9407      	str	r4, [sp, #28]
   212b6:	462e      	mov	r6, r5
   212b8:	9506      	str	r5, [sp, #24]
   212ba:	2501      	movs	r5, #1
   212bc:	2802      	cmp	r0, #2
   212be:	d02d      	beq.n	2131c <_ZN20complex_full_dynamic3app17h3906c371e101182bE+0xbc>
   212c0:	a816      	add	r0, sp, #88	@ 0x58
   212c2:	7a00      	ldrb	r0, [r0, #8]
   212c4:	2802      	cmp	r0, #2
   212c6:	d10e      	bne.n	212e6 <_ZN20complex_full_dynamic3app17h3906c371e101182bE+0x86>
   212c8:	2403      	movs	r4, #3
   212ca:	9802      	ldr	r0, [sp, #8]
   212cc:	9000      	str	r0, [sp, #0]
   212ce:	9401      	str	r4, [sp, #4]
   212d0:	a82b      	add	r0, sp, #172	@ 0xac
   212d2:	4631      	mov	r1, r6
   212d4:	4622      	mov	r2, r4
   212d6:	9b03      	ldr	r3, [sp, #12]
   212d8:	f007 ff52 	bl	29180 <_ZN9allow_pin13dynamic_allow17h8bfd3764c146b81aE>
   212dc:	982b      	ldr	r0, [sp, #172]	@ 0xac
   212de:	2802      	cmp	r0, #2
   212e0:	d106      	bne.n	212f0 <_ZN20complex_full_dynamic3app17h3906c371e101182bE+0x90>
   212e2:	992c      	ldr	r1, [sp, #176]	@ 0xb0
   212e4:	e000      	b.n	212e8 <_ZN20complex_full_dynamic3app17h3906c371e101182bE+0x88>
   212e6:	2103      	movs	r1, #3
   212e8:	4628      	mov	r0, r5
   212ea:	2800      	cmp	r0, #0
   212ec:	d007      	beq.n	212fe <_ZN20complex_full_dynamic3app17h3906c371e101182bE+0x9e>
   212ee:	e015      	b.n	2131c <_ZN20complex_full_dynamic3app17h3906c371e101182bE+0xbc>
   212f0:	a816      	add	r0, sp, #88	@ 0x58
   212f2:	7204      	strb	r4, [r0, #8]
   212f4:	9417      	str	r4, [sp, #92]	@ 0x5c
   212f6:	9616      	str	r6, [sp, #88]	@ 0x58
   212f8:	2000      	movs	r0, #0
   212fa:	2800      	cmp	r0, #0
   212fc:	d10e      	bne.n	2131c <_ZN20complex_full_dynamic3app17h3906c371e101182bE+0xbc>
   212fe:	4814      	ldr	r0, [pc, #80]	@ (21350 <_ZN20complex_full_dynamic3app17h3906c371e101182bE+0xf0>)
   21300:	2104      	movs	r1, #4
   21302:	2203      	movs	r2, #3
   21304:	2400      	movs	r4, #0
   21306:	4623      	mov	r3, r4
   21308:	df02      	svc	2
   2130a:	287f      	cmp	r0, #127	@ 0x7f
   2130c:	d906      	bls.n	2131c <_ZN20complex_full_dynamic3app17h3906c371e101182bE+0xbc>
   2130e:	a806      	add	r0, sp, #24
   21310:	f007 ff22 	bl	29158 <_ZN9allow_pin12full_dynamic17unshare_if_shared17hc49b4b2653f8b2c9E>
   21314:	a816      	add	r0, sp, #88	@ 0x58
   21316:	f007 ff1f 	bl	29158 <_ZN9allow_pin12full_dynamic17unshare_if_shared17hc49b4b2653f8b2c9E>
   2131a:	4625      	mov	r5, r4
   2131c:	2d00      	cmp	r5, #0
   2131e:	d003      	beq.n	21328 <_ZN20complex_full_dynamic3app17h3906c371e101182bE+0xc8>
   21320:	9c05      	ldr	r4, [sp, #20]
   21322:	6061      	str	r1, [r4, #4]
   21324:	2001      	movs	r0, #1
   21326:	e009      	b.n	2133c <_ZN20complex_full_dynamic3app17h3906c371e101182bE+0xdc>
   21328:	a816      	add	r0, sp, #88	@ 0x58
   2132a:	f007 ff15 	bl	29158 <_ZN9allow_pin12full_dynamic17unshare_if_shared17hc49b4b2653f8b2c9E>
   2132e:	9c05      	ldr	r4, [sp, #20]
   21330:	1c60      	adds	r0, r4, #1
   21332:	2248      	movs	r2, #72	@ 0x48
   21334:	9903      	ldr	r1, [sp, #12]
   21336:	f008 f8e8 	bl	2950a <__aeabi_memcpy>
   2133a:	2000      	movs	r0, #0
   2133c:	7020      	strb	r0, [r4, #0]
   2133e:	a816      	add	r0, sp, #88	@ 0x58
   21340:	f007 ff0a 	bl	29158 <_ZN9allow_pin12full_dynamic17unshare_if_shared17hc49b4b2653f8b2c9E>
   21344:	a806      	add	r0, sp, #24
   21346:	f007 ff07 	bl	29158 <_ZN9allow_pin12full_dynamic17unshare_if_shared17hc49b4b2653f8b2c9E>
   2134a:	b02f      	add	sp, #188	@ 0xbc
   2134c:	bdf0      	pop	{r4, r5, r6, r7, pc}
   2134e:	46c0      	nop			@ (mov r8, r8)
   21350:	0000180e 	.word	0x0000180e

00021354 <_ZN20complex_full_dynamic3app17h39b6f8097a1089fdE>:
   21354:	b5f0      	push	{r4, r5, r6, r7, lr}
   21356:	af03      	add	r7, sp, #12
   21358:	b0a7      	sub	sp, #156	@ 0x9c
   2135a:	9004      	str	r0, [sp, #16]
   2135c:	ac06      	add	r4, sp, #24
   2135e:	2602      	movs	r6, #2
   21360:	7226      	strb	r6, [r4, #8]
   21362:	340c      	adds	r4, #12
   21364:	253f      	movs	r5, #63	@ 0x3f
   21366:	4620      	mov	r0, r4
   21368:	462a      	mov	r2, r5
   2136a:	f008 f8ce 	bl	2950a <__aeabi_memcpy>
   2136e:	a819      	add	r0, sp, #100	@ 0x64
   21370:	9005      	str	r0, [sp, #20]
   21372:	7206      	strb	r6, [r0, #8]
   21374:	2600      	movs	r6, #0
   21376:	9622      	str	r6, [sp, #136]	@ 0x88
   21378:	9621      	str	r6, [sp, #132]	@ 0x84
   2137a:	9620      	str	r6, [sp, #128]	@ 0x80
   2137c:	961f      	str	r6, [sp, #124]	@ 0x7c
   2137e:	961e      	str	r6, [sp, #120]	@ 0x78
   21380:	961d      	str	r6, [sp, #116]	@ 0x74
   21382:	961c      	str	r6, [sp, #112]	@ 0x70
   21384:	2004      	movs	r0, #4
   21386:	9500      	str	r5, [sp, #0]
   21388:	9003      	str	r0, [sp, #12]
   2138a:	9001      	str	r0, [sp, #4]
   2138c:	a823      	add	r0, sp, #140	@ 0x8c
   2138e:	4931      	ldr	r1, [pc, #196]	@ (21454 <_ZN20complex_full_dynamic3app17h39b6f8097a1089fdE+0x100>)
   21390:	2505      	movs	r5, #5
   21392:	462a      	mov	r2, r5
   21394:	4623      	mov	r3, r4
   21396:	f007 fef3 	bl	29180 <_ZN9allow_pin13dynamic_allow17h8bfd3764c146b81aE>
   2139a:	9823      	ldr	r0, [sp, #140]	@ 0x8c
   2139c:	2802      	cmp	r0, #2
   2139e:	d102      	bne.n	213a6 <_ZN20complex_full_dynamic3app17h39b6f8097a1089fdE+0x52>
   213a0:	9924      	ldr	r1, [sp, #144]	@ 0x90
   213a2:	4a2c      	ldr	r2, [pc, #176]	@ (21454 <_ZN20complex_full_dynamic3app17h39b6f8097a1089fdE+0x100>)
   213a4:	e005      	b.n	213b2 <_ZN20complex_full_dynamic3app17h39b6f8097a1089fdE+0x5e>
   213a6:	a906      	add	r1, sp, #24
   213a8:	9a03      	ldr	r2, [sp, #12]
   213aa:	720a      	strb	r2, [r1, #8]
   213ac:	9507      	str	r5, [sp, #28]
   213ae:	4a29      	ldr	r2, [pc, #164]	@ (21454 <_ZN20complex_full_dynamic3app17h39b6f8097a1089fdE+0x100>)
   213b0:	9206      	str	r2, [sp, #24]
   213b2:	9d05      	ldr	r5, [sp, #20]
   213b4:	350c      	adds	r5, #12
   213b6:	2401      	movs	r4, #1
   213b8:	2802      	cmp	r0, #2
   213ba:	d032      	beq.n	21422 <_ZN20complex_full_dynamic3app17h39b6f8097a1089fdE+0xce>
   213bc:	a819      	add	r0, sp, #100	@ 0x64
   213be:	7a00      	ldrb	r0, [r0, #8]
   213c0:	2103      	movs	r1, #3
   213c2:	2802      	cmp	r0, #2
   213c4:	d111      	bne.n	213ea <_ZN20complex_full_dynamic3app17h39b6f8097a1089fdE+0x96>
   213c6:	201c      	movs	r0, #28
   213c8:	9000      	str	r0, [sp, #0]
   213ca:	9103      	str	r1, [sp, #12]
   213cc:	9101      	str	r1, [sp, #4]
   213ce:	a823      	add	r0, sp, #140	@ 0x8c
   213d0:	462b      	mov	r3, r5
   213d2:	2509      	movs	r5, #9
   213d4:	4611      	mov	r1, r2
   213d6:	462a      	mov	r2, r5
   213d8:	9305      	str	r3, [sp, #20]
   213da:	f007 fed1 	bl	29180 <_ZN9allow_pin13dynamic_allow17h8bfd3764c146b81aE>
   213de:	9823      	ldr	r0, [sp, #140]	@ 0x8c
   213e0:	2802      	cmp	r0, #2
   213e2:	d106      	bne.n	213f2 <_ZN20complex_full_dynamic3app17h39b6f8097a1089fdE+0x9e>
   213e4:	9924      	ldr	r1, [sp, #144]	@ 0x90
   213e6:	4626      	mov	r6, r4
   213e8:	e009      	b.n	213fe <_ZN20complex_full_dynamic3app17h39b6f8097a1089fdE+0xaa>
   213ea:	4626      	mov	r6, r4
   213ec:	2e00      	cmp	r6, #0
   213ee:	d009      	beq.n	21404 <_ZN20complex_full_dynamic3app17h39b6f8097a1089fdE+0xb0>
   213f0:	e017      	b.n	21422 <_ZN20complex_full_dynamic3app17h39b6f8097a1089fdE+0xce>
   213f2:	a819      	add	r0, sp, #100	@ 0x64
   213f4:	9903      	ldr	r1, [sp, #12]
   213f6:	7201      	strb	r1, [r0, #8]
   213f8:	951a      	str	r5, [sp, #104]	@ 0x68
   213fa:	4816      	ldr	r0, [pc, #88]	@ (21454 <_ZN20complex_full_dynamic3app17h39b6f8097a1089fdE+0x100>)
   213fc:	9019      	str	r0, [sp, #100]	@ 0x64
   213fe:	9d05      	ldr	r5, [sp, #20]
   21400:	2e00      	cmp	r6, #0
   21402:	d10e      	bne.n	21422 <_ZN20complex_full_dynamic3app17h39b6f8097a1089fdE+0xce>
   21404:	4813      	ldr	r0, [pc, #76]	@ (21454 <_ZN20complex_full_dynamic3app17h39b6f8097a1089fdE+0x100>)
   21406:	2105      	movs	r1, #5
   21408:	2209      	movs	r2, #9
   2140a:	2600      	movs	r6, #0
   2140c:	4633      	mov	r3, r6
   2140e:	df02      	svc	2
   21410:	287f      	cmp	r0, #127	@ 0x7f
   21412:	d906      	bls.n	21422 <_ZN20complex_full_dynamic3app17h39b6f8097a1089fdE+0xce>
   21414:	a806      	add	r0, sp, #24
   21416:	f007 fe9f 	bl	29158 <_ZN9allow_pin12full_dynamic17unshare_if_shared17hc49b4b2653f8b2c9E>
   2141a:	a819      	add	r0, sp, #100	@ 0x64
   2141c:	f007 fe9c 	bl	29158 <_ZN9allow_pin12full_dynamic17unshare_if_shared17hc49b4b2653f8b2c9E>
   21420:	4634      	mov	r4, r6
   21422:	2c00      	cmp	r4, #0
   21424:	d003      	beq.n	2142e <_ZN20complex_full_dynamic3app17h39b6f8097a1089fdE+0xda>
   21426:	9c04      	ldr	r4, [sp, #16]
   21428:	6061      	str	r1, [r4, #4]
   2142a:	2001      	movs	r0, #1
   2142c:	e009      	b.n	21442 <_ZN20complex_full_dynamic3app17h39b6f8097a1089fdE+0xee>
   2142e:	a819      	add	r0, sp, #100	@ 0x64
   21430:	f007 fe92 	bl	29158 <_ZN9allow_pin12full_dynamic17unshare_if_shared17hc49b4b2653f8b2c9E>
   21434:	9c04      	ldr	r4, [sp, #16]
   21436:	1c60      	adds	r0, r4, #1
   21438:	221c      	movs	r2, #28
   2143a:	4629      	mov	r1, r5
   2143c:	f008 f865 	bl	2950a <__aeabi_memcpy>
   21440:	2000      	movs	r0, #0
   21442:	7020      	strb	r0, [r4, #0]
   21444:	a819      	add	r0, sp, #100	@ 0x64
   21446:	f007 fe87 	bl	29158 <_ZN9allow_pin12full_dynamic17unshare_if_shared17hc49b4b2653f8b2c9E>
   2144a:	a806      	add	r0, sp, #24
   2144c:	f007 fe84 	bl	29158 <_ZN9allow_pin12full_dynamic17unshare_if_shared17hc49b4b2653f8b2c9E>
   21450:	b027      	add	sp, #156	@ 0x9c
   21452:	bdf0      	pop	{r4, r5, r6, r7, pc}
   21454:	00001694 	.word	0x00001694

00021458 <_ZN20complex_full_dynamic3app17h3e93f8e6cc49fb98E>:
   21458:	b5f0      	push	{r4, r5, r6, r7, lr}
   2145a:	af03      	add	r7, sp, #12
   2145c:	b0a5      	sub	sp, #148	@ 0x94
   2145e:	9005      	str	r0, [sp, #20]
   21460:	ad06      	add	r5, sp, #24
   21462:	2002      	movs	r0, #2
   21464:	9004      	str	r0, [sp, #16]
   21466:	7228      	strb	r0, [r5, #8]
   21468:	350c      	adds	r5, #12
   2146a:	2611      	movs	r6, #17
   2146c:	4628      	mov	r0, r5
   2146e:	4632      	mov	r2, r6
   21470:	f008 f84b 	bl	2950a <__aeabi_memcpy>
   21474:	ac0e      	add	r4, sp, #56	@ 0x38
   21476:	4620      	mov	r0, r4
   21478:	300c      	adds	r0, #12
   2147a:	213f      	movs	r1, #63	@ 0x3f
   2147c:	9003      	str	r0, [sp, #12]
   2147e:	9102      	str	r1, [sp, #8]
   21480:	f007 fe96 	bl	291b0 <__aeabi_memclr4>
   21484:	9804      	ldr	r0, [sp, #16]
   21486:	7220      	strb	r0, [r4, #8]
   21488:	2004      	movs	r0, #4
   2148a:	9600      	str	r6, [sp, #0]
   2148c:	9004      	str	r0, [sp, #16]
   2148e:	9001      	str	r0, [sp, #4]
   21490:	20cb      	movs	r0, #203	@ 0xcb
   21492:	0104      	lsls	r4, r0, #4
   21494:	a821      	add	r0, sp, #132	@ 0x84
   21496:	2607      	movs	r6, #7
   21498:	4621      	mov	r1, r4
   2149a:	4632      	mov	r2, r6
   2149c:	462b      	mov	r3, r5
   2149e:	f007 fe6f 	bl	29180 <_ZN9allow_pin13dynamic_allow17h8bfd3764c146b81aE>
   214a2:	9821      	ldr	r0, [sp, #132]	@ 0x84
   214a4:	2802      	cmp	r0, #2
   214a6:	d101      	bne.n	214ac <_ZN20complex_full_dynamic3app17h3e93f8e6cc49fb98E+0x54>
   214a8:	9922      	ldr	r1, [sp, #136]	@ 0x88
   214aa:	e004      	b.n	214b6 <_ZN20complex_full_dynamic3app17h3e93f8e6cc49fb98E+0x5e>
   214ac:	a906      	add	r1, sp, #24
   214ae:	9a04      	ldr	r2, [sp, #16]
   214b0:	720a      	strb	r2, [r1, #8]
   214b2:	9607      	str	r6, [sp, #28]
   214b4:	9406      	str	r4, [sp, #24]
   214b6:	4623      	mov	r3, r4
   214b8:	2501      	movs	r5, #1
   214ba:	2802      	cmp	r0, #2
   214bc:	d034      	beq.n	21528 <_ZN20complex_full_dynamic3app17h3e93f8e6cc49fb98E+0xd0>
   214be:	a80e      	add	r0, sp, #56	@ 0x38
   214c0:	7a00      	ldrb	r0, [r0, #8]
   214c2:	2802      	cmp	r0, #2
   214c4:	d114      	bne.n	214f0 <_ZN20complex_full_dynamic3app17h3e93f8e6cc49fb98E+0x98>
   214c6:	2603      	movs	r6, #3
   214c8:	9802      	ldr	r0, [sp, #8]
   214ca:	9000      	str	r0, [sp, #0]
   214cc:	9601      	str	r6, [sp, #4]
   214ce:	a821      	add	r0, sp, #132	@ 0x84
   214d0:	2404      	movs	r4, #4
   214d2:	4619      	mov	r1, r3
   214d4:	4622      	mov	r2, r4
   214d6:	9304      	str	r3, [sp, #16]
   214d8:	9b03      	ldr	r3, [sp, #12]
   214da:	f007 fe51 	bl	29180 <_ZN9allow_pin13dynamic_allow17h8bfd3764c146b81aE>
   214de:	9821      	ldr	r0, [sp, #132]	@ 0x84
   214e0:	2802      	cmp	r0, #2
   214e2:	d10a      	bne.n	214fa <_ZN20complex_full_dynamic3app17h3e93f8e6cc49fb98E+0xa2>
   214e4:	9922      	ldr	r1, [sp, #136]	@ 0x88
   214e6:	4628      	mov	r0, r5
   214e8:	9b04      	ldr	r3, [sp, #16]
   214ea:	2800      	cmp	r0, #0
   214ec:	d00d      	beq.n	2150a <_ZN20complex_full_dynamic3app17h3e93f8e6cc49fb98E+0xb2>
   214ee:	e01b      	b.n	21528 <_ZN20complex_full_dynamic3app17h3e93f8e6cc49fb98E+0xd0>
   214f0:	2103      	movs	r1, #3
   214f2:	4628      	mov	r0, r5
   214f4:	2800      	cmp	r0, #0
   214f6:	d008      	beq.n	2150a <_ZN20complex_full_dynamic3app17h3e93f8e6cc49fb98E+0xb2>
   214f8:	e016      	b.n	21528 <_ZN20complex_full_dynamic3app17h3e93f8e6cc49fb98E+0xd0>
   214fa:	a80e      	add	r0, sp, #56	@ 0x38
   214fc:	7206      	strb	r6, [r0, #8]
   214fe:	940f      	str	r4, [sp, #60]	@ 0x3c
   21500:	9b04      	ldr	r3, [sp, #16]
   21502:	930e      	str	r3, [sp, #56]	@ 0x38
   21504:	2000      	movs	r0, #0
   21506:	2800      	cmp	r0, #0
   21508:	d10e      	bne.n	21528 <_ZN20complex_full_dynamic3app17h3e93f8e6cc49fb98E+0xd0>
   2150a:	2107      	movs	r1, #7
   2150c:	2204      	movs	r2, #4
   2150e:	2400      	movs	r4, #0
   21510:	4618      	mov	r0, r3
   21512:	4623      	mov	r3, r4
   21514:	df02      	svc	2
   21516:	287f      	cmp	r0, #127	@ 0x7f
   21518:	d906      	bls.n	21528 <_ZN20complex_full_dynamic3app17h3e93f8e6cc49fb98E+0xd0>
   2151a:	a806      	add	r0, sp, #24
   2151c:	f007 fe1c 	bl	29158 <_ZN9allow_pin12full_dynamic17unshare_if_shared17hc49b4b2653f8b2c9E>
   21520:	a80e      	add	r0, sp, #56	@ 0x38
   21522:	f007 fe19 	bl	29158 <_ZN9allow_pin12full_dynamic17unshare_if_shared17hc49b4b2653f8b2c9E>
   21526:	4625      	mov	r5, r4
   21528:	2d00      	cmp	r5, #0
   2152a:	d003      	beq.n	21534 <_ZN20complex_full_dynamic3app17h3e93f8e6cc49fb98E+0xdc>
   2152c:	9c05      	ldr	r4, [sp, #20]
   2152e:	6061      	str	r1, [r4, #4]
   21530:	2001      	movs	r0, #1
   21532:	e009      	b.n	21548 <_ZN20complex_full_dynamic3app17h3e93f8e6cc49fb98E+0xf0>
   21534:	a80e      	add	r0, sp, #56	@ 0x38
   21536:	f007 fe0f 	bl	29158 <_ZN9allow_pin12full_dynamic17unshare_if_shared17hc49b4b2653f8b2c9E>
   2153a:	9c05      	ldr	r4, [sp, #20]
   2153c:	1c60      	adds	r0, r4, #1
   2153e:	223f      	movs	r2, #63	@ 0x3f
   21540:	9903      	ldr	r1, [sp, #12]
   21542:	f007 ffe2 	bl	2950a <__aeabi_memcpy>
   21546:	2000      	movs	r0, #0
   21548:	7020      	strb	r0, [r4, #0]
   2154a:	a80e      	add	r0, sp, #56	@ 0x38
   2154c:	f007 fe04 	bl	29158 <_ZN9allow_pin12full_dynamic17unshare_if_shared17hc49b4b2653f8b2c9E>
   21550:	a806      	add	r0, sp, #24
   21552:	f007 fe01 	bl	29158 <_ZN9allow_pin12full_dynamic17unshare_if_shared17hc49b4b2653f8b2c9E>
   21556:	b025      	add	sp, #148	@ 0x94
   21558:	bdf0      	pop	{r4, r5, r6, r7, pc}

0002155a <_ZN20complex_full_dynamic3app17h435b977c35c10458E>:
   2155a:	b5f0      	push	{r4, r5, r6, r7, lr}
   2155c:	af03      	add	r7, sp, #12
   2155e:	b0b5      	sub	sp, #212	@ 0xd4
   21560:	9006      	str	r0, [sp, #24]
   21562:	ac07      	add	r4, sp, #28
   21564:	2002      	movs	r0, #2
   21566:	9005      	str	r0, [sp, #20]
   21568:	7220      	strb	r0, [r4, #8]
   2156a:	340c      	adds	r4, #12
   2156c:	2563      	movs	r5, #99	@ 0x63
   2156e:	4620      	mov	r0, r4
   21570:	462a      	mov	r2, r5
   21572:	f007 ffca 	bl	2950a <__aeabi_memcpy>
   21576:	ae23      	add	r6, sp, #140	@ 0x8c
   21578:	4630      	mov	r0, r6
   2157a:	300c      	adds	r0, #12
   2157c:	212c      	movs	r1, #44	@ 0x2c
   2157e:	9004      	str	r0, [sp, #16]
   21580:	9103      	str	r1, [sp, #12]
   21582:	f007 fe15 	bl	291b0 <__aeabi_memclr4>
   21586:	9805      	ldr	r0, [sp, #20]
   21588:	7230      	strb	r0, [r6, #8]
   2158a:	2004      	movs	r0, #4
   2158c:	9500      	str	r5, [sp, #0]
   2158e:	9005      	str	r0, [sp, #20]
   21590:	9001      	str	r0, [sp, #4]
   21592:	a831      	add	r0, sp, #196	@ 0xc4
   21594:	2518      	movs	r5, #24
   21596:	2605      	movs	r6, #5
   21598:	4629      	mov	r1, r5
   2159a:	4632      	mov	r2, r6
   2159c:	4623      	mov	r3, r4
   2159e:	f007 fdef 	bl	29180 <_ZN9allow_pin13dynamic_allow17h8bfd3764c146b81aE>
   215a2:	9831      	ldr	r0, [sp, #196]	@ 0xc4
   215a4:	2802      	cmp	r0, #2
   215a6:	d101      	bne.n	215ac <_ZN20complex_full_dynamic3app17h435b977c35c10458E+0x52>
   215a8:	9932      	ldr	r1, [sp, #200]	@ 0xc8
   215aa:	e004      	b.n	215b6 <_ZN20complex_full_dynamic3app17h435b977c35c10458E+0x5c>
   215ac:	a907      	add	r1, sp, #28
   215ae:	9a05      	ldr	r2, [sp, #20]
   215b0:	720a      	strb	r2, [r1, #8]
   215b2:	9608      	str	r6, [sp, #32]
   215b4:	9507      	str	r5, [sp, #28]
   215b6:	2601      	movs	r6, #1
   215b8:	2802      	cmp	r0, #2
   215ba:	d02e      	beq.n	2161a <_ZN20complex_full_dynamic3app17h435b977c35c10458E+0xc0>
   215bc:	a823      	add	r0, sp, #140	@ 0x8c
   215be:	7a00      	ldrb	r0, [r0, #8]
   215c0:	2802      	cmp	r0, #2
   215c2:	d10f      	bne.n	215e4 <_ZN20complex_full_dynamic3app17h435b977c35c10458E+0x8a>
   215c4:	2403      	movs	r4, #3
   215c6:	9803      	ldr	r0, [sp, #12]
   215c8:	9000      	str	r0, [sp, #0]
   215ca:	9401      	str	r4, [sp, #4]
   215cc:	a831      	add	r0, sp, #196	@ 0xc4
   215ce:	2518      	movs	r5, #24
   215d0:	4629      	mov	r1, r5
   215d2:	4622      	mov	r2, r4
   215d4:	9b04      	ldr	r3, [sp, #16]
   215d6:	f007 fdd3 	bl	29180 <_ZN9allow_pin13dynamic_allow17h8bfd3764c146b81aE>
   215da:	9831      	ldr	r0, [sp, #196]	@ 0xc4
   215dc:	2802      	cmp	r0, #2
   215de:	d106      	bne.n	215ee <_ZN20complex_full_dynamic3app17h435b977c35c10458E+0x94>
   215e0:	9932      	ldr	r1, [sp, #200]	@ 0xc8
   215e2:	e000      	b.n	215e6 <_ZN20complex_full_dynamic3app17h435b977c35c10458E+0x8c>
   215e4:	2103      	movs	r1, #3
   215e6:	4630      	mov	r0, r6
   215e8:	2800      	cmp	r0, #0
   215ea:	d007      	beq.n	215fc <_ZN20complex_full_dynamic3app17h435b977c35c10458E+0xa2>
   215ec:	e015      	b.n	2161a <_ZN20complex_full_dynamic3app17h435b977c35c10458E+0xc0>
   215ee:	a823      	add	r0, sp, #140	@ 0x8c
   215f0:	7204      	strb	r4, [r0, #8]
   215f2:	9424      	str	r4, [sp, #144]	@ 0x90
   215f4:	9523      	str	r5, [sp, #140]	@ 0x8c
   215f6:	2000      	movs	r0, #0
   215f8:	2800      	cmp	r0, #0
   215fa:	d10e      	bne.n	2161a <_ZN20complex_full_dynamic3app17h435b977c35c10458E+0xc0>
   215fc:	2018      	movs	r0, #24
   215fe:	2105      	movs	r1, #5
   21600:	2203      	movs	r2, #3
   21602:	2400      	movs	r4, #0
   21604:	4623      	mov	r3, r4
   21606:	df02      	svc	2
   21608:	287f      	cmp	r0, #127	@ 0x7f
   2160a:	d906      	bls.n	2161a <_ZN20complex_full_dynamic3app17h435b977c35c10458E+0xc0>
   2160c:	a807      	add	r0, sp, #28
   2160e:	f007 fda3 	bl	29158 <_ZN9allow_pin12full_dynamic17unshare_if_shared17hc49b4b2653f8b2c9E>
   21612:	a823      	add	r0, sp, #140	@ 0x8c
   21614:	f007 fda0 	bl	29158 <_ZN9allow_pin12full_dynamic17unshare_if_shared17hc49b4b2653f8b2c9E>
   21618:	4626      	mov	r6, r4
   2161a:	2e00      	cmp	r6, #0
   2161c:	d003      	beq.n	21626 <_ZN20complex_full_dynamic3app17h435b977c35c10458E+0xcc>
   2161e:	9c06      	ldr	r4, [sp, #24]
   21620:	6061      	str	r1, [r4, #4]
   21622:	2001      	movs	r0, #1
   21624:	e009      	b.n	2163a <_ZN20complex_full_dynamic3app17h435b977c35c10458E+0xe0>
   21626:	a823      	add	r0, sp, #140	@ 0x8c
   21628:	f007 fd96 	bl	29158 <_ZN9allow_pin12full_dynamic17unshare_if_shared17hc49b4b2653f8b2c9E>
   2162c:	9c06      	ldr	r4, [sp, #24]
   2162e:	1c60      	adds	r0, r4, #1
   21630:	222c      	movs	r2, #44	@ 0x2c
   21632:	9904      	ldr	r1, [sp, #16]
   21634:	f007 ff69 	bl	2950a <__aeabi_memcpy>
   21638:	2000      	movs	r0, #0
   2163a:	7020      	strb	r0, [r4, #0]
   2163c:	a823      	add	r0, sp, #140	@ 0x8c
   2163e:	f007 fd8b 	bl	29158 <_ZN9allow_pin12full_dynamic17unshare_if_shared17hc49b4b2653f8b2c9E>
   21642:	a807      	add	r0, sp, #28
   21644:	f007 fd88 	bl	29158 <_ZN9allow_pin12full_dynamic17unshare_if_shared17hc49b4b2653f8b2c9E>
   21648:	b035      	add	sp, #212	@ 0xd4
   2164a:	bdf0      	pop	{r4, r5, r6, r7, pc}

0002164c <_ZN20complex_full_dynamic3app17h4369329bf5d6580aE>:
   2164c:	b5f0      	push	{r4, r5, r6, r7, lr}
   2164e:	af03      	add	r7, sp, #12
   21650:	b0a9      	sub	sp, #164	@ 0xa4
   21652:	9005      	str	r0, [sp, #20]
   21654:	ae06      	add	r6, sp, #24
   21656:	2002      	movs	r0, #2
   21658:	9004      	str	r0, [sp, #16]
   2165a:	7230      	strb	r0, [r6, #8]
   2165c:	360c      	adds	r6, #12
   2165e:	2511      	movs	r5, #17
   21660:	4630      	mov	r0, r6
   21662:	462a      	mov	r2, r5
   21664:	f007 ff51 	bl	2950a <__aeabi_memcpy>
   21668:	ac0e      	add	r4, sp, #56	@ 0x38
   2166a:	4620      	mov	r0, r4
   2166c:	300c      	adds	r0, #12
   2166e:	2150      	movs	r1, #80	@ 0x50
   21670:	9003      	str	r0, [sp, #12]
   21672:	9102      	str	r1, [sp, #8]
   21674:	f007 fd9c 	bl	291b0 <__aeabi_memclr4>
   21678:	9804      	ldr	r0, [sp, #16]
   2167a:	7220      	strb	r0, [r4, #8]
   2167c:	2404      	movs	r4, #4
   2167e:	9500      	str	r5, [sp, #0]
   21680:	9401      	str	r4, [sp, #4]
   21682:	a825      	add	r0, sp, #148	@ 0x94
   21684:	492e      	ldr	r1, [pc, #184]	@ (21740 <_ZN20complex_full_dynamic3app17h4369329bf5d6580aE+0xf4>)
   21686:	2506      	movs	r5, #6
   21688:	462a      	mov	r2, r5
   2168a:	4633      	mov	r3, r6
   2168c:	f007 fd78 	bl	29180 <_ZN9allow_pin13dynamic_allow17h8bfd3764c146b81aE>
   21690:	9825      	ldr	r0, [sp, #148]	@ 0x94
   21692:	2802      	cmp	r0, #2
   21694:	d102      	bne.n	2169c <_ZN20complex_full_dynamic3app17h4369329bf5d6580aE+0x50>
   21696:	9926      	ldr	r1, [sp, #152]	@ 0x98
   21698:	4a29      	ldr	r2, [pc, #164]	@ (21740 <_ZN20complex_full_dynamic3app17h4369329bf5d6580aE+0xf4>)
   2169a:	e004      	b.n	216a6 <_ZN20complex_full_dynamic3app17h4369329bf5d6580aE+0x5a>
   2169c:	a906      	add	r1, sp, #24
   2169e:	720c      	strb	r4, [r1, #8]
   216a0:	9507      	str	r5, [sp, #28]
   216a2:	4a27      	ldr	r2, [pc, #156]	@ (21740 <_ZN20complex_full_dynamic3app17h4369329bf5d6580aE+0xf4>)
   216a4:	9206      	str	r2, [sp, #24]
   216a6:	2501      	movs	r5, #1
   216a8:	2802      	cmp	r0, #2
   216aa:	d02f      	beq.n	2170c <_ZN20complex_full_dynamic3app17h4369329bf5d6580aE+0xc0>
   216ac:	a80e      	add	r0, sp, #56	@ 0x38
   216ae:	7a00      	ldrb	r0, [r0, #8]
   216b0:	2802      	cmp	r0, #2
   216b2:	d10f      	bne.n	216d4 <_ZN20complex_full_dynamic3app17h4369329bf5d6580aE+0x88>
   216b4:	2603      	movs	r6, #3
   216b6:	9802      	ldr	r0, [sp, #8]
   216b8:	9000      	str	r0, [sp, #0]
   216ba:	9601      	str	r6, [sp, #4]
   216bc:	a825      	add	r0, sp, #148	@ 0x94
   216be:	2405      	movs	r4, #5
   216c0:	4611      	mov	r1, r2
   216c2:	4622      	mov	r2, r4
   216c4:	9b03      	ldr	r3, [sp, #12]
   216c6:	f007 fd5b 	bl	29180 <_ZN9allow_pin13dynamic_allow17h8bfd3764c146b81aE>
   216ca:	9825      	ldr	r0, [sp, #148]	@ 0x94
   216cc:	2802      	cmp	r0, #2
   216ce:	d106      	bne.n	216de <_ZN20complex_full_dynamic3app17h4369329bf5d6580aE+0x92>
   216d0:	9926      	ldr	r1, [sp, #152]	@ 0x98
   216d2:	e000      	b.n	216d6 <_ZN20complex_full_dynamic3app17h4369329bf5d6580aE+0x8a>
   216d4:	2103      	movs	r1, #3
   216d6:	4628      	mov	r0, r5
   216d8:	2800      	cmp	r0, #0
   216da:	d008      	beq.n	216ee <_ZN20complex_full_dynamic3app17h4369329bf5d6580aE+0xa2>
   216dc:	e016      	b.n	2170c <_ZN20complex_full_dynamic3app17h4369329bf5d6580aE+0xc0>
   216de:	a80e      	add	r0, sp, #56	@ 0x38
   216e0:	7206      	strb	r6, [r0, #8]
   216e2:	940f      	str	r4, [sp, #60]	@ 0x3c
   216e4:	4816      	ldr	r0, [pc, #88]	@ (21740 <_ZN20complex_full_dynamic3app17h4369329bf5d6580aE+0xf4>)
   216e6:	900e      	str	r0, [sp, #56]	@ 0x38
   216e8:	2000      	movs	r0, #0
   216ea:	2800      	cmp	r0, #0
   216ec:	d10e      	bne.n	2170c <_ZN20complex_full_dynamic3app17h4369329bf5d6580aE+0xc0>
   216ee:	4814      	ldr	r0, [pc, #80]	@ (21740 <_ZN20complex_full_dynamic3app17h4369329bf5d6580aE+0xf4>)
   216f0:	2106      	movs	r1, #6
   216f2:	2205      	movs	r2, #5
   216f4:	2400      	movs	r4, #0
   216f6:	4623      	mov	r3, r4
   216f8:	df02      	svc	2
   216fa:	287f      	cmp	r0, #127	@ 0x7f
   216fc:	d906      	bls.n	2170c <_ZN20complex_full_dynamic3app17h4369329bf5d6580aE+0xc0>
   216fe:	a806      	add	r0, sp, #24
   21700:	f007 fd2a 	bl	29158 <_ZN9allow_pin12full_dynamic17unshare_if_shared17hc49b4b2653f8b2c9E>
   21704:	a80e      	add	r0, sp, #56	@ 0x38
   21706:	f007 fd27 	bl	29158 <_ZN9allow_pin12full_dynamic17unshare_if_shared17hc49b4b2653f8b2c9E>
   2170a:	4625      	mov	r5, r4
   2170c:	2d00      	cmp	r5, #0
   2170e:	d003      	beq.n	21718 <_ZN20complex_full_dynamic3app17h4369329bf5d6580aE+0xcc>
   21710:	9c05      	ldr	r4, [sp, #20]
   21712:	6061      	str	r1, [r4, #4]
   21714:	2001      	movs	r0, #1
   21716:	e009      	b.n	2172c <_ZN20complex_full_dynamic3app17h4369329bf5d6580aE+0xe0>
   21718:	a80e      	add	r0, sp, #56	@ 0x38
   2171a:	f007 fd1d 	bl	29158 <_ZN9allow_pin12full_dynamic17unshare_if_shared17hc49b4b2653f8b2c9E>
   2171e:	9c05      	ldr	r4, [sp, #20]
   21720:	1c60      	adds	r0, r4, #1
   21722:	2250      	movs	r2, #80	@ 0x50
   21724:	9903      	ldr	r1, [sp, #12]
   21726:	f007 fef0 	bl	2950a <__aeabi_memcpy>
   2172a:	2000      	movs	r0, #0
   2172c:	7020      	strb	r0, [r4, #0]
   2172e:	a80e      	add	r0, sp, #56	@ 0x38
   21730:	f007 fd12 	bl	29158 <_ZN9allow_pin12full_dynamic17unshare_if_shared17hc49b4b2653f8b2c9E>
   21734:	a806      	add	r0, sp, #24
   21736:	f007 fd0f 	bl	29158 <_ZN9allow_pin12full_dynamic17unshare_if_shared17hc49b4b2653f8b2c9E>
   2173a:	b029      	add	sp, #164	@ 0xa4
   2173c:	bdf0      	pop	{r4, r5, r6, r7, pc}
   2173e:	46c0      	nop			@ (mov r8, r8)
   21740:	00001aa9 	.word	0x00001aa9

00021744 <_ZN20complex_full_dynamic3app17h49062572a61773fbE>:
   21744:	b5f0      	push	{r4, r5, r6, r7, lr}
   21746:	af03      	add	r7, sp, #12
   21748:	b0b9      	sub	sp, #228	@ 0xe4
   2174a:	9006      	str	r0, [sp, #24]
   2174c:	ae07      	add	r6, sp, #28
   2174e:	2002      	movs	r0, #2
   21750:	9005      	str	r0, [sp, #20]
   21752:	7230      	strb	r0, [r6, #8]
   21754:	360c      	adds	r6, #12
   21756:	2546      	movs	r5, #70	@ 0x46
   21758:	4630      	mov	r0, r6
   2175a:	462a      	mov	r2, r5
   2175c:	f007 fed5 	bl	2950a <__aeabi_memcpy>
   21760:	ac1c      	add	r4, sp, #112	@ 0x70
   21762:	4620      	mov	r0, r4
   21764:	300c      	adds	r0, #12
   21766:	2156      	movs	r1, #86	@ 0x56
   21768:	9004      	str	r0, [sp, #16]
   2176a:	9103      	str	r1, [sp, #12]
   2176c:	f007 fd20 	bl	291b0 <__aeabi_memclr4>
   21770:	9805      	ldr	r0, [sp, #20]
   21772:	7220      	strb	r0, [r4, #8]
   21774:	2404      	movs	r4, #4
   21776:	9500      	str	r5, [sp, #0]
   21778:	9401      	str	r4, [sp, #4]
   2177a:	a835      	add	r0, sp, #212	@ 0xd4
   2177c:	492d      	ldr	r1, [pc, #180]	@ (21834 <_ZN20complex_full_dynamic3app17h49062572a61773fbE+0xf0>)
   2177e:	2507      	movs	r5, #7
   21780:	462a      	mov	r2, r5
   21782:	4633      	mov	r3, r6
   21784:	f007 fcfc 	bl	29180 <_ZN9allow_pin13dynamic_allow17h8bfd3764c146b81aE>
   21788:	9835      	ldr	r0, [sp, #212]	@ 0xd4
   2178a:	2802      	cmp	r0, #2
   2178c:	d102      	bne.n	21794 <_ZN20complex_full_dynamic3app17h49062572a61773fbE+0x50>
   2178e:	9936      	ldr	r1, [sp, #216]	@ 0xd8
   21790:	4c28      	ldr	r4, [pc, #160]	@ (21834 <_ZN20complex_full_dynamic3app17h49062572a61773fbE+0xf0>)
   21792:	e004      	b.n	2179e <_ZN20complex_full_dynamic3app17h49062572a61773fbE+0x5a>
   21794:	a907      	add	r1, sp, #28
   21796:	720c      	strb	r4, [r1, #8]
   21798:	9508      	str	r5, [sp, #32]
   2179a:	4c26      	ldr	r4, [pc, #152]	@ (21834 <_ZN20complex_full_dynamic3app17h49062572a61773fbE+0xf0>)
   2179c:	9407      	str	r4, [sp, #28]
   2179e:	2601      	movs	r6, #1
   217a0:	2802      	cmp	r0, #2
   217a2:	d02d      	beq.n	21800 <_ZN20complex_full_dynamic3app17h49062572a61773fbE+0xbc>
   217a4:	a81c      	add	r0, sp, #112	@ 0x70
   217a6:	7a00      	ldrb	r0, [r0, #8]
   217a8:	2802      	cmp	r0, #2
   217aa:	d10e      	bne.n	217ca <_ZN20complex_full_dynamic3app17h49062572a61773fbE+0x86>
   217ac:	2503      	movs	r5, #3
   217ae:	9803      	ldr	r0, [sp, #12]
   217b0:	9000      	str	r0, [sp, #0]
   217b2:	9501      	str	r5, [sp, #4]
   217b4:	a835      	add	r0, sp, #212	@ 0xd4
   217b6:	4621      	mov	r1, r4
   217b8:	462a      	mov	r2, r5
   217ba:	9b04      	ldr	r3, [sp, #16]
   217bc:	f007 fce0 	bl	29180 <_ZN9allow_pin13dynamic_allow17h8bfd3764c146b81aE>
   217c0:	9835      	ldr	r0, [sp, #212]	@ 0xd4
   217c2:	2802      	cmp	r0, #2
   217c4:	d106      	bne.n	217d4 <_ZN20complex_full_dynamic3app17h49062572a61773fbE+0x90>
   217c6:	9936      	ldr	r1, [sp, #216]	@ 0xd8
   217c8:	e000      	b.n	217cc <_ZN20complex_full_dynamic3app17h49062572a61773fbE+0x88>
   217ca:	2103      	movs	r1, #3
   217cc:	4630      	mov	r0, r6
   217ce:	2800      	cmp	r0, #0
   217d0:	d007      	beq.n	217e2 <_ZN20complex_full_dynamic3app17h49062572a61773fbE+0x9e>
   217d2:	e015      	b.n	21800 <_ZN20complex_full_dynamic3app17h49062572a61773fbE+0xbc>
   217d4:	a81c      	add	r0, sp, #112	@ 0x70
   217d6:	7205      	strb	r5, [r0, #8]
   217d8:	951d      	str	r5, [sp, #116]	@ 0x74
   217da:	941c      	str	r4, [sp, #112]	@ 0x70
   217dc:	2000      	movs	r0, #0
   217de:	2800      	cmp	r0, #0
   217e0:	d10e      	bne.n	21800 <_ZN20complex_full_dynamic3app17h49062572a61773fbE+0xbc>
   217e2:	4814      	ldr	r0, [pc, #80]	@ (21834 <_ZN20complex_full_dynamic3app17h49062572a61773fbE+0xf0>)
   217e4:	2107      	movs	r1, #7
   217e6:	2203      	movs	r2, #3
   217e8:	2400      	movs	r4, #0
   217ea:	4623      	mov	r3, r4
   217ec:	df02      	svc	2
   217ee:	287f      	cmp	r0, #127	@ 0x7f
   217f0:	d906      	bls.n	21800 <_ZN20complex_full_dynamic3app17h49062572a61773fbE+0xbc>
   217f2:	a807      	add	r0, sp, #28
   217f4:	f007 fcb0 	bl	29158 <_ZN9allow_pin12full_dynamic17unshare_if_shared17hc49b4b2653f8b2c9E>
   217f8:	a81c      	add	r0, sp, #112	@ 0x70
   217fa:	f007 fcad 	bl	29158 <_ZN9allow_pin12full_dynamic17unshare_if_shared17hc49b4b2653f8b2c9E>
   217fe:	4626      	mov	r6, r4
   21800:	2e00      	cmp	r6, #0
   21802:	d003      	beq.n	2180c <_ZN20complex_full_dynamic3app17h49062572a61773fbE+0xc8>
   21804:	9c06      	ldr	r4, [sp, #24]
   21806:	6061      	str	r1, [r4, #4]
   21808:	2001      	movs	r0, #1
   2180a:	e009      	b.n	21820 <_ZN20complex_full_dynamic3app17h49062572a61773fbE+0xdc>
   2180c:	a81c      	add	r0, sp, #112	@ 0x70
   2180e:	f007 fca3 	bl	29158 <_ZN9allow_pin12full_dynamic17unshare_if_shared17hc49b4b2653f8b2c9E>
   21812:	9c06      	ldr	r4, [sp, #24]
   21814:	1c60      	adds	r0, r4, #1
   21816:	2256      	movs	r2, #86	@ 0x56
   21818:	9904      	ldr	r1, [sp, #16]
   2181a:	f007 fe76 	bl	2950a <__aeabi_memcpy>
   2181e:	2000      	movs	r0, #0
   21820:	7020      	strb	r0, [r4, #0]
   21822:	a81c      	add	r0, sp, #112	@ 0x70
   21824:	f007 fc98 	bl	29158 <_ZN9allow_pin12full_dynamic17unshare_if_shared17hc49b4b2653f8b2c9E>
   21828:	a807      	add	r0, sp, #28
   2182a:	f007 fc95 	bl	29158 <_ZN9allow_pin12full_dynamic17unshare_if_shared17hc49b4b2653f8b2c9E>
   2182e:	b039      	add	sp, #228	@ 0xe4
   21830:	bdf0      	pop	{r4, r5, r6, r7, pc}
   21832:	46c0      	nop			@ (mov r8, r8)
   21834:	00001e50 	.word	0x00001e50

00021838 <_ZN20complex_full_dynamic3app17h4c2d48a643a0919bE>:
   21838:	b5f0      	push	{r4, r5, r6, r7, lr}
   2183a:	af03      	add	r7, sp, #12
   2183c:	b0a3      	sub	sp, #140	@ 0x8c
   2183e:	9004      	str	r0, [sp, #16]
   21840:	ac06      	add	r4, sp, #24
   21842:	2502      	movs	r5, #2
   21844:	7225      	strb	r5, [r4, #8]
   21846:	340c      	adds	r4, #12
   21848:	222b      	movs	r2, #43	@ 0x2b
   2184a:	9203      	str	r2, [sp, #12]
   2184c:	4620      	mov	r0, r4
   2184e:	f007 fe5c 	bl	2950a <__aeabi_memcpy>
   21852:	a814      	add	r0, sp, #80	@ 0x50
   21854:	2600      	movs	r6, #0
   21856:	8506      	strh	r6, [r0, #40]	@ 0x28
   21858:	9005      	str	r0, [sp, #20]
   2185a:	7205      	strb	r5, [r0, #8]
   2185c:	961d      	str	r6, [sp, #116]	@ 0x74
   2185e:	961c      	str	r6, [sp, #112]	@ 0x70
   21860:	961b      	str	r6, [sp, #108]	@ 0x6c
   21862:	961a      	str	r6, [sp, #104]	@ 0x68
   21864:	9619      	str	r6, [sp, #100]	@ 0x64
   21866:	9618      	str	r6, [sp, #96]	@ 0x60
   21868:	9617      	str	r6, [sp, #92]	@ 0x5c
   2186a:	2004      	movs	r0, #4
   2186c:	9903      	ldr	r1, [sp, #12]
   2186e:	9100      	str	r1, [sp, #0]
   21870:	9003      	str	r0, [sp, #12]
   21872:	9001      	str	r0, [sp, #4]
   21874:	a81f      	add	r0, sp, #124	@ 0x7c
   21876:	4931      	ldr	r1, [pc, #196]	@ (2193c <_ZN20complex_full_dynamic3app17h4c2d48a643a0919bE+0x104>)
   21878:	2507      	movs	r5, #7
   2187a:	462a      	mov	r2, r5
   2187c:	4623      	mov	r3, r4
   2187e:	f007 fc7f 	bl	29180 <_ZN9allow_pin13dynamic_allow17h8bfd3764c146b81aE>
   21882:	981f      	ldr	r0, [sp, #124]	@ 0x7c
   21884:	2802      	cmp	r0, #2
   21886:	d102      	bne.n	2188e <_ZN20complex_full_dynamic3app17h4c2d48a643a0919bE+0x56>
   21888:	9920      	ldr	r1, [sp, #128]	@ 0x80
   2188a:	4a2c      	ldr	r2, [pc, #176]	@ (2193c <_ZN20complex_full_dynamic3app17h4c2d48a643a0919bE+0x104>)
   2188c:	e005      	b.n	2189a <_ZN20complex_full_dynamic3app17h4c2d48a643a0919bE+0x62>
   2188e:	a906      	add	r1, sp, #24
   21890:	9a03      	ldr	r2, [sp, #12]
   21892:	720a      	strb	r2, [r1, #8]
   21894:	9507      	str	r5, [sp, #28]
   21896:	4a29      	ldr	r2, [pc, #164]	@ (2193c <_ZN20complex_full_dynamic3app17h4c2d48a643a0919bE+0x104>)
   21898:	9206      	str	r2, [sp, #24]
   2189a:	9d05      	ldr	r5, [sp, #20]
   2189c:	350c      	adds	r5, #12
   2189e:	2401      	movs	r4, #1
   218a0:	2802      	cmp	r0, #2
   218a2:	d032      	beq.n	2190a <_ZN20complex_full_dynamic3app17h4c2d48a643a0919bE+0xd2>
   218a4:	a814      	add	r0, sp, #80	@ 0x50
   218a6:	7a00      	ldrb	r0, [r0, #8]
   218a8:	2103      	movs	r1, #3
   218aa:	2802      	cmp	r0, #2
   218ac:	d111      	bne.n	218d2 <_ZN20complex_full_dynamic3app17h4c2d48a643a0919bE+0x9a>
   218ae:	201e      	movs	r0, #30
   218b0:	9000      	str	r0, [sp, #0]
   218b2:	9103      	str	r1, [sp, #12]
   218b4:	9101      	str	r1, [sp, #4]
   218b6:	a81f      	add	r0, sp, #124	@ 0x7c
   218b8:	462b      	mov	r3, r5
   218ba:	2508      	movs	r5, #8
   218bc:	4611      	mov	r1, r2
   218be:	462a      	mov	r2, r5
   218c0:	9305      	str	r3, [sp, #20]
   218c2:	f007 fc5d 	bl	29180 <_ZN9allow_pin13dynamic_allow17h8bfd3764c146b81aE>
   218c6:	981f      	ldr	r0, [sp, #124]	@ 0x7c
   218c8:	2802      	cmp	r0, #2
   218ca:	d106      	bne.n	218da <_ZN20complex_full_dynamic3app17h4c2d48a643a0919bE+0xa2>
   218cc:	9920      	ldr	r1, [sp, #128]	@ 0x80
   218ce:	4626      	mov	r6, r4
   218d0:	e009      	b.n	218e6 <_ZN20complex_full_dynamic3app17h4c2d48a643a0919bE+0xae>
   218d2:	4626      	mov	r6, r4
   218d4:	2e00      	cmp	r6, #0
   218d6:	d009      	beq.n	218ec <_ZN20complex_full_dynamic3app17h4c2d48a643a0919bE+0xb4>
   218d8:	e017      	b.n	2190a <_ZN20complex_full_dynamic3app17h4c2d48a643a0919bE+0xd2>
   218da:	a814      	add	r0, sp, #80	@ 0x50
   218dc:	9903      	ldr	r1, [sp, #12]
   218de:	7201      	strb	r1, [r0, #8]
   218e0:	9515      	str	r5, [sp, #84]	@ 0x54
   218e2:	4816      	ldr	r0, [pc, #88]	@ (2193c <_ZN20complex_full_dynamic3app17h4c2d48a643a0919bE+0x104>)
   218e4:	9014      	str	r0, [sp, #80]	@ 0x50
   218e6:	9d05      	ldr	r5, [sp, #20]
   218e8:	2e00      	cmp	r6, #0
   218ea:	d10e      	bne.n	2190a <_ZN20complex_full_dynamic3app17h4c2d48a643a0919bE+0xd2>
   218ec:	4813      	ldr	r0, [pc, #76]	@ (2193c <_ZN20complex_full_dynamic3app17h4c2d48a643a0919bE+0x104>)
   218ee:	2107      	movs	r1, #7
   218f0:	2208      	movs	r2, #8
   218f2:	2600      	movs	r6, #0
   218f4:	4633      	mov	r3, r6
   218f6:	df02      	svc	2
   218f8:	287f      	cmp	r0, #127	@ 0x7f
   218fa:	d906      	bls.n	2190a <_ZN20complex_full_dynamic3app17h4c2d48a643a0919bE+0xd2>
   218fc:	a806      	add	r0, sp, #24
   218fe:	f007 fc2b 	bl	29158 <_ZN9allow_pin12full_dynamic17unshare_if_shared17hc49b4b2653f8b2c9E>
   21902:	a814      	add	r0, sp, #80	@ 0x50
   21904:	f007 fc28 	bl	29158 <_ZN9allow_pin12full_dynamic17unshare_if_shared17hc49b4b2653f8b2c9E>
   21908:	4634      	mov	r4, r6
   2190a:	2c00      	cmp	r4, #0
   2190c:	d003      	beq.n	21916 <_ZN20complex_full_dynamic3app17h4c2d48a643a0919bE+0xde>
   2190e:	9c04      	ldr	r4, [sp, #16]
   21910:	6061      	str	r1, [r4, #4]
   21912:	2001      	movs	r0, #1
   21914:	e009      	b.n	2192a <_ZN20complex_full_dynamic3app17h4c2d48a643a0919bE+0xf2>
   21916:	a814      	add	r0, sp, #80	@ 0x50
   21918:	f007 fc1e 	bl	29158 <_ZN9allow_pin12full_dynamic17unshare_if_shared17hc49b4b2653f8b2c9E>
   2191c:	9c04      	ldr	r4, [sp, #16]
   2191e:	1c60      	adds	r0, r4, #1
   21920:	221e      	movs	r2, #30
   21922:	4629      	mov	r1, r5
   21924:	f007 fdf1 	bl	2950a <__aeabi_memcpy>
   21928:	2000      	movs	r0, #0
   2192a:	7020      	strb	r0, [r4, #0]
   2192c:	a814      	add	r0, sp, #80	@ 0x50
   2192e:	f007 fc13 	bl	29158 <_ZN9allow_pin12full_dynamic17unshare_if_shared17hc49b4b2653f8b2c9E>
   21932:	a806      	add	r0, sp, #24
   21934:	f007 fc10 	bl	29158 <_ZN9allow_pin12full_dynamic17unshare_if_shared17hc49b4b2653f8b2c9E>
   21938:	b023      	add	sp, #140	@ 0x8c
   2193a:	bdf0      	pop	{r4, r5, r6, r7, pc}
   2193c:	000007e3 	.word	0x000007e3

00021940 <_ZN20complex_full_dynamic3app17h4d75a794567e51b8E>:
   21940:	b5f0      	push	{r4, r5, r6, r7, lr}
   21942:	af03      	add	r7, sp, #12
   21944:	b0a1      	sub	sp, #132	@ 0x84
   21946:	9004      	str	r0, [sp, #16]
   21948:	ac06      	add	r4, sp, #24
   2194a:	2602      	movs	r6, #2
   2194c:	7226      	strb	r6, [r4, #8]
   2194e:	340c      	adds	r4, #12
   21950:	2532      	movs	r5, #50	@ 0x32
   21952:	4620      	mov	r0, r4
   21954:	462a      	mov	r2, r5
   21956:	f007 fdd8 	bl	2950a <__aeabi_memcpy>
   2195a:	a816      	add	r0, sp, #88	@ 0x58
   2195c:	9005      	str	r0, [sp, #20]
   2195e:	7206      	strb	r6, [r0, #8]
   21960:	2000      	movs	r0, #0
   21962:	901c      	str	r0, [sp, #112]	@ 0x70
   21964:	901b      	str	r0, [sp, #108]	@ 0x6c
   21966:	901a      	str	r0, [sp, #104]	@ 0x68
   21968:	9003      	str	r0, [sp, #12]
   2196a:	9019      	str	r0, [sp, #100]	@ 0x64
   2196c:	2604      	movs	r6, #4
   2196e:	9500      	str	r5, [sp, #0]
   21970:	9601      	str	r6, [sp, #4]
   21972:	a81d      	add	r0, sp, #116	@ 0x74
   21974:	4d33      	ldr	r5, [pc, #204]	@ (21a44 <_ZN20complex_full_dynamic3app17h4d75a794567e51b8E+0x104>)
   21976:	4629      	mov	r1, r5
   21978:	4632      	mov	r2, r6
   2197a:	4623      	mov	r3, r4
   2197c:	f007 fc00 	bl	29180 <_ZN9allow_pin13dynamic_allow17h8bfd3764c146b81aE>
   21980:	981d      	ldr	r0, [sp, #116]	@ 0x74
   21982:	2802      	cmp	r0, #2
   21984:	d102      	bne.n	2198c <_ZN20complex_full_dynamic3app17h4d75a794567e51b8E+0x4c>
   21986:	462a      	mov	r2, r5
   21988:	991e      	ldr	r1, [sp, #120]	@ 0x78
   2198a:	e004      	b.n	21996 <_ZN20complex_full_dynamic3app17h4d75a794567e51b8E+0x56>
   2198c:	a906      	add	r1, sp, #24
   2198e:	720e      	strb	r6, [r1, #8]
   21990:	9607      	str	r6, [sp, #28]
   21992:	462a      	mov	r2, r5
   21994:	9506      	str	r5, [sp, #24]
   21996:	9e05      	ldr	r6, [sp, #20]
   21998:	360c      	adds	r6, #12
   2199a:	2501      	movs	r5, #1
   2199c:	2802      	cmp	r0, #2
   2199e:	d037      	beq.n	21a10 <_ZN20complex_full_dynamic3app17h4d75a794567e51b8E+0xd0>
   219a0:	a816      	add	r0, sp, #88	@ 0x58
   219a2:	7a00      	ldrb	r0, [r0, #8]
   219a4:	2802      	cmp	r0, #2
   219a6:	d116      	bne.n	219d6 <_ZN20complex_full_dynamic3app17h4d75a794567e51b8E+0x96>
   219a8:	4633      	mov	r3, r6
   219aa:	2103      	movs	r1, #3
   219ac:	2010      	movs	r0, #16
   219ae:	9000      	str	r0, [sp, #0]
   219b0:	9102      	str	r1, [sp, #8]
   219b2:	9101      	str	r1, [sp, #4]
   219b4:	a81d      	add	r0, sp, #116	@ 0x74
   219b6:	2409      	movs	r4, #9
   219b8:	4616      	mov	r6, r2
   219ba:	4611      	mov	r1, r2
   219bc:	4622      	mov	r2, r4
   219be:	9305      	str	r3, [sp, #20]
   219c0:	f007 fbde 	bl	29180 <_ZN9allow_pin13dynamic_allow17h8bfd3764c146b81aE>
   219c4:	981d      	ldr	r0, [sp, #116]	@ 0x74
   219c6:	2802      	cmp	r0, #2
   219c8:	d10a      	bne.n	219e0 <_ZN20complex_full_dynamic3app17h4d75a794567e51b8E+0xa0>
   219ca:	991e      	ldr	r1, [sp, #120]	@ 0x78
   219cc:	4628      	mov	r0, r5
   219ce:	9e05      	ldr	r6, [sp, #20]
   219d0:	2800      	cmp	r0, #0
   219d2:	d00e      	beq.n	219f2 <_ZN20complex_full_dynamic3app17h4d75a794567e51b8E+0xb2>
   219d4:	e01c      	b.n	21a10 <_ZN20complex_full_dynamic3app17h4d75a794567e51b8E+0xd0>
   219d6:	2103      	movs	r1, #3
   219d8:	4628      	mov	r0, r5
   219da:	2800      	cmp	r0, #0
   219dc:	d009      	beq.n	219f2 <_ZN20complex_full_dynamic3app17h4d75a794567e51b8E+0xb2>
   219de:	e017      	b.n	21a10 <_ZN20complex_full_dynamic3app17h4d75a794567e51b8E+0xd0>
   219e0:	a816      	add	r0, sp, #88	@ 0x58
   219e2:	9902      	ldr	r1, [sp, #8]
   219e4:	7201      	strb	r1, [r0, #8]
   219e6:	9417      	str	r4, [sp, #92]	@ 0x5c
   219e8:	9616      	str	r6, [sp, #88]	@ 0x58
   219ea:	9e05      	ldr	r6, [sp, #20]
   219ec:	9803      	ldr	r0, [sp, #12]
   219ee:	2800      	cmp	r0, #0
   219f0:	d10e      	bne.n	21a10 <_ZN20complex_full_dynamic3app17h4d75a794567e51b8E+0xd0>
   219f2:	4814      	ldr	r0, [pc, #80]	@ (21a44 <_ZN20complex_full_dynamic3app17h4d75a794567e51b8E+0x104>)
   219f4:	2104      	movs	r1, #4
   219f6:	2209      	movs	r2, #9
   219f8:	2400      	movs	r4, #0
   219fa:	4623      	mov	r3, r4
   219fc:	df02      	svc	2
   219fe:	287f      	cmp	r0, #127	@ 0x7f
   21a00:	d906      	bls.n	21a10 <_ZN20complex_full_dynamic3app17h4d75a794567e51b8E+0xd0>
   21a02:	a806      	add	r0, sp, #24
   21a04:	f007 fba8 	bl	29158 <_ZN9allow_pin12full_dynamic17unshare_if_shared17hc49b4b2653f8b2c9E>
   21a08:	a816      	add	r0, sp, #88	@ 0x58
   21a0a:	f007 fba5 	bl	29158 <_ZN9allow_pin12full_dynamic17unshare_if_shared17hc49b4b2653f8b2c9E>
   21a0e:	4625      	mov	r5, r4
   21a10:	2d00      	cmp	r5, #0
   21a12:	d003      	beq.n	21a1c <_ZN20complex_full_dynamic3app17h4d75a794567e51b8E+0xdc>
   21a14:	9c04      	ldr	r4, [sp, #16]
   21a16:	6061      	str	r1, [r4, #4]
   21a18:	2001      	movs	r0, #1
   21a1a:	e009      	b.n	21a30 <_ZN20complex_full_dynamic3app17h4d75a794567e51b8E+0xf0>
   21a1c:	a816      	add	r0, sp, #88	@ 0x58
   21a1e:	f007 fb9b 	bl	29158 <_ZN9allow_pin12full_dynamic17unshare_if_shared17hc49b4b2653f8b2c9E>
   21a22:	9c04      	ldr	r4, [sp, #16]
   21a24:	1c60      	adds	r0, r4, #1
   21a26:	2210      	movs	r2, #16
   21a28:	4631      	mov	r1, r6
   21a2a:	f007 fd6e 	bl	2950a <__aeabi_memcpy>
   21a2e:	2000      	movs	r0, #0
   21a30:	7020      	strb	r0, [r4, #0]
   21a32:	a816      	add	r0, sp, #88	@ 0x58
   21a34:	f007 fb90 	bl	29158 <_ZN9allow_pin12full_dynamic17unshare_if_shared17hc49b4b2653f8b2c9E>
   21a38:	a806      	add	r0, sp, #24
   21a3a:	f007 fb8d 	bl	29158 <_ZN9allow_pin12full_dynamic17unshare_if_shared17hc49b4b2653f8b2c9E>
   21a3e:	b021      	add	sp, #132	@ 0x84
   21a40:	bdf0      	pop	{r4, r5, r6, r7, pc}
   21a42:	46c0      	nop			@ (mov r8, r8)
   21a44:	000019d6 	.word	0x000019d6

00021a48 <_ZN20complex_full_dynamic3app17h51f8c8da0d18162aE>:
   21a48:	b5f0      	push	{r4, r5, r6, r7, lr}
   21a4a:	af03      	add	r7, sp, #12
   21a4c:	b0b3      	sub	sp, #204	@ 0xcc
   21a4e:	9006      	str	r0, [sp, #24]
   21a50:	ae07      	add	r6, sp, #28
   21a52:	2002      	movs	r0, #2
   21a54:	9005      	str	r0, [sp, #20]
   21a56:	7230      	strb	r0, [r6, #8]
   21a58:	360c      	adds	r6, #12
   21a5a:	254f      	movs	r5, #79	@ 0x4f
   21a5c:	4630      	mov	r0, r6
   21a5e:	462a      	mov	r2, r5
   21a60:	f007 fd53 	bl	2950a <__aeabi_memcpy>
   21a64:	ac1e      	add	r4, sp, #120	@ 0x78
   21a66:	4620      	mov	r0, r4
   21a68:	300c      	adds	r0, #12
   21a6a:	2135      	movs	r1, #53	@ 0x35
   21a6c:	9004      	str	r0, [sp, #16]
   21a6e:	9103      	str	r1, [sp, #12]
   21a70:	f007 fb9e 	bl	291b0 <__aeabi_memclr4>
   21a74:	9805      	ldr	r0, [sp, #20]
   21a76:	7220      	strb	r0, [r4, #8]
   21a78:	2404      	movs	r4, #4
   21a7a:	9500      	str	r5, [sp, #0]
   21a7c:	9401      	str	r4, [sp, #4]
   21a7e:	a82f      	add	r0, sp, #188	@ 0xbc
   21a80:	492e      	ldr	r1, [pc, #184]	@ (21b3c <_ZN20complex_full_dynamic3app17h51f8c8da0d18162aE+0xf4>)
   21a82:	2507      	movs	r5, #7
   21a84:	462a      	mov	r2, r5
   21a86:	4633      	mov	r3, r6
   21a88:	f007 fb7a 	bl	29180 <_ZN9allow_pin13dynamic_allow17h8bfd3764c146b81aE>
   21a8c:	982f      	ldr	r0, [sp, #188]	@ 0xbc
   21a8e:	2802      	cmp	r0, #2
   21a90:	d102      	bne.n	21a98 <_ZN20complex_full_dynamic3app17h51f8c8da0d18162aE+0x50>
   21a92:	9930      	ldr	r1, [sp, #192]	@ 0xc0
   21a94:	4a29      	ldr	r2, [pc, #164]	@ (21b3c <_ZN20complex_full_dynamic3app17h51f8c8da0d18162aE+0xf4>)
   21a96:	e004      	b.n	21aa2 <_ZN20complex_full_dynamic3app17h51f8c8da0d18162aE+0x5a>
   21a98:	a907      	add	r1, sp, #28
   21a9a:	720c      	strb	r4, [r1, #8]
   21a9c:	9508      	str	r5, [sp, #32]
   21a9e:	4a27      	ldr	r2, [pc, #156]	@ (21b3c <_ZN20complex_full_dynamic3app17h51f8c8da0d18162aE+0xf4>)
   21aa0:	9207      	str	r2, [sp, #28]
   21aa2:	2501      	movs	r5, #1
   21aa4:	2802      	cmp	r0, #2
   21aa6:	d02f      	beq.n	21b08 <_ZN20complex_full_dynamic3app17h51f8c8da0d18162aE+0xc0>
   21aa8:	a81e      	add	r0, sp, #120	@ 0x78
   21aaa:	7a00      	ldrb	r0, [r0, #8]
   21aac:	2802      	cmp	r0, #2
   21aae:	d10f      	bne.n	21ad0 <_ZN20complex_full_dynamic3app17h51f8c8da0d18162aE+0x88>
   21ab0:	2603      	movs	r6, #3
   21ab2:	9803      	ldr	r0, [sp, #12]
   21ab4:	9000      	str	r0, [sp, #0]
   21ab6:	9601      	str	r6, [sp, #4]
   21ab8:	a82f      	add	r0, sp, #188	@ 0xbc
   21aba:	2401      	movs	r4, #1
   21abc:	4611      	mov	r1, r2
   21abe:	4622      	mov	r2, r4
   21ac0:	9b04      	ldr	r3, [sp, #16]
   21ac2:	f007 fb5d 	bl	29180 <_ZN9allow_pin13dynamic_allow17h8bfd3764c146b81aE>
   21ac6:	982f      	ldr	r0, [sp, #188]	@ 0xbc
   21ac8:	2802      	cmp	r0, #2
   21aca:	d106      	bne.n	21ada <_ZN20complex_full_dynamic3app17h51f8c8da0d18162aE+0x92>
   21acc:	9930      	ldr	r1, [sp, #192]	@ 0xc0
   21ace:	e000      	b.n	21ad2 <_ZN20complex_full_dynamic3app17h51f8c8da0d18162aE+0x8a>
   21ad0:	2103      	movs	r1, #3
   21ad2:	4628      	mov	r0, r5
   21ad4:	2800      	cmp	r0, #0
   21ad6:	d008      	beq.n	21aea <_ZN20complex_full_dynamic3app17h51f8c8da0d18162aE+0xa2>
   21ad8:	e016      	b.n	21b08 <_ZN20complex_full_dynamic3app17h51f8c8da0d18162aE+0xc0>
   21ada:	a81e      	add	r0, sp, #120	@ 0x78
   21adc:	7206      	strb	r6, [r0, #8]
   21ade:	941f      	str	r4, [sp, #124]	@ 0x7c
   21ae0:	4816      	ldr	r0, [pc, #88]	@ (21b3c <_ZN20complex_full_dynamic3app17h51f8c8da0d18162aE+0xf4>)
   21ae2:	901e      	str	r0, [sp, #120]	@ 0x78
   21ae4:	2000      	movs	r0, #0
   21ae6:	2800      	cmp	r0, #0
   21ae8:	d10e      	bne.n	21b08 <_ZN20complex_full_dynamic3app17h51f8c8da0d18162aE+0xc0>
   21aea:	4814      	ldr	r0, [pc, #80]	@ (21b3c <_ZN20complex_full_dynamic3app17h51f8c8da0d18162aE+0xf4>)
   21aec:	2107      	movs	r1, #7
   21aee:	2201      	movs	r2, #1
   21af0:	2400      	movs	r4, #0
   21af2:	4623      	mov	r3, r4
   21af4:	df02      	svc	2
   21af6:	287f      	cmp	r0, #127	@ 0x7f
   21af8:	d906      	bls.n	21b08 <_ZN20complex_full_dynamic3app17h51f8c8da0d18162aE+0xc0>
   21afa:	a807      	add	r0, sp, #28
   21afc:	f007 fb2c 	bl	29158 <_ZN9allow_pin12full_dynamic17unshare_if_shared17hc49b4b2653f8b2c9E>
   21b00:	a81e      	add	r0, sp, #120	@ 0x78
   21b02:	f007 fb29 	bl	29158 <_ZN9allow_pin12full_dynamic17unshare_if_shared17hc49b4b2653f8b2c9E>
   21b06:	4625      	mov	r5, r4
   21b08:	2d00      	cmp	r5, #0
   21b0a:	d003      	beq.n	21b14 <_ZN20complex_full_dynamic3app17h51f8c8da0d18162aE+0xcc>
   21b0c:	9c06      	ldr	r4, [sp, #24]
   21b0e:	6061      	str	r1, [r4, #4]
   21b10:	2001      	movs	r0, #1
   21b12:	e009      	b.n	21b28 <_ZN20complex_full_dynamic3app17h51f8c8da0d18162aE+0xe0>
   21b14:	a81e      	add	r0, sp, #120	@ 0x78
   21b16:	f007 fb1f 	bl	29158 <_ZN9allow_pin12full_dynamic17unshare_if_shared17hc49b4b2653f8b2c9E>
   21b1a:	9c06      	ldr	r4, [sp, #24]
   21b1c:	1c60      	adds	r0, r4, #1
   21b1e:	2235      	movs	r2, #53	@ 0x35
   21b20:	9904      	ldr	r1, [sp, #16]
   21b22:	f007 fcf2 	bl	2950a <__aeabi_memcpy>
   21b26:	2000      	movs	r0, #0
   21b28:	7020      	strb	r0, [r4, #0]
   21b2a:	a81e      	add	r0, sp, #120	@ 0x78
   21b2c:	f007 fb14 	bl	29158 <_ZN9allow_pin12full_dynamic17unshare_if_shared17hc49b4b2653f8b2c9E>
   21b30:	a807      	add	r0, sp, #28
   21b32:	f007 fb11 	bl	29158 <_ZN9allow_pin12full_dynamic17unshare_if_shared17hc49b4b2653f8b2c9E>
   21b36:	b033      	add	sp, #204	@ 0xcc
   21b38:	bdf0      	pop	{r4, r5, r6, r7, pc}
   21b3a:	46c0      	nop			@ (mov r8, r8)
   21b3c:	000016d7 	.word	0x000016d7

00021b40 <_ZN20complex_full_dynamic3app17h5e922ab2a2872c42E>:
   21b40:	b5f0      	push	{r4, r5, r6, r7, lr}
   21b42:	af03      	add	r7, sp, #12
   21b44:	b0a5      	sub	sp, #148	@ 0x94
   21b46:	9005      	str	r0, [sp, #20]
   21b48:	ad06      	add	r5, sp, #24
   21b4a:	2002      	movs	r0, #2
   21b4c:	9004      	str	r0, [sp, #16]
   21b4e:	7228      	strb	r0, [r5, #8]
   21b50:	350c      	adds	r5, #12
   21b52:	262c      	movs	r6, #44	@ 0x2c
   21b54:	4628      	mov	r0, r5
   21b56:	4632      	mov	r2, r6
   21b58:	f007 fcd7 	bl	2950a <__aeabi_memcpy>
   21b5c:	ac14      	add	r4, sp, #80	@ 0x50
   21b5e:	4620      	mov	r0, r4
   21b60:	300c      	adds	r0, #12
   21b62:	2125      	movs	r1, #37	@ 0x25
   21b64:	9003      	str	r0, [sp, #12]
   21b66:	9102      	str	r1, [sp, #8]
   21b68:	f007 fb22 	bl	291b0 <__aeabi_memclr4>
   21b6c:	9804      	ldr	r0, [sp, #16]
   21b6e:	7220      	strb	r0, [r4, #8]
   21b70:	2404      	movs	r4, #4
   21b72:	9600      	str	r6, [sp, #0]
   21b74:	9401      	str	r4, [sp, #4]
   21b76:	a821      	add	r0, sp, #132	@ 0x84
   21b78:	4932      	ldr	r1, [pc, #200]	@ (21c44 <_ZN20complex_full_dynamic3app17h5e922ab2a2872c42E+0x104>)
   21b7a:	2603      	movs	r6, #3
   21b7c:	4632      	mov	r2, r6
   21b7e:	462b      	mov	r3, r5
   21b80:	f007 fafe 	bl	29180 <_ZN9allow_pin13dynamic_allow17h8bfd3764c146b81aE>
   21b84:	9821      	ldr	r0, [sp, #132]	@ 0x84
   21b86:	2802      	cmp	r0, #2
   21b88:	d102      	bne.n	21b90 <_ZN20complex_full_dynamic3app17h5e922ab2a2872c42E+0x50>
   21b8a:	4a2e      	ldr	r2, [pc, #184]	@ (21c44 <_ZN20complex_full_dynamic3app17h5e922ab2a2872c42E+0x104>)
   21b8c:	9922      	ldr	r1, [sp, #136]	@ 0x88
   21b8e:	e005      	b.n	21b9c <_ZN20complex_full_dynamic3app17h5e922ab2a2872c42E+0x5c>
   21b90:	a906      	add	r1, sp, #24
   21b92:	720c      	strb	r4, [r1, #8]
   21b94:	9607      	str	r6, [sp, #28]
   21b96:	492b      	ldr	r1, [pc, #172]	@ (21c44 <_ZN20complex_full_dynamic3app17h5e922ab2a2872c42E+0x104>)
   21b98:	460a      	mov	r2, r1
   21b9a:	9106      	str	r1, [sp, #24]
   21b9c:	2401      	movs	r4, #1
   21b9e:	2802      	cmp	r0, #2
   21ba0:	d01a      	beq.n	21bd8 <_ZN20complex_full_dynamic3app17h5e922ab2a2872c42E+0x98>
   21ba2:	a814      	add	r0, sp, #80	@ 0x50
   21ba4:	7a00      	ldrb	r0, [r0, #8]
   21ba6:	2802      	cmp	r0, #2
   21ba8:	4625      	mov	r5, r4
   21baa:	d112      	bne.n	21bd2 <_ZN20complex_full_dynamic3app17h5e922ab2a2872c42E+0x92>
   21bac:	9404      	str	r4, [sp, #16]
   21bae:	2403      	movs	r4, #3
   21bb0:	9802      	ldr	r0, [sp, #8]
   21bb2:	9000      	str	r0, [sp, #0]
   21bb4:	9401      	str	r4, [sp, #4]
   21bb6:	a821      	add	r0, sp, #132	@ 0x84
   21bb8:	2500      	movs	r5, #0
   21bba:	4616      	mov	r6, r2
   21bbc:	4611      	mov	r1, r2
   21bbe:	462a      	mov	r2, r5
   21bc0:	9b03      	ldr	r3, [sp, #12]
   21bc2:	f007 fadd 	bl	29180 <_ZN9allow_pin13dynamic_allow17h8bfd3764c146b81aE>
   21bc6:	9821      	ldr	r0, [sp, #132]	@ 0x84
   21bc8:	2802      	cmp	r0, #2
   21bca:	d10b      	bne.n	21be4 <_ZN20complex_full_dynamic3app17h5e922ab2a2872c42E+0xa4>
   21bcc:	9e22      	ldr	r6, [sp, #136]	@ 0x88
   21bce:	9c04      	ldr	r4, [sp, #16]
   21bd0:	4625      	mov	r5, r4
   21bd2:	2d00      	cmp	r5, #0
   21bd4:	d00d      	beq.n	21bf2 <_ZN20complex_full_dynamic3app17h5e922ab2a2872c42E+0xb2>
   21bd6:	4631      	mov	r1, r6
   21bd8:	9d05      	ldr	r5, [sp, #20]
   21bda:	2c00      	cmp	r4, #0
   21bdc:	d01f      	beq.n	21c1e <_ZN20complex_full_dynamic3app17h5e922ab2a2872c42E+0xde>
   21bde:	6069      	str	r1, [r5, #4]
   21be0:	2001      	movs	r0, #1
   21be2:	e025      	b.n	21c30 <_ZN20complex_full_dynamic3app17h5e922ab2a2872c42E+0xf0>
   21be4:	a814      	add	r0, sp, #80	@ 0x50
   21be6:	7204      	strb	r4, [r0, #8]
   21be8:	9515      	str	r5, [sp, #84]	@ 0x54
   21bea:	9614      	str	r6, [sp, #80]	@ 0x50
   21bec:	9c04      	ldr	r4, [sp, #16]
   21bee:	2d00      	cmp	r5, #0
   21bf0:	d1f1      	bne.n	21bd6 <_ZN20complex_full_dynamic3app17h5e922ab2a2872c42E+0x96>
   21bf2:	4626      	mov	r6, r4
   21bf4:	4813      	ldr	r0, [pc, #76]	@ (21c44 <_ZN20complex_full_dynamic3app17h5e922ab2a2872c42E+0x104>)
   21bf6:	2103      	movs	r1, #3
   21bf8:	2400      	movs	r4, #0
   21bfa:	4622      	mov	r2, r4
   21bfc:	4623      	mov	r3, r4
   21bfe:	df02      	svc	2
   21c00:	287f      	cmp	r0, #127	@ 0x7f
   21c02:	9d05      	ldr	r5, [sp, #20]
   21c04:	d803      	bhi.n	21c0e <_ZN20complex_full_dynamic3app17h5e922ab2a2872c42E+0xce>
   21c06:	4634      	mov	r4, r6
   21c08:	2c00      	cmp	r4, #0
   21c0a:	d1e8      	bne.n	21bde <_ZN20complex_full_dynamic3app17h5e922ab2a2872c42E+0x9e>
   21c0c:	e007      	b.n	21c1e <_ZN20complex_full_dynamic3app17h5e922ab2a2872c42E+0xde>
   21c0e:	a806      	add	r0, sp, #24
   21c10:	f007 faa2 	bl	29158 <_ZN9allow_pin12full_dynamic17unshare_if_shared17hc49b4b2653f8b2c9E>
   21c14:	a814      	add	r0, sp, #80	@ 0x50
   21c16:	f007 fa9f 	bl	29158 <_ZN9allow_pin12full_dynamic17unshare_if_shared17hc49b4b2653f8b2c9E>
   21c1a:	2c00      	cmp	r4, #0
   21c1c:	d1df      	bne.n	21bde <_ZN20complex_full_dynamic3app17h5e922ab2a2872c42E+0x9e>
   21c1e:	a814      	add	r0, sp, #80	@ 0x50
   21c20:	f007 fa9a 	bl	29158 <_ZN9allow_pin12full_dynamic17unshare_if_shared17hc49b4b2653f8b2c9E>
   21c24:	1c68      	adds	r0, r5, #1
   21c26:	2225      	movs	r2, #37	@ 0x25
   21c28:	9903      	ldr	r1, [sp, #12]
   21c2a:	f007 fc6e 	bl	2950a <__aeabi_memcpy>
   21c2e:	2000      	movs	r0, #0
   21c30:	7028      	strb	r0, [r5, #0]
   21c32:	a814      	add	r0, sp, #80	@ 0x50
   21c34:	f007 fa90 	bl	29158 <_ZN9allow_pin12full_dynamic17unshare_if_shared17hc49b4b2653f8b2c9E>
   21c38:	a806      	add	r0, sp, #24
   21c3a:	f007 fa8d 	bl	29158 <_ZN9allow_pin12full_dynamic17unshare_if_shared17hc49b4b2653f8b2c9E>
   21c3e:	b025      	add	sp, #148	@ 0x94
   21c40:	bdf0      	pop	{r4, r5, r6, r7, pc}
   21c42:	46c0      	nop			@ (mov r8, r8)
   21c44:	0000077f 	.word	0x0000077f

00021c48 <_ZN20complex_full_dynamic3app17h5fed3e83259d3467E>:
   21c48:	b5f0      	push	{r4, r5, r6, r7, lr}
   21c4a:	af03      	add	r7, sp, #12
   21c4c:	b0ad      	sub	sp, #180	@ 0xb4
   21c4e:	9006      	str	r0, [sp, #24]
   21c50:	ae07      	add	r6, sp, #28
   21c52:	2002      	movs	r0, #2
   21c54:	9005      	str	r0, [sp, #20]
   21c56:	7230      	strb	r0, [r6, #8]
   21c58:	360c      	adds	r6, #12
   21c5a:	2549      	movs	r5, #73	@ 0x49
   21c5c:	4630      	mov	r0, r6
   21c5e:	462a      	mov	r2, r5
   21c60:	f007 fc53 	bl	2950a <__aeabi_memcpy>
   21c64:	ac1d      	add	r4, sp, #116	@ 0x74
   21c66:	4620      	mov	r0, r4
   21c68:	300c      	adds	r0, #12
   21c6a:	2123      	movs	r1, #35	@ 0x23
   21c6c:	9004      	str	r0, [sp, #16]
   21c6e:	9103      	str	r1, [sp, #12]
   21c70:	f007 fa9e 	bl	291b0 <__aeabi_memclr4>
   21c74:	9805      	ldr	r0, [sp, #20]
   21c76:	7220      	strb	r0, [r4, #8]
   21c78:	2404      	movs	r4, #4
   21c7a:	9500      	str	r5, [sp, #0]
   21c7c:	9401      	str	r4, [sp, #4]
   21c7e:	a829      	add	r0, sp, #164	@ 0xa4
   21c80:	492e      	ldr	r1, [pc, #184]	@ (21d3c <_ZN20complex_full_dynamic3app17h5fed3e83259d3467E+0xf4>)
   21c82:	2507      	movs	r5, #7
   21c84:	462a      	mov	r2, r5
   21c86:	4633      	mov	r3, r6
   21c88:	f007 fa7a 	bl	29180 <_ZN9allow_pin13dynamic_allow17h8bfd3764c146b81aE>
   21c8c:	9829      	ldr	r0, [sp, #164]	@ 0xa4
   21c8e:	2802      	cmp	r0, #2
   21c90:	d102      	bne.n	21c98 <_ZN20complex_full_dynamic3app17h5fed3e83259d3467E+0x50>
   21c92:	992a      	ldr	r1, [sp, #168]	@ 0xa8
   21c94:	4a29      	ldr	r2, [pc, #164]	@ (21d3c <_ZN20complex_full_dynamic3app17h5fed3e83259d3467E+0xf4>)
   21c96:	e004      	b.n	21ca2 <_ZN20complex_full_dynamic3app17h5fed3e83259d3467E+0x5a>
   21c98:	a907      	add	r1, sp, #28
   21c9a:	720c      	strb	r4, [r1, #8]
   21c9c:	9508      	str	r5, [sp, #32]
   21c9e:	4a27      	ldr	r2, [pc, #156]	@ (21d3c <_ZN20complex_full_dynamic3app17h5fed3e83259d3467E+0xf4>)
   21ca0:	9207      	str	r2, [sp, #28]
   21ca2:	2501      	movs	r5, #1
   21ca4:	2802      	cmp	r0, #2
   21ca6:	d02f      	beq.n	21d08 <_ZN20complex_full_dynamic3app17h5fed3e83259d3467E+0xc0>
   21ca8:	a81d      	add	r0, sp, #116	@ 0x74
   21caa:	7a00      	ldrb	r0, [r0, #8]
   21cac:	2802      	cmp	r0, #2
   21cae:	d10f      	bne.n	21cd0 <_ZN20complex_full_dynamic3app17h5fed3e83259d3467E+0x88>
   21cb0:	2603      	movs	r6, #3
   21cb2:	9803      	ldr	r0, [sp, #12]
   21cb4:	9000      	str	r0, [sp, #0]
   21cb6:	9601      	str	r6, [sp, #4]
   21cb8:	a829      	add	r0, sp, #164	@ 0xa4
   21cba:	2401      	movs	r4, #1
   21cbc:	4611      	mov	r1, r2
   21cbe:	4622      	mov	r2, r4
   21cc0:	9b04      	ldr	r3, [sp, #16]
   21cc2:	f007 fa5d 	bl	29180 <_ZN9allow_pin13dynamic_allow17h8bfd3764c146b81aE>
   21cc6:	9829      	ldr	r0, [sp, #164]	@ 0xa4
   21cc8:	2802      	cmp	r0, #2
   21cca:	d106      	bne.n	21cda <_ZN20complex_full_dynamic3app17h5fed3e83259d3467E+0x92>
   21ccc:	992a      	ldr	r1, [sp, #168]	@ 0xa8
   21cce:	e000      	b.n	21cd2 <_ZN20complex_full_dynamic3app17h5fed3e83259d3467E+0x8a>
   21cd0:	2103      	movs	r1, #3
   21cd2:	4628      	mov	r0, r5
   21cd4:	2800      	cmp	r0, #0
   21cd6:	d008      	beq.n	21cea <_ZN20complex_full_dynamic3app17h5fed3e83259d3467E+0xa2>
   21cd8:	e016      	b.n	21d08 <_ZN20complex_full_dynamic3app17h5fed3e83259d3467E+0xc0>
   21cda:	a81d      	add	r0, sp, #116	@ 0x74
   21cdc:	7206      	strb	r6, [r0, #8]
   21cde:	941e      	str	r4, [sp, #120]	@ 0x78
   21ce0:	4816      	ldr	r0, [pc, #88]	@ (21d3c <_ZN20complex_full_dynamic3app17h5fed3e83259d3467E+0xf4>)
   21ce2:	901d      	str	r0, [sp, #116]	@ 0x74
   21ce4:	2000      	movs	r0, #0
   21ce6:	2800      	cmp	r0, #0
   21ce8:	d10e      	bne.n	21d08 <_ZN20complex_full_dynamic3app17h5fed3e83259d3467E+0xc0>
   21cea:	4814      	ldr	r0, [pc, #80]	@ (21d3c <_ZN20complex_full_dynamic3app17h5fed3e83259d3467E+0xf4>)
   21cec:	2107      	movs	r1, #7
   21cee:	2201      	movs	r2, #1
   21cf0:	2400      	movs	r4, #0
   21cf2:	4623      	mov	r3, r4
   21cf4:	df02      	svc	2
   21cf6:	287f      	cmp	r0, #127	@ 0x7f
   21cf8:	d906      	bls.n	21d08 <_ZN20complex_full_dynamic3app17h5fed3e83259d3467E+0xc0>
   21cfa:	a807      	add	r0, sp, #28
   21cfc:	f007 fa2c 	bl	29158 <_ZN9allow_pin12full_dynamic17unshare_if_shared17hc49b4b2653f8b2c9E>
   21d00:	a81d      	add	r0, sp, #116	@ 0x74
   21d02:	f007 fa29 	bl	29158 <_ZN9allow_pin12full_dynamic17unshare_if_shared17hc49b4b2653f8b2c9E>
   21d06:	4625      	mov	r5, r4
   21d08:	2d00      	cmp	r5, #0
   21d0a:	d003      	beq.n	21d14 <_ZN20complex_full_dynamic3app17h5fed3e83259d3467E+0xcc>
   21d0c:	9c06      	ldr	r4, [sp, #24]
   21d0e:	6061      	str	r1, [r4, #4]
   21d10:	2001      	movs	r0, #1
   21d12:	e009      	b.n	21d28 <_ZN20complex_full_dynamic3app17h5fed3e83259d3467E+0xe0>
   21d14:	a81d      	add	r0, sp, #116	@ 0x74
   21d16:	f007 fa1f 	bl	29158 <_ZN9allow_pin12full_dynamic17unshare_if_shared17hc49b4b2653f8b2c9E>
   21d1a:	9c06      	ldr	r4, [sp, #24]
   21d1c:	1c60      	adds	r0, r4, #1
   21d1e:	2223      	movs	r2, #35	@ 0x23
   21d20:	9904      	ldr	r1, [sp, #16]
   21d22:	f007 fbf2 	bl	2950a <__aeabi_memcpy>
   21d26:	2000      	movs	r0, #0
   21d28:	7020      	strb	r0, [r4, #0]
   21d2a:	a81d      	add	r0, sp, #116	@ 0x74
   21d2c:	f007 fa14 	bl	29158 <_ZN9allow_pin12full_dynamic17unshare_if_shared17hc49b4b2653f8b2c9E>
   21d30:	a807      	add	r0, sp, #28
   21d32:	f007 fa11 	bl	29158 <_ZN9allow_pin12full_dynamic17unshare_if_shared17hc49b4b2653f8b2c9E>
   21d36:	b02d      	add	sp, #180	@ 0xb4
   21d38:	bdf0      	pop	{r4, r5, r6, r7, pc}
   21d3a:	46c0      	nop			@ (mov r8, r8)
   21d3c:	00001551 	.word	0x00001551

00021d40 <_ZN20complex_full_dynamic3app17h61e7b1a56a25f3aaE>:
   21d40:	b5f0      	push	{r4, r5, r6, r7, lr}
   21d42:	af03      	add	r7, sp, #12
   21d44:	b0ad      	sub	sp, #180	@ 0xb4
   21d46:	9005      	str	r0, [sp, #20]
   21d48:	ad06      	add	r5, sp, #24
   21d4a:	2002      	movs	r0, #2
   21d4c:	9004      	str	r0, [sp, #16]
   21d4e:	7228      	strb	r0, [r5, #8]
   21d50:	350c      	adds	r5, #12
   21d52:	2648      	movs	r6, #72	@ 0x48
   21d54:	4628      	mov	r0, r5
   21d56:	4632      	mov	r2, r6
   21d58:	f007 fbd7 	bl	2950a <__aeabi_memcpy>
   21d5c:	ac1b      	add	r4, sp, #108	@ 0x6c
   21d5e:	4620      	mov	r0, r4
   21d60:	300c      	adds	r0, #12
   21d62:	2129      	movs	r1, #41	@ 0x29
   21d64:	9003      	str	r0, [sp, #12]
   21d66:	9102      	str	r1, [sp, #8]
   21d68:	f007 fa22 	bl	291b0 <__aeabi_memclr4>
   21d6c:	9804      	ldr	r0, [sp, #16]
   21d6e:	7220      	strb	r0, [r4, #8]
   21d70:	2404      	movs	r4, #4
   21d72:	9600      	str	r6, [sp, #0]
   21d74:	9401      	str	r4, [sp, #4]
   21d76:	a829      	add	r0, sp, #164	@ 0xa4
   21d78:	492e      	ldr	r1, [pc, #184]	@ (21e34 <_ZN20complex_full_dynamic3app17h61e7b1a56a25f3aaE+0xf4>)
   21d7a:	2603      	movs	r6, #3
   21d7c:	4632      	mov	r2, r6
   21d7e:	462b      	mov	r3, r5
   21d80:	f007 f9fe 	bl	29180 <_ZN9allow_pin13dynamic_allow17h8bfd3764c146b81aE>
   21d84:	9829      	ldr	r0, [sp, #164]	@ 0xa4
   21d86:	2802      	cmp	r0, #2
   21d88:	d102      	bne.n	21d90 <_ZN20complex_full_dynamic3app17h61e7b1a56a25f3aaE+0x50>
   21d8a:	992a      	ldr	r1, [sp, #168]	@ 0xa8
   21d8c:	4a29      	ldr	r2, [pc, #164]	@ (21e34 <_ZN20complex_full_dynamic3app17h61e7b1a56a25f3aaE+0xf4>)
   21d8e:	e004      	b.n	21d9a <_ZN20complex_full_dynamic3app17h61e7b1a56a25f3aaE+0x5a>
   21d90:	a906      	add	r1, sp, #24
   21d92:	720c      	strb	r4, [r1, #8]
   21d94:	9607      	str	r6, [sp, #28]
   21d96:	4a27      	ldr	r2, [pc, #156]	@ (21e34 <_ZN20complex_full_dynamic3app17h61e7b1a56a25f3aaE+0xf4>)
   21d98:	9206      	str	r2, [sp, #24]
   21d9a:	2501      	movs	r5, #1
   21d9c:	2802      	cmp	r0, #2
   21d9e:	d02f      	beq.n	21e00 <_ZN20complex_full_dynamic3app17h61e7b1a56a25f3aaE+0xc0>
   21da0:	a81b      	add	r0, sp, #108	@ 0x6c
   21da2:	7a00      	ldrb	r0, [r0, #8]
   21da4:	2802      	cmp	r0, #2
   21da6:	4628      	mov	r0, r5
   21da8:	d10f      	bne.n	21dca <_ZN20complex_full_dynamic3app17h61e7b1a56a25f3aaE+0x8a>
   21daa:	2603      	movs	r6, #3
   21dac:	9802      	ldr	r0, [sp, #8]
   21dae:	9000      	str	r0, [sp, #0]
   21db0:	9601      	str	r6, [sp, #4]
   21db2:	a829      	add	r0, sp, #164	@ 0xa4
   21db4:	2404      	movs	r4, #4
   21db6:	4611      	mov	r1, r2
   21db8:	4622      	mov	r2, r4
   21dba:	9b03      	ldr	r3, [sp, #12]
   21dbc:	f007 f9e0 	bl	29180 <_ZN9allow_pin13dynamic_allow17h8bfd3764c146b81aE>
   21dc0:	9829      	ldr	r0, [sp, #164]	@ 0xa4
   21dc2:	2802      	cmp	r0, #2
   21dc4:	d105      	bne.n	21dd2 <_ZN20complex_full_dynamic3app17h61e7b1a56a25f3aaE+0x92>
   21dc6:	9e2a      	ldr	r6, [sp, #168]	@ 0xa8
   21dc8:	4628      	mov	r0, r5
   21dca:	2800      	cmp	r0, #0
   21dcc:	d009      	beq.n	21de2 <_ZN20complex_full_dynamic3app17h61e7b1a56a25f3aaE+0xa2>
   21dce:	4631      	mov	r1, r6
   21dd0:	e016      	b.n	21e00 <_ZN20complex_full_dynamic3app17h61e7b1a56a25f3aaE+0xc0>
   21dd2:	a81b      	add	r0, sp, #108	@ 0x6c
   21dd4:	7206      	strb	r6, [r0, #8]
   21dd6:	941c      	str	r4, [sp, #112]	@ 0x70
   21dd8:	4816      	ldr	r0, [pc, #88]	@ (21e34 <_ZN20complex_full_dynamic3app17h61e7b1a56a25f3aaE+0xf4>)
   21dda:	901b      	str	r0, [sp, #108]	@ 0x6c
   21ddc:	2000      	movs	r0, #0
   21dde:	2800      	cmp	r0, #0
   21de0:	d1f5      	bne.n	21dce <_ZN20complex_full_dynamic3app17h61e7b1a56a25f3aaE+0x8e>
   21de2:	4814      	ldr	r0, [pc, #80]	@ (21e34 <_ZN20complex_full_dynamic3app17h61e7b1a56a25f3aaE+0xf4>)
   21de4:	2103      	movs	r1, #3
   21de6:	2204      	movs	r2, #4
   21de8:	2400      	movs	r4, #0
   21dea:	4623      	mov	r3, r4
   21dec:	df02      	svc	2
   21dee:	287f      	cmp	r0, #127	@ 0x7f
   21df0:	d906      	bls.n	21e00 <_ZN20complex_full_dynamic3app17h61e7b1a56a25f3aaE+0xc0>
   21df2:	a806      	add	r0, sp, #24
   21df4:	f007 f9b0 	bl	29158 <_ZN9allow_pin12full_dynamic17unshare_if_shared17hc49b4b2653f8b2c9E>
   21df8:	a81b      	add	r0, sp, #108	@ 0x6c
   21dfa:	f007 f9ad 	bl	29158 <_ZN9allow_pin12full_dynamic17unshare_if_shared17hc49b4b2653f8b2c9E>
   21dfe:	4625      	mov	r5, r4
   21e00:	2d00      	cmp	r5, #0
   21e02:	d003      	beq.n	21e0c <_ZN20complex_full_dynamic3app17h61e7b1a56a25f3aaE+0xcc>
   21e04:	9c05      	ldr	r4, [sp, #20]
   21e06:	6061      	str	r1, [r4, #4]
   21e08:	2001      	movs	r0, #1
   21e0a:	e009      	b.n	21e20 <_ZN20complex_full_dynamic3app17h61e7b1a56a25f3aaE+0xe0>
   21e0c:	a81b      	add	r0, sp, #108	@ 0x6c
   21e0e:	f007 f9a3 	bl	29158 <_ZN9allow_pin12full_dynamic17unshare_if_shared17hc49b4b2653f8b2c9E>
   21e12:	9c05      	ldr	r4, [sp, #20]
   21e14:	1c60      	adds	r0, r4, #1
   21e16:	2229      	movs	r2, #41	@ 0x29
   21e18:	9903      	ldr	r1, [sp, #12]
   21e1a:	f007 fb76 	bl	2950a <__aeabi_memcpy>
   21e1e:	2000      	movs	r0, #0
   21e20:	7020      	strb	r0, [r4, #0]
   21e22:	a81b      	add	r0, sp, #108	@ 0x6c
   21e24:	f007 f998 	bl	29158 <_ZN9allow_pin12full_dynamic17unshare_if_shared17hc49b4b2653f8b2c9E>
   21e28:	a806      	add	r0, sp, #24
   21e2a:	f007 f995 	bl	29158 <_ZN9allow_pin12full_dynamic17unshare_if_shared17hc49b4b2653f8b2c9E>
   21e2e:	b02d      	add	sp, #180	@ 0xb4
   21e30:	bdf0      	pop	{r4, r5, r6, r7, pc}
   21e32:	46c0      	nop			@ (mov r8, r8)
   21e34:	000026a4 	.word	0x000026a4

00021e38 <_ZN20complex_full_dynamic3app17h631a1f1f9bff17a7E>:
   21e38:	b5f0      	push	{r4, r5, r6, r7, lr}
   21e3a:	af03      	add	r7, sp, #12
   21e3c:	b0a5      	sub	sp, #148	@ 0x94
   21e3e:	9006      	str	r0, [sp, #24]
   21e40:	ac07      	add	r4, sp, #28
   21e42:	2002      	movs	r0, #2
   21e44:	9005      	str	r0, [sp, #20]
   21e46:	7220      	strb	r0, [r4, #8]
   21e48:	340c      	adds	r4, #12
   21e4a:	2518      	movs	r5, #24
   21e4c:	4620      	mov	r0, r4
   21e4e:	462a      	mov	r2, r5
   21e50:	f007 fb5b 	bl	2950a <__aeabi_memcpy>
   21e54:	ae10      	add	r6, sp, #64	@ 0x40
   21e56:	4630      	mov	r0, r6
   21e58:	300c      	adds	r0, #12
   21e5a:	2136      	movs	r1, #54	@ 0x36
   21e5c:	9004      	str	r0, [sp, #16]
   21e5e:	9103      	str	r1, [sp, #12]
   21e60:	f007 f9a6 	bl	291b0 <__aeabi_memclr4>
   21e64:	9805      	ldr	r0, [sp, #20]
   21e66:	7230      	strb	r0, [r6, #8]
   21e68:	2004      	movs	r0, #4
   21e6a:	9500      	str	r5, [sp, #0]
   21e6c:	9005      	str	r0, [sp, #20]
   21e6e:	9001      	str	r0, [sp, #4]
   21e70:	a821      	add	r0, sp, #132	@ 0x84
   21e72:	25f3      	movs	r5, #243	@ 0xf3
   21e74:	2608      	movs	r6, #8
   21e76:	4629      	mov	r1, r5
   21e78:	4632      	mov	r2, r6
   21e7a:	4623      	mov	r3, r4
   21e7c:	f007 f980 	bl	29180 <_ZN9allow_pin13dynamic_allow17h8bfd3764c146b81aE>
   21e80:	9821      	ldr	r0, [sp, #132]	@ 0x84
   21e82:	2802      	cmp	r0, #2
   21e84:	d101      	bne.n	21e8a <_ZN20complex_full_dynamic3app17h631a1f1f9bff17a7E+0x52>
   21e86:	9922      	ldr	r1, [sp, #136]	@ 0x88
   21e88:	e004      	b.n	21e94 <_ZN20complex_full_dynamic3app17h631a1f1f9bff17a7E+0x5c>
   21e8a:	a907      	add	r1, sp, #28
   21e8c:	9a05      	ldr	r2, [sp, #20]
   21e8e:	720a      	strb	r2, [r1, #8]
   21e90:	9608      	str	r6, [sp, #32]
   21e92:	9507      	str	r5, [sp, #28]
   21e94:	2601      	movs	r6, #1
   21e96:	2802      	cmp	r0, #2
   21e98:	d02f      	beq.n	21efa <_ZN20complex_full_dynamic3app17h631a1f1f9bff17a7E+0xc2>
   21e9a:	a810      	add	r0, sp, #64	@ 0x40
   21e9c:	7a00      	ldrb	r0, [r0, #8]
   21e9e:	2103      	movs	r1, #3
   21ea0:	2802      	cmp	r0, #2
   21ea2:	d10f      	bne.n	21ec4 <_ZN20complex_full_dynamic3app17h631a1f1f9bff17a7E+0x8c>
   21ea4:	9803      	ldr	r0, [sp, #12]
   21ea6:	9000      	str	r0, [sp, #0]
   21ea8:	9105      	str	r1, [sp, #20]
   21eaa:	9101      	str	r1, [sp, #4]
   21eac:	a821      	add	r0, sp, #132	@ 0x84
   21eae:	24f3      	movs	r4, #243	@ 0xf3
   21eb0:	2504      	movs	r5, #4
   21eb2:	4621      	mov	r1, r4
   21eb4:	462a      	mov	r2, r5
   21eb6:	9b04      	ldr	r3, [sp, #16]
   21eb8:	f007 f962 	bl	29180 <_ZN9allow_pin13dynamic_allow17h8bfd3764c146b81aE>
   21ebc:	9821      	ldr	r0, [sp, #132]	@ 0x84
   21ebe:	2802      	cmp	r0, #2
   21ec0:	d104      	bne.n	21ecc <_ZN20complex_full_dynamic3app17h631a1f1f9bff17a7E+0x94>
   21ec2:	9922      	ldr	r1, [sp, #136]	@ 0x88
   21ec4:	4630      	mov	r0, r6
   21ec6:	2800      	cmp	r0, #0
   21ec8:	d008      	beq.n	21edc <_ZN20complex_full_dynamic3app17h631a1f1f9bff17a7E+0xa4>
   21eca:	e016      	b.n	21efa <_ZN20complex_full_dynamic3app17h631a1f1f9bff17a7E+0xc2>
   21ecc:	a810      	add	r0, sp, #64	@ 0x40
   21ece:	9905      	ldr	r1, [sp, #20]
   21ed0:	7201      	strb	r1, [r0, #8]
   21ed2:	9511      	str	r5, [sp, #68]	@ 0x44
   21ed4:	9410      	str	r4, [sp, #64]	@ 0x40
   21ed6:	2000      	movs	r0, #0
   21ed8:	2800      	cmp	r0, #0
   21eda:	d10e      	bne.n	21efa <_ZN20complex_full_dynamic3app17h631a1f1f9bff17a7E+0xc2>
   21edc:	20f3      	movs	r0, #243	@ 0xf3
   21ede:	2108      	movs	r1, #8
   21ee0:	2204      	movs	r2, #4
   21ee2:	2400      	movs	r4, #0
   21ee4:	4623      	mov	r3, r4
   21ee6:	df02      	svc	2
   21ee8:	287f      	cmp	r0, #127	@ 0x7f
   21eea:	d906      	bls.n	21efa <_ZN20complex_full_dynamic3app17h631a1f1f9bff17a7E+0xc2>
   21eec:	a807      	add	r0, sp, #28
   21eee:	f007 f933 	bl	29158 <_ZN9allow_pin12full_dynamic17unshare_if_shared17hc49b4b2653f8b2c9E>
   21ef2:	a810      	add	r0, sp, #64	@ 0x40
   21ef4:	f007 f930 	bl	29158 <_ZN9allow_pin12full_dynamic17unshare_if_shared17hc49b4b2653f8b2c9E>
   21ef8:	4626      	mov	r6, r4
   21efa:	2e00      	cmp	r6, #0
   21efc:	d003      	beq.n	21f06 <_ZN20complex_full_dynamic3app17h631a1f1f9bff17a7E+0xce>
   21efe:	9c06      	ldr	r4, [sp, #24]
   21f00:	6061      	str	r1, [r4, #4]
   21f02:	2001      	movs	r0, #1
   21f04:	e009      	b.n	21f1a <_ZN20complex_full_dynamic3app17h631a1f1f9bff17a7E+0xe2>
   21f06:	a810      	add	r0, sp, #64	@ 0x40
   21f08:	f007 f926 	bl	29158 <_ZN9allow_pin12full_dynamic17unshare_if_shared17hc49b4b2653f8b2c9E>
   21f0c:	9c06      	ldr	r4, [sp, #24]
   21f0e:	1c60      	adds	r0, r4, #1
   21f10:	2236      	movs	r2, #54	@ 0x36
   21f12:	9904      	ldr	r1, [sp, #16]
   21f14:	f007 faf9 	bl	2950a <__aeabi_memcpy>
   21f18:	2000      	movs	r0, #0
   21f1a:	7020      	strb	r0, [r4, #0]
   21f1c:	a810      	add	r0, sp, #64	@ 0x40
   21f1e:	f007 f91b 	bl	29158 <_ZN9allow_pin12full_dynamic17unshare_if_shared17hc49b4b2653f8b2c9E>
   21f22:	a807      	add	r0, sp, #28
   21f24:	f007 f918 	bl	29158 <_ZN9allow_pin12full_dynamic17unshare_if_shared17hc49b4b2653f8b2c9E>
   21f28:	b025      	add	sp, #148	@ 0x94
   21f2a:	bdf0      	pop	{r4, r5, r6, r7, pc}

00021f2c <_ZN20complex_full_dynamic3app17h64de56ca14389e5cE>:
   21f2c:	b5f0      	push	{r4, r5, r6, r7, lr}
   21f2e:	af03      	add	r7, sp, #12
   21f30:	b0a9      	sub	sp, #164	@ 0xa4
   21f32:	9004      	str	r0, [sp, #16]
   21f34:	ad05      	add	r5, sp, #20
   21f36:	2002      	movs	r0, #2
   21f38:	9003      	str	r0, [sp, #12]
   21f3a:	7228      	strb	r0, [r5, #8]
   21f3c:	350c      	adds	r5, #12
   21f3e:	2432      	movs	r4, #50	@ 0x32
   21f40:	4628      	mov	r0, r5
   21f42:	4622      	mov	r2, r4
   21f44:	f007 fae1 	bl	2950a <__aeabi_memcpy>
   21f48:	ae15      	add	r6, sp, #84	@ 0x54
   21f4a:	4630      	mov	r0, r6
   21f4c:	300c      	adds	r0, #12
   21f4e:	9002      	str	r0, [sp, #8]
   21f50:	4621      	mov	r1, r4
   21f52:	f007 f92d 	bl	291b0 <__aeabi_memclr4>
   21f56:	9803      	ldr	r0, [sp, #12]
   21f58:	7230      	strb	r0, [r6, #8]
   21f5a:	4620      	mov	r0, r4
   21f5c:	2404      	movs	r4, #4
   21f5e:	9003      	str	r0, [sp, #12]
   21f60:	9000      	str	r0, [sp, #0]
   21f62:	9401      	str	r4, [sp, #4]
   21f64:	a825      	add	r0, sp, #148	@ 0x94
   21f66:	4930      	ldr	r1, [pc, #192]	@ (22028 <_ZN20complex_full_dynamic3app17h64de56ca14389e5cE+0xfc>)
   21f68:	2603      	movs	r6, #3
   21f6a:	4632      	mov	r2, r6
   21f6c:	462b      	mov	r3, r5
   21f6e:	f007 f907 	bl	29180 <_ZN9allow_pin13dynamic_allow17h8bfd3764c146b81aE>
   21f72:	9825      	ldr	r0, [sp, #148]	@ 0x94
   21f74:	2802      	cmp	r0, #2
   21f76:	d102      	bne.n	21f7e <_ZN20complex_full_dynamic3app17h64de56ca14389e5cE+0x52>
   21f78:	4a2b      	ldr	r2, [pc, #172]	@ (22028 <_ZN20complex_full_dynamic3app17h64de56ca14389e5cE+0xfc>)
   21f7a:	9926      	ldr	r1, [sp, #152]	@ 0x98
   21f7c:	e005      	b.n	21f8a <_ZN20complex_full_dynamic3app17h64de56ca14389e5cE+0x5e>
   21f7e:	a905      	add	r1, sp, #20
   21f80:	720c      	strb	r4, [r1, #8]
   21f82:	9606      	str	r6, [sp, #24]
   21f84:	4928      	ldr	r1, [pc, #160]	@ (22028 <_ZN20complex_full_dynamic3app17h64de56ca14389e5cE+0xfc>)
   21f86:	460a      	mov	r2, r1
   21f88:	9105      	str	r1, [sp, #20]
   21f8a:	2501      	movs	r5, #1
   21f8c:	2802      	cmp	r0, #2
   21f8e:	d031      	beq.n	21ff4 <_ZN20complex_full_dynamic3app17h64de56ca14389e5cE+0xc8>
   21f90:	a815      	add	r0, sp, #84	@ 0x54
   21f92:	7a00      	ldrb	r0, [r0, #8]
   21f94:	2802      	cmp	r0, #2
   21f96:	4628      	mov	r0, r5
   21f98:	d111      	bne.n	21fbe <_ZN20complex_full_dynamic3app17h64de56ca14389e5cE+0x92>
   21f9a:	2103      	movs	r1, #3
   21f9c:	9803      	ldr	r0, [sp, #12]
   21f9e:	9000      	str	r0, [sp, #0]
   21fa0:	9103      	str	r1, [sp, #12]
   21fa2:	9101      	str	r1, [sp, #4]
   21fa4:	a825      	add	r0, sp, #148	@ 0x94
   21fa6:	2401      	movs	r4, #1
   21fa8:	4616      	mov	r6, r2
   21faa:	4611      	mov	r1, r2
   21fac:	4622      	mov	r2, r4
   21fae:	9b02      	ldr	r3, [sp, #8]
   21fb0:	f007 f8e6 	bl	29180 <_ZN9allow_pin13dynamic_allow17h8bfd3764c146b81aE>
   21fb4:	9825      	ldr	r0, [sp, #148]	@ 0x94
   21fb6:	2802      	cmp	r0, #2
   21fb8:	d105      	bne.n	21fc6 <_ZN20complex_full_dynamic3app17h64de56ca14389e5cE+0x9a>
   21fba:	9e26      	ldr	r6, [sp, #152]	@ 0x98
   21fbc:	4628      	mov	r0, r5
   21fbe:	2800      	cmp	r0, #0
   21fc0:	d009      	beq.n	21fd6 <_ZN20complex_full_dynamic3app17h64de56ca14389e5cE+0xaa>
   21fc2:	4631      	mov	r1, r6
   21fc4:	e016      	b.n	21ff4 <_ZN20complex_full_dynamic3app17h64de56ca14389e5cE+0xc8>
   21fc6:	a815      	add	r0, sp, #84	@ 0x54
   21fc8:	9903      	ldr	r1, [sp, #12]
   21fca:	7201      	strb	r1, [r0, #8]
   21fcc:	9416      	str	r4, [sp, #88]	@ 0x58
   21fce:	9615      	str	r6, [sp, #84]	@ 0x54
   21fd0:	2000      	movs	r0, #0
   21fd2:	2800      	cmp	r0, #0
   21fd4:	d1f5      	bne.n	21fc2 <_ZN20complex_full_dynamic3app17h64de56ca14389e5cE+0x96>
   21fd6:	4814      	ldr	r0, [pc, #80]	@ (22028 <_ZN20complex_full_dynamic3app17h64de56ca14389e5cE+0xfc>)
   21fd8:	2103      	movs	r1, #3
   21fda:	2201      	movs	r2, #1
   21fdc:	2400      	movs	r4, #0
   21fde:	4623      	mov	r3, r4
   21fe0:	df02      	svc	2
   21fe2:	287f      	cmp	r0, #127	@ 0x7f
   21fe4:	d906      	bls.n	21ff4 <_ZN20complex_full_dynamic3app17h64de56ca14389e5cE+0xc8>
   21fe6:	a805      	add	r0, sp, #20
   21fe8:	f007 f8b6 	bl	29158 <_ZN9allow_pin12full_dynamic17unshare_if_shared17hc49b4b2653f8b2c9E>
   21fec:	a815      	add	r0, sp, #84	@ 0x54
   21fee:	f007 f8b3 	bl	29158 <_ZN9allow_pin12full_dynamic17unshare_if_shared17hc49b4b2653f8b2c9E>
   21ff2:	4625      	mov	r5, r4
   21ff4:	2d00      	cmp	r5, #0
   21ff6:	d003      	beq.n	22000 <_ZN20complex_full_dynamic3app17h64de56ca14389e5cE+0xd4>
   21ff8:	9c04      	ldr	r4, [sp, #16]
   21ffa:	6061      	str	r1, [r4, #4]
   21ffc:	2001      	movs	r0, #1
   21ffe:	e009      	b.n	22014 <_ZN20complex_full_dynamic3app17h64de56ca14389e5cE+0xe8>
   22000:	a815      	add	r0, sp, #84	@ 0x54
   22002:	f007 f8a9 	bl	29158 <_ZN9allow_pin12full_dynamic17unshare_if_shared17hc49b4b2653f8b2c9E>
   22006:	9c04      	ldr	r4, [sp, #16]
   22008:	1c60      	adds	r0, r4, #1
   2200a:	2232      	movs	r2, #50	@ 0x32
   2200c:	9902      	ldr	r1, [sp, #8]
   2200e:	f007 fa7c 	bl	2950a <__aeabi_memcpy>
   22012:	2000      	movs	r0, #0
   22014:	7020      	strb	r0, [r4, #0]
   22016:	a815      	add	r0, sp, #84	@ 0x54
   22018:	f007 f89e 	bl	29158 <_ZN9allow_pin12full_dynamic17unshare_if_shared17hc49b4b2653f8b2c9E>
   2201c:	a805      	add	r0, sp, #20
   2201e:	f007 f89b 	bl	29158 <_ZN9allow_pin12full_dynamic17unshare_if_shared17hc49b4b2653f8b2c9E>
   22022:	b029      	add	sp, #164	@ 0xa4
   22024:	bdf0      	pop	{r4, r5, r6, r7, pc}
   22026:	46c0      	nop			@ (mov r8, r8)
   22028:	00001f07 	.word	0x00001f07

0002202c <_ZN20complex_full_dynamic3app17h6529b8907cd3157dE>:
   2202c:	b5f0      	push	{r4, r5, r6, r7, lr}
   2202e:	af03      	add	r7, sp, #12
   22030:	b0ad      	sub	sp, #180	@ 0xb4
   22032:	9005      	str	r0, [sp, #20]
   22034:	ad06      	add	r5, sp, #24
   22036:	2402      	movs	r4, #2
   22038:	722c      	strb	r4, [r5, #8]
   2203a:	350c      	adds	r5, #12
   2203c:	221e      	movs	r2, #30
   2203e:	9204      	str	r2, [sp, #16]
   22040:	4628      	mov	r0, r5
   22042:	f007 fa62 	bl	2950a <__aeabi_memcpy>
   22046:	ae11      	add	r6, sp, #68	@ 0x44
   22048:	4630      	mov	r0, r6
   2204a:	300c      	adds	r0, #12
   2204c:	2151      	movs	r1, #81	@ 0x51
   2204e:	9003      	str	r0, [sp, #12]
   22050:	9102      	str	r1, [sp, #8]
   22052:	f007 f8ad 	bl	291b0 <__aeabi_memclr4>
   22056:	7234      	strb	r4, [r6, #8]
   22058:	4626      	mov	r6, r4
   2205a:	2004      	movs	r0, #4
   2205c:	9904      	ldr	r1, [sp, #16]
   2205e:	9100      	str	r1, [sp, #0]
   22060:	9004      	str	r0, [sp, #16]
   22062:	9001      	str	r0, [sp, #4]
   22064:	a829      	add	r0, sp, #164	@ 0xa4
   22066:	4c2d      	ldr	r4, [pc, #180]	@ (2211c <_ZN20complex_full_dynamic3app17h6529b8907cd3157dE+0xf0>)
   22068:	4621      	mov	r1, r4
   2206a:	4632      	mov	r2, r6
   2206c:	462b      	mov	r3, r5
   2206e:	f007 f887 	bl	29180 <_ZN9allow_pin13dynamic_allow17h8bfd3764c146b81aE>
   22072:	9829      	ldr	r0, [sp, #164]	@ 0xa4
   22074:	2802      	cmp	r0, #2
   22076:	d101      	bne.n	2207c <_ZN20complex_full_dynamic3app17h6529b8907cd3157dE+0x50>
   22078:	992a      	ldr	r1, [sp, #168]	@ 0xa8
   2207a:	e004      	b.n	22086 <_ZN20complex_full_dynamic3app17h6529b8907cd3157dE+0x5a>
   2207c:	a906      	add	r1, sp, #24
   2207e:	9a04      	ldr	r2, [sp, #16]
   22080:	720a      	strb	r2, [r1, #8]
   22082:	9607      	str	r6, [sp, #28]
   22084:	9406      	str	r4, [sp, #24]
   22086:	2501      	movs	r5, #1
   22088:	2802      	cmp	r0, #2
   2208a:	d02e      	beq.n	220ea <_ZN20complex_full_dynamic3app17h6529b8907cd3157dE+0xbe>
   2208c:	a811      	add	r0, sp, #68	@ 0x44
   2208e:	7a00      	ldrb	r0, [r0, #8]
   22090:	2802      	cmp	r0, #2
   22092:	d10f      	bne.n	220b4 <_ZN20complex_full_dynamic3app17h6529b8907cd3157dE+0x88>
   22094:	2603      	movs	r6, #3
   22096:	9802      	ldr	r0, [sp, #8]
   22098:	9000      	str	r0, [sp, #0]
   2209a:	9601      	str	r6, [sp, #4]
   2209c:	a829      	add	r0, sp, #164	@ 0xa4
   2209e:	4621      	mov	r1, r4
   220a0:	2400      	movs	r4, #0
   220a2:	4622      	mov	r2, r4
   220a4:	9b03      	ldr	r3, [sp, #12]
   220a6:	f007 f86b 	bl	29180 <_ZN9allow_pin13dynamic_allow17h8bfd3764c146b81aE>
   220aa:	9829      	ldr	r0, [sp, #164]	@ 0xa4
   220ac:	2802      	cmp	r0, #2
   220ae:	d106      	bne.n	220be <_ZN20complex_full_dynamic3app17h6529b8907cd3157dE+0x92>
   220b0:	992a      	ldr	r1, [sp, #168]	@ 0xa8
   220b2:	e000      	b.n	220b6 <_ZN20complex_full_dynamic3app17h6529b8907cd3157dE+0x8a>
   220b4:	2103      	movs	r1, #3
   220b6:	462c      	mov	r4, r5
   220b8:	2c00      	cmp	r4, #0
   220ba:	d007      	beq.n	220cc <_ZN20complex_full_dynamic3app17h6529b8907cd3157dE+0xa0>
   220bc:	e015      	b.n	220ea <_ZN20complex_full_dynamic3app17h6529b8907cd3157dE+0xbe>
   220be:	a811      	add	r0, sp, #68	@ 0x44
   220c0:	7206      	strb	r6, [r0, #8]
   220c2:	9412      	str	r4, [sp, #72]	@ 0x48
   220c4:	4815      	ldr	r0, [pc, #84]	@ (2211c <_ZN20complex_full_dynamic3app17h6529b8907cd3157dE+0xf0>)
   220c6:	9011      	str	r0, [sp, #68]	@ 0x44
   220c8:	2c00      	cmp	r4, #0
   220ca:	d10e      	bne.n	220ea <_ZN20complex_full_dynamic3app17h6529b8907cd3157dE+0xbe>
   220cc:	4813      	ldr	r0, [pc, #76]	@ (2211c <_ZN20complex_full_dynamic3app17h6529b8907cd3157dE+0xf0>)
   220ce:	2102      	movs	r1, #2
   220d0:	2400      	movs	r4, #0
   220d2:	4622      	mov	r2, r4
   220d4:	4623      	mov	r3, r4
   220d6:	df02      	svc	2
   220d8:	287f      	cmp	r0, #127	@ 0x7f
   220da:	d906      	bls.n	220ea <_ZN20complex_full_dynamic3app17h6529b8907cd3157dE+0xbe>
   220dc:	a806      	add	r0, sp, #24
   220de:	f007 f83b 	bl	29158 <_ZN9allow_pin12full_dynamic17unshare_if_shared17hc49b4b2653f8b2c9E>
   220e2:	a811      	add	r0, sp, #68	@ 0x44
   220e4:	f007 f838 	bl	29158 <_ZN9allow_pin12full_dynamic17unshare_if_shared17hc49b4b2653f8b2c9E>
   220e8:	4625      	mov	r5, r4
   220ea:	2d00      	cmp	r5, #0
   220ec:	d003      	beq.n	220f6 <_ZN20complex_full_dynamic3app17h6529b8907cd3157dE+0xca>
   220ee:	9c05      	ldr	r4, [sp, #20]
   220f0:	6061      	str	r1, [r4, #4]
   220f2:	2001      	movs	r0, #1
   220f4:	e009      	b.n	2210a <_ZN20complex_full_dynamic3app17h6529b8907cd3157dE+0xde>
   220f6:	a811      	add	r0, sp, #68	@ 0x44
   220f8:	f007 f82e 	bl	29158 <_ZN9allow_pin12full_dynamic17unshare_if_shared17hc49b4b2653f8b2c9E>
   220fc:	9c05      	ldr	r4, [sp, #20]
   220fe:	1c60      	adds	r0, r4, #1
   22100:	2251      	movs	r2, #81	@ 0x51
   22102:	9903      	ldr	r1, [sp, #12]
   22104:	f007 fa01 	bl	2950a <__aeabi_memcpy>
   22108:	2000      	movs	r0, #0
   2210a:	7020      	strb	r0, [r4, #0]
   2210c:	a811      	add	r0, sp, #68	@ 0x44
   2210e:	f007 f823 	bl	29158 <_ZN9allow_pin12full_dynamic17unshare_if_shared17hc49b4b2653f8b2c9E>
   22112:	a806      	add	r0, sp, #24
   22114:	f007 f820 	bl	29158 <_ZN9allow_pin12full_dynamic17unshare_if_shared17hc49b4b2653f8b2c9E>
   22118:	b02d      	add	sp, #180	@ 0xb4
   2211a:	bdf0      	pop	{r4, r5, r6, r7, pc}
   2211c:	0000196b 	.word	0x0000196b

00022120 <_ZN20complex_full_dynamic3app17h664dc4f933b3d461E>:
   22120:	b5f0      	push	{r4, r5, r6, r7, lr}
   22122:	af03      	add	r7, sp, #12
   22124:	b0a9      	sub	sp, #164	@ 0xa4
   22126:	9005      	str	r0, [sp, #20]
   22128:	ae06      	add	r6, sp, #24
   2212a:	2002      	movs	r0, #2
   2212c:	9004      	str	r0, [sp, #16]
   2212e:	7230      	strb	r0, [r6, #8]
   22130:	360c      	adds	r6, #12
   22132:	253b      	movs	r5, #59	@ 0x3b
   22134:	4630      	mov	r0, r6
   22136:	462a      	mov	r2, r5
   22138:	f007 f9e7 	bl	2950a <__aeabi_memcpy>
   2213c:	ac18      	add	r4, sp, #96	@ 0x60
   2213e:	4620      	mov	r0, r4
   22140:	300c      	adds	r0, #12
   22142:	2127      	movs	r1, #39	@ 0x27
   22144:	9003      	str	r0, [sp, #12]
   22146:	9102      	str	r1, [sp, #8]
   22148:	f007 f832 	bl	291b0 <__aeabi_memclr4>
   2214c:	9804      	ldr	r0, [sp, #16]
   2214e:	7220      	strb	r0, [r4, #8]
   22150:	2404      	movs	r4, #4
   22152:	9500      	str	r5, [sp, #0]
   22154:	9401      	str	r4, [sp, #4]
   22156:	a825      	add	r0, sp, #148	@ 0x94
   22158:	492d      	ldr	r1, [pc, #180]	@ (22210 <_ZN20complex_full_dynamic3app17h664dc4f933b3d461E+0xf0>)
   2215a:	2505      	movs	r5, #5
   2215c:	462a      	mov	r2, r5
   2215e:	4633      	mov	r3, r6
   22160:	f007 f80e 	bl	29180 <_ZN9allow_pin13dynamic_allow17h8bfd3764c146b81aE>
   22164:	9825      	ldr	r0, [sp, #148]	@ 0x94
   22166:	2802      	cmp	r0, #2
   22168:	d102      	bne.n	22170 <_ZN20complex_full_dynamic3app17h664dc4f933b3d461E+0x50>
   2216a:	9926      	ldr	r1, [sp, #152]	@ 0x98
   2216c:	4c28      	ldr	r4, [pc, #160]	@ (22210 <_ZN20complex_full_dynamic3app17h664dc4f933b3d461E+0xf0>)
   2216e:	e004      	b.n	2217a <_ZN20complex_full_dynamic3app17h664dc4f933b3d461E+0x5a>
   22170:	a906      	add	r1, sp, #24
   22172:	720c      	strb	r4, [r1, #8]
   22174:	9507      	str	r5, [sp, #28]
   22176:	4c26      	ldr	r4, [pc, #152]	@ (22210 <_ZN20complex_full_dynamic3app17h664dc4f933b3d461E+0xf0>)
   22178:	9406      	str	r4, [sp, #24]
   2217a:	2601      	movs	r6, #1
   2217c:	2802      	cmp	r0, #2
   2217e:	d02d      	beq.n	221dc <_ZN20complex_full_dynamic3app17h664dc4f933b3d461E+0xbc>
   22180:	a818      	add	r0, sp, #96	@ 0x60
   22182:	7a00      	ldrb	r0, [r0, #8]
   22184:	2802      	cmp	r0, #2
   22186:	d10e      	bne.n	221a6 <_ZN20complex_full_dynamic3app17h664dc4f933b3d461E+0x86>
   22188:	2503      	movs	r5, #3
   2218a:	9802      	ldr	r0, [sp, #8]
   2218c:	9000      	str	r0, [sp, #0]
   2218e:	9501      	str	r5, [sp, #4]
   22190:	a825      	add	r0, sp, #148	@ 0x94
   22192:	4621      	mov	r1, r4
   22194:	462a      	mov	r2, r5
   22196:	9b03      	ldr	r3, [sp, #12]
   22198:	f006 fff2 	bl	29180 <_ZN9allow_pin13dynamic_allow17h8bfd3764c146b81aE>
   2219c:	9825      	ldr	r0, [sp, #148]	@ 0x94
   2219e:	2802      	cmp	r0, #2
   221a0:	d106      	bne.n	221b0 <_ZN20complex_full_dynamic3app17h664dc4f933b3d461E+0x90>
   221a2:	9926      	ldr	r1, [sp, #152]	@ 0x98
   221a4:	e000      	b.n	221a8 <_ZN20complex_full_dynamic3app17h664dc4f933b3d461E+0x88>
   221a6:	2103      	movs	r1, #3
   221a8:	4630      	mov	r0, r6
   221aa:	2800      	cmp	r0, #0
   221ac:	d007      	beq.n	221be <_ZN20complex_full_dynamic3app17h664dc4f933b3d461E+0x9e>
   221ae:	e015      	b.n	221dc <_ZN20complex_full_dynamic3app17h664dc4f933b3d461E+0xbc>
   221b0:	a818      	add	r0, sp, #96	@ 0x60
   221b2:	7205      	strb	r5, [r0, #8]
   221b4:	9519      	str	r5, [sp, #100]	@ 0x64
   221b6:	9418      	str	r4, [sp, #96]	@ 0x60
   221b8:	2000      	movs	r0, #0
   221ba:	2800      	cmp	r0, #0
   221bc:	d10e      	bne.n	221dc <_ZN20complex_full_dynamic3app17h664dc4f933b3d461E+0xbc>
   221be:	4814      	ldr	r0, [pc, #80]	@ (22210 <_ZN20complex_full_dynamic3app17h664dc4f933b3d461E+0xf0>)
   221c0:	2105      	movs	r1, #5
   221c2:	2203      	movs	r2, #3
   221c4:	2400      	movs	r4, #0
   221c6:	4623      	mov	r3, r4
   221c8:	df02      	svc	2
   221ca:	287f      	cmp	r0, #127	@ 0x7f
   221cc:	d906      	bls.n	221dc <_ZN20complex_full_dynamic3app17h664dc4f933b3d461E+0xbc>
   221ce:	a806      	add	r0, sp, #24
   221d0:	f006 ffc2 	bl	29158 <_ZN9allow_pin12full_dynamic17unshare_if_shared17hc49b4b2653f8b2c9E>
   221d4:	a818      	add	r0, sp, #96	@ 0x60
   221d6:	f006 ffbf 	bl	29158 <_ZN9allow_pin12full_dynamic17unshare_if_shared17hc49b4b2653f8b2c9E>
   221da:	4626      	mov	r6, r4
   221dc:	2e00      	cmp	r6, #0
   221de:	d003      	beq.n	221e8 <_ZN20complex_full_dynamic3app17h664dc4f933b3d461E+0xc8>
   221e0:	9c05      	ldr	r4, [sp, #20]
   221e2:	6061      	str	r1, [r4, #4]
   221e4:	2001      	movs	r0, #1
   221e6:	e009      	b.n	221fc <_ZN20complex_full_dynamic3app17h664dc4f933b3d461E+0xdc>
   221e8:	a818      	add	r0, sp, #96	@ 0x60
   221ea:	f006 ffb5 	bl	29158 <_ZN9allow_pin12full_dynamic17unshare_if_shared17hc49b4b2653f8b2c9E>
   221ee:	9c05      	ldr	r4, [sp, #20]
   221f0:	1c60      	adds	r0, r4, #1
   221f2:	2227      	movs	r2, #39	@ 0x27
   221f4:	9903      	ldr	r1, [sp, #12]
   221f6:	f007 f988 	bl	2950a <__aeabi_memcpy>
   221fa:	2000      	movs	r0, #0
   221fc:	7020      	strb	r0, [r4, #0]
   221fe:	a818      	add	r0, sp, #96	@ 0x60
   22200:	f006 ffaa 	bl	29158 <_ZN9allow_pin12full_dynamic17unshare_if_shared17hc49b4b2653f8b2c9E>
   22204:	a806      	add	r0, sp, #24
   22206:	f006 ffa7 	bl	29158 <_ZN9allow_pin12full_dynamic17unshare_if_shared17hc49b4b2653f8b2c9E>
   2220a:	b029      	add	sp, #164	@ 0xa4
   2220c:	bdf0      	pop	{r4, r5, r6, r7, pc}
   2220e:	46c0      	nop			@ (mov r8, r8)
   22210:	00000bd3 	.word	0x00000bd3

00022214 <_ZN20complex_full_dynamic3app17h6729c5a1cac7128aE>:
   22214:	b5f0      	push	{r4, r5, r6, r7, lr}
   22216:	af03      	add	r7, sp, #12
   22218:	b0a5      	sub	sp, #148	@ 0x94
   2221a:	9005      	str	r0, [sp, #20]
   2221c:	ae06      	add	r6, sp, #24
   2221e:	2002      	movs	r0, #2
   22220:	9004      	str	r0, [sp, #16]
   22222:	7230      	strb	r0, [r6, #8]
   22224:	360c      	adds	r6, #12
   22226:	2524      	movs	r5, #36	@ 0x24
   22228:	4630      	mov	r0, r6
   2222a:	462a      	mov	r2, r5
   2222c:	f007 f96d 	bl	2950a <__aeabi_memcpy>
   22230:	ac12      	add	r4, sp, #72	@ 0x48
   22232:	4620      	mov	r0, r4
   22234:	300c      	adds	r0, #12
   22236:	212f      	movs	r1, #47	@ 0x2f
   22238:	9003      	str	r0, [sp, #12]
   2223a:	9102      	str	r1, [sp, #8]
   2223c:	f006 ffb8 	bl	291b0 <__aeabi_memclr4>
   22240:	9804      	ldr	r0, [sp, #16]
   22242:	7220      	strb	r0, [r4, #8]
   22244:	2404      	movs	r4, #4
   22246:	9500      	str	r5, [sp, #0]
   22248:	9401      	str	r4, [sp, #4]
   2224a:	a821      	add	r0, sp, #132	@ 0x84
   2224c:	492e      	ldr	r1, [pc, #184]	@ (22308 <_ZN20complex_full_dynamic3app17h6729c5a1cac7128aE+0xf4>)
   2224e:	2506      	movs	r5, #6
   22250:	462a      	mov	r2, r5
   22252:	4633      	mov	r3, r6
   22254:	f006 ff94 	bl	29180 <_ZN9allow_pin13dynamic_allow17h8bfd3764c146b81aE>
   22258:	9821      	ldr	r0, [sp, #132]	@ 0x84
   2225a:	2802      	cmp	r0, #2
   2225c:	d102      	bne.n	22264 <_ZN20complex_full_dynamic3app17h6729c5a1cac7128aE+0x50>
   2225e:	9922      	ldr	r1, [sp, #136]	@ 0x88
   22260:	4a29      	ldr	r2, [pc, #164]	@ (22308 <_ZN20complex_full_dynamic3app17h6729c5a1cac7128aE+0xf4>)
   22262:	e004      	b.n	2226e <_ZN20complex_full_dynamic3app17h6729c5a1cac7128aE+0x5a>
   22264:	a906      	add	r1, sp, #24
   22266:	720c      	strb	r4, [r1, #8]
   22268:	9507      	str	r5, [sp, #28]
   2226a:	4a27      	ldr	r2, [pc, #156]	@ (22308 <_ZN20complex_full_dynamic3app17h6729c5a1cac7128aE+0xf4>)
   2226c:	9206      	str	r2, [sp, #24]
   2226e:	2501      	movs	r5, #1
   22270:	2802      	cmp	r0, #2
   22272:	d02f      	beq.n	222d4 <_ZN20complex_full_dynamic3app17h6729c5a1cac7128aE+0xc0>
   22274:	a812      	add	r0, sp, #72	@ 0x48
   22276:	7a00      	ldrb	r0, [r0, #8]
   22278:	2802      	cmp	r0, #2
   2227a:	d10f      	bne.n	2229c <_ZN20complex_full_dynamic3app17h6729c5a1cac7128aE+0x88>
   2227c:	2603      	movs	r6, #3
   2227e:	9802      	ldr	r0, [sp, #8]
   22280:	9000      	str	r0, [sp, #0]
   22282:	9601      	str	r6, [sp, #4]
   22284:	a821      	add	r0, sp, #132	@ 0x84
   22286:	2409      	movs	r4, #9
   22288:	4611      	mov	r1, r2
   2228a:	4622      	mov	r2, r4
   2228c:	9b03      	ldr	r3, [sp, #12]
   2228e:	f006 ff77 	bl	29180 <_ZN9allow_pin13dynamic_allow17h8bfd3764c146b81aE>
   22292:	9821      	ldr	r0, [sp, #132]	@ 0x84
   22294:	2802      	cmp	r0, #2
   22296:	d106      	bne.n	222a6 <_ZN20complex_full_dynamic3app17h6729c5a1cac7128aE+0x92>
   22298:	9922      	ldr	r1, [sp, #136]	@ 0x88
   2229a:	e000      	b.n	2229e <_ZN20complex_full_dynamic3app17h6729c5a1cac7128aE+0x8a>
   2229c:	2103      	movs	r1, #3
   2229e:	4628      	mov	r0, r5
   222a0:	2800      	cmp	r0, #0
   222a2:	d008      	beq.n	222b6 <_ZN20complex_full_dynamic3app17h6729c5a1cac7128aE+0xa2>
   222a4:	e016      	b.n	222d4 <_ZN20complex_full_dynamic3app17h6729c5a1cac7128aE+0xc0>
   222a6:	a812      	add	r0, sp, #72	@ 0x48
   222a8:	7206      	strb	r6, [r0, #8]
   222aa:	9413      	str	r4, [sp, #76]	@ 0x4c
   222ac:	4816      	ldr	r0, [pc, #88]	@ (22308 <_ZN20complex_full_dynamic3app17h6729c5a1cac7128aE+0xf4>)
   222ae:	9012      	str	r0, [sp, #72]	@ 0x48
   222b0:	2000      	movs	r0, #0
   222b2:	2800      	cmp	r0, #0
   222b4:	d10e      	bne.n	222d4 <_ZN20complex_full_dynamic3app17h6729c5a1cac7128aE+0xc0>
   222b6:	4814      	ldr	r0, [pc, #80]	@ (22308 <_ZN20complex_full_dynamic3app17h6729c5a1cac7128aE+0xf4>)
   222b8:	2106      	movs	r1, #6
   222ba:	2209      	movs	r2, #9
   222bc:	2400      	movs	r4, #0
   222be:	4623      	mov	r3, r4
   222c0:	df02      	svc	2
   222c2:	287f      	cmp	r0, #127	@ 0x7f
   222c4:	d906      	bls.n	222d4 <_ZN20complex_full_dynamic3app17h6729c5a1cac7128aE+0xc0>
   222c6:	a806      	add	r0, sp, #24
   222c8:	f006 ff46 	bl	29158 <_ZN9allow_pin12full_dynamic17unshare_if_shared17hc49b4b2653f8b2c9E>
   222cc:	a812      	add	r0, sp, #72	@ 0x48
   222ce:	f006 ff43 	bl	29158 <_ZN9allow_pin12full_dynamic17unshare_if_shared17hc49b4b2653f8b2c9E>
   222d2:	4625      	mov	r5, r4
   222d4:	2d00      	cmp	r5, #0
   222d6:	d003      	beq.n	222e0 <_ZN20complex_full_dynamic3app17h6729c5a1cac7128aE+0xcc>
   222d8:	9c05      	ldr	r4, [sp, #20]
   222da:	6061      	str	r1, [r4, #4]
   222dc:	2001      	movs	r0, #1
   222de:	e009      	b.n	222f4 <_ZN20complex_full_dynamic3app17h6729c5a1cac7128aE+0xe0>
   222e0:	a812      	add	r0, sp, #72	@ 0x48
   222e2:	f006 ff39 	bl	29158 <_ZN9allow_pin12full_dynamic17unshare_if_shared17hc49b4b2653f8b2c9E>
   222e6:	9c05      	ldr	r4, [sp, #20]
   222e8:	1c60      	adds	r0, r4, #1
   222ea:	222f      	movs	r2, #47	@ 0x2f
   222ec:	9903      	ldr	r1, [sp, #12]
   222ee:	f007 f90c 	bl	2950a <__aeabi_memcpy>
   222f2:	2000      	movs	r0, #0
   222f4:	7020      	strb	r0, [r4, #0]
   222f6:	a812      	add	r0, sp, #72	@ 0x48
   222f8:	f006 ff2e 	bl	29158 <_ZN9allow_pin12full_dynamic17unshare_if_shared17hc49b4b2653f8b2c9E>
   222fc:	a806      	add	r0, sp, #24
   222fe:	f006 ff2b 	bl	29158 <_ZN9allow_pin12full_dynamic17unshare_if_shared17hc49b4b2653f8b2c9E>
   22302:	b025      	add	sp, #148	@ 0x94
   22304:	bdf0      	pop	{r4, r5, r6, r7, pc}
   22306:	46c0      	nop			@ (mov r8, r8)
   22308:	00001273 	.word	0x00001273

0002230c <_ZN20complex_full_dynamic3app17h6cd7ae946f522d09E>:
   2230c:	b5f0      	push	{r4, r5, r6, r7, lr}
   2230e:	af03      	add	r7, sp, #12
   22310:	b0a7      	sub	sp, #156	@ 0x9c
   22312:	9004      	str	r0, [sp, #16]
   22314:	ac06      	add	r4, sp, #24
   22316:	2602      	movs	r6, #2
   22318:	7226      	strb	r6, [r4, #8]
   2231a:	340c      	adds	r4, #12
   2231c:	2541      	movs	r5, #65	@ 0x41
   2231e:	4620      	mov	r0, r4
   22320:	462a      	mov	r2, r5
   22322:	f007 f8f2 	bl	2950a <__aeabi_memcpy>
   22326:	a81a      	add	r0, sp, #104	@ 0x68
   22328:	9005      	str	r0, [sp, #20]
   2232a:	7206      	strb	r6, [r0, #8]
   2232c:	2600      	movs	r6, #0
   2232e:	9622      	str	r6, [sp, #136]	@ 0x88
   22330:	9621      	str	r6, [sp, #132]	@ 0x84
   22332:	9620      	str	r6, [sp, #128]	@ 0x80
   22334:	961f      	str	r6, [sp, #124]	@ 0x7c
   22336:	961e      	str	r6, [sp, #120]	@ 0x78
   22338:	961d      	str	r6, [sp, #116]	@ 0x74
   2233a:	2004      	movs	r0, #4
   2233c:	9500      	str	r5, [sp, #0]
   2233e:	9003      	str	r0, [sp, #12]
   22340:	9001      	str	r0, [sp, #4]
   22342:	a823      	add	r0, sp, #140	@ 0x8c
   22344:	4931      	ldr	r1, [pc, #196]	@ (2240c <_ZN20complex_full_dynamic3app17h6cd7ae946f522d09E+0x100>)
   22346:	2501      	movs	r5, #1
   22348:	462a      	mov	r2, r5
   2234a:	4623      	mov	r3, r4
   2234c:	f006 ff18 	bl	29180 <_ZN9allow_pin13dynamic_allow17h8bfd3764c146b81aE>
   22350:	9823      	ldr	r0, [sp, #140]	@ 0x8c
   22352:	2802      	cmp	r0, #2
   22354:	d102      	bne.n	2235c <_ZN20complex_full_dynamic3app17h6cd7ae946f522d09E+0x50>
   22356:	9924      	ldr	r1, [sp, #144]	@ 0x90
   22358:	4b2c      	ldr	r3, [pc, #176]	@ (2240c <_ZN20complex_full_dynamic3app17h6cd7ae946f522d09E+0x100>)
   2235a:	e005      	b.n	22368 <_ZN20complex_full_dynamic3app17h6cd7ae946f522d09E+0x5c>
   2235c:	a906      	add	r1, sp, #24
   2235e:	9a03      	ldr	r2, [sp, #12]
   22360:	720a      	strb	r2, [r1, #8]
   22362:	9507      	str	r5, [sp, #28]
   22364:	4b29      	ldr	r3, [pc, #164]	@ (2240c <_ZN20complex_full_dynamic3app17h6cd7ae946f522d09E+0x100>)
   22366:	9306      	str	r3, [sp, #24]
   22368:	9a05      	ldr	r2, [sp, #20]
   2236a:	320c      	adds	r2, #12
   2236c:	9205      	str	r2, [sp, #20]
   2236e:	2802      	cmp	r0, #2
   22370:	d033      	beq.n	223da <_ZN20complex_full_dynamic3app17h6cd7ae946f522d09E+0xce>
   22372:	a81a      	add	r0, sp, #104	@ 0x68
   22374:	7a00      	ldrb	r0, [r0, #8]
   22376:	2802      	cmp	r0, #2
   22378:	d113      	bne.n	223a2 <_ZN20complex_full_dynamic3app17h6cd7ae946f522d09E+0x96>
   2237a:	9503      	str	r5, [sp, #12]
   2237c:	2103      	movs	r1, #3
   2237e:	2018      	movs	r0, #24
   22380:	9000      	str	r0, [sp, #0]
   22382:	9102      	str	r1, [sp, #8]
   22384:	9101      	str	r1, [sp, #4]
   22386:	a823      	add	r0, sp, #140	@ 0x8c
   22388:	2409      	movs	r4, #9
   2238a:	4619      	mov	r1, r3
   2238c:	4622      	mov	r2, r4
   2238e:	461d      	mov	r5, r3
   22390:	9b05      	ldr	r3, [sp, #20]
   22392:	f006 fef5 	bl	29180 <_ZN9allow_pin13dynamic_allow17h8bfd3764c146b81aE>
   22396:	9823      	ldr	r0, [sp, #140]	@ 0x8c
   22398:	2802      	cmp	r0, #2
   2239a:	d107      	bne.n	223ac <_ZN20complex_full_dynamic3app17h6cd7ae946f522d09E+0xa0>
   2239c:	9924      	ldr	r1, [sp, #144]	@ 0x90
   2239e:	9d03      	ldr	r5, [sp, #12]
   223a0:	e000      	b.n	223a4 <_ZN20complex_full_dynamic3app17h6cd7ae946f522d09E+0x98>
   223a2:	2103      	movs	r1, #3
   223a4:	462e      	mov	r6, r5
   223a6:	2e00      	cmp	r6, #0
   223a8:	d008      	beq.n	223bc <_ZN20complex_full_dynamic3app17h6cd7ae946f522d09E+0xb0>
   223aa:	e016      	b.n	223da <_ZN20complex_full_dynamic3app17h6cd7ae946f522d09E+0xce>
   223ac:	a81a      	add	r0, sp, #104	@ 0x68
   223ae:	9902      	ldr	r1, [sp, #8]
   223b0:	7201      	strb	r1, [r0, #8]
   223b2:	941b      	str	r4, [sp, #108]	@ 0x6c
   223b4:	951a      	str	r5, [sp, #104]	@ 0x68
   223b6:	9d03      	ldr	r5, [sp, #12]
   223b8:	2e00      	cmp	r6, #0
   223ba:	d10e      	bne.n	223da <_ZN20complex_full_dynamic3app17h6cd7ae946f522d09E+0xce>
   223bc:	4813      	ldr	r0, [pc, #76]	@ (2240c <_ZN20complex_full_dynamic3app17h6cd7ae946f522d09E+0x100>)
   223be:	2101      	movs	r1, #1
   223c0:	2209      	movs	r2, #9
   223c2:	2400      	movs	r4, #0
   223c4:	4623      	mov	r3, r4
   223c6:	df02      	svc	2
   223c8:	287f      	cmp	r0, #127	@ 0x7f
   223ca:	d906      	bls.n	223da <_ZN20complex_full_dynamic3app17h6cd7ae946f522d09E+0xce>
   223cc:	a806      	add	r0, sp, #24
   223ce:	f006 fec3 	bl	29158 <_ZN9allow_pin12full_dynamic17unshare_if_shared17hc49b4b2653f8b2c9E>
   223d2:	a81a      	add	r0, sp, #104	@ 0x68
   223d4:	f006 fec0 	bl	29158 <_ZN9allow_pin12full_dynamic17unshare_if_shared17hc49b4b2653f8b2c9E>
   223d8:	4625      	mov	r5, r4
   223da:	2d00      	cmp	r5, #0
   223dc:	d003      	beq.n	223e6 <_ZN20complex_full_dynamic3app17h6cd7ae946f522d09E+0xda>
   223de:	9c04      	ldr	r4, [sp, #16]
   223e0:	6061      	str	r1, [r4, #4]
   223e2:	2001      	movs	r0, #1
   223e4:	e009      	b.n	223fa <_ZN20complex_full_dynamic3app17h6cd7ae946f522d09E+0xee>
   223e6:	a81a      	add	r0, sp, #104	@ 0x68
   223e8:	f006 feb6 	bl	29158 <_ZN9allow_pin12full_dynamic17unshare_if_shared17hc49b4b2653f8b2c9E>
   223ec:	9c04      	ldr	r4, [sp, #16]
   223ee:	1c60      	adds	r0, r4, #1
   223f0:	2218      	movs	r2, #24
   223f2:	9905      	ldr	r1, [sp, #20]
   223f4:	f007 f889 	bl	2950a <__aeabi_memcpy>
   223f8:	2000      	movs	r0, #0
   223fa:	7020      	strb	r0, [r4, #0]
   223fc:	a81a      	add	r0, sp, #104	@ 0x68
   223fe:	f006 feab 	bl	29158 <_ZN9allow_pin12full_dynamic17unshare_if_shared17hc49b4b2653f8b2c9E>
   22402:	a806      	add	r0, sp, #24
   22404:	f006 fea8 	bl	29158 <_ZN9allow_pin12full_dynamic17unshare_if_shared17hc49b4b2653f8b2c9E>
   22408:	b027      	add	sp, #156	@ 0x9c
   2240a:	bdf0      	pop	{r4, r5, r6, r7, pc}
   2240c:	00002156 	.word	0x00002156

00022410 <_ZN20complex_full_dynamic3app17h70b02451f2d702a5E>:
   22410:	b5f0      	push	{r4, r5, r6, r7, lr}
   22412:	af03      	add	r7, sp, #12
   22414:	b0ab      	sub	sp, #172	@ 0xac
   22416:	9005      	str	r0, [sp, #20]
   22418:	ae06      	add	r6, sp, #24
   2241a:	2002      	movs	r0, #2
   2241c:	9004      	str	r0, [sp, #16]
   2241e:	7230      	strb	r0, [r6, #8]
   22420:	360c      	adds	r6, #12
   22422:	2513      	movs	r5, #19
   22424:	4630      	mov	r0, r6
   22426:	462a      	mov	r2, r5
   22428:	f007 f86f 	bl	2950a <__aeabi_memcpy>
   2242c:	ac0e      	add	r4, sp, #56	@ 0x38
   2242e:	4620      	mov	r0, r4
   22430:	300c      	adds	r0, #12
   22432:	2155      	movs	r1, #85	@ 0x55
   22434:	9003      	str	r0, [sp, #12]
   22436:	9102      	str	r1, [sp, #8]
   22438:	f006 feba 	bl	291b0 <__aeabi_memclr4>
   2243c:	9804      	ldr	r0, [sp, #16]
   2243e:	7220      	strb	r0, [r4, #8]
   22440:	2404      	movs	r4, #4
   22442:	9500      	str	r5, [sp, #0]
   22444:	9401      	str	r4, [sp, #4]
   22446:	a827      	add	r0, sp, #156	@ 0x9c
   22448:	492e      	ldr	r1, [pc, #184]	@ (22504 <_ZN20complex_full_dynamic3app17h70b02451f2d702a5E+0xf4>)
   2244a:	2509      	movs	r5, #9
   2244c:	462a      	mov	r2, r5
   2244e:	4633      	mov	r3, r6
   22450:	f006 fe96 	bl	29180 <_ZN9allow_pin13dynamic_allow17h8bfd3764c146b81aE>
   22454:	9827      	ldr	r0, [sp, #156]	@ 0x9c
   22456:	2802      	cmp	r0, #2
   22458:	d102      	bne.n	22460 <_ZN20complex_full_dynamic3app17h70b02451f2d702a5E+0x50>
   2245a:	9928      	ldr	r1, [sp, #160]	@ 0xa0
   2245c:	4a29      	ldr	r2, [pc, #164]	@ (22504 <_ZN20complex_full_dynamic3app17h70b02451f2d702a5E+0xf4>)
   2245e:	e004      	b.n	2246a <_ZN20complex_full_dynamic3app17h70b02451f2d702a5E+0x5a>
   22460:	a906      	add	r1, sp, #24
   22462:	720c      	strb	r4, [r1, #8]
   22464:	9507      	str	r5, [sp, #28]
   22466:	4a27      	ldr	r2, [pc, #156]	@ (22504 <_ZN20complex_full_dynamic3app17h70b02451f2d702a5E+0xf4>)
   22468:	9206      	str	r2, [sp, #24]
   2246a:	2501      	movs	r5, #1
   2246c:	2802      	cmp	r0, #2
   2246e:	d02f      	beq.n	224d0 <_ZN20complex_full_dynamic3app17h70b02451f2d702a5E+0xc0>
   22470:	a80e      	add	r0, sp, #56	@ 0x38
   22472:	7a00      	ldrb	r0, [r0, #8]
   22474:	2802      	cmp	r0, #2
   22476:	d10f      	bne.n	22498 <_ZN20complex_full_dynamic3app17h70b02451f2d702a5E+0x88>
   22478:	2603      	movs	r6, #3
   2247a:	9802      	ldr	r0, [sp, #8]
   2247c:	9000      	str	r0, [sp, #0]
   2247e:	9601      	str	r6, [sp, #4]
   22480:	a827      	add	r0, sp, #156	@ 0x9c
   22482:	2407      	movs	r4, #7
   22484:	4611      	mov	r1, r2
   22486:	4622      	mov	r2, r4
   22488:	9b03      	ldr	r3, [sp, #12]
   2248a:	f006 fe79 	bl	29180 <_ZN9allow_pin13dynamic_allow17h8bfd3764c146b81aE>
   2248e:	9827      	ldr	r0, [sp, #156]	@ 0x9c
   22490:	2802      	cmp	r0, #2
   22492:	d106      	bne.n	224a2 <_ZN20complex_full_dynamic3app17h70b02451f2d702a5E+0x92>
   22494:	9928      	ldr	r1, [sp, #160]	@ 0xa0
   22496:	e000      	b.n	2249a <_ZN20complex_full_dynamic3app17h70b02451f2d702a5E+0x8a>
   22498:	2103      	movs	r1, #3
   2249a:	4628      	mov	r0, r5
   2249c:	2800      	cmp	r0, #0
   2249e:	d008      	beq.n	224b2 <_ZN20complex_full_dynamic3app17h70b02451f2d702a5E+0xa2>
   224a0:	e016      	b.n	224d0 <_ZN20complex_full_dynamic3app17h70b02451f2d702a5E+0xc0>
   224a2:	a80e      	add	r0, sp, #56	@ 0x38
   224a4:	7206      	strb	r6, [r0, #8]
   224a6:	940f      	str	r4, [sp, #60]	@ 0x3c
   224a8:	4816      	ldr	r0, [pc, #88]	@ (22504 <_ZN20complex_full_dynamic3app17h70b02451f2d702a5E+0xf4>)
   224aa:	900e      	str	r0, [sp, #56]	@ 0x38
   224ac:	2000      	movs	r0, #0
   224ae:	2800      	cmp	r0, #0
   224b0:	d10e      	bne.n	224d0 <_ZN20complex_full_dynamic3app17h70b02451f2d702a5E+0xc0>
   224b2:	4814      	ldr	r0, [pc, #80]	@ (22504 <_ZN20complex_full_dynamic3app17h70b02451f2d702a5E+0xf4>)
   224b4:	2109      	movs	r1, #9
   224b6:	2207      	movs	r2, #7
   224b8:	2400      	movs	r4, #0
   224ba:	4623      	mov	r3, r4
   224bc:	df02      	svc	2
   224be:	287f      	cmp	r0, #127	@ 0x7f
   224c0:	d906      	bls.n	224d0 <_ZN20complex_full_dynamic3app17h70b02451f2d702a5E+0xc0>
   224c2:	a806      	add	r0, sp, #24
   224c4:	f006 fe48 	bl	29158 <_ZN9allow_pin12full_dynamic17unshare_if_shared17hc49b4b2653f8b2c9E>
   224c8:	a80e      	add	r0, sp, #56	@ 0x38
   224ca:	f006 fe45 	bl	29158 <_ZN9allow_pin12full_dynamic17unshare_if_shared17hc49b4b2653f8b2c9E>
   224ce:	4625      	mov	r5, r4
   224d0:	2d00      	cmp	r5, #0
   224d2:	d003      	beq.n	224dc <_ZN20complex_full_dynamic3app17h70b02451f2d702a5E+0xcc>
   224d4:	9c05      	ldr	r4, [sp, #20]
   224d6:	6061      	str	r1, [r4, #4]
   224d8:	2001      	movs	r0, #1
   224da:	e009      	b.n	224f0 <_ZN20complex_full_dynamic3app17h70b02451f2d702a5E+0xe0>
   224dc:	a80e      	add	r0, sp, #56	@ 0x38
   224de:	f006 fe3b 	bl	29158 <_ZN9allow_pin12full_dynamic17unshare_if_shared17hc49b4b2653f8b2c9E>
   224e2:	9c05      	ldr	r4, [sp, #20]
   224e4:	1c60      	adds	r0, r4, #1
   224e6:	2255      	movs	r2, #85	@ 0x55
   224e8:	9903      	ldr	r1, [sp, #12]
   224ea:	f007 f80e 	bl	2950a <__aeabi_memcpy>
   224ee:	2000      	movs	r0, #0
   224f0:	7020      	strb	r0, [r4, #0]
   224f2:	a80e      	add	r0, sp, #56	@ 0x38
   224f4:	f006 fe30 	bl	29158 <_ZN9allow_pin12full_dynamic17unshare_if_shared17hc49b4b2653f8b2c9E>
   224f8:	a806      	add	r0, sp, #24
   224fa:	f006 fe2d 	bl	29158 <_ZN9allow_pin12full_dynamic17unshare_if_shared17hc49b4b2653f8b2c9E>
   224fe:	b02b      	add	sp, #172	@ 0xac
   22500:	bdf0      	pop	{r4, r5, r6, r7, pc}
   22502:	46c0      	nop			@ (mov r8, r8)
   22504:	0000032e 	.word	0x0000032e

00022508 <_ZN20complex_full_dynamic3app17h73570e3b180b4a4eE>:
   22508:	b5f0      	push	{r4, r5, r6, r7, lr}
   2250a:	af03      	add	r7, sp, #12
   2250c:	b0af      	sub	sp, #188	@ 0xbc
   2250e:	9006      	str	r0, [sp, #24]
   22510:	ae07      	add	r6, sp, #28
   22512:	2002      	movs	r0, #2
   22514:	9005      	str	r0, [sp, #20]
   22516:	7230      	strb	r0, [r6, #8]
   22518:	360c      	adds	r6, #12
   2251a:	2532      	movs	r5, #50	@ 0x32
   2251c:	4630      	mov	r0, r6
   2251e:	462a      	mov	r2, r5
   22520:	f006 fff3 	bl	2950a <__aeabi_memcpy>
   22524:	ac17      	add	r4, sp, #92	@ 0x5c
   22526:	4620      	mov	r0, r4
   22528:	300c      	adds	r0, #12
   2252a:	2141      	movs	r1, #65	@ 0x41
   2252c:	9004      	str	r0, [sp, #16]
   2252e:	9103      	str	r1, [sp, #12]
   22530:	f006 fe3e 	bl	291b0 <__aeabi_memclr4>
   22534:	9805      	ldr	r0, [sp, #20]
   22536:	7220      	strb	r0, [r4, #8]
   22538:	2404      	movs	r4, #4
   2253a:	9500      	str	r5, [sp, #0]
   2253c:	9401      	str	r4, [sp, #4]
   2253e:	a82b      	add	r0, sp, #172	@ 0xac
   22540:	492e      	ldr	r1, [pc, #184]	@ (225fc <_ZN20complex_full_dynamic3app17h73570e3b180b4a4eE+0xf4>)
   22542:	2507      	movs	r5, #7
   22544:	462a      	mov	r2, r5
   22546:	4633      	mov	r3, r6
   22548:	f006 fe1a 	bl	29180 <_ZN9allow_pin13dynamic_allow17h8bfd3764c146b81aE>
   2254c:	982b      	ldr	r0, [sp, #172]	@ 0xac
   2254e:	2802      	cmp	r0, #2
   22550:	d102      	bne.n	22558 <_ZN20complex_full_dynamic3app17h73570e3b180b4a4eE+0x50>
   22552:	992c      	ldr	r1, [sp, #176]	@ 0xb0
   22554:	4a29      	ldr	r2, [pc, #164]	@ (225fc <_ZN20complex_full_dynamic3app17h73570e3b180b4a4eE+0xf4>)
   22556:	e004      	b.n	22562 <_ZN20complex_full_dynamic3app17h73570e3b180b4a4eE+0x5a>
   22558:	a907      	add	r1, sp, #28
   2255a:	720c      	strb	r4, [r1, #8]
   2255c:	9508      	str	r5, [sp, #32]
   2255e:	4a27      	ldr	r2, [pc, #156]	@ (225fc <_ZN20complex_full_dynamic3app17h73570e3b180b4a4eE+0xf4>)
   22560:	9207      	str	r2, [sp, #28]
   22562:	2501      	movs	r5, #1
   22564:	2802      	cmp	r0, #2
   22566:	d02f      	beq.n	225c8 <_ZN20complex_full_dynamic3app17h73570e3b180b4a4eE+0xc0>
   22568:	a817      	add	r0, sp, #92	@ 0x5c
   2256a:	7a00      	ldrb	r0, [r0, #8]
   2256c:	2802      	cmp	r0, #2
   2256e:	d10f      	bne.n	22590 <_ZN20complex_full_dynamic3app17h73570e3b180b4a4eE+0x88>
   22570:	2603      	movs	r6, #3
   22572:	9803      	ldr	r0, [sp, #12]
   22574:	9000      	str	r0, [sp, #0]
   22576:	9601      	str	r6, [sp, #4]
   22578:	a82b      	add	r0, sp, #172	@ 0xac
   2257a:	2405      	movs	r4, #5
   2257c:	4611      	mov	r1, r2
   2257e:	4622      	mov	r2, r4
   22580:	9b04      	ldr	r3, [sp, #16]
   22582:	f006 fdfd 	bl	29180 <_ZN9allow_pin13dynamic_allow17h8bfd3764c146b81aE>
   22586:	982b      	ldr	r0, [sp, #172]	@ 0xac
   22588:	2802      	cmp	r0, #2
   2258a:	d106      	bne.n	2259a <_ZN20complex_full_dynamic3app17h73570e3b180b4a4eE+0x92>
   2258c:	992c      	ldr	r1, [sp, #176]	@ 0xb0
   2258e:	e000      	b.n	22592 <_ZN20complex_full_dynamic3app17h73570e3b180b4a4eE+0x8a>
   22590:	2103      	movs	r1, #3
   22592:	4628      	mov	r0, r5
   22594:	2800      	cmp	r0, #0
   22596:	d008      	beq.n	225aa <_ZN20complex_full_dynamic3app17h73570e3b180b4a4eE+0xa2>
   22598:	e016      	b.n	225c8 <_ZN20complex_full_dynamic3app17h73570e3b180b4a4eE+0xc0>
   2259a:	a817      	add	r0, sp, #92	@ 0x5c
   2259c:	7206      	strb	r6, [r0, #8]
   2259e:	9418      	str	r4, [sp, #96]	@ 0x60
   225a0:	4816      	ldr	r0, [pc, #88]	@ (225fc <_ZN20complex_full_dynamic3app17h73570e3b180b4a4eE+0xf4>)
   225a2:	9017      	str	r0, [sp, #92]	@ 0x5c
   225a4:	2000      	movs	r0, #0
   225a6:	2800      	cmp	r0, #0
   225a8:	d10e      	bne.n	225c8 <_ZN20complex_full_dynamic3app17h73570e3b180b4a4eE+0xc0>
   225aa:	4814      	ldr	r0, [pc, #80]	@ (225fc <_ZN20complex_full_dynamic3app17h73570e3b180b4a4eE+0xf4>)
   225ac:	2107      	movs	r1, #7
   225ae:	2205      	movs	r2, #5
   225b0:	2400      	movs	r4, #0
   225b2:	4623      	mov	r3, r4
   225b4:	df02      	svc	2
   225b6:	287f      	cmp	r0, #127	@ 0x7f
   225b8:	d906      	bls.n	225c8 <_ZN20complex_full_dynamic3app17h73570e3b180b4a4eE+0xc0>
   225ba:	a807      	add	r0, sp, #28
   225bc:	f006 fdcc 	bl	29158 <_ZN9allow_pin12full_dynamic17unshare_if_shared17hc49b4b2653f8b2c9E>
   225c0:	a817      	add	r0, sp, #92	@ 0x5c
   225c2:	f006 fdc9 	bl	29158 <_ZN9allow_pin12full_dynamic17unshare_if_shared17hc49b4b2653f8b2c9E>
   225c6:	4625      	mov	r5, r4
   225c8:	2d00      	cmp	r5, #0
   225ca:	d003      	beq.n	225d4 <_ZN20complex_full_dynamic3app17h73570e3b180b4a4eE+0xcc>
   225cc:	9c06      	ldr	r4, [sp, #24]
   225ce:	6061      	str	r1, [r4, #4]
   225d0:	2001      	movs	r0, #1
   225d2:	e009      	b.n	225e8 <_ZN20complex_full_dynamic3app17h73570e3b180b4a4eE+0xe0>
   225d4:	a817      	add	r0, sp, #92	@ 0x5c
   225d6:	f006 fdbf 	bl	29158 <_ZN9allow_pin12full_dynamic17unshare_if_shared17hc49b4b2653f8b2c9E>
   225da:	9c06      	ldr	r4, [sp, #24]
   225dc:	1c60      	adds	r0, r4, #1
   225de:	2241      	movs	r2, #65	@ 0x41
   225e0:	9904      	ldr	r1, [sp, #16]
   225e2:	f006 ff92 	bl	2950a <__aeabi_memcpy>
   225e6:	2000      	movs	r0, #0
   225e8:	7020      	strb	r0, [r4, #0]
   225ea:	a817      	add	r0, sp, #92	@ 0x5c
   225ec:	f006 fdb4 	bl	29158 <_ZN9allow_pin12full_dynamic17unshare_if_shared17hc49b4b2653f8b2c9E>
   225f0:	a807      	add	r0, sp, #28
   225f2:	f006 fdb1 	bl	29158 <_ZN9allow_pin12full_dynamic17unshare_if_shared17hc49b4b2653f8b2c9E>
   225f6:	b02f      	add	sp, #188	@ 0xbc
   225f8:	bdf0      	pop	{r4, r5, r6, r7, pc}
   225fa:	46c0      	nop			@ (mov r8, r8)
   225fc:	0000091d 	.word	0x0000091d

00022600 <_ZN20complex_full_dynamic3app17h75d2a800e0dbbd7eE>:
   22600:	b5f0      	push	{r4, r5, r6, r7, lr}
   22602:	af03      	add	r7, sp, #12
   22604:	b0a7      	sub	sp, #156	@ 0x9c
   22606:	9006      	str	r0, [sp, #24]
   22608:	ae07      	add	r6, sp, #28
   2260a:	2002      	movs	r0, #2
   2260c:	9005      	str	r0, [sp, #20]
   2260e:	7230      	strb	r0, [r6, #8]
   22610:	360c      	adds	r6, #12
   22612:	250f      	movs	r5, #15
   22614:	4630      	mov	r0, r6
   22616:	462a      	mov	r2, r5
   22618:	f006 ff77 	bl	2950a <__aeabi_memcpy>
   2261c:	ac0e      	add	r4, sp, #56	@ 0x38
   2261e:	4620      	mov	r0, r4
   22620:	300c      	adds	r0, #12
   22622:	2146      	movs	r1, #70	@ 0x46
   22624:	9004      	str	r0, [sp, #16]
   22626:	9103      	str	r1, [sp, #12]
   22628:	f006 fdc2 	bl	291b0 <__aeabi_memclr4>
   2262c:	9805      	ldr	r0, [sp, #20]
   2262e:	7220      	strb	r0, [r4, #8]
   22630:	2404      	movs	r4, #4
   22632:	9500      	str	r5, [sp, #0]
   22634:	9401      	str	r4, [sp, #4]
   22636:	a823      	add	r0, sp, #140	@ 0x8c
   22638:	492e      	ldr	r1, [pc, #184]	@ (226f4 <_ZN20complex_full_dynamic3app17h75d2a800e0dbbd7eE+0xf4>)
   2263a:	2509      	movs	r5, #9
   2263c:	462a      	mov	r2, r5
   2263e:	4633      	mov	r3, r6
   22640:	f006 fd9e 	bl	29180 <_ZN9allow_pin13dynamic_allow17h8bfd3764c146b81aE>
   22644:	9823      	ldr	r0, [sp, #140]	@ 0x8c
   22646:	2802      	cmp	r0, #2
   22648:	d102      	bne.n	22650 <_ZN20complex_full_dynamic3app17h75d2a800e0dbbd7eE+0x50>
   2264a:	9924      	ldr	r1, [sp, #144]	@ 0x90
   2264c:	4a29      	ldr	r2, [pc, #164]	@ (226f4 <_ZN20complex_full_dynamic3app17h75d2a800e0dbbd7eE+0xf4>)
   2264e:	e004      	b.n	2265a <_ZN20complex_full_dynamic3app17h75d2a800e0dbbd7eE+0x5a>
   22650:	a907      	add	r1, sp, #28
   22652:	720c      	strb	r4, [r1, #8]
   22654:	9508      	str	r5, [sp, #32]
   22656:	4a27      	ldr	r2, [pc, #156]	@ (226f4 <_ZN20complex_full_dynamic3app17h75d2a800e0dbbd7eE+0xf4>)
   22658:	9207      	str	r2, [sp, #28]
   2265a:	2501      	movs	r5, #1
   2265c:	2802      	cmp	r0, #2
   2265e:	d02f      	beq.n	226c0 <_ZN20complex_full_dynamic3app17h75d2a800e0dbbd7eE+0xc0>
   22660:	a80e      	add	r0, sp, #56	@ 0x38
   22662:	7a00      	ldrb	r0, [r0, #8]
   22664:	2802      	cmp	r0, #2
   22666:	d10f      	bne.n	22688 <_ZN20complex_full_dynamic3app17h75d2a800e0dbbd7eE+0x88>
   22668:	2603      	movs	r6, #3
   2266a:	9803      	ldr	r0, [sp, #12]
   2266c:	9000      	str	r0, [sp, #0]
   2266e:	9601      	str	r6, [sp, #4]
   22670:	a823      	add	r0, sp, #140	@ 0x8c
   22672:	2402      	movs	r4, #2
   22674:	4611      	mov	r1, r2
   22676:	4622      	mov	r2, r4
   22678:	9b04      	ldr	r3, [sp, #16]
   2267a:	f006 fd81 	bl	29180 <_ZN9allow_pin13dynamic_allow17h8bfd3764c146b81aE>
   2267e:	9823      	ldr	r0, [sp, #140]	@ 0x8c
   22680:	2802      	cmp	r0, #2
   22682:	d106      	bne.n	22692 <_ZN20complex_full_dynamic3app17h75d2a800e0dbbd7eE+0x92>
   22684:	9924      	ldr	r1, [sp, #144]	@ 0x90
   22686:	e000      	b.n	2268a <_ZN20complex_full_dynamic3app17h75d2a800e0dbbd7eE+0x8a>
   22688:	2103      	movs	r1, #3
   2268a:	4628      	mov	r0, r5
   2268c:	2800      	cmp	r0, #0
   2268e:	d008      	beq.n	226a2 <_ZN20complex_full_dynamic3app17h75d2a800e0dbbd7eE+0xa2>
   22690:	e016      	b.n	226c0 <_ZN20complex_full_dynamic3app17h75d2a800e0dbbd7eE+0xc0>
   22692:	a80e      	add	r0, sp, #56	@ 0x38
   22694:	7206      	strb	r6, [r0, #8]
   22696:	940f      	str	r4, [sp, #60]	@ 0x3c
   22698:	4816      	ldr	r0, [pc, #88]	@ (226f4 <_ZN20complex_full_dynamic3app17h75d2a800e0dbbd7eE+0xf4>)
   2269a:	900e      	str	r0, [sp, #56]	@ 0x38
   2269c:	2000      	movs	r0, #0
   2269e:	2800      	cmp	r0, #0
   226a0:	d10e      	bne.n	226c0 <_ZN20complex_full_dynamic3app17h75d2a800e0dbbd7eE+0xc0>
   226a2:	4814      	ldr	r0, [pc, #80]	@ (226f4 <_ZN20complex_full_dynamic3app17h75d2a800e0dbbd7eE+0xf4>)
   226a4:	2109      	movs	r1, #9
   226a6:	2202      	movs	r2, #2
   226a8:	2400      	movs	r4, #0
   226aa:	4623      	mov	r3, r4
   226ac:	df02      	svc	2
   226ae:	287f      	cmp	r0, #127	@ 0x7f
   226b0:	d906      	bls.n	226c0 <_ZN20complex_full_dynamic3app17h75d2a800e0dbbd7eE+0xc0>
   226b2:	a807      	add	r0, sp, #28
   226b4:	f006 fd50 	bl	29158 <_ZN9allow_pin12full_dynamic17unshare_if_shared17hc49b4b2653f8b2c9E>
   226b8:	a80e      	add	r0, sp, #56	@ 0x38
   226ba:	f006 fd4d 	bl	29158 <_ZN9allow_pin12full_dynamic17unshare_if_shared17hc49b4b2653f8b2c9E>
   226be:	4625      	mov	r5, r4
   226c0:	2d00      	cmp	r5, #0
   226c2:	d003      	beq.n	226cc <_ZN20complex_full_dynamic3app17h75d2a800e0dbbd7eE+0xcc>
   226c4:	9c06      	ldr	r4, [sp, #24]
   226c6:	6061      	str	r1, [r4, #4]
   226c8:	2001      	movs	r0, #1
   226ca:	e009      	b.n	226e0 <_ZN20complex_full_dynamic3app17h75d2a800e0dbbd7eE+0xe0>
   226cc:	a80e      	add	r0, sp, #56	@ 0x38
   226ce:	f006 fd43 	bl	29158 <_ZN9allow_pin12full_dynamic17unshare_if_shared17hc49b4b2653f8b2c9E>
   226d2:	9c06      	ldr	r4, [sp, #24]
   226d4:	1c60      	adds	r0, r4, #1
   226d6:	2246      	movs	r2, #70	@ 0x46
   226d8:	9904      	ldr	r1, [sp, #16]
   226da:	f006 ff16 	bl	2950a <__aeabi_memcpy>
   226de:	2000      	movs	r0, #0
   226e0:	7020      	strb	r0, [r4, #0]
   226e2:	a80e      	add	r0, sp, #56	@ 0x38
   226e4:	f006 fd38 	bl	29158 <_ZN9allow_pin12full_dynamic17unshare_if_shared17hc49b4b2653f8b2c9E>
   226e8:	a807      	add	r0, sp, #28
   226ea:	f006 fd35 	bl	29158 <_ZN9allow_pin12full_dynamic17unshare_if_shared17hc49b4b2653f8b2c9E>
   226ee:	b027      	add	sp, #156	@ 0x9c
   226f0:	bdf0      	pop	{r4, r5, r6, r7, pc}
   226f2:	46c0      	nop			@ (mov r8, r8)
   226f4:	00001d7e 	.word	0x00001d7e

000226f8 <_ZN20complex_full_dynamic3app17h77061a9749958794E>:
   226f8:	b5f0      	push	{r4, r5, r6, r7, lr}
   226fa:	af03      	add	r7, sp, #12
   226fc:	b0bf      	sub	sp, #252	@ 0xfc
   226fe:	9006      	str	r0, [sp, #24]
   22700:	ae07      	add	r6, sp, #28
   22702:	2002      	movs	r0, #2
   22704:	9005      	str	r0, [sp, #20]
   22706:	7230      	strb	r0, [r6, #8]
   22708:	360c      	adds	r6, #12
   2270a:	255e      	movs	r5, #94	@ 0x5e
   2270c:	4630      	mov	r0, r6
   2270e:	462a      	mov	r2, r5
   22710:	f006 fefb 	bl	2950a <__aeabi_memcpy>
   22714:	ac22      	add	r4, sp, #136	@ 0x88
   22716:	4620      	mov	r0, r4
   22718:	300c      	adds	r0, #12
   2271a:	2155      	movs	r1, #85	@ 0x55
   2271c:	9004      	str	r0, [sp, #16]
   2271e:	9103      	str	r1, [sp, #12]
   22720:	f006 fd46 	bl	291b0 <__aeabi_memclr4>
   22724:	9805      	ldr	r0, [sp, #20]
   22726:	7220      	strb	r0, [r4, #8]
   22728:	2404      	movs	r4, #4
   2272a:	9500      	str	r5, [sp, #0]
   2272c:	9401      	str	r4, [sp, #4]
   2272e:	a83b      	add	r0, sp, #236	@ 0xec
   22730:	492d      	ldr	r1, [pc, #180]	@ (227e8 <_ZN20complex_full_dynamic3app17h77061a9749958794E+0xf0>)
   22732:	2507      	movs	r5, #7
   22734:	462a      	mov	r2, r5
   22736:	4633      	mov	r3, r6
   22738:	f006 fd22 	bl	29180 <_ZN9allow_pin13dynamic_allow17h8bfd3764c146b81aE>
   2273c:	983b      	ldr	r0, [sp, #236]	@ 0xec
   2273e:	2802      	cmp	r0, #2
   22740:	d102      	bne.n	22748 <_ZN20complex_full_dynamic3app17h77061a9749958794E+0x50>
   22742:	993c      	ldr	r1, [sp, #240]	@ 0xf0
   22744:	4c28      	ldr	r4, [pc, #160]	@ (227e8 <_ZN20complex_full_dynamic3app17h77061a9749958794E+0xf0>)
   22746:	e004      	b.n	22752 <_ZN20complex_full_dynamic3app17h77061a9749958794E+0x5a>
   22748:	a907      	add	r1, sp, #28
   2274a:	720c      	strb	r4, [r1, #8]
   2274c:	9508      	str	r5, [sp, #32]
   2274e:	4c26      	ldr	r4, [pc, #152]	@ (227e8 <_ZN20complex_full_dynamic3app17h77061a9749958794E+0xf0>)
   22750:	9407      	str	r4, [sp, #28]
   22752:	2601      	movs	r6, #1
   22754:	2802      	cmp	r0, #2
   22756:	d02d      	beq.n	227b4 <_ZN20complex_full_dynamic3app17h77061a9749958794E+0xbc>
   22758:	a822      	add	r0, sp, #136	@ 0x88
   2275a:	7a00      	ldrb	r0, [r0, #8]
   2275c:	2802      	cmp	r0, #2
   2275e:	d10e      	bne.n	2277e <_ZN20complex_full_dynamic3app17h77061a9749958794E+0x86>
   22760:	2503      	movs	r5, #3
   22762:	9803      	ldr	r0, [sp, #12]
   22764:	9000      	str	r0, [sp, #0]
   22766:	9501      	str	r5, [sp, #4]
   22768:	a83b      	add	r0, sp, #236	@ 0xec
   2276a:	4621      	mov	r1, r4
   2276c:	462a      	mov	r2, r5
   2276e:	9b04      	ldr	r3, [sp, #16]
   22770:	f006 fd06 	bl	29180 <_ZN9allow_pin13dynamic_allow17h8bfd3764c146b81aE>
   22774:	983b      	ldr	r0, [sp, #236]	@ 0xec
   22776:	2802      	cmp	r0, #2
   22778:	d106      	bne.n	22788 <_ZN20complex_full_dynamic3app17h77061a9749958794E+0x90>
   2277a:	993c      	ldr	r1, [sp, #240]	@ 0xf0
   2277c:	e000      	b.n	22780 <_ZN20complex_full_dynamic3app17h77061a9749958794E+0x88>
   2277e:	2103      	movs	r1, #3
   22780:	4630      	mov	r0, r6
   22782:	2800      	cmp	r0, #0
   22784:	d007      	beq.n	22796 <_ZN20complex_full_dynamic3app17h77061a9749958794E+0x9e>
   22786:	e015      	b.n	227b4 <_ZN20complex_full_dynamic3app17h77061a9749958794E+0xbc>
   22788:	a822      	add	r0, sp, #136	@ 0x88
   2278a:	7205      	strb	r5, [r0, #8]
   2278c:	9523      	str	r5, [sp, #140]	@ 0x8c
   2278e:	9422      	str	r4, [sp, #136]	@ 0x88
   22790:	2000      	movs	r0, #0
   22792:	2800      	cmp	r0, #0
   22794:	d10e      	bne.n	227b4 <_ZN20complex_full_dynamic3app17h77061a9749958794E+0xbc>
   22796:	4814      	ldr	r0, [pc, #80]	@ (227e8 <_ZN20complex_full_dynamic3app17h77061a9749958794E+0xf0>)
   22798:	2107      	movs	r1, #7
   2279a:	2203      	movs	r2, #3
   2279c:	2400      	movs	r4, #0
   2279e:	4623      	mov	r3, r4
   227a0:	df02      	svc	2
   227a2:	287f      	cmp	r0, #127	@ 0x7f
   227a4:	d906      	bls.n	227b4 <_ZN20complex_full_dynamic3app17h77061a9749958794E+0xbc>
   227a6:	a807      	add	r0, sp, #28
   227a8:	f006 fcd6 	bl	29158 <_ZN9allow_pin12full_dynamic17unshare_if_shared17hc49b4b2653f8b2c9E>
   227ac:	a822      	add	r0, sp, #136	@ 0x88
   227ae:	f006 fcd3 	bl	29158 <_ZN9allow_pin12full_dynamic17unshare_if_shared17hc49b4b2653f8b2c9E>
   227b2:	4626      	mov	r6, r4
   227b4:	2e00      	cmp	r6, #0
   227b6:	d003      	beq.n	227c0 <_ZN20complex_full_dynamic3app17h77061a9749958794E+0xc8>
   227b8:	9c06      	ldr	r4, [sp, #24]
   227ba:	6061      	str	r1, [r4, #4]
   227bc:	2001      	movs	r0, #1
   227be:	e009      	b.n	227d4 <_ZN20complex_full_dynamic3app17h77061a9749958794E+0xdc>
   227c0:	a822      	add	r0, sp, #136	@ 0x88
   227c2:	f006 fcc9 	bl	29158 <_ZN9allow_pin12full_dynamic17unshare_if_shared17hc49b4b2653f8b2c9E>
   227c6:	9c06      	ldr	r4, [sp, #24]
   227c8:	1c60      	adds	r0, r4, #1
   227ca:	2255      	movs	r2, #85	@ 0x55
   227cc:	9904      	ldr	r1, [sp, #16]
   227ce:	f006 fe9c 	bl	2950a <__aeabi_memcpy>
   227d2:	2000      	movs	r0, #0
   227d4:	7020      	strb	r0, [r4, #0]
   227d6:	a822      	add	r0, sp, #136	@ 0x88
   227d8:	f006 fcbe 	bl	29158 <_ZN9allow_pin12full_dynamic17unshare_if_shared17hc49b4b2653f8b2c9E>
   227dc:	a807      	add	r0, sp, #28
   227de:	f006 fcbb 	bl	29158 <_ZN9allow_pin12full_dynamic17unshare_if_shared17hc49b4b2653f8b2c9E>
   227e2:	b03f      	add	sp, #252	@ 0xfc
   227e4:	bdf0      	pop	{r4, r5, r6, r7, pc}
   227e6:	46c0      	nop			@ (mov r8, r8)
   227e8:	0000178a 	.word	0x0000178a

000227ec <_ZN20complex_full_dynamic3app17h7863757595515be9E>:
   227ec:	b5f0      	push	{r4, r5, r6, r7, lr}
   227ee:	af03      	add	r7, sp, #12
   227f0:	b0ad      	sub	sp, #180	@ 0xb4
   227f2:	9005      	str	r0, [sp, #20]
   227f4:	ac06      	add	r4, sp, #24
   227f6:	2502      	movs	r5, #2
   227f8:	7225      	strb	r5, [r4, #8]
   227fa:	340c      	adds	r4, #12
   227fc:	225d      	movs	r2, #93	@ 0x5d
   227fe:	9204      	str	r2, [sp, #16]
   22800:	4620      	mov	r0, r4
   22802:	f006 fe82 	bl	2950a <__aeabi_memcpy>
   22806:	a821      	add	r0, sp, #132	@ 0x84
   22808:	2600      	movs	r6, #0
   2280a:	8386      	strh	r6, [r0, #28]
   2280c:	7205      	strb	r5, [r0, #8]
   2280e:	4605      	mov	r5, r0
   22810:	9627      	str	r6, [sp, #156]	@ 0x9c
   22812:	9626      	str	r6, [sp, #152]	@ 0x98
   22814:	9625      	str	r6, [sp, #148]	@ 0x94
   22816:	9624      	str	r6, [sp, #144]	@ 0x90
   22818:	2004      	movs	r0, #4
   2281a:	9904      	ldr	r1, [sp, #16]
   2281c:	9100      	str	r1, [sp, #0]
   2281e:	9004      	str	r0, [sp, #16]
   22820:	9001      	str	r0, [sp, #4]
   22822:	a829      	add	r0, sp, #164	@ 0xa4
   22824:	492e      	ldr	r1, [pc, #184]	@ (228e0 <_ZN20complex_full_dynamic3app17h7863757595515be9E+0xf4>)
   22826:	4632      	mov	r2, r6
   22828:	4623      	mov	r3, r4
   2282a:	f006 fca9 	bl	29180 <_ZN9allow_pin13dynamic_allow17h8bfd3764c146b81aE>
   2282e:	9829      	ldr	r0, [sp, #164]	@ 0xa4
   22830:	2802      	cmp	r0, #2
   22832:	d102      	bne.n	2283a <_ZN20complex_full_dynamic3app17h7863757595515be9E+0x4e>
   22834:	992a      	ldr	r1, [sp, #168]	@ 0xa8
   22836:	4a2a      	ldr	r2, [pc, #168]	@ (228e0 <_ZN20complex_full_dynamic3app17h7863757595515be9E+0xf4>)
   22838:	e005      	b.n	22846 <_ZN20complex_full_dynamic3app17h7863757595515be9E+0x5a>
   2283a:	a906      	add	r1, sp, #24
   2283c:	9a04      	ldr	r2, [sp, #16]
   2283e:	720a      	strb	r2, [r1, #8]
   22840:	9607      	str	r6, [sp, #28]
   22842:	4a27      	ldr	r2, [pc, #156]	@ (228e0 <_ZN20complex_full_dynamic3app17h7863757595515be9E+0xf4>)
   22844:	9206      	str	r2, [sp, #24]
   22846:	350c      	adds	r5, #12
   22848:	9504      	str	r5, [sp, #16]
   2284a:	2501      	movs	r5, #1
   2284c:	2802      	cmp	r0, #2
   2284e:	d02e      	beq.n	228ae <_ZN20complex_full_dynamic3app17h7863757595515be9E+0xc2>
   22850:	a821      	add	r0, sp, #132	@ 0x84
   22852:	7a00      	ldrb	r0, [r0, #8]
   22854:	2103      	movs	r1, #3
   22856:	2802      	cmp	r0, #2
   22858:	d10e      	bne.n	22878 <_ZN20complex_full_dynamic3app17h7863757595515be9E+0x8c>
   2285a:	2012      	movs	r0, #18
   2285c:	9000      	str	r0, [sp, #0]
   2285e:	9103      	str	r1, [sp, #12]
   22860:	9101      	str	r1, [sp, #4]
   22862:	a829      	add	r0, sp, #164	@ 0xa4
   22864:	2402      	movs	r4, #2
   22866:	4611      	mov	r1, r2
   22868:	4622      	mov	r2, r4
   2286a:	9b04      	ldr	r3, [sp, #16]
   2286c:	f006 fc88 	bl	29180 <_ZN9allow_pin13dynamic_allow17h8bfd3764c146b81aE>
   22870:	9829      	ldr	r0, [sp, #164]	@ 0xa4
   22872:	2802      	cmp	r0, #2
   22874:	d104      	bne.n	22880 <_ZN20complex_full_dynamic3app17h7863757595515be9E+0x94>
   22876:	992a      	ldr	r1, [sp, #168]	@ 0xa8
   22878:	462e      	mov	r6, r5
   2287a:	2e00      	cmp	r6, #0
   2287c:	d008      	beq.n	22890 <_ZN20complex_full_dynamic3app17h7863757595515be9E+0xa4>
   2287e:	e016      	b.n	228ae <_ZN20complex_full_dynamic3app17h7863757595515be9E+0xc2>
   22880:	a821      	add	r0, sp, #132	@ 0x84
   22882:	9903      	ldr	r1, [sp, #12]
   22884:	7201      	strb	r1, [r0, #8]
   22886:	9422      	str	r4, [sp, #136]	@ 0x88
   22888:	4815      	ldr	r0, [pc, #84]	@ (228e0 <_ZN20complex_full_dynamic3app17h7863757595515be9E+0xf4>)
   2288a:	9021      	str	r0, [sp, #132]	@ 0x84
   2288c:	2e00      	cmp	r6, #0
   2288e:	d10e      	bne.n	228ae <_ZN20complex_full_dynamic3app17h7863757595515be9E+0xc2>
   22890:	4813      	ldr	r0, [pc, #76]	@ (228e0 <_ZN20complex_full_dynamic3app17h7863757595515be9E+0xf4>)
   22892:	2202      	movs	r2, #2
   22894:	2400      	movs	r4, #0
   22896:	4621      	mov	r1, r4
   22898:	4623      	mov	r3, r4
   2289a:	df02      	svc	2
   2289c:	287f      	cmp	r0, #127	@ 0x7f
   2289e:	d906      	bls.n	228ae <_ZN20complex_full_dynamic3app17h7863757595515be9E+0xc2>
   228a0:	a806      	add	r0, sp, #24
   228a2:	f006 fc59 	bl	29158 <_ZN9allow_pin12full_dynamic17unshare_if_shared17hc49b4b2653f8b2c9E>
   228a6:	a821      	add	r0, sp, #132	@ 0x84
   228a8:	f006 fc56 	bl	29158 <_ZN9allow_pin12full_dynamic17unshare_if_shared17hc49b4b2653f8b2c9E>
   228ac:	4625      	mov	r5, r4
   228ae:	2d00      	cmp	r5, #0
   228b0:	d003      	beq.n	228ba <_ZN20complex_full_dynamic3app17h7863757595515be9E+0xce>
   228b2:	9c05      	ldr	r4, [sp, #20]
   228b4:	6061      	str	r1, [r4, #4]
   228b6:	2001      	movs	r0, #1
   228b8:	e009      	b.n	228ce <_ZN20complex_full_dynamic3app17h7863757595515be9E+0xe2>
   228ba:	a821      	add	r0, sp, #132	@ 0x84
   228bc:	f006 fc4c 	bl	29158 <_ZN9allow_pin12full_dynamic17unshare_if_shared17hc49b4b2653f8b2c9E>
   228c0:	9c05      	ldr	r4, [sp, #20]
   228c2:	1c60      	adds	r0, r4, #1
   228c4:	2212      	movs	r2, #18
   228c6:	9904      	ldr	r1, [sp, #16]
   228c8:	f006 fe1f 	bl	2950a <__aeabi_memcpy>
   228cc:	2000      	movs	r0, #0
   228ce:	7020      	strb	r0, [r4, #0]
   228d0:	a821      	add	r0, sp, #132	@ 0x84
   228d2:	f006 fc41 	bl	29158 <_ZN9allow_pin12full_dynamic17unshare_if_shared17hc49b4b2653f8b2c9E>
   228d6:	a806      	add	r0, sp, #24
   228d8:	f006 fc3e 	bl	29158 <_ZN9allow_pin12full_dynamic17unshare_if_shared17hc49b4b2653f8b2c9E>
   228dc:	b02d      	add	sp, #180	@ 0xb4
   228de:	bdf0      	pop	{r4, r5, r6, r7, pc}
   228e0:	000015f1 	.word	0x000015f1

000228e4 <_ZN20complex_full_dynamic3app17h787c6c42da875b03E>:
   228e4:	b5f0      	push	{r4, r5, r6, r7, lr}
   228e6:	af03      	add	r7, sp, #12
   228e8:	b0a1      	sub	sp, #132	@ 0x84
   228ea:	9005      	str	r0, [sp, #20]
   228ec:	ac07      	add	r4, sp, #28
   228ee:	2502      	movs	r5, #2
   228f0:	7225      	strb	r5, [r4, #8]
   228f2:	340c      	adds	r4, #12
   228f4:	2625      	movs	r6, #37	@ 0x25
   228f6:	4620      	mov	r0, r4
   228f8:	4632      	mov	r2, r6
   228fa:	f006 fe06 	bl	2950a <__aeabi_memcpy>
   228fe:	a814      	add	r0, sp, #80	@ 0x50
   22900:	9006      	str	r0, [sp, #24]
   22902:	7205      	strb	r5, [r0, #8]
   22904:	2500      	movs	r5, #0
   22906:	951c      	str	r5, [sp, #112]	@ 0x70
   22908:	951b      	str	r5, [sp, #108]	@ 0x6c
   2290a:	951a      	str	r5, [sp, #104]	@ 0x68
   2290c:	9519      	str	r5, [sp, #100]	@ 0x64
   2290e:	9518      	str	r5, [sp, #96]	@ 0x60
   22910:	9517      	str	r5, [sp, #92]	@ 0x5c
   22912:	2004      	movs	r0, #4
   22914:	9600      	str	r6, [sp, #0]
   22916:	9004      	str	r0, [sp, #16]
   22918:	9001      	str	r0, [sp, #4]
   2291a:	20a7      	movs	r0, #167	@ 0xa7
   2291c:	0106      	lsls	r6, r0, #4
   2291e:	a81d      	add	r0, sp, #116	@ 0x74
   22920:	2209      	movs	r2, #9
   22922:	4631      	mov	r1, r6
   22924:	9203      	str	r2, [sp, #12]
   22926:	4623      	mov	r3, r4
   22928:	f006 fc2a 	bl	29180 <_ZN9allow_pin13dynamic_allow17h8bfd3764c146b81aE>
   2292c:	981d      	ldr	r0, [sp, #116]	@ 0x74
   2292e:	2802      	cmp	r0, #2
   22930:	d102      	bne.n	22938 <_ZN20complex_full_dynamic3app17h787c6c42da875b03E+0x54>
   22932:	4632      	mov	r2, r6
   22934:	991e      	ldr	r1, [sp, #120]	@ 0x78
   22936:	e006      	b.n	22946 <_ZN20complex_full_dynamic3app17h787c6c42da875b03E+0x62>
   22938:	a907      	add	r1, sp, #28
   2293a:	9a04      	ldr	r2, [sp, #16]
   2293c:	720a      	strb	r2, [r1, #8]
   2293e:	9903      	ldr	r1, [sp, #12]
   22940:	9108      	str	r1, [sp, #32]
   22942:	4632      	mov	r2, r6
   22944:	9607      	str	r6, [sp, #28]
   22946:	9e06      	ldr	r6, [sp, #24]
   22948:	360c      	adds	r6, #12
   2294a:	2401      	movs	r4, #1
   2294c:	2802      	cmp	r0, #2
   2294e:	d037      	beq.n	229c0 <_ZN20complex_full_dynamic3app17h787c6c42da875b03E+0xdc>
   22950:	a814      	add	r0, sp, #80	@ 0x50
   22952:	7a00      	ldrb	r0, [r0, #8]
   22954:	2103      	movs	r1, #3
   22956:	2802      	cmp	r0, #2
   22958:	d116      	bne.n	22988 <_ZN20complex_full_dynamic3app17h787c6c42da875b03E+0xa4>
   2295a:	2018      	movs	r0, #24
   2295c:	9000      	str	r0, [sp, #0]
   2295e:	9103      	str	r1, [sp, #12]
   22960:	9101      	str	r1, [sp, #4]
   22962:	a81d      	add	r0, sp, #116	@ 0x74
   22964:	4633      	mov	r3, r6
   22966:	2608      	movs	r6, #8
   22968:	4611      	mov	r1, r2
   2296a:	9204      	str	r2, [sp, #16]
   2296c:	4632      	mov	r2, r6
   2296e:	9306      	str	r3, [sp, #24]
   22970:	f006 fc06 	bl	29180 <_ZN9allow_pin13dynamic_allow17h8bfd3764c146b81aE>
   22974:	981d      	ldr	r0, [sp, #116]	@ 0x74
   22976:	2802      	cmp	r0, #2
   22978:	d10b      	bne.n	22992 <_ZN20complex_full_dynamic3app17h787c6c42da875b03E+0xae>
   2297a:	991e      	ldr	r1, [sp, #120]	@ 0x78
   2297c:	4625      	mov	r5, r4
   2297e:	9e06      	ldr	r6, [sp, #24]
   22980:	9804      	ldr	r0, [sp, #16]
   22982:	2d00      	cmp	r5, #0
   22984:	d00e      	beq.n	229a4 <_ZN20complex_full_dynamic3app17h787c6c42da875b03E+0xc0>
   22986:	e01b      	b.n	229c0 <_ZN20complex_full_dynamic3app17h787c6c42da875b03E+0xdc>
   22988:	4625      	mov	r5, r4
   2298a:	4610      	mov	r0, r2
   2298c:	2d00      	cmp	r5, #0
   2298e:	d009      	beq.n	229a4 <_ZN20complex_full_dynamic3app17h787c6c42da875b03E+0xc0>
   22990:	e016      	b.n	229c0 <_ZN20complex_full_dynamic3app17h787c6c42da875b03E+0xdc>
   22992:	a814      	add	r0, sp, #80	@ 0x50
   22994:	9903      	ldr	r1, [sp, #12]
   22996:	7201      	strb	r1, [r0, #8]
   22998:	9615      	str	r6, [sp, #84]	@ 0x54
   2299a:	9804      	ldr	r0, [sp, #16]
   2299c:	9014      	str	r0, [sp, #80]	@ 0x50
   2299e:	9e06      	ldr	r6, [sp, #24]
   229a0:	2d00      	cmp	r5, #0
   229a2:	d10d      	bne.n	229c0 <_ZN20complex_full_dynamic3app17h787c6c42da875b03E+0xdc>
   229a4:	2109      	movs	r1, #9
   229a6:	2208      	movs	r2, #8
   229a8:	2500      	movs	r5, #0
   229aa:	462b      	mov	r3, r5
   229ac:	df02      	svc	2
   229ae:	287f      	cmp	r0, #127	@ 0x7f
   229b0:	d906      	bls.n	229c0 <_ZN20complex_full_dynamic3app17h787c6c42da875b03E+0xdc>
   229b2:	a807      	add	r0, sp, #28
   229b4:	f006 fbd0 	bl	29158 <_ZN9allow_pin12full_dynamic17unshare_if_shared17hc49b4b2653f8b2c9E>
   229b8:	a814      	add	r0, sp, #80	@ 0x50
   229ba:	f006 fbcd 	bl	29158 <_ZN9allow_pin12full_dynamic17unshare_if_shared17hc49b4b2653f8b2c9E>
   229be:	462c      	mov	r4, r5
   229c0:	2c00      	cmp	r4, #0
   229c2:	d003      	beq.n	229cc <_ZN20complex_full_dynamic3app17h787c6c42da875b03E+0xe8>
   229c4:	9c05      	ldr	r4, [sp, #20]
   229c6:	6061      	str	r1, [r4, #4]
   229c8:	2001      	movs	r0, #1
   229ca:	e009      	b.n	229e0 <_ZN20complex_full_dynamic3app17h787c6c42da875b03E+0xfc>
   229cc:	a814      	add	r0, sp, #80	@ 0x50
   229ce:	f006 fbc3 	bl	29158 <_ZN9allow_pin12full_dynamic17unshare_if_shared17hc49b4b2653f8b2c9E>
   229d2:	9c05      	ldr	r4, [sp, #20]
   229d4:	1c60      	adds	r0, r4, #1
   229d6:	2218      	movs	r2, #24
   229d8:	4631      	mov	r1, r6
   229da:	f006 fd96 	bl	2950a <__aeabi_memcpy>
   229de:	2000      	movs	r0, #0
   229e0:	7020      	strb	r0, [r4, #0]
   229e2:	a814      	add	r0, sp, #80	@ 0x50
   229e4:	f006 fbb8 	bl	29158 <_ZN9allow_pin12full_dynamic17unshare_if_shared17hc49b4b2653f8b2c9E>
   229e8:	a807      	add	r0, sp, #28
   229ea:	f006 fbb5 	bl	29158 <_ZN9allow_pin12full_dynamic17unshare_if_shared17hc49b4b2653f8b2c9E>
   229ee:	b021      	add	sp, #132	@ 0x84
   229f0:	bdf0      	pop	{r4, r5, r6, r7, pc}
   229f2:	d4d4      	bmi.n	2299e <_ZN20complex_full_dynamic3app17h787c6c42da875b03E+0xba>

000229f4 <_ZN20complex_full_dynamic3app17h795f4eaf5eed96a8E>:
   229f4:	b5f0      	push	{r4, r5, r6, r7, lr}
   229f6:	af03      	add	r7, sp, #12
   229f8:	b0ab      	sub	sp, #172	@ 0xac
   229fa:	9006      	str	r0, [sp, #24]
   229fc:	ae07      	add	r6, sp, #28
   229fe:	2002      	movs	r0, #2
   22a00:	9005      	str	r0, [sp, #20]
   22a02:	7230      	strb	r0, [r6, #8]
   22a04:	360c      	adds	r6, #12
   22a06:	252e      	movs	r5, #46	@ 0x2e
   22a08:	4630      	mov	r0, r6
   22a0a:	462a      	mov	r2, r5
   22a0c:	f006 fd7d 	bl	2950a <__aeabi_memcpy>
   22a10:	ac16      	add	r4, sp, #88	@ 0x58
   22a12:	4620      	mov	r0, r4
   22a14:	300c      	adds	r0, #12
   22a16:	2138      	movs	r1, #56	@ 0x38
   22a18:	9004      	str	r0, [sp, #16]
   22a1a:	9103      	str	r1, [sp, #12]
   22a1c:	f006 fbc8 	bl	291b0 <__aeabi_memclr4>
   22a20:	9805      	ldr	r0, [sp, #20]
   22a22:	7220      	strb	r0, [r4, #8]
   22a24:	2404      	movs	r4, #4
   22a26:	9500      	str	r5, [sp, #0]
   22a28:	9401      	str	r4, [sp, #4]
   22a2a:	a827      	add	r0, sp, #156	@ 0x9c
   22a2c:	492e      	ldr	r1, [pc, #184]	@ (22ae8 <_ZN20complex_full_dynamic3app17h795f4eaf5eed96a8E+0xf4>)
   22a2e:	2509      	movs	r5, #9
   22a30:	462a      	mov	r2, r5
   22a32:	4633      	mov	r3, r6
   22a34:	f006 fba4 	bl	29180 <_ZN9allow_pin13dynamic_allow17h8bfd3764c146b81aE>
   22a38:	9827      	ldr	r0, [sp, #156]	@ 0x9c
   22a3a:	2802      	cmp	r0, #2
   22a3c:	d102      	bne.n	22a44 <_ZN20complex_full_dynamic3app17h795f4eaf5eed96a8E+0x50>
   22a3e:	9928      	ldr	r1, [sp, #160]	@ 0xa0
   22a40:	4a29      	ldr	r2, [pc, #164]	@ (22ae8 <_ZN20complex_full_dynamic3app17h795f4eaf5eed96a8E+0xf4>)
   22a42:	e004      	b.n	22a4e <_ZN20complex_full_dynamic3app17h795f4eaf5eed96a8E+0x5a>
   22a44:	a907      	add	r1, sp, #28
   22a46:	720c      	strb	r4, [r1, #8]
   22a48:	9508      	str	r5, [sp, #32]
   22a4a:	4a27      	ldr	r2, [pc, #156]	@ (22ae8 <_ZN20complex_full_dynamic3app17h795f4eaf5eed96a8E+0xf4>)
   22a4c:	9207      	str	r2, [sp, #28]
   22a4e:	2501      	movs	r5, #1
   22a50:	2802      	cmp	r0, #2
   22a52:	d02f      	beq.n	22ab4 <_ZN20complex_full_dynamic3app17h795f4eaf5eed96a8E+0xc0>
   22a54:	a816      	add	r0, sp, #88	@ 0x58
   22a56:	7a00      	ldrb	r0, [r0, #8]
   22a58:	2802      	cmp	r0, #2
   22a5a:	d10f      	bne.n	22a7c <_ZN20complex_full_dynamic3app17h795f4eaf5eed96a8E+0x88>
   22a5c:	2603      	movs	r6, #3
   22a5e:	9803      	ldr	r0, [sp, #12]
   22a60:	9000      	str	r0, [sp, #0]
   22a62:	9601      	str	r6, [sp, #4]
   22a64:	a827      	add	r0, sp, #156	@ 0x9c
   22a66:	2409      	movs	r4, #9
   22a68:	4611      	mov	r1, r2
   22a6a:	4622      	mov	r2, r4
   22a6c:	9b04      	ldr	r3, [sp, #16]
   22a6e:	f006 fb87 	bl	29180 <_ZN9allow_pin13dynamic_allow17h8bfd3764c146b81aE>
   22a72:	9827      	ldr	r0, [sp, #156]	@ 0x9c
   22a74:	2802      	cmp	r0, #2
   22a76:	d106      	bne.n	22a86 <_ZN20complex_full_dynamic3app17h795f4eaf5eed96a8E+0x92>
   22a78:	9928      	ldr	r1, [sp, #160]	@ 0xa0
   22a7a:	e000      	b.n	22a7e <_ZN20complex_full_dynamic3app17h795f4eaf5eed96a8E+0x8a>
   22a7c:	2103      	movs	r1, #3
   22a7e:	4628      	mov	r0, r5
   22a80:	2800      	cmp	r0, #0
   22a82:	d008      	beq.n	22a96 <_ZN20complex_full_dynamic3app17h795f4eaf5eed96a8E+0xa2>
   22a84:	e016      	b.n	22ab4 <_ZN20complex_full_dynamic3app17h795f4eaf5eed96a8E+0xc0>
   22a86:	a816      	add	r0, sp, #88	@ 0x58
   22a88:	7206      	strb	r6, [r0, #8]
   22a8a:	9417      	str	r4, [sp, #92]	@ 0x5c
   22a8c:	4816      	ldr	r0, [pc, #88]	@ (22ae8 <_ZN20complex_full_dynamic3app17h795f4eaf5eed96a8E+0xf4>)
   22a8e:	9016      	str	r0, [sp, #88]	@ 0x58
   22a90:	2000      	movs	r0, #0
   22a92:	2800      	cmp	r0, #0
   22a94:	d10e      	bne.n	22ab4 <_ZN20complex_full_dynamic3app17h795f4eaf5eed96a8E+0xc0>
   22a96:	4814      	ldr	r0, [pc, #80]	@ (22ae8 <_ZN20complex_full_dynamic3app17h795f4eaf5eed96a8E+0xf4>)
   22a98:	2109      	movs	r1, #9
   22a9a:	2400      	movs	r4, #0
   22a9c:	460a      	mov	r2, r1
   22a9e:	4623      	mov	r3, r4
   22aa0:	df02      	svc	2
   22aa2:	287f      	cmp	r0, #127	@ 0x7f
   22aa4:	d906      	bls.n	22ab4 <_ZN20complex_full_dynamic3app17h795f4eaf5eed96a8E+0xc0>
   22aa6:	a807      	add	r0, sp, #28
   22aa8:	f006 fb56 	bl	29158 <_ZN9allow_pin12full_dynamic17unshare_if_shared17hc49b4b2653f8b2c9E>
   22aac:	a816      	add	r0, sp, #88	@ 0x58
   22aae:	f006 fb53 	bl	29158 <_ZN9allow_pin12full_dynamic17unshare_if_shared17hc49b4b2653f8b2c9E>
   22ab2:	4625      	mov	r5, r4
   22ab4:	2d00      	cmp	r5, #0
   22ab6:	d003      	beq.n	22ac0 <_ZN20complex_full_dynamic3app17h795f4eaf5eed96a8E+0xcc>
   22ab8:	9c06      	ldr	r4, [sp, #24]
   22aba:	6061      	str	r1, [r4, #4]
   22abc:	2001      	movs	r0, #1
   22abe:	e009      	b.n	22ad4 <_ZN20complex_full_dynamic3app17h795f4eaf5eed96a8E+0xe0>
   22ac0:	a816      	add	r0, sp, #88	@ 0x58
   22ac2:	f006 fb49 	bl	29158 <_ZN9allow_pin12full_dynamic17unshare_if_shared17hc49b4b2653f8b2c9E>
   22ac6:	9c06      	ldr	r4, [sp, #24]
   22ac8:	1c60      	adds	r0, r4, #1
   22aca:	2238      	movs	r2, #56	@ 0x38
   22acc:	9904      	ldr	r1, [sp, #16]
   22ace:	f006 fd1c 	bl	2950a <__aeabi_memcpy>
   22ad2:	2000      	movs	r0, #0
   22ad4:	7020      	strb	r0, [r4, #0]
   22ad6:	a816      	add	r0, sp, #88	@ 0x58
   22ad8:	f006 fb3e 	bl	29158 <_ZN9allow_pin12full_dynamic17unshare_if_shared17hc49b4b2653f8b2c9E>
   22adc:	a807      	add	r0, sp, #28
   22ade:	f006 fb3b 	bl	29158 <_ZN9allow_pin12full_dynamic17unshare_if_shared17hc49b4b2653f8b2c9E>
   22ae2:	b02b      	add	sp, #172	@ 0xac
   22ae4:	bdf0      	pop	{r4, r5, r6, r7, pc}
   22ae6:	46c0      	nop			@ (mov r8, r8)
   22ae8:	00000a9d 	.word	0x00000a9d

00022aec <_ZN20complex_full_dynamic3app17h7f255a17eb07b4f3E>:
   22aec:	b5f0      	push	{r4, r5, r6, r7, lr}
   22aee:	af03      	add	r7, sp, #12
   22af0:	b0a5      	sub	sp, #148	@ 0x94
   22af2:	9005      	str	r0, [sp, #20]
   22af4:	ae06      	add	r6, sp, #24
   22af6:	2002      	movs	r0, #2
   22af8:	9004      	str	r0, [sp, #16]
   22afa:	7230      	strb	r0, [r6, #8]
   22afc:	360c      	adds	r6, #12
   22afe:	252a      	movs	r5, #42	@ 0x2a
   22b00:	4630      	mov	r0, r6
   22b02:	462a      	mov	r2, r5
   22b04:	f006 fd01 	bl	2950a <__aeabi_memcpy>
   22b08:	ac14      	add	r4, sp, #80	@ 0x50
   22b0a:	4620      	mov	r0, r4
   22b0c:	300c      	adds	r0, #12
   22b0e:	2128      	movs	r1, #40	@ 0x28
   22b10:	9003      	str	r0, [sp, #12]
   22b12:	9102      	str	r1, [sp, #8]
   22b14:	f006 fb4c 	bl	291b0 <__aeabi_memclr4>
   22b18:	9804      	ldr	r0, [sp, #16]
   22b1a:	7220      	strb	r0, [r4, #8]
   22b1c:	2404      	movs	r4, #4
   22b1e:	9500      	str	r5, [sp, #0]
   22b20:	9401      	str	r4, [sp, #4]
   22b22:	a821      	add	r0, sp, #132	@ 0x84
   22b24:	4d2d      	ldr	r5, [pc, #180]	@ (22bdc <_ZN20complex_full_dynamic3app17h7f255a17eb07b4f3E+0xf0>)
   22b26:	4629      	mov	r1, r5
   22b28:	4622      	mov	r2, r4
   22b2a:	4633      	mov	r3, r6
   22b2c:	f006 fb28 	bl	29180 <_ZN9allow_pin13dynamic_allow17h8bfd3764c146b81aE>
   22b30:	9821      	ldr	r0, [sp, #132]	@ 0x84
   22b32:	2802      	cmp	r0, #2
   22b34:	d102      	bne.n	22b3c <_ZN20complex_full_dynamic3app17h7f255a17eb07b4f3E+0x50>
   22b36:	462e      	mov	r6, r5
   22b38:	9922      	ldr	r1, [sp, #136]	@ 0x88
   22b3a:	e004      	b.n	22b46 <_ZN20complex_full_dynamic3app17h7f255a17eb07b4f3E+0x5a>
   22b3c:	a906      	add	r1, sp, #24
   22b3e:	720c      	strb	r4, [r1, #8]
   22b40:	9407      	str	r4, [sp, #28]
   22b42:	462e      	mov	r6, r5
   22b44:	9506      	str	r5, [sp, #24]
   22b46:	2501      	movs	r5, #1
   22b48:	2802      	cmp	r0, #2
   22b4a:	d02e      	beq.n	22baa <_ZN20complex_full_dynamic3app17h7f255a17eb07b4f3E+0xbe>
   22b4c:	a814      	add	r0, sp, #80	@ 0x50
   22b4e:	7a00      	ldrb	r0, [r0, #8]
   22b50:	2103      	movs	r1, #3
   22b52:	2802      	cmp	r0, #2
   22b54:	d10e      	bne.n	22b74 <_ZN20complex_full_dynamic3app17h7f255a17eb07b4f3E+0x88>
   22b56:	9802      	ldr	r0, [sp, #8]
   22b58:	9000      	str	r0, [sp, #0]
   22b5a:	9104      	str	r1, [sp, #16]
   22b5c:	9101      	str	r1, [sp, #4]
   22b5e:	a821      	add	r0, sp, #132	@ 0x84
   22b60:	2408      	movs	r4, #8
   22b62:	4631      	mov	r1, r6
   22b64:	4622      	mov	r2, r4
   22b66:	9b03      	ldr	r3, [sp, #12]
   22b68:	f006 fb0a 	bl	29180 <_ZN9allow_pin13dynamic_allow17h8bfd3764c146b81aE>
   22b6c:	9821      	ldr	r0, [sp, #132]	@ 0x84
   22b6e:	2802      	cmp	r0, #2
   22b70:	d104      	bne.n	22b7c <_ZN20complex_full_dynamic3app17h7f255a17eb07b4f3E+0x90>
   22b72:	9922      	ldr	r1, [sp, #136]	@ 0x88
   22b74:	4628      	mov	r0, r5
   22b76:	2800      	cmp	r0, #0
   22b78:	d008      	beq.n	22b8c <_ZN20complex_full_dynamic3app17h7f255a17eb07b4f3E+0xa0>
   22b7a:	e016      	b.n	22baa <_ZN20complex_full_dynamic3app17h7f255a17eb07b4f3E+0xbe>
   22b7c:	a814      	add	r0, sp, #80	@ 0x50
   22b7e:	9904      	ldr	r1, [sp, #16]
   22b80:	7201      	strb	r1, [r0, #8]
   22b82:	9415      	str	r4, [sp, #84]	@ 0x54
   22b84:	9614      	str	r6, [sp, #80]	@ 0x50
   22b86:	2000      	movs	r0, #0
   22b88:	2800      	cmp	r0, #0
   22b8a:	d10e      	bne.n	22baa <_ZN20complex_full_dynamic3app17h7f255a17eb07b4f3E+0xbe>
   22b8c:	4813      	ldr	r0, [pc, #76]	@ (22bdc <_ZN20complex_full_dynamic3app17h7f255a17eb07b4f3E+0xf0>)
   22b8e:	2104      	movs	r1, #4
   22b90:	2208      	movs	r2, #8
   22b92:	2400      	movs	r4, #0
   22b94:	4623      	mov	r3, r4
   22b96:	df02      	svc	2
   22b98:	287f      	cmp	r0, #127	@ 0x7f
   22b9a:	d906      	bls.n	22baa <_ZN20complex_full_dynamic3app17h7f255a17eb07b4f3E+0xbe>
   22b9c:	a806      	add	r0, sp, #24
   22b9e:	f006 fadb 	bl	29158 <_ZN9allow_pin12full_dynamic17unshare_if_shared17hc49b4b2653f8b2c9E>
   22ba2:	a814      	add	r0, sp, #80	@ 0x50
   22ba4:	f006 fad8 	bl	29158 <_ZN9allow_pin12full_dynamic17unshare_if_shared17hc49b4b2653f8b2c9E>
   22ba8:	4625      	mov	r5, r4
   22baa:	2d00      	cmp	r5, #0
   22bac:	d003      	beq.n	22bb6 <_ZN20complex_full_dynamic3app17h7f255a17eb07b4f3E+0xca>
   22bae:	9c05      	ldr	r4, [sp, #20]
   22bb0:	6061      	str	r1, [r4, #4]
   22bb2:	2001      	movs	r0, #1
   22bb4:	e009      	b.n	22bca <_ZN20complex_full_dynamic3app17h7f255a17eb07b4f3E+0xde>
   22bb6:	a814      	add	r0, sp, #80	@ 0x50
   22bb8:	f006 face 	bl	29158 <_ZN9allow_pin12full_dynamic17unshare_if_shared17hc49b4b2653f8b2c9E>
   22bbc:	9c05      	ldr	r4, [sp, #20]
   22bbe:	1c60      	adds	r0, r4, #1
   22bc0:	2228      	movs	r2, #40	@ 0x28
   22bc2:	9903      	ldr	r1, [sp, #12]
   22bc4:	f006 fca1 	bl	2950a <__aeabi_memcpy>
   22bc8:	2000      	movs	r0, #0
   22bca:	7020      	strb	r0, [r4, #0]
   22bcc:	a814      	add	r0, sp, #80	@ 0x50
   22bce:	f006 fac3 	bl	29158 <_ZN9allow_pin12full_dynamic17unshare_if_shared17hc49b4b2653f8b2c9E>
   22bd2:	a806      	add	r0, sp, #24
   22bd4:	f006 fac0 	bl	29158 <_ZN9allow_pin12full_dynamic17unshare_if_shared17hc49b4b2653f8b2c9E>
   22bd8:	b025      	add	sp, #148	@ 0x94
   22bda:	bdf0      	pop	{r4, r5, r6, r7, pc}
   22bdc:	00001efa 	.word	0x00001efa

00022be0 <_ZN20complex_full_dynamic3app17h7fb6a05f74735bc9E>:
   22be0:	b5f0      	push	{r4, r5, r6, r7, lr}
   22be2:	af03      	add	r7, sp, #12
   22be4:	b09f      	sub	sp, #124	@ 0x7c
   22be6:	9006      	str	r0, [sp, #24]
   22be8:	ac07      	add	r4, sp, #28
   22bea:	2002      	movs	r0, #2
   22bec:	9005      	str	r0, [sp, #20]
   22bee:	7220      	strb	r0, [r4, #8]
   22bf0:	340c      	adds	r4, #12
   22bf2:	250f      	movs	r5, #15
   22bf4:	4620      	mov	r0, r4
   22bf6:	462a      	mov	r2, r5
   22bf8:	f006 fc87 	bl	2950a <__aeabi_memcpy>
   22bfc:	ae0e      	add	r6, sp, #56	@ 0x38
   22bfe:	4630      	mov	r0, r6
   22c00:	300c      	adds	r0, #12
   22c02:	2125      	movs	r1, #37	@ 0x25
   22c04:	9004      	str	r0, [sp, #16]
   22c06:	9103      	str	r1, [sp, #12]
   22c08:	f006 fad2 	bl	291b0 <__aeabi_memclr4>
   22c0c:	9805      	ldr	r0, [sp, #20]
   22c0e:	7230      	strb	r0, [r6, #8]
   22c10:	2004      	movs	r0, #4
   22c12:	9500      	str	r5, [sp, #0]
   22c14:	9005      	str	r0, [sp, #20]
   22c16:	9001      	str	r0, [sp, #4]
   22c18:	a81b      	add	r0, sp, #108	@ 0x6c
   22c1a:	25a2      	movs	r5, #162	@ 0xa2
   22c1c:	2608      	movs	r6, #8
   22c1e:	4629      	mov	r1, r5
   22c20:	4632      	mov	r2, r6
   22c22:	4623      	mov	r3, r4
   22c24:	f006 faac 	bl	29180 <_ZN9allow_pin13dynamic_allow17h8bfd3764c146b81aE>
   22c28:	981b      	ldr	r0, [sp, #108]	@ 0x6c
   22c2a:	2802      	cmp	r0, #2
   22c2c:	d101      	bne.n	22c32 <_ZN20complex_full_dynamic3app17h7fb6a05f74735bc9E+0x52>
   22c2e:	991c      	ldr	r1, [sp, #112]	@ 0x70
   22c30:	e004      	b.n	22c3c <_ZN20complex_full_dynamic3app17h7fb6a05f74735bc9E+0x5c>
   22c32:	a907      	add	r1, sp, #28
   22c34:	9a05      	ldr	r2, [sp, #20]
   22c36:	720a      	strb	r2, [r1, #8]
   22c38:	9608      	str	r6, [sp, #32]
   22c3a:	9507      	str	r5, [sp, #28]
   22c3c:	2601      	movs	r6, #1
   22c3e:	2802      	cmp	r0, #2
   22c40:	d02e      	beq.n	22ca0 <_ZN20complex_full_dynamic3app17h7fb6a05f74735bc9E+0xc0>
   22c42:	a80e      	add	r0, sp, #56	@ 0x38
   22c44:	7a00      	ldrb	r0, [r0, #8]
   22c46:	2103      	movs	r1, #3
   22c48:	2802      	cmp	r0, #2
   22c4a:	d10f      	bne.n	22c6c <_ZN20complex_full_dynamic3app17h7fb6a05f74735bc9E+0x8c>
   22c4c:	9803      	ldr	r0, [sp, #12]
   22c4e:	9000      	str	r0, [sp, #0]
   22c50:	9105      	str	r1, [sp, #20]
   22c52:	9101      	str	r1, [sp, #4]
   22c54:	a81b      	add	r0, sp, #108	@ 0x6c
   22c56:	25a2      	movs	r5, #162	@ 0xa2
   22c58:	2400      	movs	r4, #0
   22c5a:	4629      	mov	r1, r5
   22c5c:	4622      	mov	r2, r4
   22c5e:	9b04      	ldr	r3, [sp, #16]
   22c60:	f006 fa8e 	bl	29180 <_ZN9allow_pin13dynamic_allow17h8bfd3764c146b81aE>
   22c64:	981b      	ldr	r0, [sp, #108]	@ 0x6c
   22c66:	2802      	cmp	r0, #2
   22c68:	d104      	bne.n	22c74 <_ZN20complex_full_dynamic3app17h7fb6a05f74735bc9E+0x94>
   22c6a:	991c      	ldr	r1, [sp, #112]	@ 0x70
   22c6c:	4634      	mov	r4, r6
   22c6e:	2c00      	cmp	r4, #0
   22c70:	d007      	beq.n	22c82 <_ZN20complex_full_dynamic3app17h7fb6a05f74735bc9E+0xa2>
   22c72:	e015      	b.n	22ca0 <_ZN20complex_full_dynamic3app17h7fb6a05f74735bc9E+0xc0>
   22c74:	a80e      	add	r0, sp, #56	@ 0x38
   22c76:	9905      	ldr	r1, [sp, #20]
   22c78:	7201      	strb	r1, [r0, #8]
   22c7a:	940f      	str	r4, [sp, #60]	@ 0x3c
   22c7c:	950e      	str	r5, [sp, #56]	@ 0x38
   22c7e:	2c00      	cmp	r4, #0
   22c80:	d10e      	bne.n	22ca0 <_ZN20complex_full_dynamic3app17h7fb6a05f74735bc9E+0xc0>
   22c82:	20a2      	movs	r0, #162	@ 0xa2
   22c84:	2108      	movs	r1, #8
   22c86:	2400      	movs	r4, #0
   22c88:	4622      	mov	r2, r4
   22c8a:	4623      	mov	r3, r4
   22c8c:	df02      	svc	2
   22c8e:	287f      	cmp	r0, #127	@ 0x7f
   22c90:	d906      	bls.n	22ca0 <_ZN20complex_full_dynamic3app17h7fb6a05f74735bc9E+0xc0>
   22c92:	a807      	add	r0, sp, #28
   22c94:	f006 fa60 	bl	29158 <_ZN9allow_pin12full_dynamic17unshare_if_shared17hc49b4b2653f8b2c9E>
   22c98:	a80e      	add	r0, sp, #56	@ 0x38
   22c9a:	f006 fa5d 	bl	29158 <_ZN9allow_pin12full_dynamic17unshare_if_shared17hc49b4b2653f8b2c9E>
   22c9e:	4626      	mov	r6, r4
   22ca0:	2e00      	cmp	r6, #0
   22ca2:	d003      	beq.n	22cac <_ZN20complex_full_dynamic3app17h7fb6a05f74735bc9E+0xcc>
   22ca4:	9c06      	ldr	r4, [sp, #24]
   22ca6:	6061      	str	r1, [r4, #4]
   22ca8:	2001      	movs	r0, #1
   22caa:	e009      	b.n	22cc0 <_ZN20complex_full_dynamic3app17h7fb6a05f74735bc9E+0xe0>
   22cac:	a80e      	add	r0, sp, #56	@ 0x38
   22cae:	f006 fa53 	bl	29158 <_ZN9allow_pin12full_dynamic17unshare_if_shared17hc49b4b2653f8b2c9E>
   22cb2:	9c06      	ldr	r4, [sp, #24]
   22cb4:	1c60      	adds	r0, r4, #1
   22cb6:	2225      	movs	r2, #37	@ 0x25
   22cb8:	9904      	ldr	r1, [sp, #16]
   22cba:	f006 fc26 	bl	2950a <__aeabi_memcpy>
   22cbe:	2000      	movs	r0, #0
   22cc0:	7020      	strb	r0, [r4, #0]
   22cc2:	a80e      	add	r0, sp, #56	@ 0x38
   22cc4:	f006 fa48 	bl	29158 <_ZN9allow_pin12full_dynamic17unshare_if_shared17hc49b4b2653f8b2c9E>
   22cc8:	a807      	add	r0, sp, #28
   22cca:	f006 fa45 	bl	29158 <_ZN9allow_pin12full_dynamic17unshare_if_shared17hc49b4b2653f8b2c9E>
   22cce:	b01f      	add	sp, #124	@ 0x7c
   22cd0:	bdf0      	pop	{r4, r5, r6, r7, pc}
   22cd2:	d4d4      	bmi.n	22c7e <_ZN20complex_full_dynamic3app17h7fb6a05f74735bc9E+0x9e>

00022cd4 <_ZN20complex_full_dynamic3app17h7ffa106953985a8eE>:
   22cd4:	b5f0      	push	{r4, r5, r6, r7, lr}
   22cd6:	af03      	add	r7, sp, #12
   22cd8:	b0a7      	sub	sp, #156	@ 0x9c
   22cda:	9003      	str	r0, [sp, #12]
   22cdc:	ac04      	add	r4, sp, #16
   22cde:	2502      	movs	r5, #2
   22ce0:	7225      	strb	r5, [r4, #8]
   22ce2:	340c      	adds	r4, #12
   22ce4:	2251      	movs	r2, #81	@ 0x51
   22ce6:	9202      	str	r2, [sp, #8]
   22ce8:	4620      	mov	r0, r4
   22cea:	f006 fc0e 	bl	2950a <__aeabi_memcpy>
   22cee:	a81c      	add	r0, sp, #112	@ 0x70
   22cf0:	2600      	movs	r6, #0
   22cf2:	7686      	strb	r6, [r0, #26]
   22cf4:	8306      	strh	r6, [r0, #24]
   22cf6:	7205      	strb	r5, [r0, #8]
   22cf8:	4605      	mov	r5, r0
   22cfa:	9621      	str	r6, [sp, #132]	@ 0x84
   22cfc:	9620      	str	r6, [sp, #128]	@ 0x80
   22cfe:	961f      	str	r6, [sp, #124]	@ 0x7c
   22d00:	2004      	movs	r0, #4
   22d02:	9902      	ldr	r1, [sp, #8]
   22d04:	9100      	str	r1, [sp, #0]
   22d06:	9002      	str	r0, [sp, #8]
   22d08:	9001      	str	r0, [sp, #4]
   22d0a:	a823      	add	r0, sp, #140	@ 0x8c
   22d0c:	492e      	ldr	r1, [pc, #184]	@ (22dc8 <_ZN20complex_full_dynamic3app17h7ffa106953985a8eE+0xf4>)
   22d0e:	4632      	mov	r2, r6
   22d10:	4623      	mov	r3, r4
   22d12:	f006 fa35 	bl	29180 <_ZN9allow_pin13dynamic_allow17h8bfd3764c146b81aE>
   22d16:	9823      	ldr	r0, [sp, #140]	@ 0x8c
   22d18:	2802      	cmp	r0, #2
   22d1a:	d102      	bne.n	22d22 <_ZN20complex_full_dynamic3app17h7ffa106953985a8eE+0x4e>
   22d1c:	9924      	ldr	r1, [sp, #144]	@ 0x90
   22d1e:	4a2a      	ldr	r2, [pc, #168]	@ (22dc8 <_ZN20complex_full_dynamic3app17h7ffa106953985a8eE+0xf4>)
   22d20:	e005      	b.n	22d2e <_ZN20complex_full_dynamic3app17h7ffa106953985a8eE+0x5a>
   22d22:	a904      	add	r1, sp, #16
   22d24:	9a02      	ldr	r2, [sp, #8]
   22d26:	720a      	strb	r2, [r1, #8]
   22d28:	9605      	str	r6, [sp, #20]
   22d2a:	4a27      	ldr	r2, [pc, #156]	@ (22dc8 <_ZN20complex_full_dynamic3app17h7ffa106953985a8eE+0xf4>)
   22d2c:	9204      	str	r2, [sp, #16]
   22d2e:	350c      	adds	r5, #12
   22d30:	9502      	str	r5, [sp, #8]
   22d32:	2501      	movs	r5, #1
   22d34:	2802      	cmp	r0, #2
   22d36:	d02d      	beq.n	22d94 <_ZN20complex_full_dynamic3app17h7ffa106953985a8eE+0xc0>
   22d38:	a81c      	add	r0, sp, #112	@ 0x70
   22d3a:	7a00      	ldrb	r0, [r0, #8]
   22d3c:	2802      	cmp	r0, #2
   22d3e:	d10e      	bne.n	22d5e <_ZN20complex_full_dynamic3app17h7ffa106953985a8eE+0x8a>
   22d40:	2403      	movs	r4, #3
   22d42:	200f      	movs	r0, #15
   22d44:	9000      	str	r0, [sp, #0]
   22d46:	9401      	str	r4, [sp, #4]
   22d48:	a823      	add	r0, sp, #140	@ 0x8c
   22d4a:	4611      	mov	r1, r2
   22d4c:	4622      	mov	r2, r4
   22d4e:	9b02      	ldr	r3, [sp, #8]
   22d50:	f006 fa16 	bl	29180 <_ZN9allow_pin13dynamic_allow17h8bfd3764c146b81aE>
   22d54:	9823      	ldr	r0, [sp, #140]	@ 0x8c
   22d56:	2802      	cmp	r0, #2
   22d58:	d106      	bne.n	22d68 <_ZN20complex_full_dynamic3app17h7ffa106953985a8eE+0x94>
   22d5a:	9924      	ldr	r1, [sp, #144]	@ 0x90
   22d5c:	e000      	b.n	22d60 <_ZN20complex_full_dynamic3app17h7ffa106953985a8eE+0x8c>
   22d5e:	2103      	movs	r1, #3
   22d60:	462e      	mov	r6, r5
   22d62:	2e00      	cmp	r6, #0
   22d64:	d007      	beq.n	22d76 <_ZN20complex_full_dynamic3app17h7ffa106953985a8eE+0xa2>
   22d66:	e015      	b.n	22d94 <_ZN20complex_full_dynamic3app17h7ffa106953985a8eE+0xc0>
   22d68:	a81c      	add	r0, sp, #112	@ 0x70
   22d6a:	7204      	strb	r4, [r0, #8]
   22d6c:	941d      	str	r4, [sp, #116]	@ 0x74
   22d6e:	4816      	ldr	r0, [pc, #88]	@ (22dc8 <_ZN20complex_full_dynamic3app17h7ffa106953985a8eE+0xf4>)
   22d70:	901c      	str	r0, [sp, #112]	@ 0x70
   22d72:	2e00      	cmp	r6, #0
   22d74:	d10e      	bne.n	22d94 <_ZN20complex_full_dynamic3app17h7ffa106953985a8eE+0xc0>
   22d76:	4814      	ldr	r0, [pc, #80]	@ (22dc8 <_ZN20complex_full_dynamic3app17h7ffa106953985a8eE+0xf4>)
   22d78:	2203      	movs	r2, #3
   22d7a:	2400      	movs	r4, #0
   22d7c:	4621      	mov	r1, r4
   22d7e:	4623      	mov	r3, r4
   22d80:	df02      	svc	2
   22d82:	287f      	cmp	r0, #127	@ 0x7f
   22d84:	d906      	bls.n	22d94 <_ZN20complex_full_dynamic3app17h7ffa106953985a8eE+0xc0>
   22d86:	a804      	add	r0, sp, #16
   22d88:	f006 f9e6 	bl	29158 <_ZN9allow_pin12full_dynamic17unshare_if_shared17hc49b4b2653f8b2c9E>
   22d8c:	a81c      	add	r0, sp, #112	@ 0x70
   22d8e:	f006 f9e3 	bl	29158 <_ZN9allow_pin12full_dynamic17unshare_if_shared17hc49b4b2653f8b2c9E>
   22d92:	4625      	mov	r5, r4
   22d94:	2d00      	cmp	r5, #0
   22d96:	d003      	beq.n	22da0 <_ZN20complex_full_dynamic3app17h7ffa106953985a8eE+0xcc>
   22d98:	9c03      	ldr	r4, [sp, #12]
   22d9a:	6061      	str	r1, [r4, #4]
   22d9c:	2001      	movs	r0, #1
   22d9e:	e009      	b.n	22db4 <_ZN20complex_full_dynamic3app17h7ffa106953985a8eE+0xe0>
   22da0:	a81c      	add	r0, sp, #112	@ 0x70
   22da2:	f006 f9d9 	bl	29158 <_ZN9allow_pin12full_dynamic17unshare_if_shared17hc49b4b2653f8b2c9E>
   22da6:	9c03      	ldr	r4, [sp, #12]
   22da8:	1c60      	adds	r0, r4, #1
   22daa:	220f      	movs	r2, #15
   22dac:	9902      	ldr	r1, [sp, #8]
   22dae:	f006 fbac 	bl	2950a <__aeabi_memcpy>
   22db2:	2000      	movs	r0, #0
   22db4:	7020      	strb	r0, [r4, #0]
   22db6:	a81c      	add	r0, sp, #112	@ 0x70
   22db8:	f006 f9ce 	bl	29158 <_ZN9allow_pin12full_dynamic17unshare_if_shared17hc49b4b2653f8b2c9E>
   22dbc:	a804      	add	r0, sp, #16
   22dbe:	f006 f9cb 	bl	29158 <_ZN9allow_pin12full_dynamic17unshare_if_shared17hc49b4b2653f8b2c9E>
   22dc2:	b027      	add	sp, #156	@ 0x9c
   22dc4:	bdf0      	pop	{r4, r5, r6, r7, pc}
   22dc6:	46c0      	nop			@ (mov r8, r8)
   22dc8:	000013bf 	.word	0x000013bf

00022dcc <_ZN20complex_full_dynamic3app17h8726b965dc661c92E>:
   22dcc:	b5f0      	push	{r4, r5, r6, r7, lr}
   22dce:	af03      	add	r7, sp, #12
   22dd0:	b0a9      	sub	sp, #164	@ 0xa4
   22dd2:	9006      	str	r0, [sp, #24]
   22dd4:	ad07      	add	r5, sp, #28
   22dd6:	2402      	movs	r4, #2
   22dd8:	722c      	strb	r4, [r5, #8]
   22dda:	350c      	adds	r5, #12
   22ddc:	2238      	movs	r2, #56	@ 0x38
   22dde:	9205      	str	r2, [sp, #20]
   22de0:	4628      	mov	r0, r5
   22de2:	f006 fb92 	bl	2950a <__aeabi_memcpy>
   22de6:	ae18      	add	r6, sp, #96	@ 0x60
   22de8:	4630      	mov	r0, r6
   22dea:	300c      	adds	r0, #12
   22dec:	2127      	movs	r1, #39	@ 0x27
   22dee:	9004      	str	r0, [sp, #16]
   22df0:	9103      	str	r1, [sp, #12]
   22df2:	f006 f9dd 	bl	291b0 <__aeabi_memclr4>
   22df6:	7234      	strb	r4, [r6, #8]
   22df8:	4626      	mov	r6, r4
   22dfa:	2004      	movs	r0, #4
   22dfc:	9905      	ldr	r1, [sp, #20]
   22dfe:	9100      	str	r1, [sp, #0]
   22e00:	9005      	str	r0, [sp, #20]
   22e02:	9001      	str	r0, [sp, #4]
   22e04:	a825      	add	r0, sp, #148	@ 0x94
   22e06:	4c2e      	ldr	r4, [pc, #184]	@ (22ec0 <_ZN20complex_full_dynamic3app17h8726b965dc661c92E+0xf4>)
   22e08:	4621      	mov	r1, r4
   22e0a:	4632      	mov	r2, r6
   22e0c:	462b      	mov	r3, r5
   22e0e:	f006 f9b7 	bl	29180 <_ZN9allow_pin13dynamic_allow17h8bfd3764c146b81aE>
   22e12:	9825      	ldr	r0, [sp, #148]	@ 0x94
   22e14:	2802      	cmp	r0, #2
   22e16:	d101      	bne.n	22e1c <_ZN20complex_full_dynamic3app17h8726b965dc661c92E+0x50>
   22e18:	9926      	ldr	r1, [sp, #152]	@ 0x98
   22e1a:	e004      	b.n	22e26 <_ZN20complex_full_dynamic3app17h8726b965dc661c92E+0x5a>
   22e1c:	a907      	add	r1, sp, #28
   22e1e:	9a05      	ldr	r2, [sp, #20]
   22e20:	720a      	strb	r2, [r1, #8]
   22e22:	9608      	str	r6, [sp, #32]
   22e24:	9407      	str	r4, [sp, #28]
   22e26:	2501      	movs	r5, #1
   22e28:	2802      	cmp	r0, #2
   22e2a:	d02f      	beq.n	22e8c <_ZN20complex_full_dynamic3app17h8726b965dc661c92E+0xc0>
   22e2c:	a818      	add	r0, sp, #96	@ 0x60
   22e2e:	7a00      	ldrb	r0, [r0, #8]
   22e30:	2802      	cmp	r0, #2
   22e32:	d10f      	bne.n	22e54 <_ZN20complex_full_dynamic3app17h8726b965dc661c92E+0x88>
   22e34:	2603      	movs	r6, #3
   22e36:	9803      	ldr	r0, [sp, #12]
   22e38:	9000      	str	r0, [sp, #0]
   22e3a:	9601      	str	r6, [sp, #4]
   22e3c:	a825      	add	r0, sp, #148	@ 0x94
   22e3e:	4621      	mov	r1, r4
   22e40:	2408      	movs	r4, #8
   22e42:	4622      	mov	r2, r4
   22e44:	9b04      	ldr	r3, [sp, #16]
   22e46:	f006 f99b 	bl	29180 <_ZN9allow_pin13dynamic_allow17h8bfd3764c146b81aE>
   22e4a:	9825      	ldr	r0, [sp, #148]	@ 0x94
   22e4c:	2802      	cmp	r0, #2
   22e4e:	d106      	bne.n	22e5e <_ZN20complex_full_dynamic3app17h8726b965dc661c92E+0x92>
   22e50:	9926      	ldr	r1, [sp, #152]	@ 0x98
   22e52:	e000      	b.n	22e56 <_ZN20complex_full_dynamic3app17h8726b965dc661c92E+0x8a>
   22e54:	2103      	movs	r1, #3
   22e56:	4628      	mov	r0, r5
   22e58:	2800      	cmp	r0, #0
   22e5a:	d008      	beq.n	22e6e <_ZN20complex_full_dynamic3app17h8726b965dc661c92E+0xa2>
   22e5c:	e016      	b.n	22e8c <_ZN20complex_full_dynamic3app17h8726b965dc661c92E+0xc0>
   22e5e:	a818      	add	r0, sp, #96	@ 0x60
   22e60:	7206      	strb	r6, [r0, #8]
   22e62:	9419      	str	r4, [sp, #100]	@ 0x64
   22e64:	4816      	ldr	r0, [pc, #88]	@ (22ec0 <_ZN20complex_full_dynamic3app17h8726b965dc661c92E+0xf4>)
   22e66:	9018      	str	r0, [sp, #96]	@ 0x60
   22e68:	2000      	movs	r0, #0
   22e6a:	2800      	cmp	r0, #0
   22e6c:	d10e      	bne.n	22e8c <_ZN20complex_full_dynamic3app17h8726b965dc661c92E+0xc0>
   22e6e:	4814      	ldr	r0, [pc, #80]	@ (22ec0 <_ZN20complex_full_dynamic3app17h8726b965dc661c92E+0xf4>)
   22e70:	2102      	movs	r1, #2
   22e72:	2208      	movs	r2, #8
   22e74:	2400      	movs	r4, #0
   22e76:	4623      	mov	r3, r4
   22e78:	df02      	svc	2
   22e7a:	287f      	cmp	r0, #127	@ 0x7f
   22e7c:	d906      	bls.n	22e8c <_ZN20complex_full_dynamic3app17h8726b965dc661c92E+0xc0>
   22e7e:	a807      	add	r0, sp, #28
   22e80:	f006 f96a 	bl	29158 <_ZN9allow_pin12full_dynamic17unshare_if_shared17hc49b4b2653f8b2c9E>
   22e84:	a818      	add	r0, sp, #96	@ 0x60
   22e86:	f006 f967 	bl	29158 <_ZN9allow_pin12full_dynamic17unshare_if_shared17hc49b4b2653f8b2c9E>
   22e8a:	4625      	mov	r5, r4
   22e8c:	2d00      	cmp	r5, #0
   22e8e:	d003      	beq.n	22e98 <_ZN20complex_full_dynamic3app17h8726b965dc661c92E+0xcc>
   22e90:	9c06      	ldr	r4, [sp, #24]
   22e92:	6061      	str	r1, [r4, #4]
   22e94:	2001      	movs	r0, #1
   22e96:	e009      	b.n	22eac <_ZN20complex_full_dynamic3app17h8726b965dc661c92E+0xe0>
   22e98:	a818      	add	r0, sp, #96	@ 0x60
   22e9a:	f006 f95d 	bl	29158 <_ZN9allow_pin12full_dynamic17unshare_if_shared17hc49b4b2653f8b2c9E>
   22e9e:	9c06      	ldr	r4, [sp, #24]
   22ea0:	1c60      	adds	r0, r4, #1
   22ea2:	2227      	movs	r2, #39	@ 0x27
   22ea4:	9904      	ldr	r1, [sp, #16]
   22ea6:	f006 fb30 	bl	2950a <__aeabi_memcpy>
   22eaa:	2000      	movs	r0, #0
   22eac:	7020      	strb	r0, [r4, #0]
   22eae:	a818      	add	r0, sp, #96	@ 0x60
   22eb0:	f006 f952 	bl	29158 <_ZN9allow_pin12full_dynamic17unshare_if_shared17hc49b4b2653f8b2c9E>
   22eb4:	a807      	add	r0, sp, #28
   22eb6:	f006 f94f 	bl	29158 <_ZN9allow_pin12full_dynamic17unshare_if_shared17hc49b4b2653f8b2c9E>
   22eba:	b029      	add	sp, #164	@ 0xa4
   22ebc:	bdf0      	pop	{r4, r5, r6, r7, pc}
   22ebe:	46c0      	nop			@ (mov r8, r8)
   22ec0:	00000e2b 	.word	0x00000e2b

00022ec4 <_ZN20complex_full_dynamic3app17h899f4f4a34cb9674E>:
   22ec4:	b5f0      	push	{r4, r5, r6, r7, lr}
   22ec6:	af03      	add	r7, sp, #12
   22ec8:	b0ab      	sub	sp, #172	@ 0xac
   22eca:	9005      	str	r0, [sp, #20]
   22ecc:	ae06      	add	r6, sp, #24
   22ece:	2002      	movs	r0, #2
   22ed0:	9004      	str	r0, [sp, #16]
   22ed2:	7230      	strb	r0, [r6, #8]
   22ed4:	360c      	adds	r6, #12
   22ed6:	251a      	movs	r5, #26
   22ed8:	4630      	mov	r0, r6
   22eda:	462a      	mov	r2, r5
   22edc:	f006 fb15 	bl	2950a <__aeabi_memcpy>
   22ee0:	ac10      	add	r4, sp, #64	@ 0x40
   22ee2:	4620      	mov	r0, r4
   22ee4:	300c      	adds	r0, #12
   22ee6:	2150      	movs	r1, #80	@ 0x50
   22ee8:	9003      	str	r0, [sp, #12]
   22eea:	9102      	str	r1, [sp, #8]
   22eec:	f006 f960 	bl	291b0 <__aeabi_memclr4>
   22ef0:	9804      	ldr	r0, [sp, #16]
   22ef2:	7220      	strb	r0, [r4, #8]
   22ef4:	2404      	movs	r4, #4
   22ef6:	9500      	str	r5, [sp, #0]
   22ef8:	9401      	str	r4, [sp, #4]
   22efa:	a827      	add	r0, sp, #156	@ 0x9c
   22efc:	492e      	ldr	r1, [pc, #184]	@ (22fb8 <_ZN20complex_full_dynamic3app17h899f4f4a34cb9674E+0xf4>)
   22efe:	2507      	movs	r5, #7
   22f00:	462a      	mov	r2, r5
   22f02:	4633      	mov	r3, r6
   22f04:	f006 f93c 	bl	29180 <_ZN9allow_pin13dynamic_allow17h8bfd3764c146b81aE>
   22f08:	9827      	ldr	r0, [sp, #156]	@ 0x9c
   22f0a:	2802      	cmp	r0, #2
   22f0c:	d102      	bne.n	22f14 <_ZN20complex_full_dynamic3app17h899f4f4a34cb9674E+0x50>
   22f0e:	9928      	ldr	r1, [sp, #160]	@ 0xa0
   22f10:	4a29      	ldr	r2, [pc, #164]	@ (22fb8 <_ZN20complex_full_dynamic3app17h899f4f4a34cb9674E+0xf4>)
   22f12:	e004      	b.n	22f1e <_ZN20complex_full_dynamic3app17h899f4f4a34cb9674E+0x5a>
   22f14:	a906      	add	r1, sp, #24
   22f16:	720c      	strb	r4, [r1, #8]
   22f18:	9507      	str	r5, [sp, #28]
   22f1a:	4a27      	ldr	r2, [pc, #156]	@ (22fb8 <_ZN20complex_full_dynamic3app17h899f4f4a34cb9674E+0xf4>)
   22f1c:	9206      	str	r2, [sp, #24]
   22f1e:	2501      	movs	r5, #1
   22f20:	2802      	cmp	r0, #2
   22f22:	d02f      	beq.n	22f84 <_ZN20complex_full_dynamic3app17h899f4f4a34cb9674E+0xc0>
   22f24:	a810      	add	r0, sp, #64	@ 0x40
   22f26:	7a00      	ldrb	r0, [r0, #8]
   22f28:	2802      	cmp	r0, #2
   22f2a:	d10f      	bne.n	22f4c <_ZN20complex_full_dynamic3app17h899f4f4a34cb9674E+0x88>
   22f2c:	2603      	movs	r6, #3
   22f2e:	9802      	ldr	r0, [sp, #8]
   22f30:	9000      	str	r0, [sp, #0]
   22f32:	9601      	str	r6, [sp, #4]
   22f34:	a827      	add	r0, sp, #156	@ 0x9c
   22f36:	2404      	movs	r4, #4
   22f38:	4611      	mov	r1, r2
   22f3a:	4622      	mov	r2, r4
   22f3c:	9b03      	ldr	r3, [sp, #12]
   22f3e:	f006 f91f 	bl	29180 <_ZN9allow_pin13dynamic_allow17h8bfd3764c146b81aE>
   22f42:	9827      	ldr	r0, [sp, #156]	@ 0x9c
   22f44:	2802      	cmp	r0, #2
   22f46:	d106      	bne.n	22f56 <_ZN20complex_full_dynamic3app17h899f4f4a34cb9674E+0x92>
   22f48:	9928      	ldr	r1, [sp, #160]	@ 0xa0
   22f4a:	e000      	b.n	22f4e <_ZN20complex_full_dynamic3app17h899f4f4a34cb9674E+0x8a>
   22f4c:	2103      	movs	r1, #3
   22f4e:	4628      	mov	r0, r5
   22f50:	2800      	cmp	r0, #0
   22f52:	d008      	beq.n	22f66 <_ZN20complex_full_dynamic3app17h899f4f4a34cb9674E+0xa2>
   22f54:	e016      	b.n	22f84 <_ZN20complex_full_dynamic3app17h899f4f4a34cb9674E+0xc0>
   22f56:	a810      	add	r0, sp, #64	@ 0x40
   22f58:	7206      	strb	r6, [r0, #8]
   22f5a:	9411      	str	r4, [sp, #68]	@ 0x44
   22f5c:	4816      	ldr	r0, [pc, #88]	@ (22fb8 <_ZN20complex_full_dynamic3app17h899f4f4a34cb9674E+0xf4>)
   22f5e:	9010      	str	r0, [sp, #64]	@ 0x40
   22f60:	2000      	movs	r0, #0
   22f62:	2800      	cmp	r0, #0
   22f64:	d10e      	bne.n	22f84 <_ZN20complex_full_dynamic3app17h899f4f4a34cb9674E+0xc0>
   22f66:	4814      	ldr	r0, [pc, #80]	@ (22fb8 <_ZN20complex_full_dynamic3app17h899f4f4a34cb9674E+0xf4>)
   22f68:	2107      	movs	r1, #7
   22f6a:	2204      	movs	r2, #4
   22f6c:	2400      	movs	r4, #0
   22f6e:	4623      	mov	r3, r4
   22f70:	df02      	svc	2
   22f72:	287f      	cmp	r0, #127	@ 0x7f
   22f74:	d906      	bls.n	22f84 <_ZN20complex_full_dynamic3app17h899f4f4a34cb9674E+0xc0>
   22f76:	a806      	add	r0, sp, #24
   22f78:	f006 f8ee 	bl	29158 <_ZN9allow_pin12full_dynamic17unshare_if_shared17hc49b4b2653f8b2c9E>
   22f7c:	a810      	add	r0, sp, #64	@ 0x40
   22f7e:	f006 f8eb 	bl	29158 <_ZN9allow_pin12full_dynamic17unshare_if_shared17hc49b4b2653f8b2c9E>
   22f82:	4625      	mov	r5, r4
   22f84:	2d00      	cmp	r5, #0
   22f86:	d003      	beq.n	22f90 <_ZN20complex_full_dynamic3app17h899f4f4a34cb9674E+0xcc>
   22f88:	9c05      	ldr	r4, [sp, #20]
   22f8a:	6061      	str	r1, [r4, #4]
   22f8c:	2001      	movs	r0, #1
   22f8e:	e009      	b.n	22fa4 <_ZN20complex_full_dynamic3app17h899f4f4a34cb9674E+0xe0>
   22f90:	a810      	add	r0, sp, #64	@ 0x40
   22f92:	f006 f8e1 	bl	29158 <_ZN9allow_pin12full_dynamic17unshare_if_shared17hc49b4b2653f8b2c9E>
   22f96:	9c05      	ldr	r4, [sp, #20]
   22f98:	1c60      	adds	r0, r4, #1
   22f9a:	2250      	movs	r2, #80	@ 0x50
   22f9c:	9903      	ldr	r1, [sp, #12]
   22f9e:	f006 fab4 	bl	2950a <__aeabi_memcpy>
   22fa2:	2000      	movs	r0, #0
   22fa4:	7020      	strb	r0, [r4, #0]
   22fa6:	a810      	add	r0, sp, #64	@ 0x40
   22fa8:	f006 f8d6 	bl	29158 <_ZN9allow_pin12full_dynamic17unshare_if_shared17hc49b4b2653f8b2c9E>
   22fac:	a806      	add	r0, sp, #24
   22fae:	f006 f8d3 	bl	29158 <_ZN9allow_pin12full_dynamic17unshare_if_shared17hc49b4b2653f8b2c9E>
   22fb2:	b02b      	add	sp, #172	@ 0xac
   22fb4:	bdf0      	pop	{r4, r5, r6, r7, pc}
   22fb6:	46c0      	nop			@ (mov r8, r8)
   22fb8:	00000aee 	.word	0x00000aee

00022fbc <_ZN20complex_full_dynamic3app17h8c564fcdc0c3494dE>:
   22fbc:	b5f0      	push	{r4, r5, r6, r7, lr}
   22fbe:	af03      	add	r7, sp, #12
   22fc0:	b0a5      	sub	sp, #148	@ 0x94
   22fc2:	9005      	str	r0, [sp, #20]
   22fc4:	ad06      	add	r5, sp, #24
   22fc6:	2002      	movs	r0, #2
   22fc8:	9004      	str	r0, [sp, #16]
   22fca:	7228      	strb	r0, [r5, #8]
   22fcc:	350c      	adds	r5, #12
   22fce:	2625      	movs	r6, #37	@ 0x25
   22fd0:	4628      	mov	r0, r5
   22fd2:	4632      	mov	r2, r6
   22fd4:	f006 fa99 	bl	2950a <__aeabi_memcpy>
   22fd8:	ac13      	add	r4, sp, #76	@ 0x4c
   22fda:	4620      	mov	r0, r4
   22fdc:	300c      	adds	r0, #12
   22fde:	212a      	movs	r1, #42	@ 0x2a
   22fe0:	9003      	str	r0, [sp, #12]
   22fe2:	9102      	str	r1, [sp, #8]
   22fe4:	f006 f8e4 	bl	291b0 <__aeabi_memclr4>
   22fe8:	9804      	ldr	r0, [sp, #16]
   22fea:	7220      	strb	r0, [r4, #8]
   22fec:	2404      	movs	r4, #4
   22fee:	9600      	str	r6, [sp, #0]
   22ff0:	9401      	str	r4, [sp, #4]
   22ff2:	a821      	add	r0, sp, #132	@ 0x84
   22ff4:	492d      	ldr	r1, [pc, #180]	@ (230ac <_ZN20complex_full_dynamic3app17h8c564fcdc0c3494dE+0xf0>)
   22ff6:	2600      	movs	r6, #0
   22ff8:	4632      	mov	r2, r6
   22ffa:	462b      	mov	r3, r5
   22ffc:	f006 f8c0 	bl	29180 <_ZN9allow_pin13dynamic_allow17h8bfd3764c146b81aE>
   23000:	9821      	ldr	r0, [sp, #132]	@ 0x84
   23002:	2802      	cmp	r0, #2
   23004:	d102      	bne.n	2300c <_ZN20complex_full_dynamic3app17h8c564fcdc0c3494dE+0x50>
   23006:	9922      	ldr	r1, [sp, #136]	@ 0x88
   23008:	4c28      	ldr	r4, [pc, #160]	@ (230ac <_ZN20complex_full_dynamic3app17h8c564fcdc0c3494dE+0xf0>)
   2300a:	e004      	b.n	23016 <_ZN20complex_full_dynamic3app17h8c564fcdc0c3494dE+0x5a>
   2300c:	a906      	add	r1, sp, #24
   2300e:	720c      	strb	r4, [r1, #8]
   23010:	9607      	str	r6, [sp, #28]
   23012:	4c26      	ldr	r4, [pc, #152]	@ (230ac <_ZN20complex_full_dynamic3app17h8c564fcdc0c3494dE+0xf0>)
   23014:	9406      	str	r4, [sp, #24]
   23016:	2501      	movs	r5, #1
   23018:	2802      	cmp	r0, #2
   2301a:	d02d      	beq.n	23078 <_ZN20complex_full_dynamic3app17h8c564fcdc0c3494dE+0xbc>
   2301c:	a813      	add	r0, sp, #76	@ 0x4c
   2301e:	7a00      	ldrb	r0, [r0, #8]
   23020:	2802      	cmp	r0, #2
   23022:	d10e      	bne.n	23042 <_ZN20complex_full_dynamic3app17h8c564fcdc0c3494dE+0x86>
   23024:	2203      	movs	r2, #3
   23026:	9802      	ldr	r0, [sp, #8]
   23028:	9000      	str	r0, [sp, #0]
   2302a:	9201      	str	r2, [sp, #4]
   2302c:	a821      	add	r0, sp, #132	@ 0x84
   2302e:	4621      	mov	r1, r4
   23030:	9204      	str	r2, [sp, #16]
   23032:	9b03      	ldr	r3, [sp, #12]
   23034:	f006 f8a4 	bl	29180 <_ZN9allow_pin13dynamic_allow17h8bfd3764c146b81aE>
   23038:	9821      	ldr	r0, [sp, #132]	@ 0x84
   2303a:	2802      	cmp	r0, #2
   2303c:	d106      	bne.n	2304c <_ZN20complex_full_dynamic3app17h8c564fcdc0c3494dE+0x90>
   2303e:	9922      	ldr	r1, [sp, #136]	@ 0x88
   23040:	e000      	b.n	23044 <_ZN20complex_full_dynamic3app17h8c564fcdc0c3494dE+0x88>
   23042:	2103      	movs	r1, #3
   23044:	462e      	mov	r6, r5
   23046:	2e00      	cmp	r6, #0
   23048:	d007      	beq.n	2305a <_ZN20complex_full_dynamic3app17h8c564fcdc0c3494dE+0x9e>
   2304a:	e015      	b.n	23078 <_ZN20complex_full_dynamic3app17h8c564fcdc0c3494dE+0xbc>
   2304c:	a813      	add	r0, sp, #76	@ 0x4c
   2304e:	9904      	ldr	r1, [sp, #16]
   23050:	7201      	strb	r1, [r0, #8]
   23052:	9114      	str	r1, [sp, #80]	@ 0x50
   23054:	9413      	str	r4, [sp, #76]	@ 0x4c
   23056:	2e00      	cmp	r6, #0
   23058:	d10e      	bne.n	23078 <_ZN20complex_full_dynamic3app17h8c564fcdc0c3494dE+0xbc>
   2305a:	4814      	ldr	r0, [pc, #80]	@ (230ac <_ZN20complex_full_dynamic3app17h8c564fcdc0c3494dE+0xf0>)
   2305c:	2203      	movs	r2, #3
   2305e:	2400      	movs	r4, #0
   23060:	4621      	mov	r1, r4
   23062:	4623      	mov	r3, r4
   23064:	df02      	svc	2
   23066:	287f      	cmp	r0, #127	@ 0x7f
   23068:	d906      	bls.n	23078 <_ZN20complex_full_dynamic3app17h8c564fcdc0c3494dE+0xbc>
   2306a:	a806      	add	r0, sp, #24
   2306c:	f006 f874 	bl	29158 <_ZN9allow_pin12full_dynamic17unshare_if_shared17hc49b4b2653f8b2c9E>
   23070:	a813      	add	r0, sp, #76	@ 0x4c
   23072:	f006 f871 	bl	29158 <_ZN9allow_pin12full_dynamic17unshare_if_shared17hc49b4b2653f8b2c9E>
   23076:	4625      	mov	r5, r4
   23078:	2d00      	cmp	r5, #0
   2307a:	d003      	beq.n	23084 <_ZN20complex_full_dynamic3app17h8c564fcdc0c3494dE+0xc8>
   2307c:	9c05      	ldr	r4, [sp, #20]
   2307e:	6061      	str	r1, [r4, #4]
   23080:	2001      	movs	r0, #1
   23082:	e009      	b.n	23098 <_ZN20complex_full_dynamic3app17h8c564fcdc0c3494dE+0xdc>
   23084:	a813      	add	r0, sp, #76	@ 0x4c
   23086:	f006 f867 	bl	29158 <_ZN9allow_pin12full_dynamic17unshare_if_shared17hc49b4b2653f8b2c9E>
   2308a:	9c05      	ldr	r4, [sp, #20]
   2308c:	1c60      	adds	r0, r4, #1
   2308e:	222a      	movs	r2, #42	@ 0x2a
   23090:	9903      	ldr	r1, [sp, #12]
   23092:	f006 fa3a 	bl	2950a <__aeabi_memcpy>
   23096:	2000      	movs	r0, #0
   23098:	7020      	strb	r0, [r4, #0]
   2309a:	a813      	add	r0, sp, #76	@ 0x4c
   2309c:	f006 f85c 	bl	29158 <_ZN9allow_pin12full_dynamic17unshare_if_shared17hc49b4b2653f8b2c9E>
   230a0:	a806      	add	r0, sp, #24
   230a2:	f006 f859 	bl	29158 <_ZN9allow_pin12full_dynamic17unshare_if_shared17hc49b4b2653f8b2c9E>
   230a6:	b025      	add	sp, #148	@ 0x94
   230a8:	bdf0      	pop	{r4, r5, r6, r7, pc}
   230aa:	46c0      	nop			@ (mov r8, r8)
   230ac:	0000093c 	.word	0x0000093c

000230b0 <_ZN20complex_full_dynamic3app17h9087c74096275c6bE>:
   230b0:	b5f0      	push	{r4, r5, r6, r7, lr}
   230b2:	af03      	add	r7, sp, #12
   230b4:	b0a5      	sub	sp, #148	@ 0x94
   230b6:	9006      	str	r0, [sp, #24]
   230b8:	ad07      	add	r5, sp, #28
   230ba:	2402      	movs	r4, #2
   230bc:	722c      	strb	r4, [r5, #8]
   230be:	350c      	adds	r5, #12
   230c0:	2223      	movs	r2, #35	@ 0x23
   230c2:	9205      	str	r2, [sp, #20]
   230c4:	4628      	mov	r0, r5
   230c6:	f006 fa20 	bl	2950a <__aeabi_memcpy>
   230ca:	ae13      	add	r6, sp, #76	@ 0x4c
   230cc:	4630      	mov	r0, r6
   230ce:	300c      	adds	r0, #12
   230d0:	212b      	movs	r1, #43	@ 0x2b
   230d2:	9004      	str	r0, [sp, #16]
   230d4:	9103      	str	r1, [sp, #12]
   230d6:	f006 f86b 	bl	291b0 <__aeabi_memclr4>
   230da:	7234      	strb	r4, [r6, #8]
   230dc:	4626      	mov	r6, r4
   230de:	2004      	movs	r0, #4
   230e0:	9905      	ldr	r1, [sp, #20]
   230e2:	9100      	str	r1, [sp, #0]
   230e4:	9005      	str	r0, [sp, #20]
   230e6:	9001      	str	r0, [sp, #4]
   230e8:	a821      	add	r0, sp, #132	@ 0x84
   230ea:	4c2d      	ldr	r4, [pc, #180]	@ (231a0 <_ZN20complex_full_dynamic3app17h9087c74096275c6bE+0xf0>)
   230ec:	4621      	mov	r1, r4
   230ee:	4632      	mov	r2, r6
   230f0:	462b      	mov	r3, r5
   230f2:	f006 f845 	bl	29180 <_ZN9allow_pin13dynamic_allow17h8bfd3764c146b81aE>
   230f6:	9821      	ldr	r0, [sp, #132]	@ 0x84
   230f8:	2802      	cmp	r0, #2
   230fa:	d101      	bne.n	23100 <_ZN20complex_full_dynamic3app17h9087c74096275c6bE+0x50>
   230fc:	9922      	ldr	r1, [sp, #136]	@ 0x88
   230fe:	e004      	b.n	2310a <_ZN20complex_full_dynamic3app17h9087c74096275c6bE+0x5a>
   23100:	a907      	add	r1, sp, #28
   23102:	9a05      	ldr	r2, [sp, #20]
   23104:	720a      	strb	r2, [r1, #8]
   23106:	9608      	str	r6, [sp, #32]
   23108:	9407      	str	r4, [sp, #28]
   2310a:	2501      	movs	r5, #1
   2310c:	2802      	cmp	r0, #2
   2310e:	d02e      	beq.n	2316e <_ZN20complex_full_dynamic3app17h9087c74096275c6bE+0xbe>
   23110:	a813      	add	r0, sp, #76	@ 0x4c
   23112:	7a00      	ldrb	r0, [r0, #8]
   23114:	2802      	cmp	r0, #2
   23116:	d10f      	bne.n	23138 <_ZN20complex_full_dynamic3app17h9087c74096275c6bE+0x88>
   23118:	2603      	movs	r6, #3
   2311a:	9803      	ldr	r0, [sp, #12]
   2311c:	9000      	str	r0, [sp, #0]
   2311e:	9601      	str	r6, [sp, #4]
   23120:	a821      	add	r0, sp, #132	@ 0x84
   23122:	4621      	mov	r1, r4
   23124:	2400      	movs	r4, #0
   23126:	4622      	mov	r2, r4
   23128:	9b04      	ldr	r3, [sp, #16]
   2312a:	f006 f829 	bl	29180 <_ZN9allow_pin13dynamic_allow17h8bfd3764c146b81aE>
   2312e:	9821      	ldr	r0, [sp, #132]	@ 0x84
   23130:	2802      	cmp	r0, #2
   23132:	d106      	bne.n	23142 <_ZN20complex_full_dynamic3app17h9087c74096275c6bE+0x92>
   23134:	9922      	ldr	r1, [sp, #136]	@ 0x88
   23136:	e000      	b.n	2313a <_ZN20complex_full_dynamic3app17h9087c74096275c6bE+0x8a>
   23138:	2103      	movs	r1, #3
   2313a:	462c      	mov	r4, r5
   2313c:	2c00      	cmp	r4, #0
   2313e:	d007      	beq.n	23150 <_ZN20complex_full_dynamic3app17h9087c74096275c6bE+0xa0>
   23140:	e015      	b.n	2316e <_ZN20complex_full_dynamic3app17h9087c74096275c6bE+0xbe>
   23142:	a813      	add	r0, sp, #76	@ 0x4c
   23144:	7206      	strb	r6, [r0, #8]
   23146:	9414      	str	r4, [sp, #80]	@ 0x50
   23148:	4815      	ldr	r0, [pc, #84]	@ (231a0 <_ZN20complex_full_dynamic3app17h9087c74096275c6bE+0xf0>)
   2314a:	9013      	str	r0, [sp, #76]	@ 0x4c
   2314c:	2c00      	cmp	r4, #0
   2314e:	d10e      	bne.n	2316e <_ZN20complex_full_dynamic3app17h9087c74096275c6bE+0xbe>
   23150:	4813      	ldr	r0, [pc, #76]	@ (231a0 <_ZN20complex_full_dynamic3app17h9087c74096275c6bE+0xf0>)
   23152:	2102      	movs	r1, #2
   23154:	2400      	movs	r4, #0
   23156:	4622      	mov	r2, r4
   23158:	4623      	mov	r3, r4
   2315a:	df02      	svc	2
   2315c:	287f      	cmp	r0, #127	@ 0x7f
   2315e:	d906      	bls.n	2316e <_ZN20complex_full_dynamic3app17h9087c74096275c6bE+0xbe>
   23160:	a807      	add	r0, sp, #28
   23162:	f005 fff9 	bl	29158 <_ZN9allow_pin12full_dynamic17unshare_if_shared17hc49b4b2653f8b2c9E>
   23166:	a813      	add	r0, sp, #76	@ 0x4c
   23168:	f005 fff6 	bl	29158 <_ZN9allow_pin12full_dynamic17unshare_if_shared17hc49b4b2653f8b2c9E>
   2316c:	4625      	mov	r5, r4
   2316e:	2d00      	cmp	r5, #0
   23170:	d003      	beq.n	2317a <_ZN20complex_full_dynamic3app17h9087c74096275c6bE+0xca>
   23172:	9c06      	ldr	r4, [sp, #24]
   23174:	6061      	str	r1, [r4, #4]
   23176:	2001      	movs	r0, #1
   23178:	e009      	b.n	2318e <_ZN20complex_full_dynamic3app17h9087c74096275c6bE+0xde>
   2317a:	a813      	add	r0, sp, #76	@ 0x4c
   2317c:	f005 ffec 	bl	29158 <_ZN9allow_pin12full_dynamic17unshare_if_shared17hc49b4b2653f8b2c9E>
   23180:	9c06      	ldr	r4, [sp, #24]
   23182:	1c60      	adds	r0, r4, #1
   23184:	222b      	movs	r2, #43	@ 0x2b
   23186:	9904      	ldr	r1, [sp, #16]
   23188:	f006 f9bf 	bl	2950a <__aeabi_memcpy>
   2318c:	2000      	movs	r0, #0
   2318e:	7020      	strb	r0, [r4, #0]
   23190:	a813      	add	r0, sp, #76	@ 0x4c
   23192:	f005 ffe1 	bl	29158 <_ZN9allow_pin12full_dynamic17unshare_if_shared17hc49b4b2653f8b2c9E>
   23196:	a807      	add	r0, sp, #28
   23198:	f005 ffde 	bl	29158 <_ZN9allow_pin12full_dynamic17unshare_if_shared17hc49b4b2653f8b2c9E>
   2319c:	b025      	add	sp, #148	@ 0x94
   2319e:	bdf0      	pop	{r4, r5, r6, r7, pc}
   231a0:	00000d5d 	.word	0x00000d5d

000231a4 <_ZN20complex_full_dynamic3app17h94d9bf9762f5d6c8E>:
   231a4:	b5f0      	push	{r4, r5, r6, r7, lr}
   231a6:	af03      	add	r7, sp, #12
   231a8:	b0b1      	sub	sp, #196	@ 0xc4
   231aa:	9006      	str	r0, [sp, #24]
   231ac:	ad07      	add	r5, sp, #28
   231ae:	2002      	movs	r0, #2
   231b0:	9005      	str	r0, [sp, #20]
   231b2:	7228      	strb	r0, [r5, #8]
   231b4:	350c      	adds	r5, #12
   231b6:	261b      	movs	r6, #27
   231b8:	4628      	mov	r0, r5
   231ba:	4632      	mov	r2, r6
   231bc:	f006 f9a5 	bl	2950a <__aeabi_memcpy>
   231c0:	ac11      	add	r4, sp, #68	@ 0x44
   231c2:	4620      	mov	r0, r4
   231c4:	300c      	adds	r0, #12
   231c6:	2163      	movs	r1, #99	@ 0x63
   231c8:	9004      	str	r0, [sp, #16]
   231ca:	9103      	str	r1, [sp, #12]
   231cc:	f005 fff0 	bl	291b0 <__aeabi_memclr4>
   231d0:	9805      	ldr	r0, [sp, #20]
   231d2:	7220      	strb	r0, [r4, #8]
   231d4:	2404      	movs	r4, #4
   231d6:	9600      	str	r6, [sp, #0]
   231d8:	9401      	str	r4, [sp, #4]
   231da:	a82d      	add	r0, sp, #180	@ 0xb4
   231dc:	492d      	ldr	r1, [pc, #180]	@ (23294 <_ZN20complex_full_dynamic3app17h94d9bf9762f5d6c8E+0xf0>)
   231de:	2603      	movs	r6, #3
   231e0:	4632      	mov	r2, r6
   231e2:	462b      	mov	r3, r5
   231e4:	f005 ffcc 	bl	29180 <_ZN9allow_pin13dynamic_allow17h8bfd3764c146b81aE>
   231e8:	982d      	ldr	r0, [sp, #180]	@ 0xb4
   231ea:	2802      	cmp	r0, #2
   231ec:	d102      	bne.n	231f4 <_ZN20complex_full_dynamic3app17h94d9bf9762f5d6c8E+0x50>
   231ee:	992e      	ldr	r1, [sp, #184]	@ 0xb8
   231f0:	4c28      	ldr	r4, [pc, #160]	@ (23294 <_ZN20complex_full_dynamic3app17h94d9bf9762f5d6c8E+0xf0>)
   231f2:	e004      	b.n	231fe <_ZN20complex_full_dynamic3app17h94d9bf9762f5d6c8E+0x5a>
   231f4:	a907      	add	r1, sp, #28
   231f6:	720c      	strb	r4, [r1, #8]
   231f8:	9608      	str	r6, [sp, #32]
   231fa:	4c26      	ldr	r4, [pc, #152]	@ (23294 <_ZN20complex_full_dynamic3app17h94d9bf9762f5d6c8E+0xf0>)
   231fc:	9407      	str	r4, [sp, #28]
   231fe:	2501      	movs	r5, #1
   23200:	2802      	cmp	r0, #2
   23202:	d02d      	beq.n	23260 <_ZN20complex_full_dynamic3app17h94d9bf9762f5d6c8E+0xbc>
   23204:	a811      	add	r0, sp, #68	@ 0x44
   23206:	7a00      	ldrb	r0, [r0, #8]
   23208:	2802      	cmp	r0, #2
   2320a:	4628      	mov	r0, r5
   2320c:	d10e      	bne.n	2322c <_ZN20complex_full_dynamic3app17h94d9bf9762f5d6c8E+0x88>
   2320e:	2603      	movs	r6, #3
   23210:	9803      	ldr	r0, [sp, #12]
   23212:	9000      	str	r0, [sp, #0]
   23214:	9601      	str	r6, [sp, #4]
   23216:	a82d      	add	r0, sp, #180	@ 0xb4
   23218:	4621      	mov	r1, r4
   2321a:	4632      	mov	r2, r6
   2321c:	9b04      	ldr	r3, [sp, #16]
   2321e:	f005 ffaf 	bl	29180 <_ZN9allow_pin13dynamic_allow17h8bfd3764c146b81aE>
   23222:	982d      	ldr	r0, [sp, #180]	@ 0xb4
   23224:	2802      	cmp	r0, #2
   23226:	d105      	bne.n	23234 <_ZN20complex_full_dynamic3app17h94d9bf9762f5d6c8E+0x90>
   23228:	9e2e      	ldr	r6, [sp, #184]	@ 0xb8
   2322a:	4628      	mov	r0, r5
   2322c:	2800      	cmp	r0, #0
   2322e:	d008      	beq.n	23242 <_ZN20complex_full_dynamic3app17h94d9bf9762f5d6c8E+0x9e>
   23230:	4631      	mov	r1, r6
   23232:	e015      	b.n	23260 <_ZN20complex_full_dynamic3app17h94d9bf9762f5d6c8E+0xbc>
   23234:	a811      	add	r0, sp, #68	@ 0x44
   23236:	7206      	strb	r6, [r0, #8]
   23238:	9612      	str	r6, [sp, #72]	@ 0x48
   2323a:	9411      	str	r4, [sp, #68]	@ 0x44
   2323c:	2000      	movs	r0, #0
   2323e:	2800      	cmp	r0, #0
   23240:	d1f6      	bne.n	23230 <_ZN20complex_full_dynamic3app17h94d9bf9762f5d6c8E+0x8c>
   23242:	4814      	ldr	r0, [pc, #80]	@ (23294 <_ZN20complex_full_dynamic3app17h94d9bf9762f5d6c8E+0xf0>)
   23244:	2103      	movs	r1, #3
   23246:	2400      	movs	r4, #0
   23248:	460a      	mov	r2, r1
   2324a:	4623      	mov	r3, r4
   2324c:	df02      	svc	2
   2324e:	287f      	cmp	r0, #127	@ 0x7f
   23250:	d906      	bls.n	23260 <_ZN20complex_full_dynamic3app17h94d9bf9762f5d6c8E+0xbc>
   23252:	a807      	add	r0, sp, #28
   23254:	f005 ff80 	bl	29158 <_ZN9allow_pin12full_dynamic17unshare_if_shared17hc49b4b2653f8b2c9E>
   23258:	a811      	add	r0, sp, #68	@ 0x44
   2325a:	f005 ff7d 	bl	29158 <_ZN9allow_pin12full_dynamic17unshare_if_shared17hc49b4b2653f8b2c9E>
   2325e:	4625      	mov	r5, r4
   23260:	2d00      	cmp	r5, #0
   23262:	d003      	beq.n	2326c <_ZN20complex_full_dynamic3app17h94d9bf9762f5d6c8E+0xc8>
   23264:	9c06      	ldr	r4, [sp, #24]
   23266:	6061      	str	r1, [r4, #4]
   23268:	2001      	movs	r0, #1
   2326a:	e009      	b.n	23280 <_ZN20complex_full_dynamic3app17h94d9bf9762f5d6c8E+0xdc>
   2326c:	a811      	add	r0, sp, #68	@ 0x44
   2326e:	f005 ff73 	bl	29158 <_ZN9allow_pin12full_dynamic17unshare_if_shared17hc49b4b2653f8b2c9E>
   23272:	9c06      	ldr	r4, [sp, #24]
   23274:	1c60      	adds	r0, r4, #1
   23276:	2263      	movs	r2, #99	@ 0x63
   23278:	9904      	ldr	r1, [sp, #16]
   2327a:	f006 f946 	bl	2950a <__aeabi_memcpy>
   2327e:	2000      	movs	r0, #0
   23280:	7020      	strb	r0, [r4, #0]
   23282:	a811      	add	r0, sp, #68	@ 0x44
   23284:	f005 ff68 	bl	29158 <_ZN9allow_pin12full_dynamic17unshare_if_shared17hc49b4b2653f8b2c9E>
   23288:	a807      	add	r0, sp, #28
   2328a:	f005 ff65 	bl	29158 <_ZN9allow_pin12full_dynamic17unshare_if_shared17hc49b4b2653f8b2c9E>
   2328e:	b031      	add	sp, #196	@ 0xc4
   23290:	bdf0      	pop	{r4, r5, r6, r7, pc}
   23292:	46c0      	nop			@ (mov r8, r8)
   23294:	00002548 	.word	0x00002548

00023298 <_ZN20complex_full_dynamic3app17h9a3c731bc9810576E>:
   23298:	b5f0      	push	{r4, r5, r6, r7, lr}
   2329a:	af03      	add	r7, sp, #12
   2329c:	b0b3      	sub	sp, #204	@ 0xcc
   2329e:	9005      	str	r0, [sp, #20]
   232a0:	ad06      	add	r5, sp, #24
   232a2:	2002      	movs	r0, #2
   232a4:	9004      	str	r0, [sp, #16]
   232a6:	7228      	strb	r0, [r5, #8]
   232a8:	350c      	adds	r5, #12
   232aa:	2650      	movs	r6, #80	@ 0x50
   232ac:	4628      	mov	r0, r5
   232ae:	4632      	mov	r2, r6
   232b0:	f006 f92b 	bl	2950a <__aeabi_memcpy>
   232b4:	ac1d      	add	r4, sp, #116	@ 0x74
   232b6:	4620      	mov	r0, r4
   232b8:	300c      	adds	r0, #12
   232ba:	213c      	movs	r1, #60	@ 0x3c
   232bc:	9003      	str	r0, [sp, #12]
   232be:	9102      	str	r1, [sp, #8]
   232c0:	f005 ff76 	bl	291b0 <__aeabi_memclr4>
   232c4:	9804      	ldr	r0, [sp, #16]
   232c6:	7220      	strb	r0, [r4, #8]
   232c8:	2404      	movs	r4, #4
   232ca:	9600      	str	r6, [sp, #0]
   232cc:	9401      	str	r4, [sp, #4]
   232ce:	a82f      	add	r0, sp, #188	@ 0xbc
   232d0:	492e      	ldr	r1, [pc, #184]	@ (2338c <_ZN20complex_full_dynamic3app17h9a3c731bc9810576E+0xf4>)
   232d2:	2603      	movs	r6, #3
   232d4:	4632      	mov	r2, r6
   232d6:	462b      	mov	r3, r5
   232d8:	f005 ff52 	bl	29180 <_ZN9allow_pin13dynamic_allow17h8bfd3764c146b81aE>
   232dc:	982f      	ldr	r0, [sp, #188]	@ 0xbc
   232de:	2802      	cmp	r0, #2
   232e0:	d102      	bne.n	232e8 <_ZN20complex_full_dynamic3app17h9a3c731bc9810576E+0x50>
   232e2:	9930      	ldr	r1, [sp, #192]	@ 0xc0
   232e4:	4a29      	ldr	r2, [pc, #164]	@ (2338c <_ZN20complex_full_dynamic3app17h9a3c731bc9810576E+0xf4>)
   232e6:	e004      	b.n	232f2 <_ZN20complex_full_dynamic3app17h9a3c731bc9810576E+0x5a>
   232e8:	a906      	add	r1, sp, #24
   232ea:	720c      	strb	r4, [r1, #8]
   232ec:	9607      	str	r6, [sp, #28]
   232ee:	4a27      	ldr	r2, [pc, #156]	@ (2338c <_ZN20complex_full_dynamic3app17h9a3c731bc9810576E+0xf4>)
   232f0:	9206      	str	r2, [sp, #24]
   232f2:	2501      	movs	r5, #1
   232f4:	2802      	cmp	r0, #2
   232f6:	d02f      	beq.n	23358 <_ZN20complex_full_dynamic3app17h9a3c731bc9810576E+0xc0>
   232f8:	a81d      	add	r0, sp, #116	@ 0x74
   232fa:	7a00      	ldrb	r0, [r0, #8]
   232fc:	2802      	cmp	r0, #2
   232fe:	4628      	mov	r0, r5
   23300:	d10f      	bne.n	23322 <_ZN20complex_full_dynamic3app17h9a3c731bc9810576E+0x8a>
   23302:	2603      	movs	r6, #3
   23304:	9802      	ldr	r0, [sp, #8]
   23306:	9000      	str	r0, [sp, #0]
   23308:	9601      	str	r6, [sp, #4]
   2330a:	a82f      	add	r0, sp, #188	@ 0xbc
   2330c:	2409      	movs	r4, #9
   2330e:	4611      	mov	r1, r2
   23310:	4622      	mov	r2, r4
   23312:	9b03      	ldr	r3, [sp, #12]
   23314:	f005 ff34 	bl	29180 <_ZN9allow_pin13dynamic_allow17h8bfd3764c146b81aE>
   23318:	982f      	ldr	r0, [sp, #188]	@ 0xbc
   2331a:	2802      	cmp	r0, #2
   2331c:	d105      	bne.n	2332a <_ZN20complex_full_dynamic3app17h9a3c731bc9810576E+0x92>
   2331e:	9e30      	ldr	r6, [sp, #192]	@ 0xc0
   23320:	4628      	mov	r0, r5
   23322:	2800      	cmp	r0, #0
   23324:	d009      	beq.n	2333a <_ZN20complex_full_dynamic3app17h9a3c731bc9810576E+0xa2>
   23326:	4631      	mov	r1, r6
   23328:	e016      	b.n	23358 <_ZN20complex_full_dynamic3app17h9a3c731bc9810576E+0xc0>
   2332a:	a81d      	add	r0, sp, #116	@ 0x74
   2332c:	7206      	strb	r6, [r0, #8]
   2332e:	941e      	str	r4, [sp, #120]	@ 0x78
   23330:	4816      	ldr	r0, [pc, #88]	@ (2338c <_ZN20complex_full_dynamic3app17h9a3c731bc9810576E+0xf4>)
   23332:	901d      	str	r0, [sp, #116]	@ 0x74
   23334:	2000      	movs	r0, #0
   23336:	2800      	cmp	r0, #0
   23338:	d1f5      	bne.n	23326 <_ZN20complex_full_dynamic3app17h9a3c731bc9810576E+0x8e>
   2333a:	4814      	ldr	r0, [pc, #80]	@ (2338c <_ZN20complex_full_dynamic3app17h9a3c731bc9810576E+0xf4>)
   2333c:	2103      	movs	r1, #3
   2333e:	2209      	movs	r2, #9
   23340:	2400      	movs	r4, #0
   23342:	4623      	mov	r3, r4
   23344:	df02      	svc	2
   23346:	287f      	cmp	r0, #127	@ 0x7f
   23348:	d906      	bls.n	23358 <_ZN20complex_full_dynamic3app17h9a3c731bc9810576E+0xc0>
   2334a:	a806      	add	r0, sp, #24
   2334c:	f005 ff04 	bl	29158 <_ZN9allow_pin12full_dynamic17unshare_if_shared17hc49b4b2653f8b2c9E>
   23350:	a81d      	add	r0, sp, #116	@ 0x74
   23352:	f005 ff01 	bl	29158 <_ZN9allow_pin12full_dynamic17unshare_if_shared17hc49b4b2653f8b2c9E>
   23356:	4625      	mov	r5, r4
   23358:	2d00      	cmp	r5, #0
   2335a:	d003      	beq.n	23364 <_ZN20complex_full_dynamic3app17h9a3c731bc9810576E+0xcc>
   2335c:	9c05      	ldr	r4, [sp, #20]
   2335e:	6061      	str	r1, [r4, #4]
   23360:	2001      	movs	r0, #1
   23362:	e009      	b.n	23378 <_ZN20complex_full_dynamic3app17h9a3c731bc9810576E+0xe0>
   23364:	a81d      	add	r0, sp, #116	@ 0x74
   23366:	f005 fef7 	bl	29158 <_ZN9allow_pin12full_dynamic17unshare_if_shared17hc49b4b2653f8b2c9E>
   2336a:	9c05      	ldr	r4, [sp, #20]
   2336c:	1c60      	adds	r0, r4, #1
   2336e:	223c      	movs	r2, #60	@ 0x3c
   23370:	9903      	ldr	r1, [sp, #12]
   23372:	f006 f8ca 	bl	2950a <__aeabi_memcpy>
   23376:	2000      	movs	r0, #0
   23378:	7020      	strb	r0, [r4, #0]
   2337a:	a81d      	add	r0, sp, #116	@ 0x74
   2337c:	f005 feec 	bl	29158 <_ZN9allow_pin12full_dynamic17unshare_if_shared17hc49b4b2653f8b2c9E>
   23380:	a806      	add	r0, sp, #24
   23382:	f005 fee9 	bl	29158 <_ZN9allow_pin12full_dynamic17unshare_if_shared17hc49b4b2653f8b2c9E>
   23386:	b033      	add	sp, #204	@ 0xcc
   23388:	bdf0      	pop	{r4, r5, r6, r7, pc}
   2338a:	46c0      	nop			@ (mov r8, r8)
   2338c:	00000d7a 	.word	0x00000d7a

00023390 <_ZN20complex_full_dynamic3app17h9e9d2dc8aee3cff2E>:
   23390:	b5f0      	push	{r4, r5, r6, r7, lr}
   23392:	af03      	add	r7, sp, #12
   23394:	b0a7      	sub	sp, #156	@ 0x9c
   23396:	9006      	str	r0, [sp, #24]
   23398:	ac07      	add	r4, sp, #28
   2339a:	2502      	movs	r5, #2
   2339c:	7225      	strb	r5, [r4, #8]
   2339e:	340c      	adds	r4, #12
   233a0:	2648      	movs	r6, #72	@ 0x48
   233a2:	4620      	mov	r0, r4
   233a4:	4632      	mov	r2, r6
   233a6:	f006 f8b0 	bl	2950a <__aeabi_memcpy>
   233aa:	a81c      	add	r0, sp, #112	@ 0x70
   233ac:	2100      	movs	r1, #0
   233ae:	7681      	strb	r1, [r0, #26]
   233b0:	8301      	strh	r1, [r0, #24]
   233b2:	7205      	strb	r5, [r0, #8]
   233b4:	4605      	mov	r5, r0
   233b6:	9121      	str	r1, [sp, #132]	@ 0x84
   233b8:	9120      	str	r1, [sp, #128]	@ 0x80
   233ba:	9104      	str	r1, [sp, #16]
   233bc:	911f      	str	r1, [sp, #124]	@ 0x7c
   233be:	2004      	movs	r0, #4
   233c0:	9600      	str	r6, [sp, #0]
   233c2:	9005      	str	r0, [sp, #20]
   233c4:	9001      	str	r0, [sp, #4]
   233c6:	a823      	add	r0, sp, #140	@ 0x8c
   233c8:	492f      	ldr	r1, [pc, #188]	@ (23488 <_ZN20complex_full_dynamic3app17h9e9d2dc8aee3cff2E+0xf8>)
   233ca:	2608      	movs	r6, #8
   233cc:	4632      	mov	r2, r6
   233ce:	4623      	mov	r3, r4
   233d0:	f005 fed6 	bl	29180 <_ZN9allow_pin13dynamic_allow17h8bfd3764c146b81aE>
   233d4:	9823      	ldr	r0, [sp, #140]	@ 0x8c
   233d6:	2802      	cmp	r0, #2
   233d8:	d102      	bne.n	233e0 <_ZN20complex_full_dynamic3app17h9e9d2dc8aee3cff2E+0x50>
   233da:	9924      	ldr	r1, [sp, #144]	@ 0x90
   233dc:	4a2a      	ldr	r2, [pc, #168]	@ (23488 <_ZN20complex_full_dynamic3app17h9e9d2dc8aee3cff2E+0xf8>)
   233de:	e005      	b.n	233ec <_ZN20complex_full_dynamic3app17h9e9d2dc8aee3cff2E+0x5c>
   233e0:	a907      	add	r1, sp, #28
   233e2:	9a05      	ldr	r2, [sp, #20]
   233e4:	720a      	strb	r2, [r1, #8]
   233e6:	9608      	str	r6, [sp, #32]
   233e8:	4a27      	ldr	r2, [pc, #156]	@ (23488 <_ZN20complex_full_dynamic3app17h9e9d2dc8aee3cff2E+0xf8>)
   233ea:	9207      	str	r2, [sp, #28]
   233ec:	350c      	adds	r5, #12
   233ee:	9505      	str	r5, [sp, #20]
   233f0:	2601      	movs	r6, #1
   233f2:	2802      	cmp	r0, #2
   233f4:	9d06      	ldr	r5, [sp, #24]
   233f6:	d02f      	beq.n	23458 <_ZN20complex_full_dynamic3app17h9e9d2dc8aee3cff2E+0xc8>
   233f8:	a81c      	add	r0, sp, #112	@ 0x70
   233fa:	7a00      	ldrb	r0, [r0, #8]
   233fc:	2103      	movs	r1, #3
   233fe:	2802      	cmp	r0, #2
   23400:	d10e      	bne.n	23420 <_ZN20complex_full_dynamic3app17h9e9d2dc8aee3cff2E+0x90>
   23402:	200f      	movs	r0, #15
   23404:	9000      	str	r0, [sp, #0]
   23406:	9103      	str	r1, [sp, #12]
   23408:	9101      	str	r1, [sp, #4]
   2340a:	a823      	add	r0, sp, #140	@ 0x8c
   2340c:	2409      	movs	r4, #9
   2340e:	4611      	mov	r1, r2
   23410:	4622      	mov	r2, r4
   23412:	9b05      	ldr	r3, [sp, #20]
   23414:	f005 feb4 	bl	29180 <_ZN9allow_pin13dynamic_allow17h8bfd3764c146b81aE>
   23418:	9823      	ldr	r0, [sp, #140]	@ 0x8c
   2341a:	2802      	cmp	r0, #2
   2341c:	d104      	bne.n	23428 <_ZN20complex_full_dynamic3app17h9e9d2dc8aee3cff2E+0x98>
   2341e:	9924      	ldr	r1, [sp, #144]	@ 0x90
   23420:	4630      	mov	r0, r6
   23422:	2800      	cmp	r0, #0
   23424:	d009      	beq.n	2343a <_ZN20complex_full_dynamic3app17h9e9d2dc8aee3cff2E+0xaa>
   23426:	e017      	b.n	23458 <_ZN20complex_full_dynamic3app17h9e9d2dc8aee3cff2E+0xc8>
   23428:	a81c      	add	r0, sp, #112	@ 0x70
   2342a:	9903      	ldr	r1, [sp, #12]
   2342c:	7201      	strb	r1, [r0, #8]
   2342e:	941d      	str	r4, [sp, #116]	@ 0x74
   23430:	4815      	ldr	r0, [pc, #84]	@ (23488 <_ZN20complex_full_dynamic3app17h9e9d2dc8aee3cff2E+0xf8>)
   23432:	901c      	str	r0, [sp, #112]	@ 0x70
   23434:	9804      	ldr	r0, [sp, #16]
   23436:	2800      	cmp	r0, #0
   23438:	d10e      	bne.n	23458 <_ZN20complex_full_dynamic3app17h9e9d2dc8aee3cff2E+0xc8>
   2343a:	4813      	ldr	r0, [pc, #76]	@ (23488 <_ZN20complex_full_dynamic3app17h9e9d2dc8aee3cff2E+0xf8>)
   2343c:	2108      	movs	r1, #8
   2343e:	2209      	movs	r2, #9
   23440:	2400      	movs	r4, #0
   23442:	4623      	mov	r3, r4
   23444:	df02      	svc	2
   23446:	287f      	cmp	r0, #127	@ 0x7f
   23448:	d906      	bls.n	23458 <_ZN20complex_full_dynamic3app17h9e9d2dc8aee3cff2E+0xc8>
   2344a:	a807      	add	r0, sp, #28
   2344c:	f005 fe84 	bl	29158 <_ZN9allow_pin12full_dynamic17unshare_if_shared17hc49b4b2653f8b2c9E>
   23450:	a81c      	add	r0, sp, #112	@ 0x70
   23452:	f005 fe81 	bl	29158 <_ZN9allow_pin12full_dynamic17unshare_if_shared17hc49b4b2653f8b2c9E>
   23456:	4626      	mov	r6, r4
   23458:	2e00      	cmp	r6, #0
   2345a:	d002      	beq.n	23462 <_ZN20complex_full_dynamic3app17h9e9d2dc8aee3cff2E+0xd2>
   2345c:	6069      	str	r1, [r5, #4]
   2345e:	2001      	movs	r0, #1
   23460:	e008      	b.n	23474 <_ZN20complex_full_dynamic3app17h9e9d2dc8aee3cff2E+0xe4>
   23462:	a81c      	add	r0, sp, #112	@ 0x70
   23464:	f005 fe78 	bl	29158 <_ZN9allow_pin12full_dynamic17unshare_if_shared17hc49b4b2653f8b2c9E>
   23468:	1c68      	adds	r0, r5, #1
   2346a:	220f      	movs	r2, #15
   2346c:	9905      	ldr	r1, [sp, #20]
   2346e:	f006 f84c 	bl	2950a <__aeabi_memcpy>
   23472:	2000      	movs	r0, #0
   23474:	7028      	strb	r0, [r5, #0]
   23476:	a81c      	add	r0, sp, #112	@ 0x70
   23478:	f005 fe6e 	bl	29158 <_ZN9allow_pin12full_dynamic17unshare_if_shared17hc49b4b2653f8b2c9E>
   2347c:	a807      	add	r0, sp, #28
   2347e:	f005 fe6b 	bl	29158 <_ZN9allow_pin12full_dynamic17unshare_if_shared17hc49b4b2653f8b2c9E>
   23482:	b027      	add	sp, #156	@ 0x9c
   23484:	bdf0      	pop	{r4, r5, r6, r7, pc}
   23486:	46c0      	nop			@ (mov r8, r8)
   23488:	0000111d 	.word	0x0000111d

0002348c <_ZN20complex_full_dynamic3app17ha0efe12137258ef0E>:
   2348c:	b5f0      	push	{r4, r5, r6, r7, lr}
   2348e:	af03      	add	r7, sp, #12
   23490:	b0a3      	sub	sp, #140	@ 0x8c
   23492:	9006      	str	r0, [sp, #24]
   23494:	ad07      	add	r5, sp, #28
   23496:	2002      	movs	r0, #2
   23498:	9005      	str	r0, [sp, #20]
   2349a:	7228      	strb	r0, [r5, #8]
   2349c:	350c      	adds	r5, #12
   2349e:	2610      	movs	r6, #16
   234a0:	4628      	mov	r0, r5
   234a2:	4632      	mov	r2, r6
   234a4:	f006 f831 	bl	2950a <__aeabi_memcpy>
   234a8:	ac0e      	add	r4, sp, #56	@ 0x38
   234aa:	4620      	mov	r0, r4
   234ac:	300c      	adds	r0, #12
   234ae:	2136      	movs	r1, #54	@ 0x36
   234b0:	9004      	str	r0, [sp, #16]
   234b2:	9103      	str	r1, [sp, #12]
   234b4:	f005 fe7c 	bl	291b0 <__aeabi_memclr4>
   234b8:	9805      	ldr	r0, [sp, #20]
   234ba:	7220      	strb	r0, [r4, #8]
   234bc:	2404      	movs	r4, #4
   234be:	9600      	str	r6, [sp, #0]
   234c0:	9401      	str	r4, [sp, #4]
   234c2:	a81f      	add	r0, sp, #124	@ 0x7c
   234c4:	4930      	ldr	r1, [pc, #192]	@ (23588 <_ZN20complex_full_dynamic3app17ha0efe12137258ef0E+0xfc>)
   234c6:	2601      	movs	r6, #1
   234c8:	4632      	mov	r2, r6
   234ca:	462b      	mov	r3, r5
   234cc:	f005 fe58 	bl	29180 <_ZN9allow_pin13dynamic_allow17h8bfd3764c146b81aE>
   234d0:	981f      	ldr	r0, [sp, #124]	@ 0x7c
   234d2:	2802      	cmp	r0, #2
   234d4:	d104      	bne.n	234e0 <_ZN20complex_full_dynamic3app17ha0efe12137258ef0E+0x54>
   234d6:	9920      	ldr	r1, [sp, #128]	@ 0x80
   234d8:	4a2b      	ldr	r2, [pc, #172]	@ (23588 <_ZN20complex_full_dynamic3app17ha0efe12137258ef0E+0xfc>)
   234da:	2802      	cmp	r0, #2
   234dc:	d107      	bne.n	234ee <_ZN20complex_full_dynamic3app17ha0efe12137258ef0E+0x62>
   234de:	e039      	b.n	23554 <_ZN20complex_full_dynamic3app17ha0efe12137258ef0E+0xc8>
   234e0:	a907      	add	r1, sp, #28
   234e2:	720c      	strb	r4, [r1, #8]
   234e4:	9608      	str	r6, [sp, #32]
   234e6:	4a28      	ldr	r2, [pc, #160]	@ (23588 <_ZN20complex_full_dynamic3app17ha0efe12137258ef0E+0xfc>)
   234e8:	9207      	str	r2, [sp, #28]
   234ea:	2802      	cmp	r0, #2
   234ec:	d032      	beq.n	23554 <_ZN20complex_full_dynamic3app17ha0efe12137258ef0E+0xc8>
   234ee:	a80e      	add	r0, sp, #56	@ 0x38
   234f0:	7a00      	ldrb	r0, [r0, #8]
   234f2:	2802      	cmp	r0, #2
   234f4:	d112      	bne.n	2351c <_ZN20complex_full_dynamic3app17ha0efe12137258ef0E+0x90>
   234f6:	9605      	str	r6, [sp, #20]
   234f8:	2503      	movs	r5, #3
   234fa:	9803      	ldr	r0, [sp, #12]
   234fc:	9000      	str	r0, [sp, #0]
   234fe:	9501      	str	r5, [sp, #4]
   23500:	a81f      	add	r0, sp, #124	@ 0x7c
   23502:	2407      	movs	r4, #7
   23504:	4611      	mov	r1, r2
   23506:	4616      	mov	r6, r2
   23508:	4622      	mov	r2, r4
   2350a:	9b04      	ldr	r3, [sp, #16]
   2350c:	f005 fe38 	bl	29180 <_ZN9allow_pin13dynamic_allow17h8bfd3764c146b81aE>
   23510:	981f      	ldr	r0, [sp, #124]	@ 0x7c
   23512:	2802      	cmp	r0, #2
   23514:	d107      	bne.n	23526 <_ZN20complex_full_dynamic3app17ha0efe12137258ef0E+0x9a>
   23516:	9920      	ldr	r1, [sp, #128]	@ 0x80
   23518:	9e05      	ldr	r6, [sp, #20]
   2351a:	e000      	b.n	2351e <_ZN20complex_full_dynamic3app17ha0efe12137258ef0E+0x92>
   2351c:	2103      	movs	r1, #3
   2351e:	4630      	mov	r0, r6
   23520:	2800      	cmp	r0, #0
   23522:	d008      	beq.n	23536 <_ZN20complex_full_dynamic3app17ha0efe12137258ef0E+0xaa>
   23524:	e016      	b.n	23554 <_ZN20complex_full_dynamic3app17ha0efe12137258ef0E+0xc8>
   23526:	a80e      	add	r0, sp, #56	@ 0x38
   23528:	7205      	strb	r5, [r0, #8]
   2352a:	940f      	str	r4, [sp, #60]	@ 0x3c
   2352c:	960e      	str	r6, [sp, #56]	@ 0x38
   2352e:	2000      	movs	r0, #0
   23530:	9e05      	ldr	r6, [sp, #20]
   23532:	2800      	cmp	r0, #0
   23534:	d10e      	bne.n	23554 <_ZN20complex_full_dynamic3app17ha0efe12137258ef0E+0xc8>
   23536:	4814      	ldr	r0, [pc, #80]	@ (23588 <_ZN20complex_full_dynamic3app17ha0efe12137258ef0E+0xfc>)
   23538:	2101      	movs	r1, #1
   2353a:	2207      	movs	r2, #7
   2353c:	2400      	movs	r4, #0
   2353e:	4623      	mov	r3, r4
   23540:	df02      	svc	2
   23542:	287f      	cmp	r0, #127	@ 0x7f
   23544:	d906      	bls.n	23554 <_ZN20complex_full_dynamic3app17ha0efe12137258ef0E+0xc8>
   23546:	a807      	add	r0, sp, #28
   23548:	f005 fe06 	bl	29158 <_ZN9allow_pin12full_dynamic17unshare_if_shared17hc49b4b2653f8b2c9E>
   2354c:	a80e      	add	r0, sp, #56	@ 0x38
   2354e:	f005 fe03 	bl	29158 <_ZN9allow_pin12full_dynamic17unshare_if_shared17hc49b4b2653f8b2c9E>
   23552:	4626      	mov	r6, r4
   23554:	2e00      	cmp	r6, #0
   23556:	d003      	beq.n	23560 <_ZN20complex_full_dynamic3app17ha0efe12137258ef0E+0xd4>
   23558:	9c06      	ldr	r4, [sp, #24]
   2355a:	6061      	str	r1, [r4, #4]
   2355c:	2001      	movs	r0, #1
   2355e:	e009      	b.n	23574 <_ZN20complex_full_dynamic3app17ha0efe12137258ef0E+0xe8>
   23560:	a80e      	add	r0, sp, #56	@ 0x38
   23562:	f005 fdf9 	bl	29158 <_ZN9allow_pin12full_dynamic17unshare_if_shared17hc49b4b2653f8b2c9E>
   23566:	9c06      	ldr	r4, [sp, #24]
   23568:	1c60      	adds	r0, r4, #1
   2356a:	2236      	movs	r2, #54	@ 0x36
   2356c:	9904      	ldr	r1, [sp, #16]
   2356e:	f005 ffcc 	bl	2950a <__aeabi_memcpy>
   23572:	2000      	movs	r0, #0
   23574:	7020      	strb	r0, [r4, #0]
   23576:	a80e      	add	r0, sp, #56	@ 0x38
   23578:	f005 fdee 	bl	29158 <_ZN9allow_pin12full_dynamic17unshare_if_shared17hc49b4b2653f8b2c9E>
   2357c:	a807      	add	r0, sp, #28
   2357e:	f005 fdeb 	bl	29158 <_ZN9allow_pin12full_dynamic17unshare_if_shared17hc49b4b2653f8b2c9E>
   23582:	b023      	add	sp, #140	@ 0x8c
   23584:	bdf0      	pop	{r4, r5, r6, r7, pc}
   23586:	46c0      	nop			@ (mov r8, r8)
   23588:	00001989 	.word	0x00001989

0002358c <_ZN20complex_full_dynamic3app17ha2a236c33c990a85E>:
   2358c:	b5f0      	push	{r4, r5, r6, r7, lr}
   2358e:	af03      	add	r7, sp, #12
   23590:	b0b9      	sub	sp, #228	@ 0xe4
   23592:	9005      	str	r0, [sp, #20]
   23594:	ad06      	add	r5, sp, #24
   23596:	2402      	movs	r4, #2
   23598:	722c      	strb	r4, [r5, #8]
   2359a:	350c      	adds	r5, #12
   2359c:	2251      	movs	r2, #81	@ 0x51
   2359e:	9204      	str	r2, [sp, #16]
   235a0:	4628      	mov	r0, r5
   235a2:	f005 ffb2 	bl	2950a <__aeabi_memcpy>
   235a6:	ae1e      	add	r6, sp, #120	@ 0x78
   235a8:	4630      	mov	r0, r6
   235aa:	300c      	adds	r0, #12
   235ac:	214f      	movs	r1, #79	@ 0x4f
   235ae:	9003      	str	r0, [sp, #12]
   235b0:	9102      	str	r1, [sp, #8]
   235b2:	f005 fdfd 	bl	291b0 <__aeabi_memclr4>
   235b6:	7234      	strb	r4, [r6, #8]
   235b8:	4626      	mov	r6, r4
   235ba:	2004      	movs	r0, #4
   235bc:	9904      	ldr	r1, [sp, #16]
   235be:	9100      	str	r1, [sp, #0]
   235c0:	9004      	str	r0, [sp, #16]
   235c2:	9001      	str	r0, [sp, #4]
   235c4:	a835      	add	r0, sp, #212	@ 0xd4
   235c6:	4c2e      	ldr	r4, [pc, #184]	@ (23680 <_ZN20complex_full_dynamic3app17ha2a236c33c990a85E+0xf4>)
   235c8:	4621      	mov	r1, r4
   235ca:	4632      	mov	r2, r6
   235cc:	462b      	mov	r3, r5
   235ce:	f005 fdd7 	bl	29180 <_ZN9allow_pin13dynamic_allow17h8bfd3764c146b81aE>
   235d2:	9835      	ldr	r0, [sp, #212]	@ 0xd4
   235d4:	2802      	cmp	r0, #2
   235d6:	d101      	bne.n	235dc <_ZN20complex_full_dynamic3app17ha2a236c33c990a85E+0x50>
   235d8:	9936      	ldr	r1, [sp, #216]	@ 0xd8
   235da:	e004      	b.n	235e6 <_ZN20complex_full_dynamic3app17ha2a236c33c990a85E+0x5a>
   235dc:	a906      	add	r1, sp, #24
   235de:	9a04      	ldr	r2, [sp, #16]
   235e0:	720a      	strb	r2, [r1, #8]
   235e2:	9607      	str	r6, [sp, #28]
   235e4:	9406      	str	r4, [sp, #24]
   235e6:	2501      	movs	r5, #1
   235e8:	2802      	cmp	r0, #2
   235ea:	d02f      	beq.n	2364c <_ZN20complex_full_dynamic3app17ha2a236c33c990a85E+0xc0>
   235ec:	a81e      	add	r0, sp, #120	@ 0x78
   235ee:	7a00      	ldrb	r0, [r0, #8]
   235f0:	2802      	cmp	r0, #2
   235f2:	d10f      	bne.n	23614 <_ZN20complex_full_dynamic3app17ha2a236c33c990a85E+0x88>
   235f4:	2603      	movs	r6, #3
   235f6:	9802      	ldr	r0, [sp, #8]
   235f8:	9000      	str	r0, [sp, #0]
   235fa:	9601      	str	r6, [sp, #4]
   235fc:	a835      	add	r0, sp, #212	@ 0xd4
   235fe:	4621      	mov	r1, r4
   23600:	2404      	movs	r4, #4
   23602:	4622      	mov	r2, r4
   23604:	9b03      	ldr	r3, [sp, #12]
   23606:	f005 fdbb 	bl	29180 <_ZN9allow_pin13dynamic_allow17h8bfd3764c146b81aE>
   2360a:	9835      	ldr	r0, [sp, #212]	@ 0xd4
   2360c:	2802      	cmp	r0, #2
   2360e:	d106      	bne.n	2361e <_ZN20complex_full_dynamic3app17ha2a236c33c990a85E+0x92>
   23610:	9936      	ldr	r1, [sp, #216]	@ 0xd8
   23612:	e000      	b.n	23616 <_ZN20complex_full_dynamic3app17ha2a236c33c990a85E+0x8a>
   23614:	2103      	movs	r1, #3
   23616:	4628      	mov	r0, r5
   23618:	2800      	cmp	r0, #0
   2361a:	d008      	beq.n	2362e <_ZN20complex_full_dynamic3app17ha2a236c33c990a85E+0xa2>
   2361c:	e016      	b.n	2364c <_ZN20complex_full_dynamic3app17ha2a236c33c990a85E+0xc0>
   2361e:	a81e      	add	r0, sp, #120	@ 0x78
   23620:	7206      	strb	r6, [r0, #8]
   23622:	941f      	str	r4, [sp, #124]	@ 0x7c
   23624:	4816      	ldr	r0, [pc, #88]	@ (23680 <_ZN20complex_full_dynamic3app17ha2a236c33c990a85E+0xf4>)
   23626:	901e      	str	r0, [sp, #120]	@ 0x78
   23628:	2000      	movs	r0, #0
   2362a:	2800      	cmp	r0, #0
   2362c:	d10e      	bne.n	2364c <_ZN20complex_full_dynamic3app17ha2a236c33c990a85E+0xc0>
   2362e:	4814      	ldr	r0, [pc, #80]	@ (23680 <_ZN20complex_full_dynamic3app17ha2a236c33c990a85E+0xf4>)
   23630:	2102      	movs	r1, #2
   23632:	2204      	movs	r2, #4
   23634:	2400      	movs	r4, #0
   23636:	4623      	mov	r3, r4
   23638:	df02      	svc	2
   2363a:	287f      	cmp	r0, #127	@ 0x7f
   2363c:	d906      	bls.n	2364c <_ZN20complex_full_dynamic3app17ha2a236c33c990a85E+0xc0>
   2363e:	a806      	add	r0, sp, #24
   23640:	f005 fd8a 	bl	29158 <_ZN9allow_pin12full_dynamic17unshare_if_shared17hc49b4b2653f8b2c9E>
   23644:	a81e      	add	r0, sp, #120	@ 0x78
   23646:	f005 fd87 	bl	29158 <_ZN9allow_pin12full_dynamic17unshare_if_shared17hc49b4b2653f8b2c9E>
   2364a:	4625      	mov	r5, r4
   2364c:	2d00      	cmp	r5, #0
   2364e:	d003      	beq.n	23658 <_ZN20complex_full_dynamic3app17ha2a236c33c990a85E+0xcc>
   23650:	9c05      	ldr	r4, [sp, #20]
   23652:	6061      	str	r1, [r4, #4]
   23654:	2001      	movs	r0, #1
   23656:	e009      	b.n	2366c <_ZN20complex_full_dynamic3app17ha2a236c33c990a85E+0xe0>
   23658:	a81e      	add	r0, sp, #120	@ 0x78
   2365a:	f005 fd7d 	bl	29158 <_ZN9allow_pin12full_dynamic17unshare_if_shared17hc49b4b2653f8b2c9E>
   2365e:	9c05      	ldr	r4, [sp, #20]
   23660:	1c60      	adds	r0, r4, #1
   23662:	224f      	movs	r2, #79	@ 0x4f
   23664:	9903      	ldr	r1, [sp, #12]
   23666:	f005 ff50 	bl	2950a <__aeabi_memcpy>
   2366a:	2000      	movs	r0, #0
   2366c:	7020      	strb	r0, [r4, #0]
   2366e:	a81e      	add	r0, sp, #120	@ 0x78
   23670:	f005 fd72 	bl	29158 <_ZN9allow_pin12full_dynamic17unshare_if_shared17hc49b4b2653f8b2c9E>
   23674:	a806      	add	r0, sp, #24
   23676:	f005 fd6f 	bl	29158 <_ZN9allow_pin12full_dynamic17unshare_if_shared17hc49b4b2653f8b2c9E>
   2367a:	b039      	add	sp, #228	@ 0xe4
   2367c:	bdf0      	pop	{r4, r5, r6, r7, pc}
   2367e:	46c0      	nop			@ (mov r8, r8)
   23680:	00000e16 	.word	0x00000e16

00023684 <_ZN20complex_full_dynamic3app17ha4e5c76228f8e77cE>:
   23684:	b5f0      	push	{r4, r5, r6, r7, lr}
   23686:	af03      	add	r7, sp, #12
   23688:	b0b7      	sub	sp, #220	@ 0xdc
   2368a:	9005      	str	r0, [sp, #20]
   2368c:	ad06      	add	r5, sp, #24
   2368e:	2002      	movs	r0, #2
   23690:	9004      	str	r0, [sp, #16]
   23692:	7228      	strb	r0, [r5, #8]
   23694:	350c      	adds	r5, #12
   23696:	263a      	movs	r6, #58	@ 0x3a
   23698:	4628      	mov	r0, r5
   2369a:	4632      	mov	r2, r6
   2369c:	f005 ff35 	bl	2950a <__aeabi_memcpy>
   236a0:	ac18      	add	r4, sp, #96	@ 0x60
   236a2:	4620      	mov	r0, r4
   236a4:	300c      	adds	r0, #12
   236a6:	215d      	movs	r1, #93	@ 0x5d
   236a8:	9003      	str	r0, [sp, #12]
   236aa:	9102      	str	r1, [sp, #8]
   236ac:	f005 fd80 	bl	291b0 <__aeabi_memclr4>
   236b0:	9804      	ldr	r0, [sp, #16]
   236b2:	7220      	strb	r0, [r4, #8]
   236b4:	2404      	movs	r4, #4
   236b6:	9600      	str	r6, [sp, #0]
   236b8:	9401      	str	r4, [sp, #4]
   236ba:	a833      	add	r0, sp, #204	@ 0xcc
   236bc:	492d      	ldr	r1, [pc, #180]	@ (23774 <_ZN20complex_full_dynamic3app17ha4e5c76228f8e77cE+0xf0>)
   236be:	2600      	movs	r6, #0
   236c0:	4632      	mov	r2, r6
   236c2:	462b      	mov	r3, r5
   236c4:	f005 fd5c 	bl	29180 <_ZN9allow_pin13dynamic_allow17h8bfd3764c146b81aE>
   236c8:	9833      	ldr	r0, [sp, #204]	@ 0xcc
   236ca:	2802      	cmp	r0, #2
   236cc:	d102      	bne.n	236d4 <_ZN20complex_full_dynamic3app17ha4e5c76228f8e77cE+0x50>
   236ce:	9934      	ldr	r1, [sp, #208]	@ 0xd0
   236d0:	4a28      	ldr	r2, [pc, #160]	@ (23774 <_ZN20complex_full_dynamic3app17ha4e5c76228f8e77cE+0xf0>)
   236d2:	e004      	b.n	236de <_ZN20complex_full_dynamic3app17ha4e5c76228f8e77cE+0x5a>
   236d4:	a906      	add	r1, sp, #24
   236d6:	720c      	strb	r4, [r1, #8]
   236d8:	9607      	str	r6, [sp, #28]
   236da:	4a26      	ldr	r2, [pc, #152]	@ (23774 <_ZN20complex_full_dynamic3app17ha4e5c76228f8e77cE+0xf0>)
   236dc:	9206      	str	r2, [sp, #24]
   236de:	2501      	movs	r5, #1
   236e0:	2802      	cmp	r0, #2
   236e2:	d02e      	beq.n	23742 <_ZN20complex_full_dynamic3app17ha4e5c76228f8e77cE+0xbe>
   236e4:	a818      	add	r0, sp, #96	@ 0x60
   236e6:	7a00      	ldrb	r0, [r0, #8]
   236e8:	2103      	movs	r1, #3
   236ea:	2802      	cmp	r0, #2
   236ec:	d10e      	bne.n	2370c <_ZN20complex_full_dynamic3app17ha4e5c76228f8e77cE+0x88>
   236ee:	9802      	ldr	r0, [sp, #8]
   236f0:	9000      	str	r0, [sp, #0]
   236f2:	9104      	str	r1, [sp, #16]
   236f4:	9101      	str	r1, [sp, #4]
   236f6:	a833      	add	r0, sp, #204	@ 0xcc
   236f8:	2405      	movs	r4, #5
   236fa:	4611      	mov	r1, r2
   236fc:	4622      	mov	r2, r4
   236fe:	9b03      	ldr	r3, [sp, #12]
   23700:	f005 fd3e 	bl	29180 <_ZN9allow_pin13dynamic_allow17h8bfd3764c146b81aE>
   23704:	9833      	ldr	r0, [sp, #204]	@ 0xcc
   23706:	2802      	cmp	r0, #2
   23708:	d104      	bne.n	23714 <_ZN20complex_full_dynamic3app17ha4e5c76228f8e77cE+0x90>
   2370a:	9934      	ldr	r1, [sp, #208]	@ 0xd0
   2370c:	462e      	mov	r6, r5
   2370e:	2e00      	cmp	r6, #0
   23710:	d008      	beq.n	23724 <_ZN20complex_full_dynamic3app17ha4e5c76228f8e77cE+0xa0>
   23712:	e016      	b.n	23742 <_ZN20complex_full_dynamic3app17ha4e5c76228f8e77cE+0xbe>
   23714:	a818      	add	r0, sp, #96	@ 0x60
   23716:	9904      	ldr	r1, [sp, #16]
   23718:	7201      	strb	r1, [r0, #8]
   2371a:	9419      	str	r4, [sp, #100]	@ 0x64
   2371c:	4815      	ldr	r0, [pc, #84]	@ (23774 <_ZN20complex_full_dynamic3app17ha4e5c76228f8e77cE+0xf0>)
   2371e:	9018      	str	r0, [sp, #96]	@ 0x60
   23720:	2e00      	cmp	r6, #0
   23722:	d10e      	bne.n	23742 <_ZN20complex_full_dynamic3app17ha4e5c76228f8e77cE+0xbe>
   23724:	4813      	ldr	r0, [pc, #76]	@ (23774 <_ZN20complex_full_dynamic3app17ha4e5c76228f8e77cE+0xf0>)
   23726:	2205      	movs	r2, #5
   23728:	2400      	movs	r4, #0
   2372a:	4621      	mov	r1, r4
   2372c:	4623      	mov	r3, r4
   2372e:	df02      	svc	2
   23730:	287f      	cmp	r0, #127	@ 0x7f
   23732:	d906      	bls.n	23742 <_ZN20complex_full_dynamic3app17ha4e5c76228f8e77cE+0xbe>
   23734:	a806      	add	r0, sp, #24
   23736:	f005 fd0f 	bl	29158 <_ZN9allow_pin12full_dynamic17unshare_if_shared17hc49b4b2653f8b2c9E>
   2373a:	a818      	add	r0, sp, #96	@ 0x60
   2373c:	f005 fd0c 	bl	29158 <_ZN9allow_pin12full_dynamic17unshare_if_shared17hc49b4b2653f8b2c9E>
   23740:	4625      	mov	r5, r4
   23742:	2d00      	cmp	r5, #0
   23744:	d003      	beq.n	2374e <_ZN20complex_full_dynamic3app17ha4e5c76228f8e77cE+0xca>
   23746:	9c05      	ldr	r4, [sp, #20]
   23748:	6061      	str	r1, [r4, #4]
   2374a:	2001      	movs	r0, #1
   2374c:	e009      	b.n	23762 <_ZN20complex_full_dynamic3app17ha4e5c76228f8e77cE+0xde>
   2374e:	a818      	add	r0, sp, #96	@ 0x60
   23750:	f005 fd02 	bl	29158 <_ZN9allow_pin12full_dynamic17unshare_if_shared17hc49b4b2653f8b2c9E>
   23754:	9c05      	ldr	r4, [sp, #20]
   23756:	1c60      	adds	r0, r4, #1
   23758:	225d      	movs	r2, #93	@ 0x5d
   2375a:	9903      	ldr	r1, [sp, #12]
   2375c:	f005 fed5 	bl	2950a <__aeabi_memcpy>
   23760:	2000      	movs	r0, #0
   23762:	7020      	strb	r0, [r4, #0]
   23764:	a818      	add	r0, sp, #96	@ 0x60
   23766:	f005 fcf7 	bl	29158 <_ZN9allow_pin12full_dynamic17unshare_if_shared17hc49b4b2653f8b2c9E>
   2376a:	a806      	add	r0, sp, #24
   2376c:	f005 fcf4 	bl	29158 <_ZN9allow_pin12full_dynamic17unshare_if_shared17hc49b4b2653f8b2c9E>
   23770:	b037      	add	sp, #220	@ 0xdc
   23772:	bdf0      	pop	{r4, r5, r6, r7, pc}
   23774:	000014a4 	.word	0x000014a4

00023778 <_ZN20complex_full_dynamic3app17ha8cc341149531477E>:
   23778:	b5f0      	push	{r4, r5, r6, r7, lr}
   2377a:	af03      	add	r7, sp, #12
   2377c:	b0ad      	sub	sp, #180	@ 0xb4
   2377e:	9005      	str	r0, [sp, #20]
   23780:	ae06      	add	r6, sp, #24
   23782:	2002      	movs	r0, #2
   23784:	9004      	str	r0, [sp, #16]
   23786:	7230      	strb	r0, [r6, #8]
   23788:	360c      	adds	r6, #12
   2378a:	2540      	movs	r5, #64	@ 0x40
   2378c:	4630      	mov	r0, r6
   2378e:	462a      	mov	r2, r5
   23790:	f005 febb 	bl	2950a <__aeabi_memcpy>
   23794:	ac19      	add	r4, sp, #100	@ 0x64
   23796:	4620      	mov	r0, r4
   23798:	300c      	adds	r0, #12
   2379a:	2131      	movs	r1, #49	@ 0x31
   2379c:	9003      	str	r0, [sp, #12]
   2379e:	9102      	str	r1, [sp, #8]
   237a0:	f005 fd06 	bl	291b0 <__aeabi_memclr4>
   237a4:	9804      	ldr	r0, [sp, #16]
   237a6:	7220      	strb	r0, [r4, #8]
   237a8:	2404      	movs	r4, #4
   237aa:	9500      	str	r5, [sp, #0]
   237ac:	9401      	str	r4, [sp, #4]
   237ae:	a829      	add	r0, sp, #164	@ 0xa4
   237b0:	492e      	ldr	r1, [pc, #184]	@ (2386c <_ZN20complex_full_dynamic3app17ha8cc341149531477E+0xf4>)
   237b2:	2508      	movs	r5, #8
   237b4:	462a      	mov	r2, r5
   237b6:	4633      	mov	r3, r6
   237b8:	f005 fce2 	bl	29180 <_ZN9allow_pin13dynamic_allow17h8bfd3764c146b81aE>
   237bc:	9829      	ldr	r0, [sp, #164]	@ 0xa4
   237be:	2802      	cmp	r0, #2
   237c0:	d102      	bne.n	237c8 <_ZN20complex_full_dynamic3app17ha8cc341149531477E+0x50>
   237c2:	992a      	ldr	r1, [sp, #168]	@ 0xa8
   237c4:	4a29      	ldr	r2, [pc, #164]	@ (2386c <_ZN20complex_full_dynamic3app17ha8cc341149531477E+0xf4>)
   237c6:	e004      	b.n	237d2 <_ZN20complex_full_dynamic3app17ha8cc341149531477E+0x5a>
   237c8:	a906      	add	r1, sp, #24
   237ca:	720c      	strb	r4, [r1, #8]
   237cc:	9507      	str	r5, [sp, #28]
   237ce:	4a27      	ldr	r2, [pc, #156]	@ (2386c <_ZN20complex_full_dynamic3app17ha8cc341149531477E+0xf4>)
   237d0:	9206      	str	r2, [sp, #24]
   237d2:	2501      	movs	r5, #1
   237d4:	2802      	cmp	r0, #2
   237d6:	d02f      	beq.n	23838 <_ZN20complex_full_dynamic3app17ha8cc341149531477E+0xc0>
   237d8:	a819      	add	r0, sp, #100	@ 0x64
   237da:	7a00      	ldrb	r0, [r0, #8]
   237dc:	2802      	cmp	r0, #2
   237de:	d10f      	bne.n	23800 <_ZN20complex_full_dynamic3app17ha8cc341149531477E+0x88>
   237e0:	2603      	movs	r6, #3
   237e2:	9802      	ldr	r0, [sp, #8]
   237e4:	9000      	str	r0, [sp, #0]
   237e6:	9601      	str	r6, [sp, #4]
   237e8:	a829      	add	r0, sp, #164	@ 0xa4
   237ea:	2405      	movs	r4, #5
   237ec:	4611      	mov	r1, r2
   237ee:	4622      	mov	r2, r4
   237f0:	9b03      	ldr	r3, [sp, #12]
   237f2:	f005 fcc5 	bl	29180 <_ZN9allow_pin13dynamic_allow17h8bfd3764c146b81aE>
   237f6:	9829      	ldr	r0, [sp, #164]	@ 0xa4
   237f8:	2802      	cmp	r0, #2
   237fa:	d106      	bne.n	2380a <_ZN20complex_full_dynamic3app17ha8cc341149531477E+0x92>
   237fc:	992a      	ldr	r1, [sp, #168]	@ 0xa8
   237fe:	e000      	b.n	23802 <_ZN20complex_full_dynamic3app17ha8cc341149531477E+0x8a>
   23800:	2103      	movs	r1, #3
   23802:	4628      	mov	r0, r5
   23804:	2800      	cmp	r0, #0
   23806:	d008      	beq.n	2381a <_ZN20complex_full_dynamic3app17ha8cc341149531477E+0xa2>
   23808:	e016      	b.n	23838 <_ZN20complex_full_dynamic3app17ha8cc341149531477E+0xc0>
   2380a:	a819      	add	r0, sp, #100	@ 0x64
   2380c:	7206      	strb	r6, [r0, #8]
   2380e:	941a      	str	r4, [sp, #104]	@ 0x68
   23810:	4816      	ldr	r0, [pc, #88]	@ (2386c <_ZN20complex_full_dynamic3app17ha8cc341149531477E+0xf4>)
   23812:	9019      	str	r0, [sp, #100]	@ 0x64
   23814:	2000      	movs	r0, #0
   23816:	2800      	cmp	r0, #0
   23818:	d10e      	bne.n	23838 <_ZN20complex_full_dynamic3app17ha8cc341149531477E+0xc0>
   2381a:	4814      	ldr	r0, [pc, #80]	@ (2386c <_ZN20complex_full_dynamic3app17ha8cc341149531477E+0xf4>)
   2381c:	2108      	movs	r1, #8
   2381e:	2205      	movs	r2, #5
   23820:	2400      	movs	r4, #0
   23822:	4623      	mov	r3, r4
   23824:	df02      	svc	2
   23826:	287f      	cmp	r0, #127	@ 0x7f
   23828:	d906      	bls.n	23838 <_ZN20complex_full_dynamic3app17ha8cc341149531477E+0xc0>
   2382a:	a806      	add	r0, sp, #24
   2382c:	f005 fc94 	bl	29158 <_ZN9allow_pin12full_dynamic17unshare_if_shared17hc49b4b2653f8b2c9E>
   23830:	a819      	add	r0, sp, #100	@ 0x64
   23832:	f005 fc91 	bl	29158 <_ZN9allow_pin12full_dynamic17unshare_if_shared17hc49b4b2653f8b2c9E>
   23836:	4625      	mov	r5, r4
   23838:	2d00      	cmp	r5, #0
   2383a:	d003      	beq.n	23844 <_ZN20complex_full_dynamic3app17ha8cc341149531477E+0xcc>
   2383c:	9c05      	ldr	r4, [sp, #20]
   2383e:	6061      	str	r1, [r4, #4]
   23840:	2001      	movs	r0, #1
   23842:	e009      	b.n	23858 <_ZN20complex_full_dynamic3app17ha8cc341149531477E+0xe0>
   23844:	a819      	add	r0, sp, #100	@ 0x64
   23846:	f005 fc87 	bl	29158 <_ZN9allow_pin12full_dynamic17unshare_if_shared17hc49b4b2653f8b2c9E>
   2384a:	9c05      	ldr	r4, [sp, #20]
   2384c:	1c60      	adds	r0, r4, #1
   2384e:	2231      	movs	r2, #49	@ 0x31
   23850:	9903      	ldr	r1, [sp, #12]
   23852:	f005 fe5a 	bl	2950a <__aeabi_memcpy>
   23856:	2000      	movs	r0, #0
   23858:	7020      	strb	r0, [r4, #0]
   2385a:	a819      	add	r0, sp, #100	@ 0x64
   2385c:	f005 fc7c 	bl	29158 <_ZN9allow_pin12full_dynamic17unshare_if_shared17hc49b4b2653f8b2c9E>
   23860:	a806      	add	r0, sp, #24
   23862:	f005 fc79 	bl	29158 <_ZN9allow_pin12full_dynamic17unshare_if_shared17hc49b4b2653f8b2c9E>
   23866:	b02d      	add	sp, #180	@ 0xb4
   23868:	bdf0      	pop	{r4, r5, r6, r7, pc}
   2386a:	46c0      	nop			@ (mov r8, r8)
   2386c:	00000fce 	.word	0x00000fce

00023870 <_ZN20complex_full_dynamic3app17had9afbff133335c7E>:
   23870:	b5f0      	push	{r4, r5, r6, r7, lr}
   23872:	af03      	add	r7, sp, #12
   23874:	b0af      	sub	sp, #188	@ 0xbc
   23876:	9006      	str	r0, [sp, #24]
   23878:	ad07      	add	r5, sp, #28
   2387a:	2002      	movs	r0, #2
   2387c:	9005      	str	r0, [sp, #20]
   2387e:	7228      	strb	r0, [r5, #8]
   23880:	350c      	adds	r5, #12
   23882:	2635      	movs	r6, #53	@ 0x35
   23884:	4628      	mov	r0, r5
   23886:	4632      	mov	r2, r6
   23888:	f005 fe3f 	bl	2950a <__aeabi_memcpy>
   2388c:	ac18      	add	r4, sp, #96	@ 0x60
   2388e:	4620      	mov	r0, r4
   23890:	300c      	adds	r0, #12
   23892:	213f      	movs	r1, #63	@ 0x3f
   23894:	9004      	str	r0, [sp, #16]
   23896:	9103      	str	r1, [sp, #12]
   23898:	f005 fc8a 	bl	291b0 <__aeabi_memclr4>
   2389c:	9805      	ldr	r0, [sp, #20]
   2389e:	7220      	strb	r0, [r4, #8]
   238a0:	2404      	movs	r4, #4
   238a2:	9600      	str	r6, [sp, #0]
   238a4:	9401      	str	r4, [sp, #4]
   238a6:	a82b      	add	r0, sp, #172	@ 0xac
   238a8:	492d      	ldr	r1, [pc, #180]	@ (23960 <_ZN20complex_full_dynamic3app17had9afbff133335c7E+0xf0>)
   238aa:	2600      	movs	r6, #0
   238ac:	4632      	mov	r2, r6
   238ae:	462b      	mov	r3, r5
   238b0:	f005 fc66 	bl	29180 <_ZN9allow_pin13dynamic_allow17h8bfd3764c146b81aE>
   238b4:	982b      	ldr	r0, [sp, #172]	@ 0xac
   238b6:	2802      	cmp	r0, #2
   238b8:	d102      	bne.n	238c0 <_ZN20complex_full_dynamic3app17had9afbff133335c7E+0x50>
   238ba:	992c      	ldr	r1, [sp, #176]	@ 0xb0
   238bc:	4c28      	ldr	r4, [pc, #160]	@ (23960 <_ZN20complex_full_dynamic3app17had9afbff133335c7E+0xf0>)
   238be:	e004      	b.n	238ca <_ZN20complex_full_dynamic3app17had9afbff133335c7E+0x5a>
   238c0:	a907      	add	r1, sp, #28
   238c2:	720c      	strb	r4, [r1, #8]
   238c4:	9608      	str	r6, [sp, #32]
   238c6:	4c26      	ldr	r4, [pc, #152]	@ (23960 <_ZN20complex_full_dynamic3app17had9afbff133335c7E+0xf0>)
   238c8:	9407      	str	r4, [sp, #28]
   238ca:	2501      	movs	r5, #1
   238cc:	2802      	cmp	r0, #2
   238ce:	d02d      	beq.n	2392c <_ZN20complex_full_dynamic3app17had9afbff133335c7E+0xbc>
   238d0:	a818      	add	r0, sp, #96	@ 0x60
   238d2:	7a00      	ldrb	r0, [r0, #8]
   238d4:	2802      	cmp	r0, #2
   238d6:	d10e      	bne.n	238f6 <_ZN20complex_full_dynamic3app17had9afbff133335c7E+0x86>
   238d8:	2203      	movs	r2, #3
   238da:	9803      	ldr	r0, [sp, #12]
   238dc:	9000      	str	r0, [sp, #0]
   238de:	9201      	str	r2, [sp, #4]
   238e0:	a82b      	add	r0, sp, #172	@ 0xac
   238e2:	4621      	mov	r1, r4
   238e4:	9205      	str	r2, [sp, #20]
   238e6:	9b04      	ldr	r3, [sp, #16]
   238e8:	f005 fc4a 	bl	29180 <_ZN9allow_pin13dynamic_allow17h8bfd3764c146b81aE>
   238ec:	982b      	ldr	r0, [sp, #172]	@ 0xac
   238ee:	2802      	cmp	r0, #2
   238f0:	d106      	bne.n	23900 <_ZN20complex_full_dynamic3app17had9afbff133335c7E+0x90>
   238f2:	992c      	ldr	r1, [sp, #176]	@ 0xb0
   238f4:	e000      	b.n	238f8 <_ZN20complex_full_dynamic3app17had9afbff133335c7E+0x88>
   238f6:	2103      	movs	r1, #3
   238f8:	462e      	mov	r6, r5
   238fa:	2e00      	cmp	r6, #0
   238fc:	d007      	beq.n	2390e <_ZN20complex_full_dynamic3app17had9afbff133335c7E+0x9e>
   238fe:	e015      	b.n	2392c <_ZN20complex_full_dynamic3app17had9afbff133335c7E+0xbc>
   23900:	a818      	add	r0, sp, #96	@ 0x60
   23902:	9905      	ldr	r1, [sp, #20]
   23904:	7201      	strb	r1, [r0, #8]
   23906:	9119      	str	r1, [sp, #100]	@ 0x64
   23908:	9418      	str	r4, [sp, #96]	@ 0x60
   2390a:	2e00      	cmp	r6, #0
   2390c:	d10e      	bne.n	2392c <_ZN20complex_full_dynamic3app17had9afbff133335c7E+0xbc>
   2390e:	4814      	ldr	r0, [pc, #80]	@ (23960 <_ZN20complex_full_dynamic3app17had9afbff133335c7E+0xf0>)
   23910:	2203      	movs	r2, #3
   23912:	2400      	movs	r4, #0
   23914:	4621      	mov	r1, r4
   23916:	4623      	mov	r3, r4
   23918:	df02      	svc	2
   2391a:	287f      	cmp	r0, #127	@ 0x7f
   2391c:	d906      	bls.n	2392c <_ZN20complex_full_dynamic3app17had9afbff133335c7E+0xbc>
   2391e:	a807      	add	r0, sp, #28
   23920:	f005 fc1a 	bl	29158 <_ZN9allow_pin12full_dynamic17unshare_if_shared17hc49b4b2653f8b2c9E>
   23924:	a818      	add	r0, sp, #96	@ 0x60
   23926:	f005 fc17 	bl	29158 <_ZN9allow_pin12full_dynamic17unshare_if_shared17hc49b4b2653f8b2c9E>
   2392a:	4625      	mov	r5, r4
   2392c:	2d00      	cmp	r5, #0
   2392e:	d003      	beq.n	23938 <_ZN20complex_full_dynamic3app17had9afbff133335c7E+0xc8>
   23930:	9c06      	ldr	r4, [sp, #24]
   23932:	6061      	str	r1, [r4, #4]
   23934:	2001      	movs	r0, #1
   23936:	e009      	b.n	2394c <_ZN20complex_full_dynamic3app17had9afbff133335c7E+0xdc>
   23938:	a818      	add	r0, sp, #96	@ 0x60
   2393a:	f005 fc0d 	bl	29158 <_ZN9allow_pin12full_dynamic17unshare_if_shared17hc49b4b2653f8b2c9E>
   2393e:	9c06      	ldr	r4, [sp, #24]
   23940:	1c60      	adds	r0, r4, #1
   23942:	223f      	movs	r2, #63	@ 0x3f
   23944:	9904      	ldr	r1, [sp, #16]
   23946:	f005 fde0 	bl	2950a <__aeabi_memcpy>
   2394a:	2000      	movs	r0, #0
   2394c:	7020      	strb	r0, [r4, #0]
   2394e:	a818      	add	r0, sp, #96	@ 0x60
   23950:	f005 fc02 	bl	29158 <_ZN9allow_pin12full_dynamic17unshare_if_shared17hc49b4b2653f8b2c9E>
   23954:	a807      	add	r0, sp, #28
   23956:	f005 fbff 	bl	29158 <_ZN9allow_pin12full_dynamic17unshare_if_shared17hc49b4b2653f8b2c9E>
   2395a:	b02f      	add	sp, #188	@ 0xbc
   2395c:	bdf0      	pop	{r4, r5, r6, r7, pc}
   2395e:	46c0      	nop			@ (mov r8, r8)
   23960:	00000e57 	.word	0x00000e57

00023964 <_ZN20complex_full_dynamic3app17hb40af78e0cf8c289E>:
   23964:	b5f0      	push	{r4, r5, r6, r7, lr}
   23966:	af03      	add	r7, sp, #12
   23968:	b0af      	sub	sp, #188	@ 0xbc
   2396a:	9006      	str	r0, [sp, #24]
   2396c:	ae07      	add	r6, sp, #28
   2396e:	2002      	movs	r0, #2
   23970:	9005      	str	r0, [sp, #20]
   23972:	7230      	strb	r0, [r6, #8]
   23974:	360c      	adds	r6, #12
   23976:	2527      	movs	r5, #39	@ 0x27
   23978:	4630      	mov	r0, r6
   2397a:	462a      	mov	r2, r5
   2397c:	f005 fdc5 	bl	2950a <__aeabi_memcpy>
   23980:	ac14      	add	r4, sp, #80	@ 0x50
   23982:	4620      	mov	r0, r4
   23984:	300c      	adds	r0, #12
   23986:	214f      	movs	r1, #79	@ 0x4f
   23988:	9004      	str	r0, [sp, #16]
   2398a:	9103      	str	r1, [sp, #12]
   2398c:	f005 fc10 	bl	291b0 <__aeabi_memclr4>
   23990:	9805      	ldr	r0, [sp, #20]
   23992:	7220      	strb	r0, [r4, #8]
   23994:	2404      	movs	r4, #4
   23996:	9500      	str	r5, [sp, #0]
   23998:	9401      	str	r4, [sp, #4]
   2399a:	a82b      	add	r0, sp, #172	@ 0xac
   2399c:	492d      	ldr	r1, [pc, #180]	@ (23a54 <_ZN20complex_full_dynamic3app17hb40af78e0cf8c289E+0xf0>)
   2399e:	2509      	movs	r5, #9
   239a0:	462a      	mov	r2, r5
   239a2:	4633      	mov	r3, r6
   239a4:	f005 fbec 	bl	29180 <_ZN9allow_pin13dynamic_allow17h8bfd3764c146b81aE>
   239a8:	982b      	ldr	r0, [sp, #172]	@ 0xac
   239aa:	2802      	cmp	r0, #2
   239ac:	d102      	bne.n	239b4 <_ZN20complex_full_dynamic3app17hb40af78e0cf8c289E+0x50>
   239ae:	992c      	ldr	r1, [sp, #176]	@ 0xb0
   239b0:	4a28      	ldr	r2, [pc, #160]	@ (23a54 <_ZN20complex_full_dynamic3app17hb40af78e0cf8c289E+0xf0>)
   239b2:	e004      	b.n	239be <_ZN20complex_full_dynamic3app17hb40af78e0cf8c289E+0x5a>
   239b4:	a907      	add	r1, sp, #28
   239b6:	720c      	strb	r4, [r1, #8]
   239b8:	9508      	str	r5, [sp, #32]
   239ba:	4a26      	ldr	r2, [pc, #152]	@ (23a54 <_ZN20complex_full_dynamic3app17hb40af78e0cf8c289E+0xf0>)
   239bc:	9207      	str	r2, [sp, #28]
   239be:	2501      	movs	r5, #1
   239c0:	2802      	cmp	r0, #2
   239c2:	d02e      	beq.n	23a22 <_ZN20complex_full_dynamic3app17hb40af78e0cf8c289E+0xbe>
   239c4:	a814      	add	r0, sp, #80	@ 0x50
   239c6:	7a00      	ldrb	r0, [r0, #8]
   239c8:	2802      	cmp	r0, #2
   239ca:	d10f      	bne.n	239ec <_ZN20complex_full_dynamic3app17hb40af78e0cf8c289E+0x88>
   239cc:	2603      	movs	r6, #3
   239ce:	9803      	ldr	r0, [sp, #12]
   239d0:	9000      	str	r0, [sp, #0]
   239d2:	9601      	str	r6, [sp, #4]
   239d4:	a82b      	add	r0, sp, #172	@ 0xac
   239d6:	2400      	movs	r4, #0
   239d8:	4611      	mov	r1, r2
   239da:	4622      	mov	r2, r4
   239dc:	9b04      	ldr	r3, [sp, #16]
   239de:	f005 fbcf 	bl	29180 <_ZN9allow_pin13dynamic_allow17h8bfd3764c146b81aE>
   239e2:	982b      	ldr	r0, [sp, #172]	@ 0xac
   239e4:	2802      	cmp	r0, #2
   239e6:	d106      	bne.n	239f6 <_ZN20complex_full_dynamic3app17hb40af78e0cf8c289E+0x92>
   239e8:	992c      	ldr	r1, [sp, #176]	@ 0xb0
   239ea:	e000      	b.n	239ee <_ZN20complex_full_dynamic3app17hb40af78e0cf8c289E+0x8a>
   239ec:	2103      	movs	r1, #3
   239ee:	462c      	mov	r4, r5
   239f0:	2c00      	cmp	r4, #0
   239f2:	d007      	beq.n	23a04 <_ZN20complex_full_dynamic3app17hb40af78e0cf8c289E+0xa0>
   239f4:	e015      	b.n	23a22 <_ZN20complex_full_dynamic3app17hb40af78e0cf8c289E+0xbe>
   239f6:	a814      	add	r0, sp, #80	@ 0x50
   239f8:	7206      	strb	r6, [r0, #8]
   239fa:	9415      	str	r4, [sp, #84]	@ 0x54
   239fc:	4815      	ldr	r0, [pc, #84]	@ (23a54 <_ZN20complex_full_dynamic3app17hb40af78e0cf8c289E+0xf0>)
   239fe:	9014      	str	r0, [sp, #80]	@ 0x50
   23a00:	2c00      	cmp	r4, #0
   23a02:	d10e      	bne.n	23a22 <_ZN20complex_full_dynamic3app17hb40af78e0cf8c289E+0xbe>
   23a04:	4813      	ldr	r0, [pc, #76]	@ (23a54 <_ZN20complex_full_dynamic3app17hb40af78e0cf8c289E+0xf0>)
   23a06:	2109      	movs	r1, #9
   23a08:	2400      	movs	r4, #0
   23a0a:	4622      	mov	r2, r4
   23a0c:	4623      	mov	r3, r4
   23a0e:	df02      	svc	2
   23a10:	287f      	cmp	r0, #127	@ 0x7f
   23a12:	d906      	bls.n	23a22 <_ZN20complex_full_dynamic3app17hb40af78e0cf8c289E+0xbe>
   23a14:	a807      	add	r0, sp, #28
   23a16:	f005 fb9f 	bl	29158 <_ZN9allow_pin12full_dynamic17unshare_if_shared17hc49b4b2653f8b2c9E>
   23a1a:	a814      	add	r0, sp, #80	@ 0x50
   23a1c:	f005 fb9c 	bl	29158 <_ZN9allow_pin12full_dynamic17unshare_if_shared17hc49b4b2653f8b2c9E>
   23a20:	4625      	mov	r5, r4
   23a22:	2d00      	cmp	r5, #0
   23a24:	d003      	beq.n	23a2e <_ZN20complex_full_dynamic3app17hb40af78e0cf8c289E+0xca>
   23a26:	9c06      	ldr	r4, [sp, #24]
   23a28:	6061      	str	r1, [r4, #4]
   23a2a:	2001      	movs	r0, #1
   23a2c:	e009      	b.n	23a42 <_ZN20complex_full_dynamic3app17hb40af78e0cf8c289E+0xde>
   23a2e:	a814      	add	r0, sp, #80	@ 0x50
   23a30:	f005 fb92 	bl	29158 <_ZN9allow_pin12full_dynamic17unshare_if_shared17hc49b4b2653f8b2c9E>
   23a34:	9c06      	ldr	r4, [sp, #24]
   23a36:	1c60      	adds	r0, r4, #1
   23a38:	224f      	movs	r2, #79	@ 0x4f
   23a3a:	9904      	ldr	r1, [sp, #16]
   23a3c:	f005 fd65 	bl	2950a <__aeabi_memcpy>
   23a40:	2000      	movs	r0, #0
   23a42:	7020      	strb	r0, [r4, #0]
   23a44:	a814      	add	r0, sp, #80	@ 0x50
   23a46:	f005 fb87 	bl	29158 <_ZN9allow_pin12full_dynamic17unshare_if_shared17hc49b4b2653f8b2c9E>
   23a4a:	a807      	add	r0, sp, #28
   23a4c:	f005 fb84 	bl	29158 <_ZN9allow_pin12full_dynamic17unshare_if_shared17hc49b4b2653f8b2c9E>
   23a50:	b02f      	add	sp, #188	@ 0xbc
   23a52:	bdf0      	pop	{r4, r5, r6, r7, pc}
   23a54:	00000b4c 	.word	0x00000b4c

00023a58 <_ZN20complex_full_dynamic3app17hb7ad4e8c2cedb0c1E>:
   23a58:	b5f0      	push	{r4, r5, r6, r7, lr}
   23a5a:	af03      	add	r7, sp, #12
   23a5c:	b0a7      	sub	sp, #156	@ 0x9c
   23a5e:	9006      	str	r0, [sp, #24]
   23a60:	ad07      	add	r5, sp, #28
   23a62:	2002      	movs	r0, #2
   23a64:	9005      	str	r0, [sp, #20]
   23a66:	7228      	strb	r0, [r5, #8]
   23a68:	350c      	adds	r5, #12
   23a6a:	260e      	movs	r6, #14
   23a6c:	4628      	mov	r0, r5
   23a6e:	4632      	mov	r2, r6
   23a70:	f005 fd4b 	bl	2950a <__aeabi_memcpy>
   23a74:	ac0e      	add	r4, sp, #56	@ 0x38
   23a76:	4620      	mov	r0, r4
   23a78:	300c      	adds	r0, #12
   23a7a:	2148      	movs	r1, #72	@ 0x48
   23a7c:	9004      	str	r0, [sp, #16]
   23a7e:	9103      	str	r1, [sp, #12]
   23a80:	f005 fb96 	bl	291b0 <__aeabi_memclr4>
   23a84:	9805      	ldr	r0, [sp, #20]
   23a86:	7220      	strb	r0, [r4, #8]
   23a88:	2404      	movs	r4, #4
   23a8a:	9600      	str	r6, [sp, #0]
   23a8c:	9401      	str	r4, [sp, #4]
   23a8e:	a823      	add	r0, sp, #140	@ 0x8c
   23a90:	492e      	ldr	r1, [pc, #184]	@ (23b4c <_ZN20complex_full_dynamic3app17hb7ad4e8c2cedb0c1E+0xf4>)
   23a92:	2603      	movs	r6, #3
   23a94:	4632      	mov	r2, r6
   23a96:	462b      	mov	r3, r5
   23a98:	f005 fb72 	bl	29180 <_ZN9allow_pin13dynamic_allow17h8bfd3764c146b81aE>
   23a9c:	9823      	ldr	r0, [sp, #140]	@ 0x8c
   23a9e:	2802      	cmp	r0, #2
   23aa0:	d102      	bne.n	23aa8 <_ZN20complex_full_dynamic3app17hb7ad4e8c2cedb0c1E+0x50>
   23aa2:	9924      	ldr	r1, [sp, #144]	@ 0x90
   23aa4:	4a29      	ldr	r2, [pc, #164]	@ (23b4c <_ZN20complex_full_dynamic3app17hb7ad4e8c2cedb0c1E+0xf4>)
   23aa6:	e004      	b.n	23ab2 <_ZN20complex_full_dynamic3app17hb7ad4e8c2cedb0c1E+0x5a>
   23aa8:	a907      	add	r1, sp, #28
   23aaa:	720c      	strb	r4, [r1, #8]
   23aac:	9608      	str	r6, [sp, #32]
   23aae:	4a27      	ldr	r2, [pc, #156]	@ (23b4c <_ZN20complex_full_dynamic3app17hb7ad4e8c2cedb0c1E+0xf4>)
   23ab0:	9207      	str	r2, [sp, #28]
   23ab2:	2501      	movs	r5, #1
   23ab4:	2802      	cmp	r0, #2
   23ab6:	d02f      	beq.n	23b18 <_ZN20complex_full_dynamic3app17hb7ad4e8c2cedb0c1E+0xc0>
   23ab8:	a80e      	add	r0, sp, #56	@ 0x38
   23aba:	7a00      	ldrb	r0, [r0, #8]
   23abc:	2802      	cmp	r0, #2
   23abe:	4628      	mov	r0, r5
   23ac0:	d10f      	bne.n	23ae2 <_ZN20complex_full_dynamic3app17hb7ad4e8c2cedb0c1E+0x8a>
   23ac2:	2603      	movs	r6, #3
   23ac4:	9803      	ldr	r0, [sp, #12]
   23ac6:	9000      	str	r0, [sp, #0]
   23ac8:	9601      	str	r6, [sp, #4]
   23aca:	a823      	add	r0, sp, #140	@ 0x8c
   23acc:	2408      	movs	r4, #8
   23ace:	4611      	mov	r1, r2
   23ad0:	4622      	mov	r2, r4
   23ad2:	9b04      	ldr	r3, [sp, #16]
   23ad4:	f005 fb54 	bl	29180 <_ZN9allow_pin13dynamic_allow17h8bfd3764c146b81aE>
   23ad8:	9823      	ldr	r0, [sp, #140]	@ 0x8c
   23ada:	2802      	cmp	r0, #2
   23adc:	d105      	bne.n	23aea <_ZN20complex_full_dynamic3app17hb7ad4e8c2cedb0c1E+0x92>
   23ade:	9e24      	ldr	r6, [sp, #144]	@ 0x90
   23ae0:	4628      	mov	r0, r5
   23ae2:	2800      	cmp	r0, #0
   23ae4:	d009      	beq.n	23afa <_ZN20complex_full_dynamic3app17hb7ad4e8c2cedb0c1E+0xa2>
   23ae6:	4631      	mov	r1, r6
   23ae8:	e016      	b.n	23b18 <_ZN20complex_full_dynamic3app17hb7ad4e8c2cedb0c1E+0xc0>
   23aea:	a80e      	add	r0, sp, #56	@ 0x38
   23aec:	7206      	strb	r6, [r0, #8]
   23aee:	940f      	str	r4, [sp, #60]	@ 0x3c
   23af0:	4816      	ldr	r0, [pc, #88]	@ (23b4c <_ZN20complex_full_dynamic3app17hb7ad4e8c2cedb0c1E+0xf4>)
   23af2:	900e      	str	r0, [sp, #56]	@ 0x38
   23af4:	2000      	movs	r0, #0
   23af6:	2800      	cmp	r0, #0
   23af8:	d1f5      	bne.n	23ae6 <_ZN20complex_full_dynamic3app17hb7ad4e8c2cedb0c1E+0x8e>
   23afa:	4814      	ldr	r0, [pc, #80]	@ (23b4c <_ZN20complex_full_dynamic3app17hb7ad4e8c2cedb0c1E+0xf4>)
   23afc:	2103      	movs	r1, #3
   23afe:	2208      	movs	r2, #8
   23b00:	2400      	movs	r4, #0
   23b02:	4623      	mov	r3, r4
   23b04:	df02      	svc	2
   23b06:	287f      	cmp	r0, #127	@ 0x7f
   23b08:	d906      	bls.n	23b18 <_ZN20complex_full_dynamic3app17hb7ad4e8c2cedb0c1E+0xc0>
   23b0a:	a807      	add	r0, sp, #28
   23b0c:	f005 fb24 	bl	29158 <_ZN9allow_pin12full_dynamic17unshare_if_shared17hc49b4b2653f8b2c9E>
   23b10:	a80e      	add	r0, sp, #56	@ 0x38
   23b12:	f005 fb21 	bl	29158 <_ZN9allow_pin12full_dynamic17unshare_if_shared17hc49b4b2653f8b2c9E>
   23b16:	4625      	mov	r5, r4
   23b18:	2d00      	cmp	r5, #0
   23b1a:	d003      	beq.n	23b24 <_ZN20complex_full_dynamic3app17hb7ad4e8c2cedb0c1E+0xcc>
   23b1c:	9c06      	ldr	r4, [sp, #24]
   23b1e:	6061      	str	r1, [r4, #4]
   23b20:	2001      	movs	r0, #1
   23b22:	e009      	b.n	23b38 <_ZN20complex_full_dynamic3app17hb7ad4e8c2cedb0c1E+0xe0>
   23b24:	a80e      	add	r0, sp, #56	@ 0x38
   23b26:	f005 fb17 	bl	29158 <_ZN9allow_pin12full_dynamic17unshare_if_shared17hc49b4b2653f8b2c9E>
   23b2a:	9c06      	ldr	r4, [sp, #24]
   23b2c:	1c60      	adds	r0, r4, #1
   23b2e:	2248      	movs	r2, #72	@ 0x48
   23b30:	9904      	ldr	r1, [sp, #16]
   23b32:	f005 fcea 	bl	2950a <__aeabi_memcpy>
   23b36:	2000      	movs	r0, #0
   23b38:	7020      	strb	r0, [r4, #0]
   23b3a:	a80e      	add	r0, sp, #56	@ 0x38
   23b3c:	f005 fb0c 	bl	29158 <_ZN9allow_pin12full_dynamic17unshare_if_shared17hc49b4b2653f8b2c9E>
   23b40:	a807      	add	r0, sp, #28
   23b42:	f005 fb09 	bl	29158 <_ZN9allow_pin12full_dynamic17unshare_if_shared17hc49b4b2653f8b2c9E>
   23b46:	b027      	add	sp, #156	@ 0x9c
   23b48:	bdf0      	pop	{r4, r5, r6, r7, pc}
   23b4a:	46c0      	nop			@ (mov r8, r8)
   23b4c:	000012d1 	.word	0x000012d1

00023b50 <_ZN20complex_full_dynamic3app17hb82f2462c3a584ddE>:
   23b50:	b5f0      	push	{r4, r5, r6, r7, lr}
   23b52:	af03      	add	r7, sp, #12
   23b54:	b0a7      	sub	sp, #156	@ 0x9c
   23b56:	9005      	str	r0, [sp, #20]
   23b58:	ad06      	add	r5, sp, #24
   23b5a:	2402      	movs	r4, #2
   23b5c:	722c      	strb	r4, [r5, #8]
   23b5e:	350c      	adds	r5, #12
   23b60:	221e      	movs	r2, #30
   23b62:	9204      	str	r2, [sp, #16]
   23b64:	4628      	mov	r0, r5
   23b66:	f005 fcd0 	bl	2950a <__aeabi_memcpy>
   23b6a:	ae11      	add	r6, sp, #68	@ 0x44
   23b6c:	4630      	mov	r0, r6
   23b6e:	300c      	adds	r0, #12
   23b70:	213c      	movs	r1, #60	@ 0x3c
   23b72:	9003      	str	r0, [sp, #12]
   23b74:	9102      	str	r1, [sp, #8]
   23b76:	f005 fb1b 	bl	291b0 <__aeabi_memclr4>
   23b7a:	7234      	strb	r4, [r6, #8]
   23b7c:	2004      	movs	r0, #4
   23b7e:	9904      	ldr	r1, [sp, #16]
   23b80:	9100      	str	r1, [sp, #0]
   23b82:	9004      	str	r0, [sp, #16]
   23b84:	9001      	str	r0, [sp, #4]
   23b86:	a823      	add	r0, sp, #140	@ 0x8c
   23b88:	4e2c      	ldr	r6, [pc, #176]	@ (23c3c <_ZN20complex_full_dynamic3app17hb82f2462c3a584ddE+0xec>)
   23b8a:	4631      	mov	r1, r6
   23b8c:	4622      	mov	r2, r4
   23b8e:	462b      	mov	r3, r5
   23b90:	f005 faf6 	bl	29180 <_ZN9allow_pin13dynamic_allow17h8bfd3764c146b81aE>
   23b94:	9823      	ldr	r0, [sp, #140]	@ 0x8c
   23b96:	2802      	cmp	r0, #2
   23b98:	d101      	bne.n	23b9e <_ZN20complex_full_dynamic3app17hb82f2462c3a584ddE+0x4e>
   23b9a:	9924      	ldr	r1, [sp, #144]	@ 0x90
   23b9c:	e004      	b.n	23ba8 <_ZN20complex_full_dynamic3app17hb82f2462c3a584ddE+0x58>
   23b9e:	a906      	add	r1, sp, #24
   23ba0:	9a04      	ldr	r2, [sp, #16]
   23ba2:	720a      	strb	r2, [r1, #8]
   23ba4:	9407      	str	r4, [sp, #28]
   23ba6:	9606      	str	r6, [sp, #24]
   23ba8:	2501      	movs	r5, #1
   23baa:	2802      	cmp	r0, #2
   23bac:	d02d      	beq.n	23c0a <_ZN20complex_full_dynamic3app17hb82f2462c3a584ddE+0xba>
   23bae:	a811      	add	r0, sp, #68	@ 0x44
   23bb0:	7a00      	ldrb	r0, [r0, #8]
   23bb2:	2802      	cmp	r0, #2
   23bb4:	d10e      	bne.n	23bd4 <_ZN20complex_full_dynamic3app17hb82f2462c3a584ddE+0x84>
   23bb6:	2403      	movs	r4, #3
   23bb8:	9802      	ldr	r0, [sp, #8]
   23bba:	9000      	str	r0, [sp, #0]
   23bbc:	9401      	str	r4, [sp, #4]
   23bbe:	a823      	add	r0, sp, #140	@ 0x8c
   23bc0:	4631      	mov	r1, r6
   23bc2:	4622      	mov	r2, r4
   23bc4:	9b03      	ldr	r3, [sp, #12]
   23bc6:	f005 fadb 	bl	29180 <_ZN9allow_pin13dynamic_allow17h8bfd3764c146b81aE>
   23bca:	9823      	ldr	r0, [sp, #140]	@ 0x8c
   23bcc:	2802      	cmp	r0, #2
   23bce:	d106      	bne.n	23bde <_ZN20complex_full_dynamic3app17hb82f2462c3a584ddE+0x8e>
   23bd0:	9924      	ldr	r1, [sp, #144]	@ 0x90
   23bd2:	e000      	b.n	23bd6 <_ZN20complex_full_dynamic3app17hb82f2462c3a584ddE+0x86>
   23bd4:	2103      	movs	r1, #3
   23bd6:	4628      	mov	r0, r5
   23bd8:	2800      	cmp	r0, #0
   23bda:	d007      	beq.n	23bec <_ZN20complex_full_dynamic3app17hb82f2462c3a584ddE+0x9c>
   23bdc:	e015      	b.n	23c0a <_ZN20complex_full_dynamic3app17hb82f2462c3a584ddE+0xba>
   23bde:	a811      	add	r0, sp, #68	@ 0x44
   23be0:	7204      	strb	r4, [r0, #8]
   23be2:	9412      	str	r4, [sp, #72]	@ 0x48
   23be4:	9611      	str	r6, [sp, #68]	@ 0x44
   23be6:	2000      	movs	r0, #0
   23be8:	2800      	cmp	r0, #0
   23bea:	d10e      	bne.n	23c0a <_ZN20complex_full_dynamic3app17hb82f2462c3a584ddE+0xba>
   23bec:	4813      	ldr	r0, [pc, #76]	@ (23c3c <_ZN20complex_full_dynamic3app17hb82f2462c3a584ddE+0xec>)
   23bee:	2102      	movs	r1, #2
   23bf0:	2203      	movs	r2, #3
   23bf2:	2400      	movs	r4, #0
   23bf4:	4623      	mov	r3, r4
   23bf6:	df02      	svc	2
   23bf8:	287f      	cmp	r0, #127	@ 0x7f
   23bfa:	d906      	bls.n	23c0a <_ZN20complex_full_dynamic3app17hb82f2462c3a584ddE+0xba>
   23bfc:	a806      	add	r0, sp, #24
   23bfe:	f005 faab 	bl	29158 <_ZN9allow_pin12full_dynamic17unshare_if_shared17hc49b4b2653f8b2c9E>
   23c02:	a811      	add	r0, sp, #68	@ 0x44
   23c04:	f005 faa8 	bl	29158 <_ZN9allow_pin12full_dynamic17unshare_if_shared17hc49b4b2653f8b2c9E>
   23c08:	4625      	mov	r5, r4
   23c0a:	2d00      	cmp	r5, #0
   23c0c:	d003      	beq.n	23c16 <_ZN20complex_full_dynamic3app17hb82f2462c3a584ddE+0xc6>
   23c0e:	9c05      	ldr	r4, [sp, #20]
   23c10:	6061      	str	r1, [r4, #4]
   23c12:	2001      	movs	r0, #1
   23c14:	e009      	b.n	23c2a <_ZN20complex_full_dynamic3app17hb82f2462c3a584ddE+0xda>
   23c16:	a811      	add	r0, sp, #68	@ 0x44
   23c18:	f005 fa9e 	bl	29158 <_ZN9allow_pin12full_dynamic17unshare_if_shared17hc49b4b2653f8b2c9E>
   23c1c:	9c05      	ldr	r4, [sp, #20]
   23c1e:	1c60      	adds	r0, r4, #1
   23c20:	223c      	movs	r2, #60	@ 0x3c
   23c22:	9903      	ldr	r1, [sp, #12]
   23c24:	f005 fc71 	bl	2950a <__aeabi_memcpy>
   23c28:	2000      	movs	r0, #0
   23c2a:	7020      	strb	r0, [r4, #0]
   23c2c:	a811      	add	r0, sp, #68	@ 0x44
   23c2e:	f005 fa93 	bl	29158 <_ZN9allow_pin12full_dynamic17unshare_if_shared17hc49b4b2653f8b2c9E>
   23c32:	a806      	add	r0, sp, #24
   23c34:	f005 fa90 	bl	29158 <_ZN9allow_pin12full_dynamic17unshare_if_shared17hc49b4b2653f8b2c9E>
   23c38:	b027      	add	sp, #156	@ 0x9c
   23c3a:	bdf0      	pop	{r4, r5, r6, r7, pc}
   23c3c:	00000b3c 	.word	0x00000b3c

00023c40 <_ZN20complex_full_dynamic3app17hb852560064460e75E>:
   23c40:	b5f0      	push	{r4, r5, r6, r7, lr}
   23c42:	af03      	add	r7, sp, #12
   23c44:	b0b1      	sub	sp, #196	@ 0xc4
   23c46:	9003      	str	r0, [sp, #12]
   23c48:	ac06      	add	r4, sp, #24
   23c4a:	2502      	movs	r5, #2
   23c4c:	7225      	strb	r5, [r4, #8]
   23c4e:	340c      	adds	r4, #12
   23c50:	2261      	movs	r2, #97	@ 0x61
   23c52:	9204      	str	r2, [sp, #16]
   23c54:	4620      	mov	r0, r4
   23c56:	f005 fc58 	bl	2950a <__aeabi_memcpy>
   23c5a:	a822      	add	r0, sp, #136	@ 0x88
   23c5c:	2600      	movs	r6, #0
   23c5e:	8506      	strh	r6, [r0, #40]	@ 0x28
   23c60:	9005      	str	r0, [sp, #20]
   23c62:	7205      	strb	r5, [r0, #8]
   23c64:	962b      	str	r6, [sp, #172]	@ 0xac
   23c66:	962a      	str	r6, [sp, #168]	@ 0xa8
   23c68:	9629      	str	r6, [sp, #164]	@ 0xa4
   23c6a:	9628      	str	r6, [sp, #160]	@ 0xa0
   23c6c:	9627      	str	r6, [sp, #156]	@ 0x9c
   23c6e:	9626      	str	r6, [sp, #152]	@ 0x98
   23c70:	9625      	str	r6, [sp, #148]	@ 0x94
   23c72:	2504      	movs	r5, #4
   23c74:	9804      	ldr	r0, [sp, #16]
   23c76:	9000      	str	r0, [sp, #0]
   23c78:	9501      	str	r5, [sp, #4]
   23c7a:	2031      	movs	r0, #49	@ 0x31
   23c7c:	00c1      	lsls	r1, r0, #3
   23c7e:	a82d      	add	r0, sp, #180	@ 0xb4
   23c80:	9104      	str	r1, [sp, #16]
   23c82:	462a      	mov	r2, r5
   23c84:	4623      	mov	r3, r4
   23c86:	f005 fa7b 	bl	29180 <_ZN9allow_pin13dynamic_allow17h8bfd3764c146b81aE>
   23c8a:	982d      	ldr	r0, [sp, #180]	@ 0xb4
   23c8c:	2802      	cmp	r0, #2
   23c8e:	d102      	bne.n	23c96 <_ZN20complex_full_dynamic3app17hb852560064460e75E+0x56>
   23c90:	992e      	ldr	r1, [sp, #184]	@ 0xb8
   23c92:	9b04      	ldr	r3, [sp, #16]
   23c94:	e004      	b.n	23ca0 <_ZN20complex_full_dynamic3app17hb852560064460e75E+0x60>
   23c96:	a906      	add	r1, sp, #24
   23c98:	720d      	strb	r5, [r1, #8]
   23c9a:	9507      	str	r5, [sp, #28]
   23c9c:	9b04      	ldr	r3, [sp, #16]
   23c9e:	9306      	str	r3, [sp, #24]
   23ca0:	9a05      	ldr	r2, [sp, #20]
   23ca2:	320c      	adds	r2, #12
   23ca4:	9205      	str	r2, [sp, #20]
   23ca6:	2501      	movs	r5, #1
   23ca8:	2802      	cmp	r0, #2
   23caa:	d033      	beq.n	23d14 <_ZN20complex_full_dynamic3app17hb852560064460e75E+0xd4>
   23cac:	a822      	add	r0, sp, #136	@ 0x88
   23cae:	7a00      	ldrb	r0, [r0, #8]
   23cb0:	2103      	movs	r1, #3
   23cb2:	2802      	cmp	r0, #2
   23cb4:	d113      	bne.n	23cde <_ZN20complex_full_dynamic3app17hb852560064460e75E+0x9e>
   23cb6:	201e      	movs	r0, #30
   23cb8:	9000      	str	r0, [sp, #0]
   23cba:	9102      	str	r1, [sp, #8]
   23cbc:	9101      	str	r1, [sp, #4]
   23cbe:	a82d      	add	r0, sp, #180	@ 0xb4
   23cc0:	2406      	movs	r4, #6
   23cc2:	4619      	mov	r1, r3
   23cc4:	4622      	mov	r2, r4
   23cc6:	9b05      	ldr	r3, [sp, #20]
   23cc8:	f005 fa5a 	bl	29180 <_ZN9allow_pin13dynamic_allow17h8bfd3764c146b81aE>
   23ccc:	982d      	ldr	r0, [sp, #180]	@ 0xb4
   23cce:	2802      	cmp	r0, #2
   23cd0:	d109      	bne.n	23ce6 <_ZN20complex_full_dynamic3app17hb852560064460e75E+0xa6>
   23cd2:	992e      	ldr	r1, [sp, #184]	@ 0xb8
   23cd4:	462e      	mov	r6, r5
   23cd6:	9b04      	ldr	r3, [sp, #16]
   23cd8:	2e00      	cmp	r6, #0
   23cda:	d00c      	beq.n	23cf6 <_ZN20complex_full_dynamic3app17hb852560064460e75E+0xb6>
   23cdc:	e01a      	b.n	23d14 <_ZN20complex_full_dynamic3app17hb852560064460e75E+0xd4>
   23cde:	462e      	mov	r6, r5
   23ce0:	2e00      	cmp	r6, #0
   23ce2:	d008      	beq.n	23cf6 <_ZN20complex_full_dynamic3app17hb852560064460e75E+0xb6>
   23ce4:	e016      	b.n	23d14 <_ZN20complex_full_dynamic3app17hb852560064460e75E+0xd4>
   23ce6:	a822      	add	r0, sp, #136	@ 0x88
   23ce8:	9902      	ldr	r1, [sp, #8]
   23cea:	7201      	strb	r1, [r0, #8]
   23cec:	9423      	str	r4, [sp, #140]	@ 0x8c
   23cee:	9b04      	ldr	r3, [sp, #16]
   23cf0:	9322      	str	r3, [sp, #136]	@ 0x88
   23cf2:	2e00      	cmp	r6, #0
   23cf4:	d10e      	bne.n	23d14 <_ZN20complex_full_dynamic3app17hb852560064460e75E+0xd4>
   23cf6:	2104      	movs	r1, #4
   23cf8:	2206      	movs	r2, #6
   23cfa:	2400      	movs	r4, #0
   23cfc:	4618      	mov	r0, r3
   23cfe:	4623      	mov	r3, r4
   23d00:	df02      	svc	2
   23d02:	287f      	cmp	r0, #127	@ 0x7f
   23d04:	d906      	bls.n	23d14 <_ZN20complex_full_dynamic3app17hb852560064460e75E+0xd4>
   23d06:	a806      	add	r0, sp, #24
   23d08:	f005 fa26 	bl	29158 <_ZN9allow_pin12full_dynamic17unshare_if_shared17hc49b4b2653f8b2c9E>
   23d0c:	a822      	add	r0, sp, #136	@ 0x88
   23d0e:	f005 fa23 	bl	29158 <_ZN9allow_pin12full_dynamic17unshare_if_shared17hc49b4b2653f8b2c9E>
   23d12:	4625      	mov	r5, r4
   23d14:	2d00      	cmp	r5, #0
   23d16:	d003      	beq.n	23d20 <_ZN20complex_full_dynamic3app17hb852560064460e75E+0xe0>
   23d18:	9c03      	ldr	r4, [sp, #12]
   23d1a:	6061      	str	r1, [r4, #4]
   23d1c:	2001      	movs	r0, #1
   23d1e:	e009      	b.n	23d34 <_ZN20complex_full_dynamic3app17hb852560064460e75E+0xf4>
   23d20:	a822      	add	r0, sp, #136	@ 0x88
   23d22:	f005 fa19 	bl	29158 <_ZN9allow_pin12full_dynamic17unshare_if_shared17hc49b4b2653f8b2c9E>
   23d26:	9c03      	ldr	r4, [sp, #12]
   23d28:	1c60      	adds	r0, r4, #1
   23d2a:	221e      	movs	r2, #30
   23d2c:	9905      	ldr	r1, [sp, #20]
   23d2e:	f005 fbec 	bl	2950a <__aeabi_memcpy>
   23d32:	2000      	movs	r0, #0
   23d34:	7020      	strb	r0, [r4, #0]
   23d36:	a822      	add	r0, sp, #136	@ 0x88
   23d38:	f005 fa0e 	bl	29158 <_ZN9allow_pin12full_dynamic17unshare_if_shared17hc49b4b2653f8b2c9E>
   23d3c:	a806      	add	r0, sp, #24
   23d3e:	f005 fa0b 	bl	29158 <_ZN9allow_pin12full_dynamic17unshare_if_shared17hc49b4b2653f8b2c9E>
   23d42:	b031      	add	sp, #196	@ 0xc4
   23d44:	bdf0      	pop	{r4, r5, r6, r7, pc}
   23d46:	d4d4      	bmi.n	23cf2 <_ZN20complex_full_dynamic3app17hb852560064460e75E+0xb2>

00023d48 <_ZN20complex_full_dynamic3app17hb914198c37f53890E>:
   23d48:	b5f0      	push	{r4, r5, r6, r7, lr}
   23d4a:	af03      	add	r7, sp, #12
   23d4c:	b09d      	sub	sp, #116	@ 0x74
   23d4e:	9004      	str	r0, [sp, #16]
   23d50:	ac05      	add	r4, sp, #20
   23d52:	2502      	movs	r5, #2
   23d54:	7225      	strb	r5, [r4, #8]
   23d56:	340c      	adds	r4, #12
   23d58:	221a      	movs	r2, #26
   23d5a:	9203      	str	r2, [sp, #12]
   23d5c:	4620      	mov	r0, r4
   23d5e:	f005 fbd4 	bl	2950a <__aeabi_memcpy>
   23d62:	a80f      	add	r0, sp, #60	@ 0x3c
   23d64:	4601      	mov	r1, r0
   23d66:	310c      	adds	r1, #12
   23d68:	2600      	movs	r6, #0
   23d6a:	9102      	str	r1, [sp, #8]
   23d6c:	768e      	strb	r6, [r1, #26]
   23d6e:	8486      	strh	r6, [r0, #36]	@ 0x24
   23d70:	7205      	strb	r5, [r0, #8]
   23d72:	9617      	str	r6, [sp, #92]	@ 0x5c
   23d74:	9616      	str	r6, [sp, #88]	@ 0x58
   23d76:	9615      	str	r6, [sp, #84]	@ 0x54
   23d78:	9614      	str	r6, [sp, #80]	@ 0x50
   23d7a:	9613      	str	r6, [sp, #76]	@ 0x4c
   23d7c:	9612      	str	r6, [sp, #72]	@ 0x48
   23d7e:	2004      	movs	r0, #4
   23d80:	9903      	ldr	r1, [sp, #12]
   23d82:	9100      	str	r1, [sp, #0]
   23d84:	9003      	str	r0, [sp, #12]
   23d86:	9001      	str	r0, [sp, #4]
   23d88:	a819      	add	r0, sp, #100	@ 0x64
   23d8a:	492e      	ldr	r1, [pc, #184]	@ (23e44 <_ZN20complex_full_dynamic3app17hb914198c37f53890E+0xfc>)
   23d8c:	2505      	movs	r5, #5
   23d8e:	462a      	mov	r2, r5
   23d90:	4623      	mov	r3, r4
   23d92:	f005 f9f5 	bl	29180 <_ZN9allow_pin13dynamic_allow17h8bfd3764c146b81aE>
   23d96:	9819      	ldr	r0, [sp, #100]	@ 0x64
   23d98:	2802      	cmp	r0, #2
   23d9a:	d102      	bne.n	23da2 <_ZN20complex_full_dynamic3app17hb914198c37f53890E+0x5a>
   23d9c:	991a      	ldr	r1, [sp, #104]	@ 0x68
   23d9e:	4a29      	ldr	r2, [pc, #164]	@ (23e44 <_ZN20complex_full_dynamic3app17hb914198c37f53890E+0xfc>)
   23da0:	e005      	b.n	23dae <_ZN20complex_full_dynamic3app17hb914198c37f53890E+0x66>
   23da2:	a905      	add	r1, sp, #20
   23da4:	9a03      	ldr	r2, [sp, #12]
   23da6:	720a      	strb	r2, [r1, #8]
   23da8:	9506      	str	r5, [sp, #24]
   23daa:	4a26      	ldr	r2, [pc, #152]	@ (23e44 <_ZN20complex_full_dynamic3app17hb914198c37f53890E+0xfc>)
   23dac:	9205      	str	r2, [sp, #20]
   23dae:	2401      	movs	r4, #1
   23db0:	2802      	cmp	r0, #2
   23db2:	d02e      	beq.n	23e12 <_ZN20complex_full_dynamic3app17hb914198c37f53890E+0xca>
   23db4:	a80f      	add	r0, sp, #60	@ 0x3c
   23db6:	7a00      	ldrb	r0, [r0, #8]
   23db8:	2103      	movs	r1, #3
   23dba:	2802      	cmp	r0, #2
   23dbc:	d10e      	bne.n	23ddc <_ZN20complex_full_dynamic3app17hb914198c37f53890E+0x94>
   23dbe:	201b      	movs	r0, #27
   23dc0:	9000      	str	r0, [sp, #0]
   23dc2:	9103      	str	r1, [sp, #12]
   23dc4:	9101      	str	r1, [sp, #4]
   23dc6:	a819      	add	r0, sp, #100	@ 0x64
   23dc8:	2502      	movs	r5, #2
   23dca:	4611      	mov	r1, r2
   23dcc:	462a      	mov	r2, r5
   23dce:	9b02      	ldr	r3, [sp, #8]
   23dd0:	f005 f9d6 	bl	29180 <_ZN9allow_pin13dynamic_allow17h8bfd3764c146b81aE>
   23dd4:	9819      	ldr	r0, [sp, #100]	@ 0x64
   23dd6:	2802      	cmp	r0, #2
   23dd8:	d104      	bne.n	23de4 <_ZN20complex_full_dynamic3app17hb914198c37f53890E+0x9c>
   23dda:	991a      	ldr	r1, [sp, #104]	@ 0x68
   23ddc:	4626      	mov	r6, r4
   23dde:	2e00      	cmp	r6, #0
   23de0:	d008      	beq.n	23df4 <_ZN20complex_full_dynamic3app17hb914198c37f53890E+0xac>
   23de2:	e016      	b.n	23e12 <_ZN20complex_full_dynamic3app17hb914198c37f53890E+0xca>
   23de4:	a80f      	add	r0, sp, #60	@ 0x3c
   23de6:	9903      	ldr	r1, [sp, #12]
   23de8:	7201      	strb	r1, [r0, #8]
   23dea:	9510      	str	r5, [sp, #64]	@ 0x40
   23dec:	4815      	ldr	r0, [pc, #84]	@ (23e44 <_ZN20complex_full_dynamic3app17hb914198c37f53890E+0xfc>)
   23dee:	900f      	str	r0, [sp, #60]	@ 0x3c
   23df0:	2e00      	cmp	r6, #0
   23df2:	d10e      	bne.n	23e12 <_ZN20complex_full_dynamic3app17hb914198c37f53890E+0xca>
   23df4:	4813      	ldr	r0, [pc, #76]	@ (23e44 <_ZN20complex_full_dynamic3app17hb914198c37f53890E+0xfc>)
   23df6:	2105      	movs	r1, #5
   23df8:	2202      	movs	r2, #2
   23dfa:	2600      	movs	r6, #0
   23dfc:	4633      	mov	r3, r6
   23dfe:	df02      	svc	2
   23e00:	287f      	cmp	r0, #127	@ 0x7f
   23e02:	d906      	bls.n	23e12 <_ZN20complex_full_dynamic3app17hb914198c37f53890E+0xca>
   23e04:	a805      	add	r0, sp, #20
   23e06:	f005 f9a7 	bl	29158 <_ZN9allow_pin12full_dynamic17unshare_if_shared17hc49b4b2653f8b2c9E>
   23e0a:	a80f      	add	r0, sp, #60	@ 0x3c
   23e0c:	f005 f9a4 	bl	29158 <_ZN9allow_pin12full_dynamic17unshare_if_shared17hc49b4b2653f8b2c9E>
   23e10:	4634      	mov	r4, r6
   23e12:	2c00      	cmp	r4, #0
   23e14:	d003      	beq.n	23e1e <_ZN20complex_full_dynamic3app17hb914198c37f53890E+0xd6>
   23e16:	9c04      	ldr	r4, [sp, #16]
   23e18:	6061      	str	r1, [r4, #4]
   23e1a:	2001      	movs	r0, #1
   23e1c:	e009      	b.n	23e32 <_ZN20complex_full_dynamic3app17hb914198c37f53890E+0xea>
   23e1e:	a80f      	add	r0, sp, #60	@ 0x3c
   23e20:	f005 f99a 	bl	29158 <_ZN9allow_pin12full_dynamic17unshare_if_shared17hc49b4b2653f8b2c9E>
   23e24:	9c04      	ldr	r4, [sp, #16]
   23e26:	1c60      	adds	r0, r4, #1
   23e28:	221b      	movs	r2, #27
   23e2a:	9902      	ldr	r1, [sp, #8]
   23e2c:	f005 fb6d 	bl	2950a <__aeabi_memcpy>
   23e30:	2000      	movs	r0, #0
   23e32:	7020      	strb	r0, [r4, #0]
   23e34:	a80f      	add	r0, sp, #60	@ 0x3c
   23e36:	f005 f98f 	bl	29158 <_ZN9allow_pin12full_dynamic17unshare_if_shared17hc49b4b2653f8b2c9E>
   23e3a:	a805      	add	r0, sp, #20
   23e3c:	f005 f98c 	bl	29158 <_ZN9allow_pin12full_dynamic17unshare_if_shared17hc49b4b2653f8b2c9E>
   23e40:	b01d      	add	sp, #116	@ 0x74
   23e42:	bdf0      	pop	{r4, r5, r6, r7, pc}
   23e44:	00001cce 	.word	0x00001cce

00023e48 <_ZN20complex_full_dynamic3app17hb92b641e03175334E>:
   23e48:	b5f0      	push	{r4, r5, r6, r7, lr}
   23e4a:	af03      	add	r7, sp, #12
   23e4c:	b0ab      	sub	sp, #172	@ 0xac
   23e4e:	9006      	str	r0, [sp, #24]
   23e50:	ae07      	add	r6, sp, #28
   23e52:	2002      	movs	r0, #2
   23e54:	9005      	str	r0, [sp, #20]
   23e56:	7230      	strb	r0, [r6, #8]
   23e58:	360c      	adds	r6, #12
   23e5a:	253c      	movs	r5, #60	@ 0x3c
   23e5c:	4630      	mov	r0, r6
   23e5e:	462a      	mov	r2, r5
   23e60:	f005 fb53 	bl	2950a <__aeabi_memcpy>
   23e64:	ac19      	add	r4, sp, #100	@ 0x64
   23e66:	4620      	mov	r0, r4
   23e68:	300c      	adds	r0, #12
   23e6a:	212c      	movs	r1, #44	@ 0x2c
   23e6c:	9004      	str	r0, [sp, #16]
   23e6e:	9103      	str	r1, [sp, #12]
   23e70:	f005 f99e 	bl	291b0 <__aeabi_memclr4>
   23e74:	9805      	ldr	r0, [sp, #20]
   23e76:	7220      	strb	r0, [r4, #8]
   23e78:	2404      	movs	r4, #4
   23e7a:	9500      	str	r5, [sp, #0]
   23e7c:	9401      	str	r4, [sp, #4]
   23e7e:	a827      	add	r0, sp, #156	@ 0x9c
   23e80:	492e      	ldr	r1, [pc, #184]	@ (23f3c <_ZN20complex_full_dynamic3app17hb92b641e03175334E+0xf4>)
   23e82:	2505      	movs	r5, #5
   23e84:	462a      	mov	r2, r5
   23e86:	4633      	mov	r3, r6
   23e88:	f005 f97a 	bl	29180 <_ZN9allow_pin13dynamic_allow17h8bfd3764c146b81aE>
   23e8c:	9827      	ldr	r0, [sp, #156]	@ 0x9c
   23e8e:	2802      	cmp	r0, #2
   23e90:	d102      	bne.n	23e98 <_ZN20complex_full_dynamic3app17hb92b641e03175334E+0x50>
   23e92:	9928      	ldr	r1, [sp, #160]	@ 0xa0
   23e94:	4a29      	ldr	r2, [pc, #164]	@ (23f3c <_ZN20complex_full_dynamic3app17hb92b641e03175334E+0xf4>)
   23e96:	e004      	b.n	23ea2 <_ZN20complex_full_dynamic3app17hb92b641e03175334E+0x5a>
   23e98:	a907      	add	r1, sp, #28
   23e9a:	720c      	strb	r4, [r1, #8]
   23e9c:	9508      	str	r5, [sp, #32]
   23e9e:	4a27      	ldr	r2, [pc, #156]	@ (23f3c <_ZN20complex_full_dynamic3app17hb92b641e03175334E+0xf4>)
   23ea0:	9207      	str	r2, [sp, #28]
   23ea2:	2501      	movs	r5, #1
   23ea4:	2802      	cmp	r0, #2
   23ea6:	d02f      	beq.n	23f08 <_ZN20complex_full_dynamic3app17hb92b641e03175334E+0xc0>
   23ea8:	a819      	add	r0, sp, #100	@ 0x64
   23eaa:	7a00      	ldrb	r0, [r0, #8]
   23eac:	2802      	cmp	r0, #2
   23eae:	d10f      	bne.n	23ed0 <_ZN20complex_full_dynamic3app17hb92b641e03175334E+0x88>
   23eb0:	2603      	movs	r6, #3
   23eb2:	9803      	ldr	r0, [sp, #12]
   23eb4:	9000      	str	r0, [sp, #0]
   23eb6:	9601      	str	r6, [sp, #4]
   23eb8:	a827      	add	r0, sp, #156	@ 0x9c
   23eba:	2407      	movs	r4, #7
   23ebc:	4611      	mov	r1, r2
   23ebe:	4622      	mov	r2, r4
   23ec0:	9b04      	ldr	r3, [sp, #16]
   23ec2:	f005 f95d 	bl	29180 <_ZN9allow_pin13dynamic_allow17h8bfd3764c146b81aE>
   23ec6:	9827      	ldr	r0, [sp, #156]	@ 0x9c
   23ec8:	2802      	cmp	r0, #2
   23eca:	d106      	bne.n	23eda <_ZN20complex_full_dynamic3app17hb92b641e03175334E+0x92>
   23ecc:	9928      	ldr	r1, [sp, #160]	@ 0xa0
   23ece:	e000      	b.n	23ed2 <_ZN20complex_full_dynamic3app17hb92b641e03175334E+0x8a>
   23ed0:	2103      	movs	r1, #3
   23ed2:	4628      	mov	r0, r5
   23ed4:	2800      	cmp	r0, #0
   23ed6:	d008      	beq.n	23eea <_ZN20complex_full_dynamic3app17hb92b641e03175334E+0xa2>
   23ed8:	e016      	b.n	23f08 <_ZN20complex_full_dynamic3app17hb92b641e03175334E+0xc0>
   23eda:	a819      	add	r0, sp, #100	@ 0x64
   23edc:	7206      	strb	r6, [r0, #8]
   23ede:	941a      	str	r4, [sp, #104]	@ 0x68
   23ee0:	4816      	ldr	r0, [pc, #88]	@ (23f3c <_ZN20complex_full_dynamic3app17hb92b641e03175334E+0xf4>)
   23ee2:	9019      	str	r0, [sp, #100]	@ 0x64
   23ee4:	2000      	movs	r0, #0
   23ee6:	2800      	cmp	r0, #0
   23ee8:	d10e      	bne.n	23f08 <_ZN20complex_full_dynamic3app17hb92b641e03175334E+0xc0>
   23eea:	4814      	ldr	r0, [pc, #80]	@ (23f3c <_ZN20complex_full_dynamic3app17hb92b641e03175334E+0xf4>)
   23eec:	2105      	movs	r1, #5
   23eee:	2207      	movs	r2, #7
   23ef0:	2400      	movs	r4, #0
   23ef2:	4623      	mov	r3, r4
   23ef4:	df02      	svc	2
   23ef6:	287f      	cmp	r0, #127	@ 0x7f
   23ef8:	d906      	bls.n	23f08 <_ZN20complex_full_dynamic3app17hb92b641e03175334E+0xc0>
   23efa:	a807      	add	r0, sp, #28
   23efc:	f005 f92c 	bl	29158 <_ZN9allow_pin12full_dynamic17unshare_if_shared17hc49b4b2653f8b2c9E>
   23f00:	a819      	add	r0, sp, #100	@ 0x64
   23f02:	f005 f929 	bl	29158 <_ZN9allow_pin12full_dynamic17unshare_if_shared17hc49b4b2653f8b2c9E>
   23f06:	4625      	mov	r5, r4
   23f08:	2d00      	cmp	r5, #0
   23f0a:	d003      	beq.n	23f14 <_ZN20complex_full_dynamic3app17hb92b641e03175334E+0xcc>
   23f0c:	9c06      	ldr	r4, [sp, #24]
   23f0e:	6061      	str	r1, [r4, #4]
   23f10:	2001      	movs	r0, #1
   23f12:	e009      	b.n	23f28 <_ZN20complex_full_dynamic3app17hb92b641e03175334E+0xe0>
   23f14:	a819      	add	r0, sp, #100	@ 0x64
   23f16:	f005 f91f 	bl	29158 <_ZN9allow_pin12full_dynamic17unshare_if_shared17hc49b4b2653f8b2c9E>
   23f1a:	9c06      	ldr	r4, [sp, #24]
   23f1c:	1c60      	adds	r0, r4, #1
   23f1e:	222c      	movs	r2, #44	@ 0x2c
   23f20:	9904      	ldr	r1, [sp, #16]
   23f22:	f005 faf2 	bl	2950a <__aeabi_memcpy>
   23f26:	2000      	movs	r0, #0
   23f28:	7020      	strb	r0, [r4, #0]
   23f2a:	a819      	add	r0, sp, #100	@ 0x64
   23f2c:	f005 f914 	bl	29158 <_ZN9allow_pin12full_dynamic17unshare_if_shared17hc49b4b2653f8b2c9E>
   23f30:	a807      	add	r0, sp, #28
   23f32:	f005 f911 	bl	29158 <_ZN9allow_pin12full_dynamic17unshare_if_shared17hc49b4b2653f8b2c9E>
   23f36:	b02b      	add	sp, #172	@ 0xac
   23f38:	bdf0      	pop	{r4, r5, r6, r7, pc}
   23f3a:	46c0      	nop			@ (mov r8, r8)
   23f3c:	00001eac 	.word	0x00001eac

00023f40 <_ZN20complex_full_dynamic3app17hbc332013b7d6c7b6E>:
   23f40:	b5f0      	push	{r4, r5, r6, r7, lr}
   23f42:	af03      	add	r7, sp, #12
   23f44:	b0a1      	sub	sp, #132	@ 0x84
   23f46:	9005      	str	r0, [sp, #20]
   23f48:	ae06      	add	r6, sp, #24
   23f4a:	2002      	movs	r0, #2
   23f4c:	9004      	str	r0, [sp, #16]
   23f4e:	7230      	strb	r0, [r6, #8]
   23f50:	360c      	adds	r6, #12
   23f52:	251e      	movs	r5, #30
   23f54:	4630      	mov	r0, r6
   23f56:	462a      	mov	r2, r5
   23f58:	f005 fad7 	bl	2950a <__aeabi_memcpy>
   23f5c:	ac11      	add	r4, sp, #68	@ 0x44
   23f5e:	4620      	mov	r0, r4
   23f60:	300c      	adds	r0, #12
   23f62:	2121      	movs	r1, #33	@ 0x21
   23f64:	9003      	str	r0, [sp, #12]
   23f66:	9102      	str	r1, [sp, #8]
   23f68:	f005 f922 	bl	291b0 <__aeabi_memclr4>
   23f6c:	9804      	ldr	r0, [sp, #16]
   23f6e:	7220      	strb	r0, [r4, #8]
   23f70:	2404      	movs	r4, #4
   23f72:	9500      	str	r5, [sp, #0]
   23f74:	9401      	str	r4, [sp, #4]
   23f76:	a81d      	add	r0, sp, #116	@ 0x74
   23f78:	492e      	ldr	r1, [pc, #184]	@ (24034 <_ZN20complex_full_dynamic3app17hbc332013b7d6c7b6E+0xf4>)
   23f7a:	2506      	movs	r5, #6
   23f7c:	462a      	mov	r2, r5
   23f7e:	4633      	mov	r3, r6
   23f80:	f005 f8fe 	bl	29180 <_ZN9allow_pin13dynamic_allow17h8bfd3764c146b81aE>
   23f84:	981d      	ldr	r0, [sp, #116]	@ 0x74
   23f86:	2802      	cmp	r0, #2
   23f88:	d102      	bne.n	23f90 <_ZN20complex_full_dynamic3app17hbc332013b7d6c7b6E+0x50>
   23f8a:	991e      	ldr	r1, [sp, #120]	@ 0x78
   23f8c:	4a29      	ldr	r2, [pc, #164]	@ (24034 <_ZN20complex_full_dynamic3app17hbc332013b7d6c7b6E+0xf4>)
   23f8e:	e004      	b.n	23f9a <_ZN20complex_full_dynamic3app17hbc332013b7d6c7b6E+0x5a>
   23f90:	a906      	add	r1, sp, #24
   23f92:	720c      	strb	r4, [r1, #8]
   23f94:	9507      	str	r5, [sp, #28]
   23f96:	4a27      	ldr	r2, [pc, #156]	@ (24034 <_ZN20complex_full_dynamic3app17hbc332013b7d6c7b6E+0xf4>)
   23f98:	9206      	str	r2, [sp, #24]
   23f9a:	2501      	movs	r5, #1
   23f9c:	2802      	cmp	r0, #2
   23f9e:	d02f      	beq.n	24000 <_ZN20complex_full_dynamic3app17hbc332013b7d6c7b6E+0xc0>
   23fa0:	a811      	add	r0, sp, #68	@ 0x44
   23fa2:	7a00      	ldrb	r0, [r0, #8]
   23fa4:	2802      	cmp	r0, #2
   23fa6:	d10f      	bne.n	23fc8 <_ZN20complex_full_dynamic3app17hbc332013b7d6c7b6E+0x88>
   23fa8:	2603      	movs	r6, #3
   23faa:	9802      	ldr	r0, [sp, #8]
   23fac:	9000      	str	r0, [sp, #0]
   23fae:	9601      	str	r6, [sp, #4]
   23fb0:	a81d      	add	r0, sp, #116	@ 0x74
   23fb2:	2409      	movs	r4, #9
   23fb4:	4611      	mov	r1, r2
   23fb6:	4622      	mov	r2, r4
   23fb8:	9b03      	ldr	r3, [sp, #12]
   23fba:	f005 f8e1 	bl	29180 <_ZN9allow_pin13dynamic_allow17h8bfd3764c146b81aE>
   23fbe:	981d      	ldr	r0, [sp, #116]	@ 0x74
   23fc0:	2802      	cmp	r0, #2
   23fc2:	d106      	bne.n	23fd2 <_ZN20complex_full_dynamic3app17hbc332013b7d6c7b6E+0x92>
   23fc4:	991e      	ldr	r1, [sp, #120]	@ 0x78
   23fc6:	e000      	b.n	23fca <_ZN20complex_full_dynamic3app17hbc332013b7d6c7b6E+0x8a>
   23fc8:	2103      	movs	r1, #3
   23fca:	4628      	mov	r0, r5
   23fcc:	2800      	cmp	r0, #0
   23fce:	d008      	beq.n	23fe2 <_ZN20complex_full_dynamic3app17hbc332013b7d6c7b6E+0xa2>
   23fd0:	e016      	b.n	24000 <_ZN20complex_full_dynamic3app17hbc332013b7d6c7b6E+0xc0>
   23fd2:	a811      	add	r0, sp, #68	@ 0x44
   23fd4:	7206      	strb	r6, [r0, #8]
   23fd6:	9412      	str	r4, [sp, #72]	@ 0x48
   23fd8:	4816      	ldr	r0, [pc, #88]	@ (24034 <_ZN20complex_full_dynamic3app17hbc332013b7d6c7b6E+0xf4>)
   23fda:	9011      	str	r0, [sp, #68]	@ 0x44
   23fdc:	2000      	movs	r0, #0
   23fde:	2800      	cmp	r0, #0
   23fe0:	d10e      	bne.n	24000 <_ZN20complex_full_dynamic3app17hbc332013b7d6c7b6E+0xc0>
   23fe2:	4814      	ldr	r0, [pc, #80]	@ (24034 <_ZN20complex_full_dynamic3app17hbc332013b7d6c7b6E+0xf4>)
   23fe4:	2106      	movs	r1, #6
   23fe6:	2209      	movs	r2, #9
   23fe8:	2400      	movs	r4, #0
   23fea:	4623      	mov	r3, r4
   23fec:	df02      	svc	2
   23fee:	287f      	cmp	r0, #127	@ 0x7f
   23ff0:	d906      	bls.n	24000 <_ZN20complex_full_dynamic3app17hbc332013b7d6c7b6E+0xc0>
   23ff2:	a806      	add	r0, sp, #24
   23ff4:	f005 f8b0 	bl	29158 <_ZN9allow_pin12full_dynamic17unshare_if_shared17hc49b4b2653f8b2c9E>
   23ff8:	a811      	add	r0, sp, #68	@ 0x44
   23ffa:	f005 f8ad 	bl	29158 <_ZN9allow_pin12full_dynamic17unshare_if_shared17hc49b4b2653f8b2c9E>
   23ffe:	4625      	mov	r5, r4
   24000:	2d00      	cmp	r5, #0
   24002:	d003      	beq.n	2400c <_ZN20complex_full_dynamic3app17hbc332013b7d6c7b6E+0xcc>
   24004:	9c05      	ldr	r4, [sp, #20]
   24006:	6061      	str	r1, [r4, #4]
   24008:	2001      	movs	r0, #1
   2400a:	e009      	b.n	24020 <_ZN20complex_full_dynamic3app17hbc332013b7d6c7b6E+0xe0>
   2400c:	a811      	add	r0, sp, #68	@ 0x44
   2400e:	f005 f8a3 	bl	29158 <_ZN9allow_pin12full_dynamic17unshare_if_shared17hc49b4b2653f8b2c9E>
   24012:	9c05      	ldr	r4, [sp, #20]
   24014:	1c60      	adds	r0, r4, #1
   24016:	2221      	movs	r2, #33	@ 0x21
   24018:	9903      	ldr	r1, [sp, #12]
   2401a:	f005 fa76 	bl	2950a <__aeabi_memcpy>
   2401e:	2000      	movs	r0, #0
   24020:	7020      	strb	r0, [r4, #0]
   24022:	a811      	add	r0, sp, #68	@ 0x44
   24024:	f005 f898 	bl	29158 <_ZN9allow_pin12full_dynamic17unshare_if_shared17hc49b4b2653f8b2c9E>
   24028:	a806      	add	r0, sp, #24
   2402a:	f005 f895 	bl	29158 <_ZN9allow_pin12full_dynamic17unshare_if_shared17hc49b4b2653f8b2c9E>
   2402e:	b021      	add	sp, #132	@ 0x84
   24030:	bdf0      	pop	{r4, r5, r6, r7, pc}
   24032:	46c0      	nop			@ (mov r8, r8)
   24034:	000019b5 	.word	0x000019b5

00024038 <_ZN20complex_full_dynamic3app17hbc67d7eb9ac54d38E>:
   24038:	b5f0      	push	{r4, r5, r6, r7, lr}
   2403a:	af03      	add	r7, sp, #12
   2403c:	b09d      	sub	sp, #116	@ 0x74
   2403e:	9005      	str	r0, [sp, #20]
   24040:	ae06      	add	r6, sp, #24
   24042:	2002      	movs	r0, #2
   24044:	9004      	str	r0, [sp, #16]
   24046:	7230      	strb	r0, [r6, #8]
   24048:	360c      	adds	r6, #12
   2404a:	250d      	movs	r5, #13
   2404c:	4630      	mov	r0, r6
   2404e:	462a      	mov	r2, r5
   24050:	f005 fa5b 	bl	2950a <__aeabi_memcpy>
   24054:	ac0d      	add	r4, sp, #52	@ 0x34
   24056:	4620      	mov	r0, r4
   24058:	300c      	adds	r0, #12
   2405a:	2121      	movs	r1, #33	@ 0x21
   2405c:	9003      	str	r0, [sp, #12]
   2405e:	9102      	str	r1, [sp, #8]
   24060:	f005 f8a6 	bl	291b0 <__aeabi_memclr4>
   24064:	9804      	ldr	r0, [sp, #16]
   24066:	7220      	strb	r0, [r4, #8]
   24068:	2404      	movs	r4, #4
   2406a:	9500      	str	r5, [sp, #0]
   2406c:	9401      	str	r4, [sp, #4]
   2406e:	a819      	add	r0, sp, #100	@ 0x64
   24070:	492e      	ldr	r1, [pc, #184]	@ (2412c <_ZN20complex_full_dynamic3app17hbc67d7eb9ac54d38E+0xf4>)
   24072:	2500      	movs	r5, #0
   24074:	462a      	mov	r2, r5
   24076:	4633      	mov	r3, r6
   24078:	f005 f882 	bl	29180 <_ZN9allow_pin13dynamic_allow17h8bfd3764c146b81aE>
   2407c:	9819      	ldr	r0, [sp, #100]	@ 0x64
   2407e:	2802      	cmp	r0, #2
   24080:	9504      	str	r5, [sp, #16]
   24082:	d102      	bne.n	2408a <_ZN20complex_full_dynamic3app17hbc67d7eb9ac54d38E+0x52>
   24084:	991a      	ldr	r1, [sp, #104]	@ 0x68
   24086:	4a29      	ldr	r2, [pc, #164]	@ (2412c <_ZN20complex_full_dynamic3app17hbc67d7eb9ac54d38E+0xf4>)
   24088:	e004      	b.n	24094 <_ZN20complex_full_dynamic3app17hbc67d7eb9ac54d38E+0x5c>
   2408a:	a906      	add	r1, sp, #24
   2408c:	720c      	strb	r4, [r1, #8]
   2408e:	9507      	str	r5, [sp, #28]
   24090:	4a26      	ldr	r2, [pc, #152]	@ (2412c <_ZN20complex_full_dynamic3app17hbc67d7eb9ac54d38E+0xf4>)
   24092:	9206      	str	r2, [sp, #24]
   24094:	2501      	movs	r5, #1
   24096:	2802      	cmp	r0, #2
   24098:	d02e      	beq.n	240f8 <_ZN20complex_full_dynamic3app17hbc67d7eb9ac54d38E+0xc0>
   2409a:	a80d      	add	r0, sp, #52	@ 0x34
   2409c:	7a00      	ldrb	r0, [r0, #8]
   2409e:	2802      	cmp	r0, #2
   240a0:	d10f      	bne.n	240c2 <_ZN20complex_full_dynamic3app17hbc67d7eb9ac54d38E+0x8a>
   240a2:	2603      	movs	r6, #3
   240a4:	9802      	ldr	r0, [sp, #8]
   240a6:	9000      	str	r0, [sp, #0]
   240a8:	9601      	str	r6, [sp, #4]
   240aa:	a819      	add	r0, sp, #100	@ 0x64
   240ac:	2400      	movs	r4, #0
   240ae:	4611      	mov	r1, r2
   240b0:	4622      	mov	r2, r4
   240b2:	9b03      	ldr	r3, [sp, #12]
   240b4:	f005 f864 	bl	29180 <_ZN9allow_pin13dynamic_allow17h8bfd3764c146b81aE>
   240b8:	9819      	ldr	r0, [sp, #100]	@ 0x64
   240ba:	2802      	cmp	r0, #2
   240bc:	d106      	bne.n	240cc <_ZN20complex_full_dynamic3app17hbc67d7eb9ac54d38E+0x94>
   240be:	991a      	ldr	r1, [sp, #104]	@ 0x68
   240c0:	e000      	b.n	240c4 <_ZN20complex_full_dynamic3app17hbc67d7eb9ac54d38E+0x8c>
   240c2:	2103      	movs	r1, #3
   240c4:	462c      	mov	r4, r5
   240c6:	2c00      	cmp	r4, #0
   240c8:	d007      	beq.n	240da <_ZN20complex_full_dynamic3app17hbc67d7eb9ac54d38E+0xa2>
   240ca:	e015      	b.n	240f8 <_ZN20complex_full_dynamic3app17hbc67d7eb9ac54d38E+0xc0>
   240cc:	a80d      	add	r0, sp, #52	@ 0x34
   240ce:	7206      	strb	r6, [r0, #8]
   240d0:	940e      	str	r4, [sp, #56]	@ 0x38
   240d2:	4816      	ldr	r0, [pc, #88]	@ (2412c <_ZN20complex_full_dynamic3app17hbc67d7eb9ac54d38E+0xf4>)
   240d4:	900d      	str	r0, [sp, #52]	@ 0x34
   240d6:	2c00      	cmp	r4, #0
   240d8:	d10e      	bne.n	240f8 <_ZN20complex_full_dynamic3app17hbc67d7eb9ac54d38E+0xc0>
   240da:	4814      	ldr	r0, [pc, #80]	@ (2412c <_ZN20complex_full_dynamic3app17hbc67d7eb9ac54d38E+0xf4>)
   240dc:	2400      	movs	r4, #0
   240de:	4621      	mov	r1, r4
   240e0:	4622      	mov	r2, r4
   240e2:	4623      	mov	r3, r4
   240e4:	df02      	svc	2
   240e6:	287f      	cmp	r0, #127	@ 0x7f
   240e8:	d906      	bls.n	240f8 <_ZN20complex_full_dynamic3app17hbc67d7eb9ac54d38E+0xc0>
   240ea:	a806      	add	r0, sp, #24
   240ec:	f005 f834 	bl	29158 <_ZN9allow_pin12full_dynamic17unshare_if_shared17hc49b4b2653f8b2c9E>
   240f0:	a80d      	add	r0, sp, #52	@ 0x34
   240f2:	f005 f831 	bl	29158 <_ZN9allow_pin12full_dynamic17unshare_if_shared17hc49b4b2653f8b2c9E>
   240f6:	4625      	mov	r5, r4
   240f8:	2d00      	cmp	r5, #0
   240fa:	d003      	beq.n	24104 <_ZN20complex_full_dynamic3app17hbc67d7eb9ac54d38E+0xcc>
   240fc:	9c05      	ldr	r4, [sp, #20]
   240fe:	6061      	str	r1, [r4, #4]
   24100:	2001      	movs	r0, #1
   24102:	e009      	b.n	24118 <_ZN20complex_full_dynamic3app17hbc67d7eb9ac54d38E+0xe0>
   24104:	a80d      	add	r0, sp, #52	@ 0x34
   24106:	f005 f827 	bl	29158 <_ZN9allow_pin12full_dynamic17unshare_if_shared17hc49b4b2653f8b2c9E>
   2410a:	9c05      	ldr	r4, [sp, #20]
   2410c:	1c60      	adds	r0, r4, #1
   2410e:	2221      	movs	r2, #33	@ 0x21
   24110:	9903      	ldr	r1, [sp, #12]
   24112:	f005 f9fa 	bl	2950a <__aeabi_memcpy>
   24116:	9804      	ldr	r0, [sp, #16]
   24118:	7020      	strb	r0, [r4, #0]
   2411a:	a80d      	add	r0, sp, #52	@ 0x34
   2411c:	f005 f81c 	bl	29158 <_ZN9allow_pin12full_dynamic17unshare_if_shared17hc49b4b2653f8b2c9E>
   24120:	a806      	add	r0, sp, #24
   24122:	f005 f819 	bl	29158 <_ZN9allow_pin12full_dynamic17unshare_if_shared17hc49b4b2653f8b2c9E>
   24126:	b01d      	add	sp, #116	@ 0x74
   24128:	bdf0      	pop	{r4, r5, r6, r7, pc}
   2412a:	46c0      	nop			@ (mov r8, r8)
   2412c:	000016b0 	.word	0x000016b0

00024130 <_ZN20complex_full_dynamic3app17hbd58873756860c95E>:
   24130:	b5f0      	push	{r4, r5, r6, r7, lr}
   24132:	af03      	add	r7, sp, #12
   24134:	b0b9      	sub	sp, #228	@ 0xe4
   24136:	9005      	str	r0, [sp, #20]
   24138:	ae06      	add	r6, sp, #24
   2413a:	2002      	movs	r0, #2
   2413c:	9004      	str	r0, [sp, #16]
   2413e:	7230      	strb	r0, [r6, #8]
   24140:	360c      	adds	r6, #12
   24142:	2556      	movs	r5, #86	@ 0x56
   24144:	4630      	mov	r0, r6
   24146:	462a      	mov	r2, r5
   24148:	f005 f9df 	bl	2950a <__aeabi_memcpy>
   2414c:	ac1f      	add	r4, sp, #124	@ 0x7c
   2414e:	4620      	mov	r0, r4
   24150:	300c      	adds	r0, #12
   24152:	2149      	movs	r1, #73	@ 0x49
   24154:	9003      	str	r0, [sp, #12]
   24156:	9102      	str	r1, [sp, #8]
   24158:	f005 f82a 	bl	291b0 <__aeabi_memclr4>
   2415c:	9804      	ldr	r0, [sp, #16]
   2415e:	7220      	strb	r0, [r4, #8]
   24160:	2404      	movs	r4, #4
   24162:	9500      	str	r5, [sp, #0]
   24164:	9401      	str	r4, [sp, #4]
   24166:	a835      	add	r0, sp, #212	@ 0xd4
   24168:	492e      	ldr	r1, [pc, #184]	@ (24224 <_ZN20complex_full_dynamic3app17hbd58873756860c95E+0xf4>)
   2416a:	2506      	movs	r5, #6
   2416c:	462a      	mov	r2, r5
   2416e:	4633      	mov	r3, r6
   24170:	f005 f806 	bl	29180 <_ZN9allow_pin13dynamic_allow17h8bfd3764c146b81aE>
   24174:	9835      	ldr	r0, [sp, #212]	@ 0xd4
   24176:	2802      	cmp	r0, #2
   24178:	d102      	bne.n	24180 <_ZN20complex_full_dynamic3app17hbd58873756860c95E+0x50>
   2417a:	9936      	ldr	r1, [sp, #216]	@ 0xd8
   2417c:	4a29      	ldr	r2, [pc, #164]	@ (24224 <_ZN20complex_full_dynamic3app17hbd58873756860c95E+0xf4>)
   2417e:	e004      	b.n	2418a <_ZN20complex_full_dynamic3app17hbd58873756860c95E+0x5a>
   24180:	a906      	add	r1, sp, #24
   24182:	720c      	strb	r4, [r1, #8]
   24184:	9507      	str	r5, [sp, #28]
   24186:	4a27      	ldr	r2, [pc, #156]	@ (24224 <_ZN20complex_full_dynamic3app17hbd58873756860c95E+0xf4>)
   24188:	9206      	str	r2, [sp, #24]
   2418a:	2501      	movs	r5, #1
   2418c:	2802      	cmp	r0, #2
   2418e:	d02f      	beq.n	241f0 <_ZN20complex_full_dynamic3app17hbd58873756860c95E+0xc0>
   24190:	a81f      	add	r0, sp, #124	@ 0x7c
   24192:	7a00      	ldrb	r0, [r0, #8]
   24194:	2802      	cmp	r0, #2
   24196:	d10f      	bne.n	241b8 <_ZN20complex_full_dynamic3app17hbd58873756860c95E+0x88>
   24198:	2603      	movs	r6, #3
   2419a:	9802      	ldr	r0, [sp, #8]
   2419c:	9000      	str	r0, [sp, #0]
   2419e:	9601      	str	r6, [sp, #4]
   241a0:	a835      	add	r0, sp, #212	@ 0xd4
   241a2:	2406      	movs	r4, #6
   241a4:	4611      	mov	r1, r2
   241a6:	4622      	mov	r2, r4
   241a8:	9b03      	ldr	r3, [sp, #12]
   241aa:	f004 ffe9 	bl	29180 <_ZN9allow_pin13dynamic_allow17h8bfd3764c146b81aE>
   241ae:	9835      	ldr	r0, [sp, #212]	@ 0xd4
   241b0:	2802      	cmp	r0, #2
   241b2:	d106      	bne.n	241c2 <_ZN20complex_full_dynamic3app17hbd58873756860c95E+0x92>
   241b4:	9936      	ldr	r1, [sp, #216]	@ 0xd8
   241b6:	e000      	b.n	241ba <_ZN20complex_full_dynamic3app17hbd58873756860c95E+0x8a>
   241b8:	2103      	movs	r1, #3
   241ba:	4628      	mov	r0, r5
   241bc:	2800      	cmp	r0, #0
   241be:	d008      	beq.n	241d2 <_ZN20complex_full_dynamic3app17hbd58873756860c95E+0xa2>
   241c0:	e016      	b.n	241f0 <_ZN20complex_full_dynamic3app17hbd58873756860c95E+0xc0>
   241c2:	a81f      	add	r0, sp, #124	@ 0x7c
   241c4:	7206      	strb	r6, [r0, #8]
   241c6:	9420      	str	r4, [sp, #128]	@ 0x80
   241c8:	4816      	ldr	r0, [pc, #88]	@ (24224 <_ZN20complex_full_dynamic3app17hbd58873756860c95E+0xf4>)
   241ca:	901f      	str	r0, [sp, #124]	@ 0x7c
   241cc:	2000      	movs	r0, #0
   241ce:	2800      	cmp	r0, #0
   241d0:	d10e      	bne.n	241f0 <_ZN20complex_full_dynamic3app17hbd58873756860c95E+0xc0>
   241d2:	4814      	ldr	r0, [pc, #80]	@ (24224 <_ZN20complex_full_dynamic3app17hbd58873756860c95E+0xf4>)
   241d4:	2106      	movs	r1, #6
   241d6:	2400      	movs	r4, #0
   241d8:	460a      	mov	r2, r1
   241da:	4623      	mov	r3, r4
   241dc:	df02      	svc	2
   241de:	287f      	cmp	r0, #127	@ 0x7f
   241e0:	d906      	bls.n	241f0 <_ZN20complex_full_dynamic3app17hbd58873756860c95E+0xc0>
   241e2:	a806      	add	r0, sp, #24
   241e4:	f004 ffb8 	bl	29158 <_ZN9allow_pin12full_dynamic17unshare_if_shared17hc49b4b2653f8b2c9E>
   241e8:	a81f      	add	r0, sp, #124	@ 0x7c
   241ea:	f004 ffb5 	bl	29158 <_ZN9allow_pin12full_dynamic17unshare_if_shared17hc49b4b2653f8b2c9E>
   241ee:	4625      	mov	r5, r4
   241f0:	2d00      	cmp	r5, #0
   241f2:	d003      	beq.n	241fc <_ZN20complex_full_dynamic3app17hbd58873756860c95E+0xcc>
   241f4:	9c05      	ldr	r4, [sp, #20]
   241f6:	6061      	str	r1, [r4, #4]
   241f8:	2001      	movs	r0, #1
   241fa:	e009      	b.n	24210 <_ZN20complex_full_dynamic3app17hbd58873756860c95E+0xe0>
   241fc:	a81f      	add	r0, sp, #124	@ 0x7c
   241fe:	f004 ffab 	bl	29158 <_ZN9allow_pin12full_dynamic17unshare_if_shared17hc49b4b2653f8b2c9E>
   24202:	9c05      	ldr	r4, [sp, #20]
   24204:	1c60      	adds	r0, r4, #1
   24206:	2249      	movs	r2, #73	@ 0x49
   24208:	9903      	ldr	r1, [sp, #12]
   2420a:	f005 f97e 	bl	2950a <__aeabi_memcpy>
   2420e:	2000      	movs	r0, #0
   24210:	7020      	strb	r0, [r4, #0]
   24212:	a81f      	add	r0, sp, #124	@ 0x7c
   24214:	f004 ffa0 	bl	29158 <_ZN9allow_pin12full_dynamic17unshare_if_shared17hc49b4b2653f8b2c9E>
   24218:	a806      	add	r0, sp, #24
   2421a:	f004 ff9d 	bl	29158 <_ZN9allow_pin12full_dynamic17unshare_if_shared17hc49b4b2653f8b2c9E>
   2421e:	b039      	add	sp, #228	@ 0xe4
   24220:	bdf0      	pop	{r4, r5, r6, r7, pc}
   24222:	46c0      	nop			@ (mov r8, r8)
   24224:	00001c6b 	.word	0x00001c6b

00024228 <_ZN20complex_full_dynamic3app17hbfc6a280cdea6330E>:
   24228:	b5f0      	push	{r4, r5, r6, r7, lr}
   2422a:	af03      	add	r7, sp, #12
   2422c:	b0b5      	sub	sp, #212	@ 0xd4
   2422e:	9006      	str	r0, [sp, #24]
   24230:	ae07      	add	r6, sp, #28
   24232:	2002      	movs	r0, #2
   24234:	9005      	str	r0, [sp, #20]
   24236:	7230      	strb	r0, [r6, #8]
   24238:	360c      	adds	r6, #12
   2423a:	252f      	movs	r5, #47	@ 0x2f
   2423c:	4630      	mov	r0, r6
   2423e:	462a      	mov	r2, r5
   24240:	f005 f963 	bl	2950a <__aeabi_memcpy>
   24244:	ac16      	add	r4, sp, #88	@ 0x58
   24246:	4620      	mov	r0, r4
   24248:	300c      	adds	r0, #12
   2424a:	215e      	movs	r1, #94	@ 0x5e
   2424c:	9004      	str	r0, [sp, #16]
   2424e:	9103      	str	r1, [sp, #12]
   24250:	f004 ffae 	bl	291b0 <__aeabi_memclr4>
   24254:	9805      	ldr	r0, [sp, #20]
   24256:	7220      	strb	r0, [r4, #8]
   24258:	2404      	movs	r4, #4
   2425a:	9500      	str	r5, [sp, #0]
   2425c:	9401      	str	r4, [sp, #4]
   2425e:	a831      	add	r0, sp, #196	@ 0xc4
   24260:	492e      	ldr	r1, [pc, #184]	@ (2431c <_ZN20complex_full_dynamic3app17hbfc6a280cdea6330E+0xf4>)
   24262:	2505      	movs	r5, #5
   24264:	462a      	mov	r2, r5
   24266:	4633      	mov	r3, r6
   24268:	f004 ff8a 	bl	29180 <_ZN9allow_pin13dynamic_allow17h8bfd3764c146b81aE>
   2426c:	9831      	ldr	r0, [sp, #196]	@ 0xc4
   2426e:	2802      	cmp	r0, #2
   24270:	d102      	bne.n	24278 <_ZN20complex_full_dynamic3app17hbfc6a280cdea6330E+0x50>
   24272:	9932      	ldr	r1, [sp, #200]	@ 0xc8
   24274:	4a29      	ldr	r2, [pc, #164]	@ (2431c <_ZN20complex_full_dynamic3app17hbfc6a280cdea6330E+0xf4>)
   24276:	e004      	b.n	24282 <_ZN20complex_full_dynamic3app17hbfc6a280cdea6330E+0x5a>
   24278:	a907      	add	r1, sp, #28
   2427a:	720c      	strb	r4, [r1, #8]
   2427c:	9508      	str	r5, [sp, #32]
   2427e:	4a27      	ldr	r2, [pc, #156]	@ (2431c <_ZN20complex_full_dynamic3app17hbfc6a280cdea6330E+0xf4>)
   24280:	9207      	str	r2, [sp, #28]
   24282:	2501      	movs	r5, #1
   24284:	2802      	cmp	r0, #2
   24286:	d02f      	beq.n	242e8 <_ZN20complex_full_dynamic3app17hbfc6a280cdea6330E+0xc0>
   24288:	a816      	add	r0, sp, #88	@ 0x58
   2428a:	7a00      	ldrb	r0, [r0, #8]
   2428c:	2802      	cmp	r0, #2
   2428e:	d10f      	bne.n	242b0 <_ZN20complex_full_dynamic3app17hbfc6a280cdea6330E+0x88>
   24290:	2603      	movs	r6, #3
   24292:	9803      	ldr	r0, [sp, #12]
   24294:	9000      	str	r0, [sp, #0]
   24296:	9601      	str	r6, [sp, #4]
   24298:	a831      	add	r0, sp, #196	@ 0xc4
   2429a:	2402      	movs	r4, #2
   2429c:	4611      	mov	r1, r2
   2429e:	4622      	mov	r2, r4
   242a0:	9b04      	ldr	r3, [sp, #16]
   242a2:	f004 ff6d 	bl	29180 <_ZN9allow_pin13dynamic_allow17h8bfd3764c146b81aE>
   242a6:	9831      	ldr	r0, [sp, #196]	@ 0xc4
   242a8:	2802      	cmp	r0, #2
   242aa:	d106      	bne.n	242ba <_ZN20complex_full_dynamic3app17hbfc6a280cdea6330E+0x92>
   242ac:	9932      	ldr	r1, [sp, #200]	@ 0xc8
   242ae:	e000      	b.n	242b2 <_ZN20complex_full_dynamic3app17hbfc6a280cdea6330E+0x8a>
   242b0:	2103      	movs	r1, #3
   242b2:	4628      	mov	r0, r5
   242b4:	2800      	cmp	r0, #0
   242b6:	d008      	beq.n	242ca <_ZN20complex_full_dynamic3app17hbfc6a280cdea6330E+0xa2>
   242b8:	e016      	b.n	242e8 <_ZN20complex_full_dynamic3app17hbfc6a280cdea6330E+0xc0>
   242ba:	a816      	add	r0, sp, #88	@ 0x58
   242bc:	7206      	strb	r6, [r0, #8]
   242be:	9417      	str	r4, [sp, #92]	@ 0x5c
   242c0:	4816      	ldr	r0, [pc, #88]	@ (2431c <_ZN20complex_full_dynamic3app17hbfc6a280cdea6330E+0xf4>)
   242c2:	9016      	str	r0, [sp, #88]	@ 0x58
   242c4:	2000      	movs	r0, #0
   242c6:	2800      	cmp	r0, #0
   242c8:	d10e      	bne.n	242e8 <_ZN20complex_full_dynamic3app17hbfc6a280cdea6330E+0xc0>
   242ca:	4814      	ldr	r0, [pc, #80]	@ (2431c <_ZN20complex_full_dynamic3app17hbfc6a280cdea6330E+0xf4>)
   242cc:	2105      	movs	r1, #5
   242ce:	2202      	movs	r2, #2
   242d0:	2400      	movs	r4, #0
   242d2:	4623      	mov	r3, r4
   242d4:	df02      	svc	2
   242d6:	287f      	cmp	r0, #127	@ 0x7f
   242d8:	d906      	bls.n	242e8 <_ZN20complex_full_dynamic3app17hbfc6a280cdea6330E+0xc0>
   242da:	a807      	add	r0, sp, #28
   242dc:	f004 ff3c 	bl	29158 <_ZN9allow_pin12full_dynamic17unshare_if_shared17hc49b4b2653f8b2c9E>
   242e0:	a816      	add	r0, sp, #88	@ 0x58
   242e2:	f004 ff39 	bl	29158 <_ZN9allow_pin12full_dynamic17unshare_if_shared17hc49b4b2653f8b2c9E>
   242e6:	4625      	mov	r5, r4
   242e8:	2d00      	cmp	r5, #0
   242ea:	d003      	beq.n	242f4 <_ZN20complex_full_dynamic3app17hbfc6a280cdea6330E+0xcc>
   242ec:	9c06      	ldr	r4, [sp, #24]
   242ee:	6061      	str	r1, [r4, #4]
   242f0:	2001      	movs	r0, #1
   242f2:	e009      	b.n	24308 <_ZN20complex_full_dynamic3app17hbfc6a280cdea6330E+0xe0>
   242f4:	a816      	add	r0, sp, #88	@ 0x58
   242f6:	f004 ff2f 	bl	29158 <_ZN9allow_pin12full_dynamic17unshare_if_shared17hc49b4b2653f8b2c9E>
   242fa:	9c06      	ldr	r4, [sp, #24]
   242fc:	1c60      	adds	r0, r4, #1
   242fe:	225e      	movs	r2, #94	@ 0x5e
   24300:	9904      	ldr	r1, [sp, #16]
   24302:	f005 f902 	bl	2950a <__aeabi_memcpy>
   24306:	2000      	movs	r0, #0
   24308:	7020      	strb	r0, [r4, #0]
   2430a:	a816      	add	r0, sp, #88	@ 0x58
   2430c:	f004 ff24 	bl	29158 <_ZN9allow_pin12full_dynamic17unshare_if_shared17hc49b4b2653f8b2c9E>
   24310:	a807      	add	r0, sp, #28
   24312:	f004 ff21 	bl	29158 <_ZN9allow_pin12full_dynamic17unshare_if_shared17hc49b4b2653f8b2c9E>
   24316:	b035      	add	sp, #212	@ 0xd4
   24318:	bdf0      	pop	{r4, r5, r6, r7, pc}
   2431a:	46c0      	nop			@ (mov r8, r8)
   2431c:	0000022b 	.word	0x0000022b

00024320 <_ZN20complex_full_dynamic3app17hc77bad31d55b54a5E>:
   24320:	b5f0      	push	{r4, r5, r6, r7, lr}
   24322:	af03      	add	r7, sp, #12
   24324:	b0ab      	sub	sp, #172	@ 0xac
   24326:	9006      	str	r0, [sp, #24]
   24328:	ad07      	add	r5, sp, #28
   2432a:	2002      	movs	r0, #2
   2432c:	9005      	str	r0, [sp, #20]
   2432e:	7228      	strb	r0, [r5, #8]
   24330:	350c      	adds	r5, #12
   24332:	2641      	movs	r6, #65	@ 0x41
   24334:	4628      	mov	r0, r5
   24336:	4632      	mov	r2, r6
   24338:	f005 f8e7 	bl	2950a <__aeabi_memcpy>
   2433c:	ac1b      	add	r4, sp, #108	@ 0x6c
   2433e:	4620      	mov	r0, r4
   24340:	300c      	adds	r0, #12
   24342:	2122      	movs	r1, #34	@ 0x22
   24344:	9004      	str	r0, [sp, #16]
   24346:	9103      	str	r1, [sp, #12]
   24348:	f004 ff32 	bl	291b0 <__aeabi_memclr4>
   2434c:	9805      	ldr	r0, [sp, #20]
   2434e:	7220      	strb	r0, [r4, #8]
   24350:	2404      	movs	r4, #4
   24352:	9600      	str	r6, [sp, #0]
   24354:	9401      	str	r4, [sp, #4]
   24356:	a827      	add	r0, sp, #156	@ 0x9c
   24358:	492f      	ldr	r1, [pc, #188]	@ (24418 <_ZN20complex_full_dynamic3app17hc77bad31d55b54a5E+0xf8>)
   2435a:	2601      	movs	r6, #1
   2435c:	4632      	mov	r2, r6
   2435e:	462b      	mov	r3, r5
   24360:	f004 ff0e 	bl	29180 <_ZN9allow_pin13dynamic_allow17h8bfd3764c146b81aE>
   24364:	9827      	ldr	r0, [sp, #156]	@ 0x9c
   24366:	2802      	cmp	r0, #2
   24368:	d104      	bne.n	24374 <_ZN20complex_full_dynamic3app17hc77bad31d55b54a5E+0x54>
   2436a:	9928      	ldr	r1, [sp, #160]	@ 0xa0
   2436c:	4a2a      	ldr	r2, [pc, #168]	@ (24418 <_ZN20complex_full_dynamic3app17hc77bad31d55b54a5E+0xf8>)
   2436e:	2802      	cmp	r0, #2
   24370:	d107      	bne.n	24382 <_ZN20complex_full_dynamic3app17hc77bad31d55b54a5E+0x62>
   24372:	e038      	b.n	243e6 <_ZN20complex_full_dynamic3app17hc77bad31d55b54a5E+0xc6>
   24374:	a907      	add	r1, sp, #28
   24376:	720c      	strb	r4, [r1, #8]
   24378:	9608      	str	r6, [sp, #32]
   2437a:	4a27      	ldr	r2, [pc, #156]	@ (24418 <_ZN20complex_full_dynamic3app17hc77bad31d55b54a5E+0xf8>)
   2437c:	9207      	str	r2, [sp, #28]
   2437e:	2802      	cmp	r0, #2
   24380:	d031      	beq.n	243e6 <_ZN20complex_full_dynamic3app17hc77bad31d55b54a5E+0xc6>
   24382:	a81b      	add	r0, sp, #108	@ 0x6c
   24384:	7a00      	ldrb	r0, [r0, #8]
   24386:	2802      	cmp	r0, #2
   24388:	d112      	bne.n	243b0 <_ZN20complex_full_dynamic3app17hc77bad31d55b54a5E+0x90>
   2438a:	9605      	str	r6, [sp, #20]
   2438c:	2503      	movs	r5, #3
   2438e:	9803      	ldr	r0, [sp, #12]
   24390:	9000      	str	r0, [sp, #0]
   24392:	9501      	str	r5, [sp, #4]
   24394:	a827      	add	r0, sp, #156	@ 0x9c
   24396:	2400      	movs	r4, #0
   24398:	4611      	mov	r1, r2
   2439a:	4616      	mov	r6, r2
   2439c:	4622      	mov	r2, r4
   2439e:	9b04      	ldr	r3, [sp, #16]
   243a0:	f004 feee 	bl	29180 <_ZN9allow_pin13dynamic_allow17h8bfd3764c146b81aE>
   243a4:	9827      	ldr	r0, [sp, #156]	@ 0x9c
   243a6:	2802      	cmp	r0, #2
   243a8:	d107      	bne.n	243ba <_ZN20complex_full_dynamic3app17hc77bad31d55b54a5E+0x9a>
   243aa:	9928      	ldr	r1, [sp, #160]	@ 0xa0
   243ac:	9e05      	ldr	r6, [sp, #20]
   243ae:	e000      	b.n	243b2 <_ZN20complex_full_dynamic3app17hc77bad31d55b54a5E+0x92>
   243b0:	2103      	movs	r1, #3
   243b2:	4634      	mov	r4, r6
   243b4:	2c00      	cmp	r4, #0
   243b6:	d007      	beq.n	243c8 <_ZN20complex_full_dynamic3app17hc77bad31d55b54a5E+0xa8>
   243b8:	e015      	b.n	243e6 <_ZN20complex_full_dynamic3app17hc77bad31d55b54a5E+0xc6>
   243ba:	a81b      	add	r0, sp, #108	@ 0x6c
   243bc:	7205      	strb	r5, [r0, #8]
   243be:	941c      	str	r4, [sp, #112]	@ 0x70
   243c0:	961b      	str	r6, [sp, #108]	@ 0x6c
   243c2:	9e05      	ldr	r6, [sp, #20]
   243c4:	2c00      	cmp	r4, #0
   243c6:	d10e      	bne.n	243e6 <_ZN20complex_full_dynamic3app17hc77bad31d55b54a5E+0xc6>
   243c8:	4813      	ldr	r0, [pc, #76]	@ (24418 <_ZN20complex_full_dynamic3app17hc77bad31d55b54a5E+0xf8>)
   243ca:	2101      	movs	r1, #1
   243cc:	2400      	movs	r4, #0
   243ce:	4622      	mov	r2, r4
   243d0:	4623      	mov	r3, r4
   243d2:	df02      	svc	2
   243d4:	287f      	cmp	r0, #127	@ 0x7f
   243d6:	d906      	bls.n	243e6 <_ZN20complex_full_dynamic3app17hc77bad31d55b54a5E+0xc6>
   243d8:	a807      	add	r0, sp, #28
   243da:	f004 febd 	bl	29158 <_ZN9allow_pin12full_dynamic17unshare_if_shared17hc49b4b2653f8b2c9E>
   243de:	a81b      	add	r0, sp, #108	@ 0x6c
   243e0:	f004 feba 	bl	29158 <_ZN9allow_pin12full_dynamic17unshare_if_shared17hc49b4b2653f8b2c9E>
   243e4:	4626      	mov	r6, r4
   243e6:	2e00      	cmp	r6, #0
   243e8:	d003      	beq.n	243f2 <_ZN20complex_full_dynamic3app17hc77bad31d55b54a5E+0xd2>
   243ea:	9c06      	ldr	r4, [sp, #24]
   243ec:	6061      	str	r1, [r4, #4]
   243ee:	2001      	movs	r0, #1
   243f0:	e009      	b.n	24406 <_ZN20complex_full_dynamic3app17hc77bad31d55b54a5E+0xe6>
   243f2:	a81b      	add	r0, sp, #108	@ 0x6c
   243f4:	f004 feb0 	bl	29158 <_ZN9allow_pin12full_dynamic17unshare_if_shared17hc49b4b2653f8b2c9E>
   243f8:	9c06      	ldr	r4, [sp, #24]
   243fa:	1c60      	adds	r0, r4, #1
   243fc:	2222      	movs	r2, #34	@ 0x22
   243fe:	9904      	ldr	r1, [sp, #16]
   24400:	f005 f883 	bl	2950a <__aeabi_memcpy>
   24404:	2000      	movs	r0, #0
   24406:	7020      	strb	r0, [r4, #0]
   24408:	a81b      	add	r0, sp, #108	@ 0x6c
   2440a:	f004 fea5 	bl	29158 <_ZN9allow_pin12full_dynamic17unshare_if_shared17hc49b4b2653f8b2c9E>
   2440e:	a807      	add	r0, sp, #28
   24410:	f004 fea2 	bl	29158 <_ZN9allow_pin12full_dynamic17unshare_if_shared17hc49b4b2653f8b2c9E>
   24414:	b02b      	add	sp, #172	@ 0xac
   24416:	bdf0      	pop	{r4, r5, r6, r7, pc}
   24418:	0000247c 	.word	0x0000247c

0002441c <_ZN20complex_full_dynamic3app17hc9b6bb7273a5a935E>:
   2441c:	b5f0      	push	{r4, r5, r6, r7, lr}
   2441e:	af03      	add	r7, sp, #12
   24420:	b0ad      	sub	sp, #180	@ 0xb4
   24422:	9006      	str	r0, [sp, #24]
   24424:	ae07      	add	r6, sp, #28
   24426:	2002      	movs	r0, #2
   24428:	9005      	str	r0, [sp, #20]
   2442a:	7230      	strb	r0, [r6, #8]
   2442c:	360c      	adds	r6, #12
   2442e:	253c      	movs	r5, #60	@ 0x3c
   24430:	4630      	mov	r0, r6
   24432:	462a      	mov	r2, r5
   24434:	f005 f869 	bl	2950a <__aeabi_memcpy>
   24438:	ac19      	add	r4, sp, #100	@ 0x64
   2443a:	4620      	mov	r0, r4
   2443c:	300c      	adds	r0, #12
   2443e:	2132      	movs	r1, #50	@ 0x32
   24440:	9004      	str	r0, [sp, #16]
   24442:	9103      	str	r1, [sp, #12]
   24444:	f004 feb4 	bl	291b0 <__aeabi_memclr4>
   24448:	9805      	ldr	r0, [sp, #20]
   2444a:	7220      	strb	r0, [r4, #8]
   2444c:	2404      	movs	r4, #4
   2444e:	9500      	str	r5, [sp, #0]
   24450:	9401      	str	r4, [sp, #4]
   24452:	a829      	add	r0, sp, #164	@ 0xa4
   24454:	492e      	ldr	r1, [pc, #184]	@ (24510 <_ZN20complex_full_dynamic3app17hc9b6bb7273a5a935E+0xf4>)
   24456:	2506      	movs	r5, #6
   24458:	462a      	mov	r2, r5
   2445a:	4633      	mov	r3, r6
   2445c:	f004 fe90 	bl	29180 <_ZN9allow_pin13dynamic_allow17h8bfd3764c146b81aE>
   24460:	9829      	ldr	r0, [sp, #164]	@ 0xa4
   24462:	2802      	cmp	r0, #2
   24464:	d102      	bne.n	2446c <_ZN20complex_full_dynamic3app17hc9b6bb7273a5a935E+0x50>
   24466:	992a      	ldr	r1, [sp, #168]	@ 0xa8
   24468:	4a29      	ldr	r2, [pc, #164]	@ (24510 <_ZN20complex_full_dynamic3app17hc9b6bb7273a5a935E+0xf4>)
   2446a:	e004      	b.n	24476 <_ZN20complex_full_dynamic3app17hc9b6bb7273a5a935E+0x5a>
   2446c:	a907      	add	r1, sp, #28
   2446e:	720c      	strb	r4, [r1, #8]
   24470:	9508      	str	r5, [sp, #32]
   24472:	4a27      	ldr	r2, [pc, #156]	@ (24510 <_ZN20complex_full_dynamic3app17hc9b6bb7273a5a935E+0xf4>)
   24474:	9207      	str	r2, [sp, #28]
   24476:	2501      	movs	r5, #1
   24478:	2802      	cmp	r0, #2
   2447a:	d02f      	beq.n	244dc <_ZN20complex_full_dynamic3app17hc9b6bb7273a5a935E+0xc0>
   2447c:	a819      	add	r0, sp, #100	@ 0x64
   2447e:	7a00      	ldrb	r0, [r0, #8]
   24480:	2802      	cmp	r0, #2
   24482:	d10f      	bne.n	244a4 <_ZN20complex_full_dynamic3app17hc9b6bb7273a5a935E+0x88>
   24484:	2603      	movs	r6, #3
   24486:	9803      	ldr	r0, [sp, #12]
   24488:	9000      	str	r0, [sp, #0]
   2448a:	9601      	str	r6, [sp, #4]
   2448c:	a829      	add	r0, sp, #164	@ 0xa4
   2448e:	2408      	movs	r4, #8
   24490:	4611      	mov	r1, r2
   24492:	4622      	mov	r2, r4
   24494:	9b04      	ldr	r3, [sp, #16]
   24496:	f004 fe73 	bl	29180 <_ZN9allow_pin13dynamic_allow17h8bfd3764c146b81aE>
   2449a:	9829      	ldr	r0, [sp, #164]	@ 0xa4
   2449c:	2802      	cmp	r0, #2
   2449e:	d106      	bne.n	244ae <_ZN20complex_full_dynamic3app17hc9b6bb7273a5a935E+0x92>
   244a0:	992a      	ldr	r1, [sp, #168]	@ 0xa8
   244a2:	e000      	b.n	244a6 <_ZN20complex_full_dynamic3app17hc9b6bb7273a5a935E+0x8a>
   244a4:	2103      	movs	r1, #3
   244a6:	4628      	mov	r0, r5
   244a8:	2800      	cmp	r0, #0
   244aa:	d008      	beq.n	244be <_ZN20complex_full_dynamic3app17hc9b6bb7273a5a935E+0xa2>
   244ac:	e016      	b.n	244dc <_ZN20complex_full_dynamic3app17hc9b6bb7273a5a935E+0xc0>
   244ae:	a819      	add	r0, sp, #100	@ 0x64
   244b0:	7206      	strb	r6, [r0, #8]
   244b2:	941a      	str	r4, [sp, #104]	@ 0x68
   244b4:	4816      	ldr	r0, [pc, #88]	@ (24510 <_ZN20complex_full_dynamic3app17hc9b6bb7273a5a935E+0xf4>)
   244b6:	9019      	str	r0, [sp, #100]	@ 0x64
   244b8:	2000      	movs	r0, #0
   244ba:	2800      	cmp	r0, #0
   244bc:	d10e      	bne.n	244dc <_ZN20complex_full_dynamic3app17hc9b6bb7273a5a935E+0xc0>
   244be:	4814      	ldr	r0, [pc, #80]	@ (24510 <_ZN20complex_full_dynamic3app17hc9b6bb7273a5a935E+0xf4>)
   244c0:	2106      	movs	r1, #6
   244c2:	2208      	movs	r2, #8
   244c4:	2400      	movs	r4, #0
   244c6:	4623      	mov	r3, r4
   244c8:	df02      	svc	2
   244ca:	287f      	cmp	r0, #127	@ 0x7f
   244cc:	d906      	bls.n	244dc <_ZN20complex_full_dynamic3app17hc9b6bb7273a5a935E+0xc0>
   244ce:	a807      	add	r0, sp, #28
   244d0:	f004 fe42 	bl	29158 <_ZN9allow_pin12full_dynamic17unshare_if_shared17hc49b4b2653f8b2c9E>
   244d4:	a819      	add	r0, sp, #100	@ 0x64
   244d6:	f004 fe3f 	bl	29158 <_ZN9allow_pin12full_dynamic17unshare_if_shared17hc49b4b2653f8b2c9E>
   244da:	4625      	mov	r5, r4
   244dc:	2d00      	cmp	r5, #0
   244de:	d003      	beq.n	244e8 <_ZN20complex_full_dynamic3app17hc9b6bb7273a5a935E+0xcc>
   244e0:	9c06      	ldr	r4, [sp, #24]
   244e2:	6061      	str	r1, [r4, #4]
   244e4:	2001      	movs	r0, #1
   244e6:	e009      	b.n	244fc <_ZN20complex_full_dynamic3app17hc9b6bb7273a5a935E+0xe0>
   244e8:	a819      	add	r0, sp, #100	@ 0x64
   244ea:	f004 fe35 	bl	29158 <_ZN9allow_pin12full_dynamic17unshare_if_shared17hc49b4b2653f8b2c9E>
   244ee:	9c06      	ldr	r4, [sp, #24]
   244f0:	1c60      	adds	r0, r4, #1
   244f2:	2232      	movs	r2, #50	@ 0x32
   244f4:	9904      	ldr	r1, [sp, #16]
   244f6:	f005 f808 	bl	2950a <__aeabi_memcpy>
   244fa:	2000      	movs	r0, #0
   244fc:	7020      	strb	r0, [r4, #0]
   244fe:	a819      	add	r0, sp, #100	@ 0x64
   24500:	f004 fe2a 	bl	29158 <_ZN9allow_pin12full_dynamic17unshare_if_shared17hc49b4b2653f8b2c9E>
   24504:	a807      	add	r0, sp, #28
   24506:	f004 fe27 	bl	29158 <_ZN9allow_pin12full_dynamic17unshare_if_shared17hc49b4b2653f8b2c9E>
   2450a:	b02d      	add	sp, #180	@ 0xb4
   2450c:	bdf0      	pop	{r4, r5, r6, r7, pc}
   2450e:	46c0      	nop			@ (mov r8, r8)
   24510:	00001b1e 	.word	0x00001b1e

00024514 <_ZN20complex_full_dynamic3app17hcc1a1aa307636a54E>:
   24514:	b5f0      	push	{r4, r5, r6, r7, lr}
   24516:	af03      	add	r7, sp, #12
   24518:	b0af      	sub	sp, #188	@ 0xbc
   2451a:	9005      	str	r0, [sp, #20]
   2451c:	ae06      	add	r6, sp, #24
   2451e:	2002      	movs	r0, #2
   24520:	9004      	str	r0, [sp, #16]
   24522:	7230      	strb	r0, [r6, #8]
   24524:	360c      	adds	r6, #12
   24526:	251c      	movs	r5, #28
   24528:	4630      	mov	r0, r6
   2452a:	462a      	mov	r2, r5
   2452c:	f004 ffed 	bl	2950a <__aeabi_memcpy>
   24530:	ac10      	add	r4, sp, #64	@ 0x40
   24532:	4620      	mov	r0, r4
   24534:	300c      	adds	r0, #12
   24536:	215d      	movs	r1, #93	@ 0x5d
   24538:	9003      	str	r0, [sp, #12]
   2453a:	9102      	str	r1, [sp, #8]
   2453c:	f004 fe38 	bl	291b0 <__aeabi_memclr4>
   24540:	9804      	ldr	r0, [sp, #16]
   24542:	7220      	strb	r0, [r4, #8]
   24544:	2404      	movs	r4, #4
   24546:	9500      	str	r5, [sp, #0]
   24548:	9401      	str	r4, [sp, #4]
   2454a:	a82b      	add	r0, sp, #172	@ 0xac
   2454c:	492e      	ldr	r1, [pc, #184]	@ (24608 <_ZN20complex_full_dynamic3app17hcc1a1aa307636a54E+0xf4>)
   2454e:	2508      	movs	r5, #8
   24550:	462a      	mov	r2, r5
   24552:	4633      	mov	r3, r6
   24554:	f004 fe14 	bl	29180 <_ZN9allow_pin13dynamic_allow17h8bfd3764c146b81aE>
   24558:	982b      	ldr	r0, [sp, #172]	@ 0xac
   2455a:	2802      	cmp	r0, #2
   2455c:	d102      	bne.n	24564 <_ZN20complex_full_dynamic3app17hcc1a1aa307636a54E+0x50>
   2455e:	992c      	ldr	r1, [sp, #176]	@ 0xb0
   24560:	4a29      	ldr	r2, [pc, #164]	@ (24608 <_ZN20complex_full_dynamic3app17hcc1a1aa307636a54E+0xf4>)
   24562:	e004      	b.n	2456e <_ZN20complex_full_dynamic3app17hcc1a1aa307636a54E+0x5a>
   24564:	a906      	add	r1, sp, #24
   24566:	720c      	strb	r4, [r1, #8]
   24568:	9507      	str	r5, [sp, #28]
   2456a:	4a27      	ldr	r2, [pc, #156]	@ (24608 <_ZN20complex_full_dynamic3app17hcc1a1aa307636a54E+0xf4>)
   2456c:	9206      	str	r2, [sp, #24]
   2456e:	2501      	movs	r5, #1
   24570:	2802      	cmp	r0, #2
   24572:	d02f      	beq.n	245d4 <_ZN20complex_full_dynamic3app17hcc1a1aa307636a54E+0xc0>
   24574:	a810      	add	r0, sp, #64	@ 0x40
   24576:	7a00      	ldrb	r0, [r0, #8]
   24578:	2802      	cmp	r0, #2
   2457a:	d10f      	bne.n	2459c <_ZN20complex_full_dynamic3app17hcc1a1aa307636a54E+0x88>
   2457c:	2603      	movs	r6, #3
   2457e:	9802      	ldr	r0, [sp, #8]
   24580:	9000      	str	r0, [sp, #0]
   24582:	9601      	str	r6, [sp, #4]
   24584:	a82b      	add	r0, sp, #172	@ 0xac
   24586:	2405      	movs	r4, #5
   24588:	4611      	mov	r1, r2
   2458a:	4622      	mov	r2, r4
   2458c:	9b03      	ldr	r3, [sp, #12]
   2458e:	f004 fdf7 	bl	29180 <_ZN9allow_pin13dynamic_allow17h8bfd3764c146b81aE>
   24592:	982b      	ldr	r0, [sp, #172]	@ 0xac
   24594:	2802      	cmp	r0, #2
   24596:	d106      	bne.n	245a6 <_ZN20complex_full_dynamic3app17hcc1a1aa307636a54E+0x92>
   24598:	992c      	ldr	r1, [sp, #176]	@ 0xb0
   2459a:	e000      	b.n	2459e <_ZN20complex_full_dynamic3app17hcc1a1aa307636a54E+0x8a>
   2459c:	2103      	movs	r1, #3
   2459e:	4628      	mov	r0, r5
   245a0:	2800      	cmp	r0, #0
   245a2:	d008      	beq.n	245b6 <_ZN20complex_full_dynamic3app17hcc1a1aa307636a54E+0xa2>
   245a4:	e016      	b.n	245d4 <_ZN20complex_full_dynamic3app17hcc1a1aa307636a54E+0xc0>
   245a6:	a810      	add	r0, sp, #64	@ 0x40
   245a8:	7206      	strb	r6, [r0, #8]
   245aa:	9411      	str	r4, [sp, #68]	@ 0x44
   245ac:	4816      	ldr	r0, [pc, #88]	@ (24608 <_ZN20complex_full_dynamic3app17hcc1a1aa307636a54E+0xf4>)
   245ae:	9010      	str	r0, [sp, #64]	@ 0x40
   245b0:	2000      	movs	r0, #0
   245b2:	2800      	cmp	r0, #0
   245b4:	d10e      	bne.n	245d4 <_ZN20complex_full_dynamic3app17hcc1a1aa307636a54E+0xc0>
   245b6:	4814      	ldr	r0, [pc, #80]	@ (24608 <_ZN20complex_full_dynamic3app17hcc1a1aa307636a54E+0xf4>)
   245b8:	2108      	movs	r1, #8
   245ba:	2205      	movs	r2, #5
   245bc:	2400      	movs	r4, #0
   245be:	4623      	mov	r3, r4
   245c0:	df02      	svc	2
   245c2:	287f      	cmp	r0, #127	@ 0x7f
   245c4:	d906      	bls.n	245d4 <_ZN20complex_full_dynamic3app17hcc1a1aa307636a54E+0xc0>
   245c6:	a806      	add	r0, sp, #24
   245c8:	f004 fdc6 	bl	29158 <_ZN9allow_pin12full_dynamic17unshare_if_shared17hc49b4b2653f8b2c9E>
   245cc:	a810      	add	r0, sp, #64	@ 0x40
   245ce:	f004 fdc3 	bl	29158 <_ZN9allow_pin12full_dynamic17unshare_if_shared17hc49b4b2653f8b2c9E>
   245d2:	4625      	mov	r5, r4
   245d4:	2d00      	cmp	r5, #0
   245d6:	d003      	beq.n	245e0 <_ZN20complex_full_dynamic3app17hcc1a1aa307636a54E+0xcc>
   245d8:	9c05      	ldr	r4, [sp, #20]
   245da:	6061      	str	r1, [r4, #4]
   245dc:	2001      	movs	r0, #1
   245de:	e009      	b.n	245f4 <_ZN20complex_full_dynamic3app17hcc1a1aa307636a54E+0xe0>
   245e0:	a810      	add	r0, sp, #64	@ 0x40
   245e2:	f004 fdb9 	bl	29158 <_ZN9allow_pin12full_dynamic17unshare_if_shared17hc49b4b2653f8b2c9E>
   245e6:	9c05      	ldr	r4, [sp, #20]
   245e8:	1c60      	adds	r0, r4, #1
   245ea:	225d      	movs	r2, #93	@ 0x5d
   245ec:	9903      	ldr	r1, [sp, #12]
   245ee:	f004 ff8c 	bl	2950a <__aeabi_memcpy>
   245f2:	2000      	movs	r0, #0
   245f4:	7020      	strb	r0, [r4, #0]
   245f6:	a810      	add	r0, sp, #64	@ 0x40
   245f8:	f004 fdae 	bl	29158 <_ZN9allow_pin12full_dynamic17unshare_if_shared17hc49b4b2653f8b2c9E>
   245fc:	a806      	add	r0, sp, #24
   245fe:	f004 fdab 	bl	29158 <_ZN9allow_pin12full_dynamic17unshare_if_shared17hc49b4b2653f8b2c9E>
   24602:	b02f      	add	sp, #188	@ 0xbc
   24604:	bdf0      	pop	{r4, r5, r6, r7, pc}
   24606:	46c0      	nop			@ (mov r8, r8)
   24608:	00000c3e 	.word	0x00000c3e

0002460c <_ZN20complex_full_dynamic3app17hcc8c8ec09fd6c922E>:
   2460c:	b5f0      	push	{r4, r5, r6, r7, lr}
   2460e:	af03      	add	r7, sp, #12
   24610:	b0ab      	sub	sp, #172	@ 0xac
   24612:	9005      	str	r0, [sp, #20]
   24614:	ae06      	add	r6, sp, #24
   24616:	2002      	movs	r0, #2
   24618:	9004      	str	r0, [sp, #16]
   2461a:	7230      	strb	r0, [r6, #8]
   2461c:	360c      	adds	r6, #12
   2461e:	2536      	movs	r5, #54	@ 0x36
   24620:	4630      	mov	r0, r6
   24622:	462a      	mov	r2, r5
   24624:	f004 ff71 	bl	2950a <__aeabi_memcpy>
   24628:	ac17      	add	r4, sp, #92	@ 0x5c
   2462a:	4620      	mov	r0, r4
   2462c:	300c      	adds	r0, #12
   2462e:	2134      	movs	r1, #52	@ 0x34
   24630:	9003      	str	r0, [sp, #12]
   24632:	9102      	str	r1, [sp, #8]
   24634:	f004 fdbc 	bl	291b0 <__aeabi_memclr4>
   24638:	9804      	ldr	r0, [sp, #16]
   2463a:	7220      	strb	r0, [r4, #8]
   2463c:	2404      	movs	r4, #4
   2463e:	9500      	str	r5, [sp, #0]
   24640:	9401      	str	r4, [sp, #4]
   24642:	a827      	add	r0, sp, #156	@ 0x9c
   24644:	4d2d      	ldr	r5, [pc, #180]	@ (246fc <_ZN20complex_full_dynamic3app17hcc8c8ec09fd6c922E+0xf0>)
   24646:	4629      	mov	r1, r5
   24648:	4622      	mov	r2, r4
   2464a:	4633      	mov	r3, r6
   2464c:	f004 fd98 	bl	29180 <_ZN9allow_pin13dynamic_allow17h8bfd3764c146b81aE>
   24650:	9827      	ldr	r0, [sp, #156]	@ 0x9c
   24652:	2802      	cmp	r0, #2
   24654:	d102      	bne.n	2465c <_ZN20complex_full_dynamic3app17hcc8c8ec09fd6c922E+0x50>
   24656:	462e      	mov	r6, r5
   24658:	9928      	ldr	r1, [sp, #160]	@ 0xa0
   2465a:	e004      	b.n	24666 <_ZN20complex_full_dynamic3app17hcc8c8ec09fd6c922E+0x5a>
   2465c:	a906      	add	r1, sp, #24
   2465e:	720c      	strb	r4, [r1, #8]
   24660:	9407      	str	r4, [sp, #28]
   24662:	462e      	mov	r6, r5
   24664:	9506      	str	r5, [sp, #24]
   24666:	2501      	movs	r5, #1
   24668:	2802      	cmp	r0, #2
   2466a:	d02e      	beq.n	246ca <_ZN20complex_full_dynamic3app17hcc8c8ec09fd6c922E+0xbe>
   2466c:	a817      	add	r0, sp, #92	@ 0x5c
   2466e:	7a00      	ldrb	r0, [r0, #8]
   24670:	2103      	movs	r1, #3
   24672:	2802      	cmp	r0, #2
   24674:	d10e      	bne.n	24694 <_ZN20complex_full_dynamic3app17hcc8c8ec09fd6c922E+0x88>
   24676:	9802      	ldr	r0, [sp, #8]
   24678:	9000      	str	r0, [sp, #0]
   2467a:	9104      	str	r1, [sp, #16]
   2467c:	9101      	str	r1, [sp, #4]
   2467e:	a827      	add	r0, sp, #156	@ 0x9c
   24680:	2402      	movs	r4, #2
   24682:	4631      	mov	r1, r6
   24684:	4622      	mov	r2, r4
   24686:	9b03      	ldr	r3, [sp, #12]
   24688:	f004 fd7a 	bl	29180 <_ZN9allow_pin13dynamic_allow17h8bfd3764c146b81aE>
   2468c:	9827      	ldr	r0, [sp, #156]	@ 0x9c
   2468e:	2802      	cmp	r0, #2
   24690:	d104      	bne.n	2469c <_ZN20complex_full_dynamic3app17hcc8c8ec09fd6c922E+0x90>
   24692:	9928      	ldr	r1, [sp, #160]	@ 0xa0
   24694:	4628      	mov	r0, r5
   24696:	2800      	cmp	r0, #0
   24698:	d008      	beq.n	246ac <_ZN20complex_full_dynamic3app17hcc8c8ec09fd6c922E+0xa0>
   2469a:	e016      	b.n	246ca <_ZN20complex_full_dynamic3app17hcc8c8ec09fd6c922E+0xbe>
   2469c:	a817      	add	r0, sp, #92	@ 0x5c
   2469e:	9904      	ldr	r1, [sp, #16]
   246a0:	7201      	strb	r1, [r0, #8]
   246a2:	9418      	str	r4, [sp, #96]	@ 0x60
   246a4:	9617      	str	r6, [sp, #92]	@ 0x5c
   246a6:	2000      	movs	r0, #0
   246a8:	2800      	cmp	r0, #0
   246aa:	d10e      	bne.n	246ca <_ZN20complex_full_dynamic3app17hcc8c8ec09fd6c922E+0xbe>
   246ac:	4813      	ldr	r0, [pc, #76]	@ (246fc <_ZN20complex_full_dynamic3app17hcc8c8ec09fd6c922E+0xf0>)
   246ae:	2104      	movs	r1, #4
   246b0:	2202      	movs	r2, #2
   246b2:	2400      	movs	r4, #0
   246b4:	4623      	mov	r3, r4
   246b6:	df02      	svc	2
   246b8:	287f      	cmp	r0, #127	@ 0x7f
   246ba:	d906      	bls.n	246ca <_ZN20complex_full_dynamic3app17hcc8c8ec09fd6c922E+0xbe>
   246bc:	a806      	add	r0, sp, #24
   246be:	f004 fd4b 	bl	29158 <_ZN9allow_pin12full_dynamic17unshare_if_shared17hc49b4b2653f8b2c9E>
   246c2:	a817      	add	r0, sp, #92	@ 0x5c
   246c4:	f004 fd48 	bl	29158 <_ZN9allow_pin12full_dynamic17unshare_if_shared17hc49b4b2653f8b2c9E>
   246c8:	4625      	mov	r5, r4
   246ca:	2d00      	cmp	r5, #0
   246cc:	d003      	beq.n	246d6 <_ZN20complex_full_dynamic3app17hcc8c8ec09fd6c922E+0xca>
   246ce:	9c05      	ldr	r4, [sp, #20]
   246d0:	6061      	str	r1, [r4, #4]
   246d2:	2001      	movs	r0, #1
   246d4:	e009      	b.n	246ea <_ZN20complex_full_dynamic3app17hcc8c8ec09fd6c922E+0xde>
   246d6:	a817      	add	r0, sp, #92	@ 0x5c
   246d8:	f004 fd3e 	bl	29158 <_ZN9allow_pin12full_dynamic17unshare_if_shared17hc49b4b2653f8b2c9E>
   246dc:	9c05      	ldr	r4, [sp, #20]
   246de:	1c60      	adds	r0, r4, #1
   246e0:	2234      	movs	r2, #52	@ 0x34
   246e2:	9903      	ldr	r1, [sp, #12]
   246e4:	f004 ff11 	bl	2950a <__aeabi_memcpy>
   246e8:	2000      	movs	r0, #0
   246ea:	7020      	strb	r0, [r4, #0]
   246ec:	a817      	add	r0, sp, #92	@ 0x5c
   246ee:	f004 fd33 	bl	29158 <_ZN9allow_pin12full_dynamic17unshare_if_shared17hc49b4b2653f8b2c9E>
   246f2:	a806      	add	r0, sp, #24
   246f4:	f004 fd30 	bl	29158 <_ZN9allow_pin12full_dynamic17unshare_if_shared17hc49b4b2653f8b2c9E>
   246f8:	b02b      	add	sp, #172	@ 0xac
   246fa:	bdf0      	pop	{r4, r5, r6, r7, pc}
   246fc:	000023c6 	.word	0x000023c6

00024700 <_ZN20complex_full_dynamic3app17hcece4acb67dd641fE>:
   24700:	b5f0      	push	{r4, r5, r6, r7, lr}
   24702:	af03      	add	r7, sp, #12
   24704:	b0b1      	sub	sp, #196	@ 0xc4
   24706:	9005      	str	r0, [sp, #20]
   24708:	ad06      	add	r5, sp, #24
   2470a:	2402      	movs	r4, #2
   2470c:	722c      	strb	r4, [r5, #8]
   2470e:	350c      	adds	r5, #12
   24710:	222d      	movs	r2, #45	@ 0x2d
   24712:	9204      	str	r2, [sp, #16]
   24714:	4628      	mov	r0, r5
   24716:	f004 fef8 	bl	2950a <__aeabi_memcpy>
   2471a:	ae15      	add	r6, sp, #84	@ 0x54
   2471c:	4630      	mov	r0, r6
   2471e:	300c      	adds	r0, #12
   24720:	2153      	movs	r1, #83	@ 0x53
   24722:	9003      	str	r0, [sp, #12]
   24724:	9102      	str	r1, [sp, #8]
   24726:	f004 fd43 	bl	291b0 <__aeabi_memclr4>
   2472a:	7234      	strb	r4, [r6, #8]
   2472c:	4626      	mov	r6, r4
   2472e:	2004      	movs	r0, #4
   24730:	9904      	ldr	r1, [sp, #16]
   24732:	9100      	str	r1, [sp, #0]
   24734:	9004      	str	r0, [sp, #16]
   24736:	9001      	str	r0, [sp, #4]
   24738:	a82d      	add	r0, sp, #180	@ 0xb4
   2473a:	4c2e      	ldr	r4, [pc, #184]	@ (247f4 <_ZN20complex_full_dynamic3app17hcece4acb67dd641fE+0xf4>)
   2473c:	4621      	mov	r1, r4
   2473e:	4632      	mov	r2, r6
   24740:	462b      	mov	r3, r5
   24742:	f004 fd1d 	bl	29180 <_ZN9allow_pin13dynamic_allow17h8bfd3764c146b81aE>
   24746:	982d      	ldr	r0, [sp, #180]	@ 0xb4
   24748:	2802      	cmp	r0, #2
   2474a:	d101      	bne.n	24750 <_ZN20complex_full_dynamic3app17hcece4acb67dd641fE+0x50>
   2474c:	992e      	ldr	r1, [sp, #184]	@ 0xb8
   2474e:	e004      	b.n	2475a <_ZN20complex_full_dynamic3app17hcece4acb67dd641fE+0x5a>
   24750:	a906      	add	r1, sp, #24
   24752:	9a04      	ldr	r2, [sp, #16]
   24754:	720a      	strb	r2, [r1, #8]
   24756:	9607      	str	r6, [sp, #28]
   24758:	9406      	str	r4, [sp, #24]
   2475a:	2501      	movs	r5, #1
   2475c:	2802      	cmp	r0, #2
   2475e:	d02f      	beq.n	247c0 <_ZN20complex_full_dynamic3app17hcece4acb67dd641fE+0xc0>
   24760:	a815      	add	r0, sp, #84	@ 0x54
   24762:	7a00      	ldrb	r0, [r0, #8]
   24764:	2802      	cmp	r0, #2
   24766:	d10f      	bne.n	24788 <_ZN20complex_full_dynamic3app17hcece4acb67dd641fE+0x88>
   24768:	2603      	movs	r6, #3
   2476a:	9802      	ldr	r0, [sp, #8]
   2476c:	9000      	str	r0, [sp, #0]
   2476e:	9601      	str	r6, [sp, #4]
   24770:	a82d      	add	r0, sp, #180	@ 0xb4
   24772:	4621      	mov	r1, r4
   24774:	2407      	movs	r4, #7
   24776:	4622      	mov	r2, r4
   24778:	9b03      	ldr	r3, [sp, #12]
   2477a:	f004 fd01 	bl	29180 <_ZN9allow_pin13dynamic_allow17h8bfd3764c146b81aE>
   2477e:	982d      	ldr	r0, [sp, #180]	@ 0xb4
   24780:	2802      	cmp	r0, #2
   24782:	d106      	bne.n	24792 <_ZN20complex_full_dynamic3app17hcece4acb67dd641fE+0x92>
   24784:	992e      	ldr	r1, [sp, #184]	@ 0xb8
   24786:	e000      	b.n	2478a <_ZN20complex_full_dynamic3app17hcece4acb67dd641fE+0x8a>
   24788:	2103      	movs	r1, #3
   2478a:	4628      	mov	r0, r5
   2478c:	2800      	cmp	r0, #0
   2478e:	d008      	beq.n	247a2 <_ZN20complex_full_dynamic3app17hcece4acb67dd641fE+0xa2>
   24790:	e016      	b.n	247c0 <_ZN20complex_full_dynamic3app17hcece4acb67dd641fE+0xc0>
   24792:	a815      	add	r0, sp, #84	@ 0x54
   24794:	7206      	strb	r6, [r0, #8]
   24796:	9416      	str	r4, [sp, #88]	@ 0x58
   24798:	4816      	ldr	r0, [pc, #88]	@ (247f4 <_ZN20complex_full_dynamic3app17hcece4acb67dd641fE+0xf4>)
   2479a:	9015      	str	r0, [sp, #84]	@ 0x54
   2479c:	2000      	movs	r0, #0
   2479e:	2800      	cmp	r0, #0
   247a0:	d10e      	bne.n	247c0 <_ZN20complex_full_dynamic3app17hcece4acb67dd641fE+0xc0>
   247a2:	4814      	ldr	r0, [pc, #80]	@ (247f4 <_ZN20complex_full_dynamic3app17hcece4acb67dd641fE+0xf4>)
   247a4:	2102      	movs	r1, #2
   247a6:	2207      	movs	r2, #7
   247a8:	2400      	movs	r4, #0
   247aa:	4623      	mov	r3, r4
   247ac:	df02      	svc	2
   247ae:	287f      	cmp	r0, #127	@ 0x7f
   247b0:	d906      	bls.n	247c0 <_ZN20complex_full_dynamic3app17hcece4acb67dd641fE+0xc0>
   247b2:	a806      	add	r0, sp, #24
   247b4:	f004 fcd0 	bl	29158 <_ZN9allow_pin12full_dynamic17unshare_if_shared17hc49b4b2653f8b2c9E>
   247b8:	a815      	add	r0, sp, #84	@ 0x54
   247ba:	f004 fccd 	bl	29158 <_ZN9allow_pin12full_dynamic17unshare_if_shared17hc49b4b2653f8b2c9E>
   247be:	4625      	mov	r5, r4
   247c0:	2d00      	cmp	r5, #0
   247c2:	d003      	beq.n	247cc <_ZN20complex_full_dynamic3app17hcece4acb67dd641fE+0xcc>
   247c4:	9c05      	ldr	r4, [sp, #20]
   247c6:	6061      	str	r1, [r4, #4]
   247c8:	2001      	movs	r0, #1
   247ca:	e009      	b.n	247e0 <_ZN20complex_full_dynamic3app17hcece4acb67dd641fE+0xe0>
   247cc:	a815      	add	r0, sp, #84	@ 0x54
   247ce:	f004 fcc3 	bl	29158 <_ZN9allow_pin12full_dynamic17unshare_if_shared17hc49b4b2653f8b2c9E>
   247d2:	9c05      	ldr	r4, [sp, #20]
   247d4:	1c60      	adds	r0, r4, #1
   247d6:	2253      	movs	r2, #83	@ 0x53
   247d8:	9903      	ldr	r1, [sp, #12]
   247da:	f004 fe96 	bl	2950a <__aeabi_memcpy>
   247de:	2000      	movs	r0, #0
   247e0:	7020      	strb	r0, [r4, #0]
   247e2:	a815      	add	r0, sp, #84	@ 0x54
   247e4:	f004 fcb8 	bl	29158 <_ZN9allow_pin12full_dynamic17unshare_if_shared17hc49b4b2653f8b2c9E>
   247e8:	a806      	add	r0, sp, #24
   247ea:	f004 fcb5 	bl	29158 <_ZN9allow_pin12full_dynamic17unshare_if_shared17hc49b4b2653f8b2c9E>
   247ee:	b031      	add	sp, #196	@ 0xc4
   247f0:	bdf0      	pop	{r4, r5, r6, r7, pc}
   247f2:	46c0      	nop			@ (mov r8, r8)
   247f4:	00000ec3 	.word	0x00000ec3

000247f8 <_ZN20complex_full_dynamic3app17hd8b818a697a333a0E>:
   247f8:	b5f0      	push	{r4, r5, r6, r7, lr}
   247fa:	af03      	add	r7, sp, #12
   247fc:	b0b9      	sub	sp, #228	@ 0xe4
   247fe:	9006      	str	r0, [sp, #24]
   24800:	ae07      	add	r6, sp, #28
   24802:	2002      	movs	r0, #2
   24804:	9005      	str	r0, [sp, #20]
   24806:	7230      	strb	r0, [r6, #8]
   24808:	360c      	adds	r6, #12
   2480a:	255d      	movs	r5, #93	@ 0x5d
   2480c:	4630      	mov	r0, r6
   2480e:	462a      	mov	r2, r5
   24810:	f004 fe7b 	bl	2950a <__aeabi_memcpy>
   24814:	ac22      	add	r4, sp, #136	@ 0x88
   24816:	4620      	mov	r0, r4
   24818:	300c      	adds	r0, #12
   2481a:	2140      	movs	r1, #64	@ 0x40
   2481c:	9004      	str	r0, [sp, #16]
   2481e:	9103      	str	r1, [sp, #12]
   24820:	f004 fcc6 	bl	291b0 <__aeabi_memclr4>
   24824:	9805      	ldr	r0, [sp, #20]
   24826:	7220      	strb	r0, [r4, #8]
   24828:	2404      	movs	r4, #4
   2482a:	9500      	str	r5, [sp, #0]
   2482c:	9401      	str	r4, [sp, #4]
   2482e:	a835      	add	r0, sp, #212	@ 0xd4
   24830:	492e      	ldr	r1, [pc, #184]	@ (248ec <_ZN20complex_full_dynamic3app17hd8b818a697a333a0E+0xf4>)
   24832:	2508      	movs	r5, #8
   24834:	462a      	mov	r2, r5
   24836:	4633      	mov	r3, r6
   24838:	f004 fca2 	bl	29180 <_ZN9allow_pin13dynamic_allow17h8bfd3764c146b81aE>
   2483c:	9835      	ldr	r0, [sp, #212]	@ 0xd4
   2483e:	2802      	cmp	r0, #2
   24840:	d102      	bne.n	24848 <_ZN20complex_full_dynamic3app17hd8b818a697a333a0E+0x50>
   24842:	9936      	ldr	r1, [sp, #216]	@ 0xd8
   24844:	4a29      	ldr	r2, [pc, #164]	@ (248ec <_ZN20complex_full_dynamic3app17hd8b818a697a333a0E+0xf4>)
   24846:	e004      	b.n	24852 <_ZN20complex_full_dynamic3app17hd8b818a697a333a0E+0x5a>
   24848:	a907      	add	r1, sp, #28
   2484a:	720c      	strb	r4, [r1, #8]
   2484c:	9508      	str	r5, [sp, #32]
   2484e:	4a27      	ldr	r2, [pc, #156]	@ (248ec <_ZN20complex_full_dynamic3app17hd8b818a697a333a0E+0xf4>)
   24850:	9207      	str	r2, [sp, #28]
   24852:	2501      	movs	r5, #1
   24854:	2802      	cmp	r0, #2
   24856:	d02f      	beq.n	248b8 <_ZN20complex_full_dynamic3app17hd8b818a697a333a0E+0xc0>
   24858:	a822      	add	r0, sp, #136	@ 0x88
   2485a:	7a00      	ldrb	r0, [r0, #8]
   2485c:	2802      	cmp	r0, #2
   2485e:	d10f      	bne.n	24880 <_ZN20complex_full_dynamic3app17hd8b818a697a333a0E+0x88>
   24860:	2603      	movs	r6, #3
   24862:	9803      	ldr	r0, [sp, #12]
   24864:	9000      	str	r0, [sp, #0]
   24866:	9601      	str	r6, [sp, #4]
   24868:	a835      	add	r0, sp, #212	@ 0xd4
   2486a:	2404      	movs	r4, #4
   2486c:	4611      	mov	r1, r2
   2486e:	4622      	mov	r2, r4
   24870:	9b04      	ldr	r3, [sp, #16]
   24872:	f004 fc85 	bl	29180 <_ZN9allow_pin13dynamic_allow17h8bfd3764c146b81aE>
   24876:	9835      	ldr	r0, [sp, #212]	@ 0xd4
   24878:	2802      	cmp	r0, #2
   2487a:	d106      	bne.n	2488a <_ZN20complex_full_dynamic3app17hd8b818a697a333a0E+0x92>
   2487c:	9936      	ldr	r1, [sp, #216]	@ 0xd8
   2487e:	e000      	b.n	24882 <_ZN20complex_full_dynamic3app17hd8b818a697a333a0E+0x8a>
   24880:	2103      	movs	r1, #3
   24882:	4628      	mov	r0, r5
   24884:	2800      	cmp	r0, #0
   24886:	d008      	beq.n	2489a <_ZN20complex_full_dynamic3app17hd8b818a697a333a0E+0xa2>
   24888:	e016      	b.n	248b8 <_ZN20complex_full_dynamic3app17hd8b818a697a333a0E+0xc0>
   2488a:	a822      	add	r0, sp, #136	@ 0x88
   2488c:	7206      	strb	r6, [r0, #8]
   2488e:	9423      	str	r4, [sp, #140]	@ 0x8c
   24890:	4816      	ldr	r0, [pc, #88]	@ (248ec <_ZN20complex_full_dynamic3app17hd8b818a697a333a0E+0xf4>)
   24892:	9022      	str	r0, [sp, #136]	@ 0x88
   24894:	2000      	movs	r0, #0
   24896:	2800      	cmp	r0, #0
   24898:	d10e      	bne.n	248b8 <_ZN20complex_full_dynamic3app17hd8b818a697a333a0E+0xc0>
   2489a:	4814      	ldr	r0, [pc, #80]	@ (248ec <_ZN20complex_full_dynamic3app17hd8b818a697a333a0E+0xf4>)
   2489c:	2108      	movs	r1, #8
   2489e:	2204      	movs	r2, #4
   248a0:	2400      	movs	r4, #0
   248a2:	4623      	mov	r3, r4
   248a4:	df02      	svc	2
   248a6:	287f      	cmp	r0, #127	@ 0x7f
   248a8:	d906      	bls.n	248b8 <_ZN20complex_full_dynamic3app17hd8b818a697a333a0E+0xc0>
   248aa:	a807      	add	r0, sp, #28
   248ac:	f004 fc54 	bl	29158 <_ZN9allow_pin12full_dynamic17unshare_if_shared17hc49b4b2653f8b2c9E>
   248b0:	a822      	add	r0, sp, #136	@ 0x88
   248b2:	f004 fc51 	bl	29158 <_ZN9allow_pin12full_dynamic17unshare_if_shared17hc49b4b2653f8b2c9E>
   248b6:	4625      	mov	r5, r4
   248b8:	2d00      	cmp	r5, #0
   248ba:	d003      	beq.n	248c4 <_ZN20complex_full_dynamic3app17hd8b818a697a333a0E+0xcc>
   248bc:	9c06      	ldr	r4, [sp, #24]
   248be:	6061      	str	r1, [r4, #4]
   248c0:	2001      	movs	r0, #1
   248c2:	e009      	b.n	248d8 <_ZN20complex_full_dynamic3app17hd8b818a697a333a0E+0xe0>
   248c4:	a822      	add	r0, sp, #136	@ 0x88
   248c6:	f004 fc47 	bl	29158 <_ZN9allow_pin12full_dynamic17unshare_if_shared17hc49b4b2653f8b2c9E>
   248ca:	9c06      	ldr	r4, [sp, #24]
   248cc:	1c60      	adds	r0, r4, #1
   248ce:	2240      	movs	r2, #64	@ 0x40
   248d0:	9904      	ldr	r1, [sp, #16]
   248d2:	f004 fe1a 	bl	2950a <__aeabi_memcpy>
   248d6:	2000      	movs	r0, #0
   248d8:	7020      	strb	r0, [r4, #0]
   248da:	a822      	add	r0, sp, #136	@ 0x88
   248dc:	f004 fc3c 	bl	29158 <_ZN9allow_pin12full_dynamic17unshare_if_shared17hc49b4b2653f8b2c9E>
   248e0:	a807      	add	r0, sp, #28
   248e2:	f004 fc39 	bl	29158 <_ZN9allow_pin12full_dynamic17unshare_if_shared17hc49b4b2653f8b2c9E>
   248e6:	b039      	add	sp, #228	@ 0xe4
   248e8:	bdf0      	pop	{r4, r5, r6, r7, pc}
   248ea:	46c0      	nop			@ (mov r8, r8)
   248ec:	00001028 	.word	0x00001028

000248f0 <_ZN20complex_full_dynamic3app17hd8d172c5d99e9fa9E>:
   248f0:	b5f0      	push	{r4, r5, r6, r7, lr}
   248f2:	af03      	add	r7, sp, #12
   248f4:	b0af      	sub	sp, #188	@ 0xbc
   248f6:	9006      	str	r0, [sp, #24]
   248f8:	ae07      	add	r6, sp, #28
   248fa:	2002      	movs	r0, #2
   248fc:	9005      	str	r0, [sp, #20]
   248fe:	7230      	strb	r0, [r6, #8]
   24900:	360c      	adds	r6, #12
   24902:	2522      	movs	r5, #34	@ 0x22
   24904:	4630      	mov	r0, r6
   24906:	462a      	mov	r2, r5
   24908:	f004 fdff 	bl	2950a <__aeabi_memcpy>
   2490c:	ac13      	add	r4, sp, #76	@ 0x4c
   2490e:	4620      	mov	r0, r4
   24910:	300c      	adds	r0, #12
   24912:	2151      	movs	r1, #81	@ 0x51
   24914:	9004      	str	r0, [sp, #16]
   24916:	9103      	str	r1, [sp, #12]
   24918:	f004 fc4a 	bl	291b0 <__aeabi_memclr4>
   2491c:	9805      	ldr	r0, [sp, #20]
   2491e:	7220      	strb	r0, [r4, #8]
   24920:	2404      	movs	r4, #4
   24922:	9500      	str	r5, [sp, #0]
   24924:	9401      	str	r4, [sp, #4]
   24926:	a82b      	add	r0, sp, #172	@ 0xac
   24928:	492e      	ldr	r1, [pc, #184]	@ (249e4 <_ZN20complex_full_dynamic3app17hd8d172c5d99e9fa9E+0xf4>)
   2492a:	2509      	movs	r5, #9
   2492c:	462a      	mov	r2, r5
   2492e:	4633      	mov	r3, r6
   24930:	f004 fc26 	bl	29180 <_ZN9allow_pin13dynamic_allow17h8bfd3764c146b81aE>
   24934:	982b      	ldr	r0, [sp, #172]	@ 0xac
   24936:	2802      	cmp	r0, #2
   24938:	d102      	bne.n	24940 <_ZN20complex_full_dynamic3app17hd8d172c5d99e9fa9E+0x50>
   2493a:	992c      	ldr	r1, [sp, #176]	@ 0xb0
   2493c:	4a29      	ldr	r2, [pc, #164]	@ (249e4 <_ZN20complex_full_dynamic3app17hd8d172c5d99e9fa9E+0xf4>)
   2493e:	e004      	b.n	2494a <_ZN20complex_full_dynamic3app17hd8d172c5d99e9fa9E+0x5a>
   24940:	a907      	add	r1, sp, #28
   24942:	720c      	strb	r4, [r1, #8]
   24944:	9508      	str	r5, [sp, #32]
   24946:	4a27      	ldr	r2, [pc, #156]	@ (249e4 <_ZN20complex_full_dynamic3app17hd8d172c5d99e9fa9E+0xf4>)
   24948:	9207      	str	r2, [sp, #28]
   2494a:	2501      	movs	r5, #1
   2494c:	2802      	cmp	r0, #2
   2494e:	d02f      	beq.n	249b0 <_ZN20complex_full_dynamic3app17hd8d172c5d99e9fa9E+0xc0>
   24950:	a813      	add	r0, sp, #76	@ 0x4c
   24952:	7a00      	ldrb	r0, [r0, #8]
   24954:	2802      	cmp	r0, #2
   24956:	d10f      	bne.n	24978 <_ZN20complex_full_dynamic3app17hd8d172c5d99e9fa9E+0x88>
   24958:	2603      	movs	r6, #3
   2495a:	9803      	ldr	r0, [sp, #12]
   2495c:	9000      	str	r0, [sp, #0]
   2495e:	9601      	str	r6, [sp, #4]
   24960:	a82b      	add	r0, sp, #172	@ 0xac
   24962:	2409      	movs	r4, #9
   24964:	4611      	mov	r1, r2
   24966:	4622      	mov	r2, r4
   24968:	9b04      	ldr	r3, [sp, #16]
   2496a:	f004 fc09 	bl	29180 <_ZN9allow_pin13dynamic_allow17h8bfd3764c146b81aE>
   2496e:	982b      	ldr	r0, [sp, #172]	@ 0xac
   24970:	2802      	cmp	r0, #2
   24972:	d106      	bne.n	24982 <_ZN20complex_full_dynamic3app17hd8d172c5d99e9fa9E+0x92>
   24974:	992c      	ldr	r1, [sp, #176]	@ 0xb0
   24976:	e000      	b.n	2497a <_ZN20complex_full_dynamic3app17hd8d172c5d99e9fa9E+0x8a>
   24978:	2103      	movs	r1, #3
   2497a:	4628      	mov	r0, r5
   2497c:	2800      	cmp	r0, #0
   2497e:	d008      	beq.n	24992 <_ZN20complex_full_dynamic3app17hd8d172c5d99e9fa9E+0xa2>
   24980:	e016      	b.n	249b0 <_ZN20complex_full_dynamic3app17hd8d172c5d99e9fa9E+0xc0>
   24982:	a813      	add	r0, sp, #76	@ 0x4c
   24984:	7206      	strb	r6, [r0, #8]
   24986:	9414      	str	r4, [sp, #80]	@ 0x50
   24988:	4816      	ldr	r0, [pc, #88]	@ (249e4 <_ZN20complex_full_dynamic3app17hd8d172c5d99e9fa9E+0xf4>)
   2498a:	9013      	str	r0, [sp, #76]	@ 0x4c
   2498c:	2000      	movs	r0, #0
   2498e:	2800      	cmp	r0, #0
   24990:	d10e      	bne.n	249b0 <_ZN20complex_full_dynamic3app17hd8d172c5d99e9fa9E+0xc0>
   24992:	4814      	ldr	r0, [pc, #80]	@ (249e4 <_ZN20complex_full_dynamic3app17hd8d172c5d99e9fa9E+0xf4>)
   24994:	2109      	movs	r1, #9
   24996:	2400      	movs	r4, #0
   24998:	460a      	mov	r2, r1
   2499a:	4623      	mov	r3, r4
   2499c:	df02      	svc	2
   2499e:	287f      	cmp	r0, #127	@ 0x7f
   249a0:	d906      	bls.n	249b0 <_ZN20complex_full_dynamic3app17hd8d172c5d99e9fa9E+0xc0>
   249a2:	a807      	add	r0, sp, #28
   249a4:	f004 fbd8 	bl	29158 <_ZN9allow_pin12full_dynamic17unshare_if_shared17hc49b4b2653f8b2c9E>
   249a8:	a813      	add	r0, sp, #76	@ 0x4c
   249aa:	f004 fbd5 	bl	29158 <_ZN9allow_pin12full_dynamic17unshare_if_shared17hc49b4b2653f8b2c9E>
   249ae:	4625      	mov	r5, r4
   249b0:	2d00      	cmp	r5, #0
   249b2:	d003      	beq.n	249bc <_ZN20complex_full_dynamic3app17hd8d172c5d99e9fa9E+0xcc>
   249b4:	9c06      	ldr	r4, [sp, #24]
   249b6:	6061      	str	r1, [r4, #4]
   249b8:	2001      	movs	r0, #1
   249ba:	e009      	b.n	249d0 <_ZN20complex_full_dynamic3app17hd8d172c5d99e9fa9E+0xe0>
   249bc:	a813      	add	r0, sp, #76	@ 0x4c
   249be:	f004 fbcb 	bl	29158 <_ZN9allow_pin12full_dynamic17unshare_if_shared17hc49b4b2653f8b2c9E>
   249c2:	9c06      	ldr	r4, [sp, #24]
   249c4:	1c60      	adds	r0, r4, #1
   249c6:	2251      	movs	r2, #81	@ 0x51
   249c8:	9904      	ldr	r1, [sp, #16]
   249ca:	f004 fd9e 	bl	2950a <__aeabi_memcpy>
   249ce:	2000      	movs	r0, #0
   249d0:	7020      	strb	r0, [r4, #0]
   249d2:	a813      	add	r0, sp, #76	@ 0x4c
   249d4:	f004 fbc0 	bl	29158 <_ZN9allow_pin12full_dynamic17unshare_if_shared17hc49b4b2653f8b2c9E>
   249d8:	a807      	add	r0, sp, #28
   249da:	f004 fbbd 	bl	29158 <_ZN9allow_pin12full_dynamic17unshare_if_shared17hc49b4b2653f8b2c9E>
   249de:	b02f      	add	sp, #188	@ 0xbc
   249e0:	bdf0      	pop	{r4, r5, r6, r7, pc}
   249e2:	46c0      	nop			@ (mov r8, r8)
   249e4:	0000055e 	.word	0x0000055e

000249e8 <_ZN20complex_full_dynamic3app17hd9ae90684e5c5886E>:
   249e8:	b5f0      	push	{r4, r5, r6, r7, lr}
   249ea:	af03      	add	r7, sp, #12
   249ec:	b0a1      	sub	sp, #132	@ 0x84
   249ee:	9006      	str	r0, [sp, #24]
   249f0:	ae07      	add	r6, sp, #28
   249f2:	2002      	movs	r0, #2
   249f4:	9005      	str	r0, [sp, #20]
   249f6:	7230      	strb	r0, [r6, #8]
   249f8:	360c      	adds	r6, #12
   249fa:	2514      	movs	r5, #20
   249fc:	4630      	mov	r0, r6
   249fe:	462a      	mov	r2, r5
   24a00:	f004 fd83 	bl	2950a <__aeabi_memcpy>
   24a04:	ac0f      	add	r4, sp, #60	@ 0x3c
   24a06:	4620      	mov	r0, r4
   24a08:	300c      	adds	r0, #12
   24a0a:	212b      	movs	r1, #43	@ 0x2b
   24a0c:	9004      	str	r0, [sp, #16]
   24a0e:	9103      	str	r1, [sp, #12]
   24a10:	f004 fbce 	bl	291b0 <__aeabi_memclr4>
   24a14:	9805      	ldr	r0, [sp, #20]
   24a16:	7220      	strb	r0, [r4, #8]
   24a18:	2404      	movs	r4, #4
   24a1a:	9500      	str	r5, [sp, #0]
   24a1c:	9401      	str	r4, [sp, #4]
   24a1e:	a81d      	add	r0, sp, #116	@ 0x74
   24a20:	492e      	ldr	r1, [pc, #184]	@ (24adc <_ZN20complex_full_dynamic3app17hd9ae90684e5c5886E+0xf4>)
   24a22:	2508      	movs	r5, #8
   24a24:	462a      	mov	r2, r5
   24a26:	4633      	mov	r3, r6
   24a28:	f004 fbaa 	bl	29180 <_ZN9allow_pin13dynamic_allow17h8bfd3764c146b81aE>
   24a2c:	981d      	ldr	r0, [sp, #116]	@ 0x74
   24a2e:	2802      	cmp	r0, #2
   24a30:	d102      	bne.n	24a38 <_ZN20complex_full_dynamic3app17hd9ae90684e5c5886E+0x50>
   24a32:	991e      	ldr	r1, [sp, #120]	@ 0x78
   24a34:	4a29      	ldr	r2, [pc, #164]	@ (24adc <_ZN20complex_full_dynamic3app17hd9ae90684e5c5886E+0xf4>)
   24a36:	e004      	b.n	24a42 <_ZN20complex_full_dynamic3app17hd9ae90684e5c5886E+0x5a>
   24a38:	a907      	add	r1, sp, #28
   24a3a:	720c      	strb	r4, [r1, #8]
   24a3c:	9508      	str	r5, [sp, #32]
   24a3e:	4a27      	ldr	r2, [pc, #156]	@ (24adc <_ZN20complex_full_dynamic3app17hd9ae90684e5c5886E+0xf4>)
   24a40:	9207      	str	r2, [sp, #28]
   24a42:	2501      	movs	r5, #1
   24a44:	2802      	cmp	r0, #2
   24a46:	d02f      	beq.n	24aa8 <_ZN20complex_full_dynamic3app17hd9ae90684e5c5886E+0xc0>
   24a48:	a80f      	add	r0, sp, #60	@ 0x3c
   24a4a:	7a00      	ldrb	r0, [r0, #8]
   24a4c:	2802      	cmp	r0, #2
   24a4e:	d10f      	bne.n	24a70 <_ZN20complex_full_dynamic3app17hd9ae90684e5c5886E+0x88>
   24a50:	2603      	movs	r6, #3
   24a52:	9803      	ldr	r0, [sp, #12]
   24a54:	9000      	str	r0, [sp, #0]
   24a56:	9601      	str	r6, [sp, #4]
   24a58:	a81d      	add	r0, sp, #116	@ 0x74
   24a5a:	2404      	movs	r4, #4
   24a5c:	4611      	mov	r1, r2
   24a5e:	4622      	mov	r2, r4
   24a60:	9b04      	ldr	r3, [sp, #16]
   24a62:	f004 fb8d 	bl	29180 <_ZN9allow_pin13dynamic_allow17h8bfd3764c146b81aE>
   24a66:	981d      	ldr	r0, [sp, #116]	@ 0x74
   24a68:	2802      	cmp	r0, #2
   24a6a:	d106      	bne.n	24a7a <_ZN20complex_full_dynamic3app17hd9ae90684e5c5886E+0x92>
   24a6c:	991e      	ldr	r1, [sp, #120]	@ 0x78
   24a6e:	e000      	b.n	24a72 <_ZN20complex_full_dynamic3app17hd9ae90684e5c5886E+0x8a>
   24a70:	2103      	movs	r1, #3
   24a72:	4628      	mov	r0, r5
   24a74:	2800      	cmp	r0, #0
   24a76:	d008      	beq.n	24a8a <_ZN20complex_full_dynamic3app17hd9ae90684e5c5886E+0xa2>
   24a78:	e016      	b.n	24aa8 <_ZN20complex_full_dynamic3app17hd9ae90684e5c5886E+0xc0>
   24a7a:	a80f      	add	r0, sp, #60	@ 0x3c
   24a7c:	7206      	strb	r6, [r0, #8]
   24a7e:	9410      	str	r4, [sp, #64]	@ 0x40
   24a80:	4816      	ldr	r0, [pc, #88]	@ (24adc <_ZN20complex_full_dynamic3app17hd9ae90684e5c5886E+0xf4>)
   24a82:	900f      	str	r0, [sp, #60]	@ 0x3c
   24a84:	2000      	movs	r0, #0
   24a86:	2800      	cmp	r0, #0
   24a88:	d10e      	bne.n	24aa8 <_ZN20complex_full_dynamic3app17hd9ae90684e5c5886E+0xc0>
   24a8a:	4814      	ldr	r0, [pc, #80]	@ (24adc <_ZN20complex_full_dynamic3app17hd9ae90684e5c5886E+0xf4>)
   24a8c:	2108      	movs	r1, #8
   24a8e:	2204      	movs	r2, #4
   24a90:	2400      	movs	r4, #0
   24a92:	4623      	mov	r3, r4
   24a94:	df02      	svc	2
   24a96:	287f      	cmp	r0, #127	@ 0x7f
   24a98:	d906      	bls.n	24aa8 <_ZN20complex_full_dynamic3app17hd9ae90684e5c5886E+0xc0>
   24a9a:	a807      	add	r0, sp, #28
   24a9c:	f004 fb5c 	bl	29158 <_ZN9allow_pin12full_dynamic17unshare_if_shared17hc49b4b2653f8b2c9E>
   24aa0:	a80f      	add	r0, sp, #60	@ 0x3c
   24aa2:	f004 fb59 	bl	29158 <_ZN9allow_pin12full_dynamic17unshare_if_shared17hc49b4b2653f8b2c9E>
   24aa6:	4625      	mov	r5, r4
   24aa8:	2d00      	cmp	r5, #0
   24aaa:	d003      	beq.n	24ab4 <_ZN20complex_full_dynamic3app17hd9ae90684e5c5886E+0xcc>
   24aac:	9c06      	ldr	r4, [sp, #24]
   24aae:	6061      	str	r1, [r4, #4]
   24ab0:	2001      	movs	r0, #1
   24ab2:	e009      	b.n	24ac8 <_ZN20complex_full_dynamic3app17hd9ae90684e5c5886E+0xe0>
   24ab4:	a80f      	add	r0, sp, #60	@ 0x3c
   24ab6:	f004 fb4f 	bl	29158 <_ZN9allow_pin12full_dynamic17unshare_if_shared17hc49b4b2653f8b2c9E>
   24aba:	9c06      	ldr	r4, [sp, #24]
   24abc:	1c60      	adds	r0, r4, #1
   24abe:	222b      	movs	r2, #43	@ 0x2b
   24ac0:	9904      	ldr	r1, [sp, #16]
   24ac2:	f004 fd22 	bl	2950a <__aeabi_memcpy>
   24ac6:	2000      	movs	r0, #0
   24ac8:	7020      	strb	r0, [r4, #0]
   24aca:	a80f      	add	r0, sp, #60	@ 0x3c
   24acc:	f004 fb44 	bl	29158 <_ZN9allow_pin12full_dynamic17unshare_if_shared17hc49b4b2653f8b2c9E>
   24ad0:	a807      	add	r0, sp, #28
   24ad2:	f004 fb41 	bl	29158 <_ZN9allow_pin12full_dynamic17unshare_if_shared17hc49b4b2653f8b2c9E>
   24ad6:	b021      	add	sp, #132	@ 0x84
   24ad8:	bdf0      	pop	{r4, r5, r6, r7, pc}
   24ada:	46c0      	nop			@ (mov r8, r8)
   24adc:	0000239f 	.word	0x0000239f

00024ae0 <_ZN20complex_full_dynamic3app17hdb7a2bf67c8ac092E>:
   24ae0:	b5f0      	push	{r4, r5, r6, r7, lr}
   24ae2:	af03      	add	r7, sp, #12
   24ae4:	b09d      	sub	sp, #116	@ 0x74
   24ae6:	9003      	str	r0, [sp, #12]
   24ae8:	ac05      	add	r4, sp, #20
   24aea:	2502      	movs	r5, #2
   24aec:	7225      	strb	r5, [r4, #8]
   24aee:	340c      	adds	r4, #12
   24af0:	2218      	movs	r2, #24
   24af2:	9202      	str	r2, [sp, #8]
   24af4:	4620      	mov	r0, r4
   24af6:	f004 fd08 	bl	2950a <__aeabi_memcpy>
   24afa:	a80e      	add	r0, sp, #56	@ 0x38
   24afc:	2600      	movs	r6, #0
   24afe:	8506      	strh	r6, [r0, #40]	@ 0x28
   24b00:	9004      	str	r0, [sp, #16]
   24b02:	7205      	strb	r5, [r0, #8]
   24b04:	9617      	str	r6, [sp, #92]	@ 0x5c
   24b06:	9616      	str	r6, [sp, #88]	@ 0x58
   24b08:	9615      	str	r6, [sp, #84]	@ 0x54
   24b0a:	9614      	str	r6, [sp, #80]	@ 0x50
   24b0c:	9613      	str	r6, [sp, #76]	@ 0x4c
   24b0e:	9612      	str	r6, [sp, #72]	@ 0x48
   24b10:	9611      	str	r6, [sp, #68]	@ 0x44
   24b12:	2004      	movs	r0, #4
   24b14:	9902      	ldr	r1, [sp, #8]
   24b16:	9100      	str	r1, [sp, #0]
   24b18:	9002      	str	r0, [sp, #8]
   24b1a:	9001      	str	r0, [sp, #4]
   24b1c:	a819      	add	r0, sp, #100	@ 0x64
   24b1e:	4931      	ldr	r1, [pc, #196]	@ (24be4 <_ZN20complex_full_dynamic3app17hdb7a2bf67c8ac092E+0x104>)
   24b20:	2509      	movs	r5, #9
   24b22:	462a      	mov	r2, r5
   24b24:	4623      	mov	r3, r4
   24b26:	f004 fb2b 	bl	29180 <_ZN9allow_pin13dynamic_allow17h8bfd3764c146b81aE>
   24b2a:	9819      	ldr	r0, [sp, #100]	@ 0x64
   24b2c:	2802      	cmp	r0, #2
   24b2e:	d102      	bne.n	24b36 <_ZN20complex_full_dynamic3app17hdb7a2bf67c8ac092E+0x56>
   24b30:	991a      	ldr	r1, [sp, #104]	@ 0x68
   24b32:	4a2c      	ldr	r2, [pc, #176]	@ (24be4 <_ZN20complex_full_dynamic3app17hdb7a2bf67c8ac092E+0x104>)
   24b34:	e005      	b.n	24b42 <_ZN20complex_full_dynamic3app17hdb7a2bf67c8ac092E+0x62>
   24b36:	a905      	add	r1, sp, #20
   24b38:	9a02      	ldr	r2, [sp, #8]
   24b3a:	720a      	strb	r2, [r1, #8]
   24b3c:	9506      	str	r5, [sp, #24]
   24b3e:	4a29      	ldr	r2, [pc, #164]	@ (24be4 <_ZN20complex_full_dynamic3app17hdb7a2bf67c8ac092E+0x104>)
   24b40:	9205      	str	r2, [sp, #20]
   24b42:	9d04      	ldr	r5, [sp, #16]
   24b44:	350c      	adds	r5, #12
   24b46:	2401      	movs	r4, #1
   24b48:	2802      	cmp	r0, #2
   24b4a:	d032      	beq.n	24bb2 <_ZN20complex_full_dynamic3app17hdb7a2bf67c8ac092E+0xd2>
   24b4c:	a80e      	add	r0, sp, #56	@ 0x38
   24b4e:	7a00      	ldrb	r0, [r0, #8]
   24b50:	2103      	movs	r1, #3
   24b52:	2802      	cmp	r0, #2
   24b54:	d111      	bne.n	24b7a <_ZN20complex_full_dynamic3app17hdb7a2bf67c8ac092E+0x9a>
   24b56:	201e      	movs	r0, #30
   24b58:	9000      	str	r0, [sp, #0]
   24b5a:	9102      	str	r1, [sp, #8]
   24b5c:	9101      	str	r1, [sp, #4]
   24b5e:	a819      	add	r0, sp, #100	@ 0x64
   24b60:	462b      	mov	r3, r5
   24b62:	2505      	movs	r5, #5
   24b64:	4611      	mov	r1, r2
   24b66:	462a      	mov	r2, r5
   24b68:	9304      	str	r3, [sp, #16]
   24b6a:	f004 fb09 	bl	29180 <_ZN9allow_pin13dynamic_allow17h8bfd3764c146b81aE>
   24b6e:	9819      	ldr	r0, [sp, #100]	@ 0x64
   24b70:	2802      	cmp	r0, #2
   24b72:	d106      	bne.n	24b82 <_ZN20complex_full_dynamic3app17hdb7a2bf67c8ac092E+0xa2>
   24b74:	991a      	ldr	r1, [sp, #104]	@ 0x68
   24b76:	4626      	mov	r6, r4
   24b78:	e009      	b.n	24b8e <_ZN20complex_full_dynamic3app17hdb7a2bf67c8ac092E+0xae>
   24b7a:	4626      	mov	r6, r4
   24b7c:	2e00      	cmp	r6, #0
   24b7e:	d009      	beq.n	24b94 <_ZN20complex_full_dynamic3app17hdb7a2bf67c8ac092E+0xb4>
   24b80:	e017      	b.n	24bb2 <_ZN20complex_full_dynamic3app17hdb7a2bf67c8ac092E+0xd2>
   24b82:	a80e      	add	r0, sp, #56	@ 0x38
   24b84:	9902      	ldr	r1, [sp, #8]
   24b86:	7201      	strb	r1, [r0, #8]
   24b88:	950f      	str	r5, [sp, #60]	@ 0x3c
   24b8a:	4816      	ldr	r0, [pc, #88]	@ (24be4 <_ZN20complex_full_dynamic3app17hdb7a2bf67c8ac092E+0x104>)
   24b8c:	900e      	str	r0, [sp, #56]	@ 0x38
   24b8e:	9d04      	ldr	r5, [sp, #16]
   24b90:	2e00      	cmp	r6, #0
   24b92:	d10e      	bne.n	24bb2 <_ZN20complex_full_dynamic3app17hdb7a2bf67c8ac092E+0xd2>
   24b94:	4813      	ldr	r0, [pc, #76]	@ (24be4 <_ZN20complex_full_dynamic3app17hdb7a2bf67c8ac092E+0x104>)
   24b96:	2109      	movs	r1, #9
   24b98:	2205      	movs	r2, #5
   24b9a:	2600      	movs	r6, #0
   24b9c:	4633      	mov	r3, r6
   24b9e:	df02      	svc	2
   24ba0:	287f      	cmp	r0, #127	@ 0x7f
   24ba2:	d906      	bls.n	24bb2 <_ZN20complex_full_dynamic3app17hdb7a2bf67c8ac092E+0xd2>
   24ba4:	a805      	add	r0, sp, #20
   24ba6:	f004 fad7 	bl	29158 <_ZN9allow_pin12full_dynamic17unshare_if_shared17hc49b4b2653f8b2c9E>
   24baa:	a80e      	add	r0, sp, #56	@ 0x38
   24bac:	f004 fad4 	bl	29158 <_ZN9allow_pin12full_dynamic17unshare_if_shared17hc49b4b2653f8b2c9E>
   24bb0:	4634      	mov	r4, r6
   24bb2:	2c00      	cmp	r4, #0
   24bb4:	d003      	beq.n	24bbe <_ZN20complex_full_dynamic3app17hdb7a2bf67c8ac092E+0xde>
   24bb6:	9c03      	ldr	r4, [sp, #12]
   24bb8:	6061      	str	r1, [r4, #4]
   24bba:	2001      	movs	r0, #1
   24bbc:	e009      	b.n	24bd2 <_ZN20complex_full_dynamic3app17hdb7a2bf67c8ac092E+0xf2>
   24bbe:	a80e      	add	r0, sp, #56	@ 0x38
   24bc0:	f004 faca 	bl	29158 <_ZN9allow_pin12full_dynamic17unshare_if_shared17hc49b4b2653f8b2c9E>
   24bc4:	9c03      	ldr	r4, [sp, #12]
   24bc6:	1c60      	adds	r0, r4, #1
   24bc8:	221e      	movs	r2, #30
   24bca:	4629      	mov	r1, r5
   24bcc:	f004 fc9d 	bl	2950a <__aeabi_memcpy>
   24bd0:	2000      	movs	r0, #0
   24bd2:	7020      	strb	r0, [r4, #0]
   24bd4:	a80e      	add	r0, sp, #56	@ 0x38
   24bd6:	f004 fabf 	bl	29158 <_ZN9allow_pin12full_dynamic17unshare_if_shared17hc49b4b2653f8b2c9E>
   24bda:	a805      	add	r0, sp, #20
   24bdc:	f004 fabc 	bl	29158 <_ZN9allow_pin12full_dynamic17unshare_if_shared17hc49b4b2653f8b2c9E>
   24be0:	b01d      	add	sp, #116	@ 0x74
   24be2:	bdf0      	pop	{r4, r5, r6, r7, pc}
   24be4:	00000cbb 	.word	0x00000cbb

00024be8 <_ZN20complex_full_dynamic3app17hdb8fb1220a2a14f4E>:
   24be8:	b5f0      	push	{r4, r5, r6, r7, lr}
   24bea:	af03      	add	r7, sp, #12
   24bec:	b0a1      	sub	sp, #132	@ 0x84
   24bee:	9003      	str	r0, [sp, #12]
   24bf0:	ac05      	add	r4, sp, #20
   24bf2:	2502      	movs	r5, #2
   24bf4:	7225      	strb	r5, [r4, #8]
   24bf6:	340c      	adds	r4, #12
   24bf8:	2229      	movs	r2, #41	@ 0x29
   24bfa:	9202      	str	r2, [sp, #8]
   24bfc:	4620      	mov	r0, r4
   24bfe:	f004 fc84 	bl	2950a <__aeabi_memcpy>
   24c02:	a813      	add	r0, sp, #76	@ 0x4c
   24c04:	2600      	movs	r6, #0
   24c06:	8486      	strh	r6, [r0, #36]	@ 0x24
   24c08:	9004      	str	r0, [sp, #16]
   24c0a:	7205      	strb	r5, [r0, #8]
   24c0c:	961b      	str	r6, [sp, #108]	@ 0x6c
   24c0e:	961a      	str	r6, [sp, #104]	@ 0x68
   24c10:	9619      	str	r6, [sp, #100]	@ 0x64
   24c12:	9618      	str	r6, [sp, #96]	@ 0x60
   24c14:	9617      	str	r6, [sp, #92]	@ 0x5c
   24c16:	9616      	str	r6, [sp, #88]	@ 0x58
   24c18:	2004      	movs	r0, #4
   24c1a:	9902      	ldr	r1, [sp, #8]
   24c1c:	9100      	str	r1, [sp, #0]
   24c1e:	9002      	str	r0, [sp, #8]
   24c20:	9001      	str	r0, [sp, #4]
   24c22:	a81d      	add	r0, sp, #116	@ 0x74
   24c24:	4930      	ldr	r1, [pc, #192]	@ (24ce8 <_ZN20complex_full_dynamic3app17hdb8fb1220a2a14f4E+0x100>)
   24c26:	2505      	movs	r5, #5
   24c28:	462a      	mov	r2, r5
   24c2a:	4623      	mov	r3, r4
   24c2c:	f004 faa8 	bl	29180 <_ZN9allow_pin13dynamic_allow17h8bfd3764c146b81aE>
   24c30:	981d      	ldr	r0, [sp, #116]	@ 0x74
   24c32:	2802      	cmp	r0, #2
   24c34:	d102      	bne.n	24c3c <_ZN20complex_full_dynamic3app17hdb8fb1220a2a14f4E+0x54>
   24c36:	991e      	ldr	r1, [sp, #120]	@ 0x78
   24c38:	4a2b      	ldr	r2, [pc, #172]	@ (24ce8 <_ZN20complex_full_dynamic3app17hdb8fb1220a2a14f4E+0x100>)
   24c3a:	e005      	b.n	24c48 <_ZN20complex_full_dynamic3app17hdb8fb1220a2a14f4E+0x60>
   24c3c:	a905      	add	r1, sp, #20
   24c3e:	9a02      	ldr	r2, [sp, #8]
   24c40:	720a      	strb	r2, [r1, #8]
   24c42:	9506      	str	r5, [sp, #24]
   24c44:	4a28      	ldr	r2, [pc, #160]	@ (24ce8 <_ZN20complex_full_dynamic3app17hdb8fb1220a2a14f4E+0x100>)
   24c46:	9205      	str	r2, [sp, #20]
   24c48:	9d04      	ldr	r5, [sp, #16]
   24c4a:	350c      	adds	r5, #12
   24c4c:	2401      	movs	r4, #1
   24c4e:	2802      	cmp	r0, #2
   24c50:	d030      	beq.n	24cb4 <_ZN20complex_full_dynamic3app17hdb8fb1220a2a14f4E+0xcc>
   24c52:	a813      	add	r0, sp, #76	@ 0x4c
   24c54:	7a00      	ldrb	r0, [r0, #8]
   24c56:	2802      	cmp	r0, #2
   24c58:	d110      	bne.n	24c7c <_ZN20complex_full_dynamic3app17hdb8fb1220a2a14f4E+0x94>
   24c5a:	462b      	mov	r3, r5
   24c5c:	2503      	movs	r5, #3
   24c5e:	201a      	movs	r0, #26
   24c60:	9000      	str	r0, [sp, #0]
   24c62:	9501      	str	r5, [sp, #4]
   24c64:	a81d      	add	r0, sp, #116	@ 0x74
   24c66:	4611      	mov	r1, r2
   24c68:	462a      	mov	r2, r5
   24c6a:	9304      	str	r3, [sp, #16]
   24c6c:	f004 fa88 	bl	29180 <_ZN9allow_pin13dynamic_allow17h8bfd3764c146b81aE>
   24c70:	981d      	ldr	r0, [sp, #116]	@ 0x74
   24c72:	2802      	cmp	r0, #2
   24c74:	d107      	bne.n	24c86 <_ZN20complex_full_dynamic3app17hdb8fb1220a2a14f4E+0x9e>
   24c76:	991e      	ldr	r1, [sp, #120]	@ 0x78
   24c78:	4626      	mov	r6, r4
   24c7a:	e009      	b.n	24c90 <_ZN20complex_full_dynamic3app17hdb8fb1220a2a14f4E+0xa8>
   24c7c:	2103      	movs	r1, #3
   24c7e:	4626      	mov	r6, r4
   24c80:	2e00      	cmp	r6, #0
   24c82:	d008      	beq.n	24c96 <_ZN20complex_full_dynamic3app17hdb8fb1220a2a14f4E+0xae>
   24c84:	e016      	b.n	24cb4 <_ZN20complex_full_dynamic3app17hdb8fb1220a2a14f4E+0xcc>
   24c86:	a813      	add	r0, sp, #76	@ 0x4c
   24c88:	7205      	strb	r5, [r0, #8]
   24c8a:	9514      	str	r5, [sp, #80]	@ 0x50
   24c8c:	4816      	ldr	r0, [pc, #88]	@ (24ce8 <_ZN20complex_full_dynamic3app17hdb8fb1220a2a14f4E+0x100>)
   24c8e:	9013      	str	r0, [sp, #76]	@ 0x4c
   24c90:	9d04      	ldr	r5, [sp, #16]
   24c92:	2e00      	cmp	r6, #0
   24c94:	d10e      	bne.n	24cb4 <_ZN20complex_full_dynamic3app17hdb8fb1220a2a14f4E+0xcc>
   24c96:	4814      	ldr	r0, [pc, #80]	@ (24ce8 <_ZN20complex_full_dynamic3app17hdb8fb1220a2a14f4E+0x100>)
   24c98:	2105      	movs	r1, #5
   24c9a:	2203      	movs	r2, #3
   24c9c:	2600      	movs	r6, #0
   24c9e:	4633      	mov	r3, r6
   24ca0:	df02      	svc	2
   24ca2:	287f      	cmp	r0, #127	@ 0x7f
   24ca4:	d906      	bls.n	24cb4 <_ZN20complex_full_dynamic3app17hdb8fb1220a2a14f4E+0xcc>
   24ca6:	a805      	add	r0, sp, #20
   24ca8:	f004 fa56 	bl	29158 <_ZN9allow_pin12full_dynamic17unshare_if_shared17hc49b4b2653f8b2c9E>
   24cac:	a813      	add	r0, sp, #76	@ 0x4c
   24cae:	f004 fa53 	bl	29158 <_ZN9allow_pin12full_dynamic17unshare_if_shared17hc49b4b2653f8b2c9E>
   24cb2:	4634      	mov	r4, r6
   24cb4:	2c00      	cmp	r4, #0
   24cb6:	d003      	beq.n	24cc0 <_ZN20complex_full_dynamic3app17hdb8fb1220a2a14f4E+0xd8>
   24cb8:	9c03      	ldr	r4, [sp, #12]
   24cba:	6061      	str	r1, [r4, #4]
   24cbc:	2001      	movs	r0, #1
   24cbe:	e009      	b.n	24cd4 <_ZN20complex_full_dynamic3app17hdb8fb1220a2a14f4E+0xec>
   24cc0:	a813      	add	r0, sp, #76	@ 0x4c
   24cc2:	f004 fa49 	bl	29158 <_ZN9allow_pin12full_dynamic17unshare_if_shared17hc49b4b2653f8b2c9E>
   24cc6:	9c03      	ldr	r4, [sp, #12]
   24cc8:	1c60      	adds	r0, r4, #1
   24cca:	221a      	movs	r2, #26
   24ccc:	4629      	mov	r1, r5
   24cce:	f004 fc1c 	bl	2950a <__aeabi_memcpy>
   24cd2:	2000      	movs	r0, #0
   24cd4:	7020      	strb	r0, [r4, #0]
   24cd6:	a813      	add	r0, sp, #76	@ 0x4c
   24cd8:	f004 fa3e 	bl	29158 <_ZN9allow_pin12full_dynamic17unshare_if_shared17hc49b4b2653f8b2c9E>
   24cdc:	a805      	add	r0, sp, #20
   24cde:	f004 fa3b 	bl	29158 <_ZN9allow_pin12full_dynamic17unshare_if_shared17hc49b4b2653f8b2c9E>
   24ce2:	b021      	add	sp, #132	@ 0x84
   24ce4:	bdf0      	pop	{r4, r5, r6, r7, pc}
   24ce6:	46c0      	nop			@ (mov r8, r8)
   24ce8:	00002048 	.word	0x00002048

00024cec <_ZN20complex_full_dynamic3app17hdc89e11b7cb8e7d9E>:
   24cec:	b5f0      	push	{r4, r5, r6, r7, lr}
   24cee:	af03      	add	r7, sp, #12
   24cf0:	b0ab      	sub	sp, #172	@ 0xac
   24cf2:	9004      	str	r0, [sp, #16]
   24cf4:	ae06      	add	r6, sp, #24
   24cf6:	2402      	movs	r4, #2
   24cf8:	7234      	strb	r4, [r6, #8]
   24cfa:	360c      	adds	r6, #12
   24cfc:	2555      	movs	r5, #85	@ 0x55
   24cfe:	4630      	mov	r0, r6
   24d00:	462a      	mov	r2, r5
   24d02:	f004 fc02 	bl	2950a <__aeabi_memcpy>
   24d06:	a81f      	add	r0, sp, #124	@ 0x7c
   24d08:	2100      	movs	r1, #0
   24d0a:	7701      	strb	r1, [r0, #28]
   24d0c:	9005      	str	r0, [sp, #20]
   24d0e:	7204      	strb	r4, [r0, #8]
   24d10:	9125      	str	r1, [sp, #148]	@ 0x94
   24d12:	9124      	str	r1, [sp, #144]	@ 0x90
   24d14:	9123      	str	r1, [sp, #140]	@ 0x8c
   24d16:	9102      	str	r1, [sp, #8]
   24d18:	9122      	str	r1, [sp, #136]	@ 0x88
   24d1a:	2004      	movs	r0, #4
   24d1c:	9500      	str	r5, [sp, #0]
   24d1e:	9003      	str	r0, [sp, #12]
   24d20:	9001      	str	r0, [sp, #4]
   24d22:	a827      	add	r0, sp, #156	@ 0x9c
   24d24:	4d33      	ldr	r5, [pc, #204]	@ (24df4 <_ZN20complex_full_dynamic3app17hdc89e11b7cb8e7d9E+0x108>)
   24d26:	4629      	mov	r1, r5
   24d28:	4622      	mov	r2, r4
   24d2a:	4633      	mov	r3, r6
   24d2c:	f004 fa28 	bl	29180 <_ZN9allow_pin13dynamic_allow17h8bfd3764c146b81aE>
   24d30:	9827      	ldr	r0, [sp, #156]	@ 0x9c
   24d32:	2802      	cmp	r0, #2
   24d34:	d102      	bne.n	24d3c <_ZN20complex_full_dynamic3app17hdc89e11b7cb8e7d9E+0x50>
   24d36:	462a      	mov	r2, r5
   24d38:	9928      	ldr	r1, [sp, #160]	@ 0xa0
   24d3a:	e005      	b.n	24d48 <_ZN20complex_full_dynamic3app17hdc89e11b7cb8e7d9E+0x5c>
   24d3c:	a906      	add	r1, sp, #24
   24d3e:	9a03      	ldr	r2, [sp, #12]
   24d40:	720a      	strb	r2, [r1, #8]
   24d42:	9407      	str	r4, [sp, #28]
   24d44:	462a      	mov	r2, r5
   24d46:	9506      	str	r5, [sp, #24]
   24d48:	9e05      	ldr	r6, [sp, #20]
   24d4a:	360c      	adds	r6, #12
   24d4c:	2501      	movs	r5, #1
   24d4e:	2802      	cmp	r0, #2
   24d50:	d037      	beq.n	24dc2 <_ZN20complex_full_dynamic3app17hdc89e11b7cb8e7d9E+0xd6>
   24d52:	a81f      	add	r0, sp, #124	@ 0x7c
   24d54:	7a00      	ldrb	r0, [r0, #8]
   24d56:	2802      	cmp	r0, #2
   24d58:	d116      	bne.n	24d88 <_ZN20complex_full_dynamic3app17hdc89e11b7cb8e7d9E+0x9c>
   24d5a:	4633      	mov	r3, r6
   24d5c:	2103      	movs	r1, #3
   24d5e:	2011      	movs	r0, #17
   24d60:	9000      	str	r0, [sp, #0]
   24d62:	9103      	str	r1, [sp, #12]
   24d64:	9101      	str	r1, [sp, #4]
   24d66:	a827      	add	r0, sp, #156	@ 0x9c
   24d68:	2402      	movs	r4, #2
   24d6a:	4616      	mov	r6, r2
   24d6c:	4611      	mov	r1, r2
   24d6e:	4622      	mov	r2, r4
   24d70:	9305      	str	r3, [sp, #20]
   24d72:	f004 fa05 	bl	29180 <_ZN9allow_pin13dynamic_allow17h8bfd3764c146b81aE>
   24d76:	9827      	ldr	r0, [sp, #156]	@ 0x9c
   24d78:	2802      	cmp	r0, #2
   24d7a:	d10a      	bne.n	24d92 <_ZN20complex_full_dynamic3app17hdc89e11b7cb8e7d9E+0xa6>
   24d7c:	9928      	ldr	r1, [sp, #160]	@ 0xa0
   24d7e:	4628      	mov	r0, r5
   24d80:	9e05      	ldr	r6, [sp, #20]
   24d82:	2800      	cmp	r0, #0
   24d84:	d00e      	beq.n	24da4 <_ZN20complex_full_dynamic3app17hdc89e11b7cb8e7d9E+0xb8>
   24d86:	e01c      	b.n	24dc2 <_ZN20complex_full_dynamic3app17hdc89e11b7cb8e7d9E+0xd6>
   24d88:	2103      	movs	r1, #3
   24d8a:	4628      	mov	r0, r5
   24d8c:	2800      	cmp	r0, #0
   24d8e:	d009      	beq.n	24da4 <_ZN20complex_full_dynamic3app17hdc89e11b7cb8e7d9E+0xb8>
   24d90:	e017      	b.n	24dc2 <_ZN20complex_full_dynamic3app17hdc89e11b7cb8e7d9E+0xd6>
   24d92:	a81f      	add	r0, sp, #124	@ 0x7c
   24d94:	9903      	ldr	r1, [sp, #12]
   24d96:	7201      	strb	r1, [r0, #8]
   24d98:	9420      	str	r4, [sp, #128]	@ 0x80
   24d9a:	961f      	str	r6, [sp, #124]	@ 0x7c
   24d9c:	9e05      	ldr	r6, [sp, #20]
   24d9e:	9802      	ldr	r0, [sp, #8]
   24da0:	2800      	cmp	r0, #0
   24da2:	d10e      	bne.n	24dc2 <_ZN20complex_full_dynamic3app17hdc89e11b7cb8e7d9E+0xd6>
   24da4:	4813      	ldr	r0, [pc, #76]	@ (24df4 <_ZN20complex_full_dynamic3app17hdc89e11b7cb8e7d9E+0x108>)
   24da6:	2102      	movs	r1, #2
   24da8:	2400      	movs	r4, #0
   24daa:	460a      	mov	r2, r1
   24dac:	4623      	mov	r3, r4
   24dae:	df02      	svc	2
   24db0:	287f      	cmp	r0, #127	@ 0x7f
   24db2:	d906      	bls.n	24dc2 <_ZN20complex_full_dynamic3app17hdc89e11b7cb8e7d9E+0xd6>
   24db4:	a806      	add	r0, sp, #24
   24db6:	f004 f9cf 	bl	29158 <_ZN9allow_pin12full_dynamic17unshare_if_shared17hc49b4b2653f8b2c9E>
   24dba:	a81f      	add	r0, sp, #124	@ 0x7c
   24dbc:	f004 f9cc 	bl	29158 <_ZN9allow_pin12full_dynamic17unshare_if_shared17hc49b4b2653f8b2c9E>
   24dc0:	4625      	mov	r5, r4
   24dc2:	2d00      	cmp	r5, #0
   24dc4:	d003      	beq.n	24dce <_ZN20complex_full_dynamic3app17hdc89e11b7cb8e7d9E+0xe2>
   24dc6:	9c04      	ldr	r4, [sp, #16]
   24dc8:	6061      	str	r1, [r4, #4]
   24dca:	2001      	movs	r0, #1
   24dcc:	e009      	b.n	24de2 <_ZN20complex_full_dynamic3app17hdc89e11b7cb8e7d9E+0xf6>
   24dce:	a81f      	add	r0, sp, #124	@ 0x7c
   24dd0:	f004 f9c2 	bl	29158 <_ZN9allow_pin12full_dynamic17unshare_if_shared17hc49b4b2653f8b2c9E>
   24dd4:	9c04      	ldr	r4, [sp, #16]
   24dd6:	1c60      	adds	r0, r4, #1
   24dd8:	2211      	movs	r2, #17
   24dda:	4631      	mov	r1, r6
   24ddc:	f004 fb95 	bl	2950a <__aeabi_memcpy>
   24de0:	2000      	movs	r0, #0
   24de2:	7020      	strb	r0, [r4, #0]
   24de4:	a81f      	add	r0, sp, #124	@ 0x7c
   24de6:	f004 f9b7 	bl	29158 <_ZN9allow_pin12full_dynamic17unshare_if_shared17hc49b4b2653f8b2c9E>
   24dea:	a806      	add	r0, sp, #24
   24dec:	f004 f9b4 	bl	29158 <_ZN9allow_pin12full_dynamic17unshare_if_shared17hc49b4b2653f8b2c9E>
   24df0:	b02b      	add	sp, #172	@ 0xac
   24df2:	bdf0      	pop	{r4, r5, r6, r7, pc}
   24df4:	00000c89 	.word	0x00000c89

00024df8 <_ZN20complex_full_dynamic3app17hdd57b4d3528d580cE>:
   24df8:	b5f0      	push	{r4, r5, r6, r7, lr}
   24dfa:	af03      	add	r7, sp, #12
   24dfc:	b0b9      	sub	sp, #228	@ 0xe4
   24dfe:	9005      	str	r0, [sp, #20]
   24e00:	ae06      	add	r6, sp, #24
   24e02:	2002      	movs	r0, #2
   24e04:	9004      	str	r0, [sp, #16]
   24e06:	7230      	strb	r0, [r6, #8]
   24e08:	360c      	adds	r6, #12
   24e0a:	2553      	movs	r5, #83	@ 0x53
   24e0c:	4630      	mov	r0, r6
   24e0e:	462a      	mov	r2, r5
   24e10:	f004 fb7b 	bl	2950a <__aeabi_memcpy>
   24e14:	ac1e      	add	r4, sp, #120	@ 0x78
   24e16:	4620      	mov	r0, r4
   24e18:	300c      	adds	r0, #12
   24e1a:	214d      	movs	r1, #77	@ 0x4d
   24e1c:	9003      	str	r0, [sp, #12]
   24e1e:	9102      	str	r1, [sp, #8]
   24e20:	f004 f9c6 	bl	291b0 <__aeabi_memclr4>
   24e24:	9804      	ldr	r0, [sp, #16]
   24e26:	7220      	strb	r0, [r4, #8]
   24e28:	2404      	movs	r4, #4
   24e2a:	9500      	str	r5, [sp, #0]
   24e2c:	9401      	str	r4, [sp, #4]
   24e2e:	a835      	add	r0, sp, #212	@ 0xd4
   24e30:	492e      	ldr	r1, [pc, #184]	@ (24eec <_ZN20complex_full_dynamic3app17hdd57b4d3528d580cE+0xf4>)
   24e32:	2509      	movs	r5, #9
   24e34:	462a      	mov	r2, r5
   24e36:	4633      	mov	r3, r6
   24e38:	f004 f9a2 	bl	29180 <_ZN9allow_pin13dynamic_allow17h8bfd3764c146b81aE>
   24e3c:	9835      	ldr	r0, [sp, #212]	@ 0xd4
   24e3e:	2802      	cmp	r0, #2
   24e40:	d102      	bne.n	24e48 <_ZN20complex_full_dynamic3app17hdd57b4d3528d580cE+0x50>
   24e42:	9936      	ldr	r1, [sp, #216]	@ 0xd8
   24e44:	4a29      	ldr	r2, [pc, #164]	@ (24eec <_ZN20complex_full_dynamic3app17hdd57b4d3528d580cE+0xf4>)
   24e46:	e004      	b.n	24e52 <_ZN20complex_full_dynamic3app17hdd57b4d3528d580cE+0x5a>
   24e48:	a906      	add	r1, sp, #24
   24e4a:	720c      	strb	r4, [r1, #8]
   24e4c:	9507      	str	r5, [sp, #28]
   24e4e:	4a27      	ldr	r2, [pc, #156]	@ (24eec <_ZN20complex_full_dynamic3app17hdd57b4d3528d580cE+0xf4>)
   24e50:	9206      	str	r2, [sp, #24]
   24e52:	2501      	movs	r5, #1
   24e54:	2802      	cmp	r0, #2
   24e56:	d02f      	beq.n	24eb8 <_ZN20complex_full_dynamic3app17hdd57b4d3528d580cE+0xc0>
   24e58:	a81e      	add	r0, sp, #120	@ 0x78
   24e5a:	7a00      	ldrb	r0, [r0, #8]
   24e5c:	2802      	cmp	r0, #2
   24e5e:	d10f      	bne.n	24e80 <_ZN20complex_full_dynamic3app17hdd57b4d3528d580cE+0x88>
   24e60:	2603      	movs	r6, #3
   24e62:	9802      	ldr	r0, [sp, #8]
   24e64:	9000      	str	r0, [sp, #0]
   24e66:	9601      	str	r6, [sp, #4]
   24e68:	a835      	add	r0, sp, #212	@ 0xd4
   24e6a:	2404      	movs	r4, #4
   24e6c:	4611      	mov	r1, r2
   24e6e:	4622      	mov	r2, r4
   24e70:	9b03      	ldr	r3, [sp, #12]
   24e72:	f004 f985 	bl	29180 <_ZN9allow_pin13dynamic_allow17h8bfd3764c146b81aE>
   24e76:	9835      	ldr	r0, [sp, #212]	@ 0xd4
   24e78:	2802      	cmp	r0, #2
   24e7a:	d106      	bne.n	24e8a <_ZN20complex_full_dynamic3app17hdd57b4d3528d580cE+0x92>
   24e7c:	9936      	ldr	r1, [sp, #216]	@ 0xd8
   24e7e:	e000      	b.n	24e82 <_ZN20complex_full_dynamic3app17hdd57b4d3528d580cE+0x8a>
   24e80:	2103      	movs	r1, #3
   24e82:	4628      	mov	r0, r5
   24e84:	2800      	cmp	r0, #0
   24e86:	d008      	beq.n	24e9a <_ZN20complex_full_dynamic3app17hdd57b4d3528d580cE+0xa2>
   24e88:	e016      	b.n	24eb8 <_ZN20complex_full_dynamic3app17hdd57b4d3528d580cE+0xc0>
   24e8a:	a81e      	add	r0, sp, #120	@ 0x78
   24e8c:	7206      	strb	r6, [r0, #8]
   24e8e:	941f      	str	r4, [sp, #124]	@ 0x7c
   24e90:	4816      	ldr	r0, [pc, #88]	@ (24eec <_ZN20complex_full_dynamic3app17hdd57b4d3528d580cE+0xf4>)
   24e92:	901e      	str	r0, [sp, #120]	@ 0x78
   24e94:	2000      	movs	r0, #0
   24e96:	2800      	cmp	r0, #0
   24e98:	d10e      	bne.n	24eb8 <_ZN20complex_full_dynamic3app17hdd57b4d3528d580cE+0xc0>
   24e9a:	4814      	ldr	r0, [pc, #80]	@ (24eec <_ZN20complex_full_dynamic3app17hdd57b4d3528d580cE+0xf4>)
   24e9c:	2109      	movs	r1, #9
   24e9e:	2204      	movs	r2, #4
   24ea0:	2400      	movs	r4, #0
   24ea2:	4623      	mov	r3, r4
   24ea4:	df02      	svc	2
   24ea6:	287f      	cmp	r0, #127	@ 0x7f
   24ea8:	d906      	bls.n	24eb8 <_ZN20complex_full_dynamic3app17hdd57b4d3528d580cE+0xc0>
   24eaa:	a806      	add	r0, sp, #24
   24eac:	f004 f954 	bl	29158 <_ZN9allow_pin12full_dynamic17unshare_if_shared17hc49b4b2653f8b2c9E>
   24eb0:	a81e      	add	r0, sp, #120	@ 0x78
   24eb2:	f004 f951 	bl	29158 <_ZN9allow_pin12full_dynamic17unshare_if_shared17hc49b4b2653f8b2c9E>
   24eb6:	4625      	mov	r5, r4
   24eb8:	2d00      	cmp	r5, #0
   24eba:	d003      	beq.n	24ec4 <_ZN20complex_full_dynamic3app17hdd57b4d3528d580cE+0xcc>
   24ebc:	9c05      	ldr	r4, [sp, #20]
   24ebe:	6061      	str	r1, [r4, #4]
   24ec0:	2001      	movs	r0, #1
   24ec2:	e009      	b.n	24ed8 <_ZN20complex_full_dynamic3app17hdd57b4d3528d580cE+0xe0>
   24ec4:	a81e      	add	r0, sp, #120	@ 0x78
   24ec6:	f004 f947 	bl	29158 <_ZN9allow_pin12full_dynamic17unshare_if_shared17hc49b4b2653f8b2c9E>
   24eca:	9c05      	ldr	r4, [sp, #20]
   24ecc:	1c60      	adds	r0, r4, #1
   24ece:	224d      	movs	r2, #77	@ 0x4d
   24ed0:	9903      	ldr	r1, [sp, #12]
   24ed2:	f004 fb1a 	bl	2950a <__aeabi_memcpy>
   24ed6:	2000      	movs	r0, #0
   24ed8:	7020      	strb	r0, [r4, #0]
   24eda:	a81e      	add	r0, sp, #120	@ 0x78
   24edc:	f004 f93c 	bl	29158 <_ZN9allow_pin12full_dynamic17unshare_if_shared17hc49b4b2653f8b2c9E>
   24ee0:	a806      	add	r0, sp, #24
   24ee2:	f004 f939 	bl	29158 <_ZN9allow_pin12full_dynamic17unshare_if_shared17hc49b4b2653f8b2c9E>
   24ee6:	b039      	add	sp, #228	@ 0xe4
   24ee8:	bdf0      	pop	{r4, r5, r6, r7, pc}
   24eea:	46c0      	nop			@ (mov r8, r8)
   24eec:	000016ba 	.word	0x000016ba

00024ef0 <_ZN20complex_full_dynamic3app17hdd9c8e10bc803531E>:
   24ef0:	b5f0      	push	{r4, r5, r6, r7, lr}
   24ef2:	af03      	add	r7, sp, #12
   24ef4:	b0a7      	sub	sp, #156	@ 0x9c
   24ef6:	9006      	str	r0, [sp, #24]
   24ef8:	ad07      	add	r5, sp, #28
   24efa:	2002      	movs	r0, #2
   24efc:	9005      	str	r0, [sp, #20]
   24efe:	7228      	strb	r0, [r5, #8]
   24f00:	350c      	adds	r5, #12
   24f02:	262c      	movs	r6, #44	@ 0x2c
   24f04:	4628      	mov	r0, r5
   24f06:	4632      	mov	r2, r6
   24f08:	f004 faff 	bl	2950a <__aeabi_memcpy>
   24f0c:	ac15      	add	r4, sp, #84	@ 0x54
   24f0e:	4620      	mov	r0, r4
   24f10:	300c      	adds	r0, #12
   24f12:	212a      	movs	r1, #42	@ 0x2a
   24f14:	9004      	str	r0, [sp, #16]
   24f16:	9103      	str	r1, [sp, #12]
   24f18:	f004 f94a 	bl	291b0 <__aeabi_memclr4>
   24f1c:	9805      	ldr	r0, [sp, #20]
   24f1e:	7220      	strb	r0, [r4, #8]
   24f20:	2404      	movs	r4, #4
   24f22:	9600      	str	r6, [sp, #0]
   24f24:	9401      	str	r4, [sp, #4]
   24f26:	a823      	add	r0, sp, #140	@ 0x8c
   24f28:	4932      	ldr	r1, [pc, #200]	@ (24ff4 <_ZN20complex_full_dynamic3app17hdd9c8e10bc803531E+0x104>)
   24f2a:	2603      	movs	r6, #3
   24f2c:	4632      	mov	r2, r6
   24f2e:	462b      	mov	r3, r5
   24f30:	f004 f926 	bl	29180 <_ZN9allow_pin13dynamic_allow17h8bfd3764c146b81aE>
   24f34:	9823      	ldr	r0, [sp, #140]	@ 0x8c
   24f36:	2802      	cmp	r0, #2
   24f38:	d102      	bne.n	24f40 <_ZN20complex_full_dynamic3app17hdd9c8e10bc803531E+0x50>
   24f3a:	4a2e      	ldr	r2, [pc, #184]	@ (24ff4 <_ZN20complex_full_dynamic3app17hdd9c8e10bc803531E+0x104>)
   24f3c:	9924      	ldr	r1, [sp, #144]	@ 0x90
   24f3e:	e005      	b.n	24f4c <_ZN20complex_full_dynamic3app17hdd9c8e10bc803531E+0x5c>
   24f40:	a907      	add	r1, sp, #28
   24f42:	720c      	strb	r4, [r1, #8]
   24f44:	9608      	str	r6, [sp, #32]
   24f46:	492b      	ldr	r1, [pc, #172]	@ (24ff4 <_ZN20complex_full_dynamic3app17hdd9c8e10bc803531E+0x104>)
   24f48:	460a      	mov	r2, r1
   24f4a:	9107      	str	r1, [sp, #28]
   24f4c:	2401      	movs	r4, #1
   24f4e:	2802      	cmp	r0, #2
   24f50:	d01a      	beq.n	24f88 <_ZN20complex_full_dynamic3app17hdd9c8e10bc803531E+0x98>
   24f52:	a815      	add	r0, sp, #84	@ 0x54
   24f54:	7a00      	ldrb	r0, [r0, #8]
   24f56:	2802      	cmp	r0, #2
   24f58:	4625      	mov	r5, r4
   24f5a:	d112      	bne.n	24f82 <_ZN20complex_full_dynamic3app17hdd9c8e10bc803531E+0x92>
   24f5c:	9405      	str	r4, [sp, #20]
   24f5e:	2403      	movs	r4, #3
   24f60:	9803      	ldr	r0, [sp, #12]
   24f62:	9000      	str	r0, [sp, #0]
   24f64:	9401      	str	r4, [sp, #4]
   24f66:	a823      	add	r0, sp, #140	@ 0x8c
   24f68:	2500      	movs	r5, #0
   24f6a:	4616      	mov	r6, r2
   24f6c:	4611      	mov	r1, r2
   24f6e:	462a      	mov	r2, r5
   24f70:	9b04      	ldr	r3, [sp, #16]
   24f72:	f004 f905 	bl	29180 <_ZN9allow_pin13dynamic_allow17h8bfd3764c146b81aE>
   24f76:	9823      	ldr	r0, [sp, #140]	@ 0x8c
   24f78:	2802      	cmp	r0, #2
   24f7a:	d10b      	bne.n	24f94 <_ZN20complex_full_dynamic3app17hdd9c8e10bc803531E+0xa4>
   24f7c:	9e24      	ldr	r6, [sp, #144]	@ 0x90
   24f7e:	9c05      	ldr	r4, [sp, #20]
   24f80:	4625      	mov	r5, r4
   24f82:	2d00      	cmp	r5, #0
   24f84:	d00d      	beq.n	24fa2 <_ZN20complex_full_dynamic3app17hdd9c8e10bc803531E+0xb2>
   24f86:	4631      	mov	r1, r6
   24f88:	9d06      	ldr	r5, [sp, #24]
   24f8a:	2c00      	cmp	r4, #0
   24f8c:	d01f      	beq.n	24fce <_ZN20complex_full_dynamic3app17hdd9c8e10bc803531E+0xde>
   24f8e:	6069      	str	r1, [r5, #4]
   24f90:	2001      	movs	r0, #1
   24f92:	e025      	b.n	24fe0 <_ZN20complex_full_dynamic3app17hdd9c8e10bc803531E+0xf0>
   24f94:	a815      	add	r0, sp, #84	@ 0x54
   24f96:	7204      	strb	r4, [r0, #8]
   24f98:	9516      	str	r5, [sp, #88]	@ 0x58
   24f9a:	9615      	str	r6, [sp, #84]	@ 0x54
   24f9c:	9c05      	ldr	r4, [sp, #20]
   24f9e:	2d00      	cmp	r5, #0
   24fa0:	d1f1      	bne.n	24f86 <_ZN20complex_full_dynamic3app17hdd9c8e10bc803531E+0x96>
   24fa2:	4626      	mov	r6, r4
   24fa4:	4813      	ldr	r0, [pc, #76]	@ (24ff4 <_ZN20complex_full_dynamic3app17hdd9c8e10bc803531E+0x104>)
   24fa6:	2103      	movs	r1, #3
   24fa8:	2400      	movs	r4, #0
   24faa:	4622      	mov	r2, r4
   24fac:	4623      	mov	r3, r4
   24fae:	df02      	svc	2
   24fb0:	287f      	cmp	r0, #127	@ 0x7f
   24fb2:	9d06      	ldr	r5, [sp, #24]
   24fb4:	d803      	bhi.n	24fbe <_ZN20complex_full_dynamic3app17hdd9c8e10bc803531E+0xce>
   24fb6:	4634      	mov	r4, r6
   24fb8:	2c00      	cmp	r4, #0
   24fba:	d1e8      	bne.n	24f8e <_ZN20complex_full_dynamic3app17hdd9c8e10bc803531E+0x9e>
   24fbc:	e007      	b.n	24fce <_ZN20complex_full_dynamic3app17hdd9c8e10bc803531E+0xde>
   24fbe:	a807      	add	r0, sp, #28
   24fc0:	f004 f8ca 	bl	29158 <_ZN9allow_pin12full_dynamic17unshare_if_shared17hc49b4b2653f8b2c9E>
   24fc4:	a815      	add	r0, sp, #84	@ 0x54
   24fc6:	f004 f8c7 	bl	29158 <_ZN9allow_pin12full_dynamic17unshare_if_shared17hc49b4b2653f8b2c9E>
   24fca:	2c00      	cmp	r4, #0
   24fcc:	d1df      	bne.n	24f8e <_ZN20complex_full_dynamic3app17hdd9c8e10bc803531E+0x9e>
   24fce:	a815      	add	r0, sp, #84	@ 0x54
   24fd0:	f004 f8c2 	bl	29158 <_ZN9allow_pin12full_dynamic17unshare_if_shared17hc49b4b2653f8b2c9E>
   24fd4:	1c68      	adds	r0, r5, #1
   24fd6:	222a      	movs	r2, #42	@ 0x2a
   24fd8:	9904      	ldr	r1, [sp, #16]
   24fda:	f004 fa96 	bl	2950a <__aeabi_memcpy>
   24fde:	2000      	movs	r0, #0
   24fe0:	7028      	strb	r0, [r5, #0]
   24fe2:	a815      	add	r0, sp, #84	@ 0x54
   24fe4:	f004 f8b8 	bl	29158 <_ZN9allow_pin12full_dynamic17unshare_if_shared17hc49b4b2653f8b2c9E>
   24fe8:	a807      	add	r0, sp, #28
   24fea:	f004 f8b5 	bl	29158 <_ZN9allow_pin12full_dynamic17unshare_if_shared17hc49b4b2653f8b2c9E>
   24fee:	b027      	add	sp, #156	@ 0x9c
   24ff0:	bdf0      	pop	{r4, r5, r6, r7, pc}
   24ff2:	46c0      	nop			@ (mov r8, r8)
   24ff4:	000024f0 	.word	0x000024f0

00024ff8 <_ZN20complex_full_dynamic3app17he3a6502364d95586E>:
   24ff8:	b5f0      	push	{r4, r5, r6, r7, lr}
   24ffa:	af03      	add	r7, sp, #12
   24ffc:	b0a3      	sub	sp, #140	@ 0x8c
   24ffe:	9005      	str	r0, [sp, #20]
   25000:	ae06      	add	r6, sp, #24
   25002:	2002      	movs	r0, #2
   25004:	9004      	str	r0, [sp, #16]
   25006:	7230      	strb	r0, [r6, #8]
   25008:	360c      	adds	r6, #12
   2500a:	251e      	movs	r5, #30
   2500c:	4630      	mov	r0, r6
   2500e:	462a      	mov	r2, r5
   25010:	f004 fa7b 	bl	2950a <__aeabi_memcpy>
   25014:	ac11      	add	r4, sp, #68	@ 0x44
   25016:	4620      	mov	r0, r4
   25018:	300c      	adds	r0, #12
   2501a:	212c      	movs	r1, #44	@ 0x2c
   2501c:	9003      	str	r0, [sp, #12]
   2501e:	9102      	str	r1, [sp, #8]
   25020:	f004 f8c6 	bl	291b0 <__aeabi_memclr4>
   25024:	9804      	ldr	r0, [sp, #16]
   25026:	7220      	strb	r0, [r4, #8]
   25028:	2404      	movs	r4, #4
   2502a:	9500      	str	r5, [sp, #0]
   2502c:	9401      	str	r4, [sp, #4]
   2502e:	a81f      	add	r0, sp, #124	@ 0x7c
   25030:	492d      	ldr	r1, [pc, #180]	@ (250e8 <_ZN20complex_full_dynamic3app17he3a6502364d95586E+0xf0>)
   25032:	2507      	movs	r5, #7
   25034:	462a      	mov	r2, r5
   25036:	4633      	mov	r3, r6
   25038:	f004 f8a2 	bl	29180 <_ZN9allow_pin13dynamic_allow17h8bfd3764c146b81aE>
   2503c:	981f      	ldr	r0, [sp, #124]	@ 0x7c
   2503e:	2802      	cmp	r0, #2
   25040:	d102      	bne.n	25048 <_ZN20complex_full_dynamic3app17he3a6502364d95586E+0x50>
   25042:	9920      	ldr	r1, [sp, #128]	@ 0x80
   25044:	4a28      	ldr	r2, [pc, #160]	@ (250e8 <_ZN20complex_full_dynamic3app17he3a6502364d95586E+0xf0>)
   25046:	e004      	b.n	25052 <_ZN20complex_full_dynamic3app17he3a6502364d95586E+0x5a>
   25048:	a906      	add	r1, sp, #24
   2504a:	720c      	strb	r4, [r1, #8]
   2504c:	9507      	str	r5, [sp, #28]
   2504e:	4a26      	ldr	r2, [pc, #152]	@ (250e8 <_ZN20complex_full_dynamic3app17he3a6502364d95586E+0xf0>)
   25050:	9206      	str	r2, [sp, #24]
   25052:	2501      	movs	r5, #1
   25054:	2802      	cmp	r0, #2
   25056:	d02e      	beq.n	250b6 <_ZN20complex_full_dynamic3app17he3a6502364d95586E+0xbe>
   25058:	a811      	add	r0, sp, #68	@ 0x44
   2505a:	7a00      	ldrb	r0, [r0, #8]
   2505c:	2802      	cmp	r0, #2
   2505e:	d10f      	bne.n	25080 <_ZN20complex_full_dynamic3app17he3a6502364d95586E+0x88>
   25060:	2603      	movs	r6, #3
   25062:	9802      	ldr	r0, [sp, #8]
   25064:	9000      	str	r0, [sp, #0]
   25066:	9601      	str	r6, [sp, #4]
   25068:	a81f      	add	r0, sp, #124	@ 0x7c
   2506a:	2400      	movs	r4, #0
   2506c:	4611      	mov	r1, r2
   2506e:	4622      	mov	r2, r4
   25070:	9b03      	ldr	r3, [sp, #12]
   25072:	f004 f885 	bl	29180 <_ZN9allow_pin13dynamic_allow17h8bfd3764c146b81aE>
   25076:	981f      	ldr	r0, [sp, #124]	@ 0x7c
   25078:	2802      	cmp	r0, #2
   2507a:	d106      	bne.n	2508a <_ZN20complex_full_dynamic3app17he3a6502364d95586E+0x92>
   2507c:	9920      	ldr	r1, [sp, #128]	@ 0x80
   2507e:	e000      	b.n	25082 <_ZN20complex_full_dynamic3app17he3a6502364d95586E+0x8a>
   25080:	2103      	movs	r1, #3
   25082:	462c      	mov	r4, r5
   25084:	2c00      	cmp	r4, #0
   25086:	d007      	beq.n	25098 <_ZN20complex_full_dynamic3app17he3a6502364d95586E+0xa0>
   25088:	e015      	b.n	250b6 <_ZN20complex_full_dynamic3app17he3a6502364d95586E+0xbe>
   2508a:	a811      	add	r0, sp, #68	@ 0x44
   2508c:	7206      	strb	r6, [r0, #8]
   2508e:	9412      	str	r4, [sp, #72]	@ 0x48
   25090:	4815      	ldr	r0, [pc, #84]	@ (250e8 <_ZN20complex_full_dynamic3app17he3a6502364d95586E+0xf0>)
   25092:	9011      	str	r0, [sp, #68]	@ 0x44
   25094:	2c00      	cmp	r4, #0
   25096:	d10e      	bne.n	250b6 <_ZN20complex_full_dynamic3app17he3a6502364d95586E+0xbe>
   25098:	4813      	ldr	r0, [pc, #76]	@ (250e8 <_ZN20complex_full_dynamic3app17he3a6502364d95586E+0xf0>)
   2509a:	2107      	movs	r1, #7
   2509c:	2400      	movs	r4, #0
   2509e:	4622      	mov	r2, r4
   250a0:	4623      	mov	r3, r4
   250a2:	df02      	svc	2
   250a4:	287f      	cmp	r0, #127	@ 0x7f
   250a6:	d906      	bls.n	250b6 <_ZN20complex_full_dynamic3app17he3a6502364d95586E+0xbe>
   250a8:	a806      	add	r0, sp, #24
   250aa:	f004 f855 	bl	29158 <_ZN9allow_pin12full_dynamic17unshare_if_shared17hc49b4b2653f8b2c9E>
   250ae:	a811      	add	r0, sp, #68	@ 0x44
   250b0:	f004 f852 	bl	29158 <_ZN9allow_pin12full_dynamic17unshare_if_shared17hc49b4b2653f8b2c9E>
   250b4:	4625      	mov	r5, r4
   250b6:	2d00      	cmp	r5, #0
   250b8:	d003      	beq.n	250c2 <_ZN20complex_full_dynamic3app17he3a6502364d95586E+0xca>
   250ba:	9c05      	ldr	r4, [sp, #20]
   250bc:	6061      	str	r1, [r4, #4]
   250be:	2001      	movs	r0, #1
   250c0:	e009      	b.n	250d6 <_ZN20complex_full_dynamic3app17he3a6502364d95586E+0xde>
   250c2:	a811      	add	r0, sp, #68	@ 0x44
   250c4:	f004 f848 	bl	29158 <_ZN9allow_pin12full_dynamic17unshare_if_shared17hc49b4b2653f8b2c9E>
   250c8:	9c05      	ldr	r4, [sp, #20]
   250ca:	1c60      	adds	r0, r4, #1
   250cc:	222c      	movs	r2, #44	@ 0x2c
   250ce:	9903      	ldr	r1, [sp, #12]
   250d0:	f004 fa1b 	bl	2950a <__aeabi_memcpy>
   250d4:	2000      	movs	r0, #0
   250d6:	7020      	strb	r0, [r4, #0]
   250d8:	a811      	add	r0, sp, #68	@ 0x44
   250da:	f004 f83d 	bl	29158 <_ZN9allow_pin12full_dynamic17unshare_if_shared17hc49b4b2653f8b2c9E>
   250de:	a806      	add	r0, sp, #24
   250e0:	f004 f83a 	bl	29158 <_ZN9allow_pin12full_dynamic17unshare_if_shared17hc49b4b2653f8b2c9E>
   250e4:	b023      	add	sp, #140	@ 0x8c
   250e6:	bdf0      	pop	{r4, r5, r6, r7, pc}
   250e8:	000003fb 	.word	0x000003fb

000250ec <_ZN20complex_full_dynamic3app17he74b648bff7f359cE>:
   250ec:	b5f0      	push	{r4, r5, r6, r7, lr}
   250ee:	af03      	add	r7, sp, #12
   250f0:	b0bb      	sub	sp, #236	@ 0xec
   250f2:	9006      	str	r0, [sp, #24]
   250f4:	ad07      	add	r5, sp, #28
   250f6:	2002      	movs	r0, #2
   250f8:	9005      	str	r0, [sp, #20]
   250fa:	7228      	strb	r0, [r5, #8]
   250fc:	350c      	adds	r5, #12
   250fe:	2659      	movs	r6, #89	@ 0x59
   25100:	4628      	mov	r0, r5
   25102:	4632      	mov	r2, r6
   25104:	f004 fa01 	bl	2950a <__aeabi_memcpy>
   25108:	ac21      	add	r4, sp, #132	@ 0x84
   2510a:	4620      	mov	r0, r4
   2510c:	300c      	adds	r0, #12
   2510e:	214a      	movs	r1, #74	@ 0x4a
   25110:	9004      	str	r0, [sp, #16]
   25112:	9103      	str	r1, [sp, #12]
   25114:	f004 f84c 	bl	291b0 <__aeabi_memclr4>
   25118:	9805      	ldr	r0, [sp, #20]
   2511a:	7220      	strb	r0, [r4, #8]
   2511c:	2404      	movs	r4, #4
   2511e:	9600      	str	r6, [sp, #0]
   25120:	9401      	str	r4, [sp, #4]
   25122:	a837      	add	r0, sp, #220	@ 0xdc
   25124:	492d      	ldr	r1, [pc, #180]	@ (251dc <_ZN20complex_full_dynamic3app17he74b648bff7f359cE+0xf0>)
   25126:	2600      	movs	r6, #0
   25128:	4632      	mov	r2, r6
   2512a:	462b      	mov	r3, r5
   2512c:	f004 f828 	bl	29180 <_ZN9allow_pin13dynamic_allow17h8bfd3764c146b81aE>
   25130:	9837      	ldr	r0, [sp, #220]	@ 0xdc
   25132:	2802      	cmp	r0, #2
   25134:	d102      	bne.n	2513c <_ZN20complex_full_dynamic3app17he74b648bff7f359cE+0x50>
   25136:	9938      	ldr	r1, [sp, #224]	@ 0xe0
   25138:	4a28      	ldr	r2, [pc, #160]	@ (251dc <_ZN20complex_full_dynamic3app17he74b648bff7f359cE+0xf0>)
   2513a:	e004      	b.n	25146 <_ZN20complex_full_dynamic3app17he74b648bff7f359cE+0x5a>
   2513c:	a907      	add	r1, sp, #28
   2513e:	720c      	strb	r4, [r1, #8]
   25140:	9608      	str	r6, [sp, #32]
   25142:	4a26      	ldr	r2, [pc, #152]	@ (251dc <_ZN20complex_full_dynamic3app17he74b648bff7f359cE+0xf0>)
   25144:	9207      	str	r2, [sp, #28]
   25146:	2501      	movs	r5, #1
   25148:	2802      	cmp	r0, #2
   2514a:	d02e      	beq.n	251aa <_ZN20complex_full_dynamic3app17he74b648bff7f359cE+0xbe>
   2514c:	a821      	add	r0, sp, #132	@ 0x84
   2514e:	7a00      	ldrb	r0, [r0, #8]
   25150:	2103      	movs	r1, #3
   25152:	2802      	cmp	r0, #2
   25154:	d10e      	bne.n	25174 <_ZN20complex_full_dynamic3app17he74b648bff7f359cE+0x88>
   25156:	9803      	ldr	r0, [sp, #12]
   25158:	9000      	str	r0, [sp, #0]
   2515a:	9105      	str	r1, [sp, #20]
   2515c:	9101      	str	r1, [sp, #4]
   2515e:	a837      	add	r0, sp, #220	@ 0xdc
   25160:	2404      	movs	r4, #4
   25162:	4611      	mov	r1, r2
   25164:	4622      	mov	r2, r4
   25166:	9b04      	ldr	r3, [sp, #16]
   25168:	f004 f80a 	bl	29180 <_ZN9allow_pin13dynamic_allow17h8bfd3764c146b81aE>
   2516c:	9837      	ldr	r0, [sp, #220]	@ 0xdc
   2516e:	2802      	cmp	r0, #2
   25170:	d104      	bne.n	2517c <_ZN20complex_full_dynamic3app17he74b648bff7f359cE+0x90>
   25172:	9938      	ldr	r1, [sp, #224]	@ 0xe0
   25174:	462e      	mov	r6, r5
   25176:	2e00      	cmp	r6, #0
   25178:	d008      	beq.n	2518c <_ZN20complex_full_dynamic3app17he74b648bff7f359cE+0xa0>
   2517a:	e016      	b.n	251aa <_ZN20complex_full_dynamic3app17he74b648bff7f359cE+0xbe>
   2517c:	a821      	add	r0, sp, #132	@ 0x84
   2517e:	9905      	ldr	r1, [sp, #20]
   25180:	7201      	strb	r1, [r0, #8]
   25182:	9422      	str	r4, [sp, #136]	@ 0x88
   25184:	4815      	ldr	r0, [pc, #84]	@ (251dc <_ZN20complex_full_dynamic3app17he74b648bff7f359cE+0xf0>)
   25186:	9021      	str	r0, [sp, #132]	@ 0x84
   25188:	2e00      	cmp	r6, #0
   2518a:	d10e      	bne.n	251aa <_ZN20complex_full_dynamic3app17he74b648bff7f359cE+0xbe>
   2518c:	4813      	ldr	r0, [pc, #76]	@ (251dc <_ZN20complex_full_dynamic3app17he74b648bff7f359cE+0xf0>)
   2518e:	2204      	movs	r2, #4
   25190:	2400      	movs	r4, #0
   25192:	4621      	mov	r1, r4
   25194:	4623      	mov	r3, r4
   25196:	df02      	svc	2
   25198:	287f      	cmp	r0, #127	@ 0x7f
   2519a:	d906      	bls.n	251aa <_ZN20complex_full_dynamic3app17he74b648bff7f359cE+0xbe>
   2519c:	a807      	add	r0, sp, #28
   2519e:	f003 ffdb 	bl	29158 <_ZN9allow_pin12full_dynamic17unshare_if_shared17hc49b4b2653f8b2c9E>
   251a2:	a821      	add	r0, sp, #132	@ 0x84
   251a4:	f003 ffd8 	bl	29158 <_ZN9allow_pin12full_dynamic17unshare_if_shared17hc49b4b2653f8b2c9E>
   251a8:	4625      	mov	r5, r4
   251aa:	2d00      	cmp	r5, #0
   251ac:	d003      	beq.n	251b6 <_ZN20complex_full_dynamic3app17he74b648bff7f359cE+0xca>
   251ae:	9c06      	ldr	r4, [sp, #24]
   251b0:	6061      	str	r1, [r4, #4]
   251b2:	2001      	movs	r0, #1
   251b4:	e009      	b.n	251ca <_ZN20complex_full_dynamic3app17he74b648bff7f359cE+0xde>
   251b6:	a821      	add	r0, sp, #132	@ 0x84
   251b8:	f003 ffce 	bl	29158 <_ZN9allow_pin12full_dynamic17unshare_if_shared17hc49b4b2653f8b2c9E>
   251bc:	9c06      	ldr	r4, [sp, #24]
   251be:	1c60      	adds	r0, r4, #1
   251c0:	224a      	movs	r2, #74	@ 0x4a
   251c2:	9904      	ldr	r1, [sp, #16]
   251c4:	f004 f9a1 	bl	2950a <__aeabi_memcpy>
   251c8:	2000      	movs	r0, #0
   251ca:	7020      	strb	r0, [r4, #0]
   251cc:	a821      	add	r0, sp, #132	@ 0x84
   251ce:	f003 ffc3 	bl	29158 <_ZN9allow_pin12full_dynamic17unshare_if_shared17hc49b4b2653f8b2c9E>
   251d2:	a807      	add	r0, sp, #28
   251d4:	f003 ffc0 	bl	29158 <_ZN9allow_pin12full_dynamic17unshare_if_shared17hc49b4b2653f8b2c9E>
   251d8:	b03b      	add	sp, #236	@ 0xec
   251da:	bdf0      	pop	{r4, r5, r6, r7, pc}
   251dc:	00001484 	.word	0x00001484

000251e0 <_ZN20complex_full_dynamic3app17he7ad6818f3d62e1aE>:
   251e0:	b5f0      	push	{r4, r5, r6, r7, lr}
   251e2:	af03      	add	r7, sp, #12
   251e4:	b0a9      	sub	sp, #164	@ 0xa4
   251e6:	9005      	str	r0, [sp, #20]
   251e8:	ad06      	add	r5, sp, #24
   251ea:	2402      	movs	r4, #2
   251ec:	722c      	strb	r4, [r5, #8]
   251ee:	350c      	adds	r5, #12
   251f0:	2234      	movs	r2, #52	@ 0x34
   251f2:	9204      	str	r2, [sp, #16]
   251f4:	4628      	mov	r0, r5
   251f6:	f004 f988 	bl	2950a <__aeabi_memcpy>
   251fa:	ae16      	add	r6, sp, #88	@ 0x58
   251fc:	4630      	mov	r0, r6
   251fe:	300c      	adds	r0, #12
   25200:	212e      	movs	r1, #46	@ 0x2e
   25202:	9003      	str	r0, [sp, #12]
   25204:	9102      	str	r1, [sp, #8]
   25206:	f003 ffd3 	bl	291b0 <__aeabi_memclr4>
   2520a:	7234      	strb	r4, [r6, #8]
   2520c:	4626      	mov	r6, r4
   2520e:	2004      	movs	r0, #4
   25210:	9904      	ldr	r1, [sp, #16]
   25212:	9100      	str	r1, [sp, #0]
   25214:	9004      	str	r0, [sp, #16]
   25216:	9001      	str	r0, [sp, #4]
   25218:	a825      	add	r0, sp, #148	@ 0x94
   2521a:	4c2e      	ldr	r4, [pc, #184]	@ (252d4 <_ZN20complex_full_dynamic3app17he7ad6818f3d62e1aE+0xf4>)
   2521c:	4621      	mov	r1, r4
   2521e:	4632      	mov	r2, r6
   25220:	462b      	mov	r3, r5
   25222:	f003 ffad 	bl	29180 <_ZN9allow_pin13dynamic_allow17h8bfd3764c146b81aE>
   25226:	9825      	ldr	r0, [sp, #148]	@ 0x94
   25228:	2802      	cmp	r0, #2
   2522a:	d101      	bne.n	25230 <_ZN20complex_full_dynamic3app17he7ad6818f3d62e1aE+0x50>
   2522c:	9926      	ldr	r1, [sp, #152]	@ 0x98
   2522e:	e004      	b.n	2523a <_ZN20complex_full_dynamic3app17he7ad6818f3d62e1aE+0x5a>
   25230:	a906      	add	r1, sp, #24
   25232:	9a04      	ldr	r2, [sp, #16]
   25234:	720a      	strb	r2, [r1, #8]
   25236:	9607      	str	r6, [sp, #28]
   25238:	9406      	str	r4, [sp, #24]
   2523a:	2501      	movs	r5, #1
   2523c:	2802      	cmp	r0, #2
   2523e:	d02f      	beq.n	252a0 <_ZN20complex_full_dynamic3app17he7ad6818f3d62e1aE+0xc0>
   25240:	a816      	add	r0, sp, #88	@ 0x58
   25242:	7a00      	ldrb	r0, [r0, #8]
   25244:	2802      	cmp	r0, #2
   25246:	d10f      	bne.n	25268 <_ZN20complex_full_dynamic3app17he7ad6818f3d62e1aE+0x88>
   25248:	2603      	movs	r6, #3
   2524a:	9802      	ldr	r0, [sp, #8]
   2524c:	9000      	str	r0, [sp, #0]
   2524e:	9601      	str	r6, [sp, #4]
   25250:	a825      	add	r0, sp, #148	@ 0x94
   25252:	4621      	mov	r1, r4
   25254:	2408      	movs	r4, #8
   25256:	4622      	mov	r2, r4
   25258:	9b03      	ldr	r3, [sp, #12]
   2525a:	f003 ff91 	bl	29180 <_ZN9allow_pin13dynamic_allow17h8bfd3764c146b81aE>
   2525e:	9825      	ldr	r0, [sp, #148]	@ 0x94
   25260:	2802      	cmp	r0, #2
   25262:	d106      	bne.n	25272 <_ZN20complex_full_dynamic3app17he7ad6818f3d62e1aE+0x92>
   25264:	9926      	ldr	r1, [sp, #152]	@ 0x98
   25266:	e000      	b.n	2526a <_ZN20complex_full_dynamic3app17he7ad6818f3d62e1aE+0x8a>
   25268:	2103      	movs	r1, #3
   2526a:	4628      	mov	r0, r5
   2526c:	2800      	cmp	r0, #0
   2526e:	d008      	beq.n	25282 <_ZN20complex_full_dynamic3app17he7ad6818f3d62e1aE+0xa2>
   25270:	e016      	b.n	252a0 <_ZN20complex_full_dynamic3app17he7ad6818f3d62e1aE+0xc0>
   25272:	a816      	add	r0, sp, #88	@ 0x58
   25274:	7206      	strb	r6, [r0, #8]
   25276:	9417      	str	r4, [sp, #92]	@ 0x5c
   25278:	4816      	ldr	r0, [pc, #88]	@ (252d4 <_ZN20complex_full_dynamic3app17he7ad6818f3d62e1aE+0xf4>)
   2527a:	9016      	str	r0, [sp, #88]	@ 0x58
   2527c:	2000      	movs	r0, #0
   2527e:	2800      	cmp	r0, #0
   25280:	d10e      	bne.n	252a0 <_ZN20complex_full_dynamic3app17he7ad6818f3d62e1aE+0xc0>
   25282:	4814      	ldr	r0, [pc, #80]	@ (252d4 <_ZN20complex_full_dynamic3app17he7ad6818f3d62e1aE+0xf4>)
   25284:	2102      	movs	r1, #2
   25286:	2208      	movs	r2, #8
   25288:	2400      	movs	r4, #0
   2528a:	4623      	mov	r3, r4
   2528c:	df02      	svc	2
   2528e:	287f      	cmp	r0, #127	@ 0x7f
   25290:	d906      	bls.n	252a0 <_ZN20complex_full_dynamic3app17he7ad6818f3d62e1aE+0xc0>
   25292:	a806      	add	r0, sp, #24
   25294:	f003 ff60 	bl	29158 <_ZN9allow_pin12full_dynamic17unshare_if_shared17hc49b4b2653f8b2c9E>
   25298:	a816      	add	r0, sp, #88	@ 0x58
   2529a:	f003 ff5d 	bl	29158 <_ZN9allow_pin12full_dynamic17unshare_if_shared17hc49b4b2653f8b2c9E>
   2529e:	4625      	mov	r5, r4
   252a0:	2d00      	cmp	r5, #0
   252a2:	d003      	beq.n	252ac <_ZN20complex_full_dynamic3app17he7ad6818f3d62e1aE+0xcc>
   252a4:	9c05      	ldr	r4, [sp, #20]
   252a6:	6061      	str	r1, [r4, #4]
   252a8:	2001      	movs	r0, #1
   252aa:	e009      	b.n	252c0 <_ZN20complex_full_dynamic3app17he7ad6818f3d62e1aE+0xe0>
   252ac:	a816      	add	r0, sp, #88	@ 0x58
   252ae:	f003 ff53 	bl	29158 <_ZN9allow_pin12full_dynamic17unshare_if_shared17hc49b4b2653f8b2c9E>
   252b2:	9c05      	ldr	r4, [sp, #20]
   252b4:	1c60      	adds	r0, r4, #1
   252b6:	222e      	movs	r2, #46	@ 0x2e
   252b8:	9903      	ldr	r1, [sp, #12]
   252ba:	f004 f926 	bl	2950a <__aeabi_memcpy>
   252be:	2000      	movs	r0, #0
   252c0:	7020      	strb	r0, [r4, #0]
   252c2:	a816      	add	r0, sp, #88	@ 0x58
   252c4:	f003 ff48 	bl	29158 <_ZN9allow_pin12full_dynamic17unshare_if_shared17hc49b4b2653f8b2c9E>
   252c8:	a806      	add	r0, sp, #24
   252ca:	f003 ff45 	bl	29158 <_ZN9allow_pin12full_dynamic17unshare_if_shared17hc49b4b2653f8b2c9E>
   252ce:	b029      	add	sp, #164	@ 0xa4
   252d0:	bdf0      	pop	{r4, r5, r6, r7, pc}
   252d2:	46c0      	nop			@ (mov r8, r8)
   252d4:	00000209 	.word	0x00000209

000252d8 <_ZN20complex_full_dynamic3app17he966086d89671d91E>:
   252d8:	b5f0      	push	{r4, r5, r6, r7, lr}
   252da:	af03      	add	r7, sp, #12
   252dc:	b099      	sub	sp, #100	@ 0x64
   252de:	9005      	str	r0, [sp, #20]
   252e0:	ae06      	add	r6, sp, #24
   252e2:	2502      	movs	r5, #2
   252e4:	7235      	strb	r5, [r6, #8]
   252e6:	360c      	adds	r6, #12
   252e8:	240f      	movs	r4, #15
   252ea:	4630      	mov	r0, r6
   252ec:	4622      	mov	r2, r4
   252ee:	f004 f90c 	bl	2950a <__aeabi_memcpy>
   252f2:	a90d      	add	r1, sp, #52	@ 0x34
   252f4:	2000      	movs	r0, #0
   252f6:	7788      	strb	r0, [r1, #30]
   252f8:	8388      	strh	r0, [r1, #28]
   252fa:	9104      	str	r1, [sp, #16]
   252fc:	720d      	strb	r5, [r1, #8]
   252fe:	9013      	str	r0, [sp, #76]	@ 0x4c
   25300:	9012      	str	r0, [sp, #72]	@ 0x48
   25302:	9011      	str	r0, [sp, #68]	@ 0x44
   25304:	9003      	str	r0, [sp, #12]
   25306:	9010      	str	r0, [sp, #64]	@ 0x40
   25308:	2504      	movs	r5, #4
   2530a:	9400      	str	r4, [sp, #0]
   2530c:	9501      	str	r5, [sp, #4]
   2530e:	a815      	add	r0, sp, #84	@ 0x54
   25310:	4931      	ldr	r1, [pc, #196]	@ (253d8 <_ZN20complex_full_dynamic3app17he966086d89671d91E+0x100>)
   25312:	2403      	movs	r4, #3
   25314:	4622      	mov	r2, r4
   25316:	4633      	mov	r3, r6
   25318:	f003 ff32 	bl	29180 <_ZN9allow_pin13dynamic_allow17h8bfd3764c146b81aE>
   2531c:	9815      	ldr	r0, [sp, #84]	@ 0x54
   2531e:	2802      	cmp	r0, #2
   25320:	d102      	bne.n	25328 <_ZN20complex_full_dynamic3app17he966086d89671d91E+0x50>
   25322:	9916      	ldr	r1, [sp, #88]	@ 0x58
   25324:	4b2c      	ldr	r3, [pc, #176]	@ (253d8 <_ZN20complex_full_dynamic3app17he966086d89671d91E+0x100>)
   25326:	e004      	b.n	25332 <_ZN20complex_full_dynamic3app17he966086d89671d91E+0x5a>
   25328:	a906      	add	r1, sp, #24
   2532a:	720d      	strb	r5, [r1, #8]
   2532c:	9407      	str	r4, [sp, #28]
   2532e:	4b2a      	ldr	r3, [pc, #168]	@ (253d8 <_ZN20complex_full_dynamic3app17he966086d89671d91E+0x100>)
   25330:	9306      	str	r3, [sp, #24]
   25332:	9d04      	ldr	r5, [sp, #16]
   25334:	350c      	adds	r5, #12
   25336:	2201      	movs	r2, #1
   25338:	2802      	cmp	r0, #2
   2533a:	d034      	beq.n	253a6 <_ZN20complex_full_dynamic3app17he966086d89671d91E+0xce>
   2533c:	a80d      	add	r0, sp, #52	@ 0x34
   2533e:	7a00      	ldrb	r0, [r0, #8]
   25340:	2802      	cmp	r0, #2
   25342:	4616      	mov	r6, r2
   25344:	d111      	bne.n	2536a <_ZN20complex_full_dynamic3app17he966086d89671d91E+0x92>
   25346:	9204      	str	r2, [sp, #16]
   25348:	2403      	movs	r4, #3
   2534a:	2013      	movs	r0, #19
   2534c:	9000      	str	r0, [sp, #0]
   2534e:	9401      	str	r4, [sp, #4]
   25350:	a815      	add	r0, sp, #84	@ 0x54
   25352:	2600      	movs	r6, #0
   25354:	4619      	mov	r1, r3
   25356:	4632      	mov	r2, r6
   25358:	462b      	mov	r3, r5
   2535a:	f003 ff11 	bl	29180 <_ZN9allow_pin13dynamic_allow17h8bfd3764c146b81aE>
   2535e:	9815      	ldr	r0, [sp, #84]	@ 0x54
   25360:	2802      	cmp	r0, #2
   25362:	d106      	bne.n	25372 <_ZN20complex_full_dynamic3app17he966086d89671d91E+0x9a>
   25364:	9c16      	ldr	r4, [sp, #88]	@ 0x58
   25366:	9a04      	ldr	r2, [sp, #16]
   25368:	4616      	mov	r6, r2
   2536a:	2e00      	cmp	r6, #0
   2536c:	d009      	beq.n	25382 <_ZN20complex_full_dynamic3app17he966086d89671d91E+0xaa>
   2536e:	4621      	mov	r1, r4
   25370:	e019      	b.n	253a6 <_ZN20complex_full_dynamic3app17he966086d89671d91E+0xce>
   25372:	a80d      	add	r0, sp, #52	@ 0x34
   25374:	7204      	strb	r4, [r0, #8]
   25376:	960e      	str	r6, [sp, #56]	@ 0x38
   25378:	4817      	ldr	r0, [pc, #92]	@ (253d8 <_ZN20complex_full_dynamic3app17he966086d89671d91E+0x100>)
   2537a:	900d      	str	r0, [sp, #52]	@ 0x34
   2537c:	9a04      	ldr	r2, [sp, #16]
   2537e:	2e00      	cmp	r6, #0
   25380:	d1f5      	bne.n	2536e <_ZN20complex_full_dynamic3app17he966086d89671d91E+0x96>
   25382:	4616      	mov	r6, r2
   25384:	4814      	ldr	r0, [pc, #80]	@ (253d8 <_ZN20complex_full_dynamic3app17he966086d89671d91E+0x100>)
   25386:	2103      	movs	r1, #3
   25388:	2400      	movs	r4, #0
   2538a:	4622      	mov	r2, r4
   2538c:	4623      	mov	r3, r4
   2538e:	df02      	svc	2
   25390:	287f      	cmp	r0, #127	@ 0x7f
   25392:	d801      	bhi.n	25398 <_ZN20complex_full_dynamic3app17he966086d89671d91E+0xc0>
   25394:	4632      	mov	r2, r6
   25396:	e006      	b.n	253a6 <_ZN20complex_full_dynamic3app17he966086d89671d91E+0xce>
   25398:	a806      	add	r0, sp, #24
   2539a:	f003 fedd 	bl	29158 <_ZN9allow_pin12full_dynamic17unshare_if_shared17hc49b4b2653f8b2c9E>
   2539e:	a80d      	add	r0, sp, #52	@ 0x34
   253a0:	f003 feda 	bl	29158 <_ZN9allow_pin12full_dynamic17unshare_if_shared17hc49b4b2653f8b2c9E>
   253a4:	4622      	mov	r2, r4
   253a6:	2a00      	cmp	r2, #0
   253a8:	9c05      	ldr	r4, [sp, #20]
   253aa:	d002      	beq.n	253b2 <_ZN20complex_full_dynamic3app17he966086d89671d91E+0xda>
   253ac:	6061      	str	r1, [r4, #4]
   253ae:	2001      	movs	r0, #1
   253b0:	e008      	b.n	253c4 <_ZN20complex_full_dynamic3app17he966086d89671d91E+0xec>
   253b2:	a80d      	add	r0, sp, #52	@ 0x34
   253b4:	f003 fed0 	bl	29158 <_ZN9allow_pin12full_dynamic17unshare_if_shared17hc49b4b2653f8b2c9E>
   253b8:	1c60      	adds	r0, r4, #1
   253ba:	2213      	movs	r2, #19
   253bc:	4629      	mov	r1, r5
   253be:	f004 f8a4 	bl	2950a <__aeabi_memcpy>
   253c2:	9803      	ldr	r0, [sp, #12]
   253c4:	7020      	strb	r0, [r4, #0]
   253c6:	a80d      	add	r0, sp, #52	@ 0x34
   253c8:	f003 fec6 	bl	29158 <_ZN9allow_pin12full_dynamic17unshare_if_shared17hc49b4b2653f8b2c9E>
   253cc:	a806      	add	r0, sp, #24
   253ce:	f003 fec3 	bl	29158 <_ZN9allow_pin12full_dynamic17unshare_if_shared17hc49b4b2653f8b2c9E>
   253d2:	b019      	add	sp, #100	@ 0x64
   253d4:	bdf0      	pop	{r4, r5, r6, r7, pc}
   253d6:	46c0      	nop			@ (mov r8, r8)
   253d8:	00001e4b 	.word	0x00001e4b

000253dc <_ZN20complex_full_dynamic3app17hef1bda503b81a307E>:
   253dc:	b5f0      	push	{r4, r5, r6, r7, lr}
   253de:	af03      	add	r7, sp, #12
   253e0:	b0a3      	sub	sp, #140	@ 0x8c
   253e2:	9006      	str	r0, [sp, #24]
   253e4:	ae07      	add	r6, sp, #28
   253e6:	2002      	movs	r0, #2
   253e8:	9005      	str	r0, [sp, #20]
   253ea:	7230      	strb	r0, [r6, #8]
   253ec:	360c      	adds	r6, #12
   253ee:	2523      	movs	r5, #35	@ 0x23
   253f0:	4630      	mov	r0, r6
   253f2:	462a      	mov	r2, r5
   253f4:	f004 f889 	bl	2950a <__aeabi_memcpy>
   253f8:	ac13      	add	r4, sp, #76	@ 0x4c
   253fa:	4620      	mov	r0, r4
   253fc:	300c      	adds	r0, #12
   253fe:	2124      	movs	r1, #36	@ 0x24
   25400:	9004      	str	r0, [sp, #16]
   25402:	9103      	str	r1, [sp, #12]
   25404:	f003 fed4 	bl	291b0 <__aeabi_memclr4>
   25408:	9805      	ldr	r0, [sp, #20]
   2540a:	7220      	strb	r0, [r4, #8]
   2540c:	2404      	movs	r4, #4
   2540e:	9500      	str	r5, [sp, #0]
   25410:	9401      	str	r4, [sp, #4]
   25412:	a81f      	add	r0, sp, #124	@ 0x7c
   25414:	4d2d      	ldr	r5, [pc, #180]	@ (254cc <_ZN20complex_full_dynamic3app17hef1bda503b81a307E+0xf0>)
   25416:	4629      	mov	r1, r5
   25418:	4622      	mov	r2, r4
   2541a:	4633      	mov	r3, r6
   2541c:	f003 feb0 	bl	29180 <_ZN9allow_pin13dynamic_allow17h8bfd3764c146b81aE>
   25420:	981f      	ldr	r0, [sp, #124]	@ 0x7c
   25422:	2802      	cmp	r0, #2
   25424:	d102      	bne.n	2542c <_ZN20complex_full_dynamic3app17hef1bda503b81a307E+0x50>
   25426:	462e      	mov	r6, r5
   25428:	9920      	ldr	r1, [sp, #128]	@ 0x80
   2542a:	e004      	b.n	25436 <_ZN20complex_full_dynamic3app17hef1bda503b81a307E+0x5a>
   2542c:	a907      	add	r1, sp, #28
   2542e:	720c      	strb	r4, [r1, #8]
   25430:	9408      	str	r4, [sp, #32]
   25432:	462e      	mov	r6, r5
   25434:	9507      	str	r5, [sp, #28]
   25436:	2501      	movs	r5, #1
   25438:	2802      	cmp	r0, #2
   2543a:	d02e      	beq.n	2549a <_ZN20complex_full_dynamic3app17hef1bda503b81a307E+0xbe>
   2543c:	a813      	add	r0, sp, #76	@ 0x4c
   2543e:	7a00      	ldrb	r0, [r0, #8]
   25440:	2103      	movs	r1, #3
   25442:	2802      	cmp	r0, #2
   25444:	d10e      	bne.n	25464 <_ZN20complex_full_dynamic3app17hef1bda503b81a307E+0x88>
   25446:	9803      	ldr	r0, [sp, #12]
   25448:	9000      	str	r0, [sp, #0]
   2544a:	9105      	str	r1, [sp, #20]
   2544c:	9101      	str	r1, [sp, #4]
   2544e:	a81f      	add	r0, sp, #124	@ 0x7c
   25450:	2408      	movs	r4, #8
   25452:	4631      	mov	r1, r6
   25454:	4622      	mov	r2, r4
   25456:	9b04      	ldr	r3, [sp, #16]
   25458:	f003 fe92 	bl	29180 <_ZN9allow_pin13dynamic_allow17h8bfd3764c146b81aE>
   2545c:	981f      	ldr	r0, [sp, #124]	@ 0x7c
   2545e:	2802      	cmp	r0, #2
   25460:	d104      	bne.n	2546c <_ZN20complex_full_dynamic3app17hef1bda503b81a307E+0x90>
   25462:	9920      	ldr	r1, [sp, #128]	@ 0x80
   25464:	4628      	mov	r0, r5
   25466:	2800      	cmp	r0, #0
   25468:	d008      	beq.n	2547c <_ZN20complex_full_dynamic3app17hef1bda503b81a307E+0xa0>
   2546a:	e016      	b.n	2549a <_ZN20complex_full_dynamic3app17hef1bda503b81a307E+0xbe>
   2546c:	a813      	add	r0, sp, #76	@ 0x4c
   2546e:	9905      	ldr	r1, [sp, #20]
   25470:	7201      	strb	r1, [r0, #8]
   25472:	9414      	str	r4, [sp, #80]	@ 0x50
   25474:	9613      	str	r6, [sp, #76]	@ 0x4c
   25476:	2000      	movs	r0, #0
   25478:	2800      	cmp	r0, #0
   2547a:	d10e      	bne.n	2549a <_ZN20complex_full_dynamic3app17hef1bda503b81a307E+0xbe>
   2547c:	4813      	ldr	r0, [pc, #76]	@ (254cc <_ZN20complex_full_dynamic3app17hef1bda503b81a307E+0xf0>)
   2547e:	2104      	movs	r1, #4
   25480:	2208      	movs	r2, #8
   25482:	2400      	movs	r4, #0
   25484:	4623      	mov	r3, r4
   25486:	df02      	svc	2
   25488:	287f      	cmp	r0, #127	@ 0x7f
   2548a:	d906      	bls.n	2549a <_ZN20complex_full_dynamic3app17hef1bda503b81a307E+0xbe>
   2548c:	a807      	add	r0, sp, #28
   2548e:	f003 fe63 	bl	29158 <_ZN9allow_pin12full_dynamic17unshare_if_shared17hc49b4b2653f8b2c9E>
   25492:	a813      	add	r0, sp, #76	@ 0x4c
   25494:	f003 fe60 	bl	29158 <_ZN9allow_pin12full_dynamic17unshare_if_shared17hc49b4b2653f8b2c9E>
   25498:	4625      	mov	r5, r4
   2549a:	2d00      	cmp	r5, #0
   2549c:	d003      	beq.n	254a6 <_ZN20complex_full_dynamic3app17hef1bda503b81a307E+0xca>
   2549e:	9c06      	ldr	r4, [sp, #24]
   254a0:	6061      	str	r1, [r4, #4]
   254a2:	2001      	movs	r0, #1
   254a4:	e009      	b.n	254ba <_ZN20complex_full_dynamic3app17hef1bda503b81a307E+0xde>
   254a6:	a813      	add	r0, sp, #76	@ 0x4c
   254a8:	f003 fe56 	bl	29158 <_ZN9allow_pin12full_dynamic17unshare_if_shared17hc49b4b2653f8b2c9E>
   254ac:	9c06      	ldr	r4, [sp, #24]
   254ae:	1c60      	adds	r0, r4, #1
   254b0:	2224      	movs	r2, #36	@ 0x24
   254b2:	9904      	ldr	r1, [sp, #16]
   254b4:	f004 f829 	bl	2950a <__aeabi_memcpy>
   254b8:	2000      	movs	r0, #0
   254ba:	7020      	strb	r0, [r4, #0]
   254bc:	a813      	add	r0, sp, #76	@ 0x4c
   254be:	f003 fe4b 	bl	29158 <_ZN9allow_pin12full_dynamic17unshare_if_shared17hc49b4b2653f8b2c9E>
   254c2:	a807      	add	r0, sp, #28
   254c4:	f003 fe48 	bl	29158 <_ZN9allow_pin12full_dynamic17unshare_if_shared17hc49b4b2653f8b2c9E>
   254c8:	b023      	add	sp, #140	@ 0x8c
   254ca:	bdf0      	pop	{r4, r5, r6, r7, pc}
   254cc:	00001bd6 	.word	0x00001bd6

000254d0 <_ZN20complex_full_dynamic3app17hf0a22f0b61049a8aE>:
   254d0:	b5f0      	push	{r4, r5, r6, r7, lr}
   254d2:	af03      	add	r7, sp, #12
   254d4:	b0a5      	sub	sp, #148	@ 0x94
   254d6:	9006      	str	r0, [sp, #24]
   254d8:	ad07      	add	r5, sp, #28
   254da:	2002      	movs	r0, #2
   254dc:	9005      	str	r0, [sp, #20]
   254de:	7228      	strb	r0, [r5, #8]
   254e0:	350c      	adds	r5, #12
   254e2:	2621      	movs	r6, #33	@ 0x21
   254e4:	4628      	mov	r0, r5
   254e6:	4632      	mov	r2, r6
   254e8:	f004 f80f 	bl	2950a <__aeabi_memcpy>
   254ec:	ac13      	add	r4, sp, #76	@ 0x4c
   254ee:	4620      	mov	r0, r4
   254f0:	300c      	adds	r0, #12
   254f2:	212a      	movs	r1, #42	@ 0x2a
   254f4:	9004      	str	r0, [sp, #16]
   254f6:	9103      	str	r1, [sp, #12]
   254f8:	f003 fe5a 	bl	291b0 <__aeabi_memclr4>
   254fc:	9805      	ldr	r0, [sp, #20]
   254fe:	7220      	strb	r0, [r4, #8]
   25500:	2404      	movs	r4, #4
   25502:	9600      	str	r6, [sp, #0]
   25504:	9401      	str	r4, [sp, #4]
   25506:	a821      	add	r0, sp, #132	@ 0x84
   25508:	492d      	ldr	r1, [pc, #180]	@ (255c0 <_ZN20complex_full_dynamic3app17hf0a22f0b61049a8aE+0xf0>)
   2550a:	2601      	movs	r6, #1
   2550c:	4632      	mov	r2, r6
   2550e:	462b      	mov	r3, r5
   25510:	f003 fe36 	bl	29180 <_ZN9allow_pin13dynamic_allow17h8bfd3764c146b81aE>
   25514:	9821      	ldr	r0, [sp, #132]	@ 0x84
   25516:	2802      	cmp	r0, #2
   25518:	d104      	bne.n	25524 <_ZN20complex_full_dynamic3app17hf0a22f0b61049a8aE+0x54>
   2551a:	9922      	ldr	r1, [sp, #136]	@ 0x88
   2551c:	4c28      	ldr	r4, [pc, #160]	@ (255c0 <_ZN20complex_full_dynamic3app17hf0a22f0b61049a8aE+0xf0>)
   2551e:	2802      	cmp	r0, #2
   25520:	d107      	bne.n	25532 <_ZN20complex_full_dynamic3app17hf0a22f0b61049a8aE+0x62>
   25522:	e034      	b.n	2558e <_ZN20complex_full_dynamic3app17hf0a22f0b61049a8aE+0xbe>
   25524:	a907      	add	r1, sp, #28
   25526:	720c      	strb	r4, [r1, #8]
   25528:	9608      	str	r6, [sp, #32]
   2552a:	4c25      	ldr	r4, [pc, #148]	@ (255c0 <_ZN20complex_full_dynamic3app17hf0a22f0b61049a8aE+0xf0>)
   2552c:	9407      	str	r4, [sp, #28]
   2552e:	2802      	cmp	r0, #2
   25530:	d02d      	beq.n	2558e <_ZN20complex_full_dynamic3app17hf0a22f0b61049a8aE+0xbe>
   25532:	a813      	add	r0, sp, #76	@ 0x4c
   25534:	7a00      	ldrb	r0, [r0, #8]
   25536:	2802      	cmp	r0, #2
   25538:	d10e      	bne.n	25558 <_ZN20complex_full_dynamic3app17hf0a22f0b61049a8aE+0x88>
   2553a:	2503      	movs	r5, #3
   2553c:	9803      	ldr	r0, [sp, #12]
   2553e:	9000      	str	r0, [sp, #0]
   25540:	9501      	str	r5, [sp, #4]
   25542:	a821      	add	r0, sp, #132	@ 0x84
   25544:	4621      	mov	r1, r4
   25546:	462a      	mov	r2, r5
   25548:	9b04      	ldr	r3, [sp, #16]
   2554a:	f003 fe19 	bl	29180 <_ZN9allow_pin13dynamic_allow17h8bfd3764c146b81aE>
   2554e:	9821      	ldr	r0, [sp, #132]	@ 0x84
   25550:	2802      	cmp	r0, #2
   25552:	d106      	bne.n	25562 <_ZN20complex_full_dynamic3app17hf0a22f0b61049a8aE+0x92>
   25554:	9922      	ldr	r1, [sp, #136]	@ 0x88
   25556:	e000      	b.n	2555a <_ZN20complex_full_dynamic3app17hf0a22f0b61049a8aE+0x8a>
   25558:	2103      	movs	r1, #3
   2555a:	4630      	mov	r0, r6
   2555c:	2800      	cmp	r0, #0
   2555e:	d007      	beq.n	25570 <_ZN20complex_full_dynamic3app17hf0a22f0b61049a8aE+0xa0>
   25560:	e015      	b.n	2558e <_ZN20complex_full_dynamic3app17hf0a22f0b61049a8aE+0xbe>
   25562:	a813      	add	r0, sp, #76	@ 0x4c
   25564:	7205      	strb	r5, [r0, #8]
   25566:	9514      	str	r5, [sp, #80]	@ 0x50
   25568:	9413      	str	r4, [sp, #76]	@ 0x4c
   2556a:	2000      	movs	r0, #0
   2556c:	2800      	cmp	r0, #0
   2556e:	d10e      	bne.n	2558e <_ZN20complex_full_dynamic3app17hf0a22f0b61049a8aE+0xbe>
   25570:	4813      	ldr	r0, [pc, #76]	@ (255c0 <_ZN20complex_full_dynamic3app17hf0a22f0b61049a8aE+0xf0>)
   25572:	2101      	movs	r1, #1
   25574:	2203      	movs	r2, #3
   25576:	2400      	movs	r4, #0
   25578:	4623      	mov	r3, r4
   2557a:	df02      	svc	2
   2557c:	287f      	cmp	r0, #127	@ 0x7f
   2557e:	d906      	bls.n	2558e <_ZN20complex_full_dynamic3app17hf0a22f0b61049a8aE+0xbe>
   25580:	a807      	add	r0, sp, #28
   25582:	f003 fde9 	bl	29158 <_ZN9allow_pin12full_dynamic17unshare_if_shared17hc49b4b2653f8b2c9E>
   25586:	a813      	add	r0, sp, #76	@ 0x4c
   25588:	f003 fde6 	bl	29158 <_ZN9allow_pin12full_dynamic17unshare_if_shared17hc49b4b2653f8b2c9E>
   2558c:	4626      	mov	r6, r4
   2558e:	2e00      	cmp	r6, #0
   25590:	d003      	beq.n	2559a <_ZN20complex_full_dynamic3app17hf0a22f0b61049a8aE+0xca>
   25592:	9c06      	ldr	r4, [sp, #24]
   25594:	6061      	str	r1, [r4, #4]
   25596:	2001      	movs	r0, #1
   25598:	e009      	b.n	255ae <_ZN20complex_full_dynamic3app17hf0a22f0b61049a8aE+0xde>
   2559a:	a813      	add	r0, sp, #76	@ 0x4c
   2559c:	f003 fddc 	bl	29158 <_ZN9allow_pin12full_dynamic17unshare_if_shared17hc49b4b2653f8b2c9E>
   255a0:	9c06      	ldr	r4, [sp, #24]
   255a2:	1c60      	adds	r0, r4, #1
   255a4:	222a      	movs	r2, #42	@ 0x2a
   255a6:	9904      	ldr	r1, [sp, #16]
   255a8:	f003 ffaf 	bl	2950a <__aeabi_memcpy>
   255ac:	2000      	movs	r0, #0
   255ae:	7020      	strb	r0, [r4, #0]
   255b0:	a813      	add	r0, sp, #76	@ 0x4c
   255b2:	f003 fdd1 	bl	29158 <_ZN9allow_pin12full_dynamic17unshare_if_shared17hc49b4b2653f8b2c9E>
   255b6:	a807      	add	r0, sp, #28
   255b8:	f003 fdce 	bl	29158 <_ZN9allow_pin12full_dynamic17unshare_if_shared17hc49b4b2653f8b2c9E>
   255bc:	b025      	add	sp, #148	@ 0x94
   255be:	bdf0      	pop	{r4, r5, r6, r7, pc}
   255c0:	000015f3 	.word	0x000015f3

000255c4 <_ZN20complex_full_dynamic3app17hf49af07eb621761eE>:
   255c4:	b5f0      	push	{r4, r5, r6, r7, lr}
   255c6:	af03      	add	r7, sp, #12
   255c8:	b0bd      	sub	sp, #244	@ 0xf4
   255ca:	9005      	str	r0, [sp, #20]
   255cc:	ae06      	add	r6, sp, #24
   255ce:	2402      	movs	r4, #2
   255d0:	7234      	strb	r4, [r6, #8]
   255d2:	360c      	adds	r6, #12
   255d4:	224f      	movs	r2, #79	@ 0x4f
   255d6:	9204      	str	r2, [sp, #16]
   255d8:	4630      	mov	r0, r6
   255da:	f003 ff96 	bl	2950a <__aeabi_memcpy>
   255de:	ad1d      	add	r5, sp, #116	@ 0x74
   255e0:	4628      	mov	r0, r5
   255e2:	300c      	adds	r0, #12
   255e4:	2161      	movs	r1, #97	@ 0x61
   255e6:	9003      	str	r0, [sp, #12]
   255e8:	9102      	str	r1, [sp, #8]
   255ea:	f003 fde1 	bl	291b0 <__aeabi_memclr4>
   255ee:	722c      	strb	r4, [r5, #8]
   255f0:	4625      	mov	r5, r4
   255f2:	2004      	movs	r0, #4
   255f4:	9904      	ldr	r1, [sp, #16]
   255f6:	9100      	str	r1, [sp, #0]
   255f8:	9004      	str	r0, [sp, #16]
   255fa:	9001      	str	r0, [sp, #4]
   255fc:	20db      	movs	r0, #219	@ 0xdb
   255fe:	0044      	lsls	r4, r0, #1
   25600:	a839      	add	r0, sp, #228	@ 0xe4
   25602:	4621      	mov	r1, r4
   25604:	462a      	mov	r2, r5
   25606:	4633      	mov	r3, r6
   25608:	f003 fdba 	bl	29180 <_ZN9allow_pin13dynamic_allow17h8bfd3764c146b81aE>
   2560c:	9839      	ldr	r0, [sp, #228]	@ 0xe4
   2560e:	2802      	cmp	r0, #2
   25610:	d101      	bne.n	25616 <_ZN20complex_full_dynamic3app17hf49af07eb621761eE+0x52>
   25612:	993a      	ldr	r1, [sp, #232]	@ 0xe8
   25614:	e004      	b.n	25620 <_ZN20complex_full_dynamic3app17hf49af07eb621761eE+0x5c>
   25616:	a906      	add	r1, sp, #24
   25618:	9a04      	ldr	r2, [sp, #16]
   2561a:	720a      	strb	r2, [r1, #8]
   2561c:	9507      	str	r5, [sp, #28]
   2561e:	9406      	str	r4, [sp, #24]
   25620:	2501      	movs	r5, #1
   25622:	2802      	cmp	r0, #2
   25624:	d02e      	beq.n	25684 <_ZN20complex_full_dynamic3app17hf49af07eb621761eE+0xc0>
   25626:	a81d      	add	r0, sp, #116	@ 0x74
   25628:	7a00      	ldrb	r0, [r0, #8]
   2562a:	2103      	movs	r1, #3
   2562c:	2802      	cmp	r0, #2
   2562e:	d10e      	bne.n	2564e <_ZN20complex_full_dynamic3app17hf49af07eb621761eE+0x8a>
   25630:	9802      	ldr	r0, [sp, #8]
   25632:	9000      	str	r0, [sp, #0]
   25634:	9104      	str	r1, [sp, #16]
   25636:	9101      	str	r1, [sp, #4]
   25638:	a839      	add	r0, sp, #228	@ 0xe4
   2563a:	2608      	movs	r6, #8
   2563c:	4621      	mov	r1, r4
   2563e:	4632      	mov	r2, r6
   25640:	9b03      	ldr	r3, [sp, #12]
   25642:	f003 fd9d 	bl	29180 <_ZN9allow_pin13dynamic_allow17h8bfd3764c146b81aE>
   25646:	9839      	ldr	r0, [sp, #228]	@ 0xe4
   25648:	2802      	cmp	r0, #2
   2564a:	d104      	bne.n	25656 <_ZN20complex_full_dynamic3app17hf49af07eb621761eE+0x92>
   2564c:	993a      	ldr	r1, [sp, #232]	@ 0xe8
   2564e:	4628      	mov	r0, r5
   25650:	2800      	cmp	r0, #0
   25652:	d008      	beq.n	25666 <_ZN20complex_full_dynamic3app17hf49af07eb621761eE+0xa2>
   25654:	e016      	b.n	25684 <_ZN20complex_full_dynamic3app17hf49af07eb621761eE+0xc0>
   25656:	a81d      	add	r0, sp, #116	@ 0x74
   25658:	9904      	ldr	r1, [sp, #16]
   2565a:	7201      	strb	r1, [r0, #8]
   2565c:	961e      	str	r6, [sp, #120]	@ 0x78
   2565e:	941d      	str	r4, [sp, #116]	@ 0x74
   25660:	2000      	movs	r0, #0
   25662:	2800      	cmp	r0, #0
   25664:	d10e      	bne.n	25684 <_ZN20complex_full_dynamic3app17hf49af07eb621761eE+0xc0>
   25666:	2102      	movs	r1, #2
   25668:	2208      	movs	r2, #8
   2566a:	4620      	mov	r0, r4
   2566c:	2400      	movs	r4, #0
   2566e:	4623      	mov	r3, r4
   25670:	df02      	svc	2
   25672:	287f      	cmp	r0, #127	@ 0x7f
   25674:	d906      	bls.n	25684 <_ZN20complex_full_dynamic3app17hf49af07eb621761eE+0xc0>
   25676:	a806      	add	r0, sp, #24
   25678:	f003 fd6e 	bl	29158 <_ZN9allow_pin12full_dynamic17unshare_if_shared17hc49b4b2653f8b2c9E>
   2567c:	a81d      	add	r0, sp, #116	@ 0x74
   2567e:	f003 fd6b 	bl	29158 <_ZN9allow_pin12full_dynamic17unshare_if_shared17hc49b4b2653f8b2c9E>
   25682:	4625      	mov	r5, r4
   25684:	2d00      	cmp	r5, #0
   25686:	d003      	beq.n	25690 <_ZN20complex_full_dynamic3app17hf49af07eb621761eE+0xcc>
   25688:	9c05      	ldr	r4, [sp, #20]
   2568a:	6061      	str	r1, [r4, #4]
   2568c:	2001      	movs	r0, #1
   2568e:	e009      	b.n	256a4 <_ZN20complex_full_dynamic3app17hf49af07eb621761eE+0xe0>
   25690:	a81d      	add	r0, sp, #116	@ 0x74
   25692:	f003 fd61 	bl	29158 <_ZN9allow_pin12full_dynamic17unshare_if_shared17hc49b4b2653f8b2c9E>
   25696:	9c05      	ldr	r4, [sp, #20]
   25698:	1c60      	adds	r0, r4, #1
   2569a:	2261      	movs	r2, #97	@ 0x61
   2569c:	9903      	ldr	r1, [sp, #12]
   2569e:	f003 ff34 	bl	2950a <__aeabi_memcpy>
   256a2:	2000      	movs	r0, #0
   256a4:	7020      	strb	r0, [r4, #0]
   256a6:	a81d      	add	r0, sp, #116	@ 0x74
   256a8:	f003 fd56 	bl	29158 <_ZN9allow_pin12full_dynamic17unshare_if_shared17hc49b4b2653f8b2c9E>
   256ac:	a806      	add	r0, sp, #24
   256ae:	f003 fd53 	bl	29158 <_ZN9allow_pin12full_dynamic17unshare_if_shared17hc49b4b2653f8b2c9E>
   256b2:	b03d      	add	sp, #244	@ 0xf4
   256b4:	bdf0      	pop	{r4, r5, r6, r7, pc}
   256b6:	d4d4      	bmi.n	25662 <_ZN20complex_full_dynamic3app17hf49af07eb621761eE+0x9e>

000256b8 <_ZN20complex_full_dynamic3app17hf4f05b0f3f7b6df0E>:
   256b8:	b5f0      	push	{r4, r5, r6, r7, lr}
   256ba:	af03      	add	r7, sp, #12
   256bc:	b0b3      	sub	sp, #204	@ 0xcc
   256be:	9005      	str	r0, [sp, #20]
   256c0:	ae06      	add	r6, sp, #24
   256c2:	2002      	movs	r0, #2
   256c4:	9004      	str	r0, [sp, #16]
   256c6:	7230      	strb	r0, [r6, #8]
   256c8:	360c      	adds	r6, #12
   256ca:	254f      	movs	r5, #79	@ 0x4f
   256cc:	4630      	mov	r0, r6
   256ce:	462a      	mov	r2, r5
   256d0:	f003 ff1b 	bl	2950a <__aeabi_memcpy>
   256d4:	ac1d      	add	r4, sp, #116	@ 0x74
   256d6:	4620      	mov	r0, r4
   256d8:	300c      	adds	r0, #12
   256da:	213b      	movs	r1, #59	@ 0x3b
   256dc:	9003      	str	r0, [sp, #12]
   256de:	9102      	str	r1, [sp, #8]
   256e0:	f003 fd66 	bl	291b0 <__aeabi_memclr4>
   256e4:	9804      	ldr	r0, [sp, #16]
   256e6:	7220      	strb	r0, [r4, #8]
   256e8:	2404      	movs	r4, #4
   256ea:	9500      	str	r5, [sp, #0]
   256ec:	9401      	str	r4, [sp, #4]
   256ee:	a82f      	add	r0, sp, #188	@ 0xbc
   256f0:	492e      	ldr	r1, [pc, #184]	@ (257ac <_ZN20complex_full_dynamic3app17hf4f05b0f3f7b6df0E+0xf4>)
   256f2:	2508      	movs	r5, #8
   256f4:	462a      	mov	r2, r5
   256f6:	4633      	mov	r3, r6
   256f8:	f003 fd42 	bl	29180 <_ZN9allow_pin13dynamic_allow17h8bfd3764c146b81aE>
   256fc:	982f      	ldr	r0, [sp, #188]	@ 0xbc
   256fe:	2802      	cmp	r0, #2
   25700:	d102      	bne.n	25708 <_ZN20complex_full_dynamic3app17hf4f05b0f3f7b6df0E+0x50>
   25702:	9930      	ldr	r1, [sp, #192]	@ 0xc0
   25704:	4a29      	ldr	r2, [pc, #164]	@ (257ac <_ZN20complex_full_dynamic3app17hf4f05b0f3f7b6df0E+0xf4>)
   25706:	e004      	b.n	25712 <_ZN20complex_full_dynamic3app17hf4f05b0f3f7b6df0E+0x5a>
   25708:	a906      	add	r1, sp, #24
   2570a:	720c      	strb	r4, [r1, #8]
   2570c:	9507      	str	r5, [sp, #28]
   2570e:	4a27      	ldr	r2, [pc, #156]	@ (257ac <_ZN20complex_full_dynamic3app17hf4f05b0f3f7b6df0E+0xf4>)
   25710:	9206      	str	r2, [sp, #24]
   25712:	2501      	movs	r5, #1
   25714:	2802      	cmp	r0, #2
   25716:	d02f      	beq.n	25778 <_ZN20complex_full_dynamic3app17hf4f05b0f3f7b6df0E+0xc0>
   25718:	a81d      	add	r0, sp, #116	@ 0x74
   2571a:	7a00      	ldrb	r0, [r0, #8]
   2571c:	2802      	cmp	r0, #2
   2571e:	d10f      	bne.n	25740 <_ZN20complex_full_dynamic3app17hf4f05b0f3f7b6df0E+0x88>
   25720:	2603      	movs	r6, #3
   25722:	9802      	ldr	r0, [sp, #8]
   25724:	9000      	str	r0, [sp, #0]
   25726:	9601      	str	r6, [sp, #4]
   25728:	a82f      	add	r0, sp, #188	@ 0xbc
   2572a:	2405      	movs	r4, #5
   2572c:	4611      	mov	r1, r2
   2572e:	4622      	mov	r2, r4
   25730:	9b03      	ldr	r3, [sp, #12]
   25732:	f003 fd25 	bl	29180 <_ZN9allow_pin13dynamic_allow17h8bfd3764c146b81aE>
   25736:	982f      	ldr	r0, [sp, #188]	@ 0xbc
   25738:	2802      	cmp	r0, #2
   2573a:	d106      	bne.n	2574a <_ZN20complex_full_dynamic3app17hf4f05b0f3f7b6df0E+0x92>
   2573c:	9930      	ldr	r1, [sp, #192]	@ 0xc0
   2573e:	e000      	b.n	25742 <_ZN20complex_full_dynamic3app17hf4f05b0f3f7b6df0E+0x8a>
   25740:	2103      	movs	r1, #3
   25742:	4628      	mov	r0, r5
   25744:	2800      	cmp	r0, #0
   25746:	d008      	beq.n	2575a <_ZN20complex_full_dynamic3app17hf4f05b0f3f7b6df0E+0xa2>
   25748:	e016      	b.n	25778 <_ZN20complex_full_dynamic3app17hf4f05b0f3f7b6df0E+0xc0>
   2574a:	a81d      	add	r0, sp, #116	@ 0x74
   2574c:	7206      	strb	r6, [r0, #8]
   2574e:	941e      	str	r4, [sp, #120]	@ 0x78
   25750:	4816      	ldr	r0, [pc, #88]	@ (257ac <_ZN20complex_full_dynamic3app17hf4f05b0f3f7b6df0E+0xf4>)
   25752:	901d      	str	r0, [sp, #116]	@ 0x74
   25754:	2000      	movs	r0, #0
   25756:	2800      	cmp	r0, #0
   25758:	d10e      	bne.n	25778 <_ZN20complex_full_dynamic3app17hf4f05b0f3f7b6df0E+0xc0>
   2575a:	4814      	ldr	r0, [pc, #80]	@ (257ac <_ZN20complex_full_dynamic3app17hf4f05b0f3f7b6df0E+0xf4>)
   2575c:	2108      	movs	r1, #8
   2575e:	2205      	movs	r2, #5
   25760:	2400      	movs	r4, #0
   25762:	4623      	mov	r3, r4
   25764:	df02      	svc	2
   25766:	287f      	cmp	r0, #127	@ 0x7f
   25768:	d906      	bls.n	25778 <_ZN20complex_full_dynamic3app17hf4f05b0f3f7b6df0E+0xc0>
   2576a:	a806      	add	r0, sp, #24
   2576c:	f003 fcf4 	bl	29158 <_ZN9allow_pin12full_dynamic17unshare_if_shared17hc49b4b2653f8b2c9E>
   25770:	a81d      	add	r0, sp, #116	@ 0x74
   25772:	f003 fcf1 	bl	29158 <_ZN9allow_pin12full_dynamic17unshare_if_shared17hc49b4b2653f8b2c9E>
   25776:	4625      	mov	r5, r4
   25778:	2d00      	cmp	r5, #0
   2577a:	d003      	beq.n	25784 <_ZN20complex_full_dynamic3app17hf4f05b0f3f7b6df0E+0xcc>
   2577c:	9c05      	ldr	r4, [sp, #20]
   2577e:	6061      	str	r1, [r4, #4]
   25780:	2001      	movs	r0, #1
   25782:	e009      	b.n	25798 <_ZN20complex_full_dynamic3app17hf4f05b0f3f7b6df0E+0xe0>
   25784:	a81d      	add	r0, sp, #116	@ 0x74
   25786:	f003 fce7 	bl	29158 <_ZN9allow_pin12full_dynamic17unshare_if_shared17hc49b4b2653f8b2c9E>
   2578a:	9c05      	ldr	r4, [sp, #20]
   2578c:	1c60      	adds	r0, r4, #1
   2578e:	223b      	movs	r2, #59	@ 0x3b
   25790:	9903      	ldr	r1, [sp, #12]
   25792:	f003 feba 	bl	2950a <__aeabi_memcpy>
   25796:	2000      	movs	r0, #0
   25798:	7020      	strb	r0, [r4, #0]
   2579a:	a81d      	add	r0, sp, #116	@ 0x74
   2579c:	f003 fcdc 	bl	29158 <_ZN9allow_pin12full_dynamic17unshare_if_shared17hc49b4b2653f8b2c9E>
   257a0:	a806      	add	r0, sp, #24
   257a2:	f003 fcd9 	bl	29158 <_ZN9allow_pin12full_dynamic17unshare_if_shared17hc49b4b2653f8b2c9E>
   257a6:	b033      	add	sp, #204	@ 0xcc
   257a8:	bdf0      	pop	{r4, r5, r6, r7, pc}
   257aa:	46c0      	nop			@ (mov r8, r8)
   257ac:	00000a06 	.word	0x00000a06

000257b0 <_ZN20complex_full_dynamic3app17hf78d658d70adf068E>:
   257b0:	b5f0      	push	{r4, r5, r6, r7, lr}
   257b2:	af03      	add	r7, sp, #12
   257b4:	b0a9      	sub	sp, #164	@ 0xa4
   257b6:	9006      	str	r0, [sp, #24]
   257b8:	ad07      	add	r5, sp, #28
   257ba:	2002      	movs	r0, #2
   257bc:	9005      	str	r0, [sp, #20]
   257be:	7228      	strb	r0, [r5, #8]
   257c0:	350c      	adds	r5, #12
   257c2:	261b      	movs	r6, #27
   257c4:	4628      	mov	r0, r5
   257c6:	4632      	mov	r2, r6
   257c8:	f003 fe9f 	bl	2950a <__aeabi_memcpy>
   257cc:	ac11      	add	r4, sp, #68	@ 0x44
   257ce:	4620      	mov	r0, r4
   257d0:	300c      	adds	r0, #12
   257d2:	2141      	movs	r1, #65	@ 0x41
   257d4:	9004      	str	r0, [sp, #16]
   257d6:	9103      	str	r1, [sp, #12]
   257d8:	f003 fcea 	bl	291b0 <__aeabi_memclr4>
   257dc:	9805      	ldr	r0, [sp, #20]
   257de:	7220      	strb	r0, [r4, #8]
   257e0:	2004      	movs	r0, #4
   257e2:	9600      	str	r6, [sp, #0]
   257e4:	9005      	str	r0, [sp, #20]
   257e6:	9001      	str	r0, [sp, #4]
   257e8:	2005      	movs	r0, #5
   257ea:	0184      	lsls	r4, r0, #6
   257ec:	a825      	add	r0, sp, #148	@ 0x94
   257ee:	2608      	movs	r6, #8
   257f0:	4621      	mov	r1, r4
   257f2:	4632      	mov	r2, r6
   257f4:	462b      	mov	r3, r5
   257f6:	f003 fcc3 	bl	29180 <_ZN9allow_pin13dynamic_allow17h8bfd3764c146b81aE>
   257fa:	9825      	ldr	r0, [sp, #148]	@ 0x94
   257fc:	2802      	cmp	r0, #2
   257fe:	d101      	bne.n	25804 <_ZN20complex_full_dynamic3app17hf78d658d70adf068E+0x54>
   25800:	9926      	ldr	r1, [sp, #152]	@ 0x98
   25802:	e004      	b.n	2580e <_ZN20complex_full_dynamic3app17hf78d658d70adf068E+0x5e>
   25804:	a907      	add	r1, sp, #28
   25806:	9a05      	ldr	r2, [sp, #20]
   25808:	720a      	strb	r2, [r1, #8]
   2580a:	9608      	str	r6, [sp, #32]
   2580c:	9407      	str	r4, [sp, #28]
   2580e:	4623      	mov	r3, r4
   25810:	2501      	movs	r5, #1
   25812:	2802      	cmp	r0, #2
   25814:	d034      	beq.n	25880 <_ZN20complex_full_dynamic3app17hf78d658d70adf068E+0xd0>
   25816:	a811      	add	r0, sp, #68	@ 0x44
   25818:	7a00      	ldrb	r0, [r0, #8]
   2581a:	2802      	cmp	r0, #2
   2581c:	d114      	bne.n	25848 <_ZN20complex_full_dynamic3app17hf78d658d70adf068E+0x98>
   2581e:	2603      	movs	r6, #3
   25820:	9803      	ldr	r0, [sp, #12]
   25822:	9000      	str	r0, [sp, #0]
   25824:	9601      	str	r6, [sp, #4]
   25826:	a825      	add	r0, sp, #148	@ 0x94
   25828:	2409      	movs	r4, #9
   2582a:	4619      	mov	r1, r3
   2582c:	4622      	mov	r2, r4
   2582e:	9305      	str	r3, [sp, #20]
   25830:	9b04      	ldr	r3, [sp, #16]
   25832:	f003 fca5 	bl	29180 <_ZN9allow_pin13dynamic_allow17h8bfd3764c146b81aE>
   25836:	9825      	ldr	r0, [sp, #148]	@ 0x94
   25838:	2802      	cmp	r0, #2
   2583a:	d10a      	bne.n	25852 <_ZN20complex_full_dynamic3app17hf78d658d70adf068E+0xa2>
   2583c:	9926      	ldr	r1, [sp, #152]	@ 0x98
   2583e:	4628      	mov	r0, r5
   25840:	9b05      	ldr	r3, [sp, #20]
   25842:	2800      	cmp	r0, #0
   25844:	d00d      	beq.n	25862 <_ZN20complex_full_dynamic3app17hf78d658d70adf068E+0xb2>
   25846:	e01b      	b.n	25880 <_ZN20complex_full_dynamic3app17hf78d658d70adf068E+0xd0>
   25848:	2103      	movs	r1, #3
   2584a:	4628      	mov	r0, r5
   2584c:	2800      	cmp	r0, #0
   2584e:	d008      	beq.n	25862 <_ZN20complex_full_dynamic3app17hf78d658d70adf068E+0xb2>
   25850:	e016      	b.n	25880 <_ZN20complex_full_dynamic3app17hf78d658d70adf068E+0xd0>
   25852:	a811      	add	r0, sp, #68	@ 0x44
   25854:	7206      	strb	r6, [r0, #8]
   25856:	9412      	str	r4, [sp, #72]	@ 0x48
   25858:	9b05      	ldr	r3, [sp, #20]
   2585a:	9311      	str	r3, [sp, #68]	@ 0x44
   2585c:	2000      	movs	r0, #0
   2585e:	2800      	cmp	r0, #0
   25860:	d10e      	bne.n	25880 <_ZN20complex_full_dynamic3app17hf78d658d70adf068E+0xd0>
   25862:	2108      	movs	r1, #8
   25864:	2209      	movs	r2, #9
   25866:	2400      	movs	r4, #0
   25868:	4618      	mov	r0, r3
   2586a:	4623      	mov	r3, r4
   2586c:	df02      	svc	2
   2586e:	287f      	cmp	r0, #127	@ 0x7f
   25870:	d906      	bls.n	25880 <_ZN20complex_full_dynamic3app17hf78d658d70adf068E+0xd0>
   25872:	a807      	add	r0, sp, #28
   25874:	f003 fc70 	bl	29158 <_ZN9allow_pin12full_dynamic17unshare_if_shared17hc49b4b2653f8b2c9E>
   25878:	a811      	add	r0, sp, #68	@ 0x44
   2587a:	f003 fc6d 	bl	29158 <_ZN9allow_pin12full_dynamic17unshare_if_shared17hc49b4b2653f8b2c9E>
   2587e:	4625      	mov	r5, r4
   25880:	2d00      	cmp	r5, #0
   25882:	d003      	beq.n	2588c <_ZN20complex_full_dynamic3app17hf78d658d70adf068E+0xdc>
   25884:	9c06      	ldr	r4, [sp, #24]
   25886:	6061      	str	r1, [r4, #4]
   25888:	2001      	movs	r0, #1
   2588a:	e009      	b.n	258a0 <_ZN20complex_full_dynamic3app17hf78d658d70adf068E+0xf0>
   2588c:	a811      	add	r0, sp, #68	@ 0x44
   2588e:	f003 fc63 	bl	29158 <_ZN9allow_pin12full_dynamic17unshare_if_shared17hc49b4b2653f8b2c9E>
   25892:	9c06      	ldr	r4, [sp, #24]
   25894:	1c60      	adds	r0, r4, #1
   25896:	2241      	movs	r2, #65	@ 0x41
   25898:	9904      	ldr	r1, [sp, #16]
   2589a:	f003 fe36 	bl	2950a <__aeabi_memcpy>
   2589e:	2000      	movs	r0, #0
   258a0:	7020      	strb	r0, [r4, #0]
   258a2:	a811      	add	r0, sp, #68	@ 0x44
   258a4:	f003 fc58 	bl	29158 <_ZN9allow_pin12full_dynamic17unshare_if_shared17hc49b4b2653f8b2c9E>
   258a8:	a807      	add	r0, sp, #28
   258aa:	f003 fc55 	bl	29158 <_ZN9allow_pin12full_dynamic17unshare_if_shared17hc49b4b2653f8b2c9E>
   258ae:	b029      	add	sp, #164	@ 0xa4
   258b0:	bdf0      	pop	{r4, r5, r6, r7, pc}
   258b2:	d4d4      	bmi.n	2585e <_ZN20complex_full_dynamic3app17hf78d658d70adf068E+0xae>

000258b4 <_ZN20complex_full_dynamic3app17hfcc9450befc7d09cE>:
   258b4:	b5f0      	push	{r4, r5, r6, r7, lr}
   258b6:	af03      	add	r7, sp, #12
   258b8:	b0af      	sub	sp, #188	@ 0xbc
   258ba:	9006      	str	r0, [sp, #24]
   258bc:	ad07      	add	r5, sp, #28
   258be:	2402      	movs	r4, #2
   258c0:	722c      	strb	r4, [r5, #8]
   258c2:	350c      	adds	r5, #12
   258c4:	2221      	movs	r2, #33	@ 0x21
   258c6:	9205      	str	r2, [sp, #20]
   258c8:	4628      	mov	r0, r5
   258ca:	f003 fe1e 	bl	2950a <__aeabi_memcpy>
   258ce:	ae13      	add	r6, sp, #76	@ 0x4c
   258d0:	4630      	mov	r0, r6
   258d2:	300c      	adds	r0, #12
   258d4:	2153      	movs	r1, #83	@ 0x53
   258d6:	9004      	str	r0, [sp, #16]
   258d8:	9103      	str	r1, [sp, #12]
   258da:	f003 fc69 	bl	291b0 <__aeabi_memclr4>
   258de:	7234      	strb	r4, [r6, #8]
   258e0:	4626      	mov	r6, r4
   258e2:	2004      	movs	r0, #4
   258e4:	9905      	ldr	r1, [sp, #20]
   258e6:	9100      	str	r1, [sp, #0]
   258e8:	9005      	str	r0, [sp, #20]
   258ea:	9001      	str	r0, [sp, #4]
   258ec:	a82b      	add	r0, sp, #172	@ 0xac
   258ee:	4c2e      	ldr	r4, [pc, #184]	@ (259a8 <_ZN20complex_full_dynamic3app17hfcc9450befc7d09cE+0xf4>)
   258f0:	4621      	mov	r1, r4
   258f2:	4632      	mov	r2, r6
   258f4:	462b      	mov	r3, r5
   258f6:	f003 fc43 	bl	29180 <_ZN9allow_pin13dynamic_allow17h8bfd3764c146b81aE>
   258fa:	982b      	ldr	r0, [sp, #172]	@ 0xac
   258fc:	2802      	cmp	r0, #2
   258fe:	d101      	bne.n	25904 <_ZN20complex_full_dynamic3app17hfcc9450befc7d09cE+0x50>
   25900:	992c      	ldr	r1, [sp, #176]	@ 0xb0
   25902:	e004      	b.n	2590e <_ZN20complex_full_dynamic3app17hfcc9450befc7d09cE+0x5a>
   25904:	a907      	add	r1, sp, #28
   25906:	9a05      	ldr	r2, [sp, #20]
   25908:	720a      	strb	r2, [r1, #8]
   2590a:	9608      	str	r6, [sp, #32]
   2590c:	9407      	str	r4, [sp, #28]
   2590e:	2501      	movs	r5, #1
   25910:	2802      	cmp	r0, #2
   25912:	d02f      	beq.n	25974 <_ZN20complex_full_dynamic3app17hfcc9450befc7d09cE+0xc0>
   25914:	a813      	add	r0, sp, #76	@ 0x4c
   25916:	7a00      	ldrb	r0, [r0, #8]
   25918:	2802      	cmp	r0, #2
   2591a:	d10f      	bne.n	2593c <_ZN20complex_full_dynamic3app17hfcc9450befc7d09cE+0x88>
   2591c:	2603      	movs	r6, #3
   2591e:	9803      	ldr	r0, [sp, #12]
   25920:	9000      	str	r0, [sp, #0]
   25922:	9601      	str	r6, [sp, #4]
   25924:	a82b      	add	r0, sp, #172	@ 0xac
   25926:	4621      	mov	r1, r4
   25928:	2408      	movs	r4, #8
   2592a:	4622      	mov	r2, r4
   2592c:	9b04      	ldr	r3, [sp, #16]
   2592e:	f003 fc27 	bl	29180 <_ZN9allow_pin13dynamic_allow17h8bfd3764c146b81aE>
   25932:	982b      	ldr	r0, [sp, #172]	@ 0xac
   25934:	2802      	cmp	r0, #2
   25936:	d106      	bne.n	25946 <_ZN20complex_full_dynamic3app17hfcc9450befc7d09cE+0x92>
   25938:	992c      	ldr	r1, [sp, #176]	@ 0xb0
   2593a:	e000      	b.n	2593e <_ZN20complex_full_dynamic3app17hfcc9450befc7d09cE+0x8a>
   2593c:	2103      	movs	r1, #3
   2593e:	4628      	mov	r0, r5
   25940:	2800      	cmp	r0, #0
   25942:	d008      	beq.n	25956 <_ZN20complex_full_dynamic3app17hfcc9450befc7d09cE+0xa2>
   25944:	e016      	b.n	25974 <_ZN20complex_full_dynamic3app17hfcc9450befc7d09cE+0xc0>
   25946:	a813      	add	r0, sp, #76	@ 0x4c
   25948:	7206      	strb	r6, [r0, #8]
   2594a:	9414      	str	r4, [sp, #80]	@ 0x50
   2594c:	4816      	ldr	r0, [pc, #88]	@ (259a8 <_ZN20complex_full_dynamic3app17hfcc9450befc7d09cE+0xf4>)
   2594e:	9013      	str	r0, [sp, #76]	@ 0x4c
   25950:	2000      	movs	r0, #0
   25952:	2800      	cmp	r0, #0
   25954:	d10e      	bne.n	25974 <_ZN20complex_full_dynamic3app17hfcc9450befc7d09cE+0xc0>
   25956:	4814      	ldr	r0, [pc, #80]	@ (259a8 <_ZN20complex_full_dynamic3app17hfcc9450befc7d09cE+0xf4>)
   25958:	2102      	movs	r1, #2
   2595a:	2208      	movs	r2, #8
   2595c:	2400      	movs	r4, #0
   2595e:	4623      	mov	r3, r4
   25960:	df02      	svc	2
   25962:	287f      	cmp	r0, #127	@ 0x7f
   25964:	d906      	bls.n	25974 <_ZN20complex_full_dynamic3app17hfcc9450befc7d09cE+0xc0>
   25966:	a807      	add	r0, sp, #28
   25968:	f003 fbf6 	bl	29158 <_ZN9allow_pin12full_dynamic17unshare_if_shared17hc49b4b2653f8b2c9E>
   2596c:	a813      	add	r0, sp, #76	@ 0x4c
   2596e:	f003 fbf3 	bl	29158 <_ZN9allow_pin12full_dynamic17unshare_if_shared17hc49b4b2653f8b2c9E>
   25972:	4625      	mov	r5, r4
   25974:	2d00      	cmp	r5, #0
   25976:	d003      	beq.n	25980 <_ZN20complex_full_dynamic3app17hfcc9450befc7d09cE+0xcc>
   25978:	9c06      	ldr	r4, [sp, #24]
   2597a:	6061      	str	r1, [r4, #4]
   2597c:	2001      	movs	r0, #1
   2597e:	e009      	b.n	25994 <_ZN20complex_full_dynamic3app17hfcc9450befc7d09cE+0xe0>
   25980:	a813      	add	r0, sp, #76	@ 0x4c
   25982:	f003 fbe9 	bl	29158 <_ZN9allow_pin12full_dynamic17unshare_if_shared17hc49b4b2653f8b2c9E>
   25986:	9c06      	ldr	r4, [sp, #24]
   25988:	1c60      	adds	r0, r4, #1
   2598a:	2253      	movs	r2, #83	@ 0x53
   2598c:	9904      	ldr	r1, [sp, #16]
   2598e:	f003 fdbc 	bl	2950a <__aeabi_memcpy>
   25992:	2000      	movs	r0, #0
   25994:	7020      	strb	r0, [r4, #0]
   25996:	a813      	add	r0, sp, #76	@ 0x4c
   25998:	f003 fbde 	bl	29158 <_ZN9allow_pin12full_dynamic17unshare_if_shared17hc49b4b2653f8b2c9E>
   2599c:	a807      	add	r0, sp, #28
   2599e:	f003 fbdb 	bl	29158 <_ZN9allow_pin12full_dynamic17unshare_if_shared17hc49b4b2653f8b2c9E>
   259a2:	b02f      	add	sp, #188	@ 0xbc
   259a4:	bdf0      	pop	{r4, r5, r6, r7, pc}
   259a6:	46c0      	nop			@ (mov r8, r8)
   259a8:	0000253e 	.word	0x0000253e

000259ac <_ZN20complex_full_dynamic3app17hfd2888a15b6220b2E>:
   259ac:	b5f0      	push	{r4, r5, r6, r7, lr}
   259ae:	af03      	add	r7, sp, #12
   259b0:	b0b3      	sub	sp, #204	@ 0xcc
   259b2:	9006      	str	r0, [sp, #24]
   259b4:	ad07      	add	r5, sp, #28
   259b6:	2002      	movs	r0, #2
   259b8:	9005      	str	r0, [sp, #20]
   259ba:	7228      	strb	r0, [r5, #8]
   259bc:	350c      	adds	r5, #12
   259be:	262a      	movs	r6, #42	@ 0x2a
   259c0:	4628      	mov	r0, r5
   259c2:	4632      	mov	r2, r6
   259c4:	f003 fda1 	bl	2950a <__aeabi_memcpy>
   259c8:	ac15      	add	r4, sp, #84	@ 0x54
   259ca:	4620      	mov	r0, r4
   259cc:	300c      	adds	r0, #12
   259ce:	2159      	movs	r1, #89	@ 0x59
   259d0:	9004      	str	r0, [sp, #16]
   259d2:	9103      	str	r1, [sp, #12]
   259d4:	f003 fbec 	bl	291b0 <__aeabi_memclr4>
   259d8:	9805      	ldr	r0, [sp, #20]
   259da:	7220      	strb	r0, [r4, #8]
   259dc:	2404      	movs	r4, #4
   259de:	9600      	str	r6, [sp, #0]
   259e0:	9401      	str	r4, [sp, #4]
   259e2:	a82f      	add	r0, sp, #188	@ 0xbc
   259e4:	492d      	ldr	r1, [pc, #180]	@ (25a9c <_ZN20complex_full_dynamic3app17hfd2888a15b6220b2E+0xf0>)
   259e6:	2601      	movs	r6, #1
   259e8:	4632      	mov	r2, r6
   259ea:	462b      	mov	r3, r5
   259ec:	f003 fbc8 	bl	29180 <_ZN9allow_pin13dynamic_allow17h8bfd3764c146b81aE>
   259f0:	982f      	ldr	r0, [sp, #188]	@ 0xbc
   259f2:	2802      	cmp	r0, #2
   259f4:	d104      	bne.n	25a00 <_ZN20complex_full_dynamic3app17hfd2888a15b6220b2E+0x54>
   259f6:	9930      	ldr	r1, [sp, #192]	@ 0xc0
   259f8:	4c28      	ldr	r4, [pc, #160]	@ (25a9c <_ZN20complex_full_dynamic3app17hfd2888a15b6220b2E+0xf0>)
   259fa:	2802      	cmp	r0, #2
   259fc:	d107      	bne.n	25a0e <_ZN20complex_full_dynamic3app17hfd2888a15b6220b2E+0x62>
   259fe:	e034      	b.n	25a6a <_ZN20complex_full_dynamic3app17hfd2888a15b6220b2E+0xbe>
   25a00:	a907      	add	r1, sp, #28
   25a02:	720c      	strb	r4, [r1, #8]
   25a04:	9608      	str	r6, [sp, #32]
   25a06:	4c25      	ldr	r4, [pc, #148]	@ (25a9c <_ZN20complex_full_dynamic3app17hfd2888a15b6220b2E+0xf0>)
   25a08:	9407      	str	r4, [sp, #28]
   25a0a:	2802      	cmp	r0, #2
   25a0c:	d02d      	beq.n	25a6a <_ZN20complex_full_dynamic3app17hfd2888a15b6220b2E+0xbe>
   25a0e:	a815      	add	r0, sp, #84	@ 0x54
   25a10:	7a00      	ldrb	r0, [r0, #8]
   25a12:	2802      	cmp	r0, #2
   25a14:	d10e      	bne.n	25a34 <_ZN20complex_full_dynamic3app17hfd2888a15b6220b2E+0x88>
   25a16:	2503      	movs	r5, #3
   25a18:	9803      	ldr	r0, [sp, #12]
   25a1a:	9000      	str	r0, [sp, #0]
   25a1c:	9501      	str	r5, [sp, #4]
   25a1e:	a82f      	add	r0, sp, #188	@ 0xbc
   25a20:	4621      	mov	r1, r4
   25a22:	462a      	mov	r2, r5
   25a24:	9b04      	ldr	r3, [sp, #16]
   25a26:	f003 fbab 	bl	29180 <_ZN9allow_pin13dynamic_allow17h8bfd3764c146b81aE>
   25a2a:	982f      	ldr	r0, [sp, #188]	@ 0xbc
   25a2c:	2802      	cmp	r0, #2
   25a2e:	d106      	bne.n	25a3e <_ZN20complex_full_dynamic3app17hfd2888a15b6220b2E+0x92>
   25a30:	9930      	ldr	r1, [sp, #192]	@ 0xc0
   25a32:	e000      	b.n	25a36 <_ZN20complex_full_dynamic3app17hfd2888a15b6220b2E+0x8a>
   25a34:	2103      	movs	r1, #3
   25a36:	4630      	mov	r0, r6
   25a38:	2800      	cmp	r0, #0
   25a3a:	d007      	beq.n	25a4c <_ZN20complex_full_dynamic3app17hfd2888a15b6220b2E+0xa0>
   25a3c:	e015      	b.n	25a6a <_ZN20complex_full_dynamic3app17hfd2888a15b6220b2E+0xbe>
   25a3e:	a815      	add	r0, sp, #84	@ 0x54
   25a40:	7205      	strb	r5, [r0, #8]
   25a42:	9516      	str	r5, [sp, #88]	@ 0x58
   25a44:	9415      	str	r4, [sp, #84]	@ 0x54
   25a46:	2000      	movs	r0, #0
   25a48:	2800      	cmp	r0, #0
   25a4a:	d10e      	bne.n	25a6a <_ZN20complex_full_dynamic3app17hfd2888a15b6220b2E+0xbe>
   25a4c:	4813      	ldr	r0, [pc, #76]	@ (25a9c <_ZN20complex_full_dynamic3app17hfd2888a15b6220b2E+0xf0>)
   25a4e:	2101      	movs	r1, #1
   25a50:	2203      	movs	r2, #3
   25a52:	2400      	movs	r4, #0
   25a54:	4623      	mov	r3, r4
   25a56:	df02      	svc	2
   25a58:	287f      	cmp	r0, #127	@ 0x7f
   25a5a:	d906      	bls.n	25a6a <_ZN20complex_full_dynamic3app17hfd2888a15b6220b2E+0xbe>
   25a5c:	a807      	add	r0, sp, #28
   25a5e:	f003 fb7b 	bl	29158 <_ZN9allow_pin12full_dynamic17unshare_if_shared17hc49b4b2653f8b2c9E>
   25a62:	a815      	add	r0, sp, #84	@ 0x54
   25a64:	f003 fb78 	bl	29158 <_ZN9allow_pin12full_dynamic17unshare_if_shared17hc49b4b2653f8b2c9E>
   25a68:	4626      	mov	r6, r4
   25a6a:	2e00      	cmp	r6, #0
   25a6c:	d003      	beq.n	25a76 <_ZN20complex_full_dynamic3app17hfd2888a15b6220b2E+0xca>
   25a6e:	9c06      	ldr	r4, [sp, #24]
   25a70:	6061      	str	r1, [r4, #4]
   25a72:	2001      	movs	r0, #1
   25a74:	e009      	b.n	25a8a <_ZN20complex_full_dynamic3app17hfd2888a15b6220b2E+0xde>
   25a76:	a815      	add	r0, sp, #84	@ 0x54
   25a78:	f003 fb6e 	bl	29158 <_ZN9allow_pin12full_dynamic17unshare_if_shared17hc49b4b2653f8b2c9E>
   25a7c:	9c06      	ldr	r4, [sp, #24]
   25a7e:	1c60      	adds	r0, r4, #1
   25a80:	2259      	movs	r2, #89	@ 0x59
   25a82:	9904      	ldr	r1, [sp, #16]
   25a84:	f003 fd41 	bl	2950a <__aeabi_memcpy>
   25a88:	2000      	movs	r0, #0
   25a8a:	7020      	strb	r0, [r4, #0]
   25a8c:	a815      	add	r0, sp, #84	@ 0x54
   25a8e:	f003 fb63 	bl	29158 <_ZN9allow_pin12full_dynamic17unshare_if_shared17hc49b4b2653f8b2c9E>
   25a92:	a807      	add	r0, sp, #28
   25a94:	f003 fb60 	bl	29158 <_ZN9allow_pin12full_dynamic17unshare_if_shared17hc49b4b2653f8b2c9E>
   25a98:	b033      	add	sp, #204	@ 0xcc
   25a9a:	bdf0      	pop	{r4, r5, r6, r7, pc}
   25a9c:	00000ed2 	.word	0x00000ed2

00025aa0 <_ZN20complex_full_dynamic3app17hfe118b923384e448E>:
   25aa0:	b5f0      	push	{r4, r5, r6, r7, lr}
   25aa2:	af03      	add	r7, sp, #12
   25aa4:	b0ad      	sub	sp, #180	@ 0xb4
   25aa6:	9005      	str	r0, [sp, #20]
   25aa8:	ad06      	add	r5, sp, #24
   25aaa:	2002      	movs	r0, #2
   25aac:	9004      	str	r0, [sp, #16]
   25aae:	7228      	strb	r0, [r5, #8]
   25ab0:	350c      	adds	r5, #12
   25ab2:	263c      	movs	r6, #60	@ 0x3c
   25ab4:	4628      	mov	r0, r5
   25ab6:	4632      	mov	r2, r6
   25ab8:	f003 fd27 	bl	2950a <__aeabi_memcpy>
   25abc:	ac18      	add	r4, sp, #96	@ 0x60
   25abe:	4620      	mov	r0, r4
   25ac0:	300c      	adds	r0, #12
   25ac2:	2138      	movs	r1, #56	@ 0x38
   25ac4:	9003      	str	r0, [sp, #12]
   25ac6:	9102      	str	r1, [sp, #8]
   25ac8:	f003 fb72 	bl	291b0 <__aeabi_memclr4>
   25acc:	9804      	ldr	r0, [sp, #16]
   25ace:	7220      	strb	r0, [r4, #8]
   25ad0:	2404      	movs	r4, #4
   25ad2:	9600      	str	r6, [sp, #0]
   25ad4:	9401      	str	r4, [sp, #4]
   25ad6:	a829      	add	r0, sp, #164	@ 0xa4
   25ad8:	492d      	ldr	r1, [pc, #180]	@ (25b90 <_ZN20complex_full_dynamic3app17hfe118b923384e448E+0xf0>)
   25ada:	2603      	movs	r6, #3
   25adc:	4632      	mov	r2, r6
   25ade:	462b      	mov	r3, r5
   25ae0:	f003 fb4e 	bl	29180 <_ZN9allow_pin13dynamic_allow17h8bfd3764c146b81aE>
   25ae4:	9829      	ldr	r0, [sp, #164]	@ 0xa4
   25ae6:	2802      	cmp	r0, #2
   25ae8:	d102      	bne.n	25af0 <_ZN20complex_full_dynamic3app17hfe118b923384e448E+0x50>
   25aea:	992a      	ldr	r1, [sp, #168]	@ 0xa8
   25aec:	4c28      	ldr	r4, [pc, #160]	@ (25b90 <_ZN20complex_full_dynamic3app17hfe118b923384e448E+0xf0>)
   25aee:	e004      	b.n	25afa <_ZN20complex_full_dynamic3app17hfe118b923384e448E+0x5a>
   25af0:	a906      	add	r1, sp, #24
   25af2:	720c      	strb	r4, [r1, #8]
   25af4:	9607      	str	r6, [sp, #28]
   25af6:	4c26      	ldr	r4, [pc, #152]	@ (25b90 <_ZN20complex_full_dynamic3app17hfe118b923384e448E+0xf0>)
   25af8:	9406      	str	r4, [sp, #24]
   25afa:	2501      	movs	r5, #1
   25afc:	2802      	cmp	r0, #2
   25afe:	d02d      	beq.n	25b5c <_ZN20complex_full_dynamic3app17hfe118b923384e448E+0xbc>
   25b00:	a818      	add	r0, sp, #96	@ 0x60
   25b02:	7a00      	ldrb	r0, [r0, #8]
   25b04:	2802      	cmp	r0, #2
   25b06:	4628      	mov	r0, r5
   25b08:	d10e      	bne.n	25b28 <_ZN20complex_full_dynamic3app17hfe118b923384e448E+0x88>
   25b0a:	2603      	movs	r6, #3
   25b0c:	9802      	ldr	r0, [sp, #8]
   25b0e:	9000      	str	r0, [sp, #0]
   25b10:	9601      	str	r6, [sp, #4]
   25b12:	a829      	add	r0, sp, #164	@ 0xa4
   25b14:	4621      	mov	r1, r4
   25b16:	4632      	mov	r2, r6
   25b18:	9b03      	ldr	r3, [sp, #12]
   25b1a:	f003 fb31 	bl	29180 <_ZN9allow_pin13dynamic_allow17h8bfd3764c146b81aE>
   25b1e:	9829      	ldr	r0, [sp, #164]	@ 0xa4
   25b20:	2802      	cmp	r0, #2
   25b22:	d105      	bne.n	25b30 <_ZN20complex_full_dynamic3app17hfe118b923384e448E+0x90>
   25b24:	9e2a      	ldr	r6, [sp, #168]	@ 0xa8
   25b26:	4628      	mov	r0, r5
   25b28:	2800      	cmp	r0, #0
   25b2a:	d008      	beq.n	25b3e <_ZN20complex_full_dynamic3app17hfe118b923384e448E+0x9e>
   25b2c:	4631      	mov	r1, r6
   25b2e:	e015      	b.n	25b5c <_ZN20complex_full_dynamic3app17hfe118b923384e448E+0xbc>
   25b30:	a818      	add	r0, sp, #96	@ 0x60
   25b32:	7206      	strb	r6, [r0, #8]
   25b34:	9619      	str	r6, [sp, #100]	@ 0x64
   25b36:	9418      	str	r4, [sp, #96]	@ 0x60
   25b38:	2000      	movs	r0, #0
   25b3a:	2800      	cmp	r0, #0
   25b3c:	d1f6      	bne.n	25b2c <_ZN20complex_full_dynamic3app17hfe118b923384e448E+0x8c>
   25b3e:	4814      	ldr	r0, [pc, #80]	@ (25b90 <_ZN20complex_full_dynamic3app17hfe118b923384e448E+0xf0>)
   25b40:	2103      	movs	r1, #3
   25b42:	2400      	movs	r4, #0
   25b44:	460a      	mov	r2, r1
   25b46:	4623      	mov	r3, r4
   25b48:	df02      	svc	2
   25b4a:	287f      	cmp	r0, #127	@ 0x7f
   25b4c:	d906      	bls.n	25b5c <_ZN20complex_full_dynamic3app17hfe118b923384e448E+0xbc>
   25b4e:	a806      	add	r0, sp, #24
   25b50:	f003 fb02 	bl	29158 <_ZN9allow_pin12full_dynamic17unshare_if_shared17hc49b4b2653f8b2c9E>
   25b54:	a818      	add	r0, sp, #96	@ 0x60
   25b56:	f003 faff 	bl	29158 <_ZN9allow_pin12full_dynamic17unshare_if_shared17hc49b4b2653f8b2c9E>
   25b5a:	4625      	mov	r5, r4
   25b5c:	2d00      	cmp	r5, #0
   25b5e:	d003      	beq.n	25b68 <_ZN20complex_full_dynamic3app17hfe118b923384e448E+0xc8>
   25b60:	9c05      	ldr	r4, [sp, #20]
   25b62:	6061      	str	r1, [r4, #4]
   25b64:	2001      	movs	r0, #1
   25b66:	e009      	b.n	25b7c <_ZN20complex_full_dynamic3app17hfe118b923384e448E+0xdc>
   25b68:	a818      	add	r0, sp, #96	@ 0x60
   25b6a:	f003 faf5 	bl	29158 <_ZN9allow_pin12full_dynamic17unshare_if_shared17hc49b4b2653f8b2c9E>
   25b6e:	9c05      	ldr	r4, [sp, #20]
   25b70:	1c60      	adds	r0, r4, #1
   25b72:	2238      	movs	r2, #56	@ 0x38
   25b74:	9903      	ldr	r1, [sp, #12]
   25b76:	f003 fcc8 	bl	2950a <__aeabi_memcpy>
   25b7a:	2000      	movs	r0, #0
   25b7c:	7020      	strb	r0, [r4, #0]
   25b7e:	a818      	add	r0, sp, #96	@ 0x60
   25b80:	f003 faea 	bl	29158 <_ZN9allow_pin12full_dynamic17unshare_if_shared17hc49b4b2653f8b2c9E>
   25b84:	a806      	add	r0, sp, #24
   25b86:	f003 fae7 	bl	29158 <_ZN9allow_pin12full_dynamic17unshare_if_shared17hc49b4b2653f8b2c9E>
   25b8a:	b02d      	add	sp, #180	@ 0xb4
   25b8c:	bdf0      	pop	{r4, r5, r6, r7, pc}
   25b8e:	46c0      	nop			@ (mov r8, r8)
   25b90:	00001d19 	.word	0x00001d19

00025b94 <_ZN20complex_full_dynamic3app17hfe402501e807ad00E>:
   25b94:	b5f0      	push	{r4, r5, r6, r7, lr}
   25b96:	af03      	add	r7, sp, #12
   25b98:	b0a1      	sub	sp, #132	@ 0x84
   25b9a:	9003      	str	r0, [sp, #12]
   25b9c:	ae05      	add	r6, sp, #20
   25b9e:	2402      	movs	r4, #2
   25ba0:	7234      	strb	r4, [r6, #8]
   25ba2:	360c      	adds	r6, #12
   25ba4:	2227      	movs	r2, #39	@ 0x27
   25ba6:	9202      	str	r2, [sp, #8]
   25ba8:	4630      	mov	r0, r6
   25baa:	f003 fcae 	bl	2950a <__aeabi_memcpy>
   25bae:	a812      	add	r0, sp, #72	@ 0x48
   25bb0:	2500      	movs	r5, #0
   25bb2:	8505      	strh	r5, [r0, #40]	@ 0x28
   25bb4:	9004      	str	r0, [sp, #16]
   25bb6:	7204      	strb	r4, [r0, #8]
   25bb8:	951b      	str	r5, [sp, #108]	@ 0x6c
   25bba:	951a      	str	r5, [sp, #104]	@ 0x68
   25bbc:	9519      	str	r5, [sp, #100]	@ 0x64
   25bbe:	9518      	str	r5, [sp, #96]	@ 0x60
   25bc0:	9517      	str	r5, [sp, #92]	@ 0x5c
   25bc2:	9516      	str	r5, [sp, #88]	@ 0x58
   25bc4:	9515      	str	r5, [sp, #84]	@ 0x54
   25bc6:	2004      	movs	r0, #4
   25bc8:	9902      	ldr	r1, [sp, #8]
   25bca:	9100      	str	r1, [sp, #0]
   25bcc:	9002      	str	r0, [sp, #8]
   25bce:	9001      	str	r0, [sp, #4]
   25bd0:	a81d      	add	r0, sp, #116	@ 0x74
   25bd2:	492f      	ldr	r1, [pc, #188]	@ (25c90 <_ZN20complex_full_dynamic3app17hfe402501e807ad00E+0xfc>)
   25bd4:	2403      	movs	r4, #3
   25bd6:	4622      	mov	r2, r4
   25bd8:	4633      	mov	r3, r6
   25bda:	f003 fad1 	bl	29180 <_ZN9allow_pin13dynamic_allow17h8bfd3764c146b81aE>
   25bde:	981d      	ldr	r0, [sp, #116]	@ 0x74
   25be0:	2802      	cmp	r0, #2
   25be2:	d102      	bne.n	25bea <_ZN20complex_full_dynamic3app17hfe402501e807ad00E+0x56>
   25be4:	991e      	ldr	r1, [sp, #120]	@ 0x78
   25be6:	4b2a      	ldr	r3, [pc, #168]	@ (25c90 <_ZN20complex_full_dynamic3app17hfe402501e807ad00E+0xfc>)
   25be8:	e005      	b.n	25bf6 <_ZN20complex_full_dynamic3app17hfe402501e807ad00E+0x62>
   25bea:	a905      	add	r1, sp, #20
   25bec:	9a02      	ldr	r2, [sp, #8]
   25bee:	720a      	strb	r2, [r1, #8]
   25bf0:	9406      	str	r4, [sp, #24]
   25bf2:	4b27      	ldr	r3, [pc, #156]	@ (25c90 <_ZN20complex_full_dynamic3app17hfe402501e807ad00E+0xfc>)
   25bf4:	9305      	str	r3, [sp, #20]
   25bf6:	9a04      	ldr	r2, [sp, #16]
   25bf8:	320c      	adds	r2, #12
   25bfa:	9204      	str	r2, [sp, #16]
   25bfc:	2601      	movs	r6, #1
   25bfe:	2802      	cmp	r0, #2
   25c00:	d02e      	beq.n	25c60 <_ZN20complex_full_dynamic3app17hfe402501e807ad00E+0xcc>
   25c02:	a812      	add	r0, sp, #72	@ 0x48
   25c04:	7a00      	ldrb	r0, [r0, #8]
   25c06:	2802      	cmp	r0, #2
   25c08:	4630      	mov	r0, r6
   25c0a:	d10e      	bne.n	25c2a <_ZN20complex_full_dynamic3app17hfe402501e807ad00E+0x96>
   25c0c:	2403      	movs	r4, #3
   25c0e:	201e      	movs	r0, #30
   25c10:	9000      	str	r0, [sp, #0]
   25c12:	9401      	str	r4, [sp, #4]
   25c14:	a81d      	add	r0, sp, #116	@ 0x74
   25c16:	4619      	mov	r1, r3
   25c18:	4622      	mov	r2, r4
   25c1a:	9b04      	ldr	r3, [sp, #16]
   25c1c:	f003 fab0 	bl	29180 <_ZN9allow_pin13dynamic_allow17h8bfd3764c146b81aE>
   25c20:	981d      	ldr	r0, [sp, #116]	@ 0x74
   25c22:	2802      	cmp	r0, #2
   25c24:	d105      	bne.n	25c32 <_ZN20complex_full_dynamic3app17hfe402501e807ad00E+0x9e>
   25c26:	9c1e      	ldr	r4, [sp, #120]	@ 0x78
   25c28:	4630      	mov	r0, r6
   25c2a:	2800      	cmp	r0, #0
   25c2c:	d009      	beq.n	25c42 <_ZN20complex_full_dynamic3app17hfe402501e807ad00E+0xae>
   25c2e:	4621      	mov	r1, r4
   25c30:	e016      	b.n	25c60 <_ZN20complex_full_dynamic3app17hfe402501e807ad00E+0xcc>
   25c32:	a812      	add	r0, sp, #72	@ 0x48
   25c34:	7204      	strb	r4, [r0, #8]
   25c36:	9413      	str	r4, [sp, #76]	@ 0x4c
   25c38:	4815      	ldr	r0, [pc, #84]	@ (25c90 <_ZN20complex_full_dynamic3app17hfe402501e807ad00E+0xfc>)
   25c3a:	9012      	str	r0, [sp, #72]	@ 0x48
   25c3c:	4628      	mov	r0, r5
   25c3e:	2800      	cmp	r0, #0
   25c40:	d1f5      	bne.n	25c2e <_ZN20complex_full_dynamic3app17hfe402501e807ad00E+0x9a>
   25c42:	4813      	ldr	r0, [pc, #76]	@ (25c90 <_ZN20complex_full_dynamic3app17hfe402501e807ad00E+0xfc>)
   25c44:	2103      	movs	r1, #3
   25c46:	2400      	movs	r4, #0
   25c48:	460a      	mov	r2, r1
   25c4a:	4623      	mov	r3, r4
   25c4c:	df02      	svc	2
   25c4e:	287f      	cmp	r0, #127	@ 0x7f
   25c50:	d906      	bls.n	25c60 <_ZN20complex_full_dynamic3app17hfe402501e807ad00E+0xcc>
   25c52:	a805      	add	r0, sp, #20
   25c54:	f003 fa80 	bl	29158 <_ZN9allow_pin12full_dynamic17unshare_if_shared17hc49b4b2653f8b2c9E>
   25c58:	a812      	add	r0, sp, #72	@ 0x48
   25c5a:	f003 fa7d 	bl	29158 <_ZN9allow_pin12full_dynamic17unshare_if_shared17hc49b4b2653f8b2c9E>
   25c5e:	4626      	mov	r6, r4
   25c60:	2e00      	cmp	r6, #0
   25c62:	9c03      	ldr	r4, [sp, #12]
   25c64:	d002      	beq.n	25c6c <_ZN20complex_full_dynamic3app17hfe402501e807ad00E+0xd8>
   25c66:	6061      	str	r1, [r4, #4]
   25c68:	2001      	movs	r0, #1
   25c6a:	e008      	b.n	25c7e <_ZN20complex_full_dynamic3app17hfe402501e807ad00E+0xea>
   25c6c:	a812      	add	r0, sp, #72	@ 0x48
   25c6e:	f003 fa73 	bl	29158 <_ZN9allow_pin12full_dynamic17unshare_if_shared17hc49b4b2653f8b2c9E>
   25c72:	1c60      	adds	r0, r4, #1
   25c74:	221e      	movs	r2, #30
   25c76:	9904      	ldr	r1, [sp, #16]
   25c78:	f003 fc47 	bl	2950a <__aeabi_memcpy>
   25c7c:	2000      	movs	r0, #0
   25c7e:	7020      	strb	r0, [r4, #0]
   25c80:	a812      	add	r0, sp, #72	@ 0x48
   25c82:	f003 fa69 	bl	29158 <_ZN9allow_pin12full_dynamic17unshare_if_shared17hc49b4b2653f8b2c9E>
   25c86:	a805      	add	r0, sp, #20
   25c88:	f003 fa66 	bl	29158 <_ZN9allow_pin12full_dynamic17unshare_if_shared17hc49b4b2653f8b2c9E>
   25c8c:	b021      	add	sp, #132	@ 0x84
   25c8e:	bdf0      	pop	{r4, r5, r6, r7, pc}
   25c90:	000010e2 	.word	0x000010e2

00025c94 <_start>:
   25c94:	b5f0      	push	{r4, r5, r6, r7, lr}
   25c96:	af03      	add	r7, sp, #12
   25c98:	4ee9      	ldr	r6, [pc, #932]	@ (26040 <_start+0x3ac>)
   25c9a:	44b5      	add	sp, r6
   25c9c:	48e9      	ldr	r0, [pc, #932]	@ (26044 <_start+0x3b0>)
   25c9e:	4468      	add	r0, sp
   25ca0:	900c      	str	r0, [sp, #48]	@ 0x30
   25ca2:	ac23      	add	r4, sp, #140	@ 0x8c
   25ca4:	4625      	mov	r5, r4
   25ca6:	350c      	adds	r5, #12
   25ca8:	2128      	movs	r1, #40	@ 0x28
   25caa:	910f      	str	r1, [sp, #60]	@ 0x3c
   25cac:	4628      	mov	r0, r5
   25cae:	f003 fa7f 	bl	291b0 <__aeabi_memclr4>
   25cb2:	2602      	movs	r6, #2
   25cb4:	7226      	strb	r6, [r4, #8]
   25cb6:	4ce4      	ldr	r4, [pc, #912]	@ (26048 <_start+0x3b4>)
   25cb8:	446c      	add	r4, sp
   25cba:	4620      	mov	r0, r4
   25cbc:	300c      	adds	r0, #12
   25cbe:	2151      	movs	r1, #81	@ 0x51
   25cc0:	900a      	str	r0, [sp, #40]	@ 0x28
   25cc2:	910b      	str	r1, [sp, #44]	@ 0x2c
   25cc4:	f003 fa74 	bl	291b0 <__aeabi_memclr4>
   25cc8:	960d      	str	r6, [sp, #52]	@ 0x34
   25cca:	7226      	strb	r6, [r4, #8]
   25ccc:	2404      	movs	r4, #4
   25cce:	980f      	ldr	r0, [sp, #60]	@ 0x3c
   25cd0:	9000      	str	r0, [sp, #0]
   25cd2:	9401      	str	r4, [sp, #4]
   25cd4:	a833      	add	r0, sp, #204	@ 0xcc
   25cd6:	49dd      	ldr	r1, [pc, #884]	@ (2604c <_start+0x3b8>)
   25cd8:	2609      	movs	r6, #9
   25cda:	4632      	mov	r2, r6
   25cdc:	462b      	mov	r3, r5
   25cde:	f003 fa4f 	bl	29180 <_ZN9allow_pin13dynamic_allow17h8bfd3764c146b81aE>
   25ce2:	9833      	ldr	r0, [sp, #204]	@ 0xcc
   25ce4:	a94f      	add	r1, sp, #316	@ 0x13c
   25ce6:	9109      	str	r1, [sp, #36]	@ 0x24
   25ce8:	49d9      	ldr	r1, [pc, #868]	@ (26050 <_start+0x3bc>)
   25cea:	4469      	add	r1, sp
   25cec:	9107      	str	r1, [sp, #28]
   25cee:	49d9      	ldr	r1, [pc, #868]	@ (26054 <_start+0x3c0>)
   25cf0:	4469      	add	r1, sp
   25cf2:	9108      	str	r1, [sp, #32]
   25cf4:	2802      	cmp	r0, #2
   25cf6:	940e      	str	r4, [sp, #56]	@ 0x38
   25cf8:	d102      	bne.n	25d00 <_start+0x6c>
   25cfa:	9e34      	ldr	r6, [sp, #208]	@ 0xd0
   25cfc:	4cd3      	ldr	r4, [pc, #844]	@ (2604c <_start+0x3b8>)
   25cfe:	e004      	b.n	25d0a <_start+0x76>
   25d00:	a923      	add	r1, sp, #140	@ 0x8c
   25d02:	720c      	strb	r4, [r1, #8]
   25d04:	9624      	str	r6, [sp, #144]	@ 0x90
   25d06:	4cd1      	ldr	r4, [pc, #836]	@ (2604c <_start+0x3b8>)
   25d08:	9423      	str	r4, [sp, #140]	@ 0x8c
   25d0a:	2101      	movs	r1, #1
   25d0c:	2802      	cmp	r0, #2
   25d0e:	460d      	mov	r5, r1
   25d10:	910f      	str	r1, [sp, #60]	@ 0x3c
   25d12:	d033      	beq.n	25d7c <_start+0xe8>
   25d14:	48cc      	ldr	r0, [pc, #816]	@ (26048 <_start+0x3b4>)
   25d16:	4468      	add	r0, sp
   25d18:	7a00      	ldrb	r0, [r0, #8]
   25d1a:	2603      	movs	r6, #3
   25d1c:	2802      	cmp	r0, #2
   25d1e:	d10e      	bne.n	25d3e <_start+0xaa>
   25d20:	980b      	ldr	r0, [sp, #44]	@ 0x2c
   25d22:	9000      	str	r0, [sp, #0]
   25d24:	9601      	str	r6, [sp, #4]
   25d26:	a833      	add	r0, sp, #204	@ 0xcc
   25d28:	2509      	movs	r5, #9
   25d2a:	4621      	mov	r1, r4
   25d2c:	462a      	mov	r2, r5
   25d2e:	9b0a      	ldr	r3, [sp, #40]	@ 0x28
   25d30:	f003 fa26 	bl	29180 <_ZN9allow_pin13dynamic_allow17h8bfd3764c146b81aE>
   25d34:	9833      	ldr	r0, [sp, #204]	@ 0xcc
   25d36:	2802      	cmp	r0, #2
   25d38:	d103      	bne.n	25d42 <_start+0xae>
   25d3a:	9e34      	ldr	r6, [sp, #208]	@ 0xd0
   25d3c:	990f      	ldr	r1, [sp, #60]	@ 0x3c
   25d3e:	4608      	mov	r0, r1
   25d40:	e007      	b.n	25d52 <_start+0xbe>
   25d42:	48c1      	ldr	r0, [pc, #772]	@ (26048 <_start+0x3b4>)
   25d44:	4468      	add	r0, sp
   25d46:	7206      	strb	r6, [r0, #8]
   25d48:	980c      	ldr	r0, [sp, #48]	@ 0x30
   25d4a:	65c4      	str	r4, [r0, #92]	@ 0x5c
   25d4c:	6605      	str	r5, [r0, #96]	@ 0x60
   25d4e:	2000      	movs	r0, #0
   25d50:	990f      	ldr	r1, [sp, #60]	@ 0x3c
   25d52:	2800      	cmp	r0, #0
   25d54:	460d      	mov	r5, r1
   25d56:	d111      	bne.n	25d7c <_start+0xe8>
   25d58:	48bc      	ldr	r0, [pc, #752]	@ (2604c <_start+0x3b8>)
   25d5a:	2109      	movs	r1, #9
   25d5c:	2500      	movs	r5, #0
   25d5e:	460a      	mov	r2, r1
   25d60:	462b      	mov	r3, r5
   25d62:	df02      	svc	2
   25d64:	287f      	cmp	r0, #127	@ 0x7f
   25d66:	d802      	bhi.n	25d6e <_start+0xda>
   25d68:	460e      	mov	r6, r1
   25d6a:	9d0f      	ldr	r5, [sp, #60]	@ 0x3c
   25d6c:	e006      	b.n	25d7c <_start+0xe8>
   25d6e:	a823      	add	r0, sp, #140	@ 0x8c
   25d70:	f003 f9f2 	bl	29158 <_ZN9allow_pin12full_dynamic17unshare_if_shared17hc49b4b2653f8b2c9E>
   25d74:	48b4      	ldr	r0, [pc, #720]	@ (26048 <_start+0x3b4>)
   25d76:	4468      	add	r0, sp
   25d78:	f003 f9ee 	bl	29158 <_ZN9allow_pin12full_dynamic17unshare_if_shared17hc49b4b2653f8b2c9E>
   25d7c:	48b2      	ldr	r0, [pc, #712]	@ (26048 <_start+0x3b4>)
   25d7e:	4468      	add	r0, sp
   25d80:	f003 f9ea 	bl	29158 <_ZN9allow_pin12full_dynamic17unshare_if_shared17hc49b4b2653f8b2c9E>
   25d84:	2d00      	cmp	r5, #0
   25d86:	d123      	bne.n	25dd0 <_start+0x13c>
   25d88:	9a0a      	ldr	r2, [sp, #40]	@ 0x28
   25d8a:	7890      	ldrb	r0, [r2, #2]
   25d8c:	a938      	add	r1, sp, #224	@ 0xe0
   25d8e:	7088      	strb	r0, [r1, #2]
   25d90:	7810      	ldrb	r0, [r2, #0]
   25d92:	7852      	ldrb	r2, [r2, #1]
   25d94:	0212      	lsls	r2, r2, #8
   25d96:	1810      	adds	r0, r2, r0
   25d98:	8008      	strh	r0, [r1, #0]
   25d9a:	4cab      	ldr	r4, [pc, #684]	@ (26048 <_start+0x3b4>)
   25d9c:	446c      	add	r4, sp
   25d9e:	7ca0      	ldrb	r0, [r4, #18]
   25da0:	900a      	str	r0, [sp, #40]	@ 0x28
   25da2:	7c60      	ldrb	r0, [r4, #17]
   25da4:	9006      	str	r0, [sp, #24]
   25da6:	7be0      	ldrb	r0, [r4, #15]
   25da8:	9005      	str	r0, [sp, #20]
   25daa:	7c26      	ldrb	r6, [r4, #16]
   25dac:	4621      	mov	r1, r4
   25dae:	3113      	adds	r1, #19
   25db0:	a810      	add	r0, sp, #64	@ 0x40
   25db2:	224a      	movs	r2, #74	@ 0x4a
   25db4:	f003 fba9 	bl	2950a <__aeabi_memcpy>
   25db8:	4620      	mov	r0, r4
   25dba:	f003 f9cd 	bl	29158 <_ZN9allow_pin12full_dynamic17unshare_if_shared17hc49b4b2653f8b2c9E>
   25dbe:	0230      	lsls	r0, r6, #8
   25dc0:	9905      	ldr	r1, [sp, #20]
   25dc2:	1840      	adds	r0, r0, r1
   25dc4:	9906      	ldr	r1, [sp, #24]
   25dc6:	0409      	lsls	r1, r1, #16
   25dc8:	9a0a      	ldr	r2, [sp, #40]	@ 0x28
   25dca:	0612      	lsls	r2, r2, #24
   25dcc:	1851      	adds	r1, r2, r1
   25dce:	180e      	adds	r6, r1, r0
   25dd0:	a823      	add	r0, sp, #140	@ 0x8c
   25dd2:	f003 f9c1 	bl	29158 <_ZN9allow_pin12full_dynamic17unshare_if_shared17hc49b4b2653f8b2c9E>
   25dd6:	2d00      	cmp	r5, #0
   25dd8:	d000      	beq.n	25ddc <_start+0x148>
   25dda:	e17c      	b.n	260d6 <_start+0x442>
   25ddc:	4d9a      	ldr	r5, [pc, #616]	@ (26048 <_start+0x3b4>)
   25dde:	446d      	add	r5, sp
   25de0:	9838      	ldr	r0, [sp, #224]	@ 0xe0
   25de2:	81a8      	strh	r0, [r5, #12]
   25de4:	a838      	add	r0, sp, #224	@ 0xe0
   25de6:	7880      	ldrb	r0, [r0, #2]
   25de8:	73a8      	strb	r0, [r5, #14]
   25dea:	4896      	ldr	r0, [pc, #600]	@ (26044 <_start+0x3b0>)
   25dec:	4468      	add	r0, sp
   25dee:	900a      	str	r0, [sp, #40]	@ 0x28
   25df0:	a910      	add	r1, sp, #64	@ 0x40
   25df2:	244a      	movs	r4, #74	@ 0x4a
   25df4:	4622      	mov	r2, r4
   25df6:	f003 fa28 	bl	2924a <__aeabi_memcpy4>
   25dfa:	4628      	mov	r0, r5
   25dfc:	3013      	adds	r0, #19
   25dfe:	990a      	ldr	r1, [sp, #40]	@ 0x28
   25e00:	4622      	mov	r2, r4
   25e02:	f003 fb82 	bl	2950a <__aeabi_memcpy>
   25e06:	0e30      	lsrs	r0, r6, #24
   25e08:	74a8      	strb	r0, [r5, #18]
   25e0a:	0c30      	lsrs	r0, r6, #16
   25e0c:	7468      	strb	r0, [r5, #17]
   25e0e:	0a30      	lsrs	r0, r6, #8
   25e10:	7428      	strb	r0, [r5, #16]
   25e12:	73ee      	strb	r6, [r5, #15]
   25e14:	9c0d      	ldr	r4, [sp, #52]	@ 0x34
   25e16:	722c      	strb	r4, [r5, #8]
   25e18:	4e8a      	ldr	r6, [pc, #552]	@ (26044 <_start+0x3b0>)
   25e1a:	446e      	add	r6, sp
   25e1c:	4630      	mov	r0, r6
   25e1e:	300c      	adds	r0, #12
   25e20:	2146      	movs	r1, #70	@ 0x46
   25e22:	900a      	str	r0, [sp, #40]	@ 0x28
   25e24:	9106      	str	r1, [sp, #24]
   25e26:	f003 f9c3 	bl	291b0 <__aeabi_memclr4>
   25e2a:	7234      	strb	r4, [r6, #8]
   25e2c:	9e0e      	ldr	r6, [sp, #56]	@ 0x38
   25e2e:	980b      	ldr	r0, [sp, #44]	@ 0x2c
   25e30:	9000      	str	r0, [sp, #0]
   25e32:	9601      	str	r6, [sp, #4]
   25e34:	4c85      	ldr	r4, [pc, #532]	@ (2604c <_start+0x3b8>)
   25e36:	34be      	adds	r4, #190	@ 0xbe
   25e38:	350c      	adds	r5, #12
   25e3a:	a833      	add	r0, sp, #204	@ 0xcc
   25e3c:	2207      	movs	r2, #7
   25e3e:	4621      	mov	r1, r4
   25e40:	920b      	str	r2, [sp, #44]	@ 0x2c
   25e42:	462b      	mov	r3, r5
   25e44:	f003 f99c 	bl	29180 <_ZN9allow_pin13dynamic_allow17h8bfd3764c146b81aE>
   25e48:	9833      	ldr	r0, [sp, #204]	@ 0xcc
   25e4a:	2802      	cmp	r0, #2
   25e4c:	d101      	bne.n	25e52 <_start+0x1be>
   25e4e:	9e34      	ldr	r6, [sp, #208]	@ 0xd0
   25e50:	e006      	b.n	25e60 <_start+0x1cc>
   25e52:	497d      	ldr	r1, [pc, #500]	@ (26048 <_start+0x3b4>)
   25e54:	4469      	add	r1, sp
   25e56:	720e      	strb	r6, [r1, #8]
   25e58:	990c      	ldr	r1, [sp, #48]	@ 0x30
   25e5a:	65cc      	str	r4, [r1, #92]	@ 0x5c
   25e5c:	9a0b      	ldr	r2, [sp, #44]	@ 0x2c
   25e5e:	660a      	str	r2, [r1, #96]	@ 0x60
   25e60:	990f      	ldr	r1, [sp, #60]	@ 0x3c
   25e62:	2802      	cmp	r0, #2
   25e64:	460d      	mov	r5, r1
   25e66:	d035      	beq.n	25ed4 <_start+0x240>
   25e68:	4876      	ldr	r0, [pc, #472]	@ (26044 <_start+0x3b0>)
   25e6a:	4468      	add	r0, sp
   25e6c:	7a00      	ldrb	r0, [r0, #8]
   25e6e:	2603      	movs	r6, #3
   25e70:	2802      	cmp	r0, #2
   25e72:	d10e      	bne.n	25e92 <_start+0x1fe>
   25e74:	9806      	ldr	r0, [sp, #24]
   25e76:	9000      	str	r0, [sp, #0]
   25e78:	9601      	str	r6, [sp, #4]
   25e7a:	a833      	add	r0, sp, #204	@ 0xcc
   25e7c:	2500      	movs	r5, #0
   25e7e:	4621      	mov	r1, r4
   25e80:	462a      	mov	r2, r5
   25e82:	9b0a      	ldr	r3, [sp, #40]	@ 0x28
   25e84:	f003 f97c 	bl	29180 <_ZN9allow_pin13dynamic_allow17h8bfd3764c146b81aE>
   25e88:	9833      	ldr	r0, [sp, #204]	@ 0xcc
   25e8a:	2802      	cmp	r0, #2
   25e8c:	d103      	bne.n	25e96 <_start+0x202>
   25e8e:	9e34      	ldr	r6, [sp, #208]	@ 0xd0
   25e90:	990f      	ldr	r1, [sp, #60]	@ 0x3c
   25e92:	460d      	mov	r5, r1
   25e94:	e008      	b.n	25ea8 <_start+0x214>
   25e96:	486b      	ldr	r0, [pc, #428]	@ (26044 <_start+0x3b0>)
   25e98:	4468      	add	r0, sp
   25e9a:	7206      	strb	r6, [r0, #8]
   25e9c:	486e      	ldr	r0, [pc, #440]	@ (26058 <_start+0x3c4>)
   25e9e:	4468      	add	r0, sp
   25ea0:	6005      	str	r5, [r0, #0]
   25ea2:	980c      	ldr	r0, [sp, #48]	@ 0x30
   25ea4:	6004      	str	r4, [r0, #0]
   25ea6:	990f      	ldr	r1, [sp, #60]	@ 0x3c
   25ea8:	2d00      	cmp	r5, #0
   25eaa:	460d      	mov	r5, r1
   25eac:	d112      	bne.n	25ed4 <_start+0x240>
   25eae:	486b      	ldr	r0, [pc, #428]	@ (2605c <_start+0x3c8>)
   25eb0:	2107      	movs	r1, #7
   25eb2:	2500      	movs	r5, #0
   25eb4:	462a      	mov	r2, r5
   25eb6:	462b      	mov	r3, r5
   25eb8:	df02      	svc	2
   25eba:	287f      	cmp	r0, #127	@ 0x7f
   25ebc:	d802      	bhi.n	25ec4 <_start+0x230>
   25ebe:	460e      	mov	r6, r1
   25ec0:	9d0f      	ldr	r5, [sp, #60]	@ 0x3c
   25ec2:	e007      	b.n	25ed4 <_start+0x240>
   25ec4:	4860      	ldr	r0, [pc, #384]	@ (26048 <_start+0x3b4>)
   25ec6:	4468      	add	r0, sp
   25ec8:	f003 f946 	bl	29158 <_ZN9allow_pin12full_dynamic17unshare_if_shared17hc49b4b2653f8b2c9E>
   25ecc:	485d      	ldr	r0, [pc, #372]	@ (26044 <_start+0x3b0>)
   25ece:	4468      	add	r0, sp
   25ed0:	f003 f942 	bl	29158 <_ZN9allow_pin12full_dynamic17unshare_if_shared17hc49b4b2653f8b2c9E>
   25ed4:	485b      	ldr	r0, [pc, #364]	@ (26044 <_start+0x3b0>)
   25ed6:	4468      	add	r0, sp
   25ed8:	f003 f93e 	bl	29158 <_ZN9allow_pin12full_dynamic17unshare_if_shared17hc49b4b2653f8b2c9E>
   25edc:	2d00      	cmp	r5, #0
   25ede:	d123      	bne.n	25f28 <_start+0x294>
   25ee0:	9a0a      	ldr	r2, [sp, #40]	@ 0x28
   25ee2:	7890      	ldrb	r0, [r2, #2]
   25ee4:	a938      	add	r1, sp, #224	@ 0xe0
   25ee6:	7088      	strb	r0, [r1, #2]
   25ee8:	7810      	ldrb	r0, [r2, #0]
   25eea:	7852      	ldrb	r2, [r2, #1]
   25eec:	0212      	lsls	r2, r2, #8
   25eee:	1810      	adds	r0, r2, r0
   25ef0:	8008      	strh	r0, [r1, #0]
   25ef2:	4c54      	ldr	r4, [pc, #336]	@ (26044 <_start+0x3b0>)
   25ef4:	446c      	add	r4, sp
   25ef6:	7ca0      	ldrb	r0, [r4, #18]
   25ef8:	900b      	str	r0, [sp, #44]	@ 0x2c
   25efa:	7c60      	ldrb	r0, [r4, #17]
   25efc:	900a      	str	r0, [sp, #40]	@ 0x28
   25efe:	7be0      	ldrb	r0, [r4, #15]
   25f00:	9005      	str	r0, [sp, #20]
   25f02:	7c26      	ldrb	r6, [r4, #16]
   25f04:	4621      	mov	r1, r4
   25f06:	3113      	adds	r1, #19
   25f08:	a823      	add	r0, sp, #140	@ 0x8c
   25f0a:	223f      	movs	r2, #63	@ 0x3f
   25f0c:	f003 fafd 	bl	2950a <__aeabi_memcpy>
   25f10:	4620      	mov	r0, r4
   25f12:	f003 f921 	bl	29158 <_ZN9allow_pin12full_dynamic17unshare_if_shared17hc49b4b2653f8b2c9E>
   25f16:	0230      	lsls	r0, r6, #8
   25f18:	9905      	ldr	r1, [sp, #20]
   25f1a:	1840      	adds	r0, r0, r1
   25f1c:	990a      	ldr	r1, [sp, #40]	@ 0x28
   25f1e:	0409      	lsls	r1, r1, #16
   25f20:	9a0b      	ldr	r2, [sp, #44]	@ 0x2c
   25f22:	0612      	lsls	r2, r2, #24
   25f24:	1851      	adds	r1, r2, r1
   25f26:	180e      	adds	r6, r1, r0
   25f28:	4847      	ldr	r0, [pc, #284]	@ (26048 <_start+0x3b4>)
   25f2a:	4468      	add	r0, sp
   25f2c:	f003 f914 	bl	29158 <_ZN9allow_pin12full_dynamic17unshare_if_shared17hc49b4b2653f8b2c9E>
   25f30:	2d00      	cmp	r5, #0
   25f32:	d000      	beq.n	25f36 <_start+0x2a2>
   25f34:	e0cf      	b.n	260d6 <_start+0x442>
   25f36:	4944      	ldr	r1, [pc, #272]	@ (26048 <_start+0x3b4>)
   25f38:	4469      	add	r1, sp
   25f3a:	9105      	str	r1, [sp, #20]
   25f3c:	9838      	ldr	r0, [sp, #224]	@ 0xe0
   25f3e:	8188      	strh	r0, [r1, #12]
   25f40:	a838      	add	r0, sp, #224	@ 0xe0
   25f42:	7880      	ldrb	r0, [r0, #2]
   25f44:	7388      	strb	r0, [r1, #14]
   25f46:	a823      	add	r0, sp, #140	@ 0x8c
   25f48:	a910      	add	r1, sp, #64	@ 0x40
   25f4a:	460a      	mov	r2, r1
   25f4c:	960b      	str	r6, [sp, #44]	@ 0x2c
   25f4e:	c868      	ldmia	r0!, {r3, r5, r6}
   25f50:	c268      	stmia	r2!, {r3, r5, r6}
   25f52:	c878      	ldmia	r0!, {r3, r4, r5, r6}
   25f54:	c278      	stmia	r2!, {r3, r4, r5, r6}
   25f56:	c878      	ldmia	r0!, {r3, r4, r5, r6}
   25f58:	c278      	stmia	r2!, {r3, r4, r5, r6}
   25f5a:	c878      	ldmia	r0!, {r3, r4, r5, r6}
   25f5c:	c278      	stmia	r2!, {r3, r4, r5, r6}
   25f5e:	8803      	ldrh	r3, [r0, #0]
   25f60:	8013      	strh	r3, [r2, #0]
   25f62:	7880      	ldrb	r0, [r0, #2]
   25f64:	7090      	strb	r0, [r2, #2]
   25f66:	9c05      	ldr	r4, [sp, #20]
   25f68:	4620      	mov	r0, r4
   25f6a:	3013      	adds	r0, #19
   25f6c:	223f      	movs	r2, #63	@ 0x3f
   25f6e:	f003 facc 	bl	2950a <__aeabi_memcpy>
   25f72:	990b      	ldr	r1, [sp, #44]	@ 0x2c
   25f74:	0e08      	lsrs	r0, r1, #24
   25f76:	4623      	mov	r3, r4
   25f78:	74a0      	strb	r0, [r4, #18]
   25f7a:	0c08      	lsrs	r0, r1, #16
   25f7c:	7460      	strb	r0, [r4, #17]
   25f7e:	0a08      	lsrs	r0, r1, #8
   25f80:	7420      	strb	r0, [r4, #16]
   25f82:	73e1      	strb	r1, [r4, #15]
   25f84:	980d      	ldr	r0, [sp, #52]	@ 0x34
   25f86:	7220      	strb	r0, [r4, #8]
   25f88:	492e      	ldr	r1, [pc, #184]	@ (26044 <_start+0x3b0>)
   25f8a:	4469      	add	r1, sp
   25f8c:	910a      	str	r1, [sp, #40]	@ 0x28
   25f8e:	7208      	strb	r0, [r1, #8]
   25f90:	2500      	movs	r5, #0
   25f92:	9c0c      	ldr	r4, [sp, #48]	@ 0x30
   25f94:	60e5      	str	r5, [r4, #12]
   25f96:	6125      	str	r5, [r4, #16]
   25f98:	6165      	str	r5, [r4, #20]
   25f9a:	61a5      	str	r5, [r4, #24]
   25f9c:	61e5      	str	r5, [r4, #28]
   25f9e:	6225      	str	r5, [r4, #32]
   25fa0:	9806      	ldr	r0, [sp, #24]
   25fa2:	9000      	str	r0, [sp, #0]
   25fa4:	980e      	ldr	r0, [sp, #56]	@ 0x38
   25fa6:	9001      	str	r0, [sp, #4]
   25fa8:	330c      	adds	r3, #12
   25faa:	a823      	add	r0, sp, #140	@ 0x8c
   25fac:	492c      	ldr	r1, [pc, #176]	@ (26060 <_start+0x3cc>)
   25fae:	2603      	movs	r6, #3
   25fb0:	4632      	mov	r2, r6
   25fb2:	f003 f8e5 	bl	29180 <_ZN9allow_pin13dynamic_allow17h8bfd3764c146b81aE>
   25fb6:	9823      	ldr	r0, [sp, #140]	@ 0x8c
   25fb8:	2802      	cmp	r0, #2
   25fba:	d103      	bne.n	25fc4 <_start+0x330>
   25fbc:	9924      	ldr	r1, [sp, #144]	@ 0x90
   25fbe:	910b      	str	r1, [sp, #44]	@ 0x2c
   25fc0:	4a27      	ldr	r2, [pc, #156]	@ (26060 <_start+0x3cc>)
   25fc2:	e006      	b.n	25fd2 <_start+0x33e>
   25fc4:	4920      	ldr	r1, [pc, #128]	@ (26048 <_start+0x3b4>)
   25fc6:	4469      	add	r1, sp
   25fc8:	9a0e      	ldr	r2, [sp, #56]	@ 0x38
   25fca:	720a      	strb	r2, [r1, #8]
   25fcc:	4a24      	ldr	r2, [pc, #144]	@ (26060 <_start+0x3cc>)
   25fce:	65e2      	str	r2, [r4, #92]	@ 0x5c
   25fd0:	6626      	str	r6, [r4, #96]	@ 0x60
   25fd2:	990a      	ldr	r1, [sp, #40]	@ 0x28
   25fd4:	310c      	adds	r1, #12
   25fd6:	910a      	str	r1, [sp, #40]	@ 0x28
   25fd8:	2802      	cmp	r0, #2
   25fda:	990f      	ldr	r1, [sp, #60]	@ 0x3c
   25fdc:	460c      	mov	r4, r1
   25fde:	d049      	beq.n	26074 <_start+0x3e0>
   25fe0:	4818      	ldr	r0, [pc, #96]	@ (26044 <_start+0x3b0>)
   25fe2:	4468      	add	r0, sp
   25fe4:	7a00      	ldrb	r0, [r0, #8]
   25fe6:	2802      	cmp	r0, #2
   25fe8:	4608      	mov	r0, r1
   25fea:	d119      	bne.n	26020 <_start+0x38c>
   25fec:	2603      	movs	r6, #3
   25fee:	2018      	movs	r0, #24
   25ff0:	9000      	str	r0, [sp, #0]
   25ff2:	9601      	str	r6, [sp, #4]
   25ff4:	a823      	add	r0, sp, #140	@ 0x8c
   25ff6:	2402      	movs	r4, #2
   25ff8:	4611      	mov	r1, r2
   25ffa:	4622      	mov	r2, r4
   25ffc:	9b0a      	ldr	r3, [sp, #40]	@ 0x28
   25ffe:	f003 f8bf 	bl	29180 <_ZN9allow_pin13dynamic_allow17h8bfd3764c146b81aE>
   26002:	9823      	ldr	r0, [sp, #140]	@ 0x8c
   26004:	2802      	cmp	r0, #2
   26006:	d103      	bne.n	26010 <_start+0x37c>
   26008:	9e24      	ldr	r6, [sp, #144]	@ 0x90
   2600a:	990f      	ldr	r1, [sp, #60]	@ 0x3c
   2600c:	4608      	mov	r0, r1
   2600e:	e007      	b.n	26020 <_start+0x38c>
   26010:	480c      	ldr	r0, [pc, #48]	@ (26044 <_start+0x3b0>)
   26012:	4468      	add	r0, sp
   26014:	7206      	strb	r6, [r0, #8]
   26016:	980c      	ldr	r0, [sp, #48]	@ 0x30
   26018:	4911      	ldr	r1, [pc, #68]	@ (26060 <_start+0x3cc>)
   2601a:	c012      	stmia	r0!, {r1, r4}
   2601c:	4628      	mov	r0, r5
   2601e:	990f      	ldr	r1, [sp, #60]	@ 0x3c
   26020:	960b      	str	r6, [sp, #44]	@ 0x2c
   26022:	2800      	cmp	r0, #0
   26024:	460c      	mov	r4, r1
   26026:	d125      	bne.n	26074 <_start+0x3e0>
   26028:	480d      	ldr	r0, [pc, #52]	@ (26060 <_start+0x3cc>)
   2602a:	2103      	movs	r1, #3
   2602c:	2202      	movs	r2, #2
   2602e:	2400      	movs	r4, #0
   26030:	4623      	mov	r3, r4
   26032:	df02      	svc	2
   26034:	287f      	cmp	r0, #127	@ 0x7f
   26036:	d815      	bhi.n	26064 <_start+0x3d0>
   26038:	910b      	str	r1, [sp, #44]	@ 0x2c
   2603a:	9c0f      	ldr	r4, [sp, #60]	@ 0x3c
   2603c:	e01a      	b.n	26074 <_start+0x3e0>
   2603e:	46c0      	nop			@ (mov r8, r8)
   26040:	ffffeacc 	.word	0xffffeacc
   26044:	000013b8 	.word	0x000013b8
   26048:	00001414 	.word	0x00001414
   2604c:	00002006 	.word	0x00002006
   26050:	00000518 	.word	0x00000518
   26054:	000007ec 	.word	0x000007ec
   26058:	000013bc 	.word	0x000013bc
   2605c:	000020c4 	.word	0x000020c4
   26060:	000023cf 	.word	0x000023cf
   26064:	48f2      	ldr	r0, [pc, #968]	@ (26430 <_start+0x79c>)
   26066:	4468      	add	r0, sp
   26068:	f003 f876 	bl	29158 <_ZN9allow_pin12full_dynamic17unshare_if_shared17hc49b4b2653f8b2c9E>
   2606c:	48f1      	ldr	r0, [pc, #964]	@ (26434 <_start+0x7a0>)
   2606e:	4468      	add	r0, sp
   26070:	f003 f872 	bl	29158 <_ZN9allow_pin12full_dynamic17unshare_if_shared17hc49b4b2653f8b2c9E>
   26074:	48ef      	ldr	r0, [pc, #956]	@ (26434 <_start+0x7a0>)
   26076:	4468      	add	r0, sp
   26078:	f003 f86e 	bl	29158 <_ZN9allow_pin12full_dynamic17unshare_if_shared17hc49b4b2653f8b2c9E>
   2607c:	2c00      	cmp	r4, #0
   2607e:	9e0b      	ldr	r6, [sp, #44]	@ 0x2c
   26080:	d123      	bne.n	260ca <_start+0x436>
   26082:	9a0a      	ldr	r2, [sp, #40]	@ 0x28
   26084:	7890      	ldrb	r0, [r2, #2]
   26086:	a938      	add	r1, sp, #224	@ 0xe0
   26088:	7088      	strb	r0, [r1, #2]
   2608a:	7810      	ldrb	r0, [r2, #0]
   2608c:	7852      	ldrb	r2, [r2, #1]
   2608e:	0212      	lsls	r2, r2, #8
   26090:	1810      	adds	r0, r2, r0
   26092:	8008      	strh	r0, [r1, #0]
   26094:	4de7      	ldr	r5, [pc, #924]	@ (26434 <_start+0x7a0>)
   26096:	446d      	add	r5, sp
   26098:	7ca8      	ldrb	r0, [r5, #18]
   2609a:	900b      	str	r0, [sp, #44]	@ 0x2c
   2609c:	7c68      	ldrb	r0, [r5, #17]
   2609e:	900a      	str	r0, [sp, #40]	@ 0x28
   260a0:	7be8      	ldrb	r0, [r5, #15]
   260a2:	9006      	str	r0, [sp, #24]
   260a4:	7c2e      	ldrb	r6, [r5, #16]
   260a6:	4629      	mov	r1, r5
   260a8:	3113      	adds	r1, #19
   260aa:	a833      	add	r0, sp, #204	@ 0xcc
   260ac:	2211      	movs	r2, #17
   260ae:	f003 fa2c 	bl	2950a <__aeabi_memcpy>
   260b2:	4628      	mov	r0, r5
   260b4:	f003 f850 	bl	29158 <_ZN9allow_pin12full_dynamic17unshare_if_shared17hc49b4b2653f8b2c9E>
   260b8:	0230      	lsls	r0, r6, #8
   260ba:	9906      	ldr	r1, [sp, #24]
   260bc:	1840      	adds	r0, r0, r1
   260be:	990a      	ldr	r1, [sp, #40]	@ 0x28
   260c0:	0409      	lsls	r1, r1, #16
   260c2:	9a0b      	ldr	r2, [sp, #44]	@ 0x2c
   260c4:	0612      	lsls	r2, r2, #24
   260c6:	1851      	adds	r1, r2, r1
   260c8:	180e      	adds	r6, r1, r0
   260ca:	48d9      	ldr	r0, [pc, #868]	@ (26430 <_start+0x79c>)
   260cc:	4468      	add	r0, sp
   260ce:	f003 f843 	bl	29158 <_ZN9allow_pin12full_dynamic17unshare_if_shared17hc49b4b2653f8b2c9E>
   260d2:	2c00      	cmp	r4, #0
   260d4:	d005      	beq.n	260e2 <_start+0x44e>
   260d6:	2001      	movs	r0, #1
   260d8:	4631      	mov	r1, r6
   260da:	1ffe      	subs	r6, r7, #7
   260dc:	3e05      	subs	r6, #5
   260de:	46b5      	mov	sp, r6
   260e0:	bdf0      	pop	{r4, r5, r6, r7, pc}
   260e2:	960b      	str	r6, [sp, #44]	@ 0x2c
   260e4:	ae23      	add	r6, sp, #140	@ 0x8c
   260e6:	9838      	ldr	r0, [sp, #224]	@ 0xe0
   260e8:	81b0      	strh	r0, [r6, #12]
   260ea:	a838      	add	r0, sp, #224	@ 0xe0
   260ec:	7880      	ldrb	r0, [r0, #2]
   260ee:	73b0      	strb	r0, [r6, #14]
   260f0:	a933      	add	r1, sp, #204	@ 0xcc
   260f2:	aa10      	add	r2, sp, #64	@ 0x40
   260f4:	920a      	str	r2, [sp, #40]	@ 0x28
   260f6:	c939      	ldmia	r1!, {r0, r3, r4, r5}
   260f8:	c239      	stmia	r2!, {r0, r3, r4, r5}
   260fa:	7808      	ldrb	r0, [r1, #0]
   260fc:	7010      	strb	r0, [r2, #0]
   260fe:	4630      	mov	r0, r6
   26100:	3013      	adds	r0, #19
   26102:	2211      	movs	r2, #17
   26104:	990a      	ldr	r1, [sp, #40]	@ 0x28
   26106:	f003 fa00 	bl	2950a <__aeabi_memcpy>
   2610a:	990b      	ldr	r1, [sp, #44]	@ 0x2c
   2610c:	0e08      	lsrs	r0, r1, #24
   2610e:	74b0      	strb	r0, [r6, #18]
   26110:	0c08      	lsrs	r0, r1, #16
   26112:	7470      	strb	r0, [r6, #17]
   26114:	0a08      	lsrs	r0, r1, #8
   26116:	7430      	strb	r0, [r6, #16]
   26118:	73f1      	strb	r1, [r6, #15]
   2611a:	9d0d      	ldr	r5, [sp, #52]	@ 0x34
   2611c:	7235      	strb	r5, [r6, #8]
   2611e:	4cc4      	ldr	r4, [pc, #784]	@ (26430 <_start+0x79c>)
   26120:	446c      	add	r4, sp
   26122:	4620      	mov	r0, r4
   26124:	300c      	adds	r0, #12
   26126:	2136      	movs	r1, #54	@ 0x36
   26128:	9006      	str	r0, [sp, #24]
   2612a:	910a      	str	r1, [sp, #40]	@ 0x28
   2612c:	f003 f840 	bl	291b0 <__aeabi_memclr4>
   26130:	7225      	strb	r5, [r4, #8]
   26132:	2018      	movs	r0, #24
   26134:	9000      	str	r0, [sp, #0]
   26136:	9d0e      	ldr	r5, [sp, #56]	@ 0x38
   26138:	9501      	str	r5, [sp, #4]
   2613a:	360c      	adds	r6, #12
   2613c:	a833      	add	r0, sp, #204	@ 0xcc
   2613e:	49be      	ldr	r1, [pc, #760]	@ (26438 <_start+0x7a4>)
   26140:	2400      	movs	r4, #0
   26142:	4622      	mov	r2, r4
   26144:	4633      	mov	r3, r6
   26146:	f003 f81b 	bl	29180 <_ZN9allow_pin13dynamic_allow17h8bfd3764c146b81aE>
   2614a:	9833      	ldr	r0, [sp, #204]	@ 0xcc
   2614c:	2802      	cmp	r0, #2
   2614e:	9405      	str	r4, [sp, #20]
   26150:	d103      	bne.n	2615a <_start+0x4c6>
   26152:	9934      	ldr	r1, [sp, #208]	@ 0xd0
   26154:	910b      	str	r1, [sp, #44]	@ 0x2c
   26156:	4db8      	ldr	r5, [pc, #736]	@ (26438 <_start+0x7a4>)
   26158:	e004      	b.n	26164 <_start+0x4d0>
   2615a:	a923      	add	r1, sp, #140	@ 0x8c
   2615c:	720d      	strb	r5, [r1, #8]
   2615e:	9424      	str	r4, [sp, #144]	@ 0x90
   26160:	4db5      	ldr	r5, [pc, #724]	@ (26438 <_start+0x7a4>)
   26162:	9523      	str	r5, [sp, #140]	@ 0x8c
   26164:	2802      	cmp	r0, #2
   26166:	990f      	ldr	r1, [sp, #60]	@ 0x3c
   26168:	460e      	mov	r6, r1
   2616a:	d038      	beq.n	261de <_start+0x54a>
   2616c:	48b0      	ldr	r0, [pc, #704]	@ (26430 <_start+0x79c>)
   2616e:	4468      	add	r0, sp
   26170:	7a00      	ldrb	r0, [r0, #8]
   26172:	2802      	cmp	r0, #2
   26174:	d112      	bne.n	2619c <_start+0x508>
   26176:	2403      	movs	r4, #3
   26178:	980a      	ldr	r0, [sp, #40]	@ 0x28
   2617a:	9000      	str	r0, [sp, #0]
   2617c:	9401      	str	r4, [sp, #4]
   2617e:	a833      	add	r0, sp, #204	@ 0xcc
   26180:	2607      	movs	r6, #7
   26182:	4629      	mov	r1, r5
   26184:	4632      	mov	r2, r6
   26186:	9b06      	ldr	r3, [sp, #24]
   26188:	f002 fffa 	bl	29180 <_ZN9allow_pin13dynamic_allow17h8bfd3764c146b81aE>
   2618c:	9833      	ldr	r0, [sp, #204]	@ 0xcc
   2618e:	2802      	cmp	r0, #2
   26190:	d108      	bne.n	261a4 <_start+0x510>
   26192:	9834      	ldr	r0, [sp, #208]	@ 0xd0
   26194:	900b      	str	r0, [sp, #44]	@ 0x2c
   26196:	990f      	ldr	r1, [sp, #60]	@ 0x3c
   26198:	4608      	mov	r0, r1
   2619a:	e00b      	b.n	261b4 <_start+0x520>
   2619c:	2003      	movs	r0, #3
   2619e:	900b      	str	r0, [sp, #44]	@ 0x2c
   261a0:	4608      	mov	r0, r1
   261a2:	e007      	b.n	261b4 <_start+0x520>
   261a4:	48a2      	ldr	r0, [pc, #648]	@ (26430 <_start+0x79c>)
   261a6:	4468      	add	r0, sp
   261a8:	7204      	strb	r4, [r0, #8]
   261aa:	980c      	ldr	r0, [sp, #48]	@ 0x30
   261ac:	65c5      	str	r5, [r0, #92]	@ 0x5c
   261ae:	6606      	str	r6, [r0, #96]	@ 0x60
   261b0:	990f      	ldr	r1, [sp, #60]	@ 0x3c
   261b2:	9805      	ldr	r0, [sp, #20]
   261b4:	2800      	cmp	r0, #0
   261b6:	460e      	mov	r6, r1
   261b8:	d111      	bne.n	261de <_start+0x54a>
   261ba:	489f      	ldr	r0, [pc, #636]	@ (26438 <_start+0x7a4>)
   261bc:	2207      	movs	r2, #7
   261be:	2600      	movs	r6, #0
   261c0:	4631      	mov	r1, r6
   261c2:	4633      	mov	r3, r6
   261c4:	df02      	svc	2
   261c6:	910b      	str	r1, [sp, #44]	@ 0x2c
   261c8:	287f      	cmp	r0, #127	@ 0x7f
   261ca:	d801      	bhi.n	261d0 <_start+0x53c>
   261cc:	9e0f      	ldr	r6, [sp, #60]	@ 0x3c
   261ce:	e006      	b.n	261de <_start+0x54a>
   261d0:	a823      	add	r0, sp, #140	@ 0x8c
   261d2:	f002 ffc1 	bl	29158 <_ZN9allow_pin12full_dynamic17unshare_if_shared17hc49b4b2653f8b2c9E>
   261d6:	4896      	ldr	r0, [pc, #600]	@ (26430 <_start+0x79c>)
   261d8:	4468      	add	r0, sp
   261da:	f002 ffbd 	bl	29158 <_ZN9allow_pin12full_dynamic17unshare_if_shared17hc49b4b2653f8b2c9E>
   261de:	4894      	ldr	r0, [pc, #592]	@ (26430 <_start+0x79c>)
   261e0:	4468      	add	r0, sp
   261e2:	f002 ffb9 	bl	29158 <_ZN9allow_pin12full_dynamic17unshare_if_shared17hc49b4b2653f8b2c9E>
   261e6:	2e00      	cmp	r6, #0
   261e8:	d124      	bne.n	26234 <_start+0x5a0>
   261ea:	9a06      	ldr	r2, [sp, #24]
   261ec:	7890      	ldrb	r0, [r2, #2]
   261ee:	a938      	add	r1, sp, #224	@ 0xe0
   261f0:	7088      	strb	r0, [r1, #2]
   261f2:	7810      	ldrb	r0, [r2, #0]
   261f4:	7852      	ldrb	r2, [r2, #1]
   261f6:	0212      	lsls	r2, r2, #8
   261f8:	1810      	adds	r0, r2, r0
   261fa:	8008      	strh	r0, [r1, #0]
   261fc:	4c8c      	ldr	r4, [pc, #560]	@ (26430 <_start+0x79c>)
   261fe:	446c      	add	r4, sp
   26200:	7ca0      	ldrb	r0, [r4, #18]
   26202:	900b      	str	r0, [sp, #44]	@ 0x2c
   26204:	7c60      	ldrb	r0, [r4, #17]
   26206:	9006      	str	r0, [sp, #24]
   26208:	7be0      	ldrb	r0, [r4, #15]
   2620a:	9005      	str	r0, [sp, #20]
   2620c:	7c25      	ldrb	r5, [r4, #16]
   2620e:	4621      	mov	r1, r4
   26210:	3113      	adds	r1, #19
   26212:	a810      	add	r0, sp, #64	@ 0x40
   26214:	222f      	movs	r2, #47	@ 0x2f
   26216:	f003 f978 	bl	2950a <__aeabi_memcpy>
   2621a:	4620      	mov	r0, r4
   2621c:	f002 ff9c 	bl	29158 <_ZN9allow_pin12full_dynamic17unshare_if_shared17hc49b4b2653f8b2c9E>
   26220:	0228      	lsls	r0, r5, #8
   26222:	9905      	ldr	r1, [sp, #20]
   26224:	1840      	adds	r0, r0, r1
   26226:	9906      	ldr	r1, [sp, #24]
   26228:	0409      	lsls	r1, r1, #16
   2622a:	9a0b      	ldr	r2, [sp, #44]	@ 0x2c
   2622c:	0612      	lsls	r2, r2, #24
   2622e:	1851      	adds	r1, r2, r1
   26230:	1808      	adds	r0, r1, r0
   26232:	900b      	str	r0, [sp, #44]	@ 0x2c
   26234:	a823      	add	r0, sp, #140	@ 0x8c
   26236:	f002 ff8f 	bl	29158 <_ZN9allow_pin12full_dynamic17unshare_if_shared17hc49b4b2653f8b2c9E>
   2623a:	2e00      	cmp	r6, #0
   2623c:	d000      	beq.n	26240 <_start+0x5ac>
   2623e:	e0b7      	b.n	263b0 <_start+0x71c>
   26240:	497b      	ldr	r1, [pc, #492]	@ (26430 <_start+0x79c>)
   26242:	4469      	add	r1, sp
   26244:	9106      	str	r1, [sp, #24]
   26246:	9838      	ldr	r0, [sp, #224]	@ 0xe0
   26248:	8188      	strh	r0, [r1, #12]
   2624a:	a838      	add	r0, sp, #224	@ 0xe0
   2624c:	7880      	ldrb	r0, [r0, #2]
   2624e:	7388      	strb	r0, [r1, #14]
   26250:	a810      	add	r0, sp, #64	@ 0x40
   26252:	4978      	ldr	r1, [pc, #480]	@ (26434 <_start+0x7a0>)
   26254:	4469      	add	r1, sp
   26256:	460a      	mov	r2, r1
   26258:	c868      	ldmia	r0!, {r3, r5, r6}
   2625a:	c268      	stmia	r2!, {r3, r5, r6}
   2625c:	c878      	ldmia	r0!, {r3, r4, r5, r6}
   2625e:	c278      	stmia	r2!, {r3, r4, r5, r6}
   26260:	c878      	ldmia	r0!, {r3, r4, r5, r6}
   26262:	c278      	stmia	r2!, {r3, r4, r5, r6}
   26264:	8803      	ldrh	r3, [r0, #0]
   26266:	8013      	strh	r3, [r2, #0]
   26268:	7880      	ldrb	r0, [r0, #2]
   2626a:	7090      	strb	r0, [r2, #2]
   2626c:	9e06      	ldr	r6, [sp, #24]
   2626e:	4630      	mov	r0, r6
   26270:	3013      	adds	r0, #19
   26272:	222f      	movs	r2, #47	@ 0x2f
   26274:	f003 f949 	bl	2950a <__aeabi_memcpy>
   26278:	990b      	ldr	r1, [sp, #44]	@ 0x2c
   2627a:	0e08      	lsrs	r0, r1, #24
   2627c:	74b0      	strb	r0, [r6, #18]
   2627e:	0c08      	lsrs	r0, r1, #16
   26280:	7470      	strb	r0, [r6, #17]
   26282:	0a08      	lsrs	r0, r1, #8
   26284:	7430      	strb	r0, [r6, #16]
   26286:	73f1      	strb	r1, [r6, #15]
   26288:	9d0d      	ldr	r5, [sp, #52]	@ 0x34
   2628a:	7235      	strb	r5, [r6, #8]
   2628c:	4c69      	ldr	r4, [pc, #420]	@ (26434 <_start+0x7a0>)
   2628e:	446c      	add	r4, sp
   26290:	4620      	mov	r0, r4
   26292:	300c      	adds	r0, #12
   26294:	2125      	movs	r1, #37	@ 0x25
   26296:	9004      	str	r0, [sp, #16]
   26298:	9105      	str	r1, [sp, #20]
   2629a:	f002 ff89 	bl	291b0 <__aeabi_memclr4>
   2629e:	7225      	strb	r5, [r4, #8]
   262a0:	980a      	ldr	r0, [sp, #40]	@ 0x28
   262a2:	9000      	str	r0, [sp, #0]
   262a4:	9c0e      	ldr	r4, [sp, #56]	@ 0x38
   262a6:	9401      	str	r4, [sp, #4]
   262a8:	360c      	adds	r6, #12
   262aa:	a833      	add	r0, sp, #204	@ 0xcc
   262ac:	4963      	ldr	r1, [pc, #396]	@ (2643c <_start+0x7a8>)
   262ae:	2507      	movs	r5, #7
   262b0:	462a      	mov	r2, r5
   262b2:	4633      	mov	r3, r6
   262b4:	f002 ff64 	bl	29180 <_ZN9allow_pin13dynamic_allow17h8bfd3764c146b81aE>
   262b8:	9833      	ldr	r0, [sp, #204]	@ 0xcc
   262ba:	2802      	cmp	r0, #2
   262bc:	d103      	bne.n	262c6 <_start+0x632>
   262be:	9934      	ldr	r1, [sp, #208]	@ 0xd0
   262c0:	910b      	str	r1, [sp, #44]	@ 0x2c
   262c2:	4e5e      	ldr	r6, [pc, #376]	@ (2643c <_start+0x7a8>)
   262c4:	e006      	b.n	262d4 <_start+0x640>
   262c6:	495a      	ldr	r1, [pc, #360]	@ (26430 <_start+0x79c>)
   262c8:	4469      	add	r1, sp
   262ca:	720c      	strb	r4, [r1, #8]
   262cc:	990c      	ldr	r1, [sp, #48]	@ 0x30
   262ce:	4e5b      	ldr	r6, [pc, #364]	@ (2643c <_start+0x7a8>)
   262d0:	65ce      	str	r6, [r1, #92]	@ 0x5c
   262d2:	660d      	str	r5, [r1, #96]	@ 0x60
   262d4:	2802      	cmp	r0, #2
   262d6:	990f      	ldr	r1, [sp, #60]	@ 0x3c
   262d8:	460c      	mov	r4, r1
   262da:	d038      	beq.n	2634e <_start+0x6ba>
   262dc:	4855      	ldr	r0, [pc, #340]	@ (26434 <_start+0x7a0>)
   262de:	4468      	add	r0, sp
   262e0:	7a00      	ldrb	r0, [r0, #8]
   262e2:	2802      	cmp	r0, #2
   262e4:	d112      	bne.n	2630c <_start+0x678>
   262e6:	2503      	movs	r5, #3
   262e8:	9805      	ldr	r0, [sp, #20]
   262ea:	9000      	str	r0, [sp, #0]
   262ec:	9501      	str	r5, [sp, #4]
   262ee:	a833      	add	r0, sp, #204	@ 0xcc
   262f0:	2400      	movs	r4, #0
   262f2:	4631      	mov	r1, r6
   262f4:	4622      	mov	r2, r4
   262f6:	9b04      	ldr	r3, [sp, #16]
   262f8:	f002 ff42 	bl	29180 <_ZN9allow_pin13dynamic_allow17h8bfd3764c146b81aE>
   262fc:	9833      	ldr	r0, [sp, #204]	@ 0xcc
   262fe:	2802      	cmp	r0, #2
   26300:	d108      	bne.n	26314 <_start+0x680>
   26302:	9834      	ldr	r0, [sp, #208]	@ 0xd0
   26304:	900b      	str	r0, [sp, #44]	@ 0x2c
   26306:	990f      	ldr	r1, [sp, #60]	@ 0x3c
   26308:	460c      	mov	r4, r1
   2630a:	e00a      	b.n	26322 <_start+0x68e>
   2630c:	2003      	movs	r0, #3
   2630e:	900b      	str	r0, [sp, #44]	@ 0x2c
   26310:	460c      	mov	r4, r1
   26312:	e006      	b.n	26322 <_start+0x68e>
   26314:	4847      	ldr	r0, [pc, #284]	@ (26434 <_start+0x7a0>)
   26316:	4468      	add	r0, sp
   26318:	7205      	strb	r5, [r0, #8]
   2631a:	9d0c      	ldr	r5, [sp, #48]	@ 0x30
   2631c:	602e      	str	r6, [r5, #0]
   2631e:	606c      	str	r4, [r5, #4]
   26320:	990f      	ldr	r1, [sp, #60]	@ 0x3c
   26322:	2c00      	cmp	r4, #0
   26324:	460c      	mov	r4, r1
   26326:	d112      	bne.n	2634e <_start+0x6ba>
   26328:	4844      	ldr	r0, [pc, #272]	@ (2643c <_start+0x7a8>)
   2632a:	2107      	movs	r1, #7
   2632c:	2400      	movs	r4, #0
   2632e:	4622      	mov	r2, r4
   26330:	4623      	mov	r3, r4
   26332:	df02      	svc	2
   26334:	910b      	str	r1, [sp, #44]	@ 0x2c
   26336:	287f      	cmp	r0, #127	@ 0x7f
   26338:	d801      	bhi.n	2633e <_start+0x6aa>
   2633a:	9c0f      	ldr	r4, [sp, #60]	@ 0x3c
   2633c:	e007      	b.n	2634e <_start+0x6ba>
   2633e:	483c      	ldr	r0, [pc, #240]	@ (26430 <_start+0x79c>)
   26340:	4468      	add	r0, sp
   26342:	f002 ff09 	bl	29158 <_ZN9allow_pin12full_dynamic17unshare_if_shared17hc49b4b2653f8b2c9E>
   26346:	483b      	ldr	r0, [pc, #236]	@ (26434 <_start+0x7a0>)
   26348:	4468      	add	r0, sp
   2634a:	f002 ff05 	bl	29158 <_ZN9allow_pin12full_dynamic17unshare_if_shared17hc49b4b2653f8b2c9E>
   2634e:	4839      	ldr	r0, [pc, #228]	@ (26434 <_start+0x7a0>)
   26350:	4468      	add	r0, sp
   26352:	f002 ff01 	bl	29158 <_ZN9allow_pin12full_dynamic17unshare_if_shared17hc49b4b2653f8b2c9E>
   26356:	2c00      	cmp	r4, #0
   26358:	d124      	bne.n	263a4 <_start+0x710>
   2635a:	9a04      	ldr	r2, [sp, #16]
   2635c:	7890      	ldrb	r0, [r2, #2]
   2635e:	a938      	add	r1, sp, #224	@ 0xe0
   26360:	7088      	strb	r0, [r1, #2]
   26362:	7810      	ldrb	r0, [r2, #0]
   26364:	7852      	ldrb	r2, [r2, #1]
   26366:	0212      	lsls	r2, r2, #8
   26368:	1810      	adds	r0, r2, r0
   2636a:	8008      	strh	r0, [r1, #0]
   2636c:	4d31      	ldr	r5, [pc, #196]	@ (26434 <_start+0x7a0>)
   2636e:	446d      	add	r5, sp
   26370:	7ca8      	ldrb	r0, [r5, #18]
   26372:	900b      	str	r0, [sp, #44]	@ 0x2c
   26374:	7c68      	ldrb	r0, [r5, #17]
   26376:	900a      	str	r0, [sp, #40]	@ 0x28
   26378:	7be8      	ldrb	r0, [r5, #15]
   2637a:	9006      	str	r0, [sp, #24]
   2637c:	7c2e      	ldrb	r6, [r5, #16]
   2637e:	4629      	mov	r1, r5
   26380:	3113      	adds	r1, #19
   26382:	a823      	add	r0, sp, #140	@ 0x8c
   26384:	221e      	movs	r2, #30
   26386:	f003 f8c0 	bl	2950a <__aeabi_memcpy>
   2638a:	4628      	mov	r0, r5
   2638c:	f002 fee4 	bl	29158 <_ZN9allow_pin12full_dynamic17unshare_if_shared17hc49b4b2653f8b2c9E>
   26390:	0230      	lsls	r0, r6, #8
   26392:	9906      	ldr	r1, [sp, #24]
   26394:	1840      	adds	r0, r0, r1
   26396:	990a      	ldr	r1, [sp, #40]	@ 0x28
   26398:	0409      	lsls	r1, r1, #16
   2639a:	9a0b      	ldr	r2, [sp, #44]	@ 0x2c
   2639c:	0612      	lsls	r2, r2, #24
   2639e:	1851      	adds	r1, r2, r1
   263a0:	1808      	adds	r0, r1, r0
   263a2:	900b      	str	r0, [sp, #44]	@ 0x2c
   263a4:	4822      	ldr	r0, [pc, #136]	@ (26430 <_start+0x79c>)
   263a6:	4468      	add	r0, sp
   263a8:	f002 fed6 	bl	29158 <_ZN9allow_pin12full_dynamic17unshare_if_shared17hc49b4b2653f8b2c9E>
   263ac:	2c00      	cmp	r4, #0
   263ae:	d002      	beq.n	263b6 <_start+0x722>
   263b0:	2001      	movs	r0, #1
   263b2:	9e0b      	ldr	r6, [sp, #44]	@ 0x2c
   263b4:	e690      	b.n	260d8 <_start+0x444>
   263b6:	491e      	ldr	r1, [pc, #120]	@ (26430 <_start+0x79c>)
   263b8:	4469      	add	r1, sp
   263ba:	910a      	str	r1, [sp, #40]	@ 0x28
   263bc:	9838      	ldr	r0, [sp, #224]	@ 0xe0
   263be:	8188      	strh	r0, [r1, #12]
   263c0:	a838      	add	r0, sp, #224	@ 0xe0
   263c2:	7880      	ldrb	r0, [r0, #2]
   263c4:	7388      	strb	r0, [r1, #14]
   263c6:	a823      	add	r0, sp, #140	@ 0x8c
   263c8:	a910      	add	r1, sp, #64	@ 0x40
   263ca:	460a      	mov	r2, r1
   263cc:	c838      	ldmia	r0!, {r3, r4, r5}
   263ce:	c238      	stmia	r2!, {r3, r4, r5}
   263d0:	c878      	ldmia	r0!, {r3, r4, r5, r6}
   263d2:	c278      	stmia	r2!, {r3, r4, r5, r6}
   263d4:	8800      	ldrh	r0, [r0, #0]
   263d6:	8010      	strh	r0, [r2, #0]
   263d8:	9c0a      	ldr	r4, [sp, #40]	@ 0x28
   263da:	4620      	mov	r0, r4
   263dc:	3013      	adds	r0, #19
   263de:	221e      	movs	r2, #30
   263e0:	f003 f893 	bl	2950a <__aeabi_memcpy>
   263e4:	990b      	ldr	r1, [sp, #44]	@ 0x2c
   263e6:	0e08      	lsrs	r0, r1, #24
   263e8:	4623      	mov	r3, r4
   263ea:	74a0      	strb	r0, [r4, #18]
   263ec:	0c08      	lsrs	r0, r1, #16
   263ee:	7460      	strb	r0, [r4, #17]
   263f0:	0a08      	lsrs	r0, r1, #8
   263f2:	7420      	strb	r0, [r4, #16]
   263f4:	73e1      	strb	r1, [r4, #15]
   263f6:	9e0d      	ldr	r6, [sp, #52]	@ 0x34
   263f8:	7226      	strb	r6, [r4, #8]
   263fa:	480e      	ldr	r0, [pc, #56]	@ (26434 <_start+0x7a0>)
   263fc:	4468      	add	r0, sp
   263fe:	2500      	movs	r5, #0
   26400:	8305      	strh	r5, [r0, #24]
   26402:	900b      	str	r0, [sp, #44]	@ 0x2c
   26404:	7206      	strb	r6, [r0, #8]
   26406:	980c      	ldr	r0, [sp, #48]	@ 0x30
   26408:	60c5      	str	r5, [r0, #12]
   2640a:	6105      	str	r5, [r0, #16]
   2640c:	6145      	str	r5, [r0, #20]
   2640e:	9805      	ldr	r0, [sp, #20]
   26410:	9000      	str	r0, [sp, #0]
   26412:	9c0e      	ldr	r4, [sp, #56]	@ 0x38
   26414:	9401      	str	r4, [sp, #4]
   26416:	330c      	adds	r3, #12
   26418:	a810      	add	r0, sp, #64	@ 0x40
   2641a:	4909      	ldr	r1, [pc, #36]	@ (26440 <_start+0x7ac>)
   2641c:	4632      	mov	r2, r6
   2641e:	f002 feaf 	bl	29180 <_ZN9allow_pin13dynamic_allow17h8bfd3764c146b81aE>
   26422:	9810      	ldr	r0, [sp, #64]	@ 0x40
   26424:	2802      	cmp	r0, #2
   26426:	d10d      	bne.n	26444 <_start+0x7b0>
   26428:	9e11      	ldr	r6, [sp, #68]	@ 0x44
   2642a:	4905      	ldr	r1, [pc, #20]	@ (26440 <_start+0x7ac>)
   2642c:	e012      	b.n	26454 <_start+0x7c0>
   2642e:	46c0      	nop			@ (mov r8, r8)
   26430:	00001414 	.word	0x00001414
   26434:	000013b8 	.word	0x000013b8
   26438:	0000021f 	.word	0x0000021f
   2643c:	00001597 	.word	0x00001597
   26440:	00000667 	.word	0x00000667
   26444:	49f7      	ldr	r1, [pc, #988]	@ (26824 <_start+0xb90>)
   26446:	4469      	add	r1, sp
   26448:	720c      	strb	r4, [r1, #8]
   2644a:	990c      	ldr	r1, [sp, #48]	@ 0x30
   2644c:	4af6      	ldr	r2, [pc, #984]	@ (26828 <_start+0xb94>)
   2644e:	65ca      	str	r2, [r1, #92]	@ 0x5c
   26450:	660e      	str	r6, [r1, #96]	@ 0x60
   26452:	4611      	mov	r1, r2
   26454:	9c0b      	ldr	r4, [sp, #44]	@ 0x2c
   26456:	340c      	adds	r4, #12
   26458:	2802      	cmp	r0, #2
   2645a:	d036      	beq.n	264ca <_start+0x836>
   2645c:	48f3      	ldr	r0, [pc, #972]	@ (2682c <_start+0xb98>)
   2645e:	4468      	add	r0, sp
   26460:	7a00      	ldrb	r0, [r0, #8]
   26462:	2802      	cmp	r0, #2
   26464:	d111      	bne.n	2648a <_start+0x7f6>
   26466:	2203      	movs	r2, #3
   26468:	200e      	movs	r0, #14
   2646a:	9000      	str	r0, [sp, #0]
   2646c:	920e      	str	r2, [sp, #56]	@ 0x38
   2646e:	9201      	str	r2, [sp, #4]
   26470:	a810      	add	r0, sp, #64	@ 0x40
   26472:	2208      	movs	r2, #8
   26474:	460e      	mov	r6, r1
   26476:	920d      	str	r2, [sp, #52]	@ 0x34
   26478:	4623      	mov	r3, r4
   2647a:	f002 fe81 	bl	29180 <_ZN9allow_pin13dynamic_allow17h8bfd3764c146b81aE>
   2647e:	9810      	ldr	r0, [sp, #64]	@ 0x40
   26480:	2802      	cmp	r0, #2
   26482:	d105      	bne.n	26490 <_start+0x7fc>
   26484:	9e11      	ldr	r6, [sp, #68]	@ 0x44
   26486:	9d0f      	ldr	r5, [sp, #60]	@ 0x3c
   26488:	e00a      	b.n	264a0 <_start+0x80c>
   2648a:	2603      	movs	r6, #3
   2648c:	9d0f      	ldr	r5, [sp, #60]	@ 0x3c
   2648e:	e007      	b.n	264a0 <_start+0x80c>
   26490:	48e6      	ldr	r0, [pc, #920]	@ (2682c <_start+0xb98>)
   26492:	4468      	add	r0, sp
   26494:	990e      	ldr	r1, [sp, #56]	@ 0x38
   26496:	7201      	strb	r1, [r0, #8]
   26498:	980c      	ldr	r0, [sp, #48]	@ 0x30
   2649a:	6006      	str	r6, [r0, #0]
   2649c:	990d      	ldr	r1, [sp, #52]	@ 0x34
   2649e:	6041      	str	r1, [r0, #4]
   264a0:	2d00      	cmp	r5, #0
   264a2:	d112      	bne.n	264ca <_start+0x836>
   264a4:	48e0      	ldr	r0, [pc, #896]	@ (26828 <_start+0xb94>)
   264a6:	2102      	movs	r1, #2
   264a8:	2208      	movs	r2, #8
   264aa:	2500      	movs	r5, #0
   264ac:	462b      	mov	r3, r5
   264ae:	df02      	svc	2
   264b0:	287f      	cmp	r0, #127	@ 0x7f
   264b2:	d801      	bhi.n	264b8 <_start+0x824>
   264b4:	460e      	mov	r6, r1
   264b6:	e008      	b.n	264ca <_start+0x836>
   264b8:	48da      	ldr	r0, [pc, #872]	@ (26824 <_start+0xb90>)
   264ba:	4468      	add	r0, sp
   264bc:	f002 fe4c 	bl	29158 <_ZN9allow_pin12full_dynamic17unshare_if_shared17hc49b4b2653f8b2c9E>
   264c0:	48da      	ldr	r0, [pc, #872]	@ (2682c <_start+0xb98>)
   264c2:	4468      	add	r0, sp
   264c4:	f002 fe48 	bl	29158 <_ZN9allow_pin12full_dynamic17unshare_if_shared17hc49b4b2653f8b2c9E>
   264c8:	950f      	str	r5, [sp, #60]	@ 0x3c
   264ca:	48d8      	ldr	r0, [pc, #864]	@ (2682c <_start+0xb98>)
   264cc:	4468      	add	r0, sp
   264ce:	f002 fe43 	bl	29158 <_ZN9allow_pin12full_dynamic17unshare_if_shared17hc49b4b2653f8b2c9E>
   264d2:	980f      	ldr	r0, [sp, #60]	@ 0x3c
   264d4:	2800      	cmp	r0, #0
   264d6:	d12b      	bne.n	26530 <_start+0x89c>
   264d8:	78a0      	ldrb	r0, [r4, #2]
   264da:	a938      	add	r1, sp, #224	@ 0xe0
   264dc:	7088      	strb	r0, [r1, #2]
   264de:	48d3      	ldr	r0, [pc, #844]	@ (2682c <_start+0xb98>)
   264e0:	4468      	add	r0, sp
   264e2:	7e42      	ldrb	r2, [r0, #25]
   264e4:	ab33      	add	r3, sp, #204	@ 0xcc
   264e6:	719a      	strb	r2, [r3, #6]
   264e8:	7dc2      	ldrb	r2, [r0, #23]
   264ea:	9d0c      	ldr	r5, [sp, #48]	@ 0x30
   264ec:	69ad      	ldr	r5, [r5, #24]
   264ee:	022d      	lsls	r5, r5, #8
   264f0:	18aa      	adds	r2, r5, r2
   264f2:	809a      	strh	r2, [r3, #4]
   264f4:	7822      	ldrb	r2, [r4, #0]
   264f6:	7863      	ldrb	r3, [r4, #1]
   264f8:	021b      	lsls	r3, r3, #8
   264fa:	189a      	adds	r2, r3, r2
   264fc:	800a      	strh	r2, [r1, #0]
   264fe:	7cc1      	ldrb	r1, [r0, #19]
   26500:	7d02      	ldrb	r2, [r0, #20]
   26502:	0212      	lsls	r2, r2, #8
   26504:	1851      	adds	r1, r2, r1
   26506:	7d42      	ldrb	r2, [r0, #21]
   26508:	0412      	lsls	r2, r2, #16
   2650a:	7d83      	ldrb	r3, [r0, #22]
   2650c:	061b      	lsls	r3, r3, #24
   2650e:	189a      	adds	r2, r3, r2
   26510:	1851      	adds	r1, r2, r1
   26512:	9133      	str	r1, [sp, #204]	@ 0xcc
   26514:	7c81      	ldrb	r1, [r0, #18]
   26516:	910e      	str	r1, [sp, #56]	@ 0x38
   26518:	7c45      	ldrb	r5, [r0, #17]
   2651a:	7bc6      	ldrb	r6, [r0, #15]
   2651c:	7c04      	ldrb	r4, [r0, #16]
   2651e:	f002 fe1b 	bl	29158 <_ZN9allow_pin12full_dynamic17unshare_if_shared17hc49b4b2653f8b2c9E>
   26522:	0220      	lsls	r0, r4, #8
   26524:	1980      	adds	r0, r0, r6
   26526:	0429      	lsls	r1, r5, #16
   26528:	9a0e      	ldr	r2, [sp, #56]	@ 0x38
   2652a:	0612      	lsls	r2, r2, #24
   2652c:	1851      	adds	r1, r2, r1
   2652e:	180e      	adds	r6, r1, r0
   26530:	48bc      	ldr	r0, [pc, #752]	@ (26824 <_start+0xb90>)
   26532:	4468      	add	r0, sp
   26534:	f002 fe10 	bl	29158 <_ZN9allow_pin12full_dynamic17unshare_if_shared17hc49b4b2653f8b2c9E>
   26538:	980f      	ldr	r0, [sp, #60]	@ 0x3c
   2653a:	2800      	cmp	r0, #0
   2653c:	d000      	beq.n	26540 <_start+0x8ac>
   2653e:	e5ca      	b.n	260d6 <_start+0x442>
   26540:	ac39      	add	r4, sp, #228	@ 0xe4
   26542:	9838      	ldr	r0, [sp, #224]	@ 0xe0
   26544:	8020      	strh	r0, [r4, #0]
   26546:	a923      	add	r1, sp, #140	@ 0x8c
   26548:	9834      	ldr	r0, [sp, #208]	@ 0xd0
   2654a:	8088      	strh	r0, [r1, #4]
   2654c:	a838      	add	r0, sp, #224	@ 0xe0
   2654e:	7880      	ldrb	r0, [r0, #2]
   26550:	70a0      	strb	r0, [r4, #2]
   26552:	a833      	add	r0, sp, #204	@ 0xcc
   26554:	7980      	ldrb	r0, [r0, #6]
   26556:	7188      	strb	r0, [r1, #6]
   26558:	70e6      	strb	r6, [r4, #3]
   2655a:	0e30      	lsrs	r0, r6, #24
   2655c:	71a0      	strb	r0, [r4, #6]
   2655e:	0c30      	lsrs	r0, r6, #16
   26560:	7160      	strb	r0, [r4, #5]
   26562:	0a30      	lsrs	r0, r6, #8
   26564:	7120      	strb	r0, [r4, #4]
   26566:	9833      	ldr	r0, [sp, #204]	@ 0xcc
   26568:	9023      	str	r0, [sp, #140]	@ 0x8c
   2656a:	1de0      	adds	r0, r4, #7
   2656c:	2207      	movs	r2, #7
   2656e:	f002 ffcc 	bl	2950a <__aeabi_memcpy>
   26572:	4dac      	ldr	r5, [pc, #688]	@ (26824 <_start+0xb90>)
   26574:	446d      	add	r5, sp
   26576:	4628      	mov	r0, r5
   26578:	4621      	mov	r1, r4
   2657a:	f7fd fa6d 	bl	23a58 <_ZN20complex_full_dynamic3app17hb7ad4e8c2cedb0c1E>
   2657e:	782c      	ldrb	r4, [r5, #0]
   26580:	2c00      	cmp	r4, #0
   26582:	d002      	beq.n	2658a <_start+0x8f6>
   26584:	980c      	ldr	r0, [sp, #48]	@ 0x30
   26586:	6e06      	ldr	r6, [r0, #96]	@ 0x60
   26588:	e011      	b.n	265ae <_start+0x91a>
   2658a:	49a6      	ldr	r1, [pc, #664]	@ (26824 <_start+0xb90>)
   2658c:	4469      	add	r1, sp
   2658e:	78c8      	ldrb	r0, [r1, #3]
   26590:	aa10      	add	r2, sp, #64	@ 0x40
   26592:	7090      	strb	r0, [r2, #2]
   26594:	7848      	ldrb	r0, [r1, #1]
   26596:	788b      	ldrb	r3, [r1, #2]
   26598:	021b      	lsls	r3, r3, #8
   2659a:	1818      	adds	r0, r3, r0
   2659c:	8010      	strh	r0, [r2, #0]
   2659e:	980c      	ldr	r0, [sp, #48]	@ 0x30
   265a0:	6e06      	ldr	r6, [r0, #96]	@ 0x60
   265a2:	3108      	adds	r1, #8
   265a4:	48a1      	ldr	r0, [pc, #644]	@ (2682c <_start+0xb98>)
   265a6:	4468      	add	r0, sp
   265a8:	2241      	movs	r2, #65	@ 0x41
   265aa:	f002 fe4e 	bl	2924a <__aeabi_memcpy4>
   265ae:	2c00      	cmp	r4, #0
   265b0:	d000      	beq.n	265b4 <_start+0x920>
   265b2:	e590      	b.n	260d6 <_start+0x442>
   265b4:	ac3d      	add	r4, sp, #244	@ 0xf4
   265b6:	70e6      	strb	r6, [r4, #3]
   265b8:	9810      	ldr	r0, [sp, #64]	@ 0x40
   265ba:	8020      	strh	r0, [r4, #0]
   265bc:	0e30      	lsrs	r0, r6, #24
   265be:	71a0      	strb	r0, [r4, #6]
   265c0:	0c30      	lsrs	r0, r6, #16
   265c2:	7160      	strb	r0, [r4, #5]
   265c4:	0a30      	lsrs	r0, r6, #8
   265c6:	7120      	strb	r0, [r4, #4]
   265c8:	a810      	add	r0, sp, #64	@ 0x40
   265ca:	7880      	ldrb	r0, [r0, #2]
   265cc:	70a0      	strb	r0, [r4, #2]
   265ce:	1de0      	adds	r0, r4, #7
   265d0:	4996      	ldr	r1, [pc, #600]	@ (2682c <_start+0xb98>)
   265d2:	4469      	add	r1, sp
   265d4:	2241      	movs	r2, #65	@ 0x41
   265d6:	f002 ff98 	bl	2950a <__aeabi_memcpy>
   265da:	4d92      	ldr	r5, [pc, #584]	@ (26824 <_start+0xb90>)
   265dc:	446d      	add	r5, sp
   265de:	4628      	mov	r0, r5
   265e0:	4621      	mov	r1, r4
   265e2:	f7fc fed5 	bl	23390 <_ZN20complex_full_dynamic3app17h9e9d2dc8aee3cff2E>
   265e6:	7829      	ldrb	r1, [r5, #0]
   265e8:	2901      	cmp	r1, #1
   265ea:	d102      	bne.n	265f2 <_start+0x95e>
   265ec:	9d0c      	ldr	r5, [sp, #48]	@ 0x30
   265ee:	6e2e      	ldr	r6, [r5, #96]	@ 0x60
   265f0:	e00e      	b.n	26610 <_start+0x97c>
   265f2:	488c      	ldr	r0, [pc, #560]	@ (26824 <_start+0xb90>)
   265f4:	4468      	add	r0, sp
   265f6:	78c2      	ldrb	r2, [r0, #3]
   265f8:	4b8c      	ldr	r3, [pc, #560]	@ (2682c <_start+0xb98>)
   265fa:	446b      	add	r3, sp
   265fc:	709a      	strb	r2, [r3, #2]
   265fe:	7842      	ldrb	r2, [r0, #1]
   26600:	7880      	ldrb	r0, [r0, #2]
   26602:	0200      	lsls	r0, r0, #8
   26604:	1880      	adds	r0, r0, r2
   26606:	8018      	strh	r0, [r3, #0]
   26608:	9d0c      	ldr	r5, [sp, #48]	@ 0x30
   2660a:	6e2e      	ldr	r6, [r5, #96]	@ 0x60
   2660c:	6e6a      	ldr	r2, [r5, #100]	@ 0x64
   2660e:	6ea8      	ldr	r0, [r5, #104]	@ 0x68
   26610:	2900      	cmp	r1, #0
   26612:	d000      	beq.n	26616 <_start+0x982>
   26614:	e55f      	b.n	260d6 <_start+0x442>
   26616:	9909      	ldr	r1, [sp, #36]	@ 0x24
   26618:	1ccb      	adds	r3, r1, #3
   2661a:	711a      	strb	r2, [r3, #4]
   2661c:	701e      	strb	r6, [r3, #0]
   2661e:	a94f      	add	r1, sp, #316	@ 0x13c
   26620:	682c      	ldr	r4, [r5, #0]
   26622:	800c      	strh	r4, [r1, #0]
   26624:	7218      	strb	r0, [r3, #8]
   26626:	0e14      	lsrs	r4, r2, #24
   26628:	71dc      	strb	r4, [r3, #7]
   2662a:	0c14      	lsrs	r4, r2, #16
   2662c:	719c      	strb	r4, [r3, #6]
   2662e:	0a12      	lsrs	r2, r2, #8
   26630:	715a      	strb	r2, [r3, #5]
   26632:	0e32      	lsrs	r2, r6, #24
   26634:	70da      	strb	r2, [r3, #3]
   26636:	0c32      	lsrs	r2, r6, #16
   26638:	709a      	strb	r2, [r3, #2]
   2663a:	0a32      	lsrs	r2, r6, #8
   2663c:	705a      	strb	r2, [r3, #1]
   2663e:	4a7b      	ldr	r2, [pc, #492]	@ (2682c <_start+0xb98>)
   26640:	446a      	add	r2, sp
   26642:	7892      	ldrb	r2, [r2, #2]
   26644:	708a      	strb	r2, [r1, #2]
   26646:	0e02      	lsrs	r2, r0, #24
   26648:	72da      	strb	r2, [r3, #11]
   2664a:	0c02      	lsrs	r2, r0, #16
   2664c:	729a      	strb	r2, [r3, #10]
   2664e:	0a00      	lsrs	r0, r0, #8
   26650:	7258      	strb	r0, [r3, #9]
   26652:	4c74      	ldr	r4, [pc, #464]	@ (26824 <_start+0xb90>)
   26654:	446c      	add	r4, sp
   26656:	4620      	mov	r0, r4
   26658:	f7fc fac2 	bl	22be0 <_ZN20complex_full_dynamic3app17h7fb6a05f74735bc9E>
   2665c:	7820      	ldrb	r0, [r4, #0]
   2665e:	2801      	cmp	r0, #1
   26660:	d101      	bne.n	26666 <_start+0x9d2>
   26662:	6e2e      	ldr	r6, [r5, #96]	@ 0x60
   26664:	e015      	b.n	26692 <_start+0x9fe>
   26666:	496f      	ldr	r1, [pc, #444]	@ (26824 <_start+0xb90>)
   26668:	4469      	add	r1, sp
   2666a:	78ca      	ldrb	r2, [r1, #3]
   2666c:	ab10      	add	r3, sp, #64	@ 0x40
   2666e:	709a      	strb	r2, [r3, #2]
   26670:	784a      	ldrb	r2, [r1, #1]
   26672:	788c      	ldrb	r4, [r1, #2]
   26674:	0224      	lsls	r4, r4, #8
   26676:	18a2      	adds	r2, r4, r2
   26678:	801a      	strh	r2, [r3, #0]
   2667a:	3108      	adds	r1, #8
   2667c:	6e2a      	ldr	r2, [r5, #96]	@ 0x60
   2667e:	920b      	str	r2, [sp, #44]	@ 0x2c
   26680:	4a6a      	ldr	r2, [pc, #424]	@ (2682c <_start+0xb98>)
   26682:	446a      	add	r2, sp
   26684:	c938      	ldmia	r1!, {r3, r4, r5}
   26686:	c238      	stmia	r2!, {r3, r4, r5}
   26688:	c978      	ldmia	r1!, {r3, r4, r5, r6}
   2668a:	c278      	stmia	r2!, {r3, r4, r5, r6}
   2668c:	9e0b      	ldr	r6, [sp, #44]	@ 0x2c
   2668e:	8809      	ldrh	r1, [r1, #0]
   26690:	8011      	strh	r1, [r2, #0]
   26692:	2800      	cmp	r0, #0
   26694:	d000      	beq.n	26698 <_start+0xa04>
   26696:	e51e      	b.n	260d6 <_start+0x442>
   26698:	ac53      	add	r4, sp, #332	@ 0x14c
   2669a:	70e6      	strb	r6, [r4, #3]
   2669c:	9810      	ldr	r0, [sp, #64]	@ 0x40
   2669e:	8020      	strh	r0, [r4, #0]
   266a0:	0e30      	lsrs	r0, r6, #24
   266a2:	71a0      	strb	r0, [r4, #6]
   266a4:	0c30      	lsrs	r0, r6, #16
   266a6:	7160      	strb	r0, [r4, #5]
   266a8:	0a30      	lsrs	r0, r6, #8
   266aa:	7120      	strb	r0, [r4, #4]
   266ac:	a810      	add	r0, sp, #64	@ 0x40
   266ae:	7880      	ldrb	r0, [r0, #2]
   266b0:	70a0      	strb	r0, [r4, #2]
   266b2:	1de0      	adds	r0, r4, #7
   266b4:	495d      	ldr	r1, [pc, #372]	@ (2682c <_start+0xb98>)
   266b6:	4469      	add	r1, sp
   266b8:	221e      	movs	r2, #30
   266ba:	f002 ff26 	bl	2950a <__aeabi_memcpy>
   266be:	4d59      	ldr	r5, [pc, #356]	@ (26824 <_start+0xb90>)
   266c0:	446d      	add	r5, sp
   266c2:	4628      	mov	r0, r5
   266c4:	4621      	mov	r1, r4
   266c6:	f7fc fc79 	bl	22fbc <_ZN20complex_full_dynamic3app17h8c564fcdc0c3494dE>
   266ca:	7828      	ldrb	r0, [r5, #0]
   266cc:	2801      	cmp	r0, #1
   266ce:	d102      	bne.n	266d6 <_start+0xa42>
   266d0:	990c      	ldr	r1, [sp, #48]	@ 0x30
   266d2:	6e0e      	ldr	r6, [r1, #96]	@ 0x60
   266d4:	e018      	b.n	26708 <_start+0xa74>
   266d6:	4953      	ldr	r1, [pc, #332]	@ (26824 <_start+0xb90>)
   266d8:	4469      	add	r1, sp
   266da:	78ca      	ldrb	r2, [r1, #3]
   266dc:	ab10      	add	r3, sp, #64	@ 0x40
   266de:	709a      	strb	r2, [r3, #2]
   266e0:	784a      	ldrb	r2, [r1, #1]
   266e2:	788c      	ldrb	r4, [r1, #2]
   266e4:	0224      	lsls	r4, r4, #8
   266e6:	18a2      	adds	r2, r4, r2
   266e8:	801a      	strh	r2, [r3, #0]
   266ea:	3108      	adds	r1, #8
   266ec:	9a0c      	ldr	r2, [sp, #48]	@ 0x30
   266ee:	6e12      	ldr	r2, [r2, #96]	@ 0x60
   266f0:	920b      	str	r2, [sp, #44]	@ 0x2c
   266f2:	4a4e      	ldr	r2, [pc, #312]	@ (2682c <_start+0xb98>)
   266f4:	446a      	add	r2, sp
   266f6:	c978      	ldmia	r1!, {r3, r4, r5, r6}
   266f8:	c278      	stmia	r2!, {r3, r4, r5, r6}
   266fa:	c978      	ldmia	r1!, {r3, r4, r5, r6}
   266fc:	c278      	stmia	r2!, {r3, r4, r5, r6}
   266fe:	9e0b      	ldr	r6, [sp, #44]	@ 0x2c
   26700:	880b      	ldrh	r3, [r1, #0]
   26702:	8013      	strh	r3, [r2, #0]
   26704:	7889      	ldrb	r1, [r1, #2]
   26706:	7091      	strb	r1, [r2, #2]
   26708:	2800      	cmp	r0, #0
   2670a:	d000      	beq.n	2670e <_start+0xa7a>
   2670c:	e4e3      	b.n	260d6 <_start+0x442>
   2670e:	ac5d      	add	r4, sp, #372	@ 0x174
   26710:	70e6      	strb	r6, [r4, #3]
   26712:	9810      	ldr	r0, [sp, #64]	@ 0x40
   26714:	8020      	strh	r0, [r4, #0]
   26716:	0e30      	lsrs	r0, r6, #24
   26718:	71a0      	strb	r0, [r4, #6]
   2671a:	0c30      	lsrs	r0, r6, #16
   2671c:	7160      	strb	r0, [r4, #5]
   2671e:	0a30      	lsrs	r0, r6, #8
   26720:	7120      	strb	r0, [r4, #4]
   26722:	a810      	add	r0, sp, #64	@ 0x40
   26724:	7880      	ldrb	r0, [r0, #2]
   26726:	70a0      	strb	r0, [r4, #2]
   26728:	1de0      	adds	r0, r4, #7
   2672a:	4940      	ldr	r1, [pc, #256]	@ (2682c <_start+0xb98>)
   2672c:	4469      	add	r1, sp
   2672e:	2223      	movs	r2, #35	@ 0x23
   26730:	f002 feeb 	bl	2950a <__aeabi_memcpy>
   26734:	4d3b      	ldr	r5, [pc, #236]	@ (26824 <_start+0xb90>)
   26736:	446d      	add	r5, sp
   26738:	4628      	mov	r0, r5
   2673a:	4621      	mov	r1, r4
   2673c:	f7fa f9b0 	bl	20aa0 <_ZN20complex_full_dynamic3app17h2152a167b6344825E>
   26740:	782c      	ldrb	r4, [r5, #0]
   26742:	2c01      	cmp	r4, #1
   26744:	d102      	bne.n	2674c <_start+0xab8>
   26746:	980c      	ldr	r0, [sp, #48]	@ 0x30
   26748:	6e06      	ldr	r6, [r0, #96]	@ 0x60
   2674a:	e011      	b.n	26770 <_start+0xadc>
   2674c:	4935      	ldr	r1, [pc, #212]	@ (26824 <_start+0xb90>)
   2674e:	4469      	add	r1, sp
   26750:	78c8      	ldrb	r0, [r1, #3]
   26752:	aa10      	add	r2, sp, #64	@ 0x40
   26754:	7090      	strb	r0, [r2, #2]
   26756:	7848      	ldrb	r0, [r1, #1]
   26758:	788b      	ldrb	r3, [r1, #2]
   2675a:	021b      	lsls	r3, r3, #8
   2675c:	1818      	adds	r0, r3, r0
   2675e:	8010      	strh	r0, [r2, #0]
   26760:	980c      	ldr	r0, [sp, #48]	@ 0x30
   26762:	6e06      	ldr	r6, [r0, #96]	@ 0x60
   26764:	3108      	adds	r1, #8
   26766:	4831      	ldr	r0, [pc, #196]	@ (2682c <_start+0xb98>)
   26768:	4468      	add	r0, sp
   2676a:	225c      	movs	r2, #92	@ 0x5c
   2676c:	f002 fd6d 	bl	2924a <__aeabi_memcpy4>
   26770:	2c00      	cmp	r4, #0
   26772:	d000      	beq.n	26776 <_start+0xae2>
   26774:	e4af      	b.n	260d6 <_start+0x442>
   26776:	ac68      	add	r4, sp, #416	@ 0x1a0
   26778:	70e6      	strb	r6, [r4, #3]
   2677a:	9810      	ldr	r0, [sp, #64]	@ 0x40
   2677c:	8020      	strh	r0, [r4, #0]
   2677e:	0e30      	lsrs	r0, r6, #24
   26780:	71a0      	strb	r0, [r4, #6]
   26782:	0c30      	lsrs	r0, r6, #16
   26784:	7160      	strb	r0, [r4, #5]
   26786:	0a30      	lsrs	r0, r6, #8
   26788:	7120      	strb	r0, [r4, #4]
   2678a:	a810      	add	r0, sp, #64	@ 0x40
   2678c:	7880      	ldrb	r0, [r0, #2]
   2678e:	70a0      	strb	r0, [r4, #2]
   26790:	1de0      	adds	r0, r4, #7
   26792:	4926      	ldr	r1, [pc, #152]	@ (2682c <_start+0xb98>)
   26794:	4469      	add	r1, sp
   26796:	225c      	movs	r2, #92	@ 0x5c
   26798:	f002 feb7 	bl	2950a <__aeabi_memcpy>
   2679c:	4d21      	ldr	r5, [pc, #132]	@ (26824 <_start+0xb90>)
   2679e:	446d      	add	r5, sp
   267a0:	4628      	mov	r0, r5
   267a2:	4621      	mov	r1, r4
   267a4:	f7fa f888 	bl	208b8 <_ZN20complex_full_dynamic3app17h1a765da1947167a6E>
   267a8:	7828      	ldrb	r0, [r5, #0]
   267aa:	2801      	cmp	r0, #1
   267ac:	d102      	bne.n	267b4 <_start+0xb20>
   267ae:	990c      	ldr	r1, [sp, #48]	@ 0x30
   267b0:	6e0e      	ldr	r6, [r1, #96]	@ 0x60
   267b2:	e014      	b.n	267de <_start+0xb4a>
   267b4:	491b      	ldr	r1, [pc, #108]	@ (26824 <_start+0xb90>)
   267b6:	4469      	add	r1, sp
   267b8:	78ca      	ldrb	r2, [r1, #3]
   267ba:	ab10      	add	r3, sp, #64	@ 0x40
   267bc:	709a      	strb	r2, [r3, #2]
   267be:	784a      	ldrb	r2, [r1, #1]
   267c0:	788c      	ldrb	r4, [r1, #2]
   267c2:	0224      	lsls	r4, r4, #8
   267c4:	18a2      	adds	r2, r4, r2
   267c6:	801a      	strh	r2, [r3, #0]
   267c8:	3108      	adds	r1, #8
   267ca:	9a0c      	ldr	r2, [sp, #48]	@ 0x30
   267cc:	6e12      	ldr	r2, [r2, #96]	@ 0x60
   267ce:	920b      	str	r2, [sp, #44]	@ 0x2c
   267d0:	4a16      	ldr	r2, [pc, #88]	@ (2682c <_start+0xb98>)
   267d2:	446a      	add	r2, sp
   267d4:	c978      	ldmia	r1!, {r3, r4, r5, r6}
   267d6:	c278      	stmia	r2!, {r3, r4, r5, r6}
   267d8:	c978      	ldmia	r1!, {r3, r4, r5, r6}
   267da:	c278      	stmia	r2!, {r3, r4, r5, r6}
   267dc:	9e0b      	ldr	r6, [sp, #44]	@ 0x2c
   267de:	2800      	cmp	r0, #0
   267e0:	d000      	beq.n	267e4 <_start+0xb50>
   267e2:	e478      	b.n	260d6 <_start+0x442>
   267e4:	ac81      	add	r4, sp, #516	@ 0x204
   267e6:	70e6      	strb	r6, [r4, #3]
   267e8:	9810      	ldr	r0, [sp, #64]	@ 0x40
   267ea:	8020      	strh	r0, [r4, #0]
   267ec:	0e30      	lsrs	r0, r6, #24
   267ee:	71a0      	strb	r0, [r4, #6]
   267f0:	0c30      	lsrs	r0, r6, #16
   267f2:	7160      	strb	r0, [r4, #5]
   267f4:	0a30      	lsrs	r0, r6, #8
   267f6:	7120      	strb	r0, [r4, #4]
   267f8:	a810      	add	r0, sp, #64	@ 0x40
   267fa:	7880      	ldrb	r0, [r0, #2]
   267fc:	70a0      	strb	r0, [r4, #2]
   267fe:	1de0      	adds	r0, r4, #7
   26800:	490a      	ldr	r1, [pc, #40]	@ (2682c <_start+0xb98>)
   26802:	4469      	add	r1, sp
   26804:	2220      	movs	r2, #32
   26806:	f002 fe80 	bl	2950a <__aeabi_memcpy>
   2680a:	4d06      	ldr	r5, [pc, #24]	@ (26824 <_start+0xb90>)
   2680c:	446d      	add	r5, sp
   2680e:	4628      	mov	r0, r5
   26810:	4621      	mov	r1, r4
   26812:	f7ff f9bf 	bl	25b94 <_ZN20complex_full_dynamic3app17hfe402501e807ad00E>
   26816:	7828      	ldrb	r0, [r5, #0]
   26818:	2801      	cmp	r0, #1
   2681a:	d109      	bne.n	26830 <_start+0xb9c>
   2681c:	990c      	ldr	r1, [sp, #48]	@ 0x30
   2681e:	6e0e      	ldr	r6, [r1, #96]	@ 0x60
   26820:	e01d      	b.n	2685e <_start+0xbca>
   26822:	46c0      	nop			@ (mov r8, r8)
   26824:	00001414 	.word	0x00001414
   26828:	00000667 	.word	0x00000667
   2682c:	000013b8 	.word	0x000013b8
   26830:	49eb      	ldr	r1, [pc, #940]	@ (26be0 <_start+0xf4c>)
   26832:	4469      	add	r1, sp
   26834:	78ca      	ldrb	r2, [r1, #3]
   26836:	ab10      	add	r3, sp, #64	@ 0x40
   26838:	709a      	strb	r2, [r3, #2]
   2683a:	784a      	ldrb	r2, [r1, #1]
   2683c:	788c      	ldrb	r4, [r1, #2]
   2683e:	0224      	lsls	r4, r4, #8
   26840:	18a2      	adds	r2, r4, r2
   26842:	801a      	strh	r2, [r3, #0]
   26844:	3108      	adds	r1, #8
   26846:	9a0c      	ldr	r2, [sp, #48]	@ 0x30
   26848:	6e16      	ldr	r6, [r2, #96]	@ 0x60
   2684a:	4ae6      	ldr	r2, [pc, #920]	@ (26be4 <_start+0xf50>)
   2684c:	446a      	add	r2, sp
   2684e:	c918      	ldmia	r1!, {r3, r4}
   26850:	c218      	stmia	r2!, {r3, r4}
   26852:	c938      	ldmia	r1!, {r3, r4, r5}
   26854:	c238      	stmia	r2!, {r3, r4, r5}
   26856:	880b      	ldrh	r3, [r1, #0]
   26858:	8013      	strh	r3, [r2, #0]
   2685a:	7889      	ldrb	r1, [r1, #2]
   2685c:	7091      	strb	r1, [r2, #2]
   2685e:	2800      	cmp	r0, #0
   26860:	d000      	beq.n	26864 <_start+0xbd0>
   26862:	e438      	b.n	260d6 <_start+0x442>
   26864:	ac8b      	add	r4, sp, #556	@ 0x22c
   26866:	70e6      	strb	r6, [r4, #3]
   26868:	9810      	ldr	r0, [sp, #64]	@ 0x40
   2686a:	8020      	strh	r0, [r4, #0]
   2686c:	0e30      	lsrs	r0, r6, #24
   2686e:	71a0      	strb	r0, [r4, #6]
   26870:	0c30      	lsrs	r0, r6, #16
   26872:	7160      	strb	r0, [r4, #5]
   26874:	0a30      	lsrs	r0, r6, #8
   26876:	7120      	strb	r0, [r4, #4]
   26878:	a810      	add	r0, sp, #64	@ 0x40
   2687a:	7880      	ldrb	r0, [r0, #2]
   2687c:	70a0      	strb	r0, [r4, #2]
   2687e:	1de0      	adds	r0, r4, #7
   26880:	49d8      	ldr	r1, [pc, #864]	@ (26be4 <_start+0xf50>)
   26882:	4469      	add	r1, sp
   26884:	2217      	movs	r2, #23
   26886:	f002 fe40 	bl	2950a <__aeabi_memcpy>
   2688a:	4dd5      	ldr	r5, [pc, #852]	@ (26be0 <_start+0xf4c>)
   2688c:	446d      	add	r5, sp
   2688e:	4628      	mov	r0, r5
   26890:	4621      	mov	r1, r4
   26892:	f7fe fbb1 	bl	24ff8 <_ZN20complex_full_dynamic3app17he3a6502364d95586E>
   26896:	7828      	ldrb	r0, [r5, #0]
   26898:	2801      	cmp	r0, #1
   2689a:	d102      	bne.n	268a2 <_start+0xc0e>
   2689c:	990c      	ldr	r1, [sp, #48]	@ 0x30
   2689e:	6e0e      	ldr	r6, [r1, #96]	@ 0x60
   268a0:	e016      	b.n	268d0 <_start+0xc3c>
   268a2:	49cf      	ldr	r1, [pc, #828]	@ (26be0 <_start+0xf4c>)
   268a4:	4469      	add	r1, sp
   268a6:	78ca      	ldrb	r2, [r1, #3]
   268a8:	ab10      	add	r3, sp, #64	@ 0x40
   268aa:	709a      	strb	r2, [r3, #2]
   268ac:	784a      	ldrb	r2, [r1, #1]
   268ae:	788c      	ldrb	r4, [r1, #2]
   268b0:	0224      	lsls	r4, r4, #8
   268b2:	18a2      	adds	r2, r4, r2
   268b4:	801a      	strh	r2, [r3, #0]
   268b6:	3108      	adds	r1, #8
   268b8:	9a0c      	ldr	r2, [sp, #48]	@ 0x30
   268ba:	6e16      	ldr	r6, [r2, #96]	@ 0x60
   268bc:	4ac9      	ldr	r2, [pc, #804]	@ (26be4 <_start+0xf50>)
   268be:	446a      	add	r2, sp
   268c0:	c938      	ldmia	r1!, {r3, r4, r5}
   268c2:	c238      	stmia	r2!, {r3, r4, r5}
   268c4:	c938      	ldmia	r1!, {r3, r4, r5}
   268c6:	c238      	stmia	r2!, {r3, r4, r5}
   268c8:	c938      	ldmia	r1!, {r3, r4, r5}
   268ca:	c238      	stmia	r2!, {r3, r4, r5}
   268cc:	7809      	ldrb	r1, [r1, #0]
   268ce:	7011      	strb	r1, [r2, #0]
   268d0:	2800      	cmp	r0, #0
   268d2:	d001      	beq.n	268d8 <_start+0xc44>
   268d4:	f7ff fbff 	bl	260d6 <_start+0x442>
   268d8:	ac93      	add	r4, sp, #588	@ 0x24c
   268da:	70e6      	strb	r6, [r4, #3]
   268dc:	9810      	ldr	r0, [sp, #64]	@ 0x40
   268de:	8020      	strh	r0, [r4, #0]
   268e0:	0e30      	lsrs	r0, r6, #24
   268e2:	71a0      	strb	r0, [r4, #6]
   268e4:	0c30      	lsrs	r0, r6, #16
   268e6:	7160      	strb	r0, [r4, #5]
   268e8:	0a30      	lsrs	r0, r6, #8
   268ea:	7120      	strb	r0, [r4, #4]
   268ec:	a810      	add	r0, sp, #64	@ 0x40
   268ee:	7880      	ldrb	r0, [r0, #2]
   268f0:	70a0      	strb	r0, [r4, #2]
   268f2:	1de0      	adds	r0, r4, #7
   268f4:	49bb      	ldr	r1, [pc, #748]	@ (26be4 <_start+0xf50>)
   268f6:	4469      	add	r1, sp
   268f8:	2225      	movs	r2, #37	@ 0x25
   268fa:	f002 fe06 	bl	2950a <__aeabi_memcpy>
   268fe:	4db8      	ldr	r5, [pc, #736]	@ (26be0 <_start+0xf4c>)
   26900:	446d      	add	r5, sp
   26902:	4628      	mov	r0, r5
   26904:	4621      	mov	r1, r4
   26906:	f7fb f91b 	bl	21b40 <_ZN20complex_full_dynamic3app17h5e922ab2a2872c42E>
   2690a:	7828      	ldrb	r0, [r5, #0]
   2690c:	2801      	cmp	r0, #1
   2690e:	d103      	bne.n	26918 <_start+0xc84>
   26910:	990c      	ldr	r1, [sp, #48]	@ 0x30
   26912:	6e09      	ldr	r1, [r1, #96]	@ 0x60
   26914:	910b      	str	r1, [sp, #44]	@ 0x2c
   26916:	e015      	b.n	26944 <_start+0xcb0>
   26918:	49b1      	ldr	r1, [pc, #708]	@ (26be0 <_start+0xf4c>)
   2691a:	4469      	add	r1, sp
   2691c:	78ca      	ldrb	r2, [r1, #3]
   2691e:	ab10      	add	r3, sp, #64	@ 0x40
   26920:	709a      	strb	r2, [r3, #2]
   26922:	784a      	ldrb	r2, [r1, #1]
   26924:	788c      	ldrb	r4, [r1, #2]
   26926:	0224      	lsls	r4, r4, #8
   26928:	18a2      	adds	r2, r4, r2
   2692a:	801a      	strh	r2, [r3, #0]
   2692c:	3108      	adds	r1, #8
   2692e:	9a0c      	ldr	r2, [sp, #48]	@ 0x30
   26930:	6e12      	ldr	r2, [r2, #96]	@ 0x60
   26932:	920b      	str	r2, [sp, #44]	@ 0x2c
   26934:	4aab      	ldr	r2, [pc, #684]	@ (26be4 <_start+0xf50>)
   26936:	446a      	add	r2, sp
   26938:	c938      	ldmia	r1!, {r3, r4, r5}
   2693a:	c238      	stmia	r2!, {r3, r4, r5}
   2693c:	c978      	ldmia	r1!, {r3, r4, r5, r6}
   2693e:	c278      	stmia	r2!, {r3, r4, r5, r6}
   26940:	8809      	ldrh	r1, [r1, #0]
   26942:	8011      	strh	r1, [r2, #0]
   26944:	2800      	cmp	r0, #0
   26946:	d000      	beq.n	2694a <_start+0xcb6>
   26948:	e532      	b.n	263b0 <_start+0x71c>
   2694a:	ac9e      	add	r4, sp, #632	@ 0x278
   2694c:	990b      	ldr	r1, [sp, #44]	@ 0x2c
   2694e:	70e1      	strb	r1, [r4, #3]
   26950:	9810      	ldr	r0, [sp, #64]	@ 0x40
   26952:	8020      	strh	r0, [r4, #0]
   26954:	0e08      	lsrs	r0, r1, #24
   26956:	71a0      	strb	r0, [r4, #6]
   26958:	0c08      	lsrs	r0, r1, #16
   2695a:	7160      	strb	r0, [r4, #5]
   2695c:	0a08      	lsrs	r0, r1, #8
   2695e:	7120      	strb	r0, [r4, #4]
   26960:	a810      	add	r0, sp, #64	@ 0x40
   26962:	7880      	ldrb	r0, [r0, #2]
   26964:	70a0      	strb	r0, [r4, #2]
   26966:	1de0      	adds	r0, r4, #7
   26968:	499e      	ldr	r1, [pc, #632]	@ (26be4 <_start+0xf50>)
   2696a:	4469      	add	r1, sp
   2696c:	221e      	movs	r2, #30
   2696e:	f002 fdcc 	bl	2950a <__aeabi_memcpy>
   26972:	4d9b      	ldr	r5, [pc, #620]	@ (26be0 <_start+0xf4c>)
   26974:	446d      	add	r5, sp
   26976:	4628      	mov	r0, r5
   26978:	4621      	mov	r1, r4
   2697a:	f7fb ffb3 	bl	228e4 <_ZN20complex_full_dynamic3app17h787c6c42da875b03E>
   2697e:	7828      	ldrb	r0, [r5, #0]
   26980:	2801      	cmp	r0, #1
   26982:	d103      	bne.n	2698c <_start+0xcf8>
   26984:	990c      	ldr	r1, [sp, #48]	@ 0x30
   26986:	6e09      	ldr	r1, [r1, #96]	@ 0x60
   26988:	910b      	str	r1, [sp, #44]	@ 0x2c
   2698a:	e013      	b.n	269b4 <_start+0xd20>
   2698c:	4994      	ldr	r1, [pc, #592]	@ (26be0 <_start+0xf4c>)
   2698e:	4469      	add	r1, sp
   26990:	78ca      	ldrb	r2, [r1, #3]
   26992:	ab10      	add	r3, sp, #64	@ 0x40
   26994:	709a      	strb	r2, [r3, #2]
   26996:	784a      	ldrb	r2, [r1, #1]
   26998:	788c      	ldrb	r4, [r1, #2]
   2699a:	0224      	lsls	r4, r4, #8
   2699c:	18a2      	adds	r2, r4, r2
   2699e:	801a      	strh	r2, [r3, #0]
   269a0:	3108      	adds	r1, #8
   269a2:	9a0c      	ldr	r2, [sp, #48]	@ 0x30
   269a4:	6e12      	ldr	r2, [r2, #96]	@ 0x60
   269a6:	920b      	str	r2, [sp, #44]	@ 0x2c
   269a8:	4a8e      	ldr	r2, [pc, #568]	@ (26be4 <_start+0xf50>)
   269aa:	446a      	add	r2, sp
   269ac:	c978      	ldmia	r1!, {r3, r4, r5, r6}
   269ae:	c278      	stmia	r2!, {r3, r4, r5, r6}
   269b0:	7809      	ldrb	r1, [r1, #0]
   269b2:	7011      	strb	r1, [r2, #0]
   269b4:	2800      	cmp	r0, #0
   269b6:	d000      	beq.n	269ba <_start+0xd26>
   269b8:	e4fa      	b.n	263b0 <_start+0x71c>
   269ba:	aca8      	add	r4, sp, #672	@ 0x2a0
   269bc:	990b      	ldr	r1, [sp, #44]	@ 0x2c
   269be:	70e1      	strb	r1, [r4, #3]
   269c0:	9810      	ldr	r0, [sp, #64]	@ 0x40
   269c2:	8020      	strh	r0, [r4, #0]
   269c4:	0e08      	lsrs	r0, r1, #24
   269c6:	71a0      	strb	r0, [r4, #6]
   269c8:	0c08      	lsrs	r0, r1, #16
   269ca:	7160      	strb	r0, [r4, #5]
   269cc:	0a08      	lsrs	r0, r1, #8
   269ce:	7120      	strb	r0, [r4, #4]
   269d0:	a810      	add	r0, sp, #64	@ 0x40
   269d2:	7880      	ldrb	r0, [r0, #2]
   269d4:	70a0      	strb	r0, [r4, #2]
   269d6:	1de0      	adds	r0, r4, #7
   269d8:	4982      	ldr	r1, [pc, #520]	@ (26be4 <_start+0xf50>)
   269da:	4469      	add	r1, sp
   269dc:	2211      	movs	r2, #17
   269de:	f002 fd94 	bl	2950a <__aeabi_memcpy>
   269e2:	4d7f      	ldr	r5, [pc, #508]	@ (26be0 <_start+0xf4c>)
   269e4:	446d      	add	r5, sp
   269e6:	4628      	mov	r0, r5
   269e8:	4621      	mov	r1, r4
   269ea:	f7fb fa25 	bl	21e38 <_ZN20complex_full_dynamic3app17h631a1f1f9bff17a7E>
   269ee:	7828      	ldrb	r0, [r5, #0]
   269f0:	2801      	cmp	r0, #1
   269f2:	d103      	bne.n	269fc <_start+0xd68>
   269f4:	990c      	ldr	r1, [sp, #48]	@ 0x30
   269f6:	6e09      	ldr	r1, [r1, #96]	@ 0x60
   269f8:	910b      	str	r1, [sp, #44]	@ 0x2c
   269fa:	e019      	b.n	26a30 <_start+0xd9c>
   269fc:	4978      	ldr	r1, [pc, #480]	@ (26be0 <_start+0xf4c>)
   269fe:	4469      	add	r1, sp
   26a00:	78ca      	ldrb	r2, [r1, #3]
   26a02:	ab10      	add	r3, sp, #64	@ 0x40
   26a04:	709a      	strb	r2, [r3, #2]
   26a06:	784a      	ldrb	r2, [r1, #1]
   26a08:	788c      	ldrb	r4, [r1, #2]
   26a0a:	0224      	lsls	r4, r4, #8
   26a0c:	18a2      	adds	r2, r4, r2
   26a0e:	801a      	strh	r2, [r3, #0]
   26a10:	3108      	adds	r1, #8
   26a12:	9a0c      	ldr	r2, [sp, #48]	@ 0x30
   26a14:	6e12      	ldr	r2, [r2, #96]	@ 0x60
   26a16:	920b      	str	r2, [sp, #44]	@ 0x2c
   26a18:	4a72      	ldr	r2, [pc, #456]	@ (26be4 <_start+0xf50>)
   26a1a:	446a      	add	r2, sp
   26a1c:	c938      	ldmia	r1!, {r3, r4, r5}
   26a1e:	c238      	stmia	r2!, {r3, r4, r5}
   26a20:	c978      	ldmia	r1!, {r3, r4, r5, r6}
   26a22:	c278      	stmia	r2!, {r3, r4, r5, r6}
   26a24:	c978      	ldmia	r1!, {r3, r4, r5, r6}
   26a26:	c278      	stmia	r2!, {r3, r4, r5, r6}
   26a28:	880b      	ldrh	r3, [r1, #0]
   26a2a:	8013      	strh	r3, [r2, #0]
   26a2c:	7889      	ldrb	r1, [r1, #2]
   26a2e:	7091      	strb	r1, [r2, #2]
   26a30:	2800      	cmp	r0, #0
   26a32:	d000      	beq.n	26a36 <_start+0xda2>
   26a34:	e4bc      	b.n	263b0 <_start+0x71c>
   26a36:	acae      	add	r4, sp, #696	@ 0x2b8
   26a38:	990b      	ldr	r1, [sp, #44]	@ 0x2c
   26a3a:	70e1      	strb	r1, [r4, #3]
   26a3c:	9810      	ldr	r0, [sp, #64]	@ 0x40
   26a3e:	8020      	strh	r0, [r4, #0]
   26a40:	0e08      	lsrs	r0, r1, #24
   26a42:	71a0      	strb	r0, [r4, #6]
   26a44:	0c08      	lsrs	r0, r1, #16
   26a46:	7160      	strb	r0, [r4, #5]
   26a48:	0a08      	lsrs	r0, r1, #8
   26a4a:	7120      	strb	r0, [r4, #4]
   26a4c:	a810      	add	r0, sp, #64	@ 0x40
   26a4e:	7880      	ldrb	r0, [r0, #2]
   26a50:	70a0      	strb	r0, [r4, #2]
   26a52:	1de0      	adds	r0, r4, #7
   26a54:	4963      	ldr	r1, [pc, #396]	@ (26be4 <_start+0xf50>)
   26a56:	4469      	add	r1, sp
   26a58:	222f      	movs	r2, #47	@ 0x2f
   26a5a:	f002 fd56 	bl	2950a <__aeabi_memcpy>
   26a5e:	4d60      	ldr	r5, [pc, #384]	@ (26be0 <_start+0xf4c>)
   26a60:	446d      	add	r5, sp
   26a62:	4628      	mov	r0, r5
   26a64:	4621      	mov	r1, r4
   26a66:	f7fd fdd1 	bl	2460c <_ZN20complex_full_dynamic3app17hcc8c8ec09fd6c922E>
   26a6a:	7828      	ldrb	r0, [r5, #0]
   26a6c:	2801      	cmp	r0, #1
   26a6e:	d103      	bne.n	26a78 <_start+0xde4>
   26a70:	990c      	ldr	r1, [sp, #48]	@ 0x30
   26a72:	6e09      	ldr	r1, [r1, #96]	@ 0x60
   26a74:	910b      	str	r1, [sp, #44]	@ 0x2c
   26a76:	e017      	b.n	26aa8 <_start+0xe14>
   26a78:	4959      	ldr	r1, [pc, #356]	@ (26be0 <_start+0xf4c>)
   26a7a:	4469      	add	r1, sp
   26a7c:	78ca      	ldrb	r2, [r1, #3]
   26a7e:	ab10      	add	r3, sp, #64	@ 0x40
   26a80:	709a      	strb	r2, [r3, #2]
   26a82:	784a      	ldrb	r2, [r1, #1]
   26a84:	788c      	ldrb	r4, [r1, #2]
   26a86:	0224      	lsls	r4, r4, #8
   26a88:	18a2      	adds	r2, r4, r2
   26a8a:	801a      	strh	r2, [r3, #0]
   26a8c:	3108      	adds	r1, #8
   26a8e:	9a0c      	ldr	r2, [sp, #48]	@ 0x30
   26a90:	6e12      	ldr	r2, [r2, #96]	@ 0x60
   26a92:	920b      	str	r2, [sp, #44]	@ 0x2c
   26a94:	4a53      	ldr	r2, [pc, #332]	@ (26be4 <_start+0xf50>)
   26a96:	446a      	add	r2, sp
   26a98:	c938      	ldmia	r1!, {r3, r4, r5}
   26a9a:	c238      	stmia	r2!, {r3, r4, r5}
   26a9c:	c978      	ldmia	r1!, {r3, r4, r5, r6}
   26a9e:	c278      	stmia	r2!, {r3, r4, r5, r6}
   26aa0:	c978      	ldmia	r1!, {r3, r4, r5, r6}
   26aa2:	c278      	stmia	r2!, {r3, r4, r5, r6}
   26aa4:	7809      	ldrb	r1, [r1, #0]
   26aa6:	7011      	strb	r1, [r2, #0]
   26aa8:	2800      	cmp	r0, #0
   26aaa:	d000      	beq.n	26aae <_start+0xe1a>
   26aac:	e480      	b.n	263b0 <_start+0x71c>
   26aae:	acbc      	add	r4, sp, #752	@ 0x2f0
   26ab0:	990b      	ldr	r1, [sp, #44]	@ 0x2c
   26ab2:	70e1      	strb	r1, [r4, #3]
   26ab4:	9810      	ldr	r0, [sp, #64]	@ 0x40
   26ab6:	8020      	strh	r0, [r4, #0]
   26ab8:	0e08      	lsrs	r0, r1, #24
   26aba:	71a0      	strb	r0, [r4, #6]
   26abc:	0c08      	lsrs	r0, r1, #16
   26abe:	7160      	strb	r0, [r4, #5]
   26ac0:	0a08      	lsrs	r0, r1, #8
   26ac2:	7120      	strb	r0, [r4, #4]
   26ac4:	a810      	add	r0, sp, #64	@ 0x40
   26ac6:	7880      	ldrb	r0, [r0, #2]
   26ac8:	70a0      	strb	r0, [r4, #2]
   26aca:	1de0      	adds	r0, r4, #7
   26acc:	4945      	ldr	r1, [pc, #276]	@ (26be4 <_start+0xf50>)
   26ace:	4469      	add	r1, sp
   26ad0:	222d      	movs	r2, #45	@ 0x2d
   26ad2:	f002 fd1a 	bl	2950a <__aeabi_memcpy>
   26ad6:	4d42      	ldr	r5, [pc, #264]	@ (26be0 <_start+0xf4c>)
   26ad8:	446d      	add	r5, sp
   26ada:	4628      	mov	r0, r5
   26adc:	4621      	mov	r1, r4
   26ade:	f7fe fb7f 	bl	251e0 <_ZN20complex_full_dynamic3app17he7ad6818f3d62e1aE>
   26ae2:	7828      	ldrb	r0, [r5, #0]
   26ae4:	2801      	cmp	r0, #1
   26ae6:	d102      	bne.n	26aee <_start+0xe5a>
   26ae8:	990c      	ldr	r1, [sp, #48]	@ 0x30
   26aea:	6e0e      	ldr	r6, [r1, #96]	@ 0x60
   26aec:	e018      	b.n	26b20 <_start+0xe8c>
   26aee:	493c      	ldr	r1, [pc, #240]	@ (26be0 <_start+0xf4c>)
   26af0:	4469      	add	r1, sp
   26af2:	78ca      	ldrb	r2, [r1, #3]
   26af4:	ab10      	add	r3, sp, #64	@ 0x40
   26af6:	709a      	strb	r2, [r3, #2]
   26af8:	784a      	ldrb	r2, [r1, #1]
   26afa:	788c      	ldrb	r4, [r1, #2]
   26afc:	0224      	lsls	r4, r4, #8
   26afe:	18a2      	adds	r2, r4, r2
   26b00:	801a      	strh	r2, [r3, #0]
   26b02:	3108      	adds	r1, #8
   26b04:	9a0c      	ldr	r2, [sp, #48]	@ 0x30
   26b06:	6e16      	ldr	r6, [r2, #96]	@ 0x60
   26b08:	4a36      	ldr	r2, [pc, #216]	@ (26be4 <_start+0xf50>)
   26b0a:	446a      	add	r2, sp
   26b0c:	c938      	ldmia	r1!, {r3, r4, r5}
   26b0e:	c238      	stmia	r2!, {r3, r4, r5}
   26b10:	c938      	ldmia	r1!, {r3, r4, r5}
   26b12:	c238      	stmia	r2!, {r3, r4, r5}
   26b14:	c938      	ldmia	r1!, {r3, r4, r5}
   26b16:	c238      	stmia	r2!, {r3, r4, r5}
   26b18:	880b      	ldrh	r3, [r1, #0]
   26b1a:	8013      	strh	r3, [r2, #0]
   26b1c:	7889      	ldrb	r1, [r1, #2]
   26b1e:	7091      	strb	r1, [r2, #2]
   26b20:	2800      	cmp	r0, #0
   26b22:	d001      	beq.n	26b28 <_start+0xe94>
   26b24:	f7ff fad7 	bl	260d6 <_start+0x442>
   26b28:	acc9      	add	r4, sp, #804	@ 0x324
   26b2a:	70e6      	strb	r6, [r4, #3]
   26b2c:	9810      	ldr	r0, [sp, #64]	@ 0x40
   26b2e:	8020      	strh	r0, [r4, #0]
   26b30:	0e30      	lsrs	r0, r6, #24
   26b32:	71a0      	strb	r0, [r4, #6]
   26b34:	0c30      	lsrs	r0, r6, #16
   26b36:	7160      	strb	r0, [r4, #5]
   26b38:	0a30      	lsrs	r0, r6, #8
   26b3a:	7120      	strb	r0, [r4, #4]
   26b3c:	a810      	add	r0, sp, #64	@ 0x40
   26b3e:	7880      	ldrb	r0, [r0, #2]
   26b40:	70a0      	strb	r0, [r4, #2]
   26b42:	1de0      	adds	r0, r4, #7
   26b44:	4927      	ldr	r1, [pc, #156]	@ (26be4 <_start+0xf50>)
   26b46:	4469      	add	r1, sp
   26b48:	2227      	movs	r2, #39	@ 0x27
   26b4a:	f002 fcde 	bl	2950a <__aeabi_memcpy>
   26b4e:	4d24      	ldr	r5, [pc, #144]	@ (26be0 <_start+0xf4c>)
   26b50:	446d      	add	r5, sp
   26b52:	4628      	mov	r0, r5
   26b54:	4621      	mov	r1, r4
   26b56:	f7fb ff4d 	bl	229f4 <_ZN20complex_full_dynamic3app17h795f4eaf5eed96a8E>
   26b5a:	7828      	ldrb	r0, [r5, #0]
   26b5c:	2801      	cmp	r0, #1
   26b5e:	d103      	bne.n	26b68 <_start+0xed4>
   26b60:	990c      	ldr	r1, [sp, #48]	@ 0x30
   26b62:	6e09      	ldr	r1, [r1, #96]	@ 0x60
   26b64:	910b      	str	r1, [sp, #44]	@ 0x2c
   26b66:	e017      	b.n	26b98 <_start+0xf04>
   26b68:	491d      	ldr	r1, [pc, #116]	@ (26be0 <_start+0xf4c>)
   26b6a:	4469      	add	r1, sp
   26b6c:	78ca      	ldrb	r2, [r1, #3]
   26b6e:	ab10      	add	r3, sp, #64	@ 0x40
   26b70:	709a      	strb	r2, [r3, #2]
   26b72:	784a      	ldrb	r2, [r1, #1]
   26b74:	788c      	ldrb	r4, [r1, #2]
   26b76:	0224      	lsls	r4, r4, #8
   26b78:	18a2      	adds	r2, r4, r2
   26b7a:	801a      	strh	r2, [r3, #0]
   26b7c:	3108      	adds	r1, #8
   26b7e:	9a0c      	ldr	r2, [sp, #48]	@ 0x30
   26b80:	6e12      	ldr	r2, [r2, #96]	@ 0x60
   26b82:	920b      	str	r2, [sp, #44]	@ 0x2c
   26b84:	4a17      	ldr	r2, [pc, #92]	@ (26be4 <_start+0xf50>)
   26b86:	446a      	add	r2, sp
   26b88:	c978      	ldmia	r1!, {r3, r4, r5, r6}
   26b8a:	c278      	stmia	r2!, {r3, r4, r5, r6}
   26b8c:	c978      	ldmia	r1!, {r3, r4, r5, r6}
   26b8e:	c278      	stmia	r2!, {r3, r4, r5, r6}
   26b90:	c978      	ldmia	r1!, {r3, r4, r5, r6}
   26b92:	c278      	stmia	r2!, {r3, r4, r5, r6}
   26b94:	7809      	ldrb	r1, [r1, #0]
   26b96:	7011      	strb	r1, [r2, #0]
   26b98:	2800      	cmp	r0, #0
   26b9a:	d000      	beq.n	26b9e <_start+0xf0a>
   26b9c:	e408      	b.n	263b0 <_start+0x71c>
   26b9e:	acd5      	add	r4, sp, #852	@ 0x354
   26ba0:	990b      	ldr	r1, [sp, #44]	@ 0x2c
   26ba2:	70e1      	strb	r1, [r4, #3]
   26ba4:	9810      	ldr	r0, [sp, #64]	@ 0x40
   26ba6:	8020      	strh	r0, [r4, #0]
   26ba8:	0e08      	lsrs	r0, r1, #24
   26baa:	71a0      	strb	r0, [r4, #6]
   26bac:	0c08      	lsrs	r0, r1, #16
   26bae:	7160      	strb	r0, [r4, #5]
   26bb0:	0a08      	lsrs	r0, r1, #8
   26bb2:	7120      	strb	r0, [r4, #4]
   26bb4:	a810      	add	r0, sp, #64	@ 0x40
   26bb6:	7880      	ldrb	r0, [r0, #2]
   26bb8:	70a0      	strb	r0, [r4, #2]
   26bba:	1de0      	adds	r0, r4, #7
   26bbc:	4909      	ldr	r1, [pc, #36]	@ (26be4 <_start+0xf50>)
   26bbe:	4469      	add	r1, sp
   26bc0:	2231      	movs	r2, #49	@ 0x31
   26bc2:	f002 fca2 	bl	2950a <__aeabi_memcpy>
   26bc6:	4d06      	ldr	r5, [pc, #24]	@ (26be0 <_start+0xf4c>)
   26bc8:	446d      	add	r5, sp
   26bca:	4628      	mov	r0, r5
   26bcc:	4621      	mov	r1, r4
   26bce:	f7fa f9cf 	bl	20f70 <_ZN20complex_full_dynamic3app17h2fe4d22426103352E>
   26bd2:	7828      	ldrb	r0, [r5, #0]
   26bd4:	2801      	cmp	r0, #1
   26bd6:	d107      	bne.n	26be8 <_start+0xf54>
   26bd8:	990c      	ldr	r1, [sp, #48]	@ 0x30
   26bda:	6e09      	ldr	r1, [r1, #96]	@ 0x60
   26bdc:	910b      	str	r1, [sp, #44]	@ 0x2c
   26bde:	e01b      	b.n	26c18 <_start+0xf84>
   26be0:	00001414 	.word	0x00001414
   26be4:	000013b8 	.word	0x000013b8
   26be8:	49f1      	ldr	r1, [pc, #964]	@ (26fb0 <_start+0x131c>)
   26bea:	4469      	add	r1, sp
   26bec:	78ca      	ldrb	r2, [r1, #3]
   26bee:	ab10      	add	r3, sp, #64	@ 0x40
   26bf0:	709a      	strb	r2, [r3, #2]
   26bf2:	784a      	ldrb	r2, [r1, #1]
   26bf4:	788c      	ldrb	r4, [r1, #2]
   26bf6:	0224      	lsls	r4, r4, #8
   26bf8:	18a2      	adds	r2, r4, r2
   26bfa:	801a      	strh	r2, [r3, #0]
   26bfc:	3108      	adds	r1, #8
   26bfe:	9a0c      	ldr	r2, [sp, #48]	@ 0x30
   26c00:	6e12      	ldr	r2, [r2, #96]	@ 0x60
   26c02:	920b      	str	r2, [sp, #44]	@ 0x2c
   26c04:	4aeb      	ldr	r2, [pc, #940]	@ (26fb4 <_start+0x1320>)
   26c06:	446a      	add	r2, sp
   26c08:	c938      	ldmia	r1!, {r3, r4, r5}
   26c0a:	c238      	stmia	r2!, {r3, r4, r5}
   26c0c:	c978      	ldmia	r1!, {r3, r4, r5, r6}
   26c0e:	c278      	stmia	r2!, {r3, r4, r5, r6}
   26c10:	c978      	ldmia	r1!, {r3, r4, r5, r6}
   26c12:	c278      	stmia	r2!, {r3, r4, r5, r6}
   26c14:	7809      	ldrb	r1, [r1, #0]
   26c16:	7011      	strb	r1, [r2, #0]
   26c18:	2800      	cmp	r0, #0
   26c1a:	d001      	beq.n	26c20 <_start+0xf8c>
   26c1c:	f7ff fbc8 	bl	263b0 <_start+0x71c>
   26c20:	ace3      	add	r4, sp, #908	@ 0x38c
   26c22:	990b      	ldr	r1, [sp, #44]	@ 0x2c
   26c24:	70e1      	strb	r1, [r4, #3]
   26c26:	9810      	ldr	r0, [sp, #64]	@ 0x40
   26c28:	8020      	strh	r0, [r4, #0]
   26c2a:	0e08      	lsrs	r0, r1, #24
   26c2c:	71a0      	strb	r0, [r4, #6]
   26c2e:	0c08      	lsrs	r0, r1, #16
   26c30:	7160      	strb	r0, [r4, #5]
   26c32:	0a08      	lsrs	r0, r1, #8
   26c34:	7120      	strb	r0, [r4, #4]
   26c36:	a810      	add	r0, sp, #64	@ 0x40
   26c38:	7880      	ldrb	r0, [r0, #2]
   26c3a:	70a0      	strb	r0, [r4, #2]
   26c3c:	1de0      	adds	r0, r4, #7
   26c3e:	49dd      	ldr	r1, [pc, #884]	@ (26fb4 <_start+0x1320>)
   26c40:	4469      	add	r1, sp
   26c42:	222d      	movs	r2, #45	@ 0x2d
   26c44:	f002 fc61 	bl	2950a <__aeabi_memcpy>
   26c48:	4dd9      	ldr	r5, [pc, #868]	@ (26fb0 <_start+0x131c>)
   26c4a:	446d      	add	r5, sp
   26c4c:	4628      	mov	r0, r5
   26c4e:	4621      	mov	r1, r4
   26c50:	f7f9 fb3c 	bl	202cc <_ZN20complex_full_dynamic3app17h094d49e2849deb56E>
   26c54:	7828      	ldrb	r0, [r5, #0]
   26c56:	2801      	cmp	r0, #1
   26c58:	d103      	bne.n	26c62 <_start+0xfce>
   26c5a:	990c      	ldr	r1, [sp, #48]	@ 0x30
   26c5c:	6e09      	ldr	r1, [r1, #96]	@ 0x60
   26c5e:	910b      	str	r1, [sp, #44]	@ 0x2c
   26c60:	e015      	b.n	26c8e <_start+0xffa>
   26c62:	49d3      	ldr	r1, [pc, #844]	@ (26fb0 <_start+0x131c>)
   26c64:	4469      	add	r1, sp
   26c66:	78ca      	ldrb	r2, [r1, #3]
   26c68:	ab10      	add	r3, sp, #64	@ 0x40
   26c6a:	709a      	strb	r2, [r3, #2]
   26c6c:	784a      	ldrb	r2, [r1, #1]
   26c6e:	788c      	ldrb	r4, [r1, #2]
   26c70:	0224      	lsls	r4, r4, #8
   26c72:	18a2      	adds	r2, r4, r2
   26c74:	801a      	strh	r2, [r3, #0]
   26c76:	3108      	adds	r1, #8
   26c78:	9a0c      	ldr	r2, [sp, #48]	@ 0x30
   26c7a:	6e12      	ldr	r2, [r2, #96]	@ 0x60
   26c7c:	920b      	str	r2, [sp, #44]	@ 0x2c
   26c7e:	4acd      	ldr	r2, [pc, #820]	@ (26fb4 <_start+0x1320>)
   26c80:	446a      	add	r2, sp
   26c82:	c978      	ldmia	r1!, {r3, r4, r5, r6}
   26c84:	c278      	stmia	r2!, {r3, r4, r5, r6}
   26c86:	880b      	ldrh	r3, [r1, #0]
   26c88:	8013      	strh	r3, [r2, #0]
   26c8a:	7889      	ldrb	r1, [r1, #2]
   26c8c:	7091      	strb	r1, [r2, #2]
   26c8e:	2800      	cmp	r0, #0
   26c90:	d001      	beq.n	26c96 <_start+0x1002>
   26c92:	f7ff fb8d 	bl	263b0 <_start+0x71c>
   26c96:	acf0      	add	r4, sp, #960	@ 0x3c0
   26c98:	990b      	ldr	r1, [sp, #44]	@ 0x2c
   26c9a:	70e1      	strb	r1, [r4, #3]
   26c9c:	9810      	ldr	r0, [sp, #64]	@ 0x40
   26c9e:	8020      	strh	r0, [r4, #0]
   26ca0:	0e08      	lsrs	r0, r1, #24
   26ca2:	71a0      	strb	r0, [r4, #6]
   26ca4:	0c08      	lsrs	r0, r1, #16
   26ca6:	7160      	strb	r0, [r4, #5]
   26ca8:	0a08      	lsrs	r0, r1, #8
   26caa:	7120      	strb	r0, [r4, #4]
   26cac:	a810      	add	r0, sp, #64	@ 0x40
   26cae:	7880      	ldrb	r0, [r0, #2]
   26cb0:	70a0      	strb	r0, [r4, #2]
   26cb2:	1de0      	adds	r0, r4, #7
   26cb4:	49bf      	ldr	r1, [pc, #764]	@ (26fb4 <_start+0x1320>)
   26cb6:	4469      	add	r1, sp
   26cb8:	2213      	movs	r2, #19
   26cba:	f002 fc26 	bl	2950a <__aeabi_memcpy>
   26cbe:	4dbc      	ldr	r5, [pc, #752]	@ (26fb0 <_start+0x131c>)
   26cc0:	446d      	add	r5, sp
   26cc2:	4628      	mov	r0, r5
   26cc4:	4621      	mov	r1, r4
   26cc6:	f7fc f8fd 	bl	22ec4 <_ZN20complex_full_dynamic3app17h899f4f4a34cb9674E>
   26cca:	782c      	ldrb	r4, [r5, #0]
   26ccc:	2c01      	cmp	r4, #1
   26cce:	d102      	bne.n	26cd6 <_start+0x1042>
   26cd0:	980c      	ldr	r0, [sp, #48]	@ 0x30
   26cd2:	6e06      	ldr	r6, [r0, #96]	@ 0x60
   26cd4:	e011      	b.n	26cfa <_start+0x1066>
   26cd6:	49b6      	ldr	r1, [pc, #728]	@ (26fb0 <_start+0x131c>)
   26cd8:	4469      	add	r1, sp
   26cda:	78c8      	ldrb	r0, [r1, #3]
   26cdc:	aa10      	add	r2, sp, #64	@ 0x40
   26cde:	7090      	strb	r0, [r2, #2]
   26ce0:	7848      	ldrb	r0, [r1, #1]
   26ce2:	788b      	ldrb	r3, [r1, #2]
   26ce4:	021b      	lsls	r3, r3, #8
   26ce6:	1818      	adds	r0, r3, r0
   26ce8:	8010      	strh	r0, [r2, #0]
   26cea:	980c      	ldr	r0, [sp, #48]	@ 0x30
   26cec:	6e06      	ldr	r6, [r0, #96]	@ 0x60
   26cee:	3108      	adds	r1, #8
   26cf0:	48b0      	ldr	r0, [pc, #704]	@ (26fb4 <_start+0x1320>)
   26cf2:	4468      	add	r0, sp
   26cf4:	2249      	movs	r2, #73	@ 0x49
   26cf6:	f002 faa8 	bl	2924a <__aeabi_memcpy4>
   26cfa:	2c00      	cmp	r4, #0
   26cfc:	d001      	beq.n	26d02 <_start+0x106e>
   26cfe:	f7ff f9ea 	bl	260d6 <_start+0x442>
   26d02:	acf7      	add	r4, sp, #988	@ 0x3dc
   26d04:	70e6      	strb	r6, [r4, #3]
   26d06:	9810      	ldr	r0, [sp, #64]	@ 0x40
   26d08:	8020      	strh	r0, [r4, #0]
   26d0a:	0e30      	lsrs	r0, r6, #24
   26d0c:	71a0      	strb	r0, [r4, #6]
   26d0e:	0c30      	lsrs	r0, r6, #16
   26d10:	7160      	strb	r0, [r4, #5]
   26d12:	0a30      	lsrs	r0, r6, #8
   26d14:	7120      	strb	r0, [r4, #4]
   26d16:	a810      	add	r0, sp, #64	@ 0x40
   26d18:	7880      	ldrb	r0, [r0, #2]
   26d1a:	70a0      	strb	r0, [r4, #2]
   26d1c:	1de0      	adds	r0, r4, #7
   26d1e:	49a5      	ldr	r1, [pc, #660]	@ (26fb4 <_start+0x1320>)
   26d20:	4469      	add	r1, sp
   26d22:	2249      	movs	r2, #73	@ 0x49
   26d24:	f002 fbf1 	bl	2950a <__aeabi_memcpy>
   26d28:	4da1      	ldr	r5, [pc, #644]	@ (26fb0 <_start+0x131c>)
   26d2a:	446d      	add	r5, sp
   26d2c:	4628      	mov	r0, r5
   26d2e:	4621      	mov	r1, r4
   26d30:	f7fc fab2 	bl	23298 <_ZN20complex_full_dynamic3app17h9a3c731bc9810576E>
   26d34:	7828      	ldrb	r0, [r5, #0]
   26d36:	2801      	cmp	r0, #1
   26d38:	d103      	bne.n	26d42 <_start+0x10ae>
   26d3a:	990c      	ldr	r1, [sp, #48]	@ 0x30
   26d3c:	6e09      	ldr	r1, [r1, #96]	@ 0x60
   26d3e:	910b      	str	r1, [sp, #44]	@ 0x2c
   26d40:	e019      	b.n	26d76 <_start+0x10e2>
   26d42:	499b      	ldr	r1, [pc, #620]	@ (26fb0 <_start+0x131c>)
   26d44:	4469      	add	r1, sp
   26d46:	78ca      	ldrb	r2, [r1, #3]
   26d48:	ab10      	add	r3, sp, #64	@ 0x40
   26d4a:	709a      	strb	r2, [r3, #2]
   26d4c:	784a      	ldrb	r2, [r1, #1]
   26d4e:	788c      	ldrb	r4, [r1, #2]
   26d50:	0224      	lsls	r4, r4, #8
   26d52:	18a2      	adds	r2, r4, r2
   26d54:	801a      	strh	r2, [r3, #0]
   26d56:	3108      	adds	r1, #8
   26d58:	9a0c      	ldr	r2, [sp, #48]	@ 0x30
   26d5a:	6e12      	ldr	r2, [r2, #96]	@ 0x60
   26d5c:	920b      	str	r2, [sp, #44]	@ 0x2c
   26d5e:	4a95      	ldr	r2, [pc, #596]	@ (26fb4 <_start+0x1320>)
   26d60:	446a      	add	r2, sp
   26d62:	c938      	ldmia	r1!, {r3, r4, r5}
   26d64:	c238      	stmia	r2!, {r3, r4, r5}
   26d66:	c938      	ldmia	r1!, {r3, r4, r5}
   26d68:	c238      	stmia	r2!, {r3, r4, r5}
   26d6a:	c938      	ldmia	r1!, {r3, r4, r5}
   26d6c:	c238      	stmia	r2!, {r3, r4, r5}
   26d6e:	c978      	ldmia	r1!, {r3, r4, r5, r6}
   26d70:	c278      	stmia	r2!, {r3, r4, r5, r6}
   26d72:	7809      	ldrb	r1, [r1, #0]
   26d74:	7011      	strb	r1, [r2, #0]
   26d76:	2800      	cmp	r0, #0
   26d78:	d001      	beq.n	26d7e <_start+0x10ea>
   26d7a:	f7ff fb19 	bl	263b0 <_start+0x71c>
   26d7e:	acff      	add	r4, sp, #1020	@ 0x3fc
   26d80:	3430      	adds	r4, #48	@ 0x30
   26d82:	990b      	ldr	r1, [sp, #44]	@ 0x2c
   26d84:	70e1      	strb	r1, [r4, #3]
   26d86:	9810      	ldr	r0, [sp, #64]	@ 0x40
   26d88:	8020      	strh	r0, [r4, #0]
   26d8a:	0e08      	lsrs	r0, r1, #24
   26d8c:	71a0      	strb	r0, [r4, #6]
   26d8e:	0c08      	lsrs	r0, r1, #16
   26d90:	7160      	strb	r0, [r4, #5]
   26d92:	0a08      	lsrs	r0, r1, #8
   26d94:	7120      	strb	r0, [r4, #4]
   26d96:	a810      	add	r0, sp, #64	@ 0x40
   26d98:	7880      	ldrb	r0, [r0, #2]
   26d9a:	70a0      	strb	r0, [r4, #2]
   26d9c:	1de0      	adds	r0, r4, #7
   26d9e:	4985      	ldr	r1, [pc, #532]	@ (26fb4 <_start+0x1320>)
   26da0:	4469      	add	r1, sp
   26da2:	2235      	movs	r2, #53	@ 0x35
   26da4:	f002 fbb1 	bl	2950a <__aeabi_memcpy>
   26da8:	4d81      	ldr	r5, [pc, #516]	@ (26fb0 <_start+0x131c>)
   26daa:	446d      	add	r5, sp
   26dac:	4628      	mov	r0, r5
   26dae:	4621      	mov	r1, r4
   26db0:	f7fd fb34 	bl	2441c <_ZN20complex_full_dynamic3app17hc9b6bb7273a5a935E>
   26db4:	7828      	ldrb	r0, [r5, #0]
   26db6:	2801      	cmp	r0, #1
   26db8:	d103      	bne.n	26dc2 <_start+0x112e>
   26dba:	990c      	ldr	r1, [sp, #48]	@ 0x30
   26dbc:	6e09      	ldr	r1, [r1, #96]	@ 0x60
   26dbe:	910b      	str	r1, [sp, #44]	@ 0x2c
   26dc0:	e019      	b.n	26df6 <_start+0x1162>
   26dc2:	497b      	ldr	r1, [pc, #492]	@ (26fb0 <_start+0x131c>)
   26dc4:	4469      	add	r1, sp
   26dc6:	78ca      	ldrb	r2, [r1, #3]
   26dc8:	ab10      	add	r3, sp, #64	@ 0x40
   26dca:	709a      	strb	r2, [r3, #2]
   26dcc:	784a      	ldrb	r2, [r1, #1]
   26dce:	788c      	ldrb	r4, [r1, #2]
   26dd0:	0224      	lsls	r4, r4, #8
   26dd2:	18a2      	adds	r2, r4, r2
   26dd4:	801a      	strh	r2, [r3, #0]
   26dd6:	3108      	adds	r1, #8
   26dd8:	9a0c      	ldr	r2, [sp, #48]	@ 0x30
   26dda:	6e12      	ldr	r2, [r2, #96]	@ 0x60
   26ddc:	920b      	str	r2, [sp, #44]	@ 0x2c
   26dde:	4a75      	ldr	r2, [pc, #468]	@ (26fb4 <_start+0x1320>)
   26de0:	446a      	add	r2, sp
   26de2:	c938      	ldmia	r1!, {r3, r4, r5}
   26de4:	c238      	stmia	r2!, {r3, r4, r5}
   26de6:	c938      	ldmia	r1!, {r3, r4, r5}
   26de8:	c238      	stmia	r2!, {r3, r4, r5}
   26dea:	c978      	ldmia	r1!, {r3, r4, r5, r6}
   26dec:	c278      	stmia	r2!, {r3, r4, r5, r6}
   26dee:	880b      	ldrh	r3, [r1, #0]
   26df0:	8013      	strh	r3, [r2, #0]
   26df2:	7889      	ldrb	r1, [r1, #2]
   26df4:	7091      	strb	r1, [r2, #2]
   26df6:	2800      	cmp	r0, #0
   26df8:	d001      	beq.n	26dfe <_start+0x116a>
   26dfa:	f7ff fad9 	bl	263b0 <_start+0x71c>
   26dfe:	acff      	add	r4, sp, #1020	@ 0x3fc
   26e00:	346c      	adds	r4, #108	@ 0x6c
   26e02:	990b      	ldr	r1, [sp, #44]	@ 0x2c
   26e04:	70e1      	strb	r1, [r4, #3]
   26e06:	9810      	ldr	r0, [sp, #64]	@ 0x40
   26e08:	8020      	strh	r0, [r4, #0]
   26e0a:	0e08      	lsrs	r0, r1, #24
   26e0c:	71a0      	strb	r0, [r4, #6]
   26e0e:	0c08      	lsrs	r0, r1, #16
   26e10:	7160      	strb	r0, [r4, #5]
   26e12:	0a08      	lsrs	r0, r1, #8
   26e14:	7120      	strb	r0, [r4, #4]
   26e16:	a810      	add	r0, sp, #64	@ 0x40
   26e18:	7880      	ldrb	r0, [r0, #2]
   26e1a:	70a0      	strb	r0, [r4, #2]
   26e1c:	1de0      	adds	r0, r4, #7
   26e1e:	4965      	ldr	r1, [pc, #404]	@ (26fb4 <_start+0x1320>)
   26e20:	4469      	add	r1, sp
   26e22:	222b      	movs	r2, #43	@ 0x2b
   26e24:	f002 fb71 	bl	2950a <__aeabi_memcpy>
   26e28:	4d61      	ldr	r5, [pc, #388]	@ (26fb0 <_start+0x131c>)
   26e2a:	446d      	add	r5, sp
   26e2c:	4628      	mov	r0, r5
   26e2e:	4621      	mov	r1, r4
   26e30:	f7fb f87c 	bl	21f2c <_ZN20complex_full_dynamic3app17h64de56ca14389e5cE>
   26e34:	7828      	ldrb	r0, [r5, #0]
   26e36:	2801      	cmp	r0, #1
   26e38:	d103      	bne.n	26e42 <_start+0x11ae>
   26e3a:	990c      	ldr	r1, [sp, #48]	@ 0x30
   26e3c:	6e09      	ldr	r1, [r1, #96]	@ 0x60
   26e3e:	910b      	str	r1, [sp, #44]	@ 0x2c
   26e40:	e019      	b.n	26e76 <_start+0x11e2>
   26e42:	495b      	ldr	r1, [pc, #364]	@ (26fb0 <_start+0x131c>)
   26e44:	4469      	add	r1, sp
   26e46:	78ca      	ldrb	r2, [r1, #3]
   26e48:	ab10      	add	r3, sp, #64	@ 0x40
   26e4a:	709a      	strb	r2, [r3, #2]
   26e4c:	784a      	ldrb	r2, [r1, #1]
   26e4e:	788c      	ldrb	r4, [r1, #2]
   26e50:	0224      	lsls	r4, r4, #8
   26e52:	18a2      	adds	r2, r4, r2
   26e54:	801a      	strh	r2, [r3, #0]
   26e56:	3108      	adds	r1, #8
   26e58:	9a0c      	ldr	r2, [sp, #48]	@ 0x30
   26e5a:	6e12      	ldr	r2, [r2, #96]	@ 0x60
   26e5c:	920b      	str	r2, [sp, #44]	@ 0x2c
   26e5e:	4a55      	ldr	r2, [pc, #340]	@ (26fb4 <_start+0x1320>)
   26e60:	446a      	add	r2, sp
   26e62:	c938      	ldmia	r1!, {r3, r4, r5}
   26e64:	c238      	stmia	r2!, {r3, r4, r5}
   26e66:	c938      	ldmia	r1!, {r3, r4, r5}
   26e68:	c238      	stmia	r2!, {r3, r4, r5}
   26e6a:	c978      	ldmia	r1!, {r3, r4, r5, r6}
   26e6c:	c278      	stmia	r2!, {r3, r4, r5, r6}
   26e6e:	880b      	ldrh	r3, [r1, #0]
   26e70:	8013      	strh	r3, [r2, #0]
   26e72:	7889      	ldrb	r1, [r1, #2]
   26e74:	7091      	strb	r1, [r2, #2]
   26e76:	2800      	cmp	r0, #0
   26e78:	d001      	beq.n	26e7e <_start+0x11ea>
   26e7a:	f7ff fa99 	bl	263b0 <_start+0x71c>
   26e7e:	acff      	add	r4, sp, #1020	@ 0x3fc
   26e80:	34a0      	adds	r4, #160	@ 0xa0
   26e82:	990b      	ldr	r1, [sp, #44]	@ 0x2c
   26e84:	70e1      	strb	r1, [r4, #3]
   26e86:	9810      	ldr	r0, [sp, #64]	@ 0x40
   26e88:	8020      	strh	r0, [r4, #0]
   26e8a:	0e08      	lsrs	r0, r1, #24
   26e8c:	71a0      	strb	r0, [r4, #6]
   26e8e:	0c08      	lsrs	r0, r1, #16
   26e90:	7160      	strb	r0, [r4, #5]
   26e92:	0a08      	lsrs	r0, r1, #8
   26e94:	7120      	strb	r0, [r4, #4]
   26e96:	a810      	add	r0, sp, #64	@ 0x40
   26e98:	7880      	ldrb	r0, [r0, #2]
   26e9a:	70a0      	strb	r0, [r4, #2]
   26e9c:	1de0      	adds	r0, r4, #7
   26e9e:	4945      	ldr	r1, [pc, #276]	@ (26fb4 <_start+0x1320>)
   26ea0:	4469      	add	r1, sp
   26ea2:	222b      	movs	r2, #43	@ 0x2b
   26ea4:	f002 fb31 	bl	2950a <__aeabi_memcpy>
   26ea8:	4d41      	ldr	r5, [pc, #260]	@ (26fb0 <_start+0x131c>)
   26eaa:	446d      	add	r5, sp
   26eac:	4628      	mov	r0, r5
   26eae:	4621      	mov	r1, r4
   26eb0:	f7fa fd46 	bl	21940 <_ZN20complex_full_dynamic3app17h4d75a794567e51b8E>
   26eb4:	7828      	ldrb	r0, [r5, #0]
   26eb6:	2801      	cmp	r0, #1
   26eb8:	d102      	bne.n	26ec0 <_start+0x122c>
   26eba:	990c      	ldr	r1, [sp, #48]	@ 0x30
   26ebc:	6e0e      	ldr	r6, [r1, #96]	@ 0x60
   26ebe:	e012      	b.n	26ee6 <_start+0x1252>
   26ec0:	493c      	ldr	r1, [pc, #240]	@ (26fb4 <_start+0x1320>)
   26ec2:	4469      	add	r1, sp
   26ec4:	9c0c      	ldr	r4, [sp, #48]	@ 0x30
   26ec6:	6ee2      	ldr	r2, [r4, #108]	@ 0x6c
   26ec8:	720a      	strb	r2, [r1, #8]
   26eca:	4939      	ldr	r1, [pc, #228]	@ (26fb0 <_start+0x131c>)
   26ecc:	4469      	add	r1, sp
   26ece:	78ca      	ldrb	r2, [r1, #3]
   26ed0:	ab10      	add	r3, sp, #64	@ 0x40
   26ed2:	709a      	strb	r2, [r3, #2]
   26ed4:	784a      	ldrb	r2, [r1, #1]
   26ed6:	7889      	ldrb	r1, [r1, #2]
   26ed8:	0209      	lsls	r1, r1, #8
   26eda:	1889      	adds	r1, r1, r2
   26edc:	8019      	strh	r1, [r3, #0]
   26ede:	6e61      	ldr	r1, [r4, #100]	@ 0x64
   26ee0:	6ea2      	ldr	r2, [r4, #104]	@ 0x68
   26ee2:	c406      	stmia	r4!, {r1, r2}
   26ee4:	6da6      	ldr	r6, [r4, #88]	@ 0x58
   26ee6:	2800      	cmp	r0, #0
   26ee8:	d001      	beq.n	26eee <_start+0x125a>
   26eea:	f7ff f8f4 	bl	260d6 <_start+0x442>
   26eee:	acff      	add	r4, sp, #1020	@ 0x3fc
   26ef0:	34d4      	adds	r4, #212	@ 0xd4
   26ef2:	70e6      	strb	r6, [r4, #3]
   26ef4:	9810      	ldr	r0, [sp, #64]	@ 0x40
   26ef6:	8020      	strh	r0, [r4, #0]
   26ef8:	0e30      	lsrs	r0, r6, #24
   26efa:	71a0      	strb	r0, [r4, #6]
   26efc:	0c30      	lsrs	r0, r6, #16
   26efe:	7160      	strb	r0, [r4, #5]
   26f00:	0a30      	lsrs	r0, r6, #8
   26f02:	7120      	strb	r0, [r4, #4]
   26f04:	a810      	add	r0, sp, #64	@ 0x40
   26f06:	7880      	ldrb	r0, [r0, #2]
   26f08:	70a0      	strb	r0, [r4, #2]
   26f0a:	1de0      	adds	r0, r4, #7
   26f0c:	4929      	ldr	r1, [pc, #164]	@ (26fb4 <_start+0x1320>)
   26f0e:	4469      	add	r1, sp
   26f10:	2209      	movs	r2, #9
   26f12:	f002 fafa 	bl	2950a <__aeabi_memcpy>
   26f16:	4d26      	ldr	r5, [pc, #152]	@ (26fb0 <_start+0x131c>)
   26f18:	446d      	add	r5, sp
   26f1a:	4628      	mov	r0, r5
   26f1c:	4621      	mov	r1, r4
   26f1e:	f7fc fab5 	bl	2348c <_ZN20complex_full_dynamic3app17ha0efe12137258ef0E>
   26f22:	7828      	ldrb	r0, [r5, #0]
   26f24:	2801      	cmp	r0, #1
   26f26:	d103      	bne.n	26f30 <_start+0x129c>
   26f28:	990c      	ldr	r1, [sp, #48]	@ 0x30
   26f2a:	6e09      	ldr	r1, [r1, #96]	@ 0x60
   26f2c:	910b      	str	r1, [sp, #44]	@ 0x2c
   26f2e:	e019      	b.n	26f64 <_start+0x12d0>
   26f30:	491f      	ldr	r1, [pc, #124]	@ (26fb0 <_start+0x131c>)
   26f32:	4469      	add	r1, sp
   26f34:	78ca      	ldrb	r2, [r1, #3]
   26f36:	ab10      	add	r3, sp, #64	@ 0x40
   26f38:	709a      	strb	r2, [r3, #2]
   26f3a:	784a      	ldrb	r2, [r1, #1]
   26f3c:	788c      	ldrb	r4, [r1, #2]
   26f3e:	0224      	lsls	r4, r4, #8
   26f40:	18a2      	adds	r2, r4, r2
   26f42:	801a      	strh	r2, [r3, #0]
   26f44:	3108      	adds	r1, #8
   26f46:	9a0c      	ldr	r2, [sp, #48]	@ 0x30
   26f48:	6e12      	ldr	r2, [r2, #96]	@ 0x60
   26f4a:	920b      	str	r2, [sp, #44]	@ 0x2c
   26f4c:	4a19      	ldr	r2, [pc, #100]	@ (26fb4 <_start+0x1320>)
   26f4e:	446a      	add	r2, sp
   26f50:	c938      	ldmia	r1!, {r3, r4, r5}
   26f52:	c238      	stmia	r2!, {r3, r4, r5}
   26f54:	c978      	ldmia	r1!, {r3, r4, r5, r6}
   26f56:	c278      	stmia	r2!, {r3, r4, r5, r6}
   26f58:	c978      	ldmia	r1!, {r3, r4, r5, r6}
   26f5a:	c278      	stmia	r2!, {r3, r4, r5, r6}
   26f5c:	880b      	ldrh	r3, [r1, #0]
   26f5e:	8013      	strh	r3, [r2, #0]
   26f60:	7889      	ldrb	r1, [r1, #2]
   26f62:	7091      	strb	r1, [r2, #2]
   26f64:	2800      	cmp	r0, #0
   26f66:	d001      	beq.n	26f6c <_start+0x12d8>
   26f68:	f7ff fa22 	bl	263b0 <_start+0x71c>
   26f6c:	acff      	add	r4, sp, #1020	@ 0x3fc
   26f6e:	34e4      	adds	r4, #228	@ 0xe4
   26f70:	990b      	ldr	r1, [sp, #44]	@ 0x2c
   26f72:	70e1      	strb	r1, [r4, #3]
   26f74:	9810      	ldr	r0, [sp, #64]	@ 0x40
   26f76:	8020      	strh	r0, [r4, #0]
   26f78:	0e08      	lsrs	r0, r1, #24
   26f7a:	71a0      	strb	r0, [r4, #6]
   26f7c:	0c08      	lsrs	r0, r1, #16
   26f7e:	7160      	strb	r0, [r4, #5]
   26f80:	0a08      	lsrs	r0, r1, #8
   26f82:	7120      	strb	r0, [r4, #4]
   26f84:	a810      	add	r0, sp, #64	@ 0x40
   26f86:	7880      	ldrb	r0, [r0, #2]
   26f88:	70a0      	strb	r0, [r4, #2]
   26f8a:	1de0      	adds	r0, r4, #7
   26f8c:	4909      	ldr	r1, [pc, #36]	@ (26fb4 <_start+0x1320>)
   26f8e:	4469      	add	r1, sp
   26f90:	222f      	movs	r2, #47	@ 0x2f
   26f92:	f002 faba 	bl	2950a <__aeabi_memcpy>
   26f96:	4d06      	ldr	r5, [pc, #24]	@ (26fb0 <_start+0x131c>)
   26f98:	446d      	add	r5, sp
   26f9a:	4628      	mov	r0, r5
   26f9c:	4621      	mov	r1, r4
   26f9e:	f7fa f8e3 	bl	21168 <_ZN20complex_full_dynamic3app17h36889fc5801a7b60E>
   26fa2:	7829      	ldrb	r1, [r5, #0]
   26fa4:	2901      	cmp	r1, #1
   26fa6:	d107      	bne.n	26fb8 <_start+0x1324>
   26fa8:	980c      	ldr	r0, [sp, #48]	@ 0x30
   26faa:	6e06      	ldr	r6, [r0, #96]	@ 0x60
   26fac:	e013      	b.n	26fd6 <_start+0x1342>
   26fae:	46c0      	nop			@ (mov r8, r8)
   26fb0:	00001414 	.word	0x00001414
   26fb4:	000013b8 	.word	0x000013b8
   26fb8:	48e7      	ldr	r0, [pc, #924]	@ (27358 <_start+0x16c4>)
   26fba:	4468      	add	r0, sp
   26fbc:	78c2      	ldrb	r2, [r0, #3]
   26fbe:	4be7      	ldr	r3, [pc, #924]	@ (2735c <_start+0x16c8>)
   26fc0:	446b      	add	r3, sp
   26fc2:	709a      	strb	r2, [r3, #2]
   26fc4:	7842      	ldrb	r2, [r0, #1]
   26fc6:	7880      	ldrb	r0, [r0, #2]
   26fc8:	0200      	lsls	r0, r0, #8
   26fca:	1880      	adds	r0, r0, r2
   26fcc:	8018      	strh	r0, [r3, #0]
   26fce:	980c      	ldr	r0, [sp, #48]	@ 0x30
   26fd0:	6e06      	ldr	r6, [r0, #96]	@ 0x60
   26fd2:	6e42      	ldr	r2, [r0, #100]	@ 0x64
   26fd4:	6e80      	ldr	r0, [r0, #104]	@ 0x68
   26fd6:	2900      	cmp	r1, #0
   26fd8:	d001      	beq.n	26fde <_start+0x134a>
   26fda:	f7ff f87c 	bl	260d6 <_start+0x442>
   26fde:	9907      	ldr	r1, [sp, #28]
   26fe0:	1ccb      	adds	r3, r1, #3
   26fe2:	711a      	strb	r2, [r3, #4]
   26fe4:	701e      	strb	r6, [r3, #0]
   26fe6:	49de      	ldr	r1, [pc, #888]	@ (27360 <_start+0x16cc>)
   26fe8:	4469      	add	r1, sp
   26fea:	9c0c      	ldr	r4, [sp, #48]	@ 0x30
   26fec:	6824      	ldr	r4, [r4, #0]
   26fee:	800c      	strh	r4, [r1, #0]
   26ff0:	7218      	strb	r0, [r3, #8]
   26ff2:	0e14      	lsrs	r4, r2, #24
   26ff4:	71dc      	strb	r4, [r3, #7]
   26ff6:	0c14      	lsrs	r4, r2, #16
   26ff8:	719c      	strb	r4, [r3, #6]
   26ffa:	0a12      	lsrs	r2, r2, #8
   26ffc:	715a      	strb	r2, [r3, #5]
   26ffe:	0e32      	lsrs	r2, r6, #24
   27000:	70da      	strb	r2, [r3, #3]
   27002:	0c32      	lsrs	r2, r6, #16
   27004:	709a      	strb	r2, [r3, #2]
   27006:	0a32      	lsrs	r2, r6, #8
   27008:	705a      	strb	r2, [r3, #1]
   2700a:	4af6      	ldr	r2, [pc, #984]	@ (273e4 <_start+0x1750>)
   2700c:	446a      	add	r2, sp
   2700e:	7892      	ldrb	r2, [r2, #2]
   27010:	708a      	strb	r2, [r1, #2]
   27012:	0e02      	lsrs	r2, r0, #24
   27014:	72da      	strb	r2, [r3, #11]
   27016:	0c02      	lsrs	r2, r0, #16
   27018:	729a      	strb	r2, [r3, #10]
   2701a:	0a00      	lsrs	r0, r0, #8
   2701c:	7258      	strb	r0, [r3, #9]
   2701e:	4cf0      	ldr	r4, [pc, #960]	@ (273e0 <_start+0x174c>)
   27020:	446c      	add	r4, sp
   27022:	4620      	mov	r0, r4
   27024:	f7fe f958 	bl	252d8 <_ZN20complex_full_dynamic3app17he966086d89671d91E>
   27028:	7820      	ldrb	r0, [r4, #0]
   2702a:	2801      	cmp	r0, #1
   2702c:	d102      	bne.n	27034 <_start+0x13a0>
   2702e:	990c      	ldr	r1, [sp, #48]	@ 0x30
   27030:	6e0e      	ldr	r6, [r1, #96]	@ 0x60
   27032:	e00f      	b.n	27054 <_start+0x13c0>
   27034:	49ea      	ldr	r1, [pc, #936]	@ (273e0 <_start+0x174c>)
   27036:	4469      	add	r1, sp
   27038:	78ca      	ldrb	r2, [r1, #3]
   2703a:	ab10      	add	r3, sp, #64	@ 0x40
   2703c:	709a      	strb	r2, [r3, #2]
   2703e:	784a      	ldrb	r2, [r1, #1]
   27040:	7889      	ldrb	r1, [r1, #2]
   27042:	0209      	lsls	r1, r1, #8
   27044:	1889      	adds	r1, r1, r2
   27046:	8019      	strh	r1, [r3, #0]
   27048:	9c0c      	ldr	r4, [sp, #48]	@ 0x30
   2704a:	6e26      	ldr	r6, [r4, #96]	@ 0x60
   2704c:	4623      	mov	r3, r4
   2704e:	3364      	adds	r3, #100	@ 0x64
   27050:	cb0e      	ldmia	r3, {r1, r2, r3}
   27052:	c40e      	stmia	r4!, {r1, r2, r3}
   27054:	2800      	cmp	r0, #0
   27056:	d001      	beq.n	2705c <_start+0x13c8>
   27058:	f7ff f83d 	bl	260d6 <_start+0x442>
   2705c:	4ce2      	ldr	r4, [pc, #904]	@ (273e8 <_start+0x1754>)
   2705e:	446c      	add	r4, sp
   27060:	70e6      	strb	r6, [r4, #3]
   27062:	9810      	ldr	r0, [sp, #64]	@ 0x40
   27064:	8020      	strh	r0, [r4, #0]
   27066:	0e30      	lsrs	r0, r6, #24
   27068:	71a0      	strb	r0, [r4, #6]
   2706a:	0c30      	lsrs	r0, r6, #16
   2706c:	7160      	strb	r0, [r4, #5]
   2706e:	0a30      	lsrs	r0, r6, #8
   27070:	7120      	strb	r0, [r4, #4]
   27072:	a810      	add	r0, sp, #64	@ 0x40
   27074:	7880      	ldrb	r0, [r0, #2]
   27076:	70a0      	strb	r0, [r4, #2]
   27078:	1de0      	adds	r0, r4, #7
   2707a:	49da      	ldr	r1, [pc, #872]	@ (273e4 <_start+0x1750>)
   2707c:	4469      	add	r1, sp
   2707e:	220c      	movs	r2, #12
   27080:	f002 fa43 	bl	2950a <__aeabi_memcpy>
   27084:	4dd6      	ldr	r5, [pc, #856]	@ (273e0 <_start+0x174c>)
   27086:	446d      	add	r5, sp
   27088:	4628      	mov	r0, r5
   2708a:	4621      	mov	r1, r4
   2708c:	f7fb f9c0 	bl	22410 <_ZN20complex_full_dynamic3app17h70b02451f2d702a5E>
   27090:	782c      	ldrb	r4, [r5, #0]
   27092:	2c01      	cmp	r4, #1
   27094:	d102      	bne.n	2709c <_start+0x1408>
   27096:	980c      	ldr	r0, [sp, #48]	@ 0x30
   27098:	6e06      	ldr	r6, [r0, #96]	@ 0x60
   2709a:	e011      	b.n	270c0 <_start+0x142c>
   2709c:	49d0      	ldr	r1, [pc, #832]	@ (273e0 <_start+0x174c>)
   2709e:	4469      	add	r1, sp
   270a0:	78c8      	ldrb	r0, [r1, #3]
   270a2:	aa10      	add	r2, sp, #64	@ 0x40
   270a4:	7090      	strb	r0, [r2, #2]
   270a6:	7848      	ldrb	r0, [r1, #1]
   270a8:	788b      	ldrb	r3, [r1, #2]
   270aa:	021b      	lsls	r3, r3, #8
   270ac:	1818      	adds	r0, r3, r0
   270ae:	8010      	strh	r0, [r2, #0]
   270b0:	980c      	ldr	r0, [sp, #48]	@ 0x30
   270b2:	6e06      	ldr	r6, [r0, #96]	@ 0x60
   270b4:	3108      	adds	r1, #8
   270b6:	48cb      	ldr	r0, [pc, #812]	@ (273e4 <_start+0x1750>)
   270b8:	4468      	add	r0, sp
   270ba:	224e      	movs	r2, #78	@ 0x4e
   270bc:	f002 f8c5 	bl	2924a <__aeabi_memcpy4>
   270c0:	2c00      	cmp	r4, #0
   270c2:	d001      	beq.n	270c8 <_start+0x1434>
   270c4:	f7ff f807 	bl	260d6 <_start+0x442>
   270c8:	4cc8      	ldr	r4, [pc, #800]	@ (273ec <_start+0x1758>)
   270ca:	446c      	add	r4, sp
   270cc:	70e6      	strb	r6, [r4, #3]
   270ce:	9810      	ldr	r0, [sp, #64]	@ 0x40
   270d0:	8020      	strh	r0, [r4, #0]
   270d2:	0e30      	lsrs	r0, r6, #24
   270d4:	71a0      	strb	r0, [r4, #6]
   270d6:	0c30      	lsrs	r0, r6, #16
   270d8:	7160      	strb	r0, [r4, #5]
   270da:	0a30      	lsrs	r0, r6, #8
   270dc:	7120      	strb	r0, [r4, #4]
   270de:	a810      	add	r0, sp, #64	@ 0x40
   270e0:	7880      	ldrb	r0, [r0, #2]
   270e2:	70a0      	strb	r0, [r4, #2]
   270e4:	1de0      	adds	r0, r4, #7
   270e6:	49bf      	ldr	r1, [pc, #764]	@ (273e4 <_start+0x1750>)
   270e8:	4469      	add	r1, sp
   270ea:	224e      	movs	r2, #78	@ 0x4e
   270ec:	f002 fa0d 	bl	2950a <__aeabi_memcpy>
   270f0:	4dbb      	ldr	r5, [pc, #748]	@ (273e0 <_start+0x174c>)
   270f2:	446d      	add	r5, sp
   270f4:	4628      	mov	r0, r5
   270f6:	4621      	mov	r1, r4
   270f8:	f7f9 febe 	bl	20e78 <_ZN20complex_full_dynamic3app17h2eedfe6a351ff722E>
   270fc:	7828      	ldrb	r0, [r5, #0]
   270fe:	2801      	cmp	r0, #1
   27100:	d103      	bne.n	2710a <_start+0x1476>
   27102:	990c      	ldr	r1, [sp, #48]	@ 0x30
   27104:	6e09      	ldr	r1, [r1, #96]	@ 0x60
   27106:	910b      	str	r1, [sp, #44]	@ 0x2c
   27108:	e019      	b.n	2713e <_start+0x14aa>
   2710a:	49b5      	ldr	r1, [pc, #724]	@ (273e0 <_start+0x174c>)
   2710c:	4469      	add	r1, sp
   2710e:	78ca      	ldrb	r2, [r1, #3]
   27110:	ab10      	add	r3, sp, #64	@ 0x40
   27112:	709a      	strb	r2, [r3, #2]
   27114:	784a      	ldrb	r2, [r1, #1]
   27116:	788c      	ldrb	r4, [r1, #2]
   27118:	0224      	lsls	r4, r4, #8
   2711a:	18a2      	adds	r2, r4, r2
   2711c:	801a      	strh	r2, [r3, #0]
   2711e:	3108      	adds	r1, #8
   27120:	9a0c      	ldr	r2, [sp, #48]	@ 0x30
   27122:	6e12      	ldr	r2, [r2, #96]	@ 0x60
   27124:	920b      	str	r2, [sp, #44]	@ 0x2c
   27126:	4aaf      	ldr	r2, [pc, #700]	@ (273e4 <_start+0x1750>)
   27128:	446a      	add	r2, sp
   2712a:	c938      	ldmia	r1!, {r3, r4, r5}
   2712c:	c238      	stmia	r2!, {r3, r4, r5}
   2712e:	c938      	ldmia	r1!, {r3, r4, r5}
   27130:	c238      	stmia	r2!, {r3, r4, r5}
   27132:	c978      	ldmia	r1!, {r3, r4, r5, r6}
   27134:	c278      	stmia	r2!, {r3, r4, r5, r6}
   27136:	880b      	ldrh	r3, [r1, #0]
   27138:	8013      	strh	r3, [r2, #0]
   2713a:	7889      	ldrb	r1, [r1, #2]
   2713c:	7091      	strb	r1, [r2, #2]
   2713e:	2800      	cmp	r0, #0
   27140:	d001      	beq.n	27146 <_start+0x14b2>
   27142:	f7ff f935 	bl	263b0 <_start+0x71c>
   27146:	4caa      	ldr	r4, [pc, #680]	@ (273f0 <_start+0x175c>)
   27148:	446c      	add	r4, sp
   2714a:	990b      	ldr	r1, [sp, #44]	@ 0x2c
   2714c:	70e1      	strb	r1, [r4, #3]
   2714e:	9810      	ldr	r0, [sp, #64]	@ 0x40
   27150:	8020      	strh	r0, [r4, #0]
   27152:	0e08      	lsrs	r0, r1, #24
   27154:	71a0      	strb	r0, [r4, #6]
   27156:	0c08      	lsrs	r0, r1, #16
   27158:	7160      	strb	r0, [r4, #5]
   2715a:	0a08      	lsrs	r0, r1, #8
   2715c:	7120      	strb	r0, [r4, #4]
   2715e:	a810      	add	r0, sp, #64	@ 0x40
   27160:	7880      	ldrb	r0, [r0, #2]
   27162:	70a0      	strb	r0, [r4, #2]
   27164:	1de0      	adds	r0, r4, #7
   27166:	499f      	ldr	r1, [pc, #636]	@ (273e4 <_start+0x1750>)
   27168:	4469      	add	r1, sp
   2716a:	222b      	movs	r2, #43	@ 0x2b
   2716c:	f002 f9cd 	bl	2950a <__aeabi_memcpy>
   27170:	4d9b      	ldr	r5, [pc, #620]	@ (273e0 <_start+0x174c>)
   27172:	446d      	add	r5, sp
   27174:	4628      	mov	r0, r5
   27176:	4621      	mov	r1, r4
   27178:	f7fb f9c6 	bl	22508 <_ZN20complex_full_dynamic3app17h73570e3b180b4a4eE>
   2717c:	7828      	ldrb	r0, [r5, #0]
   2717e:	2801      	cmp	r0, #1
   27180:	d103      	bne.n	2718a <_start+0x14f6>
   27182:	990c      	ldr	r1, [sp, #48]	@ 0x30
   27184:	6e09      	ldr	r1, [r1, #96]	@ 0x60
   27186:	910b      	str	r1, [sp, #44]	@ 0x2c
   27188:	e019      	b.n	271be <_start+0x152a>
   2718a:	4995      	ldr	r1, [pc, #596]	@ (273e0 <_start+0x174c>)
   2718c:	4469      	add	r1, sp
   2718e:	78ca      	ldrb	r2, [r1, #3]
   27190:	ab10      	add	r3, sp, #64	@ 0x40
   27192:	709a      	strb	r2, [r3, #2]
   27194:	784a      	ldrb	r2, [r1, #1]
   27196:	788c      	ldrb	r4, [r1, #2]
   27198:	0224      	lsls	r4, r4, #8
   2719a:	18a2      	adds	r2, r4, r2
   2719c:	801a      	strh	r2, [r3, #0]
   2719e:	3108      	adds	r1, #8
   271a0:	9a0c      	ldr	r2, [sp, #48]	@ 0x30
   271a2:	6e12      	ldr	r2, [r2, #96]	@ 0x60
   271a4:	920b      	str	r2, [sp, #44]	@ 0x2c
   271a6:	4a8f      	ldr	r2, [pc, #572]	@ (273e4 <_start+0x1750>)
   271a8:	446a      	add	r2, sp
   271aa:	c938      	ldmia	r1!, {r3, r4, r5}
   271ac:	c238      	stmia	r2!, {r3, r4, r5}
   271ae:	c978      	ldmia	r1!, {r3, r4, r5, r6}
   271b0:	c278      	stmia	r2!, {r3, r4, r5, r6}
   271b2:	c938      	ldmia	r1!, {r3, r4, r5}
   271b4:	c238      	stmia	r2!, {r3, r4, r5}
   271b6:	c978      	ldmia	r1!, {r3, r4, r5, r6}
   271b8:	c278      	stmia	r2!, {r3, r4, r5, r6}
   271ba:	8809      	ldrh	r1, [r1, #0]
   271bc:	8011      	strh	r1, [r2, #0]
   271be:	2800      	cmp	r0, #0
   271c0:	d001      	beq.n	271c6 <_start+0x1532>
   271c2:	f7ff f8f5 	bl	263b0 <_start+0x71c>
   271c6:	4c8b      	ldr	r4, [pc, #556]	@ (273f4 <_start+0x1760>)
   271c8:	446c      	add	r4, sp
   271ca:	990b      	ldr	r1, [sp, #44]	@ 0x2c
   271cc:	70e1      	strb	r1, [r4, #3]
   271ce:	9810      	ldr	r0, [sp, #64]	@ 0x40
   271d0:	8020      	strh	r0, [r4, #0]
   271d2:	0e08      	lsrs	r0, r1, #24
   271d4:	71a0      	strb	r0, [r4, #6]
   271d6:	0c08      	lsrs	r0, r1, #16
   271d8:	7160      	strb	r0, [r4, #5]
   271da:	0a08      	lsrs	r0, r1, #8
   271dc:	7120      	strb	r0, [r4, #4]
   271de:	a810      	add	r0, sp, #64	@ 0x40
   271e0:	7880      	ldrb	r0, [r0, #2]
   271e2:	70a0      	strb	r0, [r4, #2]
   271e4:	1de0      	adds	r0, r4, #7
   271e6:	497f      	ldr	r1, [pc, #508]	@ (273e4 <_start+0x1750>)
   271e8:	4469      	add	r1, sp
   271ea:	223a      	movs	r2, #58	@ 0x3a
   271ec:	f002 f98d 	bl	2950a <__aeabi_memcpy>
   271f0:	4d7b      	ldr	r5, [pc, #492]	@ (273e0 <_start+0x174c>)
   271f2:	446d      	add	r5, sp
   271f4:	4628      	mov	r0, r5
   271f6:	4621      	mov	r1, r4
   271f8:	f7fd f892 	bl	24320 <_ZN20complex_full_dynamic3app17hc77bad31d55b54a5E>
   271fc:	7828      	ldrb	r0, [r5, #0]
   271fe:	2801      	cmp	r0, #1
   27200:	d102      	bne.n	27208 <_start+0x1574>
   27202:	990c      	ldr	r1, [sp, #48]	@ 0x30
   27204:	6e0e      	ldr	r6, [r1, #96]	@ 0x60
   27206:	e016      	b.n	27236 <_start+0x15a2>
   27208:	4975      	ldr	r1, [pc, #468]	@ (273e0 <_start+0x174c>)
   2720a:	4469      	add	r1, sp
   2720c:	78ca      	ldrb	r2, [r1, #3]
   2720e:	ab10      	add	r3, sp, #64	@ 0x40
   27210:	709a      	strb	r2, [r3, #2]
   27212:	784a      	ldrb	r2, [r1, #1]
   27214:	788c      	ldrb	r4, [r1, #2]
   27216:	0224      	lsls	r4, r4, #8
   27218:	18a2      	adds	r2, r4, r2
   2721a:	801a      	strh	r2, [r3, #0]
   2721c:	3108      	adds	r1, #8
   2721e:	9a0c      	ldr	r2, [sp, #48]	@ 0x30
   27220:	6e16      	ldr	r6, [r2, #96]	@ 0x60
   27222:	4a70      	ldr	r2, [pc, #448]	@ (273e4 <_start+0x1750>)
   27224:	446a      	add	r2, sp
   27226:	c938      	ldmia	r1!, {r3, r4, r5}
   27228:	c238      	stmia	r2!, {r3, r4, r5}
   2722a:	c938      	ldmia	r1!, {r3, r4, r5}
   2722c:	c238      	stmia	r2!, {r3, r4, r5}
   2722e:	880b      	ldrh	r3, [r1, #0]
   27230:	8013      	strh	r3, [r2, #0]
   27232:	7889      	ldrb	r1, [r1, #2]
   27234:	7091      	strb	r1, [r2, #2]
   27236:	2800      	cmp	r0, #0
   27238:	d001      	beq.n	2723e <_start+0x15aa>
   2723a:	f7fe ff4c 	bl	260d6 <_start+0x442>
   2723e:	4c6e      	ldr	r4, [pc, #440]	@ (273f8 <_start+0x1764>)
   27240:	446c      	add	r4, sp
   27242:	70e6      	strb	r6, [r4, #3]
   27244:	9810      	ldr	r0, [sp, #64]	@ 0x40
   27246:	8020      	strh	r0, [r4, #0]
   27248:	0e30      	lsrs	r0, r6, #24
   2724a:	71a0      	strb	r0, [r4, #6]
   2724c:	0c30      	lsrs	r0, r6, #16
   2724e:	7160      	strb	r0, [r4, #5]
   27250:	0a30      	lsrs	r0, r6, #8
   27252:	7120      	strb	r0, [r4, #4]
   27254:	a810      	add	r0, sp, #64	@ 0x40
   27256:	7880      	ldrb	r0, [r0, #2]
   27258:	70a0      	strb	r0, [r4, #2]
   2725a:	1de0      	adds	r0, r4, #7
   2725c:	4961      	ldr	r1, [pc, #388]	@ (273e4 <_start+0x1750>)
   2725e:	4469      	add	r1, sp
   27260:	221b      	movs	r2, #27
   27262:	f002 f952 	bl	2950a <__aeabi_memcpy>
   27266:	4d5e      	ldr	r5, [pc, #376]	@ (273e0 <_start+0x174c>)
   27268:	446d      	add	r5, sp
   2726a:	4628      	mov	r0, r5
   2726c:	4621      	mov	r1, r4
   2726e:	f7fd fb3f 	bl	248f0 <_ZN20complex_full_dynamic3app17hd8d172c5d99e9fa9E>
   27272:	782c      	ldrb	r4, [r5, #0]
   27274:	2c01      	cmp	r4, #1
   27276:	d102      	bne.n	2727e <_start+0x15ea>
   27278:	980c      	ldr	r0, [sp, #48]	@ 0x30
   2727a:	6e06      	ldr	r6, [r0, #96]	@ 0x60
   2727c:	e011      	b.n	272a2 <_start+0x160e>
   2727e:	4958      	ldr	r1, [pc, #352]	@ (273e0 <_start+0x174c>)
   27280:	4469      	add	r1, sp
   27282:	78c8      	ldrb	r0, [r1, #3]
   27284:	aa10      	add	r2, sp, #64	@ 0x40
   27286:	7090      	strb	r0, [r2, #2]
   27288:	7848      	ldrb	r0, [r1, #1]
   2728a:	788b      	ldrb	r3, [r1, #2]
   2728c:	021b      	lsls	r3, r3, #8
   2728e:	1818      	adds	r0, r3, r0
   27290:	8010      	strh	r0, [r2, #0]
   27292:	980c      	ldr	r0, [sp, #48]	@ 0x30
   27294:	6e06      	ldr	r6, [r0, #96]	@ 0x60
   27296:	3108      	adds	r1, #8
   27298:	4852      	ldr	r0, [pc, #328]	@ (273e4 <_start+0x1750>)
   2729a:	4468      	add	r0, sp
   2729c:	224a      	movs	r2, #74	@ 0x4a
   2729e:	f001 ffd4 	bl	2924a <__aeabi_memcpy4>
   272a2:	2c00      	cmp	r4, #0
   272a4:	d001      	beq.n	272aa <_start+0x1616>
   272a6:	f7fe ff16 	bl	260d6 <_start+0x442>
   272aa:	4c54      	ldr	r4, [pc, #336]	@ (273fc <_start+0x1768>)
   272ac:	446c      	add	r4, sp
   272ae:	70e6      	strb	r6, [r4, #3]
   272b0:	9810      	ldr	r0, [sp, #64]	@ 0x40
   272b2:	8020      	strh	r0, [r4, #0]
   272b4:	0e30      	lsrs	r0, r6, #24
   272b6:	71a0      	strb	r0, [r4, #6]
   272b8:	0c30      	lsrs	r0, r6, #16
   272ba:	7160      	strb	r0, [r4, #5]
   272bc:	0a30      	lsrs	r0, r6, #8
   272be:	7120      	strb	r0, [r4, #4]
   272c0:	a810      	add	r0, sp, #64	@ 0x40
   272c2:	7880      	ldrb	r0, [r0, #2]
   272c4:	70a0      	strb	r0, [r4, #2]
   272c6:	1de0      	adds	r0, r4, #7
   272c8:	4946      	ldr	r1, [pc, #280]	@ (273e4 <_start+0x1750>)
   272ca:	4469      	add	r1, sp
   272cc:	224a      	movs	r2, #74	@ 0x4a
   272ce:	f002 f91c 	bl	2950a <__aeabi_memcpy>
   272d2:	4d43      	ldr	r5, [pc, #268]	@ (273e0 <_start+0x174c>)
   272d4:	446d      	add	r5, sp
   272d6:	4628      	mov	r0, r5
   272d8:	4621      	mov	r1, r4
   272da:	f7fc f957 	bl	2358c <_ZN20complex_full_dynamic3app17ha2a236c33c990a85E>
   272de:	782c      	ldrb	r4, [r5, #0]
   272e0:	2c01      	cmp	r4, #1
   272e2:	d102      	bne.n	272ea <_start+0x1656>
   272e4:	980c      	ldr	r0, [sp, #48]	@ 0x30
   272e6:	6e06      	ldr	r6, [r0, #96]	@ 0x60
   272e8:	e011      	b.n	2730e <_start+0x167a>
   272ea:	493d      	ldr	r1, [pc, #244]	@ (273e0 <_start+0x174c>)
   272ec:	4469      	add	r1, sp
   272ee:	78c8      	ldrb	r0, [r1, #3]
   272f0:	aa10      	add	r2, sp, #64	@ 0x40
   272f2:	7090      	strb	r0, [r2, #2]
   272f4:	7848      	ldrb	r0, [r1, #1]
   272f6:	788b      	ldrb	r3, [r1, #2]
   272f8:	021b      	lsls	r3, r3, #8
   272fa:	1818      	adds	r0, r3, r0
   272fc:	8010      	strh	r0, [r2, #0]
   272fe:	980c      	ldr	r0, [sp, #48]	@ 0x30
   27300:	6e06      	ldr	r6, [r0, #96]	@ 0x60
   27302:	3108      	adds	r1, #8
   27304:	4837      	ldr	r0, [pc, #220]	@ (273e4 <_start+0x1750>)
   27306:	4468      	add	r0, sp
   27308:	2248      	movs	r2, #72	@ 0x48
   2730a:	f001 ff9e 	bl	2924a <__aeabi_memcpy4>
   2730e:	2c00      	cmp	r4, #0
   27310:	d001      	beq.n	27316 <_start+0x1682>
   27312:	f7fe fee0 	bl	260d6 <_start+0x442>
   27316:	4c3a      	ldr	r4, [pc, #232]	@ (27400 <_start+0x176c>)
   27318:	446c      	add	r4, sp
   2731a:	70e6      	strb	r6, [r4, #3]
   2731c:	9810      	ldr	r0, [sp, #64]	@ 0x40
   2731e:	8020      	strh	r0, [r4, #0]
   27320:	0e30      	lsrs	r0, r6, #24
   27322:	71a0      	strb	r0, [r4, #6]
   27324:	0c30      	lsrs	r0, r6, #16
   27326:	7160      	strb	r0, [r4, #5]
   27328:	0a30      	lsrs	r0, r6, #8
   2732a:	7120      	strb	r0, [r4, #4]
   2732c:	a810      	add	r0, sp, #64	@ 0x40
   2732e:	7880      	ldrb	r0, [r0, #2]
   27330:	70a0      	strb	r0, [r4, #2]
   27332:	1de0      	adds	r0, r4, #7
   27334:	492b      	ldr	r1, [pc, #172]	@ (273e4 <_start+0x1750>)
   27336:	4469      	add	r1, sp
   27338:	2248      	movs	r2, #72	@ 0x48
   2733a:	f002 f8e6 	bl	2950a <__aeabi_memcpy>
   2733e:	4d28      	ldr	r5, [pc, #160]	@ (273e0 <_start+0x174c>)
   27340:	446d      	add	r5, sp
   27342:	4628      	mov	r0, r5
   27344:	4621      	mov	r1, r4
   27346:	f7fe f9b7 	bl	256b8 <_ZN20complex_full_dynamic3app17hf4f05b0f3f7b6df0E>
   2734a:	7828      	ldrb	r0, [r5, #0]
   2734c:	2801      	cmp	r0, #1
   2734e:	d109      	bne.n	27364 <_start+0x16d0>
   27350:	990c      	ldr	r1, [sp, #48]	@ 0x30
   27352:	6e09      	ldr	r1, [r1, #96]	@ 0x60
   27354:	910b      	str	r1, [sp, #44]	@ 0x2c
   27356:	e01d      	b.n	27394 <_start+0x1700>
   27358:	00001414 	.word	0x00001414
   2735c:	000013b8 	.word	0x000013b8
   27360:	00000518 	.word	0x00000518
   27364:	491e      	ldr	r1, [pc, #120]	@ (273e0 <_start+0x174c>)
   27366:	4469      	add	r1, sp
   27368:	78ca      	ldrb	r2, [r1, #3]
   2736a:	ab10      	add	r3, sp, #64	@ 0x40
   2736c:	709a      	strb	r2, [r3, #2]
   2736e:	784a      	ldrb	r2, [r1, #1]
   27370:	788c      	ldrb	r4, [r1, #2]
   27372:	0224      	lsls	r4, r4, #8
   27374:	18a2      	adds	r2, r4, r2
   27376:	801a      	strh	r2, [r3, #0]
   27378:	3108      	adds	r1, #8
   2737a:	9a0c      	ldr	r2, [sp, #48]	@ 0x30
   2737c:	6e12      	ldr	r2, [r2, #96]	@ 0x60
   2737e:	920b      	str	r2, [sp, #44]	@ 0x2c
   27380:	4a18      	ldr	r2, [pc, #96]	@ (273e4 <_start+0x1750>)
   27382:	446a      	add	r2, sp
   27384:	c938      	ldmia	r1!, {r3, r4, r5}
   27386:	c238      	stmia	r2!, {r3, r4, r5}
   27388:	c938      	ldmia	r1!, {r3, r4, r5}
   2738a:	c238      	stmia	r2!, {r3, r4, r5}
   2738c:	c938      	ldmia	r1!, {r3, r4, r5}
   2738e:	c238      	stmia	r2!, {r3, r4, r5}
   27390:	c978      	ldmia	r1!, {r3, r4, r5, r6}
   27392:	c278      	stmia	r2!, {r3, r4, r5, r6}
   27394:	2800      	cmp	r0, #0
   27396:	d001      	beq.n	2739c <_start+0x1708>
   27398:	f7ff f80a 	bl	263b0 <_start+0x71c>
   2739c:	4c19      	ldr	r4, [pc, #100]	@ (27404 <_start+0x1770>)
   2739e:	446c      	add	r4, sp
   273a0:	990b      	ldr	r1, [sp, #44]	@ 0x2c
   273a2:	70e1      	strb	r1, [r4, #3]
   273a4:	9810      	ldr	r0, [sp, #64]	@ 0x40
   273a6:	8020      	strh	r0, [r4, #0]
   273a8:	0e08      	lsrs	r0, r1, #24
   273aa:	71a0      	strb	r0, [r4, #6]
   273ac:	0c08      	lsrs	r0, r1, #16
   273ae:	7160      	strb	r0, [r4, #5]
   273b0:	0a08      	lsrs	r0, r1, #8
   273b2:	7120      	strb	r0, [r4, #4]
   273b4:	a810      	add	r0, sp, #64	@ 0x40
   273b6:	7880      	ldrb	r0, [r0, #2]
   273b8:	70a0      	strb	r0, [r4, #2]
   273ba:	1de0      	adds	r0, r4, #7
   273bc:	4909      	ldr	r1, [pc, #36]	@ (273e4 <_start+0x1750>)
   273be:	4469      	add	r1, sp
   273c0:	2234      	movs	r2, #52	@ 0x34
   273c2:	f002 f8a2 	bl	2950a <__aeabi_memcpy>
   273c6:	4d06      	ldr	r5, [pc, #24]	@ (273e0 <_start+0x174c>)
   273c8:	446d      	add	r5, sp
   273ca:	4628      	mov	r0, r5
   273cc:	4621      	mov	r1, r4
   273ce:	f7fa fea7 	bl	22120 <_ZN20complex_full_dynamic3app17h664dc4f933b3d461E>
   273d2:	7828      	ldrb	r0, [r5, #0]
   273d4:	2801      	cmp	r0, #1
   273d6:	d117      	bne.n	27408 <_start+0x1774>
   273d8:	990c      	ldr	r1, [sp, #48]	@ 0x30
   273da:	6e09      	ldr	r1, [r1, #96]	@ 0x60
   273dc:	910b      	str	r1, [sp, #44]	@ 0x2c
   273de:	e027      	b.n	27430 <_start+0x179c>
   273e0:	00001414 	.word	0x00001414
   273e4:	000013b8 	.word	0x000013b8
   273e8:	00000528 	.word	0x00000528
   273ec:	0000053c 	.word	0x0000053c
   273f0:	00000594 	.word	0x00000594
   273f4:	000005c8 	.word	0x000005c8
   273f8:	0000060c 	.word	0x0000060c
   273fc:	00000630 	.word	0x00000630
   27400:	00000684 	.word	0x00000684
   27404:	000006d4 	.word	0x000006d4
   27408:	49e8      	ldr	r1, [pc, #928]	@ (277ac <_start+0x1b18>)
   2740a:	4469      	add	r1, sp
   2740c:	78ca      	ldrb	r2, [r1, #3]
   2740e:	ab10      	add	r3, sp, #64	@ 0x40
   27410:	709a      	strb	r2, [r3, #2]
   27412:	784a      	ldrb	r2, [r1, #1]
   27414:	788c      	ldrb	r4, [r1, #2]
   27416:	0224      	lsls	r4, r4, #8
   27418:	18a2      	adds	r2, r4, r2
   2741a:	801a      	strh	r2, [r3, #0]
   2741c:	3108      	adds	r1, #8
   2741e:	9a0c      	ldr	r2, [sp, #48]	@ 0x30
   27420:	6e12      	ldr	r2, [r2, #96]	@ 0x60
   27422:	920b      	str	r2, [sp, #44]	@ 0x2c
   27424:	4ae2      	ldr	r2, [pc, #904]	@ (277b0 <_start+0x1b1c>)
   27426:	446a      	add	r2, sp
   27428:	c978      	ldmia	r1!, {r3, r4, r5, r6}
   2742a:	c278      	stmia	r2!, {r3, r4, r5, r6}
   2742c:	c978      	ldmia	r1!, {r3, r4, r5, r6}
   2742e:	c278      	stmia	r2!, {r3, r4, r5, r6}
   27430:	2800      	cmp	r0, #0
   27432:	d001      	beq.n	27438 <_start+0x17a4>
   27434:	f7fe ffbc 	bl	263b0 <_start+0x71c>
   27438:	4cfc      	ldr	r4, [pc, #1008]	@ (2782c <_start+0x1b98>)
   2743a:	446c      	add	r4, sp
   2743c:	990b      	ldr	r1, [sp, #44]	@ 0x2c
   2743e:	70e1      	strb	r1, [r4, #3]
   27440:	9810      	ldr	r0, [sp, #64]	@ 0x40
   27442:	8020      	strh	r0, [r4, #0]
   27444:	0e08      	lsrs	r0, r1, #24
   27446:	71a0      	strb	r0, [r4, #6]
   27448:	0c08      	lsrs	r0, r1, #16
   2744a:	7160      	strb	r0, [r4, #5]
   2744c:	0a08      	lsrs	r0, r1, #8
   2744e:	7120      	strb	r0, [r4, #4]
   27450:	a810      	add	r0, sp, #64	@ 0x40
   27452:	7880      	ldrb	r0, [r0, #2]
   27454:	70a0      	strb	r0, [r4, #2]
   27456:	1de0      	adds	r0, r4, #7
   27458:	49f3      	ldr	r1, [pc, #972]	@ (27828 <_start+0x1b94>)
   2745a:	4469      	add	r1, sp
   2745c:	2220      	movs	r2, #32
   2745e:	f002 f854 	bl	2950a <__aeabi_memcpy>
   27462:	4df0      	ldr	r5, [pc, #960]	@ (27824 <_start+0x1b90>)
   27464:	446d      	add	r5, sp
   27466:	4628      	mov	r0, r5
   27468:	4621      	mov	r1, r4
   2746a:	f7f9 f8a1 	bl	205b0 <_ZN20complex_full_dynamic3app17h145a70d97e7109bbE>
   2746e:	7828      	ldrb	r0, [r5, #0]
   27470:	2801      	cmp	r0, #1
   27472:	d102      	bne.n	2747a <_start+0x17e6>
   27474:	990c      	ldr	r1, [sp, #48]	@ 0x30
   27476:	6e0e      	ldr	r6, [r1, #96]	@ 0x60
   27478:	e013      	b.n	274a2 <_start+0x180e>
   2747a:	49eb      	ldr	r1, [pc, #940]	@ (27828 <_start+0x1b94>)
   2747c:	4469      	add	r1, sp
   2747e:	9c0c      	ldr	r4, [sp, #48]	@ 0x30
   27480:	6f22      	ldr	r2, [r4, #112]	@ 0x70
   27482:	730a      	strb	r2, [r1, #12]
   27484:	49e7      	ldr	r1, [pc, #924]	@ (27824 <_start+0x1b90>)
   27486:	4469      	add	r1, sp
   27488:	78ca      	ldrb	r2, [r1, #3]
   2748a:	ab10      	add	r3, sp, #64	@ 0x40
   2748c:	709a      	strb	r2, [r3, #2]
   2748e:	784a      	ldrb	r2, [r1, #1]
   27490:	7889      	ldrb	r1, [r1, #2]
   27492:	0209      	lsls	r1, r1, #8
   27494:	1889      	adds	r1, r1, r2
   27496:	8019      	strh	r1, [r3, #0]
   27498:	4623      	mov	r3, r4
   2749a:	3364      	adds	r3, #100	@ 0x64
   2749c:	cb0e      	ldmia	r3, {r1, r2, r3}
   2749e:	c40e      	stmia	r4!, {r1, r2, r3}
   274a0:	6d66      	ldr	r6, [r4, #84]	@ 0x54
   274a2:	2800      	cmp	r0, #0
   274a4:	d001      	beq.n	274aa <_start+0x1816>
   274a6:	f7fe fe16 	bl	260d6 <_start+0x442>
   274aa:	4ce1      	ldr	r4, [pc, #900]	@ (27830 <_start+0x1b9c>)
   274ac:	446c      	add	r4, sp
   274ae:	70e6      	strb	r6, [r4, #3]
   274b0:	9810      	ldr	r0, [sp, #64]	@ 0x40
   274b2:	8020      	strh	r0, [r4, #0]
   274b4:	0e30      	lsrs	r0, r6, #24
   274b6:	71a0      	strb	r0, [r4, #6]
   274b8:	0c30      	lsrs	r0, r6, #16
   274ba:	7160      	strb	r0, [r4, #5]
   274bc:	0a30      	lsrs	r0, r6, #8
   274be:	7120      	strb	r0, [r4, #4]
   274c0:	a810      	add	r0, sp, #64	@ 0x40
   274c2:	7880      	ldrb	r0, [r0, #2]
   274c4:	70a0      	strb	r0, [r4, #2]
   274c6:	1de0      	adds	r0, r4, #7
   274c8:	49d7      	ldr	r1, [pc, #860]	@ (27828 <_start+0x1b94>)
   274ca:	4469      	add	r1, sp
   274cc:	220d      	movs	r2, #13
   274ce:	f002 f81c 	bl	2950a <__aeabi_memcpy>
   274d2:	4dd4      	ldr	r5, [pc, #848]	@ (27824 <_start+0x1b90>)
   274d4:	446d      	add	r5, sp
   274d6:	4628      	mov	r0, r5
   274d8:	4621      	mov	r1, r4
   274da:	f7fd fa85 	bl	249e8 <_ZN20complex_full_dynamic3app17hd9ae90684e5c5886E>
   274de:	7828      	ldrb	r0, [r5, #0]
   274e0:	2801      	cmp	r0, #1
   274e2:	d102      	bne.n	274ea <_start+0x1856>
   274e4:	990c      	ldr	r1, [sp, #48]	@ 0x30
   274e6:	6e0e      	ldr	r6, [r1, #96]	@ 0x60
   274e8:	e014      	b.n	27514 <_start+0x1880>
   274ea:	49ce      	ldr	r1, [pc, #824]	@ (27824 <_start+0x1b90>)
   274ec:	4469      	add	r1, sp
   274ee:	78ca      	ldrb	r2, [r1, #3]
   274f0:	ab10      	add	r3, sp, #64	@ 0x40
   274f2:	709a      	strb	r2, [r3, #2]
   274f4:	784a      	ldrb	r2, [r1, #1]
   274f6:	788c      	ldrb	r4, [r1, #2]
   274f8:	0224      	lsls	r4, r4, #8
   274fa:	18a2      	adds	r2, r4, r2
   274fc:	801a      	strh	r2, [r3, #0]
   274fe:	3108      	adds	r1, #8
   27500:	9a0c      	ldr	r2, [sp, #48]	@ 0x30
   27502:	6e16      	ldr	r6, [r2, #96]	@ 0x60
   27504:	4ac8      	ldr	r2, [pc, #800]	@ (27828 <_start+0x1b94>)
   27506:	446a      	add	r2, sp
   27508:	c938      	ldmia	r1!, {r3, r4, r5}
   2750a:	c238      	stmia	r2!, {r3, r4, r5}
   2750c:	c938      	ldmia	r1!, {r3, r4, r5}
   2750e:	c238      	stmia	r2!, {r3, r4, r5}
   27510:	c938      	ldmia	r1!, {r3, r4, r5}
   27512:	c238      	stmia	r2!, {r3, r4, r5}
   27514:	2800      	cmp	r0, #0
   27516:	d001      	beq.n	2751c <_start+0x1888>
   27518:	f7fe fddd 	bl	260d6 <_start+0x442>
   2751c:	4cc5      	ldr	r4, [pc, #788]	@ (27834 <_start+0x1ba0>)
   2751e:	446c      	add	r4, sp
   27520:	70e6      	strb	r6, [r4, #3]
   27522:	9810      	ldr	r0, [sp, #64]	@ 0x40
   27524:	8020      	strh	r0, [r4, #0]
   27526:	0e30      	lsrs	r0, r6, #24
   27528:	71a0      	strb	r0, [r4, #6]
   2752a:	0c30      	lsrs	r0, r6, #16
   2752c:	7160      	strb	r0, [r4, #5]
   2752e:	0a30      	lsrs	r0, r6, #8
   27530:	7120      	strb	r0, [r4, #4]
   27532:	a810      	add	r0, sp, #64	@ 0x40
   27534:	7880      	ldrb	r0, [r0, #2]
   27536:	70a0      	strb	r0, [r4, #2]
   27538:	1de0      	adds	r0, r4, #7
   2753a:	49bb      	ldr	r1, [pc, #748]	@ (27828 <_start+0x1b94>)
   2753c:	4469      	add	r1, sp
   2753e:	2224      	movs	r2, #36	@ 0x24
   27540:	f001 ffe3 	bl	2950a <__aeabi_memcpy>
   27544:	4db7      	ldr	r5, [pc, #732]	@ (27824 <_start+0x1b90>)
   27546:	446d      	add	r5, sp
   27548:	4628      	mov	r0, r5
   2754a:	4621      	mov	r1, r4
   2754c:	f7fa f974 	bl	21838 <_ZN20complex_full_dynamic3app17h4c2d48a643a0919bE>
   27550:	7828      	ldrb	r0, [r5, #0]
   27552:	2801      	cmp	r0, #1
   27554:	d102      	bne.n	2755c <_start+0x18c8>
   27556:	990c      	ldr	r1, [sp, #48]	@ 0x30
   27558:	6e0e      	ldr	r6, [r1, #96]	@ 0x60
   2755a:	e016      	b.n	2758a <_start+0x18f6>
   2755c:	49b1      	ldr	r1, [pc, #708]	@ (27824 <_start+0x1b90>)
   2755e:	4469      	add	r1, sp
   27560:	78ca      	ldrb	r2, [r1, #3]
   27562:	ab10      	add	r3, sp, #64	@ 0x40
   27564:	709a      	strb	r2, [r3, #2]
   27566:	784a      	ldrb	r2, [r1, #1]
   27568:	788c      	ldrb	r4, [r1, #2]
   2756a:	0224      	lsls	r4, r4, #8
   2756c:	18a2      	adds	r2, r4, r2
   2756e:	801a      	strh	r2, [r3, #0]
   27570:	3108      	adds	r1, #8
   27572:	9a0c      	ldr	r2, [sp, #48]	@ 0x30
   27574:	6e16      	ldr	r6, [r2, #96]	@ 0x60
   27576:	4aac      	ldr	r2, [pc, #688]	@ (27828 <_start+0x1b94>)
   27578:	446a      	add	r2, sp
   2757a:	c918      	ldmia	r1!, {r3, r4}
   2757c:	c218      	stmia	r2!, {r3, r4}
   2757e:	c938      	ldmia	r1!, {r3, r4, r5}
   27580:	c238      	stmia	r2!, {r3, r4, r5}
   27582:	880b      	ldrh	r3, [r1, #0]
   27584:	8013      	strh	r3, [r2, #0]
   27586:	7889      	ldrb	r1, [r1, #2]
   27588:	7091      	strb	r1, [r2, #2]
   2758a:	2800      	cmp	r0, #0
   2758c:	d001      	beq.n	27592 <_start+0x18fe>
   2758e:	f7fe fda2 	bl	260d6 <_start+0x442>
   27592:	4ca9      	ldr	r4, [pc, #676]	@ (27838 <_start+0x1ba4>)
   27594:	446c      	add	r4, sp
   27596:	70e6      	strb	r6, [r4, #3]
   27598:	9810      	ldr	r0, [sp, #64]	@ 0x40
   2759a:	8020      	strh	r0, [r4, #0]
   2759c:	0e30      	lsrs	r0, r6, #24
   2759e:	71a0      	strb	r0, [r4, #6]
   275a0:	0c30      	lsrs	r0, r6, #16
   275a2:	7160      	strb	r0, [r4, #5]
   275a4:	0a30      	lsrs	r0, r6, #8
   275a6:	7120      	strb	r0, [r4, #4]
   275a8:	a810      	add	r0, sp, #64	@ 0x40
   275aa:	7880      	ldrb	r0, [r0, #2]
   275ac:	70a0      	strb	r0, [r4, #2]
   275ae:	1de0      	adds	r0, r4, #7
   275b0:	499d      	ldr	r1, [pc, #628]	@ (27828 <_start+0x1b94>)
   275b2:	4469      	add	r1, sp
   275b4:	2217      	movs	r2, #23
   275b6:	f001 ffa8 	bl	2950a <__aeabi_memcpy>
   275ba:	4d9a      	ldr	r5, [pc, #616]	@ (27824 <_start+0x1b90>)
   275bc:	446d      	add	r5, sp
   275be:	4628      	mov	r0, r5
   275c0:	4621      	mov	r1, r4
   275c2:	f7fa fd33 	bl	2202c <_ZN20complex_full_dynamic3app17h6529b8907cd3157dE>
   275c6:	782c      	ldrb	r4, [r5, #0]
   275c8:	2c01      	cmp	r4, #1
   275ca:	d102      	bne.n	275d2 <_start+0x193e>
   275cc:	980c      	ldr	r0, [sp, #48]	@ 0x30
   275ce:	6e06      	ldr	r6, [r0, #96]	@ 0x60
   275d0:	e011      	b.n	275f6 <_start+0x1962>
   275d2:	4994      	ldr	r1, [pc, #592]	@ (27824 <_start+0x1b90>)
   275d4:	4469      	add	r1, sp
   275d6:	78c8      	ldrb	r0, [r1, #3]
   275d8:	aa10      	add	r2, sp, #64	@ 0x40
   275da:	7090      	strb	r0, [r2, #2]
   275dc:	7848      	ldrb	r0, [r1, #1]
   275de:	788b      	ldrb	r3, [r1, #2]
   275e0:	021b      	lsls	r3, r3, #8
   275e2:	1818      	adds	r0, r3, r0
   275e4:	8010      	strh	r0, [r2, #0]
   275e6:	980c      	ldr	r0, [sp, #48]	@ 0x30
   275e8:	6e06      	ldr	r6, [r0, #96]	@ 0x60
   275ea:	3108      	adds	r1, #8
   275ec:	488e      	ldr	r0, [pc, #568]	@ (27828 <_start+0x1b94>)
   275ee:	4468      	add	r0, sp
   275f0:	224a      	movs	r2, #74	@ 0x4a
   275f2:	f001 fe2a 	bl	2924a <__aeabi_memcpy4>
   275f6:	2c00      	cmp	r4, #0
   275f8:	d001      	beq.n	275fe <_start+0x196a>
   275fa:	f7fe fd6c 	bl	260d6 <_start+0x442>
   275fe:	4c8f      	ldr	r4, [pc, #572]	@ (2783c <_start+0x1ba8>)
   27600:	446c      	add	r4, sp
   27602:	70e6      	strb	r6, [r4, #3]
   27604:	9810      	ldr	r0, [sp, #64]	@ 0x40
   27606:	8020      	strh	r0, [r4, #0]
   27608:	0e30      	lsrs	r0, r6, #24
   2760a:	71a0      	strb	r0, [r4, #6]
   2760c:	0c30      	lsrs	r0, r6, #16
   2760e:	7160      	strb	r0, [r4, #5]
   27610:	0a30      	lsrs	r0, r6, #8
   27612:	7120      	strb	r0, [r4, #4]
   27614:	a810      	add	r0, sp, #64	@ 0x40
   27616:	7880      	ldrb	r0, [r0, #2]
   27618:	70a0      	strb	r0, [r4, #2]
   2761a:	1de0      	adds	r0, r4, #7
   2761c:	4982      	ldr	r1, [pc, #520]	@ (27828 <_start+0x1b94>)
   2761e:	4469      	add	r1, sp
   27620:	224a      	movs	r2, #74	@ 0x4a
   27622:	f001 ff72 	bl	2950a <__aeabi_memcpy>
   27626:	4d7f      	ldr	r5, [pc, #508]	@ (27824 <_start+0x1b90>)
   27628:	446d      	add	r5, sp
   2762a:	4628      	mov	r0, r5
   2762c:	4621      	mov	r1, r4
   2762e:	f7fb fb51 	bl	22cd4 <_ZN20complex_full_dynamic3app17h7ffa106953985a8eE>
   27632:	7829      	ldrb	r1, [r5, #0]
   27634:	2901      	cmp	r1, #1
   27636:	d102      	bne.n	2763e <_start+0x19aa>
   27638:	980c      	ldr	r0, [sp, #48]	@ 0x30
   2763a:	6e06      	ldr	r6, [r0, #96]	@ 0x60
   2763c:	e00e      	b.n	2765c <_start+0x19c8>
   2763e:	4879      	ldr	r0, [pc, #484]	@ (27824 <_start+0x1b90>)
   27640:	4468      	add	r0, sp
   27642:	78c2      	ldrb	r2, [r0, #3]
   27644:	4b78      	ldr	r3, [pc, #480]	@ (27828 <_start+0x1b94>)
   27646:	446b      	add	r3, sp
   27648:	709a      	strb	r2, [r3, #2]
   2764a:	7842      	ldrb	r2, [r0, #1]
   2764c:	7880      	ldrb	r0, [r0, #2]
   2764e:	0200      	lsls	r0, r0, #8
   27650:	1880      	adds	r0, r0, r2
   27652:	8018      	strh	r0, [r3, #0]
   27654:	980c      	ldr	r0, [sp, #48]	@ 0x30
   27656:	6e06      	ldr	r6, [r0, #96]	@ 0x60
   27658:	6e42      	ldr	r2, [r0, #100]	@ 0x64
   2765a:	6e80      	ldr	r0, [r0, #104]	@ 0x68
   2765c:	2900      	cmp	r1, #0
   2765e:	d001      	beq.n	27664 <_start+0x19d0>
   27660:	f7fe fd39 	bl	260d6 <_start+0x442>
   27664:	9908      	ldr	r1, [sp, #32]
   27666:	1ccb      	adds	r3, r1, #3
   27668:	711a      	strb	r2, [r3, #4]
   2766a:	701e      	strb	r6, [r3, #0]
   2766c:	4974      	ldr	r1, [pc, #464]	@ (27840 <_start+0x1bac>)
   2766e:	4469      	add	r1, sp
   27670:	9c0c      	ldr	r4, [sp, #48]	@ 0x30
   27672:	6824      	ldr	r4, [r4, #0]
   27674:	800c      	strh	r4, [r1, #0]
   27676:	7218      	strb	r0, [r3, #8]
   27678:	0e14      	lsrs	r4, r2, #24
   2767a:	71dc      	strb	r4, [r3, #7]
   2767c:	0c14      	lsrs	r4, r2, #16
   2767e:	719c      	strb	r4, [r3, #6]
   27680:	0a12      	lsrs	r2, r2, #8
   27682:	715a      	strb	r2, [r3, #5]
   27684:	0e32      	lsrs	r2, r6, #24
   27686:	70da      	strb	r2, [r3, #3]
   27688:	0c32      	lsrs	r2, r6, #16
   2768a:	709a      	strb	r2, [r3, #2]
   2768c:	0a32      	lsrs	r2, r6, #8
   2768e:	705a      	strb	r2, [r3, #1]
   27690:	4a65      	ldr	r2, [pc, #404]	@ (27828 <_start+0x1b94>)
   27692:	446a      	add	r2, sp
   27694:	7892      	ldrb	r2, [r2, #2]
   27696:	708a      	strb	r2, [r1, #2]
   27698:	0e02      	lsrs	r2, r0, #24
   2769a:	72da      	strb	r2, [r3, #11]
   2769c:	0c02      	lsrs	r2, r0, #16
   2769e:	729a      	strb	r2, [r3, #10]
   276a0:	0a00      	lsrs	r0, r0, #8
   276a2:	7258      	strb	r0, [r3, #9]
   276a4:	4c5f      	ldr	r4, [pc, #380]	@ (27824 <_start+0x1b90>)
   276a6:	446c      	add	r4, sp
   276a8:	4620      	mov	r0, r4
   276aa:	f7fa ffa9 	bl	22600 <_ZN20complex_full_dynamic3app17h75d2a800e0dbbd7eE>
   276ae:	7820      	ldrb	r0, [r4, #0]
   276b0:	2801      	cmp	r0, #1
   276b2:	d103      	bne.n	276bc <_start+0x1a28>
   276b4:	990c      	ldr	r1, [sp, #48]	@ 0x30
   276b6:	6e09      	ldr	r1, [r1, #96]	@ 0x60
   276b8:	910b      	str	r1, [sp, #44]	@ 0x2c
   276ba:	e01b      	b.n	276f4 <_start+0x1a60>
   276bc:	4959      	ldr	r1, [pc, #356]	@ (27824 <_start+0x1b90>)
   276be:	4469      	add	r1, sp
   276c0:	78ca      	ldrb	r2, [r1, #3]
   276c2:	ab10      	add	r3, sp, #64	@ 0x40
   276c4:	709a      	strb	r2, [r3, #2]
   276c6:	784a      	ldrb	r2, [r1, #1]
   276c8:	788c      	ldrb	r4, [r1, #2]
   276ca:	0224      	lsls	r4, r4, #8
   276cc:	18a2      	adds	r2, r4, r2
   276ce:	801a      	strh	r2, [r3, #0]
   276d0:	3108      	adds	r1, #8
   276d2:	9a0c      	ldr	r2, [sp, #48]	@ 0x30
   276d4:	6e12      	ldr	r2, [r2, #96]	@ 0x60
   276d6:	920b      	str	r2, [sp, #44]	@ 0x2c
   276d8:	4a53      	ldr	r2, [pc, #332]	@ (27828 <_start+0x1b94>)
   276da:	446a      	add	r2, sp
   276dc:	c938      	ldmia	r1!, {r3, r4, r5}
   276de:	c238      	stmia	r2!, {r3, r4, r5}
   276e0:	c978      	ldmia	r1!, {r3, r4, r5, r6}
   276e2:	c278      	stmia	r2!, {r3, r4, r5, r6}
   276e4:	c978      	ldmia	r1!, {r3, r4, r5, r6}
   276e6:	c278      	stmia	r2!, {r3, r4, r5, r6}
   276e8:	c978      	ldmia	r1!, {r3, r4, r5, r6}
   276ea:	c278      	stmia	r2!, {r3, r4, r5, r6}
   276ec:	880b      	ldrh	r3, [r1, #0]
   276ee:	8013      	strh	r3, [r2, #0]
   276f0:	7889      	ldrb	r1, [r1, #2]
   276f2:	7091      	strb	r1, [r2, #2]
   276f4:	2800      	cmp	r0, #0
   276f6:	d001      	beq.n	276fc <_start+0x1a68>
   276f8:	f7fe fe5a 	bl	263b0 <_start+0x71c>
   276fc:	4c51      	ldr	r4, [pc, #324]	@ (27844 <_start+0x1bb0>)
   276fe:	446c      	add	r4, sp
   27700:	990b      	ldr	r1, [sp, #44]	@ 0x2c
   27702:	70e1      	strb	r1, [r4, #3]
   27704:	9810      	ldr	r0, [sp, #64]	@ 0x40
   27706:	8020      	strh	r0, [r4, #0]
   27708:	0e08      	lsrs	r0, r1, #24
   2770a:	71a0      	strb	r0, [r4, #6]
   2770c:	0c08      	lsrs	r0, r1, #16
   2770e:	7160      	strb	r0, [r4, #5]
   27710:	0a08      	lsrs	r0, r1, #8
   27712:	7120      	strb	r0, [r4, #4]
   27714:	a810      	add	r0, sp, #64	@ 0x40
   27716:	7880      	ldrb	r0, [r0, #2]
   27718:	70a0      	strb	r0, [r4, #2]
   2771a:	1de0      	adds	r0, r4, #7
   2771c:	4942      	ldr	r1, [pc, #264]	@ (27828 <_start+0x1b94>)
   2771e:	4469      	add	r1, sp
   27720:	223f      	movs	r2, #63	@ 0x3f
   27722:	f001 fef2 	bl	2950a <__aeabi_memcpy>
   27726:	4d3f      	ldr	r5, [pc, #252]	@ (27824 <_start+0x1b90>)
   27728:	446d      	add	r5, sp
   2772a:	4628      	mov	r0, r5
   2772c:	4621      	mov	r1, r4
   2772e:	f7fa f809 	bl	21744 <_ZN20complex_full_dynamic3app17h49062572a61773fbE>
   27732:	782c      	ldrb	r4, [r5, #0]
   27734:	2c01      	cmp	r4, #1
   27736:	d102      	bne.n	2773e <_start+0x1aaa>
   27738:	980c      	ldr	r0, [sp, #48]	@ 0x30
   2773a:	6e06      	ldr	r6, [r0, #96]	@ 0x60
   2773c:	e011      	b.n	27762 <_start+0x1ace>
   2773e:	4939      	ldr	r1, [pc, #228]	@ (27824 <_start+0x1b90>)
   27740:	4469      	add	r1, sp
   27742:	78c8      	ldrb	r0, [r1, #3]
   27744:	aa10      	add	r2, sp, #64	@ 0x40
   27746:	7090      	strb	r0, [r2, #2]
   27748:	7848      	ldrb	r0, [r1, #1]
   2774a:	788b      	ldrb	r3, [r1, #2]
   2774c:	021b      	lsls	r3, r3, #8
   2774e:	1818      	adds	r0, r3, r0
   27750:	8010      	strh	r0, [r2, #0]
   27752:	980c      	ldr	r0, [sp, #48]	@ 0x30
   27754:	6e06      	ldr	r6, [r0, #96]	@ 0x60
   27756:	3108      	adds	r1, #8
   27758:	4833      	ldr	r0, [pc, #204]	@ (27828 <_start+0x1b94>)
   2775a:	4468      	add	r0, sp
   2775c:	224f      	movs	r2, #79	@ 0x4f
   2775e:	f001 fd74 	bl	2924a <__aeabi_memcpy4>
   27762:	2c00      	cmp	r4, #0
   27764:	d001      	beq.n	2776a <_start+0x1ad6>
   27766:	f7fe fcb6 	bl	260d6 <_start+0x442>
   2776a:	4c37      	ldr	r4, [pc, #220]	@ (27848 <_start+0x1bb4>)
   2776c:	446c      	add	r4, sp
   2776e:	70e6      	strb	r6, [r4, #3]
   27770:	9810      	ldr	r0, [sp, #64]	@ 0x40
   27772:	8020      	strh	r0, [r4, #0]
   27774:	0e30      	lsrs	r0, r6, #24
   27776:	71a0      	strb	r0, [r4, #6]
   27778:	0c30      	lsrs	r0, r6, #16
   2777a:	7160      	strb	r0, [r4, #5]
   2777c:	0a30      	lsrs	r0, r6, #8
   2777e:	7120      	strb	r0, [r4, #4]
   27780:	a810      	add	r0, sp, #64	@ 0x40
   27782:	7880      	ldrb	r0, [r0, #2]
   27784:	70a0      	strb	r0, [r4, #2]
   27786:	1de0      	adds	r0, r4, #7
   27788:	4927      	ldr	r1, [pc, #156]	@ (27828 <_start+0x1b94>)
   2778a:	4469      	add	r1, sp
   2778c:	224f      	movs	r2, #79	@ 0x4f
   2778e:	f001 febc 	bl	2950a <__aeabi_memcpy>
   27792:	4d24      	ldr	r5, [pc, #144]	@ (27824 <_start+0x1b90>)
   27794:	446d      	add	r5, sp
   27796:	4628      	mov	r0, r5
   27798:	4621      	mov	r1, r4
   2779a:	f7fc fcc9 	bl	24130 <_ZN20complex_full_dynamic3app17hbd58873756860c95E>
   2779e:	782c      	ldrb	r4, [r5, #0]
   277a0:	2c01      	cmp	r4, #1
   277a2:	d107      	bne.n	277b4 <_start+0x1b20>
   277a4:	980c      	ldr	r0, [sp, #48]	@ 0x30
   277a6:	6e06      	ldr	r6, [r0, #96]	@ 0x60
   277a8:	e016      	b.n	277d8 <_start+0x1b44>
   277aa:	46c0      	nop			@ (mov r8, r8)
   277ac:	00001414 	.word	0x00001414
   277b0:	000013b8 	.word	0x000013b8
   277b4:	491b      	ldr	r1, [pc, #108]	@ (27824 <_start+0x1b90>)
   277b6:	4469      	add	r1, sp
   277b8:	78c8      	ldrb	r0, [r1, #3]
   277ba:	aa10      	add	r2, sp, #64	@ 0x40
   277bc:	7090      	strb	r0, [r2, #2]
   277be:	7848      	ldrb	r0, [r1, #1]
   277c0:	788b      	ldrb	r3, [r1, #2]
   277c2:	021b      	lsls	r3, r3, #8
   277c4:	1818      	adds	r0, r3, r0
   277c6:	8010      	strh	r0, [r2, #0]
   277c8:	980c      	ldr	r0, [sp, #48]	@ 0x30
   277ca:	6e06      	ldr	r6, [r0, #96]	@ 0x60
   277cc:	3108      	adds	r1, #8
   277ce:	4816      	ldr	r0, [pc, #88]	@ (27828 <_start+0x1b94>)
   277d0:	4468      	add	r0, sp
   277d2:	2242      	movs	r2, #66	@ 0x42
   277d4:	f001 fd39 	bl	2924a <__aeabi_memcpy4>
   277d8:	2c00      	cmp	r4, #0
   277da:	d001      	beq.n	277e0 <_start+0x1b4c>
   277dc:	f7fe fc7b 	bl	260d6 <_start+0x442>
   277e0:	4c1a      	ldr	r4, [pc, #104]	@ (2784c <_start+0x1bb8>)
   277e2:	446c      	add	r4, sp
   277e4:	70e6      	strb	r6, [r4, #3]
   277e6:	9810      	ldr	r0, [sp, #64]	@ 0x40
   277e8:	8020      	strh	r0, [r4, #0]
   277ea:	0e30      	lsrs	r0, r6, #24
   277ec:	71a0      	strb	r0, [r4, #6]
   277ee:	0c30      	lsrs	r0, r6, #16
   277f0:	7160      	strb	r0, [r4, #5]
   277f2:	0a30      	lsrs	r0, r6, #8
   277f4:	7120      	strb	r0, [r4, #4]
   277f6:	a810      	add	r0, sp, #64	@ 0x40
   277f8:	7880      	ldrb	r0, [r0, #2]
   277fa:	70a0      	strb	r0, [r4, #2]
   277fc:	1de0      	adds	r0, r4, #7
   277fe:	490a      	ldr	r1, [pc, #40]	@ (27828 <_start+0x1b94>)
   27800:	4469      	add	r1, sp
   27802:	2242      	movs	r2, #66	@ 0x42
   27804:	f001 fe81 	bl	2950a <__aeabi_memcpy>
   27808:	4d06      	ldr	r5, [pc, #24]	@ (27824 <_start+0x1b90>)
   2780a:	446d      	add	r5, sp
   2780c:	4628      	mov	r0, r5
   2780e:	4621      	mov	r1, r4
   27810:	f7fa fa1a 	bl	21c48 <_ZN20complex_full_dynamic3app17h5fed3e83259d3467E>
   27814:	7828      	ldrb	r0, [r5, #0]
   27816:	2801      	cmp	r0, #1
   27818:	d11a      	bne.n	27850 <_start+0x1bbc>
   2781a:	990c      	ldr	r1, [sp, #48]	@ 0x30
   2781c:	6e09      	ldr	r1, [r1, #96]	@ 0x60
   2781e:	910b      	str	r1, [sp, #44]	@ 0x2c
   27820:	e02a      	b.n	27878 <_start+0x1be4>
   27822:	46c0      	nop			@ (mov r8, r8)
   27824:	00001414 	.word	0x00001414
   27828:	000013b8 	.word	0x000013b8
   2782c:	00000710 	.word	0x00000710
   27830:	00000738 	.word	0x00000738
   27834:	0000074c 	.word	0x0000074c
   27838:	00000778 	.word	0x00000778
   2783c:	00000798 	.word	0x00000798
   27840:	000007ec 	.word	0x000007ec
   27844:	000007fc 	.word	0x000007fc
   27848:	00000844 	.word	0x00000844
   2784c:	0000089c 	.word	0x0000089c
   27850:	49e5      	ldr	r1, [pc, #916]	@ (27be8 <_start+0x1f54>)
   27852:	4469      	add	r1, sp
   27854:	78ca      	ldrb	r2, [r1, #3]
   27856:	ab10      	add	r3, sp, #64	@ 0x40
   27858:	709a      	strb	r2, [r3, #2]
   2785a:	784a      	ldrb	r2, [r1, #1]
   2785c:	788c      	ldrb	r4, [r1, #2]
   2785e:	0224      	lsls	r4, r4, #8
   27860:	18a2      	adds	r2, r4, r2
   27862:	801a      	strh	r2, [r3, #0]
   27864:	3108      	adds	r1, #8
   27866:	9a0c      	ldr	r2, [sp, #48]	@ 0x30
   27868:	6e12      	ldr	r2, [r2, #96]	@ 0x60
   2786a:	920b      	str	r2, [sp, #44]	@ 0x2c
   2786c:	4afd      	ldr	r2, [pc, #1012]	@ (27c64 <_start+0x1fd0>)
   2786e:	446a      	add	r2, sp
   27870:	c938      	ldmia	r1!, {r3, r4, r5}
   27872:	c238      	stmia	r2!, {r3, r4, r5}
   27874:	c978      	ldmia	r1!, {r3, r4, r5, r6}
   27876:	c278      	stmia	r2!, {r3, r4, r5, r6}
   27878:	2800      	cmp	r0, #0
   2787a:	d001      	beq.n	27880 <_start+0x1bec>
   2787c:	f7fe fd98 	bl	263b0 <_start+0x71c>
   27880:	4cf9      	ldr	r4, [pc, #996]	@ (27c68 <_start+0x1fd4>)
   27882:	446c      	add	r4, sp
   27884:	990b      	ldr	r1, [sp, #44]	@ 0x2c
   27886:	70e1      	strb	r1, [r4, #3]
   27888:	9810      	ldr	r0, [sp, #64]	@ 0x40
   2788a:	8020      	strh	r0, [r4, #0]
   2788c:	0e08      	lsrs	r0, r1, #24
   2788e:	71a0      	strb	r0, [r4, #6]
   27890:	0c08      	lsrs	r0, r1, #16
   27892:	7160      	strb	r0, [r4, #5]
   27894:	0a08      	lsrs	r0, r1, #8
   27896:	7120      	strb	r0, [r4, #4]
   27898:	a810      	add	r0, sp, #64	@ 0x40
   2789a:	7880      	ldrb	r0, [r0, #2]
   2789c:	70a0      	strb	r0, [r4, #2]
   2789e:	1de0      	adds	r0, r4, #7
   278a0:	49f0      	ldr	r1, [pc, #960]	@ (27c64 <_start+0x1fd0>)
   278a2:	4469      	add	r1, sp
   278a4:	221c      	movs	r2, #28
   278a6:	f001 fe30 	bl	2950a <__aeabi_memcpy>
   278aa:	4ded      	ldr	r5, [pc, #948]	@ (27c60 <_start+0x1fcc>)
   278ac:	446d      	add	r5, sp
   278ae:	4628      	mov	r0, r5
   278b0:	4621      	mov	r1, r4
   278b2:	f7fb fbfd 	bl	230b0 <_ZN20complex_full_dynamic3app17h9087c74096275c6bE>
   278b6:	7828      	ldrb	r0, [r5, #0]
   278b8:	2801      	cmp	r0, #1
   278ba:	d102      	bne.n	278c2 <_start+0x1c2e>
   278bc:	990c      	ldr	r1, [sp, #48]	@ 0x30
   278be:	6e0e      	ldr	r6, [r1, #96]	@ 0x60
   278c0:	e014      	b.n	278ec <_start+0x1c58>
   278c2:	49e7      	ldr	r1, [pc, #924]	@ (27c60 <_start+0x1fcc>)
   278c4:	4469      	add	r1, sp
   278c6:	78ca      	ldrb	r2, [r1, #3]
   278c8:	ab10      	add	r3, sp, #64	@ 0x40
   278ca:	709a      	strb	r2, [r3, #2]
   278cc:	784a      	ldrb	r2, [r1, #1]
   278ce:	788c      	ldrb	r4, [r1, #2]
   278d0:	0224      	lsls	r4, r4, #8
   278d2:	18a2      	adds	r2, r4, r2
   278d4:	801a      	strh	r2, [r3, #0]
   278d6:	3108      	adds	r1, #8
   278d8:	9a0c      	ldr	r2, [sp, #48]	@ 0x30
   278da:	6e16      	ldr	r6, [r2, #96]	@ 0x60
   278dc:	4ae1      	ldr	r2, [pc, #900]	@ (27c64 <_start+0x1fd0>)
   278de:	446a      	add	r2, sp
   278e0:	c938      	ldmia	r1!, {r3, r4, r5}
   278e2:	c238      	stmia	r2!, {r3, r4, r5}
   278e4:	c938      	ldmia	r1!, {r3, r4, r5}
   278e6:	c238      	stmia	r2!, {r3, r4, r5}
   278e8:	c938      	ldmia	r1!, {r3, r4, r5}
   278ea:	c238      	stmia	r2!, {r3, r4, r5}
   278ec:	2800      	cmp	r0, #0
   278ee:	d001      	beq.n	278f4 <_start+0x1c60>
   278f0:	f7fe fbf1 	bl	260d6 <_start+0x442>
   278f4:	4cdd      	ldr	r4, [pc, #884]	@ (27c6c <_start+0x1fd8>)
   278f6:	446c      	add	r4, sp
   278f8:	70e6      	strb	r6, [r4, #3]
   278fa:	9810      	ldr	r0, [sp, #64]	@ 0x40
   278fc:	8020      	strh	r0, [r4, #0]
   278fe:	0e30      	lsrs	r0, r6, #24
   27900:	71a0      	strb	r0, [r4, #6]
   27902:	0c30      	lsrs	r0, r6, #16
   27904:	7160      	strb	r0, [r4, #5]
   27906:	0a30      	lsrs	r0, r6, #8
   27908:	7120      	strb	r0, [r4, #4]
   2790a:	a810      	add	r0, sp, #64	@ 0x40
   2790c:	7880      	ldrb	r0, [r0, #2]
   2790e:	70a0      	strb	r0, [r4, #2]
   27910:	1de0      	adds	r0, r4, #7
   27912:	49d4      	ldr	r1, [pc, #848]	@ (27c64 <_start+0x1fd0>)
   27914:	4469      	add	r1, sp
   27916:	2224      	movs	r2, #36	@ 0x24
   27918:	f001 fdf7 	bl	2950a <__aeabi_memcpy>
   2791c:	4dd0      	ldr	r5, [pc, #832]	@ (27c60 <_start+0x1fcc>)
   2791e:	446d      	add	r5, sp
   27920:	4628      	mov	r0, r5
   27922:	4621      	mov	r1, r4
   27924:	f7f9 fba2 	bl	2106c <_ZN20complex_full_dynamic3app17h31ba89e35f9233e7E>
   27928:	7828      	ldrb	r0, [r5, #0]
   2792a:	2801      	cmp	r0, #1
   2792c:	d102      	bne.n	27934 <_start+0x1ca0>
   2792e:	990c      	ldr	r1, [sp, #48]	@ 0x30
   27930:	6e0e      	ldr	r6, [r1, #96]	@ 0x60
   27932:	e011      	b.n	27958 <_start+0x1cc4>
   27934:	49cb      	ldr	r1, [pc, #812]	@ (27c64 <_start+0x1fd0>)
   27936:	4469      	add	r1, sp
   27938:	9c0c      	ldr	r4, [sp, #48]	@ 0x30
   2793a:	6ea2      	ldr	r2, [r4, #104]	@ 0x68
   2793c:	808a      	strh	r2, [r1, #4]
   2793e:	49c8      	ldr	r1, [pc, #800]	@ (27c60 <_start+0x1fcc>)
   27940:	4469      	add	r1, sp
   27942:	78ca      	ldrb	r2, [r1, #3]
   27944:	ab10      	add	r3, sp, #64	@ 0x40
   27946:	709a      	strb	r2, [r3, #2]
   27948:	784a      	ldrb	r2, [r1, #1]
   2794a:	7889      	ldrb	r1, [r1, #2]
   2794c:	0209      	lsls	r1, r1, #8
   2794e:	1889      	adds	r1, r1, r2
   27950:	8019      	strh	r1, [r3, #0]
   27952:	6e61      	ldr	r1, [r4, #100]	@ 0x64
   27954:	6021      	str	r1, [r4, #0]
   27956:	6e26      	ldr	r6, [r4, #96]	@ 0x60
   27958:	2800      	cmp	r0, #0
   2795a:	d001      	beq.n	27960 <_start+0x1ccc>
   2795c:	f7fe fbbb 	bl	260d6 <_start+0x442>
   27960:	4cc3      	ldr	r4, [pc, #780]	@ (27c70 <_start+0x1fdc>)
   27962:	446c      	add	r4, sp
   27964:	70e6      	strb	r6, [r4, #3]
   27966:	9810      	ldr	r0, [sp, #64]	@ 0x40
   27968:	8020      	strh	r0, [r4, #0]
   2796a:	0e30      	lsrs	r0, r6, #24
   2796c:	71a0      	strb	r0, [r4, #6]
   2796e:	0c30      	lsrs	r0, r6, #16
   27970:	7160      	strb	r0, [r4, #5]
   27972:	0a30      	lsrs	r0, r6, #8
   27974:	7120      	strb	r0, [r4, #4]
   27976:	a810      	add	r0, sp, #64	@ 0x40
   27978:	7880      	ldrb	r0, [r0, #2]
   2797a:	70a0      	strb	r0, [r4, #2]
   2797c:	1de0      	adds	r0, r4, #7
   2797e:	49b9      	ldr	r1, [pc, #740]	@ (27c64 <_start+0x1fd0>)
   27980:	4469      	add	r1, sp
   27982:	2206      	movs	r2, #6
   27984:	f001 fdc1 	bl	2950a <__aeabi_memcpy>
   27988:	4db5      	ldr	r5, [pc, #724]	@ (27c60 <_start+0x1fcc>)
   2798a:	446d      	add	r5, sp
   2798c:	4628      	mov	r0, r5
   2798e:	4621      	mov	r1, r4
   27990:	f7fc fb52 	bl	24038 <_ZN20complex_full_dynamic3app17hbc67d7eb9ac54d38E>
   27994:	7828      	ldrb	r0, [r5, #0]
   27996:	2801      	cmp	r0, #1
   27998:	d102      	bne.n	279a0 <_start+0x1d0c>
   2799a:	990c      	ldr	r1, [sp, #48]	@ 0x30
   2799c:	6e0e      	ldr	r6, [r1, #96]	@ 0x60
   2799e:	e014      	b.n	279ca <_start+0x1d36>
   279a0:	49af      	ldr	r1, [pc, #700]	@ (27c60 <_start+0x1fcc>)
   279a2:	4469      	add	r1, sp
   279a4:	78ca      	ldrb	r2, [r1, #3]
   279a6:	ab10      	add	r3, sp, #64	@ 0x40
   279a8:	709a      	strb	r2, [r3, #2]
   279aa:	784a      	ldrb	r2, [r1, #1]
   279ac:	788c      	ldrb	r4, [r1, #2]
   279ae:	0224      	lsls	r4, r4, #8
   279b0:	18a2      	adds	r2, r4, r2
   279b2:	801a      	strh	r2, [r3, #0]
   279b4:	3108      	adds	r1, #8
   279b6:	9a0c      	ldr	r2, [sp, #48]	@ 0x30
   279b8:	6e16      	ldr	r6, [r2, #96]	@ 0x60
   279ba:	4aaa      	ldr	r2, [pc, #680]	@ (27c64 <_start+0x1fd0>)
   279bc:	446a      	add	r2, sp
   279be:	c938      	ldmia	r1!, {r3, r4, r5}
   279c0:	c238      	stmia	r2!, {r3, r4, r5}
   279c2:	c938      	ldmia	r1!, {r3, r4, r5}
   279c4:	c238      	stmia	r2!, {r3, r4, r5}
   279c6:	8809      	ldrh	r1, [r1, #0]
   279c8:	8011      	strh	r1, [r2, #0]
   279ca:	2800      	cmp	r0, #0
   279cc:	d001      	beq.n	279d2 <_start+0x1d3e>
   279ce:	f7fe fb82 	bl	260d6 <_start+0x442>
   279d2:	4ca8      	ldr	r4, [pc, #672]	@ (27c74 <_start+0x1fe0>)
   279d4:	446c      	add	r4, sp
   279d6:	70e6      	strb	r6, [r4, #3]
   279d8:	9810      	ldr	r0, [sp, #64]	@ 0x40
   279da:	8020      	strh	r0, [r4, #0]
   279dc:	0e30      	lsrs	r0, r6, #24
   279de:	71a0      	strb	r0, [r4, #6]
   279e0:	0c30      	lsrs	r0, r6, #16
   279e2:	7160      	strb	r0, [r4, #5]
   279e4:	0a30      	lsrs	r0, r6, #8
   279e6:	7120      	strb	r0, [r4, #4]
   279e8:	a810      	add	r0, sp, #64	@ 0x40
   279ea:	7880      	ldrb	r0, [r0, #2]
   279ec:	70a0      	strb	r0, [r4, #2]
   279ee:	1de0      	adds	r0, r4, #7
   279f0:	499c      	ldr	r1, [pc, #624]	@ (27c64 <_start+0x1fd0>)
   279f2:	4469      	add	r1, sp
   279f4:	221a      	movs	r2, #26
   279f6:	f001 fd88 	bl	2950a <__aeabi_memcpy>
   279fa:	4d99      	ldr	r5, [pc, #612]	@ (27c60 <_start+0x1fcc>)
   279fc:	446d      	add	r5, sp
   279fe:	4628      	mov	r0, r5
   27a00:	4621      	mov	r1, r4
   27a02:	f7fd ff57 	bl	258b4 <_ZN20complex_full_dynamic3app17hfcc9450befc7d09cE>
   27a06:	782c      	ldrb	r4, [r5, #0]
   27a08:	2c01      	cmp	r4, #1
   27a0a:	d102      	bne.n	27a12 <_start+0x1d7e>
   27a0c:	980c      	ldr	r0, [sp, #48]	@ 0x30
   27a0e:	6e06      	ldr	r6, [r0, #96]	@ 0x60
   27a10:	e011      	b.n	27a36 <_start+0x1da2>
   27a12:	4993      	ldr	r1, [pc, #588]	@ (27c60 <_start+0x1fcc>)
   27a14:	4469      	add	r1, sp
   27a16:	78c8      	ldrb	r0, [r1, #3]
   27a18:	aa10      	add	r2, sp, #64	@ 0x40
   27a1a:	7090      	strb	r0, [r2, #2]
   27a1c:	7848      	ldrb	r0, [r1, #1]
   27a1e:	788b      	ldrb	r3, [r1, #2]
   27a20:	021b      	lsls	r3, r3, #8
   27a22:	1818      	adds	r0, r3, r0
   27a24:	8010      	strh	r0, [r2, #0]
   27a26:	980c      	ldr	r0, [sp, #48]	@ 0x30
   27a28:	6e06      	ldr	r6, [r0, #96]	@ 0x60
   27a2a:	3108      	adds	r1, #8
   27a2c:	488d      	ldr	r0, [pc, #564]	@ (27c64 <_start+0x1fd0>)
   27a2e:	4468      	add	r0, sp
   27a30:	224c      	movs	r2, #76	@ 0x4c
   27a32:	f001 fc0a 	bl	2924a <__aeabi_memcpy4>
   27a36:	2c00      	cmp	r4, #0
   27a38:	d001      	beq.n	27a3e <_start+0x1daa>
   27a3a:	f7fe fb4c 	bl	260d6 <_start+0x442>
   27a3e:	4c8e      	ldr	r4, [pc, #568]	@ (27c78 <_start+0x1fe4>)
   27a40:	446c      	add	r4, sp
   27a42:	70e6      	strb	r6, [r4, #3]
   27a44:	9810      	ldr	r0, [sp, #64]	@ 0x40
   27a46:	8020      	strh	r0, [r4, #0]
   27a48:	0e30      	lsrs	r0, r6, #24
   27a4a:	71a0      	strb	r0, [r4, #6]
   27a4c:	0c30      	lsrs	r0, r6, #16
   27a4e:	7160      	strb	r0, [r4, #5]
   27a50:	0a30      	lsrs	r0, r6, #8
   27a52:	7120      	strb	r0, [r4, #4]
   27a54:	a810      	add	r0, sp, #64	@ 0x40
   27a56:	7880      	ldrb	r0, [r0, #2]
   27a58:	70a0      	strb	r0, [r4, #2]
   27a5a:	1de0      	adds	r0, r4, #7
   27a5c:	4981      	ldr	r1, [pc, #516]	@ (27c64 <_start+0x1fd0>)
   27a5e:	4469      	add	r1, sp
   27a60:	224c      	movs	r2, #76	@ 0x4c
   27a62:	f001 fd52 	bl	2950a <__aeabi_memcpy>
   27a66:	4d7e      	ldr	r5, [pc, #504]	@ (27c60 <_start+0x1fcc>)
   27a68:	446d      	add	r5, sp
   27a6a:	4628      	mov	r0, r5
   27a6c:	4621      	mov	r1, r4
   27a6e:	f7fd f9c3 	bl	24df8 <_ZN20complex_full_dynamic3app17hdd57b4d3528d580cE>
   27a72:	782c      	ldrb	r4, [r5, #0]
   27a74:	2c01      	cmp	r4, #1
   27a76:	d102      	bne.n	27a7e <_start+0x1dea>
   27a78:	980c      	ldr	r0, [sp, #48]	@ 0x30
   27a7a:	6e06      	ldr	r6, [r0, #96]	@ 0x60
   27a7c:	e011      	b.n	27aa2 <_start+0x1e0e>
   27a7e:	4978      	ldr	r1, [pc, #480]	@ (27c60 <_start+0x1fcc>)
   27a80:	4469      	add	r1, sp
   27a82:	78c8      	ldrb	r0, [r1, #3]
   27a84:	aa10      	add	r2, sp, #64	@ 0x40
   27a86:	7090      	strb	r0, [r2, #2]
   27a88:	7848      	ldrb	r0, [r1, #1]
   27a8a:	788b      	ldrb	r3, [r1, #2]
   27a8c:	021b      	lsls	r3, r3, #8
   27a8e:	1818      	adds	r0, r3, r0
   27a90:	8010      	strh	r0, [r2, #0]
   27a92:	980c      	ldr	r0, [sp, #48]	@ 0x30
   27a94:	6e06      	ldr	r6, [r0, #96]	@ 0x60
   27a96:	3108      	adds	r1, #8
   27a98:	4872      	ldr	r0, [pc, #456]	@ (27c64 <_start+0x1fd0>)
   27a9a:	4468      	add	r0, sp
   27a9c:	2246      	movs	r2, #70	@ 0x46
   27a9e:	f001 fbd4 	bl	2924a <__aeabi_memcpy4>
   27aa2:	2c00      	cmp	r4, #0
   27aa4:	d001      	beq.n	27aaa <_start+0x1e16>
   27aa6:	f7fe fb16 	bl	260d6 <_start+0x442>
   27aaa:	4c74      	ldr	r4, [pc, #464]	@ (27c7c <_start+0x1fe8>)
   27aac:	446c      	add	r4, sp
   27aae:	70e6      	strb	r6, [r4, #3]
   27ab0:	9810      	ldr	r0, [sp, #64]	@ 0x40
   27ab2:	8020      	strh	r0, [r4, #0]
   27ab4:	0e30      	lsrs	r0, r6, #24
   27ab6:	71a0      	strb	r0, [r4, #6]
   27ab8:	0c30      	lsrs	r0, r6, #16
   27aba:	7160      	strb	r0, [r4, #5]
   27abc:	0a30      	lsrs	r0, r6, #8
   27abe:	7120      	strb	r0, [r4, #4]
   27ac0:	a810      	add	r0, sp, #64	@ 0x40
   27ac2:	7880      	ldrb	r0, [r0, #2]
   27ac4:	70a0      	strb	r0, [r4, #2]
   27ac6:	1de0      	adds	r0, r4, #7
   27ac8:	4966      	ldr	r1, [pc, #408]	@ (27c64 <_start+0x1fd0>)
   27aca:	4469      	add	r1, sp
   27acc:	2246      	movs	r2, #70	@ 0x46
   27ace:	f001 fd1c 	bl	2950a <__aeabi_memcpy>
   27ad2:	4d63      	ldr	r5, [pc, #396]	@ (27c60 <_start+0x1fcc>)
   27ad4:	446d      	add	r5, sp
   27ad6:	4628      	mov	r0, r5
   27ad8:	4621      	mov	r1, r4
   27ada:	f7f8 fb7d 	bl	201d8 <_ZN20complex_full_dynamic3app17h06a463b234047753E>
   27ade:	7828      	ldrb	r0, [r5, #0]
   27ae0:	2801      	cmp	r0, #1
   27ae2:	d103      	bne.n	27aec <_start+0x1e58>
   27ae4:	990c      	ldr	r1, [sp, #48]	@ 0x30
   27ae6:	6e09      	ldr	r1, [r1, #96]	@ 0x60
   27ae8:	910b      	str	r1, [sp, #44]	@ 0x2c
   27aea:	e019      	b.n	27b20 <_start+0x1e8c>
   27aec:	495c      	ldr	r1, [pc, #368]	@ (27c60 <_start+0x1fcc>)
   27aee:	4469      	add	r1, sp
   27af0:	78ca      	ldrb	r2, [r1, #3]
   27af2:	ab10      	add	r3, sp, #64	@ 0x40
   27af4:	709a      	strb	r2, [r3, #2]
   27af6:	784a      	ldrb	r2, [r1, #1]
   27af8:	788c      	ldrb	r4, [r1, #2]
   27afa:	0224      	lsls	r4, r4, #8
   27afc:	18a2      	adds	r2, r4, r2
   27afe:	801a      	strh	r2, [r3, #0]
   27b00:	3108      	adds	r1, #8
   27b02:	9a0c      	ldr	r2, [sp, #48]	@ 0x30
   27b04:	6e12      	ldr	r2, [r2, #96]	@ 0x60
   27b06:	920b      	str	r2, [sp, #44]	@ 0x2c
   27b08:	4a56      	ldr	r2, [pc, #344]	@ (27c64 <_start+0x1fd0>)
   27b0a:	446a      	add	r2, sp
   27b0c:	c938      	ldmia	r1!, {r3, r4, r5}
   27b0e:	c238      	stmia	r2!, {r3, r4, r5}
   27b10:	c938      	ldmia	r1!, {r3, r4, r5}
   27b12:	c238      	stmia	r2!, {r3, r4, r5}
   27b14:	c938      	ldmia	r1!, {r3, r4, r5}
   27b16:	c238      	stmia	r2!, {r3, r4, r5}
   27b18:	c978      	ldmia	r1!, {r3, r4, r5, r6}
   27b1a:	c278      	stmia	r2!, {r3, r4, r5, r6}
   27b1c:	7809      	ldrb	r1, [r1, #0]
   27b1e:	7011      	strb	r1, [r2, #0]
   27b20:	2800      	cmp	r0, #0
   27b22:	d001      	beq.n	27b28 <_start+0x1e94>
   27b24:	f7fe fc44 	bl	263b0 <_start+0x71c>
   27b28:	4c55      	ldr	r4, [pc, #340]	@ (27c80 <_start+0x1fec>)
   27b2a:	446c      	add	r4, sp
   27b2c:	990b      	ldr	r1, [sp, #44]	@ 0x2c
   27b2e:	70e1      	strb	r1, [r4, #3]
   27b30:	9810      	ldr	r0, [sp, #64]	@ 0x40
   27b32:	8020      	strh	r0, [r4, #0]
   27b34:	0e08      	lsrs	r0, r1, #24
   27b36:	71a0      	strb	r0, [r4, #6]
   27b38:	0c08      	lsrs	r0, r1, #16
   27b3a:	7160      	strb	r0, [r4, #5]
   27b3c:	0a08      	lsrs	r0, r1, #8
   27b3e:	7120      	strb	r0, [r4, #4]
   27b40:	a810      	add	r0, sp, #64	@ 0x40
   27b42:	7880      	ldrb	r0, [r0, #2]
   27b44:	70a0      	strb	r0, [r4, #2]
   27b46:	1de0      	adds	r0, r4, #7
   27b48:	4946      	ldr	r1, [pc, #280]	@ (27c64 <_start+0x1fd0>)
   27b4a:	4469      	add	r1, sp
   27b4c:	2235      	movs	r2, #53	@ 0x35
   27b4e:	f001 fcdc 	bl	2950a <__aeabi_memcpy>
   27b52:	4d43      	ldr	r5, [pc, #268]	@ (27c60 <_start+0x1fcc>)
   27b54:	446d      	add	r5, sp
   27b56:	4628      	mov	r0, r5
   27b58:	4621      	mov	r1, r4
   27b5a:	f7fd ffa1 	bl	25aa0 <_ZN20complex_full_dynamic3app17hfe118b923384e448E>
   27b5e:	7828      	ldrb	r0, [r5, #0]
   27b60:	2801      	cmp	r0, #1
   27b62:	d103      	bne.n	27b6c <_start+0x1ed8>
   27b64:	990c      	ldr	r1, [sp, #48]	@ 0x30
   27b66:	6e09      	ldr	r1, [r1, #96]	@ 0x60
   27b68:	910b      	str	r1, [sp, #44]	@ 0x2c
   27b6a:	e017      	b.n	27b9c <_start+0x1f08>
   27b6c:	493c      	ldr	r1, [pc, #240]	@ (27c60 <_start+0x1fcc>)
   27b6e:	4469      	add	r1, sp
   27b70:	78ca      	ldrb	r2, [r1, #3]
   27b72:	ab10      	add	r3, sp, #64	@ 0x40
   27b74:	709a      	strb	r2, [r3, #2]
   27b76:	784a      	ldrb	r2, [r1, #1]
   27b78:	788c      	ldrb	r4, [r1, #2]
   27b7a:	0224      	lsls	r4, r4, #8
   27b7c:	18a2      	adds	r2, r4, r2
   27b7e:	801a      	strh	r2, [r3, #0]
   27b80:	3108      	adds	r1, #8
   27b82:	9a0c      	ldr	r2, [sp, #48]	@ 0x30
   27b84:	6e12      	ldr	r2, [r2, #96]	@ 0x60
   27b86:	920b      	str	r2, [sp, #44]	@ 0x2c
   27b88:	4a36      	ldr	r2, [pc, #216]	@ (27c64 <_start+0x1fd0>)
   27b8a:	446a      	add	r2, sp
   27b8c:	c978      	ldmia	r1!, {r3, r4, r5, r6}
   27b8e:	c278      	stmia	r2!, {r3, r4, r5, r6}
   27b90:	c978      	ldmia	r1!, {r3, r4, r5, r6}
   27b92:	c278      	stmia	r2!, {r3, r4, r5, r6}
   27b94:	c978      	ldmia	r1!, {r3, r4, r5, r6}
   27b96:	c278      	stmia	r2!, {r3, r4, r5, r6}
   27b98:	7809      	ldrb	r1, [r1, #0]
   27b9a:	7011      	strb	r1, [r2, #0]
   27b9c:	2800      	cmp	r0, #0
   27b9e:	d001      	beq.n	27ba4 <_start+0x1f10>
   27ba0:	f7fe fc06 	bl	263b0 <_start+0x71c>
   27ba4:	4c37      	ldr	r4, [pc, #220]	@ (27c84 <_start+0x1ff0>)
   27ba6:	446c      	add	r4, sp
   27ba8:	990b      	ldr	r1, [sp, #44]	@ 0x2c
   27baa:	70e1      	strb	r1, [r4, #3]
   27bac:	9810      	ldr	r0, [sp, #64]	@ 0x40
   27bae:	8020      	strh	r0, [r4, #0]
   27bb0:	0e08      	lsrs	r0, r1, #24
   27bb2:	71a0      	strb	r0, [r4, #6]
   27bb4:	0c08      	lsrs	r0, r1, #16
   27bb6:	7160      	strb	r0, [r4, #5]
   27bb8:	0a08      	lsrs	r0, r1, #8
   27bba:	7120      	strb	r0, [r4, #4]
   27bbc:	a810      	add	r0, sp, #64	@ 0x40
   27bbe:	7880      	ldrb	r0, [r0, #2]
   27bc0:	70a0      	strb	r0, [r4, #2]
   27bc2:	1de0      	adds	r0, r4, #7
   27bc4:	4927      	ldr	r1, [pc, #156]	@ (27c64 <_start+0x1fd0>)
   27bc6:	4469      	add	r1, sp
   27bc8:	2231      	movs	r2, #49	@ 0x31
   27bca:	f001 fc9e 	bl	2950a <__aeabi_memcpy>
   27bce:	4d24      	ldr	r5, [pc, #144]	@ (27c60 <_start+0x1fcc>)
   27bd0:	446d      	add	r5, sp
   27bd2:	4628      	mov	r0, r5
   27bd4:	4621      	mov	r1, r4
   27bd6:	f7fb f8f9 	bl	22dcc <_ZN20complex_full_dynamic3app17h8726b965dc661c92E>
   27bda:	7828      	ldrb	r0, [r5, #0]
   27bdc:	2801      	cmp	r0, #1
   27bde:	d105      	bne.n	27bec <_start+0x1f58>
   27be0:	990c      	ldr	r1, [sp, #48]	@ 0x30
   27be2:	6e09      	ldr	r1, [r1, #96]	@ 0x60
   27be4:	910b      	str	r1, [sp, #44]	@ 0x2c
   27be6:	e015      	b.n	27c14 <_start+0x1f80>
   27be8:	00001414 	.word	0x00001414
   27bec:	491c      	ldr	r1, [pc, #112]	@ (27c60 <_start+0x1fcc>)
   27bee:	4469      	add	r1, sp
   27bf0:	78ca      	ldrb	r2, [r1, #3]
   27bf2:	ab10      	add	r3, sp, #64	@ 0x40
   27bf4:	709a      	strb	r2, [r3, #2]
   27bf6:	784a      	ldrb	r2, [r1, #1]
   27bf8:	788c      	ldrb	r4, [r1, #2]
   27bfa:	0224      	lsls	r4, r4, #8
   27bfc:	18a2      	adds	r2, r4, r2
   27bfe:	801a      	strh	r2, [r3, #0]
   27c00:	3108      	adds	r1, #8
   27c02:	9a0c      	ldr	r2, [sp, #48]	@ 0x30
   27c04:	6e12      	ldr	r2, [r2, #96]	@ 0x60
   27c06:	920b      	str	r2, [sp, #44]	@ 0x2c
   27c08:	4a16      	ldr	r2, [pc, #88]	@ (27c64 <_start+0x1fd0>)
   27c0a:	446a      	add	r2, sp
   27c0c:	c978      	ldmia	r1!, {r3, r4, r5, r6}
   27c0e:	c278      	stmia	r2!, {r3, r4, r5, r6}
   27c10:	c978      	ldmia	r1!, {r3, r4, r5, r6}
   27c12:	c278      	stmia	r2!, {r3, r4, r5, r6}
   27c14:	2800      	cmp	r0, #0
   27c16:	d001      	beq.n	27c1c <_start+0x1f88>
   27c18:	f7fe fbca 	bl	263b0 <_start+0x71c>
   27c1c:	4c1a      	ldr	r4, [pc, #104]	@ (27c88 <_start+0x1ff4>)
   27c1e:	446c      	add	r4, sp
   27c20:	990b      	ldr	r1, [sp, #44]	@ 0x2c
   27c22:	70e1      	strb	r1, [r4, #3]
   27c24:	9810      	ldr	r0, [sp, #64]	@ 0x40
   27c26:	8020      	strh	r0, [r4, #0]
   27c28:	0e08      	lsrs	r0, r1, #24
   27c2a:	71a0      	strb	r0, [r4, #6]
   27c2c:	0c08      	lsrs	r0, r1, #16
   27c2e:	7160      	strb	r0, [r4, #5]
   27c30:	0a08      	lsrs	r0, r1, #8
   27c32:	7120      	strb	r0, [r4, #4]
   27c34:	a810      	add	r0, sp, #64	@ 0x40
   27c36:	7880      	ldrb	r0, [r0, #2]
   27c38:	70a0      	strb	r0, [r4, #2]
   27c3a:	1de0      	adds	r0, r4, #7
   27c3c:	4909      	ldr	r1, [pc, #36]	@ (27c64 <_start+0x1fd0>)
   27c3e:	4469      	add	r1, sp
   27c40:	2220      	movs	r2, #32
   27c42:	f001 fc62 	bl	2950a <__aeabi_memcpy>
   27c46:	4d06      	ldr	r5, [pc, #24]	@ (27c60 <_start+0x1fcc>)
   27c48:	446d      	add	r5, sp
   27c4a:	4628      	mov	r0, r5
   27c4c:	4621      	mov	r1, r4
   27c4e:	f7f8 fa49 	bl	200e4 <_ZN20complex_full_dynamic3app17h06498c92c38dbe5aE>
   27c52:	782c      	ldrb	r4, [r5, #0]
   27c54:	2c01      	cmp	r4, #1
   27c56:	d119      	bne.n	27c8c <_start+0x1ff8>
   27c58:	980c      	ldr	r0, [sp, #48]	@ 0x30
   27c5a:	6e06      	ldr	r6, [r0, #96]	@ 0x60
   27c5c:	e028      	b.n	27cb0 <_start+0x201c>
   27c5e:	46c0      	nop			@ (mov r8, r8)
   27c60:	00001414 	.word	0x00001414
   27c64:	000013b8 	.word	0x000013b8
   27c68:	000008e8 	.word	0x000008e8
   27c6c:	0000090c 	.word	0x0000090c
   27c70:	00000938 	.word	0x00000938
   27c74:	00000948 	.word	0x00000948
   27c78:	0000096c 	.word	0x0000096c
   27c7c:	000009c0 	.word	0x000009c0
   27c80:	00000a10 	.word	0x00000a10
   27c84:	00000a4c 	.word	0x00000a4c
   27c88:	00000a84 	.word	0x00000a84
   27c8c:	49fd      	ldr	r1, [pc, #1012]	@ (28084 <_start+0x23f0>)
   27c8e:	4469      	add	r1, sp
   27c90:	78c8      	ldrb	r0, [r1, #3]
   27c92:	aa10      	add	r2, sp, #64	@ 0x40
   27c94:	7090      	strb	r0, [r2, #2]
   27c96:	7848      	ldrb	r0, [r1, #1]
   27c98:	788b      	ldrb	r3, [r1, #2]
   27c9a:	021b      	lsls	r3, r3, #8
   27c9c:	1818      	adds	r0, r3, r0
   27c9e:	8010      	strh	r0, [r2, #0]
   27ca0:	980c      	ldr	r0, [sp, #48]	@ 0x30
   27ca2:	6e06      	ldr	r6, [r0, #96]	@ 0x60
   27ca4:	3108      	adds	r1, #8
   27ca6:	48f8      	ldr	r0, [pc, #992]	@ (28088 <_start+0x23f4>)
   27ca8:	4468      	add	r0, sp
   27caa:	224a      	movs	r2, #74	@ 0x4a
   27cac:	f001 facd 	bl	2924a <__aeabi_memcpy4>
   27cb0:	2c00      	cmp	r4, #0
   27cb2:	d001      	beq.n	27cb8 <_start+0x2024>
   27cb4:	f7fe fa0f 	bl	260d6 <_start+0x442>
   27cb8:	4cf4      	ldr	r4, [pc, #976]	@ (2808c <_start+0x23f8>)
   27cba:	446c      	add	r4, sp
   27cbc:	70e6      	strb	r6, [r4, #3]
   27cbe:	9810      	ldr	r0, [sp, #64]	@ 0x40
   27cc0:	8020      	strh	r0, [r4, #0]
   27cc2:	0e30      	lsrs	r0, r6, #24
   27cc4:	71a0      	strb	r0, [r4, #6]
   27cc6:	0c30      	lsrs	r0, r6, #16
   27cc8:	7160      	strb	r0, [r4, #5]
   27cca:	0a30      	lsrs	r0, r6, #8
   27ccc:	7120      	strb	r0, [r4, #4]
   27cce:	a810      	add	r0, sp, #64	@ 0x40
   27cd0:	7880      	ldrb	r0, [r0, #2]
   27cd2:	70a0      	strb	r0, [r4, #2]
   27cd4:	1de0      	adds	r0, r4, #7
   27cd6:	49ec      	ldr	r1, [pc, #944]	@ (28088 <_start+0x23f4>)
   27cd8:	4469      	add	r1, sp
   27cda:	224a      	movs	r2, #74	@ 0x4a
   27cdc:	f001 fc15 	bl	2950a <__aeabi_memcpy>
   27ce0:	4de8      	ldr	r5, [pc, #928]	@ (28084 <_start+0x23f0>)
   27ce2:	446d      	add	r5, sp
   27ce4:	4628      	mov	r0, r5
   27ce6:	4621      	mov	r1, r4
   27ce8:	f7f8 fce6 	bl	206b8 <_ZN20complex_full_dynamic3app17h14c96f965c82d859E>
   27cec:	782c      	ldrb	r4, [r5, #0]
   27cee:	2c01      	cmp	r4, #1
   27cf0:	d102      	bne.n	27cf8 <_start+0x2064>
   27cf2:	980c      	ldr	r0, [sp, #48]	@ 0x30
   27cf4:	6e06      	ldr	r6, [r0, #96]	@ 0x60
   27cf6:	e011      	b.n	27d1c <_start+0x2088>
   27cf8:	49e2      	ldr	r1, [pc, #904]	@ (28084 <_start+0x23f0>)
   27cfa:	4469      	add	r1, sp
   27cfc:	78c8      	ldrb	r0, [r1, #3]
   27cfe:	aa10      	add	r2, sp, #64	@ 0x40
   27d00:	7090      	strb	r0, [r2, #2]
   27d02:	7848      	ldrb	r0, [r1, #1]
   27d04:	788b      	ldrb	r3, [r1, #2]
   27d06:	021b      	lsls	r3, r3, #8
   27d08:	1818      	adds	r0, r3, r0
   27d0a:	8010      	strh	r0, [r2, #0]
   27d0c:	980c      	ldr	r0, [sp, #48]	@ 0x30
   27d0e:	6e06      	ldr	r6, [r0, #96]	@ 0x60
   27d10:	3108      	adds	r1, #8
   27d12:	48dd      	ldr	r0, [pc, #884]	@ (28088 <_start+0x23f4>)
   27d14:	4468      	add	r0, sp
   27d16:	2248      	movs	r2, #72	@ 0x48
   27d18:	f001 fa97 	bl	2924a <__aeabi_memcpy4>
   27d1c:	2c00      	cmp	r4, #0
   27d1e:	d001      	beq.n	27d24 <_start+0x2090>
   27d20:	f7fe f9d9 	bl	260d6 <_start+0x442>
   27d24:	4cda      	ldr	r4, [pc, #872]	@ (28090 <_start+0x23fc>)
   27d26:	446c      	add	r4, sp
   27d28:	70e6      	strb	r6, [r4, #3]
   27d2a:	9810      	ldr	r0, [sp, #64]	@ 0x40
   27d2c:	8020      	strh	r0, [r4, #0]
   27d2e:	0e30      	lsrs	r0, r6, #24
   27d30:	71a0      	strb	r0, [r4, #6]
   27d32:	0c30      	lsrs	r0, r6, #16
   27d34:	7160      	strb	r0, [r4, #5]
   27d36:	0a30      	lsrs	r0, r6, #8
   27d38:	7120      	strb	r0, [r4, #4]
   27d3a:	a810      	add	r0, sp, #64	@ 0x40
   27d3c:	7880      	ldrb	r0, [r0, #2]
   27d3e:	70a0      	strb	r0, [r4, #2]
   27d40:	1de0      	adds	r0, r4, #7
   27d42:	49d1      	ldr	r1, [pc, #836]	@ (28088 <_start+0x23f4>)
   27d44:	4469      	add	r1, sp
   27d46:	2248      	movs	r2, #72	@ 0x48
   27d48:	f001 fbdf 	bl	2950a <__aeabi_memcpy>
   27d4c:	4dcd      	ldr	r5, [pc, #820]	@ (28084 <_start+0x23f0>)
   27d4e:	446d      	add	r5, sp
   27d50:	4628      	mov	r0, r5
   27d52:	4621      	mov	r1, r4
   27d54:	f7fd fc36 	bl	255c4 <_ZN20complex_full_dynamic3app17hf49af07eb621761eE>
   27d58:	782c      	ldrb	r4, [r5, #0]
   27d5a:	2c01      	cmp	r4, #1
   27d5c:	d102      	bne.n	27d64 <_start+0x20d0>
   27d5e:	980c      	ldr	r0, [sp, #48]	@ 0x30
   27d60:	6e06      	ldr	r6, [r0, #96]	@ 0x60
   27d62:	e011      	b.n	27d88 <_start+0x20f4>
   27d64:	49c7      	ldr	r1, [pc, #796]	@ (28084 <_start+0x23f0>)
   27d66:	4469      	add	r1, sp
   27d68:	78c8      	ldrb	r0, [r1, #3]
   27d6a:	aa10      	add	r2, sp, #64	@ 0x40
   27d6c:	7090      	strb	r0, [r2, #2]
   27d6e:	7848      	ldrb	r0, [r1, #1]
   27d70:	788b      	ldrb	r3, [r1, #2]
   27d72:	021b      	lsls	r3, r3, #8
   27d74:	1818      	adds	r0, r3, r0
   27d76:	8010      	strh	r0, [r2, #0]
   27d78:	980c      	ldr	r0, [sp, #48]	@ 0x30
   27d7a:	6e06      	ldr	r6, [r0, #96]	@ 0x60
   27d7c:	3108      	adds	r1, #8
   27d7e:	48c2      	ldr	r0, [pc, #776]	@ (28088 <_start+0x23f4>)
   27d80:	4468      	add	r0, sp
   27d82:	225a      	movs	r2, #90	@ 0x5a
   27d84:	f001 fa61 	bl	2924a <__aeabi_memcpy4>
   27d88:	2c00      	cmp	r4, #0
   27d8a:	d001      	beq.n	27d90 <_start+0x20fc>
   27d8c:	f7fe f9a3 	bl	260d6 <_start+0x442>
   27d90:	4cc0      	ldr	r4, [pc, #768]	@ (28094 <_start+0x2400>)
   27d92:	446c      	add	r4, sp
   27d94:	70e6      	strb	r6, [r4, #3]
   27d96:	9810      	ldr	r0, [sp, #64]	@ 0x40
   27d98:	8020      	strh	r0, [r4, #0]
   27d9a:	0e30      	lsrs	r0, r6, #24
   27d9c:	71a0      	strb	r0, [r4, #6]
   27d9e:	0c30      	lsrs	r0, r6, #16
   27da0:	7160      	strb	r0, [r4, #5]
   27da2:	0a30      	lsrs	r0, r6, #8
   27da4:	7120      	strb	r0, [r4, #4]
   27da6:	a810      	add	r0, sp, #64	@ 0x40
   27da8:	7880      	ldrb	r0, [r0, #2]
   27daa:	70a0      	strb	r0, [r4, #2]
   27dac:	1de0      	adds	r0, r4, #7
   27dae:	49b6      	ldr	r1, [pc, #728]	@ (28088 <_start+0x23f4>)
   27db0:	4469      	add	r1, sp
   27db2:	225a      	movs	r2, #90	@ 0x5a
   27db4:	f001 fba9 	bl	2950a <__aeabi_memcpy>
   27db8:	4db2      	ldr	r5, [pc, #712]	@ (28084 <_start+0x23f0>)
   27dba:	446d      	add	r5, sp
   27dbc:	4628      	mov	r0, r5
   27dbe:	4621      	mov	r1, r4
   27dc0:	f7fb ff3e 	bl	23c40 <_ZN20complex_full_dynamic3app17hb852560064460e75E>
   27dc4:	7828      	ldrb	r0, [r5, #0]
   27dc6:	2801      	cmp	r0, #1
   27dc8:	d102      	bne.n	27dd0 <_start+0x213c>
   27dca:	990c      	ldr	r1, [sp, #48]	@ 0x30
   27dcc:	6e0e      	ldr	r6, [r1, #96]	@ 0x60
   27dce:	e016      	b.n	27dfe <_start+0x216a>
   27dd0:	49ac      	ldr	r1, [pc, #688]	@ (28084 <_start+0x23f0>)
   27dd2:	4469      	add	r1, sp
   27dd4:	78ca      	ldrb	r2, [r1, #3]
   27dd6:	ab10      	add	r3, sp, #64	@ 0x40
   27dd8:	709a      	strb	r2, [r3, #2]
   27dda:	784a      	ldrb	r2, [r1, #1]
   27ddc:	788c      	ldrb	r4, [r1, #2]
   27dde:	0224      	lsls	r4, r4, #8
   27de0:	18a2      	adds	r2, r4, r2
   27de2:	801a      	strh	r2, [r3, #0]
   27de4:	3108      	adds	r1, #8
   27de6:	9a0c      	ldr	r2, [sp, #48]	@ 0x30
   27de8:	6e16      	ldr	r6, [r2, #96]	@ 0x60
   27dea:	4aa7      	ldr	r2, [pc, #668]	@ (28088 <_start+0x23f4>)
   27dec:	446a      	add	r2, sp
   27dee:	c918      	ldmia	r1!, {r3, r4}
   27df0:	c218      	stmia	r2!, {r3, r4}
   27df2:	c938      	ldmia	r1!, {r3, r4, r5}
   27df4:	c238      	stmia	r2!, {r3, r4, r5}
   27df6:	880b      	ldrh	r3, [r1, #0]
   27df8:	8013      	strh	r3, [r2, #0]
   27dfa:	7889      	ldrb	r1, [r1, #2]
   27dfc:	7091      	strb	r1, [r2, #2]
   27dfe:	2800      	cmp	r0, #0
   27e00:	d001      	beq.n	27e06 <_start+0x2172>
   27e02:	f7fe f968 	bl	260d6 <_start+0x442>
   27e06:	4ca4      	ldr	r4, [pc, #656]	@ (28098 <_start+0x2404>)
   27e08:	446c      	add	r4, sp
   27e0a:	70e6      	strb	r6, [r4, #3]
   27e0c:	9810      	ldr	r0, [sp, #64]	@ 0x40
   27e0e:	8020      	strh	r0, [r4, #0]
   27e10:	0e30      	lsrs	r0, r6, #24
   27e12:	71a0      	strb	r0, [r4, #6]
   27e14:	0c30      	lsrs	r0, r6, #16
   27e16:	7160      	strb	r0, [r4, #5]
   27e18:	0a30      	lsrs	r0, r6, #8
   27e1a:	7120      	strb	r0, [r4, #4]
   27e1c:	a810      	add	r0, sp, #64	@ 0x40
   27e1e:	7880      	ldrb	r0, [r0, #2]
   27e20:	70a0      	strb	r0, [r4, #2]
   27e22:	1de0      	adds	r0, r4, #7
   27e24:	4998      	ldr	r1, [pc, #608]	@ (28088 <_start+0x23f4>)
   27e26:	4469      	add	r1, sp
   27e28:	2217      	movs	r2, #23
   27e2a:	f001 fb6e 	bl	2950a <__aeabi_memcpy>
   27e2e:	4d95      	ldr	r5, [pc, #596]	@ (28084 <_start+0x23f0>)
   27e30:	446d      	add	r5, sp
   27e32:	4628      	mov	r0, r5
   27e34:	4621      	mov	r1, r4
   27e36:	f7fc f883 	bl	23f40 <_ZN20complex_full_dynamic3app17hbc332013b7d6c7b6E>
   27e3a:	7828      	ldrb	r0, [r5, #0]
   27e3c:	2801      	cmp	r0, #1
   27e3e:	d102      	bne.n	27e46 <_start+0x21b2>
   27e40:	990c      	ldr	r1, [sp, #48]	@ 0x30
   27e42:	6e0e      	ldr	r6, [r1, #96]	@ 0x60
   27e44:	e014      	b.n	27e70 <_start+0x21dc>
   27e46:	498f      	ldr	r1, [pc, #572]	@ (28084 <_start+0x23f0>)
   27e48:	4469      	add	r1, sp
   27e4a:	78ca      	ldrb	r2, [r1, #3]
   27e4c:	ab10      	add	r3, sp, #64	@ 0x40
   27e4e:	709a      	strb	r2, [r3, #2]
   27e50:	784a      	ldrb	r2, [r1, #1]
   27e52:	788c      	ldrb	r4, [r1, #2]
   27e54:	0224      	lsls	r4, r4, #8
   27e56:	18a2      	adds	r2, r4, r2
   27e58:	801a      	strh	r2, [r3, #0]
   27e5a:	3108      	adds	r1, #8
   27e5c:	9a0c      	ldr	r2, [sp, #48]	@ 0x30
   27e5e:	6e16      	ldr	r6, [r2, #96]	@ 0x60
   27e60:	4a89      	ldr	r2, [pc, #548]	@ (28088 <_start+0x23f4>)
   27e62:	446a      	add	r2, sp
   27e64:	c938      	ldmia	r1!, {r3, r4, r5}
   27e66:	c238      	stmia	r2!, {r3, r4, r5}
   27e68:	c938      	ldmia	r1!, {r3, r4, r5}
   27e6a:	c238      	stmia	r2!, {r3, r4, r5}
   27e6c:	8809      	ldrh	r1, [r1, #0]
   27e6e:	8011      	strh	r1, [r2, #0]
   27e70:	2800      	cmp	r0, #0
   27e72:	d001      	beq.n	27e78 <_start+0x21e4>
   27e74:	f7fe f92f 	bl	260d6 <_start+0x442>
   27e78:	4c88      	ldr	r4, [pc, #544]	@ (2809c <_start+0x2408>)
   27e7a:	446c      	add	r4, sp
   27e7c:	70e6      	strb	r6, [r4, #3]
   27e7e:	9810      	ldr	r0, [sp, #64]	@ 0x40
   27e80:	8020      	strh	r0, [r4, #0]
   27e82:	0e30      	lsrs	r0, r6, #24
   27e84:	71a0      	strb	r0, [r4, #6]
   27e86:	0c30      	lsrs	r0, r6, #16
   27e88:	7160      	strb	r0, [r4, #5]
   27e8a:	0a30      	lsrs	r0, r6, #8
   27e8c:	7120      	strb	r0, [r4, #4]
   27e8e:	a810      	add	r0, sp, #64	@ 0x40
   27e90:	7880      	ldrb	r0, [r0, #2]
   27e92:	70a0      	strb	r0, [r4, #2]
   27e94:	1de0      	adds	r0, r4, #7
   27e96:	497c      	ldr	r1, [pc, #496]	@ (28088 <_start+0x23f4>)
   27e98:	4469      	add	r1, sp
   27e9a:	221a      	movs	r2, #26
   27e9c:	f001 fb35 	bl	2950a <__aeabi_memcpy>
   27ea0:	4d78      	ldr	r5, [pc, #480]	@ (28084 <_start+0x23f0>)
   27ea2:	446d      	add	r5, sp
   27ea4:	4628      	mov	r0, r5
   27ea6:	4621      	mov	r1, r4
   27ea8:	f7fd fb12 	bl	254d0 <_ZN20complex_full_dynamic3app17hf0a22f0b61049a8aE>
   27eac:	7828      	ldrb	r0, [r5, #0]
   27eae:	2801      	cmp	r0, #1
   27eb0:	d103      	bne.n	27eba <_start+0x2226>
   27eb2:	990c      	ldr	r1, [sp, #48]	@ 0x30
   27eb4:	6e09      	ldr	r1, [r1, #96]	@ 0x60
   27eb6:	910b      	str	r1, [sp, #44]	@ 0x2c
   27eb8:	e017      	b.n	27eea <_start+0x2256>
   27eba:	4972      	ldr	r1, [pc, #456]	@ (28084 <_start+0x23f0>)
   27ebc:	4469      	add	r1, sp
   27ebe:	78ca      	ldrb	r2, [r1, #3]
   27ec0:	ab10      	add	r3, sp, #64	@ 0x40
   27ec2:	709a      	strb	r2, [r3, #2]
   27ec4:	784a      	ldrb	r2, [r1, #1]
   27ec6:	788c      	ldrb	r4, [r1, #2]
   27ec8:	0224      	lsls	r4, r4, #8
   27eca:	18a2      	adds	r2, r4, r2
   27ecc:	801a      	strh	r2, [r3, #0]
   27ece:	3108      	adds	r1, #8
   27ed0:	9a0c      	ldr	r2, [sp, #48]	@ 0x30
   27ed2:	6e12      	ldr	r2, [r2, #96]	@ 0x60
   27ed4:	920b      	str	r2, [sp, #44]	@ 0x2c
   27ed6:	4a6c      	ldr	r2, [pc, #432]	@ (28088 <_start+0x23f4>)
   27ed8:	446a      	add	r2, sp
   27eda:	c978      	ldmia	r1!, {r3, r4, r5, r6}
   27edc:	c278      	stmia	r2!, {r3, r4, r5, r6}
   27ede:	c978      	ldmia	r1!, {r3, r4, r5, r6}
   27ee0:	c278      	stmia	r2!, {r3, r4, r5, r6}
   27ee2:	880b      	ldrh	r3, [r1, #0]
   27ee4:	8013      	strh	r3, [r2, #0]
   27ee6:	7889      	ldrb	r1, [r1, #2]
   27ee8:	7091      	strb	r1, [r2, #2]
   27eea:	2800      	cmp	r0, #0
   27eec:	d001      	beq.n	27ef2 <_start+0x225e>
   27eee:	f7fe fa5f 	bl	263b0 <_start+0x71c>
   27ef2:	4c6b      	ldr	r4, [pc, #428]	@ (280a0 <_start+0x240c>)
   27ef4:	446c      	add	r4, sp
   27ef6:	990b      	ldr	r1, [sp, #44]	@ 0x2c
   27ef8:	70e1      	strb	r1, [r4, #3]
   27efa:	9810      	ldr	r0, [sp, #64]	@ 0x40
   27efc:	8020      	strh	r0, [r4, #0]
   27efe:	0e08      	lsrs	r0, r1, #24
   27f00:	71a0      	strb	r0, [r4, #6]
   27f02:	0c08      	lsrs	r0, r1, #16
   27f04:	7160      	strb	r0, [r4, #5]
   27f06:	0a08      	lsrs	r0, r1, #8
   27f08:	7120      	strb	r0, [r4, #4]
   27f0a:	a810      	add	r0, sp, #64	@ 0x40
   27f0c:	7880      	ldrb	r0, [r0, #2]
   27f0e:	70a0      	strb	r0, [r4, #2]
   27f10:	1de0      	adds	r0, r4, #7
   27f12:	495d      	ldr	r1, [pc, #372]	@ (28088 <_start+0x23f4>)
   27f14:	4469      	add	r1, sp
   27f16:	2223      	movs	r2, #35	@ 0x23
   27f18:	f001 faf7 	bl	2950a <__aeabi_memcpy>
   27f1c:	4d59      	ldr	r5, [pc, #356]	@ (28084 <_start+0x23f0>)
   27f1e:	446d      	add	r5, sp
   27f20:	4628      	mov	r0, r5
   27f22:	4621      	mov	r1, r4
   27f24:	f7fd fd42 	bl	259ac <_ZN20complex_full_dynamic3app17hfd2888a15b6220b2E>
   27f28:	782c      	ldrb	r4, [r5, #0]
   27f2a:	2c01      	cmp	r4, #1
   27f2c:	d102      	bne.n	27f34 <_start+0x22a0>
   27f2e:	980c      	ldr	r0, [sp, #48]	@ 0x30
   27f30:	6e06      	ldr	r6, [r0, #96]	@ 0x60
   27f32:	e011      	b.n	27f58 <_start+0x22c4>
   27f34:	4953      	ldr	r1, [pc, #332]	@ (28084 <_start+0x23f0>)
   27f36:	4469      	add	r1, sp
   27f38:	78c8      	ldrb	r0, [r1, #3]
   27f3a:	aa10      	add	r2, sp, #64	@ 0x40
   27f3c:	7090      	strb	r0, [r2, #2]
   27f3e:	7848      	ldrb	r0, [r1, #1]
   27f40:	788b      	ldrb	r3, [r1, #2]
   27f42:	021b      	lsls	r3, r3, #8
   27f44:	1818      	adds	r0, r3, r0
   27f46:	8010      	strh	r0, [r2, #0]
   27f48:	980c      	ldr	r0, [sp, #48]	@ 0x30
   27f4a:	6e06      	ldr	r6, [r0, #96]	@ 0x60
   27f4c:	3108      	adds	r1, #8
   27f4e:	484e      	ldr	r0, [pc, #312]	@ (28088 <_start+0x23f4>)
   27f50:	4468      	add	r0, sp
   27f52:	2252      	movs	r2, #82	@ 0x52
   27f54:	f001 f979 	bl	2924a <__aeabi_memcpy4>
   27f58:	2c00      	cmp	r4, #0
   27f5a:	d001      	beq.n	27f60 <_start+0x22cc>
   27f5c:	f7fe f8bb 	bl	260d6 <_start+0x442>
   27f60:	4c50      	ldr	r4, [pc, #320]	@ (280a4 <_start+0x2410>)
   27f62:	446c      	add	r4, sp
   27f64:	70e6      	strb	r6, [r4, #3]
   27f66:	9810      	ldr	r0, [sp, #64]	@ 0x40
   27f68:	8020      	strh	r0, [r4, #0]
   27f6a:	0e30      	lsrs	r0, r6, #24
   27f6c:	71a0      	strb	r0, [r4, #6]
   27f6e:	0c30      	lsrs	r0, r6, #16
   27f70:	7160      	strb	r0, [r4, #5]
   27f72:	0a30      	lsrs	r0, r6, #8
   27f74:	7120      	strb	r0, [r4, #4]
   27f76:	a810      	add	r0, sp, #64	@ 0x40
   27f78:	7880      	ldrb	r0, [r0, #2]
   27f7a:	70a0      	strb	r0, [r4, #2]
   27f7c:	1de0      	adds	r0, r4, #7
   27f7e:	4942      	ldr	r1, [pc, #264]	@ (28088 <_start+0x23f4>)
   27f80:	4469      	add	r1, sp
   27f82:	2252      	movs	r2, #82	@ 0x52
   27f84:	f001 fac1 	bl	2950a <__aeabi_memcpy>
   27f88:	4d3e      	ldr	r5, [pc, #248]	@ (28084 <_start+0x23f0>)
   27f8a:	446d      	add	r5, sp
   27f8c:	4628      	mov	r0, r5
   27f8e:	4621      	mov	r1, r4
   27f90:	f7fd f8ac 	bl	250ec <_ZN20complex_full_dynamic3app17he74b648bff7f359cE>
   27f94:	782c      	ldrb	r4, [r5, #0]
   27f96:	2c01      	cmp	r4, #1
   27f98:	d102      	bne.n	27fa0 <_start+0x230c>
   27f9a:	980c      	ldr	r0, [sp, #48]	@ 0x30
   27f9c:	6e06      	ldr	r6, [r0, #96]	@ 0x60
   27f9e:	e011      	b.n	27fc4 <_start+0x2330>
   27fa0:	4938      	ldr	r1, [pc, #224]	@ (28084 <_start+0x23f0>)
   27fa2:	4469      	add	r1, sp
   27fa4:	78c8      	ldrb	r0, [r1, #3]
   27fa6:	aa10      	add	r2, sp, #64	@ 0x40
   27fa8:	7090      	strb	r0, [r2, #2]
   27faa:	7848      	ldrb	r0, [r1, #1]
   27fac:	788b      	ldrb	r3, [r1, #2]
   27fae:	021b      	lsls	r3, r3, #8
   27fb0:	1818      	adds	r0, r3, r0
   27fb2:	8010      	strh	r0, [r2, #0]
   27fb4:	980c      	ldr	r0, [sp, #48]	@ 0x30
   27fb6:	6e06      	ldr	r6, [r0, #96]	@ 0x60
   27fb8:	3108      	adds	r1, #8
   27fba:	4833      	ldr	r0, [pc, #204]	@ (28088 <_start+0x23f4>)
   27fbc:	4468      	add	r0, sp
   27fbe:	2243      	movs	r2, #67	@ 0x43
   27fc0:	f001 f943 	bl	2924a <__aeabi_memcpy4>
   27fc4:	2c00      	cmp	r4, #0
   27fc6:	d001      	beq.n	27fcc <_start+0x2338>
   27fc8:	f7fe f885 	bl	260d6 <_start+0x442>
   27fcc:	4c36      	ldr	r4, [pc, #216]	@ (280a8 <_start+0x2414>)
   27fce:	446c      	add	r4, sp
   27fd0:	70e6      	strb	r6, [r4, #3]
   27fd2:	9810      	ldr	r0, [sp, #64]	@ 0x40
   27fd4:	8020      	strh	r0, [r4, #0]
   27fd6:	0e30      	lsrs	r0, r6, #24
   27fd8:	71a0      	strb	r0, [r4, #6]
   27fda:	0c30      	lsrs	r0, r6, #16
   27fdc:	7160      	strb	r0, [r4, #5]
   27fde:	0a30      	lsrs	r0, r6, #8
   27fe0:	7120      	strb	r0, [r4, #4]
   27fe2:	a810      	add	r0, sp, #64	@ 0x40
   27fe4:	7880      	ldrb	r0, [r0, #2]
   27fe6:	70a0      	strb	r0, [r4, #2]
   27fe8:	1de0      	adds	r0, r4, #7
   27fea:	4927      	ldr	r1, [pc, #156]	@ (28088 <_start+0x23f4>)
   27fec:	4469      	add	r1, sp
   27fee:	2243      	movs	r2, #67	@ 0x43
   27ff0:	f001 fa8b 	bl	2950a <__aeabi_memcpy>
   27ff4:	4d23      	ldr	r5, [pc, #140]	@ (28084 <_start+0x23f0>)
   27ff6:	446d      	add	r5, sp
   27ff8:	4628      	mov	r0, r5
   27ffa:	4621      	mov	r1, r4
   27ffc:	f7f8 f9e4 	bl	203c8 <_ZN20complex_full_dynamic3app17h13edd9194ae0b381E>
   28000:	7828      	ldrb	r0, [r5, #0]
   28002:	2801      	cmp	r0, #1
   28004:	d102      	bne.n	2800c <_start+0x2378>
   28006:	990c      	ldr	r1, [sp, #48]	@ 0x30
   28008:	6e0e      	ldr	r6, [r1, #96]	@ 0x60
   2800a:	e016      	b.n	2803a <_start+0x23a6>
   2800c:	491d      	ldr	r1, [pc, #116]	@ (28084 <_start+0x23f0>)
   2800e:	4469      	add	r1, sp
   28010:	78ca      	ldrb	r2, [r1, #3]
   28012:	ab10      	add	r3, sp, #64	@ 0x40
   28014:	709a      	strb	r2, [r3, #2]
   28016:	784a      	ldrb	r2, [r1, #1]
   28018:	788c      	ldrb	r4, [r1, #2]
   2801a:	0224      	lsls	r4, r4, #8
   2801c:	18a2      	adds	r2, r4, r2
   2801e:	801a      	strh	r2, [r3, #0]
   28020:	3108      	adds	r1, #8
   28022:	9a0c      	ldr	r2, [sp, #48]	@ 0x30
   28024:	6e16      	ldr	r6, [r2, #96]	@ 0x60
   28026:	4a18      	ldr	r2, [pc, #96]	@ (28088 <_start+0x23f4>)
   28028:	446a      	add	r2, sp
   2802a:	c938      	ldmia	r1!, {r3, r4, r5}
   2802c:	c238      	stmia	r2!, {r3, r4, r5}
   2802e:	c938      	ldmia	r1!, {r3, r4, r5}
   28030:	c238      	stmia	r2!, {r3, r4, r5}
   28032:	c938      	ldmia	r1!, {r3, r4, r5}
   28034:	c238      	stmia	r2!, {r3, r4, r5}
   28036:	8809      	ldrh	r1, [r1, #0]
   28038:	8011      	strh	r1, [r2, #0]
   2803a:	2800      	cmp	r0, #0
   2803c:	d001      	beq.n	28042 <_start+0x23ae>
   2803e:	f7fe f84a 	bl	260d6 <_start+0x442>
   28042:	4c1a      	ldr	r4, [pc, #104]	@ (280ac <_start+0x2418>)
   28044:	446c      	add	r4, sp
   28046:	70e6      	strb	r6, [r4, #3]
   28048:	9810      	ldr	r0, [sp, #64]	@ 0x40
   2804a:	8020      	strh	r0, [r4, #0]
   2804c:	0e30      	lsrs	r0, r6, #24
   2804e:	71a0      	strb	r0, [r4, #6]
   28050:	0c30      	lsrs	r0, r6, #16
   28052:	7160      	strb	r0, [r4, #5]
   28054:	0a30      	lsrs	r0, r6, #8
   28056:	7120      	strb	r0, [r4, #4]
   28058:	a810      	add	r0, sp, #64	@ 0x40
   2805a:	7880      	ldrb	r0, [r0, #2]
   2805c:	70a0      	strb	r0, [r4, #2]
   2805e:	1de0      	adds	r0, r4, #7
   28060:	4909      	ldr	r1, [pc, #36]	@ (28088 <_start+0x23f4>)
   28062:	4469      	add	r1, sp
   28064:	2226      	movs	r2, #38	@ 0x26
   28066:	f001 fa50 	bl	2950a <__aeabi_memcpy>
   2806a:	4d06      	ldr	r5, [pc, #24]	@ (28084 <_start+0x23f0>)
   2806c:	446d      	add	r5, sp
   2806e:	4628      	mov	r0, r5
   28070:	4621      	mov	r1, r4
   28072:	f7fc fb45 	bl	24700 <_ZN20complex_full_dynamic3app17hcece4acb67dd641fE>
   28076:	782c      	ldrb	r4, [r5, #0]
   28078:	2c01      	cmp	r4, #1
   2807a:	d119      	bne.n	280b0 <_start+0x241c>
   2807c:	980c      	ldr	r0, [sp, #48]	@ 0x30
   2807e:	6e06      	ldr	r6, [r0, #96]	@ 0x60
   28080:	e028      	b.n	280d4 <_start+0x2440>
   28082:	46c0      	nop			@ (mov r8, r8)
   28084:	00001414 	.word	0x00001414
   28088:	000013b8 	.word	0x000013b8
   2808c:	00000aac 	.word	0x00000aac
   28090:	00000b00 	.word	0x00000b00
   28094:	00000b50 	.word	0x00000b50
   28098:	00000bb4 	.word	0x00000bb4
   2809c:	00000bd4 	.word	0x00000bd4
   280a0:	00000bf8 	.word	0x00000bf8
   280a4:	00000c24 	.word	0x00000c24
   280a8:	00000c80 	.word	0x00000c80
   280ac:	00000ccc 	.word	0x00000ccc
   280b0:	49eb      	ldr	r1, [pc, #940]	@ (28460 <_start+0x27cc>)
   280b2:	4469      	add	r1, sp
   280b4:	78c8      	ldrb	r0, [r1, #3]
   280b6:	aa10      	add	r2, sp, #64	@ 0x40
   280b8:	7090      	strb	r0, [r2, #2]
   280ba:	7848      	ldrb	r0, [r1, #1]
   280bc:	788b      	ldrb	r3, [r1, #2]
   280be:	021b      	lsls	r3, r3, #8
   280c0:	1818      	adds	r0, r3, r0
   280c2:	8010      	strh	r0, [r2, #0]
   280c4:	980c      	ldr	r0, [sp, #48]	@ 0x30
   280c6:	6e06      	ldr	r6, [r0, #96]	@ 0x60
   280c8:	3108      	adds	r1, #8
   280ca:	48e6      	ldr	r0, [pc, #920]	@ (28464 <_start+0x27d0>)
   280cc:	4468      	add	r0, sp
   280ce:	224c      	movs	r2, #76	@ 0x4c
   280d0:	f001 f8bb 	bl	2924a <__aeabi_memcpy4>
   280d4:	2c00      	cmp	r4, #0
   280d6:	d001      	beq.n	280dc <_start+0x2448>
   280d8:	f7fd fffd 	bl	260d6 <_start+0x442>
   280dc:	4ce2      	ldr	r4, [pc, #904]	@ (28468 <_start+0x27d4>)
   280de:	446c      	add	r4, sp
   280e0:	70e6      	strb	r6, [r4, #3]
   280e2:	9810      	ldr	r0, [sp, #64]	@ 0x40
   280e4:	8020      	strh	r0, [r4, #0]
   280e6:	0e30      	lsrs	r0, r6, #24
   280e8:	71a0      	strb	r0, [r4, #6]
   280ea:	0c30      	lsrs	r0, r6, #16
   280ec:	7160      	strb	r0, [r4, #5]
   280ee:	0a30      	lsrs	r0, r6, #8
   280f0:	7120      	strb	r0, [r4, #4]
   280f2:	a810      	add	r0, sp, #64	@ 0x40
   280f4:	7880      	ldrb	r0, [r0, #2]
   280f6:	70a0      	strb	r0, [r4, #2]
   280f8:	1de0      	adds	r0, r4, #7
   280fa:	49da      	ldr	r1, [pc, #872]	@ (28464 <_start+0x27d0>)
   280fc:	4469      	add	r1, sp
   280fe:	224c      	movs	r2, #76	@ 0x4c
   28100:	f001 fa03 	bl	2950a <__aeabi_memcpy>
   28104:	4dd6      	ldr	r5, [pc, #856]	@ (28460 <_start+0x27cc>)
   28106:	446d      	add	r5, sp
   28108:	4628      	mov	r0, r5
   2810a:	4621      	mov	r1, r4
   2810c:	f7f8 fd42 	bl	20b94 <_ZN20complex_full_dynamic3app17h24901cd8328df0c1E>
   28110:	7828      	ldrb	r0, [r5, #0]
   28112:	2801      	cmp	r0, #1
   28114:	d103      	bne.n	2811e <_start+0x248a>
   28116:	990c      	ldr	r1, [sp, #48]	@ 0x30
   28118:	6e09      	ldr	r1, [r1, #96]	@ 0x60
   2811a:	910b      	str	r1, [sp, #44]	@ 0x2c
   2811c:	e019      	b.n	28152 <_start+0x24be>
   2811e:	49d0      	ldr	r1, [pc, #832]	@ (28460 <_start+0x27cc>)
   28120:	4469      	add	r1, sp
   28122:	78ca      	ldrb	r2, [r1, #3]
   28124:	ab10      	add	r3, sp, #64	@ 0x40
   28126:	709a      	strb	r2, [r3, #2]
   28128:	784a      	ldrb	r2, [r1, #1]
   2812a:	788c      	ldrb	r4, [r1, #2]
   2812c:	0224      	lsls	r4, r4, #8
   2812e:	18a2      	adds	r2, r4, r2
   28130:	801a      	strh	r2, [r3, #0]
   28132:	3108      	adds	r1, #8
   28134:	9a0c      	ldr	r2, [sp, #48]	@ 0x30
   28136:	6e12      	ldr	r2, [r2, #96]	@ 0x60
   28138:	920b      	str	r2, [sp, #44]	@ 0x2c
   2813a:	4aca      	ldr	r2, [pc, #808]	@ (28464 <_start+0x27d0>)
   2813c:	446a      	add	r2, sp
   2813e:	c978      	ldmia	r1!, {r3, r4, r5, r6}
   28140:	c278      	stmia	r2!, {r3, r4, r5, r6}
   28142:	c978      	ldmia	r1!, {r3, r4, r5, r6}
   28144:	c278      	stmia	r2!, {r3, r4, r5, r6}
   28146:	c978      	ldmia	r1!, {r3, r4, r5, r6}
   28148:	c278      	stmia	r2!, {r3, r4, r5, r6}
   2814a:	880b      	ldrh	r3, [r1, #0]
   2814c:	8013      	strh	r3, [r2, #0]
   2814e:	7889      	ldrb	r1, [r1, #2]
   28150:	7091      	strb	r1, [r2, #2]
   28152:	2800      	cmp	r0, #0
   28154:	d001      	beq.n	2815a <_start+0x24c6>
   28156:	f7fe f92b 	bl	263b0 <_start+0x71c>
   2815a:	4cc4      	ldr	r4, [pc, #784]	@ (2846c <_start+0x27d8>)
   2815c:	446c      	add	r4, sp
   2815e:	990b      	ldr	r1, [sp, #44]	@ 0x2c
   28160:	70e1      	strb	r1, [r4, #3]
   28162:	9810      	ldr	r0, [sp, #64]	@ 0x40
   28164:	8020      	strh	r0, [r4, #0]
   28166:	0e08      	lsrs	r0, r1, #24
   28168:	71a0      	strb	r0, [r4, #6]
   2816a:	0c08      	lsrs	r0, r1, #16
   2816c:	7160      	strb	r0, [r4, #5]
   2816e:	0a08      	lsrs	r0, r1, #8
   28170:	7120      	strb	r0, [r4, #4]
   28172:	a810      	add	r0, sp, #64	@ 0x40
   28174:	7880      	ldrb	r0, [r0, #2]
   28176:	70a0      	strb	r0, [r4, #2]
   28178:	1de0      	adds	r0, r4, #7
   2817a:	49ba      	ldr	r1, [pc, #744]	@ (28464 <_start+0x27d0>)
   2817c:	4469      	add	r1, sp
   2817e:	2233      	movs	r2, #51	@ 0x33
   28180:	f001 f9c3 	bl	2950a <__aeabi_memcpy>
   28184:	4db6      	ldr	r5, [pc, #728]	@ (28460 <_start+0x27cc>)
   28186:	446d      	add	r5, sp
   28188:	4628      	mov	r0, r5
   2818a:	4621      	mov	r1, r4
   2818c:	f7fb fa7a 	bl	23684 <_ZN20complex_full_dynamic3app17ha4e5c76228f8e77cE>
   28190:	782c      	ldrb	r4, [r5, #0]
   28192:	2c01      	cmp	r4, #1
   28194:	d102      	bne.n	2819c <_start+0x2508>
   28196:	980c      	ldr	r0, [sp, #48]	@ 0x30
   28198:	6e06      	ldr	r6, [r0, #96]	@ 0x60
   2819a:	e011      	b.n	281c0 <_start+0x252c>
   2819c:	49b0      	ldr	r1, [pc, #704]	@ (28460 <_start+0x27cc>)
   2819e:	4469      	add	r1, sp
   281a0:	78c8      	ldrb	r0, [r1, #3]
   281a2:	aa10      	add	r2, sp, #64	@ 0x40
   281a4:	7090      	strb	r0, [r2, #2]
   281a6:	7848      	ldrb	r0, [r1, #1]
   281a8:	788b      	ldrb	r3, [r1, #2]
   281aa:	021b      	lsls	r3, r3, #8
   281ac:	1818      	adds	r0, r3, r0
   281ae:	8010      	strh	r0, [r2, #0]
   281b0:	980c      	ldr	r0, [sp, #48]	@ 0x30
   281b2:	6e06      	ldr	r6, [r0, #96]	@ 0x60
   281b4:	3108      	adds	r1, #8
   281b6:	48ab      	ldr	r0, [pc, #684]	@ (28464 <_start+0x27d0>)
   281b8:	4468      	add	r0, sp
   281ba:	2256      	movs	r2, #86	@ 0x56
   281bc:	f001 f845 	bl	2924a <__aeabi_memcpy4>
   281c0:	2c00      	cmp	r4, #0
   281c2:	d001      	beq.n	281c8 <_start+0x2534>
   281c4:	f7fd ff87 	bl	260d6 <_start+0x442>
   281c8:	4ca9      	ldr	r4, [pc, #676]	@ (28470 <_start+0x27dc>)
   281ca:	446c      	add	r4, sp
   281cc:	70e6      	strb	r6, [r4, #3]
   281ce:	9810      	ldr	r0, [sp, #64]	@ 0x40
   281d0:	8020      	strh	r0, [r4, #0]
   281d2:	0e30      	lsrs	r0, r6, #24
   281d4:	71a0      	strb	r0, [r4, #6]
   281d6:	0c30      	lsrs	r0, r6, #16
   281d8:	7160      	strb	r0, [r4, #5]
   281da:	0a30      	lsrs	r0, r6, #8
   281dc:	7120      	strb	r0, [r4, #4]
   281de:	a810      	add	r0, sp, #64	@ 0x40
   281e0:	7880      	ldrb	r0, [r0, #2]
   281e2:	70a0      	strb	r0, [r4, #2]
   281e4:	1de0      	adds	r0, r4, #7
   281e6:	499f      	ldr	r1, [pc, #636]	@ (28464 <_start+0x27d0>)
   281e8:	4469      	add	r1, sp
   281ea:	2256      	movs	r2, #86	@ 0x56
   281ec:	f001 f98d 	bl	2950a <__aeabi_memcpy>
   281f0:	4d9b      	ldr	r5, [pc, #620]	@ (28460 <_start+0x27cc>)
   281f2:	446d      	add	r5, sp
   281f4:	4628      	mov	r0, r5
   281f6:	4621      	mov	r1, r4
   281f8:	f7fc fafe 	bl	247f8 <_ZN20complex_full_dynamic3app17hd8b818a697a333a0E>
   281fc:	7828      	ldrb	r0, [r5, #0]
   281fe:	2801      	cmp	r0, #1
   28200:	d103      	bne.n	2820a <_start+0x2576>
   28202:	990c      	ldr	r1, [sp, #48]	@ 0x30
   28204:	6e09      	ldr	r1, [r1, #96]	@ 0x60
   28206:	910b      	str	r1, [sp, #44]	@ 0x2c
   28208:	e019      	b.n	2823e <_start+0x25aa>
   2820a:	4995      	ldr	r1, [pc, #596]	@ (28460 <_start+0x27cc>)
   2820c:	4469      	add	r1, sp
   2820e:	78ca      	ldrb	r2, [r1, #3]
   28210:	ab10      	add	r3, sp, #64	@ 0x40
   28212:	709a      	strb	r2, [r3, #2]
   28214:	784a      	ldrb	r2, [r1, #1]
   28216:	788c      	ldrb	r4, [r1, #2]
   28218:	0224      	lsls	r4, r4, #8
   2821a:	18a2      	adds	r2, r4, r2
   2821c:	801a      	strh	r2, [r3, #0]
   2821e:	3108      	adds	r1, #8
   28220:	9a0c      	ldr	r2, [sp, #48]	@ 0x30
   28222:	6e12      	ldr	r2, [r2, #96]	@ 0x60
   28224:	920b      	str	r2, [sp, #44]	@ 0x2c
   28226:	4a8f      	ldr	r2, [pc, #572]	@ (28464 <_start+0x27d0>)
   28228:	446a      	add	r2, sp
   2822a:	c938      	ldmia	r1!, {r3, r4, r5}
   2822c:	c238      	stmia	r2!, {r3, r4, r5}
   2822e:	c978      	ldmia	r1!, {r3, r4, r5, r6}
   28230:	c278      	stmia	r2!, {r3, r4, r5, r6}
   28232:	c938      	ldmia	r1!, {r3, r4, r5}
   28234:	c238      	stmia	r2!, {r3, r4, r5}
   28236:	c978      	ldmia	r1!, {r3, r4, r5, r6}
   28238:	c278      	stmia	r2!, {r3, r4, r5, r6}
   2823a:	7809      	ldrb	r1, [r1, #0]
   2823c:	7011      	strb	r1, [r2, #0]
   2823e:	2800      	cmp	r0, #0
   28240:	d001      	beq.n	28246 <_start+0x25b2>
   28242:	f7fe f8b5 	bl	263b0 <_start+0x71c>
   28246:	4c8b      	ldr	r4, [pc, #556]	@ (28474 <_start+0x27e0>)
   28248:	446c      	add	r4, sp
   2824a:	990b      	ldr	r1, [sp, #44]	@ 0x2c
   2824c:	70e1      	strb	r1, [r4, #3]
   2824e:	9810      	ldr	r0, [sp, #64]	@ 0x40
   28250:	8020      	strh	r0, [r4, #0]
   28252:	0e08      	lsrs	r0, r1, #24
   28254:	71a0      	strb	r0, [r4, #6]
   28256:	0c08      	lsrs	r0, r1, #16
   28258:	7160      	strb	r0, [r4, #5]
   2825a:	0a08      	lsrs	r0, r1, #8
   2825c:	7120      	strb	r0, [r4, #4]
   2825e:	a810      	add	r0, sp, #64	@ 0x40
   28260:	7880      	ldrb	r0, [r0, #2]
   28262:	70a0      	strb	r0, [r4, #2]
   28264:	1de0      	adds	r0, r4, #7
   28266:	497f      	ldr	r1, [pc, #508]	@ (28464 <_start+0x27d0>)
   28268:	4469      	add	r1, sp
   2826a:	2239      	movs	r2, #57	@ 0x39
   2826c:	f001 f94d 	bl	2950a <__aeabi_memcpy>
   28270:	4d7b      	ldr	r5, [pc, #492]	@ (28460 <_start+0x27cc>)
   28272:	446d      	add	r5, sp
   28274:	4628      	mov	r0, r5
   28276:	4621      	mov	r1, r4
   28278:	f7fb fa7e 	bl	23778 <_ZN20complex_full_dynamic3app17ha8cc341149531477E>
   2827c:	7828      	ldrb	r0, [r5, #0]
   2827e:	2801      	cmp	r0, #1
   28280:	d103      	bne.n	2828a <_start+0x25f6>
   28282:	990c      	ldr	r1, [sp, #48]	@ 0x30
   28284:	6e09      	ldr	r1, [r1, #96]	@ 0x60
   28286:	910b      	str	r1, [sp, #44]	@ 0x2c
   28288:	e017      	b.n	282ba <_start+0x2626>
   2828a:	4975      	ldr	r1, [pc, #468]	@ (28460 <_start+0x27cc>)
   2828c:	4469      	add	r1, sp
   2828e:	78ca      	ldrb	r2, [r1, #3]
   28290:	ab10      	add	r3, sp, #64	@ 0x40
   28292:	709a      	strb	r2, [r3, #2]
   28294:	784a      	ldrb	r2, [r1, #1]
   28296:	788c      	ldrb	r4, [r1, #2]
   28298:	0224      	lsls	r4, r4, #8
   2829a:	18a2      	adds	r2, r4, r2
   2829c:	801a      	strh	r2, [r3, #0]
   2829e:	3108      	adds	r1, #8
   282a0:	9a0c      	ldr	r2, [sp, #48]	@ 0x30
   282a2:	6e12      	ldr	r2, [r2, #96]	@ 0x60
   282a4:	920b      	str	r2, [sp, #44]	@ 0x2c
   282a6:	4a6f      	ldr	r2, [pc, #444]	@ (28464 <_start+0x27d0>)
   282a8:	446a      	add	r2, sp
   282aa:	c938      	ldmia	r1!, {r3, r4, r5}
   282ac:	c238      	stmia	r2!, {r3, r4, r5}
   282ae:	c938      	ldmia	r1!, {r3, r4, r5}
   282b0:	c238      	stmia	r2!, {r3, r4, r5}
   282b2:	c978      	ldmia	r1!, {r3, r4, r5, r6}
   282b4:	c278      	stmia	r2!, {r3, r4, r5, r6}
   282b6:	8809      	ldrh	r1, [r1, #0]
   282b8:	8011      	strh	r1, [r2, #0]
   282ba:	2800      	cmp	r0, #0
   282bc:	d001      	beq.n	282c2 <_start+0x262e>
   282be:	f7fe f877 	bl	263b0 <_start+0x71c>
   282c2:	4c6d      	ldr	r4, [pc, #436]	@ (28478 <_start+0x27e4>)
   282c4:	446c      	add	r4, sp
   282c6:	990b      	ldr	r1, [sp, #44]	@ 0x2c
   282c8:	70e1      	strb	r1, [r4, #3]
   282ca:	9810      	ldr	r0, [sp, #64]	@ 0x40
   282cc:	8020      	strh	r0, [r4, #0]
   282ce:	0e08      	lsrs	r0, r1, #24
   282d0:	71a0      	strb	r0, [r4, #6]
   282d2:	0c08      	lsrs	r0, r1, #16
   282d4:	7160      	strb	r0, [r4, #5]
   282d6:	0a08      	lsrs	r0, r1, #8
   282d8:	7120      	strb	r0, [r4, #4]
   282da:	a810      	add	r0, sp, #64	@ 0x40
   282dc:	7880      	ldrb	r0, [r0, #2]
   282de:	70a0      	strb	r0, [r4, #2]
   282e0:	1de0      	adds	r0, r4, #7
   282e2:	4960      	ldr	r1, [pc, #384]	@ (28464 <_start+0x27d0>)
   282e4:	4469      	add	r1, sp
   282e6:	222a      	movs	r2, #42	@ 0x2a
   282e8:	f001 f90f 	bl	2950a <__aeabi_memcpy>
   282ec:	4d5c      	ldr	r5, [pc, #368]	@ (28460 <_start+0x27cc>)
   282ee:	446d      	add	r5, sp
   282f0:	4628      	mov	r0, r5
   282f2:	4621      	mov	r1, r4
   282f4:	f7f8 ffb4 	bl	21260 <_ZN20complex_full_dynamic3app17h3906c371e101182bE>
   282f8:	782c      	ldrb	r4, [r5, #0]
   282fa:	2c01      	cmp	r4, #1
   282fc:	d102      	bne.n	28304 <_start+0x2670>
   282fe:	980c      	ldr	r0, [sp, #48]	@ 0x30
   28300:	6e06      	ldr	r6, [r0, #96]	@ 0x60
   28302:	e011      	b.n	28328 <_start+0x2694>
   28304:	4956      	ldr	r1, [pc, #344]	@ (28460 <_start+0x27cc>)
   28306:	4469      	add	r1, sp
   28308:	78c8      	ldrb	r0, [r1, #3]
   2830a:	aa10      	add	r2, sp, #64	@ 0x40
   2830c:	7090      	strb	r0, [r2, #2]
   2830e:	7848      	ldrb	r0, [r1, #1]
   28310:	788b      	ldrb	r3, [r1, #2]
   28312:	021b      	lsls	r3, r3, #8
   28314:	1818      	adds	r0, r3, r0
   28316:	8010      	strh	r0, [r2, #0]
   28318:	980c      	ldr	r0, [sp, #48]	@ 0x30
   2831a:	6e06      	ldr	r6, [r0, #96]	@ 0x60
   2831c:	3108      	adds	r1, #8
   2831e:	4851      	ldr	r0, [pc, #324]	@ (28464 <_start+0x27d0>)
   28320:	4468      	add	r0, sp
   28322:	2241      	movs	r2, #65	@ 0x41
   28324:	f000 ff91 	bl	2924a <__aeabi_memcpy4>
   28328:	2c00      	cmp	r4, #0
   2832a:	d001      	beq.n	28330 <_start+0x269c>
   2832c:	f7fd fed3 	bl	260d6 <_start+0x442>
   28330:	4c52      	ldr	r4, [pc, #328]	@ (2847c <_start+0x27e8>)
   28332:	446c      	add	r4, sp
   28334:	70e6      	strb	r6, [r4, #3]
   28336:	9810      	ldr	r0, [sp, #64]	@ 0x40
   28338:	8020      	strh	r0, [r4, #0]
   2833a:	0e30      	lsrs	r0, r6, #24
   2833c:	71a0      	strb	r0, [r4, #6]
   2833e:	0c30      	lsrs	r0, r6, #16
   28340:	7160      	strb	r0, [r4, #5]
   28342:	0a30      	lsrs	r0, r6, #8
   28344:	7120      	strb	r0, [r4, #4]
   28346:	a810      	add	r0, sp, #64	@ 0x40
   28348:	7880      	ldrb	r0, [r0, #2]
   2834a:	70a0      	strb	r0, [r4, #2]
   2834c:	1de0      	adds	r0, r4, #7
   2834e:	4945      	ldr	r1, [pc, #276]	@ (28464 <_start+0x27d0>)
   28350:	4469      	add	r1, sp
   28352:	2241      	movs	r2, #65	@ 0x41
   28354:	f001 f8d9 	bl	2950a <__aeabi_memcpy>
   28358:	4d41      	ldr	r5, [pc, #260]	@ (28460 <_start+0x27cc>)
   2835a:	446d      	add	r5, sp
   2835c:	4628      	mov	r0, r5
   2835e:	4621      	mov	r1, r4
   28360:	f7f9 fcee 	bl	21d40 <_ZN20complex_full_dynamic3app17h61e7b1a56a25f3aaE>
   28364:	7828      	ldrb	r0, [r5, #0]
   28366:	2801      	cmp	r0, #1
   28368:	d103      	bne.n	28372 <_start+0x26de>
   2836a:	990c      	ldr	r1, [sp, #48]	@ 0x30
   2836c:	6e09      	ldr	r1, [r1, #96]	@ 0x60
   2836e:	910b      	str	r1, [sp, #44]	@ 0x2c
   28370:	e015      	b.n	2839e <_start+0x270a>
   28372:	493b      	ldr	r1, [pc, #236]	@ (28460 <_start+0x27cc>)
   28374:	4469      	add	r1, sp
   28376:	78ca      	ldrb	r2, [r1, #3]
   28378:	ab10      	add	r3, sp, #64	@ 0x40
   2837a:	709a      	strb	r2, [r3, #2]
   2837c:	784a      	ldrb	r2, [r1, #1]
   2837e:	788c      	ldrb	r4, [r1, #2]
   28380:	0224      	lsls	r4, r4, #8
   28382:	18a2      	adds	r2, r4, r2
   28384:	801a      	strh	r2, [r3, #0]
   28386:	3108      	adds	r1, #8
   28388:	9a0c      	ldr	r2, [sp, #48]	@ 0x30
   2838a:	6e12      	ldr	r2, [r2, #96]	@ 0x60
   2838c:	920b      	str	r2, [sp, #44]	@ 0x2c
   2838e:	4a35      	ldr	r2, [pc, #212]	@ (28464 <_start+0x27d0>)
   28390:	446a      	add	r2, sp
   28392:	c978      	ldmia	r1!, {r3, r4, r5, r6}
   28394:	c278      	stmia	r2!, {r3, r4, r5, r6}
   28396:	c978      	ldmia	r1!, {r3, r4, r5, r6}
   28398:	c278      	stmia	r2!, {r3, r4, r5, r6}
   2839a:	8809      	ldrh	r1, [r1, #0]
   2839c:	8011      	strh	r1, [r2, #0]
   2839e:	2800      	cmp	r0, #0
   283a0:	d001      	beq.n	283a6 <_start+0x2712>
   283a2:	f7fe f805 	bl	263b0 <_start+0x71c>
   283a6:	4c36      	ldr	r4, [pc, #216]	@ (28480 <_start+0x27ec>)
   283a8:	446c      	add	r4, sp
   283aa:	990b      	ldr	r1, [sp, #44]	@ 0x2c
   283ac:	70e1      	strb	r1, [r4, #3]
   283ae:	9810      	ldr	r0, [sp, #64]	@ 0x40
   283b0:	8020      	strh	r0, [r4, #0]
   283b2:	0e08      	lsrs	r0, r1, #24
   283b4:	71a0      	strb	r0, [r4, #6]
   283b6:	0c08      	lsrs	r0, r1, #16
   283b8:	7160      	strb	r0, [r4, #5]
   283ba:	0a08      	lsrs	r0, r1, #8
   283bc:	7120      	strb	r0, [r4, #4]
   283be:	a810      	add	r0, sp, #64	@ 0x40
   283c0:	7880      	ldrb	r0, [r0, #2]
   283c2:	70a0      	strb	r0, [r4, #2]
   283c4:	1de0      	adds	r0, r4, #7
   283c6:	4927      	ldr	r1, [pc, #156]	@ (28464 <_start+0x27d0>)
   283c8:	4469      	add	r1, sp
   283ca:	2222      	movs	r2, #34	@ 0x22
   283cc:	f001 f89d 	bl	2950a <__aeabi_memcpy>
   283d0:	4d23      	ldr	r5, [pc, #140]	@ (28460 <_start+0x27cc>)
   283d2:	446d      	add	r5, sp
   283d4:	4628      	mov	r0, r5
   283d6:	4621      	mov	r1, r4
   283d8:	f7fc fc06 	bl	24be8 <_ZN20complex_full_dynamic3app17hdb8fb1220a2a14f4E>
   283dc:	7828      	ldrb	r0, [r5, #0]
   283de:	2801      	cmp	r0, #1
   283e0:	d103      	bne.n	283ea <_start+0x2756>
   283e2:	990c      	ldr	r1, [sp, #48]	@ 0x30
   283e4:	6e09      	ldr	r1, [r1, #96]	@ 0x60
   283e6:	910b      	str	r1, [sp, #44]	@ 0x2c
   283e8:	e015      	b.n	28416 <_start+0x2782>
   283ea:	491d      	ldr	r1, [pc, #116]	@ (28460 <_start+0x27cc>)
   283ec:	4469      	add	r1, sp
   283ee:	78ca      	ldrb	r2, [r1, #3]
   283f0:	ab10      	add	r3, sp, #64	@ 0x40
   283f2:	709a      	strb	r2, [r3, #2]
   283f4:	784a      	ldrb	r2, [r1, #1]
   283f6:	788c      	ldrb	r4, [r1, #2]
   283f8:	0224      	lsls	r4, r4, #8
   283fa:	18a2      	adds	r2, r4, r2
   283fc:	801a      	strh	r2, [r3, #0]
   283fe:	3108      	adds	r1, #8
   28400:	9a0c      	ldr	r2, [sp, #48]	@ 0x30
   28402:	6e12      	ldr	r2, [r2, #96]	@ 0x60
   28404:	920b      	str	r2, [sp, #44]	@ 0x2c
   28406:	4a17      	ldr	r2, [pc, #92]	@ (28464 <_start+0x27d0>)
   28408:	446a      	add	r2, sp
   2840a:	c978      	ldmia	r1!, {r3, r4, r5, r6}
   2840c:	c278      	stmia	r2!, {r3, r4, r5, r6}
   2840e:	880b      	ldrh	r3, [r1, #0]
   28410:	8013      	strh	r3, [r2, #0]
   28412:	7889      	ldrb	r1, [r1, #2]
   28414:	7091      	strb	r1, [r2, #2]
   28416:	2800      	cmp	r0, #0
   28418:	d001      	beq.n	2841e <_start+0x278a>
   2841a:	f7fd ffc9 	bl	263b0 <_start+0x71c>
   2841e:	4c19      	ldr	r4, [pc, #100]	@ (28484 <_start+0x27f0>)
   28420:	446c      	add	r4, sp
   28422:	990b      	ldr	r1, [sp, #44]	@ 0x2c
   28424:	70e1      	strb	r1, [r4, #3]
   28426:	9810      	ldr	r0, [sp, #64]	@ 0x40
   28428:	8020      	strh	r0, [r4, #0]
   2842a:	0e08      	lsrs	r0, r1, #24
   2842c:	71a0      	strb	r0, [r4, #6]
   2842e:	0c08      	lsrs	r0, r1, #16
   28430:	7160      	strb	r0, [r4, #5]
   28432:	0a08      	lsrs	r0, r1, #8
   28434:	7120      	strb	r0, [r4, #4]
   28436:	a810      	add	r0, sp, #64	@ 0x40
   28438:	7880      	ldrb	r0, [r0, #2]
   2843a:	70a0      	strb	r0, [r4, #2]
   2843c:	1de0      	adds	r0, r4, #7
   2843e:	4909      	ldr	r1, [pc, #36]	@ (28464 <_start+0x27d0>)
   28440:	4469      	add	r1, sp
   28442:	2213      	movs	r2, #19
   28444:	f001 f861 	bl	2950a <__aeabi_memcpy>
   28448:	4d05      	ldr	r5, [pc, #20]	@ (28460 <_start+0x27cc>)
   2844a:	446d      	add	r5, sp
   2844c:	4628      	mov	r0, r5
   2844e:	4621      	mov	r1, r4
   28450:	f7fb fc7a 	bl	23d48 <_ZN20complex_full_dynamic3app17hb914198c37f53890E>
   28454:	7828      	ldrb	r0, [r5, #0]
   28456:	2801      	cmp	r0, #1
   28458:	d116      	bne.n	28488 <_start+0x27f4>
   2845a:	990c      	ldr	r1, [sp, #48]	@ 0x30
   2845c:	6e0e      	ldr	r6, [r1, #96]	@ 0x60
   2845e:	e026      	b.n	284ae <_start+0x281a>
   28460:	00001414 	.word	0x00001414
   28464:	000013b8 	.word	0x000013b8
   28468:	00000cfc 	.word	0x00000cfc
   2846c:	00000d50 	.word	0x00000d50
   28470:	00000d8c 	.word	0x00000d8c
   28474:	00000dec 	.word	0x00000dec
   28478:	00000e2c 	.word	0x00000e2c
   2847c:	00000e60 	.word	0x00000e60
   28480:	00000ea8 	.word	0x00000ea8
   28484:	00000ed4 	.word	0x00000ed4
   28488:	49eb      	ldr	r1, [pc, #940]	@ (28838 <_start+0x2ba4>)
   2848a:	4469      	add	r1, sp
   2848c:	78ca      	ldrb	r2, [r1, #3]
   2848e:	ab10      	add	r3, sp, #64	@ 0x40
   28490:	709a      	strb	r2, [r3, #2]
   28492:	784a      	ldrb	r2, [r1, #1]
   28494:	788c      	ldrb	r4, [r1, #2]
   28496:	0224      	lsls	r4, r4, #8
   28498:	18a2      	adds	r2, r4, r2
   2849a:	801a      	strh	r2, [r3, #0]
   2849c:	3108      	adds	r1, #8
   2849e:	9a0c      	ldr	r2, [sp, #48]	@ 0x30
   284a0:	6e16      	ldr	r6, [r2, #96]	@ 0x60
   284a2:	4ae6      	ldr	r2, [pc, #920]	@ (2883c <_start+0x2ba8>)
   284a4:	446a      	add	r2, sp
   284a6:	c918      	ldmia	r1!, {r3, r4}
   284a8:	c218      	stmia	r2!, {r3, r4}
   284aa:	c938      	ldmia	r1!, {r3, r4, r5}
   284ac:	c238      	stmia	r2!, {r3, r4, r5}
   284ae:	2800      	cmp	r0, #0
   284b0:	d001      	beq.n	284b6 <_start+0x2822>
   284b2:	f7fd fe10 	bl	260d6 <_start+0x442>
   284b6:	4ce2      	ldr	r4, [pc, #904]	@ (28840 <_start+0x2bac>)
   284b8:	446c      	add	r4, sp
   284ba:	70e6      	strb	r6, [r4, #3]
   284bc:	9810      	ldr	r0, [sp, #64]	@ 0x40
   284be:	8020      	strh	r0, [r4, #0]
   284c0:	0e30      	lsrs	r0, r6, #24
   284c2:	71a0      	strb	r0, [r4, #6]
   284c4:	0c30      	lsrs	r0, r6, #16
   284c6:	7160      	strb	r0, [r4, #5]
   284c8:	0a30      	lsrs	r0, r6, #8
   284ca:	7120      	strb	r0, [r4, #4]
   284cc:	a810      	add	r0, sp, #64	@ 0x40
   284ce:	7880      	ldrb	r0, [r0, #2]
   284d0:	70a0      	strb	r0, [r4, #2]
   284d2:	1de0      	adds	r0, r4, #7
   284d4:	49d9      	ldr	r1, [pc, #868]	@ (2883c <_start+0x2ba8>)
   284d6:	4469      	add	r1, sp
   284d8:	2214      	movs	r2, #20
   284da:	f001 f816 	bl	2950a <__aeabi_memcpy>
   284de:	4dd6      	ldr	r5, [pc, #856]	@ (28838 <_start+0x2ba4>)
   284e0:	446d      	add	r5, sp
   284e2:	4628      	mov	r0, r5
   284e4:	4621      	mov	r1, r4
   284e6:	f7fd f963 	bl	257b0 <_ZN20complex_full_dynamic3app17hf78d658d70adf068E>
   284ea:	7828      	ldrb	r0, [r5, #0]
   284ec:	2801      	cmp	r0, #1
   284ee:	d103      	bne.n	284f8 <_start+0x2864>
   284f0:	990c      	ldr	r1, [sp, #48]	@ 0x30
   284f2:	6e09      	ldr	r1, [r1, #96]	@ 0x60
   284f4:	910b      	str	r1, [sp, #44]	@ 0x2c
   284f6:	e019      	b.n	2852c <_start+0x2898>
   284f8:	49cf      	ldr	r1, [pc, #828]	@ (28838 <_start+0x2ba4>)
   284fa:	4469      	add	r1, sp
   284fc:	78ca      	ldrb	r2, [r1, #3]
   284fe:	ab10      	add	r3, sp, #64	@ 0x40
   28500:	709a      	strb	r2, [r3, #2]
   28502:	784a      	ldrb	r2, [r1, #1]
   28504:	788c      	ldrb	r4, [r1, #2]
   28506:	0224      	lsls	r4, r4, #8
   28508:	18a2      	adds	r2, r4, r2
   2850a:	801a      	strh	r2, [r3, #0]
   2850c:	3108      	adds	r1, #8
   2850e:	9a0c      	ldr	r2, [sp, #48]	@ 0x30
   28510:	6e12      	ldr	r2, [r2, #96]	@ 0x60
   28512:	920b      	str	r2, [sp, #44]	@ 0x2c
   28514:	4ac9      	ldr	r2, [pc, #804]	@ (2883c <_start+0x2ba8>)
   28516:	446a      	add	r2, sp
   28518:	c938      	ldmia	r1!, {r3, r4, r5}
   2851a:	c238      	stmia	r2!, {r3, r4, r5}
   2851c:	c978      	ldmia	r1!, {r3, r4, r5, r6}
   2851e:	c278      	stmia	r2!, {r3, r4, r5, r6}
   28520:	c938      	ldmia	r1!, {r3, r4, r5}
   28522:	c238      	stmia	r2!, {r3, r4, r5}
   28524:	c978      	ldmia	r1!, {r3, r4, r5, r6}
   28526:	c278      	stmia	r2!, {r3, r4, r5, r6}
   28528:	8809      	ldrh	r1, [r1, #0]
   2852a:	8011      	strh	r1, [r2, #0]
   2852c:	2800      	cmp	r0, #0
   2852e:	d001      	beq.n	28534 <_start+0x28a0>
   28530:	f7fd ff3e 	bl	263b0 <_start+0x71c>
   28534:	4cc3      	ldr	r4, [pc, #780]	@ (28844 <_start+0x2bb0>)
   28536:	446c      	add	r4, sp
   28538:	990b      	ldr	r1, [sp, #44]	@ 0x2c
   2853a:	70e1      	strb	r1, [r4, #3]
   2853c:	9810      	ldr	r0, [sp, #64]	@ 0x40
   2853e:	8020      	strh	r0, [r4, #0]
   28540:	0e08      	lsrs	r0, r1, #24
   28542:	71a0      	strb	r0, [r4, #6]
   28544:	0c08      	lsrs	r0, r1, #16
   28546:	7160      	strb	r0, [r4, #5]
   28548:	0a08      	lsrs	r0, r1, #8
   2854a:	7120      	strb	r0, [r4, #4]
   2854c:	a810      	add	r0, sp, #64	@ 0x40
   2854e:	7880      	ldrb	r0, [r0, #2]
   28550:	70a0      	strb	r0, [r4, #2]
   28552:	1de0      	adds	r0, r4, #7
   28554:	49b9      	ldr	r1, [pc, #740]	@ (2883c <_start+0x2ba8>)
   28556:	4469      	add	r1, sp
   28558:	223a      	movs	r2, #58	@ 0x3a
   2855a:	f000 ffd6 	bl	2950a <__aeabi_memcpy>
   2855e:	4db6      	ldr	r5, [pc, #728]	@ (28838 <_start+0x2ba4>)
   28560:	446d      	add	r5, sp
   28562:	4628      	mov	r0, r5
   28564:	4621      	mov	r1, r4
   28566:	f7f9 fed1 	bl	2230c <_ZN20complex_full_dynamic3app17h6cd7ae946f522d09E>
   2856a:	7828      	ldrb	r0, [r5, #0]
   2856c:	2801      	cmp	r0, #1
   2856e:	d103      	bne.n	28578 <_start+0x28e4>
   28570:	990c      	ldr	r1, [sp, #48]	@ 0x30
   28572:	6e09      	ldr	r1, [r1, #96]	@ 0x60
   28574:	910b      	str	r1, [sp, #44]	@ 0x2c
   28576:	e013      	b.n	285a0 <_start+0x290c>
   28578:	49af      	ldr	r1, [pc, #700]	@ (28838 <_start+0x2ba4>)
   2857a:	4469      	add	r1, sp
   2857c:	78ca      	ldrb	r2, [r1, #3]
   2857e:	ab10      	add	r3, sp, #64	@ 0x40
   28580:	709a      	strb	r2, [r3, #2]
   28582:	784a      	ldrb	r2, [r1, #1]
   28584:	788c      	ldrb	r4, [r1, #2]
   28586:	0224      	lsls	r4, r4, #8
   28588:	18a2      	adds	r2, r4, r2
   2858a:	801a      	strh	r2, [r3, #0]
   2858c:	3108      	adds	r1, #8
   2858e:	9a0c      	ldr	r2, [sp, #48]	@ 0x30
   28590:	6e12      	ldr	r2, [r2, #96]	@ 0x60
   28592:	920b      	str	r2, [sp, #44]	@ 0x2c
   28594:	4aa9      	ldr	r2, [pc, #676]	@ (2883c <_start+0x2ba8>)
   28596:	446a      	add	r2, sp
   28598:	c978      	ldmia	r1!, {r3, r4, r5, r6}
   2859a:	c278      	stmia	r2!, {r3, r4, r5, r6}
   2859c:	7809      	ldrb	r1, [r1, #0]
   2859e:	7011      	strb	r1, [r2, #0]
   285a0:	2800      	cmp	r0, #0
   285a2:	d001      	beq.n	285a8 <_start+0x2914>
   285a4:	f7fd ff04 	bl	263b0 <_start+0x71c>
   285a8:	4ca7      	ldr	r4, [pc, #668]	@ (28848 <_start+0x2bb4>)
   285aa:	446c      	add	r4, sp
   285ac:	990b      	ldr	r1, [sp, #44]	@ 0x2c
   285ae:	70e1      	strb	r1, [r4, #3]
   285b0:	9810      	ldr	r0, [sp, #64]	@ 0x40
   285b2:	8020      	strh	r0, [r4, #0]
   285b4:	0e08      	lsrs	r0, r1, #24
   285b6:	71a0      	strb	r0, [r4, #6]
   285b8:	0c08      	lsrs	r0, r1, #16
   285ba:	7160      	strb	r0, [r4, #5]
   285bc:	0a08      	lsrs	r0, r1, #8
   285be:	7120      	strb	r0, [r4, #4]
   285c0:	a810      	add	r0, sp, #64	@ 0x40
   285c2:	7880      	ldrb	r0, [r0, #2]
   285c4:	70a0      	strb	r0, [r4, #2]
   285c6:	1de0      	adds	r0, r4, #7
   285c8:	499c      	ldr	r1, [pc, #624]	@ (2883c <_start+0x2ba8>)
   285ca:	4469      	add	r1, sp
   285cc:	2211      	movs	r2, #17
   285ce:	f000 ff9c 	bl	2950a <__aeabi_memcpy>
   285d2:	4d99      	ldr	r5, [pc, #612]	@ (28838 <_start+0x2ba4>)
   285d4:	446d      	add	r5, sp
   285d6:	4628      	mov	r0, r5
   285d8:	4621      	mov	r1, r4
   285da:	f7fc fa81 	bl	24ae0 <_ZN20complex_full_dynamic3app17hdb7a2bf67c8ac092E>
   285de:	7828      	ldrb	r0, [r5, #0]
   285e0:	2801      	cmp	r0, #1
   285e2:	d102      	bne.n	285ea <_start+0x2956>
   285e4:	990c      	ldr	r1, [sp, #48]	@ 0x30
   285e6:	6e0e      	ldr	r6, [r1, #96]	@ 0x60
   285e8:	e016      	b.n	28618 <_start+0x2984>
   285ea:	4993      	ldr	r1, [pc, #588]	@ (28838 <_start+0x2ba4>)
   285ec:	4469      	add	r1, sp
   285ee:	78ca      	ldrb	r2, [r1, #3]
   285f0:	ab10      	add	r3, sp, #64	@ 0x40
   285f2:	709a      	strb	r2, [r3, #2]
   285f4:	784a      	ldrb	r2, [r1, #1]
   285f6:	788c      	ldrb	r4, [r1, #2]
   285f8:	0224      	lsls	r4, r4, #8
   285fa:	18a2      	adds	r2, r4, r2
   285fc:	801a      	strh	r2, [r3, #0]
   285fe:	3108      	adds	r1, #8
   28600:	9a0c      	ldr	r2, [sp, #48]	@ 0x30
   28602:	6e16      	ldr	r6, [r2, #96]	@ 0x60
   28604:	4a8d      	ldr	r2, [pc, #564]	@ (2883c <_start+0x2ba8>)
   28606:	446a      	add	r2, sp
   28608:	c918      	ldmia	r1!, {r3, r4}
   2860a:	c218      	stmia	r2!, {r3, r4}
   2860c:	c938      	ldmia	r1!, {r3, r4, r5}
   2860e:	c238      	stmia	r2!, {r3, r4, r5}
   28610:	880b      	ldrh	r3, [r1, #0]
   28612:	8013      	strh	r3, [r2, #0]
   28614:	7889      	ldrb	r1, [r1, #2]
   28616:	7091      	strb	r1, [r2, #2]
   28618:	2800      	cmp	r0, #0
   2861a:	d001      	beq.n	28620 <_start+0x298c>
   2861c:	f7fd fd5b 	bl	260d6 <_start+0x442>
   28620:	4c8a      	ldr	r4, [pc, #552]	@ (2884c <_start+0x2bb8>)
   28622:	446c      	add	r4, sp
   28624:	70e6      	strb	r6, [r4, #3]
   28626:	9810      	ldr	r0, [sp, #64]	@ 0x40
   28628:	8020      	strh	r0, [r4, #0]
   2862a:	0e30      	lsrs	r0, r6, #24
   2862c:	71a0      	strb	r0, [r4, #6]
   2862e:	0c30      	lsrs	r0, r6, #16
   28630:	7160      	strb	r0, [r4, #5]
   28632:	0a30      	lsrs	r0, r6, #8
   28634:	7120      	strb	r0, [r4, #4]
   28636:	a810      	add	r0, sp, #64	@ 0x40
   28638:	7880      	ldrb	r0, [r0, #2]
   2863a:	70a0      	strb	r0, [r4, #2]
   2863c:	1de0      	adds	r0, r4, #7
   2863e:	497f      	ldr	r1, [pc, #508]	@ (2883c <_start+0x2ba8>)
   28640:	4469      	add	r1, sp
   28642:	2217      	movs	r2, #23
   28644:	f000 ff61 	bl	2950a <__aeabi_memcpy>
   28648:	4d7b      	ldr	r5, [pc, #492]	@ (28838 <_start+0x2ba4>)
   2864a:	446d      	add	r5, sp
   2864c:	4628      	mov	r0, r5
   2864e:	4621      	mov	r1, r4
   28650:	f7fb fa7e 	bl	23b50 <_ZN20complex_full_dynamic3app17hb82f2462c3a584ddE>
   28654:	7828      	ldrb	r0, [r5, #0]
   28656:	2801      	cmp	r0, #1
   28658:	d103      	bne.n	28662 <_start+0x29ce>
   2865a:	990c      	ldr	r1, [sp, #48]	@ 0x30
   2865c:	6e09      	ldr	r1, [r1, #96]	@ 0x60
   2865e:	910b      	str	r1, [sp, #44]	@ 0x2c
   28660:	e019      	b.n	28696 <_start+0x2a02>
   28662:	4975      	ldr	r1, [pc, #468]	@ (28838 <_start+0x2ba4>)
   28664:	4469      	add	r1, sp
   28666:	78ca      	ldrb	r2, [r1, #3]
   28668:	ab10      	add	r3, sp, #64	@ 0x40
   2866a:	709a      	strb	r2, [r3, #2]
   2866c:	784a      	ldrb	r2, [r1, #1]
   2866e:	788c      	ldrb	r4, [r1, #2]
   28670:	0224      	lsls	r4, r4, #8
   28672:	18a2      	adds	r2, r4, r2
   28674:	801a      	strh	r2, [r3, #0]
   28676:	3108      	adds	r1, #8
   28678:	9a0c      	ldr	r2, [sp, #48]	@ 0x30
   2867a:	6e12      	ldr	r2, [r2, #96]	@ 0x60
   2867c:	920b      	str	r2, [sp, #44]	@ 0x2c
   2867e:	4a6f      	ldr	r2, [pc, #444]	@ (2883c <_start+0x2ba8>)
   28680:	446a      	add	r2, sp
   28682:	c938      	ldmia	r1!, {r3, r4, r5}
   28684:	c238      	stmia	r2!, {r3, r4, r5}
   28686:	c938      	ldmia	r1!, {r3, r4, r5}
   28688:	c238      	stmia	r2!, {r3, r4, r5}
   2868a:	c938      	ldmia	r1!, {r3, r4, r5}
   2868c:	c238      	stmia	r2!, {r3, r4, r5}
   2868e:	c978      	ldmia	r1!, {r3, r4, r5, r6}
   28690:	c278      	stmia	r2!, {r3, r4, r5, r6}
   28692:	7809      	ldrb	r1, [r1, #0]
   28694:	7011      	strb	r1, [r2, #0]
   28696:	2800      	cmp	r0, #0
   28698:	d001      	beq.n	2869e <_start+0x2a0a>
   2869a:	f7fd fe89 	bl	263b0 <_start+0x71c>
   2869e:	4c6c      	ldr	r4, [pc, #432]	@ (28850 <_start+0x2bbc>)
   286a0:	446c      	add	r4, sp
   286a2:	990b      	ldr	r1, [sp, #44]	@ 0x2c
   286a4:	70e1      	strb	r1, [r4, #3]
   286a6:	9810      	ldr	r0, [sp, #64]	@ 0x40
   286a8:	8020      	strh	r0, [r4, #0]
   286aa:	0e08      	lsrs	r0, r1, #24
   286ac:	71a0      	strb	r0, [r4, #6]
   286ae:	0c08      	lsrs	r0, r1, #16
   286b0:	7160      	strb	r0, [r4, #5]
   286b2:	0a08      	lsrs	r0, r1, #8
   286b4:	7120      	strb	r0, [r4, #4]
   286b6:	a810      	add	r0, sp, #64	@ 0x40
   286b8:	7880      	ldrb	r0, [r0, #2]
   286ba:	70a0      	strb	r0, [r4, #2]
   286bc:	1de0      	adds	r0, r4, #7
   286be:	495f      	ldr	r1, [pc, #380]	@ (2883c <_start+0x2ba8>)
   286c0:	4469      	add	r1, sp
   286c2:	2235      	movs	r2, #53	@ 0x35
   286c4:	f000 ff21 	bl	2950a <__aeabi_memcpy>
   286c8:	4d5b      	ldr	r5, [pc, #364]	@ (28838 <_start+0x2ba4>)
   286ca:	446d      	add	r5, sp
   286cc:	4628      	mov	r0, r5
   286ce:	4621      	mov	r1, r4
   286d0:	f7fb fbba 	bl	23e48 <_ZN20complex_full_dynamic3app17hb92b641e03175334E>
   286d4:	7828      	ldrb	r0, [r5, #0]
   286d6:	2801      	cmp	r0, #1
   286d8:	d102      	bne.n	286e0 <_start+0x2a4c>
   286da:	990c      	ldr	r1, [sp, #48]	@ 0x30
   286dc:	6e0e      	ldr	r6, [r1, #96]	@ 0x60
   286de:	e016      	b.n	2870e <_start+0x2a7a>
   286e0:	4955      	ldr	r1, [pc, #340]	@ (28838 <_start+0x2ba4>)
   286e2:	4469      	add	r1, sp
   286e4:	78ca      	ldrb	r2, [r1, #3]
   286e6:	ab10      	add	r3, sp, #64	@ 0x40
   286e8:	709a      	strb	r2, [r3, #2]
   286ea:	784a      	ldrb	r2, [r1, #1]
   286ec:	788c      	ldrb	r4, [r1, #2]
   286ee:	0224      	lsls	r4, r4, #8
   286f0:	18a2      	adds	r2, r4, r2
   286f2:	801a      	strh	r2, [r3, #0]
   286f4:	3108      	adds	r1, #8
   286f6:	9a0c      	ldr	r2, [sp, #48]	@ 0x30
   286f8:	6e16      	ldr	r6, [r2, #96]	@ 0x60
   286fa:	4a50      	ldr	r2, [pc, #320]	@ (2883c <_start+0x2ba8>)
   286fc:	446a      	add	r2, sp
   286fe:	c938      	ldmia	r1!, {r3, r4, r5}
   28700:	c238      	stmia	r2!, {r3, r4, r5}
   28702:	c938      	ldmia	r1!, {r3, r4, r5}
   28704:	c238      	stmia	r2!, {r3, r4, r5}
   28706:	c938      	ldmia	r1!, {r3, r4, r5}
   28708:	c238      	stmia	r2!, {r3, r4, r5}
   2870a:	7809      	ldrb	r1, [r1, #0]
   2870c:	7011      	strb	r1, [r2, #0]
   2870e:	2800      	cmp	r0, #0
   28710:	d001      	beq.n	28716 <_start+0x2a82>
   28712:	f7fd fce0 	bl	260d6 <_start+0x442>
   28716:	4c4f      	ldr	r4, [pc, #316]	@ (28854 <_start+0x2bc0>)
   28718:	446c      	add	r4, sp
   2871a:	70e6      	strb	r6, [r4, #3]
   2871c:	9810      	ldr	r0, [sp, #64]	@ 0x40
   2871e:	8020      	strh	r0, [r4, #0]
   28720:	0e30      	lsrs	r0, r6, #24
   28722:	71a0      	strb	r0, [r4, #6]
   28724:	0c30      	lsrs	r0, r6, #16
   28726:	7160      	strb	r0, [r4, #5]
   28728:	0a30      	lsrs	r0, r6, #8
   2872a:	7120      	strb	r0, [r4, #4]
   2872c:	a810      	add	r0, sp, #64	@ 0x40
   2872e:	7880      	ldrb	r0, [r0, #2]
   28730:	70a0      	strb	r0, [r4, #2]
   28732:	1de0      	adds	r0, r4, #7
   28734:	4941      	ldr	r1, [pc, #260]	@ (2883c <_start+0x2ba8>)
   28736:	4469      	add	r1, sp
   28738:	2225      	movs	r2, #37	@ 0x25
   2873a:	f000 fee6 	bl	2950a <__aeabi_memcpy>
   2873e:	4d3e      	ldr	r5, [pc, #248]	@ (28838 <_start+0x2ba4>)
   28740:	446d      	add	r5, sp
   28742:	4628      	mov	r0, r5
   28744:	4621      	mov	r1, r4
   28746:	f7f8 fb1d 	bl	20d84 <_ZN20complex_full_dynamic3app17h2eed261d4020bb3eE>
   2874a:	7828      	ldrb	r0, [r5, #0]
   2874c:	2801      	cmp	r0, #1
   2874e:	d103      	bne.n	28758 <_start+0x2ac4>
   28750:	990c      	ldr	r1, [sp, #48]	@ 0x30
   28752:	6e09      	ldr	r1, [r1, #96]	@ 0x60
   28754:	910b      	str	r1, [sp, #44]	@ 0x2c
   28756:	e013      	b.n	28780 <_start+0x2aec>
   28758:	4937      	ldr	r1, [pc, #220]	@ (28838 <_start+0x2ba4>)
   2875a:	4469      	add	r1, sp
   2875c:	78ca      	ldrb	r2, [r1, #3]
   2875e:	ab10      	add	r3, sp, #64	@ 0x40
   28760:	709a      	strb	r2, [r3, #2]
   28762:	784a      	ldrb	r2, [r1, #1]
   28764:	788c      	ldrb	r4, [r1, #2]
   28766:	0224      	lsls	r4, r4, #8
   28768:	18a2      	adds	r2, r4, r2
   2876a:	801a      	strh	r2, [r3, #0]
   2876c:	3108      	adds	r1, #8
   2876e:	9a0c      	ldr	r2, [sp, #48]	@ 0x30
   28770:	6e12      	ldr	r2, [r2, #96]	@ 0x60
   28772:	920b      	str	r2, [sp, #44]	@ 0x2c
   28774:	4a31      	ldr	r2, [pc, #196]	@ (2883c <_start+0x2ba8>)
   28776:	446a      	add	r2, sp
   28778:	c978      	ldmia	r1!, {r3, r4, r5, r6}
   2877a:	c278      	stmia	r2!, {r3, r4, r5, r6}
   2877c:	c978      	ldmia	r1!, {r3, r4, r5, r6}
   2877e:	c278      	stmia	r2!, {r3, r4, r5, r6}
   28780:	2800      	cmp	r0, #0
   28782:	d001      	beq.n	28788 <_start+0x2af4>
   28784:	f7fd fe14 	bl	263b0 <_start+0x71c>
   28788:	4c33      	ldr	r4, [pc, #204]	@ (28858 <_start+0x2bc4>)
   2878a:	446c      	add	r4, sp
   2878c:	990b      	ldr	r1, [sp, #44]	@ 0x2c
   2878e:	70e1      	strb	r1, [r4, #3]
   28790:	9810      	ldr	r0, [sp, #64]	@ 0x40
   28792:	8020      	strh	r0, [r4, #0]
   28794:	0e08      	lsrs	r0, r1, #24
   28796:	71a0      	strb	r0, [r4, #6]
   28798:	0c08      	lsrs	r0, r1, #16
   2879a:	7160      	strb	r0, [r4, #5]
   2879c:	0a08      	lsrs	r0, r1, #8
   2879e:	7120      	strb	r0, [r4, #4]
   287a0:	a810      	add	r0, sp, #64	@ 0x40
   287a2:	7880      	ldrb	r0, [r0, #2]
   287a4:	70a0      	strb	r0, [r4, #2]
   287a6:	1de0      	adds	r0, r4, #7
   287a8:	4924      	ldr	r1, [pc, #144]	@ (2883c <_start+0x2ba8>)
   287aa:	4469      	add	r1, sp
   287ac:	2220      	movs	r2, #32
   287ae:	f000 feac 	bl	2950a <__aeabi_memcpy>
   287b2:	4d21      	ldr	r5, [pc, #132]	@ (28838 <_start+0x2ba4>)
   287b4:	446d      	add	r5, sp
   287b6:	4628      	mov	r0, r5
   287b8:	4621      	mov	r1, r4
   287ba:	f7fb f8d3 	bl	23964 <_ZN20complex_full_dynamic3app17hb40af78e0cf8c289E>
   287be:	782c      	ldrb	r4, [r5, #0]
   287c0:	2c01      	cmp	r4, #1
   287c2:	d102      	bne.n	287ca <_start+0x2b36>
   287c4:	980c      	ldr	r0, [sp, #48]	@ 0x30
   287c6:	6e06      	ldr	r6, [r0, #96]	@ 0x60
   287c8:	e011      	b.n	287ee <_start+0x2b5a>
   287ca:	491b      	ldr	r1, [pc, #108]	@ (28838 <_start+0x2ba4>)
   287cc:	4469      	add	r1, sp
   287ce:	78c8      	ldrb	r0, [r1, #3]
   287d0:	aa10      	add	r2, sp, #64	@ 0x40
   287d2:	7090      	strb	r0, [r2, #2]
   287d4:	7848      	ldrb	r0, [r1, #1]
   287d6:	788b      	ldrb	r3, [r1, #2]
   287d8:	021b      	lsls	r3, r3, #8
   287da:	1818      	adds	r0, r3, r0
   287dc:	8010      	strh	r0, [r2, #0]
   287de:	980c      	ldr	r0, [sp, #48]	@ 0x30
   287e0:	6e06      	ldr	r6, [r0, #96]	@ 0x60
   287e2:	3108      	adds	r1, #8
   287e4:	4815      	ldr	r0, [pc, #84]	@ (2883c <_start+0x2ba8>)
   287e6:	4468      	add	r0, sp
   287e8:	2248      	movs	r2, #72	@ 0x48
   287ea:	f000 fd2e 	bl	2924a <__aeabi_memcpy4>
   287ee:	2c00      	cmp	r4, #0
   287f0:	d001      	beq.n	287f6 <_start+0x2b62>
   287f2:	f7fd fc70 	bl	260d6 <_start+0x442>
   287f6:	4c19      	ldr	r4, [pc, #100]	@ (2885c <_start+0x2bc8>)
   287f8:	446c      	add	r4, sp
   287fa:	70e6      	strb	r6, [r4, #3]
   287fc:	9810      	ldr	r0, [sp, #64]	@ 0x40
   287fe:	8020      	strh	r0, [r4, #0]
   28800:	0e30      	lsrs	r0, r6, #24
   28802:	71a0      	strb	r0, [r4, #6]
   28804:	0c30      	lsrs	r0, r6, #16
   28806:	7160      	strb	r0, [r4, #5]
   28808:	0a30      	lsrs	r0, r6, #8
   2880a:	7120      	strb	r0, [r4, #4]
   2880c:	a810      	add	r0, sp, #64	@ 0x40
   2880e:	7880      	ldrb	r0, [r0, #2]
   28810:	70a0      	strb	r0, [r4, #2]
   28812:	1de0      	adds	r0, r4, #7
   28814:	4909      	ldr	r1, [pc, #36]	@ (2883c <_start+0x2ba8>)
   28816:	4469      	add	r1, sp
   28818:	2248      	movs	r2, #72	@ 0x48
   2881a:	f000 fe76 	bl	2950a <__aeabi_memcpy>
   2881e:	4d06      	ldr	r5, [pc, #24]	@ (28838 <_start+0x2ba4>)
   28820:	446d      	add	r5, sp
   28822:	4628      	mov	r0, r5
   28824:	4621      	mov	r1, r4
   28826:	f7f9 f90f 	bl	21a48 <_ZN20complex_full_dynamic3app17h51f8c8da0d18162aE>
   2882a:	7828      	ldrb	r0, [r5, #0]
   2882c:	2801      	cmp	r0, #1
   2882e:	d117      	bne.n	28860 <_start+0x2bcc>
   28830:	990c      	ldr	r1, [sp, #48]	@ 0x30
   28832:	6e09      	ldr	r1, [r1, #96]	@ 0x60
   28834:	910b      	str	r1, [sp, #44]	@ 0x2c
   28836:	e02b      	b.n	28890 <_start+0x2bfc>
   28838:	00001414 	.word	0x00001414
   2883c:	000013b8 	.word	0x000013b8
   28840:	00000ef0 	.word	0x00000ef0
   28844:	00000f0c 	.word	0x00000f0c
   28848:	00000f50 	.word	0x00000f50
   2884c:	00000f68 	.word	0x00000f68
   28850:	00000f88 	.word	0x00000f88
   28854:	00000fc4 	.word	0x00000fc4
   28858:	00000ff0 	.word	0x00000ff0
   2885c:	00001018 	.word	0x00001018
   28860:	49ec      	ldr	r1, [pc, #944]	@ (28c14 <_start+0x2f80>)
   28862:	4469      	add	r1, sp
   28864:	78ca      	ldrb	r2, [r1, #3]
   28866:	ab10      	add	r3, sp, #64	@ 0x40
   28868:	709a      	strb	r2, [r3, #2]
   2886a:	784a      	ldrb	r2, [r1, #1]
   2886c:	788c      	ldrb	r4, [r1, #2]
   2886e:	0224      	lsls	r4, r4, #8
   28870:	18a2      	adds	r2, r4, r2
   28872:	801a      	strh	r2, [r3, #0]
   28874:	3108      	adds	r1, #8
   28876:	9a0c      	ldr	r2, [sp, #48]	@ 0x30
   28878:	6e12      	ldr	r2, [r2, #96]	@ 0x60
   2887a:	920b      	str	r2, [sp, #44]	@ 0x2c
   2887c:	4ae6      	ldr	r2, [pc, #920]	@ (28c18 <_start+0x2f84>)
   2887e:	446a      	add	r2, sp
   28880:	c938      	ldmia	r1!, {r3, r4, r5}
   28882:	c238      	stmia	r2!, {r3, r4, r5}
   28884:	c978      	ldmia	r1!, {r3, r4, r5, r6}
   28886:	c278      	stmia	r2!, {r3, r4, r5, r6}
   28888:	c978      	ldmia	r1!, {r3, r4, r5, r6}
   2888a:	c278      	stmia	r2!, {r3, r4, r5, r6}
   2888c:	8809      	ldrh	r1, [r1, #0]
   2888e:	8011      	strh	r1, [r2, #0]
   28890:	2800      	cmp	r0, #0
   28892:	d001      	beq.n	28898 <_start+0x2c04>
   28894:	f7fd fd8c 	bl	263b0 <_start+0x71c>
   28898:	4ce0      	ldr	r4, [pc, #896]	@ (28c1c <_start+0x2f88>)
   2889a:	446c      	add	r4, sp
   2889c:	990b      	ldr	r1, [sp, #44]	@ 0x2c
   2889e:	70e1      	strb	r1, [r4, #3]
   288a0:	9810      	ldr	r0, [sp, #64]	@ 0x40
   288a2:	8020      	strh	r0, [r4, #0]
   288a4:	0e08      	lsrs	r0, r1, #24
   288a6:	71a0      	strb	r0, [r4, #6]
   288a8:	0c08      	lsrs	r0, r1, #16
   288aa:	7160      	strb	r0, [r4, #5]
   288ac:	0a08      	lsrs	r0, r1, #8
   288ae:	7120      	strb	r0, [r4, #4]
   288b0:	a810      	add	r0, sp, #64	@ 0x40
   288b2:	7880      	ldrb	r0, [r0, #2]
   288b4:	70a0      	strb	r0, [r4, #2]
   288b6:	1de0      	adds	r0, r4, #7
   288b8:	49d7      	ldr	r1, [pc, #860]	@ (28c18 <_start+0x2f84>)
   288ba:	4469      	add	r1, sp
   288bc:	222e      	movs	r2, #46	@ 0x2e
   288be:	f000 fe24 	bl	2950a <__aeabi_memcpy>
   288c2:	4dd4      	ldr	r5, [pc, #848]	@ (28c14 <_start+0x2f80>)
   288c4:	446d      	add	r5, sp
   288c6:	4628      	mov	r0, r5
   288c8:	4621      	mov	r1, r4
   288ca:	f7fa ffd1 	bl	23870 <_ZN20complex_full_dynamic3app17had9afbff133335c7E>
   288ce:	7828      	ldrb	r0, [r5, #0]
   288d0:	2801      	cmp	r0, #1
   288d2:	d103      	bne.n	288dc <_start+0x2c48>
   288d4:	990c      	ldr	r1, [sp, #48]	@ 0x30
   288d6:	6e09      	ldr	r1, [r1, #96]	@ 0x60
   288d8:	910b      	str	r1, [sp, #44]	@ 0x2c
   288da:	e017      	b.n	2890c <_start+0x2c78>
   288dc:	49cd      	ldr	r1, [pc, #820]	@ (28c14 <_start+0x2f80>)
   288de:	4469      	add	r1, sp
   288e0:	78ca      	ldrb	r2, [r1, #3]
   288e2:	ab10      	add	r3, sp, #64	@ 0x40
   288e4:	709a      	strb	r2, [r3, #2]
   288e6:	784a      	ldrb	r2, [r1, #1]
   288e8:	788c      	ldrb	r4, [r1, #2]
   288ea:	0224      	lsls	r4, r4, #8
   288ec:	18a2      	adds	r2, r4, r2
   288ee:	801a      	strh	r2, [r3, #0]
   288f0:	3108      	adds	r1, #8
   288f2:	9a0c      	ldr	r2, [sp, #48]	@ 0x30
   288f4:	6e12      	ldr	r2, [r2, #96]	@ 0x60
   288f6:	920b      	str	r2, [sp, #44]	@ 0x2c
   288f8:	4ac7      	ldr	r2, [pc, #796]	@ (28c18 <_start+0x2f84>)
   288fa:	446a      	add	r2, sp
   288fc:	c938      	ldmia	r1!, {r3, r4, r5}
   288fe:	c238      	stmia	r2!, {r3, r4, r5}
   28900:	c978      	ldmia	r1!, {r3, r4, r5, r6}
   28902:	c278      	stmia	r2!, {r3, r4, r5, r6}
   28904:	c938      	ldmia	r1!, {r3, r4, r5}
   28906:	c238      	stmia	r2!, {r3, r4, r5}
   28908:	c978      	ldmia	r1!, {r3, r4, r5, r6}
   2890a:	c278      	stmia	r2!, {r3, r4, r5, r6}
   2890c:	2800      	cmp	r0, #0
   2890e:	d001      	beq.n	28914 <_start+0x2c80>
   28910:	f7fd fd4e 	bl	263b0 <_start+0x71c>
   28914:	4cc2      	ldr	r4, [pc, #776]	@ (28c20 <_start+0x2f8c>)
   28916:	446c      	add	r4, sp
   28918:	990b      	ldr	r1, [sp, #44]	@ 0x2c
   2891a:	70e1      	strb	r1, [r4, #3]
   2891c:	9810      	ldr	r0, [sp, #64]	@ 0x40
   2891e:	8020      	strh	r0, [r4, #0]
   28920:	0e08      	lsrs	r0, r1, #24
   28922:	71a0      	strb	r0, [r4, #6]
   28924:	0c08      	lsrs	r0, r1, #16
   28926:	7160      	strb	r0, [r4, #5]
   28928:	0a08      	lsrs	r0, r1, #8
   2892a:	7120      	strb	r0, [r4, #4]
   2892c:	a810      	add	r0, sp, #64	@ 0x40
   2892e:	7880      	ldrb	r0, [r0, #2]
   28930:	70a0      	strb	r0, [r4, #2]
   28932:	1de0      	adds	r0, r4, #7
   28934:	49b8      	ldr	r1, [pc, #736]	@ (28c18 <_start+0x2f84>)
   28936:	4469      	add	r1, sp
   28938:	2238      	movs	r2, #56	@ 0x38
   2893a:	f000 fde6 	bl	2950a <__aeabi_memcpy>
   2893e:	4db5      	ldr	r5, [pc, #724]	@ (28c14 <_start+0x2f80>)
   28940:	446d      	add	r5, sp
   28942:	4628      	mov	r0, r5
   28944:	4621      	mov	r1, r4
   28946:	f7f8 f9a1 	bl	20c8c <_ZN20complex_full_dynamic3app17h299e71278331176cE>
   2894a:	7828      	ldrb	r0, [r5, #0]
   2894c:	2801      	cmp	r0, #1
   2894e:	d102      	bne.n	28956 <_start+0x2cc2>
   28950:	990c      	ldr	r1, [sp, #48]	@ 0x30
   28952:	6e0e      	ldr	r6, [r1, #96]	@ 0x60
   28954:	e012      	b.n	2897c <_start+0x2ce8>
   28956:	49b0      	ldr	r1, [pc, #704]	@ (28c18 <_start+0x2f84>)
   28958:	4469      	add	r1, sp
   2895a:	9c0c      	ldr	r4, [sp, #48]	@ 0x30
   2895c:	6ee2      	ldr	r2, [r4, #108]	@ 0x6c
   2895e:	810a      	strh	r2, [r1, #8]
   28960:	49ac      	ldr	r1, [pc, #688]	@ (28c14 <_start+0x2f80>)
   28962:	4469      	add	r1, sp
   28964:	78ca      	ldrb	r2, [r1, #3]
   28966:	ab10      	add	r3, sp, #64	@ 0x40
   28968:	709a      	strb	r2, [r3, #2]
   2896a:	784a      	ldrb	r2, [r1, #1]
   2896c:	7889      	ldrb	r1, [r1, #2]
   2896e:	0209      	lsls	r1, r1, #8
   28970:	1889      	adds	r1, r1, r2
   28972:	8019      	strh	r1, [r3, #0]
   28974:	6e61      	ldr	r1, [r4, #100]	@ 0x64
   28976:	6ea2      	ldr	r2, [r4, #104]	@ 0x68
   28978:	c406      	stmia	r4!, {r1, r2}
   2897a:	6da6      	ldr	r6, [r4, #88]	@ 0x58
   2897c:	2800      	cmp	r0, #0
   2897e:	d001      	beq.n	28984 <_start+0x2cf0>
   28980:	f7fd fba9 	bl	260d6 <_start+0x442>
   28984:	4ca7      	ldr	r4, [pc, #668]	@ (28c24 <_start+0x2f90>)
   28986:	446c      	add	r4, sp
   28988:	70e6      	strb	r6, [r4, #3]
   2898a:	9810      	ldr	r0, [sp, #64]	@ 0x40
   2898c:	8020      	strh	r0, [r4, #0]
   2898e:	0e30      	lsrs	r0, r6, #24
   28990:	71a0      	strb	r0, [r4, #6]
   28992:	0c30      	lsrs	r0, r6, #16
   28994:	7160      	strb	r0, [r4, #5]
   28996:	0a30      	lsrs	r0, r6, #8
   28998:	7120      	strb	r0, [r4, #4]
   2899a:	a810      	add	r0, sp, #64	@ 0x40
   2899c:	7880      	ldrb	r0, [r0, #2]
   2899e:	70a0      	strb	r0, [r4, #2]
   289a0:	1de0      	adds	r0, r4, #7
   289a2:	499d      	ldr	r1, [pc, #628]	@ (28c18 <_start+0x2f84>)
   289a4:	4469      	add	r1, sp
   289a6:	220a      	movs	r2, #10
   289a8:	f000 fdaf 	bl	2950a <__aeabi_memcpy>
   289ac:	4d99      	ldr	r5, [pc, #612]	@ (28c14 <_start+0x2f80>)
   289ae:	446d      	add	r5, sp
   289b0:	4628      	mov	r0, r5
   289b2:	4621      	mov	r1, r4
   289b4:	f7f8 fd50 	bl	21458 <_ZN20complex_full_dynamic3app17h3e93f8e6cc49fb98E>
   289b8:	7828      	ldrb	r0, [r5, #0]
   289ba:	2801      	cmp	r0, #1
   289bc:	d103      	bne.n	289c6 <_start+0x2d32>
   289be:	990c      	ldr	r1, [sp, #48]	@ 0x30
   289c0:	6e09      	ldr	r1, [r1, #96]	@ 0x60
   289c2:	910b      	str	r1, [sp, #44]	@ 0x2c
   289c4:	e017      	b.n	289f6 <_start+0x2d62>
   289c6:	4993      	ldr	r1, [pc, #588]	@ (28c14 <_start+0x2f80>)
   289c8:	4469      	add	r1, sp
   289ca:	78ca      	ldrb	r2, [r1, #3]
   289cc:	ab10      	add	r3, sp, #64	@ 0x40
   289ce:	709a      	strb	r2, [r3, #2]
   289d0:	784a      	ldrb	r2, [r1, #1]
   289d2:	788c      	ldrb	r4, [r1, #2]
   289d4:	0224      	lsls	r4, r4, #8
   289d6:	18a2      	adds	r2, r4, r2
   289d8:	801a      	strh	r2, [r3, #0]
   289da:	3108      	adds	r1, #8
   289dc:	9a0c      	ldr	r2, [sp, #48]	@ 0x30
   289de:	6e12      	ldr	r2, [r2, #96]	@ 0x60
   289e0:	920b      	str	r2, [sp, #44]	@ 0x2c
   289e2:	4a8d      	ldr	r2, [pc, #564]	@ (28c18 <_start+0x2f84>)
   289e4:	446a      	add	r2, sp
   289e6:	c938      	ldmia	r1!, {r3, r4, r5}
   289e8:	c238      	stmia	r2!, {r3, r4, r5}
   289ea:	c978      	ldmia	r1!, {r3, r4, r5, r6}
   289ec:	c278      	stmia	r2!, {r3, r4, r5, r6}
   289ee:	c938      	ldmia	r1!, {r3, r4, r5}
   289f0:	c238      	stmia	r2!, {r3, r4, r5}
   289f2:	c978      	ldmia	r1!, {r3, r4, r5, r6}
   289f4:	c278      	stmia	r2!, {r3, r4, r5, r6}
   289f6:	2800      	cmp	r0, #0
   289f8:	d001      	beq.n	289fe <_start+0x2d6a>
   289fa:	f7fd fcd9 	bl	263b0 <_start+0x71c>
   289fe:	4c8a      	ldr	r4, [pc, #552]	@ (28c28 <_start+0x2f94>)
   28a00:	446c      	add	r4, sp
   28a02:	990b      	ldr	r1, [sp, #44]	@ 0x2c
   28a04:	70e1      	strb	r1, [r4, #3]
   28a06:	9810      	ldr	r0, [sp, #64]	@ 0x40
   28a08:	8020      	strh	r0, [r4, #0]
   28a0a:	0e08      	lsrs	r0, r1, #24
   28a0c:	71a0      	strb	r0, [r4, #6]
   28a0e:	0c08      	lsrs	r0, r1, #16
   28a10:	7160      	strb	r0, [r4, #5]
   28a12:	0a08      	lsrs	r0, r1, #8
   28a14:	7120      	strb	r0, [r4, #4]
   28a16:	a810      	add	r0, sp, #64	@ 0x40
   28a18:	7880      	ldrb	r0, [r0, #2]
   28a1a:	70a0      	strb	r0, [r4, #2]
   28a1c:	1de0      	adds	r0, r4, #7
   28a1e:	497e      	ldr	r1, [pc, #504]	@ (28c18 <_start+0x2f84>)
   28a20:	4469      	add	r1, sp
   28a22:	2238      	movs	r2, #56	@ 0x38
   28a24:	f000 fd71 	bl	2950a <__aeabi_memcpy>
   28a28:	4d7a      	ldr	r5, [pc, #488]	@ (28c14 <_start+0x2f80>)
   28a2a:	446d      	add	r5, sp
   28a2c:	4628      	mov	r0, r5
   28a2e:	4621      	mov	r1, r4
   28a30:	f7f8 fc90 	bl	21354 <_ZN20complex_full_dynamic3app17h39b6f8097a1089fdE>
   28a34:	7828      	ldrb	r0, [r5, #0]
   28a36:	2801      	cmp	r0, #1
   28a38:	d102      	bne.n	28a40 <_start+0x2dac>
   28a3a:	990c      	ldr	r1, [sp, #48]	@ 0x30
   28a3c:	6e0e      	ldr	r6, [r1, #96]	@ 0x60
   28a3e:	e014      	b.n	28a6a <_start+0x2dd6>
   28a40:	4974      	ldr	r1, [pc, #464]	@ (28c14 <_start+0x2f80>)
   28a42:	4469      	add	r1, sp
   28a44:	78ca      	ldrb	r2, [r1, #3]
   28a46:	ab10      	add	r3, sp, #64	@ 0x40
   28a48:	709a      	strb	r2, [r3, #2]
   28a4a:	784a      	ldrb	r2, [r1, #1]
   28a4c:	788c      	ldrb	r4, [r1, #2]
   28a4e:	0224      	lsls	r4, r4, #8
   28a50:	18a2      	adds	r2, r4, r2
   28a52:	801a      	strh	r2, [r3, #0]
   28a54:	3108      	adds	r1, #8
   28a56:	9a0c      	ldr	r2, [sp, #48]	@ 0x30
   28a58:	6e16      	ldr	r6, [r2, #96]	@ 0x60
   28a5a:	4a6f      	ldr	r2, [pc, #444]	@ (28c18 <_start+0x2f84>)
   28a5c:	446a      	add	r2, sp
   28a5e:	c918      	ldmia	r1!, {r3, r4}
   28a60:	c218      	stmia	r2!, {r3, r4}
   28a62:	c938      	ldmia	r1!, {r3, r4, r5}
   28a64:	c238      	stmia	r2!, {r3, r4, r5}
   28a66:	7809      	ldrb	r1, [r1, #0]
   28a68:	7011      	strb	r1, [r2, #0]
   28a6a:	2800      	cmp	r0, #0
   28a6c:	d001      	beq.n	28a72 <_start+0x2dde>
   28a6e:	f7fd fb32 	bl	260d6 <_start+0x442>
   28a72:	4c6e      	ldr	r4, [pc, #440]	@ (28c2c <_start+0x2f98>)
   28a74:	446c      	add	r4, sp
   28a76:	70e6      	strb	r6, [r4, #3]
   28a78:	9810      	ldr	r0, [sp, #64]	@ 0x40
   28a7a:	8020      	strh	r0, [r4, #0]
   28a7c:	0e30      	lsrs	r0, r6, #24
   28a7e:	71a0      	strb	r0, [r4, #6]
   28a80:	0c30      	lsrs	r0, r6, #16
   28a82:	7160      	strb	r0, [r4, #5]
   28a84:	0a30      	lsrs	r0, r6, #8
   28a86:	7120      	strb	r0, [r4, #4]
   28a88:	a810      	add	r0, sp, #64	@ 0x40
   28a8a:	7880      	ldrb	r0, [r0, #2]
   28a8c:	70a0      	strb	r0, [r4, #2]
   28a8e:	1de0      	adds	r0, r4, #7
   28a90:	4961      	ldr	r1, [pc, #388]	@ (28c18 <_start+0x2f84>)
   28a92:	4469      	add	r1, sp
   28a94:	2215      	movs	r2, #21
   28a96:	f000 fd38 	bl	2950a <__aeabi_memcpy>
   28a9a:	4d5e      	ldr	r5, [pc, #376]	@ (28c14 <_start+0x2f80>)
   28a9c:	446d      	add	r5, sp
   28a9e:	4628      	mov	r0, r5
   28aa0:	4621      	mov	r1, r4
   28aa2:	f7fb fd37 	bl	24514 <_ZN20complex_full_dynamic3app17hcc1a1aa307636a54E>
   28aa6:	782c      	ldrb	r4, [r5, #0]
   28aa8:	2c01      	cmp	r4, #1
   28aaa:	d102      	bne.n	28ab2 <_start+0x2e1e>
   28aac:	980c      	ldr	r0, [sp, #48]	@ 0x30
   28aae:	6e06      	ldr	r6, [r0, #96]	@ 0x60
   28ab0:	e011      	b.n	28ad6 <_start+0x2e42>
   28ab2:	4958      	ldr	r1, [pc, #352]	@ (28c14 <_start+0x2f80>)
   28ab4:	4469      	add	r1, sp
   28ab6:	78c8      	ldrb	r0, [r1, #3]
   28ab8:	aa10      	add	r2, sp, #64	@ 0x40
   28aba:	7090      	strb	r0, [r2, #2]
   28abc:	7848      	ldrb	r0, [r1, #1]
   28abe:	788b      	ldrb	r3, [r1, #2]
   28ac0:	021b      	lsls	r3, r3, #8
   28ac2:	1818      	adds	r0, r3, r0
   28ac4:	8010      	strh	r0, [r2, #0]
   28ac6:	980c      	ldr	r0, [sp, #48]	@ 0x30
   28ac8:	6e06      	ldr	r6, [r0, #96]	@ 0x60
   28aca:	3108      	adds	r1, #8
   28acc:	4852      	ldr	r0, [pc, #328]	@ (28c18 <_start+0x2f84>)
   28ace:	4468      	add	r0, sp
   28ad0:	2256      	movs	r2, #86	@ 0x56
   28ad2:	f000 fbba 	bl	2924a <__aeabi_memcpy4>
   28ad6:	2c00      	cmp	r4, #0
   28ad8:	d001      	beq.n	28ade <_start+0x2e4a>
   28ada:	f7fd fafc 	bl	260d6 <_start+0x442>
   28ade:	4c54      	ldr	r4, [pc, #336]	@ (28c30 <_start+0x2f9c>)
   28ae0:	446c      	add	r4, sp
   28ae2:	70e6      	strb	r6, [r4, #3]
   28ae4:	9810      	ldr	r0, [sp, #64]	@ 0x40
   28ae6:	8020      	strh	r0, [r4, #0]
   28ae8:	0e30      	lsrs	r0, r6, #24
   28aea:	71a0      	strb	r0, [r4, #6]
   28aec:	0c30      	lsrs	r0, r6, #16
   28aee:	7160      	strb	r0, [r4, #5]
   28af0:	0a30      	lsrs	r0, r6, #8
   28af2:	7120      	strb	r0, [r4, #4]
   28af4:	a810      	add	r0, sp, #64	@ 0x40
   28af6:	7880      	ldrb	r0, [r0, #2]
   28af8:	70a0      	strb	r0, [r4, #2]
   28afa:	1de0      	adds	r0, r4, #7
   28afc:	4946      	ldr	r1, [pc, #280]	@ (28c18 <_start+0x2f84>)
   28afe:	4469      	add	r1, sp
   28b00:	2256      	movs	r2, #86	@ 0x56
   28b02:	f000 fd02 	bl	2950a <__aeabi_memcpy>
   28b06:	4d43      	ldr	r5, [pc, #268]	@ (28c14 <_start+0x2f80>)
   28b08:	446d      	add	r5, sp
   28b0a:	4628      	mov	r0, r5
   28b0c:	4621      	mov	r1, r4
   28b0e:	f7f9 fe6d 	bl	227ec <_ZN20complex_full_dynamic3app17h7863757595515be9E>
   28b12:	7828      	ldrb	r0, [r5, #0]
   28b14:	2801      	cmp	r0, #1
   28b16:	d102      	bne.n	28b1e <_start+0x2e8a>
   28b18:	990c      	ldr	r1, [sp, #48]	@ 0x30
   28b1a:	6e0e      	ldr	r6, [r1, #96]	@ 0x60
   28b1c:	e014      	b.n	28b48 <_start+0x2eb4>
   28b1e:	493e      	ldr	r1, [pc, #248]	@ (28c18 <_start+0x2f84>)
   28b20:	4469      	add	r1, sp
   28b22:	9d0c      	ldr	r5, [sp, #48]	@ 0x30
   28b24:	6eea      	ldr	r2, [r5, #108]	@ 0x6c
   28b26:	810a      	strh	r2, [r1, #8]
   28b28:	4a3a      	ldr	r2, [pc, #232]	@ (28c14 <_start+0x2f80>)
   28b2a:	446a      	add	r2, sp
   28b2c:	78d3      	ldrb	r3, [r2, #3]
   28b2e:	ac10      	add	r4, sp, #64	@ 0x40
   28b30:	70a3      	strb	r3, [r4, #2]
   28b32:	7c93      	ldrb	r3, [r2, #18]
   28b34:	728b      	strb	r3, [r1, #10]
   28b36:	7851      	ldrb	r1, [r2, #1]
   28b38:	7892      	ldrb	r2, [r2, #2]
   28b3a:	0212      	lsls	r2, r2, #8
   28b3c:	1851      	adds	r1, r2, r1
   28b3e:	8021      	strh	r1, [r4, #0]
   28b40:	6e69      	ldr	r1, [r5, #100]	@ 0x64
   28b42:	6eaa      	ldr	r2, [r5, #104]	@ 0x68
   28b44:	c506      	stmia	r5!, {r1, r2}
   28b46:	6dae      	ldr	r6, [r5, #88]	@ 0x58
   28b48:	2800      	cmp	r0, #0
   28b4a:	d001      	beq.n	28b50 <_start+0x2ebc>
   28b4c:	f7fd fac3 	bl	260d6 <_start+0x442>
   28b50:	4c38      	ldr	r4, [pc, #224]	@ (28c34 <_start+0x2fa0>)
   28b52:	446c      	add	r4, sp
   28b54:	70e6      	strb	r6, [r4, #3]
   28b56:	9810      	ldr	r0, [sp, #64]	@ 0x40
   28b58:	8020      	strh	r0, [r4, #0]
   28b5a:	0e30      	lsrs	r0, r6, #24
   28b5c:	71a0      	strb	r0, [r4, #6]
   28b5e:	0c30      	lsrs	r0, r6, #16
   28b60:	7160      	strb	r0, [r4, #5]
   28b62:	0a30      	lsrs	r0, r6, #8
   28b64:	7120      	strb	r0, [r4, #4]
   28b66:	a810      	add	r0, sp, #64	@ 0x40
   28b68:	7880      	ldrb	r0, [r0, #2]
   28b6a:	70a0      	strb	r0, [r4, #2]
   28b6c:	1de0      	adds	r0, r4, #7
   28b6e:	492a      	ldr	r1, [pc, #168]	@ (28c18 <_start+0x2f84>)
   28b70:	4469      	add	r1, sp
   28b72:	220b      	movs	r2, #11
   28b74:	f000 fcc9 	bl	2950a <__aeabi_memcpy>
   28b78:	4d26      	ldr	r5, [pc, #152]	@ (28c14 <_start+0x2f80>)
   28b7a:	446d      	add	r5, sp
   28b7c:	4628      	mov	r0, r5
   28b7e:	4621      	mov	r1, r4
   28b80:	f7f7 fc9a 	bl	204b8 <_ZN20complex_full_dynamic3app17h1417a9d896fa007dE>
   28b84:	7828      	ldrb	r0, [r5, #0]
   28b86:	2801      	cmp	r0, #1
   28b88:	d103      	bne.n	28b92 <_start+0x2efe>
   28b8a:	990c      	ldr	r1, [sp, #48]	@ 0x30
   28b8c:	6e09      	ldr	r1, [r1, #96]	@ 0x60
   28b8e:	910b      	str	r1, [sp, #44]	@ 0x2c
   28b90:	e019      	b.n	28bc6 <_start+0x2f32>
   28b92:	4920      	ldr	r1, [pc, #128]	@ (28c14 <_start+0x2f80>)
   28b94:	4469      	add	r1, sp
   28b96:	78ca      	ldrb	r2, [r1, #3]
   28b98:	ab10      	add	r3, sp, #64	@ 0x40
   28b9a:	709a      	strb	r2, [r3, #2]
   28b9c:	784a      	ldrb	r2, [r1, #1]
   28b9e:	788c      	ldrb	r4, [r1, #2]
   28ba0:	0224      	lsls	r4, r4, #8
   28ba2:	18a2      	adds	r2, r4, r2
   28ba4:	801a      	strh	r2, [r3, #0]
   28ba6:	3108      	adds	r1, #8
   28ba8:	9a0c      	ldr	r2, [sp, #48]	@ 0x30
   28baa:	6e12      	ldr	r2, [r2, #96]	@ 0x60
   28bac:	920b      	str	r2, [sp, #44]	@ 0x2c
   28bae:	4a1a      	ldr	r2, [pc, #104]	@ (28c18 <_start+0x2f84>)
   28bb0:	446a      	add	r2, sp
   28bb2:	c938      	ldmia	r1!, {r3, r4, r5}
   28bb4:	c238      	stmia	r2!, {r3, r4, r5}
   28bb6:	c978      	ldmia	r1!, {r3, r4, r5, r6}
   28bb8:	c278      	stmia	r2!, {r3, r4, r5, r6}
   28bba:	c978      	ldmia	r1!, {r3, r4, r5, r6}
   28bbc:	c278      	stmia	r2!, {r3, r4, r5, r6}
   28bbe:	c978      	ldmia	r1!, {r3, r4, r5, r6}
   28bc0:	c278      	stmia	r2!, {r3, r4, r5, r6}
   28bc2:	7809      	ldrb	r1, [r1, #0]
   28bc4:	7011      	strb	r1, [r2, #0]
   28bc6:	2800      	cmp	r0, #0
   28bc8:	d001      	beq.n	28bce <_start+0x2f3a>
   28bca:	f7fd fbf1 	bl	263b0 <_start+0x71c>
   28bce:	4c1a      	ldr	r4, [pc, #104]	@ (28c38 <_start+0x2fa4>)
   28bd0:	446c      	add	r4, sp
   28bd2:	990b      	ldr	r1, [sp, #44]	@ 0x2c
   28bd4:	70e1      	strb	r1, [r4, #3]
   28bd6:	9810      	ldr	r0, [sp, #64]	@ 0x40
   28bd8:	8020      	strh	r0, [r4, #0]
   28bda:	0e08      	lsrs	r0, r1, #24
   28bdc:	71a0      	strb	r0, [r4, #6]
   28bde:	0c08      	lsrs	r0, r1, #16
   28be0:	7160      	strb	r0, [r4, #5]
   28be2:	0a08      	lsrs	r0, r1, #8
   28be4:	7120      	strb	r0, [r4, #4]
   28be6:	a810      	add	r0, sp, #64	@ 0x40
   28be8:	7880      	ldrb	r0, [r0, #2]
   28bea:	70a0      	strb	r0, [r4, #2]
   28bec:	1de0      	adds	r0, r4, #7
   28bee:	490a      	ldr	r1, [pc, #40]	@ (28c18 <_start+0x2f84>)
   28bf0:	4469      	add	r1, sp
   28bf2:	223d      	movs	r2, #61	@ 0x3d
   28bf4:	f000 fc89 	bl	2950a <__aeabi_memcpy>
   28bf8:	4d06      	ldr	r5, [pc, #24]	@ (28c14 <_start+0x2f80>)
   28bfa:	446d      	add	r5, sp
   28bfc:	4628      	mov	r0, r5
   28bfe:	4621      	mov	r1, r4
   28c00:	f7f7 fed4 	bl	209ac <_ZN20complex_full_dynamic3app17h1dafa98f615f8a06E>
   28c04:	7828      	ldrb	r0, [r5, #0]
   28c06:	2801      	cmp	r0, #1
   28c08:	d118      	bne.n	28c3c <_start+0x2fa8>
   28c0a:	990c      	ldr	r1, [sp, #48]	@ 0x30
   28c0c:	6e09      	ldr	r1, [r1, #96]	@ 0x60
   28c0e:	910b      	str	r1, [sp, #44]	@ 0x2c
   28c10:	e028      	b.n	28c64 <_start+0x2fd0>
   28c12:	46c0      	nop			@ (mov r8, r8)
   28c14:	00001414 	.word	0x00001414
   28c18:	000013b8 	.word	0x000013b8
   28c1c:	00001068 	.word	0x00001068
   28c20:	000010a0 	.word	0x000010a0
   28c24:	000010e0 	.word	0x000010e0
   28c28:	000010f4 	.word	0x000010f4
   28c2c:	00001134 	.word	0x00001134
   28c30:	00001150 	.word	0x00001150
   28c34:	000011b0 	.word	0x000011b0
   28c38:	000011c4 	.word	0x000011c4
   28c3c:	49fb      	ldr	r1, [pc, #1004]	@ (2902c <_start+0x3398>)
   28c3e:	4469      	add	r1, sp
   28c40:	78ca      	ldrb	r2, [r1, #3]
   28c42:	ab10      	add	r3, sp, #64	@ 0x40
   28c44:	709a      	strb	r2, [r3, #2]
   28c46:	784a      	ldrb	r2, [r1, #1]
   28c48:	788c      	ldrb	r4, [r1, #2]
   28c4a:	0224      	lsls	r4, r4, #8
   28c4c:	18a2      	adds	r2, r4, r2
   28c4e:	801a      	strh	r2, [r3, #0]
   28c50:	3108      	adds	r1, #8
   28c52:	9a0c      	ldr	r2, [sp, #48]	@ 0x30
   28c54:	6e12      	ldr	r2, [r2, #96]	@ 0x60
   28c56:	920b      	str	r2, [sp, #44]	@ 0x2c
   28c58:	4af5      	ldr	r2, [pc, #980]	@ (29030 <_start+0x339c>)
   28c5a:	446a      	add	r2, sp
   28c5c:	c938      	ldmia	r1!, {r3, r4, r5}
   28c5e:	c238      	stmia	r2!, {r3, r4, r5}
   28c60:	c978      	ldmia	r1!, {r3, r4, r5, r6}
   28c62:	c278      	stmia	r2!, {r3, r4, r5, r6}
   28c64:	2800      	cmp	r0, #0
   28c66:	d001      	beq.n	28c6c <_start+0x2fd8>
   28c68:	f7fd fba2 	bl	263b0 <_start+0x71c>
   28c6c:	4cf1      	ldr	r4, [pc, #964]	@ (29034 <_start+0x33a0>)
   28c6e:	446c      	add	r4, sp
   28c70:	990b      	ldr	r1, [sp, #44]	@ 0x2c
   28c72:	70e1      	strb	r1, [r4, #3]
   28c74:	9810      	ldr	r0, [sp, #64]	@ 0x40
   28c76:	8020      	strh	r0, [r4, #0]
   28c78:	0e08      	lsrs	r0, r1, #24
   28c7a:	71a0      	strb	r0, [r4, #6]
   28c7c:	0c08      	lsrs	r0, r1, #16
   28c7e:	7160      	strb	r0, [r4, #5]
   28c80:	0a08      	lsrs	r0, r1, #8
   28c82:	7120      	strb	r0, [r4, #4]
   28c84:	a810      	add	r0, sp, #64	@ 0x40
   28c86:	7880      	ldrb	r0, [r0, #2]
   28c88:	70a0      	strb	r0, [r4, #2]
   28c8a:	1de0      	adds	r0, r4, #7
   28c8c:	49e8      	ldr	r1, [pc, #928]	@ (29030 <_start+0x339c>)
   28c8e:	4469      	add	r1, sp
   28c90:	221c      	movs	r2, #28
   28c92:	f000 fc3a 	bl	2950a <__aeabi_memcpy>
   28c96:	4de5      	ldr	r5, [pc, #916]	@ (2902c <_start+0x3398>)
   28c98:	446d      	add	r5, sp
   28c9a:	4628      	mov	r0, r5
   28c9c:	4621      	mov	r1, r4
   28c9e:	f7fc fb9d 	bl	253dc <_ZN20complex_full_dynamic3app17hef1bda503b81a307E>
   28ca2:	7828      	ldrb	r0, [r5, #0]
   28ca4:	2801      	cmp	r0, #1
   28ca6:	d103      	bne.n	28cb0 <_start+0x301c>
   28ca8:	990c      	ldr	r1, [sp, #48]	@ 0x30
   28caa:	6e09      	ldr	r1, [r1, #96]	@ 0x60
   28cac:	910b      	str	r1, [sp, #44]	@ 0x2c
   28cae:	e015      	b.n	28cdc <_start+0x3048>
   28cb0:	49de      	ldr	r1, [pc, #888]	@ (2902c <_start+0x3398>)
   28cb2:	4469      	add	r1, sp
   28cb4:	78ca      	ldrb	r2, [r1, #3]
   28cb6:	ab10      	add	r3, sp, #64	@ 0x40
   28cb8:	709a      	strb	r2, [r3, #2]
   28cba:	784a      	ldrb	r2, [r1, #1]
   28cbc:	788c      	ldrb	r4, [r1, #2]
   28cbe:	0224      	lsls	r4, r4, #8
   28cc0:	18a2      	adds	r2, r4, r2
   28cc2:	801a      	strh	r2, [r3, #0]
   28cc4:	3108      	adds	r1, #8
   28cc6:	9a0c      	ldr	r2, [sp, #48]	@ 0x30
   28cc8:	6e12      	ldr	r2, [r2, #96]	@ 0x60
   28cca:	920b      	str	r2, [sp, #44]	@ 0x2c
   28ccc:	4ad8      	ldr	r2, [pc, #864]	@ (29030 <_start+0x339c>)
   28cce:	446a      	add	r2, sp
   28cd0:	c938      	ldmia	r1!, {r3, r4, r5}
   28cd2:	c238      	stmia	r2!, {r3, r4, r5}
   28cd4:	c978      	ldmia	r1!, {r3, r4, r5, r6}
   28cd6:	c278      	stmia	r2!, {r3, r4, r5, r6}
   28cd8:	7809      	ldrb	r1, [r1, #0]
   28cda:	7011      	strb	r1, [r2, #0]
   28cdc:	2800      	cmp	r0, #0
   28cde:	d001      	beq.n	28ce4 <_start+0x3050>
   28ce0:	f7fd fb66 	bl	263b0 <_start+0x71c>
   28ce4:	4cd4      	ldr	r4, [pc, #848]	@ (29038 <_start+0x33a4>)
   28ce6:	446c      	add	r4, sp
   28ce8:	990b      	ldr	r1, [sp, #44]	@ 0x2c
   28cea:	70e1      	strb	r1, [r4, #3]
   28cec:	9810      	ldr	r0, [sp, #64]	@ 0x40
   28cee:	8020      	strh	r0, [r4, #0]
   28cf0:	0e08      	lsrs	r0, r1, #24
   28cf2:	71a0      	strb	r0, [r4, #6]
   28cf4:	0c08      	lsrs	r0, r1, #16
   28cf6:	7160      	strb	r0, [r4, #5]
   28cf8:	0a08      	lsrs	r0, r1, #8
   28cfa:	7120      	strb	r0, [r4, #4]
   28cfc:	a810      	add	r0, sp, #64	@ 0x40
   28cfe:	7880      	ldrb	r0, [r0, #2]
   28d00:	70a0      	strb	r0, [r4, #2]
   28d02:	1de0      	adds	r0, r4, #7
   28d04:	49ca      	ldr	r1, [pc, #808]	@ (29030 <_start+0x339c>)
   28d06:	4469      	add	r1, sp
   28d08:	221d      	movs	r2, #29
   28d0a:	f000 fbfe 	bl	2950a <__aeabi_memcpy>
   28d0e:	4dc7      	ldr	r5, [pc, #796]	@ (2902c <_start+0x3398>)
   28d10:	446d      	add	r5, sp
   28d12:	4628      	mov	r0, r5
   28d14:	4621      	mov	r1, r4
   28d16:	f7f9 fa7d 	bl	22214 <_ZN20complex_full_dynamic3app17h6729c5a1cac7128aE>
   28d1a:	7828      	ldrb	r0, [r5, #0]
   28d1c:	2801      	cmp	r0, #1
   28d1e:	d103      	bne.n	28d28 <_start+0x3094>
   28d20:	990c      	ldr	r1, [sp, #48]	@ 0x30
   28d22:	6e09      	ldr	r1, [r1, #96]	@ 0x60
   28d24:	910b      	str	r1, [sp, #44]	@ 0x2c
   28d26:	e015      	b.n	28d54 <_start+0x30c0>
   28d28:	49c0      	ldr	r1, [pc, #768]	@ (2902c <_start+0x3398>)
   28d2a:	4469      	add	r1, sp
   28d2c:	78ca      	ldrb	r2, [r1, #3]
   28d2e:	ab10      	add	r3, sp, #64	@ 0x40
   28d30:	709a      	strb	r2, [r3, #2]
   28d32:	784a      	ldrb	r2, [r1, #1]
   28d34:	788c      	ldrb	r4, [r1, #2]
   28d36:	0224      	lsls	r4, r4, #8
   28d38:	18a2      	adds	r2, r4, r2
   28d3a:	801a      	strh	r2, [r3, #0]
   28d3c:	3108      	adds	r1, #8
   28d3e:	9a0c      	ldr	r2, [sp, #48]	@ 0x30
   28d40:	6e12      	ldr	r2, [r2, #96]	@ 0x60
   28d42:	920b      	str	r2, [sp, #44]	@ 0x2c
   28d44:	4afa      	ldr	r2, [pc, #1000]	@ (29130 <_start+0x349c>)
   28d46:	446a      	add	r2, sp
   28d48:	c938      	ldmia	r1!, {r3, r4, r5}
   28d4a:	c238      	stmia	r2!, {r3, r4, r5}
   28d4c:	c938      	ldmia	r1!, {r3, r4, r5}
   28d4e:	c238      	stmia	r2!, {r3, r4, r5}
   28d50:	c978      	ldmia	r1!, {r3, r4, r5, r6}
   28d52:	c278      	stmia	r2!, {r3, r4, r5, r6}
   28d54:	2800      	cmp	r0, #0
   28d56:	d001      	beq.n	28d5c <_start+0x30c8>
   28d58:	f7fd fb2a 	bl	263b0 <_start+0x71c>
   28d5c:	4cf5      	ldr	r4, [pc, #980]	@ (29134 <_start+0x34a0>)
   28d5e:	446c      	add	r4, sp
   28d60:	990b      	ldr	r1, [sp, #44]	@ 0x2c
   28d62:	70e1      	strb	r1, [r4, #3]
   28d64:	9810      	ldr	r0, [sp, #64]	@ 0x40
   28d66:	8020      	strh	r0, [r4, #0]
   28d68:	0e08      	lsrs	r0, r1, #24
   28d6a:	71a0      	strb	r0, [r4, #6]
   28d6c:	0c08      	lsrs	r0, r1, #16
   28d6e:	7160      	strb	r0, [r4, #5]
   28d70:	0a08      	lsrs	r0, r1, #8
   28d72:	7120      	strb	r0, [r4, #4]
   28d74:	a810      	add	r0, sp, #64	@ 0x40
   28d76:	7880      	ldrb	r0, [r0, #2]
   28d78:	70a0      	strb	r0, [r4, #2]
   28d7a:	1de0      	adds	r0, r4, #7
   28d7c:	49ec      	ldr	r1, [pc, #944]	@ (29130 <_start+0x349c>)
   28d7e:	4469      	add	r1, sp
   28d80:	2228      	movs	r2, #40	@ 0x28
   28d82:	f000 fbc2 	bl	2950a <__aeabi_memcpy>
   28d86:	4de9      	ldr	r5, [pc, #932]	@ (2912c <_start+0x3498>)
   28d88:	446d      	add	r5, sp
   28d8a:	4628      	mov	r0, r5
   28d8c:	4621      	mov	r1, r4
   28d8e:	f7fb fa4b 	bl	24228 <_ZN20complex_full_dynamic3app17hbfc6a280cdea6330E>
   28d92:	782c      	ldrb	r4, [r5, #0]
   28d94:	2c01      	cmp	r4, #1
   28d96:	d102      	bne.n	28d9e <_start+0x310a>
   28d98:	980c      	ldr	r0, [sp, #48]	@ 0x30
   28d9a:	6e06      	ldr	r6, [r0, #96]	@ 0x60
   28d9c:	e011      	b.n	28dc2 <_start+0x312e>
   28d9e:	49e3      	ldr	r1, [pc, #908]	@ (2912c <_start+0x3498>)
   28da0:	4469      	add	r1, sp
   28da2:	78c8      	ldrb	r0, [r1, #3]
   28da4:	aa10      	add	r2, sp, #64	@ 0x40
   28da6:	7090      	strb	r0, [r2, #2]
   28da8:	7848      	ldrb	r0, [r1, #1]
   28daa:	788b      	ldrb	r3, [r1, #2]
   28dac:	021b      	lsls	r3, r3, #8
   28dae:	1818      	adds	r0, r3, r0
   28db0:	8010      	strh	r0, [r2, #0]
   28db2:	980c      	ldr	r0, [sp, #48]	@ 0x30
   28db4:	6e06      	ldr	r6, [r0, #96]	@ 0x60
   28db6:	3108      	adds	r1, #8
   28db8:	48dd      	ldr	r0, [pc, #884]	@ (29130 <_start+0x349c>)
   28dba:	4468      	add	r0, sp
   28dbc:	2257      	movs	r2, #87	@ 0x57
   28dbe:	f000 fa44 	bl	2924a <__aeabi_memcpy4>
   28dc2:	2c00      	cmp	r4, #0
   28dc4:	d001      	beq.n	28dca <_start+0x3136>
   28dc6:	f7fd f986 	bl	260d6 <_start+0x442>
   28dca:	4cdb      	ldr	r4, [pc, #876]	@ (29138 <_start+0x34a4>)
   28dcc:	446c      	add	r4, sp
   28dce:	70e6      	strb	r6, [r4, #3]
   28dd0:	9810      	ldr	r0, [sp, #64]	@ 0x40
   28dd2:	8020      	strh	r0, [r4, #0]
   28dd4:	0e30      	lsrs	r0, r6, #24
   28dd6:	71a0      	strb	r0, [r4, #6]
   28dd8:	0c30      	lsrs	r0, r6, #16
   28dda:	7160      	strb	r0, [r4, #5]
   28ddc:	0a30      	lsrs	r0, r6, #8
   28dde:	7120      	strb	r0, [r4, #4]
   28de0:	a810      	add	r0, sp, #64	@ 0x40
   28de2:	7880      	ldrb	r0, [r0, #2]
   28de4:	70a0      	strb	r0, [r4, #2]
   28de6:	1de0      	adds	r0, r4, #7
   28de8:	49d1      	ldr	r1, [pc, #836]	@ (29130 <_start+0x349c>)
   28dea:	4469      	add	r1, sp
   28dec:	2257      	movs	r2, #87	@ 0x57
   28dee:	f000 fb8c 	bl	2950a <__aeabi_memcpy>
   28df2:	4dce      	ldr	r5, [pc, #824]	@ (2912c <_start+0x3498>)
   28df4:	446d      	add	r5, sp
   28df6:	4628      	mov	r0, r5
   28df8:	4621      	mov	r1, r4
   28dfa:	f7f9 fc7d 	bl	226f8 <_ZN20complex_full_dynamic3app17h77061a9749958794E>
   28dfe:	782c      	ldrb	r4, [r5, #0]
   28e00:	2c01      	cmp	r4, #1
   28e02:	d102      	bne.n	28e0a <_start+0x3176>
   28e04:	980c      	ldr	r0, [sp, #48]	@ 0x30
   28e06:	6e06      	ldr	r6, [r0, #96]	@ 0x60
   28e08:	e011      	b.n	28e2e <_start+0x319a>
   28e0a:	49c8      	ldr	r1, [pc, #800]	@ (2912c <_start+0x3498>)
   28e0c:	4469      	add	r1, sp
   28e0e:	78c8      	ldrb	r0, [r1, #3]
   28e10:	aa10      	add	r2, sp, #64	@ 0x40
   28e12:	7090      	strb	r0, [r2, #2]
   28e14:	7848      	ldrb	r0, [r1, #1]
   28e16:	788b      	ldrb	r3, [r1, #2]
   28e18:	021b      	lsls	r3, r3, #8
   28e1a:	1818      	adds	r0, r3, r0
   28e1c:	8010      	strh	r0, [r2, #0]
   28e1e:	980c      	ldr	r0, [sp, #48]	@ 0x30
   28e20:	6e06      	ldr	r6, [r0, #96]	@ 0x60
   28e22:	3108      	adds	r1, #8
   28e24:	48c2      	ldr	r0, [pc, #776]	@ (29130 <_start+0x349c>)
   28e26:	4468      	add	r0, sp
   28e28:	224e      	movs	r2, #78	@ 0x4e
   28e2a:	f000 fa0e 	bl	2924a <__aeabi_memcpy4>
   28e2e:	2c00      	cmp	r4, #0
   28e30:	d001      	beq.n	28e36 <_start+0x31a2>
   28e32:	f7fd f950 	bl	260d6 <_start+0x442>
   28e36:	4cc1      	ldr	r4, [pc, #772]	@ (2913c <_start+0x34a8>)
   28e38:	446c      	add	r4, sp
   28e3a:	70e6      	strb	r6, [r4, #3]
   28e3c:	9810      	ldr	r0, [sp, #64]	@ 0x40
   28e3e:	8020      	strh	r0, [r4, #0]
   28e40:	0e30      	lsrs	r0, r6, #24
   28e42:	71a0      	strb	r0, [r4, #6]
   28e44:	0c30      	lsrs	r0, r6, #16
   28e46:	7160      	strb	r0, [r4, #5]
   28e48:	0a30      	lsrs	r0, r6, #8
   28e4a:	7120      	strb	r0, [r4, #4]
   28e4c:	a810      	add	r0, sp, #64	@ 0x40
   28e4e:	7880      	ldrb	r0, [r0, #2]
   28e50:	70a0      	strb	r0, [r4, #2]
   28e52:	1de0      	adds	r0, r4, #7
   28e54:	49b6      	ldr	r1, [pc, #728]	@ (29130 <_start+0x349c>)
   28e56:	4469      	add	r1, sp
   28e58:	224e      	movs	r2, #78	@ 0x4e
   28e5a:	f000 fb56 	bl	2950a <__aeabi_memcpy>
   28e5e:	4db3      	ldr	r5, [pc, #716]	@ (2912c <_start+0x3498>)
   28e60:	446d      	add	r5, sp
   28e62:	4628      	mov	r0, r5
   28e64:	4621      	mov	r1, r4
   28e66:	f7fb ff41 	bl	24cec <_ZN20complex_full_dynamic3app17hdc89e11b7cb8e7d9E>
   28e6a:	7828      	ldrb	r0, [r5, #0]
   28e6c:	2801      	cmp	r0, #1
   28e6e:	d102      	bne.n	28e76 <_start+0x31e2>
   28e70:	990c      	ldr	r1, [sp, #48]	@ 0x30
   28e72:	6e0e      	ldr	r6, [r1, #96]	@ 0x60
   28e74:	e012      	b.n	28e9c <_start+0x3208>
   28e76:	49ae      	ldr	r1, [pc, #696]	@ (29130 <_start+0x349c>)
   28e78:	4469      	add	r1, sp
   28e7a:	9c0c      	ldr	r4, [sp, #48]	@ 0x30
   28e7c:	6ee2      	ldr	r2, [r4, #108]	@ 0x6c
   28e7e:	810a      	strh	r2, [r1, #8]
   28e80:	49aa      	ldr	r1, [pc, #680]	@ (2912c <_start+0x3498>)
   28e82:	4469      	add	r1, sp
   28e84:	78ca      	ldrb	r2, [r1, #3]
   28e86:	ab10      	add	r3, sp, #64	@ 0x40
   28e88:	709a      	strb	r2, [r3, #2]
   28e8a:	784a      	ldrb	r2, [r1, #1]
   28e8c:	7889      	ldrb	r1, [r1, #2]
   28e8e:	0209      	lsls	r1, r1, #8
   28e90:	1889      	adds	r1, r1, r2
   28e92:	8019      	strh	r1, [r3, #0]
   28e94:	6e61      	ldr	r1, [r4, #100]	@ 0x64
   28e96:	6ea2      	ldr	r2, [r4, #104]	@ 0x68
   28e98:	c406      	stmia	r4!, {r1, r2}
   28e9a:	6da6      	ldr	r6, [r4, #88]	@ 0x58
   28e9c:	2800      	cmp	r0, #0
   28e9e:	d001      	beq.n	28ea4 <_start+0x3210>
   28ea0:	f7fd f919 	bl	260d6 <_start+0x442>
   28ea4:	4ca6      	ldr	r4, [pc, #664]	@ (29140 <_start+0x34ac>)
   28ea6:	446c      	add	r4, sp
   28ea8:	70e6      	strb	r6, [r4, #3]
   28eaa:	9810      	ldr	r0, [sp, #64]	@ 0x40
   28eac:	8020      	strh	r0, [r4, #0]
   28eae:	0e30      	lsrs	r0, r6, #24
   28eb0:	71a0      	strb	r0, [r4, #6]
   28eb2:	0c30      	lsrs	r0, r6, #16
   28eb4:	7160      	strb	r0, [r4, #5]
   28eb6:	0a30      	lsrs	r0, r6, #8
   28eb8:	7120      	strb	r0, [r4, #4]
   28eba:	a810      	add	r0, sp, #64	@ 0x40
   28ebc:	7880      	ldrb	r0, [r0, #2]
   28ebe:	70a0      	strb	r0, [r4, #2]
   28ec0:	1de0      	adds	r0, r4, #7
   28ec2:	499b      	ldr	r1, [pc, #620]	@ (29130 <_start+0x349c>)
   28ec4:	4469      	add	r1, sp
   28ec6:	220a      	movs	r2, #10
   28ec8:	f000 fb1f 	bl	2950a <__aeabi_memcpy>
   28ecc:	4d97      	ldr	r5, [pc, #604]	@ (2912c <_start+0x3498>)
   28ece:	446d      	add	r5, sp
   28ed0:	4628      	mov	r0, r5
   28ed2:	4621      	mov	r1, r4
   28ed4:	f7f8 fbba 	bl	2164c <_ZN20complex_full_dynamic3app17h4369329bf5d6580aE>
   28ed8:	782c      	ldrb	r4, [r5, #0]
   28eda:	2c01      	cmp	r4, #1
   28edc:	d102      	bne.n	28ee4 <_start+0x3250>
   28ede:	980c      	ldr	r0, [sp, #48]	@ 0x30
   28ee0:	6e06      	ldr	r6, [r0, #96]	@ 0x60
   28ee2:	e011      	b.n	28f08 <_start+0x3274>
   28ee4:	4991      	ldr	r1, [pc, #580]	@ (2912c <_start+0x3498>)
   28ee6:	4469      	add	r1, sp
   28ee8:	78c8      	ldrb	r0, [r1, #3]
   28eea:	aa10      	add	r2, sp, #64	@ 0x40
   28eec:	7090      	strb	r0, [r2, #2]
   28eee:	7848      	ldrb	r0, [r1, #1]
   28ef0:	788b      	ldrb	r3, [r1, #2]
   28ef2:	021b      	lsls	r3, r3, #8
   28ef4:	1818      	adds	r0, r3, r0
   28ef6:	8010      	strh	r0, [r2, #0]
   28ef8:	980c      	ldr	r0, [sp, #48]	@ 0x30
   28efa:	6e06      	ldr	r6, [r0, #96]	@ 0x60
   28efc:	3108      	adds	r1, #8
   28efe:	488c      	ldr	r0, [pc, #560]	@ (29130 <_start+0x349c>)
   28f00:	4468      	add	r0, sp
   28f02:	2249      	movs	r2, #73	@ 0x49
   28f04:	f000 f9a1 	bl	2924a <__aeabi_memcpy4>
   28f08:	2c00      	cmp	r4, #0
   28f0a:	d001      	beq.n	28f10 <_start+0x327c>
   28f0c:	f7fd f8e3 	bl	260d6 <_start+0x442>
   28f10:	4c8c      	ldr	r4, [pc, #560]	@ (29144 <_start+0x34b0>)
   28f12:	446c      	add	r4, sp
   28f14:	70e6      	strb	r6, [r4, #3]
   28f16:	9810      	ldr	r0, [sp, #64]	@ 0x40
   28f18:	8020      	strh	r0, [r4, #0]
   28f1a:	0e30      	lsrs	r0, r6, #24
   28f1c:	71a0      	strb	r0, [r4, #6]
   28f1e:	0c30      	lsrs	r0, r6, #16
   28f20:	7160      	strb	r0, [r4, #5]
   28f22:	0a30      	lsrs	r0, r6, #8
   28f24:	7120      	strb	r0, [r4, #4]
   28f26:	a810      	add	r0, sp, #64	@ 0x40
   28f28:	7880      	ldrb	r0, [r0, #2]
   28f2a:	70a0      	strb	r0, [r4, #2]
   28f2c:	1de0      	adds	r0, r4, #7
   28f2e:	4980      	ldr	r1, [pc, #512]	@ (29130 <_start+0x349c>)
   28f30:	4469      	add	r1, sp
   28f32:	2249      	movs	r2, #73	@ 0x49
   28f34:	f000 fae9 	bl	2950a <__aeabi_memcpy>
   28f38:	4d7c      	ldr	r5, [pc, #496]	@ (2912c <_start+0x3498>)
   28f3a:	446d      	add	r5, sp
   28f3c:	4628      	mov	r0, r5
   28f3e:	4621      	mov	r1, r4
   28f40:	f7f7 fc34 	bl	207ac <_ZN20complex_full_dynamic3app17h184ff60b80ae9e58E>
   28f44:	7828      	ldrb	r0, [r5, #0]
   28f46:	2801      	cmp	r0, #1
   28f48:	d102      	bne.n	28f50 <_start+0x32bc>
   28f4a:	990c      	ldr	r1, [sp, #48]	@ 0x30
   28f4c:	6e0e      	ldr	r6, [r1, #96]	@ 0x60
   28f4e:	e012      	b.n	28f76 <_start+0x32e2>
   28f50:	4976      	ldr	r1, [pc, #472]	@ (2912c <_start+0x3498>)
   28f52:	4469      	add	r1, sp
   28f54:	78ca      	ldrb	r2, [r1, #3]
   28f56:	ab10      	add	r3, sp, #64	@ 0x40
   28f58:	709a      	strb	r2, [r3, #2]
   28f5a:	784a      	ldrb	r2, [r1, #1]
   28f5c:	788c      	ldrb	r4, [r1, #2]
   28f5e:	0224      	lsls	r4, r4, #8
   28f60:	18a2      	adds	r2, r4, r2
   28f62:	801a      	strh	r2, [r3, #0]
   28f64:	3108      	adds	r1, #8
   28f66:	9a0c      	ldr	r2, [sp, #48]	@ 0x30
   28f68:	6e16      	ldr	r6, [r2, #96]	@ 0x60
   28f6a:	4a71      	ldr	r2, [pc, #452]	@ (29130 <_start+0x349c>)
   28f6c:	446a      	add	r2, sp
   28f6e:	c918      	ldmia	r1!, {r3, r4}
   28f70:	c218      	stmia	r2!, {r3, r4}
   28f72:	c938      	ldmia	r1!, {r3, r4, r5}
   28f74:	c238      	stmia	r2!, {r3, r4, r5}
   28f76:	2800      	cmp	r0, #0
   28f78:	d001      	beq.n	28f7e <_start+0x32ea>
   28f7a:	f7fd f8ac 	bl	260d6 <_start+0x442>
   28f7e:	4c72      	ldr	r4, [pc, #456]	@ (29148 <_start+0x34b4>)
   28f80:	446c      	add	r4, sp
   28f82:	70e6      	strb	r6, [r4, #3]
   28f84:	9810      	ldr	r0, [sp, #64]	@ 0x40
   28f86:	8020      	strh	r0, [r4, #0]
   28f88:	0e30      	lsrs	r0, r6, #24
   28f8a:	71a0      	strb	r0, [r4, #6]
   28f8c:	0c30      	lsrs	r0, r6, #16
   28f8e:	7160      	strb	r0, [r4, #5]
   28f90:	0a30      	lsrs	r0, r6, #8
   28f92:	7120      	strb	r0, [r4, #4]
   28f94:	a810      	add	r0, sp, #64	@ 0x40
   28f96:	7880      	ldrb	r0, [r0, #2]
   28f98:	70a0      	strb	r0, [r4, #2]
   28f9a:	1de0      	adds	r0, r4, #7
   28f9c:	4964      	ldr	r1, [pc, #400]	@ (29130 <_start+0x349c>)
   28f9e:	4469      	add	r1, sp
   28fa0:	2214      	movs	r2, #20
   28fa2:	f000 fab2 	bl	2950a <__aeabi_memcpy>
   28fa6:	4d61      	ldr	r5, [pc, #388]	@ (2912c <_start+0x3498>)
   28fa8:	446d      	add	r5, sp
   28faa:	4628      	mov	r0, r5
   28fac:	4621      	mov	r1, r4
   28fae:	f7fa f8f9 	bl	231a4 <_ZN20complex_full_dynamic3app17h94d9bf9762f5d6c8E>
   28fb2:	782c      	ldrb	r4, [r5, #0]
   28fb4:	2c01      	cmp	r4, #1
   28fb6:	d102      	bne.n	28fbe <_start+0x332a>
   28fb8:	980c      	ldr	r0, [sp, #48]	@ 0x30
   28fba:	6e06      	ldr	r6, [r0, #96]	@ 0x60
   28fbc:	e011      	b.n	28fe2 <_start+0x334e>
   28fbe:	495b      	ldr	r1, [pc, #364]	@ (2912c <_start+0x3498>)
   28fc0:	4469      	add	r1, sp
   28fc2:	78c8      	ldrb	r0, [r1, #3]
   28fc4:	aa10      	add	r2, sp, #64	@ 0x40
   28fc6:	7090      	strb	r0, [r2, #2]
   28fc8:	7848      	ldrb	r0, [r1, #1]
   28fca:	788b      	ldrb	r3, [r1, #2]
   28fcc:	021b      	lsls	r3, r3, #8
   28fce:	1818      	adds	r0, r3, r0
   28fd0:	8010      	strh	r0, [r2, #0]
   28fd2:	980c      	ldr	r0, [sp, #48]	@ 0x30
   28fd4:	6e06      	ldr	r6, [r0, #96]	@ 0x60
   28fd6:	3108      	adds	r1, #8
   28fd8:	4855      	ldr	r0, [pc, #340]	@ (29130 <_start+0x349c>)
   28fda:	4468      	add	r0, sp
   28fdc:	225c      	movs	r2, #92	@ 0x5c
   28fde:	f000 f934 	bl	2924a <__aeabi_memcpy4>
   28fe2:	2c00      	cmp	r4, #0
   28fe4:	d001      	beq.n	28fea <_start+0x3356>
   28fe6:	f7fd f876 	bl	260d6 <_start+0x442>
   28fea:	4c58      	ldr	r4, [pc, #352]	@ (2914c <_start+0x34b8>)
   28fec:	446c      	add	r4, sp
   28fee:	70e6      	strb	r6, [r4, #3]
   28ff0:	9810      	ldr	r0, [sp, #64]	@ 0x40
   28ff2:	8020      	strh	r0, [r4, #0]
   28ff4:	0e30      	lsrs	r0, r6, #24
   28ff6:	71a0      	strb	r0, [r4, #6]
   28ff8:	0c30      	lsrs	r0, r6, #16
   28ffa:	7160      	strb	r0, [r4, #5]
   28ffc:	0a30      	lsrs	r0, r6, #8
   28ffe:	7120      	strb	r0, [r4, #4]
   29000:	a810      	add	r0, sp, #64	@ 0x40
   29002:	7880      	ldrb	r0, [r0, #2]
   29004:	70a0      	strb	r0, [r4, #2]
   29006:	1de0      	adds	r0, r4, #7
   29008:	4949      	ldr	r1, [pc, #292]	@ (29130 <_start+0x349c>)
   2900a:	4469      	add	r1, sp
   2900c:	225c      	movs	r2, #92	@ 0x5c
   2900e:	f000 fa7c 	bl	2950a <__aeabi_memcpy>
   29012:	4d46      	ldr	r5, [pc, #280]	@ (2912c <_start+0x3498>)
   29014:	446d      	add	r5, sp
   29016:	4628      	mov	r0, r5
   29018:	4621      	mov	r1, r4
   2901a:	f7f8 fa9e 	bl	2155a <_ZN20complex_full_dynamic3app17h435b977c35c10458E>
   2901e:	7828      	ldrb	r0, [r5, #0]
   29020:	2801      	cmp	r0, #1
   29022:	d10b      	bne.n	2903c <_start+0x33a8>
   29024:	990c      	ldr	r1, [sp, #48]	@ 0x30
   29026:	6e0e      	ldr	r6, [r1, #96]	@ 0x60
   29028:	e01f      	b.n	2906a <_start+0x33d6>
   2902a:	46c0      	nop			@ (mov r8, r8)
   2902c:	00001414 	.word	0x00001414
   29030:	000013b8 	.word	0x000013b8
   29034:	00001208 	.word	0x00001208
   29038:	0000122c 	.word	0x0000122c
   2903c:	493b      	ldr	r1, [pc, #236]	@ (2912c <_start+0x3498>)
   2903e:	4469      	add	r1, sp
   29040:	78ca      	ldrb	r2, [r1, #3]
   29042:	ab10      	add	r3, sp, #64	@ 0x40
   29044:	709a      	strb	r2, [r3, #2]
   29046:	784a      	ldrb	r2, [r1, #1]
   29048:	788c      	ldrb	r4, [r1, #2]
   2904a:	0224      	lsls	r4, r4, #8
   2904c:	18a2      	adds	r2, r4, r2
   2904e:	801a      	strh	r2, [r3, #0]
   29050:	3108      	adds	r1, #8
   29052:	9a0c      	ldr	r2, [sp, #48]	@ 0x30
   29054:	6e16      	ldr	r6, [r2, #96]	@ 0x60
   29056:	4a36      	ldr	r2, [pc, #216]	@ (29130 <_start+0x349c>)
   29058:	446a      	add	r2, sp
   2905a:	c938      	ldmia	r1!, {r3, r4, r5}
   2905c:	c238      	stmia	r2!, {r3, r4, r5}
   2905e:	c938      	ldmia	r1!, {r3, r4, r5}
   29060:	c238      	stmia	r2!, {r3, r4, r5}
   29062:	c938      	ldmia	r1!, {r3, r4, r5}
   29064:	c238      	stmia	r2!, {r3, r4, r5}
   29066:	7809      	ldrb	r1, [r1, #0]
   29068:	7011      	strb	r1, [r2, #0]
   2906a:	2800      	cmp	r0, #0
   2906c:	d001      	beq.n	29072 <_start+0x33de>
   2906e:	f7fd f832 	bl	260d6 <_start+0x442>
   29072:	4c37      	ldr	r4, [pc, #220]	@ (29150 <_start+0x34bc>)
   29074:	446c      	add	r4, sp
   29076:	70e6      	strb	r6, [r4, #3]
   29078:	9810      	ldr	r0, [sp, #64]	@ 0x40
   2907a:	8020      	strh	r0, [r4, #0]
   2907c:	0e30      	lsrs	r0, r6, #24
   2907e:	71a0      	strb	r0, [r4, #6]
   29080:	0c30      	lsrs	r0, r6, #16
   29082:	7160      	strb	r0, [r4, #5]
   29084:	0a30      	lsrs	r0, r6, #8
   29086:	7120      	strb	r0, [r4, #4]
   29088:	a810      	add	r0, sp, #64	@ 0x40
   2908a:	7880      	ldrb	r0, [r0, #2]
   2908c:	70a0      	strb	r0, [r4, #2]
   2908e:	1de0      	adds	r0, r4, #7
   29090:	4927      	ldr	r1, [pc, #156]	@ (29130 <_start+0x349c>)
   29092:	4469      	add	r1, sp
   29094:	2225      	movs	r2, #37	@ 0x25
   29096:	f000 fa38 	bl	2950a <__aeabi_memcpy>
   2909a:	4d24      	ldr	r5, [pc, #144]	@ (2912c <_start+0x3498>)
   2909c:	446d      	add	r5, sp
   2909e:	4628      	mov	r0, r5
   290a0:	4621      	mov	r1, r4
   290a2:	f7fb ff25 	bl	24ef0 <_ZN20complex_full_dynamic3app17hdd9c8e10bc803531E>
   290a6:	7828      	ldrb	r0, [r5, #0]
   290a8:	2801      	cmp	r0, #1
   290aa:	d103      	bne.n	290b4 <_start+0x3420>
   290ac:	990c      	ldr	r1, [sp, #48]	@ 0x30
   290ae:	6e09      	ldr	r1, [r1, #96]	@ 0x60
   290b0:	910b      	str	r1, [sp, #44]	@ 0x2c
   290b2:	e017      	b.n	290e4 <_start+0x3450>
   290b4:	491d      	ldr	r1, [pc, #116]	@ (2912c <_start+0x3498>)
   290b6:	4469      	add	r1, sp
   290b8:	78ca      	ldrb	r2, [r1, #3]
   290ba:	ab10      	add	r3, sp, #64	@ 0x40
   290bc:	709a      	strb	r2, [r3, #2]
   290be:	784a      	ldrb	r2, [r1, #1]
   290c0:	788c      	ldrb	r4, [r1, #2]
   290c2:	0224      	lsls	r4, r4, #8
   290c4:	18a2      	adds	r2, r4, r2
   290c6:	801a      	strh	r2, [r3, #0]
   290c8:	3108      	adds	r1, #8
   290ca:	9a0c      	ldr	r2, [sp, #48]	@ 0x30
   290cc:	6e12      	ldr	r2, [r2, #96]	@ 0x60
   290ce:	920b      	str	r2, [sp, #44]	@ 0x2c
   290d0:	4a17      	ldr	r2, [pc, #92]	@ (29130 <_start+0x349c>)
   290d2:	446a      	add	r2, sp
   290d4:	c978      	ldmia	r1!, {r3, r4, r5, r6}
   290d6:	c278      	stmia	r2!, {r3, r4, r5, r6}
   290d8:	c978      	ldmia	r1!, {r3, r4, r5, r6}
   290da:	c278      	stmia	r2!, {r3, r4, r5, r6}
   290dc:	880b      	ldrh	r3, [r1, #0]
   290de:	8013      	strh	r3, [r2, #0]
   290e0:	7889      	ldrb	r1, [r1, #2]
   290e2:	7091      	strb	r1, [r2, #2]
   290e4:	2800      	cmp	r0, #0
   290e6:	d001      	beq.n	290ec <_start+0x3458>
   290e8:	f7fd f962 	bl	263b0 <_start+0x71c>
   290ec:	4c19      	ldr	r4, [pc, #100]	@ (29154 <_start+0x34c0>)
   290ee:	446c      	add	r4, sp
   290f0:	990b      	ldr	r1, [sp, #44]	@ 0x2c
   290f2:	70e1      	strb	r1, [r4, #3]
   290f4:	9810      	ldr	r0, [sp, #64]	@ 0x40
   290f6:	8020      	strh	r0, [r4, #0]
   290f8:	0e08      	lsrs	r0, r1, #24
   290fa:	71a0      	strb	r0, [r4, #6]
   290fc:	0c08      	lsrs	r0, r1, #16
   290fe:	7160      	strb	r0, [r4, #5]
   29100:	0a08      	lsrs	r0, r1, #8
   29102:	7120      	strb	r0, [r4, #4]
   29104:	a810      	add	r0, sp, #64	@ 0x40
   29106:	7880      	ldrb	r0, [r0, #2]
   29108:	70a0      	strb	r0, [r4, #2]
   2910a:	1de0      	adds	r0, r4, #7
   2910c:	4908      	ldr	r1, [pc, #32]	@ (29130 <_start+0x349c>)
   2910e:	4469      	add	r1, sp
   29110:	2223      	movs	r2, #35	@ 0x23
   29112:	f000 f9fa 	bl	2950a <__aeabi_memcpy>
   29116:	4d05      	ldr	r5, [pc, #20]	@ (2912c <_start+0x3498>)
   29118:	446d      	add	r5, sp
   2911a:	4628      	mov	r0, r5
   2911c:	4621      	mov	r1, r4
   2911e:	f7f9 fce5 	bl	22aec <_ZN20complex_full_dynamic3app17h7f255a17eb07b4f3E>
   29122:	7828      	ldrb	r0, [r5, #0]
   29124:	990c      	ldr	r1, [sp, #48]	@ 0x30
   29126:	6e0e      	ldr	r6, [r1, #96]	@ 0x60
   29128:	f7fc ffd6 	bl	260d8 <_start+0x444>
   2912c:	00001414 	.word	0x00001414
   29130:	000013b8 	.word	0x000013b8
   29134:	00001250 	.word	0x00001250
   29138:	00001280 	.word	0x00001280
   2913c:	000012e0 	.word	0x000012e0
   29140:	00001338 	.word	0x00001338
   29144:	0000134c 	.word	0x0000134c
   29148:	0000139c 	.word	0x0000139c
   2914c:	00001478 	.word	0x00001478
   29150:	000014dc 	.word	0x000014dc
   29154:	00001508 	.word	0x00001508

00029158 <_ZN9allow_pin12full_dynamic17unshare_if_shared17hc49b4b2653f8b2c9E>:
   29158:	b5d0      	push	{r4, r6, r7, lr}
   2915a:	af02      	add	r7, sp, #8
   2915c:	7a02      	ldrb	r2, [r0, #8]
   2915e:	2a02      	cmp	r2, #2
   29160:	d00d      	beq.n	2917e <_ZN9allow_pin12full_dynamic17unshare_if_shared17hc49b4b2653f8b2c9E+0x26>
   29162:	4604      	mov	r4, r0
   29164:	6800      	ldr	r0, [r0, #0]
   29166:	6861      	ldr	r1, [r4, #4]
   29168:	2a03      	cmp	r2, #3
   2916a:	d103      	bne.n	29174 <_ZN9allow_pin12full_dynamic17unshare_if_shared17hc49b4b2653f8b2c9E+0x1c>
   2916c:	2200      	movs	r2, #0
   2916e:	4613      	mov	r3, r2
   29170:	df03      	svc	3
   29172:	e002      	b.n	2917a <_ZN9allow_pin12full_dynamic17unshare_if_shared17hc49b4b2653f8b2c9E+0x22>
   29174:	2200      	movs	r2, #0
   29176:	4613      	mov	r3, r2
   29178:	df04      	svc	4
   2917a:	2002      	movs	r0, #2
   2917c:	7220      	strb	r0, [r4, #8]
   2917e:	bdd0      	pop	{r4, r6, r7, pc}

00029180 <_ZN9allow_pin13dynamic_allow17h8bfd3764c146b81aE>:
   29180:	b5b0      	push	{r4, r5, r7, lr}
   29182:	af02      	add	r7, sp, #8
   29184:	461d      	mov	r5, r3
   29186:	4604      	mov	r4, r0
   29188:	1df8      	adds	r0, r7, #7
   2918a:	3005      	adds	r0, #5
   2918c:	7800      	ldrb	r0, [r0, #0]
   2918e:	68bb      	ldr	r3, [r7, #8]
   29190:	2803      	cmp	r0, #3
   29192:	d104      	bne.n	2919e <_ZN9allow_pin13dynamic_allow17h8bfd3764c146b81aE+0x1e>
   29194:	4608      	mov	r0, r1
   29196:	4611      	mov	r1, r2
   29198:	462a      	mov	r2, r5
   2919a:	df03      	svc	3
   2919c:	e003      	b.n	291a6 <_ZN9allow_pin13dynamic_allow17h8bfd3764c146b81aE+0x26>
   2919e:	4608      	mov	r0, r1
   291a0:	4611      	mov	r1, r2
   291a2:	462a      	mov	r2, r5
   291a4:	df04      	svc	4
   291a6:	6020      	str	r0, [r4, #0]
   291a8:	6061      	str	r1, [r4, #4]
   291aa:	60a2      	str	r2, [r4, #8]
   291ac:	60e3      	str	r3, [r4, #12]
   291ae:	bdb0      	pop	{r4, r5, r7, pc}

000291b0 <__aeabi_memclr4>:
   291b0:	b5f0      	push	{r4, r5, r6, r7, lr}
   291b2:	af03      	add	r7, sp, #12
   291b4:	2904      	cmp	r1, #4
   291b6:	d311      	bcc.n	291dc <__aeabi_memclr4+0x2c>
   291b8:	1f0c      	subs	r4, r1, #4
   291ba:	250c      	movs	r5, #12
   291bc:	4025      	ands	r5, r4
   291be:	2d0c      	cmp	r5, #12
   291c0:	d012      	beq.n	291e8 <__aeabi_memclr4+0x38>
   291c2:	2600      	movs	r6, #0
   291c4:	4602      	mov	r2, r0
   291c6:	c240      	stmia	r2!, {r6}
   291c8:	0723      	lsls	r3, r4, #28
   291ca:	0f9b      	lsrs	r3, r3, #30
   291cc:	4623      	mov	r3, r4
   291ce:	d00d      	beq.n	291ec <__aeabi_memclr4+0x3c>
   291d0:	6046      	str	r6, [r0, #4]
   291d2:	2d04      	cmp	r5, #4
   291d4:	d105      	bne.n	291e2 <__aeabi_memclr4+0x32>
   291d6:	3908      	subs	r1, #8
   291d8:	3008      	adds	r0, #8
   291da:	e005      	b.n	291e8 <__aeabi_memclr4+0x38>
   291dc:	460b      	mov	r3, r1
   291de:	4602      	mov	r2, r0
   291e0:	e00f      	b.n	29202 <__aeabi_memclr4+0x52>
   291e2:	6086      	str	r6, [r0, #8]
   291e4:	390c      	subs	r1, #12
   291e6:	300c      	adds	r0, #12
   291e8:	4602      	mov	r2, r0
   291ea:	460b      	mov	r3, r1
   291ec:	2c0c      	cmp	r4, #12
   291ee:	d308      	bcc.n	29202 <__aeabi_memclr4+0x52>
   291f0:	2000      	movs	r0, #0
   291f2:	6010      	str	r0, [r2, #0]
   291f4:	6050      	str	r0, [r2, #4]
   291f6:	6090      	str	r0, [r2, #8]
   291f8:	60d0      	str	r0, [r2, #12]
   291fa:	3210      	adds	r2, #16
   291fc:	3b10      	subs	r3, #16
   291fe:	2b03      	cmp	r3, #3
   29200:	d8f6      	bhi.n	291f0 <__aeabi_memclr4+0x40>
   29202:	18d0      	adds	r0, r2, r3
   29204:	4282      	cmp	r2, r0
   29206:	d21a      	bcs.n	2923e <__aeabi_memclr4+0x8e>
   29208:	2403      	movs	r4, #3
   2920a:	401c      	ands	r4, r3
   2920c:	1e59      	subs	r1, r3, #1
   2920e:	2c00      	cmp	r4, #0
   29210:	d00b      	beq.n	2922a <__aeabi_memclr4+0x7a>
   29212:	2300      	movs	r3, #0
   29214:	7013      	strb	r3, [r2, #0]
   29216:	2c01      	cmp	r4, #1
   29218:	d103      	bne.n	29222 <__aeabi_memclr4+0x72>
   2921a:	1c52      	adds	r2, r2, #1
   2921c:	2903      	cmp	r1, #3
   2921e:	d206      	bcs.n	2922e <__aeabi_memclr4+0x7e>
   29220:	e00d      	b.n	2923e <__aeabi_memclr4+0x8e>
   29222:	7053      	strb	r3, [r2, #1]
   29224:	2c02      	cmp	r4, #2
   29226:	d10b      	bne.n	29240 <__aeabi_memclr4+0x90>
   29228:	1c92      	adds	r2, r2, #2
   2922a:	2903      	cmp	r1, #3
   2922c:	d307      	bcc.n	2923e <__aeabi_memclr4+0x8e>
   2922e:	2100      	movs	r1, #0
   29230:	70d1      	strb	r1, [r2, #3]
   29232:	7091      	strb	r1, [r2, #2]
   29234:	7051      	strb	r1, [r2, #1]
   29236:	7011      	strb	r1, [r2, #0]
   29238:	1d12      	adds	r2, r2, #4
   2923a:	4282      	cmp	r2, r0
   2923c:	d1f7      	bne.n	2922e <__aeabi_memclr4+0x7e>
   2923e:	bdf0      	pop	{r4, r5, r6, r7, pc}
   29240:	7093      	strb	r3, [r2, #2]
   29242:	1cd2      	adds	r2, r2, #3
   29244:	2903      	cmp	r1, #3
   29246:	d2f2      	bcs.n	2922e <__aeabi_memclr4+0x7e>
   29248:	e7f9      	b.n	2923e <__aeabi_memclr4+0x8e>

0002924a <__aeabi_memcpy4>:
   2924a:	b5f0      	push	{r4, r5, r6, r7, lr}
   2924c:	af03      	add	r7, sp, #12
   2924e:	b081      	sub	sp, #4
   29250:	2a04      	cmp	r2, #4
   29252:	d32d      	bcc.n	292b0 <__aeabi_memcpy4+0x66>
   29254:	1f13      	subs	r3, r2, #4
   29256:	250c      	movs	r5, #12
   29258:	401d      	ands	r5, r3
   2925a:	2d0c      	cmp	r5, #12
   2925c:	d019      	beq.n	29292 <__aeabi_memcpy4+0x48>
   2925e:	9200      	str	r2, [sp, #0]
   29260:	460e      	mov	r6, r1
   29262:	c904      	ldmia	r1!, {r2}
   29264:	4604      	mov	r4, r0
   29266:	c004      	stmia	r0!, {r2}
   29268:	071a      	lsls	r2, r3, #28
   2926a:	0f92      	lsrs	r2, r2, #30
   2926c:	461a      	mov	r2, r3
   2926e:	d010      	beq.n	29292 <__aeabi_memcpy4+0x48>
   29270:	4631      	mov	r1, r6
   29272:	6872      	ldr	r2, [r6, #4]
   29274:	6062      	str	r2, [r4, #4]
   29276:	2d04      	cmp	r5, #4
   29278:	d104      	bne.n	29284 <__aeabi_memcpy4+0x3a>
   2927a:	9a00      	ldr	r2, [sp, #0]
   2927c:	3a08      	subs	r2, #8
   2927e:	3108      	adds	r1, #8
   29280:	3408      	adds	r4, #8
   29282:	e005      	b.n	29290 <__aeabi_memcpy4+0x46>
   29284:	688a      	ldr	r2, [r1, #8]
   29286:	60a2      	str	r2, [r4, #8]
   29288:	9a00      	ldr	r2, [sp, #0]
   2928a:	3a0c      	subs	r2, #12
   2928c:	310c      	adds	r1, #12
   2928e:	340c      	adds	r4, #12
   29290:	4620      	mov	r0, r4
   29292:	2b0c      	cmp	r3, #12
   29294:	d30c      	bcc.n	292b0 <__aeabi_memcpy4+0x66>
   29296:	680b      	ldr	r3, [r1, #0]
   29298:	6003      	str	r3, [r0, #0]
   2929a:	684b      	ldr	r3, [r1, #4]
   2929c:	6043      	str	r3, [r0, #4]
   2929e:	688b      	ldr	r3, [r1, #8]
   292a0:	6083      	str	r3, [r0, #8]
   292a2:	68cb      	ldr	r3, [r1, #12]
   292a4:	60c3      	str	r3, [r0, #12]
   292a6:	3110      	adds	r1, #16
   292a8:	3010      	adds	r0, #16
   292aa:	3a10      	subs	r2, #16
   292ac:	2a03      	cmp	r2, #3
   292ae:	d8f2      	bhi.n	29296 <__aeabi_memcpy4+0x4c>
   292b0:	f000 f802 	bl	292b8 <_ZN17compiler_builtins3mem6memcpy17h1f9dbb1c3fd18e2fE>
   292b4:	b001      	add	sp, #4
   292b6:	bdf0      	pop	{r4, r5, r6, r7, pc}

000292b8 <_ZN17compiler_builtins3mem6memcpy17h1f9dbb1c3fd18e2fE>:
   292b8:	b5f0      	push	{r4, r5, r6, r7, lr}
   292ba:	af03      	add	r7, sp, #12
   292bc:	b08f      	sub	sp, #60	@ 0x3c
   292be:	2a10      	cmp	r2, #16
   292c0:	d315      	bcc.n	292ee <_ZN17compiler_builtins3mem6memcpy17h1f9dbb1c3fd18e2fE+0x36>
   292c2:	920b      	str	r2, [sp, #44]	@ 0x2c
   292c4:	4242      	negs	r2, r0
   292c6:	2303      	movs	r3, #3
   292c8:	9308      	str	r3, [sp, #32]
   292ca:	401a      	ands	r2, r3
   292cc:	1885      	adds	r5, r0, r2
   292ce:	900a      	str	r0, [sp, #40]	@ 0x28
   292d0:	42a8      	cmp	r0, r5
   292d2:	d22a      	bcs.n	2932a <_ZN17compiler_builtins3mem6memcpy17h1f9dbb1c3fd18e2fE+0x72>
   292d4:	1e54      	subs	r4, r2, #1
   292d6:	2a00      	cmp	r2, #0
   292d8:	980a      	ldr	r0, [sp, #40]	@ 0x28
   292da:	4606      	mov	r6, r0
   292dc:	460b      	mov	r3, r1
   292de:	d016      	beq.n	2930e <_ZN17compiler_builtins3mem6memcpy17h1f9dbb1c3fd18e2fE+0x56>
   292e0:	780b      	ldrb	r3, [r1, #0]
   292e2:	7003      	strb	r3, [r0, #0]
   292e4:	2a01      	cmp	r2, #1
   292e6:	d107      	bne.n	292f8 <_ZN17compiler_builtins3mem6memcpy17h1f9dbb1c3fd18e2fE+0x40>
   292e8:	1c4b      	adds	r3, r1, #1
   292ea:	1c46      	adds	r6, r0, #1
   292ec:	e00f      	b.n	2930e <_ZN17compiler_builtins3mem6memcpy17h1f9dbb1c3fd18e2fE+0x56>
   292ee:	4603      	mov	r3, r0
   292f0:	189c      	adds	r4, r3, r2
   292f2:	42a3      	cmp	r3, r4
   292f4:	d341      	bcc.n	2937a <_ZN17compiler_builtins3mem6memcpy17h1f9dbb1c3fd18e2fE+0xc2>
   292f6:	e062      	b.n	293be <_ZN17compiler_builtins3mem6memcpy17h1f9dbb1c3fd18e2fE+0x106>
   292f8:	784b      	ldrb	r3, [r1, #1]
   292fa:	7043      	strb	r3, [r0, #1]
   292fc:	2a02      	cmp	r2, #2
   292fe:	d102      	bne.n	29306 <_ZN17compiler_builtins3mem6memcpy17h1f9dbb1c3fd18e2fE+0x4e>
   29300:	1c8b      	adds	r3, r1, #2
   29302:	1c86      	adds	r6, r0, #2
   29304:	e003      	b.n	2930e <_ZN17compiler_builtins3mem6memcpy17h1f9dbb1c3fd18e2fE+0x56>
   29306:	788b      	ldrb	r3, [r1, #2]
   29308:	7083      	strb	r3, [r0, #2]
   2930a:	1ccb      	adds	r3, r1, #3
   2930c:	1cc6      	adds	r6, r0, #3
   2930e:	2c03      	cmp	r4, #3
   29310:	d30b      	bcc.n	2932a <_ZN17compiler_builtins3mem6memcpy17h1f9dbb1c3fd18e2fE+0x72>
   29312:	781c      	ldrb	r4, [r3, #0]
   29314:	7034      	strb	r4, [r6, #0]
   29316:	785c      	ldrb	r4, [r3, #1]
   29318:	7074      	strb	r4, [r6, #1]
   2931a:	789c      	ldrb	r4, [r3, #2]
   2931c:	70b4      	strb	r4, [r6, #2]
   2931e:	78dc      	ldrb	r4, [r3, #3]
   29320:	70f4      	strb	r4, [r6, #3]
   29322:	1d1b      	adds	r3, r3, #4
   29324:	1d36      	adds	r6, r6, #4
   29326:	42ae      	cmp	r6, r5
   29328:	d1f3      	bne.n	29312 <_ZN17compiler_builtins3mem6memcpy17h1f9dbb1c3fd18e2fE+0x5a>
   2932a:	980b      	ldr	r0, [sp, #44]	@ 0x2c
   2932c:	1a80      	subs	r0, r0, r2
   2932e:	900b      	str	r0, [sp, #44]	@ 0x2c
   29330:	9c08      	ldr	r4, [sp, #32]
   29332:	43a0      	bics	r0, r4
   29334:	182b      	adds	r3, r5, r0
   29336:	188e      	adds	r6, r1, r2
   29338:	9609      	str	r6, [sp, #36]	@ 0x24
   2933a:	4026      	ands	r6, r4
   2933c:	9007      	str	r0, [sp, #28]
   2933e:	d147      	bne.n	293d0 <_ZN17compiler_builtins3mem6memcpy17h1f9dbb1c3fd18e2fE+0x118>
   29340:	429d      	cmp	r5, r3
   29342:	9a0b      	ldr	r2, [sp, #44]	@ 0x2c
   29344:	9e09      	ldr	r6, [sp, #36]	@ 0x24
   29346:	d211      	bcs.n	2936c <_ZN17compiler_builtins3mem6memcpy17h1f9dbb1c3fd18e2fE+0xb4>
   29348:	4631      	mov	r1, r6
   2934a:	6808      	ldr	r0, [r1, #0]
   2934c:	c501      	stmia	r5!, {r0}
   2934e:	429d      	cmp	r5, r3
   29350:	d20c      	bcs.n	2936c <_ZN17compiler_builtins3mem6memcpy17h1f9dbb1c3fd18e2fE+0xb4>
   29352:	6848      	ldr	r0, [r1, #4]
   29354:	c501      	stmia	r5!, {r0}
   29356:	429d      	cmp	r5, r3
   29358:	d208      	bcs.n	2936c <_ZN17compiler_builtins3mem6memcpy17h1f9dbb1c3fd18e2fE+0xb4>
   2935a:	6888      	ldr	r0, [r1, #8]
   2935c:	c501      	stmia	r5!, {r0}
   2935e:	429d      	cmp	r5, r3
   29360:	d204      	bcs.n	2936c <_ZN17compiler_builtins3mem6memcpy17h1f9dbb1c3fd18e2fE+0xb4>
   29362:	68c8      	ldr	r0, [r1, #12]
   29364:	c501      	stmia	r5!, {r0}
   29366:	3110      	adds	r1, #16
   29368:	429d      	cmp	r5, r3
   2936a:	d3ee      	bcc.n	2934a <_ZN17compiler_builtins3mem6memcpy17h1f9dbb1c3fd18e2fE+0x92>
   2936c:	4022      	ands	r2, r4
   2936e:	9807      	ldr	r0, [sp, #28]
   29370:	1831      	adds	r1, r6, r0
   29372:	980a      	ldr	r0, [sp, #40]	@ 0x28
   29374:	189c      	adds	r4, r3, r2
   29376:	42a3      	cmp	r3, r4
   29378:	d221      	bcs.n	293be <_ZN17compiler_builtins3mem6memcpy17h1f9dbb1c3fd18e2fE+0x106>
   2937a:	2503      	movs	r5, #3
   2937c:	4015      	ands	r5, r2
   2937e:	1e52      	subs	r2, r2, #1
   29380:	2d00      	cmp	r5, #0
   29382:	d00e      	beq.n	293a2 <_ZN17compiler_builtins3mem6memcpy17h1f9dbb1c3fd18e2fE+0xea>
   29384:	780e      	ldrb	r6, [r1, #0]
   29386:	701e      	strb	r6, [r3, #0]
   29388:	2d01      	cmp	r5, #1
   2938a:	d104      	bne.n	29396 <_ZN17compiler_builtins3mem6memcpy17h1f9dbb1c3fd18e2fE+0xde>
   2938c:	1c49      	adds	r1, r1, #1
   2938e:	1c5b      	adds	r3, r3, #1
   29390:	2a03      	cmp	r2, #3
   29392:	d208      	bcs.n	293a6 <_ZN17compiler_builtins3mem6memcpy17h1f9dbb1c3fd18e2fE+0xee>
   29394:	e013      	b.n	293be <_ZN17compiler_builtins3mem6memcpy17h1f9dbb1c3fd18e2fE+0x106>
   29396:	784e      	ldrb	r6, [r1, #1]
   29398:	705e      	strb	r6, [r3, #1]
   2939a:	2d02      	cmp	r5, #2
   2939c:	d111      	bne.n	293c2 <_ZN17compiler_builtins3mem6memcpy17h1f9dbb1c3fd18e2fE+0x10a>
   2939e:	1c89      	adds	r1, r1, #2
   293a0:	1c9b      	adds	r3, r3, #2
   293a2:	2a03      	cmp	r2, #3
   293a4:	d30b      	bcc.n	293be <_ZN17compiler_builtins3mem6memcpy17h1f9dbb1c3fd18e2fE+0x106>
   293a6:	780a      	ldrb	r2, [r1, #0]
   293a8:	701a      	strb	r2, [r3, #0]
   293aa:	784a      	ldrb	r2, [r1, #1]
   293ac:	705a      	strb	r2, [r3, #1]
   293ae:	788a      	ldrb	r2, [r1, #2]
   293b0:	709a      	strb	r2, [r3, #2]
   293b2:	78ca      	ldrb	r2, [r1, #3]
   293b4:	70da      	strb	r2, [r3, #3]
   293b6:	1d09      	adds	r1, r1, #4
   293b8:	1d1b      	adds	r3, r3, #4
   293ba:	42a3      	cmp	r3, r4
   293bc:	d1f3      	bne.n	293a6 <_ZN17compiler_builtins3mem6memcpy17h1f9dbb1c3fd18e2fE+0xee>
   293be:	b00f      	add	sp, #60	@ 0x3c
   293c0:	bdf0      	pop	{r4, r5, r6, r7, pc}
   293c2:	788d      	ldrb	r5, [r1, #2]
   293c4:	709d      	strb	r5, [r3, #2]
   293c6:	1cc9      	adds	r1, r1, #3
   293c8:	1cdb      	adds	r3, r3, #3
   293ca:	2a03      	cmp	r2, #3
   293cc:	d2eb      	bcs.n	293a6 <_ZN17compiler_builtins3mem6memcpy17h1f9dbb1c3fd18e2fE+0xee>
   293ce:	e7f6      	b.n	293be <_ZN17compiler_builtins3mem6memcpy17h1f9dbb1c3fd18e2fE+0x106>
   293d0:	2400      	movs	r4, #0
   293d2:	9406      	str	r4, [sp, #24]
   293d4:	940e      	str	r4, [sp, #56]	@ 0x38
   293d6:	ac0e      	add	r4, sp, #56	@ 0x38
   293d8:	19a4      	adds	r4, r4, r6
   293da:	9405      	str	r4, [sp, #20]
   293dc:	2404      	movs	r4, #4
   293de:	1ba4      	subs	r4, r4, r6
   293e0:	9404      	str	r4, [sp, #16]
   293e2:	07e4      	lsls	r4, r4, #31
   293e4:	9600      	str	r6, [sp, #0]
   293e6:	d006      	beq.n	293f6 <_ZN17compiler_builtins3mem6memcpy17h1f9dbb1c3fd18e2fE+0x13e>
   293e8:	9c09      	ldr	r4, [sp, #36]	@ 0x24
   293ea:	7824      	ldrb	r4, [r4, #0]
   293ec:	9e05      	ldr	r6, [sp, #20]
   293ee:	7034      	strb	r4, [r6, #0]
   293f0:	9e00      	ldr	r6, [sp, #0]
   293f2:	2401      	movs	r4, #1
   293f4:	9406      	str	r4, [sp, #24]
   293f6:	9c04      	ldr	r4, [sp, #16]
   293f8:	07a4      	lsls	r4, r4, #30
   293fa:	d508      	bpl.n	2940e <_ZN17compiler_builtins3mem6memcpy17h1f9dbb1c3fd18e2fE+0x156>
   293fc:	9c09      	ldr	r4, [sp, #36]	@ 0x24
   293fe:	9204      	str	r2, [sp, #16]
   29400:	9a06      	ldr	r2, [sp, #24]
   29402:	5aa4      	ldrh	r4, [r4, r2]
   29404:	9e05      	ldr	r6, [sp, #20]
   29406:	9a06      	ldr	r2, [sp, #24]
   29408:	52b4      	strh	r4, [r6, r2]
   2940a:	9a04      	ldr	r2, [sp, #16]
   2940c:	9e00      	ldr	r6, [sp, #0]
   2940e:	00f4      	lsls	r4, r6, #3
   29410:	9403      	str	r4, [sp, #12]
   29412:	9c0e      	ldr	r4, [sp, #56]	@ 0x38
   29414:	9406      	str	r4, [sp, #24]
   29416:	1d2c      	adds	r4, r5, #4
   29418:	429c      	cmp	r4, r3
   2941a:	d236      	bcs.n	2948a <_ZN17compiler_builtins3mem6memcpy17h1f9dbb1c3fd18e2fE+0x1d2>
   2941c:	4274      	negs	r4, r6
   2941e:	1909      	adds	r1, r1, r4
   29420:	9105      	str	r1, [sp, #20]
   29422:	9d03      	ldr	r5, [sp, #12]
   29424:	4269      	negs	r1, r5
   29426:	2418      	movs	r4, #24
   29428:	400c      	ands	r4, r1
   2942a:	9402      	str	r4, [sp, #8]
   2942c:	990a      	ldr	r1, [sp, #40]	@ 0x28
   2942e:	9104      	str	r1, [sp, #16]
   29430:	4629      	mov	r1, r5
   29432:	9c06      	ldr	r4, [sp, #24]
   29434:	40cc      	lsrs	r4, r1
   29436:	9406      	str	r4, [sp, #24]
   29438:	9905      	ldr	r1, [sp, #20]
   2943a:	1889      	adds	r1, r1, r2
   2943c:	9101      	str	r1, [sp, #4]
   2943e:	6849      	ldr	r1, [r1, #4]
   29440:	460c      	mov	r4, r1
   29442:	9d02      	ldr	r5, [sp, #8]
   29444:	40ac      	lsls	r4, r5
   29446:	9d06      	ldr	r5, [sp, #24]
   29448:	432c      	orrs	r4, r5
   2944a:	9d04      	ldr	r5, [sp, #16]
   2944c:	50ac      	str	r4, [r5, r2]
   2944e:	18ad      	adds	r5, r5, r2
   29450:	462c      	mov	r4, r5
   29452:	3408      	adds	r4, #8
   29454:	429c      	cmp	r4, r3
   29456:	d21c      	bcs.n	29492 <_ZN17compiler_builtins3mem6memcpy17h1f9dbb1c3fd18e2fE+0x1da>
   29458:	9c03      	ldr	r4, [sp, #12]
   2945a:	40e1      	lsrs	r1, r4
   2945c:	9c01      	ldr	r4, [sp, #4]
   2945e:	68a4      	ldr	r4, [r4, #8]
   29460:	9406      	str	r4, [sp, #24]
   29462:	9501      	str	r5, [sp, #4]
   29464:	9d02      	ldr	r5, [sp, #8]
   29466:	40ac      	lsls	r4, r5
   29468:	430c      	orrs	r4, r1
   2946a:	9901      	ldr	r1, [sp, #4]
   2946c:	604c      	str	r4, [r1, #4]
   2946e:	9904      	ldr	r1, [sp, #16]
   29470:	3108      	adds	r1, #8
   29472:	9104      	str	r1, [sp, #16]
   29474:	188d      	adds	r5, r1, r2
   29476:	1d29      	adds	r1, r5, #4
   29478:	9c05      	ldr	r4, [sp, #20]
   2947a:	3408      	adds	r4, #8
   2947c:	9405      	str	r4, [sp, #20]
   2947e:	4299      	cmp	r1, r3
   29480:	9903      	ldr	r1, [sp, #12]
   29482:	d3d6      	bcc.n	29432 <_ZN17compiler_builtins3mem6memcpy17h1f9dbb1c3fd18e2fE+0x17a>
   29484:	9805      	ldr	r0, [sp, #20]
   29486:	1880      	adds	r0, r0, r2
   29488:	e001      	b.n	2948e <_ZN17compiler_builtins3mem6memcpy17h1f9dbb1c3fd18e2fE+0x1d6>
   2948a:	9809      	ldr	r0, [sp, #36]	@ 0x24
   2948c:	1b80      	subs	r0, r0, r6
   2948e:	9005      	str	r0, [sp, #20]
   29490:	e004      	b.n	2949c <_ZN17compiler_builtins3mem6memcpy17h1f9dbb1c3fd18e2fE+0x1e4>
   29492:	9801      	ldr	r0, [sp, #4]
   29494:	1d00      	adds	r0, r0, #4
   29496:	9005      	str	r0, [sp, #20]
   29498:	1d2d      	adds	r5, r5, #4
   2949a:	9106      	str	r1, [sp, #24]
   2949c:	a80d      	add	r0, sp, #52	@ 0x34
   2949e:	2100      	movs	r1, #0
   294a0:	9004      	str	r0, [sp, #16]
   294a2:	7001      	strb	r1, [r0, #0]
   294a4:	a80c      	add	r0, sp, #48	@ 0x30
   294a6:	7001      	strb	r1, [r0, #0]
   294a8:	2e01      	cmp	r6, #1
   294aa:	460e      	mov	r6, r1
   294ac:	460c      	mov	r4, r1
   294ae:	9102      	str	r1, [sp, #8]
   294b0:	9a0b      	ldr	r2, [sp, #44]	@ 0x2c
   294b2:	d009      	beq.n	294c8 <_ZN17compiler_builtins3mem6memcpy17h1f9dbb1c3fd18e2fE+0x210>
   294b4:	9c05      	ldr	r4, [sp, #20]
   294b6:	7960      	ldrb	r0, [r4, #5]
   294b8:	7926      	ldrb	r6, [r4, #4]
   294ba:	ac0d      	add	r4, sp, #52	@ 0x34
   294bc:	7026      	strb	r6, [r4, #0]
   294be:	0204      	lsls	r4, r0, #8
   294c0:	2002      	movs	r0, #2
   294c2:	9002      	str	r0, [sp, #8]
   294c4:	a80c      	add	r0, sp, #48	@ 0x30
   294c6:	9004      	str	r0, [sp, #16]
   294c8:	9809      	ldr	r0, [sp, #36]	@ 0x24
   294ca:	07c0      	lsls	r0, r0, #31
   294cc:	d00a      	beq.n	294e4 <_ZN17compiler_builtins3mem6memcpy17h1f9dbb1c3fd18e2fE+0x22c>
   294ce:	9805      	ldr	r0, [sp, #20]
   294d0:	1d00      	adds	r0, r0, #4
   294d2:	9902      	ldr	r1, [sp, #8]
   294d4:	5c40      	ldrb	r0, [r0, r1]
   294d6:	9904      	ldr	r1, [sp, #16]
   294d8:	7008      	strb	r0, [r1, #0]
   294da:	a80d      	add	r0, sp, #52	@ 0x34
   294dc:	7806      	ldrb	r6, [r0, #0]
   294de:	a80c      	add	r0, sp, #48	@ 0x30
   294e0:	7800      	ldrb	r0, [r0, #0]
   294e2:	0401      	lsls	r1, r0, #16
   294e4:	9605      	str	r6, [sp, #20]
   294e6:	9803      	ldr	r0, [sp, #12]
   294e8:	4240      	negs	r0, r0
   294ea:	9004      	str	r0, [sp, #16]
   294ec:	2618      	movs	r6, #24
   294ee:	9804      	ldr	r0, [sp, #16]
   294f0:	4006      	ands	r6, r0
   294f2:	430c      	orrs	r4, r1
   294f4:	9905      	ldr	r1, [sp, #20]
   294f6:	430c      	orrs	r4, r1
   294f8:	40b4      	lsls	r4, r6
   294fa:	9906      	ldr	r1, [sp, #24]
   294fc:	9803      	ldr	r0, [sp, #12]
   294fe:	40c1      	lsrs	r1, r0
   29500:	4321      	orrs	r1, r4
   29502:	6029      	str	r1, [r5, #0]
   29504:	9c08      	ldr	r4, [sp, #32]
   29506:	9e09      	ldr	r6, [sp, #36]	@ 0x24
   29508:	e730      	b.n	2936c <_ZN17compiler_builtins3mem6memcpy17h1f9dbb1c3fd18e2fE+0xb4>

0002950a <__aeabi_memcpy>:
   2950a:	b580      	push	{r7, lr}
   2950c:	af00      	add	r7, sp, #0
   2950e:	f7ff fed3 	bl	292b8 <_ZN17compiler_builtins3mem6memcpy17h1f9dbb1c3fd18e2fE>
   29512:	bd80      	pop	{r7, pc}
