
target/thumbv6m-none-eabi/opt-z/examples/complex_full_dynamic:     file format elf32-littlearm

Sections:
Idx Name          Size      VMA       LMA       File off  Algn
  0 .ARM.exidx    00000010  000100d4  000100d4  000000d4  2**2
                  CONTENTS, ALLOC, LOAD, READONLY, DATA
  1 .text         00007408  000200e4  000200e4  000000e4  2**2
                  CONTENTS, ALLOC, LOAD, READONLY, CODE
  2 .comment      00000099  00000000  00000000  000074ec  2**0
                  CONTENTS, READONLY
  3 .ARM.attributes 00000032  00000000  00000000  00007585  2**0
                  CONTENTS, READONLY

Disassembly of section .text:

000200e4 <_ZN9allow_pin12full_dynamic15Buffer$LT$B$GT$5allow17h6d4ce413c213cdffE>:
   200e4:	b5fc      	push	{r2, r3, r4, r5, r6, r7, lr}
   200e6:	af05      	add	r7, sp, #20
   200e8:	9301      	str	r3, [sp, #4]
   200ea:	4606      	mov	r6, r0
   200ec:	7a00      	ldrb	r0, [r0, #8]
   200ee:	2401      	movs	r4, #1
   200f0:	2802      	cmp	r0, #2
   200f2:	d10b      	bne.n	2010c <_ZN9allow_pin12full_dynamic15Buffer$LT$B$GT$5allow17h6d4ce413c213cdffE+0x28>
   200f4:	4615      	mov	r5, r2
   200f6:	460b      	mov	r3, r1
   200f8:	68b9      	ldr	r1, [r7, #8]
   200fa:	4632      	mov	r2, r6
   200fc:	320c      	adds	r2, #12
   200fe:	b2e8      	uxtb	r0, r5
   20100:	2803      	cmp	r0, #3
   20102:	9100      	str	r1, [sp, #0]
   20104:	d104      	bne.n	20110 <_ZN9allow_pin12full_dynamic15Buffer$LT$B$GT$5allow17h6d4ce413c213cdffE+0x2c>
   20106:	9801      	ldr	r0, [sp, #4]
   20108:	df03      	svc	3
   2010a:	e003      	b.n	20114 <_ZN9allow_pin12full_dynamic15Buffer$LT$B$GT$5allow17h6d4ce413c213cdffE+0x30>
   2010c:	2103      	movs	r1, #3
   2010e:	e009      	b.n	20124 <_ZN9allow_pin12full_dynamic15Buffer$LT$B$GT$5allow17h6d4ce413c213cdffE+0x40>
   20110:	9801      	ldr	r0, [sp, #4]
   20112:	df04      	svc	4
   20114:	2802      	cmp	r0, #2
   20116:	d005      	beq.n	20124 <_ZN9allow_pin12full_dynamic15Buffer$LT$B$GT$5allow17h6d4ce413c213cdffE+0x40>
   20118:	7235      	strb	r5, [r6, #8]
   2011a:	9801      	ldr	r0, [sp, #4]
   2011c:	6030      	str	r0, [r6, #0]
   2011e:	9800      	ldr	r0, [sp, #0]
   20120:	6070      	str	r0, [r6, #4]
   20122:	2400      	movs	r4, #0
   20124:	4620      	mov	r0, r4
   20126:	bdfc      	pop	{r2, r3, r4, r5, r6, r7, pc}

00020128 <_start>:
   20128:	b5f0      	push	{r4, r5, r6, r7, lr}
   2012a:	af03      	add	r7, sp, #12
   2012c:	4eaa      	ldr	r6, [pc, #680]	@ (203d8 <_start+0x2b0>)
   2012e:	44b5      	add	sp, r6
   20130:	48aa      	ldr	r0, [pc, #680]	@ (203dc <_start+0x2b4>)
   20132:	4468      	add	r0, sp
   20134:	900f      	str	r0, [sp, #60]	@ 0x3c
   20136:	acba      	add	r4, sp, #744	@ 0x2e8
   20138:	4620      	mov	r0, r4
   2013a:	300c      	adds	r0, #12
   2013c:	2128      	movs	r1, #40	@ 0x28
   2013e:	9113      	str	r1, [sp, #76]	@ 0x4c
   20140:	f007 f822 	bl	27188 <__aeabi_memclr4>
   20144:	2502      	movs	r5, #2
   20146:	7225      	strb	r5, [r4, #8]
   20148:	4ea5      	ldr	r6, [pc, #660]	@ (203e0 <_start+0x2b8>)
   2014a:	446e      	add	r6, sp
   2014c:	4630      	mov	r0, r6
   2014e:	300c      	adds	r0, #12
   20150:	2151      	movs	r1, #81	@ 0x51
   20152:	9010      	str	r0, [sp, #64]	@ 0x40
   20154:	f007 f818 	bl	27188 <__aeabi_memclr4>
   20158:	9512      	str	r5, [sp, #72]	@ 0x48
   2015a:	7235      	strb	r5, [r6, #8]
   2015c:	2609      	movs	r6, #9
   2015e:	9600      	str	r6, [sp, #0]
   20160:	2204      	movs	r2, #4
   20162:	4ba0      	ldr	r3, [pc, #640]	@ (203e4 <_start+0x2bc>)
   20164:	4620      	mov	r0, r4
   20166:	9913      	ldr	r1, [sp, #76]	@ 0x4c
   20168:	f7ff ffbc 	bl	200e4 <_ZN9allow_pin12full_dynamic15Buffer$LT$B$GT$5allow17h6d4ce413c213cdffE>
   2016c:	07c0      	lsls	r0, r0, #31
   2016e:	4a9e      	ldr	r2, [pc, #632]	@ (203e8 <_start+0x2c0>)
   20170:	446a      	add	r2, sp
   20172:	920c      	str	r2, [sp, #48]	@ 0x30
   20174:	4a9c      	ldr	r2, [pc, #624]	@ (203e8 <_start+0x2c0>)
   20176:	446a      	add	r2, sp
   20178:	920d      	str	r2, [sp, #52]	@ 0x34
   2017a:	4a9b      	ldr	r2, [pc, #620]	@ (203e8 <_start+0x2c0>)
   2017c:	446a      	add	r2, sp
   2017e:	9208      	str	r2, [sp, #32]
   20180:	4a99      	ldr	r2, [pc, #612]	@ (203e8 <_start+0x2c0>)
   20182:	446a      	add	r2, sp
   20184:	9209      	str	r2, [sp, #36]	@ 0x24
   20186:	4a98      	ldr	r2, [pc, #608]	@ (203e8 <_start+0x2c0>)
   20188:	446a      	add	r2, sp
   2018a:	920a      	str	r2, [sp, #40]	@ 0x28
   2018c:	4a96      	ldr	r2, [pc, #600]	@ (203e8 <_start+0x2c0>)
   2018e:	446a      	add	r2, sp
   20190:	920b      	str	r2, [sp, #44]	@ 0x2c
   20192:	2501      	movs	r5, #1
   20194:	2800      	cmp	r0, #0
   20196:	9511      	str	r5, [sp, #68]	@ 0x44
   20198:	960e      	str	r6, [sp, #56]	@ 0x38
   2019a:	d112      	bne.n	201c2 <_start+0x9a>
   2019c:	9600      	str	r6, [sp, #0]
   2019e:	4890      	ldr	r0, [pc, #576]	@ (203e0 <_start+0x2b8>)
   201a0:	4468      	add	r0, sp
   201a2:	2151      	movs	r1, #81	@ 0x51
   201a4:	2203      	movs	r2, #3
   201a6:	4b8f      	ldr	r3, [pc, #572]	@ (203e4 <_start+0x2bc>)
   201a8:	f7ff ff9c 	bl	200e4 <_ZN9allow_pin12full_dynamic15Buffer$LT$B$GT$5allow17h6d4ce413c213cdffE>
   201ac:	07c0      	lsls	r0, r0, #31
   201ae:	d108      	bne.n	201c2 <_start+0x9a>
   201b0:	488c      	ldr	r0, [pc, #560]	@ (203e4 <_start+0x2bc>)
   201b2:	2109      	movs	r1, #9
   201b4:	2400      	movs	r4, #0
   201b6:	460a      	mov	r2, r1
   201b8:	4623      	mov	r3, r4
   201ba:	df02      	svc	2
   201bc:	287f      	cmp	r0, #127	@ 0x7f
   201be:	d900      	bls.n	201c2 <_start+0x9a>
   201c0:	e09b      	b.n	202fa <_start+0x1d2>
   201c2:	9113      	str	r1, [sp, #76]	@ 0x4c
   201c4:	462c      	mov	r4, r5
   201c6:	4886      	ldr	r0, [pc, #536]	@ (203e0 <_start+0x2b8>)
   201c8:	4468      	add	r0, sp
   201ca:	f006 ffc9 	bl	27160 <_ZN9allow_pin12full_dynamic17unshare_if_shared17hc38d0bd70fd52db9E>
   201ce:	a8ba      	add	r0, sp, #744	@ 0x2e8
   201d0:	f006 ffc6 	bl	27160 <_ZN9allow_pin12full_dynamic17unshare_if_shared17hc38d0bd70fd52db9E>
   201d4:	2c00      	cmp	r4, #0
   201d6:	d001      	beq.n	201dc <_start+0xb4>
   201d8:	f006 ff3d 	bl	27056 <_start+0x6f2e>
   201dc:	4d80      	ldr	r5, [pc, #512]	@ (203e0 <_start+0x2b8>)
   201de:	446d      	add	r5, sp
   201e0:	4628      	mov	r0, r5
   201e2:	300c      	adds	r0, #12
   201e4:	a9e4      	add	r1, sp, #912	@ 0x390
   201e6:	2203      	movs	r2, #3
   201e8:	9210      	str	r2, [sp, #64]	@ 0x40
   201ea:	f007 f97a 	bl	274e2 <__aeabi_memcpy>
   201ee:	4c7e      	ldr	r4, [pc, #504]	@ (203e8 <_start+0x2c0>)
   201f0:	446c      	add	r4, sp
   201f2:	a9a3      	add	r1, sp, #652	@ 0x28c
   201f4:	264a      	movs	r6, #74	@ 0x4a
   201f6:	4620      	mov	r0, r4
   201f8:	4632      	mov	r2, r6
   201fa:	f007 f812 	bl	27222 <__aeabi_memcpy4>
   201fe:	4628      	mov	r0, r5
   20200:	3013      	adds	r0, #19
   20202:	4621      	mov	r1, r4
   20204:	4632      	mov	r2, r6
   20206:	f007 f96c 	bl	274e2 <__aeabi_memcpy>
   2020a:	9913      	ldr	r1, [sp, #76]	@ 0x4c
   2020c:	0e08      	lsrs	r0, r1, #24
   2020e:	74a8      	strb	r0, [r5, #18]
   20210:	0c08      	lsrs	r0, r1, #16
   20212:	7468      	strb	r0, [r5, #17]
   20214:	0a08      	lsrs	r0, r1, #8
   20216:	7428      	strb	r0, [r5, #16]
   20218:	73e9      	strb	r1, [r5, #15]
   2021a:	9c12      	ldr	r4, [sp, #72]	@ 0x48
   2021c:	722c      	strb	r4, [r5, #8]
   2021e:	4e72      	ldr	r6, [pc, #456]	@ (203e8 <_start+0x2c0>)
   20220:	446e      	add	r6, sp
   20222:	4630      	mov	r0, r6
   20224:	300c      	adds	r0, #12
   20226:	2146      	movs	r1, #70	@ 0x46
   20228:	9013      	str	r0, [sp, #76]	@ 0x4c
   2022a:	f006 ffad 	bl	27188 <__aeabi_memclr4>
   2022e:	7234      	strb	r4, [r6, #8]
   20230:	2407      	movs	r4, #7
   20232:	9400      	str	r4, [sp, #0]
   20234:	4e6b      	ldr	r6, [pc, #428]	@ (203e4 <_start+0x2bc>)
   20236:	36be      	adds	r6, #190	@ 0xbe
   20238:	2151      	movs	r1, #81	@ 0x51
   2023a:	2204      	movs	r2, #4
   2023c:	4628      	mov	r0, r5
   2023e:	4633      	mov	r3, r6
   20240:	f7ff ff50 	bl	200e4 <_ZN9allow_pin12full_dynamic15Buffer$LT$B$GT$5allow17h6d4ce413c213cdffE>
   20244:	07c0      	lsls	r0, r0, #31
   20246:	d113      	bne.n	20270 <_start+0x148>
   20248:	2000      	movs	r0, #0
   2024a:	9000      	str	r0, [sp, #0]
   2024c:	4866      	ldr	r0, [pc, #408]	@ (203e8 <_start+0x2c0>)
   2024e:	4468      	add	r0, sp
   20250:	2146      	movs	r1, #70	@ 0x46
   20252:	2203      	movs	r2, #3
   20254:	4633      	mov	r3, r6
   20256:	f7ff ff45 	bl	200e4 <_ZN9allow_pin12full_dynamic15Buffer$LT$B$GT$5allow17h6d4ce413c213cdffE>
   2025a:	07c0      	lsls	r0, r0, #31
   2025c:	d108      	bne.n	20270 <_start+0x148>
   2025e:	4863      	ldr	r0, [pc, #396]	@ (203ec <_start+0x2c4>)
   20260:	2107      	movs	r1, #7
   20262:	2500      	movs	r5, #0
   20264:	462a      	mov	r2, r5
   20266:	462b      	mov	r3, r5
   20268:	df02      	svc	2
   2026a:	287f      	cmp	r0, #127	@ 0x7f
   2026c:	d900      	bls.n	20270 <_start+0x148>
   2026e:	e084      	b.n	2037a <_start+0x252>
   20270:	9113      	str	r1, [sp, #76]	@ 0x4c
   20272:	9d11      	ldr	r5, [sp, #68]	@ 0x44
   20274:	485c      	ldr	r0, [pc, #368]	@ (203e8 <_start+0x2c0>)
   20276:	4468      	add	r0, sp
   20278:	f006 ff72 	bl	27160 <_ZN9allow_pin12full_dynamic17unshare_if_shared17hc38d0bd70fd52db9E>
   2027c:	4858      	ldr	r0, [pc, #352]	@ (203e0 <_start+0x2b8>)
   2027e:	4468      	add	r0, sp
   20280:	f006 ff6e 	bl	27160 <_ZN9allow_pin12full_dynamic17unshare_if_shared17hc38d0bd70fd52db9E>
   20284:	2d00      	cmp	r5, #0
   20286:	d001      	beq.n	2028c <_start+0x164>
   20288:	f006 fee5 	bl	27056 <_start+0x6f2e>
   2028c:	9407      	str	r4, [sp, #28]
   2028e:	4d54      	ldr	r5, [pc, #336]	@ (203e0 <_start+0x2b8>)
   20290:	446d      	add	r5, sp
   20292:	4628      	mov	r0, r5
   20294:	300c      	adds	r0, #12
   20296:	a9e4      	add	r1, sp, #912	@ 0x390
   20298:	9a10      	ldr	r2, [sp, #64]	@ 0x40
   2029a:	f007 f922 	bl	274e2 <__aeabi_memcpy>
   2029e:	aca3      	add	r4, sp, #652	@ 0x28c
   202a0:	a9ba      	add	r1, sp, #744	@ 0x2e8
   202a2:	263f      	movs	r6, #63	@ 0x3f
   202a4:	4620      	mov	r0, r4
   202a6:	4632      	mov	r2, r6
   202a8:	f007 f91b 	bl	274e2 <__aeabi_memcpy>
   202ac:	4628      	mov	r0, r5
   202ae:	3013      	adds	r0, #19
   202b0:	4621      	mov	r1, r4
   202b2:	4632      	mov	r2, r6
   202b4:	f007 f915 	bl	274e2 <__aeabi_memcpy>
   202b8:	9913      	ldr	r1, [sp, #76]	@ 0x4c
   202ba:	0e08      	lsrs	r0, r1, #24
   202bc:	74a8      	strb	r0, [r5, #18]
   202be:	0c08      	lsrs	r0, r1, #16
   202c0:	7468      	strb	r0, [r5, #17]
   202c2:	0a08      	lsrs	r0, r1, #8
   202c4:	7428      	strb	r0, [r5, #16]
   202c6:	73e9      	strb	r1, [r5, #15]
   202c8:	9c12      	ldr	r4, [sp, #72]	@ 0x48
   202ca:	722c      	strb	r4, [r5, #8]
   202cc:	4e46      	ldr	r6, [pc, #280]	@ (203e8 <_start+0x2c0>)
   202ce:	446e      	add	r6, sp
   202d0:	4630      	mov	r0, r6
   202d2:	300c      	adds	r0, #12
   202d4:	2118      	movs	r1, #24
   202d6:	9013      	str	r0, [sp, #76]	@ 0x4c
   202d8:	f006 ff56 	bl	27188 <__aeabi_memclr4>
   202dc:	7234      	strb	r4, [r6, #8]
   202de:	9810      	ldr	r0, [sp, #64]	@ 0x40
   202e0:	9000      	str	r0, [sp, #0]
   202e2:	2146      	movs	r1, #70	@ 0x46
   202e4:	2204      	movs	r2, #4
   202e6:	4e42      	ldr	r6, [pc, #264]	@ (203f0 <_start+0x2c8>)
   202e8:	4628      	mov	r0, r5
   202ea:	4633      	mov	r3, r6
   202ec:	f7ff fefa 	bl	200e4 <_ZN9allow_pin12full_dynamic15Buffer$LT$B$GT$5allow17h6d4ce413c213cdffE>
   202f0:	07c0      	lsls	r0, r0, #31
   202f2:	d02c      	beq.n	2034e <_start+0x226>
   202f4:	9113      	str	r1, [sp, #76]	@ 0x4c
   202f6:	9d11      	ldr	r5, [sp, #68]	@ 0x44
   202f8:	e0b0      	b.n	2045c <_start+0x334>
   202fa:	a8ba      	add	r0, sp, #744	@ 0x2e8
   202fc:	4e3d      	ldr	r6, [pc, #244]	@ (203f4 <_start+0x2cc>)
   202fe:	47b0      	blx	r6
   20300:	4d37      	ldr	r5, [pc, #220]	@ (203e0 <_start+0x2b8>)
   20302:	446d      	add	r5, sp
   20304:	4628      	mov	r0, r5
   20306:	47b0      	blx	r6
   20308:	4628      	mov	r0, r5
   2030a:	47b0      	blx	r6
   2030c:	9a10      	ldr	r2, [sp, #64]	@ 0x40
   2030e:	7890      	ldrb	r0, [r2, #2]
   20310:	a9e4      	add	r1, sp, #912	@ 0x390
   20312:	7088      	strb	r0, [r1, #2]
   20314:	7810      	ldrb	r0, [r2, #0]
   20316:	7852      	ldrb	r2, [r2, #1]
   20318:	0212      	lsls	r2, r2, #8
   2031a:	1810      	adds	r0, r2, r0
   2031c:	8008      	strh	r0, [r1, #0]
   2031e:	7ca8      	ldrb	r0, [r5, #18]
   20320:	9013      	str	r0, [sp, #76]	@ 0x4c
   20322:	7c68      	ldrb	r0, [r5, #17]
   20324:	9010      	str	r0, [sp, #64]	@ 0x40
   20326:	7be8      	ldrb	r0, [r5, #15]
   20328:	9007      	str	r0, [sp, #28]
   2032a:	7c2e      	ldrb	r6, [r5, #16]
   2032c:	3513      	adds	r5, #19
   2032e:	a8a3      	add	r0, sp, #652	@ 0x28c
   20330:	224a      	movs	r2, #74	@ 0x4a
   20332:	4629      	mov	r1, r5
   20334:	f007 f8d5 	bl	274e2 <__aeabi_memcpy>
   20338:	0230      	lsls	r0, r6, #8
   2033a:	9907      	ldr	r1, [sp, #28]
   2033c:	1840      	adds	r0, r0, r1
   2033e:	9910      	ldr	r1, [sp, #64]	@ 0x40
   20340:	0409      	lsls	r1, r1, #16
   20342:	9a13      	ldr	r2, [sp, #76]	@ 0x4c
   20344:	0612      	lsls	r2, r2, #24
   20346:	1851      	adds	r1, r2, r1
   20348:	1808      	adds	r0, r1, r0
   2034a:	9013      	str	r0, [sp, #76]	@ 0x4c
   2034c:	e73b      	b.n	201c6 <_start+0x9e>
   2034e:	9400      	str	r4, [sp, #0]
   20350:	4825      	ldr	r0, [pc, #148]	@ (203e8 <_start+0x2c0>)
   20352:	4468      	add	r0, sp
   20354:	2118      	movs	r1, #24
   20356:	2203      	movs	r2, #3
   20358:	4633      	mov	r3, r6
   2035a:	f7ff fec3 	bl	200e4 <_ZN9allow_pin12full_dynamic15Buffer$LT$B$GT$5allow17h6d4ce413c213cdffE>
   2035e:	07c0      	lsls	r0, r0, #31
   20360:	9c11      	ldr	r4, [sp, #68]	@ 0x44
   20362:	d107      	bne.n	20374 <_start+0x24c>
   20364:	4822      	ldr	r0, [pc, #136]	@ (203f0 <_start+0x2c8>)
   20366:	2103      	movs	r1, #3
   20368:	2202      	movs	r2, #2
   2036a:	2500      	movs	r5, #0
   2036c:	462b      	mov	r3, r5
   2036e:	df02      	svc	2
   20370:	287f      	cmp	r0, #127	@ 0x7f
   20372:	d841      	bhi.n	203f8 <_start+0x2d0>
   20374:	9113      	str	r1, [sp, #76]	@ 0x4c
   20376:	4625      	mov	r5, r4
   20378:	e070      	b.n	2045c <_start+0x334>
   2037a:	4819      	ldr	r0, [pc, #100]	@ (203e0 <_start+0x2b8>)
   2037c:	4468      	add	r0, sp
   2037e:	491d      	ldr	r1, [pc, #116]	@ (203f4 <_start+0x2cc>)
   20380:	4788      	blx	r1
   20382:	4e19      	ldr	r6, [pc, #100]	@ (203e8 <_start+0x2c0>)
   20384:	446e      	add	r6, sp
   20386:	4630      	mov	r0, r6
   20388:	491a      	ldr	r1, [pc, #104]	@ (203f4 <_start+0x2cc>)
   2038a:	4788      	blx	r1
   2038c:	4630      	mov	r0, r6
   2038e:	4919      	ldr	r1, [pc, #100]	@ (203f4 <_start+0x2cc>)
   20390:	4788      	blx	r1
   20392:	9a13      	ldr	r2, [sp, #76]	@ 0x4c
   20394:	7890      	ldrb	r0, [r2, #2]
   20396:	a9e4      	add	r1, sp, #912	@ 0x390
   20398:	7088      	strb	r0, [r1, #2]
   2039a:	7810      	ldrb	r0, [r2, #0]
   2039c:	7852      	ldrb	r2, [r2, #1]
   2039e:	0212      	lsls	r2, r2, #8
   203a0:	1810      	adds	r0, r2, r0
   203a2:	8008      	strh	r0, [r1, #0]
   203a4:	7cb0      	ldrb	r0, [r6, #18]
   203a6:	9013      	str	r0, [sp, #76]	@ 0x4c
   203a8:	7c70      	ldrb	r0, [r6, #17]
   203aa:	9006      	str	r0, [sp, #24]
   203ac:	7bf0      	ldrb	r0, [r6, #15]
   203ae:	9005      	str	r0, [sp, #20]
   203b0:	9407      	str	r4, [sp, #28]
   203b2:	7c34      	ldrb	r4, [r6, #16]
   203b4:	3613      	adds	r6, #19
   203b6:	a8ba      	add	r0, sp, #744	@ 0x2e8
   203b8:	223f      	movs	r2, #63	@ 0x3f
   203ba:	4631      	mov	r1, r6
   203bc:	f007 f891 	bl	274e2 <__aeabi_memcpy>
   203c0:	0220      	lsls	r0, r4, #8
   203c2:	9c07      	ldr	r4, [sp, #28]
   203c4:	9905      	ldr	r1, [sp, #20]
   203c6:	1840      	adds	r0, r0, r1
   203c8:	9906      	ldr	r1, [sp, #24]
   203ca:	0409      	lsls	r1, r1, #16
   203cc:	9a13      	ldr	r2, [sp, #76]	@ 0x4c
   203ce:	0612      	lsls	r2, r2, #24
   203d0:	1851      	adds	r1, r2, r1
   203d2:	1808      	adds	r0, r1, r0
   203d4:	9013      	str	r0, [sp, #76]	@ 0x4c
   203d6:	e74d      	b.n	20274 <_start+0x14c>
   203d8:	fffff9c4 	.word	0xfffff9c4
   203dc:	00000574 	.word	0x00000574
   203e0:	000005cc 	.word	0x000005cc
   203e4:	00002006 	.word	0x00002006
   203e8:	00000568 	.word	0x00000568
   203ec:	000020c4 	.word	0x000020c4
   203f0:	000023cf 	.word	0x000023cf
   203f4:	00027161 	.word	0x00027161
   203f8:	4815      	ldr	r0, [pc, #84]	@ (20450 <_start+0x328>)
   203fa:	4468      	add	r0, sp
   203fc:	4c15      	ldr	r4, [pc, #84]	@ (20454 <_start+0x32c>)
   203fe:	47a0      	blx	r4
   20400:	4e15      	ldr	r6, [pc, #84]	@ (20458 <_start+0x330>)
   20402:	446e      	add	r6, sp
   20404:	4630      	mov	r0, r6
   20406:	47a0      	blx	r4
   20408:	4630      	mov	r0, r6
   2040a:	47a0      	blx	r4
   2040c:	9a13      	ldr	r2, [sp, #76]	@ 0x4c
   2040e:	7890      	ldrb	r0, [r2, #2]
   20410:	a9ff      	add	r1, sp, #1020	@ 0x3fc
   20412:	31f8      	adds	r1, #248	@ 0xf8
   20414:	7088      	strb	r0, [r1, #2]
   20416:	7810      	ldrb	r0, [r2, #0]
   20418:	7852      	ldrb	r2, [r2, #1]
   2041a:	0212      	lsls	r2, r2, #8
   2041c:	1810      	adds	r0, r2, r0
   2041e:	8008      	strh	r0, [r1, #0]
   20420:	7cb0      	ldrb	r0, [r6, #18]
   20422:	9013      	str	r0, [sp, #76]	@ 0x4c
   20424:	7c70      	ldrb	r0, [r6, #17]
   20426:	9010      	str	r0, [sp, #64]	@ 0x40
   20428:	7bf0      	ldrb	r0, [r6, #15]
   2042a:	9006      	str	r0, [sp, #24]
   2042c:	7c34      	ldrb	r4, [r6, #16]
   2042e:	3613      	adds	r6, #19
   20430:	a8e4      	add	r0, sp, #912	@ 0x390
   20432:	2211      	movs	r2, #17
   20434:	4631      	mov	r1, r6
   20436:	f007 f854 	bl	274e2 <__aeabi_memcpy>
   2043a:	0220      	lsls	r0, r4, #8
   2043c:	9906      	ldr	r1, [sp, #24]
   2043e:	1840      	adds	r0, r0, r1
   20440:	9910      	ldr	r1, [sp, #64]	@ 0x40
   20442:	0409      	lsls	r1, r1, #16
   20444:	9a13      	ldr	r2, [sp, #76]	@ 0x4c
   20446:	0612      	lsls	r2, r2, #24
   20448:	1851      	adds	r1, r2, r1
   2044a:	1808      	adds	r0, r1, r0
   2044c:	9013      	str	r0, [sp, #76]	@ 0x4c
   2044e:	e005      	b.n	2045c <_start+0x334>
   20450:	000005cc 	.word	0x000005cc
   20454:	00027161 	.word	0x00027161
   20458:	00000568 	.word	0x00000568
   2045c:	4801      	ldr	r0, [pc, #4]	@ (20464 <_start+0x33c>)
   2045e:	4468      	add	r0, sp
   20460:	e002      	b.n	20468 <_start+0x340>
   20462:	46c0      	nop			@ (mov r8, r8)
   20464:	00000568 	.word	0x00000568
   20468:	f006 fe7a 	bl	27160 <_ZN9allow_pin12full_dynamic17unshare_if_shared17hc38d0bd70fd52db9E>
   2046c:	4800      	ldr	r0, [pc, #0]	@ (20470 <_start+0x348>)
   2046e:	e001      	b.n	20474 <_start+0x34c>
   20470:	000005cc 	.word	0x000005cc
   20474:	4468      	add	r0, sp
   20476:	f006 fe73 	bl	27160 <_ZN9allow_pin12full_dynamic17unshare_if_shared17hc38d0bd70fd52db9E>
   2047a:	2d00      	cmp	r5, #0
   2047c:	d001      	beq.n	20482 <_start+0x35a>
   2047e:	f006 fdea 	bl	27056 <_start+0x6f2e>
   20482:	a8ba      	add	r0, sp, #744	@ 0x2e8
   20484:	9010      	str	r0, [sp, #64]	@ 0x40
   20486:	300c      	adds	r0, #12
   20488:	a9ff      	add	r1, sp, #1020	@ 0x3fc
   2048a:	31f8      	adds	r1, #248	@ 0xf8
   2048c:	2203      	movs	r2, #3
   2048e:	f007 f828 	bl	274e2 <__aeabi_memcpy>
   20492:	a8e4      	add	r0, sp, #912	@ 0x390
   20494:	a9a3      	add	r1, sp, #652	@ 0x28c
   20496:	460a      	mov	r2, r1
   20498:	c878      	ldmia	r0!, {r3, r4, r5, r6}
   2049a:	c278      	stmia	r2!, {r3, r4, r5, r6}
   2049c:	7800      	ldrb	r0, [r0, #0]
   2049e:	7010      	strb	r0, [r2, #0]
   204a0:	9e10      	ldr	r6, [sp, #64]	@ 0x40
   204a2:	4630      	mov	r0, r6
   204a4:	3013      	adds	r0, #19
   204a6:	2211      	movs	r2, #17
   204a8:	f007 f81b 	bl	274e2 <__aeabi_memcpy>
   204ac:	9913      	ldr	r1, [sp, #76]	@ 0x4c
   204ae:	0e08      	lsrs	r0, r1, #24
   204b0:	74b0      	strb	r0, [r6, #18]
   204b2:	0c08      	lsrs	r0, r1, #16
   204b4:	7470      	strb	r0, [r6, #17]
   204b6:	0a08      	lsrs	r0, r1, #8
   204b8:	7430      	strb	r0, [r6, #16]
   204ba:	73f1      	strb	r1, [r6, #15]
   204bc:	9d12      	ldr	r5, [sp, #72]	@ 0x48
   204be:	7235      	strb	r5, [r6, #8]
   204c0:	4cea      	ldr	r4, [pc, #936]	@ (2086c <_start+0x744>)
   204c2:	446c      	add	r4, sp
   204c4:	4620      	mov	r0, r4
   204c6:	300c      	adds	r0, #12
   204c8:	2136      	movs	r1, #54	@ 0x36
   204ca:	9013      	str	r0, [sp, #76]	@ 0x4c
   204cc:	f006 fe5c 	bl	27188 <__aeabi_memclr4>
   204d0:	7225      	strb	r5, [r4, #8]
   204d2:	2000      	movs	r0, #0
   204d4:	9006      	str	r0, [sp, #24]
   204d6:	9000      	str	r0, [sp, #0]
   204d8:	2097      	movs	r0, #151	@ 0x97
   204da:	0045      	lsls	r5, r0, #1
   204dc:	9505      	str	r5, [sp, #20]
   204de:	35f1      	adds	r5, #241	@ 0xf1
   204e0:	2118      	movs	r1, #24
   204e2:	2204      	movs	r2, #4
   204e4:	4630      	mov	r0, r6
   204e6:	462b      	mov	r3, r5
   204e8:	f7ff fdfc 	bl	200e4 <_ZN9allow_pin12full_dynamic15Buffer$LT$B$GT$5allow17h6d4ce413c213cdffE>
   204ec:	07c0      	lsls	r0, r0, #31
   204ee:	d113      	bne.n	20518 <_start+0x3f0>
   204f0:	9807      	ldr	r0, [sp, #28]
   204f2:	9000      	str	r0, [sp, #0]
   204f4:	48dd      	ldr	r0, [pc, #884]	@ (2086c <_start+0x744>)
   204f6:	4468      	add	r0, sp
   204f8:	2136      	movs	r1, #54	@ 0x36
   204fa:	2203      	movs	r2, #3
   204fc:	462b      	mov	r3, r5
   204fe:	f7ff fdf1 	bl	200e4 <_ZN9allow_pin12full_dynamic15Buffer$LT$B$GT$5allow17h6d4ce413c213cdffE>
   20502:	07c0      	lsls	r0, r0, #31
   20504:	d108      	bne.n	20518 <_start+0x3f0>
   20506:	48ef      	ldr	r0, [pc, #956]	@ (208c4 <_start+0x79c>)
   20508:	2207      	movs	r2, #7
   2050a:	2400      	movs	r4, #0
   2050c:	4621      	mov	r1, r4
   2050e:	4623      	mov	r3, r4
   20510:	df02      	svc	2
   20512:	287f      	cmp	r0, #127	@ 0x7f
   20514:	d900      	bls.n	20518 <_start+0x3f0>
   20516:	e1ab      	b.n	20870 <_start+0x748>
   20518:	9113      	str	r1, [sp, #76]	@ 0x4c
   2051a:	9c11      	ldr	r4, [sp, #68]	@ 0x44
   2051c:	48d3      	ldr	r0, [pc, #844]	@ (2086c <_start+0x744>)
   2051e:	4468      	add	r0, sp
   20520:	f006 fe1e 	bl	27160 <_ZN9allow_pin12full_dynamic17unshare_if_shared17hc38d0bd70fd52db9E>
   20524:	a8ba      	add	r0, sp, #744	@ 0x2e8
   20526:	f006 fe1b 	bl	27160 <_ZN9allow_pin12full_dynamic17unshare_if_shared17hc38d0bd70fd52db9E>
   2052a:	2c00      	cmp	r4, #0
   2052c:	d001      	beq.n	20532 <_start+0x40a>
   2052e:	f006 fd92 	bl	27056 <_start+0x6f2e>
   20532:	4dce      	ldr	r5, [pc, #824]	@ (2086c <_start+0x744>)
   20534:	446d      	add	r5, sp
   20536:	4628      	mov	r0, r5
   20538:	300c      	adds	r0, #12
   2053a:	a9e4      	add	r1, sp, #912	@ 0x390
   2053c:	2203      	movs	r2, #3
   2053e:	f006 ffd0 	bl	274e2 <__aeabi_memcpy>
   20542:	4cc9      	ldr	r4, [pc, #804]	@ (20868 <_start+0x740>)
   20544:	446c      	add	r4, sp
   20546:	a9a3      	add	r1, sp, #652	@ 0x28c
   20548:	262f      	movs	r6, #47	@ 0x2f
   2054a:	4620      	mov	r0, r4
   2054c:	4632      	mov	r2, r6
   2054e:	f006 ffc8 	bl	274e2 <__aeabi_memcpy>
   20552:	4628      	mov	r0, r5
   20554:	3013      	adds	r0, #19
   20556:	4621      	mov	r1, r4
   20558:	4632      	mov	r2, r6
   2055a:	f006 ffc2 	bl	274e2 <__aeabi_memcpy>
   2055e:	9913      	ldr	r1, [sp, #76]	@ 0x4c
   20560:	0e08      	lsrs	r0, r1, #24
   20562:	74a8      	strb	r0, [r5, #18]
   20564:	0c08      	lsrs	r0, r1, #16
   20566:	7468      	strb	r0, [r5, #17]
   20568:	0a08      	lsrs	r0, r1, #8
   2056a:	7428      	strb	r0, [r5, #16]
   2056c:	73e9      	strb	r1, [r5, #15]
   2056e:	9c12      	ldr	r4, [sp, #72]	@ 0x48
   20570:	722c      	strb	r4, [r5, #8]
   20572:	4ebd      	ldr	r6, [pc, #756]	@ (20868 <_start+0x740>)
   20574:	446e      	add	r6, sp
   20576:	4630      	mov	r0, r6
   20578:	300c      	adds	r0, #12
   2057a:	2125      	movs	r1, #37	@ 0x25
   2057c:	9013      	str	r0, [sp, #76]	@ 0x4c
   2057e:	f006 fe03 	bl	27188 <__aeabi_memclr4>
   20582:	7234      	strb	r4, [r6, #8]
   20584:	9807      	ldr	r0, [sp, #28]
   20586:	9000      	str	r0, [sp, #0]
   20588:	4ecf      	ldr	r6, [pc, #828]	@ (208c8 <_start+0x7a0>)
   2058a:	36c0      	adds	r6, #192	@ 0xc0
   2058c:	2136      	movs	r1, #54	@ 0x36
   2058e:	2204      	movs	r2, #4
   20590:	4628      	mov	r0, r5
   20592:	4633      	mov	r3, r6
   20594:	f7ff fda6 	bl	200e4 <_ZN9allow_pin12full_dynamic15Buffer$LT$B$GT$5allow17h6d4ce413c213cdffE>
   20598:	07c0      	lsls	r0, r0, #31
   2059a:	d113      	bne.n	205c4 <_start+0x49c>
   2059c:	9806      	ldr	r0, [sp, #24]
   2059e:	9000      	str	r0, [sp, #0]
   205a0:	48b1      	ldr	r0, [pc, #708]	@ (20868 <_start+0x740>)
   205a2:	4468      	add	r0, sp
   205a4:	2125      	movs	r1, #37	@ 0x25
   205a6:	2203      	movs	r2, #3
   205a8:	4633      	mov	r3, r6
   205aa:	f7ff fd9b 	bl	200e4 <_ZN9allow_pin12full_dynamic15Buffer$LT$B$GT$5allow17h6d4ce413c213cdffE>
   205ae:	07c0      	lsls	r0, r0, #31
   205b0:	d108      	bne.n	205c4 <_start+0x49c>
   205b2:	48c6      	ldr	r0, [pc, #792]	@ (208cc <_start+0x7a4>)
   205b4:	2107      	movs	r1, #7
   205b6:	2500      	movs	r5, #0
   205b8:	462a      	mov	r2, r5
   205ba:	462b      	mov	r3, r5
   205bc:	df02      	svc	2
   205be:	287f      	cmp	r0, #127	@ 0x7f
   205c0:	d900      	bls.n	205c4 <_start+0x49c>
   205c2:	e197      	b.n	208f4 <_start+0x7cc>
   205c4:	9113      	str	r1, [sp, #76]	@ 0x4c
   205c6:	9d11      	ldr	r5, [sp, #68]	@ 0x44
   205c8:	48a7      	ldr	r0, [pc, #668]	@ (20868 <_start+0x740>)
   205ca:	4468      	add	r0, sp
   205cc:	f006 fdc8 	bl	27160 <_ZN9allow_pin12full_dynamic17unshare_if_shared17hc38d0bd70fd52db9E>
   205d0:	48a6      	ldr	r0, [pc, #664]	@ (2086c <_start+0x744>)
   205d2:	4468      	add	r0, sp
   205d4:	f006 fdc4 	bl	27160 <_ZN9allow_pin12full_dynamic17unshare_if_shared17hc38d0bd70fd52db9E>
   205d8:	2d00      	cmp	r5, #0
   205da:	d001      	beq.n	205e0 <_start+0x4b8>
   205dc:	f006 fd3b 	bl	27056 <_start+0x6f2e>
   205e0:	4ca2      	ldr	r4, [pc, #648]	@ (2086c <_start+0x744>)
   205e2:	446c      	add	r4, sp
   205e4:	4620      	mov	r0, r4
   205e6:	300c      	adds	r0, #12
   205e8:	a9e4      	add	r1, sp, #912	@ 0x390
   205ea:	2203      	movs	r2, #3
   205ec:	9210      	str	r2, [sp, #64]	@ 0x40
   205ee:	f006 ff78 	bl	274e2 <__aeabi_memcpy>
   205f2:	ada3      	add	r5, sp, #652	@ 0x28c
   205f4:	a9ba      	add	r1, sp, #744	@ 0x2e8
   205f6:	261e      	movs	r6, #30
   205f8:	4628      	mov	r0, r5
   205fa:	4632      	mov	r2, r6
   205fc:	f006 ff71 	bl	274e2 <__aeabi_memcpy>
   20600:	4620      	mov	r0, r4
   20602:	3013      	adds	r0, #19
   20604:	4629      	mov	r1, r5
   20606:	4632      	mov	r2, r6
   20608:	f006 ff6b 	bl	274e2 <__aeabi_memcpy>
   2060c:	9913      	ldr	r1, [sp, #76]	@ 0x4c
   2060e:	0e08      	lsrs	r0, r1, #24
   20610:	74a0      	strb	r0, [r4, #18]
   20612:	0c08      	lsrs	r0, r1, #16
   20614:	7460      	strb	r0, [r4, #17]
   20616:	0a08      	lsrs	r0, r1, #8
   20618:	7420      	strb	r0, [r4, #16]
   2061a:	73e1      	strb	r1, [r4, #15]
   2061c:	9812      	ldr	r0, [sp, #72]	@ 0x48
   2061e:	7220      	strb	r0, [r4, #8]
   20620:	4e91      	ldr	r6, [pc, #580]	@ (20868 <_start+0x740>)
   20622:	446e      	add	r6, sp
   20624:	9906      	ldr	r1, [sp, #24]
   20626:	8331      	strh	r1, [r6, #24]
   20628:	7230      	strb	r0, [r6, #8]
   2062a:	4aa9      	ldr	r2, [pc, #676]	@ (208d0 <_start+0x7a8>)
   2062c:	446a      	add	r2, sp
   2062e:	6011      	str	r1, [r2, #0]
   20630:	4aa8      	ldr	r2, [pc, #672]	@ (208d4 <_start+0x7ac>)
   20632:	446a      	add	r2, sp
   20634:	6011      	str	r1, [r2, #0]
   20636:	9a0f      	ldr	r2, [sp, #60]	@ 0x3c
   20638:	6011      	str	r1, [r2, #0]
   2063a:	9000      	str	r0, [sp, #0]
   2063c:	2125      	movs	r1, #37	@ 0x25
   2063e:	2204      	movs	r2, #4
   20640:	4da5      	ldr	r5, [pc, #660]	@ (208d8 <_start+0x7b0>)
   20642:	4620      	mov	r0, r4
   20644:	462b      	mov	r3, r5
   20646:	f7ff fd4d 	bl	200e4 <_ZN9allow_pin12full_dynamic15Buffer$LT$B$GT$5allow17h6d4ce413c213cdffE>
   2064a:	07c0      	lsls	r0, r0, #31
   2064c:	d113      	bne.n	20676 <_start+0x54e>
   2064e:	2008      	movs	r0, #8
   20650:	9000      	str	r0, [sp, #0]
   20652:	4885      	ldr	r0, [pc, #532]	@ (20868 <_start+0x740>)
   20654:	4468      	add	r0, sp
   20656:	210e      	movs	r1, #14
   20658:	2203      	movs	r2, #3
   2065a:	462b      	mov	r3, r5
   2065c:	f7ff fd42 	bl	200e4 <_ZN9allow_pin12full_dynamic15Buffer$LT$B$GT$5allow17h6d4ce413c213cdffE>
   20660:	07c0      	lsls	r0, r0, #31
   20662:	d108      	bne.n	20676 <_start+0x54e>
   20664:	489c      	ldr	r0, [pc, #624]	@ (208d8 <_start+0x7b0>)
   20666:	2102      	movs	r1, #2
   20668:	2208      	movs	r2, #8
   2066a:	2400      	movs	r4, #0
   2066c:	4623      	mov	r3, r4
   2066e:	df02      	svc	2
   20670:	287f      	cmp	r0, #127	@ 0x7f
   20672:	d900      	bls.n	20676 <_start+0x54e>
   20674:	e169      	b.n	2094a <_start+0x822>
   20676:	9113      	str	r1, [sp, #76]	@ 0x4c
   20678:	9c11      	ldr	r4, [sp, #68]	@ 0x44
   2067a:	487b      	ldr	r0, [pc, #492]	@ (20868 <_start+0x740>)
   2067c:	4468      	add	r0, sp
   2067e:	f006 fd6f 	bl	27160 <_ZN9allow_pin12full_dynamic17unshare_if_shared17hc38d0bd70fd52db9E>
   20682:	487a      	ldr	r0, [pc, #488]	@ (2086c <_start+0x744>)
   20684:	4468      	add	r0, sp
   20686:	f006 fd6b 	bl	27160 <_ZN9allow_pin12full_dynamic17unshare_if_shared17hc38d0bd70fd52db9E>
   2068a:	2c00      	cmp	r4, #0
   2068c:	d001      	beq.n	20692 <_start+0x56a>
   2068e:	f006 fce2 	bl	27056 <_start+0x6f2e>
   20692:	adba      	add	r5, sp, #744	@ 0x2e8
   20694:	4628      	mov	r0, r5
   20696:	300c      	adds	r0, #12
   20698:	a9ff      	add	r1, sp, #1020	@ 0x3fc
   2069a:	31f8      	adds	r1, #248	@ 0xf8
   2069c:	9a10      	ldr	r2, [sp, #64]	@ 0x40
   2069e:	f006 ff20 	bl	274e2 <__aeabi_memcpy>
   206a2:	a8e4      	add	r0, sp, #912	@ 0x390
   206a4:	a9a3      	add	r1, sp, #652	@ 0x28c
   206a6:	460a      	mov	r2, r1
   206a8:	c808      	ldmia	r0!, {r3}
   206aa:	c208      	stmia	r2!, {r3}
   206ac:	8803      	ldrh	r3, [r0, #0]
   206ae:	8013      	strh	r3, [r2, #0]
   206b0:	7880      	ldrb	r0, [r0, #2]
   206b2:	7090      	strb	r0, [r2, #2]
   206b4:	4628      	mov	r0, r5
   206b6:	3013      	adds	r0, #19
   206b8:	2207      	movs	r2, #7
   206ba:	9207      	str	r2, [sp, #28]
   206bc:	f006 ff11 	bl	274e2 <__aeabi_memcpy>
   206c0:	9913      	ldr	r1, [sp, #76]	@ 0x4c
   206c2:	0e08      	lsrs	r0, r1, #24
   206c4:	74a8      	strb	r0, [r5, #18]
   206c6:	0c08      	lsrs	r0, r1, #16
   206c8:	7468      	strb	r0, [r5, #17]
   206ca:	0a08      	lsrs	r0, r1, #8
   206cc:	7428      	strb	r0, [r5, #16]
   206ce:	73e9      	strb	r1, [r5, #15]
   206d0:	9c12      	ldr	r4, [sp, #72]	@ 0x48
   206d2:	722c      	strb	r4, [r5, #8]
   206d4:	4e65      	ldr	r6, [pc, #404]	@ (2086c <_start+0x744>)
   206d6:	446e      	add	r6, sp
   206d8:	4630      	mov	r0, r6
   206da:	300c      	adds	r0, #12
   206dc:	2148      	movs	r1, #72	@ 0x48
   206de:	9013      	str	r0, [sp, #76]	@ 0x4c
   206e0:	f006 fd52 	bl	27188 <__aeabi_memclr4>
   206e4:	7234      	strb	r4, [r6, #8]
   206e6:	9810      	ldr	r0, [sp, #64]	@ 0x40
   206e8:	9000      	str	r0, [sp, #0]
   206ea:	4e7c      	ldr	r6, [pc, #496]	@ (208dc <_start+0x7b4>)
   206ec:	365e      	adds	r6, #94	@ 0x5e
   206ee:	210e      	movs	r1, #14
   206f0:	2204      	movs	r2, #4
   206f2:	4628      	mov	r0, r5
   206f4:	4633      	mov	r3, r6
   206f6:	f7ff fcf5 	bl	200e4 <_ZN9allow_pin12full_dynamic15Buffer$LT$B$GT$5allow17h6d4ce413c213cdffE>
   206fa:	07c0      	lsls	r0, r0, #31
   206fc:	d113      	bne.n	20726 <_start+0x5fe>
   206fe:	2008      	movs	r0, #8
   20700:	9000      	str	r0, [sp, #0]
   20702:	485a      	ldr	r0, [pc, #360]	@ (2086c <_start+0x744>)
   20704:	4468      	add	r0, sp
   20706:	2148      	movs	r1, #72	@ 0x48
   20708:	2203      	movs	r2, #3
   2070a:	4633      	mov	r3, r6
   2070c:	f7ff fcea 	bl	200e4 <_ZN9allow_pin12full_dynamic15Buffer$LT$B$GT$5allow17h6d4ce413c213cdffE>
   20710:	07c0      	lsls	r0, r0, #31
   20712:	d108      	bne.n	20726 <_start+0x5fe>
   20714:	4872      	ldr	r0, [pc, #456]	@ (208e0 <_start+0x7b8>)
   20716:	2103      	movs	r1, #3
   20718:	2208      	movs	r2, #8
   2071a:	2500      	movs	r5, #0
   2071c:	462b      	mov	r3, r5
   2071e:	df02      	svc	2
   20720:	287f      	cmp	r0, #127	@ 0x7f
   20722:	d900      	bls.n	20726 <_start+0x5fe>
   20724:	e13f      	b.n	209a6 <_start+0x87e>
   20726:	9113      	str	r1, [sp, #76]	@ 0x4c
   20728:	9d11      	ldr	r5, [sp, #68]	@ 0x44
   2072a:	4850      	ldr	r0, [pc, #320]	@ (2086c <_start+0x744>)
   2072c:	4468      	add	r0, sp
   2072e:	f006 fd17 	bl	27160 <_ZN9allow_pin12full_dynamic17unshare_if_shared17hc38d0bd70fd52db9E>
   20732:	a8ba      	add	r0, sp, #744	@ 0x2e8
   20734:	f006 fd14 	bl	27160 <_ZN9allow_pin12full_dynamic17unshare_if_shared17hc38d0bd70fd52db9E>
   20738:	2d00      	cmp	r5, #0
   2073a:	d001      	beq.n	20740 <_start+0x618>
   2073c:	f006 fc8b 	bl	27056 <_start+0x6f2e>
   20740:	4c4a      	ldr	r4, [pc, #296]	@ (2086c <_start+0x744>)
   20742:	446c      	add	r4, sp
   20744:	4620      	mov	r0, r4
   20746:	300c      	adds	r0, #12
   20748:	a9e4      	add	r1, sp, #912	@ 0x390
   2074a:	2203      	movs	r2, #3
   2074c:	f006 fec9 	bl	274e2 <__aeabi_memcpy>
   20750:	4d45      	ldr	r5, [pc, #276]	@ (20868 <_start+0x740>)
   20752:	446d      	add	r5, sp
   20754:	a9a3      	add	r1, sp, #652	@ 0x28c
   20756:	2641      	movs	r6, #65	@ 0x41
   20758:	4628      	mov	r0, r5
   2075a:	4632      	mov	r2, r6
   2075c:	f006 fd61 	bl	27222 <__aeabi_memcpy4>
   20760:	4620      	mov	r0, r4
   20762:	3013      	adds	r0, #19
   20764:	4629      	mov	r1, r5
   20766:	4632      	mov	r2, r6
   20768:	f006 febb 	bl	274e2 <__aeabi_memcpy>
   2076c:	9913      	ldr	r1, [sp, #76]	@ 0x4c
   2076e:	0e08      	lsrs	r0, r1, #24
   20770:	74a0      	strb	r0, [r4, #18]
   20772:	0c08      	lsrs	r0, r1, #16
   20774:	7460      	strb	r0, [r4, #17]
   20776:	0a08      	lsrs	r0, r1, #8
   20778:	7420      	strb	r0, [r4, #16]
   2077a:	73e1      	strb	r1, [r4, #15]
   2077c:	9e12      	ldr	r6, [sp, #72]	@ 0x48
   2077e:	7226      	strb	r6, [r4, #8]
   20780:	4d39      	ldr	r5, [pc, #228]	@ (20868 <_start+0x740>)
   20782:	446d      	add	r5, sp
   20784:	4628      	mov	r0, r5
   20786:	300c      	adds	r0, #12
   20788:	210f      	movs	r1, #15
   2078a:	9013      	str	r0, [sp, #76]	@ 0x4c
   2078c:	f006 fcfc 	bl	27188 <__aeabi_memclr4>
   20790:	722e      	strb	r6, [r5, #8]
   20792:	2008      	movs	r0, #8
   20794:	9010      	str	r0, [sp, #64]	@ 0x40
   20796:	9000      	str	r0, [sp, #0]
   20798:	4d52      	ldr	r5, [pc, #328]	@ (208e4 <_start+0x7bc>)
   2079a:	353b      	adds	r5, #59	@ 0x3b
   2079c:	2148      	movs	r1, #72	@ 0x48
   2079e:	2204      	movs	r2, #4
   207a0:	4620      	mov	r0, r4
   207a2:	462b      	mov	r3, r5
   207a4:	f7ff fc9e 	bl	200e4 <_ZN9allow_pin12full_dynamic15Buffer$LT$B$GT$5allow17h6d4ce413c213cdffE>
   207a8:	07c0      	lsls	r0, r0, #31
   207aa:	d113      	bne.n	207d4 <_start+0x6ac>
   207ac:	980e      	ldr	r0, [sp, #56]	@ 0x38
   207ae:	9000      	str	r0, [sp, #0]
   207b0:	482d      	ldr	r0, [pc, #180]	@ (20868 <_start+0x740>)
   207b2:	4468      	add	r0, sp
   207b4:	210f      	movs	r1, #15
   207b6:	2203      	movs	r2, #3
   207b8:	462b      	mov	r3, r5
   207ba:	f7ff fc93 	bl	200e4 <_ZN9allow_pin12full_dynamic15Buffer$LT$B$GT$5allow17h6d4ce413c213cdffE>
   207be:	07c0      	lsls	r0, r0, #31
   207c0:	d108      	bne.n	207d4 <_start+0x6ac>
   207c2:	4849      	ldr	r0, [pc, #292]	@ (208e8 <_start+0x7c0>)
   207c4:	2108      	movs	r1, #8
   207c6:	2209      	movs	r2, #9
   207c8:	2500      	movs	r5, #0
   207ca:	462b      	mov	r3, r5
   207cc:	df02      	svc	2
   207ce:	287f      	cmp	r0, #127	@ 0x7f
   207d0:	d900      	bls.n	207d4 <_start+0x6ac>
   207d2:	e129      	b.n	20a28 <_start+0x900>
   207d4:	9113      	str	r1, [sp, #76]	@ 0x4c
   207d6:	9d11      	ldr	r5, [sp, #68]	@ 0x44
   207d8:	4823      	ldr	r0, [pc, #140]	@ (20868 <_start+0x740>)
   207da:	4468      	add	r0, sp
   207dc:	f006 fcc0 	bl	27160 <_ZN9allow_pin12full_dynamic17unshare_if_shared17hc38d0bd70fd52db9E>
   207e0:	4822      	ldr	r0, [pc, #136]	@ (2086c <_start+0x744>)
   207e2:	4468      	add	r0, sp
   207e4:	f006 fcbc 	bl	27160 <_ZN9allow_pin12full_dynamic17unshare_if_shared17hc38d0bd70fd52db9E>
   207e8:	2d00      	cmp	r5, #0
   207ea:	d001      	beq.n	207f0 <_start+0x6c8>
   207ec:	f006 fc33 	bl	27056 <_start+0x6f2e>
   207f0:	9e0d      	ldr	r6, [sp, #52]	@ 0x34
   207f2:	360f      	adds	r6, #15
   207f4:	4d1c      	ldr	r5, [pc, #112]	@ (20868 <_start+0x740>)
   207f6:	446d      	add	r5, sp
   207f8:	4628      	mov	r0, r5
   207fa:	300c      	adds	r0, #12
   207fc:	a9a3      	add	r1, sp, #652	@ 0x28c
   207fe:	2203      	movs	r2, #3
   20800:	f006 fe6f 	bl	274e2 <__aeabi_memcpy>
   20804:	9c12      	ldr	r4, [sp, #72]	@ 0x48
   20806:	722c      	strb	r4, [r5, #8]
   20808:	9904      	ldr	r1, [sp, #16]
   2080a:	0e08      	lsrs	r0, r1, #24
   2080c:	72f0      	strb	r0, [r6, #11]
   2080e:	0c08      	lsrs	r0, r1, #16
   20810:	72b0      	strb	r0, [r6, #10]
   20812:	0a08      	lsrs	r0, r1, #8
   20814:	7270      	strb	r0, [r6, #9]
   20816:	7231      	strb	r1, [r6, #8]
   20818:	990c      	ldr	r1, [sp, #48]	@ 0x30
   2081a:	0e08      	lsrs	r0, r1, #24
   2081c:	71f0      	strb	r0, [r6, #7]
   2081e:	0c08      	lsrs	r0, r1, #16
   20820:	71b0      	strb	r0, [r6, #6]
   20822:	0a08      	lsrs	r0, r1, #8
   20824:	7170      	strb	r0, [r6, #5]
   20826:	7131      	strb	r1, [r6, #4]
   20828:	9913      	ldr	r1, [sp, #76]	@ 0x4c
   2082a:	0e08      	lsrs	r0, r1, #24
   2082c:	70f0      	strb	r0, [r6, #3]
   2082e:	0c08      	lsrs	r0, r1, #16
   20830:	70b0      	strb	r0, [r6, #2]
   20832:	0a08      	lsrs	r0, r1, #8
   20834:	7070      	strb	r0, [r6, #1]
   20836:	7031      	strb	r1, [r6, #0]
   20838:	4e0c      	ldr	r6, [pc, #48]	@ (2086c <_start+0x744>)
   2083a:	446e      	add	r6, sp
   2083c:	4630      	mov	r0, r6
   2083e:	300c      	adds	r0, #12
   20840:	2125      	movs	r1, #37	@ 0x25
   20842:	9013      	str	r0, [sp, #76]	@ 0x4c
   20844:	f006 fca0 	bl	27188 <__aeabi_memclr4>
   20848:	7234      	strb	r4, [r6, #8]
   2084a:	9810      	ldr	r0, [sp, #64]	@ 0x40
   2084c:	9000      	str	r0, [sp, #0]
   2084e:	210f      	movs	r1, #15
   20850:	2204      	movs	r2, #4
   20852:	23a2      	movs	r3, #162	@ 0xa2
   20854:	4628      	mov	r0, r5
   20856:	f7ff fc45 	bl	200e4 <_ZN9allow_pin12full_dynamic15Buffer$LT$B$GT$5allow17h6d4ce413c213cdffE>
   2085a:	07c0      	lsls	r0, r0, #31
   2085c:	d100      	bne.n	20860 <_start+0x738>
   2085e:	e0cc      	b.n	209fa <_start+0x8d2>
   20860:	9113      	str	r1, [sp, #76]	@ 0x4c
   20862:	9d11      	ldr	r5, [sp, #68]	@ 0x44
   20864:	e143      	b.n	20aee <_start+0x9c6>
   20866:	46c0      	nop			@ (mov r8, r8)
   20868:	00000568 	.word	0x00000568
   2086c:	000005cc 	.word	0x000005cc
   20870:	a8ba      	add	r0, sp, #744	@ 0x2e8
   20872:	4e1e      	ldr	r6, [pc, #120]	@ (208ec <_start+0x7c4>)
   20874:	47b0      	blx	r6
   20876:	4d1e      	ldr	r5, [pc, #120]	@ (208f0 <_start+0x7c8>)
   20878:	446d      	add	r5, sp
   2087a:	4628      	mov	r0, r5
   2087c:	47b0      	blx	r6
   2087e:	4628      	mov	r0, r5
   20880:	47b0      	blx	r6
   20882:	9a13      	ldr	r2, [sp, #76]	@ 0x4c
   20884:	7890      	ldrb	r0, [r2, #2]
   20886:	a9e4      	add	r1, sp, #912	@ 0x390
   20888:	7088      	strb	r0, [r1, #2]
   2088a:	7810      	ldrb	r0, [r2, #0]
   2088c:	7852      	ldrb	r2, [r2, #1]
   2088e:	0212      	lsls	r2, r2, #8
   20890:	1810      	adds	r0, r2, r0
   20892:	8008      	strh	r0, [r1, #0]
   20894:	7ca8      	ldrb	r0, [r5, #18]
   20896:	9013      	str	r0, [sp, #76]	@ 0x4c
   20898:	7c68      	ldrb	r0, [r5, #17]
   2089a:	9010      	str	r0, [sp, #64]	@ 0x40
   2089c:	7be8      	ldrb	r0, [r5, #15]
   2089e:	9004      	str	r0, [sp, #16]
   208a0:	7c2e      	ldrb	r6, [r5, #16]
   208a2:	3513      	adds	r5, #19
   208a4:	a8a3      	add	r0, sp, #652	@ 0x28c
   208a6:	222f      	movs	r2, #47	@ 0x2f
   208a8:	4629      	mov	r1, r5
   208aa:	f006 fe1a 	bl	274e2 <__aeabi_memcpy>
   208ae:	0230      	lsls	r0, r6, #8
   208b0:	9904      	ldr	r1, [sp, #16]
   208b2:	1840      	adds	r0, r0, r1
   208b4:	9910      	ldr	r1, [sp, #64]	@ 0x40
   208b6:	0409      	lsls	r1, r1, #16
   208b8:	9a13      	ldr	r2, [sp, #76]	@ 0x4c
   208ba:	0612      	lsls	r2, r2, #24
   208bc:	1851      	adds	r1, r2, r1
   208be:	1808      	adds	r0, r1, r0
   208c0:	9013      	str	r0, [sp, #76]	@ 0x4c
   208c2:	e62b      	b.n	2051c <_start+0x3f4>
   208c4:	0000021f 	.word	0x0000021f
   208c8:	000014d7 	.word	0x000014d7
   208cc:	00001597 	.word	0x00001597
   208d0:	0000057c 	.word	0x0000057c
   208d4:	00000578 	.word	0x00000578
   208d8:	00000667 	.word	0x00000667
   208dc:	00001273 	.word	0x00001273
   208e0:	000012d1 	.word	0x000012d1
   208e4:	000010e2 	.word	0x000010e2
   208e8:	0000111d 	.word	0x0000111d
   208ec:	00027161 	.word	0x00027161
   208f0:	000005cc 	.word	0x000005cc
   208f4:	48ab      	ldr	r0, [pc, #684]	@ (20ba4 <_start+0xa7c>)
   208f6:	4468      	add	r0, sp
   208f8:	4cab      	ldr	r4, [pc, #684]	@ (20ba8 <_start+0xa80>)
   208fa:	47a0      	blx	r4
   208fc:	4eab      	ldr	r6, [pc, #684]	@ (20bac <_start+0xa84>)
   208fe:	446e      	add	r6, sp
   20900:	4630      	mov	r0, r6
   20902:	47a0      	blx	r4
   20904:	4630      	mov	r0, r6
   20906:	47a0      	blx	r4
   20908:	9a13      	ldr	r2, [sp, #76]	@ 0x4c
   2090a:	7890      	ldrb	r0, [r2, #2]
   2090c:	a9e4      	add	r1, sp, #912	@ 0x390
   2090e:	7088      	strb	r0, [r1, #2]
   20910:	7810      	ldrb	r0, [r2, #0]
   20912:	7852      	ldrb	r2, [r2, #1]
   20914:	0212      	lsls	r2, r2, #8
   20916:	1810      	adds	r0, r2, r0
   20918:	8008      	strh	r0, [r1, #0]
   2091a:	7cb0      	ldrb	r0, [r6, #18]
   2091c:	9013      	str	r0, [sp, #76]	@ 0x4c
   2091e:	7c70      	ldrb	r0, [r6, #17]
   20920:	9010      	str	r0, [sp, #64]	@ 0x40
   20922:	7bf0      	ldrb	r0, [r6, #15]
   20924:	9007      	str	r0, [sp, #28]
   20926:	7c34      	ldrb	r4, [r6, #16]
   20928:	3613      	adds	r6, #19
   2092a:	a8ba      	add	r0, sp, #744	@ 0x2e8
   2092c:	221e      	movs	r2, #30
   2092e:	4631      	mov	r1, r6
   20930:	f006 fdd7 	bl	274e2 <__aeabi_memcpy>
   20934:	0220      	lsls	r0, r4, #8
   20936:	9907      	ldr	r1, [sp, #28]
   20938:	1840      	adds	r0, r0, r1
   2093a:	9910      	ldr	r1, [sp, #64]	@ 0x40
   2093c:	0409      	lsls	r1, r1, #16
   2093e:	9a13      	ldr	r2, [sp, #76]	@ 0x4c
   20940:	0612      	lsls	r2, r2, #24
   20942:	1851      	adds	r1, r2, r1
   20944:	1808      	adds	r0, r1, r0
   20946:	9013      	str	r0, [sp, #76]	@ 0x4c
   20948:	e63e      	b.n	205c8 <_start+0x4a0>
   2094a:	360c      	adds	r6, #12
   2094c:	4895      	ldr	r0, [pc, #596]	@ (20ba4 <_start+0xa7c>)
   2094e:	4468      	add	r0, sp
   20950:	4995      	ldr	r1, [pc, #596]	@ (20ba8 <_start+0xa80>)
   20952:	4788      	blx	r1
   20954:	4d95      	ldr	r5, [pc, #596]	@ (20bac <_start+0xa84>)
   20956:	446d      	add	r5, sp
   20958:	4628      	mov	r0, r5
   2095a:	4993      	ldr	r1, [pc, #588]	@ (20ba8 <_start+0xa80>)
   2095c:	4788      	blx	r1
   2095e:	4628      	mov	r0, r5
   20960:	4991      	ldr	r1, [pc, #580]	@ (20ba8 <_start+0xa80>)
   20962:	4788      	blx	r1
   20964:	78b0      	ldrb	r0, [r6, #2]
   20966:	a9ff      	add	r1, sp, #1020	@ 0x3fc
   20968:	31f8      	adds	r1, #248	@ 0xf8
   2096a:	7088      	strb	r0, [r1, #2]
   2096c:	7830      	ldrb	r0, [r6, #0]
   2096e:	7872      	ldrb	r2, [r6, #1]
   20970:	0212      	lsls	r2, r2, #8
   20972:	1810      	adds	r0, r2, r0
   20974:	8008      	strh	r0, [r1, #0]
   20976:	7ca8      	ldrb	r0, [r5, #18]
   20978:	9013      	str	r0, [sp, #76]	@ 0x4c
   2097a:	7c68      	ldrb	r0, [r5, #17]
   2097c:	9007      	str	r0, [sp, #28]
   2097e:	7be8      	ldrb	r0, [r5, #15]
   20980:	9004      	str	r0, [sp, #16]
   20982:	7c2e      	ldrb	r6, [r5, #16]
   20984:	3513      	adds	r5, #19
   20986:	a8e4      	add	r0, sp, #912	@ 0x390
   20988:	2207      	movs	r2, #7
   2098a:	4629      	mov	r1, r5
   2098c:	f006 fda9 	bl	274e2 <__aeabi_memcpy>
   20990:	0230      	lsls	r0, r6, #8
   20992:	9904      	ldr	r1, [sp, #16]
   20994:	1840      	adds	r0, r0, r1
   20996:	9907      	ldr	r1, [sp, #28]
   20998:	0409      	lsls	r1, r1, #16
   2099a:	9a13      	ldr	r2, [sp, #76]	@ 0x4c
   2099c:	0612      	lsls	r2, r2, #24
   2099e:	1851      	adds	r1, r2, r1
   209a0:	1808      	adds	r0, r1, r0
   209a2:	9013      	str	r0, [sp, #76]	@ 0x4c
   209a4:	e669      	b.n	2067a <_start+0x552>
   209a6:	a8ba      	add	r0, sp, #744	@ 0x2e8
   209a8:	4c7f      	ldr	r4, [pc, #508]	@ (20ba8 <_start+0xa80>)
   209aa:	47a0      	blx	r4
   209ac:	4e7d      	ldr	r6, [pc, #500]	@ (20ba4 <_start+0xa7c>)
   209ae:	446e      	add	r6, sp
   209b0:	4630      	mov	r0, r6
   209b2:	47a0      	blx	r4
   209b4:	4630      	mov	r0, r6
   209b6:	47a0      	blx	r4
   209b8:	9a13      	ldr	r2, [sp, #76]	@ 0x4c
   209ba:	7890      	ldrb	r0, [r2, #2]
   209bc:	a9e4      	add	r1, sp, #912	@ 0x390
   209be:	7088      	strb	r0, [r1, #2]
   209c0:	7810      	ldrb	r0, [r2, #0]
   209c2:	7852      	ldrb	r2, [r2, #1]
   209c4:	0212      	lsls	r2, r2, #8
   209c6:	1810      	adds	r0, r2, r0
   209c8:	8008      	strh	r0, [r1, #0]
   209ca:	7cb0      	ldrb	r0, [r6, #18]
   209cc:	9013      	str	r0, [sp, #76]	@ 0x4c
   209ce:	7c70      	ldrb	r0, [r6, #17]
   209d0:	9010      	str	r0, [sp, #64]	@ 0x40
   209d2:	7bf0      	ldrb	r0, [r6, #15]
   209d4:	9004      	str	r0, [sp, #16]
   209d6:	7c34      	ldrb	r4, [r6, #16]
   209d8:	3613      	adds	r6, #19
   209da:	a8a3      	add	r0, sp, #652	@ 0x28c
   209dc:	2241      	movs	r2, #65	@ 0x41
   209de:	4631      	mov	r1, r6
   209e0:	f006 fd7f 	bl	274e2 <__aeabi_memcpy>
   209e4:	0220      	lsls	r0, r4, #8
   209e6:	9904      	ldr	r1, [sp, #16]
   209e8:	1840      	adds	r0, r0, r1
   209ea:	9910      	ldr	r1, [sp, #64]	@ 0x40
   209ec:	0409      	lsls	r1, r1, #16
   209ee:	9a13      	ldr	r2, [sp, #76]	@ 0x4c
   209f0:	0612      	lsls	r2, r2, #24
   209f2:	1851      	adds	r1, r2, r1
   209f4:	1808      	adds	r0, r1, r0
   209f6:	9013      	str	r0, [sp, #76]	@ 0x4c
   209f8:	e697      	b.n	2072a <_start+0x602>
   209fa:	9806      	ldr	r0, [sp, #24]
   209fc:	9000      	str	r0, [sp, #0]
   209fe:	4869      	ldr	r0, [pc, #420]	@ (20ba4 <_start+0xa7c>)
   20a00:	4468      	add	r0, sp
   20a02:	2125      	movs	r1, #37	@ 0x25
   20a04:	2203      	movs	r2, #3
   20a06:	23a2      	movs	r3, #162	@ 0xa2
   20a08:	f7ff fb6c 	bl	200e4 <_ZN9allow_pin12full_dynamic15Buffer$LT$B$GT$5allow17h6d4ce413c213cdffE>
   20a0c:	07c0      	lsls	r0, r0, #31
   20a0e:	9c11      	ldr	r4, [sp, #68]	@ 0x44
   20a10:	d107      	bne.n	20a22 <_start+0x8fa>
   20a12:	20a2      	movs	r0, #162	@ 0xa2
   20a14:	2108      	movs	r1, #8
   20a16:	2500      	movs	r5, #0
   20a18:	462a      	mov	r2, r5
   20a1a:	462b      	mov	r3, r5
   20a1c:	df02      	svc	2
   20a1e:	287f      	cmp	r0, #127	@ 0x7f
   20a20:	d83b      	bhi.n	20a9a <_start+0x972>
   20a22:	9113      	str	r1, [sp, #76]	@ 0x4c
   20a24:	4625      	mov	r5, r4
   20a26:	e062      	b.n	20aee <_start+0x9c6>
   20a28:	9e0c      	ldr	r6, [sp, #48]	@ 0x30
   20a2a:	360f      	adds	r6, #15
   20a2c:	485d      	ldr	r0, [pc, #372]	@ (20ba4 <_start+0xa7c>)
   20a2e:	4468      	add	r0, sp
   20a30:	495d      	ldr	r1, [pc, #372]	@ (20ba8 <_start+0xa80>)
   20a32:	4788      	blx	r1
   20a34:	4c5d      	ldr	r4, [pc, #372]	@ (20bac <_start+0xa84>)
   20a36:	446c      	add	r4, sp
   20a38:	4620      	mov	r0, r4
   20a3a:	495b      	ldr	r1, [pc, #364]	@ (20ba8 <_start+0xa80>)
   20a3c:	4788      	blx	r1
   20a3e:	4620      	mov	r0, r4
   20a40:	4959      	ldr	r1, [pc, #356]	@ (20ba8 <_start+0xa80>)
   20a42:	4788      	blx	r1
   20a44:	9a13      	ldr	r2, [sp, #76]	@ 0x4c
   20a46:	7890      	ldrb	r0, [r2, #2]
   20a48:	a9a3      	add	r1, sp, #652	@ 0x28c
   20a4a:	7088      	strb	r0, [r1, #2]
   20a4c:	7810      	ldrb	r0, [r2, #0]
   20a4e:	7852      	ldrb	r2, [r2, #1]
   20a50:	0212      	lsls	r2, r2, #8
   20a52:	1810      	adds	r0, r2, r0
   20a54:	8008      	strh	r0, [r1, #0]
   20a56:	7a30      	ldrb	r0, [r6, #8]
   20a58:	7a71      	ldrb	r1, [r6, #9]
   20a5a:	0209      	lsls	r1, r1, #8
   20a5c:	1808      	adds	r0, r1, r0
   20a5e:	7ab1      	ldrb	r1, [r6, #10]
   20a60:	0409      	lsls	r1, r1, #16
   20a62:	7af2      	ldrb	r2, [r6, #11]
   20a64:	0612      	lsls	r2, r2, #24
   20a66:	1851      	adds	r1, r2, r1
   20a68:	1808      	adds	r0, r1, r0
   20a6a:	9004      	str	r0, [sp, #16]
   20a6c:	7930      	ldrb	r0, [r6, #4]
   20a6e:	7971      	ldrb	r1, [r6, #5]
   20a70:	0209      	lsls	r1, r1, #8
   20a72:	1808      	adds	r0, r1, r0
   20a74:	79b1      	ldrb	r1, [r6, #6]
   20a76:	0409      	lsls	r1, r1, #16
   20a78:	79f2      	ldrb	r2, [r6, #7]
   20a7a:	0612      	lsls	r2, r2, #24
   20a7c:	1851      	adds	r1, r2, r1
   20a7e:	1808      	adds	r0, r1, r0
   20a80:	900c      	str	r0, [sp, #48]	@ 0x30
   20a82:	7830      	ldrb	r0, [r6, #0]
   20a84:	7871      	ldrb	r1, [r6, #1]
   20a86:	0209      	lsls	r1, r1, #8
   20a88:	1808      	adds	r0, r1, r0
   20a8a:	78b1      	ldrb	r1, [r6, #2]
   20a8c:	0409      	lsls	r1, r1, #16
   20a8e:	78f2      	ldrb	r2, [r6, #3]
   20a90:	0612      	lsls	r2, r2, #24
   20a92:	1851      	adds	r1, r2, r1
   20a94:	1808      	adds	r0, r1, r0
   20a96:	9013      	str	r0, [sp, #76]	@ 0x4c
   20a98:	e69e      	b.n	207d8 <_start+0x6b0>
   20a9a:	4844      	ldr	r0, [pc, #272]	@ (20bac <_start+0xa84>)
   20a9c:	4468      	add	r0, sp
   20a9e:	4c42      	ldr	r4, [pc, #264]	@ (20ba8 <_start+0xa80>)
   20aa0:	47a0      	blx	r4
   20aa2:	4e40      	ldr	r6, [pc, #256]	@ (20ba4 <_start+0xa7c>)
   20aa4:	446e      	add	r6, sp
   20aa6:	4630      	mov	r0, r6
   20aa8:	47a0      	blx	r4
   20aaa:	4630      	mov	r0, r6
   20aac:	47a0      	blx	r4
   20aae:	9a13      	ldr	r2, [sp, #76]	@ 0x4c
   20ab0:	7890      	ldrb	r0, [r2, #2]
   20ab2:	a9e4      	add	r1, sp, #912	@ 0x390
   20ab4:	7088      	strb	r0, [r1, #2]
   20ab6:	7810      	ldrb	r0, [r2, #0]
   20ab8:	7852      	ldrb	r2, [r2, #1]
   20aba:	0212      	lsls	r2, r2, #8
   20abc:	1810      	adds	r0, r2, r0
   20abe:	8008      	strh	r0, [r1, #0]
   20ac0:	7cb0      	ldrb	r0, [r6, #18]
   20ac2:	9013      	str	r0, [sp, #76]	@ 0x4c
   20ac4:	7c70      	ldrb	r0, [r6, #17]
   20ac6:	900d      	str	r0, [sp, #52]	@ 0x34
   20ac8:	7bf0      	ldrb	r0, [r6, #15]
   20aca:	900c      	str	r0, [sp, #48]	@ 0x30
   20acc:	7c34      	ldrb	r4, [r6, #16]
   20ace:	3613      	adds	r6, #19
   20ad0:	a8ba      	add	r0, sp, #744	@ 0x2e8
   20ad2:	221e      	movs	r2, #30
   20ad4:	4631      	mov	r1, r6
   20ad6:	f006 fd04 	bl	274e2 <__aeabi_memcpy>
   20ada:	0220      	lsls	r0, r4, #8
   20adc:	990c      	ldr	r1, [sp, #48]	@ 0x30
   20ade:	1840      	adds	r0, r0, r1
   20ae0:	990d      	ldr	r1, [sp, #52]	@ 0x34
   20ae2:	0409      	lsls	r1, r1, #16
   20ae4:	9a13      	ldr	r2, [sp, #76]	@ 0x4c
   20ae6:	0612      	lsls	r2, r2, #24
   20ae8:	1851      	adds	r1, r2, r1
   20aea:	1808      	adds	r0, r1, r0
   20aec:	9013      	str	r0, [sp, #76]	@ 0x4c
   20aee:	482d      	ldr	r0, [pc, #180]	@ (20ba4 <_start+0xa7c>)
   20af0:	4468      	add	r0, sp
   20af2:	f006 fb35 	bl	27160 <_ZN9allow_pin12full_dynamic17unshare_if_shared17hc38d0bd70fd52db9E>
   20af6:	482d      	ldr	r0, [pc, #180]	@ (20bac <_start+0xa84>)
   20af8:	4468      	add	r0, sp
   20afa:	f006 fb31 	bl	27160 <_ZN9allow_pin12full_dynamic17unshare_if_shared17hc38d0bd70fd52db9E>
   20afe:	2d00      	cmp	r5, #0
   20b00:	d001      	beq.n	20b06 <_start+0x9de>
   20b02:	f006 faa8 	bl	27056 <_start+0x6f2e>
   20b06:	4e29      	ldr	r6, [pc, #164]	@ (20bac <_start+0xa84>)
   20b08:	446e      	add	r6, sp
   20b0a:	4630      	mov	r0, r6
   20b0c:	300c      	adds	r0, #12
   20b0e:	a9e4      	add	r1, sp, #912	@ 0x390
   20b10:	2203      	movs	r2, #3
   20b12:	920c      	str	r2, [sp, #48]	@ 0x30
   20b14:	f006 fce5 	bl	274e2 <__aeabi_memcpy>
   20b18:	aca3      	add	r4, sp, #652	@ 0x28c
   20b1a:	a9ba      	add	r1, sp, #744	@ 0x2e8
   20b1c:	251e      	movs	r5, #30
   20b1e:	4620      	mov	r0, r4
   20b20:	462a      	mov	r2, r5
   20b22:	f006 fcde 	bl	274e2 <__aeabi_memcpy>
   20b26:	4630      	mov	r0, r6
   20b28:	3013      	adds	r0, #19
   20b2a:	4621      	mov	r1, r4
   20b2c:	462a      	mov	r2, r5
   20b2e:	f006 fcd8 	bl	274e2 <__aeabi_memcpy>
   20b32:	9913      	ldr	r1, [sp, #76]	@ 0x4c
   20b34:	0e08      	lsrs	r0, r1, #24
   20b36:	74b0      	strb	r0, [r6, #18]
   20b38:	0c08      	lsrs	r0, r1, #16
   20b3a:	7470      	strb	r0, [r6, #17]
   20b3c:	0a08      	lsrs	r0, r1, #8
   20b3e:	7430      	strb	r0, [r6, #16]
   20b40:	73f1      	strb	r1, [r6, #15]
   20b42:	9c12      	ldr	r4, [sp, #72]	@ 0x48
   20b44:	7234      	strb	r4, [r6, #8]
   20b46:	4d17      	ldr	r5, [pc, #92]	@ (20ba4 <_start+0xa7c>)
   20b48:	446d      	add	r5, sp
   20b4a:	4628      	mov	r0, r5
   20b4c:	300c      	adds	r0, #12
   20b4e:	212a      	movs	r1, #42	@ 0x2a
   20b50:	9013      	str	r0, [sp, #76]	@ 0x4c
   20b52:	f006 fb19 	bl	27188 <__aeabi_memclr4>
   20b56:	722c      	strb	r4, [r5, #8]
   20b58:	9806      	ldr	r0, [sp, #24]
   20b5a:	9000      	str	r0, [sp, #0]
   20b5c:	4d14      	ldr	r5, [pc, #80]	@ (20bb0 <_start+0xa88>)
   20b5e:	351f      	adds	r5, #31
   20b60:	2125      	movs	r1, #37	@ 0x25
   20b62:	2204      	movs	r2, #4
   20b64:	4630      	mov	r0, r6
   20b66:	920d      	str	r2, [sp, #52]	@ 0x34
   20b68:	462b      	mov	r3, r5
   20b6a:	f7ff fabb 	bl	200e4 <_ZN9allow_pin12full_dynamic15Buffer$LT$B$GT$5allow17h6d4ce413c213cdffE>
   20b6e:	07c0      	lsls	r0, r0, #31
   20b70:	d002      	beq.n	20b78 <_start+0xa50>
   20b72:	9113      	str	r1, [sp, #76]	@ 0x4c
   20b74:	9d11      	ldr	r5, [sp, #68]	@ 0x44
   20b76:	e04a      	b.n	20c0e <_start+0xae6>
   20b78:	9a0c      	ldr	r2, [sp, #48]	@ 0x30
   20b7a:	9200      	str	r2, [sp, #0]
   20b7c:	4809      	ldr	r0, [pc, #36]	@ (20ba4 <_start+0xa7c>)
   20b7e:	4468      	add	r0, sp
   20b80:	212a      	movs	r1, #42	@ 0x2a
   20b82:	462b      	mov	r3, r5
   20b84:	f7ff faae 	bl	200e4 <_ZN9allow_pin12full_dynamic15Buffer$LT$B$GT$5allow17h6d4ce413c213cdffE>
   20b88:	07c0      	lsls	r0, r0, #31
   20b8a:	9c11      	ldr	r4, [sp, #68]	@ 0x44
   20b8c:	d107      	bne.n	20b9e <_start+0xa76>
   20b8e:	4809      	ldr	r0, [pc, #36]	@ (20bb4 <_start+0xa8c>)
   20b90:	2203      	movs	r2, #3
   20b92:	2500      	movs	r5, #0
   20b94:	4629      	mov	r1, r5
   20b96:	462b      	mov	r3, r5
   20b98:	df02      	svc	2
   20b9a:	287f      	cmp	r0, #127	@ 0x7f
   20b9c:	d80c      	bhi.n	20bb8 <_start+0xa90>
   20b9e:	9113      	str	r1, [sp, #76]	@ 0x4c
   20ba0:	4625      	mov	r5, r4
   20ba2:	e034      	b.n	20c0e <_start+0xae6>
   20ba4:	000005cc 	.word	0x000005cc
   20ba8:	00027161 	.word	0x00027161
   20bac:	00000568 	.word	0x00000568
   20bb0:	0000091d 	.word	0x0000091d
   20bb4:	0000093c 	.word	0x0000093c
   20bb8:	48f8      	ldr	r0, [pc, #992]	@ (20f9c <_start+0xe74>)
   20bba:	4468      	add	r0, sp
   20bbc:	4cf8      	ldr	r4, [pc, #992]	@ (20fa0 <_start+0xe78>)
   20bbe:	47a0      	blx	r4
   20bc0:	4ef8      	ldr	r6, [pc, #992]	@ (20fa4 <_start+0xe7c>)
   20bc2:	446e      	add	r6, sp
   20bc4:	4630      	mov	r0, r6
   20bc6:	47a0      	blx	r4
   20bc8:	4630      	mov	r0, r6
   20bca:	47a0      	blx	r4
   20bcc:	9a13      	ldr	r2, [sp, #76]	@ 0x4c
   20bce:	7890      	ldrb	r0, [r2, #2]
   20bd0:	a9ff      	add	r1, sp, #1020	@ 0x3fc
   20bd2:	31f8      	adds	r1, #248	@ 0xf8
   20bd4:	7088      	strb	r0, [r1, #2]
   20bd6:	7810      	ldrb	r0, [r2, #0]
   20bd8:	7852      	ldrb	r2, [r2, #1]
   20bda:	0212      	lsls	r2, r2, #8
   20bdc:	1810      	adds	r0, r2, r0
   20bde:	8008      	strh	r0, [r1, #0]
   20be0:	7cb0      	ldrb	r0, [r6, #18]
   20be2:	9013      	str	r0, [sp, #76]	@ 0x4c
   20be4:	7c70      	ldrb	r0, [r6, #17]
   20be6:	900c      	str	r0, [sp, #48]	@ 0x30
   20be8:	7bf0      	ldrb	r0, [r6, #15]
   20bea:	9004      	str	r0, [sp, #16]
   20bec:	7c34      	ldrb	r4, [r6, #16]
   20bee:	3613      	adds	r6, #19
   20bf0:	a8e4      	add	r0, sp, #912	@ 0x390
   20bf2:	2223      	movs	r2, #35	@ 0x23
   20bf4:	4631      	mov	r1, r6
   20bf6:	f006 fc74 	bl	274e2 <__aeabi_memcpy>
   20bfa:	0220      	lsls	r0, r4, #8
   20bfc:	9904      	ldr	r1, [sp, #16]
   20bfe:	1840      	adds	r0, r0, r1
   20c00:	990c      	ldr	r1, [sp, #48]	@ 0x30
   20c02:	0409      	lsls	r1, r1, #16
   20c04:	9a13      	ldr	r2, [sp, #76]	@ 0x4c
   20c06:	0612      	lsls	r2, r2, #24
   20c08:	1851      	adds	r1, r2, r1
   20c0a:	1808      	adds	r0, r1, r0
   20c0c:	9013      	str	r0, [sp, #76]	@ 0x4c
   20c0e:	48e5      	ldr	r0, [pc, #916]	@ (20fa4 <_start+0xe7c>)
   20c10:	4468      	add	r0, sp
   20c12:	f006 faa5 	bl	27160 <_ZN9allow_pin12full_dynamic17unshare_if_shared17hc38d0bd70fd52db9E>
   20c16:	48e1      	ldr	r0, [pc, #900]	@ (20f9c <_start+0xe74>)
   20c18:	4468      	add	r0, sp
   20c1a:	f006 faa1 	bl	27160 <_ZN9allow_pin12full_dynamic17unshare_if_shared17hc38d0bd70fd52db9E>
   20c1e:	2d00      	cmp	r5, #0
   20c20:	d001      	beq.n	20c26 <_start+0xafe>
   20c22:	f006 fa18 	bl	27056 <_start+0x6f2e>
   20c26:	ada3      	add	r5, sp, #652	@ 0x28c
   20c28:	4628      	mov	r0, r5
   20c2a:	300c      	adds	r0, #12
   20c2c:	a9ff      	add	r1, sp, #1020	@ 0x3fc
   20c2e:	31f8      	adds	r1, #248	@ 0xf8
   20c30:	2203      	movs	r2, #3
   20c32:	f006 fc56 	bl	274e2 <__aeabi_memcpy>
   20c36:	acba      	add	r4, sp, #744	@ 0x2e8
   20c38:	a9e4      	add	r1, sp, #912	@ 0x390
   20c3a:	2623      	movs	r6, #35	@ 0x23
   20c3c:	4620      	mov	r0, r4
   20c3e:	4632      	mov	r2, r6
   20c40:	f006 fc4f 	bl	274e2 <__aeabi_memcpy>
   20c44:	4628      	mov	r0, r5
   20c46:	3013      	adds	r0, #19
   20c48:	4621      	mov	r1, r4
   20c4a:	4632      	mov	r2, r6
   20c4c:	f006 fc49 	bl	274e2 <__aeabi_memcpy>
   20c50:	9913      	ldr	r1, [sp, #76]	@ 0x4c
   20c52:	0e08      	lsrs	r0, r1, #24
   20c54:	74a8      	strb	r0, [r5, #18]
   20c56:	0c08      	lsrs	r0, r1, #16
   20c58:	7468      	strb	r0, [r5, #17]
   20c5a:	0a08      	lsrs	r0, r1, #8
   20c5c:	7428      	strb	r0, [r5, #16]
   20c5e:	73e9      	strb	r1, [r5, #15]
   20c60:	9c12      	ldr	r4, [sp, #72]	@ 0x48
   20c62:	722c      	strb	r4, [r5, #8]
   20c64:	4ecf      	ldr	r6, [pc, #828]	@ (20fa4 <_start+0xe7c>)
   20c66:	446e      	add	r6, sp
   20c68:	4630      	mov	r0, r6
   20c6a:	300c      	adds	r0, #12
   20c6c:	2163      	movs	r1, #99	@ 0x63
   20c6e:	9013      	str	r0, [sp, #76]	@ 0x4c
   20c70:	f006 fa8a 	bl	27188 <__aeabi_memclr4>
   20c74:	7234      	strb	r4, [r6, #8]
   20c76:	9a0d      	ldr	r2, [sp, #52]	@ 0x34
   20c78:	9200      	str	r2, [sp, #0]
   20c7a:	4ecb      	ldr	r6, [pc, #812]	@ (20fa8 <_start+0xe80>)
   20c7c:	36a6      	adds	r6, #166	@ 0xa6
   20c7e:	212a      	movs	r1, #42	@ 0x2a
   20c80:	4628      	mov	r0, r5
   20c82:	4633      	mov	r3, r6
   20c84:	f7ff fa2e 	bl	200e4 <_ZN9allow_pin12full_dynamic15Buffer$LT$B$GT$5allow17h6d4ce413c213cdffE>
   20c88:	07c0      	lsls	r0, r0, #31
   20c8a:	d113      	bne.n	20cb4 <_start+0xb8c>
   20c8c:	9806      	ldr	r0, [sp, #24]
   20c8e:	9000      	str	r0, [sp, #0]
   20c90:	48c4      	ldr	r0, [pc, #784]	@ (20fa4 <_start+0xe7c>)
   20c92:	4468      	add	r0, sp
   20c94:	2163      	movs	r1, #99	@ 0x63
   20c96:	2203      	movs	r2, #3
   20c98:	4633      	mov	r3, r6
   20c9a:	f7ff fa23 	bl	200e4 <_ZN9allow_pin12full_dynamic15Buffer$LT$B$GT$5allow17h6d4ce413c213cdffE>
   20c9e:	07c0      	lsls	r0, r0, #31
   20ca0:	d108      	bne.n	20cb4 <_start+0xb8c>
   20ca2:	48c2      	ldr	r0, [pc, #776]	@ (20fac <_start+0xe84>)
   20ca4:	2104      	movs	r1, #4
   20ca6:	2500      	movs	r5, #0
   20ca8:	462a      	mov	r2, r5
   20caa:	462b      	mov	r3, r5
   20cac:	df02      	svc	2
   20cae:	287f      	cmp	r0, #127	@ 0x7f
   20cb0:	d900      	bls.n	20cb4 <_start+0xb8c>
   20cb2:	e0e8      	b.n	20e86 <_start+0xd5e>
   20cb4:	9113      	str	r1, [sp, #76]	@ 0x4c
   20cb6:	9d11      	ldr	r5, [sp, #68]	@ 0x44
   20cb8:	48ba      	ldr	r0, [pc, #744]	@ (20fa4 <_start+0xe7c>)
   20cba:	4468      	add	r0, sp
   20cbc:	f006 fa50 	bl	27160 <_ZN9allow_pin12full_dynamic17unshare_if_shared17hc38d0bd70fd52db9E>
   20cc0:	a8a3      	add	r0, sp, #652	@ 0x28c
   20cc2:	f006 fa4d 	bl	27160 <_ZN9allow_pin12full_dynamic17unshare_if_shared17hc38d0bd70fd52db9E>
   20cc6:	2d00      	cmp	r5, #0
   20cc8:	d001      	beq.n	20cce <_start+0xba6>
   20cca:	f006 f9c4 	bl	27056 <_start+0x6f2e>
   20cce:	4db5      	ldr	r5, [pc, #724]	@ (20fa4 <_start+0xe7c>)
   20cd0:	446d      	add	r5, sp
   20cd2:	4628      	mov	r0, r5
   20cd4:	300c      	adds	r0, #12
   20cd6:	a9ba      	add	r1, sp, #744	@ 0x2e8
   20cd8:	2203      	movs	r2, #3
   20cda:	920d      	str	r2, [sp, #52]	@ 0x34
   20cdc:	f006 fc01 	bl	274e2 <__aeabi_memcpy>
   20ce0:	a814      	add	r0, sp, #80	@ 0x50
   20ce2:	900c      	str	r0, [sp, #48]	@ 0x30
   20ce4:	49ad      	ldr	r1, [pc, #692]	@ (20f9c <_start+0xe74>)
   20ce6:	4469      	add	r1, sp
   20ce8:	265c      	movs	r6, #92	@ 0x5c
   20cea:	4632      	mov	r2, r6
   20cec:	f006 fa99 	bl	27222 <__aeabi_memcpy4>
   20cf0:	9913      	ldr	r1, [sp, #76]	@ 0x4c
   20cf2:	0e08      	lsrs	r0, r1, #24
   20cf4:	74a8      	strb	r0, [r5, #18]
   20cf6:	0c08      	lsrs	r0, r1, #16
   20cf8:	7468      	strb	r0, [r5, #17]
   20cfa:	0a08      	lsrs	r0, r1, #8
   20cfc:	7428      	strb	r0, [r5, #16]
   20cfe:	73e9      	strb	r1, [r5, #15]
   20d00:	9c12      	ldr	r4, [sp, #72]	@ 0x48
   20d02:	722c      	strb	r4, [r5, #8]
   20d04:	4628      	mov	r0, r5
   20d06:	3013      	adds	r0, #19
   20d08:	990c      	ldr	r1, [sp, #48]	@ 0x30
   20d0a:	4632      	mov	r2, r6
   20d0c:	f006 fbe9 	bl	274e2 <__aeabi_memcpy>
   20d10:	4ea2      	ldr	r6, [pc, #648]	@ (20f9c <_start+0xe74>)
   20d12:	446e      	add	r6, sp
   20d14:	4630      	mov	r0, r6
   20d16:	300c      	adds	r0, #12
   20d18:	2127      	movs	r1, #39	@ 0x27
   20d1a:	9013      	str	r0, [sp, #76]	@ 0x4c
   20d1c:	f006 fa34 	bl	27188 <__aeabi_memclr4>
   20d20:	7234      	strb	r4, [r6, #8]
   20d22:	9807      	ldr	r0, [sp, #28]
   20d24:	9000      	str	r0, [sp, #0]
   20d26:	4ea2      	ldr	r6, [pc, #648]	@ (20fb0 <_start+0xe88>)
   20d28:	3609      	adds	r6, #9
   20d2a:	2163      	movs	r1, #99	@ 0x63
   20d2c:	2204      	movs	r2, #4
   20d2e:	4628      	mov	r0, r5
   20d30:	4633      	mov	r3, r6
   20d32:	f7ff f9d7 	bl	200e4 <_ZN9allow_pin12full_dynamic15Buffer$LT$B$GT$5allow17h6d4ce413c213cdffE>
   20d36:	07c0      	lsls	r0, r0, #31
   20d38:	d113      	bne.n	20d62 <_start+0xc3a>
   20d3a:	9806      	ldr	r0, [sp, #24]
   20d3c:	9000      	str	r0, [sp, #0]
   20d3e:	4897      	ldr	r0, [pc, #604]	@ (20f9c <_start+0xe74>)
   20d40:	4468      	add	r0, sp
   20d42:	2127      	movs	r1, #39	@ 0x27
   20d44:	2203      	movs	r2, #3
   20d46:	4633      	mov	r3, r6
   20d48:	f7ff f9cc 	bl	200e4 <_ZN9allow_pin12full_dynamic15Buffer$LT$B$GT$5allow17h6d4ce413c213cdffE>
   20d4c:	07c0      	lsls	r0, r0, #31
   20d4e:	d108      	bne.n	20d62 <_start+0xc3a>
   20d50:	4898      	ldr	r0, [pc, #608]	@ (20fb4 <_start+0xe8c>)
   20d52:	2107      	movs	r1, #7
   20d54:	2500      	movs	r5, #0
   20d56:	462a      	mov	r2, r5
   20d58:	462b      	mov	r3, r5
   20d5a:	df02      	svc	2
   20d5c:	287f      	cmp	r0, #127	@ 0x7f
   20d5e:	d900      	bls.n	20d62 <_start+0xc3a>
   20d60:	e0bc      	b.n	20edc <_start+0xdb4>
   20d62:	9113      	str	r1, [sp, #76]	@ 0x4c
   20d64:	9d11      	ldr	r5, [sp, #68]	@ 0x44
   20d66:	488d      	ldr	r0, [pc, #564]	@ (20f9c <_start+0xe74>)
   20d68:	4468      	add	r0, sp
   20d6a:	f006 f9f9 	bl	27160 <_ZN9allow_pin12full_dynamic17unshare_if_shared17hc38d0bd70fd52db9E>
   20d6e:	488d      	ldr	r0, [pc, #564]	@ (20fa4 <_start+0xe7c>)
   20d70:	4468      	add	r0, sp
   20d72:	f006 f9f5 	bl	27160 <_ZN9allow_pin12full_dynamic17unshare_if_shared17hc38d0bd70fd52db9E>
   20d76:	2d00      	cmp	r5, #0
   20d78:	d001      	beq.n	20d7e <_start+0xc56>
   20d7a:	f006 f96c 	bl	27056 <_start+0x6f2e>
   20d7e:	4c89      	ldr	r4, [pc, #548]	@ (20fa4 <_start+0xe7c>)
   20d80:	446c      	add	r4, sp
   20d82:	4620      	mov	r0, r4
   20d84:	300c      	adds	r0, #12
   20d86:	a9ba      	add	r1, sp, #744	@ 0x2e8
   20d88:	9a0d      	ldr	r2, [sp, #52]	@ 0x34
   20d8a:	f006 fbaa 	bl	274e2 <__aeabi_memcpy>
   20d8e:	a82b      	add	r0, sp, #172	@ 0xac
   20d90:	900c      	str	r0, [sp, #48]	@ 0x30
   20d92:	a9a3      	add	r1, sp, #652	@ 0x28c
   20d94:	2620      	movs	r6, #32
   20d96:	4632      	mov	r2, r6
   20d98:	f006 fba3 	bl	274e2 <__aeabi_memcpy>
   20d9c:	9913      	ldr	r1, [sp, #76]	@ 0x4c
   20d9e:	0e08      	lsrs	r0, r1, #24
   20da0:	74a0      	strb	r0, [r4, #18]
   20da2:	0c08      	lsrs	r0, r1, #16
   20da4:	7460      	strb	r0, [r4, #17]
   20da6:	0a08      	lsrs	r0, r1, #8
   20da8:	7420      	strb	r0, [r4, #16]
   20daa:	73e1      	strb	r1, [r4, #15]
   20dac:	9d12      	ldr	r5, [sp, #72]	@ 0x48
   20dae:	7225      	strb	r5, [r4, #8]
   20db0:	4620      	mov	r0, r4
   20db2:	3013      	adds	r0, #19
   20db4:	990c      	ldr	r1, [sp, #48]	@ 0x30
   20db6:	4632      	mov	r2, r6
   20db8:	f006 fb93 	bl	274e2 <__aeabi_memcpy>
   20dbc:	4e77      	ldr	r6, [pc, #476]	@ (20f9c <_start+0xe74>)
   20dbe:	446e      	add	r6, sp
   20dc0:	4630      	mov	r0, r6
   20dc2:	300c      	adds	r0, #12
   20dc4:	211e      	movs	r1, #30
   20dc6:	900c      	str	r0, [sp, #48]	@ 0x30
   20dc8:	f006 f9de 	bl	27188 <__aeabi_memclr4>
   20dcc:	7235      	strb	r5, [r6, #8]
   20dce:	9d0d      	ldr	r5, [sp, #52]	@ 0x34
   20dd0:	9500      	str	r5, [sp, #0]
   20dd2:	2127      	movs	r1, #39	@ 0x27
   20dd4:	2204      	movs	r2, #4
   20dd6:	4620      	mov	r0, r4
   20dd8:	4c77      	ldr	r4, [pc, #476]	@ (20fb8 <_start+0xe90>)
   20dda:	4623      	mov	r3, r4
   20ddc:	f7ff f982 	bl	200e4 <_ZN9allow_pin12full_dynamic15Buffer$LT$B$GT$5allow17h6d4ce413c213cdffE>
   20de0:	07c0      	lsls	r0, r0, #31
   20de2:	d10a      	bne.n	20dfa <_start+0xcd2>
   20de4:	9500      	str	r5, [sp, #0]
   20de6:	486d      	ldr	r0, [pc, #436]	@ (20f9c <_start+0xe74>)
   20de8:	4468      	add	r0, sp
   20dea:	211e      	movs	r1, #30
   20dec:	462a      	mov	r2, r5
   20dee:	4623      	mov	r3, r4
   20df0:	f7ff f978 	bl	200e4 <_ZN9allow_pin12full_dynamic15Buffer$LT$B$GT$5allow17h6d4ce413c213cdffE>
   20df4:	07c0      	lsls	r0, r0, #31
   20df6:	d100      	bne.n	20dfa <_start+0xcd2>
   20df8:	e09b      	b.n	20f32 <_start+0xe0a>
   20dfa:	9113      	str	r1, [sp, #76]	@ 0x4c
   20dfc:	9c11      	ldr	r4, [sp, #68]	@ 0x44
   20dfe:	4867      	ldr	r0, [pc, #412]	@ (20f9c <_start+0xe74>)
   20e00:	4468      	add	r0, sp
   20e02:	f006 f9ad 	bl	27160 <_ZN9allow_pin12full_dynamic17unshare_if_shared17hc38d0bd70fd52db9E>
   20e06:	4867      	ldr	r0, [pc, #412]	@ (20fa4 <_start+0xe7c>)
   20e08:	4468      	add	r0, sp
   20e0a:	f006 f9a9 	bl	27160 <_ZN9allow_pin12full_dynamic17unshare_if_shared17hc38d0bd70fd52db9E>
   20e0e:	2c00      	cmp	r4, #0
   20e10:	d001      	beq.n	20e16 <_start+0xcee>
   20e12:	f006 f920 	bl	27056 <_start+0x6f2e>
   20e16:	4d61      	ldr	r5, [pc, #388]	@ (20f9c <_start+0xe74>)
   20e18:	446d      	add	r5, sp
   20e1a:	4628      	mov	r0, r5
   20e1c:	300c      	adds	r0, #12
   20e1e:	a9e4      	add	r1, sp, #912	@ 0x390
   20e20:	2203      	movs	r2, #3
   20e22:	920d      	str	r2, [sp, #52]	@ 0x34
   20e24:	f006 fb5d 	bl	274e2 <__aeabi_memcpy>
   20e28:	aca3      	add	r4, sp, #652	@ 0x28c
   20e2a:	a9ba      	add	r1, sp, #744	@ 0x2e8
   20e2c:	2617      	movs	r6, #23
   20e2e:	4620      	mov	r0, r4
   20e30:	4632      	mov	r2, r6
   20e32:	f006 fb56 	bl	274e2 <__aeabi_memcpy>
   20e36:	4628      	mov	r0, r5
   20e38:	3013      	adds	r0, #19
   20e3a:	4621      	mov	r1, r4
   20e3c:	4632      	mov	r2, r6
   20e3e:	f006 fb50 	bl	274e2 <__aeabi_memcpy>
   20e42:	9913      	ldr	r1, [sp, #76]	@ 0x4c
   20e44:	0e08      	lsrs	r0, r1, #24
   20e46:	74a8      	strb	r0, [r5, #18]
   20e48:	0c08      	lsrs	r0, r1, #16
   20e4a:	7468      	strb	r0, [r5, #17]
   20e4c:	0a08      	lsrs	r0, r1, #8
   20e4e:	7428      	strb	r0, [r5, #16]
   20e50:	73e9      	strb	r1, [r5, #15]
   20e52:	9c12      	ldr	r4, [sp, #72]	@ 0x48
   20e54:	722c      	strb	r4, [r5, #8]
   20e56:	4e53      	ldr	r6, [pc, #332]	@ (20fa4 <_start+0xe7c>)
   20e58:	446e      	add	r6, sp
   20e5a:	4630      	mov	r0, r6
   20e5c:	300c      	adds	r0, #12
   20e5e:	212c      	movs	r1, #44	@ 0x2c
   20e60:	900c      	str	r0, [sp, #48]	@ 0x30
   20e62:	f006 f991 	bl	27188 <__aeabi_memclr4>
   20e66:	7234      	strb	r4, [r6, #8]
   20e68:	9807      	ldr	r0, [sp, #28]
   20e6a:	9000      	str	r0, [sp, #0]
   20e6c:	4e53      	ldr	r6, [pc, #332]	@ (20fbc <_start+0xe94>)
   20e6e:	36cd      	adds	r6, #205	@ 0xcd
   20e70:	211e      	movs	r1, #30
   20e72:	2204      	movs	r2, #4
   20e74:	4628      	mov	r0, r5
   20e76:	4633      	mov	r3, r6
   20e78:	f7ff f934 	bl	200e4 <_ZN9allow_pin12full_dynamic15Buffer$LT$B$GT$5allow17h6d4ce413c213cdffE>
   20e7c:	07c0      	lsls	r0, r0, #31
   20e7e:	d100      	bne.n	20e82 <_start+0xd5a>
   20e80:	e09e      	b.n	20fc0 <_start+0xe98>
   20e82:	9113      	str	r1, [sp, #76]	@ 0x4c
   20e84:	e0ba      	b.n	20ffc <_start+0xed4>
   20e86:	a8a3      	add	r0, sp, #652	@ 0x28c
   20e88:	4c45      	ldr	r4, [pc, #276]	@ (20fa0 <_start+0xe78>)
   20e8a:	47a0      	blx	r4
   20e8c:	4e45      	ldr	r6, [pc, #276]	@ (20fa4 <_start+0xe7c>)
   20e8e:	446e      	add	r6, sp
   20e90:	4630      	mov	r0, r6
   20e92:	47a0      	blx	r4
   20e94:	4630      	mov	r0, r6
   20e96:	47a0      	blx	r4
   20e98:	9a13      	ldr	r2, [sp, #76]	@ 0x4c
   20e9a:	7890      	ldrb	r0, [r2, #2]
   20e9c:	a9ba      	add	r1, sp, #744	@ 0x2e8
   20e9e:	7088      	strb	r0, [r1, #2]
   20ea0:	7810      	ldrb	r0, [r2, #0]
   20ea2:	7852      	ldrb	r2, [r2, #1]
   20ea4:	0212      	lsls	r2, r2, #8
   20ea6:	1810      	adds	r0, r2, r0
   20ea8:	8008      	strh	r0, [r1, #0]
   20eaa:	7cb0      	ldrb	r0, [r6, #18]
   20eac:	9013      	str	r0, [sp, #76]	@ 0x4c
   20eae:	7c70      	ldrb	r0, [r6, #17]
   20eb0:	900d      	str	r0, [sp, #52]	@ 0x34
   20eb2:	7bf0      	ldrb	r0, [r6, #15]
   20eb4:	900c      	str	r0, [sp, #48]	@ 0x30
   20eb6:	7c34      	ldrb	r4, [r6, #16]
   20eb8:	3613      	adds	r6, #19
   20eba:	4838      	ldr	r0, [pc, #224]	@ (20f9c <_start+0xe74>)
   20ebc:	4468      	add	r0, sp
   20ebe:	225c      	movs	r2, #92	@ 0x5c
   20ec0:	4631      	mov	r1, r6
   20ec2:	f006 fb0e 	bl	274e2 <__aeabi_memcpy>
   20ec6:	0220      	lsls	r0, r4, #8
   20ec8:	990c      	ldr	r1, [sp, #48]	@ 0x30
   20eca:	1840      	adds	r0, r0, r1
   20ecc:	990d      	ldr	r1, [sp, #52]	@ 0x34
   20ece:	0409      	lsls	r1, r1, #16
   20ed0:	9a13      	ldr	r2, [sp, #76]	@ 0x4c
   20ed2:	0612      	lsls	r2, r2, #24
   20ed4:	1851      	adds	r1, r2, r1
   20ed6:	1808      	adds	r0, r1, r0
   20ed8:	9013      	str	r0, [sp, #76]	@ 0x4c
   20eda:	e6ed      	b.n	20cb8 <_start+0xb90>
   20edc:	4831      	ldr	r0, [pc, #196]	@ (20fa4 <_start+0xe7c>)
   20ede:	4468      	add	r0, sp
   20ee0:	4c2f      	ldr	r4, [pc, #188]	@ (20fa0 <_start+0xe78>)
   20ee2:	47a0      	blx	r4
   20ee4:	4e2d      	ldr	r6, [pc, #180]	@ (20f9c <_start+0xe74>)
   20ee6:	446e      	add	r6, sp
   20ee8:	4630      	mov	r0, r6
   20eea:	47a0      	blx	r4
   20eec:	4630      	mov	r0, r6
   20eee:	47a0      	blx	r4
   20ef0:	9a13      	ldr	r2, [sp, #76]	@ 0x4c
   20ef2:	7890      	ldrb	r0, [r2, #2]
   20ef4:	a9ba      	add	r1, sp, #744	@ 0x2e8
   20ef6:	7088      	strb	r0, [r1, #2]
   20ef8:	7810      	ldrb	r0, [r2, #0]
   20efa:	7852      	ldrb	r2, [r2, #1]
   20efc:	0212      	lsls	r2, r2, #8
   20efe:	1810      	adds	r0, r2, r0
   20f00:	8008      	strh	r0, [r1, #0]
   20f02:	7cb0      	ldrb	r0, [r6, #18]
   20f04:	9013      	str	r0, [sp, #76]	@ 0x4c
   20f06:	7c70      	ldrb	r0, [r6, #17]
   20f08:	900c      	str	r0, [sp, #48]	@ 0x30
   20f0a:	7bf0      	ldrb	r0, [r6, #15]
   20f0c:	9004      	str	r0, [sp, #16]
   20f0e:	7c34      	ldrb	r4, [r6, #16]
   20f10:	3613      	adds	r6, #19
   20f12:	a8a3      	add	r0, sp, #652	@ 0x28c
   20f14:	2220      	movs	r2, #32
   20f16:	4631      	mov	r1, r6
   20f18:	f006 fae3 	bl	274e2 <__aeabi_memcpy>
   20f1c:	0220      	lsls	r0, r4, #8
   20f1e:	9904      	ldr	r1, [sp, #16]
   20f20:	1840      	adds	r0, r0, r1
   20f22:	990c      	ldr	r1, [sp, #48]	@ 0x30
   20f24:	0409      	lsls	r1, r1, #16
   20f26:	9a13      	ldr	r2, [sp, #76]	@ 0x4c
   20f28:	0612      	lsls	r2, r2, #24
   20f2a:	1851      	adds	r1, r2, r1
   20f2c:	1808      	adds	r0, r1, r0
   20f2e:	9013      	str	r0, [sp, #76]	@ 0x4c
   20f30:	e719      	b.n	20d66 <_start+0xc3e>
   20f32:	4821      	ldr	r0, [pc, #132]	@ (20fb8 <_start+0xe90>)
   20f34:	2103      	movs	r1, #3
   20f36:	2400      	movs	r4, #0
   20f38:	460a      	mov	r2, r1
   20f3a:	4623      	mov	r3, r4
   20f3c:	df02      	svc	2
   20f3e:	9113      	str	r1, [sp, #76]	@ 0x4c
   20f40:	287f      	cmp	r0, #127	@ 0x7f
   20f42:	d800      	bhi.n	20f46 <_start+0xe1e>
   20f44:	e75a      	b.n	20dfc <_start+0xcd4>
   20f46:	4817      	ldr	r0, [pc, #92]	@ (20fa4 <_start+0xe7c>)
   20f48:	4468      	add	r0, sp
   20f4a:	4d15      	ldr	r5, [pc, #84]	@ (20fa0 <_start+0xe78>)
   20f4c:	47a8      	blx	r5
   20f4e:	4e13      	ldr	r6, [pc, #76]	@ (20f9c <_start+0xe74>)
   20f50:	446e      	add	r6, sp
   20f52:	4630      	mov	r0, r6
   20f54:	47a8      	blx	r5
   20f56:	4630      	mov	r0, r6
   20f58:	47a8      	blx	r5
   20f5a:	9a0c      	ldr	r2, [sp, #48]	@ 0x30
   20f5c:	7890      	ldrb	r0, [r2, #2]
   20f5e:	a9e4      	add	r1, sp, #912	@ 0x390
   20f60:	7088      	strb	r0, [r1, #2]
   20f62:	7810      	ldrb	r0, [r2, #0]
   20f64:	7852      	ldrb	r2, [r2, #1]
   20f66:	0212      	lsls	r2, r2, #8
   20f68:	1810      	adds	r0, r2, r0
   20f6a:	8008      	strh	r0, [r1, #0]
   20f6c:	7cb0      	ldrb	r0, [r6, #18]
   20f6e:	9013      	str	r0, [sp, #76]	@ 0x4c
   20f70:	7c70      	ldrb	r0, [r6, #17]
   20f72:	900d      	str	r0, [sp, #52]	@ 0x34
   20f74:	7bf0      	ldrb	r0, [r6, #15]
   20f76:	900c      	str	r0, [sp, #48]	@ 0x30
   20f78:	7c35      	ldrb	r5, [r6, #16]
   20f7a:	3613      	adds	r6, #19
   20f7c:	a8ba      	add	r0, sp, #744	@ 0x2e8
   20f7e:	2217      	movs	r2, #23
   20f80:	4631      	mov	r1, r6
   20f82:	f006 faae 	bl	274e2 <__aeabi_memcpy>
   20f86:	0228      	lsls	r0, r5, #8
   20f88:	990c      	ldr	r1, [sp, #48]	@ 0x30
   20f8a:	1840      	adds	r0, r0, r1
   20f8c:	990d      	ldr	r1, [sp, #52]	@ 0x34
   20f8e:	0409      	lsls	r1, r1, #16
   20f90:	9a13      	ldr	r2, [sp, #76]	@ 0x4c
   20f92:	0612      	lsls	r2, r2, #24
   20f94:	1851      	adds	r1, r2, r1
   20f96:	1808      	adds	r0, r1, r0
   20f98:	9013      	str	r0, [sp, #76]	@ 0x4c
   20f9a:	e730      	b.n	20dfe <_start+0xcd6>
   20f9c:	00000568 	.word	0x00000568
   20fa0:	00027161 	.word	0x00027161
   20fa4:	000005cc 	.word	0x000005cc
   20fa8:	00001bd6 	.word	0x00001bd6
   20fac:	00001c7c 	.word	0x00001c7c
   20fb0:	00001e4b 	.word	0x00001e4b
   20fb4:	00001e54 	.word	0x00001e54
   20fb8:	000010e2 	.word	0x000010e2
   20fbc:	0000032e 	.word	0x0000032e
   20fc0:	9806      	ldr	r0, [sp, #24]
   20fc2:	9000      	str	r0, [sp, #0]
   20fc4:	4805      	ldr	r0, [pc, #20]	@ (20fdc <_start+0xeb4>)
   20fc6:	4468      	add	r0, sp
   20fc8:	212c      	movs	r1, #44	@ 0x2c
   20fca:	2203      	movs	r2, #3
   20fcc:	4633      	mov	r3, r6
   20fce:	f7ff f889 	bl	200e4 <_ZN9allow_pin12full_dynamic15Buffer$LT$B$GT$5allow17h6d4ce413c213cdffE>
   20fd2:	9113      	str	r1, [sp, #76]	@ 0x4c
   20fd4:	07c0      	lsls	r0, r0, #31
   20fd6:	d111      	bne.n	20ffc <_start+0xed4>
   20fd8:	e002      	b.n	20fe0 <_start+0xeb8>
   20fda:	46c0      	nop			@ (mov r8, r8)
   20fdc:	000005cc 	.word	0x000005cc
   20fe0:	4805      	ldr	r0, [pc, #20]	@ (20ff8 <_start+0xed0>)
   20fe2:	2107      	movs	r1, #7
   20fe4:	2500      	movs	r5, #0
   20fe6:	462a      	mov	r2, r5
   20fe8:	462b      	mov	r3, r5
   20fea:	df02      	svc	2
   20fec:	9113      	str	r1, [sp, #76]	@ 0x4c
   20fee:	287f      	cmp	r0, #127	@ 0x7f
   20ff0:	d904      	bls.n	20ffc <_start+0xed4>
   20ff2:	f002 f805 	bl	23000 <_start+0x2ed8>
   20ff6:	46c0      	nop			@ (mov r8, r8)
   20ff8:	000003fb 	.word	0x000003fb
   20ffc:	9d11      	ldr	r5, [sp, #68]	@ 0x44
   20ffe:	4806      	ldr	r0, [pc, #24]	@ (21018 <_start+0xef0>)
   21000:	4468      	add	r0, sp
   21002:	f006 f8ad 	bl	27160 <_ZN9allow_pin12full_dynamic17unshare_if_shared17hc38d0bd70fd52db9E>
   21006:	4805      	ldr	r0, [pc, #20]	@ (2101c <_start+0xef4>)
   21008:	4468      	add	r0, sp
   2100a:	f006 f8a9 	bl	27160 <_ZN9allow_pin12full_dynamic17unshare_if_shared17hc38d0bd70fd52db9E>
   2100e:	2d00      	cmp	r5, #0
   21010:	d006      	beq.n	21020 <_start+0xef8>
   21012:	f006 f820 	bl	27056 <_start+0x6f2e>
   21016:	46c0      	nop			@ (mov r8, r8)
   21018:	000005cc 	.word	0x000005cc
   2101c:	00000568 	.word	0x00000568
   21020:	4c1a      	ldr	r4, [pc, #104]	@ (2108c <_start+0xf64>)
   21022:	446c      	add	r4, sp
   21024:	4620      	mov	r0, r4
   21026:	300c      	adds	r0, #12
   21028:	a9e4      	add	r1, sp, #912	@ 0x390
   2102a:	9a0d      	ldr	r2, [sp, #52]	@ 0x34
   2102c:	f006 fa59 	bl	274e2 <__aeabi_memcpy>
   21030:	ada3      	add	r5, sp, #652	@ 0x28c
   21032:	a9ba      	add	r1, sp, #744	@ 0x2e8
   21034:	2625      	movs	r6, #37	@ 0x25
   21036:	960c      	str	r6, [sp, #48]	@ 0x30
   21038:	4628      	mov	r0, r5
   2103a:	4632      	mov	r2, r6
   2103c:	f006 fa51 	bl	274e2 <__aeabi_memcpy>
   21040:	4620      	mov	r0, r4
   21042:	3013      	adds	r0, #19
   21044:	4629      	mov	r1, r5
   21046:	4632      	mov	r2, r6
   21048:	f006 fa4b 	bl	274e2 <__aeabi_memcpy>
   2104c:	9913      	ldr	r1, [sp, #76]	@ 0x4c
   2104e:	0e08      	lsrs	r0, r1, #24
   21050:	74a0      	strb	r0, [r4, #18]
   21052:	0c08      	lsrs	r0, r1, #16
   21054:	7460      	strb	r0, [r4, #17]
   21056:	0a08      	lsrs	r0, r1, #8
   21058:	7420      	strb	r0, [r4, #16]
   2105a:	73e1      	strb	r1, [r4, #15]
   2105c:	9e12      	ldr	r6, [sp, #72]	@ 0x48
   2105e:	7226      	strb	r6, [r4, #8]
   21060:	4d0b      	ldr	r5, [pc, #44]	@ (21090 <_start+0xf68>)
   21062:	446d      	add	r5, sp
   21064:	4628      	mov	r0, r5
   21066:	300c      	adds	r0, #12
   21068:	9004      	str	r0, [sp, #16]
   2106a:	990c      	ldr	r1, [sp, #48]	@ 0x30
   2106c:	f006 f88c 	bl	27188 <__aeabi_memclr4>
   21070:	722e      	strb	r6, [r5, #8]
   21072:	980d      	ldr	r0, [sp, #52]	@ 0x34
   21074:	9000      	str	r0, [sp, #0]
   21076:	212c      	movs	r1, #44	@ 0x2c
   21078:	2204      	movs	r2, #4
   2107a:	4b06      	ldr	r3, [pc, #24]	@ (21094 <_start+0xf6c>)
   2107c:	4620      	mov	r0, r4
   2107e:	f7ff f831 	bl	200e4 <_ZN9allow_pin12full_dynamic15Buffer$LT$B$GT$5allow17h6d4ce413c213cdffE>
   21082:	9113      	str	r1, [sp, #76]	@ 0x4c
   21084:	07c0      	lsls	r0, r0, #31
   21086:	d127      	bne.n	210d8 <_start+0xfb0>
   21088:	e006      	b.n	21098 <_start+0xf70>
   2108a:	46c0      	nop			@ (mov r8, r8)
   2108c:	000005cc 	.word	0x000005cc
   21090:	00000568 	.word	0x00000568
   21094:	0000077f 	.word	0x0000077f
   21098:	9806      	ldr	r0, [sp, #24]
   2109a:	9000      	str	r0, [sp, #0]
   2109c:	4805      	ldr	r0, [pc, #20]	@ (210b4 <_start+0xf8c>)
   2109e:	4468      	add	r0, sp
   210a0:	2125      	movs	r1, #37	@ 0x25
   210a2:	2203      	movs	r2, #3
   210a4:	4b04      	ldr	r3, [pc, #16]	@ (210b8 <_start+0xf90>)
   210a6:	f7ff f81d 	bl	200e4 <_ZN9allow_pin12full_dynamic15Buffer$LT$B$GT$5allow17h6d4ce413c213cdffE>
   210aa:	9113      	str	r1, [sp, #76]	@ 0x4c
   210ac:	07c0      	lsls	r0, r0, #31
   210ae:	d113      	bne.n	210d8 <_start+0xfb0>
   210b0:	e004      	b.n	210bc <_start+0xf94>
   210b2:	46c0      	nop			@ (mov r8, r8)
   210b4:	00000568 	.word	0x00000568
   210b8:	0000077f 	.word	0x0000077f
   210bc:	4805      	ldr	r0, [pc, #20]	@ (210d4 <_start+0xfac>)
   210be:	2103      	movs	r1, #3
   210c0:	2400      	movs	r4, #0
   210c2:	4622      	mov	r2, r4
   210c4:	4623      	mov	r3, r4
   210c6:	df02      	svc	2
   210c8:	9113      	str	r1, [sp, #76]	@ 0x4c
   210ca:	287f      	cmp	r0, #127	@ 0x7f
   210cc:	d904      	bls.n	210d8 <_start+0xfb0>
   210ce:	f001 ffdb 	bl	23088 <_start+0x2f60>
   210d2:	46c0      	nop			@ (mov r8, r8)
   210d4:	0000077f 	.word	0x0000077f
   210d8:	9c11      	ldr	r4, [sp, #68]	@ 0x44
   210da:	4806      	ldr	r0, [pc, #24]	@ (210f4 <_start+0xfcc>)
   210dc:	4468      	add	r0, sp
   210de:	f006 f83f 	bl	27160 <_ZN9allow_pin12full_dynamic17unshare_if_shared17hc38d0bd70fd52db9E>
   210e2:	4805      	ldr	r0, [pc, #20]	@ (210f8 <_start+0xfd0>)
   210e4:	4468      	add	r0, sp
   210e6:	f006 f83b 	bl	27160 <_ZN9allow_pin12full_dynamic17unshare_if_shared17hc38d0bd70fd52db9E>
   210ea:	2c00      	cmp	r4, #0
   210ec:	d006      	beq.n	210fc <_start+0xfd4>
   210ee:	f005 ffb2 	bl	27056 <_start+0x6f2e>
   210f2:	46c0      	nop			@ (mov r8, r8)
   210f4:	00000568 	.word	0x00000568
   210f8:	000005cc 	.word	0x000005cc
   210fc:	4d1a      	ldr	r5, [pc, #104]	@ (21168 <_start+0x1040>)
   210fe:	446d      	add	r5, sp
   21100:	4628      	mov	r0, r5
   21102:	300c      	adds	r0, #12
   21104:	a9e4      	add	r1, sp, #912	@ 0x390
   21106:	2203      	movs	r2, #3
   21108:	f006 f9eb 	bl	274e2 <__aeabi_memcpy>
   2110c:	aca3      	add	r4, sp, #652	@ 0x28c
   2110e:	a9ba      	add	r1, sp, #744	@ 0x2e8
   21110:	261e      	movs	r6, #30
   21112:	4620      	mov	r0, r4
   21114:	4632      	mov	r2, r6
   21116:	f006 f9e4 	bl	274e2 <__aeabi_memcpy>
   2111a:	4628      	mov	r0, r5
   2111c:	3013      	adds	r0, #19
   2111e:	4621      	mov	r1, r4
   21120:	4632      	mov	r2, r6
   21122:	f006 f9de 	bl	274e2 <__aeabi_memcpy>
   21126:	9913      	ldr	r1, [sp, #76]	@ 0x4c
   21128:	0e08      	lsrs	r0, r1, #24
   2112a:	74a8      	strb	r0, [r5, #18]
   2112c:	0c08      	lsrs	r0, r1, #16
   2112e:	7468      	strb	r0, [r5, #17]
   21130:	0a08      	lsrs	r0, r1, #8
   21132:	7428      	strb	r0, [r5, #16]
   21134:	73e9      	strb	r1, [r5, #15]
   21136:	9c12      	ldr	r4, [sp, #72]	@ 0x48
   21138:	722c      	strb	r4, [r5, #8]
   2113a:	4e0c      	ldr	r6, [pc, #48]	@ (2116c <_start+0x1044>)
   2113c:	446e      	add	r6, sp
   2113e:	4630      	mov	r0, r6
   21140:	300c      	adds	r0, #12
   21142:	2118      	movs	r1, #24
   21144:	900d      	str	r0, [sp, #52]	@ 0x34
   21146:	f006 f81f 	bl	27188 <__aeabi_memclr4>
   2114a:	7234      	strb	r4, [r6, #8]
   2114c:	980e      	ldr	r0, [sp, #56]	@ 0x38
   2114e:	9000      	str	r0, [sp, #0]
   21150:	4e07      	ldr	r6, [pc, #28]	@ (21170 <_start+0x1048>)
   21152:	363a      	adds	r6, #58	@ 0x3a
   21154:	2125      	movs	r1, #37	@ 0x25
   21156:	2204      	movs	r2, #4
   21158:	4628      	mov	r0, r5
   2115a:	4633      	mov	r3, r6
   2115c:	f7fe ffc2 	bl	200e4 <_ZN9allow_pin12full_dynamic15Buffer$LT$B$GT$5allow17h6d4ce413c213cdffE>
   21160:	9113      	str	r1, [sp, #76]	@ 0x4c
   21162:	07c0      	lsls	r0, r0, #31
   21164:	d122      	bne.n	211ac <_start+0x1084>
   21166:	e005      	b.n	21174 <_start+0x104c>
   21168:	000005cc 	.word	0x000005cc
   2116c:	00000568 	.word	0x00000568
   21170:	00000a36 	.word	0x00000a36
   21174:	9810      	ldr	r0, [sp, #64]	@ 0x40
   21176:	9000      	str	r0, [sp, #0]
   21178:	4805      	ldr	r0, [pc, #20]	@ (21190 <_start+0x1068>)
   2117a:	4468      	add	r0, sp
   2117c:	2118      	movs	r1, #24
   2117e:	2203      	movs	r2, #3
   21180:	4633      	mov	r3, r6
   21182:	f7fe ffaf 	bl	200e4 <_ZN9allow_pin12full_dynamic15Buffer$LT$B$GT$5allow17h6d4ce413c213cdffE>
   21186:	9113      	str	r1, [sp, #76]	@ 0x4c
   21188:	07c0      	lsls	r0, r0, #31
   2118a:	d10f      	bne.n	211ac <_start+0x1084>
   2118c:	e002      	b.n	21194 <_start+0x106c>
   2118e:	46c0      	nop			@ (mov r8, r8)
   21190:	00000568 	.word	0x00000568
   21194:	20a7      	movs	r0, #167	@ 0xa7
   21196:	0100      	lsls	r0, r0, #4
   21198:	2109      	movs	r1, #9
   2119a:	2208      	movs	r2, #8
   2119c:	2500      	movs	r5, #0
   2119e:	462b      	mov	r3, r5
   211a0:	df02      	svc	2
   211a2:	9113      	str	r1, [sp, #76]	@ 0x4c
   211a4:	287f      	cmp	r0, #127	@ 0x7f
   211a6:	d901      	bls.n	211ac <_start+0x1084>
   211a8:	f001 ff9a 	bl	230e0 <_start+0x2fb8>
   211ac:	9d11      	ldr	r5, [sp, #68]	@ 0x44
   211ae:	4806      	ldr	r0, [pc, #24]	@ (211c8 <_start+0x10a0>)
   211b0:	4468      	add	r0, sp
   211b2:	f005 ffd5 	bl	27160 <_ZN9allow_pin12full_dynamic17unshare_if_shared17hc38d0bd70fd52db9E>
   211b6:	4805      	ldr	r0, [pc, #20]	@ (211cc <_start+0x10a4>)
   211b8:	4468      	add	r0, sp
   211ba:	f005 ffd1 	bl	27160 <_ZN9allow_pin12full_dynamic17unshare_if_shared17hc38d0bd70fd52db9E>
   211be:	2d00      	cmp	r5, #0
   211c0:	d006      	beq.n	211d0 <_start+0x10a8>
   211c2:	f005 ff48 	bl	27056 <_start+0x6f2e>
   211c6:	46c0      	nop			@ (mov r8, r8)
   211c8:	00000568 	.word	0x00000568
   211cc:	000005cc 	.word	0x000005cc
   211d0:	a8ba      	add	r0, sp, #744	@ 0x2e8
   211d2:	900d      	str	r0, [sp, #52]	@ 0x34
   211d4:	300c      	adds	r0, #12
   211d6:	a9ff      	add	r1, sp, #1020	@ 0x3fc
   211d8:	31f8      	adds	r1, #248	@ 0xf8
   211da:	2203      	movs	r2, #3
   211dc:	f006 f981 	bl	274e2 <__aeabi_memcpy>
   211e0:	a8e4      	add	r0, sp, #912	@ 0x390
   211e2:	a9a3      	add	r1, sp, #652	@ 0x28c
   211e4:	460a      	mov	r2, r1
   211e6:	c878      	ldmia	r0!, {r3, r4, r5, r6}
   211e8:	c278      	stmia	r2!, {r3, r4, r5, r6}
   211ea:	7800      	ldrb	r0, [r0, #0]
   211ec:	7010      	strb	r0, [r2, #0]
   211ee:	9c0d      	ldr	r4, [sp, #52]	@ 0x34
   211f0:	4620      	mov	r0, r4
   211f2:	3013      	adds	r0, #19
   211f4:	2211      	movs	r2, #17
   211f6:	f006 f974 	bl	274e2 <__aeabi_memcpy>
   211fa:	9913      	ldr	r1, [sp, #76]	@ 0x4c
   211fc:	0e08      	lsrs	r0, r1, #24
   211fe:	74a0      	strb	r0, [r4, #18]
   21200:	0c08      	lsrs	r0, r1, #16
   21202:	7460      	strb	r0, [r4, #17]
   21204:	0a08      	lsrs	r0, r1, #8
   21206:	7420      	strb	r0, [r4, #16]
   21208:	73e1      	strb	r1, [r4, #15]
   2120a:	9e12      	ldr	r6, [sp, #72]	@ 0x48
   2120c:	7226      	strb	r6, [r4, #8]
   2120e:	4d0b      	ldr	r5, [pc, #44]	@ (2123c <_start+0x1114>)
   21210:	446d      	add	r5, sp
   21212:	4628      	mov	r0, r5
   21214:	300c      	adds	r0, #12
   21216:	2136      	movs	r1, #54	@ 0x36
   21218:	900c      	str	r0, [sp, #48]	@ 0x30
   2121a:	f005 ffb5 	bl	27188 <__aeabi_memclr4>
   2121e:	722e      	strb	r6, [r5, #8]
   21220:	9810      	ldr	r0, [sp, #64]	@ 0x40
   21222:	9000      	str	r0, [sp, #0]
   21224:	2118      	movs	r1, #24
   21226:	2204      	movs	r2, #4
   21228:	23f3      	movs	r3, #243	@ 0xf3
   2122a:	4620      	mov	r0, r4
   2122c:	920d      	str	r2, [sp, #52]	@ 0x34
   2122e:	f7fe ff59 	bl	200e4 <_ZN9allow_pin12full_dynamic15Buffer$LT$B$GT$5allow17h6d4ce413c213cdffE>
   21232:	9113      	str	r1, [sp, #76]	@ 0x4c
   21234:	07c0      	lsls	r0, r0, #31
   21236:	d11e      	bne.n	21276 <_start+0x114e>
   21238:	e002      	b.n	21240 <_start+0x1118>
   2123a:	46c0      	nop			@ (mov r8, r8)
   2123c:	000005cc 	.word	0x000005cc
   21240:	980d      	ldr	r0, [sp, #52]	@ 0x34
   21242:	9000      	str	r0, [sp, #0]
   21244:	4805      	ldr	r0, [pc, #20]	@ (2125c <_start+0x1134>)
   21246:	4468      	add	r0, sp
   21248:	2136      	movs	r1, #54	@ 0x36
   2124a:	2203      	movs	r2, #3
   2124c:	23f3      	movs	r3, #243	@ 0xf3
   2124e:	f7fe ff49 	bl	200e4 <_ZN9allow_pin12full_dynamic15Buffer$LT$B$GT$5allow17h6d4ce413c213cdffE>
   21252:	9113      	str	r1, [sp, #76]	@ 0x4c
   21254:	07c0      	lsls	r0, r0, #31
   21256:	d10e      	bne.n	21276 <_start+0x114e>
   21258:	e002      	b.n	21260 <_start+0x1138>
   2125a:	46c0      	nop			@ (mov r8, r8)
   2125c:	000005cc 	.word	0x000005cc
   21260:	20f3      	movs	r0, #243	@ 0xf3
   21262:	2108      	movs	r1, #8
   21264:	2204      	movs	r2, #4
   21266:	2500      	movs	r5, #0
   21268:	462b      	mov	r3, r5
   2126a:	df02      	svc	2
   2126c:	9113      	str	r1, [sp, #76]	@ 0x4c
   2126e:	287f      	cmp	r0, #127	@ 0x7f
   21270:	d901      	bls.n	21276 <_start+0x114e>
   21272:	f001 ff62 	bl	2313a <_start+0x3012>
   21276:	9d11      	ldr	r5, [sp, #68]	@ 0x44
   21278:	4805      	ldr	r0, [pc, #20]	@ (21290 <_start+0x1168>)
   2127a:	4468      	add	r0, sp
   2127c:	f005 ff70 	bl	27160 <_ZN9allow_pin12full_dynamic17unshare_if_shared17hc38d0bd70fd52db9E>
   21280:	a8ba      	add	r0, sp, #744	@ 0x2e8
   21282:	f005 ff6d 	bl	27160 <_ZN9allow_pin12full_dynamic17unshare_if_shared17hc38d0bd70fd52db9E>
   21286:	2d00      	cmp	r5, #0
   21288:	d004      	beq.n	21294 <_start+0x116c>
   2128a:	f005 fee4 	bl	27056 <_start+0x6f2e>
   2128e:	46c0      	nop			@ (mov r8, r8)
   21290:	000005cc 	.word	0x000005cc
   21294:	4d1a      	ldr	r5, [pc, #104]	@ (21300 <_start+0x11d8>)
   21296:	446d      	add	r5, sp
   21298:	4628      	mov	r0, r5
   2129a:	300c      	adds	r0, #12
   2129c:	a9e4      	add	r1, sp, #912	@ 0x390
   2129e:	2203      	movs	r2, #3
   212a0:	f006 f91f 	bl	274e2 <__aeabi_memcpy>
   212a4:	4c17      	ldr	r4, [pc, #92]	@ (21304 <_start+0x11dc>)
   212a6:	446c      	add	r4, sp
   212a8:	a9a3      	add	r1, sp, #652	@ 0x28c
   212aa:	262f      	movs	r6, #47	@ 0x2f
   212ac:	4620      	mov	r0, r4
   212ae:	4632      	mov	r2, r6
   212b0:	f006 f917 	bl	274e2 <__aeabi_memcpy>
   212b4:	4628      	mov	r0, r5
   212b6:	3013      	adds	r0, #19
   212b8:	4621      	mov	r1, r4
   212ba:	4632      	mov	r2, r6
   212bc:	f006 f911 	bl	274e2 <__aeabi_memcpy>
   212c0:	9913      	ldr	r1, [sp, #76]	@ 0x4c
   212c2:	0e08      	lsrs	r0, r1, #24
   212c4:	74a8      	strb	r0, [r5, #18]
   212c6:	0c08      	lsrs	r0, r1, #16
   212c8:	7468      	strb	r0, [r5, #17]
   212ca:	0a08      	lsrs	r0, r1, #8
   212cc:	7428      	strb	r0, [r5, #16]
   212ce:	73e9      	strb	r1, [r5, #15]
   212d0:	9c12      	ldr	r4, [sp, #72]	@ 0x48
   212d2:	722c      	strb	r4, [r5, #8]
   212d4:	4e0b      	ldr	r6, [pc, #44]	@ (21304 <_start+0x11dc>)
   212d6:	446e      	add	r6, sp
   212d8:	4630      	mov	r0, r6
   212da:	300c      	adds	r0, #12
   212dc:	2134      	movs	r1, #52	@ 0x34
   212de:	900c      	str	r0, [sp, #48]	@ 0x30
   212e0:	f005 ff52 	bl	27188 <__aeabi_memclr4>
   212e4:	7234      	strb	r4, [r6, #8]
   212e6:	9a0d      	ldr	r2, [sp, #52]	@ 0x34
   212e8:	9200      	str	r2, [sp, #0]
   212ea:	4e07      	ldr	r6, [pc, #28]	@ (21308 <_start+0x11e0>)
   212ec:	36fd      	adds	r6, #253	@ 0xfd
   212ee:	2136      	movs	r1, #54	@ 0x36
   212f0:	4628      	mov	r0, r5
   212f2:	4633      	mov	r3, r6
   212f4:	f7fe fef6 	bl	200e4 <_ZN9allow_pin12full_dynamic15Buffer$LT$B$GT$5allow17h6d4ce413c213cdffE>
   212f8:	9113      	str	r1, [sp, #76]	@ 0x4c
   212fa:	07c0      	lsls	r0, r0, #31
   212fc:	d124      	bne.n	21348 <_start+0x1220>
   212fe:	e005      	b.n	2130c <_start+0x11e4>
   21300:	000005cc 	.word	0x000005cc
   21304:	00000568 	.word	0x00000568
   21308:	000022c9 	.word	0x000022c9
   2130c:	9812      	ldr	r0, [sp, #72]	@ 0x48
   2130e:	9000      	str	r0, [sp, #0]
   21310:	4805      	ldr	r0, [pc, #20]	@ (21328 <_start+0x1200>)
   21312:	4468      	add	r0, sp
   21314:	2134      	movs	r1, #52	@ 0x34
   21316:	2203      	movs	r2, #3
   21318:	4633      	mov	r3, r6
   2131a:	f7fe fee3 	bl	200e4 <_ZN9allow_pin12full_dynamic15Buffer$LT$B$GT$5allow17h6d4ce413c213cdffE>
   2131e:	9113      	str	r1, [sp, #76]	@ 0x4c
   21320:	07c0      	lsls	r0, r0, #31
   21322:	d111      	bne.n	21348 <_start+0x1220>
   21324:	e002      	b.n	2132c <_start+0x1204>
   21326:	46c0      	nop			@ (mov r8, r8)
   21328:	00000568 	.word	0x00000568
   2132c:	4805      	ldr	r0, [pc, #20]	@ (21344 <_start+0x121c>)
   2132e:	2104      	movs	r1, #4
   21330:	2202      	movs	r2, #2
   21332:	2500      	movs	r5, #0
   21334:	462b      	mov	r3, r5
   21336:	df02      	svc	2
   21338:	9113      	str	r1, [sp, #76]	@ 0x4c
   2133a:	287f      	cmp	r0, #127	@ 0x7f
   2133c:	d904      	bls.n	21348 <_start+0x1220>
   2133e:	f001 ff27 	bl	23190 <_start+0x3068>
   21342:	46c0      	nop			@ (mov r8, r8)
   21344:	000023c6 	.word	0x000023c6
   21348:	9d11      	ldr	r5, [sp, #68]	@ 0x44
   2134a:	4806      	ldr	r0, [pc, #24]	@ (21364 <_start+0x123c>)
   2134c:	4468      	add	r0, sp
   2134e:	f005 ff07 	bl	27160 <_ZN9allow_pin12full_dynamic17unshare_if_shared17hc38d0bd70fd52db9E>
   21352:	4805      	ldr	r0, [pc, #20]	@ (21368 <_start+0x1240>)
   21354:	4468      	add	r0, sp
   21356:	f005 ff03 	bl	27160 <_ZN9allow_pin12full_dynamic17unshare_if_shared17hc38d0bd70fd52db9E>
   2135a:	2d00      	cmp	r5, #0
   2135c:	d006      	beq.n	2136c <_start+0x1244>
   2135e:	f005 fe7a 	bl	27056 <_start+0x6f2e>
   21362:	46c0      	nop			@ (mov r8, r8)
   21364:	00000568 	.word	0x00000568
   21368:	000005cc 	.word	0x000005cc
   2136c:	4d1a      	ldr	r5, [pc, #104]	@ (213d8 <_start+0x12b0>)
   2136e:	446d      	add	r5, sp
   21370:	4628      	mov	r0, r5
   21372:	300c      	adds	r0, #12
   21374:	a9e4      	add	r1, sp, #912	@ 0x390
   21376:	2203      	movs	r2, #3
   21378:	f006 f8b3 	bl	274e2 <__aeabi_memcpy>
   2137c:	aca3      	add	r4, sp, #652	@ 0x28c
   2137e:	a9ba      	add	r1, sp, #744	@ 0x2e8
   21380:	262d      	movs	r6, #45	@ 0x2d
   21382:	4620      	mov	r0, r4
   21384:	4632      	mov	r2, r6
   21386:	f006 f8ac 	bl	274e2 <__aeabi_memcpy>
   2138a:	4628      	mov	r0, r5
   2138c:	3013      	adds	r0, #19
   2138e:	4621      	mov	r1, r4
   21390:	4632      	mov	r2, r6
   21392:	f006 f8a6 	bl	274e2 <__aeabi_memcpy>
   21396:	9913      	ldr	r1, [sp, #76]	@ 0x4c
   21398:	0e08      	lsrs	r0, r1, #24
   2139a:	74a8      	strb	r0, [r5, #18]
   2139c:	0c08      	lsrs	r0, r1, #16
   2139e:	7468      	strb	r0, [r5, #17]
   213a0:	0a08      	lsrs	r0, r1, #8
   213a2:	7428      	strb	r0, [r5, #16]
   213a4:	73e9      	strb	r1, [r5, #15]
   213a6:	9c12      	ldr	r4, [sp, #72]	@ 0x48
   213a8:	722c      	strb	r4, [r5, #8]
   213aa:	4e0c      	ldr	r6, [pc, #48]	@ (213dc <_start+0x12b4>)
   213ac:	446e      	add	r6, sp
   213ae:	4630      	mov	r0, r6
   213b0:	300c      	adds	r0, #12
   213b2:	212e      	movs	r1, #46	@ 0x2e
   213b4:	900d      	str	r0, [sp, #52]	@ 0x34
   213b6:	f005 fee7 	bl	27188 <__aeabi_memclr4>
   213ba:	7234      	strb	r4, [r6, #8]
   213bc:	9400      	str	r4, [sp, #0]
   213be:	9e05      	ldr	r6, [sp, #20]
   213c0:	36db      	adds	r6, #219	@ 0xdb
   213c2:	2134      	movs	r1, #52	@ 0x34
   213c4:	2204      	movs	r2, #4
   213c6:	4628      	mov	r0, r5
   213c8:	4633      	mov	r3, r6
   213ca:	f7fe fe8b 	bl	200e4 <_ZN9allow_pin12full_dynamic15Buffer$LT$B$GT$5allow17h6d4ce413c213cdffE>
   213ce:	9113      	str	r1, [sp, #76]	@ 0x4c
   213d0:	07c0      	lsls	r0, r0, #31
   213d2:	d123      	bne.n	2141c <_start+0x12f4>
   213d4:	e004      	b.n	213e0 <_start+0x12b8>
   213d6:	46c0      	nop			@ (mov r8, r8)
   213d8:	000005cc 	.word	0x000005cc
   213dc:	00000568 	.word	0x00000568
   213e0:	9810      	ldr	r0, [sp, #64]	@ 0x40
   213e2:	9000      	str	r0, [sp, #0]
   213e4:	4805      	ldr	r0, [pc, #20]	@ (213fc <_start+0x12d4>)
   213e6:	4468      	add	r0, sp
   213e8:	212e      	movs	r1, #46	@ 0x2e
   213ea:	2203      	movs	r2, #3
   213ec:	4633      	mov	r3, r6
   213ee:	f7fe fe79 	bl	200e4 <_ZN9allow_pin12full_dynamic15Buffer$LT$B$GT$5allow17h6d4ce413c213cdffE>
   213f2:	9113      	str	r1, [sp, #76]	@ 0x4c
   213f4:	07c0      	lsls	r0, r0, #31
   213f6:	d111      	bne.n	2141c <_start+0x12f4>
   213f8:	e002      	b.n	21400 <_start+0x12d8>
   213fa:	46c0      	nop			@ (mov r8, r8)
   213fc:	00000568 	.word	0x00000568
   21400:	4805      	ldr	r0, [pc, #20]	@ (21418 <_start+0x12f0>)
   21402:	2102      	movs	r1, #2
   21404:	2208      	movs	r2, #8
   21406:	2500      	movs	r5, #0
   21408:	462b      	mov	r3, r5
   2140a:	df02      	svc	2
   2140c:	9113      	str	r1, [sp, #76]	@ 0x4c
   2140e:	287f      	cmp	r0, #127	@ 0x7f
   21410:	d904      	bls.n	2141c <_start+0x12f4>
   21412:	f001 fee9 	bl	231e8 <_start+0x30c0>
   21416:	46c0      	nop			@ (mov r8, r8)
   21418:	00000209 	.word	0x00000209
   2141c:	9d11      	ldr	r5, [sp, #68]	@ 0x44
   2141e:	4806      	ldr	r0, [pc, #24]	@ (21438 <_start+0x1310>)
   21420:	4468      	add	r0, sp
   21422:	f005 fe9d 	bl	27160 <_ZN9allow_pin12full_dynamic17unshare_if_shared17hc38d0bd70fd52db9E>
   21426:	4805      	ldr	r0, [pc, #20]	@ (2143c <_start+0x1314>)
   21428:	4468      	add	r0, sp
   2142a:	f005 fe99 	bl	27160 <_ZN9allow_pin12full_dynamic17unshare_if_shared17hc38d0bd70fd52db9E>
   2142e:	2d00      	cmp	r5, #0
   21430:	d006      	beq.n	21440 <_start+0x1318>
   21432:	f005 fe10 	bl	27056 <_start+0x6f2e>
   21436:	46c0      	nop			@ (mov r8, r8)
   21438:	00000568 	.word	0x00000568
   2143c:	000005cc 	.word	0x000005cc
   21440:	4d1a      	ldr	r5, [pc, #104]	@ (214ac <_start+0x1384>)
   21442:	446d      	add	r5, sp
   21444:	4628      	mov	r0, r5
   21446:	300c      	adds	r0, #12
   21448:	a9e4      	add	r1, sp, #912	@ 0x390
   2144a:	2203      	movs	r2, #3
   2144c:	f006 f849 	bl	274e2 <__aeabi_memcpy>
   21450:	aca3      	add	r4, sp, #652	@ 0x28c
   21452:	a9ba      	add	r1, sp, #744	@ 0x2e8
   21454:	2627      	movs	r6, #39	@ 0x27
   21456:	4620      	mov	r0, r4
   21458:	4632      	mov	r2, r6
   2145a:	f006 f842 	bl	274e2 <__aeabi_memcpy>
   2145e:	4628      	mov	r0, r5
   21460:	3013      	adds	r0, #19
   21462:	4621      	mov	r1, r4
   21464:	4632      	mov	r2, r6
   21466:	f006 f83c 	bl	274e2 <__aeabi_memcpy>
   2146a:	9913      	ldr	r1, [sp, #76]	@ 0x4c
   2146c:	0e08      	lsrs	r0, r1, #24
   2146e:	74a8      	strb	r0, [r5, #18]
   21470:	0c08      	lsrs	r0, r1, #16
   21472:	7468      	strb	r0, [r5, #17]
   21474:	0a08      	lsrs	r0, r1, #8
   21476:	7428      	strb	r0, [r5, #16]
   21478:	73e9      	strb	r1, [r5, #15]
   2147a:	9c12      	ldr	r4, [sp, #72]	@ 0x48
   2147c:	722c      	strb	r4, [r5, #8]
   2147e:	4e0c      	ldr	r6, [pc, #48]	@ (214b0 <_start+0x1388>)
   21480:	446e      	add	r6, sp
   21482:	4630      	mov	r0, r6
   21484:	300c      	adds	r0, #12
   21486:	2138      	movs	r1, #56	@ 0x38
   21488:	900d      	str	r0, [sp, #52]	@ 0x34
   2148a:	f005 fe7d 	bl	27188 <__aeabi_memclr4>
   2148e:	7234      	strb	r4, [r6, #8]
   21490:	980e      	ldr	r0, [sp, #56]	@ 0x38
   21492:	9000      	str	r0, [sp, #0]
   21494:	4e07      	ldr	r6, [pc, #28]	@ (214b4 <_start+0x138c>)
   21496:	3667      	adds	r6, #103	@ 0x67
   21498:	212e      	movs	r1, #46	@ 0x2e
   2149a:	2204      	movs	r2, #4
   2149c:	4628      	mov	r0, r5
   2149e:	4633      	mov	r3, r6
   214a0:	f7fe fe20 	bl	200e4 <_ZN9allow_pin12full_dynamic15Buffer$LT$B$GT$5allow17h6d4ce413c213cdffE>
   214a4:	9113      	str	r1, [sp, #76]	@ 0x4c
   214a6:	07c0      	lsls	r0, r0, #31
   214a8:	d124      	bne.n	214f4 <_start+0x13cc>
   214aa:	e005      	b.n	214b8 <_start+0x1390>
   214ac:	00000568 	.word	0x00000568
   214b0:	000005cc 	.word	0x000005cc
   214b4:	00000a36 	.word	0x00000a36
   214b8:	980e      	ldr	r0, [sp, #56]	@ 0x38
   214ba:	9000      	str	r0, [sp, #0]
   214bc:	4805      	ldr	r0, [pc, #20]	@ (214d4 <_start+0x13ac>)
   214be:	4468      	add	r0, sp
   214c0:	2138      	movs	r1, #56	@ 0x38
   214c2:	2203      	movs	r2, #3
   214c4:	4633      	mov	r3, r6
   214c6:	f7fe fe0d 	bl	200e4 <_ZN9allow_pin12full_dynamic15Buffer$LT$B$GT$5allow17h6d4ce413c213cdffE>
   214ca:	9113      	str	r1, [sp, #76]	@ 0x4c
   214cc:	07c0      	lsls	r0, r0, #31
   214ce:	d111      	bne.n	214f4 <_start+0x13cc>
   214d0:	e002      	b.n	214d8 <_start+0x13b0>
   214d2:	46c0      	nop			@ (mov r8, r8)
   214d4:	000005cc 	.word	0x000005cc
   214d8:	4805      	ldr	r0, [pc, #20]	@ (214f0 <_start+0x13c8>)
   214da:	2109      	movs	r1, #9
   214dc:	2500      	movs	r5, #0
   214de:	460a      	mov	r2, r1
   214e0:	462b      	mov	r3, r5
   214e2:	df02      	svc	2
   214e4:	9113      	str	r1, [sp, #76]	@ 0x4c
   214e6:	287f      	cmp	r0, #127	@ 0x7f
   214e8:	d904      	bls.n	214f4 <_start+0x13cc>
   214ea:	f001 fea9 	bl	23240 <_start+0x3118>
   214ee:	46c0      	nop			@ (mov r8, r8)
   214f0:	00000a9d 	.word	0x00000a9d
   214f4:	9d11      	ldr	r5, [sp, #68]	@ 0x44
   214f6:	4806      	ldr	r0, [pc, #24]	@ (21510 <_start+0x13e8>)
   214f8:	4468      	add	r0, sp
   214fa:	f005 fe31 	bl	27160 <_ZN9allow_pin12full_dynamic17unshare_if_shared17hc38d0bd70fd52db9E>
   214fe:	4805      	ldr	r0, [pc, #20]	@ (21514 <_start+0x13ec>)
   21500:	4468      	add	r0, sp
   21502:	f005 fe2d 	bl	27160 <_ZN9allow_pin12full_dynamic17unshare_if_shared17hc38d0bd70fd52db9E>
   21506:	2d00      	cmp	r5, #0
   21508:	d006      	beq.n	21518 <_start+0x13f0>
   2150a:	f005 fda4 	bl	27056 <_start+0x6f2e>
   2150e:	46c0      	nop			@ (mov r8, r8)
   21510:	000005cc 	.word	0x000005cc
   21514:	00000568 	.word	0x00000568
   21518:	4e1a      	ldr	r6, [pc, #104]	@ (21584 <_start+0x145c>)
   2151a:	446e      	add	r6, sp
   2151c:	4630      	mov	r0, r6
   2151e:	300c      	adds	r0, #12
   21520:	a9e4      	add	r1, sp, #912	@ 0x390
   21522:	2203      	movs	r2, #3
   21524:	920d      	str	r2, [sp, #52]	@ 0x34
   21526:	f005 ffdc 	bl	274e2 <__aeabi_memcpy>
   2152a:	ada3      	add	r5, sp, #652	@ 0x28c
   2152c:	a9ba      	add	r1, sp, #744	@ 0x2e8
   2152e:	2431      	movs	r4, #49	@ 0x31
   21530:	4628      	mov	r0, r5
   21532:	4622      	mov	r2, r4
   21534:	f005 ffd5 	bl	274e2 <__aeabi_memcpy>
   21538:	4630      	mov	r0, r6
   2153a:	3013      	adds	r0, #19
   2153c:	4629      	mov	r1, r5
   2153e:	4622      	mov	r2, r4
   21540:	f005 ffcf 	bl	274e2 <__aeabi_memcpy>
   21544:	9913      	ldr	r1, [sp, #76]	@ 0x4c
   21546:	0e08      	lsrs	r0, r1, #24
   21548:	74b0      	strb	r0, [r6, #18]
   2154a:	0c08      	lsrs	r0, r1, #16
   2154c:	7470      	strb	r0, [r6, #17]
   2154e:	0a08      	lsrs	r0, r1, #8
   21550:	7430      	strb	r0, [r6, #16]
   21552:	73f1      	strb	r1, [r6, #15]
   21554:	9d12      	ldr	r5, [sp, #72]	@ 0x48
   21556:	7235      	strb	r5, [r6, #8]
   21558:	4c0b      	ldr	r4, [pc, #44]	@ (21588 <_start+0x1460>)
   2155a:	446c      	add	r4, sp
   2155c:	4620      	mov	r0, r4
   2155e:	300c      	adds	r0, #12
   21560:	2134      	movs	r1, #52	@ 0x34
   21562:	900c      	str	r0, [sp, #48]	@ 0x30
   21564:	f005 fe10 	bl	27188 <__aeabi_memclr4>
   21568:	7225      	strb	r5, [r4, #8]
   2156a:	9810      	ldr	r0, [sp, #64]	@ 0x40
   2156c:	9000      	str	r0, [sp, #0]
   2156e:	2138      	movs	r1, #56	@ 0x38
   21570:	2204      	movs	r2, #4
   21572:	4630      	mov	r0, r6
   21574:	9b05      	ldr	r3, [sp, #20]
   21576:	f7fe fdb5 	bl	200e4 <_ZN9allow_pin12full_dynamic15Buffer$LT$B$GT$5allow17h6d4ce413c213cdffE>
   2157a:	9113      	str	r1, [sp, #76]	@ 0x4c
   2157c:	07c0      	lsls	r0, r0, #31
   2157e:	d11e      	bne.n	215be <_start+0x1496>
   21580:	e004      	b.n	2158c <_start+0x1464>
   21582:	46c0      	nop			@ (mov r8, r8)
   21584:	000005cc 	.word	0x000005cc
   21588:	00000568 	.word	0x00000568
   2158c:	9a0d      	ldr	r2, [sp, #52]	@ 0x34
   2158e:	9200      	str	r2, [sp, #0]
   21590:	4804      	ldr	r0, [pc, #16]	@ (215a4 <_start+0x147c>)
   21592:	4468      	add	r0, sp
   21594:	2134      	movs	r1, #52	@ 0x34
   21596:	9b05      	ldr	r3, [sp, #20]
   21598:	f7fe fda4 	bl	200e4 <_ZN9allow_pin12full_dynamic15Buffer$LT$B$GT$5allow17h6d4ce413c213cdffE>
   2159c:	9113      	str	r1, [sp, #76]	@ 0x4c
   2159e:	07c0      	lsls	r0, r0, #31
   215a0:	d10d      	bne.n	215be <_start+0x1496>
   215a2:	e001      	b.n	215a8 <_start+0x1480>
   215a4:	00000568 	.word	0x00000568
   215a8:	2108      	movs	r1, #8
   215aa:	2203      	movs	r2, #3
   215ac:	2400      	movs	r4, #0
   215ae:	9805      	ldr	r0, [sp, #20]
   215b0:	4623      	mov	r3, r4
   215b2:	df02      	svc	2
   215b4:	9113      	str	r1, [sp, #76]	@ 0x4c
   215b6:	287f      	cmp	r0, #127	@ 0x7f
   215b8:	d901      	bls.n	215be <_start+0x1496>
   215ba:	f001 fe6d 	bl	23298 <_start+0x3170>
   215be:	9c11      	ldr	r4, [sp, #68]	@ 0x44
   215c0:	4805      	ldr	r0, [pc, #20]	@ (215d8 <_start+0x14b0>)
   215c2:	4468      	add	r0, sp
   215c4:	f005 fdcc 	bl	27160 <_ZN9allow_pin12full_dynamic17unshare_if_shared17hc38d0bd70fd52db9E>
   215c8:	4804      	ldr	r0, [pc, #16]	@ (215dc <_start+0x14b4>)
   215ca:	4468      	add	r0, sp
   215cc:	f005 fdc8 	bl	27160 <_ZN9allow_pin12full_dynamic17unshare_if_shared17hc38d0bd70fd52db9E>
   215d0:	2c00      	cmp	r4, #0
   215d2:	d005      	beq.n	215e0 <_start+0x14b8>
   215d4:	f005 fd3f 	bl	27056 <_start+0x6f2e>
   215d8:	00000568 	.word	0x00000568
   215dc:	000005cc 	.word	0x000005cc
   215e0:	4d1a      	ldr	r5, [pc, #104]	@ (2164c <_start+0x1524>)
   215e2:	446d      	add	r5, sp
   215e4:	4628      	mov	r0, r5
   215e6:	300c      	adds	r0, #12
   215e8:	a9e4      	add	r1, sp, #912	@ 0x390
   215ea:	2203      	movs	r2, #3
   215ec:	f005 ff79 	bl	274e2 <__aeabi_memcpy>
   215f0:	aca3      	add	r4, sp, #652	@ 0x28c
   215f2:	a9ba      	add	r1, sp, #744	@ 0x2e8
   215f4:	262d      	movs	r6, #45	@ 0x2d
   215f6:	4620      	mov	r0, r4
   215f8:	4632      	mov	r2, r6
   215fa:	f005 ff72 	bl	274e2 <__aeabi_memcpy>
   215fe:	4628      	mov	r0, r5
   21600:	3013      	adds	r0, #19
   21602:	4621      	mov	r1, r4
   21604:	4632      	mov	r2, r6
   21606:	f005 ff6c 	bl	274e2 <__aeabi_memcpy>
   2160a:	9913      	ldr	r1, [sp, #76]	@ 0x4c
   2160c:	0e08      	lsrs	r0, r1, #24
   2160e:	74a8      	strb	r0, [r5, #18]
   21610:	0c08      	lsrs	r0, r1, #16
   21612:	7468      	strb	r0, [r5, #17]
   21614:	0a08      	lsrs	r0, r1, #8
   21616:	7428      	strb	r0, [r5, #16]
   21618:	73e9      	strb	r1, [r5, #15]
   2161a:	9c12      	ldr	r4, [sp, #72]	@ 0x48
   2161c:	722c      	strb	r4, [r5, #8]
   2161e:	4e0c      	ldr	r6, [pc, #48]	@ (21650 <_start+0x1528>)
   21620:	446e      	add	r6, sp
   21622:	4630      	mov	r0, r6
   21624:	300c      	adds	r0, #12
   21626:	211a      	movs	r1, #26
   21628:	900d      	str	r0, [sp, #52]	@ 0x34
   2162a:	f005 fdad 	bl	27188 <__aeabi_memclr4>
   2162e:	7234      	strb	r4, [r6, #8]
   21630:	9806      	ldr	r0, [sp, #24]
   21632:	9000      	str	r0, [sp, #0]
   21634:	4e07      	ldr	r6, [pc, #28]	@ (21654 <_start+0x152c>)
   21636:	3659      	adds	r6, #89	@ 0x59
   21638:	2134      	movs	r1, #52	@ 0x34
   2163a:	2204      	movs	r2, #4
   2163c:	4628      	mov	r0, r5
   2163e:	4633      	mov	r3, r6
   21640:	f7fe fd50 	bl	200e4 <_ZN9allow_pin12full_dynamic15Buffer$LT$B$GT$5allow17h6d4ce413c213cdffE>
   21644:	9113      	str	r1, [sp, #76]	@ 0x4c
   21646:	07c0      	lsls	r0, r0, #31
   21648:	d124      	bne.n	21694 <_start+0x156c>
   2164a:	e005      	b.n	21658 <_start+0x1530>
   2164c:	000005cc 	.word	0x000005cc
   21650:	00000568 	.word	0x00000568
   21654:	00001273 	.word	0x00001273
   21658:	2005      	movs	r0, #5
   2165a:	9000      	str	r0, [sp, #0]
   2165c:	4805      	ldr	r0, [pc, #20]	@ (21674 <_start+0x154c>)
   2165e:	4468      	add	r0, sp
   21660:	211a      	movs	r1, #26
   21662:	2203      	movs	r2, #3
   21664:	4633      	mov	r3, r6
   21666:	f7fe fd3d 	bl	200e4 <_ZN9allow_pin12full_dynamic15Buffer$LT$B$GT$5allow17h6d4ce413c213cdffE>
   2166a:	9113      	str	r1, [sp, #76]	@ 0x4c
   2166c:	07c0      	lsls	r0, r0, #31
   2166e:	d111      	bne.n	21694 <_start+0x156c>
   21670:	e002      	b.n	21678 <_start+0x1550>
   21672:	46c0      	nop			@ (mov r8, r8)
   21674:	00000568 	.word	0x00000568
   21678:	4805      	ldr	r0, [pc, #20]	@ (21690 <_start+0x1568>)
   2167a:	2205      	movs	r2, #5
   2167c:	2500      	movs	r5, #0
   2167e:	4629      	mov	r1, r5
   21680:	462b      	mov	r3, r5
   21682:	df02      	svc	2
   21684:	9113      	str	r1, [sp, #76]	@ 0x4c
   21686:	287f      	cmp	r0, #127	@ 0x7f
   21688:	d904      	bls.n	21694 <_start+0x156c>
   2168a:	f001 fe31 	bl	232f0 <_start+0x31c8>
   2168e:	46c0      	nop			@ (mov r8, r8)
   21690:	000012cc 	.word	0x000012cc
   21694:	9d11      	ldr	r5, [sp, #68]	@ 0x44
   21696:	4806      	ldr	r0, [pc, #24]	@ (216b0 <_start+0x1588>)
   21698:	4468      	add	r0, sp
   2169a:	f005 fd61 	bl	27160 <_ZN9allow_pin12full_dynamic17unshare_if_shared17hc38d0bd70fd52db9E>
   2169e:	4805      	ldr	r0, [pc, #20]	@ (216b4 <_start+0x158c>)
   216a0:	4468      	add	r0, sp
   216a2:	f005 fd5d 	bl	27160 <_ZN9allow_pin12full_dynamic17unshare_if_shared17hc38d0bd70fd52db9E>
   216a6:	2d00      	cmp	r5, #0
   216a8:	d006      	beq.n	216b8 <_start+0x1590>
   216aa:	f005 fcd4 	bl	27056 <_start+0x6f2e>
   216ae:	46c0      	nop			@ (mov r8, r8)
   216b0:	00000568 	.word	0x00000568
   216b4:	000005cc 	.word	0x000005cc
   216b8:	a8ba      	add	r0, sp, #744	@ 0x2e8
   216ba:	900d      	str	r0, [sp, #52]	@ 0x34
   216bc:	300c      	adds	r0, #12
   216be:	a9ff      	add	r1, sp, #1020	@ 0x3fc
   216c0:	31f8      	adds	r1, #248	@ 0xf8
   216c2:	2203      	movs	r2, #3
   216c4:	920c      	str	r2, [sp, #48]	@ 0x30
   216c6:	f005 ff0c 	bl	274e2 <__aeabi_memcpy>
   216ca:	a8e4      	add	r0, sp, #912	@ 0x390
   216cc:	a9a3      	add	r1, sp, #652	@ 0x28c
   216ce:	460a      	mov	r2, r1
   216d0:	c878      	ldmia	r0!, {r3, r4, r5, r6}
   216d2:	c278      	stmia	r2!, {r3, r4, r5, r6}
   216d4:	8803      	ldrh	r3, [r0, #0]
   216d6:	8013      	strh	r3, [r2, #0]
   216d8:	7880      	ldrb	r0, [r0, #2]
   216da:	7090      	strb	r0, [r2, #2]
   216dc:	9c0d      	ldr	r4, [sp, #52]	@ 0x34
   216de:	4620      	mov	r0, r4
   216e0:	3013      	adds	r0, #19
   216e2:	2213      	movs	r2, #19
   216e4:	f005 fefd 	bl	274e2 <__aeabi_memcpy>
   216e8:	9913      	ldr	r1, [sp, #76]	@ 0x4c
   216ea:	0e08      	lsrs	r0, r1, #24
   216ec:	74a0      	strb	r0, [r4, #18]
   216ee:	0c08      	lsrs	r0, r1, #16
   216f0:	7460      	strb	r0, [r4, #17]
   216f2:	0a08      	lsrs	r0, r1, #8
   216f4:	7420      	strb	r0, [r4, #16]
   216f6:	73e1      	strb	r1, [r4, #15]
   216f8:	9d12      	ldr	r5, [sp, #72]	@ 0x48
   216fa:	7225      	strb	r5, [r4, #8]
   216fc:	4c0b      	ldr	r4, [pc, #44]	@ (2172c <_start+0x1604>)
   216fe:	446c      	add	r4, sp
   21700:	4620      	mov	r0, r4
   21702:	300c      	adds	r0, #12
   21704:	2150      	movs	r1, #80	@ 0x50
   21706:	9004      	str	r0, [sp, #16]
   21708:	f005 fd3e 	bl	27188 <__aeabi_memclr4>
   2170c:	7225      	strb	r5, [r4, #8]
   2170e:	9807      	ldr	r0, [sp, #28]
   21710:	9000      	str	r0, [sp, #0]
   21712:	4e07      	ldr	r6, [pc, #28]	@ (21730 <_start+0x1608>)
   21714:	36b8      	adds	r6, #184	@ 0xb8
   21716:	211a      	movs	r1, #26
   21718:	2404      	movs	r4, #4
   2171a:	980d      	ldr	r0, [sp, #52]	@ 0x34
   2171c:	4622      	mov	r2, r4
   2171e:	4633      	mov	r3, r6
   21720:	f7fe fce0 	bl	200e4 <_ZN9allow_pin12full_dynamic15Buffer$LT$B$GT$5allow17h6d4ce413c213cdffE>
   21724:	9113      	str	r1, [sp, #76]	@ 0x4c
   21726:	07c0      	lsls	r0, r0, #31
   21728:	d120      	bne.n	2176c <_start+0x1644>
   2172a:	e003      	b.n	21734 <_start+0x160c>
   2172c:	000005cc 	.word	0x000005cc
   21730:	00000a36 	.word	0x00000a36
   21734:	9400      	str	r4, [sp, #0]
   21736:	4805      	ldr	r0, [pc, #20]	@ (2174c <_start+0x1624>)
   21738:	4468      	add	r0, sp
   2173a:	2150      	movs	r1, #80	@ 0x50
   2173c:	2203      	movs	r2, #3
   2173e:	4633      	mov	r3, r6
   21740:	f7fe fcd0 	bl	200e4 <_ZN9allow_pin12full_dynamic15Buffer$LT$B$GT$5allow17h6d4ce413c213cdffE>
   21744:	9113      	str	r1, [sp, #76]	@ 0x4c
   21746:	07c0      	lsls	r0, r0, #31
   21748:	d110      	bne.n	2176c <_start+0x1644>
   2174a:	e001      	b.n	21750 <_start+0x1628>
   2174c:	000005cc 	.word	0x000005cc
   21750:	4805      	ldr	r0, [pc, #20]	@ (21768 <_start+0x1640>)
   21752:	2107      	movs	r1, #7
   21754:	2204      	movs	r2, #4
   21756:	2500      	movs	r5, #0
   21758:	462b      	mov	r3, r5
   2175a:	df02      	svc	2
   2175c:	9113      	str	r1, [sp, #76]	@ 0x4c
   2175e:	287f      	cmp	r0, #127	@ 0x7f
   21760:	d904      	bls.n	2176c <_start+0x1644>
   21762:	f001 fdf2 	bl	2334a <_start+0x3222>
   21766:	46c0      	nop			@ (mov r8, r8)
   21768:	00000aee 	.word	0x00000aee
   2176c:	9d11      	ldr	r5, [sp, #68]	@ 0x44
   2176e:	4805      	ldr	r0, [pc, #20]	@ (21784 <_start+0x165c>)
   21770:	4468      	add	r0, sp
   21772:	f005 fcf5 	bl	27160 <_ZN9allow_pin12full_dynamic17unshare_if_shared17hc38d0bd70fd52db9E>
   21776:	a8ba      	add	r0, sp, #744	@ 0x2e8
   21778:	f005 fcf2 	bl	27160 <_ZN9allow_pin12full_dynamic17unshare_if_shared17hc38d0bd70fd52db9E>
   2177c:	2d00      	cmp	r5, #0
   2177e:	d003      	beq.n	21788 <_start+0x1660>
   21780:	f005 fc69 	bl	27056 <_start+0x6f2e>
   21784:	000005cc 	.word	0x000005cc
   21788:	4d1b      	ldr	r5, [pc, #108]	@ (217f8 <_start+0x16d0>)
   2178a:	446d      	add	r5, sp
   2178c:	4628      	mov	r0, r5
   2178e:	300c      	adds	r0, #12
   21790:	a9e4      	add	r1, sp, #912	@ 0x390
   21792:	9a0c      	ldr	r2, [sp, #48]	@ 0x30
   21794:	f005 fea5 	bl	274e2 <__aeabi_memcpy>
   21798:	4c18      	ldr	r4, [pc, #96]	@ (217fc <_start+0x16d4>)
   2179a:	446c      	add	r4, sp
   2179c:	a9a3      	add	r1, sp, #652	@ 0x28c
   2179e:	2649      	movs	r6, #73	@ 0x49
   217a0:	4620      	mov	r0, r4
   217a2:	4632      	mov	r2, r6
   217a4:	f005 fd3d 	bl	27222 <__aeabi_memcpy4>
   217a8:	4628      	mov	r0, r5
   217aa:	3013      	adds	r0, #19
   217ac:	4621      	mov	r1, r4
   217ae:	4632      	mov	r2, r6
   217b0:	f005 fe97 	bl	274e2 <__aeabi_memcpy>
   217b4:	9913      	ldr	r1, [sp, #76]	@ 0x4c
   217b6:	0e08      	lsrs	r0, r1, #24
   217b8:	74a8      	strb	r0, [r5, #18]
   217ba:	0c08      	lsrs	r0, r1, #16
   217bc:	7468      	strb	r0, [r5, #17]
   217be:	0a08      	lsrs	r0, r1, #8
   217c0:	7428      	strb	r0, [r5, #16]
   217c2:	73e9      	strb	r1, [r5, #15]
   217c4:	9c12      	ldr	r4, [sp, #72]	@ 0x48
   217c6:	722c      	strb	r4, [r5, #8]
   217c8:	4e0c      	ldr	r6, [pc, #48]	@ (217fc <_start+0x16d4>)
   217ca:	446e      	add	r6, sp
   217cc:	4630      	mov	r0, r6
   217ce:	300c      	adds	r0, #12
   217d0:	213c      	movs	r1, #60	@ 0x3c
   217d2:	900d      	str	r0, [sp, #52]	@ 0x34
   217d4:	f005 fcd8 	bl	27188 <__aeabi_memclr4>
   217d8:	7234      	strb	r4, [r6, #8]
   217da:	980c      	ldr	r0, [sp, #48]	@ 0x30
   217dc:	9000      	str	r0, [sp, #0]
   217de:	4e08      	ldr	r6, [pc, #32]	@ (21800 <_start+0x16d8>)
   217e0:	361d      	adds	r6, #29
   217e2:	2150      	movs	r1, #80	@ 0x50
   217e4:	2204      	movs	r2, #4
   217e6:	4628      	mov	r0, r5
   217e8:	4633      	mov	r3, r6
   217ea:	f7fe fc7b 	bl	200e4 <_ZN9allow_pin12full_dynamic15Buffer$LT$B$GT$5allow17h6d4ce413c213cdffE>
   217ee:	9113      	str	r1, [sp, #76]	@ 0x4c
   217f0:	07c0      	lsls	r0, r0, #31
   217f2:	d125      	bne.n	21840 <_start+0x1718>
   217f4:	e006      	b.n	21804 <_start+0x16dc>
   217f6:	46c0      	nop			@ (mov r8, r8)
   217f8:	000005cc 	.word	0x000005cc
   217fc:	00000568 	.word	0x00000568
   21800:	00000d5d 	.word	0x00000d5d
   21804:	980e      	ldr	r0, [sp, #56]	@ 0x38
   21806:	9000      	str	r0, [sp, #0]
   21808:	4805      	ldr	r0, [pc, #20]	@ (21820 <_start+0x16f8>)
   2180a:	4468      	add	r0, sp
   2180c:	213c      	movs	r1, #60	@ 0x3c
   2180e:	2203      	movs	r2, #3
   21810:	4633      	mov	r3, r6
   21812:	f7fe fc67 	bl	200e4 <_ZN9allow_pin12full_dynamic15Buffer$LT$B$GT$5allow17h6d4ce413c213cdffE>
   21816:	9113      	str	r1, [sp, #76]	@ 0x4c
   21818:	07c0      	lsls	r0, r0, #31
   2181a:	d111      	bne.n	21840 <_start+0x1718>
   2181c:	e002      	b.n	21824 <_start+0x16fc>
   2181e:	46c0      	nop			@ (mov r8, r8)
   21820:	00000568 	.word	0x00000568
   21824:	4805      	ldr	r0, [pc, #20]	@ (2183c <_start+0x1714>)
   21826:	2103      	movs	r1, #3
   21828:	2209      	movs	r2, #9
   2182a:	2500      	movs	r5, #0
   2182c:	462b      	mov	r3, r5
   2182e:	df02      	svc	2
   21830:	9113      	str	r1, [sp, #76]	@ 0x4c
   21832:	287f      	cmp	r0, #127	@ 0x7f
   21834:	d904      	bls.n	21840 <_start+0x1718>
   21836:	f001 fdb3 	bl	233a0 <_start+0x3278>
   2183a:	46c0      	nop			@ (mov r8, r8)
   2183c:	00000d7a 	.word	0x00000d7a
   21840:	9d11      	ldr	r5, [sp, #68]	@ 0x44
   21842:	4806      	ldr	r0, [pc, #24]	@ (2185c <_start+0x1734>)
   21844:	4468      	add	r0, sp
   21846:	f005 fc8b 	bl	27160 <_ZN9allow_pin12full_dynamic17unshare_if_shared17hc38d0bd70fd52db9E>
   2184a:	4805      	ldr	r0, [pc, #20]	@ (21860 <_start+0x1738>)
   2184c:	4468      	add	r0, sp
   2184e:	f005 fc87 	bl	27160 <_ZN9allow_pin12full_dynamic17unshare_if_shared17hc38d0bd70fd52db9E>
   21852:	2d00      	cmp	r5, #0
   21854:	d006      	beq.n	21864 <_start+0x173c>
   21856:	f005 fbfe 	bl	27056 <_start+0x6f2e>
   2185a:	46c0      	nop			@ (mov r8, r8)
   2185c:	00000568 	.word	0x00000568
   21860:	000005cc 	.word	0x000005cc
   21864:	4d1b      	ldr	r5, [pc, #108]	@ (218d4 <_start+0x17ac>)
   21866:	446d      	add	r5, sp
   21868:	4628      	mov	r0, r5
   2186a:	300c      	adds	r0, #12
   2186c:	a9e4      	add	r1, sp, #912	@ 0x390
   2186e:	2203      	movs	r2, #3
   21870:	920d      	str	r2, [sp, #52]	@ 0x34
   21872:	f005 fe36 	bl	274e2 <__aeabi_memcpy>
   21876:	aca3      	add	r4, sp, #652	@ 0x28c
   21878:	a9ba      	add	r1, sp, #744	@ 0x2e8
   2187a:	2635      	movs	r6, #53	@ 0x35
   2187c:	4620      	mov	r0, r4
   2187e:	4632      	mov	r2, r6
   21880:	f005 fe2f 	bl	274e2 <__aeabi_memcpy>
   21884:	4628      	mov	r0, r5
   21886:	3013      	adds	r0, #19
   21888:	4621      	mov	r1, r4
   2188a:	4632      	mov	r2, r6
   2188c:	f005 fe29 	bl	274e2 <__aeabi_memcpy>
   21890:	9913      	ldr	r1, [sp, #76]	@ 0x4c
   21892:	0e08      	lsrs	r0, r1, #24
   21894:	74a8      	strb	r0, [r5, #18]
   21896:	0c08      	lsrs	r0, r1, #16
   21898:	7468      	strb	r0, [r5, #17]
   2189a:	0a08      	lsrs	r0, r1, #8
   2189c:	7428      	strb	r0, [r5, #16]
   2189e:	73e9      	strb	r1, [r5, #15]
   218a0:	9c12      	ldr	r4, [sp, #72]	@ 0x48
   218a2:	722c      	strb	r4, [r5, #8]
   218a4:	4e0c      	ldr	r6, [pc, #48]	@ (218d8 <_start+0x17b0>)
   218a6:	446e      	add	r6, sp
   218a8:	4630      	mov	r0, r6
   218aa:	300c      	adds	r0, #12
   218ac:	2132      	movs	r1, #50	@ 0x32
   218ae:	900c      	str	r0, [sp, #48]	@ 0x30
   218b0:	f005 fc6a 	bl	27188 <__aeabi_memclr4>
   218b4:	7234      	strb	r4, [r6, #8]
   218b6:	2006      	movs	r0, #6
   218b8:	9004      	str	r0, [sp, #16]
   218ba:	9000      	str	r0, [sp, #0]
   218bc:	4e07      	ldr	r6, [pc, #28]	@ (218dc <_start+0x17b4>)
   218be:	3675      	adds	r6, #117	@ 0x75
   218c0:	213c      	movs	r1, #60	@ 0x3c
   218c2:	2204      	movs	r2, #4
   218c4:	4628      	mov	r0, r5
   218c6:	4633      	mov	r3, r6
   218c8:	f7fe fc0c 	bl	200e4 <_ZN9allow_pin12full_dynamic15Buffer$LT$B$GT$5allow17h6d4ce413c213cdffE>
   218cc:	9113      	str	r1, [sp, #76]	@ 0x4c
   218ce:	07c0      	lsls	r0, r0, #31
   218d0:	d124      	bne.n	2191c <_start+0x17f4>
   218d2:	e005      	b.n	218e0 <_start+0x17b8>
   218d4:	000005cc 	.word	0x000005cc
   218d8:	00000568 	.word	0x00000568
   218dc:	00001aa9 	.word	0x00001aa9
   218e0:	9810      	ldr	r0, [sp, #64]	@ 0x40
   218e2:	9000      	str	r0, [sp, #0]
   218e4:	4805      	ldr	r0, [pc, #20]	@ (218fc <_start+0x17d4>)
   218e6:	4468      	add	r0, sp
   218e8:	2132      	movs	r1, #50	@ 0x32
   218ea:	2203      	movs	r2, #3
   218ec:	4633      	mov	r3, r6
   218ee:	f7fe fbf9 	bl	200e4 <_ZN9allow_pin12full_dynamic15Buffer$LT$B$GT$5allow17h6d4ce413c213cdffE>
   218f2:	9113      	str	r1, [sp, #76]	@ 0x4c
   218f4:	07c0      	lsls	r0, r0, #31
   218f6:	d111      	bne.n	2191c <_start+0x17f4>
   218f8:	e002      	b.n	21900 <_start+0x17d8>
   218fa:	46c0      	nop			@ (mov r8, r8)
   218fc:	00000568 	.word	0x00000568
   21900:	4805      	ldr	r0, [pc, #20]	@ (21918 <_start+0x17f0>)
   21902:	2106      	movs	r1, #6
   21904:	2208      	movs	r2, #8
   21906:	2500      	movs	r5, #0
   21908:	462b      	mov	r3, r5
   2190a:	df02      	svc	2
   2190c:	9113      	str	r1, [sp, #76]	@ 0x4c
   2190e:	287f      	cmp	r0, #127	@ 0x7f
   21910:	d904      	bls.n	2191c <_start+0x17f4>
   21912:	f001 fd71 	bl	233f8 <_start+0x32d0>
   21916:	46c0      	nop			@ (mov r8, r8)
   21918:	00001b1e 	.word	0x00001b1e
   2191c:	9d11      	ldr	r5, [sp, #68]	@ 0x44
   2191e:	4806      	ldr	r0, [pc, #24]	@ (21938 <_start+0x1810>)
   21920:	4468      	add	r0, sp
   21922:	f005 fc1d 	bl	27160 <_ZN9allow_pin12full_dynamic17unshare_if_shared17hc38d0bd70fd52db9E>
   21926:	4805      	ldr	r0, [pc, #20]	@ (2193c <_start+0x1814>)
   21928:	4468      	add	r0, sp
   2192a:	f005 fc19 	bl	27160 <_ZN9allow_pin12full_dynamic17unshare_if_shared17hc38d0bd70fd52db9E>
   2192e:	2d00      	cmp	r5, #0
   21930:	d006      	beq.n	21940 <_start+0x1818>
   21932:	f005 fb90 	bl	27056 <_start+0x6f2e>
   21936:	46c0      	nop			@ (mov r8, r8)
   21938:	00000568 	.word	0x00000568
   2193c:	000005cc 	.word	0x000005cc
   21940:	4d1b      	ldr	r5, [pc, #108]	@ (219b0 <_start+0x1888>)
   21942:	446d      	add	r5, sp
   21944:	4628      	mov	r0, r5
   21946:	300c      	adds	r0, #12
   21948:	a9e4      	add	r1, sp, #912	@ 0x390
   2194a:	9a0d      	ldr	r2, [sp, #52]	@ 0x34
   2194c:	f005 fdc9 	bl	274e2 <__aeabi_memcpy>
   21950:	aca3      	add	r4, sp, #652	@ 0x28c
   21952:	a9ba      	add	r1, sp, #744	@ 0x2e8
   21954:	262b      	movs	r6, #43	@ 0x2b
   21956:	4620      	mov	r0, r4
   21958:	4632      	mov	r2, r6
   2195a:	f005 fdc2 	bl	274e2 <__aeabi_memcpy>
   2195e:	4628      	mov	r0, r5
   21960:	3013      	adds	r0, #19
   21962:	4621      	mov	r1, r4
   21964:	4632      	mov	r2, r6
   21966:	f005 fdbc 	bl	274e2 <__aeabi_memcpy>
   2196a:	9913      	ldr	r1, [sp, #76]	@ 0x4c
   2196c:	0e08      	lsrs	r0, r1, #24
   2196e:	74a8      	strb	r0, [r5, #18]
   21970:	0c08      	lsrs	r0, r1, #16
   21972:	7468      	strb	r0, [r5, #17]
   21974:	0a08      	lsrs	r0, r1, #8
   21976:	7428      	strb	r0, [r5, #16]
   21978:	73e9      	strb	r1, [r5, #15]
   2197a:	9c12      	ldr	r4, [sp, #72]	@ 0x48
   2197c:	722c      	strb	r4, [r5, #8]
   2197e:	4e0d      	ldr	r6, [pc, #52]	@ (219b4 <_start+0x188c>)
   21980:	446e      	add	r6, sp
   21982:	4630      	mov	r0, r6
   21984:	300c      	adds	r0, #12
   21986:	2132      	movs	r1, #50	@ 0x32
   21988:	9113      	str	r1, [sp, #76]	@ 0x4c
   2198a:	900c      	str	r0, [sp, #48]	@ 0x30
   2198c:	f005 fbfc 	bl	27188 <__aeabi_memclr4>
   21990:	7234      	strb	r4, [r6, #8]
   21992:	980d      	ldr	r0, [sp, #52]	@ 0x34
   21994:	9000      	str	r0, [sp, #0]
   21996:	4e08      	ldr	r6, [pc, #32]	@ (219b8 <_start+0x1890>)
   21998:	36bc      	adds	r6, #188	@ 0xbc
   2199a:	2204      	movs	r2, #4
   2199c:	4628      	mov	r0, r5
   2199e:	9913      	ldr	r1, [sp, #76]	@ 0x4c
   219a0:	920d      	str	r2, [sp, #52]	@ 0x34
   219a2:	4633      	mov	r3, r6
   219a4:	f7fe fb9e 	bl	200e4 <_ZN9allow_pin12full_dynamic15Buffer$LT$B$GT$5allow17h6d4ce413c213cdffE>
   219a8:	9113      	str	r1, [sp, #76]	@ 0x4c
   219aa:	07c0      	lsls	r0, r0, #31
   219ac:	d124      	bne.n	219f8 <_start+0x18d0>
   219ae:	e005      	b.n	219bc <_start+0x1894>
   219b0:	00000568 	.word	0x00000568
   219b4:	000005cc 	.word	0x000005cc
   219b8:	00001e4b 	.word	0x00001e4b
   219bc:	2001      	movs	r0, #1
   219be:	9000      	str	r0, [sp, #0]
   219c0:	4805      	ldr	r0, [pc, #20]	@ (219d8 <_start+0x18b0>)
   219c2:	4468      	add	r0, sp
   219c4:	2132      	movs	r1, #50	@ 0x32
   219c6:	2203      	movs	r2, #3
   219c8:	4633      	mov	r3, r6
   219ca:	f7fe fb8b 	bl	200e4 <_ZN9allow_pin12full_dynamic15Buffer$LT$B$GT$5allow17h6d4ce413c213cdffE>
   219ce:	9113      	str	r1, [sp, #76]	@ 0x4c
   219d0:	07c0      	lsls	r0, r0, #31
   219d2:	d111      	bne.n	219f8 <_start+0x18d0>
   219d4:	e002      	b.n	219dc <_start+0x18b4>
   219d6:	46c0      	nop			@ (mov r8, r8)
   219d8:	000005cc 	.word	0x000005cc
   219dc:	4805      	ldr	r0, [pc, #20]	@ (219f4 <_start+0x18cc>)
   219de:	2103      	movs	r1, #3
   219e0:	2201      	movs	r2, #1
   219e2:	2500      	movs	r5, #0
   219e4:	462b      	mov	r3, r5
   219e6:	df02      	svc	2
   219e8:	9113      	str	r1, [sp, #76]	@ 0x4c
   219ea:	287f      	cmp	r0, #127	@ 0x7f
   219ec:	d904      	bls.n	219f8 <_start+0x18d0>
   219ee:	f001 fd35 	bl	2345c <_start+0x3334>
   219f2:	46c0      	nop			@ (mov r8, r8)
   219f4:	00001f07 	.word	0x00001f07
   219f8:	9d11      	ldr	r5, [sp, #68]	@ 0x44
   219fa:	4806      	ldr	r0, [pc, #24]	@ (21a14 <_start+0x18ec>)
   219fc:	4468      	add	r0, sp
   219fe:	f005 fbaf 	bl	27160 <_ZN9allow_pin12full_dynamic17unshare_if_shared17hc38d0bd70fd52db9E>
   21a02:	4805      	ldr	r0, [pc, #20]	@ (21a18 <_start+0x18f0>)
   21a04:	4468      	add	r0, sp
   21a06:	f005 fbab 	bl	27160 <_ZN9allow_pin12full_dynamic17unshare_if_shared17hc38d0bd70fd52db9E>
   21a0a:	2d00      	cmp	r5, #0
   21a0c:	d006      	beq.n	21a1c <_start+0x18f4>
   21a0e:	f005 fb22 	bl	27056 <_start+0x6f2e>
   21a12:	46c0      	nop			@ (mov r8, r8)
   21a14:	000005cc 	.word	0x000005cc
   21a18:	00000568 	.word	0x00000568
   21a1c:	4c1a      	ldr	r4, [pc, #104]	@ (21a88 <_start+0x1960>)
   21a1e:	446c      	add	r4, sp
   21a20:	4620      	mov	r0, r4
   21a22:	300c      	adds	r0, #12
   21a24:	a9e4      	add	r1, sp, #912	@ 0x390
   21a26:	2203      	movs	r2, #3
   21a28:	f005 fd5b 	bl	274e2 <__aeabi_memcpy>
   21a2c:	ada3      	add	r5, sp, #652	@ 0x28c
   21a2e:	a9ba      	add	r1, sp, #744	@ 0x2e8
   21a30:	262b      	movs	r6, #43	@ 0x2b
   21a32:	4628      	mov	r0, r5
   21a34:	4632      	mov	r2, r6
   21a36:	f005 fd54 	bl	274e2 <__aeabi_memcpy>
   21a3a:	4620      	mov	r0, r4
   21a3c:	3013      	adds	r0, #19
   21a3e:	4629      	mov	r1, r5
   21a40:	4632      	mov	r2, r6
   21a42:	f005 fd4e 	bl	274e2 <__aeabi_memcpy>
   21a46:	9913      	ldr	r1, [sp, #76]	@ 0x4c
   21a48:	0e08      	lsrs	r0, r1, #24
   21a4a:	74a0      	strb	r0, [r4, #18]
   21a4c:	0c08      	lsrs	r0, r1, #16
   21a4e:	7460      	strb	r0, [r4, #17]
   21a50:	0a08      	lsrs	r0, r1, #8
   21a52:	7420      	strb	r0, [r4, #16]
   21a54:	73e1      	strb	r1, [r4, #15]
   21a56:	9812      	ldr	r0, [sp, #72]	@ 0x48
   21a58:	7220      	strb	r0, [r4, #8]
   21a5a:	4e0c      	ldr	r6, [pc, #48]	@ (21a8c <_start+0x1964>)
   21a5c:	446e      	add	r6, sp
   21a5e:	7230      	strb	r0, [r6, #8]
   21a60:	9806      	ldr	r0, [sp, #24]
   21a62:	990f      	ldr	r1, [sp, #60]	@ 0x3c
   21a64:	6008      	str	r0, [r1, #0]
   21a66:	6048      	str	r0, [r1, #4]
   21a68:	6088      	str	r0, [r1, #8]
   21a6a:	60c8      	str	r0, [r1, #12]
   21a6c:	9a0d      	ldr	r2, [sp, #52]	@ 0x34
   21a6e:	9200      	str	r2, [sp, #0]
   21a70:	4d07      	ldr	r5, [pc, #28]	@ (21a90 <_start+0x1968>)
   21a72:	356b      	adds	r5, #107	@ 0x6b
   21a74:	2132      	movs	r1, #50	@ 0x32
   21a76:	4620      	mov	r0, r4
   21a78:	462b      	mov	r3, r5
   21a7a:	f7fe fb33 	bl	200e4 <_ZN9allow_pin12full_dynamic15Buffer$LT$B$GT$5allow17h6d4ce413c213cdffE>
   21a7e:	9113      	str	r1, [sp, #76]	@ 0x4c
   21a80:	07c0      	lsls	r0, r0, #31
   21a82:	d125      	bne.n	21ad0 <_start+0x19a8>
   21a84:	e006      	b.n	21a94 <_start+0x196c>
   21a86:	46c0      	nop			@ (mov r8, r8)
   21a88:	000005cc 	.word	0x000005cc
   21a8c:	00000568 	.word	0x00000568
   21a90:	0000196b 	.word	0x0000196b
   21a94:	980e      	ldr	r0, [sp, #56]	@ 0x38
   21a96:	9000      	str	r0, [sp, #0]
   21a98:	4805      	ldr	r0, [pc, #20]	@ (21ab0 <_start+0x1988>)
   21a9a:	4468      	add	r0, sp
   21a9c:	2110      	movs	r1, #16
   21a9e:	2203      	movs	r2, #3
   21aa0:	462b      	mov	r3, r5
   21aa2:	f7fe fb1f 	bl	200e4 <_ZN9allow_pin12full_dynamic15Buffer$LT$B$GT$5allow17h6d4ce413c213cdffE>
   21aa6:	9113      	str	r1, [sp, #76]	@ 0x4c
   21aa8:	07c0      	lsls	r0, r0, #31
   21aaa:	d111      	bne.n	21ad0 <_start+0x19a8>
   21aac:	e002      	b.n	21ab4 <_start+0x198c>
   21aae:	46c0      	nop			@ (mov r8, r8)
   21ab0:	00000568 	.word	0x00000568
   21ab4:	4805      	ldr	r0, [pc, #20]	@ (21acc <_start+0x19a4>)
   21ab6:	2104      	movs	r1, #4
   21ab8:	2209      	movs	r2, #9
   21aba:	2400      	movs	r4, #0
   21abc:	4623      	mov	r3, r4
   21abe:	df02      	svc	2
   21ac0:	9113      	str	r1, [sp, #76]	@ 0x4c
   21ac2:	287f      	cmp	r0, #127	@ 0x7f
   21ac4:	d904      	bls.n	21ad0 <_start+0x19a8>
   21ac6:	f001 fcf5 	bl	234b4 <_start+0x338c>
   21aca:	46c0      	nop			@ (mov r8, r8)
   21acc:	000019d6 	.word	0x000019d6
   21ad0:	9c11      	ldr	r4, [sp, #68]	@ 0x44
   21ad2:	4806      	ldr	r0, [pc, #24]	@ (21aec <_start+0x19c4>)
   21ad4:	4468      	add	r0, sp
   21ad6:	f005 fb43 	bl	27160 <_ZN9allow_pin12full_dynamic17unshare_if_shared17hc38d0bd70fd52db9E>
   21ada:	4805      	ldr	r0, [pc, #20]	@ (21af0 <_start+0x19c8>)
   21adc:	4468      	add	r0, sp
   21ade:	f005 fb3f 	bl	27160 <_ZN9allow_pin12full_dynamic17unshare_if_shared17hc38d0bd70fd52db9E>
   21ae2:	2c00      	cmp	r4, #0
   21ae4:	d006      	beq.n	21af4 <_start+0x19cc>
   21ae6:	f005 fab6 	bl	27056 <_start+0x6f2e>
   21aea:	46c0      	nop			@ (mov r8, r8)
   21aec:	00000568 	.word	0x00000568
   21af0:	000005cc 	.word	0x000005cc
   21af4:	adba      	add	r5, sp, #744	@ 0x2e8
   21af6:	4628      	mov	r0, r5
   21af8:	300c      	adds	r0, #12
   21afa:	a9ff      	add	r1, sp, #1020	@ 0x3fc
   21afc:	31f8      	adds	r1, #248	@ 0xf8
   21afe:	2203      	movs	r2, #3
   21b00:	f005 fcef 	bl	274e2 <__aeabi_memcpy>
   21b04:	a8e4      	add	r0, sp, #912	@ 0x390
   21b06:	a9a3      	add	r1, sp, #652	@ 0x28c
   21b08:	460a      	mov	r2, r1
   21b0a:	c818      	ldmia	r0!, {r3, r4}
   21b0c:	c218      	stmia	r2!, {r3, r4}
   21b0e:	7800      	ldrb	r0, [r0, #0]
   21b10:	7010      	strb	r0, [r2, #0]
   21b12:	4628      	mov	r0, r5
   21b14:	3013      	adds	r0, #19
   21b16:	2209      	movs	r2, #9
   21b18:	920d      	str	r2, [sp, #52]	@ 0x34
   21b1a:	f005 fce2 	bl	274e2 <__aeabi_memcpy>
   21b1e:	9913      	ldr	r1, [sp, #76]	@ 0x4c
   21b20:	0e08      	lsrs	r0, r1, #24
   21b22:	74a8      	strb	r0, [r5, #18]
   21b24:	0c08      	lsrs	r0, r1, #16
   21b26:	7468      	strb	r0, [r5, #17]
   21b28:	0a08      	lsrs	r0, r1, #8
   21b2a:	7428      	strb	r0, [r5, #16]
   21b2c:	73e9      	strb	r1, [r5, #15]
   21b2e:	9e12      	ldr	r6, [sp, #72]	@ 0x48
   21b30:	722e      	strb	r6, [r5, #8]
   21b32:	4c0b      	ldr	r4, [pc, #44]	@ (21b60 <_start+0x1a38>)
   21b34:	446c      	add	r4, sp
   21b36:	4620      	mov	r0, r4
   21b38:	300c      	adds	r0, #12
   21b3a:	2136      	movs	r1, #54	@ 0x36
   21b3c:	900e      	str	r0, [sp, #56]	@ 0x38
   21b3e:	f005 fb23 	bl	27188 <__aeabi_memclr4>
   21b42:	7226      	strb	r6, [r4, #8]
   21b44:	2601      	movs	r6, #1
   21b46:	9600      	str	r6, [sp, #0]
   21b48:	4c06      	ldr	r4, [pc, #24]	@ (21b64 <_start+0x1a3c>)
   21b4a:	341e      	adds	r4, #30
   21b4c:	2110      	movs	r1, #16
   21b4e:	2204      	movs	r2, #4
   21b50:	4628      	mov	r0, r5
   21b52:	4623      	mov	r3, r4
   21b54:	f7fe fac6 	bl	200e4 <_ZN9allow_pin12full_dynamic15Buffer$LT$B$GT$5allow17h6d4ce413c213cdffE>
   21b58:	9113      	str	r1, [sp, #76]	@ 0x4c
   21b5a:	07c0      	lsls	r0, r0, #31
   21b5c:	d122      	bne.n	21ba4 <_start+0x1a7c>
   21b5e:	e003      	b.n	21b68 <_start+0x1a40>
   21b60:	000005cc 	.word	0x000005cc
   21b64:	0000196b 	.word	0x0000196b
   21b68:	9807      	ldr	r0, [sp, #28]
   21b6a:	9000      	str	r0, [sp, #0]
   21b6c:	4805      	ldr	r0, [pc, #20]	@ (21b84 <_start+0x1a5c>)
   21b6e:	4468      	add	r0, sp
   21b70:	2136      	movs	r1, #54	@ 0x36
   21b72:	2203      	movs	r2, #3
   21b74:	4623      	mov	r3, r4
   21b76:	f7fe fab5 	bl	200e4 <_ZN9allow_pin12full_dynamic15Buffer$LT$B$GT$5allow17h6d4ce413c213cdffE>
   21b7a:	9113      	str	r1, [sp, #76]	@ 0x4c
   21b7c:	07c0      	lsls	r0, r0, #31
   21b7e:	d111      	bne.n	21ba4 <_start+0x1a7c>
   21b80:	e002      	b.n	21b88 <_start+0x1a60>
   21b82:	46c0      	nop			@ (mov r8, r8)
   21b84:	000005cc 	.word	0x000005cc
   21b88:	4805      	ldr	r0, [pc, #20]	@ (21ba0 <_start+0x1a78>)
   21b8a:	2101      	movs	r1, #1
   21b8c:	2207      	movs	r2, #7
   21b8e:	2300      	movs	r3, #0
   21b90:	461c      	mov	r4, r3
   21b92:	df02      	svc	2
   21b94:	9113      	str	r1, [sp, #76]	@ 0x4c
   21b96:	287f      	cmp	r0, #127	@ 0x7f
   21b98:	d904      	bls.n	21ba4 <_start+0x1a7c>
   21b9a:	f001 fcba 	bl	23512 <_start+0x33ea>
   21b9e:	46c0      	nop			@ (mov r8, r8)
   21ba0:	00001989 	.word	0x00001989
   21ba4:	9c11      	ldr	r4, [sp, #68]	@ 0x44
   21ba6:	4805      	ldr	r0, [pc, #20]	@ (21bbc <_start+0x1a94>)
   21ba8:	4468      	add	r0, sp
   21baa:	f005 fad9 	bl	27160 <_ZN9allow_pin12full_dynamic17unshare_if_shared17hc38d0bd70fd52db9E>
   21bae:	a8ba      	add	r0, sp, #744	@ 0x2e8
   21bb0:	f005 fad6 	bl	27160 <_ZN9allow_pin12full_dynamic17unshare_if_shared17hc38d0bd70fd52db9E>
   21bb4:	2c00      	cmp	r4, #0
   21bb6:	d003      	beq.n	21bc0 <_start+0x1a98>
   21bb8:	f005 fa4d 	bl	27056 <_start+0x6f2e>
   21bbc:	000005cc 	.word	0x000005cc
   21bc0:	4c1c      	ldr	r4, [pc, #112]	@ (21c34 <_start+0x1b0c>)
   21bc2:	446c      	add	r4, sp
   21bc4:	4620      	mov	r0, r4
   21bc6:	300c      	adds	r0, #12
   21bc8:	a9e4      	add	r1, sp, #912	@ 0x390
   21bca:	2203      	movs	r2, #3
   21bcc:	920e      	str	r2, [sp, #56]	@ 0x38
   21bce:	f005 fc88 	bl	274e2 <__aeabi_memcpy>
   21bd2:	4819      	ldr	r0, [pc, #100]	@ (21c38 <_start+0x1b10>)
   21bd4:	4468      	add	r0, sp
   21bd6:	900c      	str	r0, [sp, #48]	@ 0x30
   21bd8:	a9a3      	add	r1, sp, #652	@ 0x28c
   21bda:	252f      	movs	r5, #47	@ 0x2f
   21bdc:	462a      	mov	r2, r5
   21bde:	f005 fc80 	bl	274e2 <__aeabi_memcpy>
   21be2:	4620      	mov	r0, r4
   21be4:	3013      	adds	r0, #19
   21be6:	990c      	ldr	r1, [sp, #48]	@ 0x30
   21be8:	462a      	mov	r2, r5
   21bea:	f005 fc7a 	bl	274e2 <__aeabi_memcpy>
   21bee:	9913      	ldr	r1, [sp, #76]	@ 0x4c
   21bf0:	0e08      	lsrs	r0, r1, #24
   21bf2:	74a0      	strb	r0, [r4, #18]
   21bf4:	0c08      	lsrs	r0, r1, #16
   21bf6:	7460      	strb	r0, [r4, #17]
   21bf8:	0a08      	lsrs	r0, r1, #8
   21bfa:	7420      	strb	r0, [r4, #16]
   21bfc:	73e1      	strb	r1, [r4, #15]
   21bfe:	9812      	ldr	r0, [sp, #72]	@ 0x48
   21c00:	7220      	strb	r0, [r4, #8]
   21c02:	4d0d      	ldr	r5, [pc, #52]	@ (21c38 <_start+0x1b10>)
   21c04:	446d      	add	r5, sp
   21c06:	4628      	mov	r0, r5
   21c08:	300c      	adds	r0, #12
   21c0a:	210f      	movs	r1, #15
   21c0c:	900c      	str	r0, [sp, #48]	@ 0x30
   21c0e:	f005 fabb 	bl	27188 <__aeabi_memclr4>
   21c12:	9812      	ldr	r0, [sp, #72]	@ 0x48
   21c14:	7228      	strb	r0, [r5, #8]
   21c16:	2005      	movs	r0, #5
   21c18:	9003      	str	r0, [sp, #12]
   21c1a:	9000      	str	r0, [sp, #0]
   21c1c:	4d07      	ldr	r5, [pc, #28]	@ (21c3c <_start+0x1b14>)
   21c1e:	35f5      	adds	r5, #245	@ 0xf5
   21c20:	2136      	movs	r1, #54	@ 0x36
   21c22:	2204      	movs	r2, #4
   21c24:	4620      	mov	r0, r4
   21c26:	462b      	mov	r3, r5
   21c28:	f7fe fa5c 	bl	200e4 <_ZN9allow_pin12full_dynamic15Buffer$LT$B$GT$5allow17h6d4ce413c213cdffE>
   21c2c:	9113      	str	r1, [sp, #76]	@ 0x4c
   21c2e:	07c0      	lsls	r0, r0, #31
   21c30:	d122      	bne.n	21c78 <_start+0x1b50>
   21c32:	e005      	b.n	21c40 <_start+0x1b18>
   21c34:	000005cc 	.word	0x000005cc
   21c38:	00000568 	.word	0x00000568
   21c3c:	0000055e 	.word	0x0000055e
   21c40:	9a0e      	ldr	r2, [sp, #56]	@ 0x38
   21c42:	9200      	str	r2, [sp, #0]
   21c44:	4804      	ldr	r0, [pc, #16]	@ (21c58 <_start+0x1b30>)
   21c46:	4468      	add	r0, sp
   21c48:	210f      	movs	r1, #15
   21c4a:	462b      	mov	r3, r5
   21c4c:	f7fe fa4a 	bl	200e4 <_ZN9allow_pin12full_dynamic15Buffer$LT$B$GT$5allow17h6d4ce413c213cdffE>
   21c50:	9113      	str	r1, [sp, #76]	@ 0x4c
   21c52:	07c0      	lsls	r0, r0, #31
   21c54:	d110      	bne.n	21c78 <_start+0x1b50>
   21c56:	e001      	b.n	21c5c <_start+0x1b34>
   21c58:	00000568 	.word	0x00000568
   21c5c:	4805      	ldr	r0, [pc, #20]	@ (21c74 <_start+0x1b4c>)
   21c5e:	2105      	movs	r1, #5
   21c60:	2203      	movs	r2, #3
   21c62:	2300      	movs	r3, #0
   21c64:	461c      	mov	r4, r3
   21c66:	df02      	svc	2
   21c68:	9113      	str	r1, [sp, #76]	@ 0x4c
   21c6a:	287f      	cmp	r0, #127	@ 0x7f
   21c6c:	d904      	bls.n	21c78 <_start+0x1b50>
   21c6e:	f001 fc7f 	bl	23570 <_start+0x3448>
   21c72:	46c0      	nop			@ (mov r8, r8)
   21c74:	00000653 	.word	0x00000653
   21c78:	9c11      	ldr	r4, [sp, #68]	@ 0x44
   21c7a:	4806      	ldr	r0, [pc, #24]	@ (21c94 <_start+0x1b6c>)
   21c7c:	4468      	add	r0, sp
   21c7e:	f005 fa6f 	bl	27160 <_ZN9allow_pin12full_dynamic17unshare_if_shared17hc38d0bd70fd52db9E>
   21c82:	4805      	ldr	r0, [pc, #20]	@ (21c98 <_start+0x1b70>)
   21c84:	4468      	add	r0, sp
   21c86:	f005 fa6b 	bl	27160 <_ZN9allow_pin12full_dynamic17unshare_if_shared17hc38d0bd70fd52db9E>
   21c8a:	2c00      	cmp	r4, #0
   21c8c:	d006      	beq.n	21c9c <_start+0x1b74>
   21c8e:	f005 f9e2 	bl	27056 <_start+0x6f2e>
   21c92:	46c0      	nop			@ (mov r8, r8)
   21c94:	00000568 	.word	0x00000568
   21c98:	000005cc 	.word	0x000005cc
   21c9c:	9d09      	ldr	r5, [sp, #36]	@ 0x24
   21c9e:	350f      	adds	r5, #15
   21ca0:	4c1b      	ldr	r4, [pc, #108]	@ (21d10 <_start+0x1be8>)
   21ca2:	446c      	add	r4, sp
   21ca4:	4620      	mov	r0, r4
   21ca6:	300c      	adds	r0, #12
   21ca8:	a9a3      	add	r1, sp, #652	@ 0x28c
   21caa:	9a0e      	ldr	r2, [sp, #56]	@ 0x38
   21cac:	f005 fc19 	bl	274e2 <__aeabi_memcpy>
   21cb0:	9812      	ldr	r0, [sp, #72]	@ 0x48
   21cb2:	7220      	strb	r0, [r4, #8]
   21cb4:	9908      	ldr	r1, [sp, #32]
   21cb6:	0e08      	lsrs	r0, r1, #24
   21cb8:	72e8      	strb	r0, [r5, #11]
   21cba:	0c08      	lsrs	r0, r1, #16
   21cbc:	72a8      	strb	r0, [r5, #10]
   21cbe:	0a08      	lsrs	r0, r1, #8
   21cc0:	7268      	strb	r0, [r5, #9]
   21cc2:	7229      	strb	r1, [r5, #8]
   21cc4:	990c      	ldr	r1, [sp, #48]	@ 0x30
   21cc6:	0e08      	lsrs	r0, r1, #24
   21cc8:	71e8      	strb	r0, [r5, #7]
   21cca:	0c08      	lsrs	r0, r1, #16
   21ccc:	71a8      	strb	r0, [r5, #6]
   21cce:	0a08      	lsrs	r0, r1, #8
   21cd0:	7168      	strb	r0, [r5, #5]
   21cd2:	7129      	strb	r1, [r5, #4]
   21cd4:	9913      	ldr	r1, [sp, #76]	@ 0x4c
   21cd6:	0e08      	lsrs	r0, r1, #24
   21cd8:	70e8      	strb	r0, [r5, #3]
   21cda:	0c08      	lsrs	r0, r1, #16
   21cdc:	70a8      	strb	r0, [r5, #2]
   21cde:	0a08      	lsrs	r0, r1, #8
   21ce0:	7068      	strb	r0, [r5, #1]
   21ce2:	7029      	strb	r1, [r5, #0]
   21ce4:	4d0b      	ldr	r5, [pc, #44]	@ (21d14 <_start+0x1bec>)
   21ce6:	446d      	add	r5, sp
   21ce8:	4628      	mov	r0, r5
   21cea:	300c      	adds	r0, #12
   21cec:	2113      	movs	r1, #19
   21cee:	900c      	str	r0, [sp, #48]	@ 0x30
   21cf0:	f005 fa4a 	bl	27188 <__aeabi_memclr4>
   21cf4:	9812      	ldr	r0, [sp, #72]	@ 0x48
   21cf6:	7228      	strb	r0, [r5, #8]
   21cf8:	980e      	ldr	r0, [sp, #56]	@ 0x38
   21cfa:	9000      	str	r0, [sp, #0]
   21cfc:	210f      	movs	r1, #15
   21cfe:	2204      	movs	r2, #4
   21d00:	4620      	mov	r0, r4
   21d02:	4b05      	ldr	r3, [pc, #20]	@ (21d18 <_start+0x1bf0>)
   21d04:	f7fe f9ee 	bl	200e4 <_ZN9allow_pin12full_dynamic15Buffer$LT$B$GT$5allow17h6d4ce413c213cdffE>
   21d08:	9113      	str	r1, [sp, #76]	@ 0x4c
   21d0a:	07c0      	lsls	r0, r0, #31
   21d0c:	d126      	bne.n	21d5c <_start+0x1c34>
   21d0e:	e005      	b.n	21d1c <_start+0x1bf4>
   21d10:	00000568 	.word	0x00000568
   21d14:	000005cc 	.word	0x000005cc
   21d18:	00001e4b 	.word	0x00001e4b
   21d1c:	9806      	ldr	r0, [sp, #24]
   21d1e:	9000      	str	r0, [sp, #0]
   21d20:	4805      	ldr	r0, [pc, #20]	@ (21d38 <_start+0x1c10>)
   21d22:	4468      	add	r0, sp
   21d24:	2113      	movs	r1, #19
   21d26:	2203      	movs	r2, #3
   21d28:	4b04      	ldr	r3, [pc, #16]	@ (21d3c <_start+0x1c14>)
   21d2a:	f7fe f9db 	bl	200e4 <_ZN9allow_pin12full_dynamic15Buffer$LT$B$GT$5allow17h6d4ce413c213cdffE>
   21d2e:	9113      	str	r1, [sp, #76]	@ 0x4c
   21d30:	07c0      	lsls	r0, r0, #31
   21d32:	d113      	bne.n	21d5c <_start+0x1c34>
   21d34:	e004      	b.n	21d40 <_start+0x1c18>
   21d36:	46c0      	nop			@ (mov r8, r8)
   21d38:	000005cc 	.word	0x000005cc
   21d3c:	00001e4b 	.word	0x00001e4b
   21d40:	4805      	ldr	r0, [pc, #20]	@ (21d58 <_start+0x1c30>)
   21d42:	2103      	movs	r1, #3
   21d44:	2400      	movs	r4, #0
   21d46:	4622      	mov	r2, r4
   21d48:	4623      	mov	r3, r4
   21d4a:	df02      	svc	2
   21d4c:	9113      	str	r1, [sp, #76]	@ 0x4c
   21d4e:	287f      	cmp	r0, #127	@ 0x7f
   21d50:	d904      	bls.n	21d5c <_start+0x1c34>
   21d52:	f001 fc47 	bl	235e4 <_start+0x34bc>
   21d56:	46c0      	nop			@ (mov r8, r8)
   21d58:	00001e4b 	.word	0x00001e4b
   21d5c:	9c11      	ldr	r4, [sp, #68]	@ 0x44
   21d5e:	4806      	ldr	r0, [pc, #24]	@ (21d78 <_start+0x1c50>)
   21d60:	4468      	add	r0, sp
   21d62:	f005 f9fd 	bl	27160 <_ZN9allow_pin12full_dynamic17unshare_if_shared17hc38d0bd70fd52db9E>
   21d66:	4805      	ldr	r0, [pc, #20]	@ (21d7c <_start+0x1c54>)
   21d68:	4468      	add	r0, sp
   21d6a:	f005 f9f9 	bl	27160 <_ZN9allow_pin12full_dynamic17unshare_if_shared17hc38d0bd70fd52db9E>
   21d6e:	2c00      	cmp	r4, #0
   21d70:	d006      	beq.n	21d80 <_start+0x1c58>
   21d72:	f005 f970 	bl	27056 <_start+0x6f2e>
   21d76:	46c0      	nop			@ (mov r8, r8)
   21d78:	000005cc 	.word	0x000005cc
   21d7c:	00000568 	.word	0x00000568
   21d80:	acba      	add	r4, sp, #744	@ 0x2e8
   21d82:	4620      	mov	r0, r4
   21d84:	300c      	adds	r0, #12
   21d86:	a9e4      	add	r1, sp, #912	@ 0x390
   21d88:	2203      	movs	r2, #3
   21d8a:	f005 fbaa 	bl	274e2 <__aeabi_memcpy>
   21d8e:	a9a3      	add	r1, sp, #652	@ 0x28c
   21d90:	aa33      	add	r2, sp, #204	@ 0xcc
   21d92:	920e      	str	r2, [sp, #56]	@ 0x38
   21d94:	c929      	ldmia	r1!, {r0, r3, r5}
   21d96:	c229      	stmia	r2!, {r0, r3, r5}
   21d98:	9913      	ldr	r1, [sp, #76]	@ 0x4c
   21d9a:	0e08      	lsrs	r0, r1, #24
   21d9c:	74a0      	strb	r0, [r4, #18]
   21d9e:	0c08      	lsrs	r0, r1, #16
   21da0:	7460      	strb	r0, [r4, #17]
   21da2:	0a08      	lsrs	r0, r1, #8
   21da4:	7420      	strb	r0, [r4, #16]
   21da6:	73e1      	strb	r1, [r4, #15]
   21da8:	9812      	ldr	r0, [sp, #72]	@ 0x48
   21daa:	7220      	strb	r0, [r4, #8]
   21dac:	4620      	mov	r0, r4
   21dae:	3013      	adds	r0, #19
   21db0:	220c      	movs	r2, #12
   21db2:	990e      	ldr	r1, [sp, #56]	@ 0x38
   21db4:	f005 fb95 	bl	274e2 <__aeabi_memcpy>
   21db8:	4d0a      	ldr	r5, [pc, #40]	@ (21de4 <_start+0x1cbc>)
   21dba:	446d      	add	r5, sp
   21dbc:	4628      	mov	r0, r5
   21dbe:	300c      	adds	r0, #12
   21dc0:	2155      	movs	r1, #85	@ 0x55
   21dc2:	900e      	str	r0, [sp, #56]	@ 0x38
   21dc4:	f005 f9e0 	bl	27188 <__aeabi_memclr4>
   21dc8:	9812      	ldr	r0, [sp, #72]	@ 0x48
   21dca:	7228      	strb	r0, [r5, #8]
   21dcc:	980d      	ldr	r0, [sp, #52]	@ 0x34
   21dce:	9000      	str	r0, [sp, #0]
   21dd0:	2113      	movs	r1, #19
   21dd2:	2204      	movs	r2, #4
   21dd4:	4620      	mov	r0, r4
   21dd6:	4b04      	ldr	r3, [pc, #16]	@ (21de8 <_start+0x1cc0>)
   21dd8:	f7fe f984 	bl	200e4 <_ZN9allow_pin12full_dynamic15Buffer$LT$B$GT$5allow17h6d4ce413c213cdffE>
   21ddc:	9113      	str	r1, [sp, #76]	@ 0x4c
   21dde:	07c0      	lsls	r0, r0, #31
   21de0:	d124      	bne.n	21e2c <_start+0x1d04>
   21de2:	e003      	b.n	21dec <_start+0x1cc4>
   21de4:	000005cc 	.word	0x000005cc
   21de8:	0000032e 	.word	0x0000032e
   21dec:	9807      	ldr	r0, [sp, #28]
   21dee:	9000      	str	r0, [sp, #0]
   21df0:	4805      	ldr	r0, [pc, #20]	@ (21e08 <_start+0x1ce0>)
   21df2:	4468      	add	r0, sp
   21df4:	2155      	movs	r1, #85	@ 0x55
   21df6:	2203      	movs	r2, #3
   21df8:	4b04      	ldr	r3, [pc, #16]	@ (21e0c <_start+0x1ce4>)
   21dfa:	f7fe f973 	bl	200e4 <_ZN9allow_pin12full_dynamic15Buffer$LT$B$GT$5allow17h6d4ce413c213cdffE>
   21dfe:	9113      	str	r1, [sp, #76]	@ 0x4c
   21e00:	07c0      	lsls	r0, r0, #31
   21e02:	d113      	bne.n	21e2c <_start+0x1d04>
   21e04:	e004      	b.n	21e10 <_start+0x1ce8>
   21e06:	46c0      	nop			@ (mov r8, r8)
   21e08:	000005cc 	.word	0x000005cc
   21e0c:	0000032e 	.word	0x0000032e
   21e10:	4805      	ldr	r0, [pc, #20]	@ (21e28 <_start+0x1d00>)
   21e12:	2109      	movs	r1, #9
   21e14:	2207      	movs	r2, #7
   21e16:	2300      	movs	r3, #0
   21e18:	461d      	mov	r5, r3
   21e1a:	df02      	svc	2
   21e1c:	9113      	str	r1, [sp, #76]	@ 0x4c
   21e1e:	287f      	cmp	r0, #127	@ 0x7f
   21e20:	d904      	bls.n	21e2c <_start+0x1d04>
   21e22:	f001 fc0d 	bl	23640 <_start+0x3518>
   21e26:	46c0      	nop			@ (mov r8, r8)
   21e28:	0000032e 	.word	0x0000032e
   21e2c:	9d11      	ldr	r5, [sp, #68]	@ 0x44
   21e2e:	4805      	ldr	r0, [pc, #20]	@ (21e44 <_start+0x1d1c>)
   21e30:	4468      	add	r0, sp
   21e32:	f005 f995 	bl	27160 <_ZN9allow_pin12full_dynamic17unshare_if_shared17hc38d0bd70fd52db9E>
   21e36:	a8ba      	add	r0, sp, #744	@ 0x2e8
   21e38:	f005 f992 	bl	27160 <_ZN9allow_pin12full_dynamic17unshare_if_shared17hc38d0bd70fd52db9E>
   21e3c:	2d00      	cmp	r5, #0
   21e3e:	d003      	beq.n	21e48 <_start+0x1d20>
   21e40:	f005 f909 	bl	27056 <_start+0x6f2e>
   21e44:	000005cc 	.word	0x000005cc
   21e48:	4d1b      	ldr	r5, [pc, #108]	@ (21eb8 <_start+0x1d90>)
   21e4a:	446d      	add	r5, sp
   21e4c:	4628      	mov	r0, r5
   21e4e:	300c      	adds	r0, #12
   21e50:	a9e4      	add	r1, sp, #912	@ 0x390
   21e52:	2203      	movs	r2, #3
   21e54:	f005 fb45 	bl	274e2 <__aeabi_memcpy>
   21e58:	4818      	ldr	r0, [pc, #96]	@ (21ebc <_start+0x1d94>)
   21e5a:	4468      	add	r0, sp
   21e5c:	900e      	str	r0, [sp, #56]	@ 0x38
   21e5e:	a9a3      	add	r1, sp, #652	@ 0x28c
   21e60:	244e      	movs	r4, #78	@ 0x4e
   21e62:	4622      	mov	r2, r4
   21e64:	f005 f9dd 	bl	27222 <__aeabi_memcpy4>
   21e68:	4628      	mov	r0, r5
   21e6a:	3013      	adds	r0, #19
   21e6c:	990e      	ldr	r1, [sp, #56]	@ 0x38
   21e6e:	4622      	mov	r2, r4
   21e70:	f005 fb37 	bl	274e2 <__aeabi_memcpy>
   21e74:	9913      	ldr	r1, [sp, #76]	@ 0x4c
   21e76:	0e08      	lsrs	r0, r1, #24
   21e78:	74a8      	strb	r0, [r5, #18]
   21e7a:	0c08      	lsrs	r0, r1, #16
   21e7c:	7468      	strb	r0, [r5, #17]
   21e7e:	0a08      	lsrs	r0, r1, #8
   21e80:	7428      	strb	r0, [r5, #16]
   21e82:	73e9      	strb	r1, [r5, #15]
   21e84:	9812      	ldr	r0, [sp, #72]	@ 0x48
   21e86:	7228      	strb	r0, [r5, #8]
   21e88:	4c0c      	ldr	r4, [pc, #48]	@ (21ebc <_start+0x1d94>)
   21e8a:	446c      	add	r4, sp
   21e8c:	4620      	mov	r0, r4
   21e8e:	300c      	adds	r0, #12
   21e90:	2132      	movs	r1, #50	@ 0x32
   21e92:	900e      	str	r0, [sp, #56]	@ 0x38
   21e94:	f005 f978 	bl	27188 <__aeabi_memclr4>
   21e98:	9812      	ldr	r0, [sp, #72]	@ 0x48
   21e9a:	7220      	strb	r0, [r4, #8]
   21e9c:	9810      	ldr	r0, [sp, #64]	@ 0x40
   21e9e:	9000      	str	r0, [sp, #0]
   21ea0:	4c07      	ldr	r4, [pc, #28]	@ (21ec0 <_start+0x1d98>)
   21ea2:	348f      	adds	r4, #143	@ 0x8f
   21ea4:	2155      	movs	r1, #85	@ 0x55
   21ea6:	2204      	movs	r2, #4
   21ea8:	4628      	mov	r0, r5
   21eaa:	4623      	mov	r3, r4
   21eac:	f7fe f91a 	bl	200e4 <_ZN9allow_pin12full_dynamic15Buffer$LT$B$GT$5allow17h6d4ce413c213cdffE>
   21eb0:	9113      	str	r1, [sp, #76]	@ 0x4c
   21eb2:	07c0      	lsls	r0, r0, #31
   21eb4:	d124      	bne.n	21f00 <_start+0x1dd8>
   21eb6:	e005      	b.n	21ec4 <_start+0x1d9c>
   21eb8:	000005cc 	.word	0x000005cc
   21ebc:	00000568 	.word	0x00000568
   21ec0:	00002006 	.word	0x00002006
   21ec4:	9810      	ldr	r0, [sp, #64]	@ 0x40
   21ec6:	9000      	str	r0, [sp, #0]
   21ec8:	4805      	ldr	r0, [pc, #20]	@ (21ee0 <_start+0x1db8>)
   21eca:	4468      	add	r0, sp
   21ecc:	2132      	movs	r1, #50	@ 0x32
   21ece:	2203      	movs	r2, #3
   21ed0:	4623      	mov	r3, r4
   21ed2:	f7fe f907 	bl	200e4 <_ZN9allow_pin12full_dynamic15Buffer$LT$B$GT$5allow17h6d4ce413c213cdffE>
   21ed6:	9113      	str	r1, [sp, #76]	@ 0x4c
   21ed8:	07c0      	lsls	r0, r0, #31
   21eda:	d111      	bne.n	21f00 <_start+0x1dd8>
   21edc:	e002      	b.n	21ee4 <_start+0x1dbc>
   21ede:	46c0      	nop			@ (mov r8, r8)
   21ee0:	00000568 	.word	0x00000568
   21ee4:	4805      	ldr	r0, [pc, #20]	@ (21efc <_start+0x1dd4>)
   21ee6:	2108      	movs	r1, #8
   21ee8:	2300      	movs	r3, #0
   21eea:	460a      	mov	r2, r1
   21eec:	461c      	mov	r4, r3
   21eee:	df02      	svc	2
   21ef0:	9113      	str	r1, [sp, #76]	@ 0x4c
   21ef2:	287f      	cmp	r0, #127	@ 0x7f
   21ef4:	d904      	bls.n	21f00 <_start+0x1dd8>
   21ef6:	f001 fbd2 	bl	2369e <_start+0x3576>
   21efa:	46c0      	nop			@ (mov r8, r8)
   21efc:	00002095 	.word	0x00002095
   21f00:	9c11      	ldr	r4, [sp, #68]	@ 0x44
   21f02:	4806      	ldr	r0, [pc, #24]	@ (21f1c <_start+0x1df4>)
   21f04:	4468      	add	r0, sp
   21f06:	f005 f92b 	bl	27160 <_ZN9allow_pin12full_dynamic17unshare_if_shared17hc38d0bd70fd52db9E>
   21f0a:	4805      	ldr	r0, [pc, #20]	@ (21f20 <_start+0x1df8>)
   21f0c:	4468      	add	r0, sp
   21f0e:	f005 f927 	bl	27160 <_ZN9allow_pin12full_dynamic17unshare_if_shared17hc38d0bd70fd52db9E>
   21f12:	2c00      	cmp	r4, #0
   21f14:	d006      	beq.n	21f24 <_start+0x1dfc>
   21f16:	f005 f89e 	bl	27056 <_start+0x6f2e>
   21f1a:	46c0      	nop			@ (mov r8, r8)
   21f1c:	00000568 	.word	0x00000568
   21f20:	000005cc 	.word	0x000005cc
   21f24:	4c1a      	ldr	r4, [pc, #104]	@ (21f90 <_start+0x1e68>)
   21f26:	446c      	add	r4, sp
   21f28:	4620      	mov	r0, r4
   21f2a:	300c      	adds	r0, #12
   21f2c:	a9e4      	add	r1, sp, #912	@ 0x390
   21f2e:	2203      	movs	r2, #3
   21f30:	f005 fad7 	bl	274e2 <__aeabi_memcpy>
   21f34:	a8a3      	add	r0, sp, #652	@ 0x28c
   21f36:	900e      	str	r0, [sp, #56]	@ 0x38
   21f38:	a9ba      	add	r1, sp, #744	@ 0x2e8
   21f3a:	252b      	movs	r5, #43	@ 0x2b
   21f3c:	462a      	mov	r2, r5
   21f3e:	f005 fad0 	bl	274e2 <__aeabi_memcpy>
   21f42:	4620      	mov	r0, r4
   21f44:	3013      	adds	r0, #19
   21f46:	990e      	ldr	r1, [sp, #56]	@ 0x38
   21f48:	462a      	mov	r2, r5
   21f4a:	f005 faca 	bl	274e2 <__aeabi_memcpy>
   21f4e:	9913      	ldr	r1, [sp, #76]	@ 0x4c
   21f50:	0e08      	lsrs	r0, r1, #24
   21f52:	74a0      	strb	r0, [r4, #18]
   21f54:	0c08      	lsrs	r0, r1, #16
   21f56:	7460      	strb	r0, [r4, #17]
   21f58:	0a08      	lsrs	r0, r1, #8
   21f5a:	7420      	strb	r0, [r4, #16]
   21f5c:	73e1      	strb	r1, [r4, #15]
   21f5e:	9812      	ldr	r0, [sp, #72]	@ 0x48
   21f60:	7220      	strb	r0, [r4, #8]
   21f62:	4d0c      	ldr	r5, [pc, #48]	@ (21f94 <_start+0x1e6c>)
   21f64:	446d      	add	r5, sp
   21f66:	4628      	mov	r0, r5
   21f68:	300c      	adds	r0, #12
   21f6a:	2141      	movs	r1, #65	@ 0x41
   21f6c:	900e      	str	r0, [sp, #56]	@ 0x38
   21f6e:	f005 f90b 	bl	27188 <__aeabi_memclr4>
   21f72:	9812      	ldr	r0, [sp, #72]	@ 0x48
   21f74:	7228      	strb	r0, [r5, #8]
   21f76:	9807      	ldr	r0, [sp, #28]
   21f78:	9000      	str	r0, [sp, #0]
   21f7a:	2132      	movs	r1, #50	@ 0x32
   21f7c:	2204      	movs	r2, #4
   21f7e:	4620      	mov	r0, r4
   21f80:	4b05      	ldr	r3, [pc, #20]	@ (21f98 <_start+0x1e70>)
   21f82:	f7fe f8af 	bl	200e4 <_ZN9allow_pin12full_dynamic15Buffer$LT$B$GT$5allow17h6d4ce413c213cdffE>
   21f86:	9113      	str	r1, [sp, #76]	@ 0x4c
   21f88:	07c0      	lsls	r0, r0, #31
   21f8a:	d127      	bne.n	21fdc <_start+0x1eb4>
   21f8c:	e006      	b.n	21f9c <_start+0x1e74>
   21f8e:	46c0      	nop			@ (mov r8, r8)
   21f90:	00000568 	.word	0x00000568
   21f94:	000005cc 	.word	0x000005cc
   21f98:	0000091d 	.word	0x0000091d
   21f9c:	9803      	ldr	r0, [sp, #12]
   21f9e:	9000      	str	r0, [sp, #0]
   21fa0:	4805      	ldr	r0, [pc, #20]	@ (21fb8 <_start+0x1e90>)
   21fa2:	4468      	add	r0, sp
   21fa4:	2141      	movs	r1, #65	@ 0x41
   21fa6:	2203      	movs	r2, #3
   21fa8:	4b04      	ldr	r3, [pc, #16]	@ (21fbc <_start+0x1e94>)
   21faa:	f7fe f89b 	bl	200e4 <_ZN9allow_pin12full_dynamic15Buffer$LT$B$GT$5allow17h6d4ce413c213cdffE>
   21fae:	9113      	str	r1, [sp, #76]	@ 0x4c
   21fb0:	07c0      	lsls	r0, r0, #31
   21fb2:	d113      	bne.n	21fdc <_start+0x1eb4>
   21fb4:	e004      	b.n	21fc0 <_start+0x1e98>
   21fb6:	46c0      	nop			@ (mov r8, r8)
   21fb8:	000005cc 	.word	0x000005cc
   21fbc:	0000091d 	.word	0x0000091d
   21fc0:	4805      	ldr	r0, [pc, #20]	@ (21fd8 <_start+0x1eb0>)
   21fc2:	2107      	movs	r1, #7
   21fc4:	2205      	movs	r2, #5
   21fc6:	2300      	movs	r3, #0
   21fc8:	461d      	mov	r5, r3
   21fca:	df02      	svc	2
   21fcc:	9113      	str	r1, [sp, #76]	@ 0x4c
   21fce:	287f      	cmp	r0, #127	@ 0x7f
   21fd0:	d904      	bls.n	21fdc <_start+0x1eb4>
   21fd2:	f001 fb94 	bl	236fe <_start+0x35d6>
   21fd6:	46c0      	nop			@ (mov r8, r8)
   21fd8:	0000091d 	.word	0x0000091d
   21fdc:	9d11      	ldr	r5, [sp, #68]	@ 0x44
   21fde:	4806      	ldr	r0, [pc, #24]	@ (21ff8 <_start+0x1ed0>)
   21fe0:	4468      	add	r0, sp
   21fe2:	f005 f8bd 	bl	27160 <_ZN9allow_pin12full_dynamic17unshare_if_shared17hc38d0bd70fd52db9E>
   21fe6:	4805      	ldr	r0, [pc, #20]	@ (21ffc <_start+0x1ed4>)
   21fe8:	4468      	add	r0, sp
   21fea:	f005 f8b9 	bl	27160 <_ZN9allow_pin12full_dynamic17unshare_if_shared17hc38d0bd70fd52db9E>
   21fee:	2d00      	cmp	r5, #0
   21ff0:	d006      	beq.n	22000 <_start+0x1ed8>
   21ff2:	f005 f830 	bl	27056 <_start+0x6f2e>
   21ff6:	46c0      	nop			@ (mov r8, r8)
   21ff8:	000005cc 	.word	0x000005cc
   21ffc:	00000568 	.word	0x00000568
   22000:	4d1a      	ldr	r5, [pc, #104]	@ (2206c <_start+0x1f44>)
   22002:	446d      	add	r5, sp
   22004:	4628      	mov	r0, r5
   22006:	300c      	adds	r0, #12
   22008:	a9e4      	add	r1, sp, #912	@ 0x390
   2200a:	2203      	movs	r2, #3
   2200c:	f005 fa69 	bl	274e2 <__aeabi_memcpy>
   22010:	a8a3      	add	r0, sp, #652	@ 0x28c
   22012:	900e      	str	r0, [sp, #56]	@ 0x38
   22014:	a9ba      	add	r1, sp, #744	@ 0x2e8
   22016:	243a      	movs	r4, #58	@ 0x3a
   22018:	4622      	mov	r2, r4
   2201a:	f005 fa62 	bl	274e2 <__aeabi_memcpy>
   2201e:	4628      	mov	r0, r5
   22020:	3013      	adds	r0, #19
   22022:	990e      	ldr	r1, [sp, #56]	@ 0x38
   22024:	4622      	mov	r2, r4
   22026:	f005 fa5c 	bl	274e2 <__aeabi_memcpy>
   2202a:	9913      	ldr	r1, [sp, #76]	@ 0x4c
   2202c:	0e08      	lsrs	r0, r1, #24
   2202e:	74a8      	strb	r0, [r5, #18]
   22030:	0c08      	lsrs	r0, r1, #16
   22032:	7468      	strb	r0, [r5, #17]
   22034:	0a08      	lsrs	r0, r1, #8
   22036:	7428      	strb	r0, [r5, #16]
   22038:	73e9      	strb	r1, [r5, #15]
   2203a:	9812      	ldr	r0, [sp, #72]	@ 0x48
   2203c:	7228      	strb	r0, [r5, #8]
   2203e:	4c0c      	ldr	r4, [pc, #48]	@ (22070 <_start+0x1f48>)
   22040:	446c      	add	r4, sp
   22042:	4620      	mov	r0, r4
   22044:	300c      	adds	r0, #12
   22046:	2122      	movs	r1, #34	@ 0x22
   22048:	900e      	str	r0, [sp, #56]	@ 0x38
   2204a:	f005 f89d 	bl	27188 <__aeabi_memclr4>
   2204e:	9812      	ldr	r0, [sp, #72]	@ 0x48
   22050:	7220      	strb	r0, [r4, #8]
   22052:	9600      	str	r6, [sp, #0]
   22054:	4c07      	ldr	r4, [pc, #28]	@ (22074 <_start+0x1f4c>)
   22056:	34ad      	adds	r4, #173	@ 0xad
   22058:	2141      	movs	r1, #65	@ 0x41
   2205a:	2204      	movs	r2, #4
   2205c:	4628      	mov	r0, r5
   2205e:	4623      	mov	r3, r4
   22060:	f7fe f840 	bl	200e4 <_ZN9allow_pin12full_dynamic15Buffer$LT$B$GT$5allow17h6d4ce413c213cdffE>
   22064:	9113      	str	r1, [sp, #76]	@ 0x4c
   22066:	07c0      	lsls	r0, r0, #31
   22068:	d124      	bne.n	220b4 <_start+0x1f8c>
   2206a:	e005      	b.n	22078 <_start+0x1f50>
   2206c:	000005cc 	.word	0x000005cc
   22070:	00000568 	.word	0x00000568
   22074:	000023cf 	.word	0x000023cf
   22078:	9806      	ldr	r0, [sp, #24]
   2207a:	9000      	str	r0, [sp, #0]
   2207c:	4805      	ldr	r0, [pc, #20]	@ (22094 <_start+0x1f6c>)
   2207e:	4468      	add	r0, sp
   22080:	2122      	movs	r1, #34	@ 0x22
   22082:	2203      	movs	r2, #3
   22084:	4623      	mov	r3, r4
   22086:	f7fe f82d 	bl	200e4 <_ZN9allow_pin12full_dynamic15Buffer$LT$B$GT$5allow17h6d4ce413c213cdffE>
   2208a:	9113      	str	r1, [sp, #76]	@ 0x4c
   2208c:	07c0      	lsls	r0, r0, #31
   2208e:	d111      	bne.n	220b4 <_start+0x1f8c>
   22090:	e002      	b.n	22098 <_start+0x1f70>
   22092:	46c0      	nop			@ (mov r8, r8)
   22094:	00000568 	.word	0x00000568
   22098:	4805      	ldr	r0, [pc, #20]	@ (220b0 <_start+0x1f88>)
   2209a:	2101      	movs	r1, #1
   2209c:	2500      	movs	r5, #0
   2209e:	462a      	mov	r2, r5
   220a0:	462b      	mov	r3, r5
   220a2:	df02      	svc	2
   220a4:	9113      	str	r1, [sp, #76]	@ 0x4c
   220a6:	287f      	cmp	r0, #127	@ 0x7f
   220a8:	d904      	bls.n	220b4 <_start+0x1f8c>
   220aa:	f001 fb58 	bl	2375e <_start+0x3636>
   220ae:	46c0      	nop			@ (mov r8, r8)
   220b0:	0000247c 	.word	0x0000247c
   220b4:	9d11      	ldr	r5, [sp, #68]	@ 0x44
   220b6:	4806      	ldr	r0, [pc, #24]	@ (220d0 <_start+0x1fa8>)
   220b8:	4468      	add	r0, sp
   220ba:	f005 f851 	bl	27160 <_ZN9allow_pin12full_dynamic17unshare_if_shared17hc38d0bd70fd52db9E>
   220be:	4805      	ldr	r0, [pc, #20]	@ (220d4 <_start+0x1fac>)
   220c0:	4468      	add	r0, sp
   220c2:	f005 f84d 	bl	27160 <_ZN9allow_pin12full_dynamic17unshare_if_shared17hc38d0bd70fd52db9E>
   220c6:	2d00      	cmp	r5, #0
   220c8:	d006      	beq.n	220d8 <_start+0x1fb0>
   220ca:	f004 ffc4 	bl	27056 <_start+0x6f2e>
   220ce:	46c0      	nop			@ (mov r8, r8)
   220d0:	00000568 	.word	0x00000568
   220d4:	000005cc 	.word	0x000005cc
   220d8:	acba      	add	r4, sp, #744	@ 0x2e8
   220da:	4620      	mov	r0, r4
   220dc:	300c      	adds	r0, #12
   220de:	a9ff      	add	r1, sp, #1020	@ 0x3fc
   220e0:	31f8      	adds	r1, #248	@ 0xf8
   220e2:	2203      	movs	r2, #3
   220e4:	f005 f9fd 	bl	274e2 <__aeabi_memcpy>
   220e8:	a8a3      	add	r0, sp, #652	@ 0x28c
   220ea:	900e      	str	r0, [sp, #56]	@ 0x38
   220ec:	a9e4      	add	r1, sp, #912	@ 0x390
   220ee:	251b      	movs	r5, #27
   220f0:	462a      	mov	r2, r5
   220f2:	f005 f9f6 	bl	274e2 <__aeabi_memcpy>
   220f6:	4620      	mov	r0, r4
   220f8:	3013      	adds	r0, #19
   220fa:	990e      	ldr	r1, [sp, #56]	@ 0x38
   220fc:	462a      	mov	r2, r5
   220fe:	f005 f9f0 	bl	274e2 <__aeabi_memcpy>
   22102:	9913      	ldr	r1, [sp, #76]	@ 0x4c
   22104:	0e08      	lsrs	r0, r1, #24
   22106:	74a0      	strb	r0, [r4, #18]
   22108:	0c08      	lsrs	r0, r1, #16
   2210a:	7460      	strb	r0, [r4, #17]
   2210c:	0a08      	lsrs	r0, r1, #8
   2210e:	7420      	strb	r0, [r4, #16]
   22110:	73e1      	strb	r1, [r4, #15]
   22112:	9812      	ldr	r0, [sp, #72]	@ 0x48
   22114:	7220      	strb	r0, [r4, #8]
   22116:	4d0b      	ldr	r5, [pc, #44]	@ (22144 <_start+0x201c>)
   22118:	446d      	add	r5, sp
   2211a:	4628      	mov	r0, r5
   2211c:	300c      	adds	r0, #12
   2211e:	2151      	movs	r1, #81	@ 0x51
   22120:	900e      	str	r0, [sp, #56]	@ 0x38
   22122:	f005 f831 	bl	27188 <__aeabi_memclr4>
   22126:	9812      	ldr	r0, [sp, #72]	@ 0x48
   22128:	7228      	strb	r0, [r5, #8]
   2212a:	980d      	ldr	r0, [sp, #52]	@ 0x34
   2212c:	9000      	str	r0, [sp, #0]
   2212e:	2122      	movs	r1, #34	@ 0x22
   22130:	2204      	movs	r2, #4
   22132:	4620      	mov	r0, r4
   22134:	4b04      	ldr	r3, [pc, #16]	@ (22148 <_start+0x2020>)
   22136:	f7fd ffd5 	bl	200e4 <_ZN9allow_pin12full_dynamic15Buffer$LT$B$GT$5allow17h6d4ce413c213cdffE>
   2213a:	9113      	str	r1, [sp, #76]	@ 0x4c
   2213c:	07c0      	lsls	r0, r0, #31
   2213e:	d125      	bne.n	2218c <_start+0x2064>
   22140:	e004      	b.n	2214c <_start+0x2024>
   22142:	46c0      	nop			@ (mov r8, r8)
   22144:	000005cc 	.word	0x000005cc
   22148:	0000055e 	.word	0x0000055e
   2214c:	980d      	ldr	r0, [sp, #52]	@ 0x34
   2214e:	9000      	str	r0, [sp, #0]
   22150:	4805      	ldr	r0, [pc, #20]	@ (22168 <_start+0x2040>)
   22152:	4468      	add	r0, sp
   22154:	2151      	movs	r1, #81	@ 0x51
   22156:	2203      	movs	r2, #3
   22158:	4b04      	ldr	r3, [pc, #16]	@ (2216c <_start+0x2044>)
   2215a:	f7fd ffc3 	bl	200e4 <_ZN9allow_pin12full_dynamic15Buffer$LT$B$GT$5allow17h6d4ce413c213cdffE>
   2215e:	9113      	str	r1, [sp, #76]	@ 0x4c
   22160:	07c0      	lsls	r0, r0, #31
   22162:	d113      	bne.n	2218c <_start+0x2064>
   22164:	e004      	b.n	22170 <_start+0x2048>
   22166:	46c0      	nop			@ (mov r8, r8)
   22168:	000005cc 	.word	0x000005cc
   2216c:	0000055e 	.word	0x0000055e
   22170:	4805      	ldr	r0, [pc, #20]	@ (22188 <_start+0x2060>)
   22172:	2109      	movs	r1, #9
   22174:	2300      	movs	r3, #0
   22176:	460a      	mov	r2, r1
   22178:	461d      	mov	r5, r3
   2217a:	df02      	svc	2
   2217c:	9113      	str	r1, [sp, #76]	@ 0x4c
   2217e:	287f      	cmp	r0, #127	@ 0x7f
   22180:	d904      	bls.n	2218c <_start+0x2064>
   22182:	f001 fb1b 	bl	237bc <_start+0x3694>
   22186:	46c0      	nop			@ (mov r8, r8)
   22188:	0000055e 	.word	0x0000055e
   2218c:	9d11      	ldr	r5, [sp, #68]	@ 0x44
   2218e:	4805      	ldr	r0, [pc, #20]	@ (221a4 <_start+0x207c>)
   22190:	4468      	add	r0, sp
   22192:	f004 ffe5 	bl	27160 <_ZN9allow_pin12full_dynamic17unshare_if_shared17hc38d0bd70fd52db9E>
   22196:	a8ba      	add	r0, sp, #744	@ 0x2e8
   22198:	f004 ffe2 	bl	27160 <_ZN9allow_pin12full_dynamic17unshare_if_shared17hc38d0bd70fd52db9E>
   2219c:	2d00      	cmp	r5, #0
   2219e:	d003      	beq.n	221a8 <_start+0x2080>
   221a0:	f004 ff59 	bl	27056 <_start+0x6f2e>
   221a4:	000005cc 	.word	0x000005cc
   221a8:	4d1b      	ldr	r5, [pc, #108]	@ (22218 <_start+0x20f0>)
   221aa:	446d      	add	r5, sp
   221ac:	4628      	mov	r0, r5
   221ae:	300c      	adds	r0, #12
   221b0:	a9e4      	add	r1, sp, #912	@ 0x390
   221b2:	2203      	movs	r2, #3
   221b4:	f005 f995 	bl	274e2 <__aeabi_memcpy>
   221b8:	4818      	ldr	r0, [pc, #96]	@ (2221c <_start+0x20f4>)
   221ba:	4468      	add	r0, sp
   221bc:	900e      	str	r0, [sp, #56]	@ 0x38
   221be:	a9a3      	add	r1, sp, #652	@ 0x28c
   221c0:	244a      	movs	r4, #74	@ 0x4a
   221c2:	4622      	mov	r2, r4
   221c4:	f005 f82d 	bl	27222 <__aeabi_memcpy4>
   221c8:	4628      	mov	r0, r5
   221ca:	3013      	adds	r0, #19
   221cc:	990e      	ldr	r1, [sp, #56]	@ 0x38
   221ce:	4622      	mov	r2, r4
   221d0:	f005 f987 	bl	274e2 <__aeabi_memcpy>
   221d4:	9913      	ldr	r1, [sp, #76]	@ 0x4c
   221d6:	0e08      	lsrs	r0, r1, #24
   221d8:	74a8      	strb	r0, [r5, #18]
   221da:	0c08      	lsrs	r0, r1, #16
   221dc:	7468      	strb	r0, [r5, #17]
   221de:	0a08      	lsrs	r0, r1, #8
   221e0:	7428      	strb	r0, [r5, #16]
   221e2:	73e9      	strb	r1, [r5, #15]
   221e4:	9c12      	ldr	r4, [sp, #72]	@ 0x48
   221e6:	722c      	strb	r4, [r5, #8]
   221e8:	480c      	ldr	r0, [pc, #48]	@ (2221c <_start+0x20f4>)
   221ea:	4468      	add	r0, sp
   221ec:	9013      	str	r0, [sp, #76]	@ 0x4c
   221ee:	300c      	adds	r0, #12
   221f0:	214f      	movs	r1, #79	@ 0x4f
   221f2:	900e      	str	r0, [sp, #56]	@ 0x38
   221f4:	f004 ffc8 	bl	27188 <__aeabi_memclr4>
   221f8:	9813      	ldr	r0, [sp, #76]	@ 0x4c
   221fa:	7204      	strb	r4, [r0, #8]
   221fc:	9400      	str	r4, [sp, #0]
   221fe:	4c08      	ldr	r4, [pc, #32]	@ (22220 <_start+0x20f8>)
   22200:	34b9      	adds	r4, #185	@ 0xb9
   22202:	2151      	movs	r1, #81	@ 0x51
   22204:	2204      	movs	r2, #4
   22206:	4628      	mov	r0, r5
   22208:	4615      	mov	r5, r2
   2220a:	4623      	mov	r3, r4
   2220c:	f7fd ff6a 	bl	200e4 <_ZN9allow_pin12full_dynamic15Buffer$LT$B$GT$5allow17h6d4ce413c213cdffE>
   22210:	9113      	str	r1, [sp, #76]	@ 0x4c
   22212:	07c0      	lsls	r0, r0, #31
   22214:	d122      	bne.n	2225c <_start+0x2134>
   22216:	e005      	b.n	22224 <_start+0x20fc>
   22218:	000005cc 	.word	0x000005cc
   2221c:	00000568 	.word	0x00000568
   22220:	00000d5d 	.word	0x00000d5d
   22224:	9500      	str	r5, [sp, #0]
   22226:	4805      	ldr	r0, [pc, #20]	@ (2223c <_start+0x2114>)
   22228:	4468      	add	r0, sp
   2222a:	214f      	movs	r1, #79	@ 0x4f
   2222c:	2203      	movs	r2, #3
   2222e:	4623      	mov	r3, r4
   22230:	f7fd ff58 	bl	200e4 <_ZN9allow_pin12full_dynamic15Buffer$LT$B$GT$5allow17h6d4ce413c213cdffE>
   22234:	9113      	str	r1, [sp, #76]	@ 0x4c
   22236:	07c0      	lsls	r0, r0, #31
   22238:	d110      	bne.n	2225c <_start+0x2134>
   2223a:	e001      	b.n	22240 <_start+0x2118>
   2223c:	00000568 	.word	0x00000568
   22240:	4805      	ldr	r0, [pc, #20]	@ (22258 <_start+0x2130>)
   22242:	2102      	movs	r1, #2
   22244:	2204      	movs	r2, #4
   22246:	2300      	movs	r3, #0
   22248:	461c      	mov	r4, r3
   2224a:	df02      	svc	2
   2224c:	9113      	str	r1, [sp, #76]	@ 0x4c
   2224e:	287f      	cmp	r0, #127	@ 0x7f
   22250:	d904      	bls.n	2225c <_start+0x2134>
   22252:	f001 fae9 	bl	23828 <_start+0x3700>
   22256:	46c0      	nop			@ (mov r8, r8)
   22258:	00000e16 	.word	0x00000e16
   2225c:	9c11      	ldr	r4, [sp, #68]	@ 0x44
   2225e:	4806      	ldr	r0, [pc, #24]	@ (22278 <_start+0x2150>)
   22260:	4468      	add	r0, sp
   22262:	f004 ff7d 	bl	27160 <_ZN9allow_pin12full_dynamic17unshare_if_shared17hc38d0bd70fd52db9E>
   22266:	4805      	ldr	r0, [pc, #20]	@ (2227c <_start+0x2154>)
   22268:	4468      	add	r0, sp
   2226a:	f004 ff79 	bl	27160 <_ZN9allow_pin12full_dynamic17unshare_if_shared17hc38d0bd70fd52db9E>
   2226e:	2c00      	cmp	r4, #0
   22270:	d006      	beq.n	22280 <_start+0x2158>
   22272:	f004 fef0 	bl	27056 <_start+0x6f2e>
   22276:	46c0      	nop			@ (mov r8, r8)
   22278:	00000568 	.word	0x00000568
   2227c:	000005cc 	.word	0x000005cc
   22280:	4d1b      	ldr	r5, [pc, #108]	@ (222f0 <_start+0x21c8>)
   22282:	446d      	add	r5, sp
   22284:	4628      	mov	r0, r5
   22286:	300c      	adds	r0, #12
   22288:	a9ba      	add	r1, sp, #744	@ 0x2e8
   2228a:	2203      	movs	r2, #3
   2228c:	f005 f929 	bl	274e2 <__aeabi_memcpy>
   22290:	a836      	add	r0, sp, #216	@ 0xd8
   22292:	900e      	str	r0, [sp, #56]	@ 0x38
   22294:	a9a3      	add	r1, sp, #652	@ 0x28c
   22296:	2448      	movs	r4, #72	@ 0x48
   22298:	4622      	mov	r2, r4
   2229a:	f004 ffc2 	bl	27222 <__aeabi_memcpy4>
   2229e:	9913      	ldr	r1, [sp, #76]	@ 0x4c
   222a0:	0e08      	lsrs	r0, r1, #24
   222a2:	74a8      	strb	r0, [r5, #18]
   222a4:	0c08      	lsrs	r0, r1, #16
   222a6:	7468      	strb	r0, [r5, #17]
   222a8:	0a08      	lsrs	r0, r1, #8
   222aa:	7428      	strb	r0, [r5, #16]
   222ac:	73e9      	strb	r1, [r5, #15]
   222ae:	9812      	ldr	r0, [sp, #72]	@ 0x48
   222b0:	7228      	strb	r0, [r5, #8]
   222b2:	4628      	mov	r0, r5
   222b4:	3013      	adds	r0, #19
   222b6:	990e      	ldr	r1, [sp, #56]	@ 0x38
   222b8:	4622      	mov	r2, r4
   222ba:	f005 f912 	bl	274e2 <__aeabi_memcpy>
   222be:	4c0d      	ldr	r4, [pc, #52]	@ (222f4 <_start+0x21cc>)
   222c0:	446c      	add	r4, sp
   222c2:	4620      	mov	r0, r4
   222c4:	300c      	adds	r0, #12
   222c6:	213b      	movs	r1, #59	@ 0x3b
   222c8:	900e      	str	r0, [sp, #56]	@ 0x38
   222ca:	f004 ff5d 	bl	27188 <__aeabi_memclr4>
   222ce:	9812      	ldr	r0, [sp, #72]	@ 0x48
   222d0:	7220      	strb	r0, [r4, #8]
   222d2:	9810      	ldr	r0, [sp, #64]	@ 0x40
   222d4:	9000      	str	r0, [sp, #0]
   222d6:	4c08      	ldr	r4, [pc, #32]	@ (222f8 <_start+0x21d0>)
   222d8:	34e9      	adds	r4, #233	@ 0xe9
   222da:	214f      	movs	r1, #79	@ 0x4f
   222dc:	2204      	movs	r2, #4
   222de:	4628      	mov	r0, r5
   222e0:	4623      	mov	r3, r4
   222e2:	f7fd feff 	bl	200e4 <_ZN9allow_pin12full_dynamic15Buffer$LT$B$GT$5allow17h6d4ce413c213cdffE>
   222e6:	9113      	str	r1, [sp, #76]	@ 0x4c
   222e8:	07c0      	lsls	r0, r0, #31
   222ea:	d125      	bne.n	22338 <_start+0x2210>
   222ec:	e006      	b.n	222fc <_start+0x21d4>
   222ee:	46c0      	nop			@ (mov r8, r8)
   222f0:	000005cc 	.word	0x000005cc
   222f4:	00000568 	.word	0x00000568
   222f8:	0000091d 	.word	0x0000091d
   222fc:	9803      	ldr	r0, [sp, #12]
   222fe:	9000      	str	r0, [sp, #0]
   22300:	4805      	ldr	r0, [pc, #20]	@ (22318 <_start+0x21f0>)
   22302:	4468      	add	r0, sp
   22304:	213b      	movs	r1, #59	@ 0x3b
   22306:	2203      	movs	r2, #3
   22308:	4623      	mov	r3, r4
   2230a:	f7fd feeb 	bl	200e4 <_ZN9allow_pin12full_dynamic15Buffer$LT$B$GT$5allow17h6d4ce413c213cdffE>
   2230e:	9113      	str	r1, [sp, #76]	@ 0x4c
   22310:	07c0      	lsls	r0, r0, #31
   22312:	d111      	bne.n	22338 <_start+0x2210>
   22314:	e002      	b.n	2231c <_start+0x21f4>
   22316:	46c0      	nop			@ (mov r8, r8)
   22318:	00000568 	.word	0x00000568
   2231c:	4805      	ldr	r0, [pc, #20]	@ (22334 <_start+0x220c>)
   2231e:	2108      	movs	r1, #8
   22320:	2205      	movs	r2, #5
   22322:	2300      	movs	r3, #0
   22324:	461c      	mov	r4, r3
   22326:	df02      	svc	2
   22328:	9113      	str	r1, [sp, #76]	@ 0x4c
   2232a:	287f      	cmp	r0, #127	@ 0x7f
   2232c:	d904      	bls.n	22338 <_start+0x2210>
   2232e:	f001 faab 	bl	23888 <_start+0x3760>
   22332:	46c0      	nop			@ (mov r8, r8)
   22334:	00000a06 	.word	0x00000a06
   22338:	9c11      	ldr	r4, [sp, #68]	@ 0x44
   2233a:	4806      	ldr	r0, [pc, #24]	@ (22354 <_start+0x222c>)
   2233c:	4468      	add	r0, sp
   2233e:	f004 ff0f 	bl	27160 <_ZN9allow_pin12full_dynamic17unshare_if_shared17hc38d0bd70fd52db9E>
   22342:	4805      	ldr	r0, [pc, #20]	@ (22358 <_start+0x2230>)
   22344:	4468      	add	r0, sp
   22346:	f004 ff0b 	bl	27160 <_ZN9allow_pin12full_dynamic17unshare_if_shared17hc38d0bd70fd52db9E>
   2234a:	2c00      	cmp	r4, #0
   2234c:	d006      	beq.n	2235c <_start+0x2234>
   2234e:	f004 fe82 	bl	27056 <_start+0x6f2e>
   22352:	46c0      	nop			@ (mov r8, r8)
   22354:	00000568 	.word	0x00000568
   22358:	000005cc 	.word	0x000005cc
   2235c:	4d1b      	ldr	r5, [pc, #108]	@ (223cc <_start+0x22a4>)
   2235e:	446d      	add	r5, sp
   22360:	4628      	mov	r0, r5
   22362:	300c      	adds	r0, #12
   22364:	a9ba      	add	r1, sp, #744	@ 0x2e8
   22366:	2203      	movs	r2, #3
   22368:	920c      	str	r2, [sp, #48]	@ 0x30
   2236a:	f005 f8ba 	bl	274e2 <__aeabi_memcpy>
   2236e:	a848      	add	r0, sp, #288	@ 0x120
   22370:	900e      	str	r0, [sp, #56]	@ 0x38
   22372:	a9a3      	add	r1, sp, #652	@ 0x28c
   22374:	2434      	movs	r4, #52	@ 0x34
   22376:	4622      	mov	r2, r4
   22378:	f005 f8b3 	bl	274e2 <__aeabi_memcpy>
   2237c:	9913      	ldr	r1, [sp, #76]	@ 0x4c
   2237e:	0e08      	lsrs	r0, r1, #24
   22380:	74a8      	strb	r0, [r5, #18]
   22382:	0c08      	lsrs	r0, r1, #16
   22384:	7468      	strb	r0, [r5, #17]
   22386:	0a08      	lsrs	r0, r1, #8
   22388:	7428      	strb	r0, [r5, #16]
   2238a:	73e9      	strb	r1, [r5, #15]
   2238c:	9812      	ldr	r0, [sp, #72]	@ 0x48
   2238e:	7228      	strb	r0, [r5, #8]
   22390:	4628      	mov	r0, r5
   22392:	3013      	adds	r0, #19
   22394:	990e      	ldr	r1, [sp, #56]	@ 0x38
   22396:	4622      	mov	r2, r4
   22398:	f005 f8a3 	bl	274e2 <__aeabi_memcpy>
   2239c:	4c0c      	ldr	r4, [pc, #48]	@ (223d0 <_start+0x22a8>)
   2239e:	446c      	add	r4, sp
   223a0:	4620      	mov	r0, r4
   223a2:	300c      	adds	r0, #12
   223a4:	2127      	movs	r1, #39	@ 0x27
   223a6:	900e      	str	r0, [sp, #56]	@ 0x38
   223a8:	f004 feee 	bl	27188 <__aeabi_memclr4>
   223ac:	9812      	ldr	r0, [sp, #72]	@ 0x48
   223ae:	7220      	strb	r0, [r4, #8]
   223b0:	9803      	ldr	r0, [sp, #12]
   223b2:	9000      	str	r0, [sp, #0]
   223b4:	4c07      	ldr	r4, [pc, #28]	@ (223d4 <_start+0x22ac>)
   223b6:	3497      	adds	r4, #151	@ 0x97
   223b8:	213b      	movs	r1, #59	@ 0x3b
   223ba:	2204      	movs	r2, #4
   223bc:	4628      	mov	r0, r5
   223be:	4623      	mov	r3, r4
   223c0:	f7fd fe90 	bl	200e4 <_ZN9allow_pin12full_dynamic15Buffer$LT$B$GT$5allow17h6d4ce413c213cdffE>
   223c4:	9113      	str	r1, [sp, #76]	@ 0x4c
   223c6:	07c0      	lsls	r0, r0, #31
   223c8:	d122      	bne.n	22410 <_start+0x22e8>
   223ca:	e005      	b.n	223d8 <_start+0x22b0>
   223cc:	000005cc 	.word	0x000005cc
   223d0:	00000568 	.word	0x00000568
   223d4:	00000b3c 	.word	0x00000b3c
   223d8:	9a0c      	ldr	r2, [sp, #48]	@ 0x30
   223da:	9200      	str	r2, [sp, #0]
   223dc:	4804      	ldr	r0, [pc, #16]	@ (223f0 <_start+0x22c8>)
   223de:	4468      	add	r0, sp
   223e0:	2127      	movs	r1, #39	@ 0x27
   223e2:	4623      	mov	r3, r4
   223e4:	f7fd fe7e 	bl	200e4 <_ZN9allow_pin12full_dynamic15Buffer$LT$B$GT$5allow17h6d4ce413c213cdffE>
   223e8:	9113      	str	r1, [sp, #76]	@ 0x4c
   223ea:	07c0      	lsls	r0, r0, #31
   223ec:	d110      	bne.n	22410 <_start+0x22e8>
   223ee:	e001      	b.n	223f4 <_start+0x22cc>
   223f0:	00000568 	.word	0x00000568
   223f4:	4805      	ldr	r0, [pc, #20]	@ (2240c <_start+0x22e4>)
   223f6:	2105      	movs	r1, #5
   223f8:	2203      	movs	r2, #3
   223fa:	2300      	movs	r3, #0
   223fc:	461c      	mov	r4, r3
   223fe:	df02      	svc	2
   22400:	9113      	str	r1, [sp, #76]	@ 0x4c
   22402:	287f      	cmp	r0, #127	@ 0x7f
   22404:	d904      	bls.n	22410 <_start+0x22e8>
   22406:	f001 fa6f 	bl	238e8 <_start+0x37c0>
   2240a:	46c0      	nop			@ (mov r8, r8)
   2240c:	00000bd3 	.word	0x00000bd3
   22410:	9c11      	ldr	r4, [sp, #68]	@ 0x44
   22412:	4806      	ldr	r0, [pc, #24]	@ (2242c <_start+0x2304>)
   22414:	4468      	add	r0, sp
   22416:	f004 fea3 	bl	27160 <_ZN9allow_pin12full_dynamic17unshare_if_shared17hc38d0bd70fd52db9E>
   2241a:	4805      	ldr	r0, [pc, #20]	@ (22430 <_start+0x2308>)
   2241c:	4468      	add	r0, sp
   2241e:	f004 fe9f 	bl	27160 <_ZN9allow_pin12full_dynamic17unshare_if_shared17hc38d0bd70fd52db9E>
   22422:	2c00      	cmp	r4, #0
   22424:	d006      	beq.n	22434 <_start+0x230c>
   22426:	f004 fe16 	bl	27056 <_start+0x6f2e>
   2242a:	46c0      	nop			@ (mov r8, r8)
   2242c:	00000568 	.word	0x00000568
   22430:	000005cc 	.word	0x000005cc
   22434:	4c1a      	ldr	r4, [pc, #104]	@ (224a0 <_start+0x2378>)
   22436:	446c      	add	r4, sp
   22438:	4620      	mov	r0, r4
   2243a:	300c      	adds	r0, #12
   2243c:	a9ba      	add	r1, sp, #744	@ 0x2e8
   2243e:	2203      	movs	r2, #3
   22440:	f005 f84f 	bl	274e2 <__aeabi_memcpy>
   22444:	a855      	add	r0, sp, #340	@ 0x154
   22446:	900e      	str	r0, [sp, #56]	@ 0x38
   22448:	a9a3      	add	r1, sp, #652	@ 0x28c
   2244a:	2520      	movs	r5, #32
   2244c:	462a      	mov	r2, r5
   2244e:	f005 f848 	bl	274e2 <__aeabi_memcpy>
   22452:	9913      	ldr	r1, [sp, #76]	@ 0x4c
   22454:	0e08      	lsrs	r0, r1, #24
   22456:	74a0      	strb	r0, [r4, #18]
   22458:	0c08      	lsrs	r0, r1, #16
   2245a:	7460      	strb	r0, [r4, #17]
   2245c:	0a08      	lsrs	r0, r1, #8
   2245e:	7420      	strb	r0, [r4, #16]
   22460:	73e1      	strb	r1, [r4, #15]
   22462:	9812      	ldr	r0, [sp, #72]	@ 0x48
   22464:	7220      	strb	r0, [r4, #8]
   22466:	4620      	mov	r0, r4
   22468:	3013      	adds	r0, #19
   2246a:	990e      	ldr	r1, [sp, #56]	@ 0x38
   2246c:	462a      	mov	r2, r5
   2246e:	f005 f838 	bl	274e2 <__aeabi_memcpy>
   22472:	4d0c      	ldr	r5, [pc, #48]	@ (224a4 <_start+0x237c>)
   22474:	446d      	add	r5, sp
   22476:	4628      	mov	r0, r5
   22478:	300c      	adds	r0, #12
   2247a:	2114      	movs	r1, #20
   2247c:	900e      	str	r0, [sp, #56]	@ 0x38
   2247e:	f004 fe83 	bl	27188 <__aeabi_memclr4>
   22482:	9812      	ldr	r0, [sp, #72]	@ 0x48
   22484:	7228      	strb	r0, [r5, #8]
   22486:	9804      	ldr	r0, [sp, #16]
   22488:	9000      	str	r0, [sp, #0]
   2248a:	2127      	movs	r1, #39	@ 0x27
   2248c:	2204      	movs	r2, #4
   2248e:	4620      	mov	r0, r4
   22490:	4b05      	ldr	r3, [pc, #20]	@ (224a8 <_start+0x2380>)
   22492:	f7fd fe27 	bl	200e4 <_ZN9allow_pin12full_dynamic15Buffer$LT$B$GT$5allow17h6d4ce413c213cdffE>
   22496:	9113      	str	r1, [sp, #76]	@ 0x4c
   22498:	07c0      	lsls	r0, r0, #31
   2249a:	d127      	bne.n	224ec <_start+0x23c4>
   2249c:	e006      	b.n	224ac <_start+0x2384>
   2249e:	46c0      	nop			@ (mov r8, r8)
   224a0:	000005cc 	.word	0x000005cc
   224a4:	00000568 	.word	0x00000568
   224a8:	000022c9 	.word	0x000022c9
   224ac:	9803      	ldr	r0, [sp, #12]
   224ae:	9000      	str	r0, [sp, #0]
   224b0:	4805      	ldr	r0, [pc, #20]	@ (224c8 <_start+0x23a0>)
   224b2:	4468      	add	r0, sp
   224b4:	2114      	movs	r1, #20
   224b6:	2203      	movs	r2, #3
   224b8:	4b04      	ldr	r3, [pc, #16]	@ (224cc <_start+0x23a4>)
   224ba:	f7fd fe13 	bl	200e4 <_ZN9allow_pin12full_dynamic15Buffer$LT$B$GT$5allow17h6d4ce413c213cdffE>
   224be:	9113      	str	r1, [sp, #76]	@ 0x4c
   224c0:	07c0      	lsls	r0, r0, #31
   224c2:	d113      	bne.n	224ec <_start+0x23c4>
   224c4:	e004      	b.n	224d0 <_start+0x23a8>
   224c6:	46c0      	nop			@ (mov r8, r8)
   224c8:	00000568 	.word	0x00000568
   224cc:	000022c9 	.word	0x000022c9
   224d0:	4805      	ldr	r0, [pc, #20]	@ (224e8 <_start+0x23c0>)
   224d2:	2106      	movs	r1, #6
   224d4:	2205      	movs	r2, #5
   224d6:	2300      	movs	r3, #0
   224d8:	461d      	mov	r5, r3
   224da:	df02      	svc	2
   224dc:	9113      	str	r1, [sp, #76]	@ 0x4c
   224de:	287f      	cmp	r0, #127	@ 0x7f
   224e0:	d904      	bls.n	224ec <_start+0x23c4>
   224e2:	f001 fa31 	bl	23948 <_start+0x3820>
   224e6:	46c0      	nop			@ (mov r8, r8)
   224e8:	000022c9 	.word	0x000022c9
   224ec:	9d11      	ldr	r5, [sp, #68]	@ 0x44
   224ee:	4806      	ldr	r0, [pc, #24]	@ (22508 <_start+0x23e0>)
   224f0:	4468      	add	r0, sp
   224f2:	f004 fe35 	bl	27160 <_ZN9allow_pin12full_dynamic17unshare_if_shared17hc38d0bd70fd52db9E>
   224f6:	4805      	ldr	r0, [pc, #20]	@ (2250c <_start+0x23e4>)
   224f8:	4468      	add	r0, sp
   224fa:	f004 fe31 	bl	27160 <_ZN9allow_pin12full_dynamic17unshare_if_shared17hc38d0bd70fd52db9E>
   224fe:	2d00      	cmp	r5, #0
   22500:	d006      	beq.n	22510 <_start+0x23e8>
   22502:	f004 fda8 	bl	27056 <_start+0x6f2e>
   22506:	46c0      	nop			@ (mov r8, r8)
   22508:	00000568 	.word	0x00000568
   2250c:	000005cc 	.word	0x000005cc
   22510:	a8a3      	add	r0, sp, #652	@ 0x28c
   22512:	900e      	str	r0, [sp, #56]	@ 0x38
   22514:	300c      	adds	r0, #12
   22516:	a9ff      	add	r1, sp, #1020	@ 0x3fc
   22518:	31f8      	adds	r1, #248	@ 0xf8
   2251a:	2203      	movs	r2, #3
   2251c:	f004 ffe1 	bl	274e2 <__aeabi_memcpy>
   22520:	a8e4      	add	r0, sp, #912	@ 0x390
   22522:	a9ba      	add	r1, sp, #744	@ 0x2e8
   22524:	460a      	mov	r2, r1
   22526:	c838      	ldmia	r0!, {r3, r4, r5}
   22528:	c238      	stmia	r2!, {r3, r4, r5}
   2252a:	7800      	ldrb	r0, [r0, #0]
   2252c:	7010      	strb	r0, [r2, #0]
   2252e:	9c0e      	ldr	r4, [sp, #56]	@ 0x38
   22530:	4620      	mov	r0, r4
   22532:	3013      	adds	r0, #19
   22534:	220d      	movs	r2, #13
   22536:	f004 ffd4 	bl	274e2 <__aeabi_memcpy>
   2253a:	9913      	ldr	r1, [sp, #76]	@ 0x4c
   2253c:	0e08      	lsrs	r0, r1, #24
   2253e:	74a0      	strb	r0, [r4, #18]
   22540:	0c08      	lsrs	r0, r1, #16
   22542:	7460      	strb	r0, [r4, #17]
   22544:	0a08      	lsrs	r0, r1, #8
   22546:	7420      	strb	r0, [r4, #16]
   22548:	73e1      	strb	r1, [r4, #15]
   2254a:	9d12      	ldr	r5, [sp, #72]	@ 0x48
   2254c:	7225      	strb	r5, [r4, #8]
   2254e:	4c0c      	ldr	r4, [pc, #48]	@ (22580 <_start+0x2458>)
   22550:	446c      	add	r4, sp
   22552:	4620      	mov	r0, r4
   22554:	300c      	adds	r0, #12
   22556:	212b      	movs	r1, #43	@ 0x2b
   22558:	900c      	str	r0, [sp, #48]	@ 0x30
   2255a:	f004 fe15 	bl	27188 <__aeabi_memclr4>
   2255e:	7225      	strb	r5, [r4, #8]
   22560:	9810      	ldr	r0, [sp, #64]	@ 0x40
   22562:	9000      	str	r0, [sp, #0]
   22564:	4b07      	ldr	r3, [pc, #28]	@ (22584 <_start+0x245c>)
   22566:	33d6      	adds	r3, #214	@ 0xd6
   22568:	2114      	movs	r1, #20
   2256a:	2404      	movs	r4, #4
   2256c:	980e      	ldr	r0, [sp, #56]	@ 0x38
   2256e:	4622      	mov	r2, r4
   22570:	461d      	mov	r5, r3
   22572:	f7fd fdb7 	bl	200e4 <_ZN9allow_pin12full_dynamic15Buffer$LT$B$GT$5allow17h6d4ce413c213cdffE>
   22576:	9113      	str	r1, [sp, #76]	@ 0x4c
   22578:	07c0      	lsls	r0, r0, #31
   2257a:	d121      	bne.n	225c0 <_start+0x2498>
   2257c:	e004      	b.n	22588 <_start+0x2460>
   2257e:	46c0      	nop			@ (mov r8, r8)
   22580:	000005cc 	.word	0x000005cc
   22584:	000022c9 	.word	0x000022c9
   22588:	9400      	str	r4, [sp, #0]
   2258a:	4805      	ldr	r0, [pc, #20]	@ (225a0 <_start+0x2478>)
   2258c:	4468      	add	r0, sp
   2258e:	212b      	movs	r1, #43	@ 0x2b
   22590:	2203      	movs	r2, #3
   22592:	462b      	mov	r3, r5
   22594:	f7fd fda6 	bl	200e4 <_ZN9allow_pin12full_dynamic15Buffer$LT$B$GT$5allow17h6d4ce413c213cdffE>
   22598:	9113      	str	r1, [sp, #76]	@ 0x4c
   2259a:	07c0      	lsls	r0, r0, #31
   2259c:	d110      	bne.n	225c0 <_start+0x2498>
   2259e:	e001      	b.n	225a4 <_start+0x247c>
   225a0:	000005cc 	.word	0x000005cc
   225a4:	4805      	ldr	r0, [pc, #20]	@ (225bc <_start+0x2494>)
   225a6:	2108      	movs	r1, #8
   225a8:	2204      	movs	r2, #4
   225aa:	2300      	movs	r3, #0
   225ac:	461c      	mov	r4, r3
   225ae:	df02      	svc	2
   225b0:	9113      	str	r1, [sp, #76]	@ 0x4c
   225b2:	287f      	cmp	r0, #127	@ 0x7f
   225b4:	d904      	bls.n	225c0 <_start+0x2498>
   225b6:	f001 f9f8 	bl	239aa <_start+0x3882>
   225ba:	46c0      	nop			@ (mov r8, r8)
   225bc:	0000239f 	.word	0x0000239f
   225c0:	9c11      	ldr	r4, [sp, #68]	@ 0x44
   225c2:	4805      	ldr	r0, [pc, #20]	@ (225d8 <_start+0x24b0>)
   225c4:	4468      	add	r0, sp
   225c6:	f004 fdcb 	bl	27160 <_ZN9allow_pin12full_dynamic17unshare_if_shared17hc38d0bd70fd52db9E>
   225ca:	a8a3      	add	r0, sp, #652	@ 0x28c
   225cc:	f004 fdc8 	bl	27160 <_ZN9allow_pin12full_dynamic17unshare_if_shared17hc38d0bd70fd52db9E>
   225d0:	2c00      	cmp	r4, #0
   225d2:	d003      	beq.n	225dc <_start+0x24b4>
   225d4:	f004 fd3f 	bl	27056 <_start+0x6f2e>
   225d8:	000005cc 	.word	0x000005cc
   225dc:	4d1b      	ldr	r5, [pc, #108]	@ (2264c <_start+0x2524>)
   225de:	446d      	add	r5, sp
   225e0:	4628      	mov	r0, r5
   225e2:	300c      	adds	r0, #12
   225e4:	a9ba      	add	r1, sp, #744	@ 0x2e8
   225e6:	2203      	movs	r2, #3
   225e8:	f004 ff7b 	bl	274e2 <__aeabi_memcpy>
   225ec:	a85d      	add	r0, sp, #372	@ 0x174
   225ee:	900e      	str	r0, [sp, #56]	@ 0x38
   225f0:	4917      	ldr	r1, [pc, #92]	@ (22650 <_start+0x2528>)
   225f2:	4469      	add	r1, sp
   225f4:	2424      	movs	r4, #36	@ 0x24
   225f6:	4622      	mov	r2, r4
   225f8:	f004 ff73 	bl	274e2 <__aeabi_memcpy>
   225fc:	9913      	ldr	r1, [sp, #76]	@ 0x4c
   225fe:	0e08      	lsrs	r0, r1, #24
   22600:	74a8      	strb	r0, [r5, #18]
   22602:	0c08      	lsrs	r0, r1, #16
   22604:	7468      	strb	r0, [r5, #17]
   22606:	0a08      	lsrs	r0, r1, #8
   22608:	7428      	strb	r0, [r5, #16]
   2260a:	73e9      	strb	r1, [r5, #15]
   2260c:	9812      	ldr	r0, [sp, #72]	@ 0x48
   2260e:	7228      	strb	r0, [r5, #8]
   22610:	4628      	mov	r0, r5
   22612:	3013      	adds	r0, #19
   22614:	990e      	ldr	r1, [sp, #56]	@ 0x38
   22616:	4622      	mov	r2, r4
   22618:	f004 ff63 	bl	274e2 <__aeabi_memcpy>
   2261c:	4c0c      	ldr	r4, [pc, #48]	@ (22650 <_start+0x2528>)
   2261e:	446c      	add	r4, sp
   22620:	4620      	mov	r0, r4
   22622:	300c      	adds	r0, #12
   22624:	211e      	movs	r1, #30
   22626:	900e      	str	r0, [sp, #56]	@ 0x38
   22628:	f004 fdae 	bl	27188 <__aeabi_memclr4>
   2262c:	9812      	ldr	r0, [sp, #72]	@ 0x48
   2262e:	7220      	strb	r0, [r4, #8]
   22630:	9807      	ldr	r0, [sp, #28]
   22632:	9000      	str	r0, [sp, #0]
   22634:	4b07      	ldr	r3, [pc, #28]	@ (22654 <_start+0x252c>)
   22636:	3364      	adds	r3, #100	@ 0x64
   22638:	212b      	movs	r1, #43	@ 0x2b
   2263a:	2204      	movs	r2, #4
   2263c:	4628      	mov	r0, r5
   2263e:	461c      	mov	r4, r3
   22640:	f7fd fd50 	bl	200e4 <_ZN9allow_pin12full_dynamic15Buffer$LT$B$GT$5allow17h6d4ce413c213cdffE>
   22644:	9113      	str	r1, [sp, #76]	@ 0x4c
   22646:	07c0      	lsls	r0, r0, #31
   22648:	d124      	bne.n	22694 <_start+0x256c>
   2264a:	e005      	b.n	22658 <_start+0x2530>
   2264c:	000005cc 	.word	0x000005cc
   22650:	00000568 	.word	0x00000568
   22654:	0000077f 	.word	0x0000077f
   22658:	9810      	ldr	r0, [sp, #64]	@ 0x40
   2265a:	9000      	str	r0, [sp, #0]
   2265c:	4805      	ldr	r0, [pc, #20]	@ (22674 <_start+0x254c>)
   2265e:	4468      	add	r0, sp
   22660:	211e      	movs	r1, #30
   22662:	2203      	movs	r2, #3
   22664:	4623      	mov	r3, r4
   22666:	f7fd fd3d 	bl	200e4 <_ZN9allow_pin12full_dynamic15Buffer$LT$B$GT$5allow17h6d4ce413c213cdffE>
   2266a:	9113      	str	r1, [sp, #76]	@ 0x4c
   2266c:	07c0      	lsls	r0, r0, #31
   2266e:	d111      	bne.n	22694 <_start+0x256c>
   22670:	e002      	b.n	22678 <_start+0x2550>
   22672:	46c0      	nop			@ (mov r8, r8)
   22674:	00000568 	.word	0x00000568
   22678:	4805      	ldr	r0, [pc, #20]	@ (22690 <_start+0x2568>)
   2267a:	2107      	movs	r1, #7
   2267c:	2208      	movs	r2, #8
   2267e:	2300      	movs	r3, #0
   22680:	461c      	mov	r4, r3
   22682:	df02      	svc	2
   22684:	9113      	str	r1, [sp, #76]	@ 0x4c
   22686:	287f      	cmp	r0, #127	@ 0x7f
   22688:	d904      	bls.n	22694 <_start+0x256c>
   2268a:	f001 f9be 	bl	23a0a <_start+0x38e2>
   2268e:	46c0      	nop			@ (mov r8, r8)
   22690:	000007e3 	.word	0x000007e3
   22694:	9c11      	ldr	r4, [sp, #68]	@ 0x44
   22696:	4806      	ldr	r0, [pc, #24]	@ (226b0 <_start+0x2588>)
   22698:	4468      	add	r0, sp
   2269a:	f004 fd61 	bl	27160 <_ZN9allow_pin12full_dynamic17unshare_if_shared17hc38d0bd70fd52db9E>
   2269e:	4805      	ldr	r0, [pc, #20]	@ (226b4 <_start+0x258c>)
   226a0:	4468      	add	r0, sp
   226a2:	f004 fd5d 	bl	27160 <_ZN9allow_pin12full_dynamic17unshare_if_shared17hc38d0bd70fd52db9E>
   226a6:	2c00      	cmp	r4, #0
   226a8:	d006      	beq.n	226b8 <_start+0x2590>
   226aa:	f004 fcd4 	bl	27056 <_start+0x6f2e>
   226ae:	46c0      	nop			@ (mov r8, r8)
   226b0:	00000568 	.word	0x00000568
   226b4:	000005cc 	.word	0x000005cc
   226b8:	acba      	add	r4, sp, #744	@ 0x2e8
   226ba:	4620      	mov	r0, r4
   226bc:	300c      	adds	r0, #12
   226be:	a9ff      	add	r1, sp, #1020	@ 0x3fc
   226c0:	31f8      	adds	r1, #248	@ 0xf8
   226c2:	2203      	movs	r2, #3
   226c4:	f004 ff0d 	bl	274e2 <__aeabi_memcpy>
   226c8:	a8a3      	add	r0, sp, #652	@ 0x28c
   226ca:	900e      	str	r0, [sp, #56]	@ 0x38
   226cc:	a9e4      	add	r1, sp, #912	@ 0x390
   226ce:	2517      	movs	r5, #23
   226d0:	462a      	mov	r2, r5
   226d2:	f004 ff06 	bl	274e2 <__aeabi_memcpy>
   226d6:	4620      	mov	r0, r4
   226d8:	3013      	adds	r0, #19
   226da:	990e      	ldr	r1, [sp, #56]	@ 0x38
   226dc:	462a      	mov	r2, r5
   226de:	f004 ff00 	bl	274e2 <__aeabi_memcpy>
   226e2:	9913      	ldr	r1, [sp, #76]	@ 0x4c
   226e4:	0e08      	lsrs	r0, r1, #24
   226e6:	74a0      	strb	r0, [r4, #18]
   226e8:	0c08      	lsrs	r0, r1, #16
   226ea:	7460      	strb	r0, [r4, #17]
   226ec:	0a08      	lsrs	r0, r1, #8
   226ee:	7420      	strb	r0, [r4, #16]
   226f0:	73e1      	strb	r1, [r4, #15]
   226f2:	9d12      	ldr	r5, [sp, #72]	@ 0x48
   226f4:	7225      	strb	r5, [r4, #8]
   226f6:	480a      	ldr	r0, [pc, #40]	@ (22720 <_start+0x25f8>)
   226f8:	4468      	add	r0, sp
   226fa:	9013      	str	r0, [sp, #76]	@ 0x4c
   226fc:	300c      	adds	r0, #12
   226fe:	2151      	movs	r1, #81	@ 0x51
   22700:	900e      	str	r0, [sp, #56]	@ 0x38
   22702:	f004 fd41 	bl	27188 <__aeabi_memclr4>
   22706:	9813      	ldr	r0, [sp, #76]	@ 0x4c
   22708:	7205      	strb	r5, [r0, #8]
   2270a:	9500      	str	r5, [sp, #0]
   2270c:	211e      	movs	r1, #30
   2270e:	2204      	movs	r2, #4
   22710:	4620      	mov	r0, r4
   22712:	4b04      	ldr	r3, [pc, #16]	@ (22724 <_start+0x25fc>)
   22714:	f7fd fce6 	bl	200e4 <_ZN9allow_pin12full_dynamic15Buffer$LT$B$GT$5allow17h6d4ce413c213cdffE>
   22718:	9113      	str	r1, [sp, #76]	@ 0x4c
   2271a:	07c0      	lsls	r0, r0, #31
   2271c:	d124      	bne.n	22768 <_start+0x2640>
   2271e:	e003      	b.n	22728 <_start+0x2600>
   22720:	000005cc 	.word	0x000005cc
   22724:	0000196b 	.word	0x0000196b
   22728:	9806      	ldr	r0, [sp, #24]
   2272a:	9000      	str	r0, [sp, #0]
   2272c:	4805      	ldr	r0, [pc, #20]	@ (22744 <_start+0x261c>)
   2272e:	4468      	add	r0, sp
   22730:	2151      	movs	r1, #81	@ 0x51
   22732:	2203      	movs	r2, #3
   22734:	4b04      	ldr	r3, [pc, #16]	@ (22748 <_start+0x2620>)
   22736:	f7fd fcd5 	bl	200e4 <_ZN9allow_pin12full_dynamic15Buffer$LT$B$GT$5allow17h6d4ce413c213cdffE>
   2273a:	9113      	str	r1, [sp, #76]	@ 0x4c
   2273c:	07c0      	lsls	r0, r0, #31
   2273e:	d113      	bne.n	22768 <_start+0x2640>
   22740:	e004      	b.n	2274c <_start+0x2624>
   22742:	46c0      	nop			@ (mov r8, r8)
   22744:	000005cc 	.word	0x000005cc
   22748:	0000196b 	.word	0x0000196b
   2274c:	4805      	ldr	r0, [pc, #20]	@ (22764 <_start+0x263c>)
   2274e:	2102      	movs	r1, #2
   22750:	2400      	movs	r4, #0
   22752:	4622      	mov	r2, r4
   22754:	4623      	mov	r3, r4
   22756:	df02      	svc	2
   22758:	9113      	str	r1, [sp, #76]	@ 0x4c
   2275a:	287f      	cmp	r0, #127	@ 0x7f
   2275c:	d904      	bls.n	22768 <_start+0x2640>
   2275e:	f001 f985 	bl	23a6c <_start+0x3944>
   22762:	46c0      	nop			@ (mov r8, r8)
   22764:	0000196b 	.word	0x0000196b
   22768:	9c11      	ldr	r4, [sp, #68]	@ 0x44
   2276a:	4805      	ldr	r0, [pc, #20]	@ (22780 <_start+0x2658>)
   2276c:	4468      	add	r0, sp
   2276e:	f004 fcf7 	bl	27160 <_ZN9allow_pin12full_dynamic17unshare_if_shared17hc38d0bd70fd52db9E>
   22772:	a8ba      	add	r0, sp, #744	@ 0x2e8
   22774:	f004 fcf4 	bl	27160 <_ZN9allow_pin12full_dynamic17unshare_if_shared17hc38d0bd70fd52db9E>
   22778:	2c00      	cmp	r4, #0
   2277a:	d003      	beq.n	22784 <_start+0x265c>
   2277c:	f004 fc6b 	bl	27056 <_start+0x6f2e>
   22780:	000005cc 	.word	0x000005cc
   22784:	4d1b      	ldr	r5, [pc, #108]	@ (227f4 <_start+0x26cc>)
   22786:	446d      	add	r5, sp
   22788:	4628      	mov	r0, r5
   2278a:	300c      	adds	r0, #12
   2278c:	a9e4      	add	r1, sp, #912	@ 0x390
   2278e:	2203      	movs	r2, #3
   22790:	920c      	str	r2, [sp, #48]	@ 0x30
   22792:	f004 fea6 	bl	274e2 <__aeabi_memcpy>
   22796:	4818      	ldr	r0, [pc, #96]	@ (227f8 <_start+0x26d0>)
   22798:	4468      	add	r0, sp
   2279a:	900e      	str	r0, [sp, #56]	@ 0x38
   2279c:	a9a3      	add	r1, sp, #652	@ 0x28c
   2279e:	244a      	movs	r4, #74	@ 0x4a
   227a0:	4622      	mov	r2, r4
   227a2:	f004 fd3e 	bl	27222 <__aeabi_memcpy4>
   227a6:	4628      	mov	r0, r5
   227a8:	3013      	adds	r0, #19
   227aa:	990e      	ldr	r1, [sp, #56]	@ 0x38
   227ac:	4622      	mov	r2, r4
   227ae:	f004 fe98 	bl	274e2 <__aeabi_memcpy>
   227b2:	9913      	ldr	r1, [sp, #76]	@ 0x4c
   227b4:	0e08      	lsrs	r0, r1, #24
   227b6:	74a8      	strb	r0, [r5, #18]
   227b8:	0c08      	lsrs	r0, r1, #16
   227ba:	7468      	strb	r0, [r5, #17]
   227bc:	0a08      	lsrs	r0, r1, #8
   227be:	7428      	strb	r0, [r5, #16]
   227c0:	73e9      	strb	r1, [r5, #15]
   227c2:	9812      	ldr	r0, [sp, #72]	@ 0x48
   227c4:	7228      	strb	r0, [r5, #8]
   227c6:	4c0c      	ldr	r4, [pc, #48]	@ (227f8 <_start+0x26d0>)
   227c8:	446c      	add	r4, sp
   227ca:	4620      	mov	r0, r4
   227cc:	300c      	adds	r0, #12
   227ce:	210f      	movs	r1, #15
   227d0:	900e      	str	r0, [sp, #56]	@ 0x38
   227d2:	f004 fcd9 	bl	27188 <__aeabi_memclr4>
   227d6:	9812      	ldr	r0, [sp, #72]	@ 0x48
   227d8:	7220      	strb	r0, [r4, #8]
   227da:	9806      	ldr	r0, [sp, #24]
   227dc:	9000      	str	r0, [sp, #0]
   227de:	2151      	movs	r1, #81	@ 0x51
   227e0:	2204      	movs	r2, #4
   227e2:	4b06      	ldr	r3, [pc, #24]	@ (227fc <_start+0x26d4>)
   227e4:	4628      	mov	r0, r5
   227e6:	f7fd fc7d 	bl	200e4 <_ZN9allow_pin12full_dynamic15Buffer$LT$B$GT$5allow17h6d4ce413c213cdffE>
   227ea:	9113      	str	r1, [sp, #76]	@ 0x4c
   227ec:	07c0      	lsls	r0, r0, #31
   227ee:	d125      	bne.n	2283c <_start+0x2714>
   227f0:	e006      	b.n	22800 <_start+0x26d8>
   227f2:	46c0      	nop			@ (mov r8, r8)
   227f4:	000005cc 	.word	0x000005cc
   227f8:	00000568 	.word	0x00000568
   227fc:	000013bf 	.word	0x000013bf
   22800:	9a0c      	ldr	r2, [sp, #48]	@ 0x30
   22802:	9200      	str	r2, [sp, #0]
   22804:	4804      	ldr	r0, [pc, #16]	@ (22818 <_start+0x26f0>)
   22806:	4468      	add	r0, sp
   22808:	210f      	movs	r1, #15
   2280a:	4b04      	ldr	r3, [pc, #16]	@ (2281c <_start+0x26f4>)
   2280c:	f7fd fc6a 	bl	200e4 <_ZN9allow_pin12full_dynamic15Buffer$LT$B$GT$5allow17h6d4ce413c213cdffE>
   22810:	9113      	str	r1, [sp, #76]	@ 0x4c
   22812:	07c0      	lsls	r0, r0, #31
   22814:	d112      	bne.n	2283c <_start+0x2714>
   22816:	e003      	b.n	22820 <_start+0x26f8>
   22818:	00000568 	.word	0x00000568
   2281c:	000013bf 	.word	0x000013bf
   22820:	4805      	ldr	r0, [pc, #20]	@ (22838 <_start+0x2710>)
   22822:	2203      	movs	r2, #3
   22824:	2100      	movs	r1, #0
   22826:	460d      	mov	r5, r1
   22828:	460b      	mov	r3, r1
   2282a:	df02      	svc	2
   2282c:	9113      	str	r1, [sp, #76]	@ 0x4c
   2282e:	287f      	cmp	r0, #127	@ 0x7f
   22830:	d904      	bls.n	2283c <_start+0x2714>
   22832:	f001 f948 	bl	23ac6 <_start+0x399e>
   22836:	46c0      	nop			@ (mov r8, r8)
   22838:	000013bf 	.word	0x000013bf
   2283c:	9d11      	ldr	r5, [sp, #68]	@ 0x44
   2283e:	4806      	ldr	r0, [pc, #24]	@ (22858 <_start+0x2730>)
   22840:	4468      	add	r0, sp
   22842:	f004 fc8d 	bl	27160 <_ZN9allow_pin12full_dynamic17unshare_if_shared17hc38d0bd70fd52db9E>
   22846:	4805      	ldr	r0, [pc, #20]	@ (2285c <_start+0x2734>)
   22848:	4468      	add	r0, sp
   2284a:	f004 fc89 	bl	27160 <_ZN9allow_pin12full_dynamic17unshare_if_shared17hc38d0bd70fd52db9E>
   2284e:	2d00      	cmp	r5, #0
   22850:	d006      	beq.n	22860 <_start+0x2738>
   22852:	f004 fc00 	bl	27056 <_start+0x6f2e>
   22856:	46c0      	nop			@ (mov r8, r8)
   22858:	00000568 	.word	0x00000568
   2285c:	000005cc 	.word	0x000005cc
   22860:	9c0b      	ldr	r4, [sp, #44]	@ 0x2c
   22862:	340f      	adds	r4, #15
   22864:	4d1c      	ldr	r5, [pc, #112]	@ (228d8 <_start+0x27b0>)
   22866:	446d      	add	r5, sp
   22868:	4628      	mov	r0, r5
   2286a:	300c      	adds	r0, #12
   2286c:	a9a3      	add	r1, sp, #652	@ 0x28c
   2286e:	2203      	movs	r2, #3
   22870:	f004 fe37 	bl	274e2 <__aeabi_memcpy>
   22874:	9812      	ldr	r0, [sp, #72]	@ 0x48
   22876:	7228      	strb	r0, [r5, #8]
   22878:	990c      	ldr	r1, [sp, #48]	@ 0x30
   2287a:	0e08      	lsrs	r0, r1, #24
   2287c:	72e0      	strb	r0, [r4, #11]
   2287e:	0c08      	lsrs	r0, r1, #16
   22880:	72a0      	strb	r0, [r4, #10]
   22882:	0a08      	lsrs	r0, r1, #8
   22884:	7260      	strb	r0, [r4, #9]
   22886:	7221      	strb	r1, [r4, #8]
   22888:	990e      	ldr	r1, [sp, #56]	@ 0x38
   2288a:	0e08      	lsrs	r0, r1, #24
   2288c:	71e0      	strb	r0, [r4, #7]
   2288e:	0c08      	lsrs	r0, r1, #16
   22890:	71a0      	strb	r0, [r4, #6]
   22892:	0a08      	lsrs	r0, r1, #8
   22894:	7160      	strb	r0, [r4, #5]
   22896:	7121      	strb	r1, [r4, #4]
   22898:	9913      	ldr	r1, [sp, #76]	@ 0x4c
   2289a:	0e08      	lsrs	r0, r1, #24
   2289c:	70e0      	strb	r0, [r4, #3]
   2289e:	0c08      	lsrs	r0, r1, #16
   228a0:	70a0      	strb	r0, [r4, #2]
   228a2:	0a08      	lsrs	r0, r1, #8
   228a4:	7060      	strb	r0, [r4, #1]
   228a6:	7021      	strb	r1, [r4, #0]
   228a8:	4c0c      	ldr	r4, [pc, #48]	@ (228dc <_start+0x27b4>)
   228aa:	446c      	add	r4, sp
   228ac:	4620      	mov	r0, r4
   228ae:	300c      	adds	r0, #12
   228b0:	2146      	movs	r1, #70	@ 0x46
   228b2:	900e      	str	r0, [sp, #56]	@ 0x38
   228b4:	f004 fc68 	bl	27188 <__aeabi_memclr4>
   228b8:	9812      	ldr	r0, [sp, #72]	@ 0x48
   228ba:	7220      	strb	r0, [r4, #8]
   228bc:	980d      	ldr	r0, [sp, #52]	@ 0x34
   228be:	9000      	str	r0, [sp, #0]
   228c0:	4c07      	ldr	r4, [pc, #28]	@ (228e0 <_start+0x27b8>)
   228c2:	3465      	adds	r4, #101	@ 0x65
   228c4:	210f      	movs	r1, #15
   228c6:	2204      	movs	r2, #4
   228c8:	4628      	mov	r0, r5
   228ca:	4623      	mov	r3, r4
   228cc:	f7fd fc0a 	bl	200e4 <_ZN9allow_pin12full_dynamic15Buffer$LT$B$GT$5allow17h6d4ce413c213cdffE>
   228d0:	9113      	str	r1, [sp, #76]	@ 0x4c
   228d2:	07c0      	lsls	r0, r0, #31
   228d4:	d124      	bne.n	22920 <_start+0x27f8>
   228d6:	e005      	b.n	228e4 <_start+0x27bc>
   228d8:	00000568 	.word	0x00000568
   228dc:	000005cc 	.word	0x000005cc
   228e0:	00001d19 	.word	0x00001d19
   228e4:	9812      	ldr	r0, [sp, #72]	@ 0x48
   228e6:	9000      	str	r0, [sp, #0]
   228e8:	4805      	ldr	r0, [pc, #20]	@ (22900 <_start+0x27d8>)
   228ea:	4468      	add	r0, sp
   228ec:	2146      	movs	r1, #70	@ 0x46
   228ee:	2203      	movs	r2, #3
   228f0:	4623      	mov	r3, r4
   228f2:	f7fd fbf7 	bl	200e4 <_ZN9allow_pin12full_dynamic15Buffer$LT$B$GT$5allow17h6d4ce413c213cdffE>
   228f6:	9113      	str	r1, [sp, #76]	@ 0x4c
   228f8:	07c0      	lsls	r0, r0, #31
   228fa:	d111      	bne.n	22920 <_start+0x27f8>
   228fc:	e002      	b.n	22904 <_start+0x27dc>
   228fe:	46c0      	nop			@ (mov r8, r8)
   22900:	000005cc 	.word	0x000005cc
   22904:	4805      	ldr	r0, [pc, #20]	@ (2291c <_start+0x27f4>)
   22906:	2109      	movs	r1, #9
   22908:	2202      	movs	r2, #2
   2290a:	2300      	movs	r3, #0
   2290c:	461c      	mov	r4, r3
   2290e:	df02      	svc	2
   22910:	9113      	str	r1, [sp, #76]	@ 0x4c
   22912:	287f      	cmp	r0, #127	@ 0x7f
   22914:	d904      	bls.n	22920 <_start+0x27f8>
   22916:	f001 f910 	bl	23b3a <_start+0x3a12>
   2291a:	46c0      	nop			@ (mov r8, r8)
   2291c:	00001d7e 	.word	0x00001d7e
   22920:	9c11      	ldr	r4, [sp, #68]	@ 0x44
   22922:	4806      	ldr	r0, [pc, #24]	@ (2293c <_start+0x2814>)
   22924:	4468      	add	r0, sp
   22926:	f004 fc1b 	bl	27160 <_ZN9allow_pin12full_dynamic17unshare_if_shared17hc38d0bd70fd52db9E>
   2292a:	4805      	ldr	r0, [pc, #20]	@ (22940 <_start+0x2818>)
   2292c:	4468      	add	r0, sp
   2292e:	f004 fc17 	bl	27160 <_ZN9allow_pin12full_dynamic17unshare_if_shared17hc38d0bd70fd52db9E>
   22932:	2c00      	cmp	r4, #0
   22934:	d006      	beq.n	22944 <_start+0x281c>
   22936:	f004 fb8e 	bl	27056 <_start+0x6f2e>
   2293a:	46c0      	nop			@ (mov r8, r8)
   2293c:	000005cc 	.word	0x000005cc
   22940:	00000568 	.word	0x00000568
   22944:	4c1b      	ldr	r4, [pc, #108]	@ (229b4 <_start+0x288c>)
   22946:	446c      	add	r4, sp
   22948:	4620      	mov	r0, r4
   2294a:	300c      	adds	r0, #12
   2294c:	a9e4      	add	r1, sp, #912	@ 0x390
   2294e:	2203      	movs	r2, #3
   22950:	920c      	str	r2, [sp, #48]	@ 0x30
   22952:	f004 fdc6 	bl	274e2 <__aeabi_memcpy>
   22956:	a8a3      	add	r0, sp, #652	@ 0x28c
   22958:	900e      	str	r0, [sp, #56]	@ 0x38
   2295a:	a9ba      	add	r1, sp, #744	@ 0x2e8
   2295c:	253f      	movs	r5, #63	@ 0x3f
   2295e:	462a      	mov	r2, r5
   22960:	f004 fdbf 	bl	274e2 <__aeabi_memcpy>
   22964:	4620      	mov	r0, r4
   22966:	3013      	adds	r0, #19
   22968:	990e      	ldr	r1, [sp, #56]	@ 0x38
   2296a:	462a      	mov	r2, r5
   2296c:	f004 fdb9 	bl	274e2 <__aeabi_memcpy>
   22970:	9913      	ldr	r1, [sp, #76]	@ 0x4c
   22972:	0e08      	lsrs	r0, r1, #24
   22974:	74a0      	strb	r0, [r4, #18]
   22976:	0c08      	lsrs	r0, r1, #16
   22978:	7460      	strb	r0, [r4, #17]
   2297a:	0a08      	lsrs	r0, r1, #8
   2297c:	7420      	strb	r0, [r4, #16]
   2297e:	73e1      	strb	r1, [r4, #15]
   22980:	9812      	ldr	r0, [sp, #72]	@ 0x48
   22982:	7220      	strb	r0, [r4, #8]
   22984:	4d0c      	ldr	r5, [pc, #48]	@ (229b8 <_start+0x2890>)
   22986:	446d      	add	r5, sp
   22988:	4628      	mov	r0, r5
   2298a:	300c      	adds	r0, #12
   2298c:	2156      	movs	r1, #86	@ 0x56
   2298e:	900e      	str	r0, [sp, #56]	@ 0x38
   22990:	f004 fbfa 	bl	27188 <__aeabi_memclr4>
   22994:	9812      	ldr	r0, [sp, #72]	@ 0x48
   22996:	7228      	strb	r0, [r5, #8]
   22998:	9807      	ldr	r0, [sp, #28]
   2299a:	9000      	str	r0, [sp, #0]
   2299c:	4807      	ldr	r0, [pc, #28]	@ (229bc <_start+0x2894>)
   2299e:	1d45      	adds	r5, r0, #5
   229a0:	2146      	movs	r1, #70	@ 0x46
   229a2:	2204      	movs	r2, #4
   229a4:	4620      	mov	r0, r4
   229a6:	462b      	mov	r3, r5
   229a8:	f7fd fb9c 	bl	200e4 <_ZN9allow_pin12full_dynamic15Buffer$LT$B$GT$5allow17h6d4ce413c213cdffE>
   229ac:	9113      	str	r1, [sp, #76]	@ 0x4c
   229ae:	07c0      	lsls	r0, r0, #31
   229b0:	d122      	bne.n	229f8 <_start+0x28d0>
   229b2:	e005      	b.n	229c0 <_start+0x2898>
   229b4:	00000568 	.word	0x00000568
   229b8:	000005cc 	.word	0x000005cc
   229bc:	00001e4b 	.word	0x00001e4b
   229c0:	9a0c      	ldr	r2, [sp, #48]	@ 0x30
   229c2:	9200      	str	r2, [sp, #0]
   229c4:	4804      	ldr	r0, [pc, #16]	@ (229d8 <_start+0x28b0>)
   229c6:	4468      	add	r0, sp
   229c8:	2156      	movs	r1, #86	@ 0x56
   229ca:	462b      	mov	r3, r5
   229cc:	f7fd fb8a 	bl	200e4 <_ZN9allow_pin12full_dynamic15Buffer$LT$B$GT$5allow17h6d4ce413c213cdffE>
   229d0:	9113      	str	r1, [sp, #76]	@ 0x4c
   229d2:	07c0      	lsls	r0, r0, #31
   229d4:	d110      	bne.n	229f8 <_start+0x28d0>
   229d6:	e001      	b.n	229dc <_start+0x28b4>
   229d8:	000005cc 	.word	0x000005cc
   229dc:	4805      	ldr	r0, [pc, #20]	@ (229f4 <_start+0x28cc>)
   229de:	2107      	movs	r1, #7
   229e0:	2203      	movs	r2, #3
   229e2:	2300      	movs	r3, #0
   229e4:	461d      	mov	r5, r3
   229e6:	df02      	svc	2
   229e8:	9113      	str	r1, [sp, #76]	@ 0x4c
   229ea:	287f      	cmp	r0, #127	@ 0x7f
   229ec:	d904      	bls.n	229f8 <_start+0x28d0>
   229ee:	f001 f8d4 	bl	23b9a <_start+0x3a72>
   229f2:	46c0      	nop			@ (mov r8, r8)
   229f4:	00001e50 	.word	0x00001e50
   229f8:	9d11      	ldr	r5, [sp, #68]	@ 0x44
   229fa:	4806      	ldr	r0, [pc, #24]	@ (22a14 <_start+0x28ec>)
   229fc:	4468      	add	r0, sp
   229fe:	f004 fbaf 	bl	27160 <_ZN9allow_pin12full_dynamic17unshare_if_shared17hc38d0bd70fd52db9E>
   22a02:	4805      	ldr	r0, [pc, #20]	@ (22a18 <_start+0x28f0>)
   22a04:	4468      	add	r0, sp
   22a06:	f004 fbab 	bl	27160 <_ZN9allow_pin12full_dynamic17unshare_if_shared17hc38d0bd70fd52db9E>
   22a0a:	2d00      	cmp	r5, #0
   22a0c:	d006      	beq.n	22a1c <_start+0x28f4>
   22a0e:	f004 fb22 	bl	27056 <_start+0x6f2e>
   22a12:	46c0      	nop			@ (mov r8, r8)
   22a14:	000005cc 	.word	0x000005cc
   22a18:	00000568 	.word	0x00000568
   22a1c:	4d1b      	ldr	r5, [pc, #108]	@ (22a8c <_start+0x2964>)
   22a1e:	446d      	add	r5, sp
   22a20:	4628      	mov	r0, r5
   22a22:	300c      	adds	r0, #12
   22a24:	a9e4      	add	r1, sp, #912	@ 0x390
   22a26:	2203      	movs	r2, #3
   22a28:	f004 fd5b 	bl	274e2 <__aeabi_memcpy>
   22a2c:	a8a3      	add	r0, sp, #652	@ 0x28c
   22a2e:	900e      	str	r0, [sp, #56]	@ 0x38
   22a30:	a9ba      	add	r1, sp, #744	@ 0x2e8
   22a32:	244f      	movs	r4, #79	@ 0x4f
   22a34:	4622      	mov	r2, r4
   22a36:	f004 fbf4 	bl	27222 <__aeabi_memcpy4>
   22a3a:	4628      	mov	r0, r5
   22a3c:	3013      	adds	r0, #19
   22a3e:	990e      	ldr	r1, [sp, #56]	@ 0x38
   22a40:	4622      	mov	r2, r4
   22a42:	f004 fd4e 	bl	274e2 <__aeabi_memcpy>
   22a46:	9913      	ldr	r1, [sp, #76]	@ 0x4c
   22a48:	0e08      	lsrs	r0, r1, #24
   22a4a:	74a8      	strb	r0, [r5, #18]
   22a4c:	0c08      	lsrs	r0, r1, #16
   22a4e:	7468      	strb	r0, [r5, #17]
   22a50:	0a08      	lsrs	r0, r1, #8
   22a52:	7428      	strb	r0, [r5, #16]
   22a54:	73e9      	strb	r1, [r5, #15]
   22a56:	9812      	ldr	r0, [sp, #72]	@ 0x48
   22a58:	7228      	strb	r0, [r5, #8]
   22a5a:	4c0d      	ldr	r4, [pc, #52]	@ (22a90 <_start+0x2968>)
   22a5c:	446c      	add	r4, sp
   22a5e:	4620      	mov	r0, r4
   22a60:	300c      	adds	r0, #12
   22a62:	2149      	movs	r1, #73	@ 0x49
   22a64:	900e      	str	r0, [sp, #56]	@ 0x38
   22a66:	f004 fb8f 	bl	27188 <__aeabi_memclr4>
   22a6a:	9812      	ldr	r0, [sp, #72]	@ 0x48
   22a6c:	7220      	strb	r0, [r4, #8]
   22a6e:	9804      	ldr	r0, [sp, #16]
   22a70:	9000      	str	r0, [sp, #0]
   22a72:	4c08      	ldr	r4, [pc, #32]	@ (22a94 <_start+0x296c>)
   22a74:	3495      	adds	r4, #149	@ 0x95
   22a76:	2156      	movs	r1, #86	@ 0x56
   22a78:	2204      	movs	r2, #4
   22a7a:	4628      	mov	r0, r5
   22a7c:	4623      	mov	r3, r4
   22a7e:	f7fd fb31 	bl	200e4 <_ZN9allow_pin12full_dynamic15Buffer$LT$B$GT$5allow17h6d4ce413c213cdffE>
   22a82:	9113      	str	r1, [sp, #76]	@ 0x4c
   22a84:	07c0      	lsls	r0, r0, #31
   22a86:	d125      	bne.n	22ad4 <_start+0x29ac>
   22a88:	e006      	b.n	22a98 <_start+0x2970>
   22a8a:	46c0      	nop			@ (mov r8, r8)
   22a8c:	000005cc 	.word	0x000005cc
   22a90:	00000568 	.word	0x00000568
   22a94:	00001bd6 	.word	0x00001bd6
   22a98:	9804      	ldr	r0, [sp, #16]
   22a9a:	9000      	str	r0, [sp, #0]
   22a9c:	4805      	ldr	r0, [pc, #20]	@ (22ab4 <_start+0x298c>)
   22a9e:	4468      	add	r0, sp
   22aa0:	2149      	movs	r1, #73	@ 0x49
   22aa2:	2203      	movs	r2, #3
   22aa4:	4623      	mov	r3, r4
   22aa6:	f7fd fb1d 	bl	200e4 <_ZN9allow_pin12full_dynamic15Buffer$LT$B$GT$5allow17h6d4ce413c213cdffE>
   22aaa:	9113      	str	r1, [sp, #76]	@ 0x4c
   22aac:	07c0      	lsls	r0, r0, #31
   22aae:	d111      	bne.n	22ad4 <_start+0x29ac>
   22ab0:	e002      	b.n	22ab8 <_start+0x2990>
   22ab2:	46c0      	nop			@ (mov r8, r8)
   22ab4:	00000568 	.word	0x00000568
   22ab8:	4805      	ldr	r0, [pc, #20]	@ (22ad0 <_start+0x29a8>)
   22aba:	2106      	movs	r1, #6
   22abc:	2300      	movs	r3, #0
   22abe:	460a      	mov	r2, r1
   22ac0:	461c      	mov	r4, r3
   22ac2:	df02      	svc	2
   22ac4:	9113      	str	r1, [sp, #76]	@ 0x4c
   22ac6:	287f      	cmp	r0, #127	@ 0x7f
   22ac8:	d904      	bls.n	22ad4 <_start+0x29ac>
   22aca:	f001 f89d 	bl	23c08 <_start+0x3ae0>
   22ace:	46c0      	nop			@ (mov r8, r8)
   22ad0:	00001c6b 	.word	0x00001c6b
   22ad4:	9c11      	ldr	r4, [sp, #68]	@ 0x44
   22ad6:	4806      	ldr	r0, [pc, #24]	@ (22af0 <_start+0x29c8>)
   22ad8:	4468      	add	r0, sp
   22ada:	f004 fb41 	bl	27160 <_ZN9allow_pin12full_dynamic17unshare_if_shared17hc38d0bd70fd52db9E>
   22ade:	4805      	ldr	r0, [pc, #20]	@ (22af4 <_start+0x29cc>)
   22ae0:	4468      	add	r0, sp
   22ae2:	f004 fb3d 	bl	27160 <_ZN9allow_pin12full_dynamic17unshare_if_shared17hc38d0bd70fd52db9E>
   22ae6:	2c00      	cmp	r4, #0
   22ae8:	d006      	beq.n	22af8 <_start+0x29d0>
   22aea:	f004 fab4 	bl	27056 <_start+0x6f2e>
   22aee:	46c0      	nop			@ (mov r8, r8)
   22af0:	00000568 	.word	0x00000568
   22af4:	000005cc 	.word	0x000005cc
   22af8:	4d1b      	ldr	r5, [pc, #108]	@ (22b68 <_start+0x2a40>)
   22afa:	446d      	add	r5, sp
   22afc:	4628      	mov	r0, r5
   22afe:	300c      	adds	r0, #12
   22b00:	a9e4      	add	r1, sp, #912	@ 0x390
   22b02:	2203      	movs	r2, #3
   22b04:	f004 fced 	bl	274e2 <__aeabi_memcpy>
   22b08:	a8a3      	add	r0, sp, #652	@ 0x28c
   22b0a:	900e      	str	r0, [sp, #56]	@ 0x38
   22b0c:	a9ba      	add	r1, sp, #744	@ 0x2e8
   22b0e:	2442      	movs	r4, #66	@ 0x42
   22b10:	4622      	mov	r2, r4
   22b12:	f004 fb86 	bl	27222 <__aeabi_memcpy4>
   22b16:	4628      	mov	r0, r5
   22b18:	3013      	adds	r0, #19
   22b1a:	990e      	ldr	r1, [sp, #56]	@ 0x38
   22b1c:	4622      	mov	r2, r4
   22b1e:	f004 fce0 	bl	274e2 <__aeabi_memcpy>
   22b22:	9913      	ldr	r1, [sp, #76]	@ 0x4c
   22b24:	0e08      	lsrs	r0, r1, #24
   22b26:	74a8      	strb	r0, [r5, #18]
   22b28:	0c08      	lsrs	r0, r1, #16
   22b2a:	7468      	strb	r0, [r5, #17]
   22b2c:	0a08      	lsrs	r0, r1, #8
   22b2e:	7428      	strb	r0, [r5, #16]
   22b30:	73e9      	strb	r1, [r5, #15]
   22b32:	9812      	ldr	r0, [sp, #72]	@ 0x48
   22b34:	7228      	strb	r0, [r5, #8]
   22b36:	4c0d      	ldr	r4, [pc, #52]	@ (22b6c <_start+0x2a44>)
   22b38:	446c      	add	r4, sp
   22b3a:	4620      	mov	r0, r4
   22b3c:	300c      	adds	r0, #12
   22b3e:	2123      	movs	r1, #35	@ 0x23
   22b40:	900e      	str	r0, [sp, #56]	@ 0x38
   22b42:	f004 fb21 	bl	27188 <__aeabi_memclr4>
   22b46:	9812      	ldr	r0, [sp, #72]	@ 0x48
   22b48:	7220      	strb	r0, [r4, #8]
   22b4a:	9807      	ldr	r0, [sp, #28]
   22b4c:	9000      	str	r0, [sp, #0]
   22b4e:	4c08      	ldr	r4, [pc, #32]	@ (22b70 <_start+0x2a48>)
   22b50:	347a      	adds	r4, #122	@ 0x7a
   22b52:	2149      	movs	r1, #73	@ 0x49
   22b54:	2204      	movs	r2, #4
   22b56:	4628      	mov	r0, r5
   22b58:	4623      	mov	r3, r4
   22b5a:	f7fd fac3 	bl	200e4 <_ZN9allow_pin12full_dynamic15Buffer$LT$B$GT$5allow17h6d4ce413c213cdffE>
   22b5e:	9113      	str	r1, [sp, #76]	@ 0x4c
   22b60:	07c0      	lsls	r0, r0, #31
   22b62:	d123      	bne.n	22bac <_start+0x2a84>
   22b64:	e006      	b.n	22b74 <_start+0x2a4c>
   22b66:	46c0      	nop			@ (mov r8, r8)
   22b68:	000005cc 	.word	0x000005cc
   22b6c:	00000568 	.word	0x00000568
   22b70:	000014d7 	.word	0x000014d7
   22b74:	9600      	str	r6, [sp, #0]
   22b76:	4805      	ldr	r0, [pc, #20]	@ (22b8c <_start+0x2a64>)
   22b78:	4468      	add	r0, sp
   22b7a:	2123      	movs	r1, #35	@ 0x23
   22b7c:	2203      	movs	r2, #3
   22b7e:	4623      	mov	r3, r4
   22b80:	f7fd fab0 	bl	200e4 <_ZN9allow_pin12full_dynamic15Buffer$LT$B$GT$5allow17h6d4ce413c213cdffE>
   22b84:	9113      	str	r1, [sp, #76]	@ 0x4c
   22b86:	07c0      	lsls	r0, r0, #31
   22b88:	d110      	bne.n	22bac <_start+0x2a84>
   22b8a:	e001      	b.n	22b90 <_start+0x2a68>
   22b8c:	00000568 	.word	0x00000568
   22b90:	4805      	ldr	r0, [pc, #20]	@ (22ba8 <_start+0x2a80>)
   22b92:	2107      	movs	r1, #7
   22b94:	2201      	movs	r2, #1
   22b96:	2300      	movs	r3, #0
   22b98:	461c      	mov	r4, r3
   22b9a:	df02      	svc	2
   22b9c:	9113      	str	r1, [sp, #76]	@ 0x4c
   22b9e:	287f      	cmp	r0, #127	@ 0x7f
   22ba0:	d904      	bls.n	22bac <_start+0x2a84>
   22ba2:	f001 f861 	bl	23c68 <_start+0x3b40>
   22ba6:	46c0      	nop			@ (mov r8, r8)
   22ba8:	00001551 	.word	0x00001551
   22bac:	9c11      	ldr	r4, [sp, #68]	@ 0x44
   22bae:	4806      	ldr	r0, [pc, #24]	@ (22bc8 <_start+0x2aa0>)
   22bb0:	4468      	add	r0, sp
   22bb2:	f004 fad5 	bl	27160 <_ZN9allow_pin12full_dynamic17unshare_if_shared17hc38d0bd70fd52db9E>
   22bb6:	4805      	ldr	r0, [pc, #20]	@ (22bcc <_start+0x2aa4>)
   22bb8:	4468      	add	r0, sp
   22bba:	f004 fad1 	bl	27160 <_ZN9allow_pin12full_dynamic17unshare_if_shared17hc38d0bd70fd52db9E>
   22bbe:	2c00      	cmp	r4, #0
   22bc0:	d006      	beq.n	22bd0 <_start+0x2aa8>
   22bc2:	f004 fa48 	bl	27056 <_start+0x6f2e>
   22bc6:	46c0      	nop			@ (mov r8, r8)
   22bc8:	00000568 	.word	0x00000568
   22bcc:	000005cc 	.word	0x000005cc
   22bd0:	4c19      	ldr	r4, [pc, #100]	@ (22c38 <_start+0x2b10>)
   22bd2:	446c      	add	r4, sp
   22bd4:	4620      	mov	r0, r4
   22bd6:	300c      	adds	r0, #12
   22bd8:	a9ba      	add	r1, sp, #744	@ 0x2e8
   22bda:	2203      	movs	r2, #3
   22bdc:	f004 fc81 	bl	274e2 <__aeabi_memcpy>
   22be0:	a866      	add	r0, sp, #408	@ 0x198
   22be2:	900e      	str	r0, [sp, #56]	@ 0x38
   22be4:	a9a3      	add	r1, sp, #652	@ 0x28c
   22be6:	251c      	movs	r5, #28
   22be8:	462a      	mov	r2, r5
   22bea:	f004 fc7a 	bl	274e2 <__aeabi_memcpy>
   22bee:	9913      	ldr	r1, [sp, #76]	@ 0x4c
   22bf0:	0e08      	lsrs	r0, r1, #24
   22bf2:	74a0      	strb	r0, [r4, #18]
   22bf4:	0c08      	lsrs	r0, r1, #16
   22bf6:	7460      	strb	r0, [r4, #17]
   22bf8:	0a08      	lsrs	r0, r1, #8
   22bfa:	7420      	strb	r0, [r4, #16]
   22bfc:	73e1      	strb	r1, [r4, #15]
   22bfe:	9812      	ldr	r0, [sp, #72]	@ 0x48
   22c00:	7220      	strb	r0, [r4, #8]
   22c02:	4620      	mov	r0, r4
   22c04:	3013      	adds	r0, #19
   22c06:	990e      	ldr	r1, [sp, #56]	@ 0x38
   22c08:	462a      	mov	r2, r5
   22c0a:	f004 fc6a 	bl	274e2 <__aeabi_memcpy>
   22c0e:	4d0b      	ldr	r5, [pc, #44]	@ (22c3c <_start+0x2b14>)
   22c10:	446d      	add	r5, sp
   22c12:	4628      	mov	r0, r5
   22c14:	300c      	adds	r0, #12
   22c16:	212b      	movs	r1, #43	@ 0x2b
   22c18:	900e      	str	r0, [sp, #56]	@ 0x38
   22c1a:	f004 fab5 	bl	27188 <__aeabi_memclr4>
   22c1e:	9812      	ldr	r0, [sp, #72]	@ 0x48
   22c20:	7228      	strb	r0, [r5, #8]
   22c22:	9000      	str	r0, [sp, #0]
   22c24:	2123      	movs	r1, #35	@ 0x23
   22c26:	2204      	movs	r2, #4
   22c28:	4620      	mov	r0, r4
   22c2a:	4b05      	ldr	r3, [pc, #20]	@ (22c40 <_start+0x2b18>)
   22c2c:	f7fd fa5a 	bl	200e4 <_ZN9allow_pin12full_dynamic15Buffer$LT$B$GT$5allow17h6d4ce413c213cdffE>
   22c30:	9113      	str	r1, [sp, #76]	@ 0x4c
   22c32:	07c0      	lsls	r0, r0, #31
   22c34:	d11d      	bne.n	22c72 <_start+0x2b4a>
   22c36:	e005      	b.n	22c44 <_start+0x2b1c>
   22c38:	00000568 	.word	0x00000568
   22c3c:	000005cc 	.word	0x000005cc
   22c40:	00000d5d 	.word	0x00000d5d
   22c44:	9806      	ldr	r0, [sp, #24]
   22c46:	9000      	str	r0, [sp, #0]
   22c48:	48eb      	ldr	r0, [pc, #940]	@ (22ff8 <_start+0x2ed0>)
   22c4a:	4468      	add	r0, sp
   22c4c:	212b      	movs	r1, #43	@ 0x2b
   22c4e:	2203      	movs	r2, #3
   22c50:	4bea      	ldr	r3, [pc, #936]	@ (22ffc <_start+0x2ed4>)
   22c52:	f7fd fa47 	bl	200e4 <_ZN9allow_pin12full_dynamic15Buffer$LT$B$GT$5allow17h6d4ce413c213cdffE>
   22c56:	9113      	str	r1, [sp, #76]	@ 0x4c
   22c58:	07c0      	lsls	r0, r0, #31
   22c5a:	d10a      	bne.n	22c72 <_start+0x2b4a>
   22c5c:	48e7      	ldr	r0, [pc, #924]	@ (22ffc <_start+0x2ed4>)
   22c5e:	2102      	movs	r1, #2
   22c60:	2400      	movs	r4, #0
   22c62:	4622      	mov	r2, r4
   22c64:	4623      	mov	r3, r4
   22c66:	df02      	svc	2
   22c68:	9113      	str	r1, [sp, #76]	@ 0x4c
   22c6a:	287f      	cmp	r0, #127	@ 0x7f
   22c6c:	d901      	bls.n	22c72 <_start+0x2b4a>
   22c6e:	f001 f82b 	bl	23cc8 <_start+0x3ba0>
   22c72:	9c11      	ldr	r4, [sp, #68]	@ 0x44
   22c74:	48f8      	ldr	r0, [pc, #992]	@ (23058 <_start+0x2f30>)
   22c76:	4468      	add	r0, sp
   22c78:	f004 fa72 	bl	27160 <_ZN9allow_pin12full_dynamic17unshare_if_shared17hc38d0bd70fd52db9E>
   22c7c:	48f7      	ldr	r0, [pc, #988]	@ (2305c <_start+0x2f34>)
   22c7e:	4468      	add	r0, sp
   22c80:	f004 fa6e 	bl	27160 <_ZN9allow_pin12full_dynamic17unshare_if_shared17hc38d0bd70fd52db9E>
   22c84:	2c00      	cmp	r4, #0
   22c86:	d001      	beq.n	22c8c <_start+0x2b64>
   22c88:	f004 f9e5 	bl	27056 <_start+0x6f2e>
   22c8c:	4cf2      	ldr	r4, [pc, #968]	@ (23058 <_start+0x2f30>)
   22c8e:	446c      	add	r4, sp
   22c90:	4620      	mov	r0, r4
   22c92:	300c      	adds	r0, #12
   22c94:	a9ba      	add	r1, sp, #744	@ 0x2e8
   22c96:	2203      	movs	r2, #3
   22c98:	f004 fc23 	bl	274e2 <__aeabi_memcpy>
   22c9c:	a86d      	add	r0, sp, #436	@ 0x1b4
   22c9e:	900e      	str	r0, [sp, #56]	@ 0x38
   22ca0:	a9a3      	add	r1, sp, #652	@ 0x28c
   22ca2:	2224      	movs	r2, #36	@ 0x24
   22ca4:	920c      	str	r2, [sp, #48]	@ 0x30
   22ca6:	f004 fc1c 	bl	274e2 <__aeabi_memcpy>
   22caa:	9913      	ldr	r1, [sp, #76]	@ 0x4c
   22cac:	0e08      	lsrs	r0, r1, #24
   22cae:	74a0      	strb	r0, [r4, #18]
   22cb0:	0c08      	lsrs	r0, r1, #16
   22cb2:	7460      	strb	r0, [r4, #17]
   22cb4:	0a08      	lsrs	r0, r1, #8
   22cb6:	7420      	strb	r0, [r4, #16]
   22cb8:	73e1      	strb	r1, [r4, #15]
   22cba:	9d12      	ldr	r5, [sp, #72]	@ 0x48
   22cbc:	7225      	strb	r5, [r4, #8]
   22cbe:	4620      	mov	r0, r4
   22cc0:	3013      	adds	r0, #19
   22cc2:	990e      	ldr	r1, [sp, #56]	@ 0x38
   22cc4:	9a0c      	ldr	r2, [sp, #48]	@ 0x30
   22cc6:	f004 fc0c 	bl	274e2 <__aeabi_memcpy>
   22cca:	49e4      	ldr	r1, [pc, #912]	@ (2305c <_start+0x2f34>)
   22ccc:	4469      	add	r1, sp
   22cce:	9806      	ldr	r0, [sp, #24]
   22cd0:	7608      	strb	r0, [r1, #24]
   22cd2:	910e      	str	r1, [sp, #56]	@ 0x38
   22cd4:	720d      	strb	r5, [r1, #8]
   22cd6:	990f      	ldr	r1, [sp, #60]	@ 0x3c
   22cd8:	6008      	str	r0, [r1, #0]
   22cda:	6048      	str	r0, [r1, #4]
   22cdc:	6088      	str	r0, [r1, #8]
   22cde:	9804      	ldr	r0, [sp, #16]
   22ce0:	9000      	str	r0, [sp, #0]
   22ce2:	4ddf      	ldr	r5, [pc, #892]	@ (23060 <_start+0x2f38>)
   22ce4:	35a6      	adds	r5, #166	@ 0xa6
   22ce6:	212b      	movs	r1, #43	@ 0x2b
   22ce8:	2204      	movs	r2, #4
   22cea:	4620      	mov	r0, r4
   22cec:	462b      	mov	r3, r5
   22cee:	f7fd f9f9 	bl	200e4 <_ZN9allow_pin12full_dynamic15Buffer$LT$B$GT$5allow17h6d4ce413c213cdffE>
   22cf2:	9113      	str	r1, [sp, #76]	@ 0x4c
   22cf4:	07c0      	lsls	r0, r0, #31
   22cf6:	d116      	bne.n	22d26 <_start+0x2bfe>
   22cf8:	9806      	ldr	r0, [sp, #24]
   22cfa:	9000      	str	r0, [sp, #0]
   22cfc:	48d7      	ldr	r0, [pc, #860]	@ (2305c <_start+0x2f34>)
   22cfe:	4468      	add	r0, sp
   22d00:	210d      	movs	r1, #13
   22d02:	2203      	movs	r2, #3
   22d04:	462b      	mov	r3, r5
   22d06:	f7fd f9ed 	bl	200e4 <_ZN9allow_pin12full_dynamic15Buffer$LT$B$GT$5allow17h6d4ce413c213cdffE>
   22d0a:	9113      	str	r1, [sp, #76]	@ 0x4c
   22d0c:	07c0      	lsls	r0, r0, #31
   22d0e:	d10a      	bne.n	22d26 <_start+0x2bfe>
   22d10:	48d4      	ldr	r0, [pc, #848]	@ (23064 <_start+0x2f3c>)
   22d12:	2106      	movs	r1, #6
   22d14:	2200      	movs	r2, #0
   22d16:	4615      	mov	r5, r2
   22d18:	4613      	mov	r3, r2
   22d1a:	df02      	svc	2
   22d1c:	9113      	str	r1, [sp, #76]	@ 0x4c
   22d1e:	287f      	cmp	r0, #127	@ 0x7f
   22d20:	d901      	bls.n	22d26 <_start+0x2bfe>
   22d22:	f000 ffff 	bl	23d24 <_start+0x3bfc>
   22d26:	9d11      	ldr	r5, [sp, #68]	@ 0x44
   22d28:	48cc      	ldr	r0, [pc, #816]	@ (2305c <_start+0x2f34>)
   22d2a:	4468      	add	r0, sp
   22d2c:	f004 fa18 	bl	27160 <_ZN9allow_pin12full_dynamic17unshare_if_shared17hc38d0bd70fd52db9E>
   22d30:	48c9      	ldr	r0, [pc, #804]	@ (23058 <_start+0x2f30>)
   22d32:	4468      	add	r0, sp
   22d34:	f004 fa14 	bl	27160 <_ZN9allow_pin12full_dynamic17unshare_if_shared17hc38d0bd70fd52db9E>
   22d38:	2d00      	cmp	r5, #0
   22d3a:	d001      	beq.n	22d40 <_start+0x2c18>
   22d3c:	f004 f98b 	bl	27056 <_start+0x6f2e>
   22d40:	4dc6      	ldr	r5, [pc, #792]	@ (2305c <_start+0x2f34>)
   22d42:	446d      	add	r5, sp
   22d44:	4628      	mov	r0, r5
   22d46:	300c      	adds	r0, #12
   22d48:	a9e4      	add	r1, sp, #912	@ 0x390
   22d4a:	2203      	movs	r2, #3
   22d4c:	f004 fbc9 	bl	274e2 <__aeabi_memcpy>
   22d50:	a9a3      	add	r1, sp, #652	@ 0x28c
   22d52:	98bb      	ldr	r0, [sp, #748]	@ 0x2ec
   22d54:	8088      	strh	r0, [r1, #4]
   22d56:	98ba      	ldr	r0, [sp, #744]	@ 0x2e8
   22d58:	90a3      	str	r0, [sp, #652]	@ 0x28c
   22d5a:	4628      	mov	r0, r5
   22d5c:	3013      	adds	r0, #19
   22d5e:	2206      	movs	r2, #6
   22d60:	920f      	str	r2, [sp, #60]	@ 0x3c
   22d62:	f004 fbbe 	bl	274e2 <__aeabi_memcpy>
   22d66:	9913      	ldr	r1, [sp, #76]	@ 0x4c
   22d68:	0e08      	lsrs	r0, r1, #24
   22d6a:	74a8      	strb	r0, [r5, #18]
   22d6c:	0c08      	lsrs	r0, r1, #16
   22d6e:	7468      	strb	r0, [r5, #17]
   22d70:	0a08      	lsrs	r0, r1, #8
   22d72:	7428      	strb	r0, [r5, #16]
   22d74:	73e9      	strb	r1, [r5, #15]
   22d76:	9812      	ldr	r0, [sp, #72]	@ 0x48
   22d78:	7228      	strb	r0, [r5, #8]
   22d7a:	4cb7      	ldr	r4, [pc, #732]	@ (23058 <_start+0x2f30>)
   22d7c:	446c      	add	r4, sp
   22d7e:	4620      	mov	r0, r4
   22d80:	300c      	adds	r0, #12
   22d82:	2121      	movs	r1, #33	@ 0x21
   22d84:	900e      	str	r0, [sp, #56]	@ 0x38
   22d86:	f004 f9ff 	bl	27188 <__aeabi_memclr4>
   22d8a:	9812      	ldr	r0, [sp, #72]	@ 0x48
   22d8c:	7220      	strb	r0, [r4, #8]
   22d8e:	9806      	ldr	r0, [sp, #24]
   22d90:	9000      	str	r0, [sp, #0]
   22d92:	4cb5      	ldr	r4, [pc, #724]	@ (23068 <_start+0x2f40>)
   22d94:	34bf      	adds	r4, #191	@ 0xbf
   22d96:	210d      	movs	r1, #13
   22d98:	2204      	movs	r2, #4
   22d9a:	4628      	mov	r0, r5
   22d9c:	4623      	mov	r3, r4
   22d9e:	f7fd f9a1 	bl	200e4 <_ZN9allow_pin12full_dynamic15Buffer$LT$B$GT$5allow17h6d4ce413c213cdffE>
   22da2:	9113      	str	r1, [sp, #76]	@ 0x4c
   22da4:	07c0      	lsls	r0, r0, #31
   22da6:	d116      	bne.n	22dd6 <_start+0x2cae>
   22da8:	9806      	ldr	r0, [sp, #24]
   22daa:	9000      	str	r0, [sp, #0]
   22dac:	48aa      	ldr	r0, [pc, #680]	@ (23058 <_start+0x2f30>)
   22dae:	4468      	add	r0, sp
   22db0:	2121      	movs	r1, #33	@ 0x21
   22db2:	2203      	movs	r2, #3
   22db4:	4623      	mov	r3, r4
   22db6:	f7fd f995 	bl	200e4 <_ZN9allow_pin12full_dynamic15Buffer$LT$B$GT$5allow17h6d4ce413c213cdffE>
   22dba:	9113      	str	r1, [sp, #76]	@ 0x4c
   22dbc:	07c0      	lsls	r0, r0, #31
   22dbe:	d10a      	bne.n	22dd6 <_start+0x2cae>
   22dc0:	48aa      	ldr	r0, [pc, #680]	@ (2306c <_start+0x2f44>)
   22dc2:	2500      	movs	r5, #0
   22dc4:	4629      	mov	r1, r5
   22dc6:	462a      	mov	r2, r5
   22dc8:	462b      	mov	r3, r5
   22dca:	df02      	svc	2
   22dcc:	9113      	str	r1, [sp, #76]	@ 0x4c
   22dce:	287f      	cmp	r0, #127	@ 0x7f
   22dd0:	d901      	bls.n	22dd6 <_start+0x2cae>
   22dd2:	f000 ffde 	bl	23d92 <_start+0x3c6a>
   22dd6:	9d11      	ldr	r5, [sp, #68]	@ 0x44
   22dd8:	489f      	ldr	r0, [pc, #636]	@ (23058 <_start+0x2f30>)
   22dda:	4468      	add	r0, sp
   22ddc:	f004 f9c0 	bl	27160 <_ZN9allow_pin12full_dynamic17unshare_if_shared17hc38d0bd70fd52db9E>
   22de0:	489e      	ldr	r0, [pc, #632]	@ (2305c <_start+0x2f34>)
   22de2:	4468      	add	r0, sp
   22de4:	f004 f9bc 	bl	27160 <_ZN9allow_pin12full_dynamic17unshare_if_shared17hc38d0bd70fd52db9E>
   22de8:	2d00      	cmp	r5, #0
   22dea:	d001      	beq.n	22df0 <_start+0x2cc8>
   22dec:	f004 f933 	bl	27056 <_start+0x6f2e>
   22df0:	ada3      	add	r5, sp, #652	@ 0x28c
   22df2:	4628      	mov	r0, r5
   22df4:	300c      	adds	r0, #12
   22df6:	a9ff      	add	r1, sp, #1020	@ 0x3fc
   22df8:	31f8      	adds	r1, #248	@ 0xf8
   22dfa:	2203      	movs	r2, #3
   22dfc:	f004 fb71 	bl	274e2 <__aeabi_memcpy>
   22e00:	a8ba      	add	r0, sp, #744	@ 0x2e8
   22e02:	900e      	str	r0, [sp, #56]	@ 0x38
   22e04:	a9e4      	add	r1, sp, #912	@ 0x390
   22e06:	241a      	movs	r4, #26
   22e08:	4622      	mov	r2, r4
   22e0a:	f004 fb6a 	bl	274e2 <__aeabi_memcpy>
   22e0e:	4628      	mov	r0, r5
   22e10:	3013      	adds	r0, #19
   22e12:	990e      	ldr	r1, [sp, #56]	@ 0x38
   22e14:	4622      	mov	r2, r4
   22e16:	f004 fb64 	bl	274e2 <__aeabi_memcpy>
   22e1a:	9913      	ldr	r1, [sp, #76]	@ 0x4c
   22e1c:	0e08      	lsrs	r0, r1, #24
   22e1e:	74a8      	strb	r0, [r5, #18]
   22e20:	0c08      	lsrs	r0, r1, #16
   22e22:	7468      	strb	r0, [r5, #17]
   22e24:	0a08      	lsrs	r0, r1, #8
   22e26:	7428      	strb	r0, [r5, #16]
   22e28:	73e9      	strb	r1, [r5, #15]
   22e2a:	9c12      	ldr	r4, [sp, #72]	@ 0x48
   22e2c:	722c      	strb	r4, [r5, #8]
   22e2e:	488a      	ldr	r0, [pc, #552]	@ (23058 <_start+0x2f30>)
   22e30:	4468      	add	r0, sp
   22e32:	9013      	str	r0, [sp, #76]	@ 0x4c
   22e34:	300c      	adds	r0, #12
   22e36:	2153      	movs	r1, #83	@ 0x53
   22e38:	900e      	str	r0, [sp, #56]	@ 0x38
   22e3a:	f004 f9a5 	bl	27188 <__aeabi_memclr4>
   22e3e:	9813      	ldr	r0, [sp, #76]	@ 0x4c
   22e40:	7204      	strb	r4, [r0, #8]
   22e42:	9400      	str	r4, [sp, #0]
   22e44:	4c8a      	ldr	r4, [pc, #552]	@ (23070 <_start+0x2f48>)
   22e46:	344e      	adds	r4, #78	@ 0x4e
   22e48:	2121      	movs	r1, #33	@ 0x21
   22e4a:	2204      	movs	r2, #4
   22e4c:	4628      	mov	r0, r5
   22e4e:	4623      	mov	r3, r4
   22e50:	f7fd f948 	bl	200e4 <_ZN9allow_pin12full_dynamic15Buffer$LT$B$GT$5allow17h6d4ce413c213cdffE>
   22e54:	9113      	str	r1, [sp, #76]	@ 0x4c
   22e56:	07c0      	lsls	r0, r0, #31
   22e58:	d116      	bne.n	22e88 <_start+0x2d60>
   22e5a:	9810      	ldr	r0, [sp, #64]	@ 0x40
   22e5c:	9000      	str	r0, [sp, #0]
   22e5e:	487e      	ldr	r0, [pc, #504]	@ (23058 <_start+0x2f30>)
   22e60:	4468      	add	r0, sp
   22e62:	2153      	movs	r1, #83	@ 0x53
   22e64:	2203      	movs	r2, #3
   22e66:	4623      	mov	r3, r4
   22e68:	f7fd f93c 	bl	200e4 <_ZN9allow_pin12full_dynamic15Buffer$LT$B$GT$5allow17h6d4ce413c213cdffE>
   22e6c:	9113      	str	r1, [sp, #76]	@ 0x4c
   22e6e:	07c0      	lsls	r0, r0, #31
   22e70:	d10a      	bne.n	22e88 <_start+0x2d60>
   22e72:	4880      	ldr	r0, [pc, #512]	@ (23074 <_start+0x2f4c>)
   22e74:	2102      	movs	r1, #2
   22e76:	2208      	movs	r2, #8
   22e78:	2300      	movs	r3, #0
   22e7a:	461c      	mov	r4, r3
   22e7c:	df02      	svc	2
   22e7e:	9113      	str	r1, [sp, #76]	@ 0x4c
   22e80:	287f      	cmp	r0, #127	@ 0x7f
   22e82:	d901      	bls.n	22e88 <_start+0x2d60>
   22e84:	f000 ffb4 	bl	23df0 <_start+0x3cc8>
   22e88:	9c11      	ldr	r4, [sp, #68]	@ 0x44
   22e8a:	4873      	ldr	r0, [pc, #460]	@ (23058 <_start+0x2f30>)
   22e8c:	4468      	add	r0, sp
   22e8e:	f004 f967 	bl	27160 <_ZN9allow_pin12full_dynamic17unshare_if_shared17hc38d0bd70fd52db9E>
   22e92:	a8a3      	add	r0, sp, #652	@ 0x28c
   22e94:	f004 f964 	bl	27160 <_ZN9allow_pin12full_dynamic17unshare_if_shared17hc38d0bd70fd52db9E>
   22e98:	2c00      	cmp	r4, #0
   22e9a:	d001      	beq.n	22ea0 <_start+0x2d78>
   22e9c:	f004 f8db 	bl	27056 <_start+0x6f2e>
   22ea0:	4d6d      	ldr	r5, [pc, #436]	@ (23058 <_start+0x2f30>)
   22ea2:	446d      	add	r5, sp
   22ea4:	4628      	mov	r0, r5
   22ea6:	300c      	adds	r0, #12
   22ea8:	a9ba      	add	r1, sp, #744	@ 0x2e8
   22eaa:	2203      	movs	r2, #3
   22eac:	f004 fb19 	bl	274e2 <__aeabi_memcpy>
   22eb0:	a876      	add	r0, sp, #472	@ 0x1d8
   22eb2:	900e      	str	r0, [sp, #56]	@ 0x38
   22eb4:	4969      	ldr	r1, [pc, #420]	@ (2305c <_start+0x2f34>)
   22eb6:	4469      	add	r1, sp
   22eb8:	244c      	movs	r4, #76	@ 0x4c
   22eba:	4622      	mov	r2, r4
   22ebc:	f004 f9b1 	bl	27222 <__aeabi_memcpy4>
   22ec0:	9913      	ldr	r1, [sp, #76]	@ 0x4c
   22ec2:	0e08      	lsrs	r0, r1, #24
   22ec4:	74a8      	strb	r0, [r5, #18]
   22ec6:	0c08      	lsrs	r0, r1, #16
   22ec8:	7468      	strb	r0, [r5, #17]
   22eca:	0a08      	lsrs	r0, r1, #8
   22ecc:	7428      	strb	r0, [r5, #16]
   22ece:	73e9      	strb	r1, [r5, #15]
   22ed0:	9812      	ldr	r0, [sp, #72]	@ 0x48
   22ed2:	7228      	strb	r0, [r5, #8]
   22ed4:	4628      	mov	r0, r5
   22ed6:	3013      	adds	r0, #19
   22ed8:	990e      	ldr	r1, [sp, #56]	@ 0x38
   22eda:	4622      	mov	r2, r4
   22edc:	f004 fb01 	bl	274e2 <__aeabi_memcpy>
   22ee0:	4c5e      	ldr	r4, [pc, #376]	@ (2305c <_start+0x2f34>)
   22ee2:	446c      	add	r4, sp
   22ee4:	4620      	mov	r0, r4
   22ee6:	300c      	adds	r0, #12
   22ee8:	214d      	movs	r1, #77	@ 0x4d
   22eea:	900c      	str	r0, [sp, #48]	@ 0x30
   22eec:	f004 f94c 	bl	27188 <__aeabi_memclr4>
   22ef0:	9812      	ldr	r0, [sp, #72]	@ 0x48
   22ef2:	7220      	strb	r0, [r4, #8]
   22ef4:	980d      	ldr	r0, [sp, #52]	@ 0x34
   22ef6:	9000      	str	r0, [sp, #0]
   22ef8:	4c5b      	ldr	r4, [pc, #364]	@ (23068 <_start+0x2f40>)
   22efa:	34c9      	adds	r4, #201	@ 0xc9
   22efc:	2153      	movs	r1, #83	@ 0x53
   22efe:	2204      	movs	r2, #4
   22f00:	4628      	mov	r0, r5
   22f02:	920e      	str	r2, [sp, #56]	@ 0x38
   22f04:	4623      	mov	r3, r4
   22f06:	f7fd f8ed 	bl	200e4 <_ZN9allow_pin12full_dynamic15Buffer$LT$B$GT$5allow17h6d4ce413c213cdffE>
   22f0a:	9113      	str	r1, [sp, #76]	@ 0x4c
   22f0c:	07c0      	lsls	r0, r0, #31
   22f0e:	d116      	bne.n	22f3e <_start+0x2e16>
   22f10:	980e      	ldr	r0, [sp, #56]	@ 0x38
   22f12:	9000      	str	r0, [sp, #0]
   22f14:	4851      	ldr	r0, [pc, #324]	@ (2305c <_start+0x2f34>)
   22f16:	4468      	add	r0, sp
   22f18:	214d      	movs	r1, #77	@ 0x4d
   22f1a:	2203      	movs	r2, #3
   22f1c:	4623      	mov	r3, r4
   22f1e:	f7fd f8e1 	bl	200e4 <_ZN9allow_pin12full_dynamic15Buffer$LT$B$GT$5allow17h6d4ce413c213cdffE>
   22f22:	9113      	str	r1, [sp, #76]	@ 0x4c
   22f24:	07c0      	lsls	r0, r0, #31
   22f26:	d10a      	bne.n	22f3e <_start+0x2e16>
   22f28:	4853      	ldr	r0, [pc, #332]	@ (23078 <_start+0x2f50>)
   22f2a:	2109      	movs	r1, #9
   22f2c:	2204      	movs	r2, #4
   22f2e:	2300      	movs	r3, #0
   22f30:	461c      	mov	r4, r3
   22f32:	df02      	svc	2
   22f34:	9113      	str	r1, [sp, #76]	@ 0x4c
   22f36:	287f      	cmp	r0, #127	@ 0x7f
   22f38:	d901      	bls.n	22f3e <_start+0x2e16>
   22f3a:	f000 ff89 	bl	23e50 <_start+0x3d28>
   22f3e:	9c11      	ldr	r4, [sp, #68]	@ 0x44
   22f40:	4846      	ldr	r0, [pc, #280]	@ (2305c <_start+0x2f34>)
   22f42:	4468      	add	r0, sp
   22f44:	f004 f90c 	bl	27160 <_ZN9allow_pin12full_dynamic17unshare_if_shared17hc38d0bd70fd52db9E>
   22f48:	4843      	ldr	r0, [pc, #268]	@ (23058 <_start+0x2f30>)
   22f4a:	4468      	add	r0, sp
   22f4c:	f004 f908 	bl	27160 <_ZN9allow_pin12full_dynamic17unshare_if_shared17hc38d0bd70fd52db9E>
   22f50:	2c00      	cmp	r4, #0
   22f52:	d001      	beq.n	22f58 <_start+0x2e30>
   22f54:	f004 f87f 	bl	27056 <_start+0x6f2e>
   22f58:	4d3f      	ldr	r5, [pc, #252]	@ (23058 <_start+0x2f30>)
   22f5a:	446d      	add	r5, sp
   22f5c:	4628      	mov	r0, r5
   22f5e:	300c      	adds	r0, #12
   22f60:	a9e4      	add	r1, sp, #912	@ 0x390
   22f62:	2203      	movs	r2, #3
   22f64:	920c      	str	r2, [sp, #48]	@ 0x30
   22f66:	f004 fabc 	bl	274e2 <__aeabi_memcpy>
   22f6a:	a8a3      	add	r0, sp, #652	@ 0x28c
   22f6c:	900b      	str	r0, [sp, #44]	@ 0x2c
   22f6e:	a9ba      	add	r1, sp, #744	@ 0x2e8
   22f70:	2446      	movs	r4, #70	@ 0x46
   22f72:	4622      	mov	r2, r4
   22f74:	f004 f955 	bl	27222 <__aeabi_memcpy4>
   22f78:	4628      	mov	r0, r5
   22f7a:	3013      	adds	r0, #19
   22f7c:	990b      	ldr	r1, [sp, #44]	@ 0x2c
   22f7e:	4622      	mov	r2, r4
   22f80:	f004 faaf 	bl	274e2 <__aeabi_memcpy>
   22f84:	9913      	ldr	r1, [sp, #76]	@ 0x4c
   22f86:	0e08      	lsrs	r0, r1, #24
   22f88:	74a8      	strb	r0, [r5, #18]
   22f8a:	0c08      	lsrs	r0, r1, #16
   22f8c:	7468      	strb	r0, [r5, #17]
   22f8e:	0a08      	lsrs	r0, r1, #8
   22f90:	7428      	strb	r0, [r5, #16]
   22f92:	73e9      	strb	r1, [r5, #15]
   22f94:	9812      	ldr	r0, [sp, #72]	@ 0x48
   22f96:	7228      	strb	r0, [r5, #8]
   22f98:	4c30      	ldr	r4, [pc, #192]	@ (2305c <_start+0x2f34>)
   22f9a:	446c      	add	r4, sp
   22f9c:	4620      	mov	r0, r4
   22f9e:	300c      	adds	r0, #12
   22fa0:	213c      	movs	r1, #60	@ 0x3c
   22fa2:	900b      	str	r0, [sp, #44]	@ 0x2c
   22fa4:	f004 f8f0 	bl	27188 <__aeabi_memclr4>
   22fa8:	9812      	ldr	r0, [sp, #72]	@ 0x48
   22faa:	7220      	strb	r0, [r4, #8]
   22fac:	9a0e      	ldr	r2, [sp, #56]	@ 0x38
   22fae:	9200      	str	r2, [sp, #0]
   22fb0:	4c32      	ldr	r4, [pc, #200]	@ (2307c <_start+0x2f54>)
   22fb2:	3455      	adds	r4, #85	@ 0x55
   22fb4:	214d      	movs	r1, #77	@ 0x4d
   22fb6:	4628      	mov	r0, r5
   22fb8:	4623      	mov	r3, r4
   22fba:	f7fd f893 	bl	200e4 <_ZN9allow_pin12full_dynamic15Buffer$LT$B$GT$5allow17h6d4ce413c213cdffE>
   22fbe:	9113      	str	r1, [sp, #76]	@ 0x4c
   22fc0:	07c0      	lsls	r0, r0, #31
   22fc2:	d116      	bne.n	22ff2 <_start+0x2eca>
   22fc4:	980d      	ldr	r0, [sp, #52]	@ 0x34
   22fc6:	9000      	str	r0, [sp, #0]
   22fc8:	4824      	ldr	r0, [pc, #144]	@ (2305c <_start+0x2f34>)
   22fca:	4468      	add	r0, sp
   22fcc:	213c      	movs	r1, #60	@ 0x3c
   22fce:	2203      	movs	r2, #3
   22fd0:	4623      	mov	r3, r4
   22fd2:	f7fd f887 	bl	200e4 <_ZN9allow_pin12full_dynamic15Buffer$LT$B$GT$5allow17h6d4ce413c213cdffE>
   22fd6:	9113      	str	r1, [sp, #76]	@ 0x4c
   22fd8:	07c0      	lsls	r0, r0, #31
   22fda:	d10a      	bne.n	22ff2 <_start+0x2eca>
   22fdc:	4828      	ldr	r0, [pc, #160]	@ (23080 <_start+0x2f58>)
   22fde:	2104      	movs	r1, #4
   22fe0:	2209      	movs	r2, #9
   22fe2:	2300      	movs	r3, #0
   22fe4:	461c      	mov	r4, r3
   22fe6:	df02      	svc	2
   22fe8:	9113      	str	r1, [sp, #76]	@ 0x4c
   22fea:	287f      	cmp	r0, #127	@ 0x7f
   22fec:	d901      	bls.n	22ff2 <_start+0x2eca>
   22fee:	f000 ff5f 	bl	23eb0 <_start+0x3d88>
   22ff2:	9c11      	ldr	r4, [sp, #68]	@ 0x44
   22ff4:	f000 ff8a 	bl	23f0c <_start+0x3de4>
   22ff8:	000005cc 	.word	0x000005cc
   22ffc:	00000d5d 	.word	0x00000d5d
   23000:	4816      	ldr	r0, [pc, #88]	@ (2305c <_start+0x2f34>)
   23002:	4468      	add	r0, sp
   23004:	4c1f      	ldr	r4, [pc, #124]	@ (23084 <_start+0x2f5c>)
   23006:	47a0      	blx	r4
   23008:	4e13      	ldr	r6, [pc, #76]	@ (23058 <_start+0x2f30>)
   2300a:	446e      	add	r6, sp
   2300c:	4630      	mov	r0, r6
   2300e:	47a0      	blx	r4
   23010:	4630      	mov	r0, r6
   23012:	47a0      	blx	r4
   23014:	9a0c      	ldr	r2, [sp, #48]	@ 0x30
   23016:	7890      	ldrb	r0, [r2, #2]
   23018:	a9e4      	add	r1, sp, #912	@ 0x390
   2301a:	7088      	strb	r0, [r1, #2]
   2301c:	7810      	ldrb	r0, [r2, #0]
   2301e:	7852      	ldrb	r2, [r2, #1]
   23020:	0212      	lsls	r2, r2, #8
   23022:	1810      	adds	r0, r2, r0
   23024:	8008      	strh	r0, [r1, #0]
   23026:	7cb0      	ldrb	r0, [r6, #18]
   23028:	9013      	str	r0, [sp, #76]	@ 0x4c
   2302a:	7c70      	ldrb	r0, [r6, #17]
   2302c:	900c      	str	r0, [sp, #48]	@ 0x30
   2302e:	7bf0      	ldrb	r0, [r6, #15]
   23030:	9004      	str	r0, [sp, #16]
   23032:	7c34      	ldrb	r4, [r6, #16]
   23034:	3613      	adds	r6, #19
   23036:	a8ba      	add	r0, sp, #744	@ 0x2e8
   23038:	2225      	movs	r2, #37	@ 0x25
   2303a:	4631      	mov	r1, r6
   2303c:	f004 fa51 	bl	274e2 <__aeabi_memcpy>
   23040:	0220      	lsls	r0, r4, #8
   23042:	9904      	ldr	r1, [sp, #16]
   23044:	1840      	adds	r0, r0, r1
   23046:	990c      	ldr	r1, [sp, #48]	@ 0x30
   23048:	0409      	lsls	r1, r1, #16
   2304a:	9a13      	ldr	r2, [sp, #76]	@ 0x4c
   2304c:	0612      	lsls	r2, r2, #24
   2304e:	1851      	adds	r1, r2, r1
   23050:	1808      	adds	r0, r1, r0
   23052:	9013      	str	r0, [sp, #76]	@ 0x4c
   23054:	f7fd ffd3 	bl	20ffe <_start+0xed6>
   23058:	000005cc 	.word	0x000005cc
   2305c:	00000568 	.word	0x00000568
   23060:	000013bf 	.word	0x000013bf
   23064:	00001465 	.word	0x00001465
   23068:	000015f1 	.word	0x000015f1
   2306c:	000016b0 	.word	0x000016b0
   23070:	000024f0 	.word	0x000024f0
   23074:	0000253e 	.word	0x0000253e
   23078:	000016ba 	.word	0x000016ba
   2307c:	00002156 	.word	0x00002156
   23080:	000021ab 	.word	0x000021ab
   23084:	00027161 	.word	0x00027161
   23088:	48f1      	ldr	r0, [pc, #964]	@ (23450 <_start+0x3328>)
   2308a:	4468      	add	r0, sp
   2308c:	4df1      	ldr	r5, [pc, #964]	@ (23454 <_start+0x332c>)
   2308e:	47a8      	blx	r5
   23090:	4ef1      	ldr	r6, [pc, #964]	@ (23458 <_start+0x3330>)
   23092:	446e      	add	r6, sp
   23094:	4630      	mov	r0, r6
   23096:	47a8      	blx	r5
   23098:	4630      	mov	r0, r6
   2309a:	47a8      	blx	r5
   2309c:	9a04      	ldr	r2, [sp, #16]
   2309e:	7890      	ldrb	r0, [r2, #2]
   230a0:	a9e4      	add	r1, sp, #912	@ 0x390
   230a2:	7088      	strb	r0, [r1, #2]
   230a4:	7810      	ldrb	r0, [r2, #0]
   230a6:	7852      	ldrb	r2, [r2, #1]
   230a8:	0212      	lsls	r2, r2, #8
   230aa:	1810      	adds	r0, r2, r0
   230ac:	8008      	strh	r0, [r1, #0]
   230ae:	7cb0      	ldrb	r0, [r6, #18]
   230b0:	9013      	str	r0, [sp, #76]	@ 0x4c
   230b2:	7c70      	ldrb	r0, [r6, #17]
   230b4:	900d      	str	r0, [sp, #52]	@ 0x34
   230b6:	7bf0      	ldrb	r0, [r6, #15]
   230b8:	900c      	str	r0, [sp, #48]	@ 0x30
   230ba:	7c35      	ldrb	r5, [r6, #16]
   230bc:	3613      	adds	r6, #19
   230be:	a8ba      	add	r0, sp, #744	@ 0x2e8
   230c0:	221e      	movs	r2, #30
   230c2:	4631      	mov	r1, r6
   230c4:	f004 fa0d 	bl	274e2 <__aeabi_memcpy>
   230c8:	0228      	lsls	r0, r5, #8
   230ca:	990c      	ldr	r1, [sp, #48]	@ 0x30
   230cc:	1840      	adds	r0, r0, r1
   230ce:	990d      	ldr	r1, [sp, #52]	@ 0x34
   230d0:	0409      	lsls	r1, r1, #16
   230d2:	9a13      	ldr	r2, [sp, #76]	@ 0x4c
   230d4:	0612      	lsls	r2, r2, #24
   230d6:	1851      	adds	r1, r2, r1
   230d8:	1808      	adds	r0, r1, r0
   230da:	9013      	str	r0, [sp, #76]	@ 0x4c
   230dc:	f7fd fffd 	bl	210da <_start+0xfb2>
   230e0:	48db      	ldr	r0, [pc, #876]	@ (23450 <_start+0x3328>)
   230e2:	4468      	add	r0, sp
   230e4:	4cdb      	ldr	r4, [pc, #876]	@ (23454 <_start+0x332c>)
   230e6:	47a0      	blx	r4
   230e8:	4edb      	ldr	r6, [pc, #876]	@ (23458 <_start+0x3330>)
   230ea:	446e      	add	r6, sp
   230ec:	4630      	mov	r0, r6
   230ee:	47a0      	blx	r4
   230f0:	4630      	mov	r0, r6
   230f2:	47a0      	blx	r4
   230f4:	9a0d      	ldr	r2, [sp, #52]	@ 0x34
   230f6:	7890      	ldrb	r0, [r2, #2]
   230f8:	a9ff      	add	r1, sp, #1020	@ 0x3fc
   230fa:	31f8      	adds	r1, #248	@ 0xf8
   230fc:	7088      	strb	r0, [r1, #2]
   230fe:	7810      	ldrb	r0, [r2, #0]
   23100:	7852      	ldrb	r2, [r2, #1]
   23102:	0212      	lsls	r2, r2, #8
   23104:	1810      	adds	r0, r2, r0
   23106:	8008      	strh	r0, [r1, #0]
   23108:	7cb0      	ldrb	r0, [r6, #18]
   2310a:	9013      	str	r0, [sp, #76]	@ 0x4c
   2310c:	7c70      	ldrb	r0, [r6, #17]
   2310e:	900d      	str	r0, [sp, #52]	@ 0x34
   23110:	7bf0      	ldrb	r0, [r6, #15]
   23112:	900c      	str	r0, [sp, #48]	@ 0x30
   23114:	7c34      	ldrb	r4, [r6, #16]
   23116:	3613      	adds	r6, #19
   23118:	a8e4      	add	r0, sp, #912	@ 0x390
   2311a:	2211      	movs	r2, #17
   2311c:	4631      	mov	r1, r6
   2311e:	f004 f9e0 	bl	274e2 <__aeabi_memcpy>
   23122:	0220      	lsls	r0, r4, #8
   23124:	990c      	ldr	r1, [sp, #48]	@ 0x30
   23126:	1840      	adds	r0, r0, r1
   23128:	990d      	ldr	r1, [sp, #52]	@ 0x34
   2312a:	0409      	lsls	r1, r1, #16
   2312c:	9a13      	ldr	r2, [sp, #76]	@ 0x4c
   2312e:	0612      	lsls	r2, r2, #24
   23130:	1851      	adds	r1, r2, r1
   23132:	1808      	adds	r0, r1, r0
   23134:	9013      	str	r0, [sp, #76]	@ 0x4c
   23136:	f7fe f83a 	bl	211ae <_start+0x1086>
   2313a:	a8ba      	add	r0, sp, #744	@ 0x2e8
   2313c:	4cc5      	ldr	r4, [pc, #788]	@ (23454 <_start+0x332c>)
   2313e:	47a0      	blx	r4
   23140:	4ec3      	ldr	r6, [pc, #780]	@ (23450 <_start+0x3328>)
   23142:	446e      	add	r6, sp
   23144:	4630      	mov	r0, r6
   23146:	47a0      	blx	r4
   23148:	4630      	mov	r0, r6
   2314a:	47a0      	blx	r4
   2314c:	9a0c      	ldr	r2, [sp, #48]	@ 0x30
   2314e:	7890      	ldrb	r0, [r2, #2]
   23150:	a9e4      	add	r1, sp, #912	@ 0x390
   23152:	7088      	strb	r0, [r1, #2]
   23154:	7810      	ldrb	r0, [r2, #0]
   23156:	7852      	ldrb	r2, [r2, #1]
   23158:	0212      	lsls	r2, r2, #8
   2315a:	1810      	adds	r0, r2, r0
   2315c:	8008      	strh	r0, [r1, #0]
   2315e:	7cb0      	ldrb	r0, [r6, #18]
   23160:	9013      	str	r0, [sp, #76]	@ 0x4c
   23162:	7c70      	ldrb	r0, [r6, #17]
   23164:	900c      	str	r0, [sp, #48]	@ 0x30
   23166:	7bf0      	ldrb	r0, [r6, #15]
   23168:	9004      	str	r0, [sp, #16]
   2316a:	7c34      	ldrb	r4, [r6, #16]
   2316c:	3613      	adds	r6, #19
   2316e:	a8a3      	add	r0, sp, #652	@ 0x28c
   23170:	222f      	movs	r2, #47	@ 0x2f
   23172:	4631      	mov	r1, r6
   23174:	f004 f9b5 	bl	274e2 <__aeabi_memcpy>
   23178:	0220      	lsls	r0, r4, #8
   2317a:	9904      	ldr	r1, [sp, #16]
   2317c:	1840      	adds	r0, r0, r1
   2317e:	990c      	ldr	r1, [sp, #48]	@ 0x30
   23180:	0409      	lsls	r1, r1, #16
   23182:	9a13      	ldr	r2, [sp, #76]	@ 0x4c
   23184:	0612      	lsls	r2, r2, #24
   23186:	1851      	adds	r1, r2, r1
   23188:	1808      	adds	r0, r1, r0
   2318a:	9013      	str	r0, [sp, #76]	@ 0x4c
   2318c:	f7fe f874 	bl	21278 <_start+0x1150>
   23190:	48af      	ldr	r0, [pc, #700]	@ (23450 <_start+0x3328>)
   23192:	4468      	add	r0, sp
   23194:	4caf      	ldr	r4, [pc, #700]	@ (23454 <_start+0x332c>)
   23196:	47a0      	blx	r4
   23198:	4eaf      	ldr	r6, [pc, #700]	@ (23458 <_start+0x3330>)
   2319a:	446e      	add	r6, sp
   2319c:	4630      	mov	r0, r6
   2319e:	47a0      	blx	r4
   231a0:	4630      	mov	r0, r6
   231a2:	47a0      	blx	r4
   231a4:	9a0c      	ldr	r2, [sp, #48]	@ 0x30
   231a6:	7890      	ldrb	r0, [r2, #2]
   231a8:	a9e4      	add	r1, sp, #912	@ 0x390
   231aa:	7088      	strb	r0, [r1, #2]
   231ac:	7810      	ldrb	r0, [r2, #0]
   231ae:	7852      	ldrb	r2, [r2, #1]
   231b0:	0212      	lsls	r2, r2, #8
   231b2:	1810      	adds	r0, r2, r0
   231b4:	8008      	strh	r0, [r1, #0]
   231b6:	7cb0      	ldrb	r0, [r6, #18]
   231b8:	9013      	str	r0, [sp, #76]	@ 0x4c
   231ba:	7c70      	ldrb	r0, [r6, #17]
   231bc:	900d      	str	r0, [sp, #52]	@ 0x34
   231be:	7bf0      	ldrb	r0, [r6, #15]
   231c0:	900c      	str	r0, [sp, #48]	@ 0x30
   231c2:	7c34      	ldrb	r4, [r6, #16]
   231c4:	3613      	adds	r6, #19
   231c6:	a8ba      	add	r0, sp, #744	@ 0x2e8
   231c8:	222d      	movs	r2, #45	@ 0x2d
   231ca:	4631      	mov	r1, r6
   231cc:	f004 f989 	bl	274e2 <__aeabi_memcpy>
   231d0:	0220      	lsls	r0, r4, #8
   231d2:	990c      	ldr	r1, [sp, #48]	@ 0x30
   231d4:	1840      	adds	r0, r0, r1
   231d6:	990d      	ldr	r1, [sp, #52]	@ 0x34
   231d8:	0409      	lsls	r1, r1, #16
   231da:	9a13      	ldr	r2, [sp, #76]	@ 0x4c
   231dc:	0612      	lsls	r2, r2, #24
   231de:	1851      	adds	r1, r2, r1
   231e0:	1808      	adds	r0, r1, r0
   231e2:	9013      	str	r0, [sp, #76]	@ 0x4c
   231e4:	f7fe f8b1 	bl	2134a <_start+0x1222>
   231e8:	4899      	ldr	r0, [pc, #612]	@ (23450 <_start+0x3328>)
   231ea:	4468      	add	r0, sp
   231ec:	4c99      	ldr	r4, [pc, #612]	@ (23454 <_start+0x332c>)
   231ee:	47a0      	blx	r4
   231f0:	4e99      	ldr	r6, [pc, #612]	@ (23458 <_start+0x3330>)
   231f2:	446e      	add	r6, sp
   231f4:	4630      	mov	r0, r6
   231f6:	47a0      	blx	r4
   231f8:	4630      	mov	r0, r6
   231fa:	47a0      	blx	r4
   231fc:	9a0d      	ldr	r2, [sp, #52]	@ 0x34
   231fe:	7890      	ldrb	r0, [r2, #2]
   23200:	a9e4      	add	r1, sp, #912	@ 0x390
   23202:	7088      	strb	r0, [r1, #2]
   23204:	7810      	ldrb	r0, [r2, #0]
   23206:	7852      	ldrb	r2, [r2, #1]
   23208:	0212      	lsls	r2, r2, #8
   2320a:	1810      	adds	r0, r2, r0
   2320c:	8008      	strh	r0, [r1, #0]
   2320e:	7cb0      	ldrb	r0, [r6, #18]
   23210:	9013      	str	r0, [sp, #76]	@ 0x4c
   23212:	7c70      	ldrb	r0, [r6, #17]
   23214:	900d      	str	r0, [sp, #52]	@ 0x34
   23216:	7bf0      	ldrb	r0, [r6, #15]
   23218:	900c      	str	r0, [sp, #48]	@ 0x30
   2321a:	7c34      	ldrb	r4, [r6, #16]
   2321c:	3613      	adds	r6, #19
   2321e:	a8ba      	add	r0, sp, #744	@ 0x2e8
   23220:	2227      	movs	r2, #39	@ 0x27
   23222:	4631      	mov	r1, r6
   23224:	f004 f95d 	bl	274e2 <__aeabi_memcpy>
   23228:	0220      	lsls	r0, r4, #8
   2322a:	990c      	ldr	r1, [sp, #48]	@ 0x30
   2322c:	1840      	adds	r0, r0, r1
   2322e:	990d      	ldr	r1, [sp, #52]	@ 0x34
   23230:	0409      	lsls	r1, r1, #16
   23232:	9a13      	ldr	r2, [sp, #76]	@ 0x4c
   23234:	0612      	lsls	r2, r2, #24
   23236:	1851      	adds	r1, r2, r1
   23238:	1808      	adds	r0, r1, r0
   2323a:	9013      	str	r0, [sp, #76]	@ 0x4c
   2323c:	f7fe f8ef 	bl	2141e <_start+0x12f6>
   23240:	4885      	ldr	r0, [pc, #532]	@ (23458 <_start+0x3330>)
   23242:	4468      	add	r0, sp
   23244:	4c83      	ldr	r4, [pc, #524]	@ (23454 <_start+0x332c>)
   23246:	47a0      	blx	r4
   23248:	4e81      	ldr	r6, [pc, #516]	@ (23450 <_start+0x3328>)
   2324a:	446e      	add	r6, sp
   2324c:	4630      	mov	r0, r6
   2324e:	47a0      	blx	r4
   23250:	4630      	mov	r0, r6
   23252:	47a0      	blx	r4
   23254:	9a0d      	ldr	r2, [sp, #52]	@ 0x34
   23256:	7890      	ldrb	r0, [r2, #2]
   23258:	a9e4      	add	r1, sp, #912	@ 0x390
   2325a:	7088      	strb	r0, [r1, #2]
   2325c:	7810      	ldrb	r0, [r2, #0]
   2325e:	7852      	ldrb	r2, [r2, #1]
   23260:	0212      	lsls	r2, r2, #8
   23262:	1810      	adds	r0, r2, r0
   23264:	8008      	strh	r0, [r1, #0]
   23266:	7cb0      	ldrb	r0, [r6, #18]
   23268:	9013      	str	r0, [sp, #76]	@ 0x4c
   2326a:	7c70      	ldrb	r0, [r6, #17]
   2326c:	900d      	str	r0, [sp, #52]	@ 0x34
   2326e:	7bf0      	ldrb	r0, [r6, #15]
   23270:	900c      	str	r0, [sp, #48]	@ 0x30
   23272:	7c34      	ldrb	r4, [r6, #16]
   23274:	3613      	adds	r6, #19
   23276:	a8ba      	add	r0, sp, #744	@ 0x2e8
   23278:	2231      	movs	r2, #49	@ 0x31
   2327a:	4631      	mov	r1, r6
   2327c:	f004 f931 	bl	274e2 <__aeabi_memcpy>
   23280:	0220      	lsls	r0, r4, #8
   23282:	990c      	ldr	r1, [sp, #48]	@ 0x30
   23284:	1840      	adds	r0, r0, r1
   23286:	990d      	ldr	r1, [sp, #52]	@ 0x34
   23288:	0409      	lsls	r1, r1, #16
   2328a:	9a13      	ldr	r2, [sp, #76]	@ 0x4c
   2328c:	0612      	lsls	r2, r2, #24
   2328e:	1851      	adds	r1, r2, r1
   23290:	1808      	adds	r0, r1, r0
   23292:	9013      	str	r0, [sp, #76]	@ 0x4c
   23294:	f7fe f92f 	bl	214f6 <_start+0x13ce>
   23298:	486d      	ldr	r0, [pc, #436]	@ (23450 <_start+0x3328>)
   2329a:	4468      	add	r0, sp
   2329c:	4d6d      	ldr	r5, [pc, #436]	@ (23454 <_start+0x332c>)
   2329e:	47a8      	blx	r5
   232a0:	4e6d      	ldr	r6, [pc, #436]	@ (23458 <_start+0x3330>)
   232a2:	446e      	add	r6, sp
   232a4:	4630      	mov	r0, r6
   232a6:	47a8      	blx	r5
   232a8:	4630      	mov	r0, r6
   232aa:	47a8      	blx	r5
   232ac:	9a0c      	ldr	r2, [sp, #48]	@ 0x30
   232ae:	7890      	ldrb	r0, [r2, #2]
   232b0:	a9e4      	add	r1, sp, #912	@ 0x390
   232b2:	7088      	strb	r0, [r1, #2]
   232b4:	7810      	ldrb	r0, [r2, #0]
   232b6:	7852      	ldrb	r2, [r2, #1]
   232b8:	0212      	lsls	r2, r2, #8
   232ba:	1810      	adds	r0, r2, r0
   232bc:	8008      	strh	r0, [r1, #0]
   232be:	7cb0      	ldrb	r0, [r6, #18]
   232c0:	9013      	str	r0, [sp, #76]	@ 0x4c
   232c2:	7c70      	ldrb	r0, [r6, #17]
   232c4:	900d      	str	r0, [sp, #52]	@ 0x34
   232c6:	7bf0      	ldrb	r0, [r6, #15]
   232c8:	900c      	str	r0, [sp, #48]	@ 0x30
   232ca:	7c35      	ldrb	r5, [r6, #16]
   232cc:	3613      	adds	r6, #19
   232ce:	a8ba      	add	r0, sp, #744	@ 0x2e8
   232d0:	222d      	movs	r2, #45	@ 0x2d
   232d2:	4631      	mov	r1, r6
   232d4:	f004 f905 	bl	274e2 <__aeabi_memcpy>
   232d8:	0228      	lsls	r0, r5, #8
   232da:	990c      	ldr	r1, [sp, #48]	@ 0x30
   232dc:	1840      	adds	r0, r0, r1
   232de:	990d      	ldr	r1, [sp, #52]	@ 0x34
   232e0:	0409      	lsls	r1, r1, #16
   232e2:	9a13      	ldr	r2, [sp, #76]	@ 0x4c
   232e4:	0612      	lsls	r2, r2, #24
   232e6:	1851      	adds	r1, r2, r1
   232e8:	1808      	adds	r0, r1, r0
   232ea:	9013      	str	r0, [sp, #76]	@ 0x4c
   232ec:	f7fe f968 	bl	215c0 <_start+0x1498>
   232f0:	4857      	ldr	r0, [pc, #348]	@ (23450 <_start+0x3328>)
   232f2:	4468      	add	r0, sp
   232f4:	4c57      	ldr	r4, [pc, #348]	@ (23454 <_start+0x332c>)
   232f6:	47a0      	blx	r4
   232f8:	4e57      	ldr	r6, [pc, #348]	@ (23458 <_start+0x3330>)
   232fa:	446e      	add	r6, sp
   232fc:	4630      	mov	r0, r6
   232fe:	47a0      	blx	r4
   23300:	4630      	mov	r0, r6
   23302:	47a0      	blx	r4
   23304:	9a0d      	ldr	r2, [sp, #52]	@ 0x34
   23306:	7890      	ldrb	r0, [r2, #2]
   23308:	a9ff      	add	r1, sp, #1020	@ 0x3fc
   2330a:	31f8      	adds	r1, #248	@ 0xf8
   2330c:	7088      	strb	r0, [r1, #2]
   2330e:	7810      	ldrb	r0, [r2, #0]
   23310:	7852      	ldrb	r2, [r2, #1]
   23312:	0212      	lsls	r2, r2, #8
   23314:	1810      	adds	r0, r2, r0
   23316:	8008      	strh	r0, [r1, #0]
   23318:	7cb0      	ldrb	r0, [r6, #18]
   2331a:	9013      	str	r0, [sp, #76]	@ 0x4c
   2331c:	7c70      	ldrb	r0, [r6, #17]
   2331e:	900d      	str	r0, [sp, #52]	@ 0x34
   23320:	7bf0      	ldrb	r0, [r6, #15]
   23322:	900c      	str	r0, [sp, #48]	@ 0x30
   23324:	7c34      	ldrb	r4, [r6, #16]
   23326:	3613      	adds	r6, #19
   23328:	a8e4      	add	r0, sp, #912	@ 0x390
   2332a:	2213      	movs	r2, #19
   2332c:	4631      	mov	r1, r6
   2332e:	f004 f8d8 	bl	274e2 <__aeabi_memcpy>
   23332:	0220      	lsls	r0, r4, #8
   23334:	990c      	ldr	r1, [sp, #48]	@ 0x30
   23336:	1840      	adds	r0, r0, r1
   23338:	990d      	ldr	r1, [sp, #52]	@ 0x34
   2333a:	0409      	lsls	r1, r1, #16
   2333c:	9a13      	ldr	r2, [sp, #76]	@ 0x4c
   2333e:	0612      	lsls	r2, r2, #24
   23340:	1851      	adds	r1, r2, r1
   23342:	1808      	adds	r0, r1, r0
   23344:	9013      	str	r0, [sp, #76]	@ 0x4c
   23346:	f7fe f9a6 	bl	21696 <_start+0x156e>
   2334a:	a8ba      	add	r0, sp, #744	@ 0x2e8
   2334c:	4c41      	ldr	r4, [pc, #260]	@ (23454 <_start+0x332c>)
   2334e:	47a0      	blx	r4
   23350:	4e3f      	ldr	r6, [pc, #252]	@ (23450 <_start+0x3328>)
   23352:	446e      	add	r6, sp
   23354:	4630      	mov	r0, r6
   23356:	47a0      	blx	r4
   23358:	4630      	mov	r0, r6
   2335a:	47a0      	blx	r4
   2335c:	9a04      	ldr	r2, [sp, #16]
   2335e:	7890      	ldrb	r0, [r2, #2]
   23360:	a9e4      	add	r1, sp, #912	@ 0x390
   23362:	7088      	strb	r0, [r1, #2]
   23364:	7810      	ldrb	r0, [r2, #0]
   23366:	7852      	ldrb	r2, [r2, #1]
   23368:	0212      	lsls	r2, r2, #8
   2336a:	1810      	adds	r0, r2, r0
   2336c:	8008      	strh	r0, [r1, #0]
   2336e:	7cb0      	ldrb	r0, [r6, #18]
   23370:	9013      	str	r0, [sp, #76]	@ 0x4c
   23372:	7c70      	ldrb	r0, [r6, #17]
   23374:	900d      	str	r0, [sp, #52]	@ 0x34
   23376:	7bf0      	ldrb	r0, [r6, #15]
   23378:	9004      	str	r0, [sp, #16]
   2337a:	7c34      	ldrb	r4, [r6, #16]
   2337c:	3613      	adds	r6, #19
   2337e:	a8a3      	add	r0, sp, #652	@ 0x28c
   23380:	2249      	movs	r2, #73	@ 0x49
   23382:	4631      	mov	r1, r6
   23384:	f004 f8ad 	bl	274e2 <__aeabi_memcpy>
   23388:	0220      	lsls	r0, r4, #8
   2338a:	9904      	ldr	r1, [sp, #16]
   2338c:	1840      	adds	r0, r0, r1
   2338e:	990d      	ldr	r1, [sp, #52]	@ 0x34
   23390:	0409      	lsls	r1, r1, #16
   23392:	9a13      	ldr	r2, [sp, #76]	@ 0x4c
   23394:	0612      	lsls	r2, r2, #24
   23396:	1851      	adds	r1, r2, r1
   23398:	1808      	adds	r0, r1, r0
   2339a:	9013      	str	r0, [sp, #76]	@ 0x4c
   2339c:	f7fe f9e7 	bl	2176e <_start+0x1646>
   233a0:	482b      	ldr	r0, [pc, #172]	@ (23450 <_start+0x3328>)
   233a2:	4468      	add	r0, sp
   233a4:	4c2b      	ldr	r4, [pc, #172]	@ (23454 <_start+0x332c>)
   233a6:	47a0      	blx	r4
   233a8:	4e2b      	ldr	r6, [pc, #172]	@ (23458 <_start+0x3330>)
   233aa:	446e      	add	r6, sp
   233ac:	4630      	mov	r0, r6
   233ae:	47a0      	blx	r4
   233b0:	4630      	mov	r0, r6
   233b2:	47a0      	blx	r4
   233b4:	9a0d      	ldr	r2, [sp, #52]	@ 0x34
   233b6:	7890      	ldrb	r0, [r2, #2]
   233b8:	a9e4      	add	r1, sp, #912	@ 0x390
   233ba:	7088      	strb	r0, [r1, #2]
   233bc:	7810      	ldrb	r0, [r2, #0]
   233be:	7852      	ldrb	r2, [r2, #1]
   233c0:	0212      	lsls	r2, r2, #8
   233c2:	1810      	adds	r0, r2, r0
   233c4:	8008      	strh	r0, [r1, #0]
   233c6:	7cb0      	ldrb	r0, [r6, #18]
   233c8:	9013      	str	r0, [sp, #76]	@ 0x4c
   233ca:	7c70      	ldrb	r0, [r6, #17]
   233cc:	900d      	str	r0, [sp, #52]	@ 0x34
   233ce:	7bf0      	ldrb	r0, [r6, #15]
   233d0:	900c      	str	r0, [sp, #48]	@ 0x30
   233d2:	7c34      	ldrb	r4, [r6, #16]
   233d4:	3613      	adds	r6, #19
   233d6:	a8ba      	add	r0, sp, #744	@ 0x2e8
   233d8:	2235      	movs	r2, #53	@ 0x35
   233da:	4631      	mov	r1, r6
   233dc:	f004 f881 	bl	274e2 <__aeabi_memcpy>
   233e0:	0220      	lsls	r0, r4, #8
   233e2:	990c      	ldr	r1, [sp, #48]	@ 0x30
   233e4:	1840      	adds	r0, r0, r1
   233e6:	990d      	ldr	r1, [sp, #52]	@ 0x34
   233e8:	0409      	lsls	r1, r1, #16
   233ea:	9a13      	ldr	r2, [sp, #76]	@ 0x4c
   233ec:	0612      	lsls	r2, r2, #24
   233ee:	1851      	adds	r1, r2, r1
   233f0:	1808      	adds	r0, r1, r0
   233f2:	9013      	str	r0, [sp, #76]	@ 0x4c
   233f4:	f7fe fa25 	bl	21842 <_start+0x171a>
   233f8:	4815      	ldr	r0, [pc, #84]	@ (23450 <_start+0x3328>)
   233fa:	4468      	add	r0, sp
   233fc:	4c15      	ldr	r4, [pc, #84]	@ (23454 <_start+0x332c>)
   233fe:	47a0      	blx	r4
   23400:	4e15      	ldr	r6, [pc, #84]	@ (23458 <_start+0x3330>)
   23402:	446e      	add	r6, sp
   23404:	4630      	mov	r0, r6
   23406:	47a0      	blx	r4
   23408:	4630      	mov	r0, r6
   2340a:	47a0      	blx	r4
   2340c:	9a0c      	ldr	r2, [sp, #48]	@ 0x30
   2340e:	7890      	ldrb	r0, [r2, #2]
   23410:	a9e4      	add	r1, sp, #912	@ 0x390
   23412:	7088      	strb	r0, [r1, #2]
   23414:	7810      	ldrb	r0, [r2, #0]
   23416:	7852      	ldrb	r2, [r2, #1]
   23418:	0212      	lsls	r2, r2, #8
   2341a:	1810      	adds	r0, r2, r0
   2341c:	8008      	strh	r0, [r1, #0]
   2341e:	7cb0      	ldrb	r0, [r6, #18]
   23420:	9013      	str	r0, [sp, #76]	@ 0x4c
   23422:	7c70      	ldrb	r0, [r6, #17]
   23424:	900c      	str	r0, [sp, #48]	@ 0x30
   23426:	7bf0      	ldrb	r0, [r6, #15]
   23428:	9003      	str	r0, [sp, #12]
   2342a:	7c34      	ldrb	r4, [r6, #16]
   2342c:	3613      	adds	r6, #19
   2342e:	a8ba      	add	r0, sp, #744	@ 0x2e8
   23430:	222b      	movs	r2, #43	@ 0x2b
   23432:	4631      	mov	r1, r6
   23434:	f004 f855 	bl	274e2 <__aeabi_memcpy>
   23438:	0220      	lsls	r0, r4, #8
   2343a:	9903      	ldr	r1, [sp, #12]
   2343c:	1840      	adds	r0, r0, r1
   2343e:	990c      	ldr	r1, [sp, #48]	@ 0x30
   23440:	0409      	lsls	r1, r1, #16
   23442:	9a13      	ldr	r2, [sp, #76]	@ 0x4c
   23444:	0612      	lsls	r2, r2, #24
   23446:	1851      	adds	r1, r2, r1
   23448:	1808      	adds	r0, r1, r0
   2344a:	9013      	str	r0, [sp, #76]	@ 0x4c
   2344c:	f7fe fa67 	bl	2191e <_start+0x17f6>
   23450:	000005cc 	.word	0x000005cc
   23454:	00027161 	.word	0x00027161
   23458:	00000568 	.word	0x00000568
   2345c:	48ef      	ldr	r0, [pc, #956]	@ (2381c <_start+0x36f4>)
   2345e:	4468      	add	r0, sp
   23460:	4cef      	ldr	r4, [pc, #956]	@ (23820 <_start+0x36f8>)
   23462:	47a0      	blx	r4
   23464:	4eef      	ldr	r6, [pc, #956]	@ (23824 <_start+0x36fc>)
   23466:	446e      	add	r6, sp
   23468:	4630      	mov	r0, r6
   2346a:	47a0      	blx	r4
   2346c:	4630      	mov	r0, r6
   2346e:	47a0      	blx	r4
   23470:	9a0c      	ldr	r2, [sp, #48]	@ 0x30
   23472:	7890      	ldrb	r0, [r2, #2]
   23474:	a9e4      	add	r1, sp, #912	@ 0x390
   23476:	7088      	strb	r0, [r1, #2]
   23478:	7810      	ldrb	r0, [r2, #0]
   2347a:	7852      	ldrb	r2, [r2, #1]
   2347c:	0212      	lsls	r2, r2, #8
   2347e:	1810      	adds	r0, r2, r0
   23480:	8008      	strh	r0, [r1, #0]
   23482:	7cb0      	ldrb	r0, [r6, #18]
   23484:	9013      	str	r0, [sp, #76]	@ 0x4c
   23486:	7c70      	ldrb	r0, [r6, #17]
   23488:	900c      	str	r0, [sp, #48]	@ 0x30
   2348a:	7bf0      	ldrb	r0, [r6, #15]
   2348c:	9003      	str	r0, [sp, #12]
   2348e:	7c34      	ldrb	r4, [r6, #16]
   23490:	3613      	adds	r6, #19
   23492:	a8ba      	add	r0, sp, #744	@ 0x2e8
   23494:	222b      	movs	r2, #43	@ 0x2b
   23496:	4631      	mov	r1, r6
   23498:	f004 f823 	bl	274e2 <__aeabi_memcpy>
   2349c:	0220      	lsls	r0, r4, #8
   2349e:	9903      	ldr	r1, [sp, #12]
   234a0:	1840      	adds	r0, r0, r1
   234a2:	990c      	ldr	r1, [sp, #48]	@ 0x30
   234a4:	0409      	lsls	r1, r1, #16
   234a6:	9a13      	ldr	r2, [sp, #76]	@ 0x4c
   234a8:	0612      	lsls	r2, r2, #24
   234aa:	1851      	adds	r1, r2, r1
   234ac:	1808      	adds	r0, r1, r0
   234ae:	9013      	str	r0, [sp, #76]	@ 0x4c
   234b0:	f7fe faa3 	bl	219fa <_start+0x18d2>
   234b4:	360c      	adds	r6, #12
   234b6:	48db      	ldr	r0, [pc, #876]	@ (23824 <_start+0x36fc>)
   234b8:	4468      	add	r0, sp
   234ba:	49d9      	ldr	r1, [pc, #868]	@ (23820 <_start+0x36f8>)
   234bc:	4788      	blx	r1
   234be:	4dd7      	ldr	r5, [pc, #860]	@ (2381c <_start+0x36f4>)
   234c0:	446d      	add	r5, sp
   234c2:	4628      	mov	r0, r5
   234c4:	49d6      	ldr	r1, [pc, #856]	@ (23820 <_start+0x36f8>)
   234c6:	4788      	blx	r1
   234c8:	4628      	mov	r0, r5
   234ca:	49d5      	ldr	r1, [pc, #852]	@ (23820 <_start+0x36f8>)
   234cc:	4788      	blx	r1
   234ce:	78b0      	ldrb	r0, [r6, #2]
   234d0:	a9ff      	add	r1, sp, #1020	@ 0x3fc
   234d2:	31f8      	adds	r1, #248	@ 0xf8
   234d4:	7088      	strb	r0, [r1, #2]
   234d6:	7830      	ldrb	r0, [r6, #0]
   234d8:	7872      	ldrb	r2, [r6, #1]
   234da:	0212      	lsls	r2, r2, #8
   234dc:	1810      	adds	r0, r2, r0
   234de:	8008      	strh	r0, [r1, #0]
   234e0:	7ca8      	ldrb	r0, [r5, #18]
   234e2:	9013      	str	r0, [sp, #76]	@ 0x4c
   234e4:	7c68      	ldrb	r0, [r5, #17]
   234e6:	900e      	str	r0, [sp, #56]	@ 0x38
   234e8:	7be8      	ldrb	r0, [r5, #15]
   234ea:	900d      	str	r0, [sp, #52]	@ 0x34
   234ec:	7c2e      	ldrb	r6, [r5, #16]
   234ee:	3513      	adds	r5, #19
   234f0:	a8e4      	add	r0, sp, #912	@ 0x390
   234f2:	2209      	movs	r2, #9
   234f4:	4629      	mov	r1, r5
   234f6:	f003 fff4 	bl	274e2 <__aeabi_memcpy>
   234fa:	0230      	lsls	r0, r6, #8
   234fc:	990d      	ldr	r1, [sp, #52]	@ 0x34
   234fe:	1840      	adds	r0, r0, r1
   23500:	990e      	ldr	r1, [sp, #56]	@ 0x38
   23502:	0409      	lsls	r1, r1, #16
   23504:	9a13      	ldr	r2, [sp, #76]	@ 0x4c
   23506:	0612      	lsls	r2, r2, #24
   23508:	1851      	adds	r1, r2, r1
   2350a:	1808      	adds	r0, r1, r0
   2350c:	9013      	str	r0, [sp, #76]	@ 0x4c
   2350e:	f7fe fae0 	bl	21ad2 <_start+0x19aa>
   23512:	a8ba      	add	r0, sp, #744	@ 0x2e8
   23514:	49c2      	ldr	r1, [pc, #776]	@ (23820 <_start+0x36f8>)
   23516:	4788      	blx	r1
   23518:	4dc2      	ldr	r5, [pc, #776]	@ (23824 <_start+0x36fc>)
   2351a:	446d      	add	r5, sp
   2351c:	4628      	mov	r0, r5
   2351e:	49c0      	ldr	r1, [pc, #768]	@ (23820 <_start+0x36f8>)
   23520:	4788      	blx	r1
   23522:	4628      	mov	r0, r5
   23524:	49be      	ldr	r1, [pc, #760]	@ (23820 <_start+0x36f8>)
   23526:	4788      	blx	r1
   23528:	9a0e      	ldr	r2, [sp, #56]	@ 0x38
   2352a:	7890      	ldrb	r0, [r2, #2]
   2352c:	a9e4      	add	r1, sp, #912	@ 0x390
   2352e:	7088      	strb	r0, [r1, #2]
   23530:	7810      	ldrb	r0, [r2, #0]
   23532:	7852      	ldrb	r2, [r2, #1]
   23534:	0212      	lsls	r2, r2, #8
   23536:	1810      	adds	r0, r2, r0
   23538:	8008      	strh	r0, [r1, #0]
   2353a:	7ca8      	ldrb	r0, [r5, #18]
   2353c:	9013      	str	r0, [sp, #76]	@ 0x4c
   2353e:	7c68      	ldrb	r0, [r5, #17]
   23540:	900e      	str	r0, [sp, #56]	@ 0x38
   23542:	7be8      	ldrb	r0, [r5, #15]
   23544:	900c      	str	r0, [sp, #48]	@ 0x30
   23546:	7c28      	ldrb	r0, [r5, #16]
   23548:	9003      	str	r0, [sp, #12]
   2354a:	3513      	adds	r5, #19
   2354c:	a8a3      	add	r0, sp, #652	@ 0x28c
   2354e:	222f      	movs	r2, #47	@ 0x2f
   23550:	4629      	mov	r1, r5
   23552:	f003 ffc6 	bl	274e2 <__aeabi_memcpy>
   23556:	9803      	ldr	r0, [sp, #12]
   23558:	0200      	lsls	r0, r0, #8
   2355a:	990c      	ldr	r1, [sp, #48]	@ 0x30
   2355c:	1840      	adds	r0, r0, r1
   2355e:	990e      	ldr	r1, [sp, #56]	@ 0x38
   23560:	0409      	lsls	r1, r1, #16
   23562:	9a13      	ldr	r2, [sp, #76]	@ 0x4c
   23564:	0612      	lsls	r2, r2, #24
   23566:	1851      	adds	r1, r2, r1
   23568:	1808      	adds	r0, r1, r0
   2356a:	9013      	str	r0, [sp, #76]	@ 0x4c
   2356c:	f7fe fb1b 	bl	21ba6 <_start+0x1a7e>
   23570:	9d08      	ldr	r5, [sp, #32]
   23572:	350f      	adds	r5, #15
   23574:	48ab      	ldr	r0, [pc, #684]	@ (23824 <_start+0x36fc>)
   23576:	4468      	add	r0, sp
   23578:	49a9      	ldr	r1, [pc, #676]	@ (23820 <_start+0x36f8>)
   2357a:	4788      	blx	r1
   2357c:	48a7      	ldr	r0, [pc, #668]	@ (2381c <_start+0x36f4>)
   2357e:	4468      	add	r0, sp
   23580:	9013      	str	r0, [sp, #76]	@ 0x4c
   23582:	49a7      	ldr	r1, [pc, #668]	@ (23820 <_start+0x36f8>)
   23584:	4788      	blx	r1
   23586:	9813      	ldr	r0, [sp, #76]	@ 0x4c
   23588:	49a5      	ldr	r1, [pc, #660]	@ (23820 <_start+0x36f8>)
   2358a:	4788      	blx	r1
   2358c:	9a0c      	ldr	r2, [sp, #48]	@ 0x30
   2358e:	7890      	ldrb	r0, [r2, #2]
   23590:	a9a3      	add	r1, sp, #652	@ 0x28c
   23592:	7088      	strb	r0, [r1, #2]
   23594:	7810      	ldrb	r0, [r2, #0]
   23596:	7852      	ldrb	r2, [r2, #1]
   23598:	0212      	lsls	r2, r2, #8
   2359a:	1810      	adds	r0, r2, r0
   2359c:	8008      	strh	r0, [r1, #0]
   2359e:	7a28      	ldrb	r0, [r5, #8]
   235a0:	7a69      	ldrb	r1, [r5, #9]
   235a2:	0209      	lsls	r1, r1, #8
   235a4:	1808      	adds	r0, r1, r0
   235a6:	7aa9      	ldrb	r1, [r5, #10]
   235a8:	0409      	lsls	r1, r1, #16
   235aa:	7aea      	ldrb	r2, [r5, #11]
   235ac:	0612      	lsls	r2, r2, #24
   235ae:	1851      	adds	r1, r2, r1
   235b0:	1808      	adds	r0, r1, r0
   235b2:	9008      	str	r0, [sp, #32]
   235b4:	7928      	ldrb	r0, [r5, #4]
   235b6:	7969      	ldrb	r1, [r5, #5]
   235b8:	0209      	lsls	r1, r1, #8
   235ba:	1808      	adds	r0, r1, r0
   235bc:	79a9      	ldrb	r1, [r5, #6]
   235be:	0409      	lsls	r1, r1, #16
   235c0:	79ea      	ldrb	r2, [r5, #7]
   235c2:	0612      	lsls	r2, r2, #24
   235c4:	1851      	adds	r1, r2, r1
   235c6:	1808      	adds	r0, r1, r0
   235c8:	900c      	str	r0, [sp, #48]	@ 0x30
   235ca:	7828      	ldrb	r0, [r5, #0]
   235cc:	7869      	ldrb	r1, [r5, #1]
   235ce:	0209      	lsls	r1, r1, #8
   235d0:	1808      	adds	r0, r1, r0
   235d2:	78a9      	ldrb	r1, [r5, #2]
   235d4:	0409      	lsls	r1, r1, #16
   235d6:	78ea      	ldrb	r2, [r5, #3]
   235d8:	0612      	lsls	r2, r2, #24
   235da:	1851      	adds	r1, r2, r1
   235dc:	1808      	adds	r0, r1, r0
   235de:	9013      	str	r0, [sp, #76]	@ 0x4c
   235e0:	f7fe fb4b 	bl	21c7a <_start+0x1b52>
   235e4:	488d      	ldr	r0, [pc, #564]	@ (2381c <_start+0x36f4>)
   235e6:	4468      	add	r0, sp
   235e8:	498d      	ldr	r1, [pc, #564]	@ (23820 <_start+0x36f8>)
   235ea:	4788      	blx	r1
   235ec:	4d8d      	ldr	r5, [pc, #564]	@ (23824 <_start+0x36fc>)
   235ee:	446d      	add	r5, sp
   235f0:	4628      	mov	r0, r5
   235f2:	498b      	ldr	r1, [pc, #556]	@ (23820 <_start+0x36f8>)
   235f4:	4788      	blx	r1
   235f6:	4628      	mov	r0, r5
   235f8:	4989      	ldr	r1, [pc, #548]	@ (23820 <_start+0x36f8>)
   235fa:	4788      	blx	r1
   235fc:	9a0c      	ldr	r2, [sp, #48]	@ 0x30
   235fe:	7890      	ldrb	r0, [r2, #2]
   23600:	a9e4      	add	r1, sp, #912	@ 0x390
   23602:	7088      	strb	r0, [r1, #2]
   23604:	7810      	ldrb	r0, [r2, #0]
   23606:	7852      	ldrb	r2, [r2, #1]
   23608:	0212      	lsls	r2, r2, #8
   2360a:	1810      	adds	r0, r2, r0
   2360c:	8008      	strh	r0, [r1, #0]
   2360e:	4629      	mov	r1, r5
   23610:	7ca8      	ldrb	r0, [r5, #18]
   23612:	9013      	str	r0, [sp, #76]	@ 0x4c
   23614:	7c68      	ldrb	r0, [r5, #17]
   23616:	900e      	str	r0, [sp, #56]	@ 0x38
   23618:	7be8      	ldrb	r0, [r5, #15]
   2361a:	900c      	str	r0, [sp, #48]	@ 0x30
   2361c:	7c2d      	ldrb	r5, [r5, #16]
   2361e:	3113      	adds	r1, #19
   23620:	a8a3      	add	r0, sp, #652	@ 0x28c
   23622:	220c      	movs	r2, #12
   23624:	f003 ff5d 	bl	274e2 <__aeabi_memcpy>
   23628:	0228      	lsls	r0, r5, #8
   2362a:	990c      	ldr	r1, [sp, #48]	@ 0x30
   2362c:	1840      	adds	r0, r0, r1
   2362e:	990e      	ldr	r1, [sp, #56]	@ 0x38
   23630:	0409      	lsls	r1, r1, #16
   23632:	9a13      	ldr	r2, [sp, #76]	@ 0x4c
   23634:	0612      	lsls	r2, r2, #24
   23636:	1851      	adds	r1, r2, r1
   23638:	1808      	adds	r0, r1, r0
   2363a:	9013      	str	r0, [sp, #76]	@ 0x4c
   2363c:	f7fe fb8f 	bl	21d5e <_start+0x1c36>
   23640:	a8ba      	add	r0, sp, #744	@ 0x2e8
   23642:	4977      	ldr	r1, [pc, #476]	@ (23820 <_start+0x36f8>)
   23644:	4788      	blx	r1
   23646:	4c77      	ldr	r4, [pc, #476]	@ (23824 <_start+0x36fc>)
   23648:	446c      	add	r4, sp
   2364a:	4620      	mov	r0, r4
   2364c:	4974      	ldr	r1, [pc, #464]	@ (23820 <_start+0x36f8>)
   2364e:	4788      	blx	r1
   23650:	4620      	mov	r0, r4
   23652:	4973      	ldr	r1, [pc, #460]	@ (23820 <_start+0x36f8>)
   23654:	4788      	blx	r1
   23656:	9a0e      	ldr	r2, [sp, #56]	@ 0x38
   23658:	7890      	ldrb	r0, [r2, #2]
   2365a:	a9e4      	add	r1, sp, #912	@ 0x390
   2365c:	7088      	strb	r0, [r1, #2]
   2365e:	7810      	ldrb	r0, [r2, #0]
   23660:	7852      	ldrb	r2, [r2, #1]
   23662:	0212      	lsls	r2, r2, #8
   23664:	1810      	adds	r0, r2, r0
   23666:	8008      	strh	r0, [r1, #0]
   23668:	7ca0      	ldrb	r0, [r4, #18]
   2366a:	9013      	str	r0, [sp, #76]	@ 0x4c
   2366c:	7c60      	ldrb	r0, [r4, #17]
   2366e:	900e      	str	r0, [sp, #56]	@ 0x38
   23670:	7be0      	ldrb	r0, [r4, #15]
   23672:	900c      	str	r0, [sp, #48]	@ 0x30
   23674:	7c20      	ldrb	r0, [r4, #16]
   23676:	9009      	str	r0, [sp, #36]	@ 0x24
   23678:	3413      	adds	r4, #19
   2367a:	a8a3      	add	r0, sp, #652	@ 0x28c
   2367c:	224e      	movs	r2, #78	@ 0x4e
   2367e:	4621      	mov	r1, r4
   23680:	f003 ff2f 	bl	274e2 <__aeabi_memcpy>
   23684:	9809      	ldr	r0, [sp, #36]	@ 0x24
   23686:	0200      	lsls	r0, r0, #8
   23688:	990c      	ldr	r1, [sp, #48]	@ 0x30
   2368a:	1840      	adds	r0, r0, r1
   2368c:	990e      	ldr	r1, [sp, #56]	@ 0x38
   2368e:	0409      	lsls	r1, r1, #16
   23690:	9a13      	ldr	r2, [sp, #76]	@ 0x4c
   23692:	0612      	lsls	r2, r2, #24
   23694:	1851      	adds	r1, r2, r1
   23696:	1808      	adds	r0, r1, r0
   23698:	9013      	str	r0, [sp, #76]	@ 0x4c
   2369a:	f7fe fbc8 	bl	21e2e <_start+0x1d06>
   2369e:	4861      	ldr	r0, [pc, #388]	@ (23824 <_start+0x36fc>)
   236a0:	4468      	add	r0, sp
   236a2:	495f      	ldr	r1, [pc, #380]	@ (23820 <_start+0x36f8>)
   236a4:	4788      	blx	r1
   236a6:	4d5d      	ldr	r5, [pc, #372]	@ (2381c <_start+0x36f4>)
   236a8:	446d      	add	r5, sp
   236aa:	4628      	mov	r0, r5
   236ac:	495c      	ldr	r1, [pc, #368]	@ (23820 <_start+0x36f8>)
   236ae:	4788      	blx	r1
   236b0:	4628      	mov	r0, r5
   236b2:	495b      	ldr	r1, [pc, #364]	@ (23820 <_start+0x36f8>)
   236b4:	4788      	blx	r1
   236b6:	9a0e      	ldr	r2, [sp, #56]	@ 0x38
   236b8:	7890      	ldrb	r0, [r2, #2]
   236ba:	a9e4      	add	r1, sp, #912	@ 0x390
   236bc:	7088      	strb	r0, [r1, #2]
   236be:	7810      	ldrb	r0, [r2, #0]
   236c0:	7852      	ldrb	r2, [r2, #1]
   236c2:	0212      	lsls	r2, r2, #8
   236c4:	1810      	adds	r0, r2, r0
   236c6:	8008      	strh	r0, [r1, #0]
   236c8:	7ca8      	ldrb	r0, [r5, #18]
   236ca:	9013      	str	r0, [sp, #76]	@ 0x4c
   236cc:	7c68      	ldrb	r0, [r5, #17]
   236ce:	900e      	str	r0, [sp, #56]	@ 0x38
   236d0:	7be8      	ldrb	r0, [r5, #15]
   236d2:	900c      	str	r0, [sp, #48]	@ 0x30
   236d4:	7c28      	ldrb	r0, [r5, #16]
   236d6:	9009      	str	r0, [sp, #36]	@ 0x24
   236d8:	3513      	adds	r5, #19
   236da:	a8ba      	add	r0, sp, #744	@ 0x2e8
   236dc:	222b      	movs	r2, #43	@ 0x2b
   236de:	4629      	mov	r1, r5
   236e0:	f003 feff 	bl	274e2 <__aeabi_memcpy>
   236e4:	9809      	ldr	r0, [sp, #36]	@ 0x24
   236e6:	0200      	lsls	r0, r0, #8
   236e8:	990c      	ldr	r1, [sp, #48]	@ 0x30
   236ea:	1840      	adds	r0, r0, r1
   236ec:	990e      	ldr	r1, [sp, #56]	@ 0x38
   236ee:	0409      	lsls	r1, r1, #16
   236f0:	9a13      	ldr	r2, [sp, #76]	@ 0x4c
   236f2:	0612      	lsls	r2, r2, #24
   236f4:	1851      	adds	r1, r2, r1
   236f6:	1808      	adds	r0, r1, r0
   236f8:	9013      	str	r0, [sp, #76]	@ 0x4c
   236fa:	f7fe fc02 	bl	21f02 <_start+0x1dda>
   236fe:	4847      	ldr	r0, [pc, #284]	@ (2381c <_start+0x36f4>)
   23700:	4468      	add	r0, sp
   23702:	4947      	ldr	r1, [pc, #284]	@ (23820 <_start+0x36f8>)
   23704:	4788      	blx	r1
   23706:	4c47      	ldr	r4, [pc, #284]	@ (23824 <_start+0x36fc>)
   23708:	446c      	add	r4, sp
   2370a:	4620      	mov	r0, r4
   2370c:	4944      	ldr	r1, [pc, #272]	@ (23820 <_start+0x36f8>)
   2370e:	4788      	blx	r1
   23710:	4620      	mov	r0, r4
   23712:	4943      	ldr	r1, [pc, #268]	@ (23820 <_start+0x36f8>)
   23714:	4788      	blx	r1
   23716:	9a0e      	ldr	r2, [sp, #56]	@ 0x38
   23718:	7890      	ldrb	r0, [r2, #2]
   2371a:	a9e4      	add	r1, sp, #912	@ 0x390
   2371c:	7088      	strb	r0, [r1, #2]
   2371e:	7810      	ldrb	r0, [r2, #0]
   23720:	7852      	ldrb	r2, [r2, #1]
   23722:	0212      	lsls	r2, r2, #8
   23724:	1810      	adds	r0, r2, r0
   23726:	8008      	strh	r0, [r1, #0]
   23728:	7ca0      	ldrb	r0, [r4, #18]
   2372a:	9013      	str	r0, [sp, #76]	@ 0x4c
   2372c:	7c60      	ldrb	r0, [r4, #17]
   2372e:	900e      	str	r0, [sp, #56]	@ 0x38
   23730:	7be0      	ldrb	r0, [r4, #15]
   23732:	900c      	str	r0, [sp, #48]	@ 0x30
   23734:	7c20      	ldrb	r0, [r4, #16]
   23736:	9009      	str	r0, [sp, #36]	@ 0x24
   23738:	3413      	adds	r4, #19
   2373a:	a8ba      	add	r0, sp, #744	@ 0x2e8
   2373c:	223a      	movs	r2, #58	@ 0x3a
   2373e:	4621      	mov	r1, r4
   23740:	f003 fecf 	bl	274e2 <__aeabi_memcpy>
   23744:	9809      	ldr	r0, [sp, #36]	@ 0x24
   23746:	0200      	lsls	r0, r0, #8
   23748:	990c      	ldr	r1, [sp, #48]	@ 0x30
   2374a:	1840      	adds	r0, r0, r1
   2374c:	990e      	ldr	r1, [sp, #56]	@ 0x38
   2374e:	0409      	lsls	r1, r1, #16
   23750:	9a13      	ldr	r2, [sp, #76]	@ 0x4c
   23752:	0612      	lsls	r2, r2, #24
   23754:	1851      	adds	r1, r2, r1
   23756:	1808      	adds	r0, r1, r0
   23758:	9013      	str	r0, [sp, #76]	@ 0x4c
   2375a:	f7fe fc40 	bl	21fde <_start+0x1eb6>
   2375e:	4831      	ldr	r0, [pc, #196]	@ (23824 <_start+0x36fc>)
   23760:	4468      	add	r0, sp
   23762:	492f      	ldr	r1, [pc, #188]	@ (23820 <_start+0x36f8>)
   23764:	4788      	blx	r1
   23766:	4c2d      	ldr	r4, [pc, #180]	@ (2381c <_start+0x36f4>)
   23768:	446c      	add	r4, sp
   2376a:	4620      	mov	r0, r4
   2376c:	492c      	ldr	r1, [pc, #176]	@ (23820 <_start+0x36f8>)
   2376e:	4788      	blx	r1
   23770:	4620      	mov	r0, r4
   23772:	492b      	ldr	r1, [pc, #172]	@ (23820 <_start+0x36f8>)
   23774:	4788      	blx	r1
   23776:	9a0e      	ldr	r2, [sp, #56]	@ 0x38
   23778:	7890      	ldrb	r0, [r2, #2]
   2377a:	a9ff      	add	r1, sp, #1020	@ 0x3fc
   2377c:	31f8      	adds	r1, #248	@ 0xf8
   2377e:	7088      	strb	r0, [r1, #2]
   23780:	7810      	ldrb	r0, [r2, #0]
   23782:	7852      	ldrb	r2, [r2, #1]
   23784:	0212      	lsls	r2, r2, #8
   23786:	1810      	adds	r0, r2, r0
   23788:	8008      	strh	r0, [r1, #0]
   2378a:	4621      	mov	r1, r4
   2378c:	7ca0      	ldrb	r0, [r4, #18]
   2378e:	9013      	str	r0, [sp, #76]	@ 0x4c
   23790:	7c60      	ldrb	r0, [r4, #17]
   23792:	900e      	str	r0, [sp, #56]	@ 0x38
   23794:	7be0      	ldrb	r0, [r4, #15]
   23796:	900c      	str	r0, [sp, #48]	@ 0x30
   23798:	7c24      	ldrb	r4, [r4, #16]
   2379a:	3113      	adds	r1, #19
   2379c:	a8e4      	add	r0, sp, #912	@ 0x390
   2379e:	221b      	movs	r2, #27
   237a0:	f003 fe9f 	bl	274e2 <__aeabi_memcpy>
   237a4:	0220      	lsls	r0, r4, #8
   237a6:	990c      	ldr	r1, [sp, #48]	@ 0x30
   237a8:	1840      	adds	r0, r0, r1
   237aa:	990e      	ldr	r1, [sp, #56]	@ 0x38
   237ac:	0409      	lsls	r1, r1, #16
   237ae:	9a13      	ldr	r2, [sp, #76]	@ 0x4c
   237b0:	0612      	lsls	r2, r2, #24
   237b2:	1851      	adds	r1, r2, r1
   237b4:	1808      	adds	r0, r1, r0
   237b6:	9013      	str	r0, [sp, #76]	@ 0x4c
   237b8:	f7fe fc7d 	bl	220b6 <_start+0x1f8e>
   237bc:	a8ba      	add	r0, sp, #744	@ 0x2e8
   237be:	4918      	ldr	r1, [pc, #96]	@ (23820 <_start+0x36f8>)
   237c0:	4788      	blx	r1
   237c2:	4c18      	ldr	r4, [pc, #96]	@ (23824 <_start+0x36fc>)
   237c4:	446c      	add	r4, sp
   237c6:	4620      	mov	r0, r4
   237c8:	4915      	ldr	r1, [pc, #84]	@ (23820 <_start+0x36f8>)
   237ca:	4788      	blx	r1
   237cc:	4620      	mov	r0, r4
   237ce:	4914      	ldr	r1, [pc, #80]	@ (23820 <_start+0x36f8>)
   237d0:	4788      	blx	r1
   237d2:	9a0e      	ldr	r2, [sp, #56]	@ 0x38
   237d4:	7890      	ldrb	r0, [r2, #2]
   237d6:	a9e4      	add	r1, sp, #912	@ 0x390
   237d8:	7088      	strb	r0, [r1, #2]
   237da:	7810      	ldrb	r0, [r2, #0]
   237dc:	7852      	ldrb	r2, [r2, #1]
   237de:	0212      	lsls	r2, r2, #8
   237e0:	1810      	adds	r0, r2, r0
   237e2:	8008      	strh	r0, [r1, #0]
   237e4:	7ca0      	ldrb	r0, [r4, #18]
   237e6:	9013      	str	r0, [sp, #76]	@ 0x4c
   237e8:	7c60      	ldrb	r0, [r4, #17]
   237ea:	900e      	str	r0, [sp, #56]	@ 0x38
   237ec:	7be0      	ldrb	r0, [r4, #15]
   237ee:	900c      	str	r0, [sp, #48]	@ 0x30
   237f0:	7c20      	ldrb	r0, [r4, #16]
   237f2:	9009      	str	r0, [sp, #36]	@ 0x24
   237f4:	3413      	adds	r4, #19
   237f6:	a8a3      	add	r0, sp, #652	@ 0x28c
   237f8:	224a      	movs	r2, #74	@ 0x4a
   237fa:	4621      	mov	r1, r4
   237fc:	f003 fe71 	bl	274e2 <__aeabi_memcpy>
   23800:	9809      	ldr	r0, [sp, #36]	@ 0x24
   23802:	0200      	lsls	r0, r0, #8
   23804:	990c      	ldr	r1, [sp, #48]	@ 0x30
   23806:	1840      	adds	r0, r0, r1
   23808:	990e      	ldr	r1, [sp, #56]	@ 0x38
   2380a:	0409      	lsls	r1, r1, #16
   2380c:	9a13      	ldr	r2, [sp, #76]	@ 0x4c
   2380e:	0612      	lsls	r2, r2, #24
   23810:	1851      	adds	r1, r2, r1
   23812:	1808      	adds	r0, r1, r0
   23814:	9013      	str	r0, [sp, #76]	@ 0x4c
   23816:	f7fe fcba 	bl	2218e <_start+0x2066>
   2381a:	46c0      	nop			@ (mov r8, r8)
   2381c:	00000568 	.word	0x00000568
   23820:	00027161 	.word	0x00027161
   23824:	000005cc 	.word	0x000005cc
   23828:	48f4      	ldr	r0, [pc, #976]	@ (23bfc <_start+0x3ad4>)
   2382a:	4468      	add	r0, sp
   2382c:	49f4      	ldr	r1, [pc, #976]	@ (23c00 <_start+0x3ad8>)
   2382e:	4788      	blx	r1
   23830:	4df4      	ldr	r5, [pc, #976]	@ (23c04 <_start+0x3adc>)
   23832:	446d      	add	r5, sp
   23834:	4628      	mov	r0, r5
   23836:	49f2      	ldr	r1, [pc, #968]	@ (23c00 <_start+0x3ad8>)
   23838:	4788      	blx	r1
   2383a:	4628      	mov	r0, r5
   2383c:	49f0      	ldr	r1, [pc, #960]	@ (23c00 <_start+0x3ad8>)
   2383e:	4788      	blx	r1
   23840:	9a0e      	ldr	r2, [sp, #56]	@ 0x38
   23842:	7890      	ldrb	r0, [r2, #2]
   23844:	a9ba      	add	r1, sp, #744	@ 0x2e8
   23846:	7088      	strb	r0, [r1, #2]
   23848:	7810      	ldrb	r0, [r2, #0]
   2384a:	7852      	ldrb	r2, [r2, #1]
   2384c:	0212      	lsls	r2, r2, #8
   2384e:	1810      	adds	r0, r2, r0
   23850:	8008      	strh	r0, [r1, #0]
   23852:	7ca8      	ldrb	r0, [r5, #18]
   23854:	9013      	str	r0, [sp, #76]	@ 0x4c
   23856:	7c68      	ldrb	r0, [r5, #17]
   23858:	900e      	str	r0, [sp, #56]	@ 0x38
   2385a:	7be8      	ldrb	r0, [r5, #15]
   2385c:	900c      	str	r0, [sp, #48]	@ 0x30
   2385e:	7c28      	ldrb	r0, [r5, #16]
   23860:	9009      	str	r0, [sp, #36]	@ 0x24
   23862:	3513      	adds	r5, #19
   23864:	a8a3      	add	r0, sp, #652	@ 0x28c
   23866:	2248      	movs	r2, #72	@ 0x48
   23868:	4629      	mov	r1, r5
   2386a:	f003 fe3a 	bl	274e2 <__aeabi_memcpy>
   2386e:	9809      	ldr	r0, [sp, #36]	@ 0x24
   23870:	0200      	lsls	r0, r0, #8
   23872:	990c      	ldr	r1, [sp, #48]	@ 0x30
   23874:	1840      	adds	r0, r0, r1
   23876:	990e      	ldr	r1, [sp, #56]	@ 0x38
   23878:	0409      	lsls	r1, r1, #16
   2387a:	9a13      	ldr	r2, [sp, #76]	@ 0x4c
   2387c:	0612      	lsls	r2, r2, #24
   2387e:	1851      	adds	r1, r2, r1
   23880:	1808      	adds	r0, r1, r0
   23882:	9013      	str	r0, [sp, #76]	@ 0x4c
   23884:	f7fe fceb 	bl	2225e <_start+0x2136>
   23888:	48dc      	ldr	r0, [pc, #880]	@ (23bfc <_start+0x3ad4>)
   2388a:	4468      	add	r0, sp
   2388c:	49dc      	ldr	r1, [pc, #880]	@ (23c00 <_start+0x3ad8>)
   2388e:	4788      	blx	r1
   23890:	4ddc      	ldr	r5, [pc, #880]	@ (23c04 <_start+0x3adc>)
   23892:	446d      	add	r5, sp
   23894:	4628      	mov	r0, r5
   23896:	49da      	ldr	r1, [pc, #872]	@ (23c00 <_start+0x3ad8>)
   23898:	4788      	blx	r1
   2389a:	4628      	mov	r0, r5
   2389c:	49d8      	ldr	r1, [pc, #864]	@ (23c00 <_start+0x3ad8>)
   2389e:	4788      	blx	r1
   238a0:	9a0e      	ldr	r2, [sp, #56]	@ 0x38
   238a2:	7890      	ldrb	r0, [r2, #2]
   238a4:	a9ba      	add	r1, sp, #744	@ 0x2e8
   238a6:	7088      	strb	r0, [r1, #2]
   238a8:	7810      	ldrb	r0, [r2, #0]
   238aa:	7852      	ldrb	r2, [r2, #1]
   238ac:	0212      	lsls	r2, r2, #8
   238ae:	1810      	adds	r0, r2, r0
   238b0:	8008      	strh	r0, [r1, #0]
   238b2:	7ca8      	ldrb	r0, [r5, #18]
   238b4:	9013      	str	r0, [sp, #76]	@ 0x4c
   238b6:	7c68      	ldrb	r0, [r5, #17]
   238b8:	900e      	str	r0, [sp, #56]	@ 0x38
   238ba:	7be8      	ldrb	r0, [r5, #15]
   238bc:	900c      	str	r0, [sp, #48]	@ 0x30
   238be:	7c28      	ldrb	r0, [r5, #16]
   238c0:	9009      	str	r0, [sp, #36]	@ 0x24
   238c2:	3513      	adds	r5, #19
   238c4:	a8a3      	add	r0, sp, #652	@ 0x28c
   238c6:	2234      	movs	r2, #52	@ 0x34
   238c8:	4629      	mov	r1, r5
   238ca:	f003 fe0a 	bl	274e2 <__aeabi_memcpy>
   238ce:	9809      	ldr	r0, [sp, #36]	@ 0x24
   238d0:	0200      	lsls	r0, r0, #8
   238d2:	990c      	ldr	r1, [sp, #48]	@ 0x30
   238d4:	1840      	adds	r0, r0, r1
   238d6:	990e      	ldr	r1, [sp, #56]	@ 0x38
   238d8:	0409      	lsls	r1, r1, #16
   238da:	9a13      	ldr	r2, [sp, #76]	@ 0x4c
   238dc:	0612      	lsls	r2, r2, #24
   238de:	1851      	adds	r1, r2, r1
   238e0:	1808      	adds	r0, r1, r0
   238e2:	9013      	str	r0, [sp, #76]	@ 0x4c
   238e4:	f7fe fd29 	bl	2233a <_start+0x2212>
   238e8:	48c4      	ldr	r0, [pc, #784]	@ (23bfc <_start+0x3ad4>)
   238ea:	4468      	add	r0, sp
   238ec:	49c4      	ldr	r1, [pc, #784]	@ (23c00 <_start+0x3ad8>)
   238ee:	4788      	blx	r1
   238f0:	4dc4      	ldr	r5, [pc, #784]	@ (23c04 <_start+0x3adc>)
   238f2:	446d      	add	r5, sp
   238f4:	4628      	mov	r0, r5
   238f6:	49c2      	ldr	r1, [pc, #776]	@ (23c00 <_start+0x3ad8>)
   238f8:	4788      	blx	r1
   238fa:	4628      	mov	r0, r5
   238fc:	49c0      	ldr	r1, [pc, #768]	@ (23c00 <_start+0x3ad8>)
   238fe:	4788      	blx	r1
   23900:	9a0e      	ldr	r2, [sp, #56]	@ 0x38
   23902:	7890      	ldrb	r0, [r2, #2]
   23904:	a9ba      	add	r1, sp, #744	@ 0x2e8
   23906:	7088      	strb	r0, [r1, #2]
   23908:	7810      	ldrb	r0, [r2, #0]
   2390a:	7852      	ldrb	r2, [r2, #1]
   2390c:	0212      	lsls	r2, r2, #8
   2390e:	1810      	adds	r0, r2, r0
   23910:	8008      	strh	r0, [r1, #0]
   23912:	7ca8      	ldrb	r0, [r5, #18]
   23914:	9013      	str	r0, [sp, #76]	@ 0x4c
   23916:	7c68      	ldrb	r0, [r5, #17]
   23918:	900e      	str	r0, [sp, #56]	@ 0x38
   2391a:	7be8      	ldrb	r0, [r5, #15]
   2391c:	900c      	str	r0, [sp, #48]	@ 0x30
   2391e:	7c28      	ldrb	r0, [r5, #16]
   23920:	9009      	str	r0, [sp, #36]	@ 0x24
   23922:	3513      	adds	r5, #19
   23924:	a8a3      	add	r0, sp, #652	@ 0x28c
   23926:	2220      	movs	r2, #32
   23928:	4629      	mov	r1, r5
   2392a:	f003 fdda 	bl	274e2 <__aeabi_memcpy>
   2392e:	9809      	ldr	r0, [sp, #36]	@ 0x24
   23930:	0200      	lsls	r0, r0, #8
   23932:	990c      	ldr	r1, [sp, #48]	@ 0x30
   23934:	1840      	adds	r0, r0, r1
   23936:	990e      	ldr	r1, [sp, #56]	@ 0x38
   23938:	0409      	lsls	r1, r1, #16
   2393a:	9a13      	ldr	r2, [sp, #76]	@ 0x4c
   2393c:	0612      	lsls	r2, r2, #24
   2393e:	1851      	adds	r1, r2, r1
   23940:	1808      	adds	r0, r1, r0
   23942:	9013      	str	r0, [sp, #76]	@ 0x4c
   23944:	f7fe fd65 	bl	22412 <_start+0x22ea>
   23948:	48ac      	ldr	r0, [pc, #688]	@ (23bfc <_start+0x3ad4>)
   2394a:	4468      	add	r0, sp
   2394c:	49ac      	ldr	r1, [pc, #688]	@ (23c00 <_start+0x3ad8>)
   2394e:	4788      	blx	r1
   23950:	4cac      	ldr	r4, [pc, #688]	@ (23c04 <_start+0x3adc>)
   23952:	446c      	add	r4, sp
   23954:	4620      	mov	r0, r4
   23956:	49aa      	ldr	r1, [pc, #680]	@ (23c00 <_start+0x3ad8>)
   23958:	4788      	blx	r1
   2395a:	4620      	mov	r0, r4
   2395c:	49a8      	ldr	r1, [pc, #672]	@ (23c00 <_start+0x3ad8>)
   2395e:	4788      	blx	r1
   23960:	9a0e      	ldr	r2, [sp, #56]	@ 0x38
   23962:	7890      	ldrb	r0, [r2, #2]
   23964:	a9ff      	add	r1, sp, #1020	@ 0x3fc
   23966:	31f8      	adds	r1, #248	@ 0xf8
   23968:	7088      	strb	r0, [r1, #2]
   2396a:	7810      	ldrb	r0, [r2, #0]
   2396c:	7852      	ldrb	r2, [r2, #1]
   2396e:	0212      	lsls	r2, r2, #8
   23970:	1810      	adds	r0, r2, r0
   23972:	8008      	strh	r0, [r1, #0]
   23974:	7ca0      	ldrb	r0, [r4, #18]
   23976:	9013      	str	r0, [sp, #76]	@ 0x4c
   23978:	7c60      	ldrb	r0, [r4, #17]
   2397a:	900e      	str	r0, [sp, #56]	@ 0x38
   2397c:	7be0      	ldrb	r0, [r4, #15]
   2397e:	900c      	str	r0, [sp, #48]	@ 0x30
   23980:	7c20      	ldrb	r0, [r4, #16]
   23982:	9009      	str	r0, [sp, #36]	@ 0x24
   23984:	3413      	adds	r4, #19
   23986:	a8e4      	add	r0, sp, #912	@ 0x390
   23988:	220d      	movs	r2, #13
   2398a:	4621      	mov	r1, r4
   2398c:	f003 fda9 	bl	274e2 <__aeabi_memcpy>
   23990:	9809      	ldr	r0, [sp, #36]	@ 0x24
   23992:	0200      	lsls	r0, r0, #8
   23994:	990c      	ldr	r1, [sp, #48]	@ 0x30
   23996:	1840      	adds	r0, r0, r1
   23998:	990e      	ldr	r1, [sp, #56]	@ 0x38
   2399a:	0409      	lsls	r1, r1, #16
   2399c:	9a13      	ldr	r2, [sp, #76]	@ 0x4c
   2399e:	0612      	lsls	r2, r2, #24
   239a0:	1851      	adds	r1, r2, r1
   239a2:	1808      	adds	r0, r1, r0
   239a4:	9013      	str	r0, [sp, #76]	@ 0x4c
   239a6:	f7fe fda2 	bl	224ee <_start+0x23c6>
   239aa:	a8a3      	add	r0, sp, #652	@ 0x28c
   239ac:	4994      	ldr	r1, [pc, #592]	@ (23c00 <_start+0x3ad8>)
   239ae:	4788      	blx	r1
   239b0:	4d92      	ldr	r5, [pc, #584]	@ (23bfc <_start+0x3ad4>)
   239b2:	446d      	add	r5, sp
   239b4:	4628      	mov	r0, r5
   239b6:	4992      	ldr	r1, [pc, #584]	@ (23c00 <_start+0x3ad8>)
   239b8:	4788      	blx	r1
   239ba:	4628      	mov	r0, r5
   239bc:	4990      	ldr	r1, [pc, #576]	@ (23c00 <_start+0x3ad8>)
   239be:	4788      	blx	r1
   239c0:	9a0c      	ldr	r2, [sp, #48]	@ 0x30
   239c2:	7890      	ldrb	r0, [r2, #2]
   239c4:	a9ba      	add	r1, sp, #744	@ 0x2e8
   239c6:	7088      	strb	r0, [r1, #2]
   239c8:	7810      	ldrb	r0, [r2, #0]
   239ca:	7852      	ldrb	r2, [r2, #1]
   239cc:	0212      	lsls	r2, r2, #8
   239ce:	1810      	adds	r0, r2, r0
   239d0:	8008      	strh	r0, [r1, #0]
   239d2:	7ca8      	ldrb	r0, [r5, #18]
   239d4:	9013      	str	r0, [sp, #76]	@ 0x4c
   239d6:	7c68      	ldrb	r0, [r5, #17]
   239d8:	900e      	str	r0, [sp, #56]	@ 0x38
   239da:	7be8      	ldrb	r0, [r5, #15]
   239dc:	900c      	str	r0, [sp, #48]	@ 0x30
   239de:	7c28      	ldrb	r0, [r5, #16]
   239e0:	9009      	str	r0, [sp, #36]	@ 0x24
   239e2:	3513      	adds	r5, #19
   239e4:	4887      	ldr	r0, [pc, #540]	@ (23c04 <_start+0x3adc>)
   239e6:	4468      	add	r0, sp
   239e8:	2224      	movs	r2, #36	@ 0x24
   239ea:	4629      	mov	r1, r5
   239ec:	f003 fd79 	bl	274e2 <__aeabi_memcpy>
   239f0:	9809      	ldr	r0, [sp, #36]	@ 0x24
   239f2:	0200      	lsls	r0, r0, #8
   239f4:	990c      	ldr	r1, [sp, #48]	@ 0x30
   239f6:	1840      	adds	r0, r0, r1
   239f8:	990e      	ldr	r1, [sp, #56]	@ 0x38
   239fa:	0409      	lsls	r1, r1, #16
   239fc:	9a13      	ldr	r2, [sp, #76]	@ 0x4c
   239fe:	0612      	lsls	r2, r2, #24
   23a00:	1851      	adds	r1, r2, r1
   23a02:	1808      	adds	r0, r1, r0
   23a04:	9013      	str	r0, [sp, #76]	@ 0x4c
   23a06:	f7fe fddc 	bl	225c2 <_start+0x249a>
   23a0a:	487c      	ldr	r0, [pc, #496]	@ (23bfc <_start+0x3ad4>)
   23a0c:	4468      	add	r0, sp
   23a0e:	497c      	ldr	r1, [pc, #496]	@ (23c00 <_start+0x3ad8>)
   23a10:	4788      	blx	r1
   23a12:	4d7c      	ldr	r5, [pc, #496]	@ (23c04 <_start+0x3adc>)
   23a14:	446d      	add	r5, sp
   23a16:	4628      	mov	r0, r5
   23a18:	4979      	ldr	r1, [pc, #484]	@ (23c00 <_start+0x3ad8>)
   23a1a:	4788      	blx	r1
   23a1c:	4628      	mov	r0, r5
   23a1e:	4978      	ldr	r1, [pc, #480]	@ (23c00 <_start+0x3ad8>)
   23a20:	4788      	blx	r1
   23a22:	9a0e      	ldr	r2, [sp, #56]	@ 0x38
   23a24:	7890      	ldrb	r0, [r2, #2]
   23a26:	a9ff      	add	r1, sp, #1020	@ 0x3fc
   23a28:	31f8      	adds	r1, #248	@ 0xf8
   23a2a:	7088      	strb	r0, [r1, #2]
   23a2c:	7810      	ldrb	r0, [r2, #0]
   23a2e:	7852      	ldrb	r2, [r2, #1]
   23a30:	0212      	lsls	r2, r2, #8
   23a32:	1810      	adds	r0, r2, r0
   23a34:	8008      	strh	r0, [r1, #0]
   23a36:	7ca8      	ldrb	r0, [r5, #18]
   23a38:	9013      	str	r0, [sp, #76]	@ 0x4c
   23a3a:	7c68      	ldrb	r0, [r5, #17]
   23a3c:	900e      	str	r0, [sp, #56]	@ 0x38
   23a3e:	7be8      	ldrb	r0, [r5, #15]
   23a40:	900c      	str	r0, [sp, #48]	@ 0x30
   23a42:	7c28      	ldrb	r0, [r5, #16]
   23a44:	9009      	str	r0, [sp, #36]	@ 0x24
   23a46:	3513      	adds	r5, #19
   23a48:	a8e4      	add	r0, sp, #912	@ 0x390
   23a4a:	2217      	movs	r2, #23
   23a4c:	4629      	mov	r1, r5
   23a4e:	f003 fd48 	bl	274e2 <__aeabi_memcpy>
   23a52:	9809      	ldr	r0, [sp, #36]	@ 0x24
   23a54:	0200      	lsls	r0, r0, #8
   23a56:	990c      	ldr	r1, [sp, #48]	@ 0x30
   23a58:	1840      	adds	r0, r0, r1
   23a5a:	990e      	ldr	r1, [sp, #56]	@ 0x38
   23a5c:	0409      	lsls	r1, r1, #16
   23a5e:	9a13      	ldr	r2, [sp, #76]	@ 0x4c
   23a60:	0612      	lsls	r2, r2, #24
   23a62:	1851      	adds	r1, r2, r1
   23a64:	1808      	adds	r0, r1, r0
   23a66:	9013      	str	r0, [sp, #76]	@ 0x4c
   23a68:	f7fe fe15 	bl	22696 <_start+0x256e>
   23a6c:	a8ba      	add	r0, sp, #744	@ 0x2e8
   23a6e:	4964      	ldr	r1, [pc, #400]	@ (23c00 <_start+0x3ad8>)
   23a70:	4788      	blx	r1
   23a72:	4d62      	ldr	r5, [pc, #392]	@ (23bfc <_start+0x3ad4>)
   23a74:	446d      	add	r5, sp
   23a76:	4628      	mov	r0, r5
   23a78:	4961      	ldr	r1, [pc, #388]	@ (23c00 <_start+0x3ad8>)
   23a7a:	4788      	blx	r1
   23a7c:	4628      	mov	r0, r5
   23a7e:	4960      	ldr	r1, [pc, #384]	@ (23c00 <_start+0x3ad8>)
   23a80:	4788      	blx	r1
   23a82:	9a0e      	ldr	r2, [sp, #56]	@ 0x38
   23a84:	7890      	ldrb	r0, [r2, #2]
   23a86:	a9e4      	add	r1, sp, #912	@ 0x390
   23a88:	7088      	strb	r0, [r1, #2]
   23a8a:	7810      	ldrb	r0, [r2, #0]
   23a8c:	7852      	ldrb	r2, [r2, #1]
   23a8e:	0212      	lsls	r2, r2, #8
   23a90:	1810      	adds	r0, r2, r0
   23a92:	8008      	strh	r0, [r1, #0]
   23a94:	4629      	mov	r1, r5
   23a96:	7ca8      	ldrb	r0, [r5, #18]
   23a98:	9013      	str	r0, [sp, #76]	@ 0x4c
   23a9a:	7c68      	ldrb	r0, [r5, #17]
   23a9c:	900e      	str	r0, [sp, #56]	@ 0x38
   23a9e:	7be8      	ldrb	r0, [r5, #15]
   23aa0:	900c      	str	r0, [sp, #48]	@ 0x30
   23aa2:	7c2d      	ldrb	r5, [r5, #16]
   23aa4:	3113      	adds	r1, #19
   23aa6:	a8a3      	add	r0, sp, #652	@ 0x28c
   23aa8:	224a      	movs	r2, #74	@ 0x4a
   23aaa:	f003 fd1a 	bl	274e2 <__aeabi_memcpy>
   23aae:	0228      	lsls	r0, r5, #8
   23ab0:	990c      	ldr	r1, [sp, #48]	@ 0x30
   23ab2:	1840      	adds	r0, r0, r1
   23ab4:	990e      	ldr	r1, [sp, #56]	@ 0x38
   23ab6:	0409      	lsls	r1, r1, #16
   23ab8:	9a13      	ldr	r2, [sp, #76]	@ 0x4c
   23aba:	0612      	lsls	r2, r2, #24
   23abc:	1851      	adds	r1, r2, r1
   23abe:	1808      	adds	r0, r1, r0
   23ac0:	9013      	str	r0, [sp, #76]	@ 0x4c
   23ac2:	f7fe fe52 	bl	2276a <_start+0x2642>
   23ac6:	9c0a      	ldr	r4, [sp, #40]	@ 0x28
   23ac8:	340f      	adds	r4, #15
   23aca:	484c      	ldr	r0, [pc, #304]	@ (23bfc <_start+0x3ad4>)
   23acc:	4468      	add	r0, sp
   23ace:	494c      	ldr	r1, [pc, #304]	@ (23c00 <_start+0x3ad8>)
   23ad0:	4788      	blx	r1
   23ad2:	484c      	ldr	r0, [pc, #304]	@ (23c04 <_start+0x3adc>)
   23ad4:	4468      	add	r0, sp
   23ad6:	9013      	str	r0, [sp, #76]	@ 0x4c
   23ad8:	4949      	ldr	r1, [pc, #292]	@ (23c00 <_start+0x3ad8>)
   23ada:	4788      	blx	r1
   23adc:	9813      	ldr	r0, [sp, #76]	@ 0x4c
   23ade:	4948      	ldr	r1, [pc, #288]	@ (23c00 <_start+0x3ad8>)
   23ae0:	4788      	blx	r1
   23ae2:	9a0e      	ldr	r2, [sp, #56]	@ 0x38
   23ae4:	7890      	ldrb	r0, [r2, #2]
   23ae6:	a9a3      	add	r1, sp, #652	@ 0x28c
   23ae8:	7088      	strb	r0, [r1, #2]
   23aea:	7810      	ldrb	r0, [r2, #0]
   23aec:	7852      	ldrb	r2, [r2, #1]
   23aee:	0212      	lsls	r2, r2, #8
   23af0:	1810      	adds	r0, r2, r0
   23af2:	8008      	strh	r0, [r1, #0]
   23af4:	7a20      	ldrb	r0, [r4, #8]
   23af6:	7a61      	ldrb	r1, [r4, #9]
   23af8:	0209      	lsls	r1, r1, #8
   23afa:	1808      	adds	r0, r1, r0
   23afc:	7aa1      	ldrb	r1, [r4, #10]
   23afe:	0409      	lsls	r1, r1, #16
   23b00:	7ae2      	ldrb	r2, [r4, #11]
   23b02:	0612      	lsls	r2, r2, #24
   23b04:	1851      	adds	r1, r2, r1
   23b06:	1808      	adds	r0, r1, r0
   23b08:	900c      	str	r0, [sp, #48]	@ 0x30
   23b0a:	7920      	ldrb	r0, [r4, #4]
   23b0c:	7961      	ldrb	r1, [r4, #5]
   23b0e:	0209      	lsls	r1, r1, #8
   23b10:	1808      	adds	r0, r1, r0
   23b12:	79a1      	ldrb	r1, [r4, #6]
   23b14:	0409      	lsls	r1, r1, #16
   23b16:	79e2      	ldrb	r2, [r4, #7]
   23b18:	0612      	lsls	r2, r2, #24
   23b1a:	1851      	adds	r1, r2, r1
   23b1c:	1808      	adds	r0, r1, r0
   23b1e:	900e      	str	r0, [sp, #56]	@ 0x38
   23b20:	7820      	ldrb	r0, [r4, #0]
   23b22:	7861      	ldrb	r1, [r4, #1]
   23b24:	0209      	lsls	r1, r1, #8
   23b26:	1808      	adds	r0, r1, r0
   23b28:	78a1      	ldrb	r1, [r4, #2]
   23b2a:	0409      	lsls	r1, r1, #16
   23b2c:	78e2      	ldrb	r2, [r4, #3]
   23b2e:	0612      	lsls	r2, r2, #24
   23b30:	1851      	adds	r1, r2, r1
   23b32:	1808      	adds	r0, r1, r0
   23b34:	9013      	str	r0, [sp, #76]	@ 0x4c
   23b36:	f7fe fe82 	bl	2283e <_start+0x2716>
   23b3a:	4832      	ldr	r0, [pc, #200]	@ (23c04 <_start+0x3adc>)
   23b3c:	4468      	add	r0, sp
   23b3e:	4930      	ldr	r1, [pc, #192]	@ (23c00 <_start+0x3ad8>)
   23b40:	4788      	blx	r1
   23b42:	4d2e      	ldr	r5, [pc, #184]	@ (23bfc <_start+0x3ad4>)
   23b44:	446d      	add	r5, sp
   23b46:	4628      	mov	r0, r5
   23b48:	492d      	ldr	r1, [pc, #180]	@ (23c00 <_start+0x3ad8>)
   23b4a:	4788      	blx	r1
   23b4c:	4628      	mov	r0, r5
   23b4e:	492c      	ldr	r1, [pc, #176]	@ (23c00 <_start+0x3ad8>)
   23b50:	4788      	blx	r1
   23b52:	9a0e      	ldr	r2, [sp, #56]	@ 0x38
   23b54:	7890      	ldrb	r0, [r2, #2]
   23b56:	a9e4      	add	r1, sp, #912	@ 0x390
   23b58:	7088      	strb	r0, [r1, #2]
   23b5a:	7810      	ldrb	r0, [r2, #0]
   23b5c:	7852      	ldrb	r2, [r2, #1]
   23b5e:	0212      	lsls	r2, r2, #8
   23b60:	1810      	adds	r0, r2, r0
   23b62:	8008      	strh	r0, [r1, #0]
   23b64:	7ca8      	ldrb	r0, [r5, #18]
   23b66:	9013      	str	r0, [sp, #76]	@ 0x4c
   23b68:	7c68      	ldrb	r0, [r5, #17]
   23b6a:	900e      	str	r0, [sp, #56]	@ 0x38
   23b6c:	7be8      	ldrb	r0, [r5, #15]
   23b6e:	900c      	str	r0, [sp, #48]	@ 0x30
   23b70:	7c28      	ldrb	r0, [r5, #16]
   23b72:	900b      	str	r0, [sp, #44]	@ 0x2c
   23b74:	3513      	adds	r5, #19
   23b76:	a8ba      	add	r0, sp, #744	@ 0x2e8
   23b78:	223f      	movs	r2, #63	@ 0x3f
   23b7a:	4629      	mov	r1, r5
   23b7c:	f003 fcb1 	bl	274e2 <__aeabi_memcpy>
   23b80:	980b      	ldr	r0, [sp, #44]	@ 0x2c
   23b82:	0200      	lsls	r0, r0, #8
   23b84:	990c      	ldr	r1, [sp, #48]	@ 0x30
   23b86:	1840      	adds	r0, r0, r1
   23b88:	990e      	ldr	r1, [sp, #56]	@ 0x38
   23b8a:	0409      	lsls	r1, r1, #16
   23b8c:	9a13      	ldr	r2, [sp, #76]	@ 0x4c
   23b8e:	0612      	lsls	r2, r2, #24
   23b90:	1851      	adds	r1, r2, r1
   23b92:	1808      	adds	r0, r1, r0
   23b94:	9013      	str	r0, [sp, #76]	@ 0x4c
   23b96:	f7fe fec4 	bl	22922 <_start+0x27fa>
   23b9a:	481a      	ldr	r0, [pc, #104]	@ (23c04 <_start+0x3adc>)
   23b9c:	4468      	add	r0, sp
   23b9e:	4918      	ldr	r1, [pc, #96]	@ (23c00 <_start+0x3ad8>)
   23ba0:	4788      	blx	r1
   23ba2:	4c16      	ldr	r4, [pc, #88]	@ (23bfc <_start+0x3ad4>)
   23ba4:	446c      	add	r4, sp
   23ba6:	4620      	mov	r0, r4
   23ba8:	4915      	ldr	r1, [pc, #84]	@ (23c00 <_start+0x3ad8>)
   23baa:	4788      	blx	r1
   23bac:	4620      	mov	r0, r4
   23bae:	4914      	ldr	r1, [pc, #80]	@ (23c00 <_start+0x3ad8>)
   23bb0:	4788      	blx	r1
   23bb2:	9a0e      	ldr	r2, [sp, #56]	@ 0x38
   23bb4:	7890      	ldrb	r0, [r2, #2]
   23bb6:	a9e4      	add	r1, sp, #912	@ 0x390
   23bb8:	7088      	strb	r0, [r1, #2]
   23bba:	7810      	ldrb	r0, [r2, #0]
   23bbc:	7852      	ldrb	r2, [r2, #1]
   23bbe:	0212      	lsls	r2, r2, #8
   23bc0:	1810      	adds	r0, r2, r0
   23bc2:	8008      	strh	r0, [r1, #0]
   23bc4:	7ca0      	ldrb	r0, [r4, #18]
   23bc6:	9013      	str	r0, [sp, #76]	@ 0x4c
   23bc8:	7c60      	ldrb	r0, [r4, #17]
   23bca:	900e      	str	r0, [sp, #56]	@ 0x38
   23bcc:	7be0      	ldrb	r0, [r4, #15]
   23bce:	900c      	str	r0, [sp, #48]	@ 0x30
   23bd0:	7c20      	ldrb	r0, [r4, #16]
   23bd2:	900b      	str	r0, [sp, #44]	@ 0x2c
   23bd4:	3413      	adds	r4, #19
   23bd6:	a8ba      	add	r0, sp, #744	@ 0x2e8
   23bd8:	224f      	movs	r2, #79	@ 0x4f
   23bda:	4621      	mov	r1, r4
   23bdc:	f003 fc81 	bl	274e2 <__aeabi_memcpy>
   23be0:	980b      	ldr	r0, [sp, #44]	@ 0x2c
   23be2:	0200      	lsls	r0, r0, #8
   23be4:	990c      	ldr	r1, [sp, #48]	@ 0x30
   23be6:	1840      	adds	r0, r0, r1
   23be8:	990e      	ldr	r1, [sp, #56]	@ 0x38
   23bea:	0409      	lsls	r1, r1, #16
   23bec:	9a13      	ldr	r2, [sp, #76]	@ 0x4c
   23bee:	0612      	lsls	r2, r2, #24
   23bf0:	1851      	adds	r1, r2, r1
   23bf2:	1808      	adds	r0, r1, r0
   23bf4:	9013      	str	r0, [sp, #76]	@ 0x4c
   23bf6:	f7fe ff00 	bl	229fa <_start+0x28d2>
   23bfa:	46c0      	nop			@ (mov r8, r8)
   23bfc:	000005cc 	.word	0x000005cc
   23c00:	00027161 	.word	0x00027161
   23c04:	00000568 	.word	0x00000568
   23c08:	48eb      	ldr	r0, [pc, #940]	@ (23fb8 <_start+0x3e90>)
   23c0a:	4468      	add	r0, sp
   23c0c:	49eb      	ldr	r1, [pc, #940]	@ (23fbc <_start+0x3e94>)
   23c0e:	4788      	blx	r1
   23c10:	4deb      	ldr	r5, [pc, #940]	@ (23fc0 <_start+0x3e98>)
   23c12:	446d      	add	r5, sp
   23c14:	4628      	mov	r0, r5
   23c16:	49e9      	ldr	r1, [pc, #932]	@ (23fbc <_start+0x3e94>)
   23c18:	4788      	blx	r1
   23c1a:	4628      	mov	r0, r5
   23c1c:	49e7      	ldr	r1, [pc, #924]	@ (23fbc <_start+0x3e94>)
   23c1e:	4788      	blx	r1
   23c20:	9a0e      	ldr	r2, [sp, #56]	@ 0x38
   23c22:	7890      	ldrb	r0, [r2, #2]
   23c24:	a9e4      	add	r1, sp, #912	@ 0x390
   23c26:	7088      	strb	r0, [r1, #2]
   23c28:	7810      	ldrb	r0, [r2, #0]
   23c2a:	7852      	ldrb	r2, [r2, #1]
   23c2c:	0212      	lsls	r2, r2, #8
   23c2e:	1810      	adds	r0, r2, r0
   23c30:	8008      	strh	r0, [r1, #0]
   23c32:	7ca8      	ldrb	r0, [r5, #18]
   23c34:	9013      	str	r0, [sp, #76]	@ 0x4c
   23c36:	7c68      	ldrb	r0, [r5, #17]
   23c38:	900e      	str	r0, [sp, #56]	@ 0x38
   23c3a:	7be8      	ldrb	r0, [r5, #15]
   23c3c:	900c      	str	r0, [sp, #48]	@ 0x30
   23c3e:	7c28      	ldrb	r0, [r5, #16]
   23c40:	900b      	str	r0, [sp, #44]	@ 0x2c
   23c42:	3513      	adds	r5, #19
   23c44:	a8ba      	add	r0, sp, #744	@ 0x2e8
   23c46:	2242      	movs	r2, #66	@ 0x42
   23c48:	4629      	mov	r1, r5
   23c4a:	f003 fc4a 	bl	274e2 <__aeabi_memcpy>
   23c4e:	980b      	ldr	r0, [sp, #44]	@ 0x2c
   23c50:	0200      	lsls	r0, r0, #8
   23c52:	990c      	ldr	r1, [sp, #48]	@ 0x30
   23c54:	1840      	adds	r0, r0, r1
   23c56:	990e      	ldr	r1, [sp, #56]	@ 0x38
   23c58:	0409      	lsls	r1, r1, #16
   23c5a:	9a13      	ldr	r2, [sp, #76]	@ 0x4c
   23c5c:	0612      	lsls	r2, r2, #24
   23c5e:	1851      	adds	r1, r2, r1
   23c60:	1808      	adds	r0, r1, r0
   23c62:	9013      	str	r0, [sp, #76]	@ 0x4c
   23c64:	f7fe ff37 	bl	22ad6 <_start+0x29ae>
   23c68:	48d3      	ldr	r0, [pc, #844]	@ (23fb8 <_start+0x3e90>)
   23c6a:	4468      	add	r0, sp
   23c6c:	49d3      	ldr	r1, [pc, #844]	@ (23fbc <_start+0x3e94>)
   23c6e:	4788      	blx	r1
   23c70:	4dd3      	ldr	r5, [pc, #844]	@ (23fc0 <_start+0x3e98>)
   23c72:	446d      	add	r5, sp
   23c74:	4628      	mov	r0, r5
   23c76:	49d1      	ldr	r1, [pc, #836]	@ (23fbc <_start+0x3e94>)
   23c78:	4788      	blx	r1
   23c7a:	4628      	mov	r0, r5
   23c7c:	49cf      	ldr	r1, [pc, #828]	@ (23fbc <_start+0x3e94>)
   23c7e:	4788      	blx	r1
   23c80:	9a0e      	ldr	r2, [sp, #56]	@ 0x38
   23c82:	7890      	ldrb	r0, [r2, #2]
   23c84:	a9ba      	add	r1, sp, #744	@ 0x2e8
   23c86:	7088      	strb	r0, [r1, #2]
   23c88:	7810      	ldrb	r0, [r2, #0]
   23c8a:	7852      	ldrb	r2, [r2, #1]
   23c8c:	0212      	lsls	r2, r2, #8
   23c8e:	1810      	adds	r0, r2, r0
   23c90:	8008      	strh	r0, [r1, #0]
   23c92:	7ca8      	ldrb	r0, [r5, #18]
   23c94:	9013      	str	r0, [sp, #76]	@ 0x4c
   23c96:	7c68      	ldrb	r0, [r5, #17]
   23c98:	900e      	str	r0, [sp, #56]	@ 0x38
   23c9a:	7be8      	ldrb	r0, [r5, #15]
   23c9c:	900c      	str	r0, [sp, #48]	@ 0x30
   23c9e:	7c28      	ldrb	r0, [r5, #16]
   23ca0:	900b      	str	r0, [sp, #44]	@ 0x2c
   23ca2:	3513      	adds	r5, #19
   23ca4:	a8a3      	add	r0, sp, #652	@ 0x28c
   23ca6:	221c      	movs	r2, #28
   23ca8:	4629      	mov	r1, r5
   23caa:	f003 fc1a 	bl	274e2 <__aeabi_memcpy>
   23cae:	980b      	ldr	r0, [sp, #44]	@ 0x2c
   23cb0:	0200      	lsls	r0, r0, #8
   23cb2:	990c      	ldr	r1, [sp, #48]	@ 0x30
   23cb4:	1840      	adds	r0, r0, r1
   23cb6:	990e      	ldr	r1, [sp, #56]	@ 0x38
   23cb8:	0409      	lsls	r1, r1, #16
   23cba:	9a13      	ldr	r2, [sp, #76]	@ 0x4c
   23cbc:	0612      	lsls	r2, r2, #24
   23cbe:	1851      	adds	r1, r2, r1
   23cc0:	1808      	adds	r0, r1, r0
   23cc2:	9013      	str	r0, [sp, #76]	@ 0x4c
   23cc4:	f7fe ff73 	bl	22bae <_start+0x2a86>
   23cc8:	48bd      	ldr	r0, [pc, #756]	@ (23fc0 <_start+0x3e98>)
   23cca:	4468      	add	r0, sp
   23ccc:	49bb      	ldr	r1, [pc, #748]	@ (23fbc <_start+0x3e94>)
   23cce:	4788      	blx	r1
   23cd0:	4db9      	ldr	r5, [pc, #740]	@ (23fb8 <_start+0x3e90>)
   23cd2:	446d      	add	r5, sp
   23cd4:	4628      	mov	r0, r5
   23cd6:	49b9      	ldr	r1, [pc, #740]	@ (23fbc <_start+0x3e94>)
   23cd8:	4788      	blx	r1
   23cda:	4628      	mov	r0, r5
   23cdc:	49b7      	ldr	r1, [pc, #732]	@ (23fbc <_start+0x3e94>)
   23cde:	4788      	blx	r1
   23ce0:	9a0e      	ldr	r2, [sp, #56]	@ 0x38
   23ce2:	7890      	ldrb	r0, [r2, #2]
   23ce4:	a9ba      	add	r1, sp, #744	@ 0x2e8
   23ce6:	7088      	strb	r0, [r1, #2]
   23ce8:	7810      	ldrb	r0, [r2, #0]
   23cea:	7852      	ldrb	r2, [r2, #1]
   23cec:	0212      	lsls	r2, r2, #8
   23cee:	1810      	adds	r0, r2, r0
   23cf0:	8008      	strh	r0, [r1, #0]
   23cf2:	4629      	mov	r1, r5
   23cf4:	7ca8      	ldrb	r0, [r5, #18]
   23cf6:	9013      	str	r0, [sp, #76]	@ 0x4c
   23cf8:	7c68      	ldrb	r0, [r5, #17]
   23cfa:	900e      	str	r0, [sp, #56]	@ 0x38
   23cfc:	7be8      	ldrb	r0, [r5, #15]
   23cfe:	900c      	str	r0, [sp, #48]	@ 0x30
   23d00:	7c2d      	ldrb	r5, [r5, #16]
   23d02:	3113      	adds	r1, #19
   23d04:	a8a3      	add	r0, sp, #652	@ 0x28c
   23d06:	2224      	movs	r2, #36	@ 0x24
   23d08:	f003 fbeb 	bl	274e2 <__aeabi_memcpy>
   23d0c:	0228      	lsls	r0, r5, #8
   23d0e:	990c      	ldr	r1, [sp, #48]	@ 0x30
   23d10:	1840      	adds	r0, r0, r1
   23d12:	990e      	ldr	r1, [sp, #56]	@ 0x38
   23d14:	0409      	lsls	r1, r1, #16
   23d16:	9a13      	ldr	r2, [sp, #76]	@ 0x4c
   23d18:	0612      	lsls	r2, r2, #24
   23d1a:	1851      	adds	r1, r2, r1
   23d1c:	1808      	adds	r0, r1, r0
   23d1e:	9013      	str	r0, [sp, #76]	@ 0x4c
   23d20:	f7fe ffa8 	bl	22c74 <_start+0x2b4c>
   23d24:	980e      	ldr	r0, [sp, #56]	@ 0x38
   23d26:	300c      	adds	r0, #12
   23d28:	900e      	str	r0, [sp, #56]	@ 0x38
   23d2a:	48a3      	ldr	r0, [pc, #652]	@ (23fb8 <_start+0x3e90>)
   23d2c:	4468      	add	r0, sp
   23d2e:	49a3      	ldr	r1, [pc, #652]	@ (23fbc <_start+0x3e94>)
   23d30:	4788      	blx	r1
   23d32:	4ca3      	ldr	r4, [pc, #652]	@ (23fc0 <_start+0x3e98>)
   23d34:	446c      	add	r4, sp
   23d36:	4620      	mov	r0, r4
   23d38:	49a0      	ldr	r1, [pc, #640]	@ (23fbc <_start+0x3e94>)
   23d3a:	4788      	blx	r1
   23d3c:	4620      	mov	r0, r4
   23d3e:	499f      	ldr	r1, [pc, #636]	@ (23fbc <_start+0x3e94>)
   23d40:	4788      	blx	r1
   23d42:	9a0e      	ldr	r2, [sp, #56]	@ 0x38
   23d44:	7890      	ldrb	r0, [r2, #2]
   23d46:	a9e4      	add	r1, sp, #912	@ 0x390
   23d48:	7088      	strb	r0, [r1, #2]
   23d4a:	7810      	ldrb	r0, [r2, #0]
   23d4c:	7852      	ldrb	r2, [r2, #1]
   23d4e:	0212      	lsls	r2, r2, #8
   23d50:	1810      	adds	r0, r2, r0
   23d52:	8008      	strh	r0, [r1, #0]
   23d54:	7de0      	ldrb	r0, [r4, #23]
   23d56:	990f      	ldr	r1, [sp, #60]	@ 0x3c
   23d58:	68c9      	ldr	r1, [r1, #12]
   23d5a:	0209      	lsls	r1, r1, #8
   23d5c:	1808      	adds	r0, r1, r0
   23d5e:	a9ba      	add	r1, sp, #744	@ 0x2e8
   23d60:	8088      	strh	r0, [r1, #4]
   23d62:	7ce0      	ldrb	r0, [r4, #19]
   23d64:	7d21      	ldrb	r1, [r4, #20]
   23d66:	0209      	lsls	r1, r1, #8
   23d68:	1808      	adds	r0, r1, r0
   23d6a:	7d61      	ldrb	r1, [r4, #21]
   23d6c:	0409      	lsls	r1, r1, #16
   23d6e:	7da2      	ldrb	r2, [r4, #22]
   23d70:	0612      	lsls	r2, r2, #24
   23d72:	1851      	adds	r1, r2, r1
   23d74:	1808      	adds	r0, r1, r0
   23d76:	90ba      	str	r0, [sp, #744]	@ 0x2e8
   23d78:	7be0      	ldrb	r0, [r4, #15]
   23d7a:	7c21      	ldrb	r1, [r4, #16]
   23d7c:	0209      	lsls	r1, r1, #8
   23d7e:	1808      	adds	r0, r1, r0
   23d80:	7c61      	ldrb	r1, [r4, #17]
   23d82:	0409      	lsls	r1, r1, #16
   23d84:	7ca2      	ldrb	r2, [r4, #18]
   23d86:	0612      	lsls	r2, r2, #24
   23d88:	1851      	adds	r1, r2, r1
   23d8a:	1808      	adds	r0, r1, r0
   23d8c:	9013      	str	r0, [sp, #76]	@ 0x4c
   23d8e:	f7fe ffcb 	bl	22d28 <_start+0x2c00>
   23d92:	488b      	ldr	r0, [pc, #556]	@ (23fc0 <_start+0x3e98>)
   23d94:	4468      	add	r0, sp
   23d96:	4989      	ldr	r1, [pc, #548]	@ (23fbc <_start+0x3e94>)
   23d98:	4788      	blx	r1
   23d9a:	4c87      	ldr	r4, [pc, #540]	@ (23fb8 <_start+0x3e90>)
   23d9c:	446c      	add	r4, sp
   23d9e:	4620      	mov	r0, r4
   23da0:	4986      	ldr	r1, [pc, #536]	@ (23fbc <_start+0x3e94>)
   23da2:	4788      	blx	r1
   23da4:	4620      	mov	r0, r4
   23da6:	4985      	ldr	r1, [pc, #532]	@ (23fbc <_start+0x3e94>)
   23da8:	4788      	blx	r1
   23daa:	9a0e      	ldr	r2, [sp, #56]	@ 0x38
   23dac:	7890      	ldrb	r0, [r2, #2]
   23dae:	a9ff      	add	r1, sp, #1020	@ 0x3fc
   23db0:	31f8      	adds	r1, #248	@ 0xf8
   23db2:	7088      	strb	r0, [r1, #2]
   23db4:	7810      	ldrb	r0, [r2, #0]
   23db6:	7852      	ldrb	r2, [r2, #1]
   23db8:	0212      	lsls	r2, r2, #8
   23dba:	1810      	adds	r0, r2, r0
   23dbc:	8008      	strh	r0, [r1, #0]
   23dbe:	4621      	mov	r1, r4
   23dc0:	7ca0      	ldrb	r0, [r4, #18]
   23dc2:	9013      	str	r0, [sp, #76]	@ 0x4c
   23dc4:	7c60      	ldrb	r0, [r4, #17]
   23dc6:	900e      	str	r0, [sp, #56]	@ 0x38
   23dc8:	7be0      	ldrb	r0, [r4, #15]
   23dca:	900c      	str	r0, [sp, #48]	@ 0x30
   23dcc:	7c24      	ldrb	r4, [r4, #16]
   23dce:	3113      	adds	r1, #19
   23dd0:	a8e4      	add	r0, sp, #912	@ 0x390
   23dd2:	221a      	movs	r2, #26
   23dd4:	f003 fb85 	bl	274e2 <__aeabi_memcpy>
   23dd8:	0220      	lsls	r0, r4, #8
   23dda:	990c      	ldr	r1, [sp, #48]	@ 0x30
   23ddc:	1840      	adds	r0, r0, r1
   23dde:	990e      	ldr	r1, [sp, #56]	@ 0x38
   23de0:	0409      	lsls	r1, r1, #16
   23de2:	9a13      	ldr	r2, [sp, #76]	@ 0x4c
   23de4:	0612      	lsls	r2, r2, #24
   23de6:	1851      	adds	r1, r2, r1
   23de8:	1808      	adds	r0, r1, r0
   23dea:	9013      	str	r0, [sp, #76]	@ 0x4c
   23dec:	f7fe fff4 	bl	22dd8 <_start+0x2cb0>
   23df0:	a8a3      	add	r0, sp, #652	@ 0x28c
   23df2:	4972      	ldr	r1, [pc, #456]	@ (23fbc <_start+0x3e94>)
   23df4:	4788      	blx	r1
   23df6:	4d70      	ldr	r5, [pc, #448]	@ (23fb8 <_start+0x3e90>)
   23df8:	446d      	add	r5, sp
   23dfa:	4628      	mov	r0, r5
   23dfc:	496f      	ldr	r1, [pc, #444]	@ (23fbc <_start+0x3e94>)
   23dfe:	4788      	blx	r1
   23e00:	4628      	mov	r0, r5
   23e02:	496e      	ldr	r1, [pc, #440]	@ (23fbc <_start+0x3e94>)
   23e04:	4788      	blx	r1
   23e06:	9a0e      	ldr	r2, [sp, #56]	@ 0x38
   23e08:	7890      	ldrb	r0, [r2, #2]
   23e0a:	a9ba      	add	r1, sp, #744	@ 0x2e8
   23e0c:	7088      	strb	r0, [r1, #2]
   23e0e:	7810      	ldrb	r0, [r2, #0]
   23e10:	7852      	ldrb	r2, [r2, #1]
   23e12:	0212      	lsls	r2, r2, #8
   23e14:	1810      	adds	r0, r2, r0
   23e16:	8008      	strh	r0, [r1, #0]
   23e18:	7ca8      	ldrb	r0, [r5, #18]
   23e1a:	9013      	str	r0, [sp, #76]	@ 0x4c
   23e1c:	7c68      	ldrb	r0, [r5, #17]
   23e1e:	900e      	str	r0, [sp, #56]	@ 0x38
   23e20:	7be8      	ldrb	r0, [r5, #15]
   23e22:	900c      	str	r0, [sp, #48]	@ 0x30
   23e24:	7c28      	ldrb	r0, [r5, #16]
   23e26:	900b      	str	r0, [sp, #44]	@ 0x2c
   23e28:	3513      	adds	r5, #19
   23e2a:	4865      	ldr	r0, [pc, #404]	@ (23fc0 <_start+0x3e98>)
   23e2c:	4468      	add	r0, sp
   23e2e:	224c      	movs	r2, #76	@ 0x4c
   23e30:	4629      	mov	r1, r5
   23e32:	f003 fb56 	bl	274e2 <__aeabi_memcpy>
   23e36:	980b      	ldr	r0, [sp, #44]	@ 0x2c
   23e38:	0200      	lsls	r0, r0, #8
   23e3a:	990c      	ldr	r1, [sp, #48]	@ 0x30
   23e3c:	1840      	adds	r0, r0, r1
   23e3e:	990e      	ldr	r1, [sp, #56]	@ 0x38
   23e40:	0409      	lsls	r1, r1, #16
   23e42:	9a13      	ldr	r2, [sp, #76]	@ 0x4c
   23e44:	0612      	lsls	r2, r2, #24
   23e46:	1851      	adds	r1, r2, r1
   23e48:	1808      	adds	r0, r1, r0
   23e4a:	9013      	str	r0, [sp, #76]	@ 0x4c
   23e4c:	f7ff f81d 	bl	22e8a <_start+0x2d62>
   23e50:	4859      	ldr	r0, [pc, #356]	@ (23fb8 <_start+0x3e90>)
   23e52:	4468      	add	r0, sp
   23e54:	4959      	ldr	r1, [pc, #356]	@ (23fbc <_start+0x3e94>)
   23e56:	4788      	blx	r1
   23e58:	4d59      	ldr	r5, [pc, #356]	@ (23fc0 <_start+0x3e98>)
   23e5a:	446d      	add	r5, sp
   23e5c:	4628      	mov	r0, r5
   23e5e:	4957      	ldr	r1, [pc, #348]	@ (23fbc <_start+0x3e94>)
   23e60:	4788      	blx	r1
   23e62:	4628      	mov	r0, r5
   23e64:	4955      	ldr	r1, [pc, #340]	@ (23fbc <_start+0x3e94>)
   23e66:	4788      	blx	r1
   23e68:	9a0c      	ldr	r2, [sp, #48]	@ 0x30
   23e6a:	7890      	ldrb	r0, [r2, #2]
   23e6c:	a9e4      	add	r1, sp, #912	@ 0x390
   23e6e:	7088      	strb	r0, [r1, #2]
   23e70:	7810      	ldrb	r0, [r2, #0]
   23e72:	7852      	ldrb	r2, [r2, #1]
   23e74:	0212      	lsls	r2, r2, #8
   23e76:	1810      	adds	r0, r2, r0
   23e78:	8008      	strh	r0, [r1, #0]
   23e7a:	7ca8      	ldrb	r0, [r5, #18]
   23e7c:	9013      	str	r0, [sp, #76]	@ 0x4c
   23e7e:	7c68      	ldrb	r0, [r5, #17]
   23e80:	900c      	str	r0, [sp, #48]	@ 0x30
   23e82:	7be8      	ldrb	r0, [r5, #15]
   23e84:	900b      	str	r0, [sp, #44]	@ 0x2c
   23e86:	7c28      	ldrb	r0, [r5, #16]
   23e88:	900a      	str	r0, [sp, #40]	@ 0x28
   23e8a:	3513      	adds	r5, #19
   23e8c:	a8ba      	add	r0, sp, #744	@ 0x2e8
   23e8e:	2246      	movs	r2, #70	@ 0x46
   23e90:	4629      	mov	r1, r5
   23e92:	f003 fb26 	bl	274e2 <__aeabi_memcpy>
   23e96:	980a      	ldr	r0, [sp, #40]	@ 0x28
   23e98:	0200      	lsls	r0, r0, #8
   23e9a:	990b      	ldr	r1, [sp, #44]	@ 0x2c
   23e9c:	1840      	adds	r0, r0, r1
   23e9e:	990c      	ldr	r1, [sp, #48]	@ 0x30
   23ea0:	0409      	lsls	r1, r1, #16
   23ea2:	9a13      	ldr	r2, [sp, #76]	@ 0x4c
   23ea4:	0612      	lsls	r2, r2, #24
   23ea6:	1851      	adds	r1, r2, r1
   23ea8:	1808      	adds	r0, r1, r0
   23eaa:	9013      	str	r0, [sp, #76]	@ 0x4c
   23eac:	f7ff f848 	bl	22f40 <_start+0x2e18>
   23eb0:	4841      	ldr	r0, [pc, #260]	@ (23fb8 <_start+0x3e90>)
   23eb2:	4468      	add	r0, sp
   23eb4:	4941      	ldr	r1, [pc, #260]	@ (23fbc <_start+0x3e94>)
   23eb6:	4788      	blx	r1
   23eb8:	4d41      	ldr	r5, [pc, #260]	@ (23fc0 <_start+0x3e98>)
   23eba:	446d      	add	r5, sp
   23ebc:	4628      	mov	r0, r5
   23ebe:	493f      	ldr	r1, [pc, #252]	@ (23fbc <_start+0x3e94>)
   23ec0:	4788      	blx	r1
   23ec2:	4628      	mov	r0, r5
   23ec4:	493d      	ldr	r1, [pc, #244]	@ (23fbc <_start+0x3e94>)
   23ec6:	4788      	blx	r1
   23ec8:	9a0b      	ldr	r2, [sp, #44]	@ 0x2c
   23eca:	7890      	ldrb	r0, [r2, #2]
   23ecc:	a9e4      	add	r1, sp, #912	@ 0x390
   23ece:	7088      	strb	r0, [r1, #2]
   23ed0:	7810      	ldrb	r0, [r2, #0]
   23ed2:	7852      	ldrb	r2, [r2, #1]
   23ed4:	0212      	lsls	r2, r2, #8
   23ed6:	1810      	adds	r0, r2, r0
   23ed8:	8008      	strh	r0, [r1, #0]
   23eda:	7ca8      	ldrb	r0, [r5, #18]
   23edc:	9013      	str	r0, [sp, #76]	@ 0x4c
   23ede:	7c68      	ldrb	r0, [r5, #17]
   23ee0:	900e      	str	r0, [sp, #56]	@ 0x38
   23ee2:	7be8      	ldrb	r0, [r5, #15]
   23ee4:	900b      	str	r0, [sp, #44]	@ 0x2c
   23ee6:	7c28      	ldrb	r0, [r5, #16]
   23ee8:	900a      	str	r0, [sp, #40]	@ 0x28
   23eea:	3513      	adds	r5, #19
   23eec:	a8ba      	add	r0, sp, #744	@ 0x2e8
   23eee:	2235      	movs	r2, #53	@ 0x35
   23ef0:	4629      	mov	r1, r5
   23ef2:	f003 faf6 	bl	274e2 <__aeabi_memcpy>
   23ef6:	980a      	ldr	r0, [sp, #40]	@ 0x28
   23ef8:	0200      	lsls	r0, r0, #8
   23efa:	990b      	ldr	r1, [sp, #44]	@ 0x2c
   23efc:	1840      	adds	r0, r0, r1
   23efe:	990e      	ldr	r1, [sp, #56]	@ 0x38
   23f00:	0409      	lsls	r1, r1, #16
   23f02:	9a13      	ldr	r2, [sp, #76]	@ 0x4c
   23f04:	0612      	lsls	r2, r2, #24
   23f06:	1851      	adds	r1, r2, r1
   23f08:	1808      	adds	r0, r1, r0
   23f0a:	9013      	str	r0, [sp, #76]	@ 0x4c
   23f0c:	482c      	ldr	r0, [pc, #176]	@ (23fc0 <_start+0x3e98>)
   23f0e:	4468      	add	r0, sp
   23f10:	f003 f926 	bl	27160 <_ZN9allow_pin12full_dynamic17unshare_if_shared17hc38d0bd70fd52db9E>
   23f14:	4828      	ldr	r0, [pc, #160]	@ (23fb8 <_start+0x3e90>)
   23f16:	4468      	add	r0, sp
   23f18:	f003 f922 	bl	27160 <_ZN9allow_pin12full_dynamic17unshare_if_shared17hc38d0bd70fd52db9E>
   23f1c:	2c00      	cmp	r4, #0
   23f1e:	d001      	beq.n	23f24 <_start+0x3dfc>
   23f20:	f003 f899 	bl	27056 <_start+0x6f2e>
   23f24:	4c24      	ldr	r4, [pc, #144]	@ (23fb8 <_start+0x3e90>)
   23f26:	446c      	add	r4, sp
   23f28:	4620      	mov	r0, r4
   23f2a:	300c      	adds	r0, #12
   23f2c:	a9e4      	add	r1, sp, #912	@ 0x390
   23f2e:	9a0c      	ldr	r2, [sp, #48]	@ 0x30
   23f30:	f003 fad7 	bl	274e2 <__aeabi_memcpy>
   23f34:	a8a3      	add	r0, sp, #652	@ 0x28c
   23f36:	900e      	str	r0, [sp, #56]	@ 0x38
   23f38:	a9ba      	add	r1, sp, #744	@ 0x2e8
   23f3a:	2535      	movs	r5, #53	@ 0x35
   23f3c:	462a      	mov	r2, r5
   23f3e:	f003 fad0 	bl	274e2 <__aeabi_memcpy>
   23f42:	4620      	mov	r0, r4
   23f44:	3013      	adds	r0, #19
   23f46:	990e      	ldr	r1, [sp, #56]	@ 0x38
   23f48:	462a      	mov	r2, r5
   23f4a:	f003 faca 	bl	274e2 <__aeabi_memcpy>
   23f4e:	9913      	ldr	r1, [sp, #76]	@ 0x4c
   23f50:	0e08      	lsrs	r0, r1, #24
   23f52:	74a0      	strb	r0, [r4, #18]
   23f54:	0c08      	lsrs	r0, r1, #16
   23f56:	7460      	strb	r0, [r4, #17]
   23f58:	0a08      	lsrs	r0, r1, #8
   23f5a:	7420      	strb	r0, [r4, #16]
   23f5c:	73e1      	strb	r1, [r4, #15]
   23f5e:	9812      	ldr	r0, [sp, #72]	@ 0x48
   23f60:	7220      	strb	r0, [r4, #8]
   23f62:	4d17      	ldr	r5, [pc, #92]	@ (23fc0 <_start+0x3e98>)
   23f64:	446d      	add	r5, sp
   23f66:	4628      	mov	r0, r5
   23f68:	300c      	adds	r0, #12
   23f6a:	2138      	movs	r1, #56	@ 0x38
   23f6c:	900e      	str	r0, [sp, #56]	@ 0x38
   23f6e:	f003 f90b 	bl	27188 <__aeabi_memclr4>
   23f72:	9812      	ldr	r0, [sp, #72]	@ 0x48
   23f74:	7228      	strb	r0, [r5, #8]
   23f76:	980c      	ldr	r0, [sp, #48]	@ 0x30
   23f78:	9000      	str	r0, [sp, #0]
   23f7a:	213c      	movs	r1, #60	@ 0x3c
   23f7c:	2204      	movs	r2, #4
   23f7e:	4620      	mov	r0, r4
   23f80:	4b10      	ldr	r3, [pc, #64]	@ (23fc4 <_start+0x3e9c>)
   23f82:	f7fc f8af 	bl	200e4 <_ZN9allow_pin12full_dynamic15Buffer$LT$B$GT$5allow17h6d4ce413c213cdffE>
   23f86:	9113      	str	r1, [sp, #76]	@ 0x4c
   23f88:	07c0      	lsls	r0, r0, #31
   23f8a:	d113      	bne.n	23fb4 <_start+0x3e8c>
   23f8c:	9a0c      	ldr	r2, [sp, #48]	@ 0x30
   23f8e:	9200      	str	r2, [sp, #0]
   23f90:	480b      	ldr	r0, [pc, #44]	@ (23fc0 <_start+0x3e98>)
   23f92:	4468      	add	r0, sp
   23f94:	2138      	movs	r1, #56	@ 0x38
   23f96:	4b0b      	ldr	r3, [pc, #44]	@ (23fc4 <_start+0x3e9c>)
   23f98:	f7fc f8a4 	bl	200e4 <_ZN9allow_pin12full_dynamic15Buffer$LT$B$GT$5allow17h6d4ce413c213cdffE>
   23f9c:	9113      	str	r1, [sp, #76]	@ 0x4c
   23f9e:	07c0      	lsls	r0, r0, #31
   23fa0:	d108      	bne.n	23fb4 <_start+0x3e8c>
   23fa2:	4808      	ldr	r0, [pc, #32]	@ (23fc4 <_start+0x3e9c>)
   23fa4:	2103      	movs	r1, #3
   23fa6:	2300      	movs	r3, #0
   23fa8:	460a      	mov	r2, r1
   23faa:	461d      	mov	r5, r3
   23fac:	df02      	svc	2
   23fae:	9113      	str	r1, [sp, #76]	@ 0x4c
   23fb0:	287f      	cmp	r0, #127	@ 0x7f
   23fb2:	d809      	bhi.n	23fc8 <_start+0x3ea0>
   23fb4:	9d11      	ldr	r5, [sp, #68]	@ 0x44
   23fb6:	e035      	b.n	24024 <_start+0x3efc>
   23fb8:	000005cc 	.word	0x000005cc
   23fbc:	00027161 	.word	0x00027161
   23fc0:	00000568 	.word	0x00000568
   23fc4:	00001d19 	.word	0x00001d19
   23fc8:	48c6      	ldr	r0, [pc, #792]	@ (242e4 <_start+0x41bc>)
   23fca:	4468      	add	r0, sp
   23fcc:	49c6      	ldr	r1, [pc, #792]	@ (242e8 <_start+0x41c0>)
   23fce:	4788      	blx	r1
   23fd0:	4cc6      	ldr	r4, [pc, #792]	@ (242ec <_start+0x41c4>)
   23fd2:	446c      	add	r4, sp
   23fd4:	4620      	mov	r0, r4
   23fd6:	49c4      	ldr	r1, [pc, #784]	@ (242e8 <_start+0x41c0>)
   23fd8:	4788      	blx	r1
   23fda:	4620      	mov	r0, r4
   23fdc:	49c2      	ldr	r1, [pc, #776]	@ (242e8 <_start+0x41c0>)
   23fde:	4788      	blx	r1
   23fe0:	9a0e      	ldr	r2, [sp, #56]	@ 0x38
   23fe2:	7890      	ldrb	r0, [r2, #2]
   23fe4:	a9e4      	add	r1, sp, #912	@ 0x390
   23fe6:	7088      	strb	r0, [r1, #2]
   23fe8:	7810      	ldrb	r0, [r2, #0]
   23fea:	7852      	ldrb	r2, [r2, #1]
   23fec:	0212      	lsls	r2, r2, #8
   23fee:	1810      	adds	r0, r2, r0
   23ff0:	8008      	strh	r0, [r1, #0]
   23ff2:	7ca0      	ldrb	r0, [r4, #18]
   23ff4:	9013      	str	r0, [sp, #76]	@ 0x4c
   23ff6:	7c60      	ldrb	r0, [r4, #17]
   23ff8:	900e      	str	r0, [sp, #56]	@ 0x38
   23ffa:	7be0      	ldrb	r0, [r4, #15]
   23ffc:	900c      	str	r0, [sp, #48]	@ 0x30
   23ffe:	7c20      	ldrb	r0, [r4, #16]
   24000:	900b      	str	r0, [sp, #44]	@ 0x2c
   24002:	3413      	adds	r4, #19
   24004:	a8ba      	add	r0, sp, #744	@ 0x2e8
   24006:	2231      	movs	r2, #49	@ 0x31
   24008:	4621      	mov	r1, r4
   2400a:	f003 fa6a 	bl	274e2 <__aeabi_memcpy>
   2400e:	980b      	ldr	r0, [sp, #44]	@ 0x2c
   24010:	0200      	lsls	r0, r0, #8
   24012:	990c      	ldr	r1, [sp, #48]	@ 0x30
   24014:	1840      	adds	r0, r0, r1
   24016:	990e      	ldr	r1, [sp, #56]	@ 0x38
   24018:	0409      	lsls	r1, r1, #16
   2401a:	9a13      	ldr	r2, [sp, #76]	@ 0x4c
   2401c:	0612      	lsls	r2, r2, #24
   2401e:	1851      	adds	r1, r2, r1
   24020:	1808      	adds	r0, r1, r0
   24022:	9013      	str	r0, [sp, #76]	@ 0x4c
   24024:	48b1      	ldr	r0, [pc, #708]	@ (242ec <_start+0x41c4>)
   24026:	4468      	add	r0, sp
   24028:	f003 f89a 	bl	27160 <_ZN9allow_pin12full_dynamic17unshare_if_shared17hc38d0bd70fd52db9E>
   2402c:	48ad      	ldr	r0, [pc, #692]	@ (242e4 <_start+0x41bc>)
   2402e:	4468      	add	r0, sp
   24030:	f003 f896 	bl	27160 <_ZN9allow_pin12full_dynamic17unshare_if_shared17hc38d0bd70fd52db9E>
   24034:	2d00      	cmp	r5, #0
   24036:	d001      	beq.n	2403c <_start+0x3f14>
   24038:	f003 f80d 	bl	27056 <_start+0x6f2e>
   2403c:	4da9      	ldr	r5, [pc, #676]	@ (242e4 <_start+0x41bc>)
   2403e:	446d      	add	r5, sp
   24040:	4628      	mov	r0, r5
   24042:	300c      	adds	r0, #12
   24044:	a9e4      	add	r1, sp, #912	@ 0x390
   24046:	2203      	movs	r2, #3
   24048:	f003 fa4b 	bl	274e2 <__aeabi_memcpy>
   2404c:	a8a3      	add	r0, sp, #652	@ 0x28c
   2404e:	900e      	str	r0, [sp, #56]	@ 0x38
   24050:	a9ba      	add	r1, sp, #744	@ 0x2e8
   24052:	2431      	movs	r4, #49	@ 0x31
   24054:	4622      	mov	r2, r4
   24056:	f003 fa44 	bl	274e2 <__aeabi_memcpy>
   2405a:	4628      	mov	r0, r5
   2405c:	3013      	adds	r0, #19
   2405e:	990e      	ldr	r1, [sp, #56]	@ 0x38
   24060:	940b      	str	r4, [sp, #44]	@ 0x2c
   24062:	4622      	mov	r2, r4
   24064:	f003 fa3d 	bl	274e2 <__aeabi_memcpy>
   24068:	9913      	ldr	r1, [sp, #76]	@ 0x4c
   2406a:	0e08      	lsrs	r0, r1, #24
   2406c:	74a8      	strb	r0, [r5, #18]
   2406e:	0c08      	lsrs	r0, r1, #16
   24070:	7468      	strb	r0, [r5, #17]
   24072:	0a08      	lsrs	r0, r1, #8
   24074:	7428      	strb	r0, [r5, #16]
   24076:	73e9      	strb	r1, [r5, #15]
   24078:	9c12      	ldr	r4, [sp, #72]	@ 0x48
   2407a:	722c      	strb	r4, [r5, #8]
   2407c:	489b      	ldr	r0, [pc, #620]	@ (242ec <_start+0x41c4>)
   2407e:	4468      	add	r0, sp
   24080:	9013      	str	r0, [sp, #76]	@ 0x4c
   24082:	300c      	adds	r0, #12
   24084:	2127      	movs	r1, #39	@ 0x27
   24086:	900c      	str	r0, [sp, #48]	@ 0x30
   24088:	f003 f87e 	bl	27188 <__aeabi_memclr4>
   2408c:	9813      	ldr	r0, [sp, #76]	@ 0x4c
   2408e:	7204      	strb	r4, [r0, #8]
   24090:	9400      	str	r4, [sp, #0]
   24092:	4c97      	ldr	r4, [pc, #604]	@ (242f0 <_start+0x41c8>)
   24094:	34ce      	adds	r4, #206	@ 0xce
   24096:	2138      	movs	r1, #56	@ 0x38
   24098:	2204      	movs	r2, #4
   2409a:	4628      	mov	r0, r5
   2409c:	4623      	mov	r3, r4
   2409e:	f7fc f821 	bl	200e4 <_ZN9allow_pin12full_dynamic15Buffer$LT$B$GT$5allow17h6d4ce413c213cdffE>
   240a2:	9113      	str	r1, [sp, #76]	@ 0x4c
   240a4:	07c0      	lsls	r0, r0, #31
   240a6:	d114      	bne.n	240d2 <_start+0x3faa>
   240a8:	9810      	ldr	r0, [sp, #64]	@ 0x40
   240aa:	9000      	str	r0, [sp, #0]
   240ac:	488f      	ldr	r0, [pc, #572]	@ (242ec <_start+0x41c4>)
   240ae:	4468      	add	r0, sp
   240b0:	2127      	movs	r1, #39	@ 0x27
   240b2:	2203      	movs	r2, #3
   240b4:	4623      	mov	r3, r4
   240b6:	f7fc f815 	bl	200e4 <_ZN9allow_pin12full_dynamic15Buffer$LT$B$GT$5allow17h6d4ce413c213cdffE>
   240ba:	9113      	str	r1, [sp, #76]	@ 0x4c
   240bc:	07c0      	lsls	r0, r0, #31
   240be:	d108      	bne.n	240d2 <_start+0x3faa>
   240c0:	488c      	ldr	r0, [pc, #560]	@ (242f4 <_start+0x41cc>)
   240c2:	2102      	movs	r1, #2
   240c4:	2208      	movs	r2, #8
   240c6:	2300      	movs	r3, #0
   240c8:	930e      	str	r3, [sp, #56]	@ 0x38
   240ca:	df02      	svc	2
   240cc:	9113      	str	r1, [sp, #76]	@ 0x4c
   240ce:	287f      	cmp	r0, #127	@ 0x7f
   240d0:	d802      	bhi.n	240d8 <_start+0x3fb0>
   240d2:	9811      	ldr	r0, [sp, #68]	@ 0x44
   240d4:	900e      	str	r0, [sp, #56]	@ 0x38
   240d6:	e029      	b.n	2412c <_start+0x4004>
   240d8:	4882      	ldr	r0, [pc, #520]	@ (242e4 <_start+0x41bc>)
   240da:	4468      	add	r0, sp
   240dc:	4c82      	ldr	r4, [pc, #520]	@ (242e8 <_start+0x41c0>)
   240de:	47a0      	blx	r4
   240e0:	4d82      	ldr	r5, [pc, #520]	@ (242ec <_start+0x41c4>)
   240e2:	446d      	add	r5, sp
   240e4:	4628      	mov	r0, r5
   240e6:	47a0      	blx	r4
   240e8:	4628      	mov	r0, r5
   240ea:	47a0      	blx	r4
   240ec:	9a0c      	ldr	r2, [sp, #48]	@ 0x30
   240ee:	7890      	ldrb	r0, [r2, #2]
   240f0:	a9e4      	add	r1, sp, #912	@ 0x390
   240f2:	7088      	strb	r0, [r1, #2]
   240f4:	7810      	ldrb	r0, [r2, #0]
   240f6:	7852      	ldrb	r2, [r2, #1]
   240f8:	0212      	lsls	r2, r2, #8
   240fa:	1810      	adds	r0, r2, r0
   240fc:	8008      	strh	r0, [r1, #0]
   240fe:	7ca8      	ldrb	r0, [r5, #18]
   24100:	9013      	str	r0, [sp, #76]	@ 0x4c
   24102:	7c68      	ldrb	r0, [r5, #17]
   24104:	900c      	str	r0, [sp, #48]	@ 0x30
   24106:	7be8      	ldrb	r0, [r5, #15]
   24108:	900a      	str	r0, [sp, #40]	@ 0x28
   2410a:	7c2c      	ldrb	r4, [r5, #16]
   2410c:	3513      	adds	r5, #19
   2410e:	a8a3      	add	r0, sp, #652	@ 0x28c
   24110:	2220      	movs	r2, #32
   24112:	4629      	mov	r1, r5
   24114:	f003 f9e5 	bl	274e2 <__aeabi_memcpy>
   24118:	0220      	lsls	r0, r4, #8
   2411a:	990a      	ldr	r1, [sp, #40]	@ 0x28
   2411c:	1840      	adds	r0, r0, r1
   2411e:	990c      	ldr	r1, [sp, #48]	@ 0x30
   24120:	0409      	lsls	r1, r1, #16
   24122:	9a13      	ldr	r2, [sp, #76]	@ 0x4c
   24124:	0612      	lsls	r2, r2, #24
   24126:	1851      	adds	r1, r2, r1
   24128:	1808      	adds	r0, r1, r0
   2412a:	9013      	str	r0, [sp, #76]	@ 0x4c
   2412c:	486f      	ldr	r0, [pc, #444]	@ (242ec <_start+0x41c4>)
   2412e:	4468      	add	r0, sp
   24130:	f003 f816 	bl	27160 <_ZN9allow_pin12full_dynamic17unshare_if_shared17hc38d0bd70fd52db9E>
   24134:	486b      	ldr	r0, [pc, #428]	@ (242e4 <_start+0x41bc>)
   24136:	4468      	add	r0, sp
   24138:	f003 f812 	bl	27160 <_ZN9allow_pin12full_dynamic17unshare_if_shared17hc38d0bd70fd52db9E>
   2413c:	980e      	ldr	r0, [sp, #56]	@ 0x38
   2413e:	2800      	cmp	r0, #0
   24140:	d001      	beq.n	24146 <_start+0x401e>
   24142:	f002 ff88 	bl	27056 <_start+0x6f2e>
   24146:	acba      	add	r4, sp, #744	@ 0x2e8
   24148:	4620      	mov	r0, r4
   2414a:	300c      	adds	r0, #12
   2414c:	a9e4      	add	r1, sp, #912	@ 0x390
   2414e:	2203      	movs	r2, #3
   24150:	f003 f9c7 	bl	274e2 <__aeabi_memcpy>
   24154:	a889      	add	r0, sp, #548	@ 0x224
   24156:	900e      	str	r0, [sp, #56]	@ 0x38
   24158:	a9a3      	add	r1, sp, #652	@ 0x28c
   2415a:	2520      	movs	r5, #32
   2415c:	462a      	mov	r2, r5
   2415e:	f003 f9c0 	bl	274e2 <__aeabi_memcpy>
   24162:	9913      	ldr	r1, [sp, #76]	@ 0x4c
   24164:	0e08      	lsrs	r0, r1, #24
   24166:	74a0      	strb	r0, [r4, #18]
   24168:	0c08      	lsrs	r0, r1, #16
   2416a:	7460      	strb	r0, [r4, #17]
   2416c:	0a08      	lsrs	r0, r1, #8
   2416e:	7420      	strb	r0, [r4, #16]
   24170:	73e1      	strb	r1, [r4, #15]
   24172:	9812      	ldr	r0, [sp, #72]	@ 0x48
   24174:	7220      	strb	r0, [r4, #8]
   24176:	4620      	mov	r0, r4
   24178:	3013      	adds	r0, #19
   2417a:	990e      	ldr	r1, [sp, #56]	@ 0x38
   2417c:	462a      	mov	r2, r5
   2417e:	f003 f9b0 	bl	274e2 <__aeabi_memcpy>
   24182:	4d58      	ldr	r5, [pc, #352]	@ (242e4 <_start+0x41bc>)
   24184:	446d      	add	r5, sp
   24186:	4628      	mov	r0, r5
   24188:	300c      	adds	r0, #12
   2418a:	2151      	movs	r1, #81	@ 0x51
   2418c:	900a      	str	r0, [sp, #40]	@ 0x28
   2418e:	f002 fffb 	bl	27188 <__aeabi_memclr4>
   24192:	9812      	ldr	r0, [sp, #72]	@ 0x48
   24194:	7228      	strb	r0, [r5, #8]
   24196:	9806      	ldr	r0, [sp, #24]
   24198:	9000      	str	r0, [sp, #0]
   2419a:	2127      	movs	r1, #39	@ 0x27
   2419c:	2204      	movs	r2, #4
   2419e:	4620      	mov	r0, r4
   241a0:	920c      	str	r2, [sp, #48]	@ 0x30
   241a2:	4b55      	ldr	r3, [pc, #340]	@ (242f8 <_start+0x41d0>)
   241a4:	f7fb ff9e 	bl	200e4 <_ZN9allow_pin12full_dynamic15Buffer$LT$B$GT$5allow17h6d4ce413c213cdffE>
   241a8:	9113      	str	r1, [sp, #76]	@ 0x4c
   241aa:	07c0      	lsls	r0, r0, #31
   241ac:	d114      	bne.n	241d8 <_start+0x40b0>
   241ae:	980c      	ldr	r0, [sp, #48]	@ 0x30
   241b0:	9000      	str	r0, [sp, #0]
   241b2:	484c      	ldr	r0, [pc, #304]	@ (242e4 <_start+0x41bc>)
   241b4:	4468      	add	r0, sp
   241b6:	2151      	movs	r1, #81	@ 0x51
   241b8:	2203      	movs	r2, #3
   241ba:	4b4f      	ldr	r3, [pc, #316]	@ (242f8 <_start+0x41d0>)
   241bc:	f7fb ff92 	bl	200e4 <_ZN9allow_pin12full_dynamic15Buffer$LT$B$GT$5allow17h6d4ce413c213cdffE>
   241c0:	9113      	str	r1, [sp, #76]	@ 0x4c
   241c2:	07c0      	lsls	r0, r0, #31
   241c4:	d108      	bne.n	241d8 <_start+0x40b0>
   241c6:	484c      	ldr	r0, [pc, #304]	@ (242f8 <_start+0x41d0>)
   241c8:	2204      	movs	r2, #4
   241ca:	2100      	movs	r1, #0
   241cc:	910e      	str	r1, [sp, #56]	@ 0x38
   241ce:	460b      	mov	r3, r1
   241d0:	df02      	svc	2
   241d2:	9113      	str	r1, [sp, #76]	@ 0x4c
   241d4:	287f      	cmp	r0, #127	@ 0x7f
   241d6:	d802      	bhi.n	241de <_start+0x40b6>
   241d8:	9811      	ldr	r0, [sp, #68]	@ 0x44
   241da:	900e      	str	r0, [sp, #56]	@ 0x38
   241dc:	e028      	b.n	24230 <_start+0x4108>
   241de:	a8ba      	add	r0, sp, #744	@ 0x2e8
   241e0:	4d41      	ldr	r5, [pc, #260]	@ (242e8 <_start+0x41c0>)
   241e2:	47a8      	blx	r5
   241e4:	4c3f      	ldr	r4, [pc, #252]	@ (242e4 <_start+0x41bc>)
   241e6:	446c      	add	r4, sp
   241e8:	4620      	mov	r0, r4
   241ea:	47a8      	blx	r5
   241ec:	4620      	mov	r0, r4
   241ee:	47a8      	blx	r5
   241f0:	9a0a      	ldr	r2, [sp, #40]	@ 0x28
   241f2:	7890      	ldrb	r0, [r2, #2]
   241f4:	a9e4      	add	r1, sp, #912	@ 0x390
   241f6:	7088      	strb	r0, [r1, #2]
   241f8:	7810      	ldrb	r0, [r2, #0]
   241fa:	7852      	ldrb	r2, [r2, #1]
   241fc:	0212      	lsls	r2, r2, #8
   241fe:	1810      	adds	r0, r2, r0
   24200:	8008      	strh	r0, [r1, #0]
   24202:	7ca0      	ldrb	r0, [r4, #18]
   24204:	9013      	str	r0, [sp, #76]	@ 0x4c
   24206:	7c60      	ldrb	r0, [r4, #17]
   24208:	900a      	str	r0, [sp, #40]	@ 0x28
   2420a:	7be0      	ldrb	r0, [r4, #15]
   2420c:	9009      	str	r0, [sp, #36]	@ 0x24
   2420e:	7c25      	ldrb	r5, [r4, #16]
   24210:	3413      	adds	r4, #19
   24212:	a8a3      	add	r0, sp, #652	@ 0x28c
   24214:	224a      	movs	r2, #74	@ 0x4a
   24216:	4621      	mov	r1, r4
   24218:	f003 f963 	bl	274e2 <__aeabi_memcpy>
   2421c:	0228      	lsls	r0, r5, #8
   2421e:	9909      	ldr	r1, [sp, #36]	@ 0x24
   24220:	1840      	adds	r0, r0, r1
   24222:	990a      	ldr	r1, [sp, #40]	@ 0x28
   24224:	0409      	lsls	r1, r1, #16
   24226:	9a13      	ldr	r2, [sp, #76]	@ 0x4c
   24228:	0612      	lsls	r2, r2, #24
   2422a:	1851      	adds	r1, r2, r1
   2422c:	1808      	adds	r0, r1, r0
   2422e:	9013      	str	r0, [sp, #76]	@ 0x4c
   24230:	482c      	ldr	r0, [pc, #176]	@ (242e4 <_start+0x41bc>)
   24232:	4468      	add	r0, sp
   24234:	f002 ff94 	bl	27160 <_ZN9allow_pin12full_dynamic17unshare_if_shared17hc38d0bd70fd52db9E>
   24238:	a8ba      	add	r0, sp, #744	@ 0x2e8
   2423a:	f002 ff91 	bl	27160 <_ZN9allow_pin12full_dynamic17unshare_if_shared17hc38d0bd70fd52db9E>
   2423e:	980e      	ldr	r0, [sp, #56]	@ 0x38
   24240:	2800      	cmp	r0, #0
   24242:	d001      	beq.n	24248 <_start+0x4120>
   24244:	f002 ff07 	bl	27056 <_start+0x6f2e>
   24248:	4d26      	ldr	r5, [pc, #152]	@ (242e4 <_start+0x41bc>)
   2424a:	446d      	add	r5, sp
   2424c:	4628      	mov	r0, r5
   2424e:	300c      	adds	r0, #12
   24250:	a9e4      	add	r1, sp, #912	@ 0x390
   24252:	2203      	movs	r2, #3
   24254:	f003 f945 	bl	274e2 <__aeabi_memcpy>
   24258:	4824      	ldr	r0, [pc, #144]	@ (242ec <_start+0x41c4>)
   2425a:	4468      	add	r0, sp
   2425c:	900e      	str	r0, [sp, #56]	@ 0x38
   2425e:	a9a3      	add	r1, sp, #652	@ 0x28c
   24260:	244a      	movs	r4, #74	@ 0x4a
   24262:	4622      	mov	r2, r4
   24264:	f002 ffdd 	bl	27222 <__aeabi_memcpy4>
   24268:	4628      	mov	r0, r5
   2426a:	3013      	adds	r0, #19
   2426c:	990e      	ldr	r1, [sp, #56]	@ 0x38
   2426e:	4622      	mov	r2, r4
   24270:	f003 f937 	bl	274e2 <__aeabi_memcpy>
   24274:	9913      	ldr	r1, [sp, #76]	@ 0x4c
   24276:	0e08      	lsrs	r0, r1, #24
   24278:	74a8      	strb	r0, [r5, #18]
   2427a:	0c08      	lsrs	r0, r1, #16
   2427c:	7468      	strb	r0, [r5, #17]
   2427e:	0a08      	lsrs	r0, r1, #8
   24280:	7428      	strb	r0, [r5, #16]
   24282:	73e9      	strb	r1, [r5, #15]
   24284:	9812      	ldr	r0, [sp, #72]	@ 0x48
   24286:	7228      	strb	r0, [r5, #8]
   24288:	4c18      	ldr	r4, [pc, #96]	@ (242ec <_start+0x41c4>)
   2428a:	446c      	add	r4, sp
   2428c:	4620      	mov	r0, r4
   2428e:	300c      	adds	r0, #12
   24290:	214f      	movs	r1, #79	@ 0x4f
   24292:	900a      	str	r0, [sp, #40]	@ 0x28
   24294:	f002 ff78 	bl	27188 <__aeabi_memclr4>
   24298:	9812      	ldr	r0, [sp, #72]	@ 0x48
   2429a:	7220      	strb	r0, [r4, #8]
   2429c:	9a0c      	ldr	r2, [sp, #48]	@ 0x30
   2429e:	9200      	str	r2, [sp, #0]
   242a0:	4c16      	ldr	r4, [pc, #88]	@ (242fc <_start+0x41d4>)
   242a2:	34e8      	adds	r4, #232	@ 0xe8
   242a4:	2151      	movs	r1, #81	@ 0x51
   242a6:	4628      	mov	r0, r5
   242a8:	4623      	mov	r3, r4
   242aa:	f7fb ff1b 	bl	200e4 <_ZN9allow_pin12full_dynamic15Buffer$LT$B$GT$5allow17h6d4ce413c213cdffE>
   242ae:	9113      	str	r1, [sp, #76]	@ 0x4c
   242b0:	07c0      	lsls	r0, r0, #31
   242b2:	d114      	bne.n	242de <_start+0x41b6>
   242b4:	980d      	ldr	r0, [sp, #52]	@ 0x34
   242b6:	9000      	str	r0, [sp, #0]
   242b8:	480c      	ldr	r0, [pc, #48]	@ (242ec <_start+0x41c4>)
   242ba:	4468      	add	r0, sp
   242bc:	214f      	movs	r1, #79	@ 0x4f
   242be:	2203      	movs	r2, #3
   242c0:	4623      	mov	r3, r4
   242c2:	f7fb ff0f 	bl	200e4 <_ZN9allow_pin12full_dynamic15Buffer$LT$B$GT$5allow17h6d4ce413c213cdffE>
   242c6:	9113      	str	r1, [sp, #76]	@ 0x4c
   242c8:	07c0      	lsls	r0, r0, #31
   242ca:	d108      	bne.n	242de <_start+0x41b6>
   242cc:	480c      	ldr	r0, [pc, #48]	@ (24300 <_start+0x41d8>)
   242ce:	2104      	movs	r1, #4
   242d0:	2209      	movs	r2, #9
   242d2:	2300      	movs	r3, #0
   242d4:	930e      	str	r3, [sp, #56]	@ 0x38
   242d6:	df02      	svc	2
   242d8:	9113      	str	r1, [sp, #76]	@ 0x4c
   242da:	287f      	cmp	r0, #127	@ 0x7f
   242dc:	d812      	bhi.n	24304 <_start+0x41dc>
   242de:	9811      	ldr	r0, [sp, #68]	@ 0x44
   242e0:	900e      	str	r0, [sp, #56]	@ 0x38
   242e2:	e039      	b.n	24358 <_start+0x4230>
   242e4:	000005cc 	.word	0x000005cc
   242e8:	00027161 	.word	0x00027161
   242ec:	00000568 	.word	0x00000568
   242f0:	00000d5d 	.word	0x00000d5d
   242f4:	00000e2b 	.word	0x00000e2b
   242f8:	00000a36 	.word	0x00000a36
   242fc:	00002006 	.word	0x00002006
   24300:	000020ee 	.word	0x000020ee
   24304:	48c7      	ldr	r0, [pc, #796]	@ (24624 <_start+0x44fc>)
   24306:	4468      	add	r0, sp
   24308:	4cc7      	ldr	r4, [pc, #796]	@ (24628 <_start+0x4500>)
   2430a:	47a0      	blx	r4
   2430c:	4dc7      	ldr	r5, [pc, #796]	@ (2462c <_start+0x4504>)
   2430e:	446d      	add	r5, sp
   24310:	4628      	mov	r0, r5
   24312:	47a0      	blx	r4
   24314:	4628      	mov	r0, r5
   24316:	47a0      	blx	r4
   24318:	9a0a      	ldr	r2, [sp, #40]	@ 0x28
   2431a:	7890      	ldrb	r0, [r2, #2]
   2431c:	a9ba      	add	r1, sp, #744	@ 0x2e8
   2431e:	7088      	strb	r0, [r1, #2]
   24320:	7810      	ldrb	r0, [r2, #0]
   24322:	7852      	ldrb	r2, [r2, #1]
   24324:	0212      	lsls	r2, r2, #8
   24326:	1810      	adds	r0, r2, r0
   24328:	8008      	strh	r0, [r1, #0]
   2432a:	7ca8      	ldrb	r0, [r5, #18]
   2432c:	9013      	str	r0, [sp, #76]	@ 0x4c
   2432e:	7c68      	ldrb	r0, [r5, #17]
   24330:	900c      	str	r0, [sp, #48]	@ 0x30
   24332:	7be8      	ldrb	r0, [r5, #15]
   24334:	900a      	str	r0, [sp, #40]	@ 0x28
   24336:	7c2c      	ldrb	r4, [r5, #16]
   24338:	3513      	adds	r5, #19
   2433a:	a8a3      	add	r0, sp, #652	@ 0x28c
   2433c:	2248      	movs	r2, #72	@ 0x48
   2433e:	4629      	mov	r1, r5
   24340:	f003 f8cf 	bl	274e2 <__aeabi_memcpy>
   24344:	0220      	lsls	r0, r4, #8
   24346:	990a      	ldr	r1, [sp, #40]	@ 0x28
   24348:	1840      	adds	r0, r0, r1
   2434a:	990c      	ldr	r1, [sp, #48]	@ 0x30
   2434c:	0409      	lsls	r1, r1, #16
   2434e:	9a13      	ldr	r2, [sp, #76]	@ 0x4c
   24350:	0612      	lsls	r2, r2, #24
   24352:	1851      	adds	r1, r2, r1
   24354:	1808      	adds	r0, r1, r0
   24356:	9013      	str	r0, [sp, #76]	@ 0x4c
   24358:	48b4      	ldr	r0, [pc, #720]	@ (2462c <_start+0x4504>)
   2435a:	4468      	add	r0, sp
   2435c:	f002 ff00 	bl	27160 <_ZN9allow_pin12full_dynamic17unshare_if_shared17hc38d0bd70fd52db9E>
   24360:	48b0      	ldr	r0, [pc, #704]	@ (24624 <_start+0x44fc>)
   24362:	4468      	add	r0, sp
   24364:	f002 fefc 	bl	27160 <_ZN9allow_pin12full_dynamic17unshare_if_shared17hc38d0bd70fd52db9E>
   24368:	980e      	ldr	r0, [sp, #56]	@ 0x38
   2436a:	2800      	cmp	r0, #0
   2436c:	d001      	beq.n	24372 <_start+0x424a>
   2436e:	f002 fe72 	bl	27056 <_start+0x6f2e>
   24372:	4dae      	ldr	r5, [pc, #696]	@ (2462c <_start+0x4504>)
   24374:	446d      	add	r5, sp
   24376:	4628      	mov	r0, r5
   24378:	300c      	adds	r0, #12
   2437a:	a9ba      	add	r1, sp, #744	@ 0x2e8
   2437c:	2203      	movs	r2, #3
   2437e:	f003 f8b0 	bl	274e2 <__aeabi_memcpy>
   24382:	a891      	add	r0, sp, #580	@ 0x244
   24384:	900e      	str	r0, [sp, #56]	@ 0x38
   24386:	a9a3      	add	r1, sp, #652	@ 0x28c
   24388:	2448      	movs	r4, #72	@ 0x48
   2438a:	4622      	mov	r2, r4
   2438c:	f002 ff49 	bl	27222 <__aeabi_memcpy4>
   24390:	9913      	ldr	r1, [sp, #76]	@ 0x4c
   24392:	0e08      	lsrs	r0, r1, #24
   24394:	74a8      	strb	r0, [r5, #18]
   24396:	0c08      	lsrs	r0, r1, #16
   24398:	7468      	strb	r0, [r5, #17]
   2439a:	0a08      	lsrs	r0, r1, #8
   2439c:	7428      	strb	r0, [r5, #16]
   2439e:	73e9      	strb	r1, [r5, #15]
   243a0:	9812      	ldr	r0, [sp, #72]	@ 0x48
   243a2:	7228      	strb	r0, [r5, #8]
   243a4:	4628      	mov	r0, r5
   243a6:	3013      	adds	r0, #19
   243a8:	990e      	ldr	r1, [sp, #56]	@ 0x38
   243aa:	4622      	mov	r2, r4
   243ac:	f003 f899 	bl	274e2 <__aeabi_memcpy>
   243b0:	4c9c      	ldr	r4, [pc, #624]	@ (24624 <_start+0x44fc>)
   243b2:	446c      	add	r4, sp
   243b4:	4620      	mov	r0, r4
   243b6:	300c      	adds	r0, #12
   243b8:	2161      	movs	r1, #97	@ 0x61
   243ba:	900a      	str	r0, [sp, #40]	@ 0x28
   243bc:	f002 fee4 	bl	27188 <__aeabi_memclr4>
   243c0:	9812      	ldr	r0, [sp, #72]	@ 0x48
   243c2:	7220      	strb	r0, [r4, #8]
   243c4:	9000      	str	r0, [sp, #0]
   243c6:	9c05      	ldr	r4, [sp, #20]
   243c8:	3488      	adds	r4, #136	@ 0x88
   243ca:	214f      	movs	r1, #79	@ 0x4f
   243cc:	2204      	movs	r2, #4
   243ce:	4628      	mov	r0, r5
   243d0:	920c      	str	r2, [sp, #48]	@ 0x30
   243d2:	4623      	mov	r3, r4
   243d4:	f7fb fe86 	bl	200e4 <_ZN9allow_pin12full_dynamic15Buffer$LT$B$GT$5allow17h6d4ce413c213cdffE>
   243d8:	9113      	str	r1, [sp, #76]	@ 0x4c
   243da:	07c0      	lsls	r0, r0, #31
   243dc:	d115      	bne.n	2440a <_start+0x42e2>
   243de:	9810      	ldr	r0, [sp, #64]	@ 0x40
   243e0:	9000      	str	r0, [sp, #0]
   243e2:	4890      	ldr	r0, [pc, #576]	@ (24624 <_start+0x44fc>)
   243e4:	4468      	add	r0, sp
   243e6:	2161      	movs	r1, #97	@ 0x61
   243e8:	2203      	movs	r2, #3
   243ea:	4623      	mov	r3, r4
   243ec:	f7fb fe7a 	bl	200e4 <_ZN9allow_pin12full_dynamic15Buffer$LT$B$GT$5allow17h6d4ce413c213cdffE>
   243f0:	9113      	str	r1, [sp, #76]	@ 0x4c
   243f2:	07c0      	lsls	r0, r0, #31
   243f4:	d109      	bne.n	2440a <_start+0x42e2>
   243f6:	20db      	movs	r0, #219	@ 0xdb
   243f8:	0040      	lsls	r0, r0, #1
   243fa:	2102      	movs	r1, #2
   243fc:	2208      	movs	r2, #8
   243fe:	2300      	movs	r3, #0
   24400:	930e      	str	r3, [sp, #56]	@ 0x38
   24402:	df02      	svc	2
   24404:	9113      	str	r1, [sp, #76]	@ 0x4c
   24406:	287f      	cmp	r0, #127	@ 0x7f
   24408:	d802      	bhi.n	24410 <_start+0x42e8>
   2440a:	9811      	ldr	r0, [sp, #68]	@ 0x44
   2440c:	900e      	str	r0, [sp, #56]	@ 0x38
   2440e:	e029      	b.n	24464 <_start+0x433c>
   24410:	4886      	ldr	r0, [pc, #536]	@ (2462c <_start+0x4504>)
   24412:	4468      	add	r0, sp
   24414:	4c84      	ldr	r4, [pc, #528]	@ (24628 <_start+0x4500>)
   24416:	47a0      	blx	r4
   24418:	4d82      	ldr	r5, [pc, #520]	@ (24624 <_start+0x44fc>)
   2441a:	446d      	add	r5, sp
   2441c:	4628      	mov	r0, r5
   2441e:	47a0      	blx	r4
   24420:	4628      	mov	r0, r5
   24422:	47a0      	blx	r4
   24424:	9a0a      	ldr	r2, [sp, #40]	@ 0x28
   24426:	7890      	ldrb	r0, [r2, #2]
   24428:	a9e4      	add	r1, sp, #912	@ 0x390
   2442a:	7088      	strb	r0, [r1, #2]
   2442c:	7810      	ldrb	r0, [r2, #0]
   2442e:	7852      	ldrb	r2, [r2, #1]
   24430:	0212      	lsls	r2, r2, #8
   24432:	1810      	adds	r0, r2, r0
   24434:	8008      	strh	r0, [r1, #0]
   24436:	7ca8      	ldrb	r0, [r5, #18]
   24438:	9013      	str	r0, [sp, #76]	@ 0x4c
   2443a:	7c68      	ldrb	r0, [r5, #17]
   2443c:	900a      	str	r0, [sp, #40]	@ 0x28
   2443e:	7be8      	ldrb	r0, [r5, #15]
   24440:	9009      	str	r0, [sp, #36]	@ 0x24
   24442:	7c2c      	ldrb	r4, [r5, #16]
   24444:	3513      	adds	r5, #19
   24446:	a8ba      	add	r0, sp, #744	@ 0x2e8
   24448:	225a      	movs	r2, #90	@ 0x5a
   2444a:	4629      	mov	r1, r5
   2444c:	f003 f849 	bl	274e2 <__aeabi_memcpy>
   24450:	0220      	lsls	r0, r4, #8
   24452:	9909      	ldr	r1, [sp, #36]	@ 0x24
   24454:	1840      	adds	r0, r0, r1
   24456:	990a      	ldr	r1, [sp, #40]	@ 0x28
   24458:	0409      	lsls	r1, r1, #16
   2445a:	9a13      	ldr	r2, [sp, #76]	@ 0x4c
   2445c:	0612      	lsls	r2, r2, #24
   2445e:	1851      	adds	r1, r2, r1
   24460:	1808      	adds	r0, r1, r0
   24462:	9013      	str	r0, [sp, #76]	@ 0x4c
   24464:	486f      	ldr	r0, [pc, #444]	@ (24624 <_start+0x44fc>)
   24466:	4468      	add	r0, sp
   24468:	f002 fe7a 	bl	27160 <_ZN9allow_pin12full_dynamic17unshare_if_shared17hc38d0bd70fd52db9E>
   2446c:	486f      	ldr	r0, [pc, #444]	@ (2462c <_start+0x4504>)
   2446e:	4468      	add	r0, sp
   24470:	f002 fe76 	bl	27160 <_ZN9allow_pin12full_dynamic17unshare_if_shared17hc38d0bd70fd52db9E>
   24474:	980e      	ldr	r0, [sp, #56]	@ 0x38
   24476:	2800      	cmp	r0, #0
   24478:	d001      	beq.n	2447e <_start+0x4356>
   2447a:	f002 fdec 	bl	27056 <_start+0x6f2e>
   2447e:	4d69      	ldr	r5, [pc, #420]	@ (24624 <_start+0x44fc>)
   24480:	446d      	add	r5, sp
   24482:	4628      	mov	r0, r5
   24484:	300c      	adds	r0, #12
   24486:	a9e4      	add	r1, sp, #912	@ 0x390
   24488:	2203      	movs	r2, #3
   2448a:	f003 f82a 	bl	274e2 <__aeabi_memcpy>
   2448e:	a8a3      	add	r0, sp, #652	@ 0x28c
   24490:	900e      	str	r0, [sp, #56]	@ 0x38
   24492:	a9ba      	add	r1, sp, #744	@ 0x2e8
   24494:	245a      	movs	r4, #90	@ 0x5a
   24496:	4622      	mov	r2, r4
   24498:	f002 fec3 	bl	27222 <__aeabi_memcpy4>
   2449c:	4628      	mov	r0, r5
   2449e:	3013      	adds	r0, #19
   244a0:	990e      	ldr	r1, [sp, #56]	@ 0x38
   244a2:	4622      	mov	r2, r4
   244a4:	f003 f81d 	bl	274e2 <__aeabi_memcpy>
   244a8:	9913      	ldr	r1, [sp, #76]	@ 0x4c
   244aa:	0e08      	lsrs	r0, r1, #24
   244ac:	74a8      	strb	r0, [r5, #18]
   244ae:	0c08      	lsrs	r0, r1, #16
   244b0:	7468      	strb	r0, [r5, #17]
   244b2:	0a08      	lsrs	r0, r1, #8
   244b4:	7428      	strb	r0, [r5, #16]
   244b6:	73e9      	strb	r1, [r5, #15]
   244b8:	9812      	ldr	r0, [sp, #72]	@ 0x48
   244ba:	7228      	strb	r0, [r5, #8]
   244bc:	4c5b      	ldr	r4, [pc, #364]	@ (2462c <_start+0x4504>)
   244be:	446c      	add	r4, sp
   244c0:	4620      	mov	r0, r4
   244c2:	300c      	adds	r0, #12
   244c4:	211e      	movs	r1, #30
   244c6:	900a      	str	r0, [sp, #40]	@ 0x28
   244c8:	f002 fe5e 	bl	27188 <__aeabi_memclr4>
   244cc:	9812      	ldr	r0, [sp, #72]	@ 0x48
   244ce:	7220      	strb	r0, [r4, #8]
   244d0:	9a0c      	ldr	r2, [sp, #48]	@ 0x30
   244d2:	9200      	str	r2, [sp, #0]
   244d4:	9c05      	ldr	r4, [sp, #20]
   244d6:	345a      	adds	r4, #90	@ 0x5a
   244d8:	2161      	movs	r1, #97	@ 0x61
   244da:	4628      	mov	r0, r5
   244dc:	4623      	mov	r3, r4
   244de:	f7fb fe01 	bl	200e4 <_ZN9allow_pin12full_dynamic15Buffer$LT$B$GT$5allow17h6d4ce413c213cdffE>
   244e2:	9113      	str	r1, [sp, #76]	@ 0x4c
   244e4:	07c0      	lsls	r0, r0, #31
   244e6:	d115      	bne.n	24514 <_start+0x43ec>
   244e8:	980f      	ldr	r0, [sp, #60]	@ 0x3c
   244ea:	9000      	str	r0, [sp, #0]
   244ec:	484f      	ldr	r0, [pc, #316]	@ (2462c <_start+0x4504>)
   244ee:	4468      	add	r0, sp
   244f0:	211e      	movs	r1, #30
   244f2:	2203      	movs	r2, #3
   244f4:	4623      	mov	r3, r4
   244f6:	f7fb fdf5 	bl	200e4 <_ZN9allow_pin12full_dynamic15Buffer$LT$B$GT$5allow17h6d4ce413c213cdffE>
   244fa:	9113      	str	r1, [sp, #76]	@ 0x4c
   244fc:	07c0      	lsls	r0, r0, #31
   244fe:	d109      	bne.n	24514 <_start+0x43ec>
   24500:	980b      	ldr	r0, [sp, #44]	@ 0x2c
   24502:	00c0      	lsls	r0, r0, #3
   24504:	2104      	movs	r1, #4
   24506:	2206      	movs	r2, #6
   24508:	2300      	movs	r3, #0
   2450a:	930e      	str	r3, [sp, #56]	@ 0x38
   2450c:	df02      	svc	2
   2450e:	9113      	str	r1, [sp, #76]	@ 0x4c
   24510:	287f      	cmp	r0, #127	@ 0x7f
   24512:	d802      	bhi.n	2451a <_start+0x43f2>
   24514:	9811      	ldr	r0, [sp, #68]	@ 0x44
   24516:	900e      	str	r0, [sp, #56]	@ 0x38
   24518:	e029      	b.n	2456e <_start+0x4446>
   2451a:	4842      	ldr	r0, [pc, #264]	@ (24624 <_start+0x44fc>)
   2451c:	4468      	add	r0, sp
   2451e:	4c42      	ldr	r4, [pc, #264]	@ (24628 <_start+0x4500>)
   24520:	47a0      	blx	r4
   24522:	4d42      	ldr	r5, [pc, #264]	@ (2462c <_start+0x4504>)
   24524:	446d      	add	r5, sp
   24526:	4628      	mov	r0, r5
   24528:	47a0      	blx	r4
   2452a:	4628      	mov	r0, r5
   2452c:	47a0      	blx	r4
   2452e:	9a0a      	ldr	r2, [sp, #40]	@ 0x28
   24530:	7890      	ldrb	r0, [r2, #2]
   24532:	a9e4      	add	r1, sp, #912	@ 0x390
   24534:	7088      	strb	r0, [r1, #2]
   24536:	7810      	ldrb	r0, [r2, #0]
   24538:	7852      	ldrb	r2, [r2, #1]
   2453a:	0212      	lsls	r2, r2, #8
   2453c:	1810      	adds	r0, r2, r0
   2453e:	8008      	strh	r0, [r1, #0]
   24540:	7ca8      	ldrb	r0, [r5, #18]
   24542:	9013      	str	r0, [sp, #76]	@ 0x4c
   24544:	7c68      	ldrb	r0, [r5, #17]
   24546:	900c      	str	r0, [sp, #48]	@ 0x30
   24548:	7be8      	ldrb	r0, [r5, #15]
   2454a:	900b      	str	r0, [sp, #44]	@ 0x2c
   2454c:	7c2c      	ldrb	r4, [r5, #16]
   2454e:	3513      	adds	r5, #19
   24550:	a8ba      	add	r0, sp, #744	@ 0x2e8
   24552:	2217      	movs	r2, #23
   24554:	4629      	mov	r1, r5
   24556:	f002 ffc4 	bl	274e2 <__aeabi_memcpy>
   2455a:	0220      	lsls	r0, r4, #8
   2455c:	990b      	ldr	r1, [sp, #44]	@ 0x2c
   2455e:	1840      	adds	r0, r0, r1
   24560:	990c      	ldr	r1, [sp, #48]	@ 0x30
   24562:	0409      	lsls	r1, r1, #16
   24564:	9a13      	ldr	r2, [sp, #76]	@ 0x4c
   24566:	0612      	lsls	r2, r2, #24
   24568:	1851      	adds	r1, r2, r1
   2456a:	1808      	adds	r0, r1, r0
   2456c:	9013      	str	r0, [sp, #76]	@ 0x4c
   2456e:	482f      	ldr	r0, [pc, #188]	@ (2462c <_start+0x4504>)
   24570:	4468      	add	r0, sp
   24572:	f002 fdf5 	bl	27160 <_ZN9allow_pin12full_dynamic17unshare_if_shared17hc38d0bd70fd52db9E>
   24576:	482b      	ldr	r0, [pc, #172]	@ (24624 <_start+0x44fc>)
   24578:	4468      	add	r0, sp
   2457a:	f002 fdf1 	bl	27160 <_ZN9allow_pin12full_dynamic17unshare_if_shared17hc38d0bd70fd52db9E>
   2457e:	980e      	ldr	r0, [sp, #56]	@ 0x38
   24580:	2800      	cmp	r0, #0
   24582:	d001      	beq.n	24588 <_start+0x4460>
   24584:	f002 fd67 	bl	27056 <_start+0x6f2e>
   24588:	4d28      	ldr	r5, [pc, #160]	@ (2462c <_start+0x4504>)
   2458a:	446d      	add	r5, sp
   2458c:	4628      	mov	r0, r5
   2458e:	300c      	adds	r0, #12
   24590:	a9e4      	add	r1, sp, #912	@ 0x390
   24592:	2203      	movs	r2, #3
   24594:	f002 ffa5 	bl	274e2 <__aeabi_memcpy>
   24598:	a8a3      	add	r0, sp, #652	@ 0x28c
   2459a:	900e      	str	r0, [sp, #56]	@ 0x38
   2459c:	a9ba      	add	r1, sp, #744	@ 0x2e8
   2459e:	2417      	movs	r4, #23
   245a0:	4622      	mov	r2, r4
   245a2:	f002 ff9e 	bl	274e2 <__aeabi_memcpy>
   245a6:	4628      	mov	r0, r5
   245a8:	3013      	adds	r0, #19
   245aa:	990e      	ldr	r1, [sp, #56]	@ 0x38
   245ac:	4622      	mov	r2, r4
   245ae:	f002 ff98 	bl	274e2 <__aeabi_memcpy>
   245b2:	9913      	ldr	r1, [sp, #76]	@ 0x4c
   245b4:	0e08      	lsrs	r0, r1, #24
   245b6:	74a8      	strb	r0, [r5, #18]
   245b8:	0c08      	lsrs	r0, r1, #16
   245ba:	7468      	strb	r0, [r5, #17]
   245bc:	0a08      	lsrs	r0, r1, #8
   245be:	7428      	strb	r0, [r5, #16]
   245c0:	73e9      	strb	r1, [r5, #15]
   245c2:	9812      	ldr	r0, [sp, #72]	@ 0x48
   245c4:	7228      	strb	r0, [r5, #8]
   245c6:	4c17      	ldr	r4, [pc, #92]	@ (24624 <_start+0x44fc>)
   245c8:	446c      	add	r4, sp
   245ca:	4620      	mov	r0, r4
   245cc:	300c      	adds	r0, #12
   245ce:	2121      	movs	r1, #33	@ 0x21
   245d0:	900c      	str	r0, [sp, #48]	@ 0x30
   245d2:	f002 fdd9 	bl	27188 <__aeabi_memclr4>
   245d6:	9812      	ldr	r0, [sp, #72]	@ 0x48
   245d8:	7220      	strb	r0, [r4, #8]
   245da:	980f      	ldr	r0, [sp, #60]	@ 0x3c
   245dc:	9000      	str	r0, [sp, #0]
   245de:	4b14      	ldr	r3, [pc, #80]	@ (24630 <_start+0x4508>)
   245e0:	334a      	adds	r3, #74	@ 0x4a
   245e2:	211e      	movs	r1, #30
   245e4:	2204      	movs	r2, #4
   245e6:	4628      	mov	r0, r5
   245e8:	461c      	mov	r4, r3
   245ea:	f7fb fd7b 	bl	200e4 <_ZN9allow_pin12full_dynamic15Buffer$LT$B$GT$5allow17h6d4ce413c213cdffE>
   245ee:	9113      	str	r1, [sp, #76]	@ 0x4c
   245f0:	07c0      	lsls	r0, r0, #31
   245f2:	d114      	bne.n	2461e <_start+0x44f6>
   245f4:	980d      	ldr	r0, [sp, #52]	@ 0x34
   245f6:	9000      	str	r0, [sp, #0]
   245f8:	480a      	ldr	r0, [pc, #40]	@ (24624 <_start+0x44fc>)
   245fa:	4468      	add	r0, sp
   245fc:	2121      	movs	r1, #33	@ 0x21
   245fe:	2203      	movs	r2, #3
   24600:	4623      	mov	r3, r4
   24602:	f7fb fd6f 	bl	200e4 <_ZN9allow_pin12full_dynamic15Buffer$LT$B$GT$5allow17h6d4ce413c213cdffE>
   24606:	9113      	str	r1, [sp, #76]	@ 0x4c
   24608:	07c0      	lsls	r0, r0, #31
   2460a:	d108      	bne.n	2461e <_start+0x44f6>
   2460c:	4809      	ldr	r0, [pc, #36]	@ (24634 <_start+0x450c>)
   2460e:	2106      	movs	r1, #6
   24610:	2209      	movs	r2, #9
   24612:	2300      	movs	r3, #0
   24614:	930e      	str	r3, [sp, #56]	@ 0x38
   24616:	df02      	svc	2
   24618:	9113      	str	r1, [sp, #76]	@ 0x4c
   2461a:	287f      	cmp	r0, #127	@ 0x7f
   2461c:	d80c      	bhi.n	24638 <_start+0x4510>
   2461e:	9811      	ldr	r0, [sp, #68]	@ 0x44
   24620:	900e      	str	r0, [sp, #56]	@ 0x38
   24622:	e033      	b.n	2468c <_start+0x4564>
   24624:	000005cc 	.word	0x000005cc
   24628:	00027161 	.word	0x00027161
   2462c:	00000568 	.word	0x00000568
   24630:	0000196b 	.word	0x0000196b
   24634:	000019b5 	.word	0x000019b5
   24638:	48c5      	ldr	r0, [pc, #788]	@ (24950 <_start+0x4828>)
   2463a:	4468      	add	r0, sp
   2463c:	4cc5      	ldr	r4, [pc, #788]	@ (24954 <_start+0x482c>)
   2463e:	47a0      	blx	r4
   24640:	4dc5      	ldr	r5, [pc, #788]	@ (24958 <_start+0x4830>)
   24642:	446d      	add	r5, sp
   24644:	4628      	mov	r0, r5
   24646:	47a0      	blx	r4
   24648:	4628      	mov	r0, r5
   2464a:	47a0      	blx	r4
   2464c:	9a0c      	ldr	r2, [sp, #48]	@ 0x30
   2464e:	7890      	ldrb	r0, [r2, #2]
   24650:	a9e4      	add	r1, sp, #912	@ 0x390
   24652:	7088      	strb	r0, [r1, #2]
   24654:	7810      	ldrb	r0, [r2, #0]
   24656:	7852      	ldrb	r2, [r2, #1]
   24658:	0212      	lsls	r2, r2, #8
   2465a:	1810      	adds	r0, r2, r0
   2465c:	8008      	strh	r0, [r1, #0]
   2465e:	7ca8      	ldrb	r0, [r5, #18]
   24660:	9013      	str	r0, [sp, #76]	@ 0x4c
   24662:	7c68      	ldrb	r0, [r5, #17]
   24664:	900c      	str	r0, [sp, #48]	@ 0x30
   24666:	7be8      	ldrb	r0, [r5, #15]
   24668:	900b      	str	r0, [sp, #44]	@ 0x2c
   2466a:	7c2c      	ldrb	r4, [r5, #16]
   2466c:	3513      	adds	r5, #19
   2466e:	a8ba      	add	r0, sp, #744	@ 0x2e8
   24670:	221a      	movs	r2, #26
   24672:	4629      	mov	r1, r5
   24674:	f002 ff35 	bl	274e2 <__aeabi_memcpy>
   24678:	0220      	lsls	r0, r4, #8
   2467a:	990b      	ldr	r1, [sp, #44]	@ 0x2c
   2467c:	1840      	adds	r0, r0, r1
   2467e:	990c      	ldr	r1, [sp, #48]	@ 0x30
   24680:	0409      	lsls	r1, r1, #16
   24682:	9a13      	ldr	r2, [sp, #76]	@ 0x4c
   24684:	0612      	lsls	r2, r2, #24
   24686:	1851      	adds	r1, r2, r1
   24688:	1808      	adds	r0, r1, r0
   2468a:	9013      	str	r0, [sp, #76]	@ 0x4c
   2468c:	48b2      	ldr	r0, [pc, #712]	@ (24958 <_start+0x4830>)
   2468e:	4468      	add	r0, sp
   24690:	f002 fd66 	bl	27160 <_ZN9allow_pin12full_dynamic17unshare_if_shared17hc38d0bd70fd52db9E>
   24694:	48ae      	ldr	r0, [pc, #696]	@ (24950 <_start+0x4828>)
   24696:	4468      	add	r0, sp
   24698:	f002 fd62 	bl	27160 <_ZN9allow_pin12full_dynamic17unshare_if_shared17hc38d0bd70fd52db9E>
   2469c:	980e      	ldr	r0, [sp, #56]	@ 0x38
   2469e:	2800      	cmp	r0, #0
   246a0:	d001      	beq.n	246a6 <_start+0x457e>
   246a2:	f002 fcd8 	bl	27056 <_start+0x6f2e>
   246a6:	4caa      	ldr	r4, [pc, #680]	@ (24950 <_start+0x4828>)
   246a8:	446c      	add	r4, sp
   246aa:	4620      	mov	r0, r4
   246ac:	300c      	adds	r0, #12
   246ae:	a9e4      	add	r1, sp, #912	@ 0x390
   246b0:	2203      	movs	r2, #3
   246b2:	920e      	str	r2, [sp, #56]	@ 0x38
   246b4:	f002 ff15 	bl	274e2 <__aeabi_memcpy>
   246b8:	a8a3      	add	r0, sp, #652	@ 0x28c
   246ba:	900c      	str	r0, [sp, #48]	@ 0x30
   246bc:	a9ba      	add	r1, sp, #744	@ 0x2e8
   246be:	251a      	movs	r5, #26
   246c0:	462a      	mov	r2, r5
   246c2:	f002 ff0e 	bl	274e2 <__aeabi_memcpy>
   246c6:	4620      	mov	r0, r4
   246c8:	3013      	adds	r0, #19
   246ca:	990c      	ldr	r1, [sp, #48]	@ 0x30
   246cc:	462a      	mov	r2, r5
   246ce:	f002 ff08 	bl	274e2 <__aeabi_memcpy>
   246d2:	9913      	ldr	r1, [sp, #76]	@ 0x4c
   246d4:	0e08      	lsrs	r0, r1, #24
   246d6:	74a0      	strb	r0, [r4, #18]
   246d8:	0c08      	lsrs	r0, r1, #16
   246da:	7460      	strb	r0, [r4, #17]
   246dc:	0a08      	lsrs	r0, r1, #8
   246de:	7420      	strb	r0, [r4, #16]
   246e0:	73e1      	strb	r1, [r4, #15]
   246e2:	9812      	ldr	r0, [sp, #72]	@ 0x48
   246e4:	7220      	strb	r0, [r4, #8]
   246e6:	4d9c      	ldr	r5, [pc, #624]	@ (24958 <_start+0x4830>)
   246e8:	446d      	add	r5, sp
   246ea:	4628      	mov	r0, r5
   246ec:	300c      	adds	r0, #12
   246ee:	212a      	movs	r1, #42	@ 0x2a
   246f0:	900c      	str	r0, [sp, #48]	@ 0x30
   246f2:	f002 fd49 	bl	27188 <__aeabi_memclr4>
   246f6:	9812      	ldr	r0, [sp, #72]	@ 0x48
   246f8:	7228      	strb	r0, [r5, #8]
   246fa:	9600      	str	r6, [sp, #0]
   246fc:	4897      	ldr	r0, [pc, #604]	@ (2495c <_start+0x4834>)
   246fe:	1c85      	adds	r5, r0, #2
   24700:	2121      	movs	r1, #33	@ 0x21
   24702:	2204      	movs	r2, #4
   24704:	4620      	mov	r0, r4
   24706:	462b      	mov	r3, r5
   24708:	f7fb fcec 	bl	200e4 <_ZN9allow_pin12full_dynamic15Buffer$LT$B$GT$5allow17h6d4ce413c213cdffE>
   2470c:	9113      	str	r1, [sp, #76]	@ 0x4c
   2470e:	07c0      	lsls	r0, r0, #31
   24710:	d113      	bne.n	2473a <_start+0x4612>
   24712:	9a0e      	ldr	r2, [sp, #56]	@ 0x38
   24714:	9200      	str	r2, [sp, #0]
   24716:	4890      	ldr	r0, [pc, #576]	@ (24958 <_start+0x4830>)
   24718:	4468      	add	r0, sp
   2471a:	212a      	movs	r1, #42	@ 0x2a
   2471c:	462b      	mov	r3, r5
   2471e:	f7fb fce1 	bl	200e4 <_ZN9allow_pin12full_dynamic15Buffer$LT$B$GT$5allow17h6d4ce413c213cdffE>
   24722:	9113      	str	r1, [sp, #76]	@ 0x4c
   24724:	07c0      	lsls	r0, r0, #31
   24726:	d108      	bne.n	2473a <_start+0x4612>
   24728:	488d      	ldr	r0, [pc, #564]	@ (24960 <_start+0x4838>)
   2472a:	2101      	movs	r1, #1
   2472c:	2203      	movs	r2, #3
   2472e:	2300      	movs	r3, #0
   24730:	930e      	str	r3, [sp, #56]	@ 0x38
   24732:	df02      	svc	2
   24734:	9113      	str	r1, [sp, #76]	@ 0x4c
   24736:	287f      	cmp	r0, #127	@ 0x7f
   24738:	d802      	bhi.n	24740 <_start+0x4618>
   2473a:	9811      	ldr	r0, [sp, #68]	@ 0x44
   2473c:	900e      	str	r0, [sp, #56]	@ 0x38
   2473e:	e02a      	b.n	24796 <_start+0x466e>
   24740:	4883      	ldr	r0, [pc, #524]	@ (24950 <_start+0x4828>)
   24742:	4468      	add	r0, sp
   24744:	4d83      	ldr	r5, [pc, #524]	@ (24954 <_start+0x482c>)
   24746:	47a8      	blx	r5
   24748:	4c83      	ldr	r4, [pc, #524]	@ (24958 <_start+0x4830>)
   2474a:	446c      	add	r4, sp
   2474c:	4620      	mov	r0, r4
   2474e:	47a8      	blx	r5
   24750:	4620      	mov	r0, r4
   24752:	47a8      	blx	r5
   24754:	9a0c      	ldr	r2, [sp, #48]	@ 0x30
   24756:	7890      	ldrb	r0, [r2, #2]
   24758:	a9ff      	add	r1, sp, #1020	@ 0x3fc
   2475a:	31f8      	adds	r1, #248	@ 0xf8
   2475c:	7088      	strb	r0, [r1, #2]
   2475e:	7810      	ldrb	r0, [r2, #0]
   24760:	7852      	ldrb	r2, [r2, #1]
   24762:	0212      	lsls	r2, r2, #8
   24764:	1810      	adds	r0, r2, r0
   24766:	8008      	strh	r0, [r1, #0]
   24768:	7ca0      	ldrb	r0, [r4, #18]
   2476a:	9013      	str	r0, [sp, #76]	@ 0x4c
   2476c:	7c60      	ldrb	r0, [r4, #17]
   2476e:	900c      	str	r0, [sp, #48]	@ 0x30
   24770:	7be0      	ldrb	r0, [r4, #15]
   24772:	900b      	str	r0, [sp, #44]	@ 0x2c
   24774:	7c25      	ldrb	r5, [r4, #16]
   24776:	3413      	adds	r4, #19
   24778:	a8e4      	add	r0, sp, #912	@ 0x390
   2477a:	2223      	movs	r2, #35	@ 0x23
   2477c:	4621      	mov	r1, r4
   2477e:	f002 feb0 	bl	274e2 <__aeabi_memcpy>
   24782:	0228      	lsls	r0, r5, #8
   24784:	990b      	ldr	r1, [sp, #44]	@ 0x2c
   24786:	1840      	adds	r0, r0, r1
   24788:	990c      	ldr	r1, [sp, #48]	@ 0x30
   2478a:	0409      	lsls	r1, r1, #16
   2478c:	9a13      	ldr	r2, [sp, #76]	@ 0x4c
   2478e:	0612      	lsls	r2, r2, #24
   24790:	1851      	adds	r1, r2, r1
   24792:	1808      	adds	r0, r1, r0
   24794:	9013      	str	r0, [sp, #76]	@ 0x4c
   24796:	4870      	ldr	r0, [pc, #448]	@ (24958 <_start+0x4830>)
   24798:	4468      	add	r0, sp
   2479a:	f002 fce1 	bl	27160 <_ZN9allow_pin12full_dynamic17unshare_if_shared17hc38d0bd70fd52db9E>
   2479e:	486c      	ldr	r0, [pc, #432]	@ (24950 <_start+0x4828>)
   247a0:	4468      	add	r0, sp
   247a2:	f002 fcdd 	bl	27160 <_ZN9allow_pin12full_dynamic17unshare_if_shared17hc38d0bd70fd52db9E>
   247a6:	980e      	ldr	r0, [sp, #56]	@ 0x38
   247a8:	2800      	cmp	r0, #0
   247aa:	d001      	beq.n	247b0 <_start+0x4688>
   247ac:	f002 fc53 	bl	27056 <_start+0x6f2e>
   247b0:	adba      	add	r5, sp, #744	@ 0x2e8
   247b2:	4628      	mov	r0, r5
   247b4:	300c      	adds	r0, #12
   247b6:	a9ff      	add	r1, sp, #1020	@ 0x3fc
   247b8:	31f8      	adds	r1, #248	@ 0xf8
   247ba:	2203      	movs	r2, #3
   247bc:	920e      	str	r2, [sp, #56]	@ 0x38
   247be:	f002 fe90 	bl	274e2 <__aeabi_memcpy>
   247c2:	a8a3      	add	r0, sp, #652	@ 0x28c
   247c4:	900c      	str	r0, [sp, #48]	@ 0x30
   247c6:	a9e4      	add	r1, sp, #912	@ 0x390
   247c8:	2423      	movs	r4, #35	@ 0x23
   247ca:	4622      	mov	r2, r4
   247cc:	f002 fe89 	bl	274e2 <__aeabi_memcpy>
   247d0:	4628      	mov	r0, r5
   247d2:	3013      	adds	r0, #19
   247d4:	990c      	ldr	r1, [sp, #48]	@ 0x30
   247d6:	4622      	mov	r2, r4
   247d8:	f002 fe83 	bl	274e2 <__aeabi_memcpy>
   247dc:	9913      	ldr	r1, [sp, #76]	@ 0x4c
   247de:	0e08      	lsrs	r0, r1, #24
   247e0:	74a8      	strb	r0, [r5, #18]
   247e2:	0c08      	lsrs	r0, r1, #16
   247e4:	7468      	strb	r0, [r5, #17]
   247e6:	0a08      	lsrs	r0, r1, #8
   247e8:	7428      	strb	r0, [r5, #16]
   247ea:	73e9      	strb	r1, [r5, #15]
   247ec:	9812      	ldr	r0, [sp, #72]	@ 0x48
   247ee:	7228      	strb	r0, [r5, #8]
   247f0:	4c59      	ldr	r4, [pc, #356]	@ (24958 <_start+0x4830>)
   247f2:	446c      	add	r4, sp
   247f4:	4620      	mov	r0, r4
   247f6:	300c      	adds	r0, #12
   247f8:	2159      	movs	r1, #89	@ 0x59
   247fa:	900c      	str	r0, [sp, #48]	@ 0x30
   247fc:	f002 fcc4 	bl	27188 <__aeabi_memclr4>
   24800:	9812      	ldr	r0, [sp, #72]	@ 0x48
   24802:	7220      	strb	r0, [r4, #8]
   24804:	9600      	str	r6, [sp, #0]
   24806:	4c57      	ldr	r4, [pc, #348]	@ (24964 <_start+0x483c>)
   24808:	340f      	adds	r4, #15
   2480a:	212a      	movs	r1, #42	@ 0x2a
   2480c:	2204      	movs	r2, #4
   2480e:	4628      	mov	r0, r5
   24810:	4623      	mov	r3, r4
   24812:	f7fb fc67 	bl	200e4 <_ZN9allow_pin12full_dynamic15Buffer$LT$B$GT$5allow17h6d4ce413c213cdffE>
   24816:	9113      	str	r1, [sp, #76]	@ 0x4c
   24818:	07c0      	lsls	r0, r0, #31
   2481a:	d113      	bne.n	24844 <_start+0x471c>
   2481c:	9a0e      	ldr	r2, [sp, #56]	@ 0x38
   2481e:	9200      	str	r2, [sp, #0]
   24820:	484d      	ldr	r0, [pc, #308]	@ (24958 <_start+0x4830>)
   24822:	4468      	add	r0, sp
   24824:	2159      	movs	r1, #89	@ 0x59
   24826:	4623      	mov	r3, r4
   24828:	f7fb fc5c 	bl	200e4 <_ZN9allow_pin12full_dynamic15Buffer$LT$B$GT$5allow17h6d4ce413c213cdffE>
   2482c:	9113      	str	r1, [sp, #76]	@ 0x4c
   2482e:	07c0      	lsls	r0, r0, #31
   24830:	d108      	bne.n	24844 <_start+0x471c>
   24832:	484d      	ldr	r0, [pc, #308]	@ (24968 <_start+0x4840>)
   24834:	2101      	movs	r1, #1
   24836:	2203      	movs	r2, #3
   24838:	2300      	movs	r3, #0
   2483a:	930e      	str	r3, [sp, #56]	@ 0x38
   2483c:	df02      	svc	2
   2483e:	9113      	str	r1, [sp, #76]	@ 0x4c
   24840:	287f      	cmp	r0, #127	@ 0x7f
   24842:	d802      	bhi.n	2484a <_start+0x4722>
   24844:	9811      	ldr	r0, [sp, #68]	@ 0x44
   24846:	900e      	str	r0, [sp, #56]	@ 0x38
   24848:	e028      	b.n	2489c <_start+0x4774>
   2484a:	a8ba      	add	r0, sp, #744	@ 0x2e8
   2484c:	4c41      	ldr	r4, [pc, #260]	@ (24954 <_start+0x482c>)
   2484e:	47a0      	blx	r4
   24850:	4d41      	ldr	r5, [pc, #260]	@ (24958 <_start+0x4830>)
   24852:	446d      	add	r5, sp
   24854:	4628      	mov	r0, r5
   24856:	47a0      	blx	r4
   24858:	4628      	mov	r0, r5
   2485a:	47a0      	blx	r4
   2485c:	9a0c      	ldr	r2, [sp, #48]	@ 0x30
   2485e:	7890      	ldrb	r0, [r2, #2]
   24860:	a9e4      	add	r1, sp, #912	@ 0x390
   24862:	7088      	strb	r0, [r1, #2]
   24864:	7810      	ldrb	r0, [r2, #0]
   24866:	7852      	ldrb	r2, [r2, #1]
   24868:	0212      	lsls	r2, r2, #8
   2486a:	1810      	adds	r0, r2, r0
   2486c:	8008      	strh	r0, [r1, #0]
   2486e:	7ca8      	ldrb	r0, [r5, #18]
   24870:	9013      	str	r0, [sp, #76]	@ 0x4c
   24872:	7c68      	ldrb	r0, [r5, #17]
   24874:	900c      	str	r0, [sp, #48]	@ 0x30
   24876:	7be8      	ldrb	r0, [r5, #15]
   24878:	900b      	str	r0, [sp, #44]	@ 0x2c
   2487a:	7c2c      	ldrb	r4, [r5, #16]
   2487c:	3513      	adds	r5, #19
   2487e:	a8a3      	add	r0, sp, #652	@ 0x28c
   24880:	2252      	movs	r2, #82	@ 0x52
   24882:	4629      	mov	r1, r5
   24884:	f002 fe2d 	bl	274e2 <__aeabi_memcpy>
   24888:	0220      	lsls	r0, r4, #8
   2488a:	990b      	ldr	r1, [sp, #44]	@ 0x2c
   2488c:	1840      	adds	r0, r0, r1
   2488e:	990c      	ldr	r1, [sp, #48]	@ 0x30
   24890:	0409      	lsls	r1, r1, #16
   24892:	9a13      	ldr	r2, [sp, #76]	@ 0x4c
   24894:	0612      	lsls	r2, r2, #24
   24896:	1851      	adds	r1, r2, r1
   24898:	1808      	adds	r0, r1, r0
   2489a:	9013      	str	r0, [sp, #76]	@ 0x4c
   2489c:	482e      	ldr	r0, [pc, #184]	@ (24958 <_start+0x4830>)
   2489e:	4468      	add	r0, sp
   248a0:	f002 fc5e 	bl	27160 <_ZN9allow_pin12full_dynamic17unshare_if_shared17hc38d0bd70fd52db9E>
   248a4:	a8ba      	add	r0, sp, #744	@ 0x2e8
   248a6:	f002 fc5b 	bl	27160 <_ZN9allow_pin12full_dynamic17unshare_if_shared17hc38d0bd70fd52db9E>
   248aa:	980e      	ldr	r0, [sp, #56]	@ 0x38
   248ac:	2800      	cmp	r0, #0
   248ae:	d001      	beq.n	248b4 <_start+0x478c>
   248b0:	f002 fbd1 	bl	27056 <_start+0x6f2e>
   248b4:	4d28      	ldr	r5, [pc, #160]	@ (24958 <_start+0x4830>)
   248b6:	446d      	add	r5, sp
   248b8:	4628      	mov	r0, r5
   248ba:	300c      	adds	r0, #12
   248bc:	a9e4      	add	r1, sp, #912	@ 0x390
   248be:	2203      	movs	r2, #3
   248c0:	f002 fe0f 	bl	274e2 <__aeabi_memcpy>
   248c4:	4822      	ldr	r0, [pc, #136]	@ (24950 <_start+0x4828>)
   248c6:	4468      	add	r0, sp
   248c8:	900e      	str	r0, [sp, #56]	@ 0x38
   248ca:	a9a3      	add	r1, sp, #652	@ 0x28c
   248cc:	2452      	movs	r4, #82	@ 0x52
   248ce:	4622      	mov	r2, r4
   248d0:	f002 fca7 	bl	27222 <__aeabi_memcpy4>
   248d4:	4628      	mov	r0, r5
   248d6:	3013      	adds	r0, #19
   248d8:	990e      	ldr	r1, [sp, #56]	@ 0x38
   248da:	4622      	mov	r2, r4
   248dc:	f002 fe01 	bl	274e2 <__aeabi_memcpy>
   248e0:	9913      	ldr	r1, [sp, #76]	@ 0x4c
   248e2:	0e08      	lsrs	r0, r1, #24
   248e4:	74a8      	strb	r0, [r5, #18]
   248e6:	0c08      	lsrs	r0, r1, #16
   248e8:	7468      	strb	r0, [r5, #17]
   248ea:	0a08      	lsrs	r0, r1, #8
   248ec:	7428      	strb	r0, [r5, #16]
   248ee:	73e9      	strb	r1, [r5, #15]
   248f0:	9812      	ldr	r0, [sp, #72]	@ 0x48
   248f2:	7228      	strb	r0, [r5, #8]
   248f4:	4c16      	ldr	r4, [pc, #88]	@ (24950 <_start+0x4828>)
   248f6:	446c      	add	r4, sp
   248f8:	4620      	mov	r0, r4
   248fa:	300c      	adds	r0, #12
   248fc:	214a      	movs	r1, #74	@ 0x4a
   248fe:	900e      	str	r0, [sp, #56]	@ 0x38
   24900:	f002 fc42 	bl	27188 <__aeabi_memclr4>
   24904:	9812      	ldr	r0, [sp, #72]	@ 0x48
   24906:	7220      	strb	r0, [r4, #8]
   24908:	9806      	ldr	r0, [sp, #24]
   2490a:	9000      	str	r0, [sp, #0]
   2490c:	4c17      	ldr	r4, [pc, #92]	@ (2496c <_start+0x4844>)
   2490e:	34c5      	adds	r4, #197	@ 0xc5
   24910:	2159      	movs	r1, #89	@ 0x59
   24912:	2204      	movs	r2, #4
   24914:	4628      	mov	r0, r5
   24916:	4615      	mov	r5, r2
   24918:	4623      	mov	r3, r4
   2491a:	f7fb fbe3 	bl	200e4 <_ZN9allow_pin12full_dynamic15Buffer$LT$B$GT$5allow17h6d4ce413c213cdffE>
   2491e:	9113      	str	r1, [sp, #76]	@ 0x4c
   24920:	07c0      	lsls	r0, r0, #31
   24922:	d113      	bne.n	2494c <_start+0x4824>
   24924:	9500      	str	r5, [sp, #0]
   24926:	480a      	ldr	r0, [pc, #40]	@ (24950 <_start+0x4828>)
   24928:	4468      	add	r0, sp
   2492a:	214a      	movs	r1, #74	@ 0x4a
   2492c:	2203      	movs	r2, #3
   2492e:	4623      	mov	r3, r4
   24930:	f7fb fbd8 	bl	200e4 <_ZN9allow_pin12full_dynamic15Buffer$LT$B$GT$5allow17h6d4ce413c213cdffE>
   24934:	9113      	str	r1, [sp, #76]	@ 0x4c
   24936:	07c0      	lsls	r0, r0, #31
   24938:	d108      	bne.n	2494c <_start+0x4824>
   2493a:	480d      	ldr	r0, [pc, #52]	@ (24970 <_start+0x4848>)
   2493c:	2204      	movs	r2, #4
   2493e:	2500      	movs	r5, #0
   24940:	4629      	mov	r1, r5
   24942:	462b      	mov	r3, r5
   24944:	df02      	svc	2
   24946:	9113      	str	r1, [sp, #76]	@ 0x4c
   24948:	287f      	cmp	r0, #127	@ 0x7f
   2494a:	d813      	bhi.n	24974 <_start+0x484c>
   2494c:	9d11      	ldr	r5, [sp, #68]	@ 0x44
   2494e:	e03f      	b.n	249d0 <_start+0x48a8>
   24950:	00000568 	.word	0x00000568
   24954:	00027161 	.word	0x00027161
   24958:	000005cc 	.word	0x000005cc
   2495c:	000015f1 	.word	0x000015f1
   24960:	000015f3 	.word	0x000015f3
   24964:	00000ec3 	.word	0x00000ec3
   24968:	00000ed2 	.word	0x00000ed2
   2496c:	000013bf 	.word	0x000013bf
   24970:	00001484 	.word	0x00001484
   24974:	48c6      	ldr	r0, [pc, #792]	@ (24c90 <_start+0x4b68>)
   24976:	4468      	add	r0, sp
   24978:	49c6      	ldr	r1, [pc, #792]	@ (24c94 <_start+0x4b6c>)
   2497a:	4788      	blx	r1
   2497c:	4cc6      	ldr	r4, [pc, #792]	@ (24c98 <_start+0x4b70>)
   2497e:	446c      	add	r4, sp
   24980:	4620      	mov	r0, r4
   24982:	49c4      	ldr	r1, [pc, #784]	@ (24c94 <_start+0x4b6c>)
   24984:	4788      	blx	r1
   24986:	4620      	mov	r0, r4
   24988:	49c2      	ldr	r1, [pc, #776]	@ (24c94 <_start+0x4b6c>)
   2498a:	4788      	blx	r1
   2498c:	9a0e      	ldr	r2, [sp, #56]	@ 0x38
   2498e:	7890      	ldrb	r0, [r2, #2]
   24990:	a9e4      	add	r1, sp, #912	@ 0x390
   24992:	7088      	strb	r0, [r1, #2]
   24994:	7810      	ldrb	r0, [r2, #0]
   24996:	7852      	ldrb	r2, [r2, #1]
   24998:	0212      	lsls	r2, r2, #8
   2499a:	1810      	adds	r0, r2, r0
   2499c:	8008      	strh	r0, [r1, #0]
   2499e:	7ca0      	ldrb	r0, [r4, #18]
   249a0:	9013      	str	r0, [sp, #76]	@ 0x4c
   249a2:	7c60      	ldrb	r0, [r4, #17]
   249a4:	900e      	str	r0, [sp, #56]	@ 0x38
   249a6:	7be0      	ldrb	r0, [r4, #15]
   249a8:	900c      	str	r0, [sp, #48]	@ 0x30
   249aa:	7c20      	ldrb	r0, [r4, #16]
   249ac:	900b      	str	r0, [sp, #44]	@ 0x2c
   249ae:	3413      	adds	r4, #19
   249b0:	a8ba      	add	r0, sp, #744	@ 0x2e8
   249b2:	2243      	movs	r2, #67	@ 0x43
   249b4:	4621      	mov	r1, r4
   249b6:	f002 fd94 	bl	274e2 <__aeabi_memcpy>
   249ba:	980b      	ldr	r0, [sp, #44]	@ 0x2c
   249bc:	0200      	lsls	r0, r0, #8
   249be:	990c      	ldr	r1, [sp, #48]	@ 0x30
   249c0:	1840      	adds	r0, r0, r1
   249c2:	990e      	ldr	r1, [sp, #56]	@ 0x38
   249c4:	0409      	lsls	r1, r1, #16
   249c6:	9a13      	ldr	r2, [sp, #76]	@ 0x4c
   249c8:	0612      	lsls	r2, r2, #24
   249ca:	1851      	adds	r1, r2, r1
   249cc:	1808      	adds	r0, r1, r0
   249ce:	9013      	str	r0, [sp, #76]	@ 0x4c
   249d0:	48b1      	ldr	r0, [pc, #708]	@ (24c98 <_start+0x4b70>)
   249d2:	4468      	add	r0, sp
   249d4:	f002 fbc4 	bl	27160 <_ZN9allow_pin12full_dynamic17unshare_if_shared17hc38d0bd70fd52db9E>
   249d8:	48ad      	ldr	r0, [pc, #692]	@ (24c90 <_start+0x4b68>)
   249da:	4468      	add	r0, sp
   249dc:	f002 fbc0 	bl	27160 <_ZN9allow_pin12full_dynamic17unshare_if_shared17hc38d0bd70fd52db9E>
   249e0:	2d00      	cmp	r5, #0
   249e2:	d001      	beq.n	249e8 <_start+0x48c0>
   249e4:	f002 fb37 	bl	27056 <_start+0x6f2e>
   249e8:	4da9      	ldr	r5, [pc, #676]	@ (24c90 <_start+0x4b68>)
   249ea:	446d      	add	r5, sp
   249ec:	4628      	mov	r0, r5
   249ee:	300c      	adds	r0, #12
   249f0:	a9e4      	add	r1, sp, #912	@ 0x390
   249f2:	2203      	movs	r2, #3
   249f4:	920e      	str	r2, [sp, #56]	@ 0x38
   249f6:	f002 fd74 	bl	274e2 <__aeabi_memcpy>
   249fa:	a8a3      	add	r0, sp, #652	@ 0x28c
   249fc:	900c      	str	r0, [sp, #48]	@ 0x30
   249fe:	a9ba      	add	r1, sp, #744	@ 0x2e8
   24a00:	2443      	movs	r4, #67	@ 0x43
   24a02:	4622      	mov	r2, r4
   24a04:	f002 fc0d 	bl	27222 <__aeabi_memcpy4>
   24a08:	4628      	mov	r0, r5
   24a0a:	3013      	adds	r0, #19
   24a0c:	990c      	ldr	r1, [sp, #48]	@ 0x30
   24a0e:	4622      	mov	r2, r4
   24a10:	f002 fd67 	bl	274e2 <__aeabi_memcpy>
   24a14:	9913      	ldr	r1, [sp, #76]	@ 0x4c
   24a16:	0e08      	lsrs	r0, r1, #24
   24a18:	74a8      	strb	r0, [r5, #18]
   24a1a:	0c08      	lsrs	r0, r1, #16
   24a1c:	7468      	strb	r0, [r5, #17]
   24a1e:	0a08      	lsrs	r0, r1, #8
   24a20:	7428      	strb	r0, [r5, #16]
   24a22:	73e9      	strb	r1, [r5, #15]
   24a24:	9c12      	ldr	r4, [sp, #72]	@ 0x48
   24a26:	722c      	strb	r4, [r5, #8]
   24a28:	489b      	ldr	r0, [pc, #620]	@ (24c98 <_start+0x4b70>)
   24a2a:	4468      	add	r0, sp
   24a2c:	9013      	str	r0, [sp, #76]	@ 0x4c
   24a2e:	300c      	adds	r0, #12
   24a30:	212d      	movs	r1, #45	@ 0x2d
   24a32:	900c      	str	r0, [sp, #48]	@ 0x30
   24a34:	f002 fba8 	bl	27188 <__aeabi_memclr4>
   24a38:	9813      	ldr	r0, [sp, #76]	@ 0x4c
   24a3a:	7204      	strb	r4, [r0, #8]
   24a3c:	9400      	str	r4, [sp, #0]
   24a3e:	4c97      	ldr	r4, [pc, #604]	@ (24c9c <_start+0x4b74>)
   24a40:	34e0      	adds	r4, #224	@ 0xe0
   24a42:	214a      	movs	r1, #74	@ 0x4a
   24a44:	2204      	movs	r2, #4
   24a46:	4628      	mov	r0, r5
   24a48:	4623      	mov	r3, r4
   24a4a:	f7fb fb4b 	bl	200e4 <_ZN9allow_pin12full_dynamic15Buffer$LT$B$GT$5allow17h6d4ce413c213cdffE>
   24a4e:	9113      	str	r1, [sp, #76]	@ 0x4c
   24a50:	07c0      	lsls	r0, r0, #31
   24a52:	d113      	bne.n	24a7c <_start+0x4954>
   24a54:	9a0e      	ldr	r2, [sp, #56]	@ 0x38
   24a56:	9200      	str	r2, [sp, #0]
   24a58:	488f      	ldr	r0, [pc, #572]	@ (24c98 <_start+0x4b70>)
   24a5a:	4468      	add	r0, sp
   24a5c:	212d      	movs	r1, #45	@ 0x2d
   24a5e:	4623      	mov	r3, r4
   24a60:	f7fb fb40 	bl	200e4 <_ZN9allow_pin12full_dynamic15Buffer$LT$B$GT$5allow17h6d4ce413c213cdffE>
   24a64:	9113      	str	r1, [sp, #76]	@ 0x4c
   24a66:	07c0      	lsls	r0, r0, #31
   24a68:	d108      	bne.n	24a7c <_start+0x4954>
   24a6a:	488d      	ldr	r0, [pc, #564]	@ (24ca0 <_start+0x4b78>)
   24a6c:	2102      	movs	r1, #2
   24a6e:	2203      	movs	r2, #3
   24a70:	2300      	movs	r3, #0
   24a72:	930e      	str	r3, [sp, #56]	@ 0x38
   24a74:	df02      	svc	2
   24a76:	9113      	str	r1, [sp, #76]	@ 0x4c
   24a78:	287f      	cmp	r0, #127	@ 0x7f
   24a7a:	d802      	bhi.n	24a82 <_start+0x495a>
   24a7c:	9811      	ldr	r0, [sp, #68]	@ 0x44
   24a7e:	900e      	str	r0, [sp, #56]	@ 0x38
   24a80:	e02a      	b.n	24ad8 <_start+0x49b0>
   24a82:	4883      	ldr	r0, [pc, #524]	@ (24c90 <_start+0x4b68>)
   24a84:	4468      	add	r0, sp
   24a86:	4c83      	ldr	r4, [pc, #524]	@ (24c94 <_start+0x4b6c>)
   24a88:	47a0      	blx	r4
   24a8a:	4d83      	ldr	r5, [pc, #524]	@ (24c98 <_start+0x4b70>)
   24a8c:	446d      	add	r5, sp
   24a8e:	4628      	mov	r0, r5
   24a90:	47a0      	blx	r4
   24a92:	4628      	mov	r0, r5
   24a94:	47a0      	blx	r4
   24a96:	9a0c      	ldr	r2, [sp, #48]	@ 0x30
   24a98:	7890      	ldrb	r0, [r2, #2]
   24a9a:	a9ff      	add	r1, sp, #1020	@ 0x3fc
   24a9c:	31f8      	adds	r1, #248	@ 0xf8
   24a9e:	7088      	strb	r0, [r1, #2]
   24aa0:	7810      	ldrb	r0, [r2, #0]
   24aa2:	7852      	ldrb	r2, [r2, #1]
   24aa4:	0212      	lsls	r2, r2, #8
   24aa6:	1810      	adds	r0, r2, r0
   24aa8:	8008      	strh	r0, [r1, #0]
   24aaa:	7ca8      	ldrb	r0, [r5, #18]
   24aac:	9013      	str	r0, [sp, #76]	@ 0x4c
   24aae:	7c68      	ldrb	r0, [r5, #17]
   24ab0:	900c      	str	r0, [sp, #48]	@ 0x30
   24ab2:	7be8      	ldrb	r0, [r5, #15]
   24ab4:	900b      	str	r0, [sp, #44]	@ 0x2c
   24ab6:	7c2c      	ldrb	r4, [r5, #16]
   24ab8:	3513      	adds	r5, #19
   24aba:	a8e4      	add	r0, sp, #912	@ 0x390
   24abc:	2226      	movs	r2, #38	@ 0x26
   24abe:	4629      	mov	r1, r5
   24ac0:	f002 fd0f 	bl	274e2 <__aeabi_memcpy>
   24ac4:	0220      	lsls	r0, r4, #8
   24ac6:	990b      	ldr	r1, [sp, #44]	@ 0x2c
   24ac8:	1840      	adds	r0, r0, r1
   24aca:	990c      	ldr	r1, [sp, #48]	@ 0x30
   24acc:	0409      	lsls	r1, r1, #16
   24ace:	9a13      	ldr	r2, [sp, #76]	@ 0x4c
   24ad0:	0612      	lsls	r2, r2, #24
   24ad2:	1851      	adds	r1, r2, r1
   24ad4:	1808      	adds	r0, r1, r0
   24ad6:	9013      	str	r0, [sp, #76]	@ 0x4c
   24ad8:	486f      	ldr	r0, [pc, #444]	@ (24c98 <_start+0x4b70>)
   24ada:	4468      	add	r0, sp
   24adc:	f002 fb40 	bl	27160 <_ZN9allow_pin12full_dynamic17unshare_if_shared17hc38d0bd70fd52db9E>
   24ae0:	486b      	ldr	r0, [pc, #428]	@ (24c90 <_start+0x4b68>)
   24ae2:	4468      	add	r0, sp
   24ae4:	f002 fb3c 	bl	27160 <_ZN9allow_pin12full_dynamic17unshare_if_shared17hc38d0bd70fd52db9E>
   24ae8:	980e      	ldr	r0, [sp, #56]	@ 0x38
   24aea:	2800      	cmp	r0, #0
   24aec:	d001      	beq.n	24af2 <_start+0x49ca>
   24aee:	f002 fab2 	bl	27056 <_start+0x6f2e>
   24af2:	aca3      	add	r4, sp, #652	@ 0x28c
   24af4:	4620      	mov	r0, r4
   24af6:	300c      	adds	r0, #12
   24af8:	a9ff      	add	r1, sp, #1020	@ 0x3fc
   24afa:	31f8      	adds	r1, #248	@ 0xf8
   24afc:	2203      	movs	r2, #3
   24afe:	f002 fcf0 	bl	274e2 <__aeabi_memcpy>
   24b02:	a8ba      	add	r0, sp, #744	@ 0x2e8
   24b04:	900e      	str	r0, [sp, #56]	@ 0x38
   24b06:	a9e4      	add	r1, sp, #912	@ 0x390
   24b08:	2526      	movs	r5, #38	@ 0x26
   24b0a:	462a      	mov	r2, r5
   24b0c:	f002 fce9 	bl	274e2 <__aeabi_memcpy>
   24b10:	4620      	mov	r0, r4
   24b12:	3013      	adds	r0, #19
   24b14:	990e      	ldr	r1, [sp, #56]	@ 0x38
   24b16:	462a      	mov	r2, r5
   24b18:	f002 fce3 	bl	274e2 <__aeabi_memcpy>
   24b1c:	9913      	ldr	r1, [sp, #76]	@ 0x4c
   24b1e:	0e08      	lsrs	r0, r1, #24
   24b20:	74a0      	strb	r0, [r4, #18]
   24b22:	0c08      	lsrs	r0, r1, #16
   24b24:	7460      	strb	r0, [r4, #17]
   24b26:	0a08      	lsrs	r0, r1, #8
   24b28:	7420      	strb	r0, [r4, #16]
   24b2a:	73e1      	strb	r1, [r4, #15]
   24b2c:	9d12      	ldr	r5, [sp, #72]	@ 0x48
   24b2e:	7225      	strb	r5, [r4, #8]
   24b30:	4857      	ldr	r0, [pc, #348]	@ (24c90 <_start+0x4b68>)
   24b32:	4468      	add	r0, sp
   24b34:	9013      	str	r0, [sp, #76]	@ 0x4c
   24b36:	300c      	adds	r0, #12
   24b38:	2153      	movs	r1, #83	@ 0x53
   24b3a:	900c      	str	r0, [sp, #48]	@ 0x30
   24b3c:	f002 fb24 	bl	27188 <__aeabi_memclr4>
   24b40:	9813      	ldr	r0, [sp, #76]	@ 0x4c
   24b42:	7205      	strb	r5, [r0, #8]
   24b44:	9500      	str	r5, [sp, #0]
   24b46:	212d      	movs	r1, #45	@ 0x2d
   24b48:	2204      	movs	r2, #4
   24b4a:	4620      	mov	r0, r4
   24b4c:	4b55      	ldr	r3, [pc, #340]	@ (24ca4 <_start+0x4b7c>)
   24b4e:	f7fb fac9 	bl	200e4 <_ZN9allow_pin12full_dynamic15Buffer$LT$B$GT$5allow17h6d4ce413c213cdffE>
   24b52:	9113      	str	r1, [sp, #76]	@ 0x4c
   24b54:	07c0      	lsls	r0, r0, #31
   24b56:	d114      	bne.n	24b82 <_start+0x4a5a>
   24b58:	9807      	ldr	r0, [sp, #28]
   24b5a:	9000      	str	r0, [sp, #0]
   24b5c:	484c      	ldr	r0, [pc, #304]	@ (24c90 <_start+0x4b68>)
   24b5e:	4468      	add	r0, sp
   24b60:	2153      	movs	r1, #83	@ 0x53
   24b62:	2203      	movs	r2, #3
   24b64:	4b4f      	ldr	r3, [pc, #316]	@ (24ca4 <_start+0x4b7c>)
   24b66:	f7fb fabd 	bl	200e4 <_ZN9allow_pin12full_dynamic15Buffer$LT$B$GT$5allow17h6d4ce413c213cdffE>
   24b6a:	9113      	str	r1, [sp, #76]	@ 0x4c
   24b6c:	07c0      	lsls	r0, r0, #31
   24b6e:	d108      	bne.n	24b82 <_start+0x4a5a>
   24b70:	484c      	ldr	r0, [pc, #304]	@ (24ca4 <_start+0x4b7c>)
   24b72:	2102      	movs	r1, #2
   24b74:	2207      	movs	r2, #7
   24b76:	2300      	movs	r3, #0
   24b78:	930e      	str	r3, [sp, #56]	@ 0x38
   24b7a:	df02      	svc	2
   24b7c:	9113      	str	r1, [sp, #76]	@ 0x4c
   24b7e:	287f      	cmp	r0, #127	@ 0x7f
   24b80:	d802      	bhi.n	24b88 <_start+0x4a60>
   24b82:	9811      	ldr	r0, [sp, #68]	@ 0x44
   24b84:	900e      	str	r0, [sp, #56]	@ 0x38
   24b86:	e029      	b.n	24bdc <_start+0x4ab4>
   24b88:	a8a3      	add	r0, sp, #652	@ 0x28c
   24b8a:	4d42      	ldr	r5, [pc, #264]	@ (24c94 <_start+0x4b6c>)
   24b8c:	47a8      	blx	r5
   24b8e:	4c40      	ldr	r4, [pc, #256]	@ (24c90 <_start+0x4b68>)
   24b90:	446c      	add	r4, sp
   24b92:	4620      	mov	r0, r4
   24b94:	47a8      	blx	r5
   24b96:	4620      	mov	r0, r4
   24b98:	47a8      	blx	r5
   24b9a:	9a0c      	ldr	r2, [sp, #48]	@ 0x30
   24b9c:	7890      	ldrb	r0, [r2, #2]
   24b9e:	a9ba      	add	r1, sp, #744	@ 0x2e8
   24ba0:	7088      	strb	r0, [r1, #2]
   24ba2:	7810      	ldrb	r0, [r2, #0]
   24ba4:	7852      	ldrb	r2, [r2, #1]
   24ba6:	0212      	lsls	r2, r2, #8
   24ba8:	1810      	adds	r0, r2, r0
   24baa:	8008      	strh	r0, [r1, #0]
   24bac:	7ca0      	ldrb	r0, [r4, #18]
   24bae:	9013      	str	r0, [sp, #76]	@ 0x4c
   24bb0:	7c60      	ldrb	r0, [r4, #17]
   24bb2:	900c      	str	r0, [sp, #48]	@ 0x30
   24bb4:	7be0      	ldrb	r0, [r4, #15]
   24bb6:	900b      	str	r0, [sp, #44]	@ 0x2c
   24bb8:	7c25      	ldrb	r5, [r4, #16]
   24bba:	3413      	adds	r4, #19
   24bbc:	4836      	ldr	r0, [pc, #216]	@ (24c98 <_start+0x4b70>)
   24bbe:	4468      	add	r0, sp
   24bc0:	224c      	movs	r2, #76	@ 0x4c
   24bc2:	4621      	mov	r1, r4
   24bc4:	f002 fc8d 	bl	274e2 <__aeabi_memcpy>
   24bc8:	0228      	lsls	r0, r5, #8
   24bca:	990b      	ldr	r1, [sp, #44]	@ 0x2c
   24bcc:	1840      	adds	r0, r0, r1
   24bce:	990c      	ldr	r1, [sp, #48]	@ 0x30
   24bd0:	0409      	lsls	r1, r1, #16
   24bd2:	9a13      	ldr	r2, [sp, #76]	@ 0x4c
   24bd4:	0612      	lsls	r2, r2, #24
   24bd6:	1851      	adds	r1, r2, r1
   24bd8:	1808      	adds	r0, r1, r0
   24bda:	9013      	str	r0, [sp, #76]	@ 0x4c
   24bdc:	482c      	ldr	r0, [pc, #176]	@ (24c90 <_start+0x4b68>)
   24bde:	4468      	add	r0, sp
   24be0:	f002 fabe 	bl	27160 <_ZN9allow_pin12full_dynamic17unshare_if_shared17hc38d0bd70fd52db9E>
   24be4:	a8a3      	add	r0, sp, #652	@ 0x28c
   24be6:	f002 fabb 	bl	27160 <_ZN9allow_pin12full_dynamic17unshare_if_shared17hc38d0bd70fd52db9E>
   24bea:	980e      	ldr	r0, [sp, #56]	@ 0x38
   24bec:	2800      	cmp	r0, #0
   24bee:	d001      	beq.n	24bf4 <_start+0x4acc>
   24bf0:	f002 fa31 	bl	27056 <_start+0x6f2e>
   24bf4:	4d26      	ldr	r5, [pc, #152]	@ (24c90 <_start+0x4b68>)
   24bf6:	446d      	add	r5, sp
   24bf8:	4628      	mov	r0, r5
   24bfa:	300c      	adds	r0, #12
   24bfc:	a9ba      	add	r1, sp, #744	@ 0x2e8
   24bfe:	2203      	movs	r2, #3
   24c00:	f002 fc6f 	bl	274e2 <__aeabi_memcpy>
   24c04:	a8d1      	add	r0, sp, #836	@ 0x344
   24c06:	900e      	str	r0, [sp, #56]	@ 0x38
   24c08:	4923      	ldr	r1, [pc, #140]	@ (24c98 <_start+0x4b70>)
   24c0a:	4469      	add	r1, sp
   24c0c:	244c      	movs	r4, #76	@ 0x4c
   24c0e:	4622      	mov	r2, r4
   24c10:	f002 fb07 	bl	27222 <__aeabi_memcpy4>
   24c14:	9913      	ldr	r1, [sp, #76]	@ 0x4c
   24c16:	0e08      	lsrs	r0, r1, #24
   24c18:	74a8      	strb	r0, [r5, #18]
   24c1a:	0c08      	lsrs	r0, r1, #16
   24c1c:	7468      	strb	r0, [r5, #17]
   24c1e:	0a08      	lsrs	r0, r1, #8
   24c20:	7428      	strb	r0, [r5, #16]
   24c22:	73e9      	strb	r1, [r5, #15]
   24c24:	9812      	ldr	r0, [sp, #72]	@ 0x48
   24c26:	7228      	strb	r0, [r5, #8]
   24c28:	4628      	mov	r0, r5
   24c2a:	3013      	adds	r0, #19
   24c2c:	990e      	ldr	r1, [sp, #56]	@ 0x38
   24c2e:	4622      	mov	r2, r4
   24c30:	f002 fc57 	bl	274e2 <__aeabi_memcpy>
   24c34:	4c18      	ldr	r4, [pc, #96]	@ (24c98 <_start+0x4b70>)
   24c36:	446c      	add	r4, sp
   24c38:	4620      	mov	r0, r4
   24c3a:	300c      	adds	r0, #12
   24c3c:	213a      	movs	r1, #58	@ 0x3a
   24c3e:	900c      	str	r0, [sp, #48]	@ 0x30
   24c40:	f002 faa2 	bl	27188 <__aeabi_memclr4>
   24c44:	9812      	ldr	r0, [sp, #72]	@ 0x48
   24c46:	7220      	strb	r0, [r4, #8]
   24c48:	980f      	ldr	r0, [sp, #60]	@ 0x3c
   24c4a:	9000      	str	r0, [sp, #0]
   24c4c:	2153      	movs	r1, #83	@ 0x53
   24c4e:	2204      	movs	r2, #4
   24c50:	4b15      	ldr	r3, [pc, #84]	@ (24ca8 <_start+0x4b80>)
   24c52:	4628      	mov	r0, r5
   24c54:	f7fb fa46 	bl	200e4 <_ZN9allow_pin12full_dynamic15Buffer$LT$B$GT$5allow17h6d4ce413c213cdffE>
   24c58:	9113      	str	r1, [sp, #76]	@ 0x4c
   24c5a:	07c0      	lsls	r0, r0, #31
   24c5c:	d114      	bne.n	24c88 <_start+0x4b60>
   24c5e:	9807      	ldr	r0, [sp, #28]
   24c60:	9000      	str	r0, [sp, #0]
   24c62:	480d      	ldr	r0, [pc, #52]	@ (24c98 <_start+0x4b70>)
   24c64:	4468      	add	r0, sp
   24c66:	213a      	movs	r1, #58	@ 0x3a
   24c68:	2203      	movs	r2, #3
   24c6a:	4b0f      	ldr	r3, [pc, #60]	@ (24ca8 <_start+0x4b80>)
   24c6c:	f7fb fa3a 	bl	200e4 <_ZN9allow_pin12full_dynamic15Buffer$LT$B$GT$5allow17h6d4ce413c213cdffE>
   24c70:	9113      	str	r1, [sp, #76]	@ 0x4c
   24c72:	07c0      	lsls	r0, r0, #31
   24c74:	d108      	bne.n	24c88 <_start+0x4b60>
   24c76:	480c      	ldr	r0, [pc, #48]	@ (24ca8 <_start+0x4b80>)
   24c78:	2106      	movs	r1, #6
   24c7a:	2207      	movs	r2, #7
   24c7c:	2300      	movs	r3, #0
   24c7e:	930e      	str	r3, [sp, #56]	@ 0x38
   24c80:	df02      	svc	2
   24c82:	9113      	str	r1, [sp, #76]	@ 0x4c
   24c84:	287f      	cmp	r0, #127	@ 0x7f
   24c86:	d811      	bhi.n	24cac <_start+0x4b84>
   24c88:	9811      	ldr	r0, [sp, #68]	@ 0x44
   24c8a:	900e      	str	r0, [sp, #56]	@ 0x38
   24c8c:	e039      	b.n	24d02 <_start+0x4bda>
   24c8e:	46c0      	nop			@ (mov r8, r8)
   24c90:	000005cc 	.word	0x000005cc
   24c94:	00027161 	.word	0x00027161
   24c98:	00000568 	.word	0x00000568
   24c9c:	00000d5d 	.word	0x00000d5d
   24ca0:	00000e3d 	.word	0x00000e3d
   24ca4:	00000ec3 	.word	0x00000ec3
   24ca8:	00002645 	.word	0x00002645
   24cac:	48c7      	ldr	r0, [pc, #796]	@ (24fcc <_start+0x4ea4>)
   24cae:	4468      	add	r0, sp
   24cb0:	4cc7      	ldr	r4, [pc, #796]	@ (24fd0 <_start+0x4ea8>)
   24cb2:	47a0      	blx	r4
   24cb4:	4dc7      	ldr	r5, [pc, #796]	@ (24fd4 <_start+0x4eac>)
   24cb6:	446d      	add	r5, sp
   24cb8:	4628      	mov	r0, r5
   24cba:	47a0      	blx	r4
   24cbc:	4628      	mov	r0, r5
   24cbe:	47a0      	blx	r4
   24cc0:	9a0c      	ldr	r2, [sp, #48]	@ 0x30
   24cc2:	7890      	ldrb	r0, [r2, #2]
   24cc4:	a9ff      	add	r1, sp, #1020	@ 0x3fc
   24cc6:	31f8      	adds	r1, #248	@ 0xf8
   24cc8:	7088      	strb	r0, [r1, #2]
   24cca:	7810      	ldrb	r0, [r2, #0]
   24ccc:	7852      	ldrb	r2, [r2, #1]
   24cce:	0212      	lsls	r2, r2, #8
   24cd0:	1810      	adds	r0, r2, r0
   24cd2:	8008      	strh	r0, [r1, #0]
   24cd4:	7ca8      	ldrb	r0, [r5, #18]
   24cd6:	9013      	str	r0, [sp, #76]	@ 0x4c
   24cd8:	7c68      	ldrb	r0, [r5, #17]
   24cda:	900c      	str	r0, [sp, #48]	@ 0x30
   24cdc:	7be8      	ldrb	r0, [r5, #15]
   24cde:	900b      	str	r0, [sp, #44]	@ 0x2c
   24ce0:	7c2c      	ldrb	r4, [r5, #16]
   24ce2:	3513      	adds	r5, #19
   24ce4:	a8e4      	add	r0, sp, #912	@ 0x390
   24ce6:	2233      	movs	r2, #51	@ 0x33
   24ce8:	4629      	mov	r1, r5
   24cea:	f002 fbfa 	bl	274e2 <__aeabi_memcpy>
   24cee:	0220      	lsls	r0, r4, #8
   24cf0:	990b      	ldr	r1, [sp, #44]	@ 0x2c
   24cf2:	1840      	adds	r0, r0, r1
   24cf4:	990c      	ldr	r1, [sp, #48]	@ 0x30
   24cf6:	0409      	lsls	r1, r1, #16
   24cf8:	9a13      	ldr	r2, [sp, #76]	@ 0x4c
   24cfa:	0612      	lsls	r2, r2, #24
   24cfc:	1851      	adds	r1, r2, r1
   24cfe:	1808      	adds	r0, r1, r0
   24d00:	9013      	str	r0, [sp, #76]	@ 0x4c
   24d02:	48b4      	ldr	r0, [pc, #720]	@ (24fd4 <_start+0x4eac>)
   24d04:	4468      	add	r0, sp
   24d06:	f002 fa2b 	bl	27160 <_ZN9allow_pin12full_dynamic17unshare_if_shared17hc38d0bd70fd52db9E>
   24d0a:	48b0      	ldr	r0, [pc, #704]	@ (24fcc <_start+0x4ea4>)
   24d0c:	4468      	add	r0, sp
   24d0e:	f002 fa27 	bl	27160 <_ZN9allow_pin12full_dynamic17unshare_if_shared17hc38d0bd70fd52db9E>
   24d12:	980e      	ldr	r0, [sp, #56]	@ 0x38
   24d14:	2800      	cmp	r0, #0
   24d16:	d001      	beq.n	24d1c <_start+0x4bf4>
   24d18:	f002 f99d 	bl	27056 <_start+0x6f2e>
   24d1c:	adba      	add	r5, sp, #744	@ 0x2e8
   24d1e:	4628      	mov	r0, r5
   24d20:	300c      	adds	r0, #12
   24d22:	a9ff      	add	r1, sp, #1020	@ 0x3fc
   24d24:	31f8      	adds	r1, #248	@ 0xf8
   24d26:	2203      	movs	r2, #3
   24d28:	f002 fbdb 	bl	274e2 <__aeabi_memcpy>
   24d2c:	a8a3      	add	r0, sp, #652	@ 0x28c
   24d2e:	900e      	str	r0, [sp, #56]	@ 0x38
   24d30:	a9e4      	add	r1, sp, #912	@ 0x390
   24d32:	2433      	movs	r4, #51	@ 0x33
   24d34:	4622      	mov	r2, r4
   24d36:	f002 fbd4 	bl	274e2 <__aeabi_memcpy>
   24d3a:	4628      	mov	r0, r5
   24d3c:	3013      	adds	r0, #19
   24d3e:	990e      	ldr	r1, [sp, #56]	@ 0x38
   24d40:	4622      	mov	r2, r4
   24d42:	f002 fbce 	bl	274e2 <__aeabi_memcpy>
   24d46:	9913      	ldr	r1, [sp, #76]	@ 0x4c
   24d48:	0e08      	lsrs	r0, r1, #24
   24d4a:	74a8      	strb	r0, [r5, #18]
   24d4c:	0c08      	lsrs	r0, r1, #16
   24d4e:	7468      	strb	r0, [r5, #17]
   24d50:	0a08      	lsrs	r0, r1, #8
   24d52:	7428      	strb	r0, [r5, #16]
   24d54:	73e9      	strb	r1, [r5, #15]
   24d56:	9812      	ldr	r0, [sp, #72]	@ 0x48
   24d58:	7228      	strb	r0, [r5, #8]
   24d5a:	4c9c      	ldr	r4, [pc, #624]	@ (24fcc <_start+0x4ea4>)
   24d5c:	446c      	add	r4, sp
   24d5e:	4620      	mov	r0, r4
   24d60:	300c      	adds	r0, #12
   24d62:	215d      	movs	r1, #93	@ 0x5d
   24d64:	900e      	str	r0, [sp, #56]	@ 0x38
   24d66:	f002 fa0f 	bl	27188 <__aeabi_memclr4>
   24d6a:	9812      	ldr	r0, [sp, #72]	@ 0x48
   24d6c:	7220      	strb	r0, [r4, #8]
   24d6e:	9806      	ldr	r0, [sp, #24]
   24d70:	9000      	str	r0, [sp, #0]
   24d72:	4b99      	ldr	r3, [pc, #612]	@ (24fd8 <_start+0x4eb0>)
   24d74:	33e5      	adds	r3, #229	@ 0xe5
   24d76:	213a      	movs	r1, #58	@ 0x3a
   24d78:	2204      	movs	r2, #4
   24d7a:	4628      	mov	r0, r5
   24d7c:	461c      	mov	r4, r3
   24d7e:	f7fb f9b1 	bl	200e4 <_ZN9allow_pin12full_dynamic15Buffer$LT$B$GT$5allow17h6d4ce413c213cdffE>
   24d82:	9113      	str	r1, [sp, #76]	@ 0x4c
   24d84:	07c0      	lsls	r0, r0, #31
   24d86:	d114      	bne.n	24db2 <_start+0x4c8a>
   24d88:	9803      	ldr	r0, [sp, #12]
   24d8a:	9000      	str	r0, [sp, #0]
   24d8c:	488f      	ldr	r0, [pc, #572]	@ (24fcc <_start+0x4ea4>)
   24d8e:	4468      	add	r0, sp
   24d90:	215d      	movs	r1, #93	@ 0x5d
   24d92:	2203      	movs	r2, #3
   24d94:	4623      	mov	r3, r4
   24d96:	f7fb f9a5 	bl	200e4 <_ZN9allow_pin12full_dynamic15Buffer$LT$B$GT$5allow17h6d4ce413c213cdffE>
   24d9a:	9113      	str	r1, [sp, #76]	@ 0x4c
   24d9c:	07c0      	lsls	r0, r0, #31
   24d9e:	d108      	bne.n	24db2 <_start+0x4c8a>
   24da0:	488e      	ldr	r0, [pc, #568]	@ (24fdc <_start+0x4eb4>)
   24da2:	2205      	movs	r2, #5
   24da4:	2500      	movs	r5, #0
   24da6:	4629      	mov	r1, r5
   24da8:	462b      	mov	r3, r5
   24daa:	df02      	svc	2
   24dac:	9113      	str	r1, [sp, #76]	@ 0x4c
   24dae:	287f      	cmp	r0, #127	@ 0x7f
   24db0:	d801      	bhi.n	24db6 <_start+0x4c8e>
   24db2:	9d11      	ldr	r5, [sp, #68]	@ 0x44
   24db4:	e02c      	b.n	24e10 <_start+0x4ce8>
   24db6:	a8ba      	add	r0, sp, #744	@ 0x2e8
   24db8:	4985      	ldr	r1, [pc, #532]	@ (24fd0 <_start+0x4ea8>)
   24dba:	4788      	blx	r1
   24dbc:	4c83      	ldr	r4, [pc, #524]	@ (24fcc <_start+0x4ea4>)
   24dbe:	446c      	add	r4, sp
   24dc0:	4620      	mov	r0, r4
   24dc2:	4983      	ldr	r1, [pc, #524]	@ (24fd0 <_start+0x4ea8>)
   24dc4:	4788      	blx	r1
   24dc6:	4620      	mov	r0, r4
   24dc8:	4981      	ldr	r1, [pc, #516]	@ (24fd0 <_start+0x4ea8>)
   24dca:	4788      	blx	r1
   24dcc:	9a0e      	ldr	r2, [sp, #56]	@ 0x38
   24dce:	7890      	ldrb	r0, [r2, #2]
   24dd0:	a9e4      	add	r1, sp, #912	@ 0x390
   24dd2:	7088      	strb	r0, [r1, #2]
   24dd4:	7810      	ldrb	r0, [r2, #0]
   24dd6:	7852      	ldrb	r2, [r2, #1]
   24dd8:	0212      	lsls	r2, r2, #8
   24dda:	1810      	adds	r0, r2, r0
   24ddc:	8008      	strh	r0, [r1, #0]
   24dde:	7ca0      	ldrb	r0, [r4, #18]
   24de0:	9013      	str	r0, [sp, #76]	@ 0x4c
   24de2:	7c60      	ldrb	r0, [r4, #17]
   24de4:	900e      	str	r0, [sp, #56]	@ 0x38
   24de6:	7be0      	ldrb	r0, [r4, #15]
   24de8:	900c      	str	r0, [sp, #48]	@ 0x30
   24dea:	7c20      	ldrb	r0, [r4, #16]
   24dec:	900b      	str	r0, [sp, #44]	@ 0x2c
   24dee:	3413      	adds	r4, #19
   24df0:	a8a3      	add	r0, sp, #652	@ 0x28c
   24df2:	2256      	movs	r2, #86	@ 0x56
   24df4:	4621      	mov	r1, r4
   24df6:	f002 fb74 	bl	274e2 <__aeabi_memcpy>
   24dfa:	980b      	ldr	r0, [sp, #44]	@ 0x2c
   24dfc:	0200      	lsls	r0, r0, #8
   24dfe:	990c      	ldr	r1, [sp, #48]	@ 0x30
   24e00:	1840      	adds	r0, r0, r1
   24e02:	990e      	ldr	r1, [sp, #56]	@ 0x38
   24e04:	0409      	lsls	r1, r1, #16
   24e06:	9a13      	ldr	r2, [sp, #76]	@ 0x4c
   24e08:	0612      	lsls	r2, r2, #24
   24e0a:	1851      	adds	r1, r2, r1
   24e0c:	1808      	adds	r0, r1, r0
   24e0e:	9013      	str	r0, [sp, #76]	@ 0x4c
   24e10:	486e      	ldr	r0, [pc, #440]	@ (24fcc <_start+0x4ea4>)
   24e12:	4468      	add	r0, sp
   24e14:	f002 f9a4 	bl	27160 <_ZN9allow_pin12full_dynamic17unshare_if_shared17hc38d0bd70fd52db9E>
   24e18:	a8ba      	add	r0, sp, #744	@ 0x2e8
   24e1a:	f002 f9a1 	bl	27160 <_ZN9allow_pin12full_dynamic17unshare_if_shared17hc38d0bd70fd52db9E>
   24e1e:	2d00      	cmp	r5, #0
   24e20:	d001      	beq.n	24e26 <_start+0x4cfe>
   24e22:	f002 f918 	bl	27056 <_start+0x6f2e>
   24e26:	4d69      	ldr	r5, [pc, #420]	@ (24fcc <_start+0x4ea4>)
   24e28:	446d      	add	r5, sp
   24e2a:	4628      	mov	r0, r5
   24e2c:	300c      	adds	r0, #12
   24e2e:	a9e4      	add	r1, sp, #912	@ 0x390
   24e30:	2203      	movs	r2, #3
   24e32:	f002 fb56 	bl	274e2 <__aeabi_memcpy>
   24e36:	4867      	ldr	r0, [pc, #412]	@ (24fd4 <_start+0x4eac>)
   24e38:	4468      	add	r0, sp
   24e3a:	900e      	str	r0, [sp, #56]	@ 0x38
   24e3c:	a9a3      	add	r1, sp, #652	@ 0x28c
   24e3e:	2456      	movs	r4, #86	@ 0x56
   24e40:	4622      	mov	r2, r4
   24e42:	f002 f9ee 	bl	27222 <__aeabi_memcpy4>
   24e46:	4628      	mov	r0, r5
   24e48:	3013      	adds	r0, #19
   24e4a:	990e      	ldr	r1, [sp, #56]	@ 0x38
   24e4c:	4622      	mov	r2, r4
   24e4e:	f002 fb48 	bl	274e2 <__aeabi_memcpy>
   24e52:	9913      	ldr	r1, [sp, #76]	@ 0x4c
   24e54:	0e08      	lsrs	r0, r1, #24
   24e56:	74a8      	strb	r0, [r5, #18]
   24e58:	0c08      	lsrs	r0, r1, #16
   24e5a:	7468      	strb	r0, [r5, #17]
   24e5c:	0a08      	lsrs	r0, r1, #8
   24e5e:	7428      	strb	r0, [r5, #16]
   24e60:	73e9      	strb	r1, [r5, #15]
   24e62:	9812      	ldr	r0, [sp, #72]	@ 0x48
   24e64:	7228      	strb	r0, [r5, #8]
   24e66:	4c5b      	ldr	r4, [pc, #364]	@ (24fd4 <_start+0x4eac>)
   24e68:	446c      	add	r4, sp
   24e6a:	4620      	mov	r0, r4
   24e6c:	300c      	adds	r0, #12
   24e6e:	2140      	movs	r1, #64	@ 0x40
   24e70:	900c      	str	r0, [sp, #48]	@ 0x30
   24e72:	f002 f989 	bl	27188 <__aeabi_memclr4>
   24e76:	9812      	ldr	r0, [sp, #72]	@ 0x48
   24e78:	7220      	strb	r0, [r4, #8]
   24e7a:	9810      	ldr	r0, [sp, #64]	@ 0x40
   24e7c:	9000      	str	r0, [sp, #0]
   24e7e:	4c58      	ldr	r4, [pc, #352]	@ (24fe0 <_start+0x4eb8>)
   24e80:	345a      	adds	r4, #90	@ 0x5a
   24e82:	215d      	movs	r1, #93	@ 0x5d
   24e84:	2204      	movs	r2, #4
   24e86:	4628      	mov	r0, r5
   24e88:	4615      	mov	r5, r2
   24e8a:	4623      	mov	r3, r4
   24e8c:	f7fb f92a 	bl	200e4 <_ZN9allow_pin12full_dynamic15Buffer$LT$B$GT$5allow17h6d4ce413c213cdffE>
   24e90:	9113      	str	r1, [sp, #76]	@ 0x4c
   24e92:	07c0      	lsls	r0, r0, #31
   24e94:	d113      	bne.n	24ebe <_start+0x4d96>
   24e96:	9500      	str	r5, [sp, #0]
   24e98:	484e      	ldr	r0, [pc, #312]	@ (24fd4 <_start+0x4eac>)
   24e9a:	4468      	add	r0, sp
   24e9c:	2140      	movs	r1, #64	@ 0x40
   24e9e:	2203      	movs	r2, #3
   24ea0:	4623      	mov	r3, r4
   24ea2:	f7fb f91f 	bl	200e4 <_ZN9allow_pin12full_dynamic15Buffer$LT$B$GT$5allow17h6d4ce413c213cdffE>
   24ea6:	9113      	str	r1, [sp, #76]	@ 0x4c
   24ea8:	07c0      	lsls	r0, r0, #31
   24eaa:	d108      	bne.n	24ebe <_start+0x4d96>
   24eac:	484d      	ldr	r0, [pc, #308]	@ (24fe4 <_start+0x4ebc>)
   24eae:	2108      	movs	r1, #8
   24eb0:	2204      	movs	r2, #4
   24eb2:	2300      	movs	r3, #0
   24eb4:	930e      	str	r3, [sp, #56]	@ 0x38
   24eb6:	df02      	svc	2
   24eb8:	9113      	str	r1, [sp, #76]	@ 0x4c
   24eba:	287f      	cmp	r0, #127	@ 0x7f
   24ebc:	d802      	bhi.n	24ec4 <_start+0x4d9c>
   24ebe:	9811      	ldr	r0, [sp, #68]	@ 0x44
   24ec0:	900e      	str	r0, [sp, #56]	@ 0x38
   24ec2:	e029      	b.n	24f18 <_start+0x4df0>
   24ec4:	4841      	ldr	r0, [pc, #260]	@ (24fcc <_start+0x4ea4>)
   24ec6:	4468      	add	r0, sp
   24ec8:	4c41      	ldr	r4, [pc, #260]	@ (24fd0 <_start+0x4ea8>)
   24eca:	47a0      	blx	r4
   24ecc:	4d41      	ldr	r5, [pc, #260]	@ (24fd4 <_start+0x4eac>)
   24ece:	446d      	add	r5, sp
   24ed0:	4628      	mov	r0, r5
   24ed2:	47a0      	blx	r4
   24ed4:	4628      	mov	r0, r5
   24ed6:	47a0      	blx	r4
   24ed8:	9a0c      	ldr	r2, [sp, #48]	@ 0x30
   24eda:	7890      	ldrb	r0, [r2, #2]
   24edc:	a9e4      	add	r1, sp, #912	@ 0x390
   24ede:	7088      	strb	r0, [r1, #2]
   24ee0:	7810      	ldrb	r0, [r2, #0]
   24ee2:	7852      	ldrb	r2, [r2, #1]
   24ee4:	0212      	lsls	r2, r2, #8
   24ee6:	1810      	adds	r0, r2, r0
   24ee8:	8008      	strh	r0, [r1, #0]
   24eea:	7ca8      	ldrb	r0, [r5, #18]
   24eec:	9013      	str	r0, [sp, #76]	@ 0x4c
   24eee:	7c68      	ldrb	r0, [r5, #17]
   24ef0:	900c      	str	r0, [sp, #48]	@ 0x30
   24ef2:	7be8      	ldrb	r0, [r5, #15]
   24ef4:	900b      	str	r0, [sp, #44]	@ 0x2c
   24ef6:	7c2c      	ldrb	r4, [r5, #16]
   24ef8:	3513      	adds	r5, #19
   24efa:	a8ba      	add	r0, sp, #744	@ 0x2e8
   24efc:	2239      	movs	r2, #57	@ 0x39
   24efe:	4629      	mov	r1, r5
   24f00:	f002 faef 	bl	274e2 <__aeabi_memcpy>
   24f04:	0220      	lsls	r0, r4, #8
   24f06:	990b      	ldr	r1, [sp, #44]	@ 0x2c
   24f08:	1840      	adds	r0, r0, r1
   24f0a:	990c      	ldr	r1, [sp, #48]	@ 0x30
   24f0c:	0409      	lsls	r1, r1, #16
   24f0e:	9a13      	ldr	r2, [sp, #76]	@ 0x4c
   24f10:	0612      	lsls	r2, r2, #24
   24f12:	1851      	adds	r1, r2, r1
   24f14:	1808      	adds	r0, r1, r0
   24f16:	9013      	str	r0, [sp, #76]	@ 0x4c
   24f18:	482e      	ldr	r0, [pc, #184]	@ (24fd4 <_start+0x4eac>)
   24f1a:	4468      	add	r0, sp
   24f1c:	f002 f920 	bl	27160 <_ZN9allow_pin12full_dynamic17unshare_if_shared17hc38d0bd70fd52db9E>
   24f20:	482a      	ldr	r0, [pc, #168]	@ (24fcc <_start+0x4ea4>)
   24f22:	4468      	add	r0, sp
   24f24:	f002 f91c 	bl	27160 <_ZN9allow_pin12full_dynamic17unshare_if_shared17hc38d0bd70fd52db9E>
   24f28:	980e      	ldr	r0, [sp, #56]	@ 0x38
   24f2a:	2800      	cmp	r0, #0
   24f2c:	d001      	beq.n	24f32 <_start+0x4e0a>
   24f2e:	f002 f892 	bl	27056 <_start+0x6f2e>
   24f32:	4c26      	ldr	r4, [pc, #152]	@ (24fcc <_start+0x4ea4>)
   24f34:	446c      	add	r4, sp
   24f36:	4620      	mov	r0, r4
   24f38:	300c      	adds	r0, #12
   24f3a:	a9e4      	add	r1, sp, #912	@ 0x390
   24f3c:	2203      	movs	r2, #3
   24f3e:	f002 fad0 	bl	274e2 <__aeabi_memcpy>
   24f42:	a8a3      	add	r0, sp, #652	@ 0x28c
   24f44:	900e      	str	r0, [sp, #56]	@ 0x38
   24f46:	a9ba      	add	r1, sp, #744	@ 0x2e8
   24f48:	2539      	movs	r5, #57	@ 0x39
   24f4a:	462a      	mov	r2, r5
   24f4c:	f002 fac9 	bl	274e2 <__aeabi_memcpy>
   24f50:	4620      	mov	r0, r4
   24f52:	3013      	adds	r0, #19
   24f54:	990e      	ldr	r1, [sp, #56]	@ 0x38
   24f56:	462a      	mov	r2, r5
   24f58:	f002 fac3 	bl	274e2 <__aeabi_memcpy>
   24f5c:	9913      	ldr	r1, [sp, #76]	@ 0x4c
   24f5e:	0e08      	lsrs	r0, r1, #24
   24f60:	74a0      	strb	r0, [r4, #18]
   24f62:	0c08      	lsrs	r0, r1, #16
   24f64:	7460      	strb	r0, [r4, #17]
   24f66:	0a08      	lsrs	r0, r1, #8
   24f68:	7420      	strb	r0, [r4, #16]
   24f6a:	73e1      	strb	r1, [r4, #15]
   24f6c:	9812      	ldr	r0, [sp, #72]	@ 0x48
   24f6e:	7220      	strb	r0, [r4, #8]
   24f70:	4d18      	ldr	r5, [pc, #96]	@ (24fd4 <_start+0x4eac>)
   24f72:	446d      	add	r5, sp
   24f74:	4628      	mov	r0, r5
   24f76:	300c      	adds	r0, #12
   24f78:	2131      	movs	r1, #49	@ 0x31
   24f7a:	900c      	str	r0, [sp, #48]	@ 0x30
   24f7c:	f002 f904 	bl	27188 <__aeabi_memclr4>
   24f80:	9812      	ldr	r0, [sp, #72]	@ 0x48
   24f82:	7228      	strb	r0, [r5, #8]
   24f84:	9810      	ldr	r0, [sp, #64]	@ 0x40
   24f86:	9000      	str	r0, [sp, #0]
   24f88:	2140      	movs	r1, #64	@ 0x40
   24f8a:	2204      	movs	r2, #4
   24f8c:	4620      	mov	r0, r4
   24f8e:	920b      	str	r2, [sp, #44]	@ 0x2c
   24f90:	4b13      	ldr	r3, [pc, #76]	@ (24fe0 <_start+0x4eb8>)
   24f92:	f7fb f8a7 	bl	200e4 <_ZN9allow_pin12full_dynamic15Buffer$LT$B$GT$5allow17h6d4ce413c213cdffE>
   24f96:	9113      	str	r1, [sp, #76]	@ 0x4c
   24f98:	07c0      	lsls	r0, r0, #31
   24f9a:	d114      	bne.n	24fc6 <_start+0x4e9e>
   24f9c:	9803      	ldr	r0, [sp, #12]
   24f9e:	9000      	str	r0, [sp, #0]
   24fa0:	480c      	ldr	r0, [pc, #48]	@ (24fd4 <_start+0x4eac>)
   24fa2:	4468      	add	r0, sp
   24fa4:	2131      	movs	r1, #49	@ 0x31
   24fa6:	2203      	movs	r2, #3
   24fa8:	4b0d      	ldr	r3, [pc, #52]	@ (24fe0 <_start+0x4eb8>)
   24faa:	f7fb f89b 	bl	200e4 <_ZN9allow_pin12full_dynamic15Buffer$LT$B$GT$5allow17h6d4ce413c213cdffE>
   24fae:	9113      	str	r1, [sp, #76]	@ 0x4c
   24fb0:	07c0      	lsls	r0, r0, #31
   24fb2:	d108      	bne.n	24fc6 <_start+0x4e9e>
   24fb4:	480a      	ldr	r0, [pc, #40]	@ (24fe0 <_start+0x4eb8>)
   24fb6:	2108      	movs	r1, #8
   24fb8:	2205      	movs	r2, #5
   24fba:	2300      	movs	r3, #0
   24fbc:	930e      	str	r3, [sp, #56]	@ 0x38
   24fbe:	df02      	svc	2
   24fc0:	9113      	str	r1, [sp, #76]	@ 0x4c
   24fc2:	287f      	cmp	r0, #127	@ 0x7f
   24fc4:	d810      	bhi.n	24fe8 <_start+0x4ec0>
   24fc6:	9811      	ldr	r0, [sp, #68]	@ 0x44
   24fc8:	900e      	str	r0, [sp, #56]	@ 0x38
   24fca:	e038      	b.n	2503e <_start+0x4f16>
   24fcc:	000005cc 	.word	0x000005cc
   24fd0:	00027161 	.word	0x00027161
   24fd4:	00000568 	.word	0x00000568
   24fd8:	000013bf 	.word	0x000013bf
   24fdc:	000014a4 	.word	0x000014a4
   24fe0:	00000fce 	.word	0x00000fce
   24fe4:	00001028 	.word	0x00001028
   24fe8:	48c6      	ldr	r0, [pc, #792]	@ (25304 <_start+0x51dc>)
   24fea:	4468      	add	r0, sp
   24fec:	4dc6      	ldr	r5, [pc, #792]	@ (25308 <_start+0x51e0>)
   24fee:	47a8      	blx	r5
   24ff0:	4cc6      	ldr	r4, [pc, #792]	@ (2530c <_start+0x51e4>)
   24ff2:	446c      	add	r4, sp
   24ff4:	4620      	mov	r0, r4
   24ff6:	47a8      	blx	r5
   24ff8:	4620      	mov	r0, r4
   24ffa:	47a8      	blx	r5
   24ffc:	9a0c      	ldr	r2, [sp, #48]	@ 0x30
   24ffe:	7890      	ldrb	r0, [r2, #2]
   25000:	a9ff      	add	r1, sp, #1020	@ 0x3fc
   25002:	31f8      	adds	r1, #248	@ 0xf8
   25004:	7088      	strb	r0, [r1, #2]
   25006:	7810      	ldrb	r0, [r2, #0]
   25008:	7852      	ldrb	r2, [r2, #1]
   2500a:	0212      	lsls	r2, r2, #8
   2500c:	1810      	adds	r0, r2, r0
   2500e:	8008      	strh	r0, [r1, #0]
   25010:	7ca0      	ldrb	r0, [r4, #18]
   25012:	9013      	str	r0, [sp, #76]	@ 0x4c
   25014:	7c60      	ldrb	r0, [r4, #17]
   25016:	900c      	str	r0, [sp, #48]	@ 0x30
   25018:	7be0      	ldrb	r0, [r4, #15]
   2501a:	900a      	str	r0, [sp, #40]	@ 0x28
   2501c:	7c25      	ldrb	r5, [r4, #16]
   2501e:	3413      	adds	r4, #19
   25020:	a8e4      	add	r0, sp, #912	@ 0x390
   25022:	222a      	movs	r2, #42	@ 0x2a
   25024:	4621      	mov	r1, r4
   25026:	f002 fa5c 	bl	274e2 <__aeabi_memcpy>
   2502a:	0228      	lsls	r0, r5, #8
   2502c:	990a      	ldr	r1, [sp, #40]	@ 0x28
   2502e:	1840      	adds	r0, r0, r1
   25030:	990c      	ldr	r1, [sp, #48]	@ 0x30
   25032:	0409      	lsls	r1, r1, #16
   25034:	9a13      	ldr	r2, [sp, #76]	@ 0x4c
   25036:	0612      	lsls	r2, r2, #24
   25038:	1851      	adds	r1, r2, r1
   2503a:	1808      	adds	r0, r1, r0
   2503c:	9013      	str	r0, [sp, #76]	@ 0x4c
   2503e:	48b3      	ldr	r0, [pc, #716]	@ (2530c <_start+0x51e4>)
   25040:	4468      	add	r0, sp
   25042:	f002 f88d 	bl	27160 <_ZN9allow_pin12full_dynamic17unshare_if_shared17hc38d0bd70fd52db9E>
   25046:	48af      	ldr	r0, [pc, #700]	@ (25304 <_start+0x51dc>)
   25048:	4468      	add	r0, sp
   2504a:	f002 f889 	bl	27160 <_ZN9allow_pin12full_dynamic17unshare_if_shared17hc38d0bd70fd52db9E>
   2504e:	980e      	ldr	r0, [sp, #56]	@ 0x38
   25050:	2800      	cmp	r0, #0
   25052:	d001      	beq.n	25058 <_start+0x4f30>
   25054:	f001 ffff 	bl	27056 <_start+0x6f2e>
   25058:	adba      	add	r5, sp, #744	@ 0x2e8
   2505a:	4628      	mov	r0, r5
   2505c:	300c      	adds	r0, #12
   2505e:	a9ff      	add	r1, sp, #1020	@ 0x3fc
   25060:	31f8      	adds	r1, #248	@ 0xf8
   25062:	2203      	movs	r2, #3
   25064:	920c      	str	r2, [sp, #48]	@ 0x30
   25066:	f002 fa3c 	bl	274e2 <__aeabi_memcpy>
   2506a:	a8a3      	add	r0, sp, #652	@ 0x28c
   2506c:	900e      	str	r0, [sp, #56]	@ 0x38
   2506e:	a9e4      	add	r1, sp, #912	@ 0x390
   25070:	242a      	movs	r4, #42	@ 0x2a
   25072:	4622      	mov	r2, r4
   25074:	f002 fa35 	bl	274e2 <__aeabi_memcpy>
   25078:	4628      	mov	r0, r5
   2507a:	3013      	adds	r0, #19
   2507c:	990e      	ldr	r1, [sp, #56]	@ 0x38
   2507e:	4622      	mov	r2, r4
   25080:	f002 fa2f 	bl	274e2 <__aeabi_memcpy>
   25084:	9913      	ldr	r1, [sp, #76]	@ 0x4c
   25086:	0e08      	lsrs	r0, r1, #24
   25088:	74a8      	strb	r0, [r5, #18]
   2508a:	0c08      	lsrs	r0, r1, #16
   2508c:	7468      	strb	r0, [r5, #17]
   2508e:	0a08      	lsrs	r0, r1, #8
   25090:	7428      	strb	r0, [r5, #16]
   25092:	73e9      	strb	r1, [r5, #15]
   25094:	9812      	ldr	r0, [sp, #72]	@ 0x48
   25096:	7228      	strb	r0, [r5, #8]
   25098:	4c9a      	ldr	r4, [pc, #616]	@ (25304 <_start+0x51dc>)
   2509a:	446c      	add	r4, sp
   2509c:	4620      	mov	r0, r4
   2509e:	300c      	adds	r0, #12
   250a0:	2148      	movs	r1, #72	@ 0x48
   250a2:	900a      	str	r0, [sp, #40]	@ 0x28
   250a4:	f002 f870 	bl	27188 <__aeabi_memclr4>
   250a8:	9812      	ldr	r0, [sp, #72]	@ 0x48
   250aa:	7220      	strb	r0, [r4, #8]
   250ac:	9a0b      	ldr	r2, [sp, #44]	@ 0x2c
   250ae:	9200      	str	r2, [sp, #0]
   250b0:	4c97      	ldr	r4, [pc, #604]	@ (25310 <_start+0x51e8>)
   250b2:	3484      	adds	r4, #132	@ 0x84
   250b4:	2131      	movs	r1, #49	@ 0x31
   250b6:	4628      	mov	r0, r5
   250b8:	4623      	mov	r3, r4
   250ba:	f7fb f813 	bl	200e4 <_ZN9allow_pin12full_dynamic15Buffer$LT$B$GT$5allow17h6d4ce413c213cdffE>
   250be:	9113      	str	r1, [sp, #76]	@ 0x4c
   250c0:	07c0      	lsls	r0, r0, #31
   250c2:	d113      	bne.n	250ec <_start+0x4fc4>
   250c4:	9a0c      	ldr	r2, [sp, #48]	@ 0x30
   250c6:	9200      	str	r2, [sp, #0]
   250c8:	488e      	ldr	r0, [pc, #568]	@ (25304 <_start+0x51dc>)
   250ca:	4468      	add	r0, sp
   250cc:	2148      	movs	r1, #72	@ 0x48
   250ce:	4623      	mov	r3, r4
   250d0:	f7fb f808 	bl	200e4 <_ZN9allow_pin12full_dynamic15Buffer$LT$B$GT$5allow17h6d4ce413c213cdffE>
   250d4:	9113      	str	r1, [sp, #76]	@ 0x4c
   250d6:	07c0      	lsls	r0, r0, #31
   250d8:	d108      	bne.n	250ec <_start+0x4fc4>
   250da:	488e      	ldr	r0, [pc, #568]	@ (25314 <_start+0x51ec>)
   250dc:	2104      	movs	r1, #4
   250de:	2203      	movs	r2, #3
   250e0:	2300      	movs	r3, #0
   250e2:	930e      	str	r3, [sp, #56]	@ 0x38
   250e4:	df02      	svc	2
   250e6:	9113      	str	r1, [sp, #76]	@ 0x4c
   250e8:	287f      	cmp	r0, #127	@ 0x7f
   250ea:	d802      	bhi.n	250f2 <_start+0x4fca>
   250ec:	9811      	ldr	r0, [sp, #68]	@ 0x44
   250ee:	900e      	str	r0, [sp, #56]	@ 0x38
   250f0:	e028      	b.n	25144 <_start+0x501c>
   250f2:	a8ba      	add	r0, sp, #744	@ 0x2e8
   250f4:	4c84      	ldr	r4, [pc, #528]	@ (25308 <_start+0x51e0>)
   250f6:	47a0      	blx	r4
   250f8:	4d82      	ldr	r5, [pc, #520]	@ (25304 <_start+0x51dc>)
   250fa:	446d      	add	r5, sp
   250fc:	4628      	mov	r0, r5
   250fe:	47a0      	blx	r4
   25100:	4628      	mov	r0, r5
   25102:	47a0      	blx	r4
   25104:	9a0a      	ldr	r2, [sp, #40]	@ 0x28
   25106:	7890      	ldrb	r0, [r2, #2]
   25108:	a9e4      	add	r1, sp, #912	@ 0x390
   2510a:	7088      	strb	r0, [r1, #2]
   2510c:	7810      	ldrb	r0, [r2, #0]
   2510e:	7852      	ldrb	r2, [r2, #1]
   25110:	0212      	lsls	r2, r2, #8
   25112:	1810      	adds	r0, r2, r0
   25114:	8008      	strh	r0, [r1, #0]
   25116:	7ca8      	ldrb	r0, [r5, #18]
   25118:	9013      	str	r0, [sp, #76]	@ 0x4c
   2511a:	7c68      	ldrb	r0, [r5, #17]
   2511c:	900b      	str	r0, [sp, #44]	@ 0x2c
   2511e:	7be8      	ldrb	r0, [r5, #15]
   25120:	900a      	str	r0, [sp, #40]	@ 0x28
   25122:	7c2c      	ldrb	r4, [r5, #16]
   25124:	3513      	adds	r5, #19
   25126:	a8a3      	add	r0, sp, #652	@ 0x28c
   25128:	2241      	movs	r2, #65	@ 0x41
   2512a:	4629      	mov	r1, r5
   2512c:	f002 f9d9 	bl	274e2 <__aeabi_memcpy>
   25130:	0220      	lsls	r0, r4, #8
   25132:	990a      	ldr	r1, [sp, #40]	@ 0x28
   25134:	1840      	adds	r0, r0, r1
   25136:	990b      	ldr	r1, [sp, #44]	@ 0x2c
   25138:	0409      	lsls	r1, r1, #16
   2513a:	9a13      	ldr	r2, [sp, #76]	@ 0x4c
   2513c:	0612      	lsls	r2, r2, #24
   2513e:	1851      	adds	r1, r2, r1
   25140:	1808      	adds	r0, r1, r0
   25142:	9013      	str	r0, [sp, #76]	@ 0x4c
   25144:	486f      	ldr	r0, [pc, #444]	@ (25304 <_start+0x51dc>)
   25146:	4468      	add	r0, sp
   25148:	f002 f80a 	bl	27160 <_ZN9allow_pin12full_dynamic17unshare_if_shared17hc38d0bd70fd52db9E>
   2514c:	a8ba      	add	r0, sp, #744	@ 0x2e8
   2514e:	f002 f807 	bl	27160 <_ZN9allow_pin12full_dynamic17unshare_if_shared17hc38d0bd70fd52db9E>
   25152:	980e      	ldr	r0, [sp, #56]	@ 0x38
   25154:	2800      	cmp	r0, #0
   25156:	d001      	beq.n	2515c <_start+0x5034>
   25158:	f001 ff7d 	bl	27056 <_start+0x6f2e>
   2515c:	4d69      	ldr	r5, [pc, #420]	@ (25304 <_start+0x51dc>)
   2515e:	446d      	add	r5, sp
   25160:	4628      	mov	r0, r5
   25162:	300c      	adds	r0, #12
   25164:	a9e4      	add	r1, sp, #912	@ 0x390
   25166:	9a0c      	ldr	r2, [sp, #48]	@ 0x30
   25168:	f002 f9bb 	bl	274e2 <__aeabi_memcpy>
   2516c:	4867      	ldr	r0, [pc, #412]	@ (2530c <_start+0x51e4>)
   2516e:	4468      	add	r0, sp
   25170:	900e      	str	r0, [sp, #56]	@ 0x38
   25172:	a9a3      	add	r1, sp, #652	@ 0x28c
   25174:	2441      	movs	r4, #65	@ 0x41
   25176:	4622      	mov	r2, r4
   25178:	f002 f853 	bl	27222 <__aeabi_memcpy4>
   2517c:	4628      	mov	r0, r5
   2517e:	3013      	adds	r0, #19
   25180:	990e      	ldr	r1, [sp, #56]	@ 0x38
   25182:	4622      	mov	r2, r4
   25184:	f002 f9ad 	bl	274e2 <__aeabi_memcpy>
   25188:	9913      	ldr	r1, [sp, #76]	@ 0x4c
   2518a:	0e08      	lsrs	r0, r1, #24
   2518c:	74a8      	strb	r0, [r5, #18]
   2518e:	0c08      	lsrs	r0, r1, #16
   25190:	7468      	strb	r0, [r5, #17]
   25192:	0a08      	lsrs	r0, r1, #8
   25194:	7428      	strb	r0, [r5, #16]
   25196:	73e9      	strb	r1, [r5, #15]
   25198:	9812      	ldr	r0, [sp, #72]	@ 0x48
   2519a:	7228      	strb	r0, [r5, #8]
   2519c:	4c5b      	ldr	r4, [pc, #364]	@ (2530c <_start+0x51e4>)
   2519e:	446c      	add	r4, sp
   251a0:	4620      	mov	r0, r4
   251a2:	300c      	adds	r0, #12
   251a4:	2129      	movs	r1, #41	@ 0x29
   251a6:	900b      	str	r0, [sp, #44]	@ 0x2c
   251a8:	f001 ffee 	bl	27188 <__aeabi_memclr4>
   251ac:	9812      	ldr	r0, [sp, #72]	@ 0x48
   251ae:	7220      	strb	r0, [r4, #8]
   251b0:	980c      	ldr	r0, [sp, #48]	@ 0x30
   251b2:	9000      	str	r0, [sp, #0]
   251b4:	4b58      	ldr	r3, [pc, #352]	@ (25318 <_start+0x51f0>)
   251b6:	335f      	adds	r3, #95	@ 0x5f
   251b8:	2148      	movs	r1, #72	@ 0x48
   251ba:	2404      	movs	r4, #4
   251bc:	4628      	mov	r0, r5
   251be:	4622      	mov	r2, r4
   251c0:	461d      	mov	r5, r3
   251c2:	f7fa ff8f 	bl	200e4 <_ZN9allow_pin12full_dynamic15Buffer$LT$B$GT$5allow17h6d4ce413c213cdffE>
   251c6:	9113      	str	r1, [sp, #76]	@ 0x4c
   251c8:	07c0      	lsls	r0, r0, #31
   251ca:	d113      	bne.n	251f4 <_start+0x50cc>
   251cc:	9400      	str	r4, [sp, #0]
   251ce:	484f      	ldr	r0, [pc, #316]	@ (2530c <_start+0x51e4>)
   251d0:	4468      	add	r0, sp
   251d2:	2129      	movs	r1, #41	@ 0x29
   251d4:	2203      	movs	r2, #3
   251d6:	462b      	mov	r3, r5
   251d8:	f7fa ff84 	bl	200e4 <_ZN9allow_pin12full_dynamic15Buffer$LT$B$GT$5allow17h6d4ce413c213cdffE>
   251dc:	9113      	str	r1, [sp, #76]	@ 0x4c
   251de:	07c0      	lsls	r0, r0, #31
   251e0:	d108      	bne.n	251f4 <_start+0x50cc>
   251e2:	484e      	ldr	r0, [pc, #312]	@ (2531c <_start+0x51f4>)
   251e4:	2103      	movs	r1, #3
   251e6:	2204      	movs	r2, #4
   251e8:	2300      	movs	r3, #0
   251ea:	930e      	str	r3, [sp, #56]	@ 0x38
   251ec:	df02      	svc	2
   251ee:	9113      	str	r1, [sp, #76]	@ 0x4c
   251f0:	287f      	cmp	r0, #127	@ 0x7f
   251f2:	d802      	bhi.n	251fa <_start+0x50d2>
   251f4:	9811      	ldr	r0, [sp, #68]	@ 0x44
   251f6:	900e      	str	r0, [sp, #56]	@ 0x38
   251f8:	e029      	b.n	2524e <_start+0x5126>
   251fa:	4842      	ldr	r0, [pc, #264]	@ (25304 <_start+0x51dc>)
   251fc:	4468      	add	r0, sp
   251fe:	4c42      	ldr	r4, [pc, #264]	@ (25308 <_start+0x51e0>)
   25200:	47a0      	blx	r4
   25202:	4d42      	ldr	r5, [pc, #264]	@ (2530c <_start+0x51e4>)
   25204:	446d      	add	r5, sp
   25206:	4628      	mov	r0, r5
   25208:	47a0      	blx	r4
   2520a:	4628      	mov	r0, r5
   2520c:	47a0      	blx	r4
   2520e:	9a0b      	ldr	r2, [sp, #44]	@ 0x2c
   25210:	7890      	ldrb	r0, [r2, #2]
   25212:	a9e4      	add	r1, sp, #912	@ 0x390
   25214:	7088      	strb	r0, [r1, #2]
   25216:	7810      	ldrb	r0, [r2, #0]
   25218:	7852      	ldrb	r2, [r2, #1]
   2521a:	0212      	lsls	r2, r2, #8
   2521c:	1810      	adds	r0, r2, r0
   2521e:	8008      	strh	r0, [r1, #0]
   25220:	7ca8      	ldrb	r0, [r5, #18]
   25222:	9013      	str	r0, [sp, #76]	@ 0x4c
   25224:	7c68      	ldrb	r0, [r5, #17]
   25226:	900c      	str	r0, [sp, #48]	@ 0x30
   25228:	7be8      	ldrb	r0, [r5, #15]
   2522a:	900b      	str	r0, [sp, #44]	@ 0x2c
   2522c:	7c2c      	ldrb	r4, [r5, #16]
   2522e:	3513      	adds	r5, #19
   25230:	a8ba      	add	r0, sp, #744	@ 0x2e8
   25232:	2222      	movs	r2, #34	@ 0x22
   25234:	4629      	mov	r1, r5
   25236:	f002 f954 	bl	274e2 <__aeabi_memcpy>
   2523a:	0220      	lsls	r0, r4, #8
   2523c:	990b      	ldr	r1, [sp, #44]	@ 0x2c
   2523e:	1840      	adds	r0, r0, r1
   25240:	990c      	ldr	r1, [sp, #48]	@ 0x30
   25242:	0409      	lsls	r1, r1, #16
   25244:	9a13      	ldr	r2, [sp, #76]	@ 0x4c
   25246:	0612      	lsls	r2, r2, #24
   25248:	1851      	adds	r1, r2, r1
   2524a:	1808      	adds	r0, r1, r0
   2524c:	9013      	str	r0, [sp, #76]	@ 0x4c
   2524e:	482f      	ldr	r0, [pc, #188]	@ (2530c <_start+0x51e4>)
   25250:	4468      	add	r0, sp
   25252:	f001 ff85 	bl	27160 <_ZN9allow_pin12full_dynamic17unshare_if_shared17hc38d0bd70fd52db9E>
   25256:	482b      	ldr	r0, [pc, #172]	@ (25304 <_start+0x51dc>)
   25258:	4468      	add	r0, sp
   2525a:	f001 ff81 	bl	27160 <_ZN9allow_pin12full_dynamic17unshare_if_shared17hc38d0bd70fd52db9E>
   2525e:	980e      	ldr	r0, [sp, #56]	@ 0x38
   25260:	2800      	cmp	r0, #0
   25262:	d001      	beq.n	25268 <_start+0x5140>
   25264:	f001 fef7 	bl	27056 <_start+0x6f2e>
   25268:	4d26      	ldr	r5, [pc, #152]	@ (25304 <_start+0x51dc>)
   2526a:	446d      	add	r5, sp
   2526c:	4628      	mov	r0, r5
   2526e:	300c      	adds	r0, #12
   25270:	a9e4      	add	r1, sp, #912	@ 0x390
   25272:	2203      	movs	r2, #3
   25274:	920e      	str	r2, [sp, #56]	@ 0x38
   25276:	f002 f934 	bl	274e2 <__aeabi_memcpy>
   2527a:	a8a3      	add	r0, sp, #652	@ 0x28c
   2527c:	900c      	str	r0, [sp, #48]	@ 0x30
   2527e:	a9ba      	add	r1, sp, #744	@ 0x2e8
   25280:	2422      	movs	r4, #34	@ 0x22
   25282:	4622      	mov	r2, r4
   25284:	f002 f92d 	bl	274e2 <__aeabi_memcpy>
   25288:	4628      	mov	r0, r5
   2528a:	3013      	adds	r0, #19
   2528c:	990c      	ldr	r1, [sp, #48]	@ 0x30
   2528e:	4622      	mov	r2, r4
   25290:	f002 f927 	bl	274e2 <__aeabi_memcpy>
   25294:	9913      	ldr	r1, [sp, #76]	@ 0x4c
   25296:	0e08      	lsrs	r0, r1, #24
   25298:	74a8      	strb	r0, [r5, #18]
   2529a:	0c08      	lsrs	r0, r1, #16
   2529c:	7468      	strb	r0, [r5, #17]
   2529e:	0a08      	lsrs	r0, r1, #8
   252a0:	7428      	strb	r0, [r5, #16]
   252a2:	73e9      	strb	r1, [r5, #15]
   252a4:	9812      	ldr	r0, [sp, #72]	@ 0x48
   252a6:	7228      	strb	r0, [r5, #8]
   252a8:	4c18      	ldr	r4, [pc, #96]	@ (2530c <_start+0x51e4>)
   252aa:	446c      	add	r4, sp
   252ac:	4620      	mov	r0, r4
   252ae:	300c      	adds	r0, #12
   252b0:	211a      	movs	r1, #26
   252b2:	900c      	str	r0, [sp, #48]	@ 0x30
   252b4:	f001 ff68 	bl	27188 <__aeabi_memclr4>
   252b8:	9812      	ldr	r0, [sp, #72]	@ 0x48
   252ba:	7220      	strb	r0, [r4, #8]
   252bc:	9803      	ldr	r0, [sp, #12]
   252be:	9000      	str	r0, [sp, #0]
   252c0:	4b17      	ldr	r3, [pc, #92]	@ (25320 <_start+0x51f8>)
   252c2:	3342      	adds	r3, #66	@ 0x42
   252c4:	2129      	movs	r1, #41	@ 0x29
   252c6:	2204      	movs	r2, #4
   252c8:	4628      	mov	r0, r5
   252ca:	461c      	mov	r4, r3
   252cc:	f7fa ff0a 	bl	200e4 <_ZN9allow_pin12full_dynamic15Buffer$LT$B$GT$5allow17h6d4ce413c213cdffE>
   252d0:	9113      	str	r1, [sp, #76]	@ 0x4c
   252d2:	07c0      	lsls	r0, r0, #31
   252d4:	d113      	bne.n	252fe <_start+0x51d6>
   252d6:	9a0e      	ldr	r2, [sp, #56]	@ 0x38
   252d8:	9200      	str	r2, [sp, #0]
   252da:	480c      	ldr	r0, [pc, #48]	@ (2530c <_start+0x51e4>)
   252dc:	4468      	add	r0, sp
   252de:	211a      	movs	r1, #26
   252e0:	4623      	mov	r3, r4
   252e2:	f7fa feff 	bl	200e4 <_ZN9allow_pin12full_dynamic15Buffer$LT$B$GT$5allow17h6d4ce413c213cdffE>
   252e6:	9113      	str	r1, [sp, #76]	@ 0x4c
   252e8:	07c0      	lsls	r0, r0, #31
   252ea:	d108      	bne.n	252fe <_start+0x51d6>
   252ec:	480d      	ldr	r0, [pc, #52]	@ (25324 <_start+0x51fc>)
   252ee:	2105      	movs	r1, #5
   252f0:	2203      	movs	r2, #3
   252f2:	2300      	movs	r3, #0
   252f4:	930e      	str	r3, [sp, #56]	@ 0x38
   252f6:	df02      	svc	2
   252f8:	9113      	str	r1, [sp, #76]	@ 0x4c
   252fa:	287f      	cmp	r0, #127	@ 0x7f
   252fc:	d814      	bhi.n	25328 <_start+0x5200>
   252fe:	9811      	ldr	r0, [sp, #68]	@ 0x44
   25300:	900e      	str	r0, [sp, #56]	@ 0x38
   25302:	e03b      	b.n	2537c <_start+0x5254>
   25304:	000005cc 	.word	0x000005cc
   25308:	00027161 	.word	0x00027161
   2530c:	00000568 	.word	0x00000568
   25310:	0000178a 	.word	0x0000178a
   25314:	0000180e 	.word	0x0000180e
   25318:	00002645 	.word	0x00002645
   2531c:	000026a4 	.word	0x000026a4
   25320:	00002006 	.word	0x00002006
   25324:	00002048 	.word	0x00002048
   25328:	48c6      	ldr	r0, [pc, #792]	@ (25644 <_start+0x551c>)
   2532a:	4468      	add	r0, sp
   2532c:	4cc6      	ldr	r4, [pc, #792]	@ (25648 <_start+0x5520>)
   2532e:	47a0      	blx	r4
   25330:	4dc6      	ldr	r5, [pc, #792]	@ (2564c <_start+0x5524>)
   25332:	446d      	add	r5, sp
   25334:	4628      	mov	r0, r5
   25336:	47a0      	blx	r4
   25338:	4628      	mov	r0, r5
   2533a:	47a0      	blx	r4
   2533c:	9a0c      	ldr	r2, [sp, #48]	@ 0x30
   2533e:	7890      	ldrb	r0, [r2, #2]
   25340:	a9e4      	add	r1, sp, #912	@ 0x390
   25342:	7088      	strb	r0, [r1, #2]
   25344:	7810      	ldrb	r0, [r2, #0]
   25346:	7852      	ldrb	r2, [r2, #1]
   25348:	0212      	lsls	r2, r2, #8
   2534a:	1810      	adds	r0, r2, r0
   2534c:	8008      	strh	r0, [r1, #0]
   2534e:	7ca8      	ldrb	r0, [r5, #18]
   25350:	9013      	str	r0, [sp, #76]	@ 0x4c
   25352:	7c68      	ldrb	r0, [r5, #17]
   25354:	900c      	str	r0, [sp, #48]	@ 0x30
   25356:	7be8      	ldrb	r0, [r5, #15]
   25358:	900b      	str	r0, [sp, #44]	@ 0x2c
   2535a:	7c2c      	ldrb	r4, [r5, #16]
   2535c:	3513      	adds	r5, #19
   2535e:	a8ba      	add	r0, sp, #744	@ 0x2e8
   25360:	2213      	movs	r2, #19
   25362:	4629      	mov	r1, r5
   25364:	f002 f8bd 	bl	274e2 <__aeabi_memcpy>
   25368:	0220      	lsls	r0, r4, #8
   2536a:	990b      	ldr	r1, [sp, #44]	@ 0x2c
   2536c:	1840      	adds	r0, r0, r1
   2536e:	990c      	ldr	r1, [sp, #48]	@ 0x30
   25370:	0409      	lsls	r1, r1, #16
   25372:	9a13      	ldr	r2, [sp, #76]	@ 0x4c
   25374:	0612      	lsls	r2, r2, #24
   25376:	1851      	adds	r1, r2, r1
   25378:	1808      	adds	r0, r1, r0
   2537a:	9013      	str	r0, [sp, #76]	@ 0x4c
   2537c:	48b3      	ldr	r0, [pc, #716]	@ (2564c <_start+0x5524>)
   2537e:	4468      	add	r0, sp
   25380:	f001 feee 	bl	27160 <_ZN9allow_pin12full_dynamic17unshare_if_shared17hc38d0bd70fd52db9E>
   25384:	48af      	ldr	r0, [pc, #700]	@ (25644 <_start+0x551c>)
   25386:	4468      	add	r0, sp
   25388:	f001 feea 	bl	27160 <_ZN9allow_pin12full_dynamic17unshare_if_shared17hc38d0bd70fd52db9E>
   2538c:	980e      	ldr	r0, [sp, #56]	@ 0x38
   2538e:	2800      	cmp	r0, #0
   25390:	d001      	beq.n	25396 <_start+0x526e>
   25392:	f001 fe60 	bl	27056 <_start+0x6f2e>
   25396:	48ad      	ldr	r0, [pc, #692]	@ (2564c <_start+0x5524>)
   25398:	4468      	add	r0, sp
   2539a:	900e      	str	r0, [sp, #56]	@ 0x38
   2539c:	300c      	adds	r0, #12
   2539e:	a9e4      	add	r1, sp, #912	@ 0x390
   253a0:	2203      	movs	r2, #3
   253a2:	f002 f89e 	bl	274e2 <__aeabi_memcpy>
   253a6:	a9ba      	add	r1, sp, #744	@ 0x2e8
   253a8:	aaa3      	add	r2, sp, #652	@ 0x28c
   253aa:	920c      	str	r2, [sp, #48]	@ 0x30
   253ac:	c939      	ldmia	r1!, {r0, r3, r4, r5}
   253ae:	c239      	stmia	r2!, {r0, r3, r4, r5}
   253b0:	8808      	ldrh	r0, [r1, #0]
   253b2:	8010      	strh	r0, [r2, #0]
   253b4:	7888      	ldrb	r0, [r1, #2]
   253b6:	7090      	strb	r0, [r2, #2]
   253b8:	9c0e      	ldr	r4, [sp, #56]	@ 0x38
   253ba:	4620      	mov	r0, r4
   253bc:	3013      	adds	r0, #19
   253be:	2213      	movs	r2, #19
   253c0:	990c      	ldr	r1, [sp, #48]	@ 0x30
   253c2:	f002 f88e 	bl	274e2 <__aeabi_memcpy>
   253c6:	9913      	ldr	r1, [sp, #76]	@ 0x4c
   253c8:	0e08      	lsrs	r0, r1, #24
   253ca:	74a0      	strb	r0, [r4, #18]
   253cc:	0c08      	lsrs	r0, r1, #16
   253ce:	7460      	strb	r0, [r4, #17]
   253d0:	0a08      	lsrs	r0, r1, #8
   253d2:	7420      	strb	r0, [r4, #16]
   253d4:	73e1      	strb	r1, [r4, #15]
   253d6:	9d12      	ldr	r5, [sp, #72]	@ 0x48
   253d8:	7225      	strb	r5, [r4, #8]
   253da:	4c9a      	ldr	r4, [pc, #616]	@ (25644 <_start+0x551c>)
   253dc:	446c      	add	r4, sp
   253de:	4620      	mov	r0, r4
   253e0:	300c      	adds	r0, #12
   253e2:	211b      	movs	r1, #27
   253e4:	900c      	str	r0, [sp, #48]	@ 0x30
   253e6:	f001 fecf 	bl	27188 <__aeabi_memclr4>
   253ea:	7225      	strb	r5, [r4, #8]
   253ec:	9803      	ldr	r0, [sp, #12]
   253ee:	9000      	str	r0, [sp, #0]
   253f0:	4c97      	ldr	r4, [pc, #604]	@ (25650 <_start+0x5528>)
   253f2:	34f8      	adds	r4, #248	@ 0xf8
   253f4:	211a      	movs	r1, #26
   253f6:	2204      	movs	r2, #4
   253f8:	980e      	ldr	r0, [sp, #56]	@ 0x38
   253fa:	4623      	mov	r3, r4
   253fc:	f7fa fe72 	bl	200e4 <_ZN9allow_pin12full_dynamic15Buffer$LT$B$GT$5allow17h6d4ce413c213cdffE>
   25400:	9113      	str	r1, [sp, #76]	@ 0x4c
   25402:	07c0      	lsls	r0, r0, #31
   25404:	d114      	bne.n	25430 <_start+0x5308>
   25406:	9812      	ldr	r0, [sp, #72]	@ 0x48
   25408:	9000      	str	r0, [sp, #0]
   2540a:	488e      	ldr	r0, [pc, #568]	@ (25644 <_start+0x551c>)
   2540c:	4468      	add	r0, sp
   2540e:	211b      	movs	r1, #27
   25410:	2203      	movs	r2, #3
   25412:	4623      	mov	r3, r4
   25414:	f7fa fe66 	bl	200e4 <_ZN9allow_pin12full_dynamic15Buffer$LT$B$GT$5allow17h6d4ce413c213cdffE>
   25418:	9113      	str	r1, [sp, #76]	@ 0x4c
   2541a:	07c0      	lsls	r0, r0, #31
   2541c:	d108      	bne.n	25430 <_start+0x5308>
   2541e:	488d      	ldr	r0, [pc, #564]	@ (25654 <_start+0x552c>)
   25420:	2105      	movs	r1, #5
   25422:	2202      	movs	r2, #2
   25424:	2300      	movs	r3, #0
   25426:	930e      	str	r3, [sp, #56]	@ 0x38
   25428:	df02      	svc	2
   2542a:	9113      	str	r1, [sp, #76]	@ 0x4c
   2542c:	287f      	cmp	r0, #127	@ 0x7f
   2542e:	d802      	bhi.n	25436 <_start+0x530e>
   25430:	9811      	ldr	r0, [sp, #68]	@ 0x44
   25432:	900e      	str	r0, [sp, #56]	@ 0x38
   25434:	e029      	b.n	2548a <_start+0x5362>
   25436:	4885      	ldr	r0, [pc, #532]	@ (2564c <_start+0x5524>)
   25438:	4468      	add	r0, sp
   2543a:	4c83      	ldr	r4, [pc, #524]	@ (25648 <_start+0x5520>)
   2543c:	47a0      	blx	r4
   2543e:	4d81      	ldr	r5, [pc, #516]	@ (25644 <_start+0x551c>)
   25440:	446d      	add	r5, sp
   25442:	4628      	mov	r0, r5
   25444:	47a0      	blx	r4
   25446:	4628      	mov	r0, r5
   25448:	47a0      	blx	r4
   2544a:	9a0c      	ldr	r2, [sp, #48]	@ 0x30
   2544c:	7890      	ldrb	r0, [r2, #2]
   2544e:	a9e4      	add	r1, sp, #912	@ 0x390
   25450:	7088      	strb	r0, [r1, #2]
   25452:	7810      	ldrb	r0, [r2, #0]
   25454:	7852      	ldrb	r2, [r2, #1]
   25456:	0212      	lsls	r2, r2, #8
   25458:	1810      	adds	r0, r2, r0
   2545a:	8008      	strh	r0, [r1, #0]
   2545c:	7ca8      	ldrb	r0, [r5, #18]
   2545e:	9013      	str	r0, [sp, #76]	@ 0x4c
   25460:	7c68      	ldrb	r0, [r5, #17]
   25462:	900c      	str	r0, [sp, #48]	@ 0x30
   25464:	7be8      	ldrb	r0, [r5, #15]
   25466:	900b      	str	r0, [sp, #44]	@ 0x2c
   25468:	7c2c      	ldrb	r4, [r5, #16]
   2546a:	3513      	adds	r5, #19
   2546c:	a8a3      	add	r0, sp, #652	@ 0x28c
   2546e:	2214      	movs	r2, #20
   25470:	4629      	mov	r1, r5
   25472:	f002 f836 	bl	274e2 <__aeabi_memcpy>
   25476:	0220      	lsls	r0, r4, #8
   25478:	990b      	ldr	r1, [sp, #44]	@ 0x2c
   2547a:	1840      	adds	r0, r0, r1
   2547c:	990c      	ldr	r1, [sp, #48]	@ 0x30
   2547e:	0409      	lsls	r1, r1, #16
   25480:	9a13      	ldr	r2, [sp, #76]	@ 0x4c
   25482:	0612      	lsls	r2, r2, #24
   25484:	1851      	adds	r1, r2, r1
   25486:	1808      	adds	r0, r1, r0
   25488:	9013      	str	r0, [sp, #76]	@ 0x4c
   2548a:	486e      	ldr	r0, [pc, #440]	@ (25644 <_start+0x551c>)
   2548c:	4468      	add	r0, sp
   2548e:	f001 fe67 	bl	27160 <_ZN9allow_pin12full_dynamic17unshare_if_shared17hc38d0bd70fd52db9E>
   25492:	486e      	ldr	r0, [pc, #440]	@ (2564c <_start+0x5524>)
   25494:	4468      	add	r0, sp
   25496:	f001 fe63 	bl	27160 <_ZN9allow_pin12full_dynamic17unshare_if_shared17hc38d0bd70fd52db9E>
   2549a:	980e      	ldr	r0, [sp, #56]	@ 0x38
   2549c:	2800      	cmp	r0, #0
   2549e:	d001      	beq.n	254a4 <_start+0x537c>
   254a0:	f001 fdd9 	bl	27056 <_start+0x6f2e>
   254a4:	adba      	add	r5, sp, #744	@ 0x2e8
   254a6:	4628      	mov	r0, r5
   254a8:	300c      	adds	r0, #12
   254aa:	a9e4      	add	r1, sp, #912	@ 0x390
   254ac:	2203      	movs	r2, #3
   254ae:	f002 f818 	bl	274e2 <__aeabi_memcpy>
   254b2:	a8f1      	add	r0, sp, #964	@ 0x3c4
   254b4:	900e      	str	r0, [sp, #56]	@ 0x38
   254b6:	a9a3      	add	r1, sp, #652	@ 0x28c
   254b8:	2414      	movs	r4, #20
   254ba:	4622      	mov	r2, r4
   254bc:	f002 f811 	bl	274e2 <__aeabi_memcpy>
   254c0:	9913      	ldr	r1, [sp, #76]	@ 0x4c
   254c2:	0e08      	lsrs	r0, r1, #24
   254c4:	74a8      	strb	r0, [r5, #18]
   254c6:	0c08      	lsrs	r0, r1, #16
   254c8:	7468      	strb	r0, [r5, #17]
   254ca:	0a08      	lsrs	r0, r1, #8
   254cc:	7428      	strb	r0, [r5, #16]
   254ce:	73e9      	strb	r1, [r5, #15]
   254d0:	9812      	ldr	r0, [sp, #72]	@ 0x48
   254d2:	7228      	strb	r0, [r5, #8]
   254d4:	4628      	mov	r0, r5
   254d6:	3013      	adds	r0, #19
   254d8:	990e      	ldr	r1, [sp, #56]	@ 0x38
   254da:	4622      	mov	r2, r4
   254dc:	f002 f801 	bl	274e2 <__aeabi_memcpy>
   254e0:	4c58      	ldr	r4, [pc, #352]	@ (25644 <_start+0x551c>)
   254e2:	446c      	add	r4, sp
   254e4:	4620      	mov	r0, r4
   254e6:	300c      	adds	r0, #12
   254e8:	2141      	movs	r1, #65	@ 0x41
   254ea:	900c      	str	r0, [sp, #48]	@ 0x30
   254ec:	f001 fe4c 	bl	27188 <__aeabi_memclr4>
   254f0:	9812      	ldr	r0, [sp, #72]	@ 0x48
   254f2:	7220      	strb	r0, [r4, #8]
   254f4:	9810      	ldr	r0, [sp, #64]	@ 0x40
   254f6:	9000      	str	r0, [sp, #0]
   254f8:	9c05      	ldr	r4, [sp, #20]
   254fa:	3412      	adds	r4, #18
   254fc:	211b      	movs	r1, #27
   254fe:	2204      	movs	r2, #4
   25500:	4628      	mov	r0, r5
   25502:	4623      	mov	r3, r4
   25504:	f7fa fdee 	bl	200e4 <_ZN9allow_pin12full_dynamic15Buffer$LT$B$GT$5allow17h6d4ce413c213cdffE>
   25508:	9113      	str	r1, [sp, #76]	@ 0x4c
   2550a:	07c0      	lsls	r0, r0, #31
   2550c:	d115      	bne.n	2553a <_start+0x5412>
   2550e:	980d      	ldr	r0, [sp, #52]	@ 0x34
   25510:	9000      	str	r0, [sp, #0]
   25512:	484c      	ldr	r0, [pc, #304]	@ (25644 <_start+0x551c>)
   25514:	4468      	add	r0, sp
   25516:	2141      	movs	r1, #65	@ 0x41
   25518:	2203      	movs	r2, #3
   2551a:	4623      	mov	r3, r4
   2551c:	f7fa fde2 	bl	200e4 <_ZN9allow_pin12full_dynamic15Buffer$LT$B$GT$5allow17h6d4ce413c213cdffE>
   25520:	9113      	str	r1, [sp, #76]	@ 0x4c
   25522:	07c0      	lsls	r0, r0, #31
   25524:	d109      	bne.n	2553a <_start+0x5412>
   25526:	9803      	ldr	r0, [sp, #12]
   25528:	0180      	lsls	r0, r0, #6
   2552a:	2108      	movs	r1, #8
   2552c:	2209      	movs	r2, #9
   2552e:	2300      	movs	r3, #0
   25530:	930e      	str	r3, [sp, #56]	@ 0x38
   25532:	df02      	svc	2
   25534:	9113      	str	r1, [sp, #76]	@ 0x4c
   25536:	287f      	cmp	r0, #127	@ 0x7f
   25538:	d802      	bhi.n	25540 <_start+0x5418>
   2553a:	9811      	ldr	r0, [sp, #68]	@ 0x44
   2553c:	900e      	str	r0, [sp, #56]	@ 0x38
   2553e:	e028      	b.n	25592 <_start+0x546a>
   25540:	a8ba      	add	r0, sp, #744	@ 0x2e8
   25542:	4c41      	ldr	r4, [pc, #260]	@ (25648 <_start+0x5520>)
   25544:	47a0      	blx	r4
   25546:	4d3f      	ldr	r5, [pc, #252]	@ (25644 <_start+0x551c>)
   25548:	446d      	add	r5, sp
   2554a:	4628      	mov	r0, r5
   2554c:	47a0      	blx	r4
   2554e:	4628      	mov	r0, r5
   25550:	47a0      	blx	r4
   25552:	9a0c      	ldr	r2, [sp, #48]	@ 0x30
   25554:	7890      	ldrb	r0, [r2, #2]
   25556:	a9e4      	add	r1, sp, #912	@ 0x390
   25558:	7088      	strb	r0, [r1, #2]
   2555a:	7810      	ldrb	r0, [r2, #0]
   2555c:	7852      	ldrb	r2, [r2, #1]
   2555e:	0212      	lsls	r2, r2, #8
   25560:	1810      	adds	r0, r2, r0
   25562:	8008      	strh	r0, [r1, #0]
   25564:	7ca8      	ldrb	r0, [r5, #18]
   25566:	9013      	str	r0, [sp, #76]	@ 0x4c
   25568:	7c68      	ldrb	r0, [r5, #17]
   2556a:	900c      	str	r0, [sp, #48]	@ 0x30
   2556c:	7be8      	ldrb	r0, [r5, #15]
   2556e:	900b      	str	r0, [sp, #44]	@ 0x2c
   25570:	7c2c      	ldrb	r4, [r5, #16]
   25572:	3513      	adds	r5, #19
   25574:	a8a3      	add	r0, sp, #652	@ 0x28c
   25576:	223a      	movs	r2, #58	@ 0x3a
   25578:	4629      	mov	r1, r5
   2557a:	f001 ffb2 	bl	274e2 <__aeabi_memcpy>
   2557e:	0220      	lsls	r0, r4, #8
   25580:	990b      	ldr	r1, [sp, #44]	@ 0x2c
   25582:	1840      	adds	r0, r0, r1
   25584:	990c      	ldr	r1, [sp, #48]	@ 0x30
   25586:	0409      	lsls	r1, r1, #16
   25588:	9a13      	ldr	r2, [sp, #76]	@ 0x4c
   2558a:	0612      	lsls	r2, r2, #24
   2558c:	1851      	adds	r1, r2, r1
   2558e:	1808      	adds	r0, r1, r0
   25590:	9013      	str	r0, [sp, #76]	@ 0x4c
   25592:	482c      	ldr	r0, [pc, #176]	@ (25644 <_start+0x551c>)
   25594:	4468      	add	r0, sp
   25596:	f001 fde3 	bl	27160 <_ZN9allow_pin12full_dynamic17unshare_if_shared17hc38d0bd70fd52db9E>
   2559a:	a8ba      	add	r0, sp, #744	@ 0x2e8
   2559c:	f001 fde0 	bl	27160 <_ZN9allow_pin12full_dynamic17unshare_if_shared17hc38d0bd70fd52db9E>
   255a0:	980e      	ldr	r0, [sp, #56]	@ 0x38
   255a2:	2800      	cmp	r0, #0
   255a4:	d001      	beq.n	255aa <_start+0x5482>
   255a6:	f001 fd56 	bl	27056 <_start+0x6f2e>
   255aa:	4c26      	ldr	r4, [pc, #152]	@ (25644 <_start+0x551c>)
   255ac:	446c      	add	r4, sp
   255ae:	4620      	mov	r0, r4
   255b0:	300c      	adds	r0, #12
   255b2:	a9e4      	add	r1, sp, #912	@ 0x390
   255b4:	2203      	movs	r2, #3
   255b6:	f001 ff94 	bl	274e2 <__aeabi_memcpy>
   255ba:	4824      	ldr	r0, [pc, #144]	@ (2564c <_start+0x5524>)
   255bc:	4468      	add	r0, sp
   255be:	900e      	str	r0, [sp, #56]	@ 0x38
   255c0:	a9a3      	add	r1, sp, #652	@ 0x28c
   255c2:	253a      	movs	r5, #58	@ 0x3a
   255c4:	462a      	mov	r2, r5
   255c6:	f001 ff8c 	bl	274e2 <__aeabi_memcpy>
   255ca:	4620      	mov	r0, r4
   255cc:	3013      	adds	r0, #19
   255ce:	990e      	ldr	r1, [sp, #56]	@ 0x38
   255d0:	462a      	mov	r2, r5
   255d2:	f001 ff86 	bl	274e2 <__aeabi_memcpy>
   255d6:	9913      	ldr	r1, [sp, #76]	@ 0x4c
   255d8:	0e08      	lsrs	r0, r1, #24
   255da:	74a0      	strb	r0, [r4, #18]
   255dc:	0c08      	lsrs	r0, r1, #16
   255de:	7460      	strb	r0, [r4, #17]
   255e0:	0a08      	lsrs	r0, r1, #8
   255e2:	7420      	strb	r0, [r4, #16]
   255e4:	73e1      	strb	r1, [r4, #15]
   255e6:	9812      	ldr	r0, [sp, #72]	@ 0x48
   255e8:	7220      	strb	r0, [r4, #8]
   255ea:	4d18      	ldr	r5, [pc, #96]	@ (2564c <_start+0x5524>)
   255ec:	446d      	add	r5, sp
   255ee:	4628      	mov	r0, r5
   255f0:	300c      	adds	r0, #12
   255f2:	2118      	movs	r1, #24
   255f4:	900c      	str	r0, [sp, #48]	@ 0x30
   255f6:	f001 fdc7 	bl	27188 <__aeabi_memclr4>
   255fa:	9812      	ldr	r0, [sp, #72]	@ 0x48
   255fc:	7228      	strb	r0, [r5, #8]
   255fe:	9600      	str	r6, [sp, #0]
   25600:	2141      	movs	r1, #65	@ 0x41
   25602:	2204      	movs	r2, #4
   25604:	4620      	mov	r0, r4
   25606:	4b14      	ldr	r3, [pc, #80]	@ (25658 <_start+0x5530>)
   25608:	f7fa fd6c 	bl	200e4 <_ZN9allow_pin12full_dynamic15Buffer$LT$B$GT$5allow17h6d4ce413c213cdffE>
   2560c:	9113      	str	r1, [sp, #76]	@ 0x4c
   2560e:	07c0      	lsls	r0, r0, #31
   25610:	d114      	bne.n	2563c <_start+0x5514>
   25612:	980d      	ldr	r0, [sp, #52]	@ 0x34
   25614:	9000      	str	r0, [sp, #0]
   25616:	480d      	ldr	r0, [pc, #52]	@ (2564c <_start+0x5524>)
   25618:	4468      	add	r0, sp
   2561a:	2118      	movs	r1, #24
   2561c:	2203      	movs	r2, #3
   2561e:	4b0e      	ldr	r3, [pc, #56]	@ (25658 <_start+0x5530>)
   25620:	f7fa fd60 	bl	200e4 <_ZN9allow_pin12full_dynamic15Buffer$LT$B$GT$5allow17h6d4ce413c213cdffE>
   25624:	9113      	str	r1, [sp, #76]	@ 0x4c
   25626:	07c0      	lsls	r0, r0, #31
   25628:	d108      	bne.n	2563c <_start+0x5514>
   2562a:	480b      	ldr	r0, [pc, #44]	@ (25658 <_start+0x5530>)
   2562c:	2101      	movs	r1, #1
   2562e:	2209      	movs	r2, #9
   25630:	2300      	movs	r3, #0
   25632:	930e      	str	r3, [sp, #56]	@ 0x38
   25634:	df02      	svc	2
   25636:	9113      	str	r1, [sp, #76]	@ 0x4c
   25638:	287f      	cmp	r0, #127	@ 0x7f
   2563a:	d80f      	bhi.n	2565c <_start+0x5534>
   2563c:	9811      	ldr	r0, [sp, #68]	@ 0x44
   2563e:	900e      	str	r0, [sp, #56]	@ 0x38
   25640:	e036      	b.n	256b0 <_start+0x5588>
   25642:	46c0      	nop			@ (mov r8, r8)
   25644:	000005cc 	.word	0x000005cc
   25648:	00027161 	.word	0x00027161
   2564c:	00000568 	.word	0x00000568
   25650:	00001bd6 	.word	0x00001bd6
   25654:	00001cce 	.word	0x00001cce
   25658:	00002156 	.word	0x00002156
   2565c:	48c6      	ldr	r0, [pc, #792]	@ (25978 <_start+0x5850>)
   2565e:	4468      	add	r0, sp
   25660:	4dc6      	ldr	r5, [pc, #792]	@ (2597c <_start+0x5854>)
   25662:	47a8      	blx	r5
   25664:	4cc6      	ldr	r4, [pc, #792]	@ (25980 <_start+0x5858>)
   25666:	446c      	add	r4, sp
   25668:	4620      	mov	r0, r4
   2566a:	47a8      	blx	r5
   2566c:	4620      	mov	r0, r4
   2566e:	47a8      	blx	r5
   25670:	9a0c      	ldr	r2, [sp, #48]	@ 0x30
   25672:	7890      	ldrb	r0, [r2, #2]
   25674:	a9e4      	add	r1, sp, #912	@ 0x390
   25676:	7088      	strb	r0, [r1, #2]
   25678:	7810      	ldrb	r0, [r2, #0]
   2567a:	7852      	ldrb	r2, [r2, #1]
   2567c:	0212      	lsls	r2, r2, #8
   2567e:	1810      	adds	r0, r2, r0
   25680:	8008      	strh	r0, [r1, #0]
   25682:	7ca0      	ldrb	r0, [r4, #18]
   25684:	9013      	str	r0, [sp, #76]	@ 0x4c
   25686:	7c60      	ldrb	r0, [r4, #17]
   25688:	900c      	str	r0, [sp, #48]	@ 0x30
   2568a:	7be0      	ldrb	r0, [r4, #15]
   2568c:	900b      	str	r0, [sp, #44]	@ 0x2c
   2568e:	7c25      	ldrb	r5, [r4, #16]
   25690:	3413      	adds	r4, #19
   25692:	a8ba      	add	r0, sp, #744	@ 0x2e8
   25694:	2211      	movs	r2, #17
   25696:	4621      	mov	r1, r4
   25698:	f001 ff23 	bl	274e2 <__aeabi_memcpy>
   2569c:	0228      	lsls	r0, r5, #8
   2569e:	990b      	ldr	r1, [sp, #44]	@ 0x2c
   256a0:	1840      	adds	r0, r0, r1
   256a2:	990c      	ldr	r1, [sp, #48]	@ 0x30
   256a4:	0409      	lsls	r1, r1, #16
   256a6:	9a13      	ldr	r2, [sp, #76]	@ 0x4c
   256a8:	0612      	lsls	r2, r2, #24
   256aa:	1851      	adds	r1, r2, r1
   256ac:	1808      	adds	r0, r1, r0
   256ae:	9013      	str	r0, [sp, #76]	@ 0x4c
   256b0:	48b3      	ldr	r0, [pc, #716]	@ (25980 <_start+0x5858>)
   256b2:	4468      	add	r0, sp
   256b4:	f001 fd54 	bl	27160 <_ZN9allow_pin12full_dynamic17unshare_if_shared17hc38d0bd70fd52db9E>
   256b8:	48af      	ldr	r0, [pc, #700]	@ (25978 <_start+0x5850>)
   256ba:	4468      	add	r0, sp
   256bc:	f001 fd50 	bl	27160 <_ZN9allow_pin12full_dynamic17unshare_if_shared17hc38d0bd70fd52db9E>
   256c0:	980e      	ldr	r0, [sp, #56]	@ 0x38
   256c2:	2800      	cmp	r0, #0
   256c4:	d001      	beq.n	256ca <_start+0x55a2>
   256c6:	f001 fcc6 	bl	27056 <_start+0x6f2e>
   256ca:	48ad      	ldr	r0, [pc, #692]	@ (25980 <_start+0x5858>)
   256cc:	4468      	add	r0, sp
   256ce:	900e      	str	r0, [sp, #56]	@ 0x38
   256d0:	300c      	adds	r0, #12
   256d2:	a9e4      	add	r1, sp, #912	@ 0x390
   256d4:	2203      	movs	r2, #3
   256d6:	f001 ff04 	bl	274e2 <__aeabi_memcpy>
   256da:	a9ba      	add	r1, sp, #744	@ 0x2e8
   256dc:	aaa3      	add	r2, sp, #652	@ 0x28c
   256de:	920c      	str	r2, [sp, #48]	@ 0x30
   256e0:	c939      	ldmia	r1!, {r0, r3, r4, r5}
   256e2:	c239      	stmia	r2!, {r0, r3, r4, r5}
   256e4:	7808      	ldrb	r0, [r1, #0]
   256e6:	7010      	strb	r0, [r2, #0]
   256e8:	9c0e      	ldr	r4, [sp, #56]	@ 0x38
   256ea:	4620      	mov	r0, r4
   256ec:	3013      	adds	r0, #19
   256ee:	2211      	movs	r2, #17
   256f0:	990c      	ldr	r1, [sp, #48]	@ 0x30
   256f2:	f001 fef6 	bl	274e2 <__aeabi_memcpy>
   256f6:	9913      	ldr	r1, [sp, #76]	@ 0x4c
   256f8:	0e08      	lsrs	r0, r1, #24
   256fa:	74a0      	strb	r0, [r4, #18]
   256fc:	0c08      	lsrs	r0, r1, #16
   256fe:	7460      	strb	r0, [r4, #17]
   25700:	0a08      	lsrs	r0, r1, #8
   25702:	7420      	strb	r0, [r4, #16]
   25704:	73e1      	strb	r1, [r4, #15]
   25706:	9d12      	ldr	r5, [sp, #72]	@ 0x48
   25708:	7225      	strb	r5, [r4, #8]
   2570a:	4c9b      	ldr	r4, [pc, #620]	@ (25978 <_start+0x5850>)
   2570c:	446c      	add	r4, sp
   2570e:	4620      	mov	r0, r4
   25710:	300c      	adds	r0, #12
   25712:	211e      	movs	r1, #30
   25714:	900c      	str	r0, [sp, #48]	@ 0x30
   25716:	f001 fd37 	bl	27188 <__aeabi_memclr4>
   2571a:	7225      	strb	r5, [r4, #8]
   2571c:	980d      	ldr	r0, [sp, #52]	@ 0x34
   2571e:	9000      	str	r0, [sp, #0]
   25720:	4c98      	ldr	r4, [pc, #608]	@ (25984 <_start+0x585c>)
   25722:	347d      	adds	r4, #125	@ 0x7d
   25724:	2118      	movs	r1, #24
   25726:	2204      	movs	r2, #4
   25728:	980e      	ldr	r0, [sp, #56]	@ 0x38
   2572a:	4623      	mov	r3, r4
   2572c:	f7fa fcda 	bl	200e4 <_ZN9allow_pin12full_dynamic15Buffer$LT$B$GT$5allow17h6d4ce413c213cdffE>
   25730:	9113      	str	r1, [sp, #76]	@ 0x4c
   25732:	07c0      	lsls	r0, r0, #31
   25734:	d114      	bne.n	25760 <_start+0x5638>
   25736:	9803      	ldr	r0, [sp, #12]
   25738:	9000      	str	r0, [sp, #0]
   2573a:	488f      	ldr	r0, [pc, #572]	@ (25978 <_start+0x5850>)
   2573c:	4468      	add	r0, sp
   2573e:	211e      	movs	r1, #30
   25740:	2203      	movs	r2, #3
   25742:	4623      	mov	r3, r4
   25744:	f7fa fcce 	bl	200e4 <_ZN9allow_pin12full_dynamic15Buffer$LT$B$GT$5allow17h6d4ce413c213cdffE>
   25748:	9113      	str	r1, [sp, #76]	@ 0x4c
   2574a:	07c0      	lsls	r0, r0, #31
   2574c:	d108      	bne.n	25760 <_start+0x5638>
   2574e:	488e      	ldr	r0, [pc, #568]	@ (25988 <_start+0x5860>)
   25750:	2109      	movs	r1, #9
   25752:	2205      	movs	r2, #5
   25754:	2300      	movs	r3, #0
   25756:	930e      	str	r3, [sp, #56]	@ 0x38
   25758:	df02      	svc	2
   2575a:	9113      	str	r1, [sp, #76]	@ 0x4c
   2575c:	287f      	cmp	r0, #127	@ 0x7f
   2575e:	d802      	bhi.n	25766 <_start+0x563e>
   25760:	9811      	ldr	r0, [sp, #68]	@ 0x44
   25762:	900e      	str	r0, [sp, #56]	@ 0x38
   25764:	e02a      	b.n	257bc <_start+0x5694>
   25766:	4886      	ldr	r0, [pc, #536]	@ (25980 <_start+0x5858>)
   25768:	4468      	add	r0, sp
   2576a:	4c84      	ldr	r4, [pc, #528]	@ (2597c <_start+0x5854>)
   2576c:	47a0      	blx	r4
   2576e:	4d82      	ldr	r5, [pc, #520]	@ (25978 <_start+0x5850>)
   25770:	446d      	add	r5, sp
   25772:	4628      	mov	r0, r5
   25774:	47a0      	blx	r4
   25776:	4628      	mov	r0, r5
   25778:	47a0      	blx	r4
   2577a:	9a0c      	ldr	r2, [sp, #48]	@ 0x30
   2577c:	7890      	ldrb	r0, [r2, #2]
   2577e:	a9ff      	add	r1, sp, #1020	@ 0x3fc
   25780:	31f8      	adds	r1, #248	@ 0xf8
   25782:	7088      	strb	r0, [r1, #2]
   25784:	7810      	ldrb	r0, [r2, #0]
   25786:	7852      	ldrb	r2, [r2, #1]
   25788:	0212      	lsls	r2, r2, #8
   2578a:	1810      	adds	r0, r2, r0
   2578c:	8008      	strh	r0, [r1, #0]
   2578e:	7ca8      	ldrb	r0, [r5, #18]
   25790:	9013      	str	r0, [sp, #76]	@ 0x4c
   25792:	7c68      	ldrb	r0, [r5, #17]
   25794:	900c      	str	r0, [sp, #48]	@ 0x30
   25796:	7be8      	ldrb	r0, [r5, #15]
   25798:	900b      	str	r0, [sp, #44]	@ 0x2c
   2579a:	7c2c      	ldrb	r4, [r5, #16]
   2579c:	3513      	adds	r5, #19
   2579e:	a8e4      	add	r0, sp, #912	@ 0x390
   257a0:	2217      	movs	r2, #23
   257a2:	4629      	mov	r1, r5
   257a4:	f001 fe9d 	bl	274e2 <__aeabi_memcpy>
   257a8:	0220      	lsls	r0, r4, #8
   257aa:	990b      	ldr	r1, [sp, #44]	@ 0x2c
   257ac:	1840      	adds	r0, r0, r1
   257ae:	990c      	ldr	r1, [sp, #48]	@ 0x30
   257b0:	0409      	lsls	r1, r1, #16
   257b2:	9a13      	ldr	r2, [sp, #76]	@ 0x4c
   257b4:	0612      	lsls	r2, r2, #24
   257b6:	1851      	adds	r1, r2, r1
   257b8:	1808      	adds	r0, r1, r0
   257ba:	9013      	str	r0, [sp, #76]	@ 0x4c
   257bc:	486e      	ldr	r0, [pc, #440]	@ (25978 <_start+0x5850>)
   257be:	4468      	add	r0, sp
   257c0:	f001 fcce 	bl	27160 <_ZN9allow_pin12full_dynamic17unshare_if_shared17hc38d0bd70fd52db9E>
   257c4:	486e      	ldr	r0, [pc, #440]	@ (25980 <_start+0x5858>)
   257c6:	4468      	add	r0, sp
   257c8:	f001 fcca 	bl	27160 <_ZN9allow_pin12full_dynamic17unshare_if_shared17hc38d0bd70fd52db9E>
   257cc:	980e      	ldr	r0, [sp, #56]	@ 0x38
   257ce:	2800      	cmp	r0, #0
   257d0:	d001      	beq.n	257d6 <_start+0x56ae>
   257d2:	f001 fc40 	bl	27056 <_start+0x6f2e>
   257d6:	acba      	add	r4, sp, #744	@ 0x2e8
   257d8:	4620      	mov	r0, r4
   257da:	300c      	adds	r0, #12
   257dc:	a9ff      	add	r1, sp, #1020	@ 0x3fc
   257de:	31f8      	adds	r1, #248	@ 0xf8
   257e0:	2203      	movs	r2, #3
   257e2:	920e      	str	r2, [sp, #56]	@ 0x38
   257e4:	f001 fe7d 	bl	274e2 <__aeabi_memcpy>
   257e8:	a8a3      	add	r0, sp, #652	@ 0x28c
   257ea:	900c      	str	r0, [sp, #48]	@ 0x30
   257ec:	a9e4      	add	r1, sp, #912	@ 0x390
   257ee:	2517      	movs	r5, #23
   257f0:	462a      	mov	r2, r5
   257f2:	f001 fe76 	bl	274e2 <__aeabi_memcpy>
   257f6:	4620      	mov	r0, r4
   257f8:	3013      	adds	r0, #19
   257fa:	990c      	ldr	r1, [sp, #48]	@ 0x30
   257fc:	462a      	mov	r2, r5
   257fe:	f001 fe70 	bl	274e2 <__aeabi_memcpy>
   25802:	9913      	ldr	r1, [sp, #76]	@ 0x4c
   25804:	0e08      	lsrs	r0, r1, #24
   25806:	74a0      	strb	r0, [r4, #18]
   25808:	0c08      	lsrs	r0, r1, #16
   2580a:	7460      	strb	r0, [r4, #17]
   2580c:	0a08      	lsrs	r0, r1, #8
   2580e:	7420      	strb	r0, [r4, #16]
   25810:	73e1      	strb	r1, [r4, #15]
   25812:	9d12      	ldr	r5, [sp, #72]	@ 0x48
   25814:	7225      	strb	r5, [r4, #8]
   25816:	4858      	ldr	r0, [pc, #352]	@ (25978 <_start+0x5850>)
   25818:	4468      	add	r0, sp
   2581a:	9013      	str	r0, [sp, #76]	@ 0x4c
   2581c:	300c      	adds	r0, #12
   2581e:	213c      	movs	r1, #60	@ 0x3c
   25820:	900c      	str	r0, [sp, #48]	@ 0x30
   25822:	f001 fcb1 	bl	27188 <__aeabi_memclr4>
   25826:	9813      	ldr	r0, [sp, #76]	@ 0x4c
   25828:	7205      	strb	r5, [r0, #8]
   2582a:	9500      	str	r5, [sp, #0]
   2582c:	211e      	movs	r1, #30
   2582e:	2204      	movs	r2, #4
   25830:	4620      	mov	r0, r4
   25832:	4b56      	ldr	r3, [pc, #344]	@ (2598c <_start+0x5864>)
   25834:	f7fa fc56 	bl	200e4 <_ZN9allow_pin12full_dynamic15Buffer$LT$B$GT$5allow17h6d4ce413c213cdffE>
   25838:	9113      	str	r1, [sp, #76]	@ 0x4c
   2583a:	07c0      	lsls	r0, r0, #31
   2583c:	d113      	bne.n	25866 <_start+0x573e>
   2583e:	9a0e      	ldr	r2, [sp, #56]	@ 0x38
   25840:	9200      	str	r2, [sp, #0]
   25842:	484d      	ldr	r0, [pc, #308]	@ (25978 <_start+0x5850>)
   25844:	4468      	add	r0, sp
   25846:	213c      	movs	r1, #60	@ 0x3c
   25848:	4b50      	ldr	r3, [pc, #320]	@ (2598c <_start+0x5864>)
   2584a:	f7fa fc4b 	bl	200e4 <_ZN9allow_pin12full_dynamic15Buffer$LT$B$GT$5allow17h6d4ce413c213cdffE>
   2584e:	9113      	str	r1, [sp, #76]	@ 0x4c
   25850:	07c0      	lsls	r0, r0, #31
   25852:	d108      	bne.n	25866 <_start+0x573e>
   25854:	484d      	ldr	r0, [pc, #308]	@ (2598c <_start+0x5864>)
   25856:	2102      	movs	r1, #2
   25858:	2203      	movs	r2, #3
   2585a:	2300      	movs	r3, #0
   2585c:	930e      	str	r3, [sp, #56]	@ 0x38
   2585e:	df02      	svc	2
   25860:	9113      	str	r1, [sp, #76]	@ 0x4c
   25862:	287f      	cmp	r0, #127	@ 0x7f
   25864:	d802      	bhi.n	2586c <_start+0x5744>
   25866:	9811      	ldr	r0, [sp, #68]	@ 0x44
   25868:	900e      	str	r0, [sp, #56]	@ 0x38
   2586a:	e028      	b.n	258be <_start+0x5796>
   2586c:	a8ba      	add	r0, sp, #744	@ 0x2e8
   2586e:	4d43      	ldr	r5, [pc, #268]	@ (2597c <_start+0x5854>)
   25870:	47a8      	blx	r5
   25872:	4c41      	ldr	r4, [pc, #260]	@ (25978 <_start+0x5850>)
   25874:	446c      	add	r4, sp
   25876:	4620      	mov	r0, r4
   25878:	47a8      	blx	r5
   2587a:	4620      	mov	r0, r4
   2587c:	47a8      	blx	r5
   2587e:	9a0c      	ldr	r2, [sp, #48]	@ 0x30
   25880:	7890      	ldrb	r0, [r2, #2]
   25882:	a9e4      	add	r1, sp, #912	@ 0x390
   25884:	7088      	strb	r0, [r1, #2]
   25886:	7810      	ldrb	r0, [r2, #0]
   25888:	7852      	ldrb	r2, [r2, #1]
   2588a:	0212      	lsls	r2, r2, #8
   2588c:	1810      	adds	r0, r2, r0
   2588e:	8008      	strh	r0, [r1, #0]
   25890:	7ca0      	ldrb	r0, [r4, #18]
   25892:	9013      	str	r0, [sp, #76]	@ 0x4c
   25894:	7c60      	ldrb	r0, [r4, #17]
   25896:	900c      	str	r0, [sp, #48]	@ 0x30
   25898:	7be0      	ldrb	r0, [r4, #15]
   2589a:	900b      	str	r0, [sp, #44]	@ 0x2c
   2589c:	7c25      	ldrb	r5, [r4, #16]
   2589e:	3413      	adds	r4, #19
   258a0:	a8a3      	add	r0, sp, #652	@ 0x28c
   258a2:	2235      	movs	r2, #53	@ 0x35
   258a4:	4621      	mov	r1, r4
   258a6:	f001 fe1c 	bl	274e2 <__aeabi_memcpy>
   258aa:	0228      	lsls	r0, r5, #8
   258ac:	990b      	ldr	r1, [sp, #44]	@ 0x2c
   258ae:	1840      	adds	r0, r0, r1
   258b0:	990c      	ldr	r1, [sp, #48]	@ 0x30
   258b2:	0409      	lsls	r1, r1, #16
   258b4:	9a13      	ldr	r2, [sp, #76]	@ 0x4c
   258b6:	0612      	lsls	r2, r2, #24
   258b8:	1851      	adds	r1, r2, r1
   258ba:	1808      	adds	r0, r1, r0
   258bc:	9013      	str	r0, [sp, #76]	@ 0x4c
   258be:	482e      	ldr	r0, [pc, #184]	@ (25978 <_start+0x5850>)
   258c0:	4468      	add	r0, sp
   258c2:	f001 fc4d 	bl	27160 <_ZN9allow_pin12full_dynamic17unshare_if_shared17hc38d0bd70fd52db9E>
   258c6:	a8ba      	add	r0, sp, #744	@ 0x2e8
   258c8:	f001 fc4a 	bl	27160 <_ZN9allow_pin12full_dynamic17unshare_if_shared17hc38d0bd70fd52db9E>
   258cc:	980e      	ldr	r0, [sp, #56]	@ 0x38
   258ce:	2800      	cmp	r0, #0
   258d0:	d001      	beq.n	258d6 <_start+0x57ae>
   258d2:	f001 fbc0 	bl	27056 <_start+0x6f2e>
   258d6:	4d28      	ldr	r5, [pc, #160]	@ (25978 <_start+0x5850>)
   258d8:	446d      	add	r5, sp
   258da:	4628      	mov	r0, r5
   258dc:	300c      	adds	r0, #12
   258de:	a9e4      	add	r1, sp, #912	@ 0x390
   258e0:	2203      	movs	r2, #3
   258e2:	f001 fdfe 	bl	274e2 <__aeabi_memcpy>
   258e6:	4826      	ldr	r0, [pc, #152]	@ (25980 <_start+0x5858>)
   258e8:	4468      	add	r0, sp
   258ea:	900e      	str	r0, [sp, #56]	@ 0x38
   258ec:	a9a3      	add	r1, sp, #652	@ 0x28c
   258ee:	2435      	movs	r4, #53	@ 0x35
   258f0:	4622      	mov	r2, r4
   258f2:	f001 fdf6 	bl	274e2 <__aeabi_memcpy>
   258f6:	4628      	mov	r0, r5
   258f8:	3013      	adds	r0, #19
   258fa:	990e      	ldr	r1, [sp, #56]	@ 0x38
   258fc:	4622      	mov	r2, r4
   258fe:	f001 fdf0 	bl	274e2 <__aeabi_memcpy>
   25902:	9913      	ldr	r1, [sp, #76]	@ 0x4c
   25904:	0e08      	lsrs	r0, r1, #24
   25906:	74a8      	strb	r0, [r5, #18]
   25908:	0c08      	lsrs	r0, r1, #16
   2590a:	7468      	strb	r0, [r5, #17]
   2590c:	0a08      	lsrs	r0, r1, #8
   2590e:	7428      	strb	r0, [r5, #16]
   25910:	73e9      	strb	r1, [r5, #15]
   25912:	9812      	ldr	r0, [sp, #72]	@ 0x48
   25914:	7228      	strb	r0, [r5, #8]
   25916:	4c1a      	ldr	r4, [pc, #104]	@ (25980 <_start+0x5858>)
   25918:	446c      	add	r4, sp
   2591a:	4620      	mov	r0, r4
   2591c:	300c      	adds	r0, #12
   2591e:	212c      	movs	r1, #44	@ 0x2c
   25920:	900b      	str	r0, [sp, #44]	@ 0x2c
   25922:	f001 fc31 	bl	27188 <__aeabi_memclr4>
   25926:	9812      	ldr	r0, [sp, #72]	@ 0x48
   25928:	7220      	strb	r0, [r4, #8]
   2592a:	9803      	ldr	r0, [sp, #12]
   2592c:	9000      	str	r0, [sp, #0]
   2592e:	4c18      	ldr	r4, [pc, #96]	@ (25990 <_start+0x5868>)
   25930:	3461      	adds	r4, #97	@ 0x61
   25932:	213c      	movs	r1, #60	@ 0x3c
   25934:	2204      	movs	r2, #4
   25936:	4628      	mov	r0, r5
   25938:	920c      	str	r2, [sp, #48]	@ 0x30
   2593a:	4623      	mov	r3, r4
   2593c:	f7fa fbd2 	bl	200e4 <_ZN9allow_pin12full_dynamic15Buffer$LT$B$GT$5allow17h6d4ce413c213cdffE>
   25940:	9113      	str	r1, [sp, #76]	@ 0x4c
   25942:	07c0      	lsls	r0, r0, #31
   25944:	d114      	bne.n	25970 <_start+0x5848>
   25946:	9807      	ldr	r0, [sp, #28]
   25948:	9000      	str	r0, [sp, #0]
   2594a:	480d      	ldr	r0, [pc, #52]	@ (25980 <_start+0x5858>)
   2594c:	4468      	add	r0, sp
   2594e:	212c      	movs	r1, #44	@ 0x2c
   25950:	2203      	movs	r2, #3
   25952:	4623      	mov	r3, r4
   25954:	f7fa fbc6 	bl	200e4 <_ZN9allow_pin12full_dynamic15Buffer$LT$B$GT$5allow17h6d4ce413c213cdffE>
   25958:	9113      	str	r1, [sp, #76]	@ 0x4c
   2595a:	07c0      	lsls	r0, r0, #31
   2595c:	d108      	bne.n	25970 <_start+0x5848>
   2595e:	480d      	ldr	r0, [pc, #52]	@ (25994 <_start+0x586c>)
   25960:	2105      	movs	r1, #5
   25962:	2207      	movs	r2, #7
   25964:	2300      	movs	r3, #0
   25966:	930e      	str	r3, [sp, #56]	@ 0x38
   25968:	df02      	svc	2
   2596a:	9113      	str	r1, [sp, #76]	@ 0x4c
   2596c:	287f      	cmp	r0, #127	@ 0x7f
   2596e:	d813      	bhi.n	25998 <_start+0x5870>
   25970:	9811      	ldr	r0, [sp, #68]	@ 0x44
   25972:	900e      	str	r0, [sp, #56]	@ 0x38
   25974:	e03a      	b.n	259ec <_start+0x58c4>
   25976:	46c0      	nop			@ (mov r8, r8)
   25978:	000005cc 	.word	0x000005cc
   2597c:	00027161 	.word	0x00027161
   25980:	00000568 	.word	0x00000568
   25984:	00000c3e 	.word	0x00000c3e
   25988:	00000cbb 	.word	0x00000cbb
   2598c:	00000b3c 	.word	0x00000b3c
   25990:	00001e4b 	.word	0x00001e4b
   25994:	00001eac 	.word	0x00001eac
   25998:	48c6      	ldr	r0, [pc, #792]	@ (25cb4 <_start+0x5b8c>)
   2599a:	4468      	add	r0, sp
   2599c:	4cc6      	ldr	r4, [pc, #792]	@ (25cb8 <_start+0x5b90>)
   2599e:	47a0      	blx	r4
   259a0:	4dc6      	ldr	r5, [pc, #792]	@ (25cbc <_start+0x5b94>)
   259a2:	446d      	add	r5, sp
   259a4:	4628      	mov	r0, r5
   259a6:	47a0      	blx	r4
   259a8:	4628      	mov	r0, r5
   259aa:	47a0      	blx	r4
   259ac:	9a0b      	ldr	r2, [sp, #44]	@ 0x2c
   259ae:	7890      	ldrb	r0, [r2, #2]
   259b0:	a9e4      	add	r1, sp, #912	@ 0x390
   259b2:	7088      	strb	r0, [r1, #2]
   259b4:	7810      	ldrb	r0, [r2, #0]
   259b6:	7852      	ldrb	r2, [r2, #1]
   259b8:	0212      	lsls	r2, r2, #8
   259ba:	1810      	adds	r0, r2, r0
   259bc:	8008      	strh	r0, [r1, #0]
   259be:	7ca8      	ldrb	r0, [r5, #18]
   259c0:	9013      	str	r0, [sp, #76]	@ 0x4c
   259c2:	7c68      	ldrb	r0, [r5, #17]
   259c4:	900b      	str	r0, [sp, #44]	@ 0x2c
   259c6:	7be8      	ldrb	r0, [r5, #15]
   259c8:	900a      	str	r0, [sp, #40]	@ 0x28
   259ca:	7c2c      	ldrb	r4, [r5, #16]
   259cc:	3513      	adds	r5, #19
   259ce:	a8ba      	add	r0, sp, #744	@ 0x2e8
   259d0:	2225      	movs	r2, #37	@ 0x25
   259d2:	4629      	mov	r1, r5
   259d4:	f001 fd85 	bl	274e2 <__aeabi_memcpy>
   259d8:	0220      	lsls	r0, r4, #8
   259da:	990a      	ldr	r1, [sp, #40]	@ 0x28
   259dc:	1840      	adds	r0, r0, r1
   259de:	990b      	ldr	r1, [sp, #44]	@ 0x2c
   259e0:	0409      	lsls	r1, r1, #16
   259e2:	9a13      	ldr	r2, [sp, #76]	@ 0x4c
   259e4:	0612      	lsls	r2, r2, #24
   259e6:	1851      	adds	r1, r2, r1
   259e8:	1808      	adds	r0, r1, r0
   259ea:	9013      	str	r0, [sp, #76]	@ 0x4c
   259ec:	48b3      	ldr	r0, [pc, #716]	@ (25cbc <_start+0x5b94>)
   259ee:	4468      	add	r0, sp
   259f0:	f001 fbb6 	bl	27160 <_ZN9allow_pin12full_dynamic17unshare_if_shared17hc38d0bd70fd52db9E>
   259f4:	48af      	ldr	r0, [pc, #700]	@ (25cb4 <_start+0x5b8c>)
   259f6:	4468      	add	r0, sp
   259f8:	f001 fbb2 	bl	27160 <_ZN9allow_pin12full_dynamic17unshare_if_shared17hc38d0bd70fd52db9E>
   259fc:	980e      	ldr	r0, [sp, #56]	@ 0x38
   259fe:	2800      	cmp	r0, #0
   25a00:	d001      	beq.n	25a06 <_start+0x58de>
   25a02:	f001 fb28 	bl	27056 <_start+0x6f2e>
   25a06:	4cab      	ldr	r4, [pc, #684]	@ (25cb4 <_start+0x5b8c>)
   25a08:	446c      	add	r4, sp
   25a0a:	4620      	mov	r0, r4
   25a0c:	300c      	adds	r0, #12
   25a0e:	a9e4      	add	r1, sp, #912	@ 0x390
   25a10:	2203      	movs	r2, #3
   25a12:	920e      	str	r2, [sp, #56]	@ 0x38
   25a14:	f001 fd65 	bl	274e2 <__aeabi_memcpy>
   25a18:	a8a3      	add	r0, sp, #652	@ 0x28c
   25a1a:	900b      	str	r0, [sp, #44]	@ 0x2c
   25a1c:	a9ba      	add	r1, sp, #744	@ 0x2e8
   25a1e:	2525      	movs	r5, #37	@ 0x25
   25a20:	462a      	mov	r2, r5
   25a22:	f001 fd5e 	bl	274e2 <__aeabi_memcpy>
   25a26:	4620      	mov	r0, r4
   25a28:	3013      	adds	r0, #19
   25a2a:	990b      	ldr	r1, [sp, #44]	@ 0x2c
   25a2c:	462a      	mov	r2, r5
   25a2e:	f001 fd58 	bl	274e2 <__aeabi_memcpy>
   25a32:	9913      	ldr	r1, [sp, #76]	@ 0x4c
   25a34:	0e08      	lsrs	r0, r1, #24
   25a36:	74a0      	strb	r0, [r4, #18]
   25a38:	0c08      	lsrs	r0, r1, #16
   25a3a:	7460      	strb	r0, [r4, #17]
   25a3c:	0a08      	lsrs	r0, r1, #8
   25a3e:	7420      	strb	r0, [r4, #16]
   25a40:	73e1      	strb	r1, [r4, #15]
   25a42:	9812      	ldr	r0, [sp, #72]	@ 0x48
   25a44:	7220      	strb	r0, [r4, #8]
   25a46:	4d9d      	ldr	r5, [pc, #628]	@ (25cbc <_start+0x5b94>)
   25a48:	446d      	add	r5, sp
   25a4a:	4628      	mov	r0, r5
   25a4c:	300c      	adds	r0, #12
   25a4e:	2127      	movs	r1, #39	@ 0x27
   25a50:	900b      	str	r0, [sp, #44]	@ 0x2c
   25a52:	f001 fb99 	bl	27188 <__aeabi_memclr4>
   25a56:	9812      	ldr	r0, [sp, #72]	@ 0x48
   25a58:	7228      	strb	r0, [r5, #8]
   25a5a:	9a0c      	ldr	r2, [sp, #48]	@ 0x30
   25a5c:	9200      	str	r2, [sp, #0]
   25a5e:	4b98      	ldr	r3, [pc, #608]	@ (25cc0 <_start+0x5b98>)
   25a60:	33d3      	adds	r3, #211	@ 0xd3
   25a62:	212c      	movs	r1, #44	@ 0x2c
   25a64:	4620      	mov	r0, r4
   25a66:	461c      	mov	r4, r3
   25a68:	f7fa fb3c 	bl	200e4 <_ZN9allow_pin12full_dynamic15Buffer$LT$B$GT$5allow17h6d4ce413c213cdffE>
   25a6c:	9113      	str	r1, [sp, #76]	@ 0x4c
   25a6e:	07c0      	lsls	r0, r0, #31
   25a70:	d113      	bne.n	25a9a <_start+0x5972>
   25a72:	9a0e      	ldr	r2, [sp, #56]	@ 0x38
   25a74:	9200      	str	r2, [sp, #0]
   25a76:	4891      	ldr	r0, [pc, #580]	@ (25cbc <_start+0x5b94>)
   25a78:	4468      	add	r0, sp
   25a7a:	2127      	movs	r1, #39	@ 0x27
   25a7c:	4623      	mov	r3, r4
   25a7e:	f7fa fb31 	bl	200e4 <_ZN9allow_pin12full_dynamic15Buffer$LT$B$GT$5allow17h6d4ce413c213cdffE>
   25a82:	9113      	str	r1, [sp, #76]	@ 0x4c
   25a84:	07c0      	lsls	r0, r0, #31
   25a86:	d108      	bne.n	25a9a <_start+0x5972>
   25a88:	488e      	ldr	r0, [pc, #568]	@ (25cc4 <_start+0x5b9c>)
   25a8a:	2104      	movs	r1, #4
   25a8c:	2203      	movs	r2, #3
   25a8e:	2300      	movs	r3, #0
   25a90:	930e      	str	r3, [sp, #56]	@ 0x38
   25a92:	df02      	svc	2
   25a94:	9113      	str	r1, [sp, #76]	@ 0x4c
   25a96:	287f      	cmp	r0, #127	@ 0x7f
   25a98:	d802      	bhi.n	25aa0 <_start+0x5978>
   25a9a:	9811      	ldr	r0, [sp, #68]	@ 0x44
   25a9c:	900e      	str	r0, [sp, #56]	@ 0x38
   25a9e:	e029      	b.n	25af4 <_start+0x59cc>
   25aa0:	4884      	ldr	r0, [pc, #528]	@ (25cb4 <_start+0x5b8c>)
   25aa2:	4468      	add	r0, sp
   25aa4:	4d84      	ldr	r5, [pc, #528]	@ (25cb8 <_start+0x5b90>)
   25aa6:	47a8      	blx	r5
   25aa8:	4c84      	ldr	r4, [pc, #528]	@ (25cbc <_start+0x5b94>)
   25aaa:	446c      	add	r4, sp
   25aac:	4620      	mov	r0, r4
   25aae:	47a8      	blx	r5
   25ab0:	4620      	mov	r0, r4
   25ab2:	47a8      	blx	r5
   25ab4:	9a0b      	ldr	r2, [sp, #44]	@ 0x2c
   25ab6:	7890      	ldrb	r0, [r2, #2]
   25ab8:	a9e4      	add	r1, sp, #912	@ 0x390
   25aba:	7088      	strb	r0, [r1, #2]
   25abc:	7810      	ldrb	r0, [r2, #0]
   25abe:	7852      	ldrb	r2, [r2, #1]
   25ac0:	0212      	lsls	r2, r2, #8
   25ac2:	1810      	adds	r0, r2, r0
   25ac4:	8008      	strh	r0, [r1, #0]
   25ac6:	7ca0      	ldrb	r0, [r4, #18]
   25ac8:	9013      	str	r0, [sp, #76]	@ 0x4c
   25aca:	7c60      	ldrb	r0, [r4, #17]
   25acc:	900c      	str	r0, [sp, #48]	@ 0x30
   25ace:	7be0      	ldrb	r0, [r4, #15]
   25ad0:	900b      	str	r0, [sp, #44]	@ 0x2c
   25ad2:	7c25      	ldrb	r5, [r4, #16]
   25ad4:	3413      	adds	r4, #19
   25ad6:	a8ba      	add	r0, sp, #744	@ 0x2e8
   25ad8:	2220      	movs	r2, #32
   25ada:	4621      	mov	r1, r4
   25adc:	f001 fd01 	bl	274e2 <__aeabi_memcpy>
   25ae0:	0228      	lsls	r0, r5, #8
   25ae2:	990b      	ldr	r1, [sp, #44]	@ 0x2c
   25ae4:	1840      	adds	r0, r0, r1
   25ae6:	990c      	ldr	r1, [sp, #48]	@ 0x30
   25ae8:	0409      	lsls	r1, r1, #16
   25aea:	9a13      	ldr	r2, [sp, #76]	@ 0x4c
   25aec:	0612      	lsls	r2, r2, #24
   25aee:	1851      	adds	r1, r2, r1
   25af0:	1808      	adds	r0, r1, r0
   25af2:	9013      	str	r0, [sp, #76]	@ 0x4c
   25af4:	4871      	ldr	r0, [pc, #452]	@ (25cbc <_start+0x5b94>)
   25af6:	4468      	add	r0, sp
   25af8:	f001 fb32 	bl	27160 <_ZN9allow_pin12full_dynamic17unshare_if_shared17hc38d0bd70fd52db9E>
   25afc:	486d      	ldr	r0, [pc, #436]	@ (25cb4 <_start+0x5b8c>)
   25afe:	4468      	add	r0, sp
   25b00:	f001 fb2e 	bl	27160 <_ZN9allow_pin12full_dynamic17unshare_if_shared17hc38d0bd70fd52db9E>
   25b04:	980e      	ldr	r0, [sp, #56]	@ 0x38
   25b06:	2800      	cmp	r0, #0
   25b08:	d001      	beq.n	25b0e <_start+0x59e6>
   25b0a:	f001 faa4 	bl	27056 <_start+0x6f2e>
   25b0e:	ada3      	add	r5, sp, #652	@ 0x28c
   25b10:	4628      	mov	r0, r5
   25b12:	300c      	adds	r0, #12
   25b14:	a9e4      	add	r1, sp, #912	@ 0x390
   25b16:	2203      	movs	r2, #3
   25b18:	f001 fce3 	bl	274e2 <__aeabi_memcpy>
   25b1c:	a8f6      	add	r0, sp, #984	@ 0x3d8
   25b1e:	900e      	str	r0, [sp, #56]	@ 0x38
   25b20:	a9ba      	add	r1, sp, #744	@ 0x2e8
   25b22:	2420      	movs	r4, #32
   25b24:	4622      	mov	r2, r4
   25b26:	f001 fcdc 	bl	274e2 <__aeabi_memcpy>
   25b2a:	9913      	ldr	r1, [sp, #76]	@ 0x4c
   25b2c:	0e08      	lsrs	r0, r1, #24
   25b2e:	74a8      	strb	r0, [r5, #18]
   25b30:	0c08      	lsrs	r0, r1, #16
   25b32:	7468      	strb	r0, [r5, #17]
   25b34:	0a08      	lsrs	r0, r1, #8
   25b36:	7428      	strb	r0, [r5, #16]
   25b38:	73e9      	strb	r1, [r5, #15]
   25b3a:	9812      	ldr	r0, [sp, #72]	@ 0x48
   25b3c:	7228      	strb	r0, [r5, #8]
   25b3e:	4628      	mov	r0, r5
   25b40:	3013      	adds	r0, #19
   25b42:	990e      	ldr	r1, [sp, #56]	@ 0x38
   25b44:	4622      	mov	r2, r4
   25b46:	f001 fccc 	bl	274e2 <__aeabi_memcpy>
   25b4a:	4c5a      	ldr	r4, [pc, #360]	@ (25cb4 <_start+0x5b8c>)
   25b4c:	446c      	add	r4, sp
   25b4e:	4620      	mov	r0, r4
   25b50:	300c      	adds	r0, #12
   25b52:	214f      	movs	r1, #79	@ 0x4f
   25b54:	900e      	str	r0, [sp, #56]	@ 0x38
   25b56:	f001 fb17 	bl	27188 <__aeabi_memclr4>
   25b5a:	9812      	ldr	r0, [sp, #72]	@ 0x48
   25b5c:	7220      	strb	r0, [r4, #8]
   25b5e:	980d      	ldr	r0, [sp, #52]	@ 0x34
   25b60:	9000      	str	r0, [sp, #0]
   25b62:	4b59      	ldr	r3, [pc, #356]	@ (25cc8 <_start+0x5ba0>)
   25b64:	3310      	adds	r3, #16
   25b66:	2127      	movs	r1, #39	@ 0x27
   25b68:	2204      	movs	r2, #4
   25b6a:	4628      	mov	r0, r5
   25b6c:	461c      	mov	r4, r3
   25b6e:	f7fa fab9 	bl	200e4 <_ZN9allow_pin12full_dynamic15Buffer$LT$B$GT$5allow17h6d4ce413c213cdffE>
   25b72:	9113      	str	r1, [sp, #76]	@ 0x4c
   25b74:	07c0      	lsls	r0, r0, #31
   25b76:	d114      	bne.n	25ba2 <_start+0x5a7a>
   25b78:	9806      	ldr	r0, [sp, #24]
   25b7a:	9000      	str	r0, [sp, #0]
   25b7c:	484d      	ldr	r0, [pc, #308]	@ (25cb4 <_start+0x5b8c>)
   25b7e:	4468      	add	r0, sp
   25b80:	214f      	movs	r1, #79	@ 0x4f
   25b82:	2203      	movs	r2, #3
   25b84:	4623      	mov	r3, r4
   25b86:	f7fa faad 	bl	200e4 <_ZN9allow_pin12full_dynamic15Buffer$LT$B$GT$5allow17h6d4ce413c213cdffE>
   25b8a:	9113      	str	r1, [sp, #76]	@ 0x4c
   25b8c:	07c0      	lsls	r0, r0, #31
   25b8e:	d108      	bne.n	25ba2 <_start+0x5a7a>
   25b90:	484e      	ldr	r0, [pc, #312]	@ (25ccc <_start+0x5ba4>)
   25b92:	2109      	movs	r1, #9
   25b94:	2500      	movs	r5, #0
   25b96:	462a      	mov	r2, r5
   25b98:	462b      	mov	r3, r5
   25b9a:	df02      	svc	2
   25b9c:	9113      	str	r1, [sp, #76]	@ 0x4c
   25b9e:	287f      	cmp	r0, #127	@ 0x7f
   25ba0:	d801      	bhi.n	25ba6 <_start+0x5a7e>
   25ba2:	9d11      	ldr	r5, [sp, #68]	@ 0x44
   25ba4:	e02d      	b.n	25c02 <_start+0x5ada>
   25ba6:	a8a3      	add	r0, sp, #652	@ 0x28c
   25ba8:	4943      	ldr	r1, [pc, #268]	@ (25cb8 <_start+0x5b90>)
   25baa:	4788      	blx	r1
   25bac:	4c41      	ldr	r4, [pc, #260]	@ (25cb4 <_start+0x5b8c>)
   25bae:	446c      	add	r4, sp
   25bb0:	4620      	mov	r0, r4
   25bb2:	4941      	ldr	r1, [pc, #260]	@ (25cb8 <_start+0x5b90>)
   25bb4:	4788      	blx	r1
   25bb6:	4620      	mov	r0, r4
   25bb8:	493f      	ldr	r1, [pc, #252]	@ (25cb8 <_start+0x5b90>)
   25bba:	4788      	blx	r1
   25bbc:	9a0e      	ldr	r2, [sp, #56]	@ 0x38
   25bbe:	7890      	ldrb	r0, [r2, #2]
   25bc0:	a9ba      	add	r1, sp, #744	@ 0x2e8
   25bc2:	7088      	strb	r0, [r1, #2]
   25bc4:	7810      	ldrb	r0, [r2, #0]
   25bc6:	7852      	ldrb	r2, [r2, #1]
   25bc8:	0212      	lsls	r2, r2, #8
   25bca:	1810      	adds	r0, r2, r0
   25bcc:	8008      	strh	r0, [r1, #0]
   25bce:	7ca0      	ldrb	r0, [r4, #18]
   25bd0:	9013      	str	r0, [sp, #76]	@ 0x4c
   25bd2:	7c60      	ldrb	r0, [r4, #17]
   25bd4:	900e      	str	r0, [sp, #56]	@ 0x38
   25bd6:	7be0      	ldrb	r0, [r4, #15]
   25bd8:	900c      	str	r0, [sp, #48]	@ 0x30
   25bda:	7c20      	ldrb	r0, [r4, #16]
   25bdc:	900b      	str	r0, [sp, #44]	@ 0x2c
   25bde:	3413      	adds	r4, #19
   25be0:	4836      	ldr	r0, [pc, #216]	@ (25cbc <_start+0x5b94>)
   25be2:	4468      	add	r0, sp
   25be4:	2248      	movs	r2, #72	@ 0x48
   25be6:	4621      	mov	r1, r4
   25be8:	f001 fc7b 	bl	274e2 <__aeabi_memcpy>
   25bec:	980b      	ldr	r0, [sp, #44]	@ 0x2c
   25bee:	0200      	lsls	r0, r0, #8
   25bf0:	990c      	ldr	r1, [sp, #48]	@ 0x30
   25bf2:	1840      	adds	r0, r0, r1
   25bf4:	990e      	ldr	r1, [sp, #56]	@ 0x38
   25bf6:	0409      	lsls	r1, r1, #16
   25bf8:	9a13      	ldr	r2, [sp, #76]	@ 0x4c
   25bfa:	0612      	lsls	r2, r2, #24
   25bfc:	1851      	adds	r1, r2, r1
   25bfe:	1808      	adds	r0, r1, r0
   25c00:	9013      	str	r0, [sp, #76]	@ 0x4c
   25c02:	482c      	ldr	r0, [pc, #176]	@ (25cb4 <_start+0x5b8c>)
   25c04:	4468      	add	r0, sp
   25c06:	f001 faab 	bl	27160 <_ZN9allow_pin12full_dynamic17unshare_if_shared17hc38d0bd70fd52db9E>
   25c0a:	a8a3      	add	r0, sp, #652	@ 0x28c
   25c0c:	f001 faa8 	bl	27160 <_ZN9allow_pin12full_dynamic17unshare_if_shared17hc38d0bd70fd52db9E>
   25c10:	2d00      	cmp	r5, #0
   25c12:	d001      	beq.n	25c18 <_start+0x5af0>
   25c14:	f001 fa1f 	bl	27056 <_start+0x6f2e>
   25c18:	4d26      	ldr	r5, [pc, #152]	@ (25cb4 <_start+0x5b8c>)
   25c1a:	446d      	add	r5, sp
   25c1c:	4628      	mov	r0, r5
   25c1e:	300c      	adds	r0, #12
   25c20:	a9ba      	add	r1, sp, #744	@ 0x2e8
   25c22:	2203      	movs	r2, #3
   25c24:	f001 fc5d 	bl	274e2 <__aeabi_memcpy>
   25c28:	a8fe      	add	r0, sp, #1016	@ 0x3f8
   25c2a:	900e      	str	r0, [sp, #56]	@ 0x38
   25c2c:	4923      	ldr	r1, [pc, #140]	@ (25cbc <_start+0x5b94>)
   25c2e:	4469      	add	r1, sp
   25c30:	2448      	movs	r4, #72	@ 0x48
   25c32:	4622      	mov	r2, r4
   25c34:	f001 faf5 	bl	27222 <__aeabi_memcpy4>
   25c38:	9913      	ldr	r1, [sp, #76]	@ 0x4c
   25c3a:	0e08      	lsrs	r0, r1, #24
   25c3c:	74a8      	strb	r0, [r5, #18]
   25c3e:	0c08      	lsrs	r0, r1, #16
   25c40:	7468      	strb	r0, [r5, #17]
   25c42:	0a08      	lsrs	r0, r1, #8
   25c44:	7428      	strb	r0, [r5, #16]
   25c46:	73e9      	strb	r1, [r5, #15]
   25c48:	9812      	ldr	r0, [sp, #72]	@ 0x48
   25c4a:	7228      	strb	r0, [r5, #8]
   25c4c:	4628      	mov	r0, r5
   25c4e:	3013      	adds	r0, #19
   25c50:	990e      	ldr	r1, [sp, #56]	@ 0x38
   25c52:	4622      	mov	r2, r4
   25c54:	f001 fc45 	bl	274e2 <__aeabi_memcpy>
   25c58:	4c18      	ldr	r4, [pc, #96]	@ (25cbc <_start+0x5b94>)
   25c5a:	446c      	add	r4, sp
   25c5c:	4620      	mov	r0, r4
   25c5e:	300c      	adds	r0, #12
   25c60:	2135      	movs	r1, #53	@ 0x35
   25c62:	900c      	str	r0, [sp, #48]	@ 0x30
   25c64:	f001 fa90 	bl	27188 <__aeabi_memclr4>
   25c68:	9812      	ldr	r0, [sp, #72]	@ 0x48
   25c6a:	7220      	strb	r0, [r4, #8]
   25c6c:	9807      	ldr	r0, [sp, #28]
   25c6e:	9000      	str	r0, [sp, #0]
   25c70:	4c17      	ldr	r4, [pc, #92]	@ (25cd0 <_start+0x5ba8>)
   25c72:	34e6      	adds	r4, #230	@ 0xe6
   25c74:	214f      	movs	r1, #79	@ 0x4f
   25c76:	2204      	movs	r2, #4
   25c78:	4628      	mov	r0, r5
   25c7a:	4623      	mov	r3, r4
   25c7c:	f7fa fa32 	bl	200e4 <_ZN9allow_pin12full_dynamic15Buffer$LT$B$GT$5allow17h6d4ce413c213cdffE>
   25c80:	9113      	str	r1, [sp, #76]	@ 0x4c
   25c82:	07c0      	lsls	r0, r0, #31
   25c84:	d113      	bne.n	25cae <_start+0x5b86>
   25c86:	9600      	str	r6, [sp, #0]
   25c88:	480c      	ldr	r0, [pc, #48]	@ (25cbc <_start+0x5b94>)
   25c8a:	4468      	add	r0, sp
   25c8c:	2135      	movs	r1, #53	@ 0x35
   25c8e:	2203      	movs	r2, #3
   25c90:	4623      	mov	r3, r4
   25c92:	f7fa fa27 	bl	200e4 <_ZN9allow_pin12full_dynamic15Buffer$LT$B$GT$5allow17h6d4ce413c213cdffE>
   25c96:	9113      	str	r1, [sp, #76]	@ 0x4c
   25c98:	07c0      	lsls	r0, r0, #31
   25c9a:	d108      	bne.n	25cae <_start+0x5b86>
   25c9c:	480d      	ldr	r0, [pc, #52]	@ (25cd4 <_start+0x5bac>)
   25c9e:	2107      	movs	r1, #7
   25ca0:	2201      	movs	r2, #1
   25ca2:	2300      	movs	r3, #0
   25ca4:	930e      	str	r3, [sp, #56]	@ 0x38
   25ca6:	df02      	svc	2
   25ca8:	9113      	str	r1, [sp, #76]	@ 0x4c
   25caa:	287f      	cmp	r0, #127	@ 0x7f
   25cac:	d814      	bhi.n	25cd8 <_start+0x5bb0>
   25cae:	9811      	ldr	r0, [sp, #68]	@ 0x44
   25cb0:	900e      	str	r0, [sp, #56]	@ 0x38
   25cb2:	e03b      	b.n	25d2c <_start+0x5c04>
   25cb4:	000005cc 	.word	0x000005cc
   25cb8:	00027161 	.word	0x00027161
   25cbc:	00000568 	.word	0x00000568
   25cc0:	000010e2 	.word	0x000010e2
   25cc4:	000011b5 	.word	0x000011b5
   25cc8:	00000b3c 	.word	0x00000b3c
   25ccc:	00000b4c 	.word	0x00000b4c
   25cd0:	000015f1 	.word	0x000015f1
   25cd4:	000016d7 	.word	0x000016d7
   25cd8:	48c7      	ldr	r0, [pc, #796]	@ (25ff8 <_start+0x5ed0>)
   25cda:	4468      	add	r0, sp
   25cdc:	4cc7      	ldr	r4, [pc, #796]	@ (25ffc <_start+0x5ed4>)
   25cde:	47a0      	blx	r4
   25ce0:	4dc7      	ldr	r5, [pc, #796]	@ (26000 <_start+0x5ed8>)
   25ce2:	446d      	add	r5, sp
   25ce4:	4628      	mov	r0, r5
   25ce6:	47a0      	blx	r4
   25ce8:	4628      	mov	r0, r5
   25cea:	47a0      	blx	r4
   25cec:	9a0c      	ldr	r2, [sp, #48]	@ 0x30
   25cee:	7890      	ldrb	r0, [r2, #2]
   25cf0:	a9e4      	add	r1, sp, #912	@ 0x390
   25cf2:	7088      	strb	r0, [r1, #2]
   25cf4:	7810      	ldrb	r0, [r2, #0]
   25cf6:	7852      	ldrb	r2, [r2, #1]
   25cf8:	0212      	lsls	r2, r2, #8
   25cfa:	1810      	adds	r0, r2, r0
   25cfc:	8008      	strh	r0, [r1, #0]
   25cfe:	7ca8      	ldrb	r0, [r5, #18]
   25d00:	9013      	str	r0, [sp, #76]	@ 0x4c
   25d02:	7c68      	ldrb	r0, [r5, #17]
   25d04:	900c      	str	r0, [sp, #48]	@ 0x30
   25d06:	7be8      	ldrb	r0, [r5, #15]
   25d08:	900b      	str	r0, [sp, #44]	@ 0x2c
   25d0a:	7c2c      	ldrb	r4, [r5, #16]
   25d0c:	3513      	adds	r5, #19
   25d0e:	a8ba      	add	r0, sp, #744	@ 0x2e8
   25d10:	222e      	movs	r2, #46	@ 0x2e
   25d12:	4629      	mov	r1, r5
   25d14:	f001 fbe5 	bl	274e2 <__aeabi_memcpy>
   25d18:	0220      	lsls	r0, r4, #8
   25d1a:	990b      	ldr	r1, [sp, #44]	@ 0x2c
   25d1c:	1840      	adds	r0, r0, r1
   25d1e:	990c      	ldr	r1, [sp, #48]	@ 0x30
   25d20:	0409      	lsls	r1, r1, #16
   25d22:	9a13      	ldr	r2, [sp, #76]	@ 0x4c
   25d24:	0612      	lsls	r2, r2, #24
   25d26:	1851      	adds	r1, r2, r1
   25d28:	1808      	adds	r0, r1, r0
   25d2a:	9013      	str	r0, [sp, #76]	@ 0x4c
   25d2c:	48b4      	ldr	r0, [pc, #720]	@ (26000 <_start+0x5ed8>)
   25d2e:	4468      	add	r0, sp
   25d30:	f001 fa16 	bl	27160 <_ZN9allow_pin12full_dynamic17unshare_if_shared17hc38d0bd70fd52db9E>
   25d34:	48b0      	ldr	r0, [pc, #704]	@ (25ff8 <_start+0x5ed0>)
   25d36:	4468      	add	r0, sp
   25d38:	f001 fa12 	bl	27160 <_ZN9allow_pin12full_dynamic17unshare_if_shared17hc38d0bd70fd52db9E>
   25d3c:	980e      	ldr	r0, [sp, #56]	@ 0x38
   25d3e:	2800      	cmp	r0, #0
   25d40:	d001      	beq.n	25d46 <_start+0x5c1e>
   25d42:	f001 f988 	bl	27056 <_start+0x6f2e>
   25d46:	4dae      	ldr	r5, [pc, #696]	@ (26000 <_start+0x5ed8>)
   25d48:	446d      	add	r5, sp
   25d4a:	4628      	mov	r0, r5
   25d4c:	300c      	adds	r0, #12
   25d4e:	a9e4      	add	r1, sp, #912	@ 0x390
   25d50:	2203      	movs	r2, #3
   25d52:	920e      	str	r2, [sp, #56]	@ 0x38
   25d54:	f001 fbc5 	bl	274e2 <__aeabi_memcpy>
   25d58:	a8a3      	add	r0, sp, #652	@ 0x28c
   25d5a:	900c      	str	r0, [sp, #48]	@ 0x30
   25d5c:	a9ba      	add	r1, sp, #744	@ 0x2e8
   25d5e:	242e      	movs	r4, #46	@ 0x2e
   25d60:	4622      	mov	r2, r4
   25d62:	f001 fbbe 	bl	274e2 <__aeabi_memcpy>
   25d66:	4628      	mov	r0, r5
   25d68:	3013      	adds	r0, #19
   25d6a:	990c      	ldr	r1, [sp, #48]	@ 0x30
   25d6c:	4622      	mov	r2, r4
   25d6e:	f001 fbb8 	bl	274e2 <__aeabi_memcpy>
   25d72:	9913      	ldr	r1, [sp, #76]	@ 0x4c
   25d74:	0e08      	lsrs	r0, r1, #24
   25d76:	74a8      	strb	r0, [r5, #18]
   25d78:	0c08      	lsrs	r0, r1, #16
   25d7a:	7468      	strb	r0, [r5, #17]
   25d7c:	0a08      	lsrs	r0, r1, #8
   25d7e:	7428      	strb	r0, [r5, #16]
   25d80:	73e9      	strb	r1, [r5, #15]
   25d82:	9812      	ldr	r0, [sp, #72]	@ 0x48
   25d84:	7228      	strb	r0, [r5, #8]
   25d86:	4c9c      	ldr	r4, [pc, #624]	@ (25ff8 <_start+0x5ed0>)
   25d88:	446c      	add	r4, sp
   25d8a:	4620      	mov	r0, r4
   25d8c:	300c      	adds	r0, #12
   25d8e:	213f      	movs	r1, #63	@ 0x3f
   25d90:	900b      	str	r0, [sp, #44]	@ 0x2c
   25d92:	f001 f9f9 	bl	27188 <__aeabi_memclr4>
   25d96:	9812      	ldr	r0, [sp, #72]	@ 0x48
   25d98:	7220      	strb	r0, [r4, #8]
   25d9a:	9806      	ldr	r0, [sp, #24]
   25d9c:	9000      	str	r0, [sp, #0]
   25d9e:	4b99      	ldr	r3, [pc, #612]	@ (26004 <_start+0x5edc>)
   25da0:	33fa      	adds	r3, #250	@ 0xfa
   25da2:	2135      	movs	r1, #53	@ 0x35
   25da4:	2204      	movs	r2, #4
   25da6:	4628      	mov	r0, r5
   25da8:	920c      	str	r2, [sp, #48]	@ 0x30
   25daa:	461c      	mov	r4, r3
   25dac:	f7fa f99a 	bl	200e4 <_ZN9allow_pin12full_dynamic15Buffer$LT$B$GT$5allow17h6d4ce413c213cdffE>
   25db0:	9113      	str	r1, [sp, #76]	@ 0x4c
   25db2:	07c0      	lsls	r0, r0, #31
   25db4:	d113      	bne.n	25dde <_start+0x5cb6>
   25db6:	9a0e      	ldr	r2, [sp, #56]	@ 0x38
   25db8:	9200      	str	r2, [sp, #0]
   25dba:	488f      	ldr	r0, [pc, #572]	@ (25ff8 <_start+0x5ed0>)
   25dbc:	4468      	add	r0, sp
   25dbe:	213f      	movs	r1, #63	@ 0x3f
   25dc0:	4623      	mov	r3, r4
   25dc2:	f7fa f98f 	bl	200e4 <_ZN9allow_pin12full_dynamic15Buffer$LT$B$GT$5allow17h6d4ce413c213cdffE>
   25dc6:	9113      	str	r1, [sp, #76]	@ 0x4c
   25dc8:	07c0      	lsls	r0, r0, #31
   25dca:	d108      	bne.n	25dde <_start+0x5cb6>
   25dcc:	488e      	ldr	r0, [pc, #568]	@ (26008 <_start+0x5ee0>)
   25dce:	2203      	movs	r2, #3
   25dd0:	2100      	movs	r1, #0
   25dd2:	910e      	str	r1, [sp, #56]	@ 0x38
   25dd4:	460b      	mov	r3, r1
   25dd6:	df02      	svc	2
   25dd8:	9113      	str	r1, [sp, #76]	@ 0x4c
   25dda:	287f      	cmp	r0, #127	@ 0x7f
   25ddc:	d802      	bhi.n	25de4 <_start+0x5cbc>
   25dde:	9811      	ldr	r0, [sp, #68]	@ 0x44
   25de0:	900e      	str	r0, [sp, #56]	@ 0x38
   25de2:	e029      	b.n	25e38 <_start+0x5d10>
   25de4:	4886      	ldr	r0, [pc, #536]	@ (26000 <_start+0x5ed8>)
   25de6:	4468      	add	r0, sp
   25de8:	4c84      	ldr	r4, [pc, #528]	@ (25ffc <_start+0x5ed4>)
   25dea:	47a0      	blx	r4
   25dec:	4d82      	ldr	r5, [pc, #520]	@ (25ff8 <_start+0x5ed0>)
   25dee:	446d      	add	r5, sp
   25df0:	4628      	mov	r0, r5
   25df2:	47a0      	blx	r4
   25df4:	4628      	mov	r0, r5
   25df6:	47a0      	blx	r4
   25df8:	9a0b      	ldr	r2, [sp, #44]	@ 0x2c
   25dfa:	7890      	ldrb	r0, [r2, #2]
   25dfc:	a9ba      	add	r1, sp, #744	@ 0x2e8
   25dfe:	7088      	strb	r0, [r1, #2]
   25e00:	7810      	ldrb	r0, [r2, #0]
   25e02:	7852      	ldrb	r2, [r2, #1]
   25e04:	0212      	lsls	r2, r2, #8
   25e06:	1810      	adds	r0, r2, r0
   25e08:	8008      	strh	r0, [r1, #0]
   25e0a:	7ca8      	ldrb	r0, [r5, #18]
   25e0c:	9013      	str	r0, [sp, #76]	@ 0x4c
   25e0e:	7c68      	ldrb	r0, [r5, #17]
   25e10:	900b      	str	r0, [sp, #44]	@ 0x2c
   25e12:	7be8      	ldrb	r0, [r5, #15]
   25e14:	900a      	str	r0, [sp, #40]	@ 0x28
   25e16:	7c2c      	ldrb	r4, [r5, #16]
   25e18:	3513      	adds	r5, #19
   25e1a:	a8a3      	add	r0, sp, #652	@ 0x28c
   25e1c:	2238      	movs	r2, #56	@ 0x38
   25e1e:	4629      	mov	r1, r5
   25e20:	f001 fb5f 	bl	274e2 <__aeabi_memcpy>
   25e24:	0220      	lsls	r0, r4, #8
   25e26:	990a      	ldr	r1, [sp, #40]	@ 0x28
   25e28:	1840      	adds	r0, r0, r1
   25e2a:	990b      	ldr	r1, [sp, #44]	@ 0x2c
   25e2c:	0409      	lsls	r1, r1, #16
   25e2e:	9a13      	ldr	r2, [sp, #76]	@ 0x4c
   25e30:	0612      	lsls	r2, r2, #24
   25e32:	1851      	adds	r1, r2, r1
   25e34:	1808      	adds	r0, r1, r0
   25e36:	9013      	str	r0, [sp, #76]	@ 0x4c
   25e38:	486f      	ldr	r0, [pc, #444]	@ (25ff8 <_start+0x5ed0>)
   25e3a:	4468      	add	r0, sp
   25e3c:	f001 f990 	bl	27160 <_ZN9allow_pin12full_dynamic17unshare_if_shared17hc38d0bd70fd52db9E>
   25e40:	486f      	ldr	r0, [pc, #444]	@ (26000 <_start+0x5ed8>)
   25e42:	4468      	add	r0, sp
   25e44:	f001 f98c 	bl	27160 <_ZN9allow_pin12full_dynamic17unshare_if_shared17hc38d0bd70fd52db9E>
   25e48:	980e      	ldr	r0, [sp, #56]	@ 0x38
   25e4a:	2800      	cmp	r0, #0
   25e4c:	d001      	beq.n	25e52 <_start+0x5d2a>
   25e4e:	f001 f902 	bl	27056 <_start+0x6f2e>
   25e52:	4c69      	ldr	r4, [pc, #420]	@ (25ff8 <_start+0x5ed0>)
   25e54:	446c      	add	r4, sp
   25e56:	4620      	mov	r0, r4
   25e58:	300c      	adds	r0, #12
   25e5a:	a9ba      	add	r1, sp, #744	@ 0x2e8
   25e5c:	2203      	movs	r2, #3
   25e5e:	920e      	str	r2, [sp, #56]	@ 0x38
   25e60:	f001 fb3f 	bl	274e2 <__aeabi_memcpy>
   25e64:	a8ff      	add	r0, sp, #1020	@ 0x3fc
   25e66:	3044      	adds	r0, #68	@ 0x44
   25e68:	900b      	str	r0, [sp, #44]	@ 0x2c
   25e6a:	a9a3      	add	r1, sp, #652	@ 0x28c
   25e6c:	2538      	movs	r5, #56	@ 0x38
   25e6e:	462a      	mov	r2, r5
   25e70:	f001 fb37 	bl	274e2 <__aeabi_memcpy>
   25e74:	9913      	ldr	r1, [sp, #76]	@ 0x4c
   25e76:	0e08      	lsrs	r0, r1, #24
   25e78:	74a0      	strb	r0, [r4, #18]
   25e7a:	0c08      	lsrs	r0, r1, #16
   25e7c:	7460      	strb	r0, [r4, #17]
   25e7e:	0a08      	lsrs	r0, r1, #8
   25e80:	7420      	strb	r0, [r4, #16]
   25e82:	73e1      	strb	r1, [r4, #15]
   25e84:	9812      	ldr	r0, [sp, #72]	@ 0x48
   25e86:	7220      	strb	r0, [r4, #8]
   25e88:	4620      	mov	r0, r4
   25e8a:	3013      	adds	r0, #19
   25e8c:	990b      	ldr	r1, [sp, #44]	@ 0x2c
   25e8e:	462a      	mov	r2, r5
   25e90:	f001 fb27 	bl	274e2 <__aeabi_memcpy>
   25e94:	4d5a      	ldr	r5, [pc, #360]	@ (26000 <_start+0x5ed8>)
   25e96:	446d      	add	r5, sp
   25e98:	4628      	mov	r0, r5
   25e9a:	300c      	adds	r0, #12
   25e9c:	2111      	movs	r1, #17
   25e9e:	900b      	str	r0, [sp, #44]	@ 0x2c
   25ea0:	f001 f972 	bl	27188 <__aeabi_memclr4>
   25ea4:	9812      	ldr	r0, [sp, #72]	@ 0x48
   25ea6:	7228      	strb	r0, [r5, #8]
   25ea8:	9a0c      	ldr	r2, [sp, #48]	@ 0x30
   25eaa:	9200      	str	r2, [sp, #0]
   25eac:	213f      	movs	r1, #63	@ 0x3f
   25eae:	4620      	mov	r0, r4
   25eb0:	4b56      	ldr	r3, [pc, #344]	@ (2600c <_start+0x5ee4>)
   25eb2:	f7fa f917 	bl	200e4 <_ZN9allow_pin12full_dynamic15Buffer$LT$B$GT$5allow17h6d4ce413c213cdffE>
   25eb6:	9113      	str	r1, [sp, #76]	@ 0x4c
   25eb8:	07c0      	lsls	r0, r0, #31
   25eba:	d113      	bne.n	25ee4 <_start+0x5dbc>
   25ebc:	9a0e      	ldr	r2, [sp, #56]	@ 0x38
   25ebe:	9200      	str	r2, [sp, #0]
   25ec0:	484f      	ldr	r0, [pc, #316]	@ (26000 <_start+0x5ed8>)
   25ec2:	4468      	add	r0, sp
   25ec4:	2111      	movs	r1, #17
   25ec6:	4b51      	ldr	r3, [pc, #324]	@ (2600c <_start+0x5ee4>)
   25ec8:	f7fa f90c 	bl	200e4 <_ZN9allow_pin12full_dynamic15Buffer$LT$B$GT$5allow17h6d4ce413c213cdffE>
   25ecc:	9113      	str	r1, [sp, #76]	@ 0x4c
   25ece:	07c0      	lsls	r0, r0, #31
   25ed0:	d108      	bne.n	25ee4 <_start+0x5dbc>
   25ed2:	484e      	ldr	r0, [pc, #312]	@ (2600c <_start+0x5ee4>)
   25ed4:	2104      	movs	r1, #4
   25ed6:	2203      	movs	r2, #3
   25ed8:	2300      	movs	r3, #0
   25eda:	930e      	str	r3, [sp, #56]	@ 0x38
   25edc:	df02      	svc	2
   25ede:	9113      	str	r1, [sp, #76]	@ 0x4c
   25ee0:	287f      	cmp	r0, #127	@ 0x7f
   25ee2:	d802      	bhi.n	25eea <_start+0x5dc2>
   25ee4:	9811      	ldr	r0, [sp, #68]	@ 0x44
   25ee6:	900e      	str	r0, [sp, #56]	@ 0x38
   25ee8:	e02a      	b.n	25f40 <_start+0x5e18>
   25eea:	4843      	ldr	r0, [pc, #268]	@ (25ff8 <_start+0x5ed0>)
   25eec:	4468      	add	r0, sp
   25eee:	4d43      	ldr	r5, [pc, #268]	@ (25ffc <_start+0x5ed4>)
   25ef0:	47a8      	blx	r5
   25ef2:	4c43      	ldr	r4, [pc, #268]	@ (26000 <_start+0x5ed8>)
   25ef4:	446c      	add	r4, sp
   25ef6:	4620      	mov	r0, r4
   25ef8:	47a8      	blx	r5
   25efa:	4620      	mov	r0, r4
   25efc:	47a8      	blx	r5
   25efe:	9a0b      	ldr	r2, [sp, #44]	@ 0x2c
   25f00:	7890      	ldrb	r0, [r2, #2]
   25f02:	a9ff      	add	r1, sp, #1020	@ 0x3fc
   25f04:	31f8      	adds	r1, #248	@ 0xf8
   25f06:	7088      	strb	r0, [r1, #2]
   25f08:	7810      	ldrb	r0, [r2, #0]
   25f0a:	7852      	ldrb	r2, [r2, #1]
   25f0c:	0212      	lsls	r2, r2, #8
   25f0e:	1810      	adds	r0, r2, r0
   25f10:	8008      	strh	r0, [r1, #0]
   25f12:	7ca0      	ldrb	r0, [r4, #18]
   25f14:	9013      	str	r0, [sp, #76]	@ 0x4c
   25f16:	7c60      	ldrb	r0, [r4, #17]
   25f18:	900c      	str	r0, [sp, #48]	@ 0x30
   25f1a:	7be0      	ldrb	r0, [r4, #15]
   25f1c:	900b      	str	r0, [sp, #44]	@ 0x2c
   25f1e:	7c25      	ldrb	r5, [r4, #16]
   25f20:	3413      	adds	r4, #19
   25f22:	a8e4      	add	r0, sp, #912	@ 0x390
   25f24:	220a      	movs	r2, #10
   25f26:	4621      	mov	r1, r4
   25f28:	f001 fadb 	bl	274e2 <__aeabi_memcpy>
   25f2c:	0228      	lsls	r0, r5, #8
   25f2e:	990b      	ldr	r1, [sp, #44]	@ 0x2c
   25f30:	1840      	adds	r0, r0, r1
   25f32:	990c      	ldr	r1, [sp, #48]	@ 0x30
   25f34:	0409      	lsls	r1, r1, #16
   25f36:	9a13      	ldr	r2, [sp, #76]	@ 0x4c
   25f38:	0612      	lsls	r2, r2, #24
   25f3a:	1851      	adds	r1, r2, r1
   25f3c:	1808      	adds	r0, r1, r0
   25f3e:	9013      	str	r0, [sp, #76]	@ 0x4c
   25f40:	482f      	ldr	r0, [pc, #188]	@ (26000 <_start+0x5ed8>)
   25f42:	4468      	add	r0, sp
   25f44:	f001 f90c 	bl	27160 <_ZN9allow_pin12full_dynamic17unshare_if_shared17hc38d0bd70fd52db9E>
   25f48:	482b      	ldr	r0, [pc, #172]	@ (25ff8 <_start+0x5ed0>)
   25f4a:	4468      	add	r0, sp
   25f4c:	f001 f908 	bl	27160 <_ZN9allow_pin12full_dynamic17unshare_if_shared17hc38d0bd70fd52db9E>
   25f50:	980e      	ldr	r0, [sp, #56]	@ 0x38
   25f52:	2800      	cmp	r0, #0
   25f54:	d001      	beq.n	25f5a <_start+0x5e32>
   25f56:	f001 f87e 	bl	27056 <_start+0x6f2e>
   25f5a:	ada3      	add	r5, sp, #652	@ 0x28c
   25f5c:	4628      	mov	r0, r5
   25f5e:	300c      	adds	r0, #12
   25f60:	a9ff      	add	r1, sp, #1020	@ 0x3fc
   25f62:	31f8      	adds	r1, #248	@ 0xf8
   25f64:	2203      	movs	r2, #3
   25f66:	f001 fabc 	bl	274e2 <__aeabi_memcpy>
   25f6a:	a8e4      	add	r0, sp, #912	@ 0x390
   25f6c:	a9ba      	add	r1, sp, #744	@ 0x2e8
   25f6e:	460a      	mov	r2, r1
   25f70:	c818      	ldmia	r0!, {r3, r4}
   25f72:	c218      	stmia	r2!, {r3, r4}
   25f74:	8800      	ldrh	r0, [r0, #0]
   25f76:	8010      	strh	r0, [r2, #0]
   25f78:	4628      	mov	r0, r5
   25f7a:	3013      	adds	r0, #19
   25f7c:	220a      	movs	r2, #10
   25f7e:	f001 fab0 	bl	274e2 <__aeabi_memcpy>
   25f82:	9913      	ldr	r1, [sp, #76]	@ 0x4c
   25f84:	0e08      	lsrs	r0, r1, #24
   25f86:	74a8      	strb	r0, [r5, #18]
   25f88:	0c08      	lsrs	r0, r1, #16
   25f8a:	7468      	strb	r0, [r5, #17]
   25f8c:	0a08      	lsrs	r0, r1, #8
   25f8e:	7428      	strb	r0, [r5, #16]
   25f90:	73e9      	strb	r1, [r5, #15]
   25f92:	9812      	ldr	r0, [sp, #72]	@ 0x48
   25f94:	7228      	strb	r0, [r5, #8]
   25f96:	4c18      	ldr	r4, [pc, #96]	@ (25ff8 <_start+0x5ed0>)
   25f98:	446c      	add	r4, sp
   25f9a:	4620      	mov	r0, r4
   25f9c:	300c      	adds	r0, #12
   25f9e:	213f      	movs	r1, #63	@ 0x3f
   25fa0:	900c      	str	r0, [sp, #48]	@ 0x30
   25fa2:	f001 f8f1 	bl	27188 <__aeabi_memclr4>
   25fa6:	9812      	ldr	r0, [sp, #72]	@ 0x48
   25fa8:	7220      	strb	r0, [r4, #8]
   25faa:	9807      	ldr	r0, [sp, #28]
   25fac:	9000      	str	r0, [sp, #0]
   25fae:	4c18      	ldr	r4, [pc, #96]	@ (26010 <_start+0x5ee8>)
   25fb0:	3472      	adds	r4, #114	@ 0x72
   25fb2:	2111      	movs	r1, #17
   25fb4:	2204      	movs	r2, #4
   25fb6:	4628      	mov	r0, r5
   25fb8:	4615      	mov	r5, r2
   25fba:	4623      	mov	r3, r4
   25fbc:	f7fa f892 	bl	200e4 <_ZN9allow_pin12full_dynamic15Buffer$LT$B$GT$5allow17h6d4ce413c213cdffE>
   25fc0:	9113      	str	r1, [sp, #76]	@ 0x4c
   25fc2:	07c0      	lsls	r0, r0, #31
   25fc4:	d114      	bne.n	25ff0 <_start+0x5ec8>
   25fc6:	9500      	str	r5, [sp, #0]
   25fc8:	480b      	ldr	r0, [pc, #44]	@ (25ff8 <_start+0x5ed0>)
   25fca:	4468      	add	r0, sp
   25fcc:	213f      	movs	r1, #63	@ 0x3f
   25fce:	2203      	movs	r2, #3
   25fd0:	4623      	mov	r3, r4
   25fd2:	f7fa f887 	bl	200e4 <_ZN9allow_pin12full_dynamic15Buffer$LT$B$GT$5allow17h6d4ce413c213cdffE>
   25fd6:	9113      	str	r1, [sp, #76]	@ 0x4c
   25fd8:	07c0      	lsls	r0, r0, #31
   25fda:	d109      	bne.n	25ff0 <_start+0x5ec8>
   25fdc:	20cb      	movs	r0, #203	@ 0xcb
   25fde:	0100      	lsls	r0, r0, #4
   25fe0:	2107      	movs	r1, #7
   25fe2:	2204      	movs	r2, #4
   25fe4:	2300      	movs	r3, #0
   25fe6:	930e      	str	r3, [sp, #56]	@ 0x38
   25fe8:	df02      	svc	2
   25fea:	9113      	str	r1, [sp, #76]	@ 0x4c
   25fec:	287f      	cmp	r0, #127	@ 0x7f
   25fee:	d811      	bhi.n	26014 <_start+0x5eec>
   25ff0:	9811      	ldr	r0, [sp, #68]	@ 0x44
   25ff2:	900e      	str	r0, [sp, #56]	@ 0x38
   25ff4:	e038      	b.n	26068 <_start+0x5f40>
   25ff6:	46c0      	nop			@ (mov r8, r8)
   25ff8:	000005cc 	.word	0x000005cc
   25ffc:	00027161 	.word	0x00027161
   26000:	00000568 	.word	0x00000568
   26004:	00000d5d 	.word	0x00000d5d
   26008:	00000e57 	.word	0x00000e57
   2600c:	000014d7 	.word	0x000014d7
   26010:	00000c3e 	.word	0x00000c3e
   26014:	a8a3      	add	r0, sp, #652	@ 0x28c
   26016:	4cc5      	ldr	r4, [pc, #788]	@ (2632c <_start+0x6204>)
   26018:	47a0      	blx	r4
   2601a:	4dc5      	ldr	r5, [pc, #788]	@ (26330 <_start+0x6208>)
   2601c:	446d      	add	r5, sp
   2601e:	4628      	mov	r0, r5
   26020:	47a0      	blx	r4
   26022:	4628      	mov	r0, r5
   26024:	47a0      	blx	r4
   26026:	9a0c      	ldr	r2, [sp, #48]	@ 0x30
   26028:	7890      	ldrb	r0, [r2, #2]
   2602a:	a9ba      	add	r1, sp, #744	@ 0x2e8
   2602c:	7088      	strb	r0, [r1, #2]
   2602e:	7810      	ldrb	r0, [r2, #0]
   26030:	7852      	ldrb	r2, [r2, #1]
   26032:	0212      	lsls	r2, r2, #8
   26034:	1810      	adds	r0, r2, r0
   26036:	8008      	strh	r0, [r1, #0]
   26038:	7ca8      	ldrb	r0, [r5, #18]
   2603a:	9013      	str	r0, [sp, #76]	@ 0x4c
   2603c:	7c68      	ldrb	r0, [r5, #17]
   2603e:	900c      	str	r0, [sp, #48]	@ 0x30
   26040:	7be8      	ldrb	r0, [r5, #15]
   26042:	900b      	str	r0, [sp, #44]	@ 0x2c
   26044:	7c2c      	ldrb	r4, [r5, #16]
   26046:	3513      	adds	r5, #19
   26048:	48ba      	ldr	r0, [pc, #744]	@ (26334 <_start+0x620c>)
   2604a:	4468      	add	r0, sp
   2604c:	2238      	movs	r2, #56	@ 0x38
   2604e:	4629      	mov	r1, r5
   26050:	f001 fa47 	bl	274e2 <__aeabi_memcpy>
   26054:	0220      	lsls	r0, r4, #8
   26056:	990b      	ldr	r1, [sp, #44]	@ 0x2c
   26058:	1840      	adds	r0, r0, r1
   2605a:	990c      	ldr	r1, [sp, #48]	@ 0x30
   2605c:	0409      	lsls	r1, r1, #16
   2605e:	9a13      	ldr	r2, [sp, #76]	@ 0x4c
   26060:	0612      	lsls	r2, r2, #24
   26062:	1851      	adds	r1, r2, r1
   26064:	1808      	adds	r0, r1, r0
   26066:	9013      	str	r0, [sp, #76]	@ 0x4c
   26068:	48b1      	ldr	r0, [pc, #708]	@ (26330 <_start+0x6208>)
   2606a:	4468      	add	r0, sp
   2606c:	f001 f878 	bl	27160 <_ZN9allow_pin12full_dynamic17unshare_if_shared17hc38d0bd70fd52db9E>
   26070:	a8a3      	add	r0, sp, #652	@ 0x28c
   26072:	f001 f875 	bl	27160 <_ZN9allow_pin12full_dynamic17unshare_if_shared17hc38d0bd70fd52db9E>
   26076:	980e      	ldr	r0, [sp, #56]	@ 0x38
   26078:	2800      	cmp	r0, #0
   2607a:	d001      	beq.n	26080 <_start+0x5f58>
   2607c:	f000 ffeb 	bl	27056 <_start+0x6f2e>
   26080:	4dab      	ldr	r5, [pc, #684]	@ (26330 <_start+0x6208>)
   26082:	446d      	add	r5, sp
   26084:	4628      	mov	r0, r5
   26086:	300c      	adds	r0, #12
   26088:	a9ba      	add	r1, sp, #744	@ 0x2e8
   2608a:	2203      	movs	r2, #3
   2608c:	f001 fa29 	bl	274e2 <__aeabi_memcpy>
   26090:	a8ff      	add	r0, sp, #1020	@ 0x3fc
   26092:	307c      	adds	r0, #124	@ 0x7c
   26094:	900e      	str	r0, [sp, #56]	@ 0x38
   26096:	49a7      	ldr	r1, [pc, #668]	@ (26334 <_start+0x620c>)
   26098:	4469      	add	r1, sp
   2609a:	2438      	movs	r4, #56	@ 0x38
   2609c:	4622      	mov	r2, r4
   2609e:	f001 fa20 	bl	274e2 <__aeabi_memcpy>
   260a2:	9913      	ldr	r1, [sp, #76]	@ 0x4c
   260a4:	0e08      	lsrs	r0, r1, #24
   260a6:	74a8      	strb	r0, [r5, #18]
   260a8:	0c08      	lsrs	r0, r1, #16
   260aa:	7468      	strb	r0, [r5, #17]
   260ac:	0a08      	lsrs	r0, r1, #8
   260ae:	7428      	strb	r0, [r5, #16]
   260b0:	73e9      	strb	r1, [r5, #15]
   260b2:	9812      	ldr	r0, [sp, #72]	@ 0x48
   260b4:	7228      	strb	r0, [r5, #8]
   260b6:	4628      	mov	r0, r5
   260b8:	3013      	adds	r0, #19
   260ba:	990e      	ldr	r1, [sp, #56]	@ 0x38
   260bc:	4622      	mov	r2, r4
   260be:	f001 fa10 	bl	274e2 <__aeabi_memcpy>
   260c2:	4c9c      	ldr	r4, [pc, #624]	@ (26334 <_start+0x620c>)
   260c4:	446c      	add	r4, sp
   260c6:	4620      	mov	r0, r4
   260c8:	300c      	adds	r0, #12
   260ca:	211c      	movs	r1, #28
   260cc:	900c      	str	r0, [sp, #48]	@ 0x30
   260ce:	f001 f85b 	bl	27188 <__aeabi_memclr4>
   260d2:	9812      	ldr	r0, [sp, #72]	@ 0x48
   260d4:	7220      	strb	r0, [r4, #8]
   260d6:	9803      	ldr	r0, [sp, #12]
   260d8:	9000      	str	r0, [sp, #0]
   260da:	4c97      	ldr	r4, [pc, #604]	@ (26338 <_start+0x6210>)
   260dc:	34a3      	adds	r4, #163	@ 0xa3
   260de:	213f      	movs	r1, #63	@ 0x3f
   260e0:	2204      	movs	r2, #4
   260e2:	4628      	mov	r0, r5
   260e4:	4623      	mov	r3, r4
   260e6:	f7f9 fffd 	bl	200e4 <_ZN9allow_pin12full_dynamic15Buffer$LT$B$GT$5allow17h6d4ce413c213cdffE>
   260ea:	9113      	str	r1, [sp, #76]	@ 0x4c
   260ec:	07c0      	lsls	r0, r0, #31
   260ee:	d114      	bne.n	2611a <_start+0x5ff2>
   260f0:	980d      	ldr	r0, [sp, #52]	@ 0x34
   260f2:	9000      	str	r0, [sp, #0]
   260f4:	488f      	ldr	r0, [pc, #572]	@ (26334 <_start+0x620c>)
   260f6:	4468      	add	r0, sp
   260f8:	211c      	movs	r1, #28
   260fa:	2203      	movs	r2, #3
   260fc:	4623      	mov	r3, r4
   260fe:	f7f9 fff1 	bl	200e4 <_ZN9allow_pin12full_dynamic15Buffer$LT$B$GT$5allow17h6d4ce413c213cdffE>
   26102:	9113      	str	r1, [sp, #76]	@ 0x4c
   26104:	07c0      	lsls	r0, r0, #31
   26106:	d108      	bne.n	2611a <_start+0x5ff2>
   26108:	488c      	ldr	r0, [pc, #560]	@ (2633c <_start+0x6214>)
   2610a:	2105      	movs	r1, #5
   2610c:	2209      	movs	r2, #9
   2610e:	2300      	movs	r3, #0
   26110:	930e      	str	r3, [sp, #56]	@ 0x38
   26112:	df02      	svc	2
   26114:	9113      	str	r1, [sp, #76]	@ 0x4c
   26116:	287f      	cmp	r0, #127	@ 0x7f
   26118:	d802      	bhi.n	26120 <_start+0x5ff8>
   2611a:	9811      	ldr	r0, [sp, #68]	@ 0x44
   2611c:	900e      	str	r0, [sp, #56]	@ 0x38
   2611e:	e02a      	b.n	26176 <_start+0x604e>
   26120:	4883      	ldr	r0, [pc, #524]	@ (26330 <_start+0x6208>)
   26122:	4468      	add	r0, sp
   26124:	4c81      	ldr	r4, [pc, #516]	@ (2632c <_start+0x6204>)
   26126:	47a0      	blx	r4
   26128:	4d82      	ldr	r5, [pc, #520]	@ (26334 <_start+0x620c>)
   2612a:	446d      	add	r5, sp
   2612c:	4628      	mov	r0, r5
   2612e:	47a0      	blx	r4
   26130:	4628      	mov	r0, r5
   26132:	47a0      	blx	r4
   26134:	9a0c      	ldr	r2, [sp, #48]	@ 0x30
   26136:	7890      	ldrb	r0, [r2, #2]
   26138:	a9ff      	add	r1, sp, #1020	@ 0x3fc
   2613a:	31f8      	adds	r1, #248	@ 0xf8
   2613c:	7088      	strb	r0, [r1, #2]
   2613e:	7810      	ldrb	r0, [r2, #0]
   26140:	7852      	ldrb	r2, [r2, #1]
   26142:	0212      	lsls	r2, r2, #8
   26144:	1810      	adds	r0, r2, r0
   26146:	8008      	strh	r0, [r1, #0]
   26148:	7ca8      	ldrb	r0, [r5, #18]
   2614a:	9013      	str	r0, [sp, #76]	@ 0x4c
   2614c:	7c68      	ldrb	r0, [r5, #17]
   2614e:	900c      	str	r0, [sp, #48]	@ 0x30
   26150:	7be8      	ldrb	r0, [r5, #15]
   26152:	900b      	str	r0, [sp, #44]	@ 0x2c
   26154:	7c2c      	ldrb	r4, [r5, #16]
   26156:	3513      	adds	r5, #19
   26158:	a8e4      	add	r0, sp, #912	@ 0x390
   2615a:	2215      	movs	r2, #21
   2615c:	4629      	mov	r1, r5
   2615e:	f001 f9c0 	bl	274e2 <__aeabi_memcpy>
   26162:	0220      	lsls	r0, r4, #8
   26164:	990b      	ldr	r1, [sp, #44]	@ 0x2c
   26166:	1840      	adds	r0, r0, r1
   26168:	990c      	ldr	r1, [sp, #48]	@ 0x30
   2616a:	0409      	lsls	r1, r1, #16
   2616c:	9a13      	ldr	r2, [sp, #76]	@ 0x4c
   2616e:	0612      	lsls	r2, r2, #24
   26170:	1851      	adds	r1, r2, r1
   26172:	1808      	adds	r0, r1, r0
   26174:	9013      	str	r0, [sp, #76]	@ 0x4c
   26176:	486f      	ldr	r0, [pc, #444]	@ (26334 <_start+0x620c>)
   26178:	4468      	add	r0, sp
   2617a:	f000 fff1 	bl	27160 <_ZN9allow_pin12full_dynamic17unshare_if_shared17hc38d0bd70fd52db9E>
   2617e:	486c      	ldr	r0, [pc, #432]	@ (26330 <_start+0x6208>)
   26180:	4468      	add	r0, sp
   26182:	f000 ffed 	bl	27160 <_ZN9allow_pin12full_dynamic17unshare_if_shared17hc38d0bd70fd52db9E>
   26186:	980e      	ldr	r0, [sp, #56]	@ 0x38
   26188:	2800      	cmp	r0, #0
   2618a:	d001      	beq.n	26190 <_start+0x6068>
   2618c:	f000 ff63 	bl	27056 <_start+0x6f2e>
   26190:	acba      	add	r4, sp, #744	@ 0x2e8
   26192:	4620      	mov	r0, r4
   26194:	300c      	adds	r0, #12
   26196:	a9ff      	add	r1, sp, #1020	@ 0x3fc
   26198:	31f8      	adds	r1, #248	@ 0xf8
   2619a:	2203      	movs	r2, #3
   2619c:	f001 f9a1 	bl	274e2 <__aeabi_memcpy>
   261a0:	a8a3      	add	r0, sp, #652	@ 0x28c
   261a2:	900e      	str	r0, [sp, #56]	@ 0x38
   261a4:	a9e4      	add	r1, sp, #912	@ 0x390
   261a6:	2515      	movs	r5, #21
   261a8:	462a      	mov	r2, r5
   261aa:	f001 f99a 	bl	274e2 <__aeabi_memcpy>
   261ae:	4620      	mov	r0, r4
   261b0:	3013      	adds	r0, #19
   261b2:	990e      	ldr	r1, [sp, #56]	@ 0x38
   261b4:	462a      	mov	r2, r5
   261b6:	f001 f994 	bl	274e2 <__aeabi_memcpy>
   261ba:	9913      	ldr	r1, [sp, #76]	@ 0x4c
   261bc:	0e08      	lsrs	r0, r1, #24
   261be:	74a0      	strb	r0, [r4, #18]
   261c0:	0c08      	lsrs	r0, r1, #16
   261c2:	7460      	strb	r0, [r4, #17]
   261c4:	0a08      	lsrs	r0, r1, #8
   261c6:	7420      	strb	r0, [r4, #16]
   261c8:	73e1      	strb	r1, [r4, #15]
   261ca:	9812      	ldr	r0, [sp, #72]	@ 0x48
   261cc:	7220      	strb	r0, [r4, #8]
   261ce:	4d58      	ldr	r5, [pc, #352]	@ (26330 <_start+0x6208>)
   261d0:	446d      	add	r5, sp
   261d2:	4628      	mov	r0, r5
   261d4:	300c      	adds	r0, #12
   261d6:	215d      	movs	r1, #93	@ 0x5d
   261d8:	900c      	str	r0, [sp, #48]	@ 0x30
   261da:	f000 ffd5 	bl	27188 <__aeabi_memclr4>
   261de:	9812      	ldr	r0, [sp, #72]	@ 0x48
   261e0:	7228      	strb	r0, [r5, #8]
   261e2:	9810      	ldr	r0, [sp, #64]	@ 0x40
   261e4:	9000      	str	r0, [sp, #0]
   261e6:	211c      	movs	r1, #28
   261e8:	2204      	movs	r2, #4
   261ea:	4620      	mov	r0, r4
   261ec:	4b54      	ldr	r3, [pc, #336]	@ (26340 <_start+0x6218>)
   261ee:	f7f9 ff79 	bl	200e4 <_ZN9allow_pin12full_dynamic15Buffer$LT$B$GT$5allow17h6d4ce413c213cdffE>
   261f2:	9113      	str	r1, [sp, #76]	@ 0x4c
   261f4:	07c0      	lsls	r0, r0, #31
   261f6:	d114      	bne.n	26222 <_start+0x60fa>
   261f8:	9803      	ldr	r0, [sp, #12]
   261fa:	9000      	str	r0, [sp, #0]
   261fc:	484c      	ldr	r0, [pc, #304]	@ (26330 <_start+0x6208>)
   261fe:	4468      	add	r0, sp
   26200:	215d      	movs	r1, #93	@ 0x5d
   26202:	2203      	movs	r2, #3
   26204:	4b4e      	ldr	r3, [pc, #312]	@ (26340 <_start+0x6218>)
   26206:	f7f9 ff6d 	bl	200e4 <_ZN9allow_pin12full_dynamic15Buffer$LT$B$GT$5allow17h6d4ce413c213cdffE>
   2620a:	9113      	str	r1, [sp, #76]	@ 0x4c
   2620c:	07c0      	lsls	r0, r0, #31
   2620e:	d108      	bne.n	26222 <_start+0x60fa>
   26210:	484b      	ldr	r0, [pc, #300]	@ (26340 <_start+0x6218>)
   26212:	2108      	movs	r1, #8
   26214:	2205      	movs	r2, #5
   26216:	2300      	movs	r3, #0
   26218:	930e      	str	r3, [sp, #56]	@ 0x38
   2621a:	df02      	svc	2
   2621c:	9113      	str	r1, [sp, #76]	@ 0x4c
   2621e:	287f      	cmp	r0, #127	@ 0x7f
   26220:	d802      	bhi.n	26228 <_start+0x6100>
   26222:	9811      	ldr	r0, [sp, #68]	@ 0x44
   26224:	900e      	str	r0, [sp, #56]	@ 0x38
   26226:	e028      	b.n	2627a <_start+0x6152>
   26228:	a8ba      	add	r0, sp, #744	@ 0x2e8
   2622a:	4d40      	ldr	r5, [pc, #256]	@ (2632c <_start+0x6204>)
   2622c:	47a8      	blx	r5
   2622e:	4c40      	ldr	r4, [pc, #256]	@ (26330 <_start+0x6208>)
   26230:	446c      	add	r4, sp
   26232:	4620      	mov	r0, r4
   26234:	47a8      	blx	r5
   26236:	4620      	mov	r0, r4
   26238:	47a8      	blx	r5
   2623a:	9a0c      	ldr	r2, [sp, #48]	@ 0x30
   2623c:	7890      	ldrb	r0, [r2, #2]
   2623e:	a9e4      	add	r1, sp, #912	@ 0x390
   26240:	7088      	strb	r0, [r1, #2]
   26242:	7810      	ldrb	r0, [r2, #0]
   26244:	7852      	ldrb	r2, [r2, #1]
   26246:	0212      	lsls	r2, r2, #8
   26248:	1810      	adds	r0, r2, r0
   2624a:	8008      	strh	r0, [r1, #0]
   2624c:	7ca0      	ldrb	r0, [r4, #18]
   2624e:	9013      	str	r0, [sp, #76]	@ 0x4c
   26250:	7c60      	ldrb	r0, [r4, #17]
   26252:	900c      	str	r0, [sp, #48]	@ 0x30
   26254:	7be0      	ldrb	r0, [r4, #15]
   26256:	900b      	str	r0, [sp, #44]	@ 0x2c
   26258:	7c25      	ldrb	r5, [r4, #16]
   2625a:	3413      	adds	r4, #19
   2625c:	a8a3      	add	r0, sp, #652	@ 0x28c
   2625e:	2256      	movs	r2, #86	@ 0x56
   26260:	4621      	mov	r1, r4
   26262:	f001 f93e 	bl	274e2 <__aeabi_memcpy>
   26266:	0228      	lsls	r0, r5, #8
   26268:	990b      	ldr	r1, [sp, #44]	@ 0x2c
   2626a:	1840      	adds	r0, r0, r1
   2626c:	990c      	ldr	r1, [sp, #48]	@ 0x30
   2626e:	0409      	lsls	r1, r1, #16
   26270:	9a13      	ldr	r2, [sp, #76]	@ 0x4c
   26272:	0612      	lsls	r2, r2, #24
   26274:	1851      	adds	r1, r2, r1
   26276:	1808      	adds	r0, r1, r0
   26278:	9013      	str	r0, [sp, #76]	@ 0x4c
   2627a:	482d      	ldr	r0, [pc, #180]	@ (26330 <_start+0x6208>)
   2627c:	4468      	add	r0, sp
   2627e:	f000 ff6f 	bl	27160 <_ZN9allow_pin12full_dynamic17unshare_if_shared17hc38d0bd70fd52db9E>
   26282:	a8ba      	add	r0, sp, #744	@ 0x2e8
   26284:	f000 ff6c 	bl	27160 <_ZN9allow_pin12full_dynamic17unshare_if_shared17hc38d0bd70fd52db9E>
   26288:	980e      	ldr	r0, [sp, #56]	@ 0x38
   2628a:	2800      	cmp	r0, #0
   2628c:	d001      	beq.n	26292 <_start+0x616a>
   2628e:	f000 fee2 	bl	27056 <_start+0x6f2e>
   26292:	4c27      	ldr	r4, [pc, #156]	@ (26330 <_start+0x6208>)
   26294:	446c      	add	r4, sp
   26296:	4620      	mov	r0, r4
   26298:	300c      	adds	r0, #12
   2629a:	a9e4      	add	r1, sp, #912	@ 0x390
   2629c:	2203      	movs	r2, #3
   2629e:	f001 f920 	bl	274e2 <__aeabi_memcpy>
   262a2:	4824      	ldr	r0, [pc, #144]	@ (26334 <_start+0x620c>)
   262a4:	4468      	add	r0, sp
   262a6:	900e      	str	r0, [sp, #56]	@ 0x38
   262a8:	a9a3      	add	r1, sp, #652	@ 0x28c
   262aa:	2556      	movs	r5, #86	@ 0x56
   262ac:	462a      	mov	r2, r5
   262ae:	f000 ffb8 	bl	27222 <__aeabi_memcpy4>
   262b2:	4620      	mov	r0, r4
   262b4:	3013      	adds	r0, #19
   262b6:	990e      	ldr	r1, [sp, #56]	@ 0x38
   262b8:	462a      	mov	r2, r5
   262ba:	f001 f912 	bl	274e2 <__aeabi_memcpy>
   262be:	9913      	ldr	r1, [sp, #76]	@ 0x4c
   262c0:	0e08      	lsrs	r0, r1, #24
   262c2:	74a0      	strb	r0, [r4, #18]
   262c4:	0c08      	lsrs	r0, r1, #16
   262c6:	7460      	strb	r0, [r4, #17]
   262c8:	0a08      	lsrs	r0, r1, #8
   262ca:	7420      	strb	r0, [r4, #16]
   262cc:	73e1      	strb	r1, [r4, #15]
   262ce:	9812      	ldr	r0, [sp, #72]	@ 0x48
   262d0:	7220      	strb	r0, [r4, #8]
   262d2:	4d18      	ldr	r5, [pc, #96]	@ (26334 <_start+0x620c>)
   262d4:	446d      	add	r5, sp
   262d6:	4628      	mov	r0, r5
   262d8:	300c      	adds	r0, #12
   262da:	2112      	movs	r1, #18
   262dc:	900c      	str	r0, [sp, #48]	@ 0x30
   262de:	f000 ff53 	bl	27188 <__aeabi_memclr4>
   262e2:	9812      	ldr	r0, [sp, #72]	@ 0x48
   262e4:	7228      	strb	r0, [r5, #8]
   262e6:	9806      	ldr	r0, [sp, #24]
   262e8:	9000      	str	r0, [sp, #0]
   262ea:	215d      	movs	r1, #93	@ 0x5d
   262ec:	2204      	movs	r2, #4
   262ee:	4620      	mov	r0, r4
   262f0:	4b11      	ldr	r3, [pc, #68]	@ (26338 <_start+0x6210>)
   262f2:	f7f9 fef7 	bl	200e4 <_ZN9allow_pin12full_dynamic15Buffer$LT$B$GT$5allow17h6d4ce413c213cdffE>
   262f6:	9113      	str	r1, [sp, #76]	@ 0x4c
   262f8:	07c0      	lsls	r0, r0, #31
   262fa:	d114      	bne.n	26326 <_start+0x61fe>
   262fc:	9812      	ldr	r0, [sp, #72]	@ 0x48
   262fe:	9000      	str	r0, [sp, #0]
   26300:	480c      	ldr	r0, [pc, #48]	@ (26334 <_start+0x620c>)
   26302:	4468      	add	r0, sp
   26304:	2112      	movs	r1, #18
   26306:	2203      	movs	r2, #3
   26308:	4b0b      	ldr	r3, [pc, #44]	@ (26338 <_start+0x6210>)
   2630a:	f7f9 feeb 	bl	200e4 <_ZN9allow_pin12full_dynamic15Buffer$LT$B$GT$5allow17h6d4ce413c213cdffE>
   2630e:	9113      	str	r1, [sp, #76]	@ 0x4c
   26310:	07c0      	lsls	r0, r0, #31
   26312:	d108      	bne.n	26326 <_start+0x61fe>
   26314:	4808      	ldr	r0, [pc, #32]	@ (26338 <_start+0x6210>)
   26316:	2202      	movs	r2, #2
   26318:	2100      	movs	r1, #0
   2631a:	910e      	str	r1, [sp, #56]	@ 0x38
   2631c:	460b      	mov	r3, r1
   2631e:	df02      	svc	2
   26320:	9113      	str	r1, [sp, #76]	@ 0x4c
   26322:	287f      	cmp	r0, #127	@ 0x7f
   26324:	d80e      	bhi.n	26344 <_start+0x621c>
   26326:	9811      	ldr	r0, [sp, #68]	@ 0x44
   26328:	900e      	str	r0, [sp, #56]	@ 0x38
   2632a:	e036      	b.n	2639a <_start+0x6272>
   2632c:	00027161 	.word	0x00027161
   26330:	000005cc 	.word	0x000005cc
   26334:	00000568 	.word	0x00000568
   26338:	000015f1 	.word	0x000015f1
   2633c:	00001694 	.word	0x00001694
   26340:	00000c3e 	.word	0x00000c3e
   26344:	48c6      	ldr	r0, [pc, #792]	@ (26660 <_start+0x6538>)
   26346:	4468      	add	r0, sp
   26348:	4dc6      	ldr	r5, [pc, #792]	@ (26664 <_start+0x653c>)
   2634a:	47a8      	blx	r5
   2634c:	4cc6      	ldr	r4, [pc, #792]	@ (26668 <_start+0x6540>)
   2634e:	446c      	add	r4, sp
   26350:	4620      	mov	r0, r4
   26352:	47a8      	blx	r5
   26354:	4620      	mov	r0, r4
   26356:	47a8      	blx	r5
   26358:	9a0c      	ldr	r2, [sp, #48]	@ 0x30
   2635a:	7890      	ldrb	r0, [r2, #2]
   2635c:	a9ff      	add	r1, sp, #1020	@ 0x3fc
   2635e:	31f8      	adds	r1, #248	@ 0xf8
   26360:	7088      	strb	r0, [r1, #2]
   26362:	7810      	ldrb	r0, [r2, #0]
   26364:	7852      	ldrb	r2, [r2, #1]
   26366:	0212      	lsls	r2, r2, #8
   26368:	1810      	adds	r0, r2, r0
   2636a:	8008      	strh	r0, [r1, #0]
   2636c:	7ca0      	ldrb	r0, [r4, #18]
   2636e:	9013      	str	r0, [sp, #76]	@ 0x4c
   26370:	7c60      	ldrb	r0, [r4, #17]
   26372:	900c      	str	r0, [sp, #48]	@ 0x30
   26374:	7be0      	ldrb	r0, [r4, #15]
   26376:	900b      	str	r0, [sp, #44]	@ 0x2c
   26378:	7c25      	ldrb	r5, [r4, #16]
   2637a:	3413      	adds	r4, #19
   2637c:	a8e4      	add	r0, sp, #912	@ 0x390
   2637e:	220b      	movs	r2, #11
   26380:	4621      	mov	r1, r4
   26382:	f001 f8ae 	bl	274e2 <__aeabi_memcpy>
   26386:	0228      	lsls	r0, r5, #8
   26388:	990b      	ldr	r1, [sp, #44]	@ 0x2c
   2638a:	1840      	adds	r0, r0, r1
   2638c:	990c      	ldr	r1, [sp, #48]	@ 0x30
   2638e:	0409      	lsls	r1, r1, #16
   26390:	9a13      	ldr	r2, [sp, #76]	@ 0x4c
   26392:	0612      	lsls	r2, r2, #24
   26394:	1851      	adds	r1, r2, r1
   26396:	1808      	adds	r0, r1, r0
   26398:	9013      	str	r0, [sp, #76]	@ 0x4c
   2639a:	48b3      	ldr	r0, [pc, #716]	@ (26668 <_start+0x6540>)
   2639c:	4468      	add	r0, sp
   2639e:	f000 fedf 	bl	27160 <_ZN9allow_pin12full_dynamic17unshare_if_shared17hc38d0bd70fd52db9E>
   263a2:	48af      	ldr	r0, [pc, #700]	@ (26660 <_start+0x6538>)
   263a4:	4468      	add	r0, sp
   263a6:	f000 fedb 	bl	27160 <_ZN9allow_pin12full_dynamic17unshare_if_shared17hc38d0bd70fd52db9E>
   263aa:	980e      	ldr	r0, [sp, #56]	@ 0x38
   263ac:	2800      	cmp	r0, #0
   263ae:	d001      	beq.n	263b4 <_start+0x628c>
   263b0:	f000 fe51 	bl	27056 <_start+0x6f2e>
   263b4:	adba      	add	r5, sp, #744	@ 0x2e8
   263b6:	4628      	mov	r0, r5
   263b8:	300c      	adds	r0, #12
   263ba:	a9ff      	add	r1, sp, #1020	@ 0x3fc
   263bc:	31f8      	adds	r1, #248	@ 0xf8
   263be:	2203      	movs	r2, #3
   263c0:	f001 f88f 	bl	274e2 <__aeabi_memcpy>
   263c4:	a8e4      	add	r0, sp, #912	@ 0x390
   263c6:	a9a3      	add	r1, sp, #652	@ 0x28c
   263c8:	460a      	mov	r2, r1
   263ca:	c818      	ldmia	r0!, {r3, r4}
   263cc:	c218      	stmia	r2!, {r3, r4}
   263ce:	8803      	ldrh	r3, [r0, #0]
   263d0:	8013      	strh	r3, [r2, #0]
   263d2:	7880      	ldrb	r0, [r0, #2]
   263d4:	7090      	strb	r0, [r2, #2]
   263d6:	4628      	mov	r0, r5
   263d8:	3013      	adds	r0, #19
   263da:	220b      	movs	r2, #11
   263dc:	f001 f881 	bl	274e2 <__aeabi_memcpy>
   263e0:	9913      	ldr	r1, [sp, #76]	@ 0x4c
   263e2:	0e08      	lsrs	r0, r1, #24
   263e4:	74a8      	strb	r0, [r5, #18]
   263e6:	0c08      	lsrs	r0, r1, #16
   263e8:	7468      	strb	r0, [r5, #17]
   263ea:	0a08      	lsrs	r0, r1, #8
   263ec:	7428      	strb	r0, [r5, #16]
   263ee:	73e9      	strb	r1, [r5, #15]
   263f0:	9c12      	ldr	r4, [sp, #72]	@ 0x48
   263f2:	722c      	strb	r4, [r5, #8]
   263f4:	489a      	ldr	r0, [pc, #616]	@ (26660 <_start+0x6538>)
   263f6:	4468      	add	r0, sp
   263f8:	9013      	str	r0, [sp, #76]	@ 0x4c
   263fa:	300c      	adds	r0, #12
   263fc:	2144      	movs	r1, #68	@ 0x44
   263fe:	900c      	str	r0, [sp, #48]	@ 0x30
   26400:	f000 fec2 	bl	27188 <__aeabi_memclr4>
   26404:	9813      	ldr	r0, [sp, #76]	@ 0x4c
   26406:	7204      	strb	r4, [r0, #8]
   26408:	9400      	str	r4, [sp, #0]
   2640a:	4b98      	ldr	r3, [pc, #608]	@ (2666c <_start+0x6544>)
   2640c:	3363      	adds	r3, #99	@ 0x63
   2640e:	2112      	movs	r1, #18
   26410:	2204      	movs	r2, #4
   26412:	4628      	mov	r0, r5
   26414:	461c      	mov	r4, r3
   26416:	f7f9 fe65 	bl	200e4 <_ZN9allow_pin12full_dynamic15Buffer$LT$B$GT$5allow17h6d4ce413c213cdffE>
   2641a:	9113      	str	r1, [sp, #76]	@ 0x4c
   2641c:	07c0      	lsls	r0, r0, #31
   2641e:	d114      	bne.n	2644a <_start+0x6322>
   26420:	980d      	ldr	r0, [sp, #52]	@ 0x34
   26422:	9000      	str	r0, [sp, #0]
   26424:	488e      	ldr	r0, [pc, #568]	@ (26660 <_start+0x6538>)
   26426:	4468      	add	r0, sp
   26428:	2144      	movs	r1, #68	@ 0x44
   2642a:	2203      	movs	r2, #3
   2642c:	4623      	mov	r3, r4
   2642e:	f7f9 fe59 	bl	200e4 <_ZN9allow_pin12full_dynamic15Buffer$LT$B$GT$5allow17h6d4ce413c213cdffE>
   26432:	9113      	str	r1, [sp, #76]	@ 0x4c
   26434:	07c0      	lsls	r0, r0, #31
   26436:	d108      	bne.n	2644a <_start+0x6322>
   26438:	488d      	ldr	r0, [pc, #564]	@ (26670 <_start+0x6548>)
   2643a:	2102      	movs	r1, #2
   2643c:	2209      	movs	r2, #9
   2643e:	2300      	movs	r3, #0
   26440:	930e      	str	r3, [sp, #56]	@ 0x38
   26442:	df02      	svc	2
   26444:	9113      	str	r1, [sp, #76]	@ 0x4c
   26446:	287f      	cmp	r0, #127	@ 0x7f
   26448:	d802      	bhi.n	26450 <_start+0x6328>
   2644a:	9811      	ldr	r0, [sp, #68]	@ 0x44
   2644c:	900e      	str	r0, [sp, #56]	@ 0x38
   2644e:	e028      	b.n	264a2 <_start+0x637a>
   26450:	a8ba      	add	r0, sp, #744	@ 0x2e8
   26452:	4c84      	ldr	r4, [pc, #528]	@ (26664 <_start+0x653c>)
   26454:	47a0      	blx	r4
   26456:	4d82      	ldr	r5, [pc, #520]	@ (26660 <_start+0x6538>)
   26458:	446d      	add	r5, sp
   2645a:	4628      	mov	r0, r5
   2645c:	47a0      	blx	r4
   2645e:	4628      	mov	r0, r5
   26460:	47a0      	blx	r4
   26462:	9a0c      	ldr	r2, [sp, #48]	@ 0x30
   26464:	7890      	ldrb	r0, [r2, #2]
   26466:	a9e4      	add	r1, sp, #912	@ 0x390
   26468:	7088      	strb	r0, [r1, #2]
   2646a:	7810      	ldrb	r0, [r2, #0]
   2646c:	7852      	ldrb	r2, [r2, #1]
   2646e:	0212      	lsls	r2, r2, #8
   26470:	1810      	adds	r0, r2, r0
   26472:	8008      	strh	r0, [r1, #0]
   26474:	7ca8      	ldrb	r0, [r5, #18]
   26476:	9013      	str	r0, [sp, #76]	@ 0x4c
   26478:	7c68      	ldrb	r0, [r5, #17]
   2647a:	900c      	str	r0, [sp, #48]	@ 0x30
   2647c:	7be8      	ldrb	r0, [r5, #15]
   2647e:	900b      	str	r0, [sp, #44]	@ 0x2c
   26480:	7c2c      	ldrb	r4, [r5, #16]
   26482:	3513      	adds	r5, #19
   26484:	a8a3      	add	r0, sp, #652	@ 0x28c
   26486:	223d      	movs	r2, #61	@ 0x3d
   26488:	4629      	mov	r1, r5
   2648a:	f001 f82a 	bl	274e2 <__aeabi_memcpy>
   2648e:	0220      	lsls	r0, r4, #8
   26490:	990b      	ldr	r1, [sp, #44]	@ 0x2c
   26492:	1840      	adds	r0, r0, r1
   26494:	990c      	ldr	r1, [sp, #48]	@ 0x30
   26496:	0409      	lsls	r1, r1, #16
   26498:	9a13      	ldr	r2, [sp, #76]	@ 0x4c
   2649a:	0612      	lsls	r2, r2, #24
   2649c:	1851      	adds	r1, r2, r1
   2649e:	1808      	adds	r0, r1, r0
   264a0:	9013      	str	r0, [sp, #76]	@ 0x4c
   264a2:	486f      	ldr	r0, [pc, #444]	@ (26660 <_start+0x6538>)
   264a4:	4468      	add	r0, sp
   264a6:	f000 fe5b 	bl	27160 <_ZN9allow_pin12full_dynamic17unshare_if_shared17hc38d0bd70fd52db9E>
   264aa:	a8ba      	add	r0, sp, #744	@ 0x2e8
   264ac:	f000 fe58 	bl	27160 <_ZN9allow_pin12full_dynamic17unshare_if_shared17hc38d0bd70fd52db9E>
   264b0:	980e      	ldr	r0, [sp, #56]	@ 0x38
   264b2:	2800      	cmp	r0, #0
   264b4:	d001      	beq.n	264ba <_start+0x6392>
   264b6:	f000 fdce 	bl	27056 <_start+0x6f2e>
   264ba:	4d69      	ldr	r5, [pc, #420]	@ (26660 <_start+0x6538>)
   264bc:	446d      	add	r5, sp
   264be:	4628      	mov	r0, r5
   264c0:	300c      	adds	r0, #12
   264c2:	a9e4      	add	r1, sp, #912	@ 0x390
   264c4:	2203      	movs	r2, #3
   264c6:	920e      	str	r2, [sp, #56]	@ 0x38
   264c8:	f001 f80b 	bl	274e2 <__aeabi_memcpy>
   264cc:	4866      	ldr	r0, [pc, #408]	@ (26668 <_start+0x6540>)
   264ce:	4468      	add	r0, sp
   264d0:	900c      	str	r0, [sp, #48]	@ 0x30
   264d2:	a9a3      	add	r1, sp, #652	@ 0x28c
   264d4:	243d      	movs	r4, #61	@ 0x3d
   264d6:	4622      	mov	r2, r4
   264d8:	f001 f803 	bl	274e2 <__aeabi_memcpy>
   264dc:	4628      	mov	r0, r5
   264de:	3013      	adds	r0, #19
   264e0:	990c      	ldr	r1, [sp, #48]	@ 0x30
   264e2:	4622      	mov	r2, r4
   264e4:	f000 fffd 	bl	274e2 <__aeabi_memcpy>
   264e8:	9913      	ldr	r1, [sp, #76]	@ 0x4c
   264ea:	0e08      	lsrs	r0, r1, #24
   264ec:	74a8      	strb	r0, [r5, #18]
   264ee:	0c08      	lsrs	r0, r1, #16
   264f0:	7468      	strb	r0, [r5, #17]
   264f2:	0a08      	lsrs	r0, r1, #8
   264f4:	7428      	strb	r0, [r5, #16]
   264f6:	73e9      	strb	r1, [r5, #15]
   264f8:	9812      	ldr	r0, [sp, #72]	@ 0x48
   264fa:	7228      	strb	r0, [r5, #8]
   264fc:	4c5a      	ldr	r4, [pc, #360]	@ (26668 <_start+0x6540>)
   264fe:	446c      	add	r4, sp
   26500:	4620      	mov	r0, r4
   26502:	300c      	adds	r0, #12
   26504:	2123      	movs	r1, #35	@ 0x23
   26506:	900b      	str	r0, [sp, #44]	@ 0x2c
   26508:	f000 fe3e 	bl	27188 <__aeabi_memclr4>
   2650c:	9812      	ldr	r0, [sp, #72]	@ 0x48
   2650e:	7220      	strb	r0, [r4, #8]
   26510:	980f      	ldr	r0, [sp, #60]	@ 0x3c
   26512:	9000      	str	r0, [sp, #0]
   26514:	4b57      	ldr	r3, [pc, #348]	@ (26674 <_start+0x654c>)
   26516:	33a2      	adds	r3, #162	@ 0xa2
   26518:	2144      	movs	r1, #68	@ 0x44
   2651a:	2204      	movs	r2, #4
   2651c:	4628      	mov	r0, r5
   2651e:	920c      	str	r2, [sp, #48]	@ 0x30
   26520:	461c      	mov	r4, r3
   26522:	f7f9 fddf 	bl	200e4 <_ZN9allow_pin12full_dynamic15Buffer$LT$B$GT$5allow17h6d4ce413c213cdffE>
   26526:	9113      	str	r1, [sp, #76]	@ 0x4c
   26528:	07c0      	lsls	r0, r0, #31
   2652a:	d113      	bne.n	26554 <_start+0x642c>
   2652c:	9a0e      	ldr	r2, [sp, #56]	@ 0x38
   2652e:	9200      	str	r2, [sp, #0]
   26530:	484d      	ldr	r0, [pc, #308]	@ (26668 <_start+0x6540>)
   26532:	4468      	add	r0, sp
   26534:	2123      	movs	r1, #35	@ 0x23
   26536:	4623      	mov	r3, r4
   26538:	f7f9 fdd4 	bl	200e4 <_ZN9allow_pin12full_dynamic15Buffer$LT$B$GT$5allow17h6d4ce413c213cdffE>
   2653c:	9113      	str	r1, [sp, #76]	@ 0x4c
   2653e:	07c0      	lsls	r0, r0, #31
   26540:	d108      	bne.n	26554 <_start+0x642c>
   26542:	484d      	ldr	r0, [pc, #308]	@ (26678 <_start+0x6550>)
   26544:	2106      	movs	r1, #6
   26546:	2203      	movs	r2, #3
   26548:	2300      	movs	r3, #0
   2654a:	930e      	str	r3, [sp, #56]	@ 0x38
   2654c:	df02      	svc	2
   2654e:	9113      	str	r1, [sp, #76]	@ 0x4c
   26550:	287f      	cmp	r0, #127	@ 0x7f
   26552:	d802      	bhi.n	2655a <_start+0x6432>
   26554:	9811      	ldr	r0, [sp, #68]	@ 0x44
   26556:	900e      	str	r0, [sp, #56]	@ 0x38
   26558:	e029      	b.n	265ae <_start+0x6486>
   2655a:	4841      	ldr	r0, [pc, #260]	@ (26660 <_start+0x6538>)
   2655c:	4468      	add	r0, sp
   2655e:	4c41      	ldr	r4, [pc, #260]	@ (26664 <_start+0x653c>)
   26560:	47a0      	blx	r4
   26562:	4d41      	ldr	r5, [pc, #260]	@ (26668 <_start+0x6540>)
   26564:	446d      	add	r5, sp
   26566:	4628      	mov	r0, r5
   26568:	47a0      	blx	r4
   2656a:	4628      	mov	r0, r5
   2656c:	47a0      	blx	r4
   2656e:	9a0b      	ldr	r2, [sp, #44]	@ 0x2c
   26570:	7890      	ldrb	r0, [r2, #2]
   26572:	a9ba      	add	r1, sp, #744	@ 0x2e8
   26574:	7088      	strb	r0, [r1, #2]
   26576:	7810      	ldrb	r0, [r2, #0]
   26578:	7852      	ldrb	r2, [r2, #1]
   2657a:	0212      	lsls	r2, r2, #8
   2657c:	1810      	adds	r0, r2, r0
   2657e:	8008      	strh	r0, [r1, #0]
   26580:	7ca8      	ldrb	r0, [r5, #18]
   26582:	9013      	str	r0, [sp, #76]	@ 0x4c
   26584:	7c68      	ldrb	r0, [r5, #17]
   26586:	900b      	str	r0, [sp, #44]	@ 0x2c
   26588:	7be8      	ldrb	r0, [r5, #15]
   2658a:	900a      	str	r0, [sp, #40]	@ 0x28
   2658c:	7c2c      	ldrb	r4, [r5, #16]
   2658e:	3513      	adds	r5, #19
   26590:	a8a3      	add	r0, sp, #652	@ 0x28c
   26592:	221c      	movs	r2, #28
   26594:	4629      	mov	r1, r5
   26596:	f000 ffa4 	bl	274e2 <__aeabi_memcpy>
   2659a:	0220      	lsls	r0, r4, #8
   2659c:	990a      	ldr	r1, [sp, #40]	@ 0x28
   2659e:	1840      	adds	r0, r0, r1
   265a0:	990b      	ldr	r1, [sp, #44]	@ 0x2c
   265a2:	0409      	lsls	r1, r1, #16
   265a4:	9a13      	ldr	r2, [sp, #76]	@ 0x4c
   265a6:	0612      	lsls	r2, r2, #24
   265a8:	1851      	adds	r1, r2, r1
   265aa:	1808      	adds	r0, r1, r0
   265ac:	9013      	str	r0, [sp, #76]	@ 0x4c
   265ae:	482e      	ldr	r0, [pc, #184]	@ (26668 <_start+0x6540>)
   265b0:	4468      	add	r0, sp
   265b2:	f000 fdd5 	bl	27160 <_ZN9allow_pin12full_dynamic17unshare_if_shared17hc38d0bd70fd52db9E>
   265b6:	482a      	ldr	r0, [pc, #168]	@ (26660 <_start+0x6538>)
   265b8:	4468      	add	r0, sp
   265ba:	f000 fdd1 	bl	27160 <_ZN9allow_pin12full_dynamic17unshare_if_shared17hc38d0bd70fd52db9E>
   265be:	980e      	ldr	r0, [sp, #56]	@ 0x38
   265c0:	2800      	cmp	r0, #0
   265c2:	d001      	beq.n	265c8 <_start+0x64a0>
   265c4:	f000 fd47 	bl	27056 <_start+0x6f2e>
   265c8:	4c27      	ldr	r4, [pc, #156]	@ (26668 <_start+0x6540>)
   265ca:	446c      	add	r4, sp
   265cc:	4620      	mov	r0, r4
   265ce:	300c      	adds	r0, #12
   265d0:	a9ba      	add	r1, sp, #744	@ 0x2e8
   265d2:	2203      	movs	r2, #3
   265d4:	f000 ff85 	bl	274e2 <__aeabi_memcpy>
   265d8:	a8ff      	add	r0, sp, #1020	@ 0x3fc
   265da:	30b4      	adds	r0, #180	@ 0xb4
   265dc:	900e      	str	r0, [sp, #56]	@ 0x38
   265de:	a9a3      	add	r1, sp, #652	@ 0x28c
   265e0:	251c      	movs	r5, #28
   265e2:	462a      	mov	r2, r5
   265e4:	f000 ff7d 	bl	274e2 <__aeabi_memcpy>
   265e8:	9913      	ldr	r1, [sp, #76]	@ 0x4c
   265ea:	0e08      	lsrs	r0, r1, #24
   265ec:	74a0      	strb	r0, [r4, #18]
   265ee:	0c08      	lsrs	r0, r1, #16
   265f0:	7460      	strb	r0, [r4, #17]
   265f2:	0a08      	lsrs	r0, r1, #8
   265f4:	7420      	strb	r0, [r4, #16]
   265f6:	73e1      	strb	r1, [r4, #15]
   265f8:	9812      	ldr	r0, [sp, #72]	@ 0x48
   265fa:	7220      	strb	r0, [r4, #8]
   265fc:	4620      	mov	r0, r4
   265fe:	3013      	adds	r0, #19
   26600:	990e      	ldr	r1, [sp, #56]	@ 0x38
   26602:	462a      	mov	r2, r5
   26604:	f000 ff6d 	bl	274e2 <__aeabi_memcpy>
   26608:	4d15      	ldr	r5, [pc, #84]	@ (26660 <_start+0x6538>)
   2660a:	446d      	add	r5, sp
   2660c:	4628      	mov	r0, r5
   2660e:	300c      	adds	r0, #12
   26610:	2124      	movs	r1, #36	@ 0x24
   26612:	900b      	str	r0, [sp, #44]	@ 0x2c
   26614:	f000 fdb8 	bl	27188 <__aeabi_memclr4>
   26618:	9812      	ldr	r0, [sp, #72]	@ 0x48
   2661a:	7228      	strb	r0, [r5, #8]
   2661c:	9a0c      	ldr	r2, [sp, #48]	@ 0x30
   2661e:	9200      	str	r2, [sp, #0]
   26620:	2123      	movs	r1, #35	@ 0x23
   26622:	4620      	mov	r0, r4
   26624:	4b15      	ldr	r3, [pc, #84]	@ (2667c <_start+0x6554>)
   26626:	f7f9 fd5d 	bl	200e4 <_ZN9allow_pin12full_dynamic15Buffer$LT$B$GT$5allow17h6d4ce413c213cdffE>
   2662a:	9113      	str	r1, [sp, #76]	@ 0x4c
   2662c:	07c0      	lsls	r0, r0, #31
   2662e:	d114      	bne.n	2665a <_start+0x6532>
   26630:	9810      	ldr	r0, [sp, #64]	@ 0x40
   26632:	9000      	str	r0, [sp, #0]
   26634:	480a      	ldr	r0, [pc, #40]	@ (26660 <_start+0x6538>)
   26636:	4468      	add	r0, sp
   26638:	2124      	movs	r1, #36	@ 0x24
   2663a:	2203      	movs	r2, #3
   2663c:	4b0f      	ldr	r3, [pc, #60]	@ (2667c <_start+0x6554>)
   2663e:	f7f9 fd51 	bl	200e4 <_ZN9allow_pin12full_dynamic15Buffer$LT$B$GT$5allow17h6d4ce413c213cdffE>
   26642:	9113      	str	r1, [sp, #76]	@ 0x4c
   26644:	07c0      	lsls	r0, r0, #31
   26646:	d108      	bne.n	2665a <_start+0x6532>
   26648:	480c      	ldr	r0, [pc, #48]	@ (2667c <_start+0x6554>)
   2664a:	2104      	movs	r1, #4
   2664c:	2208      	movs	r2, #8
   2664e:	2300      	movs	r3, #0
   26650:	930e      	str	r3, [sp, #56]	@ 0x38
   26652:	df02      	svc	2
   26654:	9113      	str	r1, [sp, #76]	@ 0x4c
   26656:	287f      	cmp	r0, #127	@ 0x7f
   26658:	d812      	bhi.n	26680 <_start+0x6558>
   2665a:	9811      	ldr	r0, [sp, #68]	@ 0x44
   2665c:	900e      	str	r0, [sp, #56]	@ 0x38
   2665e:	e039      	b.n	266d4 <_start+0x65ac>
   26660:	000005cc 	.word	0x000005cc
   26664:	00027161 	.word	0x00027161
   26668:	00000568 	.word	0x00000568
   2666c:	000023cf 	.word	0x000023cf
   26670:	00002432 	.word	0x00002432
   26674:	0000091d 	.word	0x0000091d
   26678:	000009bf 	.word	0x000009bf
   2667c:	00001bd6 	.word	0x00001bd6
   26680:	48c4      	ldr	r0, [pc, #784]	@ (26994 <_start+0x686c>)
   26682:	4468      	add	r0, sp
   26684:	4dc4      	ldr	r5, [pc, #784]	@ (26998 <_start+0x6870>)
   26686:	47a8      	blx	r5
   26688:	4cc4      	ldr	r4, [pc, #784]	@ (2699c <_start+0x6874>)
   2668a:	446c      	add	r4, sp
   2668c:	4620      	mov	r0, r4
   2668e:	47a8      	blx	r5
   26690:	4620      	mov	r0, r4
   26692:	47a8      	blx	r5
   26694:	9a0b      	ldr	r2, [sp, #44]	@ 0x2c
   26696:	7890      	ldrb	r0, [r2, #2]
   26698:	a9e4      	add	r1, sp, #912	@ 0x390
   2669a:	7088      	strb	r0, [r1, #2]
   2669c:	7810      	ldrb	r0, [r2, #0]
   2669e:	7852      	ldrb	r2, [r2, #1]
   266a0:	0212      	lsls	r2, r2, #8
   266a2:	1810      	adds	r0, r2, r0
   266a4:	8008      	strh	r0, [r1, #0]
   266a6:	7ca0      	ldrb	r0, [r4, #18]
   266a8:	9013      	str	r0, [sp, #76]	@ 0x4c
   266aa:	7c60      	ldrb	r0, [r4, #17]
   266ac:	900c      	str	r0, [sp, #48]	@ 0x30
   266ae:	7be0      	ldrb	r0, [r4, #15]
   266b0:	900b      	str	r0, [sp, #44]	@ 0x2c
   266b2:	7c25      	ldrb	r5, [r4, #16]
   266b4:	3413      	adds	r4, #19
   266b6:	a8ba      	add	r0, sp, #744	@ 0x2e8
   266b8:	221d      	movs	r2, #29
   266ba:	4621      	mov	r1, r4
   266bc:	f000 ff11 	bl	274e2 <__aeabi_memcpy>
   266c0:	0228      	lsls	r0, r5, #8
   266c2:	990b      	ldr	r1, [sp, #44]	@ 0x2c
   266c4:	1840      	adds	r0, r0, r1
   266c6:	990c      	ldr	r1, [sp, #48]	@ 0x30
   266c8:	0409      	lsls	r1, r1, #16
   266ca:	9a13      	ldr	r2, [sp, #76]	@ 0x4c
   266cc:	0612      	lsls	r2, r2, #24
   266ce:	1851      	adds	r1, r2, r1
   266d0:	1808      	adds	r0, r1, r0
   266d2:	9013      	str	r0, [sp, #76]	@ 0x4c
   266d4:	48b1      	ldr	r0, [pc, #708]	@ (2699c <_start+0x6874>)
   266d6:	4468      	add	r0, sp
   266d8:	f000 fd42 	bl	27160 <_ZN9allow_pin12full_dynamic17unshare_if_shared17hc38d0bd70fd52db9E>
   266dc:	48ad      	ldr	r0, [pc, #692]	@ (26994 <_start+0x686c>)
   266de:	4468      	add	r0, sp
   266e0:	f000 fd3e 	bl	27160 <_ZN9allow_pin12full_dynamic17unshare_if_shared17hc38d0bd70fd52db9E>
   266e4:	980e      	ldr	r0, [sp, #56]	@ 0x38
   266e6:	2800      	cmp	r0, #0
   266e8:	d001      	beq.n	266ee <_start+0x65c6>
   266ea:	f000 fcb4 	bl	27056 <_start+0x6f2e>
   266ee:	4ca9      	ldr	r4, [pc, #676]	@ (26994 <_start+0x686c>)
   266f0:	446c      	add	r4, sp
   266f2:	4620      	mov	r0, r4
   266f4:	300c      	adds	r0, #12
   266f6:	a9e4      	add	r1, sp, #912	@ 0x390
   266f8:	2203      	movs	r2, #3
   266fa:	f000 fef2 	bl	274e2 <__aeabi_memcpy>
   266fe:	a8a3      	add	r0, sp, #652	@ 0x28c
   26700:	900e      	str	r0, [sp, #56]	@ 0x38
   26702:	a9ba      	add	r1, sp, #744	@ 0x2e8
   26704:	251d      	movs	r5, #29
   26706:	462a      	mov	r2, r5
   26708:	f000 feeb 	bl	274e2 <__aeabi_memcpy>
   2670c:	4620      	mov	r0, r4
   2670e:	3013      	adds	r0, #19
   26710:	990e      	ldr	r1, [sp, #56]	@ 0x38
   26712:	462a      	mov	r2, r5
   26714:	f000 fee5 	bl	274e2 <__aeabi_memcpy>
   26718:	9913      	ldr	r1, [sp, #76]	@ 0x4c
   2671a:	0e08      	lsrs	r0, r1, #24
   2671c:	74a0      	strb	r0, [r4, #18]
   2671e:	0c08      	lsrs	r0, r1, #16
   26720:	7460      	strb	r0, [r4, #17]
   26722:	0a08      	lsrs	r0, r1, #8
   26724:	7420      	strb	r0, [r4, #16]
   26726:	73e1      	strb	r1, [r4, #15]
   26728:	9812      	ldr	r0, [sp, #72]	@ 0x48
   2672a:	7220      	strb	r0, [r4, #8]
   2672c:	4d9b      	ldr	r5, [pc, #620]	@ (2699c <_start+0x6874>)
   2672e:	446d      	add	r5, sp
   26730:	4628      	mov	r0, r5
   26732:	300c      	adds	r0, #12
   26734:	212f      	movs	r1, #47	@ 0x2f
   26736:	900c      	str	r0, [sp, #48]	@ 0x30
   26738:	f000 fd26 	bl	27188 <__aeabi_memclr4>
   2673c:	9812      	ldr	r0, [sp, #72]	@ 0x48
   2673e:	7228      	strb	r0, [r5, #8]
   26740:	980f      	ldr	r0, [sp, #60]	@ 0x3c
   26742:	9000      	str	r0, [sp, #0]
   26744:	2124      	movs	r1, #36	@ 0x24
   26746:	2204      	movs	r2, #4
   26748:	4620      	mov	r0, r4
   2674a:	4b95      	ldr	r3, [pc, #596]	@ (269a0 <_start+0x6878>)
   2674c:	f7f9 fcca 	bl	200e4 <_ZN9allow_pin12full_dynamic15Buffer$LT$B$GT$5allow17h6d4ce413c213cdffE>
   26750:	9113      	str	r1, [sp, #76]	@ 0x4c
   26752:	07c0      	lsls	r0, r0, #31
   26754:	d114      	bne.n	26780 <_start+0x6658>
   26756:	980d      	ldr	r0, [sp, #52]	@ 0x34
   26758:	9000      	str	r0, [sp, #0]
   2675a:	4890      	ldr	r0, [pc, #576]	@ (2699c <_start+0x6874>)
   2675c:	4468      	add	r0, sp
   2675e:	212f      	movs	r1, #47	@ 0x2f
   26760:	2203      	movs	r2, #3
   26762:	4b8f      	ldr	r3, [pc, #572]	@ (269a0 <_start+0x6878>)
   26764:	f7f9 fcbe 	bl	200e4 <_ZN9allow_pin12full_dynamic15Buffer$LT$B$GT$5allow17h6d4ce413c213cdffE>
   26768:	9113      	str	r1, [sp, #76]	@ 0x4c
   2676a:	07c0      	lsls	r0, r0, #31
   2676c:	d108      	bne.n	26780 <_start+0x6658>
   2676e:	488c      	ldr	r0, [pc, #560]	@ (269a0 <_start+0x6878>)
   26770:	2106      	movs	r1, #6
   26772:	2209      	movs	r2, #9
   26774:	2300      	movs	r3, #0
   26776:	930e      	str	r3, [sp, #56]	@ 0x38
   26778:	df02      	svc	2
   2677a:	9113      	str	r1, [sp, #76]	@ 0x4c
   2677c:	287f      	cmp	r0, #127	@ 0x7f
   2677e:	d802      	bhi.n	26786 <_start+0x665e>
   26780:	9811      	ldr	r0, [sp, #68]	@ 0x44
   26782:	900e      	str	r0, [sp, #56]	@ 0x38
   26784:	e029      	b.n	267da <_start+0x66b2>
   26786:	4883      	ldr	r0, [pc, #524]	@ (26994 <_start+0x686c>)
   26788:	4468      	add	r0, sp
   2678a:	4d83      	ldr	r5, [pc, #524]	@ (26998 <_start+0x6870>)
   2678c:	47a8      	blx	r5
   2678e:	4c83      	ldr	r4, [pc, #524]	@ (2699c <_start+0x6874>)
   26790:	446c      	add	r4, sp
   26792:	4620      	mov	r0, r4
   26794:	47a8      	blx	r5
   26796:	4620      	mov	r0, r4
   26798:	47a8      	blx	r5
   2679a:	9a0c      	ldr	r2, [sp, #48]	@ 0x30
   2679c:	7890      	ldrb	r0, [r2, #2]
   2679e:	a9e4      	add	r1, sp, #912	@ 0x390
   267a0:	7088      	strb	r0, [r1, #2]
   267a2:	7810      	ldrb	r0, [r2, #0]
   267a4:	7852      	ldrb	r2, [r2, #1]
   267a6:	0212      	lsls	r2, r2, #8
   267a8:	1810      	adds	r0, r2, r0
   267aa:	8008      	strh	r0, [r1, #0]
   267ac:	7ca0      	ldrb	r0, [r4, #18]
   267ae:	9013      	str	r0, [sp, #76]	@ 0x4c
   267b0:	7c60      	ldrb	r0, [r4, #17]
   267b2:	900d      	str	r0, [sp, #52]	@ 0x34
   267b4:	7be0      	ldrb	r0, [r4, #15]
   267b6:	900c      	str	r0, [sp, #48]	@ 0x30
   267b8:	7c25      	ldrb	r5, [r4, #16]
   267ba:	3413      	adds	r4, #19
   267bc:	a8a3      	add	r0, sp, #652	@ 0x28c
   267be:	2228      	movs	r2, #40	@ 0x28
   267c0:	4621      	mov	r1, r4
   267c2:	f000 fe8e 	bl	274e2 <__aeabi_memcpy>
   267c6:	0228      	lsls	r0, r5, #8
   267c8:	990c      	ldr	r1, [sp, #48]	@ 0x30
   267ca:	1840      	adds	r0, r0, r1
   267cc:	990d      	ldr	r1, [sp, #52]	@ 0x34
   267ce:	0409      	lsls	r1, r1, #16
   267d0:	9a13      	ldr	r2, [sp, #76]	@ 0x4c
   267d2:	0612      	lsls	r2, r2, #24
   267d4:	1851      	adds	r1, r2, r1
   267d6:	1808      	adds	r0, r1, r0
   267d8:	9013      	str	r0, [sp, #76]	@ 0x4c
   267da:	4870      	ldr	r0, [pc, #448]	@ (2699c <_start+0x6874>)
   267dc:	4468      	add	r0, sp
   267de:	f000 fcbf 	bl	27160 <_ZN9allow_pin12full_dynamic17unshare_if_shared17hc38d0bd70fd52db9E>
   267e2:	486c      	ldr	r0, [pc, #432]	@ (26994 <_start+0x686c>)
   267e4:	4468      	add	r0, sp
   267e6:	f000 fcbb 	bl	27160 <_ZN9allow_pin12full_dynamic17unshare_if_shared17hc38d0bd70fd52db9E>
   267ea:	980e      	ldr	r0, [sp, #56]	@ 0x38
   267ec:	2800      	cmp	r0, #0
   267ee:	d001      	beq.n	267f4 <_start+0x66cc>
   267f0:	f000 fc31 	bl	27056 <_start+0x6f2e>
   267f4:	adba      	add	r5, sp, #744	@ 0x2e8
   267f6:	4628      	mov	r0, r5
   267f8:	300c      	adds	r0, #12
   267fa:	a9e4      	add	r1, sp, #912	@ 0x390
   267fc:	2203      	movs	r2, #3
   267fe:	f000 fe70 	bl	274e2 <__aeabi_memcpy>
   26802:	a8ff      	add	r0, sp, #1020	@ 0x3fc
   26804:	30d0      	adds	r0, #208	@ 0xd0
   26806:	900e      	str	r0, [sp, #56]	@ 0x38
   26808:	a9a3      	add	r1, sp, #652	@ 0x28c
   2680a:	2428      	movs	r4, #40	@ 0x28
   2680c:	4622      	mov	r2, r4
   2680e:	f000 fe68 	bl	274e2 <__aeabi_memcpy>
   26812:	9913      	ldr	r1, [sp, #76]	@ 0x4c
   26814:	0e08      	lsrs	r0, r1, #24
   26816:	74a8      	strb	r0, [r5, #18]
   26818:	0c08      	lsrs	r0, r1, #16
   2681a:	7468      	strb	r0, [r5, #17]
   2681c:	0a08      	lsrs	r0, r1, #8
   2681e:	7428      	strb	r0, [r5, #16]
   26820:	73e9      	strb	r1, [r5, #15]
   26822:	9812      	ldr	r0, [sp, #72]	@ 0x48
   26824:	7228      	strb	r0, [r5, #8]
   26826:	4628      	mov	r0, r5
   26828:	3013      	adds	r0, #19
   2682a:	990e      	ldr	r1, [sp, #56]	@ 0x38
   2682c:	4622      	mov	r2, r4
   2682e:	f000 fe58 	bl	274e2 <__aeabi_memcpy>
   26832:	4c5a      	ldr	r4, [pc, #360]	@ (2699c <_start+0x6874>)
   26834:	446c      	add	r4, sp
   26836:	4620      	mov	r0, r4
   26838:	300c      	adds	r0, #12
   2683a:	215e      	movs	r1, #94	@ 0x5e
   2683c:	900d      	str	r0, [sp, #52]	@ 0x34
   2683e:	f000 fca3 	bl	27188 <__aeabi_memclr4>
   26842:	9812      	ldr	r0, [sp, #72]	@ 0x48
   26844:	7220      	strb	r0, [r4, #8]
   26846:	9803      	ldr	r0, [sp, #12]
   26848:	9000      	str	r0, [sp, #0]
   2684a:	9b05      	ldr	r3, [sp, #20]
   2684c:	33fd      	adds	r3, #253	@ 0xfd
   2684e:	212f      	movs	r1, #47	@ 0x2f
   26850:	2204      	movs	r2, #4
   26852:	4628      	mov	r0, r5
   26854:	461c      	mov	r4, r3
   26856:	f7f9 fc45 	bl	200e4 <_ZN9allow_pin12full_dynamic15Buffer$LT$B$GT$5allow17h6d4ce413c213cdffE>
   2685a:	9113      	str	r1, [sp, #76]	@ 0x4c
   2685c:	07c0      	lsls	r0, r0, #31
   2685e:	d114      	bne.n	2688a <_start+0x6762>
   26860:	9812      	ldr	r0, [sp, #72]	@ 0x48
   26862:	9000      	str	r0, [sp, #0]
   26864:	484d      	ldr	r0, [pc, #308]	@ (2699c <_start+0x6874>)
   26866:	4468      	add	r0, sp
   26868:	215e      	movs	r1, #94	@ 0x5e
   2686a:	2203      	movs	r2, #3
   2686c:	4623      	mov	r3, r4
   2686e:	f7f9 fc39 	bl	200e4 <_ZN9allow_pin12full_dynamic15Buffer$LT$B$GT$5allow17h6d4ce413c213cdffE>
   26872:	9113      	str	r1, [sp, #76]	@ 0x4c
   26874:	07c0      	lsls	r0, r0, #31
   26876:	d108      	bne.n	2688a <_start+0x6762>
   26878:	484a      	ldr	r0, [pc, #296]	@ (269a4 <_start+0x687c>)
   2687a:	2105      	movs	r1, #5
   2687c:	2202      	movs	r2, #2
   2687e:	2300      	movs	r3, #0
   26880:	930e      	str	r3, [sp, #56]	@ 0x38
   26882:	df02      	svc	2
   26884:	9113      	str	r1, [sp, #76]	@ 0x4c
   26886:	287f      	cmp	r0, #127	@ 0x7f
   26888:	d802      	bhi.n	26890 <_start+0x6768>
   2688a:	9811      	ldr	r0, [sp, #68]	@ 0x44
   2688c:	900e      	str	r0, [sp, #56]	@ 0x38
   2688e:	e028      	b.n	268e2 <_start+0x67ba>
   26890:	a8ba      	add	r0, sp, #744	@ 0x2e8
   26892:	4c41      	ldr	r4, [pc, #260]	@ (26998 <_start+0x6870>)
   26894:	47a0      	blx	r4
   26896:	4d41      	ldr	r5, [pc, #260]	@ (2699c <_start+0x6874>)
   26898:	446d      	add	r5, sp
   2689a:	4628      	mov	r0, r5
   2689c:	47a0      	blx	r4
   2689e:	4628      	mov	r0, r5
   268a0:	47a0      	blx	r4
   268a2:	9a0d      	ldr	r2, [sp, #52]	@ 0x34
   268a4:	7890      	ldrb	r0, [r2, #2]
   268a6:	a9e4      	add	r1, sp, #912	@ 0x390
   268a8:	7088      	strb	r0, [r1, #2]
   268aa:	7810      	ldrb	r0, [r2, #0]
   268ac:	7852      	ldrb	r2, [r2, #1]
   268ae:	0212      	lsls	r2, r2, #8
   268b0:	1810      	adds	r0, r2, r0
   268b2:	8008      	strh	r0, [r1, #0]
   268b4:	7ca8      	ldrb	r0, [r5, #18]
   268b6:	9013      	str	r0, [sp, #76]	@ 0x4c
   268b8:	7c68      	ldrb	r0, [r5, #17]
   268ba:	900d      	str	r0, [sp, #52]	@ 0x34
   268bc:	7be8      	ldrb	r0, [r5, #15]
   268be:	900c      	str	r0, [sp, #48]	@ 0x30
   268c0:	7c2c      	ldrb	r4, [r5, #16]
   268c2:	3513      	adds	r5, #19
   268c4:	a8a3      	add	r0, sp, #652	@ 0x28c
   268c6:	2257      	movs	r2, #87	@ 0x57
   268c8:	4629      	mov	r1, r5
   268ca:	f000 fe0a 	bl	274e2 <__aeabi_memcpy>
   268ce:	0220      	lsls	r0, r4, #8
   268d0:	990c      	ldr	r1, [sp, #48]	@ 0x30
   268d2:	1840      	adds	r0, r0, r1
   268d4:	990d      	ldr	r1, [sp, #52]	@ 0x34
   268d6:	0409      	lsls	r1, r1, #16
   268d8:	9a13      	ldr	r2, [sp, #76]	@ 0x4c
   268da:	0612      	lsls	r2, r2, #24
   268dc:	1851      	adds	r1, r2, r1
   268de:	1808      	adds	r0, r1, r0
   268e0:	9013      	str	r0, [sp, #76]	@ 0x4c
   268e2:	482e      	ldr	r0, [pc, #184]	@ (2699c <_start+0x6874>)
   268e4:	4468      	add	r0, sp
   268e6:	f000 fc3b 	bl	27160 <_ZN9allow_pin12full_dynamic17unshare_if_shared17hc38d0bd70fd52db9E>
   268ea:	a8ba      	add	r0, sp, #744	@ 0x2e8
   268ec:	f000 fc38 	bl	27160 <_ZN9allow_pin12full_dynamic17unshare_if_shared17hc38d0bd70fd52db9E>
   268f0:	980e      	ldr	r0, [sp, #56]	@ 0x38
   268f2:	2800      	cmp	r0, #0
   268f4:	d000      	beq.n	268f8 <_start+0x67d0>
   268f6:	e3ae      	b.n	27056 <_start+0x6f2e>
   268f8:	4c28      	ldr	r4, [pc, #160]	@ (2699c <_start+0x6874>)
   268fa:	446c      	add	r4, sp
   268fc:	4620      	mov	r0, r4
   268fe:	300c      	adds	r0, #12
   26900:	a9e4      	add	r1, sp, #912	@ 0x390
   26902:	2203      	movs	r2, #3
   26904:	920e      	str	r2, [sp, #56]	@ 0x38
   26906:	f000 fdec 	bl	274e2 <__aeabi_memcpy>
   2690a:	4822      	ldr	r0, [pc, #136]	@ (26994 <_start+0x686c>)
   2690c:	4468      	add	r0, sp
   2690e:	900d      	str	r0, [sp, #52]	@ 0x34
   26910:	a9a3      	add	r1, sp, #652	@ 0x28c
   26912:	2557      	movs	r5, #87	@ 0x57
   26914:	462a      	mov	r2, r5
   26916:	f000 fc84 	bl	27222 <__aeabi_memcpy4>
   2691a:	4620      	mov	r0, r4
   2691c:	3013      	adds	r0, #19
   2691e:	990d      	ldr	r1, [sp, #52]	@ 0x34
   26920:	462a      	mov	r2, r5
   26922:	f000 fdde 	bl	274e2 <__aeabi_memcpy>
   26926:	9913      	ldr	r1, [sp, #76]	@ 0x4c
   26928:	0e08      	lsrs	r0, r1, #24
   2692a:	74a0      	strb	r0, [r4, #18]
   2692c:	0c08      	lsrs	r0, r1, #16
   2692e:	7460      	strb	r0, [r4, #17]
   26930:	0a08      	lsrs	r0, r1, #8
   26932:	7420      	strb	r0, [r4, #16]
   26934:	73e1      	strb	r1, [r4, #15]
   26936:	9812      	ldr	r0, [sp, #72]	@ 0x48
   26938:	7220      	strb	r0, [r4, #8]
   2693a:	4d16      	ldr	r5, [pc, #88]	@ (26994 <_start+0x686c>)
   2693c:	446d      	add	r5, sp
   2693e:	4628      	mov	r0, r5
   26940:	300c      	adds	r0, #12
   26942:	2155      	movs	r1, #85	@ 0x55
   26944:	900d      	str	r0, [sp, #52]	@ 0x34
   26946:	f000 fc1f 	bl	27188 <__aeabi_memclr4>
   2694a:	9812      	ldr	r0, [sp, #72]	@ 0x48
   2694c:	7228      	strb	r0, [r5, #8]
   2694e:	9807      	ldr	r0, [sp, #28]
   26950:	9000      	str	r0, [sp, #0]
   26952:	215e      	movs	r1, #94	@ 0x5e
   26954:	2204      	movs	r2, #4
   26956:	4620      	mov	r0, r4
   26958:	4b13      	ldr	r3, [pc, #76]	@ (269a8 <_start+0x6880>)
   2695a:	f7f9 fbc3 	bl	200e4 <_ZN9allow_pin12full_dynamic15Buffer$LT$B$GT$5allow17h6d4ce413c213cdffE>
   2695e:	9113      	str	r1, [sp, #76]	@ 0x4c
   26960:	07c0      	lsls	r0, r0, #31
   26962:	d113      	bne.n	2698c <_start+0x6864>
   26964:	9a0e      	ldr	r2, [sp, #56]	@ 0x38
   26966:	9200      	str	r2, [sp, #0]
   26968:	480a      	ldr	r0, [pc, #40]	@ (26994 <_start+0x686c>)
   2696a:	4468      	add	r0, sp
   2696c:	2155      	movs	r1, #85	@ 0x55
   2696e:	4b0e      	ldr	r3, [pc, #56]	@ (269a8 <_start+0x6880>)
   26970:	f7f9 fbb8 	bl	200e4 <_ZN9allow_pin12full_dynamic15Buffer$LT$B$GT$5allow17h6d4ce413c213cdffE>
   26974:	9113      	str	r1, [sp, #76]	@ 0x4c
   26976:	07c0      	lsls	r0, r0, #31
   26978:	d108      	bne.n	2698c <_start+0x6864>
   2697a:	480b      	ldr	r0, [pc, #44]	@ (269a8 <_start+0x6880>)
   2697c:	2107      	movs	r1, #7
   2697e:	2203      	movs	r2, #3
   26980:	2300      	movs	r3, #0
   26982:	930e      	str	r3, [sp, #56]	@ 0x38
   26984:	df02      	svc	2
   26986:	9113      	str	r1, [sp, #76]	@ 0x4c
   26988:	287f      	cmp	r0, #127	@ 0x7f
   2698a:	d80f      	bhi.n	269ac <_start+0x6884>
   2698c:	9811      	ldr	r0, [sp, #68]	@ 0x44
   2698e:	900e      	str	r0, [sp, #56]	@ 0x38
   26990:	e036      	b.n	26a00 <_start+0x68d8>
   26992:	46c0      	nop			@ (mov r8, r8)
   26994:	00000568 	.word	0x00000568
   26998:	00027161 	.word	0x00027161
   2699c:	000005cc 	.word	0x000005cc
   269a0:	00001273 	.word	0x00001273
   269a4:	0000022b 	.word	0x0000022b
   269a8:	0000178a 	.word	0x0000178a
   269ac:	48c3      	ldr	r0, [pc, #780]	@ (26cbc <_start+0x6b94>)
   269ae:	4468      	add	r0, sp
   269b0:	4dc3      	ldr	r5, [pc, #780]	@ (26cc0 <_start+0x6b98>)
   269b2:	47a8      	blx	r5
   269b4:	4cc3      	ldr	r4, [pc, #780]	@ (26cc4 <_start+0x6b9c>)
   269b6:	446c      	add	r4, sp
   269b8:	4620      	mov	r0, r4
   269ba:	47a8      	blx	r5
   269bc:	4620      	mov	r0, r4
   269be:	47a8      	blx	r5
   269c0:	9a0d      	ldr	r2, [sp, #52]	@ 0x34
   269c2:	7890      	ldrb	r0, [r2, #2]
   269c4:	a9e4      	add	r1, sp, #912	@ 0x390
   269c6:	7088      	strb	r0, [r1, #2]
   269c8:	7810      	ldrb	r0, [r2, #0]
   269ca:	7852      	ldrb	r2, [r2, #1]
   269cc:	0212      	lsls	r2, r2, #8
   269ce:	1810      	adds	r0, r2, r0
   269d0:	8008      	strh	r0, [r1, #0]
   269d2:	7ca0      	ldrb	r0, [r4, #18]
   269d4:	9013      	str	r0, [sp, #76]	@ 0x4c
   269d6:	7c60      	ldrb	r0, [r4, #17]
   269d8:	900d      	str	r0, [sp, #52]	@ 0x34
   269da:	7be0      	ldrb	r0, [r4, #15]
   269dc:	900c      	str	r0, [sp, #48]	@ 0x30
   269de:	7c25      	ldrb	r5, [r4, #16]
   269e0:	3413      	adds	r4, #19
   269e2:	a8ba      	add	r0, sp, #744	@ 0x2e8
   269e4:	224e      	movs	r2, #78	@ 0x4e
   269e6:	4621      	mov	r1, r4
   269e8:	f000 fd7b 	bl	274e2 <__aeabi_memcpy>
   269ec:	0228      	lsls	r0, r5, #8
   269ee:	990c      	ldr	r1, [sp, #48]	@ 0x30
   269f0:	1840      	adds	r0, r0, r1
   269f2:	990d      	ldr	r1, [sp, #52]	@ 0x34
   269f4:	0409      	lsls	r1, r1, #16
   269f6:	9a13      	ldr	r2, [sp, #76]	@ 0x4c
   269f8:	0612      	lsls	r2, r2, #24
   269fa:	1851      	adds	r1, r2, r1
   269fc:	1808      	adds	r0, r1, r0
   269fe:	9013      	str	r0, [sp, #76]	@ 0x4c
   26a00:	48b0      	ldr	r0, [pc, #704]	@ (26cc4 <_start+0x6b9c>)
   26a02:	4468      	add	r0, sp
   26a04:	f000 fbac 	bl	27160 <_ZN9allow_pin12full_dynamic17unshare_if_shared17hc38d0bd70fd52db9E>
   26a08:	48ac      	ldr	r0, [pc, #688]	@ (26cbc <_start+0x6b94>)
   26a0a:	4468      	add	r0, sp
   26a0c:	f000 fba8 	bl	27160 <_ZN9allow_pin12full_dynamic17unshare_if_shared17hc38d0bd70fd52db9E>
   26a10:	980e      	ldr	r0, [sp, #56]	@ 0x38
   26a12:	2800      	cmp	r0, #0
   26a14:	d000      	beq.n	26a18 <_start+0x68f0>
   26a16:	e31e      	b.n	27056 <_start+0x6f2e>
   26a18:	4da8      	ldr	r5, [pc, #672]	@ (26cbc <_start+0x6b94>)
   26a1a:	446d      	add	r5, sp
   26a1c:	4628      	mov	r0, r5
   26a1e:	300c      	adds	r0, #12
   26a20:	a9e4      	add	r1, sp, #912	@ 0x390
   26a22:	2203      	movs	r2, #3
   26a24:	f000 fd5d 	bl	274e2 <__aeabi_memcpy>
   26a28:	a8a3      	add	r0, sp, #652	@ 0x28c
   26a2a:	900e      	str	r0, [sp, #56]	@ 0x38
   26a2c:	a9ba      	add	r1, sp, #744	@ 0x2e8
   26a2e:	244e      	movs	r4, #78	@ 0x4e
   26a30:	4622      	mov	r2, r4
   26a32:	f000 fbf6 	bl	27222 <__aeabi_memcpy4>
   26a36:	4628      	mov	r0, r5
   26a38:	3013      	adds	r0, #19
   26a3a:	990e      	ldr	r1, [sp, #56]	@ 0x38
   26a3c:	4622      	mov	r2, r4
   26a3e:	f000 fd50 	bl	274e2 <__aeabi_memcpy>
   26a42:	9913      	ldr	r1, [sp, #76]	@ 0x4c
   26a44:	0e08      	lsrs	r0, r1, #24
   26a46:	74a8      	strb	r0, [r5, #18]
   26a48:	0c08      	lsrs	r0, r1, #16
   26a4a:	7468      	strb	r0, [r5, #17]
   26a4c:	0a08      	lsrs	r0, r1, #8
   26a4e:	7428      	strb	r0, [r5, #16]
   26a50:	73e9      	strb	r1, [r5, #15]
   26a52:	9c12      	ldr	r4, [sp, #72]	@ 0x48
   26a54:	722c      	strb	r4, [r5, #8]
   26a56:	489b      	ldr	r0, [pc, #620]	@ (26cc4 <_start+0x6b9c>)
   26a58:	4468      	add	r0, sp
   26a5a:	9013      	str	r0, [sp, #76]	@ 0x4c
   26a5c:	300c      	adds	r0, #12
   26a5e:	2111      	movs	r1, #17
   26a60:	900d      	str	r0, [sp, #52]	@ 0x34
   26a62:	f000 fb91 	bl	27188 <__aeabi_memclr4>
   26a66:	9813      	ldr	r0, [sp, #76]	@ 0x4c
   26a68:	7204      	strb	r4, [r0, #8]
   26a6a:	9400      	str	r4, [sp, #0]
   26a6c:	4b96      	ldr	r3, [pc, #600]	@ (26cc8 <_start+0x6ba0>)
   26a6e:	334b      	adds	r3, #75	@ 0x4b
   26a70:	2155      	movs	r1, #85	@ 0x55
   26a72:	2204      	movs	r2, #4
   26a74:	4628      	mov	r0, r5
   26a76:	461c      	mov	r4, r3
   26a78:	f7f9 fb34 	bl	200e4 <_ZN9allow_pin12full_dynamic15Buffer$LT$B$GT$5allow17h6d4ce413c213cdffE>
   26a7c:	9113      	str	r1, [sp, #76]	@ 0x4c
   26a7e:	07c0      	lsls	r0, r0, #31
   26a80:	d114      	bne.n	26aac <_start+0x6984>
   26a82:	9812      	ldr	r0, [sp, #72]	@ 0x48
   26a84:	9000      	str	r0, [sp, #0]
   26a86:	488f      	ldr	r0, [pc, #572]	@ (26cc4 <_start+0x6b9c>)
   26a88:	4468      	add	r0, sp
   26a8a:	2111      	movs	r1, #17
   26a8c:	2203      	movs	r2, #3
   26a8e:	4623      	mov	r3, r4
   26a90:	f7f9 fb28 	bl	200e4 <_ZN9allow_pin12full_dynamic15Buffer$LT$B$GT$5allow17h6d4ce413c213cdffE>
   26a94:	9113      	str	r1, [sp, #76]	@ 0x4c
   26a96:	07c0      	lsls	r0, r0, #31
   26a98:	d108      	bne.n	26aac <_start+0x6984>
   26a9a:	488c      	ldr	r0, [pc, #560]	@ (26ccc <_start+0x6ba4>)
   26a9c:	2102      	movs	r1, #2
   26a9e:	2300      	movs	r3, #0
   26aa0:	460a      	mov	r2, r1
   26aa2:	930e      	str	r3, [sp, #56]	@ 0x38
   26aa4:	df02      	svc	2
   26aa6:	9113      	str	r1, [sp, #76]	@ 0x4c
   26aa8:	287f      	cmp	r0, #127	@ 0x7f
   26aaa:	d802      	bhi.n	26ab2 <_start+0x698a>
   26aac:	9811      	ldr	r0, [sp, #68]	@ 0x44
   26aae:	900e      	str	r0, [sp, #56]	@ 0x38
   26ab0:	e02a      	b.n	26b08 <_start+0x69e0>
   26ab2:	4882      	ldr	r0, [pc, #520]	@ (26cbc <_start+0x6b94>)
   26ab4:	4468      	add	r0, sp
   26ab6:	4c82      	ldr	r4, [pc, #520]	@ (26cc0 <_start+0x6b98>)
   26ab8:	47a0      	blx	r4
   26aba:	4d82      	ldr	r5, [pc, #520]	@ (26cc4 <_start+0x6b9c>)
   26abc:	446d      	add	r5, sp
   26abe:	4628      	mov	r0, r5
   26ac0:	47a0      	blx	r4
   26ac2:	4628      	mov	r0, r5
   26ac4:	47a0      	blx	r4
   26ac6:	9a0d      	ldr	r2, [sp, #52]	@ 0x34
   26ac8:	7890      	ldrb	r0, [r2, #2]
   26aca:	a9ff      	add	r1, sp, #1020	@ 0x3fc
   26acc:	31f8      	adds	r1, #248	@ 0xf8
   26ace:	7088      	strb	r0, [r1, #2]
   26ad0:	7810      	ldrb	r0, [r2, #0]
   26ad2:	7852      	ldrb	r2, [r2, #1]
   26ad4:	0212      	lsls	r2, r2, #8
   26ad6:	1810      	adds	r0, r2, r0
   26ad8:	8008      	strh	r0, [r1, #0]
   26ada:	7ca8      	ldrb	r0, [r5, #18]
   26adc:	9013      	str	r0, [sp, #76]	@ 0x4c
   26ade:	7c68      	ldrb	r0, [r5, #17]
   26ae0:	900d      	str	r0, [sp, #52]	@ 0x34
   26ae2:	7be8      	ldrb	r0, [r5, #15]
   26ae4:	900c      	str	r0, [sp, #48]	@ 0x30
   26ae6:	7c2c      	ldrb	r4, [r5, #16]
   26ae8:	3513      	adds	r5, #19
   26aea:	a8e4      	add	r0, sp, #912	@ 0x390
   26aec:	220a      	movs	r2, #10
   26aee:	4629      	mov	r1, r5
   26af0:	f000 fcf7 	bl	274e2 <__aeabi_memcpy>
   26af4:	0220      	lsls	r0, r4, #8
   26af6:	990c      	ldr	r1, [sp, #48]	@ 0x30
   26af8:	1840      	adds	r0, r0, r1
   26afa:	990d      	ldr	r1, [sp, #52]	@ 0x34
   26afc:	0409      	lsls	r1, r1, #16
   26afe:	9a13      	ldr	r2, [sp, #76]	@ 0x4c
   26b00:	0612      	lsls	r2, r2, #24
   26b02:	1851      	adds	r1, r2, r1
   26b04:	1808      	adds	r0, r1, r0
   26b06:	9013      	str	r0, [sp, #76]	@ 0x4c
   26b08:	486e      	ldr	r0, [pc, #440]	@ (26cc4 <_start+0x6b9c>)
   26b0a:	4468      	add	r0, sp
   26b0c:	f000 fb28 	bl	27160 <_ZN9allow_pin12full_dynamic17unshare_if_shared17hc38d0bd70fd52db9E>
   26b10:	486a      	ldr	r0, [pc, #424]	@ (26cbc <_start+0x6b94>)
   26b12:	4468      	add	r0, sp
   26b14:	f000 fb24 	bl	27160 <_ZN9allow_pin12full_dynamic17unshare_if_shared17hc38d0bd70fd52db9E>
   26b18:	980e      	ldr	r0, [sp, #56]	@ 0x38
   26b1a:	2800      	cmp	r0, #0
   26b1c:	d000      	beq.n	26b20 <_start+0x69f8>
   26b1e:	e29a      	b.n	27056 <_start+0x6f2e>
   26b20:	acba      	add	r4, sp, #744	@ 0x2e8
   26b22:	4620      	mov	r0, r4
   26b24:	300c      	adds	r0, #12
   26b26:	a9ff      	add	r1, sp, #1020	@ 0x3fc
   26b28:	31f8      	adds	r1, #248	@ 0xf8
   26b2a:	2203      	movs	r2, #3
   26b2c:	f000 fcd9 	bl	274e2 <__aeabi_memcpy>
   26b30:	a8e4      	add	r0, sp, #912	@ 0x390
   26b32:	a9a3      	add	r1, sp, #652	@ 0x28c
   26b34:	460a      	mov	r2, r1
   26b36:	c828      	ldmia	r0!, {r3, r5}
   26b38:	c228      	stmia	r2!, {r3, r5}
   26b3a:	8800      	ldrh	r0, [r0, #0]
   26b3c:	8010      	strh	r0, [r2, #0]
   26b3e:	4620      	mov	r0, r4
   26b40:	3013      	adds	r0, #19
   26b42:	220a      	movs	r2, #10
   26b44:	f000 fccd 	bl	274e2 <__aeabi_memcpy>
   26b48:	9913      	ldr	r1, [sp, #76]	@ 0x4c
   26b4a:	0e08      	lsrs	r0, r1, #24
   26b4c:	74a0      	strb	r0, [r4, #18]
   26b4e:	0c08      	lsrs	r0, r1, #16
   26b50:	7460      	strb	r0, [r4, #17]
   26b52:	0a08      	lsrs	r0, r1, #8
   26b54:	7420      	strb	r0, [r4, #16]
   26b56:	73e1      	strb	r1, [r4, #15]
   26b58:	9812      	ldr	r0, [sp, #72]	@ 0x48
   26b5a:	7220      	strb	r0, [r4, #8]
   26b5c:	4d57      	ldr	r5, [pc, #348]	@ (26cbc <_start+0x6b94>)
   26b5e:	446d      	add	r5, sp
   26b60:	4628      	mov	r0, r5
   26b62:	300c      	adds	r0, #12
   26b64:	2150      	movs	r1, #80	@ 0x50
   26b66:	900e      	str	r0, [sp, #56]	@ 0x38
   26b68:	f000 fb0e 	bl	27188 <__aeabi_memclr4>
   26b6c:	9812      	ldr	r0, [sp, #72]	@ 0x48
   26b6e:	7228      	strb	r0, [r5, #8]
   26b70:	980f      	ldr	r0, [sp, #60]	@ 0x3c
   26b72:	9000      	str	r0, [sp, #0]
   26b74:	2111      	movs	r1, #17
   26b76:	2204      	movs	r2, #4
   26b78:	4620      	mov	r0, r4
   26b7a:	4b55      	ldr	r3, [pc, #340]	@ (26cd0 <_start+0x6ba8>)
   26b7c:	f7f9 fab2 	bl	200e4 <_ZN9allow_pin12full_dynamic15Buffer$LT$B$GT$5allow17h6d4ce413c213cdffE>
   26b80:	9113      	str	r1, [sp, #76]	@ 0x4c
   26b82:	07c0      	lsls	r0, r0, #31
   26b84:	d114      	bne.n	26bb0 <_start+0x6a88>
   26b86:	9803      	ldr	r0, [sp, #12]
   26b88:	9000      	str	r0, [sp, #0]
   26b8a:	484c      	ldr	r0, [pc, #304]	@ (26cbc <_start+0x6b94>)
   26b8c:	4468      	add	r0, sp
   26b8e:	2150      	movs	r1, #80	@ 0x50
   26b90:	2203      	movs	r2, #3
   26b92:	4b4f      	ldr	r3, [pc, #316]	@ (26cd0 <_start+0x6ba8>)
   26b94:	f7f9 faa6 	bl	200e4 <_ZN9allow_pin12full_dynamic15Buffer$LT$B$GT$5allow17h6d4ce413c213cdffE>
   26b98:	9113      	str	r1, [sp, #76]	@ 0x4c
   26b9a:	07c0      	lsls	r0, r0, #31
   26b9c:	d108      	bne.n	26bb0 <_start+0x6a88>
   26b9e:	484c      	ldr	r0, [pc, #304]	@ (26cd0 <_start+0x6ba8>)
   26ba0:	2106      	movs	r1, #6
   26ba2:	2205      	movs	r2, #5
   26ba4:	2300      	movs	r3, #0
   26ba6:	930f      	str	r3, [sp, #60]	@ 0x3c
   26ba8:	df02      	svc	2
   26baa:	9113      	str	r1, [sp, #76]	@ 0x4c
   26bac:	287f      	cmp	r0, #127	@ 0x7f
   26bae:	d802      	bhi.n	26bb6 <_start+0x6a8e>
   26bb0:	9811      	ldr	r0, [sp, #68]	@ 0x44
   26bb2:	900f      	str	r0, [sp, #60]	@ 0x3c
   26bb4:	e028      	b.n	26c08 <_start+0x6ae0>
   26bb6:	a8ba      	add	r0, sp, #744	@ 0x2e8
   26bb8:	4d41      	ldr	r5, [pc, #260]	@ (26cc0 <_start+0x6b98>)
   26bba:	47a8      	blx	r5
   26bbc:	4c3f      	ldr	r4, [pc, #252]	@ (26cbc <_start+0x6b94>)
   26bbe:	446c      	add	r4, sp
   26bc0:	4620      	mov	r0, r4
   26bc2:	47a8      	blx	r5
   26bc4:	4620      	mov	r0, r4
   26bc6:	47a8      	blx	r5
   26bc8:	9a0e      	ldr	r2, [sp, #56]	@ 0x38
   26bca:	7890      	ldrb	r0, [r2, #2]
   26bcc:	a9e4      	add	r1, sp, #912	@ 0x390
   26bce:	7088      	strb	r0, [r1, #2]
   26bd0:	7810      	ldrb	r0, [r2, #0]
   26bd2:	7852      	ldrb	r2, [r2, #1]
   26bd4:	0212      	lsls	r2, r2, #8
   26bd6:	1810      	adds	r0, r2, r0
   26bd8:	8008      	strh	r0, [r1, #0]
   26bda:	7ca0      	ldrb	r0, [r4, #18]
   26bdc:	9013      	str	r0, [sp, #76]	@ 0x4c
   26bde:	7c60      	ldrb	r0, [r4, #17]
   26be0:	900e      	str	r0, [sp, #56]	@ 0x38
   26be2:	7be0      	ldrb	r0, [r4, #15]
   26be4:	900d      	str	r0, [sp, #52]	@ 0x34
   26be6:	7c25      	ldrb	r5, [r4, #16]
   26be8:	3413      	adds	r4, #19
   26bea:	a8a3      	add	r0, sp, #652	@ 0x28c
   26bec:	2249      	movs	r2, #73	@ 0x49
   26bee:	4621      	mov	r1, r4
   26bf0:	f000 fc77 	bl	274e2 <__aeabi_memcpy>
   26bf4:	0228      	lsls	r0, r5, #8
   26bf6:	990d      	ldr	r1, [sp, #52]	@ 0x34
   26bf8:	1840      	adds	r0, r0, r1
   26bfa:	990e      	ldr	r1, [sp, #56]	@ 0x38
   26bfc:	0409      	lsls	r1, r1, #16
   26bfe:	9a13      	ldr	r2, [sp, #76]	@ 0x4c
   26c00:	0612      	lsls	r2, r2, #24
   26c02:	1851      	adds	r1, r2, r1
   26c04:	1808      	adds	r0, r1, r0
   26c06:	9013      	str	r0, [sp, #76]	@ 0x4c
   26c08:	482c      	ldr	r0, [pc, #176]	@ (26cbc <_start+0x6b94>)
   26c0a:	4468      	add	r0, sp
   26c0c:	f000 faa8 	bl	27160 <_ZN9allow_pin12full_dynamic17unshare_if_shared17hc38d0bd70fd52db9E>
   26c10:	a8ba      	add	r0, sp, #744	@ 0x2e8
   26c12:	f000 faa5 	bl	27160 <_ZN9allow_pin12full_dynamic17unshare_if_shared17hc38d0bd70fd52db9E>
   26c16:	980f      	ldr	r0, [sp, #60]	@ 0x3c
   26c18:	2800      	cmp	r0, #0
   26c1a:	d000      	beq.n	26c1e <_start+0x6af6>
   26c1c:	e21b      	b.n	27056 <_start+0x6f2e>
   26c1e:	4d27      	ldr	r5, [pc, #156]	@ (26cbc <_start+0x6b94>)
   26c20:	446d      	add	r5, sp
   26c22:	4628      	mov	r0, r5
   26c24:	300c      	adds	r0, #12
   26c26:	a9e4      	add	r1, sp, #912	@ 0x390
   26c28:	2203      	movs	r2, #3
   26c2a:	920e      	str	r2, [sp, #56]	@ 0x38
   26c2c:	f000 fc59 	bl	274e2 <__aeabi_memcpy>
   26c30:	4824      	ldr	r0, [pc, #144]	@ (26cc4 <_start+0x6b9c>)
   26c32:	4468      	add	r0, sp
   26c34:	900f      	str	r0, [sp, #60]	@ 0x3c
   26c36:	a9a3      	add	r1, sp, #652	@ 0x28c
   26c38:	2449      	movs	r4, #73	@ 0x49
   26c3a:	4622      	mov	r2, r4
   26c3c:	f000 faf1 	bl	27222 <__aeabi_memcpy4>
   26c40:	4628      	mov	r0, r5
   26c42:	3013      	adds	r0, #19
   26c44:	990f      	ldr	r1, [sp, #60]	@ 0x3c
   26c46:	4622      	mov	r2, r4
   26c48:	f000 fc4b 	bl	274e2 <__aeabi_memcpy>
   26c4c:	9913      	ldr	r1, [sp, #76]	@ 0x4c
   26c4e:	0e08      	lsrs	r0, r1, #24
   26c50:	74a8      	strb	r0, [r5, #18]
   26c52:	0c08      	lsrs	r0, r1, #16
   26c54:	7468      	strb	r0, [r5, #17]
   26c56:	0a08      	lsrs	r0, r1, #8
   26c58:	7428      	strb	r0, [r5, #16]
   26c5a:	73e9      	strb	r1, [r5, #15]
   26c5c:	9812      	ldr	r0, [sp, #72]	@ 0x48
   26c5e:	7228      	strb	r0, [r5, #8]
   26c60:	4c18      	ldr	r4, [pc, #96]	@ (26cc4 <_start+0x6b9c>)
   26c62:	446c      	add	r4, sp
   26c64:	4620      	mov	r0, r4
   26c66:	300c      	adds	r0, #12
   26c68:	211b      	movs	r1, #27
   26c6a:	900d      	str	r0, [sp, #52]	@ 0x34
   26c6c:	f000 fa8c 	bl	27188 <__aeabi_memclr4>
   26c70:	9812      	ldr	r0, [sp, #72]	@ 0x48
   26c72:	7220      	strb	r0, [r4, #8]
   26c74:	9600      	str	r6, [sp, #0]
   26c76:	4b17      	ldr	r3, [pc, #92]	@ (26cd4 <_start+0x6bac>)
   26c78:	33ab      	adds	r3, #171	@ 0xab
   26c7a:	2150      	movs	r1, #80	@ 0x50
   26c7c:	2204      	movs	r2, #4
   26c7e:	4628      	mov	r0, r5
   26c80:	461c      	mov	r4, r3
   26c82:	f7f9 fa2f 	bl	200e4 <_ZN9allow_pin12full_dynamic15Buffer$LT$B$GT$5allow17h6d4ce413c213cdffE>
   26c86:	9113      	str	r1, [sp, #76]	@ 0x4c
   26c88:	07c0      	lsls	r0, r0, #31
   26c8a:	d114      	bne.n	26cb6 <_start+0x6b8e>
   26c8c:	9812      	ldr	r0, [sp, #72]	@ 0x48
   26c8e:	9000      	str	r0, [sp, #0]
   26c90:	480c      	ldr	r0, [pc, #48]	@ (26cc4 <_start+0x6b9c>)
   26c92:	4468      	add	r0, sp
   26c94:	211b      	movs	r1, #27
   26c96:	2203      	movs	r2, #3
   26c98:	4623      	mov	r3, r4
   26c9a:	f7f9 fa23 	bl	200e4 <_ZN9allow_pin12full_dynamic15Buffer$LT$B$GT$5allow17h6d4ce413c213cdffE>
   26c9e:	9113      	str	r1, [sp, #76]	@ 0x4c
   26ca0:	07c0      	lsls	r0, r0, #31
   26ca2:	d108      	bne.n	26cb6 <_start+0x6b8e>
   26ca4:	480c      	ldr	r0, [pc, #48]	@ (26cd8 <_start+0x6bb0>)
   26ca6:	2101      	movs	r1, #1
   26ca8:	2202      	movs	r2, #2
   26caa:	2300      	movs	r3, #0
   26cac:	930f      	str	r3, [sp, #60]	@ 0x3c
   26cae:	df02      	svc	2
   26cb0:	9113      	str	r1, [sp, #76]	@ 0x4c
   26cb2:	287f      	cmp	r0, #127	@ 0x7f
   26cb4:	d812      	bhi.n	26cdc <_start+0x6bb4>
   26cb6:	9811      	ldr	r0, [sp, #68]	@ 0x44
   26cb8:	900f      	str	r0, [sp, #60]	@ 0x3c
   26cba:	e039      	b.n	26d30 <_start+0x6c08>
   26cbc:	000005cc 	.word	0x000005cc
   26cc0:	00027161 	.word	0x00027161
   26cc4:	00000568 	.word	0x00000568
   26cc8:	00000c3e 	.word	0x00000c3e
   26ccc:	00000c89 	.word	0x00000c89
   26cd0:	00001aa9 	.word	0x00001aa9
   26cd4:	0000032e 	.word	0x0000032e
   26cd8:	000003d9 	.word	0x000003d9
   26cdc:	48e1      	ldr	r0, [pc, #900]	@ (27064 <_start+0x6f3c>)
   26cde:	4468      	add	r0, sp
   26ce0:	4ce1      	ldr	r4, [pc, #900]	@ (27068 <_start+0x6f40>)
   26ce2:	47a0      	blx	r4
   26ce4:	4de1      	ldr	r5, [pc, #900]	@ (2706c <_start+0x6f44>)
   26ce6:	446d      	add	r5, sp
   26ce8:	4628      	mov	r0, r5
   26cea:	47a0      	blx	r4
   26cec:	4628      	mov	r0, r5
   26cee:	47a0      	blx	r4
   26cf0:	9a0d      	ldr	r2, [sp, #52]	@ 0x34
   26cf2:	7890      	ldrb	r0, [r2, #2]
   26cf4:	a9e4      	add	r1, sp, #912	@ 0x390
   26cf6:	7088      	strb	r0, [r1, #2]
   26cf8:	7810      	ldrb	r0, [r2, #0]
   26cfa:	7852      	ldrb	r2, [r2, #1]
   26cfc:	0212      	lsls	r2, r2, #8
   26cfe:	1810      	adds	r0, r2, r0
   26d00:	8008      	strh	r0, [r1, #0]
   26d02:	7ca8      	ldrb	r0, [r5, #18]
   26d04:	9013      	str	r0, [sp, #76]	@ 0x4c
   26d06:	7c68      	ldrb	r0, [r5, #17]
   26d08:	900d      	str	r0, [sp, #52]	@ 0x34
   26d0a:	7be8      	ldrb	r0, [r5, #15]
   26d0c:	900c      	str	r0, [sp, #48]	@ 0x30
   26d0e:	7c2c      	ldrb	r4, [r5, #16]
   26d10:	3513      	adds	r5, #19
   26d12:	a8ba      	add	r0, sp, #744	@ 0x2e8
   26d14:	2214      	movs	r2, #20
   26d16:	4629      	mov	r1, r5
   26d18:	f000 fbe3 	bl	274e2 <__aeabi_memcpy>
   26d1c:	0220      	lsls	r0, r4, #8
   26d1e:	990c      	ldr	r1, [sp, #48]	@ 0x30
   26d20:	1840      	adds	r0, r0, r1
   26d22:	990d      	ldr	r1, [sp, #52]	@ 0x34
   26d24:	0409      	lsls	r1, r1, #16
   26d26:	9a13      	ldr	r2, [sp, #76]	@ 0x4c
   26d28:	0612      	lsls	r2, r2, #24
   26d2a:	1851      	adds	r1, r2, r1
   26d2c:	1808      	adds	r0, r1, r0
   26d2e:	9013      	str	r0, [sp, #76]	@ 0x4c
   26d30:	48ce      	ldr	r0, [pc, #824]	@ (2706c <_start+0x6f44>)
   26d32:	4468      	add	r0, sp
   26d34:	f000 fa14 	bl	27160 <_ZN9allow_pin12full_dynamic17unshare_if_shared17hc38d0bd70fd52db9E>
   26d38:	48ca      	ldr	r0, [pc, #808]	@ (27064 <_start+0x6f3c>)
   26d3a:	4468      	add	r0, sp
   26d3c:	f000 fa10 	bl	27160 <_ZN9allow_pin12full_dynamic17unshare_if_shared17hc38d0bd70fd52db9E>
   26d40:	980f      	ldr	r0, [sp, #60]	@ 0x3c
   26d42:	2800      	cmp	r0, #0
   26d44:	d000      	beq.n	26d48 <_start+0x6c20>
   26d46:	e186      	b.n	27056 <_start+0x6f2e>
   26d48:	aca3      	add	r4, sp, #652	@ 0x28c
   26d4a:	4620      	mov	r0, r4
   26d4c:	300c      	adds	r0, #12
   26d4e:	a9e4      	add	r1, sp, #912	@ 0x390
   26d50:	9a0e      	ldr	r2, [sp, #56]	@ 0x38
   26d52:	f000 fbc6 	bl	274e2 <__aeabi_memcpy>
   26d56:	a8ff      	add	r0, sp, #1020	@ 0x3fc
   26d58:	30fc      	adds	r0, #252	@ 0xfc
   26d5a:	900f      	str	r0, [sp, #60]	@ 0x3c
   26d5c:	a9ba      	add	r1, sp, #744	@ 0x2e8
   26d5e:	2514      	movs	r5, #20
   26d60:	462a      	mov	r2, r5
   26d62:	f000 fbbe 	bl	274e2 <__aeabi_memcpy>
   26d66:	9913      	ldr	r1, [sp, #76]	@ 0x4c
   26d68:	0e08      	lsrs	r0, r1, #24
   26d6a:	74a0      	strb	r0, [r4, #18]
   26d6c:	0c08      	lsrs	r0, r1, #16
   26d6e:	7460      	strb	r0, [r4, #17]
   26d70:	0a08      	lsrs	r0, r1, #8
   26d72:	7420      	strb	r0, [r4, #16]
   26d74:	73e1      	strb	r1, [r4, #15]
   26d76:	9812      	ldr	r0, [sp, #72]	@ 0x48
   26d78:	7220      	strb	r0, [r4, #8]
   26d7a:	4620      	mov	r0, r4
   26d7c:	3013      	adds	r0, #19
   26d7e:	990f      	ldr	r1, [sp, #60]	@ 0x3c
   26d80:	462a      	mov	r2, r5
   26d82:	f000 fbae 	bl	274e2 <__aeabi_memcpy>
   26d86:	4df4      	ldr	r5, [pc, #976]	@ (27158 <_start+0x7030>)
   26d88:	446d      	add	r5, sp
   26d8a:	4628      	mov	r0, r5
   26d8c:	300c      	adds	r0, #12
   26d8e:	2163      	movs	r1, #99	@ 0x63
   26d90:	900d      	str	r0, [sp, #52]	@ 0x34
   26d92:	f000 f9f9 	bl	27188 <__aeabi_memclr4>
   26d96:	9812      	ldr	r0, [sp, #72]	@ 0x48
   26d98:	7228      	strb	r0, [r5, #8]
   26d9a:	980e      	ldr	r0, [sp, #56]	@ 0x38
   26d9c:	9000      	str	r0, [sp, #0]
   26d9e:	4dea      	ldr	r5, [pc, #936]	@ (27148 <_start+0x7020>)
   26da0:	3558      	adds	r5, #88	@ 0x58
   26da2:	211b      	movs	r1, #27
   26da4:	2204      	movs	r2, #4
   26da6:	4620      	mov	r0, r4
   26da8:	462b      	mov	r3, r5
   26daa:	f7f9 f99b 	bl	200e4 <_ZN9allow_pin12full_dynamic15Buffer$LT$B$GT$5allow17h6d4ce413c213cdffE>
   26dae:	9113      	str	r1, [sp, #76]	@ 0x4c
   26db0:	07c0      	lsls	r0, r0, #31
   26db2:	d113      	bne.n	26ddc <_start+0x6cb4>
   26db4:	9a0e      	ldr	r2, [sp, #56]	@ 0x38
   26db6:	9200      	str	r2, [sp, #0]
   26db8:	48e7      	ldr	r0, [pc, #924]	@ (27158 <_start+0x7030>)
   26dba:	4468      	add	r0, sp
   26dbc:	2163      	movs	r1, #99	@ 0x63
   26dbe:	462b      	mov	r3, r5
   26dc0:	f7f9 f990 	bl	200e4 <_ZN9allow_pin12full_dynamic15Buffer$LT$B$GT$5allow17h6d4ce413c213cdffE>
   26dc4:	9113      	str	r1, [sp, #76]	@ 0x4c
   26dc6:	07c0      	lsls	r0, r0, #31
   26dc8:	d108      	bne.n	26ddc <_start+0x6cb4>
   26dca:	48e0      	ldr	r0, [pc, #896]	@ (2714c <_start+0x7024>)
   26dcc:	2103      	movs	r1, #3
   26dce:	2300      	movs	r3, #0
   26dd0:	460a      	mov	r2, r1
   26dd2:	930f      	str	r3, [sp, #60]	@ 0x3c
   26dd4:	df02      	svc	2
   26dd6:	9113      	str	r1, [sp, #76]	@ 0x4c
   26dd8:	287f      	cmp	r0, #127	@ 0x7f
   26dda:	d802      	bhi.n	26de2 <_start+0x6cba>
   26ddc:	9811      	ldr	r0, [sp, #68]	@ 0x44
   26dde:	900f      	str	r0, [sp, #60]	@ 0x3c
   26de0:	e029      	b.n	26e36 <_start+0x6d0e>
   26de2:	a8a3      	add	r0, sp, #652	@ 0x28c
   26de4:	4dd6      	ldr	r5, [pc, #856]	@ (27140 <_start+0x7018>)
   26de6:	47a8      	blx	r5
   26de8:	4cdb      	ldr	r4, [pc, #876]	@ (27158 <_start+0x7030>)
   26dea:	446c      	add	r4, sp
   26dec:	4620      	mov	r0, r4
   26dee:	47a8      	blx	r5
   26df0:	4620      	mov	r0, r4
   26df2:	47a8      	blx	r5
   26df4:	9a0d      	ldr	r2, [sp, #52]	@ 0x34
   26df6:	7890      	ldrb	r0, [r2, #2]
   26df8:	a9ba      	add	r1, sp, #744	@ 0x2e8
   26dfa:	7088      	strb	r0, [r1, #2]
   26dfc:	7810      	ldrb	r0, [r2, #0]
   26dfe:	7852      	ldrb	r2, [r2, #1]
   26e00:	0212      	lsls	r2, r2, #8
   26e02:	1810      	adds	r0, r2, r0
   26e04:	8008      	strh	r0, [r1, #0]
   26e06:	7ca0      	ldrb	r0, [r4, #18]
   26e08:	9013      	str	r0, [sp, #76]	@ 0x4c
   26e0a:	7c60      	ldrb	r0, [r4, #17]
   26e0c:	900e      	str	r0, [sp, #56]	@ 0x38
   26e0e:	7be0      	ldrb	r0, [r4, #15]
   26e10:	900d      	str	r0, [sp, #52]	@ 0x34
   26e12:	7c25      	ldrb	r5, [r4, #16]
   26e14:	3413      	adds	r4, #19
   26e16:	48cf      	ldr	r0, [pc, #828]	@ (27154 <_start+0x702c>)
   26e18:	4468      	add	r0, sp
   26e1a:	225c      	movs	r2, #92	@ 0x5c
   26e1c:	4621      	mov	r1, r4
   26e1e:	f000 fb60 	bl	274e2 <__aeabi_memcpy>
   26e22:	0228      	lsls	r0, r5, #8
   26e24:	990d      	ldr	r1, [sp, #52]	@ 0x34
   26e26:	1840      	adds	r0, r0, r1
   26e28:	990e      	ldr	r1, [sp, #56]	@ 0x38
   26e2a:	0409      	lsls	r1, r1, #16
   26e2c:	9a13      	ldr	r2, [sp, #76]	@ 0x4c
   26e2e:	0612      	lsls	r2, r2, #24
   26e30:	1851      	adds	r1, r2, r1
   26e32:	1808      	adds	r0, r1, r0
   26e34:	9013      	str	r0, [sp, #76]	@ 0x4c
   26e36:	48c8      	ldr	r0, [pc, #800]	@ (27158 <_start+0x7030>)
   26e38:	4468      	add	r0, sp
   26e3a:	f000 f991 	bl	27160 <_ZN9allow_pin12full_dynamic17unshare_if_shared17hc38d0bd70fd52db9E>
   26e3e:	a8a3      	add	r0, sp, #652	@ 0x28c
   26e40:	f000 f98e 	bl	27160 <_ZN9allow_pin12full_dynamic17unshare_if_shared17hc38d0bd70fd52db9E>
   26e44:	980f      	ldr	r0, [sp, #60]	@ 0x3c
   26e46:	2800      	cmp	r0, #0
   26e48:	d000      	beq.n	26e4c <_start+0x6d24>
   26e4a:	e104      	b.n	27056 <_start+0x6f2e>
   26e4c:	4dc2      	ldr	r5, [pc, #776]	@ (27158 <_start+0x7030>)
   26e4e:	446d      	add	r5, sp
   26e50:	4628      	mov	r0, r5
   26e52:	300c      	adds	r0, #12
   26e54:	a9ba      	add	r1, sp, #744	@ 0x2e8
   26e56:	2203      	movs	r2, #3
   26e58:	920e      	str	r2, [sp, #56]	@ 0x38
   26e5a:	f000 fb42 	bl	274e2 <__aeabi_memcpy>
   26e5e:	48bf      	ldr	r0, [pc, #764]	@ (2715c <_start+0x7034>)
   26e60:	4468      	add	r0, sp
   26e62:	900f      	str	r0, [sp, #60]	@ 0x3c
   26e64:	49bb      	ldr	r1, [pc, #748]	@ (27154 <_start+0x702c>)
   26e66:	4469      	add	r1, sp
   26e68:	245c      	movs	r4, #92	@ 0x5c
   26e6a:	4622      	mov	r2, r4
   26e6c:	f000 f9d9 	bl	27222 <__aeabi_memcpy4>
   26e70:	9913      	ldr	r1, [sp, #76]	@ 0x4c
   26e72:	0e08      	lsrs	r0, r1, #24
   26e74:	74a8      	strb	r0, [r5, #18]
   26e76:	0c08      	lsrs	r0, r1, #16
   26e78:	7468      	strb	r0, [r5, #17]
   26e7a:	0a08      	lsrs	r0, r1, #8
   26e7c:	7428      	strb	r0, [r5, #16]
   26e7e:	73e9      	strb	r1, [r5, #15]
   26e80:	9812      	ldr	r0, [sp, #72]	@ 0x48
   26e82:	7228      	strb	r0, [r5, #8]
   26e84:	4628      	mov	r0, r5
   26e86:	3013      	adds	r0, #19
   26e88:	990f      	ldr	r1, [sp, #60]	@ 0x3c
   26e8a:	4622      	mov	r2, r4
   26e8c:	f000 fb29 	bl	274e2 <__aeabi_memcpy>
   26e90:	4cb0      	ldr	r4, [pc, #704]	@ (27154 <_start+0x702c>)
   26e92:	446c      	add	r4, sp
   26e94:	4620      	mov	r0, r4
   26e96:	300c      	adds	r0, #12
   26e98:	212c      	movs	r1, #44	@ 0x2c
   26e9a:	900d      	str	r0, [sp, #52]	@ 0x34
   26e9c:	f000 f974 	bl	27188 <__aeabi_memclr4>
   26ea0:	9812      	ldr	r0, [sp, #72]	@ 0x48
   26ea2:	7220      	strb	r0, [r4, #8]
   26ea4:	9803      	ldr	r0, [sp, #12]
   26ea6:	9000      	str	r0, [sp, #0]
   26ea8:	2163      	movs	r1, #99	@ 0x63
   26eaa:	2204      	movs	r2, #4
   26eac:	2318      	movs	r3, #24
   26eae:	4628      	mov	r0, r5
   26eb0:	f7f9 f918 	bl	200e4 <_ZN9allow_pin12full_dynamic15Buffer$LT$B$GT$5allow17h6d4ce413c213cdffE>
   26eb4:	9113      	str	r1, [sp, #76]	@ 0x4c
   26eb6:	07c0      	lsls	r0, r0, #31
   26eb8:	d113      	bne.n	26ee2 <_start+0x6dba>
   26eba:	9a0e      	ldr	r2, [sp, #56]	@ 0x38
   26ebc:	9200      	str	r2, [sp, #0]
   26ebe:	48a5      	ldr	r0, [pc, #660]	@ (27154 <_start+0x702c>)
   26ec0:	4468      	add	r0, sp
   26ec2:	212c      	movs	r1, #44	@ 0x2c
   26ec4:	2318      	movs	r3, #24
   26ec6:	f7f9 f90d 	bl	200e4 <_ZN9allow_pin12full_dynamic15Buffer$LT$B$GT$5allow17h6d4ce413c213cdffE>
   26eca:	9113      	str	r1, [sp, #76]	@ 0x4c
   26ecc:	07c0      	lsls	r0, r0, #31
   26ece:	d108      	bne.n	26ee2 <_start+0x6dba>
   26ed0:	2018      	movs	r0, #24
   26ed2:	2105      	movs	r1, #5
   26ed4:	2203      	movs	r2, #3
   26ed6:	2300      	movs	r3, #0
   26ed8:	930f      	str	r3, [sp, #60]	@ 0x3c
   26eda:	df02      	svc	2
   26edc:	9113      	str	r1, [sp, #76]	@ 0x4c
   26ede:	287f      	cmp	r0, #127	@ 0x7f
   26ee0:	d802      	bhi.n	26ee8 <_start+0x6dc0>
   26ee2:	9811      	ldr	r0, [sp, #68]	@ 0x44
   26ee4:	900f      	str	r0, [sp, #60]	@ 0x3c
   26ee6:	e029      	b.n	26f3c <_start+0x6e14>
   26ee8:	489b      	ldr	r0, [pc, #620]	@ (27158 <_start+0x7030>)
   26eea:	4468      	add	r0, sp
   26eec:	4c94      	ldr	r4, [pc, #592]	@ (27140 <_start+0x7018>)
   26eee:	47a0      	blx	r4
   26ef0:	4d98      	ldr	r5, [pc, #608]	@ (27154 <_start+0x702c>)
   26ef2:	446d      	add	r5, sp
   26ef4:	4628      	mov	r0, r5
   26ef6:	47a0      	blx	r4
   26ef8:	4628      	mov	r0, r5
   26efa:	47a0      	blx	r4
   26efc:	9a0d      	ldr	r2, [sp, #52]	@ 0x34
   26efe:	7890      	ldrb	r0, [r2, #2]
   26f00:	a9e4      	add	r1, sp, #912	@ 0x390
   26f02:	7088      	strb	r0, [r1, #2]
   26f04:	7810      	ldrb	r0, [r2, #0]
   26f06:	7852      	ldrb	r2, [r2, #1]
   26f08:	0212      	lsls	r2, r2, #8
   26f0a:	1810      	adds	r0, r2, r0
   26f0c:	8008      	strh	r0, [r1, #0]
   26f0e:	7ca8      	ldrb	r0, [r5, #18]
   26f10:	9013      	str	r0, [sp, #76]	@ 0x4c
   26f12:	7c68      	ldrb	r0, [r5, #17]
   26f14:	900d      	str	r0, [sp, #52]	@ 0x34
   26f16:	7be8      	ldrb	r0, [r5, #15]
   26f18:	900c      	str	r0, [sp, #48]	@ 0x30
   26f1a:	7c2c      	ldrb	r4, [r5, #16]
   26f1c:	3513      	adds	r5, #19
   26f1e:	a8ba      	add	r0, sp, #744	@ 0x2e8
   26f20:	2225      	movs	r2, #37	@ 0x25
   26f22:	4629      	mov	r1, r5
   26f24:	f000 fadd 	bl	274e2 <__aeabi_memcpy>
   26f28:	0220      	lsls	r0, r4, #8
   26f2a:	990c      	ldr	r1, [sp, #48]	@ 0x30
   26f2c:	1840      	adds	r0, r0, r1
   26f2e:	990d      	ldr	r1, [sp, #52]	@ 0x34
   26f30:	0409      	lsls	r1, r1, #16
   26f32:	9a13      	ldr	r2, [sp, #76]	@ 0x4c
   26f34:	0612      	lsls	r2, r2, #24
   26f36:	1851      	adds	r1, r2, r1
   26f38:	1808      	adds	r0, r1, r0
   26f3a:	9013      	str	r0, [sp, #76]	@ 0x4c
   26f3c:	4885      	ldr	r0, [pc, #532]	@ (27154 <_start+0x702c>)
   26f3e:	4468      	add	r0, sp
   26f40:	f000 f90e 	bl	27160 <_ZN9allow_pin12full_dynamic17unshare_if_shared17hc38d0bd70fd52db9E>
   26f44:	4884      	ldr	r0, [pc, #528]	@ (27158 <_start+0x7030>)
   26f46:	4468      	add	r0, sp
   26f48:	f000 f90a 	bl	27160 <_ZN9allow_pin12full_dynamic17unshare_if_shared17hc38d0bd70fd52db9E>
   26f4c:	980f      	ldr	r0, [sp, #60]	@ 0x3c
   26f4e:	2800      	cmp	r0, #0
   26f50:	d000      	beq.n	26f54 <_start+0x6e2c>
   26f52:	e080      	b.n	27056 <_start+0x6f2e>
   26f54:	4c7f      	ldr	r4, [pc, #508]	@ (27154 <_start+0x702c>)
   26f56:	446c      	add	r4, sp
   26f58:	4620      	mov	r0, r4
   26f5a:	300c      	adds	r0, #12
   26f5c:	a9e4      	add	r1, sp, #912	@ 0x390
   26f5e:	9a0e      	ldr	r2, [sp, #56]	@ 0x38
   26f60:	f000 fabf 	bl	274e2 <__aeabi_memcpy>
   26f64:	a8a3      	add	r0, sp, #652	@ 0x28c
   26f66:	900f      	str	r0, [sp, #60]	@ 0x3c
   26f68:	a9ba      	add	r1, sp, #744	@ 0x2e8
   26f6a:	2525      	movs	r5, #37	@ 0x25
   26f6c:	462a      	mov	r2, r5
   26f6e:	f000 fab8 	bl	274e2 <__aeabi_memcpy>
   26f72:	4620      	mov	r0, r4
   26f74:	3013      	adds	r0, #19
   26f76:	990f      	ldr	r1, [sp, #60]	@ 0x3c
   26f78:	462a      	mov	r2, r5
   26f7a:	f000 fab2 	bl	274e2 <__aeabi_memcpy>
   26f7e:	9913      	ldr	r1, [sp, #76]	@ 0x4c
   26f80:	0e08      	lsrs	r0, r1, #24
   26f82:	74a0      	strb	r0, [r4, #18]
   26f84:	0c08      	lsrs	r0, r1, #16
   26f86:	7460      	strb	r0, [r4, #17]
   26f88:	0a08      	lsrs	r0, r1, #8
   26f8a:	7420      	strb	r0, [r4, #16]
   26f8c:	73e1      	strb	r1, [r4, #15]
   26f8e:	9812      	ldr	r0, [sp, #72]	@ 0x48
   26f90:	7220      	strb	r0, [r4, #8]
   26f92:	4d71      	ldr	r5, [pc, #452]	@ (27158 <_start+0x7030>)
   26f94:	446d      	add	r5, sp
   26f96:	4628      	mov	r0, r5
   26f98:	300c      	adds	r0, #12
   26f9a:	212a      	movs	r1, #42	@ 0x2a
   26f9c:	900d      	str	r0, [sp, #52]	@ 0x34
   26f9e:	f000 f8f3 	bl	27188 <__aeabi_memclr4>
   26fa2:	9812      	ldr	r0, [sp, #72]	@ 0x48
   26fa4:	7228      	strb	r0, [r5, #8]
   26fa6:	980e      	ldr	r0, [sp, #56]	@ 0x38
   26fa8:	9000      	str	r0, [sp, #0]
   26faa:	212c      	movs	r1, #44	@ 0x2c
   26fac:	2204      	movs	r2, #4
   26fae:	4620      	mov	r0, r4
   26fb0:	920f      	str	r2, [sp, #60]	@ 0x3c
   26fb2:	4b65      	ldr	r3, [pc, #404]	@ (27148 <_start+0x7020>)
   26fb4:	f7f9 f896 	bl	200e4 <_ZN9allow_pin12full_dynamic15Buffer$LT$B$GT$5allow17h6d4ce413c213cdffE>
   26fb8:	9113      	str	r1, [sp, #76]	@ 0x4c
   26fba:	07c0      	lsls	r0, r0, #31
   26fbc:	d140      	bne.n	27040 <_start+0x6f18>
   26fbe:	9806      	ldr	r0, [sp, #24]
   26fc0:	9000      	str	r0, [sp, #0]
   26fc2:	4865      	ldr	r0, [pc, #404]	@ (27158 <_start+0x7030>)
   26fc4:	4468      	add	r0, sp
   26fc6:	212a      	movs	r1, #42	@ 0x2a
   26fc8:	2203      	movs	r2, #3
   26fca:	4b5f      	ldr	r3, [pc, #380]	@ (27148 <_start+0x7020>)
   26fcc:	f7f9 f88a 	bl	200e4 <_ZN9allow_pin12full_dynamic15Buffer$LT$B$GT$5allow17h6d4ce413c213cdffE>
   26fd0:	9113      	str	r1, [sp, #76]	@ 0x4c
   26fd2:	07c0      	lsls	r0, r0, #31
   26fd4:	d134      	bne.n	27040 <_start+0x6f18>
   26fd6:	485c      	ldr	r0, [pc, #368]	@ (27148 <_start+0x7020>)
   26fd8:	2103      	movs	r1, #3
   26fda:	2200      	movs	r2, #0
   26fdc:	920e      	str	r2, [sp, #56]	@ 0x38
   26fde:	4613      	mov	r3, r2
   26fe0:	df02      	svc	2
   26fe2:	9113      	str	r1, [sp, #76]	@ 0x4c
   26fe4:	287f      	cmp	r0, #127	@ 0x7f
   26fe6:	d92b      	bls.n	27040 <_start+0x6f18>
   26fe8:	485a      	ldr	r0, [pc, #360]	@ (27154 <_start+0x702c>)
   26fea:	4468      	add	r0, sp
   26fec:	4d54      	ldr	r5, [pc, #336]	@ (27140 <_start+0x7018>)
   26fee:	47a8      	blx	r5
   26ff0:	4c59      	ldr	r4, [pc, #356]	@ (27158 <_start+0x7030>)
   26ff2:	446c      	add	r4, sp
   26ff4:	4620      	mov	r0, r4
   26ff6:	47a8      	blx	r5
   26ff8:	4620      	mov	r0, r4
   26ffa:	47a8      	blx	r5
   26ffc:	9a0d      	ldr	r2, [sp, #52]	@ 0x34
   26ffe:	7890      	ldrb	r0, [r2, #2]
   27000:	a9e4      	add	r1, sp, #912	@ 0x390
   27002:	7088      	strb	r0, [r1, #2]
   27004:	7810      	ldrb	r0, [r2, #0]
   27006:	7852      	ldrb	r2, [r2, #1]
   27008:	0212      	lsls	r2, r2, #8
   2700a:	1810      	adds	r0, r2, r0
   2700c:	8008      	strh	r0, [r1, #0]
   2700e:	7ca0      	ldrb	r0, [r4, #18]
   27010:	9013      	str	r0, [sp, #76]	@ 0x4c
   27012:	7c60      	ldrb	r0, [r4, #17]
   27014:	9011      	str	r0, [sp, #68]	@ 0x44
   27016:	7be0      	ldrb	r0, [r4, #15]
   27018:	900d      	str	r0, [sp, #52]	@ 0x34
   2701a:	7c25      	ldrb	r5, [r4, #16]
   2701c:	3413      	adds	r4, #19
   2701e:	a8ba      	add	r0, sp, #744	@ 0x2e8
   27020:	2223      	movs	r2, #35	@ 0x23
   27022:	4621      	mov	r1, r4
   27024:	f000 fa5d 	bl	274e2 <__aeabi_memcpy>
   27028:	0228      	lsls	r0, r5, #8
   2702a:	990d      	ldr	r1, [sp, #52]	@ 0x34
   2702c:	1840      	adds	r0, r0, r1
   2702e:	9911      	ldr	r1, [sp, #68]	@ 0x44
   27030:	0409      	lsls	r1, r1, #16
   27032:	9a13      	ldr	r2, [sp, #76]	@ 0x4c
   27034:	0612      	lsls	r2, r2, #24
   27036:	1851      	adds	r1, r2, r1
   27038:	1808      	adds	r0, r1, r0
   2703a:	9013      	str	r0, [sp, #76]	@ 0x4c
   2703c:	980e      	ldr	r0, [sp, #56]	@ 0x38
   2703e:	9011      	str	r0, [sp, #68]	@ 0x44
   27040:	4845      	ldr	r0, [pc, #276]	@ (27158 <_start+0x7030>)
   27042:	4468      	add	r0, sp
   27044:	f000 f88c 	bl	27160 <_ZN9allow_pin12full_dynamic17unshare_if_shared17hc38d0bd70fd52db9E>
   27048:	4842      	ldr	r0, [pc, #264]	@ (27154 <_start+0x702c>)
   2704a:	4468      	add	r0, sp
   2704c:	f000 f888 	bl	27160 <_ZN9allow_pin12full_dynamic17unshare_if_shared17hc38d0bd70fd52db9E>
   27050:	9811      	ldr	r0, [sp, #68]	@ 0x44
   27052:	2800      	cmp	r0, #0
   27054:	d00c      	beq.n	27070 <_start+0x6f48>
   27056:	2601      	movs	r6, #1
   27058:	4630      	mov	r0, r6
   2705a:	9913      	ldr	r1, [sp, #76]	@ 0x4c
   2705c:	1ffe      	subs	r6, r7, #7
   2705e:	3e05      	subs	r6, #5
   27060:	46b5      	mov	sp, r6
   27062:	bdf0      	pop	{r4, r5, r6, r7, pc}
   27064:	000005cc 	.word	0x000005cc
   27068:	00027161 	.word	0x00027161
   2706c:	00000568 	.word	0x00000568
   27070:	4c39      	ldr	r4, [pc, #228]	@ (27158 <_start+0x7030>)
   27072:	446c      	add	r4, sp
   27074:	4620      	mov	r0, r4
   27076:	300c      	adds	r0, #12
   27078:	a9e4      	add	r1, sp, #912	@ 0x390
   2707a:	2203      	movs	r2, #3
   2707c:	f000 fa31 	bl	274e2 <__aeabi_memcpy>
   27080:	a8a3      	add	r0, sp, #652	@ 0x28c
   27082:	9011      	str	r0, [sp, #68]	@ 0x44
   27084:	a9ba      	add	r1, sp, #744	@ 0x2e8
   27086:	2523      	movs	r5, #35	@ 0x23
   27088:	462a      	mov	r2, r5
   2708a:	f000 fa2a 	bl	274e2 <__aeabi_memcpy>
   2708e:	4620      	mov	r0, r4
   27090:	3013      	adds	r0, #19
   27092:	9911      	ldr	r1, [sp, #68]	@ 0x44
   27094:	462a      	mov	r2, r5
   27096:	f000 fa24 	bl	274e2 <__aeabi_memcpy>
   2709a:	9913      	ldr	r1, [sp, #76]	@ 0x4c
   2709c:	0e08      	lsrs	r0, r1, #24
   2709e:	74a0      	strb	r0, [r4, #18]
   270a0:	0c08      	lsrs	r0, r1, #16
   270a2:	7460      	strb	r0, [r4, #17]
   270a4:	0a08      	lsrs	r0, r1, #8
   270a6:	7420      	strb	r0, [r4, #16]
   270a8:	73e1      	strb	r1, [r4, #15]
   270aa:	9812      	ldr	r0, [sp, #72]	@ 0x48
   270ac:	7220      	strb	r0, [r4, #8]
   270ae:	4d29      	ldr	r5, [pc, #164]	@ (27154 <_start+0x702c>)
   270b0:	446d      	add	r5, sp
   270b2:	4628      	mov	r0, r5
   270b4:	300c      	adds	r0, #12
   270b6:	2128      	movs	r1, #40	@ 0x28
   270b8:	f000 f866 	bl	27188 <__aeabi_memclr4>
   270bc:	9812      	ldr	r0, [sp, #72]	@ 0x48
   270be:	7228      	strb	r0, [r5, #8]
   270c0:	9a0f      	ldr	r2, [sp, #60]	@ 0x3c
   270c2:	9200      	str	r2, [sp, #0]
   270c4:	4b1f      	ldr	r3, [pc, #124]	@ (27144 <_start+0x701c>)
   270c6:	33af      	adds	r3, #175	@ 0xaf
   270c8:	212a      	movs	r1, #42	@ 0x2a
   270ca:	4620      	mov	r0, r4
   270cc:	461c      	mov	r4, r3
   270ce:	f7f9 f809 	bl	200e4 <_ZN9allow_pin12full_dynamic15Buffer$LT$B$GT$5allow17h6d4ce413c213cdffE>
   270d2:	9113      	str	r1, [sp, #76]	@ 0x4c
   270d4:	07c0      	lsls	r0, r0, #31
   270d6:	d12a      	bne.n	2712e <_start+0x7006>
   270d8:	9810      	ldr	r0, [sp, #64]	@ 0x40
   270da:	9000      	str	r0, [sp, #0]
   270dc:	481d      	ldr	r0, [pc, #116]	@ (27154 <_start+0x702c>)
   270de:	4468      	add	r0, sp
   270e0:	2128      	movs	r1, #40	@ 0x28
   270e2:	2203      	movs	r2, #3
   270e4:	4623      	mov	r3, r4
   270e6:	f7f8 fffd 	bl	200e4 <_ZN9allow_pin12full_dynamic15Buffer$LT$B$GT$5allow17h6d4ce413c213cdffE>
   270ea:	9113      	str	r1, [sp, #76]	@ 0x4c
   270ec:	07c0      	lsls	r0, r0, #31
   270ee:	d11e      	bne.n	2712e <_start+0x7006>
   270f0:	4817      	ldr	r0, [pc, #92]	@ (27150 <_start+0x7028>)
   270f2:	2104      	movs	r1, #4
   270f4:	2208      	movs	r2, #8
   270f6:	2400      	movs	r4, #0
   270f8:	4623      	mov	r3, r4
   270fa:	df02      	svc	2
   270fc:	9113      	str	r1, [sp, #76]	@ 0x4c
   270fe:	287f      	cmp	r0, #127	@ 0x7f
   27100:	d915      	bls.n	2712e <_start+0x7006>
   27102:	4815      	ldr	r0, [pc, #84]	@ (27158 <_start+0x7030>)
   27104:	4468      	add	r0, sp
   27106:	4e0e      	ldr	r6, [pc, #56]	@ (27140 <_start+0x7018>)
   27108:	47b0      	blx	r6
   2710a:	4d12      	ldr	r5, [pc, #72]	@ (27154 <_start+0x702c>)
   2710c:	446d      	add	r5, sp
   2710e:	4628      	mov	r0, r5
   27110:	47b0      	blx	r6
   27112:	4628      	mov	r0, r5
   27114:	47b0      	blx	r6
   27116:	7be8      	ldrb	r0, [r5, #15]
   27118:	7c29      	ldrb	r1, [r5, #16]
   2711a:	0209      	lsls	r1, r1, #8
   2711c:	1808      	adds	r0, r1, r0
   2711e:	7c69      	ldrb	r1, [r5, #17]
   27120:	0409      	lsls	r1, r1, #16
   27122:	7caa      	ldrb	r2, [r5, #18]
   27124:	0612      	lsls	r2, r2, #24
   27126:	1851      	adds	r1, r2, r1
   27128:	1808      	adds	r0, r1, r0
   2712a:	9013      	str	r0, [sp, #76]	@ 0x4c
   2712c:	4626      	mov	r6, r4
   2712e:	4809      	ldr	r0, [pc, #36]	@ (27154 <_start+0x702c>)
   27130:	4468      	add	r0, sp
   27132:	f000 f815 	bl	27160 <_ZN9allow_pin12full_dynamic17unshare_if_shared17hc38d0bd70fd52db9E>
   27136:	4808      	ldr	r0, [pc, #32]	@ (27158 <_start+0x7030>)
   27138:	4468      	add	r0, sp
   2713a:	f000 f811 	bl	27160 <_ZN9allow_pin12full_dynamic17unshare_if_shared17hc38d0bd70fd52db9E>
   2713e:	e78b      	b.n	27058 <_start+0x6f30>
   27140:	00027161 	.word	0x00027161
   27144:	00001e4b 	.word	0x00001e4b
   27148:	000024f0 	.word	0x000024f0
   2714c:	00002548 	.word	0x00002548
   27150:	00001efa 	.word	0x00001efa
   27154:	00000568 	.word	0x00000568
   27158:	000005cc 	.word	0x000005cc
   2715c:	0000050c 	.word	0x0000050c

00027160 <_ZN9allow_pin12full_dynamic17unshare_if_shared17hc38d0bd70fd52db9E>:
   27160:	b5d0      	push	{r4, r6, r7, lr}
   27162:	af02      	add	r7, sp, #8
   27164:	7a02      	ldrb	r2, [r0, #8]
   27166:	2a02      	cmp	r2, #2
   27168:	d00d      	beq.n	27186 <_ZN9allow_pin12full_dynamic17unshare_if_shared17hc38d0bd70fd52db9E+0x26>
   2716a:	4604      	mov	r4, r0
   2716c:	6800      	ldr	r0, [r0, #0]
   2716e:	6861      	ldr	r1, [r4, #4]
   27170:	2a03      	cmp	r2, #3
   27172:	d103      	bne.n	2717c <_ZN9allow_pin12full_dynamic17unshare_if_shared17hc38d0bd70fd52db9E+0x1c>
   27174:	2200      	movs	r2, #0
   27176:	4613      	mov	r3, r2
   27178:	df03      	svc	3
   2717a:	e002      	b.n	27182 <_ZN9allow_pin12full_dynamic17unshare_if_shared17hc38d0bd70fd52db9E+0x22>
   2717c:	2200      	movs	r2, #0
   2717e:	4613      	mov	r3, r2
   27180:	df04      	svc	4
   27182:	2002      	movs	r0, #2
   27184:	7220      	strb	r0, [r4, #8]
   27186:	bdd0      	pop	{r4, r6, r7, pc}

00027188 <__aeabi_memclr4>:
   27188:	b5f0      	push	{r4, r5, r6, r7, lr}
   2718a:	af03      	add	r7, sp, #12
   2718c:	2904      	cmp	r1, #4
   2718e:	d311      	bcc.n	271b4 <__aeabi_memclr4+0x2c>
   27190:	1f0c      	subs	r4, r1, #4
   27192:	250c      	movs	r5, #12
   27194:	4025      	ands	r5, r4
   27196:	2d0c      	cmp	r5, #12
   27198:	d012      	beq.n	271c0 <__aeabi_memclr4+0x38>
   2719a:	2600      	movs	r6, #0
   2719c:	4602      	mov	r2, r0
   2719e:	c240      	stmia	r2!, {r6}
   271a0:	0723      	lsls	r3, r4, #28
   271a2:	0f9b      	lsrs	r3, r3, #30
   271a4:	4623      	mov	r3, r4
   271a6:	d00d      	beq.n	271c4 <__aeabi_memclr4+0x3c>
   271a8:	6046      	str	r6, [r0, #4]
   271aa:	2d04      	cmp	r5, #4
   271ac:	d105      	bne.n	271ba <__aeabi_memclr4+0x32>
   271ae:	3908      	subs	r1, #8
   271b0:	3008      	adds	r0, #8
   271b2:	e005      	b.n	271c0 <__aeabi_memclr4+0x38>
   271b4:	460b      	mov	r3, r1
   271b6:	4602      	mov	r2, r0
   271b8:	e00f      	b.n	271da <__aeabi_memclr4+0x52>
   271ba:	6086      	str	r6, [r0, #8]
   271bc:	390c      	subs	r1, #12
   271be:	300c      	adds	r0, #12
   271c0:	4602      	mov	r2, r0
   271c2:	460b      	mov	r3, r1
   271c4:	2c0c      	cmp	r4, #12
   271c6:	d308      	bcc.n	271da <__aeabi_memclr4+0x52>
   271c8:	2000      	movs	r0, #0
   271ca:	6010      	str	r0, [r2, #0]
   271cc:	6050      	str	r0, [r2, #4]
   271ce:	6090      	str	r0, [r2, #8]
   271d0:	60d0      	str	r0, [r2, #12]
   271d2:	3210      	adds	r2, #16
   271d4:	3b10      	subs	r3, #16
   271d6:	2b03      	cmp	r3, #3
   271d8:	d8f6      	bhi.n	271c8 <__aeabi_memclr4+0x40>
   271da:	18d0      	adds	r0, r2, r3
   271dc:	4282      	cmp	r2, r0
   271de:	d21a      	bcs.n	27216 <__aeabi_memclr4+0x8e>
   271e0:	2403      	movs	r4, #3
   271e2:	401c      	ands	r4, r3
   271e4:	1e59      	subs	r1, r3, #1
   271e6:	2c00      	cmp	r4, #0
   271e8:	d00b      	beq.n	27202 <__aeabi_memclr4+0x7a>
   271ea:	2300      	movs	r3, #0
   271ec:	7013      	strb	r3, [r2, #0]
   271ee:	2c01      	cmp	r4, #1
   271f0:	d103      	bne.n	271fa <__aeabi_memclr4+0x72>
   271f2:	1c52      	adds	r2, r2, #1
   271f4:	2903      	cmp	r1, #3
   271f6:	d206      	bcs.n	27206 <__aeabi_memclr4+0x7e>
   271f8:	e00d      	b.n	27216 <__aeabi_memclr4+0x8e>
   271fa:	7053      	strb	r3, [r2, #1]
   271fc:	2c02      	cmp	r4, #2
   271fe:	d10b      	bne.n	27218 <__aeabi_memclr4+0x90>
   27200:	1c92      	adds	r2, r2, #2
   27202:	2903      	cmp	r1, #3
   27204:	d307      	bcc.n	27216 <__aeabi_memclr4+0x8e>
   27206:	2100      	movs	r1, #0
   27208:	70d1      	strb	r1, [r2, #3]
   2720a:	7091      	strb	r1, [r2, #2]
   2720c:	7051      	strb	r1, [r2, #1]
   2720e:	7011      	strb	r1, [r2, #0]
   27210:	1d12      	adds	r2, r2, #4
   27212:	4282      	cmp	r2, r0
   27214:	d1f7      	bne.n	27206 <__aeabi_memclr4+0x7e>
   27216:	bdf0      	pop	{r4, r5, r6, r7, pc}
   27218:	7093      	strb	r3, [r2, #2]
   2721a:	1cd2      	adds	r2, r2, #3
   2721c:	2903      	cmp	r1, #3
   2721e:	d2f2      	bcs.n	27206 <__aeabi_memclr4+0x7e>
   27220:	e7f9      	b.n	27216 <__aeabi_memclr4+0x8e>

00027222 <__aeabi_memcpy4>:
   27222:	b5f0      	push	{r4, r5, r6, r7, lr}
   27224:	af03      	add	r7, sp, #12
   27226:	b081      	sub	sp, #4
   27228:	2a04      	cmp	r2, #4
   2722a:	d32d      	bcc.n	27288 <__aeabi_memcpy4+0x66>
   2722c:	1f13      	subs	r3, r2, #4
   2722e:	250c      	movs	r5, #12
   27230:	401d      	ands	r5, r3
   27232:	2d0c      	cmp	r5, #12
   27234:	d019      	beq.n	2726a <__aeabi_memcpy4+0x48>
   27236:	9200      	str	r2, [sp, #0]
   27238:	460e      	mov	r6, r1
   2723a:	c904      	ldmia	r1!, {r2}
   2723c:	4604      	mov	r4, r0
   2723e:	c004      	stmia	r0!, {r2}
   27240:	071a      	lsls	r2, r3, #28
   27242:	0f92      	lsrs	r2, r2, #30
   27244:	461a      	mov	r2, r3
   27246:	d010      	beq.n	2726a <__aeabi_memcpy4+0x48>
   27248:	4631      	mov	r1, r6
   2724a:	6872      	ldr	r2, [r6, #4]
   2724c:	6062      	str	r2, [r4, #4]
   2724e:	2d04      	cmp	r5, #4
   27250:	d104      	bne.n	2725c <__aeabi_memcpy4+0x3a>
   27252:	9a00      	ldr	r2, [sp, #0]
   27254:	3a08      	subs	r2, #8
   27256:	3108      	adds	r1, #8
   27258:	3408      	adds	r4, #8
   2725a:	e005      	b.n	27268 <__aeabi_memcpy4+0x46>
   2725c:	688a      	ldr	r2, [r1, #8]
   2725e:	60a2      	str	r2, [r4, #8]
   27260:	9a00      	ldr	r2, [sp, #0]
   27262:	3a0c      	subs	r2, #12
   27264:	310c      	adds	r1, #12
   27266:	340c      	adds	r4, #12
   27268:	4620      	mov	r0, r4
   2726a:	2b0c      	cmp	r3, #12
   2726c:	d30c      	bcc.n	27288 <__aeabi_memcpy4+0x66>
   2726e:	680b      	ldr	r3, [r1, #0]
   27270:	6003      	str	r3, [r0, #0]
   27272:	684b      	ldr	r3, [r1, #4]
   27274:	6043      	str	r3, [r0, #4]
   27276:	688b      	ldr	r3, [r1, #8]
   27278:	6083      	str	r3, [r0, #8]
   2727a:	68cb      	ldr	r3, [r1, #12]
   2727c:	60c3      	str	r3, [r0, #12]
   2727e:	3110      	adds	r1, #16
   27280:	3010      	adds	r0, #16
   27282:	3a10      	subs	r2, #16
   27284:	2a03      	cmp	r2, #3
   27286:	d8f2      	bhi.n	2726e <__aeabi_memcpy4+0x4c>
   27288:	f000 f802 	bl	27290 <_ZN17compiler_builtins3mem6memcpy17h1f9dbb1c3fd18e2fE>
   2728c:	b001      	add	sp, #4
   2728e:	bdf0      	pop	{r4, r5, r6, r7, pc}

00027290 <_ZN17compiler_builtins3mem6memcpy17h1f9dbb1c3fd18e2fE>:
   27290:	b5f0      	push	{r4, r5, r6, r7, lr}
   27292:	af03      	add	r7, sp, #12
   27294:	b08f      	sub	sp, #60	@ 0x3c
   27296:	2a10      	cmp	r2, #16
   27298:	d315      	bcc.n	272c6 <_ZN17compiler_builtins3mem6memcpy17h1f9dbb1c3fd18e2fE+0x36>
   2729a:	920b      	str	r2, [sp, #44]	@ 0x2c
   2729c:	4242      	negs	r2, r0
   2729e:	2303      	movs	r3, #3
   272a0:	9308      	str	r3, [sp, #32]
   272a2:	401a      	ands	r2, r3
   272a4:	1885      	adds	r5, r0, r2
   272a6:	900a      	str	r0, [sp, #40]	@ 0x28
   272a8:	42a8      	cmp	r0, r5
   272aa:	d22a      	bcs.n	27302 <_ZN17compiler_builtins3mem6memcpy17h1f9dbb1c3fd18e2fE+0x72>
   272ac:	1e54      	subs	r4, r2, #1
   272ae:	2a00      	cmp	r2, #0
   272b0:	980a      	ldr	r0, [sp, #40]	@ 0x28
   272b2:	4606      	mov	r6, r0
   272b4:	460b      	mov	r3, r1
   272b6:	d016      	beq.n	272e6 <_ZN17compiler_builtins3mem6memcpy17h1f9dbb1c3fd18e2fE+0x56>
   272b8:	780b      	ldrb	r3, [r1, #0]
   272ba:	7003      	strb	r3, [r0, #0]
   272bc:	2a01      	cmp	r2, #1
   272be:	d107      	bne.n	272d0 <_ZN17compiler_builtins3mem6memcpy17h1f9dbb1c3fd18e2fE+0x40>
   272c0:	1c4b      	adds	r3, r1, #1
   272c2:	1c46      	adds	r6, r0, #1
   272c4:	e00f      	b.n	272e6 <_ZN17compiler_builtins3mem6memcpy17h1f9dbb1c3fd18e2fE+0x56>
   272c6:	4603      	mov	r3, r0
   272c8:	189c      	adds	r4, r3, r2
   272ca:	42a3      	cmp	r3, r4
   272cc:	d341      	bcc.n	27352 <_ZN17compiler_builtins3mem6memcpy17h1f9dbb1c3fd18e2fE+0xc2>
   272ce:	e062      	b.n	27396 <_ZN17compiler_builtins3mem6memcpy17h1f9dbb1c3fd18e2fE+0x106>
   272d0:	784b      	ldrb	r3, [r1, #1]
   272d2:	7043      	strb	r3, [r0, #1]
   272d4:	2a02      	cmp	r2, #2
   272d6:	d102      	bne.n	272de <_ZN17compiler_builtins3mem6memcpy17h1f9dbb1c3fd18e2fE+0x4e>
   272d8:	1c8b      	adds	r3, r1, #2
   272da:	1c86      	adds	r6, r0, #2
   272dc:	e003      	b.n	272e6 <_ZN17compiler_builtins3mem6memcpy17h1f9dbb1c3fd18e2fE+0x56>
   272de:	788b      	ldrb	r3, [r1, #2]
   272e0:	7083      	strb	r3, [r0, #2]
   272e2:	1ccb      	adds	r3, r1, #3
   272e4:	1cc6      	adds	r6, r0, #3
   272e6:	2c03      	cmp	r4, #3
   272e8:	d30b      	bcc.n	27302 <_ZN17compiler_builtins3mem6memcpy17h1f9dbb1c3fd18e2fE+0x72>
   272ea:	781c      	ldrb	r4, [r3, #0]
   272ec:	7034      	strb	r4, [r6, #0]
   272ee:	785c      	ldrb	r4, [r3, #1]
   272f0:	7074      	strb	r4, [r6, #1]
   272f2:	789c      	ldrb	r4, [r3, #2]
   272f4:	70b4      	strb	r4, [r6, #2]
   272f6:	78dc      	ldrb	r4, [r3, #3]
   272f8:	70f4      	strb	r4, [r6, #3]
   272fa:	1d1b      	adds	r3, r3, #4
   272fc:	1d36      	adds	r6, r6, #4
   272fe:	42ae      	cmp	r6, r5
   27300:	d1f3      	bne.n	272ea <_ZN17compiler_builtins3mem6memcpy17h1f9dbb1c3fd18e2fE+0x5a>
   27302:	980b      	ldr	r0, [sp, #44]	@ 0x2c
   27304:	1a80      	subs	r0, r0, r2
   27306:	900b      	str	r0, [sp, #44]	@ 0x2c
   27308:	9c08      	ldr	r4, [sp, #32]
   2730a:	43a0      	bics	r0, r4
   2730c:	182b      	adds	r3, r5, r0
   2730e:	188e      	adds	r6, r1, r2
   27310:	9609      	str	r6, [sp, #36]	@ 0x24
   27312:	4026      	ands	r6, r4
   27314:	9007      	str	r0, [sp, #28]
   27316:	d147      	bne.n	273a8 <_ZN17compiler_builtins3mem6memcpy17h1f9dbb1c3fd18e2fE+0x118>
   27318:	429d      	cmp	r5, r3
   2731a:	9a0b      	ldr	r2, [sp, #44]	@ 0x2c
   2731c:	9e09      	ldr	r6, [sp, #36]	@ 0x24
   2731e:	d211      	bcs.n	27344 <_ZN17compiler_builtins3mem6memcpy17h1f9dbb1c3fd18e2fE+0xb4>
   27320:	4631      	mov	r1, r6
   27322:	6808      	ldr	r0, [r1, #0]
   27324:	c501      	stmia	r5!, {r0}
   27326:	429d      	cmp	r5, r3
   27328:	d20c      	bcs.n	27344 <_ZN17compiler_builtins3mem6memcpy17h1f9dbb1c3fd18e2fE+0xb4>
   2732a:	6848      	ldr	r0, [r1, #4]
   2732c:	c501      	stmia	r5!, {r0}
   2732e:	429d      	cmp	r5, r3
   27330:	d208      	bcs.n	27344 <_ZN17compiler_builtins3mem6memcpy17h1f9dbb1c3fd18e2fE+0xb4>
   27332:	6888      	ldr	r0, [r1, #8]
   27334:	c501      	stmia	r5!, {r0}
   27336:	429d      	cmp	r5, r3
   27338:	d204      	bcs.n	27344 <_ZN17compiler_builtins3mem6memcpy17h1f9dbb1c3fd18e2fE+0xb4>
   2733a:	68c8      	ldr	r0, [r1, #12]
   2733c:	c501      	stmia	r5!, {r0}
   2733e:	3110      	adds	r1, #16
   27340:	429d      	cmp	r5, r3
   27342:	d3ee      	bcc.n	27322 <_ZN17compiler_builtins3mem6memcpy17h1f9dbb1c3fd18e2fE+0x92>
   27344:	4022      	ands	r2, r4
   27346:	9807      	ldr	r0, [sp, #28]
   27348:	1831      	adds	r1, r6, r0
   2734a:	980a      	ldr	r0, [sp, #40]	@ 0x28
   2734c:	189c      	adds	r4, r3, r2
   2734e:	42a3      	cmp	r3, r4
   27350:	d221      	bcs.n	27396 <_ZN17compiler_builtins3mem6memcpy17h1f9dbb1c3fd18e2fE+0x106>
   27352:	2503      	movs	r5, #3
   27354:	4015      	ands	r5, r2
   27356:	1e52      	subs	r2, r2, #1
   27358:	2d00      	cmp	r5, #0
   2735a:	d00e      	beq.n	2737a <_ZN17compiler_builtins3mem6memcpy17h1f9dbb1c3fd18e2fE+0xea>
   2735c:	780e      	ldrb	r6, [r1, #0]
   2735e:	701e      	strb	r6, [r3, #0]
   27360:	2d01      	cmp	r5, #1
   27362:	d104      	bne.n	2736e <_ZN17compiler_builtins3mem6memcpy17h1f9dbb1c3fd18e2fE+0xde>
   27364:	1c49      	adds	r1, r1, #1
   27366:	1c5b      	adds	r3, r3, #1
   27368:	2a03      	cmp	r2, #3
   2736a:	d208      	bcs.n	2737e <_ZN17compiler_builtins3mem6memcpy17h1f9dbb1c3fd18e2fE+0xee>
   2736c:	e013      	b.n	27396 <_ZN17compiler_builtins3mem6memcpy17h1f9dbb1c3fd18e2fE+0x106>
   2736e:	784e      	ldrb	r6, [r1, #1]
   27370:	705e      	strb	r6, [r3, #1]
   27372:	2d02      	cmp	r5, #2
   27374:	d111      	bne.n	2739a <_ZN17compiler_builtins3mem6memcpy17h1f9dbb1c3fd18e2fE+0x10a>
   27376:	1c89      	adds	r1, r1, #2
   27378:	1c9b      	adds	r3, r3, #2
   2737a:	2a03      	cmp	r2, #3
   2737c:	d30b      	bcc.n	27396 <_ZN17compiler_builtins3mem6memcpy17h1f9dbb1c3fd18e2fE+0x106>
   2737e:	780a      	ldrb	r2, [r1, #0]
   27380:	701a      	strb	r2, [r3, #0]
   27382:	784a      	ldrb	r2, [r1, #1]
   27384:	705a      	strb	r2, [r3, #1]
   27386:	788a      	ldrb	r2, [r1, #2]
   27388:	709a      	strb	r2, [r3, #2]
   2738a:	78ca      	ldrb	r2, [r1, #3]
   2738c:	70da      	strb	r2, [r3, #3]
   2738e:	1d09      	adds	r1, r1, #4
   27390:	1d1b      	adds	r3, r3, #4
   27392:	42a3      	cmp	r3, r4
   27394:	d1f3      	bne.n	2737e <_ZN17compiler_builtins3mem6memcpy17h1f9dbb1c3fd18e2fE+0xee>
   27396:	b00f      	add	sp, #60	@ 0x3c
   27398:	bdf0      	pop	{r4, r5, r6, r7, pc}
   2739a:	788d      	ldrb	r5, [r1, #2]
   2739c:	709d      	strb	r5, [r3, #2]
   2739e:	1cc9      	adds	r1, r1, #3
   273a0:	1cdb      	adds	r3, r3, #3
   273a2:	2a03      	cmp	r2, #3
   273a4:	d2eb      	bcs.n	2737e <_ZN17compiler_builtins3mem6memcpy17h1f9dbb1c3fd18e2fE+0xee>
   273a6:	e7f6      	b.n	27396 <_ZN17compiler_builtins3mem6memcpy17h1f9dbb1c3fd18e2fE+0x106>
   273a8:	2400      	movs	r4, #0
   273aa:	9406      	str	r4, [sp, #24]
   273ac:	940e      	str	r4, [sp, #56]	@ 0x38
   273ae:	ac0e      	add	r4, sp, #56	@ 0x38
   273b0:	19a4      	adds	r4, r4, r6
   273b2:	9405      	str	r4, [sp, #20]
   273b4:	2404      	movs	r4, #4
   273b6:	1ba4      	subs	r4, r4, r6
   273b8:	9404      	str	r4, [sp, #16]
   273ba:	07e4      	lsls	r4, r4, #31
   273bc:	9600      	str	r6, [sp, #0]
   273be:	d006      	beq.n	273ce <_ZN17compiler_builtins3mem6memcpy17h1f9dbb1c3fd18e2fE+0x13e>
   273c0:	9c09      	ldr	r4, [sp, #36]	@ 0x24
   273c2:	7824      	ldrb	r4, [r4, #0]
   273c4:	9e05      	ldr	r6, [sp, #20]
   273c6:	7034      	strb	r4, [r6, #0]
   273c8:	9e00      	ldr	r6, [sp, #0]
   273ca:	2401      	movs	r4, #1
   273cc:	9406      	str	r4, [sp, #24]
   273ce:	9c04      	ldr	r4, [sp, #16]
   273d0:	07a4      	lsls	r4, r4, #30
   273d2:	d508      	bpl.n	273e6 <_ZN17compiler_builtins3mem6memcpy17h1f9dbb1c3fd18e2fE+0x156>
   273d4:	9c09      	ldr	r4, [sp, #36]	@ 0x24
   273d6:	9204      	str	r2, [sp, #16]
   273d8:	9a06      	ldr	r2, [sp, #24]
   273da:	5aa4      	ldrh	r4, [r4, r2]
   273dc:	9e05      	ldr	r6, [sp, #20]
   273de:	9a06      	ldr	r2, [sp, #24]
   273e0:	52b4      	strh	r4, [r6, r2]
   273e2:	9a04      	ldr	r2, [sp, #16]
   273e4:	9e00      	ldr	r6, [sp, #0]
   273e6:	00f4      	lsls	r4, r6, #3
   273e8:	9403      	str	r4, [sp, #12]
   273ea:	9c0e      	ldr	r4, [sp, #56]	@ 0x38
   273ec:	9406      	str	r4, [sp, #24]
   273ee:	1d2c      	adds	r4, r5, #4
   273f0:	429c      	cmp	r4, r3
   273f2:	d236      	bcs.n	27462 <_ZN17compiler_builtins3mem6memcpy17h1f9dbb1c3fd18e2fE+0x1d2>
   273f4:	4274      	negs	r4, r6
   273f6:	1909      	adds	r1, r1, r4
   273f8:	9105      	str	r1, [sp, #20]
   273fa:	9d03      	ldr	r5, [sp, #12]
   273fc:	4269      	negs	r1, r5
   273fe:	2418      	movs	r4, #24
   27400:	400c      	ands	r4, r1
   27402:	9402      	str	r4, [sp, #8]
   27404:	990a      	ldr	r1, [sp, #40]	@ 0x28
   27406:	9104      	str	r1, [sp, #16]
   27408:	4629      	mov	r1, r5
   2740a:	9c06      	ldr	r4, [sp, #24]
   2740c:	40cc      	lsrs	r4, r1
   2740e:	9406      	str	r4, [sp, #24]
   27410:	9905      	ldr	r1, [sp, #20]
   27412:	1889      	adds	r1, r1, r2
   27414:	9101      	str	r1, [sp, #4]
   27416:	6849      	ldr	r1, [r1, #4]
   27418:	460c      	mov	r4, r1
   2741a:	9d02      	ldr	r5, [sp, #8]
   2741c:	40ac      	lsls	r4, r5
   2741e:	9d06      	ldr	r5, [sp, #24]
   27420:	432c      	orrs	r4, r5
   27422:	9d04      	ldr	r5, [sp, #16]
   27424:	50ac      	str	r4, [r5, r2]
   27426:	18ad      	adds	r5, r5, r2
   27428:	462c      	mov	r4, r5
   2742a:	3408      	adds	r4, #8
   2742c:	429c      	cmp	r4, r3
   2742e:	d21c      	bcs.n	2746a <_ZN17compiler_builtins3mem6memcpy17h1f9dbb1c3fd18e2fE+0x1da>
   27430:	9c03      	ldr	r4, [sp, #12]
   27432:	40e1      	lsrs	r1, r4
   27434:	9c01      	ldr	r4, [sp, #4]
   27436:	68a4      	ldr	r4, [r4, #8]
   27438:	9406      	str	r4, [sp, #24]
   2743a:	9501      	str	r5, [sp, #4]
   2743c:	9d02      	ldr	r5, [sp, #8]
   2743e:	40ac      	lsls	r4, r5
   27440:	430c      	orrs	r4, r1
   27442:	9901      	ldr	r1, [sp, #4]
   27444:	604c      	str	r4, [r1, #4]
   27446:	9904      	ldr	r1, [sp, #16]
   27448:	3108      	adds	r1, #8
   2744a:	9104      	str	r1, [sp, #16]
   2744c:	188d      	adds	r5, r1, r2
   2744e:	1d29      	adds	r1, r5, #4
   27450:	9c05      	ldr	r4, [sp, #20]
   27452:	3408      	adds	r4, #8
   27454:	9405      	str	r4, [sp, #20]
   27456:	4299      	cmp	r1, r3
   27458:	9903      	ldr	r1, [sp, #12]
   2745a:	d3d6      	bcc.n	2740a <_ZN17compiler_builtins3mem6memcpy17h1f9dbb1c3fd18e2fE+0x17a>
   2745c:	9805      	ldr	r0, [sp, #20]
   2745e:	1880      	adds	r0, r0, r2
   27460:	e001      	b.n	27466 <_ZN17compiler_builtins3mem6memcpy17h1f9dbb1c3fd18e2fE+0x1d6>
   27462:	9809      	ldr	r0, [sp, #36]	@ 0x24
   27464:	1b80      	subs	r0, r0, r6
   27466:	9005      	str	r0, [sp, #20]
   27468:	e004      	b.n	27474 <_ZN17compiler_builtins3mem6memcpy17h1f9dbb1c3fd18e2fE+0x1e4>
   2746a:	9801      	ldr	r0, [sp, #4]
   2746c:	1d00      	adds	r0, r0, #4
   2746e:	9005      	str	r0, [sp, #20]
   27470:	1d2d      	adds	r5, r5, #4
   27472:	9106      	str	r1, [sp, #24]
   27474:	a80d      	add	r0, sp, #52	@ 0x34
   27476:	2100      	movs	r1, #0
   27478:	9004      	str	r0, [sp, #16]
   2747a:	7001      	strb	r1, [r0, #0]
   2747c:	a80c      	add	r0, sp, #48	@ 0x30
   2747e:	7001      	strb	r1, [r0, #0]
   27480:	2e01      	cmp	r6, #1
   27482:	460e      	mov	r6, r1
   27484:	460c      	mov	r4, r1
   27486:	9102      	str	r1, [sp, #8]
   27488:	9a0b      	ldr	r2, [sp, #44]	@ 0x2c
   2748a:	d009      	beq.n	274a0 <_ZN17compiler_builtins3mem6memcpy17h1f9dbb1c3fd18e2fE+0x210>
   2748c:	9c05      	ldr	r4, [sp, #20]
   2748e:	7960      	ldrb	r0, [r4, #5]
   27490:	7926      	ldrb	r6, [r4, #4]
   27492:	ac0d      	add	r4, sp, #52	@ 0x34
   27494:	7026      	strb	r6, [r4, #0]
   27496:	0204      	lsls	r4, r0, #8
   27498:	2002      	movs	r0, #2
   2749a:	9002      	str	r0, [sp, #8]
   2749c:	a80c      	add	r0, sp, #48	@ 0x30
   2749e:	9004      	str	r0, [sp, #16]
   274a0:	9809      	ldr	r0, [sp, #36]	@ 0x24
   274a2:	07c0      	lsls	r0, r0, #31
   274a4:	d00a      	beq.n	274bc <_ZN17compiler_builtins3mem6memcpy17h1f9dbb1c3fd18e2fE+0x22c>
   274a6:	9805      	ldr	r0, [sp, #20]
   274a8:	1d00      	adds	r0, r0, #4
   274aa:	9902      	ldr	r1, [sp, #8]
   274ac:	5c40      	ldrb	r0, [r0, r1]
   274ae:	9904      	ldr	r1, [sp, #16]
   274b0:	7008      	strb	r0, [r1, #0]
   274b2:	a80d      	add	r0, sp, #52	@ 0x34
   274b4:	7806      	ldrb	r6, [r0, #0]
   274b6:	a80c      	add	r0, sp, #48	@ 0x30
   274b8:	7800      	ldrb	r0, [r0, #0]
   274ba:	0401      	lsls	r1, r0, #16
   274bc:	9605      	str	r6, [sp, #20]
   274be:	9803      	ldr	r0, [sp, #12]
   274c0:	4240      	negs	r0, r0
   274c2:	9004      	str	r0, [sp, #16]
   274c4:	2618      	movs	r6, #24
   274c6:	9804      	ldr	r0, [sp, #16]
   274c8:	4006      	ands	r6, r0
   274ca:	430c      	orrs	r4, r1
   274cc:	9905      	ldr	r1, [sp, #20]
   274ce:	430c      	orrs	r4, r1
   274d0:	40b4      	lsls	r4, r6
   274d2:	9906      	ldr	r1, [sp, #24]
   274d4:	9803      	ldr	r0, [sp, #12]
   274d6:	40c1      	lsrs	r1, r0
   274d8:	4321      	orrs	r1, r4
   274da:	6029      	str	r1, [r5, #0]
   274dc:	9c08      	ldr	r4, [sp, #32]
   274de:	9e09      	ldr	r6, [sp, #36]	@ 0x24
   274e0:	e730      	b.n	27344 <_ZN17compiler_builtins3mem6memcpy17h1f9dbb1c3fd18e2fE+0xb4>

000274e2 <__aeabi_memcpy>:
   274e2:	b580      	push	{r7, lr}
   274e4:	af00      	add	r7, sp, #0
   274e6:	f7ff fed3 	bl	27290 <_ZN17compiler_builtins3mem6memcpy17h1f9dbb1c3fd18e2fE>
   274ea:	bd80      	pop	{r7, pc}
