
target/thumbv6m-none-eabi/opt-1/examples/complex_full_dynamic:     file format elf32-littlearm

Sections:
Idx Name          Size      VMA       LMA       File off  Algn
  0 .ARM.exidx    00000010  000100d4  000100d4  000000d4  2**2
                  CONTENTS, ALLOC, LOAD, READONLY, DATA
  1 .text         00009434  000200e4  000200e4  000000e4  2**2
                  CONTENTS, ALLOC, LOAD, READONLY, CODE
  2 .comment      0000008b  00000000  00000000  00009518  2**0
                  CONTENTS, READONLY
  3 .ARM.attributes 00000032  00000000  00000000  000095a3  2**0
                  CONTENTS, READONLY

Disassembly of section .text:

000200e4 <_ZN20complex_full_dynamic3app17h0179d09a4d6e540bE>:
   200e4:	b5f0      	push	{r4, r5, r6, r7, lr}
   200e6:	af03      	add	r7, sp, #12
   200e8:	b0ab      	sub	sp, #172	@ 0xac
   200ea:	9006      	str	r0, [sp, #24]
   200ec:	ae07      	add	r6, sp, #28
   200ee:	2002      	movs	r0, #2
   200f0:	9005      	str	r0, [sp, #20]
   200f2:	7230      	strb	r0, [r6, #8]
   200f4:	360c      	adds	r6, #12
   200f6:	2544      	movs	r5, #68	@ 0x44
   200f8:	4630      	mov	r0, r6
   200fa:	462a      	mov	r2, r5
   200fc:	f009 fa07 	bl	2950e <__aeabi_memcpy>
   20100:	ac1b      	add	r4, sp, #108	@ 0x6c
   20102:	4620      	mov	r0, r4
   20104:	300c      	adds	r0, #12
   20106:	2123      	movs	r1, #35	@ 0x23
   20108:	9004      	str	r0, [sp, #16]
   2010a:	9103      	str	r1, [sp, #12]
   2010c:	f009 f852 	bl	291b4 <__aeabi_memclr4>
   20110:	9805      	ldr	r0, [sp, #20]
   20112:	7220      	strb	r0, [r4, #8]
   20114:	2404      	movs	r4, #4
   20116:	9500      	str	r5, [sp, #0]
   20118:	9401      	str	r4, [sp, #4]
   2011a:	a827      	add	r0, sp, #156	@ 0x9c
   2011c:	492d      	ldr	r1, [pc, #180]	@ (201d4 <_ZN20complex_full_dynamic3app17h0179d09a4d6e540bE+0xf0>)
   2011e:	2506      	movs	r5, #6
   20120:	462a      	mov	r2, r5
   20122:	4633      	mov	r3, r6
   20124:	f009 f82e 	bl	29184 <_ZN9allow_pin13dynamic_allow17h33d41317a2da4f1cE>
   20128:	9827      	ldr	r0, [sp, #156]	@ 0x9c
   2012a:	2802      	cmp	r0, #2
   2012c:	d102      	bne.n	20134 <_ZN20complex_full_dynamic3app17h0179d09a4d6e540bE+0x50>
   2012e:	9928      	ldr	r1, [sp, #160]	@ 0xa0
   20130:	4c28      	ldr	r4, [pc, #160]	@ (201d4 <_ZN20complex_full_dynamic3app17h0179d09a4d6e540bE+0xf0>)
   20132:	e004      	b.n	2013e <_ZN20complex_full_dynamic3app17h0179d09a4d6e540bE+0x5a>
   20134:	a907      	add	r1, sp, #28
   20136:	720c      	strb	r4, [r1, #8]
   20138:	9508      	str	r5, [sp, #32]
   2013a:	4c26      	ldr	r4, [pc, #152]	@ (201d4 <_ZN20complex_full_dynamic3app17h0179d09a4d6e540bE+0xf0>)
   2013c:	9407      	str	r4, [sp, #28]
   2013e:	2601      	movs	r6, #1
   20140:	2802      	cmp	r0, #2
   20142:	d02d      	beq.n	201a0 <_ZN20complex_full_dynamic3app17h0179d09a4d6e540bE+0xbc>
   20144:	a81b      	add	r0, sp, #108	@ 0x6c
   20146:	7a00      	ldrb	r0, [r0, #8]
   20148:	2802      	cmp	r0, #2
   2014a:	d10e      	bne.n	2016a <_ZN20complex_full_dynamic3app17h0179d09a4d6e540bE+0x86>
   2014c:	2503      	movs	r5, #3
   2014e:	9803      	ldr	r0, [sp, #12]
   20150:	9000      	str	r0, [sp, #0]
   20152:	9501      	str	r5, [sp, #4]
   20154:	a827      	add	r0, sp, #156	@ 0x9c
   20156:	4621      	mov	r1, r4
   20158:	462a      	mov	r2, r5
   2015a:	9b04      	ldr	r3, [sp, #16]
   2015c:	f009 f812 	bl	29184 <_ZN9allow_pin13dynamic_allow17h33d41317a2da4f1cE>
   20160:	9827      	ldr	r0, [sp, #156]	@ 0x9c
   20162:	2802      	cmp	r0, #2
   20164:	d106      	bne.n	20174 <_ZN20complex_full_dynamic3app17h0179d09a4d6e540bE+0x90>
   20166:	9928      	ldr	r1, [sp, #160]	@ 0xa0
   20168:	e000      	b.n	2016c <_ZN20complex_full_dynamic3app17h0179d09a4d6e540bE+0x88>
   2016a:	2103      	movs	r1, #3
   2016c:	4630      	mov	r0, r6
   2016e:	2800      	cmp	r0, #0
   20170:	d007      	beq.n	20182 <_ZN20complex_full_dynamic3app17h0179d09a4d6e540bE+0x9e>
   20172:	e015      	b.n	201a0 <_ZN20complex_full_dynamic3app17h0179d09a4d6e540bE+0xbc>
   20174:	a81b      	add	r0, sp, #108	@ 0x6c
   20176:	7205      	strb	r5, [r0, #8]
   20178:	951c      	str	r5, [sp, #112]	@ 0x70
   2017a:	941b      	str	r4, [sp, #108]	@ 0x6c
   2017c:	2000      	movs	r0, #0
   2017e:	2800      	cmp	r0, #0
   20180:	d10e      	bne.n	201a0 <_ZN20complex_full_dynamic3app17h0179d09a4d6e540bE+0xbc>
   20182:	4814      	ldr	r0, [pc, #80]	@ (201d4 <_ZN20complex_full_dynamic3app17h0179d09a4d6e540bE+0xf0>)
   20184:	2106      	movs	r1, #6
   20186:	2203      	movs	r2, #3
   20188:	2400      	movs	r4, #0
   2018a:	4623      	mov	r3, r4
   2018c:	df02      	svc	2
   2018e:	287f      	cmp	r0, #127	@ 0x7f
   20190:	d906      	bls.n	201a0 <_ZN20complex_full_dynamic3app17h0179d09a4d6e540bE+0xbc>
   20192:	a807      	add	r0, sp, #28
   20194:	f008 ffe2 	bl	2915c <_ZN9allow_pin12full_dynamic17unshare_if_shared17h9f78cce76fd1eb6dE>
   20198:	a81b      	add	r0, sp, #108	@ 0x6c
   2019a:	f008 ffdf 	bl	2915c <_ZN9allow_pin12full_dynamic17unshare_if_shared17h9f78cce76fd1eb6dE>
   2019e:	4626      	mov	r6, r4
   201a0:	2e00      	cmp	r6, #0
   201a2:	d003      	beq.n	201ac <_ZN20complex_full_dynamic3app17h0179d09a4d6e540bE+0xc8>
   201a4:	9c06      	ldr	r4, [sp, #24]
   201a6:	6061      	str	r1, [r4, #4]
   201a8:	2001      	movs	r0, #1
   201aa:	e009      	b.n	201c0 <_ZN20complex_full_dynamic3app17h0179d09a4d6e540bE+0xdc>
   201ac:	a81b      	add	r0, sp, #108	@ 0x6c
   201ae:	f008 ffd5 	bl	2915c <_ZN9allow_pin12full_dynamic17unshare_if_shared17h9f78cce76fd1eb6dE>
   201b2:	9c06      	ldr	r4, [sp, #24]
   201b4:	1c60      	adds	r0, r4, #1
   201b6:	2223      	movs	r2, #35	@ 0x23
   201b8:	9904      	ldr	r1, [sp, #16]
   201ba:	f009 f9a8 	bl	2950e <__aeabi_memcpy>
   201be:	2000      	movs	r0, #0
   201c0:	7020      	strb	r0, [r4, #0]
   201c2:	a81b      	add	r0, sp, #108	@ 0x6c
   201c4:	f008 ffca 	bl	2915c <_ZN9allow_pin12full_dynamic17unshare_if_shared17h9f78cce76fd1eb6dE>
   201c8:	a807      	add	r0, sp, #28
   201ca:	f008 ffc7 	bl	2915c <_ZN9allow_pin12full_dynamic17unshare_if_shared17h9f78cce76fd1eb6dE>
   201ce:	b02b      	add	sp, #172	@ 0xac
   201d0:	bdf0      	pop	{r4, r5, r6, r7, pc}
   201d2:	46c0      	nop			@ (mov r8, r8)
   201d4:	000009bf 	.word	0x000009bf

000201d8 <_ZN20complex_full_dynamic3app17h0a0bac826f1386c0E>:
   201d8:	b5f0      	push	{r4, r5, r6, r7, lr}
   201da:	af03      	add	r7, sp, #12
   201dc:	b0a7      	sub	sp, #156	@ 0x9c
   201de:	9006      	str	r0, [sp, #24]
   201e0:	ad07      	add	r5, sp, #28
   201e2:	2402      	movs	r4, #2
   201e4:	722c      	strb	r4, [r5, #8]
   201e6:	350c      	adds	r5, #12
   201e8:	2212      	movs	r2, #18
   201ea:	9205      	str	r2, [sp, #20]
   201ec:	4628      	mov	r0, r5
   201ee:	f009 f98e 	bl	2950e <__aeabi_memcpy>
   201f2:	ae0f      	add	r6, sp, #60	@ 0x3c
   201f4:	4630      	mov	r0, r6
   201f6:	300c      	adds	r0, #12
   201f8:	2144      	movs	r1, #68	@ 0x44
   201fa:	9004      	str	r0, [sp, #16]
   201fc:	9103      	str	r1, [sp, #12]
   201fe:	f008 ffd9 	bl	291b4 <__aeabi_memclr4>
   20202:	7234      	strb	r4, [r6, #8]
   20204:	4626      	mov	r6, r4
   20206:	2004      	movs	r0, #4
   20208:	9905      	ldr	r1, [sp, #20]
   2020a:	9100      	str	r1, [sp, #0]
   2020c:	9005      	str	r0, [sp, #20]
   2020e:	9001      	str	r0, [sp, #4]
   20210:	a823      	add	r0, sp, #140	@ 0x8c
   20212:	4c2e      	ldr	r4, [pc, #184]	@ (202cc <_ZN20complex_full_dynamic3app17h0a0bac826f1386c0E+0xf4>)
   20214:	4621      	mov	r1, r4
   20216:	4632      	mov	r2, r6
   20218:	462b      	mov	r3, r5
   2021a:	f008 ffb3 	bl	29184 <_ZN9allow_pin13dynamic_allow17h33d41317a2da4f1cE>
   2021e:	9823      	ldr	r0, [sp, #140]	@ 0x8c
   20220:	2802      	cmp	r0, #2
   20222:	d101      	bne.n	20228 <_ZN20complex_full_dynamic3app17h0a0bac826f1386c0E+0x50>
   20224:	9924      	ldr	r1, [sp, #144]	@ 0x90
   20226:	e004      	b.n	20232 <_ZN20complex_full_dynamic3app17h0a0bac826f1386c0E+0x5a>
   20228:	a907      	add	r1, sp, #28
   2022a:	9a05      	ldr	r2, [sp, #20]
   2022c:	720a      	strb	r2, [r1, #8]
   2022e:	9608      	str	r6, [sp, #32]
   20230:	9407      	str	r4, [sp, #28]
   20232:	2501      	movs	r5, #1
   20234:	2802      	cmp	r0, #2
   20236:	d02f      	beq.n	20298 <_ZN20complex_full_dynamic3app17h0a0bac826f1386c0E+0xc0>
   20238:	a80f      	add	r0, sp, #60	@ 0x3c
   2023a:	7a00      	ldrb	r0, [r0, #8]
   2023c:	2802      	cmp	r0, #2
   2023e:	d10f      	bne.n	20260 <_ZN20complex_full_dynamic3app17h0a0bac826f1386c0E+0x88>
   20240:	2603      	movs	r6, #3
   20242:	9803      	ldr	r0, [sp, #12]
   20244:	9000      	str	r0, [sp, #0]
   20246:	9601      	str	r6, [sp, #4]
   20248:	a823      	add	r0, sp, #140	@ 0x8c
   2024a:	4621      	mov	r1, r4
   2024c:	2409      	movs	r4, #9
   2024e:	4622      	mov	r2, r4
   20250:	9b04      	ldr	r3, [sp, #16]
   20252:	f008 ff97 	bl	29184 <_ZN9allow_pin13dynamic_allow17h33d41317a2da4f1cE>
   20256:	9823      	ldr	r0, [sp, #140]	@ 0x8c
   20258:	2802      	cmp	r0, #2
   2025a:	d106      	bne.n	2026a <_ZN20complex_full_dynamic3app17h0a0bac826f1386c0E+0x92>
   2025c:	9924      	ldr	r1, [sp, #144]	@ 0x90
   2025e:	e000      	b.n	20262 <_ZN20complex_full_dynamic3app17h0a0bac826f1386c0E+0x8a>
   20260:	2103      	movs	r1, #3
   20262:	4628      	mov	r0, r5
   20264:	2800      	cmp	r0, #0
   20266:	d008      	beq.n	2027a <_ZN20complex_full_dynamic3app17h0a0bac826f1386c0E+0xa2>
   20268:	e016      	b.n	20298 <_ZN20complex_full_dynamic3app17h0a0bac826f1386c0E+0xc0>
   2026a:	a80f      	add	r0, sp, #60	@ 0x3c
   2026c:	7206      	strb	r6, [r0, #8]
   2026e:	9410      	str	r4, [sp, #64]	@ 0x40
   20270:	4816      	ldr	r0, [pc, #88]	@ (202cc <_ZN20complex_full_dynamic3app17h0a0bac826f1386c0E+0xf4>)
   20272:	900f      	str	r0, [sp, #60]	@ 0x3c
   20274:	2000      	movs	r0, #0
   20276:	2800      	cmp	r0, #0
   20278:	d10e      	bne.n	20298 <_ZN20complex_full_dynamic3app17h0a0bac826f1386c0E+0xc0>
   2027a:	4814      	ldr	r0, [pc, #80]	@ (202cc <_ZN20complex_full_dynamic3app17h0a0bac826f1386c0E+0xf4>)
   2027c:	2102      	movs	r1, #2
   2027e:	2209      	movs	r2, #9
   20280:	2400      	movs	r4, #0
   20282:	4623      	mov	r3, r4
   20284:	df02      	svc	2
   20286:	287f      	cmp	r0, #127	@ 0x7f
   20288:	d906      	bls.n	20298 <_ZN20complex_full_dynamic3app17h0a0bac826f1386c0E+0xc0>
   2028a:	a807      	add	r0, sp, #28
   2028c:	f008 ff66 	bl	2915c <_ZN9allow_pin12full_dynamic17unshare_if_shared17h9f78cce76fd1eb6dE>
   20290:	a80f      	add	r0, sp, #60	@ 0x3c
   20292:	f008 ff63 	bl	2915c <_ZN9allow_pin12full_dynamic17unshare_if_shared17h9f78cce76fd1eb6dE>
   20296:	4625      	mov	r5, r4
   20298:	2d00      	cmp	r5, #0
   2029a:	d003      	beq.n	202a4 <_ZN20complex_full_dynamic3app17h0a0bac826f1386c0E+0xcc>
   2029c:	9c06      	ldr	r4, [sp, #24]
   2029e:	6061      	str	r1, [r4, #4]
   202a0:	2001      	movs	r0, #1
   202a2:	e009      	b.n	202b8 <_ZN20complex_full_dynamic3app17h0a0bac826f1386c0E+0xe0>
   202a4:	a80f      	add	r0, sp, #60	@ 0x3c
   202a6:	f008 ff59 	bl	2915c <_ZN9allow_pin12full_dynamic17unshare_if_shared17h9f78cce76fd1eb6dE>
   202aa:	9c06      	ldr	r4, [sp, #24]
   202ac:	1c60      	adds	r0, r4, #1
   202ae:	2244      	movs	r2, #68	@ 0x44
   202b0:	9904      	ldr	r1, [sp, #16]
   202b2:	f009 f92c 	bl	2950e <__aeabi_memcpy>
   202b6:	2000      	movs	r0, #0
   202b8:	7020      	strb	r0, [r4, #0]
   202ba:	a80f      	add	r0, sp, #60	@ 0x3c
   202bc:	f008 ff4e 	bl	2915c <_ZN9allow_pin12full_dynamic17unshare_if_shared17h9f78cce76fd1eb6dE>
   202c0:	a807      	add	r0, sp, #28
   202c2:	f008 ff4b 	bl	2915c <_ZN9allow_pin12full_dynamic17unshare_if_shared17h9f78cce76fd1eb6dE>
   202c6:	b027      	add	sp, #156	@ 0x9c
   202c8:	bdf0      	pop	{r4, r5, r6, r7, pc}
   202ca:	46c0      	nop			@ (mov r8, r8)
   202cc:	00002432 	.word	0x00002432

000202d0 <_ZN20complex_full_dynamic3app17h0eb6948ebc5d74c7E>:
   202d0:	b5f0      	push	{r4, r5, r6, r7, lr}
   202d2:	af03      	add	r7, sp, #12
   202d4:	b0a3      	sub	sp, #140	@ 0x8c
   202d6:	9004      	str	r0, [sp, #16]
   202d8:	ac06      	add	r4, sp, #24
   202da:	2502      	movs	r5, #2
   202dc:	7225      	strb	r5, [r4, #8]
   202de:	340c      	adds	r4, #12
   202e0:	222b      	movs	r2, #43	@ 0x2b
   202e2:	9203      	str	r2, [sp, #12]
   202e4:	4620      	mov	r0, r4
   202e6:	f009 f912 	bl	2950e <__aeabi_memcpy>
   202ea:	a814      	add	r0, sp, #80	@ 0x50
   202ec:	2600      	movs	r6, #0
   202ee:	8506      	strh	r6, [r0, #40]	@ 0x28
   202f0:	9005      	str	r0, [sp, #20]
   202f2:	7205      	strb	r5, [r0, #8]
   202f4:	961d      	str	r6, [sp, #116]	@ 0x74
   202f6:	961c      	str	r6, [sp, #112]	@ 0x70
   202f8:	961b      	str	r6, [sp, #108]	@ 0x6c
   202fa:	961a      	str	r6, [sp, #104]	@ 0x68
   202fc:	9619      	str	r6, [sp, #100]	@ 0x64
   202fe:	9618      	str	r6, [sp, #96]	@ 0x60
   20300:	9617      	str	r6, [sp, #92]	@ 0x5c
   20302:	2004      	movs	r0, #4
   20304:	9903      	ldr	r1, [sp, #12]
   20306:	9100      	str	r1, [sp, #0]
   20308:	9003      	str	r0, [sp, #12]
   2030a:	9001      	str	r0, [sp, #4]
   2030c:	a81f      	add	r0, sp, #124	@ 0x7c
   2030e:	4931      	ldr	r1, [pc, #196]	@ (203d4 <_ZN20complex_full_dynamic3app17h0eb6948ebc5d74c7E+0x104>)
   20310:	2507      	movs	r5, #7
   20312:	462a      	mov	r2, r5
   20314:	4623      	mov	r3, r4
   20316:	f008 ff35 	bl	29184 <_ZN9allow_pin13dynamic_allow17h33d41317a2da4f1cE>
   2031a:	981f      	ldr	r0, [sp, #124]	@ 0x7c
   2031c:	2802      	cmp	r0, #2
   2031e:	d102      	bne.n	20326 <_ZN20complex_full_dynamic3app17h0eb6948ebc5d74c7E+0x56>
   20320:	9920      	ldr	r1, [sp, #128]	@ 0x80
   20322:	4a2c      	ldr	r2, [pc, #176]	@ (203d4 <_ZN20complex_full_dynamic3app17h0eb6948ebc5d74c7E+0x104>)
   20324:	e005      	b.n	20332 <_ZN20complex_full_dynamic3app17h0eb6948ebc5d74c7E+0x62>
   20326:	a906      	add	r1, sp, #24
   20328:	9a03      	ldr	r2, [sp, #12]
   2032a:	720a      	strb	r2, [r1, #8]
   2032c:	9507      	str	r5, [sp, #28]
   2032e:	4a29      	ldr	r2, [pc, #164]	@ (203d4 <_ZN20complex_full_dynamic3app17h0eb6948ebc5d74c7E+0x104>)
   20330:	9206      	str	r2, [sp, #24]
   20332:	9d05      	ldr	r5, [sp, #20]
   20334:	350c      	adds	r5, #12
   20336:	2401      	movs	r4, #1
   20338:	2802      	cmp	r0, #2
   2033a:	d032      	beq.n	203a2 <_ZN20complex_full_dynamic3app17h0eb6948ebc5d74c7E+0xd2>
   2033c:	a814      	add	r0, sp, #80	@ 0x50
   2033e:	7a00      	ldrb	r0, [r0, #8]
   20340:	2103      	movs	r1, #3
   20342:	2802      	cmp	r0, #2
   20344:	d111      	bne.n	2036a <_ZN20complex_full_dynamic3app17h0eb6948ebc5d74c7E+0x9a>
   20346:	201e      	movs	r0, #30
   20348:	9000      	str	r0, [sp, #0]
   2034a:	9103      	str	r1, [sp, #12]
   2034c:	9101      	str	r1, [sp, #4]
   2034e:	a81f      	add	r0, sp, #124	@ 0x7c
   20350:	462b      	mov	r3, r5
   20352:	2508      	movs	r5, #8
   20354:	4611      	mov	r1, r2
   20356:	462a      	mov	r2, r5
   20358:	9305      	str	r3, [sp, #20]
   2035a:	f008 ff13 	bl	29184 <_ZN9allow_pin13dynamic_allow17h33d41317a2da4f1cE>
   2035e:	981f      	ldr	r0, [sp, #124]	@ 0x7c
   20360:	2802      	cmp	r0, #2
   20362:	d106      	bne.n	20372 <_ZN20complex_full_dynamic3app17h0eb6948ebc5d74c7E+0xa2>
   20364:	9920      	ldr	r1, [sp, #128]	@ 0x80
   20366:	4626      	mov	r6, r4
   20368:	e009      	b.n	2037e <_ZN20complex_full_dynamic3app17h0eb6948ebc5d74c7E+0xae>
   2036a:	4626      	mov	r6, r4
   2036c:	2e00      	cmp	r6, #0
   2036e:	d009      	beq.n	20384 <_ZN20complex_full_dynamic3app17h0eb6948ebc5d74c7E+0xb4>
   20370:	e017      	b.n	203a2 <_ZN20complex_full_dynamic3app17h0eb6948ebc5d74c7E+0xd2>
   20372:	a814      	add	r0, sp, #80	@ 0x50
   20374:	9903      	ldr	r1, [sp, #12]
   20376:	7201      	strb	r1, [r0, #8]
   20378:	9515      	str	r5, [sp, #84]	@ 0x54
   2037a:	4816      	ldr	r0, [pc, #88]	@ (203d4 <_ZN20complex_full_dynamic3app17h0eb6948ebc5d74c7E+0x104>)
   2037c:	9014      	str	r0, [sp, #80]	@ 0x50
   2037e:	9d05      	ldr	r5, [sp, #20]
   20380:	2e00      	cmp	r6, #0
   20382:	d10e      	bne.n	203a2 <_ZN20complex_full_dynamic3app17h0eb6948ebc5d74c7E+0xd2>
   20384:	4813      	ldr	r0, [pc, #76]	@ (203d4 <_ZN20complex_full_dynamic3app17h0eb6948ebc5d74c7E+0x104>)
   20386:	2107      	movs	r1, #7
   20388:	2208      	movs	r2, #8
   2038a:	2600      	movs	r6, #0
   2038c:	4633      	mov	r3, r6
   2038e:	df02      	svc	2
   20390:	287f      	cmp	r0, #127	@ 0x7f
   20392:	d906      	bls.n	203a2 <_ZN20complex_full_dynamic3app17h0eb6948ebc5d74c7E+0xd2>
   20394:	a806      	add	r0, sp, #24
   20396:	f008 fee1 	bl	2915c <_ZN9allow_pin12full_dynamic17unshare_if_shared17h9f78cce76fd1eb6dE>
   2039a:	a814      	add	r0, sp, #80	@ 0x50
   2039c:	f008 fede 	bl	2915c <_ZN9allow_pin12full_dynamic17unshare_if_shared17h9f78cce76fd1eb6dE>
   203a0:	4634      	mov	r4, r6
   203a2:	2c00      	cmp	r4, #0
   203a4:	d003      	beq.n	203ae <_ZN20complex_full_dynamic3app17h0eb6948ebc5d74c7E+0xde>
   203a6:	9c04      	ldr	r4, [sp, #16]
   203a8:	6061      	str	r1, [r4, #4]
   203aa:	2001      	movs	r0, #1
   203ac:	e009      	b.n	203c2 <_ZN20complex_full_dynamic3app17h0eb6948ebc5d74c7E+0xf2>
   203ae:	a814      	add	r0, sp, #80	@ 0x50
   203b0:	f008 fed4 	bl	2915c <_ZN9allow_pin12full_dynamic17unshare_if_shared17h9f78cce76fd1eb6dE>
   203b4:	9c04      	ldr	r4, [sp, #16]
   203b6:	1c60      	adds	r0, r4, #1
   203b8:	221e      	movs	r2, #30
   203ba:	4629      	mov	r1, r5
   203bc:	f009 f8a7 	bl	2950e <__aeabi_memcpy>
   203c0:	2000      	movs	r0, #0
   203c2:	7020      	strb	r0, [r4, #0]
   203c4:	a814      	add	r0, sp, #80	@ 0x50
   203c6:	f008 fec9 	bl	2915c <_ZN9allow_pin12full_dynamic17unshare_if_shared17h9f78cce76fd1eb6dE>
   203ca:	a806      	add	r0, sp, #24
   203cc:	f008 fec6 	bl	2915c <_ZN9allow_pin12full_dynamic17unshare_if_shared17h9f78cce76fd1eb6dE>
   203d0:	b023      	add	sp, #140	@ 0x8c
   203d2:	bdf0      	pop	{r4, r5, r6, r7, pc}
   203d4:	000007e3 	.word	0x000007e3

000203d8 <_ZN20complex_full_dynamic3app17h0edb0ba7bbdd3097E>:
   203d8:	b5f0      	push	{r4, r5, r6, r7, lr}
   203da:	af03      	add	r7, sp, #12
   203dc:	b09f      	sub	sp, #124	@ 0x7c
   203de:	9006      	str	r0, [sp, #24]
   203e0:	ac07      	add	r4, sp, #28
   203e2:	2002      	movs	r0, #2
   203e4:	9005      	str	r0, [sp, #20]
   203e6:	7220      	strb	r0, [r4, #8]
   203e8:	340c      	adds	r4, #12
   203ea:	250f      	movs	r5, #15
   203ec:	4620      	mov	r0, r4
   203ee:	462a      	mov	r2, r5
   203f0:	f009 f88d 	bl	2950e <__aeabi_memcpy>
   203f4:	ae0e      	add	r6, sp, #56	@ 0x38
   203f6:	4630      	mov	r0, r6
   203f8:	300c      	adds	r0, #12
   203fa:	2125      	movs	r1, #37	@ 0x25
   203fc:	9004      	str	r0, [sp, #16]
   203fe:	9103      	str	r1, [sp, #12]
   20400:	f008 fed8 	bl	291b4 <__aeabi_memclr4>
   20404:	9805      	ldr	r0, [sp, #20]
   20406:	7230      	strb	r0, [r6, #8]
   20408:	2004      	movs	r0, #4
   2040a:	9500      	str	r5, [sp, #0]
   2040c:	9005      	str	r0, [sp, #20]
   2040e:	9001      	str	r0, [sp, #4]
   20410:	a81b      	add	r0, sp, #108	@ 0x6c
   20412:	25a2      	movs	r5, #162	@ 0xa2
   20414:	2608      	movs	r6, #8
   20416:	4629      	mov	r1, r5
   20418:	4632      	mov	r2, r6
   2041a:	4623      	mov	r3, r4
   2041c:	f008 feb2 	bl	29184 <_ZN9allow_pin13dynamic_allow17h33d41317a2da4f1cE>
   20420:	981b      	ldr	r0, [sp, #108]	@ 0x6c
   20422:	2802      	cmp	r0, #2
   20424:	d101      	bne.n	2042a <_ZN20complex_full_dynamic3app17h0edb0ba7bbdd3097E+0x52>
   20426:	991c      	ldr	r1, [sp, #112]	@ 0x70
   20428:	e004      	b.n	20434 <_ZN20complex_full_dynamic3app17h0edb0ba7bbdd3097E+0x5c>
   2042a:	a907      	add	r1, sp, #28
   2042c:	9a05      	ldr	r2, [sp, #20]
   2042e:	720a      	strb	r2, [r1, #8]
   20430:	9608      	str	r6, [sp, #32]
   20432:	9507      	str	r5, [sp, #28]
   20434:	2601      	movs	r6, #1
   20436:	2802      	cmp	r0, #2
   20438:	d02e      	beq.n	20498 <_ZN20complex_full_dynamic3app17h0edb0ba7bbdd3097E+0xc0>
   2043a:	a80e      	add	r0, sp, #56	@ 0x38
   2043c:	7a00      	ldrb	r0, [r0, #8]
   2043e:	2103      	movs	r1, #3
   20440:	2802      	cmp	r0, #2
   20442:	d10f      	bne.n	20464 <_ZN20complex_full_dynamic3app17h0edb0ba7bbdd3097E+0x8c>
   20444:	9803      	ldr	r0, [sp, #12]
   20446:	9000      	str	r0, [sp, #0]
   20448:	9105      	str	r1, [sp, #20]
   2044a:	9101      	str	r1, [sp, #4]
   2044c:	a81b      	add	r0, sp, #108	@ 0x6c
   2044e:	25a2      	movs	r5, #162	@ 0xa2
   20450:	2400      	movs	r4, #0
   20452:	4629      	mov	r1, r5
   20454:	4622      	mov	r2, r4
   20456:	9b04      	ldr	r3, [sp, #16]
   20458:	f008 fe94 	bl	29184 <_ZN9allow_pin13dynamic_allow17h33d41317a2da4f1cE>
   2045c:	981b      	ldr	r0, [sp, #108]	@ 0x6c
   2045e:	2802      	cmp	r0, #2
   20460:	d104      	bne.n	2046c <_ZN20complex_full_dynamic3app17h0edb0ba7bbdd3097E+0x94>
   20462:	991c      	ldr	r1, [sp, #112]	@ 0x70
   20464:	4634      	mov	r4, r6
   20466:	2c00      	cmp	r4, #0
   20468:	d007      	beq.n	2047a <_ZN20complex_full_dynamic3app17h0edb0ba7bbdd3097E+0xa2>
   2046a:	e015      	b.n	20498 <_ZN20complex_full_dynamic3app17h0edb0ba7bbdd3097E+0xc0>
   2046c:	a80e      	add	r0, sp, #56	@ 0x38
   2046e:	9905      	ldr	r1, [sp, #20]
   20470:	7201      	strb	r1, [r0, #8]
   20472:	940f      	str	r4, [sp, #60]	@ 0x3c
   20474:	950e      	str	r5, [sp, #56]	@ 0x38
   20476:	2c00      	cmp	r4, #0
   20478:	d10e      	bne.n	20498 <_ZN20complex_full_dynamic3app17h0edb0ba7bbdd3097E+0xc0>
   2047a:	20a2      	movs	r0, #162	@ 0xa2
   2047c:	2108      	movs	r1, #8
   2047e:	2400      	movs	r4, #0
   20480:	4622      	mov	r2, r4
   20482:	4623      	mov	r3, r4
   20484:	df02      	svc	2
   20486:	287f      	cmp	r0, #127	@ 0x7f
   20488:	d906      	bls.n	20498 <_ZN20complex_full_dynamic3app17h0edb0ba7bbdd3097E+0xc0>
   2048a:	a807      	add	r0, sp, #28
   2048c:	f008 fe66 	bl	2915c <_ZN9allow_pin12full_dynamic17unshare_if_shared17h9f78cce76fd1eb6dE>
   20490:	a80e      	add	r0, sp, #56	@ 0x38
   20492:	f008 fe63 	bl	2915c <_ZN9allow_pin12full_dynamic17unshare_if_shared17h9f78cce76fd1eb6dE>
   20496:	4626      	mov	r6, r4
   20498:	2e00      	cmp	r6, #0
   2049a:	d003      	beq.n	204a4 <_ZN20complex_full_dynamic3app17h0edb0ba7bbdd3097E+0xcc>
   2049c:	9c06      	ldr	r4, [sp, #24]
   2049e:	6061      	str	r1, [r4, #4]
   204a0:	2001      	movs	r0, #1
   204a2:	e009      	b.n	204b8 <_ZN20complex_full_dynamic3app17h0edb0ba7bbdd3097E+0xe0>
   204a4:	a80e      	add	r0, sp, #56	@ 0x38
   204a6:	f008 fe59 	bl	2915c <_ZN9allow_pin12full_dynamic17unshare_if_shared17h9f78cce76fd1eb6dE>
   204aa:	9c06      	ldr	r4, [sp, #24]
   204ac:	1c60      	adds	r0, r4, #1
   204ae:	2225      	movs	r2, #37	@ 0x25
   204b0:	9904      	ldr	r1, [sp, #16]
   204b2:	f009 f82c 	bl	2950e <__aeabi_memcpy>
   204b6:	2000      	movs	r0, #0
   204b8:	7020      	strb	r0, [r4, #0]
   204ba:	a80e      	add	r0, sp, #56	@ 0x38
   204bc:	f008 fe4e 	bl	2915c <_ZN9allow_pin12full_dynamic17unshare_if_shared17h9f78cce76fd1eb6dE>
   204c0:	a807      	add	r0, sp, #28
   204c2:	f008 fe4b 	bl	2915c <_ZN9allow_pin12full_dynamic17unshare_if_shared17h9f78cce76fd1eb6dE>
   204c6:	b01f      	add	sp, #124	@ 0x7c
   204c8:	bdf0      	pop	{r4, r5, r6, r7, pc}
   204ca:	d4d4      	bmi.n	20476 <_ZN20complex_full_dynamic3app17h0edb0ba7bbdd3097E+0x9e>

000204cc <_ZN20complex_full_dynamic3app17h108e091c79030ce8E>:
   204cc:	b5f0      	push	{r4, r5, r6, r7, lr}
   204ce:	af03      	add	r7, sp, #12
   204d0:	b0a9      	sub	sp, #164	@ 0xa4
   204d2:	9005      	str	r0, [sp, #20]
   204d4:	ad06      	add	r5, sp, #24
   204d6:	2402      	movs	r4, #2
   204d8:	722c      	strb	r4, [r5, #8]
   204da:	350c      	adds	r5, #12
   204dc:	2234      	movs	r2, #52	@ 0x34
   204de:	9204      	str	r2, [sp, #16]
   204e0:	4628      	mov	r0, r5
   204e2:	f009 f814 	bl	2950e <__aeabi_memcpy>
   204e6:	ae16      	add	r6, sp, #88	@ 0x58
   204e8:	4630      	mov	r0, r6
   204ea:	300c      	adds	r0, #12
   204ec:	212e      	movs	r1, #46	@ 0x2e
   204ee:	9003      	str	r0, [sp, #12]
   204f0:	9102      	str	r1, [sp, #8]
   204f2:	f008 fe5f 	bl	291b4 <__aeabi_memclr4>
   204f6:	7234      	strb	r4, [r6, #8]
   204f8:	4626      	mov	r6, r4
   204fa:	2004      	movs	r0, #4
   204fc:	9904      	ldr	r1, [sp, #16]
   204fe:	9100      	str	r1, [sp, #0]
   20500:	9004      	str	r0, [sp, #16]
   20502:	9001      	str	r0, [sp, #4]
   20504:	a825      	add	r0, sp, #148	@ 0x94
   20506:	4c2e      	ldr	r4, [pc, #184]	@ (205c0 <_ZN20complex_full_dynamic3app17h108e091c79030ce8E+0xf4>)
   20508:	4621      	mov	r1, r4
   2050a:	4632      	mov	r2, r6
   2050c:	462b      	mov	r3, r5
   2050e:	f008 fe39 	bl	29184 <_ZN9allow_pin13dynamic_allow17h33d41317a2da4f1cE>
   20512:	9825      	ldr	r0, [sp, #148]	@ 0x94
   20514:	2802      	cmp	r0, #2
   20516:	d101      	bne.n	2051c <_ZN20complex_full_dynamic3app17h108e091c79030ce8E+0x50>
   20518:	9926      	ldr	r1, [sp, #152]	@ 0x98
   2051a:	e004      	b.n	20526 <_ZN20complex_full_dynamic3app17h108e091c79030ce8E+0x5a>
   2051c:	a906      	add	r1, sp, #24
   2051e:	9a04      	ldr	r2, [sp, #16]
   20520:	720a      	strb	r2, [r1, #8]
   20522:	9607      	str	r6, [sp, #28]
   20524:	9406      	str	r4, [sp, #24]
   20526:	2501      	movs	r5, #1
   20528:	2802      	cmp	r0, #2
   2052a:	d02f      	beq.n	2058c <_ZN20complex_full_dynamic3app17h108e091c79030ce8E+0xc0>
   2052c:	a816      	add	r0, sp, #88	@ 0x58
   2052e:	7a00      	ldrb	r0, [r0, #8]
   20530:	2802      	cmp	r0, #2
   20532:	d10f      	bne.n	20554 <_ZN20complex_full_dynamic3app17h108e091c79030ce8E+0x88>
   20534:	2603      	movs	r6, #3
   20536:	9802      	ldr	r0, [sp, #8]
   20538:	9000      	str	r0, [sp, #0]
   2053a:	9601      	str	r6, [sp, #4]
   2053c:	a825      	add	r0, sp, #148	@ 0x94
   2053e:	4621      	mov	r1, r4
   20540:	2408      	movs	r4, #8
   20542:	4622      	mov	r2, r4
   20544:	9b03      	ldr	r3, [sp, #12]
   20546:	f008 fe1d 	bl	29184 <_ZN9allow_pin13dynamic_allow17h33d41317a2da4f1cE>
   2054a:	9825      	ldr	r0, [sp, #148]	@ 0x94
   2054c:	2802      	cmp	r0, #2
   2054e:	d106      	bne.n	2055e <_ZN20complex_full_dynamic3app17h108e091c79030ce8E+0x92>
   20550:	9926      	ldr	r1, [sp, #152]	@ 0x98
   20552:	e000      	b.n	20556 <_ZN20complex_full_dynamic3app17h108e091c79030ce8E+0x8a>
   20554:	2103      	movs	r1, #3
   20556:	4628      	mov	r0, r5
   20558:	2800      	cmp	r0, #0
   2055a:	d008      	beq.n	2056e <_ZN20complex_full_dynamic3app17h108e091c79030ce8E+0xa2>
   2055c:	e016      	b.n	2058c <_ZN20complex_full_dynamic3app17h108e091c79030ce8E+0xc0>
   2055e:	a816      	add	r0, sp, #88	@ 0x58
   20560:	7206      	strb	r6, [r0, #8]
   20562:	9417      	str	r4, [sp, #92]	@ 0x5c
   20564:	4816      	ldr	r0, [pc, #88]	@ (205c0 <_ZN20complex_full_dynamic3app17h108e091c79030ce8E+0xf4>)
   20566:	9016      	str	r0, [sp, #88]	@ 0x58
   20568:	2000      	movs	r0, #0
   2056a:	2800      	cmp	r0, #0
   2056c:	d10e      	bne.n	2058c <_ZN20complex_full_dynamic3app17h108e091c79030ce8E+0xc0>
   2056e:	4814      	ldr	r0, [pc, #80]	@ (205c0 <_ZN20complex_full_dynamic3app17h108e091c79030ce8E+0xf4>)
   20570:	2102      	movs	r1, #2
   20572:	2208      	movs	r2, #8
   20574:	2400      	movs	r4, #0
   20576:	4623      	mov	r3, r4
   20578:	df02      	svc	2
   2057a:	287f      	cmp	r0, #127	@ 0x7f
   2057c:	d906      	bls.n	2058c <_ZN20complex_full_dynamic3app17h108e091c79030ce8E+0xc0>
   2057e:	a806      	add	r0, sp, #24
   20580:	f008 fdec 	bl	2915c <_ZN9allow_pin12full_dynamic17unshare_if_shared17h9f78cce76fd1eb6dE>
   20584:	a816      	add	r0, sp, #88	@ 0x58
   20586:	f008 fde9 	bl	2915c <_ZN9allow_pin12full_dynamic17unshare_if_shared17h9f78cce76fd1eb6dE>
   2058a:	4625      	mov	r5, r4
   2058c:	2d00      	cmp	r5, #0
   2058e:	d003      	beq.n	20598 <_ZN20complex_full_dynamic3app17h108e091c79030ce8E+0xcc>
   20590:	9c05      	ldr	r4, [sp, #20]
   20592:	6061      	str	r1, [r4, #4]
   20594:	2001      	movs	r0, #1
   20596:	e009      	b.n	205ac <_ZN20complex_full_dynamic3app17h108e091c79030ce8E+0xe0>
   20598:	a816      	add	r0, sp, #88	@ 0x58
   2059a:	f008 fddf 	bl	2915c <_ZN9allow_pin12full_dynamic17unshare_if_shared17h9f78cce76fd1eb6dE>
   2059e:	9c05      	ldr	r4, [sp, #20]
   205a0:	1c60      	adds	r0, r4, #1
   205a2:	222e      	movs	r2, #46	@ 0x2e
   205a4:	9903      	ldr	r1, [sp, #12]
   205a6:	f008 ffb2 	bl	2950e <__aeabi_memcpy>
   205aa:	2000      	movs	r0, #0
   205ac:	7020      	strb	r0, [r4, #0]
   205ae:	a816      	add	r0, sp, #88	@ 0x58
   205b0:	f008 fdd4 	bl	2915c <_ZN9allow_pin12full_dynamic17unshare_if_shared17h9f78cce76fd1eb6dE>
   205b4:	a806      	add	r0, sp, #24
   205b6:	f008 fdd1 	bl	2915c <_ZN9allow_pin12full_dynamic17unshare_if_shared17h9f78cce76fd1eb6dE>
   205ba:	b029      	add	sp, #164	@ 0xa4
   205bc:	bdf0      	pop	{r4, r5, r6, r7, pc}
   205be:	46c0      	nop			@ (mov r8, r8)
   205c0:	00000209 	.word	0x00000209

000205c4 <_ZN20complex_full_dynamic3app17h126a6eea74893fffE>:
   205c4:	b5f0      	push	{r4, r5, r6, r7, lr}
   205c6:	af03      	add	r7, sp, #12
   205c8:	b09d      	sub	sp, #116	@ 0x74
   205ca:	9004      	str	r0, [sp, #16]
   205cc:	ac05      	add	r4, sp, #20
   205ce:	2502      	movs	r5, #2
   205d0:	7225      	strb	r5, [r4, #8]
   205d2:	340c      	adds	r4, #12
   205d4:	221a      	movs	r2, #26
   205d6:	9203      	str	r2, [sp, #12]
   205d8:	4620      	mov	r0, r4
   205da:	f008 ff98 	bl	2950e <__aeabi_memcpy>
   205de:	a80f      	add	r0, sp, #60	@ 0x3c
   205e0:	4601      	mov	r1, r0
   205e2:	310c      	adds	r1, #12
   205e4:	2600      	movs	r6, #0
   205e6:	9102      	str	r1, [sp, #8]
   205e8:	768e      	strb	r6, [r1, #26]
   205ea:	8486      	strh	r6, [r0, #36]	@ 0x24
   205ec:	7205      	strb	r5, [r0, #8]
   205ee:	9617      	str	r6, [sp, #92]	@ 0x5c
   205f0:	9616      	str	r6, [sp, #88]	@ 0x58
   205f2:	9615      	str	r6, [sp, #84]	@ 0x54
   205f4:	9614      	str	r6, [sp, #80]	@ 0x50
   205f6:	9613      	str	r6, [sp, #76]	@ 0x4c
   205f8:	9612      	str	r6, [sp, #72]	@ 0x48
   205fa:	2004      	movs	r0, #4
   205fc:	9903      	ldr	r1, [sp, #12]
   205fe:	9100      	str	r1, [sp, #0]
   20600:	9003      	str	r0, [sp, #12]
   20602:	9001      	str	r0, [sp, #4]
   20604:	a819      	add	r0, sp, #100	@ 0x64
   20606:	492e      	ldr	r1, [pc, #184]	@ (206c0 <_ZN20complex_full_dynamic3app17h126a6eea74893fffE+0xfc>)
   20608:	2505      	movs	r5, #5
   2060a:	462a      	mov	r2, r5
   2060c:	4623      	mov	r3, r4
   2060e:	f008 fdb9 	bl	29184 <_ZN9allow_pin13dynamic_allow17h33d41317a2da4f1cE>
   20612:	9819      	ldr	r0, [sp, #100]	@ 0x64
   20614:	2802      	cmp	r0, #2
   20616:	d102      	bne.n	2061e <_ZN20complex_full_dynamic3app17h126a6eea74893fffE+0x5a>
   20618:	991a      	ldr	r1, [sp, #104]	@ 0x68
   2061a:	4a29      	ldr	r2, [pc, #164]	@ (206c0 <_ZN20complex_full_dynamic3app17h126a6eea74893fffE+0xfc>)
   2061c:	e005      	b.n	2062a <_ZN20complex_full_dynamic3app17h126a6eea74893fffE+0x66>
   2061e:	a905      	add	r1, sp, #20
   20620:	9a03      	ldr	r2, [sp, #12]
   20622:	720a      	strb	r2, [r1, #8]
   20624:	9506      	str	r5, [sp, #24]
   20626:	4a26      	ldr	r2, [pc, #152]	@ (206c0 <_ZN20complex_full_dynamic3app17h126a6eea74893fffE+0xfc>)
   20628:	9205      	str	r2, [sp, #20]
   2062a:	2401      	movs	r4, #1
   2062c:	2802      	cmp	r0, #2
   2062e:	d02e      	beq.n	2068e <_ZN20complex_full_dynamic3app17h126a6eea74893fffE+0xca>
   20630:	a80f      	add	r0, sp, #60	@ 0x3c
   20632:	7a00      	ldrb	r0, [r0, #8]
   20634:	2103      	movs	r1, #3
   20636:	2802      	cmp	r0, #2
   20638:	d10e      	bne.n	20658 <_ZN20complex_full_dynamic3app17h126a6eea74893fffE+0x94>
   2063a:	201b      	movs	r0, #27
   2063c:	9000      	str	r0, [sp, #0]
   2063e:	9103      	str	r1, [sp, #12]
   20640:	9101      	str	r1, [sp, #4]
   20642:	a819      	add	r0, sp, #100	@ 0x64
   20644:	2502      	movs	r5, #2
   20646:	4611      	mov	r1, r2
   20648:	462a      	mov	r2, r5
   2064a:	9b02      	ldr	r3, [sp, #8]
   2064c:	f008 fd9a 	bl	29184 <_ZN9allow_pin13dynamic_allow17h33d41317a2da4f1cE>
   20650:	9819      	ldr	r0, [sp, #100]	@ 0x64
   20652:	2802      	cmp	r0, #2
   20654:	d104      	bne.n	20660 <_ZN20complex_full_dynamic3app17h126a6eea74893fffE+0x9c>
   20656:	991a      	ldr	r1, [sp, #104]	@ 0x68
   20658:	4626      	mov	r6, r4
   2065a:	2e00      	cmp	r6, #0
   2065c:	d008      	beq.n	20670 <_ZN20complex_full_dynamic3app17h126a6eea74893fffE+0xac>
   2065e:	e016      	b.n	2068e <_ZN20complex_full_dynamic3app17h126a6eea74893fffE+0xca>
   20660:	a80f      	add	r0, sp, #60	@ 0x3c
   20662:	9903      	ldr	r1, [sp, #12]
   20664:	7201      	strb	r1, [r0, #8]
   20666:	9510      	str	r5, [sp, #64]	@ 0x40
   20668:	4815      	ldr	r0, [pc, #84]	@ (206c0 <_ZN20complex_full_dynamic3app17h126a6eea74893fffE+0xfc>)
   2066a:	900f      	str	r0, [sp, #60]	@ 0x3c
   2066c:	2e00      	cmp	r6, #0
   2066e:	d10e      	bne.n	2068e <_ZN20complex_full_dynamic3app17h126a6eea74893fffE+0xca>
   20670:	4813      	ldr	r0, [pc, #76]	@ (206c0 <_ZN20complex_full_dynamic3app17h126a6eea74893fffE+0xfc>)
   20672:	2105      	movs	r1, #5
   20674:	2202      	movs	r2, #2
   20676:	2600      	movs	r6, #0
   20678:	4633      	mov	r3, r6
   2067a:	df02      	svc	2
   2067c:	287f      	cmp	r0, #127	@ 0x7f
   2067e:	d906      	bls.n	2068e <_ZN20complex_full_dynamic3app17h126a6eea74893fffE+0xca>
   20680:	a805      	add	r0, sp, #20
   20682:	f008 fd6b 	bl	2915c <_ZN9allow_pin12full_dynamic17unshare_if_shared17h9f78cce76fd1eb6dE>
   20686:	a80f      	add	r0, sp, #60	@ 0x3c
   20688:	f008 fd68 	bl	2915c <_ZN9allow_pin12full_dynamic17unshare_if_shared17h9f78cce76fd1eb6dE>
   2068c:	4634      	mov	r4, r6
   2068e:	2c00      	cmp	r4, #0
   20690:	d003      	beq.n	2069a <_ZN20complex_full_dynamic3app17h126a6eea74893fffE+0xd6>
   20692:	9c04      	ldr	r4, [sp, #16]
   20694:	6061      	str	r1, [r4, #4]
   20696:	2001      	movs	r0, #1
   20698:	e009      	b.n	206ae <_ZN20complex_full_dynamic3app17h126a6eea74893fffE+0xea>
   2069a:	a80f      	add	r0, sp, #60	@ 0x3c
   2069c:	f008 fd5e 	bl	2915c <_ZN9allow_pin12full_dynamic17unshare_if_shared17h9f78cce76fd1eb6dE>
   206a0:	9c04      	ldr	r4, [sp, #16]
   206a2:	1c60      	adds	r0, r4, #1
   206a4:	221b      	movs	r2, #27
   206a6:	9902      	ldr	r1, [sp, #8]
   206a8:	f008 ff31 	bl	2950e <__aeabi_memcpy>
   206ac:	2000      	movs	r0, #0
   206ae:	7020      	strb	r0, [r4, #0]
   206b0:	a80f      	add	r0, sp, #60	@ 0x3c
   206b2:	f008 fd53 	bl	2915c <_ZN9allow_pin12full_dynamic17unshare_if_shared17h9f78cce76fd1eb6dE>
   206b6:	a805      	add	r0, sp, #20
   206b8:	f008 fd50 	bl	2915c <_ZN9allow_pin12full_dynamic17unshare_if_shared17h9f78cce76fd1eb6dE>
   206bc:	b01d      	add	sp, #116	@ 0x74
   206be:	bdf0      	pop	{r4, r5, r6, r7, pc}
   206c0:	00001cce 	.word	0x00001cce

000206c4 <_ZN20complex_full_dynamic3app17h14c66cfba56c9365E>:
   206c4:	b5f0      	push	{r4, r5, r6, r7, lr}
   206c6:	af03      	add	r7, sp, #12
   206c8:	b0a5      	sub	sp, #148	@ 0x94
   206ca:	9005      	str	r0, [sp, #20]
   206cc:	ad06      	add	r5, sp, #24
   206ce:	2002      	movs	r0, #2
   206d0:	9004      	str	r0, [sp, #16]
   206d2:	7228      	strb	r0, [r5, #8]
   206d4:	350c      	adds	r5, #12
   206d6:	262c      	movs	r6, #44	@ 0x2c
   206d8:	4628      	mov	r0, r5
   206da:	4632      	mov	r2, r6
   206dc:	f008 ff17 	bl	2950e <__aeabi_memcpy>
   206e0:	ac14      	add	r4, sp, #80	@ 0x50
   206e2:	4620      	mov	r0, r4
   206e4:	300c      	adds	r0, #12
   206e6:	2125      	movs	r1, #37	@ 0x25
   206e8:	9003      	str	r0, [sp, #12]
   206ea:	9102      	str	r1, [sp, #8]
   206ec:	f008 fd62 	bl	291b4 <__aeabi_memclr4>
   206f0:	9804      	ldr	r0, [sp, #16]
   206f2:	7220      	strb	r0, [r4, #8]
   206f4:	2404      	movs	r4, #4
   206f6:	9600      	str	r6, [sp, #0]
   206f8:	9401      	str	r4, [sp, #4]
   206fa:	a821      	add	r0, sp, #132	@ 0x84
   206fc:	4932      	ldr	r1, [pc, #200]	@ (207c8 <_ZN20complex_full_dynamic3app17h14c66cfba56c9365E+0x104>)
   206fe:	2603      	movs	r6, #3
   20700:	4632      	mov	r2, r6
   20702:	462b      	mov	r3, r5
   20704:	f008 fd3e 	bl	29184 <_ZN9allow_pin13dynamic_allow17h33d41317a2da4f1cE>
   20708:	9821      	ldr	r0, [sp, #132]	@ 0x84
   2070a:	2802      	cmp	r0, #2
   2070c:	d102      	bne.n	20714 <_ZN20complex_full_dynamic3app17h14c66cfba56c9365E+0x50>
   2070e:	4a2e      	ldr	r2, [pc, #184]	@ (207c8 <_ZN20complex_full_dynamic3app17h14c66cfba56c9365E+0x104>)
   20710:	9922      	ldr	r1, [sp, #136]	@ 0x88
   20712:	e005      	b.n	20720 <_ZN20complex_full_dynamic3app17h14c66cfba56c9365E+0x5c>
   20714:	a906      	add	r1, sp, #24
   20716:	720c      	strb	r4, [r1, #8]
   20718:	9607      	str	r6, [sp, #28]
   2071a:	492b      	ldr	r1, [pc, #172]	@ (207c8 <_ZN20complex_full_dynamic3app17h14c66cfba56c9365E+0x104>)
   2071c:	460a      	mov	r2, r1
   2071e:	9106      	str	r1, [sp, #24]
   20720:	2401      	movs	r4, #1
   20722:	2802      	cmp	r0, #2
   20724:	d01a      	beq.n	2075c <_ZN20complex_full_dynamic3app17h14c66cfba56c9365E+0x98>
   20726:	a814      	add	r0, sp, #80	@ 0x50
   20728:	7a00      	ldrb	r0, [r0, #8]
   2072a:	2802      	cmp	r0, #2
   2072c:	4625      	mov	r5, r4
   2072e:	d112      	bne.n	20756 <_ZN20complex_full_dynamic3app17h14c66cfba56c9365E+0x92>
   20730:	9404      	str	r4, [sp, #16]
   20732:	2403      	movs	r4, #3
   20734:	9802      	ldr	r0, [sp, #8]
   20736:	9000      	str	r0, [sp, #0]
   20738:	9401      	str	r4, [sp, #4]
   2073a:	a821      	add	r0, sp, #132	@ 0x84
   2073c:	2500      	movs	r5, #0
   2073e:	4616      	mov	r6, r2
   20740:	4611      	mov	r1, r2
   20742:	462a      	mov	r2, r5
   20744:	9b03      	ldr	r3, [sp, #12]
   20746:	f008 fd1d 	bl	29184 <_ZN9allow_pin13dynamic_allow17h33d41317a2da4f1cE>
   2074a:	9821      	ldr	r0, [sp, #132]	@ 0x84
   2074c:	2802      	cmp	r0, #2
   2074e:	d10b      	bne.n	20768 <_ZN20complex_full_dynamic3app17h14c66cfba56c9365E+0xa4>
   20750:	9e22      	ldr	r6, [sp, #136]	@ 0x88
   20752:	9c04      	ldr	r4, [sp, #16]
   20754:	4625      	mov	r5, r4
   20756:	2d00      	cmp	r5, #0
   20758:	d00d      	beq.n	20776 <_ZN20complex_full_dynamic3app17h14c66cfba56c9365E+0xb2>
   2075a:	4631      	mov	r1, r6
   2075c:	9d05      	ldr	r5, [sp, #20]
   2075e:	2c00      	cmp	r4, #0
   20760:	d01f      	beq.n	207a2 <_ZN20complex_full_dynamic3app17h14c66cfba56c9365E+0xde>
   20762:	6069      	str	r1, [r5, #4]
   20764:	2001      	movs	r0, #1
   20766:	e025      	b.n	207b4 <_ZN20complex_full_dynamic3app17h14c66cfba56c9365E+0xf0>
   20768:	a814      	add	r0, sp, #80	@ 0x50
   2076a:	7204      	strb	r4, [r0, #8]
   2076c:	9515      	str	r5, [sp, #84]	@ 0x54
   2076e:	9614      	str	r6, [sp, #80]	@ 0x50
   20770:	9c04      	ldr	r4, [sp, #16]
   20772:	2d00      	cmp	r5, #0
   20774:	d1f1      	bne.n	2075a <_ZN20complex_full_dynamic3app17h14c66cfba56c9365E+0x96>
   20776:	4626      	mov	r6, r4
   20778:	4813      	ldr	r0, [pc, #76]	@ (207c8 <_ZN20complex_full_dynamic3app17h14c66cfba56c9365E+0x104>)
   2077a:	2103      	movs	r1, #3
   2077c:	2400      	movs	r4, #0
   2077e:	4622      	mov	r2, r4
   20780:	4623      	mov	r3, r4
   20782:	df02      	svc	2
   20784:	287f      	cmp	r0, #127	@ 0x7f
   20786:	9d05      	ldr	r5, [sp, #20]
   20788:	d803      	bhi.n	20792 <_ZN20complex_full_dynamic3app17h14c66cfba56c9365E+0xce>
   2078a:	4634      	mov	r4, r6
   2078c:	2c00      	cmp	r4, #0
   2078e:	d1e8      	bne.n	20762 <_ZN20complex_full_dynamic3app17h14c66cfba56c9365E+0x9e>
   20790:	e007      	b.n	207a2 <_ZN20complex_full_dynamic3app17h14c66cfba56c9365E+0xde>
   20792:	a806      	add	r0, sp, #24
   20794:	f008 fce2 	bl	2915c <_ZN9allow_pin12full_dynamic17unshare_if_shared17h9f78cce76fd1eb6dE>
   20798:	a814      	add	r0, sp, #80	@ 0x50
   2079a:	f008 fcdf 	bl	2915c <_ZN9allow_pin12full_dynamic17unshare_if_shared17h9f78cce76fd1eb6dE>
   2079e:	2c00      	cmp	r4, #0
   207a0:	d1df      	bne.n	20762 <_ZN20complex_full_dynamic3app17h14c66cfba56c9365E+0x9e>
   207a2:	a814      	add	r0, sp, #80	@ 0x50
   207a4:	f008 fcda 	bl	2915c <_ZN9allow_pin12full_dynamic17unshare_if_shared17h9f78cce76fd1eb6dE>
   207a8:	1c68      	adds	r0, r5, #1
   207aa:	2225      	movs	r2, #37	@ 0x25
   207ac:	9903      	ldr	r1, [sp, #12]
   207ae:	f008 feae 	bl	2950e <__aeabi_memcpy>
   207b2:	2000      	movs	r0, #0
   207b4:	7028      	strb	r0, [r5, #0]
   207b6:	a814      	add	r0, sp, #80	@ 0x50
   207b8:	f008 fcd0 	bl	2915c <_ZN9allow_pin12full_dynamic17unshare_if_shared17h9f78cce76fd1eb6dE>
   207bc:	a806      	add	r0, sp, #24
   207be:	f008 fccd 	bl	2915c <_ZN9allow_pin12full_dynamic17unshare_if_shared17h9f78cce76fd1eb6dE>
   207c2:	b025      	add	sp, #148	@ 0x94
   207c4:	bdf0      	pop	{r4, r5, r6, r7, pc}
   207c6:	46c0      	nop			@ (mov r8, r8)
   207c8:	0000077f 	.word	0x0000077f

000207cc <_ZN20complex_full_dynamic3app17h14cd8b7aa4b210d6E>:
   207cc:	b5f0      	push	{r4, r5, r6, r7, lr}
   207ce:	af03      	add	r7, sp, #12
   207d0:	b0b9      	sub	sp, #228	@ 0xe4
   207d2:	9006      	str	r0, [sp, #24]
   207d4:	ae07      	add	r6, sp, #28
   207d6:	2002      	movs	r0, #2
   207d8:	9005      	str	r0, [sp, #20]
   207da:	7230      	strb	r0, [r6, #8]
   207dc:	360c      	adds	r6, #12
   207de:	2546      	movs	r5, #70	@ 0x46
   207e0:	4630      	mov	r0, r6
   207e2:	462a      	mov	r2, r5
   207e4:	f008 fe93 	bl	2950e <__aeabi_memcpy>
   207e8:	ac1c      	add	r4, sp, #112	@ 0x70
   207ea:	4620      	mov	r0, r4
   207ec:	300c      	adds	r0, #12
   207ee:	2156      	movs	r1, #86	@ 0x56
   207f0:	9004      	str	r0, [sp, #16]
   207f2:	9103      	str	r1, [sp, #12]
   207f4:	f008 fcde 	bl	291b4 <__aeabi_memclr4>
   207f8:	9805      	ldr	r0, [sp, #20]
   207fa:	7220      	strb	r0, [r4, #8]
   207fc:	2404      	movs	r4, #4
   207fe:	9500      	str	r5, [sp, #0]
   20800:	9401      	str	r4, [sp, #4]
   20802:	a835      	add	r0, sp, #212	@ 0xd4
   20804:	492d      	ldr	r1, [pc, #180]	@ (208bc <_ZN20complex_full_dynamic3app17h14cd8b7aa4b210d6E+0xf0>)
   20806:	2507      	movs	r5, #7
   20808:	462a      	mov	r2, r5
   2080a:	4633      	mov	r3, r6
   2080c:	f008 fcba 	bl	29184 <_ZN9allow_pin13dynamic_allow17h33d41317a2da4f1cE>
   20810:	9835      	ldr	r0, [sp, #212]	@ 0xd4
   20812:	2802      	cmp	r0, #2
   20814:	d102      	bne.n	2081c <_ZN20complex_full_dynamic3app17h14cd8b7aa4b210d6E+0x50>
   20816:	9936      	ldr	r1, [sp, #216]	@ 0xd8
   20818:	4c28      	ldr	r4, [pc, #160]	@ (208bc <_ZN20complex_full_dynamic3app17h14cd8b7aa4b210d6E+0xf0>)
   2081a:	e004      	b.n	20826 <_ZN20complex_full_dynamic3app17h14cd8b7aa4b210d6E+0x5a>
   2081c:	a907      	add	r1, sp, #28
   2081e:	720c      	strb	r4, [r1, #8]
   20820:	9508      	str	r5, [sp, #32]
   20822:	4c26      	ldr	r4, [pc, #152]	@ (208bc <_ZN20complex_full_dynamic3app17h14cd8b7aa4b210d6E+0xf0>)
   20824:	9407      	str	r4, [sp, #28]
   20826:	2601      	movs	r6, #1
   20828:	2802      	cmp	r0, #2
   2082a:	d02d      	beq.n	20888 <_ZN20complex_full_dynamic3app17h14cd8b7aa4b210d6E+0xbc>
   2082c:	a81c      	add	r0, sp, #112	@ 0x70
   2082e:	7a00      	ldrb	r0, [r0, #8]
   20830:	2802      	cmp	r0, #2
   20832:	d10e      	bne.n	20852 <_ZN20complex_full_dynamic3app17h14cd8b7aa4b210d6E+0x86>
   20834:	2503      	movs	r5, #3
   20836:	9803      	ldr	r0, [sp, #12]
   20838:	9000      	str	r0, [sp, #0]
   2083a:	9501      	str	r5, [sp, #4]
   2083c:	a835      	add	r0, sp, #212	@ 0xd4
   2083e:	4621      	mov	r1, r4
   20840:	462a      	mov	r2, r5
   20842:	9b04      	ldr	r3, [sp, #16]
   20844:	f008 fc9e 	bl	29184 <_ZN9allow_pin13dynamic_allow17h33d41317a2da4f1cE>
   20848:	9835      	ldr	r0, [sp, #212]	@ 0xd4
   2084a:	2802      	cmp	r0, #2
   2084c:	d106      	bne.n	2085c <_ZN20complex_full_dynamic3app17h14cd8b7aa4b210d6E+0x90>
   2084e:	9936      	ldr	r1, [sp, #216]	@ 0xd8
   20850:	e000      	b.n	20854 <_ZN20complex_full_dynamic3app17h14cd8b7aa4b210d6E+0x88>
   20852:	2103      	movs	r1, #3
   20854:	4630      	mov	r0, r6
   20856:	2800      	cmp	r0, #0
   20858:	d007      	beq.n	2086a <_ZN20complex_full_dynamic3app17h14cd8b7aa4b210d6E+0x9e>
   2085a:	e015      	b.n	20888 <_ZN20complex_full_dynamic3app17h14cd8b7aa4b210d6E+0xbc>
   2085c:	a81c      	add	r0, sp, #112	@ 0x70
   2085e:	7205      	strb	r5, [r0, #8]
   20860:	951d      	str	r5, [sp, #116]	@ 0x74
   20862:	941c      	str	r4, [sp, #112]	@ 0x70
   20864:	2000      	movs	r0, #0
   20866:	2800      	cmp	r0, #0
   20868:	d10e      	bne.n	20888 <_ZN20complex_full_dynamic3app17h14cd8b7aa4b210d6E+0xbc>
   2086a:	4814      	ldr	r0, [pc, #80]	@ (208bc <_ZN20complex_full_dynamic3app17h14cd8b7aa4b210d6E+0xf0>)
   2086c:	2107      	movs	r1, #7
   2086e:	2203      	movs	r2, #3
   20870:	2400      	movs	r4, #0
   20872:	4623      	mov	r3, r4
   20874:	df02      	svc	2
   20876:	287f      	cmp	r0, #127	@ 0x7f
   20878:	d906      	bls.n	20888 <_ZN20complex_full_dynamic3app17h14cd8b7aa4b210d6E+0xbc>
   2087a:	a807      	add	r0, sp, #28
   2087c:	f008 fc6e 	bl	2915c <_ZN9allow_pin12full_dynamic17unshare_if_shared17h9f78cce76fd1eb6dE>
   20880:	a81c      	add	r0, sp, #112	@ 0x70
   20882:	f008 fc6b 	bl	2915c <_ZN9allow_pin12full_dynamic17unshare_if_shared17h9f78cce76fd1eb6dE>
   20886:	4626      	mov	r6, r4
   20888:	2e00      	cmp	r6, #0
   2088a:	d003      	beq.n	20894 <_ZN20complex_full_dynamic3app17h14cd8b7aa4b210d6E+0xc8>
   2088c:	9c06      	ldr	r4, [sp, #24]
   2088e:	6061      	str	r1, [r4, #4]
   20890:	2001      	movs	r0, #1
   20892:	e009      	b.n	208a8 <_ZN20complex_full_dynamic3app17h14cd8b7aa4b210d6E+0xdc>
   20894:	a81c      	add	r0, sp, #112	@ 0x70
   20896:	f008 fc61 	bl	2915c <_ZN9allow_pin12full_dynamic17unshare_if_shared17h9f78cce76fd1eb6dE>
   2089a:	9c06      	ldr	r4, [sp, #24]
   2089c:	1c60      	adds	r0, r4, #1
   2089e:	2256      	movs	r2, #86	@ 0x56
   208a0:	9904      	ldr	r1, [sp, #16]
   208a2:	f008 fe34 	bl	2950e <__aeabi_memcpy>
   208a6:	2000      	movs	r0, #0
   208a8:	7020      	strb	r0, [r4, #0]
   208aa:	a81c      	add	r0, sp, #112	@ 0x70
   208ac:	f008 fc56 	bl	2915c <_ZN9allow_pin12full_dynamic17unshare_if_shared17h9f78cce76fd1eb6dE>
   208b0:	a807      	add	r0, sp, #28
   208b2:	f008 fc53 	bl	2915c <_ZN9allow_pin12full_dynamic17unshare_if_shared17h9f78cce76fd1eb6dE>
   208b6:	b039      	add	sp, #228	@ 0xe4
   208b8:	bdf0      	pop	{r4, r5, r6, r7, pc}
   208ba:	46c0      	nop			@ (mov r8, r8)
   208bc:	00001e50 	.word	0x00001e50

000208c0 <_ZN20complex_full_dynamic3app17h1760e5a28510388bE>:
   208c0:	b5f0      	push	{r4, r5, r6, r7, lr}
   208c2:	af03      	add	r7, sp, #12
   208c4:	b0a1      	sub	sp, #132	@ 0x84
   208c6:	9004      	str	r0, [sp, #16]
   208c8:	ac05      	add	r4, sp, #20
   208ca:	2502      	movs	r5, #2
   208cc:	7225      	strb	r5, [r4, #8]
   208ce:	340c      	adds	r4, #12
   208d0:	2636      	movs	r6, #54	@ 0x36
   208d2:	4620      	mov	r0, r4
   208d4:	4632      	mov	r2, r6
   208d6:	f008 fe1a 	bl	2950e <__aeabi_memcpy>
   208da:	a816      	add	r0, sp, #88	@ 0x58
   208dc:	2100      	movs	r1, #0
   208de:	7681      	strb	r1, [r0, #26]
   208e0:	8301      	strh	r1, [r0, #24]
   208e2:	7205      	strb	r5, [r0, #8]
   208e4:	4605      	mov	r5, r0
   208e6:	911b      	str	r1, [sp, #108]	@ 0x6c
   208e8:	911a      	str	r1, [sp, #104]	@ 0x68
   208ea:	9102      	str	r1, [sp, #8]
   208ec:	9119      	str	r1, [sp, #100]	@ 0x64
   208ee:	2004      	movs	r0, #4
   208f0:	9600      	str	r6, [sp, #0]
   208f2:	9003      	str	r0, [sp, #12]
   208f4:	9001      	str	r0, [sp, #4]
   208f6:	a81d      	add	r0, sp, #116	@ 0x74
   208f8:	492e      	ldr	r1, [pc, #184]	@ (209b4 <_ZN20complex_full_dynamic3app17h1760e5a28510388bE+0xf4>)
   208fa:	2605      	movs	r6, #5
   208fc:	4632      	mov	r2, r6
   208fe:	4623      	mov	r3, r4
   20900:	f008 fc40 	bl	29184 <_ZN9allow_pin13dynamic_allow17h33d41317a2da4f1cE>
   20904:	981d      	ldr	r0, [sp, #116]	@ 0x74
   20906:	2802      	cmp	r0, #2
   20908:	d102      	bne.n	20910 <_ZN20complex_full_dynamic3app17h1760e5a28510388bE+0x50>
   2090a:	991e      	ldr	r1, [sp, #120]	@ 0x78
   2090c:	4a29      	ldr	r2, [pc, #164]	@ (209b4 <_ZN20complex_full_dynamic3app17h1760e5a28510388bE+0xf4>)
   2090e:	e005      	b.n	2091c <_ZN20complex_full_dynamic3app17h1760e5a28510388bE+0x5c>
   20910:	a905      	add	r1, sp, #20
   20912:	9a03      	ldr	r2, [sp, #12]
   20914:	720a      	strb	r2, [r1, #8]
   20916:	9606      	str	r6, [sp, #24]
   20918:	4a26      	ldr	r2, [pc, #152]	@ (209b4 <_ZN20complex_full_dynamic3app17h1760e5a28510388bE+0xf4>)
   2091a:	9205      	str	r2, [sp, #20]
   2091c:	350c      	adds	r5, #12
   2091e:	9503      	str	r5, [sp, #12]
   20920:	2601      	movs	r6, #1
   20922:	2802      	cmp	r0, #2
   20924:	9d04      	ldr	r5, [sp, #16]
   20926:	d02e      	beq.n	20986 <_ZN20complex_full_dynamic3app17h1760e5a28510388bE+0xc6>
   20928:	a816      	add	r0, sp, #88	@ 0x58
   2092a:	7a00      	ldrb	r0, [r0, #8]
   2092c:	2802      	cmp	r0, #2
   2092e:	d10e      	bne.n	2094e <_ZN20complex_full_dynamic3app17h1760e5a28510388bE+0x8e>
   20930:	2403      	movs	r4, #3
   20932:	200f      	movs	r0, #15
   20934:	9000      	str	r0, [sp, #0]
   20936:	9401      	str	r4, [sp, #4]
   20938:	a81d      	add	r0, sp, #116	@ 0x74
   2093a:	4611      	mov	r1, r2
   2093c:	4622      	mov	r2, r4
   2093e:	9b03      	ldr	r3, [sp, #12]
   20940:	f008 fc20 	bl	29184 <_ZN9allow_pin13dynamic_allow17h33d41317a2da4f1cE>
   20944:	981d      	ldr	r0, [sp, #116]	@ 0x74
   20946:	2802      	cmp	r0, #2
   20948:	d106      	bne.n	20958 <_ZN20complex_full_dynamic3app17h1760e5a28510388bE+0x98>
   2094a:	991e      	ldr	r1, [sp, #120]	@ 0x78
   2094c:	e000      	b.n	20950 <_ZN20complex_full_dynamic3app17h1760e5a28510388bE+0x90>
   2094e:	2103      	movs	r1, #3
   20950:	4630      	mov	r0, r6
   20952:	2800      	cmp	r0, #0
   20954:	d008      	beq.n	20968 <_ZN20complex_full_dynamic3app17h1760e5a28510388bE+0xa8>
   20956:	e016      	b.n	20986 <_ZN20complex_full_dynamic3app17h1760e5a28510388bE+0xc6>
   20958:	a816      	add	r0, sp, #88	@ 0x58
   2095a:	7204      	strb	r4, [r0, #8]
   2095c:	9417      	str	r4, [sp, #92]	@ 0x5c
   2095e:	4815      	ldr	r0, [pc, #84]	@ (209b4 <_ZN20complex_full_dynamic3app17h1760e5a28510388bE+0xf4>)
   20960:	9016      	str	r0, [sp, #88]	@ 0x58
   20962:	9802      	ldr	r0, [sp, #8]
   20964:	2800      	cmp	r0, #0
   20966:	d10e      	bne.n	20986 <_ZN20complex_full_dynamic3app17h1760e5a28510388bE+0xc6>
   20968:	4812      	ldr	r0, [pc, #72]	@ (209b4 <_ZN20complex_full_dynamic3app17h1760e5a28510388bE+0xf4>)
   2096a:	2105      	movs	r1, #5
   2096c:	2203      	movs	r2, #3
   2096e:	2400      	movs	r4, #0
   20970:	4623      	mov	r3, r4
   20972:	df02      	svc	2
   20974:	287f      	cmp	r0, #127	@ 0x7f
   20976:	d906      	bls.n	20986 <_ZN20complex_full_dynamic3app17h1760e5a28510388bE+0xc6>
   20978:	a805      	add	r0, sp, #20
   2097a:	f008 fbef 	bl	2915c <_ZN9allow_pin12full_dynamic17unshare_if_shared17h9f78cce76fd1eb6dE>
   2097e:	a816      	add	r0, sp, #88	@ 0x58
   20980:	f008 fbec 	bl	2915c <_ZN9allow_pin12full_dynamic17unshare_if_shared17h9f78cce76fd1eb6dE>
   20984:	4626      	mov	r6, r4
   20986:	2e00      	cmp	r6, #0
   20988:	d002      	beq.n	20990 <_ZN20complex_full_dynamic3app17h1760e5a28510388bE+0xd0>
   2098a:	6069      	str	r1, [r5, #4]
   2098c:	2001      	movs	r0, #1
   2098e:	e008      	b.n	209a2 <_ZN20complex_full_dynamic3app17h1760e5a28510388bE+0xe2>
   20990:	a816      	add	r0, sp, #88	@ 0x58
   20992:	f008 fbe3 	bl	2915c <_ZN9allow_pin12full_dynamic17unshare_if_shared17h9f78cce76fd1eb6dE>
   20996:	1c68      	adds	r0, r5, #1
   20998:	220f      	movs	r2, #15
   2099a:	9903      	ldr	r1, [sp, #12]
   2099c:	f008 fdb7 	bl	2950e <__aeabi_memcpy>
   209a0:	2000      	movs	r0, #0
   209a2:	7028      	strb	r0, [r5, #0]
   209a4:	a816      	add	r0, sp, #88	@ 0x58
   209a6:	f008 fbd9 	bl	2915c <_ZN9allow_pin12full_dynamic17unshare_if_shared17h9f78cce76fd1eb6dE>
   209aa:	a805      	add	r0, sp, #20
   209ac:	f008 fbd6 	bl	2915c <_ZN9allow_pin12full_dynamic17unshare_if_shared17h9f78cce76fd1eb6dE>
   209b0:	b021      	add	sp, #132	@ 0x84
   209b2:	bdf0      	pop	{r4, r5, r6, r7, pc}
   209b4:	00000653 	.word	0x00000653

000209b8 <_ZN20complex_full_dynamic3app17h1c6e43ee1503d0a3E>:
   209b8:	b5f0      	push	{r4, r5, r6, r7, lr}
   209ba:	af03      	add	r7, sp, #12
   209bc:	b0b9      	sub	sp, #228	@ 0xe4
   209be:	9005      	str	r0, [sp, #20]
   209c0:	ad06      	add	r5, sp, #24
   209c2:	2402      	movs	r4, #2
   209c4:	722c      	strb	r4, [r5, #8]
   209c6:	350c      	adds	r5, #12
   209c8:	2251      	movs	r2, #81	@ 0x51
   209ca:	9204      	str	r2, [sp, #16]
   209cc:	4628      	mov	r0, r5
   209ce:	f008 fd9e 	bl	2950e <__aeabi_memcpy>
   209d2:	ae1e      	add	r6, sp, #120	@ 0x78
   209d4:	4630      	mov	r0, r6
   209d6:	300c      	adds	r0, #12
   209d8:	214f      	movs	r1, #79	@ 0x4f
   209da:	9003      	str	r0, [sp, #12]
   209dc:	9102      	str	r1, [sp, #8]
   209de:	f008 fbe9 	bl	291b4 <__aeabi_memclr4>
   209e2:	7234      	strb	r4, [r6, #8]
   209e4:	4626      	mov	r6, r4
   209e6:	2004      	movs	r0, #4
   209e8:	9904      	ldr	r1, [sp, #16]
   209ea:	9100      	str	r1, [sp, #0]
   209ec:	9004      	str	r0, [sp, #16]
   209ee:	9001      	str	r0, [sp, #4]
   209f0:	a835      	add	r0, sp, #212	@ 0xd4
   209f2:	4c2e      	ldr	r4, [pc, #184]	@ (20aac <_ZN20complex_full_dynamic3app17h1c6e43ee1503d0a3E+0xf4>)
   209f4:	4621      	mov	r1, r4
   209f6:	4632      	mov	r2, r6
   209f8:	462b      	mov	r3, r5
   209fa:	f008 fbc3 	bl	29184 <_ZN9allow_pin13dynamic_allow17h33d41317a2da4f1cE>
   209fe:	9835      	ldr	r0, [sp, #212]	@ 0xd4
   20a00:	2802      	cmp	r0, #2
   20a02:	d101      	bne.n	20a08 <_ZN20complex_full_dynamic3app17h1c6e43ee1503d0a3E+0x50>
   20a04:	9936      	ldr	r1, [sp, #216]	@ 0xd8
   20a06:	e004      	b.n	20a12 <_ZN20complex_full_dynamic3app17h1c6e43ee1503d0a3E+0x5a>
   20a08:	a906      	add	r1, sp, #24
   20a0a:	9a04      	ldr	r2, [sp, #16]
   20a0c:	720a      	strb	r2, [r1, #8]
   20a0e:	9607      	str	r6, [sp, #28]
   20a10:	9406      	str	r4, [sp, #24]
   20a12:	2501      	movs	r5, #1
   20a14:	2802      	cmp	r0, #2
   20a16:	d02f      	beq.n	20a78 <_ZN20complex_full_dynamic3app17h1c6e43ee1503d0a3E+0xc0>
   20a18:	a81e      	add	r0, sp, #120	@ 0x78
   20a1a:	7a00      	ldrb	r0, [r0, #8]
   20a1c:	2802      	cmp	r0, #2
   20a1e:	d10f      	bne.n	20a40 <_ZN20complex_full_dynamic3app17h1c6e43ee1503d0a3E+0x88>
   20a20:	2603      	movs	r6, #3
   20a22:	9802      	ldr	r0, [sp, #8]
   20a24:	9000      	str	r0, [sp, #0]
   20a26:	9601      	str	r6, [sp, #4]
   20a28:	a835      	add	r0, sp, #212	@ 0xd4
   20a2a:	4621      	mov	r1, r4
   20a2c:	2404      	movs	r4, #4
   20a2e:	4622      	mov	r2, r4
   20a30:	9b03      	ldr	r3, [sp, #12]
   20a32:	f008 fba7 	bl	29184 <_ZN9allow_pin13dynamic_allow17h33d41317a2da4f1cE>
   20a36:	9835      	ldr	r0, [sp, #212]	@ 0xd4
   20a38:	2802      	cmp	r0, #2
   20a3a:	d106      	bne.n	20a4a <_ZN20complex_full_dynamic3app17h1c6e43ee1503d0a3E+0x92>
   20a3c:	9936      	ldr	r1, [sp, #216]	@ 0xd8
   20a3e:	e000      	b.n	20a42 <_ZN20complex_full_dynamic3app17h1c6e43ee1503d0a3E+0x8a>
   20a40:	2103      	movs	r1, #3
   20a42:	4628      	mov	r0, r5
   20a44:	2800      	cmp	r0, #0
   20a46:	d008      	beq.n	20a5a <_ZN20complex_full_dynamic3app17h1c6e43ee1503d0a3E+0xa2>
   20a48:	e016      	b.n	20a78 <_ZN20complex_full_dynamic3app17h1c6e43ee1503d0a3E+0xc0>
   20a4a:	a81e      	add	r0, sp, #120	@ 0x78
   20a4c:	7206      	strb	r6, [r0, #8]
   20a4e:	941f      	str	r4, [sp, #124]	@ 0x7c
   20a50:	4816      	ldr	r0, [pc, #88]	@ (20aac <_ZN20complex_full_dynamic3app17h1c6e43ee1503d0a3E+0xf4>)
   20a52:	901e      	str	r0, [sp, #120]	@ 0x78
   20a54:	2000      	movs	r0, #0
   20a56:	2800      	cmp	r0, #0
   20a58:	d10e      	bne.n	20a78 <_ZN20complex_full_dynamic3app17h1c6e43ee1503d0a3E+0xc0>
   20a5a:	4814      	ldr	r0, [pc, #80]	@ (20aac <_ZN20complex_full_dynamic3app17h1c6e43ee1503d0a3E+0xf4>)
   20a5c:	2102      	movs	r1, #2
   20a5e:	2204      	movs	r2, #4
   20a60:	2400      	movs	r4, #0
   20a62:	4623      	mov	r3, r4
   20a64:	df02      	svc	2
   20a66:	287f      	cmp	r0, #127	@ 0x7f
   20a68:	d906      	bls.n	20a78 <_ZN20complex_full_dynamic3app17h1c6e43ee1503d0a3E+0xc0>
   20a6a:	a806      	add	r0, sp, #24
   20a6c:	f008 fb76 	bl	2915c <_ZN9allow_pin12full_dynamic17unshare_if_shared17h9f78cce76fd1eb6dE>
   20a70:	a81e      	add	r0, sp, #120	@ 0x78
   20a72:	f008 fb73 	bl	2915c <_ZN9allow_pin12full_dynamic17unshare_if_shared17h9f78cce76fd1eb6dE>
   20a76:	4625      	mov	r5, r4
   20a78:	2d00      	cmp	r5, #0
   20a7a:	d003      	beq.n	20a84 <_ZN20complex_full_dynamic3app17h1c6e43ee1503d0a3E+0xcc>
   20a7c:	9c05      	ldr	r4, [sp, #20]
   20a7e:	6061      	str	r1, [r4, #4]
   20a80:	2001      	movs	r0, #1
   20a82:	e009      	b.n	20a98 <_ZN20complex_full_dynamic3app17h1c6e43ee1503d0a3E+0xe0>
   20a84:	a81e      	add	r0, sp, #120	@ 0x78
   20a86:	f008 fb69 	bl	2915c <_ZN9allow_pin12full_dynamic17unshare_if_shared17h9f78cce76fd1eb6dE>
   20a8a:	9c05      	ldr	r4, [sp, #20]
   20a8c:	1c60      	adds	r0, r4, #1
   20a8e:	224f      	movs	r2, #79	@ 0x4f
   20a90:	9903      	ldr	r1, [sp, #12]
   20a92:	f008 fd3c 	bl	2950e <__aeabi_memcpy>
   20a96:	2000      	movs	r0, #0
   20a98:	7020      	strb	r0, [r4, #0]
   20a9a:	a81e      	add	r0, sp, #120	@ 0x78
   20a9c:	f008 fb5e 	bl	2915c <_ZN9allow_pin12full_dynamic17unshare_if_shared17h9f78cce76fd1eb6dE>
   20aa0:	a806      	add	r0, sp, #24
   20aa2:	f008 fb5b 	bl	2915c <_ZN9allow_pin12full_dynamic17unshare_if_shared17h9f78cce76fd1eb6dE>
   20aa6:	b039      	add	sp, #228	@ 0xe4
   20aa8:	bdf0      	pop	{r4, r5, r6, r7, pc}
   20aaa:	46c0      	nop			@ (mov r8, r8)
   20aac:	00000e16 	.word	0x00000e16

00020ab0 <_ZN20complex_full_dynamic3app17h1d565891fc7b70e7E>:
   20ab0:	b5f0      	push	{r4, r5, r6, r7, lr}
   20ab2:	af03      	add	r7, sp, #12
   20ab4:	b09f      	sub	sp, #124	@ 0x7c
   20ab6:	9004      	str	r0, [sp, #16]
   20ab8:	ac06      	add	r4, sp, #24
   20aba:	2502      	movs	r5, #2
   20abc:	7225      	strb	r5, [r4, #8]
   20abe:	340c      	adds	r4, #12
   20ac0:	262b      	movs	r6, #43	@ 0x2b
   20ac2:	4620      	mov	r0, r4
   20ac4:	4632      	mov	r2, r6
   20ac6:	f008 fd22 	bl	2950e <__aeabi_memcpy>
   20aca:	a914      	add	r1, sp, #80	@ 0x50
   20acc:	2000      	movs	r0, #0
   20ace:	7608      	strb	r0, [r1, #24]
   20ad0:	9105      	str	r1, [sp, #20]
   20ad2:	720d      	strb	r5, [r1, #8]
   20ad4:	9019      	str	r0, [sp, #100]	@ 0x64
   20ad6:	9018      	str	r0, [sp, #96]	@ 0x60
   20ad8:	9003      	str	r0, [sp, #12]
   20ada:	9017      	str	r0, [sp, #92]	@ 0x5c
   20adc:	2504      	movs	r5, #4
   20ade:	9600      	str	r6, [sp, #0]
   20ae0:	9501      	str	r5, [sp, #4]
   20ae2:	a81b      	add	r0, sp, #108	@ 0x6c
   20ae4:	4930      	ldr	r1, [pc, #192]	@ (20ba8 <_ZN20complex_full_dynamic3app17h1d565891fc7b70e7E+0xf8>)
   20ae6:	2606      	movs	r6, #6
   20ae8:	4632      	mov	r2, r6
   20aea:	4623      	mov	r3, r4
   20aec:	f008 fb4a 	bl	29184 <_ZN9allow_pin13dynamic_allow17h33d41317a2da4f1cE>
   20af0:	981b      	ldr	r0, [sp, #108]	@ 0x6c
   20af2:	2802      	cmp	r0, #2
   20af4:	d102      	bne.n	20afc <_ZN20complex_full_dynamic3app17h1d565891fc7b70e7E+0x4c>
   20af6:	991c      	ldr	r1, [sp, #112]	@ 0x70
   20af8:	4a2b      	ldr	r2, [pc, #172]	@ (20ba8 <_ZN20complex_full_dynamic3app17h1d565891fc7b70e7E+0xf8>)
   20afa:	e004      	b.n	20b06 <_ZN20complex_full_dynamic3app17h1d565891fc7b70e7E+0x56>
   20afc:	a906      	add	r1, sp, #24
   20afe:	720d      	strb	r5, [r1, #8]
   20b00:	9607      	str	r6, [sp, #28]
   20b02:	4a29      	ldr	r2, [pc, #164]	@ (20ba8 <_ZN20complex_full_dynamic3app17h1d565891fc7b70e7E+0xf8>)
   20b04:	9206      	str	r2, [sp, #24]
   20b06:	9d05      	ldr	r5, [sp, #20]
   20b08:	350c      	adds	r5, #12
   20b0a:	2601      	movs	r6, #1
   20b0c:	2802      	cmp	r0, #2
   20b0e:	d031      	beq.n	20b74 <_ZN20complex_full_dynamic3app17h1d565891fc7b70e7E+0xc4>
   20b10:	a814      	add	r0, sp, #80	@ 0x50
   20b12:	7a00      	ldrb	r0, [r0, #8]
   20b14:	2802      	cmp	r0, #2
   20b16:	d111      	bne.n	20b3c <_ZN20complex_full_dynamic3app17h1d565891fc7b70e7E+0x8c>
   20b18:	462b      	mov	r3, r5
   20b1a:	2503      	movs	r5, #3
   20b1c:	200d      	movs	r0, #13
   20b1e:	9000      	str	r0, [sp, #0]
   20b20:	9501      	str	r5, [sp, #4]
   20b22:	a81b      	add	r0, sp, #108	@ 0x6c
   20b24:	2400      	movs	r4, #0
   20b26:	4611      	mov	r1, r2
   20b28:	4622      	mov	r2, r4
   20b2a:	9305      	str	r3, [sp, #20]
   20b2c:	f008 fb2a 	bl	29184 <_ZN9allow_pin13dynamic_allow17h33d41317a2da4f1cE>
   20b30:	981b      	ldr	r0, [sp, #108]	@ 0x6c
   20b32:	2802      	cmp	r0, #2
   20b34:	d107      	bne.n	20b46 <_ZN20complex_full_dynamic3app17h1d565891fc7b70e7E+0x96>
   20b36:	991c      	ldr	r1, [sp, #112]	@ 0x70
   20b38:	4634      	mov	r4, r6
   20b3a:	e009      	b.n	20b50 <_ZN20complex_full_dynamic3app17h1d565891fc7b70e7E+0xa0>
   20b3c:	2103      	movs	r1, #3
   20b3e:	4634      	mov	r4, r6
   20b40:	2c00      	cmp	r4, #0
   20b42:	d008      	beq.n	20b56 <_ZN20complex_full_dynamic3app17h1d565891fc7b70e7E+0xa6>
   20b44:	e016      	b.n	20b74 <_ZN20complex_full_dynamic3app17h1d565891fc7b70e7E+0xc4>
   20b46:	a814      	add	r0, sp, #80	@ 0x50
   20b48:	7205      	strb	r5, [r0, #8]
   20b4a:	9415      	str	r4, [sp, #84]	@ 0x54
   20b4c:	4816      	ldr	r0, [pc, #88]	@ (20ba8 <_ZN20complex_full_dynamic3app17h1d565891fc7b70e7E+0xf8>)
   20b4e:	9014      	str	r0, [sp, #80]	@ 0x50
   20b50:	9d05      	ldr	r5, [sp, #20]
   20b52:	2c00      	cmp	r4, #0
   20b54:	d10e      	bne.n	20b74 <_ZN20complex_full_dynamic3app17h1d565891fc7b70e7E+0xc4>
   20b56:	4814      	ldr	r0, [pc, #80]	@ (20ba8 <_ZN20complex_full_dynamic3app17h1d565891fc7b70e7E+0xf8>)
   20b58:	2106      	movs	r1, #6
   20b5a:	2400      	movs	r4, #0
   20b5c:	4622      	mov	r2, r4
   20b5e:	4623      	mov	r3, r4
   20b60:	df02      	svc	2
   20b62:	287f      	cmp	r0, #127	@ 0x7f
   20b64:	d906      	bls.n	20b74 <_ZN20complex_full_dynamic3app17h1d565891fc7b70e7E+0xc4>
   20b66:	a806      	add	r0, sp, #24
   20b68:	f008 faf8 	bl	2915c <_ZN9allow_pin12full_dynamic17unshare_if_shared17h9f78cce76fd1eb6dE>
   20b6c:	a814      	add	r0, sp, #80	@ 0x50
   20b6e:	f008 faf5 	bl	2915c <_ZN9allow_pin12full_dynamic17unshare_if_shared17h9f78cce76fd1eb6dE>
   20b72:	4626      	mov	r6, r4
   20b74:	2e00      	cmp	r6, #0
   20b76:	d003      	beq.n	20b80 <_ZN20complex_full_dynamic3app17h1d565891fc7b70e7E+0xd0>
   20b78:	9c04      	ldr	r4, [sp, #16]
   20b7a:	6061      	str	r1, [r4, #4]
   20b7c:	2001      	movs	r0, #1
   20b7e:	e009      	b.n	20b94 <_ZN20complex_full_dynamic3app17h1d565891fc7b70e7E+0xe4>
   20b80:	a814      	add	r0, sp, #80	@ 0x50
   20b82:	f008 faeb 	bl	2915c <_ZN9allow_pin12full_dynamic17unshare_if_shared17h9f78cce76fd1eb6dE>
   20b86:	9c04      	ldr	r4, [sp, #16]
   20b88:	1c60      	adds	r0, r4, #1
   20b8a:	220d      	movs	r2, #13
   20b8c:	4629      	mov	r1, r5
   20b8e:	f008 fcbe 	bl	2950e <__aeabi_memcpy>
   20b92:	9803      	ldr	r0, [sp, #12]
   20b94:	7020      	strb	r0, [r4, #0]
   20b96:	a814      	add	r0, sp, #80	@ 0x50
   20b98:	f008 fae0 	bl	2915c <_ZN9allow_pin12full_dynamic17unshare_if_shared17h9f78cce76fd1eb6dE>
   20b9c:	a806      	add	r0, sp, #24
   20b9e:	f008 fadd 	bl	2915c <_ZN9allow_pin12full_dynamic17unshare_if_shared17h9f78cce76fd1eb6dE>
   20ba2:	b01f      	add	sp, #124	@ 0x7c
   20ba4:	bdf0      	pop	{r4, r5, r6, r7, pc}
   20ba6:	46c0      	nop			@ (mov r8, r8)
   20ba8:	00001465 	.word	0x00001465

00020bac <_ZN20complex_full_dynamic3app17h2019b72f3b9bb2d4E>:
   20bac:	b5f0      	push	{r4, r5, r6, r7, lr}
   20bae:	af03      	add	r7, sp, #12
   20bb0:	b0a1      	sub	sp, #132	@ 0x84
   20bb2:	9006      	str	r0, [sp, #24]
   20bb4:	ae07      	add	r6, sp, #28
   20bb6:	2002      	movs	r0, #2
   20bb8:	9005      	str	r0, [sp, #20]
   20bba:	7230      	strb	r0, [r6, #8]
   20bbc:	360c      	adds	r6, #12
   20bbe:	2514      	movs	r5, #20
   20bc0:	4630      	mov	r0, r6
   20bc2:	462a      	mov	r2, r5
   20bc4:	f008 fca3 	bl	2950e <__aeabi_memcpy>
   20bc8:	ac0f      	add	r4, sp, #60	@ 0x3c
   20bca:	4620      	mov	r0, r4
   20bcc:	300c      	adds	r0, #12
   20bce:	212b      	movs	r1, #43	@ 0x2b
   20bd0:	9004      	str	r0, [sp, #16]
   20bd2:	9103      	str	r1, [sp, #12]
   20bd4:	f008 faee 	bl	291b4 <__aeabi_memclr4>
   20bd8:	9805      	ldr	r0, [sp, #20]
   20bda:	7220      	strb	r0, [r4, #8]
   20bdc:	2404      	movs	r4, #4
   20bde:	9500      	str	r5, [sp, #0]
   20be0:	9401      	str	r4, [sp, #4]
   20be2:	a81d      	add	r0, sp, #116	@ 0x74
   20be4:	492e      	ldr	r1, [pc, #184]	@ (20ca0 <_ZN20complex_full_dynamic3app17h2019b72f3b9bb2d4E+0xf4>)
   20be6:	2508      	movs	r5, #8
   20be8:	462a      	mov	r2, r5
   20bea:	4633      	mov	r3, r6
   20bec:	f008 faca 	bl	29184 <_ZN9allow_pin13dynamic_allow17h33d41317a2da4f1cE>
   20bf0:	981d      	ldr	r0, [sp, #116]	@ 0x74
   20bf2:	2802      	cmp	r0, #2
   20bf4:	d102      	bne.n	20bfc <_ZN20complex_full_dynamic3app17h2019b72f3b9bb2d4E+0x50>
   20bf6:	991e      	ldr	r1, [sp, #120]	@ 0x78
   20bf8:	4a29      	ldr	r2, [pc, #164]	@ (20ca0 <_ZN20complex_full_dynamic3app17h2019b72f3b9bb2d4E+0xf4>)
   20bfa:	e004      	b.n	20c06 <_ZN20complex_full_dynamic3app17h2019b72f3b9bb2d4E+0x5a>
   20bfc:	a907      	add	r1, sp, #28
   20bfe:	720c      	strb	r4, [r1, #8]
   20c00:	9508      	str	r5, [sp, #32]
   20c02:	4a27      	ldr	r2, [pc, #156]	@ (20ca0 <_ZN20complex_full_dynamic3app17h2019b72f3b9bb2d4E+0xf4>)
   20c04:	9207      	str	r2, [sp, #28]
   20c06:	2501      	movs	r5, #1
   20c08:	2802      	cmp	r0, #2
   20c0a:	d02f      	beq.n	20c6c <_ZN20complex_full_dynamic3app17h2019b72f3b9bb2d4E+0xc0>
   20c0c:	a80f      	add	r0, sp, #60	@ 0x3c
   20c0e:	7a00      	ldrb	r0, [r0, #8]
   20c10:	2802      	cmp	r0, #2
   20c12:	d10f      	bne.n	20c34 <_ZN20complex_full_dynamic3app17h2019b72f3b9bb2d4E+0x88>
   20c14:	2603      	movs	r6, #3
   20c16:	9803      	ldr	r0, [sp, #12]
   20c18:	9000      	str	r0, [sp, #0]
   20c1a:	9601      	str	r6, [sp, #4]
   20c1c:	a81d      	add	r0, sp, #116	@ 0x74
   20c1e:	2404      	movs	r4, #4
   20c20:	4611      	mov	r1, r2
   20c22:	4622      	mov	r2, r4
   20c24:	9b04      	ldr	r3, [sp, #16]
   20c26:	f008 faad 	bl	29184 <_ZN9allow_pin13dynamic_allow17h33d41317a2da4f1cE>
   20c2a:	981d      	ldr	r0, [sp, #116]	@ 0x74
   20c2c:	2802      	cmp	r0, #2
   20c2e:	d106      	bne.n	20c3e <_ZN20complex_full_dynamic3app17h2019b72f3b9bb2d4E+0x92>
   20c30:	991e      	ldr	r1, [sp, #120]	@ 0x78
   20c32:	e000      	b.n	20c36 <_ZN20complex_full_dynamic3app17h2019b72f3b9bb2d4E+0x8a>
   20c34:	2103      	movs	r1, #3
   20c36:	4628      	mov	r0, r5
   20c38:	2800      	cmp	r0, #0
   20c3a:	d008      	beq.n	20c4e <_ZN20complex_full_dynamic3app17h2019b72f3b9bb2d4E+0xa2>
   20c3c:	e016      	b.n	20c6c <_ZN20complex_full_dynamic3app17h2019b72f3b9bb2d4E+0xc0>
   20c3e:	a80f      	add	r0, sp, #60	@ 0x3c
   20c40:	7206      	strb	r6, [r0, #8]
   20c42:	9410      	str	r4, [sp, #64]	@ 0x40
   20c44:	4816      	ldr	r0, [pc, #88]	@ (20ca0 <_ZN20complex_full_dynamic3app17h2019b72f3b9bb2d4E+0xf4>)
   20c46:	900f      	str	r0, [sp, #60]	@ 0x3c
   20c48:	2000      	movs	r0, #0
   20c4a:	2800      	cmp	r0, #0
   20c4c:	d10e      	bne.n	20c6c <_ZN20complex_full_dynamic3app17h2019b72f3b9bb2d4E+0xc0>
   20c4e:	4814      	ldr	r0, [pc, #80]	@ (20ca0 <_ZN20complex_full_dynamic3app17h2019b72f3b9bb2d4E+0xf4>)
   20c50:	2108      	movs	r1, #8
   20c52:	2204      	movs	r2, #4
   20c54:	2400      	movs	r4, #0
   20c56:	4623      	mov	r3, r4
   20c58:	df02      	svc	2
   20c5a:	287f      	cmp	r0, #127	@ 0x7f
   20c5c:	d906      	bls.n	20c6c <_ZN20complex_full_dynamic3app17h2019b72f3b9bb2d4E+0xc0>
   20c5e:	a807      	add	r0, sp, #28
   20c60:	f008 fa7c 	bl	2915c <_ZN9allow_pin12full_dynamic17unshare_if_shared17h9f78cce76fd1eb6dE>
   20c64:	a80f      	add	r0, sp, #60	@ 0x3c
   20c66:	f008 fa79 	bl	2915c <_ZN9allow_pin12full_dynamic17unshare_if_shared17h9f78cce76fd1eb6dE>
   20c6a:	4625      	mov	r5, r4
   20c6c:	2d00      	cmp	r5, #0
   20c6e:	d003      	beq.n	20c78 <_ZN20complex_full_dynamic3app17h2019b72f3b9bb2d4E+0xcc>
   20c70:	9c06      	ldr	r4, [sp, #24]
   20c72:	6061      	str	r1, [r4, #4]
   20c74:	2001      	movs	r0, #1
   20c76:	e009      	b.n	20c8c <_ZN20complex_full_dynamic3app17h2019b72f3b9bb2d4E+0xe0>
   20c78:	a80f      	add	r0, sp, #60	@ 0x3c
   20c7a:	f008 fa6f 	bl	2915c <_ZN9allow_pin12full_dynamic17unshare_if_shared17h9f78cce76fd1eb6dE>
   20c7e:	9c06      	ldr	r4, [sp, #24]
   20c80:	1c60      	adds	r0, r4, #1
   20c82:	222b      	movs	r2, #43	@ 0x2b
   20c84:	9904      	ldr	r1, [sp, #16]
   20c86:	f008 fc42 	bl	2950e <__aeabi_memcpy>
   20c8a:	2000      	movs	r0, #0
   20c8c:	7020      	strb	r0, [r4, #0]
   20c8e:	a80f      	add	r0, sp, #60	@ 0x3c
   20c90:	f008 fa64 	bl	2915c <_ZN9allow_pin12full_dynamic17unshare_if_shared17h9f78cce76fd1eb6dE>
   20c94:	a807      	add	r0, sp, #28
   20c96:	f008 fa61 	bl	2915c <_ZN9allow_pin12full_dynamic17unshare_if_shared17h9f78cce76fd1eb6dE>
   20c9a:	b021      	add	sp, #132	@ 0x84
   20c9c:	bdf0      	pop	{r4, r5, r6, r7, pc}
   20c9e:	46c0      	nop			@ (mov r8, r8)
   20ca0:	0000239f 	.word	0x0000239f

00020ca4 <_ZN20complex_full_dynamic3app17h260773f28173bd92E>:
   20ca4:	b5f0      	push	{r4, r5, r6, r7, lr}
   20ca6:	af03      	add	r7, sp, #12
   20ca8:	b0ab      	sub	sp, #172	@ 0xac
   20caa:	9006      	str	r0, [sp, #24]
   20cac:	ae07      	add	r6, sp, #28
   20cae:	2002      	movs	r0, #2
   20cb0:	9005      	str	r0, [sp, #20]
   20cb2:	7230      	strb	r0, [r6, #8]
   20cb4:	360c      	adds	r6, #12
   20cb6:	253c      	movs	r5, #60	@ 0x3c
   20cb8:	4630      	mov	r0, r6
   20cba:	462a      	mov	r2, r5
   20cbc:	f008 fc27 	bl	2950e <__aeabi_memcpy>
   20cc0:	ac19      	add	r4, sp, #100	@ 0x64
   20cc2:	4620      	mov	r0, r4
   20cc4:	300c      	adds	r0, #12
   20cc6:	212c      	movs	r1, #44	@ 0x2c
   20cc8:	9004      	str	r0, [sp, #16]
   20cca:	9103      	str	r1, [sp, #12]
   20ccc:	f008 fa72 	bl	291b4 <__aeabi_memclr4>
   20cd0:	9805      	ldr	r0, [sp, #20]
   20cd2:	7220      	strb	r0, [r4, #8]
   20cd4:	2404      	movs	r4, #4
   20cd6:	9500      	str	r5, [sp, #0]
   20cd8:	9401      	str	r4, [sp, #4]
   20cda:	a827      	add	r0, sp, #156	@ 0x9c
   20cdc:	492e      	ldr	r1, [pc, #184]	@ (20d98 <_ZN20complex_full_dynamic3app17h260773f28173bd92E+0xf4>)
   20cde:	2505      	movs	r5, #5
   20ce0:	462a      	mov	r2, r5
   20ce2:	4633      	mov	r3, r6
   20ce4:	f008 fa4e 	bl	29184 <_ZN9allow_pin13dynamic_allow17h33d41317a2da4f1cE>
   20ce8:	9827      	ldr	r0, [sp, #156]	@ 0x9c
   20cea:	2802      	cmp	r0, #2
   20cec:	d102      	bne.n	20cf4 <_ZN20complex_full_dynamic3app17h260773f28173bd92E+0x50>
   20cee:	9928      	ldr	r1, [sp, #160]	@ 0xa0
   20cf0:	4a29      	ldr	r2, [pc, #164]	@ (20d98 <_ZN20complex_full_dynamic3app17h260773f28173bd92E+0xf4>)
   20cf2:	e004      	b.n	20cfe <_ZN20complex_full_dynamic3app17h260773f28173bd92E+0x5a>
   20cf4:	a907      	add	r1, sp, #28
   20cf6:	720c      	strb	r4, [r1, #8]
   20cf8:	9508      	str	r5, [sp, #32]
   20cfa:	4a27      	ldr	r2, [pc, #156]	@ (20d98 <_ZN20complex_full_dynamic3app17h260773f28173bd92E+0xf4>)
   20cfc:	9207      	str	r2, [sp, #28]
   20cfe:	2501      	movs	r5, #1
   20d00:	2802      	cmp	r0, #2
   20d02:	d02f      	beq.n	20d64 <_ZN20complex_full_dynamic3app17h260773f28173bd92E+0xc0>
   20d04:	a819      	add	r0, sp, #100	@ 0x64
   20d06:	7a00      	ldrb	r0, [r0, #8]
   20d08:	2802      	cmp	r0, #2
   20d0a:	d10f      	bne.n	20d2c <_ZN20complex_full_dynamic3app17h260773f28173bd92E+0x88>
   20d0c:	2603      	movs	r6, #3
   20d0e:	9803      	ldr	r0, [sp, #12]
   20d10:	9000      	str	r0, [sp, #0]
   20d12:	9601      	str	r6, [sp, #4]
   20d14:	a827      	add	r0, sp, #156	@ 0x9c
   20d16:	2407      	movs	r4, #7
   20d18:	4611      	mov	r1, r2
   20d1a:	4622      	mov	r2, r4
   20d1c:	9b04      	ldr	r3, [sp, #16]
   20d1e:	f008 fa31 	bl	29184 <_ZN9allow_pin13dynamic_allow17h33d41317a2da4f1cE>
   20d22:	9827      	ldr	r0, [sp, #156]	@ 0x9c
   20d24:	2802      	cmp	r0, #2
   20d26:	d106      	bne.n	20d36 <_ZN20complex_full_dynamic3app17h260773f28173bd92E+0x92>
   20d28:	9928      	ldr	r1, [sp, #160]	@ 0xa0
   20d2a:	e000      	b.n	20d2e <_ZN20complex_full_dynamic3app17h260773f28173bd92E+0x8a>
   20d2c:	2103      	movs	r1, #3
   20d2e:	4628      	mov	r0, r5
   20d30:	2800      	cmp	r0, #0
   20d32:	d008      	beq.n	20d46 <_ZN20complex_full_dynamic3app17h260773f28173bd92E+0xa2>
   20d34:	e016      	b.n	20d64 <_ZN20complex_full_dynamic3app17h260773f28173bd92E+0xc0>
   20d36:	a819      	add	r0, sp, #100	@ 0x64
   20d38:	7206      	strb	r6, [r0, #8]
   20d3a:	941a      	str	r4, [sp, #104]	@ 0x68
   20d3c:	4816      	ldr	r0, [pc, #88]	@ (20d98 <_ZN20complex_full_dynamic3app17h260773f28173bd92E+0xf4>)
   20d3e:	9019      	str	r0, [sp, #100]	@ 0x64
   20d40:	2000      	movs	r0, #0
   20d42:	2800      	cmp	r0, #0
   20d44:	d10e      	bne.n	20d64 <_ZN20complex_full_dynamic3app17h260773f28173bd92E+0xc0>
   20d46:	4814      	ldr	r0, [pc, #80]	@ (20d98 <_ZN20complex_full_dynamic3app17h260773f28173bd92E+0xf4>)
   20d48:	2105      	movs	r1, #5
   20d4a:	2207      	movs	r2, #7
   20d4c:	2400      	movs	r4, #0
   20d4e:	4623      	mov	r3, r4
   20d50:	df02      	svc	2
   20d52:	287f      	cmp	r0, #127	@ 0x7f
   20d54:	d906      	bls.n	20d64 <_ZN20complex_full_dynamic3app17h260773f28173bd92E+0xc0>
   20d56:	a807      	add	r0, sp, #28
   20d58:	f008 fa00 	bl	2915c <_ZN9allow_pin12full_dynamic17unshare_if_shared17h9f78cce76fd1eb6dE>
   20d5c:	a819      	add	r0, sp, #100	@ 0x64
   20d5e:	f008 f9fd 	bl	2915c <_ZN9allow_pin12full_dynamic17unshare_if_shared17h9f78cce76fd1eb6dE>
   20d62:	4625      	mov	r5, r4
   20d64:	2d00      	cmp	r5, #0
   20d66:	d003      	beq.n	20d70 <_ZN20complex_full_dynamic3app17h260773f28173bd92E+0xcc>
   20d68:	9c06      	ldr	r4, [sp, #24]
   20d6a:	6061      	str	r1, [r4, #4]
   20d6c:	2001      	movs	r0, #1
   20d6e:	e009      	b.n	20d84 <_ZN20complex_full_dynamic3app17h260773f28173bd92E+0xe0>
   20d70:	a819      	add	r0, sp, #100	@ 0x64
   20d72:	f008 f9f3 	bl	2915c <_ZN9allow_pin12full_dynamic17unshare_if_shared17h9f78cce76fd1eb6dE>
   20d76:	9c06      	ldr	r4, [sp, #24]
   20d78:	1c60      	adds	r0, r4, #1
   20d7a:	222c      	movs	r2, #44	@ 0x2c
   20d7c:	9904      	ldr	r1, [sp, #16]
   20d7e:	f008 fbc6 	bl	2950e <__aeabi_memcpy>
   20d82:	2000      	movs	r0, #0
   20d84:	7020      	strb	r0, [r4, #0]
   20d86:	a819      	add	r0, sp, #100	@ 0x64
   20d88:	f008 f9e8 	bl	2915c <_ZN9allow_pin12full_dynamic17unshare_if_shared17h9f78cce76fd1eb6dE>
   20d8c:	a807      	add	r0, sp, #28
   20d8e:	f008 f9e5 	bl	2915c <_ZN9allow_pin12full_dynamic17unshare_if_shared17h9f78cce76fd1eb6dE>
   20d92:	b02b      	add	sp, #172	@ 0xac
   20d94:	bdf0      	pop	{r4, r5, r6, r7, pc}
   20d96:	46c0      	nop			@ (mov r8, r8)
   20d98:	00001eac 	.word	0x00001eac

00020d9c <_ZN20complex_full_dynamic3app17h27fc14a92a9c8904E>:
   20d9c:	b5f0      	push	{r4, r5, r6, r7, lr}
   20d9e:	af03      	add	r7, sp, #12
   20da0:	b0ad      	sub	sp, #180	@ 0xb4
   20da2:	9005      	str	r0, [sp, #20]
   20da4:	ac06      	add	r4, sp, #24
   20da6:	2502      	movs	r5, #2
   20da8:	7225      	strb	r5, [r4, #8]
   20daa:	340c      	adds	r4, #12
   20dac:	225d      	movs	r2, #93	@ 0x5d
   20dae:	9204      	str	r2, [sp, #16]
   20db0:	4620      	mov	r0, r4
   20db2:	f008 fbac 	bl	2950e <__aeabi_memcpy>
   20db6:	a821      	add	r0, sp, #132	@ 0x84
   20db8:	2600      	movs	r6, #0
   20dba:	8386      	strh	r6, [r0, #28]
   20dbc:	7205      	strb	r5, [r0, #8]
   20dbe:	4605      	mov	r5, r0
   20dc0:	9627      	str	r6, [sp, #156]	@ 0x9c
   20dc2:	9626      	str	r6, [sp, #152]	@ 0x98
   20dc4:	9625      	str	r6, [sp, #148]	@ 0x94
   20dc6:	9624      	str	r6, [sp, #144]	@ 0x90
   20dc8:	2004      	movs	r0, #4
   20dca:	9904      	ldr	r1, [sp, #16]
   20dcc:	9100      	str	r1, [sp, #0]
   20dce:	9004      	str	r0, [sp, #16]
   20dd0:	9001      	str	r0, [sp, #4]
   20dd2:	a829      	add	r0, sp, #164	@ 0xa4
   20dd4:	492e      	ldr	r1, [pc, #184]	@ (20e90 <_ZN20complex_full_dynamic3app17h27fc14a92a9c8904E+0xf4>)
   20dd6:	4632      	mov	r2, r6
   20dd8:	4623      	mov	r3, r4
   20dda:	f008 f9d3 	bl	29184 <_ZN9allow_pin13dynamic_allow17h33d41317a2da4f1cE>
   20dde:	9829      	ldr	r0, [sp, #164]	@ 0xa4
   20de0:	2802      	cmp	r0, #2
   20de2:	d102      	bne.n	20dea <_ZN20complex_full_dynamic3app17h27fc14a92a9c8904E+0x4e>
   20de4:	992a      	ldr	r1, [sp, #168]	@ 0xa8
   20de6:	4a2a      	ldr	r2, [pc, #168]	@ (20e90 <_ZN20complex_full_dynamic3app17h27fc14a92a9c8904E+0xf4>)
   20de8:	e005      	b.n	20df6 <_ZN20complex_full_dynamic3app17h27fc14a92a9c8904E+0x5a>
   20dea:	a906      	add	r1, sp, #24
   20dec:	9a04      	ldr	r2, [sp, #16]
   20dee:	720a      	strb	r2, [r1, #8]
   20df0:	9607      	str	r6, [sp, #28]
   20df2:	4a27      	ldr	r2, [pc, #156]	@ (20e90 <_ZN20complex_full_dynamic3app17h27fc14a92a9c8904E+0xf4>)
   20df4:	9206      	str	r2, [sp, #24]
   20df6:	350c      	adds	r5, #12
   20df8:	9504      	str	r5, [sp, #16]
   20dfa:	2501      	movs	r5, #1
   20dfc:	2802      	cmp	r0, #2
   20dfe:	d02e      	beq.n	20e5e <_ZN20complex_full_dynamic3app17h27fc14a92a9c8904E+0xc2>
   20e00:	a821      	add	r0, sp, #132	@ 0x84
   20e02:	7a00      	ldrb	r0, [r0, #8]
   20e04:	2103      	movs	r1, #3
   20e06:	2802      	cmp	r0, #2
   20e08:	d10e      	bne.n	20e28 <_ZN20complex_full_dynamic3app17h27fc14a92a9c8904E+0x8c>
   20e0a:	2012      	movs	r0, #18
   20e0c:	9000      	str	r0, [sp, #0]
   20e0e:	9103      	str	r1, [sp, #12]
   20e10:	9101      	str	r1, [sp, #4]
   20e12:	a829      	add	r0, sp, #164	@ 0xa4
   20e14:	2402      	movs	r4, #2
   20e16:	4611      	mov	r1, r2
   20e18:	4622      	mov	r2, r4
   20e1a:	9b04      	ldr	r3, [sp, #16]
   20e1c:	f008 f9b2 	bl	29184 <_ZN9allow_pin13dynamic_allow17h33d41317a2da4f1cE>
   20e20:	9829      	ldr	r0, [sp, #164]	@ 0xa4
   20e22:	2802      	cmp	r0, #2
   20e24:	d104      	bne.n	20e30 <_ZN20complex_full_dynamic3app17h27fc14a92a9c8904E+0x94>
   20e26:	992a      	ldr	r1, [sp, #168]	@ 0xa8
   20e28:	462e      	mov	r6, r5
   20e2a:	2e00      	cmp	r6, #0
   20e2c:	d008      	beq.n	20e40 <_ZN20complex_full_dynamic3app17h27fc14a92a9c8904E+0xa4>
   20e2e:	e016      	b.n	20e5e <_ZN20complex_full_dynamic3app17h27fc14a92a9c8904E+0xc2>
   20e30:	a821      	add	r0, sp, #132	@ 0x84
   20e32:	9903      	ldr	r1, [sp, #12]
   20e34:	7201      	strb	r1, [r0, #8]
   20e36:	9422      	str	r4, [sp, #136]	@ 0x88
   20e38:	4815      	ldr	r0, [pc, #84]	@ (20e90 <_ZN20complex_full_dynamic3app17h27fc14a92a9c8904E+0xf4>)
   20e3a:	9021      	str	r0, [sp, #132]	@ 0x84
   20e3c:	2e00      	cmp	r6, #0
   20e3e:	d10e      	bne.n	20e5e <_ZN20complex_full_dynamic3app17h27fc14a92a9c8904E+0xc2>
   20e40:	4813      	ldr	r0, [pc, #76]	@ (20e90 <_ZN20complex_full_dynamic3app17h27fc14a92a9c8904E+0xf4>)
   20e42:	2202      	movs	r2, #2
   20e44:	2400      	movs	r4, #0
   20e46:	4621      	mov	r1, r4
   20e48:	4623      	mov	r3, r4
   20e4a:	df02      	svc	2
   20e4c:	287f      	cmp	r0, #127	@ 0x7f
   20e4e:	d906      	bls.n	20e5e <_ZN20complex_full_dynamic3app17h27fc14a92a9c8904E+0xc2>
   20e50:	a806      	add	r0, sp, #24
   20e52:	f008 f983 	bl	2915c <_ZN9allow_pin12full_dynamic17unshare_if_shared17h9f78cce76fd1eb6dE>
   20e56:	a821      	add	r0, sp, #132	@ 0x84
   20e58:	f008 f980 	bl	2915c <_ZN9allow_pin12full_dynamic17unshare_if_shared17h9f78cce76fd1eb6dE>
   20e5c:	4625      	mov	r5, r4
   20e5e:	2d00      	cmp	r5, #0
   20e60:	d003      	beq.n	20e6a <_ZN20complex_full_dynamic3app17h27fc14a92a9c8904E+0xce>
   20e62:	9c05      	ldr	r4, [sp, #20]
   20e64:	6061      	str	r1, [r4, #4]
   20e66:	2001      	movs	r0, #1
   20e68:	e009      	b.n	20e7e <_ZN20complex_full_dynamic3app17h27fc14a92a9c8904E+0xe2>
   20e6a:	a821      	add	r0, sp, #132	@ 0x84
   20e6c:	f008 f976 	bl	2915c <_ZN9allow_pin12full_dynamic17unshare_if_shared17h9f78cce76fd1eb6dE>
   20e70:	9c05      	ldr	r4, [sp, #20]
   20e72:	1c60      	adds	r0, r4, #1
   20e74:	2212      	movs	r2, #18
   20e76:	9904      	ldr	r1, [sp, #16]
   20e78:	f008 fb49 	bl	2950e <__aeabi_memcpy>
   20e7c:	2000      	movs	r0, #0
   20e7e:	7020      	strb	r0, [r4, #0]
   20e80:	a821      	add	r0, sp, #132	@ 0x84
   20e82:	f008 f96b 	bl	2915c <_ZN9allow_pin12full_dynamic17unshare_if_shared17h9f78cce76fd1eb6dE>
   20e86:	a806      	add	r0, sp, #24
   20e88:	f008 f968 	bl	2915c <_ZN9allow_pin12full_dynamic17unshare_if_shared17h9f78cce76fd1eb6dE>
   20e8c:	b02d      	add	sp, #180	@ 0xb4
   20e8e:	bdf0      	pop	{r4, r5, r6, r7, pc}
   20e90:	000015f1 	.word	0x000015f1

00020e94 <_ZN20complex_full_dynamic3app17h34a9782bb2206d54E>:
   20e94:	b5f0      	push	{r4, r5, r6, r7, lr}
   20e96:	af03      	add	r7, sp, #12
   20e98:	b0a7      	sub	sp, #156	@ 0x9c
   20e9a:	9006      	str	r0, [sp, #24]
   20e9c:	ad07      	add	r5, sp, #28
   20e9e:	2002      	movs	r0, #2
   20ea0:	9005      	str	r0, [sp, #20]
   20ea2:	7228      	strb	r0, [r5, #8]
   20ea4:	350c      	adds	r5, #12
   20ea6:	260e      	movs	r6, #14
   20ea8:	4628      	mov	r0, r5
   20eaa:	4632      	mov	r2, r6
   20eac:	f008 fb2f 	bl	2950e <__aeabi_memcpy>
   20eb0:	ac0e      	add	r4, sp, #56	@ 0x38
   20eb2:	4620      	mov	r0, r4
   20eb4:	300c      	adds	r0, #12
   20eb6:	2148      	movs	r1, #72	@ 0x48
   20eb8:	9004      	str	r0, [sp, #16]
   20eba:	9103      	str	r1, [sp, #12]
   20ebc:	f008 f97a 	bl	291b4 <__aeabi_memclr4>
   20ec0:	9805      	ldr	r0, [sp, #20]
   20ec2:	7220      	strb	r0, [r4, #8]
   20ec4:	2404      	movs	r4, #4
   20ec6:	9600      	str	r6, [sp, #0]
   20ec8:	9401      	str	r4, [sp, #4]
   20eca:	a823      	add	r0, sp, #140	@ 0x8c
   20ecc:	492e      	ldr	r1, [pc, #184]	@ (20f88 <_ZN20complex_full_dynamic3app17h34a9782bb2206d54E+0xf4>)
   20ece:	2603      	movs	r6, #3
   20ed0:	4632      	mov	r2, r6
   20ed2:	462b      	mov	r3, r5
   20ed4:	f008 f956 	bl	29184 <_ZN9allow_pin13dynamic_allow17h33d41317a2da4f1cE>
   20ed8:	9823      	ldr	r0, [sp, #140]	@ 0x8c
   20eda:	2802      	cmp	r0, #2
   20edc:	d102      	bne.n	20ee4 <_ZN20complex_full_dynamic3app17h34a9782bb2206d54E+0x50>
   20ede:	9924      	ldr	r1, [sp, #144]	@ 0x90
   20ee0:	4a29      	ldr	r2, [pc, #164]	@ (20f88 <_ZN20complex_full_dynamic3app17h34a9782bb2206d54E+0xf4>)
   20ee2:	e004      	b.n	20eee <_ZN20complex_full_dynamic3app17h34a9782bb2206d54E+0x5a>
   20ee4:	a907      	add	r1, sp, #28
   20ee6:	720c      	strb	r4, [r1, #8]
   20ee8:	9608      	str	r6, [sp, #32]
   20eea:	4a27      	ldr	r2, [pc, #156]	@ (20f88 <_ZN20complex_full_dynamic3app17h34a9782bb2206d54E+0xf4>)
   20eec:	9207      	str	r2, [sp, #28]
   20eee:	2501      	movs	r5, #1
   20ef0:	2802      	cmp	r0, #2
   20ef2:	d02f      	beq.n	20f54 <_ZN20complex_full_dynamic3app17h34a9782bb2206d54E+0xc0>
   20ef4:	a80e      	add	r0, sp, #56	@ 0x38
   20ef6:	7a00      	ldrb	r0, [r0, #8]
   20ef8:	2802      	cmp	r0, #2
   20efa:	4628      	mov	r0, r5
   20efc:	d10f      	bne.n	20f1e <_ZN20complex_full_dynamic3app17h34a9782bb2206d54E+0x8a>
   20efe:	2603      	movs	r6, #3
   20f00:	9803      	ldr	r0, [sp, #12]
   20f02:	9000      	str	r0, [sp, #0]
   20f04:	9601      	str	r6, [sp, #4]
   20f06:	a823      	add	r0, sp, #140	@ 0x8c
   20f08:	2408      	movs	r4, #8
   20f0a:	4611      	mov	r1, r2
   20f0c:	4622      	mov	r2, r4
   20f0e:	9b04      	ldr	r3, [sp, #16]
   20f10:	f008 f938 	bl	29184 <_ZN9allow_pin13dynamic_allow17h33d41317a2da4f1cE>
   20f14:	9823      	ldr	r0, [sp, #140]	@ 0x8c
   20f16:	2802      	cmp	r0, #2
   20f18:	d105      	bne.n	20f26 <_ZN20complex_full_dynamic3app17h34a9782bb2206d54E+0x92>
   20f1a:	9e24      	ldr	r6, [sp, #144]	@ 0x90
   20f1c:	4628      	mov	r0, r5
   20f1e:	2800      	cmp	r0, #0
   20f20:	d009      	beq.n	20f36 <_ZN20complex_full_dynamic3app17h34a9782bb2206d54E+0xa2>
   20f22:	4631      	mov	r1, r6
   20f24:	e016      	b.n	20f54 <_ZN20complex_full_dynamic3app17h34a9782bb2206d54E+0xc0>
   20f26:	a80e      	add	r0, sp, #56	@ 0x38
   20f28:	7206      	strb	r6, [r0, #8]
   20f2a:	940f      	str	r4, [sp, #60]	@ 0x3c
   20f2c:	4816      	ldr	r0, [pc, #88]	@ (20f88 <_ZN20complex_full_dynamic3app17h34a9782bb2206d54E+0xf4>)
   20f2e:	900e      	str	r0, [sp, #56]	@ 0x38
   20f30:	2000      	movs	r0, #0
   20f32:	2800      	cmp	r0, #0
   20f34:	d1f5      	bne.n	20f22 <_ZN20complex_full_dynamic3app17h34a9782bb2206d54E+0x8e>
   20f36:	4814      	ldr	r0, [pc, #80]	@ (20f88 <_ZN20complex_full_dynamic3app17h34a9782bb2206d54E+0xf4>)
   20f38:	2103      	movs	r1, #3
   20f3a:	2208      	movs	r2, #8
   20f3c:	2400      	movs	r4, #0
   20f3e:	4623      	mov	r3, r4
   20f40:	df02      	svc	2
   20f42:	287f      	cmp	r0, #127	@ 0x7f
   20f44:	d906      	bls.n	20f54 <_ZN20complex_full_dynamic3app17h34a9782bb2206d54E+0xc0>
   20f46:	a807      	add	r0, sp, #28
   20f48:	f008 f908 	bl	2915c <_ZN9allow_pin12full_dynamic17unshare_if_shared17h9f78cce76fd1eb6dE>
   20f4c:	a80e      	add	r0, sp, #56	@ 0x38
   20f4e:	f008 f905 	bl	2915c <_ZN9allow_pin12full_dynamic17unshare_if_shared17h9f78cce76fd1eb6dE>
   20f52:	4625      	mov	r5, r4
   20f54:	2d00      	cmp	r5, #0
   20f56:	d003      	beq.n	20f60 <_ZN20complex_full_dynamic3app17h34a9782bb2206d54E+0xcc>
   20f58:	9c06      	ldr	r4, [sp, #24]
   20f5a:	6061      	str	r1, [r4, #4]
   20f5c:	2001      	movs	r0, #1
   20f5e:	e009      	b.n	20f74 <_ZN20complex_full_dynamic3app17h34a9782bb2206d54E+0xe0>
   20f60:	a80e      	add	r0, sp, #56	@ 0x38
   20f62:	f008 f8fb 	bl	2915c <_ZN9allow_pin12full_dynamic17unshare_if_shared17h9f78cce76fd1eb6dE>
   20f66:	9c06      	ldr	r4, [sp, #24]
   20f68:	1c60      	adds	r0, r4, #1
   20f6a:	2248      	movs	r2, #72	@ 0x48
   20f6c:	9904      	ldr	r1, [sp, #16]
   20f6e:	f008 face 	bl	2950e <__aeabi_memcpy>
   20f72:	2000      	movs	r0, #0
   20f74:	7020      	strb	r0, [r4, #0]
   20f76:	a80e      	add	r0, sp, #56	@ 0x38
   20f78:	f008 f8f0 	bl	2915c <_ZN9allow_pin12full_dynamic17unshare_if_shared17h9f78cce76fd1eb6dE>
   20f7c:	a807      	add	r0, sp, #28
   20f7e:	f008 f8ed 	bl	2915c <_ZN9allow_pin12full_dynamic17unshare_if_shared17h9f78cce76fd1eb6dE>
   20f82:	b027      	add	sp, #156	@ 0x9c
   20f84:	bdf0      	pop	{r4, r5, r6, r7, pc}
   20f86:	46c0      	nop			@ (mov r8, r8)
   20f88:	000012d1 	.word	0x000012d1

00020f8c <_ZN20complex_full_dynamic3app17h36f3d38a3598c275E>:
   20f8c:	b5f0      	push	{r4, r5, r6, r7, lr}
   20f8e:	af03      	add	r7, sp, #12
   20f90:	b0b1      	sub	sp, #196	@ 0xc4
   20f92:	9006      	str	r0, [sp, #24]
   20f94:	ad07      	add	r5, sp, #28
   20f96:	2002      	movs	r0, #2
   20f98:	9005      	str	r0, [sp, #20]
   20f9a:	7228      	strb	r0, [r5, #8]
   20f9c:	350c      	adds	r5, #12
   20f9e:	261b      	movs	r6, #27
   20fa0:	4628      	mov	r0, r5
   20fa2:	4632      	mov	r2, r6
   20fa4:	f008 fab3 	bl	2950e <__aeabi_memcpy>
   20fa8:	ac11      	add	r4, sp, #68	@ 0x44
   20faa:	4620      	mov	r0, r4
   20fac:	300c      	adds	r0, #12
   20fae:	2163      	movs	r1, #99	@ 0x63
   20fb0:	9004      	str	r0, [sp, #16]
   20fb2:	9103      	str	r1, [sp, #12]
   20fb4:	f008 f8fe 	bl	291b4 <__aeabi_memclr4>
   20fb8:	9805      	ldr	r0, [sp, #20]
   20fba:	7220      	strb	r0, [r4, #8]
   20fbc:	2404      	movs	r4, #4
   20fbe:	9600      	str	r6, [sp, #0]
   20fc0:	9401      	str	r4, [sp, #4]
   20fc2:	a82d      	add	r0, sp, #180	@ 0xb4
   20fc4:	492d      	ldr	r1, [pc, #180]	@ (2107c <_ZN20complex_full_dynamic3app17h36f3d38a3598c275E+0xf0>)
   20fc6:	2603      	movs	r6, #3
   20fc8:	4632      	mov	r2, r6
   20fca:	462b      	mov	r3, r5
   20fcc:	f008 f8da 	bl	29184 <_ZN9allow_pin13dynamic_allow17h33d41317a2da4f1cE>
   20fd0:	982d      	ldr	r0, [sp, #180]	@ 0xb4
   20fd2:	2802      	cmp	r0, #2
   20fd4:	d102      	bne.n	20fdc <_ZN20complex_full_dynamic3app17h36f3d38a3598c275E+0x50>
   20fd6:	992e      	ldr	r1, [sp, #184]	@ 0xb8
   20fd8:	4c28      	ldr	r4, [pc, #160]	@ (2107c <_ZN20complex_full_dynamic3app17h36f3d38a3598c275E+0xf0>)
   20fda:	e004      	b.n	20fe6 <_ZN20complex_full_dynamic3app17h36f3d38a3598c275E+0x5a>
   20fdc:	a907      	add	r1, sp, #28
   20fde:	720c      	strb	r4, [r1, #8]
   20fe0:	9608      	str	r6, [sp, #32]
   20fe2:	4c26      	ldr	r4, [pc, #152]	@ (2107c <_ZN20complex_full_dynamic3app17h36f3d38a3598c275E+0xf0>)
   20fe4:	9407      	str	r4, [sp, #28]
   20fe6:	2501      	movs	r5, #1
   20fe8:	2802      	cmp	r0, #2
   20fea:	d02d      	beq.n	21048 <_ZN20complex_full_dynamic3app17h36f3d38a3598c275E+0xbc>
   20fec:	a811      	add	r0, sp, #68	@ 0x44
   20fee:	7a00      	ldrb	r0, [r0, #8]
   20ff0:	2802      	cmp	r0, #2
   20ff2:	4628      	mov	r0, r5
   20ff4:	d10e      	bne.n	21014 <_ZN20complex_full_dynamic3app17h36f3d38a3598c275E+0x88>
   20ff6:	2603      	movs	r6, #3
   20ff8:	9803      	ldr	r0, [sp, #12]
   20ffa:	9000      	str	r0, [sp, #0]
   20ffc:	9601      	str	r6, [sp, #4]
   20ffe:	a82d      	add	r0, sp, #180	@ 0xb4
   21000:	4621      	mov	r1, r4
   21002:	4632      	mov	r2, r6
   21004:	9b04      	ldr	r3, [sp, #16]
   21006:	f008 f8bd 	bl	29184 <_ZN9allow_pin13dynamic_allow17h33d41317a2da4f1cE>
   2100a:	982d      	ldr	r0, [sp, #180]	@ 0xb4
   2100c:	2802      	cmp	r0, #2
   2100e:	d105      	bne.n	2101c <_ZN20complex_full_dynamic3app17h36f3d38a3598c275E+0x90>
   21010:	9e2e      	ldr	r6, [sp, #184]	@ 0xb8
   21012:	4628      	mov	r0, r5
   21014:	2800      	cmp	r0, #0
   21016:	d008      	beq.n	2102a <_ZN20complex_full_dynamic3app17h36f3d38a3598c275E+0x9e>
   21018:	4631      	mov	r1, r6
   2101a:	e015      	b.n	21048 <_ZN20complex_full_dynamic3app17h36f3d38a3598c275E+0xbc>
   2101c:	a811      	add	r0, sp, #68	@ 0x44
   2101e:	7206      	strb	r6, [r0, #8]
   21020:	9612      	str	r6, [sp, #72]	@ 0x48
   21022:	9411      	str	r4, [sp, #68]	@ 0x44
   21024:	2000      	movs	r0, #0
   21026:	2800      	cmp	r0, #0
   21028:	d1f6      	bne.n	21018 <_ZN20complex_full_dynamic3app17h36f3d38a3598c275E+0x8c>
   2102a:	4814      	ldr	r0, [pc, #80]	@ (2107c <_ZN20complex_full_dynamic3app17h36f3d38a3598c275E+0xf0>)
   2102c:	2103      	movs	r1, #3
   2102e:	2400      	movs	r4, #0
   21030:	460a      	mov	r2, r1
   21032:	4623      	mov	r3, r4
   21034:	df02      	svc	2
   21036:	287f      	cmp	r0, #127	@ 0x7f
   21038:	d906      	bls.n	21048 <_ZN20complex_full_dynamic3app17h36f3d38a3598c275E+0xbc>
   2103a:	a807      	add	r0, sp, #28
   2103c:	f008 f88e 	bl	2915c <_ZN9allow_pin12full_dynamic17unshare_if_shared17h9f78cce76fd1eb6dE>
   21040:	a811      	add	r0, sp, #68	@ 0x44
   21042:	f008 f88b 	bl	2915c <_ZN9allow_pin12full_dynamic17unshare_if_shared17h9f78cce76fd1eb6dE>
   21046:	4625      	mov	r5, r4
   21048:	2d00      	cmp	r5, #0
   2104a:	d003      	beq.n	21054 <_ZN20complex_full_dynamic3app17h36f3d38a3598c275E+0xc8>
   2104c:	9c06      	ldr	r4, [sp, #24]
   2104e:	6061      	str	r1, [r4, #4]
   21050:	2001      	movs	r0, #1
   21052:	e009      	b.n	21068 <_ZN20complex_full_dynamic3app17h36f3d38a3598c275E+0xdc>
   21054:	a811      	add	r0, sp, #68	@ 0x44
   21056:	f008 f881 	bl	2915c <_ZN9allow_pin12full_dynamic17unshare_if_shared17h9f78cce76fd1eb6dE>
   2105a:	9c06      	ldr	r4, [sp, #24]
   2105c:	1c60      	adds	r0, r4, #1
   2105e:	2263      	movs	r2, #99	@ 0x63
   21060:	9904      	ldr	r1, [sp, #16]
   21062:	f008 fa54 	bl	2950e <__aeabi_memcpy>
   21066:	2000      	movs	r0, #0
   21068:	7020      	strb	r0, [r4, #0]
   2106a:	a811      	add	r0, sp, #68	@ 0x44
   2106c:	f008 f876 	bl	2915c <_ZN9allow_pin12full_dynamic17unshare_if_shared17h9f78cce76fd1eb6dE>
   21070:	a807      	add	r0, sp, #28
   21072:	f008 f873 	bl	2915c <_ZN9allow_pin12full_dynamic17unshare_if_shared17h9f78cce76fd1eb6dE>
   21076:	b031      	add	sp, #196	@ 0xc4
   21078:	bdf0      	pop	{r4, r5, r6, r7, pc}
   2107a:	46c0      	nop			@ (mov r8, r8)
   2107c:	00002548 	.word	0x00002548

00021080 <_ZN20complex_full_dynamic3app17h39c8223ba75113c4E>:
   21080:	b5f0      	push	{r4, r5, r6, r7, lr}
   21082:	af03      	add	r7, sp, #12
   21084:	b0b5      	sub	sp, #212	@ 0xd4
   21086:	9006      	str	r0, [sp, #24]
   21088:	ae07      	add	r6, sp, #28
   2108a:	2002      	movs	r0, #2
   2108c:	9005      	str	r0, [sp, #20]
   2108e:	7230      	strb	r0, [r6, #8]
   21090:	360c      	adds	r6, #12
   21092:	252a      	movs	r5, #42	@ 0x2a
   21094:	4630      	mov	r0, r6
   21096:	462a      	mov	r2, r5
   21098:	f008 fa39 	bl	2950e <__aeabi_memcpy>
   2109c:	ac15      	add	r4, sp, #84	@ 0x54
   2109e:	4620      	mov	r0, r4
   210a0:	300c      	adds	r0, #12
   210a2:	2163      	movs	r1, #99	@ 0x63
   210a4:	9004      	str	r0, [sp, #16]
   210a6:	9103      	str	r1, [sp, #12]
   210a8:	f008 f884 	bl	291b4 <__aeabi_memclr4>
   210ac:	9805      	ldr	r0, [sp, #20]
   210ae:	7220      	strb	r0, [r4, #8]
   210b0:	2404      	movs	r4, #4
   210b2:	9500      	str	r5, [sp, #0]
   210b4:	9401      	str	r4, [sp, #4]
   210b6:	a831      	add	r0, sp, #196	@ 0xc4
   210b8:	4d2d      	ldr	r5, [pc, #180]	@ (21170 <_ZN20complex_full_dynamic3app17h39c8223ba75113c4E+0xf0>)
   210ba:	4629      	mov	r1, r5
   210bc:	4622      	mov	r2, r4
   210be:	4633      	mov	r3, r6
   210c0:	f008 f860 	bl	29184 <_ZN9allow_pin13dynamic_allow17h33d41317a2da4f1cE>
   210c4:	9831      	ldr	r0, [sp, #196]	@ 0xc4
   210c6:	2802      	cmp	r0, #2
   210c8:	d102      	bne.n	210d0 <_ZN20complex_full_dynamic3app17h39c8223ba75113c4E+0x50>
   210ca:	462e      	mov	r6, r5
   210cc:	9932      	ldr	r1, [sp, #200]	@ 0xc8
   210ce:	e004      	b.n	210da <_ZN20complex_full_dynamic3app17h39c8223ba75113c4E+0x5a>
   210d0:	a907      	add	r1, sp, #28
   210d2:	720c      	strb	r4, [r1, #8]
   210d4:	9408      	str	r4, [sp, #32]
   210d6:	462e      	mov	r6, r5
   210d8:	9507      	str	r5, [sp, #28]
   210da:	2501      	movs	r5, #1
   210dc:	2802      	cmp	r0, #2
   210de:	d02d      	beq.n	2113c <_ZN20complex_full_dynamic3app17h39c8223ba75113c4E+0xbc>
   210e0:	a815      	add	r0, sp, #84	@ 0x54
   210e2:	7a00      	ldrb	r0, [r0, #8]
   210e4:	2103      	movs	r1, #3
   210e6:	2802      	cmp	r0, #2
   210e8:	d10e      	bne.n	21108 <_ZN20complex_full_dynamic3app17h39c8223ba75113c4E+0x88>
   210ea:	9803      	ldr	r0, [sp, #12]
   210ec:	9000      	str	r0, [sp, #0]
   210ee:	9105      	str	r1, [sp, #20]
   210f0:	9101      	str	r1, [sp, #4]
   210f2:	a831      	add	r0, sp, #196	@ 0xc4
   210f4:	2400      	movs	r4, #0
   210f6:	4631      	mov	r1, r6
   210f8:	4622      	mov	r2, r4
   210fa:	9b04      	ldr	r3, [sp, #16]
   210fc:	f008 f842 	bl	29184 <_ZN9allow_pin13dynamic_allow17h33d41317a2da4f1cE>
   21100:	9831      	ldr	r0, [sp, #196]	@ 0xc4
   21102:	2802      	cmp	r0, #2
   21104:	d104      	bne.n	21110 <_ZN20complex_full_dynamic3app17h39c8223ba75113c4E+0x90>
   21106:	9932      	ldr	r1, [sp, #200]	@ 0xc8
   21108:	462c      	mov	r4, r5
   2110a:	2c00      	cmp	r4, #0
   2110c:	d007      	beq.n	2111e <_ZN20complex_full_dynamic3app17h39c8223ba75113c4E+0x9e>
   2110e:	e015      	b.n	2113c <_ZN20complex_full_dynamic3app17h39c8223ba75113c4E+0xbc>
   21110:	a815      	add	r0, sp, #84	@ 0x54
   21112:	9905      	ldr	r1, [sp, #20]
   21114:	7201      	strb	r1, [r0, #8]
   21116:	9416      	str	r4, [sp, #88]	@ 0x58
   21118:	9615      	str	r6, [sp, #84]	@ 0x54
   2111a:	2c00      	cmp	r4, #0
   2111c:	d10e      	bne.n	2113c <_ZN20complex_full_dynamic3app17h39c8223ba75113c4E+0xbc>
   2111e:	4814      	ldr	r0, [pc, #80]	@ (21170 <_ZN20complex_full_dynamic3app17h39c8223ba75113c4E+0xf0>)
   21120:	2104      	movs	r1, #4
   21122:	2400      	movs	r4, #0
   21124:	4622      	mov	r2, r4
   21126:	4623      	mov	r3, r4
   21128:	df02      	svc	2
   2112a:	287f      	cmp	r0, #127	@ 0x7f
   2112c:	d906      	bls.n	2113c <_ZN20complex_full_dynamic3app17h39c8223ba75113c4E+0xbc>
   2112e:	a807      	add	r0, sp, #28
   21130:	f008 f814 	bl	2915c <_ZN9allow_pin12full_dynamic17unshare_if_shared17h9f78cce76fd1eb6dE>
   21134:	a815      	add	r0, sp, #84	@ 0x54
   21136:	f008 f811 	bl	2915c <_ZN9allow_pin12full_dynamic17unshare_if_shared17h9f78cce76fd1eb6dE>
   2113a:	4625      	mov	r5, r4
   2113c:	2d00      	cmp	r5, #0
   2113e:	d003      	beq.n	21148 <_ZN20complex_full_dynamic3app17h39c8223ba75113c4E+0xc8>
   21140:	9c06      	ldr	r4, [sp, #24]
   21142:	6061      	str	r1, [r4, #4]
   21144:	2001      	movs	r0, #1
   21146:	e009      	b.n	2115c <_ZN20complex_full_dynamic3app17h39c8223ba75113c4E+0xdc>
   21148:	a815      	add	r0, sp, #84	@ 0x54
   2114a:	f008 f807 	bl	2915c <_ZN9allow_pin12full_dynamic17unshare_if_shared17h9f78cce76fd1eb6dE>
   2114e:	9c06      	ldr	r4, [sp, #24]
   21150:	1c60      	adds	r0, r4, #1
   21152:	2263      	movs	r2, #99	@ 0x63
   21154:	9904      	ldr	r1, [sp, #16]
   21156:	f008 f9da 	bl	2950e <__aeabi_memcpy>
   2115a:	2000      	movs	r0, #0
   2115c:	7020      	strb	r0, [r4, #0]
   2115e:	a815      	add	r0, sp, #84	@ 0x54
   21160:	f007 fffc 	bl	2915c <_ZN9allow_pin12full_dynamic17unshare_if_shared17h9f78cce76fd1eb6dE>
   21164:	a807      	add	r0, sp, #28
   21166:	f007 fff9 	bl	2915c <_ZN9allow_pin12full_dynamic17unshare_if_shared17h9f78cce76fd1eb6dE>
   2116a:	b035      	add	sp, #212	@ 0xd4
   2116c:	bdf0      	pop	{r4, r5, r6, r7, pc}
   2116e:	46c0      	nop			@ (mov r8, r8)
   21170:	00001c7c 	.word	0x00001c7c

00021174 <_ZN20complex_full_dynamic3app17h3c929787cbe704c0E>:
   21174:	b5f0      	push	{r4, r5, r6, r7, lr}
   21176:	af03      	add	r7, sp, #12
   21178:	b0b1      	sub	sp, #196	@ 0xc4
   2117a:	9005      	str	r0, [sp, #20]
   2117c:	ad06      	add	r5, sp, #24
   2117e:	2402      	movs	r4, #2
   21180:	722c      	strb	r4, [r5, #8]
   21182:	350c      	adds	r5, #12
   21184:	222d      	movs	r2, #45	@ 0x2d
   21186:	9204      	str	r2, [sp, #16]
   21188:	4628      	mov	r0, r5
   2118a:	f008 f9c0 	bl	2950e <__aeabi_memcpy>
   2118e:	ae15      	add	r6, sp, #84	@ 0x54
   21190:	4630      	mov	r0, r6
   21192:	300c      	adds	r0, #12
   21194:	2153      	movs	r1, #83	@ 0x53
   21196:	9003      	str	r0, [sp, #12]
   21198:	9102      	str	r1, [sp, #8]
   2119a:	f008 f80b 	bl	291b4 <__aeabi_memclr4>
   2119e:	7234      	strb	r4, [r6, #8]
   211a0:	4626      	mov	r6, r4
   211a2:	2004      	movs	r0, #4
   211a4:	9904      	ldr	r1, [sp, #16]
   211a6:	9100      	str	r1, [sp, #0]
   211a8:	9004      	str	r0, [sp, #16]
   211aa:	9001      	str	r0, [sp, #4]
   211ac:	a82d      	add	r0, sp, #180	@ 0xb4
   211ae:	4c2e      	ldr	r4, [pc, #184]	@ (21268 <_ZN20complex_full_dynamic3app17h3c929787cbe704c0E+0xf4>)
   211b0:	4621      	mov	r1, r4
   211b2:	4632      	mov	r2, r6
   211b4:	462b      	mov	r3, r5
   211b6:	f007 ffe5 	bl	29184 <_ZN9allow_pin13dynamic_allow17h33d41317a2da4f1cE>
   211ba:	982d      	ldr	r0, [sp, #180]	@ 0xb4
   211bc:	2802      	cmp	r0, #2
   211be:	d101      	bne.n	211c4 <_ZN20complex_full_dynamic3app17h3c929787cbe704c0E+0x50>
   211c0:	992e      	ldr	r1, [sp, #184]	@ 0xb8
   211c2:	e004      	b.n	211ce <_ZN20complex_full_dynamic3app17h3c929787cbe704c0E+0x5a>
   211c4:	a906      	add	r1, sp, #24
   211c6:	9a04      	ldr	r2, [sp, #16]
   211c8:	720a      	strb	r2, [r1, #8]
   211ca:	9607      	str	r6, [sp, #28]
   211cc:	9406      	str	r4, [sp, #24]
   211ce:	2501      	movs	r5, #1
   211d0:	2802      	cmp	r0, #2
   211d2:	d02f      	beq.n	21234 <_ZN20complex_full_dynamic3app17h3c929787cbe704c0E+0xc0>
   211d4:	a815      	add	r0, sp, #84	@ 0x54
   211d6:	7a00      	ldrb	r0, [r0, #8]
   211d8:	2802      	cmp	r0, #2
   211da:	d10f      	bne.n	211fc <_ZN20complex_full_dynamic3app17h3c929787cbe704c0E+0x88>
   211dc:	2603      	movs	r6, #3
   211de:	9802      	ldr	r0, [sp, #8]
   211e0:	9000      	str	r0, [sp, #0]
   211e2:	9601      	str	r6, [sp, #4]
   211e4:	a82d      	add	r0, sp, #180	@ 0xb4
   211e6:	4621      	mov	r1, r4
   211e8:	2407      	movs	r4, #7
   211ea:	4622      	mov	r2, r4
   211ec:	9b03      	ldr	r3, [sp, #12]
   211ee:	f007 ffc9 	bl	29184 <_ZN9allow_pin13dynamic_allow17h33d41317a2da4f1cE>
   211f2:	982d      	ldr	r0, [sp, #180]	@ 0xb4
   211f4:	2802      	cmp	r0, #2
   211f6:	d106      	bne.n	21206 <_ZN20complex_full_dynamic3app17h3c929787cbe704c0E+0x92>
   211f8:	992e      	ldr	r1, [sp, #184]	@ 0xb8
   211fa:	e000      	b.n	211fe <_ZN20complex_full_dynamic3app17h3c929787cbe704c0E+0x8a>
   211fc:	2103      	movs	r1, #3
   211fe:	4628      	mov	r0, r5
   21200:	2800      	cmp	r0, #0
   21202:	d008      	beq.n	21216 <_ZN20complex_full_dynamic3app17h3c929787cbe704c0E+0xa2>
   21204:	e016      	b.n	21234 <_ZN20complex_full_dynamic3app17h3c929787cbe704c0E+0xc0>
   21206:	a815      	add	r0, sp, #84	@ 0x54
   21208:	7206      	strb	r6, [r0, #8]
   2120a:	9416      	str	r4, [sp, #88]	@ 0x58
   2120c:	4816      	ldr	r0, [pc, #88]	@ (21268 <_ZN20complex_full_dynamic3app17h3c929787cbe704c0E+0xf4>)
   2120e:	9015      	str	r0, [sp, #84]	@ 0x54
   21210:	2000      	movs	r0, #0
   21212:	2800      	cmp	r0, #0
   21214:	d10e      	bne.n	21234 <_ZN20complex_full_dynamic3app17h3c929787cbe704c0E+0xc0>
   21216:	4814      	ldr	r0, [pc, #80]	@ (21268 <_ZN20complex_full_dynamic3app17h3c929787cbe704c0E+0xf4>)
   21218:	2102      	movs	r1, #2
   2121a:	2207      	movs	r2, #7
   2121c:	2400      	movs	r4, #0
   2121e:	4623      	mov	r3, r4
   21220:	df02      	svc	2
   21222:	287f      	cmp	r0, #127	@ 0x7f
   21224:	d906      	bls.n	21234 <_ZN20complex_full_dynamic3app17h3c929787cbe704c0E+0xc0>
   21226:	a806      	add	r0, sp, #24
   21228:	f007 ff98 	bl	2915c <_ZN9allow_pin12full_dynamic17unshare_if_shared17h9f78cce76fd1eb6dE>
   2122c:	a815      	add	r0, sp, #84	@ 0x54
   2122e:	f007 ff95 	bl	2915c <_ZN9allow_pin12full_dynamic17unshare_if_shared17h9f78cce76fd1eb6dE>
   21232:	4625      	mov	r5, r4
   21234:	2d00      	cmp	r5, #0
   21236:	d003      	beq.n	21240 <_ZN20complex_full_dynamic3app17h3c929787cbe704c0E+0xcc>
   21238:	9c05      	ldr	r4, [sp, #20]
   2123a:	6061      	str	r1, [r4, #4]
   2123c:	2001      	movs	r0, #1
   2123e:	e009      	b.n	21254 <_ZN20complex_full_dynamic3app17h3c929787cbe704c0E+0xe0>
   21240:	a815      	add	r0, sp, #84	@ 0x54
   21242:	f007 ff8b 	bl	2915c <_ZN9allow_pin12full_dynamic17unshare_if_shared17h9f78cce76fd1eb6dE>
   21246:	9c05      	ldr	r4, [sp, #20]
   21248:	1c60      	adds	r0, r4, #1
   2124a:	2253      	movs	r2, #83	@ 0x53
   2124c:	9903      	ldr	r1, [sp, #12]
   2124e:	f008 f95e 	bl	2950e <__aeabi_memcpy>
   21252:	2000      	movs	r0, #0
   21254:	7020      	strb	r0, [r4, #0]
   21256:	a815      	add	r0, sp, #84	@ 0x54
   21258:	f007 ff80 	bl	2915c <_ZN9allow_pin12full_dynamic17unshare_if_shared17h9f78cce76fd1eb6dE>
   2125c:	a806      	add	r0, sp, #24
   2125e:	f007 ff7d 	bl	2915c <_ZN9allow_pin12full_dynamic17unshare_if_shared17h9f78cce76fd1eb6dE>
   21262:	b031      	add	sp, #196	@ 0xc4
   21264:	bdf0      	pop	{r4, r5, r6, r7, pc}
   21266:	46c0      	nop			@ (mov r8, r8)
   21268:	00000ec3 	.word	0x00000ec3

0002126c <_ZN20complex_full_dynamic3app17h3e3f7c05a26c63e1E>:
   2126c:	b5f0      	push	{r4, r5, r6, r7, lr}
   2126e:	af03      	add	r7, sp, #12
   21270:	b0a7      	sub	sp, #156	@ 0x9c
   21272:	9006      	str	r0, [sp, #24]
   21274:	ac07      	add	r4, sp, #28
   21276:	2502      	movs	r5, #2
   21278:	7225      	strb	r5, [r4, #8]
   2127a:	340c      	adds	r4, #12
   2127c:	2648      	movs	r6, #72	@ 0x48
   2127e:	4620      	mov	r0, r4
   21280:	4632      	mov	r2, r6
   21282:	f008 f944 	bl	2950e <__aeabi_memcpy>
   21286:	a81c      	add	r0, sp, #112	@ 0x70
   21288:	2100      	movs	r1, #0
   2128a:	7681      	strb	r1, [r0, #26]
   2128c:	8301      	strh	r1, [r0, #24]
   2128e:	7205      	strb	r5, [r0, #8]
   21290:	4605      	mov	r5, r0
   21292:	9121      	str	r1, [sp, #132]	@ 0x84
   21294:	9120      	str	r1, [sp, #128]	@ 0x80
   21296:	9104      	str	r1, [sp, #16]
   21298:	911f      	str	r1, [sp, #124]	@ 0x7c
   2129a:	2004      	movs	r0, #4
   2129c:	9600      	str	r6, [sp, #0]
   2129e:	9005      	str	r0, [sp, #20]
   212a0:	9001      	str	r0, [sp, #4]
   212a2:	a823      	add	r0, sp, #140	@ 0x8c
   212a4:	492f      	ldr	r1, [pc, #188]	@ (21364 <_ZN20complex_full_dynamic3app17h3e3f7c05a26c63e1E+0xf8>)
   212a6:	2608      	movs	r6, #8
   212a8:	4632      	mov	r2, r6
   212aa:	4623      	mov	r3, r4
   212ac:	f007 ff6a 	bl	29184 <_ZN9allow_pin13dynamic_allow17h33d41317a2da4f1cE>
   212b0:	9823      	ldr	r0, [sp, #140]	@ 0x8c
   212b2:	2802      	cmp	r0, #2
   212b4:	d102      	bne.n	212bc <_ZN20complex_full_dynamic3app17h3e3f7c05a26c63e1E+0x50>
   212b6:	9924      	ldr	r1, [sp, #144]	@ 0x90
   212b8:	4a2a      	ldr	r2, [pc, #168]	@ (21364 <_ZN20complex_full_dynamic3app17h3e3f7c05a26c63e1E+0xf8>)
   212ba:	e005      	b.n	212c8 <_ZN20complex_full_dynamic3app17h3e3f7c05a26c63e1E+0x5c>
   212bc:	a907      	add	r1, sp, #28
   212be:	9a05      	ldr	r2, [sp, #20]
   212c0:	720a      	strb	r2, [r1, #8]
   212c2:	9608      	str	r6, [sp, #32]
   212c4:	4a27      	ldr	r2, [pc, #156]	@ (21364 <_ZN20complex_full_dynamic3app17h3e3f7c05a26c63e1E+0xf8>)
   212c6:	9207      	str	r2, [sp, #28]
   212c8:	350c      	adds	r5, #12
   212ca:	9505      	str	r5, [sp, #20]
   212cc:	2601      	movs	r6, #1
   212ce:	2802      	cmp	r0, #2
   212d0:	9d06      	ldr	r5, [sp, #24]
   212d2:	d02f      	beq.n	21334 <_ZN20complex_full_dynamic3app17h3e3f7c05a26c63e1E+0xc8>
   212d4:	a81c      	add	r0, sp, #112	@ 0x70
   212d6:	7a00      	ldrb	r0, [r0, #8]
   212d8:	2103      	movs	r1, #3
   212da:	2802      	cmp	r0, #2
   212dc:	d10e      	bne.n	212fc <_ZN20complex_full_dynamic3app17h3e3f7c05a26c63e1E+0x90>
   212de:	200f      	movs	r0, #15
   212e0:	9000      	str	r0, [sp, #0]
   212e2:	9103      	str	r1, [sp, #12]
   212e4:	9101      	str	r1, [sp, #4]
   212e6:	a823      	add	r0, sp, #140	@ 0x8c
   212e8:	2409      	movs	r4, #9
   212ea:	4611      	mov	r1, r2
   212ec:	4622      	mov	r2, r4
   212ee:	9b05      	ldr	r3, [sp, #20]
   212f0:	f007 ff48 	bl	29184 <_ZN9allow_pin13dynamic_allow17h33d41317a2da4f1cE>
   212f4:	9823      	ldr	r0, [sp, #140]	@ 0x8c
   212f6:	2802      	cmp	r0, #2
   212f8:	d104      	bne.n	21304 <_ZN20complex_full_dynamic3app17h3e3f7c05a26c63e1E+0x98>
   212fa:	9924      	ldr	r1, [sp, #144]	@ 0x90
   212fc:	4630      	mov	r0, r6
   212fe:	2800      	cmp	r0, #0
   21300:	d009      	beq.n	21316 <_ZN20complex_full_dynamic3app17h3e3f7c05a26c63e1E+0xaa>
   21302:	e017      	b.n	21334 <_ZN20complex_full_dynamic3app17h3e3f7c05a26c63e1E+0xc8>
   21304:	a81c      	add	r0, sp, #112	@ 0x70
   21306:	9903      	ldr	r1, [sp, #12]
   21308:	7201      	strb	r1, [r0, #8]
   2130a:	941d      	str	r4, [sp, #116]	@ 0x74
   2130c:	4815      	ldr	r0, [pc, #84]	@ (21364 <_ZN20complex_full_dynamic3app17h3e3f7c05a26c63e1E+0xf8>)
   2130e:	901c      	str	r0, [sp, #112]	@ 0x70
   21310:	9804      	ldr	r0, [sp, #16]
   21312:	2800      	cmp	r0, #0
   21314:	d10e      	bne.n	21334 <_ZN20complex_full_dynamic3app17h3e3f7c05a26c63e1E+0xc8>
   21316:	4813      	ldr	r0, [pc, #76]	@ (21364 <_ZN20complex_full_dynamic3app17h3e3f7c05a26c63e1E+0xf8>)
   21318:	2108      	movs	r1, #8
   2131a:	2209      	movs	r2, #9
   2131c:	2400      	movs	r4, #0
   2131e:	4623      	mov	r3, r4
   21320:	df02      	svc	2
   21322:	287f      	cmp	r0, #127	@ 0x7f
   21324:	d906      	bls.n	21334 <_ZN20complex_full_dynamic3app17h3e3f7c05a26c63e1E+0xc8>
   21326:	a807      	add	r0, sp, #28
   21328:	f007 ff18 	bl	2915c <_ZN9allow_pin12full_dynamic17unshare_if_shared17h9f78cce76fd1eb6dE>
   2132c:	a81c      	add	r0, sp, #112	@ 0x70
   2132e:	f007 ff15 	bl	2915c <_ZN9allow_pin12full_dynamic17unshare_if_shared17h9f78cce76fd1eb6dE>
   21332:	4626      	mov	r6, r4
   21334:	2e00      	cmp	r6, #0
   21336:	d002      	beq.n	2133e <_ZN20complex_full_dynamic3app17h3e3f7c05a26c63e1E+0xd2>
   21338:	6069      	str	r1, [r5, #4]
   2133a:	2001      	movs	r0, #1
   2133c:	e008      	b.n	21350 <_ZN20complex_full_dynamic3app17h3e3f7c05a26c63e1E+0xe4>
   2133e:	a81c      	add	r0, sp, #112	@ 0x70
   21340:	f007 ff0c 	bl	2915c <_ZN9allow_pin12full_dynamic17unshare_if_shared17h9f78cce76fd1eb6dE>
   21344:	1c68      	adds	r0, r5, #1
   21346:	220f      	movs	r2, #15
   21348:	9905      	ldr	r1, [sp, #20]
   2134a:	f008 f8e0 	bl	2950e <__aeabi_memcpy>
   2134e:	2000      	movs	r0, #0
   21350:	7028      	strb	r0, [r5, #0]
   21352:	a81c      	add	r0, sp, #112	@ 0x70
   21354:	f007 ff02 	bl	2915c <_ZN9allow_pin12full_dynamic17unshare_if_shared17h9f78cce76fd1eb6dE>
   21358:	a807      	add	r0, sp, #28
   2135a:	f007 feff 	bl	2915c <_ZN9allow_pin12full_dynamic17unshare_if_shared17h9f78cce76fd1eb6dE>
   2135e:	b027      	add	sp, #156	@ 0x9c
   21360:	bdf0      	pop	{r4, r5, r6, r7, pc}
   21362:	46c0      	nop			@ (mov r8, r8)
   21364:	0000111d 	.word	0x0000111d

00021368 <_ZN20complex_full_dynamic3app17h3f9de50ec26f129cE>:
   21368:	b5f0      	push	{r4, r5, r6, r7, lr}
   2136a:	af03      	add	r7, sp, #12
   2136c:	b0b3      	sub	sp, #204	@ 0xcc
   2136e:	9005      	str	r0, [sp, #20]
   21370:	ae06      	add	r6, sp, #24
   21372:	2002      	movs	r0, #2
   21374:	9004      	str	r0, [sp, #16]
   21376:	7230      	strb	r0, [r6, #8]
   21378:	360c      	adds	r6, #12
   2137a:	254f      	movs	r5, #79	@ 0x4f
   2137c:	4630      	mov	r0, r6
   2137e:	462a      	mov	r2, r5
   21380:	f008 f8c5 	bl	2950e <__aeabi_memcpy>
   21384:	ac1d      	add	r4, sp, #116	@ 0x74
   21386:	4620      	mov	r0, r4
   21388:	300c      	adds	r0, #12
   2138a:	213b      	movs	r1, #59	@ 0x3b
   2138c:	9003      	str	r0, [sp, #12]
   2138e:	9102      	str	r1, [sp, #8]
   21390:	f007 ff10 	bl	291b4 <__aeabi_memclr4>
   21394:	9804      	ldr	r0, [sp, #16]
   21396:	7220      	strb	r0, [r4, #8]
   21398:	2404      	movs	r4, #4
   2139a:	9500      	str	r5, [sp, #0]
   2139c:	9401      	str	r4, [sp, #4]
   2139e:	a82f      	add	r0, sp, #188	@ 0xbc
   213a0:	492e      	ldr	r1, [pc, #184]	@ (2145c <_ZN20complex_full_dynamic3app17h3f9de50ec26f129cE+0xf4>)
   213a2:	2508      	movs	r5, #8
   213a4:	462a      	mov	r2, r5
   213a6:	4633      	mov	r3, r6
   213a8:	f007 feec 	bl	29184 <_ZN9allow_pin13dynamic_allow17h33d41317a2da4f1cE>
   213ac:	982f      	ldr	r0, [sp, #188]	@ 0xbc
   213ae:	2802      	cmp	r0, #2
   213b0:	d102      	bne.n	213b8 <_ZN20complex_full_dynamic3app17h3f9de50ec26f129cE+0x50>
   213b2:	9930      	ldr	r1, [sp, #192]	@ 0xc0
   213b4:	4a29      	ldr	r2, [pc, #164]	@ (2145c <_ZN20complex_full_dynamic3app17h3f9de50ec26f129cE+0xf4>)
   213b6:	e004      	b.n	213c2 <_ZN20complex_full_dynamic3app17h3f9de50ec26f129cE+0x5a>
   213b8:	a906      	add	r1, sp, #24
   213ba:	720c      	strb	r4, [r1, #8]
   213bc:	9507      	str	r5, [sp, #28]
   213be:	4a27      	ldr	r2, [pc, #156]	@ (2145c <_ZN20complex_full_dynamic3app17h3f9de50ec26f129cE+0xf4>)
   213c0:	9206      	str	r2, [sp, #24]
   213c2:	2501      	movs	r5, #1
   213c4:	2802      	cmp	r0, #2
   213c6:	d02f      	beq.n	21428 <_ZN20complex_full_dynamic3app17h3f9de50ec26f129cE+0xc0>
   213c8:	a81d      	add	r0, sp, #116	@ 0x74
   213ca:	7a00      	ldrb	r0, [r0, #8]
   213cc:	2802      	cmp	r0, #2
   213ce:	d10f      	bne.n	213f0 <_ZN20complex_full_dynamic3app17h3f9de50ec26f129cE+0x88>
   213d0:	2603      	movs	r6, #3
   213d2:	9802      	ldr	r0, [sp, #8]
   213d4:	9000      	str	r0, [sp, #0]
   213d6:	9601      	str	r6, [sp, #4]
   213d8:	a82f      	add	r0, sp, #188	@ 0xbc
   213da:	2405      	movs	r4, #5
   213dc:	4611      	mov	r1, r2
   213de:	4622      	mov	r2, r4
   213e0:	9b03      	ldr	r3, [sp, #12]
   213e2:	f007 fecf 	bl	29184 <_ZN9allow_pin13dynamic_allow17h33d41317a2da4f1cE>
   213e6:	982f      	ldr	r0, [sp, #188]	@ 0xbc
   213e8:	2802      	cmp	r0, #2
   213ea:	d106      	bne.n	213fa <_ZN20complex_full_dynamic3app17h3f9de50ec26f129cE+0x92>
   213ec:	9930      	ldr	r1, [sp, #192]	@ 0xc0
   213ee:	e000      	b.n	213f2 <_ZN20complex_full_dynamic3app17h3f9de50ec26f129cE+0x8a>
   213f0:	2103      	movs	r1, #3
   213f2:	4628      	mov	r0, r5
   213f4:	2800      	cmp	r0, #0
   213f6:	d008      	beq.n	2140a <_ZN20complex_full_dynamic3app17h3f9de50ec26f129cE+0xa2>
   213f8:	e016      	b.n	21428 <_ZN20complex_full_dynamic3app17h3f9de50ec26f129cE+0xc0>
   213fa:	a81d      	add	r0, sp, #116	@ 0x74
   213fc:	7206      	strb	r6, [r0, #8]
   213fe:	941e      	str	r4, [sp, #120]	@ 0x78
   21400:	4816      	ldr	r0, [pc, #88]	@ (2145c <_ZN20complex_full_dynamic3app17h3f9de50ec26f129cE+0xf4>)
   21402:	901d      	str	r0, [sp, #116]	@ 0x74
   21404:	2000      	movs	r0, #0
   21406:	2800      	cmp	r0, #0
   21408:	d10e      	bne.n	21428 <_ZN20complex_full_dynamic3app17h3f9de50ec26f129cE+0xc0>
   2140a:	4814      	ldr	r0, [pc, #80]	@ (2145c <_ZN20complex_full_dynamic3app17h3f9de50ec26f129cE+0xf4>)
   2140c:	2108      	movs	r1, #8
   2140e:	2205      	movs	r2, #5
   21410:	2400      	movs	r4, #0
   21412:	4623      	mov	r3, r4
   21414:	df02      	svc	2
   21416:	287f      	cmp	r0, #127	@ 0x7f
   21418:	d906      	bls.n	21428 <_ZN20complex_full_dynamic3app17h3f9de50ec26f129cE+0xc0>
   2141a:	a806      	add	r0, sp, #24
   2141c:	f007 fe9e 	bl	2915c <_ZN9allow_pin12full_dynamic17unshare_if_shared17h9f78cce76fd1eb6dE>
   21420:	a81d      	add	r0, sp, #116	@ 0x74
   21422:	f007 fe9b 	bl	2915c <_ZN9allow_pin12full_dynamic17unshare_if_shared17h9f78cce76fd1eb6dE>
   21426:	4625      	mov	r5, r4
   21428:	2d00      	cmp	r5, #0
   2142a:	d003      	beq.n	21434 <_ZN20complex_full_dynamic3app17h3f9de50ec26f129cE+0xcc>
   2142c:	9c05      	ldr	r4, [sp, #20]
   2142e:	6061      	str	r1, [r4, #4]
   21430:	2001      	movs	r0, #1
   21432:	e009      	b.n	21448 <_ZN20complex_full_dynamic3app17h3f9de50ec26f129cE+0xe0>
   21434:	a81d      	add	r0, sp, #116	@ 0x74
   21436:	f007 fe91 	bl	2915c <_ZN9allow_pin12full_dynamic17unshare_if_shared17h9f78cce76fd1eb6dE>
   2143a:	9c05      	ldr	r4, [sp, #20]
   2143c:	1c60      	adds	r0, r4, #1
   2143e:	223b      	movs	r2, #59	@ 0x3b
   21440:	9903      	ldr	r1, [sp, #12]
   21442:	f008 f864 	bl	2950e <__aeabi_memcpy>
   21446:	2000      	movs	r0, #0
   21448:	7020      	strb	r0, [r4, #0]
   2144a:	a81d      	add	r0, sp, #116	@ 0x74
   2144c:	f007 fe86 	bl	2915c <_ZN9allow_pin12full_dynamic17unshare_if_shared17h9f78cce76fd1eb6dE>
   21450:	a806      	add	r0, sp, #24
   21452:	f007 fe83 	bl	2915c <_ZN9allow_pin12full_dynamic17unshare_if_shared17h9f78cce76fd1eb6dE>
   21456:	b033      	add	sp, #204	@ 0xcc
   21458:	bdf0      	pop	{r4, r5, r6, r7, pc}
   2145a:	46c0      	nop			@ (mov r8, r8)
   2145c:	00000a06 	.word	0x00000a06

00021460 <_ZN20complex_full_dynamic3app17h3fd1cbf443dad46cE>:
   21460:	b5f0      	push	{r4, r5, r6, r7, lr}
   21462:	af03      	add	r7, sp, #12
   21464:	b0b3      	sub	sp, #204	@ 0xcc
   21466:	9006      	str	r0, [sp, #24]
   21468:	ad07      	add	r5, sp, #28
   2146a:	2002      	movs	r0, #2
   2146c:	9005      	str	r0, [sp, #20]
   2146e:	7228      	strb	r0, [r5, #8]
   21470:	350c      	adds	r5, #12
   21472:	262a      	movs	r6, #42	@ 0x2a
   21474:	4628      	mov	r0, r5
   21476:	4632      	mov	r2, r6
   21478:	f008 f849 	bl	2950e <__aeabi_memcpy>
   2147c:	ac15      	add	r4, sp, #84	@ 0x54
   2147e:	4620      	mov	r0, r4
   21480:	300c      	adds	r0, #12
   21482:	2159      	movs	r1, #89	@ 0x59
   21484:	9004      	str	r0, [sp, #16]
   21486:	9103      	str	r1, [sp, #12]
   21488:	f007 fe94 	bl	291b4 <__aeabi_memclr4>
   2148c:	9805      	ldr	r0, [sp, #20]
   2148e:	7220      	strb	r0, [r4, #8]
   21490:	2404      	movs	r4, #4
   21492:	9600      	str	r6, [sp, #0]
   21494:	9401      	str	r4, [sp, #4]
   21496:	a82f      	add	r0, sp, #188	@ 0xbc
   21498:	492d      	ldr	r1, [pc, #180]	@ (21550 <_ZN20complex_full_dynamic3app17h3fd1cbf443dad46cE+0xf0>)
   2149a:	2601      	movs	r6, #1
   2149c:	4632      	mov	r2, r6
   2149e:	462b      	mov	r3, r5
   214a0:	f007 fe70 	bl	29184 <_ZN9allow_pin13dynamic_allow17h33d41317a2da4f1cE>
   214a4:	982f      	ldr	r0, [sp, #188]	@ 0xbc
   214a6:	2802      	cmp	r0, #2
   214a8:	d104      	bne.n	214b4 <_ZN20complex_full_dynamic3app17h3fd1cbf443dad46cE+0x54>
   214aa:	9930      	ldr	r1, [sp, #192]	@ 0xc0
   214ac:	4c28      	ldr	r4, [pc, #160]	@ (21550 <_ZN20complex_full_dynamic3app17h3fd1cbf443dad46cE+0xf0>)
   214ae:	2802      	cmp	r0, #2
   214b0:	d107      	bne.n	214c2 <_ZN20complex_full_dynamic3app17h3fd1cbf443dad46cE+0x62>
   214b2:	e034      	b.n	2151e <_ZN20complex_full_dynamic3app17h3fd1cbf443dad46cE+0xbe>
   214b4:	a907      	add	r1, sp, #28
   214b6:	720c      	strb	r4, [r1, #8]
   214b8:	9608      	str	r6, [sp, #32]
   214ba:	4c25      	ldr	r4, [pc, #148]	@ (21550 <_ZN20complex_full_dynamic3app17h3fd1cbf443dad46cE+0xf0>)
   214bc:	9407      	str	r4, [sp, #28]
   214be:	2802      	cmp	r0, #2
   214c0:	d02d      	beq.n	2151e <_ZN20complex_full_dynamic3app17h3fd1cbf443dad46cE+0xbe>
   214c2:	a815      	add	r0, sp, #84	@ 0x54
   214c4:	7a00      	ldrb	r0, [r0, #8]
   214c6:	2802      	cmp	r0, #2
   214c8:	d10e      	bne.n	214e8 <_ZN20complex_full_dynamic3app17h3fd1cbf443dad46cE+0x88>
   214ca:	2503      	movs	r5, #3
   214cc:	9803      	ldr	r0, [sp, #12]
   214ce:	9000      	str	r0, [sp, #0]
   214d0:	9501      	str	r5, [sp, #4]
   214d2:	a82f      	add	r0, sp, #188	@ 0xbc
   214d4:	4621      	mov	r1, r4
   214d6:	462a      	mov	r2, r5
   214d8:	9b04      	ldr	r3, [sp, #16]
   214da:	f007 fe53 	bl	29184 <_ZN9allow_pin13dynamic_allow17h33d41317a2da4f1cE>
   214de:	982f      	ldr	r0, [sp, #188]	@ 0xbc
   214e0:	2802      	cmp	r0, #2
   214e2:	d106      	bne.n	214f2 <_ZN20complex_full_dynamic3app17h3fd1cbf443dad46cE+0x92>
   214e4:	9930      	ldr	r1, [sp, #192]	@ 0xc0
   214e6:	e000      	b.n	214ea <_ZN20complex_full_dynamic3app17h3fd1cbf443dad46cE+0x8a>
   214e8:	2103      	movs	r1, #3
   214ea:	4630      	mov	r0, r6
   214ec:	2800      	cmp	r0, #0
   214ee:	d007      	beq.n	21500 <_ZN20complex_full_dynamic3app17h3fd1cbf443dad46cE+0xa0>
   214f0:	e015      	b.n	2151e <_ZN20complex_full_dynamic3app17h3fd1cbf443dad46cE+0xbe>
   214f2:	a815      	add	r0, sp, #84	@ 0x54
   214f4:	7205      	strb	r5, [r0, #8]
   214f6:	9516      	str	r5, [sp, #88]	@ 0x58
   214f8:	9415      	str	r4, [sp, #84]	@ 0x54
   214fa:	2000      	movs	r0, #0
   214fc:	2800      	cmp	r0, #0
   214fe:	d10e      	bne.n	2151e <_ZN20complex_full_dynamic3app17h3fd1cbf443dad46cE+0xbe>
   21500:	4813      	ldr	r0, [pc, #76]	@ (21550 <_ZN20complex_full_dynamic3app17h3fd1cbf443dad46cE+0xf0>)
   21502:	2101      	movs	r1, #1
   21504:	2203      	movs	r2, #3
   21506:	2400      	movs	r4, #0
   21508:	4623      	mov	r3, r4
   2150a:	df02      	svc	2
   2150c:	287f      	cmp	r0, #127	@ 0x7f
   2150e:	d906      	bls.n	2151e <_ZN20complex_full_dynamic3app17h3fd1cbf443dad46cE+0xbe>
   21510:	a807      	add	r0, sp, #28
   21512:	f007 fe23 	bl	2915c <_ZN9allow_pin12full_dynamic17unshare_if_shared17h9f78cce76fd1eb6dE>
   21516:	a815      	add	r0, sp, #84	@ 0x54
   21518:	f007 fe20 	bl	2915c <_ZN9allow_pin12full_dynamic17unshare_if_shared17h9f78cce76fd1eb6dE>
   2151c:	4626      	mov	r6, r4
   2151e:	2e00      	cmp	r6, #0
   21520:	d003      	beq.n	2152a <_ZN20complex_full_dynamic3app17h3fd1cbf443dad46cE+0xca>
   21522:	9c06      	ldr	r4, [sp, #24]
   21524:	6061      	str	r1, [r4, #4]
   21526:	2001      	movs	r0, #1
   21528:	e009      	b.n	2153e <_ZN20complex_full_dynamic3app17h3fd1cbf443dad46cE+0xde>
   2152a:	a815      	add	r0, sp, #84	@ 0x54
   2152c:	f007 fe16 	bl	2915c <_ZN9allow_pin12full_dynamic17unshare_if_shared17h9f78cce76fd1eb6dE>
   21530:	9c06      	ldr	r4, [sp, #24]
   21532:	1c60      	adds	r0, r4, #1
   21534:	2259      	movs	r2, #89	@ 0x59
   21536:	9904      	ldr	r1, [sp, #16]
   21538:	f007 ffe9 	bl	2950e <__aeabi_memcpy>
   2153c:	2000      	movs	r0, #0
   2153e:	7020      	strb	r0, [r4, #0]
   21540:	a815      	add	r0, sp, #84	@ 0x54
   21542:	f007 fe0b 	bl	2915c <_ZN9allow_pin12full_dynamic17unshare_if_shared17h9f78cce76fd1eb6dE>
   21546:	a807      	add	r0, sp, #28
   21548:	f007 fe08 	bl	2915c <_ZN9allow_pin12full_dynamic17unshare_if_shared17h9f78cce76fd1eb6dE>
   2154c:	b033      	add	sp, #204	@ 0xcc
   2154e:	bdf0      	pop	{r4, r5, r6, r7, pc}
   21550:	00000ed2 	.word	0x00000ed2

00021554 <_ZN20complex_full_dynamic3app17h412a7751d152880fE>:
   21554:	b5f0      	push	{r4, r5, r6, r7, lr}
   21556:	af03      	add	r7, sp, #12
   21558:	b0a5      	sub	sp, #148	@ 0x94
   2155a:	9005      	str	r0, [sp, #20]
   2155c:	ae06      	add	r6, sp, #24
   2155e:	2002      	movs	r0, #2
   21560:	9004      	str	r0, [sp, #16]
   21562:	7230      	strb	r0, [r6, #8]
   21564:	360c      	adds	r6, #12
   21566:	2524      	movs	r5, #36	@ 0x24
   21568:	4630      	mov	r0, r6
   2156a:	462a      	mov	r2, r5
   2156c:	f007 ffcf 	bl	2950e <__aeabi_memcpy>
   21570:	ac12      	add	r4, sp, #72	@ 0x48
   21572:	4620      	mov	r0, r4
   21574:	300c      	adds	r0, #12
   21576:	212f      	movs	r1, #47	@ 0x2f
   21578:	9003      	str	r0, [sp, #12]
   2157a:	9102      	str	r1, [sp, #8]
   2157c:	f007 fe1a 	bl	291b4 <__aeabi_memclr4>
   21580:	9804      	ldr	r0, [sp, #16]
   21582:	7220      	strb	r0, [r4, #8]
   21584:	2404      	movs	r4, #4
   21586:	9500      	str	r5, [sp, #0]
   21588:	9401      	str	r4, [sp, #4]
   2158a:	a821      	add	r0, sp, #132	@ 0x84
   2158c:	492e      	ldr	r1, [pc, #184]	@ (21648 <_ZN20complex_full_dynamic3app17h412a7751d152880fE+0xf4>)
   2158e:	2506      	movs	r5, #6
   21590:	462a      	mov	r2, r5
   21592:	4633      	mov	r3, r6
   21594:	f007 fdf6 	bl	29184 <_ZN9allow_pin13dynamic_allow17h33d41317a2da4f1cE>
   21598:	9821      	ldr	r0, [sp, #132]	@ 0x84
   2159a:	2802      	cmp	r0, #2
   2159c:	d102      	bne.n	215a4 <_ZN20complex_full_dynamic3app17h412a7751d152880fE+0x50>
   2159e:	9922      	ldr	r1, [sp, #136]	@ 0x88
   215a0:	4a29      	ldr	r2, [pc, #164]	@ (21648 <_ZN20complex_full_dynamic3app17h412a7751d152880fE+0xf4>)
   215a2:	e004      	b.n	215ae <_ZN20complex_full_dynamic3app17h412a7751d152880fE+0x5a>
   215a4:	a906      	add	r1, sp, #24
   215a6:	720c      	strb	r4, [r1, #8]
   215a8:	9507      	str	r5, [sp, #28]
   215aa:	4a27      	ldr	r2, [pc, #156]	@ (21648 <_ZN20complex_full_dynamic3app17h412a7751d152880fE+0xf4>)
   215ac:	9206      	str	r2, [sp, #24]
   215ae:	2501      	movs	r5, #1
   215b0:	2802      	cmp	r0, #2
   215b2:	d02f      	beq.n	21614 <_ZN20complex_full_dynamic3app17h412a7751d152880fE+0xc0>
   215b4:	a812      	add	r0, sp, #72	@ 0x48
   215b6:	7a00      	ldrb	r0, [r0, #8]
   215b8:	2802      	cmp	r0, #2
   215ba:	d10f      	bne.n	215dc <_ZN20complex_full_dynamic3app17h412a7751d152880fE+0x88>
   215bc:	2603      	movs	r6, #3
   215be:	9802      	ldr	r0, [sp, #8]
   215c0:	9000      	str	r0, [sp, #0]
   215c2:	9601      	str	r6, [sp, #4]
   215c4:	a821      	add	r0, sp, #132	@ 0x84
   215c6:	2409      	movs	r4, #9
   215c8:	4611      	mov	r1, r2
   215ca:	4622      	mov	r2, r4
   215cc:	9b03      	ldr	r3, [sp, #12]
   215ce:	f007 fdd9 	bl	29184 <_ZN9allow_pin13dynamic_allow17h33d41317a2da4f1cE>
   215d2:	9821      	ldr	r0, [sp, #132]	@ 0x84
   215d4:	2802      	cmp	r0, #2
   215d6:	d106      	bne.n	215e6 <_ZN20complex_full_dynamic3app17h412a7751d152880fE+0x92>
   215d8:	9922      	ldr	r1, [sp, #136]	@ 0x88
   215da:	e000      	b.n	215de <_ZN20complex_full_dynamic3app17h412a7751d152880fE+0x8a>
   215dc:	2103      	movs	r1, #3
   215de:	4628      	mov	r0, r5
   215e0:	2800      	cmp	r0, #0
   215e2:	d008      	beq.n	215f6 <_ZN20complex_full_dynamic3app17h412a7751d152880fE+0xa2>
   215e4:	e016      	b.n	21614 <_ZN20complex_full_dynamic3app17h412a7751d152880fE+0xc0>
   215e6:	a812      	add	r0, sp, #72	@ 0x48
   215e8:	7206      	strb	r6, [r0, #8]
   215ea:	9413      	str	r4, [sp, #76]	@ 0x4c
   215ec:	4816      	ldr	r0, [pc, #88]	@ (21648 <_ZN20complex_full_dynamic3app17h412a7751d152880fE+0xf4>)
   215ee:	9012      	str	r0, [sp, #72]	@ 0x48
   215f0:	2000      	movs	r0, #0
   215f2:	2800      	cmp	r0, #0
   215f4:	d10e      	bne.n	21614 <_ZN20complex_full_dynamic3app17h412a7751d152880fE+0xc0>
   215f6:	4814      	ldr	r0, [pc, #80]	@ (21648 <_ZN20complex_full_dynamic3app17h412a7751d152880fE+0xf4>)
   215f8:	2106      	movs	r1, #6
   215fa:	2209      	movs	r2, #9
   215fc:	2400      	movs	r4, #0
   215fe:	4623      	mov	r3, r4
   21600:	df02      	svc	2
   21602:	287f      	cmp	r0, #127	@ 0x7f
   21604:	d906      	bls.n	21614 <_ZN20complex_full_dynamic3app17h412a7751d152880fE+0xc0>
   21606:	a806      	add	r0, sp, #24
   21608:	f007 fda8 	bl	2915c <_ZN9allow_pin12full_dynamic17unshare_if_shared17h9f78cce76fd1eb6dE>
   2160c:	a812      	add	r0, sp, #72	@ 0x48
   2160e:	f007 fda5 	bl	2915c <_ZN9allow_pin12full_dynamic17unshare_if_shared17h9f78cce76fd1eb6dE>
   21612:	4625      	mov	r5, r4
   21614:	2d00      	cmp	r5, #0
   21616:	d003      	beq.n	21620 <_ZN20complex_full_dynamic3app17h412a7751d152880fE+0xcc>
   21618:	9c05      	ldr	r4, [sp, #20]
   2161a:	6061      	str	r1, [r4, #4]
   2161c:	2001      	movs	r0, #1
   2161e:	e009      	b.n	21634 <_ZN20complex_full_dynamic3app17h412a7751d152880fE+0xe0>
   21620:	a812      	add	r0, sp, #72	@ 0x48
   21622:	f007 fd9b 	bl	2915c <_ZN9allow_pin12full_dynamic17unshare_if_shared17h9f78cce76fd1eb6dE>
   21626:	9c05      	ldr	r4, [sp, #20]
   21628:	1c60      	adds	r0, r4, #1
   2162a:	222f      	movs	r2, #47	@ 0x2f
   2162c:	9903      	ldr	r1, [sp, #12]
   2162e:	f007 ff6e 	bl	2950e <__aeabi_memcpy>
   21632:	2000      	movs	r0, #0
   21634:	7020      	strb	r0, [r4, #0]
   21636:	a812      	add	r0, sp, #72	@ 0x48
   21638:	f007 fd90 	bl	2915c <_ZN9allow_pin12full_dynamic17unshare_if_shared17h9f78cce76fd1eb6dE>
   2163c:	a806      	add	r0, sp, #24
   2163e:	f007 fd8d 	bl	2915c <_ZN9allow_pin12full_dynamic17unshare_if_shared17h9f78cce76fd1eb6dE>
   21642:	b025      	add	sp, #148	@ 0x94
   21644:	bdf0      	pop	{r4, r5, r6, r7, pc}
   21646:	46c0      	nop			@ (mov r8, r8)
   21648:	00001273 	.word	0x00001273

0002164c <_ZN20complex_full_dynamic3app17h44ffb9edfc948c48E>:
   2164c:	b5f0      	push	{r4, r5, r6, r7, lr}
   2164e:	af03      	add	r7, sp, #12
   21650:	b0a5      	sub	sp, #148	@ 0x94
   21652:	9005      	str	r0, [sp, #20]
   21654:	ad06      	add	r5, sp, #24
   21656:	2002      	movs	r0, #2
   21658:	9004      	str	r0, [sp, #16]
   2165a:	7228      	strb	r0, [r5, #8]
   2165c:	350c      	adds	r5, #12
   2165e:	2611      	movs	r6, #17
   21660:	4628      	mov	r0, r5
   21662:	4632      	mov	r2, r6
   21664:	f007 ff53 	bl	2950e <__aeabi_memcpy>
   21668:	ac0e      	add	r4, sp, #56	@ 0x38
   2166a:	4620      	mov	r0, r4
   2166c:	300c      	adds	r0, #12
   2166e:	213f      	movs	r1, #63	@ 0x3f
   21670:	9003      	str	r0, [sp, #12]
   21672:	9102      	str	r1, [sp, #8]
   21674:	f007 fd9e 	bl	291b4 <__aeabi_memclr4>
   21678:	9804      	ldr	r0, [sp, #16]
   2167a:	7220      	strb	r0, [r4, #8]
   2167c:	2004      	movs	r0, #4
   2167e:	9600      	str	r6, [sp, #0]
   21680:	9004      	str	r0, [sp, #16]
   21682:	9001      	str	r0, [sp, #4]
   21684:	20cb      	movs	r0, #203	@ 0xcb
   21686:	0104      	lsls	r4, r0, #4
   21688:	a821      	add	r0, sp, #132	@ 0x84
   2168a:	2607      	movs	r6, #7
   2168c:	4621      	mov	r1, r4
   2168e:	4632      	mov	r2, r6
   21690:	462b      	mov	r3, r5
   21692:	f007 fd77 	bl	29184 <_ZN9allow_pin13dynamic_allow17h33d41317a2da4f1cE>
   21696:	9821      	ldr	r0, [sp, #132]	@ 0x84
   21698:	2802      	cmp	r0, #2
   2169a:	d101      	bne.n	216a0 <_ZN20complex_full_dynamic3app17h44ffb9edfc948c48E+0x54>
   2169c:	9922      	ldr	r1, [sp, #136]	@ 0x88
   2169e:	e004      	b.n	216aa <_ZN20complex_full_dynamic3app17h44ffb9edfc948c48E+0x5e>
   216a0:	a906      	add	r1, sp, #24
   216a2:	9a04      	ldr	r2, [sp, #16]
   216a4:	720a      	strb	r2, [r1, #8]
   216a6:	9607      	str	r6, [sp, #28]
   216a8:	9406      	str	r4, [sp, #24]
   216aa:	4623      	mov	r3, r4
   216ac:	2501      	movs	r5, #1
   216ae:	2802      	cmp	r0, #2
   216b0:	d034      	beq.n	2171c <_ZN20complex_full_dynamic3app17h44ffb9edfc948c48E+0xd0>
   216b2:	a80e      	add	r0, sp, #56	@ 0x38
   216b4:	7a00      	ldrb	r0, [r0, #8]
   216b6:	2802      	cmp	r0, #2
   216b8:	d114      	bne.n	216e4 <_ZN20complex_full_dynamic3app17h44ffb9edfc948c48E+0x98>
   216ba:	2603      	movs	r6, #3
   216bc:	9802      	ldr	r0, [sp, #8]
   216be:	9000      	str	r0, [sp, #0]
   216c0:	9601      	str	r6, [sp, #4]
   216c2:	a821      	add	r0, sp, #132	@ 0x84
   216c4:	2404      	movs	r4, #4
   216c6:	4619      	mov	r1, r3
   216c8:	4622      	mov	r2, r4
   216ca:	9304      	str	r3, [sp, #16]
   216cc:	9b03      	ldr	r3, [sp, #12]
   216ce:	f007 fd59 	bl	29184 <_ZN9allow_pin13dynamic_allow17h33d41317a2da4f1cE>
   216d2:	9821      	ldr	r0, [sp, #132]	@ 0x84
   216d4:	2802      	cmp	r0, #2
   216d6:	d10a      	bne.n	216ee <_ZN20complex_full_dynamic3app17h44ffb9edfc948c48E+0xa2>
   216d8:	9922      	ldr	r1, [sp, #136]	@ 0x88
   216da:	4628      	mov	r0, r5
   216dc:	9b04      	ldr	r3, [sp, #16]
   216de:	2800      	cmp	r0, #0
   216e0:	d00d      	beq.n	216fe <_ZN20complex_full_dynamic3app17h44ffb9edfc948c48E+0xb2>
   216e2:	e01b      	b.n	2171c <_ZN20complex_full_dynamic3app17h44ffb9edfc948c48E+0xd0>
   216e4:	2103      	movs	r1, #3
   216e6:	4628      	mov	r0, r5
   216e8:	2800      	cmp	r0, #0
   216ea:	d008      	beq.n	216fe <_ZN20complex_full_dynamic3app17h44ffb9edfc948c48E+0xb2>
   216ec:	e016      	b.n	2171c <_ZN20complex_full_dynamic3app17h44ffb9edfc948c48E+0xd0>
   216ee:	a80e      	add	r0, sp, #56	@ 0x38
   216f0:	7206      	strb	r6, [r0, #8]
   216f2:	940f      	str	r4, [sp, #60]	@ 0x3c
   216f4:	9b04      	ldr	r3, [sp, #16]
   216f6:	930e      	str	r3, [sp, #56]	@ 0x38
   216f8:	2000      	movs	r0, #0
   216fa:	2800      	cmp	r0, #0
   216fc:	d10e      	bne.n	2171c <_ZN20complex_full_dynamic3app17h44ffb9edfc948c48E+0xd0>
   216fe:	2107      	movs	r1, #7
   21700:	2204      	movs	r2, #4
   21702:	2400      	movs	r4, #0
   21704:	4618      	mov	r0, r3
   21706:	4623      	mov	r3, r4
   21708:	df02      	svc	2
   2170a:	287f      	cmp	r0, #127	@ 0x7f
   2170c:	d906      	bls.n	2171c <_ZN20complex_full_dynamic3app17h44ffb9edfc948c48E+0xd0>
   2170e:	a806      	add	r0, sp, #24
   21710:	f007 fd24 	bl	2915c <_ZN9allow_pin12full_dynamic17unshare_if_shared17h9f78cce76fd1eb6dE>
   21714:	a80e      	add	r0, sp, #56	@ 0x38
   21716:	f007 fd21 	bl	2915c <_ZN9allow_pin12full_dynamic17unshare_if_shared17h9f78cce76fd1eb6dE>
   2171a:	4625      	mov	r5, r4
   2171c:	2d00      	cmp	r5, #0
   2171e:	d003      	beq.n	21728 <_ZN20complex_full_dynamic3app17h44ffb9edfc948c48E+0xdc>
   21720:	9c05      	ldr	r4, [sp, #20]
   21722:	6061      	str	r1, [r4, #4]
   21724:	2001      	movs	r0, #1
   21726:	e009      	b.n	2173c <_ZN20complex_full_dynamic3app17h44ffb9edfc948c48E+0xf0>
   21728:	a80e      	add	r0, sp, #56	@ 0x38
   2172a:	f007 fd17 	bl	2915c <_ZN9allow_pin12full_dynamic17unshare_if_shared17h9f78cce76fd1eb6dE>
   2172e:	9c05      	ldr	r4, [sp, #20]
   21730:	1c60      	adds	r0, r4, #1
   21732:	223f      	movs	r2, #63	@ 0x3f
   21734:	9903      	ldr	r1, [sp, #12]
   21736:	f007 feea 	bl	2950e <__aeabi_memcpy>
   2173a:	2000      	movs	r0, #0
   2173c:	7020      	strb	r0, [r4, #0]
   2173e:	a80e      	add	r0, sp, #56	@ 0x38
   21740:	f007 fd0c 	bl	2915c <_ZN9allow_pin12full_dynamic17unshare_if_shared17h9f78cce76fd1eb6dE>
   21744:	a806      	add	r0, sp, #24
   21746:	f007 fd09 	bl	2915c <_ZN9allow_pin12full_dynamic17unshare_if_shared17h9f78cce76fd1eb6dE>
   2174a:	b025      	add	sp, #148	@ 0x94
   2174c:	bdf0      	pop	{r4, r5, r6, r7, pc}
   2174e:	d4d4      	bmi.n	216fa <_ZN20complex_full_dynamic3app17h44ffb9edfc948c48E+0xae>

00021750 <_ZN20complex_full_dynamic3app17h49a50401eac92daeE>:
   21750:	b5f0      	push	{r4, r5, r6, r7, lr}
   21752:	af03      	add	r7, sp, #12
   21754:	b099      	sub	sp, #100	@ 0x64
   21756:	9005      	str	r0, [sp, #20]
   21758:	ae06      	add	r6, sp, #24
   2175a:	2502      	movs	r5, #2
   2175c:	7235      	strb	r5, [r6, #8]
   2175e:	360c      	adds	r6, #12
   21760:	240f      	movs	r4, #15
   21762:	4630      	mov	r0, r6
   21764:	4622      	mov	r2, r4
   21766:	f007 fed2 	bl	2950e <__aeabi_memcpy>
   2176a:	a90d      	add	r1, sp, #52	@ 0x34
   2176c:	2000      	movs	r0, #0
   2176e:	7788      	strb	r0, [r1, #30]
   21770:	8388      	strh	r0, [r1, #28]
   21772:	9104      	str	r1, [sp, #16]
   21774:	720d      	strb	r5, [r1, #8]
   21776:	9013      	str	r0, [sp, #76]	@ 0x4c
   21778:	9012      	str	r0, [sp, #72]	@ 0x48
   2177a:	9011      	str	r0, [sp, #68]	@ 0x44
   2177c:	9003      	str	r0, [sp, #12]
   2177e:	9010      	str	r0, [sp, #64]	@ 0x40
   21780:	2504      	movs	r5, #4
   21782:	9400      	str	r4, [sp, #0]
   21784:	9501      	str	r5, [sp, #4]
   21786:	a815      	add	r0, sp, #84	@ 0x54
   21788:	4931      	ldr	r1, [pc, #196]	@ (21850 <_ZN20complex_full_dynamic3app17h49a50401eac92daeE+0x100>)
   2178a:	2403      	movs	r4, #3
   2178c:	4622      	mov	r2, r4
   2178e:	4633      	mov	r3, r6
   21790:	f007 fcf8 	bl	29184 <_ZN9allow_pin13dynamic_allow17h33d41317a2da4f1cE>
   21794:	9815      	ldr	r0, [sp, #84]	@ 0x54
   21796:	2802      	cmp	r0, #2
   21798:	d102      	bne.n	217a0 <_ZN20complex_full_dynamic3app17h49a50401eac92daeE+0x50>
   2179a:	9916      	ldr	r1, [sp, #88]	@ 0x58
   2179c:	4b2c      	ldr	r3, [pc, #176]	@ (21850 <_ZN20complex_full_dynamic3app17h49a50401eac92daeE+0x100>)
   2179e:	e004      	b.n	217aa <_ZN20complex_full_dynamic3app17h49a50401eac92daeE+0x5a>
   217a0:	a906      	add	r1, sp, #24
   217a2:	720d      	strb	r5, [r1, #8]
   217a4:	9407      	str	r4, [sp, #28]
   217a6:	4b2a      	ldr	r3, [pc, #168]	@ (21850 <_ZN20complex_full_dynamic3app17h49a50401eac92daeE+0x100>)
   217a8:	9306      	str	r3, [sp, #24]
   217aa:	9d04      	ldr	r5, [sp, #16]
   217ac:	350c      	adds	r5, #12
   217ae:	2201      	movs	r2, #1
   217b0:	2802      	cmp	r0, #2
   217b2:	d034      	beq.n	2181e <_ZN20complex_full_dynamic3app17h49a50401eac92daeE+0xce>
   217b4:	a80d      	add	r0, sp, #52	@ 0x34
   217b6:	7a00      	ldrb	r0, [r0, #8]
   217b8:	2802      	cmp	r0, #2
   217ba:	4616      	mov	r6, r2
   217bc:	d111      	bne.n	217e2 <_ZN20complex_full_dynamic3app17h49a50401eac92daeE+0x92>
   217be:	9204      	str	r2, [sp, #16]
   217c0:	2403      	movs	r4, #3
   217c2:	2013      	movs	r0, #19
   217c4:	9000      	str	r0, [sp, #0]
   217c6:	9401      	str	r4, [sp, #4]
   217c8:	a815      	add	r0, sp, #84	@ 0x54
   217ca:	2600      	movs	r6, #0
   217cc:	4619      	mov	r1, r3
   217ce:	4632      	mov	r2, r6
   217d0:	462b      	mov	r3, r5
   217d2:	f007 fcd7 	bl	29184 <_ZN9allow_pin13dynamic_allow17h33d41317a2da4f1cE>
   217d6:	9815      	ldr	r0, [sp, #84]	@ 0x54
   217d8:	2802      	cmp	r0, #2
   217da:	d106      	bne.n	217ea <_ZN20complex_full_dynamic3app17h49a50401eac92daeE+0x9a>
   217dc:	9c16      	ldr	r4, [sp, #88]	@ 0x58
   217de:	9a04      	ldr	r2, [sp, #16]
   217e0:	4616      	mov	r6, r2
   217e2:	2e00      	cmp	r6, #0
   217e4:	d009      	beq.n	217fa <_ZN20complex_full_dynamic3app17h49a50401eac92daeE+0xaa>
   217e6:	4621      	mov	r1, r4
   217e8:	e019      	b.n	2181e <_ZN20complex_full_dynamic3app17h49a50401eac92daeE+0xce>
   217ea:	a80d      	add	r0, sp, #52	@ 0x34
   217ec:	7204      	strb	r4, [r0, #8]
   217ee:	960e      	str	r6, [sp, #56]	@ 0x38
   217f0:	4817      	ldr	r0, [pc, #92]	@ (21850 <_ZN20complex_full_dynamic3app17h49a50401eac92daeE+0x100>)
   217f2:	900d      	str	r0, [sp, #52]	@ 0x34
   217f4:	9a04      	ldr	r2, [sp, #16]
   217f6:	2e00      	cmp	r6, #0
   217f8:	d1f5      	bne.n	217e6 <_ZN20complex_full_dynamic3app17h49a50401eac92daeE+0x96>
   217fa:	4616      	mov	r6, r2
   217fc:	4814      	ldr	r0, [pc, #80]	@ (21850 <_ZN20complex_full_dynamic3app17h49a50401eac92daeE+0x100>)
   217fe:	2103      	movs	r1, #3
   21800:	2400      	movs	r4, #0
   21802:	4622      	mov	r2, r4
   21804:	4623      	mov	r3, r4
   21806:	df02      	svc	2
   21808:	287f      	cmp	r0, #127	@ 0x7f
   2180a:	d801      	bhi.n	21810 <_ZN20complex_full_dynamic3app17h49a50401eac92daeE+0xc0>
   2180c:	4632      	mov	r2, r6
   2180e:	e006      	b.n	2181e <_ZN20complex_full_dynamic3app17h49a50401eac92daeE+0xce>
   21810:	a806      	add	r0, sp, #24
   21812:	f007 fca3 	bl	2915c <_ZN9allow_pin12full_dynamic17unshare_if_shared17h9f78cce76fd1eb6dE>
   21816:	a80d      	add	r0, sp, #52	@ 0x34
   21818:	f007 fca0 	bl	2915c <_ZN9allow_pin12full_dynamic17unshare_if_shared17h9f78cce76fd1eb6dE>
   2181c:	4622      	mov	r2, r4
   2181e:	2a00      	cmp	r2, #0
   21820:	9c05      	ldr	r4, [sp, #20]
   21822:	d002      	beq.n	2182a <_ZN20complex_full_dynamic3app17h49a50401eac92daeE+0xda>
   21824:	6061      	str	r1, [r4, #4]
   21826:	2001      	movs	r0, #1
   21828:	e008      	b.n	2183c <_ZN20complex_full_dynamic3app17h49a50401eac92daeE+0xec>
   2182a:	a80d      	add	r0, sp, #52	@ 0x34
   2182c:	f007 fc96 	bl	2915c <_ZN9allow_pin12full_dynamic17unshare_if_shared17h9f78cce76fd1eb6dE>
   21830:	1c60      	adds	r0, r4, #1
   21832:	2213      	movs	r2, #19
   21834:	4629      	mov	r1, r5
   21836:	f007 fe6a 	bl	2950e <__aeabi_memcpy>
   2183a:	9803      	ldr	r0, [sp, #12]
   2183c:	7020      	strb	r0, [r4, #0]
   2183e:	a80d      	add	r0, sp, #52	@ 0x34
   21840:	f007 fc8c 	bl	2915c <_ZN9allow_pin12full_dynamic17unshare_if_shared17h9f78cce76fd1eb6dE>
   21844:	a806      	add	r0, sp, #24
   21846:	f007 fc89 	bl	2915c <_ZN9allow_pin12full_dynamic17unshare_if_shared17h9f78cce76fd1eb6dE>
   2184a:	b019      	add	sp, #100	@ 0x64
   2184c:	bdf0      	pop	{r4, r5, r6, r7, pc}
   2184e:	46c0      	nop			@ (mov r8, r8)
   21850:	00001e4b 	.word	0x00001e4b

00021854 <_ZN20complex_full_dynamic3app17h49be4da0d7f08a6bE>:
   21854:	b5f0      	push	{r4, r5, r6, r7, lr}
   21856:	af03      	add	r7, sp, #12
   21858:	b0bf      	sub	sp, #252	@ 0xfc
   2185a:	9006      	str	r0, [sp, #24]
   2185c:	ae07      	add	r6, sp, #28
   2185e:	2002      	movs	r0, #2
   21860:	9005      	str	r0, [sp, #20]
   21862:	7230      	strb	r0, [r6, #8]
   21864:	360c      	adds	r6, #12
   21866:	255e      	movs	r5, #94	@ 0x5e
   21868:	4630      	mov	r0, r6
   2186a:	462a      	mov	r2, r5
   2186c:	f007 fe4f 	bl	2950e <__aeabi_memcpy>
   21870:	ac22      	add	r4, sp, #136	@ 0x88
   21872:	4620      	mov	r0, r4
   21874:	300c      	adds	r0, #12
   21876:	2155      	movs	r1, #85	@ 0x55
   21878:	9004      	str	r0, [sp, #16]
   2187a:	9103      	str	r1, [sp, #12]
   2187c:	f007 fc9a 	bl	291b4 <__aeabi_memclr4>
   21880:	9805      	ldr	r0, [sp, #20]
   21882:	7220      	strb	r0, [r4, #8]
   21884:	2404      	movs	r4, #4
   21886:	9500      	str	r5, [sp, #0]
   21888:	9401      	str	r4, [sp, #4]
   2188a:	a83b      	add	r0, sp, #236	@ 0xec
   2188c:	492d      	ldr	r1, [pc, #180]	@ (21944 <_ZN20complex_full_dynamic3app17h49be4da0d7f08a6bE+0xf0>)
   2188e:	2507      	movs	r5, #7
   21890:	462a      	mov	r2, r5
   21892:	4633      	mov	r3, r6
   21894:	f007 fc76 	bl	29184 <_ZN9allow_pin13dynamic_allow17h33d41317a2da4f1cE>
   21898:	983b      	ldr	r0, [sp, #236]	@ 0xec
   2189a:	2802      	cmp	r0, #2
   2189c:	d102      	bne.n	218a4 <_ZN20complex_full_dynamic3app17h49be4da0d7f08a6bE+0x50>
   2189e:	993c      	ldr	r1, [sp, #240]	@ 0xf0
   218a0:	4c28      	ldr	r4, [pc, #160]	@ (21944 <_ZN20complex_full_dynamic3app17h49be4da0d7f08a6bE+0xf0>)
   218a2:	e004      	b.n	218ae <_ZN20complex_full_dynamic3app17h49be4da0d7f08a6bE+0x5a>
   218a4:	a907      	add	r1, sp, #28
   218a6:	720c      	strb	r4, [r1, #8]
   218a8:	9508      	str	r5, [sp, #32]
   218aa:	4c26      	ldr	r4, [pc, #152]	@ (21944 <_ZN20complex_full_dynamic3app17h49be4da0d7f08a6bE+0xf0>)
   218ac:	9407      	str	r4, [sp, #28]
   218ae:	2601      	movs	r6, #1
   218b0:	2802      	cmp	r0, #2
   218b2:	d02d      	beq.n	21910 <_ZN20complex_full_dynamic3app17h49be4da0d7f08a6bE+0xbc>
   218b4:	a822      	add	r0, sp, #136	@ 0x88
   218b6:	7a00      	ldrb	r0, [r0, #8]
   218b8:	2802      	cmp	r0, #2
   218ba:	d10e      	bne.n	218da <_ZN20complex_full_dynamic3app17h49be4da0d7f08a6bE+0x86>
   218bc:	2503      	movs	r5, #3
   218be:	9803      	ldr	r0, [sp, #12]
   218c0:	9000      	str	r0, [sp, #0]
   218c2:	9501      	str	r5, [sp, #4]
   218c4:	a83b      	add	r0, sp, #236	@ 0xec
   218c6:	4621      	mov	r1, r4
   218c8:	462a      	mov	r2, r5
   218ca:	9b04      	ldr	r3, [sp, #16]
   218cc:	f007 fc5a 	bl	29184 <_ZN9allow_pin13dynamic_allow17h33d41317a2da4f1cE>
   218d0:	983b      	ldr	r0, [sp, #236]	@ 0xec
   218d2:	2802      	cmp	r0, #2
   218d4:	d106      	bne.n	218e4 <_ZN20complex_full_dynamic3app17h49be4da0d7f08a6bE+0x90>
   218d6:	993c      	ldr	r1, [sp, #240]	@ 0xf0
   218d8:	e000      	b.n	218dc <_ZN20complex_full_dynamic3app17h49be4da0d7f08a6bE+0x88>
   218da:	2103      	movs	r1, #3
   218dc:	4630      	mov	r0, r6
   218de:	2800      	cmp	r0, #0
   218e0:	d007      	beq.n	218f2 <_ZN20complex_full_dynamic3app17h49be4da0d7f08a6bE+0x9e>
   218e2:	e015      	b.n	21910 <_ZN20complex_full_dynamic3app17h49be4da0d7f08a6bE+0xbc>
   218e4:	a822      	add	r0, sp, #136	@ 0x88
   218e6:	7205      	strb	r5, [r0, #8]
   218e8:	9523      	str	r5, [sp, #140]	@ 0x8c
   218ea:	9422      	str	r4, [sp, #136]	@ 0x88
   218ec:	2000      	movs	r0, #0
   218ee:	2800      	cmp	r0, #0
   218f0:	d10e      	bne.n	21910 <_ZN20complex_full_dynamic3app17h49be4da0d7f08a6bE+0xbc>
   218f2:	4814      	ldr	r0, [pc, #80]	@ (21944 <_ZN20complex_full_dynamic3app17h49be4da0d7f08a6bE+0xf0>)
   218f4:	2107      	movs	r1, #7
   218f6:	2203      	movs	r2, #3
   218f8:	2400      	movs	r4, #0
   218fa:	4623      	mov	r3, r4
   218fc:	df02      	svc	2
   218fe:	287f      	cmp	r0, #127	@ 0x7f
   21900:	d906      	bls.n	21910 <_ZN20complex_full_dynamic3app17h49be4da0d7f08a6bE+0xbc>
   21902:	a807      	add	r0, sp, #28
   21904:	f007 fc2a 	bl	2915c <_ZN9allow_pin12full_dynamic17unshare_if_shared17h9f78cce76fd1eb6dE>
   21908:	a822      	add	r0, sp, #136	@ 0x88
   2190a:	f007 fc27 	bl	2915c <_ZN9allow_pin12full_dynamic17unshare_if_shared17h9f78cce76fd1eb6dE>
   2190e:	4626      	mov	r6, r4
   21910:	2e00      	cmp	r6, #0
   21912:	d003      	beq.n	2191c <_ZN20complex_full_dynamic3app17h49be4da0d7f08a6bE+0xc8>
   21914:	9c06      	ldr	r4, [sp, #24]
   21916:	6061      	str	r1, [r4, #4]
   21918:	2001      	movs	r0, #1
   2191a:	e009      	b.n	21930 <_ZN20complex_full_dynamic3app17h49be4da0d7f08a6bE+0xdc>
   2191c:	a822      	add	r0, sp, #136	@ 0x88
   2191e:	f007 fc1d 	bl	2915c <_ZN9allow_pin12full_dynamic17unshare_if_shared17h9f78cce76fd1eb6dE>
   21922:	9c06      	ldr	r4, [sp, #24]
   21924:	1c60      	adds	r0, r4, #1
   21926:	2255      	movs	r2, #85	@ 0x55
   21928:	9904      	ldr	r1, [sp, #16]
   2192a:	f007 fdf0 	bl	2950e <__aeabi_memcpy>
   2192e:	2000      	movs	r0, #0
   21930:	7020      	strb	r0, [r4, #0]
   21932:	a822      	add	r0, sp, #136	@ 0x88
   21934:	f007 fc12 	bl	2915c <_ZN9allow_pin12full_dynamic17unshare_if_shared17h9f78cce76fd1eb6dE>
   21938:	a807      	add	r0, sp, #28
   2193a:	f007 fc0f 	bl	2915c <_ZN9allow_pin12full_dynamic17unshare_if_shared17h9f78cce76fd1eb6dE>
   2193e:	b03f      	add	sp, #252	@ 0xfc
   21940:	bdf0      	pop	{r4, r5, r6, r7, pc}
   21942:	46c0      	nop			@ (mov r8, r8)
   21944:	0000178a 	.word	0x0000178a

00021948 <_ZN20complex_full_dynamic3app17h4d0db711e9d79fddE>:
   21948:	b5f0      	push	{r4, r5, r6, r7, lr}
   2194a:	af03      	add	r7, sp, #12
   2194c:	b0ad      	sub	sp, #180	@ 0xb4
   2194e:	9005      	str	r0, [sp, #20]
   21950:	ad06      	add	r5, sp, #24
   21952:	2402      	movs	r4, #2
   21954:	722c      	strb	r4, [r5, #8]
   21956:	350c      	adds	r5, #12
   21958:	221e      	movs	r2, #30
   2195a:	9204      	str	r2, [sp, #16]
   2195c:	4628      	mov	r0, r5
   2195e:	f007 fdd6 	bl	2950e <__aeabi_memcpy>
   21962:	ae11      	add	r6, sp, #68	@ 0x44
   21964:	4630      	mov	r0, r6
   21966:	300c      	adds	r0, #12
   21968:	2151      	movs	r1, #81	@ 0x51
   2196a:	9003      	str	r0, [sp, #12]
   2196c:	9102      	str	r1, [sp, #8]
   2196e:	f007 fc21 	bl	291b4 <__aeabi_memclr4>
   21972:	7234      	strb	r4, [r6, #8]
   21974:	4626      	mov	r6, r4
   21976:	2004      	movs	r0, #4
   21978:	9904      	ldr	r1, [sp, #16]
   2197a:	9100      	str	r1, [sp, #0]
   2197c:	9004      	str	r0, [sp, #16]
   2197e:	9001      	str	r0, [sp, #4]
   21980:	a829      	add	r0, sp, #164	@ 0xa4
   21982:	4c2d      	ldr	r4, [pc, #180]	@ (21a38 <_ZN20complex_full_dynamic3app17h4d0db711e9d79fddE+0xf0>)
   21984:	4621      	mov	r1, r4
   21986:	4632      	mov	r2, r6
   21988:	462b      	mov	r3, r5
   2198a:	f007 fbfb 	bl	29184 <_ZN9allow_pin13dynamic_allow17h33d41317a2da4f1cE>
   2198e:	9829      	ldr	r0, [sp, #164]	@ 0xa4
   21990:	2802      	cmp	r0, #2
   21992:	d101      	bne.n	21998 <_ZN20complex_full_dynamic3app17h4d0db711e9d79fddE+0x50>
   21994:	992a      	ldr	r1, [sp, #168]	@ 0xa8
   21996:	e004      	b.n	219a2 <_ZN20complex_full_dynamic3app17h4d0db711e9d79fddE+0x5a>
   21998:	a906      	add	r1, sp, #24
   2199a:	9a04      	ldr	r2, [sp, #16]
   2199c:	720a      	strb	r2, [r1, #8]
   2199e:	9607      	str	r6, [sp, #28]
   219a0:	9406      	str	r4, [sp, #24]
   219a2:	2501      	movs	r5, #1
   219a4:	2802      	cmp	r0, #2
   219a6:	d02e      	beq.n	21a06 <_ZN20complex_full_dynamic3app17h4d0db711e9d79fddE+0xbe>
   219a8:	a811      	add	r0, sp, #68	@ 0x44
   219aa:	7a00      	ldrb	r0, [r0, #8]
   219ac:	2802      	cmp	r0, #2
   219ae:	d10f      	bne.n	219d0 <_ZN20complex_full_dynamic3app17h4d0db711e9d79fddE+0x88>
   219b0:	2603      	movs	r6, #3
   219b2:	9802      	ldr	r0, [sp, #8]
   219b4:	9000      	str	r0, [sp, #0]
   219b6:	9601      	str	r6, [sp, #4]
   219b8:	a829      	add	r0, sp, #164	@ 0xa4
   219ba:	4621      	mov	r1, r4
   219bc:	2400      	movs	r4, #0
   219be:	4622      	mov	r2, r4
   219c0:	9b03      	ldr	r3, [sp, #12]
   219c2:	f007 fbdf 	bl	29184 <_ZN9allow_pin13dynamic_allow17h33d41317a2da4f1cE>
   219c6:	9829      	ldr	r0, [sp, #164]	@ 0xa4
   219c8:	2802      	cmp	r0, #2
   219ca:	d106      	bne.n	219da <_ZN20complex_full_dynamic3app17h4d0db711e9d79fddE+0x92>
   219cc:	992a      	ldr	r1, [sp, #168]	@ 0xa8
   219ce:	e000      	b.n	219d2 <_ZN20complex_full_dynamic3app17h4d0db711e9d79fddE+0x8a>
   219d0:	2103      	movs	r1, #3
   219d2:	462c      	mov	r4, r5
   219d4:	2c00      	cmp	r4, #0
   219d6:	d007      	beq.n	219e8 <_ZN20complex_full_dynamic3app17h4d0db711e9d79fddE+0xa0>
   219d8:	e015      	b.n	21a06 <_ZN20complex_full_dynamic3app17h4d0db711e9d79fddE+0xbe>
   219da:	a811      	add	r0, sp, #68	@ 0x44
   219dc:	7206      	strb	r6, [r0, #8]
   219de:	9412      	str	r4, [sp, #72]	@ 0x48
   219e0:	4815      	ldr	r0, [pc, #84]	@ (21a38 <_ZN20complex_full_dynamic3app17h4d0db711e9d79fddE+0xf0>)
   219e2:	9011      	str	r0, [sp, #68]	@ 0x44
   219e4:	2c00      	cmp	r4, #0
   219e6:	d10e      	bne.n	21a06 <_ZN20complex_full_dynamic3app17h4d0db711e9d79fddE+0xbe>
   219e8:	4813      	ldr	r0, [pc, #76]	@ (21a38 <_ZN20complex_full_dynamic3app17h4d0db711e9d79fddE+0xf0>)
   219ea:	2102      	movs	r1, #2
   219ec:	2400      	movs	r4, #0
   219ee:	4622      	mov	r2, r4
   219f0:	4623      	mov	r3, r4
   219f2:	df02      	svc	2
   219f4:	287f      	cmp	r0, #127	@ 0x7f
   219f6:	d906      	bls.n	21a06 <_ZN20complex_full_dynamic3app17h4d0db711e9d79fddE+0xbe>
   219f8:	a806      	add	r0, sp, #24
   219fa:	f007 fbaf 	bl	2915c <_ZN9allow_pin12full_dynamic17unshare_if_shared17h9f78cce76fd1eb6dE>
   219fe:	a811      	add	r0, sp, #68	@ 0x44
   21a00:	f007 fbac 	bl	2915c <_ZN9allow_pin12full_dynamic17unshare_if_shared17h9f78cce76fd1eb6dE>
   21a04:	4625      	mov	r5, r4
   21a06:	2d00      	cmp	r5, #0
   21a08:	d003      	beq.n	21a12 <_ZN20complex_full_dynamic3app17h4d0db711e9d79fddE+0xca>
   21a0a:	9c05      	ldr	r4, [sp, #20]
   21a0c:	6061      	str	r1, [r4, #4]
   21a0e:	2001      	movs	r0, #1
   21a10:	e009      	b.n	21a26 <_ZN20complex_full_dynamic3app17h4d0db711e9d79fddE+0xde>
   21a12:	a811      	add	r0, sp, #68	@ 0x44
   21a14:	f007 fba2 	bl	2915c <_ZN9allow_pin12full_dynamic17unshare_if_shared17h9f78cce76fd1eb6dE>
   21a18:	9c05      	ldr	r4, [sp, #20]
   21a1a:	1c60      	adds	r0, r4, #1
   21a1c:	2251      	movs	r2, #81	@ 0x51
   21a1e:	9903      	ldr	r1, [sp, #12]
   21a20:	f007 fd75 	bl	2950e <__aeabi_memcpy>
   21a24:	2000      	movs	r0, #0
   21a26:	7020      	strb	r0, [r4, #0]
   21a28:	a811      	add	r0, sp, #68	@ 0x44
   21a2a:	f007 fb97 	bl	2915c <_ZN9allow_pin12full_dynamic17unshare_if_shared17h9f78cce76fd1eb6dE>
   21a2e:	a806      	add	r0, sp, #24
   21a30:	f007 fb94 	bl	2915c <_ZN9allow_pin12full_dynamic17unshare_if_shared17h9f78cce76fd1eb6dE>
   21a34:	b02d      	add	sp, #180	@ 0xb4
   21a36:	bdf0      	pop	{r4, r5, r6, r7, pc}
   21a38:	0000196b 	.word	0x0000196b

00021a3c <_ZN20complex_full_dynamic3app17h4e6f6664b7f7d6cbE>:
   21a3c:	b5f0      	push	{r4, r5, r6, r7, lr}
   21a3e:	af03      	add	r7, sp, #12
   21a40:	b0a5      	sub	sp, #148	@ 0x94
   21a42:	9006      	str	r0, [sp, #24]
   21a44:	ac07      	add	r4, sp, #28
   21a46:	2002      	movs	r0, #2
   21a48:	9005      	str	r0, [sp, #20]
   21a4a:	7220      	strb	r0, [r4, #8]
   21a4c:	340c      	adds	r4, #12
   21a4e:	2518      	movs	r5, #24
   21a50:	4620      	mov	r0, r4
   21a52:	462a      	mov	r2, r5
   21a54:	f007 fd5b 	bl	2950e <__aeabi_memcpy>
   21a58:	ae10      	add	r6, sp, #64	@ 0x40
   21a5a:	4630      	mov	r0, r6
   21a5c:	300c      	adds	r0, #12
   21a5e:	2136      	movs	r1, #54	@ 0x36
   21a60:	9004      	str	r0, [sp, #16]
   21a62:	9103      	str	r1, [sp, #12]
   21a64:	f007 fba6 	bl	291b4 <__aeabi_memclr4>
   21a68:	9805      	ldr	r0, [sp, #20]
   21a6a:	7230      	strb	r0, [r6, #8]
   21a6c:	2004      	movs	r0, #4
   21a6e:	9500      	str	r5, [sp, #0]
   21a70:	9005      	str	r0, [sp, #20]
   21a72:	9001      	str	r0, [sp, #4]
   21a74:	a821      	add	r0, sp, #132	@ 0x84
   21a76:	25f3      	movs	r5, #243	@ 0xf3
   21a78:	2608      	movs	r6, #8
   21a7a:	4629      	mov	r1, r5
   21a7c:	4632      	mov	r2, r6
   21a7e:	4623      	mov	r3, r4
   21a80:	f007 fb80 	bl	29184 <_ZN9allow_pin13dynamic_allow17h33d41317a2da4f1cE>
   21a84:	9821      	ldr	r0, [sp, #132]	@ 0x84
   21a86:	2802      	cmp	r0, #2
   21a88:	d101      	bne.n	21a8e <_ZN20complex_full_dynamic3app17h4e6f6664b7f7d6cbE+0x52>
   21a8a:	9922      	ldr	r1, [sp, #136]	@ 0x88
   21a8c:	e004      	b.n	21a98 <_ZN20complex_full_dynamic3app17h4e6f6664b7f7d6cbE+0x5c>
   21a8e:	a907      	add	r1, sp, #28
   21a90:	9a05      	ldr	r2, [sp, #20]
   21a92:	720a      	strb	r2, [r1, #8]
   21a94:	9608      	str	r6, [sp, #32]
   21a96:	9507      	str	r5, [sp, #28]
   21a98:	2601      	movs	r6, #1
   21a9a:	2802      	cmp	r0, #2
   21a9c:	d02f      	beq.n	21afe <_ZN20complex_full_dynamic3app17h4e6f6664b7f7d6cbE+0xc2>
   21a9e:	a810      	add	r0, sp, #64	@ 0x40
   21aa0:	7a00      	ldrb	r0, [r0, #8]
   21aa2:	2103      	movs	r1, #3
   21aa4:	2802      	cmp	r0, #2
   21aa6:	d10f      	bne.n	21ac8 <_ZN20complex_full_dynamic3app17h4e6f6664b7f7d6cbE+0x8c>
   21aa8:	9803      	ldr	r0, [sp, #12]
   21aaa:	9000      	str	r0, [sp, #0]
   21aac:	9105      	str	r1, [sp, #20]
   21aae:	9101      	str	r1, [sp, #4]
   21ab0:	a821      	add	r0, sp, #132	@ 0x84
   21ab2:	24f3      	movs	r4, #243	@ 0xf3
   21ab4:	2504      	movs	r5, #4
   21ab6:	4621      	mov	r1, r4
   21ab8:	462a      	mov	r2, r5
   21aba:	9b04      	ldr	r3, [sp, #16]
   21abc:	f007 fb62 	bl	29184 <_ZN9allow_pin13dynamic_allow17h33d41317a2da4f1cE>
   21ac0:	9821      	ldr	r0, [sp, #132]	@ 0x84
   21ac2:	2802      	cmp	r0, #2
   21ac4:	d104      	bne.n	21ad0 <_ZN20complex_full_dynamic3app17h4e6f6664b7f7d6cbE+0x94>
   21ac6:	9922      	ldr	r1, [sp, #136]	@ 0x88
   21ac8:	4630      	mov	r0, r6
   21aca:	2800      	cmp	r0, #0
   21acc:	d008      	beq.n	21ae0 <_ZN20complex_full_dynamic3app17h4e6f6664b7f7d6cbE+0xa4>
   21ace:	e016      	b.n	21afe <_ZN20complex_full_dynamic3app17h4e6f6664b7f7d6cbE+0xc2>
   21ad0:	a810      	add	r0, sp, #64	@ 0x40
   21ad2:	9905      	ldr	r1, [sp, #20]
   21ad4:	7201      	strb	r1, [r0, #8]
   21ad6:	9511      	str	r5, [sp, #68]	@ 0x44
   21ad8:	9410      	str	r4, [sp, #64]	@ 0x40
   21ada:	2000      	movs	r0, #0
   21adc:	2800      	cmp	r0, #0
   21ade:	d10e      	bne.n	21afe <_ZN20complex_full_dynamic3app17h4e6f6664b7f7d6cbE+0xc2>
   21ae0:	20f3      	movs	r0, #243	@ 0xf3
   21ae2:	2108      	movs	r1, #8
   21ae4:	2204      	movs	r2, #4
   21ae6:	2400      	movs	r4, #0
   21ae8:	4623      	mov	r3, r4
   21aea:	df02      	svc	2
   21aec:	287f      	cmp	r0, #127	@ 0x7f
   21aee:	d906      	bls.n	21afe <_ZN20complex_full_dynamic3app17h4e6f6664b7f7d6cbE+0xc2>
   21af0:	a807      	add	r0, sp, #28
   21af2:	f007 fb33 	bl	2915c <_ZN9allow_pin12full_dynamic17unshare_if_shared17h9f78cce76fd1eb6dE>
   21af6:	a810      	add	r0, sp, #64	@ 0x40
   21af8:	f007 fb30 	bl	2915c <_ZN9allow_pin12full_dynamic17unshare_if_shared17h9f78cce76fd1eb6dE>
   21afc:	4626      	mov	r6, r4
   21afe:	2e00      	cmp	r6, #0
   21b00:	d003      	beq.n	21b0a <_ZN20complex_full_dynamic3app17h4e6f6664b7f7d6cbE+0xce>
   21b02:	9c06      	ldr	r4, [sp, #24]
   21b04:	6061      	str	r1, [r4, #4]
   21b06:	2001      	movs	r0, #1
   21b08:	e009      	b.n	21b1e <_ZN20complex_full_dynamic3app17h4e6f6664b7f7d6cbE+0xe2>
   21b0a:	a810      	add	r0, sp, #64	@ 0x40
   21b0c:	f007 fb26 	bl	2915c <_ZN9allow_pin12full_dynamic17unshare_if_shared17h9f78cce76fd1eb6dE>
   21b10:	9c06      	ldr	r4, [sp, #24]
   21b12:	1c60      	adds	r0, r4, #1
   21b14:	2236      	movs	r2, #54	@ 0x36
   21b16:	9904      	ldr	r1, [sp, #16]
   21b18:	f007 fcf9 	bl	2950e <__aeabi_memcpy>
   21b1c:	2000      	movs	r0, #0
   21b1e:	7020      	strb	r0, [r4, #0]
   21b20:	a810      	add	r0, sp, #64	@ 0x40
   21b22:	f007 fb1b 	bl	2915c <_ZN9allow_pin12full_dynamic17unshare_if_shared17h9f78cce76fd1eb6dE>
   21b26:	a807      	add	r0, sp, #28
   21b28:	f007 fb18 	bl	2915c <_ZN9allow_pin12full_dynamic17unshare_if_shared17h9f78cce76fd1eb6dE>
   21b2c:	b025      	add	sp, #148	@ 0x94
   21b2e:	bdf0      	pop	{r4, r5, r6, r7, pc}

00021b30 <_ZN20complex_full_dynamic3app17h4f1381ced6575abeE>:
   21b30:	b5f0      	push	{r4, r5, r6, r7, lr}
   21b32:	af03      	add	r7, sp, #12
   21b34:	b0b3      	sub	sp, #204	@ 0xcc
   21b36:	9005      	str	r0, [sp, #20]
   21b38:	ae06      	add	r6, sp, #24
   21b3a:	2002      	movs	r0, #2
   21b3c:	9004      	str	r0, [sp, #16]
   21b3e:	7230      	strb	r0, [r6, #8]
   21b40:	360c      	adds	r6, #12
   21b42:	254d      	movs	r5, #77	@ 0x4d
   21b44:	4630      	mov	r0, r6
   21b46:	462a      	mov	r2, r5
   21b48:	f007 fce1 	bl	2950e <__aeabi_memcpy>
   21b4c:	ac1d      	add	r4, sp, #116	@ 0x74
   21b4e:	4620      	mov	r0, r4
   21b50:	300c      	adds	r0, #12
   21b52:	213c      	movs	r1, #60	@ 0x3c
   21b54:	9003      	str	r0, [sp, #12]
   21b56:	9102      	str	r1, [sp, #8]
   21b58:	f007 fb2c 	bl	291b4 <__aeabi_memclr4>
   21b5c:	9804      	ldr	r0, [sp, #16]
   21b5e:	7220      	strb	r0, [r4, #8]
   21b60:	2404      	movs	r4, #4
   21b62:	9500      	str	r5, [sp, #0]
   21b64:	9401      	str	r4, [sp, #4]
   21b66:	a82f      	add	r0, sp, #188	@ 0xbc
   21b68:	4d2d      	ldr	r5, [pc, #180]	@ (21c20 <_ZN20complex_full_dynamic3app17h4f1381ced6575abeE+0xf0>)
   21b6a:	4629      	mov	r1, r5
   21b6c:	4622      	mov	r2, r4
   21b6e:	4633      	mov	r3, r6
   21b70:	f007 fb08 	bl	29184 <_ZN9allow_pin13dynamic_allow17h33d41317a2da4f1cE>
   21b74:	982f      	ldr	r0, [sp, #188]	@ 0xbc
   21b76:	2802      	cmp	r0, #2
   21b78:	d102      	bne.n	21b80 <_ZN20complex_full_dynamic3app17h4f1381ced6575abeE+0x50>
   21b7a:	462e      	mov	r6, r5
   21b7c:	9930      	ldr	r1, [sp, #192]	@ 0xc0
   21b7e:	e004      	b.n	21b8a <_ZN20complex_full_dynamic3app17h4f1381ced6575abeE+0x5a>
   21b80:	a906      	add	r1, sp, #24
   21b82:	720c      	strb	r4, [r1, #8]
   21b84:	9407      	str	r4, [sp, #28]
   21b86:	462e      	mov	r6, r5
   21b88:	9506      	str	r5, [sp, #24]
   21b8a:	2501      	movs	r5, #1
   21b8c:	2802      	cmp	r0, #2
   21b8e:	d02e      	beq.n	21bee <_ZN20complex_full_dynamic3app17h4f1381ced6575abeE+0xbe>
   21b90:	a81d      	add	r0, sp, #116	@ 0x74
   21b92:	7a00      	ldrb	r0, [r0, #8]
   21b94:	2103      	movs	r1, #3
   21b96:	2802      	cmp	r0, #2
   21b98:	d10e      	bne.n	21bb8 <_ZN20complex_full_dynamic3app17h4f1381ced6575abeE+0x88>
   21b9a:	9802      	ldr	r0, [sp, #8]
   21b9c:	9000      	str	r0, [sp, #0]
   21b9e:	9104      	str	r1, [sp, #16]
   21ba0:	9101      	str	r1, [sp, #4]
   21ba2:	a82f      	add	r0, sp, #188	@ 0xbc
   21ba4:	2409      	movs	r4, #9
   21ba6:	4631      	mov	r1, r6
   21ba8:	4622      	mov	r2, r4
   21baa:	9b03      	ldr	r3, [sp, #12]
   21bac:	f007 faea 	bl	29184 <_ZN9allow_pin13dynamic_allow17h33d41317a2da4f1cE>
   21bb0:	982f      	ldr	r0, [sp, #188]	@ 0xbc
   21bb2:	2802      	cmp	r0, #2
   21bb4:	d104      	bne.n	21bc0 <_ZN20complex_full_dynamic3app17h4f1381ced6575abeE+0x90>
   21bb6:	9930      	ldr	r1, [sp, #192]	@ 0xc0
   21bb8:	4628      	mov	r0, r5
   21bba:	2800      	cmp	r0, #0
   21bbc:	d008      	beq.n	21bd0 <_ZN20complex_full_dynamic3app17h4f1381ced6575abeE+0xa0>
   21bbe:	e016      	b.n	21bee <_ZN20complex_full_dynamic3app17h4f1381ced6575abeE+0xbe>
   21bc0:	a81d      	add	r0, sp, #116	@ 0x74
   21bc2:	9904      	ldr	r1, [sp, #16]
   21bc4:	7201      	strb	r1, [r0, #8]
   21bc6:	941e      	str	r4, [sp, #120]	@ 0x78
   21bc8:	961d      	str	r6, [sp, #116]	@ 0x74
   21bca:	2000      	movs	r0, #0
   21bcc:	2800      	cmp	r0, #0
   21bce:	d10e      	bne.n	21bee <_ZN20complex_full_dynamic3app17h4f1381ced6575abeE+0xbe>
   21bd0:	4813      	ldr	r0, [pc, #76]	@ (21c20 <_ZN20complex_full_dynamic3app17h4f1381ced6575abeE+0xf0>)
   21bd2:	2104      	movs	r1, #4
   21bd4:	2209      	movs	r2, #9
   21bd6:	2400      	movs	r4, #0
   21bd8:	4623      	mov	r3, r4
   21bda:	df02      	svc	2
   21bdc:	287f      	cmp	r0, #127	@ 0x7f
   21bde:	d906      	bls.n	21bee <_ZN20complex_full_dynamic3app17h4f1381ced6575abeE+0xbe>
   21be0:	a806      	add	r0, sp, #24
   21be2:	f007 fabb 	bl	2915c <_ZN9allow_pin12full_dynamic17unshare_if_shared17h9f78cce76fd1eb6dE>
   21be6:	a81d      	add	r0, sp, #116	@ 0x74
   21be8:	f007 fab8 	bl	2915c <_ZN9allow_pin12full_dynamic17unshare_if_shared17h9f78cce76fd1eb6dE>
   21bec:	4625      	mov	r5, r4
   21bee:	2d00      	cmp	r5, #0
   21bf0:	d003      	beq.n	21bfa <_ZN20complex_full_dynamic3app17h4f1381ced6575abeE+0xca>
   21bf2:	9c05      	ldr	r4, [sp, #20]
   21bf4:	6061      	str	r1, [r4, #4]
   21bf6:	2001      	movs	r0, #1
   21bf8:	e009      	b.n	21c0e <_ZN20complex_full_dynamic3app17h4f1381ced6575abeE+0xde>
   21bfa:	a81d      	add	r0, sp, #116	@ 0x74
   21bfc:	f007 faae 	bl	2915c <_ZN9allow_pin12full_dynamic17unshare_if_shared17h9f78cce76fd1eb6dE>
   21c00:	9c05      	ldr	r4, [sp, #20]
   21c02:	1c60      	adds	r0, r4, #1
   21c04:	223c      	movs	r2, #60	@ 0x3c
   21c06:	9903      	ldr	r1, [sp, #12]
   21c08:	f007 fc81 	bl	2950e <__aeabi_memcpy>
   21c0c:	2000      	movs	r0, #0
   21c0e:	7020      	strb	r0, [r4, #0]
   21c10:	a81d      	add	r0, sp, #116	@ 0x74
   21c12:	f007 faa3 	bl	2915c <_ZN9allow_pin12full_dynamic17unshare_if_shared17h9f78cce76fd1eb6dE>
   21c16:	a806      	add	r0, sp, #24
   21c18:	f007 faa0 	bl	2915c <_ZN9allow_pin12full_dynamic17unshare_if_shared17h9f78cce76fd1eb6dE>
   21c1c:	b033      	add	sp, #204	@ 0xcc
   21c1e:	bdf0      	pop	{r4, r5, r6, r7, pc}
   21c20:	000021ab 	.word	0x000021ab

00021c24 <_ZN20complex_full_dynamic3app17h50f6376a467a7458E>:
   21c24:	b5f0      	push	{r4, r5, r6, r7, lr}
   21c26:	af03      	add	r7, sp, #12
   21c28:	b0a7      	sub	sp, #156	@ 0x9c
   21c2a:	9005      	str	r0, [sp, #20]
   21c2c:	ad06      	add	r5, sp, #24
   21c2e:	2402      	movs	r4, #2
   21c30:	722c      	strb	r4, [r5, #8]
   21c32:	350c      	adds	r5, #12
   21c34:	221e      	movs	r2, #30
   21c36:	9204      	str	r2, [sp, #16]
   21c38:	4628      	mov	r0, r5
   21c3a:	f007 fc68 	bl	2950e <__aeabi_memcpy>
   21c3e:	ae11      	add	r6, sp, #68	@ 0x44
   21c40:	4630      	mov	r0, r6
   21c42:	300c      	adds	r0, #12
   21c44:	213c      	movs	r1, #60	@ 0x3c
   21c46:	9003      	str	r0, [sp, #12]
   21c48:	9102      	str	r1, [sp, #8]
   21c4a:	f007 fab3 	bl	291b4 <__aeabi_memclr4>
   21c4e:	7234      	strb	r4, [r6, #8]
   21c50:	2004      	movs	r0, #4
   21c52:	9904      	ldr	r1, [sp, #16]
   21c54:	9100      	str	r1, [sp, #0]
   21c56:	9004      	str	r0, [sp, #16]
   21c58:	9001      	str	r0, [sp, #4]
   21c5a:	a823      	add	r0, sp, #140	@ 0x8c
   21c5c:	4e2c      	ldr	r6, [pc, #176]	@ (21d10 <_ZN20complex_full_dynamic3app17h50f6376a467a7458E+0xec>)
   21c5e:	4631      	mov	r1, r6
   21c60:	4622      	mov	r2, r4
   21c62:	462b      	mov	r3, r5
   21c64:	f007 fa8e 	bl	29184 <_ZN9allow_pin13dynamic_allow17h33d41317a2da4f1cE>
   21c68:	9823      	ldr	r0, [sp, #140]	@ 0x8c
   21c6a:	2802      	cmp	r0, #2
   21c6c:	d101      	bne.n	21c72 <_ZN20complex_full_dynamic3app17h50f6376a467a7458E+0x4e>
   21c6e:	9924      	ldr	r1, [sp, #144]	@ 0x90
   21c70:	e004      	b.n	21c7c <_ZN20complex_full_dynamic3app17h50f6376a467a7458E+0x58>
   21c72:	a906      	add	r1, sp, #24
   21c74:	9a04      	ldr	r2, [sp, #16]
   21c76:	720a      	strb	r2, [r1, #8]
   21c78:	9407      	str	r4, [sp, #28]
   21c7a:	9606      	str	r6, [sp, #24]
   21c7c:	2501      	movs	r5, #1
   21c7e:	2802      	cmp	r0, #2
   21c80:	d02d      	beq.n	21cde <_ZN20complex_full_dynamic3app17h50f6376a467a7458E+0xba>
   21c82:	a811      	add	r0, sp, #68	@ 0x44
   21c84:	7a00      	ldrb	r0, [r0, #8]
   21c86:	2802      	cmp	r0, #2
   21c88:	d10e      	bne.n	21ca8 <_ZN20complex_full_dynamic3app17h50f6376a467a7458E+0x84>
   21c8a:	2403      	movs	r4, #3
   21c8c:	9802      	ldr	r0, [sp, #8]
   21c8e:	9000      	str	r0, [sp, #0]
   21c90:	9401      	str	r4, [sp, #4]
   21c92:	a823      	add	r0, sp, #140	@ 0x8c
   21c94:	4631      	mov	r1, r6
   21c96:	4622      	mov	r2, r4
   21c98:	9b03      	ldr	r3, [sp, #12]
   21c9a:	f007 fa73 	bl	29184 <_ZN9allow_pin13dynamic_allow17h33d41317a2da4f1cE>
   21c9e:	9823      	ldr	r0, [sp, #140]	@ 0x8c
   21ca0:	2802      	cmp	r0, #2
   21ca2:	d106      	bne.n	21cb2 <_ZN20complex_full_dynamic3app17h50f6376a467a7458E+0x8e>
   21ca4:	9924      	ldr	r1, [sp, #144]	@ 0x90
   21ca6:	e000      	b.n	21caa <_ZN20complex_full_dynamic3app17h50f6376a467a7458E+0x86>
   21ca8:	2103      	movs	r1, #3
   21caa:	4628      	mov	r0, r5
   21cac:	2800      	cmp	r0, #0
   21cae:	d007      	beq.n	21cc0 <_ZN20complex_full_dynamic3app17h50f6376a467a7458E+0x9c>
   21cb0:	e015      	b.n	21cde <_ZN20complex_full_dynamic3app17h50f6376a467a7458E+0xba>
   21cb2:	a811      	add	r0, sp, #68	@ 0x44
   21cb4:	7204      	strb	r4, [r0, #8]
   21cb6:	9412      	str	r4, [sp, #72]	@ 0x48
   21cb8:	9611      	str	r6, [sp, #68]	@ 0x44
   21cba:	2000      	movs	r0, #0
   21cbc:	2800      	cmp	r0, #0
   21cbe:	d10e      	bne.n	21cde <_ZN20complex_full_dynamic3app17h50f6376a467a7458E+0xba>
   21cc0:	4813      	ldr	r0, [pc, #76]	@ (21d10 <_ZN20complex_full_dynamic3app17h50f6376a467a7458E+0xec>)
   21cc2:	2102      	movs	r1, #2
   21cc4:	2203      	movs	r2, #3
   21cc6:	2400      	movs	r4, #0
   21cc8:	4623      	mov	r3, r4
   21cca:	df02      	svc	2
   21ccc:	287f      	cmp	r0, #127	@ 0x7f
   21cce:	d906      	bls.n	21cde <_ZN20complex_full_dynamic3app17h50f6376a467a7458E+0xba>
   21cd0:	a806      	add	r0, sp, #24
   21cd2:	f007 fa43 	bl	2915c <_ZN9allow_pin12full_dynamic17unshare_if_shared17h9f78cce76fd1eb6dE>
   21cd6:	a811      	add	r0, sp, #68	@ 0x44
   21cd8:	f007 fa40 	bl	2915c <_ZN9allow_pin12full_dynamic17unshare_if_shared17h9f78cce76fd1eb6dE>
   21cdc:	4625      	mov	r5, r4
   21cde:	2d00      	cmp	r5, #0
   21ce0:	d003      	beq.n	21cea <_ZN20complex_full_dynamic3app17h50f6376a467a7458E+0xc6>
   21ce2:	9c05      	ldr	r4, [sp, #20]
   21ce4:	6061      	str	r1, [r4, #4]
   21ce6:	2001      	movs	r0, #1
   21ce8:	e009      	b.n	21cfe <_ZN20complex_full_dynamic3app17h50f6376a467a7458E+0xda>
   21cea:	a811      	add	r0, sp, #68	@ 0x44
   21cec:	f007 fa36 	bl	2915c <_ZN9allow_pin12full_dynamic17unshare_if_shared17h9f78cce76fd1eb6dE>
   21cf0:	9c05      	ldr	r4, [sp, #20]
   21cf2:	1c60      	adds	r0, r4, #1
   21cf4:	223c      	movs	r2, #60	@ 0x3c
   21cf6:	9903      	ldr	r1, [sp, #12]
   21cf8:	f007 fc09 	bl	2950e <__aeabi_memcpy>
   21cfc:	2000      	movs	r0, #0
   21cfe:	7020      	strb	r0, [r4, #0]
   21d00:	a811      	add	r0, sp, #68	@ 0x44
   21d02:	f007 fa2b 	bl	2915c <_ZN9allow_pin12full_dynamic17unshare_if_shared17h9f78cce76fd1eb6dE>
   21d06:	a806      	add	r0, sp, #24
   21d08:	f007 fa28 	bl	2915c <_ZN9allow_pin12full_dynamic17unshare_if_shared17h9f78cce76fd1eb6dE>
   21d0c:	b027      	add	sp, #156	@ 0x9c
   21d0e:	bdf0      	pop	{r4, r5, r6, r7, pc}
   21d10:	00000b3c 	.word	0x00000b3c

00021d14 <_ZN20complex_full_dynamic3app17h533b064de4696741E>:
   21d14:	b5f0      	push	{r4, r5, r6, r7, lr}
   21d16:	af03      	add	r7, sp, #12
   21d18:	b0a9      	sub	sp, #164	@ 0xa4
   21d1a:	9005      	str	r0, [sp, #20]
   21d1c:	ae06      	add	r6, sp, #24
   21d1e:	2002      	movs	r0, #2
   21d20:	9004      	str	r0, [sp, #16]
   21d22:	7230      	strb	r0, [r6, #8]
   21d24:	360c      	adds	r6, #12
   21d26:	253b      	movs	r5, #59	@ 0x3b
   21d28:	4630      	mov	r0, r6
   21d2a:	462a      	mov	r2, r5
   21d2c:	f007 fbef 	bl	2950e <__aeabi_memcpy>
   21d30:	ac18      	add	r4, sp, #96	@ 0x60
   21d32:	4620      	mov	r0, r4
   21d34:	300c      	adds	r0, #12
   21d36:	2127      	movs	r1, #39	@ 0x27
   21d38:	9003      	str	r0, [sp, #12]
   21d3a:	9102      	str	r1, [sp, #8]
   21d3c:	f007 fa3a 	bl	291b4 <__aeabi_memclr4>
   21d40:	9804      	ldr	r0, [sp, #16]
   21d42:	7220      	strb	r0, [r4, #8]
   21d44:	2404      	movs	r4, #4
   21d46:	9500      	str	r5, [sp, #0]
   21d48:	9401      	str	r4, [sp, #4]
   21d4a:	a825      	add	r0, sp, #148	@ 0x94
   21d4c:	492d      	ldr	r1, [pc, #180]	@ (21e04 <_ZN20complex_full_dynamic3app17h533b064de4696741E+0xf0>)
   21d4e:	2505      	movs	r5, #5
   21d50:	462a      	mov	r2, r5
   21d52:	4633      	mov	r3, r6
   21d54:	f007 fa16 	bl	29184 <_ZN9allow_pin13dynamic_allow17h33d41317a2da4f1cE>
   21d58:	9825      	ldr	r0, [sp, #148]	@ 0x94
   21d5a:	2802      	cmp	r0, #2
   21d5c:	d102      	bne.n	21d64 <_ZN20complex_full_dynamic3app17h533b064de4696741E+0x50>
   21d5e:	9926      	ldr	r1, [sp, #152]	@ 0x98
   21d60:	4c28      	ldr	r4, [pc, #160]	@ (21e04 <_ZN20complex_full_dynamic3app17h533b064de4696741E+0xf0>)
   21d62:	e004      	b.n	21d6e <_ZN20complex_full_dynamic3app17h533b064de4696741E+0x5a>
   21d64:	a906      	add	r1, sp, #24
   21d66:	720c      	strb	r4, [r1, #8]
   21d68:	9507      	str	r5, [sp, #28]
   21d6a:	4c26      	ldr	r4, [pc, #152]	@ (21e04 <_ZN20complex_full_dynamic3app17h533b064de4696741E+0xf0>)
   21d6c:	9406      	str	r4, [sp, #24]
   21d6e:	2601      	movs	r6, #1
   21d70:	2802      	cmp	r0, #2
   21d72:	d02d      	beq.n	21dd0 <_ZN20complex_full_dynamic3app17h533b064de4696741E+0xbc>
   21d74:	a818      	add	r0, sp, #96	@ 0x60
   21d76:	7a00      	ldrb	r0, [r0, #8]
   21d78:	2802      	cmp	r0, #2
   21d7a:	d10e      	bne.n	21d9a <_ZN20complex_full_dynamic3app17h533b064de4696741E+0x86>
   21d7c:	2503      	movs	r5, #3
   21d7e:	9802      	ldr	r0, [sp, #8]
   21d80:	9000      	str	r0, [sp, #0]
   21d82:	9501      	str	r5, [sp, #4]
   21d84:	a825      	add	r0, sp, #148	@ 0x94
   21d86:	4621      	mov	r1, r4
   21d88:	462a      	mov	r2, r5
   21d8a:	9b03      	ldr	r3, [sp, #12]
   21d8c:	f007 f9fa 	bl	29184 <_ZN9allow_pin13dynamic_allow17h33d41317a2da4f1cE>
   21d90:	9825      	ldr	r0, [sp, #148]	@ 0x94
   21d92:	2802      	cmp	r0, #2
   21d94:	d106      	bne.n	21da4 <_ZN20complex_full_dynamic3app17h533b064de4696741E+0x90>
   21d96:	9926      	ldr	r1, [sp, #152]	@ 0x98
   21d98:	e000      	b.n	21d9c <_ZN20complex_full_dynamic3app17h533b064de4696741E+0x88>
   21d9a:	2103      	movs	r1, #3
   21d9c:	4630      	mov	r0, r6
   21d9e:	2800      	cmp	r0, #0
   21da0:	d007      	beq.n	21db2 <_ZN20complex_full_dynamic3app17h533b064de4696741E+0x9e>
   21da2:	e015      	b.n	21dd0 <_ZN20complex_full_dynamic3app17h533b064de4696741E+0xbc>
   21da4:	a818      	add	r0, sp, #96	@ 0x60
   21da6:	7205      	strb	r5, [r0, #8]
   21da8:	9519      	str	r5, [sp, #100]	@ 0x64
   21daa:	9418      	str	r4, [sp, #96]	@ 0x60
   21dac:	2000      	movs	r0, #0
   21dae:	2800      	cmp	r0, #0
   21db0:	d10e      	bne.n	21dd0 <_ZN20complex_full_dynamic3app17h533b064de4696741E+0xbc>
   21db2:	4814      	ldr	r0, [pc, #80]	@ (21e04 <_ZN20complex_full_dynamic3app17h533b064de4696741E+0xf0>)
   21db4:	2105      	movs	r1, #5
   21db6:	2203      	movs	r2, #3
   21db8:	2400      	movs	r4, #0
   21dba:	4623      	mov	r3, r4
   21dbc:	df02      	svc	2
   21dbe:	287f      	cmp	r0, #127	@ 0x7f
   21dc0:	d906      	bls.n	21dd0 <_ZN20complex_full_dynamic3app17h533b064de4696741E+0xbc>
   21dc2:	a806      	add	r0, sp, #24
   21dc4:	f007 f9ca 	bl	2915c <_ZN9allow_pin12full_dynamic17unshare_if_shared17h9f78cce76fd1eb6dE>
   21dc8:	a818      	add	r0, sp, #96	@ 0x60
   21dca:	f007 f9c7 	bl	2915c <_ZN9allow_pin12full_dynamic17unshare_if_shared17h9f78cce76fd1eb6dE>
   21dce:	4626      	mov	r6, r4
   21dd0:	2e00      	cmp	r6, #0
   21dd2:	d003      	beq.n	21ddc <_ZN20complex_full_dynamic3app17h533b064de4696741E+0xc8>
   21dd4:	9c05      	ldr	r4, [sp, #20]
   21dd6:	6061      	str	r1, [r4, #4]
   21dd8:	2001      	movs	r0, #1
   21dda:	e009      	b.n	21df0 <_ZN20complex_full_dynamic3app17h533b064de4696741E+0xdc>
   21ddc:	a818      	add	r0, sp, #96	@ 0x60
   21dde:	f007 f9bd 	bl	2915c <_ZN9allow_pin12full_dynamic17unshare_if_shared17h9f78cce76fd1eb6dE>
   21de2:	9c05      	ldr	r4, [sp, #20]
   21de4:	1c60      	adds	r0, r4, #1
   21de6:	2227      	movs	r2, #39	@ 0x27
   21de8:	9903      	ldr	r1, [sp, #12]
   21dea:	f007 fb90 	bl	2950e <__aeabi_memcpy>
   21dee:	2000      	movs	r0, #0
   21df0:	7020      	strb	r0, [r4, #0]
   21df2:	a818      	add	r0, sp, #96	@ 0x60
   21df4:	f007 f9b2 	bl	2915c <_ZN9allow_pin12full_dynamic17unshare_if_shared17h9f78cce76fd1eb6dE>
   21df8:	a806      	add	r0, sp, #24
   21dfa:	f007 f9af 	bl	2915c <_ZN9allow_pin12full_dynamic17unshare_if_shared17h9f78cce76fd1eb6dE>
   21dfe:	b029      	add	sp, #164	@ 0xa4
   21e00:	bdf0      	pop	{r4, r5, r6, r7, pc}
   21e02:	46c0      	nop			@ (mov r8, r8)
   21e04:	00000bd3 	.word	0x00000bd3

00021e08 <_ZN20complex_full_dynamic3app17h53cd5fc8b177ea28E>:
   21e08:	b5f0      	push	{r4, r5, r6, r7, lr}
   21e0a:	af03      	add	r7, sp, #12
   21e0c:	b0b3      	sub	sp, #204	@ 0xcc
   21e0e:	9005      	str	r0, [sp, #20]
   21e10:	ad06      	add	r5, sp, #24
   21e12:	2002      	movs	r0, #2
   21e14:	9004      	str	r0, [sp, #16]
   21e16:	7228      	strb	r0, [r5, #8]
   21e18:	350c      	adds	r5, #12
   21e1a:	2650      	movs	r6, #80	@ 0x50
   21e1c:	4628      	mov	r0, r5
   21e1e:	4632      	mov	r2, r6
   21e20:	f007 fb75 	bl	2950e <__aeabi_memcpy>
   21e24:	ac1d      	add	r4, sp, #116	@ 0x74
   21e26:	4620      	mov	r0, r4
   21e28:	300c      	adds	r0, #12
   21e2a:	213c      	movs	r1, #60	@ 0x3c
   21e2c:	9003      	str	r0, [sp, #12]
   21e2e:	9102      	str	r1, [sp, #8]
   21e30:	f007 f9c0 	bl	291b4 <__aeabi_memclr4>
   21e34:	9804      	ldr	r0, [sp, #16]
   21e36:	7220      	strb	r0, [r4, #8]
   21e38:	2404      	movs	r4, #4
   21e3a:	9600      	str	r6, [sp, #0]
   21e3c:	9401      	str	r4, [sp, #4]
   21e3e:	a82f      	add	r0, sp, #188	@ 0xbc
   21e40:	492e      	ldr	r1, [pc, #184]	@ (21efc <_ZN20complex_full_dynamic3app17h53cd5fc8b177ea28E+0xf4>)
   21e42:	2603      	movs	r6, #3
   21e44:	4632      	mov	r2, r6
   21e46:	462b      	mov	r3, r5
   21e48:	f007 f99c 	bl	29184 <_ZN9allow_pin13dynamic_allow17h33d41317a2da4f1cE>
   21e4c:	982f      	ldr	r0, [sp, #188]	@ 0xbc
   21e4e:	2802      	cmp	r0, #2
   21e50:	d102      	bne.n	21e58 <_ZN20complex_full_dynamic3app17h53cd5fc8b177ea28E+0x50>
   21e52:	9930      	ldr	r1, [sp, #192]	@ 0xc0
   21e54:	4a29      	ldr	r2, [pc, #164]	@ (21efc <_ZN20complex_full_dynamic3app17h53cd5fc8b177ea28E+0xf4>)
   21e56:	e004      	b.n	21e62 <_ZN20complex_full_dynamic3app17h53cd5fc8b177ea28E+0x5a>
   21e58:	a906      	add	r1, sp, #24
   21e5a:	720c      	strb	r4, [r1, #8]
   21e5c:	9607      	str	r6, [sp, #28]
   21e5e:	4a27      	ldr	r2, [pc, #156]	@ (21efc <_ZN20complex_full_dynamic3app17h53cd5fc8b177ea28E+0xf4>)
   21e60:	9206      	str	r2, [sp, #24]
   21e62:	2501      	movs	r5, #1
   21e64:	2802      	cmp	r0, #2
   21e66:	d02f      	beq.n	21ec8 <_ZN20complex_full_dynamic3app17h53cd5fc8b177ea28E+0xc0>
   21e68:	a81d      	add	r0, sp, #116	@ 0x74
   21e6a:	7a00      	ldrb	r0, [r0, #8]
   21e6c:	2802      	cmp	r0, #2
   21e6e:	4628      	mov	r0, r5
   21e70:	d10f      	bne.n	21e92 <_ZN20complex_full_dynamic3app17h53cd5fc8b177ea28E+0x8a>
   21e72:	2603      	movs	r6, #3
   21e74:	9802      	ldr	r0, [sp, #8]
   21e76:	9000      	str	r0, [sp, #0]
   21e78:	9601      	str	r6, [sp, #4]
   21e7a:	a82f      	add	r0, sp, #188	@ 0xbc
   21e7c:	2409      	movs	r4, #9
   21e7e:	4611      	mov	r1, r2
   21e80:	4622      	mov	r2, r4
   21e82:	9b03      	ldr	r3, [sp, #12]
   21e84:	f007 f97e 	bl	29184 <_ZN9allow_pin13dynamic_allow17h33d41317a2da4f1cE>
   21e88:	982f      	ldr	r0, [sp, #188]	@ 0xbc
   21e8a:	2802      	cmp	r0, #2
   21e8c:	d105      	bne.n	21e9a <_ZN20complex_full_dynamic3app17h53cd5fc8b177ea28E+0x92>
   21e8e:	9e30      	ldr	r6, [sp, #192]	@ 0xc0
   21e90:	4628      	mov	r0, r5
   21e92:	2800      	cmp	r0, #0
   21e94:	d009      	beq.n	21eaa <_ZN20complex_full_dynamic3app17h53cd5fc8b177ea28E+0xa2>
   21e96:	4631      	mov	r1, r6
   21e98:	e016      	b.n	21ec8 <_ZN20complex_full_dynamic3app17h53cd5fc8b177ea28E+0xc0>
   21e9a:	a81d      	add	r0, sp, #116	@ 0x74
   21e9c:	7206      	strb	r6, [r0, #8]
   21e9e:	941e      	str	r4, [sp, #120]	@ 0x78
   21ea0:	4816      	ldr	r0, [pc, #88]	@ (21efc <_ZN20complex_full_dynamic3app17h53cd5fc8b177ea28E+0xf4>)
   21ea2:	901d      	str	r0, [sp, #116]	@ 0x74
   21ea4:	2000      	movs	r0, #0
   21ea6:	2800      	cmp	r0, #0
   21ea8:	d1f5      	bne.n	21e96 <_ZN20complex_full_dynamic3app17h53cd5fc8b177ea28E+0x8e>
   21eaa:	4814      	ldr	r0, [pc, #80]	@ (21efc <_ZN20complex_full_dynamic3app17h53cd5fc8b177ea28E+0xf4>)
   21eac:	2103      	movs	r1, #3
   21eae:	2209      	movs	r2, #9
   21eb0:	2400      	movs	r4, #0
   21eb2:	4623      	mov	r3, r4
   21eb4:	df02      	svc	2
   21eb6:	287f      	cmp	r0, #127	@ 0x7f
   21eb8:	d906      	bls.n	21ec8 <_ZN20complex_full_dynamic3app17h53cd5fc8b177ea28E+0xc0>
   21eba:	a806      	add	r0, sp, #24
   21ebc:	f007 f94e 	bl	2915c <_ZN9allow_pin12full_dynamic17unshare_if_shared17h9f78cce76fd1eb6dE>
   21ec0:	a81d      	add	r0, sp, #116	@ 0x74
   21ec2:	f007 f94b 	bl	2915c <_ZN9allow_pin12full_dynamic17unshare_if_shared17h9f78cce76fd1eb6dE>
   21ec6:	4625      	mov	r5, r4
   21ec8:	2d00      	cmp	r5, #0
   21eca:	d003      	beq.n	21ed4 <_ZN20complex_full_dynamic3app17h53cd5fc8b177ea28E+0xcc>
   21ecc:	9c05      	ldr	r4, [sp, #20]
   21ece:	6061      	str	r1, [r4, #4]
   21ed0:	2001      	movs	r0, #1
   21ed2:	e009      	b.n	21ee8 <_ZN20complex_full_dynamic3app17h53cd5fc8b177ea28E+0xe0>
   21ed4:	a81d      	add	r0, sp, #116	@ 0x74
   21ed6:	f007 f941 	bl	2915c <_ZN9allow_pin12full_dynamic17unshare_if_shared17h9f78cce76fd1eb6dE>
   21eda:	9c05      	ldr	r4, [sp, #20]
   21edc:	1c60      	adds	r0, r4, #1
   21ede:	223c      	movs	r2, #60	@ 0x3c
   21ee0:	9903      	ldr	r1, [sp, #12]
   21ee2:	f007 fb14 	bl	2950e <__aeabi_memcpy>
   21ee6:	2000      	movs	r0, #0
   21ee8:	7020      	strb	r0, [r4, #0]
   21eea:	a81d      	add	r0, sp, #116	@ 0x74
   21eec:	f007 f936 	bl	2915c <_ZN9allow_pin12full_dynamic17unshare_if_shared17h9f78cce76fd1eb6dE>
   21ef0:	a806      	add	r0, sp, #24
   21ef2:	f007 f933 	bl	2915c <_ZN9allow_pin12full_dynamic17unshare_if_shared17h9f78cce76fd1eb6dE>
   21ef6:	b033      	add	sp, #204	@ 0xcc
   21ef8:	bdf0      	pop	{r4, r5, r6, r7, pc}
   21efa:	46c0      	nop			@ (mov r8, r8)
   21efc:	00000d7a 	.word	0x00000d7a

00021f00 <_ZN20complex_full_dynamic3app17h5cdbccf1b25fcfe3E>:
   21f00:	b5f0      	push	{r4, r5, r6, r7, lr}
   21f02:	af03      	add	r7, sp, #12
   21f04:	b0a5      	sub	sp, #148	@ 0x94
   21f06:	9006      	str	r0, [sp, #24]
   21f08:	ad07      	add	r5, sp, #28
   21f0a:	2402      	movs	r4, #2
   21f0c:	722c      	strb	r4, [r5, #8]
   21f0e:	350c      	adds	r5, #12
   21f10:	2223      	movs	r2, #35	@ 0x23
   21f12:	9205      	str	r2, [sp, #20]
   21f14:	4628      	mov	r0, r5
   21f16:	f007 fafa 	bl	2950e <__aeabi_memcpy>
   21f1a:	ae13      	add	r6, sp, #76	@ 0x4c
   21f1c:	4630      	mov	r0, r6
   21f1e:	300c      	adds	r0, #12
   21f20:	212b      	movs	r1, #43	@ 0x2b
   21f22:	9004      	str	r0, [sp, #16]
   21f24:	9103      	str	r1, [sp, #12]
   21f26:	f007 f945 	bl	291b4 <__aeabi_memclr4>
   21f2a:	7234      	strb	r4, [r6, #8]
   21f2c:	4626      	mov	r6, r4
   21f2e:	2004      	movs	r0, #4
   21f30:	9905      	ldr	r1, [sp, #20]
   21f32:	9100      	str	r1, [sp, #0]
   21f34:	9005      	str	r0, [sp, #20]
   21f36:	9001      	str	r0, [sp, #4]
   21f38:	a821      	add	r0, sp, #132	@ 0x84
   21f3a:	4c2d      	ldr	r4, [pc, #180]	@ (21ff0 <_ZN20complex_full_dynamic3app17h5cdbccf1b25fcfe3E+0xf0>)
   21f3c:	4621      	mov	r1, r4
   21f3e:	4632      	mov	r2, r6
   21f40:	462b      	mov	r3, r5
   21f42:	f007 f91f 	bl	29184 <_ZN9allow_pin13dynamic_allow17h33d41317a2da4f1cE>
   21f46:	9821      	ldr	r0, [sp, #132]	@ 0x84
   21f48:	2802      	cmp	r0, #2
   21f4a:	d101      	bne.n	21f50 <_ZN20complex_full_dynamic3app17h5cdbccf1b25fcfe3E+0x50>
   21f4c:	9922      	ldr	r1, [sp, #136]	@ 0x88
   21f4e:	e004      	b.n	21f5a <_ZN20complex_full_dynamic3app17h5cdbccf1b25fcfe3E+0x5a>
   21f50:	a907      	add	r1, sp, #28
   21f52:	9a05      	ldr	r2, [sp, #20]
   21f54:	720a      	strb	r2, [r1, #8]
   21f56:	9608      	str	r6, [sp, #32]
   21f58:	9407      	str	r4, [sp, #28]
   21f5a:	2501      	movs	r5, #1
   21f5c:	2802      	cmp	r0, #2
   21f5e:	d02e      	beq.n	21fbe <_ZN20complex_full_dynamic3app17h5cdbccf1b25fcfe3E+0xbe>
   21f60:	a813      	add	r0, sp, #76	@ 0x4c
   21f62:	7a00      	ldrb	r0, [r0, #8]
   21f64:	2802      	cmp	r0, #2
   21f66:	d10f      	bne.n	21f88 <_ZN20complex_full_dynamic3app17h5cdbccf1b25fcfe3E+0x88>
   21f68:	2603      	movs	r6, #3
   21f6a:	9803      	ldr	r0, [sp, #12]
   21f6c:	9000      	str	r0, [sp, #0]
   21f6e:	9601      	str	r6, [sp, #4]
   21f70:	a821      	add	r0, sp, #132	@ 0x84
   21f72:	4621      	mov	r1, r4
   21f74:	2400      	movs	r4, #0
   21f76:	4622      	mov	r2, r4
   21f78:	9b04      	ldr	r3, [sp, #16]
   21f7a:	f007 f903 	bl	29184 <_ZN9allow_pin13dynamic_allow17h33d41317a2da4f1cE>
   21f7e:	9821      	ldr	r0, [sp, #132]	@ 0x84
   21f80:	2802      	cmp	r0, #2
   21f82:	d106      	bne.n	21f92 <_ZN20complex_full_dynamic3app17h5cdbccf1b25fcfe3E+0x92>
   21f84:	9922      	ldr	r1, [sp, #136]	@ 0x88
   21f86:	e000      	b.n	21f8a <_ZN20complex_full_dynamic3app17h5cdbccf1b25fcfe3E+0x8a>
   21f88:	2103      	movs	r1, #3
   21f8a:	462c      	mov	r4, r5
   21f8c:	2c00      	cmp	r4, #0
   21f8e:	d007      	beq.n	21fa0 <_ZN20complex_full_dynamic3app17h5cdbccf1b25fcfe3E+0xa0>
   21f90:	e015      	b.n	21fbe <_ZN20complex_full_dynamic3app17h5cdbccf1b25fcfe3E+0xbe>
   21f92:	a813      	add	r0, sp, #76	@ 0x4c
   21f94:	7206      	strb	r6, [r0, #8]
   21f96:	9414      	str	r4, [sp, #80]	@ 0x50
   21f98:	4815      	ldr	r0, [pc, #84]	@ (21ff0 <_ZN20complex_full_dynamic3app17h5cdbccf1b25fcfe3E+0xf0>)
   21f9a:	9013      	str	r0, [sp, #76]	@ 0x4c
   21f9c:	2c00      	cmp	r4, #0
   21f9e:	d10e      	bne.n	21fbe <_ZN20complex_full_dynamic3app17h5cdbccf1b25fcfe3E+0xbe>
   21fa0:	4813      	ldr	r0, [pc, #76]	@ (21ff0 <_ZN20complex_full_dynamic3app17h5cdbccf1b25fcfe3E+0xf0>)
   21fa2:	2102      	movs	r1, #2
   21fa4:	2400      	movs	r4, #0
   21fa6:	4622      	mov	r2, r4
   21fa8:	4623      	mov	r3, r4
   21faa:	df02      	svc	2
   21fac:	287f      	cmp	r0, #127	@ 0x7f
   21fae:	d906      	bls.n	21fbe <_ZN20complex_full_dynamic3app17h5cdbccf1b25fcfe3E+0xbe>
   21fb0:	a807      	add	r0, sp, #28
   21fb2:	f007 f8d3 	bl	2915c <_ZN9allow_pin12full_dynamic17unshare_if_shared17h9f78cce76fd1eb6dE>
   21fb6:	a813      	add	r0, sp, #76	@ 0x4c
   21fb8:	f007 f8d0 	bl	2915c <_ZN9allow_pin12full_dynamic17unshare_if_shared17h9f78cce76fd1eb6dE>
   21fbc:	4625      	mov	r5, r4
   21fbe:	2d00      	cmp	r5, #0
   21fc0:	d003      	beq.n	21fca <_ZN20complex_full_dynamic3app17h5cdbccf1b25fcfe3E+0xca>
   21fc2:	9c06      	ldr	r4, [sp, #24]
   21fc4:	6061      	str	r1, [r4, #4]
   21fc6:	2001      	movs	r0, #1
   21fc8:	e009      	b.n	21fde <_ZN20complex_full_dynamic3app17h5cdbccf1b25fcfe3E+0xde>
   21fca:	a813      	add	r0, sp, #76	@ 0x4c
   21fcc:	f007 f8c6 	bl	2915c <_ZN9allow_pin12full_dynamic17unshare_if_shared17h9f78cce76fd1eb6dE>
   21fd0:	9c06      	ldr	r4, [sp, #24]
   21fd2:	1c60      	adds	r0, r4, #1
   21fd4:	222b      	movs	r2, #43	@ 0x2b
   21fd6:	9904      	ldr	r1, [sp, #16]
   21fd8:	f007 fa99 	bl	2950e <__aeabi_memcpy>
   21fdc:	2000      	movs	r0, #0
   21fde:	7020      	strb	r0, [r4, #0]
   21fe0:	a813      	add	r0, sp, #76	@ 0x4c
   21fe2:	f007 f8bb 	bl	2915c <_ZN9allow_pin12full_dynamic17unshare_if_shared17h9f78cce76fd1eb6dE>
   21fe6:	a807      	add	r0, sp, #28
   21fe8:	f007 f8b8 	bl	2915c <_ZN9allow_pin12full_dynamic17unshare_if_shared17h9f78cce76fd1eb6dE>
   21fec:	b025      	add	sp, #148	@ 0x94
   21fee:	bdf0      	pop	{r4, r5, r6, r7, pc}
   21ff0:	00000d5d 	.word	0x00000d5d

00021ff4 <_ZN20complex_full_dynamic3app17h5d7a4cce4f8d30feE>:
   21ff4:	b5f0      	push	{r4, r5, r6, r7, lr}
   21ff6:	af03      	add	r7, sp, #12
   21ff8:	b0a9      	sub	sp, #164	@ 0xa4
   21ffa:	9006      	str	r0, [sp, #24]
   21ffc:	ad07      	add	r5, sp, #28
   21ffe:	2002      	movs	r0, #2
   22000:	9005      	str	r0, [sp, #20]
   22002:	7228      	strb	r0, [r5, #8]
   22004:	350c      	adds	r5, #12
   22006:	261b      	movs	r6, #27
   22008:	4628      	mov	r0, r5
   2200a:	4632      	mov	r2, r6
   2200c:	f007 fa7f 	bl	2950e <__aeabi_memcpy>
   22010:	ac11      	add	r4, sp, #68	@ 0x44
   22012:	4620      	mov	r0, r4
   22014:	300c      	adds	r0, #12
   22016:	2141      	movs	r1, #65	@ 0x41
   22018:	9004      	str	r0, [sp, #16]
   2201a:	9103      	str	r1, [sp, #12]
   2201c:	f007 f8ca 	bl	291b4 <__aeabi_memclr4>
   22020:	9805      	ldr	r0, [sp, #20]
   22022:	7220      	strb	r0, [r4, #8]
   22024:	2004      	movs	r0, #4
   22026:	9600      	str	r6, [sp, #0]
   22028:	9005      	str	r0, [sp, #20]
   2202a:	9001      	str	r0, [sp, #4]
   2202c:	2005      	movs	r0, #5
   2202e:	0184      	lsls	r4, r0, #6
   22030:	a825      	add	r0, sp, #148	@ 0x94
   22032:	2608      	movs	r6, #8
   22034:	4621      	mov	r1, r4
   22036:	4632      	mov	r2, r6
   22038:	462b      	mov	r3, r5
   2203a:	f007 f8a3 	bl	29184 <_ZN9allow_pin13dynamic_allow17h33d41317a2da4f1cE>
   2203e:	9825      	ldr	r0, [sp, #148]	@ 0x94
   22040:	2802      	cmp	r0, #2
   22042:	d101      	bne.n	22048 <_ZN20complex_full_dynamic3app17h5d7a4cce4f8d30feE+0x54>
   22044:	9926      	ldr	r1, [sp, #152]	@ 0x98
   22046:	e004      	b.n	22052 <_ZN20complex_full_dynamic3app17h5d7a4cce4f8d30feE+0x5e>
   22048:	a907      	add	r1, sp, #28
   2204a:	9a05      	ldr	r2, [sp, #20]
   2204c:	720a      	strb	r2, [r1, #8]
   2204e:	9608      	str	r6, [sp, #32]
   22050:	9407      	str	r4, [sp, #28]
   22052:	4623      	mov	r3, r4
   22054:	2501      	movs	r5, #1
   22056:	2802      	cmp	r0, #2
   22058:	d034      	beq.n	220c4 <_ZN20complex_full_dynamic3app17h5d7a4cce4f8d30feE+0xd0>
   2205a:	a811      	add	r0, sp, #68	@ 0x44
   2205c:	7a00      	ldrb	r0, [r0, #8]
   2205e:	2802      	cmp	r0, #2
   22060:	d114      	bne.n	2208c <_ZN20complex_full_dynamic3app17h5d7a4cce4f8d30feE+0x98>
   22062:	2603      	movs	r6, #3
   22064:	9803      	ldr	r0, [sp, #12]
   22066:	9000      	str	r0, [sp, #0]
   22068:	9601      	str	r6, [sp, #4]
   2206a:	a825      	add	r0, sp, #148	@ 0x94
   2206c:	2409      	movs	r4, #9
   2206e:	4619      	mov	r1, r3
   22070:	4622      	mov	r2, r4
   22072:	9305      	str	r3, [sp, #20]
   22074:	9b04      	ldr	r3, [sp, #16]
   22076:	f007 f885 	bl	29184 <_ZN9allow_pin13dynamic_allow17h33d41317a2da4f1cE>
   2207a:	9825      	ldr	r0, [sp, #148]	@ 0x94
   2207c:	2802      	cmp	r0, #2
   2207e:	d10a      	bne.n	22096 <_ZN20complex_full_dynamic3app17h5d7a4cce4f8d30feE+0xa2>
   22080:	9926      	ldr	r1, [sp, #152]	@ 0x98
   22082:	4628      	mov	r0, r5
   22084:	9b05      	ldr	r3, [sp, #20]
   22086:	2800      	cmp	r0, #0
   22088:	d00d      	beq.n	220a6 <_ZN20complex_full_dynamic3app17h5d7a4cce4f8d30feE+0xb2>
   2208a:	e01b      	b.n	220c4 <_ZN20complex_full_dynamic3app17h5d7a4cce4f8d30feE+0xd0>
   2208c:	2103      	movs	r1, #3
   2208e:	4628      	mov	r0, r5
   22090:	2800      	cmp	r0, #0
   22092:	d008      	beq.n	220a6 <_ZN20complex_full_dynamic3app17h5d7a4cce4f8d30feE+0xb2>
   22094:	e016      	b.n	220c4 <_ZN20complex_full_dynamic3app17h5d7a4cce4f8d30feE+0xd0>
   22096:	a811      	add	r0, sp, #68	@ 0x44
   22098:	7206      	strb	r6, [r0, #8]
   2209a:	9412      	str	r4, [sp, #72]	@ 0x48
   2209c:	9b05      	ldr	r3, [sp, #20]
   2209e:	9311      	str	r3, [sp, #68]	@ 0x44
   220a0:	2000      	movs	r0, #0
   220a2:	2800      	cmp	r0, #0
   220a4:	d10e      	bne.n	220c4 <_ZN20complex_full_dynamic3app17h5d7a4cce4f8d30feE+0xd0>
   220a6:	2108      	movs	r1, #8
   220a8:	2209      	movs	r2, #9
   220aa:	2400      	movs	r4, #0
   220ac:	4618      	mov	r0, r3
   220ae:	4623      	mov	r3, r4
   220b0:	df02      	svc	2
   220b2:	287f      	cmp	r0, #127	@ 0x7f
   220b4:	d906      	bls.n	220c4 <_ZN20complex_full_dynamic3app17h5d7a4cce4f8d30feE+0xd0>
   220b6:	a807      	add	r0, sp, #28
   220b8:	f007 f850 	bl	2915c <_ZN9allow_pin12full_dynamic17unshare_if_shared17h9f78cce76fd1eb6dE>
   220bc:	a811      	add	r0, sp, #68	@ 0x44
   220be:	f007 f84d 	bl	2915c <_ZN9allow_pin12full_dynamic17unshare_if_shared17h9f78cce76fd1eb6dE>
   220c2:	4625      	mov	r5, r4
   220c4:	2d00      	cmp	r5, #0
   220c6:	d003      	beq.n	220d0 <_ZN20complex_full_dynamic3app17h5d7a4cce4f8d30feE+0xdc>
   220c8:	9c06      	ldr	r4, [sp, #24]
   220ca:	6061      	str	r1, [r4, #4]
   220cc:	2001      	movs	r0, #1
   220ce:	e009      	b.n	220e4 <_ZN20complex_full_dynamic3app17h5d7a4cce4f8d30feE+0xf0>
   220d0:	a811      	add	r0, sp, #68	@ 0x44
   220d2:	f007 f843 	bl	2915c <_ZN9allow_pin12full_dynamic17unshare_if_shared17h9f78cce76fd1eb6dE>
   220d6:	9c06      	ldr	r4, [sp, #24]
   220d8:	1c60      	adds	r0, r4, #1
   220da:	2241      	movs	r2, #65	@ 0x41
   220dc:	9904      	ldr	r1, [sp, #16]
   220de:	f007 fa16 	bl	2950e <__aeabi_memcpy>
   220e2:	2000      	movs	r0, #0
   220e4:	7020      	strb	r0, [r4, #0]
   220e6:	a811      	add	r0, sp, #68	@ 0x44
   220e8:	f007 f838 	bl	2915c <_ZN9allow_pin12full_dynamic17unshare_if_shared17h9f78cce76fd1eb6dE>
   220ec:	a807      	add	r0, sp, #28
   220ee:	f007 f835 	bl	2915c <_ZN9allow_pin12full_dynamic17unshare_if_shared17h9f78cce76fd1eb6dE>
   220f2:	b029      	add	sp, #164	@ 0xa4
   220f4:	bdf0      	pop	{r4, r5, r6, r7, pc}
   220f6:	d4d4      	bmi.n	220a2 <_ZN20complex_full_dynamic3app17h5d7a4cce4f8d30feE+0xae>

000220f8 <_ZN20complex_full_dynamic3app17h5d7d0196e3ecdabcE>:
   220f8:	b5f0      	push	{r4, r5, r6, r7, lr}
   220fa:	af03      	add	r7, sp, #12
   220fc:	b0b7      	sub	sp, #220	@ 0xdc
   220fe:	9005      	str	r0, [sp, #20]
   22100:	ad06      	add	r5, sp, #24
   22102:	2002      	movs	r0, #2
   22104:	9004      	str	r0, [sp, #16]
   22106:	7228      	strb	r0, [r5, #8]
   22108:	350c      	adds	r5, #12
   2210a:	263a      	movs	r6, #58	@ 0x3a
   2210c:	4628      	mov	r0, r5
   2210e:	4632      	mov	r2, r6
   22110:	f007 f9fd 	bl	2950e <__aeabi_memcpy>
   22114:	ac18      	add	r4, sp, #96	@ 0x60
   22116:	4620      	mov	r0, r4
   22118:	300c      	adds	r0, #12
   2211a:	215d      	movs	r1, #93	@ 0x5d
   2211c:	9003      	str	r0, [sp, #12]
   2211e:	9102      	str	r1, [sp, #8]
   22120:	f007 f848 	bl	291b4 <__aeabi_memclr4>
   22124:	9804      	ldr	r0, [sp, #16]
   22126:	7220      	strb	r0, [r4, #8]
   22128:	2404      	movs	r4, #4
   2212a:	9600      	str	r6, [sp, #0]
   2212c:	9401      	str	r4, [sp, #4]
   2212e:	a833      	add	r0, sp, #204	@ 0xcc
   22130:	492d      	ldr	r1, [pc, #180]	@ (221e8 <_ZN20complex_full_dynamic3app17h5d7d0196e3ecdabcE+0xf0>)
   22132:	2600      	movs	r6, #0
   22134:	4632      	mov	r2, r6
   22136:	462b      	mov	r3, r5
   22138:	f007 f824 	bl	29184 <_ZN9allow_pin13dynamic_allow17h33d41317a2da4f1cE>
   2213c:	9833      	ldr	r0, [sp, #204]	@ 0xcc
   2213e:	2802      	cmp	r0, #2
   22140:	d102      	bne.n	22148 <_ZN20complex_full_dynamic3app17h5d7d0196e3ecdabcE+0x50>
   22142:	9934      	ldr	r1, [sp, #208]	@ 0xd0
   22144:	4a28      	ldr	r2, [pc, #160]	@ (221e8 <_ZN20complex_full_dynamic3app17h5d7d0196e3ecdabcE+0xf0>)
   22146:	e004      	b.n	22152 <_ZN20complex_full_dynamic3app17h5d7d0196e3ecdabcE+0x5a>
   22148:	a906      	add	r1, sp, #24
   2214a:	720c      	strb	r4, [r1, #8]
   2214c:	9607      	str	r6, [sp, #28]
   2214e:	4a26      	ldr	r2, [pc, #152]	@ (221e8 <_ZN20complex_full_dynamic3app17h5d7d0196e3ecdabcE+0xf0>)
   22150:	9206      	str	r2, [sp, #24]
   22152:	2501      	movs	r5, #1
   22154:	2802      	cmp	r0, #2
   22156:	d02e      	beq.n	221b6 <_ZN20complex_full_dynamic3app17h5d7d0196e3ecdabcE+0xbe>
   22158:	a818      	add	r0, sp, #96	@ 0x60
   2215a:	7a00      	ldrb	r0, [r0, #8]
   2215c:	2103      	movs	r1, #3
   2215e:	2802      	cmp	r0, #2
   22160:	d10e      	bne.n	22180 <_ZN20complex_full_dynamic3app17h5d7d0196e3ecdabcE+0x88>
   22162:	9802      	ldr	r0, [sp, #8]
   22164:	9000      	str	r0, [sp, #0]
   22166:	9104      	str	r1, [sp, #16]
   22168:	9101      	str	r1, [sp, #4]
   2216a:	a833      	add	r0, sp, #204	@ 0xcc
   2216c:	2405      	movs	r4, #5
   2216e:	4611      	mov	r1, r2
   22170:	4622      	mov	r2, r4
   22172:	9b03      	ldr	r3, [sp, #12]
   22174:	f007 f806 	bl	29184 <_ZN9allow_pin13dynamic_allow17h33d41317a2da4f1cE>
   22178:	9833      	ldr	r0, [sp, #204]	@ 0xcc
   2217a:	2802      	cmp	r0, #2
   2217c:	d104      	bne.n	22188 <_ZN20complex_full_dynamic3app17h5d7d0196e3ecdabcE+0x90>
   2217e:	9934      	ldr	r1, [sp, #208]	@ 0xd0
   22180:	462e      	mov	r6, r5
   22182:	2e00      	cmp	r6, #0
   22184:	d008      	beq.n	22198 <_ZN20complex_full_dynamic3app17h5d7d0196e3ecdabcE+0xa0>
   22186:	e016      	b.n	221b6 <_ZN20complex_full_dynamic3app17h5d7d0196e3ecdabcE+0xbe>
   22188:	a818      	add	r0, sp, #96	@ 0x60
   2218a:	9904      	ldr	r1, [sp, #16]
   2218c:	7201      	strb	r1, [r0, #8]
   2218e:	9419      	str	r4, [sp, #100]	@ 0x64
   22190:	4815      	ldr	r0, [pc, #84]	@ (221e8 <_ZN20complex_full_dynamic3app17h5d7d0196e3ecdabcE+0xf0>)
   22192:	9018      	str	r0, [sp, #96]	@ 0x60
   22194:	2e00      	cmp	r6, #0
   22196:	d10e      	bne.n	221b6 <_ZN20complex_full_dynamic3app17h5d7d0196e3ecdabcE+0xbe>
   22198:	4813      	ldr	r0, [pc, #76]	@ (221e8 <_ZN20complex_full_dynamic3app17h5d7d0196e3ecdabcE+0xf0>)
   2219a:	2205      	movs	r2, #5
   2219c:	2400      	movs	r4, #0
   2219e:	4621      	mov	r1, r4
   221a0:	4623      	mov	r3, r4
   221a2:	df02      	svc	2
   221a4:	287f      	cmp	r0, #127	@ 0x7f
   221a6:	d906      	bls.n	221b6 <_ZN20complex_full_dynamic3app17h5d7d0196e3ecdabcE+0xbe>
   221a8:	a806      	add	r0, sp, #24
   221aa:	f006 ffd7 	bl	2915c <_ZN9allow_pin12full_dynamic17unshare_if_shared17h9f78cce76fd1eb6dE>
   221ae:	a818      	add	r0, sp, #96	@ 0x60
   221b0:	f006 ffd4 	bl	2915c <_ZN9allow_pin12full_dynamic17unshare_if_shared17h9f78cce76fd1eb6dE>
   221b4:	4625      	mov	r5, r4
   221b6:	2d00      	cmp	r5, #0
   221b8:	d003      	beq.n	221c2 <_ZN20complex_full_dynamic3app17h5d7d0196e3ecdabcE+0xca>
   221ba:	9c05      	ldr	r4, [sp, #20]
   221bc:	6061      	str	r1, [r4, #4]
   221be:	2001      	movs	r0, #1
   221c0:	e009      	b.n	221d6 <_ZN20complex_full_dynamic3app17h5d7d0196e3ecdabcE+0xde>
   221c2:	a818      	add	r0, sp, #96	@ 0x60
   221c4:	f006 ffca 	bl	2915c <_ZN9allow_pin12full_dynamic17unshare_if_shared17h9f78cce76fd1eb6dE>
   221c8:	9c05      	ldr	r4, [sp, #20]
   221ca:	1c60      	adds	r0, r4, #1
   221cc:	225d      	movs	r2, #93	@ 0x5d
   221ce:	9903      	ldr	r1, [sp, #12]
   221d0:	f007 f99d 	bl	2950e <__aeabi_memcpy>
   221d4:	2000      	movs	r0, #0
   221d6:	7020      	strb	r0, [r4, #0]
   221d8:	a818      	add	r0, sp, #96	@ 0x60
   221da:	f006 ffbf 	bl	2915c <_ZN9allow_pin12full_dynamic17unshare_if_shared17h9f78cce76fd1eb6dE>
   221de:	a806      	add	r0, sp, #24
   221e0:	f006 ffbc 	bl	2915c <_ZN9allow_pin12full_dynamic17unshare_if_shared17h9f78cce76fd1eb6dE>
   221e4:	b037      	add	sp, #220	@ 0xdc
   221e6:	bdf0      	pop	{r4, r5, r6, r7, pc}
   221e8:	000014a4 	.word	0x000014a4

000221ec <_ZN20complex_full_dynamic3app17h615b1b4433c84f03E>:
   221ec:	b5f0      	push	{r4, r5, r6, r7, lr}
   221ee:	af03      	add	r7, sp, #12
   221f0:	b0af      	sub	sp, #188	@ 0xbc
   221f2:	9006      	str	r0, [sp, #24]
   221f4:	ad07      	add	r5, sp, #28
   221f6:	2402      	movs	r4, #2
   221f8:	722c      	strb	r4, [r5, #8]
   221fa:	350c      	adds	r5, #12
   221fc:	2221      	movs	r2, #33	@ 0x21
   221fe:	9205      	str	r2, [sp, #20]
   22200:	4628      	mov	r0, r5
   22202:	f007 f984 	bl	2950e <__aeabi_memcpy>
   22206:	ae13      	add	r6, sp, #76	@ 0x4c
   22208:	4630      	mov	r0, r6
   2220a:	300c      	adds	r0, #12
   2220c:	2153      	movs	r1, #83	@ 0x53
   2220e:	9004      	str	r0, [sp, #16]
   22210:	9103      	str	r1, [sp, #12]
   22212:	f006 ffcf 	bl	291b4 <__aeabi_memclr4>
   22216:	7234      	strb	r4, [r6, #8]
   22218:	4626      	mov	r6, r4
   2221a:	2004      	movs	r0, #4
   2221c:	9905      	ldr	r1, [sp, #20]
   2221e:	9100      	str	r1, [sp, #0]
   22220:	9005      	str	r0, [sp, #20]
   22222:	9001      	str	r0, [sp, #4]
   22224:	a82b      	add	r0, sp, #172	@ 0xac
   22226:	4c2e      	ldr	r4, [pc, #184]	@ (222e0 <_ZN20complex_full_dynamic3app17h615b1b4433c84f03E+0xf4>)
   22228:	4621      	mov	r1, r4
   2222a:	4632      	mov	r2, r6
   2222c:	462b      	mov	r3, r5
   2222e:	f006 ffa9 	bl	29184 <_ZN9allow_pin13dynamic_allow17h33d41317a2da4f1cE>
   22232:	982b      	ldr	r0, [sp, #172]	@ 0xac
   22234:	2802      	cmp	r0, #2
   22236:	d101      	bne.n	2223c <_ZN20complex_full_dynamic3app17h615b1b4433c84f03E+0x50>
   22238:	992c      	ldr	r1, [sp, #176]	@ 0xb0
   2223a:	e004      	b.n	22246 <_ZN20complex_full_dynamic3app17h615b1b4433c84f03E+0x5a>
   2223c:	a907      	add	r1, sp, #28
   2223e:	9a05      	ldr	r2, [sp, #20]
   22240:	720a      	strb	r2, [r1, #8]
   22242:	9608      	str	r6, [sp, #32]
   22244:	9407      	str	r4, [sp, #28]
   22246:	2501      	movs	r5, #1
   22248:	2802      	cmp	r0, #2
   2224a:	d02f      	beq.n	222ac <_ZN20complex_full_dynamic3app17h615b1b4433c84f03E+0xc0>
   2224c:	a813      	add	r0, sp, #76	@ 0x4c
   2224e:	7a00      	ldrb	r0, [r0, #8]
   22250:	2802      	cmp	r0, #2
   22252:	d10f      	bne.n	22274 <_ZN20complex_full_dynamic3app17h615b1b4433c84f03E+0x88>
   22254:	2603      	movs	r6, #3
   22256:	9803      	ldr	r0, [sp, #12]
   22258:	9000      	str	r0, [sp, #0]
   2225a:	9601      	str	r6, [sp, #4]
   2225c:	a82b      	add	r0, sp, #172	@ 0xac
   2225e:	4621      	mov	r1, r4
   22260:	2408      	movs	r4, #8
   22262:	4622      	mov	r2, r4
   22264:	9b04      	ldr	r3, [sp, #16]
   22266:	f006 ff8d 	bl	29184 <_ZN9allow_pin13dynamic_allow17h33d41317a2da4f1cE>
   2226a:	982b      	ldr	r0, [sp, #172]	@ 0xac
   2226c:	2802      	cmp	r0, #2
   2226e:	d106      	bne.n	2227e <_ZN20complex_full_dynamic3app17h615b1b4433c84f03E+0x92>
   22270:	992c      	ldr	r1, [sp, #176]	@ 0xb0
   22272:	e000      	b.n	22276 <_ZN20complex_full_dynamic3app17h615b1b4433c84f03E+0x8a>
   22274:	2103      	movs	r1, #3
   22276:	4628      	mov	r0, r5
   22278:	2800      	cmp	r0, #0
   2227a:	d008      	beq.n	2228e <_ZN20complex_full_dynamic3app17h615b1b4433c84f03E+0xa2>
   2227c:	e016      	b.n	222ac <_ZN20complex_full_dynamic3app17h615b1b4433c84f03E+0xc0>
   2227e:	a813      	add	r0, sp, #76	@ 0x4c
   22280:	7206      	strb	r6, [r0, #8]
   22282:	9414      	str	r4, [sp, #80]	@ 0x50
   22284:	4816      	ldr	r0, [pc, #88]	@ (222e0 <_ZN20complex_full_dynamic3app17h615b1b4433c84f03E+0xf4>)
   22286:	9013      	str	r0, [sp, #76]	@ 0x4c
   22288:	2000      	movs	r0, #0
   2228a:	2800      	cmp	r0, #0
   2228c:	d10e      	bne.n	222ac <_ZN20complex_full_dynamic3app17h615b1b4433c84f03E+0xc0>
   2228e:	4814      	ldr	r0, [pc, #80]	@ (222e0 <_ZN20complex_full_dynamic3app17h615b1b4433c84f03E+0xf4>)
   22290:	2102      	movs	r1, #2
   22292:	2208      	movs	r2, #8
   22294:	2400      	movs	r4, #0
   22296:	4623      	mov	r3, r4
   22298:	df02      	svc	2
   2229a:	287f      	cmp	r0, #127	@ 0x7f
   2229c:	d906      	bls.n	222ac <_ZN20complex_full_dynamic3app17h615b1b4433c84f03E+0xc0>
   2229e:	a807      	add	r0, sp, #28
   222a0:	f006 ff5c 	bl	2915c <_ZN9allow_pin12full_dynamic17unshare_if_shared17h9f78cce76fd1eb6dE>
   222a4:	a813      	add	r0, sp, #76	@ 0x4c
   222a6:	f006 ff59 	bl	2915c <_ZN9allow_pin12full_dynamic17unshare_if_shared17h9f78cce76fd1eb6dE>
   222aa:	4625      	mov	r5, r4
   222ac:	2d00      	cmp	r5, #0
   222ae:	d003      	beq.n	222b8 <_ZN20complex_full_dynamic3app17h615b1b4433c84f03E+0xcc>
   222b0:	9c06      	ldr	r4, [sp, #24]
   222b2:	6061      	str	r1, [r4, #4]
   222b4:	2001      	movs	r0, #1
   222b6:	e009      	b.n	222cc <_ZN20complex_full_dynamic3app17h615b1b4433c84f03E+0xe0>
   222b8:	a813      	add	r0, sp, #76	@ 0x4c
   222ba:	f006 ff4f 	bl	2915c <_ZN9allow_pin12full_dynamic17unshare_if_shared17h9f78cce76fd1eb6dE>
   222be:	9c06      	ldr	r4, [sp, #24]
   222c0:	1c60      	adds	r0, r4, #1
   222c2:	2253      	movs	r2, #83	@ 0x53
   222c4:	9904      	ldr	r1, [sp, #16]
   222c6:	f007 f922 	bl	2950e <__aeabi_memcpy>
   222ca:	2000      	movs	r0, #0
   222cc:	7020      	strb	r0, [r4, #0]
   222ce:	a813      	add	r0, sp, #76	@ 0x4c
   222d0:	f006 ff44 	bl	2915c <_ZN9allow_pin12full_dynamic17unshare_if_shared17h9f78cce76fd1eb6dE>
   222d4:	a807      	add	r0, sp, #28
   222d6:	f006 ff41 	bl	2915c <_ZN9allow_pin12full_dynamic17unshare_if_shared17h9f78cce76fd1eb6dE>
   222da:	b02f      	add	sp, #188	@ 0xbc
   222dc:	bdf0      	pop	{r4, r5, r6, r7, pc}
   222de:	46c0      	nop			@ (mov r8, r8)
   222e0:	0000253e 	.word	0x0000253e

000222e4 <_ZN20complex_full_dynamic3app17h61616b9c7f06b1d1E>:
   222e4:	b5f0      	push	{r4, r5, r6, r7, lr}
   222e6:	af03      	add	r7, sp, #12
   222e8:	b0a1      	sub	sp, #132	@ 0x84
   222ea:	9003      	str	r0, [sp, #12]
   222ec:	ac05      	add	r4, sp, #20
   222ee:	2502      	movs	r5, #2
   222f0:	7225      	strb	r5, [r4, #8]
   222f2:	340c      	adds	r4, #12
   222f4:	2229      	movs	r2, #41	@ 0x29
   222f6:	9202      	str	r2, [sp, #8]
   222f8:	4620      	mov	r0, r4
   222fa:	f007 f908 	bl	2950e <__aeabi_memcpy>
   222fe:	a813      	add	r0, sp, #76	@ 0x4c
   22300:	2600      	movs	r6, #0
   22302:	8486      	strh	r6, [r0, #36]	@ 0x24
   22304:	9004      	str	r0, [sp, #16]
   22306:	7205      	strb	r5, [r0, #8]
   22308:	961b      	str	r6, [sp, #108]	@ 0x6c
   2230a:	961a      	str	r6, [sp, #104]	@ 0x68
   2230c:	9619      	str	r6, [sp, #100]	@ 0x64
   2230e:	9618      	str	r6, [sp, #96]	@ 0x60
   22310:	9617      	str	r6, [sp, #92]	@ 0x5c
   22312:	9616      	str	r6, [sp, #88]	@ 0x58
   22314:	2004      	movs	r0, #4
   22316:	9902      	ldr	r1, [sp, #8]
   22318:	9100      	str	r1, [sp, #0]
   2231a:	9002      	str	r0, [sp, #8]
   2231c:	9001      	str	r0, [sp, #4]
   2231e:	a81d      	add	r0, sp, #116	@ 0x74
   22320:	4930      	ldr	r1, [pc, #192]	@ (223e4 <_ZN20complex_full_dynamic3app17h61616b9c7f06b1d1E+0x100>)
   22322:	2505      	movs	r5, #5
   22324:	462a      	mov	r2, r5
   22326:	4623      	mov	r3, r4
   22328:	f006 ff2c 	bl	29184 <_ZN9allow_pin13dynamic_allow17h33d41317a2da4f1cE>
   2232c:	981d      	ldr	r0, [sp, #116]	@ 0x74
   2232e:	2802      	cmp	r0, #2
   22330:	d102      	bne.n	22338 <_ZN20complex_full_dynamic3app17h61616b9c7f06b1d1E+0x54>
   22332:	991e      	ldr	r1, [sp, #120]	@ 0x78
   22334:	4a2b      	ldr	r2, [pc, #172]	@ (223e4 <_ZN20complex_full_dynamic3app17h61616b9c7f06b1d1E+0x100>)
   22336:	e005      	b.n	22344 <_ZN20complex_full_dynamic3app17h61616b9c7f06b1d1E+0x60>
   22338:	a905      	add	r1, sp, #20
   2233a:	9a02      	ldr	r2, [sp, #8]
   2233c:	720a      	strb	r2, [r1, #8]
   2233e:	9506      	str	r5, [sp, #24]
   22340:	4a28      	ldr	r2, [pc, #160]	@ (223e4 <_ZN20complex_full_dynamic3app17h61616b9c7f06b1d1E+0x100>)
   22342:	9205      	str	r2, [sp, #20]
   22344:	9d04      	ldr	r5, [sp, #16]
   22346:	350c      	adds	r5, #12
   22348:	2401      	movs	r4, #1
   2234a:	2802      	cmp	r0, #2
   2234c:	d030      	beq.n	223b0 <_ZN20complex_full_dynamic3app17h61616b9c7f06b1d1E+0xcc>
   2234e:	a813      	add	r0, sp, #76	@ 0x4c
   22350:	7a00      	ldrb	r0, [r0, #8]
   22352:	2802      	cmp	r0, #2
   22354:	d110      	bne.n	22378 <_ZN20complex_full_dynamic3app17h61616b9c7f06b1d1E+0x94>
   22356:	462b      	mov	r3, r5
   22358:	2503      	movs	r5, #3
   2235a:	201a      	movs	r0, #26
   2235c:	9000      	str	r0, [sp, #0]
   2235e:	9501      	str	r5, [sp, #4]
   22360:	a81d      	add	r0, sp, #116	@ 0x74
   22362:	4611      	mov	r1, r2
   22364:	462a      	mov	r2, r5
   22366:	9304      	str	r3, [sp, #16]
   22368:	f006 ff0c 	bl	29184 <_ZN9allow_pin13dynamic_allow17h33d41317a2da4f1cE>
   2236c:	981d      	ldr	r0, [sp, #116]	@ 0x74
   2236e:	2802      	cmp	r0, #2
   22370:	d107      	bne.n	22382 <_ZN20complex_full_dynamic3app17h61616b9c7f06b1d1E+0x9e>
   22372:	991e      	ldr	r1, [sp, #120]	@ 0x78
   22374:	4626      	mov	r6, r4
   22376:	e009      	b.n	2238c <_ZN20complex_full_dynamic3app17h61616b9c7f06b1d1E+0xa8>
   22378:	2103      	movs	r1, #3
   2237a:	4626      	mov	r6, r4
   2237c:	2e00      	cmp	r6, #0
   2237e:	d008      	beq.n	22392 <_ZN20complex_full_dynamic3app17h61616b9c7f06b1d1E+0xae>
   22380:	e016      	b.n	223b0 <_ZN20complex_full_dynamic3app17h61616b9c7f06b1d1E+0xcc>
   22382:	a813      	add	r0, sp, #76	@ 0x4c
   22384:	7205      	strb	r5, [r0, #8]
   22386:	9514      	str	r5, [sp, #80]	@ 0x50
   22388:	4816      	ldr	r0, [pc, #88]	@ (223e4 <_ZN20complex_full_dynamic3app17h61616b9c7f06b1d1E+0x100>)
   2238a:	9013      	str	r0, [sp, #76]	@ 0x4c
   2238c:	9d04      	ldr	r5, [sp, #16]
   2238e:	2e00      	cmp	r6, #0
   22390:	d10e      	bne.n	223b0 <_ZN20complex_full_dynamic3app17h61616b9c7f06b1d1E+0xcc>
   22392:	4814      	ldr	r0, [pc, #80]	@ (223e4 <_ZN20complex_full_dynamic3app17h61616b9c7f06b1d1E+0x100>)
   22394:	2105      	movs	r1, #5
   22396:	2203      	movs	r2, #3
   22398:	2600      	movs	r6, #0
   2239a:	4633      	mov	r3, r6
   2239c:	df02      	svc	2
   2239e:	287f      	cmp	r0, #127	@ 0x7f
   223a0:	d906      	bls.n	223b0 <_ZN20complex_full_dynamic3app17h61616b9c7f06b1d1E+0xcc>
   223a2:	a805      	add	r0, sp, #20
   223a4:	f006 feda 	bl	2915c <_ZN9allow_pin12full_dynamic17unshare_if_shared17h9f78cce76fd1eb6dE>
   223a8:	a813      	add	r0, sp, #76	@ 0x4c
   223aa:	f006 fed7 	bl	2915c <_ZN9allow_pin12full_dynamic17unshare_if_shared17h9f78cce76fd1eb6dE>
   223ae:	4634      	mov	r4, r6
   223b0:	2c00      	cmp	r4, #0
   223b2:	d003      	beq.n	223bc <_ZN20complex_full_dynamic3app17h61616b9c7f06b1d1E+0xd8>
   223b4:	9c03      	ldr	r4, [sp, #12]
   223b6:	6061      	str	r1, [r4, #4]
   223b8:	2001      	movs	r0, #1
   223ba:	e009      	b.n	223d0 <_ZN20complex_full_dynamic3app17h61616b9c7f06b1d1E+0xec>
   223bc:	a813      	add	r0, sp, #76	@ 0x4c
   223be:	f006 fecd 	bl	2915c <_ZN9allow_pin12full_dynamic17unshare_if_shared17h9f78cce76fd1eb6dE>
   223c2:	9c03      	ldr	r4, [sp, #12]
   223c4:	1c60      	adds	r0, r4, #1
   223c6:	221a      	movs	r2, #26
   223c8:	4629      	mov	r1, r5
   223ca:	f007 f8a0 	bl	2950e <__aeabi_memcpy>
   223ce:	2000      	movs	r0, #0
   223d0:	7020      	strb	r0, [r4, #0]
   223d2:	a813      	add	r0, sp, #76	@ 0x4c
   223d4:	f006 fec2 	bl	2915c <_ZN9allow_pin12full_dynamic17unshare_if_shared17h9f78cce76fd1eb6dE>
   223d8:	a805      	add	r0, sp, #20
   223da:	f006 febf 	bl	2915c <_ZN9allow_pin12full_dynamic17unshare_if_shared17h9f78cce76fd1eb6dE>
   223de:	b021      	add	sp, #132	@ 0x84
   223e0:	bdf0      	pop	{r4, r5, r6, r7, pc}
   223e2:	46c0      	nop			@ (mov r8, r8)
   223e4:	00002048 	.word	0x00002048

000223e8 <_ZN20complex_full_dynamic3app17h649a6edd028050b4E>:
   223e8:	b5f0      	push	{r4, r5, r6, r7, lr}
   223ea:	af03      	add	r7, sp, #12
   223ec:	b0af      	sub	sp, #188	@ 0xbc
   223ee:	9006      	str	r0, [sp, #24]
   223f0:	ae07      	add	r6, sp, #28
   223f2:	2002      	movs	r0, #2
   223f4:	9005      	str	r0, [sp, #20]
   223f6:	7230      	strb	r0, [r6, #8]
   223f8:	360c      	adds	r6, #12
   223fa:	2522      	movs	r5, #34	@ 0x22
   223fc:	4630      	mov	r0, r6
   223fe:	462a      	mov	r2, r5
   22400:	f007 f885 	bl	2950e <__aeabi_memcpy>
   22404:	ac13      	add	r4, sp, #76	@ 0x4c
   22406:	4620      	mov	r0, r4
   22408:	300c      	adds	r0, #12
   2240a:	2151      	movs	r1, #81	@ 0x51
   2240c:	9004      	str	r0, [sp, #16]
   2240e:	9103      	str	r1, [sp, #12]
   22410:	f006 fed0 	bl	291b4 <__aeabi_memclr4>
   22414:	9805      	ldr	r0, [sp, #20]
   22416:	7220      	strb	r0, [r4, #8]
   22418:	2404      	movs	r4, #4
   2241a:	9500      	str	r5, [sp, #0]
   2241c:	9401      	str	r4, [sp, #4]
   2241e:	a82b      	add	r0, sp, #172	@ 0xac
   22420:	492e      	ldr	r1, [pc, #184]	@ (224dc <_ZN20complex_full_dynamic3app17h649a6edd028050b4E+0xf4>)
   22422:	2509      	movs	r5, #9
   22424:	462a      	mov	r2, r5
   22426:	4633      	mov	r3, r6
   22428:	f006 feac 	bl	29184 <_ZN9allow_pin13dynamic_allow17h33d41317a2da4f1cE>
   2242c:	982b      	ldr	r0, [sp, #172]	@ 0xac
   2242e:	2802      	cmp	r0, #2
   22430:	d102      	bne.n	22438 <_ZN20complex_full_dynamic3app17h649a6edd028050b4E+0x50>
   22432:	992c      	ldr	r1, [sp, #176]	@ 0xb0
   22434:	4a29      	ldr	r2, [pc, #164]	@ (224dc <_ZN20complex_full_dynamic3app17h649a6edd028050b4E+0xf4>)
   22436:	e004      	b.n	22442 <_ZN20complex_full_dynamic3app17h649a6edd028050b4E+0x5a>
   22438:	a907      	add	r1, sp, #28
   2243a:	720c      	strb	r4, [r1, #8]
   2243c:	9508      	str	r5, [sp, #32]
   2243e:	4a27      	ldr	r2, [pc, #156]	@ (224dc <_ZN20complex_full_dynamic3app17h649a6edd028050b4E+0xf4>)
   22440:	9207      	str	r2, [sp, #28]
   22442:	2501      	movs	r5, #1
   22444:	2802      	cmp	r0, #2
   22446:	d02f      	beq.n	224a8 <_ZN20complex_full_dynamic3app17h649a6edd028050b4E+0xc0>
   22448:	a813      	add	r0, sp, #76	@ 0x4c
   2244a:	7a00      	ldrb	r0, [r0, #8]
   2244c:	2802      	cmp	r0, #2
   2244e:	d10f      	bne.n	22470 <_ZN20complex_full_dynamic3app17h649a6edd028050b4E+0x88>
   22450:	2603      	movs	r6, #3
   22452:	9803      	ldr	r0, [sp, #12]
   22454:	9000      	str	r0, [sp, #0]
   22456:	9601      	str	r6, [sp, #4]
   22458:	a82b      	add	r0, sp, #172	@ 0xac
   2245a:	2409      	movs	r4, #9
   2245c:	4611      	mov	r1, r2
   2245e:	4622      	mov	r2, r4
   22460:	9b04      	ldr	r3, [sp, #16]
   22462:	f006 fe8f 	bl	29184 <_ZN9allow_pin13dynamic_allow17h33d41317a2da4f1cE>
   22466:	982b      	ldr	r0, [sp, #172]	@ 0xac
   22468:	2802      	cmp	r0, #2
   2246a:	d106      	bne.n	2247a <_ZN20complex_full_dynamic3app17h649a6edd028050b4E+0x92>
   2246c:	992c      	ldr	r1, [sp, #176]	@ 0xb0
   2246e:	e000      	b.n	22472 <_ZN20complex_full_dynamic3app17h649a6edd028050b4E+0x8a>
   22470:	2103      	movs	r1, #3
   22472:	4628      	mov	r0, r5
   22474:	2800      	cmp	r0, #0
   22476:	d008      	beq.n	2248a <_ZN20complex_full_dynamic3app17h649a6edd028050b4E+0xa2>
   22478:	e016      	b.n	224a8 <_ZN20complex_full_dynamic3app17h649a6edd028050b4E+0xc0>
   2247a:	a813      	add	r0, sp, #76	@ 0x4c
   2247c:	7206      	strb	r6, [r0, #8]
   2247e:	9414      	str	r4, [sp, #80]	@ 0x50
   22480:	4816      	ldr	r0, [pc, #88]	@ (224dc <_ZN20complex_full_dynamic3app17h649a6edd028050b4E+0xf4>)
   22482:	9013      	str	r0, [sp, #76]	@ 0x4c
   22484:	2000      	movs	r0, #0
   22486:	2800      	cmp	r0, #0
   22488:	d10e      	bne.n	224a8 <_ZN20complex_full_dynamic3app17h649a6edd028050b4E+0xc0>
   2248a:	4814      	ldr	r0, [pc, #80]	@ (224dc <_ZN20complex_full_dynamic3app17h649a6edd028050b4E+0xf4>)
   2248c:	2109      	movs	r1, #9
   2248e:	2400      	movs	r4, #0
   22490:	460a      	mov	r2, r1
   22492:	4623      	mov	r3, r4
   22494:	df02      	svc	2
   22496:	287f      	cmp	r0, #127	@ 0x7f
   22498:	d906      	bls.n	224a8 <_ZN20complex_full_dynamic3app17h649a6edd028050b4E+0xc0>
   2249a:	a807      	add	r0, sp, #28
   2249c:	f006 fe5e 	bl	2915c <_ZN9allow_pin12full_dynamic17unshare_if_shared17h9f78cce76fd1eb6dE>
   224a0:	a813      	add	r0, sp, #76	@ 0x4c
   224a2:	f006 fe5b 	bl	2915c <_ZN9allow_pin12full_dynamic17unshare_if_shared17h9f78cce76fd1eb6dE>
   224a6:	4625      	mov	r5, r4
   224a8:	2d00      	cmp	r5, #0
   224aa:	d003      	beq.n	224b4 <_ZN20complex_full_dynamic3app17h649a6edd028050b4E+0xcc>
   224ac:	9c06      	ldr	r4, [sp, #24]
   224ae:	6061      	str	r1, [r4, #4]
   224b0:	2001      	movs	r0, #1
   224b2:	e009      	b.n	224c8 <_ZN20complex_full_dynamic3app17h649a6edd028050b4E+0xe0>
   224b4:	a813      	add	r0, sp, #76	@ 0x4c
   224b6:	f006 fe51 	bl	2915c <_ZN9allow_pin12full_dynamic17unshare_if_shared17h9f78cce76fd1eb6dE>
   224ba:	9c06      	ldr	r4, [sp, #24]
   224bc:	1c60      	adds	r0, r4, #1
   224be:	2251      	movs	r2, #81	@ 0x51
   224c0:	9904      	ldr	r1, [sp, #16]
   224c2:	f007 f824 	bl	2950e <__aeabi_memcpy>
   224c6:	2000      	movs	r0, #0
   224c8:	7020      	strb	r0, [r4, #0]
   224ca:	a813      	add	r0, sp, #76	@ 0x4c
   224cc:	f006 fe46 	bl	2915c <_ZN9allow_pin12full_dynamic17unshare_if_shared17h9f78cce76fd1eb6dE>
   224d0:	a807      	add	r0, sp, #28
   224d2:	f006 fe43 	bl	2915c <_ZN9allow_pin12full_dynamic17unshare_if_shared17h9f78cce76fd1eb6dE>
   224d6:	b02f      	add	sp, #188	@ 0xbc
   224d8:	bdf0      	pop	{r4, r5, r6, r7, pc}
   224da:	46c0      	nop			@ (mov r8, r8)
   224dc:	0000055e 	.word	0x0000055e

000224e0 <_ZN20complex_full_dynamic3app17h68f72fe52a0025dcE>:
   224e0:	b5f0      	push	{r4, r5, r6, r7, lr}
   224e2:	af03      	add	r7, sp, #12
   224e4:	b0bd      	sub	sp, #244	@ 0xf4
   224e6:	9005      	str	r0, [sp, #20]
   224e8:	ae06      	add	r6, sp, #24
   224ea:	2402      	movs	r4, #2
   224ec:	7234      	strb	r4, [r6, #8]
   224ee:	360c      	adds	r6, #12
   224f0:	224f      	movs	r2, #79	@ 0x4f
   224f2:	9204      	str	r2, [sp, #16]
   224f4:	4630      	mov	r0, r6
   224f6:	f007 f80a 	bl	2950e <__aeabi_memcpy>
   224fa:	ad1d      	add	r5, sp, #116	@ 0x74
   224fc:	4628      	mov	r0, r5
   224fe:	300c      	adds	r0, #12
   22500:	2161      	movs	r1, #97	@ 0x61
   22502:	9003      	str	r0, [sp, #12]
   22504:	9102      	str	r1, [sp, #8]
   22506:	f006 fe55 	bl	291b4 <__aeabi_memclr4>
   2250a:	722c      	strb	r4, [r5, #8]
   2250c:	4625      	mov	r5, r4
   2250e:	2004      	movs	r0, #4
   22510:	9904      	ldr	r1, [sp, #16]
   22512:	9100      	str	r1, [sp, #0]
   22514:	9004      	str	r0, [sp, #16]
   22516:	9001      	str	r0, [sp, #4]
   22518:	20db      	movs	r0, #219	@ 0xdb
   2251a:	0044      	lsls	r4, r0, #1
   2251c:	a839      	add	r0, sp, #228	@ 0xe4
   2251e:	4621      	mov	r1, r4
   22520:	462a      	mov	r2, r5
   22522:	4633      	mov	r3, r6
   22524:	f006 fe2e 	bl	29184 <_ZN9allow_pin13dynamic_allow17h33d41317a2da4f1cE>
   22528:	9839      	ldr	r0, [sp, #228]	@ 0xe4
   2252a:	2802      	cmp	r0, #2
   2252c:	d101      	bne.n	22532 <_ZN20complex_full_dynamic3app17h68f72fe52a0025dcE+0x52>
   2252e:	993a      	ldr	r1, [sp, #232]	@ 0xe8
   22530:	e004      	b.n	2253c <_ZN20complex_full_dynamic3app17h68f72fe52a0025dcE+0x5c>
   22532:	a906      	add	r1, sp, #24
   22534:	9a04      	ldr	r2, [sp, #16]
   22536:	720a      	strb	r2, [r1, #8]
   22538:	9507      	str	r5, [sp, #28]
   2253a:	9406      	str	r4, [sp, #24]
   2253c:	2501      	movs	r5, #1
   2253e:	2802      	cmp	r0, #2
   22540:	d02e      	beq.n	225a0 <_ZN20complex_full_dynamic3app17h68f72fe52a0025dcE+0xc0>
   22542:	a81d      	add	r0, sp, #116	@ 0x74
   22544:	7a00      	ldrb	r0, [r0, #8]
   22546:	2103      	movs	r1, #3
   22548:	2802      	cmp	r0, #2
   2254a:	d10e      	bne.n	2256a <_ZN20complex_full_dynamic3app17h68f72fe52a0025dcE+0x8a>
   2254c:	9802      	ldr	r0, [sp, #8]
   2254e:	9000      	str	r0, [sp, #0]
   22550:	9104      	str	r1, [sp, #16]
   22552:	9101      	str	r1, [sp, #4]
   22554:	a839      	add	r0, sp, #228	@ 0xe4
   22556:	2608      	movs	r6, #8
   22558:	4621      	mov	r1, r4
   2255a:	4632      	mov	r2, r6
   2255c:	9b03      	ldr	r3, [sp, #12]
   2255e:	f006 fe11 	bl	29184 <_ZN9allow_pin13dynamic_allow17h33d41317a2da4f1cE>
   22562:	9839      	ldr	r0, [sp, #228]	@ 0xe4
   22564:	2802      	cmp	r0, #2
   22566:	d104      	bne.n	22572 <_ZN20complex_full_dynamic3app17h68f72fe52a0025dcE+0x92>
   22568:	993a      	ldr	r1, [sp, #232]	@ 0xe8
   2256a:	4628      	mov	r0, r5
   2256c:	2800      	cmp	r0, #0
   2256e:	d008      	beq.n	22582 <_ZN20complex_full_dynamic3app17h68f72fe52a0025dcE+0xa2>
   22570:	e016      	b.n	225a0 <_ZN20complex_full_dynamic3app17h68f72fe52a0025dcE+0xc0>
   22572:	a81d      	add	r0, sp, #116	@ 0x74
   22574:	9904      	ldr	r1, [sp, #16]
   22576:	7201      	strb	r1, [r0, #8]
   22578:	961e      	str	r6, [sp, #120]	@ 0x78
   2257a:	941d      	str	r4, [sp, #116]	@ 0x74
   2257c:	2000      	movs	r0, #0
   2257e:	2800      	cmp	r0, #0
   22580:	d10e      	bne.n	225a0 <_ZN20complex_full_dynamic3app17h68f72fe52a0025dcE+0xc0>
   22582:	2102      	movs	r1, #2
   22584:	2208      	movs	r2, #8
   22586:	4620      	mov	r0, r4
   22588:	2400      	movs	r4, #0
   2258a:	4623      	mov	r3, r4
   2258c:	df02      	svc	2
   2258e:	287f      	cmp	r0, #127	@ 0x7f
   22590:	d906      	bls.n	225a0 <_ZN20complex_full_dynamic3app17h68f72fe52a0025dcE+0xc0>
   22592:	a806      	add	r0, sp, #24
   22594:	f006 fde2 	bl	2915c <_ZN9allow_pin12full_dynamic17unshare_if_shared17h9f78cce76fd1eb6dE>
   22598:	a81d      	add	r0, sp, #116	@ 0x74
   2259a:	f006 fddf 	bl	2915c <_ZN9allow_pin12full_dynamic17unshare_if_shared17h9f78cce76fd1eb6dE>
   2259e:	4625      	mov	r5, r4
   225a0:	2d00      	cmp	r5, #0
   225a2:	d003      	beq.n	225ac <_ZN20complex_full_dynamic3app17h68f72fe52a0025dcE+0xcc>
   225a4:	9c05      	ldr	r4, [sp, #20]
   225a6:	6061      	str	r1, [r4, #4]
   225a8:	2001      	movs	r0, #1
   225aa:	e009      	b.n	225c0 <_ZN20complex_full_dynamic3app17h68f72fe52a0025dcE+0xe0>
   225ac:	a81d      	add	r0, sp, #116	@ 0x74
   225ae:	f006 fdd5 	bl	2915c <_ZN9allow_pin12full_dynamic17unshare_if_shared17h9f78cce76fd1eb6dE>
   225b2:	9c05      	ldr	r4, [sp, #20]
   225b4:	1c60      	adds	r0, r4, #1
   225b6:	2261      	movs	r2, #97	@ 0x61
   225b8:	9903      	ldr	r1, [sp, #12]
   225ba:	f006 ffa8 	bl	2950e <__aeabi_memcpy>
   225be:	2000      	movs	r0, #0
   225c0:	7020      	strb	r0, [r4, #0]
   225c2:	a81d      	add	r0, sp, #116	@ 0x74
   225c4:	f006 fdca 	bl	2915c <_ZN9allow_pin12full_dynamic17unshare_if_shared17h9f78cce76fd1eb6dE>
   225c8:	a806      	add	r0, sp, #24
   225ca:	f006 fdc7 	bl	2915c <_ZN9allow_pin12full_dynamic17unshare_if_shared17h9f78cce76fd1eb6dE>
   225ce:	b03d      	add	sp, #244	@ 0xf4
   225d0:	bdf0      	pop	{r4, r5, r6, r7, pc}
   225d2:	d4d4      	bmi.n	2257e <_ZN20complex_full_dynamic3app17h68f72fe52a0025dcE+0x9e>

000225d4 <_ZN20complex_full_dynamic3app17h692c8413634e7b6aE>:
   225d4:	b5f0      	push	{r4, r5, r6, r7, lr}
   225d6:	af03      	add	r7, sp, #12
   225d8:	b09f      	sub	sp, #124	@ 0x7c
   225da:	9004      	str	r0, [sp, #16]
   225dc:	ac06      	add	r4, sp, #24
   225de:	2502      	movs	r5, #2
   225e0:	7225      	strb	r5, [r4, #8]
   225e2:	340c      	adds	r4, #12
   225e4:	2627      	movs	r6, #39	@ 0x27
   225e6:	4620      	mov	r0, r4
   225e8:	4632      	mov	r2, r6
   225ea:	f006 ff90 	bl	2950e <__aeabi_memcpy>
   225ee:	a813      	add	r0, sp, #76	@ 0x4c
   225f0:	9005      	str	r0, [sp, #20]
   225f2:	7205      	strb	r5, [r0, #8]
   225f4:	2500      	movs	r5, #0
   225f6:	951a      	str	r5, [sp, #104]	@ 0x68
   225f8:	9519      	str	r5, [sp, #100]	@ 0x64
   225fa:	9518      	str	r5, [sp, #96]	@ 0x60
   225fc:	9517      	str	r5, [sp, #92]	@ 0x5c
   225fe:	9516      	str	r5, [sp, #88]	@ 0x58
   22600:	2004      	movs	r0, #4
   22602:	9600      	str	r6, [sp, #0]
   22604:	9003      	str	r0, [sp, #12]
   22606:	9001      	str	r0, [sp, #4]
   22608:	a81b      	add	r0, sp, #108	@ 0x6c
   2260a:	4933      	ldr	r1, [pc, #204]	@ (226d8 <_ZN20complex_full_dynamic3app17h692c8413634e7b6aE+0x104>)
   2260c:	2606      	movs	r6, #6
   2260e:	4632      	mov	r2, r6
   22610:	4623      	mov	r3, r4
   22612:	f006 fdb7 	bl	29184 <_ZN9allow_pin13dynamic_allow17h33d41317a2da4f1cE>
   22616:	981b      	ldr	r0, [sp, #108]	@ 0x6c
   22618:	2802      	cmp	r0, #2
   2261a:	d102      	bne.n	22622 <_ZN20complex_full_dynamic3app17h692c8413634e7b6aE+0x4e>
   2261c:	991c      	ldr	r1, [sp, #112]	@ 0x70
   2261e:	4a2e      	ldr	r2, [pc, #184]	@ (226d8 <_ZN20complex_full_dynamic3app17h692c8413634e7b6aE+0x104>)
   22620:	e005      	b.n	2262e <_ZN20complex_full_dynamic3app17h692c8413634e7b6aE+0x5a>
   22622:	a906      	add	r1, sp, #24
   22624:	9a03      	ldr	r2, [sp, #12]
   22626:	720a      	strb	r2, [r1, #8]
   22628:	9607      	str	r6, [sp, #28]
   2262a:	4a2b      	ldr	r2, [pc, #172]	@ (226d8 <_ZN20complex_full_dynamic3app17h692c8413634e7b6aE+0x104>)
   2262c:	9206      	str	r2, [sp, #24]
   2262e:	9c05      	ldr	r4, [sp, #20]
   22630:	340c      	adds	r4, #12
   22632:	2601      	movs	r6, #1
   22634:	2802      	cmp	r0, #2
   22636:	d105      	bne.n	22644 <_ZN20complex_full_dynamic3app17h692c8413634e7b6aE+0x70>
   22638:	9d04      	ldr	r5, [sp, #16]
   2263a:	2e00      	cmp	r6, #0
   2263c:	d03a      	beq.n	226b4 <_ZN20complex_full_dynamic3app17h692c8413634e7b6aE+0xe0>
   2263e:	6069      	str	r1, [r5, #4]
   22640:	2001      	movs	r0, #1
   22642:	e040      	b.n	226c6 <_ZN20complex_full_dynamic3app17h692c8413634e7b6aE+0xf2>
   22644:	a813      	add	r0, sp, #76	@ 0x4c
   22646:	7a00      	ldrb	r0, [r0, #8]
   22648:	2802      	cmp	r0, #2
   2264a:	9405      	str	r4, [sp, #20]
   2264c:	d111      	bne.n	22672 <_ZN20complex_full_dynamic3app17h692c8413634e7b6aE+0x9e>
   2264e:	2103      	movs	r1, #3
   22650:	2014      	movs	r0, #20
   22652:	9000      	str	r0, [sp, #0]
   22654:	9103      	str	r1, [sp, #12]
   22656:	9101      	str	r1, [sp, #4]
   22658:	a81b      	add	r0, sp, #108	@ 0x6c
   2265a:	4623      	mov	r3, r4
   2265c:	2405      	movs	r4, #5
   2265e:	4611      	mov	r1, r2
   22660:	4622      	mov	r2, r4
   22662:	f006 fd8f 	bl	29184 <_ZN9allow_pin13dynamic_allow17h33d41317a2da4f1cE>
   22666:	981b      	ldr	r0, [sp, #108]	@ 0x6c
   22668:	2802      	cmp	r0, #2
   2266a:	d107      	bne.n	2267c <_ZN20complex_full_dynamic3app17h692c8413634e7b6aE+0xa8>
   2266c:	991c      	ldr	r1, [sp, #112]	@ 0x70
   2266e:	4635      	mov	r5, r6
   22670:	e00a      	b.n	22688 <_ZN20complex_full_dynamic3app17h692c8413634e7b6aE+0xb4>
   22672:	2103      	movs	r1, #3
   22674:	4635      	mov	r5, r6
   22676:	2d00      	cmp	r5, #0
   22678:	d1de      	bne.n	22638 <_ZN20complex_full_dynamic3app17h692c8413634e7b6aE+0x64>
   2267a:	e008      	b.n	2268e <_ZN20complex_full_dynamic3app17h692c8413634e7b6aE+0xba>
   2267c:	a813      	add	r0, sp, #76	@ 0x4c
   2267e:	9903      	ldr	r1, [sp, #12]
   22680:	7201      	strb	r1, [r0, #8]
   22682:	9414      	str	r4, [sp, #80]	@ 0x50
   22684:	4814      	ldr	r0, [pc, #80]	@ (226d8 <_ZN20complex_full_dynamic3app17h692c8413634e7b6aE+0x104>)
   22686:	9013      	str	r0, [sp, #76]	@ 0x4c
   22688:	9c05      	ldr	r4, [sp, #20]
   2268a:	2d00      	cmp	r5, #0
   2268c:	d1d4      	bne.n	22638 <_ZN20complex_full_dynamic3app17h692c8413634e7b6aE+0x64>
   2268e:	4812      	ldr	r0, [pc, #72]	@ (226d8 <_ZN20complex_full_dynamic3app17h692c8413634e7b6aE+0x104>)
   22690:	2106      	movs	r1, #6
   22692:	2205      	movs	r2, #5
   22694:	2400      	movs	r4, #0
   22696:	4623      	mov	r3, r4
   22698:	df02      	svc	2
   2269a:	287f      	cmp	r0, #127	@ 0x7f
   2269c:	9d04      	ldr	r5, [sp, #16]
   2269e:	d906      	bls.n	226ae <_ZN20complex_full_dynamic3app17h692c8413634e7b6aE+0xda>
   226a0:	a806      	add	r0, sp, #24
   226a2:	f006 fd5b 	bl	2915c <_ZN9allow_pin12full_dynamic17unshare_if_shared17h9f78cce76fd1eb6dE>
   226a6:	a813      	add	r0, sp, #76	@ 0x4c
   226a8:	f006 fd58 	bl	2915c <_ZN9allow_pin12full_dynamic17unshare_if_shared17h9f78cce76fd1eb6dE>
   226ac:	4626      	mov	r6, r4
   226ae:	9c05      	ldr	r4, [sp, #20]
   226b0:	2e00      	cmp	r6, #0
   226b2:	d1c4      	bne.n	2263e <_ZN20complex_full_dynamic3app17h692c8413634e7b6aE+0x6a>
   226b4:	a813      	add	r0, sp, #76	@ 0x4c
   226b6:	f006 fd51 	bl	2915c <_ZN9allow_pin12full_dynamic17unshare_if_shared17h9f78cce76fd1eb6dE>
   226ba:	1c68      	adds	r0, r5, #1
   226bc:	2214      	movs	r2, #20
   226be:	4621      	mov	r1, r4
   226c0:	f006 ff25 	bl	2950e <__aeabi_memcpy>
   226c4:	2000      	movs	r0, #0
   226c6:	7028      	strb	r0, [r5, #0]
   226c8:	a813      	add	r0, sp, #76	@ 0x4c
   226ca:	f006 fd47 	bl	2915c <_ZN9allow_pin12full_dynamic17unshare_if_shared17h9f78cce76fd1eb6dE>
   226ce:	a806      	add	r0, sp, #24
   226d0:	f006 fd44 	bl	2915c <_ZN9allow_pin12full_dynamic17unshare_if_shared17h9f78cce76fd1eb6dE>
   226d4:	b01f      	add	sp, #124	@ 0x7c
   226d6:	bdf0      	pop	{r4, r5, r6, r7, pc}
   226d8:	000022c9 	.word	0x000022c9

000226dc <_ZN20complex_full_dynamic3app17h6adceebf49cb086aE>:
   226dc:	b5f0      	push	{r4, r5, r6, r7, lr}
   226de:	af03      	add	r7, sp, #12
   226e0:	b0a3      	sub	sp, #140	@ 0x8c
   226e2:	9006      	str	r0, [sp, #24]
   226e4:	ae07      	add	r6, sp, #28
   226e6:	2002      	movs	r0, #2
   226e8:	9005      	str	r0, [sp, #20]
   226ea:	7230      	strb	r0, [r6, #8]
   226ec:	360c      	adds	r6, #12
   226ee:	2523      	movs	r5, #35	@ 0x23
   226f0:	4630      	mov	r0, r6
   226f2:	462a      	mov	r2, r5
   226f4:	f006 ff0b 	bl	2950e <__aeabi_memcpy>
   226f8:	ac13      	add	r4, sp, #76	@ 0x4c
   226fa:	4620      	mov	r0, r4
   226fc:	300c      	adds	r0, #12
   226fe:	2124      	movs	r1, #36	@ 0x24
   22700:	9004      	str	r0, [sp, #16]
   22702:	9103      	str	r1, [sp, #12]
   22704:	f006 fd56 	bl	291b4 <__aeabi_memclr4>
   22708:	9805      	ldr	r0, [sp, #20]
   2270a:	7220      	strb	r0, [r4, #8]
   2270c:	2404      	movs	r4, #4
   2270e:	9500      	str	r5, [sp, #0]
   22710:	9401      	str	r4, [sp, #4]
   22712:	a81f      	add	r0, sp, #124	@ 0x7c
   22714:	4d2d      	ldr	r5, [pc, #180]	@ (227cc <_ZN20complex_full_dynamic3app17h6adceebf49cb086aE+0xf0>)
   22716:	4629      	mov	r1, r5
   22718:	4622      	mov	r2, r4
   2271a:	4633      	mov	r3, r6
   2271c:	f006 fd32 	bl	29184 <_ZN9allow_pin13dynamic_allow17h33d41317a2da4f1cE>
   22720:	981f      	ldr	r0, [sp, #124]	@ 0x7c
   22722:	2802      	cmp	r0, #2
   22724:	d102      	bne.n	2272c <_ZN20complex_full_dynamic3app17h6adceebf49cb086aE+0x50>
   22726:	462e      	mov	r6, r5
   22728:	9920      	ldr	r1, [sp, #128]	@ 0x80
   2272a:	e004      	b.n	22736 <_ZN20complex_full_dynamic3app17h6adceebf49cb086aE+0x5a>
   2272c:	a907      	add	r1, sp, #28
   2272e:	720c      	strb	r4, [r1, #8]
   22730:	9408      	str	r4, [sp, #32]
   22732:	462e      	mov	r6, r5
   22734:	9507      	str	r5, [sp, #28]
   22736:	2501      	movs	r5, #1
   22738:	2802      	cmp	r0, #2
   2273a:	d02e      	beq.n	2279a <_ZN20complex_full_dynamic3app17h6adceebf49cb086aE+0xbe>
   2273c:	a813      	add	r0, sp, #76	@ 0x4c
   2273e:	7a00      	ldrb	r0, [r0, #8]
   22740:	2103      	movs	r1, #3
   22742:	2802      	cmp	r0, #2
   22744:	d10e      	bne.n	22764 <_ZN20complex_full_dynamic3app17h6adceebf49cb086aE+0x88>
   22746:	9803      	ldr	r0, [sp, #12]
   22748:	9000      	str	r0, [sp, #0]
   2274a:	9105      	str	r1, [sp, #20]
   2274c:	9101      	str	r1, [sp, #4]
   2274e:	a81f      	add	r0, sp, #124	@ 0x7c
   22750:	2408      	movs	r4, #8
   22752:	4631      	mov	r1, r6
   22754:	4622      	mov	r2, r4
   22756:	9b04      	ldr	r3, [sp, #16]
   22758:	f006 fd14 	bl	29184 <_ZN9allow_pin13dynamic_allow17h33d41317a2da4f1cE>
   2275c:	981f      	ldr	r0, [sp, #124]	@ 0x7c
   2275e:	2802      	cmp	r0, #2
   22760:	d104      	bne.n	2276c <_ZN20complex_full_dynamic3app17h6adceebf49cb086aE+0x90>
   22762:	9920      	ldr	r1, [sp, #128]	@ 0x80
   22764:	4628      	mov	r0, r5
   22766:	2800      	cmp	r0, #0
   22768:	d008      	beq.n	2277c <_ZN20complex_full_dynamic3app17h6adceebf49cb086aE+0xa0>
   2276a:	e016      	b.n	2279a <_ZN20complex_full_dynamic3app17h6adceebf49cb086aE+0xbe>
   2276c:	a813      	add	r0, sp, #76	@ 0x4c
   2276e:	9905      	ldr	r1, [sp, #20]
   22770:	7201      	strb	r1, [r0, #8]
   22772:	9414      	str	r4, [sp, #80]	@ 0x50
   22774:	9613      	str	r6, [sp, #76]	@ 0x4c
   22776:	2000      	movs	r0, #0
   22778:	2800      	cmp	r0, #0
   2277a:	d10e      	bne.n	2279a <_ZN20complex_full_dynamic3app17h6adceebf49cb086aE+0xbe>
   2277c:	4813      	ldr	r0, [pc, #76]	@ (227cc <_ZN20complex_full_dynamic3app17h6adceebf49cb086aE+0xf0>)
   2277e:	2104      	movs	r1, #4
   22780:	2208      	movs	r2, #8
   22782:	2400      	movs	r4, #0
   22784:	4623      	mov	r3, r4
   22786:	df02      	svc	2
   22788:	287f      	cmp	r0, #127	@ 0x7f
   2278a:	d906      	bls.n	2279a <_ZN20complex_full_dynamic3app17h6adceebf49cb086aE+0xbe>
   2278c:	a807      	add	r0, sp, #28
   2278e:	f006 fce5 	bl	2915c <_ZN9allow_pin12full_dynamic17unshare_if_shared17h9f78cce76fd1eb6dE>
   22792:	a813      	add	r0, sp, #76	@ 0x4c
   22794:	f006 fce2 	bl	2915c <_ZN9allow_pin12full_dynamic17unshare_if_shared17h9f78cce76fd1eb6dE>
   22798:	4625      	mov	r5, r4
   2279a:	2d00      	cmp	r5, #0
   2279c:	d003      	beq.n	227a6 <_ZN20complex_full_dynamic3app17h6adceebf49cb086aE+0xca>
   2279e:	9c06      	ldr	r4, [sp, #24]
   227a0:	6061      	str	r1, [r4, #4]
   227a2:	2001      	movs	r0, #1
   227a4:	e009      	b.n	227ba <_ZN20complex_full_dynamic3app17h6adceebf49cb086aE+0xde>
   227a6:	a813      	add	r0, sp, #76	@ 0x4c
   227a8:	f006 fcd8 	bl	2915c <_ZN9allow_pin12full_dynamic17unshare_if_shared17h9f78cce76fd1eb6dE>
   227ac:	9c06      	ldr	r4, [sp, #24]
   227ae:	1c60      	adds	r0, r4, #1
   227b0:	2224      	movs	r2, #36	@ 0x24
   227b2:	9904      	ldr	r1, [sp, #16]
   227b4:	f006 feab 	bl	2950e <__aeabi_memcpy>
   227b8:	2000      	movs	r0, #0
   227ba:	7020      	strb	r0, [r4, #0]
   227bc:	a813      	add	r0, sp, #76	@ 0x4c
   227be:	f006 fccd 	bl	2915c <_ZN9allow_pin12full_dynamic17unshare_if_shared17h9f78cce76fd1eb6dE>
   227c2:	a807      	add	r0, sp, #28
   227c4:	f006 fcca 	bl	2915c <_ZN9allow_pin12full_dynamic17unshare_if_shared17h9f78cce76fd1eb6dE>
   227c8:	b023      	add	sp, #140	@ 0x8c
   227ca:	bdf0      	pop	{r4, r5, r6, r7, pc}
   227cc:	00001bd6 	.word	0x00001bd6

000227d0 <_ZN20complex_full_dynamic3app17h6ea994c075a77771E>:
   227d0:	b5f0      	push	{r4, r5, r6, r7, lr}
   227d2:	af03      	add	r7, sp, #12
   227d4:	b0af      	sub	sp, #188	@ 0xbc
   227d6:	9006      	str	r0, [sp, #24]
   227d8:	ae07      	add	r6, sp, #28
   227da:	2002      	movs	r0, #2
   227dc:	9005      	str	r0, [sp, #20]
   227de:	7230      	strb	r0, [r6, #8]
   227e0:	360c      	adds	r6, #12
   227e2:	2527      	movs	r5, #39	@ 0x27
   227e4:	4630      	mov	r0, r6
   227e6:	462a      	mov	r2, r5
   227e8:	f006 fe91 	bl	2950e <__aeabi_memcpy>
   227ec:	ac14      	add	r4, sp, #80	@ 0x50
   227ee:	4620      	mov	r0, r4
   227f0:	300c      	adds	r0, #12
   227f2:	214f      	movs	r1, #79	@ 0x4f
   227f4:	9004      	str	r0, [sp, #16]
   227f6:	9103      	str	r1, [sp, #12]
   227f8:	f006 fcdc 	bl	291b4 <__aeabi_memclr4>
   227fc:	9805      	ldr	r0, [sp, #20]
   227fe:	7220      	strb	r0, [r4, #8]
   22800:	2404      	movs	r4, #4
   22802:	9500      	str	r5, [sp, #0]
   22804:	9401      	str	r4, [sp, #4]
   22806:	a82b      	add	r0, sp, #172	@ 0xac
   22808:	492d      	ldr	r1, [pc, #180]	@ (228c0 <_ZN20complex_full_dynamic3app17h6ea994c075a77771E+0xf0>)
   2280a:	2509      	movs	r5, #9
   2280c:	462a      	mov	r2, r5
   2280e:	4633      	mov	r3, r6
   22810:	f006 fcb8 	bl	29184 <_ZN9allow_pin13dynamic_allow17h33d41317a2da4f1cE>
   22814:	982b      	ldr	r0, [sp, #172]	@ 0xac
   22816:	2802      	cmp	r0, #2
   22818:	d102      	bne.n	22820 <_ZN20complex_full_dynamic3app17h6ea994c075a77771E+0x50>
   2281a:	992c      	ldr	r1, [sp, #176]	@ 0xb0
   2281c:	4a28      	ldr	r2, [pc, #160]	@ (228c0 <_ZN20complex_full_dynamic3app17h6ea994c075a77771E+0xf0>)
   2281e:	e004      	b.n	2282a <_ZN20complex_full_dynamic3app17h6ea994c075a77771E+0x5a>
   22820:	a907      	add	r1, sp, #28
   22822:	720c      	strb	r4, [r1, #8]
   22824:	9508      	str	r5, [sp, #32]
   22826:	4a26      	ldr	r2, [pc, #152]	@ (228c0 <_ZN20complex_full_dynamic3app17h6ea994c075a77771E+0xf0>)
   22828:	9207      	str	r2, [sp, #28]
   2282a:	2501      	movs	r5, #1
   2282c:	2802      	cmp	r0, #2
   2282e:	d02e      	beq.n	2288e <_ZN20complex_full_dynamic3app17h6ea994c075a77771E+0xbe>
   22830:	a814      	add	r0, sp, #80	@ 0x50
   22832:	7a00      	ldrb	r0, [r0, #8]
   22834:	2802      	cmp	r0, #2
   22836:	d10f      	bne.n	22858 <_ZN20complex_full_dynamic3app17h6ea994c075a77771E+0x88>
   22838:	2603      	movs	r6, #3
   2283a:	9803      	ldr	r0, [sp, #12]
   2283c:	9000      	str	r0, [sp, #0]
   2283e:	9601      	str	r6, [sp, #4]
   22840:	a82b      	add	r0, sp, #172	@ 0xac
   22842:	2400      	movs	r4, #0
   22844:	4611      	mov	r1, r2
   22846:	4622      	mov	r2, r4
   22848:	9b04      	ldr	r3, [sp, #16]
   2284a:	f006 fc9b 	bl	29184 <_ZN9allow_pin13dynamic_allow17h33d41317a2da4f1cE>
   2284e:	982b      	ldr	r0, [sp, #172]	@ 0xac
   22850:	2802      	cmp	r0, #2
   22852:	d106      	bne.n	22862 <_ZN20complex_full_dynamic3app17h6ea994c075a77771E+0x92>
   22854:	992c      	ldr	r1, [sp, #176]	@ 0xb0
   22856:	e000      	b.n	2285a <_ZN20complex_full_dynamic3app17h6ea994c075a77771E+0x8a>
   22858:	2103      	movs	r1, #3
   2285a:	462c      	mov	r4, r5
   2285c:	2c00      	cmp	r4, #0
   2285e:	d007      	beq.n	22870 <_ZN20complex_full_dynamic3app17h6ea994c075a77771E+0xa0>
   22860:	e015      	b.n	2288e <_ZN20complex_full_dynamic3app17h6ea994c075a77771E+0xbe>
   22862:	a814      	add	r0, sp, #80	@ 0x50
   22864:	7206      	strb	r6, [r0, #8]
   22866:	9415      	str	r4, [sp, #84]	@ 0x54
   22868:	4815      	ldr	r0, [pc, #84]	@ (228c0 <_ZN20complex_full_dynamic3app17h6ea994c075a77771E+0xf0>)
   2286a:	9014      	str	r0, [sp, #80]	@ 0x50
   2286c:	2c00      	cmp	r4, #0
   2286e:	d10e      	bne.n	2288e <_ZN20complex_full_dynamic3app17h6ea994c075a77771E+0xbe>
   22870:	4813      	ldr	r0, [pc, #76]	@ (228c0 <_ZN20complex_full_dynamic3app17h6ea994c075a77771E+0xf0>)
   22872:	2109      	movs	r1, #9
   22874:	2400      	movs	r4, #0
   22876:	4622      	mov	r2, r4
   22878:	4623      	mov	r3, r4
   2287a:	df02      	svc	2
   2287c:	287f      	cmp	r0, #127	@ 0x7f
   2287e:	d906      	bls.n	2288e <_ZN20complex_full_dynamic3app17h6ea994c075a77771E+0xbe>
   22880:	a807      	add	r0, sp, #28
   22882:	f006 fc6b 	bl	2915c <_ZN9allow_pin12full_dynamic17unshare_if_shared17h9f78cce76fd1eb6dE>
   22886:	a814      	add	r0, sp, #80	@ 0x50
   22888:	f006 fc68 	bl	2915c <_ZN9allow_pin12full_dynamic17unshare_if_shared17h9f78cce76fd1eb6dE>
   2288c:	4625      	mov	r5, r4
   2288e:	2d00      	cmp	r5, #0
   22890:	d003      	beq.n	2289a <_ZN20complex_full_dynamic3app17h6ea994c075a77771E+0xca>
   22892:	9c06      	ldr	r4, [sp, #24]
   22894:	6061      	str	r1, [r4, #4]
   22896:	2001      	movs	r0, #1
   22898:	e009      	b.n	228ae <_ZN20complex_full_dynamic3app17h6ea994c075a77771E+0xde>
   2289a:	a814      	add	r0, sp, #80	@ 0x50
   2289c:	f006 fc5e 	bl	2915c <_ZN9allow_pin12full_dynamic17unshare_if_shared17h9f78cce76fd1eb6dE>
   228a0:	9c06      	ldr	r4, [sp, #24]
   228a2:	1c60      	adds	r0, r4, #1
   228a4:	224f      	movs	r2, #79	@ 0x4f
   228a6:	9904      	ldr	r1, [sp, #16]
   228a8:	f006 fe31 	bl	2950e <__aeabi_memcpy>
   228ac:	2000      	movs	r0, #0
   228ae:	7020      	strb	r0, [r4, #0]
   228b0:	a814      	add	r0, sp, #80	@ 0x50
   228b2:	f006 fc53 	bl	2915c <_ZN9allow_pin12full_dynamic17unshare_if_shared17h9f78cce76fd1eb6dE>
   228b6:	a807      	add	r0, sp, #28
   228b8:	f006 fc50 	bl	2915c <_ZN9allow_pin12full_dynamic17unshare_if_shared17h9f78cce76fd1eb6dE>
   228bc:	b02f      	add	sp, #188	@ 0xbc
   228be:	bdf0      	pop	{r4, r5, r6, r7, pc}
   228c0:	00000b4c 	.word	0x00000b4c

000228c4 <_ZN20complex_full_dynamic3app17h73aae6c5e9e52d1dE>:
   228c4:	b5f0      	push	{r4, r5, r6, r7, lr}
   228c6:	af03      	add	r7, sp, #12
   228c8:	b0af      	sub	sp, #188	@ 0xbc
   228ca:	9005      	str	r0, [sp, #20]
   228cc:	ad06      	add	r5, sp, #24
   228ce:	2002      	movs	r0, #2
   228d0:	9004      	str	r0, [sp, #16]
   228d2:	7228      	strb	r0, [r5, #8]
   228d4:	350c      	adds	r5, #12
   228d6:	2627      	movs	r6, #39	@ 0x27
   228d8:	4628      	mov	r0, r5
   228da:	4632      	mov	r2, r6
   228dc:	f006 fe17 	bl	2950e <__aeabi_memcpy>
   228e0:	ac13      	add	r4, sp, #76	@ 0x4c
   228e2:	4620      	mov	r0, r4
   228e4:	300c      	adds	r0, #12
   228e6:	2151      	movs	r1, #81	@ 0x51
   228e8:	9003      	str	r0, [sp, #12]
   228ea:	9102      	str	r1, [sp, #8]
   228ec:	f006 fc62 	bl	291b4 <__aeabi_memclr4>
   228f0:	9804      	ldr	r0, [sp, #16]
   228f2:	7220      	strb	r0, [r4, #8]
   228f4:	2404      	movs	r4, #4
   228f6:	9600      	str	r6, [sp, #0]
   228f8:	9401      	str	r4, [sp, #4]
   228fa:	a82b      	add	r0, sp, #172	@ 0xac
   228fc:	492d      	ldr	r1, [pc, #180]	@ (229b4 <_ZN20complex_full_dynamic3app17h73aae6c5e9e52d1dE+0xf0>)
   228fe:	2600      	movs	r6, #0
   22900:	4632      	mov	r2, r6
   22902:	462b      	mov	r3, r5
   22904:	f006 fc3e 	bl	29184 <_ZN9allow_pin13dynamic_allow17h33d41317a2da4f1cE>
   22908:	982b      	ldr	r0, [sp, #172]	@ 0xac
   2290a:	2802      	cmp	r0, #2
   2290c:	d102      	bne.n	22914 <_ZN20complex_full_dynamic3app17h73aae6c5e9e52d1dE+0x50>
   2290e:	992c      	ldr	r1, [sp, #176]	@ 0xb0
   22910:	4a28      	ldr	r2, [pc, #160]	@ (229b4 <_ZN20complex_full_dynamic3app17h73aae6c5e9e52d1dE+0xf0>)
   22912:	e004      	b.n	2291e <_ZN20complex_full_dynamic3app17h73aae6c5e9e52d1dE+0x5a>
   22914:	a906      	add	r1, sp, #24
   22916:	720c      	strb	r4, [r1, #8]
   22918:	9607      	str	r6, [sp, #28]
   2291a:	4a26      	ldr	r2, [pc, #152]	@ (229b4 <_ZN20complex_full_dynamic3app17h73aae6c5e9e52d1dE+0xf0>)
   2291c:	9206      	str	r2, [sp, #24]
   2291e:	2501      	movs	r5, #1
   22920:	2802      	cmp	r0, #2
   22922:	d02e      	beq.n	22982 <_ZN20complex_full_dynamic3app17h73aae6c5e9e52d1dE+0xbe>
   22924:	a813      	add	r0, sp, #76	@ 0x4c
   22926:	7a00      	ldrb	r0, [r0, #8]
   22928:	2103      	movs	r1, #3
   2292a:	2802      	cmp	r0, #2
   2292c:	d10e      	bne.n	2294c <_ZN20complex_full_dynamic3app17h73aae6c5e9e52d1dE+0x88>
   2292e:	9802      	ldr	r0, [sp, #8]
   22930:	9000      	str	r0, [sp, #0]
   22932:	9104      	str	r1, [sp, #16]
   22934:	9101      	str	r1, [sp, #4]
   22936:	a82b      	add	r0, sp, #172	@ 0xac
   22938:	2404      	movs	r4, #4
   2293a:	4611      	mov	r1, r2
   2293c:	4622      	mov	r2, r4
   2293e:	9b03      	ldr	r3, [sp, #12]
   22940:	f006 fc20 	bl	29184 <_ZN9allow_pin13dynamic_allow17h33d41317a2da4f1cE>
   22944:	982b      	ldr	r0, [sp, #172]	@ 0xac
   22946:	2802      	cmp	r0, #2
   22948:	d104      	bne.n	22954 <_ZN20complex_full_dynamic3app17h73aae6c5e9e52d1dE+0x90>
   2294a:	992c      	ldr	r1, [sp, #176]	@ 0xb0
   2294c:	462e      	mov	r6, r5
   2294e:	2e00      	cmp	r6, #0
   22950:	d008      	beq.n	22964 <_ZN20complex_full_dynamic3app17h73aae6c5e9e52d1dE+0xa0>
   22952:	e016      	b.n	22982 <_ZN20complex_full_dynamic3app17h73aae6c5e9e52d1dE+0xbe>
   22954:	a813      	add	r0, sp, #76	@ 0x4c
   22956:	9904      	ldr	r1, [sp, #16]
   22958:	7201      	strb	r1, [r0, #8]
   2295a:	9414      	str	r4, [sp, #80]	@ 0x50
   2295c:	4815      	ldr	r0, [pc, #84]	@ (229b4 <_ZN20complex_full_dynamic3app17h73aae6c5e9e52d1dE+0xf0>)
   2295e:	9013      	str	r0, [sp, #76]	@ 0x4c
   22960:	2e00      	cmp	r6, #0
   22962:	d10e      	bne.n	22982 <_ZN20complex_full_dynamic3app17h73aae6c5e9e52d1dE+0xbe>
   22964:	4813      	ldr	r0, [pc, #76]	@ (229b4 <_ZN20complex_full_dynamic3app17h73aae6c5e9e52d1dE+0xf0>)
   22966:	2204      	movs	r2, #4
   22968:	2400      	movs	r4, #0
   2296a:	4621      	mov	r1, r4
   2296c:	4623      	mov	r3, r4
   2296e:	df02      	svc	2
   22970:	287f      	cmp	r0, #127	@ 0x7f
   22972:	d906      	bls.n	22982 <_ZN20complex_full_dynamic3app17h73aae6c5e9e52d1dE+0xbe>
   22974:	a806      	add	r0, sp, #24
   22976:	f006 fbf1 	bl	2915c <_ZN9allow_pin12full_dynamic17unshare_if_shared17h9f78cce76fd1eb6dE>
   2297a:	a813      	add	r0, sp, #76	@ 0x4c
   2297c:	f006 fbee 	bl	2915c <_ZN9allow_pin12full_dynamic17unshare_if_shared17h9f78cce76fd1eb6dE>
   22980:	4625      	mov	r5, r4
   22982:	2d00      	cmp	r5, #0
   22984:	d003      	beq.n	2298e <_ZN20complex_full_dynamic3app17h73aae6c5e9e52d1dE+0xca>
   22986:	9c05      	ldr	r4, [sp, #20]
   22988:	6061      	str	r1, [r4, #4]
   2298a:	2001      	movs	r0, #1
   2298c:	e009      	b.n	229a2 <_ZN20complex_full_dynamic3app17h73aae6c5e9e52d1dE+0xde>
   2298e:	a813      	add	r0, sp, #76	@ 0x4c
   22990:	f006 fbe4 	bl	2915c <_ZN9allow_pin12full_dynamic17unshare_if_shared17h9f78cce76fd1eb6dE>
   22994:	9c05      	ldr	r4, [sp, #20]
   22996:	1c60      	adds	r0, r4, #1
   22998:	2251      	movs	r2, #81	@ 0x51
   2299a:	9903      	ldr	r1, [sp, #12]
   2299c:	f006 fdb7 	bl	2950e <__aeabi_memcpy>
   229a0:	2000      	movs	r0, #0
   229a2:	7020      	strb	r0, [r4, #0]
   229a4:	a813      	add	r0, sp, #76	@ 0x4c
   229a6:	f006 fbd9 	bl	2915c <_ZN9allow_pin12full_dynamic17unshare_if_shared17h9f78cce76fd1eb6dE>
   229aa:	a806      	add	r0, sp, #24
   229ac:	f006 fbd6 	bl	2915c <_ZN9allow_pin12full_dynamic17unshare_if_shared17h9f78cce76fd1eb6dE>
   229b0:	b02f      	add	sp, #188	@ 0xbc
   229b2:	bdf0      	pop	{r4, r5, r6, r7, pc}
   229b4:	00000a36 	.word	0x00000a36

000229b8 <_ZN20complex_full_dynamic3app17h7492f11e03d5a534E>:
   229b8:	b5f0      	push	{r4, r5, r6, r7, lr}
   229ba:	af03      	add	r7, sp, #12
   229bc:	b0af      	sub	sp, #188	@ 0xbc
   229be:	9005      	str	r0, [sp, #20]
   229c0:	ae06      	add	r6, sp, #24
   229c2:	2002      	movs	r0, #2
   229c4:	9004      	str	r0, [sp, #16]
   229c6:	7230      	strb	r0, [r6, #8]
   229c8:	360c      	adds	r6, #12
   229ca:	251c      	movs	r5, #28
   229cc:	4630      	mov	r0, r6
   229ce:	462a      	mov	r2, r5
   229d0:	f006 fd9d 	bl	2950e <__aeabi_memcpy>
   229d4:	ac10      	add	r4, sp, #64	@ 0x40
   229d6:	4620      	mov	r0, r4
   229d8:	300c      	adds	r0, #12
   229da:	215d      	movs	r1, #93	@ 0x5d
   229dc:	9003      	str	r0, [sp, #12]
   229de:	9102      	str	r1, [sp, #8]
   229e0:	f006 fbe8 	bl	291b4 <__aeabi_memclr4>
   229e4:	9804      	ldr	r0, [sp, #16]
   229e6:	7220      	strb	r0, [r4, #8]
   229e8:	2404      	movs	r4, #4
   229ea:	9500      	str	r5, [sp, #0]
   229ec:	9401      	str	r4, [sp, #4]
   229ee:	a82b      	add	r0, sp, #172	@ 0xac
   229f0:	492e      	ldr	r1, [pc, #184]	@ (22aac <_ZN20complex_full_dynamic3app17h7492f11e03d5a534E+0xf4>)
   229f2:	2508      	movs	r5, #8
   229f4:	462a      	mov	r2, r5
   229f6:	4633      	mov	r3, r6
   229f8:	f006 fbc4 	bl	29184 <_ZN9allow_pin13dynamic_allow17h33d41317a2da4f1cE>
   229fc:	982b      	ldr	r0, [sp, #172]	@ 0xac
   229fe:	2802      	cmp	r0, #2
   22a00:	d102      	bne.n	22a08 <_ZN20complex_full_dynamic3app17h7492f11e03d5a534E+0x50>
   22a02:	992c      	ldr	r1, [sp, #176]	@ 0xb0
   22a04:	4a29      	ldr	r2, [pc, #164]	@ (22aac <_ZN20complex_full_dynamic3app17h7492f11e03d5a534E+0xf4>)
   22a06:	e004      	b.n	22a12 <_ZN20complex_full_dynamic3app17h7492f11e03d5a534E+0x5a>
   22a08:	a906      	add	r1, sp, #24
   22a0a:	720c      	strb	r4, [r1, #8]
   22a0c:	9507      	str	r5, [sp, #28]
   22a0e:	4a27      	ldr	r2, [pc, #156]	@ (22aac <_ZN20complex_full_dynamic3app17h7492f11e03d5a534E+0xf4>)
   22a10:	9206      	str	r2, [sp, #24]
   22a12:	2501      	movs	r5, #1
   22a14:	2802      	cmp	r0, #2
   22a16:	d02f      	beq.n	22a78 <_ZN20complex_full_dynamic3app17h7492f11e03d5a534E+0xc0>
   22a18:	a810      	add	r0, sp, #64	@ 0x40
   22a1a:	7a00      	ldrb	r0, [r0, #8]
   22a1c:	2802      	cmp	r0, #2
   22a1e:	d10f      	bne.n	22a40 <_ZN20complex_full_dynamic3app17h7492f11e03d5a534E+0x88>
   22a20:	2603      	movs	r6, #3
   22a22:	9802      	ldr	r0, [sp, #8]
   22a24:	9000      	str	r0, [sp, #0]
   22a26:	9601      	str	r6, [sp, #4]
   22a28:	a82b      	add	r0, sp, #172	@ 0xac
   22a2a:	2405      	movs	r4, #5
   22a2c:	4611      	mov	r1, r2
   22a2e:	4622      	mov	r2, r4
   22a30:	9b03      	ldr	r3, [sp, #12]
   22a32:	f006 fba7 	bl	29184 <_ZN9allow_pin13dynamic_allow17h33d41317a2da4f1cE>
   22a36:	982b      	ldr	r0, [sp, #172]	@ 0xac
   22a38:	2802      	cmp	r0, #2
   22a3a:	d106      	bne.n	22a4a <_ZN20complex_full_dynamic3app17h7492f11e03d5a534E+0x92>
   22a3c:	992c      	ldr	r1, [sp, #176]	@ 0xb0
   22a3e:	e000      	b.n	22a42 <_ZN20complex_full_dynamic3app17h7492f11e03d5a534E+0x8a>
   22a40:	2103      	movs	r1, #3
   22a42:	4628      	mov	r0, r5
   22a44:	2800      	cmp	r0, #0
   22a46:	d008      	beq.n	22a5a <_ZN20complex_full_dynamic3app17h7492f11e03d5a534E+0xa2>
   22a48:	e016      	b.n	22a78 <_ZN20complex_full_dynamic3app17h7492f11e03d5a534E+0xc0>
   22a4a:	a810      	add	r0, sp, #64	@ 0x40
   22a4c:	7206      	strb	r6, [r0, #8]
   22a4e:	9411      	str	r4, [sp, #68]	@ 0x44
   22a50:	4816      	ldr	r0, [pc, #88]	@ (22aac <_ZN20complex_full_dynamic3app17h7492f11e03d5a534E+0xf4>)
   22a52:	9010      	str	r0, [sp, #64]	@ 0x40
   22a54:	2000      	movs	r0, #0
   22a56:	2800      	cmp	r0, #0
   22a58:	d10e      	bne.n	22a78 <_ZN20complex_full_dynamic3app17h7492f11e03d5a534E+0xc0>
   22a5a:	4814      	ldr	r0, [pc, #80]	@ (22aac <_ZN20complex_full_dynamic3app17h7492f11e03d5a534E+0xf4>)
   22a5c:	2108      	movs	r1, #8
   22a5e:	2205      	movs	r2, #5
   22a60:	2400      	movs	r4, #0
   22a62:	4623      	mov	r3, r4
   22a64:	df02      	svc	2
   22a66:	287f      	cmp	r0, #127	@ 0x7f
   22a68:	d906      	bls.n	22a78 <_ZN20complex_full_dynamic3app17h7492f11e03d5a534E+0xc0>
   22a6a:	a806      	add	r0, sp, #24
   22a6c:	f006 fb76 	bl	2915c <_ZN9allow_pin12full_dynamic17unshare_if_shared17h9f78cce76fd1eb6dE>
   22a70:	a810      	add	r0, sp, #64	@ 0x40
   22a72:	f006 fb73 	bl	2915c <_ZN9allow_pin12full_dynamic17unshare_if_shared17h9f78cce76fd1eb6dE>
   22a76:	4625      	mov	r5, r4
   22a78:	2d00      	cmp	r5, #0
   22a7a:	d003      	beq.n	22a84 <_ZN20complex_full_dynamic3app17h7492f11e03d5a534E+0xcc>
   22a7c:	9c05      	ldr	r4, [sp, #20]
   22a7e:	6061      	str	r1, [r4, #4]
   22a80:	2001      	movs	r0, #1
   22a82:	e009      	b.n	22a98 <_ZN20complex_full_dynamic3app17h7492f11e03d5a534E+0xe0>
   22a84:	a810      	add	r0, sp, #64	@ 0x40
   22a86:	f006 fb69 	bl	2915c <_ZN9allow_pin12full_dynamic17unshare_if_shared17h9f78cce76fd1eb6dE>
   22a8a:	9c05      	ldr	r4, [sp, #20]
   22a8c:	1c60      	adds	r0, r4, #1
   22a8e:	225d      	movs	r2, #93	@ 0x5d
   22a90:	9903      	ldr	r1, [sp, #12]
   22a92:	f006 fd3c 	bl	2950e <__aeabi_memcpy>
   22a96:	2000      	movs	r0, #0
   22a98:	7020      	strb	r0, [r4, #0]
   22a9a:	a810      	add	r0, sp, #64	@ 0x40
   22a9c:	f006 fb5e 	bl	2915c <_ZN9allow_pin12full_dynamic17unshare_if_shared17h9f78cce76fd1eb6dE>
   22aa0:	a806      	add	r0, sp, #24
   22aa2:	f006 fb5b 	bl	2915c <_ZN9allow_pin12full_dynamic17unshare_if_shared17h9f78cce76fd1eb6dE>
   22aa6:	b02f      	add	sp, #188	@ 0xbc
   22aa8:	bdf0      	pop	{r4, r5, r6, r7, pc}
   22aaa:	46c0      	nop			@ (mov r8, r8)
   22aac:	00000c3e 	.word	0x00000c3e

00022ab0 <_ZN20complex_full_dynamic3app17h7ab0885b6c3def19E>:
   22ab0:	b5f0      	push	{r4, r5, r6, r7, lr}
   22ab2:	af03      	add	r7, sp, #12
   22ab4:	b0b3      	sub	sp, #204	@ 0xcc
   22ab6:	9006      	str	r0, [sp, #24]
   22ab8:	ae07      	add	r6, sp, #28
   22aba:	2002      	movs	r0, #2
   22abc:	9005      	str	r0, [sp, #20]
   22abe:	7230      	strb	r0, [r6, #8]
   22ac0:	360c      	adds	r6, #12
   22ac2:	254f      	movs	r5, #79	@ 0x4f
   22ac4:	4630      	mov	r0, r6
   22ac6:	462a      	mov	r2, r5
   22ac8:	f006 fd21 	bl	2950e <__aeabi_memcpy>
   22acc:	ac1e      	add	r4, sp, #120	@ 0x78
   22ace:	4620      	mov	r0, r4
   22ad0:	300c      	adds	r0, #12
   22ad2:	2135      	movs	r1, #53	@ 0x35
   22ad4:	9004      	str	r0, [sp, #16]
   22ad6:	9103      	str	r1, [sp, #12]
   22ad8:	f006 fb6c 	bl	291b4 <__aeabi_memclr4>
   22adc:	9805      	ldr	r0, [sp, #20]
   22ade:	7220      	strb	r0, [r4, #8]
   22ae0:	2404      	movs	r4, #4
   22ae2:	9500      	str	r5, [sp, #0]
   22ae4:	9401      	str	r4, [sp, #4]
   22ae6:	a82f      	add	r0, sp, #188	@ 0xbc
   22ae8:	492e      	ldr	r1, [pc, #184]	@ (22ba4 <_ZN20complex_full_dynamic3app17h7ab0885b6c3def19E+0xf4>)
   22aea:	2507      	movs	r5, #7
   22aec:	462a      	mov	r2, r5
   22aee:	4633      	mov	r3, r6
   22af0:	f006 fb48 	bl	29184 <_ZN9allow_pin13dynamic_allow17h33d41317a2da4f1cE>
   22af4:	982f      	ldr	r0, [sp, #188]	@ 0xbc
   22af6:	2802      	cmp	r0, #2
   22af8:	d102      	bne.n	22b00 <_ZN20complex_full_dynamic3app17h7ab0885b6c3def19E+0x50>
   22afa:	9930      	ldr	r1, [sp, #192]	@ 0xc0
   22afc:	4a29      	ldr	r2, [pc, #164]	@ (22ba4 <_ZN20complex_full_dynamic3app17h7ab0885b6c3def19E+0xf4>)
   22afe:	e004      	b.n	22b0a <_ZN20complex_full_dynamic3app17h7ab0885b6c3def19E+0x5a>
   22b00:	a907      	add	r1, sp, #28
   22b02:	720c      	strb	r4, [r1, #8]
   22b04:	9508      	str	r5, [sp, #32]
   22b06:	4a27      	ldr	r2, [pc, #156]	@ (22ba4 <_ZN20complex_full_dynamic3app17h7ab0885b6c3def19E+0xf4>)
   22b08:	9207      	str	r2, [sp, #28]
   22b0a:	2501      	movs	r5, #1
   22b0c:	2802      	cmp	r0, #2
   22b0e:	d02f      	beq.n	22b70 <_ZN20complex_full_dynamic3app17h7ab0885b6c3def19E+0xc0>
   22b10:	a81e      	add	r0, sp, #120	@ 0x78
   22b12:	7a00      	ldrb	r0, [r0, #8]
   22b14:	2802      	cmp	r0, #2
   22b16:	d10f      	bne.n	22b38 <_ZN20complex_full_dynamic3app17h7ab0885b6c3def19E+0x88>
   22b18:	2603      	movs	r6, #3
   22b1a:	9803      	ldr	r0, [sp, #12]
   22b1c:	9000      	str	r0, [sp, #0]
   22b1e:	9601      	str	r6, [sp, #4]
   22b20:	a82f      	add	r0, sp, #188	@ 0xbc
   22b22:	2401      	movs	r4, #1
   22b24:	4611      	mov	r1, r2
   22b26:	4622      	mov	r2, r4
   22b28:	9b04      	ldr	r3, [sp, #16]
   22b2a:	f006 fb2b 	bl	29184 <_ZN9allow_pin13dynamic_allow17h33d41317a2da4f1cE>
   22b2e:	982f      	ldr	r0, [sp, #188]	@ 0xbc
   22b30:	2802      	cmp	r0, #2
   22b32:	d106      	bne.n	22b42 <_ZN20complex_full_dynamic3app17h7ab0885b6c3def19E+0x92>
   22b34:	9930      	ldr	r1, [sp, #192]	@ 0xc0
   22b36:	e000      	b.n	22b3a <_ZN20complex_full_dynamic3app17h7ab0885b6c3def19E+0x8a>
   22b38:	2103      	movs	r1, #3
   22b3a:	4628      	mov	r0, r5
   22b3c:	2800      	cmp	r0, #0
   22b3e:	d008      	beq.n	22b52 <_ZN20complex_full_dynamic3app17h7ab0885b6c3def19E+0xa2>
   22b40:	e016      	b.n	22b70 <_ZN20complex_full_dynamic3app17h7ab0885b6c3def19E+0xc0>
   22b42:	a81e      	add	r0, sp, #120	@ 0x78
   22b44:	7206      	strb	r6, [r0, #8]
   22b46:	941f      	str	r4, [sp, #124]	@ 0x7c
   22b48:	4816      	ldr	r0, [pc, #88]	@ (22ba4 <_ZN20complex_full_dynamic3app17h7ab0885b6c3def19E+0xf4>)
   22b4a:	901e      	str	r0, [sp, #120]	@ 0x78
   22b4c:	2000      	movs	r0, #0
   22b4e:	2800      	cmp	r0, #0
   22b50:	d10e      	bne.n	22b70 <_ZN20complex_full_dynamic3app17h7ab0885b6c3def19E+0xc0>
   22b52:	4814      	ldr	r0, [pc, #80]	@ (22ba4 <_ZN20complex_full_dynamic3app17h7ab0885b6c3def19E+0xf4>)
   22b54:	2107      	movs	r1, #7
   22b56:	2201      	movs	r2, #1
   22b58:	2400      	movs	r4, #0
   22b5a:	4623      	mov	r3, r4
   22b5c:	df02      	svc	2
   22b5e:	287f      	cmp	r0, #127	@ 0x7f
   22b60:	d906      	bls.n	22b70 <_ZN20complex_full_dynamic3app17h7ab0885b6c3def19E+0xc0>
   22b62:	a807      	add	r0, sp, #28
   22b64:	f006 fafa 	bl	2915c <_ZN9allow_pin12full_dynamic17unshare_if_shared17h9f78cce76fd1eb6dE>
   22b68:	a81e      	add	r0, sp, #120	@ 0x78
   22b6a:	f006 faf7 	bl	2915c <_ZN9allow_pin12full_dynamic17unshare_if_shared17h9f78cce76fd1eb6dE>
   22b6e:	4625      	mov	r5, r4
   22b70:	2d00      	cmp	r5, #0
   22b72:	d003      	beq.n	22b7c <_ZN20complex_full_dynamic3app17h7ab0885b6c3def19E+0xcc>
   22b74:	9c06      	ldr	r4, [sp, #24]
   22b76:	6061      	str	r1, [r4, #4]
   22b78:	2001      	movs	r0, #1
   22b7a:	e009      	b.n	22b90 <_ZN20complex_full_dynamic3app17h7ab0885b6c3def19E+0xe0>
   22b7c:	a81e      	add	r0, sp, #120	@ 0x78
   22b7e:	f006 faed 	bl	2915c <_ZN9allow_pin12full_dynamic17unshare_if_shared17h9f78cce76fd1eb6dE>
   22b82:	9c06      	ldr	r4, [sp, #24]
   22b84:	1c60      	adds	r0, r4, #1
   22b86:	2235      	movs	r2, #53	@ 0x35
   22b88:	9904      	ldr	r1, [sp, #16]
   22b8a:	f006 fcc0 	bl	2950e <__aeabi_memcpy>
   22b8e:	2000      	movs	r0, #0
   22b90:	7020      	strb	r0, [r4, #0]
   22b92:	a81e      	add	r0, sp, #120	@ 0x78
   22b94:	f006 fae2 	bl	2915c <_ZN9allow_pin12full_dynamic17unshare_if_shared17h9f78cce76fd1eb6dE>
   22b98:	a807      	add	r0, sp, #28
   22b9a:	f006 fadf 	bl	2915c <_ZN9allow_pin12full_dynamic17unshare_if_shared17h9f78cce76fd1eb6dE>
   22b9e:	b033      	add	sp, #204	@ 0xcc
   22ba0:	bdf0      	pop	{r4, r5, r6, r7, pc}
   22ba2:	46c0      	nop			@ (mov r8, r8)
   22ba4:	000016d7 	.word	0x000016d7

00022ba8 <_ZN20complex_full_dynamic3app17h7b6fe8759dc878d7E>:
   22ba8:	b5f0      	push	{r4, r5, r6, r7, lr}
   22baa:	af03      	add	r7, sp, #12
   22bac:	b0ab      	sub	sp, #172	@ 0xac
   22bae:	9005      	str	r0, [sp, #20]
   22bb0:	ad06      	add	r5, sp, #24
   22bb2:	2002      	movs	r0, #2
   22bb4:	9004      	str	r0, [sp, #16]
   22bb6:	7228      	strb	r0, [r5, #8]
   22bb8:	350c      	adds	r5, #12
   22bba:	2638      	movs	r6, #56	@ 0x38
   22bbc:	4628      	mov	r0, r5
   22bbe:	4632      	mov	r2, r6
   22bc0:	f006 fca5 	bl	2950e <__aeabi_memcpy>
   22bc4:	ac17      	add	r4, sp, #92	@ 0x5c
   22bc6:	4620      	mov	r0, r4
   22bc8:	300c      	adds	r0, #12
   22bca:	2134      	movs	r1, #52	@ 0x34
   22bcc:	9003      	str	r0, [sp, #12]
   22bce:	9102      	str	r1, [sp, #8]
   22bd0:	f006 faf0 	bl	291b4 <__aeabi_memclr4>
   22bd4:	9804      	ldr	r0, [sp, #16]
   22bd6:	7220      	strb	r0, [r4, #8]
   22bd8:	2004      	movs	r0, #4
   22bda:	9600      	str	r6, [sp, #0]
   22bdc:	9004      	str	r0, [sp, #16]
   22bde:	9001      	str	r0, [sp, #4]
   22be0:	2097      	movs	r0, #151	@ 0x97
   22be2:	0044      	lsls	r4, r0, #1
   22be4:	a827      	add	r0, sp, #156	@ 0x9c
   22be6:	2608      	movs	r6, #8
   22be8:	4621      	mov	r1, r4
   22bea:	4632      	mov	r2, r6
   22bec:	462b      	mov	r3, r5
   22bee:	f006 fac9 	bl	29184 <_ZN9allow_pin13dynamic_allow17h33d41317a2da4f1cE>
   22bf2:	9827      	ldr	r0, [sp, #156]	@ 0x9c
   22bf4:	2802      	cmp	r0, #2
   22bf6:	d101      	bne.n	22bfc <_ZN20complex_full_dynamic3app17h7b6fe8759dc878d7E+0x54>
   22bf8:	9928      	ldr	r1, [sp, #160]	@ 0xa0
   22bfa:	e004      	b.n	22c06 <_ZN20complex_full_dynamic3app17h7b6fe8759dc878d7E+0x5e>
   22bfc:	a906      	add	r1, sp, #24
   22bfe:	9a04      	ldr	r2, [sp, #16]
   22c00:	720a      	strb	r2, [r1, #8]
   22c02:	9607      	str	r6, [sp, #28]
   22c04:	9406      	str	r4, [sp, #24]
   22c06:	4623      	mov	r3, r4
   22c08:	2601      	movs	r6, #1
   22c0a:	2802      	cmp	r0, #2
   22c0c:	d030      	beq.n	22c70 <_ZN20complex_full_dynamic3app17h7b6fe8759dc878d7E+0xc8>
   22c0e:	a817      	add	r0, sp, #92	@ 0x5c
   22c10:	7a00      	ldrb	r0, [r0, #8]
   22c12:	2802      	cmp	r0, #2
   22c14:	d110      	bne.n	22c38 <_ZN20complex_full_dynamic3app17h7b6fe8759dc878d7E+0x90>
   22c16:	2503      	movs	r5, #3
   22c18:	9802      	ldr	r0, [sp, #8]
   22c1a:	9000      	str	r0, [sp, #0]
   22c1c:	9501      	str	r5, [sp, #4]
   22c1e:	a827      	add	r0, sp, #156	@ 0x9c
   22c20:	4619      	mov	r1, r3
   22c22:	462a      	mov	r2, r5
   22c24:	461c      	mov	r4, r3
   22c26:	9b03      	ldr	r3, [sp, #12]
   22c28:	f006 faac 	bl	29184 <_ZN9allow_pin13dynamic_allow17h33d41317a2da4f1cE>
   22c2c:	9827      	ldr	r0, [sp, #156]	@ 0x9c
   22c2e:	2802      	cmp	r0, #2
   22c30:	d107      	bne.n	22c42 <_ZN20complex_full_dynamic3app17h7b6fe8759dc878d7E+0x9a>
   22c32:	9928      	ldr	r1, [sp, #160]	@ 0xa0
   22c34:	4630      	mov	r0, r6
   22c36:	e009      	b.n	22c4c <_ZN20complex_full_dynamic3app17h7b6fe8759dc878d7E+0xa4>
   22c38:	2103      	movs	r1, #3
   22c3a:	4630      	mov	r0, r6
   22c3c:	2800      	cmp	r0, #0
   22c3e:	d008      	beq.n	22c52 <_ZN20complex_full_dynamic3app17h7b6fe8759dc878d7E+0xaa>
   22c40:	e016      	b.n	22c70 <_ZN20complex_full_dynamic3app17h7b6fe8759dc878d7E+0xc8>
   22c42:	a817      	add	r0, sp, #92	@ 0x5c
   22c44:	7205      	strb	r5, [r0, #8]
   22c46:	9518      	str	r5, [sp, #96]	@ 0x60
   22c48:	9417      	str	r4, [sp, #92]	@ 0x5c
   22c4a:	2000      	movs	r0, #0
   22c4c:	4623      	mov	r3, r4
   22c4e:	2800      	cmp	r0, #0
   22c50:	d10e      	bne.n	22c70 <_ZN20complex_full_dynamic3app17h7b6fe8759dc878d7E+0xc8>
   22c52:	2108      	movs	r1, #8
   22c54:	2203      	movs	r2, #3
   22c56:	2400      	movs	r4, #0
   22c58:	4618      	mov	r0, r3
   22c5a:	4623      	mov	r3, r4
   22c5c:	df02      	svc	2
   22c5e:	287f      	cmp	r0, #127	@ 0x7f
   22c60:	d906      	bls.n	22c70 <_ZN20complex_full_dynamic3app17h7b6fe8759dc878d7E+0xc8>
   22c62:	a806      	add	r0, sp, #24
   22c64:	f006 fa7a 	bl	2915c <_ZN9allow_pin12full_dynamic17unshare_if_shared17h9f78cce76fd1eb6dE>
   22c68:	a817      	add	r0, sp, #92	@ 0x5c
   22c6a:	f006 fa77 	bl	2915c <_ZN9allow_pin12full_dynamic17unshare_if_shared17h9f78cce76fd1eb6dE>
   22c6e:	4626      	mov	r6, r4
   22c70:	2e00      	cmp	r6, #0
   22c72:	d003      	beq.n	22c7c <_ZN20complex_full_dynamic3app17h7b6fe8759dc878d7E+0xd4>
   22c74:	9c05      	ldr	r4, [sp, #20]
   22c76:	6061      	str	r1, [r4, #4]
   22c78:	2001      	movs	r0, #1
   22c7a:	e009      	b.n	22c90 <_ZN20complex_full_dynamic3app17h7b6fe8759dc878d7E+0xe8>
   22c7c:	a817      	add	r0, sp, #92	@ 0x5c
   22c7e:	f006 fa6d 	bl	2915c <_ZN9allow_pin12full_dynamic17unshare_if_shared17h9f78cce76fd1eb6dE>
   22c82:	9c05      	ldr	r4, [sp, #20]
   22c84:	1c60      	adds	r0, r4, #1
   22c86:	2234      	movs	r2, #52	@ 0x34
   22c88:	9903      	ldr	r1, [sp, #12]
   22c8a:	f006 fc40 	bl	2950e <__aeabi_memcpy>
   22c8e:	2000      	movs	r0, #0
   22c90:	7020      	strb	r0, [r4, #0]
   22c92:	a817      	add	r0, sp, #92	@ 0x5c
   22c94:	f006 fa62 	bl	2915c <_ZN9allow_pin12full_dynamic17unshare_if_shared17h9f78cce76fd1eb6dE>
   22c98:	a806      	add	r0, sp, #24
   22c9a:	f006 fa5f 	bl	2915c <_ZN9allow_pin12full_dynamic17unshare_if_shared17h9f78cce76fd1eb6dE>
   22c9e:	b02b      	add	sp, #172	@ 0xac
   22ca0:	bdf0      	pop	{r4, r5, r6, r7, pc}
   22ca2:	d4d4      	bmi.n	22c4e <_ZN20complex_full_dynamic3app17h7b6fe8759dc878d7E+0xa6>

00022ca4 <_ZN20complex_full_dynamic3app17h8362f19dbf42b2eaE>:
   22ca4:	b5f0      	push	{r4, r5, r6, r7, lr}
   22ca6:	af03      	add	r7, sp, #12
   22ca8:	b0a1      	sub	sp, #132	@ 0x84
   22caa:	9004      	str	r0, [sp, #16]
   22cac:	ac06      	add	r4, sp, #24
   22cae:	2602      	movs	r6, #2
   22cb0:	7226      	strb	r6, [r4, #8]
   22cb2:	340c      	adds	r4, #12
   22cb4:	2532      	movs	r5, #50	@ 0x32
   22cb6:	4620      	mov	r0, r4
   22cb8:	462a      	mov	r2, r5
   22cba:	f006 fc28 	bl	2950e <__aeabi_memcpy>
   22cbe:	a816      	add	r0, sp, #88	@ 0x58
   22cc0:	9005      	str	r0, [sp, #20]
   22cc2:	7206      	strb	r6, [r0, #8]
   22cc4:	2000      	movs	r0, #0
   22cc6:	901c      	str	r0, [sp, #112]	@ 0x70
   22cc8:	901b      	str	r0, [sp, #108]	@ 0x6c
   22cca:	901a      	str	r0, [sp, #104]	@ 0x68
   22ccc:	9003      	str	r0, [sp, #12]
   22cce:	9019      	str	r0, [sp, #100]	@ 0x64
   22cd0:	2604      	movs	r6, #4
   22cd2:	9500      	str	r5, [sp, #0]
   22cd4:	9601      	str	r6, [sp, #4]
   22cd6:	a81d      	add	r0, sp, #116	@ 0x74
   22cd8:	4d33      	ldr	r5, [pc, #204]	@ (22da8 <_ZN20complex_full_dynamic3app17h8362f19dbf42b2eaE+0x104>)
   22cda:	4629      	mov	r1, r5
   22cdc:	4632      	mov	r2, r6
   22cde:	4623      	mov	r3, r4
   22ce0:	f006 fa50 	bl	29184 <_ZN9allow_pin13dynamic_allow17h33d41317a2da4f1cE>
   22ce4:	981d      	ldr	r0, [sp, #116]	@ 0x74
   22ce6:	2802      	cmp	r0, #2
   22ce8:	d102      	bne.n	22cf0 <_ZN20complex_full_dynamic3app17h8362f19dbf42b2eaE+0x4c>
   22cea:	462a      	mov	r2, r5
   22cec:	991e      	ldr	r1, [sp, #120]	@ 0x78
   22cee:	e004      	b.n	22cfa <_ZN20complex_full_dynamic3app17h8362f19dbf42b2eaE+0x56>
   22cf0:	a906      	add	r1, sp, #24
   22cf2:	720e      	strb	r6, [r1, #8]
   22cf4:	9607      	str	r6, [sp, #28]
   22cf6:	462a      	mov	r2, r5
   22cf8:	9506      	str	r5, [sp, #24]
   22cfa:	9e05      	ldr	r6, [sp, #20]
   22cfc:	360c      	adds	r6, #12
   22cfe:	2501      	movs	r5, #1
   22d00:	2802      	cmp	r0, #2
   22d02:	d037      	beq.n	22d74 <_ZN20complex_full_dynamic3app17h8362f19dbf42b2eaE+0xd0>
   22d04:	a816      	add	r0, sp, #88	@ 0x58
   22d06:	7a00      	ldrb	r0, [r0, #8]
   22d08:	2802      	cmp	r0, #2
   22d0a:	d116      	bne.n	22d3a <_ZN20complex_full_dynamic3app17h8362f19dbf42b2eaE+0x96>
   22d0c:	4633      	mov	r3, r6
   22d0e:	2103      	movs	r1, #3
   22d10:	2010      	movs	r0, #16
   22d12:	9000      	str	r0, [sp, #0]
   22d14:	9102      	str	r1, [sp, #8]
   22d16:	9101      	str	r1, [sp, #4]
   22d18:	a81d      	add	r0, sp, #116	@ 0x74
   22d1a:	2409      	movs	r4, #9
   22d1c:	4616      	mov	r6, r2
   22d1e:	4611      	mov	r1, r2
   22d20:	4622      	mov	r2, r4
   22d22:	9305      	str	r3, [sp, #20]
   22d24:	f006 fa2e 	bl	29184 <_ZN9allow_pin13dynamic_allow17h33d41317a2da4f1cE>
   22d28:	981d      	ldr	r0, [sp, #116]	@ 0x74
   22d2a:	2802      	cmp	r0, #2
   22d2c:	d10a      	bne.n	22d44 <_ZN20complex_full_dynamic3app17h8362f19dbf42b2eaE+0xa0>
   22d2e:	991e      	ldr	r1, [sp, #120]	@ 0x78
   22d30:	4628      	mov	r0, r5
   22d32:	9e05      	ldr	r6, [sp, #20]
   22d34:	2800      	cmp	r0, #0
   22d36:	d00e      	beq.n	22d56 <_ZN20complex_full_dynamic3app17h8362f19dbf42b2eaE+0xb2>
   22d38:	e01c      	b.n	22d74 <_ZN20complex_full_dynamic3app17h8362f19dbf42b2eaE+0xd0>
   22d3a:	2103      	movs	r1, #3
   22d3c:	4628      	mov	r0, r5
   22d3e:	2800      	cmp	r0, #0
   22d40:	d009      	beq.n	22d56 <_ZN20complex_full_dynamic3app17h8362f19dbf42b2eaE+0xb2>
   22d42:	e017      	b.n	22d74 <_ZN20complex_full_dynamic3app17h8362f19dbf42b2eaE+0xd0>
   22d44:	a816      	add	r0, sp, #88	@ 0x58
   22d46:	9902      	ldr	r1, [sp, #8]
   22d48:	7201      	strb	r1, [r0, #8]
   22d4a:	9417      	str	r4, [sp, #92]	@ 0x5c
   22d4c:	9616      	str	r6, [sp, #88]	@ 0x58
   22d4e:	9e05      	ldr	r6, [sp, #20]
   22d50:	9803      	ldr	r0, [sp, #12]
   22d52:	2800      	cmp	r0, #0
   22d54:	d10e      	bne.n	22d74 <_ZN20complex_full_dynamic3app17h8362f19dbf42b2eaE+0xd0>
   22d56:	4814      	ldr	r0, [pc, #80]	@ (22da8 <_ZN20complex_full_dynamic3app17h8362f19dbf42b2eaE+0x104>)
   22d58:	2104      	movs	r1, #4
   22d5a:	2209      	movs	r2, #9
   22d5c:	2400      	movs	r4, #0
   22d5e:	4623      	mov	r3, r4
   22d60:	df02      	svc	2
   22d62:	287f      	cmp	r0, #127	@ 0x7f
   22d64:	d906      	bls.n	22d74 <_ZN20complex_full_dynamic3app17h8362f19dbf42b2eaE+0xd0>
   22d66:	a806      	add	r0, sp, #24
   22d68:	f006 f9f8 	bl	2915c <_ZN9allow_pin12full_dynamic17unshare_if_shared17h9f78cce76fd1eb6dE>
   22d6c:	a816      	add	r0, sp, #88	@ 0x58
   22d6e:	f006 f9f5 	bl	2915c <_ZN9allow_pin12full_dynamic17unshare_if_shared17h9f78cce76fd1eb6dE>
   22d72:	4625      	mov	r5, r4
   22d74:	2d00      	cmp	r5, #0
   22d76:	d003      	beq.n	22d80 <_ZN20complex_full_dynamic3app17h8362f19dbf42b2eaE+0xdc>
   22d78:	9c04      	ldr	r4, [sp, #16]
   22d7a:	6061      	str	r1, [r4, #4]
   22d7c:	2001      	movs	r0, #1
   22d7e:	e009      	b.n	22d94 <_ZN20complex_full_dynamic3app17h8362f19dbf42b2eaE+0xf0>
   22d80:	a816      	add	r0, sp, #88	@ 0x58
   22d82:	f006 f9eb 	bl	2915c <_ZN9allow_pin12full_dynamic17unshare_if_shared17h9f78cce76fd1eb6dE>
   22d86:	9c04      	ldr	r4, [sp, #16]
   22d88:	1c60      	adds	r0, r4, #1
   22d8a:	2210      	movs	r2, #16
   22d8c:	4631      	mov	r1, r6
   22d8e:	f006 fbbe 	bl	2950e <__aeabi_memcpy>
   22d92:	2000      	movs	r0, #0
   22d94:	7020      	strb	r0, [r4, #0]
   22d96:	a816      	add	r0, sp, #88	@ 0x58
   22d98:	f006 f9e0 	bl	2915c <_ZN9allow_pin12full_dynamic17unshare_if_shared17h9f78cce76fd1eb6dE>
   22d9c:	a806      	add	r0, sp, #24
   22d9e:	f006 f9dd 	bl	2915c <_ZN9allow_pin12full_dynamic17unshare_if_shared17h9f78cce76fd1eb6dE>
   22da2:	b021      	add	sp, #132	@ 0x84
   22da4:	bdf0      	pop	{r4, r5, r6, r7, pc}
   22da6:	46c0      	nop			@ (mov r8, r8)
   22da8:	000019d6 	.word	0x000019d6

00022dac <_ZN20complex_full_dynamic3app17h852e2afef54c26f6E>:
   22dac:	b5f0      	push	{r4, r5, r6, r7, lr}
   22dae:	af03      	add	r7, sp, #12
   22db0:	b0b9      	sub	sp, #228	@ 0xe4
   22db2:	9006      	str	r0, [sp, #24]
   22db4:	ae07      	add	r6, sp, #28
   22db6:	2002      	movs	r0, #2
   22db8:	9005      	str	r0, [sp, #20]
   22dba:	7230      	strb	r0, [r6, #8]
   22dbc:	360c      	adds	r6, #12
   22dbe:	255d      	movs	r5, #93	@ 0x5d
   22dc0:	4630      	mov	r0, r6
   22dc2:	462a      	mov	r2, r5
   22dc4:	f006 fba3 	bl	2950e <__aeabi_memcpy>
   22dc8:	ac22      	add	r4, sp, #136	@ 0x88
   22dca:	4620      	mov	r0, r4
   22dcc:	300c      	adds	r0, #12
   22dce:	2140      	movs	r1, #64	@ 0x40
   22dd0:	9004      	str	r0, [sp, #16]
   22dd2:	9103      	str	r1, [sp, #12]
   22dd4:	f006 f9ee 	bl	291b4 <__aeabi_memclr4>
   22dd8:	9805      	ldr	r0, [sp, #20]
   22dda:	7220      	strb	r0, [r4, #8]
   22ddc:	2404      	movs	r4, #4
   22dde:	9500      	str	r5, [sp, #0]
   22de0:	9401      	str	r4, [sp, #4]
   22de2:	a835      	add	r0, sp, #212	@ 0xd4
   22de4:	492e      	ldr	r1, [pc, #184]	@ (22ea0 <_ZN20complex_full_dynamic3app17h852e2afef54c26f6E+0xf4>)
   22de6:	2508      	movs	r5, #8
   22de8:	462a      	mov	r2, r5
   22dea:	4633      	mov	r3, r6
   22dec:	f006 f9ca 	bl	29184 <_ZN9allow_pin13dynamic_allow17h33d41317a2da4f1cE>
   22df0:	9835      	ldr	r0, [sp, #212]	@ 0xd4
   22df2:	2802      	cmp	r0, #2
   22df4:	d102      	bne.n	22dfc <_ZN20complex_full_dynamic3app17h852e2afef54c26f6E+0x50>
   22df6:	9936      	ldr	r1, [sp, #216]	@ 0xd8
   22df8:	4a29      	ldr	r2, [pc, #164]	@ (22ea0 <_ZN20complex_full_dynamic3app17h852e2afef54c26f6E+0xf4>)
   22dfa:	e004      	b.n	22e06 <_ZN20complex_full_dynamic3app17h852e2afef54c26f6E+0x5a>
   22dfc:	a907      	add	r1, sp, #28
   22dfe:	720c      	strb	r4, [r1, #8]
   22e00:	9508      	str	r5, [sp, #32]
   22e02:	4a27      	ldr	r2, [pc, #156]	@ (22ea0 <_ZN20complex_full_dynamic3app17h852e2afef54c26f6E+0xf4>)
   22e04:	9207      	str	r2, [sp, #28]
   22e06:	2501      	movs	r5, #1
   22e08:	2802      	cmp	r0, #2
   22e0a:	d02f      	beq.n	22e6c <_ZN20complex_full_dynamic3app17h852e2afef54c26f6E+0xc0>
   22e0c:	a822      	add	r0, sp, #136	@ 0x88
   22e0e:	7a00      	ldrb	r0, [r0, #8]
   22e10:	2802      	cmp	r0, #2
   22e12:	d10f      	bne.n	22e34 <_ZN20complex_full_dynamic3app17h852e2afef54c26f6E+0x88>
   22e14:	2603      	movs	r6, #3
   22e16:	9803      	ldr	r0, [sp, #12]
   22e18:	9000      	str	r0, [sp, #0]
   22e1a:	9601      	str	r6, [sp, #4]
   22e1c:	a835      	add	r0, sp, #212	@ 0xd4
   22e1e:	2404      	movs	r4, #4
   22e20:	4611      	mov	r1, r2
   22e22:	4622      	mov	r2, r4
   22e24:	9b04      	ldr	r3, [sp, #16]
   22e26:	f006 f9ad 	bl	29184 <_ZN9allow_pin13dynamic_allow17h33d41317a2da4f1cE>
   22e2a:	9835      	ldr	r0, [sp, #212]	@ 0xd4
   22e2c:	2802      	cmp	r0, #2
   22e2e:	d106      	bne.n	22e3e <_ZN20complex_full_dynamic3app17h852e2afef54c26f6E+0x92>
   22e30:	9936      	ldr	r1, [sp, #216]	@ 0xd8
   22e32:	e000      	b.n	22e36 <_ZN20complex_full_dynamic3app17h852e2afef54c26f6E+0x8a>
   22e34:	2103      	movs	r1, #3
   22e36:	4628      	mov	r0, r5
   22e38:	2800      	cmp	r0, #0
   22e3a:	d008      	beq.n	22e4e <_ZN20complex_full_dynamic3app17h852e2afef54c26f6E+0xa2>
   22e3c:	e016      	b.n	22e6c <_ZN20complex_full_dynamic3app17h852e2afef54c26f6E+0xc0>
   22e3e:	a822      	add	r0, sp, #136	@ 0x88
   22e40:	7206      	strb	r6, [r0, #8]
   22e42:	9423      	str	r4, [sp, #140]	@ 0x8c
   22e44:	4816      	ldr	r0, [pc, #88]	@ (22ea0 <_ZN20complex_full_dynamic3app17h852e2afef54c26f6E+0xf4>)
   22e46:	9022      	str	r0, [sp, #136]	@ 0x88
   22e48:	2000      	movs	r0, #0
   22e4a:	2800      	cmp	r0, #0
   22e4c:	d10e      	bne.n	22e6c <_ZN20complex_full_dynamic3app17h852e2afef54c26f6E+0xc0>
   22e4e:	4814      	ldr	r0, [pc, #80]	@ (22ea0 <_ZN20complex_full_dynamic3app17h852e2afef54c26f6E+0xf4>)
   22e50:	2108      	movs	r1, #8
   22e52:	2204      	movs	r2, #4
   22e54:	2400      	movs	r4, #0
   22e56:	4623      	mov	r3, r4
   22e58:	df02      	svc	2
   22e5a:	287f      	cmp	r0, #127	@ 0x7f
   22e5c:	d906      	bls.n	22e6c <_ZN20complex_full_dynamic3app17h852e2afef54c26f6E+0xc0>
   22e5e:	a807      	add	r0, sp, #28
   22e60:	f006 f97c 	bl	2915c <_ZN9allow_pin12full_dynamic17unshare_if_shared17h9f78cce76fd1eb6dE>
   22e64:	a822      	add	r0, sp, #136	@ 0x88
   22e66:	f006 f979 	bl	2915c <_ZN9allow_pin12full_dynamic17unshare_if_shared17h9f78cce76fd1eb6dE>
   22e6a:	4625      	mov	r5, r4
   22e6c:	2d00      	cmp	r5, #0
   22e6e:	d003      	beq.n	22e78 <_ZN20complex_full_dynamic3app17h852e2afef54c26f6E+0xcc>
   22e70:	9c06      	ldr	r4, [sp, #24]
   22e72:	6061      	str	r1, [r4, #4]
   22e74:	2001      	movs	r0, #1
   22e76:	e009      	b.n	22e8c <_ZN20complex_full_dynamic3app17h852e2afef54c26f6E+0xe0>
   22e78:	a822      	add	r0, sp, #136	@ 0x88
   22e7a:	f006 f96f 	bl	2915c <_ZN9allow_pin12full_dynamic17unshare_if_shared17h9f78cce76fd1eb6dE>
   22e7e:	9c06      	ldr	r4, [sp, #24]
   22e80:	1c60      	adds	r0, r4, #1
   22e82:	2240      	movs	r2, #64	@ 0x40
   22e84:	9904      	ldr	r1, [sp, #16]
   22e86:	f006 fb42 	bl	2950e <__aeabi_memcpy>
   22e8a:	2000      	movs	r0, #0
   22e8c:	7020      	strb	r0, [r4, #0]
   22e8e:	a822      	add	r0, sp, #136	@ 0x88
   22e90:	f006 f964 	bl	2915c <_ZN9allow_pin12full_dynamic17unshare_if_shared17h9f78cce76fd1eb6dE>
   22e94:	a807      	add	r0, sp, #28
   22e96:	f006 f961 	bl	2915c <_ZN9allow_pin12full_dynamic17unshare_if_shared17h9f78cce76fd1eb6dE>
   22e9a:	b039      	add	sp, #228	@ 0xe4
   22e9c:	bdf0      	pop	{r4, r5, r6, r7, pc}
   22e9e:	46c0      	nop			@ (mov r8, r8)
   22ea0:	00001028 	.word	0x00001028

00022ea4 <_ZN20complex_full_dynamic3app17h871c8ac1d2e1a7cdE>:
   22ea4:	b5f0      	push	{r4, r5, r6, r7, lr}
   22ea6:	af03      	add	r7, sp, #12
   22ea8:	b0a7      	sub	sp, #156	@ 0x9c
   22eaa:	9004      	str	r0, [sp, #16]
   22eac:	ac06      	add	r4, sp, #24
   22eae:	2602      	movs	r6, #2
   22eb0:	7226      	strb	r6, [r4, #8]
   22eb2:	340c      	adds	r4, #12
   22eb4:	253f      	movs	r5, #63	@ 0x3f
   22eb6:	4620      	mov	r0, r4
   22eb8:	462a      	mov	r2, r5
   22eba:	f006 fb28 	bl	2950e <__aeabi_memcpy>
   22ebe:	a819      	add	r0, sp, #100	@ 0x64
   22ec0:	9005      	str	r0, [sp, #20]
   22ec2:	7206      	strb	r6, [r0, #8]
   22ec4:	2600      	movs	r6, #0
   22ec6:	9622      	str	r6, [sp, #136]	@ 0x88
   22ec8:	9621      	str	r6, [sp, #132]	@ 0x84
   22eca:	9620      	str	r6, [sp, #128]	@ 0x80
   22ecc:	961f      	str	r6, [sp, #124]	@ 0x7c
   22ece:	961e      	str	r6, [sp, #120]	@ 0x78
   22ed0:	961d      	str	r6, [sp, #116]	@ 0x74
   22ed2:	961c      	str	r6, [sp, #112]	@ 0x70
   22ed4:	2004      	movs	r0, #4
   22ed6:	9500      	str	r5, [sp, #0]
   22ed8:	9003      	str	r0, [sp, #12]
   22eda:	9001      	str	r0, [sp, #4]
   22edc:	a823      	add	r0, sp, #140	@ 0x8c
   22ede:	4931      	ldr	r1, [pc, #196]	@ (22fa4 <_ZN20complex_full_dynamic3app17h871c8ac1d2e1a7cdE+0x100>)
   22ee0:	2505      	movs	r5, #5
   22ee2:	462a      	mov	r2, r5
   22ee4:	4623      	mov	r3, r4
   22ee6:	f006 f94d 	bl	29184 <_ZN9allow_pin13dynamic_allow17h33d41317a2da4f1cE>
   22eea:	9823      	ldr	r0, [sp, #140]	@ 0x8c
   22eec:	2802      	cmp	r0, #2
   22eee:	d102      	bne.n	22ef6 <_ZN20complex_full_dynamic3app17h871c8ac1d2e1a7cdE+0x52>
   22ef0:	9924      	ldr	r1, [sp, #144]	@ 0x90
   22ef2:	4a2c      	ldr	r2, [pc, #176]	@ (22fa4 <_ZN20complex_full_dynamic3app17h871c8ac1d2e1a7cdE+0x100>)
   22ef4:	e005      	b.n	22f02 <_ZN20complex_full_dynamic3app17h871c8ac1d2e1a7cdE+0x5e>
   22ef6:	a906      	add	r1, sp, #24
   22ef8:	9a03      	ldr	r2, [sp, #12]
   22efa:	720a      	strb	r2, [r1, #8]
   22efc:	9507      	str	r5, [sp, #28]
   22efe:	4a29      	ldr	r2, [pc, #164]	@ (22fa4 <_ZN20complex_full_dynamic3app17h871c8ac1d2e1a7cdE+0x100>)
   22f00:	9206      	str	r2, [sp, #24]
   22f02:	9d05      	ldr	r5, [sp, #20]
   22f04:	350c      	adds	r5, #12
   22f06:	2401      	movs	r4, #1
   22f08:	2802      	cmp	r0, #2
   22f0a:	d032      	beq.n	22f72 <_ZN20complex_full_dynamic3app17h871c8ac1d2e1a7cdE+0xce>
   22f0c:	a819      	add	r0, sp, #100	@ 0x64
   22f0e:	7a00      	ldrb	r0, [r0, #8]
   22f10:	2103      	movs	r1, #3
   22f12:	2802      	cmp	r0, #2
   22f14:	d111      	bne.n	22f3a <_ZN20complex_full_dynamic3app17h871c8ac1d2e1a7cdE+0x96>
   22f16:	201c      	movs	r0, #28
   22f18:	9000      	str	r0, [sp, #0]
   22f1a:	9103      	str	r1, [sp, #12]
   22f1c:	9101      	str	r1, [sp, #4]
   22f1e:	a823      	add	r0, sp, #140	@ 0x8c
   22f20:	462b      	mov	r3, r5
   22f22:	2509      	movs	r5, #9
   22f24:	4611      	mov	r1, r2
   22f26:	462a      	mov	r2, r5
   22f28:	9305      	str	r3, [sp, #20]
   22f2a:	f006 f92b 	bl	29184 <_ZN9allow_pin13dynamic_allow17h33d41317a2da4f1cE>
   22f2e:	9823      	ldr	r0, [sp, #140]	@ 0x8c
   22f30:	2802      	cmp	r0, #2
   22f32:	d106      	bne.n	22f42 <_ZN20complex_full_dynamic3app17h871c8ac1d2e1a7cdE+0x9e>
   22f34:	9924      	ldr	r1, [sp, #144]	@ 0x90
   22f36:	4626      	mov	r6, r4
   22f38:	e009      	b.n	22f4e <_ZN20complex_full_dynamic3app17h871c8ac1d2e1a7cdE+0xaa>
   22f3a:	4626      	mov	r6, r4
   22f3c:	2e00      	cmp	r6, #0
   22f3e:	d009      	beq.n	22f54 <_ZN20complex_full_dynamic3app17h871c8ac1d2e1a7cdE+0xb0>
   22f40:	e017      	b.n	22f72 <_ZN20complex_full_dynamic3app17h871c8ac1d2e1a7cdE+0xce>
   22f42:	a819      	add	r0, sp, #100	@ 0x64
   22f44:	9903      	ldr	r1, [sp, #12]
   22f46:	7201      	strb	r1, [r0, #8]
   22f48:	951a      	str	r5, [sp, #104]	@ 0x68
   22f4a:	4816      	ldr	r0, [pc, #88]	@ (22fa4 <_ZN20complex_full_dynamic3app17h871c8ac1d2e1a7cdE+0x100>)
   22f4c:	9019      	str	r0, [sp, #100]	@ 0x64
   22f4e:	9d05      	ldr	r5, [sp, #20]
   22f50:	2e00      	cmp	r6, #0
   22f52:	d10e      	bne.n	22f72 <_ZN20complex_full_dynamic3app17h871c8ac1d2e1a7cdE+0xce>
   22f54:	4813      	ldr	r0, [pc, #76]	@ (22fa4 <_ZN20complex_full_dynamic3app17h871c8ac1d2e1a7cdE+0x100>)
   22f56:	2105      	movs	r1, #5
   22f58:	2209      	movs	r2, #9
   22f5a:	2600      	movs	r6, #0
   22f5c:	4633      	mov	r3, r6
   22f5e:	df02      	svc	2
   22f60:	287f      	cmp	r0, #127	@ 0x7f
   22f62:	d906      	bls.n	22f72 <_ZN20complex_full_dynamic3app17h871c8ac1d2e1a7cdE+0xce>
   22f64:	a806      	add	r0, sp, #24
   22f66:	f006 f8f9 	bl	2915c <_ZN9allow_pin12full_dynamic17unshare_if_shared17h9f78cce76fd1eb6dE>
   22f6a:	a819      	add	r0, sp, #100	@ 0x64
   22f6c:	f006 f8f6 	bl	2915c <_ZN9allow_pin12full_dynamic17unshare_if_shared17h9f78cce76fd1eb6dE>
   22f70:	4634      	mov	r4, r6
   22f72:	2c00      	cmp	r4, #0
   22f74:	d003      	beq.n	22f7e <_ZN20complex_full_dynamic3app17h871c8ac1d2e1a7cdE+0xda>
   22f76:	9c04      	ldr	r4, [sp, #16]
   22f78:	6061      	str	r1, [r4, #4]
   22f7a:	2001      	movs	r0, #1
   22f7c:	e009      	b.n	22f92 <_ZN20complex_full_dynamic3app17h871c8ac1d2e1a7cdE+0xee>
   22f7e:	a819      	add	r0, sp, #100	@ 0x64
   22f80:	f006 f8ec 	bl	2915c <_ZN9allow_pin12full_dynamic17unshare_if_shared17h9f78cce76fd1eb6dE>
   22f84:	9c04      	ldr	r4, [sp, #16]
   22f86:	1c60      	adds	r0, r4, #1
   22f88:	221c      	movs	r2, #28
   22f8a:	4629      	mov	r1, r5
   22f8c:	f006 fabf 	bl	2950e <__aeabi_memcpy>
   22f90:	2000      	movs	r0, #0
   22f92:	7020      	strb	r0, [r4, #0]
   22f94:	a819      	add	r0, sp, #100	@ 0x64
   22f96:	f006 f8e1 	bl	2915c <_ZN9allow_pin12full_dynamic17unshare_if_shared17h9f78cce76fd1eb6dE>
   22f9a:	a806      	add	r0, sp, #24
   22f9c:	f006 f8de 	bl	2915c <_ZN9allow_pin12full_dynamic17unshare_if_shared17h9f78cce76fd1eb6dE>
   22fa0:	b027      	add	sp, #156	@ 0x9c
   22fa2:	bdf0      	pop	{r4, r5, r6, r7, pc}
   22fa4:	00001694 	.word	0x00001694

00022fa8 <_ZN20complex_full_dynamic3app17h89b917ec37e340e0E>:
   22fa8:	b5f0      	push	{r4, r5, r6, r7, lr}
   22faa:	af03      	add	r7, sp, #12
   22fac:	b0ad      	sub	sp, #180	@ 0xb4
   22fae:	9005      	str	r0, [sp, #20]
   22fb0:	ae06      	add	r6, sp, #24
   22fb2:	2002      	movs	r0, #2
   22fb4:	9004      	str	r0, [sp, #16]
   22fb6:	7230      	strb	r0, [r6, #8]
   22fb8:	360c      	adds	r6, #12
   22fba:	2540      	movs	r5, #64	@ 0x40
   22fbc:	4630      	mov	r0, r6
   22fbe:	462a      	mov	r2, r5
   22fc0:	f006 faa5 	bl	2950e <__aeabi_memcpy>
   22fc4:	ac19      	add	r4, sp, #100	@ 0x64
   22fc6:	4620      	mov	r0, r4
   22fc8:	300c      	adds	r0, #12
   22fca:	2131      	movs	r1, #49	@ 0x31
   22fcc:	9003      	str	r0, [sp, #12]
   22fce:	9102      	str	r1, [sp, #8]
   22fd0:	f006 f8f0 	bl	291b4 <__aeabi_memclr4>
   22fd4:	9804      	ldr	r0, [sp, #16]
   22fd6:	7220      	strb	r0, [r4, #8]
   22fd8:	2404      	movs	r4, #4
   22fda:	9500      	str	r5, [sp, #0]
   22fdc:	9401      	str	r4, [sp, #4]
   22fde:	a829      	add	r0, sp, #164	@ 0xa4
   22fe0:	492e      	ldr	r1, [pc, #184]	@ (2309c <_ZN20complex_full_dynamic3app17h89b917ec37e340e0E+0xf4>)
   22fe2:	2508      	movs	r5, #8
   22fe4:	462a      	mov	r2, r5
   22fe6:	4633      	mov	r3, r6
   22fe8:	f006 f8cc 	bl	29184 <_ZN9allow_pin13dynamic_allow17h33d41317a2da4f1cE>
   22fec:	9829      	ldr	r0, [sp, #164]	@ 0xa4
   22fee:	2802      	cmp	r0, #2
   22ff0:	d102      	bne.n	22ff8 <_ZN20complex_full_dynamic3app17h89b917ec37e340e0E+0x50>
   22ff2:	992a      	ldr	r1, [sp, #168]	@ 0xa8
   22ff4:	4a29      	ldr	r2, [pc, #164]	@ (2309c <_ZN20complex_full_dynamic3app17h89b917ec37e340e0E+0xf4>)
   22ff6:	e004      	b.n	23002 <_ZN20complex_full_dynamic3app17h89b917ec37e340e0E+0x5a>
   22ff8:	a906      	add	r1, sp, #24
   22ffa:	720c      	strb	r4, [r1, #8]
   22ffc:	9507      	str	r5, [sp, #28]
   22ffe:	4a27      	ldr	r2, [pc, #156]	@ (2309c <_ZN20complex_full_dynamic3app17h89b917ec37e340e0E+0xf4>)
   23000:	9206      	str	r2, [sp, #24]
   23002:	2501      	movs	r5, #1
   23004:	2802      	cmp	r0, #2
   23006:	d02f      	beq.n	23068 <_ZN20complex_full_dynamic3app17h89b917ec37e340e0E+0xc0>
   23008:	a819      	add	r0, sp, #100	@ 0x64
   2300a:	7a00      	ldrb	r0, [r0, #8]
   2300c:	2802      	cmp	r0, #2
   2300e:	d10f      	bne.n	23030 <_ZN20complex_full_dynamic3app17h89b917ec37e340e0E+0x88>
   23010:	2603      	movs	r6, #3
   23012:	9802      	ldr	r0, [sp, #8]
   23014:	9000      	str	r0, [sp, #0]
   23016:	9601      	str	r6, [sp, #4]
   23018:	a829      	add	r0, sp, #164	@ 0xa4
   2301a:	2405      	movs	r4, #5
   2301c:	4611      	mov	r1, r2
   2301e:	4622      	mov	r2, r4
   23020:	9b03      	ldr	r3, [sp, #12]
   23022:	f006 f8af 	bl	29184 <_ZN9allow_pin13dynamic_allow17h33d41317a2da4f1cE>
   23026:	9829      	ldr	r0, [sp, #164]	@ 0xa4
   23028:	2802      	cmp	r0, #2
   2302a:	d106      	bne.n	2303a <_ZN20complex_full_dynamic3app17h89b917ec37e340e0E+0x92>
   2302c:	992a      	ldr	r1, [sp, #168]	@ 0xa8
   2302e:	e000      	b.n	23032 <_ZN20complex_full_dynamic3app17h89b917ec37e340e0E+0x8a>
   23030:	2103      	movs	r1, #3
   23032:	4628      	mov	r0, r5
   23034:	2800      	cmp	r0, #0
   23036:	d008      	beq.n	2304a <_ZN20complex_full_dynamic3app17h89b917ec37e340e0E+0xa2>
   23038:	e016      	b.n	23068 <_ZN20complex_full_dynamic3app17h89b917ec37e340e0E+0xc0>
   2303a:	a819      	add	r0, sp, #100	@ 0x64
   2303c:	7206      	strb	r6, [r0, #8]
   2303e:	941a      	str	r4, [sp, #104]	@ 0x68
   23040:	4816      	ldr	r0, [pc, #88]	@ (2309c <_ZN20complex_full_dynamic3app17h89b917ec37e340e0E+0xf4>)
   23042:	9019      	str	r0, [sp, #100]	@ 0x64
   23044:	2000      	movs	r0, #0
   23046:	2800      	cmp	r0, #0
   23048:	d10e      	bne.n	23068 <_ZN20complex_full_dynamic3app17h89b917ec37e340e0E+0xc0>
   2304a:	4814      	ldr	r0, [pc, #80]	@ (2309c <_ZN20complex_full_dynamic3app17h89b917ec37e340e0E+0xf4>)
   2304c:	2108      	movs	r1, #8
   2304e:	2205      	movs	r2, #5
   23050:	2400      	movs	r4, #0
   23052:	4623      	mov	r3, r4
   23054:	df02      	svc	2
   23056:	287f      	cmp	r0, #127	@ 0x7f
   23058:	d906      	bls.n	23068 <_ZN20complex_full_dynamic3app17h89b917ec37e340e0E+0xc0>
   2305a:	a806      	add	r0, sp, #24
   2305c:	f006 f87e 	bl	2915c <_ZN9allow_pin12full_dynamic17unshare_if_shared17h9f78cce76fd1eb6dE>
   23060:	a819      	add	r0, sp, #100	@ 0x64
   23062:	f006 f87b 	bl	2915c <_ZN9allow_pin12full_dynamic17unshare_if_shared17h9f78cce76fd1eb6dE>
   23066:	4625      	mov	r5, r4
   23068:	2d00      	cmp	r5, #0
   2306a:	d003      	beq.n	23074 <_ZN20complex_full_dynamic3app17h89b917ec37e340e0E+0xcc>
   2306c:	9c05      	ldr	r4, [sp, #20]
   2306e:	6061      	str	r1, [r4, #4]
   23070:	2001      	movs	r0, #1
   23072:	e009      	b.n	23088 <_ZN20complex_full_dynamic3app17h89b917ec37e340e0E+0xe0>
   23074:	a819      	add	r0, sp, #100	@ 0x64
   23076:	f006 f871 	bl	2915c <_ZN9allow_pin12full_dynamic17unshare_if_shared17h9f78cce76fd1eb6dE>
   2307a:	9c05      	ldr	r4, [sp, #20]
   2307c:	1c60      	adds	r0, r4, #1
   2307e:	2231      	movs	r2, #49	@ 0x31
   23080:	9903      	ldr	r1, [sp, #12]
   23082:	f006 fa44 	bl	2950e <__aeabi_memcpy>
   23086:	2000      	movs	r0, #0
   23088:	7020      	strb	r0, [r4, #0]
   2308a:	a819      	add	r0, sp, #100	@ 0x64
   2308c:	f006 f866 	bl	2915c <_ZN9allow_pin12full_dynamic17unshare_if_shared17h9f78cce76fd1eb6dE>
   23090:	a806      	add	r0, sp, #24
   23092:	f006 f863 	bl	2915c <_ZN9allow_pin12full_dynamic17unshare_if_shared17h9f78cce76fd1eb6dE>
   23096:	b02d      	add	sp, #180	@ 0xb4
   23098:	bdf0      	pop	{r4, r5, r6, r7, pc}
   2309a:	46c0      	nop			@ (mov r8, r8)
   2309c:	00000fce 	.word	0x00000fce

000230a0 <_ZN20complex_full_dynamic3app17h8a469badaed87b2dE>:
   230a0:	b5f0      	push	{r4, r5, r6, r7, lr}
   230a2:	af03      	add	r7, sp, #12
   230a4:	b0a7      	sub	sp, #156	@ 0x9c
   230a6:	9006      	str	r0, [sp, #24]
   230a8:	ae07      	add	r6, sp, #28
   230aa:	2002      	movs	r0, #2
   230ac:	9005      	str	r0, [sp, #20]
   230ae:	7230      	strb	r0, [r6, #8]
   230b0:	360c      	adds	r6, #12
   230b2:	250f      	movs	r5, #15
   230b4:	4630      	mov	r0, r6
   230b6:	462a      	mov	r2, r5
   230b8:	f006 fa29 	bl	2950e <__aeabi_memcpy>
   230bc:	ac0e      	add	r4, sp, #56	@ 0x38
   230be:	4620      	mov	r0, r4
   230c0:	300c      	adds	r0, #12
   230c2:	2146      	movs	r1, #70	@ 0x46
   230c4:	9004      	str	r0, [sp, #16]
   230c6:	9103      	str	r1, [sp, #12]
   230c8:	f006 f874 	bl	291b4 <__aeabi_memclr4>
   230cc:	9805      	ldr	r0, [sp, #20]
   230ce:	7220      	strb	r0, [r4, #8]
   230d0:	2404      	movs	r4, #4
   230d2:	9500      	str	r5, [sp, #0]
   230d4:	9401      	str	r4, [sp, #4]
   230d6:	a823      	add	r0, sp, #140	@ 0x8c
   230d8:	492e      	ldr	r1, [pc, #184]	@ (23194 <_ZN20complex_full_dynamic3app17h8a469badaed87b2dE+0xf4>)
   230da:	2509      	movs	r5, #9
   230dc:	462a      	mov	r2, r5
   230de:	4633      	mov	r3, r6
   230e0:	f006 f850 	bl	29184 <_ZN9allow_pin13dynamic_allow17h33d41317a2da4f1cE>
   230e4:	9823      	ldr	r0, [sp, #140]	@ 0x8c
   230e6:	2802      	cmp	r0, #2
   230e8:	d102      	bne.n	230f0 <_ZN20complex_full_dynamic3app17h8a469badaed87b2dE+0x50>
   230ea:	9924      	ldr	r1, [sp, #144]	@ 0x90
   230ec:	4a29      	ldr	r2, [pc, #164]	@ (23194 <_ZN20complex_full_dynamic3app17h8a469badaed87b2dE+0xf4>)
   230ee:	e004      	b.n	230fa <_ZN20complex_full_dynamic3app17h8a469badaed87b2dE+0x5a>
   230f0:	a907      	add	r1, sp, #28
   230f2:	720c      	strb	r4, [r1, #8]
   230f4:	9508      	str	r5, [sp, #32]
   230f6:	4a27      	ldr	r2, [pc, #156]	@ (23194 <_ZN20complex_full_dynamic3app17h8a469badaed87b2dE+0xf4>)
   230f8:	9207      	str	r2, [sp, #28]
   230fa:	2501      	movs	r5, #1
   230fc:	2802      	cmp	r0, #2
   230fe:	d02f      	beq.n	23160 <_ZN20complex_full_dynamic3app17h8a469badaed87b2dE+0xc0>
   23100:	a80e      	add	r0, sp, #56	@ 0x38
   23102:	7a00      	ldrb	r0, [r0, #8]
   23104:	2802      	cmp	r0, #2
   23106:	d10f      	bne.n	23128 <_ZN20complex_full_dynamic3app17h8a469badaed87b2dE+0x88>
   23108:	2603      	movs	r6, #3
   2310a:	9803      	ldr	r0, [sp, #12]
   2310c:	9000      	str	r0, [sp, #0]
   2310e:	9601      	str	r6, [sp, #4]
   23110:	a823      	add	r0, sp, #140	@ 0x8c
   23112:	2402      	movs	r4, #2
   23114:	4611      	mov	r1, r2
   23116:	4622      	mov	r2, r4
   23118:	9b04      	ldr	r3, [sp, #16]
   2311a:	f006 f833 	bl	29184 <_ZN9allow_pin13dynamic_allow17h33d41317a2da4f1cE>
   2311e:	9823      	ldr	r0, [sp, #140]	@ 0x8c
   23120:	2802      	cmp	r0, #2
   23122:	d106      	bne.n	23132 <_ZN20complex_full_dynamic3app17h8a469badaed87b2dE+0x92>
   23124:	9924      	ldr	r1, [sp, #144]	@ 0x90
   23126:	e000      	b.n	2312a <_ZN20complex_full_dynamic3app17h8a469badaed87b2dE+0x8a>
   23128:	2103      	movs	r1, #3
   2312a:	4628      	mov	r0, r5
   2312c:	2800      	cmp	r0, #0
   2312e:	d008      	beq.n	23142 <_ZN20complex_full_dynamic3app17h8a469badaed87b2dE+0xa2>
   23130:	e016      	b.n	23160 <_ZN20complex_full_dynamic3app17h8a469badaed87b2dE+0xc0>
   23132:	a80e      	add	r0, sp, #56	@ 0x38
   23134:	7206      	strb	r6, [r0, #8]
   23136:	940f      	str	r4, [sp, #60]	@ 0x3c
   23138:	4816      	ldr	r0, [pc, #88]	@ (23194 <_ZN20complex_full_dynamic3app17h8a469badaed87b2dE+0xf4>)
   2313a:	900e      	str	r0, [sp, #56]	@ 0x38
   2313c:	2000      	movs	r0, #0
   2313e:	2800      	cmp	r0, #0
   23140:	d10e      	bne.n	23160 <_ZN20complex_full_dynamic3app17h8a469badaed87b2dE+0xc0>
   23142:	4814      	ldr	r0, [pc, #80]	@ (23194 <_ZN20complex_full_dynamic3app17h8a469badaed87b2dE+0xf4>)
   23144:	2109      	movs	r1, #9
   23146:	2202      	movs	r2, #2
   23148:	2400      	movs	r4, #0
   2314a:	4623      	mov	r3, r4
   2314c:	df02      	svc	2
   2314e:	287f      	cmp	r0, #127	@ 0x7f
   23150:	d906      	bls.n	23160 <_ZN20complex_full_dynamic3app17h8a469badaed87b2dE+0xc0>
   23152:	a807      	add	r0, sp, #28
   23154:	f006 f802 	bl	2915c <_ZN9allow_pin12full_dynamic17unshare_if_shared17h9f78cce76fd1eb6dE>
   23158:	a80e      	add	r0, sp, #56	@ 0x38
   2315a:	f005 ffff 	bl	2915c <_ZN9allow_pin12full_dynamic17unshare_if_shared17h9f78cce76fd1eb6dE>
   2315e:	4625      	mov	r5, r4
   23160:	2d00      	cmp	r5, #0
   23162:	d003      	beq.n	2316c <_ZN20complex_full_dynamic3app17h8a469badaed87b2dE+0xcc>
   23164:	9c06      	ldr	r4, [sp, #24]
   23166:	6061      	str	r1, [r4, #4]
   23168:	2001      	movs	r0, #1
   2316a:	e009      	b.n	23180 <_ZN20complex_full_dynamic3app17h8a469badaed87b2dE+0xe0>
   2316c:	a80e      	add	r0, sp, #56	@ 0x38
   2316e:	f005 fff5 	bl	2915c <_ZN9allow_pin12full_dynamic17unshare_if_shared17h9f78cce76fd1eb6dE>
   23172:	9c06      	ldr	r4, [sp, #24]
   23174:	1c60      	adds	r0, r4, #1
   23176:	2246      	movs	r2, #70	@ 0x46
   23178:	9904      	ldr	r1, [sp, #16]
   2317a:	f006 f9c8 	bl	2950e <__aeabi_memcpy>
   2317e:	2000      	movs	r0, #0
   23180:	7020      	strb	r0, [r4, #0]
   23182:	a80e      	add	r0, sp, #56	@ 0x38
   23184:	f005 ffea 	bl	2915c <_ZN9allow_pin12full_dynamic17unshare_if_shared17h9f78cce76fd1eb6dE>
   23188:	a807      	add	r0, sp, #28
   2318a:	f005 ffe7 	bl	2915c <_ZN9allow_pin12full_dynamic17unshare_if_shared17h9f78cce76fd1eb6dE>
   2318e:	b027      	add	sp, #156	@ 0x9c
   23190:	bdf0      	pop	{r4, r5, r6, r7, pc}
   23192:	46c0      	nop			@ (mov r8, r8)
   23194:	00001d7e 	.word	0x00001d7e

00023198 <_ZN20complex_full_dynamic3app17h8e5f2ec33ac76f2aE>:
   23198:	b5f0      	push	{r4, r5, r6, r7, lr}
   2319a:	af03      	add	r7, sp, #12
   2319c:	b0b5      	sub	sp, #212	@ 0xd4
   2319e:	9006      	str	r0, [sp, #24]
   231a0:	ac07      	add	r4, sp, #28
   231a2:	2002      	movs	r0, #2
   231a4:	9005      	str	r0, [sp, #20]
   231a6:	7220      	strb	r0, [r4, #8]
   231a8:	340c      	adds	r4, #12
   231aa:	2563      	movs	r5, #99	@ 0x63
   231ac:	4620      	mov	r0, r4
   231ae:	462a      	mov	r2, r5
   231b0:	f006 f9ad 	bl	2950e <__aeabi_memcpy>
   231b4:	ae23      	add	r6, sp, #140	@ 0x8c
   231b6:	4630      	mov	r0, r6
   231b8:	300c      	adds	r0, #12
   231ba:	212c      	movs	r1, #44	@ 0x2c
   231bc:	9004      	str	r0, [sp, #16]
   231be:	9103      	str	r1, [sp, #12]
   231c0:	f005 fff8 	bl	291b4 <__aeabi_memclr4>
   231c4:	9805      	ldr	r0, [sp, #20]
   231c6:	7230      	strb	r0, [r6, #8]
   231c8:	2004      	movs	r0, #4
   231ca:	9500      	str	r5, [sp, #0]
   231cc:	9005      	str	r0, [sp, #20]
   231ce:	9001      	str	r0, [sp, #4]
   231d0:	a831      	add	r0, sp, #196	@ 0xc4
   231d2:	2518      	movs	r5, #24
   231d4:	2605      	movs	r6, #5
   231d6:	4629      	mov	r1, r5
   231d8:	4632      	mov	r2, r6
   231da:	4623      	mov	r3, r4
   231dc:	f005 ffd2 	bl	29184 <_ZN9allow_pin13dynamic_allow17h33d41317a2da4f1cE>
   231e0:	9831      	ldr	r0, [sp, #196]	@ 0xc4
   231e2:	2802      	cmp	r0, #2
   231e4:	d101      	bne.n	231ea <_ZN20complex_full_dynamic3app17h8e5f2ec33ac76f2aE+0x52>
   231e6:	9932      	ldr	r1, [sp, #200]	@ 0xc8
   231e8:	e004      	b.n	231f4 <_ZN20complex_full_dynamic3app17h8e5f2ec33ac76f2aE+0x5c>
   231ea:	a907      	add	r1, sp, #28
   231ec:	9a05      	ldr	r2, [sp, #20]
   231ee:	720a      	strb	r2, [r1, #8]
   231f0:	9608      	str	r6, [sp, #32]
   231f2:	9507      	str	r5, [sp, #28]
   231f4:	2601      	movs	r6, #1
   231f6:	2802      	cmp	r0, #2
   231f8:	d02e      	beq.n	23258 <_ZN20complex_full_dynamic3app17h8e5f2ec33ac76f2aE+0xc0>
   231fa:	a823      	add	r0, sp, #140	@ 0x8c
   231fc:	7a00      	ldrb	r0, [r0, #8]
   231fe:	2802      	cmp	r0, #2
   23200:	d10f      	bne.n	23222 <_ZN20complex_full_dynamic3app17h8e5f2ec33ac76f2aE+0x8a>
   23202:	2403      	movs	r4, #3
   23204:	9803      	ldr	r0, [sp, #12]
   23206:	9000      	str	r0, [sp, #0]
   23208:	9401      	str	r4, [sp, #4]
   2320a:	a831      	add	r0, sp, #196	@ 0xc4
   2320c:	2518      	movs	r5, #24
   2320e:	4629      	mov	r1, r5
   23210:	4622      	mov	r2, r4
   23212:	9b04      	ldr	r3, [sp, #16]
   23214:	f005 ffb6 	bl	29184 <_ZN9allow_pin13dynamic_allow17h33d41317a2da4f1cE>
   23218:	9831      	ldr	r0, [sp, #196]	@ 0xc4
   2321a:	2802      	cmp	r0, #2
   2321c:	d106      	bne.n	2322c <_ZN20complex_full_dynamic3app17h8e5f2ec33ac76f2aE+0x94>
   2321e:	9932      	ldr	r1, [sp, #200]	@ 0xc8
   23220:	e000      	b.n	23224 <_ZN20complex_full_dynamic3app17h8e5f2ec33ac76f2aE+0x8c>
   23222:	2103      	movs	r1, #3
   23224:	4630      	mov	r0, r6
   23226:	2800      	cmp	r0, #0
   23228:	d007      	beq.n	2323a <_ZN20complex_full_dynamic3app17h8e5f2ec33ac76f2aE+0xa2>
   2322a:	e015      	b.n	23258 <_ZN20complex_full_dynamic3app17h8e5f2ec33ac76f2aE+0xc0>
   2322c:	a823      	add	r0, sp, #140	@ 0x8c
   2322e:	7204      	strb	r4, [r0, #8]
   23230:	9424      	str	r4, [sp, #144]	@ 0x90
   23232:	9523      	str	r5, [sp, #140]	@ 0x8c
   23234:	2000      	movs	r0, #0
   23236:	2800      	cmp	r0, #0
   23238:	d10e      	bne.n	23258 <_ZN20complex_full_dynamic3app17h8e5f2ec33ac76f2aE+0xc0>
   2323a:	2018      	movs	r0, #24
   2323c:	2105      	movs	r1, #5
   2323e:	2203      	movs	r2, #3
   23240:	2400      	movs	r4, #0
   23242:	4623      	mov	r3, r4
   23244:	df02      	svc	2
   23246:	287f      	cmp	r0, #127	@ 0x7f
   23248:	d906      	bls.n	23258 <_ZN20complex_full_dynamic3app17h8e5f2ec33ac76f2aE+0xc0>
   2324a:	a807      	add	r0, sp, #28
   2324c:	f005 ff86 	bl	2915c <_ZN9allow_pin12full_dynamic17unshare_if_shared17h9f78cce76fd1eb6dE>
   23250:	a823      	add	r0, sp, #140	@ 0x8c
   23252:	f005 ff83 	bl	2915c <_ZN9allow_pin12full_dynamic17unshare_if_shared17h9f78cce76fd1eb6dE>
   23256:	4626      	mov	r6, r4
   23258:	2e00      	cmp	r6, #0
   2325a:	d003      	beq.n	23264 <_ZN20complex_full_dynamic3app17h8e5f2ec33ac76f2aE+0xcc>
   2325c:	9c06      	ldr	r4, [sp, #24]
   2325e:	6061      	str	r1, [r4, #4]
   23260:	2001      	movs	r0, #1
   23262:	e009      	b.n	23278 <_ZN20complex_full_dynamic3app17h8e5f2ec33ac76f2aE+0xe0>
   23264:	a823      	add	r0, sp, #140	@ 0x8c
   23266:	f005 ff79 	bl	2915c <_ZN9allow_pin12full_dynamic17unshare_if_shared17h9f78cce76fd1eb6dE>
   2326a:	9c06      	ldr	r4, [sp, #24]
   2326c:	1c60      	adds	r0, r4, #1
   2326e:	222c      	movs	r2, #44	@ 0x2c
   23270:	9904      	ldr	r1, [sp, #16]
   23272:	f006 f94c 	bl	2950e <__aeabi_memcpy>
   23276:	2000      	movs	r0, #0
   23278:	7020      	strb	r0, [r4, #0]
   2327a:	a823      	add	r0, sp, #140	@ 0x8c
   2327c:	f005 ff6e 	bl	2915c <_ZN9allow_pin12full_dynamic17unshare_if_shared17h9f78cce76fd1eb6dE>
   23280:	a807      	add	r0, sp, #28
   23282:	f005 ff6b 	bl	2915c <_ZN9allow_pin12full_dynamic17unshare_if_shared17h9f78cce76fd1eb6dE>
   23286:	b035      	add	sp, #212	@ 0xd4
   23288:	bdf0      	pop	{r4, r5, r6, r7, pc}
   2328a:	d4d4      	bmi.n	23236 <_ZN20complex_full_dynamic3app17h8e5f2ec33ac76f2aE+0x9e>

0002328c <_ZN20complex_full_dynamic3app17h8f8891883fb4ba64E>:
   2328c:	b5f0      	push	{r4, r5, r6, r7, lr}
   2328e:	af03      	add	r7, sp, #12
   23290:	b0a9      	sub	sp, #164	@ 0xa4
   23292:	9006      	str	r0, [sp, #24]
   23294:	ad07      	add	r5, sp, #28
   23296:	2402      	movs	r4, #2
   23298:	722c      	strb	r4, [r5, #8]
   2329a:	350c      	adds	r5, #12
   2329c:	2238      	movs	r2, #56	@ 0x38
   2329e:	9205      	str	r2, [sp, #20]
   232a0:	4628      	mov	r0, r5
   232a2:	f006 f934 	bl	2950e <__aeabi_memcpy>
   232a6:	ae18      	add	r6, sp, #96	@ 0x60
   232a8:	4630      	mov	r0, r6
   232aa:	300c      	adds	r0, #12
   232ac:	2127      	movs	r1, #39	@ 0x27
   232ae:	9004      	str	r0, [sp, #16]
   232b0:	9103      	str	r1, [sp, #12]
   232b2:	f005 ff7f 	bl	291b4 <__aeabi_memclr4>
   232b6:	7234      	strb	r4, [r6, #8]
   232b8:	4626      	mov	r6, r4
   232ba:	2004      	movs	r0, #4
   232bc:	9905      	ldr	r1, [sp, #20]
   232be:	9100      	str	r1, [sp, #0]
   232c0:	9005      	str	r0, [sp, #20]
   232c2:	9001      	str	r0, [sp, #4]
   232c4:	a825      	add	r0, sp, #148	@ 0x94
   232c6:	4c2e      	ldr	r4, [pc, #184]	@ (23380 <_ZN20complex_full_dynamic3app17h8f8891883fb4ba64E+0xf4>)
   232c8:	4621      	mov	r1, r4
   232ca:	4632      	mov	r2, r6
   232cc:	462b      	mov	r3, r5
   232ce:	f005 ff59 	bl	29184 <_ZN9allow_pin13dynamic_allow17h33d41317a2da4f1cE>
   232d2:	9825      	ldr	r0, [sp, #148]	@ 0x94
   232d4:	2802      	cmp	r0, #2
   232d6:	d101      	bne.n	232dc <_ZN20complex_full_dynamic3app17h8f8891883fb4ba64E+0x50>
   232d8:	9926      	ldr	r1, [sp, #152]	@ 0x98
   232da:	e004      	b.n	232e6 <_ZN20complex_full_dynamic3app17h8f8891883fb4ba64E+0x5a>
   232dc:	a907      	add	r1, sp, #28
   232de:	9a05      	ldr	r2, [sp, #20]
   232e0:	720a      	strb	r2, [r1, #8]
   232e2:	9608      	str	r6, [sp, #32]
   232e4:	9407      	str	r4, [sp, #28]
   232e6:	2501      	movs	r5, #1
   232e8:	2802      	cmp	r0, #2
   232ea:	d02f      	beq.n	2334c <_ZN20complex_full_dynamic3app17h8f8891883fb4ba64E+0xc0>
   232ec:	a818      	add	r0, sp, #96	@ 0x60
   232ee:	7a00      	ldrb	r0, [r0, #8]
   232f0:	2802      	cmp	r0, #2
   232f2:	d10f      	bne.n	23314 <_ZN20complex_full_dynamic3app17h8f8891883fb4ba64E+0x88>
   232f4:	2603      	movs	r6, #3
   232f6:	9803      	ldr	r0, [sp, #12]
   232f8:	9000      	str	r0, [sp, #0]
   232fa:	9601      	str	r6, [sp, #4]
   232fc:	a825      	add	r0, sp, #148	@ 0x94
   232fe:	4621      	mov	r1, r4
   23300:	2408      	movs	r4, #8
   23302:	4622      	mov	r2, r4
   23304:	9b04      	ldr	r3, [sp, #16]
   23306:	f005 ff3d 	bl	29184 <_ZN9allow_pin13dynamic_allow17h33d41317a2da4f1cE>
   2330a:	9825      	ldr	r0, [sp, #148]	@ 0x94
   2330c:	2802      	cmp	r0, #2
   2330e:	d106      	bne.n	2331e <_ZN20complex_full_dynamic3app17h8f8891883fb4ba64E+0x92>
   23310:	9926      	ldr	r1, [sp, #152]	@ 0x98
   23312:	e000      	b.n	23316 <_ZN20complex_full_dynamic3app17h8f8891883fb4ba64E+0x8a>
   23314:	2103      	movs	r1, #3
   23316:	4628      	mov	r0, r5
   23318:	2800      	cmp	r0, #0
   2331a:	d008      	beq.n	2332e <_ZN20complex_full_dynamic3app17h8f8891883fb4ba64E+0xa2>
   2331c:	e016      	b.n	2334c <_ZN20complex_full_dynamic3app17h8f8891883fb4ba64E+0xc0>
   2331e:	a818      	add	r0, sp, #96	@ 0x60
   23320:	7206      	strb	r6, [r0, #8]
   23322:	9419      	str	r4, [sp, #100]	@ 0x64
   23324:	4816      	ldr	r0, [pc, #88]	@ (23380 <_ZN20complex_full_dynamic3app17h8f8891883fb4ba64E+0xf4>)
   23326:	9018      	str	r0, [sp, #96]	@ 0x60
   23328:	2000      	movs	r0, #0
   2332a:	2800      	cmp	r0, #0
   2332c:	d10e      	bne.n	2334c <_ZN20complex_full_dynamic3app17h8f8891883fb4ba64E+0xc0>
   2332e:	4814      	ldr	r0, [pc, #80]	@ (23380 <_ZN20complex_full_dynamic3app17h8f8891883fb4ba64E+0xf4>)
   23330:	2102      	movs	r1, #2
   23332:	2208      	movs	r2, #8
   23334:	2400      	movs	r4, #0
   23336:	4623      	mov	r3, r4
   23338:	df02      	svc	2
   2333a:	287f      	cmp	r0, #127	@ 0x7f
   2333c:	d906      	bls.n	2334c <_ZN20complex_full_dynamic3app17h8f8891883fb4ba64E+0xc0>
   2333e:	a807      	add	r0, sp, #28
   23340:	f005 ff0c 	bl	2915c <_ZN9allow_pin12full_dynamic17unshare_if_shared17h9f78cce76fd1eb6dE>
   23344:	a818      	add	r0, sp, #96	@ 0x60
   23346:	f005 ff09 	bl	2915c <_ZN9allow_pin12full_dynamic17unshare_if_shared17h9f78cce76fd1eb6dE>
   2334a:	4625      	mov	r5, r4
   2334c:	2d00      	cmp	r5, #0
   2334e:	d003      	beq.n	23358 <_ZN20complex_full_dynamic3app17h8f8891883fb4ba64E+0xcc>
   23350:	9c06      	ldr	r4, [sp, #24]
   23352:	6061      	str	r1, [r4, #4]
   23354:	2001      	movs	r0, #1
   23356:	e009      	b.n	2336c <_ZN20complex_full_dynamic3app17h8f8891883fb4ba64E+0xe0>
   23358:	a818      	add	r0, sp, #96	@ 0x60
   2335a:	f005 feff 	bl	2915c <_ZN9allow_pin12full_dynamic17unshare_if_shared17h9f78cce76fd1eb6dE>
   2335e:	9c06      	ldr	r4, [sp, #24]
   23360:	1c60      	adds	r0, r4, #1
   23362:	2227      	movs	r2, #39	@ 0x27
   23364:	9904      	ldr	r1, [sp, #16]
   23366:	f006 f8d2 	bl	2950e <__aeabi_memcpy>
   2336a:	2000      	movs	r0, #0
   2336c:	7020      	strb	r0, [r4, #0]
   2336e:	a818      	add	r0, sp, #96	@ 0x60
   23370:	f005 fef4 	bl	2915c <_ZN9allow_pin12full_dynamic17unshare_if_shared17h9f78cce76fd1eb6dE>
   23374:	a807      	add	r0, sp, #28
   23376:	f005 fef1 	bl	2915c <_ZN9allow_pin12full_dynamic17unshare_if_shared17h9f78cce76fd1eb6dE>
   2337a:	b029      	add	sp, #164	@ 0xa4
   2337c:	bdf0      	pop	{r4, r5, r6, r7, pc}
   2337e:	46c0      	nop			@ (mov r8, r8)
   23380:	00000e2b 	.word	0x00000e2b

00023384 <_ZN20complex_full_dynamic3app17h975d644cd24a92cbE>:
   23384:	b5f0      	push	{r4, r5, r6, r7, lr}
   23386:	af03      	add	r7, sp, #12
   23388:	b0af      	sub	sp, #188	@ 0xbc
   2338a:	9005      	str	r0, [sp, #20]
   2338c:	ad06      	add	r5, sp, #24
   2338e:	2402      	movs	r4, #2
   23390:	722c      	strb	r4, [r5, #8]
   23392:	350c      	adds	r5, #12
   23394:	224a      	movs	r2, #74	@ 0x4a
   23396:	9204      	str	r2, [sp, #16]
   23398:	4628      	mov	r0, r5
   2339a:	f006 f8b8 	bl	2950e <__aeabi_memcpy>
   2339e:	ae1c      	add	r6, sp, #112	@ 0x70
   233a0:	4630      	mov	r0, r6
   233a2:	300c      	adds	r0, #12
   233a4:	212d      	movs	r1, #45	@ 0x2d
   233a6:	9003      	str	r0, [sp, #12]
   233a8:	9102      	str	r1, [sp, #8]
   233aa:	f005 ff03 	bl	291b4 <__aeabi_memclr4>
   233ae:	7234      	strb	r4, [r6, #8]
   233b0:	2004      	movs	r0, #4
   233b2:	9904      	ldr	r1, [sp, #16]
   233b4:	9100      	str	r1, [sp, #0]
   233b6:	9004      	str	r0, [sp, #16]
   233b8:	9001      	str	r0, [sp, #4]
   233ba:	a82b      	add	r0, sp, #172	@ 0xac
   233bc:	4e2c      	ldr	r6, [pc, #176]	@ (23470 <_ZN20complex_full_dynamic3app17h975d644cd24a92cbE+0xec>)
   233be:	4631      	mov	r1, r6
   233c0:	4622      	mov	r2, r4
   233c2:	462b      	mov	r3, r5
   233c4:	f005 fede 	bl	29184 <_ZN9allow_pin13dynamic_allow17h33d41317a2da4f1cE>
   233c8:	982b      	ldr	r0, [sp, #172]	@ 0xac
   233ca:	2802      	cmp	r0, #2
   233cc:	d101      	bne.n	233d2 <_ZN20complex_full_dynamic3app17h975d644cd24a92cbE+0x4e>
   233ce:	992c      	ldr	r1, [sp, #176]	@ 0xb0
   233d0:	e004      	b.n	233dc <_ZN20complex_full_dynamic3app17h975d644cd24a92cbE+0x58>
   233d2:	a906      	add	r1, sp, #24
   233d4:	9a04      	ldr	r2, [sp, #16]
   233d6:	720a      	strb	r2, [r1, #8]
   233d8:	9407      	str	r4, [sp, #28]
   233da:	9606      	str	r6, [sp, #24]
   233dc:	2501      	movs	r5, #1
   233de:	2802      	cmp	r0, #2
   233e0:	d02d      	beq.n	2343e <_ZN20complex_full_dynamic3app17h975d644cd24a92cbE+0xba>
   233e2:	a81c      	add	r0, sp, #112	@ 0x70
   233e4:	7a00      	ldrb	r0, [r0, #8]
   233e6:	2802      	cmp	r0, #2
   233e8:	d10e      	bne.n	23408 <_ZN20complex_full_dynamic3app17h975d644cd24a92cbE+0x84>
   233ea:	2403      	movs	r4, #3
   233ec:	9802      	ldr	r0, [sp, #8]
   233ee:	9000      	str	r0, [sp, #0]
   233f0:	9401      	str	r4, [sp, #4]
   233f2:	a82b      	add	r0, sp, #172	@ 0xac
   233f4:	4631      	mov	r1, r6
   233f6:	4622      	mov	r2, r4
   233f8:	9b03      	ldr	r3, [sp, #12]
   233fa:	f005 fec3 	bl	29184 <_ZN9allow_pin13dynamic_allow17h33d41317a2da4f1cE>
   233fe:	982b      	ldr	r0, [sp, #172]	@ 0xac
   23400:	2802      	cmp	r0, #2
   23402:	d106      	bne.n	23412 <_ZN20complex_full_dynamic3app17h975d644cd24a92cbE+0x8e>
   23404:	992c      	ldr	r1, [sp, #176]	@ 0xb0
   23406:	e000      	b.n	2340a <_ZN20complex_full_dynamic3app17h975d644cd24a92cbE+0x86>
   23408:	2103      	movs	r1, #3
   2340a:	4628      	mov	r0, r5
   2340c:	2800      	cmp	r0, #0
   2340e:	d007      	beq.n	23420 <_ZN20complex_full_dynamic3app17h975d644cd24a92cbE+0x9c>
   23410:	e015      	b.n	2343e <_ZN20complex_full_dynamic3app17h975d644cd24a92cbE+0xba>
   23412:	a81c      	add	r0, sp, #112	@ 0x70
   23414:	7204      	strb	r4, [r0, #8]
   23416:	941d      	str	r4, [sp, #116]	@ 0x74
   23418:	961c      	str	r6, [sp, #112]	@ 0x70
   2341a:	2000      	movs	r0, #0
   2341c:	2800      	cmp	r0, #0
   2341e:	d10e      	bne.n	2343e <_ZN20complex_full_dynamic3app17h975d644cd24a92cbE+0xba>
   23420:	4813      	ldr	r0, [pc, #76]	@ (23470 <_ZN20complex_full_dynamic3app17h975d644cd24a92cbE+0xec>)
   23422:	2102      	movs	r1, #2
   23424:	2203      	movs	r2, #3
   23426:	2400      	movs	r4, #0
   23428:	4623      	mov	r3, r4
   2342a:	df02      	svc	2
   2342c:	287f      	cmp	r0, #127	@ 0x7f
   2342e:	d906      	bls.n	2343e <_ZN20complex_full_dynamic3app17h975d644cd24a92cbE+0xba>
   23430:	a806      	add	r0, sp, #24
   23432:	f005 fe93 	bl	2915c <_ZN9allow_pin12full_dynamic17unshare_if_shared17h9f78cce76fd1eb6dE>
   23436:	a81c      	add	r0, sp, #112	@ 0x70
   23438:	f005 fe90 	bl	2915c <_ZN9allow_pin12full_dynamic17unshare_if_shared17h9f78cce76fd1eb6dE>
   2343c:	4625      	mov	r5, r4
   2343e:	2d00      	cmp	r5, #0
   23440:	d003      	beq.n	2344a <_ZN20complex_full_dynamic3app17h975d644cd24a92cbE+0xc6>
   23442:	9c05      	ldr	r4, [sp, #20]
   23444:	6061      	str	r1, [r4, #4]
   23446:	2001      	movs	r0, #1
   23448:	e009      	b.n	2345e <_ZN20complex_full_dynamic3app17h975d644cd24a92cbE+0xda>
   2344a:	a81c      	add	r0, sp, #112	@ 0x70
   2344c:	f005 fe86 	bl	2915c <_ZN9allow_pin12full_dynamic17unshare_if_shared17h9f78cce76fd1eb6dE>
   23450:	9c05      	ldr	r4, [sp, #20]
   23452:	1c60      	adds	r0, r4, #1
   23454:	222d      	movs	r2, #45	@ 0x2d
   23456:	9903      	ldr	r1, [sp, #12]
   23458:	f006 f859 	bl	2950e <__aeabi_memcpy>
   2345c:	2000      	movs	r0, #0
   2345e:	7020      	strb	r0, [r4, #0]
   23460:	a81c      	add	r0, sp, #112	@ 0x70
   23462:	f005 fe7b 	bl	2915c <_ZN9allow_pin12full_dynamic17unshare_if_shared17h9f78cce76fd1eb6dE>
   23466:	a806      	add	r0, sp, #24
   23468:	f005 fe78 	bl	2915c <_ZN9allow_pin12full_dynamic17unshare_if_shared17h9f78cce76fd1eb6dE>
   2346c:	b02f      	add	sp, #188	@ 0xbc
   2346e:	bdf0      	pop	{r4, r5, r6, r7, pc}
   23470:	00000e3d 	.word	0x00000e3d

00023474 <_ZN20complex_full_dynamic3app17h98862059f184e671E>:
   23474:	b5f0      	push	{r4, r5, r6, r7, lr}
   23476:	af03      	add	r7, sp, #12
   23478:	b0b3      	sub	sp, #204	@ 0xcc
   2347a:	9005      	str	r0, [sp, #20]
   2347c:	ae06      	add	r6, sp, #24
   2347e:	2002      	movs	r0, #2
   23480:	9004      	str	r0, [sp, #16]
   23482:	7230      	strb	r0, [r6, #8]
   23484:	360c      	adds	r6, #12
   23486:	2555      	movs	r5, #85	@ 0x55
   23488:	4630      	mov	r0, r6
   2348a:	462a      	mov	r2, r5
   2348c:	f006 f83f 	bl	2950e <__aeabi_memcpy>
   23490:	ac1f      	add	r4, sp, #124	@ 0x7c
   23492:	4620      	mov	r0, r4
   23494:	300c      	adds	r0, #12
   23496:	2132      	movs	r1, #50	@ 0x32
   23498:	9003      	str	r0, [sp, #12]
   2349a:	9102      	str	r1, [sp, #8]
   2349c:	f005 fe8a 	bl	291b4 <__aeabi_memclr4>
   234a0:	9804      	ldr	r0, [sp, #16]
   234a2:	7220      	strb	r0, [r4, #8]
   234a4:	2404      	movs	r4, #4
   234a6:	9500      	str	r5, [sp, #0]
   234a8:	9401      	str	r4, [sp, #4]
   234aa:	a82f      	add	r0, sp, #188	@ 0xbc
   234ac:	492e      	ldr	r1, [pc, #184]	@ (23568 <_ZN20complex_full_dynamic3app17h98862059f184e671E+0xf4>)
   234ae:	2508      	movs	r5, #8
   234b0:	462a      	mov	r2, r5
   234b2:	4633      	mov	r3, r6
   234b4:	f005 fe66 	bl	29184 <_ZN9allow_pin13dynamic_allow17h33d41317a2da4f1cE>
   234b8:	982f      	ldr	r0, [sp, #188]	@ 0xbc
   234ba:	2802      	cmp	r0, #2
   234bc:	d102      	bne.n	234c4 <_ZN20complex_full_dynamic3app17h98862059f184e671E+0x50>
   234be:	9930      	ldr	r1, [sp, #192]	@ 0xc0
   234c0:	4a29      	ldr	r2, [pc, #164]	@ (23568 <_ZN20complex_full_dynamic3app17h98862059f184e671E+0xf4>)
   234c2:	e004      	b.n	234ce <_ZN20complex_full_dynamic3app17h98862059f184e671E+0x5a>
   234c4:	a906      	add	r1, sp, #24
   234c6:	720c      	strb	r4, [r1, #8]
   234c8:	9507      	str	r5, [sp, #28]
   234ca:	4a27      	ldr	r2, [pc, #156]	@ (23568 <_ZN20complex_full_dynamic3app17h98862059f184e671E+0xf4>)
   234cc:	9206      	str	r2, [sp, #24]
   234ce:	2501      	movs	r5, #1
   234d0:	2802      	cmp	r0, #2
   234d2:	d02f      	beq.n	23534 <_ZN20complex_full_dynamic3app17h98862059f184e671E+0xc0>
   234d4:	a81f      	add	r0, sp, #124	@ 0x7c
   234d6:	7a00      	ldrb	r0, [r0, #8]
   234d8:	2802      	cmp	r0, #2
   234da:	d10f      	bne.n	234fc <_ZN20complex_full_dynamic3app17h98862059f184e671E+0x88>
   234dc:	2603      	movs	r6, #3
   234de:	9802      	ldr	r0, [sp, #8]
   234e0:	9000      	str	r0, [sp, #0]
   234e2:	9601      	str	r6, [sp, #4]
   234e4:	a82f      	add	r0, sp, #188	@ 0xbc
   234e6:	2408      	movs	r4, #8
   234e8:	4611      	mov	r1, r2
   234ea:	4622      	mov	r2, r4
   234ec:	9b03      	ldr	r3, [sp, #12]
   234ee:	f005 fe49 	bl	29184 <_ZN9allow_pin13dynamic_allow17h33d41317a2da4f1cE>
   234f2:	982f      	ldr	r0, [sp, #188]	@ 0xbc
   234f4:	2802      	cmp	r0, #2
   234f6:	d106      	bne.n	23506 <_ZN20complex_full_dynamic3app17h98862059f184e671E+0x92>
   234f8:	9930      	ldr	r1, [sp, #192]	@ 0xc0
   234fa:	e000      	b.n	234fe <_ZN20complex_full_dynamic3app17h98862059f184e671E+0x8a>
   234fc:	2103      	movs	r1, #3
   234fe:	4628      	mov	r0, r5
   23500:	2800      	cmp	r0, #0
   23502:	d008      	beq.n	23516 <_ZN20complex_full_dynamic3app17h98862059f184e671E+0xa2>
   23504:	e016      	b.n	23534 <_ZN20complex_full_dynamic3app17h98862059f184e671E+0xc0>
   23506:	a81f      	add	r0, sp, #124	@ 0x7c
   23508:	7206      	strb	r6, [r0, #8]
   2350a:	9420      	str	r4, [sp, #128]	@ 0x80
   2350c:	4816      	ldr	r0, [pc, #88]	@ (23568 <_ZN20complex_full_dynamic3app17h98862059f184e671E+0xf4>)
   2350e:	901f      	str	r0, [sp, #124]	@ 0x7c
   23510:	2000      	movs	r0, #0
   23512:	2800      	cmp	r0, #0
   23514:	d10e      	bne.n	23534 <_ZN20complex_full_dynamic3app17h98862059f184e671E+0xc0>
   23516:	4814      	ldr	r0, [pc, #80]	@ (23568 <_ZN20complex_full_dynamic3app17h98862059f184e671E+0xf4>)
   23518:	2108      	movs	r1, #8
   2351a:	2400      	movs	r4, #0
   2351c:	460a      	mov	r2, r1
   2351e:	4623      	mov	r3, r4
   23520:	df02      	svc	2
   23522:	287f      	cmp	r0, #127	@ 0x7f
   23524:	d906      	bls.n	23534 <_ZN20complex_full_dynamic3app17h98862059f184e671E+0xc0>
   23526:	a806      	add	r0, sp, #24
   23528:	f005 fe18 	bl	2915c <_ZN9allow_pin12full_dynamic17unshare_if_shared17h9f78cce76fd1eb6dE>
   2352c:	a81f      	add	r0, sp, #124	@ 0x7c
   2352e:	f005 fe15 	bl	2915c <_ZN9allow_pin12full_dynamic17unshare_if_shared17h9f78cce76fd1eb6dE>
   23532:	4625      	mov	r5, r4
   23534:	2d00      	cmp	r5, #0
   23536:	d003      	beq.n	23540 <_ZN20complex_full_dynamic3app17h98862059f184e671E+0xcc>
   23538:	9c05      	ldr	r4, [sp, #20]
   2353a:	6061      	str	r1, [r4, #4]
   2353c:	2001      	movs	r0, #1
   2353e:	e009      	b.n	23554 <_ZN20complex_full_dynamic3app17h98862059f184e671E+0xe0>
   23540:	a81f      	add	r0, sp, #124	@ 0x7c
   23542:	f005 fe0b 	bl	2915c <_ZN9allow_pin12full_dynamic17unshare_if_shared17h9f78cce76fd1eb6dE>
   23546:	9c05      	ldr	r4, [sp, #20]
   23548:	1c60      	adds	r0, r4, #1
   2354a:	2232      	movs	r2, #50	@ 0x32
   2354c:	9903      	ldr	r1, [sp, #12]
   2354e:	f005 ffde 	bl	2950e <__aeabi_memcpy>
   23552:	2000      	movs	r0, #0
   23554:	7020      	strb	r0, [r4, #0]
   23556:	a81f      	add	r0, sp, #124	@ 0x7c
   23558:	f005 fe00 	bl	2915c <_ZN9allow_pin12full_dynamic17unshare_if_shared17h9f78cce76fd1eb6dE>
   2355c:	a806      	add	r0, sp, #24
   2355e:	f005 fdfd 	bl	2915c <_ZN9allow_pin12full_dynamic17unshare_if_shared17h9f78cce76fd1eb6dE>
   23562:	b033      	add	sp, #204	@ 0xcc
   23564:	bdf0      	pop	{r4, r5, r6, r7, pc}
   23566:	46c0      	nop			@ (mov r8, r8)
   23568:	00002095 	.word	0x00002095

0002356c <_ZN20complex_full_dynamic3app17h9ae225313c0c6965E>:
   2356c:	b5f0      	push	{r4, r5, r6, r7, lr}
   2356e:	af03      	add	r7, sp, #12
   23570:	b0a1      	sub	sp, #132	@ 0x84
   23572:	9003      	str	r0, [sp, #12]
   23574:	ae05      	add	r6, sp, #20
   23576:	2402      	movs	r4, #2
   23578:	7234      	strb	r4, [r6, #8]
   2357a:	360c      	adds	r6, #12
   2357c:	2227      	movs	r2, #39	@ 0x27
   2357e:	9202      	str	r2, [sp, #8]
   23580:	4630      	mov	r0, r6
   23582:	f005 ffc4 	bl	2950e <__aeabi_memcpy>
   23586:	a812      	add	r0, sp, #72	@ 0x48
   23588:	2500      	movs	r5, #0
   2358a:	8505      	strh	r5, [r0, #40]	@ 0x28
   2358c:	9004      	str	r0, [sp, #16]
   2358e:	7204      	strb	r4, [r0, #8]
   23590:	951b      	str	r5, [sp, #108]	@ 0x6c
   23592:	951a      	str	r5, [sp, #104]	@ 0x68
   23594:	9519      	str	r5, [sp, #100]	@ 0x64
   23596:	9518      	str	r5, [sp, #96]	@ 0x60
   23598:	9517      	str	r5, [sp, #92]	@ 0x5c
   2359a:	9516      	str	r5, [sp, #88]	@ 0x58
   2359c:	9515      	str	r5, [sp, #84]	@ 0x54
   2359e:	2004      	movs	r0, #4
   235a0:	9902      	ldr	r1, [sp, #8]
   235a2:	9100      	str	r1, [sp, #0]
   235a4:	9002      	str	r0, [sp, #8]
   235a6:	9001      	str	r0, [sp, #4]
   235a8:	a81d      	add	r0, sp, #116	@ 0x74
   235aa:	492f      	ldr	r1, [pc, #188]	@ (23668 <_ZN20complex_full_dynamic3app17h9ae225313c0c6965E+0xfc>)
   235ac:	2403      	movs	r4, #3
   235ae:	4622      	mov	r2, r4
   235b0:	4633      	mov	r3, r6
   235b2:	f005 fde7 	bl	29184 <_ZN9allow_pin13dynamic_allow17h33d41317a2da4f1cE>
   235b6:	981d      	ldr	r0, [sp, #116]	@ 0x74
   235b8:	2802      	cmp	r0, #2
   235ba:	d102      	bne.n	235c2 <_ZN20complex_full_dynamic3app17h9ae225313c0c6965E+0x56>
   235bc:	991e      	ldr	r1, [sp, #120]	@ 0x78
   235be:	4b2a      	ldr	r3, [pc, #168]	@ (23668 <_ZN20complex_full_dynamic3app17h9ae225313c0c6965E+0xfc>)
   235c0:	e005      	b.n	235ce <_ZN20complex_full_dynamic3app17h9ae225313c0c6965E+0x62>
   235c2:	a905      	add	r1, sp, #20
   235c4:	9a02      	ldr	r2, [sp, #8]
   235c6:	720a      	strb	r2, [r1, #8]
   235c8:	9406      	str	r4, [sp, #24]
   235ca:	4b27      	ldr	r3, [pc, #156]	@ (23668 <_ZN20complex_full_dynamic3app17h9ae225313c0c6965E+0xfc>)
   235cc:	9305      	str	r3, [sp, #20]
   235ce:	9a04      	ldr	r2, [sp, #16]
   235d0:	320c      	adds	r2, #12
   235d2:	9204      	str	r2, [sp, #16]
   235d4:	2601      	movs	r6, #1
   235d6:	2802      	cmp	r0, #2
   235d8:	d02e      	beq.n	23638 <_ZN20complex_full_dynamic3app17h9ae225313c0c6965E+0xcc>
   235da:	a812      	add	r0, sp, #72	@ 0x48
   235dc:	7a00      	ldrb	r0, [r0, #8]
   235de:	2802      	cmp	r0, #2
   235e0:	4630      	mov	r0, r6
   235e2:	d10e      	bne.n	23602 <_ZN20complex_full_dynamic3app17h9ae225313c0c6965E+0x96>
   235e4:	2403      	movs	r4, #3
   235e6:	201e      	movs	r0, #30
   235e8:	9000      	str	r0, [sp, #0]
   235ea:	9401      	str	r4, [sp, #4]
   235ec:	a81d      	add	r0, sp, #116	@ 0x74
   235ee:	4619      	mov	r1, r3
   235f0:	4622      	mov	r2, r4
   235f2:	9b04      	ldr	r3, [sp, #16]
   235f4:	f005 fdc6 	bl	29184 <_ZN9allow_pin13dynamic_allow17h33d41317a2da4f1cE>
   235f8:	981d      	ldr	r0, [sp, #116]	@ 0x74
   235fa:	2802      	cmp	r0, #2
   235fc:	d105      	bne.n	2360a <_ZN20complex_full_dynamic3app17h9ae225313c0c6965E+0x9e>
   235fe:	9c1e      	ldr	r4, [sp, #120]	@ 0x78
   23600:	4630      	mov	r0, r6
   23602:	2800      	cmp	r0, #0
   23604:	d009      	beq.n	2361a <_ZN20complex_full_dynamic3app17h9ae225313c0c6965E+0xae>
   23606:	4621      	mov	r1, r4
   23608:	e016      	b.n	23638 <_ZN20complex_full_dynamic3app17h9ae225313c0c6965E+0xcc>
   2360a:	a812      	add	r0, sp, #72	@ 0x48
   2360c:	7204      	strb	r4, [r0, #8]
   2360e:	9413      	str	r4, [sp, #76]	@ 0x4c
   23610:	4815      	ldr	r0, [pc, #84]	@ (23668 <_ZN20complex_full_dynamic3app17h9ae225313c0c6965E+0xfc>)
   23612:	9012      	str	r0, [sp, #72]	@ 0x48
   23614:	4628      	mov	r0, r5
   23616:	2800      	cmp	r0, #0
   23618:	d1f5      	bne.n	23606 <_ZN20complex_full_dynamic3app17h9ae225313c0c6965E+0x9a>
   2361a:	4813      	ldr	r0, [pc, #76]	@ (23668 <_ZN20complex_full_dynamic3app17h9ae225313c0c6965E+0xfc>)
   2361c:	2103      	movs	r1, #3
   2361e:	2400      	movs	r4, #0
   23620:	460a      	mov	r2, r1
   23622:	4623      	mov	r3, r4
   23624:	df02      	svc	2
   23626:	287f      	cmp	r0, #127	@ 0x7f
   23628:	d906      	bls.n	23638 <_ZN20complex_full_dynamic3app17h9ae225313c0c6965E+0xcc>
   2362a:	a805      	add	r0, sp, #20
   2362c:	f005 fd96 	bl	2915c <_ZN9allow_pin12full_dynamic17unshare_if_shared17h9f78cce76fd1eb6dE>
   23630:	a812      	add	r0, sp, #72	@ 0x48
   23632:	f005 fd93 	bl	2915c <_ZN9allow_pin12full_dynamic17unshare_if_shared17h9f78cce76fd1eb6dE>
   23636:	4626      	mov	r6, r4
   23638:	2e00      	cmp	r6, #0
   2363a:	9c03      	ldr	r4, [sp, #12]
   2363c:	d002      	beq.n	23644 <_ZN20complex_full_dynamic3app17h9ae225313c0c6965E+0xd8>
   2363e:	6061      	str	r1, [r4, #4]
   23640:	2001      	movs	r0, #1
   23642:	e008      	b.n	23656 <_ZN20complex_full_dynamic3app17h9ae225313c0c6965E+0xea>
   23644:	a812      	add	r0, sp, #72	@ 0x48
   23646:	f005 fd89 	bl	2915c <_ZN9allow_pin12full_dynamic17unshare_if_shared17h9f78cce76fd1eb6dE>
   2364a:	1c60      	adds	r0, r4, #1
   2364c:	221e      	movs	r2, #30
   2364e:	9904      	ldr	r1, [sp, #16]
   23650:	f005 ff5d 	bl	2950e <__aeabi_memcpy>
   23654:	2000      	movs	r0, #0
   23656:	7020      	strb	r0, [r4, #0]
   23658:	a812      	add	r0, sp, #72	@ 0x48
   2365a:	f005 fd7f 	bl	2915c <_ZN9allow_pin12full_dynamic17unshare_if_shared17h9f78cce76fd1eb6dE>
   2365e:	a805      	add	r0, sp, #20
   23660:	f005 fd7c 	bl	2915c <_ZN9allow_pin12full_dynamic17unshare_if_shared17h9f78cce76fd1eb6dE>
   23664:	b021      	add	sp, #132	@ 0x84
   23666:	bdf0      	pop	{r4, r5, r6, r7, pc}
   23668:	000010e2 	.word	0x000010e2

0002366c <_ZN20complex_full_dynamic3app17h9bd40d147c93e3a6E>:
   2366c:	b5f0      	push	{r4, r5, r6, r7, lr}
   2366e:	af03      	add	r7, sp, #12
   23670:	b0a3      	sub	sp, #140	@ 0x8c
   23672:	9004      	str	r0, [sp, #16]
   23674:	ac05      	add	r4, sp, #20
   23676:	2502      	movs	r5, #2
   23678:	7225      	strb	r5, [r4, #8]
   2367a:	340c      	adds	r4, #12
   2367c:	2234      	movs	r2, #52	@ 0x34
   2367e:	9203      	str	r2, [sp, #12]
   23680:	4620      	mov	r0, r4
   23682:	f005 ff44 	bl	2950e <__aeabi_memcpy>
   23686:	a815      	add	r0, sp, #84	@ 0x54
   23688:	2600      	movs	r6, #0
   2368a:	8486      	strh	r6, [r0, #36]	@ 0x24
   2368c:	7205      	strb	r5, [r0, #8]
   2368e:	4605      	mov	r5, r0
   23690:	961d      	str	r6, [sp, #116]	@ 0x74
   23692:	961c      	str	r6, [sp, #112]	@ 0x70
   23694:	961b      	str	r6, [sp, #108]	@ 0x6c
   23696:	961a      	str	r6, [sp, #104]	@ 0x68
   23698:	9619      	str	r6, [sp, #100]	@ 0x64
   2369a:	9618      	str	r6, [sp, #96]	@ 0x60
   2369c:	2004      	movs	r0, #4
   2369e:	9903      	ldr	r1, [sp, #12]
   236a0:	9100      	str	r1, [sp, #0]
   236a2:	9003      	str	r0, [sp, #12]
   236a4:	9001      	str	r0, [sp, #4]
   236a6:	a81f      	add	r0, sp, #124	@ 0x7c
   236a8:	492e      	ldr	r1, [pc, #184]	@ (23764 <_ZN20complex_full_dynamic3app17h9bd40d147c93e3a6E+0xf8>)
   236aa:	4632      	mov	r2, r6
   236ac:	4623      	mov	r3, r4
   236ae:	f005 fd69 	bl	29184 <_ZN9allow_pin13dynamic_allow17h33d41317a2da4f1cE>
   236b2:	981f      	ldr	r0, [sp, #124]	@ 0x7c
   236b4:	2802      	cmp	r0, #2
   236b6:	d102      	bne.n	236be <_ZN20complex_full_dynamic3app17h9bd40d147c93e3a6E+0x52>
   236b8:	9920      	ldr	r1, [sp, #128]	@ 0x80
   236ba:	4a2a      	ldr	r2, [pc, #168]	@ (23764 <_ZN20complex_full_dynamic3app17h9bd40d147c93e3a6E+0xf8>)
   236bc:	e005      	b.n	236ca <_ZN20complex_full_dynamic3app17h9bd40d147c93e3a6E+0x5e>
   236be:	a905      	add	r1, sp, #20
   236c0:	9a03      	ldr	r2, [sp, #12]
   236c2:	720a      	strb	r2, [r1, #8]
   236c4:	9606      	str	r6, [sp, #24]
   236c6:	4a27      	ldr	r2, [pc, #156]	@ (23764 <_ZN20complex_full_dynamic3app17h9bd40d147c93e3a6E+0xf8>)
   236c8:	9205      	str	r2, [sp, #20]
   236ca:	350c      	adds	r5, #12
   236cc:	9503      	str	r5, [sp, #12]
   236ce:	2501      	movs	r5, #1
   236d0:	2802      	cmp	r0, #2
   236d2:	d02e      	beq.n	23732 <_ZN20complex_full_dynamic3app17h9bd40d147c93e3a6E+0xc6>
   236d4:	a815      	add	r0, sp, #84	@ 0x54
   236d6:	7a00      	ldrb	r0, [r0, #8]
   236d8:	2103      	movs	r1, #3
   236da:	2802      	cmp	r0, #2
   236dc:	d10e      	bne.n	236fc <_ZN20complex_full_dynamic3app17h9bd40d147c93e3a6E+0x90>
   236de:	201a      	movs	r0, #26
   236e0:	9000      	str	r0, [sp, #0]
   236e2:	9102      	str	r1, [sp, #8]
   236e4:	9101      	str	r1, [sp, #4]
   236e6:	a81f      	add	r0, sp, #124	@ 0x7c
   236e8:	2405      	movs	r4, #5
   236ea:	4611      	mov	r1, r2
   236ec:	4622      	mov	r2, r4
   236ee:	9b03      	ldr	r3, [sp, #12]
   236f0:	f005 fd48 	bl	29184 <_ZN9allow_pin13dynamic_allow17h33d41317a2da4f1cE>
   236f4:	981f      	ldr	r0, [sp, #124]	@ 0x7c
   236f6:	2802      	cmp	r0, #2
   236f8:	d104      	bne.n	23704 <_ZN20complex_full_dynamic3app17h9bd40d147c93e3a6E+0x98>
   236fa:	9920      	ldr	r1, [sp, #128]	@ 0x80
   236fc:	462e      	mov	r6, r5
   236fe:	2e00      	cmp	r6, #0
   23700:	d008      	beq.n	23714 <_ZN20complex_full_dynamic3app17h9bd40d147c93e3a6E+0xa8>
   23702:	e016      	b.n	23732 <_ZN20complex_full_dynamic3app17h9bd40d147c93e3a6E+0xc6>
   23704:	a815      	add	r0, sp, #84	@ 0x54
   23706:	9902      	ldr	r1, [sp, #8]
   23708:	7201      	strb	r1, [r0, #8]
   2370a:	9416      	str	r4, [sp, #88]	@ 0x58
   2370c:	4815      	ldr	r0, [pc, #84]	@ (23764 <_ZN20complex_full_dynamic3app17h9bd40d147c93e3a6E+0xf8>)
   2370e:	9015      	str	r0, [sp, #84]	@ 0x54
   23710:	2e00      	cmp	r6, #0
   23712:	d10e      	bne.n	23732 <_ZN20complex_full_dynamic3app17h9bd40d147c93e3a6E+0xc6>
   23714:	4813      	ldr	r0, [pc, #76]	@ (23764 <_ZN20complex_full_dynamic3app17h9bd40d147c93e3a6E+0xf8>)
   23716:	2205      	movs	r2, #5
   23718:	2400      	movs	r4, #0
   2371a:	4621      	mov	r1, r4
   2371c:	4623      	mov	r3, r4
   2371e:	df02      	svc	2
   23720:	287f      	cmp	r0, #127	@ 0x7f
   23722:	d906      	bls.n	23732 <_ZN20complex_full_dynamic3app17h9bd40d147c93e3a6E+0xc6>
   23724:	a805      	add	r0, sp, #20
   23726:	f005 fd19 	bl	2915c <_ZN9allow_pin12full_dynamic17unshare_if_shared17h9f78cce76fd1eb6dE>
   2372a:	a815      	add	r0, sp, #84	@ 0x54
   2372c:	f005 fd16 	bl	2915c <_ZN9allow_pin12full_dynamic17unshare_if_shared17h9f78cce76fd1eb6dE>
   23730:	4625      	mov	r5, r4
   23732:	2d00      	cmp	r5, #0
   23734:	d003      	beq.n	2373e <_ZN20complex_full_dynamic3app17h9bd40d147c93e3a6E+0xd2>
   23736:	9c04      	ldr	r4, [sp, #16]
   23738:	6061      	str	r1, [r4, #4]
   2373a:	2001      	movs	r0, #1
   2373c:	e009      	b.n	23752 <_ZN20complex_full_dynamic3app17h9bd40d147c93e3a6E+0xe6>
   2373e:	a815      	add	r0, sp, #84	@ 0x54
   23740:	f005 fd0c 	bl	2915c <_ZN9allow_pin12full_dynamic17unshare_if_shared17h9f78cce76fd1eb6dE>
   23744:	9c04      	ldr	r4, [sp, #16]
   23746:	1c60      	adds	r0, r4, #1
   23748:	221a      	movs	r2, #26
   2374a:	9903      	ldr	r1, [sp, #12]
   2374c:	f005 fedf 	bl	2950e <__aeabi_memcpy>
   23750:	2000      	movs	r0, #0
   23752:	7020      	strb	r0, [r4, #0]
   23754:	a815      	add	r0, sp, #84	@ 0x54
   23756:	f005 fd01 	bl	2915c <_ZN9allow_pin12full_dynamic17unshare_if_shared17h9f78cce76fd1eb6dE>
   2375a:	a805      	add	r0, sp, #20
   2375c:	f005 fcfe 	bl	2915c <_ZN9allow_pin12full_dynamic17unshare_if_shared17h9f78cce76fd1eb6dE>
   23760:	b023      	add	sp, #140	@ 0x8c
   23762:	bdf0      	pop	{r4, r5, r6, r7, pc}
   23764:	000012cc 	.word	0x000012cc

00023768 <_ZN20complex_full_dynamic3app17h9c0bbbac98af25f1E>:
   23768:	b5f0      	push	{r4, r5, r6, r7, lr}
   2376a:	af03      	add	r7, sp, #12
   2376c:	b09d      	sub	sp, #116	@ 0x74
   2376e:	9003      	str	r0, [sp, #12]
   23770:	ac05      	add	r4, sp, #20
   23772:	2502      	movs	r5, #2
   23774:	7225      	strb	r5, [r4, #8]
   23776:	340c      	adds	r4, #12
   23778:	2218      	movs	r2, #24
   2377a:	9202      	str	r2, [sp, #8]
   2377c:	4620      	mov	r0, r4
   2377e:	f005 fec6 	bl	2950e <__aeabi_memcpy>
   23782:	a80e      	add	r0, sp, #56	@ 0x38
   23784:	2600      	movs	r6, #0
   23786:	8506      	strh	r6, [r0, #40]	@ 0x28
   23788:	9004      	str	r0, [sp, #16]
   2378a:	7205      	strb	r5, [r0, #8]
   2378c:	9617      	str	r6, [sp, #92]	@ 0x5c
   2378e:	9616      	str	r6, [sp, #88]	@ 0x58
   23790:	9615      	str	r6, [sp, #84]	@ 0x54
   23792:	9614      	str	r6, [sp, #80]	@ 0x50
   23794:	9613      	str	r6, [sp, #76]	@ 0x4c
   23796:	9612      	str	r6, [sp, #72]	@ 0x48
   23798:	9611      	str	r6, [sp, #68]	@ 0x44
   2379a:	2004      	movs	r0, #4
   2379c:	9902      	ldr	r1, [sp, #8]
   2379e:	9100      	str	r1, [sp, #0]
   237a0:	9002      	str	r0, [sp, #8]
   237a2:	9001      	str	r0, [sp, #4]
   237a4:	a819      	add	r0, sp, #100	@ 0x64
   237a6:	4931      	ldr	r1, [pc, #196]	@ (2386c <_ZN20complex_full_dynamic3app17h9c0bbbac98af25f1E+0x104>)
   237a8:	2509      	movs	r5, #9
   237aa:	462a      	mov	r2, r5
   237ac:	4623      	mov	r3, r4
   237ae:	f005 fce9 	bl	29184 <_ZN9allow_pin13dynamic_allow17h33d41317a2da4f1cE>
   237b2:	9819      	ldr	r0, [sp, #100]	@ 0x64
   237b4:	2802      	cmp	r0, #2
   237b6:	d102      	bne.n	237be <_ZN20complex_full_dynamic3app17h9c0bbbac98af25f1E+0x56>
   237b8:	991a      	ldr	r1, [sp, #104]	@ 0x68
   237ba:	4a2c      	ldr	r2, [pc, #176]	@ (2386c <_ZN20complex_full_dynamic3app17h9c0bbbac98af25f1E+0x104>)
   237bc:	e005      	b.n	237ca <_ZN20complex_full_dynamic3app17h9c0bbbac98af25f1E+0x62>
   237be:	a905      	add	r1, sp, #20
   237c0:	9a02      	ldr	r2, [sp, #8]
   237c2:	720a      	strb	r2, [r1, #8]
   237c4:	9506      	str	r5, [sp, #24]
   237c6:	4a29      	ldr	r2, [pc, #164]	@ (2386c <_ZN20complex_full_dynamic3app17h9c0bbbac98af25f1E+0x104>)
   237c8:	9205      	str	r2, [sp, #20]
   237ca:	9d04      	ldr	r5, [sp, #16]
   237cc:	350c      	adds	r5, #12
   237ce:	2401      	movs	r4, #1
   237d0:	2802      	cmp	r0, #2
   237d2:	d032      	beq.n	2383a <_ZN20complex_full_dynamic3app17h9c0bbbac98af25f1E+0xd2>
   237d4:	a80e      	add	r0, sp, #56	@ 0x38
   237d6:	7a00      	ldrb	r0, [r0, #8]
   237d8:	2103      	movs	r1, #3
   237da:	2802      	cmp	r0, #2
   237dc:	d111      	bne.n	23802 <_ZN20complex_full_dynamic3app17h9c0bbbac98af25f1E+0x9a>
   237de:	201e      	movs	r0, #30
   237e0:	9000      	str	r0, [sp, #0]
   237e2:	9102      	str	r1, [sp, #8]
   237e4:	9101      	str	r1, [sp, #4]
   237e6:	a819      	add	r0, sp, #100	@ 0x64
   237e8:	462b      	mov	r3, r5
   237ea:	2505      	movs	r5, #5
   237ec:	4611      	mov	r1, r2
   237ee:	462a      	mov	r2, r5
   237f0:	9304      	str	r3, [sp, #16]
   237f2:	f005 fcc7 	bl	29184 <_ZN9allow_pin13dynamic_allow17h33d41317a2da4f1cE>
   237f6:	9819      	ldr	r0, [sp, #100]	@ 0x64
   237f8:	2802      	cmp	r0, #2
   237fa:	d106      	bne.n	2380a <_ZN20complex_full_dynamic3app17h9c0bbbac98af25f1E+0xa2>
   237fc:	991a      	ldr	r1, [sp, #104]	@ 0x68
   237fe:	4626      	mov	r6, r4
   23800:	e009      	b.n	23816 <_ZN20complex_full_dynamic3app17h9c0bbbac98af25f1E+0xae>
   23802:	4626      	mov	r6, r4
   23804:	2e00      	cmp	r6, #0
   23806:	d009      	beq.n	2381c <_ZN20complex_full_dynamic3app17h9c0bbbac98af25f1E+0xb4>
   23808:	e017      	b.n	2383a <_ZN20complex_full_dynamic3app17h9c0bbbac98af25f1E+0xd2>
   2380a:	a80e      	add	r0, sp, #56	@ 0x38
   2380c:	9902      	ldr	r1, [sp, #8]
   2380e:	7201      	strb	r1, [r0, #8]
   23810:	950f      	str	r5, [sp, #60]	@ 0x3c
   23812:	4816      	ldr	r0, [pc, #88]	@ (2386c <_ZN20complex_full_dynamic3app17h9c0bbbac98af25f1E+0x104>)
   23814:	900e      	str	r0, [sp, #56]	@ 0x38
   23816:	9d04      	ldr	r5, [sp, #16]
   23818:	2e00      	cmp	r6, #0
   2381a:	d10e      	bne.n	2383a <_ZN20complex_full_dynamic3app17h9c0bbbac98af25f1E+0xd2>
   2381c:	4813      	ldr	r0, [pc, #76]	@ (2386c <_ZN20complex_full_dynamic3app17h9c0bbbac98af25f1E+0x104>)
   2381e:	2109      	movs	r1, #9
   23820:	2205      	movs	r2, #5
   23822:	2600      	movs	r6, #0
   23824:	4633      	mov	r3, r6
   23826:	df02      	svc	2
   23828:	287f      	cmp	r0, #127	@ 0x7f
   2382a:	d906      	bls.n	2383a <_ZN20complex_full_dynamic3app17h9c0bbbac98af25f1E+0xd2>
   2382c:	a805      	add	r0, sp, #20
   2382e:	f005 fc95 	bl	2915c <_ZN9allow_pin12full_dynamic17unshare_if_shared17h9f78cce76fd1eb6dE>
   23832:	a80e      	add	r0, sp, #56	@ 0x38
   23834:	f005 fc92 	bl	2915c <_ZN9allow_pin12full_dynamic17unshare_if_shared17h9f78cce76fd1eb6dE>
   23838:	4634      	mov	r4, r6
   2383a:	2c00      	cmp	r4, #0
   2383c:	d003      	beq.n	23846 <_ZN20complex_full_dynamic3app17h9c0bbbac98af25f1E+0xde>
   2383e:	9c03      	ldr	r4, [sp, #12]
   23840:	6061      	str	r1, [r4, #4]
   23842:	2001      	movs	r0, #1
   23844:	e009      	b.n	2385a <_ZN20complex_full_dynamic3app17h9c0bbbac98af25f1E+0xf2>
   23846:	a80e      	add	r0, sp, #56	@ 0x38
   23848:	f005 fc88 	bl	2915c <_ZN9allow_pin12full_dynamic17unshare_if_shared17h9f78cce76fd1eb6dE>
   2384c:	9c03      	ldr	r4, [sp, #12]
   2384e:	1c60      	adds	r0, r4, #1
   23850:	221e      	movs	r2, #30
   23852:	4629      	mov	r1, r5
   23854:	f005 fe5b 	bl	2950e <__aeabi_memcpy>
   23858:	2000      	movs	r0, #0
   2385a:	7020      	strb	r0, [r4, #0]
   2385c:	a80e      	add	r0, sp, #56	@ 0x38
   2385e:	f005 fc7d 	bl	2915c <_ZN9allow_pin12full_dynamic17unshare_if_shared17h9f78cce76fd1eb6dE>
   23862:	a805      	add	r0, sp, #20
   23864:	f005 fc7a 	bl	2915c <_ZN9allow_pin12full_dynamic17unshare_if_shared17h9f78cce76fd1eb6dE>
   23868:	b01d      	add	sp, #116	@ 0x74
   2386a:	bdf0      	pop	{r4, r5, r6, r7, pc}
   2386c:	00000cbb 	.word	0x00000cbb

00023870 <_ZN20complex_full_dynamic3app17h9df32bc4c10764e7E>:
   23870:	b5f0      	push	{r4, r5, r6, r7, lr}
   23872:	af03      	add	r7, sp, #12
   23874:	b0ab      	sub	sp, #172	@ 0xac
   23876:	9006      	str	r0, [sp, #24]
   23878:	ae07      	add	r6, sp, #28
   2387a:	2002      	movs	r0, #2
   2387c:	9005      	str	r0, [sp, #20]
   2387e:	7230      	strb	r0, [r6, #8]
   23880:	360c      	adds	r6, #12
   23882:	252e      	movs	r5, #46	@ 0x2e
   23884:	4630      	mov	r0, r6
   23886:	462a      	mov	r2, r5
   23888:	f005 fe41 	bl	2950e <__aeabi_memcpy>
   2388c:	ac16      	add	r4, sp, #88	@ 0x58
   2388e:	4620      	mov	r0, r4
   23890:	300c      	adds	r0, #12
   23892:	2138      	movs	r1, #56	@ 0x38
   23894:	9004      	str	r0, [sp, #16]
   23896:	9103      	str	r1, [sp, #12]
   23898:	f005 fc8c 	bl	291b4 <__aeabi_memclr4>
   2389c:	9805      	ldr	r0, [sp, #20]
   2389e:	7220      	strb	r0, [r4, #8]
   238a0:	2404      	movs	r4, #4
   238a2:	9500      	str	r5, [sp, #0]
   238a4:	9401      	str	r4, [sp, #4]
   238a6:	a827      	add	r0, sp, #156	@ 0x9c
   238a8:	492e      	ldr	r1, [pc, #184]	@ (23964 <_ZN20complex_full_dynamic3app17h9df32bc4c10764e7E+0xf4>)
   238aa:	2509      	movs	r5, #9
   238ac:	462a      	mov	r2, r5
   238ae:	4633      	mov	r3, r6
   238b0:	f005 fc68 	bl	29184 <_ZN9allow_pin13dynamic_allow17h33d41317a2da4f1cE>
   238b4:	9827      	ldr	r0, [sp, #156]	@ 0x9c
   238b6:	2802      	cmp	r0, #2
   238b8:	d102      	bne.n	238c0 <_ZN20complex_full_dynamic3app17h9df32bc4c10764e7E+0x50>
   238ba:	9928      	ldr	r1, [sp, #160]	@ 0xa0
   238bc:	4a29      	ldr	r2, [pc, #164]	@ (23964 <_ZN20complex_full_dynamic3app17h9df32bc4c10764e7E+0xf4>)
   238be:	e004      	b.n	238ca <_ZN20complex_full_dynamic3app17h9df32bc4c10764e7E+0x5a>
   238c0:	a907      	add	r1, sp, #28
   238c2:	720c      	strb	r4, [r1, #8]
   238c4:	9508      	str	r5, [sp, #32]
   238c6:	4a27      	ldr	r2, [pc, #156]	@ (23964 <_ZN20complex_full_dynamic3app17h9df32bc4c10764e7E+0xf4>)
   238c8:	9207      	str	r2, [sp, #28]
   238ca:	2501      	movs	r5, #1
   238cc:	2802      	cmp	r0, #2
   238ce:	d02f      	beq.n	23930 <_ZN20complex_full_dynamic3app17h9df32bc4c10764e7E+0xc0>
   238d0:	a816      	add	r0, sp, #88	@ 0x58
   238d2:	7a00      	ldrb	r0, [r0, #8]
   238d4:	2802      	cmp	r0, #2
   238d6:	d10f      	bne.n	238f8 <_ZN20complex_full_dynamic3app17h9df32bc4c10764e7E+0x88>
   238d8:	2603      	movs	r6, #3
   238da:	9803      	ldr	r0, [sp, #12]
   238dc:	9000      	str	r0, [sp, #0]
   238de:	9601      	str	r6, [sp, #4]
   238e0:	a827      	add	r0, sp, #156	@ 0x9c
   238e2:	2409      	movs	r4, #9
   238e4:	4611      	mov	r1, r2
   238e6:	4622      	mov	r2, r4
   238e8:	9b04      	ldr	r3, [sp, #16]
   238ea:	f005 fc4b 	bl	29184 <_ZN9allow_pin13dynamic_allow17h33d41317a2da4f1cE>
   238ee:	9827      	ldr	r0, [sp, #156]	@ 0x9c
   238f0:	2802      	cmp	r0, #2
   238f2:	d106      	bne.n	23902 <_ZN20complex_full_dynamic3app17h9df32bc4c10764e7E+0x92>
   238f4:	9928      	ldr	r1, [sp, #160]	@ 0xa0
   238f6:	e000      	b.n	238fa <_ZN20complex_full_dynamic3app17h9df32bc4c10764e7E+0x8a>
   238f8:	2103      	movs	r1, #3
   238fa:	4628      	mov	r0, r5
   238fc:	2800      	cmp	r0, #0
   238fe:	d008      	beq.n	23912 <_ZN20complex_full_dynamic3app17h9df32bc4c10764e7E+0xa2>
   23900:	e016      	b.n	23930 <_ZN20complex_full_dynamic3app17h9df32bc4c10764e7E+0xc0>
   23902:	a816      	add	r0, sp, #88	@ 0x58
   23904:	7206      	strb	r6, [r0, #8]
   23906:	9417      	str	r4, [sp, #92]	@ 0x5c
   23908:	4816      	ldr	r0, [pc, #88]	@ (23964 <_ZN20complex_full_dynamic3app17h9df32bc4c10764e7E+0xf4>)
   2390a:	9016      	str	r0, [sp, #88]	@ 0x58
   2390c:	2000      	movs	r0, #0
   2390e:	2800      	cmp	r0, #0
   23910:	d10e      	bne.n	23930 <_ZN20complex_full_dynamic3app17h9df32bc4c10764e7E+0xc0>
   23912:	4814      	ldr	r0, [pc, #80]	@ (23964 <_ZN20complex_full_dynamic3app17h9df32bc4c10764e7E+0xf4>)
   23914:	2109      	movs	r1, #9
   23916:	2400      	movs	r4, #0
   23918:	460a      	mov	r2, r1
   2391a:	4623      	mov	r3, r4
   2391c:	df02      	svc	2
   2391e:	287f      	cmp	r0, #127	@ 0x7f
   23920:	d906      	bls.n	23930 <_ZN20complex_full_dynamic3app17h9df32bc4c10764e7E+0xc0>
   23922:	a807      	add	r0, sp, #28
   23924:	f005 fc1a 	bl	2915c <_ZN9allow_pin12full_dynamic17unshare_if_shared17h9f78cce76fd1eb6dE>
   23928:	a816      	add	r0, sp, #88	@ 0x58
   2392a:	f005 fc17 	bl	2915c <_ZN9allow_pin12full_dynamic17unshare_if_shared17h9f78cce76fd1eb6dE>
   2392e:	4625      	mov	r5, r4
   23930:	2d00      	cmp	r5, #0
   23932:	d003      	beq.n	2393c <_ZN20complex_full_dynamic3app17h9df32bc4c10764e7E+0xcc>
   23934:	9c06      	ldr	r4, [sp, #24]
   23936:	6061      	str	r1, [r4, #4]
   23938:	2001      	movs	r0, #1
   2393a:	e009      	b.n	23950 <_ZN20complex_full_dynamic3app17h9df32bc4c10764e7E+0xe0>
   2393c:	a816      	add	r0, sp, #88	@ 0x58
   2393e:	f005 fc0d 	bl	2915c <_ZN9allow_pin12full_dynamic17unshare_if_shared17h9f78cce76fd1eb6dE>
   23942:	9c06      	ldr	r4, [sp, #24]
   23944:	1c60      	adds	r0, r4, #1
   23946:	2238      	movs	r2, #56	@ 0x38
   23948:	9904      	ldr	r1, [sp, #16]
   2394a:	f005 fde0 	bl	2950e <__aeabi_memcpy>
   2394e:	2000      	movs	r0, #0
   23950:	7020      	strb	r0, [r4, #0]
   23952:	a816      	add	r0, sp, #88	@ 0x58
   23954:	f005 fc02 	bl	2915c <_ZN9allow_pin12full_dynamic17unshare_if_shared17h9f78cce76fd1eb6dE>
   23958:	a807      	add	r0, sp, #28
   2395a:	f005 fbff 	bl	2915c <_ZN9allow_pin12full_dynamic17unshare_if_shared17h9f78cce76fd1eb6dE>
   2395e:	b02b      	add	sp, #172	@ 0xac
   23960:	bdf0      	pop	{r4, r5, r6, r7, pc}
   23962:	46c0      	nop			@ (mov r8, r8)
   23964:	00000a9d 	.word	0x00000a9d

00023968 <_ZN20complex_full_dynamic3app17h9ec37198697ee11dE>:
   23968:	b5f0      	push	{r4, r5, r6, r7, lr}
   2396a:	af03      	add	r7, sp, #12
   2396c:	b09d      	sub	sp, #116	@ 0x74
   2396e:	9005      	str	r0, [sp, #20]
   23970:	ae06      	add	r6, sp, #24
   23972:	2002      	movs	r0, #2
   23974:	9004      	str	r0, [sp, #16]
   23976:	7230      	strb	r0, [r6, #8]
   23978:	360c      	adds	r6, #12
   2397a:	250d      	movs	r5, #13
   2397c:	4630      	mov	r0, r6
   2397e:	462a      	mov	r2, r5
   23980:	f005 fdc5 	bl	2950e <__aeabi_memcpy>
   23984:	ac0d      	add	r4, sp, #52	@ 0x34
   23986:	4620      	mov	r0, r4
   23988:	300c      	adds	r0, #12
   2398a:	2121      	movs	r1, #33	@ 0x21
   2398c:	9003      	str	r0, [sp, #12]
   2398e:	9102      	str	r1, [sp, #8]
   23990:	f005 fc10 	bl	291b4 <__aeabi_memclr4>
   23994:	9804      	ldr	r0, [sp, #16]
   23996:	7220      	strb	r0, [r4, #8]
   23998:	2404      	movs	r4, #4
   2399a:	9500      	str	r5, [sp, #0]
   2399c:	9401      	str	r4, [sp, #4]
   2399e:	a819      	add	r0, sp, #100	@ 0x64
   239a0:	492e      	ldr	r1, [pc, #184]	@ (23a5c <_ZN20complex_full_dynamic3app17h9ec37198697ee11dE+0xf4>)
   239a2:	2500      	movs	r5, #0
   239a4:	462a      	mov	r2, r5
   239a6:	4633      	mov	r3, r6
   239a8:	f005 fbec 	bl	29184 <_ZN9allow_pin13dynamic_allow17h33d41317a2da4f1cE>
   239ac:	9819      	ldr	r0, [sp, #100]	@ 0x64
   239ae:	2802      	cmp	r0, #2
   239b0:	9504      	str	r5, [sp, #16]
   239b2:	d102      	bne.n	239ba <_ZN20complex_full_dynamic3app17h9ec37198697ee11dE+0x52>
   239b4:	991a      	ldr	r1, [sp, #104]	@ 0x68
   239b6:	4a29      	ldr	r2, [pc, #164]	@ (23a5c <_ZN20complex_full_dynamic3app17h9ec37198697ee11dE+0xf4>)
   239b8:	e004      	b.n	239c4 <_ZN20complex_full_dynamic3app17h9ec37198697ee11dE+0x5c>
   239ba:	a906      	add	r1, sp, #24
   239bc:	720c      	strb	r4, [r1, #8]
   239be:	9507      	str	r5, [sp, #28]
   239c0:	4a26      	ldr	r2, [pc, #152]	@ (23a5c <_ZN20complex_full_dynamic3app17h9ec37198697ee11dE+0xf4>)
   239c2:	9206      	str	r2, [sp, #24]
   239c4:	2501      	movs	r5, #1
   239c6:	2802      	cmp	r0, #2
   239c8:	d02e      	beq.n	23a28 <_ZN20complex_full_dynamic3app17h9ec37198697ee11dE+0xc0>
   239ca:	a80d      	add	r0, sp, #52	@ 0x34
   239cc:	7a00      	ldrb	r0, [r0, #8]
   239ce:	2802      	cmp	r0, #2
   239d0:	d10f      	bne.n	239f2 <_ZN20complex_full_dynamic3app17h9ec37198697ee11dE+0x8a>
   239d2:	2603      	movs	r6, #3
   239d4:	9802      	ldr	r0, [sp, #8]
   239d6:	9000      	str	r0, [sp, #0]
   239d8:	9601      	str	r6, [sp, #4]
   239da:	a819      	add	r0, sp, #100	@ 0x64
   239dc:	2400      	movs	r4, #0
   239de:	4611      	mov	r1, r2
   239e0:	4622      	mov	r2, r4
   239e2:	9b03      	ldr	r3, [sp, #12]
   239e4:	f005 fbce 	bl	29184 <_ZN9allow_pin13dynamic_allow17h33d41317a2da4f1cE>
   239e8:	9819      	ldr	r0, [sp, #100]	@ 0x64
   239ea:	2802      	cmp	r0, #2
   239ec:	d106      	bne.n	239fc <_ZN20complex_full_dynamic3app17h9ec37198697ee11dE+0x94>
   239ee:	991a      	ldr	r1, [sp, #104]	@ 0x68
   239f0:	e000      	b.n	239f4 <_ZN20complex_full_dynamic3app17h9ec37198697ee11dE+0x8c>
   239f2:	2103      	movs	r1, #3
   239f4:	462c      	mov	r4, r5
   239f6:	2c00      	cmp	r4, #0
   239f8:	d007      	beq.n	23a0a <_ZN20complex_full_dynamic3app17h9ec37198697ee11dE+0xa2>
   239fa:	e015      	b.n	23a28 <_ZN20complex_full_dynamic3app17h9ec37198697ee11dE+0xc0>
   239fc:	a80d      	add	r0, sp, #52	@ 0x34
   239fe:	7206      	strb	r6, [r0, #8]
   23a00:	940e      	str	r4, [sp, #56]	@ 0x38
   23a02:	4816      	ldr	r0, [pc, #88]	@ (23a5c <_ZN20complex_full_dynamic3app17h9ec37198697ee11dE+0xf4>)
   23a04:	900d      	str	r0, [sp, #52]	@ 0x34
   23a06:	2c00      	cmp	r4, #0
   23a08:	d10e      	bne.n	23a28 <_ZN20complex_full_dynamic3app17h9ec37198697ee11dE+0xc0>
   23a0a:	4814      	ldr	r0, [pc, #80]	@ (23a5c <_ZN20complex_full_dynamic3app17h9ec37198697ee11dE+0xf4>)
   23a0c:	2400      	movs	r4, #0
   23a0e:	4621      	mov	r1, r4
   23a10:	4622      	mov	r2, r4
   23a12:	4623      	mov	r3, r4
   23a14:	df02      	svc	2
   23a16:	287f      	cmp	r0, #127	@ 0x7f
   23a18:	d906      	bls.n	23a28 <_ZN20complex_full_dynamic3app17h9ec37198697ee11dE+0xc0>
   23a1a:	a806      	add	r0, sp, #24
   23a1c:	f005 fb9e 	bl	2915c <_ZN9allow_pin12full_dynamic17unshare_if_shared17h9f78cce76fd1eb6dE>
   23a20:	a80d      	add	r0, sp, #52	@ 0x34
   23a22:	f005 fb9b 	bl	2915c <_ZN9allow_pin12full_dynamic17unshare_if_shared17h9f78cce76fd1eb6dE>
   23a26:	4625      	mov	r5, r4
   23a28:	2d00      	cmp	r5, #0
   23a2a:	d003      	beq.n	23a34 <_ZN20complex_full_dynamic3app17h9ec37198697ee11dE+0xcc>
   23a2c:	9c05      	ldr	r4, [sp, #20]
   23a2e:	6061      	str	r1, [r4, #4]
   23a30:	2001      	movs	r0, #1
   23a32:	e009      	b.n	23a48 <_ZN20complex_full_dynamic3app17h9ec37198697ee11dE+0xe0>
   23a34:	a80d      	add	r0, sp, #52	@ 0x34
   23a36:	f005 fb91 	bl	2915c <_ZN9allow_pin12full_dynamic17unshare_if_shared17h9f78cce76fd1eb6dE>
   23a3a:	9c05      	ldr	r4, [sp, #20]
   23a3c:	1c60      	adds	r0, r4, #1
   23a3e:	2221      	movs	r2, #33	@ 0x21
   23a40:	9903      	ldr	r1, [sp, #12]
   23a42:	f005 fd64 	bl	2950e <__aeabi_memcpy>
   23a46:	9804      	ldr	r0, [sp, #16]
   23a48:	7020      	strb	r0, [r4, #0]
   23a4a:	a80d      	add	r0, sp, #52	@ 0x34
   23a4c:	f005 fb86 	bl	2915c <_ZN9allow_pin12full_dynamic17unshare_if_shared17h9f78cce76fd1eb6dE>
   23a50:	a806      	add	r0, sp, #24
   23a52:	f005 fb83 	bl	2915c <_ZN9allow_pin12full_dynamic17unshare_if_shared17h9f78cce76fd1eb6dE>
   23a56:	b01d      	add	sp, #116	@ 0x74
   23a58:	bdf0      	pop	{r4, r5, r6, r7, pc}
   23a5a:	46c0      	nop			@ (mov r8, r8)
   23a5c:	000016b0 	.word	0x000016b0

00023a60 <_ZN20complex_full_dynamic3app17h9ee5d78e0de33a00E>:
   23a60:	b5f0      	push	{r4, r5, r6, r7, lr}
   23a62:	af03      	add	r7, sp, #12
   23a64:	b0b9      	sub	sp, #228	@ 0xe4
   23a66:	9005      	str	r0, [sp, #20]
   23a68:	ae06      	add	r6, sp, #24
   23a6a:	2002      	movs	r0, #2
   23a6c:	9004      	str	r0, [sp, #16]
   23a6e:	7230      	strb	r0, [r6, #8]
   23a70:	360c      	adds	r6, #12
   23a72:	2556      	movs	r5, #86	@ 0x56
   23a74:	4630      	mov	r0, r6
   23a76:	462a      	mov	r2, r5
   23a78:	f005 fd49 	bl	2950e <__aeabi_memcpy>
   23a7c:	ac1f      	add	r4, sp, #124	@ 0x7c
   23a7e:	4620      	mov	r0, r4
   23a80:	300c      	adds	r0, #12
   23a82:	2149      	movs	r1, #73	@ 0x49
   23a84:	9003      	str	r0, [sp, #12]
   23a86:	9102      	str	r1, [sp, #8]
   23a88:	f005 fb94 	bl	291b4 <__aeabi_memclr4>
   23a8c:	9804      	ldr	r0, [sp, #16]
   23a8e:	7220      	strb	r0, [r4, #8]
   23a90:	2404      	movs	r4, #4
   23a92:	9500      	str	r5, [sp, #0]
   23a94:	9401      	str	r4, [sp, #4]
   23a96:	a835      	add	r0, sp, #212	@ 0xd4
   23a98:	492e      	ldr	r1, [pc, #184]	@ (23b54 <_ZN20complex_full_dynamic3app17h9ee5d78e0de33a00E+0xf4>)
   23a9a:	2506      	movs	r5, #6
   23a9c:	462a      	mov	r2, r5
   23a9e:	4633      	mov	r3, r6
   23aa0:	f005 fb70 	bl	29184 <_ZN9allow_pin13dynamic_allow17h33d41317a2da4f1cE>
   23aa4:	9835      	ldr	r0, [sp, #212]	@ 0xd4
   23aa6:	2802      	cmp	r0, #2
   23aa8:	d102      	bne.n	23ab0 <_ZN20complex_full_dynamic3app17h9ee5d78e0de33a00E+0x50>
   23aaa:	9936      	ldr	r1, [sp, #216]	@ 0xd8
   23aac:	4a29      	ldr	r2, [pc, #164]	@ (23b54 <_ZN20complex_full_dynamic3app17h9ee5d78e0de33a00E+0xf4>)
   23aae:	e004      	b.n	23aba <_ZN20complex_full_dynamic3app17h9ee5d78e0de33a00E+0x5a>
   23ab0:	a906      	add	r1, sp, #24
   23ab2:	720c      	strb	r4, [r1, #8]
   23ab4:	9507      	str	r5, [sp, #28]
   23ab6:	4a27      	ldr	r2, [pc, #156]	@ (23b54 <_ZN20complex_full_dynamic3app17h9ee5d78e0de33a00E+0xf4>)
   23ab8:	9206      	str	r2, [sp, #24]
   23aba:	2501      	movs	r5, #1
   23abc:	2802      	cmp	r0, #2
   23abe:	d02f      	beq.n	23b20 <_ZN20complex_full_dynamic3app17h9ee5d78e0de33a00E+0xc0>
   23ac0:	a81f      	add	r0, sp, #124	@ 0x7c
   23ac2:	7a00      	ldrb	r0, [r0, #8]
   23ac4:	2802      	cmp	r0, #2
   23ac6:	d10f      	bne.n	23ae8 <_ZN20complex_full_dynamic3app17h9ee5d78e0de33a00E+0x88>
   23ac8:	2603      	movs	r6, #3
   23aca:	9802      	ldr	r0, [sp, #8]
   23acc:	9000      	str	r0, [sp, #0]
   23ace:	9601      	str	r6, [sp, #4]
   23ad0:	a835      	add	r0, sp, #212	@ 0xd4
   23ad2:	2406      	movs	r4, #6
   23ad4:	4611      	mov	r1, r2
   23ad6:	4622      	mov	r2, r4
   23ad8:	9b03      	ldr	r3, [sp, #12]
   23ada:	f005 fb53 	bl	29184 <_ZN9allow_pin13dynamic_allow17h33d41317a2da4f1cE>
   23ade:	9835      	ldr	r0, [sp, #212]	@ 0xd4
   23ae0:	2802      	cmp	r0, #2
   23ae2:	d106      	bne.n	23af2 <_ZN20complex_full_dynamic3app17h9ee5d78e0de33a00E+0x92>
   23ae4:	9936      	ldr	r1, [sp, #216]	@ 0xd8
   23ae6:	e000      	b.n	23aea <_ZN20complex_full_dynamic3app17h9ee5d78e0de33a00E+0x8a>
   23ae8:	2103      	movs	r1, #3
   23aea:	4628      	mov	r0, r5
   23aec:	2800      	cmp	r0, #0
   23aee:	d008      	beq.n	23b02 <_ZN20complex_full_dynamic3app17h9ee5d78e0de33a00E+0xa2>
   23af0:	e016      	b.n	23b20 <_ZN20complex_full_dynamic3app17h9ee5d78e0de33a00E+0xc0>
   23af2:	a81f      	add	r0, sp, #124	@ 0x7c
   23af4:	7206      	strb	r6, [r0, #8]
   23af6:	9420      	str	r4, [sp, #128]	@ 0x80
   23af8:	4816      	ldr	r0, [pc, #88]	@ (23b54 <_ZN20complex_full_dynamic3app17h9ee5d78e0de33a00E+0xf4>)
   23afa:	901f      	str	r0, [sp, #124]	@ 0x7c
   23afc:	2000      	movs	r0, #0
   23afe:	2800      	cmp	r0, #0
   23b00:	d10e      	bne.n	23b20 <_ZN20complex_full_dynamic3app17h9ee5d78e0de33a00E+0xc0>
   23b02:	4814      	ldr	r0, [pc, #80]	@ (23b54 <_ZN20complex_full_dynamic3app17h9ee5d78e0de33a00E+0xf4>)
   23b04:	2106      	movs	r1, #6
   23b06:	2400      	movs	r4, #0
   23b08:	460a      	mov	r2, r1
   23b0a:	4623      	mov	r3, r4
   23b0c:	df02      	svc	2
   23b0e:	287f      	cmp	r0, #127	@ 0x7f
   23b10:	d906      	bls.n	23b20 <_ZN20complex_full_dynamic3app17h9ee5d78e0de33a00E+0xc0>
   23b12:	a806      	add	r0, sp, #24
   23b14:	f005 fb22 	bl	2915c <_ZN9allow_pin12full_dynamic17unshare_if_shared17h9f78cce76fd1eb6dE>
   23b18:	a81f      	add	r0, sp, #124	@ 0x7c
   23b1a:	f005 fb1f 	bl	2915c <_ZN9allow_pin12full_dynamic17unshare_if_shared17h9f78cce76fd1eb6dE>
   23b1e:	4625      	mov	r5, r4
   23b20:	2d00      	cmp	r5, #0
   23b22:	d003      	beq.n	23b2c <_ZN20complex_full_dynamic3app17h9ee5d78e0de33a00E+0xcc>
   23b24:	9c05      	ldr	r4, [sp, #20]
   23b26:	6061      	str	r1, [r4, #4]
   23b28:	2001      	movs	r0, #1
   23b2a:	e009      	b.n	23b40 <_ZN20complex_full_dynamic3app17h9ee5d78e0de33a00E+0xe0>
   23b2c:	a81f      	add	r0, sp, #124	@ 0x7c
   23b2e:	f005 fb15 	bl	2915c <_ZN9allow_pin12full_dynamic17unshare_if_shared17h9f78cce76fd1eb6dE>
   23b32:	9c05      	ldr	r4, [sp, #20]
   23b34:	1c60      	adds	r0, r4, #1
   23b36:	2249      	movs	r2, #73	@ 0x49
   23b38:	9903      	ldr	r1, [sp, #12]
   23b3a:	f005 fce8 	bl	2950e <__aeabi_memcpy>
   23b3e:	2000      	movs	r0, #0
   23b40:	7020      	strb	r0, [r4, #0]
   23b42:	a81f      	add	r0, sp, #124	@ 0x7c
   23b44:	f005 fb0a 	bl	2915c <_ZN9allow_pin12full_dynamic17unshare_if_shared17h9f78cce76fd1eb6dE>
   23b48:	a806      	add	r0, sp, #24
   23b4a:	f005 fb07 	bl	2915c <_ZN9allow_pin12full_dynamic17unshare_if_shared17h9f78cce76fd1eb6dE>
   23b4e:	b039      	add	sp, #228	@ 0xe4
   23b50:	bdf0      	pop	{r4, r5, r6, r7, pc}
   23b52:	46c0      	nop			@ (mov r8, r8)
   23b54:	00001c6b 	.word	0x00001c6b

00023b58 <_ZN20complex_full_dynamic3app17h9f84fee001fd1716E>:
   23b58:	b5f0      	push	{r4, r5, r6, r7, lr}
   23b5a:	af03      	add	r7, sp, #12
   23b5c:	b0ab      	sub	sp, #172	@ 0xac
   23b5e:	9006      	str	r0, [sp, #24]
   23b60:	ad07      	add	r5, sp, #28
   23b62:	2002      	movs	r0, #2
   23b64:	9005      	str	r0, [sp, #20]
   23b66:	7228      	strb	r0, [r5, #8]
   23b68:	350c      	adds	r5, #12
   23b6a:	2641      	movs	r6, #65	@ 0x41
   23b6c:	4628      	mov	r0, r5
   23b6e:	4632      	mov	r2, r6
   23b70:	f005 fccd 	bl	2950e <__aeabi_memcpy>
   23b74:	ac1b      	add	r4, sp, #108	@ 0x6c
   23b76:	4620      	mov	r0, r4
   23b78:	300c      	adds	r0, #12
   23b7a:	2122      	movs	r1, #34	@ 0x22
   23b7c:	9004      	str	r0, [sp, #16]
   23b7e:	9103      	str	r1, [sp, #12]
   23b80:	f005 fb18 	bl	291b4 <__aeabi_memclr4>
   23b84:	9805      	ldr	r0, [sp, #20]
   23b86:	7220      	strb	r0, [r4, #8]
   23b88:	2404      	movs	r4, #4
   23b8a:	9600      	str	r6, [sp, #0]
   23b8c:	9401      	str	r4, [sp, #4]
   23b8e:	a827      	add	r0, sp, #156	@ 0x9c
   23b90:	492f      	ldr	r1, [pc, #188]	@ (23c50 <_ZN20complex_full_dynamic3app17h9f84fee001fd1716E+0xf8>)
   23b92:	2601      	movs	r6, #1
   23b94:	4632      	mov	r2, r6
   23b96:	462b      	mov	r3, r5
   23b98:	f005 faf4 	bl	29184 <_ZN9allow_pin13dynamic_allow17h33d41317a2da4f1cE>
   23b9c:	9827      	ldr	r0, [sp, #156]	@ 0x9c
   23b9e:	2802      	cmp	r0, #2
   23ba0:	d104      	bne.n	23bac <_ZN20complex_full_dynamic3app17h9f84fee001fd1716E+0x54>
   23ba2:	9928      	ldr	r1, [sp, #160]	@ 0xa0
   23ba4:	4a2a      	ldr	r2, [pc, #168]	@ (23c50 <_ZN20complex_full_dynamic3app17h9f84fee001fd1716E+0xf8>)
   23ba6:	2802      	cmp	r0, #2
   23ba8:	d107      	bne.n	23bba <_ZN20complex_full_dynamic3app17h9f84fee001fd1716E+0x62>
   23baa:	e038      	b.n	23c1e <_ZN20complex_full_dynamic3app17h9f84fee001fd1716E+0xc6>
   23bac:	a907      	add	r1, sp, #28
   23bae:	720c      	strb	r4, [r1, #8]
   23bb0:	9608      	str	r6, [sp, #32]
   23bb2:	4a27      	ldr	r2, [pc, #156]	@ (23c50 <_ZN20complex_full_dynamic3app17h9f84fee001fd1716E+0xf8>)
   23bb4:	9207      	str	r2, [sp, #28]
   23bb6:	2802      	cmp	r0, #2
   23bb8:	d031      	beq.n	23c1e <_ZN20complex_full_dynamic3app17h9f84fee001fd1716E+0xc6>
   23bba:	a81b      	add	r0, sp, #108	@ 0x6c
   23bbc:	7a00      	ldrb	r0, [r0, #8]
   23bbe:	2802      	cmp	r0, #2
   23bc0:	d112      	bne.n	23be8 <_ZN20complex_full_dynamic3app17h9f84fee001fd1716E+0x90>
   23bc2:	9605      	str	r6, [sp, #20]
   23bc4:	2503      	movs	r5, #3
   23bc6:	9803      	ldr	r0, [sp, #12]
   23bc8:	9000      	str	r0, [sp, #0]
   23bca:	9501      	str	r5, [sp, #4]
   23bcc:	a827      	add	r0, sp, #156	@ 0x9c
   23bce:	2400      	movs	r4, #0
   23bd0:	4611      	mov	r1, r2
   23bd2:	4616      	mov	r6, r2
   23bd4:	4622      	mov	r2, r4
   23bd6:	9b04      	ldr	r3, [sp, #16]
   23bd8:	f005 fad4 	bl	29184 <_ZN9allow_pin13dynamic_allow17h33d41317a2da4f1cE>
   23bdc:	9827      	ldr	r0, [sp, #156]	@ 0x9c
   23bde:	2802      	cmp	r0, #2
   23be0:	d107      	bne.n	23bf2 <_ZN20complex_full_dynamic3app17h9f84fee001fd1716E+0x9a>
   23be2:	9928      	ldr	r1, [sp, #160]	@ 0xa0
   23be4:	9e05      	ldr	r6, [sp, #20]
   23be6:	e000      	b.n	23bea <_ZN20complex_full_dynamic3app17h9f84fee001fd1716E+0x92>
   23be8:	2103      	movs	r1, #3
   23bea:	4634      	mov	r4, r6
   23bec:	2c00      	cmp	r4, #0
   23bee:	d007      	beq.n	23c00 <_ZN20complex_full_dynamic3app17h9f84fee001fd1716E+0xa8>
   23bf0:	e015      	b.n	23c1e <_ZN20complex_full_dynamic3app17h9f84fee001fd1716E+0xc6>
   23bf2:	a81b      	add	r0, sp, #108	@ 0x6c
   23bf4:	7205      	strb	r5, [r0, #8]
   23bf6:	941c      	str	r4, [sp, #112]	@ 0x70
   23bf8:	961b      	str	r6, [sp, #108]	@ 0x6c
   23bfa:	9e05      	ldr	r6, [sp, #20]
   23bfc:	2c00      	cmp	r4, #0
   23bfe:	d10e      	bne.n	23c1e <_ZN20complex_full_dynamic3app17h9f84fee001fd1716E+0xc6>
   23c00:	4813      	ldr	r0, [pc, #76]	@ (23c50 <_ZN20complex_full_dynamic3app17h9f84fee001fd1716E+0xf8>)
   23c02:	2101      	movs	r1, #1
   23c04:	2400      	movs	r4, #0
   23c06:	4622      	mov	r2, r4
   23c08:	4623      	mov	r3, r4
   23c0a:	df02      	svc	2
   23c0c:	287f      	cmp	r0, #127	@ 0x7f
   23c0e:	d906      	bls.n	23c1e <_ZN20complex_full_dynamic3app17h9f84fee001fd1716E+0xc6>
   23c10:	a807      	add	r0, sp, #28
   23c12:	f005 faa3 	bl	2915c <_ZN9allow_pin12full_dynamic17unshare_if_shared17h9f78cce76fd1eb6dE>
   23c16:	a81b      	add	r0, sp, #108	@ 0x6c
   23c18:	f005 faa0 	bl	2915c <_ZN9allow_pin12full_dynamic17unshare_if_shared17h9f78cce76fd1eb6dE>
   23c1c:	4626      	mov	r6, r4
   23c1e:	2e00      	cmp	r6, #0
   23c20:	d003      	beq.n	23c2a <_ZN20complex_full_dynamic3app17h9f84fee001fd1716E+0xd2>
   23c22:	9c06      	ldr	r4, [sp, #24]
   23c24:	6061      	str	r1, [r4, #4]
   23c26:	2001      	movs	r0, #1
   23c28:	e009      	b.n	23c3e <_ZN20complex_full_dynamic3app17h9f84fee001fd1716E+0xe6>
   23c2a:	a81b      	add	r0, sp, #108	@ 0x6c
   23c2c:	f005 fa96 	bl	2915c <_ZN9allow_pin12full_dynamic17unshare_if_shared17h9f78cce76fd1eb6dE>
   23c30:	9c06      	ldr	r4, [sp, #24]
   23c32:	1c60      	adds	r0, r4, #1
   23c34:	2222      	movs	r2, #34	@ 0x22
   23c36:	9904      	ldr	r1, [sp, #16]
   23c38:	f005 fc69 	bl	2950e <__aeabi_memcpy>
   23c3c:	2000      	movs	r0, #0
   23c3e:	7020      	strb	r0, [r4, #0]
   23c40:	a81b      	add	r0, sp, #108	@ 0x6c
   23c42:	f005 fa8b 	bl	2915c <_ZN9allow_pin12full_dynamic17unshare_if_shared17h9f78cce76fd1eb6dE>
   23c46:	a807      	add	r0, sp, #28
   23c48:	f005 fa88 	bl	2915c <_ZN9allow_pin12full_dynamic17unshare_if_shared17h9f78cce76fd1eb6dE>
   23c4c:	b02b      	add	sp, #172	@ 0xac
   23c4e:	bdf0      	pop	{r4, r5, r6, r7, pc}
   23c50:	0000247c 	.word	0x0000247c

00023c54 <_ZN20complex_full_dynamic3app17h9faedbb5f20918b7E>:
   23c54:	b5f0      	push	{r4, r5, r6, r7, lr}
   23c56:	af03      	add	r7, sp, #12
   23c58:	b0a5      	sub	sp, #148	@ 0x94
   23c5a:	9005      	str	r0, [sp, #20]
   23c5c:	ae06      	add	r6, sp, #24
   23c5e:	2002      	movs	r0, #2
   23c60:	9004      	str	r0, [sp, #16]
   23c62:	7230      	strb	r0, [r6, #8]
   23c64:	360c      	adds	r6, #12
   23c66:	252a      	movs	r5, #42	@ 0x2a
   23c68:	4630      	mov	r0, r6
   23c6a:	462a      	mov	r2, r5
   23c6c:	f005 fc4f 	bl	2950e <__aeabi_memcpy>
   23c70:	ac14      	add	r4, sp, #80	@ 0x50
   23c72:	4620      	mov	r0, r4
   23c74:	300c      	adds	r0, #12
   23c76:	2128      	movs	r1, #40	@ 0x28
   23c78:	9003      	str	r0, [sp, #12]
   23c7a:	9102      	str	r1, [sp, #8]
   23c7c:	f005 fa9a 	bl	291b4 <__aeabi_memclr4>
   23c80:	9804      	ldr	r0, [sp, #16]
   23c82:	7220      	strb	r0, [r4, #8]
   23c84:	2404      	movs	r4, #4
   23c86:	9500      	str	r5, [sp, #0]
   23c88:	9401      	str	r4, [sp, #4]
   23c8a:	a821      	add	r0, sp, #132	@ 0x84
   23c8c:	4d2d      	ldr	r5, [pc, #180]	@ (23d44 <_ZN20complex_full_dynamic3app17h9faedbb5f20918b7E+0xf0>)
   23c8e:	4629      	mov	r1, r5
   23c90:	4622      	mov	r2, r4
   23c92:	4633      	mov	r3, r6
   23c94:	f005 fa76 	bl	29184 <_ZN9allow_pin13dynamic_allow17h33d41317a2da4f1cE>
   23c98:	9821      	ldr	r0, [sp, #132]	@ 0x84
   23c9a:	2802      	cmp	r0, #2
   23c9c:	d102      	bne.n	23ca4 <_ZN20complex_full_dynamic3app17h9faedbb5f20918b7E+0x50>
   23c9e:	462e      	mov	r6, r5
   23ca0:	9922      	ldr	r1, [sp, #136]	@ 0x88
   23ca2:	e004      	b.n	23cae <_ZN20complex_full_dynamic3app17h9faedbb5f20918b7E+0x5a>
   23ca4:	a906      	add	r1, sp, #24
   23ca6:	720c      	strb	r4, [r1, #8]
   23ca8:	9407      	str	r4, [sp, #28]
   23caa:	462e      	mov	r6, r5
   23cac:	9506      	str	r5, [sp, #24]
   23cae:	2501      	movs	r5, #1
   23cb0:	2802      	cmp	r0, #2
   23cb2:	d02e      	beq.n	23d12 <_ZN20complex_full_dynamic3app17h9faedbb5f20918b7E+0xbe>
   23cb4:	a814      	add	r0, sp, #80	@ 0x50
   23cb6:	7a00      	ldrb	r0, [r0, #8]
   23cb8:	2103      	movs	r1, #3
   23cba:	2802      	cmp	r0, #2
   23cbc:	d10e      	bne.n	23cdc <_ZN20complex_full_dynamic3app17h9faedbb5f20918b7E+0x88>
   23cbe:	9802      	ldr	r0, [sp, #8]
   23cc0:	9000      	str	r0, [sp, #0]
   23cc2:	9104      	str	r1, [sp, #16]
   23cc4:	9101      	str	r1, [sp, #4]
   23cc6:	a821      	add	r0, sp, #132	@ 0x84
   23cc8:	2408      	movs	r4, #8
   23cca:	4631      	mov	r1, r6
   23ccc:	4622      	mov	r2, r4
   23cce:	9b03      	ldr	r3, [sp, #12]
   23cd0:	f005 fa58 	bl	29184 <_ZN9allow_pin13dynamic_allow17h33d41317a2da4f1cE>
   23cd4:	9821      	ldr	r0, [sp, #132]	@ 0x84
   23cd6:	2802      	cmp	r0, #2
   23cd8:	d104      	bne.n	23ce4 <_ZN20complex_full_dynamic3app17h9faedbb5f20918b7E+0x90>
   23cda:	9922      	ldr	r1, [sp, #136]	@ 0x88
   23cdc:	4628      	mov	r0, r5
   23cde:	2800      	cmp	r0, #0
   23ce0:	d008      	beq.n	23cf4 <_ZN20complex_full_dynamic3app17h9faedbb5f20918b7E+0xa0>
   23ce2:	e016      	b.n	23d12 <_ZN20complex_full_dynamic3app17h9faedbb5f20918b7E+0xbe>
   23ce4:	a814      	add	r0, sp, #80	@ 0x50
   23ce6:	9904      	ldr	r1, [sp, #16]
   23ce8:	7201      	strb	r1, [r0, #8]
   23cea:	9415      	str	r4, [sp, #84]	@ 0x54
   23cec:	9614      	str	r6, [sp, #80]	@ 0x50
   23cee:	2000      	movs	r0, #0
   23cf0:	2800      	cmp	r0, #0
   23cf2:	d10e      	bne.n	23d12 <_ZN20complex_full_dynamic3app17h9faedbb5f20918b7E+0xbe>
   23cf4:	4813      	ldr	r0, [pc, #76]	@ (23d44 <_ZN20complex_full_dynamic3app17h9faedbb5f20918b7E+0xf0>)
   23cf6:	2104      	movs	r1, #4
   23cf8:	2208      	movs	r2, #8
   23cfa:	2400      	movs	r4, #0
   23cfc:	4623      	mov	r3, r4
   23cfe:	df02      	svc	2
   23d00:	287f      	cmp	r0, #127	@ 0x7f
   23d02:	d906      	bls.n	23d12 <_ZN20complex_full_dynamic3app17h9faedbb5f20918b7E+0xbe>
   23d04:	a806      	add	r0, sp, #24
   23d06:	f005 fa29 	bl	2915c <_ZN9allow_pin12full_dynamic17unshare_if_shared17h9f78cce76fd1eb6dE>
   23d0a:	a814      	add	r0, sp, #80	@ 0x50
   23d0c:	f005 fa26 	bl	2915c <_ZN9allow_pin12full_dynamic17unshare_if_shared17h9f78cce76fd1eb6dE>
   23d10:	4625      	mov	r5, r4
   23d12:	2d00      	cmp	r5, #0
   23d14:	d003      	beq.n	23d1e <_ZN20complex_full_dynamic3app17h9faedbb5f20918b7E+0xca>
   23d16:	9c05      	ldr	r4, [sp, #20]
   23d18:	6061      	str	r1, [r4, #4]
   23d1a:	2001      	movs	r0, #1
   23d1c:	e009      	b.n	23d32 <_ZN20complex_full_dynamic3app17h9faedbb5f20918b7E+0xde>
   23d1e:	a814      	add	r0, sp, #80	@ 0x50
   23d20:	f005 fa1c 	bl	2915c <_ZN9allow_pin12full_dynamic17unshare_if_shared17h9f78cce76fd1eb6dE>
   23d24:	9c05      	ldr	r4, [sp, #20]
   23d26:	1c60      	adds	r0, r4, #1
   23d28:	2228      	movs	r2, #40	@ 0x28
   23d2a:	9903      	ldr	r1, [sp, #12]
   23d2c:	f005 fbef 	bl	2950e <__aeabi_memcpy>
   23d30:	2000      	movs	r0, #0
   23d32:	7020      	strb	r0, [r4, #0]
   23d34:	a814      	add	r0, sp, #80	@ 0x50
   23d36:	f005 fa11 	bl	2915c <_ZN9allow_pin12full_dynamic17unshare_if_shared17h9f78cce76fd1eb6dE>
   23d3a:	a806      	add	r0, sp, #24
   23d3c:	f005 fa0e 	bl	2915c <_ZN9allow_pin12full_dynamic17unshare_if_shared17h9f78cce76fd1eb6dE>
   23d40:	b025      	add	sp, #148	@ 0x94
   23d42:	bdf0      	pop	{r4, r5, r6, r7, pc}
   23d44:	00001efa 	.word	0x00001efa

00023d48 <_ZN20complex_full_dynamic3app17ha44ad83780947381E>:
   23d48:	b5f0      	push	{r4, r5, r6, r7, lr}
   23d4a:	af03      	add	r7, sp, #12
   23d4c:	b0b9      	sub	sp, #228	@ 0xe4
   23d4e:	9005      	str	r0, [sp, #20]
   23d50:	ae06      	add	r6, sp, #24
   23d52:	2002      	movs	r0, #2
   23d54:	9004      	str	r0, [sp, #16]
   23d56:	7230      	strb	r0, [r6, #8]
   23d58:	360c      	adds	r6, #12
   23d5a:	2553      	movs	r5, #83	@ 0x53
   23d5c:	4630      	mov	r0, r6
   23d5e:	462a      	mov	r2, r5
   23d60:	f005 fbd5 	bl	2950e <__aeabi_memcpy>
   23d64:	ac1e      	add	r4, sp, #120	@ 0x78
   23d66:	4620      	mov	r0, r4
   23d68:	300c      	adds	r0, #12
   23d6a:	214d      	movs	r1, #77	@ 0x4d
   23d6c:	9003      	str	r0, [sp, #12]
   23d6e:	9102      	str	r1, [sp, #8]
   23d70:	f005 fa20 	bl	291b4 <__aeabi_memclr4>
   23d74:	9804      	ldr	r0, [sp, #16]
   23d76:	7220      	strb	r0, [r4, #8]
   23d78:	2404      	movs	r4, #4
   23d7a:	9500      	str	r5, [sp, #0]
   23d7c:	9401      	str	r4, [sp, #4]
   23d7e:	a835      	add	r0, sp, #212	@ 0xd4
   23d80:	492e      	ldr	r1, [pc, #184]	@ (23e3c <_ZN20complex_full_dynamic3app17ha44ad83780947381E+0xf4>)
   23d82:	2509      	movs	r5, #9
   23d84:	462a      	mov	r2, r5
   23d86:	4633      	mov	r3, r6
   23d88:	f005 f9fc 	bl	29184 <_ZN9allow_pin13dynamic_allow17h33d41317a2da4f1cE>
   23d8c:	9835      	ldr	r0, [sp, #212]	@ 0xd4
   23d8e:	2802      	cmp	r0, #2
   23d90:	d102      	bne.n	23d98 <_ZN20complex_full_dynamic3app17ha44ad83780947381E+0x50>
   23d92:	9936      	ldr	r1, [sp, #216]	@ 0xd8
   23d94:	4a29      	ldr	r2, [pc, #164]	@ (23e3c <_ZN20complex_full_dynamic3app17ha44ad83780947381E+0xf4>)
   23d96:	e004      	b.n	23da2 <_ZN20complex_full_dynamic3app17ha44ad83780947381E+0x5a>
   23d98:	a906      	add	r1, sp, #24
   23d9a:	720c      	strb	r4, [r1, #8]
   23d9c:	9507      	str	r5, [sp, #28]
   23d9e:	4a27      	ldr	r2, [pc, #156]	@ (23e3c <_ZN20complex_full_dynamic3app17ha44ad83780947381E+0xf4>)
   23da0:	9206      	str	r2, [sp, #24]
   23da2:	2501      	movs	r5, #1
   23da4:	2802      	cmp	r0, #2
   23da6:	d02f      	beq.n	23e08 <_ZN20complex_full_dynamic3app17ha44ad83780947381E+0xc0>
   23da8:	a81e      	add	r0, sp, #120	@ 0x78
   23daa:	7a00      	ldrb	r0, [r0, #8]
   23dac:	2802      	cmp	r0, #2
   23dae:	d10f      	bne.n	23dd0 <_ZN20complex_full_dynamic3app17ha44ad83780947381E+0x88>
   23db0:	2603      	movs	r6, #3
   23db2:	9802      	ldr	r0, [sp, #8]
   23db4:	9000      	str	r0, [sp, #0]
   23db6:	9601      	str	r6, [sp, #4]
   23db8:	a835      	add	r0, sp, #212	@ 0xd4
   23dba:	2404      	movs	r4, #4
   23dbc:	4611      	mov	r1, r2
   23dbe:	4622      	mov	r2, r4
   23dc0:	9b03      	ldr	r3, [sp, #12]
   23dc2:	f005 f9df 	bl	29184 <_ZN9allow_pin13dynamic_allow17h33d41317a2da4f1cE>
   23dc6:	9835      	ldr	r0, [sp, #212]	@ 0xd4
   23dc8:	2802      	cmp	r0, #2
   23dca:	d106      	bne.n	23dda <_ZN20complex_full_dynamic3app17ha44ad83780947381E+0x92>
   23dcc:	9936      	ldr	r1, [sp, #216]	@ 0xd8
   23dce:	e000      	b.n	23dd2 <_ZN20complex_full_dynamic3app17ha44ad83780947381E+0x8a>
   23dd0:	2103      	movs	r1, #3
   23dd2:	4628      	mov	r0, r5
   23dd4:	2800      	cmp	r0, #0
   23dd6:	d008      	beq.n	23dea <_ZN20complex_full_dynamic3app17ha44ad83780947381E+0xa2>
   23dd8:	e016      	b.n	23e08 <_ZN20complex_full_dynamic3app17ha44ad83780947381E+0xc0>
   23dda:	a81e      	add	r0, sp, #120	@ 0x78
   23ddc:	7206      	strb	r6, [r0, #8]
   23dde:	941f      	str	r4, [sp, #124]	@ 0x7c
   23de0:	4816      	ldr	r0, [pc, #88]	@ (23e3c <_ZN20complex_full_dynamic3app17ha44ad83780947381E+0xf4>)
   23de2:	901e      	str	r0, [sp, #120]	@ 0x78
   23de4:	2000      	movs	r0, #0
   23de6:	2800      	cmp	r0, #0
   23de8:	d10e      	bne.n	23e08 <_ZN20complex_full_dynamic3app17ha44ad83780947381E+0xc0>
   23dea:	4814      	ldr	r0, [pc, #80]	@ (23e3c <_ZN20complex_full_dynamic3app17ha44ad83780947381E+0xf4>)
   23dec:	2109      	movs	r1, #9
   23dee:	2204      	movs	r2, #4
   23df0:	2400      	movs	r4, #0
   23df2:	4623      	mov	r3, r4
   23df4:	df02      	svc	2
   23df6:	287f      	cmp	r0, #127	@ 0x7f
   23df8:	d906      	bls.n	23e08 <_ZN20complex_full_dynamic3app17ha44ad83780947381E+0xc0>
   23dfa:	a806      	add	r0, sp, #24
   23dfc:	f005 f9ae 	bl	2915c <_ZN9allow_pin12full_dynamic17unshare_if_shared17h9f78cce76fd1eb6dE>
   23e00:	a81e      	add	r0, sp, #120	@ 0x78
   23e02:	f005 f9ab 	bl	2915c <_ZN9allow_pin12full_dynamic17unshare_if_shared17h9f78cce76fd1eb6dE>
   23e06:	4625      	mov	r5, r4
   23e08:	2d00      	cmp	r5, #0
   23e0a:	d003      	beq.n	23e14 <_ZN20complex_full_dynamic3app17ha44ad83780947381E+0xcc>
   23e0c:	9c05      	ldr	r4, [sp, #20]
   23e0e:	6061      	str	r1, [r4, #4]
   23e10:	2001      	movs	r0, #1
   23e12:	e009      	b.n	23e28 <_ZN20complex_full_dynamic3app17ha44ad83780947381E+0xe0>
   23e14:	a81e      	add	r0, sp, #120	@ 0x78
   23e16:	f005 f9a1 	bl	2915c <_ZN9allow_pin12full_dynamic17unshare_if_shared17h9f78cce76fd1eb6dE>
   23e1a:	9c05      	ldr	r4, [sp, #20]
   23e1c:	1c60      	adds	r0, r4, #1
   23e1e:	224d      	movs	r2, #77	@ 0x4d
   23e20:	9903      	ldr	r1, [sp, #12]
   23e22:	f005 fb74 	bl	2950e <__aeabi_memcpy>
   23e26:	2000      	movs	r0, #0
   23e28:	7020      	strb	r0, [r4, #0]
   23e2a:	a81e      	add	r0, sp, #120	@ 0x78
   23e2c:	f005 f996 	bl	2915c <_ZN9allow_pin12full_dynamic17unshare_if_shared17h9f78cce76fd1eb6dE>
   23e30:	a806      	add	r0, sp, #24
   23e32:	f005 f993 	bl	2915c <_ZN9allow_pin12full_dynamic17unshare_if_shared17h9f78cce76fd1eb6dE>
   23e36:	b039      	add	sp, #228	@ 0xe4
   23e38:	bdf0      	pop	{r4, r5, r6, r7, pc}
   23e3a:	46c0      	nop			@ (mov r8, r8)
   23e3c:	000016ba 	.word	0x000016ba

00023e40 <_ZN20complex_full_dynamic3app17ha57e69312954cabeE>:
   23e40:	b5f0      	push	{r4, r5, r6, r7, lr}
   23e42:	af03      	add	r7, sp, #12
   23e44:	b0a5      	sub	sp, #148	@ 0x94
   23e46:	9005      	str	r0, [sp, #20]
   23e48:	ae06      	add	r6, sp, #24
   23e4a:	2002      	movs	r0, #2
   23e4c:	9004      	str	r0, [sp, #16]
   23e4e:	7230      	strb	r0, [r6, #8]
   23e50:	360c      	adds	r6, #12
   23e52:	252c      	movs	r5, #44	@ 0x2c
   23e54:	4630      	mov	r0, r6
   23e56:	462a      	mov	r2, r5
   23e58:	f005 fb59 	bl	2950e <__aeabi_memcpy>
   23e5c:	ac14      	add	r4, sp, #80	@ 0x50
   23e5e:	4620      	mov	r0, r4
   23e60:	300c      	adds	r0, #12
   23e62:	2127      	movs	r1, #39	@ 0x27
   23e64:	9003      	str	r0, [sp, #12]
   23e66:	9102      	str	r1, [sp, #8]
   23e68:	f005 f9a4 	bl	291b4 <__aeabi_memclr4>
   23e6c:	9804      	ldr	r0, [sp, #16]
   23e6e:	7220      	strb	r0, [r4, #8]
   23e70:	2404      	movs	r4, #4
   23e72:	9500      	str	r5, [sp, #0]
   23e74:	9401      	str	r4, [sp, #4]
   23e76:	a821      	add	r0, sp, #132	@ 0x84
   23e78:	4d2d      	ldr	r5, [pc, #180]	@ (23f30 <_ZN20complex_full_dynamic3app17ha57e69312954cabeE+0xf0>)
   23e7a:	4629      	mov	r1, r5
   23e7c:	4622      	mov	r2, r4
   23e7e:	4633      	mov	r3, r6
   23e80:	f005 f980 	bl	29184 <_ZN9allow_pin13dynamic_allow17h33d41317a2da4f1cE>
   23e84:	9821      	ldr	r0, [sp, #132]	@ 0x84
   23e86:	2802      	cmp	r0, #2
   23e88:	d102      	bne.n	23e90 <_ZN20complex_full_dynamic3app17ha57e69312954cabeE+0x50>
   23e8a:	462e      	mov	r6, r5
   23e8c:	9922      	ldr	r1, [sp, #136]	@ 0x88
   23e8e:	e004      	b.n	23e9a <_ZN20complex_full_dynamic3app17ha57e69312954cabeE+0x5a>
   23e90:	a906      	add	r1, sp, #24
   23e92:	720c      	strb	r4, [r1, #8]
   23e94:	9407      	str	r4, [sp, #28]
   23e96:	462e      	mov	r6, r5
   23e98:	9506      	str	r5, [sp, #24]
   23e9a:	2501      	movs	r5, #1
   23e9c:	2802      	cmp	r0, #2
   23e9e:	d02d      	beq.n	23efc <_ZN20complex_full_dynamic3app17ha57e69312954cabeE+0xbc>
   23ea0:	a814      	add	r0, sp, #80	@ 0x50
   23ea2:	7a00      	ldrb	r0, [r0, #8]
   23ea4:	2802      	cmp	r0, #2
   23ea6:	d10e      	bne.n	23ec6 <_ZN20complex_full_dynamic3app17ha57e69312954cabeE+0x86>
   23ea8:	2403      	movs	r4, #3
   23eaa:	9802      	ldr	r0, [sp, #8]
   23eac:	9000      	str	r0, [sp, #0]
   23eae:	9401      	str	r4, [sp, #4]
   23eb0:	a821      	add	r0, sp, #132	@ 0x84
   23eb2:	4631      	mov	r1, r6
   23eb4:	4622      	mov	r2, r4
   23eb6:	9b03      	ldr	r3, [sp, #12]
   23eb8:	f005 f964 	bl	29184 <_ZN9allow_pin13dynamic_allow17h33d41317a2da4f1cE>
   23ebc:	9821      	ldr	r0, [sp, #132]	@ 0x84
   23ebe:	2802      	cmp	r0, #2
   23ec0:	d106      	bne.n	23ed0 <_ZN20complex_full_dynamic3app17ha57e69312954cabeE+0x90>
   23ec2:	9922      	ldr	r1, [sp, #136]	@ 0x88
   23ec4:	e000      	b.n	23ec8 <_ZN20complex_full_dynamic3app17ha57e69312954cabeE+0x88>
   23ec6:	2103      	movs	r1, #3
   23ec8:	4628      	mov	r0, r5
   23eca:	2800      	cmp	r0, #0
   23ecc:	d007      	beq.n	23ede <_ZN20complex_full_dynamic3app17ha57e69312954cabeE+0x9e>
   23ece:	e015      	b.n	23efc <_ZN20complex_full_dynamic3app17ha57e69312954cabeE+0xbc>
   23ed0:	a814      	add	r0, sp, #80	@ 0x50
   23ed2:	7204      	strb	r4, [r0, #8]
   23ed4:	9415      	str	r4, [sp, #84]	@ 0x54
   23ed6:	9614      	str	r6, [sp, #80]	@ 0x50
   23ed8:	2000      	movs	r0, #0
   23eda:	2800      	cmp	r0, #0
   23edc:	d10e      	bne.n	23efc <_ZN20complex_full_dynamic3app17ha57e69312954cabeE+0xbc>
   23ede:	4814      	ldr	r0, [pc, #80]	@ (23f30 <_ZN20complex_full_dynamic3app17ha57e69312954cabeE+0xf0>)
   23ee0:	2104      	movs	r1, #4
   23ee2:	2203      	movs	r2, #3
   23ee4:	2400      	movs	r4, #0
   23ee6:	4623      	mov	r3, r4
   23ee8:	df02      	svc	2
   23eea:	287f      	cmp	r0, #127	@ 0x7f
   23eec:	d906      	bls.n	23efc <_ZN20complex_full_dynamic3app17ha57e69312954cabeE+0xbc>
   23eee:	a806      	add	r0, sp, #24
   23ef0:	f005 f934 	bl	2915c <_ZN9allow_pin12full_dynamic17unshare_if_shared17h9f78cce76fd1eb6dE>
   23ef4:	a814      	add	r0, sp, #80	@ 0x50
   23ef6:	f005 f931 	bl	2915c <_ZN9allow_pin12full_dynamic17unshare_if_shared17h9f78cce76fd1eb6dE>
   23efa:	4625      	mov	r5, r4
   23efc:	2d00      	cmp	r5, #0
   23efe:	d003      	beq.n	23f08 <_ZN20complex_full_dynamic3app17ha57e69312954cabeE+0xc8>
   23f00:	9c05      	ldr	r4, [sp, #20]
   23f02:	6061      	str	r1, [r4, #4]
   23f04:	2001      	movs	r0, #1
   23f06:	e009      	b.n	23f1c <_ZN20complex_full_dynamic3app17ha57e69312954cabeE+0xdc>
   23f08:	a814      	add	r0, sp, #80	@ 0x50
   23f0a:	f005 f927 	bl	2915c <_ZN9allow_pin12full_dynamic17unshare_if_shared17h9f78cce76fd1eb6dE>
   23f0e:	9c05      	ldr	r4, [sp, #20]
   23f10:	1c60      	adds	r0, r4, #1
   23f12:	2227      	movs	r2, #39	@ 0x27
   23f14:	9903      	ldr	r1, [sp, #12]
   23f16:	f005 fafa 	bl	2950e <__aeabi_memcpy>
   23f1a:	2000      	movs	r0, #0
   23f1c:	7020      	strb	r0, [r4, #0]
   23f1e:	a814      	add	r0, sp, #80	@ 0x50
   23f20:	f005 f91c 	bl	2915c <_ZN9allow_pin12full_dynamic17unshare_if_shared17h9f78cce76fd1eb6dE>
   23f24:	a806      	add	r0, sp, #24
   23f26:	f005 f919 	bl	2915c <_ZN9allow_pin12full_dynamic17unshare_if_shared17h9f78cce76fd1eb6dE>
   23f2a:	b025      	add	sp, #148	@ 0x94
   23f2c:	bdf0      	pop	{r4, r5, r6, r7, pc}
   23f2e:	46c0      	nop			@ (mov r8, r8)
   23f30:	000011b5 	.word	0x000011b5

00023f34 <_ZN20complex_full_dynamic3app17ha9e3dc37a8145cf3E>:
   23f34:	b5f0      	push	{r4, r5, r6, r7, lr}
   23f36:	af03      	add	r7, sp, #12
   23f38:	b0ab      	sub	sp, #172	@ 0xac
   23f3a:	9004      	str	r0, [sp, #16]
   23f3c:	ae06      	add	r6, sp, #24
   23f3e:	2402      	movs	r4, #2
   23f40:	7234      	strb	r4, [r6, #8]
   23f42:	360c      	adds	r6, #12
   23f44:	2555      	movs	r5, #85	@ 0x55
   23f46:	4630      	mov	r0, r6
   23f48:	462a      	mov	r2, r5
   23f4a:	f005 fae0 	bl	2950e <__aeabi_memcpy>
   23f4e:	a81f      	add	r0, sp, #124	@ 0x7c
   23f50:	2100      	movs	r1, #0
   23f52:	7701      	strb	r1, [r0, #28]
   23f54:	9005      	str	r0, [sp, #20]
   23f56:	7204      	strb	r4, [r0, #8]
   23f58:	9125      	str	r1, [sp, #148]	@ 0x94
   23f5a:	9124      	str	r1, [sp, #144]	@ 0x90
   23f5c:	9123      	str	r1, [sp, #140]	@ 0x8c
   23f5e:	9102      	str	r1, [sp, #8]
   23f60:	9122      	str	r1, [sp, #136]	@ 0x88
   23f62:	2004      	movs	r0, #4
   23f64:	9500      	str	r5, [sp, #0]
   23f66:	9003      	str	r0, [sp, #12]
   23f68:	9001      	str	r0, [sp, #4]
   23f6a:	a827      	add	r0, sp, #156	@ 0x9c
   23f6c:	4d33      	ldr	r5, [pc, #204]	@ (2403c <_ZN20complex_full_dynamic3app17ha9e3dc37a8145cf3E+0x108>)
   23f6e:	4629      	mov	r1, r5
   23f70:	4622      	mov	r2, r4
   23f72:	4633      	mov	r3, r6
   23f74:	f005 f906 	bl	29184 <_ZN9allow_pin13dynamic_allow17h33d41317a2da4f1cE>
   23f78:	9827      	ldr	r0, [sp, #156]	@ 0x9c
   23f7a:	2802      	cmp	r0, #2
   23f7c:	d102      	bne.n	23f84 <_ZN20complex_full_dynamic3app17ha9e3dc37a8145cf3E+0x50>
   23f7e:	462a      	mov	r2, r5
   23f80:	9928      	ldr	r1, [sp, #160]	@ 0xa0
   23f82:	e005      	b.n	23f90 <_ZN20complex_full_dynamic3app17ha9e3dc37a8145cf3E+0x5c>
   23f84:	a906      	add	r1, sp, #24
   23f86:	9a03      	ldr	r2, [sp, #12]
   23f88:	720a      	strb	r2, [r1, #8]
   23f8a:	9407      	str	r4, [sp, #28]
   23f8c:	462a      	mov	r2, r5
   23f8e:	9506      	str	r5, [sp, #24]
   23f90:	9e05      	ldr	r6, [sp, #20]
   23f92:	360c      	adds	r6, #12
   23f94:	2501      	movs	r5, #1
   23f96:	2802      	cmp	r0, #2
   23f98:	d037      	beq.n	2400a <_ZN20complex_full_dynamic3app17ha9e3dc37a8145cf3E+0xd6>
   23f9a:	a81f      	add	r0, sp, #124	@ 0x7c
   23f9c:	7a00      	ldrb	r0, [r0, #8]
   23f9e:	2802      	cmp	r0, #2
   23fa0:	d116      	bne.n	23fd0 <_ZN20complex_full_dynamic3app17ha9e3dc37a8145cf3E+0x9c>
   23fa2:	4633      	mov	r3, r6
   23fa4:	2103      	movs	r1, #3
   23fa6:	2011      	movs	r0, #17
   23fa8:	9000      	str	r0, [sp, #0]
   23faa:	9103      	str	r1, [sp, #12]
   23fac:	9101      	str	r1, [sp, #4]
   23fae:	a827      	add	r0, sp, #156	@ 0x9c
   23fb0:	2402      	movs	r4, #2
   23fb2:	4616      	mov	r6, r2
   23fb4:	4611      	mov	r1, r2
   23fb6:	4622      	mov	r2, r4
   23fb8:	9305      	str	r3, [sp, #20]
   23fba:	f005 f8e3 	bl	29184 <_ZN9allow_pin13dynamic_allow17h33d41317a2da4f1cE>
   23fbe:	9827      	ldr	r0, [sp, #156]	@ 0x9c
   23fc0:	2802      	cmp	r0, #2
   23fc2:	d10a      	bne.n	23fda <_ZN20complex_full_dynamic3app17ha9e3dc37a8145cf3E+0xa6>
   23fc4:	9928      	ldr	r1, [sp, #160]	@ 0xa0
   23fc6:	4628      	mov	r0, r5
   23fc8:	9e05      	ldr	r6, [sp, #20]
   23fca:	2800      	cmp	r0, #0
   23fcc:	d00e      	beq.n	23fec <_ZN20complex_full_dynamic3app17ha9e3dc37a8145cf3E+0xb8>
   23fce:	e01c      	b.n	2400a <_ZN20complex_full_dynamic3app17ha9e3dc37a8145cf3E+0xd6>
   23fd0:	2103      	movs	r1, #3
   23fd2:	4628      	mov	r0, r5
   23fd4:	2800      	cmp	r0, #0
   23fd6:	d009      	beq.n	23fec <_ZN20complex_full_dynamic3app17ha9e3dc37a8145cf3E+0xb8>
   23fd8:	e017      	b.n	2400a <_ZN20complex_full_dynamic3app17ha9e3dc37a8145cf3E+0xd6>
   23fda:	a81f      	add	r0, sp, #124	@ 0x7c
   23fdc:	9903      	ldr	r1, [sp, #12]
   23fde:	7201      	strb	r1, [r0, #8]
   23fe0:	9420      	str	r4, [sp, #128]	@ 0x80
   23fe2:	961f      	str	r6, [sp, #124]	@ 0x7c
   23fe4:	9e05      	ldr	r6, [sp, #20]
   23fe6:	9802      	ldr	r0, [sp, #8]
   23fe8:	2800      	cmp	r0, #0
   23fea:	d10e      	bne.n	2400a <_ZN20complex_full_dynamic3app17ha9e3dc37a8145cf3E+0xd6>
   23fec:	4813      	ldr	r0, [pc, #76]	@ (2403c <_ZN20complex_full_dynamic3app17ha9e3dc37a8145cf3E+0x108>)
   23fee:	2102      	movs	r1, #2
   23ff0:	2400      	movs	r4, #0
   23ff2:	460a      	mov	r2, r1
   23ff4:	4623      	mov	r3, r4
   23ff6:	df02      	svc	2
   23ff8:	287f      	cmp	r0, #127	@ 0x7f
   23ffa:	d906      	bls.n	2400a <_ZN20complex_full_dynamic3app17ha9e3dc37a8145cf3E+0xd6>
   23ffc:	a806      	add	r0, sp, #24
   23ffe:	f005 f8ad 	bl	2915c <_ZN9allow_pin12full_dynamic17unshare_if_shared17h9f78cce76fd1eb6dE>
   24002:	a81f      	add	r0, sp, #124	@ 0x7c
   24004:	f005 f8aa 	bl	2915c <_ZN9allow_pin12full_dynamic17unshare_if_shared17h9f78cce76fd1eb6dE>
   24008:	4625      	mov	r5, r4
   2400a:	2d00      	cmp	r5, #0
   2400c:	d003      	beq.n	24016 <_ZN20complex_full_dynamic3app17ha9e3dc37a8145cf3E+0xe2>
   2400e:	9c04      	ldr	r4, [sp, #16]
   24010:	6061      	str	r1, [r4, #4]
   24012:	2001      	movs	r0, #1
   24014:	e009      	b.n	2402a <_ZN20complex_full_dynamic3app17ha9e3dc37a8145cf3E+0xf6>
   24016:	a81f      	add	r0, sp, #124	@ 0x7c
   24018:	f005 f8a0 	bl	2915c <_ZN9allow_pin12full_dynamic17unshare_if_shared17h9f78cce76fd1eb6dE>
   2401c:	9c04      	ldr	r4, [sp, #16]
   2401e:	1c60      	adds	r0, r4, #1
   24020:	2211      	movs	r2, #17
   24022:	4631      	mov	r1, r6
   24024:	f005 fa73 	bl	2950e <__aeabi_memcpy>
   24028:	2000      	movs	r0, #0
   2402a:	7020      	strb	r0, [r4, #0]
   2402c:	a81f      	add	r0, sp, #124	@ 0x7c
   2402e:	f005 f895 	bl	2915c <_ZN9allow_pin12full_dynamic17unshare_if_shared17h9f78cce76fd1eb6dE>
   24032:	a806      	add	r0, sp, #24
   24034:	f005 f892 	bl	2915c <_ZN9allow_pin12full_dynamic17unshare_if_shared17h9f78cce76fd1eb6dE>
   24038:	b02b      	add	sp, #172	@ 0xac
   2403a:	bdf0      	pop	{r4, r5, r6, r7, pc}
   2403c:	00000c89 	.word	0x00000c89

00024040 <_ZN20complex_full_dynamic3app17had3d1c48879a81e1E>:
   24040:	b5f0      	push	{r4, r5, r6, r7, lr}
   24042:	af03      	add	r7, sp, #12
   24044:	b0a9      	sub	sp, #164	@ 0xa4
   24046:	9005      	str	r0, [sp, #20]
   24048:	ae06      	add	r6, sp, #24
   2404a:	2002      	movs	r0, #2
   2404c:	9004      	str	r0, [sp, #16]
   2404e:	7230      	strb	r0, [r6, #8]
   24050:	360c      	adds	r6, #12
   24052:	2511      	movs	r5, #17
   24054:	4630      	mov	r0, r6
   24056:	462a      	mov	r2, r5
   24058:	f005 fa59 	bl	2950e <__aeabi_memcpy>
   2405c:	ac0e      	add	r4, sp, #56	@ 0x38
   2405e:	4620      	mov	r0, r4
   24060:	300c      	adds	r0, #12
   24062:	2150      	movs	r1, #80	@ 0x50
   24064:	9003      	str	r0, [sp, #12]
   24066:	9102      	str	r1, [sp, #8]
   24068:	f005 f8a4 	bl	291b4 <__aeabi_memclr4>
   2406c:	9804      	ldr	r0, [sp, #16]
   2406e:	7220      	strb	r0, [r4, #8]
   24070:	2404      	movs	r4, #4
   24072:	9500      	str	r5, [sp, #0]
   24074:	9401      	str	r4, [sp, #4]
   24076:	a825      	add	r0, sp, #148	@ 0x94
   24078:	492e      	ldr	r1, [pc, #184]	@ (24134 <_ZN20complex_full_dynamic3app17had3d1c48879a81e1E+0xf4>)
   2407a:	2506      	movs	r5, #6
   2407c:	462a      	mov	r2, r5
   2407e:	4633      	mov	r3, r6
   24080:	f005 f880 	bl	29184 <_ZN9allow_pin13dynamic_allow17h33d41317a2da4f1cE>
   24084:	9825      	ldr	r0, [sp, #148]	@ 0x94
   24086:	2802      	cmp	r0, #2
   24088:	d102      	bne.n	24090 <_ZN20complex_full_dynamic3app17had3d1c48879a81e1E+0x50>
   2408a:	9926      	ldr	r1, [sp, #152]	@ 0x98
   2408c:	4a29      	ldr	r2, [pc, #164]	@ (24134 <_ZN20complex_full_dynamic3app17had3d1c48879a81e1E+0xf4>)
   2408e:	e004      	b.n	2409a <_ZN20complex_full_dynamic3app17had3d1c48879a81e1E+0x5a>
   24090:	a906      	add	r1, sp, #24
   24092:	720c      	strb	r4, [r1, #8]
   24094:	9507      	str	r5, [sp, #28]
   24096:	4a27      	ldr	r2, [pc, #156]	@ (24134 <_ZN20complex_full_dynamic3app17had3d1c48879a81e1E+0xf4>)
   24098:	9206      	str	r2, [sp, #24]
   2409a:	2501      	movs	r5, #1
   2409c:	2802      	cmp	r0, #2
   2409e:	d02f      	beq.n	24100 <_ZN20complex_full_dynamic3app17had3d1c48879a81e1E+0xc0>
   240a0:	a80e      	add	r0, sp, #56	@ 0x38
   240a2:	7a00      	ldrb	r0, [r0, #8]
   240a4:	2802      	cmp	r0, #2
   240a6:	d10f      	bne.n	240c8 <_ZN20complex_full_dynamic3app17had3d1c48879a81e1E+0x88>
   240a8:	2603      	movs	r6, #3
   240aa:	9802      	ldr	r0, [sp, #8]
   240ac:	9000      	str	r0, [sp, #0]
   240ae:	9601      	str	r6, [sp, #4]
   240b0:	a825      	add	r0, sp, #148	@ 0x94
   240b2:	2405      	movs	r4, #5
   240b4:	4611      	mov	r1, r2
   240b6:	4622      	mov	r2, r4
   240b8:	9b03      	ldr	r3, [sp, #12]
   240ba:	f005 f863 	bl	29184 <_ZN9allow_pin13dynamic_allow17h33d41317a2da4f1cE>
   240be:	9825      	ldr	r0, [sp, #148]	@ 0x94
   240c0:	2802      	cmp	r0, #2
   240c2:	d106      	bne.n	240d2 <_ZN20complex_full_dynamic3app17had3d1c48879a81e1E+0x92>
   240c4:	9926      	ldr	r1, [sp, #152]	@ 0x98
   240c6:	e000      	b.n	240ca <_ZN20complex_full_dynamic3app17had3d1c48879a81e1E+0x8a>
   240c8:	2103      	movs	r1, #3
   240ca:	4628      	mov	r0, r5
   240cc:	2800      	cmp	r0, #0
   240ce:	d008      	beq.n	240e2 <_ZN20complex_full_dynamic3app17had3d1c48879a81e1E+0xa2>
   240d0:	e016      	b.n	24100 <_ZN20complex_full_dynamic3app17had3d1c48879a81e1E+0xc0>
   240d2:	a80e      	add	r0, sp, #56	@ 0x38
   240d4:	7206      	strb	r6, [r0, #8]
   240d6:	940f      	str	r4, [sp, #60]	@ 0x3c
   240d8:	4816      	ldr	r0, [pc, #88]	@ (24134 <_ZN20complex_full_dynamic3app17had3d1c48879a81e1E+0xf4>)
   240da:	900e      	str	r0, [sp, #56]	@ 0x38
   240dc:	2000      	movs	r0, #0
   240de:	2800      	cmp	r0, #0
   240e0:	d10e      	bne.n	24100 <_ZN20complex_full_dynamic3app17had3d1c48879a81e1E+0xc0>
   240e2:	4814      	ldr	r0, [pc, #80]	@ (24134 <_ZN20complex_full_dynamic3app17had3d1c48879a81e1E+0xf4>)
   240e4:	2106      	movs	r1, #6
   240e6:	2205      	movs	r2, #5
   240e8:	2400      	movs	r4, #0
   240ea:	4623      	mov	r3, r4
   240ec:	df02      	svc	2
   240ee:	287f      	cmp	r0, #127	@ 0x7f
   240f0:	d906      	bls.n	24100 <_ZN20complex_full_dynamic3app17had3d1c48879a81e1E+0xc0>
   240f2:	a806      	add	r0, sp, #24
   240f4:	f005 f832 	bl	2915c <_ZN9allow_pin12full_dynamic17unshare_if_shared17h9f78cce76fd1eb6dE>
   240f8:	a80e      	add	r0, sp, #56	@ 0x38
   240fa:	f005 f82f 	bl	2915c <_ZN9allow_pin12full_dynamic17unshare_if_shared17h9f78cce76fd1eb6dE>
   240fe:	4625      	mov	r5, r4
   24100:	2d00      	cmp	r5, #0
   24102:	d003      	beq.n	2410c <_ZN20complex_full_dynamic3app17had3d1c48879a81e1E+0xcc>
   24104:	9c05      	ldr	r4, [sp, #20]
   24106:	6061      	str	r1, [r4, #4]
   24108:	2001      	movs	r0, #1
   2410a:	e009      	b.n	24120 <_ZN20complex_full_dynamic3app17had3d1c48879a81e1E+0xe0>
   2410c:	a80e      	add	r0, sp, #56	@ 0x38
   2410e:	f005 f825 	bl	2915c <_ZN9allow_pin12full_dynamic17unshare_if_shared17h9f78cce76fd1eb6dE>
   24112:	9c05      	ldr	r4, [sp, #20]
   24114:	1c60      	adds	r0, r4, #1
   24116:	2250      	movs	r2, #80	@ 0x50
   24118:	9903      	ldr	r1, [sp, #12]
   2411a:	f005 f9f8 	bl	2950e <__aeabi_memcpy>
   2411e:	2000      	movs	r0, #0
   24120:	7020      	strb	r0, [r4, #0]
   24122:	a80e      	add	r0, sp, #56	@ 0x38
   24124:	f005 f81a 	bl	2915c <_ZN9allow_pin12full_dynamic17unshare_if_shared17h9f78cce76fd1eb6dE>
   24128:	a806      	add	r0, sp, #24
   2412a:	f005 f817 	bl	2915c <_ZN9allow_pin12full_dynamic17unshare_if_shared17h9f78cce76fd1eb6dE>
   2412e:	b029      	add	sp, #164	@ 0xa4
   24130:	bdf0      	pop	{r4, r5, r6, r7, pc}
   24132:	46c0      	nop			@ (mov r8, r8)
   24134:	00001aa9 	.word	0x00001aa9

00024138 <_ZN20complex_full_dynamic3app17hadb7aecdc786c303E>:
   24138:	b5f0      	push	{r4, r5, r6, r7, lr}
   2413a:	af03      	add	r7, sp, #12
   2413c:	b0ad      	sub	sp, #180	@ 0xb4
   2413e:	9006      	str	r0, [sp, #24]
   24140:	ae07      	add	r6, sp, #28
   24142:	2002      	movs	r0, #2
   24144:	9005      	str	r0, [sp, #20]
   24146:	7230      	strb	r0, [r6, #8]
   24148:	360c      	adds	r6, #12
   2414a:	2549      	movs	r5, #73	@ 0x49
   2414c:	4630      	mov	r0, r6
   2414e:	462a      	mov	r2, r5
   24150:	f005 f9dd 	bl	2950e <__aeabi_memcpy>
   24154:	ac1d      	add	r4, sp, #116	@ 0x74
   24156:	4620      	mov	r0, r4
   24158:	300c      	adds	r0, #12
   2415a:	2123      	movs	r1, #35	@ 0x23
   2415c:	9004      	str	r0, [sp, #16]
   2415e:	9103      	str	r1, [sp, #12]
   24160:	f005 f828 	bl	291b4 <__aeabi_memclr4>
   24164:	9805      	ldr	r0, [sp, #20]
   24166:	7220      	strb	r0, [r4, #8]
   24168:	2404      	movs	r4, #4
   2416a:	9500      	str	r5, [sp, #0]
   2416c:	9401      	str	r4, [sp, #4]
   2416e:	a829      	add	r0, sp, #164	@ 0xa4
   24170:	492e      	ldr	r1, [pc, #184]	@ (2422c <_ZN20complex_full_dynamic3app17hadb7aecdc786c303E+0xf4>)
   24172:	2507      	movs	r5, #7
   24174:	462a      	mov	r2, r5
   24176:	4633      	mov	r3, r6
   24178:	f005 f804 	bl	29184 <_ZN9allow_pin13dynamic_allow17h33d41317a2da4f1cE>
   2417c:	9829      	ldr	r0, [sp, #164]	@ 0xa4
   2417e:	2802      	cmp	r0, #2
   24180:	d102      	bne.n	24188 <_ZN20complex_full_dynamic3app17hadb7aecdc786c303E+0x50>
   24182:	992a      	ldr	r1, [sp, #168]	@ 0xa8
   24184:	4a29      	ldr	r2, [pc, #164]	@ (2422c <_ZN20complex_full_dynamic3app17hadb7aecdc786c303E+0xf4>)
   24186:	e004      	b.n	24192 <_ZN20complex_full_dynamic3app17hadb7aecdc786c303E+0x5a>
   24188:	a907      	add	r1, sp, #28
   2418a:	720c      	strb	r4, [r1, #8]
   2418c:	9508      	str	r5, [sp, #32]
   2418e:	4a27      	ldr	r2, [pc, #156]	@ (2422c <_ZN20complex_full_dynamic3app17hadb7aecdc786c303E+0xf4>)
   24190:	9207      	str	r2, [sp, #28]
   24192:	2501      	movs	r5, #1
   24194:	2802      	cmp	r0, #2
   24196:	d02f      	beq.n	241f8 <_ZN20complex_full_dynamic3app17hadb7aecdc786c303E+0xc0>
   24198:	a81d      	add	r0, sp, #116	@ 0x74
   2419a:	7a00      	ldrb	r0, [r0, #8]
   2419c:	2802      	cmp	r0, #2
   2419e:	d10f      	bne.n	241c0 <_ZN20complex_full_dynamic3app17hadb7aecdc786c303E+0x88>
   241a0:	2603      	movs	r6, #3
   241a2:	9803      	ldr	r0, [sp, #12]
   241a4:	9000      	str	r0, [sp, #0]
   241a6:	9601      	str	r6, [sp, #4]
   241a8:	a829      	add	r0, sp, #164	@ 0xa4
   241aa:	2401      	movs	r4, #1
   241ac:	4611      	mov	r1, r2
   241ae:	4622      	mov	r2, r4
   241b0:	9b04      	ldr	r3, [sp, #16]
   241b2:	f004 ffe7 	bl	29184 <_ZN9allow_pin13dynamic_allow17h33d41317a2da4f1cE>
   241b6:	9829      	ldr	r0, [sp, #164]	@ 0xa4
   241b8:	2802      	cmp	r0, #2
   241ba:	d106      	bne.n	241ca <_ZN20complex_full_dynamic3app17hadb7aecdc786c303E+0x92>
   241bc:	992a      	ldr	r1, [sp, #168]	@ 0xa8
   241be:	e000      	b.n	241c2 <_ZN20complex_full_dynamic3app17hadb7aecdc786c303E+0x8a>
   241c0:	2103      	movs	r1, #3
   241c2:	4628      	mov	r0, r5
   241c4:	2800      	cmp	r0, #0
   241c6:	d008      	beq.n	241da <_ZN20complex_full_dynamic3app17hadb7aecdc786c303E+0xa2>
   241c8:	e016      	b.n	241f8 <_ZN20complex_full_dynamic3app17hadb7aecdc786c303E+0xc0>
   241ca:	a81d      	add	r0, sp, #116	@ 0x74
   241cc:	7206      	strb	r6, [r0, #8]
   241ce:	941e      	str	r4, [sp, #120]	@ 0x78
   241d0:	4816      	ldr	r0, [pc, #88]	@ (2422c <_ZN20complex_full_dynamic3app17hadb7aecdc786c303E+0xf4>)
   241d2:	901d      	str	r0, [sp, #116]	@ 0x74
   241d4:	2000      	movs	r0, #0
   241d6:	2800      	cmp	r0, #0
   241d8:	d10e      	bne.n	241f8 <_ZN20complex_full_dynamic3app17hadb7aecdc786c303E+0xc0>
   241da:	4814      	ldr	r0, [pc, #80]	@ (2422c <_ZN20complex_full_dynamic3app17hadb7aecdc786c303E+0xf4>)
   241dc:	2107      	movs	r1, #7
   241de:	2201      	movs	r2, #1
   241e0:	2400      	movs	r4, #0
   241e2:	4623      	mov	r3, r4
   241e4:	df02      	svc	2
   241e6:	287f      	cmp	r0, #127	@ 0x7f
   241e8:	d906      	bls.n	241f8 <_ZN20complex_full_dynamic3app17hadb7aecdc786c303E+0xc0>
   241ea:	a807      	add	r0, sp, #28
   241ec:	f004 ffb6 	bl	2915c <_ZN9allow_pin12full_dynamic17unshare_if_shared17h9f78cce76fd1eb6dE>
   241f0:	a81d      	add	r0, sp, #116	@ 0x74
   241f2:	f004 ffb3 	bl	2915c <_ZN9allow_pin12full_dynamic17unshare_if_shared17h9f78cce76fd1eb6dE>
   241f6:	4625      	mov	r5, r4
   241f8:	2d00      	cmp	r5, #0
   241fa:	d003      	beq.n	24204 <_ZN20complex_full_dynamic3app17hadb7aecdc786c303E+0xcc>
   241fc:	9c06      	ldr	r4, [sp, #24]
   241fe:	6061      	str	r1, [r4, #4]
   24200:	2001      	movs	r0, #1
   24202:	e009      	b.n	24218 <_ZN20complex_full_dynamic3app17hadb7aecdc786c303E+0xe0>
   24204:	a81d      	add	r0, sp, #116	@ 0x74
   24206:	f004 ffa9 	bl	2915c <_ZN9allow_pin12full_dynamic17unshare_if_shared17h9f78cce76fd1eb6dE>
   2420a:	9c06      	ldr	r4, [sp, #24]
   2420c:	1c60      	adds	r0, r4, #1
   2420e:	2223      	movs	r2, #35	@ 0x23
   24210:	9904      	ldr	r1, [sp, #16]
   24212:	f005 f97c 	bl	2950e <__aeabi_memcpy>
   24216:	2000      	movs	r0, #0
   24218:	7020      	strb	r0, [r4, #0]
   2421a:	a81d      	add	r0, sp, #116	@ 0x74
   2421c:	f004 ff9e 	bl	2915c <_ZN9allow_pin12full_dynamic17unshare_if_shared17h9f78cce76fd1eb6dE>
   24220:	a807      	add	r0, sp, #28
   24222:	f004 ff9b 	bl	2915c <_ZN9allow_pin12full_dynamic17unshare_if_shared17h9f78cce76fd1eb6dE>
   24226:	b02d      	add	sp, #180	@ 0xb4
   24228:	bdf0      	pop	{r4, r5, r6, r7, pc}
   2422a:	46c0      	nop			@ (mov r8, r8)
   2422c:	00001551 	.word	0x00001551

00024230 <_ZN20complex_full_dynamic3app17hae476868ded178feE>:
   24230:	b5f0      	push	{r4, r5, r6, r7, lr}
   24232:	af03      	add	r7, sp, #12
   24234:	b0a7      	sub	sp, #156	@ 0x9c
   24236:	9004      	str	r0, [sp, #16]
   24238:	ac06      	add	r4, sp, #24
   2423a:	2602      	movs	r6, #2
   2423c:	7226      	strb	r6, [r4, #8]
   2423e:	340c      	adds	r4, #12
   24240:	2541      	movs	r5, #65	@ 0x41
   24242:	4620      	mov	r0, r4
   24244:	462a      	mov	r2, r5
   24246:	f005 f962 	bl	2950e <__aeabi_memcpy>
   2424a:	a81a      	add	r0, sp, #104	@ 0x68
   2424c:	9005      	str	r0, [sp, #20]
   2424e:	7206      	strb	r6, [r0, #8]
   24250:	2600      	movs	r6, #0
   24252:	9622      	str	r6, [sp, #136]	@ 0x88
   24254:	9621      	str	r6, [sp, #132]	@ 0x84
   24256:	9620      	str	r6, [sp, #128]	@ 0x80
   24258:	961f      	str	r6, [sp, #124]	@ 0x7c
   2425a:	961e      	str	r6, [sp, #120]	@ 0x78
   2425c:	961d      	str	r6, [sp, #116]	@ 0x74
   2425e:	2004      	movs	r0, #4
   24260:	9500      	str	r5, [sp, #0]
   24262:	9003      	str	r0, [sp, #12]
   24264:	9001      	str	r0, [sp, #4]
   24266:	a823      	add	r0, sp, #140	@ 0x8c
   24268:	4931      	ldr	r1, [pc, #196]	@ (24330 <_ZN20complex_full_dynamic3app17hae476868ded178feE+0x100>)
   2426a:	2501      	movs	r5, #1
   2426c:	462a      	mov	r2, r5
   2426e:	4623      	mov	r3, r4
   24270:	f004 ff88 	bl	29184 <_ZN9allow_pin13dynamic_allow17h33d41317a2da4f1cE>
   24274:	9823      	ldr	r0, [sp, #140]	@ 0x8c
   24276:	2802      	cmp	r0, #2
   24278:	d102      	bne.n	24280 <_ZN20complex_full_dynamic3app17hae476868ded178feE+0x50>
   2427a:	9924      	ldr	r1, [sp, #144]	@ 0x90
   2427c:	4b2c      	ldr	r3, [pc, #176]	@ (24330 <_ZN20complex_full_dynamic3app17hae476868ded178feE+0x100>)
   2427e:	e005      	b.n	2428c <_ZN20complex_full_dynamic3app17hae476868ded178feE+0x5c>
   24280:	a906      	add	r1, sp, #24
   24282:	9a03      	ldr	r2, [sp, #12]
   24284:	720a      	strb	r2, [r1, #8]
   24286:	9507      	str	r5, [sp, #28]
   24288:	4b29      	ldr	r3, [pc, #164]	@ (24330 <_ZN20complex_full_dynamic3app17hae476868ded178feE+0x100>)
   2428a:	9306      	str	r3, [sp, #24]
   2428c:	9a05      	ldr	r2, [sp, #20]
   2428e:	320c      	adds	r2, #12
   24290:	9205      	str	r2, [sp, #20]
   24292:	2802      	cmp	r0, #2
   24294:	d033      	beq.n	242fe <_ZN20complex_full_dynamic3app17hae476868ded178feE+0xce>
   24296:	a81a      	add	r0, sp, #104	@ 0x68
   24298:	7a00      	ldrb	r0, [r0, #8]
   2429a:	2802      	cmp	r0, #2
   2429c:	d113      	bne.n	242c6 <_ZN20complex_full_dynamic3app17hae476868ded178feE+0x96>
   2429e:	9503      	str	r5, [sp, #12]
   242a0:	2103      	movs	r1, #3
   242a2:	2018      	movs	r0, #24
   242a4:	9000      	str	r0, [sp, #0]
   242a6:	9102      	str	r1, [sp, #8]
   242a8:	9101      	str	r1, [sp, #4]
   242aa:	a823      	add	r0, sp, #140	@ 0x8c
   242ac:	2409      	movs	r4, #9
   242ae:	4619      	mov	r1, r3
   242b0:	4622      	mov	r2, r4
   242b2:	461d      	mov	r5, r3
   242b4:	9b05      	ldr	r3, [sp, #20]
   242b6:	f004 ff65 	bl	29184 <_ZN9allow_pin13dynamic_allow17h33d41317a2da4f1cE>
   242ba:	9823      	ldr	r0, [sp, #140]	@ 0x8c
   242bc:	2802      	cmp	r0, #2
   242be:	d107      	bne.n	242d0 <_ZN20complex_full_dynamic3app17hae476868ded178feE+0xa0>
   242c0:	9924      	ldr	r1, [sp, #144]	@ 0x90
   242c2:	9d03      	ldr	r5, [sp, #12]
   242c4:	e000      	b.n	242c8 <_ZN20complex_full_dynamic3app17hae476868ded178feE+0x98>
   242c6:	2103      	movs	r1, #3
   242c8:	462e      	mov	r6, r5
   242ca:	2e00      	cmp	r6, #0
   242cc:	d008      	beq.n	242e0 <_ZN20complex_full_dynamic3app17hae476868ded178feE+0xb0>
   242ce:	e016      	b.n	242fe <_ZN20complex_full_dynamic3app17hae476868ded178feE+0xce>
   242d0:	a81a      	add	r0, sp, #104	@ 0x68
   242d2:	9902      	ldr	r1, [sp, #8]
   242d4:	7201      	strb	r1, [r0, #8]
   242d6:	941b      	str	r4, [sp, #108]	@ 0x6c
   242d8:	951a      	str	r5, [sp, #104]	@ 0x68
   242da:	9d03      	ldr	r5, [sp, #12]
   242dc:	2e00      	cmp	r6, #0
   242de:	d10e      	bne.n	242fe <_ZN20complex_full_dynamic3app17hae476868ded178feE+0xce>
   242e0:	4813      	ldr	r0, [pc, #76]	@ (24330 <_ZN20complex_full_dynamic3app17hae476868ded178feE+0x100>)
   242e2:	2101      	movs	r1, #1
   242e4:	2209      	movs	r2, #9
   242e6:	2400      	movs	r4, #0
   242e8:	4623      	mov	r3, r4
   242ea:	df02      	svc	2
   242ec:	287f      	cmp	r0, #127	@ 0x7f
   242ee:	d906      	bls.n	242fe <_ZN20complex_full_dynamic3app17hae476868ded178feE+0xce>
   242f0:	a806      	add	r0, sp, #24
   242f2:	f004 ff33 	bl	2915c <_ZN9allow_pin12full_dynamic17unshare_if_shared17h9f78cce76fd1eb6dE>
   242f6:	a81a      	add	r0, sp, #104	@ 0x68
   242f8:	f004 ff30 	bl	2915c <_ZN9allow_pin12full_dynamic17unshare_if_shared17h9f78cce76fd1eb6dE>
   242fc:	4625      	mov	r5, r4
   242fe:	2d00      	cmp	r5, #0
   24300:	d003      	beq.n	2430a <_ZN20complex_full_dynamic3app17hae476868ded178feE+0xda>
   24302:	9c04      	ldr	r4, [sp, #16]
   24304:	6061      	str	r1, [r4, #4]
   24306:	2001      	movs	r0, #1
   24308:	e009      	b.n	2431e <_ZN20complex_full_dynamic3app17hae476868ded178feE+0xee>
   2430a:	a81a      	add	r0, sp, #104	@ 0x68
   2430c:	f004 ff26 	bl	2915c <_ZN9allow_pin12full_dynamic17unshare_if_shared17h9f78cce76fd1eb6dE>
   24310:	9c04      	ldr	r4, [sp, #16]
   24312:	1c60      	adds	r0, r4, #1
   24314:	2218      	movs	r2, #24
   24316:	9905      	ldr	r1, [sp, #20]
   24318:	f005 f8f9 	bl	2950e <__aeabi_memcpy>
   2431c:	2000      	movs	r0, #0
   2431e:	7020      	strb	r0, [r4, #0]
   24320:	a81a      	add	r0, sp, #104	@ 0x68
   24322:	f004 ff1b 	bl	2915c <_ZN9allow_pin12full_dynamic17unshare_if_shared17h9f78cce76fd1eb6dE>
   24326:	a806      	add	r0, sp, #24
   24328:	f004 ff18 	bl	2915c <_ZN9allow_pin12full_dynamic17unshare_if_shared17h9f78cce76fd1eb6dE>
   2432c:	b027      	add	sp, #156	@ 0x9c
   2432e:	bdf0      	pop	{r4, r5, r6, r7, pc}
   24330:	00002156 	.word	0x00002156

00024334 <_ZN20complex_full_dynamic3app17hb8c1ba39999c01bbE>:
   24334:	b5f0      	push	{r4, r5, r6, r7, lr}
   24336:	af03      	add	r7, sp, #12
   24338:	b0af      	sub	sp, #188	@ 0xbc
   2433a:	9006      	str	r0, [sp, #24]
   2433c:	ae07      	add	r6, sp, #28
   2433e:	2002      	movs	r0, #2
   24340:	9005      	str	r0, [sp, #20]
   24342:	7230      	strb	r0, [r6, #8]
   24344:	360c      	adds	r6, #12
   24346:	2532      	movs	r5, #50	@ 0x32
   24348:	4630      	mov	r0, r6
   2434a:	462a      	mov	r2, r5
   2434c:	f005 f8df 	bl	2950e <__aeabi_memcpy>
   24350:	ac17      	add	r4, sp, #92	@ 0x5c
   24352:	4620      	mov	r0, r4
   24354:	300c      	adds	r0, #12
   24356:	2141      	movs	r1, #65	@ 0x41
   24358:	9004      	str	r0, [sp, #16]
   2435a:	9103      	str	r1, [sp, #12]
   2435c:	f004 ff2a 	bl	291b4 <__aeabi_memclr4>
   24360:	9805      	ldr	r0, [sp, #20]
   24362:	7220      	strb	r0, [r4, #8]
   24364:	2404      	movs	r4, #4
   24366:	9500      	str	r5, [sp, #0]
   24368:	9401      	str	r4, [sp, #4]
   2436a:	a82b      	add	r0, sp, #172	@ 0xac
   2436c:	492e      	ldr	r1, [pc, #184]	@ (24428 <_ZN20complex_full_dynamic3app17hb8c1ba39999c01bbE+0xf4>)
   2436e:	2507      	movs	r5, #7
   24370:	462a      	mov	r2, r5
   24372:	4633      	mov	r3, r6
   24374:	f004 ff06 	bl	29184 <_ZN9allow_pin13dynamic_allow17h33d41317a2da4f1cE>
   24378:	982b      	ldr	r0, [sp, #172]	@ 0xac
   2437a:	2802      	cmp	r0, #2
   2437c:	d102      	bne.n	24384 <_ZN20complex_full_dynamic3app17hb8c1ba39999c01bbE+0x50>
   2437e:	992c      	ldr	r1, [sp, #176]	@ 0xb0
   24380:	4a29      	ldr	r2, [pc, #164]	@ (24428 <_ZN20complex_full_dynamic3app17hb8c1ba39999c01bbE+0xf4>)
   24382:	e004      	b.n	2438e <_ZN20complex_full_dynamic3app17hb8c1ba39999c01bbE+0x5a>
   24384:	a907      	add	r1, sp, #28
   24386:	720c      	strb	r4, [r1, #8]
   24388:	9508      	str	r5, [sp, #32]
   2438a:	4a27      	ldr	r2, [pc, #156]	@ (24428 <_ZN20complex_full_dynamic3app17hb8c1ba39999c01bbE+0xf4>)
   2438c:	9207      	str	r2, [sp, #28]
   2438e:	2501      	movs	r5, #1
   24390:	2802      	cmp	r0, #2
   24392:	d02f      	beq.n	243f4 <_ZN20complex_full_dynamic3app17hb8c1ba39999c01bbE+0xc0>
   24394:	a817      	add	r0, sp, #92	@ 0x5c
   24396:	7a00      	ldrb	r0, [r0, #8]
   24398:	2802      	cmp	r0, #2
   2439a:	d10f      	bne.n	243bc <_ZN20complex_full_dynamic3app17hb8c1ba39999c01bbE+0x88>
   2439c:	2603      	movs	r6, #3
   2439e:	9803      	ldr	r0, [sp, #12]
   243a0:	9000      	str	r0, [sp, #0]
   243a2:	9601      	str	r6, [sp, #4]
   243a4:	a82b      	add	r0, sp, #172	@ 0xac
   243a6:	2405      	movs	r4, #5
   243a8:	4611      	mov	r1, r2
   243aa:	4622      	mov	r2, r4
   243ac:	9b04      	ldr	r3, [sp, #16]
   243ae:	f004 fee9 	bl	29184 <_ZN9allow_pin13dynamic_allow17h33d41317a2da4f1cE>
   243b2:	982b      	ldr	r0, [sp, #172]	@ 0xac
   243b4:	2802      	cmp	r0, #2
   243b6:	d106      	bne.n	243c6 <_ZN20complex_full_dynamic3app17hb8c1ba39999c01bbE+0x92>
   243b8:	992c      	ldr	r1, [sp, #176]	@ 0xb0
   243ba:	e000      	b.n	243be <_ZN20complex_full_dynamic3app17hb8c1ba39999c01bbE+0x8a>
   243bc:	2103      	movs	r1, #3
   243be:	4628      	mov	r0, r5
   243c0:	2800      	cmp	r0, #0
   243c2:	d008      	beq.n	243d6 <_ZN20complex_full_dynamic3app17hb8c1ba39999c01bbE+0xa2>
   243c4:	e016      	b.n	243f4 <_ZN20complex_full_dynamic3app17hb8c1ba39999c01bbE+0xc0>
   243c6:	a817      	add	r0, sp, #92	@ 0x5c
   243c8:	7206      	strb	r6, [r0, #8]
   243ca:	9418      	str	r4, [sp, #96]	@ 0x60
   243cc:	4816      	ldr	r0, [pc, #88]	@ (24428 <_ZN20complex_full_dynamic3app17hb8c1ba39999c01bbE+0xf4>)
   243ce:	9017      	str	r0, [sp, #92]	@ 0x5c
   243d0:	2000      	movs	r0, #0
   243d2:	2800      	cmp	r0, #0
   243d4:	d10e      	bne.n	243f4 <_ZN20complex_full_dynamic3app17hb8c1ba39999c01bbE+0xc0>
   243d6:	4814      	ldr	r0, [pc, #80]	@ (24428 <_ZN20complex_full_dynamic3app17hb8c1ba39999c01bbE+0xf4>)
   243d8:	2107      	movs	r1, #7
   243da:	2205      	movs	r2, #5
   243dc:	2400      	movs	r4, #0
   243de:	4623      	mov	r3, r4
   243e0:	df02      	svc	2
   243e2:	287f      	cmp	r0, #127	@ 0x7f
   243e4:	d906      	bls.n	243f4 <_ZN20complex_full_dynamic3app17hb8c1ba39999c01bbE+0xc0>
   243e6:	a807      	add	r0, sp, #28
   243e8:	f004 feb8 	bl	2915c <_ZN9allow_pin12full_dynamic17unshare_if_shared17h9f78cce76fd1eb6dE>
   243ec:	a817      	add	r0, sp, #92	@ 0x5c
   243ee:	f004 feb5 	bl	2915c <_ZN9allow_pin12full_dynamic17unshare_if_shared17h9f78cce76fd1eb6dE>
   243f2:	4625      	mov	r5, r4
   243f4:	2d00      	cmp	r5, #0
   243f6:	d003      	beq.n	24400 <_ZN20complex_full_dynamic3app17hb8c1ba39999c01bbE+0xcc>
   243f8:	9c06      	ldr	r4, [sp, #24]
   243fa:	6061      	str	r1, [r4, #4]
   243fc:	2001      	movs	r0, #1
   243fe:	e009      	b.n	24414 <_ZN20complex_full_dynamic3app17hb8c1ba39999c01bbE+0xe0>
   24400:	a817      	add	r0, sp, #92	@ 0x5c
   24402:	f004 feab 	bl	2915c <_ZN9allow_pin12full_dynamic17unshare_if_shared17h9f78cce76fd1eb6dE>
   24406:	9c06      	ldr	r4, [sp, #24]
   24408:	1c60      	adds	r0, r4, #1
   2440a:	2241      	movs	r2, #65	@ 0x41
   2440c:	9904      	ldr	r1, [sp, #16]
   2440e:	f005 f87e 	bl	2950e <__aeabi_memcpy>
   24412:	2000      	movs	r0, #0
   24414:	7020      	strb	r0, [r4, #0]
   24416:	a817      	add	r0, sp, #92	@ 0x5c
   24418:	f004 fea0 	bl	2915c <_ZN9allow_pin12full_dynamic17unshare_if_shared17h9f78cce76fd1eb6dE>
   2441c:	a807      	add	r0, sp, #28
   2441e:	f004 fe9d 	bl	2915c <_ZN9allow_pin12full_dynamic17unshare_if_shared17h9f78cce76fd1eb6dE>
   24422:	b02f      	add	sp, #188	@ 0xbc
   24424:	bdf0      	pop	{r4, r5, r6, r7, pc}
   24426:	46c0      	nop			@ (mov r8, r8)
   24428:	0000091d 	.word	0x0000091d

0002442c <_ZN20complex_full_dynamic3app17hb96cdb9b7840b10dE>:
   2442c:	b5f0      	push	{r4, r5, r6, r7, lr}
   2442e:	af03      	add	r7, sp, #12
   24430:	b0ab      	sub	sp, #172	@ 0xac
   24432:	9005      	str	r0, [sp, #20]
   24434:	ac06      	add	r4, sp, #24
   24436:	2502      	movs	r5, #2
   24438:	7225      	strb	r5, [r4, #8]
   2443a:	340c      	adds	r4, #12
   2443c:	2250      	movs	r2, #80	@ 0x50
   2443e:	9204      	str	r2, [sp, #16]
   24440:	4620      	mov	r0, r4
   24442:	f005 f864 	bl	2950e <__aeabi_memcpy>
   24446:	a81d      	add	r0, sp, #116	@ 0x74
   24448:	4601      	mov	r1, r0
   2444a:	310c      	adds	r1, #12
   2444c:	2600      	movs	r6, #0
   2444e:	9103      	str	r1, [sp, #12]
   24450:	768e      	strb	r6, [r1, #26]
   24452:	8486      	strh	r6, [r0, #36]	@ 0x24
   24454:	7205      	strb	r5, [r0, #8]
   24456:	9625      	str	r6, [sp, #148]	@ 0x94
   24458:	9624      	str	r6, [sp, #144]	@ 0x90
   2445a:	9623      	str	r6, [sp, #140]	@ 0x8c
   2445c:	9622      	str	r6, [sp, #136]	@ 0x88
   2445e:	9621      	str	r6, [sp, #132]	@ 0x84
   24460:	9620      	str	r6, [sp, #128]	@ 0x80
   24462:	2004      	movs	r0, #4
   24464:	9904      	ldr	r1, [sp, #16]
   24466:	9100      	str	r1, [sp, #0]
   24468:	9004      	str	r0, [sp, #16]
   2446a:	9001      	str	r0, [sp, #4]
   2446c:	a827      	add	r0, sp, #156	@ 0x9c
   2446e:	4931      	ldr	r1, [pc, #196]	@ (24534 <_ZN20complex_full_dynamic3app17hb96cdb9b7840b10dE+0x108>)
   24470:	2501      	movs	r5, #1
   24472:	462a      	mov	r2, r5
   24474:	4623      	mov	r3, r4
   24476:	f004 fe85 	bl	29184 <_ZN9allow_pin13dynamic_allow17h33d41317a2da4f1cE>
   2447a:	9827      	ldr	r0, [sp, #156]	@ 0x9c
   2447c:	2802      	cmp	r0, #2
   2447e:	d104      	bne.n	2448a <_ZN20complex_full_dynamic3app17hb96cdb9b7840b10dE+0x5e>
   24480:	9928      	ldr	r1, [sp, #160]	@ 0xa0
   24482:	4a2c      	ldr	r2, [pc, #176]	@ (24534 <_ZN20complex_full_dynamic3app17hb96cdb9b7840b10dE+0x108>)
   24484:	2802      	cmp	r0, #2
   24486:	d108      	bne.n	2449a <_ZN20complex_full_dynamic3app17hb96cdb9b7840b10dE+0x6e>
   24488:	e03b      	b.n	24502 <_ZN20complex_full_dynamic3app17hb96cdb9b7840b10dE+0xd6>
   2448a:	a906      	add	r1, sp, #24
   2448c:	9a04      	ldr	r2, [sp, #16]
   2448e:	720a      	strb	r2, [r1, #8]
   24490:	9507      	str	r5, [sp, #28]
   24492:	4a28      	ldr	r2, [pc, #160]	@ (24534 <_ZN20complex_full_dynamic3app17hb96cdb9b7840b10dE+0x108>)
   24494:	9206      	str	r2, [sp, #24]
   24496:	2802      	cmp	r0, #2
   24498:	d033      	beq.n	24502 <_ZN20complex_full_dynamic3app17hb96cdb9b7840b10dE+0xd6>
   2449a:	a81d      	add	r0, sp, #116	@ 0x74
   2449c:	7a00      	ldrb	r0, [r0, #8]
   2449e:	2802      	cmp	r0, #2
   244a0:	d113      	bne.n	244ca <_ZN20complex_full_dynamic3app17hb96cdb9b7840b10dE+0x9e>
   244a2:	9504      	str	r5, [sp, #16]
   244a4:	2103      	movs	r1, #3
   244a6:	201b      	movs	r0, #27
   244a8:	9000      	str	r0, [sp, #0]
   244aa:	9102      	str	r1, [sp, #8]
   244ac:	9101      	str	r1, [sp, #4]
   244ae:	a827      	add	r0, sp, #156	@ 0x9c
   244b0:	2402      	movs	r4, #2
   244b2:	4611      	mov	r1, r2
   244b4:	4615      	mov	r5, r2
   244b6:	4622      	mov	r2, r4
   244b8:	9b03      	ldr	r3, [sp, #12]
   244ba:	f004 fe63 	bl	29184 <_ZN9allow_pin13dynamic_allow17h33d41317a2da4f1cE>
   244be:	9827      	ldr	r0, [sp, #156]	@ 0x9c
   244c0:	2802      	cmp	r0, #2
   244c2:	d107      	bne.n	244d4 <_ZN20complex_full_dynamic3app17hb96cdb9b7840b10dE+0xa8>
   244c4:	9928      	ldr	r1, [sp, #160]	@ 0xa0
   244c6:	9d04      	ldr	r5, [sp, #16]
   244c8:	e000      	b.n	244cc <_ZN20complex_full_dynamic3app17hb96cdb9b7840b10dE+0xa0>
   244ca:	2103      	movs	r1, #3
   244cc:	462e      	mov	r6, r5
   244ce:	2e00      	cmp	r6, #0
   244d0:	d008      	beq.n	244e4 <_ZN20complex_full_dynamic3app17hb96cdb9b7840b10dE+0xb8>
   244d2:	e016      	b.n	24502 <_ZN20complex_full_dynamic3app17hb96cdb9b7840b10dE+0xd6>
   244d4:	a81d      	add	r0, sp, #116	@ 0x74
   244d6:	9902      	ldr	r1, [sp, #8]
   244d8:	7201      	strb	r1, [r0, #8]
   244da:	941e      	str	r4, [sp, #120]	@ 0x78
   244dc:	951d      	str	r5, [sp, #116]	@ 0x74
   244de:	9d04      	ldr	r5, [sp, #16]
   244e0:	2e00      	cmp	r6, #0
   244e2:	d10e      	bne.n	24502 <_ZN20complex_full_dynamic3app17hb96cdb9b7840b10dE+0xd6>
   244e4:	4813      	ldr	r0, [pc, #76]	@ (24534 <_ZN20complex_full_dynamic3app17hb96cdb9b7840b10dE+0x108>)
   244e6:	2101      	movs	r1, #1
   244e8:	2202      	movs	r2, #2
   244ea:	2400      	movs	r4, #0
   244ec:	4623      	mov	r3, r4
   244ee:	df02      	svc	2
   244f0:	287f      	cmp	r0, #127	@ 0x7f
   244f2:	d906      	bls.n	24502 <_ZN20complex_full_dynamic3app17hb96cdb9b7840b10dE+0xd6>
   244f4:	a806      	add	r0, sp, #24
   244f6:	f004 fe31 	bl	2915c <_ZN9allow_pin12full_dynamic17unshare_if_shared17h9f78cce76fd1eb6dE>
   244fa:	a81d      	add	r0, sp, #116	@ 0x74
   244fc:	f004 fe2e 	bl	2915c <_ZN9allow_pin12full_dynamic17unshare_if_shared17h9f78cce76fd1eb6dE>
   24500:	4625      	mov	r5, r4
   24502:	2d00      	cmp	r5, #0
   24504:	d003      	beq.n	2450e <_ZN20complex_full_dynamic3app17hb96cdb9b7840b10dE+0xe2>
   24506:	9c05      	ldr	r4, [sp, #20]
   24508:	6061      	str	r1, [r4, #4]
   2450a:	2001      	movs	r0, #1
   2450c:	e009      	b.n	24522 <_ZN20complex_full_dynamic3app17hb96cdb9b7840b10dE+0xf6>
   2450e:	a81d      	add	r0, sp, #116	@ 0x74
   24510:	f004 fe24 	bl	2915c <_ZN9allow_pin12full_dynamic17unshare_if_shared17h9f78cce76fd1eb6dE>
   24514:	9c05      	ldr	r4, [sp, #20]
   24516:	1c60      	adds	r0, r4, #1
   24518:	221b      	movs	r2, #27
   2451a:	9903      	ldr	r1, [sp, #12]
   2451c:	f004 fff7 	bl	2950e <__aeabi_memcpy>
   24520:	2000      	movs	r0, #0
   24522:	7020      	strb	r0, [r4, #0]
   24524:	a81d      	add	r0, sp, #116	@ 0x74
   24526:	f004 fe19 	bl	2915c <_ZN9allow_pin12full_dynamic17unshare_if_shared17h9f78cce76fd1eb6dE>
   2452a:	a806      	add	r0, sp, #24
   2452c:	f004 fe16 	bl	2915c <_ZN9allow_pin12full_dynamic17unshare_if_shared17h9f78cce76fd1eb6dE>
   24530:	b02b      	add	sp, #172	@ 0xac
   24532:	bdf0      	pop	{r4, r5, r6, r7, pc}
   24534:	000003d9 	.word	0x000003d9

00024538 <_ZN20complex_full_dynamic3app17hbd44f69168cb66b5E>:
   24538:	b5f0      	push	{r4, r5, r6, r7, lr}
   2453a:	af03      	add	r7, sp, #12
   2453c:	b0a3      	sub	sp, #140	@ 0x8c
   2453e:	9005      	str	r0, [sp, #20]
   24540:	ae06      	add	r6, sp, #24
   24542:	2002      	movs	r0, #2
   24544:	9004      	str	r0, [sp, #16]
   24546:	7230      	strb	r0, [r6, #8]
   24548:	360c      	adds	r6, #12
   2454a:	251e      	movs	r5, #30
   2454c:	4630      	mov	r0, r6
   2454e:	462a      	mov	r2, r5
   24550:	f004 ffdd 	bl	2950e <__aeabi_memcpy>
   24554:	ac11      	add	r4, sp, #68	@ 0x44
   24556:	4620      	mov	r0, r4
   24558:	300c      	adds	r0, #12
   2455a:	212c      	movs	r1, #44	@ 0x2c
   2455c:	9003      	str	r0, [sp, #12]
   2455e:	9102      	str	r1, [sp, #8]
   24560:	f004 fe28 	bl	291b4 <__aeabi_memclr4>
   24564:	9804      	ldr	r0, [sp, #16]
   24566:	7220      	strb	r0, [r4, #8]
   24568:	2404      	movs	r4, #4
   2456a:	9500      	str	r5, [sp, #0]
   2456c:	9401      	str	r4, [sp, #4]
   2456e:	a81f      	add	r0, sp, #124	@ 0x7c
   24570:	492d      	ldr	r1, [pc, #180]	@ (24628 <_ZN20complex_full_dynamic3app17hbd44f69168cb66b5E+0xf0>)
   24572:	2507      	movs	r5, #7
   24574:	462a      	mov	r2, r5
   24576:	4633      	mov	r3, r6
   24578:	f004 fe04 	bl	29184 <_ZN9allow_pin13dynamic_allow17h33d41317a2da4f1cE>
   2457c:	981f      	ldr	r0, [sp, #124]	@ 0x7c
   2457e:	2802      	cmp	r0, #2
   24580:	d102      	bne.n	24588 <_ZN20complex_full_dynamic3app17hbd44f69168cb66b5E+0x50>
   24582:	9920      	ldr	r1, [sp, #128]	@ 0x80
   24584:	4a28      	ldr	r2, [pc, #160]	@ (24628 <_ZN20complex_full_dynamic3app17hbd44f69168cb66b5E+0xf0>)
   24586:	e004      	b.n	24592 <_ZN20complex_full_dynamic3app17hbd44f69168cb66b5E+0x5a>
   24588:	a906      	add	r1, sp, #24
   2458a:	720c      	strb	r4, [r1, #8]
   2458c:	9507      	str	r5, [sp, #28]
   2458e:	4a26      	ldr	r2, [pc, #152]	@ (24628 <_ZN20complex_full_dynamic3app17hbd44f69168cb66b5E+0xf0>)
   24590:	9206      	str	r2, [sp, #24]
   24592:	2501      	movs	r5, #1
   24594:	2802      	cmp	r0, #2
   24596:	d02e      	beq.n	245f6 <_ZN20complex_full_dynamic3app17hbd44f69168cb66b5E+0xbe>
   24598:	a811      	add	r0, sp, #68	@ 0x44
   2459a:	7a00      	ldrb	r0, [r0, #8]
   2459c:	2802      	cmp	r0, #2
   2459e:	d10f      	bne.n	245c0 <_ZN20complex_full_dynamic3app17hbd44f69168cb66b5E+0x88>
   245a0:	2603      	movs	r6, #3
   245a2:	9802      	ldr	r0, [sp, #8]
   245a4:	9000      	str	r0, [sp, #0]
   245a6:	9601      	str	r6, [sp, #4]
   245a8:	a81f      	add	r0, sp, #124	@ 0x7c
   245aa:	2400      	movs	r4, #0
   245ac:	4611      	mov	r1, r2
   245ae:	4622      	mov	r2, r4
   245b0:	9b03      	ldr	r3, [sp, #12]
   245b2:	f004 fde7 	bl	29184 <_ZN9allow_pin13dynamic_allow17h33d41317a2da4f1cE>
   245b6:	981f      	ldr	r0, [sp, #124]	@ 0x7c
   245b8:	2802      	cmp	r0, #2
   245ba:	d106      	bne.n	245ca <_ZN20complex_full_dynamic3app17hbd44f69168cb66b5E+0x92>
   245bc:	9920      	ldr	r1, [sp, #128]	@ 0x80
   245be:	e000      	b.n	245c2 <_ZN20complex_full_dynamic3app17hbd44f69168cb66b5E+0x8a>
   245c0:	2103      	movs	r1, #3
   245c2:	462c      	mov	r4, r5
   245c4:	2c00      	cmp	r4, #0
   245c6:	d007      	beq.n	245d8 <_ZN20complex_full_dynamic3app17hbd44f69168cb66b5E+0xa0>
   245c8:	e015      	b.n	245f6 <_ZN20complex_full_dynamic3app17hbd44f69168cb66b5E+0xbe>
   245ca:	a811      	add	r0, sp, #68	@ 0x44
   245cc:	7206      	strb	r6, [r0, #8]
   245ce:	9412      	str	r4, [sp, #72]	@ 0x48
   245d0:	4815      	ldr	r0, [pc, #84]	@ (24628 <_ZN20complex_full_dynamic3app17hbd44f69168cb66b5E+0xf0>)
   245d2:	9011      	str	r0, [sp, #68]	@ 0x44
   245d4:	2c00      	cmp	r4, #0
   245d6:	d10e      	bne.n	245f6 <_ZN20complex_full_dynamic3app17hbd44f69168cb66b5E+0xbe>
   245d8:	4813      	ldr	r0, [pc, #76]	@ (24628 <_ZN20complex_full_dynamic3app17hbd44f69168cb66b5E+0xf0>)
   245da:	2107      	movs	r1, #7
   245dc:	2400      	movs	r4, #0
   245de:	4622      	mov	r2, r4
   245e0:	4623      	mov	r3, r4
   245e2:	df02      	svc	2
   245e4:	287f      	cmp	r0, #127	@ 0x7f
   245e6:	d906      	bls.n	245f6 <_ZN20complex_full_dynamic3app17hbd44f69168cb66b5E+0xbe>
   245e8:	a806      	add	r0, sp, #24
   245ea:	f004 fdb7 	bl	2915c <_ZN9allow_pin12full_dynamic17unshare_if_shared17h9f78cce76fd1eb6dE>
   245ee:	a811      	add	r0, sp, #68	@ 0x44
   245f0:	f004 fdb4 	bl	2915c <_ZN9allow_pin12full_dynamic17unshare_if_shared17h9f78cce76fd1eb6dE>
   245f4:	4625      	mov	r5, r4
   245f6:	2d00      	cmp	r5, #0
   245f8:	d003      	beq.n	24602 <_ZN20complex_full_dynamic3app17hbd44f69168cb66b5E+0xca>
   245fa:	9c05      	ldr	r4, [sp, #20]
   245fc:	6061      	str	r1, [r4, #4]
   245fe:	2001      	movs	r0, #1
   24600:	e009      	b.n	24616 <_ZN20complex_full_dynamic3app17hbd44f69168cb66b5E+0xde>
   24602:	a811      	add	r0, sp, #68	@ 0x44
   24604:	f004 fdaa 	bl	2915c <_ZN9allow_pin12full_dynamic17unshare_if_shared17h9f78cce76fd1eb6dE>
   24608:	9c05      	ldr	r4, [sp, #20]
   2460a:	1c60      	adds	r0, r4, #1
   2460c:	222c      	movs	r2, #44	@ 0x2c
   2460e:	9903      	ldr	r1, [sp, #12]
   24610:	f004 ff7d 	bl	2950e <__aeabi_memcpy>
   24614:	2000      	movs	r0, #0
   24616:	7020      	strb	r0, [r4, #0]
   24618:	a811      	add	r0, sp, #68	@ 0x44
   2461a:	f004 fd9f 	bl	2915c <_ZN9allow_pin12full_dynamic17unshare_if_shared17h9f78cce76fd1eb6dE>
   2461e:	a806      	add	r0, sp, #24
   24620:	f004 fd9c 	bl	2915c <_ZN9allow_pin12full_dynamic17unshare_if_shared17h9f78cce76fd1eb6dE>
   24624:	b023      	add	sp, #140	@ 0x8c
   24626:	bdf0      	pop	{r4, r5, r6, r7, pc}
   24628:	000003fb 	.word	0x000003fb

0002462c <_ZN20complex_full_dynamic3app17hc357a54f461d88c7E>:
   2462c:	b5f0      	push	{r4, r5, r6, r7, lr}
   2462e:	af03      	add	r7, sp, #12
   24630:	b0a7      	sub	sp, #156	@ 0x9c
   24632:	9003      	str	r0, [sp, #12]
   24634:	ac04      	add	r4, sp, #16
   24636:	2502      	movs	r5, #2
   24638:	7225      	strb	r5, [r4, #8]
   2463a:	340c      	adds	r4, #12
   2463c:	2251      	movs	r2, #81	@ 0x51
   2463e:	9202      	str	r2, [sp, #8]
   24640:	4620      	mov	r0, r4
   24642:	f004 ff64 	bl	2950e <__aeabi_memcpy>
   24646:	a81c      	add	r0, sp, #112	@ 0x70
   24648:	2600      	movs	r6, #0
   2464a:	7686      	strb	r6, [r0, #26]
   2464c:	8306      	strh	r6, [r0, #24]
   2464e:	7205      	strb	r5, [r0, #8]
   24650:	4605      	mov	r5, r0
   24652:	9621      	str	r6, [sp, #132]	@ 0x84
   24654:	9620      	str	r6, [sp, #128]	@ 0x80
   24656:	961f      	str	r6, [sp, #124]	@ 0x7c
   24658:	2004      	movs	r0, #4
   2465a:	9902      	ldr	r1, [sp, #8]
   2465c:	9100      	str	r1, [sp, #0]
   2465e:	9002      	str	r0, [sp, #8]
   24660:	9001      	str	r0, [sp, #4]
   24662:	a823      	add	r0, sp, #140	@ 0x8c
   24664:	492e      	ldr	r1, [pc, #184]	@ (24720 <_ZN20complex_full_dynamic3app17hc357a54f461d88c7E+0xf4>)
   24666:	4632      	mov	r2, r6
   24668:	4623      	mov	r3, r4
   2466a:	f004 fd8b 	bl	29184 <_ZN9allow_pin13dynamic_allow17h33d41317a2da4f1cE>
   2466e:	9823      	ldr	r0, [sp, #140]	@ 0x8c
   24670:	2802      	cmp	r0, #2
   24672:	d102      	bne.n	2467a <_ZN20complex_full_dynamic3app17hc357a54f461d88c7E+0x4e>
   24674:	9924      	ldr	r1, [sp, #144]	@ 0x90
   24676:	4a2a      	ldr	r2, [pc, #168]	@ (24720 <_ZN20complex_full_dynamic3app17hc357a54f461d88c7E+0xf4>)
   24678:	e005      	b.n	24686 <_ZN20complex_full_dynamic3app17hc357a54f461d88c7E+0x5a>
   2467a:	a904      	add	r1, sp, #16
   2467c:	9a02      	ldr	r2, [sp, #8]
   2467e:	720a      	strb	r2, [r1, #8]
   24680:	9605      	str	r6, [sp, #20]
   24682:	4a27      	ldr	r2, [pc, #156]	@ (24720 <_ZN20complex_full_dynamic3app17hc357a54f461d88c7E+0xf4>)
   24684:	9204      	str	r2, [sp, #16]
   24686:	350c      	adds	r5, #12
   24688:	9502      	str	r5, [sp, #8]
   2468a:	2501      	movs	r5, #1
   2468c:	2802      	cmp	r0, #2
   2468e:	d02d      	beq.n	246ec <_ZN20complex_full_dynamic3app17hc357a54f461d88c7E+0xc0>
   24690:	a81c      	add	r0, sp, #112	@ 0x70
   24692:	7a00      	ldrb	r0, [r0, #8]
   24694:	2802      	cmp	r0, #2
   24696:	d10e      	bne.n	246b6 <_ZN20complex_full_dynamic3app17hc357a54f461d88c7E+0x8a>
   24698:	2403      	movs	r4, #3
   2469a:	200f      	movs	r0, #15
   2469c:	9000      	str	r0, [sp, #0]
   2469e:	9401      	str	r4, [sp, #4]
   246a0:	a823      	add	r0, sp, #140	@ 0x8c
   246a2:	4611      	mov	r1, r2
   246a4:	4622      	mov	r2, r4
   246a6:	9b02      	ldr	r3, [sp, #8]
   246a8:	f004 fd6c 	bl	29184 <_ZN9allow_pin13dynamic_allow17h33d41317a2da4f1cE>
   246ac:	9823      	ldr	r0, [sp, #140]	@ 0x8c
   246ae:	2802      	cmp	r0, #2
   246b0:	d106      	bne.n	246c0 <_ZN20complex_full_dynamic3app17hc357a54f461d88c7E+0x94>
   246b2:	9924      	ldr	r1, [sp, #144]	@ 0x90
   246b4:	e000      	b.n	246b8 <_ZN20complex_full_dynamic3app17hc357a54f461d88c7E+0x8c>
   246b6:	2103      	movs	r1, #3
   246b8:	462e      	mov	r6, r5
   246ba:	2e00      	cmp	r6, #0
   246bc:	d007      	beq.n	246ce <_ZN20complex_full_dynamic3app17hc357a54f461d88c7E+0xa2>
   246be:	e015      	b.n	246ec <_ZN20complex_full_dynamic3app17hc357a54f461d88c7E+0xc0>
   246c0:	a81c      	add	r0, sp, #112	@ 0x70
   246c2:	7204      	strb	r4, [r0, #8]
   246c4:	941d      	str	r4, [sp, #116]	@ 0x74
   246c6:	4816      	ldr	r0, [pc, #88]	@ (24720 <_ZN20complex_full_dynamic3app17hc357a54f461d88c7E+0xf4>)
   246c8:	901c      	str	r0, [sp, #112]	@ 0x70
   246ca:	2e00      	cmp	r6, #0
   246cc:	d10e      	bne.n	246ec <_ZN20complex_full_dynamic3app17hc357a54f461d88c7E+0xc0>
   246ce:	4814      	ldr	r0, [pc, #80]	@ (24720 <_ZN20complex_full_dynamic3app17hc357a54f461d88c7E+0xf4>)
   246d0:	2203      	movs	r2, #3
   246d2:	2400      	movs	r4, #0
   246d4:	4621      	mov	r1, r4
   246d6:	4623      	mov	r3, r4
   246d8:	df02      	svc	2
   246da:	287f      	cmp	r0, #127	@ 0x7f
   246dc:	d906      	bls.n	246ec <_ZN20complex_full_dynamic3app17hc357a54f461d88c7E+0xc0>
   246de:	a804      	add	r0, sp, #16
   246e0:	f004 fd3c 	bl	2915c <_ZN9allow_pin12full_dynamic17unshare_if_shared17h9f78cce76fd1eb6dE>
   246e4:	a81c      	add	r0, sp, #112	@ 0x70
   246e6:	f004 fd39 	bl	2915c <_ZN9allow_pin12full_dynamic17unshare_if_shared17h9f78cce76fd1eb6dE>
   246ea:	4625      	mov	r5, r4
   246ec:	2d00      	cmp	r5, #0
   246ee:	d003      	beq.n	246f8 <_ZN20complex_full_dynamic3app17hc357a54f461d88c7E+0xcc>
   246f0:	9c03      	ldr	r4, [sp, #12]
   246f2:	6061      	str	r1, [r4, #4]
   246f4:	2001      	movs	r0, #1
   246f6:	e009      	b.n	2470c <_ZN20complex_full_dynamic3app17hc357a54f461d88c7E+0xe0>
   246f8:	a81c      	add	r0, sp, #112	@ 0x70
   246fa:	f004 fd2f 	bl	2915c <_ZN9allow_pin12full_dynamic17unshare_if_shared17h9f78cce76fd1eb6dE>
   246fe:	9c03      	ldr	r4, [sp, #12]
   24700:	1c60      	adds	r0, r4, #1
   24702:	220f      	movs	r2, #15
   24704:	9902      	ldr	r1, [sp, #8]
   24706:	f004 ff02 	bl	2950e <__aeabi_memcpy>
   2470a:	2000      	movs	r0, #0
   2470c:	7020      	strb	r0, [r4, #0]
   2470e:	a81c      	add	r0, sp, #112	@ 0x70
   24710:	f004 fd24 	bl	2915c <_ZN9allow_pin12full_dynamic17unshare_if_shared17h9f78cce76fd1eb6dE>
   24714:	a804      	add	r0, sp, #16
   24716:	f004 fd21 	bl	2915c <_ZN9allow_pin12full_dynamic17unshare_if_shared17h9f78cce76fd1eb6dE>
   2471a:	b027      	add	sp, #156	@ 0x9c
   2471c:	bdf0      	pop	{r4, r5, r6, r7, pc}
   2471e:	46c0      	nop			@ (mov r8, r8)
   24720:	000013bf 	.word	0x000013bf

00024724 <_ZN20complex_full_dynamic3app17hcc32eb72946f2616E>:
   24724:	b5f0      	push	{r4, r5, r6, r7, lr}
   24726:	af03      	add	r7, sp, #12
   24728:	b0b3      	sub	sp, #204	@ 0xcc
   2472a:	9005      	str	r0, [sp, #20]
   2472c:	ae06      	add	r6, sp, #24
   2472e:	2002      	movs	r0, #2
   24730:	9004      	str	r0, [sp, #16]
   24732:	7230      	strb	r0, [r6, #8]
   24734:	360c      	adds	r6, #12
   24736:	2563      	movs	r5, #99	@ 0x63
   24738:	4630      	mov	r0, r6
   2473a:	462a      	mov	r2, r5
   2473c:	f004 fee7 	bl	2950e <__aeabi_memcpy>
   24740:	ac22      	add	r4, sp, #136	@ 0x88
   24742:	4620      	mov	r0, r4
   24744:	300c      	adds	r0, #12
   24746:	2127      	movs	r1, #39	@ 0x27
   24748:	9003      	str	r0, [sp, #12]
   2474a:	9102      	str	r1, [sp, #8]
   2474c:	f004 fd32 	bl	291b4 <__aeabi_memclr4>
   24750:	9804      	ldr	r0, [sp, #16]
   24752:	7220      	strb	r0, [r4, #8]
   24754:	2404      	movs	r4, #4
   24756:	9500      	str	r5, [sp, #0]
   24758:	9401      	str	r4, [sp, #4]
   2475a:	a82f      	add	r0, sp, #188	@ 0xbc
   2475c:	492d      	ldr	r1, [pc, #180]	@ (24814 <_ZN20complex_full_dynamic3app17hcc32eb72946f2616E+0xf0>)
   2475e:	2507      	movs	r5, #7
   24760:	462a      	mov	r2, r5
   24762:	4633      	mov	r3, r6
   24764:	f004 fd0e 	bl	29184 <_ZN9allow_pin13dynamic_allow17h33d41317a2da4f1cE>
   24768:	982f      	ldr	r0, [sp, #188]	@ 0xbc
   2476a:	2802      	cmp	r0, #2
   2476c:	d102      	bne.n	24774 <_ZN20complex_full_dynamic3app17hcc32eb72946f2616E+0x50>
   2476e:	9930      	ldr	r1, [sp, #192]	@ 0xc0
   24770:	4a28      	ldr	r2, [pc, #160]	@ (24814 <_ZN20complex_full_dynamic3app17hcc32eb72946f2616E+0xf0>)
   24772:	e004      	b.n	2477e <_ZN20complex_full_dynamic3app17hcc32eb72946f2616E+0x5a>
   24774:	a906      	add	r1, sp, #24
   24776:	720c      	strb	r4, [r1, #8]
   24778:	9507      	str	r5, [sp, #28]
   2477a:	4a26      	ldr	r2, [pc, #152]	@ (24814 <_ZN20complex_full_dynamic3app17hcc32eb72946f2616E+0xf0>)
   2477c:	9206      	str	r2, [sp, #24]
   2477e:	2501      	movs	r5, #1
   24780:	2802      	cmp	r0, #2
   24782:	d02e      	beq.n	247e2 <_ZN20complex_full_dynamic3app17hcc32eb72946f2616E+0xbe>
   24784:	a822      	add	r0, sp, #136	@ 0x88
   24786:	7a00      	ldrb	r0, [r0, #8]
   24788:	2802      	cmp	r0, #2
   2478a:	d10f      	bne.n	247ac <_ZN20complex_full_dynamic3app17hcc32eb72946f2616E+0x88>
   2478c:	2603      	movs	r6, #3
   2478e:	9802      	ldr	r0, [sp, #8]
   24790:	9000      	str	r0, [sp, #0]
   24792:	9601      	str	r6, [sp, #4]
   24794:	a82f      	add	r0, sp, #188	@ 0xbc
   24796:	2400      	movs	r4, #0
   24798:	4611      	mov	r1, r2
   2479a:	4622      	mov	r2, r4
   2479c:	9b03      	ldr	r3, [sp, #12]
   2479e:	f004 fcf1 	bl	29184 <_ZN9allow_pin13dynamic_allow17h33d41317a2da4f1cE>
   247a2:	982f      	ldr	r0, [sp, #188]	@ 0xbc
   247a4:	2802      	cmp	r0, #2
   247a6:	d106      	bne.n	247b6 <_ZN20complex_full_dynamic3app17hcc32eb72946f2616E+0x92>
   247a8:	9930      	ldr	r1, [sp, #192]	@ 0xc0
   247aa:	e000      	b.n	247ae <_ZN20complex_full_dynamic3app17hcc32eb72946f2616E+0x8a>
   247ac:	2103      	movs	r1, #3
   247ae:	462c      	mov	r4, r5
   247b0:	2c00      	cmp	r4, #0
   247b2:	d007      	beq.n	247c4 <_ZN20complex_full_dynamic3app17hcc32eb72946f2616E+0xa0>
   247b4:	e015      	b.n	247e2 <_ZN20complex_full_dynamic3app17hcc32eb72946f2616E+0xbe>
   247b6:	a822      	add	r0, sp, #136	@ 0x88
   247b8:	7206      	strb	r6, [r0, #8]
   247ba:	9423      	str	r4, [sp, #140]	@ 0x8c
   247bc:	4815      	ldr	r0, [pc, #84]	@ (24814 <_ZN20complex_full_dynamic3app17hcc32eb72946f2616E+0xf0>)
   247be:	9022      	str	r0, [sp, #136]	@ 0x88
   247c0:	2c00      	cmp	r4, #0
   247c2:	d10e      	bne.n	247e2 <_ZN20complex_full_dynamic3app17hcc32eb72946f2616E+0xbe>
   247c4:	4813      	ldr	r0, [pc, #76]	@ (24814 <_ZN20complex_full_dynamic3app17hcc32eb72946f2616E+0xf0>)
   247c6:	2107      	movs	r1, #7
   247c8:	2400      	movs	r4, #0
   247ca:	4622      	mov	r2, r4
   247cc:	4623      	mov	r3, r4
   247ce:	df02      	svc	2
   247d0:	287f      	cmp	r0, #127	@ 0x7f
   247d2:	d906      	bls.n	247e2 <_ZN20complex_full_dynamic3app17hcc32eb72946f2616E+0xbe>
   247d4:	a806      	add	r0, sp, #24
   247d6:	f004 fcc1 	bl	2915c <_ZN9allow_pin12full_dynamic17unshare_if_shared17h9f78cce76fd1eb6dE>
   247da:	a822      	add	r0, sp, #136	@ 0x88
   247dc:	f004 fcbe 	bl	2915c <_ZN9allow_pin12full_dynamic17unshare_if_shared17h9f78cce76fd1eb6dE>
   247e0:	4625      	mov	r5, r4
   247e2:	2d00      	cmp	r5, #0
   247e4:	d003      	beq.n	247ee <_ZN20complex_full_dynamic3app17hcc32eb72946f2616E+0xca>
   247e6:	9c05      	ldr	r4, [sp, #20]
   247e8:	6061      	str	r1, [r4, #4]
   247ea:	2001      	movs	r0, #1
   247ec:	e009      	b.n	24802 <_ZN20complex_full_dynamic3app17hcc32eb72946f2616E+0xde>
   247ee:	a822      	add	r0, sp, #136	@ 0x88
   247f0:	f004 fcb4 	bl	2915c <_ZN9allow_pin12full_dynamic17unshare_if_shared17h9f78cce76fd1eb6dE>
   247f4:	9c05      	ldr	r4, [sp, #20]
   247f6:	1c60      	adds	r0, r4, #1
   247f8:	2227      	movs	r2, #39	@ 0x27
   247fa:	9903      	ldr	r1, [sp, #12]
   247fc:	f004 fe87 	bl	2950e <__aeabi_memcpy>
   24800:	2000      	movs	r0, #0
   24802:	7020      	strb	r0, [r4, #0]
   24804:	a822      	add	r0, sp, #136	@ 0x88
   24806:	f004 fca9 	bl	2915c <_ZN9allow_pin12full_dynamic17unshare_if_shared17h9f78cce76fd1eb6dE>
   2480a:	a806      	add	r0, sp, #24
   2480c:	f004 fca6 	bl	2915c <_ZN9allow_pin12full_dynamic17unshare_if_shared17h9f78cce76fd1eb6dE>
   24810:	b033      	add	sp, #204	@ 0xcc
   24812:	bdf0      	pop	{r4, r5, r6, r7, pc}
   24814:	00001e54 	.word	0x00001e54

00024818 <_ZN20complex_full_dynamic3app17hcfc0cc1744504c3fE>:
   24818:	b5f0      	push	{r4, r5, r6, r7, lr}
   2481a:	af03      	add	r7, sp, #12
   2481c:	b0a5      	sub	sp, #148	@ 0x94
   2481e:	9006      	str	r0, [sp, #24]
   24820:	ad07      	add	r5, sp, #28
   24822:	2002      	movs	r0, #2
   24824:	9005      	str	r0, [sp, #20]
   24826:	7228      	strb	r0, [r5, #8]
   24828:	350c      	adds	r5, #12
   2482a:	2621      	movs	r6, #33	@ 0x21
   2482c:	4628      	mov	r0, r5
   2482e:	4632      	mov	r2, r6
   24830:	f004 fe6d 	bl	2950e <__aeabi_memcpy>
   24834:	ac13      	add	r4, sp, #76	@ 0x4c
   24836:	4620      	mov	r0, r4
   24838:	300c      	adds	r0, #12
   2483a:	212a      	movs	r1, #42	@ 0x2a
   2483c:	9004      	str	r0, [sp, #16]
   2483e:	9103      	str	r1, [sp, #12]
   24840:	f004 fcb8 	bl	291b4 <__aeabi_memclr4>
   24844:	9805      	ldr	r0, [sp, #20]
   24846:	7220      	strb	r0, [r4, #8]
   24848:	2404      	movs	r4, #4
   2484a:	9600      	str	r6, [sp, #0]
   2484c:	9401      	str	r4, [sp, #4]
   2484e:	a821      	add	r0, sp, #132	@ 0x84
   24850:	492d      	ldr	r1, [pc, #180]	@ (24908 <_ZN20complex_full_dynamic3app17hcfc0cc1744504c3fE+0xf0>)
   24852:	2601      	movs	r6, #1
   24854:	4632      	mov	r2, r6
   24856:	462b      	mov	r3, r5
   24858:	f004 fc94 	bl	29184 <_ZN9allow_pin13dynamic_allow17h33d41317a2da4f1cE>
   2485c:	9821      	ldr	r0, [sp, #132]	@ 0x84
   2485e:	2802      	cmp	r0, #2
   24860:	d104      	bne.n	2486c <_ZN20complex_full_dynamic3app17hcfc0cc1744504c3fE+0x54>
   24862:	9922      	ldr	r1, [sp, #136]	@ 0x88
   24864:	4c28      	ldr	r4, [pc, #160]	@ (24908 <_ZN20complex_full_dynamic3app17hcfc0cc1744504c3fE+0xf0>)
   24866:	2802      	cmp	r0, #2
   24868:	d107      	bne.n	2487a <_ZN20complex_full_dynamic3app17hcfc0cc1744504c3fE+0x62>
   2486a:	e034      	b.n	248d6 <_ZN20complex_full_dynamic3app17hcfc0cc1744504c3fE+0xbe>
   2486c:	a907      	add	r1, sp, #28
   2486e:	720c      	strb	r4, [r1, #8]
   24870:	9608      	str	r6, [sp, #32]
   24872:	4c25      	ldr	r4, [pc, #148]	@ (24908 <_ZN20complex_full_dynamic3app17hcfc0cc1744504c3fE+0xf0>)
   24874:	9407      	str	r4, [sp, #28]
   24876:	2802      	cmp	r0, #2
   24878:	d02d      	beq.n	248d6 <_ZN20complex_full_dynamic3app17hcfc0cc1744504c3fE+0xbe>
   2487a:	a813      	add	r0, sp, #76	@ 0x4c
   2487c:	7a00      	ldrb	r0, [r0, #8]
   2487e:	2802      	cmp	r0, #2
   24880:	d10e      	bne.n	248a0 <_ZN20complex_full_dynamic3app17hcfc0cc1744504c3fE+0x88>
   24882:	2503      	movs	r5, #3
   24884:	9803      	ldr	r0, [sp, #12]
   24886:	9000      	str	r0, [sp, #0]
   24888:	9501      	str	r5, [sp, #4]
   2488a:	a821      	add	r0, sp, #132	@ 0x84
   2488c:	4621      	mov	r1, r4
   2488e:	462a      	mov	r2, r5
   24890:	9b04      	ldr	r3, [sp, #16]
   24892:	f004 fc77 	bl	29184 <_ZN9allow_pin13dynamic_allow17h33d41317a2da4f1cE>
   24896:	9821      	ldr	r0, [sp, #132]	@ 0x84
   24898:	2802      	cmp	r0, #2
   2489a:	d106      	bne.n	248aa <_ZN20complex_full_dynamic3app17hcfc0cc1744504c3fE+0x92>
   2489c:	9922      	ldr	r1, [sp, #136]	@ 0x88
   2489e:	e000      	b.n	248a2 <_ZN20complex_full_dynamic3app17hcfc0cc1744504c3fE+0x8a>
   248a0:	2103      	movs	r1, #3
   248a2:	4630      	mov	r0, r6
   248a4:	2800      	cmp	r0, #0
   248a6:	d007      	beq.n	248b8 <_ZN20complex_full_dynamic3app17hcfc0cc1744504c3fE+0xa0>
   248a8:	e015      	b.n	248d6 <_ZN20complex_full_dynamic3app17hcfc0cc1744504c3fE+0xbe>
   248aa:	a813      	add	r0, sp, #76	@ 0x4c
   248ac:	7205      	strb	r5, [r0, #8]
   248ae:	9514      	str	r5, [sp, #80]	@ 0x50
   248b0:	9413      	str	r4, [sp, #76]	@ 0x4c
   248b2:	2000      	movs	r0, #0
   248b4:	2800      	cmp	r0, #0
   248b6:	d10e      	bne.n	248d6 <_ZN20complex_full_dynamic3app17hcfc0cc1744504c3fE+0xbe>
   248b8:	4813      	ldr	r0, [pc, #76]	@ (24908 <_ZN20complex_full_dynamic3app17hcfc0cc1744504c3fE+0xf0>)
   248ba:	2101      	movs	r1, #1
   248bc:	2203      	movs	r2, #3
   248be:	2400      	movs	r4, #0
   248c0:	4623      	mov	r3, r4
   248c2:	df02      	svc	2
   248c4:	287f      	cmp	r0, #127	@ 0x7f
   248c6:	d906      	bls.n	248d6 <_ZN20complex_full_dynamic3app17hcfc0cc1744504c3fE+0xbe>
   248c8:	a807      	add	r0, sp, #28
   248ca:	f004 fc47 	bl	2915c <_ZN9allow_pin12full_dynamic17unshare_if_shared17h9f78cce76fd1eb6dE>
   248ce:	a813      	add	r0, sp, #76	@ 0x4c
   248d0:	f004 fc44 	bl	2915c <_ZN9allow_pin12full_dynamic17unshare_if_shared17h9f78cce76fd1eb6dE>
   248d4:	4626      	mov	r6, r4
   248d6:	2e00      	cmp	r6, #0
   248d8:	d003      	beq.n	248e2 <_ZN20complex_full_dynamic3app17hcfc0cc1744504c3fE+0xca>
   248da:	9c06      	ldr	r4, [sp, #24]
   248dc:	6061      	str	r1, [r4, #4]
   248de:	2001      	movs	r0, #1
   248e0:	e009      	b.n	248f6 <_ZN20complex_full_dynamic3app17hcfc0cc1744504c3fE+0xde>
   248e2:	a813      	add	r0, sp, #76	@ 0x4c
   248e4:	f004 fc3a 	bl	2915c <_ZN9allow_pin12full_dynamic17unshare_if_shared17h9f78cce76fd1eb6dE>
   248e8:	9c06      	ldr	r4, [sp, #24]
   248ea:	1c60      	adds	r0, r4, #1
   248ec:	222a      	movs	r2, #42	@ 0x2a
   248ee:	9904      	ldr	r1, [sp, #16]
   248f0:	f004 fe0d 	bl	2950e <__aeabi_memcpy>
   248f4:	2000      	movs	r0, #0
   248f6:	7020      	strb	r0, [r4, #0]
   248f8:	a813      	add	r0, sp, #76	@ 0x4c
   248fa:	f004 fc2f 	bl	2915c <_ZN9allow_pin12full_dynamic17unshare_if_shared17h9f78cce76fd1eb6dE>
   248fe:	a807      	add	r0, sp, #28
   24900:	f004 fc2c 	bl	2915c <_ZN9allow_pin12full_dynamic17unshare_if_shared17h9f78cce76fd1eb6dE>
   24904:	b025      	add	sp, #148	@ 0x94
   24906:	bdf0      	pop	{r4, r5, r6, r7, pc}
   24908:	000015f3 	.word	0x000015f3

0002490c <_ZN20complex_full_dynamic3app17hd11c2e9e53987837E>:
   2490c:	b5f0      	push	{r4, r5, r6, r7, lr}
   2490e:	af03      	add	r7, sp, #12
   24910:	b0af      	sub	sp, #188	@ 0xbc
   24912:	9005      	str	r0, [sp, #20]
   24914:	ae06      	add	r6, sp, #24
   24916:	2002      	movs	r0, #2
   24918:	9004      	str	r0, [sp, #16]
   2491a:	7230      	strb	r0, [r6, #8]
   2491c:	360c      	adds	r6, #12
   2491e:	2531      	movs	r5, #49	@ 0x31
   24920:	4630      	mov	r0, r6
   24922:	462a      	mov	r2, r5
   24924:	f004 fdf3 	bl	2950e <__aeabi_memcpy>
   24928:	ac16      	add	r4, sp, #88	@ 0x58
   2492a:	4620      	mov	r0, r4
   2492c:	300c      	adds	r0, #12
   2492e:	2148      	movs	r1, #72	@ 0x48
   24930:	9003      	str	r0, [sp, #12]
   24932:	9102      	str	r1, [sp, #8]
   24934:	f004 fc3e 	bl	291b4 <__aeabi_memclr4>
   24938:	9804      	ldr	r0, [sp, #16]
   2493a:	7220      	strb	r0, [r4, #8]
   2493c:	2404      	movs	r4, #4
   2493e:	9500      	str	r5, [sp, #0]
   24940:	9401      	str	r4, [sp, #4]
   24942:	a82b      	add	r0, sp, #172	@ 0xac
   24944:	4d2d      	ldr	r5, [pc, #180]	@ (249fc <_ZN20complex_full_dynamic3app17hd11c2e9e53987837E+0xf0>)
   24946:	4629      	mov	r1, r5
   24948:	4622      	mov	r2, r4
   2494a:	4633      	mov	r3, r6
   2494c:	f004 fc1a 	bl	29184 <_ZN9allow_pin13dynamic_allow17h33d41317a2da4f1cE>
   24950:	982b      	ldr	r0, [sp, #172]	@ 0xac
   24952:	2802      	cmp	r0, #2
   24954:	d102      	bne.n	2495c <_ZN20complex_full_dynamic3app17hd11c2e9e53987837E+0x50>
   24956:	462e      	mov	r6, r5
   24958:	992c      	ldr	r1, [sp, #176]	@ 0xb0
   2495a:	e004      	b.n	24966 <_ZN20complex_full_dynamic3app17hd11c2e9e53987837E+0x5a>
   2495c:	a906      	add	r1, sp, #24
   2495e:	720c      	strb	r4, [r1, #8]
   24960:	9407      	str	r4, [sp, #28]
   24962:	462e      	mov	r6, r5
   24964:	9506      	str	r5, [sp, #24]
   24966:	2501      	movs	r5, #1
   24968:	2802      	cmp	r0, #2
   2496a:	d02d      	beq.n	249c8 <_ZN20complex_full_dynamic3app17hd11c2e9e53987837E+0xbc>
   2496c:	a816      	add	r0, sp, #88	@ 0x58
   2496e:	7a00      	ldrb	r0, [r0, #8]
   24970:	2802      	cmp	r0, #2
   24972:	d10e      	bne.n	24992 <_ZN20complex_full_dynamic3app17hd11c2e9e53987837E+0x86>
   24974:	2403      	movs	r4, #3
   24976:	9802      	ldr	r0, [sp, #8]
   24978:	9000      	str	r0, [sp, #0]
   2497a:	9401      	str	r4, [sp, #4]
   2497c:	a82b      	add	r0, sp, #172	@ 0xac
   2497e:	4631      	mov	r1, r6
   24980:	4622      	mov	r2, r4
   24982:	9b03      	ldr	r3, [sp, #12]
   24984:	f004 fbfe 	bl	29184 <_ZN9allow_pin13dynamic_allow17h33d41317a2da4f1cE>
   24988:	982b      	ldr	r0, [sp, #172]	@ 0xac
   2498a:	2802      	cmp	r0, #2
   2498c:	d106      	bne.n	2499c <_ZN20complex_full_dynamic3app17hd11c2e9e53987837E+0x90>
   2498e:	992c      	ldr	r1, [sp, #176]	@ 0xb0
   24990:	e000      	b.n	24994 <_ZN20complex_full_dynamic3app17hd11c2e9e53987837E+0x88>
   24992:	2103      	movs	r1, #3
   24994:	4628      	mov	r0, r5
   24996:	2800      	cmp	r0, #0
   24998:	d007      	beq.n	249aa <_ZN20complex_full_dynamic3app17hd11c2e9e53987837E+0x9e>
   2499a:	e015      	b.n	249c8 <_ZN20complex_full_dynamic3app17hd11c2e9e53987837E+0xbc>
   2499c:	a816      	add	r0, sp, #88	@ 0x58
   2499e:	7204      	strb	r4, [r0, #8]
   249a0:	9417      	str	r4, [sp, #92]	@ 0x5c
   249a2:	9616      	str	r6, [sp, #88]	@ 0x58
   249a4:	2000      	movs	r0, #0
   249a6:	2800      	cmp	r0, #0
   249a8:	d10e      	bne.n	249c8 <_ZN20complex_full_dynamic3app17hd11c2e9e53987837E+0xbc>
   249aa:	4814      	ldr	r0, [pc, #80]	@ (249fc <_ZN20complex_full_dynamic3app17hd11c2e9e53987837E+0xf0>)
   249ac:	2104      	movs	r1, #4
   249ae:	2203      	movs	r2, #3
   249b0:	2400      	movs	r4, #0
   249b2:	4623      	mov	r3, r4
   249b4:	df02      	svc	2
   249b6:	287f      	cmp	r0, #127	@ 0x7f
   249b8:	d906      	bls.n	249c8 <_ZN20complex_full_dynamic3app17hd11c2e9e53987837E+0xbc>
   249ba:	a806      	add	r0, sp, #24
   249bc:	f004 fbce 	bl	2915c <_ZN9allow_pin12full_dynamic17unshare_if_shared17h9f78cce76fd1eb6dE>
   249c0:	a816      	add	r0, sp, #88	@ 0x58
   249c2:	f004 fbcb 	bl	2915c <_ZN9allow_pin12full_dynamic17unshare_if_shared17h9f78cce76fd1eb6dE>
   249c6:	4625      	mov	r5, r4
   249c8:	2d00      	cmp	r5, #0
   249ca:	d003      	beq.n	249d4 <_ZN20complex_full_dynamic3app17hd11c2e9e53987837E+0xc8>
   249cc:	9c05      	ldr	r4, [sp, #20]
   249ce:	6061      	str	r1, [r4, #4]
   249d0:	2001      	movs	r0, #1
   249d2:	e009      	b.n	249e8 <_ZN20complex_full_dynamic3app17hd11c2e9e53987837E+0xdc>
   249d4:	a816      	add	r0, sp, #88	@ 0x58
   249d6:	f004 fbc1 	bl	2915c <_ZN9allow_pin12full_dynamic17unshare_if_shared17h9f78cce76fd1eb6dE>
   249da:	9c05      	ldr	r4, [sp, #20]
   249dc:	1c60      	adds	r0, r4, #1
   249de:	2248      	movs	r2, #72	@ 0x48
   249e0:	9903      	ldr	r1, [sp, #12]
   249e2:	f004 fd94 	bl	2950e <__aeabi_memcpy>
   249e6:	2000      	movs	r0, #0
   249e8:	7020      	strb	r0, [r4, #0]
   249ea:	a816      	add	r0, sp, #88	@ 0x58
   249ec:	f004 fbb6 	bl	2915c <_ZN9allow_pin12full_dynamic17unshare_if_shared17h9f78cce76fd1eb6dE>
   249f0:	a806      	add	r0, sp, #24
   249f2:	f004 fbb3 	bl	2915c <_ZN9allow_pin12full_dynamic17unshare_if_shared17h9f78cce76fd1eb6dE>
   249f6:	b02f      	add	sp, #188	@ 0xbc
   249f8:	bdf0      	pop	{r4, r5, r6, r7, pc}
   249fa:	46c0      	nop			@ (mov r8, r8)
   249fc:	0000180e 	.word	0x0000180e

00024a00 <_ZN20complex_full_dynamic3app17hd881d445f8611492E>:
   24a00:	b5f0      	push	{r4, r5, r6, r7, lr}
   24a02:	af03      	add	r7, sp, #12
   24a04:	b0bb      	sub	sp, #236	@ 0xec
   24a06:	9006      	str	r0, [sp, #24]
   24a08:	ad07      	add	r5, sp, #28
   24a0a:	2002      	movs	r0, #2
   24a0c:	9005      	str	r0, [sp, #20]
   24a0e:	7228      	strb	r0, [r5, #8]
   24a10:	350c      	adds	r5, #12
   24a12:	2659      	movs	r6, #89	@ 0x59
   24a14:	4628      	mov	r0, r5
   24a16:	4632      	mov	r2, r6
   24a18:	f004 fd79 	bl	2950e <__aeabi_memcpy>
   24a1c:	ac21      	add	r4, sp, #132	@ 0x84
   24a1e:	4620      	mov	r0, r4
   24a20:	300c      	adds	r0, #12
   24a22:	214a      	movs	r1, #74	@ 0x4a
   24a24:	9004      	str	r0, [sp, #16]
   24a26:	9103      	str	r1, [sp, #12]
   24a28:	f004 fbc4 	bl	291b4 <__aeabi_memclr4>
   24a2c:	9805      	ldr	r0, [sp, #20]
   24a2e:	7220      	strb	r0, [r4, #8]
   24a30:	2404      	movs	r4, #4
   24a32:	9600      	str	r6, [sp, #0]
   24a34:	9401      	str	r4, [sp, #4]
   24a36:	a837      	add	r0, sp, #220	@ 0xdc
   24a38:	492d      	ldr	r1, [pc, #180]	@ (24af0 <_ZN20complex_full_dynamic3app17hd881d445f8611492E+0xf0>)
   24a3a:	2600      	movs	r6, #0
   24a3c:	4632      	mov	r2, r6
   24a3e:	462b      	mov	r3, r5
   24a40:	f004 fba0 	bl	29184 <_ZN9allow_pin13dynamic_allow17h33d41317a2da4f1cE>
   24a44:	9837      	ldr	r0, [sp, #220]	@ 0xdc
   24a46:	2802      	cmp	r0, #2
   24a48:	d102      	bne.n	24a50 <_ZN20complex_full_dynamic3app17hd881d445f8611492E+0x50>
   24a4a:	9938      	ldr	r1, [sp, #224]	@ 0xe0
   24a4c:	4a28      	ldr	r2, [pc, #160]	@ (24af0 <_ZN20complex_full_dynamic3app17hd881d445f8611492E+0xf0>)
   24a4e:	e004      	b.n	24a5a <_ZN20complex_full_dynamic3app17hd881d445f8611492E+0x5a>
   24a50:	a907      	add	r1, sp, #28
   24a52:	720c      	strb	r4, [r1, #8]
   24a54:	9608      	str	r6, [sp, #32]
   24a56:	4a26      	ldr	r2, [pc, #152]	@ (24af0 <_ZN20complex_full_dynamic3app17hd881d445f8611492E+0xf0>)
   24a58:	9207      	str	r2, [sp, #28]
   24a5a:	2501      	movs	r5, #1
   24a5c:	2802      	cmp	r0, #2
   24a5e:	d02e      	beq.n	24abe <_ZN20complex_full_dynamic3app17hd881d445f8611492E+0xbe>
   24a60:	a821      	add	r0, sp, #132	@ 0x84
   24a62:	7a00      	ldrb	r0, [r0, #8]
   24a64:	2103      	movs	r1, #3
   24a66:	2802      	cmp	r0, #2
   24a68:	d10e      	bne.n	24a88 <_ZN20complex_full_dynamic3app17hd881d445f8611492E+0x88>
   24a6a:	9803      	ldr	r0, [sp, #12]
   24a6c:	9000      	str	r0, [sp, #0]
   24a6e:	9105      	str	r1, [sp, #20]
   24a70:	9101      	str	r1, [sp, #4]
   24a72:	a837      	add	r0, sp, #220	@ 0xdc
   24a74:	2404      	movs	r4, #4
   24a76:	4611      	mov	r1, r2
   24a78:	4622      	mov	r2, r4
   24a7a:	9b04      	ldr	r3, [sp, #16]
   24a7c:	f004 fb82 	bl	29184 <_ZN9allow_pin13dynamic_allow17h33d41317a2da4f1cE>
   24a80:	9837      	ldr	r0, [sp, #220]	@ 0xdc
   24a82:	2802      	cmp	r0, #2
   24a84:	d104      	bne.n	24a90 <_ZN20complex_full_dynamic3app17hd881d445f8611492E+0x90>
   24a86:	9938      	ldr	r1, [sp, #224]	@ 0xe0
   24a88:	462e      	mov	r6, r5
   24a8a:	2e00      	cmp	r6, #0
   24a8c:	d008      	beq.n	24aa0 <_ZN20complex_full_dynamic3app17hd881d445f8611492E+0xa0>
   24a8e:	e016      	b.n	24abe <_ZN20complex_full_dynamic3app17hd881d445f8611492E+0xbe>
   24a90:	a821      	add	r0, sp, #132	@ 0x84
   24a92:	9905      	ldr	r1, [sp, #20]
   24a94:	7201      	strb	r1, [r0, #8]
   24a96:	9422      	str	r4, [sp, #136]	@ 0x88
   24a98:	4815      	ldr	r0, [pc, #84]	@ (24af0 <_ZN20complex_full_dynamic3app17hd881d445f8611492E+0xf0>)
   24a9a:	9021      	str	r0, [sp, #132]	@ 0x84
   24a9c:	2e00      	cmp	r6, #0
   24a9e:	d10e      	bne.n	24abe <_ZN20complex_full_dynamic3app17hd881d445f8611492E+0xbe>
   24aa0:	4813      	ldr	r0, [pc, #76]	@ (24af0 <_ZN20complex_full_dynamic3app17hd881d445f8611492E+0xf0>)
   24aa2:	2204      	movs	r2, #4
   24aa4:	2400      	movs	r4, #0
   24aa6:	4621      	mov	r1, r4
   24aa8:	4623      	mov	r3, r4
   24aaa:	df02      	svc	2
   24aac:	287f      	cmp	r0, #127	@ 0x7f
   24aae:	d906      	bls.n	24abe <_ZN20complex_full_dynamic3app17hd881d445f8611492E+0xbe>
   24ab0:	a807      	add	r0, sp, #28
   24ab2:	f004 fb53 	bl	2915c <_ZN9allow_pin12full_dynamic17unshare_if_shared17h9f78cce76fd1eb6dE>
   24ab6:	a821      	add	r0, sp, #132	@ 0x84
   24ab8:	f004 fb50 	bl	2915c <_ZN9allow_pin12full_dynamic17unshare_if_shared17h9f78cce76fd1eb6dE>
   24abc:	4625      	mov	r5, r4
   24abe:	2d00      	cmp	r5, #0
   24ac0:	d003      	beq.n	24aca <_ZN20complex_full_dynamic3app17hd881d445f8611492E+0xca>
   24ac2:	9c06      	ldr	r4, [sp, #24]
   24ac4:	6061      	str	r1, [r4, #4]
   24ac6:	2001      	movs	r0, #1
   24ac8:	e009      	b.n	24ade <_ZN20complex_full_dynamic3app17hd881d445f8611492E+0xde>
   24aca:	a821      	add	r0, sp, #132	@ 0x84
   24acc:	f004 fb46 	bl	2915c <_ZN9allow_pin12full_dynamic17unshare_if_shared17h9f78cce76fd1eb6dE>
   24ad0:	9c06      	ldr	r4, [sp, #24]
   24ad2:	1c60      	adds	r0, r4, #1
   24ad4:	224a      	movs	r2, #74	@ 0x4a
   24ad6:	9904      	ldr	r1, [sp, #16]
   24ad8:	f004 fd19 	bl	2950e <__aeabi_memcpy>
   24adc:	2000      	movs	r0, #0
   24ade:	7020      	strb	r0, [r4, #0]
   24ae0:	a821      	add	r0, sp, #132	@ 0x84
   24ae2:	f004 fb3b 	bl	2915c <_ZN9allow_pin12full_dynamic17unshare_if_shared17h9f78cce76fd1eb6dE>
   24ae6:	a807      	add	r0, sp, #28
   24ae8:	f004 fb38 	bl	2915c <_ZN9allow_pin12full_dynamic17unshare_if_shared17h9f78cce76fd1eb6dE>
   24aec:	b03b      	add	sp, #236	@ 0xec
   24aee:	bdf0      	pop	{r4, r5, r6, r7, pc}
   24af0:	00001484 	.word	0x00001484

00024af4 <_ZN20complex_full_dynamic3app17hd95b4f2ae6821a3eE>:
   24af4:	b5f0      	push	{r4, r5, r6, r7, lr}
   24af6:	af03      	add	r7, sp, #12
   24af8:	b0a3      	sub	sp, #140	@ 0x8c
   24afa:	9006      	str	r0, [sp, #24]
   24afc:	ad07      	add	r5, sp, #28
   24afe:	2002      	movs	r0, #2
   24b00:	9005      	str	r0, [sp, #20]
   24b02:	7228      	strb	r0, [r5, #8]
   24b04:	350c      	adds	r5, #12
   24b06:	2610      	movs	r6, #16
   24b08:	4628      	mov	r0, r5
   24b0a:	4632      	mov	r2, r6
   24b0c:	f004 fcff 	bl	2950e <__aeabi_memcpy>
   24b10:	ac0e      	add	r4, sp, #56	@ 0x38
   24b12:	4620      	mov	r0, r4
   24b14:	300c      	adds	r0, #12
   24b16:	2136      	movs	r1, #54	@ 0x36
   24b18:	9004      	str	r0, [sp, #16]
   24b1a:	9103      	str	r1, [sp, #12]
   24b1c:	f004 fb4a 	bl	291b4 <__aeabi_memclr4>
   24b20:	9805      	ldr	r0, [sp, #20]
   24b22:	7220      	strb	r0, [r4, #8]
   24b24:	2404      	movs	r4, #4
   24b26:	9600      	str	r6, [sp, #0]
   24b28:	9401      	str	r4, [sp, #4]
   24b2a:	a81f      	add	r0, sp, #124	@ 0x7c
   24b2c:	4930      	ldr	r1, [pc, #192]	@ (24bf0 <_ZN20complex_full_dynamic3app17hd95b4f2ae6821a3eE+0xfc>)
   24b2e:	2601      	movs	r6, #1
   24b30:	4632      	mov	r2, r6
   24b32:	462b      	mov	r3, r5
   24b34:	f004 fb26 	bl	29184 <_ZN9allow_pin13dynamic_allow17h33d41317a2da4f1cE>
   24b38:	981f      	ldr	r0, [sp, #124]	@ 0x7c
   24b3a:	2802      	cmp	r0, #2
   24b3c:	d104      	bne.n	24b48 <_ZN20complex_full_dynamic3app17hd95b4f2ae6821a3eE+0x54>
   24b3e:	9920      	ldr	r1, [sp, #128]	@ 0x80
   24b40:	4a2b      	ldr	r2, [pc, #172]	@ (24bf0 <_ZN20complex_full_dynamic3app17hd95b4f2ae6821a3eE+0xfc>)
   24b42:	2802      	cmp	r0, #2
   24b44:	d107      	bne.n	24b56 <_ZN20complex_full_dynamic3app17hd95b4f2ae6821a3eE+0x62>
   24b46:	e039      	b.n	24bbc <_ZN20complex_full_dynamic3app17hd95b4f2ae6821a3eE+0xc8>
   24b48:	a907      	add	r1, sp, #28
   24b4a:	720c      	strb	r4, [r1, #8]
   24b4c:	9608      	str	r6, [sp, #32]
   24b4e:	4a28      	ldr	r2, [pc, #160]	@ (24bf0 <_ZN20complex_full_dynamic3app17hd95b4f2ae6821a3eE+0xfc>)
   24b50:	9207      	str	r2, [sp, #28]
   24b52:	2802      	cmp	r0, #2
   24b54:	d032      	beq.n	24bbc <_ZN20complex_full_dynamic3app17hd95b4f2ae6821a3eE+0xc8>
   24b56:	a80e      	add	r0, sp, #56	@ 0x38
   24b58:	7a00      	ldrb	r0, [r0, #8]
   24b5a:	2802      	cmp	r0, #2
   24b5c:	d112      	bne.n	24b84 <_ZN20complex_full_dynamic3app17hd95b4f2ae6821a3eE+0x90>
   24b5e:	9605      	str	r6, [sp, #20]
   24b60:	2503      	movs	r5, #3
   24b62:	9803      	ldr	r0, [sp, #12]
   24b64:	9000      	str	r0, [sp, #0]
   24b66:	9501      	str	r5, [sp, #4]
   24b68:	a81f      	add	r0, sp, #124	@ 0x7c
   24b6a:	2407      	movs	r4, #7
   24b6c:	4611      	mov	r1, r2
   24b6e:	4616      	mov	r6, r2
   24b70:	4622      	mov	r2, r4
   24b72:	9b04      	ldr	r3, [sp, #16]
   24b74:	f004 fb06 	bl	29184 <_ZN9allow_pin13dynamic_allow17h33d41317a2da4f1cE>
   24b78:	981f      	ldr	r0, [sp, #124]	@ 0x7c
   24b7a:	2802      	cmp	r0, #2
   24b7c:	d107      	bne.n	24b8e <_ZN20complex_full_dynamic3app17hd95b4f2ae6821a3eE+0x9a>
   24b7e:	9920      	ldr	r1, [sp, #128]	@ 0x80
   24b80:	9e05      	ldr	r6, [sp, #20]
   24b82:	e000      	b.n	24b86 <_ZN20complex_full_dynamic3app17hd95b4f2ae6821a3eE+0x92>
   24b84:	2103      	movs	r1, #3
   24b86:	4630      	mov	r0, r6
   24b88:	2800      	cmp	r0, #0
   24b8a:	d008      	beq.n	24b9e <_ZN20complex_full_dynamic3app17hd95b4f2ae6821a3eE+0xaa>
   24b8c:	e016      	b.n	24bbc <_ZN20complex_full_dynamic3app17hd95b4f2ae6821a3eE+0xc8>
   24b8e:	a80e      	add	r0, sp, #56	@ 0x38
   24b90:	7205      	strb	r5, [r0, #8]
   24b92:	940f      	str	r4, [sp, #60]	@ 0x3c
   24b94:	960e      	str	r6, [sp, #56]	@ 0x38
   24b96:	2000      	movs	r0, #0
   24b98:	9e05      	ldr	r6, [sp, #20]
   24b9a:	2800      	cmp	r0, #0
   24b9c:	d10e      	bne.n	24bbc <_ZN20complex_full_dynamic3app17hd95b4f2ae6821a3eE+0xc8>
   24b9e:	4814      	ldr	r0, [pc, #80]	@ (24bf0 <_ZN20complex_full_dynamic3app17hd95b4f2ae6821a3eE+0xfc>)
   24ba0:	2101      	movs	r1, #1
   24ba2:	2207      	movs	r2, #7
   24ba4:	2400      	movs	r4, #0
   24ba6:	4623      	mov	r3, r4
   24ba8:	df02      	svc	2
   24baa:	287f      	cmp	r0, #127	@ 0x7f
   24bac:	d906      	bls.n	24bbc <_ZN20complex_full_dynamic3app17hd95b4f2ae6821a3eE+0xc8>
   24bae:	a807      	add	r0, sp, #28
   24bb0:	f004 fad4 	bl	2915c <_ZN9allow_pin12full_dynamic17unshare_if_shared17h9f78cce76fd1eb6dE>
   24bb4:	a80e      	add	r0, sp, #56	@ 0x38
   24bb6:	f004 fad1 	bl	2915c <_ZN9allow_pin12full_dynamic17unshare_if_shared17h9f78cce76fd1eb6dE>
   24bba:	4626      	mov	r6, r4
   24bbc:	2e00      	cmp	r6, #0
   24bbe:	d003      	beq.n	24bc8 <_ZN20complex_full_dynamic3app17hd95b4f2ae6821a3eE+0xd4>
   24bc0:	9c06      	ldr	r4, [sp, #24]
   24bc2:	6061      	str	r1, [r4, #4]
   24bc4:	2001      	movs	r0, #1
   24bc6:	e009      	b.n	24bdc <_ZN20complex_full_dynamic3app17hd95b4f2ae6821a3eE+0xe8>
   24bc8:	a80e      	add	r0, sp, #56	@ 0x38
   24bca:	f004 fac7 	bl	2915c <_ZN9allow_pin12full_dynamic17unshare_if_shared17h9f78cce76fd1eb6dE>
   24bce:	9c06      	ldr	r4, [sp, #24]
   24bd0:	1c60      	adds	r0, r4, #1
   24bd2:	2236      	movs	r2, #54	@ 0x36
   24bd4:	9904      	ldr	r1, [sp, #16]
   24bd6:	f004 fc9a 	bl	2950e <__aeabi_memcpy>
   24bda:	2000      	movs	r0, #0
   24bdc:	7020      	strb	r0, [r4, #0]
   24bde:	a80e      	add	r0, sp, #56	@ 0x38
   24be0:	f004 fabc 	bl	2915c <_ZN9allow_pin12full_dynamic17unshare_if_shared17h9f78cce76fd1eb6dE>
   24be4:	a807      	add	r0, sp, #28
   24be6:	f004 fab9 	bl	2915c <_ZN9allow_pin12full_dynamic17unshare_if_shared17h9f78cce76fd1eb6dE>
   24bea:	b023      	add	sp, #140	@ 0x8c
   24bec:	bdf0      	pop	{r4, r5, r6, r7, pc}
   24bee:	46c0      	nop			@ (mov r8, r8)
   24bf0:	00001989 	.word	0x00001989

00024bf4 <_ZN20complex_full_dynamic3app17hdb5616bf70f76ecdE>:
   24bf4:	b5f0      	push	{r4, r5, r6, r7, lr}
   24bf6:	af03      	add	r7, sp, #12
   24bf8:	b0a5      	sub	sp, #148	@ 0x94
   24bfa:	9005      	str	r0, [sp, #20]
   24bfc:	ac06      	add	r4, sp, #24
   24bfe:	2602      	movs	r6, #2
   24c00:	7226      	strb	r6, [r4, #8]
   24c02:	340c      	adds	r4, #12
   24c04:	253f      	movs	r5, #63	@ 0x3f
   24c06:	4620      	mov	r0, r4
   24c08:	462a      	mov	r2, r5
   24c0a:	f004 fc80 	bl	2950e <__aeabi_memcpy>
   24c0e:	a819      	add	r0, sp, #100	@ 0x64
   24c10:	2100      	movs	r1, #0
   24c12:	7701      	strb	r1, [r0, #28]
   24c14:	9004      	str	r0, [sp, #16]
   24c16:	7206      	strb	r6, [r0, #8]
   24c18:	911f      	str	r1, [sp, #124]	@ 0x7c
   24c1a:	911e      	str	r1, [sp, #120]	@ 0x78
   24c1c:	911d      	str	r1, [sp, #116]	@ 0x74
   24c1e:	9103      	str	r1, [sp, #12]
   24c20:	911c      	str	r1, [sp, #112]	@ 0x70
   24c22:	2604      	movs	r6, #4
   24c24:	9500      	str	r5, [sp, #0]
   24c26:	9601      	str	r6, [sp, #4]
   24c28:	a821      	add	r0, sp, #132	@ 0x84
   24c2a:	4d2f      	ldr	r5, [pc, #188]	@ (24ce8 <_ZN20complex_full_dynamic3app17hdb5616bf70f76ecdE+0xf4>)
   24c2c:	4629      	mov	r1, r5
   24c2e:	4632      	mov	r2, r6
   24c30:	4623      	mov	r3, r4
   24c32:	f004 faa7 	bl	29184 <_ZN9allow_pin13dynamic_allow17h33d41317a2da4f1cE>
   24c36:	9821      	ldr	r0, [sp, #132]	@ 0x84
   24c38:	2802      	cmp	r0, #2
   24c3a:	d102      	bne.n	24c42 <_ZN20complex_full_dynamic3app17hdb5616bf70f76ecdE+0x4e>
   24c3c:	462a      	mov	r2, r5
   24c3e:	9922      	ldr	r1, [sp, #136]	@ 0x88
   24c40:	e004      	b.n	24c4c <_ZN20complex_full_dynamic3app17hdb5616bf70f76ecdE+0x58>
   24c42:	a906      	add	r1, sp, #24
   24c44:	720e      	strb	r6, [r1, #8]
   24c46:	9607      	str	r6, [sp, #28]
   24c48:	462a      	mov	r2, r5
   24c4a:	9506      	str	r5, [sp, #24]
   24c4c:	9e04      	ldr	r6, [sp, #16]
   24c4e:	360c      	adds	r6, #12
   24c50:	2501      	movs	r5, #1
   24c52:	2802      	cmp	r0, #2
   24c54:	d02e      	beq.n	24cb4 <_ZN20complex_full_dynamic3app17hdb5616bf70f76ecdE+0xc0>
   24c56:	a819      	add	r0, sp, #100	@ 0x64
   24c58:	7a00      	ldrb	r0, [r0, #8]
   24c5a:	2802      	cmp	r0, #2
   24c5c:	d10e      	bne.n	24c7c <_ZN20complex_full_dynamic3app17hdb5616bf70f76ecdE+0x88>
   24c5e:	2403      	movs	r4, #3
   24c60:	2011      	movs	r0, #17
   24c62:	9000      	str	r0, [sp, #0]
   24c64:	9401      	str	r4, [sp, #4]
   24c66:	a821      	add	r0, sp, #132	@ 0x84
   24c68:	4611      	mov	r1, r2
   24c6a:	4622      	mov	r2, r4
   24c6c:	4633      	mov	r3, r6
   24c6e:	f004 fa89 	bl	29184 <_ZN9allow_pin13dynamic_allow17h33d41317a2da4f1cE>
   24c72:	9821      	ldr	r0, [sp, #132]	@ 0x84
   24c74:	2802      	cmp	r0, #2
   24c76:	d106      	bne.n	24c86 <_ZN20complex_full_dynamic3app17hdb5616bf70f76ecdE+0x92>
   24c78:	9922      	ldr	r1, [sp, #136]	@ 0x88
   24c7a:	e000      	b.n	24c7e <_ZN20complex_full_dynamic3app17hdb5616bf70f76ecdE+0x8a>
   24c7c:	2103      	movs	r1, #3
   24c7e:	4628      	mov	r0, r5
   24c80:	2800      	cmp	r0, #0
   24c82:	d008      	beq.n	24c96 <_ZN20complex_full_dynamic3app17hdb5616bf70f76ecdE+0xa2>
   24c84:	e016      	b.n	24cb4 <_ZN20complex_full_dynamic3app17hdb5616bf70f76ecdE+0xc0>
   24c86:	a819      	add	r0, sp, #100	@ 0x64
   24c88:	7204      	strb	r4, [r0, #8]
   24c8a:	941a      	str	r4, [sp, #104]	@ 0x68
   24c8c:	4816      	ldr	r0, [pc, #88]	@ (24ce8 <_ZN20complex_full_dynamic3app17hdb5616bf70f76ecdE+0xf4>)
   24c8e:	9019      	str	r0, [sp, #100]	@ 0x64
   24c90:	9803      	ldr	r0, [sp, #12]
   24c92:	2800      	cmp	r0, #0
   24c94:	d10e      	bne.n	24cb4 <_ZN20complex_full_dynamic3app17hdb5616bf70f76ecdE+0xc0>
   24c96:	4814      	ldr	r0, [pc, #80]	@ (24ce8 <_ZN20complex_full_dynamic3app17hdb5616bf70f76ecdE+0xf4>)
   24c98:	2104      	movs	r1, #4
   24c9a:	2203      	movs	r2, #3
   24c9c:	2400      	movs	r4, #0
   24c9e:	4623      	mov	r3, r4
   24ca0:	df02      	svc	2
   24ca2:	287f      	cmp	r0, #127	@ 0x7f
   24ca4:	d906      	bls.n	24cb4 <_ZN20complex_full_dynamic3app17hdb5616bf70f76ecdE+0xc0>
   24ca6:	a806      	add	r0, sp, #24
   24ca8:	f004 fa58 	bl	2915c <_ZN9allow_pin12full_dynamic17unshare_if_shared17h9f78cce76fd1eb6dE>
   24cac:	a819      	add	r0, sp, #100	@ 0x64
   24cae:	f004 fa55 	bl	2915c <_ZN9allow_pin12full_dynamic17unshare_if_shared17h9f78cce76fd1eb6dE>
   24cb2:	4625      	mov	r5, r4
   24cb4:	2d00      	cmp	r5, #0
   24cb6:	d003      	beq.n	24cc0 <_ZN20complex_full_dynamic3app17hdb5616bf70f76ecdE+0xcc>
   24cb8:	9c05      	ldr	r4, [sp, #20]
   24cba:	6061      	str	r1, [r4, #4]
   24cbc:	2001      	movs	r0, #1
   24cbe:	e009      	b.n	24cd4 <_ZN20complex_full_dynamic3app17hdb5616bf70f76ecdE+0xe0>
   24cc0:	a819      	add	r0, sp, #100	@ 0x64
   24cc2:	f004 fa4b 	bl	2915c <_ZN9allow_pin12full_dynamic17unshare_if_shared17h9f78cce76fd1eb6dE>
   24cc6:	9c05      	ldr	r4, [sp, #20]
   24cc8:	1c60      	adds	r0, r4, #1
   24cca:	2211      	movs	r2, #17
   24ccc:	4631      	mov	r1, r6
   24cce:	f004 fc1e 	bl	2950e <__aeabi_memcpy>
   24cd2:	2000      	movs	r0, #0
   24cd4:	7020      	strb	r0, [r4, #0]
   24cd6:	a819      	add	r0, sp, #100	@ 0x64
   24cd8:	f004 fa40 	bl	2915c <_ZN9allow_pin12full_dynamic17unshare_if_shared17h9f78cce76fd1eb6dE>
   24cdc:	a806      	add	r0, sp, #24
   24cde:	f004 fa3d 	bl	2915c <_ZN9allow_pin12full_dynamic17unshare_if_shared17h9f78cce76fd1eb6dE>
   24ce2:	b025      	add	sp, #148	@ 0x94
   24ce4:	bdf0      	pop	{r4, r5, r6, r7, pc}
   24ce6:	46c0      	nop			@ (mov r8, r8)
   24ce8:	000014d7 	.word	0x000014d7

00024cec <_ZN20complex_full_dynamic3app17hdd46635be358490eE>:
   24cec:	b5f0      	push	{r4, r5, r6, r7, lr}
   24cee:	af03      	add	r7, sp, #12
   24cf0:	b0b9      	sub	sp, #228	@ 0xe4
   24cf2:	9005      	str	r0, [sp, #20]
   24cf4:	ae06      	add	r6, sp, #24
   24cf6:	2002      	movs	r0, #2
   24cf8:	9004      	str	r0, [sp, #16]
   24cfa:	7230      	strb	r0, [r6, #8]
   24cfc:	360c      	adds	r6, #12
   24cfe:	2551      	movs	r5, #81	@ 0x51
   24d00:	4630      	mov	r0, r6
   24d02:	462a      	mov	r2, r5
   24d04:	f004 fc03 	bl	2950e <__aeabi_memcpy>
   24d08:	ac1e      	add	r4, sp, #120	@ 0x78
   24d0a:	4620      	mov	r0, r4
   24d0c:	300c      	adds	r0, #12
   24d0e:	214f      	movs	r1, #79	@ 0x4f
   24d10:	9003      	str	r0, [sp, #12]
   24d12:	9102      	str	r1, [sp, #8]
   24d14:	f004 fa4e 	bl	291b4 <__aeabi_memclr4>
   24d18:	9804      	ldr	r0, [sp, #16]
   24d1a:	7220      	strb	r0, [r4, #8]
   24d1c:	2404      	movs	r4, #4
   24d1e:	9500      	str	r5, [sp, #0]
   24d20:	9401      	str	r4, [sp, #4]
   24d22:	a835      	add	r0, sp, #212	@ 0xd4
   24d24:	4d2d      	ldr	r5, [pc, #180]	@ (24ddc <_ZN20complex_full_dynamic3app17hdd46635be358490eE+0xf0>)
   24d26:	4629      	mov	r1, r5
   24d28:	4622      	mov	r2, r4
   24d2a:	4633      	mov	r3, r6
   24d2c:	f004 fa2a 	bl	29184 <_ZN9allow_pin13dynamic_allow17h33d41317a2da4f1cE>
   24d30:	9835      	ldr	r0, [sp, #212]	@ 0xd4
   24d32:	2802      	cmp	r0, #2
   24d34:	d102      	bne.n	24d3c <_ZN20complex_full_dynamic3app17hdd46635be358490eE+0x50>
   24d36:	462e      	mov	r6, r5
   24d38:	9936      	ldr	r1, [sp, #216]	@ 0xd8
   24d3a:	e004      	b.n	24d46 <_ZN20complex_full_dynamic3app17hdd46635be358490eE+0x5a>
   24d3c:	a906      	add	r1, sp, #24
   24d3e:	720c      	strb	r4, [r1, #8]
   24d40:	9407      	str	r4, [sp, #28]
   24d42:	462e      	mov	r6, r5
   24d44:	9506      	str	r5, [sp, #24]
   24d46:	2501      	movs	r5, #1
   24d48:	2802      	cmp	r0, #2
   24d4a:	d02e      	beq.n	24daa <_ZN20complex_full_dynamic3app17hdd46635be358490eE+0xbe>
   24d4c:	a81e      	add	r0, sp, #120	@ 0x78
   24d4e:	7a00      	ldrb	r0, [r0, #8]
   24d50:	2103      	movs	r1, #3
   24d52:	2802      	cmp	r0, #2
   24d54:	d10e      	bne.n	24d74 <_ZN20complex_full_dynamic3app17hdd46635be358490eE+0x88>
   24d56:	9802      	ldr	r0, [sp, #8]
   24d58:	9000      	str	r0, [sp, #0]
   24d5a:	9104      	str	r1, [sp, #16]
   24d5c:	9101      	str	r1, [sp, #4]
   24d5e:	a835      	add	r0, sp, #212	@ 0xd4
   24d60:	2409      	movs	r4, #9
   24d62:	4631      	mov	r1, r6
   24d64:	4622      	mov	r2, r4
   24d66:	9b03      	ldr	r3, [sp, #12]
   24d68:	f004 fa0c 	bl	29184 <_ZN9allow_pin13dynamic_allow17h33d41317a2da4f1cE>
   24d6c:	9835      	ldr	r0, [sp, #212]	@ 0xd4
   24d6e:	2802      	cmp	r0, #2
   24d70:	d104      	bne.n	24d7c <_ZN20complex_full_dynamic3app17hdd46635be358490eE+0x90>
   24d72:	9936      	ldr	r1, [sp, #216]	@ 0xd8
   24d74:	4628      	mov	r0, r5
   24d76:	2800      	cmp	r0, #0
   24d78:	d008      	beq.n	24d8c <_ZN20complex_full_dynamic3app17hdd46635be358490eE+0xa0>
   24d7a:	e016      	b.n	24daa <_ZN20complex_full_dynamic3app17hdd46635be358490eE+0xbe>
   24d7c:	a81e      	add	r0, sp, #120	@ 0x78
   24d7e:	9904      	ldr	r1, [sp, #16]
   24d80:	7201      	strb	r1, [r0, #8]
   24d82:	941f      	str	r4, [sp, #124]	@ 0x7c
   24d84:	961e      	str	r6, [sp, #120]	@ 0x78
   24d86:	2000      	movs	r0, #0
   24d88:	2800      	cmp	r0, #0
   24d8a:	d10e      	bne.n	24daa <_ZN20complex_full_dynamic3app17hdd46635be358490eE+0xbe>
   24d8c:	4813      	ldr	r0, [pc, #76]	@ (24ddc <_ZN20complex_full_dynamic3app17hdd46635be358490eE+0xf0>)
   24d8e:	2104      	movs	r1, #4
   24d90:	2209      	movs	r2, #9
   24d92:	2400      	movs	r4, #0
   24d94:	4623      	mov	r3, r4
   24d96:	df02      	svc	2
   24d98:	287f      	cmp	r0, #127	@ 0x7f
   24d9a:	d906      	bls.n	24daa <_ZN20complex_full_dynamic3app17hdd46635be358490eE+0xbe>
   24d9c:	a806      	add	r0, sp, #24
   24d9e:	f004 f9dd 	bl	2915c <_ZN9allow_pin12full_dynamic17unshare_if_shared17h9f78cce76fd1eb6dE>
   24da2:	a81e      	add	r0, sp, #120	@ 0x78
   24da4:	f004 f9da 	bl	2915c <_ZN9allow_pin12full_dynamic17unshare_if_shared17h9f78cce76fd1eb6dE>
   24da8:	4625      	mov	r5, r4
   24daa:	2d00      	cmp	r5, #0
   24dac:	d003      	beq.n	24db6 <_ZN20complex_full_dynamic3app17hdd46635be358490eE+0xca>
   24dae:	9c05      	ldr	r4, [sp, #20]
   24db0:	6061      	str	r1, [r4, #4]
   24db2:	2001      	movs	r0, #1
   24db4:	e009      	b.n	24dca <_ZN20complex_full_dynamic3app17hdd46635be358490eE+0xde>
   24db6:	a81e      	add	r0, sp, #120	@ 0x78
   24db8:	f004 f9d0 	bl	2915c <_ZN9allow_pin12full_dynamic17unshare_if_shared17h9f78cce76fd1eb6dE>
   24dbc:	9c05      	ldr	r4, [sp, #20]
   24dbe:	1c60      	adds	r0, r4, #1
   24dc0:	224f      	movs	r2, #79	@ 0x4f
   24dc2:	9903      	ldr	r1, [sp, #12]
   24dc4:	f004 fba3 	bl	2950e <__aeabi_memcpy>
   24dc8:	2000      	movs	r0, #0
   24dca:	7020      	strb	r0, [r4, #0]
   24dcc:	a81e      	add	r0, sp, #120	@ 0x78
   24dce:	f004 f9c5 	bl	2915c <_ZN9allow_pin12full_dynamic17unshare_if_shared17h9f78cce76fd1eb6dE>
   24dd2:	a806      	add	r0, sp, #24
   24dd4:	f004 f9c2 	bl	2915c <_ZN9allow_pin12full_dynamic17unshare_if_shared17h9f78cce76fd1eb6dE>
   24dd8:	b039      	add	sp, #228	@ 0xe4
   24dda:	bdf0      	pop	{r4, r5, r6, r7, pc}
   24ddc:	000020ee 	.word	0x000020ee

00024de0 <_ZN20complex_full_dynamic3app17hded6404493d9370eE>:
   24de0:	b5f0      	push	{r4, r5, r6, r7, lr}
   24de2:	af03      	add	r7, sp, #12
   24de4:	b0a1      	sub	sp, #132	@ 0x84
   24de6:	9005      	str	r0, [sp, #20]
   24de8:	ae06      	add	r6, sp, #24
   24dea:	2002      	movs	r0, #2
   24dec:	9004      	str	r0, [sp, #16]
   24dee:	7230      	strb	r0, [r6, #8]
   24df0:	360c      	adds	r6, #12
   24df2:	251e      	movs	r5, #30
   24df4:	4630      	mov	r0, r6
   24df6:	462a      	mov	r2, r5
   24df8:	f004 fb89 	bl	2950e <__aeabi_memcpy>
   24dfc:	ac11      	add	r4, sp, #68	@ 0x44
   24dfe:	4620      	mov	r0, r4
   24e00:	300c      	adds	r0, #12
   24e02:	2121      	movs	r1, #33	@ 0x21
   24e04:	9003      	str	r0, [sp, #12]
   24e06:	9102      	str	r1, [sp, #8]
   24e08:	f004 f9d4 	bl	291b4 <__aeabi_memclr4>
   24e0c:	9804      	ldr	r0, [sp, #16]
   24e0e:	7220      	strb	r0, [r4, #8]
   24e10:	2404      	movs	r4, #4
   24e12:	9500      	str	r5, [sp, #0]
   24e14:	9401      	str	r4, [sp, #4]
   24e16:	a81d      	add	r0, sp, #116	@ 0x74
   24e18:	492e      	ldr	r1, [pc, #184]	@ (24ed4 <_ZN20complex_full_dynamic3app17hded6404493d9370eE+0xf4>)
   24e1a:	2506      	movs	r5, #6
   24e1c:	462a      	mov	r2, r5
   24e1e:	4633      	mov	r3, r6
   24e20:	f004 f9b0 	bl	29184 <_ZN9allow_pin13dynamic_allow17h33d41317a2da4f1cE>
   24e24:	981d      	ldr	r0, [sp, #116]	@ 0x74
   24e26:	2802      	cmp	r0, #2
   24e28:	d102      	bne.n	24e30 <_ZN20complex_full_dynamic3app17hded6404493d9370eE+0x50>
   24e2a:	991e      	ldr	r1, [sp, #120]	@ 0x78
   24e2c:	4a29      	ldr	r2, [pc, #164]	@ (24ed4 <_ZN20complex_full_dynamic3app17hded6404493d9370eE+0xf4>)
   24e2e:	e004      	b.n	24e3a <_ZN20complex_full_dynamic3app17hded6404493d9370eE+0x5a>
   24e30:	a906      	add	r1, sp, #24
   24e32:	720c      	strb	r4, [r1, #8]
   24e34:	9507      	str	r5, [sp, #28]
   24e36:	4a27      	ldr	r2, [pc, #156]	@ (24ed4 <_ZN20complex_full_dynamic3app17hded6404493d9370eE+0xf4>)
   24e38:	9206      	str	r2, [sp, #24]
   24e3a:	2501      	movs	r5, #1
   24e3c:	2802      	cmp	r0, #2
   24e3e:	d02f      	beq.n	24ea0 <_ZN20complex_full_dynamic3app17hded6404493d9370eE+0xc0>
   24e40:	a811      	add	r0, sp, #68	@ 0x44
   24e42:	7a00      	ldrb	r0, [r0, #8]
   24e44:	2802      	cmp	r0, #2
   24e46:	d10f      	bne.n	24e68 <_ZN20complex_full_dynamic3app17hded6404493d9370eE+0x88>
   24e48:	2603      	movs	r6, #3
   24e4a:	9802      	ldr	r0, [sp, #8]
   24e4c:	9000      	str	r0, [sp, #0]
   24e4e:	9601      	str	r6, [sp, #4]
   24e50:	a81d      	add	r0, sp, #116	@ 0x74
   24e52:	2409      	movs	r4, #9
   24e54:	4611      	mov	r1, r2
   24e56:	4622      	mov	r2, r4
   24e58:	9b03      	ldr	r3, [sp, #12]
   24e5a:	f004 f993 	bl	29184 <_ZN9allow_pin13dynamic_allow17h33d41317a2da4f1cE>
   24e5e:	981d      	ldr	r0, [sp, #116]	@ 0x74
   24e60:	2802      	cmp	r0, #2
   24e62:	d106      	bne.n	24e72 <_ZN20complex_full_dynamic3app17hded6404493d9370eE+0x92>
   24e64:	991e      	ldr	r1, [sp, #120]	@ 0x78
   24e66:	e000      	b.n	24e6a <_ZN20complex_full_dynamic3app17hded6404493d9370eE+0x8a>
   24e68:	2103      	movs	r1, #3
   24e6a:	4628      	mov	r0, r5
   24e6c:	2800      	cmp	r0, #0
   24e6e:	d008      	beq.n	24e82 <_ZN20complex_full_dynamic3app17hded6404493d9370eE+0xa2>
   24e70:	e016      	b.n	24ea0 <_ZN20complex_full_dynamic3app17hded6404493d9370eE+0xc0>
   24e72:	a811      	add	r0, sp, #68	@ 0x44
   24e74:	7206      	strb	r6, [r0, #8]
   24e76:	9412      	str	r4, [sp, #72]	@ 0x48
   24e78:	4816      	ldr	r0, [pc, #88]	@ (24ed4 <_ZN20complex_full_dynamic3app17hded6404493d9370eE+0xf4>)
   24e7a:	9011      	str	r0, [sp, #68]	@ 0x44
   24e7c:	2000      	movs	r0, #0
   24e7e:	2800      	cmp	r0, #0
   24e80:	d10e      	bne.n	24ea0 <_ZN20complex_full_dynamic3app17hded6404493d9370eE+0xc0>
   24e82:	4814      	ldr	r0, [pc, #80]	@ (24ed4 <_ZN20complex_full_dynamic3app17hded6404493d9370eE+0xf4>)
   24e84:	2106      	movs	r1, #6
   24e86:	2209      	movs	r2, #9
   24e88:	2400      	movs	r4, #0
   24e8a:	4623      	mov	r3, r4
   24e8c:	df02      	svc	2
   24e8e:	287f      	cmp	r0, #127	@ 0x7f
   24e90:	d906      	bls.n	24ea0 <_ZN20complex_full_dynamic3app17hded6404493d9370eE+0xc0>
   24e92:	a806      	add	r0, sp, #24
   24e94:	f004 f962 	bl	2915c <_ZN9allow_pin12full_dynamic17unshare_if_shared17h9f78cce76fd1eb6dE>
   24e98:	a811      	add	r0, sp, #68	@ 0x44
   24e9a:	f004 f95f 	bl	2915c <_ZN9allow_pin12full_dynamic17unshare_if_shared17h9f78cce76fd1eb6dE>
   24e9e:	4625      	mov	r5, r4
   24ea0:	2d00      	cmp	r5, #0
   24ea2:	d003      	beq.n	24eac <_ZN20complex_full_dynamic3app17hded6404493d9370eE+0xcc>
   24ea4:	9c05      	ldr	r4, [sp, #20]
   24ea6:	6061      	str	r1, [r4, #4]
   24ea8:	2001      	movs	r0, #1
   24eaa:	e009      	b.n	24ec0 <_ZN20complex_full_dynamic3app17hded6404493d9370eE+0xe0>
   24eac:	a811      	add	r0, sp, #68	@ 0x44
   24eae:	f004 f955 	bl	2915c <_ZN9allow_pin12full_dynamic17unshare_if_shared17h9f78cce76fd1eb6dE>
   24eb2:	9c05      	ldr	r4, [sp, #20]
   24eb4:	1c60      	adds	r0, r4, #1
   24eb6:	2221      	movs	r2, #33	@ 0x21
   24eb8:	9903      	ldr	r1, [sp, #12]
   24eba:	f004 fb28 	bl	2950e <__aeabi_memcpy>
   24ebe:	2000      	movs	r0, #0
   24ec0:	7020      	strb	r0, [r4, #0]
   24ec2:	a811      	add	r0, sp, #68	@ 0x44
   24ec4:	f004 f94a 	bl	2915c <_ZN9allow_pin12full_dynamic17unshare_if_shared17h9f78cce76fd1eb6dE>
   24ec8:	a806      	add	r0, sp, #24
   24eca:	f004 f947 	bl	2915c <_ZN9allow_pin12full_dynamic17unshare_if_shared17h9f78cce76fd1eb6dE>
   24ece:	b021      	add	sp, #132	@ 0x84
   24ed0:	bdf0      	pop	{r4, r5, r6, r7, pc}
   24ed2:	46c0      	nop			@ (mov r8, r8)
   24ed4:	000019b5 	.word	0x000019b5

00024ed8 <_ZN20complex_full_dynamic3app17he0d53632a2e98b6dE>:
   24ed8:	b5f0      	push	{r4, r5, r6, r7, lr}
   24eda:	af03      	add	r7, sp, #12
   24edc:	b0ad      	sub	sp, #180	@ 0xb4
   24ede:	9005      	str	r0, [sp, #20]
   24ee0:	ad06      	add	r5, sp, #24
   24ee2:	2002      	movs	r0, #2
   24ee4:	9004      	str	r0, [sp, #16]
   24ee6:	7228      	strb	r0, [r5, #8]
   24ee8:	350c      	adds	r5, #12
   24eea:	263c      	movs	r6, #60	@ 0x3c
   24eec:	4628      	mov	r0, r5
   24eee:	4632      	mov	r2, r6
   24ef0:	f004 fb0d 	bl	2950e <__aeabi_memcpy>
   24ef4:	ac18      	add	r4, sp, #96	@ 0x60
   24ef6:	4620      	mov	r0, r4
   24ef8:	300c      	adds	r0, #12
   24efa:	2138      	movs	r1, #56	@ 0x38
   24efc:	9003      	str	r0, [sp, #12]
   24efe:	9102      	str	r1, [sp, #8]
   24f00:	f004 f958 	bl	291b4 <__aeabi_memclr4>
   24f04:	9804      	ldr	r0, [sp, #16]
   24f06:	7220      	strb	r0, [r4, #8]
   24f08:	2404      	movs	r4, #4
   24f0a:	9600      	str	r6, [sp, #0]
   24f0c:	9401      	str	r4, [sp, #4]
   24f0e:	a829      	add	r0, sp, #164	@ 0xa4
   24f10:	492d      	ldr	r1, [pc, #180]	@ (24fc8 <_ZN20complex_full_dynamic3app17he0d53632a2e98b6dE+0xf0>)
   24f12:	2603      	movs	r6, #3
   24f14:	4632      	mov	r2, r6
   24f16:	462b      	mov	r3, r5
   24f18:	f004 f934 	bl	29184 <_ZN9allow_pin13dynamic_allow17h33d41317a2da4f1cE>
   24f1c:	9829      	ldr	r0, [sp, #164]	@ 0xa4
   24f1e:	2802      	cmp	r0, #2
   24f20:	d102      	bne.n	24f28 <_ZN20complex_full_dynamic3app17he0d53632a2e98b6dE+0x50>
   24f22:	992a      	ldr	r1, [sp, #168]	@ 0xa8
   24f24:	4c28      	ldr	r4, [pc, #160]	@ (24fc8 <_ZN20complex_full_dynamic3app17he0d53632a2e98b6dE+0xf0>)
   24f26:	e004      	b.n	24f32 <_ZN20complex_full_dynamic3app17he0d53632a2e98b6dE+0x5a>
   24f28:	a906      	add	r1, sp, #24
   24f2a:	720c      	strb	r4, [r1, #8]
   24f2c:	9607      	str	r6, [sp, #28]
   24f2e:	4c26      	ldr	r4, [pc, #152]	@ (24fc8 <_ZN20complex_full_dynamic3app17he0d53632a2e98b6dE+0xf0>)
   24f30:	9406      	str	r4, [sp, #24]
   24f32:	2501      	movs	r5, #1
   24f34:	2802      	cmp	r0, #2
   24f36:	d02d      	beq.n	24f94 <_ZN20complex_full_dynamic3app17he0d53632a2e98b6dE+0xbc>
   24f38:	a818      	add	r0, sp, #96	@ 0x60
   24f3a:	7a00      	ldrb	r0, [r0, #8]
   24f3c:	2802      	cmp	r0, #2
   24f3e:	4628      	mov	r0, r5
   24f40:	d10e      	bne.n	24f60 <_ZN20complex_full_dynamic3app17he0d53632a2e98b6dE+0x88>
   24f42:	2603      	movs	r6, #3
   24f44:	9802      	ldr	r0, [sp, #8]
   24f46:	9000      	str	r0, [sp, #0]
   24f48:	9601      	str	r6, [sp, #4]
   24f4a:	a829      	add	r0, sp, #164	@ 0xa4
   24f4c:	4621      	mov	r1, r4
   24f4e:	4632      	mov	r2, r6
   24f50:	9b03      	ldr	r3, [sp, #12]
   24f52:	f004 f917 	bl	29184 <_ZN9allow_pin13dynamic_allow17h33d41317a2da4f1cE>
   24f56:	9829      	ldr	r0, [sp, #164]	@ 0xa4
   24f58:	2802      	cmp	r0, #2
   24f5a:	d105      	bne.n	24f68 <_ZN20complex_full_dynamic3app17he0d53632a2e98b6dE+0x90>
   24f5c:	9e2a      	ldr	r6, [sp, #168]	@ 0xa8
   24f5e:	4628      	mov	r0, r5
   24f60:	2800      	cmp	r0, #0
   24f62:	d008      	beq.n	24f76 <_ZN20complex_full_dynamic3app17he0d53632a2e98b6dE+0x9e>
   24f64:	4631      	mov	r1, r6
   24f66:	e015      	b.n	24f94 <_ZN20complex_full_dynamic3app17he0d53632a2e98b6dE+0xbc>
   24f68:	a818      	add	r0, sp, #96	@ 0x60
   24f6a:	7206      	strb	r6, [r0, #8]
   24f6c:	9619      	str	r6, [sp, #100]	@ 0x64
   24f6e:	9418      	str	r4, [sp, #96]	@ 0x60
   24f70:	2000      	movs	r0, #0
   24f72:	2800      	cmp	r0, #0
   24f74:	d1f6      	bne.n	24f64 <_ZN20complex_full_dynamic3app17he0d53632a2e98b6dE+0x8c>
   24f76:	4814      	ldr	r0, [pc, #80]	@ (24fc8 <_ZN20complex_full_dynamic3app17he0d53632a2e98b6dE+0xf0>)
   24f78:	2103      	movs	r1, #3
   24f7a:	2400      	movs	r4, #0
   24f7c:	460a      	mov	r2, r1
   24f7e:	4623      	mov	r3, r4
   24f80:	df02      	svc	2
   24f82:	287f      	cmp	r0, #127	@ 0x7f
   24f84:	d906      	bls.n	24f94 <_ZN20complex_full_dynamic3app17he0d53632a2e98b6dE+0xbc>
   24f86:	a806      	add	r0, sp, #24
   24f88:	f004 f8e8 	bl	2915c <_ZN9allow_pin12full_dynamic17unshare_if_shared17h9f78cce76fd1eb6dE>
   24f8c:	a818      	add	r0, sp, #96	@ 0x60
   24f8e:	f004 f8e5 	bl	2915c <_ZN9allow_pin12full_dynamic17unshare_if_shared17h9f78cce76fd1eb6dE>
   24f92:	4625      	mov	r5, r4
   24f94:	2d00      	cmp	r5, #0
   24f96:	d003      	beq.n	24fa0 <_ZN20complex_full_dynamic3app17he0d53632a2e98b6dE+0xc8>
   24f98:	9c05      	ldr	r4, [sp, #20]
   24f9a:	6061      	str	r1, [r4, #4]
   24f9c:	2001      	movs	r0, #1
   24f9e:	e009      	b.n	24fb4 <_ZN20complex_full_dynamic3app17he0d53632a2e98b6dE+0xdc>
   24fa0:	a818      	add	r0, sp, #96	@ 0x60
   24fa2:	f004 f8db 	bl	2915c <_ZN9allow_pin12full_dynamic17unshare_if_shared17h9f78cce76fd1eb6dE>
   24fa6:	9c05      	ldr	r4, [sp, #20]
   24fa8:	1c60      	adds	r0, r4, #1
   24faa:	2238      	movs	r2, #56	@ 0x38
   24fac:	9903      	ldr	r1, [sp, #12]
   24fae:	f004 faae 	bl	2950e <__aeabi_memcpy>
   24fb2:	2000      	movs	r0, #0
   24fb4:	7020      	strb	r0, [r4, #0]
   24fb6:	a818      	add	r0, sp, #96	@ 0x60
   24fb8:	f004 f8d0 	bl	2915c <_ZN9allow_pin12full_dynamic17unshare_if_shared17h9f78cce76fd1eb6dE>
   24fbc:	a806      	add	r0, sp, #24
   24fbe:	f004 f8cd 	bl	2915c <_ZN9allow_pin12full_dynamic17unshare_if_shared17h9f78cce76fd1eb6dE>
   24fc2:	b02d      	add	sp, #180	@ 0xb4
   24fc4:	bdf0      	pop	{r4, r5, r6, r7, pc}
   24fc6:	46c0      	nop			@ (mov r8, r8)
   24fc8:	00001d19 	.word	0x00001d19

00024fcc <_ZN20complex_full_dynamic3app17he182f159b366839fE>:
   24fcc:	b5f0      	push	{r4, r5, r6, r7, lr}
   24fce:	af03      	add	r7, sp, #12
   24fd0:	b0ab      	sub	sp, #172	@ 0xac
   24fd2:	9005      	str	r0, [sp, #20]
   24fd4:	ae06      	add	r6, sp, #24
   24fd6:	2002      	movs	r0, #2
   24fd8:	9004      	str	r0, [sp, #16]
   24fda:	7230      	strb	r0, [r6, #8]
   24fdc:	360c      	adds	r6, #12
   24fde:	251a      	movs	r5, #26
   24fe0:	4630      	mov	r0, r6
   24fe2:	462a      	mov	r2, r5
   24fe4:	f004 fa93 	bl	2950e <__aeabi_memcpy>
   24fe8:	ac10      	add	r4, sp, #64	@ 0x40
   24fea:	4620      	mov	r0, r4
   24fec:	300c      	adds	r0, #12
   24fee:	2150      	movs	r1, #80	@ 0x50
   24ff0:	9003      	str	r0, [sp, #12]
   24ff2:	9102      	str	r1, [sp, #8]
   24ff4:	f004 f8de 	bl	291b4 <__aeabi_memclr4>
   24ff8:	9804      	ldr	r0, [sp, #16]
   24ffa:	7220      	strb	r0, [r4, #8]
   24ffc:	2404      	movs	r4, #4
   24ffe:	9500      	str	r5, [sp, #0]
   25000:	9401      	str	r4, [sp, #4]
   25002:	a827      	add	r0, sp, #156	@ 0x9c
   25004:	492e      	ldr	r1, [pc, #184]	@ (250c0 <_ZN20complex_full_dynamic3app17he182f159b366839fE+0xf4>)
   25006:	2507      	movs	r5, #7
   25008:	462a      	mov	r2, r5
   2500a:	4633      	mov	r3, r6
   2500c:	f004 f8ba 	bl	29184 <_ZN9allow_pin13dynamic_allow17h33d41317a2da4f1cE>
   25010:	9827      	ldr	r0, [sp, #156]	@ 0x9c
   25012:	2802      	cmp	r0, #2
   25014:	d102      	bne.n	2501c <_ZN20complex_full_dynamic3app17he182f159b366839fE+0x50>
   25016:	9928      	ldr	r1, [sp, #160]	@ 0xa0
   25018:	4a29      	ldr	r2, [pc, #164]	@ (250c0 <_ZN20complex_full_dynamic3app17he182f159b366839fE+0xf4>)
   2501a:	e004      	b.n	25026 <_ZN20complex_full_dynamic3app17he182f159b366839fE+0x5a>
   2501c:	a906      	add	r1, sp, #24
   2501e:	720c      	strb	r4, [r1, #8]
   25020:	9507      	str	r5, [sp, #28]
   25022:	4a27      	ldr	r2, [pc, #156]	@ (250c0 <_ZN20complex_full_dynamic3app17he182f159b366839fE+0xf4>)
   25024:	9206      	str	r2, [sp, #24]
   25026:	2501      	movs	r5, #1
   25028:	2802      	cmp	r0, #2
   2502a:	d02f      	beq.n	2508c <_ZN20complex_full_dynamic3app17he182f159b366839fE+0xc0>
   2502c:	a810      	add	r0, sp, #64	@ 0x40
   2502e:	7a00      	ldrb	r0, [r0, #8]
   25030:	2802      	cmp	r0, #2
   25032:	d10f      	bne.n	25054 <_ZN20complex_full_dynamic3app17he182f159b366839fE+0x88>
   25034:	2603      	movs	r6, #3
   25036:	9802      	ldr	r0, [sp, #8]
   25038:	9000      	str	r0, [sp, #0]
   2503a:	9601      	str	r6, [sp, #4]
   2503c:	a827      	add	r0, sp, #156	@ 0x9c
   2503e:	2404      	movs	r4, #4
   25040:	4611      	mov	r1, r2
   25042:	4622      	mov	r2, r4
   25044:	9b03      	ldr	r3, [sp, #12]
   25046:	f004 f89d 	bl	29184 <_ZN9allow_pin13dynamic_allow17h33d41317a2da4f1cE>
   2504a:	9827      	ldr	r0, [sp, #156]	@ 0x9c
   2504c:	2802      	cmp	r0, #2
   2504e:	d106      	bne.n	2505e <_ZN20complex_full_dynamic3app17he182f159b366839fE+0x92>
   25050:	9928      	ldr	r1, [sp, #160]	@ 0xa0
   25052:	e000      	b.n	25056 <_ZN20complex_full_dynamic3app17he182f159b366839fE+0x8a>
   25054:	2103      	movs	r1, #3
   25056:	4628      	mov	r0, r5
   25058:	2800      	cmp	r0, #0
   2505a:	d008      	beq.n	2506e <_ZN20complex_full_dynamic3app17he182f159b366839fE+0xa2>
   2505c:	e016      	b.n	2508c <_ZN20complex_full_dynamic3app17he182f159b366839fE+0xc0>
   2505e:	a810      	add	r0, sp, #64	@ 0x40
   25060:	7206      	strb	r6, [r0, #8]
   25062:	9411      	str	r4, [sp, #68]	@ 0x44
   25064:	4816      	ldr	r0, [pc, #88]	@ (250c0 <_ZN20complex_full_dynamic3app17he182f159b366839fE+0xf4>)
   25066:	9010      	str	r0, [sp, #64]	@ 0x40
   25068:	2000      	movs	r0, #0
   2506a:	2800      	cmp	r0, #0
   2506c:	d10e      	bne.n	2508c <_ZN20complex_full_dynamic3app17he182f159b366839fE+0xc0>
   2506e:	4814      	ldr	r0, [pc, #80]	@ (250c0 <_ZN20complex_full_dynamic3app17he182f159b366839fE+0xf4>)
   25070:	2107      	movs	r1, #7
   25072:	2204      	movs	r2, #4
   25074:	2400      	movs	r4, #0
   25076:	4623      	mov	r3, r4
   25078:	df02      	svc	2
   2507a:	287f      	cmp	r0, #127	@ 0x7f
   2507c:	d906      	bls.n	2508c <_ZN20complex_full_dynamic3app17he182f159b366839fE+0xc0>
   2507e:	a806      	add	r0, sp, #24
   25080:	f004 f86c 	bl	2915c <_ZN9allow_pin12full_dynamic17unshare_if_shared17h9f78cce76fd1eb6dE>
   25084:	a810      	add	r0, sp, #64	@ 0x40
   25086:	f004 f869 	bl	2915c <_ZN9allow_pin12full_dynamic17unshare_if_shared17h9f78cce76fd1eb6dE>
   2508a:	4625      	mov	r5, r4
   2508c:	2d00      	cmp	r5, #0
   2508e:	d003      	beq.n	25098 <_ZN20complex_full_dynamic3app17he182f159b366839fE+0xcc>
   25090:	9c05      	ldr	r4, [sp, #20]
   25092:	6061      	str	r1, [r4, #4]
   25094:	2001      	movs	r0, #1
   25096:	e009      	b.n	250ac <_ZN20complex_full_dynamic3app17he182f159b366839fE+0xe0>
   25098:	a810      	add	r0, sp, #64	@ 0x40
   2509a:	f004 f85f 	bl	2915c <_ZN9allow_pin12full_dynamic17unshare_if_shared17h9f78cce76fd1eb6dE>
   2509e:	9c05      	ldr	r4, [sp, #20]
   250a0:	1c60      	adds	r0, r4, #1
   250a2:	2250      	movs	r2, #80	@ 0x50
   250a4:	9903      	ldr	r1, [sp, #12]
   250a6:	f004 fa32 	bl	2950e <__aeabi_memcpy>
   250aa:	2000      	movs	r0, #0
   250ac:	7020      	strb	r0, [r4, #0]
   250ae:	a810      	add	r0, sp, #64	@ 0x40
   250b0:	f004 f854 	bl	2915c <_ZN9allow_pin12full_dynamic17unshare_if_shared17h9f78cce76fd1eb6dE>
   250b4:	a806      	add	r0, sp, #24
   250b6:	f004 f851 	bl	2915c <_ZN9allow_pin12full_dynamic17unshare_if_shared17h9f78cce76fd1eb6dE>
   250ba:	b02b      	add	sp, #172	@ 0xac
   250bc:	bdf0      	pop	{r4, r5, r6, r7, pc}
   250be:	46c0      	nop			@ (mov r8, r8)
   250c0:	00000aee 	.word	0x00000aee

000250c4 <_ZN20complex_full_dynamic3app17he1fe9a1b38359f2fE>:
   250c4:	b5f0      	push	{r4, r5, r6, r7, lr}
   250c6:	af03      	add	r7, sp, #12
   250c8:	b0a7      	sub	sp, #156	@ 0x9c
   250ca:	9006      	str	r0, [sp, #24]
   250cc:	ad07      	add	r5, sp, #28
   250ce:	2002      	movs	r0, #2
   250d0:	9005      	str	r0, [sp, #20]
   250d2:	7228      	strb	r0, [r5, #8]
   250d4:	350c      	adds	r5, #12
   250d6:	262c      	movs	r6, #44	@ 0x2c
   250d8:	4628      	mov	r0, r5
   250da:	4632      	mov	r2, r6
   250dc:	f004 fa17 	bl	2950e <__aeabi_memcpy>
   250e0:	ac15      	add	r4, sp, #84	@ 0x54
   250e2:	4620      	mov	r0, r4
   250e4:	300c      	adds	r0, #12
   250e6:	212a      	movs	r1, #42	@ 0x2a
   250e8:	9004      	str	r0, [sp, #16]
   250ea:	9103      	str	r1, [sp, #12]
   250ec:	f004 f862 	bl	291b4 <__aeabi_memclr4>
   250f0:	9805      	ldr	r0, [sp, #20]
   250f2:	7220      	strb	r0, [r4, #8]
   250f4:	2404      	movs	r4, #4
   250f6:	9600      	str	r6, [sp, #0]
   250f8:	9401      	str	r4, [sp, #4]
   250fa:	a823      	add	r0, sp, #140	@ 0x8c
   250fc:	4932      	ldr	r1, [pc, #200]	@ (251c8 <_ZN20complex_full_dynamic3app17he1fe9a1b38359f2fE+0x104>)
   250fe:	2603      	movs	r6, #3
   25100:	4632      	mov	r2, r6
   25102:	462b      	mov	r3, r5
   25104:	f004 f83e 	bl	29184 <_ZN9allow_pin13dynamic_allow17h33d41317a2da4f1cE>
   25108:	9823      	ldr	r0, [sp, #140]	@ 0x8c
   2510a:	2802      	cmp	r0, #2
   2510c:	d102      	bne.n	25114 <_ZN20complex_full_dynamic3app17he1fe9a1b38359f2fE+0x50>
   2510e:	4a2e      	ldr	r2, [pc, #184]	@ (251c8 <_ZN20complex_full_dynamic3app17he1fe9a1b38359f2fE+0x104>)
   25110:	9924      	ldr	r1, [sp, #144]	@ 0x90
   25112:	e005      	b.n	25120 <_ZN20complex_full_dynamic3app17he1fe9a1b38359f2fE+0x5c>
   25114:	a907      	add	r1, sp, #28
   25116:	720c      	strb	r4, [r1, #8]
   25118:	9608      	str	r6, [sp, #32]
   2511a:	492b      	ldr	r1, [pc, #172]	@ (251c8 <_ZN20complex_full_dynamic3app17he1fe9a1b38359f2fE+0x104>)
   2511c:	460a      	mov	r2, r1
   2511e:	9107      	str	r1, [sp, #28]
   25120:	2401      	movs	r4, #1
   25122:	2802      	cmp	r0, #2
   25124:	d01a      	beq.n	2515c <_ZN20complex_full_dynamic3app17he1fe9a1b38359f2fE+0x98>
   25126:	a815      	add	r0, sp, #84	@ 0x54
   25128:	7a00      	ldrb	r0, [r0, #8]
   2512a:	2802      	cmp	r0, #2
   2512c:	4625      	mov	r5, r4
   2512e:	d112      	bne.n	25156 <_ZN20complex_full_dynamic3app17he1fe9a1b38359f2fE+0x92>
   25130:	9405      	str	r4, [sp, #20]
   25132:	2403      	movs	r4, #3
   25134:	9803      	ldr	r0, [sp, #12]
   25136:	9000      	str	r0, [sp, #0]
   25138:	9401      	str	r4, [sp, #4]
   2513a:	a823      	add	r0, sp, #140	@ 0x8c
   2513c:	2500      	movs	r5, #0
   2513e:	4616      	mov	r6, r2
   25140:	4611      	mov	r1, r2
   25142:	462a      	mov	r2, r5
   25144:	9b04      	ldr	r3, [sp, #16]
   25146:	f004 f81d 	bl	29184 <_ZN9allow_pin13dynamic_allow17h33d41317a2da4f1cE>
   2514a:	9823      	ldr	r0, [sp, #140]	@ 0x8c
   2514c:	2802      	cmp	r0, #2
   2514e:	d10b      	bne.n	25168 <_ZN20complex_full_dynamic3app17he1fe9a1b38359f2fE+0xa4>
   25150:	9e24      	ldr	r6, [sp, #144]	@ 0x90
   25152:	9c05      	ldr	r4, [sp, #20]
   25154:	4625      	mov	r5, r4
   25156:	2d00      	cmp	r5, #0
   25158:	d00d      	beq.n	25176 <_ZN20complex_full_dynamic3app17he1fe9a1b38359f2fE+0xb2>
   2515a:	4631      	mov	r1, r6
   2515c:	9d06      	ldr	r5, [sp, #24]
   2515e:	2c00      	cmp	r4, #0
   25160:	d01f      	beq.n	251a2 <_ZN20complex_full_dynamic3app17he1fe9a1b38359f2fE+0xde>
   25162:	6069      	str	r1, [r5, #4]
   25164:	2001      	movs	r0, #1
   25166:	e025      	b.n	251b4 <_ZN20complex_full_dynamic3app17he1fe9a1b38359f2fE+0xf0>
   25168:	a815      	add	r0, sp, #84	@ 0x54
   2516a:	7204      	strb	r4, [r0, #8]
   2516c:	9516      	str	r5, [sp, #88]	@ 0x58
   2516e:	9615      	str	r6, [sp, #84]	@ 0x54
   25170:	9c05      	ldr	r4, [sp, #20]
   25172:	2d00      	cmp	r5, #0
   25174:	d1f1      	bne.n	2515a <_ZN20complex_full_dynamic3app17he1fe9a1b38359f2fE+0x96>
   25176:	4626      	mov	r6, r4
   25178:	4813      	ldr	r0, [pc, #76]	@ (251c8 <_ZN20complex_full_dynamic3app17he1fe9a1b38359f2fE+0x104>)
   2517a:	2103      	movs	r1, #3
   2517c:	2400      	movs	r4, #0
   2517e:	4622      	mov	r2, r4
   25180:	4623      	mov	r3, r4
   25182:	df02      	svc	2
   25184:	287f      	cmp	r0, #127	@ 0x7f
   25186:	9d06      	ldr	r5, [sp, #24]
   25188:	d803      	bhi.n	25192 <_ZN20complex_full_dynamic3app17he1fe9a1b38359f2fE+0xce>
   2518a:	4634      	mov	r4, r6
   2518c:	2c00      	cmp	r4, #0
   2518e:	d1e8      	bne.n	25162 <_ZN20complex_full_dynamic3app17he1fe9a1b38359f2fE+0x9e>
   25190:	e007      	b.n	251a2 <_ZN20complex_full_dynamic3app17he1fe9a1b38359f2fE+0xde>
   25192:	a807      	add	r0, sp, #28
   25194:	f003 ffe2 	bl	2915c <_ZN9allow_pin12full_dynamic17unshare_if_shared17h9f78cce76fd1eb6dE>
   25198:	a815      	add	r0, sp, #84	@ 0x54
   2519a:	f003 ffdf 	bl	2915c <_ZN9allow_pin12full_dynamic17unshare_if_shared17h9f78cce76fd1eb6dE>
   2519e:	2c00      	cmp	r4, #0
   251a0:	d1df      	bne.n	25162 <_ZN20complex_full_dynamic3app17he1fe9a1b38359f2fE+0x9e>
   251a2:	a815      	add	r0, sp, #84	@ 0x54
   251a4:	f003 ffda 	bl	2915c <_ZN9allow_pin12full_dynamic17unshare_if_shared17h9f78cce76fd1eb6dE>
   251a8:	1c68      	adds	r0, r5, #1
   251aa:	222a      	movs	r2, #42	@ 0x2a
   251ac:	9904      	ldr	r1, [sp, #16]
   251ae:	f004 f9ae 	bl	2950e <__aeabi_memcpy>
   251b2:	2000      	movs	r0, #0
   251b4:	7028      	strb	r0, [r5, #0]
   251b6:	a815      	add	r0, sp, #84	@ 0x54
   251b8:	f003 ffd0 	bl	2915c <_ZN9allow_pin12full_dynamic17unshare_if_shared17h9f78cce76fd1eb6dE>
   251bc:	a807      	add	r0, sp, #28
   251be:	f003 ffcd 	bl	2915c <_ZN9allow_pin12full_dynamic17unshare_if_shared17h9f78cce76fd1eb6dE>
   251c2:	b027      	add	sp, #156	@ 0x9c
   251c4:	bdf0      	pop	{r4, r5, r6, r7, pc}
   251c6:	46c0      	nop			@ (mov r8, r8)
   251c8:	000024f0 	.word	0x000024f0

000251cc <_ZN20complex_full_dynamic3app17he3b7a13fbd286824E>:
   251cc:	b5f0      	push	{r4, r5, r6, r7, lr}
   251ce:	af03      	add	r7, sp, #12
   251d0:	b0ad      	sub	sp, #180	@ 0xb4
   251d2:	9006      	str	r0, [sp, #24]
   251d4:	ae07      	add	r6, sp, #28
   251d6:	2002      	movs	r0, #2
   251d8:	9005      	str	r0, [sp, #20]
   251da:	7230      	strb	r0, [r6, #8]
   251dc:	360c      	adds	r6, #12
   251de:	253c      	movs	r5, #60	@ 0x3c
   251e0:	4630      	mov	r0, r6
   251e2:	462a      	mov	r2, r5
   251e4:	f004 f993 	bl	2950e <__aeabi_memcpy>
   251e8:	ac19      	add	r4, sp, #100	@ 0x64
   251ea:	4620      	mov	r0, r4
   251ec:	300c      	adds	r0, #12
   251ee:	2132      	movs	r1, #50	@ 0x32
   251f0:	9004      	str	r0, [sp, #16]
   251f2:	9103      	str	r1, [sp, #12]
   251f4:	f003 ffde 	bl	291b4 <__aeabi_memclr4>
   251f8:	9805      	ldr	r0, [sp, #20]
   251fa:	7220      	strb	r0, [r4, #8]
   251fc:	2404      	movs	r4, #4
   251fe:	9500      	str	r5, [sp, #0]
   25200:	9401      	str	r4, [sp, #4]
   25202:	a829      	add	r0, sp, #164	@ 0xa4
   25204:	492e      	ldr	r1, [pc, #184]	@ (252c0 <_ZN20complex_full_dynamic3app17he3b7a13fbd286824E+0xf4>)
   25206:	2506      	movs	r5, #6
   25208:	462a      	mov	r2, r5
   2520a:	4633      	mov	r3, r6
   2520c:	f003 ffba 	bl	29184 <_ZN9allow_pin13dynamic_allow17h33d41317a2da4f1cE>
   25210:	9829      	ldr	r0, [sp, #164]	@ 0xa4
   25212:	2802      	cmp	r0, #2
   25214:	d102      	bne.n	2521c <_ZN20complex_full_dynamic3app17he3b7a13fbd286824E+0x50>
   25216:	992a      	ldr	r1, [sp, #168]	@ 0xa8
   25218:	4a29      	ldr	r2, [pc, #164]	@ (252c0 <_ZN20complex_full_dynamic3app17he3b7a13fbd286824E+0xf4>)
   2521a:	e004      	b.n	25226 <_ZN20complex_full_dynamic3app17he3b7a13fbd286824E+0x5a>
   2521c:	a907      	add	r1, sp, #28
   2521e:	720c      	strb	r4, [r1, #8]
   25220:	9508      	str	r5, [sp, #32]
   25222:	4a27      	ldr	r2, [pc, #156]	@ (252c0 <_ZN20complex_full_dynamic3app17he3b7a13fbd286824E+0xf4>)
   25224:	9207      	str	r2, [sp, #28]
   25226:	2501      	movs	r5, #1
   25228:	2802      	cmp	r0, #2
   2522a:	d02f      	beq.n	2528c <_ZN20complex_full_dynamic3app17he3b7a13fbd286824E+0xc0>
   2522c:	a819      	add	r0, sp, #100	@ 0x64
   2522e:	7a00      	ldrb	r0, [r0, #8]
   25230:	2802      	cmp	r0, #2
   25232:	d10f      	bne.n	25254 <_ZN20complex_full_dynamic3app17he3b7a13fbd286824E+0x88>
   25234:	2603      	movs	r6, #3
   25236:	9803      	ldr	r0, [sp, #12]
   25238:	9000      	str	r0, [sp, #0]
   2523a:	9601      	str	r6, [sp, #4]
   2523c:	a829      	add	r0, sp, #164	@ 0xa4
   2523e:	2408      	movs	r4, #8
   25240:	4611      	mov	r1, r2
   25242:	4622      	mov	r2, r4
   25244:	9b04      	ldr	r3, [sp, #16]
   25246:	f003 ff9d 	bl	29184 <_ZN9allow_pin13dynamic_allow17h33d41317a2da4f1cE>
   2524a:	9829      	ldr	r0, [sp, #164]	@ 0xa4
   2524c:	2802      	cmp	r0, #2
   2524e:	d106      	bne.n	2525e <_ZN20complex_full_dynamic3app17he3b7a13fbd286824E+0x92>
   25250:	992a      	ldr	r1, [sp, #168]	@ 0xa8
   25252:	e000      	b.n	25256 <_ZN20complex_full_dynamic3app17he3b7a13fbd286824E+0x8a>
   25254:	2103      	movs	r1, #3
   25256:	4628      	mov	r0, r5
   25258:	2800      	cmp	r0, #0
   2525a:	d008      	beq.n	2526e <_ZN20complex_full_dynamic3app17he3b7a13fbd286824E+0xa2>
   2525c:	e016      	b.n	2528c <_ZN20complex_full_dynamic3app17he3b7a13fbd286824E+0xc0>
   2525e:	a819      	add	r0, sp, #100	@ 0x64
   25260:	7206      	strb	r6, [r0, #8]
   25262:	941a      	str	r4, [sp, #104]	@ 0x68
   25264:	4816      	ldr	r0, [pc, #88]	@ (252c0 <_ZN20complex_full_dynamic3app17he3b7a13fbd286824E+0xf4>)
   25266:	9019      	str	r0, [sp, #100]	@ 0x64
   25268:	2000      	movs	r0, #0
   2526a:	2800      	cmp	r0, #0
   2526c:	d10e      	bne.n	2528c <_ZN20complex_full_dynamic3app17he3b7a13fbd286824E+0xc0>
   2526e:	4814      	ldr	r0, [pc, #80]	@ (252c0 <_ZN20complex_full_dynamic3app17he3b7a13fbd286824E+0xf4>)
   25270:	2106      	movs	r1, #6
   25272:	2208      	movs	r2, #8
   25274:	2400      	movs	r4, #0
   25276:	4623      	mov	r3, r4
   25278:	df02      	svc	2
   2527a:	287f      	cmp	r0, #127	@ 0x7f
   2527c:	d906      	bls.n	2528c <_ZN20complex_full_dynamic3app17he3b7a13fbd286824E+0xc0>
   2527e:	a807      	add	r0, sp, #28
   25280:	f003 ff6c 	bl	2915c <_ZN9allow_pin12full_dynamic17unshare_if_shared17h9f78cce76fd1eb6dE>
   25284:	a819      	add	r0, sp, #100	@ 0x64
   25286:	f003 ff69 	bl	2915c <_ZN9allow_pin12full_dynamic17unshare_if_shared17h9f78cce76fd1eb6dE>
   2528a:	4625      	mov	r5, r4
   2528c:	2d00      	cmp	r5, #0
   2528e:	d003      	beq.n	25298 <_ZN20complex_full_dynamic3app17he3b7a13fbd286824E+0xcc>
   25290:	9c06      	ldr	r4, [sp, #24]
   25292:	6061      	str	r1, [r4, #4]
   25294:	2001      	movs	r0, #1
   25296:	e009      	b.n	252ac <_ZN20complex_full_dynamic3app17he3b7a13fbd286824E+0xe0>
   25298:	a819      	add	r0, sp, #100	@ 0x64
   2529a:	f003 ff5f 	bl	2915c <_ZN9allow_pin12full_dynamic17unshare_if_shared17h9f78cce76fd1eb6dE>
   2529e:	9c06      	ldr	r4, [sp, #24]
   252a0:	1c60      	adds	r0, r4, #1
   252a2:	2232      	movs	r2, #50	@ 0x32
   252a4:	9904      	ldr	r1, [sp, #16]
   252a6:	f004 f932 	bl	2950e <__aeabi_memcpy>
   252aa:	2000      	movs	r0, #0
   252ac:	7020      	strb	r0, [r4, #0]
   252ae:	a819      	add	r0, sp, #100	@ 0x64
   252b0:	f003 ff54 	bl	2915c <_ZN9allow_pin12full_dynamic17unshare_if_shared17h9f78cce76fd1eb6dE>
   252b4:	a807      	add	r0, sp, #28
   252b6:	f003 ff51 	bl	2915c <_ZN9allow_pin12full_dynamic17unshare_if_shared17h9f78cce76fd1eb6dE>
   252ba:	b02d      	add	sp, #180	@ 0xb4
   252bc:	bdf0      	pop	{r4, r5, r6, r7, pc}
   252be:	46c0      	nop			@ (mov r8, r8)
   252c0:	00001b1e 	.word	0x00001b1e

000252c4 <_ZN20complex_full_dynamic3app17he40cc4303f8ef72eE>:
   252c4:	b5f0      	push	{r4, r5, r6, r7, lr}
   252c6:	af03      	add	r7, sp, #12
   252c8:	b0b1      	sub	sp, #196	@ 0xc4
   252ca:	9003      	str	r0, [sp, #12]
   252cc:	ac06      	add	r4, sp, #24
   252ce:	2502      	movs	r5, #2
   252d0:	7225      	strb	r5, [r4, #8]
   252d2:	340c      	adds	r4, #12
   252d4:	2261      	movs	r2, #97	@ 0x61
   252d6:	9204      	str	r2, [sp, #16]
   252d8:	4620      	mov	r0, r4
   252da:	f004 f918 	bl	2950e <__aeabi_memcpy>
   252de:	a822      	add	r0, sp, #136	@ 0x88
   252e0:	2600      	movs	r6, #0
   252e2:	8506      	strh	r6, [r0, #40]	@ 0x28
   252e4:	9005      	str	r0, [sp, #20]
   252e6:	7205      	strb	r5, [r0, #8]
   252e8:	962b      	str	r6, [sp, #172]	@ 0xac
   252ea:	962a      	str	r6, [sp, #168]	@ 0xa8
   252ec:	9629      	str	r6, [sp, #164]	@ 0xa4
   252ee:	9628      	str	r6, [sp, #160]	@ 0xa0
   252f0:	9627      	str	r6, [sp, #156]	@ 0x9c
   252f2:	9626      	str	r6, [sp, #152]	@ 0x98
   252f4:	9625      	str	r6, [sp, #148]	@ 0x94
   252f6:	2504      	movs	r5, #4
   252f8:	9804      	ldr	r0, [sp, #16]
   252fa:	9000      	str	r0, [sp, #0]
   252fc:	9501      	str	r5, [sp, #4]
   252fe:	2031      	movs	r0, #49	@ 0x31
   25300:	00c1      	lsls	r1, r0, #3
   25302:	a82d      	add	r0, sp, #180	@ 0xb4
   25304:	9104      	str	r1, [sp, #16]
   25306:	462a      	mov	r2, r5
   25308:	4623      	mov	r3, r4
   2530a:	f003 ff3b 	bl	29184 <_ZN9allow_pin13dynamic_allow17h33d41317a2da4f1cE>
   2530e:	982d      	ldr	r0, [sp, #180]	@ 0xb4
   25310:	2802      	cmp	r0, #2
   25312:	d102      	bne.n	2531a <_ZN20complex_full_dynamic3app17he40cc4303f8ef72eE+0x56>
   25314:	992e      	ldr	r1, [sp, #184]	@ 0xb8
   25316:	9b04      	ldr	r3, [sp, #16]
   25318:	e004      	b.n	25324 <_ZN20complex_full_dynamic3app17he40cc4303f8ef72eE+0x60>
   2531a:	a906      	add	r1, sp, #24
   2531c:	720d      	strb	r5, [r1, #8]
   2531e:	9507      	str	r5, [sp, #28]
   25320:	9b04      	ldr	r3, [sp, #16]
   25322:	9306      	str	r3, [sp, #24]
   25324:	9a05      	ldr	r2, [sp, #20]
   25326:	320c      	adds	r2, #12
   25328:	9205      	str	r2, [sp, #20]
   2532a:	2501      	movs	r5, #1
   2532c:	2802      	cmp	r0, #2
   2532e:	d033      	beq.n	25398 <_ZN20complex_full_dynamic3app17he40cc4303f8ef72eE+0xd4>
   25330:	a822      	add	r0, sp, #136	@ 0x88
   25332:	7a00      	ldrb	r0, [r0, #8]
   25334:	2103      	movs	r1, #3
   25336:	2802      	cmp	r0, #2
   25338:	d113      	bne.n	25362 <_ZN20complex_full_dynamic3app17he40cc4303f8ef72eE+0x9e>
   2533a:	201e      	movs	r0, #30
   2533c:	9000      	str	r0, [sp, #0]
   2533e:	9102      	str	r1, [sp, #8]
   25340:	9101      	str	r1, [sp, #4]
   25342:	a82d      	add	r0, sp, #180	@ 0xb4
   25344:	2406      	movs	r4, #6
   25346:	4619      	mov	r1, r3
   25348:	4622      	mov	r2, r4
   2534a:	9b05      	ldr	r3, [sp, #20]
   2534c:	f003 ff1a 	bl	29184 <_ZN9allow_pin13dynamic_allow17h33d41317a2da4f1cE>
   25350:	982d      	ldr	r0, [sp, #180]	@ 0xb4
   25352:	2802      	cmp	r0, #2
   25354:	d109      	bne.n	2536a <_ZN20complex_full_dynamic3app17he40cc4303f8ef72eE+0xa6>
   25356:	992e      	ldr	r1, [sp, #184]	@ 0xb8
   25358:	462e      	mov	r6, r5
   2535a:	9b04      	ldr	r3, [sp, #16]
   2535c:	2e00      	cmp	r6, #0
   2535e:	d00c      	beq.n	2537a <_ZN20complex_full_dynamic3app17he40cc4303f8ef72eE+0xb6>
   25360:	e01a      	b.n	25398 <_ZN20complex_full_dynamic3app17he40cc4303f8ef72eE+0xd4>
   25362:	462e      	mov	r6, r5
   25364:	2e00      	cmp	r6, #0
   25366:	d008      	beq.n	2537a <_ZN20complex_full_dynamic3app17he40cc4303f8ef72eE+0xb6>
   25368:	e016      	b.n	25398 <_ZN20complex_full_dynamic3app17he40cc4303f8ef72eE+0xd4>
   2536a:	a822      	add	r0, sp, #136	@ 0x88
   2536c:	9902      	ldr	r1, [sp, #8]
   2536e:	7201      	strb	r1, [r0, #8]
   25370:	9423      	str	r4, [sp, #140]	@ 0x8c
   25372:	9b04      	ldr	r3, [sp, #16]
   25374:	9322      	str	r3, [sp, #136]	@ 0x88
   25376:	2e00      	cmp	r6, #0
   25378:	d10e      	bne.n	25398 <_ZN20complex_full_dynamic3app17he40cc4303f8ef72eE+0xd4>
   2537a:	2104      	movs	r1, #4
   2537c:	2206      	movs	r2, #6
   2537e:	2400      	movs	r4, #0
   25380:	4618      	mov	r0, r3
   25382:	4623      	mov	r3, r4
   25384:	df02      	svc	2
   25386:	287f      	cmp	r0, #127	@ 0x7f
   25388:	d906      	bls.n	25398 <_ZN20complex_full_dynamic3app17he40cc4303f8ef72eE+0xd4>
   2538a:	a806      	add	r0, sp, #24
   2538c:	f003 fee6 	bl	2915c <_ZN9allow_pin12full_dynamic17unshare_if_shared17h9f78cce76fd1eb6dE>
   25390:	a822      	add	r0, sp, #136	@ 0x88
   25392:	f003 fee3 	bl	2915c <_ZN9allow_pin12full_dynamic17unshare_if_shared17h9f78cce76fd1eb6dE>
   25396:	4625      	mov	r5, r4
   25398:	2d00      	cmp	r5, #0
   2539a:	d003      	beq.n	253a4 <_ZN20complex_full_dynamic3app17he40cc4303f8ef72eE+0xe0>
   2539c:	9c03      	ldr	r4, [sp, #12]
   2539e:	6061      	str	r1, [r4, #4]
   253a0:	2001      	movs	r0, #1
   253a2:	e009      	b.n	253b8 <_ZN20complex_full_dynamic3app17he40cc4303f8ef72eE+0xf4>
   253a4:	a822      	add	r0, sp, #136	@ 0x88
   253a6:	f003 fed9 	bl	2915c <_ZN9allow_pin12full_dynamic17unshare_if_shared17h9f78cce76fd1eb6dE>
   253aa:	9c03      	ldr	r4, [sp, #12]
   253ac:	1c60      	adds	r0, r4, #1
   253ae:	221e      	movs	r2, #30
   253b0:	9905      	ldr	r1, [sp, #20]
   253b2:	f004 f8ac 	bl	2950e <__aeabi_memcpy>
   253b6:	2000      	movs	r0, #0
   253b8:	7020      	strb	r0, [r4, #0]
   253ba:	a822      	add	r0, sp, #136	@ 0x88
   253bc:	f003 fece 	bl	2915c <_ZN9allow_pin12full_dynamic17unshare_if_shared17h9f78cce76fd1eb6dE>
   253c0:	a806      	add	r0, sp, #24
   253c2:	f003 fecb 	bl	2915c <_ZN9allow_pin12full_dynamic17unshare_if_shared17h9f78cce76fd1eb6dE>
   253c6:	b031      	add	sp, #196	@ 0xc4
   253c8:	bdf0      	pop	{r4, r5, r6, r7, pc}
   253ca:	d4d4      	bmi.n	25376 <_ZN20complex_full_dynamic3app17he40cc4303f8ef72eE+0xb2>

000253cc <_ZN20complex_full_dynamic3app17he70f7c3a2c9134f4E>:
   253cc:	b5f0      	push	{r4, r5, r6, r7, lr}
   253ce:	af03      	add	r7, sp, #12
   253d0:	b0a9      	sub	sp, #164	@ 0xa4
   253d2:	9004      	str	r0, [sp, #16]
   253d4:	ad05      	add	r5, sp, #20
   253d6:	2002      	movs	r0, #2
   253d8:	9003      	str	r0, [sp, #12]
   253da:	7228      	strb	r0, [r5, #8]
   253dc:	350c      	adds	r5, #12
   253de:	2432      	movs	r4, #50	@ 0x32
   253e0:	4628      	mov	r0, r5
   253e2:	4622      	mov	r2, r4
   253e4:	f004 f893 	bl	2950e <__aeabi_memcpy>
   253e8:	ae15      	add	r6, sp, #84	@ 0x54
   253ea:	4630      	mov	r0, r6
   253ec:	300c      	adds	r0, #12
   253ee:	9002      	str	r0, [sp, #8]
   253f0:	4621      	mov	r1, r4
   253f2:	f003 fedf 	bl	291b4 <__aeabi_memclr4>
   253f6:	9803      	ldr	r0, [sp, #12]
   253f8:	7230      	strb	r0, [r6, #8]
   253fa:	4620      	mov	r0, r4
   253fc:	2404      	movs	r4, #4
   253fe:	9003      	str	r0, [sp, #12]
   25400:	9000      	str	r0, [sp, #0]
   25402:	9401      	str	r4, [sp, #4]
   25404:	a825      	add	r0, sp, #148	@ 0x94
   25406:	4930      	ldr	r1, [pc, #192]	@ (254c8 <_ZN20complex_full_dynamic3app17he70f7c3a2c9134f4E+0xfc>)
   25408:	2603      	movs	r6, #3
   2540a:	4632      	mov	r2, r6
   2540c:	462b      	mov	r3, r5
   2540e:	f003 feb9 	bl	29184 <_ZN9allow_pin13dynamic_allow17h33d41317a2da4f1cE>
   25412:	9825      	ldr	r0, [sp, #148]	@ 0x94
   25414:	2802      	cmp	r0, #2
   25416:	d102      	bne.n	2541e <_ZN20complex_full_dynamic3app17he70f7c3a2c9134f4E+0x52>
   25418:	4a2b      	ldr	r2, [pc, #172]	@ (254c8 <_ZN20complex_full_dynamic3app17he70f7c3a2c9134f4E+0xfc>)
   2541a:	9926      	ldr	r1, [sp, #152]	@ 0x98
   2541c:	e005      	b.n	2542a <_ZN20complex_full_dynamic3app17he70f7c3a2c9134f4E+0x5e>
   2541e:	a905      	add	r1, sp, #20
   25420:	720c      	strb	r4, [r1, #8]
   25422:	9606      	str	r6, [sp, #24]
   25424:	4928      	ldr	r1, [pc, #160]	@ (254c8 <_ZN20complex_full_dynamic3app17he70f7c3a2c9134f4E+0xfc>)
   25426:	460a      	mov	r2, r1
   25428:	9105      	str	r1, [sp, #20]
   2542a:	2501      	movs	r5, #1
   2542c:	2802      	cmp	r0, #2
   2542e:	d031      	beq.n	25494 <_ZN20complex_full_dynamic3app17he70f7c3a2c9134f4E+0xc8>
   25430:	a815      	add	r0, sp, #84	@ 0x54
   25432:	7a00      	ldrb	r0, [r0, #8]
   25434:	2802      	cmp	r0, #2
   25436:	4628      	mov	r0, r5
   25438:	d111      	bne.n	2545e <_ZN20complex_full_dynamic3app17he70f7c3a2c9134f4E+0x92>
   2543a:	2103      	movs	r1, #3
   2543c:	9803      	ldr	r0, [sp, #12]
   2543e:	9000      	str	r0, [sp, #0]
   25440:	9103      	str	r1, [sp, #12]
   25442:	9101      	str	r1, [sp, #4]
   25444:	a825      	add	r0, sp, #148	@ 0x94
   25446:	2401      	movs	r4, #1
   25448:	4616      	mov	r6, r2
   2544a:	4611      	mov	r1, r2
   2544c:	4622      	mov	r2, r4
   2544e:	9b02      	ldr	r3, [sp, #8]
   25450:	f003 fe98 	bl	29184 <_ZN9allow_pin13dynamic_allow17h33d41317a2da4f1cE>
   25454:	9825      	ldr	r0, [sp, #148]	@ 0x94
   25456:	2802      	cmp	r0, #2
   25458:	d105      	bne.n	25466 <_ZN20complex_full_dynamic3app17he70f7c3a2c9134f4E+0x9a>
   2545a:	9e26      	ldr	r6, [sp, #152]	@ 0x98
   2545c:	4628      	mov	r0, r5
   2545e:	2800      	cmp	r0, #0
   25460:	d009      	beq.n	25476 <_ZN20complex_full_dynamic3app17he70f7c3a2c9134f4E+0xaa>
   25462:	4631      	mov	r1, r6
   25464:	e016      	b.n	25494 <_ZN20complex_full_dynamic3app17he70f7c3a2c9134f4E+0xc8>
   25466:	a815      	add	r0, sp, #84	@ 0x54
   25468:	9903      	ldr	r1, [sp, #12]
   2546a:	7201      	strb	r1, [r0, #8]
   2546c:	9416      	str	r4, [sp, #88]	@ 0x58
   2546e:	9615      	str	r6, [sp, #84]	@ 0x54
   25470:	2000      	movs	r0, #0
   25472:	2800      	cmp	r0, #0
   25474:	d1f5      	bne.n	25462 <_ZN20complex_full_dynamic3app17he70f7c3a2c9134f4E+0x96>
   25476:	4814      	ldr	r0, [pc, #80]	@ (254c8 <_ZN20complex_full_dynamic3app17he70f7c3a2c9134f4E+0xfc>)
   25478:	2103      	movs	r1, #3
   2547a:	2201      	movs	r2, #1
   2547c:	2400      	movs	r4, #0
   2547e:	4623      	mov	r3, r4
   25480:	df02      	svc	2
   25482:	287f      	cmp	r0, #127	@ 0x7f
   25484:	d906      	bls.n	25494 <_ZN20complex_full_dynamic3app17he70f7c3a2c9134f4E+0xc8>
   25486:	a805      	add	r0, sp, #20
   25488:	f003 fe68 	bl	2915c <_ZN9allow_pin12full_dynamic17unshare_if_shared17h9f78cce76fd1eb6dE>
   2548c:	a815      	add	r0, sp, #84	@ 0x54
   2548e:	f003 fe65 	bl	2915c <_ZN9allow_pin12full_dynamic17unshare_if_shared17h9f78cce76fd1eb6dE>
   25492:	4625      	mov	r5, r4
   25494:	2d00      	cmp	r5, #0
   25496:	d003      	beq.n	254a0 <_ZN20complex_full_dynamic3app17he70f7c3a2c9134f4E+0xd4>
   25498:	9c04      	ldr	r4, [sp, #16]
   2549a:	6061      	str	r1, [r4, #4]
   2549c:	2001      	movs	r0, #1
   2549e:	e009      	b.n	254b4 <_ZN20complex_full_dynamic3app17he70f7c3a2c9134f4E+0xe8>
   254a0:	a815      	add	r0, sp, #84	@ 0x54
   254a2:	f003 fe5b 	bl	2915c <_ZN9allow_pin12full_dynamic17unshare_if_shared17h9f78cce76fd1eb6dE>
   254a6:	9c04      	ldr	r4, [sp, #16]
   254a8:	1c60      	adds	r0, r4, #1
   254aa:	2232      	movs	r2, #50	@ 0x32
   254ac:	9902      	ldr	r1, [sp, #8]
   254ae:	f004 f82e 	bl	2950e <__aeabi_memcpy>
   254b2:	2000      	movs	r0, #0
   254b4:	7020      	strb	r0, [r4, #0]
   254b6:	a815      	add	r0, sp, #84	@ 0x54
   254b8:	f003 fe50 	bl	2915c <_ZN9allow_pin12full_dynamic17unshare_if_shared17h9f78cce76fd1eb6dE>
   254bc:	a805      	add	r0, sp, #20
   254be:	f003 fe4d 	bl	2915c <_ZN9allow_pin12full_dynamic17unshare_if_shared17h9f78cce76fd1eb6dE>
   254c2:	b029      	add	sp, #164	@ 0xa4
   254c4:	bdf0      	pop	{r4, r5, r6, r7, pc}
   254c6:	46c0      	nop			@ (mov r8, r8)
   254c8:	00001f07 	.word	0x00001f07

000254cc <_ZN20complex_full_dynamic3app17heb2a702bf1a7e7eaE>:
   254cc:	b5f0      	push	{r4, r5, r6, r7, lr}
   254ce:	af03      	add	r7, sp, #12
   254d0:	b0b5      	sub	sp, #212	@ 0xd4
   254d2:	9006      	str	r0, [sp, #24]
   254d4:	ae07      	add	r6, sp, #28
   254d6:	2002      	movs	r0, #2
   254d8:	9005      	str	r0, [sp, #20]
   254da:	7230      	strb	r0, [r6, #8]
   254dc:	360c      	adds	r6, #12
   254de:	2553      	movs	r5, #83	@ 0x53
   254e0:	4630      	mov	r0, r6
   254e2:	462a      	mov	r2, r5
   254e4:	f004 f813 	bl	2950e <__aeabi_memcpy>
   254e8:	ac1f      	add	r4, sp, #124	@ 0x7c
   254ea:	4620      	mov	r0, r4
   254ec:	300c      	adds	r0, #12
   254ee:	213a      	movs	r1, #58	@ 0x3a
   254f0:	9004      	str	r0, [sp, #16]
   254f2:	9103      	str	r1, [sp, #12]
   254f4:	f003 fe5e 	bl	291b4 <__aeabi_memclr4>
   254f8:	9805      	ldr	r0, [sp, #20]
   254fa:	7220      	strb	r0, [r4, #8]
   254fc:	2404      	movs	r4, #4
   254fe:	9500      	str	r5, [sp, #0]
   25500:	9401      	str	r4, [sp, #4]
   25502:	a831      	add	r0, sp, #196	@ 0xc4
   25504:	492e      	ldr	r1, [pc, #184]	@ (255c0 <_ZN20complex_full_dynamic3app17heb2a702bf1a7e7eaE+0xf4>)
   25506:	2506      	movs	r5, #6
   25508:	462a      	mov	r2, r5
   2550a:	4633      	mov	r3, r6
   2550c:	f003 fe3a 	bl	29184 <_ZN9allow_pin13dynamic_allow17h33d41317a2da4f1cE>
   25510:	9831      	ldr	r0, [sp, #196]	@ 0xc4
   25512:	2802      	cmp	r0, #2
   25514:	d102      	bne.n	2551c <_ZN20complex_full_dynamic3app17heb2a702bf1a7e7eaE+0x50>
   25516:	9932      	ldr	r1, [sp, #200]	@ 0xc8
   25518:	4a29      	ldr	r2, [pc, #164]	@ (255c0 <_ZN20complex_full_dynamic3app17heb2a702bf1a7e7eaE+0xf4>)
   2551a:	e004      	b.n	25526 <_ZN20complex_full_dynamic3app17heb2a702bf1a7e7eaE+0x5a>
   2551c:	a907      	add	r1, sp, #28
   2551e:	720c      	strb	r4, [r1, #8]
   25520:	9508      	str	r5, [sp, #32]
   25522:	4a27      	ldr	r2, [pc, #156]	@ (255c0 <_ZN20complex_full_dynamic3app17heb2a702bf1a7e7eaE+0xf4>)
   25524:	9207      	str	r2, [sp, #28]
   25526:	2501      	movs	r5, #1
   25528:	2802      	cmp	r0, #2
   2552a:	d02f      	beq.n	2558c <_ZN20complex_full_dynamic3app17heb2a702bf1a7e7eaE+0xc0>
   2552c:	a81f      	add	r0, sp, #124	@ 0x7c
   2552e:	7a00      	ldrb	r0, [r0, #8]
   25530:	2802      	cmp	r0, #2
   25532:	d10f      	bne.n	25554 <_ZN20complex_full_dynamic3app17heb2a702bf1a7e7eaE+0x88>
   25534:	2603      	movs	r6, #3
   25536:	9803      	ldr	r0, [sp, #12]
   25538:	9000      	str	r0, [sp, #0]
   2553a:	9601      	str	r6, [sp, #4]
   2553c:	a831      	add	r0, sp, #196	@ 0xc4
   2553e:	2407      	movs	r4, #7
   25540:	4611      	mov	r1, r2
   25542:	4622      	mov	r2, r4
   25544:	9b04      	ldr	r3, [sp, #16]
   25546:	f003 fe1d 	bl	29184 <_ZN9allow_pin13dynamic_allow17h33d41317a2da4f1cE>
   2554a:	9831      	ldr	r0, [sp, #196]	@ 0xc4
   2554c:	2802      	cmp	r0, #2
   2554e:	d106      	bne.n	2555e <_ZN20complex_full_dynamic3app17heb2a702bf1a7e7eaE+0x92>
   25550:	9932      	ldr	r1, [sp, #200]	@ 0xc8
   25552:	e000      	b.n	25556 <_ZN20complex_full_dynamic3app17heb2a702bf1a7e7eaE+0x8a>
   25554:	2103      	movs	r1, #3
   25556:	4628      	mov	r0, r5
   25558:	2800      	cmp	r0, #0
   2555a:	d008      	beq.n	2556e <_ZN20complex_full_dynamic3app17heb2a702bf1a7e7eaE+0xa2>
   2555c:	e016      	b.n	2558c <_ZN20complex_full_dynamic3app17heb2a702bf1a7e7eaE+0xc0>
   2555e:	a81f      	add	r0, sp, #124	@ 0x7c
   25560:	7206      	strb	r6, [r0, #8]
   25562:	9420      	str	r4, [sp, #128]	@ 0x80
   25564:	4816      	ldr	r0, [pc, #88]	@ (255c0 <_ZN20complex_full_dynamic3app17heb2a702bf1a7e7eaE+0xf4>)
   25566:	901f      	str	r0, [sp, #124]	@ 0x7c
   25568:	2000      	movs	r0, #0
   2556a:	2800      	cmp	r0, #0
   2556c:	d10e      	bne.n	2558c <_ZN20complex_full_dynamic3app17heb2a702bf1a7e7eaE+0xc0>
   2556e:	4814      	ldr	r0, [pc, #80]	@ (255c0 <_ZN20complex_full_dynamic3app17heb2a702bf1a7e7eaE+0xf4>)
   25570:	2106      	movs	r1, #6
   25572:	2207      	movs	r2, #7
   25574:	2400      	movs	r4, #0
   25576:	4623      	mov	r3, r4
   25578:	df02      	svc	2
   2557a:	287f      	cmp	r0, #127	@ 0x7f
   2557c:	d906      	bls.n	2558c <_ZN20complex_full_dynamic3app17heb2a702bf1a7e7eaE+0xc0>
   2557e:	a807      	add	r0, sp, #28
   25580:	f003 fdec 	bl	2915c <_ZN9allow_pin12full_dynamic17unshare_if_shared17h9f78cce76fd1eb6dE>
   25584:	a81f      	add	r0, sp, #124	@ 0x7c
   25586:	f003 fde9 	bl	2915c <_ZN9allow_pin12full_dynamic17unshare_if_shared17h9f78cce76fd1eb6dE>
   2558a:	4625      	mov	r5, r4
   2558c:	2d00      	cmp	r5, #0
   2558e:	d003      	beq.n	25598 <_ZN20complex_full_dynamic3app17heb2a702bf1a7e7eaE+0xcc>
   25590:	9c06      	ldr	r4, [sp, #24]
   25592:	6061      	str	r1, [r4, #4]
   25594:	2001      	movs	r0, #1
   25596:	e009      	b.n	255ac <_ZN20complex_full_dynamic3app17heb2a702bf1a7e7eaE+0xe0>
   25598:	a81f      	add	r0, sp, #124	@ 0x7c
   2559a:	f003 fddf 	bl	2915c <_ZN9allow_pin12full_dynamic17unshare_if_shared17h9f78cce76fd1eb6dE>
   2559e:	9c06      	ldr	r4, [sp, #24]
   255a0:	1c60      	adds	r0, r4, #1
   255a2:	223a      	movs	r2, #58	@ 0x3a
   255a4:	9904      	ldr	r1, [sp, #16]
   255a6:	f003 ffb2 	bl	2950e <__aeabi_memcpy>
   255aa:	2000      	movs	r0, #0
   255ac:	7020      	strb	r0, [r4, #0]
   255ae:	a81f      	add	r0, sp, #124	@ 0x7c
   255b0:	f003 fdd4 	bl	2915c <_ZN9allow_pin12full_dynamic17unshare_if_shared17h9f78cce76fd1eb6dE>
   255b4:	a807      	add	r0, sp, #28
   255b6:	f003 fdd1 	bl	2915c <_ZN9allow_pin12full_dynamic17unshare_if_shared17h9f78cce76fd1eb6dE>
   255ba:	b035      	add	sp, #212	@ 0xd4
   255bc:	bdf0      	pop	{r4, r5, r6, r7, pc}
   255be:	46c0      	nop			@ (mov r8, r8)
   255c0:	00002645 	.word	0x00002645

000255c4 <_ZN20complex_full_dynamic3app17heca2a86a38a644f3E>:
   255c4:	b5f0      	push	{r4, r5, r6, r7, lr}
   255c6:	af03      	add	r7, sp, #12
   255c8:	b0b5      	sub	sp, #212	@ 0xd4
   255ca:	9006      	str	r0, [sp, #24]
   255cc:	ae07      	add	r6, sp, #28
   255ce:	2002      	movs	r0, #2
   255d0:	9005      	str	r0, [sp, #20]
   255d2:	7230      	strb	r0, [r6, #8]
   255d4:	360c      	adds	r6, #12
   255d6:	252f      	movs	r5, #47	@ 0x2f
   255d8:	4630      	mov	r0, r6
   255da:	462a      	mov	r2, r5
   255dc:	f003 ff97 	bl	2950e <__aeabi_memcpy>
   255e0:	ac16      	add	r4, sp, #88	@ 0x58
   255e2:	4620      	mov	r0, r4
   255e4:	300c      	adds	r0, #12
   255e6:	215e      	movs	r1, #94	@ 0x5e
   255e8:	9004      	str	r0, [sp, #16]
   255ea:	9103      	str	r1, [sp, #12]
   255ec:	f003 fde2 	bl	291b4 <__aeabi_memclr4>
   255f0:	9805      	ldr	r0, [sp, #20]
   255f2:	7220      	strb	r0, [r4, #8]
   255f4:	2404      	movs	r4, #4
   255f6:	9500      	str	r5, [sp, #0]
   255f8:	9401      	str	r4, [sp, #4]
   255fa:	a831      	add	r0, sp, #196	@ 0xc4
   255fc:	492e      	ldr	r1, [pc, #184]	@ (256b8 <_ZN20complex_full_dynamic3app17heca2a86a38a644f3E+0xf4>)
   255fe:	2505      	movs	r5, #5
   25600:	462a      	mov	r2, r5
   25602:	4633      	mov	r3, r6
   25604:	f003 fdbe 	bl	29184 <_ZN9allow_pin13dynamic_allow17h33d41317a2da4f1cE>
   25608:	9831      	ldr	r0, [sp, #196]	@ 0xc4
   2560a:	2802      	cmp	r0, #2
   2560c:	d102      	bne.n	25614 <_ZN20complex_full_dynamic3app17heca2a86a38a644f3E+0x50>
   2560e:	9932      	ldr	r1, [sp, #200]	@ 0xc8
   25610:	4a29      	ldr	r2, [pc, #164]	@ (256b8 <_ZN20complex_full_dynamic3app17heca2a86a38a644f3E+0xf4>)
   25612:	e004      	b.n	2561e <_ZN20complex_full_dynamic3app17heca2a86a38a644f3E+0x5a>
   25614:	a907      	add	r1, sp, #28
   25616:	720c      	strb	r4, [r1, #8]
   25618:	9508      	str	r5, [sp, #32]
   2561a:	4a27      	ldr	r2, [pc, #156]	@ (256b8 <_ZN20complex_full_dynamic3app17heca2a86a38a644f3E+0xf4>)
   2561c:	9207      	str	r2, [sp, #28]
   2561e:	2501      	movs	r5, #1
   25620:	2802      	cmp	r0, #2
   25622:	d02f      	beq.n	25684 <_ZN20complex_full_dynamic3app17heca2a86a38a644f3E+0xc0>
   25624:	a816      	add	r0, sp, #88	@ 0x58
   25626:	7a00      	ldrb	r0, [r0, #8]
   25628:	2802      	cmp	r0, #2
   2562a:	d10f      	bne.n	2564c <_ZN20complex_full_dynamic3app17heca2a86a38a644f3E+0x88>
   2562c:	2603      	movs	r6, #3
   2562e:	9803      	ldr	r0, [sp, #12]
   25630:	9000      	str	r0, [sp, #0]
   25632:	9601      	str	r6, [sp, #4]
   25634:	a831      	add	r0, sp, #196	@ 0xc4
   25636:	2402      	movs	r4, #2
   25638:	4611      	mov	r1, r2
   2563a:	4622      	mov	r2, r4
   2563c:	9b04      	ldr	r3, [sp, #16]
   2563e:	f003 fda1 	bl	29184 <_ZN9allow_pin13dynamic_allow17h33d41317a2da4f1cE>
   25642:	9831      	ldr	r0, [sp, #196]	@ 0xc4
   25644:	2802      	cmp	r0, #2
   25646:	d106      	bne.n	25656 <_ZN20complex_full_dynamic3app17heca2a86a38a644f3E+0x92>
   25648:	9932      	ldr	r1, [sp, #200]	@ 0xc8
   2564a:	e000      	b.n	2564e <_ZN20complex_full_dynamic3app17heca2a86a38a644f3E+0x8a>
   2564c:	2103      	movs	r1, #3
   2564e:	4628      	mov	r0, r5
   25650:	2800      	cmp	r0, #0
   25652:	d008      	beq.n	25666 <_ZN20complex_full_dynamic3app17heca2a86a38a644f3E+0xa2>
   25654:	e016      	b.n	25684 <_ZN20complex_full_dynamic3app17heca2a86a38a644f3E+0xc0>
   25656:	a816      	add	r0, sp, #88	@ 0x58
   25658:	7206      	strb	r6, [r0, #8]
   2565a:	9417      	str	r4, [sp, #92]	@ 0x5c
   2565c:	4816      	ldr	r0, [pc, #88]	@ (256b8 <_ZN20complex_full_dynamic3app17heca2a86a38a644f3E+0xf4>)
   2565e:	9016      	str	r0, [sp, #88]	@ 0x58
   25660:	2000      	movs	r0, #0
   25662:	2800      	cmp	r0, #0
   25664:	d10e      	bne.n	25684 <_ZN20complex_full_dynamic3app17heca2a86a38a644f3E+0xc0>
   25666:	4814      	ldr	r0, [pc, #80]	@ (256b8 <_ZN20complex_full_dynamic3app17heca2a86a38a644f3E+0xf4>)
   25668:	2105      	movs	r1, #5
   2566a:	2202      	movs	r2, #2
   2566c:	2400      	movs	r4, #0
   2566e:	4623      	mov	r3, r4
   25670:	df02      	svc	2
   25672:	287f      	cmp	r0, #127	@ 0x7f
   25674:	d906      	bls.n	25684 <_ZN20complex_full_dynamic3app17heca2a86a38a644f3E+0xc0>
   25676:	a807      	add	r0, sp, #28
   25678:	f003 fd70 	bl	2915c <_ZN9allow_pin12full_dynamic17unshare_if_shared17h9f78cce76fd1eb6dE>
   2567c:	a816      	add	r0, sp, #88	@ 0x58
   2567e:	f003 fd6d 	bl	2915c <_ZN9allow_pin12full_dynamic17unshare_if_shared17h9f78cce76fd1eb6dE>
   25682:	4625      	mov	r5, r4
   25684:	2d00      	cmp	r5, #0
   25686:	d003      	beq.n	25690 <_ZN20complex_full_dynamic3app17heca2a86a38a644f3E+0xcc>
   25688:	9c06      	ldr	r4, [sp, #24]
   2568a:	6061      	str	r1, [r4, #4]
   2568c:	2001      	movs	r0, #1
   2568e:	e009      	b.n	256a4 <_ZN20complex_full_dynamic3app17heca2a86a38a644f3E+0xe0>
   25690:	a816      	add	r0, sp, #88	@ 0x58
   25692:	f003 fd63 	bl	2915c <_ZN9allow_pin12full_dynamic17unshare_if_shared17h9f78cce76fd1eb6dE>
   25696:	9c06      	ldr	r4, [sp, #24]
   25698:	1c60      	adds	r0, r4, #1
   2569a:	225e      	movs	r2, #94	@ 0x5e
   2569c:	9904      	ldr	r1, [sp, #16]
   2569e:	f003 ff36 	bl	2950e <__aeabi_memcpy>
   256a2:	2000      	movs	r0, #0
   256a4:	7020      	strb	r0, [r4, #0]
   256a6:	a816      	add	r0, sp, #88	@ 0x58
   256a8:	f003 fd58 	bl	2915c <_ZN9allow_pin12full_dynamic17unshare_if_shared17h9f78cce76fd1eb6dE>
   256ac:	a807      	add	r0, sp, #28
   256ae:	f003 fd55 	bl	2915c <_ZN9allow_pin12full_dynamic17unshare_if_shared17h9f78cce76fd1eb6dE>
   256b2:	b035      	add	sp, #212	@ 0xd4
   256b4:	bdf0      	pop	{r4, r5, r6, r7, pc}
   256b6:	46c0      	nop			@ (mov r8, r8)
   256b8:	0000022b 	.word	0x0000022b

000256bc <_ZN20complex_full_dynamic3app17hf12e4e203bdb994bE>:
   256bc:	b5f0      	push	{r4, r5, r6, r7, lr}
   256be:	af03      	add	r7, sp, #12
   256c0:	b0af      	sub	sp, #188	@ 0xbc
   256c2:	9006      	str	r0, [sp, #24]
   256c4:	ad07      	add	r5, sp, #28
   256c6:	2002      	movs	r0, #2
   256c8:	9005      	str	r0, [sp, #20]
   256ca:	7228      	strb	r0, [r5, #8]
   256cc:	350c      	adds	r5, #12
   256ce:	2635      	movs	r6, #53	@ 0x35
   256d0:	4628      	mov	r0, r5
   256d2:	4632      	mov	r2, r6
   256d4:	f003 ff1b 	bl	2950e <__aeabi_memcpy>
   256d8:	ac18      	add	r4, sp, #96	@ 0x60
   256da:	4620      	mov	r0, r4
   256dc:	300c      	adds	r0, #12
   256de:	213f      	movs	r1, #63	@ 0x3f
   256e0:	9004      	str	r0, [sp, #16]
   256e2:	9103      	str	r1, [sp, #12]
   256e4:	f003 fd66 	bl	291b4 <__aeabi_memclr4>
   256e8:	9805      	ldr	r0, [sp, #20]
   256ea:	7220      	strb	r0, [r4, #8]
   256ec:	2404      	movs	r4, #4
   256ee:	9600      	str	r6, [sp, #0]
   256f0:	9401      	str	r4, [sp, #4]
   256f2:	a82b      	add	r0, sp, #172	@ 0xac
   256f4:	492d      	ldr	r1, [pc, #180]	@ (257ac <_ZN20complex_full_dynamic3app17hf12e4e203bdb994bE+0xf0>)
   256f6:	2600      	movs	r6, #0
   256f8:	4632      	mov	r2, r6
   256fa:	462b      	mov	r3, r5
   256fc:	f003 fd42 	bl	29184 <_ZN9allow_pin13dynamic_allow17h33d41317a2da4f1cE>
   25700:	982b      	ldr	r0, [sp, #172]	@ 0xac
   25702:	2802      	cmp	r0, #2
   25704:	d102      	bne.n	2570c <_ZN20complex_full_dynamic3app17hf12e4e203bdb994bE+0x50>
   25706:	992c      	ldr	r1, [sp, #176]	@ 0xb0
   25708:	4c28      	ldr	r4, [pc, #160]	@ (257ac <_ZN20complex_full_dynamic3app17hf12e4e203bdb994bE+0xf0>)
   2570a:	e004      	b.n	25716 <_ZN20complex_full_dynamic3app17hf12e4e203bdb994bE+0x5a>
   2570c:	a907      	add	r1, sp, #28
   2570e:	720c      	strb	r4, [r1, #8]
   25710:	9608      	str	r6, [sp, #32]
   25712:	4c26      	ldr	r4, [pc, #152]	@ (257ac <_ZN20complex_full_dynamic3app17hf12e4e203bdb994bE+0xf0>)
   25714:	9407      	str	r4, [sp, #28]
   25716:	2501      	movs	r5, #1
   25718:	2802      	cmp	r0, #2
   2571a:	d02d      	beq.n	25778 <_ZN20complex_full_dynamic3app17hf12e4e203bdb994bE+0xbc>
   2571c:	a818      	add	r0, sp, #96	@ 0x60
   2571e:	7a00      	ldrb	r0, [r0, #8]
   25720:	2802      	cmp	r0, #2
   25722:	d10e      	bne.n	25742 <_ZN20complex_full_dynamic3app17hf12e4e203bdb994bE+0x86>
   25724:	2203      	movs	r2, #3
   25726:	9803      	ldr	r0, [sp, #12]
   25728:	9000      	str	r0, [sp, #0]
   2572a:	9201      	str	r2, [sp, #4]
   2572c:	a82b      	add	r0, sp, #172	@ 0xac
   2572e:	4621      	mov	r1, r4
   25730:	9205      	str	r2, [sp, #20]
   25732:	9b04      	ldr	r3, [sp, #16]
   25734:	f003 fd26 	bl	29184 <_ZN9allow_pin13dynamic_allow17h33d41317a2da4f1cE>
   25738:	982b      	ldr	r0, [sp, #172]	@ 0xac
   2573a:	2802      	cmp	r0, #2
   2573c:	d106      	bne.n	2574c <_ZN20complex_full_dynamic3app17hf12e4e203bdb994bE+0x90>
   2573e:	992c      	ldr	r1, [sp, #176]	@ 0xb0
   25740:	e000      	b.n	25744 <_ZN20complex_full_dynamic3app17hf12e4e203bdb994bE+0x88>
   25742:	2103      	movs	r1, #3
   25744:	462e      	mov	r6, r5
   25746:	2e00      	cmp	r6, #0
   25748:	d007      	beq.n	2575a <_ZN20complex_full_dynamic3app17hf12e4e203bdb994bE+0x9e>
   2574a:	e015      	b.n	25778 <_ZN20complex_full_dynamic3app17hf12e4e203bdb994bE+0xbc>
   2574c:	a818      	add	r0, sp, #96	@ 0x60
   2574e:	9905      	ldr	r1, [sp, #20]
   25750:	7201      	strb	r1, [r0, #8]
   25752:	9119      	str	r1, [sp, #100]	@ 0x64
   25754:	9418      	str	r4, [sp, #96]	@ 0x60
   25756:	2e00      	cmp	r6, #0
   25758:	d10e      	bne.n	25778 <_ZN20complex_full_dynamic3app17hf12e4e203bdb994bE+0xbc>
   2575a:	4814      	ldr	r0, [pc, #80]	@ (257ac <_ZN20complex_full_dynamic3app17hf12e4e203bdb994bE+0xf0>)
   2575c:	2203      	movs	r2, #3
   2575e:	2400      	movs	r4, #0
   25760:	4621      	mov	r1, r4
   25762:	4623      	mov	r3, r4
   25764:	df02      	svc	2
   25766:	287f      	cmp	r0, #127	@ 0x7f
   25768:	d906      	bls.n	25778 <_ZN20complex_full_dynamic3app17hf12e4e203bdb994bE+0xbc>
   2576a:	a807      	add	r0, sp, #28
   2576c:	f003 fcf6 	bl	2915c <_ZN9allow_pin12full_dynamic17unshare_if_shared17h9f78cce76fd1eb6dE>
   25770:	a818      	add	r0, sp, #96	@ 0x60
   25772:	f003 fcf3 	bl	2915c <_ZN9allow_pin12full_dynamic17unshare_if_shared17h9f78cce76fd1eb6dE>
   25776:	4625      	mov	r5, r4
   25778:	2d00      	cmp	r5, #0
   2577a:	d003      	beq.n	25784 <_ZN20complex_full_dynamic3app17hf12e4e203bdb994bE+0xc8>
   2577c:	9c06      	ldr	r4, [sp, #24]
   2577e:	6061      	str	r1, [r4, #4]
   25780:	2001      	movs	r0, #1
   25782:	e009      	b.n	25798 <_ZN20complex_full_dynamic3app17hf12e4e203bdb994bE+0xdc>
   25784:	a818      	add	r0, sp, #96	@ 0x60
   25786:	f003 fce9 	bl	2915c <_ZN9allow_pin12full_dynamic17unshare_if_shared17h9f78cce76fd1eb6dE>
   2578a:	9c06      	ldr	r4, [sp, #24]
   2578c:	1c60      	adds	r0, r4, #1
   2578e:	223f      	movs	r2, #63	@ 0x3f
   25790:	9904      	ldr	r1, [sp, #16]
   25792:	f003 febc 	bl	2950e <__aeabi_memcpy>
   25796:	2000      	movs	r0, #0
   25798:	7020      	strb	r0, [r4, #0]
   2579a:	a818      	add	r0, sp, #96	@ 0x60
   2579c:	f003 fcde 	bl	2915c <_ZN9allow_pin12full_dynamic17unshare_if_shared17h9f78cce76fd1eb6dE>
   257a0:	a807      	add	r0, sp, #28
   257a2:	f003 fcdb 	bl	2915c <_ZN9allow_pin12full_dynamic17unshare_if_shared17h9f78cce76fd1eb6dE>
   257a6:	b02f      	add	sp, #188	@ 0xbc
   257a8:	bdf0      	pop	{r4, r5, r6, r7, pc}
   257aa:	46c0      	nop			@ (mov r8, r8)
   257ac:	00000e57 	.word	0x00000e57

000257b0 <_ZN20complex_full_dynamic3app17hf481f40f923b83c0E>:
   257b0:	b5f0      	push	{r4, r5, r6, r7, lr}
   257b2:	af03      	add	r7, sp, #12
   257b4:	b0a5      	sub	sp, #148	@ 0x94
   257b6:	9005      	str	r0, [sp, #20]
   257b8:	ad06      	add	r5, sp, #24
   257ba:	2002      	movs	r0, #2
   257bc:	9004      	str	r0, [sp, #16]
   257be:	7228      	strb	r0, [r5, #8]
   257c0:	350c      	adds	r5, #12
   257c2:	2625      	movs	r6, #37	@ 0x25
   257c4:	4628      	mov	r0, r5
   257c6:	4632      	mov	r2, r6
   257c8:	f003 fea1 	bl	2950e <__aeabi_memcpy>
   257cc:	ac13      	add	r4, sp, #76	@ 0x4c
   257ce:	4620      	mov	r0, r4
   257d0:	300c      	adds	r0, #12
   257d2:	212a      	movs	r1, #42	@ 0x2a
   257d4:	9003      	str	r0, [sp, #12]
   257d6:	9102      	str	r1, [sp, #8]
   257d8:	f003 fcec 	bl	291b4 <__aeabi_memclr4>
   257dc:	9804      	ldr	r0, [sp, #16]
   257de:	7220      	strb	r0, [r4, #8]
   257e0:	2404      	movs	r4, #4
   257e2:	9600      	str	r6, [sp, #0]
   257e4:	9401      	str	r4, [sp, #4]
   257e6:	a821      	add	r0, sp, #132	@ 0x84
   257e8:	492d      	ldr	r1, [pc, #180]	@ (258a0 <_ZN20complex_full_dynamic3app17hf481f40f923b83c0E+0xf0>)
   257ea:	2600      	movs	r6, #0
   257ec:	4632      	mov	r2, r6
   257ee:	462b      	mov	r3, r5
   257f0:	f003 fcc8 	bl	29184 <_ZN9allow_pin13dynamic_allow17h33d41317a2da4f1cE>
   257f4:	9821      	ldr	r0, [sp, #132]	@ 0x84
   257f6:	2802      	cmp	r0, #2
   257f8:	d102      	bne.n	25800 <_ZN20complex_full_dynamic3app17hf481f40f923b83c0E+0x50>
   257fa:	9922      	ldr	r1, [sp, #136]	@ 0x88
   257fc:	4c28      	ldr	r4, [pc, #160]	@ (258a0 <_ZN20complex_full_dynamic3app17hf481f40f923b83c0E+0xf0>)
   257fe:	e004      	b.n	2580a <_ZN20complex_full_dynamic3app17hf481f40f923b83c0E+0x5a>
   25800:	a906      	add	r1, sp, #24
   25802:	720c      	strb	r4, [r1, #8]
   25804:	9607      	str	r6, [sp, #28]
   25806:	4c26      	ldr	r4, [pc, #152]	@ (258a0 <_ZN20complex_full_dynamic3app17hf481f40f923b83c0E+0xf0>)
   25808:	9406      	str	r4, [sp, #24]
   2580a:	2501      	movs	r5, #1
   2580c:	2802      	cmp	r0, #2
   2580e:	d02d      	beq.n	2586c <_ZN20complex_full_dynamic3app17hf481f40f923b83c0E+0xbc>
   25810:	a813      	add	r0, sp, #76	@ 0x4c
   25812:	7a00      	ldrb	r0, [r0, #8]
   25814:	2802      	cmp	r0, #2
   25816:	d10e      	bne.n	25836 <_ZN20complex_full_dynamic3app17hf481f40f923b83c0E+0x86>
   25818:	2203      	movs	r2, #3
   2581a:	9802      	ldr	r0, [sp, #8]
   2581c:	9000      	str	r0, [sp, #0]
   2581e:	9201      	str	r2, [sp, #4]
   25820:	a821      	add	r0, sp, #132	@ 0x84
   25822:	4621      	mov	r1, r4
   25824:	9204      	str	r2, [sp, #16]
   25826:	9b03      	ldr	r3, [sp, #12]
   25828:	f003 fcac 	bl	29184 <_ZN9allow_pin13dynamic_allow17h33d41317a2da4f1cE>
   2582c:	9821      	ldr	r0, [sp, #132]	@ 0x84
   2582e:	2802      	cmp	r0, #2
   25830:	d106      	bne.n	25840 <_ZN20complex_full_dynamic3app17hf481f40f923b83c0E+0x90>
   25832:	9922      	ldr	r1, [sp, #136]	@ 0x88
   25834:	e000      	b.n	25838 <_ZN20complex_full_dynamic3app17hf481f40f923b83c0E+0x88>
   25836:	2103      	movs	r1, #3
   25838:	462e      	mov	r6, r5
   2583a:	2e00      	cmp	r6, #0
   2583c:	d007      	beq.n	2584e <_ZN20complex_full_dynamic3app17hf481f40f923b83c0E+0x9e>
   2583e:	e015      	b.n	2586c <_ZN20complex_full_dynamic3app17hf481f40f923b83c0E+0xbc>
   25840:	a813      	add	r0, sp, #76	@ 0x4c
   25842:	9904      	ldr	r1, [sp, #16]
   25844:	7201      	strb	r1, [r0, #8]
   25846:	9114      	str	r1, [sp, #80]	@ 0x50
   25848:	9413      	str	r4, [sp, #76]	@ 0x4c
   2584a:	2e00      	cmp	r6, #0
   2584c:	d10e      	bne.n	2586c <_ZN20complex_full_dynamic3app17hf481f40f923b83c0E+0xbc>
   2584e:	4814      	ldr	r0, [pc, #80]	@ (258a0 <_ZN20complex_full_dynamic3app17hf481f40f923b83c0E+0xf0>)
   25850:	2203      	movs	r2, #3
   25852:	2400      	movs	r4, #0
   25854:	4621      	mov	r1, r4
   25856:	4623      	mov	r3, r4
   25858:	df02      	svc	2
   2585a:	287f      	cmp	r0, #127	@ 0x7f
   2585c:	d906      	bls.n	2586c <_ZN20complex_full_dynamic3app17hf481f40f923b83c0E+0xbc>
   2585e:	a806      	add	r0, sp, #24
   25860:	f003 fc7c 	bl	2915c <_ZN9allow_pin12full_dynamic17unshare_if_shared17h9f78cce76fd1eb6dE>
   25864:	a813      	add	r0, sp, #76	@ 0x4c
   25866:	f003 fc79 	bl	2915c <_ZN9allow_pin12full_dynamic17unshare_if_shared17h9f78cce76fd1eb6dE>
   2586a:	4625      	mov	r5, r4
   2586c:	2d00      	cmp	r5, #0
   2586e:	d003      	beq.n	25878 <_ZN20complex_full_dynamic3app17hf481f40f923b83c0E+0xc8>
   25870:	9c05      	ldr	r4, [sp, #20]
   25872:	6061      	str	r1, [r4, #4]
   25874:	2001      	movs	r0, #1
   25876:	e009      	b.n	2588c <_ZN20complex_full_dynamic3app17hf481f40f923b83c0E+0xdc>
   25878:	a813      	add	r0, sp, #76	@ 0x4c
   2587a:	f003 fc6f 	bl	2915c <_ZN9allow_pin12full_dynamic17unshare_if_shared17h9f78cce76fd1eb6dE>
   2587e:	9c05      	ldr	r4, [sp, #20]
   25880:	1c60      	adds	r0, r4, #1
   25882:	222a      	movs	r2, #42	@ 0x2a
   25884:	9903      	ldr	r1, [sp, #12]
   25886:	f003 fe42 	bl	2950e <__aeabi_memcpy>
   2588a:	2000      	movs	r0, #0
   2588c:	7020      	strb	r0, [r4, #0]
   2588e:	a813      	add	r0, sp, #76	@ 0x4c
   25890:	f003 fc64 	bl	2915c <_ZN9allow_pin12full_dynamic17unshare_if_shared17h9f78cce76fd1eb6dE>
   25894:	a806      	add	r0, sp, #24
   25896:	f003 fc61 	bl	2915c <_ZN9allow_pin12full_dynamic17unshare_if_shared17h9f78cce76fd1eb6dE>
   2589a:	b025      	add	sp, #148	@ 0x94
   2589c:	bdf0      	pop	{r4, r5, r6, r7, pc}
   2589e:	46c0      	nop			@ (mov r8, r8)
   258a0:	0000093c 	.word	0x0000093c

000258a4 <_ZN20complex_full_dynamic3app17hf8c92e1c36491510E>:
   258a4:	b5f0      	push	{r4, r5, r6, r7, lr}
   258a6:	af03      	add	r7, sp, #12
   258a8:	b0ab      	sub	sp, #172	@ 0xac
   258aa:	9005      	str	r0, [sp, #20]
   258ac:	ae06      	add	r6, sp, #24
   258ae:	2002      	movs	r0, #2
   258b0:	9004      	str	r0, [sp, #16]
   258b2:	7230      	strb	r0, [r6, #8]
   258b4:	360c      	adds	r6, #12
   258b6:	2513      	movs	r5, #19
   258b8:	4630      	mov	r0, r6
   258ba:	462a      	mov	r2, r5
   258bc:	f003 fe27 	bl	2950e <__aeabi_memcpy>
   258c0:	ac0e      	add	r4, sp, #56	@ 0x38
   258c2:	4620      	mov	r0, r4
   258c4:	300c      	adds	r0, #12
   258c6:	2155      	movs	r1, #85	@ 0x55
   258c8:	9003      	str	r0, [sp, #12]
   258ca:	9102      	str	r1, [sp, #8]
   258cc:	f003 fc72 	bl	291b4 <__aeabi_memclr4>
   258d0:	9804      	ldr	r0, [sp, #16]
   258d2:	7220      	strb	r0, [r4, #8]
   258d4:	2404      	movs	r4, #4
   258d6:	9500      	str	r5, [sp, #0]
   258d8:	9401      	str	r4, [sp, #4]
   258da:	a827      	add	r0, sp, #156	@ 0x9c
   258dc:	492e      	ldr	r1, [pc, #184]	@ (25998 <_ZN20complex_full_dynamic3app17hf8c92e1c36491510E+0xf4>)
   258de:	2509      	movs	r5, #9
   258e0:	462a      	mov	r2, r5
   258e2:	4633      	mov	r3, r6
   258e4:	f003 fc4e 	bl	29184 <_ZN9allow_pin13dynamic_allow17h33d41317a2da4f1cE>
   258e8:	9827      	ldr	r0, [sp, #156]	@ 0x9c
   258ea:	2802      	cmp	r0, #2
   258ec:	d102      	bne.n	258f4 <_ZN20complex_full_dynamic3app17hf8c92e1c36491510E+0x50>
   258ee:	9928      	ldr	r1, [sp, #160]	@ 0xa0
   258f0:	4a29      	ldr	r2, [pc, #164]	@ (25998 <_ZN20complex_full_dynamic3app17hf8c92e1c36491510E+0xf4>)
   258f2:	e004      	b.n	258fe <_ZN20complex_full_dynamic3app17hf8c92e1c36491510E+0x5a>
   258f4:	a906      	add	r1, sp, #24
   258f6:	720c      	strb	r4, [r1, #8]
   258f8:	9507      	str	r5, [sp, #28]
   258fa:	4a27      	ldr	r2, [pc, #156]	@ (25998 <_ZN20complex_full_dynamic3app17hf8c92e1c36491510E+0xf4>)
   258fc:	9206      	str	r2, [sp, #24]
   258fe:	2501      	movs	r5, #1
   25900:	2802      	cmp	r0, #2
   25902:	d02f      	beq.n	25964 <_ZN20complex_full_dynamic3app17hf8c92e1c36491510E+0xc0>
   25904:	a80e      	add	r0, sp, #56	@ 0x38
   25906:	7a00      	ldrb	r0, [r0, #8]
   25908:	2802      	cmp	r0, #2
   2590a:	d10f      	bne.n	2592c <_ZN20complex_full_dynamic3app17hf8c92e1c36491510E+0x88>
   2590c:	2603      	movs	r6, #3
   2590e:	9802      	ldr	r0, [sp, #8]
   25910:	9000      	str	r0, [sp, #0]
   25912:	9601      	str	r6, [sp, #4]
   25914:	a827      	add	r0, sp, #156	@ 0x9c
   25916:	2407      	movs	r4, #7
   25918:	4611      	mov	r1, r2
   2591a:	4622      	mov	r2, r4
   2591c:	9b03      	ldr	r3, [sp, #12]
   2591e:	f003 fc31 	bl	29184 <_ZN9allow_pin13dynamic_allow17h33d41317a2da4f1cE>
   25922:	9827      	ldr	r0, [sp, #156]	@ 0x9c
   25924:	2802      	cmp	r0, #2
   25926:	d106      	bne.n	25936 <_ZN20complex_full_dynamic3app17hf8c92e1c36491510E+0x92>
   25928:	9928      	ldr	r1, [sp, #160]	@ 0xa0
   2592a:	e000      	b.n	2592e <_ZN20complex_full_dynamic3app17hf8c92e1c36491510E+0x8a>
   2592c:	2103      	movs	r1, #3
   2592e:	4628      	mov	r0, r5
   25930:	2800      	cmp	r0, #0
   25932:	d008      	beq.n	25946 <_ZN20complex_full_dynamic3app17hf8c92e1c36491510E+0xa2>
   25934:	e016      	b.n	25964 <_ZN20complex_full_dynamic3app17hf8c92e1c36491510E+0xc0>
   25936:	a80e      	add	r0, sp, #56	@ 0x38
   25938:	7206      	strb	r6, [r0, #8]
   2593a:	940f      	str	r4, [sp, #60]	@ 0x3c
   2593c:	4816      	ldr	r0, [pc, #88]	@ (25998 <_ZN20complex_full_dynamic3app17hf8c92e1c36491510E+0xf4>)
   2593e:	900e      	str	r0, [sp, #56]	@ 0x38
   25940:	2000      	movs	r0, #0
   25942:	2800      	cmp	r0, #0
   25944:	d10e      	bne.n	25964 <_ZN20complex_full_dynamic3app17hf8c92e1c36491510E+0xc0>
   25946:	4814      	ldr	r0, [pc, #80]	@ (25998 <_ZN20complex_full_dynamic3app17hf8c92e1c36491510E+0xf4>)
   25948:	2109      	movs	r1, #9
   2594a:	2207      	movs	r2, #7
   2594c:	2400      	movs	r4, #0
   2594e:	4623      	mov	r3, r4
   25950:	df02      	svc	2
   25952:	287f      	cmp	r0, #127	@ 0x7f
   25954:	d906      	bls.n	25964 <_ZN20complex_full_dynamic3app17hf8c92e1c36491510E+0xc0>
   25956:	a806      	add	r0, sp, #24
   25958:	f003 fc00 	bl	2915c <_ZN9allow_pin12full_dynamic17unshare_if_shared17h9f78cce76fd1eb6dE>
   2595c:	a80e      	add	r0, sp, #56	@ 0x38
   2595e:	f003 fbfd 	bl	2915c <_ZN9allow_pin12full_dynamic17unshare_if_shared17h9f78cce76fd1eb6dE>
   25962:	4625      	mov	r5, r4
   25964:	2d00      	cmp	r5, #0
   25966:	d003      	beq.n	25970 <_ZN20complex_full_dynamic3app17hf8c92e1c36491510E+0xcc>
   25968:	9c05      	ldr	r4, [sp, #20]
   2596a:	6061      	str	r1, [r4, #4]
   2596c:	2001      	movs	r0, #1
   2596e:	e009      	b.n	25984 <_ZN20complex_full_dynamic3app17hf8c92e1c36491510E+0xe0>
   25970:	a80e      	add	r0, sp, #56	@ 0x38
   25972:	f003 fbf3 	bl	2915c <_ZN9allow_pin12full_dynamic17unshare_if_shared17h9f78cce76fd1eb6dE>
   25976:	9c05      	ldr	r4, [sp, #20]
   25978:	1c60      	adds	r0, r4, #1
   2597a:	2255      	movs	r2, #85	@ 0x55
   2597c:	9903      	ldr	r1, [sp, #12]
   2597e:	f003 fdc6 	bl	2950e <__aeabi_memcpy>
   25982:	2000      	movs	r0, #0
   25984:	7020      	strb	r0, [r4, #0]
   25986:	a80e      	add	r0, sp, #56	@ 0x38
   25988:	f003 fbe8 	bl	2915c <_ZN9allow_pin12full_dynamic17unshare_if_shared17h9f78cce76fd1eb6dE>
   2598c:	a806      	add	r0, sp, #24
   2598e:	f003 fbe5 	bl	2915c <_ZN9allow_pin12full_dynamic17unshare_if_shared17h9f78cce76fd1eb6dE>
   25992:	b02b      	add	sp, #172	@ 0xac
   25994:	bdf0      	pop	{r4, r5, r6, r7, pc}
   25996:	46c0      	nop			@ (mov r8, r8)
   25998:	0000032e 	.word	0x0000032e

0002599c <_ZN20complex_full_dynamic3app17hfbdf0b566e9adfdeE>:
   2599c:	b5f0      	push	{r4, r5, r6, r7, lr}
   2599e:	af03      	add	r7, sp, #12
   259a0:	b0ab      	sub	sp, #172	@ 0xac
   259a2:	9005      	str	r0, [sp, #20]
   259a4:	ae06      	add	r6, sp, #24
   259a6:	2002      	movs	r0, #2
   259a8:	9004      	str	r0, [sp, #16]
   259aa:	7230      	strb	r0, [r6, #8]
   259ac:	360c      	adds	r6, #12
   259ae:	2536      	movs	r5, #54	@ 0x36
   259b0:	4630      	mov	r0, r6
   259b2:	462a      	mov	r2, r5
   259b4:	f003 fdab 	bl	2950e <__aeabi_memcpy>
   259b8:	ac17      	add	r4, sp, #92	@ 0x5c
   259ba:	4620      	mov	r0, r4
   259bc:	300c      	adds	r0, #12
   259be:	2134      	movs	r1, #52	@ 0x34
   259c0:	9003      	str	r0, [sp, #12]
   259c2:	9102      	str	r1, [sp, #8]
   259c4:	f003 fbf6 	bl	291b4 <__aeabi_memclr4>
   259c8:	9804      	ldr	r0, [sp, #16]
   259ca:	7220      	strb	r0, [r4, #8]
   259cc:	2404      	movs	r4, #4
   259ce:	9500      	str	r5, [sp, #0]
   259d0:	9401      	str	r4, [sp, #4]
   259d2:	a827      	add	r0, sp, #156	@ 0x9c
   259d4:	4d2d      	ldr	r5, [pc, #180]	@ (25a8c <_ZN20complex_full_dynamic3app17hfbdf0b566e9adfdeE+0xf0>)
   259d6:	4629      	mov	r1, r5
   259d8:	4622      	mov	r2, r4
   259da:	4633      	mov	r3, r6
   259dc:	f003 fbd2 	bl	29184 <_ZN9allow_pin13dynamic_allow17h33d41317a2da4f1cE>
   259e0:	9827      	ldr	r0, [sp, #156]	@ 0x9c
   259e2:	2802      	cmp	r0, #2
   259e4:	d102      	bne.n	259ec <_ZN20complex_full_dynamic3app17hfbdf0b566e9adfdeE+0x50>
   259e6:	462e      	mov	r6, r5
   259e8:	9928      	ldr	r1, [sp, #160]	@ 0xa0
   259ea:	e004      	b.n	259f6 <_ZN20complex_full_dynamic3app17hfbdf0b566e9adfdeE+0x5a>
   259ec:	a906      	add	r1, sp, #24
   259ee:	720c      	strb	r4, [r1, #8]
   259f0:	9407      	str	r4, [sp, #28]
   259f2:	462e      	mov	r6, r5
   259f4:	9506      	str	r5, [sp, #24]
   259f6:	2501      	movs	r5, #1
   259f8:	2802      	cmp	r0, #2
   259fa:	d02e      	beq.n	25a5a <_ZN20complex_full_dynamic3app17hfbdf0b566e9adfdeE+0xbe>
   259fc:	a817      	add	r0, sp, #92	@ 0x5c
   259fe:	7a00      	ldrb	r0, [r0, #8]
   25a00:	2103      	movs	r1, #3
   25a02:	2802      	cmp	r0, #2
   25a04:	d10e      	bne.n	25a24 <_ZN20complex_full_dynamic3app17hfbdf0b566e9adfdeE+0x88>
   25a06:	9802      	ldr	r0, [sp, #8]
   25a08:	9000      	str	r0, [sp, #0]
   25a0a:	9104      	str	r1, [sp, #16]
   25a0c:	9101      	str	r1, [sp, #4]
   25a0e:	a827      	add	r0, sp, #156	@ 0x9c
   25a10:	2402      	movs	r4, #2
   25a12:	4631      	mov	r1, r6
   25a14:	4622      	mov	r2, r4
   25a16:	9b03      	ldr	r3, [sp, #12]
   25a18:	f003 fbb4 	bl	29184 <_ZN9allow_pin13dynamic_allow17h33d41317a2da4f1cE>
   25a1c:	9827      	ldr	r0, [sp, #156]	@ 0x9c
   25a1e:	2802      	cmp	r0, #2
   25a20:	d104      	bne.n	25a2c <_ZN20complex_full_dynamic3app17hfbdf0b566e9adfdeE+0x90>
   25a22:	9928      	ldr	r1, [sp, #160]	@ 0xa0
   25a24:	4628      	mov	r0, r5
   25a26:	2800      	cmp	r0, #0
   25a28:	d008      	beq.n	25a3c <_ZN20complex_full_dynamic3app17hfbdf0b566e9adfdeE+0xa0>
   25a2a:	e016      	b.n	25a5a <_ZN20complex_full_dynamic3app17hfbdf0b566e9adfdeE+0xbe>
   25a2c:	a817      	add	r0, sp, #92	@ 0x5c
   25a2e:	9904      	ldr	r1, [sp, #16]
   25a30:	7201      	strb	r1, [r0, #8]
   25a32:	9418      	str	r4, [sp, #96]	@ 0x60
   25a34:	9617      	str	r6, [sp, #92]	@ 0x5c
   25a36:	2000      	movs	r0, #0
   25a38:	2800      	cmp	r0, #0
   25a3a:	d10e      	bne.n	25a5a <_ZN20complex_full_dynamic3app17hfbdf0b566e9adfdeE+0xbe>
   25a3c:	4813      	ldr	r0, [pc, #76]	@ (25a8c <_ZN20complex_full_dynamic3app17hfbdf0b566e9adfdeE+0xf0>)
   25a3e:	2104      	movs	r1, #4
   25a40:	2202      	movs	r2, #2
   25a42:	2400      	movs	r4, #0
   25a44:	4623      	mov	r3, r4
   25a46:	df02      	svc	2
   25a48:	287f      	cmp	r0, #127	@ 0x7f
   25a4a:	d906      	bls.n	25a5a <_ZN20complex_full_dynamic3app17hfbdf0b566e9adfdeE+0xbe>
   25a4c:	a806      	add	r0, sp, #24
   25a4e:	f003 fb85 	bl	2915c <_ZN9allow_pin12full_dynamic17unshare_if_shared17h9f78cce76fd1eb6dE>
   25a52:	a817      	add	r0, sp, #92	@ 0x5c
   25a54:	f003 fb82 	bl	2915c <_ZN9allow_pin12full_dynamic17unshare_if_shared17h9f78cce76fd1eb6dE>
   25a58:	4625      	mov	r5, r4
   25a5a:	2d00      	cmp	r5, #0
   25a5c:	d003      	beq.n	25a66 <_ZN20complex_full_dynamic3app17hfbdf0b566e9adfdeE+0xca>
   25a5e:	9c05      	ldr	r4, [sp, #20]
   25a60:	6061      	str	r1, [r4, #4]
   25a62:	2001      	movs	r0, #1
   25a64:	e009      	b.n	25a7a <_ZN20complex_full_dynamic3app17hfbdf0b566e9adfdeE+0xde>
   25a66:	a817      	add	r0, sp, #92	@ 0x5c
   25a68:	f003 fb78 	bl	2915c <_ZN9allow_pin12full_dynamic17unshare_if_shared17h9f78cce76fd1eb6dE>
   25a6c:	9c05      	ldr	r4, [sp, #20]
   25a6e:	1c60      	adds	r0, r4, #1
   25a70:	2234      	movs	r2, #52	@ 0x34
   25a72:	9903      	ldr	r1, [sp, #12]
   25a74:	f003 fd4b 	bl	2950e <__aeabi_memcpy>
   25a78:	2000      	movs	r0, #0
   25a7a:	7020      	strb	r0, [r4, #0]
   25a7c:	a817      	add	r0, sp, #92	@ 0x5c
   25a7e:	f003 fb6d 	bl	2915c <_ZN9allow_pin12full_dynamic17unshare_if_shared17h9f78cce76fd1eb6dE>
   25a82:	a806      	add	r0, sp, #24
   25a84:	f003 fb6a 	bl	2915c <_ZN9allow_pin12full_dynamic17unshare_if_shared17h9f78cce76fd1eb6dE>
   25a88:	b02b      	add	sp, #172	@ 0xac
   25a8a:	bdf0      	pop	{r4, r5, r6, r7, pc}
   25a8c:	000023c6 	.word	0x000023c6

00025a90 <_ZN20complex_full_dynamic3app17hfcf380f742c7b75cE>:
   25a90:	b5f0      	push	{r4, r5, r6, r7, lr}
   25a92:	af03      	add	r7, sp, #12
   25a94:	b0ad      	sub	sp, #180	@ 0xb4
   25a96:	9005      	str	r0, [sp, #20]
   25a98:	ad06      	add	r5, sp, #24
   25a9a:	2002      	movs	r0, #2
   25a9c:	9004      	str	r0, [sp, #16]
   25a9e:	7228      	strb	r0, [r5, #8]
   25aa0:	350c      	adds	r5, #12
   25aa2:	2648      	movs	r6, #72	@ 0x48
   25aa4:	4628      	mov	r0, r5
   25aa6:	4632      	mov	r2, r6
   25aa8:	f003 fd31 	bl	2950e <__aeabi_memcpy>
   25aac:	ac1b      	add	r4, sp, #108	@ 0x6c
   25aae:	4620      	mov	r0, r4
   25ab0:	300c      	adds	r0, #12
   25ab2:	2129      	movs	r1, #41	@ 0x29
   25ab4:	9003      	str	r0, [sp, #12]
   25ab6:	9102      	str	r1, [sp, #8]
   25ab8:	f003 fb7c 	bl	291b4 <__aeabi_memclr4>
   25abc:	9804      	ldr	r0, [sp, #16]
   25abe:	7220      	strb	r0, [r4, #8]
   25ac0:	2404      	movs	r4, #4
   25ac2:	9600      	str	r6, [sp, #0]
   25ac4:	9401      	str	r4, [sp, #4]
   25ac6:	a829      	add	r0, sp, #164	@ 0xa4
   25ac8:	492e      	ldr	r1, [pc, #184]	@ (25b84 <_ZN20complex_full_dynamic3app17hfcf380f742c7b75cE+0xf4>)
   25aca:	2603      	movs	r6, #3
   25acc:	4632      	mov	r2, r6
   25ace:	462b      	mov	r3, r5
   25ad0:	f003 fb58 	bl	29184 <_ZN9allow_pin13dynamic_allow17h33d41317a2da4f1cE>
   25ad4:	9829      	ldr	r0, [sp, #164]	@ 0xa4
   25ad6:	2802      	cmp	r0, #2
   25ad8:	d102      	bne.n	25ae0 <_ZN20complex_full_dynamic3app17hfcf380f742c7b75cE+0x50>
   25ada:	992a      	ldr	r1, [sp, #168]	@ 0xa8
   25adc:	4a29      	ldr	r2, [pc, #164]	@ (25b84 <_ZN20complex_full_dynamic3app17hfcf380f742c7b75cE+0xf4>)
   25ade:	e004      	b.n	25aea <_ZN20complex_full_dynamic3app17hfcf380f742c7b75cE+0x5a>
   25ae0:	a906      	add	r1, sp, #24
   25ae2:	720c      	strb	r4, [r1, #8]
   25ae4:	9607      	str	r6, [sp, #28]
   25ae6:	4a27      	ldr	r2, [pc, #156]	@ (25b84 <_ZN20complex_full_dynamic3app17hfcf380f742c7b75cE+0xf4>)
   25ae8:	9206      	str	r2, [sp, #24]
   25aea:	2501      	movs	r5, #1
   25aec:	2802      	cmp	r0, #2
   25aee:	d02f      	beq.n	25b50 <_ZN20complex_full_dynamic3app17hfcf380f742c7b75cE+0xc0>
   25af0:	a81b      	add	r0, sp, #108	@ 0x6c
   25af2:	7a00      	ldrb	r0, [r0, #8]
   25af4:	2802      	cmp	r0, #2
   25af6:	4628      	mov	r0, r5
   25af8:	d10f      	bne.n	25b1a <_ZN20complex_full_dynamic3app17hfcf380f742c7b75cE+0x8a>
   25afa:	2603      	movs	r6, #3
   25afc:	9802      	ldr	r0, [sp, #8]
   25afe:	9000      	str	r0, [sp, #0]
   25b00:	9601      	str	r6, [sp, #4]
   25b02:	a829      	add	r0, sp, #164	@ 0xa4
   25b04:	2404      	movs	r4, #4
   25b06:	4611      	mov	r1, r2
   25b08:	4622      	mov	r2, r4
   25b0a:	9b03      	ldr	r3, [sp, #12]
   25b0c:	f003 fb3a 	bl	29184 <_ZN9allow_pin13dynamic_allow17h33d41317a2da4f1cE>
   25b10:	9829      	ldr	r0, [sp, #164]	@ 0xa4
   25b12:	2802      	cmp	r0, #2
   25b14:	d105      	bne.n	25b22 <_ZN20complex_full_dynamic3app17hfcf380f742c7b75cE+0x92>
   25b16:	9e2a      	ldr	r6, [sp, #168]	@ 0xa8
   25b18:	4628      	mov	r0, r5
   25b1a:	2800      	cmp	r0, #0
   25b1c:	d009      	beq.n	25b32 <_ZN20complex_full_dynamic3app17hfcf380f742c7b75cE+0xa2>
   25b1e:	4631      	mov	r1, r6
   25b20:	e016      	b.n	25b50 <_ZN20complex_full_dynamic3app17hfcf380f742c7b75cE+0xc0>
   25b22:	a81b      	add	r0, sp, #108	@ 0x6c
   25b24:	7206      	strb	r6, [r0, #8]
   25b26:	941c      	str	r4, [sp, #112]	@ 0x70
   25b28:	4816      	ldr	r0, [pc, #88]	@ (25b84 <_ZN20complex_full_dynamic3app17hfcf380f742c7b75cE+0xf4>)
   25b2a:	901b      	str	r0, [sp, #108]	@ 0x6c
   25b2c:	2000      	movs	r0, #0
   25b2e:	2800      	cmp	r0, #0
   25b30:	d1f5      	bne.n	25b1e <_ZN20complex_full_dynamic3app17hfcf380f742c7b75cE+0x8e>
   25b32:	4814      	ldr	r0, [pc, #80]	@ (25b84 <_ZN20complex_full_dynamic3app17hfcf380f742c7b75cE+0xf4>)
   25b34:	2103      	movs	r1, #3
   25b36:	2204      	movs	r2, #4
   25b38:	2400      	movs	r4, #0
   25b3a:	4623      	mov	r3, r4
   25b3c:	df02      	svc	2
   25b3e:	287f      	cmp	r0, #127	@ 0x7f
   25b40:	d906      	bls.n	25b50 <_ZN20complex_full_dynamic3app17hfcf380f742c7b75cE+0xc0>
   25b42:	a806      	add	r0, sp, #24
   25b44:	f003 fb0a 	bl	2915c <_ZN9allow_pin12full_dynamic17unshare_if_shared17h9f78cce76fd1eb6dE>
   25b48:	a81b      	add	r0, sp, #108	@ 0x6c
   25b4a:	f003 fb07 	bl	2915c <_ZN9allow_pin12full_dynamic17unshare_if_shared17h9f78cce76fd1eb6dE>
   25b4e:	4625      	mov	r5, r4
   25b50:	2d00      	cmp	r5, #0
   25b52:	d003      	beq.n	25b5c <_ZN20complex_full_dynamic3app17hfcf380f742c7b75cE+0xcc>
   25b54:	9c05      	ldr	r4, [sp, #20]
   25b56:	6061      	str	r1, [r4, #4]
   25b58:	2001      	movs	r0, #1
   25b5a:	e009      	b.n	25b70 <_ZN20complex_full_dynamic3app17hfcf380f742c7b75cE+0xe0>
   25b5c:	a81b      	add	r0, sp, #108	@ 0x6c
   25b5e:	f003 fafd 	bl	2915c <_ZN9allow_pin12full_dynamic17unshare_if_shared17h9f78cce76fd1eb6dE>
   25b62:	9c05      	ldr	r4, [sp, #20]
   25b64:	1c60      	adds	r0, r4, #1
   25b66:	2229      	movs	r2, #41	@ 0x29
   25b68:	9903      	ldr	r1, [sp, #12]
   25b6a:	f003 fcd0 	bl	2950e <__aeabi_memcpy>
   25b6e:	2000      	movs	r0, #0
   25b70:	7020      	strb	r0, [r4, #0]
   25b72:	a81b      	add	r0, sp, #108	@ 0x6c
   25b74:	f003 faf2 	bl	2915c <_ZN9allow_pin12full_dynamic17unshare_if_shared17h9f78cce76fd1eb6dE>
   25b78:	a806      	add	r0, sp, #24
   25b7a:	f003 faef 	bl	2915c <_ZN9allow_pin12full_dynamic17unshare_if_shared17h9f78cce76fd1eb6dE>
   25b7e:	b02d      	add	sp, #180	@ 0xb4
   25b80:	bdf0      	pop	{r4, r5, r6, r7, pc}
   25b82:	46c0      	nop			@ (mov r8, r8)
   25b84:	000026a4 	.word	0x000026a4

00025b88 <_ZN20complex_full_dynamic3app17hffa0e76acc26a640E>:
   25b88:	b5f0      	push	{r4, r5, r6, r7, lr}
   25b8a:	af03      	add	r7, sp, #12
   25b8c:	b0a1      	sub	sp, #132	@ 0x84
   25b8e:	9005      	str	r0, [sp, #20]
   25b90:	ac07      	add	r4, sp, #28
   25b92:	2502      	movs	r5, #2
   25b94:	7225      	strb	r5, [r4, #8]
   25b96:	340c      	adds	r4, #12
   25b98:	2625      	movs	r6, #37	@ 0x25
   25b9a:	4620      	mov	r0, r4
   25b9c:	4632      	mov	r2, r6
   25b9e:	f003 fcb6 	bl	2950e <__aeabi_memcpy>
   25ba2:	a814      	add	r0, sp, #80	@ 0x50
   25ba4:	9006      	str	r0, [sp, #24]
   25ba6:	7205      	strb	r5, [r0, #8]
   25ba8:	2500      	movs	r5, #0
   25baa:	951c      	str	r5, [sp, #112]	@ 0x70
   25bac:	951b      	str	r5, [sp, #108]	@ 0x6c
   25bae:	951a      	str	r5, [sp, #104]	@ 0x68
   25bb0:	9519      	str	r5, [sp, #100]	@ 0x64
   25bb2:	9518      	str	r5, [sp, #96]	@ 0x60
   25bb4:	9517      	str	r5, [sp, #92]	@ 0x5c
   25bb6:	2004      	movs	r0, #4
   25bb8:	9600      	str	r6, [sp, #0]
   25bba:	9004      	str	r0, [sp, #16]
   25bbc:	9001      	str	r0, [sp, #4]
   25bbe:	20a7      	movs	r0, #167	@ 0xa7
   25bc0:	0106      	lsls	r6, r0, #4
   25bc2:	a81d      	add	r0, sp, #116	@ 0x74
   25bc4:	2209      	movs	r2, #9
   25bc6:	4631      	mov	r1, r6
   25bc8:	9203      	str	r2, [sp, #12]
   25bca:	4623      	mov	r3, r4
   25bcc:	f003 fada 	bl	29184 <_ZN9allow_pin13dynamic_allow17h33d41317a2da4f1cE>
   25bd0:	981d      	ldr	r0, [sp, #116]	@ 0x74
   25bd2:	2802      	cmp	r0, #2
   25bd4:	d102      	bne.n	25bdc <_ZN20complex_full_dynamic3app17hffa0e76acc26a640E+0x54>
   25bd6:	4632      	mov	r2, r6
   25bd8:	991e      	ldr	r1, [sp, #120]	@ 0x78
   25bda:	e006      	b.n	25bea <_ZN20complex_full_dynamic3app17hffa0e76acc26a640E+0x62>
   25bdc:	a907      	add	r1, sp, #28
   25bde:	9a04      	ldr	r2, [sp, #16]
   25be0:	720a      	strb	r2, [r1, #8]
   25be2:	9903      	ldr	r1, [sp, #12]
   25be4:	9108      	str	r1, [sp, #32]
   25be6:	4632      	mov	r2, r6
   25be8:	9607      	str	r6, [sp, #28]
   25bea:	9e06      	ldr	r6, [sp, #24]
   25bec:	360c      	adds	r6, #12
   25bee:	2401      	movs	r4, #1
   25bf0:	2802      	cmp	r0, #2
   25bf2:	d037      	beq.n	25c64 <_ZN20complex_full_dynamic3app17hffa0e76acc26a640E+0xdc>
   25bf4:	a814      	add	r0, sp, #80	@ 0x50
   25bf6:	7a00      	ldrb	r0, [r0, #8]
   25bf8:	2103      	movs	r1, #3
   25bfa:	2802      	cmp	r0, #2
   25bfc:	d116      	bne.n	25c2c <_ZN20complex_full_dynamic3app17hffa0e76acc26a640E+0xa4>
   25bfe:	2018      	movs	r0, #24
   25c00:	9000      	str	r0, [sp, #0]
   25c02:	9103      	str	r1, [sp, #12]
   25c04:	9101      	str	r1, [sp, #4]
   25c06:	a81d      	add	r0, sp, #116	@ 0x74
   25c08:	4633      	mov	r3, r6
   25c0a:	2608      	movs	r6, #8
   25c0c:	4611      	mov	r1, r2
   25c0e:	9204      	str	r2, [sp, #16]
   25c10:	4632      	mov	r2, r6
   25c12:	9306      	str	r3, [sp, #24]
   25c14:	f003 fab6 	bl	29184 <_ZN9allow_pin13dynamic_allow17h33d41317a2da4f1cE>
   25c18:	981d      	ldr	r0, [sp, #116]	@ 0x74
   25c1a:	2802      	cmp	r0, #2
   25c1c:	d10b      	bne.n	25c36 <_ZN20complex_full_dynamic3app17hffa0e76acc26a640E+0xae>
   25c1e:	991e      	ldr	r1, [sp, #120]	@ 0x78
   25c20:	4625      	mov	r5, r4
   25c22:	9e06      	ldr	r6, [sp, #24]
   25c24:	9804      	ldr	r0, [sp, #16]
   25c26:	2d00      	cmp	r5, #0
   25c28:	d00e      	beq.n	25c48 <_ZN20complex_full_dynamic3app17hffa0e76acc26a640E+0xc0>
   25c2a:	e01b      	b.n	25c64 <_ZN20complex_full_dynamic3app17hffa0e76acc26a640E+0xdc>
   25c2c:	4625      	mov	r5, r4
   25c2e:	4610      	mov	r0, r2
   25c30:	2d00      	cmp	r5, #0
   25c32:	d009      	beq.n	25c48 <_ZN20complex_full_dynamic3app17hffa0e76acc26a640E+0xc0>
   25c34:	e016      	b.n	25c64 <_ZN20complex_full_dynamic3app17hffa0e76acc26a640E+0xdc>
   25c36:	a814      	add	r0, sp, #80	@ 0x50
   25c38:	9903      	ldr	r1, [sp, #12]
   25c3a:	7201      	strb	r1, [r0, #8]
   25c3c:	9615      	str	r6, [sp, #84]	@ 0x54
   25c3e:	9804      	ldr	r0, [sp, #16]
   25c40:	9014      	str	r0, [sp, #80]	@ 0x50
   25c42:	9e06      	ldr	r6, [sp, #24]
   25c44:	2d00      	cmp	r5, #0
   25c46:	d10d      	bne.n	25c64 <_ZN20complex_full_dynamic3app17hffa0e76acc26a640E+0xdc>
   25c48:	2109      	movs	r1, #9
   25c4a:	2208      	movs	r2, #8
   25c4c:	2500      	movs	r5, #0
   25c4e:	462b      	mov	r3, r5
   25c50:	df02      	svc	2
   25c52:	287f      	cmp	r0, #127	@ 0x7f
   25c54:	d906      	bls.n	25c64 <_ZN20complex_full_dynamic3app17hffa0e76acc26a640E+0xdc>
   25c56:	a807      	add	r0, sp, #28
   25c58:	f003 fa80 	bl	2915c <_ZN9allow_pin12full_dynamic17unshare_if_shared17h9f78cce76fd1eb6dE>
   25c5c:	a814      	add	r0, sp, #80	@ 0x50
   25c5e:	f003 fa7d 	bl	2915c <_ZN9allow_pin12full_dynamic17unshare_if_shared17h9f78cce76fd1eb6dE>
   25c62:	462c      	mov	r4, r5
   25c64:	2c00      	cmp	r4, #0
   25c66:	d003      	beq.n	25c70 <_ZN20complex_full_dynamic3app17hffa0e76acc26a640E+0xe8>
   25c68:	9c05      	ldr	r4, [sp, #20]
   25c6a:	6061      	str	r1, [r4, #4]
   25c6c:	2001      	movs	r0, #1
   25c6e:	e009      	b.n	25c84 <_ZN20complex_full_dynamic3app17hffa0e76acc26a640E+0xfc>
   25c70:	a814      	add	r0, sp, #80	@ 0x50
   25c72:	f003 fa73 	bl	2915c <_ZN9allow_pin12full_dynamic17unshare_if_shared17h9f78cce76fd1eb6dE>
   25c76:	9c05      	ldr	r4, [sp, #20]
   25c78:	1c60      	adds	r0, r4, #1
   25c7a:	2218      	movs	r2, #24
   25c7c:	4631      	mov	r1, r6
   25c7e:	f003 fc46 	bl	2950e <__aeabi_memcpy>
   25c82:	2000      	movs	r0, #0
   25c84:	7020      	strb	r0, [r4, #0]
   25c86:	a814      	add	r0, sp, #80	@ 0x50
   25c88:	f003 fa68 	bl	2915c <_ZN9allow_pin12full_dynamic17unshare_if_shared17h9f78cce76fd1eb6dE>
   25c8c:	a807      	add	r0, sp, #28
   25c8e:	f003 fa65 	bl	2915c <_ZN9allow_pin12full_dynamic17unshare_if_shared17h9f78cce76fd1eb6dE>
   25c92:	b021      	add	sp, #132	@ 0x84
   25c94:	bdf0      	pop	{r4, r5, r6, r7, pc}
   25c96:	d4d4      	bmi.n	25c42 <_ZN20complex_full_dynamic3app17hffa0e76acc26a640E+0xba>

00025c98 <_start>:
   25c98:	b5f0      	push	{r4, r5, r6, r7, lr}
   25c9a:	af03      	add	r7, sp, #12
   25c9c:	4ee9      	ldr	r6, [pc, #932]	@ (26044 <_start+0x3ac>)
   25c9e:	44b5      	add	sp, r6
   25ca0:	48e9      	ldr	r0, [pc, #932]	@ (26048 <_start+0x3b0>)
   25ca2:	4468      	add	r0, sp
   25ca4:	900c      	str	r0, [sp, #48]	@ 0x30
   25ca6:	ac23      	add	r4, sp, #140	@ 0x8c
   25ca8:	4625      	mov	r5, r4
   25caa:	350c      	adds	r5, #12
   25cac:	2128      	movs	r1, #40	@ 0x28
   25cae:	910f      	str	r1, [sp, #60]	@ 0x3c
   25cb0:	4628      	mov	r0, r5
   25cb2:	f003 fa7f 	bl	291b4 <__aeabi_memclr4>
   25cb6:	2602      	movs	r6, #2
   25cb8:	7226      	strb	r6, [r4, #8]
   25cba:	4ce4      	ldr	r4, [pc, #912]	@ (2604c <_start+0x3b4>)
   25cbc:	446c      	add	r4, sp
   25cbe:	4620      	mov	r0, r4
   25cc0:	300c      	adds	r0, #12
   25cc2:	2151      	movs	r1, #81	@ 0x51
   25cc4:	900a      	str	r0, [sp, #40]	@ 0x28
   25cc6:	910b      	str	r1, [sp, #44]	@ 0x2c
   25cc8:	f003 fa74 	bl	291b4 <__aeabi_memclr4>
   25ccc:	960d      	str	r6, [sp, #52]	@ 0x34
   25cce:	7226      	strb	r6, [r4, #8]
   25cd0:	2404      	movs	r4, #4
   25cd2:	980f      	ldr	r0, [sp, #60]	@ 0x3c
   25cd4:	9000      	str	r0, [sp, #0]
   25cd6:	9401      	str	r4, [sp, #4]
   25cd8:	a833      	add	r0, sp, #204	@ 0xcc
   25cda:	49dd      	ldr	r1, [pc, #884]	@ (26050 <_start+0x3b8>)
   25cdc:	2609      	movs	r6, #9
   25cde:	4632      	mov	r2, r6
   25ce0:	462b      	mov	r3, r5
   25ce2:	f003 fa4f 	bl	29184 <_ZN9allow_pin13dynamic_allow17h33d41317a2da4f1cE>
   25ce6:	9833      	ldr	r0, [sp, #204]	@ 0xcc
   25ce8:	a94f      	add	r1, sp, #316	@ 0x13c
   25cea:	9109      	str	r1, [sp, #36]	@ 0x24
   25cec:	49d9      	ldr	r1, [pc, #868]	@ (26054 <_start+0x3bc>)
   25cee:	4469      	add	r1, sp
   25cf0:	9107      	str	r1, [sp, #28]
   25cf2:	49d9      	ldr	r1, [pc, #868]	@ (26058 <_start+0x3c0>)
   25cf4:	4469      	add	r1, sp
   25cf6:	9108      	str	r1, [sp, #32]
   25cf8:	2802      	cmp	r0, #2
   25cfa:	940e      	str	r4, [sp, #56]	@ 0x38
   25cfc:	d102      	bne.n	25d04 <_start+0x6c>
   25cfe:	9e34      	ldr	r6, [sp, #208]	@ 0xd0
   25d00:	4cd3      	ldr	r4, [pc, #844]	@ (26050 <_start+0x3b8>)
   25d02:	e004      	b.n	25d0e <_start+0x76>
   25d04:	a923      	add	r1, sp, #140	@ 0x8c
   25d06:	720c      	strb	r4, [r1, #8]
   25d08:	9624      	str	r6, [sp, #144]	@ 0x90
   25d0a:	4cd1      	ldr	r4, [pc, #836]	@ (26050 <_start+0x3b8>)
   25d0c:	9423      	str	r4, [sp, #140]	@ 0x8c
   25d0e:	2101      	movs	r1, #1
   25d10:	2802      	cmp	r0, #2
   25d12:	460d      	mov	r5, r1
   25d14:	910f      	str	r1, [sp, #60]	@ 0x3c
   25d16:	d033      	beq.n	25d80 <_start+0xe8>
   25d18:	48cc      	ldr	r0, [pc, #816]	@ (2604c <_start+0x3b4>)
   25d1a:	4468      	add	r0, sp
   25d1c:	7a00      	ldrb	r0, [r0, #8]
   25d1e:	2603      	movs	r6, #3
   25d20:	2802      	cmp	r0, #2
   25d22:	d10e      	bne.n	25d42 <_start+0xaa>
   25d24:	980b      	ldr	r0, [sp, #44]	@ 0x2c
   25d26:	9000      	str	r0, [sp, #0]
   25d28:	9601      	str	r6, [sp, #4]
   25d2a:	a833      	add	r0, sp, #204	@ 0xcc
   25d2c:	2509      	movs	r5, #9
   25d2e:	4621      	mov	r1, r4
   25d30:	462a      	mov	r2, r5
   25d32:	9b0a      	ldr	r3, [sp, #40]	@ 0x28
   25d34:	f003 fa26 	bl	29184 <_ZN9allow_pin13dynamic_allow17h33d41317a2da4f1cE>
   25d38:	9833      	ldr	r0, [sp, #204]	@ 0xcc
   25d3a:	2802      	cmp	r0, #2
   25d3c:	d103      	bne.n	25d46 <_start+0xae>
   25d3e:	9e34      	ldr	r6, [sp, #208]	@ 0xd0
   25d40:	990f      	ldr	r1, [sp, #60]	@ 0x3c
   25d42:	4608      	mov	r0, r1
   25d44:	e007      	b.n	25d56 <_start+0xbe>
   25d46:	48c1      	ldr	r0, [pc, #772]	@ (2604c <_start+0x3b4>)
   25d48:	4468      	add	r0, sp
   25d4a:	7206      	strb	r6, [r0, #8]
   25d4c:	980c      	ldr	r0, [sp, #48]	@ 0x30
   25d4e:	65c4      	str	r4, [r0, #92]	@ 0x5c
   25d50:	6605      	str	r5, [r0, #96]	@ 0x60
   25d52:	2000      	movs	r0, #0
   25d54:	990f      	ldr	r1, [sp, #60]	@ 0x3c
   25d56:	2800      	cmp	r0, #0
   25d58:	460d      	mov	r5, r1
   25d5a:	d111      	bne.n	25d80 <_start+0xe8>
   25d5c:	48bc      	ldr	r0, [pc, #752]	@ (26050 <_start+0x3b8>)
   25d5e:	2109      	movs	r1, #9
   25d60:	2500      	movs	r5, #0
   25d62:	460a      	mov	r2, r1
   25d64:	462b      	mov	r3, r5
   25d66:	df02      	svc	2
   25d68:	287f      	cmp	r0, #127	@ 0x7f
   25d6a:	d802      	bhi.n	25d72 <_start+0xda>
   25d6c:	460e      	mov	r6, r1
   25d6e:	9d0f      	ldr	r5, [sp, #60]	@ 0x3c
   25d70:	e006      	b.n	25d80 <_start+0xe8>
   25d72:	a823      	add	r0, sp, #140	@ 0x8c
   25d74:	f003 f9f2 	bl	2915c <_ZN9allow_pin12full_dynamic17unshare_if_shared17h9f78cce76fd1eb6dE>
   25d78:	48b4      	ldr	r0, [pc, #720]	@ (2604c <_start+0x3b4>)
   25d7a:	4468      	add	r0, sp
   25d7c:	f003 f9ee 	bl	2915c <_ZN9allow_pin12full_dynamic17unshare_if_shared17h9f78cce76fd1eb6dE>
   25d80:	48b2      	ldr	r0, [pc, #712]	@ (2604c <_start+0x3b4>)
   25d82:	4468      	add	r0, sp
   25d84:	f003 f9ea 	bl	2915c <_ZN9allow_pin12full_dynamic17unshare_if_shared17h9f78cce76fd1eb6dE>
   25d88:	2d00      	cmp	r5, #0
   25d8a:	d123      	bne.n	25dd4 <_start+0x13c>
   25d8c:	9a0a      	ldr	r2, [sp, #40]	@ 0x28
   25d8e:	7890      	ldrb	r0, [r2, #2]
   25d90:	a938      	add	r1, sp, #224	@ 0xe0
   25d92:	7088      	strb	r0, [r1, #2]
   25d94:	7810      	ldrb	r0, [r2, #0]
   25d96:	7852      	ldrb	r2, [r2, #1]
   25d98:	0212      	lsls	r2, r2, #8
   25d9a:	1810      	adds	r0, r2, r0
   25d9c:	8008      	strh	r0, [r1, #0]
   25d9e:	4cab      	ldr	r4, [pc, #684]	@ (2604c <_start+0x3b4>)
   25da0:	446c      	add	r4, sp
   25da2:	7ca0      	ldrb	r0, [r4, #18]
   25da4:	900a      	str	r0, [sp, #40]	@ 0x28
   25da6:	7c60      	ldrb	r0, [r4, #17]
   25da8:	9006      	str	r0, [sp, #24]
   25daa:	7be0      	ldrb	r0, [r4, #15]
   25dac:	9005      	str	r0, [sp, #20]
   25dae:	7c26      	ldrb	r6, [r4, #16]
   25db0:	4621      	mov	r1, r4
   25db2:	3113      	adds	r1, #19
   25db4:	a810      	add	r0, sp, #64	@ 0x40
   25db6:	224a      	movs	r2, #74	@ 0x4a
   25db8:	f003 fba9 	bl	2950e <__aeabi_memcpy>
   25dbc:	4620      	mov	r0, r4
   25dbe:	f003 f9cd 	bl	2915c <_ZN9allow_pin12full_dynamic17unshare_if_shared17h9f78cce76fd1eb6dE>
   25dc2:	0230      	lsls	r0, r6, #8
   25dc4:	9905      	ldr	r1, [sp, #20]
   25dc6:	1840      	adds	r0, r0, r1
   25dc8:	9906      	ldr	r1, [sp, #24]
   25dca:	0409      	lsls	r1, r1, #16
   25dcc:	9a0a      	ldr	r2, [sp, #40]	@ 0x28
   25dce:	0612      	lsls	r2, r2, #24
   25dd0:	1851      	adds	r1, r2, r1
   25dd2:	180e      	adds	r6, r1, r0
   25dd4:	a823      	add	r0, sp, #140	@ 0x8c
   25dd6:	f003 f9c1 	bl	2915c <_ZN9allow_pin12full_dynamic17unshare_if_shared17h9f78cce76fd1eb6dE>
   25dda:	2d00      	cmp	r5, #0
   25ddc:	d000      	beq.n	25de0 <_start+0x148>
   25dde:	e17c      	b.n	260da <_start+0x442>
   25de0:	4d9a      	ldr	r5, [pc, #616]	@ (2604c <_start+0x3b4>)
   25de2:	446d      	add	r5, sp
   25de4:	9838      	ldr	r0, [sp, #224]	@ 0xe0
   25de6:	81a8      	strh	r0, [r5, #12]
   25de8:	a838      	add	r0, sp, #224	@ 0xe0
   25dea:	7880      	ldrb	r0, [r0, #2]
   25dec:	73a8      	strb	r0, [r5, #14]
   25dee:	4896      	ldr	r0, [pc, #600]	@ (26048 <_start+0x3b0>)
   25df0:	4468      	add	r0, sp
   25df2:	900a      	str	r0, [sp, #40]	@ 0x28
   25df4:	a910      	add	r1, sp, #64	@ 0x40
   25df6:	244a      	movs	r4, #74	@ 0x4a
   25df8:	4622      	mov	r2, r4
   25dfa:	f003 fa28 	bl	2924e <__aeabi_memcpy4>
   25dfe:	4628      	mov	r0, r5
   25e00:	3013      	adds	r0, #19
   25e02:	990a      	ldr	r1, [sp, #40]	@ 0x28
   25e04:	4622      	mov	r2, r4
   25e06:	f003 fb82 	bl	2950e <__aeabi_memcpy>
   25e0a:	0e30      	lsrs	r0, r6, #24
   25e0c:	74a8      	strb	r0, [r5, #18]
   25e0e:	0c30      	lsrs	r0, r6, #16
   25e10:	7468      	strb	r0, [r5, #17]
   25e12:	0a30      	lsrs	r0, r6, #8
   25e14:	7428      	strb	r0, [r5, #16]
   25e16:	73ee      	strb	r6, [r5, #15]
   25e18:	9c0d      	ldr	r4, [sp, #52]	@ 0x34
   25e1a:	722c      	strb	r4, [r5, #8]
   25e1c:	4e8a      	ldr	r6, [pc, #552]	@ (26048 <_start+0x3b0>)
   25e1e:	446e      	add	r6, sp
   25e20:	4630      	mov	r0, r6
   25e22:	300c      	adds	r0, #12
   25e24:	2146      	movs	r1, #70	@ 0x46
   25e26:	900a      	str	r0, [sp, #40]	@ 0x28
   25e28:	9106      	str	r1, [sp, #24]
   25e2a:	f003 f9c3 	bl	291b4 <__aeabi_memclr4>
   25e2e:	7234      	strb	r4, [r6, #8]
   25e30:	9e0e      	ldr	r6, [sp, #56]	@ 0x38
   25e32:	980b      	ldr	r0, [sp, #44]	@ 0x2c
   25e34:	9000      	str	r0, [sp, #0]
   25e36:	9601      	str	r6, [sp, #4]
   25e38:	4c85      	ldr	r4, [pc, #532]	@ (26050 <_start+0x3b8>)
   25e3a:	34be      	adds	r4, #190	@ 0xbe
   25e3c:	350c      	adds	r5, #12
   25e3e:	a833      	add	r0, sp, #204	@ 0xcc
   25e40:	2207      	movs	r2, #7
   25e42:	4621      	mov	r1, r4
   25e44:	920b      	str	r2, [sp, #44]	@ 0x2c
   25e46:	462b      	mov	r3, r5
   25e48:	f003 f99c 	bl	29184 <_ZN9allow_pin13dynamic_allow17h33d41317a2da4f1cE>
   25e4c:	9833      	ldr	r0, [sp, #204]	@ 0xcc
   25e4e:	2802      	cmp	r0, #2
   25e50:	d101      	bne.n	25e56 <_start+0x1be>
   25e52:	9e34      	ldr	r6, [sp, #208]	@ 0xd0
   25e54:	e006      	b.n	25e64 <_start+0x1cc>
   25e56:	497d      	ldr	r1, [pc, #500]	@ (2604c <_start+0x3b4>)
   25e58:	4469      	add	r1, sp
   25e5a:	720e      	strb	r6, [r1, #8]
   25e5c:	990c      	ldr	r1, [sp, #48]	@ 0x30
   25e5e:	65cc      	str	r4, [r1, #92]	@ 0x5c
   25e60:	9a0b      	ldr	r2, [sp, #44]	@ 0x2c
   25e62:	660a      	str	r2, [r1, #96]	@ 0x60
   25e64:	990f      	ldr	r1, [sp, #60]	@ 0x3c
   25e66:	2802      	cmp	r0, #2
   25e68:	460d      	mov	r5, r1
   25e6a:	d035      	beq.n	25ed8 <_start+0x240>
   25e6c:	4876      	ldr	r0, [pc, #472]	@ (26048 <_start+0x3b0>)
   25e6e:	4468      	add	r0, sp
   25e70:	7a00      	ldrb	r0, [r0, #8]
   25e72:	2603      	movs	r6, #3
   25e74:	2802      	cmp	r0, #2
   25e76:	d10e      	bne.n	25e96 <_start+0x1fe>
   25e78:	9806      	ldr	r0, [sp, #24]
   25e7a:	9000      	str	r0, [sp, #0]
   25e7c:	9601      	str	r6, [sp, #4]
   25e7e:	a833      	add	r0, sp, #204	@ 0xcc
   25e80:	2500      	movs	r5, #0
   25e82:	4621      	mov	r1, r4
   25e84:	462a      	mov	r2, r5
   25e86:	9b0a      	ldr	r3, [sp, #40]	@ 0x28
   25e88:	f003 f97c 	bl	29184 <_ZN9allow_pin13dynamic_allow17h33d41317a2da4f1cE>
   25e8c:	9833      	ldr	r0, [sp, #204]	@ 0xcc
   25e8e:	2802      	cmp	r0, #2
   25e90:	d103      	bne.n	25e9a <_start+0x202>
   25e92:	9e34      	ldr	r6, [sp, #208]	@ 0xd0
   25e94:	990f      	ldr	r1, [sp, #60]	@ 0x3c
   25e96:	460d      	mov	r5, r1
   25e98:	e008      	b.n	25eac <_start+0x214>
   25e9a:	486b      	ldr	r0, [pc, #428]	@ (26048 <_start+0x3b0>)
   25e9c:	4468      	add	r0, sp
   25e9e:	7206      	strb	r6, [r0, #8]
   25ea0:	486e      	ldr	r0, [pc, #440]	@ (2605c <_start+0x3c4>)
   25ea2:	4468      	add	r0, sp
   25ea4:	6005      	str	r5, [r0, #0]
   25ea6:	980c      	ldr	r0, [sp, #48]	@ 0x30
   25ea8:	6004      	str	r4, [r0, #0]
   25eaa:	990f      	ldr	r1, [sp, #60]	@ 0x3c
   25eac:	2d00      	cmp	r5, #0
   25eae:	460d      	mov	r5, r1
   25eb0:	d112      	bne.n	25ed8 <_start+0x240>
   25eb2:	486b      	ldr	r0, [pc, #428]	@ (26060 <_start+0x3c8>)
   25eb4:	2107      	movs	r1, #7
   25eb6:	2500      	movs	r5, #0
   25eb8:	462a      	mov	r2, r5
   25eba:	462b      	mov	r3, r5
   25ebc:	df02      	svc	2
   25ebe:	287f      	cmp	r0, #127	@ 0x7f
   25ec0:	d802      	bhi.n	25ec8 <_start+0x230>
   25ec2:	460e      	mov	r6, r1
   25ec4:	9d0f      	ldr	r5, [sp, #60]	@ 0x3c
   25ec6:	e007      	b.n	25ed8 <_start+0x240>
   25ec8:	4860      	ldr	r0, [pc, #384]	@ (2604c <_start+0x3b4>)
   25eca:	4468      	add	r0, sp
   25ecc:	f003 f946 	bl	2915c <_ZN9allow_pin12full_dynamic17unshare_if_shared17h9f78cce76fd1eb6dE>
   25ed0:	485d      	ldr	r0, [pc, #372]	@ (26048 <_start+0x3b0>)
   25ed2:	4468      	add	r0, sp
   25ed4:	f003 f942 	bl	2915c <_ZN9allow_pin12full_dynamic17unshare_if_shared17h9f78cce76fd1eb6dE>
   25ed8:	485b      	ldr	r0, [pc, #364]	@ (26048 <_start+0x3b0>)
   25eda:	4468      	add	r0, sp
   25edc:	f003 f93e 	bl	2915c <_ZN9allow_pin12full_dynamic17unshare_if_shared17h9f78cce76fd1eb6dE>
   25ee0:	2d00      	cmp	r5, #0
   25ee2:	d123      	bne.n	25f2c <_start+0x294>
   25ee4:	9a0a      	ldr	r2, [sp, #40]	@ 0x28
   25ee6:	7890      	ldrb	r0, [r2, #2]
   25ee8:	a938      	add	r1, sp, #224	@ 0xe0
   25eea:	7088      	strb	r0, [r1, #2]
   25eec:	7810      	ldrb	r0, [r2, #0]
   25eee:	7852      	ldrb	r2, [r2, #1]
   25ef0:	0212      	lsls	r2, r2, #8
   25ef2:	1810      	adds	r0, r2, r0
   25ef4:	8008      	strh	r0, [r1, #0]
   25ef6:	4c54      	ldr	r4, [pc, #336]	@ (26048 <_start+0x3b0>)
   25ef8:	446c      	add	r4, sp
   25efa:	7ca0      	ldrb	r0, [r4, #18]
   25efc:	900b      	str	r0, [sp, #44]	@ 0x2c
   25efe:	7c60      	ldrb	r0, [r4, #17]
   25f00:	900a      	str	r0, [sp, #40]	@ 0x28
   25f02:	7be0      	ldrb	r0, [r4, #15]
   25f04:	9005      	str	r0, [sp, #20]
   25f06:	7c26      	ldrb	r6, [r4, #16]
   25f08:	4621      	mov	r1, r4
   25f0a:	3113      	adds	r1, #19
   25f0c:	a823      	add	r0, sp, #140	@ 0x8c
   25f0e:	223f      	movs	r2, #63	@ 0x3f
   25f10:	f003 fafd 	bl	2950e <__aeabi_memcpy>
   25f14:	4620      	mov	r0, r4
   25f16:	f003 f921 	bl	2915c <_ZN9allow_pin12full_dynamic17unshare_if_shared17h9f78cce76fd1eb6dE>
   25f1a:	0230      	lsls	r0, r6, #8
   25f1c:	9905      	ldr	r1, [sp, #20]
   25f1e:	1840      	adds	r0, r0, r1
   25f20:	990a      	ldr	r1, [sp, #40]	@ 0x28
   25f22:	0409      	lsls	r1, r1, #16
   25f24:	9a0b      	ldr	r2, [sp, #44]	@ 0x2c
   25f26:	0612      	lsls	r2, r2, #24
   25f28:	1851      	adds	r1, r2, r1
   25f2a:	180e      	adds	r6, r1, r0
   25f2c:	4847      	ldr	r0, [pc, #284]	@ (2604c <_start+0x3b4>)
   25f2e:	4468      	add	r0, sp
   25f30:	f003 f914 	bl	2915c <_ZN9allow_pin12full_dynamic17unshare_if_shared17h9f78cce76fd1eb6dE>
   25f34:	2d00      	cmp	r5, #0
   25f36:	d000      	beq.n	25f3a <_start+0x2a2>
   25f38:	e0cf      	b.n	260da <_start+0x442>
   25f3a:	4944      	ldr	r1, [pc, #272]	@ (2604c <_start+0x3b4>)
   25f3c:	4469      	add	r1, sp
   25f3e:	9105      	str	r1, [sp, #20]
   25f40:	9838      	ldr	r0, [sp, #224]	@ 0xe0
   25f42:	8188      	strh	r0, [r1, #12]
   25f44:	a838      	add	r0, sp, #224	@ 0xe0
   25f46:	7880      	ldrb	r0, [r0, #2]
   25f48:	7388      	strb	r0, [r1, #14]
   25f4a:	a823      	add	r0, sp, #140	@ 0x8c
   25f4c:	a910      	add	r1, sp, #64	@ 0x40
   25f4e:	460a      	mov	r2, r1
   25f50:	960b      	str	r6, [sp, #44]	@ 0x2c
   25f52:	c868      	ldmia	r0!, {r3, r5, r6}
   25f54:	c268      	stmia	r2!, {r3, r5, r6}
   25f56:	c878      	ldmia	r0!, {r3, r4, r5, r6}
   25f58:	c278      	stmia	r2!, {r3, r4, r5, r6}
   25f5a:	c878      	ldmia	r0!, {r3, r4, r5, r6}
   25f5c:	c278      	stmia	r2!, {r3, r4, r5, r6}
   25f5e:	c878      	ldmia	r0!, {r3, r4, r5, r6}
   25f60:	c278      	stmia	r2!, {r3, r4, r5, r6}
   25f62:	8803      	ldrh	r3, [r0, #0]
   25f64:	8013      	strh	r3, [r2, #0]
   25f66:	7880      	ldrb	r0, [r0, #2]
   25f68:	7090      	strb	r0, [r2, #2]
   25f6a:	9c05      	ldr	r4, [sp, #20]
   25f6c:	4620      	mov	r0, r4
   25f6e:	3013      	adds	r0, #19
   25f70:	223f      	movs	r2, #63	@ 0x3f
   25f72:	f003 facc 	bl	2950e <__aeabi_memcpy>
   25f76:	990b      	ldr	r1, [sp, #44]	@ 0x2c
   25f78:	0e08      	lsrs	r0, r1, #24
   25f7a:	4623      	mov	r3, r4
   25f7c:	74a0      	strb	r0, [r4, #18]
   25f7e:	0c08      	lsrs	r0, r1, #16
   25f80:	7460      	strb	r0, [r4, #17]
   25f82:	0a08      	lsrs	r0, r1, #8
   25f84:	7420      	strb	r0, [r4, #16]
   25f86:	73e1      	strb	r1, [r4, #15]
   25f88:	980d      	ldr	r0, [sp, #52]	@ 0x34
   25f8a:	7220      	strb	r0, [r4, #8]
   25f8c:	492e      	ldr	r1, [pc, #184]	@ (26048 <_start+0x3b0>)
   25f8e:	4469      	add	r1, sp
   25f90:	910a      	str	r1, [sp, #40]	@ 0x28
   25f92:	7208      	strb	r0, [r1, #8]
   25f94:	2500      	movs	r5, #0
   25f96:	9c0c      	ldr	r4, [sp, #48]	@ 0x30
   25f98:	60e5      	str	r5, [r4, #12]
   25f9a:	6125      	str	r5, [r4, #16]
   25f9c:	6165      	str	r5, [r4, #20]
   25f9e:	61a5      	str	r5, [r4, #24]
   25fa0:	61e5      	str	r5, [r4, #28]
   25fa2:	6225      	str	r5, [r4, #32]
   25fa4:	9806      	ldr	r0, [sp, #24]
   25fa6:	9000      	str	r0, [sp, #0]
   25fa8:	980e      	ldr	r0, [sp, #56]	@ 0x38
   25faa:	9001      	str	r0, [sp, #4]
   25fac:	330c      	adds	r3, #12
   25fae:	a823      	add	r0, sp, #140	@ 0x8c
   25fb0:	492c      	ldr	r1, [pc, #176]	@ (26064 <_start+0x3cc>)
   25fb2:	2603      	movs	r6, #3
   25fb4:	4632      	mov	r2, r6
   25fb6:	f003 f8e5 	bl	29184 <_ZN9allow_pin13dynamic_allow17h33d41317a2da4f1cE>
   25fba:	9823      	ldr	r0, [sp, #140]	@ 0x8c
   25fbc:	2802      	cmp	r0, #2
   25fbe:	d103      	bne.n	25fc8 <_start+0x330>
   25fc0:	9924      	ldr	r1, [sp, #144]	@ 0x90
   25fc2:	910b      	str	r1, [sp, #44]	@ 0x2c
   25fc4:	4a27      	ldr	r2, [pc, #156]	@ (26064 <_start+0x3cc>)
   25fc6:	e006      	b.n	25fd6 <_start+0x33e>
   25fc8:	4920      	ldr	r1, [pc, #128]	@ (2604c <_start+0x3b4>)
   25fca:	4469      	add	r1, sp
   25fcc:	9a0e      	ldr	r2, [sp, #56]	@ 0x38
   25fce:	720a      	strb	r2, [r1, #8]
   25fd0:	4a24      	ldr	r2, [pc, #144]	@ (26064 <_start+0x3cc>)
   25fd2:	65e2      	str	r2, [r4, #92]	@ 0x5c
   25fd4:	6626      	str	r6, [r4, #96]	@ 0x60
   25fd6:	990a      	ldr	r1, [sp, #40]	@ 0x28
   25fd8:	310c      	adds	r1, #12
   25fda:	910a      	str	r1, [sp, #40]	@ 0x28
   25fdc:	2802      	cmp	r0, #2
   25fde:	990f      	ldr	r1, [sp, #60]	@ 0x3c
   25fe0:	460c      	mov	r4, r1
   25fe2:	d049      	beq.n	26078 <_start+0x3e0>
   25fe4:	4818      	ldr	r0, [pc, #96]	@ (26048 <_start+0x3b0>)
   25fe6:	4468      	add	r0, sp
   25fe8:	7a00      	ldrb	r0, [r0, #8]
   25fea:	2802      	cmp	r0, #2
   25fec:	4608      	mov	r0, r1
   25fee:	d119      	bne.n	26024 <_start+0x38c>
   25ff0:	2603      	movs	r6, #3
   25ff2:	2018      	movs	r0, #24
   25ff4:	9000      	str	r0, [sp, #0]
   25ff6:	9601      	str	r6, [sp, #4]
   25ff8:	a823      	add	r0, sp, #140	@ 0x8c
   25ffa:	2402      	movs	r4, #2
   25ffc:	4611      	mov	r1, r2
   25ffe:	4622      	mov	r2, r4
   26000:	9b0a      	ldr	r3, [sp, #40]	@ 0x28
   26002:	f003 f8bf 	bl	29184 <_ZN9allow_pin13dynamic_allow17h33d41317a2da4f1cE>
   26006:	9823      	ldr	r0, [sp, #140]	@ 0x8c
   26008:	2802      	cmp	r0, #2
   2600a:	d103      	bne.n	26014 <_start+0x37c>
   2600c:	9e24      	ldr	r6, [sp, #144]	@ 0x90
   2600e:	990f      	ldr	r1, [sp, #60]	@ 0x3c
   26010:	4608      	mov	r0, r1
   26012:	e007      	b.n	26024 <_start+0x38c>
   26014:	480c      	ldr	r0, [pc, #48]	@ (26048 <_start+0x3b0>)
   26016:	4468      	add	r0, sp
   26018:	7206      	strb	r6, [r0, #8]
   2601a:	980c      	ldr	r0, [sp, #48]	@ 0x30
   2601c:	4911      	ldr	r1, [pc, #68]	@ (26064 <_start+0x3cc>)
   2601e:	c012      	stmia	r0!, {r1, r4}
   26020:	4628      	mov	r0, r5
   26022:	990f      	ldr	r1, [sp, #60]	@ 0x3c
   26024:	960b      	str	r6, [sp, #44]	@ 0x2c
   26026:	2800      	cmp	r0, #0
   26028:	460c      	mov	r4, r1
   2602a:	d125      	bne.n	26078 <_start+0x3e0>
   2602c:	480d      	ldr	r0, [pc, #52]	@ (26064 <_start+0x3cc>)
   2602e:	2103      	movs	r1, #3
   26030:	2202      	movs	r2, #2
   26032:	2400      	movs	r4, #0
   26034:	4623      	mov	r3, r4
   26036:	df02      	svc	2
   26038:	287f      	cmp	r0, #127	@ 0x7f
   2603a:	d815      	bhi.n	26068 <_start+0x3d0>
   2603c:	910b      	str	r1, [sp, #44]	@ 0x2c
   2603e:	9c0f      	ldr	r4, [sp, #60]	@ 0x3c
   26040:	e01a      	b.n	26078 <_start+0x3e0>
   26042:	46c0      	nop			@ (mov r8, r8)
   26044:	ffffeacc 	.word	0xffffeacc
   26048:	000013b8 	.word	0x000013b8
   2604c:	00001414 	.word	0x00001414
   26050:	00002006 	.word	0x00002006
   26054:	00000518 	.word	0x00000518
   26058:	000007ec 	.word	0x000007ec
   2605c:	000013bc 	.word	0x000013bc
   26060:	000020c4 	.word	0x000020c4
   26064:	000023cf 	.word	0x000023cf
   26068:	48f2      	ldr	r0, [pc, #968]	@ (26434 <_start+0x79c>)
   2606a:	4468      	add	r0, sp
   2606c:	f003 f876 	bl	2915c <_ZN9allow_pin12full_dynamic17unshare_if_shared17h9f78cce76fd1eb6dE>
   26070:	48f1      	ldr	r0, [pc, #964]	@ (26438 <_start+0x7a0>)
   26072:	4468      	add	r0, sp
   26074:	f003 f872 	bl	2915c <_ZN9allow_pin12full_dynamic17unshare_if_shared17h9f78cce76fd1eb6dE>
   26078:	48ef      	ldr	r0, [pc, #956]	@ (26438 <_start+0x7a0>)
   2607a:	4468      	add	r0, sp
   2607c:	f003 f86e 	bl	2915c <_ZN9allow_pin12full_dynamic17unshare_if_shared17h9f78cce76fd1eb6dE>
   26080:	2c00      	cmp	r4, #0
   26082:	9e0b      	ldr	r6, [sp, #44]	@ 0x2c
   26084:	d123      	bne.n	260ce <_start+0x436>
   26086:	9a0a      	ldr	r2, [sp, #40]	@ 0x28
   26088:	7890      	ldrb	r0, [r2, #2]
   2608a:	a938      	add	r1, sp, #224	@ 0xe0
   2608c:	7088      	strb	r0, [r1, #2]
   2608e:	7810      	ldrb	r0, [r2, #0]
   26090:	7852      	ldrb	r2, [r2, #1]
   26092:	0212      	lsls	r2, r2, #8
   26094:	1810      	adds	r0, r2, r0
   26096:	8008      	strh	r0, [r1, #0]
   26098:	4de7      	ldr	r5, [pc, #924]	@ (26438 <_start+0x7a0>)
   2609a:	446d      	add	r5, sp
   2609c:	7ca8      	ldrb	r0, [r5, #18]
   2609e:	900b      	str	r0, [sp, #44]	@ 0x2c
   260a0:	7c68      	ldrb	r0, [r5, #17]
   260a2:	900a      	str	r0, [sp, #40]	@ 0x28
   260a4:	7be8      	ldrb	r0, [r5, #15]
   260a6:	9006      	str	r0, [sp, #24]
   260a8:	7c2e      	ldrb	r6, [r5, #16]
   260aa:	4629      	mov	r1, r5
   260ac:	3113      	adds	r1, #19
   260ae:	a833      	add	r0, sp, #204	@ 0xcc
   260b0:	2211      	movs	r2, #17
   260b2:	f003 fa2c 	bl	2950e <__aeabi_memcpy>
   260b6:	4628      	mov	r0, r5
   260b8:	f003 f850 	bl	2915c <_ZN9allow_pin12full_dynamic17unshare_if_shared17h9f78cce76fd1eb6dE>
   260bc:	0230      	lsls	r0, r6, #8
   260be:	9906      	ldr	r1, [sp, #24]
   260c0:	1840      	adds	r0, r0, r1
   260c2:	990a      	ldr	r1, [sp, #40]	@ 0x28
   260c4:	0409      	lsls	r1, r1, #16
   260c6:	9a0b      	ldr	r2, [sp, #44]	@ 0x2c
   260c8:	0612      	lsls	r2, r2, #24
   260ca:	1851      	adds	r1, r2, r1
   260cc:	180e      	adds	r6, r1, r0
   260ce:	48d9      	ldr	r0, [pc, #868]	@ (26434 <_start+0x79c>)
   260d0:	4468      	add	r0, sp
   260d2:	f003 f843 	bl	2915c <_ZN9allow_pin12full_dynamic17unshare_if_shared17h9f78cce76fd1eb6dE>
   260d6:	2c00      	cmp	r4, #0
   260d8:	d005      	beq.n	260e6 <_start+0x44e>
   260da:	2001      	movs	r0, #1
   260dc:	4631      	mov	r1, r6
   260de:	1ffe      	subs	r6, r7, #7
   260e0:	3e05      	subs	r6, #5
   260e2:	46b5      	mov	sp, r6
   260e4:	bdf0      	pop	{r4, r5, r6, r7, pc}
   260e6:	960b      	str	r6, [sp, #44]	@ 0x2c
   260e8:	ae23      	add	r6, sp, #140	@ 0x8c
   260ea:	9838      	ldr	r0, [sp, #224]	@ 0xe0
   260ec:	81b0      	strh	r0, [r6, #12]
   260ee:	a838      	add	r0, sp, #224	@ 0xe0
   260f0:	7880      	ldrb	r0, [r0, #2]
   260f2:	73b0      	strb	r0, [r6, #14]
   260f4:	a933      	add	r1, sp, #204	@ 0xcc
   260f6:	aa10      	add	r2, sp, #64	@ 0x40
   260f8:	920a      	str	r2, [sp, #40]	@ 0x28
   260fa:	c939      	ldmia	r1!, {r0, r3, r4, r5}
   260fc:	c239      	stmia	r2!, {r0, r3, r4, r5}
   260fe:	7808      	ldrb	r0, [r1, #0]
   26100:	7010      	strb	r0, [r2, #0]
   26102:	4630      	mov	r0, r6
   26104:	3013      	adds	r0, #19
   26106:	2211      	movs	r2, #17
   26108:	990a      	ldr	r1, [sp, #40]	@ 0x28
   2610a:	f003 fa00 	bl	2950e <__aeabi_memcpy>
   2610e:	990b      	ldr	r1, [sp, #44]	@ 0x2c
   26110:	0e08      	lsrs	r0, r1, #24
   26112:	74b0      	strb	r0, [r6, #18]
   26114:	0c08      	lsrs	r0, r1, #16
   26116:	7470      	strb	r0, [r6, #17]
   26118:	0a08      	lsrs	r0, r1, #8
   2611a:	7430      	strb	r0, [r6, #16]
   2611c:	73f1      	strb	r1, [r6, #15]
   2611e:	9d0d      	ldr	r5, [sp, #52]	@ 0x34
   26120:	7235      	strb	r5, [r6, #8]
   26122:	4cc4      	ldr	r4, [pc, #784]	@ (26434 <_start+0x79c>)
   26124:	446c      	add	r4, sp
   26126:	4620      	mov	r0, r4
   26128:	300c      	adds	r0, #12
   2612a:	2136      	movs	r1, #54	@ 0x36
   2612c:	9006      	str	r0, [sp, #24]
   2612e:	910a      	str	r1, [sp, #40]	@ 0x28
   26130:	f003 f840 	bl	291b4 <__aeabi_memclr4>
   26134:	7225      	strb	r5, [r4, #8]
   26136:	2018      	movs	r0, #24
   26138:	9000      	str	r0, [sp, #0]
   2613a:	9d0e      	ldr	r5, [sp, #56]	@ 0x38
   2613c:	9501      	str	r5, [sp, #4]
   2613e:	360c      	adds	r6, #12
   26140:	a833      	add	r0, sp, #204	@ 0xcc
   26142:	49be      	ldr	r1, [pc, #760]	@ (2643c <_start+0x7a4>)
   26144:	2400      	movs	r4, #0
   26146:	4622      	mov	r2, r4
   26148:	4633      	mov	r3, r6
   2614a:	f003 f81b 	bl	29184 <_ZN9allow_pin13dynamic_allow17h33d41317a2da4f1cE>
   2614e:	9833      	ldr	r0, [sp, #204]	@ 0xcc
   26150:	2802      	cmp	r0, #2
   26152:	9405      	str	r4, [sp, #20]
   26154:	d103      	bne.n	2615e <_start+0x4c6>
   26156:	9934      	ldr	r1, [sp, #208]	@ 0xd0
   26158:	910b      	str	r1, [sp, #44]	@ 0x2c
   2615a:	4db8      	ldr	r5, [pc, #736]	@ (2643c <_start+0x7a4>)
   2615c:	e004      	b.n	26168 <_start+0x4d0>
   2615e:	a923      	add	r1, sp, #140	@ 0x8c
   26160:	720d      	strb	r5, [r1, #8]
   26162:	9424      	str	r4, [sp, #144]	@ 0x90
   26164:	4db5      	ldr	r5, [pc, #724]	@ (2643c <_start+0x7a4>)
   26166:	9523      	str	r5, [sp, #140]	@ 0x8c
   26168:	2802      	cmp	r0, #2
   2616a:	990f      	ldr	r1, [sp, #60]	@ 0x3c
   2616c:	460e      	mov	r6, r1
   2616e:	d038      	beq.n	261e2 <_start+0x54a>
   26170:	48b0      	ldr	r0, [pc, #704]	@ (26434 <_start+0x79c>)
   26172:	4468      	add	r0, sp
   26174:	7a00      	ldrb	r0, [r0, #8]
   26176:	2802      	cmp	r0, #2
   26178:	d112      	bne.n	261a0 <_start+0x508>
   2617a:	2403      	movs	r4, #3
   2617c:	980a      	ldr	r0, [sp, #40]	@ 0x28
   2617e:	9000      	str	r0, [sp, #0]
   26180:	9401      	str	r4, [sp, #4]
   26182:	a833      	add	r0, sp, #204	@ 0xcc
   26184:	2607      	movs	r6, #7
   26186:	4629      	mov	r1, r5
   26188:	4632      	mov	r2, r6
   2618a:	9b06      	ldr	r3, [sp, #24]
   2618c:	f002 fffa 	bl	29184 <_ZN9allow_pin13dynamic_allow17h33d41317a2da4f1cE>
   26190:	9833      	ldr	r0, [sp, #204]	@ 0xcc
   26192:	2802      	cmp	r0, #2
   26194:	d108      	bne.n	261a8 <_start+0x510>
   26196:	9834      	ldr	r0, [sp, #208]	@ 0xd0
   26198:	900b      	str	r0, [sp, #44]	@ 0x2c
   2619a:	990f      	ldr	r1, [sp, #60]	@ 0x3c
   2619c:	4608      	mov	r0, r1
   2619e:	e00b      	b.n	261b8 <_start+0x520>
   261a0:	2003      	movs	r0, #3
   261a2:	900b      	str	r0, [sp, #44]	@ 0x2c
   261a4:	4608      	mov	r0, r1
   261a6:	e007      	b.n	261b8 <_start+0x520>
   261a8:	48a2      	ldr	r0, [pc, #648]	@ (26434 <_start+0x79c>)
   261aa:	4468      	add	r0, sp
   261ac:	7204      	strb	r4, [r0, #8]
   261ae:	980c      	ldr	r0, [sp, #48]	@ 0x30
   261b0:	65c5      	str	r5, [r0, #92]	@ 0x5c
   261b2:	6606      	str	r6, [r0, #96]	@ 0x60
   261b4:	990f      	ldr	r1, [sp, #60]	@ 0x3c
   261b6:	9805      	ldr	r0, [sp, #20]
   261b8:	2800      	cmp	r0, #0
   261ba:	460e      	mov	r6, r1
   261bc:	d111      	bne.n	261e2 <_start+0x54a>
   261be:	489f      	ldr	r0, [pc, #636]	@ (2643c <_start+0x7a4>)
   261c0:	2207      	movs	r2, #7
   261c2:	2600      	movs	r6, #0
   261c4:	4631      	mov	r1, r6
   261c6:	4633      	mov	r3, r6
   261c8:	df02      	svc	2
   261ca:	910b      	str	r1, [sp, #44]	@ 0x2c
   261cc:	287f      	cmp	r0, #127	@ 0x7f
   261ce:	d801      	bhi.n	261d4 <_start+0x53c>
   261d0:	9e0f      	ldr	r6, [sp, #60]	@ 0x3c
   261d2:	e006      	b.n	261e2 <_start+0x54a>
   261d4:	a823      	add	r0, sp, #140	@ 0x8c
   261d6:	f002 ffc1 	bl	2915c <_ZN9allow_pin12full_dynamic17unshare_if_shared17h9f78cce76fd1eb6dE>
   261da:	4896      	ldr	r0, [pc, #600]	@ (26434 <_start+0x79c>)
   261dc:	4468      	add	r0, sp
   261de:	f002 ffbd 	bl	2915c <_ZN9allow_pin12full_dynamic17unshare_if_shared17h9f78cce76fd1eb6dE>
   261e2:	4894      	ldr	r0, [pc, #592]	@ (26434 <_start+0x79c>)
   261e4:	4468      	add	r0, sp
   261e6:	f002 ffb9 	bl	2915c <_ZN9allow_pin12full_dynamic17unshare_if_shared17h9f78cce76fd1eb6dE>
   261ea:	2e00      	cmp	r6, #0
   261ec:	d124      	bne.n	26238 <_start+0x5a0>
   261ee:	9a06      	ldr	r2, [sp, #24]
   261f0:	7890      	ldrb	r0, [r2, #2]
   261f2:	a938      	add	r1, sp, #224	@ 0xe0
   261f4:	7088      	strb	r0, [r1, #2]
   261f6:	7810      	ldrb	r0, [r2, #0]
   261f8:	7852      	ldrb	r2, [r2, #1]
   261fa:	0212      	lsls	r2, r2, #8
   261fc:	1810      	adds	r0, r2, r0
   261fe:	8008      	strh	r0, [r1, #0]
   26200:	4c8c      	ldr	r4, [pc, #560]	@ (26434 <_start+0x79c>)
   26202:	446c      	add	r4, sp
   26204:	7ca0      	ldrb	r0, [r4, #18]
   26206:	900b      	str	r0, [sp, #44]	@ 0x2c
   26208:	7c60      	ldrb	r0, [r4, #17]
   2620a:	9006      	str	r0, [sp, #24]
   2620c:	7be0      	ldrb	r0, [r4, #15]
   2620e:	9005      	str	r0, [sp, #20]
   26210:	7c25      	ldrb	r5, [r4, #16]
   26212:	4621      	mov	r1, r4
   26214:	3113      	adds	r1, #19
   26216:	a810      	add	r0, sp, #64	@ 0x40
   26218:	222f      	movs	r2, #47	@ 0x2f
   2621a:	f003 f978 	bl	2950e <__aeabi_memcpy>
   2621e:	4620      	mov	r0, r4
   26220:	f002 ff9c 	bl	2915c <_ZN9allow_pin12full_dynamic17unshare_if_shared17h9f78cce76fd1eb6dE>
   26224:	0228      	lsls	r0, r5, #8
   26226:	9905      	ldr	r1, [sp, #20]
   26228:	1840      	adds	r0, r0, r1
   2622a:	9906      	ldr	r1, [sp, #24]
   2622c:	0409      	lsls	r1, r1, #16
   2622e:	9a0b      	ldr	r2, [sp, #44]	@ 0x2c
   26230:	0612      	lsls	r2, r2, #24
   26232:	1851      	adds	r1, r2, r1
   26234:	1808      	adds	r0, r1, r0
   26236:	900b      	str	r0, [sp, #44]	@ 0x2c
   26238:	a823      	add	r0, sp, #140	@ 0x8c
   2623a:	f002 ff8f 	bl	2915c <_ZN9allow_pin12full_dynamic17unshare_if_shared17h9f78cce76fd1eb6dE>
   2623e:	2e00      	cmp	r6, #0
   26240:	d000      	beq.n	26244 <_start+0x5ac>
   26242:	e0b7      	b.n	263b4 <_start+0x71c>
   26244:	497b      	ldr	r1, [pc, #492]	@ (26434 <_start+0x79c>)
   26246:	4469      	add	r1, sp
   26248:	9106      	str	r1, [sp, #24]
   2624a:	9838      	ldr	r0, [sp, #224]	@ 0xe0
   2624c:	8188      	strh	r0, [r1, #12]
   2624e:	a838      	add	r0, sp, #224	@ 0xe0
   26250:	7880      	ldrb	r0, [r0, #2]
   26252:	7388      	strb	r0, [r1, #14]
   26254:	a810      	add	r0, sp, #64	@ 0x40
   26256:	4978      	ldr	r1, [pc, #480]	@ (26438 <_start+0x7a0>)
   26258:	4469      	add	r1, sp
   2625a:	460a      	mov	r2, r1
   2625c:	c868      	ldmia	r0!, {r3, r5, r6}
   2625e:	c268      	stmia	r2!, {r3, r5, r6}
   26260:	c878      	ldmia	r0!, {r3, r4, r5, r6}
   26262:	c278      	stmia	r2!, {r3, r4, r5, r6}
   26264:	c878      	ldmia	r0!, {r3, r4, r5, r6}
   26266:	c278      	stmia	r2!, {r3, r4, r5, r6}
   26268:	8803      	ldrh	r3, [r0, #0]
   2626a:	8013      	strh	r3, [r2, #0]
   2626c:	7880      	ldrb	r0, [r0, #2]
   2626e:	7090      	strb	r0, [r2, #2]
   26270:	9e06      	ldr	r6, [sp, #24]
   26272:	4630      	mov	r0, r6
   26274:	3013      	adds	r0, #19
   26276:	222f      	movs	r2, #47	@ 0x2f
   26278:	f003 f949 	bl	2950e <__aeabi_memcpy>
   2627c:	990b      	ldr	r1, [sp, #44]	@ 0x2c
   2627e:	0e08      	lsrs	r0, r1, #24
   26280:	74b0      	strb	r0, [r6, #18]
   26282:	0c08      	lsrs	r0, r1, #16
   26284:	7470      	strb	r0, [r6, #17]
   26286:	0a08      	lsrs	r0, r1, #8
   26288:	7430      	strb	r0, [r6, #16]
   2628a:	73f1      	strb	r1, [r6, #15]
   2628c:	9d0d      	ldr	r5, [sp, #52]	@ 0x34
   2628e:	7235      	strb	r5, [r6, #8]
   26290:	4c69      	ldr	r4, [pc, #420]	@ (26438 <_start+0x7a0>)
   26292:	446c      	add	r4, sp
   26294:	4620      	mov	r0, r4
   26296:	300c      	adds	r0, #12
   26298:	2125      	movs	r1, #37	@ 0x25
   2629a:	9004      	str	r0, [sp, #16]
   2629c:	9105      	str	r1, [sp, #20]
   2629e:	f002 ff89 	bl	291b4 <__aeabi_memclr4>
   262a2:	7225      	strb	r5, [r4, #8]
   262a4:	980a      	ldr	r0, [sp, #40]	@ 0x28
   262a6:	9000      	str	r0, [sp, #0]
   262a8:	9c0e      	ldr	r4, [sp, #56]	@ 0x38
   262aa:	9401      	str	r4, [sp, #4]
   262ac:	360c      	adds	r6, #12
   262ae:	a833      	add	r0, sp, #204	@ 0xcc
   262b0:	4963      	ldr	r1, [pc, #396]	@ (26440 <_start+0x7a8>)
   262b2:	2507      	movs	r5, #7
   262b4:	462a      	mov	r2, r5
   262b6:	4633      	mov	r3, r6
   262b8:	f002 ff64 	bl	29184 <_ZN9allow_pin13dynamic_allow17h33d41317a2da4f1cE>
   262bc:	9833      	ldr	r0, [sp, #204]	@ 0xcc
   262be:	2802      	cmp	r0, #2
   262c0:	d103      	bne.n	262ca <_start+0x632>
   262c2:	9934      	ldr	r1, [sp, #208]	@ 0xd0
   262c4:	910b      	str	r1, [sp, #44]	@ 0x2c
   262c6:	4e5e      	ldr	r6, [pc, #376]	@ (26440 <_start+0x7a8>)
   262c8:	e006      	b.n	262d8 <_start+0x640>
   262ca:	495a      	ldr	r1, [pc, #360]	@ (26434 <_start+0x79c>)
   262cc:	4469      	add	r1, sp
   262ce:	720c      	strb	r4, [r1, #8]
   262d0:	990c      	ldr	r1, [sp, #48]	@ 0x30
   262d2:	4e5b      	ldr	r6, [pc, #364]	@ (26440 <_start+0x7a8>)
   262d4:	65ce      	str	r6, [r1, #92]	@ 0x5c
   262d6:	660d      	str	r5, [r1, #96]	@ 0x60
   262d8:	2802      	cmp	r0, #2
   262da:	990f      	ldr	r1, [sp, #60]	@ 0x3c
   262dc:	460c      	mov	r4, r1
   262de:	d038      	beq.n	26352 <_start+0x6ba>
   262e0:	4855      	ldr	r0, [pc, #340]	@ (26438 <_start+0x7a0>)
   262e2:	4468      	add	r0, sp
   262e4:	7a00      	ldrb	r0, [r0, #8]
   262e6:	2802      	cmp	r0, #2
   262e8:	d112      	bne.n	26310 <_start+0x678>
   262ea:	2503      	movs	r5, #3
   262ec:	9805      	ldr	r0, [sp, #20]
   262ee:	9000      	str	r0, [sp, #0]
   262f0:	9501      	str	r5, [sp, #4]
   262f2:	a833      	add	r0, sp, #204	@ 0xcc
   262f4:	2400      	movs	r4, #0
   262f6:	4631      	mov	r1, r6
   262f8:	4622      	mov	r2, r4
   262fa:	9b04      	ldr	r3, [sp, #16]
   262fc:	f002 ff42 	bl	29184 <_ZN9allow_pin13dynamic_allow17h33d41317a2da4f1cE>
   26300:	9833      	ldr	r0, [sp, #204]	@ 0xcc
   26302:	2802      	cmp	r0, #2
   26304:	d108      	bne.n	26318 <_start+0x680>
   26306:	9834      	ldr	r0, [sp, #208]	@ 0xd0
   26308:	900b      	str	r0, [sp, #44]	@ 0x2c
   2630a:	990f      	ldr	r1, [sp, #60]	@ 0x3c
   2630c:	460c      	mov	r4, r1
   2630e:	e00a      	b.n	26326 <_start+0x68e>
   26310:	2003      	movs	r0, #3
   26312:	900b      	str	r0, [sp, #44]	@ 0x2c
   26314:	460c      	mov	r4, r1
   26316:	e006      	b.n	26326 <_start+0x68e>
   26318:	4847      	ldr	r0, [pc, #284]	@ (26438 <_start+0x7a0>)
   2631a:	4468      	add	r0, sp
   2631c:	7205      	strb	r5, [r0, #8]
   2631e:	9d0c      	ldr	r5, [sp, #48]	@ 0x30
   26320:	602e      	str	r6, [r5, #0]
   26322:	606c      	str	r4, [r5, #4]
   26324:	990f      	ldr	r1, [sp, #60]	@ 0x3c
   26326:	2c00      	cmp	r4, #0
   26328:	460c      	mov	r4, r1
   2632a:	d112      	bne.n	26352 <_start+0x6ba>
   2632c:	4844      	ldr	r0, [pc, #272]	@ (26440 <_start+0x7a8>)
   2632e:	2107      	movs	r1, #7
   26330:	2400      	movs	r4, #0
   26332:	4622      	mov	r2, r4
   26334:	4623      	mov	r3, r4
   26336:	df02      	svc	2
   26338:	910b      	str	r1, [sp, #44]	@ 0x2c
   2633a:	287f      	cmp	r0, #127	@ 0x7f
   2633c:	d801      	bhi.n	26342 <_start+0x6aa>
   2633e:	9c0f      	ldr	r4, [sp, #60]	@ 0x3c
   26340:	e007      	b.n	26352 <_start+0x6ba>
   26342:	483c      	ldr	r0, [pc, #240]	@ (26434 <_start+0x79c>)
   26344:	4468      	add	r0, sp
   26346:	f002 ff09 	bl	2915c <_ZN9allow_pin12full_dynamic17unshare_if_shared17h9f78cce76fd1eb6dE>
   2634a:	483b      	ldr	r0, [pc, #236]	@ (26438 <_start+0x7a0>)
   2634c:	4468      	add	r0, sp
   2634e:	f002 ff05 	bl	2915c <_ZN9allow_pin12full_dynamic17unshare_if_shared17h9f78cce76fd1eb6dE>
   26352:	4839      	ldr	r0, [pc, #228]	@ (26438 <_start+0x7a0>)
   26354:	4468      	add	r0, sp
   26356:	f002 ff01 	bl	2915c <_ZN9allow_pin12full_dynamic17unshare_if_shared17h9f78cce76fd1eb6dE>
   2635a:	2c00      	cmp	r4, #0
   2635c:	d124      	bne.n	263a8 <_start+0x710>
   2635e:	9a04      	ldr	r2, [sp, #16]
   26360:	7890      	ldrb	r0, [r2, #2]
   26362:	a938      	add	r1, sp, #224	@ 0xe0
   26364:	7088      	strb	r0, [r1, #2]
   26366:	7810      	ldrb	r0, [r2, #0]
   26368:	7852      	ldrb	r2, [r2, #1]
   2636a:	0212      	lsls	r2, r2, #8
   2636c:	1810      	adds	r0, r2, r0
   2636e:	8008      	strh	r0, [r1, #0]
   26370:	4d31      	ldr	r5, [pc, #196]	@ (26438 <_start+0x7a0>)
   26372:	446d      	add	r5, sp
   26374:	7ca8      	ldrb	r0, [r5, #18]
   26376:	900b      	str	r0, [sp, #44]	@ 0x2c
   26378:	7c68      	ldrb	r0, [r5, #17]
   2637a:	900a      	str	r0, [sp, #40]	@ 0x28
   2637c:	7be8      	ldrb	r0, [r5, #15]
   2637e:	9006      	str	r0, [sp, #24]
   26380:	7c2e      	ldrb	r6, [r5, #16]
   26382:	4629      	mov	r1, r5
   26384:	3113      	adds	r1, #19
   26386:	a823      	add	r0, sp, #140	@ 0x8c
   26388:	221e      	movs	r2, #30
   2638a:	f003 f8c0 	bl	2950e <__aeabi_memcpy>
   2638e:	4628      	mov	r0, r5
   26390:	f002 fee4 	bl	2915c <_ZN9allow_pin12full_dynamic17unshare_if_shared17h9f78cce76fd1eb6dE>
   26394:	0230      	lsls	r0, r6, #8
   26396:	9906      	ldr	r1, [sp, #24]
   26398:	1840      	adds	r0, r0, r1
   2639a:	990a      	ldr	r1, [sp, #40]	@ 0x28
   2639c:	0409      	lsls	r1, r1, #16
   2639e:	9a0b      	ldr	r2, [sp, #44]	@ 0x2c
   263a0:	0612      	lsls	r2, r2, #24
   263a2:	1851      	adds	r1, r2, r1
   263a4:	1808      	adds	r0, r1, r0
   263a6:	900b      	str	r0, [sp, #44]	@ 0x2c
   263a8:	4822      	ldr	r0, [pc, #136]	@ (26434 <_start+0x79c>)
   263aa:	4468      	add	r0, sp
   263ac:	f002 fed6 	bl	2915c <_ZN9allow_pin12full_dynamic17unshare_if_shared17h9f78cce76fd1eb6dE>
   263b0:	2c00      	cmp	r4, #0
   263b2:	d002      	beq.n	263ba <_start+0x722>
   263b4:	2001      	movs	r0, #1
   263b6:	9e0b      	ldr	r6, [sp, #44]	@ 0x2c
   263b8:	e690      	b.n	260dc <_start+0x444>
   263ba:	491e      	ldr	r1, [pc, #120]	@ (26434 <_start+0x79c>)
   263bc:	4469      	add	r1, sp
   263be:	910a      	str	r1, [sp, #40]	@ 0x28
   263c0:	9838      	ldr	r0, [sp, #224]	@ 0xe0
   263c2:	8188      	strh	r0, [r1, #12]
   263c4:	a838      	add	r0, sp, #224	@ 0xe0
   263c6:	7880      	ldrb	r0, [r0, #2]
   263c8:	7388      	strb	r0, [r1, #14]
   263ca:	a823      	add	r0, sp, #140	@ 0x8c
   263cc:	a910      	add	r1, sp, #64	@ 0x40
   263ce:	460a      	mov	r2, r1
   263d0:	c838      	ldmia	r0!, {r3, r4, r5}
   263d2:	c238      	stmia	r2!, {r3, r4, r5}
   263d4:	c878      	ldmia	r0!, {r3, r4, r5, r6}
   263d6:	c278      	stmia	r2!, {r3, r4, r5, r6}
   263d8:	8800      	ldrh	r0, [r0, #0]
   263da:	8010      	strh	r0, [r2, #0]
   263dc:	9c0a      	ldr	r4, [sp, #40]	@ 0x28
   263de:	4620      	mov	r0, r4
   263e0:	3013      	adds	r0, #19
   263e2:	221e      	movs	r2, #30
   263e4:	f003 f893 	bl	2950e <__aeabi_memcpy>
   263e8:	990b      	ldr	r1, [sp, #44]	@ 0x2c
   263ea:	0e08      	lsrs	r0, r1, #24
   263ec:	4623      	mov	r3, r4
   263ee:	74a0      	strb	r0, [r4, #18]
   263f0:	0c08      	lsrs	r0, r1, #16
   263f2:	7460      	strb	r0, [r4, #17]
   263f4:	0a08      	lsrs	r0, r1, #8
   263f6:	7420      	strb	r0, [r4, #16]
   263f8:	73e1      	strb	r1, [r4, #15]
   263fa:	9e0d      	ldr	r6, [sp, #52]	@ 0x34
   263fc:	7226      	strb	r6, [r4, #8]
   263fe:	480e      	ldr	r0, [pc, #56]	@ (26438 <_start+0x7a0>)
   26400:	4468      	add	r0, sp
   26402:	2500      	movs	r5, #0
   26404:	8305      	strh	r5, [r0, #24]
   26406:	900b      	str	r0, [sp, #44]	@ 0x2c
   26408:	7206      	strb	r6, [r0, #8]
   2640a:	980c      	ldr	r0, [sp, #48]	@ 0x30
   2640c:	60c5      	str	r5, [r0, #12]
   2640e:	6105      	str	r5, [r0, #16]
   26410:	6145      	str	r5, [r0, #20]
   26412:	9805      	ldr	r0, [sp, #20]
   26414:	9000      	str	r0, [sp, #0]
   26416:	9c0e      	ldr	r4, [sp, #56]	@ 0x38
   26418:	9401      	str	r4, [sp, #4]
   2641a:	330c      	adds	r3, #12
   2641c:	a810      	add	r0, sp, #64	@ 0x40
   2641e:	4909      	ldr	r1, [pc, #36]	@ (26444 <_start+0x7ac>)
   26420:	4632      	mov	r2, r6
   26422:	f002 feaf 	bl	29184 <_ZN9allow_pin13dynamic_allow17h33d41317a2da4f1cE>
   26426:	9810      	ldr	r0, [sp, #64]	@ 0x40
   26428:	2802      	cmp	r0, #2
   2642a:	d10d      	bne.n	26448 <_start+0x7b0>
   2642c:	9e11      	ldr	r6, [sp, #68]	@ 0x44
   2642e:	4905      	ldr	r1, [pc, #20]	@ (26444 <_start+0x7ac>)
   26430:	e012      	b.n	26458 <_start+0x7c0>
   26432:	46c0      	nop			@ (mov r8, r8)
   26434:	00001414 	.word	0x00001414
   26438:	000013b8 	.word	0x000013b8
   2643c:	0000021f 	.word	0x0000021f
   26440:	00001597 	.word	0x00001597
   26444:	00000667 	.word	0x00000667
   26448:	49f7      	ldr	r1, [pc, #988]	@ (26828 <_start+0xb90>)
   2644a:	4469      	add	r1, sp
   2644c:	720c      	strb	r4, [r1, #8]
   2644e:	990c      	ldr	r1, [sp, #48]	@ 0x30
   26450:	4af6      	ldr	r2, [pc, #984]	@ (2682c <_start+0xb94>)
   26452:	65ca      	str	r2, [r1, #92]	@ 0x5c
   26454:	660e      	str	r6, [r1, #96]	@ 0x60
   26456:	4611      	mov	r1, r2
   26458:	9c0b      	ldr	r4, [sp, #44]	@ 0x2c
   2645a:	340c      	adds	r4, #12
   2645c:	2802      	cmp	r0, #2
   2645e:	d036      	beq.n	264ce <_start+0x836>
   26460:	48f3      	ldr	r0, [pc, #972]	@ (26830 <_start+0xb98>)
   26462:	4468      	add	r0, sp
   26464:	7a00      	ldrb	r0, [r0, #8]
   26466:	2802      	cmp	r0, #2
   26468:	d111      	bne.n	2648e <_start+0x7f6>
   2646a:	2203      	movs	r2, #3
   2646c:	200e      	movs	r0, #14
   2646e:	9000      	str	r0, [sp, #0]
   26470:	920e      	str	r2, [sp, #56]	@ 0x38
   26472:	9201      	str	r2, [sp, #4]
   26474:	a810      	add	r0, sp, #64	@ 0x40
   26476:	2208      	movs	r2, #8
   26478:	460e      	mov	r6, r1
   2647a:	920d      	str	r2, [sp, #52]	@ 0x34
   2647c:	4623      	mov	r3, r4
   2647e:	f002 fe81 	bl	29184 <_ZN9allow_pin13dynamic_allow17h33d41317a2da4f1cE>
   26482:	9810      	ldr	r0, [sp, #64]	@ 0x40
   26484:	2802      	cmp	r0, #2
   26486:	d105      	bne.n	26494 <_start+0x7fc>
   26488:	9e11      	ldr	r6, [sp, #68]	@ 0x44
   2648a:	9d0f      	ldr	r5, [sp, #60]	@ 0x3c
   2648c:	e00a      	b.n	264a4 <_start+0x80c>
   2648e:	2603      	movs	r6, #3
   26490:	9d0f      	ldr	r5, [sp, #60]	@ 0x3c
   26492:	e007      	b.n	264a4 <_start+0x80c>
   26494:	48e6      	ldr	r0, [pc, #920]	@ (26830 <_start+0xb98>)
   26496:	4468      	add	r0, sp
   26498:	990e      	ldr	r1, [sp, #56]	@ 0x38
   2649a:	7201      	strb	r1, [r0, #8]
   2649c:	980c      	ldr	r0, [sp, #48]	@ 0x30
   2649e:	6006      	str	r6, [r0, #0]
   264a0:	990d      	ldr	r1, [sp, #52]	@ 0x34
   264a2:	6041      	str	r1, [r0, #4]
   264a4:	2d00      	cmp	r5, #0
   264a6:	d112      	bne.n	264ce <_start+0x836>
   264a8:	48e0      	ldr	r0, [pc, #896]	@ (2682c <_start+0xb94>)
   264aa:	2102      	movs	r1, #2
   264ac:	2208      	movs	r2, #8
   264ae:	2500      	movs	r5, #0
   264b0:	462b      	mov	r3, r5
   264b2:	df02      	svc	2
   264b4:	287f      	cmp	r0, #127	@ 0x7f
   264b6:	d801      	bhi.n	264bc <_start+0x824>
   264b8:	460e      	mov	r6, r1
   264ba:	e008      	b.n	264ce <_start+0x836>
   264bc:	48da      	ldr	r0, [pc, #872]	@ (26828 <_start+0xb90>)
   264be:	4468      	add	r0, sp
   264c0:	f002 fe4c 	bl	2915c <_ZN9allow_pin12full_dynamic17unshare_if_shared17h9f78cce76fd1eb6dE>
   264c4:	48da      	ldr	r0, [pc, #872]	@ (26830 <_start+0xb98>)
   264c6:	4468      	add	r0, sp
   264c8:	f002 fe48 	bl	2915c <_ZN9allow_pin12full_dynamic17unshare_if_shared17h9f78cce76fd1eb6dE>
   264cc:	950f      	str	r5, [sp, #60]	@ 0x3c
   264ce:	48d8      	ldr	r0, [pc, #864]	@ (26830 <_start+0xb98>)
   264d0:	4468      	add	r0, sp
   264d2:	f002 fe43 	bl	2915c <_ZN9allow_pin12full_dynamic17unshare_if_shared17h9f78cce76fd1eb6dE>
   264d6:	980f      	ldr	r0, [sp, #60]	@ 0x3c
   264d8:	2800      	cmp	r0, #0
   264da:	d12b      	bne.n	26534 <_start+0x89c>
   264dc:	78a0      	ldrb	r0, [r4, #2]
   264de:	a938      	add	r1, sp, #224	@ 0xe0
   264e0:	7088      	strb	r0, [r1, #2]
   264e2:	48d3      	ldr	r0, [pc, #844]	@ (26830 <_start+0xb98>)
   264e4:	4468      	add	r0, sp
   264e6:	7e42      	ldrb	r2, [r0, #25]
   264e8:	ab33      	add	r3, sp, #204	@ 0xcc
   264ea:	719a      	strb	r2, [r3, #6]
   264ec:	7dc2      	ldrb	r2, [r0, #23]
   264ee:	9d0c      	ldr	r5, [sp, #48]	@ 0x30
   264f0:	69ad      	ldr	r5, [r5, #24]
   264f2:	022d      	lsls	r5, r5, #8
   264f4:	18aa      	adds	r2, r5, r2
   264f6:	809a      	strh	r2, [r3, #4]
   264f8:	7822      	ldrb	r2, [r4, #0]
   264fa:	7863      	ldrb	r3, [r4, #1]
   264fc:	021b      	lsls	r3, r3, #8
   264fe:	189a      	adds	r2, r3, r2
   26500:	800a      	strh	r2, [r1, #0]
   26502:	7cc1      	ldrb	r1, [r0, #19]
   26504:	7d02      	ldrb	r2, [r0, #20]
   26506:	0212      	lsls	r2, r2, #8
   26508:	1851      	adds	r1, r2, r1
   2650a:	7d42      	ldrb	r2, [r0, #21]
   2650c:	0412      	lsls	r2, r2, #16
   2650e:	7d83      	ldrb	r3, [r0, #22]
   26510:	061b      	lsls	r3, r3, #24
   26512:	189a      	adds	r2, r3, r2
   26514:	1851      	adds	r1, r2, r1
   26516:	9133      	str	r1, [sp, #204]	@ 0xcc
   26518:	7c81      	ldrb	r1, [r0, #18]
   2651a:	910e      	str	r1, [sp, #56]	@ 0x38
   2651c:	7c45      	ldrb	r5, [r0, #17]
   2651e:	7bc6      	ldrb	r6, [r0, #15]
   26520:	7c04      	ldrb	r4, [r0, #16]
   26522:	f002 fe1b 	bl	2915c <_ZN9allow_pin12full_dynamic17unshare_if_shared17h9f78cce76fd1eb6dE>
   26526:	0220      	lsls	r0, r4, #8
   26528:	1980      	adds	r0, r0, r6
   2652a:	0429      	lsls	r1, r5, #16
   2652c:	9a0e      	ldr	r2, [sp, #56]	@ 0x38
   2652e:	0612      	lsls	r2, r2, #24
   26530:	1851      	adds	r1, r2, r1
   26532:	180e      	adds	r6, r1, r0
   26534:	48bc      	ldr	r0, [pc, #752]	@ (26828 <_start+0xb90>)
   26536:	4468      	add	r0, sp
   26538:	f002 fe10 	bl	2915c <_ZN9allow_pin12full_dynamic17unshare_if_shared17h9f78cce76fd1eb6dE>
   2653c:	980f      	ldr	r0, [sp, #60]	@ 0x3c
   2653e:	2800      	cmp	r0, #0
   26540:	d000      	beq.n	26544 <_start+0x8ac>
   26542:	e5ca      	b.n	260da <_start+0x442>
   26544:	ac39      	add	r4, sp, #228	@ 0xe4
   26546:	9838      	ldr	r0, [sp, #224]	@ 0xe0
   26548:	8020      	strh	r0, [r4, #0]
   2654a:	a923      	add	r1, sp, #140	@ 0x8c
   2654c:	9834      	ldr	r0, [sp, #208]	@ 0xd0
   2654e:	8088      	strh	r0, [r1, #4]
   26550:	a838      	add	r0, sp, #224	@ 0xe0
   26552:	7880      	ldrb	r0, [r0, #2]
   26554:	70a0      	strb	r0, [r4, #2]
   26556:	a833      	add	r0, sp, #204	@ 0xcc
   26558:	7980      	ldrb	r0, [r0, #6]
   2655a:	7188      	strb	r0, [r1, #6]
   2655c:	70e6      	strb	r6, [r4, #3]
   2655e:	0e30      	lsrs	r0, r6, #24
   26560:	71a0      	strb	r0, [r4, #6]
   26562:	0c30      	lsrs	r0, r6, #16
   26564:	7160      	strb	r0, [r4, #5]
   26566:	0a30      	lsrs	r0, r6, #8
   26568:	7120      	strb	r0, [r4, #4]
   2656a:	9833      	ldr	r0, [sp, #204]	@ 0xcc
   2656c:	9023      	str	r0, [sp, #140]	@ 0x8c
   2656e:	1de0      	adds	r0, r4, #7
   26570:	2207      	movs	r2, #7
   26572:	f002 ffcc 	bl	2950e <__aeabi_memcpy>
   26576:	4dac      	ldr	r5, [pc, #688]	@ (26828 <_start+0xb90>)
   26578:	446d      	add	r5, sp
   2657a:	4628      	mov	r0, r5
   2657c:	4621      	mov	r1, r4
   2657e:	f7fa fc89 	bl	20e94 <_ZN20complex_full_dynamic3app17h34a9782bb2206d54E>
   26582:	782c      	ldrb	r4, [r5, #0]
   26584:	2c00      	cmp	r4, #0
   26586:	d002      	beq.n	2658e <_start+0x8f6>
   26588:	980c      	ldr	r0, [sp, #48]	@ 0x30
   2658a:	6e06      	ldr	r6, [r0, #96]	@ 0x60
   2658c:	e011      	b.n	265b2 <_start+0x91a>
   2658e:	49a6      	ldr	r1, [pc, #664]	@ (26828 <_start+0xb90>)
   26590:	4469      	add	r1, sp
   26592:	78c8      	ldrb	r0, [r1, #3]
   26594:	aa10      	add	r2, sp, #64	@ 0x40
   26596:	7090      	strb	r0, [r2, #2]
   26598:	7848      	ldrb	r0, [r1, #1]
   2659a:	788b      	ldrb	r3, [r1, #2]
   2659c:	021b      	lsls	r3, r3, #8
   2659e:	1818      	adds	r0, r3, r0
   265a0:	8010      	strh	r0, [r2, #0]
   265a2:	980c      	ldr	r0, [sp, #48]	@ 0x30
   265a4:	6e06      	ldr	r6, [r0, #96]	@ 0x60
   265a6:	3108      	adds	r1, #8
   265a8:	48a1      	ldr	r0, [pc, #644]	@ (26830 <_start+0xb98>)
   265aa:	4468      	add	r0, sp
   265ac:	2241      	movs	r2, #65	@ 0x41
   265ae:	f002 fe4e 	bl	2924e <__aeabi_memcpy4>
   265b2:	2c00      	cmp	r4, #0
   265b4:	d000      	beq.n	265b8 <_start+0x920>
   265b6:	e590      	b.n	260da <_start+0x442>
   265b8:	ac3d      	add	r4, sp, #244	@ 0xf4
   265ba:	70e6      	strb	r6, [r4, #3]
   265bc:	9810      	ldr	r0, [sp, #64]	@ 0x40
   265be:	8020      	strh	r0, [r4, #0]
   265c0:	0e30      	lsrs	r0, r6, #24
   265c2:	71a0      	strb	r0, [r4, #6]
   265c4:	0c30      	lsrs	r0, r6, #16
   265c6:	7160      	strb	r0, [r4, #5]
   265c8:	0a30      	lsrs	r0, r6, #8
   265ca:	7120      	strb	r0, [r4, #4]
   265cc:	a810      	add	r0, sp, #64	@ 0x40
   265ce:	7880      	ldrb	r0, [r0, #2]
   265d0:	70a0      	strb	r0, [r4, #2]
   265d2:	1de0      	adds	r0, r4, #7
   265d4:	4996      	ldr	r1, [pc, #600]	@ (26830 <_start+0xb98>)
   265d6:	4469      	add	r1, sp
   265d8:	2241      	movs	r2, #65	@ 0x41
   265da:	f002 ff98 	bl	2950e <__aeabi_memcpy>
   265de:	4d92      	ldr	r5, [pc, #584]	@ (26828 <_start+0xb90>)
   265e0:	446d      	add	r5, sp
   265e2:	4628      	mov	r0, r5
   265e4:	4621      	mov	r1, r4
   265e6:	f7fa fe41 	bl	2126c <_ZN20complex_full_dynamic3app17h3e3f7c05a26c63e1E>
   265ea:	7829      	ldrb	r1, [r5, #0]
   265ec:	2901      	cmp	r1, #1
   265ee:	d102      	bne.n	265f6 <_start+0x95e>
   265f0:	9d0c      	ldr	r5, [sp, #48]	@ 0x30
   265f2:	6e2e      	ldr	r6, [r5, #96]	@ 0x60
   265f4:	e00e      	b.n	26614 <_start+0x97c>
   265f6:	488c      	ldr	r0, [pc, #560]	@ (26828 <_start+0xb90>)
   265f8:	4468      	add	r0, sp
   265fa:	78c2      	ldrb	r2, [r0, #3]
   265fc:	4b8c      	ldr	r3, [pc, #560]	@ (26830 <_start+0xb98>)
   265fe:	446b      	add	r3, sp
   26600:	709a      	strb	r2, [r3, #2]
   26602:	7842      	ldrb	r2, [r0, #1]
   26604:	7880      	ldrb	r0, [r0, #2]
   26606:	0200      	lsls	r0, r0, #8
   26608:	1880      	adds	r0, r0, r2
   2660a:	8018      	strh	r0, [r3, #0]
   2660c:	9d0c      	ldr	r5, [sp, #48]	@ 0x30
   2660e:	6e2e      	ldr	r6, [r5, #96]	@ 0x60
   26610:	6e6a      	ldr	r2, [r5, #100]	@ 0x64
   26612:	6ea8      	ldr	r0, [r5, #104]	@ 0x68
   26614:	2900      	cmp	r1, #0
   26616:	d000      	beq.n	2661a <_start+0x982>
   26618:	e55f      	b.n	260da <_start+0x442>
   2661a:	9909      	ldr	r1, [sp, #36]	@ 0x24
   2661c:	1ccb      	adds	r3, r1, #3
   2661e:	711a      	strb	r2, [r3, #4]
   26620:	701e      	strb	r6, [r3, #0]
   26622:	a94f      	add	r1, sp, #316	@ 0x13c
   26624:	682c      	ldr	r4, [r5, #0]
   26626:	800c      	strh	r4, [r1, #0]
   26628:	7218      	strb	r0, [r3, #8]
   2662a:	0e14      	lsrs	r4, r2, #24
   2662c:	71dc      	strb	r4, [r3, #7]
   2662e:	0c14      	lsrs	r4, r2, #16
   26630:	719c      	strb	r4, [r3, #6]
   26632:	0a12      	lsrs	r2, r2, #8
   26634:	715a      	strb	r2, [r3, #5]
   26636:	0e32      	lsrs	r2, r6, #24
   26638:	70da      	strb	r2, [r3, #3]
   2663a:	0c32      	lsrs	r2, r6, #16
   2663c:	709a      	strb	r2, [r3, #2]
   2663e:	0a32      	lsrs	r2, r6, #8
   26640:	705a      	strb	r2, [r3, #1]
   26642:	4a7b      	ldr	r2, [pc, #492]	@ (26830 <_start+0xb98>)
   26644:	446a      	add	r2, sp
   26646:	7892      	ldrb	r2, [r2, #2]
   26648:	708a      	strb	r2, [r1, #2]
   2664a:	0e02      	lsrs	r2, r0, #24
   2664c:	72da      	strb	r2, [r3, #11]
   2664e:	0c02      	lsrs	r2, r0, #16
   26650:	729a      	strb	r2, [r3, #10]
   26652:	0a00      	lsrs	r0, r0, #8
   26654:	7258      	strb	r0, [r3, #9]
   26656:	4c74      	ldr	r4, [pc, #464]	@ (26828 <_start+0xb90>)
   26658:	446c      	add	r4, sp
   2665a:	4620      	mov	r0, r4
   2665c:	f7f9 febc 	bl	203d8 <_ZN20complex_full_dynamic3app17h0edb0ba7bbdd3097E>
   26660:	7820      	ldrb	r0, [r4, #0]
   26662:	2801      	cmp	r0, #1
   26664:	d101      	bne.n	2666a <_start+0x9d2>
   26666:	6e2e      	ldr	r6, [r5, #96]	@ 0x60
   26668:	e015      	b.n	26696 <_start+0x9fe>
   2666a:	496f      	ldr	r1, [pc, #444]	@ (26828 <_start+0xb90>)
   2666c:	4469      	add	r1, sp
   2666e:	78ca      	ldrb	r2, [r1, #3]
   26670:	ab10      	add	r3, sp, #64	@ 0x40
   26672:	709a      	strb	r2, [r3, #2]
   26674:	784a      	ldrb	r2, [r1, #1]
   26676:	788c      	ldrb	r4, [r1, #2]
   26678:	0224      	lsls	r4, r4, #8
   2667a:	18a2      	adds	r2, r4, r2
   2667c:	801a      	strh	r2, [r3, #0]
   2667e:	3108      	adds	r1, #8
   26680:	6e2a      	ldr	r2, [r5, #96]	@ 0x60
   26682:	920b      	str	r2, [sp, #44]	@ 0x2c
   26684:	4a6a      	ldr	r2, [pc, #424]	@ (26830 <_start+0xb98>)
   26686:	446a      	add	r2, sp
   26688:	c938      	ldmia	r1!, {r3, r4, r5}
   2668a:	c238      	stmia	r2!, {r3, r4, r5}
   2668c:	c978      	ldmia	r1!, {r3, r4, r5, r6}
   2668e:	c278      	stmia	r2!, {r3, r4, r5, r6}
   26690:	9e0b      	ldr	r6, [sp, #44]	@ 0x2c
   26692:	8809      	ldrh	r1, [r1, #0]
   26694:	8011      	strh	r1, [r2, #0]
   26696:	2800      	cmp	r0, #0
   26698:	d000      	beq.n	2669c <_start+0xa04>
   2669a:	e51e      	b.n	260da <_start+0x442>
   2669c:	ac53      	add	r4, sp, #332	@ 0x14c
   2669e:	70e6      	strb	r6, [r4, #3]
   266a0:	9810      	ldr	r0, [sp, #64]	@ 0x40
   266a2:	8020      	strh	r0, [r4, #0]
   266a4:	0e30      	lsrs	r0, r6, #24
   266a6:	71a0      	strb	r0, [r4, #6]
   266a8:	0c30      	lsrs	r0, r6, #16
   266aa:	7160      	strb	r0, [r4, #5]
   266ac:	0a30      	lsrs	r0, r6, #8
   266ae:	7120      	strb	r0, [r4, #4]
   266b0:	a810      	add	r0, sp, #64	@ 0x40
   266b2:	7880      	ldrb	r0, [r0, #2]
   266b4:	70a0      	strb	r0, [r4, #2]
   266b6:	1de0      	adds	r0, r4, #7
   266b8:	495d      	ldr	r1, [pc, #372]	@ (26830 <_start+0xb98>)
   266ba:	4469      	add	r1, sp
   266bc:	221e      	movs	r2, #30
   266be:	f002 ff26 	bl	2950e <__aeabi_memcpy>
   266c2:	4d59      	ldr	r5, [pc, #356]	@ (26828 <_start+0xb90>)
   266c4:	446d      	add	r5, sp
   266c6:	4628      	mov	r0, r5
   266c8:	4621      	mov	r1, r4
   266ca:	f7ff f871 	bl	257b0 <_ZN20complex_full_dynamic3app17hf481f40f923b83c0E>
   266ce:	7828      	ldrb	r0, [r5, #0]
   266d0:	2801      	cmp	r0, #1
   266d2:	d102      	bne.n	266da <_start+0xa42>
   266d4:	990c      	ldr	r1, [sp, #48]	@ 0x30
   266d6:	6e0e      	ldr	r6, [r1, #96]	@ 0x60
   266d8:	e018      	b.n	2670c <_start+0xa74>
   266da:	4953      	ldr	r1, [pc, #332]	@ (26828 <_start+0xb90>)
   266dc:	4469      	add	r1, sp
   266de:	78ca      	ldrb	r2, [r1, #3]
   266e0:	ab10      	add	r3, sp, #64	@ 0x40
   266e2:	709a      	strb	r2, [r3, #2]
   266e4:	784a      	ldrb	r2, [r1, #1]
   266e6:	788c      	ldrb	r4, [r1, #2]
   266e8:	0224      	lsls	r4, r4, #8
   266ea:	18a2      	adds	r2, r4, r2
   266ec:	801a      	strh	r2, [r3, #0]
   266ee:	3108      	adds	r1, #8
   266f0:	9a0c      	ldr	r2, [sp, #48]	@ 0x30
   266f2:	6e12      	ldr	r2, [r2, #96]	@ 0x60
   266f4:	920b      	str	r2, [sp, #44]	@ 0x2c
   266f6:	4a4e      	ldr	r2, [pc, #312]	@ (26830 <_start+0xb98>)
   266f8:	446a      	add	r2, sp
   266fa:	c978      	ldmia	r1!, {r3, r4, r5, r6}
   266fc:	c278      	stmia	r2!, {r3, r4, r5, r6}
   266fe:	c978      	ldmia	r1!, {r3, r4, r5, r6}
   26700:	c278      	stmia	r2!, {r3, r4, r5, r6}
   26702:	9e0b      	ldr	r6, [sp, #44]	@ 0x2c
   26704:	880b      	ldrh	r3, [r1, #0]
   26706:	8013      	strh	r3, [r2, #0]
   26708:	7889      	ldrb	r1, [r1, #2]
   2670a:	7091      	strb	r1, [r2, #2]
   2670c:	2800      	cmp	r0, #0
   2670e:	d000      	beq.n	26712 <_start+0xa7a>
   26710:	e4e3      	b.n	260da <_start+0x442>
   26712:	ac5d      	add	r4, sp, #372	@ 0x174
   26714:	70e6      	strb	r6, [r4, #3]
   26716:	9810      	ldr	r0, [sp, #64]	@ 0x40
   26718:	8020      	strh	r0, [r4, #0]
   2671a:	0e30      	lsrs	r0, r6, #24
   2671c:	71a0      	strb	r0, [r4, #6]
   2671e:	0c30      	lsrs	r0, r6, #16
   26720:	7160      	strb	r0, [r4, #5]
   26722:	0a30      	lsrs	r0, r6, #8
   26724:	7120      	strb	r0, [r4, #4]
   26726:	a810      	add	r0, sp, #64	@ 0x40
   26728:	7880      	ldrb	r0, [r0, #2]
   2672a:	70a0      	strb	r0, [r4, #2]
   2672c:	1de0      	adds	r0, r4, #7
   2672e:	4940      	ldr	r1, [pc, #256]	@ (26830 <_start+0xb98>)
   26730:	4469      	add	r1, sp
   26732:	2223      	movs	r2, #35	@ 0x23
   26734:	f002 feeb 	bl	2950e <__aeabi_memcpy>
   26738:	4d3b      	ldr	r5, [pc, #236]	@ (26828 <_start+0xb90>)
   2673a:	446d      	add	r5, sp
   2673c:	4628      	mov	r0, r5
   2673e:	4621      	mov	r1, r4
   26740:	f7fa fc9e 	bl	21080 <_ZN20complex_full_dynamic3app17h39c8223ba75113c4E>
   26744:	782c      	ldrb	r4, [r5, #0]
   26746:	2c01      	cmp	r4, #1
   26748:	d102      	bne.n	26750 <_start+0xab8>
   2674a:	980c      	ldr	r0, [sp, #48]	@ 0x30
   2674c:	6e06      	ldr	r6, [r0, #96]	@ 0x60
   2674e:	e011      	b.n	26774 <_start+0xadc>
   26750:	4935      	ldr	r1, [pc, #212]	@ (26828 <_start+0xb90>)
   26752:	4469      	add	r1, sp
   26754:	78c8      	ldrb	r0, [r1, #3]
   26756:	aa10      	add	r2, sp, #64	@ 0x40
   26758:	7090      	strb	r0, [r2, #2]
   2675a:	7848      	ldrb	r0, [r1, #1]
   2675c:	788b      	ldrb	r3, [r1, #2]
   2675e:	021b      	lsls	r3, r3, #8
   26760:	1818      	adds	r0, r3, r0
   26762:	8010      	strh	r0, [r2, #0]
   26764:	980c      	ldr	r0, [sp, #48]	@ 0x30
   26766:	6e06      	ldr	r6, [r0, #96]	@ 0x60
   26768:	3108      	adds	r1, #8
   2676a:	4831      	ldr	r0, [pc, #196]	@ (26830 <_start+0xb98>)
   2676c:	4468      	add	r0, sp
   2676e:	225c      	movs	r2, #92	@ 0x5c
   26770:	f002 fd6d 	bl	2924e <__aeabi_memcpy4>
   26774:	2c00      	cmp	r4, #0
   26776:	d000      	beq.n	2677a <_start+0xae2>
   26778:	e4af      	b.n	260da <_start+0x442>
   2677a:	ac68      	add	r4, sp, #416	@ 0x1a0
   2677c:	70e6      	strb	r6, [r4, #3]
   2677e:	9810      	ldr	r0, [sp, #64]	@ 0x40
   26780:	8020      	strh	r0, [r4, #0]
   26782:	0e30      	lsrs	r0, r6, #24
   26784:	71a0      	strb	r0, [r4, #6]
   26786:	0c30      	lsrs	r0, r6, #16
   26788:	7160      	strb	r0, [r4, #5]
   2678a:	0a30      	lsrs	r0, r6, #8
   2678c:	7120      	strb	r0, [r4, #4]
   2678e:	a810      	add	r0, sp, #64	@ 0x40
   26790:	7880      	ldrb	r0, [r0, #2]
   26792:	70a0      	strb	r0, [r4, #2]
   26794:	1de0      	adds	r0, r4, #7
   26796:	4926      	ldr	r1, [pc, #152]	@ (26830 <_start+0xb98>)
   26798:	4469      	add	r1, sp
   2679a:	225c      	movs	r2, #92	@ 0x5c
   2679c:	f002 feb7 	bl	2950e <__aeabi_memcpy>
   267a0:	4d21      	ldr	r5, [pc, #132]	@ (26828 <_start+0xb90>)
   267a2:	446d      	add	r5, sp
   267a4:	4628      	mov	r0, r5
   267a6:	4621      	mov	r1, r4
   267a8:	f7fd ffbc 	bl	24724 <_ZN20complex_full_dynamic3app17hcc32eb72946f2616E>
   267ac:	7828      	ldrb	r0, [r5, #0]
   267ae:	2801      	cmp	r0, #1
   267b0:	d102      	bne.n	267b8 <_start+0xb20>
   267b2:	990c      	ldr	r1, [sp, #48]	@ 0x30
   267b4:	6e0e      	ldr	r6, [r1, #96]	@ 0x60
   267b6:	e014      	b.n	267e2 <_start+0xb4a>
   267b8:	491b      	ldr	r1, [pc, #108]	@ (26828 <_start+0xb90>)
   267ba:	4469      	add	r1, sp
   267bc:	78ca      	ldrb	r2, [r1, #3]
   267be:	ab10      	add	r3, sp, #64	@ 0x40
   267c0:	709a      	strb	r2, [r3, #2]
   267c2:	784a      	ldrb	r2, [r1, #1]
   267c4:	788c      	ldrb	r4, [r1, #2]
   267c6:	0224      	lsls	r4, r4, #8
   267c8:	18a2      	adds	r2, r4, r2
   267ca:	801a      	strh	r2, [r3, #0]
   267cc:	3108      	adds	r1, #8
   267ce:	9a0c      	ldr	r2, [sp, #48]	@ 0x30
   267d0:	6e12      	ldr	r2, [r2, #96]	@ 0x60
   267d2:	920b      	str	r2, [sp, #44]	@ 0x2c
   267d4:	4a16      	ldr	r2, [pc, #88]	@ (26830 <_start+0xb98>)
   267d6:	446a      	add	r2, sp
   267d8:	c978      	ldmia	r1!, {r3, r4, r5, r6}
   267da:	c278      	stmia	r2!, {r3, r4, r5, r6}
   267dc:	c978      	ldmia	r1!, {r3, r4, r5, r6}
   267de:	c278      	stmia	r2!, {r3, r4, r5, r6}
   267e0:	9e0b      	ldr	r6, [sp, #44]	@ 0x2c
   267e2:	2800      	cmp	r0, #0
   267e4:	d000      	beq.n	267e8 <_start+0xb50>
   267e6:	e478      	b.n	260da <_start+0x442>
   267e8:	ac81      	add	r4, sp, #516	@ 0x204
   267ea:	70e6      	strb	r6, [r4, #3]
   267ec:	9810      	ldr	r0, [sp, #64]	@ 0x40
   267ee:	8020      	strh	r0, [r4, #0]
   267f0:	0e30      	lsrs	r0, r6, #24
   267f2:	71a0      	strb	r0, [r4, #6]
   267f4:	0c30      	lsrs	r0, r6, #16
   267f6:	7160      	strb	r0, [r4, #5]
   267f8:	0a30      	lsrs	r0, r6, #8
   267fa:	7120      	strb	r0, [r4, #4]
   267fc:	a810      	add	r0, sp, #64	@ 0x40
   267fe:	7880      	ldrb	r0, [r0, #2]
   26800:	70a0      	strb	r0, [r4, #2]
   26802:	1de0      	adds	r0, r4, #7
   26804:	490a      	ldr	r1, [pc, #40]	@ (26830 <_start+0xb98>)
   26806:	4469      	add	r1, sp
   26808:	2220      	movs	r2, #32
   2680a:	f002 fe80 	bl	2950e <__aeabi_memcpy>
   2680e:	4d06      	ldr	r5, [pc, #24]	@ (26828 <_start+0xb90>)
   26810:	446d      	add	r5, sp
   26812:	4628      	mov	r0, r5
   26814:	4621      	mov	r1, r4
   26816:	f7fc fea9 	bl	2356c <_ZN20complex_full_dynamic3app17h9ae225313c0c6965E>
   2681a:	7828      	ldrb	r0, [r5, #0]
   2681c:	2801      	cmp	r0, #1
   2681e:	d109      	bne.n	26834 <_start+0xb9c>
   26820:	990c      	ldr	r1, [sp, #48]	@ 0x30
   26822:	6e0e      	ldr	r6, [r1, #96]	@ 0x60
   26824:	e01d      	b.n	26862 <_start+0xbca>
   26826:	46c0      	nop			@ (mov r8, r8)
   26828:	00001414 	.word	0x00001414
   2682c:	00000667 	.word	0x00000667
   26830:	000013b8 	.word	0x000013b8
   26834:	49eb      	ldr	r1, [pc, #940]	@ (26be4 <_start+0xf4c>)
   26836:	4469      	add	r1, sp
   26838:	78ca      	ldrb	r2, [r1, #3]
   2683a:	ab10      	add	r3, sp, #64	@ 0x40
   2683c:	709a      	strb	r2, [r3, #2]
   2683e:	784a      	ldrb	r2, [r1, #1]
   26840:	788c      	ldrb	r4, [r1, #2]
   26842:	0224      	lsls	r4, r4, #8
   26844:	18a2      	adds	r2, r4, r2
   26846:	801a      	strh	r2, [r3, #0]
   26848:	3108      	adds	r1, #8
   2684a:	9a0c      	ldr	r2, [sp, #48]	@ 0x30
   2684c:	6e16      	ldr	r6, [r2, #96]	@ 0x60
   2684e:	4ae6      	ldr	r2, [pc, #920]	@ (26be8 <_start+0xf50>)
   26850:	446a      	add	r2, sp
   26852:	c918      	ldmia	r1!, {r3, r4}
   26854:	c218      	stmia	r2!, {r3, r4}
   26856:	c938      	ldmia	r1!, {r3, r4, r5}
   26858:	c238      	stmia	r2!, {r3, r4, r5}
   2685a:	880b      	ldrh	r3, [r1, #0]
   2685c:	8013      	strh	r3, [r2, #0]
   2685e:	7889      	ldrb	r1, [r1, #2]
   26860:	7091      	strb	r1, [r2, #2]
   26862:	2800      	cmp	r0, #0
   26864:	d000      	beq.n	26868 <_start+0xbd0>
   26866:	e438      	b.n	260da <_start+0x442>
   26868:	ac8b      	add	r4, sp, #556	@ 0x22c
   2686a:	70e6      	strb	r6, [r4, #3]
   2686c:	9810      	ldr	r0, [sp, #64]	@ 0x40
   2686e:	8020      	strh	r0, [r4, #0]
   26870:	0e30      	lsrs	r0, r6, #24
   26872:	71a0      	strb	r0, [r4, #6]
   26874:	0c30      	lsrs	r0, r6, #16
   26876:	7160      	strb	r0, [r4, #5]
   26878:	0a30      	lsrs	r0, r6, #8
   2687a:	7120      	strb	r0, [r4, #4]
   2687c:	a810      	add	r0, sp, #64	@ 0x40
   2687e:	7880      	ldrb	r0, [r0, #2]
   26880:	70a0      	strb	r0, [r4, #2]
   26882:	1de0      	adds	r0, r4, #7
   26884:	49d8      	ldr	r1, [pc, #864]	@ (26be8 <_start+0xf50>)
   26886:	4469      	add	r1, sp
   26888:	2217      	movs	r2, #23
   2688a:	f002 fe40 	bl	2950e <__aeabi_memcpy>
   2688e:	4dd5      	ldr	r5, [pc, #852]	@ (26be4 <_start+0xf4c>)
   26890:	446d      	add	r5, sp
   26892:	4628      	mov	r0, r5
   26894:	4621      	mov	r1, r4
   26896:	f7fd fe4f 	bl	24538 <_ZN20complex_full_dynamic3app17hbd44f69168cb66b5E>
   2689a:	7828      	ldrb	r0, [r5, #0]
   2689c:	2801      	cmp	r0, #1
   2689e:	d102      	bne.n	268a6 <_start+0xc0e>
   268a0:	990c      	ldr	r1, [sp, #48]	@ 0x30
   268a2:	6e0e      	ldr	r6, [r1, #96]	@ 0x60
   268a4:	e016      	b.n	268d4 <_start+0xc3c>
   268a6:	49cf      	ldr	r1, [pc, #828]	@ (26be4 <_start+0xf4c>)
   268a8:	4469      	add	r1, sp
   268aa:	78ca      	ldrb	r2, [r1, #3]
   268ac:	ab10      	add	r3, sp, #64	@ 0x40
   268ae:	709a      	strb	r2, [r3, #2]
   268b0:	784a      	ldrb	r2, [r1, #1]
   268b2:	788c      	ldrb	r4, [r1, #2]
   268b4:	0224      	lsls	r4, r4, #8
   268b6:	18a2      	adds	r2, r4, r2
   268b8:	801a      	strh	r2, [r3, #0]
   268ba:	3108      	adds	r1, #8
   268bc:	9a0c      	ldr	r2, [sp, #48]	@ 0x30
   268be:	6e16      	ldr	r6, [r2, #96]	@ 0x60
   268c0:	4ac9      	ldr	r2, [pc, #804]	@ (26be8 <_start+0xf50>)
   268c2:	446a      	add	r2, sp
   268c4:	c938      	ldmia	r1!, {r3, r4, r5}
   268c6:	c238      	stmia	r2!, {r3, r4, r5}
   268c8:	c938      	ldmia	r1!, {r3, r4, r5}
   268ca:	c238      	stmia	r2!, {r3, r4, r5}
   268cc:	c938      	ldmia	r1!, {r3, r4, r5}
   268ce:	c238      	stmia	r2!, {r3, r4, r5}
   268d0:	7809      	ldrb	r1, [r1, #0]
   268d2:	7011      	strb	r1, [r2, #0]
   268d4:	2800      	cmp	r0, #0
   268d6:	d001      	beq.n	268dc <_start+0xc44>
   268d8:	f7ff fbff 	bl	260da <_start+0x442>
   268dc:	ac93      	add	r4, sp, #588	@ 0x24c
   268de:	70e6      	strb	r6, [r4, #3]
   268e0:	9810      	ldr	r0, [sp, #64]	@ 0x40
   268e2:	8020      	strh	r0, [r4, #0]
   268e4:	0e30      	lsrs	r0, r6, #24
   268e6:	71a0      	strb	r0, [r4, #6]
   268e8:	0c30      	lsrs	r0, r6, #16
   268ea:	7160      	strb	r0, [r4, #5]
   268ec:	0a30      	lsrs	r0, r6, #8
   268ee:	7120      	strb	r0, [r4, #4]
   268f0:	a810      	add	r0, sp, #64	@ 0x40
   268f2:	7880      	ldrb	r0, [r0, #2]
   268f4:	70a0      	strb	r0, [r4, #2]
   268f6:	1de0      	adds	r0, r4, #7
   268f8:	49bb      	ldr	r1, [pc, #748]	@ (26be8 <_start+0xf50>)
   268fa:	4469      	add	r1, sp
   268fc:	2225      	movs	r2, #37	@ 0x25
   268fe:	f002 fe06 	bl	2950e <__aeabi_memcpy>
   26902:	4db8      	ldr	r5, [pc, #736]	@ (26be4 <_start+0xf4c>)
   26904:	446d      	add	r5, sp
   26906:	4628      	mov	r0, r5
   26908:	4621      	mov	r1, r4
   2690a:	f7f9 fedb 	bl	206c4 <_ZN20complex_full_dynamic3app17h14c66cfba56c9365E>
   2690e:	7828      	ldrb	r0, [r5, #0]
   26910:	2801      	cmp	r0, #1
   26912:	d103      	bne.n	2691c <_start+0xc84>
   26914:	990c      	ldr	r1, [sp, #48]	@ 0x30
   26916:	6e09      	ldr	r1, [r1, #96]	@ 0x60
   26918:	910b      	str	r1, [sp, #44]	@ 0x2c
   2691a:	e015      	b.n	26948 <_start+0xcb0>
   2691c:	49b1      	ldr	r1, [pc, #708]	@ (26be4 <_start+0xf4c>)
   2691e:	4469      	add	r1, sp
   26920:	78ca      	ldrb	r2, [r1, #3]
   26922:	ab10      	add	r3, sp, #64	@ 0x40
   26924:	709a      	strb	r2, [r3, #2]
   26926:	784a      	ldrb	r2, [r1, #1]
   26928:	788c      	ldrb	r4, [r1, #2]
   2692a:	0224      	lsls	r4, r4, #8
   2692c:	18a2      	adds	r2, r4, r2
   2692e:	801a      	strh	r2, [r3, #0]
   26930:	3108      	adds	r1, #8
   26932:	9a0c      	ldr	r2, [sp, #48]	@ 0x30
   26934:	6e12      	ldr	r2, [r2, #96]	@ 0x60
   26936:	920b      	str	r2, [sp, #44]	@ 0x2c
   26938:	4aab      	ldr	r2, [pc, #684]	@ (26be8 <_start+0xf50>)
   2693a:	446a      	add	r2, sp
   2693c:	c938      	ldmia	r1!, {r3, r4, r5}
   2693e:	c238      	stmia	r2!, {r3, r4, r5}
   26940:	c978      	ldmia	r1!, {r3, r4, r5, r6}
   26942:	c278      	stmia	r2!, {r3, r4, r5, r6}
   26944:	8809      	ldrh	r1, [r1, #0]
   26946:	8011      	strh	r1, [r2, #0]
   26948:	2800      	cmp	r0, #0
   2694a:	d000      	beq.n	2694e <_start+0xcb6>
   2694c:	e532      	b.n	263b4 <_start+0x71c>
   2694e:	ac9e      	add	r4, sp, #632	@ 0x278
   26950:	990b      	ldr	r1, [sp, #44]	@ 0x2c
   26952:	70e1      	strb	r1, [r4, #3]
   26954:	9810      	ldr	r0, [sp, #64]	@ 0x40
   26956:	8020      	strh	r0, [r4, #0]
   26958:	0e08      	lsrs	r0, r1, #24
   2695a:	71a0      	strb	r0, [r4, #6]
   2695c:	0c08      	lsrs	r0, r1, #16
   2695e:	7160      	strb	r0, [r4, #5]
   26960:	0a08      	lsrs	r0, r1, #8
   26962:	7120      	strb	r0, [r4, #4]
   26964:	a810      	add	r0, sp, #64	@ 0x40
   26966:	7880      	ldrb	r0, [r0, #2]
   26968:	70a0      	strb	r0, [r4, #2]
   2696a:	1de0      	adds	r0, r4, #7
   2696c:	499e      	ldr	r1, [pc, #632]	@ (26be8 <_start+0xf50>)
   2696e:	4469      	add	r1, sp
   26970:	221e      	movs	r2, #30
   26972:	f002 fdcc 	bl	2950e <__aeabi_memcpy>
   26976:	4d9b      	ldr	r5, [pc, #620]	@ (26be4 <_start+0xf4c>)
   26978:	446d      	add	r5, sp
   2697a:	4628      	mov	r0, r5
   2697c:	4621      	mov	r1, r4
   2697e:	f7ff f903 	bl	25b88 <_ZN20complex_full_dynamic3app17hffa0e76acc26a640E>
   26982:	7828      	ldrb	r0, [r5, #0]
   26984:	2801      	cmp	r0, #1
   26986:	d103      	bne.n	26990 <_start+0xcf8>
   26988:	990c      	ldr	r1, [sp, #48]	@ 0x30
   2698a:	6e09      	ldr	r1, [r1, #96]	@ 0x60
   2698c:	910b      	str	r1, [sp, #44]	@ 0x2c
   2698e:	e013      	b.n	269b8 <_start+0xd20>
   26990:	4994      	ldr	r1, [pc, #592]	@ (26be4 <_start+0xf4c>)
   26992:	4469      	add	r1, sp
   26994:	78ca      	ldrb	r2, [r1, #3]
   26996:	ab10      	add	r3, sp, #64	@ 0x40
   26998:	709a      	strb	r2, [r3, #2]
   2699a:	784a      	ldrb	r2, [r1, #1]
   2699c:	788c      	ldrb	r4, [r1, #2]
   2699e:	0224      	lsls	r4, r4, #8
   269a0:	18a2      	adds	r2, r4, r2
   269a2:	801a      	strh	r2, [r3, #0]
   269a4:	3108      	adds	r1, #8
   269a6:	9a0c      	ldr	r2, [sp, #48]	@ 0x30
   269a8:	6e12      	ldr	r2, [r2, #96]	@ 0x60
   269aa:	920b      	str	r2, [sp, #44]	@ 0x2c
   269ac:	4a8e      	ldr	r2, [pc, #568]	@ (26be8 <_start+0xf50>)
   269ae:	446a      	add	r2, sp
   269b0:	c978      	ldmia	r1!, {r3, r4, r5, r6}
   269b2:	c278      	stmia	r2!, {r3, r4, r5, r6}
   269b4:	7809      	ldrb	r1, [r1, #0]
   269b6:	7011      	strb	r1, [r2, #0]
   269b8:	2800      	cmp	r0, #0
   269ba:	d000      	beq.n	269be <_start+0xd26>
   269bc:	e4fa      	b.n	263b4 <_start+0x71c>
   269be:	aca8      	add	r4, sp, #672	@ 0x2a0
   269c0:	990b      	ldr	r1, [sp, #44]	@ 0x2c
   269c2:	70e1      	strb	r1, [r4, #3]
   269c4:	9810      	ldr	r0, [sp, #64]	@ 0x40
   269c6:	8020      	strh	r0, [r4, #0]
   269c8:	0e08      	lsrs	r0, r1, #24
   269ca:	71a0      	strb	r0, [r4, #6]
   269cc:	0c08      	lsrs	r0, r1, #16
   269ce:	7160      	strb	r0, [r4, #5]
   269d0:	0a08      	lsrs	r0, r1, #8
   269d2:	7120      	strb	r0, [r4, #4]
   269d4:	a810      	add	r0, sp, #64	@ 0x40
   269d6:	7880      	ldrb	r0, [r0, #2]
   269d8:	70a0      	strb	r0, [r4, #2]
   269da:	1de0      	adds	r0, r4, #7
   269dc:	4982      	ldr	r1, [pc, #520]	@ (26be8 <_start+0xf50>)
   269de:	4469      	add	r1, sp
   269e0:	2211      	movs	r2, #17
   269e2:	f002 fd94 	bl	2950e <__aeabi_memcpy>
   269e6:	4d7f      	ldr	r5, [pc, #508]	@ (26be4 <_start+0xf4c>)
   269e8:	446d      	add	r5, sp
   269ea:	4628      	mov	r0, r5
   269ec:	4621      	mov	r1, r4
   269ee:	f7fb f825 	bl	21a3c <_ZN20complex_full_dynamic3app17h4e6f6664b7f7d6cbE>
   269f2:	7828      	ldrb	r0, [r5, #0]
   269f4:	2801      	cmp	r0, #1
   269f6:	d103      	bne.n	26a00 <_start+0xd68>
   269f8:	990c      	ldr	r1, [sp, #48]	@ 0x30
   269fa:	6e09      	ldr	r1, [r1, #96]	@ 0x60
   269fc:	910b      	str	r1, [sp, #44]	@ 0x2c
   269fe:	e019      	b.n	26a34 <_start+0xd9c>
   26a00:	4978      	ldr	r1, [pc, #480]	@ (26be4 <_start+0xf4c>)
   26a02:	4469      	add	r1, sp
   26a04:	78ca      	ldrb	r2, [r1, #3]
   26a06:	ab10      	add	r3, sp, #64	@ 0x40
   26a08:	709a      	strb	r2, [r3, #2]
   26a0a:	784a      	ldrb	r2, [r1, #1]
   26a0c:	788c      	ldrb	r4, [r1, #2]
   26a0e:	0224      	lsls	r4, r4, #8
   26a10:	18a2      	adds	r2, r4, r2
   26a12:	801a      	strh	r2, [r3, #0]
   26a14:	3108      	adds	r1, #8
   26a16:	9a0c      	ldr	r2, [sp, #48]	@ 0x30
   26a18:	6e12      	ldr	r2, [r2, #96]	@ 0x60
   26a1a:	920b      	str	r2, [sp, #44]	@ 0x2c
   26a1c:	4a72      	ldr	r2, [pc, #456]	@ (26be8 <_start+0xf50>)
   26a1e:	446a      	add	r2, sp
   26a20:	c938      	ldmia	r1!, {r3, r4, r5}
   26a22:	c238      	stmia	r2!, {r3, r4, r5}
   26a24:	c978      	ldmia	r1!, {r3, r4, r5, r6}
   26a26:	c278      	stmia	r2!, {r3, r4, r5, r6}
   26a28:	c978      	ldmia	r1!, {r3, r4, r5, r6}
   26a2a:	c278      	stmia	r2!, {r3, r4, r5, r6}
   26a2c:	880b      	ldrh	r3, [r1, #0]
   26a2e:	8013      	strh	r3, [r2, #0]
   26a30:	7889      	ldrb	r1, [r1, #2]
   26a32:	7091      	strb	r1, [r2, #2]
   26a34:	2800      	cmp	r0, #0
   26a36:	d000      	beq.n	26a3a <_start+0xda2>
   26a38:	e4bc      	b.n	263b4 <_start+0x71c>
   26a3a:	acae      	add	r4, sp, #696	@ 0x2b8
   26a3c:	990b      	ldr	r1, [sp, #44]	@ 0x2c
   26a3e:	70e1      	strb	r1, [r4, #3]
   26a40:	9810      	ldr	r0, [sp, #64]	@ 0x40
   26a42:	8020      	strh	r0, [r4, #0]
   26a44:	0e08      	lsrs	r0, r1, #24
   26a46:	71a0      	strb	r0, [r4, #6]
   26a48:	0c08      	lsrs	r0, r1, #16
   26a4a:	7160      	strb	r0, [r4, #5]
   26a4c:	0a08      	lsrs	r0, r1, #8
   26a4e:	7120      	strb	r0, [r4, #4]
   26a50:	a810      	add	r0, sp, #64	@ 0x40
   26a52:	7880      	ldrb	r0, [r0, #2]
   26a54:	70a0      	strb	r0, [r4, #2]
   26a56:	1de0      	adds	r0, r4, #7
   26a58:	4963      	ldr	r1, [pc, #396]	@ (26be8 <_start+0xf50>)
   26a5a:	4469      	add	r1, sp
   26a5c:	222f      	movs	r2, #47	@ 0x2f
   26a5e:	f002 fd56 	bl	2950e <__aeabi_memcpy>
   26a62:	4d60      	ldr	r5, [pc, #384]	@ (26be4 <_start+0xf4c>)
   26a64:	446d      	add	r5, sp
   26a66:	4628      	mov	r0, r5
   26a68:	4621      	mov	r1, r4
   26a6a:	f7fe ff97 	bl	2599c <_ZN20complex_full_dynamic3app17hfbdf0b566e9adfdeE>
   26a6e:	7828      	ldrb	r0, [r5, #0]
   26a70:	2801      	cmp	r0, #1
   26a72:	d103      	bne.n	26a7c <_start+0xde4>
   26a74:	990c      	ldr	r1, [sp, #48]	@ 0x30
   26a76:	6e09      	ldr	r1, [r1, #96]	@ 0x60
   26a78:	910b      	str	r1, [sp, #44]	@ 0x2c
   26a7a:	e017      	b.n	26aac <_start+0xe14>
   26a7c:	4959      	ldr	r1, [pc, #356]	@ (26be4 <_start+0xf4c>)
   26a7e:	4469      	add	r1, sp
   26a80:	78ca      	ldrb	r2, [r1, #3]
   26a82:	ab10      	add	r3, sp, #64	@ 0x40
   26a84:	709a      	strb	r2, [r3, #2]
   26a86:	784a      	ldrb	r2, [r1, #1]
   26a88:	788c      	ldrb	r4, [r1, #2]
   26a8a:	0224      	lsls	r4, r4, #8
   26a8c:	18a2      	adds	r2, r4, r2
   26a8e:	801a      	strh	r2, [r3, #0]
   26a90:	3108      	adds	r1, #8
   26a92:	9a0c      	ldr	r2, [sp, #48]	@ 0x30
   26a94:	6e12      	ldr	r2, [r2, #96]	@ 0x60
   26a96:	920b      	str	r2, [sp, #44]	@ 0x2c
   26a98:	4a53      	ldr	r2, [pc, #332]	@ (26be8 <_start+0xf50>)
   26a9a:	446a      	add	r2, sp
   26a9c:	c938      	ldmia	r1!, {r3, r4, r5}
   26a9e:	c238      	stmia	r2!, {r3, r4, r5}
   26aa0:	c978      	ldmia	r1!, {r3, r4, r5, r6}
   26aa2:	c278      	stmia	r2!, {r3, r4, r5, r6}
   26aa4:	c978      	ldmia	r1!, {r3, r4, r5, r6}
   26aa6:	c278      	stmia	r2!, {r3, r4, r5, r6}
   26aa8:	7809      	ldrb	r1, [r1, #0]
   26aaa:	7011      	strb	r1, [r2, #0]
   26aac:	2800      	cmp	r0, #0
   26aae:	d000      	beq.n	26ab2 <_start+0xe1a>
   26ab0:	e480      	b.n	263b4 <_start+0x71c>
   26ab2:	acbc      	add	r4, sp, #752	@ 0x2f0
   26ab4:	990b      	ldr	r1, [sp, #44]	@ 0x2c
   26ab6:	70e1      	strb	r1, [r4, #3]
   26ab8:	9810      	ldr	r0, [sp, #64]	@ 0x40
   26aba:	8020      	strh	r0, [r4, #0]
   26abc:	0e08      	lsrs	r0, r1, #24
   26abe:	71a0      	strb	r0, [r4, #6]
   26ac0:	0c08      	lsrs	r0, r1, #16
   26ac2:	7160      	strb	r0, [r4, #5]
   26ac4:	0a08      	lsrs	r0, r1, #8
   26ac6:	7120      	strb	r0, [r4, #4]
   26ac8:	a810      	add	r0, sp, #64	@ 0x40
   26aca:	7880      	ldrb	r0, [r0, #2]
   26acc:	70a0      	strb	r0, [r4, #2]
   26ace:	1de0      	adds	r0, r4, #7
   26ad0:	4945      	ldr	r1, [pc, #276]	@ (26be8 <_start+0xf50>)
   26ad2:	4469      	add	r1, sp
   26ad4:	222d      	movs	r2, #45	@ 0x2d
   26ad6:	f002 fd1a 	bl	2950e <__aeabi_memcpy>
   26ada:	4d42      	ldr	r5, [pc, #264]	@ (26be4 <_start+0xf4c>)
   26adc:	446d      	add	r5, sp
   26ade:	4628      	mov	r0, r5
   26ae0:	4621      	mov	r1, r4
   26ae2:	f7f9 fcf3 	bl	204cc <_ZN20complex_full_dynamic3app17h108e091c79030ce8E>
   26ae6:	7828      	ldrb	r0, [r5, #0]
   26ae8:	2801      	cmp	r0, #1
   26aea:	d102      	bne.n	26af2 <_start+0xe5a>
   26aec:	990c      	ldr	r1, [sp, #48]	@ 0x30
   26aee:	6e0e      	ldr	r6, [r1, #96]	@ 0x60
   26af0:	e018      	b.n	26b24 <_start+0xe8c>
   26af2:	493c      	ldr	r1, [pc, #240]	@ (26be4 <_start+0xf4c>)
   26af4:	4469      	add	r1, sp
   26af6:	78ca      	ldrb	r2, [r1, #3]
   26af8:	ab10      	add	r3, sp, #64	@ 0x40
   26afa:	709a      	strb	r2, [r3, #2]
   26afc:	784a      	ldrb	r2, [r1, #1]
   26afe:	788c      	ldrb	r4, [r1, #2]
   26b00:	0224      	lsls	r4, r4, #8
   26b02:	18a2      	adds	r2, r4, r2
   26b04:	801a      	strh	r2, [r3, #0]
   26b06:	3108      	adds	r1, #8
   26b08:	9a0c      	ldr	r2, [sp, #48]	@ 0x30
   26b0a:	6e16      	ldr	r6, [r2, #96]	@ 0x60
   26b0c:	4a36      	ldr	r2, [pc, #216]	@ (26be8 <_start+0xf50>)
   26b0e:	446a      	add	r2, sp
   26b10:	c938      	ldmia	r1!, {r3, r4, r5}
   26b12:	c238      	stmia	r2!, {r3, r4, r5}
   26b14:	c938      	ldmia	r1!, {r3, r4, r5}
   26b16:	c238      	stmia	r2!, {r3, r4, r5}
   26b18:	c938      	ldmia	r1!, {r3, r4, r5}
   26b1a:	c238      	stmia	r2!, {r3, r4, r5}
   26b1c:	880b      	ldrh	r3, [r1, #0]
   26b1e:	8013      	strh	r3, [r2, #0]
   26b20:	7889      	ldrb	r1, [r1, #2]
   26b22:	7091      	strb	r1, [r2, #2]
   26b24:	2800      	cmp	r0, #0
   26b26:	d001      	beq.n	26b2c <_start+0xe94>
   26b28:	f7ff fad7 	bl	260da <_start+0x442>
   26b2c:	acc9      	add	r4, sp, #804	@ 0x324
   26b2e:	70e6      	strb	r6, [r4, #3]
   26b30:	9810      	ldr	r0, [sp, #64]	@ 0x40
   26b32:	8020      	strh	r0, [r4, #0]
   26b34:	0e30      	lsrs	r0, r6, #24
   26b36:	71a0      	strb	r0, [r4, #6]
   26b38:	0c30      	lsrs	r0, r6, #16
   26b3a:	7160      	strb	r0, [r4, #5]
   26b3c:	0a30      	lsrs	r0, r6, #8
   26b3e:	7120      	strb	r0, [r4, #4]
   26b40:	a810      	add	r0, sp, #64	@ 0x40
   26b42:	7880      	ldrb	r0, [r0, #2]
   26b44:	70a0      	strb	r0, [r4, #2]
   26b46:	1de0      	adds	r0, r4, #7
   26b48:	4927      	ldr	r1, [pc, #156]	@ (26be8 <_start+0xf50>)
   26b4a:	4469      	add	r1, sp
   26b4c:	2227      	movs	r2, #39	@ 0x27
   26b4e:	f002 fcde 	bl	2950e <__aeabi_memcpy>
   26b52:	4d24      	ldr	r5, [pc, #144]	@ (26be4 <_start+0xf4c>)
   26b54:	446d      	add	r5, sp
   26b56:	4628      	mov	r0, r5
   26b58:	4621      	mov	r1, r4
   26b5a:	f7fc fe89 	bl	23870 <_ZN20complex_full_dynamic3app17h9df32bc4c10764e7E>
   26b5e:	7828      	ldrb	r0, [r5, #0]
   26b60:	2801      	cmp	r0, #1
   26b62:	d103      	bne.n	26b6c <_start+0xed4>
   26b64:	990c      	ldr	r1, [sp, #48]	@ 0x30
   26b66:	6e09      	ldr	r1, [r1, #96]	@ 0x60
   26b68:	910b      	str	r1, [sp, #44]	@ 0x2c
   26b6a:	e017      	b.n	26b9c <_start+0xf04>
   26b6c:	491d      	ldr	r1, [pc, #116]	@ (26be4 <_start+0xf4c>)
   26b6e:	4469      	add	r1, sp
   26b70:	78ca      	ldrb	r2, [r1, #3]
   26b72:	ab10      	add	r3, sp, #64	@ 0x40
   26b74:	709a      	strb	r2, [r3, #2]
   26b76:	784a      	ldrb	r2, [r1, #1]
   26b78:	788c      	ldrb	r4, [r1, #2]
   26b7a:	0224      	lsls	r4, r4, #8
   26b7c:	18a2      	adds	r2, r4, r2
   26b7e:	801a      	strh	r2, [r3, #0]
   26b80:	3108      	adds	r1, #8
   26b82:	9a0c      	ldr	r2, [sp, #48]	@ 0x30
   26b84:	6e12      	ldr	r2, [r2, #96]	@ 0x60
   26b86:	920b      	str	r2, [sp, #44]	@ 0x2c
   26b88:	4a17      	ldr	r2, [pc, #92]	@ (26be8 <_start+0xf50>)
   26b8a:	446a      	add	r2, sp
   26b8c:	c978      	ldmia	r1!, {r3, r4, r5, r6}
   26b8e:	c278      	stmia	r2!, {r3, r4, r5, r6}
   26b90:	c978      	ldmia	r1!, {r3, r4, r5, r6}
   26b92:	c278      	stmia	r2!, {r3, r4, r5, r6}
   26b94:	c978      	ldmia	r1!, {r3, r4, r5, r6}
   26b96:	c278      	stmia	r2!, {r3, r4, r5, r6}
   26b98:	7809      	ldrb	r1, [r1, #0]
   26b9a:	7011      	strb	r1, [r2, #0]
   26b9c:	2800      	cmp	r0, #0
   26b9e:	d000      	beq.n	26ba2 <_start+0xf0a>
   26ba0:	e408      	b.n	263b4 <_start+0x71c>
   26ba2:	acd5      	add	r4, sp, #852	@ 0x354
   26ba4:	990b      	ldr	r1, [sp, #44]	@ 0x2c
   26ba6:	70e1      	strb	r1, [r4, #3]
   26ba8:	9810      	ldr	r0, [sp, #64]	@ 0x40
   26baa:	8020      	strh	r0, [r4, #0]
   26bac:	0e08      	lsrs	r0, r1, #24
   26bae:	71a0      	strb	r0, [r4, #6]
   26bb0:	0c08      	lsrs	r0, r1, #16
   26bb2:	7160      	strb	r0, [r4, #5]
   26bb4:	0a08      	lsrs	r0, r1, #8
   26bb6:	7120      	strb	r0, [r4, #4]
   26bb8:	a810      	add	r0, sp, #64	@ 0x40
   26bba:	7880      	ldrb	r0, [r0, #2]
   26bbc:	70a0      	strb	r0, [r4, #2]
   26bbe:	1de0      	adds	r0, r4, #7
   26bc0:	4909      	ldr	r1, [pc, #36]	@ (26be8 <_start+0xf50>)
   26bc2:	4469      	add	r1, sp
   26bc4:	2231      	movs	r2, #49	@ 0x31
   26bc6:	f002 fca2 	bl	2950e <__aeabi_memcpy>
   26bca:	4d06      	ldr	r5, [pc, #24]	@ (26be4 <_start+0xf4c>)
   26bcc:	446d      	add	r5, sp
   26bce:	4628      	mov	r0, r5
   26bd0:	4621      	mov	r1, r4
   26bd2:	f7fb ffe9 	bl	22ba8 <_ZN20complex_full_dynamic3app17h7b6fe8759dc878d7E>
   26bd6:	7828      	ldrb	r0, [r5, #0]
   26bd8:	2801      	cmp	r0, #1
   26bda:	d107      	bne.n	26bec <_start+0xf54>
   26bdc:	990c      	ldr	r1, [sp, #48]	@ 0x30
   26bde:	6e09      	ldr	r1, [r1, #96]	@ 0x60
   26be0:	910b      	str	r1, [sp, #44]	@ 0x2c
   26be2:	e01b      	b.n	26c1c <_start+0xf84>
   26be4:	00001414 	.word	0x00001414
   26be8:	000013b8 	.word	0x000013b8
   26bec:	49f1      	ldr	r1, [pc, #964]	@ (26fb4 <_start+0x131c>)
   26bee:	4469      	add	r1, sp
   26bf0:	78ca      	ldrb	r2, [r1, #3]
   26bf2:	ab10      	add	r3, sp, #64	@ 0x40
   26bf4:	709a      	strb	r2, [r3, #2]
   26bf6:	784a      	ldrb	r2, [r1, #1]
   26bf8:	788c      	ldrb	r4, [r1, #2]
   26bfa:	0224      	lsls	r4, r4, #8
   26bfc:	18a2      	adds	r2, r4, r2
   26bfe:	801a      	strh	r2, [r3, #0]
   26c00:	3108      	adds	r1, #8
   26c02:	9a0c      	ldr	r2, [sp, #48]	@ 0x30
   26c04:	6e12      	ldr	r2, [r2, #96]	@ 0x60
   26c06:	920b      	str	r2, [sp, #44]	@ 0x2c
   26c08:	4aeb      	ldr	r2, [pc, #940]	@ (26fb8 <_start+0x1320>)
   26c0a:	446a      	add	r2, sp
   26c0c:	c938      	ldmia	r1!, {r3, r4, r5}
   26c0e:	c238      	stmia	r2!, {r3, r4, r5}
   26c10:	c978      	ldmia	r1!, {r3, r4, r5, r6}
   26c12:	c278      	stmia	r2!, {r3, r4, r5, r6}
   26c14:	c978      	ldmia	r1!, {r3, r4, r5, r6}
   26c16:	c278      	stmia	r2!, {r3, r4, r5, r6}
   26c18:	7809      	ldrb	r1, [r1, #0]
   26c1a:	7011      	strb	r1, [r2, #0]
   26c1c:	2800      	cmp	r0, #0
   26c1e:	d001      	beq.n	26c24 <_start+0xf8c>
   26c20:	f7ff fbc8 	bl	263b4 <_start+0x71c>
   26c24:	ace3      	add	r4, sp, #908	@ 0x38c
   26c26:	990b      	ldr	r1, [sp, #44]	@ 0x2c
   26c28:	70e1      	strb	r1, [r4, #3]
   26c2a:	9810      	ldr	r0, [sp, #64]	@ 0x40
   26c2c:	8020      	strh	r0, [r4, #0]
   26c2e:	0e08      	lsrs	r0, r1, #24
   26c30:	71a0      	strb	r0, [r4, #6]
   26c32:	0c08      	lsrs	r0, r1, #16
   26c34:	7160      	strb	r0, [r4, #5]
   26c36:	0a08      	lsrs	r0, r1, #8
   26c38:	7120      	strb	r0, [r4, #4]
   26c3a:	a810      	add	r0, sp, #64	@ 0x40
   26c3c:	7880      	ldrb	r0, [r0, #2]
   26c3e:	70a0      	strb	r0, [r4, #2]
   26c40:	1de0      	adds	r0, r4, #7
   26c42:	49dd      	ldr	r1, [pc, #884]	@ (26fb8 <_start+0x1320>)
   26c44:	4469      	add	r1, sp
   26c46:	222d      	movs	r2, #45	@ 0x2d
   26c48:	f002 fc61 	bl	2950e <__aeabi_memcpy>
   26c4c:	4dd9      	ldr	r5, [pc, #868]	@ (26fb4 <_start+0x131c>)
   26c4e:	446d      	add	r5, sp
   26c50:	4628      	mov	r0, r5
   26c52:	4621      	mov	r1, r4
   26c54:	f7fc fd0a 	bl	2366c <_ZN20complex_full_dynamic3app17h9bd40d147c93e3a6E>
   26c58:	7828      	ldrb	r0, [r5, #0]
   26c5a:	2801      	cmp	r0, #1
   26c5c:	d103      	bne.n	26c66 <_start+0xfce>
   26c5e:	990c      	ldr	r1, [sp, #48]	@ 0x30
   26c60:	6e09      	ldr	r1, [r1, #96]	@ 0x60
   26c62:	910b      	str	r1, [sp, #44]	@ 0x2c
   26c64:	e015      	b.n	26c92 <_start+0xffa>
   26c66:	49d3      	ldr	r1, [pc, #844]	@ (26fb4 <_start+0x131c>)
   26c68:	4469      	add	r1, sp
   26c6a:	78ca      	ldrb	r2, [r1, #3]
   26c6c:	ab10      	add	r3, sp, #64	@ 0x40
   26c6e:	709a      	strb	r2, [r3, #2]
   26c70:	784a      	ldrb	r2, [r1, #1]
   26c72:	788c      	ldrb	r4, [r1, #2]
   26c74:	0224      	lsls	r4, r4, #8
   26c76:	18a2      	adds	r2, r4, r2
   26c78:	801a      	strh	r2, [r3, #0]
   26c7a:	3108      	adds	r1, #8
   26c7c:	9a0c      	ldr	r2, [sp, #48]	@ 0x30
   26c7e:	6e12      	ldr	r2, [r2, #96]	@ 0x60
   26c80:	920b      	str	r2, [sp, #44]	@ 0x2c
   26c82:	4acd      	ldr	r2, [pc, #820]	@ (26fb8 <_start+0x1320>)
   26c84:	446a      	add	r2, sp
   26c86:	c978      	ldmia	r1!, {r3, r4, r5, r6}
   26c88:	c278      	stmia	r2!, {r3, r4, r5, r6}
   26c8a:	880b      	ldrh	r3, [r1, #0]
   26c8c:	8013      	strh	r3, [r2, #0]
   26c8e:	7889      	ldrb	r1, [r1, #2]
   26c90:	7091      	strb	r1, [r2, #2]
   26c92:	2800      	cmp	r0, #0
   26c94:	d001      	beq.n	26c9a <_start+0x1002>
   26c96:	f7ff fb8d 	bl	263b4 <_start+0x71c>
   26c9a:	acf0      	add	r4, sp, #960	@ 0x3c0
   26c9c:	990b      	ldr	r1, [sp, #44]	@ 0x2c
   26c9e:	70e1      	strb	r1, [r4, #3]
   26ca0:	9810      	ldr	r0, [sp, #64]	@ 0x40
   26ca2:	8020      	strh	r0, [r4, #0]
   26ca4:	0e08      	lsrs	r0, r1, #24
   26ca6:	71a0      	strb	r0, [r4, #6]
   26ca8:	0c08      	lsrs	r0, r1, #16
   26caa:	7160      	strb	r0, [r4, #5]
   26cac:	0a08      	lsrs	r0, r1, #8
   26cae:	7120      	strb	r0, [r4, #4]
   26cb0:	a810      	add	r0, sp, #64	@ 0x40
   26cb2:	7880      	ldrb	r0, [r0, #2]
   26cb4:	70a0      	strb	r0, [r4, #2]
   26cb6:	1de0      	adds	r0, r4, #7
   26cb8:	49bf      	ldr	r1, [pc, #764]	@ (26fb8 <_start+0x1320>)
   26cba:	4469      	add	r1, sp
   26cbc:	2213      	movs	r2, #19
   26cbe:	f002 fc26 	bl	2950e <__aeabi_memcpy>
   26cc2:	4dbc      	ldr	r5, [pc, #752]	@ (26fb4 <_start+0x131c>)
   26cc4:	446d      	add	r5, sp
   26cc6:	4628      	mov	r0, r5
   26cc8:	4621      	mov	r1, r4
   26cca:	f7fe f97f 	bl	24fcc <_ZN20complex_full_dynamic3app17he182f159b366839fE>
   26cce:	782c      	ldrb	r4, [r5, #0]
   26cd0:	2c01      	cmp	r4, #1
   26cd2:	d102      	bne.n	26cda <_start+0x1042>
   26cd4:	980c      	ldr	r0, [sp, #48]	@ 0x30
   26cd6:	6e06      	ldr	r6, [r0, #96]	@ 0x60
   26cd8:	e011      	b.n	26cfe <_start+0x1066>
   26cda:	49b6      	ldr	r1, [pc, #728]	@ (26fb4 <_start+0x131c>)
   26cdc:	4469      	add	r1, sp
   26cde:	78c8      	ldrb	r0, [r1, #3]
   26ce0:	aa10      	add	r2, sp, #64	@ 0x40
   26ce2:	7090      	strb	r0, [r2, #2]
   26ce4:	7848      	ldrb	r0, [r1, #1]
   26ce6:	788b      	ldrb	r3, [r1, #2]
   26ce8:	021b      	lsls	r3, r3, #8
   26cea:	1818      	adds	r0, r3, r0
   26cec:	8010      	strh	r0, [r2, #0]
   26cee:	980c      	ldr	r0, [sp, #48]	@ 0x30
   26cf0:	6e06      	ldr	r6, [r0, #96]	@ 0x60
   26cf2:	3108      	adds	r1, #8
   26cf4:	48b0      	ldr	r0, [pc, #704]	@ (26fb8 <_start+0x1320>)
   26cf6:	4468      	add	r0, sp
   26cf8:	2249      	movs	r2, #73	@ 0x49
   26cfa:	f002 faa8 	bl	2924e <__aeabi_memcpy4>
   26cfe:	2c00      	cmp	r4, #0
   26d00:	d001      	beq.n	26d06 <_start+0x106e>
   26d02:	f7ff f9ea 	bl	260da <_start+0x442>
   26d06:	acf7      	add	r4, sp, #988	@ 0x3dc
   26d08:	70e6      	strb	r6, [r4, #3]
   26d0a:	9810      	ldr	r0, [sp, #64]	@ 0x40
   26d0c:	8020      	strh	r0, [r4, #0]
   26d0e:	0e30      	lsrs	r0, r6, #24
   26d10:	71a0      	strb	r0, [r4, #6]
   26d12:	0c30      	lsrs	r0, r6, #16
   26d14:	7160      	strb	r0, [r4, #5]
   26d16:	0a30      	lsrs	r0, r6, #8
   26d18:	7120      	strb	r0, [r4, #4]
   26d1a:	a810      	add	r0, sp, #64	@ 0x40
   26d1c:	7880      	ldrb	r0, [r0, #2]
   26d1e:	70a0      	strb	r0, [r4, #2]
   26d20:	1de0      	adds	r0, r4, #7
   26d22:	49a5      	ldr	r1, [pc, #660]	@ (26fb8 <_start+0x1320>)
   26d24:	4469      	add	r1, sp
   26d26:	2249      	movs	r2, #73	@ 0x49
   26d28:	f002 fbf1 	bl	2950e <__aeabi_memcpy>
   26d2c:	4da1      	ldr	r5, [pc, #644]	@ (26fb4 <_start+0x131c>)
   26d2e:	446d      	add	r5, sp
   26d30:	4628      	mov	r0, r5
   26d32:	4621      	mov	r1, r4
   26d34:	f7fb f868 	bl	21e08 <_ZN20complex_full_dynamic3app17h53cd5fc8b177ea28E>
   26d38:	7828      	ldrb	r0, [r5, #0]
   26d3a:	2801      	cmp	r0, #1
   26d3c:	d103      	bne.n	26d46 <_start+0x10ae>
   26d3e:	990c      	ldr	r1, [sp, #48]	@ 0x30
   26d40:	6e09      	ldr	r1, [r1, #96]	@ 0x60
   26d42:	910b      	str	r1, [sp, #44]	@ 0x2c
   26d44:	e019      	b.n	26d7a <_start+0x10e2>
   26d46:	499b      	ldr	r1, [pc, #620]	@ (26fb4 <_start+0x131c>)
   26d48:	4469      	add	r1, sp
   26d4a:	78ca      	ldrb	r2, [r1, #3]
   26d4c:	ab10      	add	r3, sp, #64	@ 0x40
   26d4e:	709a      	strb	r2, [r3, #2]
   26d50:	784a      	ldrb	r2, [r1, #1]
   26d52:	788c      	ldrb	r4, [r1, #2]
   26d54:	0224      	lsls	r4, r4, #8
   26d56:	18a2      	adds	r2, r4, r2
   26d58:	801a      	strh	r2, [r3, #0]
   26d5a:	3108      	adds	r1, #8
   26d5c:	9a0c      	ldr	r2, [sp, #48]	@ 0x30
   26d5e:	6e12      	ldr	r2, [r2, #96]	@ 0x60
   26d60:	920b      	str	r2, [sp, #44]	@ 0x2c
   26d62:	4a95      	ldr	r2, [pc, #596]	@ (26fb8 <_start+0x1320>)
   26d64:	446a      	add	r2, sp
   26d66:	c938      	ldmia	r1!, {r3, r4, r5}
   26d68:	c238      	stmia	r2!, {r3, r4, r5}
   26d6a:	c938      	ldmia	r1!, {r3, r4, r5}
   26d6c:	c238      	stmia	r2!, {r3, r4, r5}
   26d6e:	c938      	ldmia	r1!, {r3, r4, r5}
   26d70:	c238      	stmia	r2!, {r3, r4, r5}
   26d72:	c978      	ldmia	r1!, {r3, r4, r5, r6}
   26d74:	c278      	stmia	r2!, {r3, r4, r5, r6}
   26d76:	7809      	ldrb	r1, [r1, #0]
   26d78:	7011      	strb	r1, [r2, #0]
   26d7a:	2800      	cmp	r0, #0
   26d7c:	d001      	beq.n	26d82 <_start+0x10ea>
   26d7e:	f7ff fb19 	bl	263b4 <_start+0x71c>
   26d82:	acff      	add	r4, sp, #1020	@ 0x3fc
   26d84:	3430      	adds	r4, #48	@ 0x30
   26d86:	990b      	ldr	r1, [sp, #44]	@ 0x2c
   26d88:	70e1      	strb	r1, [r4, #3]
   26d8a:	9810      	ldr	r0, [sp, #64]	@ 0x40
   26d8c:	8020      	strh	r0, [r4, #0]
   26d8e:	0e08      	lsrs	r0, r1, #24
   26d90:	71a0      	strb	r0, [r4, #6]
   26d92:	0c08      	lsrs	r0, r1, #16
   26d94:	7160      	strb	r0, [r4, #5]
   26d96:	0a08      	lsrs	r0, r1, #8
   26d98:	7120      	strb	r0, [r4, #4]
   26d9a:	a810      	add	r0, sp, #64	@ 0x40
   26d9c:	7880      	ldrb	r0, [r0, #2]
   26d9e:	70a0      	strb	r0, [r4, #2]
   26da0:	1de0      	adds	r0, r4, #7
   26da2:	4985      	ldr	r1, [pc, #532]	@ (26fb8 <_start+0x1320>)
   26da4:	4469      	add	r1, sp
   26da6:	2235      	movs	r2, #53	@ 0x35
   26da8:	f002 fbb1 	bl	2950e <__aeabi_memcpy>
   26dac:	4d81      	ldr	r5, [pc, #516]	@ (26fb4 <_start+0x131c>)
   26dae:	446d      	add	r5, sp
   26db0:	4628      	mov	r0, r5
   26db2:	4621      	mov	r1, r4
   26db4:	f7fe fa0a 	bl	251cc <_ZN20complex_full_dynamic3app17he3b7a13fbd286824E>
   26db8:	7828      	ldrb	r0, [r5, #0]
   26dba:	2801      	cmp	r0, #1
   26dbc:	d103      	bne.n	26dc6 <_start+0x112e>
   26dbe:	990c      	ldr	r1, [sp, #48]	@ 0x30
   26dc0:	6e09      	ldr	r1, [r1, #96]	@ 0x60
   26dc2:	910b      	str	r1, [sp, #44]	@ 0x2c
   26dc4:	e019      	b.n	26dfa <_start+0x1162>
   26dc6:	497b      	ldr	r1, [pc, #492]	@ (26fb4 <_start+0x131c>)
   26dc8:	4469      	add	r1, sp
   26dca:	78ca      	ldrb	r2, [r1, #3]
   26dcc:	ab10      	add	r3, sp, #64	@ 0x40
   26dce:	709a      	strb	r2, [r3, #2]
   26dd0:	784a      	ldrb	r2, [r1, #1]
   26dd2:	788c      	ldrb	r4, [r1, #2]
   26dd4:	0224      	lsls	r4, r4, #8
   26dd6:	18a2      	adds	r2, r4, r2
   26dd8:	801a      	strh	r2, [r3, #0]
   26dda:	3108      	adds	r1, #8
   26ddc:	9a0c      	ldr	r2, [sp, #48]	@ 0x30
   26dde:	6e12      	ldr	r2, [r2, #96]	@ 0x60
   26de0:	920b      	str	r2, [sp, #44]	@ 0x2c
   26de2:	4a75      	ldr	r2, [pc, #468]	@ (26fb8 <_start+0x1320>)
   26de4:	446a      	add	r2, sp
   26de6:	c938      	ldmia	r1!, {r3, r4, r5}
   26de8:	c238      	stmia	r2!, {r3, r4, r5}
   26dea:	c938      	ldmia	r1!, {r3, r4, r5}
   26dec:	c238      	stmia	r2!, {r3, r4, r5}
   26dee:	c978      	ldmia	r1!, {r3, r4, r5, r6}
   26df0:	c278      	stmia	r2!, {r3, r4, r5, r6}
   26df2:	880b      	ldrh	r3, [r1, #0]
   26df4:	8013      	strh	r3, [r2, #0]
   26df6:	7889      	ldrb	r1, [r1, #2]
   26df8:	7091      	strb	r1, [r2, #2]
   26dfa:	2800      	cmp	r0, #0
   26dfc:	d001      	beq.n	26e02 <_start+0x116a>
   26dfe:	f7ff fad9 	bl	263b4 <_start+0x71c>
   26e02:	acff      	add	r4, sp, #1020	@ 0x3fc
   26e04:	346c      	adds	r4, #108	@ 0x6c
   26e06:	990b      	ldr	r1, [sp, #44]	@ 0x2c
   26e08:	70e1      	strb	r1, [r4, #3]
   26e0a:	9810      	ldr	r0, [sp, #64]	@ 0x40
   26e0c:	8020      	strh	r0, [r4, #0]
   26e0e:	0e08      	lsrs	r0, r1, #24
   26e10:	71a0      	strb	r0, [r4, #6]
   26e12:	0c08      	lsrs	r0, r1, #16
   26e14:	7160      	strb	r0, [r4, #5]
   26e16:	0a08      	lsrs	r0, r1, #8
   26e18:	7120      	strb	r0, [r4, #4]
   26e1a:	a810      	add	r0, sp, #64	@ 0x40
   26e1c:	7880      	ldrb	r0, [r0, #2]
   26e1e:	70a0      	strb	r0, [r4, #2]
   26e20:	1de0      	adds	r0, r4, #7
   26e22:	4965      	ldr	r1, [pc, #404]	@ (26fb8 <_start+0x1320>)
   26e24:	4469      	add	r1, sp
   26e26:	222b      	movs	r2, #43	@ 0x2b
   26e28:	f002 fb71 	bl	2950e <__aeabi_memcpy>
   26e2c:	4d61      	ldr	r5, [pc, #388]	@ (26fb4 <_start+0x131c>)
   26e2e:	446d      	add	r5, sp
   26e30:	4628      	mov	r0, r5
   26e32:	4621      	mov	r1, r4
   26e34:	f7fe faca 	bl	253cc <_ZN20complex_full_dynamic3app17he70f7c3a2c9134f4E>
   26e38:	7828      	ldrb	r0, [r5, #0]
   26e3a:	2801      	cmp	r0, #1
   26e3c:	d103      	bne.n	26e46 <_start+0x11ae>
   26e3e:	990c      	ldr	r1, [sp, #48]	@ 0x30
   26e40:	6e09      	ldr	r1, [r1, #96]	@ 0x60
   26e42:	910b      	str	r1, [sp, #44]	@ 0x2c
   26e44:	e019      	b.n	26e7a <_start+0x11e2>
   26e46:	495b      	ldr	r1, [pc, #364]	@ (26fb4 <_start+0x131c>)
   26e48:	4469      	add	r1, sp
   26e4a:	78ca      	ldrb	r2, [r1, #3]
   26e4c:	ab10      	add	r3, sp, #64	@ 0x40
   26e4e:	709a      	strb	r2, [r3, #2]
   26e50:	784a      	ldrb	r2, [r1, #1]
   26e52:	788c      	ldrb	r4, [r1, #2]
   26e54:	0224      	lsls	r4, r4, #8
   26e56:	18a2      	adds	r2, r4, r2
   26e58:	801a      	strh	r2, [r3, #0]
   26e5a:	3108      	adds	r1, #8
   26e5c:	9a0c      	ldr	r2, [sp, #48]	@ 0x30
   26e5e:	6e12      	ldr	r2, [r2, #96]	@ 0x60
   26e60:	920b      	str	r2, [sp, #44]	@ 0x2c
   26e62:	4a55      	ldr	r2, [pc, #340]	@ (26fb8 <_start+0x1320>)
   26e64:	446a      	add	r2, sp
   26e66:	c938      	ldmia	r1!, {r3, r4, r5}
   26e68:	c238      	stmia	r2!, {r3, r4, r5}
   26e6a:	c938      	ldmia	r1!, {r3, r4, r5}
   26e6c:	c238      	stmia	r2!, {r3, r4, r5}
   26e6e:	c978      	ldmia	r1!, {r3, r4, r5, r6}
   26e70:	c278      	stmia	r2!, {r3, r4, r5, r6}
   26e72:	880b      	ldrh	r3, [r1, #0]
   26e74:	8013      	strh	r3, [r2, #0]
   26e76:	7889      	ldrb	r1, [r1, #2]
   26e78:	7091      	strb	r1, [r2, #2]
   26e7a:	2800      	cmp	r0, #0
   26e7c:	d001      	beq.n	26e82 <_start+0x11ea>
   26e7e:	f7ff fa99 	bl	263b4 <_start+0x71c>
   26e82:	acff      	add	r4, sp, #1020	@ 0x3fc
   26e84:	34a0      	adds	r4, #160	@ 0xa0
   26e86:	990b      	ldr	r1, [sp, #44]	@ 0x2c
   26e88:	70e1      	strb	r1, [r4, #3]
   26e8a:	9810      	ldr	r0, [sp, #64]	@ 0x40
   26e8c:	8020      	strh	r0, [r4, #0]
   26e8e:	0e08      	lsrs	r0, r1, #24
   26e90:	71a0      	strb	r0, [r4, #6]
   26e92:	0c08      	lsrs	r0, r1, #16
   26e94:	7160      	strb	r0, [r4, #5]
   26e96:	0a08      	lsrs	r0, r1, #8
   26e98:	7120      	strb	r0, [r4, #4]
   26e9a:	a810      	add	r0, sp, #64	@ 0x40
   26e9c:	7880      	ldrb	r0, [r0, #2]
   26e9e:	70a0      	strb	r0, [r4, #2]
   26ea0:	1de0      	adds	r0, r4, #7
   26ea2:	4945      	ldr	r1, [pc, #276]	@ (26fb8 <_start+0x1320>)
   26ea4:	4469      	add	r1, sp
   26ea6:	222b      	movs	r2, #43	@ 0x2b
   26ea8:	f002 fb31 	bl	2950e <__aeabi_memcpy>
   26eac:	4d41      	ldr	r5, [pc, #260]	@ (26fb4 <_start+0x131c>)
   26eae:	446d      	add	r5, sp
   26eb0:	4628      	mov	r0, r5
   26eb2:	4621      	mov	r1, r4
   26eb4:	f7fb fef6 	bl	22ca4 <_ZN20complex_full_dynamic3app17h8362f19dbf42b2eaE>
   26eb8:	7828      	ldrb	r0, [r5, #0]
   26eba:	2801      	cmp	r0, #1
   26ebc:	d102      	bne.n	26ec4 <_start+0x122c>
   26ebe:	990c      	ldr	r1, [sp, #48]	@ 0x30
   26ec0:	6e0e      	ldr	r6, [r1, #96]	@ 0x60
   26ec2:	e012      	b.n	26eea <_start+0x1252>
   26ec4:	493c      	ldr	r1, [pc, #240]	@ (26fb8 <_start+0x1320>)
   26ec6:	4469      	add	r1, sp
   26ec8:	9c0c      	ldr	r4, [sp, #48]	@ 0x30
   26eca:	6ee2      	ldr	r2, [r4, #108]	@ 0x6c
   26ecc:	720a      	strb	r2, [r1, #8]
   26ece:	4939      	ldr	r1, [pc, #228]	@ (26fb4 <_start+0x131c>)
   26ed0:	4469      	add	r1, sp
   26ed2:	78ca      	ldrb	r2, [r1, #3]
   26ed4:	ab10      	add	r3, sp, #64	@ 0x40
   26ed6:	709a      	strb	r2, [r3, #2]
   26ed8:	784a      	ldrb	r2, [r1, #1]
   26eda:	7889      	ldrb	r1, [r1, #2]
   26edc:	0209      	lsls	r1, r1, #8
   26ede:	1889      	adds	r1, r1, r2
   26ee0:	8019      	strh	r1, [r3, #0]
   26ee2:	6e61      	ldr	r1, [r4, #100]	@ 0x64
   26ee4:	6ea2      	ldr	r2, [r4, #104]	@ 0x68
   26ee6:	c406      	stmia	r4!, {r1, r2}
   26ee8:	6da6      	ldr	r6, [r4, #88]	@ 0x58
   26eea:	2800      	cmp	r0, #0
   26eec:	d001      	beq.n	26ef2 <_start+0x125a>
   26eee:	f7ff f8f4 	bl	260da <_start+0x442>
   26ef2:	acff      	add	r4, sp, #1020	@ 0x3fc
   26ef4:	34d4      	adds	r4, #212	@ 0xd4
   26ef6:	70e6      	strb	r6, [r4, #3]
   26ef8:	9810      	ldr	r0, [sp, #64]	@ 0x40
   26efa:	8020      	strh	r0, [r4, #0]
   26efc:	0e30      	lsrs	r0, r6, #24
   26efe:	71a0      	strb	r0, [r4, #6]
   26f00:	0c30      	lsrs	r0, r6, #16
   26f02:	7160      	strb	r0, [r4, #5]
   26f04:	0a30      	lsrs	r0, r6, #8
   26f06:	7120      	strb	r0, [r4, #4]
   26f08:	a810      	add	r0, sp, #64	@ 0x40
   26f0a:	7880      	ldrb	r0, [r0, #2]
   26f0c:	70a0      	strb	r0, [r4, #2]
   26f0e:	1de0      	adds	r0, r4, #7
   26f10:	4929      	ldr	r1, [pc, #164]	@ (26fb8 <_start+0x1320>)
   26f12:	4469      	add	r1, sp
   26f14:	2209      	movs	r2, #9
   26f16:	f002 fafa 	bl	2950e <__aeabi_memcpy>
   26f1a:	4d26      	ldr	r5, [pc, #152]	@ (26fb4 <_start+0x131c>)
   26f1c:	446d      	add	r5, sp
   26f1e:	4628      	mov	r0, r5
   26f20:	4621      	mov	r1, r4
   26f22:	f7fd fde7 	bl	24af4 <_ZN20complex_full_dynamic3app17hd95b4f2ae6821a3eE>
   26f26:	7828      	ldrb	r0, [r5, #0]
   26f28:	2801      	cmp	r0, #1
   26f2a:	d103      	bne.n	26f34 <_start+0x129c>
   26f2c:	990c      	ldr	r1, [sp, #48]	@ 0x30
   26f2e:	6e09      	ldr	r1, [r1, #96]	@ 0x60
   26f30:	910b      	str	r1, [sp, #44]	@ 0x2c
   26f32:	e019      	b.n	26f68 <_start+0x12d0>
   26f34:	491f      	ldr	r1, [pc, #124]	@ (26fb4 <_start+0x131c>)
   26f36:	4469      	add	r1, sp
   26f38:	78ca      	ldrb	r2, [r1, #3]
   26f3a:	ab10      	add	r3, sp, #64	@ 0x40
   26f3c:	709a      	strb	r2, [r3, #2]
   26f3e:	784a      	ldrb	r2, [r1, #1]
   26f40:	788c      	ldrb	r4, [r1, #2]
   26f42:	0224      	lsls	r4, r4, #8
   26f44:	18a2      	adds	r2, r4, r2
   26f46:	801a      	strh	r2, [r3, #0]
   26f48:	3108      	adds	r1, #8
   26f4a:	9a0c      	ldr	r2, [sp, #48]	@ 0x30
   26f4c:	6e12      	ldr	r2, [r2, #96]	@ 0x60
   26f4e:	920b      	str	r2, [sp, #44]	@ 0x2c
   26f50:	4a19      	ldr	r2, [pc, #100]	@ (26fb8 <_start+0x1320>)
   26f52:	446a      	add	r2, sp
   26f54:	c938      	ldmia	r1!, {r3, r4, r5}
   26f56:	c238      	stmia	r2!, {r3, r4, r5}
   26f58:	c978      	ldmia	r1!, {r3, r4, r5, r6}
   26f5a:	c278      	stmia	r2!, {r3, r4, r5, r6}
   26f5c:	c978      	ldmia	r1!, {r3, r4, r5, r6}
   26f5e:	c278      	stmia	r2!, {r3, r4, r5, r6}
   26f60:	880b      	ldrh	r3, [r1, #0]
   26f62:	8013      	strh	r3, [r2, #0]
   26f64:	7889      	ldrb	r1, [r1, #2]
   26f66:	7091      	strb	r1, [r2, #2]
   26f68:	2800      	cmp	r0, #0
   26f6a:	d001      	beq.n	26f70 <_start+0x12d8>
   26f6c:	f7ff fa22 	bl	263b4 <_start+0x71c>
   26f70:	acff      	add	r4, sp, #1020	@ 0x3fc
   26f72:	34e4      	adds	r4, #228	@ 0xe4
   26f74:	990b      	ldr	r1, [sp, #44]	@ 0x2c
   26f76:	70e1      	strb	r1, [r4, #3]
   26f78:	9810      	ldr	r0, [sp, #64]	@ 0x40
   26f7a:	8020      	strh	r0, [r4, #0]
   26f7c:	0e08      	lsrs	r0, r1, #24
   26f7e:	71a0      	strb	r0, [r4, #6]
   26f80:	0c08      	lsrs	r0, r1, #16
   26f82:	7160      	strb	r0, [r4, #5]
   26f84:	0a08      	lsrs	r0, r1, #8
   26f86:	7120      	strb	r0, [r4, #4]
   26f88:	a810      	add	r0, sp, #64	@ 0x40
   26f8a:	7880      	ldrb	r0, [r0, #2]
   26f8c:	70a0      	strb	r0, [r4, #2]
   26f8e:	1de0      	adds	r0, r4, #7
   26f90:	4909      	ldr	r1, [pc, #36]	@ (26fb8 <_start+0x1320>)
   26f92:	4469      	add	r1, sp
   26f94:	222f      	movs	r2, #47	@ 0x2f
   26f96:	f002 faba 	bl	2950e <__aeabi_memcpy>
   26f9a:	4d06      	ldr	r5, [pc, #24]	@ (26fb4 <_start+0x131c>)
   26f9c:	446d      	add	r5, sp
   26f9e:	4628      	mov	r0, r5
   26fa0:	4621      	mov	r1, r4
   26fa2:	f7f9 fc8d 	bl	208c0 <_ZN20complex_full_dynamic3app17h1760e5a28510388bE>
   26fa6:	7829      	ldrb	r1, [r5, #0]
   26fa8:	2901      	cmp	r1, #1
   26faa:	d107      	bne.n	26fbc <_start+0x1324>
   26fac:	980c      	ldr	r0, [sp, #48]	@ 0x30
   26fae:	6e06      	ldr	r6, [r0, #96]	@ 0x60
   26fb0:	e013      	b.n	26fda <_start+0x1342>
   26fb2:	46c0      	nop			@ (mov r8, r8)
   26fb4:	00001414 	.word	0x00001414
   26fb8:	000013b8 	.word	0x000013b8
   26fbc:	48e7      	ldr	r0, [pc, #924]	@ (2735c <_start+0x16c4>)
   26fbe:	4468      	add	r0, sp
   26fc0:	78c2      	ldrb	r2, [r0, #3]
   26fc2:	4be7      	ldr	r3, [pc, #924]	@ (27360 <_start+0x16c8>)
   26fc4:	446b      	add	r3, sp
   26fc6:	709a      	strb	r2, [r3, #2]
   26fc8:	7842      	ldrb	r2, [r0, #1]
   26fca:	7880      	ldrb	r0, [r0, #2]
   26fcc:	0200      	lsls	r0, r0, #8
   26fce:	1880      	adds	r0, r0, r2
   26fd0:	8018      	strh	r0, [r3, #0]
   26fd2:	980c      	ldr	r0, [sp, #48]	@ 0x30
   26fd4:	6e06      	ldr	r6, [r0, #96]	@ 0x60
   26fd6:	6e42      	ldr	r2, [r0, #100]	@ 0x64
   26fd8:	6e80      	ldr	r0, [r0, #104]	@ 0x68
   26fda:	2900      	cmp	r1, #0
   26fdc:	d001      	beq.n	26fe2 <_start+0x134a>
   26fde:	f7ff f87c 	bl	260da <_start+0x442>
   26fe2:	9907      	ldr	r1, [sp, #28]
   26fe4:	1ccb      	adds	r3, r1, #3
   26fe6:	711a      	strb	r2, [r3, #4]
   26fe8:	701e      	strb	r6, [r3, #0]
   26fea:	49de      	ldr	r1, [pc, #888]	@ (27364 <_start+0x16cc>)
   26fec:	4469      	add	r1, sp
   26fee:	9c0c      	ldr	r4, [sp, #48]	@ 0x30
   26ff0:	6824      	ldr	r4, [r4, #0]
   26ff2:	800c      	strh	r4, [r1, #0]
   26ff4:	7218      	strb	r0, [r3, #8]
   26ff6:	0e14      	lsrs	r4, r2, #24
   26ff8:	71dc      	strb	r4, [r3, #7]
   26ffa:	0c14      	lsrs	r4, r2, #16
   26ffc:	719c      	strb	r4, [r3, #6]
   26ffe:	0a12      	lsrs	r2, r2, #8
   27000:	715a      	strb	r2, [r3, #5]
   27002:	0e32      	lsrs	r2, r6, #24
   27004:	70da      	strb	r2, [r3, #3]
   27006:	0c32      	lsrs	r2, r6, #16
   27008:	709a      	strb	r2, [r3, #2]
   2700a:	0a32      	lsrs	r2, r6, #8
   2700c:	705a      	strb	r2, [r3, #1]
   2700e:	4af6      	ldr	r2, [pc, #984]	@ (273e8 <_start+0x1750>)
   27010:	446a      	add	r2, sp
   27012:	7892      	ldrb	r2, [r2, #2]
   27014:	708a      	strb	r2, [r1, #2]
   27016:	0e02      	lsrs	r2, r0, #24
   27018:	72da      	strb	r2, [r3, #11]
   2701a:	0c02      	lsrs	r2, r0, #16
   2701c:	729a      	strb	r2, [r3, #10]
   2701e:	0a00      	lsrs	r0, r0, #8
   27020:	7258      	strb	r0, [r3, #9]
   27022:	4cf0      	ldr	r4, [pc, #960]	@ (273e4 <_start+0x174c>)
   27024:	446c      	add	r4, sp
   27026:	4620      	mov	r0, r4
   27028:	f7fa fb92 	bl	21750 <_ZN20complex_full_dynamic3app17h49a50401eac92daeE>
   2702c:	7820      	ldrb	r0, [r4, #0]
   2702e:	2801      	cmp	r0, #1
   27030:	d102      	bne.n	27038 <_start+0x13a0>
   27032:	990c      	ldr	r1, [sp, #48]	@ 0x30
   27034:	6e0e      	ldr	r6, [r1, #96]	@ 0x60
   27036:	e00f      	b.n	27058 <_start+0x13c0>
   27038:	49ea      	ldr	r1, [pc, #936]	@ (273e4 <_start+0x174c>)
   2703a:	4469      	add	r1, sp
   2703c:	78ca      	ldrb	r2, [r1, #3]
   2703e:	ab10      	add	r3, sp, #64	@ 0x40
   27040:	709a      	strb	r2, [r3, #2]
   27042:	784a      	ldrb	r2, [r1, #1]
   27044:	7889      	ldrb	r1, [r1, #2]
   27046:	0209      	lsls	r1, r1, #8
   27048:	1889      	adds	r1, r1, r2
   2704a:	8019      	strh	r1, [r3, #0]
   2704c:	9c0c      	ldr	r4, [sp, #48]	@ 0x30
   2704e:	6e26      	ldr	r6, [r4, #96]	@ 0x60
   27050:	4623      	mov	r3, r4
   27052:	3364      	adds	r3, #100	@ 0x64
   27054:	cb0e      	ldmia	r3, {r1, r2, r3}
   27056:	c40e      	stmia	r4!, {r1, r2, r3}
   27058:	2800      	cmp	r0, #0
   2705a:	d001      	beq.n	27060 <_start+0x13c8>
   2705c:	f7ff f83d 	bl	260da <_start+0x442>
   27060:	4ce2      	ldr	r4, [pc, #904]	@ (273ec <_start+0x1754>)
   27062:	446c      	add	r4, sp
   27064:	70e6      	strb	r6, [r4, #3]
   27066:	9810      	ldr	r0, [sp, #64]	@ 0x40
   27068:	8020      	strh	r0, [r4, #0]
   2706a:	0e30      	lsrs	r0, r6, #24
   2706c:	71a0      	strb	r0, [r4, #6]
   2706e:	0c30      	lsrs	r0, r6, #16
   27070:	7160      	strb	r0, [r4, #5]
   27072:	0a30      	lsrs	r0, r6, #8
   27074:	7120      	strb	r0, [r4, #4]
   27076:	a810      	add	r0, sp, #64	@ 0x40
   27078:	7880      	ldrb	r0, [r0, #2]
   2707a:	70a0      	strb	r0, [r4, #2]
   2707c:	1de0      	adds	r0, r4, #7
   2707e:	49da      	ldr	r1, [pc, #872]	@ (273e8 <_start+0x1750>)
   27080:	4469      	add	r1, sp
   27082:	220c      	movs	r2, #12
   27084:	f002 fa43 	bl	2950e <__aeabi_memcpy>
   27088:	4dd6      	ldr	r5, [pc, #856]	@ (273e4 <_start+0x174c>)
   2708a:	446d      	add	r5, sp
   2708c:	4628      	mov	r0, r5
   2708e:	4621      	mov	r1, r4
   27090:	f7fe fc08 	bl	258a4 <_ZN20complex_full_dynamic3app17hf8c92e1c36491510E>
   27094:	782c      	ldrb	r4, [r5, #0]
   27096:	2c01      	cmp	r4, #1
   27098:	d102      	bne.n	270a0 <_start+0x1408>
   2709a:	980c      	ldr	r0, [sp, #48]	@ 0x30
   2709c:	6e06      	ldr	r6, [r0, #96]	@ 0x60
   2709e:	e011      	b.n	270c4 <_start+0x142c>
   270a0:	49d0      	ldr	r1, [pc, #832]	@ (273e4 <_start+0x174c>)
   270a2:	4469      	add	r1, sp
   270a4:	78c8      	ldrb	r0, [r1, #3]
   270a6:	aa10      	add	r2, sp, #64	@ 0x40
   270a8:	7090      	strb	r0, [r2, #2]
   270aa:	7848      	ldrb	r0, [r1, #1]
   270ac:	788b      	ldrb	r3, [r1, #2]
   270ae:	021b      	lsls	r3, r3, #8
   270b0:	1818      	adds	r0, r3, r0
   270b2:	8010      	strh	r0, [r2, #0]
   270b4:	980c      	ldr	r0, [sp, #48]	@ 0x30
   270b6:	6e06      	ldr	r6, [r0, #96]	@ 0x60
   270b8:	3108      	adds	r1, #8
   270ba:	48cb      	ldr	r0, [pc, #812]	@ (273e8 <_start+0x1750>)
   270bc:	4468      	add	r0, sp
   270be:	224e      	movs	r2, #78	@ 0x4e
   270c0:	f002 f8c5 	bl	2924e <__aeabi_memcpy4>
   270c4:	2c00      	cmp	r4, #0
   270c6:	d001      	beq.n	270cc <_start+0x1434>
   270c8:	f7ff f807 	bl	260da <_start+0x442>
   270cc:	4cc8      	ldr	r4, [pc, #800]	@ (273f0 <_start+0x1758>)
   270ce:	446c      	add	r4, sp
   270d0:	70e6      	strb	r6, [r4, #3]
   270d2:	9810      	ldr	r0, [sp, #64]	@ 0x40
   270d4:	8020      	strh	r0, [r4, #0]
   270d6:	0e30      	lsrs	r0, r6, #24
   270d8:	71a0      	strb	r0, [r4, #6]
   270da:	0c30      	lsrs	r0, r6, #16
   270dc:	7160      	strb	r0, [r4, #5]
   270de:	0a30      	lsrs	r0, r6, #8
   270e0:	7120      	strb	r0, [r4, #4]
   270e2:	a810      	add	r0, sp, #64	@ 0x40
   270e4:	7880      	ldrb	r0, [r0, #2]
   270e6:	70a0      	strb	r0, [r4, #2]
   270e8:	1de0      	adds	r0, r4, #7
   270ea:	49bf      	ldr	r1, [pc, #764]	@ (273e8 <_start+0x1750>)
   270ec:	4469      	add	r1, sp
   270ee:	224e      	movs	r2, #78	@ 0x4e
   270f0:	f002 fa0d 	bl	2950e <__aeabi_memcpy>
   270f4:	4dbb      	ldr	r5, [pc, #748]	@ (273e4 <_start+0x174c>)
   270f6:	446d      	add	r5, sp
   270f8:	4628      	mov	r0, r5
   270fa:	4621      	mov	r1, r4
   270fc:	f7fc f9ba 	bl	23474 <_ZN20complex_full_dynamic3app17h98862059f184e671E>
   27100:	7828      	ldrb	r0, [r5, #0]
   27102:	2801      	cmp	r0, #1
   27104:	d103      	bne.n	2710e <_start+0x1476>
   27106:	990c      	ldr	r1, [sp, #48]	@ 0x30
   27108:	6e09      	ldr	r1, [r1, #96]	@ 0x60
   2710a:	910b      	str	r1, [sp, #44]	@ 0x2c
   2710c:	e019      	b.n	27142 <_start+0x14aa>
   2710e:	49b5      	ldr	r1, [pc, #724]	@ (273e4 <_start+0x174c>)
   27110:	4469      	add	r1, sp
   27112:	78ca      	ldrb	r2, [r1, #3]
   27114:	ab10      	add	r3, sp, #64	@ 0x40
   27116:	709a      	strb	r2, [r3, #2]
   27118:	784a      	ldrb	r2, [r1, #1]
   2711a:	788c      	ldrb	r4, [r1, #2]
   2711c:	0224      	lsls	r4, r4, #8
   2711e:	18a2      	adds	r2, r4, r2
   27120:	801a      	strh	r2, [r3, #0]
   27122:	3108      	adds	r1, #8
   27124:	9a0c      	ldr	r2, [sp, #48]	@ 0x30
   27126:	6e12      	ldr	r2, [r2, #96]	@ 0x60
   27128:	920b      	str	r2, [sp, #44]	@ 0x2c
   2712a:	4aaf      	ldr	r2, [pc, #700]	@ (273e8 <_start+0x1750>)
   2712c:	446a      	add	r2, sp
   2712e:	c938      	ldmia	r1!, {r3, r4, r5}
   27130:	c238      	stmia	r2!, {r3, r4, r5}
   27132:	c938      	ldmia	r1!, {r3, r4, r5}
   27134:	c238      	stmia	r2!, {r3, r4, r5}
   27136:	c978      	ldmia	r1!, {r3, r4, r5, r6}
   27138:	c278      	stmia	r2!, {r3, r4, r5, r6}
   2713a:	880b      	ldrh	r3, [r1, #0]
   2713c:	8013      	strh	r3, [r2, #0]
   2713e:	7889      	ldrb	r1, [r1, #2]
   27140:	7091      	strb	r1, [r2, #2]
   27142:	2800      	cmp	r0, #0
   27144:	d001      	beq.n	2714a <_start+0x14b2>
   27146:	f7ff f935 	bl	263b4 <_start+0x71c>
   2714a:	4caa      	ldr	r4, [pc, #680]	@ (273f4 <_start+0x175c>)
   2714c:	446c      	add	r4, sp
   2714e:	990b      	ldr	r1, [sp, #44]	@ 0x2c
   27150:	70e1      	strb	r1, [r4, #3]
   27152:	9810      	ldr	r0, [sp, #64]	@ 0x40
   27154:	8020      	strh	r0, [r4, #0]
   27156:	0e08      	lsrs	r0, r1, #24
   27158:	71a0      	strb	r0, [r4, #6]
   2715a:	0c08      	lsrs	r0, r1, #16
   2715c:	7160      	strb	r0, [r4, #5]
   2715e:	0a08      	lsrs	r0, r1, #8
   27160:	7120      	strb	r0, [r4, #4]
   27162:	a810      	add	r0, sp, #64	@ 0x40
   27164:	7880      	ldrb	r0, [r0, #2]
   27166:	70a0      	strb	r0, [r4, #2]
   27168:	1de0      	adds	r0, r4, #7
   2716a:	499f      	ldr	r1, [pc, #636]	@ (273e8 <_start+0x1750>)
   2716c:	4469      	add	r1, sp
   2716e:	222b      	movs	r2, #43	@ 0x2b
   27170:	f002 f9cd 	bl	2950e <__aeabi_memcpy>
   27174:	4d9b      	ldr	r5, [pc, #620]	@ (273e4 <_start+0x174c>)
   27176:	446d      	add	r5, sp
   27178:	4628      	mov	r0, r5
   2717a:	4621      	mov	r1, r4
   2717c:	f7fd f8da 	bl	24334 <_ZN20complex_full_dynamic3app17hb8c1ba39999c01bbE>
   27180:	7828      	ldrb	r0, [r5, #0]
   27182:	2801      	cmp	r0, #1
   27184:	d103      	bne.n	2718e <_start+0x14f6>
   27186:	990c      	ldr	r1, [sp, #48]	@ 0x30
   27188:	6e09      	ldr	r1, [r1, #96]	@ 0x60
   2718a:	910b      	str	r1, [sp, #44]	@ 0x2c
   2718c:	e019      	b.n	271c2 <_start+0x152a>
   2718e:	4995      	ldr	r1, [pc, #596]	@ (273e4 <_start+0x174c>)
   27190:	4469      	add	r1, sp
   27192:	78ca      	ldrb	r2, [r1, #3]
   27194:	ab10      	add	r3, sp, #64	@ 0x40
   27196:	709a      	strb	r2, [r3, #2]
   27198:	784a      	ldrb	r2, [r1, #1]
   2719a:	788c      	ldrb	r4, [r1, #2]
   2719c:	0224      	lsls	r4, r4, #8
   2719e:	18a2      	adds	r2, r4, r2
   271a0:	801a      	strh	r2, [r3, #0]
   271a2:	3108      	adds	r1, #8
   271a4:	9a0c      	ldr	r2, [sp, #48]	@ 0x30
   271a6:	6e12      	ldr	r2, [r2, #96]	@ 0x60
   271a8:	920b      	str	r2, [sp, #44]	@ 0x2c
   271aa:	4a8f      	ldr	r2, [pc, #572]	@ (273e8 <_start+0x1750>)
   271ac:	446a      	add	r2, sp
   271ae:	c938      	ldmia	r1!, {r3, r4, r5}
   271b0:	c238      	stmia	r2!, {r3, r4, r5}
   271b2:	c978      	ldmia	r1!, {r3, r4, r5, r6}
   271b4:	c278      	stmia	r2!, {r3, r4, r5, r6}
   271b6:	c938      	ldmia	r1!, {r3, r4, r5}
   271b8:	c238      	stmia	r2!, {r3, r4, r5}
   271ba:	c978      	ldmia	r1!, {r3, r4, r5, r6}
   271bc:	c278      	stmia	r2!, {r3, r4, r5, r6}
   271be:	8809      	ldrh	r1, [r1, #0]
   271c0:	8011      	strh	r1, [r2, #0]
   271c2:	2800      	cmp	r0, #0
   271c4:	d001      	beq.n	271ca <_start+0x1532>
   271c6:	f7ff f8f5 	bl	263b4 <_start+0x71c>
   271ca:	4c8b      	ldr	r4, [pc, #556]	@ (273f8 <_start+0x1760>)
   271cc:	446c      	add	r4, sp
   271ce:	990b      	ldr	r1, [sp, #44]	@ 0x2c
   271d0:	70e1      	strb	r1, [r4, #3]
   271d2:	9810      	ldr	r0, [sp, #64]	@ 0x40
   271d4:	8020      	strh	r0, [r4, #0]
   271d6:	0e08      	lsrs	r0, r1, #24
   271d8:	71a0      	strb	r0, [r4, #6]
   271da:	0c08      	lsrs	r0, r1, #16
   271dc:	7160      	strb	r0, [r4, #5]
   271de:	0a08      	lsrs	r0, r1, #8
   271e0:	7120      	strb	r0, [r4, #4]
   271e2:	a810      	add	r0, sp, #64	@ 0x40
   271e4:	7880      	ldrb	r0, [r0, #2]
   271e6:	70a0      	strb	r0, [r4, #2]
   271e8:	1de0      	adds	r0, r4, #7
   271ea:	497f      	ldr	r1, [pc, #508]	@ (273e8 <_start+0x1750>)
   271ec:	4469      	add	r1, sp
   271ee:	223a      	movs	r2, #58	@ 0x3a
   271f0:	f002 f98d 	bl	2950e <__aeabi_memcpy>
   271f4:	4d7b      	ldr	r5, [pc, #492]	@ (273e4 <_start+0x174c>)
   271f6:	446d      	add	r5, sp
   271f8:	4628      	mov	r0, r5
   271fa:	4621      	mov	r1, r4
   271fc:	f7fc fcac 	bl	23b58 <_ZN20complex_full_dynamic3app17h9f84fee001fd1716E>
   27200:	7828      	ldrb	r0, [r5, #0]
   27202:	2801      	cmp	r0, #1
   27204:	d102      	bne.n	2720c <_start+0x1574>
   27206:	990c      	ldr	r1, [sp, #48]	@ 0x30
   27208:	6e0e      	ldr	r6, [r1, #96]	@ 0x60
   2720a:	e016      	b.n	2723a <_start+0x15a2>
   2720c:	4975      	ldr	r1, [pc, #468]	@ (273e4 <_start+0x174c>)
   2720e:	4469      	add	r1, sp
   27210:	78ca      	ldrb	r2, [r1, #3]
   27212:	ab10      	add	r3, sp, #64	@ 0x40
   27214:	709a      	strb	r2, [r3, #2]
   27216:	784a      	ldrb	r2, [r1, #1]
   27218:	788c      	ldrb	r4, [r1, #2]
   2721a:	0224      	lsls	r4, r4, #8
   2721c:	18a2      	adds	r2, r4, r2
   2721e:	801a      	strh	r2, [r3, #0]
   27220:	3108      	adds	r1, #8
   27222:	9a0c      	ldr	r2, [sp, #48]	@ 0x30
   27224:	6e16      	ldr	r6, [r2, #96]	@ 0x60
   27226:	4a70      	ldr	r2, [pc, #448]	@ (273e8 <_start+0x1750>)
   27228:	446a      	add	r2, sp
   2722a:	c938      	ldmia	r1!, {r3, r4, r5}
   2722c:	c238      	stmia	r2!, {r3, r4, r5}
   2722e:	c938      	ldmia	r1!, {r3, r4, r5}
   27230:	c238      	stmia	r2!, {r3, r4, r5}
   27232:	880b      	ldrh	r3, [r1, #0]
   27234:	8013      	strh	r3, [r2, #0]
   27236:	7889      	ldrb	r1, [r1, #2]
   27238:	7091      	strb	r1, [r2, #2]
   2723a:	2800      	cmp	r0, #0
   2723c:	d001      	beq.n	27242 <_start+0x15aa>
   2723e:	f7fe ff4c 	bl	260da <_start+0x442>
   27242:	4c6e      	ldr	r4, [pc, #440]	@ (273fc <_start+0x1764>)
   27244:	446c      	add	r4, sp
   27246:	70e6      	strb	r6, [r4, #3]
   27248:	9810      	ldr	r0, [sp, #64]	@ 0x40
   2724a:	8020      	strh	r0, [r4, #0]
   2724c:	0e30      	lsrs	r0, r6, #24
   2724e:	71a0      	strb	r0, [r4, #6]
   27250:	0c30      	lsrs	r0, r6, #16
   27252:	7160      	strb	r0, [r4, #5]
   27254:	0a30      	lsrs	r0, r6, #8
   27256:	7120      	strb	r0, [r4, #4]
   27258:	a810      	add	r0, sp, #64	@ 0x40
   2725a:	7880      	ldrb	r0, [r0, #2]
   2725c:	70a0      	strb	r0, [r4, #2]
   2725e:	1de0      	adds	r0, r4, #7
   27260:	4961      	ldr	r1, [pc, #388]	@ (273e8 <_start+0x1750>)
   27262:	4469      	add	r1, sp
   27264:	221b      	movs	r2, #27
   27266:	f002 f952 	bl	2950e <__aeabi_memcpy>
   2726a:	4d5e      	ldr	r5, [pc, #376]	@ (273e4 <_start+0x174c>)
   2726c:	446d      	add	r5, sp
   2726e:	4628      	mov	r0, r5
   27270:	4621      	mov	r1, r4
   27272:	f7fb f8b9 	bl	223e8 <_ZN20complex_full_dynamic3app17h649a6edd028050b4E>
   27276:	782c      	ldrb	r4, [r5, #0]
   27278:	2c01      	cmp	r4, #1
   2727a:	d102      	bne.n	27282 <_start+0x15ea>
   2727c:	980c      	ldr	r0, [sp, #48]	@ 0x30
   2727e:	6e06      	ldr	r6, [r0, #96]	@ 0x60
   27280:	e011      	b.n	272a6 <_start+0x160e>
   27282:	4958      	ldr	r1, [pc, #352]	@ (273e4 <_start+0x174c>)
   27284:	4469      	add	r1, sp
   27286:	78c8      	ldrb	r0, [r1, #3]
   27288:	aa10      	add	r2, sp, #64	@ 0x40
   2728a:	7090      	strb	r0, [r2, #2]
   2728c:	7848      	ldrb	r0, [r1, #1]
   2728e:	788b      	ldrb	r3, [r1, #2]
   27290:	021b      	lsls	r3, r3, #8
   27292:	1818      	adds	r0, r3, r0
   27294:	8010      	strh	r0, [r2, #0]
   27296:	980c      	ldr	r0, [sp, #48]	@ 0x30
   27298:	6e06      	ldr	r6, [r0, #96]	@ 0x60
   2729a:	3108      	adds	r1, #8
   2729c:	4852      	ldr	r0, [pc, #328]	@ (273e8 <_start+0x1750>)
   2729e:	4468      	add	r0, sp
   272a0:	224a      	movs	r2, #74	@ 0x4a
   272a2:	f001 ffd4 	bl	2924e <__aeabi_memcpy4>
   272a6:	2c00      	cmp	r4, #0
   272a8:	d001      	beq.n	272ae <_start+0x1616>
   272aa:	f7fe ff16 	bl	260da <_start+0x442>
   272ae:	4c54      	ldr	r4, [pc, #336]	@ (27400 <_start+0x1768>)
   272b0:	446c      	add	r4, sp
   272b2:	70e6      	strb	r6, [r4, #3]
   272b4:	9810      	ldr	r0, [sp, #64]	@ 0x40
   272b6:	8020      	strh	r0, [r4, #0]
   272b8:	0e30      	lsrs	r0, r6, #24
   272ba:	71a0      	strb	r0, [r4, #6]
   272bc:	0c30      	lsrs	r0, r6, #16
   272be:	7160      	strb	r0, [r4, #5]
   272c0:	0a30      	lsrs	r0, r6, #8
   272c2:	7120      	strb	r0, [r4, #4]
   272c4:	a810      	add	r0, sp, #64	@ 0x40
   272c6:	7880      	ldrb	r0, [r0, #2]
   272c8:	70a0      	strb	r0, [r4, #2]
   272ca:	1de0      	adds	r0, r4, #7
   272cc:	4946      	ldr	r1, [pc, #280]	@ (273e8 <_start+0x1750>)
   272ce:	4469      	add	r1, sp
   272d0:	224a      	movs	r2, #74	@ 0x4a
   272d2:	f002 f91c 	bl	2950e <__aeabi_memcpy>
   272d6:	4d43      	ldr	r5, [pc, #268]	@ (273e4 <_start+0x174c>)
   272d8:	446d      	add	r5, sp
   272da:	4628      	mov	r0, r5
   272dc:	4621      	mov	r1, r4
   272de:	f7f9 fb6b 	bl	209b8 <_ZN20complex_full_dynamic3app17h1c6e43ee1503d0a3E>
   272e2:	782c      	ldrb	r4, [r5, #0]
   272e4:	2c01      	cmp	r4, #1
   272e6:	d102      	bne.n	272ee <_start+0x1656>
   272e8:	980c      	ldr	r0, [sp, #48]	@ 0x30
   272ea:	6e06      	ldr	r6, [r0, #96]	@ 0x60
   272ec:	e011      	b.n	27312 <_start+0x167a>
   272ee:	493d      	ldr	r1, [pc, #244]	@ (273e4 <_start+0x174c>)
   272f0:	4469      	add	r1, sp
   272f2:	78c8      	ldrb	r0, [r1, #3]
   272f4:	aa10      	add	r2, sp, #64	@ 0x40
   272f6:	7090      	strb	r0, [r2, #2]
   272f8:	7848      	ldrb	r0, [r1, #1]
   272fa:	788b      	ldrb	r3, [r1, #2]
   272fc:	021b      	lsls	r3, r3, #8
   272fe:	1818      	adds	r0, r3, r0
   27300:	8010      	strh	r0, [r2, #0]
   27302:	980c      	ldr	r0, [sp, #48]	@ 0x30
   27304:	6e06      	ldr	r6, [r0, #96]	@ 0x60
   27306:	3108      	adds	r1, #8
   27308:	4837      	ldr	r0, [pc, #220]	@ (273e8 <_start+0x1750>)
   2730a:	4468      	add	r0, sp
   2730c:	2248      	movs	r2, #72	@ 0x48
   2730e:	f001 ff9e 	bl	2924e <__aeabi_memcpy4>
   27312:	2c00      	cmp	r4, #0
   27314:	d001      	beq.n	2731a <_start+0x1682>
   27316:	f7fe fee0 	bl	260da <_start+0x442>
   2731a:	4c3a      	ldr	r4, [pc, #232]	@ (27404 <_start+0x176c>)
   2731c:	446c      	add	r4, sp
   2731e:	70e6      	strb	r6, [r4, #3]
   27320:	9810      	ldr	r0, [sp, #64]	@ 0x40
   27322:	8020      	strh	r0, [r4, #0]
   27324:	0e30      	lsrs	r0, r6, #24
   27326:	71a0      	strb	r0, [r4, #6]
   27328:	0c30      	lsrs	r0, r6, #16
   2732a:	7160      	strb	r0, [r4, #5]
   2732c:	0a30      	lsrs	r0, r6, #8
   2732e:	7120      	strb	r0, [r4, #4]
   27330:	a810      	add	r0, sp, #64	@ 0x40
   27332:	7880      	ldrb	r0, [r0, #2]
   27334:	70a0      	strb	r0, [r4, #2]
   27336:	1de0      	adds	r0, r4, #7
   27338:	492b      	ldr	r1, [pc, #172]	@ (273e8 <_start+0x1750>)
   2733a:	4469      	add	r1, sp
   2733c:	2248      	movs	r2, #72	@ 0x48
   2733e:	f002 f8e6 	bl	2950e <__aeabi_memcpy>
   27342:	4d28      	ldr	r5, [pc, #160]	@ (273e4 <_start+0x174c>)
   27344:	446d      	add	r5, sp
   27346:	4628      	mov	r0, r5
   27348:	4621      	mov	r1, r4
   2734a:	f7fa f80d 	bl	21368 <_ZN20complex_full_dynamic3app17h3f9de50ec26f129cE>
   2734e:	7828      	ldrb	r0, [r5, #0]
   27350:	2801      	cmp	r0, #1
   27352:	d109      	bne.n	27368 <_start+0x16d0>
   27354:	990c      	ldr	r1, [sp, #48]	@ 0x30
   27356:	6e09      	ldr	r1, [r1, #96]	@ 0x60
   27358:	910b      	str	r1, [sp, #44]	@ 0x2c
   2735a:	e01d      	b.n	27398 <_start+0x1700>
   2735c:	00001414 	.word	0x00001414
   27360:	000013b8 	.word	0x000013b8
   27364:	00000518 	.word	0x00000518
   27368:	491e      	ldr	r1, [pc, #120]	@ (273e4 <_start+0x174c>)
   2736a:	4469      	add	r1, sp
   2736c:	78ca      	ldrb	r2, [r1, #3]
   2736e:	ab10      	add	r3, sp, #64	@ 0x40
   27370:	709a      	strb	r2, [r3, #2]
   27372:	784a      	ldrb	r2, [r1, #1]
   27374:	788c      	ldrb	r4, [r1, #2]
   27376:	0224      	lsls	r4, r4, #8
   27378:	18a2      	adds	r2, r4, r2
   2737a:	801a      	strh	r2, [r3, #0]
   2737c:	3108      	adds	r1, #8
   2737e:	9a0c      	ldr	r2, [sp, #48]	@ 0x30
   27380:	6e12      	ldr	r2, [r2, #96]	@ 0x60
   27382:	920b      	str	r2, [sp, #44]	@ 0x2c
   27384:	4a18      	ldr	r2, [pc, #96]	@ (273e8 <_start+0x1750>)
   27386:	446a      	add	r2, sp
   27388:	c938      	ldmia	r1!, {r3, r4, r5}
   2738a:	c238      	stmia	r2!, {r3, r4, r5}
   2738c:	c938      	ldmia	r1!, {r3, r4, r5}
   2738e:	c238      	stmia	r2!, {r3, r4, r5}
   27390:	c938      	ldmia	r1!, {r3, r4, r5}
   27392:	c238      	stmia	r2!, {r3, r4, r5}
   27394:	c978      	ldmia	r1!, {r3, r4, r5, r6}
   27396:	c278      	stmia	r2!, {r3, r4, r5, r6}
   27398:	2800      	cmp	r0, #0
   2739a:	d001      	beq.n	273a0 <_start+0x1708>
   2739c:	f7ff f80a 	bl	263b4 <_start+0x71c>
   273a0:	4c19      	ldr	r4, [pc, #100]	@ (27408 <_start+0x1770>)
   273a2:	446c      	add	r4, sp
   273a4:	990b      	ldr	r1, [sp, #44]	@ 0x2c
   273a6:	70e1      	strb	r1, [r4, #3]
   273a8:	9810      	ldr	r0, [sp, #64]	@ 0x40
   273aa:	8020      	strh	r0, [r4, #0]
   273ac:	0e08      	lsrs	r0, r1, #24
   273ae:	71a0      	strb	r0, [r4, #6]
   273b0:	0c08      	lsrs	r0, r1, #16
   273b2:	7160      	strb	r0, [r4, #5]
   273b4:	0a08      	lsrs	r0, r1, #8
   273b6:	7120      	strb	r0, [r4, #4]
   273b8:	a810      	add	r0, sp, #64	@ 0x40
   273ba:	7880      	ldrb	r0, [r0, #2]
   273bc:	70a0      	strb	r0, [r4, #2]
   273be:	1de0      	adds	r0, r4, #7
   273c0:	4909      	ldr	r1, [pc, #36]	@ (273e8 <_start+0x1750>)
   273c2:	4469      	add	r1, sp
   273c4:	2234      	movs	r2, #52	@ 0x34
   273c6:	f002 f8a2 	bl	2950e <__aeabi_memcpy>
   273ca:	4d06      	ldr	r5, [pc, #24]	@ (273e4 <_start+0x174c>)
   273cc:	446d      	add	r5, sp
   273ce:	4628      	mov	r0, r5
   273d0:	4621      	mov	r1, r4
   273d2:	f7fa fc9f 	bl	21d14 <_ZN20complex_full_dynamic3app17h533b064de4696741E>
   273d6:	7828      	ldrb	r0, [r5, #0]
   273d8:	2801      	cmp	r0, #1
   273da:	d117      	bne.n	2740c <_start+0x1774>
   273dc:	990c      	ldr	r1, [sp, #48]	@ 0x30
   273de:	6e09      	ldr	r1, [r1, #96]	@ 0x60
   273e0:	910b      	str	r1, [sp, #44]	@ 0x2c
   273e2:	e027      	b.n	27434 <_start+0x179c>
   273e4:	00001414 	.word	0x00001414
   273e8:	000013b8 	.word	0x000013b8
   273ec:	00000528 	.word	0x00000528
   273f0:	0000053c 	.word	0x0000053c
   273f4:	00000594 	.word	0x00000594
   273f8:	000005c8 	.word	0x000005c8
   273fc:	0000060c 	.word	0x0000060c
   27400:	00000630 	.word	0x00000630
   27404:	00000684 	.word	0x00000684
   27408:	000006d4 	.word	0x000006d4
   2740c:	49e8      	ldr	r1, [pc, #928]	@ (277b0 <_start+0x1b18>)
   2740e:	4469      	add	r1, sp
   27410:	78ca      	ldrb	r2, [r1, #3]
   27412:	ab10      	add	r3, sp, #64	@ 0x40
   27414:	709a      	strb	r2, [r3, #2]
   27416:	784a      	ldrb	r2, [r1, #1]
   27418:	788c      	ldrb	r4, [r1, #2]
   2741a:	0224      	lsls	r4, r4, #8
   2741c:	18a2      	adds	r2, r4, r2
   2741e:	801a      	strh	r2, [r3, #0]
   27420:	3108      	adds	r1, #8
   27422:	9a0c      	ldr	r2, [sp, #48]	@ 0x30
   27424:	6e12      	ldr	r2, [r2, #96]	@ 0x60
   27426:	920b      	str	r2, [sp, #44]	@ 0x2c
   27428:	4ae2      	ldr	r2, [pc, #904]	@ (277b4 <_start+0x1b1c>)
   2742a:	446a      	add	r2, sp
   2742c:	c978      	ldmia	r1!, {r3, r4, r5, r6}
   2742e:	c278      	stmia	r2!, {r3, r4, r5, r6}
   27430:	c978      	ldmia	r1!, {r3, r4, r5, r6}
   27432:	c278      	stmia	r2!, {r3, r4, r5, r6}
   27434:	2800      	cmp	r0, #0
   27436:	d001      	beq.n	2743c <_start+0x17a4>
   27438:	f7fe ffbc 	bl	263b4 <_start+0x71c>
   2743c:	4cfc      	ldr	r4, [pc, #1008]	@ (27830 <_start+0x1b98>)
   2743e:	446c      	add	r4, sp
   27440:	990b      	ldr	r1, [sp, #44]	@ 0x2c
   27442:	70e1      	strb	r1, [r4, #3]
   27444:	9810      	ldr	r0, [sp, #64]	@ 0x40
   27446:	8020      	strh	r0, [r4, #0]
   27448:	0e08      	lsrs	r0, r1, #24
   2744a:	71a0      	strb	r0, [r4, #6]
   2744c:	0c08      	lsrs	r0, r1, #16
   2744e:	7160      	strb	r0, [r4, #5]
   27450:	0a08      	lsrs	r0, r1, #8
   27452:	7120      	strb	r0, [r4, #4]
   27454:	a810      	add	r0, sp, #64	@ 0x40
   27456:	7880      	ldrb	r0, [r0, #2]
   27458:	70a0      	strb	r0, [r4, #2]
   2745a:	1de0      	adds	r0, r4, #7
   2745c:	49f3      	ldr	r1, [pc, #972]	@ (2782c <_start+0x1b94>)
   2745e:	4469      	add	r1, sp
   27460:	2220      	movs	r2, #32
   27462:	f002 f854 	bl	2950e <__aeabi_memcpy>
   27466:	4df0      	ldr	r5, [pc, #960]	@ (27828 <_start+0x1b90>)
   27468:	446d      	add	r5, sp
   2746a:	4628      	mov	r0, r5
   2746c:	4621      	mov	r1, r4
   2746e:	f7fb f8b1 	bl	225d4 <_ZN20complex_full_dynamic3app17h692c8413634e7b6aE>
   27472:	7828      	ldrb	r0, [r5, #0]
   27474:	2801      	cmp	r0, #1
   27476:	d102      	bne.n	2747e <_start+0x17e6>
   27478:	990c      	ldr	r1, [sp, #48]	@ 0x30
   2747a:	6e0e      	ldr	r6, [r1, #96]	@ 0x60
   2747c:	e013      	b.n	274a6 <_start+0x180e>
   2747e:	49eb      	ldr	r1, [pc, #940]	@ (2782c <_start+0x1b94>)
   27480:	4469      	add	r1, sp
   27482:	9c0c      	ldr	r4, [sp, #48]	@ 0x30
   27484:	6f22      	ldr	r2, [r4, #112]	@ 0x70
   27486:	730a      	strb	r2, [r1, #12]
   27488:	49e7      	ldr	r1, [pc, #924]	@ (27828 <_start+0x1b90>)
   2748a:	4469      	add	r1, sp
   2748c:	78ca      	ldrb	r2, [r1, #3]
   2748e:	ab10      	add	r3, sp, #64	@ 0x40
   27490:	709a      	strb	r2, [r3, #2]
   27492:	784a      	ldrb	r2, [r1, #1]
   27494:	7889      	ldrb	r1, [r1, #2]
   27496:	0209      	lsls	r1, r1, #8
   27498:	1889      	adds	r1, r1, r2
   2749a:	8019      	strh	r1, [r3, #0]
   2749c:	4623      	mov	r3, r4
   2749e:	3364      	adds	r3, #100	@ 0x64
   274a0:	cb0e      	ldmia	r3, {r1, r2, r3}
   274a2:	c40e      	stmia	r4!, {r1, r2, r3}
   274a4:	6d66      	ldr	r6, [r4, #84]	@ 0x54
   274a6:	2800      	cmp	r0, #0
   274a8:	d001      	beq.n	274ae <_start+0x1816>
   274aa:	f7fe fe16 	bl	260da <_start+0x442>
   274ae:	4ce1      	ldr	r4, [pc, #900]	@ (27834 <_start+0x1b9c>)
   274b0:	446c      	add	r4, sp
   274b2:	70e6      	strb	r6, [r4, #3]
   274b4:	9810      	ldr	r0, [sp, #64]	@ 0x40
   274b6:	8020      	strh	r0, [r4, #0]
   274b8:	0e30      	lsrs	r0, r6, #24
   274ba:	71a0      	strb	r0, [r4, #6]
   274bc:	0c30      	lsrs	r0, r6, #16
   274be:	7160      	strb	r0, [r4, #5]
   274c0:	0a30      	lsrs	r0, r6, #8
   274c2:	7120      	strb	r0, [r4, #4]
   274c4:	a810      	add	r0, sp, #64	@ 0x40
   274c6:	7880      	ldrb	r0, [r0, #2]
   274c8:	70a0      	strb	r0, [r4, #2]
   274ca:	1de0      	adds	r0, r4, #7
   274cc:	49d7      	ldr	r1, [pc, #860]	@ (2782c <_start+0x1b94>)
   274ce:	4469      	add	r1, sp
   274d0:	220d      	movs	r2, #13
   274d2:	f002 f81c 	bl	2950e <__aeabi_memcpy>
   274d6:	4dd4      	ldr	r5, [pc, #848]	@ (27828 <_start+0x1b90>)
   274d8:	446d      	add	r5, sp
   274da:	4628      	mov	r0, r5
   274dc:	4621      	mov	r1, r4
   274de:	f7f9 fb65 	bl	20bac <_ZN20complex_full_dynamic3app17h2019b72f3b9bb2d4E>
   274e2:	7828      	ldrb	r0, [r5, #0]
   274e4:	2801      	cmp	r0, #1
   274e6:	d102      	bne.n	274ee <_start+0x1856>
   274e8:	990c      	ldr	r1, [sp, #48]	@ 0x30
   274ea:	6e0e      	ldr	r6, [r1, #96]	@ 0x60
   274ec:	e014      	b.n	27518 <_start+0x1880>
   274ee:	49ce      	ldr	r1, [pc, #824]	@ (27828 <_start+0x1b90>)
   274f0:	4469      	add	r1, sp
   274f2:	78ca      	ldrb	r2, [r1, #3]
   274f4:	ab10      	add	r3, sp, #64	@ 0x40
   274f6:	709a      	strb	r2, [r3, #2]
   274f8:	784a      	ldrb	r2, [r1, #1]
   274fa:	788c      	ldrb	r4, [r1, #2]
   274fc:	0224      	lsls	r4, r4, #8
   274fe:	18a2      	adds	r2, r4, r2
   27500:	801a      	strh	r2, [r3, #0]
   27502:	3108      	adds	r1, #8
   27504:	9a0c      	ldr	r2, [sp, #48]	@ 0x30
   27506:	6e16      	ldr	r6, [r2, #96]	@ 0x60
   27508:	4ac8      	ldr	r2, [pc, #800]	@ (2782c <_start+0x1b94>)
   2750a:	446a      	add	r2, sp
   2750c:	c938      	ldmia	r1!, {r3, r4, r5}
   2750e:	c238      	stmia	r2!, {r3, r4, r5}
   27510:	c938      	ldmia	r1!, {r3, r4, r5}
   27512:	c238      	stmia	r2!, {r3, r4, r5}
   27514:	c938      	ldmia	r1!, {r3, r4, r5}
   27516:	c238      	stmia	r2!, {r3, r4, r5}
   27518:	2800      	cmp	r0, #0
   2751a:	d001      	beq.n	27520 <_start+0x1888>
   2751c:	f7fe fddd 	bl	260da <_start+0x442>
   27520:	4cc5      	ldr	r4, [pc, #788]	@ (27838 <_start+0x1ba0>)
   27522:	446c      	add	r4, sp
   27524:	70e6      	strb	r6, [r4, #3]
   27526:	9810      	ldr	r0, [sp, #64]	@ 0x40
   27528:	8020      	strh	r0, [r4, #0]
   2752a:	0e30      	lsrs	r0, r6, #24
   2752c:	71a0      	strb	r0, [r4, #6]
   2752e:	0c30      	lsrs	r0, r6, #16
   27530:	7160      	strb	r0, [r4, #5]
   27532:	0a30      	lsrs	r0, r6, #8
   27534:	7120      	strb	r0, [r4, #4]
   27536:	a810      	add	r0, sp, #64	@ 0x40
   27538:	7880      	ldrb	r0, [r0, #2]
   2753a:	70a0      	strb	r0, [r4, #2]
   2753c:	1de0      	adds	r0, r4, #7
   2753e:	49bb      	ldr	r1, [pc, #748]	@ (2782c <_start+0x1b94>)
   27540:	4469      	add	r1, sp
   27542:	2224      	movs	r2, #36	@ 0x24
   27544:	f001 ffe3 	bl	2950e <__aeabi_memcpy>
   27548:	4db7      	ldr	r5, [pc, #732]	@ (27828 <_start+0x1b90>)
   2754a:	446d      	add	r5, sp
   2754c:	4628      	mov	r0, r5
   2754e:	4621      	mov	r1, r4
   27550:	f7f8 febe 	bl	202d0 <_ZN20complex_full_dynamic3app17h0eb6948ebc5d74c7E>
   27554:	7828      	ldrb	r0, [r5, #0]
   27556:	2801      	cmp	r0, #1
   27558:	d102      	bne.n	27560 <_start+0x18c8>
   2755a:	990c      	ldr	r1, [sp, #48]	@ 0x30
   2755c:	6e0e      	ldr	r6, [r1, #96]	@ 0x60
   2755e:	e016      	b.n	2758e <_start+0x18f6>
   27560:	49b1      	ldr	r1, [pc, #708]	@ (27828 <_start+0x1b90>)
   27562:	4469      	add	r1, sp
   27564:	78ca      	ldrb	r2, [r1, #3]
   27566:	ab10      	add	r3, sp, #64	@ 0x40
   27568:	709a      	strb	r2, [r3, #2]
   2756a:	784a      	ldrb	r2, [r1, #1]
   2756c:	788c      	ldrb	r4, [r1, #2]
   2756e:	0224      	lsls	r4, r4, #8
   27570:	18a2      	adds	r2, r4, r2
   27572:	801a      	strh	r2, [r3, #0]
   27574:	3108      	adds	r1, #8
   27576:	9a0c      	ldr	r2, [sp, #48]	@ 0x30
   27578:	6e16      	ldr	r6, [r2, #96]	@ 0x60
   2757a:	4aac      	ldr	r2, [pc, #688]	@ (2782c <_start+0x1b94>)
   2757c:	446a      	add	r2, sp
   2757e:	c918      	ldmia	r1!, {r3, r4}
   27580:	c218      	stmia	r2!, {r3, r4}
   27582:	c938      	ldmia	r1!, {r3, r4, r5}
   27584:	c238      	stmia	r2!, {r3, r4, r5}
   27586:	880b      	ldrh	r3, [r1, #0]
   27588:	8013      	strh	r3, [r2, #0]
   2758a:	7889      	ldrb	r1, [r1, #2]
   2758c:	7091      	strb	r1, [r2, #2]
   2758e:	2800      	cmp	r0, #0
   27590:	d001      	beq.n	27596 <_start+0x18fe>
   27592:	f7fe fda2 	bl	260da <_start+0x442>
   27596:	4ca9      	ldr	r4, [pc, #676]	@ (2783c <_start+0x1ba4>)
   27598:	446c      	add	r4, sp
   2759a:	70e6      	strb	r6, [r4, #3]
   2759c:	9810      	ldr	r0, [sp, #64]	@ 0x40
   2759e:	8020      	strh	r0, [r4, #0]
   275a0:	0e30      	lsrs	r0, r6, #24
   275a2:	71a0      	strb	r0, [r4, #6]
   275a4:	0c30      	lsrs	r0, r6, #16
   275a6:	7160      	strb	r0, [r4, #5]
   275a8:	0a30      	lsrs	r0, r6, #8
   275aa:	7120      	strb	r0, [r4, #4]
   275ac:	a810      	add	r0, sp, #64	@ 0x40
   275ae:	7880      	ldrb	r0, [r0, #2]
   275b0:	70a0      	strb	r0, [r4, #2]
   275b2:	1de0      	adds	r0, r4, #7
   275b4:	499d      	ldr	r1, [pc, #628]	@ (2782c <_start+0x1b94>)
   275b6:	4469      	add	r1, sp
   275b8:	2217      	movs	r2, #23
   275ba:	f001 ffa8 	bl	2950e <__aeabi_memcpy>
   275be:	4d9a      	ldr	r5, [pc, #616]	@ (27828 <_start+0x1b90>)
   275c0:	446d      	add	r5, sp
   275c2:	4628      	mov	r0, r5
   275c4:	4621      	mov	r1, r4
   275c6:	f7fa f9bf 	bl	21948 <_ZN20complex_full_dynamic3app17h4d0db711e9d79fddE>
   275ca:	782c      	ldrb	r4, [r5, #0]
   275cc:	2c01      	cmp	r4, #1
   275ce:	d102      	bne.n	275d6 <_start+0x193e>
   275d0:	980c      	ldr	r0, [sp, #48]	@ 0x30
   275d2:	6e06      	ldr	r6, [r0, #96]	@ 0x60
   275d4:	e011      	b.n	275fa <_start+0x1962>
   275d6:	4994      	ldr	r1, [pc, #592]	@ (27828 <_start+0x1b90>)
   275d8:	4469      	add	r1, sp
   275da:	78c8      	ldrb	r0, [r1, #3]
   275dc:	aa10      	add	r2, sp, #64	@ 0x40
   275de:	7090      	strb	r0, [r2, #2]
   275e0:	7848      	ldrb	r0, [r1, #1]
   275e2:	788b      	ldrb	r3, [r1, #2]
   275e4:	021b      	lsls	r3, r3, #8
   275e6:	1818      	adds	r0, r3, r0
   275e8:	8010      	strh	r0, [r2, #0]
   275ea:	980c      	ldr	r0, [sp, #48]	@ 0x30
   275ec:	6e06      	ldr	r6, [r0, #96]	@ 0x60
   275ee:	3108      	adds	r1, #8
   275f0:	488e      	ldr	r0, [pc, #568]	@ (2782c <_start+0x1b94>)
   275f2:	4468      	add	r0, sp
   275f4:	224a      	movs	r2, #74	@ 0x4a
   275f6:	f001 fe2a 	bl	2924e <__aeabi_memcpy4>
   275fa:	2c00      	cmp	r4, #0
   275fc:	d001      	beq.n	27602 <_start+0x196a>
   275fe:	f7fe fd6c 	bl	260da <_start+0x442>
   27602:	4c8f      	ldr	r4, [pc, #572]	@ (27840 <_start+0x1ba8>)
   27604:	446c      	add	r4, sp
   27606:	70e6      	strb	r6, [r4, #3]
   27608:	9810      	ldr	r0, [sp, #64]	@ 0x40
   2760a:	8020      	strh	r0, [r4, #0]
   2760c:	0e30      	lsrs	r0, r6, #24
   2760e:	71a0      	strb	r0, [r4, #6]
   27610:	0c30      	lsrs	r0, r6, #16
   27612:	7160      	strb	r0, [r4, #5]
   27614:	0a30      	lsrs	r0, r6, #8
   27616:	7120      	strb	r0, [r4, #4]
   27618:	a810      	add	r0, sp, #64	@ 0x40
   2761a:	7880      	ldrb	r0, [r0, #2]
   2761c:	70a0      	strb	r0, [r4, #2]
   2761e:	1de0      	adds	r0, r4, #7
   27620:	4982      	ldr	r1, [pc, #520]	@ (2782c <_start+0x1b94>)
   27622:	4469      	add	r1, sp
   27624:	224a      	movs	r2, #74	@ 0x4a
   27626:	f001 ff72 	bl	2950e <__aeabi_memcpy>
   2762a:	4d7f      	ldr	r5, [pc, #508]	@ (27828 <_start+0x1b90>)
   2762c:	446d      	add	r5, sp
   2762e:	4628      	mov	r0, r5
   27630:	4621      	mov	r1, r4
   27632:	f7fc fffb 	bl	2462c <_ZN20complex_full_dynamic3app17hc357a54f461d88c7E>
   27636:	7829      	ldrb	r1, [r5, #0]
   27638:	2901      	cmp	r1, #1
   2763a:	d102      	bne.n	27642 <_start+0x19aa>
   2763c:	980c      	ldr	r0, [sp, #48]	@ 0x30
   2763e:	6e06      	ldr	r6, [r0, #96]	@ 0x60
   27640:	e00e      	b.n	27660 <_start+0x19c8>
   27642:	4879      	ldr	r0, [pc, #484]	@ (27828 <_start+0x1b90>)
   27644:	4468      	add	r0, sp
   27646:	78c2      	ldrb	r2, [r0, #3]
   27648:	4b78      	ldr	r3, [pc, #480]	@ (2782c <_start+0x1b94>)
   2764a:	446b      	add	r3, sp
   2764c:	709a      	strb	r2, [r3, #2]
   2764e:	7842      	ldrb	r2, [r0, #1]
   27650:	7880      	ldrb	r0, [r0, #2]
   27652:	0200      	lsls	r0, r0, #8
   27654:	1880      	adds	r0, r0, r2
   27656:	8018      	strh	r0, [r3, #0]
   27658:	980c      	ldr	r0, [sp, #48]	@ 0x30
   2765a:	6e06      	ldr	r6, [r0, #96]	@ 0x60
   2765c:	6e42      	ldr	r2, [r0, #100]	@ 0x64
   2765e:	6e80      	ldr	r0, [r0, #104]	@ 0x68
   27660:	2900      	cmp	r1, #0
   27662:	d001      	beq.n	27668 <_start+0x19d0>
   27664:	f7fe fd39 	bl	260da <_start+0x442>
   27668:	9908      	ldr	r1, [sp, #32]
   2766a:	1ccb      	adds	r3, r1, #3
   2766c:	711a      	strb	r2, [r3, #4]
   2766e:	701e      	strb	r6, [r3, #0]
   27670:	4974      	ldr	r1, [pc, #464]	@ (27844 <_start+0x1bac>)
   27672:	4469      	add	r1, sp
   27674:	9c0c      	ldr	r4, [sp, #48]	@ 0x30
   27676:	6824      	ldr	r4, [r4, #0]
   27678:	800c      	strh	r4, [r1, #0]
   2767a:	7218      	strb	r0, [r3, #8]
   2767c:	0e14      	lsrs	r4, r2, #24
   2767e:	71dc      	strb	r4, [r3, #7]
   27680:	0c14      	lsrs	r4, r2, #16
   27682:	719c      	strb	r4, [r3, #6]
   27684:	0a12      	lsrs	r2, r2, #8
   27686:	715a      	strb	r2, [r3, #5]
   27688:	0e32      	lsrs	r2, r6, #24
   2768a:	70da      	strb	r2, [r3, #3]
   2768c:	0c32      	lsrs	r2, r6, #16
   2768e:	709a      	strb	r2, [r3, #2]
   27690:	0a32      	lsrs	r2, r6, #8
   27692:	705a      	strb	r2, [r3, #1]
   27694:	4a65      	ldr	r2, [pc, #404]	@ (2782c <_start+0x1b94>)
   27696:	446a      	add	r2, sp
   27698:	7892      	ldrb	r2, [r2, #2]
   2769a:	708a      	strb	r2, [r1, #2]
   2769c:	0e02      	lsrs	r2, r0, #24
   2769e:	72da      	strb	r2, [r3, #11]
   276a0:	0c02      	lsrs	r2, r0, #16
   276a2:	729a      	strb	r2, [r3, #10]
   276a4:	0a00      	lsrs	r0, r0, #8
   276a6:	7258      	strb	r0, [r3, #9]
   276a8:	4c5f      	ldr	r4, [pc, #380]	@ (27828 <_start+0x1b90>)
   276aa:	446c      	add	r4, sp
   276ac:	4620      	mov	r0, r4
   276ae:	f7fb fcf7 	bl	230a0 <_ZN20complex_full_dynamic3app17h8a469badaed87b2dE>
   276b2:	7820      	ldrb	r0, [r4, #0]
   276b4:	2801      	cmp	r0, #1
   276b6:	d103      	bne.n	276c0 <_start+0x1a28>
   276b8:	990c      	ldr	r1, [sp, #48]	@ 0x30
   276ba:	6e09      	ldr	r1, [r1, #96]	@ 0x60
   276bc:	910b      	str	r1, [sp, #44]	@ 0x2c
   276be:	e01b      	b.n	276f8 <_start+0x1a60>
   276c0:	4959      	ldr	r1, [pc, #356]	@ (27828 <_start+0x1b90>)
   276c2:	4469      	add	r1, sp
   276c4:	78ca      	ldrb	r2, [r1, #3]
   276c6:	ab10      	add	r3, sp, #64	@ 0x40
   276c8:	709a      	strb	r2, [r3, #2]
   276ca:	784a      	ldrb	r2, [r1, #1]
   276cc:	788c      	ldrb	r4, [r1, #2]
   276ce:	0224      	lsls	r4, r4, #8
   276d0:	18a2      	adds	r2, r4, r2
   276d2:	801a      	strh	r2, [r3, #0]
   276d4:	3108      	adds	r1, #8
   276d6:	9a0c      	ldr	r2, [sp, #48]	@ 0x30
   276d8:	6e12      	ldr	r2, [r2, #96]	@ 0x60
   276da:	920b      	str	r2, [sp, #44]	@ 0x2c
   276dc:	4a53      	ldr	r2, [pc, #332]	@ (2782c <_start+0x1b94>)
   276de:	446a      	add	r2, sp
   276e0:	c938      	ldmia	r1!, {r3, r4, r5}
   276e2:	c238      	stmia	r2!, {r3, r4, r5}
   276e4:	c978      	ldmia	r1!, {r3, r4, r5, r6}
   276e6:	c278      	stmia	r2!, {r3, r4, r5, r6}
   276e8:	c978      	ldmia	r1!, {r3, r4, r5, r6}
   276ea:	c278      	stmia	r2!, {r3, r4, r5, r6}
   276ec:	c978      	ldmia	r1!, {r3, r4, r5, r6}
   276ee:	c278      	stmia	r2!, {r3, r4, r5, r6}
   276f0:	880b      	ldrh	r3, [r1, #0]
   276f2:	8013      	strh	r3, [r2, #0]
   276f4:	7889      	ldrb	r1, [r1, #2]
   276f6:	7091      	strb	r1, [r2, #2]
   276f8:	2800      	cmp	r0, #0
   276fa:	d001      	beq.n	27700 <_start+0x1a68>
   276fc:	f7fe fe5a 	bl	263b4 <_start+0x71c>
   27700:	4c51      	ldr	r4, [pc, #324]	@ (27848 <_start+0x1bb0>)
   27702:	446c      	add	r4, sp
   27704:	990b      	ldr	r1, [sp, #44]	@ 0x2c
   27706:	70e1      	strb	r1, [r4, #3]
   27708:	9810      	ldr	r0, [sp, #64]	@ 0x40
   2770a:	8020      	strh	r0, [r4, #0]
   2770c:	0e08      	lsrs	r0, r1, #24
   2770e:	71a0      	strb	r0, [r4, #6]
   27710:	0c08      	lsrs	r0, r1, #16
   27712:	7160      	strb	r0, [r4, #5]
   27714:	0a08      	lsrs	r0, r1, #8
   27716:	7120      	strb	r0, [r4, #4]
   27718:	a810      	add	r0, sp, #64	@ 0x40
   2771a:	7880      	ldrb	r0, [r0, #2]
   2771c:	70a0      	strb	r0, [r4, #2]
   2771e:	1de0      	adds	r0, r4, #7
   27720:	4942      	ldr	r1, [pc, #264]	@ (2782c <_start+0x1b94>)
   27722:	4469      	add	r1, sp
   27724:	223f      	movs	r2, #63	@ 0x3f
   27726:	f001 fef2 	bl	2950e <__aeabi_memcpy>
   2772a:	4d3f      	ldr	r5, [pc, #252]	@ (27828 <_start+0x1b90>)
   2772c:	446d      	add	r5, sp
   2772e:	4628      	mov	r0, r5
   27730:	4621      	mov	r1, r4
   27732:	f7f9 f84b 	bl	207cc <_ZN20complex_full_dynamic3app17h14cd8b7aa4b210d6E>
   27736:	782c      	ldrb	r4, [r5, #0]
   27738:	2c01      	cmp	r4, #1
   2773a:	d102      	bne.n	27742 <_start+0x1aaa>
   2773c:	980c      	ldr	r0, [sp, #48]	@ 0x30
   2773e:	6e06      	ldr	r6, [r0, #96]	@ 0x60
   27740:	e011      	b.n	27766 <_start+0x1ace>
   27742:	4939      	ldr	r1, [pc, #228]	@ (27828 <_start+0x1b90>)
   27744:	4469      	add	r1, sp
   27746:	78c8      	ldrb	r0, [r1, #3]
   27748:	aa10      	add	r2, sp, #64	@ 0x40
   2774a:	7090      	strb	r0, [r2, #2]
   2774c:	7848      	ldrb	r0, [r1, #1]
   2774e:	788b      	ldrb	r3, [r1, #2]
   27750:	021b      	lsls	r3, r3, #8
   27752:	1818      	adds	r0, r3, r0
   27754:	8010      	strh	r0, [r2, #0]
   27756:	980c      	ldr	r0, [sp, #48]	@ 0x30
   27758:	6e06      	ldr	r6, [r0, #96]	@ 0x60
   2775a:	3108      	adds	r1, #8
   2775c:	4833      	ldr	r0, [pc, #204]	@ (2782c <_start+0x1b94>)
   2775e:	4468      	add	r0, sp
   27760:	224f      	movs	r2, #79	@ 0x4f
   27762:	f001 fd74 	bl	2924e <__aeabi_memcpy4>
   27766:	2c00      	cmp	r4, #0
   27768:	d001      	beq.n	2776e <_start+0x1ad6>
   2776a:	f7fe fcb6 	bl	260da <_start+0x442>
   2776e:	4c37      	ldr	r4, [pc, #220]	@ (2784c <_start+0x1bb4>)
   27770:	446c      	add	r4, sp
   27772:	70e6      	strb	r6, [r4, #3]
   27774:	9810      	ldr	r0, [sp, #64]	@ 0x40
   27776:	8020      	strh	r0, [r4, #0]
   27778:	0e30      	lsrs	r0, r6, #24
   2777a:	71a0      	strb	r0, [r4, #6]
   2777c:	0c30      	lsrs	r0, r6, #16
   2777e:	7160      	strb	r0, [r4, #5]
   27780:	0a30      	lsrs	r0, r6, #8
   27782:	7120      	strb	r0, [r4, #4]
   27784:	a810      	add	r0, sp, #64	@ 0x40
   27786:	7880      	ldrb	r0, [r0, #2]
   27788:	70a0      	strb	r0, [r4, #2]
   2778a:	1de0      	adds	r0, r4, #7
   2778c:	4927      	ldr	r1, [pc, #156]	@ (2782c <_start+0x1b94>)
   2778e:	4469      	add	r1, sp
   27790:	224f      	movs	r2, #79	@ 0x4f
   27792:	f001 febc 	bl	2950e <__aeabi_memcpy>
   27796:	4d24      	ldr	r5, [pc, #144]	@ (27828 <_start+0x1b90>)
   27798:	446d      	add	r5, sp
   2779a:	4628      	mov	r0, r5
   2779c:	4621      	mov	r1, r4
   2779e:	f7fc f95f 	bl	23a60 <_ZN20complex_full_dynamic3app17h9ee5d78e0de33a00E>
   277a2:	782c      	ldrb	r4, [r5, #0]
   277a4:	2c01      	cmp	r4, #1
   277a6:	d107      	bne.n	277b8 <_start+0x1b20>
   277a8:	980c      	ldr	r0, [sp, #48]	@ 0x30
   277aa:	6e06      	ldr	r6, [r0, #96]	@ 0x60
   277ac:	e016      	b.n	277dc <_start+0x1b44>
   277ae:	46c0      	nop			@ (mov r8, r8)
   277b0:	00001414 	.word	0x00001414
   277b4:	000013b8 	.word	0x000013b8
   277b8:	491b      	ldr	r1, [pc, #108]	@ (27828 <_start+0x1b90>)
   277ba:	4469      	add	r1, sp
   277bc:	78c8      	ldrb	r0, [r1, #3]
   277be:	aa10      	add	r2, sp, #64	@ 0x40
   277c0:	7090      	strb	r0, [r2, #2]
   277c2:	7848      	ldrb	r0, [r1, #1]
   277c4:	788b      	ldrb	r3, [r1, #2]
   277c6:	021b      	lsls	r3, r3, #8
   277c8:	1818      	adds	r0, r3, r0
   277ca:	8010      	strh	r0, [r2, #0]
   277cc:	980c      	ldr	r0, [sp, #48]	@ 0x30
   277ce:	6e06      	ldr	r6, [r0, #96]	@ 0x60
   277d0:	3108      	adds	r1, #8
   277d2:	4816      	ldr	r0, [pc, #88]	@ (2782c <_start+0x1b94>)
   277d4:	4468      	add	r0, sp
   277d6:	2242      	movs	r2, #66	@ 0x42
   277d8:	f001 fd39 	bl	2924e <__aeabi_memcpy4>
   277dc:	2c00      	cmp	r4, #0
   277de:	d001      	beq.n	277e4 <_start+0x1b4c>
   277e0:	f7fe fc7b 	bl	260da <_start+0x442>
   277e4:	4c1a      	ldr	r4, [pc, #104]	@ (27850 <_start+0x1bb8>)
   277e6:	446c      	add	r4, sp
   277e8:	70e6      	strb	r6, [r4, #3]
   277ea:	9810      	ldr	r0, [sp, #64]	@ 0x40
   277ec:	8020      	strh	r0, [r4, #0]
   277ee:	0e30      	lsrs	r0, r6, #24
   277f0:	71a0      	strb	r0, [r4, #6]
   277f2:	0c30      	lsrs	r0, r6, #16
   277f4:	7160      	strb	r0, [r4, #5]
   277f6:	0a30      	lsrs	r0, r6, #8
   277f8:	7120      	strb	r0, [r4, #4]
   277fa:	a810      	add	r0, sp, #64	@ 0x40
   277fc:	7880      	ldrb	r0, [r0, #2]
   277fe:	70a0      	strb	r0, [r4, #2]
   27800:	1de0      	adds	r0, r4, #7
   27802:	490a      	ldr	r1, [pc, #40]	@ (2782c <_start+0x1b94>)
   27804:	4469      	add	r1, sp
   27806:	2242      	movs	r2, #66	@ 0x42
   27808:	f001 fe81 	bl	2950e <__aeabi_memcpy>
   2780c:	4d06      	ldr	r5, [pc, #24]	@ (27828 <_start+0x1b90>)
   2780e:	446d      	add	r5, sp
   27810:	4628      	mov	r0, r5
   27812:	4621      	mov	r1, r4
   27814:	f7fc fc90 	bl	24138 <_ZN20complex_full_dynamic3app17hadb7aecdc786c303E>
   27818:	7828      	ldrb	r0, [r5, #0]
   2781a:	2801      	cmp	r0, #1
   2781c:	d11a      	bne.n	27854 <_start+0x1bbc>
   2781e:	990c      	ldr	r1, [sp, #48]	@ 0x30
   27820:	6e09      	ldr	r1, [r1, #96]	@ 0x60
   27822:	910b      	str	r1, [sp, #44]	@ 0x2c
   27824:	e02a      	b.n	2787c <_start+0x1be4>
   27826:	46c0      	nop			@ (mov r8, r8)
   27828:	00001414 	.word	0x00001414
   2782c:	000013b8 	.word	0x000013b8
   27830:	00000710 	.word	0x00000710
   27834:	00000738 	.word	0x00000738
   27838:	0000074c 	.word	0x0000074c
   2783c:	00000778 	.word	0x00000778
   27840:	00000798 	.word	0x00000798
   27844:	000007ec 	.word	0x000007ec
   27848:	000007fc 	.word	0x000007fc
   2784c:	00000844 	.word	0x00000844
   27850:	0000089c 	.word	0x0000089c
   27854:	49e5      	ldr	r1, [pc, #916]	@ (27bec <_start+0x1f54>)
   27856:	4469      	add	r1, sp
   27858:	78ca      	ldrb	r2, [r1, #3]
   2785a:	ab10      	add	r3, sp, #64	@ 0x40
   2785c:	709a      	strb	r2, [r3, #2]
   2785e:	784a      	ldrb	r2, [r1, #1]
   27860:	788c      	ldrb	r4, [r1, #2]
   27862:	0224      	lsls	r4, r4, #8
   27864:	18a2      	adds	r2, r4, r2
   27866:	801a      	strh	r2, [r3, #0]
   27868:	3108      	adds	r1, #8
   2786a:	9a0c      	ldr	r2, [sp, #48]	@ 0x30
   2786c:	6e12      	ldr	r2, [r2, #96]	@ 0x60
   2786e:	920b      	str	r2, [sp, #44]	@ 0x2c
   27870:	4afd      	ldr	r2, [pc, #1012]	@ (27c68 <_start+0x1fd0>)
   27872:	446a      	add	r2, sp
   27874:	c938      	ldmia	r1!, {r3, r4, r5}
   27876:	c238      	stmia	r2!, {r3, r4, r5}
   27878:	c978      	ldmia	r1!, {r3, r4, r5, r6}
   2787a:	c278      	stmia	r2!, {r3, r4, r5, r6}
   2787c:	2800      	cmp	r0, #0
   2787e:	d001      	beq.n	27884 <_start+0x1bec>
   27880:	f7fe fd98 	bl	263b4 <_start+0x71c>
   27884:	4cf9      	ldr	r4, [pc, #996]	@ (27c6c <_start+0x1fd4>)
   27886:	446c      	add	r4, sp
   27888:	990b      	ldr	r1, [sp, #44]	@ 0x2c
   2788a:	70e1      	strb	r1, [r4, #3]
   2788c:	9810      	ldr	r0, [sp, #64]	@ 0x40
   2788e:	8020      	strh	r0, [r4, #0]
   27890:	0e08      	lsrs	r0, r1, #24
   27892:	71a0      	strb	r0, [r4, #6]
   27894:	0c08      	lsrs	r0, r1, #16
   27896:	7160      	strb	r0, [r4, #5]
   27898:	0a08      	lsrs	r0, r1, #8
   2789a:	7120      	strb	r0, [r4, #4]
   2789c:	a810      	add	r0, sp, #64	@ 0x40
   2789e:	7880      	ldrb	r0, [r0, #2]
   278a0:	70a0      	strb	r0, [r4, #2]
   278a2:	1de0      	adds	r0, r4, #7
   278a4:	49f0      	ldr	r1, [pc, #960]	@ (27c68 <_start+0x1fd0>)
   278a6:	4469      	add	r1, sp
   278a8:	221c      	movs	r2, #28
   278aa:	f001 fe30 	bl	2950e <__aeabi_memcpy>
   278ae:	4ded      	ldr	r5, [pc, #948]	@ (27c64 <_start+0x1fcc>)
   278b0:	446d      	add	r5, sp
   278b2:	4628      	mov	r0, r5
   278b4:	4621      	mov	r1, r4
   278b6:	f7fa fb23 	bl	21f00 <_ZN20complex_full_dynamic3app17h5cdbccf1b25fcfe3E>
   278ba:	7828      	ldrb	r0, [r5, #0]
   278bc:	2801      	cmp	r0, #1
   278be:	d102      	bne.n	278c6 <_start+0x1c2e>
   278c0:	990c      	ldr	r1, [sp, #48]	@ 0x30
   278c2:	6e0e      	ldr	r6, [r1, #96]	@ 0x60
   278c4:	e014      	b.n	278f0 <_start+0x1c58>
   278c6:	49e7      	ldr	r1, [pc, #924]	@ (27c64 <_start+0x1fcc>)
   278c8:	4469      	add	r1, sp
   278ca:	78ca      	ldrb	r2, [r1, #3]
   278cc:	ab10      	add	r3, sp, #64	@ 0x40
   278ce:	709a      	strb	r2, [r3, #2]
   278d0:	784a      	ldrb	r2, [r1, #1]
   278d2:	788c      	ldrb	r4, [r1, #2]
   278d4:	0224      	lsls	r4, r4, #8
   278d6:	18a2      	adds	r2, r4, r2
   278d8:	801a      	strh	r2, [r3, #0]
   278da:	3108      	adds	r1, #8
   278dc:	9a0c      	ldr	r2, [sp, #48]	@ 0x30
   278de:	6e16      	ldr	r6, [r2, #96]	@ 0x60
   278e0:	4ae1      	ldr	r2, [pc, #900]	@ (27c68 <_start+0x1fd0>)
   278e2:	446a      	add	r2, sp
   278e4:	c938      	ldmia	r1!, {r3, r4, r5}
   278e6:	c238      	stmia	r2!, {r3, r4, r5}
   278e8:	c938      	ldmia	r1!, {r3, r4, r5}
   278ea:	c238      	stmia	r2!, {r3, r4, r5}
   278ec:	c938      	ldmia	r1!, {r3, r4, r5}
   278ee:	c238      	stmia	r2!, {r3, r4, r5}
   278f0:	2800      	cmp	r0, #0
   278f2:	d001      	beq.n	278f8 <_start+0x1c60>
   278f4:	f7fe fbf1 	bl	260da <_start+0x442>
   278f8:	4cdd      	ldr	r4, [pc, #884]	@ (27c70 <_start+0x1fd8>)
   278fa:	446c      	add	r4, sp
   278fc:	70e6      	strb	r6, [r4, #3]
   278fe:	9810      	ldr	r0, [sp, #64]	@ 0x40
   27900:	8020      	strh	r0, [r4, #0]
   27902:	0e30      	lsrs	r0, r6, #24
   27904:	71a0      	strb	r0, [r4, #6]
   27906:	0c30      	lsrs	r0, r6, #16
   27908:	7160      	strb	r0, [r4, #5]
   2790a:	0a30      	lsrs	r0, r6, #8
   2790c:	7120      	strb	r0, [r4, #4]
   2790e:	a810      	add	r0, sp, #64	@ 0x40
   27910:	7880      	ldrb	r0, [r0, #2]
   27912:	70a0      	strb	r0, [r4, #2]
   27914:	1de0      	adds	r0, r4, #7
   27916:	49d4      	ldr	r1, [pc, #848]	@ (27c68 <_start+0x1fd0>)
   27918:	4469      	add	r1, sp
   2791a:	2224      	movs	r2, #36	@ 0x24
   2791c:	f001 fdf7 	bl	2950e <__aeabi_memcpy>
   27920:	4dd0      	ldr	r5, [pc, #832]	@ (27c64 <_start+0x1fcc>)
   27922:	446d      	add	r5, sp
   27924:	4628      	mov	r0, r5
   27926:	4621      	mov	r1, r4
   27928:	f7f9 f8c2 	bl	20ab0 <_ZN20complex_full_dynamic3app17h1d565891fc7b70e7E>
   2792c:	7828      	ldrb	r0, [r5, #0]
   2792e:	2801      	cmp	r0, #1
   27930:	d102      	bne.n	27938 <_start+0x1ca0>
   27932:	990c      	ldr	r1, [sp, #48]	@ 0x30
   27934:	6e0e      	ldr	r6, [r1, #96]	@ 0x60
   27936:	e011      	b.n	2795c <_start+0x1cc4>
   27938:	49cb      	ldr	r1, [pc, #812]	@ (27c68 <_start+0x1fd0>)
   2793a:	4469      	add	r1, sp
   2793c:	9c0c      	ldr	r4, [sp, #48]	@ 0x30
   2793e:	6ea2      	ldr	r2, [r4, #104]	@ 0x68
   27940:	808a      	strh	r2, [r1, #4]
   27942:	49c8      	ldr	r1, [pc, #800]	@ (27c64 <_start+0x1fcc>)
   27944:	4469      	add	r1, sp
   27946:	78ca      	ldrb	r2, [r1, #3]
   27948:	ab10      	add	r3, sp, #64	@ 0x40
   2794a:	709a      	strb	r2, [r3, #2]
   2794c:	784a      	ldrb	r2, [r1, #1]
   2794e:	7889      	ldrb	r1, [r1, #2]
   27950:	0209      	lsls	r1, r1, #8
   27952:	1889      	adds	r1, r1, r2
   27954:	8019      	strh	r1, [r3, #0]
   27956:	6e61      	ldr	r1, [r4, #100]	@ 0x64
   27958:	6021      	str	r1, [r4, #0]
   2795a:	6e26      	ldr	r6, [r4, #96]	@ 0x60
   2795c:	2800      	cmp	r0, #0
   2795e:	d001      	beq.n	27964 <_start+0x1ccc>
   27960:	f7fe fbbb 	bl	260da <_start+0x442>
   27964:	4cc3      	ldr	r4, [pc, #780]	@ (27c74 <_start+0x1fdc>)
   27966:	446c      	add	r4, sp
   27968:	70e6      	strb	r6, [r4, #3]
   2796a:	9810      	ldr	r0, [sp, #64]	@ 0x40
   2796c:	8020      	strh	r0, [r4, #0]
   2796e:	0e30      	lsrs	r0, r6, #24
   27970:	71a0      	strb	r0, [r4, #6]
   27972:	0c30      	lsrs	r0, r6, #16
   27974:	7160      	strb	r0, [r4, #5]
   27976:	0a30      	lsrs	r0, r6, #8
   27978:	7120      	strb	r0, [r4, #4]
   2797a:	a810      	add	r0, sp, #64	@ 0x40
   2797c:	7880      	ldrb	r0, [r0, #2]
   2797e:	70a0      	strb	r0, [r4, #2]
   27980:	1de0      	adds	r0, r4, #7
   27982:	49b9      	ldr	r1, [pc, #740]	@ (27c68 <_start+0x1fd0>)
   27984:	4469      	add	r1, sp
   27986:	2206      	movs	r2, #6
   27988:	f001 fdc1 	bl	2950e <__aeabi_memcpy>
   2798c:	4db5      	ldr	r5, [pc, #724]	@ (27c64 <_start+0x1fcc>)
   2798e:	446d      	add	r5, sp
   27990:	4628      	mov	r0, r5
   27992:	4621      	mov	r1, r4
   27994:	f7fb ffe8 	bl	23968 <_ZN20complex_full_dynamic3app17h9ec37198697ee11dE>
   27998:	7828      	ldrb	r0, [r5, #0]
   2799a:	2801      	cmp	r0, #1
   2799c:	d102      	bne.n	279a4 <_start+0x1d0c>
   2799e:	990c      	ldr	r1, [sp, #48]	@ 0x30
   279a0:	6e0e      	ldr	r6, [r1, #96]	@ 0x60
   279a2:	e014      	b.n	279ce <_start+0x1d36>
   279a4:	49af      	ldr	r1, [pc, #700]	@ (27c64 <_start+0x1fcc>)
   279a6:	4469      	add	r1, sp
   279a8:	78ca      	ldrb	r2, [r1, #3]
   279aa:	ab10      	add	r3, sp, #64	@ 0x40
   279ac:	709a      	strb	r2, [r3, #2]
   279ae:	784a      	ldrb	r2, [r1, #1]
   279b0:	788c      	ldrb	r4, [r1, #2]
   279b2:	0224      	lsls	r4, r4, #8
   279b4:	18a2      	adds	r2, r4, r2
   279b6:	801a      	strh	r2, [r3, #0]
   279b8:	3108      	adds	r1, #8
   279ba:	9a0c      	ldr	r2, [sp, #48]	@ 0x30
   279bc:	6e16      	ldr	r6, [r2, #96]	@ 0x60
   279be:	4aaa      	ldr	r2, [pc, #680]	@ (27c68 <_start+0x1fd0>)
   279c0:	446a      	add	r2, sp
   279c2:	c938      	ldmia	r1!, {r3, r4, r5}
   279c4:	c238      	stmia	r2!, {r3, r4, r5}
   279c6:	c938      	ldmia	r1!, {r3, r4, r5}
   279c8:	c238      	stmia	r2!, {r3, r4, r5}
   279ca:	8809      	ldrh	r1, [r1, #0]
   279cc:	8011      	strh	r1, [r2, #0]
   279ce:	2800      	cmp	r0, #0
   279d0:	d001      	beq.n	279d6 <_start+0x1d3e>
   279d2:	f7fe fb82 	bl	260da <_start+0x442>
   279d6:	4ca8      	ldr	r4, [pc, #672]	@ (27c78 <_start+0x1fe0>)
   279d8:	446c      	add	r4, sp
   279da:	70e6      	strb	r6, [r4, #3]
   279dc:	9810      	ldr	r0, [sp, #64]	@ 0x40
   279de:	8020      	strh	r0, [r4, #0]
   279e0:	0e30      	lsrs	r0, r6, #24
   279e2:	71a0      	strb	r0, [r4, #6]
   279e4:	0c30      	lsrs	r0, r6, #16
   279e6:	7160      	strb	r0, [r4, #5]
   279e8:	0a30      	lsrs	r0, r6, #8
   279ea:	7120      	strb	r0, [r4, #4]
   279ec:	a810      	add	r0, sp, #64	@ 0x40
   279ee:	7880      	ldrb	r0, [r0, #2]
   279f0:	70a0      	strb	r0, [r4, #2]
   279f2:	1de0      	adds	r0, r4, #7
   279f4:	499c      	ldr	r1, [pc, #624]	@ (27c68 <_start+0x1fd0>)
   279f6:	4469      	add	r1, sp
   279f8:	221a      	movs	r2, #26
   279fa:	f001 fd88 	bl	2950e <__aeabi_memcpy>
   279fe:	4d99      	ldr	r5, [pc, #612]	@ (27c64 <_start+0x1fcc>)
   27a00:	446d      	add	r5, sp
   27a02:	4628      	mov	r0, r5
   27a04:	4621      	mov	r1, r4
   27a06:	f7fa fbf1 	bl	221ec <_ZN20complex_full_dynamic3app17h615b1b4433c84f03E>
   27a0a:	782c      	ldrb	r4, [r5, #0]
   27a0c:	2c01      	cmp	r4, #1
   27a0e:	d102      	bne.n	27a16 <_start+0x1d7e>
   27a10:	980c      	ldr	r0, [sp, #48]	@ 0x30
   27a12:	6e06      	ldr	r6, [r0, #96]	@ 0x60
   27a14:	e011      	b.n	27a3a <_start+0x1da2>
   27a16:	4993      	ldr	r1, [pc, #588]	@ (27c64 <_start+0x1fcc>)
   27a18:	4469      	add	r1, sp
   27a1a:	78c8      	ldrb	r0, [r1, #3]
   27a1c:	aa10      	add	r2, sp, #64	@ 0x40
   27a1e:	7090      	strb	r0, [r2, #2]
   27a20:	7848      	ldrb	r0, [r1, #1]
   27a22:	788b      	ldrb	r3, [r1, #2]
   27a24:	021b      	lsls	r3, r3, #8
   27a26:	1818      	adds	r0, r3, r0
   27a28:	8010      	strh	r0, [r2, #0]
   27a2a:	980c      	ldr	r0, [sp, #48]	@ 0x30
   27a2c:	6e06      	ldr	r6, [r0, #96]	@ 0x60
   27a2e:	3108      	adds	r1, #8
   27a30:	488d      	ldr	r0, [pc, #564]	@ (27c68 <_start+0x1fd0>)
   27a32:	4468      	add	r0, sp
   27a34:	224c      	movs	r2, #76	@ 0x4c
   27a36:	f001 fc0a 	bl	2924e <__aeabi_memcpy4>
   27a3a:	2c00      	cmp	r4, #0
   27a3c:	d001      	beq.n	27a42 <_start+0x1daa>
   27a3e:	f7fe fb4c 	bl	260da <_start+0x442>
   27a42:	4c8e      	ldr	r4, [pc, #568]	@ (27c7c <_start+0x1fe4>)
   27a44:	446c      	add	r4, sp
   27a46:	70e6      	strb	r6, [r4, #3]
   27a48:	9810      	ldr	r0, [sp, #64]	@ 0x40
   27a4a:	8020      	strh	r0, [r4, #0]
   27a4c:	0e30      	lsrs	r0, r6, #24
   27a4e:	71a0      	strb	r0, [r4, #6]
   27a50:	0c30      	lsrs	r0, r6, #16
   27a52:	7160      	strb	r0, [r4, #5]
   27a54:	0a30      	lsrs	r0, r6, #8
   27a56:	7120      	strb	r0, [r4, #4]
   27a58:	a810      	add	r0, sp, #64	@ 0x40
   27a5a:	7880      	ldrb	r0, [r0, #2]
   27a5c:	70a0      	strb	r0, [r4, #2]
   27a5e:	1de0      	adds	r0, r4, #7
   27a60:	4981      	ldr	r1, [pc, #516]	@ (27c68 <_start+0x1fd0>)
   27a62:	4469      	add	r1, sp
   27a64:	224c      	movs	r2, #76	@ 0x4c
   27a66:	f001 fd52 	bl	2950e <__aeabi_memcpy>
   27a6a:	4d7e      	ldr	r5, [pc, #504]	@ (27c64 <_start+0x1fcc>)
   27a6c:	446d      	add	r5, sp
   27a6e:	4628      	mov	r0, r5
   27a70:	4621      	mov	r1, r4
   27a72:	f7fc f969 	bl	23d48 <_ZN20complex_full_dynamic3app17ha44ad83780947381E>
   27a76:	782c      	ldrb	r4, [r5, #0]
   27a78:	2c01      	cmp	r4, #1
   27a7a:	d102      	bne.n	27a82 <_start+0x1dea>
   27a7c:	980c      	ldr	r0, [sp, #48]	@ 0x30
   27a7e:	6e06      	ldr	r6, [r0, #96]	@ 0x60
   27a80:	e011      	b.n	27aa6 <_start+0x1e0e>
   27a82:	4978      	ldr	r1, [pc, #480]	@ (27c64 <_start+0x1fcc>)
   27a84:	4469      	add	r1, sp
   27a86:	78c8      	ldrb	r0, [r1, #3]
   27a88:	aa10      	add	r2, sp, #64	@ 0x40
   27a8a:	7090      	strb	r0, [r2, #2]
   27a8c:	7848      	ldrb	r0, [r1, #1]
   27a8e:	788b      	ldrb	r3, [r1, #2]
   27a90:	021b      	lsls	r3, r3, #8
   27a92:	1818      	adds	r0, r3, r0
   27a94:	8010      	strh	r0, [r2, #0]
   27a96:	980c      	ldr	r0, [sp, #48]	@ 0x30
   27a98:	6e06      	ldr	r6, [r0, #96]	@ 0x60
   27a9a:	3108      	adds	r1, #8
   27a9c:	4872      	ldr	r0, [pc, #456]	@ (27c68 <_start+0x1fd0>)
   27a9e:	4468      	add	r0, sp
   27aa0:	2246      	movs	r2, #70	@ 0x46
   27aa2:	f001 fbd4 	bl	2924e <__aeabi_memcpy4>
   27aa6:	2c00      	cmp	r4, #0
   27aa8:	d001      	beq.n	27aae <_start+0x1e16>
   27aaa:	f7fe fb16 	bl	260da <_start+0x442>
   27aae:	4c74      	ldr	r4, [pc, #464]	@ (27c80 <_start+0x1fe8>)
   27ab0:	446c      	add	r4, sp
   27ab2:	70e6      	strb	r6, [r4, #3]
   27ab4:	9810      	ldr	r0, [sp, #64]	@ 0x40
   27ab6:	8020      	strh	r0, [r4, #0]
   27ab8:	0e30      	lsrs	r0, r6, #24
   27aba:	71a0      	strb	r0, [r4, #6]
   27abc:	0c30      	lsrs	r0, r6, #16
   27abe:	7160      	strb	r0, [r4, #5]
   27ac0:	0a30      	lsrs	r0, r6, #8
   27ac2:	7120      	strb	r0, [r4, #4]
   27ac4:	a810      	add	r0, sp, #64	@ 0x40
   27ac6:	7880      	ldrb	r0, [r0, #2]
   27ac8:	70a0      	strb	r0, [r4, #2]
   27aca:	1de0      	adds	r0, r4, #7
   27acc:	4966      	ldr	r1, [pc, #408]	@ (27c68 <_start+0x1fd0>)
   27ace:	4469      	add	r1, sp
   27ad0:	2246      	movs	r2, #70	@ 0x46
   27ad2:	f001 fd1c 	bl	2950e <__aeabi_memcpy>
   27ad6:	4d63      	ldr	r5, [pc, #396]	@ (27c64 <_start+0x1fcc>)
   27ad8:	446d      	add	r5, sp
   27ada:	4628      	mov	r0, r5
   27adc:	4621      	mov	r1, r4
   27ade:	f7fa f827 	bl	21b30 <_ZN20complex_full_dynamic3app17h4f1381ced6575abeE>
   27ae2:	7828      	ldrb	r0, [r5, #0]
   27ae4:	2801      	cmp	r0, #1
   27ae6:	d103      	bne.n	27af0 <_start+0x1e58>
   27ae8:	990c      	ldr	r1, [sp, #48]	@ 0x30
   27aea:	6e09      	ldr	r1, [r1, #96]	@ 0x60
   27aec:	910b      	str	r1, [sp, #44]	@ 0x2c
   27aee:	e019      	b.n	27b24 <_start+0x1e8c>
   27af0:	495c      	ldr	r1, [pc, #368]	@ (27c64 <_start+0x1fcc>)
   27af2:	4469      	add	r1, sp
   27af4:	78ca      	ldrb	r2, [r1, #3]
   27af6:	ab10      	add	r3, sp, #64	@ 0x40
   27af8:	709a      	strb	r2, [r3, #2]
   27afa:	784a      	ldrb	r2, [r1, #1]
   27afc:	788c      	ldrb	r4, [r1, #2]
   27afe:	0224      	lsls	r4, r4, #8
   27b00:	18a2      	adds	r2, r4, r2
   27b02:	801a      	strh	r2, [r3, #0]
   27b04:	3108      	adds	r1, #8
   27b06:	9a0c      	ldr	r2, [sp, #48]	@ 0x30
   27b08:	6e12      	ldr	r2, [r2, #96]	@ 0x60
   27b0a:	920b      	str	r2, [sp, #44]	@ 0x2c
   27b0c:	4a56      	ldr	r2, [pc, #344]	@ (27c68 <_start+0x1fd0>)
   27b0e:	446a      	add	r2, sp
   27b10:	c938      	ldmia	r1!, {r3, r4, r5}
   27b12:	c238      	stmia	r2!, {r3, r4, r5}
   27b14:	c938      	ldmia	r1!, {r3, r4, r5}
   27b16:	c238      	stmia	r2!, {r3, r4, r5}
   27b18:	c938      	ldmia	r1!, {r3, r4, r5}
   27b1a:	c238      	stmia	r2!, {r3, r4, r5}
   27b1c:	c978      	ldmia	r1!, {r3, r4, r5, r6}
   27b1e:	c278      	stmia	r2!, {r3, r4, r5, r6}
   27b20:	7809      	ldrb	r1, [r1, #0]
   27b22:	7011      	strb	r1, [r2, #0]
   27b24:	2800      	cmp	r0, #0
   27b26:	d001      	beq.n	27b2c <_start+0x1e94>
   27b28:	f7fe fc44 	bl	263b4 <_start+0x71c>
   27b2c:	4c55      	ldr	r4, [pc, #340]	@ (27c84 <_start+0x1fec>)
   27b2e:	446c      	add	r4, sp
   27b30:	990b      	ldr	r1, [sp, #44]	@ 0x2c
   27b32:	70e1      	strb	r1, [r4, #3]
   27b34:	9810      	ldr	r0, [sp, #64]	@ 0x40
   27b36:	8020      	strh	r0, [r4, #0]
   27b38:	0e08      	lsrs	r0, r1, #24
   27b3a:	71a0      	strb	r0, [r4, #6]
   27b3c:	0c08      	lsrs	r0, r1, #16
   27b3e:	7160      	strb	r0, [r4, #5]
   27b40:	0a08      	lsrs	r0, r1, #8
   27b42:	7120      	strb	r0, [r4, #4]
   27b44:	a810      	add	r0, sp, #64	@ 0x40
   27b46:	7880      	ldrb	r0, [r0, #2]
   27b48:	70a0      	strb	r0, [r4, #2]
   27b4a:	1de0      	adds	r0, r4, #7
   27b4c:	4946      	ldr	r1, [pc, #280]	@ (27c68 <_start+0x1fd0>)
   27b4e:	4469      	add	r1, sp
   27b50:	2235      	movs	r2, #53	@ 0x35
   27b52:	f001 fcdc 	bl	2950e <__aeabi_memcpy>
   27b56:	4d43      	ldr	r5, [pc, #268]	@ (27c64 <_start+0x1fcc>)
   27b58:	446d      	add	r5, sp
   27b5a:	4628      	mov	r0, r5
   27b5c:	4621      	mov	r1, r4
   27b5e:	f7fd f9bb 	bl	24ed8 <_ZN20complex_full_dynamic3app17he0d53632a2e98b6dE>
   27b62:	7828      	ldrb	r0, [r5, #0]
   27b64:	2801      	cmp	r0, #1
   27b66:	d103      	bne.n	27b70 <_start+0x1ed8>
   27b68:	990c      	ldr	r1, [sp, #48]	@ 0x30
   27b6a:	6e09      	ldr	r1, [r1, #96]	@ 0x60
   27b6c:	910b      	str	r1, [sp, #44]	@ 0x2c
   27b6e:	e017      	b.n	27ba0 <_start+0x1f08>
   27b70:	493c      	ldr	r1, [pc, #240]	@ (27c64 <_start+0x1fcc>)
   27b72:	4469      	add	r1, sp
   27b74:	78ca      	ldrb	r2, [r1, #3]
   27b76:	ab10      	add	r3, sp, #64	@ 0x40
   27b78:	709a      	strb	r2, [r3, #2]
   27b7a:	784a      	ldrb	r2, [r1, #1]
   27b7c:	788c      	ldrb	r4, [r1, #2]
   27b7e:	0224      	lsls	r4, r4, #8
   27b80:	18a2      	adds	r2, r4, r2
   27b82:	801a      	strh	r2, [r3, #0]
   27b84:	3108      	adds	r1, #8
   27b86:	9a0c      	ldr	r2, [sp, #48]	@ 0x30
   27b88:	6e12      	ldr	r2, [r2, #96]	@ 0x60
   27b8a:	920b      	str	r2, [sp, #44]	@ 0x2c
   27b8c:	4a36      	ldr	r2, [pc, #216]	@ (27c68 <_start+0x1fd0>)
   27b8e:	446a      	add	r2, sp
   27b90:	c978      	ldmia	r1!, {r3, r4, r5, r6}
   27b92:	c278      	stmia	r2!, {r3, r4, r5, r6}
   27b94:	c978      	ldmia	r1!, {r3, r4, r5, r6}
   27b96:	c278      	stmia	r2!, {r3, r4, r5, r6}
   27b98:	c978      	ldmia	r1!, {r3, r4, r5, r6}
   27b9a:	c278      	stmia	r2!, {r3, r4, r5, r6}
   27b9c:	7809      	ldrb	r1, [r1, #0]
   27b9e:	7011      	strb	r1, [r2, #0]
   27ba0:	2800      	cmp	r0, #0
   27ba2:	d001      	beq.n	27ba8 <_start+0x1f10>
   27ba4:	f7fe fc06 	bl	263b4 <_start+0x71c>
   27ba8:	4c37      	ldr	r4, [pc, #220]	@ (27c88 <_start+0x1ff0>)
   27baa:	446c      	add	r4, sp
   27bac:	990b      	ldr	r1, [sp, #44]	@ 0x2c
   27bae:	70e1      	strb	r1, [r4, #3]
   27bb0:	9810      	ldr	r0, [sp, #64]	@ 0x40
   27bb2:	8020      	strh	r0, [r4, #0]
   27bb4:	0e08      	lsrs	r0, r1, #24
   27bb6:	71a0      	strb	r0, [r4, #6]
   27bb8:	0c08      	lsrs	r0, r1, #16
   27bba:	7160      	strb	r0, [r4, #5]
   27bbc:	0a08      	lsrs	r0, r1, #8
   27bbe:	7120      	strb	r0, [r4, #4]
   27bc0:	a810      	add	r0, sp, #64	@ 0x40
   27bc2:	7880      	ldrb	r0, [r0, #2]
   27bc4:	70a0      	strb	r0, [r4, #2]
   27bc6:	1de0      	adds	r0, r4, #7
   27bc8:	4927      	ldr	r1, [pc, #156]	@ (27c68 <_start+0x1fd0>)
   27bca:	4469      	add	r1, sp
   27bcc:	2231      	movs	r2, #49	@ 0x31
   27bce:	f001 fc9e 	bl	2950e <__aeabi_memcpy>
   27bd2:	4d24      	ldr	r5, [pc, #144]	@ (27c64 <_start+0x1fcc>)
   27bd4:	446d      	add	r5, sp
   27bd6:	4628      	mov	r0, r5
   27bd8:	4621      	mov	r1, r4
   27bda:	f7fb fb57 	bl	2328c <_ZN20complex_full_dynamic3app17h8f8891883fb4ba64E>
   27bde:	7828      	ldrb	r0, [r5, #0]
   27be0:	2801      	cmp	r0, #1
   27be2:	d105      	bne.n	27bf0 <_start+0x1f58>
   27be4:	990c      	ldr	r1, [sp, #48]	@ 0x30
   27be6:	6e09      	ldr	r1, [r1, #96]	@ 0x60
   27be8:	910b      	str	r1, [sp, #44]	@ 0x2c
   27bea:	e015      	b.n	27c18 <_start+0x1f80>
   27bec:	00001414 	.word	0x00001414
   27bf0:	491c      	ldr	r1, [pc, #112]	@ (27c64 <_start+0x1fcc>)
   27bf2:	4469      	add	r1, sp
   27bf4:	78ca      	ldrb	r2, [r1, #3]
   27bf6:	ab10      	add	r3, sp, #64	@ 0x40
   27bf8:	709a      	strb	r2, [r3, #2]
   27bfa:	784a      	ldrb	r2, [r1, #1]
   27bfc:	788c      	ldrb	r4, [r1, #2]
   27bfe:	0224      	lsls	r4, r4, #8
   27c00:	18a2      	adds	r2, r4, r2
   27c02:	801a      	strh	r2, [r3, #0]
   27c04:	3108      	adds	r1, #8
   27c06:	9a0c      	ldr	r2, [sp, #48]	@ 0x30
   27c08:	6e12      	ldr	r2, [r2, #96]	@ 0x60
   27c0a:	920b      	str	r2, [sp, #44]	@ 0x2c
   27c0c:	4a16      	ldr	r2, [pc, #88]	@ (27c68 <_start+0x1fd0>)
   27c0e:	446a      	add	r2, sp
   27c10:	c978      	ldmia	r1!, {r3, r4, r5, r6}
   27c12:	c278      	stmia	r2!, {r3, r4, r5, r6}
   27c14:	c978      	ldmia	r1!, {r3, r4, r5, r6}
   27c16:	c278      	stmia	r2!, {r3, r4, r5, r6}
   27c18:	2800      	cmp	r0, #0
   27c1a:	d001      	beq.n	27c20 <_start+0x1f88>
   27c1c:	f7fe fbca 	bl	263b4 <_start+0x71c>
   27c20:	4c1a      	ldr	r4, [pc, #104]	@ (27c8c <_start+0x1ff4>)
   27c22:	446c      	add	r4, sp
   27c24:	990b      	ldr	r1, [sp, #44]	@ 0x2c
   27c26:	70e1      	strb	r1, [r4, #3]
   27c28:	9810      	ldr	r0, [sp, #64]	@ 0x40
   27c2a:	8020      	strh	r0, [r4, #0]
   27c2c:	0e08      	lsrs	r0, r1, #24
   27c2e:	71a0      	strb	r0, [r4, #6]
   27c30:	0c08      	lsrs	r0, r1, #16
   27c32:	7160      	strb	r0, [r4, #5]
   27c34:	0a08      	lsrs	r0, r1, #8
   27c36:	7120      	strb	r0, [r4, #4]
   27c38:	a810      	add	r0, sp, #64	@ 0x40
   27c3a:	7880      	ldrb	r0, [r0, #2]
   27c3c:	70a0      	strb	r0, [r4, #2]
   27c3e:	1de0      	adds	r0, r4, #7
   27c40:	4909      	ldr	r1, [pc, #36]	@ (27c68 <_start+0x1fd0>)
   27c42:	4469      	add	r1, sp
   27c44:	2220      	movs	r2, #32
   27c46:	f001 fc62 	bl	2950e <__aeabi_memcpy>
   27c4a:	4d06      	ldr	r5, [pc, #24]	@ (27c64 <_start+0x1fcc>)
   27c4c:	446d      	add	r5, sp
   27c4e:	4628      	mov	r0, r5
   27c50:	4621      	mov	r1, r4
   27c52:	f7fa fe37 	bl	228c4 <_ZN20complex_full_dynamic3app17h73aae6c5e9e52d1dE>
   27c56:	782c      	ldrb	r4, [r5, #0]
   27c58:	2c01      	cmp	r4, #1
   27c5a:	d119      	bne.n	27c90 <_start+0x1ff8>
   27c5c:	980c      	ldr	r0, [sp, #48]	@ 0x30
   27c5e:	6e06      	ldr	r6, [r0, #96]	@ 0x60
   27c60:	e028      	b.n	27cb4 <_start+0x201c>
   27c62:	46c0      	nop			@ (mov r8, r8)
   27c64:	00001414 	.word	0x00001414
   27c68:	000013b8 	.word	0x000013b8
   27c6c:	000008e8 	.word	0x000008e8
   27c70:	0000090c 	.word	0x0000090c
   27c74:	00000938 	.word	0x00000938
   27c78:	00000948 	.word	0x00000948
   27c7c:	0000096c 	.word	0x0000096c
   27c80:	000009c0 	.word	0x000009c0
   27c84:	00000a10 	.word	0x00000a10
   27c88:	00000a4c 	.word	0x00000a4c
   27c8c:	00000a84 	.word	0x00000a84
   27c90:	49fd      	ldr	r1, [pc, #1012]	@ (28088 <_start+0x23f0>)
   27c92:	4469      	add	r1, sp
   27c94:	78c8      	ldrb	r0, [r1, #3]
   27c96:	aa10      	add	r2, sp, #64	@ 0x40
   27c98:	7090      	strb	r0, [r2, #2]
   27c9a:	7848      	ldrb	r0, [r1, #1]
   27c9c:	788b      	ldrb	r3, [r1, #2]
   27c9e:	021b      	lsls	r3, r3, #8
   27ca0:	1818      	adds	r0, r3, r0
   27ca2:	8010      	strh	r0, [r2, #0]
   27ca4:	980c      	ldr	r0, [sp, #48]	@ 0x30
   27ca6:	6e06      	ldr	r6, [r0, #96]	@ 0x60
   27ca8:	3108      	adds	r1, #8
   27caa:	48f8      	ldr	r0, [pc, #992]	@ (2808c <_start+0x23f4>)
   27cac:	4468      	add	r0, sp
   27cae:	224a      	movs	r2, #74	@ 0x4a
   27cb0:	f001 facd 	bl	2924e <__aeabi_memcpy4>
   27cb4:	2c00      	cmp	r4, #0
   27cb6:	d001      	beq.n	27cbc <_start+0x2024>
   27cb8:	f7fe fa0f 	bl	260da <_start+0x442>
   27cbc:	4cf4      	ldr	r4, [pc, #976]	@ (28090 <_start+0x23f8>)
   27cbe:	446c      	add	r4, sp
   27cc0:	70e6      	strb	r6, [r4, #3]
   27cc2:	9810      	ldr	r0, [sp, #64]	@ 0x40
   27cc4:	8020      	strh	r0, [r4, #0]
   27cc6:	0e30      	lsrs	r0, r6, #24
   27cc8:	71a0      	strb	r0, [r4, #6]
   27cca:	0c30      	lsrs	r0, r6, #16
   27ccc:	7160      	strb	r0, [r4, #5]
   27cce:	0a30      	lsrs	r0, r6, #8
   27cd0:	7120      	strb	r0, [r4, #4]
   27cd2:	a810      	add	r0, sp, #64	@ 0x40
   27cd4:	7880      	ldrb	r0, [r0, #2]
   27cd6:	70a0      	strb	r0, [r4, #2]
   27cd8:	1de0      	adds	r0, r4, #7
   27cda:	49ec      	ldr	r1, [pc, #944]	@ (2808c <_start+0x23f4>)
   27cdc:	4469      	add	r1, sp
   27cde:	224a      	movs	r2, #74	@ 0x4a
   27ce0:	f001 fc15 	bl	2950e <__aeabi_memcpy>
   27ce4:	4de8      	ldr	r5, [pc, #928]	@ (28088 <_start+0x23f0>)
   27ce6:	446d      	add	r5, sp
   27ce8:	4628      	mov	r0, r5
   27cea:	4621      	mov	r1, r4
   27cec:	f7fc fffe 	bl	24cec <_ZN20complex_full_dynamic3app17hdd46635be358490eE>
   27cf0:	782c      	ldrb	r4, [r5, #0]
   27cf2:	2c01      	cmp	r4, #1
   27cf4:	d102      	bne.n	27cfc <_start+0x2064>
   27cf6:	980c      	ldr	r0, [sp, #48]	@ 0x30
   27cf8:	6e06      	ldr	r6, [r0, #96]	@ 0x60
   27cfa:	e011      	b.n	27d20 <_start+0x2088>
   27cfc:	49e2      	ldr	r1, [pc, #904]	@ (28088 <_start+0x23f0>)
   27cfe:	4469      	add	r1, sp
   27d00:	78c8      	ldrb	r0, [r1, #3]
   27d02:	aa10      	add	r2, sp, #64	@ 0x40
   27d04:	7090      	strb	r0, [r2, #2]
   27d06:	7848      	ldrb	r0, [r1, #1]
   27d08:	788b      	ldrb	r3, [r1, #2]
   27d0a:	021b      	lsls	r3, r3, #8
   27d0c:	1818      	adds	r0, r3, r0
   27d0e:	8010      	strh	r0, [r2, #0]
   27d10:	980c      	ldr	r0, [sp, #48]	@ 0x30
   27d12:	6e06      	ldr	r6, [r0, #96]	@ 0x60
   27d14:	3108      	adds	r1, #8
   27d16:	48dd      	ldr	r0, [pc, #884]	@ (2808c <_start+0x23f4>)
   27d18:	4468      	add	r0, sp
   27d1a:	2248      	movs	r2, #72	@ 0x48
   27d1c:	f001 fa97 	bl	2924e <__aeabi_memcpy4>
   27d20:	2c00      	cmp	r4, #0
   27d22:	d001      	beq.n	27d28 <_start+0x2090>
   27d24:	f7fe f9d9 	bl	260da <_start+0x442>
   27d28:	4cda      	ldr	r4, [pc, #872]	@ (28094 <_start+0x23fc>)
   27d2a:	446c      	add	r4, sp
   27d2c:	70e6      	strb	r6, [r4, #3]
   27d2e:	9810      	ldr	r0, [sp, #64]	@ 0x40
   27d30:	8020      	strh	r0, [r4, #0]
   27d32:	0e30      	lsrs	r0, r6, #24
   27d34:	71a0      	strb	r0, [r4, #6]
   27d36:	0c30      	lsrs	r0, r6, #16
   27d38:	7160      	strb	r0, [r4, #5]
   27d3a:	0a30      	lsrs	r0, r6, #8
   27d3c:	7120      	strb	r0, [r4, #4]
   27d3e:	a810      	add	r0, sp, #64	@ 0x40
   27d40:	7880      	ldrb	r0, [r0, #2]
   27d42:	70a0      	strb	r0, [r4, #2]
   27d44:	1de0      	adds	r0, r4, #7
   27d46:	49d1      	ldr	r1, [pc, #836]	@ (2808c <_start+0x23f4>)
   27d48:	4469      	add	r1, sp
   27d4a:	2248      	movs	r2, #72	@ 0x48
   27d4c:	f001 fbdf 	bl	2950e <__aeabi_memcpy>
   27d50:	4dcd      	ldr	r5, [pc, #820]	@ (28088 <_start+0x23f0>)
   27d52:	446d      	add	r5, sp
   27d54:	4628      	mov	r0, r5
   27d56:	4621      	mov	r1, r4
   27d58:	f7fa fbc2 	bl	224e0 <_ZN20complex_full_dynamic3app17h68f72fe52a0025dcE>
   27d5c:	782c      	ldrb	r4, [r5, #0]
   27d5e:	2c01      	cmp	r4, #1
   27d60:	d102      	bne.n	27d68 <_start+0x20d0>
   27d62:	980c      	ldr	r0, [sp, #48]	@ 0x30
   27d64:	6e06      	ldr	r6, [r0, #96]	@ 0x60
   27d66:	e011      	b.n	27d8c <_start+0x20f4>
   27d68:	49c7      	ldr	r1, [pc, #796]	@ (28088 <_start+0x23f0>)
   27d6a:	4469      	add	r1, sp
   27d6c:	78c8      	ldrb	r0, [r1, #3]
   27d6e:	aa10      	add	r2, sp, #64	@ 0x40
   27d70:	7090      	strb	r0, [r2, #2]
   27d72:	7848      	ldrb	r0, [r1, #1]
   27d74:	788b      	ldrb	r3, [r1, #2]
   27d76:	021b      	lsls	r3, r3, #8
   27d78:	1818      	adds	r0, r3, r0
   27d7a:	8010      	strh	r0, [r2, #0]
   27d7c:	980c      	ldr	r0, [sp, #48]	@ 0x30
   27d7e:	6e06      	ldr	r6, [r0, #96]	@ 0x60
   27d80:	3108      	adds	r1, #8
   27d82:	48c2      	ldr	r0, [pc, #776]	@ (2808c <_start+0x23f4>)
   27d84:	4468      	add	r0, sp
   27d86:	225a      	movs	r2, #90	@ 0x5a
   27d88:	f001 fa61 	bl	2924e <__aeabi_memcpy4>
   27d8c:	2c00      	cmp	r4, #0
   27d8e:	d001      	beq.n	27d94 <_start+0x20fc>
   27d90:	f7fe f9a3 	bl	260da <_start+0x442>
   27d94:	4cc0      	ldr	r4, [pc, #768]	@ (28098 <_start+0x2400>)
   27d96:	446c      	add	r4, sp
   27d98:	70e6      	strb	r6, [r4, #3]
   27d9a:	9810      	ldr	r0, [sp, #64]	@ 0x40
   27d9c:	8020      	strh	r0, [r4, #0]
   27d9e:	0e30      	lsrs	r0, r6, #24
   27da0:	71a0      	strb	r0, [r4, #6]
   27da2:	0c30      	lsrs	r0, r6, #16
   27da4:	7160      	strb	r0, [r4, #5]
   27da6:	0a30      	lsrs	r0, r6, #8
   27da8:	7120      	strb	r0, [r4, #4]
   27daa:	a810      	add	r0, sp, #64	@ 0x40
   27dac:	7880      	ldrb	r0, [r0, #2]
   27dae:	70a0      	strb	r0, [r4, #2]
   27db0:	1de0      	adds	r0, r4, #7
   27db2:	49b6      	ldr	r1, [pc, #728]	@ (2808c <_start+0x23f4>)
   27db4:	4469      	add	r1, sp
   27db6:	225a      	movs	r2, #90	@ 0x5a
   27db8:	f001 fba9 	bl	2950e <__aeabi_memcpy>
   27dbc:	4db2      	ldr	r5, [pc, #712]	@ (28088 <_start+0x23f0>)
   27dbe:	446d      	add	r5, sp
   27dc0:	4628      	mov	r0, r5
   27dc2:	4621      	mov	r1, r4
   27dc4:	f7fd fa7e 	bl	252c4 <_ZN20complex_full_dynamic3app17he40cc4303f8ef72eE>
   27dc8:	7828      	ldrb	r0, [r5, #0]
   27dca:	2801      	cmp	r0, #1
   27dcc:	d102      	bne.n	27dd4 <_start+0x213c>
   27dce:	990c      	ldr	r1, [sp, #48]	@ 0x30
   27dd0:	6e0e      	ldr	r6, [r1, #96]	@ 0x60
   27dd2:	e016      	b.n	27e02 <_start+0x216a>
   27dd4:	49ac      	ldr	r1, [pc, #688]	@ (28088 <_start+0x23f0>)
   27dd6:	4469      	add	r1, sp
   27dd8:	78ca      	ldrb	r2, [r1, #3]
   27dda:	ab10      	add	r3, sp, #64	@ 0x40
   27ddc:	709a      	strb	r2, [r3, #2]
   27dde:	784a      	ldrb	r2, [r1, #1]
   27de0:	788c      	ldrb	r4, [r1, #2]
   27de2:	0224      	lsls	r4, r4, #8
   27de4:	18a2      	adds	r2, r4, r2
   27de6:	801a      	strh	r2, [r3, #0]
   27de8:	3108      	adds	r1, #8
   27dea:	9a0c      	ldr	r2, [sp, #48]	@ 0x30
   27dec:	6e16      	ldr	r6, [r2, #96]	@ 0x60
   27dee:	4aa7      	ldr	r2, [pc, #668]	@ (2808c <_start+0x23f4>)
   27df0:	446a      	add	r2, sp
   27df2:	c918      	ldmia	r1!, {r3, r4}
   27df4:	c218      	stmia	r2!, {r3, r4}
   27df6:	c938      	ldmia	r1!, {r3, r4, r5}
   27df8:	c238      	stmia	r2!, {r3, r4, r5}
   27dfa:	880b      	ldrh	r3, [r1, #0]
   27dfc:	8013      	strh	r3, [r2, #0]
   27dfe:	7889      	ldrb	r1, [r1, #2]
   27e00:	7091      	strb	r1, [r2, #2]
   27e02:	2800      	cmp	r0, #0
   27e04:	d001      	beq.n	27e0a <_start+0x2172>
   27e06:	f7fe f968 	bl	260da <_start+0x442>
   27e0a:	4ca4      	ldr	r4, [pc, #656]	@ (2809c <_start+0x2404>)
   27e0c:	446c      	add	r4, sp
   27e0e:	70e6      	strb	r6, [r4, #3]
   27e10:	9810      	ldr	r0, [sp, #64]	@ 0x40
   27e12:	8020      	strh	r0, [r4, #0]
   27e14:	0e30      	lsrs	r0, r6, #24
   27e16:	71a0      	strb	r0, [r4, #6]
   27e18:	0c30      	lsrs	r0, r6, #16
   27e1a:	7160      	strb	r0, [r4, #5]
   27e1c:	0a30      	lsrs	r0, r6, #8
   27e1e:	7120      	strb	r0, [r4, #4]
   27e20:	a810      	add	r0, sp, #64	@ 0x40
   27e22:	7880      	ldrb	r0, [r0, #2]
   27e24:	70a0      	strb	r0, [r4, #2]
   27e26:	1de0      	adds	r0, r4, #7
   27e28:	4998      	ldr	r1, [pc, #608]	@ (2808c <_start+0x23f4>)
   27e2a:	4469      	add	r1, sp
   27e2c:	2217      	movs	r2, #23
   27e2e:	f001 fb6e 	bl	2950e <__aeabi_memcpy>
   27e32:	4d95      	ldr	r5, [pc, #596]	@ (28088 <_start+0x23f0>)
   27e34:	446d      	add	r5, sp
   27e36:	4628      	mov	r0, r5
   27e38:	4621      	mov	r1, r4
   27e3a:	f7fc ffd1 	bl	24de0 <_ZN20complex_full_dynamic3app17hded6404493d9370eE>
   27e3e:	7828      	ldrb	r0, [r5, #0]
   27e40:	2801      	cmp	r0, #1
   27e42:	d102      	bne.n	27e4a <_start+0x21b2>
   27e44:	990c      	ldr	r1, [sp, #48]	@ 0x30
   27e46:	6e0e      	ldr	r6, [r1, #96]	@ 0x60
   27e48:	e014      	b.n	27e74 <_start+0x21dc>
   27e4a:	498f      	ldr	r1, [pc, #572]	@ (28088 <_start+0x23f0>)
   27e4c:	4469      	add	r1, sp
   27e4e:	78ca      	ldrb	r2, [r1, #3]
   27e50:	ab10      	add	r3, sp, #64	@ 0x40
   27e52:	709a      	strb	r2, [r3, #2]
   27e54:	784a      	ldrb	r2, [r1, #1]
   27e56:	788c      	ldrb	r4, [r1, #2]
   27e58:	0224      	lsls	r4, r4, #8
   27e5a:	18a2      	adds	r2, r4, r2
   27e5c:	801a      	strh	r2, [r3, #0]
   27e5e:	3108      	adds	r1, #8
   27e60:	9a0c      	ldr	r2, [sp, #48]	@ 0x30
   27e62:	6e16      	ldr	r6, [r2, #96]	@ 0x60
   27e64:	4a89      	ldr	r2, [pc, #548]	@ (2808c <_start+0x23f4>)
   27e66:	446a      	add	r2, sp
   27e68:	c938      	ldmia	r1!, {r3, r4, r5}
   27e6a:	c238      	stmia	r2!, {r3, r4, r5}
   27e6c:	c938      	ldmia	r1!, {r3, r4, r5}
   27e6e:	c238      	stmia	r2!, {r3, r4, r5}
   27e70:	8809      	ldrh	r1, [r1, #0]
   27e72:	8011      	strh	r1, [r2, #0]
   27e74:	2800      	cmp	r0, #0
   27e76:	d001      	beq.n	27e7c <_start+0x21e4>
   27e78:	f7fe f92f 	bl	260da <_start+0x442>
   27e7c:	4c88      	ldr	r4, [pc, #544]	@ (280a0 <_start+0x2408>)
   27e7e:	446c      	add	r4, sp
   27e80:	70e6      	strb	r6, [r4, #3]
   27e82:	9810      	ldr	r0, [sp, #64]	@ 0x40
   27e84:	8020      	strh	r0, [r4, #0]
   27e86:	0e30      	lsrs	r0, r6, #24
   27e88:	71a0      	strb	r0, [r4, #6]
   27e8a:	0c30      	lsrs	r0, r6, #16
   27e8c:	7160      	strb	r0, [r4, #5]
   27e8e:	0a30      	lsrs	r0, r6, #8
   27e90:	7120      	strb	r0, [r4, #4]
   27e92:	a810      	add	r0, sp, #64	@ 0x40
   27e94:	7880      	ldrb	r0, [r0, #2]
   27e96:	70a0      	strb	r0, [r4, #2]
   27e98:	1de0      	adds	r0, r4, #7
   27e9a:	497c      	ldr	r1, [pc, #496]	@ (2808c <_start+0x23f4>)
   27e9c:	4469      	add	r1, sp
   27e9e:	221a      	movs	r2, #26
   27ea0:	f001 fb35 	bl	2950e <__aeabi_memcpy>
   27ea4:	4d78      	ldr	r5, [pc, #480]	@ (28088 <_start+0x23f0>)
   27ea6:	446d      	add	r5, sp
   27ea8:	4628      	mov	r0, r5
   27eaa:	4621      	mov	r1, r4
   27eac:	f7fc fcb4 	bl	24818 <_ZN20complex_full_dynamic3app17hcfc0cc1744504c3fE>
   27eb0:	7828      	ldrb	r0, [r5, #0]
   27eb2:	2801      	cmp	r0, #1
   27eb4:	d103      	bne.n	27ebe <_start+0x2226>
   27eb6:	990c      	ldr	r1, [sp, #48]	@ 0x30
   27eb8:	6e09      	ldr	r1, [r1, #96]	@ 0x60
   27eba:	910b      	str	r1, [sp, #44]	@ 0x2c
   27ebc:	e017      	b.n	27eee <_start+0x2256>
   27ebe:	4972      	ldr	r1, [pc, #456]	@ (28088 <_start+0x23f0>)
   27ec0:	4469      	add	r1, sp
   27ec2:	78ca      	ldrb	r2, [r1, #3]
   27ec4:	ab10      	add	r3, sp, #64	@ 0x40
   27ec6:	709a      	strb	r2, [r3, #2]
   27ec8:	784a      	ldrb	r2, [r1, #1]
   27eca:	788c      	ldrb	r4, [r1, #2]
   27ecc:	0224      	lsls	r4, r4, #8
   27ece:	18a2      	adds	r2, r4, r2
   27ed0:	801a      	strh	r2, [r3, #0]
   27ed2:	3108      	adds	r1, #8
   27ed4:	9a0c      	ldr	r2, [sp, #48]	@ 0x30
   27ed6:	6e12      	ldr	r2, [r2, #96]	@ 0x60
   27ed8:	920b      	str	r2, [sp, #44]	@ 0x2c
   27eda:	4a6c      	ldr	r2, [pc, #432]	@ (2808c <_start+0x23f4>)
   27edc:	446a      	add	r2, sp
   27ede:	c978      	ldmia	r1!, {r3, r4, r5, r6}
   27ee0:	c278      	stmia	r2!, {r3, r4, r5, r6}
   27ee2:	c978      	ldmia	r1!, {r3, r4, r5, r6}
   27ee4:	c278      	stmia	r2!, {r3, r4, r5, r6}
   27ee6:	880b      	ldrh	r3, [r1, #0]
   27ee8:	8013      	strh	r3, [r2, #0]
   27eea:	7889      	ldrb	r1, [r1, #2]
   27eec:	7091      	strb	r1, [r2, #2]
   27eee:	2800      	cmp	r0, #0
   27ef0:	d001      	beq.n	27ef6 <_start+0x225e>
   27ef2:	f7fe fa5f 	bl	263b4 <_start+0x71c>
   27ef6:	4c6b      	ldr	r4, [pc, #428]	@ (280a4 <_start+0x240c>)
   27ef8:	446c      	add	r4, sp
   27efa:	990b      	ldr	r1, [sp, #44]	@ 0x2c
   27efc:	70e1      	strb	r1, [r4, #3]
   27efe:	9810      	ldr	r0, [sp, #64]	@ 0x40
   27f00:	8020      	strh	r0, [r4, #0]
   27f02:	0e08      	lsrs	r0, r1, #24
   27f04:	71a0      	strb	r0, [r4, #6]
   27f06:	0c08      	lsrs	r0, r1, #16
   27f08:	7160      	strb	r0, [r4, #5]
   27f0a:	0a08      	lsrs	r0, r1, #8
   27f0c:	7120      	strb	r0, [r4, #4]
   27f0e:	a810      	add	r0, sp, #64	@ 0x40
   27f10:	7880      	ldrb	r0, [r0, #2]
   27f12:	70a0      	strb	r0, [r4, #2]
   27f14:	1de0      	adds	r0, r4, #7
   27f16:	495d      	ldr	r1, [pc, #372]	@ (2808c <_start+0x23f4>)
   27f18:	4469      	add	r1, sp
   27f1a:	2223      	movs	r2, #35	@ 0x23
   27f1c:	f001 faf7 	bl	2950e <__aeabi_memcpy>
   27f20:	4d59      	ldr	r5, [pc, #356]	@ (28088 <_start+0x23f0>)
   27f22:	446d      	add	r5, sp
   27f24:	4628      	mov	r0, r5
   27f26:	4621      	mov	r1, r4
   27f28:	f7f9 fa9a 	bl	21460 <_ZN20complex_full_dynamic3app17h3fd1cbf443dad46cE>
   27f2c:	782c      	ldrb	r4, [r5, #0]
   27f2e:	2c01      	cmp	r4, #1
   27f30:	d102      	bne.n	27f38 <_start+0x22a0>
   27f32:	980c      	ldr	r0, [sp, #48]	@ 0x30
   27f34:	6e06      	ldr	r6, [r0, #96]	@ 0x60
   27f36:	e011      	b.n	27f5c <_start+0x22c4>
   27f38:	4953      	ldr	r1, [pc, #332]	@ (28088 <_start+0x23f0>)
   27f3a:	4469      	add	r1, sp
   27f3c:	78c8      	ldrb	r0, [r1, #3]
   27f3e:	aa10      	add	r2, sp, #64	@ 0x40
   27f40:	7090      	strb	r0, [r2, #2]
   27f42:	7848      	ldrb	r0, [r1, #1]
   27f44:	788b      	ldrb	r3, [r1, #2]
   27f46:	021b      	lsls	r3, r3, #8
   27f48:	1818      	adds	r0, r3, r0
   27f4a:	8010      	strh	r0, [r2, #0]
   27f4c:	980c      	ldr	r0, [sp, #48]	@ 0x30
   27f4e:	6e06      	ldr	r6, [r0, #96]	@ 0x60
   27f50:	3108      	adds	r1, #8
   27f52:	484e      	ldr	r0, [pc, #312]	@ (2808c <_start+0x23f4>)
   27f54:	4468      	add	r0, sp
   27f56:	2252      	movs	r2, #82	@ 0x52
   27f58:	f001 f979 	bl	2924e <__aeabi_memcpy4>
   27f5c:	2c00      	cmp	r4, #0
   27f5e:	d001      	beq.n	27f64 <_start+0x22cc>
   27f60:	f7fe f8bb 	bl	260da <_start+0x442>
   27f64:	4c50      	ldr	r4, [pc, #320]	@ (280a8 <_start+0x2410>)
   27f66:	446c      	add	r4, sp
   27f68:	70e6      	strb	r6, [r4, #3]
   27f6a:	9810      	ldr	r0, [sp, #64]	@ 0x40
   27f6c:	8020      	strh	r0, [r4, #0]
   27f6e:	0e30      	lsrs	r0, r6, #24
   27f70:	71a0      	strb	r0, [r4, #6]
   27f72:	0c30      	lsrs	r0, r6, #16
   27f74:	7160      	strb	r0, [r4, #5]
   27f76:	0a30      	lsrs	r0, r6, #8
   27f78:	7120      	strb	r0, [r4, #4]
   27f7a:	a810      	add	r0, sp, #64	@ 0x40
   27f7c:	7880      	ldrb	r0, [r0, #2]
   27f7e:	70a0      	strb	r0, [r4, #2]
   27f80:	1de0      	adds	r0, r4, #7
   27f82:	4942      	ldr	r1, [pc, #264]	@ (2808c <_start+0x23f4>)
   27f84:	4469      	add	r1, sp
   27f86:	2252      	movs	r2, #82	@ 0x52
   27f88:	f001 fac1 	bl	2950e <__aeabi_memcpy>
   27f8c:	4d3e      	ldr	r5, [pc, #248]	@ (28088 <_start+0x23f0>)
   27f8e:	446d      	add	r5, sp
   27f90:	4628      	mov	r0, r5
   27f92:	4621      	mov	r1, r4
   27f94:	f7fc fd34 	bl	24a00 <_ZN20complex_full_dynamic3app17hd881d445f8611492E>
   27f98:	782c      	ldrb	r4, [r5, #0]
   27f9a:	2c01      	cmp	r4, #1
   27f9c:	d102      	bne.n	27fa4 <_start+0x230c>
   27f9e:	980c      	ldr	r0, [sp, #48]	@ 0x30
   27fa0:	6e06      	ldr	r6, [r0, #96]	@ 0x60
   27fa2:	e011      	b.n	27fc8 <_start+0x2330>
   27fa4:	4938      	ldr	r1, [pc, #224]	@ (28088 <_start+0x23f0>)
   27fa6:	4469      	add	r1, sp
   27fa8:	78c8      	ldrb	r0, [r1, #3]
   27faa:	aa10      	add	r2, sp, #64	@ 0x40
   27fac:	7090      	strb	r0, [r2, #2]
   27fae:	7848      	ldrb	r0, [r1, #1]
   27fb0:	788b      	ldrb	r3, [r1, #2]
   27fb2:	021b      	lsls	r3, r3, #8
   27fb4:	1818      	adds	r0, r3, r0
   27fb6:	8010      	strh	r0, [r2, #0]
   27fb8:	980c      	ldr	r0, [sp, #48]	@ 0x30
   27fba:	6e06      	ldr	r6, [r0, #96]	@ 0x60
   27fbc:	3108      	adds	r1, #8
   27fbe:	4833      	ldr	r0, [pc, #204]	@ (2808c <_start+0x23f4>)
   27fc0:	4468      	add	r0, sp
   27fc2:	2243      	movs	r2, #67	@ 0x43
   27fc4:	f001 f943 	bl	2924e <__aeabi_memcpy4>
   27fc8:	2c00      	cmp	r4, #0
   27fca:	d001      	beq.n	27fd0 <_start+0x2338>
   27fcc:	f7fe f885 	bl	260da <_start+0x442>
   27fd0:	4c36      	ldr	r4, [pc, #216]	@ (280ac <_start+0x2414>)
   27fd2:	446c      	add	r4, sp
   27fd4:	70e6      	strb	r6, [r4, #3]
   27fd6:	9810      	ldr	r0, [sp, #64]	@ 0x40
   27fd8:	8020      	strh	r0, [r4, #0]
   27fda:	0e30      	lsrs	r0, r6, #24
   27fdc:	71a0      	strb	r0, [r4, #6]
   27fde:	0c30      	lsrs	r0, r6, #16
   27fe0:	7160      	strb	r0, [r4, #5]
   27fe2:	0a30      	lsrs	r0, r6, #8
   27fe4:	7120      	strb	r0, [r4, #4]
   27fe6:	a810      	add	r0, sp, #64	@ 0x40
   27fe8:	7880      	ldrb	r0, [r0, #2]
   27fea:	70a0      	strb	r0, [r4, #2]
   27fec:	1de0      	adds	r0, r4, #7
   27fee:	4927      	ldr	r1, [pc, #156]	@ (2808c <_start+0x23f4>)
   27ff0:	4469      	add	r1, sp
   27ff2:	2243      	movs	r2, #67	@ 0x43
   27ff4:	f001 fa8b 	bl	2950e <__aeabi_memcpy>
   27ff8:	4d23      	ldr	r5, [pc, #140]	@ (28088 <_start+0x23f0>)
   27ffa:	446d      	add	r5, sp
   27ffc:	4628      	mov	r0, r5
   27ffe:	4621      	mov	r1, r4
   28000:	f7fb f9c0 	bl	23384 <_ZN20complex_full_dynamic3app17h975d644cd24a92cbE>
   28004:	7828      	ldrb	r0, [r5, #0]
   28006:	2801      	cmp	r0, #1
   28008:	d102      	bne.n	28010 <_start+0x2378>
   2800a:	990c      	ldr	r1, [sp, #48]	@ 0x30
   2800c:	6e0e      	ldr	r6, [r1, #96]	@ 0x60
   2800e:	e016      	b.n	2803e <_start+0x23a6>
   28010:	491d      	ldr	r1, [pc, #116]	@ (28088 <_start+0x23f0>)
   28012:	4469      	add	r1, sp
   28014:	78ca      	ldrb	r2, [r1, #3]
   28016:	ab10      	add	r3, sp, #64	@ 0x40
   28018:	709a      	strb	r2, [r3, #2]
   2801a:	784a      	ldrb	r2, [r1, #1]
   2801c:	788c      	ldrb	r4, [r1, #2]
   2801e:	0224      	lsls	r4, r4, #8
   28020:	18a2      	adds	r2, r4, r2
   28022:	801a      	strh	r2, [r3, #0]
   28024:	3108      	adds	r1, #8
   28026:	9a0c      	ldr	r2, [sp, #48]	@ 0x30
   28028:	6e16      	ldr	r6, [r2, #96]	@ 0x60
   2802a:	4a18      	ldr	r2, [pc, #96]	@ (2808c <_start+0x23f4>)
   2802c:	446a      	add	r2, sp
   2802e:	c938      	ldmia	r1!, {r3, r4, r5}
   28030:	c238      	stmia	r2!, {r3, r4, r5}
   28032:	c938      	ldmia	r1!, {r3, r4, r5}
   28034:	c238      	stmia	r2!, {r3, r4, r5}
   28036:	c938      	ldmia	r1!, {r3, r4, r5}
   28038:	c238      	stmia	r2!, {r3, r4, r5}
   2803a:	8809      	ldrh	r1, [r1, #0]
   2803c:	8011      	strh	r1, [r2, #0]
   2803e:	2800      	cmp	r0, #0
   28040:	d001      	beq.n	28046 <_start+0x23ae>
   28042:	f7fe f84a 	bl	260da <_start+0x442>
   28046:	4c1a      	ldr	r4, [pc, #104]	@ (280b0 <_start+0x2418>)
   28048:	446c      	add	r4, sp
   2804a:	70e6      	strb	r6, [r4, #3]
   2804c:	9810      	ldr	r0, [sp, #64]	@ 0x40
   2804e:	8020      	strh	r0, [r4, #0]
   28050:	0e30      	lsrs	r0, r6, #24
   28052:	71a0      	strb	r0, [r4, #6]
   28054:	0c30      	lsrs	r0, r6, #16
   28056:	7160      	strb	r0, [r4, #5]
   28058:	0a30      	lsrs	r0, r6, #8
   2805a:	7120      	strb	r0, [r4, #4]
   2805c:	a810      	add	r0, sp, #64	@ 0x40
   2805e:	7880      	ldrb	r0, [r0, #2]
   28060:	70a0      	strb	r0, [r4, #2]
   28062:	1de0      	adds	r0, r4, #7
   28064:	4909      	ldr	r1, [pc, #36]	@ (2808c <_start+0x23f4>)
   28066:	4469      	add	r1, sp
   28068:	2226      	movs	r2, #38	@ 0x26
   2806a:	f001 fa50 	bl	2950e <__aeabi_memcpy>
   2806e:	4d06      	ldr	r5, [pc, #24]	@ (28088 <_start+0x23f0>)
   28070:	446d      	add	r5, sp
   28072:	4628      	mov	r0, r5
   28074:	4621      	mov	r1, r4
   28076:	f7f9 f87d 	bl	21174 <_ZN20complex_full_dynamic3app17h3c929787cbe704c0E>
   2807a:	782c      	ldrb	r4, [r5, #0]
   2807c:	2c01      	cmp	r4, #1
   2807e:	d119      	bne.n	280b4 <_start+0x241c>
   28080:	980c      	ldr	r0, [sp, #48]	@ 0x30
   28082:	6e06      	ldr	r6, [r0, #96]	@ 0x60
   28084:	e028      	b.n	280d8 <_start+0x2440>
   28086:	46c0      	nop			@ (mov r8, r8)
   28088:	00001414 	.word	0x00001414
   2808c:	000013b8 	.word	0x000013b8
   28090:	00000aac 	.word	0x00000aac
   28094:	00000b00 	.word	0x00000b00
   28098:	00000b50 	.word	0x00000b50
   2809c:	00000bb4 	.word	0x00000bb4
   280a0:	00000bd4 	.word	0x00000bd4
   280a4:	00000bf8 	.word	0x00000bf8
   280a8:	00000c24 	.word	0x00000c24
   280ac:	00000c80 	.word	0x00000c80
   280b0:	00000ccc 	.word	0x00000ccc
   280b4:	49eb      	ldr	r1, [pc, #940]	@ (28464 <_start+0x27cc>)
   280b6:	4469      	add	r1, sp
   280b8:	78c8      	ldrb	r0, [r1, #3]
   280ba:	aa10      	add	r2, sp, #64	@ 0x40
   280bc:	7090      	strb	r0, [r2, #2]
   280be:	7848      	ldrb	r0, [r1, #1]
   280c0:	788b      	ldrb	r3, [r1, #2]
   280c2:	021b      	lsls	r3, r3, #8
   280c4:	1818      	adds	r0, r3, r0
   280c6:	8010      	strh	r0, [r2, #0]
   280c8:	980c      	ldr	r0, [sp, #48]	@ 0x30
   280ca:	6e06      	ldr	r6, [r0, #96]	@ 0x60
   280cc:	3108      	adds	r1, #8
   280ce:	48e6      	ldr	r0, [pc, #920]	@ (28468 <_start+0x27d0>)
   280d0:	4468      	add	r0, sp
   280d2:	224c      	movs	r2, #76	@ 0x4c
   280d4:	f001 f8bb 	bl	2924e <__aeabi_memcpy4>
   280d8:	2c00      	cmp	r4, #0
   280da:	d001      	beq.n	280e0 <_start+0x2448>
   280dc:	f7fd fffd 	bl	260da <_start+0x442>
   280e0:	4ce2      	ldr	r4, [pc, #904]	@ (2846c <_start+0x27d4>)
   280e2:	446c      	add	r4, sp
   280e4:	70e6      	strb	r6, [r4, #3]
   280e6:	9810      	ldr	r0, [sp, #64]	@ 0x40
   280e8:	8020      	strh	r0, [r4, #0]
   280ea:	0e30      	lsrs	r0, r6, #24
   280ec:	71a0      	strb	r0, [r4, #6]
   280ee:	0c30      	lsrs	r0, r6, #16
   280f0:	7160      	strb	r0, [r4, #5]
   280f2:	0a30      	lsrs	r0, r6, #8
   280f4:	7120      	strb	r0, [r4, #4]
   280f6:	a810      	add	r0, sp, #64	@ 0x40
   280f8:	7880      	ldrb	r0, [r0, #2]
   280fa:	70a0      	strb	r0, [r4, #2]
   280fc:	1de0      	adds	r0, r4, #7
   280fe:	49da      	ldr	r1, [pc, #872]	@ (28468 <_start+0x27d0>)
   28100:	4469      	add	r1, sp
   28102:	224c      	movs	r2, #76	@ 0x4c
   28104:	f001 fa03 	bl	2950e <__aeabi_memcpy>
   28108:	4dd6      	ldr	r5, [pc, #856]	@ (28464 <_start+0x27cc>)
   2810a:	446d      	add	r5, sp
   2810c:	4628      	mov	r0, r5
   2810e:	4621      	mov	r1, r4
   28110:	f7fd f9dc 	bl	254cc <_ZN20complex_full_dynamic3app17heb2a702bf1a7e7eaE>
   28114:	7828      	ldrb	r0, [r5, #0]
   28116:	2801      	cmp	r0, #1
   28118:	d103      	bne.n	28122 <_start+0x248a>
   2811a:	990c      	ldr	r1, [sp, #48]	@ 0x30
   2811c:	6e09      	ldr	r1, [r1, #96]	@ 0x60
   2811e:	910b      	str	r1, [sp, #44]	@ 0x2c
   28120:	e019      	b.n	28156 <_start+0x24be>
   28122:	49d0      	ldr	r1, [pc, #832]	@ (28464 <_start+0x27cc>)
   28124:	4469      	add	r1, sp
   28126:	78ca      	ldrb	r2, [r1, #3]
   28128:	ab10      	add	r3, sp, #64	@ 0x40
   2812a:	709a      	strb	r2, [r3, #2]
   2812c:	784a      	ldrb	r2, [r1, #1]
   2812e:	788c      	ldrb	r4, [r1, #2]
   28130:	0224      	lsls	r4, r4, #8
   28132:	18a2      	adds	r2, r4, r2
   28134:	801a      	strh	r2, [r3, #0]
   28136:	3108      	adds	r1, #8
   28138:	9a0c      	ldr	r2, [sp, #48]	@ 0x30
   2813a:	6e12      	ldr	r2, [r2, #96]	@ 0x60
   2813c:	920b      	str	r2, [sp, #44]	@ 0x2c
   2813e:	4aca      	ldr	r2, [pc, #808]	@ (28468 <_start+0x27d0>)
   28140:	446a      	add	r2, sp
   28142:	c978      	ldmia	r1!, {r3, r4, r5, r6}
   28144:	c278      	stmia	r2!, {r3, r4, r5, r6}
   28146:	c978      	ldmia	r1!, {r3, r4, r5, r6}
   28148:	c278      	stmia	r2!, {r3, r4, r5, r6}
   2814a:	c978      	ldmia	r1!, {r3, r4, r5, r6}
   2814c:	c278      	stmia	r2!, {r3, r4, r5, r6}
   2814e:	880b      	ldrh	r3, [r1, #0]
   28150:	8013      	strh	r3, [r2, #0]
   28152:	7889      	ldrb	r1, [r1, #2]
   28154:	7091      	strb	r1, [r2, #2]
   28156:	2800      	cmp	r0, #0
   28158:	d001      	beq.n	2815e <_start+0x24c6>
   2815a:	f7fe f92b 	bl	263b4 <_start+0x71c>
   2815e:	4cc4      	ldr	r4, [pc, #784]	@ (28470 <_start+0x27d8>)
   28160:	446c      	add	r4, sp
   28162:	990b      	ldr	r1, [sp, #44]	@ 0x2c
   28164:	70e1      	strb	r1, [r4, #3]
   28166:	9810      	ldr	r0, [sp, #64]	@ 0x40
   28168:	8020      	strh	r0, [r4, #0]
   2816a:	0e08      	lsrs	r0, r1, #24
   2816c:	71a0      	strb	r0, [r4, #6]
   2816e:	0c08      	lsrs	r0, r1, #16
   28170:	7160      	strb	r0, [r4, #5]
   28172:	0a08      	lsrs	r0, r1, #8
   28174:	7120      	strb	r0, [r4, #4]
   28176:	a810      	add	r0, sp, #64	@ 0x40
   28178:	7880      	ldrb	r0, [r0, #2]
   2817a:	70a0      	strb	r0, [r4, #2]
   2817c:	1de0      	adds	r0, r4, #7
   2817e:	49ba      	ldr	r1, [pc, #744]	@ (28468 <_start+0x27d0>)
   28180:	4469      	add	r1, sp
   28182:	2233      	movs	r2, #51	@ 0x33
   28184:	f001 f9c3 	bl	2950e <__aeabi_memcpy>
   28188:	4db6      	ldr	r5, [pc, #728]	@ (28464 <_start+0x27cc>)
   2818a:	446d      	add	r5, sp
   2818c:	4628      	mov	r0, r5
   2818e:	4621      	mov	r1, r4
   28190:	f7f9 ffb2 	bl	220f8 <_ZN20complex_full_dynamic3app17h5d7d0196e3ecdabcE>
   28194:	782c      	ldrb	r4, [r5, #0]
   28196:	2c01      	cmp	r4, #1
   28198:	d102      	bne.n	281a0 <_start+0x2508>
   2819a:	980c      	ldr	r0, [sp, #48]	@ 0x30
   2819c:	6e06      	ldr	r6, [r0, #96]	@ 0x60
   2819e:	e011      	b.n	281c4 <_start+0x252c>
   281a0:	49b0      	ldr	r1, [pc, #704]	@ (28464 <_start+0x27cc>)
   281a2:	4469      	add	r1, sp
   281a4:	78c8      	ldrb	r0, [r1, #3]
   281a6:	aa10      	add	r2, sp, #64	@ 0x40
   281a8:	7090      	strb	r0, [r2, #2]
   281aa:	7848      	ldrb	r0, [r1, #1]
   281ac:	788b      	ldrb	r3, [r1, #2]
   281ae:	021b      	lsls	r3, r3, #8
   281b0:	1818      	adds	r0, r3, r0
   281b2:	8010      	strh	r0, [r2, #0]
   281b4:	980c      	ldr	r0, [sp, #48]	@ 0x30
   281b6:	6e06      	ldr	r6, [r0, #96]	@ 0x60
   281b8:	3108      	adds	r1, #8
   281ba:	48ab      	ldr	r0, [pc, #684]	@ (28468 <_start+0x27d0>)
   281bc:	4468      	add	r0, sp
   281be:	2256      	movs	r2, #86	@ 0x56
   281c0:	f001 f845 	bl	2924e <__aeabi_memcpy4>
   281c4:	2c00      	cmp	r4, #0
   281c6:	d001      	beq.n	281cc <_start+0x2534>
   281c8:	f7fd ff87 	bl	260da <_start+0x442>
   281cc:	4ca9      	ldr	r4, [pc, #676]	@ (28474 <_start+0x27dc>)
   281ce:	446c      	add	r4, sp
   281d0:	70e6      	strb	r6, [r4, #3]
   281d2:	9810      	ldr	r0, [sp, #64]	@ 0x40
   281d4:	8020      	strh	r0, [r4, #0]
   281d6:	0e30      	lsrs	r0, r6, #24
   281d8:	71a0      	strb	r0, [r4, #6]
   281da:	0c30      	lsrs	r0, r6, #16
   281dc:	7160      	strb	r0, [r4, #5]
   281de:	0a30      	lsrs	r0, r6, #8
   281e0:	7120      	strb	r0, [r4, #4]
   281e2:	a810      	add	r0, sp, #64	@ 0x40
   281e4:	7880      	ldrb	r0, [r0, #2]
   281e6:	70a0      	strb	r0, [r4, #2]
   281e8:	1de0      	adds	r0, r4, #7
   281ea:	499f      	ldr	r1, [pc, #636]	@ (28468 <_start+0x27d0>)
   281ec:	4469      	add	r1, sp
   281ee:	2256      	movs	r2, #86	@ 0x56
   281f0:	f001 f98d 	bl	2950e <__aeabi_memcpy>
   281f4:	4d9b      	ldr	r5, [pc, #620]	@ (28464 <_start+0x27cc>)
   281f6:	446d      	add	r5, sp
   281f8:	4628      	mov	r0, r5
   281fa:	4621      	mov	r1, r4
   281fc:	f7fa fdd6 	bl	22dac <_ZN20complex_full_dynamic3app17h852e2afef54c26f6E>
   28200:	7828      	ldrb	r0, [r5, #0]
   28202:	2801      	cmp	r0, #1
   28204:	d103      	bne.n	2820e <_start+0x2576>
   28206:	990c      	ldr	r1, [sp, #48]	@ 0x30
   28208:	6e09      	ldr	r1, [r1, #96]	@ 0x60
   2820a:	910b      	str	r1, [sp, #44]	@ 0x2c
   2820c:	e019      	b.n	28242 <_start+0x25aa>
   2820e:	4995      	ldr	r1, [pc, #596]	@ (28464 <_start+0x27cc>)
   28210:	4469      	add	r1, sp
   28212:	78ca      	ldrb	r2, [r1, #3]
   28214:	ab10      	add	r3, sp, #64	@ 0x40
   28216:	709a      	strb	r2, [r3, #2]
   28218:	784a      	ldrb	r2, [r1, #1]
   2821a:	788c      	ldrb	r4, [r1, #2]
   2821c:	0224      	lsls	r4, r4, #8
   2821e:	18a2      	adds	r2, r4, r2
   28220:	801a      	strh	r2, [r3, #0]
   28222:	3108      	adds	r1, #8
   28224:	9a0c      	ldr	r2, [sp, #48]	@ 0x30
   28226:	6e12      	ldr	r2, [r2, #96]	@ 0x60
   28228:	920b      	str	r2, [sp, #44]	@ 0x2c
   2822a:	4a8f      	ldr	r2, [pc, #572]	@ (28468 <_start+0x27d0>)
   2822c:	446a      	add	r2, sp
   2822e:	c938      	ldmia	r1!, {r3, r4, r5}
   28230:	c238      	stmia	r2!, {r3, r4, r5}
   28232:	c978      	ldmia	r1!, {r3, r4, r5, r6}
   28234:	c278      	stmia	r2!, {r3, r4, r5, r6}
   28236:	c938      	ldmia	r1!, {r3, r4, r5}
   28238:	c238      	stmia	r2!, {r3, r4, r5}
   2823a:	c978      	ldmia	r1!, {r3, r4, r5, r6}
   2823c:	c278      	stmia	r2!, {r3, r4, r5, r6}
   2823e:	7809      	ldrb	r1, [r1, #0]
   28240:	7011      	strb	r1, [r2, #0]
   28242:	2800      	cmp	r0, #0
   28244:	d001      	beq.n	2824a <_start+0x25b2>
   28246:	f7fe f8b5 	bl	263b4 <_start+0x71c>
   2824a:	4c8b      	ldr	r4, [pc, #556]	@ (28478 <_start+0x27e0>)
   2824c:	446c      	add	r4, sp
   2824e:	990b      	ldr	r1, [sp, #44]	@ 0x2c
   28250:	70e1      	strb	r1, [r4, #3]
   28252:	9810      	ldr	r0, [sp, #64]	@ 0x40
   28254:	8020      	strh	r0, [r4, #0]
   28256:	0e08      	lsrs	r0, r1, #24
   28258:	71a0      	strb	r0, [r4, #6]
   2825a:	0c08      	lsrs	r0, r1, #16
   2825c:	7160      	strb	r0, [r4, #5]
   2825e:	0a08      	lsrs	r0, r1, #8
   28260:	7120      	strb	r0, [r4, #4]
   28262:	a810      	add	r0, sp, #64	@ 0x40
   28264:	7880      	ldrb	r0, [r0, #2]
   28266:	70a0      	strb	r0, [r4, #2]
   28268:	1de0      	adds	r0, r4, #7
   2826a:	497f      	ldr	r1, [pc, #508]	@ (28468 <_start+0x27d0>)
   2826c:	4469      	add	r1, sp
   2826e:	2239      	movs	r2, #57	@ 0x39
   28270:	f001 f94d 	bl	2950e <__aeabi_memcpy>
   28274:	4d7b      	ldr	r5, [pc, #492]	@ (28464 <_start+0x27cc>)
   28276:	446d      	add	r5, sp
   28278:	4628      	mov	r0, r5
   2827a:	4621      	mov	r1, r4
   2827c:	f7fa fe94 	bl	22fa8 <_ZN20complex_full_dynamic3app17h89b917ec37e340e0E>
   28280:	7828      	ldrb	r0, [r5, #0]
   28282:	2801      	cmp	r0, #1
   28284:	d103      	bne.n	2828e <_start+0x25f6>
   28286:	990c      	ldr	r1, [sp, #48]	@ 0x30
   28288:	6e09      	ldr	r1, [r1, #96]	@ 0x60
   2828a:	910b      	str	r1, [sp, #44]	@ 0x2c
   2828c:	e017      	b.n	282be <_start+0x2626>
   2828e:	4975      	ldr	r1, [pc, #468]	@ (28464 <_start+0x27cc>)
   28290:	4469      	add	r1, sp
   28292:	78ca      	ldrb	r2, [r1, #3]
   28294:	ab10      	add	r3, sp, #64	@ 0x40
   28296:	709a      	strb	r2, [r3, #2]
   28298:	784a      	ldrb	r2, [r1, #1]
   2829a:	788c      	ldrb	r4, [r1, #2]
   2829c:	0224      	lsls	r4, r4, #8
   2829e:	18a2      	adds	r2, r4, r2
   282a0:	801a      	strh	r2, [r3, #0]
   282a2:	3108      	adds	r1, #8
   282a4:	9a0c      	ldr	r2, [sp, #48]	@ 0x30
   282a6:	6e12      	ldr	r2, [r2, #96]	@ 0x60
   282a8:	920b      	str	r2, [sp, #44]	@ 0x2c
   282aa:	4a6f      	ldr	r2, [pc, #444]	@ (28468 <_start+0x27d0>)
   282ac:	446a      	add	r2, sp
   282ae:	c938      	ldmia	r1!, {r3, r4, r5}
   282b0:	c238      	stmia	r2!, {r3, r4, r5}
   282b2:	c938      	ldmia	r1!, {r3, r4, r5}
   282b4:	c238      	stmia	r2!, {r3, r4, r5}
   282b6:	c978      	ldmia	r1!, {r3, r4, r5, r6}
   282b8:	c278      	stmia	r2!, {r3, r4, r5, r6}
   282ba:	8809      	ldrh	r1, [r1, #0]
   282bc:	8011      	strh	r1, [r2, #0]
   282be:	2800      	cmp	r0, #0
   282c0:	d001      	beq.n	282c6 <_start+0x262e>
   282c2:	f7fe f877 	bl	263b4 <_start+0x71c>
   282c6:	4c6d      	ldr	r4, [pc, #436]	@ (2847c <_start+0x27e4>)
   282c8:	446c      	add	r4, sp
   282ca:	990b      	ldr	r1, [sp, #44]	@ 0x2c
   282cc:	70e1      	strb	r1, [r4, #3]
   282ce:	9810      	ldr	r0, [sp, #64]	@ 0x40
   282d0:	8020      	strh	r0, [r4, #0]
   282d2:	0e08      	lsrs	r0, r1, #24
   282d4:	71a0      	strb	r0, [r4, #6]
   282d6:	0c08      	lsrs	r0, r1, #16
   282d8:	7160      	strb	r0, [r4, #5]
   282da:	0a08      	lsrs	r0, r1, #8
   282dc:	7120      	strb	r0, [r4, #4]
   282de:	a810      	add	r0, sp, #64	@ 0x40
   282e0:	7880      	ldrb	r0, [r0, #2]
   282e2:	70a0      	strb	r0, [r4, #2]
   282e4:	1de0      	adds	r0, r4, #7
   282e6:	4960      	ldr	r1, [pc, #384]	@ (28468 <_start+0x27d0>)
   282e8:	4469      	add	r1, sp
   282ea:	222a      	movs	r2, #42	@ 0x2a
   282ec:	f001 f90f 	bl	2950e <__aeabi_memcpy>
   282f0:	4d5c      	ldr	r5, [pc, #368]	@ (28464 <_start+0x27cc>)
   282f2:	446d      	add	r5, sp
   282f4:	4628      	mov	r0, r5
   282f6:	4621      	mov	r1, r4
   282f8:	f7fc fb08 	bl	2490c <_ZN20complex_full_dynamic3app17hd11c2e9e53987837E>
   282fc:	782c      	ldrb	r4, [r5, #0]
   282fe:	2c01      	cmp	r4, #1
   28300:	d102      	bne.n	28308 <_start+0x2670>
   28302:	980c      	ldr	r0, [sp, #48]	@ 0x30
   28304:	6e06      	ldr	r6, [r0, #96]	@ 0x60
   28306:	e011      	b.n	2832c <_start+0x2694>
   28308:	4956      	ldr	r1, [pc, #344]	@ (28464 <_start+0x27cc>)
   2830a:	4469      	add	r1, sp
   2830c:	78c8      	ldrb	r0, [r1, #3]
   2830e:	aa10      	add	r2, sp, #64	@ 0x40
   28310:	7090      	strb	r0, [r2, #2]
   28312:	7848      	ldrb	r0, [r1, #1]
   28314:	788b      	ldrb	r3, [r1, #2]
   28316:	021b      	lsls	r3, r3, #8
   28318:	1818      	adds	r0, r3, r0
   2831a:	8010      	strh	r0, [r2, #0]
   2831c:	980c      	ldr	r0, [sp, #48]	@ 0x30
   2831e:	6e06      	ldr	r6, [r0, #96]	@ 0x60
   28320:	3108      	adds	r1, #8
   28322:	4851      	ldr	r0, [pc, #324]	@ (28468 <_start+0x27d0>)
   28324:	4468      	add	r0, sp
   28326:	2241      	movs	r2, #65	@ 0x41
   28328:	f000 ff91 	bl	2924e <__aeabi_memcpy4>
   2832c:	2c00      	cmp	r4, #0
   2832e:	d001      	beq.n	28334 <_start+0x269c>
   28330:	f7fd fed3 	bl	260da <_start+0x442>
   28334:	4c52      	ldr	r4, [pc, #328]	@ (28480 <_start+0x27e8>)
   28336:	446c      	add	r4, sp
   28338:	70e6      	strb	r6, [r4, #3]
   2833a:	9810      	ldr	r0, [sp, #64]	@ 0x40
   2833c:	8020      	strh	r0, [r4, #0]
   2833e:	0e30      	lsrs	r0, r6, #24
   28340:	71a0      	strb	r0, [r4, #6]
   28342:	0c30      	lsrs	r0, r6, #16
   28344:	7160      	strb	r0, [r4, #5]
   28346:	0a30      	lsrs	r0, r6, #8
   28348:	7120      	strb	r0, [r4, #4]
   2834a:	a810      	add	r0, sp, #64	@ 0x40
   2834c:	7880      	ldrb	r0, [r0, #2]
   2834e:	70a0      	strb	r0, [r4, #2]
   28350:	1de0      	adds	r0, r4, #7
   28352:	4945      	ldr	r1, [pc, #276]	@ (28468 <_start+0x27d0>)
   28354:	4469      	add	r1, sp
   28356:	2241      	movs	r2, #65	@ 0x41
   28358:	f001 f8d9 	bl	2950e <__aeabi_memcpy>
   2835c:	4d41      	ldr	r5, [pc, #260]	@ (28464 <_start+0x27cc>)
   2835e:	446d      	add	r5, sp
   28360:	4628      	mov	r0, r5
   28362:	4621      	mov	r1, r4
   28364:	f7fd fb94 	bl	25a90 <_ZN20complex_full_dynamic3app17hfcf380f742c7b75cE>
   28368:	7828      	ldrb	r0, [r5, #0]
   2836a:	2801      	cmp	r0, #1
   2836c:	d103      	bne.n	28376 <_start+0x26de>
   2836e:	990c      	ldr	r1, [sp, #48]	@ 0x30
   28370:	6e09      	ldr	r1, [r1, #96]	@ 0x60
   28372:	910b      	str	r1, [sp, #44]	@ 0x2c
   28374:	e015      	b.n	283a2 <_start+0x270a>
   28376:	493b      	ldr	r1, [pc, #236]	@ (28464 <_start+0x27cc>)
   28378:	4469      	add	r1, sp
   2837a:	78ca      	ldrb	r2, [r1, #3]
   2837c:	ab10      	add	r3, sp, #64	@ 0x40
   2837e:	709a      	strb	r2, [r3, #2]
   28380:	784a      	ldrb	r2, [r1, #1]
   28382:	788c      	ldrb	r4, [r1, #2]
   28384:	0224      	lsls	r4, r4, #8
   28386:	18a2      	adds	r2, r4, r2
   28388:	801a      	strh	r2, [r3, #0]
   2838a:	3108      	adds	r1, #8
   2838c:	9a0c      	ldr	r2, [sp, #48]	@ 0x30
   2838e:	6e12      	ldr	r2, [r2, #96]	@ 0x60
   28390:	920b      	str	r2, [sp, #44]	@ 0x2c
   28392:	4a35      	ldr	r2, [pc, #212]	@ (28468 <_start+0x27d0>)
   28394:	446a      	add	r2, sp
   28396:	c978      	ldmia	r1!, {r3, r4, r5, r6}
   28398:	c278      	stmia	r2!, {r3, r4, r5, r6}
   2839a:	c978      	ldmia	r1!, {r3, r4, r5, r6}
   2839c:	c278      	stmia	r2!, {r3, r4, r5, r6}
   2839e:	8809      	ldrh	r1, [r1, #0]
   283a0:	8011      	strh	r1, [r2, #0]
   283a2:	2800      	cmp	r0, #0
   283a4:	d001      	beq.n	283aa <_start+0x2712>
   283a6:	f7fe f805 	bl	263b4 <_start+0x71c>
   283aa:	4c36      	ldr	r4, [pc, #216]	@ (28484 <_start+0x27ec>)
   283ac:	446c      	add	r4, sp
   283ae:	990b      	ldr	r1, [sp, #44]	@ 0x2c
   283b0:	70e1      	strb	r1, [r4, #3]
   283b2:	9810      	ldr	r0, [sp, #64]	@ 0x40
   283b4:	8020      	strh	r0, [r4, #0]
   283b6:	0e08      	lsrs	r0, r1, #24
   283b8:	71a0      	strb	r0, [r4, #6]
   283ba:	0c08      	lsrs	r0, r1, #16
   283bc:	7160      	strb	r0, [r4, #5]
   283be:	0a08      	lsrs	r0, r1, #8
   283c0:	7120      	strb	r0, [r4, #4]
   283c2:	a810      	add	r0, sp, #64	@ 0x40
   283c4:	7880      	ldrb	r0, [r0, #2]
   283c6:	70a0      	strb	r0, [r4, #2]
   283c8:	1de0      	adds	r0, r4, #7
   283ca:	4927      	ldr	r1, [pc, #156]	@ (28468 <_start+0x27d0>)
   283cc:	4469      	add	r1, sp
   283ce:	2222      	movs	r2, #34	@ 0x22
   283d0:	f001 f89d 	bl	2950e <__aeabi_memcpy>
   283d4:	4d23      	ldr	r5, [pc, #140]	@ (28464 <_start+0x27cc>)
   283d6:	446d      	add	r5, sp
   283d8:	4628      	mov	r0, r5
   283da:	4621      	mov	r1, r4
   283dc:	f7f9 ff82 	bl	222e4 <_ZN20complex_full_dynamic3app17h61616b9c7f06b1d1E>
   283e0:	7828      	ldrb	r0, [r5, #0]
   283e2:	2801      	cmp	r0, #1
   283e4:	d103      	bne.n	283ee <_start+0x2756>
   283e6:	990c      	ldr	r1, [sp, #48]	@ 0x30
   283e8:	6e09      	ldr	r1, [r1, #96]	@ 0x60
   283ea:	910b      	str	r1, [sp, #44]	@ 0x2c
   283ec:	e015      	b.n	2841a <_start+0x2782>
   283ee:	491d      	ldr	r1, [pc, #116]	@ (28464 <_start+0x27cc>)
   283f0:	4469      	add	r1, sp
   283f2:	78ca      	ldrb	r2, [r1, #3]
   283f4:	ab10      	add	r3, sp, #64	@ 0x40
   283f6:	709a      	strb	r2, [r3, #2]
   283f8:	784a      	ldrb	r2, [r1, #1]
   283fa:	788c      	ldrb	r4, [r1, #2]
   283fc:	0224      	lsls	r4, r4, #8
   283fe:	18a2      	adds	r2, r4, r2
   28400:	801a      	strh	r2, [r3, #0]
   28402:	3108      	adds	r1, #8
   28404:	9a0c      	ldr	r2, [sp, #48]	@ 0x30
   28406:	6e12      	ldr	r2, [r2, #96]	@ 0x60
   28408:	920b      	str	r2, [sp, #44]	@ 0x2c
   2840a:	4a17      	ldr	r2, [pc, #92]	@ (28468 <_start+0x27d0>)
   2840c:	446a      	add	r2, sp
   2840e:	c978      	ldmia	r1!, {r3, r4, r5, r6}
   28410:	c278      	stmia	r2!, {r3, r4, r5, r6}
   28412:	880b      	ldrh	r3, [r1, #0]
   28414:	8013      	strh	r3, [r2, #0]
   28416:	7889      	ldrb	r1, [r1, #2]
   28418:	7091      	strb	r1, [r2, #2]
   2841a:	2800      	cmp	r0, #0
   2841c:	d001      	beq.n	28422 <_start+0x278a>
   2841e:	f7fd ffc9 	bl	263b4 <_start+0x71c>
   28422:	4c19      	ldr	r4, [pc, #100]	@ (28488 <_start+0x27f0>)
   28424:	446c      	add	r4, sp
   28426:	990b      	ldr	r1, [sp, #44]	@ 0x2c
   28428:	70e1      	strb	r1, [r4, #3]
   2842a:	9810      	ldr	r0, [sp, #64]	@ 0x40
   2842c:	8020      	strh	r0, [r4, #0]
   2842e:	0e08      	lsrs	r0, r1, #24
   28430:	71a0      	strb	r0, [r4, #6]
   28432:	0c08      	lsrs	r0, r1, #16
   28434:	7160      	strb	r0, [r4, #5]
   28436:	0a08      	lsrs	r0, r1, #8
   28438:	7120      	strb	r0, [r4, #4]
   2843a:	a810      	add	r0, sp, #64	@ 0x40
   2843c:	7880      	ldrb	r0, [r0, #2]
   2843e:	70a0      	strb	r0, [r4, #2]
   28440:	1de0      	adds	r0, r4, #7
   28442:	4909      	ldr	r1, [pc, #36]	@ (28468 <_start+0x27d0>)
   28444:	4469      	add	r1, sp
   28446:	2213      	movs	r2, #19
   28448:	f001 f861 	bl	2950e <__aeabi_memcpy>
   2844c:	4d05      	ldr	r5, [pc, #20]	@ (28464 <_start+0x27cc>)
   2844e:	446d      	add	r5, sp
   28450:	4628      	mov	r0, r5
   28452:	4621      	mov	r1, r4
   28454:	f7f8 f8b6 	bl	205c4 <_ZN20complex_full_dynamic3app17h126a6eea74893fffE>
   28458:	7828      	ldrb	r0, [r5, #0]
   2845a:	2801      	cmp	r0, #1
   2845c:	d116      	bne.n	2848c <_start+0x27f4>
   2845e:	990c      	ldr	r1, [sp, #48]	@ 0x30
   28460:	6e0e      	ldr	r6, [r1, #96]	@ 0x60
   28462:	e026      	b.n	284b2 <_start+0x281a>
   28464:	00001414 	.word	0x00001414
   28468:	000013b8 	.word	0x000013b8
   2846c:	00000cfc 	.word	0x00000cfc
   28470:	00000d50 	.word	0x00000d50
   28474:	00000d8c 	.word	0x00000d8c
   28478:	00000dec 	.word	0x00000dec
   2847c:	00000e2c 	.word	0x00000e2c
   28480:	00000e60 	.word	0x00000e60
   28484:	00000ea8 	.word	0x00000ea8
   28488:	00000ed4 	.word	0x00000ed4
   2848c:	49eb      	ldr	r1, [pc, #940]	@ (2883c <_start+0x2ba4>)
   2848e:	4469      	add	r1, sp
   28490:	78ca      	ldrb	r2, [r1, #3]
   28492:	ab10      	add	r3, sp, #64	@ 0x40
   28494:	709a      	strb	r2, [r3, #2]
   28496:	784a      	ldrb	r2, [r1, #1]
   28498:	788c      	ldrb	r4, [r1, #2]
   2849a:	0224      	lsls	r4, r4, #8
   2849c:	18a2      	adds	r2, r4, r2
   2849e:	801a      	strh	r2, [r3, #0]
   284a0:	3108      	adds	r1, #8
   284a2:	9a0c      	ldr	r2, [sp, #48]	@ 0x30
   284a4:	6e16      	ldr	r6, [r2, #96]	@ 0x60
   284a6:	4ae6      	ldr	r2, [pc, #920]	@ (28840 <_start+0x2ba8>)
   284a8:	446a      	add	r2, sp
   284aa:	c918      	ldmia	r1!, {r3, r4}
   284ac:	c218      	stmia	r2!, {r3, r4}
   284ae:	c938      	ldmia	r1!, {r3, r4, r5}
   284b0:	c238      	stmia	r2!, {r3, r4, r5}
   284b2:	2800      	cmp	r0, #0
   284b4:	d001      	beq.n	284ba <_start+0x2822>
   284b6:	f7fd fe10 	bl	260da <_start+0x442>
   284ba:	4ce2      	ldr	r4, [pc, #904]	@ (28844 <_start+0x2bac>)
   284bc:	446c      	add	r4, sp
   284be:	70e6      	strb	r6, [r4, #3]
   284c0:	9810      	ldr	r0, [sp, #64]	@ 0x40
   284c2:	8020      	strh	r0, [r4, #0]
   284c4:	0e30      	lsrs	r0, r6, #24
   284c6:	71a0      	strb	r0, [r4, #6]
   284c8:	0c30      	lsrs	r0, r6, #16
   284ca:	7160      	strb	r0, [r4, #5]
   284cc:	0a30      	lsrs	r0, r6, #8
   284ce:	7120      	strb	r0, [r4, #4]
   284d0:	a810      	add	r0, sp, #64	@ 0x40
   284d2:	7880      	ldrb	r0, [r0, #2]
   284d4:	70a0      	strb	r0, [r4, #2]
   284d6:	1de0      	adds	r0, r4, #7
   284d8:	49d9      	ldr	r1, [pc, #868]	@ (28840 <_start+0x2ba8>)
   284da:	4469      	add	r1, sp
   284dc:	2214      	movs	r2, #20
   284de:	f001 f816 	bl	2950e <__aeabi_memcpy>
   284e2:	4dd6      	ldr	r5, [pc, #856]	@ (2883c <_start+0x2ba4>)
   284e4:	446d      	add	r5, sp
   284e6:	4628      	mov	r0, r5
   284e8:	4621      	mov	r1, r4
   284ea:	f7f9 fd83 	bl	21ff4 <_ZN20complex_full_dynamic3app17h5d7a4cce4f8d30feE>
   284ee:	7828      	ldrb	r0, [r5, #0]
   284f0:	2801      	cmp	r0, #1
   284f2:	d103      	bne.n	284fc <_start+0x2864>
   284f4:	990c      	ldr	r1, [sp, #48]	@ 0x30
   284f6:	6e09      	ldr	r1, [r1, #96]	@ 0x60
   284f8:	910b      	str	r1, [sp, #44]	@ 0x2c
   284fa:	e019      	b.n	28530 <_start+0x2898>
   284fc:	49cf      	ldr	r1, [pc, #828]	@ (2883c <_start+0x2ba4>)
   284fe:	4469      	add	r1, sp
   28500:	78ca      	ldrb	r2, [r1, #3]
   28502:	ab10      	add	r3, sp, #64	@ 0x40
   28504:	709a      	strb	r2, [r3, #2]
   28506:	784a      	ldrb	r2, [r1, #1]
   28508:	788c      	ldrb	r4, [r1, #2]
   2850a:	0224      	lsls	r4, r4, #8
   2850c:	18a2      	adds	r2, r4, r2
   2850e:	801a      	strh	r2, [r3, #0]
   28510:	3108      	adds	r1, #8
   28512:	9a0c      	ldr	r2, [sp, #48]	@ 0x30
   28514:	6e12      	ldr	r2, [r2, #96]	@ 0x60
   28516:	920b      	str	r2, [sp, #44]	@ 0x2c
   28518:	4ac9      	ldr	r2, [pc, #804]	@ (28840 <_start+0x2ba8>)
   2851a:	446a      	add	r2, sp
   2851c:	c938      	ldmia	r1!, {r3, r4, r5}
   2851e:	c238      	stmia	r2!, {r3, r4, r5}
   28520:	c978      	ldmia	r1!, {r3, r4, r5, r6}
   28522:	c278      	stmia	r2!, {r3, r4, r5, r6}
   28524:	c938      	ldmia	r1!, {r3, r4, r5}
   28526:	c238      	stmia	r2!, {r3, r4, r5}
   28528:	c978      	ldmia	r1!, {r3, r4, r5, r6}
   2852a:	c278      	stmia	r2!, {r3, r4, r5, r6}
   2852c:	8809      	ldrh	r1, [r1, #0]
   2852e:	8011      	strh	r1, [r2, #0]
   28530:	2800      	cmp	r0, #0
   28532:	d001      	beq.n	28538 <_start+0x28a0>
   28534:	f7fd ff3e 	bl	263b4 <_start+0x71c>
   28538:	4cc3      	ldr	r4, [pc, #780]	@ (28848 <_start+0x2bb0>)
   2853a:	446c      	add	r4, sp
   2853c:	990b      	ldr	r1, [sp, #44]	@ 0x2c
   2853e:	70e1      	strb	r1, [r4, #3]
   28540:	9810      	ldr	r0, [sp, #64]	@ 0x40
   28542:	8020      	strh	r0, [r4, #0]
   28544:	0e08      	lsrs	r0, r1, #24
   28546:	71a0      	strb	r0, [r4, #6]
   28548:	0c08      	lsrs	r0, r1, #16
   2854a:	7160      	strb	r0, [r4, #5]
   2854c:	0a08      	lsrs	r0, r1, #8
   2854e:	7120      	strb	r0, [r4, #4]
   28550:	a810      	add	r0, sp, #64	@ 0x40
   28552:	7880      	ldrb	r0, [r0, #2]
   28554:	70a0      	strb	r0, [r4, #2]
   28556:	1de0      	adds	r0, r4, #7
   28558:	49b9      	ldr	r1, [pc, #740]	@ (28840 <_start+0x2ba8>)
   2855a:	4469      	add	r1, sp
   2855c:	223a      	movs	r2, #58	@ 0x3a
   2855e:	f000 ffd6 	bl	2950e <__aeabi_memcpy>
   28562:	4db6      	ldr	r5, [pc, #728]	@ (2883c <_start+0x2ba4>)
   28564:	446d      	add	r5, sp
   28566:	4628      	mov	r0, r5
   28568:	4621      	mov	r1, r4
   2856a:	f7fb fe61 	bl	24230 <_ZN20complex_full_dynamic3app17hae476868ded178feE>
   2856e:	7828      	ldrb	r0, [r5, #0]
   28570:	2801      	cmp	r0, #1
   28572:	d103      	bne.n	2857c <_start+0x28e4>
   28574:	990c      	ldr	r1, [sp, #48]	@ 0x30
   28576:	6e09      	ldr	r1, [r1, #96]	@ 0x60
   28578:	910b      	str	r1, [sp, #44]	@ 0x2c
   2857a:	e013      	b.n	285a4 <_start+0x290c>
   2857c:	49af      	ldr	r1, [pc, #700]	@ (2883c <_start+0x2ba4>)
   2857e:	4469      	add	r1, sp
   28580:	78ca      	ldrb	r2, [r1, #3]
   28582:	ab10      	add	r3, sp, #64	@ 0x40
   28584:	709a      	strb	r2, [r3, #2]
   28586:	784a      	ldrb	r2, [r1, #1]
   28588:	788c      	ldrb	r4, [r1, #2]
   2858a:	0224      	lsls	r4, r4, #8
   2858c:	18a2      	adds	r2, r4, r2
   2858e:	801a      	strh	r2, [r3, #0]
   28590:	3108      	adds	r1, #8
   28592:	9a0c      	ldr	r2, [sp, #48]	@ 0x30
   28594:	6e12      	ldr	r2, [r2, #96]	@ 0x60
   28596:	920b      	str	r2, [sp, #44]	@ 0x2c
   28598:	4aa9      	ldr	r2, [pc, #676]	@ (28840 <_start+0x2ba8>)
   2859a:	446a      	add	r2, sp
   2859c:	c978      	ldmia	r1!, {r3, r4, r5, r6}
   2859e:	c278      	stmia	r2!, {r3, r4, r5, r6}
   285a0:	7809      	ldrb	r1, [r1, #0]
   285a2:	7011      	strb	r1, [r2, #0]
   285a4:	2800      	cmp	r0, #0
   285a6:	d001      	beq.n	285ac <_start+0x2914>
   285a8:	f7fd ff04 	bl	263b4 <_start+0x71c>
   285ac:	4ca7      	ldr	r4, [pc, #668]	@ (2884c <_start+0x2bb4>)
   285ae:	446c      	add	r4, sp
   285b0:	990b      	ldr	r1, [sp, #44]	@ 0x2c
   285b2:	70e1      	strb	r1, [r4, #3]
   285b4:	9810      	ldr	r0, [sp, #64]	@ 0x40
   285b6:	8020      	strh	r0, [r4, #0]
   285b8:	0e08      	lsrs	r0, r1, #24
   285ba:	71a0      	strb	r0, [r4, #6]
   285bc:	0c08      	lsrs	r0, r1, #16
   285be:	7160      	strb	r0, [r4, #5]
   285c0:	0a08      	lsrs	r0, r1, #8
   285c2:	7120      	strb	r0, [r4, #4]
   285c4:	a810      	add	r0, sp, #64	@ 0x40
   285c6:	7880      	ldrb	r0, [r0, #2]
   285c8:	70a0      	strb	r0, [r4, #2]
   285ca:	1de0      	adds	r0, r4, #7
   285cc:	499c      	ldr	r1, [pc, #624]	@ (28840 <_start+0x2ba8>)
   285ce:	4469      	add	r1, sp
   285d0:	2211      	movs	r2, #17
   285d2:	f000 ff9c 	bl	2950e <__aeabi_memcpy>
   285d6:	4d99      	ldr	r5, [pc, #612]	@ (2883c <_start+0x2ba4>)
   285d8:	446d      	add	r5, sp
   285da:	4628      	mov	r0, r5
   285dc:	4621      	mov	r1, r4
   285de:	f7fb f8c3 	bl	23768 <_ZN20complex_full_dynamic3app17h9c0bbbac98af25f1E>
   285e2:	7828      	ldrb	r0, [r5, #0]
   285e4:	2801      	cmp	r0, #1
   285e6:	d102      	bne.n	285ee <_start+0x2956>
   285e8:	990c      	ldr	r1, [sp, #48]	@ 0x30
   285ea:	6e0e      	ldr	r6, [r1, #96]	@ 0x60
   285ec:	e016      	b.n	2861c <_start+0x2984>
   285ee:	4993      	ldr	r1, [pc, #588]	@ (2883c <_start+0x2ba4>)
   285f0:	4469      	add	r1, sp
   285f2:	78ca      	ldrb	r2, [r1, #3]
   285f4:	ab10      	add	r3, sp, #64	@ 0x40
   285f6:	709a      	strb	r2, [r3, #2]
   285f8:	784a      	ldrb	r2, [r1, #1]
   285fa:	788c      	ldrb	r4, [r1, #2]
   285fc:	0224      	lsls	r4, r4, #8
   285fe:	18a2      	adds	r2, r4, r2
   28600:	801a      	strh	r2, [r3, #0]
   28602:	3108      	adds	r1, #8
   28604:	9a0c      	ldr	r2, [sp, #48]	@ 0x30
   28606:	6e16      	ldr	r6, [r2, #96]	@ 0x60
   28608:	4a8d      	ldr	r2, [pc, #564]	@ (28840 <_start+0x2ba8>)
   2860a:	446a      	add	r2, sp
   2860c:	c918      	ldmia	r1!, {r3, r4}
   2860e:	c218      	stmia	r2!, {r3, r4}
   28610:	c938      	ldmia	r1!, {r3, r4, r5}
   28612:	c238      	stmia	r2!, {r3, r4, r5}
   28614:	880b      	ldrh	r3, [r1, #0]
   28616:	8013      	strh	r3, [r2, #0]
   28618:	7889      	ldrb	r1, [r1, #2]
   2861a:	7091      	strb	r1, [r2, #2]
   2861c:	2800      	cmp	r0, #0
   2861e:	d001      	beq.n	28624 <_start+0x298c>
   28620:	f7fd fd5b 	bl	260da <_start+0x442>
   28624:	4c8a      	ldr	r4, [pc, #552]	@ (28850 <_start+0x2bb8>)
   28626:	446c      	add	r4, sp
   28628:	70e6      	strb	r6, [r4, #3]
   2862a:	9810      	ldr	r0, [sp, #64]	@ 0x40
   2862c:	8020      	strh	r0, [r4, #0]
   2862e:	0e30      	lsrs	r0, r6, #24
   28630:	71a0      	strb	r0, [r4, #6]
   28632:	0c30      	lsrs	r0, r6, #16
   28634:	7160      	strb	r0, [r4, #5]
   28636:	0a30      	lsrs	r0, r6, #8
   28638:	7120      	strb	r0, [r4, #4]
   2863a:	a810      	add	r0, sp, #64	@ 0x40
   2863c:	7880      	ldrb	r0, [r0, #2]
   2863e:	70a0      	strb	r0, [r4, #2]
   28640:	1de0      	adds	r0, r4, #7
   28642:	497f      	ldr	r1, [pc, #508]	@ (28840 <_start+0x2ba8>)
   28644:	4469      	add	r1, sp
   28646:	2217      	movs	r2, #23
   28648:	f000 ff61 	bl	2950e <__aeabi_memcpy>
   2864c:	4d7b      	ldr	r5, [pc, #492]	@ (2883c <_start+0x2ba4>)
   2864e:	446d      	add	r5, sp
   28650:	4628      	mov	r0, r5
   28652:	4621      	mov	r1, r4
   28654:	f7f9 fae6 	bl	21c24 <_ZN20complex_full_dynamic3app17h50f6376a467a7458E>
   28658:	7828      	ldrb	r0, [r5, #0]
   2865a:	2801      	cmp	r0, #1
   2865c:	d103      	bne.n	28666 <_start+0x29ce>
   2865e:	990c      	ldr	r1, [sp, #48]	@ 0x30
   28660:	6e09      	ldr	r1, [r1, #96]	@ 0x60
   28662:	910b      	str	r1, [sp, #44]	@ 0x2c
   28664:	e019      	b.n	2869a <_start+0x2a02>
   28666:	4975      	ldr	r1, [pc, #468]	@ (2883c <_start+0x2ba4>)
   28668:	4469      	add	r1, sp
   2866a:	78ca      	ldrb	r2, [r1, #3]
   2866c:	ab10      	add	r3, sp, #64	@ 0x40
   2866e:	709a      	strb	r2, [r3, #2]
   28670:	784a      	ldrb	r2, [r1, #1]
   28672:	788c      	ldrb	r4, [r1, #2]
   28674:	0224      	lsls	r4, r4, #8
   28676:	18a2      	adds	r2, r4, r2
   28678:	801a      	strh	r2, [r3, #0]
   2867a:	3108      	adds	r1, #8
   2867c:	9a0c      	ldr	r2, [sp, #48]	@ 0x30
   2867e:	6e12      	ldr	r2, [r2, #96]	@ 0x60
   28680:	920b      	str	r2, [sp, #44]	@ 0x2c
   28682:	4a6f      	ldr	r2, [pc, #444]	@ (28840 <_start+0x2ba8>)
   28684:	446a      	add	r2, sp
   28686:	c938      	ldmia	r1!, {r3, r4, r5}
   28688:	c238      	stmia	r2!, {r3, r4, r5}
   2868a:	c938      	ldmia	r1!, {r3, r4, r5}
   2868c:	c238      	stmia	r2!, {r3, r4, r5}
   2868e:	c938      	ldmia	r1!, {r3, r4, r5}
   28690:	c238      	stmia	r2!, {r3, r4, r5}
   28692:	c978      	ldmia	r1!, {r3, r4, r5, r6}
   28694:	c278      	stmia	r2!, {r3, r4, r5, r6}
   28696:	7809      	ldrb	r1, [r1, #0]
   28698:	7011      	strb	r1, [r2, #0]
   2869a:	2800      	cmp	r0, #0
   2869c:	d001      	beq.n	286a2 <_start+0x2a0a>
   2869e:	f7fd fe89 	bl	263b4 <_start+0x71c>
   286a2:	4c6c      	ldr	r4, [pc, #432]	@ (28854 <_start+0x2bbc>)
   286a4:	446c      	add	r4, sp
   286a6:	990b      	ldr	r1, [sp, #44]	@ 0x2c
   286a8:	70e1      	strb	r1, [r4, #3]
   286aa:	9810      	ldr	r0, [sp, #64]	@ 0x40
   286ac:	8020      	strh	r0, [r4, #0]
   286ae:	0e08      	lsrs	r0, r1, #24
   286b0:	71a0      	strb	r0, [r4, #6]
   286b2:	0c08      	lsrs	r0, r1, #16
   286b4:	7160      	strb	r0, [r4, #5]
   286b6:	0a08      	lsrs	r0, r1, #8
   286b8:	7120      	strb	r0, [r4, #4]
   286ba:	a810      	add	r0, sp, #64	@ 0x40
   286bc:	7880      	ldrb	r0, [r0, #2]
   286be:	70a0      	strb	r0, [r4, #2]
   286c0:	1de0      	adds	r0, r4, #7
   286c2:	495f      	ldr	r1, [pc, #380]	@ (28840 <_start+0x2ba8>)
   286c4:	4469      	add	r1, sp
   286c6:	2235      	movs	r2, #53	@ 0x35
   286c8:	f000 ff21 	bl	2950e <__aeabi_memcpy>
   286cc:	4d5b      	ldr	r5, [pc, #364]	@ (2883c <_start+0x2ba4>)
   286ce:	446d      	add	r5, sp
   286d0:	4628      	mov	r0, r5
   286d2:	4621      	mov	r1, r4
   286d4:	f7f8 fae6 	bl	20ca4 <_ZN20complex_full_dynamic3app17h260773f28173bd92E>
   286d8:	7828      	ldrb	r0, [r5, #0]
   286da:	2801      	cmp	r0, #1
   286dc:	d102      	bne.n	286e4 <_start+0x2a4c>
   286de:	990c      	ldr	r1, [sp, #48]	@ 0x30
   286e0:	6e0e      	ldr	r6, [r1, #96]	@ 0x60
   286e2:	e016      	b.n	28712 <_start+0x2a7a>
   286e4:	4955      	ldr	r1, [pc, #340]	@ (2883c <_start+0x2ba4>)
   286e6:	4469      	add	r1, sp
   286e8:	78ca      	ldrb	r2, [r1, #3]
   286ea:	ab10      	add	r3, sp, #64	@ 0x40
   286ec:	709a      	strb	r2, [r3, #2]
   286ee:	784a      	ldrb	r2, [r1, #1]
   286f0:	788c      	ldrb	r4, [r1, #2]
   286f2:	0224      	lsls	r4, r4, #8
   286f4:	18a2      	adds	r2, r4, r2
   286f6:	801a      	strh	r2, [r3, #0]
   286f8:	3108      	adds	r1, #8
   286fa:	9a0c      	ldr	r2, [sp, #48]	@ 0x30
   286fc:	6e16      	ldr	r6, [r2, #96]	@ 0x60
   286fe:	4a50      	ldr	r2, [pc, #320]	@ (28840 <_start+0x2ba8>)
   28700:	446a      	add	r2, sp
   28702:	c938      	ldmia	r1!, {r3, r4, r5}
   28704:	c238      	stmia	r2!, {r3, r4, r5}
   28706:	c938      	ldmia	r1!, {r3, r4, r5}
   28708:	c238      	stmia	r2!, {r3, r4, r5}
   2870a:	c938      	ldmia	r1!, {r3, r4, r5}
   2870c:	c238      	stmia	r2!, {r3, r4, r5}
   2870e:	7809      	ldrb	r1, [r1, #0]
   28710:	7011      	strb	r1, [r2, #0]
   28712:	2800      	cmp	r0, #0
   28714:	d001      	beq.n	2871a <_start+0x2a82>
   28716:	f7fd fce0 	bl	260da <_start+0x442>
   2871a:	4c4f      	ldr	r4, [pc, #316]	@ (28858 <_start+0x2bc0>)
   2871c:	446c      	add	r4, sp
   2871e:	70e6      	strb	r6, [r4, #3]
   28720:	9810      	ldr	r0, [sp, #64]	@ 0x40
   28722:	8020      	strh	r0, [r4, #0]
   28724:	0e30      	lsrs	r0, r6, #24
   28726:	71a0      	strb	r0, [r4, #6]
   28728:	0c30      	lsrs	r0, r6, #16
   2872a:	7160      	strb	r0, [r4, #5]
   2872c:	0a30      	lsrs	r0, r6, #8
   2872e:	7120      	strb	r0, [r4, #4]
   28730:	a810      	add	r0, sp, #64	@ 0x40
   28732:	7880      	ldrb	r0, [r0, #2]
   28734:	70a0      	strb	r0, [r4, #2]
   28736:	1de0      	adds	r0, r4, #7
   28738:	4941      	ldr	r1, [pc, #260]	@ (28840 <_start+0x2ba8>)
   2873a:	4469      	add	r1, sp
   2873c:	2225      	movs	r2, #37	@ 0x25
   2873e:	f000 fee6 	bl	2950e <__aeabi_memcpy>
   28742:	4d3e      	ldr	r5, [pc, #248]	@ (2883c <_start+0x2ba4>)
   28744:	446d      	add	r5, sp
   28746:	4628      	mov	r0, r5
   28748:	4621      	mov	r1, r4
   2874a:	f7fb fb79 	bl	23e40 <_ZN20complex_full_dynamic3app17ha57e69312954cabeE>
   2874e:	7828      	ldrb	r0, [r5, #0]
   28750:	2801      	cmp	r0, #1
   28752:	d103      	bne.n	2875c <_start+0x2ac4>
   28754:	990c      	ldr	r1, [sp, #48]	@ 0x30
   28756:	6e09      	ldr	r1, [r1, #96]	@ 0x60
   28758:	910b      	str	r1, [sp, #44]	@ 0x2c
   2875a:	e013      	b.n	28784 <_start+0x2aec>
   2875c:	4937      	ldr	r1, [pc, #220]	@ (2883c <_start+0x2ba4>)
   2875e:	4469      	add	r1, sp
   28760:	78ca      	ldrb	r2, [r1, #3]
   28762:	ab10      	add	r3, sp, #64	@ 0x40
   28764:	709a      	strb	r2, [r3, #2]
   28766:	784a      	ldrb	r2, [r1, #1]
   28768:	788c      	ldrb	r4, [r1, #2]
   2876a:	0224      	lsls	r4, r4, #8
   2876c:	18a2      	adds	r2, r4, r2
   2876e:	801a      	strh	r2, [r3, #0]
   28770:	3108      	adds	r1, #8
   28772:	9a0c      	ldr	r2, [sp, #48]	@ 0x30
   28774:	6e12      	ldr	r2, [r2, #96]	@ 0x60
   28776:	920b      	str	r2, [sp, #44]	@ 0x2c
   28778:	4a31      	ldr	r2, [pc, #196]	@ (28840 <_start+0x2ba8>)
   2877a:	446a      	add	r2, sp
   2877c:	c978      	ldmia	r1!, {r3, r4, r5, r6}
   2877e:	c278      	stmia	r2!, {r3, r4, r5, r6}
   28780:	c978      	ldmia	r1!, {r3, r4, r5, r6}
   28782:	c278      	stmia	r2!, {r3, r4, r5, r6}
   28784:	2800      	cmp	r0, #0
   28786:	d001      	beq.n	2878c <_start+0x2af4>
   28788:	f7fd fe14 	bl	263b4 <_start+0x71c>
   2878c:	4c33      	ldr	r4, [pc, #204]	@ (2885c <_start+0x2bc4>)
   2878e:	446c      	add	r4, sp
   28790:	990b      	ldr	r1, [sp, #44]	@ 0x2c
   28792:	70e1      	strb	r1, [r4, #3]
   28794:	9810      	ldr	r0, [sp, #64]	@ 0x40
   28796:	8020      	strh	r0, [r4, #0]
   28798:	0e08      	lsrs	r0, r1, #24
   2879a:	71a0      	strb	r0, [r4, #6]
   2879c:	0c08      	lsrs	r0, r1, #16
   2879e:	7160      	strb	r0, [r4, #5]
   287a0:	0a08      	lsrs	r0, r1, #8
   287a2:	7120      	strb	r0, [r4, #4]
   287a4:	a810      	add	r0, sp, #64	@ 0x40
   287a6:	7880      	ldrb	r0, [r0, #2]
   287a8:	70a0      	strb	r0, [r4, #2]
   287aa:	1de0      	adds	r0, r4, #7
   287ac:	4924      	ldr	r1, [pc, #144]	@ (28840 <_start+0x2ba8>)
   287ae:	4469      	add	r1, sp
   287b0:	2220      	movs	r2, #32
   287b2:	f000 feac 	bl	2950e <__aeabi_memcpy>
   287b6:	4d21      	ldr	r5, [pc, #132]	@ (2883c <_start+0x2ba4>)
   287b8:	446d      	add	r5, sp
   287ba:	4628      	mov	r0, r5
   287bc:	4621      	mov	r1, r4
   287be:	f7fa f807 	bl	227d0 <_ZN20complex_full_dynamic3app17h6ea994c075a77771E>
   287c2:	782c      	ldrb	r4, [r5, #0]
   287c4:	2c01      	cmp	r4, #1
   287c6:	d102      	bne.n	287ce <_start+0x2b36>
   287c8:	980c      	ldr	r0, [sp, #48]	@ 0x30
   287ca:	6e06      	ldr	r6, [r0, #96]	@ 0x60
   287cc:	e011      	b.n	287f2 <_start+0x2b5a>
   287ce:	491b      	ldr	r1, [pc, #108]	@ (2883c <_start+0x2ba4>)
   287d0:	4469      	add	r1, sp
   287d2:	78c8      	ldrb	r0, [r1, #3]
   287d4:	aa10      	add	r2, sp, #64	@ 0x40
   287d6:	7090      	strb	r0, [r2, #2]
   287d8:	7848      	ldrb	r0, [r1, #1]
   287da:	788b      	ldrb	r3, [r1, #2]
   287dc:	021b      	lsls	r3, r3, #8
   287de:	1818      	adds	r0, r3, r0
   287e0:	8010      	strh	r0, [r2, #0]
   287e2:	980c      	ldr	r0, [sp, #48]	@ 0x30
   287e4:	6e06      	ldr	r6, [r0, #96]	@ 0x60
   287e6:	3108      	adds	r1, #8
   287e8:	4815      	ldr	r0, [pc, #84]	@ (28840 <_start+0x2ba8>)
   287ea:	4468      	add	r0, sp
   287ec:	2248      	movs	r2, #72	@ 0x48
   287ee:	f000 fd2e 	bl	2924e <__aeabi_memcpy4>
   287f2:	2c00      	cmp	r4, #0
   287f4:	d001      	beq.n	287fa <_start+0x2b62>
   287f6:	f7fd fc70 	bl	260da <_start+0x442>
   287fa:	4c19      	ldr	r4, [pc, #100]	@ (28860 <_start+0x2bc8>)
   287fc:	446c      	add	r4, sp
   287fe:	70e6      	strb	r6, [r4, #3]
   28800:	9810      	ldr	r0, [sp, #64]	@ 0x40
   28802:	8020      	strh	r0, [r4, #0]
   28804:	0e30      	lsrs	r0, r6, #24
   28806:	71a0      	strb	r0, [r4, #6]
   28808:	0c30      	lsrs	r0, r6, #16
   2880a:	7160      	strb	r0, [r4, #5]
   2880c:	0a30      	lsrs	r0, r6, #8
   2880e:	7120      	strb	r0, [r4, #4]
   28810:	a810      	add	r0, sp, #64	@ 0x40
   28812:	7880      	ldrb	r0, [r0, #2]
   28814:	70a0      	strb	r0, [r4, #2]
   28816:	1de0      	adds	r0, r4, #7
   28818:	4909      	ldr	r1, [pc, #36]	@ (28840 <_start+0x2ba8>)
   2881a:	4469      	add	r1, sp
   2881c:	2248      	movs	r2, #72	@ 0x48
   2881e:	f000 fe76 	bl	2950e <__aeabi_memcpy>
   28822:	4d06      	ldr	r5, [pc, #24]	@ (2883c <_start+0x2ba4>)
   28824:	446d      	add	r5, sp
   28826:	4628      	mov	r0, r5
   28828:	4621      	mov	r1, r4
   2882a:	f7fa f941 	bl	22ab0 <_ZN20complex_full_dynamic3app17h7ab0885b6c3def19E>
   2882e:	7828      	ldrb	r0, [r5, #0]
   28830:	2801      	cmp	r0, #1
   28832:	d117      	bne.n	28864 <_start+0x2bcc>
   28834:	990c      	ldr	r1, [sp, #48]	@ 0x30
   28836:	6e09      	ldr	r1, [r1, #96]	@ 0x60
   28838:	910b      	str	r1, [sp, #44]	@ 0x2c
   2883a:	e02b      	b.n	28894 <_start+0x2bfc>
   2883c:	00001414 	.word	0x00001414
   28840:	000013b8 	.word	0x000013b8
   28844:	00000ef0 	.word	0x00000ef0
   28848:	00000f0c 	.word	0x00000f0c
   2884c:	00000f50 	.word	0x00000f50
   28850:	00000f68 	.word	0x00000f68
   28854:	00000f88 	.word	0x00000f88
   28858:	00000fc4 	.word	0x00000fc4
   2885c:	00000ff0 	.word	0x00000ff0
   28860:	00001018 	.word	0x00001018
   28864:	49ec      	ldr	r1, [pc, #944]	@ (28c18 <_start+0x2f80>)
   28866:	4469      	add	r1, sp
   28868:	78ca      	ldrb	r2, [r1, #3]
   2886a:	ab10      	add	r3, sp, #64	@ 0x40
   2886c:	709a      	strb	r2, [r3, #2]
   2886e:	784a      	ldrb	r2, [r1, #1]
   28870:	788c      	ldrb	r4, [r1, #2]
   28872:	0224      	lsls	r4, r4, #8
   28874:	18a2      	adds	r2, r4, r2
   28876:	801a      	strh	r2, [r3, #0]
   28878:	3108      	adds	r1, #8
   2887a:	9a0c      	ldr	r2, [sp, #48]	@ 0x30
   2887c:	6e12      	ldr	r2, [r2, #96]	@ 0x60
   2887e:	920b      	str	r2, [sp, #44]	@ 0x2c
   28880:	4ae6      	ldr	r2, [pc, #920]	@ (28c1c <_start+0x2f84>)
   28882:	446a      	add	r2, sp
   28884:	c938      	ldmia	r1!, {r3, r4, r5}
   28886:	c238      	stmia	r2!, {r3, r4, r5}
   28888:	c978      	ldmia	r1!, {r3, r4, r5, r6}
   2888a:	c278      	stmia	r2!, {r3, r4, r5, r6}
   2888c:	c978      	ldmia	r1!, {r3, r4, r5, r6}
   2888e:	c278      	stmia	r2!, {r3, r4, r5, r6}
   28890:	8809      	ldrh	r1, [r1, #0]
   28892:	8011      	strh	r1, [r2, #0]
   28894:	2800      	cmp	r0, #0
   28896:	d001      	beq.n	2889c <_start+0x2c04>
   28898:	f7fd fd8c 	bl	263b4 <_start+0x71c>
   2889c:	4ce0      	ldr	r4, [pc, #896]	@ (28c20 <_start+0x2f88>)
   2889e:	446c      	add	r4, sp
   288a0:	990b      	ldr	r1, [sp, #44]	@ 0x2c
   288a2:	70e1      	strb	r1, [r4, #3]
   288a4:	9810      	ldr	r0, [sp, #64]	@ 0x40
   288a6:	8020      	strh	r0, [r4, #0]
   288a8:	0e08      	lsrs	r0, r1, #24
   288aa:	71a0      	strb	r0, [r4, #6]
   288ac:	0c08      	lsrs	r0, r1, #16
   288ae:	7160      	strb	r0, [r4, #5]
   288b0:	0a08      	lsrs	r0, r1, #8
   288b2:	7120      	strb	r0, [r4, #4]
   288b4:	a810      	add	r0, sp, #64	@ 0x40
   288b6:	7880      	ldrb	r0, [r0, #2]
   288b8:	70a0      	strb	r0, [r4, #2]
   288ba:	1de0      	adds	r0, r4, #7
   288bc:	49d7      	ldr	r1, [pc, #860]	@ (28c1c <_start+0x2f84>)
   288be:	4469      	add	r1, sp
   288c0:	222e      	movs	r2, #46	@ 0x2e
   288c2:	f000 fe24 	bl	2950e <__aeabi_memcpy>
   288c6:	4dd4      	ldr	r5, [pc, #848]	@ (28c18 <_start+0x2f80>)
   288c8:	446d      	add	r5, sp
   288ca:	4628      	mov	r0, r5
   288cc:	4621      	mov	r1, r4
   288ce:	f7fc fef5 	bl	256bc <_ZN20complex_full_dynamic3app17hf12e4e203bdb994bE>
   288d2:	7828      	ldrb	r0, [r5, #0]
   288d4:	2801      	cmp	r0, #1
   288d6:	d103      	bne.n	288e0 <_start+0x2c48>
   288d8:	990c      	ldr	r1, [sp, #48]	@ 0x30
   288da:	6e09      	ldr	r1, [r1, #96]	@ 0x60
   288dc:	910b      	str	r1, [sp, #44]	@ 0x2c
   288de:	e017      	b.n	28910 <_start+0x2c78>
   288e0:	49cd      	ldr	r1, [pc, #820]	@ (28c18 <_start+0x2f80>)
   288e2:	4469      	add	r1, sp
   288e4:	78ca      	ldrb	r2, [r1, #3]
   288e6:	ab10      	add	r3, sp, #64	@ 0x40
   288e8:	709a      	strb	r2, [r3, #2]
   288ea:	784a      	ldrb	r2, [r1, #1]
   288ec:	788c      	ldrb	r4, [r1, #2]
   288ee:	0224      	lsls	r4, r4, #8
   288f0:	18a2      	adds	r2, r4, r2
   288f2:	801a      	strh	r2, [r3, #0]
   288f4:	3108      	adds	r1, #8
   288f6:	9a0c      	ldr	r2, [sp, #48]	@ 0x30
   288f8:	6e12      	ldr	r2, [r2, #96]	@ 0x60
   288fa:	920b      	str	r2, [sp, #44]	@ 0x2c
   288fc:	4ac7      	ldr	r2, [pc, #796]	@ (28c1c <_start+0x2f84>)
   288fe:	446a      	add	r2, sp
   28900:	c938      	ldmia	r1!, {r3, r4, r5}
   28902:	c238      	stmia	r2!, {r3, r4, r5}
   28904:	c978      	ldmia	r1!, {r3, r4, r5, r6}
   28906:	c278      	stmia	r2!, {r3, r4, r5, r6}
   28908:	c938      	ldmia	r1!, {r3, r4, r5}
   2890a:	c238      	stmia	r2!, {r3, r4, r5}
   2890c:	c978      	ldmia	r1!, {r3, r4, r5, r6}
   2890e:	c278      	stmia	r2!, {r3, r4, r5, r6}
   28910:	2800      	cmp	r0, #0
   28912:	d001      	beq.n	28918 <_start+0x2c80>
   28914:	f7fd fd4e 	bl	263b4 <_start+0x71c>
   28918:	4cc2      	ldr	r4, [pc, #776]	@ (28c24 <_start+0x2f8c>)
   2891a:	446c      	add	r4, sp
   2891c:	990b      	ldr	r1, [sp, #44]	@ 0x2c
   2891e:	70e1      	strb	r1, [r4, #3]
   28920:	9810      	ldr	r0, [sp, #64]	@ 0x40
   28922:	8020      	strh	r0, [r4, #0]
   28924:	0e08      	lsrs	r0, r1, #24
   28926:	71a0      	strb	r0, [r4, #6]
   28928:	0c08      	lsrs	r0, r1, #16
   2892a:	7160      	strb	r0, [r4, #5]
   2892c:	0a08      	lsrs	r0, r1, #8
   2892e:	7120      	strb	r0, [r4, #4]
   28930:	a810      	add	r0, sp, #64	@ 0x40
   28932:	7880      	ldrb	r0, [r0, #2]
   28934:	70a0      	strb	r0, [r4, #2]
   28936:	1de0      	adds	r0, r4, #7
   28938:	49b8      	ldr	r1, [pc, #736]	@ (28c1c <_start+0x2f84>)
   2893a:	4469      	add	r1, sp
   2893c:	2238      	movs	r2, #56	@ 0x38
   2893e:	f000 fde6 	bl	2950e <__aeabi_memcpy>
   28942:	4db5      	ldr	r5, [pc, #724]	@ (28c18 <_start+0x2f80>)
   28944:	446d      	add	r5, sp
   28946:	4628      	mov	r0, r5
   28948:	4621      	mov	r1, r4
   2894a:	f7fc f953 	bl	24bf4 <_ZN20complex_full_dynamic3app17hdb5616bf70f76ecdE>
   2894e:	7828      	ldrb	r0, [r5, #0]
   28950:	2801      	cmp	r0, #1
   28952:	d102      	bne.n	2895a <_start+0x2cc2>
   28954:	990c      	ldr	r1, [sp, #48]	@ 0x30
   28956:	6e0e      	ldr	r6, [r1, #96]	@ 0x60
   28958:	e012      	b.n	28980 <_start+0x2ce8>
   2895a:	49b0      	ldr	r1, [pc, #704]	@ (28c1c <_start+0x2f84>)
   2895c:	4469      	add	r1, sp
   2895e:	9c0c      	ldr	r4, [sp, #48]	@ 0x30
   28960:	6ee2      	ldr	r2, [r4, #108]	@ 0x6c
   28962:	810a      	strh	r2, [r1, #8]
   28964:	49ac      	ldr	r1, [pc, #688]	@ (28c18 <_start+0x2f80>)
   28966:	4469      	add	r1, sp
   28968:	78ca      	ldrb	r2, [r1, #3]
   2896a:	ab10      	add	r3, sp, #64	@ 0x40
   2896c:	709a      	strb	r2, [r3, #2]
   2896e:	784a      	ldrb	r2, [r1, #1]
   28970:	7889      	ldrb	r1, [r1, #2]
   28972:	0209      	lsls	r1, r1, #8
   28974:	1889      	adds	r1, r1, r2
   28976:	8019      	strh	r1, [r3, #0]
   28978:	6e61      	ldr	r1, [r4, #100]	@ 0x64
   2897a:	6ea2      	ldr	r2, [r4, #104]	@ 0x68
   2897c:	c406      	stmia	r4!, {r1, r2}
   2897e:	6da6      	ldr	r6, [r4, #88]	@ 0x58
   28980:	2800      	cmp	r0, #0
   28982:	d001      	beq.n	28988 <_start+0x2cf0>
   28984:	f7fd fba9 	bl	260da <_start+0x442>
   28988:	4ca7      	ldr	r4, [pc, #668]	@ (28c28 <_start+0x2f90>)
   2898a:	446c      	add	r4, sp
   2898c:	70e6      	strb	r6, [r4, #3]
   2898e:	9810      	ldr	r0, [sp, #64]	@ 0x40
   28990:	8020      	strh	r0, [r4, #0]
   28992:	0e30      	lsrs	r0, r6, #24
   28994:	71a0      	strb	r0, [r4, #6]
   28996:	0c30      	lsrs	r0, r6, #16
   28998:	7160      	strb	r0, [r4, #5]
   2899a:	0a30      	lsrs	r0, r6, #8
   2899c:	7120      	strb	r0, [r4, #4]
   2899e:	a810      	add	r0, sp, #64	@ 0x40
   289a0:	7880      	ldrb	r0, [r0, #2]
   289a2:	70a0      	strb	r0, [r4, #2]
   289a4:	1de0      	adds	r0, r4, #7
   289a6:	499d      	ldr	r1, [pc, #628]	@ (28c1c <_start+0x2f84>)
   289a8:	4469      	add	r1, sp
   289aa:	220a      	movs	r2, #10
   289ac:	f000 fdaf 	bl	2950e <__aeabi_memcpy>
   289b0:	4d99      	ldr	r5, [pc, #612]	@ (28c18 <_start+0x2f80>)
   289b2:	446d      	add	r5, sp
   289b4:	4628      	mov	r0, r5
   289b6:	4621      	mov	r1, r4
   289b8:	f7f8 fe48 	bl	2164c <_ZN20complex_full_dynamic3app17h44ffb9edfc948c48E>
   289bc:	7828      	ldrb	r0, [r5, #0]
   289be:	2801      	cmp	r0, #1
   289c0:	d103      	bne.n	289ca <_start+0x2d32>
   289c2:	990c      	ldr	r1, [sp, #48]	@ 0x30
   289c4:	6e09      	ldr	r1, [r1, #96]	@ 0x60
   289c6:	910b      	str	r1, [sp, #44]	@ 0x2c
   289c8:	e017      	b.n	289fa <_start+0x2d62>
   289ca:	4993      	ldr	r1, [pc, #588]	@ (28c18 <_start+0x2f80>)
   289cc:	4469      	add	r1, sp
   289ce:	78ca      	ldrb	r2, [r1, #3]
   289d0:	ab10      	add	r3, sp, #64	@ 0x40
   289d2:	709a      	strb	r2, [r3, #2]
   289d4:	784a      	ldrb	r2, [r1, #1]
   289d6:	788c      	ldrb	r4, [r1, #2]
   289d8:	0224      	lsls	r4, r4, #8
   289da:	18a2      	adds	r2, r4, r2
   289dc:	801a      	strh	r2, [r3, #0]
   289de:	3108      	adds	r1, #8
   289e0:	9a0c      	ldr	r2, [sp, #48]	@ 0x30
   289e2:	6e12      	ldr	r2, [r2, #96]	@ 0x60
   289e4:	920b      	str	r2, [sp, #44]	@ 0x2c
   289e6:	4a8d      	ldr	r2, [pc, #564]	@ (28c1c <_start+0x2f84>)
   289e8:	446a      	add	r2, sp
   289ea:	c938      	ldmia	r1!, {r3, r4, r5}
   289ec:	c238      	stmia	r2!, {r3, r4, r5}
   289ee:	c978      	ldmia	r1!, {r3, r4, r5, r6}
   289f0:	c278      	stmia	r2!, {r3, r4, r5, r6}
   289f2:	c938      	ldmia	r1!, {r3, r4, r5}
   289f4:	c238      	stmia	r2!, {r3, r4, r5}
   289f6:	c978      	ldmia	r1!, {r3, r4, r5, r6}
   289f8:	c278      	stmia	r2!, {r3, r4, r5, r6}
   289fa:	2800      	cmp	r0, #0
   289fc:	d001      	beq.n	28a02 <_start+0x2d6a>
   289fe:	f7fd fcd9 	bl	263b4 <_start+0x71c>
   28a02:	4c8a      	ldr	r4, [pc, #552]	@ (28c2c <_start+0x2f94>)
   28a04:	446c      	add	r4, sp
   28a06:	990b      	ldr	r1, [sp, #44]	@ 0x2c
   28a08:	70e1      	strb	r1, [r4, #3]
   28a0a:	9810      	ldr	r0, [sp, #64]	@ 0x40
   28a0c:	8020      	strh	r0, [r4, #0]
   28a0e:	0e08      	lsrs	r0, r1, #24
   28a10:	71a0      	strb	r0, [r4, #6]
   28a12:	0c08      	lsrs	r0, r1, #16
   28a14:	7160      	strb	r0, [r4, #5]
   28a16:	0a08      	lsrs	r0, r1, #8
   28a18:	7120      	strb	r0, [r4, #4]
   28a1a:	a810      	add	r0, sp, #64	@ 0x40
   28a1c:	7880      	ldrb	r0, [r0, #2]
   28a1e:	70a0      	strb	r0, [r4, #2]
   28a20:	1de0      	adds	r0, r4, #7
   28a22:	497e      	ldr	r1, [pc, #504]	@ (28c1c <_start+0x2f84>)
   28a24:	4469      	add	r1, sp
   28a26:	2238      	movs	r2, #56	@ 0x38
   28a28:	f000 fd71 	bl	2950e <__aeabi_memcpy>
   28a2c:	4d7a      	ldr	r5, [pc, #488]	@ (28c18 <_start+0x2f80>)
   28a2e:	446d      	add	r5, sp
   28a30:	4628      	mov	r0, r5
   28a32:	4621      	mov	r1, r4
   28a34:	f7fa fa36 	bl	22ea4 <_ZN20complex_full_dynamic3app17h871c8ac1d2e1a7cdE>
   28a38:	7828      	ldrb	r0, [r5, #0]
   28a3a:	2801      	cmp	r0, #1
   28a3c:	d102      	bne.n	28a44 <_start+0x2dac>
   28a3e:	990c      	ldr	r1, [sp, #48]	@ 0x30
   28a40:	6e0e      	ldr	r6, [r1, #96]	@ 0x60
   28a42:	e014      	b.n	28a6e <_start+0x2dd6>
   28a44:	4974      	ldr	r1, [pc, #464]	@ (28c18 <_start+0x2f80>)
   28a46:	4469      	add	r1, sp
   28a48:	78ca      	ldrb	r2, [r1, #3]
   28a4a:	ab10      	add	r3, sp, #64	@ 0x40
   28a4c:	709a      	strb	r2, [r3, #2]
   28a4e:	784a      	ldrb	r2, [r1, #1]
   28a50:	788c      	ldrb	r4, [r1, #2]
   28a52:	0224      	lsls	r4, r4, #8
   28a54:	18a2      	adds	r2, r4, r2
   28a56:	801a      	strh	r2, [r3, #0]
   28a58:	3108      	adds	r1, #8
   28a5a:	9a0c      	ldr	r2, [sp, #48]	@ 0x30
   28a5c:	6e16      	ldr	r6, [r2, #96]	@ 0x60
   28a5e:	4a6f      	ldr	r2, [pc, #444]	@ (28c1c <_start+0x2f84>)
   28a60:	446a      	add	r2, sp
   28a62:	c918      	ldmia	r1!, {r3, r4}
   28a64:	c218      	stmia	r2!, {r3, r4}
   28a66:	c938      	ldmia	r1!, {r3, r4, r5}
   28a68:	c238      	stmia	r2!, {r3, r4, r5}
   28a6a:	7809      	ldrb	r1, [r1, #0]
   28a6c:	7011      	strb	r1, [r2, #0]
   28a6e:	2800      	cmp	r0, #0
   28a70:	d001      	beq.n	28a76 <_start+0x2dde>
   28a72:	f7fd fb32 	bl	260da <_start+0x442>
   28a76:	4c6e      	ldr	r4, [pc, #440]	@ (28c30 <_start+0x2f98>)
   28a78:	446c      	add	r4, sp
   28a7a:	70e6      	strb	r6, [r4, #3]
   28a7c:	9810      	ldr	r0, [sp, #64]	@ 0x40
   28a7e:	8020      	strh	r0, [r4, #0]
   28a80:	0e30      	lsrs	r0, r6, #24
   28a82:	71a0      	strb	r0, [r4, #6]
   28a84:	0c30      	lsrs	r0, r6, #16
   28a86:	7160      	strb	r0, [r4, #5]
   28a88:	0a30      	lsrs	r0, r6, #8
   28a8a:	7120      	strb	r0, [r4, #4]
   28a8c:	a810      	add	r0, sp, #64	@ 0x40
   28a8e:	7880      	ldrb	r0, [r0, #2]
   28a90:	70a0      	strb	r0, [r4, #2]
   28a92:	1de0      	adds	r0, r4, #7
   28a94:	4961      	ldr	r1, [pc, #388]	@ (28c1c <_start+0x2f84>)
   28a96:	4469      	add	r1, sp
   28a98:	2215      	movs	r2, #21
   28a9a:	f000 fd38 	bl	2950e <__aeabi_memcpy>
   28a9e:	4d5e      	ldr	r5, [pc, #376]	@ (28c18 <_start+0x2f80>)
   28aa0:	446d      	add	r5, sp
   28aa2:	4628      	mov	r0, r5
   28aa4:	4621      	mov	r1, r4
   28aa6:	f7f9 ff87 	bl	229b8 <_ZN20complex_full_dynamic3app17h7492f11e03d5a534E>
   28aaa:	782c      	ldrb	r4, [r5, #0]
   28aac:	2c01      	cmp	r4, #1
   28aae:	d102      	bne.n	28ab6 <_start+0x2e1e>
   28ab0:	980c      	ldr	r0, [sp, #48]	@ 0x30
   28ab2:	6e06      	ldr	r6, [r0, #96]	@ 0x60
   28ab4:	e011      	b.n	28ada <_start+0x2e42>
   28ab6:	4958      	ldr	r1, [pc, #352]	@ (28c18 <_start+0x2f80>)
   28ab8:	4469      	add	r1, sp
   28aba:	78c8      	ldrb	r0, [r1, #3]
   28abc:	aa10      	add	r2, sp, #64	@ 0x40
   28abe:	7090      	strb	r0, [r2, #2]
   28ac0:	7848      	ldrb	r0, [r1, #1]
   28ac2:	788b      	ldrb	r3, [r1, #2]
   28ac4:	021b      	lsls	r3, r3, #8
   28ac6:	1818      	adds	r0, r3, r0
   28ac8:	8010      	strh	r0, [r2, #0]
   28aca:	980c      	ldr	r0, [sp, #48]	@ 0x30
   28acc:	6e06      	ldr	r6, [r0, #96]	@ 0x60
   28ace:	3108      	adds	r1, #8
   28ad0:	4852      	ldr	r0, [pc, #328]	@ (28c1c <_start+0x2f84>)
   28ad2:	4468      	add	r0, sp
   28ad4:	2256      	movs	r2, #86	@ 0x56
   28ad6:	f000 fbba 	bl	2924e <__aeabi_memcpy4>
   28ada:	2c00      	cmp	r4, #0
   28adc:	d001      	beq.n	28ae2 <_start+0x2e4a>
   28ade:	f7fd fafc 	bl	260da <_start+0x442>
   28ae2:	4c54      	ldr	r4, [pc, #336]	@ (28c34 <_start+0x2f9c>)
   28ae4:	446c      	add	r4, sp
   28ae6:	70e6      	strb	r6, [r4, #3]
   28ae8:	9810      	ldr	r0, [sp, #64]	@ 0x40
   28aea:	8020      	strh	r0, [r4, #0]
   28aec:	0e30      	lsrs	r0, r6, #24
   28aee:	71a0      	strb	r0, [r4, #6]
   28af0:	0c30      	lsrs	r0, r6, #16
   28af2:	7160      	strb	r0, [r4, #5]
   28af4:	0a30      	lsrs	r0, r6, #8
   28af6:	7120      	strb	r0, [r4, #4]
   28af8:	a810      	add	r0, sp, #64	@ 0x40
   28afa:	7880      	ldrb	r0, [r0, #2]
   28afc:	70a0      	strb	r0, [r4, #2]
   28afe:	1de0      	adds	r0, r4, #7
   28b00:	4946      	ldr	r1, [pc, #280]	@ (28c1c <_start+0x2f84>)
   28b02:	4469      	add	r1, sp
   28b04:	2256      	movs	r2, #86	@ 0x56
   28b06:	f000 fd02 	bl	2950e <__aeabi_memcpy>
   28b0a:	4d43      	ldr	r5, [pc, #268]	@ (28c18 <_start+0x2f80>)
   28b0c:	446d      	add	r5, sp
   28b0e:	4628      	mov	r0, r5
   28b10:	4621      	mov	r1, r4
   28b12:	f7f8 f943 	bl	20d9c <_ZN20complex_full_dynamic3app17h27fc14a92a9c8904E>
   28b16:	7828      	ldrb	r0, [r5, #0]
   28b18:	2801      	cmp	r0, #1
   28b1a:	d102      	bne.n	28b22 <_start+0x2e8a>
   28b1c:	990c      	ldr	r1, [sp, #48]	@ 0x30
   28b1e:	6e0e      	ldr	r6, [r1, #96]	@ 0x60
   28b20:	e014      	b.n	28b4c <_start+0x2eb4>
   28b22:	493e      	ldr	r1, [pc, #248]	@ (28c1c <_start+0x2f84>)
   28b24:	4469      	add	r1, sp
   28b26:	9d0c      	ldr	r5, [sp, #48]	@ 0x30
   28b28:	6eea      	ldr	r2, [r5, #108]	@ 0x6c
   28b2a:	810a      	strh	r2, [r1, #8]
   28b2c:	4a3a      	ldr	r2, [pc, #232]	@ (28c18 <_start+0x2f80>)
   28b2e:	446a      	add	r2, sp
   28b30:	78d3      	ldrb	r3, [r2, #3]
   28b32:	ac10      	add	r4, sp, #64	@ 0x40
   28b34:	70a3      	strb	r3, [r4, #2]
   28b36:	7c93      	ldrb	r3, [r2, #18]
   28b38:	728b      	strb	r3, [r1, #10]
   28b3a:	7851      	ldrb	r1, [r2, #1]
   28b3c:	7892      	ldrb	r2, [r2, #2]
   28b3e:	0212      	lsls	r2, r2, #8
   28b40:	1851      	adds	r1, r2, r1
   28b42:	8021      	strh	r1, [r4, #0]
   28b44:	6e69      	ldr	r1, [r5, #100]	@ 0x64
   28b46:	6eaa      	ldr	r2, [r5, #104]	@ 0x68
   28b48:	c506      	stmia	r5!, {r1, r2}
   28b4a:	6dae      	ldr	r6, [r5, #88]	@ 0x58
   28b4c:	2800      	cmp	r0, #0
   28b4e:	d001      	beq.n	28b54 <_start+0x2ebc>
   28b50:	f7fd fac3 	bl	260da <_start+0x442>
   28b54:	4c38      	ldr	r4, [pc, #224]	@ (28c38 <_start+0x2fa0>)
   28b56:	446c      	add	r4, sp
   28b58:	70e6      	strb	r6, [r4, #3]
   28b5a:	9810      	ldr	r0, [sp, #64]	@ 0x40
   28b5c:	8020      	strh	r0, [r4, #0]
   28b5e:	0e30      	lsrs	r0, r6, #24
   28b60:	71a0      	strb	r0, [r4, #6]
   28b62:	0c30      	lsrs	r0, r6, #16
   28b64:	7160      	strb	r0, [r4, #5]
   28b66:	0a30      	lsrs	r0, r6, #8
   28b68:	7120      	strb	r0, [r4, #4]
   28b6a:	a810      	add	r0, sp, #64	@ 0x40
   28b6c:	7880      	ldrb	r0, [r0, #2]
   28b6e:	70a0      	strb	r0, [r4, #2]
   28b70:	1de0      	adds	r0, r4, #7
   28b72:	492a      	ldr	r1, [pc, #168]	@ (28c1c <_start+0x2f84>)
   28b74:	4469      	add	r1, sp
   28b76:	220b      	movs	r2, #11
   28b78:	f000 fcc9 	bl	2950e <__aeabi_memcpy>
   28b7c:	4d26      	ldr	r5, [pc, #152]	@ (28c18 <_start+0x2f80>)
   28b7e:	446d      	add	r5, sp
   28b80:	4628      	mov	r0, r5
   28b82:	4621      	mov	r1, r4
   28b84:	f7f7 fb28 	bl	201d8 <_ZN20complex_full_dynamic3app17h0a0bac826f1386c0E>
   28b88:	7828      	ldrb	r0, [r5, #0]
   28b8a:	2801      	cmp	r0, #1
   28b8c:	d103      	bne.n	28b96 <_start+0x2efe>
   28b8e:	990c      	ldr	r1, [sp, #48]	@ 0x30
   28b90:	6e09      	ldr	r1, [r1, #96]	@ 0x60
   28b92:	910b      	str	r1, [sp, #44]	@ 0x2c
   28b94:	e019      	b.n	28bca <_start+0x2f32>
   28b96:	4920      	ldr	r1, [pc, #128]	@ (28c18 <_start+0x2f80>)
   28b98:	4469      	add	r1, sp
   28b9a:	78ca      	ldrb	r2, [r1, #3]
   28b9c:	ab10      	add	r3, sp, #64	@ 0x40
   28b9e:	709a      	strb	r2, [r3, #2]
   28ba0:	784a      	ldrb	r2, [r1, #1]
   28ba2:	788c      	ldrb	r4, [r1, #2]
   28ba4:	0224      	lsls	r4, r4, #8
   28ba6:	18a2      	adds	r2, r4, r2
   28ba8:	801a      	strh	r2, [r3, #0]
   28baa:	3108      	adds	r1, #8
   28bac:	9a0c      	ldr	r2, [sp, #48]	@ 0x30
   28bae:	6e12      	ldr	r2, [r2, #96]	@ 0x60
   28bb0:	920b      	str	r2, [sp, #44]	@ 0x2c
   28bb2:	4a1a      	ldr	r2, [pc, #104]	@ (28c1c <_start+0x2f84>)
   28bb4:	446a      	add	r2, sp
   28bb6:	c938      	ldmia	r1!, {r3, r4, r5}
   28bb8:	c238      	stmia	r2!, {r3, r4, r5}
   28bba:	c978      	ldmia	r1!, {r3, r4, r5, r6}
   28bbc:	c278      	stmia	r2!, {r3, r4, r5, r6}
   28bbe:	c978      	ldmia	r1!, {r3, r4, r5, r6}
   28bc0:	c278      	stmia	r2!, {r3, r4, r5, r6}
   28bc2:	c978      	ldmia	r1!, {r3, r4, r5, r6}
   28bc4:	c278      	stmia	r2!, {r3, r4, r5, r6}
   28bc6:	7809      	ldrb	r1, [r1, #0]
   28bc8:	7011      	strb	r1, [r2, #0]
   28bca:	2800      	cmp	r0, #0
   28bcc:	d001      	beq.n	28bd2 <_start+0x2f3a>
   28bce:	f7fd fbf1 	bl	263b4 <_start+0x71c>
   28bd2:	4c1a      	ldr	r4, [pc, #104]	@ (28c3c <_start+0x2fa4>)
   28bd4:	446c      	add	r4, sp
   28bd6:	990b      	ldr	r1, [sp, #44]	@ 0x2c
   28bd8:	70e1      	strb	r1, [r4, #3]
   28bda:	9810      	ldr	r0, [sp, #64]	@ 0x40
   28bdc:	8020      	strh	r0, [r4, #0]
   28bde:	0e08      	lsrs	r0, r1, #24
   28be0:	71a0      	strb	r0, [r4, #6]
   28be2:	0c08      	lsrs	r0, r1, #16
   28be4:	7160      	strb	r0, [r4, #5]
   28be6:	0a08      	lsrs	r0, r1, #8
   28be8:	7120      	strb	r0, [r4, #4]
   28bea:	a810      	add	r0, sp, #64	@ 0x40
   28bec:	7880      	ldrb	r0, [r0, #2]
   28bee:	70a0      	strb	r0, [r4, #2]
   28bf0:	1de0      	adds	r0, r4, #7
   28bf2:	490a      	ldr	r1, [pc, #40]	@ (28c1c <_start+0x2f84>)
   28bf4:	4469      	add	r1, sp
   28bf6:	223d      	movs	r2, #61	@ 0x3d
   28bf8:	f000 fc89 	bl	2950e <__aeabi_memcpy>
   28bfc:	4d06      	ldr	r5, [pc, #24]	@ (28c18 <_start+0x2f80>)
   28bfe:	446d      	add	r5, sp
   28c00:	4628      	mov	r0, r5
   28c02:	4621      	mov	r1, r4
   28c04:	f7f7 fa6e 	bl	200e4 <_ZN20complex_full_dynamic3app17h0179d09a4d6e540bE>
   28c08:	7828      	ldrb	r0, [r5, #0]
   28c0a:	2801      	cmp	r0, #1
   28c0c:	d118      	bne.n	28c40 <_start+0x2fa8>
   28c0e:	990c      	ldr	r1, [sp, #48]	@ 0x30
   28c10:	6e09      	ldr	r1, [r1, #96]	@ 0x60
   28c12:	910b      	str	r1, [sp, #44]	@ 0x2c
   28c14:	e028      	b.n	28c68 <_start+0x2fd0>
   28c16:	46c0      	nop			@ (mov r8, r8)
   28c18:	00001414 	.word	0x00001414
   28c1c:	000013b8 	.word	0x000013b8
   28c20:	00001068 	.word	0x00001068
   28c24:	000010a0 	.word	0x000010a0
   28c28:	000010e0 	.word	0x000010e0
   28c2c:	000010f4 	.word	0x000010f4
   28c30:	00001134 	.word	0x00001134
   28c34:	00001150 	.word	0x00001150
   28c38:	000011b0 	.word	0x000011b0
   28c3c:	000011c4 	.word	0x000011c4
   28c40:	49fb      	ldr	r1, [pc, #1004]	@ (29030 <_start+0x3398>)
   28c42:	4469      	add	r1, sp
   28c44:	78ca      	ldrb	r2, [r1, #3]
   28c46:	ab10      	add	r3, sp, #64	@ 0x40
   28c48:	709a      	strb	r2, [r3, #2]
   28c4a:	784a      	ldrb	r2, [r1, #1]
   28c4c:	788c      	ldrb	r4, [r1, #2]
   28c4e:	0224      	lsls	r4, r4, #8
   28c50:	18a2      	adds	r2, r4, r2
   28c52:	801a      	strh	r2, [r3, #0]
   28c54:	3108      	adds	r1, #8
   28c56:	9a0c      	ldr	r2, [sp, #48]	@ 0x30
   28c58:	6e12      	ldr	r2, [r2, #96]	@ 0x60
   28c5a:	920b      	str	r2, [sp, #44]	@ 0x2c
   28c5c:	4af5      	ldr	r2, [pc, #980]	@ (29034 <_start+0x339c>)
   28c5e:	446a      	add	r2, sp
   28c60:	c938      	ldmia	r1!, {r3, r4, r5}
   28c62:	c238      	stmia	r2!, {r3, r4, r5}
   28c64:	c978      	ldmia	r1!, {r3, r4, r5, r6}
   28c66:	c278      	stmia	r2!, {r3, r4, r5, r6}
   28c68:	2800      	cmp	r0, #0
   28c6a:	d001      	beq.n	28c70 <_start+0x2fd8>
   28c6c:	f7fd fba2 	bl	263b4 <_start+0x71c>
   28c70:	4cf1      	ldr	r4, [pc, #964]	@ (29038 <_start+0x33a0>)
   28c72:	446c      	add	r4, sp
   28c74:	990b      	ldr	r1, [sp, #44]	@ 0x2c
   28c76:	70e1      	strb	r1, [r4, #3]
   28c78:	9810      	ldr	r0, [sp, #64]	@ 0x40
   28c7a:	8020      	strh	r0, [r4, #0]
   28c7c:	0e08      	lsrs	r0, r1, #24
   28c7e:	71a0      	strb	r0, [r4, #6]
   28c80:	0c08      	lsrs	r0, r1, #16
   28c82:	7160      	strb	r0, [r4, #5]
   28c84:	0a08      	lsrs	r0, r1, #8
   28c86:	7120      	strb	r0, [r4, #4]
   28c88:	a810      	add	r0, sp, #64	@ 0x40
   28c8a:	7880      	ldrb	r0, [r0, #2]
   28c8c:	70a0      	strb	r0, [r4, #2]
   28c8e:	1de0      	adds	r0, r4, #7
   28c90:	49e8      	ldr	r1, [pc, #928]	@ (29034 <_start+0x339c>)
   28c92:	4469      	add	r1, sp
   28c94:	221c      	movs	r2, #28
   28c96:	f000 fc3a 	bl	2950e <__aeabi_memcpy>
   28c9a:	4de5      	ldr	r5, [pc, #916]	@ (29030 <_start+0x3398>)
   28c9c:	446d      	add	r5, sp
   28c9e:	4628      	mov	r0, r5
   28ca0:	4621      	mov	r1, r4
   28ca2:	f7f9 fd1b 	bl	226dc <_ZN20complex_full_dynamic3app17h6adceebf49cb086aE>
   28ca6:	7828      	ldrb	r0, [r5, #0]
   28ca8:	2801      	cmp	r0, #1
   28caa:	d103      	bne.n	28cb4 <_start+0x301c>
   28cac:	990c      	ldr	r1, [sp, #48]	@ 0x30
   28cae:	6e09      	ldr	r1, [r1, #96]	@ 0x60
   28cb0:	910b      	str	r1, [sp, #44]	@ 0x2c
   28cb2:	e015      	b.n	28ce0 <_start+0x3048>
   28cb4:	49de      	ldr	r1, [pc, #888]	@ (29030 <_start+0x3398>)
   28cb6:	4469      	add	r1, sp
   28cb8:	78ca      	ldrb	r2, [r1, #3]
   28cba:	ab10      	add	r3, sp, #64	@ 0x40
   28cbc:	709a      	strb	r2, [r3, #2]
   28cbe:	784a      	ldrb	r2, [r1, #1]
   28cc0:	788c      	ldrb	r4, [r1, #2]
   28cc2:	0224      	lsls	r4, r4, #8
   28cc4:	18a2      	adds	r2, r4, r2
   28cc6:	801a      	strh	r2, [r3, #0]
   28cc8:	3108      	adds	r1, #8
   28cca:	9a0c      	ldr	r2, [sp, #48]	@ 0x30
   28ccc:	6e12      	ldr	r2, [r2, #96]	@ 0x60
   28cce:	920b      	str	r2, [sp, #44]	@ 0x2c
   28cd0:	4ad8      	ldr	r2, [pc, #864]	@ (29034 <_start+0x339c>)
   28cd2:	446a      	add	r2, sp
   28cd4:	c938      	ldmia	r1!, {r3, r4, r5}
   28cd6:	c238      	stmia	r2!, {r3, r4, r5}
   28cd8:	c978      	ldmia	r1!, {r3, r4, r5, r6}
   28cda:	c278      	stmia	r2!, {r3, r4, r5, r6}
   28cdc:	7809      	ldrb	r1, [r1, #0]
   28cde:	7011      	strb	r1, [r2, #0]
   28ce0:	2800      	cmp	r0, #0
   28ce2:	d001      	beq.n	28ce8 <_start+0x3050>
   28ce4:	f7fd fb66 	bl	263b4 <_start+0x71c>
   28ce8:	4cd4      	ldr	r4, [pc, #848]	@ (2903c <_start+0x33a4>)
   28cea:	446c      	add	r4, sp
   28cec:	990b      	ldr	r1, [sp, #44]	@ 0x2c
   28cee:	70e1      	strb	r1, [r4, #3]
   28cf0:	9810      	ldr	r0, [sp, #64]	@ 0x40
   28cf2:	8020      	strh	r0, [r4, #0]
   28cf4:	0e08      	lsrs	r0, r1, #24
   28cf6:	71a0      	strb	r0, [r4, #6]
   28cf8:	0c08      	lsrs	r0, r1, #16
   28cfa:	7160      	strb	r0, [r4, #5]
   28cfc:	0a08      	lsrs	r0, r1, #8
   28cfe:	7120      	strb	r0, [r4, #4]
   28d00:	a810      	add	r0, sp, #64	@ 0x40
   28d02:	7880      	ldrb	r0, [r0, #2]
   28d04:	70a0      	strb	r0, [r4, #2]
   28d06:	1de0      	adds	r0, r4, #7
   28d08:	49ca      	ldr	r1, [pc, #808]	@ (29034 <_start+0x339c>)
   28d0a:	4469      	add	r1, sp
   28d0c:	221d      	movs	r2, #29
   28d0e:	f000 fbfe 	bl	2950e <__aeabi_memcpy>
   28d12:	4dc7      	ldr	r5, [pc, #796]	@ (29030 <_start+0x3398>)
   28d14:	446d      	add	r5, sp
   28d16:	4628      	mov	r0, r5
   28d18:	4621      	mov	r1, r4
   28d1a:	f7f8 fc1b 	bl	21554 <_ZN20complex_full_dynamic3app17h412a7751d152880fE>
   28d1e:	7828      	ldrb	r0, [r5, #0]
   28d20:	2801      	cmp	r0, #1
   28d22:	d103      	bne.n	28d2c <_start+0x3094>
   28d24:	990c      	ldr	r1, [sp, #48]	@ 0x30
   28d26:	6e09      	ldr	r1, [r1, #96]	@ 0x60
   28d28:	910b      	str	r1, [sp, #44]	@ 0x2c
   28d2a:	e015      	b.n	28d58 <_start+0x30c0>
   28d2c:	49c0      	ldr	r1, [pc, #768]	@ (29030 <_start+0x3398>)
   28d2e:	4469      	add	r1, sp
   28d30:	78ca      	ldrb	r2, [r1, #3]
   28d32:	ab10      	add	r3, sp, #64	@ 0x40
   28d34:	709a      	strb	r2, [r3, #2]
   28d36:	784a      	ldrb	r2, [r1, #1]
   28d38:	788c      	ldrb	r4, [r1, #2]
   28d3a:	0224      	lsls	r4, r4, #8
   28d3c:	18a2      	adds	r2, r4, r2
   28d3e:	801a      	strh	r2, [r3, #0]
   28d40:	3108      	adds	r1, #8
   28d42:	9a0c      	ldr	r2, [sp, #48]	@ 0x30
   28d44:	6e12      	ldr	r2, [r2, #96]	@ 0x60
   28d46:	920b      	str	r2, [sp, #44]	@ 0x2c
   28d48:	4afa      	ldr	r2, [pc, #1000]	@ (29134 <_start+0x349c>)
   28d4a:	446a      	add	r2, sp
   28d4c:	c938      	ldmia	r1!, {r3, r4, r5}
   28d4e:	c238      	stmia	r2!, {r3, r4, r5}
   28d50:	c938      	ldmia	r1!, {r3, r4, r5}
   28d52:	c238      	stmia	r2!, {r3, r4, r5}
   28d54:	c978      	ldmia	r1!, {r3, r4, r5, r6}
   28d56:	c278      	stmia	r2!, {r3, r4, r5, r6}
   28d58:	2800      	cmp	r0, #0
   28d5a:	d001      	beq.n	28d60 <_start+0x30c8>
   28d5c:	f7fd fb2a 	bl	263b4 <_start+0x71c>
   28d60:	4cf5      	ldr	r4, [pc, #980]	@ (29138 <_start+0x34a0>)
   28d62:	446c      	add	r4, sp
   28d64:	990b      	ldr	r1, [sp, #44]	@ 0x2c
   28d66:	70e1      	strb	r1, [r4, #3]
   28d68:	9810      	ldr	r0, [sp, #64]	@ 0x40
   28d6a:	8020      	strh	r0, [r4, #0]
   28d6c:	0e08      	lsrs	r0, r1, #24
   28d6e:	71a0      	strb	r0, [r4, #6]
   28d70:	0c08      	lsrs	r0, r1, #16
   28d72:	7160      	strb	r0, [r4, #5]
   28d74:	0a08      	lsrs	r0, r1, #8
   28d76:	7120      	strb	r0, [r4, #4]
   28d78:	a810      	add	r0, sp, #64	@ 0x40
   28d7a:	7880      	ldrb	r0, [r0, #2]
   28d7c:	70a0      	strb	r0, [r4, #2]
   28d7e:	1de0      	adds	r0, r4, #7
   28d80:	49ec      	ldr	r1, [pc, #944]	@ (29134 <_start+0x349c>)
   28d82:	4469      	add	r1, sp
   28d84:	2228      	movs	r2, #40	@ 0x28
   28d86:	f000 fbc2 	bl	2950e <__aeabi_memcpy>
   28d8a:	4de9      	ldr	r5, [pc, #932]	@ (29130 <_start+0x3498>)
   28d8c:	446d      	add	r5, sp
   28d8e:	4628      	mov	r0, r5
   28d90:	4621      	mov	r1, r4
   28d92:	f7fc fc17 	bl	255c4 <_ZN20complex_full_dynamic3app17heca2a86a38a644f3E>
   28d96:	782c      	ldrb	r4, [r5, #0]
   28d98:	2c01      	cmp	r4, #1
   28d9a:	d102      	bne.n	28da2 <_start+0x310a>
   28d9c:	980c      	ldr	r0, [sp, #48]	@ 0x30
   28d9e:	6e06      	ldr	r6, [r0, #96]	@ 0x60
   28da0:	e011      	b.n	28dc6 <_start+0x312e>
   28da2:	49e3      	ldr	r1, [pc, #908]	@ (29130 <_start+0x3498>)
   28da4:	4469      	add	r1, sp
   28da6:	78c8      	ldrb	r0, [r1, #3]
   28da8:	aa10      	add	r2, sp, #64	@ 0x40
   28daa:	7090      	strb	r0, [r2, #2]
   28dac:	7848      	ldrb	r0, [r1, #1]
   28dae:	788b      	ldrb	r3, [r1, #2]
   28db0:	021b      	lsls	r3, r3, #8
   28db2:	1818      	adds	r0, r3, r0
   28db4:	8010      	strh	r0, [r2, #0]
   28db6:	980c      	ldr	r0, [sp, #48]	@ 0x30
   28db8:	6e06      	ldr	r6, [r0, #96]	@ 0x60
   28dba:	3108      	adds	r1, #8
   28dbc:	48dd      	ldr	r0, [pc, #884]	@ (29134 <_start+0x349c>)
   28dbe:	4468      	add	r0, sp
   28dc0:	2257      	movs	r2, #87	@ 0x57
   28dc2:	f000 fa44 	bl	2924e <__aeabi_memcpy4>
   28dc6:	2c00      	cmp	r4, #0
   28dc8:	d001      	beq.n	28dce <_start+0x3136>
   28dca:	f7fd f986 	bl	260da <_start+0x442>
   28dce:	4cdb      	ldr	r4, [pc, #876]	@ (2913c <_start+0x34a4>)
   28dd0:	446c      	add	r4, sp
   28dd2:	70e6      	strb	r6, [r4, #3]
   28dd4:	9810      	ldr	r0, [sp, #64]	@ 0x40
   28dd6:	8020      	strh	r0, [r4, #0]
   28dd8:	0e30      	lsrs	r0, r6, #24
   28dda:	71a0      	strb	r0, [r4, #6]
   28ddc:	0c30      	lsrs	r0, r6, #16
   28dde:	7160      	strb	r0, [r4, #5]
   28de0:	0a30      	lsrs	r0, r6, #8
   28de2:	7120      	strb	r0, [r4, #4]
   28de4:	a810      	add	r0, sp, #64	@ 0x40
   28de6:	7880      	ldrb	r0, [r0, #2]
   28de8:	70a0      	strb	r0, [r4, #2]
   28dea:	1de0      	adds	r0, r4, #7
   28dec:	49d1      	ldr	r1, [pc, #836]	@ (29134 <_start+0x349c>)
   28dee:	4469      	add	r1, sp
   28df0:	2257      	movs	r2, #87	@ 0x57
   28df2:	f000 fb8c 	bl	2950e <__aeabi_memcpy>
   28df6:	4dce      	ldr	r5, [pc, #824]	@ (29130 <_start+0x3498>)
   28df8:	446d      	add	r5, sp
   28dfa:	4628      	mov	r0, r5
   28dfc:	4621      	mov	r1, r4
   28dfe:	f7f8 fd29 	bl	21854 <_ZN20complex_full_dynamic3app17h49be4da0d7f08a6bE>
   28e02:	782c      	ldrb	r4, [r5, #0]
   28e04:	2c01      	cmp	r4, #1
   28e06:	d102      	bne.n	28e0e <_start+0x3176>
   28e08:	980c      	ldr	r0, [sp, #48]	@ 0x30
   28e0a:	6e06      	ldr	r6, [r0, #96]	@ 0x60
   28e0c:	e011      	b.n	28e32 <_start+0x319a>
   28e0e:	49c8      	ldr	r1, [pc, #800]	@ (29130 <_start+0x3498>)
   28e10:	4469      	add	r1, sp
   28e12:	78c8      	ldrb	r0, [r1, #3]
   28e14:	aa10      	add	r2, sp, #64	@ 0x40
   28e16:	7090      	strb	r0, [r2, #2]
   28e18:	7848      	ldrb	r0, [r1, #1]
   28e1a:	788b      	ldrb	r3, [r1, #2]
   28e1c:	021b      	lsls	r3, r3, #8
   28e1e:	1818      	adds	r0, r3, r0
   28e20:	8010      	strh	r0, [r2, #0]
   28e22:	980c      	ldr	r0, [sp, #48]	@ 0x30
   28e24:	6e06      	ldr	r6, [r0, #96]	@ 0x60
   28e26:	3108      	adds	r1, #8
   28e28:	48c2      	ldr	r0, [pc, #776]	@ (29134 <_start+0x349c>)
   28e2a:	4468      	add	r0, sp
   28e2c:	224e      	movs	r2, #78	@ 0x4e
   28e2e:	f000 fa0e 	bl	2924e <__aeabi_memcpy4>
   28e32:	2c00      	cmp	r4, #0
   28e34:	d001      	beq.n	28e3a <_start+0x31a2>
   28e36:	f7fd f950 	bl	260da <_start+0x442>
   28e3a:	4cc1      	ldr	r4, [pc, #772]	@ (29140 <_start+0x34a8>)
   28e3c:	446c      	add	r4, sp
   28e3e:	70e6      	strb	r6, [r4, #3]
   28e40:	9810      	ldr	r0, [sp, #64]	@ 0x40
   28e42:	8020      	strh	r0, [r4, #0]
   28e44:	0e30      	lsrs	r0, r6, #24
   28e46:	71a0      	strb	r0, [r4, #6]
   28e48:	0c30      	lsrs	r0, r6, #16
   28e4a:	7160      	strb	r0, [r4, #5]
   28e4c:	0a30      	lsrs	r0, r6, #8
   28e4e:	7120      	strb	r0, [r4, #4]
   28e50:	a810      	add	r0, sp, #64	@ 0x40
   28e52:	7880      	ldrb	r0, [r0, #2]
   28e54:	70a0      	strb	r0, [r4, #2]
   28e56:	1de0      	adds	r0, r4, #7
   28e58:	49b6      	ldr	r1, [pc, #728]	@ (29134 <_start+0x349c>)
   28e5a:	4469      	add	r1, sp
   28e5c:	224e      	movs	r2, #78	@ 0x4e
   28e5e:	f000 fb56 	bl	2950e <__aeabi_memcpy>
   28e62:	4db3      	ldr	r5, [pc, #716]	@ (29130 <_start+0x3498>)
   28e64:	446d      	add	r5, sp
   28e66:	4628      	mov	r0, r5
   28e68:	4621      	mov	r1, r4
   28e6a:	f7fb f863 	bl	23f34 <_ZN20complex_full_dynamic3app17ha9e3dc37a8145cf3E>
   28e6e:	7828      	ldrb	r0, [r5, #0]
   28e70:	2801      	cmp	r0, #1
   28e72:	d102      	bne.n	28e7a <_start+0x31e2>
   28e74:	990c      	ldr	r1, [sp, #48]	@ 0x30
   28e76:	6e0e      	ldr	r6, [r1, #96]	@ 0x60
   28e78:	e012      	b.n	28ea0 <_start+0x3208>
   28e7a:	49ae      	ldr	r1, [pc, #696]	@ (29134 <_start+0x349c>)
   28e7c:	4469      	add	r1, sp
   28e7e:	9c0c      	ldr	r4, [sp, #48]	@ 0x30
   28e80:	6ee2      	ldr	r2, [r4, #108]	@ 0x6c
   28e82:	810a      	strh	r2, [r1, #8]
   28e84:	49aa      	ldr	r1, [pc, #680]	@ (29130 <_start+0x3498>)
   28e86:	4469      	add	r1, sp
   28e88:	78ca      	ldrb	r2, [r1, #3]
   28e8a:	ab10      	add	r3, sp, #64	@ 0x40
   28e8c:	709a      	strb	r2, [r3, #2]
   28e8e:	784a      	ldrb	r2, [r1, #1]
   28e90:	7889      	ldrb	r1, [r1, #2]
   28e92:	0209      	lsls	r1, r1, #8
   28e94:	1889      	adds	r1, r1, r2
   28e96:	8019      	strh	r1, [r3, #0]
   28e98:	6e61      	ldr	r1, [r4, #100]	@ 0x64
   28e9a:	6ea2      	ldr	r2, [r4, #104]	@ 0x68
   28e9c:	c406      	stmia	r4!, {r1, r2}
   28e9e:	6da6      	ldr	r6, [r4, #88]	@ 0x58
   28ea0:	2800      	cmp	r0, #0
   28ea2:	d001      	beq.n	28ea8 <_start+0x3210>
   28ea4:	f7fd f919 	bl	260da <_start+0x442>
   28ea8:	4ca6      	ldr	r4, [pc, #664]	@ (29144 <_start+0x34ac>)
   28eaa:	446c      	add	r4, sp
   28eac:	70e6      	strb	r6, [r4, #3]
   28eae:	9810      	ldr	r0, [sp, #64]	@ 0x40
   28eb0:	8020      	strh	r0, [r4, #0]
   28eb2:	0e30      	lsrs	r0, r6, #24
   28eb4:	71a0      	strb	r0, [r4, #6]
   28eb6:	0c30      	lsrs	r0, r6, #16
   28eb8:	7160      	strb	r0, [r4, #5]
   28eba:	0a30      	lsrs	r0, r6, #8
   28ebc:	7120      	strb	r0, [r4, #4]
   28ebe:	a810      	add	r0, sp, #64	@ 0x40
   28ec0:	7880      	ldrb	r0, [r0, #2]
   28ec2:	70a0      	strb	r0, [r4, #2]
   28ec4:	1de0      	adds	r0, r4, #7
   28ec6:	499b      	ldr	r1, [pc, #620]	@ (29134 <_start+0x349c>)
   28ec8:	4469      	add	r1, sp
   28eca:	220a      	movs	r2, #10
   28ecc:	f000 fb1f 	bl	2950e <__aeabi_memcpy>
   28ed0:	4d97      	ldr	r5, [pc, #604]	@ (29130 <_start+0x3498>)
   28ed2:	446d      	add	r5, sp
   28ed4:	4628      	mov	r0, r5
   28ed6:	4621      	mov	r1, r4
   28ed8:	f7fb f8b2 	bl	24040 <_ZN20complex_full_dynamic3app17had3d1c48879a81e1E>
   28edc:	782c      	ldrb	r4, [r5, #0]
   28ede:	2c01      	cmp	r4, #1
   28ee0:	d102      	bne.n	28ee8 <_start+0x3250>
   28ee2:	980c      	ldr	r0, [sp, #48]	@ 0x30
   28ee4:	6e06      	ldr	r6, [r0, #96]	@ 0x60
   28ee6:	e011      	b.n	28f0c <_start+0x3274>
   28ee8:	4991      	ldr	r1, [pc, #580]	@ (29130 <_start+0x3498>)
   28eea:	4469      	add	r1, sp
   28eec:	78c8      	ldrb	r0, [r1, #3]
   28eee:	aa10      	add	r2, sp, #64	@ 0x40
   28ef0:	7090      	strb	r0, [r2, #2]
   28ef2:	7848      	ldrb	r0, [r1, #1]
   28ef4:	788b      	ldrb	r3, [r1, #2]
   28ef6:	021b      	lsls	r3, r3, #8
   28ef8:	1818      	adds	r0, r3, r0
   28efa:	8010      	strh	r0, [r2, #0]
   28efc:	980c      	ldr	r0, [sp, #48]	@ 0x30
   28efe:	6e06      	ldr	r6, [r0, #96]	@ 0x60
   28f00:	3108      	adds	r1, #8
   28f02:	488c      	ldr	r0, [pc, #560]	@ (29134 <_start+0x349c>)
   28f04:	4468      	add	r0, sp
   28f06:	2249      	movs	r2, #73	@ 0x49
   28f08:	f000 f9a1 	bl	2924e <__aeabi_memcpy4>
   28f0c:	2c00      	cmp	r4, #0
   28f0e:	d001      	beq.n	28f14 <_start+0x327c>
   28f10:	f7fd f8e3 	bl	260da <_start+0x442>
   28f14:	4c8c      	ldr	r4, [pc, #560]	@ (29148 <_start+0x34b0>)
   28f16:	446c      	add	r4, sp
   28f18:	70e6      	strb	r6, [r4, #3]
   28f1a:	9810      	ldr	r0, [sp, #64]	@ 0x40
   28f1c:	8020      	strh	r0, [r4, #0]
   28f1e:	0e30      	lsrs	r0, r6, #24
   28f20:	71a0      	strb	r0, [r4, #6]
   28f22:	0c30      	lsrs	r0, r6, #16
   28f24:	7160      	strb	r0, [r4, #5]
   28f26:	0a30      	lsrs	r0, r6, #8
   28f28:	7120      	strb	r0, [r4, #4]
   28f2a:	a810      	add	r0, sp, #64	@ 0x40
   28f2c:	7880      	ldrb	r0, [r0, #2]
   28f2e:	70a0      	strb	r0, [r4, #2]
   28f30:	1de0      	adds	r0, r4, #7
   28f32:	4980      	ldr	r1, [pc, #512]	@ (29134 <_start+0x349c>)
   28f34:	4469      	add	r1, sp
   28f36:	2249      	movs	r2, #73	@ 0x49
   28f38:	f000 fae9 	bl	2950e <__aeabi_memcpy>
   28f3c:	4d7c      	ldr	r5, [pc, #496]	@ (29130 <_start+0x3498>)
   28f3e:	446d      	add	r5, sp
   28f40:	4628      	mov	r0, r5
   28f42:	4621      	mov	r1, r4
   28f44:	f7fb fa72 	bl	2442c <_ZN20complex_full_dynamic3app17hb96cdb9b7840b10dE>
   28f48:	7828      	ldrb	r0, [r5, #0]
   28f4a:	2801      	cmp	r0, #1
   28f4c:	d102      	bne.n	28f54 <_start+0x32bc>
   28f4e:	990c      	ldr	r1, [sp, #48]	@ 0x30
   28f50:	6e0e      	ldr	r6, [r1, #96]	@ 0x60
   28f52:	e012      	b.n	28f7a <_start+0x32e2>
   28f54:	4976      	ldr	r1, [pc, #472]	@ (29130 <_start+0x3498>)
   28f56:	4469      	add	r1, sp
   28f58:	78ca      	ldrb	r2, [r1, #3]
   28f5a:	ab10      	add	r3, sp, #64	@ 0x40
   28f5c:	709a      	strb	r2, [r3, #2]
   28f5e:	784a      	ldrb	r2, [r1, #1]
   28f60:	788c      	ldrb	r4, [r1, #2]
   28f62:	0224      	lsls	r4, r4, #8
   28f64:	18a2      	adds	r2, r4, r2
   28f66:	801a      	strh	r2, [r3, #0]
   28f68:	3108      	adds	r1, #8
   28f6a:	9a0c      	ldr	r2, [sp, #48]	@ 0x30
   28f6c:	6e16      	ldr	r6, [r2, #96]	@ 0x60
   28f6e:	4a71      	ldr	r2, [pc, #452]	@ (29134 <_start+0x349c>)
   28f70:	446a      	add	r2, sp
   28f72:	c918      	ldmia	r1!, {r3, r4}
   28f74:	c218      	stmia	r2!, {r3, r4}
   28f76:	c938      	ldmia	r1!, {r3, r4, r5}
   28f78:	c238      	stmia	r2!, {r3, r4, r5}
   28f7a:	2800      	cmp	r0, #0
   28f7c:	d001      	beq.n	28f82 <_start+0x32ea>
   28f7e:	f7fd f8ac 	bl	260da <_start+0x442>
   28f82:	4c72      	ldr	r4, [pc, #456]	@ (2914c <_start+0x34b4>)
   28f84:	446c      	add	r4, sp
   28f86:	70e6      	strb	r6, [r4, #3]
   28f88:	9810      	ldr	r0, [sp, #64]	@ 0x40
   28f8a:	8020      	strh	r0, [r4, #0]
   28f8c:	0e30      	lsrs	r0, r6, #24
   28f8e:	71a0      	strb	r0, [r4, #6]
   28f90:	0c30      	lsrs	r0, r6, #16
   28f92:	7160      	strb	r0, [r4, #5]
   28f94:	0a30      	lsrs	r0, r6, #8
   28f96:	7120      	strb	r0, [r4, #4]
   28f98:	a810      	add	r0, sp, #64	@ 0x40
   28f9a:	7880      	ldrb	r0, [r0, #2]
   28f9c:	70a0      	strb	r0, [r4, #2]
   28f9e:	1de0      	adds	r0, r4, #7
   28fa0:	4964      	ldr	r1, [pc, #400]	@ (29134 <_start+0x349c>)
   28fa2:	4469      	add	r1, sp
   28fa4:	2214      	movs	r2, #20
   28fa6:	f000 fab2 	bl	2950e <__aeabi_memcpy>
   28faa:	4d61      	ldr	r5, [pc, #388]	@ (29130 <_start+0x3498>)
   28fac:	446d      	add	r5, sp
   28fae:	4628      	mov	r0, r5
   28fb0:	4621      	mov	r1, r4
   28fb2:	f7f7 ffeb 	bl	20f8c <_ZN20complex_full_dynamic3app17h36f3d38a3598c275E>
   28fb6:	782c      	ldrb	r4, [r5, #0]
   28fb8:	2c01      	cmp	r4, #1
   28fba:	d102      	bne.n	28fc2 <_start+0x332a>
   28fbc:	980c      	ldr	r0, [sp, #48]	@ 0x30
   28fbe:	6e06      	ldr	r6, [r0, #96]	@ 0x60
   28fc0:	e011      	b.n	28fe6 <_start+0x334e>
   28fc2:	495b      	ldr	r1, [pc, #364]	@ (29130 <_start+0x3498>)
   28fc4:	4469      	add	r1, sp
   28fc6:	78c8      	ldrb	r0, [r1, #3]
   28fc8:	aa10      	add	r2, sp, #64	@ 0x40
   28fca:	7090      	strb	r0, [r2, #2]
   28fcc:	7848      	ldrb	r0, [r1, #1]
   28fce:	788b      	ldrb	r3, [r1, #2]
   28fd0:	021b      	lsls	r3, r3, #8
   28fd2:	1818      	adds	r0, r3, r0
   28fd4:	8010      	strh	r0, [r2, #0]
   28fd6:	980c      	ldr	r0, [sp, #48]	@ 0x30
   28fd8:	6e06      	ldr	r6, [r0, #96]	@ 0x60
   28fda:	3108      	adds	r1, #8
   28fdc:	4855      	ldr	r0, [pc, #340]	@ (29134 <_start+0x349c>)
   28fde:	4468      	add	r0, sp
   28fe0:	225c      	movs	r2, #92	@ 0x5c
   28fe2:	f000 f934 	bl	2924e <__aeabi_memcpy4>
   28fe6:	2c00      	cmp	r4, #0
   28fe8:	d001      	beq.n	28fee <_start+0x3356>
   28fea:	f7fd f876 	bl	260da <_start+0x442>
   28fee:	4c58      	ldr	r4, [pc, #352]	@ (29150 <_start+0x34b8>)
   28ff0:	446c      	add	r4, sp
   28ff2:	70e6      	strb	r6, [r4, #3]
   28ff4:	9810      	ldr	r0, [sp, #64]	@ 0x40
   28ff6:	8020      	strh	r0, [r4, #0]
   28ff8:	0e30      	lsrs	r0, r6, #24
   28ffa:	71a0      	strb	r0, [r4, #6]
   28ffc:	0c30      	lsrs	r0, r6, #16
   28ffe:	7160      	strb	r0, [r4, #5]
   29000:	0a30      	lsrs	r0, r6, #8
   29002:	7120      	strb	r0, [r4, #4]
   29004:	a810      	add	r0, sp, #64	@ 0x40
   29006:	7880      	ldrb	r0, [r0, #2]
   29008:	70a0      	strb	r0, [r4, #2]
   2900a:	1de0      	adds	r0, r4, #7
   2900c:	4949      	ldr	r1, [pc, #292]	@ (29134 <_start+0x349c>)
   2900e:	4469      	add	r1, sp
   29010:	225c      	movs	r2, #92	@ 0x5c
   29012:	f000 fa7c 	bl	2950e <__aeabi_memcpy>
   29016:	4d46      	ldr	r5, [pc, #280]	@ (29130 <_start+0x3498>)
   29018:	446d      	add	r5, sp
   2901a:	4628      	mov	r0, r5
   2901c:	4621      	mov	r1, r4
   2901e:	f7fa f8bb 	bl	23198 <_ZN20complex_full_dynamic3app17h8e5f2ec33ac76f2aE>
   29022:	7828      	ldrb	r0, [r5, #0]
   29024:	2801      	cmp	r0, #1
   29026:	d10b      	bne.n	29040 <_start+0x33a8>
   29028:	990c      	ldr	r1, [sp, #48]	@ 0x30
   2902a:	6e0e      	ldr	r6, [r1, #96]	@ 0x60
   2902c:	e01f      	b.n	2906e <_start+0x33d6>
   2902e:	46c0      	nop			@ (mov r8, r8)
   29030:	00001414 	.word	0x00001414
   29034:	000013b8 	.word	0x000013b8
   29038:	00001208 	.word	0x00001208
   2903c:	0000122c 	.word	0x0000122c
   29040:	493b      	ldr	r1, [pc, #236]	@ (29130 <_start+0x3498>)
   29042:	4469      	add	r1, sp
   29044:	78ca      	ldrb	r2, [r1, #3]
   29046:	ab10      	add	r3, sp, #64	@ 0x40
   29048:	709a      	strb	r2, [r3, #2]
   2904a:	784a      	ldrb	r2, [r1, #1]
   2904c:	788c      	ldrb	r4, [r1, #2]
   2904e:	0224      	lsls	r4, r4, #8
   29050:	18a2      	adds	r2, r4, r2
   29052:	801a      	strh	r2, [r3, #0]
   29054:	3108      	adds	r1, #8
   29056:	9a0c      	ldr	r2, [sp, #48]	@ 0x30
   29058:	6e16      	ldr	r6, [r2, #96]	@ 0x60
   2905a:	4a36      	ldr	r2, [pc, #216]	@ (29134 <_start+0x349c>)
   2905c:	446a      	add	r2, sp
   2905e:	c938      	ldmia	r1!, {r3, r4, r5}
   29060:	c238      	stmia	r2!, {r3, r4, r5}
   29062:	c938      	ldmia	r1!, {r3, r4, r5}
   29064:	c238      	stmia	r2!, {r3, r4, r5}
   29066:	c938      	ldmia	r1!, {r3, r4, r5}
   29068:	c238      	stmia	r2!, {r3, r4, r5}
   2906a:	7809      	ldrb	r1, [r1, #0]
   2906c:	7011      	strb	r1, [r2, #0]
   2906e:	2800      	cmp	r0, #0
   29070:	d001      	beq.n	29076 <_start+0x33de>
   29072:	f7fd f832 	bl	260da <_start+0x442>
   29076:	4c37      	ldr	r4, [pc, #220]	@ (29154 <_start+0x34bc>)
   29078:	446c      	add	r4, sp
   2907a:	70e6      	strb	r6, [r4, #3]
   2907c:	9810      	ldr	r0, [sp, #64]	@ 0x40
   2907e:	8020      	strh	r0, [r4, #0]
   29080:	0e30      	lsrs	r0, r6, #24
   29082:	71a0      	strb	r0, [r4, #6]
   29084:	0c30      	lsrs	r0, r6, #16
   29086:	7160      	strb	r0, [r4, #5]
   29088:	0a30      	lsrs	r0, r6, #8
   2908a:	7120      	strb	r0, [r4, #4]
   2908c:	a810      	add	r0, sp, #64	@ 0x40
   2908e:	7880      	ldrb	r0, [r0, #2]
   29090:	70a0      	strb	r0, [r4, #2]
   29092:	1de0      	adds	r0, r4, #7
   29094:	4927      	ldr	r1, [pc, #156]	@ (29134 <_start+0x349c>)
   29096:	4469      	add	r1, sp
   29098:	2225      	movs	r2, #37	@ 0x25
   2909a:	f000 fa38 	bl	2950e <__aeabi_memcpy>
   2909e:	4d24      	ldr	r5, [pc, #144]	@ (29130 <_start+0x3498>)
   290a0:	446d      	add	r5, sp
   290a2:	4628      	mov	r0, r5
   290a4:	4621      	mov	r1, r4
   290a6:	f7fc f80d 	bl	250c4 <_ZN20complex_full_dynamic3app17he1fe9a1b38359f2fE>
   290aa:	7828      	ldrb	r0, [r5, #0]
   290ac:	2801      	cmp	r0, #1
   290ae:	d103      	bne.n	290b8 <_start+0x3420>
   290b0:	990c      	ldr	r1, [sp, #48]	@ 0x30
   290b2:	6e09      	ldr	r1, [r1, #96]	@ 0x60
   290b4:	910b      	str	r1, [sp, #44]	@ 0x2c
   290b6:	e017      	b.n	290e8 <_start+0x3450>
   290b8:	491d      	ldr	r1, [pc, #116]	@ (29130 <_start+0x3498>)
   290ba:	4469      	add	r1, sp
   290bc:	78ca      	ldrb	r2, [r1, #3]
   290be:	ab10      	add	r3, sp, #64	@ 0x40
   290c0:	709a      	strb	r2, [r3, #2]
   290c2:	784a      	ldrb	r2, [r1, #1]
   290c4:	788c      	ldrb	r4, [r1, #2]
   290c6:	0224      	lsls	r4, r4, #8
   290c8:	18a2      	adds	r2, r4, r2
   290ca:	801a      	strh	r2, [r3, #0]
   290cc:	3108      	adds	r1, #8
   290ce:	9a0c      	ldr	r2, [sp, #48]	@ 0x30
   290d0:	6e12      	ldr	r2, [r2, #96]	@ 0x60
   290d2:	920b      	str	r2, [sp, #44]	@ 0x2c
   290d4:	4a17      	ldr	r2, [pc, #92]	@ (29134 <_start+0x349c>)
   290d6:	446a      	add	r2, sp
   290d8:	c978      	ldmia	r1!, {r3, r4, r5, r6}
   290da:	c278      	stmia	r2!, {r3, r4, r5, r6}
   290dc:	c978      	ldmia	r1!, {r3, r4, r5, r6}
   290de:	c278      	stmia	r2!, {r3, r4, r5, r6}
   290e0:	880b      	ldrh	r3, [r1, #0]
   290e2:	8013      	strh	r3, [r2, #0]
   290e4:	7889      	ldrb	r1, [r1, #2]
   290e6:	7091      	strb	r1, [r2, #2]
   290e8:	2800      	cmp	r0, #0
   290ea:	d001      	beq.n	290f0 <_start+0x3458>
   290ec:	f7fd f962 	bl	263b4 <_start+0x71c>
   290f0:	4c19      	ldr	r4, [pc, #100]	@ (29158 <_start+0x34c0>)
   290f2:	446c      	add	r4, sp
   290f4:	990b      	ldr	r1, [sp, #44]	@ 0x2c
   290f6:	70e1      	strb	r1, [r4, #3]
   290f8:	9810      	ldr	r0, [sp, #64]	@ 0x40
   290fa:	8020      	strh	r0, [r4, #0]
   290fc:	0e08      	lsrs	r0, r1, #24
   290fe:	71a0      	strb	r0, [r4, #6]
   29100:	0c08      	lsrs	r0, r1, #16
   29102:	7160      	strb	r0, [r4, #5]
   29104:	0a08      	lsrs	r0, r1, #8
   29106:	7120      	strb	r0, [r4, #4]
   29108:	a810      	add	r0, sp, #64	@ 0x40
   2910a:	7880      	ldrb	r0, [r0, #2]
   2910c:	70a0      	strb	r0, [r4, #2]
   2910e:	1de0      	adds	r0, r4, #7
   29110:	4908      	ldr	r1, [pc, #32]	@ (29134 <_start+0x349c>)
   29112:	4469      	add	r1, sp
   29114:	2223      	movs	r2, #35	@ 0x23
   29116:	f000 f9fa 	bl	2950e <__aeabi_memcpy>
   2911a:	4d05      	ldr	r5, [pc, #20]	@ (29130 <_start+0x3498>)
   2911c:	446d      	add	r5, sp
   2911e:	4628      	mov	r0, r5
   29120:	4621      	mov	r1, r4
   29122:	f7fa fd97 	bl	23c54 <_ZN20complex_full_dynamic3app17h9faedbb5f20918b7E>
   29126:	7828      	ldrb	r0, [r5, #0]
   29128:	990c      	ldr	r1, [sp, #48]	@ 0x30
   2912a:	6e0e      	ldr	r6, [r1, #96]	@ 0x60
   2912c:	f7fc ffd6 	bl	260dc <_start+0x444>
   29130:	00001414 	.word	0x00001414
   29134:	000013b8 	.word	0x000013b8
   29138:	00001250 	.word	0x00001250
   2913c:	00001280 	.word	0x00001280
   29140:	000012e0 	.word	0x000012e0
   29144:	00001338 	.word	0x00001338
   29148:	0000134c 	.word	0x0000134c
   2914c:	0000139c 	.word	0x0000139c
   29150:	00001478 	.word	0x00001478
   29154:	000014dc 	.word	0x000014dc
   29158:	00001508 	.word	0x00001508

0002915c <_ZN9allow_pin12full_dynamic17unshare_if_shared17h9f78cce76fd1eb6dE>:
   2915c:	b5d0      	push	{r4, r6, r7, lr}
   2915e:	af02      	add	r7, sp, #8
   29160:	7a02      	ldrb	r2, [r0, #8]
   29162:	2a02      	cmp	r2, #2
   29164:	d00d      	beq.n	29182 <_ZN9allow_pin12full_dynamic17unshare_if_shared17h9f78cce76fd1eb6dE+0x26>
   29166:	4604      	mov	r4, r0
   29168:	6800      	ldr	r0, [r0, #0]
   2916a:	6861      	ldr	r1, [r4, #4]
   2916c:	2a03      	cmp	r2, #3
   2916e:	d103      	bne.n	29178 <_ZN9allow_pin12full_dynamic17unshare_if_shared17h9f78cce76fd1eb6dE+0x1c>
   29170:	2200      	movs	r2, #0
   29172:	4613      	mov	r3, r2
   29174:	df03      	svc	3
   29176:	e002      	b.n	2917e <_ZN9allow_pin12full_dynamic17unshare_if_shared17h9f78cce76fd1eb6dE+0x22>
   29178:	2200      	movs	r2, #0
   2917a:	4613      	mov	r3, r2
   2917c:	df04      	svc	4
   2917e:	2002      	movs	r0, #2
   29180:	7220      	strb	r0, [r4, #8]
   29182:	bdd0      	pop	{r4, r6, r7, pc}

00029184 <_ZN9allow_pin13dynamic_allow17h33d41317a2da4f1cE>:
   29184:	b5b0      	push	{r4, r5, r7, lr}
   29186:	af02      	add	r7, sp, #8
   29188:	461d      	mov	r5, r3
   2918a:	4604      	mov	r4, r0
   2918c:	1df8      	adds	r0, r7, #7
   2918e:	3005      	adds	r0, #5
   29190:	7800      	ldrb	r0, [r0, #0]
   29192:	68bb      	ldr	r3, [r7, #8]
   29194:	2803      	cmp	r0, #3
   29196:	d104      	bne.n	291a2 <_ZN9allow_pin13dynamic_allow17h33d41317a2da4f1cE+0x1e>
   29198:	4608      	mov	r0, r1
   2919a:	4611      	mov	r1, r2
   2919c:	462a      	mov	r2, r5
   2919e:	df03      	svc	3
   291a0:	e003      	b.n	291aa <_ZN9allow_pin13dynamic_allow17h33d41317a2da4f1cE+0x26>
   291a2:	4608      	mov	r0, r1
   291a4:	4611      	mov	r1, r2
   291a6:	462a      	mov	r2, r5
   291a8:	df04      	svc	4
   291aa:	6020      	str	r0, [r4, #0]
   291ac:	6061      	str	r1, [r4, #4]
   291ae:	60a2      	str	r2, [r4, #8]
   291b0:	60e3      	str	r3, [r4, #12]
   291b2:	bdb0      	pop	{r4, r5, r7, pc}

000291b4 <__aeabi_memclr4>:
   291b4:	b5f0      	push	{r4, r5, r6, r7, lr}
   291b6:	af03      	add	r7, sp, #12
   291b8:	2904      	cmp	r1, #4
   291ba:	d311      	bcc.n	291e0 <__aeabi_memclr4+0x2c>
   291bc:	1f0c      	subs	r4, r1, #4
   291be:	250c      	movs	r5, #12
   291c0:	4025      	ands	r5, r4
   291c2:	2d0c      	cmp	r5, #12
   291c4:	d012      	beq.n	291ec <__aeabi_memclr4+0x38>
   291c6:	2600      	movs	r6, #0
   291c8:	4602      	mov	r2, r0
   291ca:	c240      	stmia	r2!, {r6}
   291cc:	0723      	lsls	r3, r4, #28
   291ce:	0f9b      	lsrs	r3, r3, #30
   291d0:	4623      	mov	r3, r4
   291d2:	d00d      	beq.n	291f0 <__aeabi_memclr4+0x3c>
   291d4:	6046      	str	r6, [r0, #4]
   291d6:	2d04      	cmp	r5, #4
   291d8:	d105      	bne.n	291e6 <__aeabi_memclr4+0x32>
   291da:	3908      	subs	r1, #8
   291dc:	3008      	adds	r0, #8
   291de:	e005      	b.n	291ec <__aeabi_memclr4+0x38>
   291e0:	460b      	mov	r3, r1
   291e2:	4602      	mov	r2, r0
   291e4:	e00f      	b.n	29206 <__aeabi_memclr4+0x52>
   291e6:	6086      	str	r6, [r0, #8]
   291e8:	390c      	subs	r1, #12
   291ea:	300c      	adds	r0, #12
   291ec:	4602      	mov	r2, r0
   291ee:	460b      	mov	r3, r1
   291f0:	2c0c      	cmp	r4, #12
   291f2:	d308      	bcc.n	29206 <__aeabi_memclr4+0x52>
   291f4:	2000      	movs	r0, #0
   291f6:	6010      	str	r0, [r2, #0]
   291f8:	6050      	str	r0, [r2, #4]
   291fa:	6090      	str	r0, [r2, #8]
   291fc:	60d0      	str	r0, [r2, #12]
   291fe:	3210      	adds	r2, #16
   29200:	3b10      	subs	r3, #16
   29202:	2b03      	cmp	r3, #3
   29204:	d8f6      	bhi.n	291f4 <__aeabi_memclr4+0x40>
   29206:	18d0      	adds	r0, r2, r3
   29208:	4282      	cmp	r2, r0
   2920a:	d21a      	bcs.n	29242 <__aeabi_memclr4+0x8e>
   2920c:	2403      	movs	r4, #3
   2920e:	401c      	ands	r4, r3
   29210:	1e59      	subs	r1, r3, #1
   29212:	2c00      	cmp	r4, #0
   29214:	d00b      	beq.n	2922e <__aeabi_memclr4+0x7a>
   29216:	2300      	movs	r3, #0
   29218:	7013      	strb	r3, [r2, #0]
   2921a:	2c01      	cmp	r4, #1
   2921c:	d103      	bne.n	29226 <__aeabi_memclr4+0x72>
   2921e:	1c52      	adds	r2, r2, #1
   29220:	2903      	cmp	r1, #3
   29222:	d206      	bcs.n	29232 <__aeabi_memclr4+0x7e>
   29224:	e00d      	b.n	29242 <__aeabi_memclr4+0x8e>
   29226:	7053      	strb	r3, [r2, #1]
   29228:	2c02      	cmp	r4, #2
   2922a:	d10b      	bne.n	29244 <__aeabi_memclr4+0x90>
   2922c:	1c92      	adds	r2, r2, #2
   2922e:	2903      	cmp	r1, #3
   29230:	d307      	bcc.n	29242 <__aeabi_memclr4+0x8e>
   29232:	2100      	movs	r1, #0
   29234:	70d1      	strb	r1, [r2, #3]
   29236:	7091      	strb	r1, [r2, #2]
   29238:	7051      	strb	r1, [r2, #1]
   2923a:	7011      	strb	r1, [r2, #0]
   2923c:	1d12      	adds	r2, r2, #4
   2923e:	4282      	cmp	r2, r0
   29240:	d1f7      	bne.n	29232 <__aeabi_memclr4+0x7e>
   29242:	bdf0      	pop	{r4, r5, r6, r7, pc}
   29244:	7093      	strb	r3, [r2, #2]
   29246:	1cd2      	adds	r2, r2, #3
   29248:	2903      	cmp	r1, #3
   2924a:	d2f2      	bcs.n	29232 <__aeabi_memclr4+0x7e>
   2924c:	e7f9      	b.n	29242 <__aeabi_memclr4+0x8e>

0002924e <__aeabi_memcpy4>:
   2924e:	b5f0      	push	{r4, r5, r6, r7, lr}
   29250:	af03      	add	r7, sp, #12
   29252:	b081      	sub	sp, #4
   29254:	2a04      	cmp	r2, #4
   29256:	d32d      	bcc.n	292b4 <__aeabi_memcpy4+0x66>
   29258:	1f13      	subs	r3, r2, #4
   2925a:	250c      	movs	r5, #12
   2925c:	401d      	ands	r5, r3
   2925e:	2d0c      	cmp	r5, #12
   29260:	d019      	beq.n	29296 <__aeabi_memcpy4+0x48>
   29262:	9200      	str	r2, [sp, #0]
   29264:	460e      	mov	r6, r1
   29266:	c904      	ldmia	r1!, {r2}
   29268:	4604      	mov	r4, r0
   2926a:	c004      	stmia	r0!, {r2}
   2926c:	071a      	lsls	r2, r3, #28
   2926e:	0f92      	lsrs	r2, r2, #30
   29270:	461a      	mov	r2, r3
   29272:	d010      	beq.n	29296 <__aeabi_memcpy4+0x48>
   29274:	4631      	mov	r1, r6
   29276:	6872      	ldr	r2, [r6, #4]
   29278:	6062      	str	r2, [r4, #4]
   2927a:	2d04      	cmp	r5, #4
   2927c:	d104      	bne.n	29288 <__aeabi_memcpy4+0x3a>
   2927e:	9a00      	ldr	r2, [sp, #0]
   29280:	3a08      	subs	r2, #8
   29282:	3108      	adds	r1, #8
   29284:	3408      	adds	r4, #8
   29286:	e005      	b.n	29294 <__aeabi_memcpy4+0x46>
   29288:	688a      	ldr	r2, [r1, #8]
   2928a:	60a2      	str	r2, [r4, #8]
   2928c:	9a00      	ldr	r2, [sp, #0]
   2928e:	3a0c      	subs	r2, #12
   29290:	310c      	adds	r1, #12
   29292:	340c      	adds	r4, #12
   29294:	4620      	mov	r0, r4
   29296:	2b0c      	cmp	r3, #12
   29298:	d30c      	bcc.n	292b4 <__aeabi_memcpy4+0x66>
   2929a:	680b      	ldr	r3, [r1, #0]
   2929c:	6003      	str	r3, [r0, #0]
   2929e:	684b      	ldr	r3, [r1, #4]
   292a0:	6043      	str	r3, [r0, #4]
   292a2:	688b      	ldr	r3, [r1, #8]
   292a4:	6083      	str	r3, [r0, #8]
   292a6:	68cb      	ldr	r3, [r1, #12]
   292a8:	60c3      	str	r3, [r0, #12]
   292aa:	3110      	adds	r1, #16
   292ac:	3010      	adds	r0, #16
   292ae:	3a10      	subs	r2, #16
   292b0:	2a03      	cmp	r2, #3
   292b2:	d8f2      	bhi.n	2929a <__aeabi_memcpy4+0x4c>
   292b4:	f000 f802 	bl	292bc <_ZN17compiler_builtins3mem6memcpy17h1f9dbb1c3fd18e2fE>
   292b8:	b001      	add	sp, #4
   292ba:	bdf0      	pop	{r4, r5, r6, r7, pc}

000292bc <_ZN17compiler_builtins3mem6memcpy17h1f9dbb1c3fd18e2fE>:
   292bc:	b5f0      	push	{r4, r5, r6, r7, lr}
   292be:	af03      	add	r7, sp, #12
   292c0:	b08f      	sub	sp, #60	@ 0x3c
   292c2:	2a10      	cmp	r2, #16
   292c4:	d315      	bcc.n	292f2 <_ZN17compiler_builtins3mem6memcpy17h1f9dbb1c3fd18e2fE+0x36>
   292c6:	920b      	str	r2, [sp, #44]	@ 0x2c
   292c8:	4242      	negs	r2, r0
   292ca:	2303      	movs	r3, #3
   292cc:	9308      	str	r3, [sp, #32]
   292ce:	401a      	ands	r2, r3
   292d0:	1885      	adds	r5, r0, r2
   292d2:	900a      	str	r0, [sp, #40]	@ 0x28
   292d4:	42a8      	cmp	r0, r5
   292d6:	d22a      	bcs.n	2932e <_ZN17compiler_builtins3mem6memcpy17h1f9dbb1c3fd18e2fE+0x72>
   292d8:	1e54      	subs	r4, r2, #1
   292da:	2a00      	cmp	r2, #0
   292dc:	980a      	ldr	r0, [sp, #40]	@ 0x28
   292de:	4606      	mov	r6, r0
   292e0:	460b      	mov	r3, r1
   292e2:	d016      	beq.n	29312 <_ZN17compiler_builtins3mem6memcpy17h1f9dbb1c3fd18e2fE+0x56>
   292e4:	780b      	ldrb	r3, [r1, #0]
   292e6:	7003      	strb	r3, [r0, #0]
   292e8:	2a01      	cmp	r2, #1
   292ea:	d107      	bne.n	292fc <_ZN17compiler_builtins3mem6memcpy17h1f9dbb1c3fd18e2fE+0x40>
   292ec:	1c4b      	adds	r3, r1, #1
   292ee:	1c46      	adds	r6, r0, #1
   292f0:	e00f      	b.n	29312 <_ZN17compiler_builtins3mem6memcpy17h1f9dbb1c3fd18e2fE+0x56>
   292f2:	4603      	mov	r3, r0
   292f4:	189c      	adds	r4, r3, r2
   292f6:	42a3      	cmp	r3, r4
   292f8:	d341      	bcc.n	2937e <_ZN17compiler_builtins3mem6memcpy17h1f9dbb1c3fd18e2fE+0xc2>
   292fa:	e062      	b.n	293c2 <_ZN17compiler_builtins3mem6memcpy17h1f9dbb1c3fd18e2fE+0x106>
   292fc:	784b      	ldrb	r3, [r1, #1]
   292fe:	7043      	strb	r3, [r0, #1]
   29300:	2a02      	cmp	r2, #2
   29302:	d102      	bne.n	2930a <_ZN17compiler_builtins3mem6memcpy17h1f9dbb1c3fd18e2fE+0x4e>
   29304:	1c8b      	adds	r3, r1, #2
   29306:	1c86      	adds	r6, r0, #2
   29308:	e003      	b.n	29312 <_ZN17compiler_builtins3mem6memcpy17h1f9dbb1c3fd18e2fE+0x56>
   2930a:	788b      	ldrb	r3, [r1, #2]
   2930c:	7083      	strb	r3, [r0, #2]
   2930e:	1ccb      	adds	r3, r1, #3
   29310:	1cc6      	adds	r6, r0, #3
   29312:	2c03      	cmp	r4, #3
   29314:	d30b      	bcc.n	2932e <_ZN17compiler_builtins3mem6memcpy17h1f9dbb1c3fd18e2fE+0x72>
   29316:	781c      	ldrb	r4, [r3, #0]
   29318:	7034      	strb	r4, [r6, #0]
   2931a:	785c      	ldrb	r4, [r3, #1]
   2931c:	7074      	strb	r4, [r6, #1]
   2931e:	789c      	ldrb	r4, [r3, #2]
   29320:	70b4      	strb	r4, [r6, #2]
   29322:	78dc      	ldrb	r4, [r3, #3]
   29324:	70f4      	strb	r4, [r6, #3]
   29326:	1d1b      	adds	r3, r3, #4
   29328:	1d36      	adds	r6, r6, #4
   2932a:	42ae      	cmp	r6, r5
   2932c:	d1f3      	bne.n	29316 <_ZN17compiler_builtins3mem6memcpy17h1f9dbb1c3fd18e2fE+0x5a>
   2932e:	980b      	ldr	r0, [sp, #44]	@ 0x2c
   29330:	1a80      	subs	r0, r0, r2
   29332:	900b      	str	r0, [sp, #44]	@ 0x2c
   29334:	9c08      	ldr	r4, [sp, #32]
   29336:	43a0      	bics	r0, r4
   29338:	182b      	adds	r3, r5, r0
   2933a:	188e      	adds	r6, r1, r2
   2933c:	9609      	str	r6, [sp, #36]	@ 0x24
   2933e:	4026      	ands	r6, r4
   29340:	9007      	str	r0, [sp, #28]
   29342:	d147      	bne.n	293d4 <_ZN17compiler_builtins3mem6memcpy17h1f9dbb1c3fd18e2fE+0x118>
   29344:	429d      	cmp	r5, r3
   29346:	9a0b      	ldr	r2, [sp, #44]	@ 0x2c
   29348:	9e09      	ldr	r6, [sp, #36]	@ 0x24
   2934a:	d211      	bcs.n	29370 <_ZN17compiler_builtins3mem6memcpy17h1f9dbb1c3fd18e2fE+0xb4>
   2934c:	4631      	mov	r1, r6
   2934e:	6808      	ldr	r0, [r1, #0]
   29350:	c501      	stmia	r5!, {r0}
   29352:	429d      	cmp	r5, r3
   29354:	d20c      	bcs.n	29370 <_ZN17compiler_builtins3mem6memcpy17h1f9dbb1c3fd18e2fE+0xb4>
   29356:	6848      	ldr	r0, [r1, #4]
   29358:	c501      	stmia	r5!, {r0}
   2935a:	429d      	cmp	r5, r3
   2935c:	d208      	bcs.n	29370 <_ZN17compiler_builtins3mem6memcpy17h1f9dbb1c3fd18e2fE+0xb4>
   2935e:	6888      	ldr	r0, [r1, #8]
   29360:	c501      	stmia	r5!, {r0}
   29362:	429d      	cmp	r5, r3
   29364:	d204      	bcs.n	29370 <_ZN17compiler_builtins3mem6memcpy17h1f9dbb1c3fd18e2fE+0xb4>
   29366:	68c8      	ldr	r0, [r1, #12]
   29368:	c501      	stmia	r5!, {r0}
   2936a:	3110      	adds	r1, #16
   2936c:	429d      	cmp	r5, r3
   2936e:	d3ee      	bcc.n	2934e <_ZN17compiler_builtins3mem6memcpy17h1f9dbb1c3fd18e2fE+0x92>
   29370:	4022      	ands	r2, r4
   29372:	9807      	ldr	r0, [sp, #28]
   29374:	1831      	adds	r1, r6, r0
   29376:	980a      	ldr	r0, [sp, #40]	@ 0x28
   29378:	189c      	adds	r4, r3, r2
   2937a:	42a3      	cmp	r3, r4
   2937c:	d221      	bcs.n	293c2 <_ZN17compiler_builtins3mem6memcpy17h1f9dbb1c3fd18e2fE+0x106>
   2937e:	2503      	movs	r5, #3
   29380:	4015      	ands	r5, r2
   29382:	1e52      	subs	r2, r2, #1
   29384:	2d00      	cmp	r5, #0
   29386:	d00e      	beq.n	293a6 <_ZN17compiler_builtins3mem6memcpy17h1f9dbb1c3fd18e2fE+0xea>
   29388:	780e      	ldrb	r6, [r1, #0]
   2938a:	701e      	strb	r6, [r3, #0]
   2938c:	2d01      	cmp	r5, #1
   2938e:	d104      	bne.n	2939a <_ZN17compiler_builtins3mem6memcpy17h1f9dbb1c3fd18e2fE+0xde>
   29390:	1c49      	adds	r1, r1, #1
   29392:	1c5b      	adds	r3, r3, #1
   29394:	2a03      	cmp	r2, #3
   29396:	d208      	bcs.n	293aa <_ZN17compiler_builtins3mem6memcpy17h1f9dbb1c3fd18e2fE+0xee>
   29398:	e013      	b.n	293c2 <_ZN17compiler_builtins3mem6memcpy17h1f9dbb1c3fd18e2fE+0x106>
   2939a:	784e      	ldrb	r6, [r1, #1]
   2939c:	705e      	strb	r6, [r3, #1]
   2939e:	2d02      	cmp	r5, #2
   293a0:	d111      	bne.n	293c6 <_ZN17compiler_builtins3mem6memcpy17h1f9dbb1c3fd18e2fE+0x10a>
   293a2:	1c89      	adds	r1, r1, #2
   293a4:	1c9b      	adds	r3, r3, #2
   293a6:	2a03      	cmp	r2, #3
   293a8:	d30b      	bcc.n	293c2 <_ZN17compiler_builtins3mem6memcpy17h1f9dbb1c3fd18e2fE+0x106>
   293aa:	780a      	ldrb	r2, [r1, #0]
   293ac:	701a      	strb	r2, [r3, #0]
   293ae:	784a      	ldrb	r2, [r1, #1]
   293b0:	705a      	strb	r2, [r3, #1]
   293b2:	788a      	ldrb	r2, [r1, #2]
   293b4:	709a      	strb	r2, [r3, #2]
   293b6:	78ca      	ldrb	r2, [r1, #3]
   293b8:	70da      	strb	r2, [r3, #3]
   293ba:	1d09      	adds	r1, r1, #4
   293bc:	1d1b      	adds	r3, r3, #4
   293be:	42a3      	cmp	r3, r4
   293c0:	d1f3      	bne.n	293aa <_ZN17compiler_builtins3mem6memcpy17h1f9dbb1c3fd18e2fE+0xee>
   293c2:	b00f      	add	sp, #60	@ 0x3c
   293c4:	bdf0      	pop	{r4, r5, r6, r7, pc}
   293c6:	788d      	ldrb	r5, [r1, #2]
   293c8:	709d      	strb	r5, [r3, #2]
   293ca:	1cc9      	adds	r1, r1, #3
   293cc:	1cdb      	adds	r3, r3, #3
   293ce:	2a03      	cmp	r2, #3
   293d0:	d2eb      	bcs.n	293aa <_ZN17compiler_builtins3mem6memcpy17h1f9dbb1c3fd18e2fE+0xee>
   293d2:	e7f6      	b.n	293c2 <_ZN17compiler_builtins3mem6memcpy17h1f9dbb1c3fd18e2fE+0x106>
   293d4:	2400      	movs	r4, #0
   293d6:	9406      	str	r4, [sp, #24]
   293d8:	940e      	str	r4, [sp, #56]	@ 0x38
   293da:	ac0e      	add	r4, sp, #56	@ 0x38
   293dc:	19a4      	adds	r4, r4, r6
   293de:	9405      	str	r4, [sp, #20]
   293e0:	2404      	movs	r4, #4
   293e2:	1ba4      	subs	r4, r4, r6
   293e4:	9404      	str	r4, [sp, #16]
   293e6:	07e4      	lsls	r4, r4, #31
   293e8:	9600      	str	r6, [sp, #0]
   293ea:	d006      	beq.n	293fa <_ZN17compiler_builtins3mem6memcpy17h1f9dbb1c3fd18e2fE+0x13e>
   293ec:	9c09      	ldr	r4, [sp, #36]	@ 0x24
   293ee:	7824      	ldrb	r4, [r4, #0]
   293f0:	9e05      	ldr	r6, [sp, #20]
   293f2:	7034      	strb	r4, [r6, #0]
   293f4:	9e00      	ldr	r6, [sp, #0]
   293f6:	2401      	movs	r4, #1
   293f8:	9406      	str	r4, [sp, #24]
   293fa:	9c04      	ldr	r4, [sp, #16]
   293fc:	07a4      	lsls	r4, r4, #30
   293fe:	d508      	bpl.n	29412 <_ZN17compiler_builtins3mem6memcpy17h1f9dbb1c3fd18e2fE+0x156>
   29400:	9c09      	ldr	r4, [sp, #36]	@ 0x24
   29402:	9204      	str	r2, [sp, #16]
   29404:	9a06      	ldr	r2, [sp, #24]
   29406:	5aa4      	ldrh	r4, [r4, r2]
   29408:	9e05      	ldr	r6, [sp, #20]
   2940a:	9a06      	ldr	r2, [sp, #24]
   2940c:	52b4      	strh	r4, [r6, r2]
   2940e:	9a04      	ldr	r2, [sp, #16]
   29410:	9e00      	ldr	r6, [sp, #0]
   29412:	00f4      	lsls	r4, r6, #3
   29414:	9403      	str	r4, [sp, #12]
   29416:	9c0e      	ldr	r4, [sp, #56]	@ 0x38
   29418:	9406      	str	r4, [sp, #24]
   2941a:	1d2c      	adds	r4, r5, #4
   2941c:	429c      	cmp	r4, r3
   2941e:	d236      	bcs.n	2948e <_ZN17compiler_builtins3mem6memcpy17h1f9dbb1c3fd18e2fE+0x1d2>
   29420:	4274      	negs	r4, r6
   29422:	1909      	adds	r1, r1, r4
   29424:	9105      	str	r1, [sp, #20]
   29426:	9d03      	ldr	r5, [sp, #12]
   29428:	4269      	negs	r1, r5
   2942a:	2418      	movs	r4, #24
   2942c:	400c      	ands	r4, r1
   2942e:	9402      	str	r4, [sp, #8]
   29430:	990a      	ldr	r1, [sp, #40]	@ 0x28
   29432:	9104      	str	r1, [sp, #16]
   29434:	4629      	mov	r1, r5
   29436:	9c06      	ldr	r4, [sp, #24]
   29438:	40cc      	lsrs	r4, r1
   2943a:	9406      	str	r4, [sp, #24]
   2943c:	9905      	ldr	r1, [sp, #20]
   2943e:	1889      	adds	r1, r1, r2
   29440:	9101      	str	r1, [sp, #4]
   29442:	6849      	ldr	r1, [r1, #4]
   29444:	460c      	mov	r4, r1
   29446:	9d02      	ldr	r5, [sp, #8]
   29448:	40ac      	lsls	r4, r5
   2944a:	9d06      	ldr	r5, [sp, #24]
   2944c:	432c      	orrs	r4, r5
   2944e:	9d04      	ldr	r5, [sp, #16]
   29450:	50ac      	str	r4, [r5, r2]
   29452:	18ad      	adds	r5, r5, r2
   29454:	462c      	mov	r4, r5
   29456:	3408      	adds	r4, #8
   29458:	429c      	cmp	r4, r3
   2945a:	d21c      	bcs.n	29496 <_ZN17compiler_builtins3mem6memcpy17h1f9dbb1c3fd18e2fE+0x1da>
   2945c:	9c03      	ldr	r4, [sp, #12]
   2945e:	40e1      	lsrs	r1, r4
   29460:	9c01      	ldr	r4, [sp, #4]
   29462:	68a4      	ldr	r4, [r4, #8]
   29464:	9406      	str	r4, [sp, #24]
   29466:	9501      	str	r5, [sp, #4]
   29468:	9d02      	ldr	r5, [sp, #8]
   2946a:	40ac      	lsls	r4, r5
   2946c:	430c      	orrs	r4, r1
   2946e:	9901      	ldr	r1, [sp, #4]
   29470:	604c      	str	r4, [r1, #4]
   29472:	9904      	ldr	r1, [sp, #16]
   29474:	3108      	adds	r1, #8
   29476:	9104      	str	r1, [sp, #16]
   29478:	188d      	adds	r5, r1, r2
   2947a:	1d29      	adds	r1, r5, #4
   2947c:	9c05      	ldr	r4, [sp, #20]
   2947e:	3408      	adds	r4, #8
   29480:	9405      	str	r4, [sp, #20]
   29482:	4299      	cmp	r1, r3
   29484:	9903      	ldr	r1, [sp, #12]
   29486:	d3d6      	bcc.n	29436 <_ZN17compiler_builtins3mem6memcpy17h1f9dbb1c3fd18e2fE+0x17a>
   29488:	9805      	ldr	r0, [sp, #20]
   2948a:	1880      	adds	r0, r0, r2
   2948c:	e001      	b.n	29492 <_ZN17compiler_builtins3mem6memcpy17h1f9dbb1c3fd18e2fE+0x1d6>
   2948e:	9809      	ldr	r0, [sp, #36]	@ 0x24
   29490:	1b80      	subs	r0, r0, r6
   29492:	9005      	str	r0, [sp, #20]
   29494:	e004      	b.n	294a0 <_ZN17compiler_builtins3mem6memcpy17h1f9dbb1c3fd18e2fE+0x1e4>
   29496:	9801      	ldr	r0, [sp, #4]
   29498:	1d00      	adds	r0, r0, #4
   2949a:	9005      	str	r0, [sp, #20]
   2949c:	1d2d      	adds	r5, r5, #4
   2949e:	9106      	str	r1, [sp, #24]
   294a0:	a80d      	add	r0, sp, #52	@ 0x34
   294a2:	2100      	movs	r1, #0
   294a4:	9004      	str	r0, [sp, #16]
   294a6:	7001      	strb	r1, [r0, #0]
   294a8:	a80c      	add	r0, sp, #48	@ 0x30
   294aa:	7001      	strb	r1, [r0, #0]
   294ac:	2e01      	cmp	r6, #1
   294ae:	460e      	mov	r6, r1
   294b0:	460c      	mov	r4, r1
   294b2:	9102      	str	r1, [sp, #8]
   294b4:	9a0b      	ldr	r2, [sp, #44]	@ 0x2c
   294b6:	d009      	beq.n	294cc <_ZN17compiler_builtins3mem6memcpy17h1f9dbb1c3fd18e2fE+0x210>
   294b8:	9c05      	ldr	r4, [sp, #20]
   294ba:	7960      	ldrb	r0, [r4, #5]
   294bc:	7926      	ldrb	r6, [r4, #4]
   294be:	ac0d      	add	r4, sp, #52	@ 0x34
   294c0:	7026      	strb	r6, [r4, #0]
   294c2:	0204      	lsls	r4, r0, #8
   294c4:	2002      	movs	r0, #2
   294c6:	9002      	str	r0, [sp, #8]
   294c8:	a80c      	add	r0, sp, #48	@ 0x30
   294ca:	9004      	str	r0, [sp, #16]
   294cc:	9809      	ldr	r0, [sp, #36]	@ 0x24
   294ce:	07c0      	lsls	r0, r0, #31
   294d0:	d00a      	beq.n	294e8 <_ZN17compiler_builtins3mem6memcpy17h1f9dbb1c3fd18e2fE+0x22c>
   294d2:	9805      	ldr	r0, [sp, #20]
   294d4:	1d00      	adds	r0, r0, #4
   294d6:	9902      	ldr	r1, [sp, #8]
   294d8:	5c40      	ldrb	r0, [r0, r1]
   294da:	9904      	ldr	r1, [sp, #16]
   294dc:	7008      	strb	r0, [r1, #0]
   294de:	a80d      	add	r0, sp, #52	@ 0x34
   294e0:	7806      	ldrb	r6, [r0, #0]
   294e2:	a80c      	add	r0, sp, #48	@ 0x30
   294e4:	7800      	ldrb	r0, [r0, #0]
   294e6:	0401      	lsls	r1, r0, #16
   294e8:	9605      	str	r6, [sp, #20]
   294ea:	9803      	ldr	r0, [sp, #12]
   294ec:	4240      	negs	r0, r0
   294ee:	9004      	str	r0, [sp, #16]
   294f0:	2618      	movs	r6, #24
   294f2:	9804      	ldr	r0, [sp, #16]
   294f4:	4006      	ands	r6, r0
   294f6:	430c      	orrs	r4, r1
   294f8:	9905      	ldr	r1, [sp, #20]
   294fa:	430c      	orrs	r4, r1
   294fc:	40b4      	lsls	r4, r6
   294fe:	9906      	ldr	r1, [sp, #24]
   29500:	9803      	ldr	r0, [sp, #12]
   29502:	40c1      	lsrs	r1, r0
   29504:	4321      	orrs	r1, r4
   29506:	6029      	str	r1, [r5, #0]
   29508:	9c08      	ldr	r4, [sp, #32]
   2950a:	9e09      	ldr	r6, [sp, #36]	@ 0x24
   2950c:	e730      	b.n	29370 <_ZN17compiler_builtins3mem6memcpy17h1f9dbb1c3fd18e2fE+0xb4>

0002950e <__aeabi_memcpy>:
   2950e:	b580      	push	{r7, lr}
   29510:	af00      	add	r7, sp, #0
   29512:	f7ff fed3 	bl	292bc <_ZN17compiler_builtins3mem6memcpy17h1f9dbb1c3fd18e2fE>
   29516:	bd80      	pop	{r7, pc}
